grantlee_defaultfilters.so:qt_plugin_instance
grantlee_defaultfilters.so:qt_plugin_query_metadata
grantlee_defaulttags.so:qt_plugin_instance
grantlee_defaulttags.so:qt_plugin_query_metadata
grantlee_i18ntags.so:qt_plugin_instance
grantlee_i18ntags.so:qt_plugin_query_metadata
grantlee_loadertags.so:qt_plugin_instance
grantlee_loadertags.so:qt_plugin_query_metadata
libGrantlee_Templates.so.5:_ZN8Grantlee10SafeString12NestedString10push_frontERKS0_
libGrantlee_Templates.so.5:_ZN8Grantlee10SafeString12NestedString10setUnicodeEPK5QChari
libGrantlee_Templates.so.5:_ZN8Grantlee10SafeString12NestedString4chopEi
libGrantlee_Templates.so.5:_ZN8Grantlee10SafeString12NestedString4fillE5QChari
libGrantlee_Templates.so.5:_ZN8Grantlee10SafeString12NestedString6appendE5QChar
libGrantlee_Templates.so.5:_ZN8Grantlee10SafeString12NestedString6appendERK10QStringRef
libGrantlee_Templates.so.5:_ZN8Grantlee10SafeString12NestedString6appendERK13QLatin1String
libGrantlee_Templates.so.5:_ZN8Grantlee10SafeString12NestedString6appendERK7QString
libGrantlee_Templates.so.5:_ZN8Grantlee10SafeString12NestedString6appendERKS0_
libGrantlee_Templates.so.5:_ZN8Grantlee10SafeString12NestedString6insertEi5QChar
libGrantlee_Templates.so.5:_ZN8Grantlee10SafeString12NestedString6insertEiPK5QChari
libGrantlee_Templates.so.5:_ZN8Grantlee10SafeString12NestedString6insertEiRK13QLatin1String
libGrantlee_Templates.so.5:_ZN8Grantlee10SafeString12NestedString6insertEiRK7QString
libGrantlee_Templates.so.5:_ZN8Grantlee10SafeString12NestedString6insertEiRKS0_
libGrantlee_Templates.so.5:_ZN8Grantlee10SafeString12NestedString6removeE5QCharN2Qt15CaseSensitivityE
libGrantlee_Templates.so.5:_ZN8Grantlee10SafeString12NestedString6removeERK18QRegularExpression
libGrantlee_Templates.so.5:_ZN8Grantlee10SafeString12NestedString6removeERK7QStringN2Qt15CaseSensitivityE
libGrantlee_Templates.so.5:_ZN8Grantlee10SafeString12NestedString6removeERKS0_N2Qt15CaseSensitivityE
libGrantlee_Templates.so.5:_ZN8Grantlee10SafeString12NestedString6removeEii
libGrantlee_Templates.so.5:_ZN8Grantlee10SafeString12NestedString6setNumEdci
libGrantlee_Templates.so.5:_ZN8Grantlee10SafeString12NestedString6setNumEfci
libGrantlee_Templates.so.5:_ZN8Grantlee10SafeString12NestedString6setNumEii
libGrantlee_Templates.so.5:_ZN8Grantlee10SafeString12NestedString6setNumEji
libGrantlee_Templates.so.5:_ZN8Grantlee10SafeString12NestedString6setNumEli
libGrantlee_Templates.so.5:_ZN8Grantlee10SafeString12NestedString6setNumEmi
libGrantlee_Templates.so.5:_ZN8Grantlee10SafeString12NestedString6setNumEsi
libGrantlee_Templates.so.5:_ZN8Grantlee10SafeString12NestedString6setNumEti
libGrantlee_Templates.so.5:_ZN8Grantlee10SafeString12NestedString6setNumExi
libGrantlee_Templates.so.5:_ZN8Grantlee10SafeString12NestedString6setNumEyi
libGrantlee_Templates.so.5:_ZN8Grantlee10SafeString12NestedString7prependE5QChar
libGrantlee_Templates.so.5:_ZN8Grantlee10SafeString12NestedString7prependERK13QLatin1String
libGrantlee_Templates.so.5:_ZN8Grantlee10SafeString12NestedString7prependERK7QString
libGrantlee_Templates.so.5:_ZN8Grantlee10SafeString12NestedString7prependERKS0_
libGrantlee_Templates.so.5:_ZN8Grantlee10SafeString12NestedString7replaceE5QCharRK13QLatin1StringN2Qt15CaseSensitivityE
libGrantlee_Templates.so.5:_ZN8Grantlee10SafeString12NestedString7replaceE5QCharRK7QStringN2Qt15CaseSensitivityE
libGrantlee_Templates.so.5:_ZN8Grantlee10SafeString12NestedString7replaceE5QCharRKS0_N2Qt15CaseSensitivityE
libGrantlee_Templates.so.5:_ZN8Grantlee10SafeString12NestedString7replaceE5QCharS2_N2Qt15CaseSensitivityE
libGrantlee_Templates.so.5:_ZN8Grantlee10SafeString12NestedString7replaceEPK5QChariS4_iN2Qt15CaseSensitivityE
libGrantlee_Templates.so.5:_ZN8Grantlee10SafeString12NestedString7replaceERK13QLatin1StringRK7QStringN2Qt15CaseSensitivityE
libGrantlee_Templates.so.5:_ZN8Grantlee10SafeString12NestedString7replaceERK13QLatin1StringRKS0_N2Qt15CaseSensitivityE
libGrantlee_Templates.so.5:_ZN8Grantlee10SafeString12NestedString7replaceERK13QLatin1StringS4_N2Qt15CaseSensitivityE
libGrantlee_Templates.so.5:_ZN8Grantlee10SafeString12NestedString7replaceERK18QRegularExpressionRK7QString
libGrantlee_Templates.so.5:_ZN8Grantlee10SafeString12NestedString7replaceERK18QRegularExpressionRKS0_
libGrantlee_Templates.so.5:_ZN8Grantlee10SafeString12NestedString7replaceERK7QStringRK13QLatin1StringN2Qt15CaseSensitivityE
libGrantlee_Templates.so.5:_ZN8Grantlee10SafeString12NestedString7replaceERK7QStringRKS0_N2Qt15CaseSensitivityE
libGrantlee_Templates.so.5:_ZN8Grantlee10SafeString12NestedString7replaceERK7QStringS4_N2Qt15CaseSensitivityE
libGrantlee_Templates.so.5:_ZN8Grantlee10SafeString12NestedString7replaceERKS0_RK13QLatin1StringN2Qt15CaseSensitivityE
libGrantlee_Templates.so.5:_ZN8Grantlee10SafeString12NestedString7replaceERKS0_RK7QStringN2Qt15CaseSensitivityE
libGrantlee_Templates.so.5:_ZN8Grantlee10SafeString12NestedString7replaceERKS0_S3_N2Qt15CaseSensitivityE
libGrantlee_Templates.so.5:_ZN8Grantlee10SafeString12NestedString7replaceEii5QChar
libGrantlee_Templates.so.5:_ZN8Grantlee10SafeString12NestedString7replaceEiiPK5QChari
libGrantlee_Templates.so.5:_ZN8Grantlee10SafeString12NestedString7replaceEiiRK7QString
libGrantlee_Templates.so.5:_ZN8Grantlee10SafeString12NestedString7replaceEiiRKS0_
libGrantlee_Templates.so.5:_ZN8Grantlee10SafeString12NestedString8setUtf16EPKti
libGrantlee_Templates.so.5:_ZN8Grantlee10SafeString12NestedString9push_backERKS0_
libGrantlee_Templates.so.5:_ZN8Grantlee10SafeString12NestedStringC1EPS0_
libGrantlee_Templates.so.5:_ZN8Grantlee10SafeString12NestedStringC1ERK7QStringPS0_
libGrantlee_Templates.so.5:_ZN8Grantlee10SafeString12NestedStringC2EPS0_
libGrantlee_Templates.so.5:_ZN8Grantlee10SafeString12NestedStringC2ERK7QStringPS0_
libGrantlee_Templates.so.5:_ZN8Grantlee10SafeString14setNeedsEscapeEb
libGrantlee_Templates.so.5:_ZN8Grantlee10SafeString9setSafetyENS0_6SafetyE
libGrantlee_Templates.so.5:_ZN8Grantlee10SafeStringC1ERK7QStringNS0_6SafetyE
libGrantlee_Templates.so.5:_ZN8Grantlee10SafeStringC1ERK7QStringb
libGrantlee_Templates.so.5:_ZN8Grantlee10SafeStringC1ERKS0_
libGrantlee_Templates.so.5:_ZN8Grantlee10SafeStringC1Ev
libGrantlee_Templates.so.5:_ZN8Grantlee10SafeStringC2ERK7QStringNS0_6SafetyE
libGrantlee_Templates.so.5:_ZN8Grantlee10SafeStringC2ERK7QStringb
libGrantlee_Templates.so.5:_ZN8Grantlee10SafeStringC2ERKS0_
libGrantlee_Templates.so.5:_ZN8Grantlee10SafeStringC2Ev
libGrantlee_Templates.so.5:_ZN8Grantlee10SafeStringD1Ev
libGrantlee_Templates.so.5:_ZN8Grantlee10SafeStringD2Ev
libGrantlee_Templates.so.5:_ZN8Grantlee10SafeStringaSERKS0_
libGrantlee_Templates.so.5:_ZN8Grantlee10SafeStringpLERK7QString
libGrantlee_Templates.so.5:_ZN8Grantlee10SafeStringpLERKS0_
libGrantlee_Templates.so.5:_ZN8Grantlee10SafeStringplERK7QString
libGrantlee_Templates.so.5:_ZN8Grantlee10SafeStringplERKS0_
libGrantlee_Templates.so.5:_ZN8Grantlee11QtLocalizer10pushLocaleERK7QString
libGrantlee_Templates.so.5:_ZN8Grantlee11QtLocalizer11loadCatalogERK7QStringS3_
libGrantlee_Templates.so.5:_ZN8Grantlee11QtLocalizer13unloadCatalogERK7QString
libGrantlee_Templates.so.5:_ZN8Grantlee11QtLocalizer17installTranslatorEP11QTranslatorRK7QString
libGrantlee_Templates.so.5:_ZN8Grantlee11QtLocalizer20setAppTranslatorPathERK7QString
libGrantlee_Templates.so.5:_ZN8Grantlee11QtLocalizer22setAppTranslatorPrefixERK7QString
libGrantlee_Templates.so.5:_ZN8Grantlee11QtLocalizer9popLocaleEv
libGrantlee_Templates.so.5:_ZN8Grantlee11QtLocalizerC1ERK7QLocale
libGrantlee_Templates.so.5:_ZN8Grantlee11QtLocalizerC2ERK7QLocale
libGrantlee_Templates.so.5:_ZN8Grantlee11QtLocalizerD0Ev
libGrantlee_Templates.so.5:_ZN8Grantlee11QtLocalizerD1Ev
libGrantlee_Templates.so.5:_ZN8Grantlee11QtLocalizerD2Ev
libGrantlee_Templates.so.5:_ZN8Grantlee12OutputStreamC1EP11QTextStream
libGrantlee_Templates.so.5:_ZN8Grantlee12OutputStreamC1Ev
libGrantlee_Templates.so.5:_ZN8Grantlee12OutputStreamC2EP11QTextStream
libGrantlee_Templates.so.5:_ZN8Grantlee12OutputStreamC2Ev
libGrantlee_Templates.so.5:_ZN8Grantlee12OutputStreamD0Ev
libGrantlee_Templates.so.5:_ZN8Grantlee12OutputStreamD1Ev
libGrantlee_Templates.so.5:_ZN8Grantlee12OutputStreamD2Ev
libGrantlee_Templates.so.5:_ZN8Grantlee12OutputStreamlsEP11QTextStream
libGrantlee_Templates.so.5:_ZN8Grantlee12OutputStreamlsERK7QString
libGrantlee_Templates.so.5:_ZN8Grantlee12OutputStreamlsERKNS_10SafeStringE
libGrantlee_Templates.so.5:_ZN8Grantlee12TemplateImpl10setContentERK7QString
libGrantlee_Templates.so.5:_ZN8Grantlee12TemplateImpl11qt_metacallEN11QMetaObject4CallEiPPv
libGrantlee_Templates.so.5:_ZN8Grantlee12TemplateImpl11qt_metacastEPKc
libGrantlee_Templates.so.5:_ZN8Grantlee12TemplateImpl11setNodeListERKNS_8NodeListE
libGrantlee_Templates.so.5:_ZN8Grantlee12TemplateImpl16staticMetaObjectE
libGrantlee_Templates.so.5:_ZN8Grantlee12TemplateImplC1EPKNS_6EngineEP7QObject
libGrantlee_Templates.so.5:_ZN8Grantlee12TemplateImplC1EPKNS_6EngineEbP7QObject
libGrantlee_Templates.so.5:_ZN8Grantlee12TemplateImplC2EPKNS_6EngineEP7QObject
libGrantlee_Templates.so.5:_ZN8Grantlee12TemplateImplC2EPKNS_6EngineEbP7QObject
libGrantlee_Templates.so.5:_ZN8Grantlee12TemplateImplD0Ev
libGrantlee_Templates.so.5:_ZN8Grantlee12TemplateImplD1Ev
libGrantlee_Templates.so.5:_ZN8Grantlee12TemplateImplD2Ev
libGrantlee_Templates.so.5:_ZN8Grantlee12VariableNode11qt_metacallEN11QMetaObject4CallEiPPv
libGrantlee_Templates.so.5:_ZN8Grantlee12VariableNode11qt_metacastEPKc
libGrantlee_Templates.so.5:_ZN8Grantlee12VariableNode16staticMetaObjectE
libGrantlee_Templates.so.5:_ZN8Grantlee12VariableNodeC1ERKNS_16FilterExpressionEP7QObject
libGrantlee_Templates.so.5:_ZN8Grantlee12VariableNodeC2ERKNS_16FilterExpressionEP7QObject
libGrantlee_Templates.so.5:_ZN8Grantlee12calcFileSizeEdid
libGrantlee_Templates.so.5:_ZN8Grantlee12isSafeStringERK8QVariant
libGrantlee_Templates.so.5:_ZN8Grantlee13NullLocalizer10pushLocaleERK7QString
libGrantlee_Templates.so.5:_ZN8Grantlee13NullLocalizer11loadCatalogERK7QStringS3_
libGrantlee_Templates.so.5:_ZN8Grantlee13NullLocalizer13unloadCatalogERK7QString
libGrantlee_Templates.so.5:_ZN8Grantlee13NullLocalizer9popLocaleEv
libGrantlee_Templates.so.5:_ZN8Grantlee13NullLocalizerC1Ev
libGrantlee_Templates.so.5:_ZN8Grantlee13NullLocalizerC2Ev
libGrantlee_Templates.so.5:_ZN8Grantlee13NullLocalizerD0Ev
libGrantlee_Templates.so.5:_ZN8Grantlee13NullLocalizerD1Ev
libGrantlee_Templates.so.5:_ZN8Grantlee13NullLocalizerD2Ev
libGrantlee_Templates.so.5:_ZN8Grantlee13RenderContext3popEv
libGrantlee_Templates.so.5:_ZN8Grantlee13RenderContext4dataEPKNS_4NodeE
libGrantlee_Templates.so.5:_ZN8Grantlee13RenderContext4pushEv
libGrantlee_Templates.so.5:_ZN8Grantlee13RenderContextC1Ev
libGrantlee_Templates.so.5:_ZN8Grantlee13RenderContextC2Ev
libGrantlee_Templates.so.5:_ZN8Grantlee13RenderContextD1Ev
libGrantlee_Templates.so.5:_ZN8Grantlee13RenderContextD2Ev
libGrantlee_Templates.so.5:_ZN8Grantlee13getSafeStringERK8QVariant
libGrantlee_Templates.so.5:_ZN8Grantlee13variantIsTrueERK8QVariant
libGrantlee_Templates.so.5:_ZN8Grantlee15markForEscapingERKNS_10SafeStringE
libGrantlee_Templates.so.5:_ZN8Grantlee16FilterExpressionC1ERK7QStringPNS_6ParserE
libGrantlee_Templates.so.5:_ZN8Grantlee16FilterExpressionC1ERKS0_
libGrantlee_Templates.so.5:_ZN8Grantlee16FilterExpressionC1Ev
libGrantlee_Templates.so.5:_ZN8Grantlee16FilterExpressionC2ERK7QStringPNS_6ParserE
libGrantlee_Templates.so.5:_ZN8Grantlee16FilterExpressionC2ERKS0_
libGrantlee_Templates.so.5:_ZN8Grantlee16FilterExpressionC2Ev
libGrantlee_Templates.so.5:_ZN8Grantlee16FilterExpressionD1Ev
libGrantlee_Templates.so.5:_ZN8Grantlee16FilterExpressionD2Ev
libGrantlee_Templates.so.5:_ZN8Grantlee16FilterExpressionaSERKS0_
libGrantlee_Templates.so.5:_ZN8Grantlee17AbstractLocalizerC1Ev
libGrantlee_Templates.so.5:_ZN8Grantlee17AbstractLocalizerC2Ev
libGrantlee_Templates.so.5:_ZN8Grantlee17AbstractLocalizerD0Ev
libGrantlee_Templates.so.5:_ZN8Grantlee17AbstractLocalizerD1Ev
libGrantlee_Templates.so.5:_ZN8Grantlee17AbstractLocalizerD2Ev
libGrantlee_Templates.so.5:_ZN8Grantlee19AbstractNodeFactory11qt_metacallEN11QMetaObject4CallEiPPv
libGrantlee_Templates.so.5:_ZN8Grantlee19AbstractNodeFactory11qt_metacastEPKc
libGrantlee_Templates.so.5:_ZN8Grantlee19AbstractNodeFactory16staticMetaObjectE
libGrantlee_Templates.so.5:_ZN8Grantlee19AbstractNodeFactoryC1EP7QObject
libGrantlee_Templates.so.5:_ZN8Grantlee19AbstractNodeFactoryC2EP7QObject
libGrantlee_Templates.so.5:_ZN8Grantlee19AbstractNodeFactoryD0Ev
libGrantlee_Templates.so.5:_ZN8Grantlee19AbstractNodeFactoryD1Ev
libGrantlee_Templates.so.5:_ZN8Grantlee19AbstractNodeFactoryD2Ev
libGrantlee_Templates.so.5:_ZN8Grantlee19supportedOutputTypeERK8QVariant
libGrantlee_Templates.so.5:_ZN8Grantlee21unescapeStringLiteralERK7QString
libGrantlee_Templates.so.5:_ZN8Grantlee22AbstractTemplateLoaderD0Ev
libGrantlee_Templates.so.5:_ZN8Grantlee22AbstractTemplateLoaderD1Ev
libGrantlee_Templates.so.5:_ZN8Grantlee22AbstractTemplateLoaderD2Ev
libGrantlee_Templates.so.5:_ZN8Grantlee22CachingLoaderDecorator5clearEv
libGrantlee_Templates.so.5:_ZN8Grantlee22CachingLoaderDecoratorC1E14QSharedPointerINS_22AbstractTemplateLoaderEE
libGrantlee_Templates.so.5:_ZN8Grantlee22CachingLoaderDecoratorC2E14QSharedPointerINS_22AbstractTemplateLoaderEE
libGrantlee_Templates.so.5:_ZN8Grantlee22CachingLoaderDecoratorD0Ev
libGrantlee_Templates.so.5:_ZN8Grantlee22CachingLoaderDecoratorD1Ev
libGrantlee_Templates.so.5:_ZN8Grantlee22CachingLoaderDecoratorD2Ev
libGrantlee_Templates.so.5:_ZN8Grantlee22InMemoryTemplateLoader11setTemplateERK7QStringS3_
libGrantlee_Templates.so.5:_ZN8Grantlee22InMemoryTemplateLoaderC1Ev
libGrantlee_Templates.so.5:_ZN8Grantlee22InMemoryTemplateLoaderC2Ev
libGrantlee_Templates.so.5:_ZN8Grantlee22InMemoryTemplateLoaderD0Ev
libGrantlee_Templates.so.5:_ZN8Grantlee22InMemoryTemplateLoaderD1Ev
libGrantlee_Templates.so.5:_ZN8Grantlee22InMemoryTemplateLoaderD2Ev
libGrantlee_Templates.so.5:_ZN8Grantlee24FileSystemTemplateLoader15setTemplateDirsERK11QStringList
libGrantlee_Templates.so.5:_ZN8Grantlee24FileSystemTemplateLoader8setThemeERK7QString
libGrantlee_Templates.so.5:_ZN8Grantlee24FileSystemTemplateLoaderC1E14QSharedPointerINS_17AbstractLocalizerEE
libGrantlee_Templates.so.5:_ZN8Grantlee24FileSystemTemplateLoaderC2E14QSharedPointerINS_17AbstractLocalizerEE
libGrantlee_Templates.so.5:_ZN8Grantlee24FileSystemTemplateLoaderD0Ev
libGrantlee_Templates.so.5:_ZN8Grantlee24FileSystemTemplateLoaderD1Ev
libGrantlee_Templates.so.5:_ZN8Grantlee24FileSystemTemplateLoaderD2Ev
libGrantlee_Templates.so.5:_ZN8Grantlee4Node11qt_metacallEN11QMetaObject4CallEiPPv
libGrantlee_Templates.so.5:_ZN8Grantlee4Node11qt_metacastEPKc
libGrantlee_Templates.so.5:_ZN8Grantlee4Node16staticMetaObjectE
libGrantlee_Templates.so.5:_ZN8Grantlee4NodeC1EP7QObject
libGrantlee_Templates.so.5:_ZN8Grantlee4NodeC2EP7QObject
libGrantlee_Templates.so.5:_ZN8Grantlee4NodeD0Ev
libGrantlee_Templates.so.5:_ZN8Grantlee4NodeD1Ev
libGrantlee_Templates.so.5:_ZN8Grantlee4NodeD2Ev
libGrantlee_Templates.so.5:_ZN8Grantlee6Engine11loadLibraryERK7QString
libGrantlee_Templates.so.5:_ZN8Grantlee6Engine11qt_metacallEN11QMetaObject4CallEiPPv
libGrantlee_Templates.so.5:_ZN8Grantlee6Engine11qt_metacastEPKc
libGrantlee_Templates.so.5:_ZN8Grantlee6Engine13addPluginPathERK7QString
libGrantlee_Templates.so.5:_ZN8Grantlee6Engine14setPluginPathsERK11QStringList
libGrantlee_Templates.so.5:_ZN8Grantlee6Engine15templateLoadersEv
libGrantlee_Templates.so.5:_ZN8Grantlee6Engine16removePluginPathERK7QString
libGrantlee_Templates.so.5:_ZN8Grantlee6Engine16staticMetaObjectE
libGrantlee_Templates.so.5:_ZN8Grantlee6Engine17addDefaultLibraryERK7QString
libGrantlee_Templates.so.5:_ZN8Grantlee6Engine17addTemplateLoaderE14QSharedPointerINS_22AbstractTemplateLoaderEE
libGrantlee_Templates.so.5:_ZN8Grantlee6Engine19setSmartTrimEnabledEb
libGrantlee_Templates.so.5:_ZN8Grantlee6Engine20loadDefaultLibrariesEv
libGrantlee_Templates.so.5:_ZN8Grantlee6Engine20removeDefaultLibraryERK7QString
libGrantlee_Templates.so.5:_ZN8Grantlee6EngineC1EP7QObject
libGrantlee_Templates.so.5:_ZN8Grantlee6EngineC2EP7QObject
libGrantlee_Templates.so.5:_ZN8Grantlee6EngineD0Ev
libGrantlee_Templates.so.5:_ZN8Grantlee6EngineD1Ev
libGrantlee_Templates.so.5:_ZN8Grantlee6EngineD2Ev
libGrantlee_Templates.so.5:_ZN8Grantlee6Filter9setStreamEPNS_12OutputStreamE
libGrantlee_Templates.so.5:_ZN8Grantlee6FilterD0Ev
libGrantlee_Templates.so.5:_ZN8Grantlee6FilterD1Ev
libGrantlee_Templates.so.5:_ZN8Grantlee6FilterD2Ev
libGrantlee_Templates.so.5:_ZN8Grantlee6Parser11qt_metacallEN11QMetaObject4CallEiPPv
libGrantlee_Templates.so.5:_ZN8Grantlee6Parser11qt_metacastEPKc
libGrantlee_Templates.so.5:_ZN8Grantlee6Parser12prependTokenERKNS_5TokenE
libGrantlee_Templates.so.5:_ZN8Grantlee6Parser13takeNextTokenEv
libGrantlee_Templates.so.5:_ZN8Grantlee6Parser15invalidBlockTagERKNS_5TokenERK7QStringRK11QStringList
libGrantlee_Templates.so.5:_ZN8Grantlee6Parser15removeNextTokenEv
libGrantlee_Templates.so.5:_ZN8Grantlee6Parser16staticMetaObjectE
libGrantlee_Templates.so.5:_ZN8Grantlee6Parser5parseEPNS_12TemplateImplERK11QStringList
libGrantlee_Templates.so.5:_ZN8Grantlee6Parser5parseEPNS_4NodeERK11QStringList
libGrantlee_Templates.so.5:_ZN8Grantlee6Parser5parseEPNS_4NodeERK7QString
libGrantlee_Templates.so.5:_ZN8Grantlee6Parser7loadLibERK7QString
libGrantlee_Templates.so.5:_ZN8Grantlee6Parser8skipPastERK7QString
libGrantlee_Templates.so.5:_ZN8Grantlee6ParserC1ERK5QListINS_5TokenEEP7QObject
libGrantlee_Templates.so.5:_ZN8Grantlee6ParserC2ERK5QListINS_5TokenEEP7QObject
libGrantlee_Templates.so.5:_ZN8Grantlee6ParserD0Ev
libGrantlee_Templates.so.5:_ZN8Grantlee6ParserD1Ev
libGrantlee_Templates.so.5:_ZN8Grantlee6ParserD2Ev
libGrantlee_Templates.so.5:_ZN8Grantlee6equalsERK8QVariantS2_
libGrantlee_Templates.so.5:_ZN8Grantlee7Context10setUrlTypeENS0_7UrlTypeE
libGrantlee_Templates.so.5:_ZN8Grantlee7Context11setMutatingEb
libGrantlee_Templates.so.5:_ZN8Grantlee7Context12setLocalizerE14QSharedPointerINS_17AbstractLocalizerEE
libGrantlee_Templates.so.5:_ZN8Grantlee7Context13setAutoEscapeEb
libGrantlee_Templates.so.5:_ZN8Grantlee7Context16addExternalMediaERK7QStringS3_
libGrantlee_Templates.so.5:_ZN8Grantlee7Context18clearExternalMediaEv
libGrantlee_Templates.so.5:_ZN8Grantlee7Context20setRelativeMediaPathERK7QString
libGrantlee_Templates.so.5:_ZN8Grantlee7Context3popEv
libGrantlee_Templates.so.5:_ZN8Grantlee7Context4pushEv
libGrantlee_Templates.so.5:_ZN8Grantlee7Context6insertERK7QStringP7QObject
libGrantlee_Templates.so.5:_ZN8Grantlee7Context6insertERK7QStringRK8QVariant
libGrantlee_Templates.so.5:_ZN8Grantlee7ContextC1ERK5QHashI7QString8QVariantE
libGrantlee_Templates.so.5:_ZN8Grantlee7ContextC1ERKS0_
libGrantlee_Templates.so.5:_ZN8Grantlee7ContextC1Ev
libGrantlee_Templates.so.5:_ZN8Grantlee7ContextC2ERK5QHashI7QString8QVariantE
libGrantlee_Templates.so.5:_ZN8Grantlee7ContextC2ERKS0_
libGrantlee_Templates.so.5:_ZN8Grantlee7ContextC2Ev
libGrantlee_Templates.so.5:_ZN8Grantlee7ContextD1Ev
libGrantlee_Templates.so.5:_ZN8Grantlee7ContextD2Ev
libGrantlee_Templates.so.5:_ZN8Grantlee7ContextaSERKS0_
libGrantlee_Templates.so.5:_ZN8Grantlee8MetaType12internalLockEv
libGrantlee_Templates.so.5:_ZN8Grantlee8MetaType14internalUnlockEv
libGrantlee_Templates.so.5:_ZN8Grantlee8MetaType22registerLookUpOperatorEiPF8QVariantRKS1_RK7QStringE
libGrantlee_Templates.so.5:_ZN8Grantlee8MetaType23lookupAlreadyRegisteredEi
libGrantlee_Templates.so.5:_ZN8Grantlee8MetaType6lookupERK8QVariantRK7QString
libGrantlee_Templates.so.5:_ZN8Grantlee8NodeList6appendE5QListIPNS_4NodeEE
libGrantlee_Templates.so.5:_ZN8Grantlee8NodeList6appendEPNS_4NodeE
libGrantlee_Templates.so.5:_ZN8Grantlee8NodeListC1ERK5QListIPNS_4NodeEE
libGrantlee_Templates.so.5:_ZN8Grantlee8NodeListC1ERKS0_
libGrantlee_Templates.so.5:_ZN8Grantlee8NodeListC1Ev
libGrantlee_Templates.so.5:_ZN8Grantlee8NodeListC2ERK5QListIPNS_4NodeEE
libGrantlee_Templates.so.5:_ZN8Grantlee8NodeListC2ERKS0_
libGrantlee_Templates.so.5:_ZN8Grantlee8NodeListC2Ev
libGrantlee_Templates.so.5:_ZN8Grantlee8NodeListD1Ev
libGrantlee_Templates.so.5:_ZN8Grantlee8NodeListD2Ev
libGrantlee_Templates.so.5:_ZN8Grantlee8NodeListaSERKS0_
libGrantlee_Templates.so.5:_ZN8Grantlee8TextNode11qt_metacallEN11QMetaObject4CallEiPPv
libGrantlee_Templates.so.5:_ZN8Grantlee8TextNode11qt_metacastEPKc
libGrantlee_Templates.so.5:_ZN8Grantlee8TextNode16staticMetaObjectE
libGrantlee_Templates.so.5:_ZN8Grantlee8TextNodeC1ERK7QStringP7QObject
libGrantlee_Templates.so.5:_ZN8Grantlee8TextNodeC2ERK7QStringP7QObject
libGrantlee_Templates.so.5:_ZN8Grantlee8VariableC1ERK7QString
libGrantlee_Templates.so.5:_ZN8Grantlee8VariableC1ERKS0_
libGrantlee_Templates.so.5:_ZN8Grantlee8VariableC1Ev
libGrantlee_Templates.so.5:_ZN8Grantlee8VariableC2ERK7QString
libGrantlee_Templates.so.5:_ZN8Grantlee8VariableC2ERKS0_
libGrantlee_Templates.so.5:_ZN8Grantlee8VariableC2Ev
libGrantlee_Templates.so.5:_ZN8Grantlee8VariableD1Ev
libGrantlee_Templates.so.5:_ZN8Grantlee8VariableD2Ev
libGrantlee_Templates.so.5:_ZN8Grantlee8VariableaSERKS0_
libGrantlee_Templates.so.5:_ZN8Grantlee8markSafeERKNS_10SafeStringE
libGrantlee_Templates.so.5:_ZN8Grantlee8toStringERK5QListI8QVariantE
libGrantlee_Templates.so.5:_ZNK8Grantlee10SafeString11needsEscapeEv
libGrantlee_Templates.so.5:_ZNK8Grantlee10SafeString12NestedString10normalizedEN7QString17NormalizationFormE
libGrantlee_Templates.so.5:_ZNK8Grantlee10SafeString12NestedString10normalizedEN7QString17NormalizationFormEN5QChar14UnicodeVersionE
libGrantlee_Templates.so.5:_ZNK8Grantlee10SafeString12NestedString10simplifiedEv
libGrantlee_Templates.so.5:_ZNK8Grantlee10SafeString12NestedString13leftJustifiedEi5QCharb
libGrantlee_Templates.so.5:_ZNK8Grantlee10SafeString12NestedString14rightJustifiedEi5QCharb
libGrantlee_Templates.so.5:_ZNK8Grantlee10SafeString12NestedString3midEii
libGrantlee_Templates.so.5:_ZNK8Grantlee10SafeString12NestedString4leftEi
libGrantlee_Templates.so.5:_ZNK8Grantlee10SafeString12NestedString5rightEi
libGrantlee_Templates.so.5:_ZNK8Grantlee10SafeString12NestedString5splitERK18QRegularExpression6QFlagsIN2Qt18SplitBehaviorFlagsEE
libGrantlee_Templates.so.5:_ZNK8Grantlee10SafeString12NestedString5splitERK18QRegularExpressionN7QString13SplitBehaviorE
libGrantlee_Templates.so.5:_ZNK8Grantlee10SafeString12NestedString5splitERK5QChar6QFlagsIN2Qt18SplitBehaviorFlagsEENS6_15CaseSensitivityE
libGrantlee_Templates.so.5:_ZNK8Grantlee10SafeString12NestedString5splitERK5QCharN7QString13SplitBehaviorEN2Qt15CaseSensitivityE
libGrantlee_Templates.so.5:_ZNK8Grantlee10SafeString12NestedString5splitERK7QString6QFlagsIN2Qt18SplitBehaviorFlagsEENS6_15CaseSensitivityE
libGrantlee_Templates.so.5:_ZNK8Grantlee10SafeString12NestedString5splitERK7QStringNS2_13SplitBehaviorEN2Qt15CaseSensitivityE
libGrantlee_Templates.so.5:_ZNK8Grantlee10SafeString12NestedString5splitERKS0_6QFlagsIN2Qt18SplitBehaviorFlagsEENS5_15CaseSensitivityE
libGrantlee_Templates.so.5:_ZNK8Grantlee10SafeString12NestedString5splitERKS0_N7QString13SplitBehaviorEN2Qt15CaseSensitivityE
libGrantlee_Templates.so.5:_ZNK8Grantlee10SafeString12NestedString7sectionE5QCharii6QFlagsIN7QString11SectionFlagEE
libGrantlee_Templates.so.5:_ZNK8Grantlee10SafeString12NestedString7sectionERK18QRegularExpressionii6QFlagsIN7QString11SectionFlagEE
libGrantlee_Templates.so.5:_ZNK8Grantlee10SafeString12NestedString7sectionERK7QStringii6QFlagsINS2_11SectionFlagEE
libGrantlee_Templates.so.5:_ZNK8Grantlee10SafeString12NestedString7sectionERKS0_ii6QFlagsIN7QString11SectionFlagEE
libGrantlee_Templates.so.5:_ZNK8Grantlee10SafeString12NestedString7toLowerEv
libGrantlee_Templates.so.5:_ZNK8Grantlee10SafeString12NestedString7toUpperEv
libGrantlee_Templates.so.5:_ZNK8Grantlee10SafeString12NestedString7trimmedEv
libGrantlee_Templates.so.5:_ZNK8Grantlee10SafeString12NestedString8repeatedEi
libGrantlee_Templates.so.5:_ZNK8Grantlee10SafeString6isSafeEv
libGrantlee_Templates.so.5:_ZNK8Grantlee10SafeStringeqERK7QString
libGrantlee_Templates.so.5:_ZNK8Grantlee10SafeStringeqERKS0_
libGrantlee_Templates.so.5:_ZNK8Grantlee11QtLocalizer12localizeDateERK5QDateN7QLocale10FormatTypeE
libGrantlee_Templates.so.5:_ZNK8Grantlee11QtLocalizer12localizeTimeERK5QTimeN7QLocale10FormatTypeE
libGrantlee_Templates.so.5:_ZNK8Grantlee11QtLocalizer13currentLocaleEv
libGrantlee_Templates.so.5:_ZNK8Grantlee11QtLocalizer14localizeNumberEd
libGrantlee_Templates.so.5:_ZNK8Grantlee11QtLocalizer14localizeNumberEi
libGrantlee_Templates.so.5:_ZNK8Grantlee11QtLocalizer14localizeStringERK7QStringRK5QListI8QVariantE
libGrantlee_Templates.so.5:_ZNK8Grantlee11QtLocalizer16localizeDateTimeERK9QDateTimeN7QLocale10FormatTypeE
libGrantlee_Templates.so.5:_ZNK8Grantlee11QtLocalizer20localizePluralStringERK7QStringS3_RK5QListI8QVariantE
libGrantlee_Templates.so.5:_ZNK8Grantlee11QtLocalizer21localizeContextStringERK7QStringS3_RK5QListI8QVariantE
libGrantlee_Templates.so.5:_ZNK8Grantlee11QtLocalizer21localizeMonetaryValueEdRK7QString
libGrantlee_Templates.so.5:_ZNK8Grantlee11QtLocalizer27localizePluralContextStringERK7QStringS3_S3_RK5QListI8QVariantE
libGrantlee_Templates.so.5:_ZNK8Grantlee12OutputStream17conditionalEscapeERKNS_10SafeStringE
libGrantlee_Templates.so.5:_ZNK8Grantlee12OutputStream5cloneEP11QTextStream
libGrantlee_Templates.so.5:_ZNK8Grantlee12OutputStream6escapeERK7QString
libGrantlee_Templates.so.5:_ZNK8Grantlee12OutputStream6escapeERKNS_10SafeStringE
libGrantlee_Templates.so.5:_ZNK8Grantlee12TemplateImpl10metaObjectEv
libGrantlee_Templates.so.5:_ZNK8Grantlee12TemplateImpl11errorStringEv
libGrantlee_Templates.so.5:_ZNK8Grantlee12TemplateImpl5errorEv
libGrantlee_Templates.so.5:_ZNK8Grantlee12TemplateImpl6engineEv
libGrantlee_Templates.so.5:_ZNK8Grantlee12TemplateImpl6renderEPNS_12OutputStreamEPNS_7ContextE
libGrantlee_Templates.so.5:_ZNK8Grantlee12TemplateImpl6renderEPNS_7ContextE
libGrantlee_Templates.so.5:_ZNK8Grantlee12TemplateImpl8nodeListEv
libGrantlee_Templates.so.5:_ZNK8Grantlee12VariableNode10metaObjectEv
libGrantlee_Templates.so.5:_ZNK8Grantlee12VariableNode6renderEPNS_12OutputStreamEPNS_7ContextE
libGrantlee_Templates.so.5:_ZNK8Grantlee13NullLocalizer12localizeDateERK5QDateN7QLocale10FormatTypeE
libGrantlee_Templates.so.5:_ZNK8Grantlee13NullLocalizer12localizeTimeERK5QTimeN7QLocale10FormatTypeE
libGrantlee_Templates.so.5:_ZNK8Grantlee13NullLocalizer13currentLocaleEv
libGrantlee_Templates.so.5:_ZNK8Grantlee13NullLocalizer14localizeNumberEd
libGrantlee_Templates.so.5:_ZNK8Grantlee13NullLocalizer14localizeNumberEi
libGrantlee_Templates.so.5:_ZNK8Grantlee13NullLocalizer14localizeStringERK7QStringRK5QListI8QVariantE
libGrantlee_Templates.so.5:_ZNK8Grantlee13NullLocalizer16localizeDateTimeERK9QDateTimeN7QLocale10FormatTypeE
libGrantlee_Templates.so.5:_ZNK8Grantlee13NullLocalizer20localizePluralStringERK7QStringS3_RK5QListI8QVariantE
libGrantlee_Templates.so.5:_ZNK8Grantlee13NullLocalizer21localizeContextStringERK7QStringS3_RK5QListI8QVariantE
libGrantlee_Templates.so.5:_ZNK8Grantlee13NullLocalizer21localizeMonetaryValueEdRK7QString
libGrantlee_Templates.so.5:_ZNK8Grantlee13NullLocalizer27localizePluralContextStringERK7QStringS3_S3_RK5QListI8QVariantE
libGrantlee_Templates.so.5:_ZNK8Grantlee13RenderContext8containsEPNS_4NodeE
libGrantlee_Templates.so.5:_ZNK8Grantlee16FilterExpression6isTrueEPNS_7ContextE
libGrantlee_Templates.so.5:_ZNK8Grantlee16FilterExpression6toListEPNS_7ContextE
libGrantlee_Templates.so.5:_ZNK8Grantlee16FilterExpression7filtersEv
libGrantlee_Templates.so.5:_ZNK8Grantlee16FilterExpression7isValidEv
libGrantlee_Templates.so.5:_ZNK8Grantlee16FilterExpression7resolveEPNS_12OutputStreamEPNS_7ContextE
libGrantlee_Templates.so.5:_ZNK8Grantlee16FilterExpression7resolveEPNS_7ContextE
libGrantlee_Templates.so.5:_ZNK8Grantlee16FilterExpression8variableEv
libGrantlee_Templates.so.5:_ZNK8Grantlee17AbstractLocalizer8localizeERK8QVariant
libGrantlee_Templates.so.5:_ZNK8Grantlee19AbstractNodeFactory10metaObjectEv
libGrantlee_Templates.so.5:_ZNK8Grantlee19AbstractNodeFactory10smartSplitERK7QString
libGrantlee_Templates.so.5:_ZNK8Grantlee19AbstractNodeFactory23getFilterExpressionListERK11QStringListPNS_6ParserE
libGrantlee_Templates.so.5:_ZNK8Grantlee22CachingLoaderDecorator10loadByNameERK7QStringPKNS_6EngineE
libGrantlee_Templates.so.5:_ZNK8Grantlee22CachingLoaderDecorator11getMediaUriERK7QString
libGrantlee_Templates.so.5:_ZNK8Grantlee22CachingLoaderDecorator15canLoadTemplateERK7QString
libGrantlee_Templates.so.5:_ZNK8Grantlee22CachingLoaderDecorator4sizeEv
libGrantlee_Templates.so.5:_ZNK8Grantlee22CachingLoaderDecorator7isEmptyEv
libGrantlee_Templates.so.5:_ZNK8Grantlee22InMemoryTemplateLoader10loadByNameERK7QStringPKNS_6EngineE
libGrantlee_Templates.so.5:_ZNK8Grantlee22InMemoryTemplateLoader11getMediaUriERK7QString
libGrantlee_Templates.so.5:_ZNK8Grantlee22InMemoryTemplateLoader15canLoadTemplateERK7QString
libGrantlee_Templates.so.5:_ZNK8Grantlee24FileSystemTemplateLoader10loadByNameERK7QStringPKNS_6EngineE
libGrantlee_Templates.so.5:_ZNK8Grantlee24FileSystemTemplateLoader11getMediaUriERK7QString
libGrantlee_Templates.so.5:_ZNK8Grantlee24FileSystemTemplateLoader12templateDirsEv
libGrantlee_Templates.so.5:_ZNK8Grantlee24FileSystemTemplateLoader15canLoadTemplateERK7QString
libGrantlee_Templates.so.5:_ZNK8Grantlee24FileSystemTemplateLoader9themeNameEv
libGrantlee_Templates.so.5:_ZNK8Grantlee4Node10metaObjectEv
libGrantlee_Templates.so.5:_ZNK8Grantlee4Node17containerTemplateEv
libGrantlee_Templates.so.5:_ZNK8Grantlee4Node20streamValueInContextEPNS_12OutputStreamERK8QVariantPNS_7ContextE
libGrantlee_Templates.so.5:_ZNK8Grantlee6Engine10loadByNameERK7QString
libGrantlee_Templates.so.5:_ZNK8Grantlee6Engine10metaObjectEv
libGrantlee_Templates.so.5:_ZNK8Grantlee6Engine11newTemplateERK7QStringS3_
libGrantlee_Templates.so.5:_ZNK8Grantlee6Engine11pluginPathsEv
libGrantlee_Templates.so.5:_ZNK8Grantlee6Engine16defaultLibrariesEv
libGrantlee_Templates.so.5:_ZNK8Grantlee6Engine16smartTrimEnabledEv
libGrantlee_Templates.so.5:_ZNK8Grantlee6Engine8mediaUriERK7QString
libGrantlee_Templates.so.5:_ZNK8Grantlee6Filter17conditionalEscapeERKNS_10SafeStringE
libGrantlee_Templates.so.5:_ZNK8Grantlee6Filter6escapeERK7QString
libGrantlee_Templates.so.5:_ZNK8Grantlee6Filter6escapeERKNS_10SafeStringE
libGrantlee_Templates.so.5:_ZNK8Grantlee6Filter6isSafeEv
libGrantlee_Templates.so.5:_ZNK8Grantlee6Parser10metaObjectEv
libGrantlee_Templates.so.5:_ZNK8Grantlee6Parser12hasNextTokenEv
libGrantlee_Templates.so.5:_ZNK8Grantlee6Parser9getFilterERK7QString
libGrantlee_Templates.so.5:_ZNK8Grantlee7Context10autoEscapeEv
libGrantlee_Templates.so.5:_ZNK8Grantlee7Context10isMutatingEv
libGrantlee_Templates.so.5:_ZNK8Grantlee7Context13externalMediaEv
libGrantlee_Templates.so.5:_ZNK8Grantlee7Context13renderContextEv
libGrantlee_Templates.so.5:_ZNK8Grantlee7Context17relativeMediaPathEv
libGrantlee_Templates.so.5:_ZNK8Grantlee7Context6lookupERK7QString
libGrantlee_Templates.so.5:_ZNK8Grantlee7Context7urlTypeEv
libGrantlee_Templates.so.5:_ZNK8Grantlee7Context9localizerEv
libGrantlee_Templates.so.5:_ZNK8Grantlee7Context9stackHashEi
libGrantlee_Templates.so.5:_ZNK8Grantlee8NodeList15containsNonTextEv
libGrantlee_Templates.so.5:_ZNK8Grantlee8NodeList6renderEPNS_12OutputStreamEPNS_7ContextE
libGrantlee_Templates.so.5:_ZNK8Grantlee8TextNode10metaObjectEv
libGrantlee_Templates.so.5:_ZNK8Grantlee8Variable10isConstantEv
libGrantlee_Templates.so.5:_ZNK8Grantlee8Variable11isLocalizedEv
libGrantlee_Templates.so.5:_ZNK8Grantlee8Variable6isTrueEPNS_7ContextE
libGrantlee_Templates.so.5:_ZNK8Grantlee8Variable7isValidEv
libGrantlee_Templates.so.5:_ZNK8Grantlee8Variable7literalEv
libGrantlee_Templates.so.5:_ZNK8Grantlee8Variable7lookupsEv
libGrantlee_Templates.so.5:_ZNK8Grantlee8Variable7resolveEPNS_7ContextE
libGrantlee_Templates.so.5:qt_plugin_instance
libGrantlee_Templates.so.5:qt_plugin_query_metadata
libGrantlee_TextDocument.so.5:_ZN8Grantlee14MarkupDirector11processListEN10QTextFrame8iteratorERK10QTextBlockP9QTextList
libGrantlee_TextDocument.so.5:_ZN8Grantlee14MarkupDirector12processBlockEN10QTextFrame8iteratorERK10QTextBlock
libGrantlee_TextDocument.so.5:_ZN8Grantlee14MarkupDirector12processFrameEN10QTextFrame8iteratorEPS1_
libGrantlee_TextDocument.so.5:_ZN8Grantlee14MarkupDirector12processImageEN10QTextBlock8iteratorERK16QTextImageFormatP13QTextDocument
libGrantlee_TextDocument.so.5:_ZN8Grantlee14MarkupDirector12processTableEN10QTextFrame8iteratorEP10QTextTable
libGrantlee_TextDocument.so.5:_ZN8Grantlee14MarkupDirector13processObjectEN10QTextFrame8iteratorERK10QTextBlockP11QTextObject
libGrantlee_TextDocument.so.5:_ZN8Grantlee14MarkupDirector14skipBlockGroupEN10QTextFrame8iteratorERK10QTextBlockP15QTextBlockGroup
libGrantlee_TextDocument.so.5:_ZN8Grantlee14MarkupDirector15processDocumentEP13QTextDocument
libGrantlee_TextDocument.so.5:_ZN8Grantlee14MarkupDirector15processFragmentEN10QTextBlock8iteratorERK13QTextFragmentPK13QTextDocument
libGrantlee_TextDocument.so.5:_ZN8Grantlee14MarkupDirector16processTableCellERK14QTextTableCellP10QTextTable
libGrantlee_TextDocument.so.5:_ZN8Grantlee14MarkupDirector17getElementsToOpenEN10QTextBlock8iteratorE
libGrantlee_TextDocument.so.5:_ZN8Grantlee14MarkupDirector17processBlockGroupEN10QTextFrame8iteratorERK10QTextBlockP15QTextBlockGroup
libGrantlee_TextDocument.so.5:_ZN8Grantlee14MarkupDirector20processBlockContentsEN10QTextFrame8iteratorERK10QTextBlock
libGrantlee_TextDocument.so.5:_ZN8Grantlee14MarkupDirector21processCharTextObjectEN10QTextBlock8iteratorERK13QTextFragmentP11QTextObject
libGrantlee_TextDocument.so.5:_ZN8Grantlee14MarkupDirector21processCustomFragmentERK13QTextFragmentPK13QTextDocument
libGrantlee_TextDocument.so.5:_ZN8Grantlee14MarkupDirector22processClosingElementsEN10QTextBlock8iteratorE
libGrantlee_TextDocument.so.5:_ZN8Grantlee14MarkupDirector22processOpeningElementsEN10QTextBlock8iteratorE
libGrantlee_TextDocument.so.5:_ZN8Grantlee14MarkupDirector23processDocumentContentsEN10QTextFrame8iteratorES2_
libGrantlee_TextDocument.so.5:_ZN8Grantlee14MarkupDirectorC1EPNS_21AbstractMarkupBuilderE
libGrantlee_TextDocument.so.5:_ZN8Grantlee14MarkupDirectorC2EPNS_21AbstractMarkupBuilderE
libGrantlee_TextDocument.so.5:_ZN8Grantlee14MarkupDirectorD0Ev
libGrantlee_TextDocument.so.5:_ZN8Grantlee14MarkupDirectorD1Ev
libGrantlee_TextDocument.so.5:_ZN8Grantlee14MarkupDirectorD2Ev
libGrantlee_TextDocument.so.5:_ZN8Grantlee15TextHTMLBuilder10addNewlineEv
libGrantlee_TextDocument.so.5:_ZN8Grantlee15TextHTMLBuilder10beginTableEddRK7QString
libGrantlee_TextDocument.so.5:_ZN8Grantlee15TextHTMLBuilder11beginAnchorERK7QStringS3_
libGrantlee_TextDocument.so.5:_ZN8Grantlee15TextHTMLBuilder11beginHeaderEi
libGrantlee_TextDocument.so.5:_ZN8Grantlee15TextHTMLBuilder11beginStrongEv
libGrantlee_TextDocument.so.5:_ZN8Grantlee15TextHTMLBuilder11endListItemEv
libGrantlee_TextDocument.so.5:_ZN8Grantlee15TextHTMLBuilder11endTableRowEv
libGrantlee_TextDocument.so.5:_ZN8Grantlee15TextHTMLBuilder11insertImageERK7QStringdd
libGrantlee_TextDocument.so.5:_ZN8Grantlee15TextHTMLBuilder12endParagraphEv
libGrantlee_TextDocument.so.5:_ZN8Grantlee15TextHTMLBuilder12endStrikeoutEv
libGrantlee_TextDocument.so.5:_ZN8Grantlee15TextHTMLBuilder12endSubscriptEv
libGrantlee_TextDocument.so.5:_ZN8Grantlee15TextHTMLBuilder12endTableCellEv
libGrantlee_TextDocument.so.5:_ZN8Grantlee15TextHTMLBuilder12endUnderlineEv
libGrantlee_TextDocument.so.5:_ZN8Grantlee15TextHTMLBuilder13appendRawTextERK7QString
libGrantlee_TextDocument.so.5:_ZN8Grantlee15TextHTMLBuilder13beginListItemEv
libGrantlee_TextDocument.so.5:_ZN8Grantlee15TextHTMLBuilder13beginTableRowEv
libGrantlee_TextDocument.so.5:_ZN8Grantlee15TextHTMLBuilder13endBackgroundEv
libGrantlee_TextDocument.so.5:_ZN8Grantlee15TextHTMLBuilder13endFontFamilyEv
libGrantlee_TextDocument.so.5:_ZN8Grantlee15TextHTMLBuilder13endForegroundEv
libGrantlee_TextDocument.so.5:_ZN8Grantlee15TextHTMLBuilder14beginParagraphE6QFlagsIN2Qt13AlignmentFlagEEdddd
libGrantlee_TextDocument.so.5:_ZN8Grantlee15TextHTMLBuilder14beginStrikeoutEv
libGrantlee_TextDocument.so.5:_ZN8Grantlee15TextHTMLBuilder14beginSubscriptEv
libGrantlee_TextDocument.so.5:_ZN8Grantlee15TextHTMLBuilder14beginTableCellERK7QStringii
libGrantlee_TextDocument.so.5:_ZN8Grantlee15TextHTMLBuilder14beginUnderlineEv
libGrantlee_TextDocument.so.5:_ZN8Grantlee15TextHTMLBuilder14endSuperscriptEv
libGrantlee_TextDocument.so.5:_ZN8Grantlee15TextHTMLBuilder15beginBackgroundERK6QBrush
libGrantlee_TextDocument.so.5:_ZN8Grantlee15TextHTMLBuilder15beginFontFamilyERK7QString
libGrantlee_TextDocument.so.5:_ZN8Grantlee15TextHTMLBuilder15beginForegroundERK6QBrush
libGrantlee_TextDocument.so.5:_ZN8Grantlee15TextHTMLBuilder16beginSuperscriptEv
libGrantlee_TextDocument.so.5:_ZN8Grantlee15TextHTMLBuilder16endFontPointSizeEv
libGrantlee_TextDocument.so.5:_ZN8Grantlee15TextHTMLBuilder17appendLiteralTextERK7QString
libGrantlee_TextDocument.so.5:_ZN8Grantlee15TextHTMLBuilder18beginFontPointSizeEi
libGrantlee_TextDocument.so.5:_ZN8Grantlee15TextHTMLBuilder18endTableHeaderCellEv
libGrantlee_TextDocument.so.5:_ZN8Grantlee15TextHTMLBuilder20beginTableHeaderCellERK7QStringii
libGrantlee_TextDocument.so.5:_ZN8Grantlee15TextHTMLBuilder20insertHorizontalRuleEi
libGrantlee_TextDocument.so.5:_ZN8Grantlee15TextHTMLBuilder7endEmphEv
libGrantlee_TextDocument.so.5:_ZN8Grantlee15TextHTMLBuilder7endListEv
libGrantlee_TextDocument.so.5:_ZN8Grantlee15TextHTMLBuilder8endTableEv
libGrantlee_TextDocument.so.5:_ZN8Grantlee15TextHTMLBuilder9beginEmphEv
libGrantlee_TextDocument.so.5:_ZN8Grantlee15TextHTMLBuilder9beginListEN15QTextListFormat5StyleE
libGrantlee_TextDocument.so.5:_ZN8Grantlee15TextHTMLBuilder9endAnchorEv
libGrantlee_TextDocument.so.5:_ZN8Grantlee15TextHTMLBuilder9endHeaderEi
libGrantlee_TextDocument.so.5:_ZN8Grantlee15TextHTMLBuilder9endStrongEv
libGrantlee_TextDocument.so.5:_ZN8Grantlee15TextHTMLBuilder9getResultEv
libGrantlee_TextDocument.so.5:_ZN8Grantlee15TextHTMLBuilderC1Ev
libGrantlee_TextDocument.so.5:_ZN8Grantlee15TextHTMLBuilderC2Ev
libGrantlee_TextDocument.so.5:_ZN8Grantlee15TextHTMLBuilderD0Ev
libGrantlee_TextDocument.so.5:_ZN8Grantlee15TextHTMLBuilderD1Ev
libGrantlee_TextDocument.so.5:_ZN8Grantlee15TextHTMLBuilderD2Ev
libGrantlee_TextDocument.so.5:_ZN8Grantlee22PlainTextMarkupBuilder10addNewlineEv
libGrantlee_TextDocument.so.5:_ZN8Grantlee22PlainTextMarkupBuilder10beginTableEddRK7QString
libGrantlee_TextDocument.so.5:_ZN8Grantlee22PlainTextMarkupBuilder11beginAnchorERK7QStringS3_
libGrantlee_TextDocument.so.5:_ZN8Grantlee22PlainTextMarkupBuilder11beginHeaderEi
libGrantlee_TextDocument.so.5:_ZN8Grantlee22PlainTextMarkupBuilder11beginStrongEv
libGrantlee_TextDocument.so.5:_ZN8Grantlee22PlainTextMarkupBuilder11endListItemEv
libGrantlee_TextDocument.so.5:_ZN8Grantlee22PlainTextMarkupBuilder11endTableRowEv
libGrantlee_TextDocument.so.5:_ZN8Grantlee22PlainTextMarkupBuilder11insertImageERK7QStringdd
libGrantlee_TextDocument.so.5:_ZN8Grantlee22PlainTextMarkupBuilder12addReferenceERK7QString
libGrantlee_TextDocument.so.5:_ZN8Grantlee22PlainTextMarkupBuilder12endParagraphEv
libGrantlee_TextDocument.so.5:_ZN8Grantlee22PlainTextMarkupBuilder12endStrikeoutEv
libGrantlee_TextDocument.so.5:_ZN8Grantlee22PlainTextMarkupBuilder12endSubscriptEv
libGrantlee_TextDocument.so.5:_ZN8Grantlee22PlainTextMarkupBuilder12endTableCellEv
libGrantlee_TextDocument.so.5:_ZN8Grantlee22PlainTextMarkupBuilder12endUnderlineEv
libGrantlee_TextDocument.so.5:_ZN8Grantlee22PlainTextMarkupBuilder13appendRawTextERK7QString
libGrantlee_TextDocument.so.5:_ZN8Grantlee22PlainTextMarkupBuilder13beginListItemEv
libGrantlee_TextDocument.so.5:_ZN8Grantlee22PlainTextMarkupBuilder13beginTableRowEv
libGrantlee_TextDocument.so.5:_ZN8Grantlee22PlainTextMarkupBuilder13endBackgroundEv
libGrantlee_TextDocument.so.5:_ZN8Grantlee22PlainTextMarkupBuilder13endFontFamilyEv
libGrantlee_TextDocument.so.5:_ZN8Grantlee22PlainTextMarkupBuilder13endForegroundEv
libGrantlee_TextDocument.so.5:_ZN8Grantlee22PlainTextMarkupBuilder14beginParagraphE6QFlagsIN2Qt13AlignmentFlagEEdddd
libGrantlee_TextDocument.so.5:_ZN8Grantlee22PlainTextMarkupBuilder14beginStrikeoutEv
libGrantlee_TextDocument.so.5:_ZN8Grantlee22PlainTextMarkupBuilder14beginSubscriptEv
libGrantlee_TextDocument.so.5:_ZN8Grantlee22PlainTextMarkupBuilder14beginTableCellERK7QStringii
libGrantlee_TextDocument.so.5:_ZN8Grantlee22PlainTextMarkupBuilder14beginUnderlineEv
libGrantlee_TextDocument.so.5:_ZN8Grantlee22PlainTextMarkupBuilder14endSuperscriptEv
libGrantlee_TextDocument.so.5:_ZN8Grantlee22PlainTextMarkupBuilder15beginBackgroundERK6QBrush
libGrantlee_TextDocument.so.5:_ZN8Grantlee22PlainTextMarkupBuilder15beginFontFamilyERK7QString
libGrantlee_TextDocument.so.5:_ZN8Grantlee22PlainTextMarkupBuilder15beginForegroundERK6QBrush
libGrantlee_TextDocument.so.5:_ZN8Grantlee22PlainTextMarkupBuilder16beginSuperscriptEv
libGrantlee_TextDocument.so.5:_ZN8Grantlee22PlainTextMarkupBuilder16endFontPointSizeEv
libGrantlee_TextDocument.so.5:_ZN8Grantlee22PlainTextMarkupBuilder17appendLiteralTextERK7QString
libGrantlee_TextDocument.so.5:_ZN8Grantlee22PlainTextMarkupBuilder18beginFontPointSizeEi
libGrantlee_TextDocument.so.5:_ZN8Grantlee22PlainTextMarkupBuilder18endTableHeaderCellEv
libGrantlee_TextDocument.so.5:_ZN8Grantlee22PlainTextMarkupBuilder20beginTableHeaderCellERK7QStringii
libGrantlee_TextDocument.so.5:_ZN8Grantlee22PlainTextMarkupBuilder20insertHorizontalRuleEi
libGrantlee_TextDocument.so.5:_ZN8Grantlee22PlainTextMarkupBuilder7endEmphEv
libGrantlee_TextDocument.so.5:_ZN8Grantlee22PlainTextMarkupBuilder7endListEv
libGrantlee_TextDocument.so.5:_ZN8Grantlee22PlainTextMarkupBuilder8endTableEv
libGrantlee_TextDocument.so.5:_ZN8Grantlee22PlainTextMarkupBuilder9beginEmphEv
libGrantlee_TextDocument.so.5:_ZN8Grantlee22PlainTextMarkupBuilder9beginListEN15QTextListFormat5StyleE
libGrantlee_TextDocument.so.5:_ZN8Grantlee22PlainTextMarkupBuilder9endAnchorEv
libGrantlee_TextDocument.so.5:_ZN8Grantlee22PlainTextMarkupBuilder9endHeaderEi
libGrantlee_TextDocument.so.5:_ZN8Grantlee22PlainTextMarkupBuilder9endStrongEv
libGrantlee_TextDocument.so.5:_ZN8Grantlee22PlainTextMarkupBuilder9getResultEv
libGrantlee_TextDocument.so.5:_ZN8Grantlee22PlainTextMarkupBuilderC1Ev
libGrantlee_TextDocument.so.5:_ZN8Grantlee22PlainTextMarkupBuilderC2Ev
libGrantlee_TextDocument.so.5:_ZN8Grantlee22PlainTextMarkupBuilderD0Ev
libGrantlee_TextDocument.so.5:_ZN8Grantlee22PlainTextMarkupBuilderD1Ev
libGrantlee_TextDocument.so.5:_ZN8Grantlee22PlainTextMarkupBuilderD2Ev
libGrantlee_TextDocument.so.5:_ZNK8Grantlee14MarkupDirector16sortOpeningOrderE4QSetIiEN10QTextBlock8iteratorE
libGrantlee_TextDocument.so.5:_ZNK8Grantlee14MarkupDirector18getElementsToCloseEN10QTextBlock8iteratorE
libGrantlee_TextDocument.so.5:_ZTv0_n104_N8Grantlee15TextHTMLBuilder13endForegroundEv
libGrantlee_TextDocument.so.5:_ZTv0_n104_N8Grantlee22PlainTextMarkupBuilder13endForegroundEv
libGrantlee_TextDocument.so.5:_ZTv0_n112_N8Grantlee15TextHTMLBuilder15beginBackgroundERK6QBrush
libGrantlee_TextDocument.so.5:_ZTv0_n112_N8Grantlee22PlainTextMarkupBuilder15beginBackgroundERK6QBrush
libGrantlee_TextDocument.so.5:_ZTv0_n120_N8Grantlee15TextHTMLBuilder13endBackgroundEv
libGrantlee_TextDocument.so.5:_ZTv0_n120_N8Grantlee22PlainTextMarkupBuilder13endBackgroundEv
libGrantlee_TextDocument.so.5:_ZTv0_n128_N8Grantlee15TextHTMLBuilder11beginAnchorERK7QStringS3_
libGrantlee_TextDocument.so.5:_ZTv0_n128_N8Grantlee22PlainTextMarkupBuilder11beginAnchorERK7QStringS3_
libGrantlee_TextDocument.so.5:_ZTv0_n136_N8Grantlee15TextHTMLBuilder9endAnchorEv
libGrantlee_TextDocument.so.5:_ZTv0_n136_N8Grantlee22PlainTextMarkupBuilder9endAnchorEv
libGrantlee_TextDocument.so.5:_ZTv0_n144_N8Grantlee15TextHTMLBuilder15beginFontFamilyERK7QString
libGrantlee_TextDocument.so.5:_ZTv0_n144_N8Grantlee22PlainTextMarkupBuilder15beginFontFamilyERK7QString
libGrantlee_TextDocument.so.5:_ZTv0_n152_N8Grantlee15TextHTMLBuilder13endFontFamilyEv
libGrantlee_TextDocument.so.5:_ZTv0_n152_N8Grantlee22PlainTextMarkupBuilder13endFontFamilyEv
libGrantlee_TextDocument.so.5:_ZTv0_n160_N8Grantlee15TextHTMLBuilder18beginFontPointSizeEi
libGrantlee_TextDocument.so.5:_ZTv0_n160_N8Grantlee22PlainTextMarkupBuilder18beginFontPointSizeEi
libGrantlee_TextDocument.so.5:_ZTv0_n168_N8Grantlee15TextHTMLBuilder16endFontPointSizeEv
libGrantlee_TextDocument.so.5:_ZTv0_n168_N8Grantlee22PlainTextMarkupBuilder16endFontPointSizeEv
libGrantlee_TextDocument.so.5:_ZTv0_n176_N8Grantlee15TextHTMLBuilder14beginParagraphE6QFlagsIN2Qt13AlignmentFlagEEdddd
libGrantlee_TextDocument.so.5:_ZTv0_n176_N8Grantlee22PlainTextMarkupBuilder14beginParagraphE6QFlagsIN2Qt13AlignmentFlagEEdddd
libGrantlee_TextDocument.so.5:_ZTv0_n184_N8Grantlee15TextHTMLBuilder12endParagraphEv
libGrantlee_TextDocument.so.5:_ZTv0_n184_N8Grantlee22PlainTextMarkupBuilder12endParagraphEv
libGrantlee_TextDocument.so.5:_ZTv0_n192_N8Grantlee15TextHTMLBuilder10addNewlineEv
libGrantlee_TextDocument.so.5:_ZTv0_n192_N8Grantlee22PlainTextMarkupBuilder10addNewlineEv
libGrantlee_TextDocument.so.5:_ZTv0_n200_N8Grantlee15TextHTMLBuilder20insertHorizontalRuleEi
libGrantlee_TextDocument.so.5:_ZTv0_n200_N8Grantlee22PlainTextMarkupBuilder20insertHorizontalRuleEi
libGrantlee_TextDocument.so.5:_ZTv0_n208_N8Grantlee15TextHTMLBuilder11insertImageERK7QStringdd
libGrantlee_TextDocument.so.5:_ZTv0_n208_N8Grantlee22PlainTextMarkupBuilder11insertImageERK7QStringdd
libGrantlee_TextDocument.so.5:_ZTv0_n216_N8Grantlee15TextHTMLBuilder9beginListEN15QTextListFormat5StyleE
libGrantlee_TextDocument.so.5:_ZTv0_n216_N8Grantlee22PlainTextMarkupBuilder9beginListEN15QTextListFormat5StyleE
libGrantlee_TextDocument.so.5:_ZTv0_n224_N8Grantlee15TextHTMLBuilder7endListEv
libGrantlee_TextDocument.so.5:_ZTv0_n224_N8Grantlee22PlainTextMarkupBuilder7endListEv
libGrantlee_TextDocument.so.5:_ZTv0_n232_N8Grantlee15TextHTMLBuilder13beginListItemEv
libGrantlee_TextDocument.so.5:_ZTv0_n232_N8Grantlee22PlainTextMarkupBuilder13beginListItemEv
libGrantlee_TextDocument.so.5:_ZTv0_n240_N8Grantlee15TextHTMLBuilder11endListItemEv
libGrantlee_TextDocument.so.5:_ZTv0_n240_N8Grantlee22PlainTextMarkupBuilder11endListItemEv
libGrantlee_TextDocument.so.5:_ZTv0_n248_N8Grantlee15TextHTMLBuilder16beginSuperscriptEv
libGrantlee_TextDocument.so.5:_ZTv0_n248_N8Grantlee22PlainTextMarkupBuilder16beginSuperscriptEv
libGrantlee_TextDocument.so.5:_ZTv0_n24_N8Grantlee15TextHTMLBuilderD0Ev
libGrantlee_TextDocument.so.5:_ZTv0_n24_N8Grantlee15TextHTMLBuilderD1Ev
libGrantlee_TextDocument.so.5:_ZTv0_n24_N8Grantlee22PlainTextMarkupBuilderD0Ev
libGrantlee_TextDocument.so.5:_ZTv0_n24_N8Grantlee22PlainTextMarkupBuilderD1Ev
libGrantlee_TextDocument.so.5:_ZTv0_n256_N8Grantlee15TextHTMLBuilder14endSuperscriptEv
libGrantlee_TextDocument.so.5:_ZTv0_n256_N8Grantlee22PlainTextMarkupBuilder14endSuperscriptEv
libGrantlee_TextDocument.so.5:_ZTv0_n264_N8Grantlee15TextHTMLBuilder14beginSubscriptEv
libGrantlee_TextDocument.so.5:_ZTv0_n264_N8Grantlee22PlainTextMarkupBuilder14beginSubscriptEv
libGrantlee_TextDocument.so.5:_ZTv0_n272_N8Grantlee15TextHTMLBuilder12endSubscriptEv
libGrantlee_TextDocument.so.5:_ZTv0_n272_N8Grantlee22PlainTextMarkupBuilder12endSubscriptEv
libGrantlee_TextDocument.so.5:_ZTv0_n280_N8Grantlee15TextHTMLBuilder10beginTableEddRK7QString
libGrantlee_TextDocument.so.5:_ZTv0_n280_N8Grantlee22PlainTextMarkupBuilder10beginTableEddRK7QString
libGrantlee_TextDocument.so.5:_ZTv0_n288_N8Grantlee15TextHTMLBuilder13beginTableRowEv
libGrantlee_TextDocument.so.5:_ZTv0_n288_N8Grantlee22PlainTextMarkupBuilder13beginTableRowEv
libGrantlee_TextDocument.so.5:_ZTv0_n296_N8Grantlee15TextHTMLBuilder20beginTableHeaderCellERK7QStringii
libGrantlee_TextDocument.so.5:_ZTv0_n296_N8Grantlee22PlainTextMarkupBuilder20beginTableHeaderCellERK7QStringii
libGrantlee_TextDocument.so.5:_ZTv0_n304_N8Grantlee15TextHTMLBuilder14beginTableCellERK7QStringii
libGrantlee_TextDocument.so.5:_ZTv0_n304_N8Grantlee22PlainTextMarkupBuilder14beginTableCellERK7QStringii
libGrantlee_TextDocument.so.5:_ZTv0_n312_N8Grantlee15TextHTMLBuilder8endTableEv
libGrantlee_TextDocument.so.5:_ZTv0_n312_N8Grantlee22PlainTextMarkupBuilder8endTableEv
libGrantlee_TextDocument.so.5:_ZTv0_n320_N8Grantlee15TextHTMLBuilder11endTableRowEv
libGrantlee_TextDocument.so.5:_ZTv0_n320_N8Grantlee22PlainTextMarkupBuilder11endTableRowEv
libGrantlee_TextDocument.so.5:_ZTv0_n328_N8Grantlee15TextHTMLBuilder18endTableHeaderCellEv
libGrantlee_TextDocument.so.5:_ZTv0_n328_N8Grantlee22PlainTextMarkupBuilder18endTableHeaderCellEv
libGrantlee_TextDocument.so.5:_ZTv0_n32_N8Grantlee15TextHTMLBuilder11beginStrongEv
libGrantlee_TextDocument.so.5:_ZTv0_n32_N8Grantlee22PlainTextMarkupBuilder11beginStrongEv
libGrantlee_TextDocument.so.5:_ZTv0_n336_N8Grantlee15TextHTMLBuilder12endTableCellEv
libGrantlee_TextDocument.so.5:_ZTv0_n336_N8Grantlee22PlainTextMarkupBuilder12endTableCellEv
libGrantlee_TextDocument.so.5:_ZTv0_n344_N8Grantlee15TextHTMLBuilder11beginHeaderEi
libGrantlee_TextDocument.so.5:_ZTv0_n344_N8Grantlee22PlainTextMarkupBuilder11beginHeaderEi
libGrantlee_TextDocument.so.5:_ZTv0_n352_N8Grantlee15TextHTMLBuilder9endHeaderEi
libGrantlee_TextDocument.so.5:_ZTv0_n352_N8Grantlee22PlainTextMarkupBuilder9endHeaderEi
libGrantlee_TextDocument.so.5:_ZTv0_n360_N8Grantlee15TextHTMLBuilder17appendLiteralTextERK7QString
libGrantlee_TextDocument.so.5:_ZTv0_n360_N8Grantlee22PlainTextMarkupBuilder17appendLiteralTextERK7QString
libGrantlee_TextDocument.so.5:_ZTv0_n368_N8Grantlee15TextHTMLBuilder13appendRawTextERK7QString
libGrantlee_TextDocument.so.5:_ZTv0_n368_N8Grantlee22PlainTextMarkupBuilder13appendRawTextERK7QString
libGrantlee_TextDocument.so.5:_ZTv0_n376_N8Grantlee15TextHTMLBuilder9getResultEv
libGrantlee_TextDocument.so.5:_ZTv0_n376_N8Grantlee22PlainTextMarkupBuilder9getResultEv
libGrantlee_TextDocument.so.5:_ZTv0_n40_N8Grantlee15TextHTMLBuilder9endStrongEv
libGrantlee_TextDocument.so.5:_ZTv0_n40_N8Grantlee22PlainTextMarkupBuilder9endStrongEv
libGrantlee_TextDocument.so.5:_ZTv0_n48_N8Grantlee15TextHTMLBuilder9beginEmphEv
libGrantlee_TextDocument.so.5:_ZTv0_n48_N8Grantlee22PlainTextMarkupBuilder9beginEmphEv
libGrantlee_TextDocument.so.5:_ZTv0_n56_N8Grantlee15TextHTMLBuilder7endEmphEv
libGrantlee_TextDocument.so.5:_ZTv0_n56_N8Grantlee22PlainTextMarkupBuilder7endEmphEv
libGrantlee_TextDocument.so.5:_ZTv0_n64_N8Grantlee15TextHTMLBuilder14beginUnderlineEv
libGrantlee_TextDocument.so.5:_ZTv0_n64_N8Grantlee22PlainTextMarkupBuilder14beginUnderlineEv
libGrantlee_TextDocument.so.5:_ZTv0_n72_N8Grantlee15TextHTMLBuilder12endUnderlineEv
libGrantlee_TextDocument.so.5:_ZTv0_n72_N8Grantlee22PlainTextMarkupBuilder12endUnderlineEv
libGrantlee_TextDocument.so.5:_ZTv0_n80_N8Grantlee15TextHTMLBuilder14beginStrikeoutEv
libGrantlee_TextDocument.so.5:_ZTv0_n80_N8Grantlee22PlainTextMarkupBuilder14beginStrikeoutEv
libGrantlee_TextDocument.so.5:_ZTv0_n88_N8Grantlee15TextHTMLBuilder12endStrikeoutEv
libGrantlee_TextDocument.so.5:_ZTv0_n88_N8Grantlee22PlainTextMarkupBuilder12endStrikeoutEv
libGrantlee_TextDocument.so.5:_ZTv0_n96_N8Grantlee15TextHTMLBuilder15beginForegroundERK6QBrush
libGrantlee_TextDocument.so.5:_ZTv0_n96_N8Grantlee22PlainTextMarkupBuilder15beginForegroundERK6QBrush
