libopenh264.so.8:AnalysisVaaInfoIntra_sse2
libopenh264.so.8:AnalysisVaaInfoIntra_ssse3
libopenh264.so.8:BilateralLumaFilter8_sse2
libopenh264.so.8:CavlcParamCal_c
libopenh264.so.8:CavlcParamCal_sse42
libopenh264.so.8:CopySpsPps
libopenh264.so.8:DeblockChromaEq4H_ssse3
libopenh264.so.8:DeblockChromaEq4V_ssse3
libopenh264.so.8:DeblockChromaLt4H_ssse3
libopenh264.so.8:DeblockChromaLt4V_ssse3
libopenh264.so.8:DeblockLumaEq4H_ssse3
libopenh264.so.8:DeblockLumaEq4V_ssse3
libopenh264.so.8:DeblockLumaLt4H_ssse3
libopenh264.so.8:DeblockLumaLt4V_ssse3
libopenh264.so.8:DeblockLumaTransposeH2V_sse2
libopenh264.so.8:DeblockLumaTransposeV2H_sse2
libopenh264.so.8:DecoderConfigParam
libopenh264.so.8:DestroyPicBuff
libopenh264.so.8:DumpDependencyRec
libopenh264.so.8:DyadicBilinearDownsamplerWidthx16_sse
libopenh264.so.8:DyadicBilinearDownsamplerWidthx16_ssse3
libopenh264.so.8:DyadicBilinearDownsamplerWidthx32_sse
libopenh264.so.8:DyadicBilinearDownsamplerWidthx32_ssse3
libopenh264.so.8:DyadicBilinearDownsamplerWidthx8_sse
libopenh264.so.8:DyadicBilinearOneThirdDownsampler_sse4
libopenh264.so.8:DyadicBilinearOneThirdDownsampler_ssse3
libopenh264.so.8:DyadicBilinearQuarterDownsampler_sse
libopenh264.so.8:DyadicBilinearQuarterDownsampler_sse4
libopenh264.so.8:DyadicBilinearQuarterDownsampler_ssse3
libopenh264.so.8:EventCreate
libopenh264.so.8:EventDestroy
libopenh264.so.8:EventPost
libopenh264.so.8:EventReset
libopenh264.so.8:EventWait
libopenh264.so.8:ExpandPictureChromaAlign_sse2
libopenh264.so.8:ExpandPictureChromaUnalign_sse2
libopenh264.so.8:ExpandPictureLuma_sse2
libopenh264.so.8:ExpandReferencingPicture
libopenh264.so.8:FillQpelLocationByFeatureValue_sse2
libopenh264.so.8:GeneralBilinearAccurateDownsamplerWrap_avx2
libopenh264.so.8:GeneralBilinearAccurateDownsamplerWrap_sse2
libopenh264.so.8:GeneralBilinearAccurateDownsamplerWrap_sse41
libopenh264.so.8:GeneralBilinearAccurateDownsampler_avx2
libopenh264.so.8:GeneralBilinearAccurateDownsampler_sse2
libopenh264.so.8:GeneralBilinearAccurateDownsampler_sse41
libopenh264.so.8:GeneralBilinearFastDownsamplerWrap_avx2
libopenh264.so.8:GeneralBilinearFastDownsamplerWrap_sse2
libopenh264.so.8:GeneralBilinearFastDownsamplerWrap_ssse3
libopenh264.so.8:GeneralBilinearFastDownsampler_avx2
libopenh264.so.8:GeneralBilinearFastDownsampler_sse2
libopenh264.so.8:GeneralBilinearFastDownsampler_ssse3
libopenh264.so.8:GetCPUCount
libopenh264.so.8:GetVclNalTemporalId
libopenh264.so.8:IdctFourResAddPred_avx2
libopenh264.so.8:IdctResAddPred_avx2
libopenh264.so.8:IdctResAddPred_mmx
libopenh264.so.8:IdctResAddPred_sse2
libopenh264.so.8:InitDecFuncs
libopenh264.so.8:InitExpandPictureFunc
libopenh264.so.8:InitPredFunc
libopenh264.so.8:InitializeHashforFeature_sse2
libopenh264.so.8:McChromaWidthEq4_mmx
libopenh264.so.8:McChromaWidthEq8_sse2
libopenh264.so.8:McChromaWidthEq8_ssse3
libopenh264.so.8:McCopyWidthEq16_sse2
libopenh264.so.8:McCopyWidthEq16_sse3
libopenh264.so.8:McCopyWidthEq8_mmx
libopenh264.so.8:McHorVer02Height5_sse2
libopenh264.so.8:McHorVer02Height9Or17_sse2
libopenh264.so.8:McHorVer02Width16Or17S16ToU8_avx2
libopenh264.so.8:McHorVer02Width4S16ToU8_avx2
libopenh264.so.8:McHorVer02Width4S16ToU8_ssse3
libopenh264.so.8:McHorVer02Width5S16ToU8_avx2
libopenh264.so.8:McHorVer02Width5S16ToU8_ssse3
libopenh264.so.8:McHorVer02Width8S16ToU8_avx2
libopenh264.so.8:McHorVer02Width9S16ToU8_avx2
libopenh264.so.8:McHorVer02WidthEq8_sse2
libopenh264.so.8:McHorVer02WidthGe8S16ToU8_ssse3
libopenh264.so.8:McHorVer02_avx2
libopenh264.so.8:McHorVer02_ssse3
libopenh264.so.8:McHorVer20Width16U8ToS16_avx2
libopenh264.so.8:McHorVer20Width17U8ToS16_avx2
libopenh264.so.8:McHorVer20Width4U8ToS16_avx2
libopenh264.so.8:McHorVer20Width4U8ToS16_ssse3
libopenh264.so.8:McHorVer20Width5Or9Or17_avx2
libopenh264.so.8:McHorVer20Width5Or9Or17_ssse3
libopenh264.so.8:McHorVer20Width5_sse2
libopenh264.so.8:McHorVer20Width8U8ToS16_avx2
libopenh264.so.8:McHorVer20Width8U8ToS16_ssse3
libopenh264.so.8:McHorVer20Width9Or17U8ToS16_ssse3
libopenh264.so.8:McHorVer20Width9Or17_sse2
libopenh264.so.8:McHorVer20WidthEq16_sse2
libopenh264.so.8:McHorVer20WidthEq4_mmx
libopenh264.so.8:McHorVer20WidthEq8_sse2
libopenh264.so.8:McHorVer20_avx2
libopenh264.so.8:McHorVer20_ssse3
libopenh264.so.8:McHorVer22HorFirst_sse2
libopenh264.so.8:McHorVer22Width4VerLastAlign_sse2
libopenh264.so.8:McHorVer22Width4VerLastUnAlign_sse2
libopenh264.so.8:McHorVer22Width5HorFirst_sse2
libopenh264.so.8:McHorVer22Width8HorFirst_sse2
libopenh264.so.8:McHorVer22Width8VerLastAlign_sse2
libopenh264.so.8:McHorVer22Width8VerLastUnAlign_sse2
libopenh264.so.8:MdInterAnalysisVaaInfo_sse2
libopenh264.so.8:MdInterAnalysisVaaInfo_sse41
libopenh264.so.8:PadMBChroma_c
libopenh264.so.8:PadMBLuma_c
libopenh264.so.8:PixelAvgWidthEq16_sse2
libopenh264.so.8:PixelAvgWidthEq4_mmx
libopenh264.so.8:PixelAvgWidthEq8_mmx
libopenh264.so.8:ResetDecStatNums
libopenh264.so.8:ResetReorderingPictureBuffers
libopenh264.so.8:SampleSad16x16Hor8_sse41
libopenh264.so.8:SampleSad8x8Hor8_sse41
libopenh264.so.8:SampleVariance16x16_sse2
libopenh264.so.8:SemCreate
libopenh264.so.8:SemDestroy
libopenh264.so.8:SemRelease
libopenh264.so.8:SemWait
libopenh264.so.8:SumOf16x16BlockOfFrame_sse2
libopenh264.so.8:SumOf16x16BlockOfFrame_sse4
libopenh264.so.8:SumOf16x16SingleBlock_sse2
libopenh264.so.8:SumOf8x8BlockOfFrame_sse2
libopenh264.so.8:SumOf8x8BlockOfFrame_sse4
libopenh264.so.8:SumOf8x8SingleBlock_sse2
libopenh264.so.8:SyncPictureResolutionExt
libopenh264.so.8:ThreadCreate
libopenh264.so.8:ThreadWait
libopenh264.so.8:TransposeMatrixBlock16x16_sse2
libopenh264.so.8:TransposeMatrixBlock8x8_mmx
libopenh264.so.8:TransposeMatrixBlocksx16_sse2
libopenh264.so.8:TransposeMatrixBlocksx8_mmx
libopenh264.so.8:UpdateDecStat
libopenh264.so.8:UpdateDecStatFreezingInfo
libopenh264.so.8:UpdateDecStatNoFreezingInfo
libopenh264.so.8:UpdateMbMv_sse2
libopenh264.so.8:VAACalcSadBgd_avx2
libopenh264.so.8:VAACalcSadBgd_sse2
libopenh264.so.8:VAACalcSadSsdBgd_avx2
libopenh264.so.8:VAACalcSadSsdBgd_sse2
libopenh264.so.8:VAACalcSadSsd_avx2
libopenh264.so.8:VAACalcSadSsd_sse2
libopenh264.so.8:VAACalcSadVar_avx2
libopenh264.so.8:VAACalcSadVar_sse2
libopenh264.so.8:VAACalcSad_avx2
libopenh264.so.8:VAACalcSad_sse2
libopenh264.so.8:WaverageChromaFilter8_sse2
libopenh264.so.8:WelsBlockZero16x16_sse2
libopenh264.so.8:WelsBlockZero8x8_sse2
libopenh264.so.8:WelsCPUDetectAVX512
libopenh264.so.8:WelsCPUFeatureDetect
libopenh264.so.8:WelsCPUId
libopenh264.so.8:WelsCPUIdVerify
libopenh264.so.8:WelsCPURestore
libopenh264.so.8:WelsCPUSupportAVX
libopenh264.so.8:WelsCPUSupportFMA
libopenh264.so.8:WelsCalculateSingleCtr4x4_sse2
libopenh264.so.8:WelsCopy16x16NotAligned_sse2
libopenh264.so.8:WelsCopy16x16_sse2
libopenh264.so.8:WelsCopy16x8NotAligned_sse2
libopenh264.so.8:WelsCopy8x16_mmx
libopenh264.so.8:WelsCopy8x8_mmx
libopenh264.so.8:WelsCreateDecoder
libopenh264.so.8:WelsCreateSVCEncoder
libopenh264.so.8:WelsCreateVpInterface
libopenh264.so.8:WelsDctFourT4_avx2
libopenh264.so.8:WelsDctFourT4_sse2
libopenh264.so.8:WelsDctT4_avx2
libopenh264.so.8:WelsDctT4_mmx
libopenh264.so.8:WelsDctT4_sse2
libopenh264.so.8:WelsDecodeBs
libopenh264.so.8:WelsDecoderDefaults
libopenh264.so.8:WelsDecoderI16x16LumaPredDcNA_sse2
libopenh264.so.8:WelsDecoderI16x16LumaPredDcTop_sse2
libopenh264.so.8:WelsDecoderI16x16LumaPredDc_sse2
libopenh264.so.8:WelsDecoderI16x16LumaPredH_sse2
libopenh264.so.8:WelsDecoderI16x16LumaPredPlane_sse2
libopenh264.so.8:WelsDecoderI16x16LumaPredV_sse2
libopenh264.so.8:WelsDecoderI4x4LumaPredDDL_mmx
libopenh264.so.8:WelsDecoderI4x4LumaPredDDR_mmx
libopenh264.so.8:WelsDecoderI4x4LumaPredHD_mmx
libopenh264.so.8:WelsDecoderI4x4LumaPredHU_mmx
libopenh264.so.8:WelsDecoderI4x4LumaPredH_sse2
libopenh264.so.8:WelsDecoderI4x4LumaPredVL_mmx
libopenh264.so.8:WelsDecoderI4x4LumaPredVR_mmx
libopenh264.so.8:WelsDecoderIChromaPredDcLeft_mmx
libopenh264.so.8:WelsDecoderIChromaPredDcNA_mmx
libopenh264.so.8:WelsDecoderIChromaPredDcTop_sse2
libopenh264.so.8:WelsDecoderIChromaPredDc_sse2
libopenh264.so.8:WelsDecoderIChromaPredH_mmx
libopenh264.so.8:WelsDecoderIChromaPredPlane_sse2
libopenh264.so.8:WelsDecoderIChromaPredV_mmx
libopenh264.so.8:WelsDecoderLastDecPicInfoDefaults
libopenh264.so.8:WelsDecoderSpsPpsDefaults
libopenh264.so.8:WelsDequant4x4_sse2
libopenh264.so.8:WelsDequantFour4x4_sse2
libopenh264.so.8:WelsDequantIHadamard4x4_sse2
libopenh264.so.8:WelsDestroyDecoder
libopenh264.so.8:WelsDestroySVCEncoder
libopenh264.so.8:WelsDestroyVpInterface
libopenh264.so.8:WelsEmms
libopenh264.so.8:WelsEndDecoder
libopenh264.so.8:WelsEventClose
libopenh264.so.8:WelsEventOpen
libopenh264.so.8:WelsEventSignal
libopenh264.so.8:WelsEventWait
libopenh264.so.8:WelsEventWaitWithTimeOut
libopenh264.so.8:WelsFclose
libopenh264.so.8:WelsFflush
libopenh264.so.8:WelsFopen
libopenh264.so.8:WelsFreeDynamicMemory
libopenh264.so.8:WelsFseek
libopenh264.so.8:WelsFwrite
libopenh264.so.8:WelsGetCodecVersion
libopenh264.so.8:WelsGetCodecVersionEx
libopenh264.so.8:WelsGetDecoderCapability
libopenh264.so.8:WelsGetMillisecond
libopenh264.so.8:WelsGetNoneZeroCount_sse2
libopenh264.so.8:WelsGetNoneZeroCount_sse42
libopenh264.so.8:WelsGetTimeOfDay
libopenh264.so.8:WelsHadamardQuant2x2Skip_mmx
libopenh264.so.8:WelsHadamardQuant2x2_mmx
libopenh264.so.8:WelsHadamardT4Dc_sse2
libopenh264.so.8:WelsI16x16LumaPredDc_sse2
libopenh264.so.8:WelsI16x16LumaPredH_sse2
libopenh264.so.8:WelsI16x16LumaPredPlane_sse2
libopenh264.so.8:WelsI16x16LumaPredV_sse2
libopenh264.so.8:WelsI4x4LumaPredDDL_mmx
libopenh264.so.8:WelsI4x4LumaPredDDR_mmx
libopenh264.so.8:WelsI4x4LumaPredDc_sse2
libopenh264.so.8:WelsI4x4LumaPredHD_mmx
libopenh264.so.8:WelsI4x4LumaPredHU_mmx
libopenh264.so.8:WelsI4x4LumaPredH_sse2
libopenh264.so.8:WelsI4x4LumaPredVL_mmx
libopenh264.so.8:WelsI4x4LumaPredVR_mmx
libopenh264.so.8:WelsI4x4LumaPredV_sse2
libopenh264.so.8:WelsIChromaPredDc_sse2
libopenh264.so.8:WelsIChromaPredH_mmx
libopenh264.so.8:WelsIChromaPredPlane_sse2
libopenh264.so.8:WelsIChromaPredV_sse2
libopenh264.so.8:WelsIDctFourT4Rec_avx2
libopenh264.so.8:WelsIDctFourT4Rec_sse2
libopenh264.so.8:WelsIDctRecI16x16Dc_sse2
libopenh264.so.8:WelsIDctT4Rec_avx2
libopenh264.so.8:WelsIDctT4Rec_mmx
libopenh264.so.8:WelsIDctT4Rec_sse2
libopenh264.so.8:WelsInitDecoder
libopenh264.so.8:WelsIntra16x16Combined3Sad_ssse3
libopenh264.so.8:WelsIntra16x16Combined3Satd_sse41
libopenh264.so.8:WelsIntraChroma8x8Combined3Satd_sse41
libopenh264.so.8:WelsMultipleEventsWaitSingleBlocking
libopenh264.so.8:WelsMutexDestroy
libopenh264.so.8:WelsMutexInit
libopenh264.so.8:WelsMutexLock
libopenh264.so.8:WelsMutexUnlock
libopenh264.so.8:WelsNonZeroCount_sse2
libopenh264.so.8:WelsPrefetchZero_mmx
libopenh264.so.8:WelsQuant4x4Dc_avx2
libopenh264.so.8:WelsQuant4x4Dc_sse2
libopenh264.so.8:WelsQuant4x4_avx2
libopenh264.so.8:WelsQuant4x4_sse2
libopenh264.so.8:WelsQuantFour4x4Max_avx2
libopenh264.so.8:WelsQuantFour4x4Max_sse2
libopenh264.so.8:WelsQuantFour4x4_avx2
libopenh264.so.8:WelsQuantFour4x4_sse2
libopenh264.so.8:WelsQueryLogicalProcessInfo
libopenh264.so.8:WelsRequestMem
libopenh264.so.8:WelsSampleSad16x16_sse2
libopenh264.so.8:WelsSampleSad16x8_sse2
libopenh264.so.8:WelsSampleSad4x4_mmx
libopenh264.so.8:WelsSampleSad8x16_sse2
libopenh264.so.8:WelsSampleSad8x8_sse21
libopenh264.so.8:WelsSampleSadFour16x16_sse2
libopenh264.so.8:WelsSampleSadFour16x8_sse2
libopenh264.so.8:WelsSampleSadFour4x4_sse2
libopenh264.so.8:WelsSampleSadFour8x16_sse2
libopenh264.so.8:WelsSampleSadFour8x8_sse2
libopenh264.so.8:WelsSampleSatd16x16_avx2
libopenh264.so.8:WelsSampleSatd16x16_sse2
libopenh264.so.8:WelsSampleSatd16x16_sse41
libopenh264.so.8:WelsSampleSatd16x8_avx2
libopenh264.so.8:WelsSampleSatd16x8_sse2
libopenh264.so.8:WelsSampleSatd16x8_sse41
libopenh264.so.8:WelsSampleSatd4x4_sse2
libopenh264.so.8:WelsSampleSatd4x4_sse41
libopenh264.so.8:WelsSampleSatd8x16_avx2
libopenh264.so.8:WelsSampleSatd8x16_sse2
libopenh264.so.8:WelsSampleSatd8x16_sse41
libopenh264.so.8:WelsSampleSatd8x8_avx2
libopenh264.so.8:WelsSampleSatd8x8_sse2
libopenh264.so.8:WelsSampleSatd8x8_sse41
libopenh264.so.8:WelsSampleSatdThree4x4_sse2
libopenh264.so.8:WelsScan4x4Ac_sse2
libopenh264.so.8:WelsScan4x4DcAc_sse2
libopenh264.so.8:WelsScan4x4DcAc_ssse3
libopenh264.so.8:WelsSetMemZeroAligned64_sse2
libopenh264.so.8:WelsSetMemZeroSize64_mmx
libopenh264.so.8:WelsSetMemZeroSize8_mmx
libopenh264.so.8:WelsSleep
libopenh264.so.8:WelsSnprintf
libopenh264.so.8:WelsStrcat
libopenh264.so.8:WelsStrftime
libopenh264.so.8:WelsStrncpy
libopenh264.so.8:WelsThreadCreate
libopenh264.so.8:WelsThreadJoin
libopenh264.so.8:WelsThreadSelf
libopenh264.so.8:WelsThreadSetName
libopenh264.so.8:WelsVsnprintf
libopenh264.so.8:_Z12WelsCalcPsnrPKviS0_iii
libopenh264.so.8:_Z13WelsCopy4x4_cPhiS_i
libopenh264.so.8:_Z13WelsCopy4x8_cPhiS_i
libopenh264.so.8:_Z13WelsCopy8x4_cPhiS_i
libopenh264.so.8:_Z13WelsCopy8x8_cPhiS_i
libopenh264.so.8:_Z14WelsCopy16x8_cPhiS_i
libopenh264.so.8:_Z14WelsCopy8x16_cPhiS_i
libopenh264.so.8:_Z15WelsCopy16x16_cPhiS_i
libopenh264.so.8:_Z16DeblockLumaEq4_cPhiiii
libopenh264.so.8:_Z16DeblockLumaLt4_cPhiiiiPa
libopenh264.so.8:_Z17DeblockLumaEq4H_cPhiii
libopenh264.so.8:_Z17DeblockLumaEq4V_cPhiii
libopenh264.so.8:_Z17DeblockLumaLt4H_cPhiiiPa
libopenh264.so.8:_Z17DeblockLumaLt4V_cPhiiiPa
libopenh264.so.8:_Z18DeblockChromaEq4_cPhS_iiii
libopenh264.so.8:_Z18DeblockChromaLt4_cPhS_iiiiPa
libopenh264.so.8:_Z18WelsNonZeroCount_cPa
libopenh264.so.8:_Z18WelsSampleSad4x4_cPhiS_i
libopenh264.so.8:_Z18WelsSampleSad4x8_cPhiS_i
libopenh264.so.8:_Z18WelsSampleSad8x4_cPhiS_i
libopenh264.so.8:_Z18WelsSampleSad8x8_cPhiS_i
libopenh264.so.8:_Z19DeblockChromaEq42_cPhiiii
libopenh264.so.8:_Z19DeblockChromaEq4H_cPhS_iii
libopenh264.so.8:_Z19DeblockChromaEq4V_cPhS_iii
libopenh264.so.8:_Z19DeblockChromaLt42_cPhiiiiPa
libopenh264.so.8:_Z19DeblockChromaLt4H_cPhS_iiiPa
libopenh264.so.8:_Z19DeblockChromaLt4V_cPhS_iiiPa
libopenh264.so.8:_Z19WelsSampleSad16x8_cPhiS_i
libopenh264.so.8:_Z19WelsSampleSad8x16_cPhiS_i
libopenh264.so.8:_Z20DeblockChromaEq4H2_cPhiii
libopenh264.so.8:_Z20DeblockChromaEq4V2_cPhiii
libopenh264.so.8:_Z20DeblockChromaLt4H2_cPhiiiPa
libopenh264.so.8:_Z20DeblockChromaLt4V2_cPhiiiPa
libopenh264.so.8:_Z20WelsSampleSad16x16_cPhiS_i
libopenh264.so.8:_Z21WelsI16x16LumaPredH_cPhS_i
libopenh264.so.8:_Z21WelsI16x16LumaPredV_cPhS_i
libopenh264.so.8:_Z22WelsSampleSadFour4x4_cPhiS_iPi
libopenh264.so.8:_Z22WelsSampleSadFour4x8_cPhiS_iPi
libopenh264.so.8:_Z22WelsSampleSadFour8x4_cPhiS_iPi
libopenh264.so.8:_Z22WelsSampleSadFour8x8_cPhiS_iPi
libopenh264.so.8:_Z23WelsSampleSadFour16x8_cPhiS_iPi
libopenh264.so.8:_Z23WelsSampleSadFour8x16_cPhiS_iPi
libopenh264.so.8:_Z24WelsSampleSadFour16x16_cPhiS_iPi
libopenh264.so.8:_Z7WelsLogP13TagLogContextiPKcz
libopenh264.so.8:_ZN10WelsCommon10InitMcFuncEP9TagMcFuncj
libopenh264.so.8:_ZN10WelsCommon10WelsMallocEjPKcj
libopenh264.so.8:_ZN10WelsCommon11CWelsThread4KillEv
libopenh264.so.8:_ZN10WelsCommon11CWelsThread5StartEv
libopenh264.so.8:_ZN10WelsCommon11CWelsThread6ThreadEv
libopenh264.so.8:_ZN10WelsCommon11CWelsThread9TheThreadEPv
libopenh264.so.8:_ZN10WelsCommon11CWelsThreadC2Ev
libopenh264.so.8:_ZN10WelsCommon11CWelsThreadD0Ev
libopenh264.so.8:_ZN10WelsCommon11CWelsThreadD1Ev
libopenh264.so.8:_ZN10WelsCommon11CWelsThreadD2Ev
libopenh264.so.8:_ZN10WelsCommon11WelsMalloczEjPKc
libopenh264.so.8:_ZN10WelsCommon11g_keTypeMapE
libopenh264.so.8:_ZN10WelsCommon12CMemoryAlign10WelsMallocEjPKc
libopenh264.so.8:_ZN10WelsCommon12CMemoryAlign11WelsMalloczEjPKc
libopenh264.so.8:_ZN10WelsCommon12CMemoryAlign8WelsFreeEPvPKc
libopenh264.so.8:_ZN10WelsCommon12CMemoryAlignC1Ej
libopenh264.so.8:_ZN10WelsCommon12CMemoryAlignC2Ej
libopenh264.so.8:_ZN10WelsCommon12CMemoryAlignD0Ev
libopenh264.so.8:_ZN10WelsCommon12CMemoryAlignD1Ev
libopenh264.so.8:_ZN10WelsCommon12CMemoryAlignD2Ev
libopenh264.so.8:_ZN10WelsCommon12g_kuiMatrixVE
libopenh264.so.8:_ZN10WelsCommon14g_kuiLevelMapsE
libopenh264.so.8:_ZN10WelsCommon15CWelsTaskThread11ExecuteTaskEv
libopenh264.so.8:_ZN10WelsCommon15CWelsTaskThread7SetTaskEPNS_9IWelsTaskE
libopenh264.so.8:_ZN10WelsCommon15CWelsTaskThreadC1EPNS_19IWelsTaskThreadSinkE
libopenh264.so.8:_ZN10WelsCommon15CWelsTaskThreadC2EPNS_19IWelsTaskThreadSinkE
libopenh264.so.8:_ZN10WelsCommon15CWelsTaskThreadD0Ev
libopenh264.so.8:_ZN10WelsCommon15CWelsTaskThreadD1Ev
libopenh264.so.8:_ZN10WelsCommon15CWelsTaskThreadD2Ev
libopenh264.so.8:_ZN10WelsCommon15CWelsThreadPool10OnTaskStopEPNS_15CWelsTaskThreadEPNS_9IWelsTaskE
libopenh264.so.8:_ZN10WelsCommon15CWelsThreadPool11ExecuteTaskEv
libopenh264.so.8:_ZN10WelsCommon15CWelsThreadPool11OnTaskStartEPNS_15CWelsTaskThreadEPNS_9IWelsTaskE
libopenh264.so.8:_ZN10WelsCommon15CWelsThreadPool11m_iRefCountE
libopenh264.so.8:_ZN10WelsCommon15CWelsThreadPool12AddReferenceEv
libopenh264.so.8:_ZN10WelsCommon15CWelsThreadPool12IsReferencedEv
libopenh264.so.8:_ZN10WelsCommon15CWelsThreadPool12SetThreadNumEi
libopenh264.so.8:_ZN10WelsCommon15CWelsThreadPool13DestroyThreadEPNS_15CWelsTaskThreadE
libopenh264.so.8:_ZN10WelsCommon15CWelsThreadPool13GetIdleThreadEv
libopenh264.so.8:_ZN10WelsCommon15CWelsThreadPool13GetWaitedTaskEv
libopenh264.so.8:_ZN10WelsCommon15CWelsThreadPool14RemoveInstanceEv
libopenh264.so.8:_ZN10WelsCommon15CWelsThreadPool14StopAllRunningEv
libopenh264.so.8:_ZN10WelsCommon15CWelsThreadPool15m_iMaxThreadNumE
libopenh264.so.8:_ZN10WelsCommon15CWelsThreadPool16ClearWaitedTasksEv
libopenh264.so.8:_ZN10WelsCommon15CWelsThreadPool16CreateIdleThreadEv
libopenh264.so.8:_ZN10WelsCommon15CWelsThreadPool16GetBusyThreadNumEv
libopenh264.so.8:_ZN10WelsCommon15CWelsThreadPool16GetIdleThreadNumEv
libopenh264.so.8:_ZN10WelsCommon15CWelsThreadPool16GetWaitedTaskNumEv
libopenh264.so.8:_ZN10WelsCommon15CWelsThreadPool17m_pThreadPoolSelfE
libopenh264.so.8:_ZN10WelsCommon15CWelsThreadPool19AddTaskToWaitedListEPNS_9IWelsTaskE
libopenh264.so.8:_ZN10WelsCommon15CWelsThreadPool19AddThreadToBusyListEPNS_15CWelsTaskThreadE
libopenh264.so.8:_ZN10WelsCommon15CWelsThreadPool20AddThreadToIdleQueueEPNS_15CWelsTaskThreadE
libopenh264.so.8:_ZN10WelsCommon15CWelsThreadPool24RemoveThreadFromBusyListEPNS_15CWelsTaskThreadE
libopenh264.so.8:_ZN10WelsCommon15CWelsThreadPool4InitEv
libopenh264.so.8:_ZN10WelsCommon15CWelsThreadPool6UninitEv
libopenh264.so.8:_ZN10WelsCommon15CWelsThreadPool9QueueTaskEPNS_9IWelsTaskE
libopenh264.so.8:_ZN10WelsCommon15CWelsThreadPoolC1Ev
libopenh264.so.8:_ZN10WelsCommon15CWelsThreadPoolC2Ev
libopenh264.so.8:_ZN10WelsCommon15CWelsThreadPoolD0Ev
libopenh264.so.8:_ZN10WelsCommon15CWelsThreadPoolD1Ev
libopenh264.so.8:_ZN10WelsCommon15CWelsThreadPoolD2Ev
libopenh264.so.8:_ZN10WelsCommon15g_ksLevelLimitsE
libopenh264.so.8:_ZN10WelsCommon17g_kuiDequantCoeffE
libopenh264.so.8:_ZN10WelsCommon18g_kuiCabacRangeLpsE
libopenh264.so.8:_ZN10WelsCommon18g_kuiChromaQpTableE
libopenh264.so.8:_ZN10WelsCommon19g_kuiCache30ScanIdxE
libopenh264.so.8:_ZN10WelsCommon19g_kuiGolombUELengthE
libopenh264.so.8:_ZN10WelsCommon20g_kuiDequantCoeff8x8E
libopenh264.so.8:_ZN10WelsCommon20g_kuiMbCountScan4IdxE
libopenh264.so.8:_ZN10WelsCommon20g_kuiStateTransTableE
libopenh264.so.8:_ZN10WelsCommon25g_kiCabacGlobalContextIdxE
libopenh264.so.8:_ZN10WelsCommon25g_kuiCache48CountScan4IdxE
libopenh264.so.8:_ZN10WelsCommon29g_kuiDequantScaling4x4DefaultE
libopenh264.so.8:_ZN10WelsCommon29g_kuiDequantScaling8x8DefaultE
libopenh264.so.8:_ZN10WelsCommon8WelsFreeEPvPKc
libopenh264.so.8:_ZN14welsCodecTrace10CodecTraceEiPKcP13__va_list_tag
libopenh264.so.8:_ZN14welsCodecTrace13SetTraceLevelEi
libopenh264.so.8:_ZN14welsCodecTrace16SetCodecInstanceEPv
libopenh264.so.8:_ZN14welsCodecTrace16SetTraceCallbackEPFvPviPKcE
libopenh264.so.8:_ZN14welsCodecTrace16StaticCodecTraceEPviPKcP13__va_list_tag
libopenh264.so.8:_ZN14welsCodecTrace23SetTraceCallbackContextEPv
libopenh264.so.8:_ZN14welsCodecTraceC1Ev
libopenh264.so.8:_ZN14welsCodecTraceC2Ev
libopenh264.so.8:_ZN14welsCodecTraceD1Ev
libopenh264.so.8:_ZN14welsCodecTraceD2Ev
libopenh264.so.8:_ZN6WelsVP10WelsMallocEjPc
libopenh264.so.8:_ZN6WelsVP11CompareLineEPhS0_i
libopenh264.so.8:_ZN6WelsVP11WelsReallocEPvPjjPc
libopenh264.so.8:_ZN6WelsVP12CVpFrameWork10CheckValidE8EMethodsR7SPixMapS3_
libopenh264.so.8:_ZN6WelsVP12CVpFrameWork14CreateStrategyE8EMethodsi
libopenh264.so.8:_ZN6WelsVP12CVpFrameWork14SpecialFeatureEiPvS1_
libopenh264.so.8:_ZN6WelsVP12CVpFrameWork3GetEiPv
libopenh264.so.8:_ZN6WelsVP12CVpFrameWork3SetEiPv
libopenh264.so.8:_ZN6WelsVP12CVpFrameWork4InitEiPv
libopenh264.so.8:_ZN6WelsVP12CVpFrameWork5FlushEi
libopenh264.so.8:_ZN6WelsVP12CVpFrameWork6UninitEi
libopenh264.so.8:_ZN6WelsVP12CVpFrameWork7ProcessEiP7SPixMapS2_
libopenh264.so.8:_ZN6WelsVP12CVpFrameWorkC1EjR7EResult
libopenh264.so.8:_ZN6WelsVP12CVpFrameWorkC2EjR7EResult
libopenh264.so.8:_ZN6WelsVP12CVpFrameWorkD0Ev
libopenh264.so.8:_ZN6WelsVP12CVpFrameWorkD1Ev
libopenh264.so.8:_ZN6WelsVP12CVpFrameWorkD2Ev
libopenh264.so.8:_ZN6WelsVP12GomSampleSadEPjPiS1_h
libopenh264.so.8:_ZN6WelsVP12VAACalcSad_cEPKhS1_iiiPiS2_
libopenh264.so.8:_ZN6WelsVP13CDownsampling16FreeSampleBufferEv
libopenh264.so.8:_ZN6WelsVP13CDownsampling19InitDownsampleFuncsERNS_16SDownsampleFuncsEi
libopenh264.so.8:_ZN6WelsVP13CDownsampling20AllocateSampleBufferEv
libopenh264.so.8:_ZN6WelsVP13CDownsampling21DownsampleHalfAverageEPhiS1_iii
libopenh264.so.8:_ZN6WelsVP13CDownsampling7ProcessEiP7SPixMapS2_
libopenh264.so.8:_ZN6WelsVP13CDownsamplingC1Ei
libopenh264.so.8:_ZN6WelsVP13CDownsamplingC2Ei
libopenh264.so.8:_ZN6WelsVP13CDownsamplingD0Ev
libopenh264.so.8:_ZN6WelsVP13CDownsamplingD1Ev
libopenh264.so.8:_ZN6WelsVP13CDownsamplingD2Ev
libopenh264.so.8:_ZN6WelsVP14CImageRotating18ProcessImageRotateEiPhjjjS1_
libopenh264.so.8:_ZN6WelsVP14CImageRotating20InitImageRotateFuncsERNS_17SImageRotateFuncsEi
libopenh264.so.8:_ZN6WelsVP14CImageRotating7ProcessEiP7SPixMapS2_
libopenh264.so.8:_ZN6WelsVP14CImageRotatingC1Ei
libopenh264.so.8:_ZN6WelsVP14CImageRotatingC2Ei
libopenh264.so.8:_ZN6WelsVP14CImageRotatingD0Ev
libopenh264.so.8:_ZN6WelsVP14CImageRotatingD1Ev
libopenh264.so.8:_ZN6WelsVP14CImageRotatingD2Ev
libopenh264.so.8:_ZN6WelsVP14Gauss3x3FilterEPhi
libopenh264.so.8:_ZN6WelsVP14InitGomSadFuncERPFvPjPiS1_hEh
libopenh264.so.8:_ZN6WelsVP14SelectTestLineEPhiiiiii
libopenh264.so.8:_ZN6WelsVP14SpecialFeatureEPviS0_S0_
libopenh264.so.8:_ZN6WelsVP15CVAACalculation12InitVaaFuncsERNS_11TagVaaFuncsEi
libopenh264.so.8:_ZN6WelsVP15CVAACalculation3SetEiPv
libopenh264.so.8:_ZN6WelsVP15CVAACalculation7ProcessEiP7SPixMapS2_
libopenh264.so.8:_ZN6WelsVP15CVAACalculationC1Ei
libopenh264.so.8:_ZN6WelsVP15CVAACalculationC2Ei
libopenh264.so.8:_ZN6WelsVP15CVAACalculationD0Ev
libopenh264.so.8:_ZN6WelsVP15CVAACalculationD1Ev
libopenh264.so.8:_ZN6WelsVP15CVAACalculationD2Ev
libopenh264.so.8:_ZN6WelsVP15VAACalcSadBgd_cEPKhS1_iiiPiS2_S2_Ph
libopenh264.so.8:_ZN6WelsVP15VAACalcSadSsd_cEPKhS1_iiiPiS2_S2_S2_S2_
libopenh264.so.8:_ZN6WelsVP15VAACalcSadVar_cEPKhS1_iiiPiS2_S2_S2_
libopenh264.so.8:_ZN6WelsVP16CScrollDetection23ScrollDetectionWithMaskEP7SPixMapS2_
libopenh264.so.8:_ZN6WelsVP16CScrollDetection26ScrollDetectionWithoutMaskEP7SPixMapS2_
libopenh264.so.8:_ZN6WelsVP16CScrollDetection3GetEiPv
libopenh264.so.8:_ZN6WelsVP16CScrollDetection3SetEiPv
libopenh264.so.8:_ZN6WelsVP16CScrollDetection7ProcessEiP7SPixMapS2_
libopenh264.so.8:_ZN6WelsVP16ImageRotate90D_cEPhjjjS0_
libopenh264.so.8:_ZN6WelsVP17ImageRotate180D_cEPhjjjS0_
libopenh264.so.8:_ZN6WelsVP17ImageRotate270D_cEPhjjjS0_
libopenh264.so.8:_ZN6WelsVP18InternalReallocateEPvjPc
libopenh264.so.8:_ZN6WelsVP18VAACalcSadSsdBgd_cEPKhS1_iiiPiS2_S2_S2_S2_S2_Ph
libopenh264.so.8:_ZN6WelsVP19CComplexityAnalysis26AnalyzeGomComplexityViaSadEP7SPixMapS2_
libopenh264.so.8:_ZN6WelsVP19CComplexityAnalysis26AnalyzeGomComplexityViaVarEP7SPixMapS2_
libopenh264.so.8:_ZN6WelsVP19CComplexityAnalysis28AnalyzeFrameComplexityViaSadEP7SPixMapS2_
libopenh264.so.8:_ZN6WelsVP19CComplexityAnalysis28GetFrameSadExcludeBackgroundEP7SPixMapS2_
libopenh264.so.8:_ZN6WelsVP19CComplexityAnalysis3GetEiPv
libopenh264.so.8:_ZN6WelsVP19CComplexityAnalysis3SetEiPv
libopenh264.so.8:_ZN6WelsVP19CComplexityAnalysis7ProcessEiP7SPixMapS2_
libopenh264.so.8:_ZN6WelsVP19CComplexityAnalysisC1Ei
libopenh264.so.8:_ZN6WelsVP19CComplexityAnalysisC2Ei
libopenh264.so.8:_ZN6WelsVP19CComplexityAnalysisD0Ev
libopenh264.so.8:_ZN6WelsVP19CComplexityAnalysisD1Ev
libopenh264.so.8:_ZN6WelsVP19CComplexityAnalysisD2Ev
libopenh264.so.8:_ZN6WelsVP19ScrollDetectionCoreEP7SPixMapS1_iiiiR21SScrollDetectionParam
libopenh264.so.8:_ZN6WelsVP20CBackgroundDetection15GetOUParametersEP14SVAACalcResultiiPNS_13SBackgroundOUE
libopenh264.so.8:_ZN6WelsVP20CBackgroundDetection19BackgroundDetectionEPNS0_9vBGDParamE
libopenh264.so.8:_ZN6WelsVP20CBackgroundDetection28ForegroundBackgroundDivisionEPNS0_9vBGDParamE
libopenh264.so.8:_ZN6WelsVP20CBackgroundDetection38ForegroundDilationAndBackgroundErosionEPNS0_9vBGDParamE
libopenh264.so.8:_ZN6WelsVP20CBackgroundDetection3SetEiPv
libopenh264.so.8:_ZN6WelsVP20CBackgroundDetection7ProcessEiP7SPixMapS2_
libopenh264.so.8:_ZN6WelsVP20CBackgroundDetectionC1Ei
libopenh264.so.8:_ZN6WelsVP20CBackgroundDetectionC2Ei
libopenh264.so.8:_ZN6WelsVP20CBackgroundDetectionD0Ev
libopenh264.so.8:_ZN6WelsVP20CBackgroundDetectionD1Ev
libopenh264.so.8:_ZN6WelsVP20CBackgroundDetectionD2Ev
libopenh264.so.8:_ZN6WelsVP21CAdaptiveQuantization15WelsInitVarFuncERPFvPhiS1_iP18SMotionTextureUnitEi
libopenh264.so.8:_ZN6WelsVP21CAdaptiveQuantization3GetEiPv
libopenh264.so.8:_ZN6WelsVP21CAdaptiveQuantization3SetEiPv
libopenh264.so.8:_ZN6WelsVP21CAdaptiveQuantization7ProcessEiP7SPixMapS2_
libopenh264.so.8:_ZN6WelsVP21CAdaptiveQuantizationC1Ei
libopenh264.so.8:_ZN6WelsVP21CAdaptiveQuantizationC2Ei
libopenh264.so.8:_ZN6WelsVP21CAdaptiveQuantizationD0Ev
libopenh264.so.8:_ZN6WelsVP21CAdaptiveQuantizationD1Ev
libopenh264.so.8:_ZN6WelsVP21CAdaptiveQuantizationD2Ev
libopenh264.so.8:_ZN6WelsVP21SampleVariance16x16_cEPhiS0_iP18SMotionTextureUnit
libopenh264.so.8:_ZN6WelsVP22BilateralLumaFilter8_cEPhi
libopenh264.so.8:_ZN6WelsVP23WaverageChromaFilter8_cEPhi
libopenh264.so.8:_ZN6WelsVP25BuildSceneChangeDetectionE8EMethodsi
libopenh264.so.8:_ZN6WelsVP25CComplexityAnalysisScreen26GomComplexityAnalysisInterEP7SPixMapS2_b
libopenh264.so.8:_ZN6WelsVP25CComplexityAnalysisScreen26GomComplexityAnalysisIntraEP7SPixMap
libopenh264.so.8:_ZN6WelsVP25CComplexityAnalysisScreen3GetEiPv
libopenh264.so.8:_ZN6WelsVP25CComplexityAnalysisScreen3SetEiPv
libopenh264.so.8:_ZN6WelsVP25CComplexityAnalysisScreen7ProcessEiP7SPixMapS2_
libopenh264.so.8:_ZN6WelsVP25CComplexityAnalysisScreenC1Ei
libopenh264.so.8:_ZN6WelsVP25CComplexityAnalysisScreenC2Ei
libopenh264.so.8:_ZN6WelsVP25CComplexityAnalysisScreenD0Ev
libopenh264.so.8:_ZN6WelsVP25CComplexityAnalysisScreenD1Ev
libopenh264.so.8:_ZN6WelsVP25CComplexityAnalysisScreenD2Ev
libopenh264.so.8:_ZN6WelsVP25CreateSpecificVpInterfaceEPP7IWelsVP
libopenh264.so.8:_ZN6WelsVP25CreateSpecificVpInterfaceEPP8IWelsVPc
libopenh264.so.8:_ZN6WelsVP26DestroySpecificVpInterfaceEP7IWelsVP
libopenh264.so.8:_ZN6WelsVP26DestroySpecificVpInterfaceEP8IWelsVPc
libopenh264.so.8:_ZN6WelsVP27DyadicBilinearDownsampler_cEPhiS0_iii
libopenh264.so.8:_ZN6WelsVP28GomSampleSadExceptBackgroundEPjPiS1_h
libopenh264.so.8:_ZN6WelsVP32GeneralBilinearFastDownsampler_cEPhiiiS0_iii
libopenh264.so.8:_ZN6WelsVP34DyadicBilinearQuarterDownsampler_cEPhiS0_iii
libopenh264.so.8:_ZN6WelsVP35DyadicBilinearOneThirdDownsampler_cEPhiS0_iii
libopenh264.so.8:_ZN6WelsVP36GeneralBilinearAccurateDownsampler_cEPhiiiS0_iii
libopenh264.so.8:_ZN6WelsVP3GetEPviS0_
libopenh264.so.8:_ZN6WelsVP3SetEPviS0_
libopenh264.so.8:_ZN6WelsVP4InitEPviS0_
libopenh264.so.8:_ZN6WelsVP5FlushEPvi
libopenh264.so.8:_ZN6WelsVP6UninitEPvi
libopenh264.so.8:_ZN6WelsVP7ProcessEPviP7SPixMapS2_
libopenh264.so.8:_ZN6WelsVP8WelsFreeEPvPc
libopenh264.so.8:_ZN6WelsVP9CDenoiser15InitDenoiseFuncERNS_15TagDenoiseFuncsEi
libopenh264.so.8:_ZN6WelsVP9CDenoiser20BilateralDenoiseLumaEPhiii
libopenh264.so.8:_ZN6WelsVP9CDenoiser21WaverageDenoiseChromaEPhiii
libopenh264.so.8:_ZN6WelsVP9CDenoiser7ProcessEiP7SPixMapS2_
libopenh264.so.8:_ZN6WelsVP9CDenoiserC1Ei
libopenh264.so.8:_ZN6WelsVP9CDenoiserC2Ei
libopenh264.so.8:_ZN6WelsVP9CDenoiserD0Ev
libopenh264.so.8:_ZN6WelsVP9CDenoiserD1Ev
libopenh264.so.8:_ZN6WelsVP9CDenoiserD2Ev
libopenh264.so.8:_ZN6WelsVP9CheckLineEPhi
libopenh264.so.8:_ZN7WelsDec10BsEndCavlcEPN10WelsCommon15TagBitStringAuxE
libopenh264.so.8:_ZN7WelsDec10g_kuiScan4E
libopenh264.so.8:_ZN7WelsDec10g_kuiScan8E
libopenh264.so.8:_ZN7WelsDec11DecInitBitsEPN10WelsCommon15TagBitStringAuxEPKhi
libopenh264.so.8:_ZN7WelsDec11FreePictureEPNS_8SPictureEPN10WelsCommon12CMemoryAlignE
libopenh264.so.8:_ZN7WelsDec11PrefetchPicEPNS_10TagPicBuffE
libopenh264.so.8:_ZN7WelsDec11RecI16x16MbEiPNS_21TagWelsDecoderContextEPsPNS_10TagDqLayerE
libopenh264.so.8:_ZN7WelsDec11RecI4x4LumaEiPNS_21TagWelsDecoderContextEPsPNS_10TagDqLayerE
libopenh264.so.8:_ZN7WelsDec11RecI8x8LumaEiPNS_21TagWelsDecoderContextEPsPNS_10TagDqLayerE
libopenh264.so.8:_ZN7WelsDec12AllocPictureEPNS_21TagWelsDecoderContextEii
libopenh264.so.8:_ZN7WelsDec12BsStartCavlcEPN10WelsCommon15TagBitStringAuxE
libopenh264.so.8:_ZN7WelsDec12CWelsDecoder10FlushFrameEPPhP13TagBufferInfo
libopenh264.so.8:_ZN7WelsDec12CWelsDecoder10InitializeEPK19TagSVCDecodingParam
libopenh264.so.8:_ZN7WelsDec12CWelsDecoder11DecodeFrameEPKhiPPhPiRiS6_
libopenh264.so.8:_ZN7WelsDec12CWelsDecoder11InitDecoderEPK19TagSVCDecodingParam
libopenh264.so.8:_ZN7WelsDec12CWelsDecoder12DecodeFrame2EPKhiPPhP13TagBufferInfo
libopenh264.so.8:_ZN7WelsDec12CWelsDecoder12DecodeParserEPKhiP15TagParserBsInfo
libopenh264.so.8:_ZN7WelsDec12CWelsDecoder12ResetDecoderERPNS_21TagWelsDecoderContextE
libopenh264.so.8:_ZN7WelsDec12CWelsDecoder12UninitializeEv
libopenh264.so.8:_ZN7WelsDec12CWelsDecoder13DecodeFrameExEPKhiPhiRiS4_S4_S4_
libopenh264.so.8:_ZN7WelsDec12CWelsDecoder13UninitDecoderEv
libopenh264.so.8:_ZN7WelsDec12CWelsDecoder14InitDecoderCtxERPNS_21TagWelsDecoderContextEPK19TagSVCDecodingParam
libopenh264.so.8:_ZN7WelsDec12CWelsDecoder15ParseAccessUnitERNS_20tagSWelsDecThreadCtxE
libopenh264.so.8:_ZN7WelsDec12CWelsDecoder16UninitDecoderCtxERPNS_21TagWelsDecoderContextE
libopenh264.so.8:_ZN7WelsDec12CWelsDecoder18DecodeFrameNoDelayEPKhiPPhP13TagBufferInfo
libopenh264.so.8:_ZN7WelsDec12CWelsDecoder18OpenDecoderThreadsEv
libopenh264.so.8:_ZN7WelsDec12CWelsDecoder18ThreadResetDecoderERPNS_21TagWelsDecoderContextE
libopenh264.so.8:_ZN7WelsDec12CWelsDecoder19CloseDecoderThreadsEv
libopenh264.so.8:_ZN7WelsDec12CWelsDecoder19DecodeFrame2WithCtxEPNS_21TagWelsDecoderContextEPKhiPPhP13TagBufferInfo
libopenh264.so.8:_ZN7WelsDec12CWelsDecoder19OutputStatisticsLogER25TagVideoDecoderStatistics
libopenh264.so.8:_ZN7WelsDec12CWelsDecoder21BufferingReadyPictureEPNS_21TagWelsDecoderContextEPPhP13TagBufferInfo
libopenh264.so.8:_ZN7WelsDec12CWelsDecoder24ReorderPicturesInDisplayEPNS_21TagWelsDecoderContextEPPhP13TagBufferInfo
libopenh264.so.8:_ZN7WelsDec12CWelsDecoder25ThreadDecodeFrameInternalEPKhiPPhP13TagBufferInfo
libopenh264.so.8:_ZN7WelsDec12CWelsDecoder34ReleaseBufferedReadyPictureReorderEPNS_21TagWelsDecoderContextEPPhP13TagBufferInfob
libopenh264.so.8:_ZN7WelsDec12CWelsDecoder36ReleaseBufferedReadyPictureNoReorderEPNS_21TagWelsDecoderContextEPPhP13TagBufferInfo
libopenh264.so.8:_ZN7WelsDec12CWelsDecoder9GetOptionE14DECODER_OPTIONPv
libopenh264.so.8:_ZN7WelsDec12CWelsDecoder9SetOptionE14DECODER_OPTIONPv
libopenh264.so.8:_ZN7WelsDec12CWelsDecoderC1Ev
libopenh264.so.8:_ZN7WelsDec12CWelsDecoderC2Ev
libopenh264.so.8:_ZN7WelsDec12CWelsDecoderD0Ev
libopenh264.so.8:_ZN7WelsDec12CWelsDecoderD1Ev
libopenh264.so.8:_ZN7WelsDec12CWelsDecoderD2Ev
libopenh264.so.8:_ZN7WelsDec12DoMbECMvCopyEPNS_21TagWelsDecoderContextEPNS_8SPictureES3_iiiPNS_14TagMCRefMemberE
libopenh264.so.8:_ZN7WelsDec12GetInterPredEPhS0_S0_PNS_21TagWelsDecoderContextE
libopenh264.so.8:_ZN7WelsDec12InitBsBufferEPNS_21TagWelsDecoderContextE
libopenh264.so.8:_ZN7WelsDec12InitErrorConEPNS_21TagWelsDecoderContextE
libopenh264.so.8:_ZN7WelsDec12InitReadBitsEPN10WelsCommon15TagBitStringAuxEl
libopenh264.so.8:_ZN7WelsDec12NeedErrorConEPNS_21TagWelsDecoderContextE
libopenh264.so.8:_ZN7WelsDec12ResetFmoListEPNS_21TagWelsDecoderContextE
libopenh264.so.8:_ZN7WelsDec12pThrProcInitEPv
libopenh264.so.8:_ZN7WelsDec13CheckBsBufferEPNS_21TagWelsDecoderContextEi
libopenh264.so.8:_ZN7WelsDec13GetInterBPredEPPhS1_PNS_21TagWelsDecoderContextE
libopenh264.so.8:_ZN7WelsDec13MapColToList0ERPNS_21TagWelsDecoderContextERKaRKi
libopenh264.so.8:_ZN7WelsDec13MemGetNextNalEPPNS_14TagAccessUnitsEPN10WelsCommon12CMemoryAlignE
libopenh264.so.8:_ZN7WelsDec13RecI4x4ChromaEiPNS_21TagWelsDecoderContextEPsPNS_10TagDqLayerE
libopenh264.so.8:_ZN7WelsDec13UninitFmoListEPNS_6TagFmoEiiPN10WelsCommon12CMemoryAlignE
libopenh264.so.8:_ZN7WelsDec13WelsBlockInitEPsiiih
libopenh264.so.8:_ZN7WelsDec13WelsMarkAsRefEPNS_21TagWelsDecoderContextEPNS_8SPictureE
libopenh264.so.8:_ZN7WelsDec13pThrProcFrameEPv
libopenh264.so.8:_ZN7WelsDec14CheckSpsActiveEPNS_21TagWelsDecoderContextEPNS_6TagSpsEb
libopenh264.so.8:_ZN7WelsDec14DeblockingInitEPNS_17TagDeblockingFuncEi
libopenh264.so.8:_ZN7WelsDec14DecodeBinCabacEPNS_19SWelsCabacDecEngineEPNS_19SWels_Cabac_ElementERj
libopenh264.so.8:_ZN7WelsDec14ExpandBsBufferEPNS_21TagWelsDecoderContextEi
libopenh264.so.8:_ZN7WelsDec14FmoParamUpdateEPNS_6TagFmoEPNS_6TagSpsEPNS_6TagPpsEPiPN10WelsCommon12CMemoryAlignE
libopenh264.so.8:_ZN7WelsDec14GetColocatedMbEPNS_21TagWelsDecoderContextERjS2_
libopenh264.so.8:_ZN7WelsDec14GetLevelLimitsEib
libopenh264.so.8:_ZN7WelsDec14InitRefPicListEPNS_21TagWelsDecoderContextEhi
libopenh264.so.8:_ZN7WelsDec14MemFreeNalListEPPNS_14TagAccessUnitsEPN10WelsCommon12CMemoryAlignE
libopenh264.so.8:_ZN7WelsDec14MemInitNalListEPPNS_14TagAccessUnitsEjPN10WelsCommon12CMemoryAlignE
libopenh264.so.8:_ZN7WelsDec14ParseInterInfoEPNS_21TagWelsDecoderContextEPA30_A2_sPA30_aPN10WelsCommon15TagBitStringAuxE
libopenh264.so.8:_ZN7WelsDec14ParseNalHeaderEPNS_21TagWelsDecoderContextEPN10WelsCommon16TagNalUnitHeaderEPhiS5_iPi
libopenh264.so.8:_ZN7WelsDec14ParseNonVclNalEPNS_21TagWelsDecoderContextEPhiS2_i
libopenh264.so.8:_ZN7WelsDec15DecodeSpsSvcExtEPNS_21TagWelsDecoderContextEPNS_12TagSubsetSpsEPN10WelsCommon15TagBitStringAuxE
libopenh264.so.8:_ZN7WelsDec15ParseInterBInfoEPNS_21TagWelsDecoderContextEPA30_A2_sPA30_aPN10WelsCommon15TagBitStringAuxE
libopenh264.so.8:_ZN7WelsDec15PredInter16x8MvEPA30_A2_sPA30_aiiaPs
libopenh264.so.8:_ZN7WelsDec15PredInter8x16MvEPA30_A2_sPA30_aiiaPs
libopenh264.so.8:_ZN7WelsDec15Read32BitsCabacEPNS_19SWelsCabacDecEngineERjRi
libopenh264.so.8:_ZN7WelsDec15Update8x8RefIdxERPNS_10TagDqLayerERKsRKiRKa
libopenh264.so.8:_ZN7WelsDec15WelsDecodeSliceEPNS_21TagWelsDecoderContextEbPNS_10TagNalUnitE
libopenh264.so.8:_ZN7WelsDec15WelsInitRefListEPNS_21TagWelsDecoderContextEi
libopenh264.so.8:_ZN7WelsDec15WelsOpenDecoderEPNS_21TagWelsDecoderContextEP13TagLogContext
libopenh264.so.8:_ZN7WelsDec15WelsResetRefPicEPNS_21TagWelsDecoderContextE
libopenh264.so.8:_ZN7WelsDec15g_kuiNcMapTableE
libopenh264.so.8:_ZN7WelsDec15g_kuiVlcTable_0E
libopenh264.so.8:_ZN7WelsDec15g_kuiVlcTable_1E
libopenh264.so.8:_ZN7WelsDec15g_kuiVlcTable_2E
libopenh264.so.8:_ZN7WelsDec15g_kuiVlcTable_3E
libopenh264.so.8:_ZN7WelsDec16DecodeUEGMvCabacEPNS_19SWelsCabacDecEngineEPNS_19SWels_Cabac_ElementEjRj
libopenh264.so.8:_ZN7WelsDec16GetLTRFrameIndexEPNS_9TagRefPicEi
libopenh264.so.8:_ZN7WelsDec16IdctResAddPred_cEPhiPs
libopenh264.so.8:_ZN7WelsDec16MarkECFrameAsRefEPNS_21TagWelsDecoderContextE
libopenh264.so.8:_ZN7WelsDec16ParseRefIdxCabacEPNS_21TagWelsDecoderContextEPNS_16TagNeighborAvailEPhPA30_aPaiiiiRa
libopenh264.so.8:_ZN7WelsDec16ParseScalingListEPNS_6TagSpsEPN10WelsCommon15TagBitStringAuxEbbPbPA16_hPA64_h
libopenh264.so.8:_ZN7WelsDec16PredIntra4x4ModeEPai
libopenh264.so.8:_ZN7WelsDec16UpdateAccessUnitEPNS_21TagWelsDecoderContextE
libopenh264.so.8:_ZN7WelsDec16WelsChromaDcIdctEPs
libopenh264.so.8:_ZN7WelsDec16WelsCloseDecoderEPNS_21TagWelsDecoderContextE
libopenh264.so.8:_ZN7WelsDec16WelsDeblockingMbEPNS_10TagDqLayerEPNS_19tagDeblockingFilterEi
libopenh264.so.8:_ZN7WelsDec17CheckNextAuNewSeqEPNS_21TagWelsDecoderContextEPNS_10TagNalUnitEPNS_6TagSpsE
libopenh264.so.8:_ZN7WelsDec17DecodeBypassCabacEPNS_19SWelsCabacDecEngineERj
libopenh264.so.8:_ZN7WelsDec17ExpandBsLenBufferEPNS_21TagWelsDecoderContextEi
libopenh264.so.8:_ZN7WelsDec17ExpandNalUnitListEPPNS_14TagAccessUnitsEiiPN10WelsCommon12CMemoryAlignE
libopenh264.so.8:_ZN7WelsDec17FmoMbToSliceGroupEPNS_6TagFmoEi
libopenh264.so.8:_ZN7WelsDec17ImplementErrorConEPNS_21TagWelsDecoderContextE
libopenh264.so.8:_ZN7WelsDec17ParseCbfInfoCabacEPNS_16TagNeighborAvailEPhiiPNS_21TagWelsDecoderContextERj
libopenh264.so.8:_ZN7WelsDec17ParseCbpInfoCabacEPNS_21TagWelsDecoderContextEPNS_16TagNeighborAvailERj
libopenh264.so.8:_ZN7WelsDec17ParseDeltaQpCabacEPNS_21TagWelsDecoderContextERi
libopenh264.so.8:_ZN7WelsDec17ParseIntra4x4ModeEPNS_21TagWelsDecoderContextEPNS_16TagNeighborAvailEPaPN10WelsCommon15TagBitStringAuxEPNS_10TagDqLayerE
libopenh264.so.8:_ZN7WelsDec17ParseIntra8x8ModeEPNS_21TagWelsDecoderContextEPNS_16TagNeighborAvailEPaPN10WelsCommon15TagBitStringAuxEPNS_10TagDqLayerE
libopenh264.so.8:_ZN7WelsDec17ParseMvdInfoCabacEPNS_21TagWelsDecoderContextEPNS_16TagNeighborAvailEPA30_aPA30_A2_siaaRs
libopenh264.so.8:_ZN7WelsDec17WelsBlockFuncInitEPNS_12TagBlockFuncEi
libopenh264.so.8:_ZN7WelsDec17g_kCache26ScanIdxE
libopenh264.so.8:_ZN7WelsDec17g_kCache30ScanIdxE
libopenh264.so.8:_ZN7WelsDec17g_kuiChromaDcScanE
libopenh264.so.8:_ZN7WelsDec17g_kuiVlcTable_0_0E
libopenh264.so.8:_ZN7WelsDec17g_kuiVlcTable_0_1E
libopenh264.so.8:_ZN7WelsDec17g_kuiVlcTable_0_2E
libopenh264.so.8:_ZN7WelsDec17g_kuiVlcTable_0_3E
libopenh264.so.8:_ZN7WelsDec17g_kuiVlcTable_1_0E
libopenh264.so.8:_ZN7WelsDec17g_kuiVlcTable_1_1E
libopenh264.so.8:_ZN7WelsDec17g_kuiVlcTable_1_2E
libopenh264.so.8:_ZN7WelsDec17g_kuiVlcTable_1_3E
libopenh264.so.8:_ZN7WelsDec17g_kuiVlcTable_2_0E
libopenh264.so.8:_ZN7WelsDec17g_kuiVlcTable_2_1E
libopenh264.so.8:_ZN7WelsDec17g_kuiVlcTable_2_2E
libopenh264.so.8:_ZN7WelsDec17g_kuiVlcTable_2_3E
libopenh264.so.8:_ZN7WelsDec17g_kuiVlcTable_2_4E
libopenh264.so.8:_ZN7WelsDec17g_kuiVlcTable_2_5E
libopenh264.so.8:_ZN7WelsDec17g_kuiVlcTable_2_6E
libopenh264.so.8:_ZN7WelsDec17g_kuiVlcTable_2_7E
libopenh264.so.8:_ZN7WelsDec18CopyRectBlock4ColsEPvS0_iiii
libopenh264.so.8:_ZN7WelsDec18DecodeFinishUpdateEPNS_21TagWelsDecoderContextE
libopenh264.so.8:_ZN7WelsDec18DecodeNalHeaderExtEPNS_10TagNalUnitEPh
libopenh264.so.8:_ZN7WelsDec18FilteringEdgeLumaHEPNS_19tagDeblockingFilterEPhiS2_
libopenh264.so.8:_ZN7WelsDec18FilteringEdgeLumaVEPNS_19tagDeblockingFilterEPhiS2_
libopenh264.so.8:_ZN7WelsDec18InitCurDqLayerDataEPNS_21TagWelsDecoderContextEPNS_10TagDqLayerE
libopenh264.so.8:_ZN7WelsDec18ParseIPCMInfoCabacEPNS_21TagWelsDecoderContextE
libopenh264.so.8:_ZN7WelsDec18ParsePrefixNalUnitEPNS_21TagWelsDecoderContextEPN10WelsCommon15TagBitStringAuxE
libopenh264.so.8:_ZN7WelsDec18ParseSkipFlagCabacEPNS_21TagWelsDecoderContextEPNS_16TagNeighborAvailERj
libopenh264.so.8:_ZN7WelsDec18UpdateP16x16RefIdxEPNS_10TagDqLayerEia
libopenh264.so.8:_ZN7WelsDec18WelsBlockZero8x8_cEPsi
libopenh264.so.8:_ZN7WelsDec18WelsFillCacheInterEPNS_16TagNeighborAvailEPhPA30_A2_sPA30_aPNS_10TagDqLayerE
libopenh264.so.8:_ZN7WelsDec18WelsIChromaPredH_cEPhi
libopenh264.so.8:_ZN7WelsDec18WelsIChromaPredV_cEPhi
libopenh264.so.8:_ZN7WelsDec18WelsReorderRefListEPNS_21TagWelsDecoderContextE
libopenh264.so.8:_ZN7WelsDec18g_kCacheNzcScanIdxE
libopenh264.so.8:_ZN7WelsDec18g_kNonZeroScanIdxCE
libopenh264.so.8:_ZN7WelsDec18g_kuiInterCbpTableE
libopenh264.so.8:_ZN7WelsDec19ConstructAccessUnitEPNS_21TagWelsDecoderContextEPPhP13TagBufferInfo
libopenh264.so.8:_ZN7WelsDec19DecodeUEGLevelCabacEPNS_19SWelsCabacDecEngineEPNS_19SWels_Cabac_ElementERj
libopenh264.so.8:_ZN7WelsDec19DecodeUnaryBinCabacEPNS_19SWelsCabacDecEngineEPNS_19SWels_Cabac_ElementEiRj
libopenh264.so.8:_ZN7WelsDec19DoErrorConFrameCopyEPNS_21TagWelsDecoderContextE
libopenh264.so.8:_ZN7WelsDec19DoErrorConSliceCopyEPNS_21TagWelsDecoderContextE
libopenh264.so.8:_ZN7WelsDec19FilteringEdgeLumaHVEPNS_10TagDqLayerEPNS_19tagDeblockingFilterEi
libopenh264.so.8:_ZN7WelsDec19FmoParamSetsChangedEPNS_6TagFmoEiii
libopenh264.so.8:_ZN7WelsDec19IdctResAddPred8x8_cEPhiPs
libopenh264.so.8:_ZN7WelsDec19ParseIntra16x16ModeEPNS_21TagWelsDecoderContextEPNS_16TagNeighborAvailEPN10WelsCommon15TagBitStringAuxEPNS_10TagDqLayerE
libopenh264.so.8:_ZN7WelsDec19ParseSubMBTypeCabacEPNS_21TagWelsDecoderContextEPNS_16TagNeighborAvailERj
libopenh264.so.8:_ZN7WelsDec19PredBDirectTemporalEPNS_21TagWelsDecoderContextEPA2_sPaRj
libopenh264.so.8:_ZN7WelsDec19SetScalingListValueEPhiPbPN10WelsCommon15TagBitStringAuxE
libopenh264.so.8:_ZN7WelsDec19UpdateP16x8MvdCabacEPNS_10TagDqLayerEPA30_A2_siPsa
libopenh264.so.8:_ZN7WelsDec19UpdateP8x16MvdCabacEPNS_10TagDqLayerEPA30_A2_siPsa
libopenh264.so.8:_ZN7WelsDec19WelsCabacGlobalInitEPNS_21TagWelsDecoderContextE
libopenh264.so.8:_ZN7WelsDec19WelsI4x4LumaPredH_cEPhi
libopenh264.so.8:_ZN7WelsDec19WelsI4x4LumaPredV_cEPhi
libopenh264.so.8:_ZN7WelsDec19WelsI8x8LumaPredH_cEPhibb
libopenh264.so.8:_ZN7WelsDec19WelsI8x8LumaPredV_cEPhibb
libopenh264.so.8:_ZN7WelsDec19WelsIChromaPredDc_cEPhi
libopenh264.so.8:_ZN7WelsDec19WelsReorderRefList2EPNS_21TagWelsDecoderContextE
libopenh264.so.8:_ZN7WelsDec19g_kuiVlcChromaTableE
libopenh264.so.8:_ZN7WelsDec19g_kuiZeroLeftTable0E
libopenh264.so.8:_ZN7WelsDec19g_kuiZeroLeftTable1E
libopenh264.so.8:_ZN7WelsDec19g_kuiZeroLeftTable2E
libopenh264.so.8:_ZN7WelsDec19g_kuiZeroLeftTable3E
libopenh264.so.8:_ZN7WelsDec19g_kuiZeroLeftTable4E
libopenh264.so.8:_ZN7WelsDec19g_kuiZeroLeftTable5E
libopenh264.so.8:_ZN7WelsDec19g_kuiZeroLeftTable6E
libopenh264.so.8:_ZN7WelsDec20DecodeExpBypassCabacEPNS_19SWelsCabacDecEngineEiRj
libopenh264.so.8:_ZN7WelsDec20DecodeTerminateCabacEPNS_19SWelsCabacDecEngineERj
libopenh264.so.8:_ZN7WelsDec20FilteringEdgeChromaHEPNS_19tagDeblockingFilterEPhS2_iS2_
libopenh264.so.8:_ZN7WelsDec20FilteringEdgeChromaVEPNS_19tagDeblockingFilterEPhS2_iS2_
libopenh264.so.8:_ZN7WelsDec20ForceClearCurrentNalEPNS_14TagAccessUnitsE
libopenh264.so.8:_ZN7WelsDec20ParseBSubMBTypeCabacEPNS_21TagWelsDecoderContextEPNS_16TagNeighborAvailERj
libopenh264.so.8:_ZN7WelsDec20ParseEndOfSliceCabacEPNS_21TagWelsDecoderContextERj
libopenh264.so.8:_ZN7WelsDec20PredMvBDirectSpatialEPNS_21TagWelsDecoderContextEPA2_sPaRj
libopenh264.so.8:_ZN7WelsDec20PrefetchPicForThreadEPNS_10TagPicBuffE
libopenh264.so.8:_ZN7WelsDec20UpdateP16x16MvdCabacEPNS_10TagDqLayerEPsa
libopenh264.so.8:_ZN7WelsDec20WelsBlockZero16x16_cEPsi
libopenh264.so.8:_ZN7WelsDec20WelsCabacContextInitEPNS_21TagWelsDecoderContextEhii
libopenh264.so.8:_ZN7WelsDec20WelsFreeStaticMemoryEPNS_21TagWelsDecoderContextE
libopenh264.so.8:_ZN7WelsDec20WelsI4x4LumaPredDc_cEPhi
libopenh264.so.8:_ZN7WelsDec20WelsI4x4LumaPredHD_cEPhi
libopenh264.so.8:_ZN7WelsDec20WelsI4x4LumaPredHU_cEPhi
libopenh264.so.8:_ZN7WelsDec20WelsI4x4LumaPredVL_cEPhi
libopenh264.so.8:_ZN7WelsDec20WelsI4x4LumaPredVR_cEPhi
libopenh264.so.8:_ZN7WelsDec20WelsI8x8LumaPredDc_cEPhibb
libopenh264.so.8:_ZN7WelsDec20WelsI8x8LumaPredHD_cEPhibb
libopenh264.so.8:_ZN7WelsDec20WelsI8x8LumaPredHU_cEPhibb
libopenh264.so.8:_ZN7WelsDec20WelsI8x8LumaPredVL_cEPhibb
libopenh264.so.8:_ZN7WelsDec20WelsI8x8LumaPredVR_cEPhibb
libopenh264.so.8:_ZN7WelsDec20WelsInitStaticMemoryEPNS_21TagWelsDecoderContextE
libopenh264.so.8:_ZN7WelsDec20g_kMbNonZeroCountIdxE
libopenh264.so.8:_ZN7WelsDec21CheckAndFinishLastPicEPNS_21TagWelsDecoderContextEPPhP13TagBufferInfo
libopenh264.so.8:_ZN7WelsDec21CheckIntraNxNPredModeEPiPaib
libopenh264.so.8:_ZN7WelsDec21CheckOnlyOneLayerInAuEPNS_21TagWelsDecoderContextE
libopenh264.so.8:_ZN7WelsDec21DetectStartCodePrefixEPKhPii
libopenh264.so.8:_ZN7WelsDec21DoErrorConSliceMVCopyEPNS_21TagWelsDecoderContextE
libopenh264.so.8:_ZN7WelsDec21FilteringEdgeChromaHVEPNS_10TagDqLayerEPNS_19tagDeblockingFilterEi
libopenh264.so.8:_ZN7WelsDec21ParseDecRefPicMarkingEPNS_21TagWelsDecoderContextEPN10WelsCommon15TagBitStringAuxEPNS_15TagSliceHeadersEPNS_6TagSpsEb
libopenh264.so.8:_ZN7WelsDec21UpdateP16x8MotionInfoEPNS_10TagDqLayerEPA30_A2_sPA30_aiiaPs
libopenh264.so.8:_ZN7WelsDec21UpdateP8x16MotionInfoEPNS_10TagDqLayerEPA30_A2_sPA30_aiiaPs
libopenh264.so.8:_ZN7WelsDec21UpdateP8x8DirectCabacEPNS_10TagDqLayerEi
libopenh264.so.8:_ZN7WelsDec21UpdateP8x8RefIdxCabacEPNS_10TagDqLayerEPA30_aiaa
libopenh264.so.8:_ZN7WelsDec21WelsI16x16LumaPredH_cEPhi
libopenh264.so.8:_ZN7WelsDec21WelsI16x16LumaPredV_cEPhi
libopenh264.so.8:_ZN7WelsDec21WelsI4x4LumaPredDDL_cEPhi
libopenh264.so.8:_ZN7WelsDec21WelsI4x4LumaPredDDR_cEPhi
libopenh264.so.8:_ZN7WelsDec21WelsI8x8LumaPredDDL_cEPhibb
libopenh264.so.8:_ZN7WelsDec21WelsI8x8LumaPredDDR_cEPhibb
libopenh264.so.8:_ZN7WelsDec21WelsIChromaPredDcNA_cEPhi
libopenh264.so.8:_ZN7WelsDec21WelsInitBSliceRefListEPNS_21TagWelsDecoderContextEi
libopenh264.so.8:_ZN7WelsDec21WelsLumaDcDequantIdctEPsiPNS_21TagWelsDecoderContextE
libopenh264.so.8:_ZN7WelsDec21WelsMbInterPredictionEPNS_21TagWelsDecoderContextEPNS_10TagDqLayerE
libopenh264.so.8:_ZN7WelsDec21g_kuiInterCbpTable400E
libopenh264.so.8:_ZN7WelsDec21g_kuiIntra4x4CbpTableE
libopenh264.so.8:_ZN7WelsDec21g_kuiLeadingZeroTableE
libopenh264.so.8:_ZN7WelsDec21g_kuiLumaDcZigzagScanE
libopenh264.so.8:_ZN7WelsDec21g_kuiTotalZerosTable0E
libopenh264.so.8:_ZN7WelsDec21g_kuiTotalZerosTable1E
libopenh264.so.8:_ZN7WelsDec21g_kuiTotalZerosTable2E
libopenh264.so.8:_ZN7WelsDec21g_kuiTotalZerosTable3E
libopenh264.so.8:_ZN7WelsDec21g_kuiTotalZerosTable4E
libopenh264.so.8:_ZN7WelsDec21g_kuiTotalZerosTable5E
libopenh264.so.8:_ZN7WelsDec21g_kuiTotalZerosTable6E
libopenh264.so.8:_ZN7WelsDec21g_kuiTotalZerosTable7E
libopenh264.so.8:_ZN7WelsDec21g_kuiTotalZerosTable8E
libopenh264.so.8:_ZN7WelsDec21g_kuiTotalZerosTable9E
libopenh264.so.8:_ZN7WelsDec22FillSpatialDirect8x8MvEPNS_10TagDqLayerERKsRKaS5_RKjRKbPA2_sPaPA30_SA_SE_
libopenh264.so.8:_ZN7WelsDec22GetNeighborAvailMbTypeEPNS_16TagNeighborAvailEPNS_10TagDqLayerE
libopenh264.so.8:_ZN7WelsDec22InitialDqLayersContextEPNS_21TagWelsDecoderContextEii
libopenh264.so.8:_ZN7WelsDec22ParseMBTypeBSliceCabacEPNS_21TagWelsDecoderContextEPNS_16TagNeighborAvailERj
libopenh264.so.8:_ZN7WelsDec22ParseMBTypeISliceCabacEPNS_21TagWelsDecoderContextEPNS_16TagNeighborAvailERj
libopenh264.so.8:_ZN7WelsDec22ParseMBTypePSliceCabacEPNS_21TagWelsDecoderContextEPNS_16TagNeighborAvailERj
libopenh264.so.8:_ZN7WelsDec22ParsePredWeightedTableEPN10WelsCommon15TagBitStringAuxEPNS_15TagSliceHeadersE
libopenh264.so.8:_ZN7WelsDec22ParseRefBasePicMarkingEPN10WelsCommon15TagBitStringAuxEPNS_23TagRefBasePicMarkingSynE
libopenh264.so.8:_ZN7WelsDec22ResetCurrentAccessUnitEPNS_21TagWelsDecoderContextE
libopenh264.so.8:_ZN7WelsDec22UpdateP16x16MotionInfoEPNS_10TagDqLayerEiaPs
libopenh264.so.8:_ZN7WelsDec22UpdateP16x16MotionOnlyEPNS_10TagDqLayerEiPs
libopenh264.so.8:_ZN7WelsDec22UpdateP16x8RefIdxCabacEPNS_10TagDqLayerEPA30_aiaa
libopenh264.so.8:_ZN7WelsDec22UpdateP8x16RefIdxCabacEPNS_10TagDqLayerEPA30_aiaa
libopenh264.so.8:_ZN7WelsDec22WelsDeblockingFilterMBEPNS_10TagDqLayerERNS_19tagDeblockingFilterERiPFvS1_PS2_iE
libopenh264.so.8:_ZN7WelsDec22WelsDqLayerDecodeStartEPNS_21TagWelsDecoderContextEPNS_10TagNalUnitEPNS_6TagSpsEPNS_6TagPpsE
libopenh264.so.8:_ZN7WelsDec22WelsI16x16LumaPredDc_cEPhi
libopenh264.so.8:_ZN7WelsDec22WelsI4x4LumaPredDcNA_cEPhi
libopenh264.so.8:_ZN7WelsDec22WelsI8x8LumaPredDcNA_cEPhibb
libopenh264.so.8:_ZN7WelsDec22WelsIChromaPredDcTop_cEPhi
libopenh264.so.8:_ZN7WelsDec22WelsIChromaPredPlane_cEPhi
libopenh264.so.8:_ZN7WelsDec22WelsResidualBlockCavlcEPNS_11TagVlcTableEPhPN10WelsCommon15TagBitStringAuxEiiPKhiPshPNS_21TagWelsDecoderContextE
libopenh264.so.8:_ZN7WelsDec22g_kuiTotalZerosTable10E
libopenh264.so.8:_ZN7WelsDec22g_kuiTotalZerosTable11E
libopenh264.so.8:_ZN7WelsDec22g_kuiTotalZerosTable12E
libopenh264.so.8:_ZN7WelsDec22g_kuiTotalZerosTable13E
libopenh264.so.8:_ZN7WelsDec22g_kuiTotalZerosTable14E
libopenh264.so.8:_ZN7WelsDec22g_kuiZeroLeftBitNumMapE
libopenh264.so.8:_ZN7WelsDec23CheckAccessUnitBoundaryEPNS_21TagWelsDecoderContextEPNS_10TagNalUnitES3_PNS_6TagSpsE
libopenh264.so.8:_ZN7WelsDec23CheckIntra16x16PredModeEhPa
libopenh264.so.8:_ZN7WelsDec23DecodeCurrentAccessUnitEPNS_21TagWelsDecoderContextEPPhP13TagBufferInfo
libopenh264.so.8:_ZN7WelsDec23FillTemporalDirect8x8MvEPNS_10TagDqLayerERKsRKaS5_RKjPaPA2_sPA30_S9_SC_
libopenh264.so.8:_ZN7WelsDec23FilteringEdgeLumaIntraHEPNS_19tagDeblockingFilterEPhiS2_
libopenh264.so.8:_ZN7WelsDec23FilteringEdgeLumaIntraVEPNS_19tagDeblockingFilterEPhiS2_
libopenh264.so.8:_ZN7WelsDec23InitConstructAccessUnitEPNS_21TagWelsDecoderContextEP13TagBufferInfo
libopenh264.so.8:_ZN7WelsDec23ParseResidualBlockCabacEPNS_16TagNeighborAvailEPhPN10WelsCommon15TagBitStringAuxEiiPKhiPshPNS_21TagWelsDecoderContextE
libopenh264.so.8:_ZN7WelsDec23ParseSliceHeaderSyntaxsEPNS_21TagWelsDecoderContextEPN10WelsCommon15TagBitStringAuxEb
libopenh264.so.8:_ZN7WelsDec23PredPSkipMvFromNeighborEPNS_10TagDqLayerEPs
libopenh264.so.8:_ZN7WelsDec23UpdateP16x16DirectCabacEPNS_10TagDqLayerE
libopenh264.so.8:_ZN7WelsDec23WelsDecodeAccessUnitEndEPNS_21TagWelsDecoderContextE
libopenh264.so.8:_ZN7WelsDec23WelsDecodeMbCabacBSliceEPNS_21TagWelsDecoderContextEPNS_10TagNalUnitERj
libopenh264.so.8:_ZN7WelsDec23WelsDecodeMbCabacISliceEPNS_21TagWelsDecoderContextEPNS_10TagNalUnitERj
libopenh264.so.8:_ZN7WelsDec23WelsDecodeMbCabacPSliceEPNS_21TagWelsDecoderContextEPNS_10TagNalUnitERj
libopenh264.so.8:_ZN7WelsDec23WelsDecodeMbCavlcBSliceEPNS_21TagWelsDecoderContextEPNS_10TagNalUnitERj
libopenh264.so.8:_ZN7WelsDec23WelsDecodeMbCavlcISliceEPNS_21TagWelsDecoderContextEPNS_10TagNalUnitERj
libopenh264.so.8:_ZN7WelsDec23WelsDecodeMbCavlcPSliceEPNS_21TagWelsDecoderContextEPNS_10TagNalUnitERj
libopenh264.so.8:_ZN7WelsDec23WelsFillCacheInterCabacEPNS_16TagNeighborAvailEPhPA30_A2_sS5_PA30_aPNS_10TagDqLayerE
libopenh264.so.8:_ZN7WelsDec23WelsFillRecNeededMbInfoEPNS_21TagWelsDecoderContextEbPNS_10TagDqLayerE
libopenh264.so.8:_ZN7WelsDec23WelsI4x4LumaPredDcTop_cEPhi
libopenh264.so.8:_ZN7WelsDec23WelsI4x4LumaPredVLTop_cEPhi
libopenh264.so.8:_ZN7WelsDec23WelsI8x8LumaPredDcTop_cEPhibb
libopenh264.so.8:_ZN7WelsDec23WelsI8x8LumaPredVLTop_cEPhibb
libopenh264.so.8:_ZN7WelsDec23WelsIChromaPredDcLeft_cEPhi
libopenh264.so.8:_ZN7WelsDec23WelsMbInterConstructionEPNS_21TagWelsDecoderContextEPNS_10TagDqLayerE
libopenh264.so.8:_ZN7WelsDec24CheckIntraChromaPredModeEhPa
libopenh264.so.8:_ZN7WelsDec24CheckRefPicturesCompleteEPNS_21TagWelsDecoderContextE
libopenh264.so.8:_ZN7WelsDec24GetAvilInfoFromCorrectMbEPNS_21TagWelsDecoderContextE
libopenh264.so.8:_ZN7WelsDec24InitCabacDecEngineFromBSEPNS_19SWelsCabacDecEngineEPN10WelsCommon15TagBitStringAuxE
libopenh264.so.8:_ZN7WelsDec24ParseSignificantMapCabacEPiiPNS_21TagWelsDecoderContextERj
libopenh264.so.8:_ZN7WelsDec24PrefetchLastPicForThreadEPNS_10TagPicBuffERKi
libopenh264.so.8:_ZN7WelsDec24UninitialDqLayersContextEPNS_21TagWelsDecoderContextE
libopenh264.so.8:_ZN7WelsDec24WelsDeblockingInitFilterEPNS_21TagWelsDecoderContextERNS_19tagDeblockingFilterERi
libopenh264.so.8:_ZN7WelsDec24WelsFillDirectCacheCabacEPNS_16TagNeighborAvailEPaPNS_10TagDqLayerE
libopenh264.so.8:_ZN7WelsDec24WelsI16x16LumaPredDcNA_cEPhi
libopenh264.so.8:_ZN7WelsDec24WelsI4x4LumaPredDDLTop_cEPhi
libopenh264.so.8:_ZN7WelsDec24WelsI4x4LumaPredDcLeft_cEPhi
libopenh264.so.8:_ZN7WelsDec24WelsI8x8LumaPredDDLTop_cEPhibb
libopenh264.so.8:_ZN7WelsDec24WelsI8x8LumaPredDcLeft_cEPhibb
libopenh264.so.8:_ZN7WelsDec24WelsTargetMbConstructionEPNS_21TagWelsDecoderContextE
libopenh264.so.8:_ZN7WelsDec24g_kuiIntra4x4CbpTable400E
libopenh264.so.8:_ZN7WelsDec24g_kuiTotalZerosBitNumMapE
libopenh264.so.8:_ZN7WelsDec25AllocPicBuffOnNewSeqBeginEPNS_21TagWelsDecoderContextE
libopenh264.so.8:_ZN7WelsDec25CreateImplicitWeightTableEPNS_21TagWelsDecoderContextE
libopenh264.so.8:_ZN7WelsDec25FillDefaultSliceHeaderExtEPNS_17TagSliceHeaderExtEPN10WelsCommon19TagNalUnitHeaderExtE
libopenh264.so.8:_ZN7WelsDec25FilteringEdgeChromaIntraHEPNS_19tagDeblockingFilterEPhS2_iS2_
libopenh264.so.8:_ZN7WelsDec25FilteringEdgeChromaIntraVEPNS_19tagDeblockingFilterEPhS2_iS2_
libopenh264.so.8:_ZN7WelsDec25GetI4LumaIChromaAddrTableEPiii
libopenh264.so.8:_ZN7WelsDec25ParseRefPicListReorderingEPN10WelsCommon15TagBitStringAuxEPNS_15TagSliceHeadersE
libopenh264.so.8:_ZN7WelsDec25RefineIdxNoInterLayerPredEPNS_14TagAccessUnitsEPi
libopenh264.so.8:_ZN7WelsDec25RestoreCabacDecEngineToBSEPNS_19SWelsCabacDecEngineEPN10WelsCommon15TagBitStringAuxE
libopenh264.so.8:_ZN7WelsDec25WelsDeblockingFilterSliceEPNS_21TagWelsDecoderContextEPFvPNS_10TagDqLayerEPNS_19tagDeblockingFilterEiE
libopenh264.so.8:_ZN7WelsDec25WelsDecodeAccessUnitStartEPNS_21TagWelsDecoderContextE
libopenh264.so.8:_ZN7WelsDec25WelsFillCacheNonZeroCountEPNS_16TagNeighborAvailEPhPNS_10TagDqLayerE
libopenh264.so.8:_ZN7WelsDec25WelsI16x16LumaPredDcTop_cEPhi
libopenh264.so.8:_ZN7WelsDec25WelsI16x16LumaPredPlane_cEPhi
libopenh264.so.8:_ZN7WelsDec25WelsResidualBlockCavlc8x8EPNS_11TagVlcTableEPhPN10WelsCommon15TagBitStringAuxEiiPKhiPsihPNS_21TagWelsDecoderContextE
libopenh264.so.8:_ZN7WelsDec26CheckAccessUnitBoundaryExtEPN10WelsCommon19TagNalUnitHeaderExtES2_PNS_15TagSliceHeadersES4_
libopenh264.so.8:_ZN7WelsDec26CheckIntegrityNalUnitsListEPNS_21TagWelsDecoderContextE
libopenh264.so.8:_ZN7WelsDec26CheckPocOfCurValidNalUnitsEPNS_14TagAccessUnitsEi
libopenh264.so.8:_ZN7WelsDec26ParseInterBMotionInfoCabacEPNS_21TagWelsDecoderContextEPNS_16TagNeighborAvailEPhPA30_A2_sS7_PA30_aPa
libopenh264.so.8:_ZN7WelsDec26ParseInterPMotionInfoCabacEPNS_21TagWelsDecoderContextEPNS_16TagNeighborAvailEPhPA30_A2_sS7_PA30_a
libopenh264.so.8:_ZN7WelsDec26ParseResidualBlockCabac8x8EPNS_16TagNeighborAvailEPhPN10WelsCommon15TagBitStringAuxEiiPKhiPshPNS_21TagWelsDecoderContextE
libopenh264.so.8:_ZN7WelsDec26ParseSignificantCoeffCabacEPiiPNS_21TagWelsDecoderContextE
libopenh264.so.8:_ZN7WelsDec26PrefetchNalHeaderExtSyntaxEPNS_21TagWelsDecoderContextEPNS_10TagNalUnitES3_
libopenh264.so.8:_ZN7WelsDec26UpdateP8x8RefCacheIdxCabacEPA30_aRKsRKiRKa
libopenh264.so.8:_ZN7WelsDec26WelsI16x16LumaPredDcLeft_cEPhi
libopenh264.so.8:_ZN7WelsDec27ForceResetCurrentAccessUnitEPNS_14TagAccessUnitsE
libopenh264.so.8:_ZN7WelsDec27ParseIntraPredModeLumaCabacEPNS_21TagWelsDecoderContextERi
libopenh264.so.8:_ZN7WelsDec27WelsCalcDeqCoeffScalingListEPNS_21TagWelsDecoderContextE
libopenh264.so.8:_ZN7WelsDec27WelsDecodeAndConstructSliceEPNS_21TagWelsDecoderContextE
libopenh264.so.8:_ZN7WelsDec27WelsResetRefPicWithoutUnRefEPNS_21TagWelsDecoderContextE
libopenh264.so.8:_ZN7WelsDec27WelsTargetSliceConstructionEPNS_21TagWelsDecoderContextE
libopenh264.so.8:_ZN7WelsDec27g_kuiTotalZerosChromaTable0E
libopenh264.so.8:_ZN7WelsDec27g_kuiTotalZerosChromaTable1E
libopenh264.so.8:_ZN7WelsDec27g_kuiTotalZerosChromaTable2E
libopenh264.so.8:_ZN7WelsDec27g_kuiVlcTableMoreBitsCount0E
libopenh264.so.8:_ZN7WelsDec27g_kuiVlcTableMoreBitsCount1E
libopenh264.so.8:_ZN7WelsDec27g_kuiVlcTableMoreBitsCount2E
libopenh264.so.8:_ZN7WelsDec29DeblockingBsMarginalMBAvcbaseEPNS_19tagDeblockingFilterEPNS_10TagDqLayerEiii
libopenh264.so.8:_ZN7WelsDec29ParseIntraPredModeChromaCabacEPNS_21TagWelsDecoderContextEhRi
libopenh264.so.8:_ZN7WelsDec29WelsActualDecodeMbCavlcBSliceEPNS_21TagWelsDecoderContextE
libopenh264.so.8:_ZN7WelsDec29WelsActualDecodeMbCavlcISliceEPNS_21TagWelsDecoderContextE
libopenh264.so.8:_ZN7WelsDec29WelsActualDecodeMbCavlcPSliceEPNS_21TagWelsDecoderContextE
libopenh264.so.8:_ZN7WelsDec29WelsDecodeInitAccessUnitStartEPNS_21TagWelsDecoderContextEP13TagBufferInfo
libopenh264.so.8:_ZN7WelsDec29WelsMapNxNNeighToSampleNormalEPNS_16TagNeighborAvailEPi
libopenh264.so.8:_ZN7WelsDec29WelsMbInterSampleConstructionEPNS_21TagWelsDecoderContextEPNS_10TagDqLayerEPhS4_S4_ii
libopenh264.so.8:_ZN7WelsDec30ParseTransformSize8x8FlagCabacEPNS_21TagWelsDecoderContextEPNS_16TagNeighborAvailERb
libopenh264.so.8:_ZN7WelsDec30g_kuiTotalZerosBitNumChromaMapE
libopenh264.so.8:_ZN7WelsDec31ComputeColocatedTemporalScalingEPNS_21TagWelsDecoderContextE
libopenh264.so.8:_ZN7WelsDec31DeblockingAvailableNoInterlayerEPNS_10TagDqLayerEi
libopenh264.so.8:_ZN7WelsDec31WelsFillCacheConstrain0IntraNxNEPNS_16TagNeighborAvailEPhPaPNS_10TagDqLayerE
libopenh264.so.8:_ZN7WelsDec31WelsFillCacheConstrain1IntraNxNEPNS_16TagNeighborAvailEPhPaPNS_10TagDqLayerE
libopenh264.so.8:_ZN7WelsDec31WelsMap16x16NeighToSampleNormalEPNS_16TagNeighborAvailEPh
libopenh264.so.8:_ZN7WelsDec31g_kuiVlcTableNeedMoreBitsThreadE
libopenh264.so.8:_ZN7WelsDec32CheckAvailNalUnitsListContinuityEPNS_21TagWelsDecoderContextEii
libopenh264.so.8:_ZN7WelsDec32ForceResetParaSetStatusAndAUListEPNS_21TagWelsDecoderContextE
libopenh264.so.8:_ZN7WelsDec32WelsDecodeMbCabacBSliceBaseMode0EPNS_21TagWelsDecoderContextEPNS_16TagNeighborAvailERj
libopenh264.so.8:_ZN7WelsDec32WelsDecodeMbCabacISliceBaseMode0EPNS_21TagWelsDecoderContextERj
libopenh264.so.8:_ZN7WelsDec32WelsDecodeMbCabacPSliceBaseMode0EPNS_21TagWelsDecoderContextEPNS_16TagNeighborAvailERj
libopenh264.so.8:_ZN7WelsDec33WelsMapNxNNeighToSampleConstrain1EPNS_16TagNeighborAvailEPi
libopenh264.so.8:_ZN7WelsDec33WelsMbIntraPredictionConstructionEPNS_21TagWelsDecoderContextEPNS_10TagDqLayerEb
libopenh264.so.8:_ZN7WelsDec34g_kuiVlcTrailingOneTotalCoeffTableE
libopenh264.so.8:_ZN7WelsDec35DeblockingBSliceBsMarginalMBAvcbaseEPNS_19tagDeblockingFilterEPNS_10TagDqLayerEiii
libopenh264.so.8:_ZN7WelsDec35WelsMap16x16NeighToSampleConstrain1EPNS_16TagNeighborAvailEPh
libopenh264.so.8:_ZN7WelsDec39UpdateDecoderStatisticsForActiveParasetEP25TagVideoDecoderStatisticsPNS_6TagSpsEPNS_6TagPpsE
libopenh264.so.8:_ZN7WelsDec6BaseMCEPNS_21TagWelsDecoderContextEPNS_14TagMCRefMemberERKiRKaiiP9TagMcFunciiPs
libopenh264.so.8:_ZN7WelsDec6PredMvEPA30_A2_sPA30_aiiiaPs
libopenh264.so.8:_ZN7WelsDec7InitFmoEPNS_6TagFmoEPNS_6TagPpsEiiPN10WelsCommon12CMemoryAlignE
libopenh264.so.8:_ZN7WelsDec8ParsePpsEPNS_21TagWelsDecoderContextEPNS_6TagPpsEPN10WelsCommon15TagBitStringAuxEPhi
libopenh264.so.8:_ZN7WelsDec8ParseSeiEPvPN10WelsCommon15TagBitStringAuxE
libopenh264.so.8:_ZN7WelsDec8ParseSpsEPNS_21TagWelsDecoderContextEPN10WelsCommon15TagBitStringAuxEPiS5_Phi
libopenh264.so.8:_ZN7WelsDec8ParseVuiEPNS_21TagWelsDecoderContextEPNS_6TagSpsEPN10WelsCommon15TagBitStringAuxE
libopenh264.so.8:_ZN7WelsDec9FmoNextMbEPNS_6TagFmoEi
libopenh264.so.8:_ZN7WelsDec9RBSP2EBSPEPhS0_i
libopenh264.so.8:_ZN7WelsDec9RecChromaEiPNS_21TagWelsDecoderContextEPsPNS_10TagDqLayerE
libopenh264.so.8:_ZN7WelsDec9RecI4x4MbEiPNS_21TagWelsDecoderContextEPsPNS_10TagDqLayerE
libopenh264.so.8:_ZN7WelsDec9RecI8x8MbEiPNS_21TagWelsDecoderContextEPsPNS_10TagDqLayerE
libopenh264.so.8:_ZN7WelsEnc10PredSkipMvEPNS_10TagMbCacheEPNS_9SMVUnitXYE
libopenh264.so.8:_ZN7WelsEnc10PredictSadEPaPiiS1_
libopenh264.so.8:_ZN7WelsEnc10RcInitVGopEPNS_13TagWelsEncCtxE
libopenh264.so.8:_ZN7WelsEnc10WelsMdI4x4EPNS_13TagWelsEncCtxEPNS_9TagWelsMDEPNS_5TagMBEPNS_10TagMbCacheE
libopenh264.so.8:_ZN7WelsEnc10WelsMdP4x4EPNS_22TagWelsFuncPointerListEPNS_10TagDqLayerEPNS_9TagWelsMDEPNS_8TagSliceEi
libopenh264.so.8:_ZN7WelsEnc10WelsMdP4x8EPNS_22TagWelsFuncPointerListEPNS_10TagDqLayerEPNS_9TagWelsMDEPNS_8TagSliceEi
libopenh264.so.8:_ZN7WelsEnc10WelsMdP8x4EPNS_22TagWelsFuncPointerListEPNS_10TagDqLayerEPNS_9TagWelsMDEPNS_8TagSliceEi
libopenh264.so.8:_ZN7WelsEnc10WelsMdP8x8EPNS_22TagWelsFuncPointerListEPNS_10TagDqLayerEPNS_9TagWelsMDEPNS_8TagSliceE
libopenh264.so.8:_ZN7WelsEnc10WelsMemcpyEPvPKvj
libopenh264.so.8:_ZN7WelsEnc10WelsMemsetEPvij
libopenh264.so.8:_ZN7WelsEnc11FreeDqLayerERPNS_10TagDqLayerEPN10WelsCommon12CMemoryAlignE
libopenh264.so.8:_ZN7WelsEnc11FreeMbCacheEPNS_10TagMbCacheEPN10WelsCommon12CMemoryAlignE
libopenh264.so.8:_ZN7WelsEnc11FreePictureEPN10WelsCommon12CMemoryAlignEPPNS_10TagPictureE
libopenh264.so.8:_ZN7WelsEnc11FreeRefListERPNS_10TagRefListEPN10WelsCommon12CMemoryAlignEi
libopenh264.so.8:_ZN7WelsEnc11InitMbListDEPPNS_13TagWelsEncCtxE
libopenh264.so.8:_ZN7WelsEnc11MvdCostInitEPti
libopenh264.so.8:_ZN7WelsEnc11SetMeMethodEhRPFvPNS_22TagWelsFuncPointerListEPNS_9TagWelsMEEPNS_8TagSliceEiiE
libopenh264.so.8:_ZN7WelsEnc11WelsDctT4_cEPsPhiS1_i
libopenh264.so.8:_ZN7WelsEnc11WelsInitPpsEPNS_10TagWelsPPSEPNS_10TagWelsSPSEPNS_12TagSubsetSpsEjbbb
libopenh264.so.8:_ZN7WelsEnc11WelsInitSpsEPNS_10TagWelsSPSEP19SSpatialLayerConfigPNS_14TagDLayerParamEjijbbib
libopenh264.so.8:_ZN7WelsEnc11WelsLoadNalEPNS_20TagWelsEncoderOutputEii
libopenh264.so.8:_ZN7WelsEnc11WelsMarkPicEPNS_13TagWelsEncCtxE
libopenh264.so.8:_ZN7WelsEnc11WelsMdP16x8EPNS_22TagWelsFuncPointerListEPNS_10TagDqLayerEPNS_9TagWelsMDEPNS_8TagSliceE
libopenh264.so.8:_ZN7WelsEnc11WelsMdP8x16EPNS_22TagWelsFuncPointerListEPNS_10TagDqLayerEPNS_9TagWelsMDEPNS_8TagSliceE
libopenh264.so.8:_ZN7WelsEnc11g_kiQuantMFE
libopenh264.so.8:_ZN7WelsEnc12AllocPictureEPN10WelsCommon12CMemoryAlignEiibi
libopenh264.so.8:_ZN7WelsEnc12DumpRecFrameEPNS_10TagPictureEPKcabPNS_10TagDqLayerE
libopenh264.so.8:_ZN7WelsEnc12QStepx16ByQpE
libopenh264.so.8:_ZN7WelsEnc12TryModeMergeEPNS_10TagMbCacheEPNS_9TagWelsMDEPNS_5TagMBE
libopenh264.so.8:_ZN7WelsEnc12UpdateMbMv_cEPNS_9SMVUnitXYES0_
libopenh264.so.8:_ZN7WelsEnc12WelsEncRecUVEPNS_22TagWelsFuncPointerListEPNS_5TagMBEPNS_10TagMbCacheEPsi
libopenh264.so.8:_ZN7WelsEnc12WelsMdI16x16EPNS_22TagWelsFuncPointerListEPNS_10TagDqLayerEPNS_10TagMbCacheEi
libopenh264.so.8:_ZN7WelsEnc12WelsMdP16x16EPNS_22TagWelsFuncPointerListEPNS_10TagDqLayerEPNS_9TagWelsMDEPNS_8TagSliceEPNS_5TagMBE
libopenh264.so.8:_ZN7WelsEnc12WelsRecPskipEPNS_10TagDqLayerEPNS_22TagWelsFuncPointerListEPNS_5TagMBEPNS_10TagMbCacheE
libopenh264.so.8:_ZN7WelsEnc12WelsWriteVUIEPNS_10TagWelsSPSEPN10WelsCommon15TagBitStringAuxE
libopenh264.so.8:_ZN7WelsEnc12WritePaddingEPNS_13TagWelsEncCtxEiRi
libopenh264.so.8:_ZN7WelsEnc12WriteSliceBsEPNS_13TagWelsEncCtxEPNS_14TagWelsSliceBsEiRi
libopenh264.so.8:_ZN7WelsEnc13CWelsBaseTaskD0Ev
libopenh264.so.8:_ZN7WelsEnc13CWelsBaseTaskD1Ev
libopenh264.so.8:_ZN7WelsEnc13CWelsBaseTaskD2Ev
libopenh264.so.8:_ZN7WelsEnc13FreeMemorySvcEPPNS_13TagWelsEncCtxE
libopenh264.so.8:_ZN7WelsEnc13FreeScaledPicEPNS_14Scaled_PictureEPN10WelsCommon12CMemoryAlignE
libopenh264.so.8:_ZN7WelsEnc13GetBsPosCabacEPNS_8TagSliceE
libopenh264.so.8:_ZN7WelsEnc13GetBsPosCavlcEPNS_8TagSliceE
libopenh264.so.8:_ZN7WelsEnc13GetMvMvdRangeEPNS_21TagWelsSvcCodingParamERiS2_
libopenh264.so.8:_ZN7WelsEnc13InitBitStreamEPNS_13TagWelsEncCtxE
libopenh264.so.8:_ZN7WelsEnc13InitCoeffFuncEPNS_22TagWelsFuncPointerListEji
libopenh264.so.8:_ZN7WelsEnc13InitSliceListERPNS_8TagSliceEPN10WelsCommon15TagBitStringAuxEiibPNS3_12CMemoryAlignE
libopenh264.so.8:_ZN7WelsEnc13ResetLtrStateEPNS_11TagLTRStateE
libopenh264.so.8:_ZN7WelsEnc13SvcMdSCDMbEncEPNS_13TagWelsEncCtxEPNS_9TagWelsMDEPNS_5TagMBEPNS_10TagMbCacheEPNS_8TagSliceEbbPNS_9SMVUnitXYENS_10ESkipModesE
libopenh264.so.8:_ZN7WelsEnc13WelsCabacInitEPv
libopenh264.so.8:_ZN7WelsEnc13WelsEncInterYEPNS_22TagWelsFuncPointerListEPNS_5TagMBEPNS_10TagMbCacheE
libopenh264.so.8:_ZN7WelsEnc13WelsEncodeNalEPNS_13TagWelsNalRawEPviS2_Pi
libopenh264.so.8:_ZN7WelsEnc13WelsMdInterMbEPNS_13TagWelsEncCtxEPNS_9TagWelsMDEPNS_8TagSliceEPNS_5TagMBEPNS_10TagMbCacheE
libopenh264.so.8:_ZN7WelsEnc13WelsMdIntraMbEPNS_13TagWelsEncCtxEPNS_9TagWelsMDEPNS_5TagMBEPNS_10TagMbCacheE
libopenh264.so.8:_ZN7WelsEnc13WelsScan4x4DcEPsS0_
libopenh264.so.8:_ZN7WelsEnc13WelsTryPYskipEPNS_13TagWelsEncCtxEPNS_5TagMBEPNS_10TagMbCacheE
libopenh264.so.8:_ZN7WelsEnc13WelsUnloadNalEPNS_20TagWelsEncoderOutputE
libopenh264.so.8:_ZN7WelsEnc14DeblockingInitEPNS_17tagDeblockingFuncEi
libopenh264.so.8:_ZN7WelsEnc14ForceCodingIDREPNS_13TagWelsEncCtxEi
libopenh264.so.8:_ZN7WelsEnc14FrameBsReallocEPNS_13TagWelsEncCtxEP12SFrameBSInfoP12SLayerBSInfoi
libopenh264.so.8:_ZN7WelsEnc14PredictSadSkipEPaPbPiiS2_
libopenh264.so.8:_ZN7WelsEnc14RcInitTlWeightEPNS_13TagWelsEncCtxE
libopenh264.so.8:_ZN7WelsEnc14UpdateFrameNumEPNS_13TagWelsEncCtxEi
libopenh264.so.8:_ZN7WelsEnc14WelsCodePSliceEPNS_13TagWelsEncCtxEPNS_8TagSliceE
libopenh264.so.8:_ZN7WelsEnc14WelsInitMeFuncEPNS_22TagWelsFuncPointerListEjb
libopenh264.so.8:_ZN7WelsEnc14WelsMdI4x4FastEPNS_13TagWelsEncCtxEPNS_9TagWelsMDEPNS_5TagMBEPNS_10TagMbCacheE
libopenh264.so.8:_ZN7WelsEnc14WelsMdPSkipEncEPNS_13TagWelsEncCtxEPNS_9TagWelsMDEPNS_5TagMBEPNS_10TagMbCacheE
libopenh264.so.8:_ZN7WelsEnc14WelsQuant4x4_cEPsPKsS2_
libopenh264.so.8:_ZN7WelsEnc14WelsTryPUVskipEPNS_13TagWelsEncCtxEPNS_5TagMBEPNS_10TagMbCacheEi
libopenh264.so.8:_ZN7WelsEnc15AdjustBaseLayerEPNS_13TagWelsEncCtxE
libopenh264.so.8:_ZN7WelsEnc15CWelsPreProcess10InitPixMapEPKNS_10TagPictureEP7SPixMap
libopenh264.so.8:_ZN7WelsEnc15CWelsPreProcess12SetRefMbTypeEPNS_13TagWelsEncCtxEPPji
libopenh264.so.8:_ZN7WelsEnc15CWelsPreProcess13GetBestRefPicE10EUsageTypebN10WelsCommon14EWelsSliceTypeEii
libopenh264.so.8:_ZN7WelsEnc15CWelsPreProcess13GetBestRefPicEii
libopenh264.so.8:_ZN7WelsEnc15CWelsPreProcess13UpdateSrcListEPNS_10TagPictureEiPS2_j
libopenh264.so.8:_ZN7WelsEnc15CWelsPreProcess14VaaCalculationEPNS_15TagVAAFrameInfoEPNS_10TagPictureES4_bbb
libopenh264.so.8:_ZN7WelsEnc15CWelsPreProcess15GetRefFrameInfoEibRPNS_10TagPictureE
libopenh264.so.8:_ZN7WelsEnc15CWelsPreProcess16CreatePreProcessEPNS_13TagWelsEncCtxE
libopenh264.so.8:_ZN7WelsEnc15CWelsPreProcess17AnalyzeSpatialPicEPNS_13TagWelsEncCtxEi
libopenh264.so.8:_ZN7WelsEnc15CWelsPreProcess17ColorspaceConvertEPNS_21TagWelsSvcCodingParamEPNS_10TagPictureEPK16Source_Picture_sii
libopenh264.so.8:_ZN7WelsEnc15CWelsPreProcess17DownsamplePaddingEPNS_10TagPictureES2_iiiiiib
libopenh264.so.8:_ZN7WelsEnc15CWelsPreProcess17GetCurPicPositionEi
libopenh264.so.8:_ZN7WelsEnc15CWelsPreProcess18BilateralDenoisingEPNS_10TagPictureEii
libopenh264.so.8:_ZN7WelsEnc15CWelsPreProcess18GetSceneChangeFlagE15ESceneChangeIdc
libopenh264.so.8:_ZN7WelsEnc15CWelsPreProcess19BackgroundDetectionEPNS_15TagVAAFrameInfoEPNS_10TagPictureES4_b
libopenh264.so.8:_ZN7WelsEnc15CWelsPreProcess19BuildSpatialPicListEPNS_13TagWelsEncCtxEPK16Source_Picture_s
libopenh264.so.8:_ZN7WelsEnc15CWelsPreProcess19FreeSpatialPicturesEPNS_13TagWelsEncCtxE
libopenh264.so.8:_ZN7WelsEnc15CWelsPreProcess19WelsPreprocessResetEPNS_13TagWelsEncCtxEii
libopenh264.so.8:_ZN7WelsEnc15CWelsPreProcess20AllocSpatialPicturesEPNS_13TagWelsEncCtxEPNS_21TagWelsSvcCodingParamE
libopenh264.so.8:_ZN7WelsEnc15CWelsPreProcess20WelsPreprocessCreateEv
libopenh264.so.8:_ZN7WelsEnc15CWelsPreProcess21SingleLayerPreprocessEPNS_13TagWelsEncCtxEPK16Source_Picture_sPNS_14Scaled_PictureE
libopenh264.so.8:_ZN7WelsEnc15CWelsPreProcess21UpdateSpatialPicturesEPNS_13TagWelsEncCtxEPNS_21TagWelsSvcCodingParamEai
libopenh264.so.8:_ZN7WelsEnc15CWelsPreProcess21WelsMoveMemoryWrapperEPNS_21TagWelsSvcCodingParamEPNS_10TagPictureEPK16Source_Picture_sii
libopenh264.so.8:_ZN7WelsEnc15CWelsPreProcess21WelsPreprocessDestroyEv
libopenh264.so.8:_ZN7WelsEnc15CWelsPreProcess23InitLastSpatialPicturesEPNS_13TagWelsEncCtxE
libopenh264.so.8:_ZN7WelsEnc15CWelsPreProcess23UpdateBlockIdcForScreenEPhPKNS_10TagPictureES4_
libopenh264.so.8:_ZN7WelsEnc15CWelsPreProcess24AdaptiveQuantCalculationEPNS_15TagVAAFrameInfoEPNS_10TagPictureES4_
libopenh264.so.8:_ZN7WelsEnc15CWelsPreProcess24AnalyzePictureComplexityEPNS_13TagWelsEncCtxEPNS_10TagPictureES4_ib
libopenh264.so.8:_ZN7WelsEnc15CWelsPreProcess27WelsExchangeSpatialPicturesEPPNS_10TagPictureES3_
libopenh264.so.8:_ZN7WelsEnc15CWelsPreProcess46UpdateSrcListLosslessScreenRefSelectionWithLtrEPNS_10TagPictureEiiPS2_
libopenh264.so.8:_ZN7WelsEnc15CWelsPreProcess7PaddingEPhS1_S1_iiiiii
libopenh264.so.8:_ZN7WelsEnc15CWelsPreProcessC2EPNS_13TagWelsEncCtxE
libopenh264.so.8:_ZN7WelsEnc15CWelsPreProcessD0Ev
libopenh264.so.8:_ZN7WelsEnc15CWelsPreProcessD1Ev
libopenh264.so.8:_ZN7WelsEnc15CWelsPreProcessD2Ev
libopenh264.so.8:_ZN7WelsEnc15CalcMvdCostx8_cEPtiS0_t
libopenh264.so.8:_ZN7WelsEnc15CheckChromaCostEPNS_13TagWelsEncCtxEPNS_9TagWelsMDEPNS_10TagMbCacheEi
libopenh264.so.8:_ZN7WelsEnc15DecideFrameTypeEPNS_13TagWelsEncCtxEaib
libopenh264.so.8:_ZN7WelsEnc15DynSliceReallocEPNS_13TagWelsEncCtxEP12SFrameBSInfoP12SLayerBSInfo
libopenh264.so.8:_ZN7WelsEnc15FindExistingPpsEPNS_10TagWelsSPSEPNS_12TagSubsetSpsEbibiPNS_10TagWelsPPSE
libopenh264.so.8:_ZN7WelsEnc15FindExistingSpsEPNS_21TagWelsSvcCodingParamEbiiiPNS_10TagWelsSPSEPNS_12TagSubsetSpsEb
libopenh264.so.8:_ZN7WelsEnc15FreeSliceBufferERPNS_8TagSliceEiPN10WelsCommon12CMemoryAlignEPKc
libopenh264.so.8:_ZN7WelsEnc15IWelsTaskManage16CreateTaskManageEPNS_13TagWelsEncCtxEib
libopenh264.so.8:_ZN7WelsEnc15InitFrameCodingEPNS_13TagWelsEncCtxE15EVideoFrameTypei
libopenh264.so.8:_ZN7WelsEnc15JudgeScrollSkipEPNS_13TagWelsEncCtxEPNS_5TagMBEPNS_10TagMbCacheEPNS_9TagWelsMDE
libopenh264.so.8:_ZN7WelsEnc15JudgeStaticSkipEPNS_13TagWelsEncCtxEPNS_5TagMBEPNS_10TagMbCacheEPNS_9TagWelsMDE
libopenh264.so.8:_ZN7WelsEnc15ParamValidationEP13TagLogContextPNS_21TagWelsSvcCodingParamE
libopenh264.so.8:_ZN7WelsEnc15PredInter16x8MvEPNS_10TagMbCacheEiaPNS_9SMVUnitXYE
libopenh264.so.8:_ZN7WelsEnc15PredInter8x16MvEPNS_10TagMbCacheEiaPNS_9SMVUnitXYE
libopenh264.so.8:_ZN7WelsEnc15RcCalculateMbQpEPNS_13TagWelsEncCtxEPNS_8TagSliceEPNS_5TagMBE
libopenh264.so.8:_ZN7WelsEnc15RcGomTargetBitsEPNS_13TagWelsEncCtxEPNS_8TagSliceE
libopenh264.so.8:_ZN7WelsEnc15UpdateFMESwitchEPNS_10TagDqLayerE
libopenh264.so.8:_ZN7WelsEnc15WelsAdjustLevelEP19SSpatialLayerConfigPKN10WelsCommon14TagLevelLimitsE
libopenh264.so.8:_ZN7WelsEnc15WelsDctFourT4_cEPsPhiS1_i
libopenh264.so.8:_ZN7WelsEnc15WelsEncRecI4x4YEPNS_13TagWelsEncCtxEPNS_5TagMBEPNS_10TagMbCacheEh
libopenh264.so.8:_ZN7WelsEnc15WelsIDctT4Rec_cEPhiS0_iPs
libopenh264.so.8:_ZN7WelsEnc15WelsISliceMdEncEPNS_13TagWelsEncCtxEPNS_8TagSliceE
libopenh264.so.8:_ZN7WelsEnc15WelsInitBGDFuncEPNS_22TagWelsFuncPointerListEb
libopenh264.so.8:_ZN7WelsEnc15WelsMdInterInitEPNS_13TagWelsEncCtxEPNS_8TagSliceEPNS_5TagMBEi
libopenh264.so.8:_ZN7WelsEnc15WelsMdIntraInitEPNS_13TagWelsEncCtxEPNS_5TagMBEPNS_10TagMbCacheEi
libopenh264.so.8:_ZN7WelsEnc15WelsPSliceMdEncEPNS_13TagWelsEncCtxEPNS_8TagSliceEb
libopenh264.so.8:_ZN7WelsEnc15WelsRcMbInitGomEPNS_13TagWelsEncCtxEPNS_5TagMBEPNS_8TagSliceE
libopenh264.so.8:_ZN7WelsEnc15WelsRcMbInitSccEPNS_13TagWelsEncCtxEPNS_5TagMBEPNS_8TagSliceE
libopenh264.so.8:_ZN7WelsEnc15WelsScan4x4Ac_cEPsS0_
libopenh264.so.8:_ZN7WelsEnc15WelsWriteOnePPSEPNS_13TagWelsEncCtxEiRi
libopenh264.so.8:_ZN7WelsEnc15WelsWriteOneSPSEPNS_13TagWelsEncCtxEiRi
libopenh264.so.8:_ZN7WelsEnc15WelsWriteSpsNalEPNS_10TagWelsSPSEPN10WelsCommon15TagBitStringAuxEPi
libopenh264.so.8:_ZN7WelsEnc15g_kiQpCostTableE
libopenh264.so.8:_ZN7WelsEnc16AddSliceBoundaryEPNS_13TagWelsEncCtxEPNS_8TagSliceEPNS_14SlicepEncCtx_sEPNS_5TagMBEii
libopenh264.so.8:_ZN7WelsEnc16ClearFrameBsInfoEPNS_13TagWelsEncCtxEP12SFrameBSInfo
libopenh264.so.8:_ZN7WelsEnc16FeatureSearchOneERNS_18TagFeatureSearchInEijPNS_19TagFeatureSearchOutE
libopenh264.so.8:_ZN7WelsEnc16FreeSliceInLayerEPNS_10TagDqLayerEPN10WelsCommon12CMemoryAlignE
libopenh264.so.8:_ZN7WelsEnc16GetSubSequenceIdEPNS_13TagWelsEncCtxE15EVideoFrameType
libopenh264.so.8:_ZN7WelsEnc16GetTemporalLevelEPNS_14TagDLayerParamEii
libopenh264.so.8:_ZN7WelsEnc16InitSliceInLayerEPNS_13TagWelsEncCtxEPNS_10TagDqLayerEiPN10WelsCommon12CMemoryAlignE
libopenh264.so.8:_ZN7WelsEnc16InitSlicePEncCtxEPNS_10TagDqLayerEPN10WelsCommon12CMemoryAlignEbiiP14SSliceArgumentPv
libopenh264.so.8:_ZN7WelsEnc16InitSliceSegmentEPNS_10TagDqLayerEPN10WelsCommon12CMemoryAlignEP14SSliceArgumentii
libopenh264.so.8:_ZN7WelsEnc16LineFullSearch_cEPNS_22TagWelsFuncPointerListEPNS_9TagWelsMEEPtiissb
libopenh264.so.8:_ZN7WelsEnc16LoadBackFrameNumEPNS_13TagWelsEncCtxEi
libopenh264.so.8:_ZN7WelsEnc16PredIntra4x4ModeEPai
libopenh264.so.8:_ZN7WelsEnc16RcCalculateGomQpEPNS_13TagWelsEncCtxEPNS_8TagSliceEPNS_5TagMBE
libopenh264.so.8:_ZN7WelsEnc16RcCalculateIdrQpEPNS_13TagWelsEncCtxE
libopenh264.so.8:_ZN7WelsEnc16RcTraceFrameBitsEPNS_13TagWelsEncCtxExi
libopenh264.so.8:_ZN7WelsEnc16RequestMemorySvcEPPNS_13TagWelsEncCtxEPNS_22TagExistingParasetListE
libopenh264.so.8:_ZN7WelsEnc16UpdateMbNeighborEPNS_10TagDqLayerEPNS_5TagMBEit
libopenh264.so.8:_ZN7WelsEnc16WelsBuildRefListEPNS_13TagWelsEncCtxEii
libopenh264.so.8:_ZN7WelsEnc16WelsCodeOneSliceEPNS_13TagWelsEncCtxEPNS_8TagSliceEi
libopenh264.so.8:_ZN7WelsEnc16WelsDequant4x4_cEPsPKt
libopenh264.so.8:_ZN7WelsEnc16WelsMbToSliceIdcEPNS_10TagDqLayerEi
libopenh264.so.8:_ZN7WelsEnc16WelsMoveMemory_cEPhS0_S0_iiS0_S0_S0_iiii
libopenh264.so.8:_ZN7WelsEnc16WelsQuant4x4Dc_cEPsss
libopenh264.so.8:_ZN7WelsEnc16WelsRcFreeMemoryEPNS_13TagWelsEncCtxE
libopenh264.so.8:_ZN7WelsEnc16WelsRcInitModuleEPNS_13TagWelsEncCtxE8RC_MODES
libopenh264.so.8:_ZN7WelsEnc16WelsResetRefListEPNS_13TagWelsEncCtxE
libopenh264.so.8:_ZN7WelsEnc16WelsSetMemZero_cEPvi
libopenh264.so.8:_ZN7WelsEnc16WriteSavcParasetEPNS_13TagWelsEncCtxEiRP12SLayerBSInfoRiS5_
libopenh264.so.8:_ZN7WelsEnc16WriteSsvcParasetEPNS_13TagWelsEncCtxEiRP12SLayerBSInfoRiS5_
libopenh264.so.8:_ZN7WelsEnc16g_kiQuantInterFFE
libopenh264.so.8:_ZN7WelsEnc17AcquireLayersNalsEPPNS_13TagWelsEncCtxEPNS_21TagWelsSvcCodingParamEPiS5_
libopenh264.so.8:_ZN7WelsEnc17AllocStrideTablesEPPNS_13TagWelsEncCtxEi
libopenh264.so.8:_ZN7WelsEnc17CalculateSatdCostEPFiPhiS0_iEPNS_9TagWelsMEEii
libopenh264.so.8:_ZN7WelsEnc17CheckLevelSettingEP13TagLogContextPNS_21TagWelsSvcCodingParamEi9ELevelIdc
libopenh264.so.8:_ZN7WelsEnc17DeblockingInterMbEPNS_17tagDeblockingFuncEPNS_5TagMBEPNS_19TagDeblockingFilterEPA4_A4_h
libopenh264.so.8:_ZN7WelsEnc17DeblockingIntraMbEPNS_17tagDeblockingFuncEPNS_5TagMBEPNS_19TagDeblockingFilterE
libopenh264.so.8:_ZN7WelsEnc17ExtendLayerBufferEPNS_13TagWelsEncCtxEii
libopenh264.so.8:_ZN7WelsEnc17GetTimestampForRcExxf
libopenh264.so.8:_ZN7WelsEnc17InitSliceBsBufferEPNS_8TagSliceEPN10WelsCommon15TagBitStringAuxEbiPNS2_12CMemoryAlignE
libopenh264.so.8:_ZN7WelsEnc17InitSliceSettingsEP13TagLogContextPNS_21TagWelsSvcCodingParamEiPs
libopenh264.so.8:_ZN7WelsEnc17MeRefineFracPixelEPNS_13TagWelsEncCtxEPhPNS_9TagWelsMEEPNS_18TagMeRefinePointerEii
libopenh264.so.8:_ZN7WelsEnc17NeedDynamicAdjustEPPNS_8TagSliceEi
libopenh264.so.8:_ZN7WelsEnc17RcFreeLayerMemoryEPNS_9TagWelsRcEPN10WelsCommon12CMemoryAlignE
libopenh264.so.8:_ZN7WelsEnc17RcInitLayerMemoryEPNS_9TagWelsRcEPN10WelsCommon12CMemoryAlignEi
libopenh264.so.8:_ZN7WelsEnc17ReleaseMtResourceEPPNS_13TagWelsEncCtxE
libopenh264.so.8:_ZN7WelsEnc17RequestMtResourceEPPNS_13TagWelsEncCtxEPNS_21TagWelsSvcCodingParamEiib
libopenh264.so.8:_ZN7WelsEnc17WelsBlockFuncInitEPPFvPaEi
libopenh264.so.8:_ZN7WelsEnc17WelsDiamondSearchEPNS_22TagWelsFuncPointerListEPNS_9TagWelsMEEPNS_8TagSliceEii
libopenh264.so.8:_ZN7WelsEnc17WelsEncRecI16x16YEPNS_13TagWelsEncCtxEPNS_5TagMBEPNS_10TagMbCacheE
libopenh264.so.8:_ZN7WelsEnc17WelsIDctT4RecOnMbEPhiS0_iPsPFvS0_iS0_iS1_E
libopenh264.so.8:_ZN7WelsEnc17WelsInitScaledPicEPNS_21TagWelsSvcCodingParamEPNS_14Scaled_PictureEPN10WelsCommon12CMemoryAlignE
libopenh264.so.8:_ZN7WelsEnc17WelsInitSubsetSpsEPNS_12TagSubsetSpsEP19SSpatialLayerConfigPNS_14TagDLayerParamEjijbbi
libopenh264.so.8:_ZN7WelsEnc17WelsInterMbEncodeEPNS_13TagWelsEncCtxEPNS_8TagSliceEPNS_5TagMBE
libopenh264.so.8:_ZN7WelsEnc17WelsMarkPicScreenEPNS_13TagWelsEncCtxE
libopenh264.so.8:_ZN7WelsEnc17WelsMdInterEncodeEPNS_13TagWelsEncCtxEPNS_8TagSliceEPNS_5TagMBEPNS_10TagMbCacheE
libopenh264.so.8:_ZN7WelsEnc17WelsMdInterMbLoopEPNS_13TagWelsEncCtxEPNS_8TagSliceEPvi
libopenh264.so.8:_ZN7WelsEnc17WelsMdIntraChromaEPNS_22TagWelsFuncPointerListEPNS_10TagDqLayerEPNS_10TagMbCacheEi
libopenh264.so.8:_ZN7WelsEnc17WelsScan4x4DcAc_cEPsS0_
libopenh264.so.8:_ZN7WelsEnc17WelsUpdateRefListEPNS_13TagWelsEncCtxE
libopenh264.so.8:_ZN7WelsEnc17g_kiMapModeI16x16E
libopenh264.so.8:_ZN7WelsEnc17g_kuiVlcRunBeforeE
libopenh264.so.8:_ZN7WelsEnc18AdjustEnhanceLayerEPNS_13TagWelsEncCtxEi
libopenh264.so.8:_ZN7WelsEnc18CWelsTaskManageOne12ExecuteTasksENS_13CWelsBaseTask9ETaskTypeE
libopenh264.so.8:_ZN7WelsEnc18CWelsTaskManageOne4InitEPNS_13TagWelsEncCtxE
libopenh264.so.8:_ZN7WelsEnc18CheckDirectionalMvEPFiPhiS0_iEPNS_9TagWelsMEENS_9SMVUnitXYES5_iiRi
libopenh264.so.8:_ZN7WelsEnc18DeblockingBSCalc_cEPNS_22TagWelsFuncPointerListEPNS_5TagMBEPA4_A4_hjiii
libopenh264.so.8:_ZN7WelsEnc18FilteringEdgeLumaHEPNS_17tagDeblockingFuncEPNS_19TagDeblockingFilterEPhiS4_
libopenh264.so.8:_ZN7WelsEnc18FilteringEdgeLumaVEPNS_17tagDeblockingFuncEPNS_19TagDeblockingFilterEPhiS4_
libopenh264.so.8:_ZN7WelsEnc18GetCurrentSliceNumEPKNS_10TagDqLayerE
libopenh264.so.8:_ZN7WelsEnc18GetInitialSliceNumEP14SSliceArgument
libopenh264.so.8:_ZN7WelsEnc18JudgeNeedOfScalingEPNS_21TagWelsSvcCodingParamEPNS_14Scaled_PictureE
libopenh264.so.8:_ZN7WelsEnc18ParamValidationExtEP13TagLogContextPNS_21TagWelsSvcCodingParamE
libopenh264.so.8:_ZN7WelsEnc18PrepareEncodeFrameEPNS_13TagWelsEncCtxERP12SLayerBSInfoiRaRiS6_S6_x
libopenh264.so.8:_ZN7WelsEnc18RcDecideTargetBitsEPNS_13TagWelsEncCtxE
libopenh264.so.8:_ZN7WelsEnc18RcUpdateBitrateFpsEPNS_13TagWelsEncCtxE
libopenh264.so.8:_ZN7WelsEnc18ReallocSliceBufferEPNS_13TagWelsEncCtxE
libopenh264.so.8:_ZN7WelsEnc18SetFeatureSearchInEPNS_22TagWelsFuncPointerListERKNS_9TagWelsMEEPKNS_8TagSliceEPNS_28TagScreenBlockFeatureStorageEiiPNS_18TagFeatureSearchInE
libopenh264.so.8:_ZN7WelsEnc18SetScrollingMvToMdEPNS_15TagVAAFrameInfoEPNS_9TagWelsMDE
libopenh264.so.8:_ZN7WelsEnc18StashMBStatusCabacEPNS_22TagDynamicSlicingStackEPNS_8TagSliceEi
libopenh264.so.8:_ZN7WelsEnc18StashMBStatusCavlcEPNS_22TagDynamicSlicingStackEPNS_8TagSliceEi
libopenh264.so.8:_ZN7WelsEnc18UninitSlicePEncCtxEPNS_10TagDqLayerEPN10WelsCommon12CMemoryAlignE
libopenh264.so.8:_ZN7WelsEnc18UninitSliceSegmentEPNS_10TagDqLayerEPN10WelsCommon12CMemoryAlignE
libopenh264.so.8:_ZN7WelsEnc18WelsHadamardT4Dc_cEPsS0_
libopenh264.so.8:_ZN7WelsEnc18WelsIChromaPredH_cEPhS0_i
libopenh264.so.8:_ZN7WelsEnc18WelsIChromaPredV_cEPhS0_i
libopenh264.so.8:_ZN7WelsEnc18WelsIHadamard4x4DcEPs
libopenh264.so.8:_ZN7WelsEnc18WelsInitEncoderExtEPPNS_13TagWelsEncCtxEPNS_21TagWelsSvcCodingParamEP13TagLogContextPNS_22TagExistingParasetListE
libopenh264.so.8:_ZN7WelsEnc18WelsInitSliceCabacEPNS_13TagWelsEncCtxEPNS_8TagSliceE
libopenh264.so.8:_ZN7WelsEnc18WelsQuantFour4x4_cEPsPKsS2_
libopenh264.so.8:_ZN7WelsEnc18WelsWritePpsSyntaxEPNS_10TagWelsPPSEPN10WelsCommon15TagBitStringAuxEPNS_25IWelsParametersetStrategyE
libopenh264.so.8:_ZN7WelsEnc18WelsWriteSpsSyntaxEPNS_10TagWelsSPSEPN10WelsCommon15TagBitStringAuxEPib
libopenh264.so.8:_ZN7WelsEnc18WriteRefPicMarkingEPN10WelsCommon15TagBitStringAuxEPNS_14TagSliceHeaderEPNS0_19TagNalUnitHeaderExtE
libopenh264.so.8:_ZN7WelsEnc18g_kuiEncNcMapTableE
libopenh264.so.8:_ZN7WelsEnc18g_kuiSmb4AddrIn256E
libopenh264.so.8:_ZN7WelsEnc18g_kuiVlcCoeffTokenE
libopenh264.so.8:_ZN7WelsEnc18g_kuiVlcTotalZerosE
libopenh264.so.8:_ZN7WelsEnc19AllocMbCacheAlignedEPNS_10TagMbCacheEPN10WelsCommon12CMemoryAlignE
libopenh264.so.8:_ZN7WelsEnc19CWelsH264SVCEncoder10InitializeEPK15TagEncParamBase
libopenh264.so.8:_ZN7WelsEnc19CWelsH264SVCEncoder11EncodeFrameEPK16Source_Picture_sP12SFrameBSInfo
libopenh264.so.8:_ZN7WelsEnc19CWelsH264SVCEncoder11InitEncoderEv
libopenh264.so.8:_ZN7WelsEnc19CWelsH264SVCEncoder12UninitializeEv
libopenh264.so.8:_ZN7WelsEnc19CWelsH264SVCEncoder13InitializeExtEPK14TagEncParamExt
libopenh264.so.8:_ZN7WelsEnc19CWelsH264SVCEncoder13LogStatisticsEli
libopenh264.so.8:_ZN7WelsEnc19CWelsH264SVCEncoder14DumpSrcPictureEPK16Source_Picture_si
libopenh264.so.8:_ZN7WelsEnc19CWelsH264SVCEncoder14TraceParamInfoEP14TagEncParamExt
libopenh264.so.8:_ZN7WelsEnc19CWelsH264SVCEncoder15ForceIntraFrameEbi
libopenh264.so.8:_ZN7WelsEnc19CWelsH264SVCEncoder16GetDefaultParamsEP14TagEncParamExt
libopenh264.so.8:_ZN7WelsEnc19CWelsH264SVCEncoder16UpdateStatisticsEP12SFrameBSInfol
libopenh264.so.8:_ZN7WelsEnc19CWelsH264SVCEncoder18InitializeInternalEPNS_21TagWelsSvcCodingParamE
libopenh264.so.8:_ZN7WelsEnc19CWelsH264SVCEncoder19EncodeFrameInternalEPK16Source_Picture_sP12SFrameBSInfo
libopenh264.so.8:_ZN7WelsEnc19CWelsH264SVCEncoder19EncodeParameterSetsEP12SFrameBSInfo
libopenh264.so.8:_ZN7WelsEnc19CWelsH264SVCEncoder9GetOptionE14ENCODER_OPTIONPv
libopenh264.so.8:_ZN7WelsEnc19CWelsH264SVCEncoder9SetOptionE14ENCODER_OPTIONPv
libopenh264.so.8:_ZN7WelsEnc19CWelsH264SVCEncoderC1Ev
libopenh264.so.8:_ZN7WelsEnc19CWelsH264SVCEncoderC2Ev
libopenh264.so.8:_ZN7WelsEnc19CWelsH264SVCEncoderD0Ev
libopenh264.so.8:_ZN7WelsEnc19CWelsH264SVCEncoderD1Ev
libopenh264.so.8:_ZN7WelsEnc19CWelsH264SVCEncoderD2Ev
libopenh264.so.8:_ZN7WelsEnc19CWelsTaskManageBase11CreateTasksEPNS_13TagWelsEncCtxEi
libopenh264.so.8:_ZN7WelsEnc19CWelsTaskManageBase12DestroyTasksEv
libopenh264.so.8:_ZN7WelsEnc19CWelsTaskManageBase12ExecuteTasksENS_13CWelsBaseTask9ETaskTypeE
libopenh264.so.8:_ZN7WelsEnc19CWelsTaskManageBase14OnTaskExecutedEv
libopenh264.so.8:_ZN7WelsEnc19CWelsTaskManageBase14OnTaskMinusOneEv
libopenh264.so.8:_ZN7WelsEnc19CWelsTaskManageBase15DestroyTaskListEPN10WelsCommon22CWelsNonDuplicatedListINS_13CWelsBaseTaskEEE
libopenh264.so.8:_ZN7WelsEnc19CWelsTaskManageBase15ExecuteTaskListEPPN10WelsCommon22CWelsNonDuplicatedListINS_13CWelsBaseTaskEEE
libopenh264.so.8:_ZN7WelsEnc19CWelsTaskManageBase15OnTaskCancelledEv
libopenh264.so.8:_ZN7WelsEnc19CWelsTaskManageBase22GetThreadPoolThreadNumEv
libopenh264.so.8:_ZN7WelsEnc19CWelsTaskManageBase4InitEPNS_13TagWelsEncCtxE
libopenh264.so.8:_ZN7WelsEnc19CWelsTaskManageBase6UninitEv
libopenh264.so.8:_ZN7WelsEnc19CWelsTaskManageBase9InitFrameEi
libopenh264.so.8:_ZN7WelsEnc19CWelsTaskManageBaseC1Ev
libopenh264.so.8:_ZN7WelsEnc19CWelsTaskManageBaseC2Ev
libopenh264.so.8:_ZN7WelsEnc19CWelsTaskManageBaseD0Ev
libopenh264.so.8:_ZN7WelsEnc19CWelsTaskManageBaseD1Ev
libopenh264.so.8:_ZN7WelsEnc19CWelsTaskManageBaseD2Ev
libopenh264.so.8:_ZN7WelsEnc19CheckProfileSettingEP13TagLogContextPNS_21TagWelsSvcCodingParamEi11EProfileIdc
libopenh264.so.8:_ZN7WelsEnc19DeblockingMbAvcbaseEPNS_22TagWelsFuncPointerListEPNS_5TagMBEPNS_19TagDeblockingFilterE
libopenh264.so.8:_ZN7WelsEnc19FilteringEdgeLumaHVEPNS_17tagDeblockingFuncEPNS_5TagMBEPNS_19TagDeblockingFilterE
libopenh264.so.8:_ZN7WelsEnc19GetCurLayerNalCountEPKNS_10TagDqLayerEi
libopenh264.so.8:_ZN7WelsEnc19InitMeRefinePointerEPNS_18TagMeRefinePointerEPNS_10TagMbCacheEi
libopenh264.so.8:_ZN7WelsEnc19InitSliceThreadInfoEPNS_13TagWelsEncCtxEPNS_10TagDqLayerEiPN10WelsCommon12CMemoryAlignE
libopenh264.so.8:_ZN7WelsEnc19RcInitGomParametersEPNS_13TagWelsEncCtxE
libopenh264.so.8:_ZN7WelsEnc19ReOrderSliceInLayerEPNS_13TagWelsEncCtxE13SliceModeEnumi
libopenh264.so.8:_ZN7WelsEnc19ReallocateSliceListEPNS_13TagWelsEncCtxEP14SSliceArgumentRPNS_8TagSliceEii
libopenh264.so.8:_ZN7WelsEnc19UpdateFMESwitchNullEPNS_10TagDqLayerE
libopenh264.so.8:_ZN7WelsEnc19UpdateQpForOverflowEPNS_5TagMBEh
libopenh264.so.8:_ZN7WelsEnc19WelRcPictureInitSccEPNS_13TagWelsEncCtxEx
libopenh264.so.8:_ZN7WelsEnc19WelsCabacEncodeInitEPNS_11TagCabacCtxEPhS2_
libopenh264.so.8:_ZN7WelsEnc19WelsEncoderApplyLTREP13TagLogContextPPNS_13TagWelsEncCtxEP10SLTRConfig
libopenh264.so.8:_ZN7WelsEnc19WelsGetNumMbInSliceEPNS_10TagDqLayerEPNS_8TagSliceEi
libopenh264.so.8:_ZN7WelsEnc19WelsI4x4LumaPredH_cEPhS0_i
libopenh264.so.8:_ZN7WelsEnc19WelsI4x4LumaPredV_cEPhS0_i
libopenh264.so.8:_ZN7WelsEnc19WelsIChromaPredDc_cEPhS0_i
libopenh264.so.8:_ZN7WelsEnc19WelsIDctFourT4Rec_cEPhiS0_iPs
libopenh264.so.8:_ZN7WelsEnc19WelsIMbChromaEncodeEPNS_13TagWelsEncCtxEPNS_5TagMBEPNS_10TagMbCacheE
libopenh264.so.8:_ZN7WelsEnc19WelsLoadNalForSliceEPNS_14TagWelsSliceBsEii
libopenh264.so.8:_ZN7WelsEnc19WelsMarkMMCORefInfoEPNS_13TagWelsEncCtxEPNS_11TagLTRStateEPPNS_8TagSliceEi
libopenh264.so.8:_ZN7WelsEnc19WelsMdUpdateBGDInfoEPNS_10TagDqLayerEPNS_5TagMBEbi
libopenh264.so.8:_ZN7WelsEnc19WelsMeSadCostSelectEPiPKtS0_iiS0_S0_
libopenh264.so.8:_ZN7WelsEnc19WelsPMbChromaEncodeEPNS_13TagWelsEncCtxEPNS_8TagSliceEPNS_5TagMBE
libopenh264.so.8:_ZN7WelsEnc19WelsRcMbInitDisableEPNS_13TagWelsEncCtxEPNS_5TagMBEPNS_8TagSliceE
libopenh264.so.8:_ZN7WelsEnc19WelsSampleSatd4x4_cEPhiS0_i
libopenh264.so.8:_ZN7WelsEnc19WelsSampleSatd4x8_cEPhiS0_i
libopenh264.so.8:_ZN7WelsEnc19WelsSampleSatd8x4_cEPhiS0_i
libopenh264.so.8:_ZN7WelsEnc19WelsSampleSatd8x8_cEPhiS0_i
libopenh264.so.8:_ZN7WelsEnc19WelsUpdateRefSyntaxEPNS_13TagWelsEncCtxEii
libopenh264.so.8:_ZN7WelsEnc19WelsWriteMbResidualEPNS_22TagWelsFuncPointerListEPNS_10TagMbCacheEPNS_5TagMBEPN10WelsCommon15TagBitStringAuxE
libopenh264.so.8:_ZN7WelsEnc20AppendSliceToFrameBsEPNS_13TagWelsEncCtxEP12SLayerBSInfoi
libopenh264.so.8:_ZN7WelsEnc20CWelsPreProcessVideo17DetectSceneChangeEPNS_10TagPictureES2_
libopenh264.so.8:_ZN7WelsEnc20CWelsPreProcessVideo19GetCurrentOrigFrameEi
libopenh264.so.8:_ZN7WelsEnc20CWelsUpdateMbMapTask7ExecuteEv
libopenh264.so.8:_ZN7WelsEnc20CWelsUpdateMbMapTaskC1EPN10WelsCommon13IWelsTaskSinkEPNS_13TagWelsEncCtxEi
libopenh264.so.8:_ZN7WelsEnc20CWelsUpdateMbMapTaskC2EPN10WelsCommon13IWelsTaskSinkEPNS_13TagWelsEncCtxEi
libopenh264.so.8:_ZN7WelsEnc20CWelsUpdateMbMapTaskD0Ev
libopenh264.so.8:_ZN7WelsEnc20CWelsUpdateMbMapTaskD1Ev
libopenh264.so.8:_ZN7WelsEnc20CWelsUpdateMbMapTaskD2Ev
libopenh264.so.8:_ZN7WelsEnc20CalculateNewSliceNumEPNS_13TagWelsEncCtxEPNS_8TagSliceEiRi
libopenh264.so.8:_ZN7WelsEnc20CheckBitstreamBufferEjPNS_13TagWelsEncCtxEPN10WelsCommon15TagBitStringAuxE
libopenh264.so.8:_ZN7WelsEnc20DynamicAdjustSlicingEPNS_13TagWelsEncCtxEPNS_10TagDqLayerEi
libopenh264.so.8:_ZN7WelsEnc20FilteringEdgeChromaHEPNS_17tagDeblockingFuncEPNS_19TagDeblockingFilterEPhS4_iS4_
libopenh264.so.8:_ZN7WelsEnc20FilteringEdgeChromaVEPNS_17tagDeblockingFuncEPNS_19TagDeblockingFilterEPhS4_iS4_
libopenh264.so.8:_ZN7WelsEnc20GetMultipleThreadIdcEP13TagLogContextPNS_21TagWelsSvcCodingParamERsRiRj
libopenh264.so.8:_ZN7WelsEnc20GomRCInitForOneSliceEPNS_8TagSliceEi
libopenh264.so.8:_ZN7WelsEnc20InitBlkStrideWithRefEPii
libopenh264.so.8:_ZN7WelsEnc20InitFunctionPointersEPNS_13TagWelsEncCtxEPNS_21TagWelsSvcCodingParamEj
libopenh264.so.8:_ZN7WelsEnc20InitOneSliceInThreadEPNS_13TagWelsEncCtxERPNS_8TagSliceEiii
libopenh264.so.8:_ZN7WelsEnc20NotCalculateSatdCostEPFiPhiS0_iEPNS_9TagWelsMEEii
libopenh264.so.8:_ZN7WelsEnc20OutputCpuFeaturesLogEP13TagLogContextjji
libopenh264.so.8:_ZN7WelsEnc20PerformFMEPreprocessEPNS_22TagWelsFuncPointerListEPNS_10TagPictureEPtPNS_28TagScreenBlockFeatureStorageE
libopenh264.so.8:_ZN7WelsEnc20RcCalculatePictureQpEPNS_13TagWelsEncCtxE
libopenh264.so.8:_ZN7WelsEnc20RcJudgeBaseUsabilityEPNS_13TagWelsEncCtxE
libopenh264.so.8:_ZN7WelsEnc20RcUpdateTemporalZeroEPNS_13TagWelsEncCtxE
libopenh264.so.8:_ZN7WelsEnc20SaveFeatureSearchOutENS_9SMVUnitXYEjPhPNS_19TagFeatureSearchOutE
libopenh264.so.8:_ZN7WelsEnc20SetSliceBoundaryInfoEPNS_10TagDqLayerEPNS_8TagSliceEi
libopenh264.so.8:_ZN7WelsEnc20SliceLayerInfoUpdateEPNS_13TagWelsEncCtxEP12SFrameBSInfoP12SLayerBSInfo13SliceModeEnum
libopenh264.so.8:_ZN7WelsEnc20UpdateP4x4MotionInfoEPNS_10TagMbCacheEPNS_5TagMBEiaPNS_9SMVUnitXYE
libopenh264.so.8:_ZN7WelsEnc20UpdateP4x8MotionInfoEPNS_10TagMbCacheEPNS_5TagMBEiaPNS_9SMVUnitXYE
libopenh264.so.8:_ZN7WelsEnc20UpdateP8x4MotionInfoEPNS_10TagMbCacheEPNS_5TagMBEiaPNS_9SMVUnitXYE
libopenh264.so.8:_ZN7WelsEnc20UpdateP8x8MotionInfoEPNS_10TagMbCacheEPNS_5TagMBEiaPNS_9SMVUnitXYE
libopenh264.so.8:_ZN7WelsEnc20WelsCabacContextInitEPvPNS_11TagCabacCtxEi
libopenh264.so.8:_ZN7WelsEnc20WelsCabacEncodeFlushEPNS_11TagCabacCtxE
libopenh264.so.8:_ZN7WelsEnc20WelsDequantFour4x4_cEPsPKt
libopenh264.so.8:_ZN7WelsEnc20WelsDequantLumaDc4x4EPsi
libopenh264.so.8:_ZN7WelsEnc20WelsEncoderEncodeExtEPNS_13TagWelsEncCtxEP12SFrameBSInfoPK16Source_Picture_s
libopenh264.so.8:_ZN7WelsEnc20WelsGetNextMbOfSliceEPNS_10TagDqLayerEi
libopenh264.so.8:_ZN7WelsEnc20WelsGetPrevMbOfSliceEPNS_10TagDqLayerEi
libopenh264.so.8:_ZN7WelsEnc20WelsI4x4LumaPredDc_cEPhS0_i
libopenh264.so.8:_ZN7WelsEnc20WelsI4x4LumaPredHD_cEPhS0_i
libopenh264.so.8:_ZN7WelsEnc20WelsI4x4LumaPredHU_cEPhS0_i
libopenh264.so.8:_ZN7WelsEnc20WelsI4x4LumaPredVL_cEPhS0_i
libopenh264.so.8:_ZN7WelsEnc20WelsI4x4LumaPredVR_cEPhS0_i
libopenh264.so.8:_ZN7WelsEnc20WelsInitCurrentLayerEPNS_13TagWelsEncCtxEii
libopenh264.so.8:_ZN7WelsEnc20WelsInitSCDPskipFuncEPNS_22TagWelsFuncPointerListEb
libopenh264.so.8:_ZN7WelsEnc20WelsMdFirstIntraModeEPNS_13TagWelsEncCtxEPNS_9TagWelsMDEPNS_5TagMBEPNS_10TagMbCacheE
libopenh264.so.8:_ZN7WelsEnc20WelsRcPictureInitGomEPNS_13TagWelsEncCtxEx
libopenh264.so.8:_ZN7WelsEnc20WelsSampleSatd16x8_cEPhiS0_i
libopenh264.so.8:_ZN7WelsEnc20WelsSampleSatd8x16_cEPhiS0_i
libopenh264.so.8:_ZN7WelsEnc20WelsSliceHeaderWriteEPNS_13TagWelsEncCtxEPN10WelsCommon15TagBitStringAuxEPNS_10TagDqLayerEPNS_8TagSliceEPNS_25IWelsParametersetStrategyE
libopenh264.so.8:_ZN7WelsEnc20WelsUninitEncoderExtEPPNS_13TagWelsEncCtxE
libopenh264.so.8:_ZN7WelsEnc20WelsWriteSliceEndSynEPNS_8TagSliceEb
libopenh264.so.8:_ZN7WelsEnc21AllocateSliceMBBufferEPNS_8TagSliceEPN10WelsCommon12CMemoryAlignE
libopenh264.so.8:_ZN7WelsEnc21CWelsPreProcessScreen12JudgeBestRefEPNS_10TagPictureERKNS_13SRefJudgementElb
libopenh264.so.8:_ZN7WelsEnc21CWelsPreProcessScreen16InitRefJudgementEPNS_13SRefJudgementE
libopenh264.so.8:_ZN7WelsEnc21CWelsPreProcessScreen16SaveBestRefToVaaERNS_13SRefInfoParamEPS1_
libopenh264.so.8:_ZN7WelsEnc21CWelsPreProcessScreen17DetectSceneChangeEPNS_10TagPictureES2_
libopenh264.so.8:_ZN7WelsEnc21CWelsPreProcessScreen18SaveBestRefToLocalEPNS_13SRefInfoParamERK18SSceneChangeResultS2_
libopenh264.so.8:_ZN7WelsEnc21CWelsPreProcessScreen19GetAvailableRefListEPPNS_10TagPictureEhiPNS_13SRefInfoParamERiS6_
libopenh264.so.8:_ZN7WelsEnc21CWelsPreProcessScreen19GetCurrentOrigFrameEi
libopenh264.so.8:_ZN7WelsEnc21CWelsPreProcessScreen22GetReferenceSrcPicListEi
libopenh264.so.8:_ZN7WelsEnc21CWelsPreProcessScreen22SaveBestRefToJudgementEilPNS_13SRefJudgementE
libopenh264.so.8:_ZN7WelsEnc21CWelsPreProcessScreen45GetAvailableRefListLosslessScreenRefSelectionEPPNS_10TagPictureEhiPNS_13SRefInfoParamERiS6_
libopenh264.so.8:_ZN7WelsEnc21CWelsReference_Screen12BuildRefListEii
libopenh264.so.8:_ZN7WelsEnc21CWelsReference_Screen13UpdateRefListEv
libopenh264.so.8:_ZN7WelsEnc21CWelsReference_Screen17AfterBuildRefListEv
libopenh264.so.8:_ZN7WelsEnc21CWelsReference_Screen18EndofUpdateRefListEv
libopenh264.so.8:_ZN7WelsEnc21CWelsReference_Screen7MarkPicEv
libopenh264.so.8:_ZN7WelsEnc21CalcSliceComplexRatioEPNS_10TagDqLayerE
libopenh264.so.8:_ZN7WelsEnc21DynamicDetectCpuCoresEv
libopenh264.so.8:_ZN7WelsEnc21FilteringEdgeChromaHVEPNS_17tagDeblockingFuncEPNS_5TagMBEPNS_19TagDeblockingFilterE
libopenh264.so.8:_ZN7WelsEnc21GetTotalCodedNalCountEP12SFrameBSInfo
libopenh264.so.8:_ZN7WelsEnc21GomValidCheckSliceNumEiiPj
libopenh264.so.8:_ZN7WelsEnc21InitAllSlicesInThreadEPNS_13TagWelsEncCtxE
libopenh264.so.8:_ZN7WelsEnc21InitSliceBoundaryInfoEPNS_10TagDqLayerEP14SSliceArgumenti
libopenh264.so.8:_ZN7WelsEnc21InitSliceHeadWithBaseEPNS_8TagSliceES1_
libopenh264.so.8:_ZN7WelsEnc21PreprocessSliceCodingEPNS_13TagWelsEncCtxE
libopenh264.so.8:_ZN7WelsEnc21RcUpdatePictureQpBitsEPNS_13TagWelsEncCtxEi
libopenh264.so.8:_ZN7WelsEnc21SetBlockStaticIdcToMdEPvPNS_9TagWelsMDEPNS_5TagMBEPNS_10TagDqLayerE
libopenh264.so.8:_ZN7WelsEnc21SetMvBaseEnhancelayerEPNS_9TagWelsMDEPNS_5TagMBEPKS2_
libopenh264.so.8:_ZN7WelsEnc21StashPopMBStatusCabacEPNS_22TagDynamicSlicingStackEPNS_8TagSliceE
libopenh264.so.8:_ZN7WelsEnc21StashPopMBStatusCavlcEPNS_22TagDynamicSlicingStackEPNS_8TagSliceE
libopenh264.so.8:_ZN7WelsEnc21SumOf8x8SingleBlock_cEPhi
libopenh264.so.8:_ZN7WelsEnc21UpdateP16x8MotionInfoEPNS_10TagMbCacheEPNS_5TagMBEiaPNS_9SMVUnitXYE
libopenh264.so.8:_ZN7WelsEnc21WelsCabacEncodeGetPtrEPNS_11TagCabacCtxE
libopenh264.so.8:_ZN7WelsEnc21WelsGetFirstMbOfSliceEPNS_10TagDqLayerEi
libopenh264.so.8:_ZN7WelsEnc21WelsI4x4LumaPredDDL_cEPhS0_i
libopenh264.so.8:_ZN7WelsEnc21WelsI4x4LumaPredDDR_cEPhS0_i
libopenh264.so.8:_ZN7WelsEnc21WelsIChromaPredDcNA_cEPhS0_i
libopenh264.so.8:_ZN7WelsEnc21WelsIDctRecI16x16Dc_cEPhiS0_iPs
libopenh264.so.8:_ZN7WelsEnc21WelsInitEncodingFuncsEPNS_22TagWelsFuncPointerListEj
libopenh264.so.8:_ZN7WelsEnc21WelsInitSampleSadFuncEPNS_22TagWelsFuncPointerListEj
libopenh264.so.8:_ZN7WelsEnc21WelsMdBackgroundMbEncEPNS_13TagWelsEncCtxEPNS_9TagWelsMDEPNS_5TagMBEPNS_10TagMbCacheEPNS_8TagSliceEb
libopenh264.so.8:_ZN7WelsEnc21WelsMdInterJudgePskipEPNS_13TagWelsEncCtxEPNS_9TagWelsMDEPNS_8TagSliceEPNS_5TagMBEPNS_10TagMbCacheEb
libopenh264.so.8:_ZN7WelsEnc21WelsMotionCrossSearchEPNS_22TagWelsFuncPointerListEPNS_9TagWelsMEEPNS_8TagSliceEii
libopenh264.so.8:_ZN7WelsEnc21WelsQuantFour4x4Max_cEPsPKsS2_S0_
libopenh264.so.8:_ZN7WelsEnc21WelsRcDropFrameUpdateEPNS_13TagWelsEncCtxEj
libopenh264.so.8:_ZN7WelsEnc21WelsRcMbInfoUpdateGomEPNS_13TagWelsEncCtxEPNS_5TagMBEiPNS_8TagSliceE
libopenh264.so.8:_ZN7WelsEnc21WelsSampleSatd16x16_cEPhiS0_i
libopenh264.so.8:_ZN7WelsEnc21WelsSpatialWriteMbSynEPNS_13TagWelsEncCtxEPNS_8TagSliceEPNS_5TagMBE
libopenh264.so.8:_ZN7WelsEnc21WelsUnloadNalForSliceEPNS_14TagWelsSliceBsE
libopenh264.so.8:_ZN7WelsEnc21WelsWriteSVCPrefixNalEPN10WelsCommon15TagBitStringAuxEib
libopenh264.so.8:_ZN7WelsEnc21WriteReferenceReorderEPN10WelsCommon15TagBitStringAuxEPNS_14TagSliceHeaderE
libopenh264.so.8:_ZN7WelsEnc22AnalysisVaaInfoIntra_cEPhi
libopenh264.so.8:_ZN7WelsEnc22AssignMbMapSingleSliceEPvii
libopenh264.so.8:_ZN7WelsEnc22CWelsSliceEncodingTask10FinishTaskEv
libopenh264.so.8:_ZN7WelsEnc22CWelsSliceEncodingTask11ExecuteTaskEv
libopenh264.so.8:_ZN7WelsEnc22CWelsSliceEncodingTask11SetBoundaryEii
libopenh264.so.8:_ZN7WelsEnc22CWelsSliceEncodingTask16QueryEmptyThreadEPb
libopenh264.so.8:_ZN7WelsEnc22CWelsSliceEncodingTask7ExecuteEv
libopenh264.so.8:_ZN7WelsEnc22CWelsSliceEncodingTask8InitTaskEv
libopenh264.so.8:_ZN7WelsEnc22CWelsSliceEncodingTaskC1EPN10WelsCommon13IWelsTaskSinkEPNS_13TagWelsEncCtxEi
libopenh264.so.8:_ZN7WelsEnc22CWelsSliceEncodingTaskC2EPN10WelsCommon13IWelsTaskSinkEPNS_13TagWelsEncCtxEi
libopenh264.so.8:_ZN7WelsEnc22CWelsSliceEncodingTaskD0Ev
libopenh264.so.8:_ZN7WelsEnc22CWelsSliceEncodingTaskD1Ev
libopenh264.so.8:_ZN7WelsEnc22CWelsSliceEncodingTaskD2Ev
libopenh264.so.8:_ZN7WelsEnc22FillNeighborCacheIntraEPNS_10TagMbCacheEPNS_5TagMBEi
libopenh264.so.8:_ZN7WelsEnc22IWelsReferenceStrategy23CreateReferenceStrategyEPNS_13TagWelsEncCtxE10EUsageTypeb
libopenh264.so.8:_ZN7WelsEnc22MdInterSCDPskipProcessEPNS_13TagWelsEncCtxEPNS_9TagWelsMDEPNS_8TagSliceEPNS_5TagMBEPNS_10TagMbCacheENS_10ESkipModesE
libopenh264.so.8:_ZN7WelsEnc22MdIntraAnalysisVaaInfoEPNS_13TagWelsEncCtxEPh
libopenh264.so.8:_ZN7WelsEnc22RcCalculateCascadingQpEPNS_13TagWelsEncCtxEi
libopenh264.so.8:_ZN7WelsEnc22RcInitRefreshParameterEPNS_13TagWelsEncCtxE
libopenh264.so.8:_ZN7WelsEnc22RcInitSliceInformationEPNS_13TagWelsEncCtxE
libopenh264.so.8:_ZN7WelsEnc22ReleaseMemoryVaaScreenEPNS_15TagVAAFrameInfoEPN10WelsCommon12CMemoryAlignEi
libopenh264.so.8:_ZN7WelsEnc22RequestMemoryVaaScreenEPNS_15TagVAAFrameInfoEPN10WelsCommon12CMemoryAlignEii
libopenh264.so.8:_ZN7WelsEnc22SetScrollingMvToMdNullEPNS_15TagVAAFrameInfoEPNS_9TagWelsMDE
libopenh264.so.8:_ZN7WelsEnc22StackBackEncoderStatusEPNS_13TagWelsEncCtxE15EVideoFrameType
libopenh264.so.8:_ZN7WelsEnc22SumOf8x8BlockOfFrame_cEPhiiiPtPj
libopenh264.so.8:_ZN7WelsEnc22UpdateP16x16MotionInfoEPNS_10TagMbCacheEPNS_5TagMBEaPNS_9SMVUnitXYE
libopenh264.so.8:_ZN7WelsEnc22UpdateP4x4Motion2CacheEPNS_10TagMbCacheEiaPNS_9SMVUnitXYE
libopenh264.so.8:_ZN7WelsEnc22UpdateP4x8Motion2CacheEPNS_10TagMbCacheEiaPNS_9SMVUnitXYE
libopenh264.so.8:_ZN7WelsEnc22UpdateP8x4Motion2CacheEPNS_10TagMbCacheEiaPNS_9SMVUnitXYE
libopenh264.so.8:_ZN7WelsEnc22UpdateP8x8Motion2CacheEPNS_10TagMbCacheEiaPNS_9SMVUnitXYE
libopenh264.so.8:_ZN7WelsEnc22WelsBuildRefListScreenEPNS_13TagWelsEncCtxEii
libopenh264.so.8:_ZN7WelsEnc22WelsDiamondCrossSearchEPNS_22TagWelsFuncPointerListEPNS_9TagWelsMEEPNS_8TagSliceEii
libopenh264.so.8:_ZN7WelsEnc22WelsEncoderParamAdjustEPPNS_13TagWelsEncCtxEPNS_21TagWelsSvcCodingParamE
libopenh264.so.8:_ZN7WelsEnc22WelsGetNoneZeroCount_cEPs
libopenh264.so.8:_ZN7WelsEnc22WelsHadamardQuant2x2_cEPsssS0_S0_
libopenh264.so.8:_ZN7WelsEnc22WelsI16x16LumaPredDc_cEPhS0_i
libopenh264.so.8:_ZN7WelsEnc22WelsI4x4LumaPredDcNA_cEPhS0_i
libopenh264.so.8:_ZN7WelsEnc22WelsIChromaPredDcTop_cEPhS0_i
libopenh264.so.8:_ZN7WelsEnc22WelsIChromaPredPlane_cEPhS0_i
libopenh264.so.8:_ZN7WelsEnc22WelsISliceMdEncDynamicEPNS_13TagWelsEncCtxEPNS_8TagSliceE
libopenh264.so.8:_ZN7WelsEnc22WelsInitIntraPredFuncsEPNS_22TagWelsFuncPointerListEj
libopenh264.so.8:_ZN7WelsEnc22WelsMdInterUpdatePskipEPNS_10TagDqLayerEPNS_8TagSliceEPNS_5TagMBEPNS_10TagMbCacheE
libopenh264.so.8:_ZN7WelsEnc22WelsPSliceMdEncDynamicEPNS_13TagWelsEncCtxEPNS_8TagSliceEb
libopenh264.so.8:_ZN7WelsEnc22WelsRcCheckFrameStatusEPNS_13TagWelsEncCtxExii
libopenh264.so.8:_ZN7WelsEnc22WelsRcInitFuncPointersEPNS_13TagWelsEncCtxE8RC_MODES
libopenh264.so.8:_ZN7WelsEnc22WelsSliceHeaderExtInitEPNS_13TagWelsEncCtxEPNS_10TagDqLayerEPNS_8TagSliceE
libopenh264.so.8:_ZN7WelsEnc22WelsSpatialWriteMbPredEPNS_13TagWelsEncCtxEPNS_8TagSliceEPNS_5TagMBE
libopenh264.so.8:_ZN7WelsEnc22WelsWriteParameterSetsEPNS_13TagWelsEncCtxEPiS2_S2_
libopenh264.so.8:_ZN7WelsEnc22g_kiMapModeIntraChromaE
libopenh264.so.8:_ZN7WelsEnc22g_kuiCache12_8x8RefIdxE
libopenh264.so.8:_ZN7WelsEnc23CalculateFeatureOfBlockEPNS_22TagWelsFuncPointerListEPNS_10TagPictureEPNS_28TagScreenBlockFeatureStorageE
libopenh264.so.8:_ZN7WelsEnc23CheckDirectionalMvFalseEPFiPhiS0_iEPNS_9TagWelsMEENS_9SMVUnitXYES5_iiRi
libopenh264.so.8:_ZN7WelsEnc23FilteringEdgeLumaIntraHEPNS_17tagDeblockingFuncEPNS_19TagDeblockingFilterEPhiS4_
libopenh264.so.8:_ZN7WelsEnc23FilteringEdgeLumaIntraVEPNS_17tagDeblockingFuncEPNS_19TagDeblockingFilterEPhiS4_
libopenh264.so.8:_ZN7WelsEnc23GomValidCheckSliceMbNumEiiP14SSliceArgument
libopenh264.so.8:_ZN7WelsEnc23PerformDeblockingFilterEPNS_13TagWelsEncCtxE
libopenh264.so.8:_ZN7WelsEnc23PicPartitionNumDecisionEPNS_13TagWelsEncCtxE
libopenh264.so.8:_ZN7WelsEnc23RcInitSequenceParameterEPNS_13TagWelsEncCtxE
libopenh264.so.8:_ZN7WelsEnc23RcJudgeBitrateFpsUpdateEPNS_13TagWelsEncCtxE
libopenh264.so.8:_ZN7WelsEnc23RcUpdateFrameComplexityEPNS_13TagWelsEncCtxE
libopenh264.so.8:_ZN7WelsEnc23RcUpdateIntraComplexityEPNS_13TagWelsEncCtxE
libopenh264.so.8:_ZN7WelsEnc23ReallocateSliceInThreadEPNS_13TagWelsEncCtxEPNS_10TagDqLayerEii
libopenh264.so.8:_ZN7WelsEnc23SumOf16x16SingleBlock_cEPhi
libopenh264.so.8:_ZN7WelsEnc23UpdateNonZeroCountCacheEPNS_5TagMBEPNS_10TagMbCacheE
libopenh264.so.8:_ZN7WelsEnc23UpdateP16x8Motion2CacheEPNS_10TagMbCacheEiaPNS_9SMVUnitXYE
libopenh264.so.8:_ZN7WelsEnc23UpdateP8x16Motion2CacheEPNS_10TagMbCacheEiaPNS_9SMVUnitXYE
libopenh264.so.8:_ZN7WelsEnc23WelsBitRateVerificationEP13TagLogContextP19SSpatialLayerConfigi
libopenh264.so.8:_ZN7WelsEnc23WelsCabacEncodeUeBypassEPNS_11TagCabacCtxEij
libopenh264.so.8:_ZN7WelsEnc23WelsCodeOnePicPartitionEPNS_13TagWelsEncCtxEP12SFrameBSInfoP12SLayerBSInfoPiS6_iii
libopenh264.so.8:_ZN7WelsEnc23WelsEncoderApplyBitRateEP13TagLogContextPNS_21TagWelsSvcCodingParamEi
libopenh264.so.8:_ZN7WelsEnc23WelsI4x4LumaPredDcTop_cEPhS0_i
libopenh264.so.8:_ZN7WelsEnc23WelsI4x4LumaPredVLTop_cEPhS0_i
libopenh264.so.8:_ZN7WelsEnc23WelsIChromaPredDcLeft_cEPhS0_i
libopenh264.so.8:_ZN7WelsEnc23WelsMdInterDecidedPskipEPNS_13TagWelsEncCtxEPNS_8TagSliceEPNS_5TagMBEPNS_10TagMbCacheE
libopenh264.so.8:_ZN7WelsEnc23WelsMdInterMbRefinementEPNS_13TagWelsEncCtxEPNS_9TagWelsMDEPNS_5TagMBEPNS_10TagMbCacheE
libopenh264.so.8:_ZN7WelsEnc23WelsMdUpdateBGDInfoNULLEPNS_10TagDqLayerEPNS_5TagMBEbi
libopenh264.so.8:_ZN7WelsEnc23WelsRcPostFrameSkippingEPNS_13TagWelsEncCtxEix
libopenh264.so.8:_ZN7WelsEnc23WelsSliceHeaderExtWriteEPNS_13TagWelsEncCtxEPN10WelsCommon15TagBitStringAuxEPNS_10TagDqLayerEPNS_8TagSliceEPNS_25IWelsParametersetStrategyE
libopenh264.so.8:_ZN7WelsEnc23WelsUpdateRefListScreenEPNS_13TagWelsEncCtxE
libopenh264.so.8:_ZN7WelsEnc23WriteBlockResidualCavlcEPNS_22TagWelsFuncPointerListEPsiiiaPN10WelsCommon15TagBitStringAuxE
libopenh264.so.8:_ZN7WelsEnc24CheckCurMarkFrameNumUsedEPNS_13TagWelsEncCtxE
libopenh264.so.8:_ZN7WelsEnc24CheckFrameSkipBasedMaxbrEPNS_13TagWelsEncCtxExi
libopenh264.so.8:_ZN7WelsEnc24CheckReferenceNumSettingEP13TagLogContextPNS_21TagWelsSvcCodingParamEi
libopenh264.so.8:_ZN7WelsEnc24FilterLTRMarkingFeedbackEPNS_13TagWelsEncCtxEP19SLTRMarkingFeedback
libopenh264.so.8:_ZN7WelsEnc24FilterLTRRecoveryRequestEPNS_13TagWelsEncCtxEP18SLTRRecoverRequest
libopenh264.so.8:_ZN7WelsEnc24InitIntraAnalysisVaaInfoEPNS_22TagWelsFuncPointerListEj
libopenh264.so.8:_ZN7WelsEnc24InitSliceRefInfoWithBaseEPNS_8TagSliceES1_h
libopenh264.so.8:_ZN7WelsEnc24MdInterAnalysisVaaInfo_cEPi
libopenh264.so.8:_ZN7WelsEnc24RcVBufferCalculationSkipEPNS_13TagWelsEncCtxE
libopenh264.so.8:_ZN7WelsEnc24SumOf16x16BlockOfFrame_cEPhiiiPtPj
libopenh264.so.8:_ZN7WelsEnc24WelsCabacEncodeTerminateEPNS_11TagCabacCtxEj
libopenh264.so.8:_ZN7WelsEnc24WelsI16x16LumaPredDcNA_cEPhS0_i
libopenh264.so.8:_ZN7WelsEnc24WelsI4x4LumaPredDDLTop_cEPhS0_i
libopenh264.so.8:_ZN7WelsEnc24WelsI4x4LumaPredDcLeft_cEPhS0_i
libopenh264.so.8:_ZN7WelsEnc24WelsMdInterFinePartitionEPNS_13TagWelsEncCtxEPNS_9TagWelsMDEPNS_8TagSliceEPNS_5TagMBEi
libopenh264.so.8:_ZN7WelsEnc24WelsMdInterJudgeBGDPskipEPNS_13TagWelsEncCtxEPNS_9TagWelsMDEPNS_8TagSliceEPNS_5TagMBEPNS_10TagMbCacheEPb
libopenh264.so.8:_ZN7WelsEnc24WelsMdInterJudgeSCDPskipEPNS_13TagWelsEncCtxEPNS_9TagWelsMDEPNS_8TagSliceEPNS_5TagMBEPNS_10TagMbCacheE
libopenh264.so.8:_ZN7WelsEnc24WelsMdIntraFinePartitionEPNS_13TagWelsEncCtxEPNS_9TagWelsMDEPNS_5TagMBEPNS_10TagMbCacheE
libopenh264.so.8:_ZN7WelsEnc24WelsMotionEstimateSearchEPNS_22TagWelsFuncPointerListEPNS_10TagDqLayerEPNS_9TagWelsMEEPNS_8TagSliceE
libopenh264.so.8:_ZN7WelsEnc24WelsRcPictureInitDisableEPNS_13TagWelsEncCtxEx
libopenh264.so.8:_ZN7WelsEnc24WelsWriteSubsetSpsSyntaxEPNS_12TagSubsetSpsEPN10WelsCommon15TagBitStringAuxEPi
libopenh264.so.8:_ZN7WelsEnc24WriteSavcParaset_ListingEPNS_13TagWelsEncCtxEiRP12SLayerBSInfoRiS5_
libopenh264.so.8:_ZN7WelsEnc24g_kuiTemporalIdListTableE
libopenh264.so.8:_ZN7WelsEnc24update_P8x16_motion_infoEPNS_10TagMbCacheEPNS_5TagMBEiaPNS_9SMVUnitXYE
libopenh264.so.8:_ZN7WelsEnc25AssignMbMapMultipleSlicesEPNS_10TagDqLayerEPK14SSliceArgument
libopenh264.so.8:_ZN7WelsEnc25FilteringEdgeChromaIntraHEPNS_17tagDeblockingFuncEPNS_19TagDeblockingFilterEPhS4_iS4_
libopenh264.so.8:_ZN7WelsEnc25FilteringEdgeChromaIntraVEPNS_17tagDeblockingFuncEPNS_19TagDeblockingFilterEPhS4_iS4_
libopenh264.so.8:_ZN7WelsEnc25IWelsParametersetStrategy26CreateParametersetStrategyE21EParameterSetStrategybi
libopenh264.so.8:_ZN7WelsEnc25ParasetIdAdditionIdAdjustEPNS_24TagParaSetOffsetVariableEij
libopenh264.so.8:_ZN7WelsEnc25WelsCodePOverDynamicSliceEPNS_13TagWelsEncCtxEPNS_8TagSliceE
libopenh264.so.8:_ZN7WelsEnc25WelsDequantIHadamard2x2DcEPst
libopenh264.so.8:_ZN7WelsEnc25WelsDequantIHadamard4x4_cEPst
libopenh264.so.8:_ZN7WelsEnc25WelsEncoderApplyFrameRateEPNS_21TagWelsSvcCodingParamE
libopenh264.so.8:_ZN7WelsEnc25WelsI16x16LumaPredDcTop_cEPhS0_i
libopenh264.so.8:_ZN7WelsEnc25WelsI16x16LumaPredPlane_cEPhS0_i
libopenh264.so.8:_ZN7WelsEnc25WelsMarkMMCORefInfoScreenEPNS_13TagWelsEncCtxEPNS_11TagLTRStateEPPNS_8TagSliceEi
libopenh264.so.8:_ZN7WelsEnc25WelsMdInterMbEnhancelayerEPNS_13TagWelsEncCtxEPNS_9TagWelsMDEPNS_8TagSliceEPNS_5TagMBEPNS_10TagMbCacheE
libopenh264.so.8:_ZN7WelsEnc25WelsRcMbInfoUpdateDisableEPNS_13TagWelsEncCtxEPNS_5TagMBEiPNS_8TagSliceE
libopenh264.so.8:_ZN7WelsEnc25WelsSpatialWriteSubMbPredEPNS_13TagWelsEncCtxEPNS_8TagSliceEPNS_5TagMBE
libopenh264.so.8:_ZN7WelsEnc26InitializeHashforFeature_cEPjPtiPS1_S2_
libopenh264.so.8:_ZN7WelsEnc26WelsHadamardQuant2x2Skip_cEPsss
libopenh264.so.8:_ZN7WelsEnc26WelsI16x16LumaPredDcLeft_cEPhS0_i
libopenh264.so.8:_ZN7WelsEnc26WelsRcPictureInfoUpdateGomEPNS_13TagWelsEncCtxEi
libopenh264.so.8:_ZN7WelsEnc26WelsRcPictureInfoUpdateSccEPNS_13TagWelsEncCtxEi
libopenh264.so.8:_ZN7WelsEnc26WelsSliceHeaderScalExtInitEPNS_10TagDqLayerEPNS_8TagSliceE
libopenh264.so.8:_ZN7WelsEnc26WelsSpatialWriteMbSynCabacEPNS_13TagWelsEncCtxEPNS_8TagSliceEPNS_5TagMBE
libopenh264.so.8:_ZN7WelsEnc26g_kuiVlcTotalZerosChromaDcE
libopenh264.so.8:_ZN7WelsEnc27CWelsParametersetIdConstant12LoadPreviousEPNS_22TagExistingParasetListEPNS_10TagWelsSPSEPNS_12TagSubsetSpsEPNS_10TagWelsPPSE
libopenh264.so.8:_ZN7WelsEnc27CWelsParametersetIdConstant14GenerateNewSpsEPNS_13TagWelsEncCtxEbiijRPNS_10TagWelsSPSERPNS_12TagSubsetSpsEb
libopenh264.so.8:_ZN7WelsEnc27CWelsParametersetIdConstant14GetPpsIdOffsetEi
libopenh264.so.8:_ZN7WelsEnc27CWelsParametersetIdConstant14GetSpsIdOffsetEii
libopenh264.so.8:_ZN7WelsEnc27CWelsParametersetIdConstant15GetNeededPpsNumEv
libopenh264.so.8:_ZN7WelsEnc27CWelsParametersetIdConstant15GetNeededSpsNumEv
libopenh264.so.8:_ZN7WelsEnc27CWelsParametersetIdConstant16SetUseSubsetFlagEjb
libopenh264.so.8:_ZN7WelsEnc27CWelsParametersetIdConstant18GetSpsIdOffsetListEi
libopenh264.so.8:_ZN7WelsEnc27CWelsParametersetIdConstant21GetNeededSubsetSpsNumEv
libopenh264.so.8:_ZN7WelsEnc27CWelsParametersetIdConstant22GetAllNeededParasetNumEv
libopenh264.so.8:_ZN7WelsEnc27CWelsParametersetIdConstant6UpdateEji
libopenh264.so.8:_ZN7WelsEnc27CWelsParametersetIdConstant7InitPpsEPNS_13TagWelsEncCtxEjPNS_10TagWelsSPSEPNS_12TagSubsetSpsEjbbb
libopenh264.so.8:_ZN7WelsEnc27CWelsParametersetIdConstantC1Ebi
libopenh264.so.8:_ZN7WelsEnc27CWelsParametersetIdConstantC2Ebi
libopenh264.so.8:_ZN7WelsEnc27CWelsParametersetIdConstantD0Ev
libopenh264.so.8:_ZN7WelsEnc27CWelsParametersetIdConstantD1Ev
libopenh264.so.8:_ZN7WelsEnc27CWelsParametersetIdConstantD2Ev
libopenh264.so.8:_ZN7WelsEnc27CWelsParametersetSpsListing12LoadPreviousEPNS_22TagExistingParasetListEPNS_10TagWelsSPSEPNS_12TagSubsetSpsEPNS_10TagWelsPPSE
libopenh264.so.8:_ZN7WelsEnc27CWelsParametersetSpsListing14GenerateNewSpsEPNS_13TagWelsEncCtxEbiijRPNS_10TagWelsSPSERPNS_12TagSubsetSpsEb
libopenh264.so.8:_ZN7WelsEnc27CWelsParametersetSpsListing15LoadPreviousSpsEPNS_22TagExistingParasetListEPNS_10TagWelsSPSEPNS_12TagSubsetSpsE
libopenh264.so.8:_ZN7WelsEnc27CWelsParametersetSpsListing16UpdateParaSetNumEPNS_13TagWelsEncCtxE
libopenh264.so.8:_ZN7WelsEnc27CWelsParametersetSpsListing18CheckPpsGeneratingEv
libopenh264.so.8:_ZN7WelsEnc27CWelsParametersetSpsListing21GetNeededSubsetSpsNumEv
libopenh264.so.8:_ZN7WelsEnc27CWelsParametersetSpsListing22OutputCurrentStructureEPNS_24TagParaSetOffsetVariableEPiPNS_13TagWelsEncCtxEPNS_22TagExistingParasetListE
libopenh264.so.8:_ZN7WelsEnc27CWelsParametersetSpsListing23CheckParamCompatibilityEPNS_21TagWelsSvcCodingParamEP13TagLogContext
libopenh264.so.8:_ZN7WelsEnc27CWelsParametersetSpsListing8SpsResetEPNS_13TagWelsEncCtxEb
libopenh264.so.8:_ZN7WelsEnc27CWelsParametersetSpsListingC1Ebi
libopenh264.so.8:_ZN7WelsEnc27CWelsParametersetSpsListingC2Ebi
libopenh264.so.8:_ZN7WelsEnc27CheckRowMbMultiSliceSettingEiP14SSliceArgument
libopenh264.so.8:_ZN7WelsEnc27RcDecideTargetBitsTimestampEPNS_13TagWelsEncCtxE
libopenh264.so.8:_ZN7WelsEnc27RcVBufferCalculationPaddingEPNS_13TagWelsEncCtxE
libopenh264.so.8:_ZN7WelsEnc27WelsCabacEncodeDecisionLps_EPNS_11TagCabacCtxEi
libopenh264.so.8:_ZN7WelsEnc27WelsCalculateSingleCtr4x4_cEPs
libopenh264.so.8:_ZN7WelsEnc27WelsEncoderApplyBitVaryRangEP13TagLogContextPNS_21TagWelsSvcCodingParamEi
libopenh264.so.8:_ZN7WelsEnc27WelsGetEncBlockStrideOffsetEPiii
libopenh264.so.8:_ZN7WelsEnc27WelsInitCurrentDlayerMltslcEPNS_13TagWelsEncCtxEi
libopenh264.so.8:_ZN7WelsEnc27WelsInitReconstructionFuncsEPNS_22TagWelsFuncPointerListEj
libopenh264.so.8:_ZN7WelsEnc27WelsMdInterDoubleCheckPskipEPNS_5TagMBEPNS_10TagMbCacheE
libopenh264.so.8:_ZN7WelsEnc27WelsMdInterFinePartitionVaaEPNS_13TagWelsEncCtxEPNS_9TagWelsMDEPNS_8TagSliceEPNS_5TagMBEi
libopenh264.so.8:_ZN7WelsEnc27WelsMdIntraFinePartitionVaaEPNS_13TagWelsEncCtxEPNS_9TagWelsMDEPNS_5TagMBEPNS_10TagMbCacheE
libopenh264.so.8:_ZN7WelsEnc27WelsUpdateSliceHeaderSyntaxEPNS_13TagWelsEncCtxEiPPNS_8TagSliceEi
libopenh264.so.8:_ZN7WelsEnc28CWelsReference_TemporalLayer12BuildRefListEii
libopenh264.so.8:_ZN7WelsEnc28CWelsReference_TemporalLayer13UpdateRefListEv
libopenh264.so.8:_ZN7WelsEnc28CWelsReference_TemporalLayer17AfterBuildRefListEv
libopenh264.so.8:_ZN7WelsEnc28CWelsReference_TemporalLayer18EndofUpdateRefListEv
libopenh264.so.8:_ZN7WelsEnc28CWelsReference_TemporalLayer4InitEPNS_13TagWelsEncCtxE
libopenh264.so.8:_ZN7WelsEnc28CWelsReference_TemporalLayer7MarkPicEv
libopenh264.so.8:_ZN7WelsEnc28CheckRasterMultiSliceSettingEiP14SSliceArgument
libopenh264.so.8:_ZN7WelsEnc28DeblockingFilterFrameAvcbaseEPNS_10TagDqLayerEPNS_22TagWelsFuncPointerListE
libopenh264.so.8:_ZN7WelsEnc28DeblockingFilterSliceAvcbaseEPNS_10TagDqLayerEPNS_22TagWelsFuncPointerListEPNS_8TagSliceE
libopenh264.so.8:_ZN7WelsEnc28DynamicAdjustSlicePEncCtxAllEPNS_10TagDqLayerEPi
libopenh264.so.8:_ZN7WelsEnc28DynamicMaxSliceNumConstraintEjij
libopenh264.so.8:_ZN7WelsEnc28UpdateBufferWhenFrameSkippedEPNS_13TagWelsEncCtxEi
libopenh264.so.8:_ZN7WelsEnc28UpdateMaxBrCheckWindowStatusEPNS_13TagWelsEncCtxEix
libopenh264.so.8:_ZN7WelsEnc28UpdateMbListNeighborParallelEPNS_10TagDqLayerEPNS_5TagMBEi
libopenh264.so.8:_ZN7WelsEnc28VerticalFullSearchUsingSSE41EPNS_22TagWelsFuncPointerListEPNS_9TagWelsMEEPtiissb
libopenh264.so.8:_ZN7WelsEnc28WelsInitCurrentQBLayerMltslcEPNS_13TagWelsEncCtxE
libopenh264.so.8:_ZN7WelsEnc28WelsMdInterSecondaryModesEncEPNS_13TagWelsEncCtxEPNS_9TagWelsMDEPNS_8TagSliceEPNS_5TagMBEPNS_10TagMbCacheEb
libopenh264.so.8:_ZN7WelsEnc28WelsMdIntraSecondaryModesEncEPNS_13TagWelsEncCtxEPNS_9TagWelsMDEPNS_5TagMBEPNS_10TagMbCacheE
libopenh264.so.8:_ZN7WelsEnc28WelsRcPostFrameSkippedUpdateEPNS_13TagWelsEncCtxEi
libopenh264.so.8:_ZN7WelsEnc29CWelsParametersetIdIncreasing11DebugSpsPpsEii
libopenh264.so.8:_ZN7WelsEnc29CWelsParametersetIdIncreasing14GetPpsIdOffsetEi
libopenh264.so.8:_ZN7WelsEnc29CWelsParametersetIdIncreasing14GetSpsIdOffsetEii
libopenh264.so.8:_ZN7WelsEnc29CWelsParametersetIdIncreasing6UpdateEji
libopenh264.so.8:_ZN7WelsEnc29CWelsParametersetIdIncreasing8DebugPpsEi
libopenh264.so.8:_ZN7WelsEnc29DeblockingBSMarginalMBAvcbaseEPNS_5TagMBES1_i
libopenh264.so.8:_ZN7WelsEnc29FillNeighborCacheInterWithBGDEPNS_10TagMbCacheEPNS_5TagMBEiPa
libopenh264.so.8:_ZN7WelsEnc29WelRcPictureInitBufferBasedQpEPNS_13TagWelsEncCtxEx
libopenh264.so.8:_ZN7WelsEnc29WelsDiamondCrossFeatureSearchEPNS_22TagWelsFuncPointerListEPNS_9TagWelsMEEPNS_8TagSliceEii
libopenh264.so.8:_ZN7WelsEnc29WelsMdInterJudgeBGDPskipFalseEPNS_13TagWelsEncCtxEPNS_9TagWelsMDEPNS_8TagSliceEPNS_5TagMBEPNS_10TagMbCacheEPb
libopenh264.so.8:_ZN7WelsEnc29WelsMdInterJudgeSCDPskipFalseEPNS_13TagWelsEncCtxEPNS_9TagWelsMDEPNS_8TagSliceEPNS_5TagMBEPNS_10TagMbCacheE
libopenh264.so.8:_ZN7WelsEnc30CWelsParametersetIdNonConstant21LoadPreviousStructureEPNS_24TagParaSetOffsetVariableEPi
libopenh264.so.8:_ZN7WelsEnc30CWelsParametersetIdNonConstant22OutputCurrentStructureEPNS_24TagParaSetOffsetVariableEPiPNS_13TagWelsEncCtxEPNS_22TagExistingParasetListE
libopenh264.so.8:_ZN7WelsEnc30CWelsParametersetSpsPpsListing13UpdatePpsListEPNS_13TagWelsEncCtxE
libopenh264.so.8:_ZN7WelsEnc30CWelsParametersetSpsPpsListing15GetCurrentPpsIdEii
libopenh264.so.8:_ZN7WelsEnc30CWelsParametersetSpsPpsListing15LoadPreviousPpsEPNS_22TagExistingParasetListEPNS_10TagWelsPPSE
libopenh264.so.8:_ZN7WelsEnc30CWelsParametersetSpsPpsListing16UpdateParaSetNumEPNS_13TagWelsEncCtxE
libopenh264.so.8:_ZN7WelsEnc30CWelsParametersetSpsPpsListing18CheckPpsGeneratingEv
libopenh264.so.8:_ZN7WelsEnc30CWelsParametersetSpsPpsListing21LoadPreviousStructureEPNS_24TagParaSetOffsetVariableEPi
libopenh264.so.8:_ZN7WelsEnc30CWelsParametersetSpsPpsListing22OutputCurrentStructureEPNS_24TagParaSetOffsetVariableEPiPNS_13TagWelsEncCtxEPNS_22TagExistingParasetListE
libopenh264.so.8:_ZN7WelsEnc30CWelsParametersetSpsPpsListing7InitPpsEPNS_13TagWelsEncCtxEjPNS_10TagWelsSPSEPNS_12TagSubsetSpsEjbbb
libopenh264.so.8:_ZN7WelsEnc30CWelsParametersetSpsPpsListing8SpsResetEPNS_13TagWelsEncCtxEb
libopenh264.so.8:_ZN7WelsEnc30CWelsParametersetSpsPpsListingC1Ebi
libopenh264.so.8:_ZN7WelsEnc30CWelsParametersetSpsPpsListingC2Ebi
libopenh264.so.8:_ZN7WelsEnc30CWelsReference_LosslessWithLtr12BuildRefListEii
libopenh264.so.8:_ZN7WelsEnc30CWelsReference_LosslessWithLtr13UpdateRefListEv
libopenh264.so.8:_ZN7WelsEnc30CWelsReference_LosslessWithLtr18EndofUpdateRefListEv
libopenh264.so.8:_ZN7WelsEnc30CWelsReference_LosslessWithLtr7MarkPicEv
libopenh264.so.8:_ZN7WelsEnc30HorizontalFullSearchUsingSSE41EPNS_22TagWelsFuncPointerListEPNS_9TagWelsMEEPtiissb
libopenh264.so.8:_ZN7WelsEnc30InitFillNeighborCacheInterFuncEPNS_22TagWelsFuncPointerListEi
libopenh264.so.8:_ZN7WelsEnc30WelsEncoderEncodeParameterSetsEPNS_13TagWelsEncCtxEPv
libopenh264.so.8:_ZN7WelsEnc30WelsMdInterSaveSadAndRefMbTypeEPjPNS_10TagMbCacheEPKNS_5TagMBEPKNS_9TagWelsMDE
libopenh264.so.8:_ZN7WelsEnc30WelsMotionEstimateInitialPointEPNS_22TagWelsFuncPointerListEPNS_9TagWelsMEEPNS_8TagSliceEii
libopenh264.so.8:_ZN7WelsEnc30WelsMotionEstimateSearchStaticEPNS_22TagWelsFuncPointerListEPNS_10TagDqLayerEPNS_9TagWelsMEEPNS_8TagSliceE
libopenh264.so.8:_ZN7WelsEnc30WelsRcFrameDelayJudgeTimeStampEPNS_13TagWelsEncCtxExi
libopenh264.so.8:_ZN7WelsEnc30WelsRcPictureInfoUpdateDisableEPNS_13TagWelsEncCtxEi
libopenh264.so.8:_ZN7WelsEnc31MotionEstimateFeatureFullSearchERNS_18TagFeatureSearchInEjPNS_9TagWelsMEE
libopenh264.so.8:_ZN7WelsEnc31ReleaseFeatureSearchPreparationEPN10WelsCommon12CMemoryAlignERPt
libopenh264.so.8:_ZN7WelsEnc31RequestFeatureSearchPreparationEPN10WelsCommon12CMemoryAlignEiiiPNS_27TagFeatureSearchPreparationE
libopenh264.so.8:_ZN7WelsEnc31UpdateSlicepEncCtxWithPartitionEPNS_10TagDqLayerEi
libopenh264.so.8:_ZN7WelsEnc32DeblockingFilterSliceAvcbaseNullEPNS_10TagDqLayerEPNS_22TagWelsFuncPointerListEPNS_8TagSliceE
libopenh264.so.8:_ZN7WelsEnc32DynSlcJudgeSliceBoundaryStepBackEPvS0_PNS_14SlicepEncCtx_sEPNS_5TagMBEPNS_22TagDynamicSlicingStackE
libopenh264.so.8:_ZN7WelsEnc32FillNeighborCacheInterWithoutBGDEPNS_10TagMbCacheEPNS_5TagMBEiPa
libopenh264.so.8:_ZN7WelsEnc32FillQpelLocationByFeatureValue_cEPtiiPS0_
libopenh264.so.8:_ZN7WelsEnc32ReleaseScreenBlockFeatureStorageEPN10WelsCommon12CMemoryAlignEPNS_28TagScreenBlockFeatureStorageE
libopenh264.so.8:_ZN7WelsEnc32RequestScreenBlockFeatureStorageEPN10WelsCommon12CMemoryAlignEiiiPNS_28TagScreenBlockFeatureStorageE
libopenh264.so.8:_ZN7WelsEnc32WelsMdSpatialelInterMbIlfmdNoilpEPNS_13TagWelsEncCtxEPNS_9TagWelsMDEPNS_8TagSliceEPNS_5TagMBEj
libopenh264.so.8:_ZN7WelsEnc32WelsMotionEstimateSearchScrolledEPNS_22TagWelsFuncPointerListEPNS_10TagDqLayerEPNS_9TagWelsMEEPNS_8TagSliceE
libopenh264.so.8:_ZN7WelsEnc32WelsSampleSadIntra8x8Combined3_cEPhiS0_iPiiS0_S0_S0_
libopenh264.so.8:_ZN7WelsEnc33UpdateMbNeighbourInfoForNextSliceEPNS_10TagDqLayerEPNS_5TagMBEii
libopenh264.so.8:_ZN7WelsEnc33WelsMdInterMbLoopOverDynamicSliceEPNS_13TagWelsEncCtxEPNS_8TagSliceEPvi
libopenh264.so.8:_ZN7WelsEnc33WelsSampleSatdIntra4x4Combined3_cEPhiS0_iS0_Piiii
libopenh264.so.8:_ZN7WelsEnc33WelsSampleSatdIntra8x8Combined3_cEPhiS0_iPiiS0_S0_S0_
libopenh264.so.8:_ZN7WelsEnc34WelsSampleSadIntra16x16Combined3_cEPhiS0_iPiiS0_
libopenh264.so.8:_ZN7WelsEnc35CheckFixedSliceNumMultiSliceSettingEiP14SSliceArgument
libopenh264.so.8:_ZN7WelsEnc35OutputPMbWithoutConstructCsRsNoCopyEPNS_13TagWelsEncCtxEPNS_10TagDqLayerEPNS_8TagSliceEPNS_5TagMBE
libopenh264.so.8:_ZN7WelsEnc35SetOneSliceBsBufferUnderMultithreadEPNS_13TagWelsEncCtxEiPNS_8TagSliceE
libopenh264.so.8:_ZN7WelsEnc35WelsCabacEncodeUpdateLowNontrivial_EPNS_11TagCabacCtxE
libopenh264.so.8:_ZN7WelsEnc35WelsMdInterFinePartitionVaaOnScreenEPNS_13TagWelsEncCtxEPNS_9TagWelsMDEPNS_8TagSliceEPNS_5TagMBEi
libopenh264.so.8:_ZN7WelsEnc35WelsRcPictureInfoUpdateGomTimeStampEPNS_13TagWelsEncCtxEi
libopenh264.so.8:_ZN7WelsEnc35WelsSampleSatdIntra16x16Combined3_cEPhiS0_iPiiS0_
libopenh264.so.8:_ZN7WelsEnc37CWelsLoadBalancingSlicingEncodingTask10FinishTaskEv
libopenh264.so.8:_ZN7WelsEnc37CWelsLoadBalancingSlicingEncodingTask8InitTaskEv
libopenh264.so.8:_ZN7WelsEnc37SliceArgumentValidationFixedSliceModeEP13TagLogContextP14SSliceArgument8RC_MODESii
libopenh264.so.8:_ZN7WelsEnc38WelsCheckRefFrameLimitationNumRefFirstEP13TagLogContextPNS_21TagWelsSvcCodingParamE
libopenh264.so.8:_ZN7WelsEnc39CWelsConstrainedSizeSlicingEncodingTask11ExecuteTaskEv
libopenh264.so.8:_ZN7WelsEnc40CWelsParametersetSpsListingPpsIncreasing14GetPpsIdOffsetEi
libopenh264.so.8:_ZN7WelsEnc40CWelsParametersetSpsListingPpsIncreasing6UpdateEji
libopenh264.so.8:_ZN7WelsEnc40WelsCheckRefFrameLimitationLevelIdcFirstEP13TagLogContextPNS_21TagWelsSvcCodingParamE
libopenh264.so.8:_ZN7WelsEnc43DynslcUpdateMbNeighbourInfoListForAllSlicesEPNS_10TagDqLayerEPNS_5TagMBE
libopenh264.so.8:_ZN7WelsEnc6PredMvEPKNS_18TagMVComponentUnitEaaiPNS_9SMVUnitXYE
libopenh264.so.8:_ZN7WelsEnc7InitPicEPKviii
libopenh264.so.8:_ZN7WelsEnc8GetRefMbEPNS_10TagDqLayerEPNS_5TagMBE
libopenh264.so.8:_ZN7WelsEnc9DoNothingEPNS_13TagWelsEncCtxE
libopenh264.so.8:_ZN7WelsEnc9WelsDctMbEPsPhiS1_PFvS0_S1_iS1_iE
libopenh264.so.8:_ZNK10WelsCommon12CMemoryAlign18WelsGetMemoryUsageEv
libopenh264.so.8:_ZNK10WelsCommon12CMemoryAlign20WelsGetCacheLineSizeEv
libopenh264.so.8:_ZTIN10WelsCommon11CWelsThreadE
libopenh264.so.8:_ZTIN10WelsCommon12CMemoryAlignE
libopenh264.so.8:_ZTIN10WelsCommon15CWelsTaskThreadE
libopenh264.so.8:_ZTIN10WelsCommon15CWelsThreadPoolE
libopenh264.so.8:_ZTIN6WelsVP12CVpFrameWorkE
libopenh264.so.8:_ZTIN6WelsVP13CDownsamplingE
libopenh264.so.8:_ZTIN6WelsVP14CImageRotatingE
libopenh264.so.8:_ZTIN6WelsVP15CVAACalculationE
libopenh264.so.8:_ZTIN6WelsVP16CScrollDetectionE
libopenh264.so.8:_ZTIN6WelsVP19CComplexityAnalysisE
libopenh264.so.8:_ZTIN6WelsVP20CBackgroundDetectionE
libopenh264.so.8:_ZTIN6WelsVP21CAdaptiveQuantizationE
libopenh264.so.8:_ZTIN6WelsVP25CComplexityAnalysisScreenE
libopenh264.so.8:_ZTIN6WelsVP9CDenoiserE
libopenh264.so.8:_ZTIN7WelsDec12CWelsDecoderE
libopenh264.so.8:_ZTIN7WelsEnc13CWelsBaseTaskE
libopenh264.so.8:_ZTIN7WelsEnc15CWelsPreProcessE
libopenh264.so.8:_ZTIN7WelsEnc19CWelsH264SVCEncoderE
libopenh264.so.8:_ZTIN7WelsEnc19CWelsTaskManageBaseE
libopenh264.so.8:_ZTIN7WelsEnc20CWelsPreProcessVideoE
libopenh264.so.8:_ZTIN7WelsEnc20CWelsUpdateMbMapTaskE
libopenh264.so.8:_ZTIN7WelsEnc21CWelsPreProcessScreenE
libopenh264.so.8:_ZTIN7WelsEnc21CWelsReference_ScreenE
libopenh264.so.8:_ZTIN7WelsEnc22CWelsSliceEncodingTaskE
libopenh264.so.8:_ZTIN7WelsEnc27CWelsParametersetIdConstantE
libopenh264.so.8:_ZTIN7WelsEnc27CWelsParametersetSpsListingE
libopenh264.so.8:_ZTIN7WelsEnc28CWelsReference_TemporalLayerE
libopenh264.so.8:_ZTIN7WelsEnc29CWelsParametersetIdIncreasingE
libopenh264.so.8:_ZTIN7WelsEnc30CWelsParametersetIdNonConstantE
libopenh264.so.8:_ZTIN7WelsEnc30CWelsParametersetSpsPpsListingE
libopenh264.so.8:_ZTIN7WelsEnc30CWelsReference_LosslessWithLtrE
libopenh264.so.8:_ZTIN7WelsEnc37CWelsLoadBalancingSlicingEncodingTaskE
libopenh264.so.8:_ZTIN7WelsEnc39CWelsConstrainedSizeSlicingEncodingTaskE
libopenh264.so.8:_ZTIN7WelsEnc40CWelsParametersetSpsListingPpsIncreasingE
libopenh264.so.8:_ZTSN10WelsCommon11CWelsThreadE
libopenh264.so.8:_ZTSN10WelsCommon12CMemoryAlignE
libopenh264.so.8:_ZTSN10WelsCommon15CWelsTaskThreadE
libopenh264.so.8:_ZTSN10WelsCommon15CWelsThreadPoolE
libopenh264.so.8:_ZTSN6WelsVP12CVpFrameWorkE
libopenh264.so.8:_ZTSN6WelsVP13CDownsamplingE
libopenh264.so.8:_ZTSN6WelsVP14CImageRotatingE
libopenh264.so.8:_ZTSN6WelsVP15CVAACalculationE
libopenh264.so.8:_ZTSN6WelsVP16CScrollDetectionE
libopenh264.so.8:_ZTSN6WelsVP19CComplexityAnalysisE
libopenh264.so.8:_ZTSN6WelsVP20CBackgroundDetectionE
libopenh264.so.8:_ZTSN6WelsVP21CAdaptiveQuantizationE
libopenh264.so.8:_ZTSN6WelsVP25CComplexityAnalysisScreenE
libopenh264.so.8:_ZTSN6WelsVP9CDenoiserE
libopenh264.so.8:_ZTSN7WelsDec12CWelsDecoderE
libopenh264.so.8:_ZTSN7WelsEnc13CWelsBaseTaskE
libopenh264.so.8:_ZTSN7WelsEnc15CWelsPreProcessE
libopenh264.so.8:_ZTSN7WelsEnc19CWelsH264SVCEncoderE
libopenh264.so.8:_ZTSN7WelsEnc19CWelsTaskManageBaseE
libopenh264.so.8:_ZTSN7WelsEnc20CWelsPreProcessVideoE
libopenh264.so.8:_ZTSN7WelsEnc20CWelsUpdateMbMapTaskE
libopenh264.so.8:_ZTSN7WelsEnc21CWelsPreProcessScreenE
libopenh264.so.8:_ZTSN7WelsEnc21CWelsReference_ScreenE
libopenh264.so.8:_ZTSN7WelsEnc22CWelsSliceEncodingTaskE
libopenh264.so.8:_ZTSN7WelsEnc27CWelsParametersetIdConstantE
libopenh264.so.8:_ZTSN7WelsEnc27CWelsParametersetSpsListingE
libopenh264.so.8:_ZTSN7WelsEnc28CWelsReference_TemporalLayerE
libopenh264.so.8:_ZTSN7WelsEnc29CWelsParametersetIdIncreasingE
libopenh264.so.8:_ZTSN7WelsEnc30CWelsParametersetIdNonConstantE
libopenh264.so.8:_ZTSN7WelsEnc30CWelsParametersetSpsPpsListingE
libopenh264.so.8:_ZTSN7WelsEnc30CWelsReference_LosslessWithLtrE
libopenh264.so.8:_ZTSN7WelsEnc37CWelsLoadBalancingSlicingEncodingTaskE
libopenh264.so.8:_ZTSN7WelsEnc39CWelsConstrainedSizeSlicingEncodingTaskE
libopenh264.so.8:_ZTSN7WelsEnc40CWelsParametersetSpsListingPpsIncreasingE
libopenh264.so.8:_ZTVN10WelsCommon11CWelsThreadE
libopenh264.so.8:_ZTVN10WelsCommon12CMemoryAlignE
libopenh264.so.8:_ZTVN10WelsCommon15CWelsTaskThreadE
libopenh264.so.8:_ZTVN10WelsCommon15CWelsThreadPoolE
libopenh264.so.8:_ZTVN6WelsVP12CVpFrameWorkE
libopenh264.so.8:_ZTVN6WelsVP13CDownsamplingE
libopenh264.so.8:_ZTVN6WelsVP14CImageRotatingE
libopenh264.so.8:_ZTVN6WelsVP15CVAACalculationE
libopenh264.so.8:_ZTVN6WelsVP16CScrollDetectionE
libopenh264.so.8:_ZTVN6WelsVP19CComplexityAnalysisE
libopenh264.so.8:_ZTVN6WelsVP20CBackgroundDetectionE
libopenh264.so.8:_ZTVN6WelsVP21CAdaptiveQuantizationE
libopenh264.so.8:_ZTVN6WelsVP25CComplexityAnalysisScreenE
libopenh264.so.8:_ZTVN6WelsVP9CDenoiserE
libopenh264.so.8:_ZTVN7WelsDec12CWelsDecoderE
libopenh264.so.8:_ZTVN7WelsEnc13CWelsBaseTaskE
libopenh264.so.8:_ZTVN7WelsEnc15CWelsPreProcessE
libopenh264.so.8:_ZTVN7WelsEnc19CWelsH264SVCEncoderE
libopenh264.so.8:_ZTVN7WelsEnc19CWelsTaskManageBaseE
libopenh264.so.8:_ZTVN7WelsEnc20CWelsPreProcessVideoE
libopenh264.so.8:_ZTVN7WelsEnc20CWelsUpdateMbMapTaskE
libopenh264.so.8:_ZTVN7WelsEnc21CWelsPreProcessScreenE
libopenh264.so.8:_ZTVN7WelsEnc21CWelsReference_ScreenE
libopenh264.so.8:_ZTVN7WelsEnc22CWelsSliceEncodingTaskE
libopenh264.so.8:_ZTVN7WelsEnc27CWelsParametersetIdConstantE
libopenh264.so.8:_ZTVN7WelsEnc27CWelsParametersetSpsListingE
libopenh264.so.8:_ZTVN7WelsEnc28CWelsReference_TemporalLayerE
libopenh264.so.8:_ZTVN7WelsEnc29CWelsParametersetIdIncreasingE
libopenh264.so.8:_ZTVN7WelsEnc30CWelsParametersetIdNonConstantE
libopenh264.so.8:_ZTVN7WelsEnc30CWelsParametersetSpsPpsListingE
libopenh264.so.8:_ZTVN7WelsEnc30CWelsReference_LosslessWithLtrE
libopenh264.so.8:_ZTVN7WelsEnc37CWelsLoadBalancingSlicingEncodingTaskE
libopenh264.so.8:_ZTVN7WelsEnc39CWelsConstrainedSizeSlicingEncodingTaskE
libopenh264.so.8:_ZTVN7WelsEnc40CWelsParametersetSpsListingPpsIncreasingE
libopenh264.so.8:_ZThn120_N10WelsCommon15CWelsThreadPool10OnTaskStopEPNS_15CWelsTaskThreadEPNS_9IWelsTaskE
libopenh264.so.8:_ZThn120_N10WelsCommon15CWelsThreadPool11OnTaskStartEPNS_15CWelsTaskThreadEPNS_9IWelsTaskE
libopenh264.so.8:_ZThn8_N7WelsEnc19CWelsTaskManageBase14OnTaskExecutedEv
libopenh264.so.8:_ZThn8_N7WelsEnc19CWelsTaskManageBase15OnTaskCancelledEv
