UNKNOWN:_ZNSt7__cxx1112basic_stringIcSt11char_traitsIcESaIcEE15_M_replace_coldEPcmPKcmm
libKF6ColorScheme.so.6:_ZN19KColorSchemeManager14activateSchemeERK11QModelIndex
libKF6ColorScheme.so.6:_ZN19KColorSchemeManager18setAutosaveChangesEb
libKF6ColorScheme.so.6:_ZN19KColorSchemeManager8instanceEv
libKF6ColorScheme.so.6:_ZNK19KColorSchemeManager14activeSchemeIdEv
libKF6ColorScheme.so.6:_ZNK19KColorSchemeManager16indexForSchemeIdERK7QString
libKF6ColorScheme.so.6:_ZNK19KColorSchemeManager5modelEv
libKF6ConfigCore.so.6:_ZN11KConfigBase5groupERK7QString
libKF6ConfigCore.so.6:_ZN12KConfigGroupC1EP11KConfigBaseRK7QString
libKF6ConfigCore.so.6:_ZN12KConfigGroupD1Ev
libKF6ConfigCore.so.6:_ZN19KCoreConfigSkeleton10ItemDouble11setMaxValueEd
libKF6ConfigCore.so.6:_ZN19KCoreConfigSkeleton10ItemDouble11setMinValueEd
libKF6ConfigCore.so.6:_ZN19KCoreConfigSkeleton10ItemDoubleC1ERK7QStringS3_Rdd
libKF6ConfigCore.so.6:_ZN19KCoreConfigSkeleton10ItemStringC1ERK7QStringS3_RS1_S3_NS0_4TypeE
libKF6ConfigCore.so.6:_ZN19KCoreConfigSkeleton11setDefaultsEv
libKF6ConfigCore.so.6:_ZN19KCoreConfigSkeleton11useDefaultsEb
libKF6ConfigCore.so.6:_ZN19KCoreConfigSkeleton14ItemStringListC1ERK7QStringS3_R5QListIS1_ERKS5_
libKF6ConfigCore.so.6:_ZN19KCoreConfigSkeleton14usrSetDefaultsEv
libKF6ConfigCore.so.6:_ZN19KCoreConfigSkeleton14usrUseDefaultsEb
libKF6ConfigCore.so.6:_ZN19KCoreConfigSkeleton15setCurrentGroupERK7QString
libKF6ConfigCore.so.6:_ZN19KCoreConfigSkeleton4readEv
libKF6ConfigCore.so.6:_ZN19KCoreConfigSkeleton4saveEv
libKF6ConfigCore.so.6:_ZN19KCoreConfigSkeleton6configEv
libKF6ConfigCore.so.6:_ZN19KCoreConfigSkeleton7ItemInt11setMaxValueEi
libKF6ConfigCore.so.6:_ZN19KCoreConfigSkeleton7ItemInt11setMinValueEi
libKF6ConfigCore.so.6:_ZN19KCoreConfigSkeleton7ItemIntC1ERK7QStringS3_Rii
libKF6ConfigCore.so.6:_ZN19KCoreConfigSkeleton7addItemEP19KConfigSkeletonItemRK7QString
libKF6ConfigCore.so.6:_ZN19KCoreConfigSkeleton7usrReadEv
libKF6ConfigCore.so.6:_ZN19KCoreConfigSkeleton7usrSaveEv
libKF6ConfigCore.so.6:_ZN19KCoreConfigSkeleton8ItemBoolC1ERK7QStringS3_Rbb
libKF6ConfigCore.so.6:_ZN19KCoreConfigSkeleton8ItemEnumC1ERK7QStringS3_RiRK5QListINS0_6ChoiceEEi
libKF6ConfigCore.so.6:_ZN19KCoreConfigSkeletonD2Ev
libKF6ConfigCore.so.6:_ZN29KConfigCompilerSignallingItem13setWriteFlagsE6QFlagsIN11KConfigBase15WriteConfigFlagEE
libKF6ConfigCore.so.6:_ZN29KConfigCompilerSignallingItem8setGroupERK12KConfigGroup
libKF6ConfigCore.so.6:_ZN29KConfigCompilerSignallingItemC1EP19KConfigSkeletonItemP7QObjectMS2_FvyEy
libKF6ConfigCore.so.6:_ZNK19KConfigSkeletonItem10getDefaultEv
libKF6ConfigCore.so.6:_ZNK19KCoreConfigSkeleton11isImmutableERK7QString
libKF6ConfigCore.so.6:_ZNK19KCoreConfigSkeleton12currentGroupEv
libKF6ConfigCore.so.6:_ZNK19KCoreConfigSkeleton8findItemERK7QString
libKF6ConfigGui.so.6:_ZN15KConfigSkeleton11qt_metacallEN11QMetaObject4CallEiPPv
libKF6ConfigGui.so.6:_ZN15KConfigSkeleton11qt_metacastEPKc
libKF6ConfigGui.so.6:_ZN15KConfigSkeleton16staticMetaObjectE
libKF6ConfigGui.so.6:_ZN15KConfigSkeleton9ItemColorC1ERK7QStringS3_R6QColorRKS4_
libKF6ConfigGui.so.6:_ZN15KConfigSkeletonC2ERK7QStringP7QObject
libKF6ConfigGui.so.6:_ZTI15KConfigSkeleton
libKF6CoreAddons.so.6:_ZN10KAboutData11setHomepageERK7QString
libKF6CoreAddons.so.6:_ZN10KAboutData13setBugAddressERK10QByteArray
libKF6CoreAddons.so.6:_ZN10KAboutData13setTranslatorERK7QStringS2_
libKF6CoreAddons.so.6:_ZN10KAboutData14setProgramLogoERK8QVariant
libKF6CoreAddons.so.6:_ZN10KAboutData16setupCommandLineEP18QCommandLineParser
libKF6CoreAddons.so.6:_ZN10KAboutData18processCommandLineEP18QCommandLineParser
libKF6CoreAddons.so.6:_ZN10KAboutData18setApplicationDataERKS_
libKF6CoreAddons.so.6:_ZN10KAboutData18setDesktopFileNameERK7QString
libKF6CoreAddons.so.6:_ZN10KAboutData21setOrganizationDomainERK10QByteArray
libKF6CoreAddons.so.6:_ZN10KAboutData9addAuthorERK7QStringS2_S2_S2_RK4QUrl
libKF6CoreAddons.so.6:_ZN10KAboutDataC1ERK7QStringS2_S2_S2_N13KAboutLicense10LicenseKeyES2_S2_S2_S2_
libKF6CoreAddons.so.6:_ZN10KAboutDataD1Ev
libKF6I18n.so.6:_Z5ki18nPKc
libKF6I18n.so.6:_Z6ki18ncPKcS0_
libKF6I18n.so.6:_ZN16KLocalizedString12setLanguagesERK5QListI7QStringE
libKF6I18n.so.6:_ZN16KLocalizedString20setApplicationDomainERK10QByteArray
libKF6I18n.so.6:_ZN16KLocalizedStringD1Ev
libKF6I18n.so.6:_ZN17KLocalizedContextC1EP7QObject
libKF6I18n.so.6:_ZNK16KLocalizedString8toStringEv
libKF6IconThemes.so.6:_ZN10KIconTheme9initThemeEv
libQt6Core.so.6:_Z20qEnvironmentVariablePKc
libQt6Core.so.6:_Z21qRegisterResourceDataiPKhS0_S0_
libQt6Core.so.6:_Z23qUnregisterResourceDataiPKhS0_S0_
libQt6Core.so.6:_Z26qt_QMetaEnum_debugOperatorR6QDebugxPK11QMetaObjectPKc
libQt6Core.so.6:_Z27qEnvironmentVariableIsEmptyPKc
libQt6Core.so.6:_Z53qRegisterNormalizedMetaType_QPairVariantInterfaceImplRK10QByteArray
libQt6Core.so.6:_Z5qHash11QStringViewm
libQt6Core.so.6:_Z7qputenvPKc14QByteArrayView
libQt6Core.so.6:_Z9qBadAllocv
libQt6Core.so.6:_ZN10QArrayData10deallocateEPS_xx
libQt6Core.so.6:_ZN10QArrayData19reallocateUnalignedEPS_PvxxNS_16AllocationOptionE
libQt6Core.so.6:_ZN10QArrayData8allocateEPPS_xxxNS_16AllocationOptionE
libQt6Core.so.6:_ZN10QByteArray11reallocDataExN10QArrayData16AllocationOptionE
libQt6Core.so.6:_ZN10QByteArray6appendEc
libQt6Core.so.6:_ZN10QByteArray6insertEx14QByteArrayView
libQt6Core.so.6:_ZN10QByteArrayC1EPKcx
libQt6Core.so.6:_ZN11QDataStream11resetStatusEv
libQt6Core.so.6:_ZN11QDataStream9setStatusENS_6StatusE
libQt6Core.so.6:_ZN11QDataStreamlsEd
libQt6Core.so.6:_ZN11QDataStreamlsEf
libQt6Core.so.6:_ZN11QDataStreamlsEi
libQt6Core.so.6:_ZN11QDataStreamlsEx
libQt6Core.so.6:_ZN11QDataStreamrsERd
libQt6Core.so.6:_ZN11QDataStreamrsERf
libQt6Core.so.6:_ZN11QDataStreamrsERi
libQt6Core.so.6:_ZN11QDataStreamrsERx
libQt6Core.so.6:_ZN11QMetaObject10ConnectionD1Ev
libQt6Core.so.6:_ZN11QMetaObject14normalizedTypeEPKc
libQt6Core.so.6:_ZN11QMetaObject16invokeMethodImplEP7QObjectPN9QtPrivate15QSlotObjectBaseEN2Qt14ConnectionTypeExPKPKvPKPKcPKPKNS2_18QMetaTypeInterfaceE
libQt6Core.so.6:_ZN11QMetaObject8activateEP7QObjectPKS_iPPv
libQt6Core.so.6:_ZN11QTextStreamlsERK7QString
libQt6Core.so.6:_ZN11QTextStreamlsEc
libQt6Core.so.6:_ZN11QTextStreamlsEd
libQt6Core.so.6:_ZN11QTextStreamlsEf
libQt6Core.so.6:_ZN11QTextStreamlsEi
libQt6Core.so.6:_ZN14QStandardPaths16writableLocationENS_16StandardLocationE
libQt6Core.so.6:_ZN14QStandardPaths17standardLocationsENS_16StandardLocationE
libQt6Core.so.6:_ZN16QCoreApplication11aboutToQuitENS_14QPrivateSignalE
libQt6Core.so.6:_ZN16QCoreApplication12setAttributeEN2Qt20ApplicationAttributeEb
libQt6Core.so.6:_ZN16QCoreApplication16staticMetaObjectE
libQt6Core.so.6:_ZN16QCoreApplication4exitEi
libQt6Core.so.6:_ZN16QCoreApplication4quitEv
libQt6Core.so.6:_ZN16QDebugStateSaverC1ER6QDebug
libQt6Core.so.6:_ZN16QDebugStateSaverD1Ev
libQt6Core.so.6:_ZN16QLoggingCategory14setFilterRulesERK7QString
libQt6Core.so.6:_ZN16QLoggingCategoryC1EPKc9QtMsgType
libQt6Core.so.6:_ZN16QLoggingCategoryD1Ev
libQt6Core.so.6:_ZN18QAbstractItemModel10insertRowsEiiRK11QModelIndex
libQt6Core.so.6:_ZN18QAbstractItemModel10removeRowsEiiRK11QModelIndex
libQt6Core.so.6:_ZN18QAbstractItemModel11dataChangedERK11QModelIndexS2_RK5QListIiE
libQt6Core.so.6:_ZN18QAbstractItemModel11moveColumnsERK11QModelIndexiiS2_i
libQt6Core.so.6:_ZN18QAbstractItemModel11setItemDataERK11QModelIndexRK4QMapIi8QVariantE
libQt6Core.so.6:_ZN18QAbstractItemModel13clearItemDataERK11QModelIndex
libQt6Core.so.6:_ZN18QAbstractItemModel13endInsertRowsEv
libQt6Core.so.6:_ZN18QAbstractItemModel13endRemoveRowsEv
libQt6Core.so.6:_ZN18QAbstractItemModel13endResetModelEv
libQt6Core.so.6:_ZN18QAbstractItemModel13insertColumnsEiiRK11QModelIndex
libQt6Core.so.6:_ZN18QAbstractItemModel13removeColumnsEiiRK11QModelIndex
libQt6Core.so.6:_ZN18QAbstractItemModel13setHeaderDataEiN2Qt11OrientationERK8QVarianti
libQt6Core.so.6:_ZN18QAbstractItemModel15beginInsertRowsERK11QModelIndexii
libQt6Core.so.6:_ZN18QAbstractItemModel15beginRemoveRowsERK11QModelIndexii
libQt6Core.so.6:_ZN18QAbstractItemModel15beginResetModelEv
libQt6Core.so.6:_ZN18QAbstractItemModel16staticMetaObjectE
libQt6Core.so.6:_ZN18QAbstractItemModel17resetInternalDataEv
libQt6Core.so.6:_ZN18QAbstractItemModel4sortEiN2Qt9SortOrderE
libQt6Core.so.6:_ZN18QAbstractItemModel6revertEv
libQt6Core.so.6:_ZN18QAbstractItemModel6submitEv
libQt6Core.so.6:_ZN18QAbstractItemModel7setDataERK11QModelIndexRK8QVarianti
libQt6Core.so.6:_ZN18QAbstractItemModel8moveRowsERK11QModelIndexiiS2_i
libQt6Core.so.6:_ZN18QAbstractItemModel9fetchMoreERK11QModelIndex
libQt6Core.so.6:_ZN18QAbstractListModel11qt_metacallEN11QMetaObject4CallEiPPv
libQt6Core.so.6:_ZN18QAbstractListModel11qt_metacastEPKc
libQt6Core.so.6:_ZN18QAbstractListModel12dropMimeDataEPK9QMimeDataN2Qt10DropActionEiiRK11QModelIndex
libQt6Core.so.6:_ZN18QAbstractListModel16staticMetaObjectE
libQt6Core.so.6:_ZN18QAbstractListModelC2EP7QObject
libQt6Core.so.6:_ZN18QAbstractListModelD2Ev
libQt6Core.so.6:_ZN18QCommandLineOptionC1ERK5QListI7QStringERKS1_S6_S6_
libQt6Core.so.6:_ZN18QCommandLineOptionC1ERK7QStringS2_S2_S2_
libQt6Core.so.6:_ZN18QCommandLineOptionC1ERKS_
libQt6Core.so.6:_ZN18QCommandLineOptionD1Ev
libQt6Core.so.6:_ZN18QCommandLineParser10addOptionsERK5QListI18QCommandLineOptionE
libQt6Core.so.6:_ZN18QCommandLineParser25setApplicationDescriptionERK7QString
libQt6Core.so.6:_ZN18QCommandLineParser7processERK16QCoreApplication
libQt6Core.so.6:_ZN18QCommandLineParserC1Ev
libQt6Core.so.6:_ZN18QCommandLineParserD1Ev
libQt6Core.so.6:_ZN18QFileSystemWatcher16directoryChangedERK7QStringNS_14QPrivateSignalE
libQt6Core.so.6:_ZN18QFileSystemWatcher16staticMetaObjectE
libQt6Core.so.6:_ZN18QFileSystemWatcher7addPathERK7QString
libQt6Core.so.6:_ZN18QFileSystemWatcherC1EP7QObject
libQt6Core.so.6:_ZN18QFileSystemWatcherD1Ev
libQt6Core.so.6:_ZN18QRegularExpressionC1ERK7QString6QFlagsINS_13PatternOptionEE
libQt6Core.so.6:_ZN18QRegularExpressionD1Ev
libQt6Core.so.6:_ZN19QProcessEnvironment17systemEnvironmentEv
libQt6Core.so.6:_ZN19QProcessEnvironmentD1Ev
libQt6Core.so.6:_ZN21QSortFilterProxyModel11setSortRoleEi
libQt6Core.so.6:_ZN21QSortFilterProxyModel13setFilterRoleEi
libQt6Core.so.6:_ZN21QSortFilterProxyModel16staticMetaObjectE
libQt6Core.so.6:_ZN21QSortFilterProxyModel20setDynamicSortFilterEb
libQt6Core.so.6:_ZN21QSortFilterProxyModel22setSortCaseSensitivityEN2Qt15CaseSensitivityE
libQt6Core.so.6:_ZN21QSortFilterProxyModel26setFilterRegularExpressionERK18QRegularExpression
libQt6Core.so.6:_ZN21QSortFilterProxyModelC1EP7QObject
libQt6Core.so.6:_ZN23QRegularExpressionMatchD1Ev
libQt6Core.so.6:_ZN4QDir9cleanPathERK7QString
libQt6Core.so.6:_ZN4QDirC1ERK7QString
libQt6Core.so.6:_ZN4QDirD1Ev
libQt6Core.so.6:_ZN4QUrlC1ERK7QStringNS_11ParsingModeE
libQt6Core.so.6:_ZN4QUrlC1ERKS_
libQt6Core.so.6:_ZN4QUrlC1Ev
libQt6Core.so.6:_ZN4QUrlD1Ev
libQt6Core.so.6:_ZN5QFile11moveToTrashERK7QStringPS0_
libQt6Core.so.6:_ZN6QDebug12putByteArrayEPKcmNS_13Latin1ContentE
libQt6Core.so.6:_ZN6QDebug9putStringEPK5QCharm
libQt6Core.so.6:_ZN6QDebugD1Ev
libQt6Core.so.6:_ZN6QTimer11setIntervalEi
libQt6Core.so.6:_ZN6QTimer14singleShotImplENSt6chrono8durationIlSt5ratioILl1ELl1000000000EEEEN2Qt9TimerTypeEPK7QObjectPN9QtPrivate15QSlotObjectBaseE
libQt6Core.so.6:_ZN6QTimer16staticMetaObjectE
libQt6Core.so.6:_ZN6QTimer4stopEv
libQt6Core.so.6:_ZN6QTimer5startEv
libQt6Core.so.6:_ZN6QTimer7timeoutENS_14QPrivateSignalE
libQt6Core.so.6:_ZN6QTimerC1EP7QObject
libQt6Core.so.6:_ZN7QObject10childEventEP11QChildEvent
libQt6Core.so.6:_ZN7QObject10disconnectEPKS_PKcS1_S3_
libQt6Core.so.6:_ZN7QObject10disconnectERKN11QMetaObject10ConnectionE
libQt6Core.so.6:_ZN7QObject10timerEventEP11QTimerEvent
libQt6Core.so.6:_ZN7QObject11connectImplEPKS_PPvS1_S3_PN9QtPrivate15QSlotObjectBaseEN2Qt14ConnectionTypeEPKiPK11QMetaObject
libQt6Core.so.6:_ZN7QObject11customEventEP6QEvent
libQt6Core.so.6:_ZN7QObject11deleteLaterEv
libQt6Core.so.6:_ZN7QObject11eventFilterEPS_P6QEvent
libQt6Core.so.6:_ZN7QObject11qt_metacallEN11QMetaObject4CallEiPPv
libQt6Core.so.6:_ZN7QObject11qt_metacastEPKc
libQt6Core.so.6:_ZN7QObject12moveToThreadEP7QThreadN2Qt15Disambiguated_tE
libQt6Core.so.6:_ZN7QObject13connectNotifyERK11QMetaMethod
libQt6Core.so.6:_ZN7QObject13doSetPropertyEPKcRK8QVariantPS2_
libQt6Core.so.6:_ZN7QObject16disconnectNotifyERK11QMetaMethod
libQt6Core.so.6:_ZN7QObject16staticMetaObjectE
libQt6Core.so.6:_ZN7QObject5eventEP6QEvent
libQt6Core.so.6:_ZN7QObject9setParentEPS_
libQt6Core.so.6:_ZN7QObjectC2EPS_
libQt6Core.so.6:_ZN7QObjectD2Ev
libQt6Core.so.6:_ZN7QString11reallocDataExN10QArrayData16AllocationOptionE
libQt6Core.so.6:_ZN7QString13toUtf8_helperERKS_
libQt6Core.so.6:_ZN7QString14compare_helperEPK5QCharxPKcxN2Qt15CaseSensitivityE
libQt6Core.so.6:_ZN7QString14toLower_helperERKS_
libQt6Core.so.6:_ZN7QString17toIntegral_helperE11QStringViewPbi
libQt6Core.so.6:_ZN7QString18toLocal8Bit_helperEPK5QCharx
libQt6Core.so.6:_ZN7QString6_emptyE
libQt6Core.so.6:_ZN7QString6appendE20QBasicUtf8StringViewILb0EE
libQt6Core.so.6:_ZN7QString6appendERKS_
libQt6Core.so.6:_ZN7QString6assignE14QAnyStringView
libQt6Core.so.6:_ZN7QString6insertEx5QChar
libQt6Core.so.6:_ZN7QString6numberEii
libQt6Core.so.6:_ZN7QString7replaceERKS_S1_N2Qt15CaseSensitivityE
libQt6Core.so.6:_ZN7QString8fromUtf8E14QByteArrayView
libQt6Core.so.6:_ZN7QStringC1EPK5QCharx
libQt6Core.so.6:_ZN7QStringaSERKS_
libQt6Core.so.6:_ZN7QThread16staticMetaObjectE
libQt6Core.so.6:_ZN7QThread4quitEv
libQt6Core.so.6:_ZN7QThread4waitE14QDeadlineTimer
libQt6Core.so.6:_ZN7QThread5startENS_8PriorityE
libQt6Core.so.6:_ZN7QThread8finishedENS_14QPrivateSignalE
libQt6Core.so.6:_ZN7QThreadC1EP7QObject
libQt6Core.so.6:_ZN7QThreadD1Ev
libQt6Core.so.6:_ZN8QVariant12fromMetaTypeE9QMetaTypePKv
libQt6Core.so.6:_ZN8QVariant13moveConstructE9QMetaTypePv
libQt6Core.so.6:_ZN8QVariant4dataEv
libQt6Core.so.6:_ZN8QVariantC1E9QMetaTypePKv
libQt6Core.so.6:_ZN8QVariantC1ERK4QMapI7QStringS_E
libQt6Core.so.6:_ZN8QVariantC1ERK7QString
libQt6Core.so.6:_ZN8QVariantC1ERKS_
libQt6Core.so.6:_ZN8QVariantC1Eb
libQt6Core.so.6:_ZN8QVariantC1Ed
libQt6Core.so.6:_ZN8QVariantC1Ef
libQt6Core.so.6:_ZN8QVariantC1Ei
libQt6Core.so.6:_ZN8QVariantC1Ej
libQt6Core.so.6:_ZN8QVariantC1Ex
libQt6Core.so.6:_ZN8QVariantC2ERK7QString
libQt6Core.so.6:_ZN8QVariantD1Ev
libQt6Core.so.6:_ZN8QVariantaSERKS_
libQt6Core.so.6:_ZN9QHashSeed10globalSeedEv
libQt6Core.so.6:_ZN9QIODevice16staticMetaObjectE
libQt6Core.so.6:_ZN9QIODevice5writeEPKc
libQt6Core.so.6:_ZN9QIODevice5writeERK10QByteArray
libQt6Core.so.6:_ZN9QIODevice7readAllEv
libQt6Core.so.6:_ZN9QIODevice8readLineEPcx
libQt6Core.so.6:_ZN9QIODevice9readyReadEv
libQt6Core.so.6:_ZN9QLockFile16setStaleLockTimeENSt6chrono8durationIlSt5ratioILl1ELl1000EEEE
libQt6Core.so.6:_ZN9QLockFile7tryLockENSt6chrono8durationIlSt5ratioILl1ELl1000EEEE
libQt6Core.so.6:_ZN9QLockFileC1ERK7QString
libQt6Core.so.6:_ZN9QLockFileD1Ev
libQt6Core.so.6:_ZN9QMetaType10canConvertES_S_
libQt6Core.so.6:_ZN9QMetaType14registerHelperEPKN9QtPrivate18QMetaTypeInterfaceE
libQt6Core.so.6:_ZN9QMetaType25registerConverterFunctionERKSt8functionIFbPKvPvEES_S_
libQt6Core.so.6:_ZN9QMetaType25registerNormalizedTypedefERK10QByteArrayS_
libQt6Core.so.6:_ZN9QMetaType27registerMutableViewFunctionERKSt8functionIFbPvS1_EES_S_
libQt6Core.so.6:_ZN9QMetaType27unregisterConverterFunctionES_S_
libQt6Core.so.6:_ZN9QMetaType29unregisterMutableViewFunctionES_S_
libQt6Core.so.6:_ZN9QMetaType7convertES_PKvS_Pv
libQt6Core.so.6:_ZN9QMetaType8fromNameE14QByteArrayView
libQt6Core.so.6:_ZN9QtPrivate12argToQStringE14QAnyStringViewmPPKNS_7ArgBaseE
libQt6Core.so.6:_ZN9QtPrivate12equalStringsE11QStringView13QLatin1String
libQt6Core.so.6:_ZN9QtPrivate12equalStringsE11QStringViewS0_
libQt6Core.so.6:_ZN9QtPrivate14compareStringsE11QStringViewS0_N2Qt15CaseSensitivityE
libQt6Core.so.6:_ZN9QtPrivate16QStringList_joinEPK5QListI7QStringEPK5QCharx
libQt6Core.so.6:_ZN9QtPrivate19QStringList_indexOfERK5QListI7QStringE11QStringViewxN2Qt15CaseSensitivityE
libQt6Core.so.6:_ZN9QtPrivate20QStringList_containsEPK5QListI7QStringE11QStringViewN2Qt15CaseSensitivityE
libQt6Core.so.6:_ZN9QtPrivate25QMetaTypeInterfaceWrapperI11QModelIndexE8metaTypeE
libQt6Core.so.6:_ZN9QtPrivate25QMetaTypeInterfaceWrapperI4QMapI7QString8QVariantEE8metaTypeE
libQt6Core.so.6:_ZN9QtPrivate25QMetaTypeInterfaceWrapperI4QUrlE8metaTypeE
libQt6Core.so.6:_ZN9QtPrivate25QMetaTypeInterfaceWrapperI5QListI7QStringEE8metaTypeE
libQt6Core.so.6:_ZN9QtPrivate25QMetaTypeInterfaceWrapperI5QListI8QVariantEE8metaTypeE
libQt6Core.so.6:_ZN9QtPrivate25QMetaTypeInterfaceWrapperI7QPointFE8metaTypeE
libQt6Core.so.6:_ZN9QtPrivate25QMetaTypeInterfaceWrapperI7QStringE8metaTypeE
libQt6Core.so.6:_ZN9QtPrivate25QMetaTypeInterfaceWrapperI8QVariantE8metaTypeE
libQt6Core.so.6:_ZN9QtPrivate25QMetaTypeInterfaceWrapperIDnE8metaTypeE
libQt6Core.so.6:_ZN9QtPrivate25QMetaTypeInterfaceWrapperIP7QObjectE8metaTypeE
libQt6Core.so.6:_ZN9QtPrivate25QMetaTypeInterfaceWrapperIbE8metaTypeE
libQt6Core.so.6:_ZN9QtPrivate25QMetaTypeInterfaceWrapperIdE8metaTypeE
libQt6Core.so.6:_ZN9QtPrivate25QMetaTypeInterfaceWrapperIfE8metaTypeE
libQt6Core.so.6:_ZN9QtPrivate25QMetaTypeInterfaceWrapperIiE8metaTypeE
libQt6Core.so.6:_ZN9QtPrivate25QMetaTypeInterfaceWrapperIjE8metaTypeE
libQt6Core.so.6:_ZN9QtPrivate25QMetaTypeInterfaceWrapperIyE8metaTypeE
libQt6Core.so.6:_ZN9QtPrivate52hasRegisteredConverterFunctionToIterableMetaSequenceE9QMetaType
libQt6Core.so.6:_ZN9QtPrivate52hasRegisteredConverterFunctionToPairVariantInterfaceE9QMetaType
libQt6Core.so.6:_ZN9QtPrivate54hasRegisteredMutableViewFunctionToIterableMetaSequenceE9QMetaType
libQt6Core.so.6:_ZNK11QDataStream26isDeviceTransactionStartedEv
libQt6Core.so.6:_ZNK11QMetaObject4castEPK7QObject
libQt6Core.so.6:_ZNK11QMetaObject9classNameEv
libQt6Core.so.6:_ZNK11QObjectData17dynamicMetaObjectEv
libQt6Core.so.6:_ZNK14QMessageLogger4infoEv
libQt6Core.so.6:_ZNK14QMessageLogger5debugEv
libQt6Core.so.6:_ZNK14QMessageLogger5fatalEv
libQt6Core.so.6:_ZNK14QMessageLogger7warningEv
libQt6Core.so.6:_ZNK14QMessageLogger8criticalEv
libQt6Core.so.6:_ZNK18QAbstractItemModel10headerDataEiN2Qt11OrientationEi
libQt6Core.so.6:_ZNK18QAbstractItemModel12canFetchMoreERK11QModelIndex
libQt6Core.so.6:_ZNK18QAbstractItemModel15canDropMimeDataEPK9QMimeDataN2Qt10DropActionEiiRK11QModelIndex
libQt6Core.so.6:_ZNK18QAbstractItemModel20supportedDragActionsEv
libQt6Core.so.6:_ZNK18QAbstractItemModel20supportedDropActionsEv
libQt6Core.so.6:_ZNK18QAbstractItemModel4spanERK11QModelIndex
libQt6Core.so.6:_ZNK18QAbstractItemModel5buddyERK11QModelIndex
libQt6Core.so.6:_ZNK18QAbstractItemModel5matchERK11QModelIndexiRK8QVarianti6QFlagsIN2Qt9MatchFlagEE
libQt6Core.so.6:_ZNK18QAbstractItemModel8itemDataERK11QModelIndex
libQt6Core.so.6:_ZNK18QAbstractItemModel8mimeDataERK5QListI11QModelIndexE
libQt6Core.so.6:_ZNK18QAbstractItemModel9mimeTypesEv
libQt6Core.so.6:_ZNK18QAbstractItemModel9multiDataERK11QModelIndex18QModelRoleDataSpan
libQt6Core.so.6:_ZNK18QAbstractListModel11columnCountERK11QModelIndex
libQt6Core.so.6:_ZNK18QAbstractListModel11hasChildrenERK11QModelIndex
libQt6Core.so.6:_ZNK18QAbstractListModel5flagsERK11QModelIndex
libQt6Core.so.6:_ZNK18QAbstractListModel5indexEiiRK11QModelIndex
libQt6Core.so.6:_ZNK18QAbstractListModel6parentERK11QModelIndex
libQt6Core.so.6:_ZNK18QAbstractListModel7siblingEiiRK11QModelIndex
libQt6Core.so.6:_ZNK18QCommandLineParser5isSetERK7QString
libQt6Core.so.6:_ZNK18QCommandLineParser5valueERK7QString
libQt6Core.so.6:_ZNK18QRegularExpression5matchERK7QStringxNS_9MatchTypeE6QFlagsINS_11MatchOptionEE
libQt6Core.so.6:_ZNK19QProcessEnvironment5valueERK7QStringS2_
libQt6Core.so.6:_ZNK23QRegularExpressionMatch8capturedEi
libQt6Core.so.6:_ZNK23QRegularExpressionMatch8hasMatchEv
libQt6Core.so.6:_ZNK4QDir13canonicalPathEv
libQt6Core.so.6:_ZNK4QUrl11isLocalFileEv
libQt6Core.so.6:_ZNK4QUrl11toLocalFileEv
libQt6Core.so.6:_ZNK4QUrl4pathE6QFlagsINS_25ComponentFormattingOptionEE
libQt6Core.so.6:_ZNK4QUrl6schemeEv
libQt6Core.so.6:_ZNK4QUrl8toStringE12QUrlTwoFlagsINS_19UrlFormattingOptionENS_25ComponentFormattingOptionEE
libQt6Core.so.6:_ZNK7QObject6senderEv
libQt6Core.so.6:_ZNK7QObject8propertyEPKc
libQt6Core.so.6:_ZNK7QString10startsWithE5QCharN2Qt15CaseSensitivityE
libQt6Core.so.6:_ZNK7QString10startsWithERKS_N2Qt15CaseSensitivityE
libQt6Core.so.6:_ZNK7QString11lastIndexOfERKS_xN2Qt15CaseSensitivityE
libQt6Core.so.6:_ZNK7QString11toStdStringB5cxx11Ev
libQt6Core.so.6:_ZNK7QString5splitE5QChar6QFlagsIN2Qt18SplitBehaviorFlagsEENS2_15CaseSensitivityE
libQt6Core.so.6:_ZNK7QString5splitERKS_6QFlagsIN2Qt18SplitBehaviorFlagsEENS3_15CaseSensitivityE
libQt6Core.so.6:_ZNK7QString7indexOfERKS_xN2Qt15CaseSensitivityE
libQt6Core.so.6:_ZNK7QString8arg_implE14QAnyStringViewi5QChar
libQt6Core.so.6:_ZNK7QString8arg_implExii5QChar
libQt6Core.so.6:_ZNK7QString8endsWithERKS_N2Qt15CaseSensitivityE
libQt6Core.so.6:_ZNK7QString8toDoubleEPb
libQt6Core.so.6:_ZNK8QVariant12qdebugHelperE6QDebug
libQt6Core.so.6:_ZNK8QVariant6equalsERKS_
libQt6Core.so.6:_ZNK8QVariant6toBoolEv
libQt6Core.so.6:_ZNK8QVariant8toStringEv
libQt6Core.so.6:_ZNK9QLockFile5errorEv
libQt6Core.so.6:_ZNK9QLockFile8fileNameEv
libQt6Core.so.6:_ZNK9QLockFile8isLockedEv
libQt6Core.so.6:_ZNK9QMetaType8destructEPv
libQt6Core.so.6:_ZNK9QMetaType9constructEPvPKv
libQt6Core.so.6:_ZTI18QAbstractListModel
libQt6Core.so.6:_ZTI7QObject
libQt6Core.so.6:_Zls6QDebugRK7QPointF
libQt6Core.so.6:_ZlsR11QDataStreamRK7QPointF
libQt6Core.so.6:_ZlsR11QDataStreamRK7QString
libQt6Core.so.6:_ZlsR11QDataStreamRK8QVariant
libQt6Core.so.6:_ZrsR11QDataStreamR7QPointF
libQt6Core.so.6:_ZrsR11QDataStreamR7QString
libQt6Core.so.6:_ZrsR11QDataStreamR8QVariant
libQt6Core.so.6:qt_resourceFeatureZstd
libQt6Core.so.6:qt_version_tag
libQt6DBus.so.6:_Z40qRegisterNormalizedMetaType_QDBusVariantRK10QByteArray
libQt6DBus.so.6:_Z43qRegisterNormalizedMetaType_QDBusObjectPathRK10QByteArray
libQt6DBus.so.6:_ZN12QDBusMessage12setArgumentsERK5QListI8QVariantE
libQt6DBus.so.6:_ZN12QDBusMessage16createMethodCallERK7QStringS2_S2_S2_
libQt6DBus.so.6:_ZN12QDBusMessageD1Ev
libQt6DBus.so.6:_ZN13QDBusArgument10beginArrayE9QMetaType
libQt6DBus.so.6:_ZN13QDBusArgument11endMapEntryEv
libQt6DBus.so.6:_ZN13QDBusArgument12endStructureEv
libQt6DBus.so.6:_ZN13QDBusArgument13beginMapEntryEv
libQt6DBus.so.6:_ZN13QDBusArgument14beginStructureEv
libQt6DBus.so.6:_ZN13QDBusArgument6endMapEv
libQt6DBus.so.6:_ZN13QDBusArgument8beginMapE9QMetaTypeS0_
libQt6DBus.so.6:_ZN13QDBusArgument8endArrayEv
libQt6DBus.so.6:_ZN13QDBusArgumentlsERK12QDBusVariant
libQt6DBus.so.6:_ZN13QDBusArgumentlsERK7QString
libQt6DBus.so.6:_ZN13QDBusMetaType25registerMarshallOperatorsE9QMetaTypePFvR13QDBusArgumentPKvEPFvRKS1_PvE
libQt6DBus.so.6:_ZN15QDBusConnection10disconnectERK7QStringS2_S2_S2_P7QObjectPKc
libQt6DBus.so.6:_ZN15QDBusConnection10sessionBusEv
libQt6DBus.so.6:_ZN15QDBusConnection7connectERK7QStringS2_S2_S2_P7QObjectPKc
libQt6DBus.so.6:_ZN15QDBusConnectionD1Ev
libQt6DBus.so.6:_ZN15QDBusObjectPath7doCheckEv
libQt6DBus.so.6:_ZNK12QDBusMessage12errorMessageEv
libQt6DBus.so.6:_ZNK12QDBusMessage4typeEv
libQt6DBus.so.6:_ZNK12QDBusMessage9argumentsEv
libQt6DBus.so.6:_ZNK13QDBusArgument10beginArrayEv
libQt6DBus.so.6:_ZNK13QDBusArgument11endMapEntryEv
libQt6DBus.so.6:_ZNK13QDBusArgument12endStructureEv
libQt6DBus.so.6:_ZNK13QDBusArgument13beginMapEntryEv
libQt6DBus.so.6:_ZNK13QDBusArgument14beginStructureEv
libQt6DBus.so.6:_ZNK13QDBusArgument5atEndEv
libQt6DBus.so.6:_ZNK13QDBusArgument6endMapEv
libQt6DBus.so.6:_ZNK13QDBusArgument8beginMapEv
libQt6DBus.so.6:_ZNK13QDBusArgument8endArrayEv
libQt6DBus.so.6:_ZNK13QDBusArgumentrsER7QString
libQt6DBus.so.6:_ZNK15QDBusConnection4callERK12QDBusMessageN5QDBus8CallModeEi
libQt6DBus.so.6:_ZNK15QDBusObjectPathcv8QVariantEv
libQt6DBus.so.6:_Zls6QDebugRK15QDBusObjectPath
libQt6DBus.so.6:_ZrsRK13QDBusArgumentR8QVariant
libQt6Gui.so.6:_ZN15QGuiApplication13setWindowIconERK5QIcon
libQt6Gui.so.6:_ZN15QGuiApplication25setQuitOnLastWindowClosedEb
libQt6Gui.so.6:_ZN5QIcon9fromThemeERK7QString
libQt6Gui.so.6:_ZN5QIconD1Ev
libQt6Gui.so.6:_ZN6QColor10fromStringE14QAnyStringView
libQt6Gui.so.6:_ZN7QWindow14visibleChangedEb
libQt6Gui.so.6:_ZN7QWindow15requestActivateEv
libQt6Gui.so.6:_ZN7QWindow16staticMetaObjectE
libQt6Gui.so.6:_ZN7QWindow4hideEv
libQt6Gui.so.6:_ZN7QWindow4showEv
libQt6Gui.so.6:_ZN7QWindow5closeEv
libQt6Gui.so.6:_ZN7QWindow5raiseEv
libQt6Gui.so.6:_ZNK6QColoreqERKS_
libQt6Gui.so.6:_ZNK6QColorneERKS_
libQt6Gui.so.6:_Zls6QDebugRK6QColor
libQt6Gui.so.6:_ZlsR11QDataStreamRK6QColor
libQt6Gui.so.6:_ZrsR11QDataStreamR6QColor
libQt6Network.so.6:_ZN12QLocalServer12removeServerERK7QString
libQt6Network.so.6:_ZN12QLocalServer13newConnectionEv
libQt6Network.so.6:_ZN12QLocalServer16staticMetaObjectE
libQt6Network.so.6:_ZN12QLocalServer5closeEv
libQt6Network.so.6:_ZN12QLocalServer6listenERK7QString
libQt6Network.so.6:_ZN12QLocalServerC1EP7QObject
libQt6Network.so.6:_ZN12QLocalSocket12disconnectedEv
libQt6Network.so.6:_ZN12QLocalSocket15connectToServerERK7QString6QFlagsIN13QIODeviceBase12OpenModeFlagEE
libQt6Network.so.6:_ZN12QLocalSocket16staticMetaObjectE
libQt6Network.so.6:_ZN12QLocalSocket16waitForConnectedEi
libQt6Network.so.6:_ZN12QLocalSocket5flushEv
libQt6Network.so.6:_ZN12QLocalSocketC1EP7QObject
libQt6Qml.so.6:_Z17qmlRegisterModulePKcii
libQt6Qml.so.6:_ZN10QQmlEngine18trimComponentCacheEv
libQt6Qml.so.6:_ZN11QQmlContext16setContextObjectEP7QObject
libQt6Qml.so.6:_ZN11QQmlPrivate11qmlregisterENS_16RegistrationTypeEPv
libQt6Qml.so.6:_ZN11QQmlPrivate13qmlunregisterENS_16RegistrationTypeEy
libQt6Qml.so.6:_ZN11QQmlPrivate18AOTCompiledContext4markEP7QObjectPN3QV49MarkStackE
libQt6Qml.so.6:_ZN11QQmlPrivate18AOTCompiledContext4markERK8QVariantPN3QV49MarkStackE
libQt6Qml.so.6:_ZN11QQmlPrivate30qdeclarativeelement_destructorEP7QObject
libQt6Qml.so.6:_ZN15QJSManagedValueC1EOS_
libQt6Qml.so.6:_ZN15QJSManagedValueD1Ev
libQt6Qml.so.6:_ZN17QJSPrimitiveValue8toStringEd
libQt6Qml.so.6:_ZN21QQmlApplicationEngine13objectCreatedEP7QObjectRK4QUrl
libQt6Qml.so.6:_ZN21QQmlApplicationEngine14loadFromModuleE14QAnyStringViewS0_
libQt6Qml.so.6:_ZN21QQmlApplicationEngine16staticMetaObjectE
libQt6Qml.so.6:_ZN21QQmlApplicationEngine20setInitialPropertiesERK4QMapI7QString8QVariantE
libQt6Qml.so.6:_ZN21QQmlApplicationEngineC1EP7QObject
libQt6Qml.so.6:_ZN21QQmlApplicationEngineD1Ev
libQt6Qml.so.6:_ZN22QQmlModuleRegistrationC1EPKcPFvvE
libQt6Qml.so.6:_ZN22QQmlModuleRegistrationD1Ev
libQt6Qml.so.6:_ZN8QJSValueC1ENS_12SpecialValueE
libQt6Qml.so.6:_ZN8QJSValueC1ERKS_
libQt6Qml.so.6:_ZN8QJSValueD1Ev
libQt6Qml.so.6:_ZN9QJSEngine13convertStringERK7QString9QMetaTypePv
libQt6Qml.so.6:_ZN9QJSEngine14collectGarbageEv
libQt6Qml.so.6:_ZN9QJSEngine14convertManagedERK15QJSManagedValue9QMetaTypePv
libQt6Qml.so.6:_ZN9QJSEngine14convertVariantERK8QVariant9QMetaTypePv
libQt6Qml.so.6:_ZN9QJSEngine16convertPrimitiveERK17QJSPrimitiveValue9QMetaTypePv
libQt6Qml.so.6:_ZN9QJSEngine18setObjectOwnershipEP7QObjectNS_15ObjectOwnershipE
libQt6Qml.so.6:_ZN9QJSEngine22convertQObjectToStringEP7QObject
libQt6Qml.so.6:_ZN9QJSEngine9convertV2ERK8QJSValue9QMetaTypePv
libQt6Qml.so.6:_ZNK10QQmlEngine11rootContextEv
libQt6Qml.so.6:_ZNK11QQmlPrivate18AOTCompiledContext13getEnumLookupEjPv
libQt6Qml.so.6:_ZNK11QQmlPrivate18AOTCompiledContext14getValueLookupEjPvS1_
libQt6Qml.so.6:_ZNK11QQmlPrivate18AOTCompiledContext15getObjectLookupEjP7QObjectPv
libQt6Qml.so.6:_ZNK11QQmlPrivate18AOTCompiledContext15setObjectLookupEjP7QObjectPv
libQt6Qml.so.6:_ZNK11QQmlPrivate18AOTCompiledContext15storeNameSloppyEjPv9QMetaType
libQt6Qml.so.6:_ZNK11QQmlPrivate18AOTCompiledContext17initGetEnumLookupEjPK11QMetaObjectPKcS5_
libQt6Qml.so.6:_ZNK11QQmlPrivate18AOTCompiledContext18initGetValueLookupEjPK11QMetaObject
libQt6Qml.so.6:_ZNK11QQmlPrivate18AOTCompiledContext18loadAttachedLookupEjP7QObjectPv
libQt6Qml.so.6:_ZNK11QQmlPrivate18AOTCompiledContext19initGetObjectLookupEjP7QObject
libQt6Qml.so.6:_ZNK11QQmlPrivate18AOTCompiledContext19initSetObjectLookupEjP7QObject
libQt6Qml.so.6:_ZNK11QQmlPrivate18AOTCompiledContext19loadContextIdLookupEjPv
libQt6Qml.so.6:_ZNK11QQmlPrivate18AOTCompiledContext19loadSingletonLookupEjPv
libQt6Qml.so.6:_ZNK11QQmlPrivate18AOTCompiledContext20lookupResultMetaTypeEj
libQt6Qml.so.6:_ZNK11QQmlPrivate18AOTCompiledContext21setInstructionPointerEi
libQt6Qml.so.6:_ZNK11QQmlPrivate18AOTCompiledContext22initLoadAttachedLookupEjjP7QObject
libQt6Qml.so.6:_ZNK11QQmlPrivate18AOTCompiledContext23initLoadContextIdLookupEj
libQt6Qml.so.6:_ZNK11QQmlPrivate18AOTCompiledContext23initLoadSingletonLookupEjj
libQt6Qml.so.6:_ZNK11QQmlPrivate18AOTCompiledContext23setReturnValueUndefinedEv
libQt6Qml.so.6:_ZNK11QQmlPrivate18AOTCompiledContext24callObjectPropertyLookupEjP7QObjectPPvi
libQt6Qml.so.6:_ZNK11QQmlPrivate18AOTCompiledContext28callQmlContextPropertyLookupEjPPvi
libQt6Qml.so.6:_ZNK11QQmlPrivate18AOTCompiledContext28initCallObjectPropertyLookupEjP7QObjecti
libQt6Qml.so.6:_ZNK11QQmlPrivate18AOTCompiledContext28initGetObjectLookupAsVariantEjP7QObject
libQt6Qml.so.6:_ZNK11QQmlPrivate18AOTCompiledContext28initSetObjectLookupAsVariantEjP7QObject
libQt6Qml.so.6:_ZNK11QQmlPrivate18AOTCompiledContext29loadScopeObjectPropertyLookupEjPv
libQt6Qml.so.6:_ZNK11QQmlPrivate18AOTCompiledContext29setObjectImplicitDestructibleEP7QObject
libQt6Qml.so.6:_ZNK11QQmlPrivate18AOTCompiledContext32initCallQmlContextPropertyLookupEji
libQt6Qml.so.6:_ZNK11QQmlPrivate18AOTCompiledContext33initLoadScopeObjectPropertyLookupEj
libQt6Qml.so.6:_ZNK11QQmlPrivate18AOTCompiledContext37initCallObjectPropertyLookupAsVariantEjP7QObject
libQt6Qml.so.6:_ZNK11QQmlPrivate18AOTCompiledContext9setLocalsEPKNS_23AOTTrackedLocalsStorageE
libQt6Qml.so.6:_ZNK15QJSManagedValue9toVariantEv
libQt6Qml.so.6:_ZNK21QQmlApplicationEngine11rootObjectsEv
libQt6Qml.so.6:_ZNK8QJSValue11isUndefinedEv
libQt6Qml.so.6:_ZNK8QJSValue6isNullEv
libQt6Qml.so.6:_ZNK8QJSValue9toVariantEv
libQt6Qml.so.6:_ZNK9QJSEngine8hasErrorEv
libQt6Qml.so.6:_ZlsR11QDataStreamRK8QJSValue
libQt6Qml.so.6:_ZrsR11QDataStreamR8QJSValue
libQt6Quick.so.6:_ZN12QQuickWindow16releaseResourcesEv
libQt6Quick.so.6:_ZN12QQuickWindow16staticMetaObjectE
libQt6Quick.so.6:_ZN12QQuickWindow21setPersistentGraphicsEb
libQt6Quick.so.6:_ZN12QQuickWindow23setPersistentSceneGraphEb
libQt6QuickControls2.so.6:_ZN11QQuickStyle8setStyleERK7QString
libQt6Widgets.so.6:_ZN12QApplication4execEv
libQt6Widgets.so.6:_ZN12QApplication8setStyleERK7QString
libQt6Widgets.so.6:_ZN12QApplicationC1ERiPPci
libQt6Widgets.so.6:_ZN12QApplicationD1Ev
libQt6Widgets.so.6:_ZN15QSystemTrayIcon21isSystemTrayAvailableEv
libSoundTouch.so.1:_ZN10soundtouch10SoundTouch10setSettingEii
libSoundTouch.so.1:_ZN10soundtouch10SoundTouch11setChannelsEj
libSoundTouch.so.1:_ZN10soundtouch10SoundTouch13setRateChangeEd
libSoundTouch.so.1:_ZN10soundtouch10SoundTouch13setSampleRateEj
libSoundTouch.so.1:_ZN10soundtouch10SoundTouch14setTempoChangeEd
libSoundTouch.so.1:_ZN10soundtouch10SoundTouch17setPitchSemiTonesEd
libSoundTouch.so.1:_ZN10soundtouch10SoundTouchC1Ev
libbs2b.so.0:_ZN9bs2b_base14set_level_feedEi
libbs2b.so.0:_ZN9bs2b_base9get_srateEv
libbs2b.so.0:_ZN9bs2b_base9set_srateEj
libbs2b.so.0:_ZN9bs2b_baseC1Ev
libbs2b.so.0:_ZN9bs2b_baseD1Ev
libbs2b.so.0:bs2b_cross_feed_f
libc.so.6:__cxa_atexit
libc.so.6:__errno_location
libc.so.6:__isoc23_strtol
libc.so.6:__isoc23_strtoll
libc.so.6:__isoc23_strtoull
libc.so.6:__libc_single_threaded
libc.so.6:__libc_start_main
libc.so.6:__memcpy_chk
libc.so.6:__stack_chk_fail
libc.so.6:__vfprintf_chk
libc.so.6:__vsnprintf_chk
libc.so.6:dlclose
libc.so.6:dlopen
libc.so.6:dlsym
libc.so.6:fclose
libc.so.6:fopen
libc.so.6:getenv
libc.so.6:localeconv
libc.so.6:malloc_trim
libc.so.6:memchr
libc.so.6:memcmp
libc.so.6:memcpy
libc.so.6:memmove
libc.so.6:memset
libc.so.6:nanosleep
libc.so.6:pthread_mutex_lock
libc.so.6:pthread_mutex_unlock
libc.so.6:pthread_self
libc.so.6:signal
libc.so.6:stdout
libc.so.6:strchr
libc.so.6:strcmp
libc.so.6:strerror
libc.so.6:strlen
libc.so.6:strncpy
libc.so.6:strtod
libc.so.6:tolower
libc.so.6:toupper
libebur128.so.1:ebur128_add_frames_float
libebur128.so.1:ebur128_destroy
libebur128.so.1:ebur128_init
libebur128.so.1:ebur128_loudness_global
libebur128.so.1:ebur128_loudness_momentary
libebur128.so.1:ebur128_loudness_range
libebur128.so.1:ebur128_loudness_shortterm
libebur128.so.1:ebur128_prev_sample_peak
libebur128.so.1:ebur128_relative_threshold
libebur128.so.1:ebur128_set_channel
libebur128.so.1:ebur128_set_max_history
libebur128.so.1:ebur128_true_peak
libfftw3.so.3:fftw_alloc_complex
libfftw3.so.3:fftw_destroy_plan
libfftw3.so.3:fftw_execute
libfftw3.so.3:fftw_free
libfftw3.so.3:fftw_malloc
libfftw3.so.3:fftw_plan_dft_c2r_1d
libfftw3.so.3:fftw_plan_dft_r2c_1d
libfftw3f.so.3:fftwf_alloc_complex
libfftw3f.so.3:fftwf_destroy_plan
libfftw3f.so.3:fftwf_execute
libfftw3f.so.3:fftwf_free
libfftw3f.so.3:fftwf_plan_dft_r2c_1d
libgcc_s.so.1:_Unwind_Resume
libgcc_s.so.1:__udivti3
libgsl.so.25:gsl_interp_accel_alloc
libgsl.so.25:gsl_interp_accel_free
libgsl.so.25:gsl_interp_steffen
libgsl.so.25:gsl_spline_alloc
libgsl.so.25:gsl_spline_eval
libgsl.so.25:gsl_spline_free
libgsl.so.25:gsl_spline_init
liblilv-0.so.0:lilv_file_uri_parse
liblilv-0.so.0:lilv_free
liblilv-0.so.0:lilv_instance_free
liblilv-0.so.0:lilv_new_uri
liblilv-0.so.0:lilv_node_as_string
liblilv-0.so.0:lilv_node_as_uri
liblilv-0.so.0:lilv_node_free
liblilv-0.so.0:lilv_nodes_begin
liblilv-0.so.0:lilv_nodes_free
liblilv-0.so.0:lilv_nodes_get
liblilv-0.so.0:lilv_nodes_is_end
liblilv-0.so.0:lilv_nodes_next
liblilv-0.so.0:lilv_plugin_get_num_ports
liblilv-0.so.0:lilv_plugin_get_port_by_index
liblilv-0.so.0:lilv_plugin_get_port_ranges_float
liblilv-0.so.0:lilv_plugin_get_required_features
liblilv-0.so.0:lilv_plugin_get_uis
liblilv-0.so.0:lilv_plugin_instantiate
liblilv-0.so.0:lilv_plugins_get_by_uri
liblilv-0.so.0:lilv_port_get_name
liblilv-0.so.0:lilv_port_get_symbol
liblilv-0.so.0:lilv_port_has_property
liblilv-0.so.0:lilv_port_is_a
liblilv-0.so.0:lilv_ui_get_binary_uri
liblilv-0.so.0:lilv_ui_get_bundle_uri
liblilv-0.so.0:lilv_ui_get_uri
liblilv-0.so.0:lilv_uis_begin
liblilv-0.so.0:lilv_uis_free
liblilv-0.so.0:lilv_uis_get
liblilv-0.so.0:lilv_uis_is_end
liblilv-0.so.0:lilv_uis_next
liblilv-0.so.0:lilv_world_free
liblilv-0.so.0:lilv_world_get_all_plugins
liblilv-0.so.0:lilv_world_load_all
liblilv-0.so.0:lilv_world_new
libm.so.6:atan2
libm.so.6:cbrt
libm.so.6:cbrtf
libm.so.6:ceil
libm.so.6:ceilf
libm.so.6:cos
libm.so.6:cosf
libm.so.6:exp
libm.so.6:expf
libm.so.6:floor
libm.so.6:fmod
libm.so.6:frexp
libm.so.6:frexpf
libm.so.6:frexpl
libm.so.6:hypot
libm.so.6:hypotf
libm.so.6:log10
libm.so.6:log10f
libm.so.6:logf
libm.so.6:logl
libm.so.6:lrint
libm.so.6:nextafterf
libm.so.6:pow
libm.so.6:powf
libm.so.6:round
libm.so.6:sin
libm.so.6:sinf
libm.so.6:sqrtf
libmysofa.so.1:mysofa_check
libmysofa.so.1:mysofa_free
libmysofa.so.1:mysofa_getAttribute
libmysofa.so.1:mysofa_load
libmysofa.so.1:mysofa_lookup
libmysofa.so.1:mysofa_lookup_free
libmysofa.so.1:mysofa_lookup_init
libmysofa.so.1:mysofa_s2c
libmysofa.so.1:mysofa_tocartesian
libmysofa.so.1:mysofa_tospherical
libpipewire-0.3.so.0:pw_context_connect
libpipewire-0.3.so.0:pw_context_destroy
libpipewire-0.3.so.0:pw_context_new
libpipewire-0.3.so.0:pw_core_disconnect
libpipewire-0.3.so.0:pw_filter_add_listener
libpipewire-0.3.so.0:pw_filter_add_port
libpipewire-0.3.so.0:pw_filter_connect
libpipewire-0.3.so.0:pw_filter_destroy
libpipewire-0.3.so.0:pw_filter_disconnect
libpipewire-0.3.so.0:pw_filter_get_dsp_buffer
libpipewire-0.3.so.0:pw_filter_get_node_id
libpipewire-0.3.so.0:pw_filter_get_state
libpipewire-0.3.so.0:pw_filter_new
libpipewire-0.3.so.0:pw_filter_set_active
libpipewire-0.3.so.0:pw_filter_update_params
libpipewire-0.3.so.0:pw_filter_update_properties
libpipewire-0.3.so.0:pw_get_library_version
libpipewire-0.3.so.0:pw_init
libpipewire-0.3.so.0:pw_properties_free
libpipewire-0.3.so.0:pw_properties_new
libpipewire-0.3.so.0:pw_properties_set
libpipewire-0.3.so.0:pw_proxy_add_listener
libpipewire-0.3.so.0:pw_proxy_add_object_listener
libpipewire-0.3.so.0:pw_proxy_destroy
libpipewire-0.3.so.0:pw_proxy_get_user_data
libpipewire-0.3.so.0:pw_thread_loop_destroy
libpipewire-0.3.so.0:pw_thread_loop_get_loop
libpipewire-0.3.so.0:pw_thread_loop_get_time
libpipewire-0.3.so.0:pw_thread_loop_lock
libpipewire-0.3.so.0:pw_thread_loop_new
libpipewire-0.3.so.0:pw_thread_loop_signal
libpipewire-0.3.so.0:pw_thread_loop_start
libpipewire-0.3.so.0:pw_thread_loop_stop
libpipewire-0.3.so.0:pw_thread_loop_timed_wait_full
libpipewire-0.3.so.0:pw_thread_loop_unlock
libpipewire-0.3.so.0:pw_thread_loop_wait
librnnoise.so.0:rnnoise_create
librnnoise.so.0:rnnoise_destroy
librnnoise.so.0:rnnoise_model_free
librnnoise.so.0:rnnoise_model_from_file
librnnoise.so.0:rnnoise_process_frame
libsndfile.so.1:sf_close
libsndfile.so.1:sf_error
libsndfile.so.1:sf_open
libsndfile.so.1:sf_readf_float
libsndfile.so.1:sf_strerror
libsndfile.so.1:sf_writef_float
libspeexdsp.so.1:speex_preprocess_ctl
libspeexdsp.so.1:speex_preprocess_run
libspeexdsp.so.1:speex_preprocess_state_destroy
libspeexdsp.so.1:speex_preprocess_state_init
libspeexdsp.so.1:speex_resampler_destroy
libspeexdsp.so.1:speex_resampler_init
libspeexdsp.so.1:speex_resampler_process_float
libspeexdsp.so.1:speex_resampler_set_quality
libspeexdsp.so.1:speex_resampler_strerror
libstdc++.so.6:_ZNKSt10filesystem7__cxx1118directory_iteratordeEv
libstdc++.so.6:_ZNKSt10filesystem7__cxx1128recursive_directory_iteratordeEv
libstdc++.so.6:_ZNKSt10filesystem7__cxx114path11parent_pathEv
libstdc++.so.6:_ZNKSt10filesystem7__cxx114path17_M_find_extensionEv
libstdc++.so.6:_ZNKSt10filesystem7__cxx114path5_List13_Impl_deleterclEPNS2_5_ImplE
libstdc++.so.6:_ZNKSt10filesystem7__cxx114path5_List3endEv
libstdc++.so.6:_ZNKSt10filesystem7__cxx114path7compareERKS1_
libstdc++.so.6:_ZNKSt12__basic_fileIcE7is_openEv
libstdc++.so.6:_ZNKSt13runtime_error4whatEv
libstdc++.so.6:_ZNKSt5ctypeIcE13_M_widen_initEv
libstdc++.so.6:_ZNKSt6locale2id5_M_idEv
libstdc++.so.6:_ZNKSt6locale4nameB5cxx11Ev
libstdc++.so.6:_ZNKSt6localeeqERKS_
libstdc++.so.6:_ZNKSt8__detail20_Prime_rehash_policy11_M_next_bktEm
libstdc++.so.6:_ZNKSt8__detail20_Prime_rehash_policy14_M_need_rehashEmmm
libstdc++.so.6:_ZNKSt9basic_iosIcSt11char_traitsIcEE5widenEc
libstdc++.so.6:_ZNSi10_M_extractIlEERSiRT_
libstdc++.so.6:_ZNSo3putEc
libstdc++.so.6:_ZNSo5writeEPKcl
libstdc++.so.6:_ZNSo9_M_insertImEERSoT_
libstdc++.so.6:_ZNSt10filesystem18create_directoriesERKNS_7__cxx114pathE
libstdc++.so.6:_ZNSt10filesystem4copyERKNS_7__cxx114pathES3_NS_12copy_optionsE
libstdc++.so.6:_ZNSt10filesystem6removeERKNS_7__cxx114pathE
libstdc++.so.6:_ZNSt10filesystem6renameERKNS_7__cxx114pathES3_
libstdc++.so.6:_ZNSt10filesystem6statusERKNS_7__cxx114pathE
libstdc++.so.6:_ZNSt10filesystem7__cxx1118directory_iteratorC2ERKNS0_4pathENS_17directory_optionsEPSt10error_code
libstdc++.so.6:_ZNSt10filesystem7__cxx1118directory_iteratorppEv
libstdc++.so.6:_ZNSt10filesystem7__cxx1128recursive_directory_iteratorC2ERKNS0_4pathENS_17directory_optionsEPSt10error_code
libstdc++.so.6:_ZNSt10filesystem7__cxx1128recursive_directory_iteratorD1Ev
libstdc++.so.6:_ZNSt10filesystem7__cxx1128recursive_directory_iteratorppEv
libstdc++.so.6:_ZNSt10filesystem7__cxx114path14_M_split_cmptsEv
libstdc++.so.6:_ZNSt10filesystem7__cxx114path17replace_extensionERKS1_
libstdc++.so.6:_ZNSt10filesystem7__cxx114path5_ListC1ERKS2_
libstdc++.so.6:_ZNSt10filesystem7__cxx114path5_ListC1Ev
libstdc++.so.6:_ZNSt10filesystem7__cxx114path9_M_appendESt17basic_string_viewIcSt11char_traitsIcEE
libstdc++.so.6:_ZNSt10filesystem7__cxx114pathaSERKS1_
libstdc++.so.6:_ZNSt10filesystem7__cxx114pathdVERKS1_
libstdc++.so.6:_ZNSt10filesystem9copy_fileERKNS_7__cxx114pathES3_NS_12copy_optionsE
libstdc++.so.6:_ZNSt10filesystem9copy_fileERKNS_7__cxx114pathES3_NS_12copy_optionsERSt10error_code
libstdc++.so.6:_ZNSt11regex_errorD1Ev
libstdc++.so.6:_ZNSt13basic_filebufIcSt11char_traitsIcEE4openEPKcSt13_Ios_Openmode
libstdc++.so.6:_ZNSt13basic_filebufIcSt11char_traitsIcEE5closeEv
libstdc++.so.6:_ZNSt13random_device7_M_finiEv
libstdc++.so.6:_ZNSt13random_device7_M_initERKNSt7__cxx1112basic_stringIcSt11char_traitsIcESaIcEEE
libstdc++.so.6:_ZNSt13random_device9_M_getvalEv
libstdc++.so.6:_ZNSt13runtime_errorC1EPKc
libstdc++.so.6:_ZNSt13runtime_errorC1ERKS_
libstdc++.so.6:_ZNSt13runtime_errorC2EPKc
libstdc++.so.6:_ZNSt13runtime_errorD1Ev
libstdc++.so.6:_ZNSt13runtime_errorD2Ev
libstdc++.so.6:_ZNSt14basic_ifstreamIcSt11char_traitsIcEEC1EPKcSt13_Ios_Openmode
libstdc++.so.6:_ZNSt14basic_ifstreamIcSt11char_traitsIcEEC1Ev
libstdc++.so.6:_ZNSt14basic_ifstreamIcSt11char_traitsIcEED2Ev
libstdc++.so.6:_ZNSt14basic_ofstreamIcSt11char_traitsIcEEC1EPKcSt13_Ios_Openmode
libstdc++.so.6:_ZNSt14basic_ofstreamIcSt11char_traitsIcEEC1ERKNSt7__cxx1112basic_stringIcS1_SaIcEEESt13_Ios_Openmode
libstdc++.so.6:_ZNSt14basic_ofstreamIcSt11char_traitsIcEED1Ev
libstdc++.so.6:_ZNSt3_V215system_categoryEv
libstdc++.so.6:_ZNSt5ctypeIcE2idE
libstdc++.so.6:_ZNSt6locale7classicEv
libstdc++.so.6:_ZNSt6localeC1ERKS_
libstdc++.so.6:_ZNSt6localeC1Ev
libstdc++.so.6:_ZNSt6localeD1Ev
libstdc++.so.6:_ZNSt6localeaSERKS_
libstdc++.so.6:_ZNSt7__cxx1119basic_istringstreamIcSt11char_traitsIcESaIcEEC1EONS_12basic_stringIcS2_S3_EESt13_Ios_Openmode
libstdc++.so.6:_ZNSt7__cxx1119basic_istringstreamIcSt11char_traitsIcESaIcEED1Ev
libstdc++.so.6:_ZNSt7__cxx117collateIcE2idE
libstdc++.so.6:_ZNSt7__cxx118numpunctIcE2idE
libstdc++.so.6:_ZNSt8ios_baseD2Ev
libstdc++.so.6:_ZNSt9basic_iosIcSt11char_traitsIcEE5clearESt12_Ios_Iostate
libstdc++.so.6:_ZNSt9exceptionD2Ev
libstdc++.so.6:_ZSt10from_charsPKcS0_RdSt12chars_format
libstdc++.so.6:_ZSt10from_charsPKcS0_RfSt12chars_format
libstdc++.so.6:_ZSt11_Hash_bytesPKvmm
libstdc++.so.6:_ZSt16__ostream_insertIcSt11char_traitsIcEERSt13basic_ostreamIT_T0_ES6_PKS3_l
libstdc++.so.6:_ZSt16__throw_bad_castv
libstdc++.so.6:_ZSt17__throw_bad_allocv
libstdc++.so.6:_ZSt18_Rb_tree_decrementPSt18_Rb_tree_node_base
libstdc++.so.6:_ZSt18_Rb_tree_incrementPSt18_Rb_tree_node_base
libstdc++.so.6:_ZSt19__throw_logic_errorPKc
libstdc++.so.6:_ZSt19__throw_regex_errorNSt15regex_constants10error_typeE
libstdc++.so.6:_ZSt20__throw_length_errorPKc
libstdc++.so.6:_ZSt20__throw_out_of_rangePKc
libstdc++.so.6:_ZSt20__throw_system_errori
libstdc++.so.6:_ZSt21ios_base_library_initv
libstdc++.so.6:_ZSt24__throw_invalid_argumentPKc
libstdc++.so.6:_ZSt24__throw_out_of_range_fmtPKcz
libstdc++.so.6:_ZSt25__throw_bad_function_callv
libstdc++.so.6:_ZSt28_Rb_tree_rebalance_for_erasePSt18_Rb_tree_node_baseRS_
libstdc++.so.6:_ZSt28__throw_bad_array_new_lengthv
libstdc++.so.6:_ZSt29_Rb_tree_insert_and_rebalancebPSt18_Rb_tree_node_baseS0_RS_
libstdc++.so.6:_ZSt4cout
libstdc++.so.6:_ZSt7getlineIcSt11char_traitsIcESaIcEERSt13basic_istreamIT_T0_ES7_RNSt7__cxx1112basic_stringIS4_S5_T1_EES4_
libstdc++.so.6:_ZSt7nothrow
libstdc++.so.6:_ZSt8to_charsPcS_d
libstdc++.so.6:_ZSt8to_charsPcS_dSt12chars_format
libstdc++.so.6:_ZSt8to_charsPcS_dSt12chars_formati
libstdc++.so.6:_ZSt8to_charsPcS_e
libstdc++.so.6:_ZSt8to_charsPcS_eSt12chars_format
libstdc++.so.6:_ZSt8to_charsPcS_eSt12chars_formati
libstdc++.so.6:_ZSt8to_charsPcS_f
libstdc++.so.6:_ZSt8to_charsPcS_fSt12chars_format
libstdc++.so.6:_ZSt8to_charsPcS_fSt12chars_formati
libstdc++.so.6:_ZSt9terminatev
libstdc++.so.6:_ZSt9use_facetINSt7__cxx118numpunctIcEEERKT_RKSt6locale
libstdc++.so.6:_ZTINSt7__cxx117collateIcEE
libstdc++.so.6:_ZTISt11regex_error
libstdc++.so.6:_ZTISt12out_of_range
libstdc++.so.6:_ZTISt13runtime_error
libstdc++.so.6:_ZTISt9bad_alloc
libstdc++.so.6:_ZTISt9exception
libstdc++.so.6:_ZTTNSt7__cxx1119basic_istringstreamIcSt11char_traitsIcESaIcEEE
libstdc++.so.6:_ZTTSt14basic_ifstreamIcSt11char_traitsIcEE
libstdc++.so.6:_ZTVN10__cxxabiv117__class_type_infoE
libstdc++.so.6:_ZTVN10__cxxabiv119__pointer_type_infoE
libstdc++.so.6:_ZTVN10__cxxabiv120__function_type_infoE
libstdc++.so.6:_ZTVN10__cxxabiv120__si_class_type_infoE
libstdc++.so.6:_ZTVN10__cxxabiv121__vmi_class_type_infoE
libstdc++.so.6:_ZTVNSt7__cxx1115basic_stringbufIcSt11char_traitsIcESaIcEEE
libstdc++.so.6:_ZTVSt11regex_error
libstdc++.so.6:_ZTVSt15basic_streambufIcSt11char_traitsIcEE
libstdc++.so.6:_ZdaPv
libstdc++.so.6:_ZdaPvm
libstdc++.so.6:_ZdlPv
libstdc++.so.6:_ZdlPvm
libstdc++.so.6:_ZdlPvmSt11align_val_t
libstdc++.so.6:_Znam
libstdc++.so.6:_Znwm
libstdc++.so.6:_ZnwmRKSt9nothrow_t
libstdc++.so.6:__cxa_allocate_exception
libstdc++.so.6:__cxa_begin_catch
libstdc++.so.6:__cxa_end_catch
libstdc++.so.6:__cxa_free_exception
libstdc++.so.6:__cxa_guard_abort
libstdc++.so.6:__cxa_guard_acquire
libstdc++.so.6:__cxa_guard_release
libstdc++.so.6:__cxa_pure_virtual
libstdc++.so.6:__cxa_rethrow
libstdc++.so.6:__cxa_throw
libstdc++.so.6:__dynamic_cast
libstdc++.so.6:__gxx_personality_v0
libtbb.so.12:_ZN3tbb6detail2r110deallocateERNS0_2d117small_object_poolEPvmRKNS2_14execution_dataE
libtbb.so.12:_ZN3tbb6detail2r110initializeERNS0_2d118task_group_contextE
libtbb.so.12:_ZN3tbb6detail2r114execution_slotEPKNS0_2d114execution_dataE
libtbb.so.12:_ZN3tbb6detail2r114notify_waitersEm
libtbb.so.12:_ZN3tbb6detail2r115max_concurrencyEPKNS0_2d115task_arena_baseE
libtbb.so.12:_ZN3tbb6detail2r116execute_and_waitERNS0_2d14taskERNS2_18task_group_contextERNS2_12wait_contextES6_
libtbb.so.12:_ZN3tbb6detail2r120isolate_within_arenaERNS0_2d113delegate_baseEl
libtbb.so.12:_ZN3tbb6detail2r128is_group_execution_cancelledERNS0_2d118task_group_contextE
libtbb.so.12:_ZN3tbb6detail2r15spawnERNS0_2d14taskERNS2_18task_group_contextE
libtbb.so.12:_ZN3tbb6detail2r17destroyERNS0_2d118task_group_contextE
libtbb.so.12:_ZN3tbb6detail2r18allocateERPNS0_2d117small_object_poolEm
libtbb.so.12:_ZN3tbb6detail2r18allocateERPNS0_2d117small_object_poolEmRKNS2_14execution_dataE
libwebrtc-audio-processing-2.so.1:_ZN6webrtc22AudioProcessingBuilder6CreateEv
libwebrtc-audio-processing-2.so.1:_ZN6webrtc22AudioProcessingBuilderC1Ev
libwebrtc-audio-processing-2.so.1:_ZN6webrtc22AudioProcessingBuilderD1Ev
libzita-convolver.so.4:_ZN8Convproc10check_stopEv
libzita-convolver.so.4:_ZN8Convproc11set_optionsEj
libzita-convolver.so.4:_ZN8Convproc12stop_processEv
libzita-convolver.so.4:_ZN8Convproc13impdata_clearEjj
libzita-convolver.so.4:_ZN8Convproc13start_processEii
libzita-convolver.so.4:_ZN8Convproc14impdata_createEjjiPfii
libzita-convolver.so.4:_ZN8Convproc14impdata_updateEjjiPfii
libzita-convolver.so.4:_ZN8Convproc7cleanupEv
libzita-convolver.so.4:_ZN8Convproc7processEb
libzita-convolver.so.4:_ZN8Convproc9configureEjjjjjjf
libzita-convolver.so.4:_ZN8ConvprocC1Ev
libzita-convolver.so.4:_ZN8ConvprocD1Ev
