et:_IO_stdin_used
et:_Z10CreateGUIDP6MDGUID
et:_Z12GUIDToStringPK6MDGUIDPci
et:_Z13ssh_lowercasePKc
et:_Z14match_hostnamePKcS0_j
et:_Z15ssh_options_setP7Options13ssh_options_ePKv
et:_Z21parse_ssh_config_filePKcP7OptionsNSt7__cxx1112basic_stringIcSt11char_traitsIcESaIcEEE
et:_Z21ssh_get_user_home_dirv
et:_Z21ssh_path_expand_tildePKc
et:_Z22ssh_get_local_usernamev
et:_Z22ssh_path_expand_escapeP7OptionsPKc
et:_Z4pingN2et14SocketEndpointESt10shared_ptrINS_13SocketHandlerEE
et:_ZN13GUIDGenerator12once_controlE
et:_ZN15google_breakpad10IsValidElfEPKv
et:_ZN15google_breakpad10ThreadInfo25GetFloatingPointRegistersEPPvPm
et:_ZN15google_breakpad10ThreadInfo26GetGeneralPurposeRegistersEPPvPm
et:_ZN15google_breakpad11LinuxDumper12GetStackInfoEPPKvPmm
et:_ZN15google_breakpad11LinuxDumper17EnumerateMappingsEv
et:_ZN15google_breakpad11LinuxDumper17SanitizeStackCopyEPhmmm
et:_ZN15google_breakpad11LinuxDumper23SetCrashInfoFromSigInfoERK9siginfo_t
et:_ZN15google_breakpad11LinuxDumper24StackHasPointerToMappingEPKhmmRKNS_11MappingInfoE
et:_ZN15google_breakpad11LinuxDumper27ElfFileIdentifierForMappingERKNS_11MappingInfoEbjRNS_15wasteful_vectorIhEE
et:_ZN15google_breakpad11LinuxDumper30GetMappingEffectiveNameAndPathERKNS_11MappingInfoEPcmS4_m
et:_ZN15google_breakpad11LinuxDumper4InitEv
et:_ZN15google_breakpad11LinuxDumper8LateInitEv
et:_ZN15google_breakpad11LinuxDumper8ReadAuxvEv
et:_ZN15google_breakpad11LinuxDumperC1EiPKc
et:_ZN15google_breakpad11LinuxDumperC2EiPKc
et:_ZN15google_breakpad11LinuxDumperD0Ev
et:_ZN15google_breakpad11LinuxDumperD1Ev
et:_ZN15google_breakpad11LinuxDumperD2Ev
et:_ZN15google_breakpad11UTF16ToUTF8B5cxx11ERKSt6vectorItSaItEEb
et:_ZN15google_breakpad11UTF8ToUTF16EPKcPSt6vectorItSaItEE
et:_ZN15google_breakpad12SafeReadLinkEPKcPcm
et:_ZN15google_breakpad12UTF32ToUTF16EPKwPSt6vectorItSaItEE
et:_ZN15google_breakpad12UntypedMDRVA4CopyEjPKvm
et:_ZN15google_breakpad12UntypedMDRVA8AllocateEm
et:_ZN15google_breakpad13WriteMinidumpEPKcRKNSt7__cxx114listINS_12MappingEntryESaIS4_EEERKNS3_INS_9AppMemoryESaIS9_EEEPNS_11LinuxDumperE
et:_ZN15google_breakpad13WriteMinidumpEPKciPKvmRKNSt7__cxx114listINS_12MappingEntryESaIS6_EEERKNS5_INS_9AppMemoryESaISB_EEEbmb
et:_ZN15google_breakpad13WriteMinidumpEPKciPKvmbmb
et:_ZN15google_breakpad13WriteMinidumpEPKcii
et:_ZN15google_breakpad13WriteMinidumpEPKcliPKvmRKNSt7__cxx114listINS_12MappingEntryESaIS6_EEERKNS5_INS_9AppMemoryESaISB_EEEbmb
et:_ZN15google_breakpad13WriteMinidumpEiiPKvmRKNSt7__cxx114listINS_12MappingEntryESaIS4_EEERKNS3_INS_9AppMemoryESaIS9_EEEbmb
et:_ZN15google_breakpad13WriteMinidumpEiiPKvmbmb
et:_ZN15google_breakpad13WriteMinidumpEiliPKvmRKNSt7__cxx114listINS_12MappingEntryESaIS4_EEERKNS3_INS_9AppMemoryESaIS9_EEEbmb
et:_ZN15google_breakpad14FindElfSectionEPKvPKcjPS1_Pm
et:_ZN15google_breakpad14UContextReader14FillCPUContextEP17MDRawContextAMD64PK10ucontext_tPK13_libc_fpstate
et:_ZN15google_breakpad14UContextReader15GetStackPointerEPK10ucontext_t
et:_ZN15google_breakpad14UContextReader21GetInstructionPointerEPK10ucontext_t
et:_ZN15google_breakpad14WriteMicrodumpEiPKvmRKNSt7__cxx114listINS_12MappingEntryESaIS4_EEEbmbRKNS_18MicrodumpExtraInfoE
et:_ZN15google_breakpad15FindElfSegmentsEPKvjPNS_15wasteful_vectorINS_10ElfSegmentEEE
et:_ZN15google_breakpad15UTF8ToUTF16CharEPKciPt
et:_ZN15google_breakpad16ExceptionHandler11ThreadEntryEPv
et:_ZN15google_breakpad16ExceptionHandler12GenerateDumpEPNS0_12CrashContextE
et:_ZN15google_breakpad16ExceptionHandler12HandleSignalEiP9siginfo_tPv
et:_ZN15google_breakpad16ExceptionHandler13SignalHandlerEiP9siginfo_tPv
et:_ZN15google_breakpad16ExceptionHandler13WriteMinidumpERKNSt7__cxx1112basic_stringIcSt11char_traitsIcESaIcEEEPFbRKNS_18MinidumpDescriptorEPvbESC_
et:_ZN15google_breakpad16ExceptionHandler13WriteMinidumpEv
et:_ZN15google_breakpad16ExceptionHandler14AddMappingInfoERKNSt7__cxx1112basic_stringIcSt11char_traitsIcESaIcEEEPKhmmm
et:_ZN15google_breakpad16ExceptionHandler17RegisterAppMemoryEPvm
et:_ZN15google_breakpad16ExceptionHandler19UnregisterAppMemoryEPv
et:_ZN15google_breakpad16ExceptionHandler21InstallHandlersLockedEv
et:_ZN15google_breakpad16ExceptionHandler21RestoreHandlersLockedEv
et:_ZN15google_breakpad16ExceptionHandler21WaitForContinueSignalEv
et:_ZN15google_breakpad16ExceptionHandler21WriteMinidumpForChildEiiRKNSt7__cxx1112basic_stringIcSt11char_traitsIcESaIcEEEPFbRKNS_18MinidumpDescriptorEPvbESC_
et:_ZN15google_breakpad16ExceptionHandler22SimulateSignalDeliveryEi
et:_ZN15google_breakpad16ExceptionHandler25SendContinueSignalToChildEv
et:_ZN15google_breakpad16ExceptionHandler6DoDumpEiPKvm
et:_ZN15google_breakpad16ExceptionHandlerC1ERKNS_18MinidumpDescriptorEPFbPvEPFbS3_S4_bES4_bi
et:_ZN15google_breakpad16ExceptionHandlerC2ERKNS_18MinidumpDescriptorEPFbPvEPFbS3_S4_bES4_bi
et:_ZN15google_breakpad16ExceptionHandlerD1Ev
et:_ZN15google_breakpad16ExceptionHandlerD2Ev
et:_ZN15google_breakpad16MemoryMappedFile3MapEPKcm
et:_ZN15google_breakpad16MemoryMappedFile5UnmapEv
et:_ZN15google_breakpad16MemoryMappedFileC1EPKcm
et:_ZN15google_breakpad16MemoryMappedFileC1Ev
et:_ZN15google_breakpad16MemoryMappedFileC2EPKcm
et:_ZN15google_breakpad16MemoryMappedFileC2Ev
et:_ZN15google_breakpad16MemoryMappedFileD1Ev
et:_ZN15google_breakpad16MemoryMappedFileD2Ev
et:_ZN15google_breakpad16UTF32ToUTF16CharEwPt
et:_ZN15google_breakpad17LinuxPtraceDumper13ReadRegistersEPNS_10ThreadInfoEi
et:_ZN15google_breakpad17LinuxPtraceDumper13ThreadsResumeEv
et:_ZN15google_breakpad17LinuxPtraceDumper14ThreadsSuspendEv
et:_ZN15google_breakpad17LinuxPtraceDumper15CopyFromProcessEPviPKvm
et:_ZN15google_breakpad17LinuxPtraceDumper15ReadRegisterSetEPNS_10ThreadInfoEi
et:_ZN15google_breakpad17LinuxPtraceDumper16EnumerateThreadsEv
et:_ZN15google_breakpad17LinuxPtraceDumper20GetThreadInfoByIndexEmPNS_10ThreadInfoE
et:_ZN15google_breakpad17LinuxPtraceDumperC1Ei
et:_ZN15google_breakpad17LinuxPtraceDumperC2Ei
et:_ZN15google_breakpad18ConvertUTF16toUTF8EPPKtS1_PPhS3_NS_15ConversionFlagsE
et:_ZN15google_breakpad18ConvertUTF32toUTF8EPPKmS1_PPhS3_NS_15ConversionFlagsE
et:_ZN15google_breakpad18ConvertUTF8toUTF16EPPKhS1_PPtS3_NS_15ConversionFlagsE
et:_ZN15google_breakpad18ConvertUTF8toUTF32EPPKhS1_PPmS3_NS_15ConversionFlagsE
et:_ZN15google_breakpad18MinidumpDescriptor10UpdatePathEv
et:_ZN15google_breakpad18MinidumpDescriptor19kMicrodumpOnConsoleE
et:_ZN15google_breakpad18MinidumpDescriptorC1ERKS0_
et:_ZN15google_breakpad18MinidumpDescriptorC2ERKS0_
et:_ZN15google_breakpad18MinidumpDescriptoraSERKS0_
et:_ZN15google_breakpad18MinidumpFileWriter11WriteMemoryEPKvmP18MDMemoryDescriptor
et:_ZN15google_breakpad18MinidumpFileWriter11WriteStringEPKcjP20MDLocationDescriptor
et:_ZN15google_breakpad18MinidumpFileWriter11WriteStringEPKwjP20MDLocationDescriptor
et:_ZN15google_breakpad18MinidumpFileWriter13kInvalidMDRVAE
et:_ZN15google_breakpad18MinidumpFileWriter20CopyStringToMDStringEPKcjPNS_10TypedMDRVAI8MDStringEE
et:_ZN15google_breakpad18MinidumpFileWriter20CopyStringToMDStringEPKwjPNS_10TypedMDRVAI8MDStringEE
et:_ZN15google_breakpad18MinidumpFileWriter4CopyEjPKvl
et:_ZN15google_breakpad18MinidumpFileWriter4OpenEPKc
et:_ZN15google_breakpad18MinidumpFileWriter5CloseEv
et:_ZN15google_breakpad18MinidumpFileWriter7SetFileEi
et:_ZN15google_breakpad18MinidumpFileWriter8AllocateEm
et:_ZN15google_breakpad18MinidumpFileWriterC1Ev
et:_ZN15google_breakpad18MinidumpFileWriterC2Ev
et:_ZN15google_breakpad18MinidumpFileWriterD1Ev
et:_ZN15google_breakpad18MinidumpFileWriterD2Ev
et:_ZN15google_breakpad19ConvertUTF16toUTF32EPPKtS1_PPmS3_NS_15ConversionFlagsE
et:_ZN15google_breakpad19ConvertUTF32toUTF16EPPKmS1_PPtS3_NS_15ConversionFlagsE
et:_ZN15google_breakpad19isLegalUTF8SequenceEPKhS1_
et:_ZN15google_breakpad21CrashGenerationClient9TryCreateEi
et:_ZN15google_breakpad27ElfFileSoNameFromMappedFileEPKvPcm
et:_ZN15google_breakpad30SetFirstChanceExceptionHandlerEPFbiP9siginfo_tPvE
et:_ZN15google_breakpad3elf6FileID17ElfFileIdentifierERNS_15wasteful_vectorIhEE
et:_ZN15google_breakpad3elf6FileID25ConvertIdentifierToStringB5cxx11ERKNS_15wasteful_vectorIhEE
et:_ZN15google_breakpad3elf6FileID29ConvertIdentifierToUUIDStringB5cxx11ERKNS_15wasteful_vectorIhEE
et:_ZN15google_breakpad3elf6FileID31ElfFileIdentifierFromMappedFileEPKvRNS_15wasteful_vectorIhEE
et:_ZN15google_breakpad3elf6FileIDC1EPKc
et:_ZN15google_breakpad3elf6FileIDC2EPKc
et:_ZN15google_breakpad8ElfClassEPKv
et:_ZN2el10LogBuilder22convertToColoredOutputEPNSt7__cxx1112basic_stringIcSt11char_traitsIcESaIcEEENS_5LevelE
et:_ZN2el11LevelHelper12forEachLevelEPjRKSt8functionIFbvEE
et:_ZN2el11LevelHelper15convertToStringENS_5LevelE
et:_ZN2el11LevelHelper17convertFromStringEPKc
et:_ZN2el11VersionInfo11releaseDateB5cxx11Ev
et:_ZN2el11VersionInfo7versionB5cxx11Ev
et:_ZN2el13Configuration9PredicateC1ENS_5LevelENS_17ConfigurationTypeE
et:_ZN2el13Configuration9PredicateC2ENS_5LevelENS_17ConfigurationTypeE
et:_ZN2el13ConfigurationC1ENS_5LevelENS_17ConfigurationTypeERKNSt7__cxx1112basic_stringIcSt11char_traitsIcESaIcEEE
et:_ZN2el13ConfigurationC1ERKS0_
et:_ZN2el13ConfigurationC2ENS_5LevelENS_17ConfigurationTypeERKNSt7__cxx1112basic_stringIcSt11char_traitsIcESaIcEEE
et:_ZN2el13ConfigurationC2ERKS0_
et:_ZN2el13ConfigurationaSERKS0_
et:_ZN2el14Configurations11setFromBaseEPS0_
et:_ZN2el14Configurations11setGloballyENS_17ConfigurationTypeERKNSt7__cxx1112basic_stringIcSt11char_traitsIcESaIcEEEb
et:_ZN2el14Configurations12setToDefaultEv
et:_ZN2el14Configurations13parseFromFileERKNSt7__cxx1112basic_stringIcSt11char_traitsIcESaIcEEEPS0_
et:_ZN2el14Configurations13parseFromTextERKNSt7__cxx1112basic_stringIcSt11char_traitsIcESaIcEEEPS0_
et:_ZN2el14Configurations16hasConfigurationENS_17ConfigurationTypeE
et:_ZN2el14Configurations16hasConfigurationENS_5LevelENS_17ConfigurationTypeE
et:_ZN2el14Configurations17unsafeSetGloballyENS_17ConfigurationTypeERKNSt7__cxx1112basic_stringIcSt11char_traitsIcESaIcEEEb
et:_ZN2el14Configurations19unsafeSetIfNotExistENS_5LevelENS_17ConfigurationTypeERKNSt7__cxx1112basic_stringIcSt11char_traitsIcESaIcEEE
et:_ZN2el14Configurations21setRemainingToDefaultEv
et:_ZN2el14Configurations3setENS_5LevelENS_17ConfigurationTypeERKNSt7__cxx1112basic_stringIcSt11char_traitsIcESaIcEEE
et:_ZN2el14Configurations3setEPNS_13ConfigurationE
et:_ZN2el14Configurations6Parser13parseFromFileERKNSt7__cxx1112basic_stringIcSt11char_traitsIcESaIcEEEPS0_SA_
et:_ZN2el14Configurations6Parser13parseFromTextERKNSt7__cxx1112basic_stringIcSt11char_traitsIcESaIcEEEPS0_SA_
et:_ZN2el14Configurations6Parser14ignoreCommentsEPNSt7__cxx1112basic_stringIcSt11char_traitsIcESaIcEEE
et:_ZN2el14Configurations6Parser7isLevelERKNSt7__cxx1112basic_stringIcSt11char_traitsIcESaIcEEE
et:_ZN2el14Configurations6Parser9isCommentERKNSt7__cxx1112basic_stringIcSt11char_traitsIcESaIcEEE
et:_ZN2el14Configurations6Parser9parseLineEPNSt7__cxx1112basic_stringIcSt11char_traitsIcESaIcEEES8_S8_PNS_5LevelEPS0_
et:_ZN2el14Configurations9unsafeSetENS_5LevelENS_17ConfigurationTypeERKNSt7__cxx1112basic_stringIcSt11char_traitsIcESaIcEEE
et:_ZN2el14ConfigurationsC1ERKNSt7__cxx1112basic_stringIcSt11char_traitsIcESaIcEEEbPS0_
et:_ZN2el14ConfigurationsC1Ev
et:_ZN2el14ConfigurationsC2ERKNSt7__cxx1112basic_stringIcSt11char_traitsIcESaIcEEEbPS0_
et:_ZN2el14ConfigurationsC2Ev
et:_ZN2el14elCrashHandlerE
et:_ZN2el19LogDispatchCallback10fileHandleEPKNS_15LogDispatchDataE
et:_ZN2el19LogDispatchCallback6handleEPKNS_15LogDispatchDataE
et:_ZN2el23ConfigurationTypeHelper15convertToStringENS_17ConfigurationTypeE
et:_ZN2el23ConfigurationTypeHelper17convertFromStringEPKc
et:_ZN2el4base12PErrorWriterD0Ev
et:_ZN2el4base12PErrorWriterD1Ev
et:_ZN2el4base12PErrorWriterD2Ev
et:_ZN2el4base13LogDispatcher8dispatchEv
et:_ZN2el4base14MessageBuilder10initializeEPNS_6LoggerE
et:_ZN2el4base14MessageBuilderlsEPKw
et:_ZN2el4base17RegisteredLoggers14unsafeFlushAllEv
et:_ZN2el4base17RegisteredLoggers3getERKNSt7__cxx1112basic_stringIcSt11char_traitsIcESaIcEEEb
et:_ZN2el4base17RegisteredLoggers6removeERKNSt7__cxx1112basic_stringIcSt11char_traitsIcESaIcEEE
et:_ZN2el4base17RegisteredLoggersC1ERKSt10shared_ptrINS_10LogBuilderEE
et:_ZN2el4base17RegisteredLoggersC2ERKSt10shared_ptrINS_10LogBuilderEE
et:_ZN2el4base18SubsecondPrecision4initEi
et:_ZN2el4base19TypedConfigurations10fileStreamENS_5LevelE
et:_ZN2el4base19TypedConfigurations10insertFileENS_5LevelERKNSt7__cxx1112basic_stringIcSt11char_traitsIcESaIcEEE
et:_ZN2el4base19TypedConfigurations14maxLogFileSizeENS_5LevelE
et:_ZN2el4base19TypedConfigurations15resolveFilenameERKNSt7__cxx1112basic_stringIcSt11char_traitsIcESaIcEEE
et:_ZN2el4base19TypedConfigurations16toStandardOutputENS_5LevelE
et:_ZN2el4base19TypedConfigurations17logFlushThresholdENS_5LevelE
et:_ZN2el4base19TypedConfigurations17millisecondsWidthENS_5LevelE
et:_ZN2el4base19TypedConfigurations18subsecondPrecisionENS_5LevelE
et:_ZN2el4base19TypedConfigurations19performanceTrackingENS_5LevelE
et:_ZN2el4base19TypedConfigurations25unsafeValidateFileRollingENS_5LevelERKSt8functionIFvPKcmEE
et:_ZN2el4base19TypedConfigurations5buildEPNS_14ConfigurationsE
et:_ZN2el4base19TypedConfigurations6toFileENS_5LevelE
et:_ZN2el4base19TypedConfigurations7enabledENS_5LevelE
et:_ZN2el4base19TypedConfigurations8filenameB5cxx11ENS_5LevelE
et:_ZN2el4base19TypedConfigurations8getULongENSt7__cxx1112basic_stringIcSt11char_traitsIcESaIcEEE
et:_ZN2el4base19TypedConfigurations9logFormatENS_5LevelE
et:_ZN2el4base19TypedConfigurationsC1EPNS_14ConfigurationsESt10shared_ptrISt13unordered_mapINSt7__cxx1112basic_stringIcSt11char_traitsIcESaIcEEES4_ISt13basic_fstreamIcS9_EESt4hashISB_ESt8equal_toISB_ESaISt4pairIKSB_SE_EEEE
et:_ZN2el4base19TypedConfigurationsC1ERKS1_
et:_ZN2el4base19TypedConfigurationsC2EPNS_14ConfigurationsESt10shared_ptrISt13unordered_mapINSt7__cxx1112basic_stringIcSt11char_traitsIcESaIcEEES4_ISt13basic_fstreamIcS9_EESt4hashISB_ESt8equal_toISB_ESaISt4pairIKSB_SE_EEEE
et:_ZN2el4base19TypedConfigurationsC2ERKS1_
et:_ZN2el4base21RegisteredHitCounters14validateAfterNEPKcmm
et:_ZN2el4base21RegisteredHitCounters14validateEveryNEPKcmm
et:_ZN2el4base21RegisteredHitCounters14validateNTimesEPKcmm
et:_ZN2el4base26DefaultLogDispatchCallback6handleEPKNS_15LogDispatchDataE
et:_ZN2el4base26DefaultLogDispatchCallback8dispatchEONSt7__cxx1112basic_stringIcSt11char_traitsIcESaIcEEE
et:_ZN2el4base5debug10StackTrace11generateNewEv
et:_ZN2el4base5debug10StackTrace15StackTraceEntryC1EmRKNSt7__cxx1112basic_stringIcSt11char_traitsIcESaIcEEESB_SB_SB_
et:_ZN2el4base5debug10StackTrace15StackTraceEntryC2EmRKNSt7__cxx1112basic_stringIcSt11char_traitsIcESaIcEEESB_SB_SB_
et:_ZN2el4base5debug12CrashHandler10setHandlerERKPFviE
et:_ZN2el4base5debug12CrashHandlerC1Eb
et:_ZN2el4base5debug12CrashHandlerC2Eb
et:_ZN2el4base5debuglsERSoRKNS1_10StackTrace15StackTraceEntryE
et:_ZN2el4base5debuglsERSoRKNS1_10StackTraceE
et:_ZN2el4base5utils15CommandLineArgs7setArgsEiPPc
et:_ZN2el4base5utils2OS11currentHostB5cxx11Ev
et:_ZN2el4base5utils2OS11currentUserB5cxx11Ev
et:_ZN2el4base5utils2OS13getBashOutputB5cxx11EPKc
et:_ZN2el4base5utils2OS17termSupportsColorEv
et:_ZN2el4base5utils2OS22getEnvironmentVariableB5cxx11EPKcS4_S4_
et:_ZN2el4base5utils3Str10replaceAllERNSt7__cxx1112basic_stringIcSt11char_traitsIcESaIcEEERKS8_SB_
et:_ZN2el4base5utils3Str10replaceAllERNSt7__cxx1112basic_stringIcSt11char_traitsIcESaIcEEEcc
et:_ZN2el4base5utils3Str10startsWithERKNSt7__cxx1112basic_stringIcSt11char_traitsIcESaIcEEESA_
et:_ZN2el4base5utils3Str13cStringCaseEqEPKcS4_
et:_ZN2el4base5utils3Str13wildCardMatchEPKcS4_
et:_ZN2el4base5utils3Str17wcharPtrToCharPtrEPKw
et:_ZN2el4base5utils3Str19convertAndAddToBuffEmiPcPKcb
et:_ZN2el4base5utils3Str22replaceFirstWithEscapeERNSt7__cxx1112basic_stringIcSt11char_traitsIcESaIcEEERKS8_SB_
et:_ZN2el4base5utils3Str4trimERNSt7__cxx1112basic_stringIcSt11char_traitsIcESaIcEEE
et:_ZN2el4base5utils3Str5ltrimERNSt7__cxx1112basic_stringIcSt11char_traitsIcESaIcEEE
et:_ZN2el4base5utils3Str5rtrimERNSt7__cxx1112basic_stringIcSt11char_traitsIcESaIcEEE
et:_ZN2el4base5utils3Str7toUpperERNSt7__cxx1112basic_stringIcSt11char_traitsIcESaIcEEE
et:_ZN2el4base5utils3Str8containsEPKcc
et:_ZN2el4base5utils3Str8endsWithERKNSt7__cxx1112basic_stringIcSt11char_traitsIcESaIcEEESA_
et:_ZN2el4base5utils3Str9addToBuffEPKcPcS4_
et:_ZN2el4base5utils3Str9cStringEqEPKcS4_
et:_ZN2el4base5utils3Str9clearBuffEPcm
et:_ZN2el4base5utils4File10createPathERKNSt7__cxx1112basic_stringIcSt11char_traitsIcESaIcEEE
et:_ZN2el4base5utils4File10pathExistsEPKcb
et:_ZN2el4base5utils4File13getSizeOfFileEPSt13basic_fstreamIcSt11char_traitsIcEE
et:_ZN2el4base5utils4File13newFileStreamERKNSt7__cxx1112basic_stringIcSt11char_traitsIcESaIcEEE
et:_ZN2el4base5utils4File17buildBaseFilenameERKNSt7__cxx1112basic_stringIcSt11char_traitsIcESaIcEEEPcmPKc
et:_ZN2el4base5utils4File21buildStrippedFilenameEPKcPcm
et:_ZN2el4base5utils4File23extractPathFromFilenameERKNSt7__cxx1112basic_stringIcSt11char_traitsIcESaIcEEEPKc
et:_ZN2el4base5utils8DateTime10formatTimeB5cxx11EyNS0_13TimestampUnitE
et:_ZN2el4base5utils8DateTime11getDateTimeB5cxx11EPKcPKNS0_18SubsecondPrecisionE
et:_ZN2el4base5utils8DateTime11parseFormatEPcmPKcPK2tmmPKNS0_18SubsecondPrecisionE
et:_ZN2el4base5utils8DateTime12gettimeofdayEP7timeval
et:_ZN2el4base5utils8DateTime13buildTimeInfoEP7timevalP2tm
et:_ZN2el4base5utils8DateTime15timevalToStringB5cxx11E7timevalPKcPKNS0_18SubsecondPrecisionE
et:_ZN2el4base5utils8DateTime17getTimeDifferenceERK7timevalS5_NS0_13TimestampUnitE
et:_ZN2el4base5utilslsERSoRKNS1_15CommandLineArgsE
et:_ZN2el4base6Writer15processDispatchEv
et:_ZN2el4base6Writer15triggerDispatchEv
et:_ZN2el4base6Writer16initializeLoggerERKNSt7__cxx1112basic_stringIcSt11char_traitsIcESaIcEEEbb
et:_ZN2el4base6Writer9constructEPNS_6LoggerEb
et:_ZN2el4base6Writer9constructEiPKcz
et:_ZN2el4base7Storage23setApplicationArgumentsEiPPc
et:_ZN2el4base7Storage24hasCustomFormatSpecifierEPKc
et:_ZN2el4base7Storage28installCustomFormatSpecifierERKNS_21CustomFormatSpecifierE
et:_ZN2el4base7Storage30uninstallCustomFormatSpecifierEPKc
et:_ZN2el4base7StorageC1ERKSt10shared_ptrINS_10LogBuilderEE
et:_ZN2el4base7StorageC2ERKSt10shared_ptrINS_10LogBuilderEE
et:_ZN2el4base7StorageD0Ev
et:_ZN2el4base7StorageD1Ev
et:_ZN2el4base7StorageD2Ev
et:_ZN2el4base9LogFormat15parseFromFormatERKNSt7__cxx1112basic_stringIcSt11char_traitsIcESaIcEEE
et:_ZN2el4base9LogFormat16updateDateFormatEmRNSt7__cxx1112basic_stringIcSt11char_traitsIcESaIcEEE
et:_ZN2el4base9LogFormat16updateFormatSpecEv
et:_ZN2el4base9LogFormatC1ENS_5LevelERKNSt7__cxx1112basic_stringIcSt11char_traitsIcESaIcEEE
et:_ZN2el4base9LogFormatC1EOS1_
et:_ZN2el4base9LogFormatC1ERKS1_
et:_ZN2el4base9LogFormatC1Ev
et:_ZN2el4base9LogFormatC2ENS_5LevelERKNSt7__cxx1112basic_stringIcSt11char_traitsIcESaIcEEE
et:_ZN2el4base9LogFormatC2EOS1_
et:_ZN2el4base9LogFormatC2ERKS1_
et:_ZN2el4base9LogFormatC2Ev
et:_ZN2el4base9LogFormataSERKS1_
et:_ZN2el4base9LogFormateqERKS1_
et:_ZN2el4base9VRegistry10setModulesEPKc
et:_ZN2el4base9VRegistry11setFromArgsEPKNS0_5utils15CommandLineArgsE
et:_ZN2el4base9VRegistry7allowedEtPKc
et:_ZN2el4base9VRegistry8setLevelEt
et:_ZN2el4base9VRegistryC1EtPj
et:_ZN2el4base9VRegistryC2EtPj
et:_ZN2el4base9elStorageE
et:_ZN2el6Logger11reconfigureEv
et:_ZN2el6Logger18initUnflushedCountEv
et:_ZN2el6Logger5flushENS_5LevelEPSt13basic_fstreamIcSt11char_traitsIcEE
et:_ZN2el6Logger5flushEv
et:_ZN2el6Logger9configureERKNS_14ConfigurationsE
et:_ZN2el6Logger9isValidIdERKNSt7__cxx1112basic_stringIcSt11char_traitsIcESaIcEEE
et:_ZN2el6LoggerC1ERKNSt7__cxx1112basic_stringIcSt11char_traitsIcESaIcEEERKNS_14ConfigurationsESt10shared_ptrISt13unordered_mapIS6_SC_ISt13basic_fstreamIcS4_EESt4hashIS6_ESt8equal_toIS6_ESaISt4pairIS7_SG_EEEE
et:_ZN2el6LoggerC1ERKNSt7__cxx1112basic_stringIcSt11char_traitsIcESaIcEEESt10shared_ptrISt13unordered_mapIS6_S9_ISt13basic_fstreamIcS4_EESt4hashIS6_ESt8equal_toIS6_ESaISt4pairIS7_SD_EEEE
et:_ZN2el6LoggerC1ERKS0_
et:_ZN2el6LoggerC2ERKNSt7__cxx1112basic_stringIcSt11char_traitsIcESaIcEEERKNS_14ConfigurationsESt10shared_ptrISt13unordered_mapIS6_SC_ISt13basic_fstreamIcS4_EESt4hashIS6_ESt8equal_toIS6_ESaISt4pairIS7_SG_EEEE
et:_ZN2el6LoggerC2ERKNSt7__cxx1112basic_stringIcSt11char_traitsIcESaIcEEESt10shared_ptrISt13unordered_mapIS6_S9_ISt13basic_fstreamIcS4_EESt4hashIS6_ESt8equal_toIS6_ESaISt4pairIS7_SD_EEEE
et:_ZN2el6LoggerC2ERKS0_
et:_ZN2el6LoggeraSERKS0_
et:_ZN2el7Helpers10crashAbortEiPKcm
et:_ZN2el7Helpers14logCrashReasonEibNS_5LevelEPKc
et:_ZN2el7Loggers11setVModulesEPKc
et:_ZN2el7Loggers12verboseLevelEv
et:_ZN2el7Loggers13clearVModulesEv
et:_ZN2el7Loggers15setVerboseLevelEt
et:_ZN2el7Loggers16configureFromArgEPKc
et:_ZN2el7Loggers16unregisterLoggerERKNSt7__cxx1112basic_stringIcSt11char_traitsIcESaIcEEE
et:_ZN2el7Loggers17reconfigureLoggerEPNS_6LoggerERKNS_14ConfigurationsE
et:_ZN2el7Loggers17reconfigureLoggerERKNSt7__cxx1112basic_stringIcSt11char_traitsIcESaIcEEENS_17ConfigurationTypeES8_
et:_ZN2el7Loggers17reconfigureLoggerERKNSt7__cxx1112basic_stringIcSt11char_traitsIcESaIcEEERKNS_14ConfigurationsE
et:_ZN2el7Loggers19configureFromGlobalEPKc
et:_ZN2el7Loggers19logStreamsReferenceB5cxx11Ev
et:_ZN2el7Loggers20populateAllLoggerIdsEPSt6vectorINSt7__cxx1112basic_stringIcSt11char_traitsIcESaIcEEESaIS7_EE
et:_ZN2el7Loggers20setDefaultLogBuilderERSt10shared_ptrINS_10LogBuilderEE
et:_ZN2el7Loggers21defaultConfigurationsEv
et:_ZN2el7Loggers21reconfigureAllLoggersENS_5LevelENS_17ConfigurationTypeERKNSt7__cxx1112basic_stringIcSt11char_traitsIcESaIcEEE
et:_ZN2el7Loggers21reconfigureAllLoggersERKNS_14ConfigurationsE
et:_ZN2el7Loggers24setDefaultConfigurationsERKNS_14ConfigurationsEb
et:_ZN2el7Loggers26defaultTypedConfigurationsEv
et:_ZN2el7Loggers8flushAllEv
et:_ZN2el7Loggers9getLoggerERKNSt7__cxx1112basic_stringIcSt11char_traitsIcESaIcEEEb
et:_ZN2el7Loggers9hasLoggerERKNSt7__cxx1112basic_stringIcSt11char_traitsIcESaIcEEE
et:_ZN2et10Connection10readPacketEPNS_6PacketE
et:_ZN2et10Connection11closeSocketEv
et:_ZN2et10Connection11writePacketERKNS_6PacketE
et:_ZN2et10Connection4readEPNS_6PacketE
et:_ZN2et10Connection5writeERKNS_6PacketE
et:_ZN2et10Connection7recoverEi
et:_ZN2et10Connection8shutdownEv
et:_ZN2et10ConnectionC1ESt10shared_ptrINS_13SocketHandlerEERKNSt7__cxx1112basic_stringIcSt11char_traitsIcESaIcEEESB_
et:_ZN2et10ConnectionC2ESt10shared_ptrINS_13SocketHandlerEERKNSt7__cxx1112basic_stringIcSt11char_traitsIcESaIcEEESB_
et:_ZN2et10ConnectionD0Ev
et:_ZN2et10ConnectionD1Ev
et:_ZN2et10ConnectionD2Ev
et:_ZN2et10LogHandler12setupLogFileEPN2el14ConfigurationsENSt7__cxx1112basic_stringIcSt11char_traitsIcESaIcEEES9_
et:_ZN2et10LogHandler12stderrToFileERKNSt7__cxx1112basic_stringIcSt11char_traitsIcESaIcEEE
et:_ZN2et10LogHandler14rolloutHandlerEPKcm
et:_ZN2et10LogHandler15setupLogHandlerEPiPPPc
et:_ZN2et10LogHandler17setupStdoutLoggerEv
et:_ZN2et10genCommandERKNSt7__cxx1112basic_stringIcSt11char_traitsIcESaIcEEES7_S7_S7_bS7_S7_
et:_ZN2et12BackedReader23constructPartialMessageEPNS_6PacketE
et:_ZN2et12BackedReader23getPartialMessageLengthEv
et:_ZN2et12BackedReader4readEPNS_6PacketE
et:_ZN2et12BackedReader6reviveEiRKSt6vectorINSt7__cxx1112basic_stringIcSt11char_traitsIcESaIcEEESaIS7_EE
et:_ZN2et12BackedReader7hasDataEv
et:_ZN2et12BackedReaderC1ESt10shared_ptrINS_13SocketHandlerEES1_INS_13CryptoHandlerEEi
et:_ZN2et12BackedReaderC2ESt10shared_ptrINS_13SocketHandlerEES1_INS_13CryptoHandlerEEi
et:_ZN2et12BackedWriter5writeENS_6PacketE
et:_ZN2et12BackedWriter6reviveEi
et:_ZN2et12BackedWriter7recoverB5cxx11El
et:_ZN2et12BackedWriterC1ESt10shared_ptrINS_13SocketHandlerEES1_INS_13CryptoHandlerEEi
et:_ZN2et12BackedWriterC2ESt10shared_ptrINS_13SocketHandlerEES1_INS_13CryptoHandlerEEi
et:_ZN2et12ConfigParams12InternalSwapEPS0_
et:_ZN2et12ConfigParams14_InternalParseEPKcPN6google8protobuf8internal12ParseContextE
et:_ZN2et12ConfigParams21CheckTypeAndMergeFromERKN6google8protobuf11MessageLiteE
et:_ZN2et12ConfigParams5ClearEv
et:_ZN2et12ConfigParams8CopyFromERKS0_
et:_ZN2et12ConfigParams9MergeFromERKS0_
et:_ZN2et12ConfigParamsC1EPN6google8protobuf5ArenaEb
et:_ZN2et12ConfigParamsC1ERKS0_
et:_ZN2et12ConfigParamsC2EPN6google8protobuf5ArenaEb
et:_ZN2et12ConfigParamsC2ERKS0_
et:_ZN2et12ConfigParamsD0Ev
et:_ZN2et12ConfigParamsD1Ev
et:_ZN2et12ConfigParamsD2Ev
et:_ZN2et12TerminalInfo12InternalSwapEPS0_
et:_ZN2et12TerminalInfo14_InternalParseEPKcPN6google8protobuf8internal12ParseContextE
et:_ZN2et12TerminalInfo21CheckTypeAndMergeFromERKN6google8protobuf11MessageLiteE
et:_ZN2et12TerminalInfo5ClearEv
et:_ZN2et12TerminalInfo8CopyFromERKS0_
et:_ZN2et12TerminalInfo9MergeFromERKS0_
et:_ZN2et12TerminalInfoC1EPN6google8protobuf5ArenaEb
et:_ZN2et12TerminalInfoC1ERKS0_
et:_ZN2et12TerminalInfoC2EPN6google8protobuf5ArenaEb
et:_ZN2et12TerminalInfoC2ERKS0_
et:_ZN2et12TerminalInfoD0Ev
et:_ZN2et12TerminalInfoD1Ev
et:_ZN2et12TerminalInfoD2Ev
et:_ZN2et13CatchupBuffer12InternalSwapEPS0_
et:_ZN2et13CatchupBuffer14_InternalParseEPKcPN6google8protobuf8internal12ParseContextE
et:_ZN2et13CatchupBuffer21CheckTypeAndMergeFromERKN6google8protobuf11MessageLiteE
et:_ZN2et13CatchupBuffer5ClearEv
et:_ZN2et13CatchupBuffer8CopyFromERKS0_
et:_ZN2et13CatchupBuffer9MergeFromERKS0_
et:_ZN2et13CatchupBufferC1EPN6google8protobuf5ArenaEb
et:_ZN2et13CatchupBufferC1ERKS0_
et:_ZN2et13CatchupBufferC2EPN6google8protobuf5ArenaEb
et:_ZN2et13CatchupBufferC2ERKS0_
et:_ZN2et13CatchupBufferD0Ev
et:_ZN2et13CatchupBufferD1Ev
et:_ZN2et13CatchupBufferD2Ev
et:_ZN2et13CryptoHandler14incrementNonceEv
et:_ZN2et13CryptoHandler7decryptERKNSt7__cxx1112basic_stringIcSt11char_traitsIcESaIcEEE
et:_ZN2et13CryptoHandler7encryptERKNSt7__cxx1112basic_stringIcSt11char_traitsIcESaIcEEE
et:_ZN2et13CryptoHandlerC1ERKNSt7__cxx1112basic_stringIcSt11char_traitsIcESaIcEEEh
et:_ZN2et13CryptoHandlerC2ERKNSt7__cxx1112basic_stringIcSt11char_traitsIcESaIcEEEh
et:_ZN2et13CryptoHandlerD1Ev
et:_ZN2et13CryptoHandlerD2Ev
et:_ZN2et13SocketHandler15writeAllOrThrowEiPKvmb
et:_ZN2et13SocketHandler16writeAllOrReturnEiPKvm
et:_ZN2et13SocketHandler20readB64EncodedLengthEiPNSt7__cxx1112basic_stringIcSt11char_traitsIcESaIcEEEm
et:_ZN2et13SocketHandler7readAllEiPvmb
et:_ZN2et13SocketHandler7readB64EiPcm
et:_ZN2et13SocketHandler8writeB64EiPKcm
et:_ZN2et14ConnectRequest12InternalSwapEPS0_
et:_ZN2et14ConnectRequest14_InternalParseEPKcPN6google8protobuf8internal12ParseContextE
et:_ZN2et14ConnectRequest21CheckTypeAndMergeFromERKN6google8protobuf11MessageLiteE
et:_ZN2et14ConnectRequest5ClearEv
et:_ZN2et14ConnectRequest8CopyFromERKS0_
et:_ZN2et14ConnectRequest9MergeFromERKS0_
et:_ZN2et14ConnectRequestC1EPN6google8protobuf5ArenaEb
et:_ZN2et14ConnectRequestC1ERKS0_
et:_ZN2et14ConnectRequestC2EPN6google8protobuf5ArenaEb
et:_ZN2et14ConnectRequestC2ERKS0_
et:_ZN2et14ConnectRequestD0Ev
et:_ZN2et14ConnectRequestD1Ev
et:_ZN2et14ConnectRequestD2Ev
et:_ZN2et14InitialPayload12InternalSwapEPS0_
et:_ZN2et14InitialPayload14_InternalParseEPKcPN6google8protobuf8internal12ParseContextE
et:_ZN2et14InitialPayload21CheckTypeAndMergeFromERKN6google8protobuf11MessageLiteE
et:_ZN2et14InitialPayload5ClearEv
et:_ZN2et14InitialPayload8CopyFromERKS0_
et:_ZN2et14InitialPayload9MergeFromERKS0_
et:_ZN2et14InitialPayloadC1EPN6google8protobuf5ArenaEb
et:_ZN2et14InitialPayloadC1ERKS0_
et:_ZN2et14InitialPayloadC2EPN6google8protobuf5ArenaEb
et:_ZN2et14InitialPayloadC2ERKS0_
et:_ZN2et14InitialPayloadD0Ev
et:_ZN2et14InitialPayloadD1Ev
et:_ZN2et14InitialPayloadD2Ev
et:_ZN2et14RawSocketUtils7readAllEiPcm
et:_ZN2et14RawSocketUtils8writeAllEiPKcm
et:_ZN2et14SequenceHeader12InternalSwapEPS0_
et:_ZN2et14SequenceHeader14_InternalParseEPKcPN6google8protobuf8internal12ParseContextE
et:_ZN2et14SequenceHeader21CheckTypeAndMergeFromERKN6google8protobuf11MessageLiteE
et:_ZN2et14SequenceHeader5ClearEv
et:_ZN2et14SequenceHeader8CopyFromERKS0_
et:_ZN2et14SequenceHeader9MergeFromERKS0_
et:_ZN2et14SequenceHeaderC1EPN6google8protobuf5ArenaEb
et:_ZN2et14SequenceHeaderC1ERKS0_
et:_ZN2et14SequenceHeaderC2EPN6google8protobuf5ArenaEb
et:_ZN2et14SequenceHeaderC2ERKS0_
et:_ZN2et14SequenceHeaderD0Ev
et:_ZN2et14SequenceHeaderD1Ev
et:_ZN2et14SequenceHeaderD2Ev
et:_ZN2et14SocketEndpoint12InternalSwapEPS0_
et:_ZN2et14SocketEndpoint14_InternalParseEPKcPN6google8protobuf8internal12ParseContextE
et:_ZN2et14SocketEndpoint21CheckTypeAndMergeFromERKN6google8protobuf11MessageLiteE
et:_ZN2et14SocketEndpoint5ClearEv
et:_ZN2et14SocketEndpoint8CopyFromERKS0_
et:_ZN2et14SocketEndpoint9MergeFromERKS0_
et:_ZN2et14SocketEndpointC1EPN6google8protobuf5ArenaEb
et:_ZN2et14SocketEndpointC1ERKS0_
et:_ZN2et14SocketEndpointC2EPN6google8protobuf5ArenaEb
et:_ZN2et14SocketEndpointC2ERKS0_
et:_ZN2et14SocketEndpointD0Ev
et:_ZN2et14SocketEndpointD1Ev
et:_ZN2et14SocketEndpointD2Ev
et:_ZN2et14TerminalBuffer12InternalSwapEPS0_
et:_ZN2et14TerminalBuffer14_InternalParseEPKcPN6google8protobuf8internal12ParseContextE
et:_ZN2et14TerminalBuffer21CheckTypeAndMergeFromERKN6google8protobuf11MessageLiteE
et:_ZN2et14TerminalBuffer5ClearEv
et:_ZN2et14TerminalBuffer8CopyFromERKS0_
et:_ZN2et14TerminalBuffer9MergeFromERKS0_
et:_ZN2et14TerminalBufferC1EPN6google8protobuf5ArenaEb
et:_ZN2et14TerminalBufferC1ERKS0_
et:_ZN2et14TerminalBufferC2EPN6google8protobuf5ArenaEb
et:_ZN2et14TerminalBufferC2ERKS0_
et:_ZN2et14TerminalBufferD0Ev
et:_ZN2et14TerminalBufferD1Ev
et:_ZN2et14TerminalBufferD2Ev
et:_ZN2et14TerminalClient3runERKNSt7__cxx1112basic_stringIcSt11char_traitsIcESaIcEEE
et:_ZN2et14TerminalClientC1ESt10shared_ptrINS_13SocketHandlerEES3_RKNS_14SocketEndpointERKNSt7__cxx1112basic_stringIcSt11char_traitsIcESaIcEEESE_S1_INS_7ConsoleEEbSE_SE_bSE_i
et:_ZN2et14TerminalClientC2ESt10shared_ptrINS_13SocketHandlerEES3_RKNS_14SocketEndpointERKNSt7__cxx1112basic_stringIcSt11char_traitsIcESaIcEEESE_S1_INS_7ConsoleEEbSE_SE_bSE_i
et:_ZN2et14TerminalClientD0Ev
et:_ZN2et14TerminalClientD1Ev
et:_ZN2et14TerminalClientD2Ev
et:_ZN2et15ConnectResponse12InternalSwapEPS0_
et:_ZN2et15ConnectResponse14_InternalParseEPKcPN6google8protobuf8internal12ParseContextE
et:_ZN2et15ConnectResponse21CheckTypeAndMergeFromERKN6google8protobuf11MessageLiteE
et:_ZN2et15ConnectResponse5ClearEv
et:_ZN2et15ConnectResponse8CopyFromERKS0_
et:_ZN2et15ConnectResponse9MergeFromERKS0_
et:_ZN2et15ConnectResponseC1EPN6google8protobuf5ArenaEb
et:_ZN2et15ConnectResponseC1ERKS0_
et:_ZN2et15ConnectResponseC2EPN6google8protobuf5ArenaEb
et:_ZN2et15ConnectResponseC2ERKS0_
et:_ZN2et15ConnectResponseD0Ev
et:_ZN2et15ConnectResponseD1Ev
et:_ZN2et15ConnectResponseD2Ev
et:_ZN2et15InitialResponse12InternalSwapEPS0_
et:_ZN2et15InitialResponse14_InternalParseEPKcPN6google8protobuf8internal12ParseContextE
et:_ZN2et15InitialResponse21CheckTypeAndMergeFromERKN6google8protobuf11MessageLiteE
et:_ZN2et15InitialResponse5ClearEv
et:_ZN2et15InitialResponse8CopyFromERKS0_
et:_ZN2et15InitialResponse9MergeFromERKS0_
et:_ZN2et15InitialResponseC1EPN6google8protobuf5ArenaEb
et:_ZN2et15InitialResponseC1ERKS0_
et:_ZN2et15InitialResponseC2EPN6google8protobuf5ArenaEb
et:_ZN2et15InitialResponseC2ERKS0_
et:_ZN2et15InitialResponseD0Ev
et:_ZN2et15InitialResponseD1Ev
et:_ZN2et15InitialResponseD2Ev
et:_ZN2et15PortForwardData12InternalSwapEPS0_
et:_ZN2et15PortForwardData14_InternalParseEPKcPN6google8protobuf8internal12ParseContextE
et:_ZN2et15PortForwardData21CheckTypeAndMergeFromERKN6google8protobuf11MessageLiteE
et:_ZN2et15PortForwardData5ClearEv
et:_ZN2et15PortForwardData8CopyFromERKS0_
et:_ZN2et15PortForwardData9MergeFromERKS0_
et:_ZN2et15PortForwardDataC1EPN6google8protobuf5ArenaEb
et:_ZN2et15PortForwardDataC1ERKS0_
et:_ZN2et15PortForwardDataC2EPN6google8protobuf5ArenaEb
et:_ZN2et15PortForwardDataC2ERKS0_
et:_ZN2et15PortForwardDataD0Ev
et:_ZN2et15PortForwardDataD1Ev
et:_ZN2et15PortForwardDataD2Ev
et:_ZN2et15SshSetupHandler8SetupSshERKNSt7__cxx1112basic_stringIcSt11char_traitsIcESaIcEEES8_S8_iS8_ibiS8_S8_RKSt6vectorIS6_SaIS6_EE
et:_ZN2et16ClientConnection13pollReconnectEv
et:_ZN2et16ClientConnection13waitReconnectEv
et:_ZN2et16ClientConnection28closeSocketAndMaybeReconnectEv
et:_ZN2et16ClientConnection7connectEv
et:_ZN2et16ClientConnectionC1ESt10shared_ptrINS_13SocketHandlerEERKNS_14SocketEndpointERKNSt7__cxx1112basic_stringIcSt11char_traitsIcESaIcEEESE_
et:_ZN2et16ClientConnectionC2ESt10shared_ptrINS_13SocketHandlerEERKNS_14SocketEndpointERKNSt7__cxx1112basic_stringIcSt11char_traitsIcESaIcEEESE_
et:_ZN2et16ClientConnectionD0Ev
et:_ZN2et16ClientConnectionD1Ev
et:_ZN2et16ClientConnectionD2Ev
et:_ZN2et16TcpSocketHandler10initSocketEi
et:_ZN2et16TcpSocketHandler13stopListeningERKNS_14SocketEndpointE
et:_ZN2et16TcpSocketHandler14getEndpointFdsERKNS_14SocketEndpointE
et:_ZN2et16TcpSocketHandler6listenERKNS_14SocketEndpointE
et:_ZN2et16TcpSocketHandler7connectERKNS_14SocketEndpointE
et:_ZN2et16TcpSocketHandlerC1Ev
et:_ZN2et16TcpSocketHandlerC2Ev
et:_ZN2et16TelemetryService11logToSentryEN2el5LevelERKNSt7__cxx1112basic_stringIcSt11char_traitsIcESaIcEEE
et:_ZN2et16TelemetryService12logToDatadogERKNSt7__cxx1112basic_stringIcSt11char_traitsIcESaIcEEEN2el5LevelES8_i
et:_ZN2et16TelemetryService24telemetryServiceInstanceE
et:_ZN2et16TelemetryService8shutdownEv
et:_ZN2et16TelemetryServiceC1EbRKNSt7__cxx1112basic_stringIcSt11char_traitsIcESaIcEEES8_
et:_ZN2et16TelemetryServiceC2EbRKNSt7__cxx1112basic_stringIcSt11char_traitsIcESaIcEEES8_
et:_ZN2et16TelemetryServiceD0Ev
et:_ZN2et16TelemetryServiceD1Ev
et:_ZN2et16TelemetryServiceD2Ev
et:_ZN2et16TerminalUserInfo12InternalSwapEPS0_
et:_ZN2et16TerminalUserInfo14_InternalParseEPKcPN6google8protobuf8internal12ParseContextE
et:_ZN2et16TerminalUserInfo21CheckTypeAndMergeFromERKN6google8protobuf11MessageLiteE
et:_ZN2et16TerminalUserInfo5ClearEv
et:_ZN2et16TerminalUserInfo8CopyFromERKS0_
et:_ZN2et16TerminalUserInfo9MergeFromERKS0_
et:_ZN2et16TerminalUserInfoC1EPN6google8protobuf5ArenaEb
et:_ZN2et16TerminalUserInfoC1ERKS0_
et:_ZN2et16TerminalUserInfoC2EPN6google8protobuf5ArenaEb
et:_ZN2et16TerminalUserInfoC2ERKS0_
et:_ZN2et16TerminalUserInfoD0Ev
et:_ZN2et16TerminalUserInfoD1Ev
et:_ZN2et16TerminalUserInfoD2Ev
et:_ZN2et17EtPacketType_NameB5cxx11ENS_12EtPacketTypeE
et:_ZN2et17PipeSocketHandler13stopListeningERKNS_14SocketEndpointE
et:_ZN2et17PipeSocketHandler14getEndpointFdsERKNS_14SocketEndpointE
et:_ZN2et17PipeSocketHandler6listenERKNS_14SocketEndpointE
et:_ZN2et17PipeSocketHandler7connectERKNS_14SocketEndpointE
et:_ZN2et17PipeSocketHandlerC1Ev
et:_ZN2et17PipeSocketHandlerC2Ev
et:_ZN2et17UnixSocketHandler10initSocketEi
et:_ZN2et17UnixSocketHandler11setBlockingEib
et:_ZN2et17UnixSocketHandler11waitForDataEill
et:_ZN2et17UnixSocketHandler16getActiveSocketsEv
et:_ZN2et17UnixSocketHandler16initServerSocketEi
et:_ZN2et17UnixSocketHandler18addToActiveSocketsEi
et:_ZN2et17UnixSocketHandler4readEiPvm
et:_ZN2et17UnixSocketHandler5closeEi
et:_ZN2et17UnixSocketHandler5writeEiPKvm
et:_ZN2et17UnixSocketHandler6acceptEi
et:_ZN2et17UnixSocketHandler7hasDataEi
et:_ZN2et17UnixSocketHandlerC1Ev
et:_ZN2et17UnixSocketHandlerC2Ev
et:_ZN2et17shutdownTelemetryEv
et:_ZN2et18ConnectStatus_NameB5cxx11ENS_13ConnectStatusE
et:_ZN2et18EtPacketType_ParseERKNSt7__cxx1112basic_stringIcSt11char_traitsIcESaIcEEEPNS_12EtPacketTypeE
et:_ZN2et18PortForwardHandler12createSourceERKNS_24PortForwardSourceRequestEPNSt7__cxx1112basic_stringIcSt11char_traitsIcESaIcEEEjj
et:_ZN2et18PortForwardHandler12handlePacketERKNS_6PacketESt10shared_ptrINS_10ConnectionEE
et:_ZN2et18PortForwardHandler13closeSourceFdEi
et:_ZN2et18PortForwardHandler17addSourceSocketIdEii
et:_ZN2et18PortForwardHandler17createDestinationERKNS_29PortForwardDestinationRequestE
et:_ZN2et18PortForwardHandler19closeSourceSocketIdEi
et:_ZN2et18PortForwardHandler24sendDataToSourceOnSocketEiRKNSt7__cxx1112basic_stringIcSt11char_traitsIcESaIcEEE
et:_ZN2et18PortForwardHandler6updateEPSt6vectorINS_29PortForwardDestinationRequestESaIS2_EEPS1_INS_15PortForwardDataESaIS6_EE
et:_ZN2et18PortForwardHandlerC1ESt10shared_ptrINS_13SocketHandlerEES3_
et:_ZN2et18PortForwardHandlerC2ESt10shared_ptrINS_13SocketHandlerEES3_
et:_ZN2et19ConnectStatus_ParseERKNSt7__cxx1112basic_stringIcSt11char_traitsIcESaIcEEEPNS_13ConnectStatusE
et:_ZN2et20EtPacketType_IsValidEi
et:_ZN2et20ForwardSourceHandler11closeSocketEi
et:_ZN2et20ForwardSourceHandler15hasUnassignedFdEi
et:_ZN2et20ForwardSourceHandler16sendDataOnSocketEiRKNSt7__cxx1112basic_stringIcSt11char_traitsIcESaIcEEE
et:_ZN2et20ForwardSourceHandler17closeUnassignedFdEi
et:_ZN2et20ForwardSourceHandler6listenEv
et:_ZN2et20ForwardSourceHandler6updateEPSt6vectorINS_15PortForwardDataESaIS2_EE
et:_ZN2et20ForwardSourceHandler9addSocketEii
et:_ZN2et20ForwardSourceHandlerC1ESt10shared_ptrINS_13SocketHandlerEERKNS_14SocketEndpointES6_
et:_ZN2et20ForwardSourceHandlerC2ESt10shared_ptrINS_13SocketHandlerEERKNS_14SocketEndpointES6_
et:_ZN2et20ForwardSourceHandlerD1Ev
et:_ZN2et20ForwardSourceHandlerD2Ev
et:_ZN2et21ConnectStatus_IsValidEi
et:_ZN2et21parseRangesToRequestsERKNSt7__cxx1112basic_stringIcSt11char_traitsIcESaIcEEE
et:_ZN2et23TerminalPacketType_NameB5cxx11ENS_18TerminalPacketTypeE
et:_ZN2et24PortForwardSourceRequest12InternalSwapEPS0_
et:_ZN2et24PortForwardSourceRequest12clear_sourceEv
et:_ZN2et24PortForwardSourceRequest14_InternalParseEPKcPN6google8protobuf8internal12ParseContextE
et:_ZN2et24PortForwardSourceRequest17clear_destinationEv
et:_ZN2et24PortForwardSourceRequest21CheckTypeAndMergeFromERKN6google8protobuf11MessageLiteE
et:_ZN2et24PortForwardSourceRequest5ClearEv
et:_ZN2et24PortForwardSourceRequest8CopyFromERKS0_
et:_ZN2et24PortForwardSourceRequest9MergeFromERKS0_
et:_ZN2et24PortForwardSourceRequest9_Internal11destinationEPKS0_
et:_ZN2et24PortForwardSourceRequest9_Internal6sourceEPKS0_
et:_ZN2et24PortForwardSourceRequestC1EPN6google8protobuf5ArenaEb
et:_ZN2et24PortForwardSourceRequestC1ERKS0_
et:_ZN2et24PortForwardSourceRequestC2EPN6google8protobuf5ArenaEb
et:_ZN2et24PortForwardSourceRequestC2ERKS0_
et:_ZN2et24PortForwardSourceRequestD0Ev
et:_ZN2et24PortForwardSourceRequestD1Ev
et:_ZN2et24PortForwardSourceRequestD2Ev
et:_ZN2et24TerminalPacketType_ParseERKNSt7__cxx1112basic_stringIcSt11char_traitsIcESaIcEEEPNS_18TerminalPacketTypeE
et:_ZN2et25ForwardDestinationHandler5closeEv
et:_ZN2et25ForwardDestinationHandler5writeERKNSt7__cxx1112basic_stringIcSt11char_traitsIcESaIcEEE
et:_ZN2et25ForwardDestinationHandler6updateEPSt6vectorINS_15PortForwardDataESaIS2_EE
et:_ZN2et25ForwardDestinationHandlerC1ESt10shared_ptrINS_13SocketHandlerEEii
et:_ZN2et25ForwardDestinationHandlerC2ESt10shared_ptrINS_13SocketHandlerEEii
et:_ZN2et25PortForwardSourceResponse12InternalSwapEPS0_
et:_ZN2et25PortForwardSourceResponse14_InternalParseEPKcPN6google8protobuf8internal12ParseContextE
et:_ZN2et25PortForwardSourceResponse21CheckTypeAndMergeFromERKN6google8protobuf11MessageLiteE
et:_ZN2et25PortForwardSourceResponse5ClearEv
et:_ZN2et25PortForwardSourceResponse8CopyFromERKS0_
et:_ZN2et25PortForwardSourceResponse9MergeFromERKS0_
et:_ZN2et25PortForwardSourceResponseC1EPN6google8protobuf5ArenaEb
et:_ZN2et25PortForwardSourceResponseC1ERKS0_
et:_ZN2et25PortForwardSourceResponseC2EPN6google8protobuf5ArenaEb
et:_ZN2et25PortForwardSourceResponseC2ERKS0_
et:_ZN2et25PortForwardSourceResponseD0Ev
et:_ZN2et25PortForwardSourceResponseD1Ev
et:_ZN2et25PortForwardSourceResponseD2Ev
et:_ZN2et26TerminalPacketType_IsValidEi
et:_ZN2et27_TermInit_default_instance_E
et:_ZN2et29PortForwardDestinationRequest12InternalSwapEPS0_
et:_ZN2et29PortForwardDestinationRequest14_InternalParseEPKcPN6google8protobuf8internal12ParseContextE
et:_ZN2et29PortForwardDestinationRequest17clear_destinationEv
et:_ZN2et29PortForwardDestinationRequest21CheckTypeAndMergeFromERKN6google8protobuf11MessageLiteE
et:_ZN2et29PortForwardDestinationRequest5ClearEv
et:_ZN2et29PortForwardDestinationRequest8CopyFromERKS0_
et:_ZN2et29PortForwardDestinationRequest9MergeFromERKS0_
et:_ZN2et29PortForwardDestinationRequest9_Internal11destinationEPKS0_
et:_ZN2et29PortForwardDestinationRequestC1EPN6google8protobuf5ArenaEb
et:_ZN2et29PortForwardDestinationRequestC1ERKS0_
et:_ZN2et29PortForwardDestinationRequestC2EPN6google8protobuf5ArenaEb
et:_ZN2et29PortForwardDestinationRequestC2ERKS0_
et:_ZN2et29PortForwardDestinationRequestD0Ev
et:_ZN2et29PortForwardDestinationRequestD1Ev
et:_ZN2et29PortForwardDestinationRequestD2Ev
et:_ZN2et29SubprocessToStringInteractiveERKNSt7__cxx1112basic_stringIcSt11char_traitsIcESaIcEEERKSt6vectorIS5_SaIS5_EE
et:_ZN2et30PortForwardDestinationResponse12InternalSwapEPS0_
et:_ZN2et30PortForwardDestinationResponse14_InternalParseEPKcPN6google8protobuf8internal12ParseContextE
et:_ZN2et30PortForwardDestinationResponse21CheckTypeAndMergeFromERKN6google8protobuf11MessageLiteE
et:_ZN2et30PortForwardDestinationResponse5ClearEv
et:_ZN2et30PortForwardDestinationResponse8CopyFromERKS0_
et:_ZN2et30PortForwardDestinationResponse9MergeFromERKS0_
et:_ZN2et30PortForwardDestinationResponseC1EPN6google8protobuf5ArenaEb
et:_ZN2et30PortForwardDestinationResponseC1ERKS0_
et:_ZN2et30PortForwardDestinationResponseC2EPN6google8protobuf5ArenaEb
et:_ZN2et30PortForwardDestinationResponseC2ERKS0_
et:_ZN2et30PortForwardDestinationResponseD0Ev
et:_ZN2et30PortForwardDestinationResponseD1Ev
et:_ZN2et30PortForwardDestinationResponseD2Ev
et:_ZN2et31_ConfigParams_default_instance_E
et:_ZN2et31_TerminalInfo_default_instance_E
et:_ZN2et32_CatchupBuffer_default_instance_E
et:_ZN2et33_ConnectRequest_default_instance_E
et:_ZN2et33_InitialPayload_default_instance_E
et:_ZN2et33_SequenceHeader_default_instance_E
et:_ZN2et33_SocketEndpoint_default_instance_E
et:_ZN2et33_TerminalBuffer_default_instance_E
et:_ZN2et34_ConnectResponse_default_instance_E
et:_ZN2et34_InitialResponse_default_instance_E
et:_ZN2et34_PortForwardData_default_instance_E
et:_ZN2et35_TerminalUserInfo_default_instance_E
et:_ZN2et43_PortForwardSourceRequest_default_instance_E
et:_ZN2et44_PortForwardSourceResponse_default_instance_E
et:_ZN2et48_PortForwardDestinationRequest_default_instance_E
et:_ZN2et49_PortForwardDestinationResponse_default_instance_E
et:_ZN2et8TermInit12InternalSwapEPS0_
et:_ZN2et8TermInit14_InternalParseEPKcPN6google8protobuf8internal12ParseContextE
et:_ZN2et8TermInit21CheckTypeAndMergeFromERKN6google8protobuf11MessageLiteE
et:_ZN2et8TermInit5ClearEv
et:_ZN2et8TermInit8CopyFromERKS0_
et:_ZN2et8TermInit9MergeFromERKS0_
et:_ZN2et8TermInitC1EPN6google8protobuf5ArenaEb
et:_ZN2et8TermInitC1ERKS0_
et:_ZN2et8TermInitC2EPN6google8protobuf5ArenaEb
et:_ZN2et8TermInitC2ERKS0_
et:_ZN2et8TermInitD0Ev
et:_ZN2et8TermInitD1Ev
et:_ZN2et8TermInitD2Ev
et:_ZN4sago11getCacheDirB5cxx11Ev
et:_ZN4sago11getDataHomeB5cxx11Ev
et:_ZN4sago13getConfigHomeB5cxx11Ev
et:_ZN4sago14getMusicFolderB5cxx11Ev
et:_ZN4sago14getVideoFolderB5cxx11Ev
et:_ZN4sago15PlatformFoldersC1Ev
et:_ZN4sago15PlatformFoldersC2Ev
et:_ZN4sago15PlatformFoldersD1Ev
et:_ZN4sago15PlatformFoldersD2Ev
et:_ZN4sago15getPublicFolderB5cxx11Ev
et:_ZN4sago16getDesktopFolderB5cxx11Ev
et:_ZN4sago17getDownloadFolderB5cxx11Ev
et:_ZN4sago17getPicturesFolderB5cxx11Ev
et:_ZN4sago18getDocumentsFolderB5cxx11Ev
et:_ZN4sago18getDownloadFolder1B5cxx11Ev
et:_ZN4sago19getSaveGamesFolder1B5cxx11Ev
et:_ZN4sago19getSaveGamesFolder2B5cxx11Ev
et:_ZN4sago31appendAdditionalDataDirectoriesERSt6vectorINSt7__cxx1112basic_stringIcSt11char_traitsIcESaIcEEESaIS6_EE
et:_ZN4sago33appendAdditionalConfigDirectoriesERSt6vectorINSt7__cxx1112basic_stringIcSt11char_traitsIcESaIcEEESaIS6_EE
et:_ZN6google8protobuf5Arena18CreateMaybeMessageIN2et12ConfigParamsEJEEEPT_PS1_DpOT0_
et:_ZN6google8protobuf5Arena18CreateMaybeMessageIN2et12TerminalInfoEJEEEPT_PS1_DpOT0_
et:_ZN6google8protobuf5Arena18CreateMaybeMessageIN2et13CatchupBufferEJEEEPT_PS1_DpOT0_
et:_ZN6google8protobuf5Arena18CreateMaybeMessageIN2et14ConnectRequestEJEEEPT_PS1_DpOT0_
et:_ZN6google8protobuf5Arena18CreateMaybeMessageIN2et14InitialPayloadEJEEEPT_PS1_DpOT0_
et:_ZN6google8protobuf5Arena18CreateMaybeMessageIN2et14SequenceHeaderEJEEEPT_PS1_DpOT0_
et:_ZN6google8protobuf5Arena18CreateMaybeMessageIN2et14SocketEndpointEJEEEPT_PS1_DpOT0_
et:_ZN6google8protobuf5Arena18CreateMaybeMessageIN2et14TerminalBufferEJEEEPT_PS1_DpOT0_
et:_ZN6google8protobuf5Arena18CreateMaybeMessageIN2et15ConnectResponseEJEEEPT_PS1_DpOT0_
et:_ZN6google8protobuf5Arena18CreateMaybeMessageIN2et15InitialResponseEJEEEPT_PS1_DpOT0_
et:_ZN6google8protobuf5Arena18CreateMaybeMessageIN2et15PortForwardDataEJEEEPT_PS1_DpOT0_
et:_ZN6google8protobuf5Arena18CreateMaybeMessageIN2et16TerminalUserInfoEJEEEPT_PS1_DpOT0_
et:_ZN6google8protobuf5Arena18CreateMaybeMessageIN2et24PortForwardSourceRequestEJEEEPT_PS1_DpOT0_
et:_ZN6google8protobuf5Arena18CreateMaybeMessageIN2et25PortForwardSourceResponseEJEEEPT_PS1_DpOT0_
et:_ZN6google8protobuf5Arena18CreateMaybeMessageIN2et29PortForwardDestinationRequestEJEEEPT_PS1_DpOT0_
et:_ZN6google8protobuf5Arena18CreateMaybeMessageIN2et30PortForwardDestinationResponseEJEEEPT_PS1_DpOT0_
et:_ZN6google8protobuf5Arena18CreateMaybeMessageIN2et8TermInitEJEEEPT_PS1_DpOT0_
et:_ZN6logger5writeEPKcm
et:_ZNK15google_breakpad10ThreadInfo14FillCPUContextEP17MDRawContextAMD64
et:_ZNK15google_breakpad10ThreadInfo21GetInstructionPointerEv
et:_ZNK15google_breakpad11LinuxDumper11FindMappingEPKv
et:_ZNK15google_breakpad11LinuxDumper17FindMappingNoBiasEm
et:_ZNK15google_breakpad11LinuxDumper20GetCrashSignalStringEv
et:_ZNK15google_breakpad11LinuxDumper22GetMappingAbsolutePathERKNS_11MappingInfoEPc
et:_ZNK15google_breakpad11LinuxDumper26HandleDeletedFileInMappingEPc
et:_ZNK15google_breakpad17LinuxPtraceDumper12IsPostMortemEv
et:_ZNK15google_breakpad17LinuxPtraceDumper13BuildProcPathEPciPKc
et:_ZNK2el13Configuration3logERSo
et:_ZNK2el13Configuration9PredicateclEPKS0_
et:_ZNK2el4base17DefaultLogBuilder5buildB5cxx11EPKNS_10LogMessageEb
et:_ZNK2el4base5utils15CommandLineArgs13getParamValueEPKc
et:_ZNK2el4base5utils15CommandLineArgs17hasParamWithValueEPKc
et:_ZNK2el4base5utils15CommandLineArgs4sizeEv
et:_ZNK2el4base5utils15CommandLineArgs5emptyEv
et:_ZNK2el4base5utils15CommandLineArgs8hasParamEPKc
et:_ZNK2el6Logger23resolveLoggerFormatSpecEv
et:_ZNK2et12ConfigParams11GetTypeNameB5cxx11Ev
et:_ZNK2et12ConfigParams12ByteSizeLongEv
et:_ZNK2et12ConfigParams13IsInitializedEv
et:_ZNK2et12ConfigParams13SetCachedSizeEi
et:_ZNK2et12ConfigParams18_InternalSerializeEPhPN6google8protobuf2io19EpsCopyOutputStreamE
et:_ZNK2et12TerminalInfo11GetTypeNameB5cxx11Ev
et:_ZNK2et12TerminalInfo12ByteSizeLongEv
et:_ZNK2et12TerminalInfo13IsInitializedEv
et:_ZNK2et12TerminalInfo13SetCachedSizeEi
et:_ZNK2et12TerminalInfo18_InternalSerializeEPhPN6google8protobuf2io19EpsCopyOutputStreamE
et:_ZNK2et13CatchupBuffer11GetTypeNameB5cxx11Ev
et:_ZNK2et13CatchupBuffer12ByteSizeLongEv
et:_ZNK2et13CatchupBuffer13IsInitializedEv
et:_ZNK2et13CatchupBuffer13SetCachedSizeEi
et:_ZNK2et13CatchupBuffer18_InternalSerializeEPhPN6google8protobuf2io19EpsCopyOutputStreamE
et:_ZNK2et14ConnectRequest11GetTypeNameB5cxx11Ev
et:_ZNK2et14ConnectRequest12ByteSizeLongEv
et:_ZNK2et14ConnectRequest13IsInitializedEv
et:_ZNK2et14ConnectRequest13SetCachedSizeEi
et:_ZNK2et14ConnectRequest18_InternalSerializeEPhPN6google8protobuf2io19EpsCopyOutputStreamE
et:_ZNK2et14InitialPayload11GetTypeNameB5cxx11Ev
et:_ZNK2et14InitialPayload12ByteSizeLongEv
et:_ZNK2et14InitialPayload13IsInitializedEv
et:_ZNK2et14InitialPayload13SetCachedSizeEi
et:_ZNK2et14InitialPayload18_InternalSerializeEPhPN6google8protobuf2io19EpsCopyOutputStreamE
et:_ZNK2et14SequenceHeader11GetTypeNameB5cxx11Ev
et:_ZNK2et14SequenceHeader12ByteSizeLongEv
et:_ZNK2et14SequenceHeader13IsInitializedEv
et:_ZNK2et14SequenceHeader13SetCachedSizeEi
et:_ZNK2et14SequenceHeader18_InternalSerializeEPhPN6google8protobuf2io19EpsCopyOutputStreamE
et:_ZNK2et14SocketEndpoint11GetTypeNameB5cxx11Ev
et:_ZNK2et14SocketEndpoint12ByteSizeLongEv
et:_ZNK2et14SocketEndpoint13IsInitializedEv
et:_ZNK2et14SocketEndpoint13SetCachedSizeEi
et:_ZNK2et14SocketEndpoint18_InternalSerializeEPhPN6google8protobuf2io19EpsCopyOutputStreamE
et:_ZNK2et14TerminalBuffer11GetTypeNameB5cxx11Ev
et:_ZNK2et14TerminalBuffer12ByteSizeLongEv
et:_ZNK2et14TerminalBuffer13IsInitializedEv
et:_ZNK2et14TerminalBuffer13SetCachedSizeEi
et:_ZNK2et14TerminalBuffer18_InternalSerializeEPhPN6google8protobuf2io19EpsCopyOutputStreamE
et:_ZNK2et15ConnectResponse11GetTypeNameB5cxx11Ev
et:_ZNK2et15ConnectResponse12ByteSizeLongEv
et:_ZNK2et15ConnectResponse13IsInitializedEv
et:_ZNK2et15ConnectResponse13SetCachedSizeEi
et:_ZNK2et15ConnectResponse18_InternalSerializeEPhPN6google8protobuf2io19EpsCopyOutputStreamE
et:_ZNK2et15InitialResponse11GetTypeNameB5cxx11Ev
et:_ZNK2et15InitialResponse12ByteSizeLongEv
et:_ZNK2et15InitialResponse13IsInitializedEv
et:_ZNK2et15InitialResponse13SetCachedSizeEi
et:_ZNK2et15InitialResponse18_InternalSerializeEPhPN6google8protobuf2io19EpsCopyOutputStreamE
et:_ZNK2et15PortForwardData11GetTypeNameB5cxx11Ev
et:_ZNK2et15PortForwardData12ByteSizeLongEv
et:_ZNK2et15PortForwardData13IsInitializedEv
et:_ZNK2et15PortForwardData13SetCachedSizeEi
et:_ZNK2et15PortForwardData18_InternalSerializeEPhPN6google8protobuf2io19EpsCopyOutputStreamE
et:_ZNK2et16TerminalUserInfo11GetTypeNameB5cxx11Ev
et:_ZNK2et16TerminalUserInfo12ByteSizeLongEv
et:_ZNK2et16TerminalUserInfo13IsInitializedEv
et:_ZNK2et16TerminalUserInfo13SetCachedSizeEi
et:_ZNK2et16TerminalUserInfo18_InternalSerializeEPhPN6google8protobuf2io19EpsCopyOutputStreamE
et:_ZNK2et24PortForwardSourceRequest11GetTypeNameB5cxx11Ev
et:_ZNK2et24PortForwardSourceRequest12ByteSizeLongEv
et:_ZNK2et24PortForwardSourceRequest13IsInitializedEv
et:_ZNK2et24PortForwardSourceRequest13SetCachedSizeEi
et:_ZNK2et24PortForwardSourceRequest18_InternalSerializeEPhPN6google8protobuf2io19EpsCopyOutputStreamE
et:_ZNK2et25PortForwardSourceResponse11GetTypeNameB5cxx11Ev
et:_ZNK2et25PortForwardSourceResponse12ByteSizeLongEv
et:_ZNK2et25PortForwardSourceResponse13IsInitializedEv
et:_ZNK2et25PortForwardSourceResponse13SetCachedSizeEi
et:_ZNK2et25PortForwardSourceResponse18_InternalSerializeEPhPN6google8protobuf2io19EpsCopyOutputStreamE
et:_ZNK2et29PortForwardDestinationRequest11GetTypeNameB5cxx11Ev
et:_ZNK2et29PortForwardDestinationRequest12ByteSizeLongEv
et:_ZNK2et29PortForwardDestinationRequest13IsInitializedEv
et:_ZNK2et29PortForwardDestinationRequest13SetCachedSizeEi
et:_ZNK2et29PortForwardDestinationRequest18_InternalSerializeEPhPN6google8protobuf2io19EpsCopyOutputStreamE
et:_ZNK2et30PortForwardDestinationResponse11GetTypeNameB5cxx11Ev
et:_ZNK2et30PortForwardDestinationResponse12ByteSizeLongEv
et:_ZNK2et30PortForwardDestinationResponse13IsInitializedEv
et:_ZNK2et30PortForwardDestinationResponse13SetCachedSizeEi
et:_ZNK2et30PortForwardDestinationResponse18_InternalSerializeEPhPN6google8protobuf2io19EpsCopyOutputStreamE
et:_ZNK2et8TermInit11GetTypeNameB5cxx11Ev
et:_ZNK2et8TermInit12ByteSizeLongEv
et:_ZNK2et8TermInit13IsInitializedEv
et:_ZNK2et8TermInit13SetCachedSizeEi
et:_ZNK2et8TermInit18_InternalSerializeEPhPN6google8protobuf2io19EpsCopyOutputStreamE
et:_ZNK4sago15PlatformFolders14getMusicFolderB5cxx11Ev
et:_ZNK4sago15PlatformFolders14getVideoFolderB5cxx11Ev
et:_ZNK4sago15PlatformFolders15getPublicFolderB5cxx11Ev
et:_ZNK4sago15PlatformFolders16getDesktopFolderB5cxx11Ev
et:_ZNK4sago15PlatformFolders17getPicturesFolderB5cxx11Ev
et:_ZNK4sago15PlatformFolders18getDocumentsFolderB5cxx11Ev
et:_ZNK4sago15PlatformFolders18getDownloadFolder1B5cxx11Ev
et:_ZNK4sago15PlatformFolders19getSaveGamesFolder1B5cxx11Ev
et:__bss_start
et:__data_start
et:_edata
et:_end
et:_start
et:main
et:my_isspace
et:my_memchr
et:my_memset
et:my_read_decimal_ptr
et:my_read_hex_ptr
et:my_strchr
et:my_strcmp
et:my_strlcat
et:my_strlcpy
et:my_strlen
et:my_strncmp
et:my_strrchr
et:my_strtoui
et:my_uint_len
et:my_uitos
et:sentry__backend_new
et:sentry_add_breadcrumb
et:sentry_capture_event
et:sentry_clear_crashed_last_run
et:sentry_clear_modulecache
et:sentry_close
et:sentry_end_session
et:sentry_envelope_free
et:sentry_envelope_get_event
et:sentry_envelope_get_transaction
et:sentry_envelope_serialize
et:sentry_envelope_write_to_file
et:sentry_event_add_exception
et:sentry_event_add_thread
et:sentry_event_value_add_stacktrace
et:sentry_flush
et:sentry_free
et:sentry_get_crashed_last_run
et:sentry_get_modules_list
et:sentry_handle_exception
et:sentry_init
et:sentry_malloc
et:sentry_options_add_attachment
et:sentry_options_free
et:sentry_options_get_auto_session_tracking
et:sentry_options_get_ca_certs
et:sentry_options_get_debug
et:sentry_options_get_dist
et:sentry_options_get_dsn
et:sentry_options_get_environment
et:sentry_options_get_http_proxy
et:sentry_options_get_max_breadcrumbs
et:sentry_options_get_max_spans
et:sentry_options_get_release
et:sentry_options_get_require_user_consent
et:sentry_options_get_sample_rate
et:sentry_options_get_shutdown_timeout
et:sentry_options_get_symbolize_stacktraces
et:sentry_options_get_traces_sample_rate
et:sentry_options_get_transport_thread_name
et:sentry_options_new
et:sentry_options_set_auto_session_tracking
et:sentry_options_set_before_send
et:sentry_options_set_ca_certs
et:sentry_options_set_database_path
et:sentry_options_set_debug
et:sentry_options_set_dist
et:sentry_options_set_dsn
et:sentry_options_set_environment
et:sentry_options_set_handler_path
et:sentry_options_set_http_proxy
et:sentry_options_set_logger
et:sentry_options_set_max_breadcrumbs
et:sentry_options_set_max_spans
et:sentry_options_set_release
et:sentry_options_set_require_user_consent
et:sentry_options_set_sample_rate
et:sentry_options_set_shutdown_timeout
et:sentry_options_set_symbolize_stacktraces
et:sentry_options_set_system_crash_reporter_enabled
et:sentry_options_set_traces_sample_rate
et:sentry_options_set_transport
et:sentry_options_set_transport_thread_name
et:sentry_reinstall_backend
et:sentry_remove_context
et:sentry_remove_extra
et:sentry_remove_fingerprint
et:sentry_remove_tag
et:sentry_remove_user
et:sentry_set_context
et:sentry_set_extra
et:sentry_set_fingerprint
et:sentry_set_level
et:sentry_set_span
et:sentry_set_tag
et:sentry_set_transaction
et:sentry_set_transaction_object
et:sentry_set_user
et:sentry_shutdown
et:sentry_span_finish
et:sentry_span_iter_headers
et:sentry_span_remove_data
et:sentry_span_remove_tag
et:sentry_span_set_data
et:sentry_span_set_status
et:sentry_span_set_tag
et:sentry_span_start_child
et:sentry_start_session
et:sentry_transaction_context_new
et:sentry_transaction_context_remove_sampled
et:sentry_transaction_context_set_name
et:sentry_transaction_context_set_operation
et:sentry_transaction_context_set_sampled
et:sentry_transaction_context_update_from_header
et:sentry_transaction_finish
et:sentry_transaction_iter_headers
et:sentry_transaction_remove_data
et:sentry_transaction_remove_tag
et:sentry_transaction_set_data
et:sentry_transaction_set_name
et:sentry_transaction_set_status
et:sentry_transaction_set_tag
et:sentry_transaction_start
et:sentry_transaction_start_child
et:sentry_transport_free
et:sentry_transport_new
et:sentry_transport_set_flush_func
et:sentry_transport_set_free_func
et:sentry_transport_set_shutdown_func
et:sentry_transport_set_startup_func
et:sentry_transport_set_state
et:sentry_unwind_stack
et:sentry_unwind_stack_from_ucontext
et:sentry_user_consent_get
et:sentry_user_consent_give
et:sentry_user_consent_reset
et:sentry_user_consent_revoke
et:sentry_uuid_as_bytes
et:sentry_uuid_as_string
et:sentry_uuid_from_bytes
et:sentry_uuid_from_string
et:sentry_uuid_is_nil
et:sentry_uuid_new_v4
et:sentry_uuid_nil
et:sentry_value_append
et:sentry_value_as_double
et:sentry_value_as_int32
et:sentry_value_as_string
et:sentry_value_decref
et:sentry_value_freeze
et:sentry_value_get_by_index
et:sentry_value_get_by_index_owned
et:sentry_value_get_by_key
et:sentry_value_get_by_key_owned
et:sentry_value_get_length
et:sentry_value_get_type
et:sentry_value_incref
et:sentry_value_is_frozen
et:sentry_value_is_null
et:sentry_value_is_true
et:sentry_value_new_bool
et:sentry_value_new_breadcrumb
et:sentry_value_new_double
et:sentry_value_new_event
et:sentry_value_new_exception
et:sentry_value_new_int32
et:sentry_value_new_list
et:sentry_value_new_message_event
et:sentry_value_new_null
et:sentry_value_new_object
et:sentry_value_new_stacktrace
et:sentry_value_new_string
et:sentry_value_new_thread
et:sentry_value_refcount
et:sentry_value_remove_by_index
et:sentry_value_remove_by_key
et:sentry_value_set_by_index
et:sentry_value_set_by_key
et:sentry_value_to_json
et:sentry_value_to_msgpack
etserver:_IO_stdin_used
etserver:_Z10CreateGUIDP6MDGUID
etserver:_Z12GUIDToStringPK6MDGUIDPci
etserver:_ZN13GUIDGenerator12once_controlE
etserver:_ZN15google_breakpad10IsValidElfEPKv
etserver:_ZN15google_breakpad10ThreadInfo25GetFloatingPointRegistersEPPvPm
etserver:_ZN15google_breakpad10ThreadInfo26GetGeneralPurposeRegistersEPPvPm
etserver:_ZN15google_breakpad11LinuxDumper12GetStackInfoEPPKvPmm
etserver:_ZN15google_breakpad11LinuxDumper17EnumerateMappingsEv
etserver:_ZN15google_breakpad11LinuxDumper17SanitizeStackCopyEPhmmm
etserver:_ZN15google_breakpad11LinuxDumper23SetCrashInfoFromSigInfoERK9siginfo_t
etserver:_ZN15google_breakpad11LinuxDumper24StackHasPointerToMappingEPKhmmRKNS_11MappingInfoE
etserver:_ZN15google_breakpad11LinuxDumper27ElfFileIdentifierForMappingERKNS_11MappingInfoEbjRNS_15wasteful_vectorIhEE
etserver:_ZN15google_breakpad11LinuxDumper30GetMappingEffectiveNameAndPathERKNS_11MappingInfoEPcmS4_m
etserver:_ZN15google_breakpad11LinuxDumper4InitEv
etserver:_ZN15google_breakpad11LinuxDumper8LateInitEv
etserver:_ZN15google_breakpad11LinuxDumper8ReadAuxvEv
etserver:_ZN15google_breakpad11LinuxDumperC1EiPKc
etserver:_ZN15google_breakpad11LinuxDumperC2EiPKc
etserver:_ZN15google_breakpad11LinuxDumperD0Ev
etserver:_ZN15google_breakpad11LinuxDumperD1Ev
etserver:_ZN15google_breakpad11LinuxDumperD2Ev
etserver:_ZN15google_breakpad11UTF16ToUTF8B5cxx11ERKSt6vectorItSaItEEb
etserver:_ZN15google_breakpad11UTF8ToUTF16EPKcPSt6vectorItSaItEE
etserver:_ZN15google_breakpad12SafeReadLinkEPKcPcm
etserver:_ZN15google_breakpad12UTF32ToUTF16EPKwPSt6vectorItSaItEE
etserver:_ZN15google_breakpad12UntypedMDRVA4CopyEjPKvm
etserver:_ZN15google_breakpad12UntypedMDRVA8AllocateEm
etserver:_ZN15google_breakpad13WriteMinidumpEPKcRKNSt7__cxx114listINS_12MappingEntryESaIS4_EEERKNS3_INS_9AppMemoryESaIS9_EEEPNS_11LinuxDumperE
etserver:_ZN15google_breakpad13WriteMinidumpEPKciPKvmRKNSt7__cxx114listINS_12MappingEntryESaIS6_EEERKNS5_INS_9AppMemoryESaISB_EEEbmb
etserver:_ZN15google_breakpad13WriteMinidumpEPKciPKvmbmb
etserver:_ZN15google_breakpad13WriteMinidumpEPKcii
etserver:_ZN15google_breakpad13WriteMinidumpEPKcliPKvmRKNSt7__cxx114listINS_12MappingEntryESaIS6_EEERKNS5_INS_9AppMemoryESaISB_EEEbmb
etserver:_ZN15google_breakpad13WriteMinidumpEiiPKvmRKNSt7__cxx114listINS_12MappingEntryESaIS4_EEERKNS3_INS_9AppMemoryESaIS9_EEEbmb
etserver:_ZN15google_breakpad13WriteMinidumpEiiPKvmbmb
etserver:_ZN15google_breakpad13WriteMinidumpEiliPKvmRKNSt7__cxx114listINS_12MappingEntryESaIS4_EEERKNS3_INS_9AppMemoryESaIS9_EEEbmb
etserver:_ZN15google_breakpad14FindElfSectionEPKvPKcjPS1_Pm
etserver:_ZN15google_breakpad14UContextReader14FillCPUContextEP17MDRawContextAMD64PK10ucontext_tPK13_libc_fpstate
etserver:_ZN15google_breakpad14UContextReader15GetStackPointerEPK10ucontext_t
etserver:_ZN15google_breakpad14UContextReader21GetInstructionPointerEPK10ucontext_t
etserver:_ZN15google_breakpad14WriteMicrodumpEiPKvmRKNSt7__cxx114listINS_12MappingEntryESaIS4_EEEbmbRKNS_18MicrodumpExtraInfoE
etserver:_ZN15google_breakpad15FindElfSegmentsEPKvjPNS_15wasteful_vectorINS_10ElfSegmentEEE
etserver:_ZN15google_breakpad15UTF8ToUTF16CharEPKciPt
etserver:_ZN15google_breakpad16ExceptionHandler11ThreadEntryEPv
etserver:_ZN15google_breakpad16ExceptionHandler12GenerateDumpEPNS0_12CrashContextE
etserver:_ZN15google_breakpad16ExceptionHandler12HandleSignalEiP9siginfo_tPv
etserver:_ZN15google_breakpad16ExceptionHandler13SignalHandlerEiP9siginfo_tPv
etserver:_ZN15google_breakpad16ExceptionHandler13WriteMinidumpERKNSt7__cxx1112basic_stringIcSt11char_traitsIcESaIcEEEPFbRKNS_18MinidumpDescriptorEPvbESC_
etserver:_ZN15google_breakpad16ExceptionHandler13WriteMinidumpEv
etserver:_ZN15google_breakpad16ExceptionHandler14AddMappingInfoERKNSt7__cxx1112basic_stringIcSt11char_traitsIcESaIcEEEPKhmmm
etserver:_ZN15google_breakpad16ExceptionHandler17RegisterAppMemoryEPvm
etserver:_ZN15google_breakpad16ExceptionHandler19UnregisterAppMemoryEPv
etserver:_ZN15google_breakpad16ExceptionHandler21InstallHandlersLockedEv
etserver:_ZN15google_breakpad16ExceptionHandler21RestoreHandlersLockedEv
etserver:_ZN15google_breakpad16ExceptionHandler21WaitForContinueSignalEv
etserver:_ZN15google_breakpad16ExceptionHandler21WriteMinidumpForChildEiiRKNSt7__cxx1112basic_stringIcSt11char_traitsIcESaIcEEEPFbRKNS_18MinidumpDescriptorEPvbESC_
etserver:_ZN15google_breakpad16ExceptionHandler22SimulateSignalDeliveryEi
etserver:_ZN15google_breakpad16ExceptionHandler25SendContinueSignalToChildEv
etserver:_ZN15google_breakpad16ExceptionHandler6DoDumpEiPKvm
etserver:_ZN15google_breakpad16ExceptionHandlerC1ERKNS_18MinidumpDescriptorEPFbPvEPFbS3_S4_bES4_bi
etserver:_ZN15google_breakpad16ExceptionHandlerC2ERKNS_18MinidumpDescriptorEPFbPvEPFbS3_S4_bES4_bi
etserver:_ZN15google_breakpad16ExceptionHandlerD1Ev
etserver:_ZN15google_breakpad16ExceptionHandlerD2Ev
etserver:_ZN15google_breakpad16MemoryMappedFile3MapEPKcm
etserver:_ZN15google_breakpad16MemoryMappedFile5UnmapEv
etserver:_ZN15google_breakpad16MemoryMappedFileC1EPKcm
etserver:_ZN15google_breakpad16MemoryMappedFileC1Ev
etserver:_ZN15google_breakpad16MemoryMappedFileC2EPKcm
etserver:_ZN15google_breakpad16MemoryMappedFileC2Ev
etserver:_ZN15google_breakpad16MemoryMappedFileD1Ev
etserver:_ZN15google_breakpad16MemoryMappedFileD2Ev
etserver:_ZN15google_breakpad16UTF32ToUTF16CharEwPt
etserver:_ZN15google_breakpad17LinuxPtraceDumper13ReadRegistersEPNS_10ThreadInfoEi
etserver:_ZN15google_breakpad17LinuxPtraceDumper13ThreadsResumeEv
etserver:_ZN15google_breakpad17LinuxPtraceDumper14ThreadsSuspendEv
etserver:_ZN15google_breakpad17LinuxPtraceDumper15CopyFromProcessEPviPKvm
etserver:_ZN15google_breakpad17LinuxPtraceDumper15ReadRegisterSetEPNS_10ThreadInfoEi
etserver:_ZN15google_breakpad17LinuxPtraceDumper16EnumerateThreadsEv
etserver:_ZN15google_breakpad17LinuxPtraceDumper20GetThreadInfoByIndexEmPNS_10ThreadInfoE
etserver:_ZN15google_breakpad17LinuxPtraceDumperC1Ei
etserver:_ZN15google_breakpad17LinuxPtraceDumperC2Ei
etserver:_ZN15google_breakpad18ConvertUTF16toUTF8EPPKtS1_PPhS3_NS_15ConversionFlagsE
etserver:_ZN15google_breakpad18ConvertUTF32toUTF8EPPKmS1_PPhS3_NS_15ConversionFlagsE
etserver:_ZN15google_breakpad18ConvertUTF8toUTF16EPPKhS1_PPtS3_NS_15ConversionFlagsE
etserver:_ZN15google_breakpad18ConvertUTF8toUTF32EPPKhS1_PPmS3_NS_15ConversionFlagsE
etserver:_ZN15google_breakpad18MinidumpDescriptor10UpdatePathEv
etserver:_ZN15google_breakpad18MinidumpDescriptor19kMicrodumpOnConsoleE
etserver:_ZN15google_breakpad18MinidumpDescriptorC1ERKS0_
etserver:_ZN15google_breakpad18MinidumpDescriptorC2ERKS0_
etserver:_ZN15google_breakpad18MinidumpDescriptoraSERKS0_
etserver:_ZN15google_breakpad18MinidumpFileWriter11WriteMemoryEPKvmP18MDMemoryDescriptor
etserver:_ZN15google_breakpad18MinidumpFileWriter11WriteStringEPKcjP20MDLocationDescriptor
etserver:_ZN15google_breakpad18MinidumpFileWriter11WriteStringEPKwjP20MDLocationDescriptor
etserver:_ZN15google_breakpad18MinidumpFileWriter13kInvalidMDRVAE
etserver:_ZN15google_breakpad18MinidumpFileWriter20CopyStringToMDStringEPKcjPNS_10TypedMDRVAI8MDStringEE
etserver:_ZN15google_breakpad18MinidumpFileWriter20CopyStringToMDStringEPKwjPNS_10TypedMDRVAI8MDStringEE
etserver:_ZN15google_breakpad18MinidumpFileWriter4CopyEjPKvl
etserver:_ZN15google_breakpad18MinidumpFileWriter4OpenEPKc
etserver:_ZN15google_breakpad18MinidumpFileWriter5CloseEv
etserver:_ZN15google_breakpad18MinidumpFileWriter7SetFileEi
etserver:_ZN15google_breakpad18MinidumpFileWriter8AllocateEm
etserver:_ZN15google_breakpad18MinidumpFileWriterC1Ev
etserver:_ZN15google_breakpad18MinidumpFileWriterC2Ev
etserver:_ZN15google_breakpad18MinidumpFileWriterD1Ev
etserver:_ZN15google_breakpad18MinidumpFileWriterD2Ev
etserver:_ZN15google_breakpad19ConvertUTF16toUTF32EPPKtS1_PPmS3_NS_15ConversionFlagsE
etserver:_ZN15google_breakpad19ConvertUTF32toUTF16EPPKmS1_PPtS3_NS_15ConversionFlagsE
etserver:_ZN15google_breakpad19isLegalUTF8SequenceEPKhS1_
etserver:_ZN15google_breakpad21CrashGenerationClient9TryCreateEi
etserver:_ZN15google_breakpad27ElfFileSoNameFromMappedFileEPKvPcm
etserver:_ZN15google_breakpad30SetFirstChanceExceptionHandlerEPFbiP9siginfo_tPvE
etserver:_ZN15google_breakpad3elf6FileID17ElfFileIdentifierERNS_15wasteful_vectorIhEE
etserver:_ZN15google_breakpad3elf6FileID25ConvertIdentifierToStringB5cxx11ERKNS_15wasteful_vectorIhEE
etserver:_ZN15google_breakpad3elf6FileID29ConvertIdentifierToUUIDStringB5cxx11ERKNS_15wasteful_vectorIhEE
etserver:_ZN15google_breakpad3elf6FileID31ElfFileIdentifierFromMappedFileEPKvRNS_15wasteful_vectorIhEE
etserver:_ZN15google_breakpad3elf6FileIDC1EPKc
etserver:_ZN15google_breakpad3elf6FileIDC2EPKc
etserver:_ZN15google_breakpad8ElfClassEPKv
etserver:_ZN2el10LogBuilder22convertToColoredOutputEPNSt7__cxx1112basic_stringIcSt11char_traitsIcESaIcEEENS_5LevelE
etserver:_ZN2el11LevelHelper12forEachLevelEPjRKSt8functionIFbvEE
etserver:_ZN2el11LevelHelper15convertToStringENS_5LevelE
etserver:_ZN2el11LevelHelper17convertFromStringEPKc
etserver:_ZN2el11VersionInfo11releaseDateB5cxx11Ev
etserver:_ZN2el11VersionInfo7versionB5cxx11Ev
etserver:_ZN2el13Configuration9PredicateC1ENS_5LevelENS_17ConfigurationTypeE
etserver:_ZN2el13Configuration9PredicateC2ENS_5LevelENS_17ConfigurationTypeE
etserver:_ZN2el13ConfigurationC1ENS_5LevelENS_17ConfigurationTypeERKNSt7__cxx1112basic_stringIcSt11char_traitsIcESaIcEEE
etserver:_ZN2el13ConfigurationC1ERKS0_
etserver:_ZN2el13ConfigurationC2ENS_5LevelENS_17ConfigurationTypeERKNSt7__cxx1112basic_stringIcSt11char_traitsIcESaIcEEE
etserver:_ZN2el13ConfigurationC2ERKS0_
etserver:_ZN2el13ConfigurationaSERKS0_
etserver:_ZN2el14Configurations11setFromBaseEPS0_
etserver:_ZN2el14Configurations11setGloballyENS_17ConfigurationTypeERKNSt7__cxx1112basic_stringIcSt11char_traitsIcESaIcEEEb
etserver:_ZN2el14Configurations12setToDefaultEv
etserver:_ZN2el14Configurations13parseFromFileERKNSt7__cxx1112basic_stringIcSt11char_traitsIcESaIcEEEPS0_
etserver:_ZN2el14Configurations13parseFromTextERKNSt7__cxx1112basic_stringIcSt11char_traitsIcESaIcEEEPS0_
etserver:_ZN2el14Configurations16hasConfigurationENS_17ConfigurationTypeE
etserver:_ZN2el14Configurations16hasConfigurationENS_5LevelENS_17ConfigurationTypeE
etserver:_ZN2el14Configurations17unsafeSetGloballyENS_17ConfigurationTypeERKNSt7__cxx1112basic_stringIcSt11char_traitsIcESaIcEEEb
etserver:_ZN2el14Configurations19unsafeSetIfNotExistENS_5LevelENS_17ConfigurationTypeERKNSt7__cxx1112basic_stringIcSt11char_traitsIcESaIcEEE
etserver:_ZN2el14Configurations21setRemainingToDefaultEv
etserver:_ZN2el14Configurations3setENS_5LevelENS_17ConfigurationTypeERKNSt7__cxx1112basic_stringIcSt11char_traitsIcESaIcEEE
etserver:_ZN2el14Configurations3setEPNS_13ConfigurationE
etserver:_ZN2el14Configurations6Parser13parseFromFileERKNSt7__cxx1112basic_stringIcSt11char_traitsIcESaIcEEEPS0_SA_
etserver:_ZN2el14Configurations6Parser13parseFromTextERKNSt7__cxx1112basic_stringIcSt11char_traitsIcESaIcEEEPS0_SA_
etserver:_ZN2el14Configurations6Parser14ignoreCommentsEPNSt7__cxx1112basic_stringIcSt11char_traitsIcESaIcEEE
etserver:_ZN2el14Configurations6Parser7isLevelERKNSt7__cxx1112basic_stringIcSt11char_traitsIcESaIcEEE
etserver:_ZN2el14Configurations6Parser9isCommentERKNSt7__cxx1112basic_stringIcSt11char_traitsIcESaIcEEE
etserver:_ZN2el14Configurations6Parser9parseLineEPNSt7__cxx1112basic_stringIcSt11char_traitsIcESaIcEEES8_S8_PNS_5LevelEPS0_
etserver:_ZN2el14Configurations9unsafeSetENS_5LevelENS_17ConfigurationTypeERKNSt7__cxx1112basic_stringIcSt11char_traitsIcESaIcEEE
etserver:_ZN2el14ConfigurationsC1ERKNSt7__cxx1112basic_stringIcSt11char_traitsIcESaIcEEEbPS0_
etserver:_ZN2el14ConfigurationsC1Ev
etserver:_ZN2el14ConfigurationsC2ERKNSt7__cxx1112basic_stringIcSt11char_traitsIcESaIcEEEbPS0_
etserver:_ZN2el14ConfigurationsC2Ev
etserver:_ZN2el14elCrashHandlerE
etserver:_ZN2el19LogDispatchCallback10fileHandleEPKNS_15LogDispatchDataE
etserver:_ZN2el19LogDispatchCallback6handleEPKNS_15LogDispatchDataE
etserver:_ZN2el23ConfigurationTypeHelper15convertToStringENS_17ConfigurationTypeE
etserver:_ZN2el23ConfigurationTypeHelper17convertFromStringEPKc
etserver:_ZN2el4base12PErrorWriterD0Ev
etserver:_ZN2el4base12PErrorWriterD1Ev
etserver:_ZN2el4base12PErrorWriterD2Ev
etserver:_ZN2el4base13LogDispatcher8dispatchEv
etserver:_ZN2el4base14MessageBuilder10initializeEPNS_6LoggerE
etserver:_ZN2el4base14MessageBuilderlsEPKw
etserver:_ZN2el4base17RegisteredLoggers14unsafeFlushAllEv
etserver:_ZN2el4base17RegisteredLoggers3getERKNSt7__cxx1112basic_stringIcSt11char_traitsIcESaIcEEEb
etserver:_ZN2el4base17RegisteredLoggers6removeERKNSt7__cxx1112basic_stringIcSt11char_traitsIcESaIcEEE
etserver:_ZN2el4base17RegisteredLoggersC1ERKSt10shared_ptrINS_10LogBuilderEE
etserver:_ZN2el4base17RegisteredLoggersC2ERKSt10shared_ptrINS_10LogBuilderEE
etserver:_ZN2el4base18SubsecondPrecision4initEi
etserver:_ZN2el4base19TypedConfigurations10fileStreamENS_5LevelE
etserver:_ZN2el4base19TypedConfigurations10insertFileENS_5LevelERKNSt7__cxx1112basic_stringIcSt11char_traitsIcESaIcEEE
etserver:_ZN2el4base19TypedConfigurations14maxLogFileSizeENS_5LevelE
etserver:_ZN2el4base19TypedConfigurations15resolveFilenameERKNSt7__cxx1112basic_stringIcSt11char_traitsIcESaIcEEE
etserver:_ZN2el4base19TypedConfigurations16toStandardOutputENS_5LevelE
etserver:_ZN2el4base19TypedConfigurations17logFlushThresholdENS_5LevelE
etserver:_ZN2el4base19TypedConfigurations17millisecondsWidthENS_5LevelE
etserver:_ZN2el4base19TypedConfigurations18subsecondPrecisionENS_5LevelE
etserver:_ZN2el4base19TypedConfigurations19performanceTrackingENS_5LevelE
etserver:_ZN2el4base19TypedConfigurations25unsafeValidateFileRollingENS_5LevelERKSt8functionIFvPKcmEE
etserver:_ZN2el4base19TypedConfigurations5buildEPNS_14ConfigurationsE
etserver:_ZN2el4base19TypedConfigurations6toFileENS_5LevelE
etserver:_ZN2el4base19TypedConfigurations7enabledENS_5LevelE
etserver:_ZN2el4base19TypedConfigurations8filenameB5cxx11ENS_5LevelE
etserver:_ZN2el4base19TypedConfigurations8getULongENSt7__cxx1112basic_stringIcSt11char_traitsIcESaIcEEE
etserver:_ZN2el4base19TypedConfigurations9logFormatENS_5LevelE
etserver:_ZN2el4base19TypedConfigurationsC1EPNS_14ConfigurationsESt10shared_ptrISt13unordered_mapINSt7__cxx1112basic_stringIcSt11char_traitsIcESaIcEEES4_ISt13basic_fstreamIcS9_EESt4hashISB_ESt8equal_toISB_ESaISt4pairIKSB_SE_EEEE
etserver:_ZN2el4base19TypedConfigurationsC1ERKS1_
etserver:_ZN2el4base19TypedConfigurationsC2EPNS_14ConfigurationsESt10shared_ptrISt13unordered_mapINSt7__cxx1112basic_stringIcSt11char_traitsIcESaIcEEES4_ISt13basic_fstreamIcS9_EESt4hashISB_ESt8equal_toISB_ESaISt4pairIKSB_SE_EEEE
etserver:_ZN2el4base19TypedConfigurationsC2ERKS1_
etserver:_ZN2el4base21RegisteredHitCounters14validateAfterNEPKcmm
etserver:_ZN2el4base21RegisteredHitCounters14validateEveryNEPKcmm
etserver:_ZN2el4base21RegisteredHitCounters14validateNTimesEPKcmm
etserver:_ZN2el4base26DefaultLogDispatchCallback6handleEPKNS_15LogDispatchDataE
etserver:_ZN2el4base26DefaultLogDispatchCallback8dispatchEONSt7__cxx1112basic_stringIcSt11char_traitsIcESaIcEEE
etserver:_ZN2el4base5debug10StackTrace11generateNewEv
etserver:_ZN2el4base5debug10StackTrace15StackTraceEntryC1EmRKNSt7__cxx1112basic_stringIcSt11char_traitsIcESaIcEEESB_SB_SB_
etserver:_ZN2el4base5debug10StackTrace15StackTraceEntryC2EmRKNSt7__cxx1112basic_stringIcSt11char_traitsIcESaIcEEESB_SB_SB_
etserver:_ZN2el4base5debug12CrashHandler10setHandlerERKPFviE
etserver:_ZN2el4base5debug12CrashHandlerC1Eb
etserver:_ZN2el4base5debug12CrashHandlerC2Eb
etserver:_ZN2el4base5debuglsERSoRKNS1_10StackTrace15StackTraceEntryE
etserver:_ZN2el4base5debuglsERSoRKNS1_10StackTraceE
etserver:_ZN2el4base5utils15CommandLineArgs7setArgsEiPPc
etserver:_ZN2el4base5utils2OS11currentHostB5cxx11Ev
etserver:_ZN2el4base5utils2OS11currentUserB5cxx11Ev
etserver:_ZN2el4base5utils2OS13getBashOutputB5cxx11EPKc
etserver:_ZN2el4base5utils2OS17termSupportsColorEv
etserver:_ZN2el4base5utils2OS22getEnvironmentVariableB5cxx11EPKcS4_S4_
etserver:_ZN2el4base5utils3Str10replaceAllERNSt7__cxx1112basic_stringIcSt11char_traitsIcESaIcEEERKS8_SB_
etserver:_ZN2el4base5utils3Str10replaceAllERNSt7__cxx1112basic_stringIcSt11char_traitsIcESaIcEEEcc
etserver:_ZN2el4base5utils3Str10startsWithERKNSt7__cxx1112basic_stringIcSt11char_traitsIcESaIcEEESA_
etserver:_ZN2el4base5utils3Str13cStringCaseEqEPKcS4_
etserver:_ZN2el4base5utils3Str13wildCardMatchEPKcS4_
etserver:_ZN2el4base5utils3Str17wcharPtrToCharPtrEPKw
etserver:_ZN2el4base5utils3Str19convertAndAddToBuffEmiPcPKcb
etserver:_ZN2el4base5utils3Str22replaceFirstWithEscapeERNSt7__cxx1112basic_stringIcSt11char_traitsIcESaIcEEERKS8_SB_
etserver:_ZN2el4base5utils3Str4trimERNSt7__cxx1112basic_stringIcSt11char_traitsIcESaIcEEE
etserver:_ZN2el4base5utils3Str5ltrimERNSt7__cxx1112basic_stringIcSt11char_traitsIcESaIcEEE
etserver:_ZN2el4base5utils3Str5rtrimERNSt7__cxx1112basic_stringIcSt11char_traitsIcESaIcEEE
etserver:_ZN2el4base5utils3Str7toUpperERNSt7__cxx1112basic_stringIcSt11char_traitsIcESaIcEEE
etserver:_ZN2el4base5utils3Str8containsEPKcc
etserver:_ZN2el4base5utils3Str8endsWithERKNSt7__cxx1112basic_stringIcSt11char_traitsIcESaIcEEESA_
etserver:_ZN2el4base5utils3Str9addToBuffEPKcPcS4_
etserver:_ZN2el4base5utils3Str9cStringEqEPKcS4_
etserver:_ZN2el4base5utils3Str9clearBuffEPcm
etserver:_ZN2el4base5utils4File10createPathERKNSt7__cxx1112basic_stringIcSt11char_traitsIcESaIcEEE
etserver:_ZN2el4base5utils4File10pathExistsEPKcb
etserver:_ZN2el4base5utils4File13getSizeOfFileEPSt13basic_fstreamIcSt11char_traitsIcEE
etserver:_ZN2el4base5utils4File13newFileStreamERKNSt7__cxx1112basic_stringIcSt11char_traitsIcESaIcEEE
etserver:_ZN2el4base5utils4File17buildBaseFilenameERKNSt7__cxx1112basic_stringIcSt11char_traitsIcESaIcEEEPcmPKc
etserver:_ZN2el4base5utils4File21buildStrippedFilenameEPKcPcm
etserver:_ZN2el4base5utils4File23extractPathFromFilenameERKNSt7__cxx1112basic_stringIcSt11char_traitsIcESaIcEEEPKc
etserver:_ZN2el4base5utils8DateTime10formatTimeB5cxx11EyNS0_13TimestampUnitE
etserver:_ZN2el4base5utils8DateTime11getDateTimeB5cxx11EPKcPKNS0_18SubsecondPrecisionE
etserver:_ZN2el4base5utils8DateTime11parseFormatEPcmPKcPK2tmmPKNS0_18SubsecondPrecisionE
etserver:_ZN2el4base5utils8DateTime12gettimeofdayEP7timeval
etserver:_ZN2el4base5utils8DateTime13buildTimeInfoEP7timevalP2tm
etserver:_ZN2el4base5utils8DateTime15timevalToStringB5cxx11E7timevalPKcPKNS0_18SubsecondPrecisionE
etserver:_ZN2el4base5utils8DateTime17getTimeDifferenceERK7timevalS5_NS0_13TimestampUnitE
etserver:_ZN2el4base5utilslsERSoRKNS1_15CommandLineArgsE
etserver:_ZN2el4base6Writer15processDispatchEv
etserver:_ZN2el4base6Writer15triggerDispatchEv
etserver:_ZN2el4base6Writer16initializeLoggerERKNSt7__cxx1112basic_stringIcSt11char_traitsIcESaIcEEEbb
etserver:_ZN2el4base6Writer9constructEPNS_6LoggerEb
etserver:_ZN2el4base6Writer9constructEiPKcz
etserver:_ZN2el4base7Storage23setApplicationArgumentsEiPPc
etserver:_ZN2el4base7Storage24hasCustomFormatSpecifierEPKc
etserver:_ZN2el4base7Storage28installCustomFormatSpecifierERKNS_21CustomFormatSpecifierE
etserver:_ZN2el4base7Storage30uninstallCustomFormatSpecifierEPKc
etserver:_ZN2el4base7StorageC1ERKSt10shared_ptrINS_10LogBuilderEE
etserver:_ZN2el4base7StorageC2ERKSt10shared_ptrINS_10LogBuilderEE
etserver:_ZN2el4base7StorageD0Ev
etserver:_ZN2el4base7StorageD1Ev
etserver:_ZN2el4base7StorageD2Ev
etserver:_ZN2el4base9LogFormat15parseFromFormatERKNSt7__cxx1112basic_stringIcSt11char_traitsIcESaIcEEE
etserver:_ZN2el4base9LogFormat16updateDateFormatEmRNSt7__cxx1112basic_stringIcSt11char_traitsIcESaIcEEE
etserver:_ZN2el4base9LogFormat16updateFormatSpecEv
etserver:_ZN2el4base9LogFormatC1ENS_5LevelERKNSt7__cxx1112basic_stringIcSt11char_traitsIcESaIcEEE
etserver:_ZN2el4base9LogFormatC1EOS1_
etserver:_ZN2el4base9LogFormatC1ERKS1_
etserver:_ZN2el4base9LogFormatC1Ev
etserver:_ZN2el4base9LogFormatC2ENS_5LevelERKNSt7__cxx1112basic_stringIcSt11char_traitsIcESaIcEEE
etserver:_ZN2el4base9LogFormatC2EOS1_
etserver:_ZN2el4base9LogFormatC2ERKS1_
etserver:_ZN2el4base9LogFormatC2Ev
etserver:_ZN2el4base9LogFormataSERKS1_
etserver:_ZN2el4base9LogFormateqERKS1_
etserver:_ZN2el4base9VRegistry10setModulesEPKc
etserver:_ZN2el4base9VRegistry11setFromArgsEPKNS0_5utils15CommandLineArgsE
etserver:_ZN2el4base9VRegistry7allowedEtPKc
etserver:_ZN2el4base9VRegistry8setLevelEt
etserver:_ZN2el4base9VRegistryC1EtPj
etserver:_ZN2el4base9VRegistryC2EtPj
etserver:_ZN2el4base9elStorageE
etserver:_ZN2el6Logger11reconfigureEv
etserver:_ZN2el6Logger18initUnflushedCountEv
etserver:_ZN2el6Logger5flushENS_5LevelEPSt13basic_fstreamIcSt11char_traitsIcEE
etserver:_ZN2el6Logger5flushEv
etserver:_ZN2el6Logger9configureERKNS_14ConfigurationsE
etserver:_ZN2el6Logger9isValidIdERKNSt7__cxx1112basic_stringIcSt11char_traitsIcESaIcEEE
etserver:_ZN2el6LoggerC1ERKNSt7__cxx1112basic_stringIcSt11char_traitsIcESaIcEEERKNS_14ConfigurationsESt10shared_ptrISt13unordered_mapIS6_SC_ISt13basic_fstreamIcS4_EESt4hashIS6_ESt8equal_toIS6_ESaISt4pairIS7_SG_EEEE
etserver:_ZN2el6LoggerC1ERKNSt7__cxx1112basic_stringIcSt11char_traitsIcESaIcEEESt10shared_ptrISt13unordered_mapIS6_S9_ISt13basic_fstreamIcS4_EESt4hashIS6_ESt8equal_toIS6_ESaISt4pairIS7_SD_EEEE
etserver:_ZN2el6LoggerC1ERKS0_
etserver:_ZN2el6LoggerC2ERKNSt7__cxx1112basic_stringIcSt11char_traitsIcESaIcEEERKNS_14ConfigurationsESt10shared_ptrISt13unordered_mapIS6_SC_ISt13basic_fstreamIcS4_EESt4hashIS6_ESt8equal_toIS6_ESaISt4pairIS7_SG_EEEE
etserver:_ZN2el6LoggerC2ERKNSt7__cxx1112basic_stringIcSt11char_traitsIcESaIcEEESt10shared_ptrISt13unordered_mapIS6_S9_ISt13basic_fstreamIcS4_EESt4hashIS6_ESt8equal_toIS6_ESaISt4pairIS7_SD_EEEE
etserver:_ZN2el6LoggerC2ERKS0_
etserver:_ZN2el6LoggeraSERKS0_
etserver:_ZN2el7Helpers10crashAbortEiPKcm
etserver:_ZN2el7Helpers14logCrashReasonEibNS_5LevelEPKc
etserver:_ZN2el7Loggers11setVModulesEPKc
etserver:_ZN2el7Loggers12verboseLevelEv
etserver:_ZN2el7Loggers13clearVModulesEv
etserver:_ZN2el7Loggers15setVerboseLevelEt
etserver:_ZN2el7Loggers16configureFromArgEPKc
etserver:_ZN2el7Loggers16unregisterLoggerERKNSt7__cxx1112basic_stringIcSt11char_traitsIcESaIcEEE
etserver:_ZN2el7Loggers17reconfigureLoggerEPNS_6LoggerERKNS_14ConfigurationsE
etserver:_ZN2el7Loggers17reconfigureLoggerERKNSt7__cxx1112basic_stringIcSt11char_traitsIcESaIcEEENS_17ConfigurationTypeES8_
etserver:_ZN2el7Loggers17reconfigureLoggerERKNSt7__cxx1112basic_stringIcSt11char_traitsIcESaIcEEERKNS_14ConfigurationsE
etserver:_ZN2el7Loggers19configureFromGlobalEPKc
etserver:_ZN2el7Loggers19logStreamsReferenceB5cxx11Ev
etserver:_ZN2el7Loggers20populateAllLoggerIdsEPSt6vectorINSt7__cxx1112basic_stringIcSt11char_traitsIcESaIcEEESaIS7_EE
etserver:_ZN2el7Loggers20setDefaultLogBuilderERSt10shared_ptrINS_10LogBuilderEE
etserver:_ZN2el7Loggers21defaultConfigurationsEv
etserver:_ZN2el7Loggers21reconfigureAllLoggersENS_5LevelENS_17ConfigurationTypeERKNSt7__cxx1112basic_stringIcSt11char_traitsIcESaIcEEE
etserver:_ZN2el7Loggers21reconfigureAllLoggersERKNS_14ConfigurationsE
etserver:_ZN2el7Loggers24setDefaultConfigurationsERKNS_14ConfigurationsEb
etserver:_ZN2el7Loggers26defaultTypedConfigurationsEv
etserver:_ZN2el7Loggers8flushAllEv
etserver:_ZN2el7Loggers9getLoggerERKNSt7__cxx1112basic_stringIcSt11char_traitsIcESaIcEEEb
etserver:_ZN2el7Loggers9hasLoggerERKNSt7__cxx1112basic_stringIcSt11char_traitsIcESaIcEEE
etserver:_ZN2et10Connection10readPacketEPNS_6PacketE
etserver:_ZN2et10Connection11closeSocketEv
etserver:_ZN2et10Connection11writePacketERKNS_6PacketE
etserver:_ZN2et10Connection4readEPNS_6PacketE
etserver:_ZN2et10Connection5writeERKNS_6PacketE
etserver:_ZN2et10Connection7recoverEi
etserver:_ZN2et10Connection8shutdownEv
etserver:_ZN2et10ConnectionC1ESt10shared_ptrINS_13SocketHandlerEERKNSt7__cxx1112basic_stringIcSt11char_traitsIcESaIcEEESB_
etserver:_ZN2et10ConnectionC2ESt10shared_ptrINS_13SocketHandlerEERKNSt7__cxx1112basic_stringIcSt11char_traitsIcESaIcEEESB_
etserver:_ZN2et10ConnectionD0Ev
etserver:_ZN2et10ConnectionD1Ev
etserver:_ZN2et10ConnectionD2Ev
etserver:_ZN2et10LogHandler12setupLogFileEPN2el14ConfigurationsENSt7__cxx1112basic_stringIcSt11char_traitsIcESaIcEEES9_
etserver:_ZN2et10LogHandler12stderrToFileERKNSt7__cxx1112basic_stringIcSt11char_traitsIcESaIcEEE
etserver:_ZN2et10LogHandler14rolloutHandlerEPKcm
etserver:_ZN2et10LogHandler15setupLogHandlerEPiPPPc
etserver:_ZN2et10LogHandler17setupStdoutLoggerEv
etserver:_ZN2et12BackedReader23constructPartialMessageEPNS_6PacketE
etserver:_ZN2et12BackedReader23getPartialMessageLengthEv
etserver:_ZN2et12BackedReader4readEPNS_6PacketE
etserver:_ZN2et12BackedReader6reviveEiRKSt6vectorINSt7__cxx1112basic_stringIcSt11char_traitsIcESaIcEEESaIS7_EE
etserver:_ZN2et12BackedReader7hasDataEv
etserver:_ZN2et12BackedReaderC1ESt10shared_ptrINS_13SocketHandlerEES1_INS_13CryptoHandlerEEi
etserver:_ZN2et12BackedReaderC2ESt10shared_ptrINS_13SocketHandlerEES1_INS_13CryptoHandlerEEi
etserver:_ZN2et12BackedWriter5writeENS_6PacketE
etserver:_ZN2et12BackedWriter6reviveEi
etserver:_ZN2et12BackedWriter7recoverB5cxx11El
etserver:_ZN2et12BackedWriterC1ESt10shared_ptrINS_13SocketHandlerEES1_INS_13CryptoHandlerEEi
etserver:_ZN2et12BackedWriterC2ESt10shared_ptrINS_13SocketHandlerEES1_INS_13CryptoHandlerEEi
etserver:_ZN2et12ConfigParams12InternalSwapEPS0_
etserver:_ZN2et12ConfigParams14_InternalParseEPKcPN6google8protobuf8internal12ParseContextE
etserver:_ZN2et12ConfigParams21CheckTypeAndMergeFromERKN6google8protobuf11MessageLiteE
etserver:_ZN2et12ConfigParams5ClearEv
etserver:_ZN2et12ConfigParams8CopyFromERKS0_
etserver:_ZN2et12ConfigParams9MergeFromERKS0_
etserver:_ZN2et12ConfigParamsC1EPN6google8protobuf5ArenaEb
etserver:_ZN2et12ConfigParamsC1ERKS0_
etserver:_ZN2et12ConfigParamsC2EPN6google8protobuf5ArenaEb
etserver:_ZN2et12ConfigParamsC2ERKS0_
etserver:_ZN2et12ConfigParamsD0Ev
etserver:_ZN2et12ConfigParamsD1Ev
etserver:_ZN2et12ConfigParamsD2Ev
etserver:_ZN2et12TerminalInfo12InternalSwapEPS0_
etserver:_ZN2et12TerminalInfo14_InternalParseEPKcPN6google8protobuf8internal12ParseContextE
etserver:_ZN2et12TerminalInfo21CheckTypeAndMergeFromERKN6google8protobuf11MessageLiteE
etserver:_ZN2et12TerminalInfo5ClearEv
etserver:_ZN2et12TerminalInfo8CopyFromERKS0_
etserver:_ZN2et12TerminalInfo9MergeFromERKS0_
etserver:_ZN2et12TerminalInfoC1EPN6google8protobuf5ArenaEb
etserver:_ZN2et12TerminalInfoC1ERKS0_
etserver:_ZN2et12TerminalInfoC2EPN6google8protobuf5ArenaEb
etserver:_ZN2et12TerminalInfoC2ERKS0_
etserver:_ZN2et12TerminalInfoD0Ev
etserver:_ZN2et12TerminalInfoD1Ev
etserver:_ZN2et12TerminalInfoD2Ev
etserver:_ZN2et13CatchupBuffer12InternalSwapEPS0_
etserver:_ZN2et13CatchupBuffer14_InternalParseEPKcPN6google8protobuf8internal12ParseContextE
etserver:_ZN2et13CatchupBuffer21CheckTypeAndMergeFromERKN6google8protobuf11MessageLiteE
etserver:_ZN2et13CatchupBuffer5ClearEv
etserver:_ZN2et13CatchupBuffer8CopyFromERKS0_
etserver:_ZN2et13CatchupBuffer9MergeFromERKS0_
etserver:_ZN2et13CatchupBufferC1EPN6google8protobuf5ArenaEb
etserver:_ZN2et13CatchupBufferC1ERKS0_
etserver:_ZN2et13CatchupBufferC2EPN6google8protobuf5ArenaEb
etserver:_ZN2et13CatchupBufferC2ERKS0_
etserver:_ZN2et13CatchupBufferD0Ev
etserver:_ZN2et13CatchupBufferD1Ev
etserver:_ZN2et13CatchupBufferD2Ev
etserver:_ZN2et13CryptoHandler14incrementNonceEv
etserver:_ZN2et13CryptoHandler7decryptERKNSt7__cxx1112basic_stringIcSt11char_traitsIcESaIcEEE
etserver:_ZN2et13CryptoHandler7encryptERKNSt7__cxx1112basic_stringIcSt11char_traitsIcESaIcEEE
etserver:_ZN2et13CryptoHandlerC1ERKNSt7__cxx1112basic_stringIcSt11char_traitsIcESaIcEEEh
etserver:_ZN2et13CryptoHandlerC2ERKNSt7__cxx1112basic_stringIcSt11char_traitsIcESaIcEEEh
etserver:_ZN2et13CryptoHandlerD1Ev
etserver:_ZN2et13CryptoHandlerD2Ev
etserver:_ZN2et13DaemonCreator19createSessionLeaderEv
etserver:_ZN2et13DaemonCreator6createEbNSt7__cxx1112basic_stringIcSt11char_traitsIcESaIcEEE
etserver:_ZN2et13SocketHandler15writeAllOrThrowEiPKvmb
etserver:_ZN2et13SocketHandler16writeAllOrReturnEiPKvm
etserver:_ZN2et13SocketHandler20readB64EncodedLengthEiPNSt7__cxx1112basic_stringIcSt11char_traitsIcESaIcEEEm
etserver:_ZN2et13SocketHandler7readAllEiPvmb
etserver:_ZN2et13SocketHandler7readB64EiPcm
etserver:_ZN2et13SocketHandler8writeB64EiPKcm
etserver:_ZN2et14ConnectRequest12InternalSwapEPS0_
etserver:_ZN2et14ConnectRequest14_InternalParseEPKcPN6google8protobuf8internal12ParseContextE
etserver:_ZN2et14ConnectRequest21CheckTypeAndMergeFromERKN6google8protobuf11MessageLiteE
etserver:_ZN2et14ConnectRequest5ClearEv
etserver:_ZN2et14ConnectRequest8CopyFromERKS0_
etserver:_ZN2et14ConnectRequest9MergeFromERKS0_
etserver:_ZN2et14ConnectRequestC1EPN6google8protobuf5ArenaEb
etserver:_ZN2et14ConnectRequestC1ERKS0_
etserver:_ZN2et14ConnectRequestC2EPN6google8protobuf5ArenaEb
etserver:_ZN2et14ConnectRequestC2ERKS0_
etserver:_ZN2et14ConnectRequestD0Ev
etserver:_ZN2et14ConnectRequestD1Ev
etserver:_ZN2et14ConnectRequestD2Ev
etserver:_ZN2et14InitialPayload12InternalSwapEPS0_
etserver:_ZN2et14InitialPayload14_InternalParseEPKcPN6google8protobuf8internal12ParseContextE
etserver:_ZN2et14InitialPayload21CheckTypeAndMergeFromERKN6google8protobuf11MessageLiteE
etserver:_ZN2et14InitialPayload5ClearEv
etserver:_ZN2et14InitialPayload8CopyFromERKS0_
etserver:_ZN2et14InitialPayload9MergeFromERKS0_
etserver:_ZN2et14InitialPayloadC1EPN6google8protobuf5ArenaEb
etserver:_ZN2et14InitialPayloadC1ERKS0_
etserver:_ZN2et14InitialPayloadC2EPN6google8protobuf5ArenaEb
etserver:_ZN2et14InitialPayloadC2ERKS0_
etserver:_ZN2et14InitialPayloadD0Ev
etserver:_ZN2et14InitialPayloadD1Ev
etserver:_ZN2et14InitialPayloadD2Ev
etserver:_ZN2et14SequenceHeader12InternalSwapEPS0_
etserver:_ZN2et14SequenceHeader14_InternalParseEPKcPN6google8protobuf8internal12ParseContextE
etserver:_ZN2et14SequenceHeader21CheckTypeAndMergeFromERKN6google8protobuf11MessageLiteE
etserver:_ZN2et14SequenceHeader5ClearEv
etserver:_ZN2et14SequenceHeader8CopyFromERKS0_
etserver:_ZN2et14SequenceHeader9MergeFromERKS0_
etserver:_ZN2et14SequenceHeaderC1EPN6google8protobuf5ArenaEb
etserver:_ZN2et14SequenceHeaderC1ERKS0_
etserver:_ZN2et14SequenceHeaderC2EPN6google8protobuf5ArenaEb
etserver:_ZN2et14SequenceHeaderC2ERKS0_
etserver:_ZN2et14SequenceHeaderD0Ev
etserver:_ZN2et14SequenceHeaderD1Ev
etserver:_ZN2et14SequenceHeaderD2Ev
etserver:_ZN2et14ServerFifoPath15setPathOverrideENSt7__cxx1112basic_stringIcSt11char_traitsIcESaIcEEE
etserver:_ZN2et14ServerFifoPath16detectAndConnectESt8optionalINS_14SocketEndpointEERKSt10shared_ptrINS_13SocketHandlerEE
etserver:_ZN2et14ServerFifoPath18getPathForCreationB5cxx11Ev
etserver:_ZN2et14ServerFifoPath21getEndpointForConnectEv
etserver:_ZN2et14ServerFifoPath27createDirectoriesIfRequiredEv
etserver:_ZN2et14ServerFifoPathC1Ev
etserver:_ZN2et14ServerFifoPathC2Ev
etserver:_ZN2et14SocketEndpoint12InternalSwapEPS0_
etserver:_ZN2et14SocketEndpoint14_InternalParseEPKcPN6google8protobuf8internal12ParseContextE
etserver:_ZN2et14SocketEndpoint21CheckTypeAndMergeFromERKN6google8protobuf11MessageLiteE
etserver:_ZN2et14SocketEndpoint5ClearEv
etserver:_ZN2et14SocketEndpoint8CopyFromERKS0_
etserver:_ZN2et14SocketEndpoint9MergeFromERKS0_
etserver:_ZN2et14SocketEndpointC1EPN6google8protobuf5ArenaEb
etserver:_ZN2et14SocketEndpointC1ERKS0_
etserver:_ZN2et14SocketEndpointC2EPN6google8protobuf5ArenaEb
etserver:_ZN2et14SocketEndpointC2ERKS0_
etserver:_ZN2et14SocketEndpointD0Ev
etserver:_ZN2et14SocketEndpointD1Ev
etserver:_ZN2et14SocketEndpointD2Ev
etserver:_ZN2et14TerminalBuffer12InternalSwapEPS0_
etserver:_ZN2et14TerminalBuffer14_InternalParseEPKcPN6google8protobuf8internal12ParseContextE
etserver:_ZN2et14TerminalBuffer21CheckTypeAndMergeFromERKN6google8protobuf11MessageLiteE
etserver:_ZN2et14TerminalBuffer5ClearEv
etserver:_ZN2et14TerminalBuffer8CopyFromERKS0_
etserver:_ZN2et14TerminalBuffer9MergeFromERKS0_
etserver:_ZN2et14TerminalBufferC1EPN6google8protobuf5ArenaEb
etserver:_ZN2et14TerminalBufferC1ERKS0_
etserver:_ZN2et14TerminalBufferC2EPN6google8protobuf5ArenaEb
etserver:_ZN2et14TerminalBufferC2ERKS0_
etserver:_ZN2et14TerminalBufferD0Ev
etserver:_ZN2et14TerminalBufferD1Ev
etserver:_ZN2et14TerminalBufferD2Ev
etserver:_ZN2et14TerminalServer11runJumpHostESt10shared_ptrINS_22ServerClientConnectionEERKNS_14InitialPayloadE
etserver:_ZN2et14TerminalServer11runTerminalESt10shared_ptrINS_22ServerClientConnectionEERKNS_14InitialPayloadE
etserver:_ZN2et14TerminalServer16handleConnectionESt10shared_ptrINS_22ServerClientConnectionEE
etserver:_ZN2et14TerminalServer3runEv
etserver:_ZN2et14TerminalServer9newClientESt10shared_ptrINS_22ServerClientConnectionEE
etserver:_ZN2et14TerminalServerC1ESt10shared_ptrINS_13SocketHandlerEERKNS_14SocketEndpointES1_INS_17PipeSocketHandlerEES6_
etserver:_ZN2et14TerminalServerC2ESt10shared_ptrINS_13SocketHandlerEERKNS_14SocketEndpointES1_INS_17PipeSocketHandlerEES6_
etserver:_ZN2et14TerminalServerD0Ev
etserver:_ZN2et14TerminalServerD1Ev
etserver:_ZN2et14TerminalServerD2Ev
etserver:_ZN2et15ConnectResponse12InternalSwapEPS0_
etserver:_ZN2et15ConnectResponse14_InternalParseEPKcPN6google8protobuf8internal12ParseContextE
etserver:_ZN2et15ConnectResponse21CheckTypeAndMergeFromERKN6google8protobuf11MessageLiteE
etserver:_ZN2et15ConnectResponse5ClearEv
etserver:_ZN2et15ConnectResponse8CopyFromERKS0_
etserver:_ZN2et15ConnectResponse9MergeFromERKS0_
etserver:_ZN2et15ConnectResponseC1EPN6google8protobuf5ArenaEb
etserver:_ZN2et15ConnectResponseC1ERKS0_
etserver:_ZN2et15ConnectResponseC2EPN6google8protobuf5ArenaEb
etserver:_ZN2et15ConnectResponseC2ERKS0_
etserver:_ZN2et15ConnectResponseD0Ev
etserver:_ZN2et15ConnectResponseD1Ev
etserver:_ZN2et15ConnectResponseD2Ev
etserver:_ZN2et15InitialResponse12InternalSwapEPS0_
etserver:_ZN2et15InitialResponse14_InternalParseEPKcPN6google8protobuf8internal12ParseContextE
etserver:_ZN2et15InitialResponse21CheckTypeAndMergeFromERKN6google8protobuf11MessageLiteE
etserver:_ZN2et15InitialResponse5ClearEv
etserver:_ZN2et15InitialResponse8CopyFromERKS0_
etserver:_ZN2et15InitialResponse9MergeFromERKS0_
etserver:_ZN2et15InitialResponseC1EPN6google8protobuf5ArenaEb
etserver:_ZN2et15InitialResponseC1ERKS0_
etserver:_ZN2et15InitialResponseC2EPN6google8protobuf5ArenaEb
etserver:_ZN2et15InitialResponseC2ERKS0_
etserver:_ZN2et15InitialResponseD0Ev
etserver:_ZN2et15InitialResponseD1Ev
etserver:_ZN2et15InitialResponseD2Ev
etserver:_ZN2et15PortForwardData12InternalSwapEPS0_
etserver:_ZN2et15PortForwardData14_InternalParseEPKcPN6google8protobuf8internal12ParseContextE
etserver:_ZN2et15PortForwardData21CheckTypeAndMergeFromERKN6google8protobuf11MessageLiteE
etserver:_ZN2et15PortForwardData5ClearEv
etserver:_ZN2et15PortForwardData8CopyFromERKS0_
etserver:_ZN2et15PortForwardData9MergeFromERKS0_
etserver:_ZN2et15PortForwardDataC1EPN6google8protobuf5ArenaEb
etserver:_ZN2et15PortForwardDataC1ERKS0_
etserver:_ZN2et15PortForwardDataC2EPN6google8protobuf5ArenaEb
etserver:_ZN2et15PortForwardDataC2ERKS0_
etserver:_ZN2et15PortForwardDataD0Ev
etserver:_ZN2et15PortForwardDataD1Ev
etserver:_ZN2et15PortForwardDataD2Ev
etserver:_ZN2et16ServerConnection12removeClientERKNSt7__cxx1112basic_stringIcSt11char_traitsIcESaIcEEE
etserver:_ZN2et16ServerConnection13clientHandlerEi
etserver:_ZN2et16ServerConnection19acceptNewConnectionEi
etserver:_ZN2et16ServerConnection24destroyPartialConnectionERKNSt7__cxx1112basic_stringIcSt11char_traitsIcESaIcEEE
etserver:_ZN2et16ServerConnection8shutdownEv
etserver:_ZN2et16ServerConnectionC1ESt10shared_ptrINS_13SocketHandlerEERKNS_14SocketEndpointE
etserver:_ZN2et16ServerConnectionC2ESt10shared_ptrINS_13SocketHandlerEERKNS_14SocketEndpointE
etserver:_ZN2et16ServerConnectionD1Ev
etserver:_ZN2et16ServerConnectionD2Ev
etserver:_ZN2et16TcpSocketHandler10initSocketEi
etserver:_ZN2et16TcpSocketHandler13stopListeningERKNS_14SocketEndpointE
etserver:_ZN2et16TcpSocketHandler14getEndpointFdsERKNS_14SocketEndpointE
etserver:_ZN2et16TcpSocketHandler6listenERKNS_14SocketEndpointE
etserver:_ZN2et16TcpSocketHandler7connectERKNS_14SocketEndpointE
etserver:_ZN2et16TcpSocketHandlerC1Ev
etserver:_ZN2et16TcpSocketHandlerC2Ev
etserver:_ZN2et16TelemetryService11logToSentryEN2el5LevelERKNSt7__cxx1112basic_stringIcSt11char_traitsIcESaIcEEE
etserver:_ZN2et16TelemetryService12logToDatadogERKNSt7__cxx1112basic_stringIcSt11char_traitsIcESaIcEEEN2el5LevelES8_i
etserver:_ZN2et16TelemetryService24telemetryServiceInstanceE
etserver:_ZN2et16TelemetryService8shutdownEv
etserver:_ZN2et16TelemetryServiceC1EbRKNSt7__cxx1112basic_stringIcSt11char_traitsIcESaIcEEES8_
etserver:_ZN2et16TelemetryServiceC2EbRKNSt7__cxx1112basic_stringIcSt11char_traitsIcESaIcEEES8_
etserver:_ZN2et16TelemetryServiceD0Ev
etserver:_ZN2et16TelemetryServiceD1Ev
etserver:_ZN2et16TelemetryServiceD2Ev
etserver:_ZN2et16TerminalUserInfo12InternalSwapEPS0_
etserver:_ZN2et16TerminalUserInfo14_InternalParseEPKcPN6google8protobuf8internal12ParseContextE
etserver:_ZN2et16TerminalUserInfo21CheckTypeAndMergeFromERKN6google8protobuf11MessageLiteE
etserver:_ZN2et16TerminalUserInfo5ClearEv
etserver:_ZN2et16TerminalUserInfo8CopyFromERKS0_
etserver:_ZN2et16TerminalUserInfo9MergeFromERKS0_
etserver:_ZN2et16TerminalUserInfoC1EPN6google8protobuf5ArenaEb
etserver:_ZN2et16TerminalUserInfoC1ERKS0_
etserver:_ZN2et16TerminalUserInfoC2EPN6google8protobuf5ArenaEb
etserver:_ZN2et16TerminalUserInfoC2ERKS0_
etserver:_ZN2et16TerminalUserInfoD0Ev
etserver:_ZN2et16TerminalUserInfoD1Ev
etserver:_ZN2et16TerminalUserInfoD2Ev
etserver:_ZN2et17EtPacketType_NameB5cxx11ENS_12EtPacketTypeE
etserver:_ZN2et17PipeSocketHandler13stopListeningERKNS_14SocketEndpointE
etserver:_ZN2et17PipeSocketHandler14getEndpointFdsERKNS_14SocketEndpointE
etserver:_ZN2et17PipeSocketHandler6listenERKNS_14SocketEndpointE
etserver:_ZN2et17PipeSocketHandler7connectERKNS_14SocketEndpointE
etserver:_ZN2et17PipeSocketHandlerC1Ev
etserver:_ZN2et17PipeSocketHandlerC2Ev
etserver:_ZN2et17UnixSocketHandler10initSocketEi
etserver:_ZN2et17UnixSocketHandler11setBlockingEib
etserver:_ZN2et17UnixSocketHandler11waitForDataEill
etserver:_ZN2et17UnixSocketHandler16getActiveSocketsEv
etserver:_ZN2et17UnixSocketHandler16initServerSocketEi
etserver:_ZN2et17UnixSocketHandler18addToActiveSocketsEi
etserver:_ZN2et17UnixSocketHandler4readEiPvm
etserver:_ZN2et17UnixSocketHandler5closeEi
etserver:_ZN2et17UnixSocketHandler5writeEiPKvm
etserver:_ZN2et17UnixSocketHandler6acceptEi
etserver:_ZN2et17UnixSocketHandler7hasDataEi
etserver:_ZN2et17UnixSocketHandlerC1Ev
etserver:_ZN2et17UnixSocketHandlerC2Ev
etserver:_ZN2et17shutdownTelemetryEv
etserver:_ZN2et18ConnectStatus_NameB5cxx11ENS_13ConnectStatusE
etserver:_ZN2et18EtPacketType_ParseERKNSt7__cxx1112basic_stringIcSt11char_traitsIcESaIcEEEPNS_12EtPacketTypeE
etserver:_ZN2et18PortForwardHandler12createSourceERKNS_24PortForwardSourceRequestEPNSt7__cxx1112basic_stringIcSt11char_traitsIcESaIcEEEjj
etserver:_ZN2et18PortForwardHandler12handlePacketERKNS_6PacketESt10shared_ptrINS_10ConnectionEE
etserver:_ZN2et18PortForwardHandler13closeSourceFdEi
etserver:_ZN2et18PortForwardHandler17addSourceSocketIdEii
etserver:_ZN2et18PortForwardHandler17createDestinationERKNS_29PortForwardDestinationRequestE
etserver:_ZN2et18PortForwardHandler19closeSourceSocketIdEi
etserver:_ZN2et18PortForwardHandler24sendDataToSourceOnSocketEiRKNSt7__cxx1112basic_stringIcSt11char_traitsIcESaIcEEE
etserver:_ZN2et18PortForwardHandler6updateEPSt6vectorINS_29PortForwardDestinationRequestESaIS2_EEPS1_INS_15PortForwardDataESaIS6_EE
etserver:_ZN2et18PortForwardHandlerC1ESt10shared_ptrINS_13SocketHandlerEES3_
etserver:_ZN2et18PortForwardHandlerC2ESt10shared_ptrINS_13SocketHandlerEES3_
etserver:_ZN2et18UserTerminalRouter19acceptNewConnectionEv
etserver:_ZN2et18UserTerminalRouter23tryGetInfoForConnectionERKSt10shared_ptrINS_22ServerClientConnectionEE
etserver:_ZN2et18UserTerminalRouterC1ESt10shared_ptrINS_17PipeSocketHandlerEERKNS_14SocketEndpointE
etserver:_ZN2et18UserTerminalRouterC2ESt10shared_ptrINS_17PipeSocketHandlerEERKNS_14SocketEndpointE
etserver:_ZN2et19ConnectStatus_ParseERKNSt7__cxx1112basic_stringIcSt11char_traitsIcESaIcEEEPNS_13ConnectStatusE
etserver:_ZN2et20EtPacketType_IsValidEi
etserver:_ZN2et20ForwardSourceHandler11closeSocketEi
etserver:_ZN2et20ForwardSourceHandler15hasUnassignedFdEi
etserver:_ZN2et20ForwardSourceHandler16sendDataOnSocketEiRKNSt7__cxx1112basic_stringIcSt11char_traitsIcESaIcEEE
etserver:_ZN2et20ForwardSourceHandler17closeUnassignedFdEi
etserver:_ZN2et20ForwardSourceHandler6listenEv
etserver:_ZN2et20ForwardSourceHandler6updateEPSt6vectorINS_15PortForwardDataESaIS2_EE
etserver:_ZN2et20ForwardSourceHandler9addSocketEii
etserver:_ZN2et20ForwardSourceHandlerC1ESt10shared_ptrINS_13SocketHandlerEERKNS_14SocketEndpointES6_
etserver:_ZN2et20ForwardSourceHandlerC2ESt10shared_ptrINS_13SocketHandlerEERKNS_14SocketEndpointES6_
etserver:_ZN2et20ForwardSourceHandlerD1Ev
etserver:_ZN2et20ForwardSourceHandlerD2Ev
etserver:_ZN2et21ConnectStatus_IsValidEi
etserver:_ZN2et21reportConnectionErrorEv
etserver:_ZN2et22ServerClientConnection13recoverClientEi
etserver:_ZN2et22ServerClientConnection13verifyPasskeyERKNSt7__cxx1112basic_stringIcSt11char_traitsIcESaIcEEE
etserver:_ZN2et22ServerClientConnectionC1ERKSt10shared_ptrINS_13SocketHandlerEERKNSt7__cxx1112basic_stringIcSt11char_traitsIcESaIcEEEiSD_
etserver:_ZN2et22ServerClientConnectionC2ERKSt10shared_ptrINS_13SocketHandlerEERKNSt7__cxx1112basic_stringIcSt11char_traitsIcESaIcEEEiSD_
etserver:_ZN2et22ServerClientConnectionD0Ev
etserver:_ZN2et22ServerClientConnectionD1Ev
etserver:_ZN2et22ServerClientConnectionD2Ev
etserver:_ZN2et23TerminalPacketType_NameB5cxx11ENS_18TerminalPacketTypeE
etserver:_ZN2et24PortForwardSourceRequest12InternalSwapEPS0_
etserver:_ZN2et24PortForwardSourceRequest12clear_sourceEv
etserver:_ZN2et24PortForwardSourceRequest14_InternalParseEPKcPN6google8protobuf8internal12ParseContextE
etserver:_ZN2et24PortForwardSourceRequest17clear_destinationEv
etserver:_ZN2et24PortForwardSourceRequest21CheckTypeAndMergeFromERKN6google8protobuf11MessageLiteE
etserver:_ZN2et24PortForwardSourceRequest5ClearEv
etserver:_ZN2et24PortForwardSourceRequest8CopyFromERKS0_
etserver:_ZN2et24PortForwardSourceRequest9MergeFromERKS0_
etserver:_ZN2et24PortForwardSourceRequest9_Internal11destinationEPKS0_
etserver:_ZN2et24PortForwardSourceRequest9_Internal6sourceEPKS0_
etserver:_ZN2et24PortForwardSourceRequestC1EPN6google8protobuf5ArenaEb
etserver:_ZN2et24PortForwardSourceRequestC1ERKS0_
etserver:_ZN2et24PortForwardSourceRequestC2EPN6google8protobuf5ArenaEb
etserver:_ZN2et24PortForwardSourceRequestC2ERKS0_
etserver:_ZN2et24PortForwardSourceRequestD0Ev
etserver:_ZN2et24PortForwardSourceRequestD1Ev
etserver:_ZN2et24PortForwardSourceRequestD2Ev
etserver:_ZN2et24TerminalPacketType_ParseERKNSt7__cxx1112basic_stringIcSt11char_traitsIcESaIcEEEPNS_18TerminalPacketTypeE
etserver:_ZN2et25ForwardDestinationHandler5closeEv
etserver:_ZN2et25ForwardDestinationHandler5writeERKNSt7__cxx1112basic_stringIcSt11char_traitsIcESaIcEEE
etserver:_ZN2et25ForwardDestinationHandler6updateEPSt6vectorINS_15PortForwardDataESaIS2_EE
etserver:_ZN2et25ForwardDestinationHandlerC1ESt10shared_ptrINS_13SocketHandlerEEii
etserver:_ZN2et25ForwardDestinationHandlerC2ESt10shared_ptrINS_13SocketHandlerEEii
etserver:_ZN2et25PortForwardSourceResponse12InternalSwapEPS0_
etserver:_ZN2et25PortForwardSourceResponse14_InternalParseEPKcPN6google8protobuf8internal12ParseContextE
etserver:_ZN2et25PortForwardSourceResponse21CheckTypeAndMergeFromERKN6google8protobuf11MessageLiteE
etserver:_ZN2et25PortForwardSourceResponse5ClearEv
etserver:_ZN2et25PortForwardSourceResponse8CopyFromERKS0_
etserver:_ZN2et25PortForwardSourceResponse9MergeFromERKS0_
etserver:_ZN2et25PortForwardSourceResponseC1EPN6google8protobuf5ArenaEb
etserver:_ZN2et25PortForwardSourceResponseC1ERKS0_
etserver:_ZN2et25PortForwardSourceResponseC2EPN6google8protobuf5ArenaEb
etserver:_ZN2et25PortForwardSourceResponseC2ERKS0_
etserver:_ZN2et25PortForwardSourceResponseD0Ev
etserver:_ZN2et25PortForwardSourceResponseD1Ev
etserver:_ZN2et25PortForwardSourceResponseD2Ev
etserver:_ZN2et26TerminalPacketType_IsValidEi
etserver:_ZN2et27_TermInit_default_instance_E
etserver:_ZN2et29PortForwardDestinationRequest12InternalSwapEPS0_
etserver:_ZN2et29PortForwardDestinationRequest14_InternalParseEPKcPN6google8protobuf8internal12ParseContextE
etserver:_ZN2et29PortForwardDestinationRequest17clear_destinationEv
etserver:_ZN2et29PortForwardDestinationRequest21CheckTypeAndMergeFromERKN6google8protobuf11MessageLiteE
etserver:_ZN2et29PortForwardDestinationRequest5ClearEv
etserver:_ZN2et29PortForwardDestinationRequest8CopyFromERKS0_
etserver:_ZN2et29PortForwardDestinationRequest9MergeFromERKS0_
etserver:_ZN2et29PortForwardDestinationRequest9_Internal11destinationEPKS0_
etserver:_ZN2et29PortForwardDestinationRequestC1EPN6google8protobuf5ArenaEb
etserver:_ZN2et29PortForwardDestinationRequestC1ERKS0_
etserver:_ZN2et29PortForwardDestinationRequestC2EPN6google8protobuf5ArenaEb
etserver:_ZN2et29PortForwardDestinationRequestC2ERKS0_
etserver:_ZN2et29PortForwardDestinationRequestD0Ev
etserver:_ZN2et29PortForwardDestinationRequestD1Ev
etserver:_ZN2et29PortForwardDestinationRequestD2Ev
etserver:_ZN2et30PortForwardDestinationResponse12InternalSwapEPS0_
etserver:_ZN2et30PortForwardDestinationResponse14_InternalParseEPKcPN6google8protobuf8internal12ParseContextE
etserver:_ZN2et30PortForwardDestinationResponse21CheckTypeAndMergeFromERKN6google8protobuf11MessageLiteE
etserver:_ZN2et30PortForwardDestinationResponse5ClearEv
etserver:_ZN2et30PortForwardDestinationResponse8CopyFromERKS0_
etserver:_ZN2et30PortForwardDestinationResponse9MergeFromERKS0_
etserver:_ZN2et30PortForwardDestinationResponseC1EPN6google8protobuf5ArenaEb
etserver:_ZN2et30PortForwardDestinationResponseC1ERKS0_
etserver:_ZN2et30PortForwardDestinationResponseC2EPN6google8protobuf5ArenaEb
etserver:_ZN2et30PortForwardDestinationResponseC2ERKS0_
etserver:_ZN2et30PortForwardDestinationResponseD0Ev
etserver:_ZN2et30PortForwardDestinationResponseD1Ev
etserver:_ZN2et30PortForwardDestinationResponseD2Ev
etserver:_ZN2et31_ConfigParams_default_instance_E
etserver:_ZN2et31_TerminalInfo_default_instance_E
etserver:_ZN2et32_CatchupBuffer_default_instance_E
etserver:_ZN2et33_ConnectRequest_default_instance_E
etserver:_ZN2et33_InitialPayload_default_instance_E
etserver:_ZN2et33_SequenceHeader_default_instance_E
etserver:_ZN2et33_SocketEndpoint_default_instance_E
etserver:_ZN2et33_TerminalBuffer_default_instance_E
etserver:_ZN2et34_ConnectResponse_default_instance_E
etserver:_ZN2et34_InitialResponse_default_instance_E
etserver:_ZN2et34_PortForwardData_default_instance_E
etserver:_ZN2et35_TerminalUserInfo_default_instance_E
etserver:_ZN2et43_PortForwardSourceRequest_default_instance_E
etserver:_ZN2et44_PortForwardSourceResponse_default_instance_E
etserver:_ZN2et48_PortForwardDestinationRequest_default_instance_E
etserver:_ZN2et49_PortForwardDestinationResponse_default_instance_E
etserver:_ZN2et8TermInit12InternalSwapEPS0_
etserver:_ZN2et8TermInit14_InternalParseEPKcPN6google8protobuf8internal12ParseContextE
etserver:_ZN2et8TermInit21CheckTypeAndMergeFromERKN6google8protobuf11MessageLiteE
etserver:_ZN2et8TermInit5ClearEv
etserver:_ZN2et8TermInit8CopyFromERKS0_
etserver:_ZN2et8TermInit9MergeFromERKS0_
etserver:_ZN2et8TermInitC1EPN6google8protobuf5ArenaEb
etserver:_ZN2et8TermInitC1ERKS0_
etserver:_ZN2et8TermInitC2EPN6google8protobuf5ArenaEb
etserver:_ZN2et8TermInitC2ERKS0_
etserver:_ZN2et8TermInitD0Ev
etserver:_ZN2et8TermInitD1Ev
etserver:_ZN2et8TermInitD2Ev
etserver:_ZN4sago11getCacheDirB5cxx11Ev
etserver:_ZN4sago11getDataHomeB5cxx11Ev
etserver:_ZN4sago13getConfigHomeB5cxx11Ev
etserver:_ZN4sago14getMusicFolderB5cxx11Ev
etserver:_ZN4sago14getVideoFolderB5cxx11Ev
etserver:_ZN4sago15PlatformFoldersC1Ev
etserver:_ZN4sago15PlatformFoldersC2Ev
etserver:_ZN4sago15PlatformFoldersD1Ev
etserver:_ZN4sago15PlatformFoldersD2Ev
etserver:_ZN4sago15getPublicFolderB5cxx11Ev
etserver:_ZN4sago16getDesktopFolderB5cxx11Ev
etserver:_ZN4sago17getDownloadFolderB5cxx11Ev
etserver:_ZN4sago17getPicturesFolderB5cxx11Ev
etserver:_ZN4sago18getDocumentsFolderB5cxx11Ev
etserver:_ZN4sago18getDownloadFolder1B5cxx11Ev
etserver:_ZN4sago19getSaveGamesFolder1B5cxx11Ev
etserver:_ZN4sago19getSaveGamesFolder2B5cxx11Ev
etserver:_ZN4sago31appendAdditionalDataDirectoriesERSt6vectorINSt7__cxx1112basic_stringIcSt11char_traitsIcESaIcEEESaIS6_EE
etserver:_ZN4sago33appendAdditionalConfigDirectoriesERSt6vectorINSt7__cxx1112basic_stringIcSt11char_traitsIcESaIcEEESaIS6_EE
etserver:_ZN6google8protobuf5Arena18CreateMaybeMessageIN2et12ConfigParamsEJEEEPT_PS1_DpOT0_
etserver:_ZN6google8protobuf5Arena18CreateMaybeMessageIN2et12TerminalInfoEJEEEPT_PS1_DpOT0_
etserver:_ZN6google8protobuf5Arena18CreateMaybeMessageIN2et13CatchupBufferEJEEEPT_PS1_DpOT0_
etserver:_ZN6google8protobuf5Arena18CreateMaybeMessageIN2et14ConnectRequestEJEEEPT_PS1_DpOT0_
etserver:_ZN6google8protobuf5Arena18CreateMaybeMessageIN2et14InitialPayloadEJEEEPT_PS1_DpOT0_
etserver:_ZN6google8protobuf5Arena18CreateMaybeMessageIN2et14SequenceHeaderEJEEEPT_PS1_DpOT0_
etserver:_ZN6google8protobuf5Arena18CreateMaybeMessageIN2et14SocketEndpointEJEEEPT_PS1_DpOT0_
etserver:_ZN6google8protobuf5Arena18CreateMaybeMessageIN2et14TerminalBufferEJEEEPT_PS1_DpOT0_
etserver:_ZN6google8protobuf5Arena18CreateMaybeMessageIN2et15ConnectResponseEJEEEPT_PS1_DpOT0_
etserver:_ZN6google8protobuf5Arena18CreateMaybeMessageIN2et15InitialResponseEJEEEPT_PS1_DpOT0_
etserver:_ZN6google8protobuf5Arena18CreateMaybeMessageIN2et15PortForwardDataEJEEEPT_PS1_DpOT0_
etserver:_ZN6google8protobuf5Arena18CreateMaybeMessageIN2et16TerminalUserInfoEJEEEPT_PS1_DpOT0_
etserver:_ZN6google8protobuf5Arena18CreateMaybeMessageIN2et24PortForwardSourceRequestEJEEEPT_PS1_DpOT0_
etserver:_ZN6google8protobuf5Arena18CreateMaybeMessageIN2et25PortForwardSourceResponseEJEEEPT_PS1_DpOT0_
etserver:_ZN6google8protobuf5Arena18CreateMaybeMessageIN2et29PortForwardDestinationRequestEJEEEPT_PS1_DpOT0_
etserver:_ZN6google8protobuf5Arena18CreateMaybeMessageIN2et30PortForwardDestinationResponseEJEEEPT_PS1_DpOT0_
etserver:_ZN6google8protobuf5Arena18CreateMaybeMessageIN2et8TermInitEJEEEPT_PS1_DpOT0_
etserver:_ZN6logger5writeEPKcm
etserver:_ZNK15google_breakpad10ThreadInfo14FillCPUContextEP17MDRawContextAMD64
etserver:_ZNK15google_breakpad10ThreadInfo21GetInstructionPointerEv
etserver:_ZNK15google_breakpad11LinuxDumper11FindMappingEPKv
etserver:_ZNK15google_breakpad11LinuxDumper17FindMappingNoBiasEm
etserver:_ZNK15google_breakpad11LinuxDumper20GetCrashSignalStringEv
etserver:_ZNK15google_breakpad11LinuxDumper22GetMappingAbsolutePathERKNS_11MappingInfoEPc
etserver:_ZNK15google_breakpad11LinuxDumper26HandleDeletedFileInMappingEPc
etserver:_ZNK15google_breakpad17LinuxPtraceDumper12IsPostMortemEv
etserver:_ZNK15google_breakpad17LinuxPtraceDumper13BuildProcPathEPciPKc
etserver:_ZNK2el13Configuration3logERSo
etserver:_ZNK2el13Configuration9PredicateclEPKS0_
etserver:_ZNK2el4base17DefaultLogBuilder5buildB5cxx11EPKNS_10LogMessageEb
etserver:_ZNK2el4base5utils15CommandLineArgs13getParamValueEPKc
etserver:_ZNK2el4base5utils15CommandLineArgs17hasParamWithValueEPKc
etserver:_ZNK2el4base5utils15CommandLineArgs4sizeEv
etserver:_ZNK2el4base5utils15CommandLineArgs5emptyEv
etserver:_ZNK2el4base5utils15CommandLineArgs8hasParamEPKc
etserver:_ZNK2el6Logger23resolveLoggerFormatSpecEv
etserver:_ZNK2et12ConfigParams11GetTypeNameB5cxx11Ev
etserver:_ZNK2et12ConfigParams12ByteSizeLongEv
etserver:_ZNK2et12ConfigParams13IsInitializedEv
etserver:_ZNK2et12ConfigParams13SetCachedSizeEi
etserver:_ZNK2et12ConfigParams18_InternalSerializeEPhPN6google8protobuf2io19EpsCopyOutputStreamE
etserver:_ZNK2et12TerminalInfo11GetTypeNameB5cxx11Ev
etserver:_ZNK2et12TerminalInfo12ByteSizeLongEv
etserver:_ZNK2et12TerminalInfo13IsInitializedEv
etserver:_ZNK2et12TerminalInfo13SetCachedSizeEi
etserver:_ZNK2et12TerminalInfo18_InternalSerializeEPhPN6google8protobuf2io19EpsCopyOutputStreamE
etserver:_ZNK2et13CatchupBuffer11GetTypeNameB5cxx11Ev
etserver:_ZNK2et13CatchupBuffer12ByteSizeLongEv
etserver:_ZNK2et13CatchupBuffer13IsInitializedEv
etserver:_ZNK2et13CatchupBuffer13SetCachedSizeEi
etserver:_ZNK2et13CatchupBuffer18_InternalSerializeEPhPN6google8protobuf2io19EpsCopyOutputStreamE
etserver:_ZNK2et14ConnectRequest11GetTypeNameB5cxx11Ev
etserver:_ZNK2et14ConnectRequest12ByteSizeLongEv
etserver:_ZNK2et14ConnectRequest13IsInitializedEv
etserver:_ZNK2et14ConnectRequest13SetCachedSizeEi
etserver:_ZNK2et14ConnectRequest18_InternalSerializeEPhPN6google8protobuf2io19EpsCopyOutputStreamE
etserver:_ZNK2et14InitialPayload11GetTypeNameB5cxx11Ev
etserver:_ZNK2et14InitialPayload12ByteSizeLongEv
etserver:_ZNK2et14InitialPayload13IsInitializedEv
etserver:_ZNK2et14InitialPayload13SetCachedSizeEi
etserver:_ZNK2et14InitialPayload18_InternalSerializeEPhPN6google8protobuf2io19EpsCopyOutputStreamE
etserver:_ZNK2et14SequenceHeader11GetTypeNameB5cxx11Ev
etserver:_ZNK2et14SequenceHeader12ByteSizeLongEv
etserver:_ZNK2et14SequenceHeader13IsInitializedEv
etserver:_ZNK2et14SequenceHeader13SetCachedSizeEi
etserver:_ZNK2et14SequenceHeader18_InternalSerializeEPhPN6google8protobuf2io19EpsCopyOutputStreamE
etserver:_ZNK2et14SocketEndpoint11GetTypeNameB5cxx11Ev
etserver:_ZNK2et14SocketEndpoint12ByteSizeLongEv
etserver:_ZNK2et14SocketEndpoint13IsInitializedEv
etserver:_ZNK2et14SocketEndpoint13SetCachedSizeEi
etserver:_ZNK2et14SocketEndpoint18_InternalSerializeEPhPN6google8protobuf2io19EpsCopyOutputStreamE
etserver:_ZNK2et14TerminalBuffer11GetTypeNameB5cxx11Ev
etserver:_ZNK2et14TerminalBuffer12ByteSizeLongEv
etserver:_ZNK2et14TerminalBuffer13IsInitializedEv
etserver:_ZNK2et14TerminalBuffer13SetCachedSizeEi
etserver:_ZNK2et14TerminalBuffer18_InternalSerializeEPhPN6google8protobuf2io19EpsCopyOutputStreamE
etserver:_ZNK2et15ConnectResponse11GetTypeNameB5cxx11Ev
etserver:_ZNK2et15ConnectResponse12ByteSizeLongEv
etserver:_ZNK2et15ConnectResponse13IsInitializedEv
etserver:_ZNK2et15ConnectResponse13SetCachedSizeEi
etserver:_ZNK2et15ConnectResponse18_InternalSerializeEPhPN6google8protobuf2io19EpsCopyOutputStreamE
etserver:_ZNK2et15InitialResponse11GetTypeNameB5cxx11Ev
etserver:_ZNK2et15InitialResponse12ByteSizeLongEv
etserver:_ZNK2et15InitialResponse13IsInitializedEv
etserver:_ZNK2et15InitialResponse13SetCachedSizeEi
etserver:_ZNK2et15InitialResponse18_InternalSerializeEPhPN6google8protobuf2io19EpsCopyOutputStreamE
etserver:_ZNK2et15PortForwardData11GetTypeNameB5cxx11Ev
etserver:_ZNK2et15PortForwardData12ByteSizeLongEv
etserver:_ZNK2et15PortForwardData13IsInitializedEv
etserver:_ZNK2et15PortForwardData13SetCachedSizeEi
etserver:_ZNK2et15PortForwardData18_InternalSerializeEPhPN6google8protobuf2io19EpsCopyOutputStreamE
etserver:_ZNK2et16TerminalUserInfo11GetTypeNameB5cxx11Ev
etserver:_ZNK2et16TerminalUserInfo12ByteSizeLongEv
etserver:_ZNK2et16TerminalUserInfo13IsInitializedEv
etserver:_ZNK2et16TerminalUserInfo13SetCachedSizeEi
etserver:_ZNK2et16TerminalUserInfo18_InternalSerializeEPhPN6google8protobuf2io19EpsCopyOutputStreamE
etserver:_ZNK2et24PortForwardSourceRequest11GetTypeNameB5cxx11Ev
etserver:_ZNK2et24PortForwardSourceRequest12ByteSizeLongEv
etserver:_ZNK2et24PortForwardSourceRequest13IsInitializedEv
etserver:_ZNK2et24PortForwardSourceRequest13SetCachedSizeEi
etserver:_ZNK2et24PortForwardSourceRequest18_InternalSerializeEPhPN6google8protobuf2io19EpsCopyOutputStreamE
etserver:_ZNK2et25PortForwardSourceResponse11GetTypeNameB5cxx11Ev
etserver:_ZNK2et25PortForwardSourceResponse12ByteSizeLongEv
etserver:_ZNK2et25PortForwardSourceResponse13IsInitializedEv
etserver:_ZNK2et25PortForwardSourceResponse13SetCachedSizeEi
etserver:_ZNK2et25PortForwardSourceResponse18_InternalSerializeEPhPN6google8protobuf2io19EpsCopyOutputStreamE
etserver:_ZNK2et29PortForwardDestinationRequest11GetTypeNameB5cxx11Ev
etserver:_ZNK2et29PortForwardDestinationRequest12ByteSizeLongEv
etserver:_ZNK2et29PortForwardDestinationRequest13IsInitializedEv
etserver:_ZNK2et29PortForwardDestinationRequest13SetCachedSizeEi
etserver:_ZNK2et29PortForwardDestinationRequest18_InternalSerializeEPhPN6google8protobuf2io19EpsCopyOutputStreamE
etserver:_ZNK2et30PortForwardDestinationResponse11GetTypeNameB5cxx11Ev
etserver:_ZNK2et30PortForwardDestinationResponse12ByteSizeLongEv
etserver:_ZNK2et30PortForwardDestinationResponse13IsInitializedEv
etserver:_ZNK2et30PortForwardDestinationResponse13SetCachedSizeEi
etserver:_ZNK2et30PortForwardDestinationResponse18_InternalSerializeEPhPN6google8protobuf2io19EpsCopyOutputStreamE
etserver:_ZNK2et8TermInit11GetTypeNameB5cxx11Ev
etserver:_ZNK2et8TermInit12ByteSizeLongEv
etserver:_ZNK2et8TermInit13IsInitializedEv
etserver:_ZNK2et8TermInit13SetCachedSizeEi
etserver:_ZNK2et8TermInit18_InternalSerializeEPhPN6google8protobuf2io19EpsCopyOutputStreamE
etserver:_ZNK4sago15PlatformFolders14getMusicFolderB5cxx11Ev
etserver:_ZNK4sago15PlatformFolders14getVideoFolderB5cxx11Ev
etserver:_ZNK4sago15PlatformFolders15getPublicFolderB5cxx11Ev
etserver:_ZNK4sago15PlatformFolders16getDesktopFolderB5cxx11Ev
etserver:_ZNK4sago15PlatformFolders17getPicturesFolderB5cxx11Ev
etserver:_ZNK4sago15PlatformFolders18getDocumentsFolderB5cxx11Ev
etserver:_ZNK4sago15PlatformFolders18getDownloadFolder1B5cxx11Ev
etserver:_ZNK4sago15PlatformFolders19getSaveGamesFolder1B5cxx11Ev
etserver:__bss_start
etserver:__data_start
etserver:_edata
etserver:_end
etserver:_start
etserver:main
etserver:my_isspace
etserver:my_memchr
etserver:my_memset
etserver:my_read_decimal_ptr
etserver:my_read_hex_ptr
etserver:my_strchr
etserver:my_strcmp
etserver:my_strlcat
etserver:my_strlcpy
etserver:my_strlen
etserver:my_strncmp
etserver:my_strrchr
etserver:my_strtoui
etserver:my_uint_len
etserver:my_uitos
etserver:sentry__backend_new
etserver:sentry_add_breadcrumb
etserver:sentry_capture_event
etserver:sentry_clear_crashed_last_run
etserver:sentry_clear_modulecache
etserver:sentry_close
etserver:sentry_end_session
etserver:sentry_envelope_free
etserver:sentry_envelope_get_event
etserver:sentry_envelope_get_transaction
etserver:sentry_envelope_serialize
etserver:sentry_envelope_write_to_file
etserver:sentry_event_add_exception
etserver:sentry_event_add_thread
etserver:sentry_event_value_add_stacktrace
etserver:sentry_flush
etserver:sentry_free
etserver:sentry_get_crashed_last_run
etserver:sentry_get_modules_list
etserver:sentry_handle_exception
etserver:sentry_init
etserver:sentry_malloc
etserver:sentry_options_add_attachment
etserver:sentry_options_free
etserver:sentry_options_get_auto_session_tracking
etserver:sentry_options_get_ca_certs
etserver:sentry_options_get_debug
etserver:sentry_options_get_dist
etserver:sentry_options_get_dsn
etserver:sentry_options_get_environment
etserver:sentry_options_get_http_proxy
etserver:sentry_options_get_max_breadcrumbs
etserver:sentry_options_get_max_spans
etserver:sentry_options_get_release
etserver:sentry_options_get_require_user_consent
etserver:sentry_options_get_sample_rate
etserver:sentry_options_get_shutdown_timeout
etserver:sentry_options_get_symbolize_stacktraces
etserver:sentry_options_get_traces_sample_rate
etserver:sentry_options_get_transport_thread_name
etserver:sentry_options_new
etserver:sentry_options_set_auto_session_tracking
etserver:sentry_options_set_before_send
etserver:sentry_options_set_ca_certs
etserver:sentry_options_set_database_path
etserver:sentry_options_set_debug
etserver:sentry_options_set_dist
etserver:sentry_options_set_dsn
etserver:sentry_options_set_environment
etserver:sentry_options_set_handler_path
etserver:sentry_options_set_http_proxy
etserver:sentry_options_set_logger
etserver:sentry_options_set_max_breadcrumbs
etserver:sentry_options_set_max_spans
etserver:sentry_options_set_release
etserver:sentry_options_set_require_user_consent
etserver:sentry_options_set_sample_rate
etserver:sentry_options_set_shutdown_timeout
etserver:sentry_options_set_symbolize_stacktraces
etserver:sentry_options_set_system_crash_reporter_enabled
etserver:sentry_options_set_traces_sample_rate
etserver:sentry_options_set_transport
etserver:sentry_options_set_transport_thread_name
etserver:sentry_reinstall_backend
etserver:sentry_remove_context
etserver:sentry_remove_extra
etserver:sentry_remove_fingerprint
etserver:sentry_remove_tag
etserver:sentry_remove_user
etserver:sentry_set_context
etserver:sentry_set_extra
etserver:sentry_set_fingerprint
etserver:sentry_set_level
etserver:sentry_set_span
etserver:sentry_set_tag
etserver:sentry_set_transaction
etserver:sentry_set_transaction_object
etserver:sentry_set_user
etserver:sentry_shutdown
etserver:sentry_span_finish
etserver:sentry_span_iter_headers
etserver:sentry_span_remove_data
etserver:sentry_span_remove_tag
etserver:sentry_span_set_data
etserver:sentry_span_set_status
etserver:sentry_span_set_tag
etserver:sentry_span_start_child
etserver:sentry_start_session
etserver:sentry_transaction_context_new
etserver:sentry_transaction_context_remove_sampled
etserver:sentry_transaction_context_set_name
etserver:sentry_transaction_context_set_operation
etserver:sentry_transaction_context_set_sampled
etserver:sentry_transaction_context_update_from_header
etserver:sentry_transaction_finish
etserver:sentry_transaction_iter_headers
etserver:sentry_transaction_remove_data
etserver:sentry_transaction_remove_tag
etserver:sentry_transaction_set_data
etserver:sentry_transaction_set_name
etserver:sentry_transaction_set_status
etserver:sentry_transaction_set_tag
etserver:sentry_transaction_start
etserver:sentry_transaction_start_child
etserver:sentry_transport_free
etserver:sentry_transport_new
etserver:sentry_transport_set_flush_func
etserver:sentry_transport_set_free_func
etserver:sentry_transport_set_shutdown_func
etserver:sentry_transport_set_startup_func
etserver:sentry_transport_set_state
etserver:sentry_unwind_stack
etserver:sentry_unwind_stack_from_ucontext
etserver:sentry_user_consent_get
etserver:sentry_user_consent_give
etserver:sentry_user_consent_reset
etserver:sentry_user_consent_revoke
etserver:sentry_uuid_as_bytes
etserver:sentry_uuid_as_string
etserver:sentry_uuid_from_bytes
etserver:sentry_uuid_from_string
etserver:sentry_uuid_is_nil
etserver:sentry_uuid_new_v4
etserver:sentry_uuid_nil
etserver:sentry_value_append
etserver:sentry_value_as_double
etserver:sentry_value_as_int32
etserver:sentry_value_as_string
etserver:sentry_value_decref
etserver:sentry_value_freeze
etserver:sentry_value_get_by_index
etserver:sentry_value_get_by_index_owned
etserver:sentry_value_get_by_key
etserver:sentry_value_get_by_key_owned
etserver:sentry_value_get_length
etserver:sentry_value_get_type
etserver:sentry_value_incref
etserver:sentry_value_is_frozen
etserver:sentry_value_is_null
etserver:sentry_value_is_true
etserver:sentry_value_new_bool
etserver:sentry_value_new_breadcrumb
etserver:sentry_value_new_double
etserver:sentry_value_new_event
etserver:sentry_value_new_exception
etserver:sentry_value_new_int32
etserver:sentry_value_new_list
etserver:sentry_value_new_message_event
etserver:sentry_value_new_null
etserver:sentry_value_new_object
etserver:sentry_value_new_stacktrace
etserver:sentry_value_new_string
etserver:sentry_value_new_thread
etserver:sentry_value_refcount
etserver:sentry_value_remove_by_index
etserver:sentry_value_remove_by_key
etserver:sentry_value_set_by_index
etserver:sentry_value_set_by_key
etserver:sentry_value_to_json
etserver:sentry_value_to_msgpack
etterminal:_IO_stdin_used
etterminal:_Z13ssh_lowercasePKc
etterminal:_Z14match_hostnamePKcS0_j
etterminal:_Z15ssh_options_setP7Options13ssh_options_ePKv
etterminal:_Z16setDaemonLogFileNSt7__cxx1112basic_stringIcSt11char_traitsIcESaIcEEES4_
etterminal:_Z21parse_ssh_config_filePKcP7OptionsNSt7__cxx1112basic_stringIcSt11char_traitsIcESaIcEEE
etterminal:_Z21ssh_get_user_home_dirv
etterminal:_Z21ssh_path_expand_tildePKc
etterminal:_Z22ssh_get_local_usernamev
etterminal:_Z22ssh_path_expand_escapeP7OptionsPKc
etterminal:_ZN2el10LogBuilder22convertToColoredOutputEPNSt7__cxx1112basic_stringIcSt11char_traitsIcESaIcEEENS_5LevelE
etterminal:_ZN2el11LevelHelper12forEachLevelEPjRKSt8functionIFbvEE
etterminal:_ZN2el11LevelHelper15convertToStringENS_5LevelE
etterminal:_ZN2el11LevelHelper17convertFromStringEPKc
etterminal:_ZN2el11VersionInfo11releaseDateB5cxx11Ev
etterminal:_ZN2el11VersionInfo7versionB5cxx11Ev
etterminal:_ZN2el13Configuration9PredicateC1ENS_5LevelENS_17ConfigurationTypeE
etterminal:_ZN2el13Configuration9PredicateC2ENS_5LevelENS_17ConfigurationTypeE
etterminal:_ZN2el13ConfigurationC1ENS_5LevelENS_17ConfigurationTypeERKNSt7__cxx1112basic_stringIcSt11char_traitsIcESaIcEEE
etterminal:_ZN2el13ConfigurationC1ERKS0_
etterminal:_ZN2el13ConfigurationC2ENS_5LevelENS_17ConfigurationTypeERKNSt7__cxx1112basic_stringIcSt11char_traitsIcESaIcEEE
etterminal:_ZN2el13ConfigurationC2ERKS0_
etterminal:_ZN2el13ConfigurationaSERKS0_
etterminal:_ZN2el14Configurations11setFromBaseEPS0_
etterminal:_ZN2el14Configurations11setGloballyENS_17ConfigurationTypeERKNSt7__cxx1112basic_stringIcSt11char_traitsIcESaIcEEEb
etterminal:_ZN2el14Configurations12setToDefaultEv
etterminal:_ZN2el14Configurations13parseFromFileERKNSt7__cxx1112basic_stringIcSt11char_traitsIcESaIcEEEPS0_
etterminal:_ZN2el14Configurations13parseFromTextERKNSt7__cxx1112basic_stringIcSt11char_traitsIcESaIcEEEPS0_
etterminal:_ZN2el14Configurations16hasConfigurationENS_17ConfigurationTypeE
etterminal:_ZN2el14Configurations16hasConfigurationENS_5LevelENS_17ConfigurationTypeE
etterminal:_ZN2el14Configurations17unsafeSetGloballyENS_17ConfigurationTypeERKNSt7__cxx1112basic_stringIcSt11char_traitsIcESaIcEEEb
etterminal:_ZN2el14Configurations19unsafeSetIfNotExistENS_5LevelENS_17ConfigurationTypeERKNSt7__cxx1112basic_stringIcSt11char_traitsIcESaIcEEE
etterminal:_ZN2el14Configurations21setRemainingToDefaultEv
etterminal:_ZN2el14Configurations3setENS_5LevelENS_17ConfigurationTypeERKNSt7__cxx1112basic_stringIcSt11char_traitsIcESaIcEEE
etterminal:_ZN2el14Configurations3setEPNS_13ConfigurationE
etterminal:_ZN2el14Configurations6Parser13parseFromFileERKNSt7__cxx1112basic_stringIcSt11char_traitsIcESaIcEEEPS0_SA_
etterminal:_ZN2el14Configurations6Parser13parseFromTextERKNSt7__cxx1112basic_stringIcSt11char_traitsIcESaIcEEEPS0_SA_
etterminal:_ZN2el14Configurations6Parser14ignoreCommentsEPNSt7__cxx1112basic_stringIcSt11char_traitsIcESaIcEEE
etterminal:_ZN2el14Configurations6Parser7isLevelERKNSt7__cxx1112basic_stringIcSt11char_traitsIcESaIcEEE
etterminal:_ZN2el14Configurations6Parser9isCommentERKNSt7__cxx1112basic_stringIcSt11char_traitsIcESaIcEEE
etterminal:_ZN2el14Configurations6Parser9parseLineEPNSt7__cxx1112basic_stringIcSt11char_traitsIcESaIcEEES8_S8_PNS_5LevelEPS0_
etterminal:_ZN2el14Configurations9unsafeSetENS_5LevelENS_17ConfigurationTypeERKNSt7__cxx1112basic_stringIcSt11char_traitsIcESaIcEEE
etterminal:_ZN2el14ConfigurationsC1ERKNSt7__cxx1112basic_stringIcSt11char_traitsIcESaIcEEEbPS0_
etterminal:_ZN2el14ConfigurationsC1Ev
etterminal:_ZN2el14ConfigurationsC2ERKNSt7__cxx1112basic_stringIcSt11char_traitsIcESaIcEEEbPS0_
etterminal:_ZN2el14ConfigurationsC2Ev
etterminal:_ZN2el14elCrashHandlerE
etterminal:_ZN2el19LogDispatchCallback10fileHandleEPKNS_15LogDispatchDataE
etterminal:_ZN2el19LogDispatchCallback6handleEPKNS_15LogDispatchDataE
etterminal:_ZN2el23ConfigurationTypeHelper15convertToStringENS_17ConfigurationTypeE
etterminal:_ZN2el23ConfigurationTypeHelper17convertFromStringEPKc
etterminal:_ZN2el4base12PErrorWriterD0Ev
etterminal:_ZN2el4base12PErrorWriterD1Ev
etterminal:_ZN2el4base12PErrorWriterD2Ev
etterminal:_ZN2el4base13LogDispatcher8dispatchEv
etterminal:_ZN2el4base14MessageBuilder10initializeEPNS_6LoggerE
etterminal:_ZN2el4base14MessageBuilderlsEPKw
etterminal:_ZN2el4base17RegisteredLoggers14unsafeFlushAllEv
etterminal:_ZN2el4base17RegisteredLoggers3getERKNSt7__cxx1112basic_stringIcSt11char_traitsIcESaIcEEEb
etterminal:_ZN2el4base17RegisteredLoggers6removeERKNSt7__cxx1112basic_stringIcSt11char_traitsIcESaIcEEE
etterminal:_ZN2el4base17RegisteredLoggersC1ERKSt10shared_ptrINS_10LogBuilderEE
etterminal:_ZN2el4base17RegisteredLoggersC2ERKSt10shared_ptrINS_10LogBuilderEE
etterminal:_ZN2el4base18SubsecondPrecision4initEi
etterminal:_ZN2el4base19TypedConfigurations10fileStreamENS_5LevelE
etterminal:_ZN2el4base19TypedConfigurations10insertFileENS_5LevelERKNSt7__cxx1112basic_stringIcSt11char_traitsIcESaIcEEE
etterminal:_ZN2el4base19TypedConfigurations14maxLogFileSizeENS_5LevelE
etterminal:_ZN2el4base19TypedConfigurations15resolveFilenameERKNSt7__cxx1112basic_stringIcSt11char_traitsIcESaIcEEE
etterminal:_ZN2el4base19TypedConfigurations16toStandardOutputENS_5LevelE
etterminal:_ZN2el4base19TypedConfigurations17logFlushThresholdENS_5LevelE
etterminal:_ZN2el4base19TypedConfigurations17millisecondsWidthENS_5LevelE
etterminal:_ZN2el4base19TypedConfigurations18subsecondPrecisionENS_5LevelE
etterminal:_ZN2el4base19TypedConfigurations19performanceTrackingENS_5LevelE
etterminal:_ZN2el4base19TypedConfigurations25unsafeValidateFileRollingENS_5LevelERKSt8functionIFvPKcmEE
etterminal:_ZN2el4base19TypedConfigurations5buildEPNS_14ConfigurationsE
etterminal:_ZN2el4base19TypedConfigurations6toFileENS_5LevelE
etterminal:_ZN2el4base19TypedConfigurations7enabledENS_5LevelE
etterminal:_ZN2el4base19TypedConfigurations8filenameB5cxx11ENS_5LevelE
etterminal:_ZN2el4base19TypedConfigurations8getULongENSt7__cxx1112basic_stringIcSt11char_traitsIcESaIcEEE
etterminal:_ZN2el4base19TypedConfigurations9logFormatENS_5LevelE
etterminal:_ZN2el4base19TypedConfigurationsC1EPNS_14ConfigurationsESt10shared_ptrISt13unordered_mapINSt7__cxx1112basic_stringIcSt11char_traitsIcESaIcEEES4_ISt13basic_fstreamIcS9_EESt4hashISB_ESt8equal_toISB_ESaISt4pairIKSB_SE_EEEE
etterminal:_ZN2el4base19TypedConfigurationsC1ERKS1_
etterminal:_ZN2el4base19TypedConfigurationsC2EPNS_14ConfigurationsESt10shared_ptrISt13unordered_mapINSt7__cxx1112basic_stringIcSt11char_traitsIcESaIcEEES4_ISt13basic_fstreamIcS9_EESt4hashISB_ESt8equal_toISB_ESaISt4pairIKSB_SE_EEEE
etterminal:_ZN2el4base19TypedConfigurationsC2ERKS1_
etterminal:_ZN2el4base21RegisteredHitCounters14validateAfterNEPKcmm
etterminal:_ZN2el4base21RegisteredHitCounters14validateEveryNEPKcmm
etterminal:_ZN2el4base21RegisteredHitCounters14validateNTimesEPKcmm
etterminal:_ZN2el4base26DefaultLogDispatchCallback6handleEPKNS_15LogDispatchDataE
etterminal:_ZN2el4base26DefaultLogDispatchCallback8dispatchEONSt7__cxx1112basic_stringIcSt11char_traitsIcESaIcEEE
etterminal:_ZN2el4base5debug10StackTrace11generateNewEv
etterminal:_ZN2el4base5debug10StackTrace15StackTraceEntryC1EmRKNSt7__cxx1112basic_stringIcSt11char_traitsIcESaIcEEESB_SB_SB_
etterminal:_ZN2el4base5debug10StackTrace15StackTraceEntryC2EmRKNSt7__cxx1112basic_stringIcSt11char_traitsIcESaIcEEESB_SB_SB_
etterminal:_ZN2el4base5debug12CrashHandler10setHandlerERKPFviE
etterminal:_ZN2el4base5debug12CrashHandlerC1Eb
etterminal:_ZN2el4base5debug12CrashHandlerC2Eb
etterminal:_ZN2el4base5debuglsERSoRKNS1_10StackTrace15StackTraceEntryE
etterminal:_ZN2el4base5debuglsERSoRKNS1_10StackTraceE
etterminal:_ZN2el4base5utils15CommandLineArgs7setArgsEiPPc
etterminal:_ZN2el4base5utils2OS11currentHostB5cxx11Ev
etterminal:_ZN2el4base5utils2OS11currentUserB5cxx11Ev
etterminal:_ZN2el4base5utils2OS13getBashOutputB5cxx11EPKc
etterminal:_ZN2el4base5utils2OS17termSupportsColorEv
etterminal:_ZN2el4base5utils2OS22getEnvironmentVariableB5cxx11EPKcS4_S4_
etterminal:_ZN2el4base5utils3Str10replaceAllERNSt7__cxx1112basic_stringIcSt11char_traitsIcESaIcEEERKS8_SB_
etterminal:_ZN2el4base5utils3Str10replaceAllERNSt7__cxx1112basic_stringIcSt11char_traitsIcESaIcEEEcc
etterminal:_ZN2el4base5utils3Str10startsWithERKNSt7__cxx1112basic_stringIcSt11char_traitsIcESaIcEEESA_
etterminal:_ZN2el4base5utils3Str13cStringCaseEqEPKcS4_
etterminal:_ZN2el4base5utils3Str13wildCardMatchEPKcS4_
etterminal:_ZN2el4base5utils3Str17wcharPtrToCharPtrEPKw
etterminal:_ZN2el4base5utils3Str19convertAndAddToBuffEmiPcPKcb
etterminal:_ZN2el4base5utils3Str22replaceFirstWithEscapeERNSt7__cxx1112basic_stringIcSt11char_traitsIcESaIcEEERKS8_SB_
etterminal:_ZN2el4base5utils3Str4trimERNSt7__cxx1112basic_stringIcSt11char_traitsIcESaIcEEE
etterminal:_ZN2el4base5utils3Str5ltrimERNSt7__cxx1112basic_stringIcSt11char_traitsIcESaIcEEE
etterminal:_ZN2el4base5utils3Str5rtrimERNSt7__cxx1112basic_stringIcSt11char_traitsIcESaIcEEE
etterminal:_ZN2el4base5utils3Str7toUpperERNSt7__cxx1112basic_stringIcSt11char_traitsIcESaIcEEE
etterminal:_ZN2el4base5utils3Str8containsEPKcc
etterminal:_ZN2el4base5utils3Str8endsWithERKNSt7__cxx1112basic_stringIcSt11char_traitsIcESaIcEEESA_
etterminal:_ZN2el4base5utils3Str9addToBuffEPKcPcS4_
etterminal:_ZN2el4base5utils3Str9cStringEqEPKcS4_
etterminal:_ZN2el4base5utils3Str9clearBuffEPcm
etterminal:_ZN2el4base5utils4File10createPathERKNSt7__cxx1112basic_stringIcSt11char_traitsIcESaIcEEE
etterminal:_ZN2el4base5utils4File10pathExistsEPKcb
etterminal:_ZN2el4base5utils4File13getSizeOfFileEPSt13basic_fstreamIcSt11char_traitsIcEE
etterminal:_ZN2el4base5utils4File13newFileStreamERKNSt7__cxx1112basic_stringIcSt11char_traitsIcESaIcEEE
etterminal:_ZN2el4base5utils4File17buildBaseFilenameERKNSt7__cxx1112basic_stringIcSt11char_traitsIcESaIcEEEPcmPKc
etterminal:_ZN2el4base5utils4File21buildStrippedFilenameEPKcPcm
etterminal:_ZN2el4base5utils4File23extractPathFromFilenameERKNSt7__cxx1112basic_stringIcSt11char_traitsIcESaIcEEEPKc
etterminal:_ZN2el4base5utils8DateTime10formatTimeB5cxx11EyNS0_13TimestampUnitE
etterminal:_ZN2el4base5utils8DateTime11getDateTimeB5cxx11EPKcPKNS0_18SubsecondPrecisionE
etterminal:_ZN2el4base5utils8DateTime11parseFormatEPcmPKcPK2tmmPKNS0_18SubsecondPrecisionE
etterminal:_ZN2el4base5utils8DateTime12gettimeofdayEP7timeval
etterminal:_ZN2el4base5utils8DateTime13buildTimeInfoEP7timevalP2tm
etterminal:_ZN2el4base5utils8DateTime15timevalToStringB5cxx11E7timevalPKcPKNS0_18SubsecondPrecisionE
etterminal:_ZN2el4base5utils8DateTime17getTimeDifferenceERK7timevalS5_NS0_13TimestampUnitE
etterminal:_ZN2el4base5utilslsERSoRKNS1_15CommandLineArgsE
etterminal:_ZN2el4base6Writer15processDispatchEv
etterminal:_ZN2el4base6Writer15triggerDispatchEv
etterminal:_ZN2el4base6Writer16initializeLoggerERKNSt7__cxx1112basic_stringIcSt11char_traitsIcESaIcEEEbb
etterminal:_ZN2el4base6Writer9constructEPNS_6LoggerEb
etterminal:_ZN2el4base6Writer9constructEiPKcz
etterminal:_ZN2el4base7Storage23setApplicationArgumentsEiPPc
etterminal:_ZN2el4base7Storage24hasCustomFormatSpecifierEPKc
etterminal:_ZN2el4base7Storage28installCustomFormatSpecifierERKNS_21CustomFormatSpecifierE
etterminal:_ZN2el4base7Storage30uninstallCustomFormatSpecifierEPKc
etterminal:_ZN2el4base7StorageC1ERKSt10shared_ptrINS_10LogBuilderEE
etterminal:_ZN2el4base7StorageC2ERKSt10shared_ptrINS_10LogBuilderEE
etterminal:_ZN2el4base7StorageD0Ev
etterminal:_ZN2el4base7StorageD1Ev
etterminal:_ZN2el4base7StorageD2Ev
etterminal:_ZN2el4base9LogFormat15parseFromFormatERKNSt7__cxx1112basic_stringIcSt11char_traitsIcESaIcEEE
etterminal:_ZN2el4base9LogFormat16updateDateFormatEmRNSt7__cxx1112basic_stringIcSt11char_traitsIcESaIcEEE
etterminal:_ZN2el4base9LogFormat16updateFormatSpecEv
etterminal:_ZN2el4base9LogFormatC1ENS_5LevelERKNSt7__cxx1112basic_stringIcSt11char_traitsIcESaIcEEE
etterminal:_ZN2el4base9LogFormatC1EOS1_
etterminal:_ZN2el4base9LogFormatC1ERKS1_
etterminal:_ZN2el4base9LogFormatC1Ev
etterminal:_ZN2el4base9LogFormatC2ENS_5LevelERKNSt7__cxx1112basic_stringIcSt11char_traitsIcESaIcEEE
etterminal:_ZN2el4base9LogFormatC2EOS1_
etterminal:_ZN2el4base9LogFormatC2ERKS1_
etterminal:_ZN2el4base9LogFormatC2Ev
etterminal:_ZN2el4base9LogFormataSERKS1_
etterminal:_ZN2el4base9LogFormateqERKS1_
etterminal:_ZN2el4base9VRegistry10setModulesEPKc
etterminal:_ZN2el4base9VRegistry11setFromArgsEPKNS0_5utils15CommandLineArgsE
etterminal:_ZN2el4base9VRegistry7allowedEtPKc
etterminal:_ZN2el4base9VRegistry8setLevelEt
etterminal:_ZN2el4base9VRegistryC1EtPj
etterminal:_ZN2el4base9VRegistryC2EtPj
etterminal:_ZN2el4base9elStorageE
etterminal:_ZN2el6Logger11reconfigureEv
etterminal:_ZN2el6Logger18initUnflushedCountEv
etterminal:_ZN2el6Logger5flushENS_5LevelEPSt13basic_fstreamIcSt11char_traitsIcEE
etterminal:_ZN2el6Logger5flushEv
etterminal:_ZN2el6Logger9configureERKNS_14ConfigurationsE
etterminal:_ZN2el6Logger9isValidIdERKNSt7__cxx1112basic_stringIcSt11char_traitsIcESaIcEEE
etterminal:_ZN2el6LoggerC1ERKNSt7__cxx1112basic_stringIcSt11char_traitsIcESaIcEEERKNS_14ConfigurationsESt10shared_ptrISt13unordered_mapIS6_SC_ISt13basic_fstreamIcS4_EESt4hashIS6_ESt8equal_toIS6_ESaISt4pairIS7_SG_EEEE
etterminal:_ZN2el6LoggerC1ERKNSt7__cxx1112basic_stringIcSt11char_traitsIcESaIcEEESt10shared_ptrISt13unordered_mapIS6_S9_ISt13basic_fstreamIcS4_EESt4hashIS6_ESt8equal_toIS6_ESaISt4pairIS7_SD_EEEE
etterminal:_ZN2el6LoggerC1ERKS0_
etterminal:_ZN2el6LoggerC2ERKNSt7__cxx1112basic_stringIcSt11char_traitsIcESaIcEEERKNS_14ConfigurationsESt10shared_ptrISt13unordered_mapIS6_SC_ISt13basic_fstreamIcS4_EESt4hashIS6_ESt8equal_toIS6_ESaISt4pairIS7_SG_EEEE
etterminal:_ZN2el6LoggerC2ERKNSt7__cxx1112basic_stringIcSt11char_traitsIcESaIcEEESt10shared_ptrISt13unordered_mapIS6_S9_ISt13basic_fstreamIcS4_EESt4hashIS6_ESt8equal_toIS6_ESaISt4pairIS7_SD_EEEE
etterminal:_ZN2el6LoggerC2ERKS0_
etterminal:_ZN2el6LoggeraSERKS0_
etterminal:_ZN2el7Helpers10crashAbortEiPKcm
etterminal:_ZN2el7Helpers14logCrashReasonEibNS_5LevelEPKc
etterminal:_ZN2el7Loggers11setVModulesEPKc
etterminal:_ZN2el7Loggers12verboseLevelEv
etterminal:_ZN2el7Loggers13clearVModulesEv
etterminal:_ZN2el7Loggers15setVerboseLevelEt
etterminal:_ZN2el7Loggers16configureFromArgEPKc
etterminal:_ZN2el7Loggers16unregisterLoggerERKNSt7__cxx1112basic_stringIcSt11char_traitsIcESaIcEEE
etterminal:_ZN2el7Loggers17reconfigureLoggerEPNS_6LoggerERKNS_14ConfigurationsE
etterminal:_ZN2el7Loggers17reconfigureLoggerERKNSt7__cxx1112basic_stringIcSt11char_traitsIcESaIcEEENS_17ConfigurationTypeES8_
etterminal:_ZN2el7Loggers17reconfigureLoggerERKNSt7__cxx1112basic_stringIcSt11char_traitsIcESaIcEEERKNS_14ConfigurationsE
etterminal:_ZN2el7Loggers19configureFromGlobalEPKc
etterminal:_ZN2el7Loggers19logStreamsReferenceB5cxx11Ev
etterminal:_ZN2el7Loggers20populateAllLoggerIdsEPSt6vectorINSt7__cxx1112basic_stringIcSt11char_traitsIcESaIcEEESaIS7_EE
etterminal:_ZN2el7Loggers20setDefaultLogBuilderERSt10shared_ptrINS_10LogBuilderEE
etterminal:_ZN2el7Loggers21defaultConfigurationsEv
etterminal:_ZN2el7Loggers21reconfigureAllLoggersENS_5LevelENS_17ConfigurationTypeERKNSt7__cxx1112basic_stringIcSt11char_traitsIcESaIcEEE
etterminal:_ZN2el7Loggers21reconfigureAllLoggersERKNS_14ConfigurationsE
etterminal:_ZN2el7Loggers24setDefaultConfigurationsERKNS_14ConfigurationsEb
etterminal:_ZN2el7Loggers26defaultTypedConfigurationsEv
etterminal:_ZN2el7Loggers8flushAllEv
etterminal:_ZN2el7Loggers9getLoggerERKNSt7__cxx1112basic_stringIcSt11char_traitsIcESaIcEEEb
etterminal:_ZN2el7Loggers9hasLoggerERKNSt7__cxx1112basic_stringIcSt11char_traitsIcESaIcEEE
etterminal:_ZN2et10Connection10readPacketEPNS_6PacketE
etterminal:_ZN2et10Connection11closeSocketEv
etterminal:_ZN2et10Connection11writePacketERKNS_6PacketE
etterminal:_ZN2et10Connection4readEPNS_6PacketE
etterminal:_ZN2et10Connection5writeERKNS_6PacketE
etterminal:_ZN2et10Connection7recoverEi
etterminal:_ZN2et10Connection8shutdownEv
etterminal:_ZN2et10ConnectionC1ESt10shared_ptrINS_13SocketHandlerEERKNSt7__cxx1112basic_stringIcSt11char_traitsIcESaIcEEESB_
etterminal:_ZN2et10ConnectionC2ESt10shared_ptrINS_13SocketHandlerEERKNSt7__cxx1112basic_stringIcSt11char_traitsIcESaIcEEESB_
etterminal:_ZN2et10ConnectionD0Ev
etterminal:_ZN2et10ConnectionD1Ev
etterminal:_ZN2et10ConnectionD2Ev
etterminal:_ZN2et10LogHandler12setupLogFileEPN2el14ConfigurationsENSt7__cxx1112basic_stringIcSt11char_traitsIcESaIcEEES9_
etterminal:_ZN2et10LogHandler12stderrToFileERKNSt7__cxx1112basic_stringIcSt11char_traitsIcESaIcEEE
etterminal:_ZN2et10LogHandler14rolloutHandlerEPKcm
etterminal:_ZN2et10LogHandler15setupLogHandlerEPiPPPc
etterminal:_ZN2et10LogHandler17setupStdoutLoggerEv
etterminal:_ZN2et12BackedReader23constructPartialMessageEPNS_6PacketE
etterminal:_ZN2et12BackedReader23getPartialMessageLengthEv
etterminal:_ZN2et12BackedReader4readEPNS_6PacketE
etterminal:_ZN2et12BackedReader6reviveEiRKSt6vectorINSt7__cxx1112basic_stringIcSt11char_traitsIcESaIcEEESaIS7_EE
etterminal:_ZN2et12BackedReader7hasDataEv
etterminal:_ZN2et12BackedReaderC1ESt10shared_ptrINS_13SocketHandlerEES1_INS_13CryptoHandlerEEi
etterminal:_ZN2et12BackedReaderC2ESt10shared_ptrINS_13SocketHandlerEES1_INS_13CryptoHandlerEEi
etterminal:_ZN2et12BackedWriter5writeENS_6PacketE
etterminal:_ZN2et12BackedWriter6reviveEi
etterminal:_ZN2et12BackedWriter7recoverB5cxx11El
etterminal:_ZN2et12BackedWriterC1ESt10shared_ptrINS_13SocketHandlerEES1_INS_13CryptoHandlerEEi
etterminal:_ZN2et12BackedWriterC2ESt10shared_ptrINS_13SocketHandlerEES1_INS_13CryptoHandlerEEi
etterminal:_ZN2et12ConfigParams12InternalSwapEPS0_
etterminal:_ZN2et12ConfigParams14_InternalParseEPKcPN6google8protobuf8internal12ParseContextE
etterminal:_ZN2et12ConfigParams21CheckTypeAndMergeFromERKN6google8protobuf11MessageLiteE
etterminal:_ZN2et12ConfigParams5ClearEv
etterminal:_ZN2et12ConfigParams8CopyFromERKS0_
etterminal:_ZN2et12ConfigParams9MergeFromERKS0_
etterminal:_ZN2et12ConfigParamsC1EPN6google8protobuf5ArenaEb
etterminal:_ZN2et12ConfigParamsC1ERKS0_
etterminal:_ZN2et12ConfigParamsC2EPN6google8protobuf5ArenaEb
etterminal:_ZN2et12ConfigParamsC2ERKS0_
etterminal:_ZN2et12ConfigParamsD0Ev
etterminal:_ZN2et12ConfigParamsD1Ev
etterminal:_ZN2et12ConfigParamsD2Ev
etterminal:_ZN2et12TerminalInfo12InternalSwapEPS0_
etterminal:_ZN2et12TerminalInfo14_InternalParseEPKcPN6google8protobuf8internal12ParseContextE
etterminal:_ZN2et12TerminalInfo21CheckTypeAndMergeFromERKN6google8protobuf11MessageLiteE
etterminal:_ZN2et12TerminalInfo5ClearEv
etterminal:_ZN2et12TerminalInfo8CopyFromERKS0_
etterminal:_ZN2et12TerminalInfo9MergeFromERKS0_
etterminal:_ZN2et12TerminalInfoC1EPN6google8protobuf5ArenaEb
etterminal:_ZN2et12TerminalInfoC1ERKS0_
etterminal:_ZN2et12TerminalInfoC2EPN6google8protobuf5ArenaEb
etterminal:_ZN2et12TerminalInfoC2ERKS0_
etterminal:_ZN2et12TerminalInfoD0Ev
etterminal:_ZN2et12TerminalInfoD1Ev
etterminal:_ZN2et12TerminalInfoD2Ev
etterminal:_ZN2et13CatchupBuffer12InternalSwapEPS0_
etterminal:_ZN2et13CatchupBuffer14_InternalParseEPKcPN6google8protobuf8internal12ParseContextE
etterminal:_ZN2et13CatchupBuffer21CheckTypeAndMergeFromERKN6google8protobuf11MessageLiteE
etterminal:_ZN2et13CatchupBuffer5ClearEv
etterminal:_ZN2et13CatchupBuffer8CopyFromERKS0_
etterminal:_ZN2et13CatchupBuffer9MergeFromERKS0_
etterminal:_ZN2et13CatchupBufferC1EPN6google8protobuf5ArenaEb
etterminal:_ZN2et13CatchupBufferC1ERKS0_
etterminal:_ZN2et13CatchupBufferC2EPN6google8protobuf5ArenaEb
etterminal:_ZN2et13CatchupBufferC2ERKS0_
etterminal:_ZN2et13CatchupBufferD0Ev
etterminal:_ZN2et13CatchupBufferD1Ev
etterminal:_ZN2et13CatchupBufferD2Ev
etterminal:_ZN2et13CryptoHandler14incrementNonceEv
etterminal:_ZN2et13CryptoHandler7decryptERKNSt7__cxx1112basic_stringIcSt11char_traitsIcESaIcEEE
etterminal:_ZN2et13CryptoHandler7encryptERKNSt7__cxx1112basic_stringIcSt11char_traitsIcESaIcEEE
etterminal:_ZN2et13CryptoHandlerC1ERKNSt7__cxx1112basic_stringIcSt11char_traitsIcESaIcEEEh
etterminal:_ZN2et13CryptoHandlerC2ERKNSt7__cxx1112basic_stringIcSt11char_traitsIcESaIcEEEh
etterminal:_ZN2et13CryptoHandlerD1Ev
etterminal:_ZN2et13CryptoHandlerD2Ev
etterminal:_ZN2et13DaemonCreator19createSessionLeaderEv
etterminal:_ZN2et13DaemonCreator6createEbNSt7__cxx1112basic_stringIcSt11char_traitsIcESaIcEEE
etterminal:_ZN2et13SocketHandler15writeAllOrThrowEiPKvmb
etterminal:_ZN2et13SocketHandler16writeAllOrReturnEiPKvm
etterminal:_ZN2et13SocketHandler20readB64EncodedLengthEiPNSt7__cxx1112basic_stringIcSt11char_traitsIcESaIcEEEm
etterminal:_ZN2et13SocketHandler7readAllEiPvmb
etterminal:_ZN2et13SocketHandler7readB64EiPcm
etterminal:_ZN2et13SocketHandler8writeB64EiPKcm
etterminal:_ZN2et14ConnectRequest12InternalSwapEPS0_
etterminal:_ZN2et14ConnectRequest14_InternalParseEPKcPN6google8protobuf8internal12ParseContextE
etterminal:_ZN2et14ConnectRequest21CheckTypeAndMergeFromERKN6google8protobuf11MessageLiteE
etterminal:_ZN2et14ConnectRequest5ClearEv
etterminal:_ZN2et14ConnectRequest8CopyFromERKS0_
etterminal:_ZN2et14ConnectRequest9MergeFromERKS0_
etterminal:_ZN2et14ConnectRequestC1EPN6google8protobuf5ArenaEb
etterminal:_ZN2et14ConnectRequestC1ERKS0_
etterminal:_ZN2et14ConnectRequestC2EPN6google8protobuf5ArenaEb
etterminal:_ZN2et14ConnectRequestC2ERKS0_
etterminal:_ZN2et14ConnectRequestD0Ev
etterminal:_ZN2et14ConnectRequestD1Ev
etterminal:_ZN2et14ConnectRequestD2Ev
etterminal:_ZN2et14InitialPayload12InternalSwapEPS0_
etterminal:_ZN2et14InitialPayload14_InternalParseEPKcPN6google8protobuf8internal12ParseContextE
etterminal:_ZN2et14InitialPayload21CheckTypeAndMergeFromERKN6google8protobuf11MessageLiteE
etterminal:_ZN2et14InitialPayload5ClearEv
etterminal:_ZN2et14InitialPayload8CopyFromERKS0_
etterminal:_ZN2et14InitialPayload9MergeFromERKS0_
etterminal:_ZN2et14InitialPayloadC1EPN6google8protobuf5ArenaEb
etterminal:_ZN2et14InitialPayloadC1ERKS0_
etterminal:_ZN2et14InitialPayloadC2EPN6google8protobuf5ArenaEb
etterminal:_ZN2et14InitialPayloadC2ERKS0_
etterminal:_ZN2et14InitialPayloadD0Ev
etterminal:_ZN2et14InitialPayloadD1Ev
etterminal:_ZN2et14InitialPayloadD2Ev
etterminal:_ZN2et14RawSocketUtils7readAllEiPcm
etterminal:_ZN2et14RawSocketUtils8writeAllEiPKcm
etterminal:_ZN2et14SequenceHeader12InternalSwapEPS0_
etterminal:_ZN2et14SequenceHeader14_InternalParseEPKcPN6google8protobuf8internal12ParseContextE
etterminal:_ZN2et14SequenceHeader21CheckTypeAndMergeFromERKN6google8protobuf11MessageLiteE
etterminal:_ZN2et14SequenceHeader5ClearEv
etterminal:_ZN2et14SequenceHeader8CopyFromERKS0_
etterminal:_ZN2et14SequenceHeader9MergeFromERKS0_
etterminal:_ZN2et14SequenceHeaderC1EPN6google8protobuf5ArenaEb
etterminal:_ZN2et14SequenceHeaderC1ERKS0_
etterminal:_ZN2et14SequenceHeaderC2EPN6google8protobuf5ArenaEb
etterminal:_ZN2et14SequenceHeaderC2ERKS0_
etterminal:_ZN2et14SequenceHeaderD0Ev
etterminal:_ZN2et14SequenceHeaderD1Ev
etterminal:_ZN2et14SequenceHeaderD2Ev
etterminal:_ZN2et14ServerFifoPath15setPathOverrideENSt7__cxx1112basic_stringIcSt11char_traitsIcESaIcEEE
etterminal:_ZN2et14ServerFifoPath16detectAndConnectESt8optionalINS_14SocketEndpointEERKSt10shared_ptrINS_13SocketHandlerEE
etterminal:_ZN2et14ServerFifoPath18getPathForCreationB5cxx11Ev
etterminal:_ZN2et14ServerFifoPath21getEndpointForConnectEv
etterminal:_ZN2et14ServerFifoPath27createDirectoriesIfRequiredEv
etterminal:_ZN2et14ServerFifoPathC1Ev
etterminal:_ZN2et14ServerFifoPathC2Ev
etterminal:_ZN2et14SocketEndpoint12InternalSwapEPS0_
etterminal:_ZN2et14SocketEndpoint14_InternalParseEPKcPN6google8protobuf8internal12ParseContextE
etterminal:_ZN2et14SocketEndpoint21CheckTypeAndMergeFromERKN6google8protobuf11MessageLiteE
etterminal:_ZN2et14SocketEndpoint5ClearEv
etterminal:_ZN2et14SocketEndpoint8CopyFromERKS0_
etterminal:_ZN2et14SocketEndpoint9MergeFromERKS0_
etterminal:_ZN2et14SocketEndpointC1EPN6google8protobuf5ArenaEb
etterminal:_ZN2et14SocketEndpointC1ERKS0_
etterminal:_ZN2et14SocketEndpointC2EPN6google8protobuf5ArenaEb
etterminal:_ZN2et14SocketEndpointC2ERKS0_
etterminal:_ZN2et14SocketEndpointD0Ev
etterminal:_ZN2et14SocketEndpointD1Ev
etterminal:_ZN2et14SocketEndpointD2Ev
etterminal:_ZN2et14TerminalBuffer12InternalSwapEPS0_
etterminal:_ZN2et14TerminalBuffer14_InternalParseEPKcPN6google8protobuf8internal12ParseContextE
etterminal:_ZN2et14TerminalBuffer21CheckTypeAndMergeFromERKN6google8protobuf11MessageLiteE
etterminal:_ZN2et14TerminalBuffer5ClearEv
etterminal:_ZN2et14TerminalBuffer8CopyFromERKS0_
etterminal:_ZN2et14TerminalBuffer9MergeFromERKS0_
etterminal:_ZN2et14TerminalBufferC1EPN6google8protobuf5ArenaEb
etterminal:_ZN2et14TerminalBufferC1ERKS0_
etterminal:_ZN2et14TerminalBufferC2EPN6google8protobuf5ArenaEb
etterminal:_ZN2et14TerminalBufferC2ERKS0_
etterminal:_ZN2et14TerminalBufferD0Ev
etterminal:_ZN2et14TerminalBufferD1Ev
etterminal:_ZN2et14TerminalBufferD2Ev
etterminal:_ZN2et15ConnectResponse12InternalSwapEPS0_
etterminal:_ZN2et15ConnectResponse14_InternalParseEPKcPN6google8protobuf8internal12ParseContextE
etterminal:_ZN2et15ConnectResponse21CheckTypeAndMergeFromERKN6google8protobuf11MessageLiteE
etterminal:_ZN2et15ConnectResponse5ClearEv
etterminal:_ZN2et15ConnectResponse8CopyFromERKS0_
etterminal:_ZN2et15ConnectResponse9MergeFromERKS0_
etterminal:_ZN2et15ConnectResponseC1EPN6google8protobuf5ArenaEb
etterminal:_ZN2et15ConnectResponseC1ERKS0_
etterminal:_ZN2et15ConnectResponseC2EPN6google8protobuf5ArenaEb
etterminal:_ZN2et15ConnectResponseC2ERKS0_
etterminal:_ZN2et15ConnectResponseD0Ev
etterminal:_ZN2et15ConnectResponseD1Ev
etterminal:_ZN2et15ConnectResponseD2Ev
etterminal:_ZN2et15InitialResponse12InternalSwapEPS0_
etterminal:_ZN2et15InitialResponse14_InternalParseEPKcPN6google8protobuf8internal12ParseContextE
etterminal:_ZN2et15InitialResponse21CheckTypeAndMergeFromERKN6google8protobuf11MessageLiteE
etterminal:_ZN2et15InitialResponse5ClearEv
etterminal:_ZN2et15InitialResponse8CopyFromERKS0_
etterminal:_ZN2et15InitialResponse9MergeFromERKS0_
etterminal:_ZN2et15InitialResponseC1EPN6google8protobuf5ArenaEb
etterminal:_ZN2et15InitialResponseC1ERKS0_
etterminal:_ZN2et15InitialResponseC2EPN6google8protobuf5ArenaEb
etterminal:_ZN2et15InitialResponseC2ERKS0_
etterminal:_ZN2et15InitialResponseD0Ev
etterminal:_ZN2et15InitialResponseD1Ev
etterminal:_ZN2et15InitialResponseD2Ev
etterminal:_ZN2et15PortForwardData12InternalSwapEPS0_
etterminal:_ZN2et15PortForwardData14_InternalParseEPKcPN6google8protobuf8internal12ParseContextE
etterminal:_ZN2et15PortForwardData21CheckTypeAndMergeFromERKN6google8protobuf11MessageLiteE
etterminal:_ZN2et15PortForwardData5ClearEv
etterminal:_ZN2et15PortForwardData8CopyFromERKS0_
etterminal:_ZN2et15PortForwardData9MergeFromERKS0_
etterminal:_ZN2et15PortForwardDataC1EPN6google8protobuf5ArenaEb
etterminal:_ZN2et15PortForwardDataC1ERKS0_
etterminal:_ZN2et15PortForwardDataC2EPN6google8protobuf5ArenaEb
etterminal:_ZN2et15PortForwardDataC2ERKS0_
etterminal:_ZN2et15PortForwardDataD0Ev
etterminal:_ZN2et15PortForwardDataD1Ev
etterminal:_ZN2et15PortForwardDataD2Ev
etterminal:_ZN2et16ClientConnection13pollReconnectEv
etterminal:_ZN2et16ClientConnection13waitReconnectEv
etterminal:_ZN2et16ClientConnection28closeSocketAndMaybeReconnectEv
etterminal:_ZN2et16ClientConnection7connectEv
etterminal:_ZN2et16ClientConnectionC1ESt10shared_ptrINS_13SocketHandlerEERKNS_14SocketEndpointERKNSt7__cxx1112basic_stringIcSt11char_traitsIcESaIcEEESE_
etterminal:_ZN2et16ClientConnectionC2ESt10shared_ptrINS_13SocketHandlerEERKNS_14SocketEndpointERKNSt7__cxx1112basic_stringIcSt11char_traitsIcESaIcEEESE_
etterminal:_ZN2et16ClientConnectionD0Ev
etterminal:_ZN2et16ClientConnectionD1Ev
etterminal:_ZN2et16ClientConnectionD2Ev
etterminal:_ZN2et16TcpSocketHandler10initSocketEi
etterminal:_ZN2et16TcpSocketHandler13stopListeningERKNS_14SocketEndpointE
etterminal:_ZN2et16TcpSocketHandler14getEndpointFdsERKNS_14SocketEndpointE
etterminal:_ZN2et16TcpSocketHandler6listenERKNS_14SocketEndpointE
etterminal:_ZN2et16TcpSocketHandler7connectERKNS_14SocketEndpointE
etterminal:_ZN2et16TcpSocketHandlerC1Ev
etterminal:_ZN2et16TcpSocketHandlerC2Ev
etterminal:_ZN2et16TerminalUserInfo12InternalSwapEPS0_
etterminal:_ZN2et16TerminalUserInfo14_InternalParseEPKcPN6google8protobuf8internal12ParseContextE
etterminal:_ZN2et16TerminalUserInfo21CheckTypeAndMergeFromERKN6google8protobuf11MessageLiteE
etterminal:_ZN2et16TerminalUserInfo5ClearEv
etterminal:_ZN2et16TerminalUserInfo8CopyFromERKS0_
etterminal:_ZN2et16TerminalUserInfo9MergeFromERKS0_
etterminal:_ZN2et16TerminalUserInfoC1EPN6google8protobuf5ArenaEb
etterminal:_ZN2et16TerminalUserInfoC1ERKS0_
etterminal:_ZN2et16TerminalUserInfoC2EPN6google8protobuf5ArenaEb
etterminal:_ZN2et16TerminalUserInfoC2ERKS0_
etterminal:_ZN2et16TerminalUserInfoD0Ev
etterminal:_ZN2et16TerminalUserInfoD1Ev
etterminal:_ZN2et16TerminalUserInfoD2Ev
etterminal:_ZN2et17EtPacketType_NameB5cxx11ENS_12EtPacketTypeE
etterminal:_ZN2et17PipeSocketHandler13stopListeningERKNS_14SocketEndpointE
etterminal:_ZN2et17PipeSocketHandler14getEndpointFdsERKNS_14SocketEndpointE
etterminal:_ZN2et17PipeSocketHandler6listenERKNS_14SocketEndpointE
etterminal:_ZN2et17PipeSocketHandler7connectERKNS_14SocketEndpointE
etterminal:_ZN2et17PipeSocketHandlerC1Ev
etterminal:_ZN2et17PipeSocketHandlerC2Ev
etterminal:_ZN2et17UnixSocketHandler10initSocketEi
etterminal:_ZN2et17UnixSocketHandler11setBlockingEib
etterminal:_ZN2et17UnixSocketHandler11waitForDataEill
etterminal:_ZN2et17UnixSocketHandler16getActiveSocketsEv
etterminal:_ZN2et17UnixSocketHandler16initServerSocketEi
etterminal:_ZN2et17UnixSocketHandler18addToActiveSocketsEi
etterminal:_ZN2et17UnixSocketHandler4readEiPvm
etterminal:_ZN2et17UnixSocketHandler5closeEi
etterminal:_ZN2et17UnixSocketHandler5writeEiPKvm
etterminal:_ZN2et17UnixSocketHandler6acceptEi
etterminal:_ZN2et17UnixSocketHandler7hasDataEi
etterminal:_ZN2et17UnixSocketHandlerC1Ev
etterminal:_ZN2et17UnixSocketHandlerC2Ev
etterminal:_ZN2et18ConnectStatus_NameB5cxx11ENS_13ConnectStatusE
etterminal:_ZN2et18EtPacketType_ParseERKNSt7__cxx1112basic_stringIcSt11char_traitsIcESaIcEEEPNS_12EtPacketTypeE
etterminal:_ZN2et19ConnectStatus_ParseERKNSt7__cxx1112basic_stringIcSt11char_traitsIcESaIcEEEPNS_13ConnectStatusE
etterminal:_ZN2et19UserJumphostHandler3runEv
etterminal:_ZN2et19UserJumphostHandlerC1ESt10shared_ptrINS_13SocketHandlerEERKNSt7__cxx1112basic_stringIcSt11char_traitsIcESaIcEEERKNS_14SocketEndpointES3_St8optionalISC_E
etterminal:_ZN2et19UserJumphostHandlerC2ESt10shared_ptrINS_13SocketHandlerEERKNSt7__cxx1112basic_stringIcSt11char_traitsIcESaIcEEERKNS_14SocketEndpointES3_St8optionalISC_E
etterminal:_ZN2et19UserTerminalHandler15runUserTerminalEi
etterminal:_ZN2et19UserTerminalHandler3runEv
etterminal:_ZN2et19UserTerminalHandlerC1ESt10shared_ptrINS_13SocketHandlerEES1_INS_12UserTerminalEEbSt8optionalINS_14SocketEndpointEERKNSt7__cxx1112basic_stringIcSt11char_traitsIcESaIcEEE
etterminal:_ZN2et19UserTerminalHandlerC2ESt10shared_ptrINS_13SocketHandlerEES1_INS_12UserTerminalEEbSt8optionalINS_14SocketEndpointEERKNSt7__cxx1112basic_stringIcSt11char_traitsIcESaIcEEE
etterminal:_ZN2et20EtPacketType_IsValidEi
etterminal:_ZN2et21ConnectStatus_IsValidEi
etterminal:_ZN2et21reportConnectionErrorEv
etterminal:_ZN2et23TerminalPacketType_NameB5cxx11ENS_18TerminalPacketTypeE
etterminal:_ZN2et24PortForwardSourceRequest12InternalSwapEPS0_
etterminal:_ZN2et24PortForwardSourceRequest12clear_sourceEv
etterminal:_ZN2et24PortForwardSourceRequest14_InternalParseEPKcPN6google8protobuf8internal12ParseContextE
etterminal:_ZN2et24PortForwardSourceRequest17clear_destinationEv
etterminal:_ZN2et24PortForwardSourceRequest21CheckTypeAndMergeFromERKN6google8protobuf11MessageLiteE
etterminal:_ZN2et24PortForwardSourceRequest5ClearEv
etterminal:_ZN2et24PortForwardSourceRequest8CopyFromERKS0_
etterminal:_ZN2et24PortForwardSourceRequest9MergeFromERKS0_
etterminal:_ZN2et24PortForwardSourceRequest9_Internal11destinationEPKS0_
etterminal:_ZN2et24PortForwardSourceRequest9_Internal6sourceEPKS0_
etterminal:_ZN2et24PortForwardSourceRequestC1EPN6google8protobuf5ArenaEb
etterminal:_ZN2et24PortForwardSourceRequestC1ERKS0_
etterminal:_ZN2et24PortForwardSourceRequestC2EPN6google8protobuf5ArenaEb
etterminal:_ZN2et24PortForwardSourceRequestC2ERKS0_
etterminal:_ZN2et24PortForwardSourceRequestD0Ev
etterminal:_ZN2et24PortForwardSourceRequestD1Ev
etterminal:_ZN2et24PortForwardSourceRequestD2Ev
etterminal:_ZN2et24TerminalPacketType_ParseERKNSt7__cxx1112basic_stringIcSt11char_traitsIcESaIcEEEPNS_18TerminalPacketTypeE
etterminal:_ZN2et25PortForwardSourceResponse12InternalSwapEPS0_
etterminal:_ZN2et25PortForwardSourceResponse14_InternalParseEPKcPN6google8protobuf8internal12ParseContextE
etterminal:_ZN2et25PortForwardSourceResponse21CheckTypeAndMergeFromERKN6google8protobuf11MessageLiteE
etterminal:_ZN2et25PortForwardSourceResponse5ClearEv
etterminal:_ZN2et25PortForwardSourceResponse8CopyFromERKS0_
etterminal:_ZN2et25PortForwardSourceResponse9MergeFromERKS0_
etterminal:_ZN2et25PortForwardSourceResponseC1EPN6google8protobuf5ArenaEb
etterminal:_ZN2et25PortForwardSourceResponseC1ERKS0_
etterminal:_ZN2et25PortForwardSourceResponseC2EPN6google8protobuf5ArenaEb
etterminal:_ZN2et25PortForwardSourceResponseC2ERKS0_
etterminal:_ZN2et25PortForwardSourceResponseD0Ev
etterminal:_ZN2et25PortForwardSourceResponseD1Ev
etterminal:_ZN2et25PortForwardSourceResponseD2Ev
etterminal:_ZN2et26TerminalPacketType_IsValidEi
etterminal:_ZN2et27_TermInit_default_instance_E
etterminal:_ZN2et29PortForwardDestinationRequest12InternalSwapEPS0_
etterminal:_ZN2et29PortForwardDestinationRequest14_InternalParseEPKcPN6google8protobuf8internal12ParseContextE
etterminal:_ZN2et29PortForwardDestinationRequest17clear_destinationEv
etterminal:_ZN2et29PortForwardDestinationRequest21CheckTypeAndMergeFromERKN6google8protobuf11MessageLiteE
etterminal:_ZN2et29PortForwardDestinationRequest5ClearEv
etterminal:_ZN2et29PortForwardDestinationRequest8CopyFromERKS0_
etterminal:_ZN2et29PortForwardDestinationRequest9MergeFromERKS0_
etterminal:_ZN2et29PortForwardDestinationRequest9_Internal11destinationEPKS0_
etterminal:_ZN2et29PortForwardDestinationRequestC1EPN6google8protobuf5ArenaEb
etterminal:_ZN2et29PortForwardDestinationRequestC1ERKS0_
etterminal:_ZN2et29PortForwardDestinationRequestC2EPN6google8protobuf5ArenaEb
etterminal:_ZN2et29PortForwardDestinationRequestC2ERKS0_
etterminal:_ZN2et29PortForwardDestinationRequestD0Ev
etterminal:_ZN2et29PortForwardDestinationRequestD1Ev
etterminal:_ZN2et29PortForwardDestinationRequestD2Ev
etterminal:_ZN2et30PortForwardDestinationResponse12InternalSwapEPS0_
etterminal:_ZN2et30PortForwardDestinationResponse14_InternalParseEPKcPN6google8protobuf8internal12ParseContextE
etterminal:_ZN2et30PortForwardDestinationResponse21CheckTypeAndMergeFromERKN6google8protobuf11MessageLiteE
etterminal:_ZN2et30PortForwardDestinationResponse5ClearEv
etterminal:_ZN2et30PortForwardDestinationResponse8CopyFromERKS0_
etterminal:_ZN2et30PortForwardDestinationResponse9MergeFromERKS0_
etterminal:_ZN2et30PortForwardDestinationResponseC1EPN6google8protobuf5ArenaEb
etterminal:_ZN2et30PortForwardDestinationResponseC1ERKS0_
etterminal:_ZN2et30PortForwardDestinationResponseC2EPN6google8protobuf5ArenaEb
etterminal:_ZN2et30PortForwardDestinationResponseC2ERKS0_
etterminal:_ZN2et30PortForwardDestinationResponseD0Ev
etterminal:_ZN2et30PortForwardDestinationResponseD1Ev
etterminal:_ZN2et30PortForwardDestinationResponseD2Ev
etterminal:_ZN2et31_ConfigParams_default_instance_E
etterminal:_ZN2et31_TerminalInfo_default_instance_E
etterminal:_ZN2et32_CatchupBuffer_default_instance_E
etterminal:_ZN2et33_ConnectRequest_default_instance_E
etterminal:_ZN2et33_InitialPayload_default_instance_E
etterminal:_ZN2et33_SequenceHeader_default_instance_E
etterminal:_ZN2et33_SocketEndpoint_default_instance_E
etterminal:_ZN2et33_TerminalBuffer_default_instance_E
etterminal:_ZN2et34_ConnectResponse_default_instance_E
etterminal:_ZN2et34_InitialResponse_default_instance_E
etterminal:_ZN2et34_PortForwardData_default_instance_E
etterminal:_ZN2et35_TerminalUserInfo_default_instance_E
etterminal:_ZN2et43_PortForwardSourceRequest_default_instance_E
etterminal:_ZN2et44_PortForwardSourceResponse_default_instance_E
etterminal:_ZN2et48_PortForwardDestinationRequest_default_instance_E
etterminal:_ZN2et49_PortForwardDestinationResponse_default_instance_E
etterminal:_ZN2et8TermInit12InternalSwapEPS0_
etterminal:_ZN2et8TermInit14_InternalParseEPKcPN6google8protobuf8internal12ParseContextE
etterminal:_ZN2et8TermInit21CheckTypeAndMergeFromERKN6google8protobuf11MessageLiteE
etterminal:_ZN2et8TermInit5ClearEv
etterminal:_ZN2et8TermInit8CopyFromERKS0_
etterminal:_ZN2et8TermInit9MergeFromERKS0_
etterminal:_ZN2et8TermInitC1EPN6google8protobuf5ArenaEb
etterminal:_ZN2et8TermInitC1ERKS0_
etterminal:_ZN2et8TermInitC2EPN6google8protobuf5ArenaEb
etterminal:_ZN2et8TermInitC2ERKS0_
etterminal:_ZN2et8TermInitD0Ev
etterminal:_ZN2et8TermInitD1Ev
etterminal:_ZN2et8TermInitD2Ev
etterminal:_ZN6google8protobuf5Arena18CreateMaybeMessageIN2et12ConfigParamsEJEEEPT_PS1_DpOT0_
etterminal:_ZN6google8protobuf5Arena18CreateMaybeMessageIN2et12TerminalInfoEJEEEPT_PS1_DpOT0_
etterminal:_ZN6google8protobuf5Arena18CreateMaybeMessageIN2et13CatchupBufferEJEEEPT_PS1_DpOT0_
etterminal:_ZN6google8protobuf5Arena18CreateMaybeMessageIN2et14ConnectRequestEJEEEPT_PS1_DpOT0_
etterminal:_ZN6google8protobuf5Arena18CreateMaybeMessageIN2et14InitialPayloadEJEEEPT_PS1_DpOT0_
etterminal:_ZN6google8protobuf5Arena18CreateMaybeMessageIN2et14SequenceHeaderEJEEEPT_PS1_DpOT0_
etterminal:_ZN6google8protobuf5Arena18CreateMaybeMessageIN2et14SocketEndpointEJEEEPT_PS1_DpOT0_
etterminal:_ZN6google8protobuf5Arena18CreateMaybeMessageIN2et14TerminalBufferEJEEEPT_PS1_DpOT0_
etterminal:_ZN6google8protobuf5Arena18CreateMaybeMessageIN2et15ConnectResponseEJEEEPT_PS1_DpOT0_
etterminal:_ZN6google8protobuf5Arena18CreateMaybeMessageIN2et15InitialResponseEJEEEPT_PS1_DpOT0_
etterminal:_ZN6google8protobuf5Arena18CreateMaybeMessageIN2et15PortForwardDataEJEEEPT_PS1_DpOT0_
etterminal:_ZN6google8protobuf5Arena18CreateMaybeMessageIN2et16TerminalUserInfoEJEEEPT_PS1_DpOT0_
etterminal:_ZN6google8protobuf5Arena18CreateMaybeMessageIN2et24PortForwardSourceRequestEJEEEPT_PS1_DpOT0_
etterminal:_ZN6google8protobuf5Arena18CreateMaybeMessageIN2et25PortForwardSourceResponseEJEEEPT_PS1_DpOT0_
etterminal:_ZN6google8protobuf5Arena18CreateMaybeMessageIN2et29PortForwardDestinationRequestEJEEEPT_PS1_DpOT0_
etterminal:_ZN6google8protobuf5Arena18CreateMaybeMessageIN2et30PortForwardDestinationResponseEJEEEPT_PS1_DpOT0_
etterminal:_ZN6google8protobuf5Arena18CreateMaybeMessageIN2et8TermInitEJEEEPT_PS1_DpOT0_
etterminal:_ZNK2el13Configuration3logERSo
etterminal:_ZNK2el13Configuration9PredicateclEPKS0_
etterminal:_ZNK2el4base17DefaultLogBuilder5buildB5cxx11EPKNS_10LogMessageEb
etterminal:_ZNK2el4base5utils15CommandLineArgs13getParamValueEPKc
etterminal:_ZNK2el4base5utils15CommandLineArgs17hasParamWithValueEPKc
etterminal:_ZNK2el4base5utils15CommandLineArgs4sizeEv
etterminal:_ZNK2el4base5utils15CommandLineArgs5emptyEv
etterminal:_ZNK2el4base5utils15CommandLineArgs8hasParamEPKc
etterminal:_ZNK2el6Logger23resolveLoggerFormatSpecEv
etterminal:_ZNK2et12ConfigParams11GetTypeNameB5cxx11Ev
etterminal:_ZNK2et12ConfigParams12ByteSizeLongEv
etterminal:_ZNK2et12ConfigParams13IsInitializedEv
etterminal:_ZNK2et12ConfigParams13SetCachedSizeEi
etterminal:_ZNK2et12ConfigParams18_InternalSerializeEPhPN6google8protobuf2io19EpsCopyOutputStreamE
etterminal:_ZNK2et12TerminalInfo11GetTypeNameB5cxx11Ev
etterminal:_ZNK2et12TerminalInfo12ByteSizeLongEv
etterminal:_ZNK2et12TerminalInfo13IsInitializedEv
etterminal:_ZNK2et12TerminalInfo13SetCachedSizeEi
etterminal:_ZNK2et12TerminalInfo18_InternalSerializeEPhPN6google8protobuf2io19EpsCopyOutputStreamE
etterminal:_ZNK2et13CatchupBuffer11GetTypeNameB5cxx11Ev
etterminal:_ZNK2et13CatchupBuffer12ByteSizeLongEv
etterminal:_ZNK2et13CatchupBuffer13IsInitializedEv
etterminal:_ZNK2et13CatchupBuffer13SetCachedSizeEi
etterminal:_ZNK2et13CatchupBuffer18_InternalSerializeEPhPN6google8protobuf2io19EpsCopyOutputStreamE
etterminal:_ZNK2et14ConnectRequest11GetTypeNameB5cxx11Ev
etterminal:_ZNK2et14ConnectRequest12ByteSizeLongEv
etterminal:_ZNK2et14ConnectRequest13IsInitializedEv
etterminal:_ZNK2et14ConnectRequest13SetCachedSizeEi
etterminal:_ZNK2et14ConnectRequest18_InternalSerializeEPhPN6google8protobuf2io19EpsCopyOutputStreamE
etterminal:_ZNK2et14InitialPayload11GetTypeNameB5cxx11Ev
etterminal:_ZNK2et14InitialPayload12ByteSizeLongEv
etterminal:_ZNK2et14InitialPayload13IsInitializedEv
etterminal:_ZNK2et14InitialPayload13SetCachedSizeEi
etterminal:_ZNK2et14InitialPayload18_InternalSerializeEPhPN6google8protobuf2io19EpsCopyOutputStreamE
etterminal:_ZNK2et14SequenceHeader11GetTypeNameB5cxx11Ev
etterminal:_ZNK2et14SequenceHeader12ByteSizeLongEv
etterminal:_ZNK2et14SequenceHeader13IsInitializedEv
etterminal:_ZNK2et14SequenceHeader13SetCachedSizeEi
etterminal:_ZNK2et14SequenceHeader18_InternalSerializeEPhPN6google8protobuf2io19EpsCopyOutputStreamE
etterminal:_ZNK2et14SocketEndpoint11GetTypeNameB5cxx11Ev
etterminal:_ZNK2et14SocketEndpoint12ByteSizeLongEv
etterminal:_ZNK2et14SocketEndpoint13IsInitializedEv
etterminal:_ZNK2et14SocketEndpoint13SetCachedSizeEi
etterminal:_ZNK2et14SocketEndpoint18_InternalSerializeEPhPN6google8protobuf2io19EpsCopyOutputStreamE
etterminal:_ZNK2et14TerminalBuffer11GetTypeNameB5cxx11Ev
etterminal:_ZNK2et14TerminalBuffer12ByteSizeLongEv
etterminal:_ZNK2et14TerminalBuffer13IsInitializedEv
etterminal:_ZNK2et14TerminalBuffer13SetCachedSizeEi
etterminal:_ZNK2et14TerminalBuffer18_InternalSerializeEPhPN6google8protobuf2io19EpsCopyOutputStreamE
etterminal:_ZNK2et15ConnectResponse11GetTypeNameB5cxx11Ev
etterminal:_ZNK2et15ConnectResponse12ByteSizeLongEv
etterminal:_ZNK2et15ConnectResponse13IsInitializedEv
etterminal:_ZNK2et15ConnectResponse13SetCachedSizeEi
etterminal:_ZNK2et15ConnectResponse18_InternalSerializeEPhPN6google8protobuf2io19EpsCopyOutputStreamE
etterminal:_ZNK2et15InitialResponse11GetTypeNameB5cxx11Ev
etterminal:_ZNK2et15InitialResponse12ByteSizeLongEv
etterminal:_ZNK2et15InitialResponse13IsInitializedEv
etterminal:_ZNK2et15InitialResponse13SetCachedSizeEi
etterminal:_ZNK2et15InitialResponse18_InternalSerializeEPhPN6google8protobuf2io19EpsCopyOutputStreamE
etterminal:_ZNK2et15PortForwardData11GetTypeNameB5cxx11Ev
etterminal:_ZNK2et15PortForwardData12ByteSizeLongEv
etterminal:_ZNK2et15PortForwardData13IsInitializedEv
etterminal:_ZNK2et15PortForwardData13SetCachedSizeEi
etterminal:_ZNK2et15PortForwardData18_InternalSerializeEPhPN6google8protobuf2io19EpsCopyOutputStreamE
etterminal:_ZNK2et16TerminalUserInfo11GetTypeNameB5cxx11Ev
etterminal:_ZNK2et16TerminalUserInfo12ByteSizeLongEv
etterminal:_ZNK2et16TerminalUserInfo13IsInitializedEv
etterminal:_ZNK2et16TerminalUserInfo13SetCachedSizeEi
etterminal:_ZNK2et16TerminalUserInfo18_InternalSerializeEPhPN6google8protobuf2io19EpsCopyOutputStreamE
etterminal:_ZNK2et24PortForwardSourceRequest11GetTypeNameB5cxx11Ev
etterminal:_ZNK2et24PortForwardSourceRequest12ByteSizeLongEv
etterminal:_ZNK2et24PortForwardSourceRequest13IsInitializedEv
etterminal:_ZNK2et24PortForwardSourceRequest13SetCachedSizeEi
etterminal:_ZNK2et24PortForwardSourceRequest18_InternalSerializeEPhPN6google8protobuf2io19EpsCopyOutputStreamE
etterminal:_ZNK2et25PortForwardSourceResponse11GetTypeNameB5cxx11Ev
etterminal:_ZNK2et25PortForwardSourceResponse12ByteSizeLongEv
etterminal:_ZNK2et25PortForwardSourceResponse13IsInitializedEv
etterminal:_ZNK2et25PortForwardSourceResponse13SetCachedSizeEi
etterminal:_ZNK2et25PortForwardSourceResponse18_InternalSerializeEPhPN6google8protobuf2io19EpsCopyOutputStreamE
etterminal:_ZNK2et29PortForwardDestinationRequest11GetTypeNameB5cxx11Ev
etterminal:_ZNK2et29PortForwardDestinationRequest12ByteSizeLongEv
etterminal:_ZNK2et29PortForwardDestinationRequest13IsInitializedEv
etterminal:_ZNK2et29PortForwardDestinationRequest13SetCachedSizeEi
etterminal:_ZNK2et29PortForwardDestinationRequest18_InternalSerializeEPhPN6google8protobuf2io19EpsCopyOutputStreamE
etterminal:_ZNK2et30PortForwardDestinationResponse11GetTypeNameB5cxx11Ev
etterminal:_ZNK2et30PortForwardDestinationResponse12ByteSizeLongEv
etterminal:_ZNK2et30PortForwardDestinationResponse13IsInitializedEv
etterminal:_ZNK2et30PortForwardDestinationResponse13SetCachedSizeEi
etterminal:_ZNK2et30PortForwardDestinationResponse18_InternalSerializeEPhPN6google8protobuf2io19EpsCopyOutputStreamE
etterminal:_ZNK2et8TermInit11GetTypeNameB5cxx11Ev
etterminal:_ZNK2et8TermInit12ByteSizeLongEv
etterminal:_ZNK2et8TermInit13IsInitializedEv
etterminal:_ZNK2et8TermInit13SetCachedSizeEi
etterminal:_ZNK2et8TermInit18_InternalSerializeEPhPN6google8protobuf2io19EpsCopyOutputStreamE
etterminal:__bss_start
etterminal:__data_start
etterminal:_edata
etterminal:_end
etterminal:_start
etterminal:main
htm:_IO_stdin_used
htm:_Z4termi
htm:_ZN2el10LogBuilder22convertToColoredOutputEPNSt7__cxx1112basic_stringIcSt11char_traitsIcESaIcEEENS_5LevelE
htm:_ZN2el11LevelHelper12forEachLevelEPjRKSt8functionIFbvEE
htm:_ZN2el11LevelHelper15convertToStringENS_5LevelE
htm:_ZN2el11LevelHelper17convertFromStringEPKc
htm:_ZN2el11VersionInfo11releaseDateB5cxx11Ev
htm:_ZN2el11VersionInfo7versionB5cxx11Ev
htm:_ZN2el13Configuration9PredicateC1ENS_5LevelENS_17ConfigurationTypeE
htm:_ZN2el13Configuration9PredicateC2ENS_5LevelENS_17ConfigurationTypeE
htm:_ZN2el13ConfigurationC1ENS_5LevelENS_17ConfigurationTypeERKNSt7__cxx1112basic_stringIcSt11char_traitsIcESaIcEEE
htm:_ZN2el13ConfigurationC1ERKS0_
htm:_ZN2el13ConfigurationC2ENS_5LevelENS_17ConfigurationTypeERKNSt7__cxx1112basic_stringIcSt11char_traitsIcESaIcEEE
htm:_ZN2el13ConfigurationC2ERKS0_
htm:_ZN2el13ConfigurationaSERKS0_
htm:_ZN2el14Configurations11setFromBaseEPS0_
htm:_ZN2el14Configurations11setGloballyENS_17ConfigurationTypeERKNSt7__cxx1112basic_stringIcSt11char_traitsIcESaIcEEEb
htm:_ZN2el14Configurations12setToDefaultEv
htm:_ZN2el14Configurations13parseFromFileERKNSt7__cxx1112basic_stringIcSt11char_traitsIcESaIcEEEPS0_
htm:_ZN2el14Configurations13parseFromTextERKNSt7__cxx1112basic_stringIcSt11char_traitsIcESaIcEEEPS0_
htm:_ZN2el14Configurations16hasConfigurationENS_17ConfigurationTypeE
htm:_ZN2el14Configurations16hasConfigurationENS_5LevelENS_17ConfigurationTypeE
htm:_ZN2el14Configurations17unsafeSetGloballyENS_17ConfigurationTypeERKNSt7__cxx1112basic_stringIcSt11char_traitsIcESaIcEEEb
htm:_ZN2el14Configurations19unsafeSetIfNotExistENS_5LevelENS_17ConfigurationTypeERKNSt7__cxx1112basic_stringIcSt11char_traitsIcESaIcEEE
htm:_ZN2el14Configurations21setRemainingToDefaultEv
htm:_ZN2el14Configurations3setENS_5LevelENS_17ConfigurationTypeERKNSt7__cxx1112basic_stringIcSt11char_traitsIcESaIcEEE
htm:_ZN2el14Configurations3setEPNS_13ConfigurationE
htm:_ZN2el14Configurations6Parser13parseFromFileERKNSt7__cxx1112basic_stringIcSt11char_traitsIcESaIcEEEPS0_SA_
htm:_ZN2el14Configurations6Parser13parseFromTextERKNSt7__cxx1112basic_stringIcSt11char_traitsIcESaIcEEEPS0_SA_
htm:_ZN2el14Configurations6Parser14ignoreCommentsEPNSt7__cxx1112basic_stringIcSt11char_traitsIcESaIcEEE
htm:_ZN2el14Configurations6Parser7isLevelERKNSt7__cxx1112basic_stringIcSt11char_traitsIcESaIcEEE
htm:_ZN2el14Configurations6Parser9isCommentERKNSt7__cxx1112basic_stringIcSt11char_traitsIcESaIcEEE
htm:_ZN2el14Configurations6Parser9parseLineEPNSt7__cxx1112basic_stringIcSt11char_traitsIcESaIcEEES8_S8_PNS_5LevelEPS0_
htm:_ZN2el14Configurations9unsafeSetENS_5LevelENS_17ConfigurationTypeERKNSt7__cxx1112basic_stringIcSt11char_traitsIcESaIcEEE
htm:_ZN2el14ConfigurationsC1ERKNSt7__cxx1112basic_stringIcSt11char_traitsIcESaIcEEEbPS0_
htm:_ZN2el14ConfigurationsC1Ev
htm:_ZN2el14ConfigurationsC2ERKNSt7__cxx1112basic_stringIcSt11char_traitsIcESaIcEEEbPS0_
htm:_ZN2el14ConfigurationsC2Ev
htm:_ZN2el14elCrashHandlerE
htm:_ZN2el19LogDispatchCallback10fileHandleEPKNS_15LogDispatchDataE
htm:_ZN2el19LogDispatchCallback6handleEPKNS_15LogDispatchDataE
htm:_ZN2el23ConfigurationTypeHelper15convertToStringENS_17ConfigurationTypeE
htm:_ZN2el23ConfigurationTypeHelper17convertFromStringEPKc
htm:_ZN2el4base12PErrorWriterD0Ev
htm:_ZN2el4base12PErrorWriterD1Ev
htm:_ZN2el4base12PErrorWriterD2Ev
htm:_ZN2el4base13LogDispatcher8dispatchEv
htm:_ZN2el4base14MessageBuilder10initializeEPNS_6LoggerE
htm:_ZN2el4base14MessageBuilderlsEPKw
htm:_ZN2el4base17RegisteredLoggers14unsafeFlushAllEv
htm:_ZN2el4base17RegisteredLoggers3getERKNSt7__cxx1112basic_stringIcSt11char_traitsIcESaIcEEEb
htm:_ZN2el4base17RegisteredLoggers6removeERKNSt7__cxx1112basic_stringIcSt11char_traitsIcESaIcEEE
htm:_ZN2el4base17RegisteredLoggersC1ERKSt10shared_ptrINS_10LogBuilderEE
htm:_ZN2el4base17RegisteredLoggersC2ERKSt10shared_ptrINS_10LogBuilderEE
htm:_ZN2el4base18SubsecondPrecision4initEi
htm:_ZN2el4base19TypedConfigurations10fileStreamENS_5LevelE
htm:_ZN2el4base19TypedConfigurations10insertFileENS_5LevelERKNSt7__cxx1112basic_stringIcSt11char_traitsIcESaIcEEE
htm:_ZN2el4base19TypedConfigurations14maxLogFileSizeENS_5LevelE
htm:_ZN2el4base19TypedConfigurations15resolveFilenameERKNSt7__cxx1112basic_stringIcSt11char_traitsIcESaIcEEE
htm:_ZN2el4base19TypedConfigurations16toStandardOutputENS_5LevelE
htm:_ZN2el4base19TypedConfigurations17logFlushThresholdENS_5LevelE
htm:_ZN2el4base19TypedConfigurations17millisecondsWidthENS_5LevelE
htm:_ZN2el4base19TypedConfigurations18subsecondPrecisionENS_5LevelE
htm:_ZN2el4base19TypedConfigurations19performanceTrackingENS_5LevelE
htm:_ZN2el4base19TypedConfigurations25unsafeValidateFileRollingENS_5LevelERKSt8functionIFvPKcmEE
htm:_ZN2el4base19TypedConfigurations5buildEPNS_14ConfigurationsE
htm:_ZN2el4base19TypedConfigurations6toFileENS_5LevelE
htm:_ZN2el4base19TypedConfigurations7enabledENS_5LevelE
htm:_ZN2el4base19TypedConfigurations8filenameB5cxx11ENS_5LevelE
htm:_ZN2el4base19TypedConfigurations8getULongENSt7__cxx1112basic_stringIcSt11char_traitsIcESaIcEEE
htm:_ZN2el4base19TypedConfigurations9logFormatENS_5LevelE
htm:_ZN2el4base19TypedConfigurationsC1EPNS_14ConfigurationsESt10shared_ptrISt13unordered_mapINSt7__cxx1112basic_stringIcSt11char_traitsIcESaIcEEES4_ISt13basic_fstreamIcS9_EESt4hashISB_ESt8equal_toISB_ESaISt4pairIKSB_SE_EEEE
htm:_ZN2el4base19TypedConfigurationsC1ERKS1_
htm:_ZN2el4base19TypedConfigurationsC2EPNS_14ConfigurationsESt10shared_ptrISt13unordered_mapINSt7__cxx1112basic_stringIcSt11char_traitsIcESaIcEEES4_ISt13basic_fstreamIcS9_EESt4hashISB_ESt8equal_toISB_ESaISt4pairIKSB_SE_EEEE
htm:_ZN2el4base19TypedConfigurationsC2ERKS1_
htm:_ZN2el4base21RegisteredHitCounters14validateAfterNEPKcmm
htm:_ZN2el4base21RegisteredHitCounters14validateEveryNEPKcmm
htm:_ZN2el4base21RegisteredHitCounters14validateNTimesEPKcmm
htm:_ZN2el4base26DefaultLogDispatchCallback6handleEPKNS_15LogDispatchDataE
htm:_ZN2el4base26DefaultLogDispatchCallback8dispatchEONSt7__cxx1112basic_stringIcSt11char_traitsIcESaIcEEE
htm:_ZN2el4base5debug10StackTrace11generateNewEv
htm:_ZN2el4base5debug10StackTrace15StackTraceEntryC1EmRKNSt7__cxx1112basic_stringIcSt11char_traitsIcESaIcEEESB_SB_SB_
htm:_ZN2el4base5debug10StackTrace15StackTraceEntryC2EmRKNSt7__cxx1112basic_stringIcSt11char_traitsIcESaIcEEESB_SB_SB_
htm:_ZN2el4base5debug12CrashHandler10setHandlerERKPFviE
htm:_ZN2el4base5debug12CrashHandlerC1Eb
htm:_ZN2el4base5debug12CrashHandlerC2Eb
htm:_ZN2el4base5debuglsERSoRKNS1_10StackTrace15StackTraceEntryE
htm:_ZN2el4base5debuglsERSoRKNS1_10StackTraceE
htm:_ZN2el4base5utils15CommandLineArgs7setArgsEiPPc
htm:_ZN2el4base5utils2OS11currentHostB5cxx11Ev
htm:_ZN2el4base5utils2OS11currentUserB5cxx11Ev
htm:_ZN2el4base5utils2OS13getBashOutputB5cxx11EPKc
htm:_ZN2el4base5utils2OS17termSupportsColorEv
htm:_ZN2el4base5utils2OS22getEnvironmentVariableB5cxx11EPKcS4_S4_
htm:_ZN2el4base5utils3Str10replaceAllERNSt7__cxx1112basic_stringIcSt11char_traitsIcESaIcEEERKS8_SB_
htm:_ZN2el4base5utils3Str10replaceAllERNSt7__cxx1112basic_stringIcSt11char_traitsIcESaIcEEEcc
htm:_ZN2el4base5utils3Str10startsWithERKNSt7__cxx1112basic_stringIcSt11char_traitsIcESaIcEEESA_
htm:_ZN2el4base5utils3Str13cStringCaseEqEPKcS4_
htm:_ZN2el4base5utils3Str13wildCardMatchEPKcS4_
htm:_ZN2el4base5utils3Str17wcharPtrToCharPtrEPKw
htm:_ZN2el4base5utils3Str19convertAndAddToBuffEmiPcPKcb
htm:_ZN2el4base5utils3Str22replaceFirstWithEscapeERNSt7__cxx1112basic_stringIcSt11char_traitsIcESaIcEEERKS8_SB_
htm:_ZN2el4base5utils3Str4trimERNSt7__cxx1112basic_stringIcSt11char_traitsIcESaIcEEE
htm:_ZN2el4base5utils3Str5ltrimERNSt7__cxx1112basic_stringIcSt11char_traitsIcESaIcEEE
htm:_ZN2el4base5utils3Str5rtrimERNSt7__cxx1112basic_stringIcSt11char_traitsIcESaIcEEE
htm:_ZN2el4base5utils3Str7toUpperERNSt7__cxx1112basic_stringIcSt11char_traitsIcESaIcEEE
htm:_ZN2el4base5utils3Str8containsEPKcc
htm:_ZN2el4base5utils3Str8endsWithERKNSt7__cxx1112basic_stringIcSt11char_traitsIcESaIcEEESA_
htm:_ZN2el4base5utils3Str9addToBuffEPKcPcS4_
htm:_ZN2el4base5utils3Str9cStringEqEPKcS4_
htm:_ZN2el4base5utils3Str9clearBuffEPcm
htm:_ZN2el4base5utils4File10createPathERKNSt7__cxx1112basic_stringIcSt11char_traitsIcESaIcEEE
htm:_ZN2el4base5utils4File10pathExistsEPKcb
htm:_ZN2el4base5utils4File13getSizeOfFileEPSt13basic_fstreamIcSt11char_traitsIcEE
htm:_ZN2el4base5utils4File13newFileStreamERKNSt7__cxx1112basic_stringIcSt11char_traitsIcESaIcEEE
htm:_ZN2el4base5utils4File17buildBaseFilenameERKNSt7__cxx1112basic_stringIcSt11char_traitsIcESaIcEEEPcmPKc
htm:_ZN2el4base5utils4File21buildStrippedFilenameEPKcPcm
htm:_ZN2el4base5utils4File23extractPathFromFilenameERKNSt7__cxx1112basic_stringIcSt11char_traitsIcESaIcEEEPKc
htm:_ZN2el4base5utils8DateTime10formatTimeB5cxx11EyNS0_13TimestampUnitE
htm:_ZN2el4base5utils8DateTime11getDateTimeB5cxx11EPKcPKNS0_18SubsecondPrecisionE
htm:_ZN2el4base5utils8DateTime11parseFormatEPcmPKcPK2tmmPKNS0_18SubsecondPrecisionE
htm:_ZN2el4base5utils8DateTime12gettimeofdayEP7timeval
htm:_ZN2el4base5utils8DateTime13buildTimeInfoEP7timevalP2tm
htm:_ZN2el4base5utils8DateTime15timevalToStringB5cxx11E7timevalPKcPKNS0_18SubsecondPrecisionE
htm:_ZN2el4base5utils8DateTime17getTimeDifferenceERK7timevalS5_NS0_13TimestampUnitE
htm:_ZN2el4base5utilslsERSoRKNS1_15CommandLineArgsE
htm:_ZN2el4base6Writer15processDispatchEv
htm:_ZN2el4base6Writer15triggerDispatchEv
htm:_ZN2el4base6Writer16initializeLoggerERKNSt7__cxx1112basic_stringIcSt11char_traitsIcESaIcEEEbb
htm:_ZN2el4base6Writer9constructEPNS_6LoggerEb
htm:_ZN2el4base6Writer9constructEiPKcz
htm:_ZN2el4base7Storage23setApplicationArgumentsEiPPc
htm:_ZN2el4base7Storage24hasCustomFormatSpecifierEPKc
htm:_ZN2el4base7Storage28installCustomFormatSpecifierERKNS_21CustomFormatSpecifierE
htm:_ZN2el4base7Storage30uninstallCustomFormatSpecifierEPKc
htm:_ZN2el4base7StorageC1ERKSt10shared_ptrINS_10LogBuilderEE
htm:_ZN2el4base7StorageC2ERKSt10shared_ptrINS_10LogBuilderEE
htm:_ZN2el4base7StorageD0Ev
htm:_ZN2el4base7StorageD1Ev
htm:_ZN2el4base7StorageD2Ev
htm:_ZN2el4base9LogFormat15parseFromFormatERKNSt7__cxx1112basic_stringIcSt11char_traitsIcESaIcEEE
htm:_ZN2el4base9LogFormat16updateDateFormatEmRNSt7__cxx1112basic_stringIcSt11char_traitsIcESaIcEEE
htm:_ZN2el4base9LogFormat16updateFormatSpecEv
htm:_ZN2el4base9LogFormatC1ENS_5LevelERKNSt7__cxx1112basic_stringIcSt11char_traitsIcESaIcEEE
htm:_ZN2el4base9LogFormatC1EOS1_
htm:_ZN2el4base9LogFormatC1ERKS1_
htm:_ZN2el4base9LogFormatC1Ev
htm:_ZN2el4base9LogFormatC2ENS_5LevelERKNSt7__cxx1112basic_stringIcSt11char_traitsIcESaIcEEE
htm:_ZN2el4base9LogFormatC2EOS1_
htm:_ZN2el4base9LogFormatC2ERKS1_
htm:_ZN2el4base9LogFormatC2Ev
htm:_ZN2el4base9LogFormataSERKS1_
htm:_ZN2el4base9LogFormateqERKS1_
htm:_ZN2el4base9VRegistry10setModulesEPKc
htm:_ZN2el4base9VRegistry11setFromArgsEPKNS0_5utils15CommandLineArgsE
htm:_ZN2el4base9VRegistry7allowedEtPKc
htm:_ZN2el4base9VRegistry8setLevelEt
htm:_ZN2el4base9VRegistryC1EtPj
htm:_ZN2el4base9VRegistryC2EtPj
htm:_ZN2el4base9elStorageE
htm:_ZN2el6Logger11reconfigureEv
htm:_ZN2el6Logger18initUnflushedCountEv
htm:_ZN2el6Logger5flushENS_5LevelEPSt13basic_fstreamIcSt11char_traitsIcEE
htm:_ZN2el6Logger5flushEv
htm:_ZN2el6Logger9configureERKNS_14ConfigurationsE
htm:_ZN2el6Logger9isValidIdERKNSt7__cxx1112basic_stringIcSt11char_traitsIcESaIcEEE
htm:_ZN2el6LoggerC1ERKNSt7__cxx1112basic_stringIcSt11char_traitsIcESaIcEEERKNS_14ConfigurationsESt10shared_ptrISt13unordered_mapIS6_SC_ISt13basic_fstreamIcS4_EESt4hashIS6_ESt8equal_toIS6_ESaISt4pairIS7_SG_EEEE
htm:_ZN2el6LoggerC1ERKNSt7__cxx1112basic_stringIcSt11char_traitsIcESaIcEEESt10shared_ptrISt13unordered_mapIS6_S9_ISt13basic_fstreamIcS4_EESt4hashIS6_ESt8equal_toIS6_ESaISt4pairIS7_SD_EEEE
htm:_ZN2el6LoggerC1ERKS0_
htm:_ZN2el6LoggerC2ERKNSt7__cxx1112basic_stringIcSt11char_traitsIcESaIcEEERKNS_14ConfigurationsESt10shared_ptrISt13unordered_mapIS6_SC_ISt13basic_fstreamIcS4_EESt4hashIS6_ESt8equal_toIS6_ESaISt4pairIS7_SG_EEEE
htm:_ZN2el6LoggerC2ERKNSt7__cxx1112basic_stringIcSt11char_traitsIcESaIcEEESt10shared_ptrISt13unordered_mapIS6_S9_ISt13basic_fstreamIcS4_EESt4hashIS6_ESt8equal_toIS6_ESaISt4pairIS7_SD_EEEE
htm:_ZN2el6LoggerC2ERKS0_
htm:_ZN2el6LoggeraSERKS0_
htm:_ZN2el7Helpers10crashAbortEiPKcm
htm:_ZN2el7Helpers14logCrashReasonEibNS_5LevelEPKc
htm:_ZN2el7Loggers11setVModulesEPKc
htm:_ZN2el7Loggers12verboseLevelEv
htm:_ZN2el7Loggers13clearVModulesEv
htm:_ZN2el7Loggers15setVerboseLevelEt
htm:_ZN2el7Loggers16configureFromArgEPKc
htm:_ZN2el7Loggers16unregisterLoggerERKNSt7__cxx1112basic_stringIcSt11char_traitsIcESaIcEEE
htm:_ZN2el7Loggers17reconfigureLoggerEPNS_6LoggerERKNS_14ConfigurationsE
htm:_ZN2el7Loggers17reconfigureLoggerERKNSt7__cxx1112basic_stringIcSt11char_traitsIcESaIcEEENS_17ConfigurationTypeES8_
htm:_ZN2el7Loggers17reconfigureLoggerERKNSt7__cxx1112basic_stringIcSt11char_traitsIcESaIcEEERKNS_14ConfigurationsE
htm:_ZN2el7Loggers19configureFromGlobalEPKc
htm:_ZN2el7Loggers19logStreamsReferenceB5cxx11Ev
htm:_ZN2el7Loggers20populateAllLoggerIdsEPSt6vectorINSt7__cxx1112basic_stringIcSt11char_traitsIcESaIcEEESaIS7_EE
htm:_ZN2el7Loggers20setDefaultLogBuilderERSt10shared_ptrINS_10LogBuilderEE
htm:_ZN2el7Loggers21defaultConfigurationsEv
htm:_ZN2el7Loggers21reconfigureAllLoggersENS_5LevelENS_17ConfigurationTypeERKNSt7__cxx1112basic_stringIcSt11char_traitsIcESaIcEEE
htm:_ZN2el7Loggers21reconfigureAllLoggersERKNS_14ConfigurationsE
htm:_ZN2el7Loggers24setDefaultConfigurationsERKNS_14ConfigurationsEb
htm:_ZN2el7Loggers26defaultTypedConfigurationsEv
htm:_ZN2el7Loggers8flushAllEv
htm:_ZN2el7Loggers9getLoggerERKNSt7__cxx1112basic_stringIcSt11char_traitsIcESaIcEEEb
htm:_ZN2el7Loggers9hasLoggerERKNSt7__cxx1112basic_stringIcSt11char_traitsIcESaIcEEE
htm:_ZN2et10LogHandler12setupLogFileEPN2el14ConfigurationsENSt7__cxx1112basic_stringIcSt11char_traitsIcESaIcEEES9_
htm:_ZN2et10LogHandler12stderrToFileERKNSt7__cxx1112basic_stringIcSt11char_traitsIcESaIcEEE
htm:_ZN2et10LogHandler14rolloutHandlerEPKcm
htm:_ZN2et10LogHandler15setupLogHandlerEPiPPPc
htm:_ZN2et10LogHandler17setupStdoutLoggerEv
htm:_ZN2et13CatchupBuffer12InternalSwapEPS0_
htm:_ZN2et13CatchupBuffer14_InternalParseEPKcPN6google8protobuf8internal12ParseContextE
htm:_ZN2et13CatchupBuffer21CheckTypeAndMergeFromERKN6google8protobuf11MessageLiteE
htm:_ZN2et13CatchupBuffer5ClearEv
htm:_ZN2et13CatchupBuffer8CopyFromERKS0_
htm:_ZN2et13CatchupBuffer9MergeFromERKS0_
htm:_ZN2et13CatchupBufferC1EPN6google8protobuf5ArenaEb
htm:_ZN2et13CatchupBufferC1ERKS0_
htm:_ZN2et13CatchupBufferC2EPN6google8protobuf5ArenaEb
htm:_ZN2et13CatchupBufferC2ERKS0_
htm:_ZN2et13CatchupBufferD0Ev
htm:_ZN2et13CatchupBufferD1Ev
htm:_ZN2et13CatchupBufferD2Ev
htm:_ZN2et13DaemonCreator19createSessionLeaderEv
htm:_ZN2et13DaemonCreator6createEbNSt7__cxx1112basic_stringIcSt11char_traitsIcESaIcEEE
htm:_ZN2et13IpcPairClientC1ESt10shared_ptrINS_13SocketHandlerEERKNS_14SocketEndpointE
htm:_ZN2et13IpcPairClientC2ESt10shared_ptrINS_13SocketHandlerEERKNS_14SocketEndpointE
htm:_ZN2et13IpcPairServer10pollAcceptEv
htm:_ZN2et13IpcPairServerC1ESt10shared_ptrINS_13SocketHandlerEERKNS_14SocketEndpointE
htm:_ZN2et13IpcPairServerC2ESt10shared_ptrINS_13SocketHandlerEERKNS_14SocketEndpointE
htm:_ZN2et13IpcPairServerD0Ev
htm:_ZN2et13IpcPairServerD1Ev
htm:_ZN2et13IpcPairServerD2Ev
htm:_ZN2et13SocketHandler15writeAllOrThrowEiPKvmb
htm:_ZN2et13SocketHandler16writeAllOrReturnEiPKvm
htm:_ZN2et13SocketHandler20readB64EncodedLengthEiPNSt7__cxx1112basic_stringIcSt11char_traitsIcESaIcEEEm
htm:_ZN2et13SocketHandler7readAllEiPvmb
htm:_ZN2et13SocketHandler7readB64EiPcm
htm:_ZN2et13SocketHandler8writeB64EiPKcm
htm:_ZN2et14ConnectRequest12InternalSwapEPS0_
htm:_ZN2et14ConnectRequest14_InternalParseEPKcPN6google8protobuf8internal12ParseContextE
htm:_ZN2et14ConnectRequest21CheckTypeAndMergeFromERKN6google8protobuf11MessageLiteE
htm:_ZN2et14ConnectRequest5ClearEv
htm:_ZN2et14ConnectRequest8CopyFromERKS0_
htm:_ZN2et14ConnectRequest9MergeFromERKS0_
htm:_ZN2et14ConnectRequestC1EPN6google8protobuf5ArenaEb
htm:_ZN2et14ConnectRequestC1ERKS0_
htm:_ZN2et14ConnectRequestC2EPN6google8protobuf5ArenaEb
htm:_ZN2et14ConnectRequestC2ERKS0_
htm:_ZN2et14ConnectRequestD0Ev
htm:_ZN2et14ConnectRequestD1Ev
htm:_ZN2et14ConnectRequestD2Ev
htm:_ZN2et14RawSocketUtils7readAllEiPcm
htm:_ZN2et14RawSocketUtils8writeAllEiPKcm
htm:_ZN2et14SequenceHeader12InternalSwapEPS0_
htm:_ZN2et14SequenceHeader14_InternalParseEPKcPN6google8protobuf8internal12ParseContextE
htm:_ZN2et14SequenceHeader21CheckTypeAndMergeFromERKN6google8protobuf11MessageLiteE
htm:_ZN2et14SequenceHeader5ClearEv
htm:_ZN2et14SequenceHeader8CopyFromERKS0_
htm:_ZN2et14SequenceHeader9MergeFromERKS0_
htm:_ZN2et14SequenceHeaderC1EPN6google8protobuf5ArenaEb
htm:_ZN2et14SequenceHeaderC1ERKS0_
htm:_ZN2et14SequenceHeaderC2EPN6google8protobuf5ArenaEb
htm:_ZN2et14SequenceHeaderC2ERKS0_
htm:_ZN2et14SequenceHeaderD0Ev
htm:_ZN2et14SequenceHeaderD1Ev
htm:_ZN2et14SequenceHeaderD2Ev
htm:_ZN2et14SocketEndpoint12InternalSwapEPS0_
htm:_ZN2et14SocketEndpoint14_InternalParseEPKcPN6google8protobuf8internal12ParseContextE
htm:_ZN2et14SocketEndpoint21CheckTypeAndMergeFromERKN6google8protobuf11MessageLiteE
htm:_ZN2et14SocketEndpoint5ClearEv
htm:_ZN2et14SocketEndpoint8CopyFromERKS0_
htm:_ZN2et14SocketEndpoint9MergeFromERKS0_
htm:_ZN2et14SocketEndpointC1EPN6google8protobuf5ArenaEb
htm:_ZN2et14SocketEndpointC1ERKS0_
htm:_ZN2et14SocketEndpointC2EPN6google8protobuf5ArenaEb
htm:_ZN2et14SocketEndpointC2ERKS0_
htm:_ZN2et14SocketEndpointD0Ev
htm:_ZN2et14SocketEndpointD1Ev
htm:_ZN2et14SocketEndpointD2Ev
htm:_ZN2et15ConnectResponse12InternalSwapEPS0_
htm:_ZN2et15ConnectResponse14_InternalParseEPKcPN6google8protobuf8internal12ParseContextE
htm:_ZN2et15ConnectResponse21CheckTypeAndMergeFromERKN6google8protobuf11MessageLiteE
htm:_ZN2et15ConnectResponse5ClearEv
htm:_ZN2et15ConnectResponse8CopyFromERKS0_
htm:_ZN2et15ConnectResponse9MergeFromERKS0_
htm:_ZN2et15ConnectResponseC1EPN6google8protobuf5ArenaEb
htm:_ZN2et15ConnectResponseC1ERKS0_
htm:_ZN2et15ConnectResponseC2EPN6google8protobuf5ArenaEb
htm:_ZN2et15ConnectResponseC2ERKS0_
htm:_ZN2et15ConnectResponseD0Ev
htm:_ZN2et15ConnectResponseD1Ev
htm:_ZN2et15ConnectResponseD2Ev
htm:_ZN2et15IpcPairEndpointC1ESt10shared_ptrINS_13SocketHandlerEEi
htm:_ZN2et15IpcPairEndpointC2ESt10shared_ptrINS_13SocketHandlerEEi
htm:_ZN2et15IpcPairEndpointD0Ev
htm:_ZN2et15IpcPairEndpointD1Ev
htm:_ZN2et15IpcPairEndpointD2Ev
htm:_ZN2et15TerminalHandler10appendDataERKNSt7__cxx1112basic_stringIcSt11char_traitsIcESaIcEEE
htm:_ZN2et15TerminalHandler16pollUserTerminalB5cxx11Ev
htm:_ZN2et15TerminalHandler18updateTerminalSizeEii
htm:_ZN2et15TerminalHandler4stopEv
htm:_ZN2et15TerminalHandler5startEv
htm:_ZN2et15TerminalHandlerC1Ev
htm:_ZN2et15TerminalHandlerC2Ev
htm:_ZN2et16MultiplexerState10appendDataERKNSt7__cxx1112basic_stringIcSt11char_traitsIcESaIcEEES8_
htm:_ZN2et16MultiplexerState10resizePaneERKNSt7__cxx1112basic_stringIcSt11char_traitsIcESaIcEEEii
htm:_ZN2et16MultiplexerState12fatalIfFoundERKNSt7__cxx1112basic_stringIcSt11char_traitsIcESaIcEEE
htm:_ZN2et16MultiplexerState12toJsonStringB5cxx11Ev
htm:_ZN2et16MultiplexerState19sendTerminalBuffersEi
htm:_ZN2et16MultiplexerState6newTabERKNSt7__cxx1112basic_stringIcSt11char_traitsIcESaIcEEES8_
htm:_ZN2et16MultiplexerState6updateEi
htm:_ZN2et16MultiplexerState8newSplitERKNSt7__cxx1112basic_stringIcSt11char_traitsIcESaIcEEES8_b
htm:_ZN2et16MultiplexerState9closePaneERKNSt7__cxx1112basic_stringIcSt11char_traitsIcESaIcEEE
htm:_ZN2et16MultiplexerStateC1ESt10shared_ptrINS_13SocketHandlerEE
htm:_ZN2et16MultiplexerStateC2ESt10shared_ptrINS_13SocketHandlerEE
htm:_ZN2et17EtPacketType_NameB5cxx11ENS_12EtPacketTypeE
htm:_ZN2et17PipeSocketHandler13stopListeningERKNS_14SocketEndpointE
htm:_ZN2et17PipeSocketHandler14getEndpointFdsERKNS_14SocketEndpointE
htm:_ZN2et17PipeSocketHandler6listenERKNS_14SocketEndpointE
htm:_ZN2et17PipeSocketHandler7connectERKNS_14SocketEndpointE
htm:_ZN2et17PipeSocketHandlerC1Ev
htm:_ZN2et17PipeSocketHandlerC2Ev
htm:_ZN2et17UnixSocketHandler10initSocketEi
htm:_ZN2et17UnixSocketHandler11setBlockingEib
htm:_ZN2et17UnixSocketHandler11waitForDataEill
htm:_ZN2et17UnixSocketHandler16getActiveSocketsEv
htm:_ZN2et17UnixSocketHandler16initServerSocketEi
htm:_ZN2et17UnixSocketHandler18addToActiveSocketsEi
htm:_ZN2et17UnixSocketHandler4readEiPvm
htm:_ZN2et17UnixSocketHandler5closeEi
htm:_ZN2et17UnixSocketHandler5writeEiPKvm
htm:_ZN2et17UnixSocketHandler6acceptEi
htm:_ZN2et17UnixSocketHandler7hasDataEi
htm:_ZN2et17UnixSocketHandlerC1Ev
htm:_ZN2et17UnixSocketHandlerC2Ev
htm:_ZN2et18ConnectStatus_NameB5cxx11ENS_13ConnectStatusE
htm:_ZN2et18EtPacketType_ParseERKNSt7__cxx1112basic_stringIcSt11char_traitsIcESaIcEEEPNS_12EtPacketTypeE
htm:_ZN2et19ConnectStatus_ParseERKNSt7__cxx1112basic_stringIcSt11char_traitsIcESaIcEEEPNS_13ConnectStatusE
htm:_ZN2et20EtPacketType_IsValidEi
htm:_ZN2et21ConnectStatus_IsValidEi
htm:_ZN2et32_CatchupBuffer_default_instance_E
htm:_ZN2et33_ConnectRequest_default_instance_E
htm:_ZN2et33_SequenceHeader_default_instance_E
htm:_ZN2et33_SocketEndpoint_default_instance_E
htm:_ZN2et34_ConnectResponse_default_instance_E
htm:_ZN2et9HtmClient3runEv
htm:_ZN2et9HtmClientC1ESt10shared_ptrINS_13SocketHandlerEERKNS_14SocketEndpointE
htm:_ZN2et9HtmClientC2ESt10shared_ptrINS_13SocketHandlerEERKNS_14SocketEndpointE
htm:_ZN2et9HtmServer11getPipeNameB5cxx11Ev
htm:_ZN2et9HtmServer3runEv
htm:_ZN2et9HtmServer7recoverEv
htm:_ZN2et9HtmServer9sendDebugERKNSt7__cxx1112basic_stringIcSt11char_traitsIcESaIcEEE
htm:_ZN2et9HtmServerC1ESt10shared_ptrINS_13SocketHandlerEERKNS_14SocketEndpointE
htm:_ZN2et9HtmServerC2ESt10shared_ptrINS_13SocketHandlerEERKNS_14SocketEndpointE
htm:_ZN6google8protobuf5Arena18CreateMaybeMessageIN2et13CatchupBufferEJEEEPT_PS1_DpOT0_
htm:_ZN6google8protobuf5Arena18CreateMaybeMessageIN2et14ConnectRequestEJEEEPT_PS1_DpOT0_
htm:_ZN6google8protobuf5Arena18CreateMaybeMessageIN2et14SequenceHeaderEJEEEPT_PS1_DpOT0_
htm:_ZN6google8protobuf5Arena18CreateMaybeMessageIN2et14SocketEndpointEJEEEPT_PS1_DpOT0_
htm:_ZN6google8protobuf5Arena18CreateMaybeMessageIN2et15ConnectResponseEJEEEPT_PS1_DpOT0_
htm:_ZNK2el13Configuration3logERSo
htm:_ZNK2el13Configuration9PredicateclEPKS0_
htm:_ZNK2el4base17DefaultLogBuilder5buildB5cxx11EPKNS_10LogMessageEb
htm:_ZNK2el4base5utils15CommandLineArgs13getParamValueEPKc
htm:_ZNK2el4base5utils15CommandLineArgs17hasParamWithValueEPKc
htm:_ZNK2el4base5utils15CommandLineArgs4sizeEv
htm:_ZNK2el4base5utils15CommandLineArgs5emptyEv
htm:_ZNK2el4base5utils15CommandLineArgs8hasParamEPKc
htm:_ZNK2el6Logger23resolveLoggerFormatSpecEv
htm:_ZNK2et13CatchupBuffer11GetTypeNameB5cxx11Ev
htm:_ZNK2et13CatchupBuffer12ByteSizeLongEv
htm:_ZNK2et13CatchupBuffer13IsInitializedEv
htm:_ZNK2et13CatchupBuffer13SetCachedSizeEi
htm:_ZNK2et13CatchupBuffer18_InternalSerializeEPhPN6google8protobuf2io19EpsCopyOutputStreamE
htm:_ZNK2et14ConnectRequest11GetTypeNameB5cxx11Ev
htm:_ZNK2et14ConnectRequest12ByteSizeLongEv
htm:_ZNK2et14ConnectRequest13IsInitializedEv
htm:_ZNK2et14ConnectRequest13SetCachedSizeEi
htm:_ZNK2et14ConnectRequest18_InternalSerializeEPhPN6google8protobuf2io19EpsCopyOutputStreamE
htm:_ZNK2et14SequenceHeader11GetTypeNameB5cxx11Ev
htm:_ZNK2et14SequenceHeader12ByteSizeLongEv
htm:_ZNK2et14SequenceHeader13IsInitializedEv
htm:_ZNK2et14SequenceHeader13SetCachedSizeEi
htm:_ZNK2et14SequenceHeader18_InternalSerializeEPhPN6google8protobuf2io19EpsCopyOutputStreamE
htm:_ZNK2et14SocketEndpoint11GetTypeNameB5cxx11Ev
htm:_ZNK2et14SocketEndpoint12ByteSizeLongEv
htm:_ZNK2et14SocketEndpoint13IsInitializedEv
htm:_ZNK2et14SocketEndpoint13SetCachedSizeEi
htm:_ZNK2et14SocketEndpoint18_InternalSerializeEPhPN6google8protobuf2io19EpsCopyOutputStreamE
htm:_ZNK2et15ConnectResponse11GetTypeNameB5cxx11Ev
htm:_ZNK2et15ConnectResponse12ByteSizeLongEv
htm:_ZNK2et15ConnectResponse13IsInitializedEv
htm:_ZNK2et15ConnectResponse13SetCachedSizeEi
htm:_ZNK2et15ConnectResponse18_InternalSerializeEPhPN6google8protobuf2io19EpsCopyOutputStreamE
htm:__bss_start
htm:__data_start
htm:_edata
htm:_end
htm:_start
htm:main
htm:terminal_backup
htmd:_IO_stdin_used
htmd:_ZN2el10LogBuilder22convertToColoredOutputEPNSt7__cxx1112basic_stringIcSt11char_traitsIcESaIcEEENS_5LevelE
htmd:_ZN2el11LevelHelper12forEachLevelEPjRKSt8functionIFbvEE
htmd:_ZN2el11LevelHelper15convertToStringENS_5LevelE
htmd:_ZN2el11LevelHelper17convertFromStringEPKc
htmd:_ZN2el11VersionInfo11releaseDateB5cxx11Ev
htmd:_ZN2el11VersionInfo7versionB5cxx11Ev
htmd:_ZN2el13Configuration9PredicateC1ENS_5LevelENS_17ConfigurationTypeE
htmd:_ZN2el13Configuration9PredicateC2ENS_5LevelENS_17ConfigurationTypeE
htmd:_ZN2el13ConfigurationC1ENS_5LevelENS_17ConfigurationTypeERKNSt7__cxx1112basic_stringIcSt11char_traitsIcESaIcEEE
htmd:_ZN2el13ConfigurationC1ERKS0_
htmd:_ZN2el13ConfigurationC2ENS_5LevelENS_17ConfigurationTypeERKNSt7__cxx1112basic_stringIcSt11char_traitsIcESaIcEEE
htmd:_ZN2el13ConfigurationC2ERKS0_
htmd:_ZN2el13ConfigurationaSERKS0_
htmd:_ZN2el14Configurations11setFromBaseEPS0_
htmd:_ZN2el14Configurations11setGloballyENS_17ConfigurationTypeERKNSt7__cxx1112basic_stringIcSt11char_traitsIcESaIcEEEb
htmd:_ZN2el14Configurations12setToDefaultEv
htmd:_ZN2el14Configurations13parseFromFileERKNSt7__cxx1112basic_stringIcSt11char_traitsIcESaIcEEEPS0_
htmd:_ZN2el14Configurations13parseFromTextERKNSt7__cxx1112basic_stringIcSt11char_traitsIcESaIcEEEPS0_
htmd:_ZN2el14Configurations16hasConfigurationENS_17ConfigurationTypeE
htmd:_ZN2el14Configurations16hasConfigurationENS_5LevelENS_17ConfigurationTypeE
htmd:_ZN2el14Configurations17unsafeSetGloballyENS_17ConfigurationTypeERKNSt7__cxx1112basic_stringIcSt11char_traitsIcESaIcEEEb
htmd:_ZN2el14Configurations19unsafeSetIfNotExistENS_5LevelENS_17ConfigurationTypeERKNSt7__cxx1112basic_stringIcSt11char_traitsIcESaIcEEE
htmd:_ZN2el14Configurations21setRemainingToDefaultEv
htmd:_ZN2el14Configurations3setENS_5LevelENS_17ConfigurationTypeERKNSt7__cxx1112basic_stringIcSt11char_traitsIcESaIcEEE
htmd:_ZN2el14Configurations3setEPNS_13ConfigurationE
htmd:_ZN2el14Configurations6Parser13parseFromFileERKNSt7__cxx1112basic_stringIcSt11char_traitsIcESaIcEEEPS0_SA_
htmd:_ZN2el14Configurations6Parser13parseFromTextERKNSt7__cxx1112basic_stringIcSt11char_traitsIcESaIcEEEPS0_SA_
htmd:_ZN2el14Configurations6Parser14ignoreCommentsEPNSt7__cxx1112basic_stringIcSt11char_traitsIcESaIcEEE
htmd:_ZN2el14Configurations6Parser7isLevelERKNSt7__cxx1112basic_stringIcSt11char_traitsIcESaIcEEE
htmd:_ZN2el14Configurations6Parser9isCommentERKNSt7__cxx1112basic_stringIcSt11char_traitsIcESaIcEEE
htmd:_ZN2el14Configurations6Parser9parseLineEPNSt7__cxx1112basic_stringIcSt11char_traitsIcESaIcEEES8_S8_PNS_5LevelEPS0_
htmd:_ZN2el14Configurations9unsafeSetENS_5LevelENS_17ConfigurationTypeERKNSt7__cxx1112basic_stringIcSt11char_traitsIcESaIcEEE
htmd:_ZN2el14ConfigurationsC1ERKNSt7__cxx1112basic_stringIcSt11char_traitsIcESaIcEEEbPS0_
htmd:_ZN2el14ConfigurationsC1Ev
htmd:_ZN2el14ConfigurationsC2ERKNSt7__cxx1112basic_stringIcSt11char_traitsIcESaIcEEEbPS0_
htmd:_ZN2el14ConfigurationsC2Ev
htmd:_ZN2el14elCrashHandlerE
htmd:_ZN2el19LogDispatchCallback10fileHandleEPKNS_15LogDispatchDataE
htmd:_ZN2el19LogDispatchCallback6handleEPKNS_15LogDispatchDataE
htmd:_ZN2el23ConfigurationTypeHelper15convertToStringENS_17ConfigurationTypeE
htmd:_ZN2el23ConfigurationTypeHelper17convertFromStringEPKc
htmd:_ZN2el4base12PErrorWriterD0Ev
htmd:_ZN2el4base12PErrorWriterD1Ev
htmd:_ZN2el4base12PErrorWriterD2Ev
htmd:_ZN2el4base13LogDispatcher8dispatchEv
htmd:_ZN2el4base14MessageBuilder10initializeEPNS_6LoggerE
htmd:_ZN2el4base14MessageBuilderlsEPKw
htmd:_ZN2el4base17RegisteredLoggers14unsafeFlushAllEv
htmd:_ZN2el4base17RegisteredLoggers3getERKNSt7__cxx1112basic_stringIcSt11char_traitsIcESaIcEEEb
htmd:_ZN2el4base17RegisteredLoggers6removeERKNSt7__cxx1112basic_stringIcSt11char_traitsIcESaIcEEE
htmd:_ZN2el4base17RegisteredLoggersC1ERKSt10shared_ptrINS_10LogBuilderEE
htmd:_ZN2el4base17RegisteredLoggersC2ERKSt10shared_ptrINS_10LogBuilderEE
htmd:_ZN2el4base18SubsecondPrecision4initEi
htmd:_ZN2el4base19TypedConfigurations10fileStreamENS_5LevelE
htmd:_ZN2el4base19TypedConfigurations10insertFileENS_5LevelERKNSt7__cxx1112basic_stringIcSt11char_traitsIcESaIcEEE
htmd:_ZN2el4base19TypedConfigurations14maxLogFileSizeENS_5LevelE
htmd:_ZN2el4base19TypedConfigurations15resolveFilenameERKNSt7__cxx1112basic_stringIcSt11char_traitsIcESaIcEEE
htmd:_ZN2el4base19TypedConfigurations16toStandardOutputENS_5LevelE
htmd:_ZN2el4base19TypedConfigurations17logFlushThresholdENS_5LevelE
htmd:_ZN2el4base19TypedConfigurations17millisecondsWidthENS_5LevelE
htmd:_ZN2el4base19TypedConfigurations18subsecondPrecisionENS_5LevelE
htmd:_ZN2el4base19TypedConfigurations19performanceTrackingENS_5LevelE
htmd:_ZN2el4base19TypedConfigurations25unsafeValidateFileRollingENS_5LevelERKSt8functionIFvPKcmEE
htmd:_ZN2el4base19TypedConfigurations5buildEPNS_14ConfigurationsE
htmd:_ZN2el4base19TypedConfigurations6toFileENS_5LevelE
htmd:_ZN2el4base19TypedConfigurations7enabledENS_5LevelE
htmd:_ZN2el4base19TypedConfigurations8filenameB5cxx11ENS_5LevelE
htmd:_ZN2el4base19TypedConfigurations8getULongENSt7__cxx1112basic_stringIcSt11char_traitsIcESaIcEEE
htmd:_ZN2el4base19TypedConfigurations9logFormatENS_5LevelE
htmd:_ZN2el4base19TypedConfigurationsC1EPNS_14ConfigurationsESt10shared_ptrISt13unordered_mapINSt7__cxx1112basic_stringIcSt11char_traitsIcESaIcEEES4_ISt13basic_fstreamIcS9_EESt4hashISB_ESt8equal_toISB_ESaISt4pairIKSB_SE_EEEE
htmd:_ZN2el4base19TypedConfigurationsC1ERKS1_
htmd:_ZN2el4base19TypedConfigurationsC2EPNS_14ConfigurationsESt10shared_ptrISt13unordered_mapINSt7__cxx1112basic_stringIcSt11char_traitsIcESaIcEEES4_ISt13basic_fstreamIcS9_EESt4hashISB_ESt8equal_toISB_ESaISt4pairIKSB_SE_EEEE
htmd:_ZN2el4base19TypedConfigurationsC2ERKS1_
htmd:_ZN2el4base21RegisteredHitCounters14validateAfterNEPKcmm
htmd:_ZN2el4base21RegisteredHitCounters14validateEveryNEPKcmm
htmd:_ZN2el4base21RegisteredHitCounters14validateNTimesEPKcmm
htmd:_ZN2el4base26DefaultLogDispatchCallback6handleEPKNS_15LogDispatchDataE
htmd:_ZN2el4base26DefaultLogDispatchCallback8dispatchEONSt7__cxx1112basic_stringIcSt11char_traitsIcESaIcEEE
htmd:_ZN2el4base5debug10StackTrace11generateNewEv
htmd:_ZN2el4base5debug10StackTrace15StackTraceEntryC1EmRKNSt7__cxx1112basic_stringIcSt11char_traitsIcESaIcEEESB_SB_SB_
htmd:_ZN2el4base5debug10StackTrace15StackTraceEntryC2EmRKNSt7__cxx1112basic_stringIcSt11char_traitsIcESaIcEEESB_SB_SB_
htmd:_ZN2el4base5debug12CrashHandler10setHandlerERKPFviE
htmd:_ZN2el4base5debug12CrashHandlerC1Eb
htmd:_ZN2el4base5debug12CrashHandlerC2Eb
htmd:_ZN2el4base5debuglsERSoRKNS1_10StackTrace15StackTraceEntryE
htmd:_ZN2el4base5debuglsERSoRKNS1_10StackTraceE
htmd:_ZN2el4base5utils15CommandLineArgs7setArgsEiPPc
htmd:_ZN2el4base5utils2OS11currentHostB5cxx11Ev
htmd:_ZN2el4base5utils2OS11currentUserB5cxx11Ev
htmd:_ZN2el4base5utils2OS13getBashOutputB5cxx11EPKc
htmd:_ZN2el4base5utils2OS17termSupportsColorEv
htmd:_ZN2el4base5utils2OS22getEnvironmentVariableB5cxx11EPKcS4_S4_
htmd:_ZN2el4base5utils3Str10replaceAllERNSt7__cxx1112basic_stringIcSt11char_traitsIcESaIcEEERKS8_SB_
htmd:_ZN2el4base5utils3Str10replaceAllERNSt7__cxx1112basic_stringIcSt11char_traitsIcESaIcEEEcc
htmd:_ZN2el4base5utils3Str10startsWithERKNSt7__cxx1112basic_stringIcSt11char_traitsIcESaIcEEESA_
htmd:_ZN2el4base5utils3Str13cStringCaseEqEPKcS4_
htmd:_ZN2el4base5utils3Str13wildCardMatchEPKcS4_
htmd:_ZN2el4base5utils3Str17wcharPtrToCharPtrEPKw
htmd:_ZN2el4base5utils3Str19convertAndAddToBuffEmiPcPKcb
htmd:_ZN2el4base5utils3Str22replaceFirstWithEscapeERNSt7__cxx1112basic_stringIcSt11char_traitsIcESaIcEEERKS8_SB_
htmd:_ZN2el4base5utils3Str4trimERNSt7__cxx1112basic_stringIcSt11char_traitsIcESaIcEEE
htmd:_ZN2el4base5utils3Str5ltrimERNSt7__cxx1112basic_stringIcSt11char_traitsIcESaIcEEE
htmd:_ZN2el4base5utils3Str5rtrimERNSt7__cxx1112basic_stringIcSt11char_traitsIcESaIcEEE
htmd:_ZN2el4base5utils3Str7toUpperERNSt7__cxx1112basic_stringIcSt11char_traitsIcESaIcEEE
htmd:_ZN2el4base5utils3Str8containsEPKcc
htmd:_ZN2el4base5utils3Str8endsWithERKNSt7__cxx1112basic_stringIcSt11char_traitsIcESaIcEEESA_
htmd:_ZN2el4base5utils3Str9addToBuffEPKcPcS4_
htmd:_ZN2el4base5utils3Str9cStringEqEPKcS4_
htmd:_ZN2el4base5utils3Str9clearBuffEPcm
htmd:_ZN2el4base5utils4File10createPathERKNSt7__cxx1112basic_stringIcSt11char_traitsIcESaIcEEE
htmd:_ZN2el4base5utils4File10pathExistsEPKcb
htmd:_ZN2el4base5utils4File13getSizeOfFileEPSt13basic_fstreamIcSt11char_traitsIcEE
htmd:_ZN2el4base5utils4File13newFileStreamERKNSt7__cxx1112basic_stringIcSt11char_traitsIcESaIcEEE
htmd:_ZN2el4base5utils4File17buildBaseFilenameERKNSt7__cxx1112basic_stringIcSt11char_traitsIcESaIcEEEPcmPKc
htmd:_ZN2el4base5utils4File21buildStrippedFilenameEPKcPcm
htmd:_ZN2el4base5utils4File23extractPathFromFilenameERKNSt7__cxx1112basic_stringIcSt11char_traitsIcESaIcEEEPKc
htmd:_ZN2el4base5utils8DateTime10formatTimeB5cxx11EyNS0_13TimestampUnitE
htmd:_ZN2el4base5utils8DateTime11getDateTimeB5cxx11EPKcPKNS0_18SubsecondPrecisionE
htmd:_ZN2el4base5utils8DateTime11parseFormatEPcmPKcPK2tmmPKNS0_18SubsecondPrecisionE
htmd:_ZN2el4base5utils8DateTime12gettimeofdayEP7timeval
htmd:_ZN2el4base5utils8DateTime13buildTimeInfoEP7timevalP2tm
htmd:_ZN2el4base5utils8DateTime15timevalToStringB5cxx11E7timevalPKcPKNS0_18SubsecondPrecisionE
htmd:_ZN2el4base5utils8DateTime17getTimeDifferenceERK7timevalS5_NS0_13TimestampUnitE
htmd:_ZN2el4base5utilslsERSoRKNS1_15CommandLineArgsE
htmd:_ZN2el4base6Writer15processDispatchEv
htmd:_ZN2el4base6Writer15triggerDispatchEv
htmd:_ZN2el4base6Writer16initializeLoggerERKNSt7__cxx1112basic_stringIcSt11char_traitsIcESaIcEEEbb
htmd:_ZN2el4base6Writer9constructEPNS_6LoggerEb
htmd:_ZN2el4base6Writer9constructEiPKcz
htmd:_ZN2el4base7Storage23setApplicationArgumentsEiPPc
htmd:_ZN2el4base7Storage24hasCustomFormatSpecifierEPKc
htmd:_ZN2el4base7Storage28installCustomFormatSpecifierERKNS_21CustomFormatSpecifierE
htmd:_ZN2el4base7Storage30uninstallCustomFormatSpecifierEPKc
htmd:_ZN2el4base7StorageC1ERKSt10shared_ptrINS_10LogBuilderEE
htmd:_ZN2el4base7StorageC2ERKSt10shared_ptrINS_10LogBuilderEE
htmd:_ZN2el4base7StorageD0Ev
htmd:_ZN2el4base7StorageD1Ev
htmd:_ZN2el4base7StorageD2Ev
htmd:_ZN2el4base9LogFormat15parseFromFormatERKNSt7__cxx1112basic_stringIcSt11char_traitsIcESaIcEEE
htmd:_ZN2el4base9LogFormat16updateDateFormatEmRNSt7__cxx1112basic_stringIcSt11char_traitsIcESaIcEEE
htmd:_ZN2el4base9LogFormat16updateFormatSpecEv
htmd:_ZN2el4base9LogFormatC1ENS_5LevelERKNSt7__cxx1112basic_stringIcSt11char_traitsIcESaIcEEE
htmd:_ZN2el4base9LogFormatC1EOS1_
htmd:_ZN2el4base9LogFormatC1ERKS1_
htmd:_ZN2el4base9LogFormatC1Ev
htmd:_ZN2el4base9LogFormatC2ENS_5LevelERKNSt7__cxx1112basic_stringIcSt11char_traitsIcESaIcEEE
htmd:_ZN2el4base9LogFormatC2EOS1_
htmd:_ZN2el4base9LogFormatC2ERKS1_
htmd:_ZN2el4base9LogFormatC2Ev
htmd:_ZN2el4base9LogFormataSERKS1_
htmd:_ZN2el4base9LogFormateqERKS1_
htmd:_ZN2el4base9VRegistry10setModulesEPKc
htmd:_ZN2el4base9VRegistry11setFromArgsEPKNS0_5utils15CommandLineArgsE
htmd:_ZN2el4base9VRegistry7allowedEtPKc
htmd:_ZN2el4base9VRegistry8setLevelEt
htmd:_ZN2el4base9VRegistryC1EtPj
htmd:_ZN2el4base9VRegistryC2EtPj
htmd:_ZN2el4base9elStorageE
htmd:_ZN2el6Logger11reconfigureEv
htmd:_ZN2el6Logger18initUnflushedCountEv
htmd:_ZN2el6Logger5flushENS_5LevelEPSt13basic_fstreamIcSt11char_traitsIcEE
htmd:_ZN2el6Logger5flushEv
htmd:_ZN2el6Logger9configureERKNS_14ConfigurationsE
htmd:_ZN2el6Logger9isValidIdERKNSt7__cxx1112basic_stringIcSt11char_traitsIcESaIcEEE
htmd:_ZN2el6LoggerC1ERKNSt7__cxx1112basic_stringIcSt11char_traitsIcESaIcEEERKNS_14ConfigurationsESt10shared_ptrISt13unordered_mapIS6_SC_ISt13basic_fstreamIcS4_EESt4hashIS6_ESt8equal_toIS6_ESaISt4pairIS7_SG_EEEE
htmd:_ZN2el6LoggerC1ERKNSt7__cxx1112basic_stringIcSt11char_traitsIcESaIcEEESt10shared_ptrISt13unordered_mapIS6_S9_ISt13basic_fstreamIcS4_EESt4hashIS6_ESt8equal_toIS6_ESaISt4pairIS7_SD_EEEE
htmd:_ZN2el6LoggerC1ERKS0_
htmd:_ZN2el6LoggerC2ERKNSt7__cxx1112basic_stringIcSt11char_traitsIcESaIcEEERKNS_14ConfigurationsESt10shared_ptrISt13unordered_mapIS6_SC_ISt13basic_fstreamIcS4_EESt4hashIS6_ESt8equal_toIS6_ESaISt4pairIS7_SG_EEEE
htmd:_ZN2el6LoggerC2ERKNSt7__cxx1112basic_stringIcSt11char_traitsIcESaIcEEESt10shared_ptrISt13unordered_mapIS6_S9_ISt13basic_fstreamIcS4_EESt4hashIS6_ESt8equal_toIS6_ESaISt4pairIS7_SD_EEEE
htmd:_ZN2el6LoggerC2ERKS0_
htmd:_ZN2el6LoggeraSERKS0_
htmd:_ZN2el7Helpers10crashAbortEiPKcm
htmd:_ZN2el7Helpers14logCrashReasonEibNS_5LevelEPKc
htmd:_ZN2el7Loggers11setVModulesEPKc
htmd:_ZN2el7Loggers12verboseLevelEv
htmd:_ZN2el7Loggers13clearVModulesEv
htmd:_ZN2el7Loggers15setVerboseLevelEt
htmd:_ZN2el7Loggers16configureFromArgEPKc
htmd:_ZN2el7Loggers16unregisterLoggerERKNSt7__cxx1112basic_stringIcSt11char_traitsIcESaIcEEE
htmd:_ZN2el7Loggers17reconfigureLoggerEPNS_6LoggerERKNS_14ConfigurationsE
htmd:_ZN2el7Loggers17reconfigureLoggerERKNSt7__cxx1112basic_stringIcSt11char_traitsIcESaIcEEENS_17ConfigurationTypeES8_
htmd:_ZN2el7Loggers17reconfigureLoggerERKNSt7__cxx1112basic_stringIcSt11char_traitsIcESaIcEEERKNS_14ConfigurationsE
htmd:_ZN2el7Loggers19configureFromGlobalEPKc
htmd:_ZN2el7Loggers19logStreamsReferenceB5cxx11Ev
htmd:_ZN2el7Loggers20populateAllLoggerIdsEPSt6vectorINSt7__cxx1112basic_stringIcSt11char_traitsIcESaIcEEESaIS7_EE
htmd:_ZN2el7Loggers20setDefaultLogBuilderERSt10shared_ptrINS_10LogBuilderEE
htmd:_ZN2el7Loggers21defaultConfigurationsEv
htmd:_ZN2el7Loggers21reconfigureAllLoggersENS_5LevelENS_17ConfigurationTypeERKNSt7__cxx1112basic_stringIcSt11char_traitsIcESaIcEEE
htmd:_ZN2el7Loggers21reconfigureAllLoggersERKNS_14ConfigurationsE
htmd:_ZN2el7Loggers24setDefaultConfigurationsERKNS_14ConfigurationsEb
htmd:_ZN2el7Loggers26defaultTypedConfigurationsEv
htmd:_ZN2el7Loggers8flushAllEv
htmd:_ZN2el7Loggers9getLoggerERKNSt7__cxx1112basic_stringIcSt11char_traitsIcESaIcEEEb
htmd:_ZN2el7Loggers9hasLoggerERKNSt7__cxx1112basic_stringIcSt11char_traitsIcESaIcEEE
htmd:_ZN2et10LogHandler12setupLogFileEPN2el14ConfigurationsENSt7__cxx1112basic_stringIcSt11char_traitsIcESaIcEEES9_
htmd:_ZN2et10LogHandler12stderrToFileERKNSt7__cxx1112basic_stringIcSt11char_traitsIcESaIcEEE
htmd:_ZN2et10LogHandler14rolloutHandlerEPKcm
htmd:_ZN2et10LogHandler15setupLogHandlerEPiPPPc
htmd:_ZN2et10LogHandler17setupStdoutLoggerEv
htmd:_ZN2et13CatchupBuffer12InternalSwapEPS0_
htmd:_ZN2et13CatchupBuffer14_InternalParseEPKcPN6google8protobuf8internal12ParseContextE
htmd:_ZN2et13CatchupBuffer21CheckTypeAndMergeFromERKN6google8protobuf11MessageLiteE
htmd:_ZN2et13CatchupBuffer5ClearEv
htmd:_ZN2et13CatchupBuffer8CopyFromERKS0_
htmd:_ZN2et13CatchupBuffer9MergeFromERKS0_
htmd:_ZN2et13CatchupBufferC1EPN6google8protobuf5ArenaEb
htmd:_ZN2et13CatchupBufferC1ERKS0_
htmd:_ZN2et13CatchupBufferC2EPN6google8protobuf5ArenaEb
htmd:_ZN2et13CatchupBufferC2ERKS0_
htmd:_ZN2et13CatchupBufferD0Ev
htmd:_ZN2et13CatchupBufferD1Ev
htmd:_ZN2et13CatchupBufferD2Ev
htmd:_ZN2et13IpcPairServer10pollAcceptEv
htmd:_ZN2et13IpcPairServerC1ESt10shared_ptrINS_13SocketHandlerEERKNS_14SocketEndpointE
htmd:_ZN2et13IpcPairServerC2ESt10shared_ptrINS_13SocketHandlerEERKNS_14SocketEndpointE
htmd:_ZN2et13IpcPairServerD0Ev
htmd:_ZN2et13IpcPairServerD1Ev
htmd:_ZN2et13IpcPairServerD2Ev
htmd:_ZN2et13SocketHandler15writeAllOrThrowEiPKvmb
htmd:_ZN2et13SocketHandler16writeAllOrReturnEiPKvm
htmd:_ZN2et13SocketHandler20readB64EncodedLengthEiPNSt7__cxx1112basic_stringIcSt11char_traitsIcESaIcEEEm
htmd:_ZN2et13SocketHandler7readAllEiPvmb
htmd:_ZN2et13SocketHandler7readB64EiPcm
htmd:_ZN2et13SocketHandler8writeB64EiPKcm
htmd:_ZN2et14ConnectRequest12InternalSwapEPS0_
htmd:_ZN2et14ConnectRequest14_InternalParseEPKcPN6google8protobuf8internal12ParseContextE
htmd:_ZN2et14ConnectRequest21CheckTypeAndMergeFromERKN6google8protobuf11MessageLiteE
htmd:_ZN2et14ConnectRequest5ClearEv
htmd:_ZN2et14ConnectRequest8CopyFromERKS0_
htmd:_ZN2et14ConnectRequest9MergeFromERKS0_
htmd:_ZN2et14ConnectRequestC1EPN6google8protobuf5ArenaEb
htmd:_ZN2et14ConnectRequestC1ERKS0_
htmd:_ZN2et14ConnectRequestC2EPN6google8protobuf5ArenaEb
htmd:_ZN2et14ConnectRequestC2ERKS0_
htmd:_ZN2et14ConnectRequestD0Ev
htmd:_ZN2et14ConnectRequestD1Ev
htmd:_ZN2et14ConnectRequestD2Ev
htmd:_ZN2et14RawSocketUtils7readAllEiPcm
htmd:_ZN2et14RawSocketUtils8writeAllEiPKcm
htmd:_ZN2et14SequenceHeader12InternalSwapEPS0_
htmd:_ZN2et14SequenceHeader14_InternalParseEPKcPN6google8protobuf8internal12ParseContextE
htmd:_ZN2et14SequenceHeader21CheckTypeAndMergeFromERKN6google8protobuf11MessageLiteE
htmd:_ZN2et14SequenceHeader5ClearEv
htmd:_ZN2et14SequenceHeader8CopyFromERKS0_
htmd:_ZN2et14SequenceHeader9MergeFromERKS0_
htmd:_ZN2et14SequenceHeaderC1EPN6google8protobuf5ArenaEb
htmd:_ZN2et14SequenceHeaderC1ERKS0_
htmd:_ZN2et14SequenceHeaderC2EPN6google8protobuf5ArenaEb
htmd:_ZN2et14SequenceHeaderC2ERKS0_
htmd:_ZN2et14SequenceHeaderD0Ev
htmd:_ZN2et14SequenceHeaderD1Ev
htmd:_ZN2et14SequenceHeaderD2Ev
htmd:_ZN2et14SocketEndpoint12InternalSwapEPS0_
htmd:_ZN2et14SocketEndpoint14_InternalParseEPKcPN6google8protobuf8internal12ParseContextE
htmd:_ZN2et14SocketEndpoint21CheckTypeAndMergeFromERKN6google8protobuf11MessageLiteE
htmd:_ZN2et14SocketEndpoint5ClearEv
htmd:_ZN2et14SocketEndpoint8CopyFromERKS0_
htmd:_ZN2et14SocketEndpoint9MergeFromERKS0_
htmd:_ZN2et14SocketEndpointC1EPN6google8protobuf5ArenaEb
htmd:_ZN2et14SocketEndpointC1ERKS0_
htmd:_ZN2et14SocketEndpointC2EPN6google8protobuf5ArenaEb
htmd:_ZN2et14SocketEndpointC2ERKS0_
htmd:_ZN2et14SocketEndpointD0Ev
htmd:_ZN2et14SocketEndpointD1Ev
htmd:_ZN2et14SocketEndpointD2Ev
htmd:_ZN2et15ConnectResponse12InternalSwapEPS0_
htmd:_ZN2et15ConnectResponse14_InternalParseEPKcPN6google8protobuf8internal12ParseContextE
htmd:_ZN2et15ConnectResponse21CheckTypeAndMergeFromERKN6google8protobuf11MessageLiteE
htmd:_ZN2et15ConnectResponse5ClearEv
htmd:_ZN2et15ConnectResponse8CopyFromERKS0_
htmd:_ZN2et15ConnectResponse9MergeFromERKS0_
htmd:_ZN2et15ConnectResponseC1EPN6google8protobuf5ArenaEb
htmd:_ZN2et15ConnectResponseC1ERKS0_
htmd:_ZN2et15ConnectResponseC2EPN6google8protobuf5ArenaEb
htmd:_ZN2et15ConnectResponseC2ERKS0_
htmd:_ZN2et15ConnectResponseD0Ev
htmd:_ZN2et15ConnectResponseD1Ev
htmd:_ZN2et15ConnectResponseD2Ev
htmd:_ZN2et15IpcPairEndpointC1ESt10shared_ptrINS_13SocketHandlerEEi
htmd:_ZN2et15IpcPairEndpointC2ESt10shared_ptrINS_13SocketHandlerEEi
htmd:_ZN2et15IpcPairEndpointD0Ev
htmd:_ZN2et15IpcPairEndpointD1Ev
htmd:_ZN2et15IpcPairEndpointD2Ev
htmd:_ZN2et15TerminalHandler10appendDataERKNSt7__cxx1112basic_stringIcSt11char_traitsIcESaIcEEE
htmd:_ZN2et15TerminalHandler16pollUserTerminalB5cxx11Ev
htmd:_ZN2et15TerminalHandler18updateTerminalSizeEii
htmd:_ZN2et15TerminalHandler4stopEv
htmd:_ZN2et15TerminalHandler5startEv
htmd:_ZN2et15TerminalHandlerC1Ev
htmd:_ZN2et15TerminalHandlerC2Ev
htmd:_ZN2et16MultiplexerState10appendDataERKNSt7__cxx1112basic_stringIcSt11char_traitsIcESaIcEEES8_
htmd:_ZN2et16MultiplexerState10resizePaneERKNSt7__cxx1112basic_stringIcSt11char_traitsIcESaIcEEEii
htmd:_ZN2et16MultiplexerState12fatalIfFoundERKNSt7__cxx1112basic_stringIcSt11char_traitsIcESaIcEEE
htmd:_ZN2et16MultiplexerState12toJsonStringB5cxx11Ev
htmd:_ZN2et16MultiplexerState19sendTerminalBuffersEi
htmd:_ZN2et16MultiplexerState6newTabERKNSt7__cxx1112basic_stringIcSt11char_traitsIcESaIcEEES8_
htmd:_ZN2et16MultiplexerState6updateEi
htmd:_ZN2et16MultiplexerState8newSplitERKNSt7__cxx1112basic_stringIcSt11char_traitsIcESaIcEEES8_b
htmd:_ZN2et16MultiplexerState9closePaneERKNSt7__cxx1112basic_stringIcSt11char_traitsIcESaIcEEE
htmd:_ZN2et16MultiplexerStateC1ESt10shared_ptrINS_13SocketHandlerEE
htmd:_ZN2et16MultiplexerStateC2ESt10shared_ptrINS_13SocketHandlerEE
htmd:_ZN2et17EtPacketType_NameB5cxx11ENS_12EtPacketTypeE
htmd:_ZN2et17PipeSocketHandler13stopListeningERKNS_14SocketEndpointE
htmd:_ZN2et17PipeSocketHandler14getEndpointFdsERKNS_14SocketEndpointE
htmd:_ZN2et17PipeSocketHandler6listenERKNS_14SocketEndpointE
htmd:_ZN2et17PipeSocketHandler7connectERKNS_14SocketEndpointE
htmd:_ZN2et17PipeSocketHandlerC1Ev
htmd:_ZN2et17PipeSocketHandlerC2Ev
htmd:_ZN2et17UnixSocketHandler10initSocketEi
htmd:_ZN2et17UnixSocketHandler11setBlockingEib
htmd:_ZN2et17UnixSocketHandler11waitForDataEill
htmd:_ZN2et17UnixSocketHandler16getActiveSocketsEv
htmd:_ZN2et17UnixSocketHandler16initServerSocketEi
htmd:_ZN2et17UnixSocketHandler18addToActiveSocketsEi
htmd:_ZN2et17UnixSocketHandler4readEiPvm
htmd:_ZN2et17UnixSocketHandler5closeEi
htmd:_ZN2et17UnixSocketHandler5writeEiPKvm
htmd:_ZN2et17UnixSocketHandler6acceptEi
htmd:_ZN2et17UnixSocketHandler7hasDataEi
htmd:_ZN2et17UnixSocketHandlerC1Ev
htmd:_ZN2et17UnixSocketHandlerC2Ev
htmd:_ZN2et18ConnectStatus_NameB5cxx11ENS_13ConnectStatusE
htmd:_ZN2et18EtPacketType_ParseERKNSt7__cxx1112basic_stringIcSt11char_traitsIcESaIcEEEPNS_12EtPacketTypeE
htmd:_ZN2et19ConnectStatus_ParseERKNSt7__cxx1112basic_stringIcSt11char_traitsIcESaIcEEEPNS_13ConnectStatusE
htmd:_ZN2et20EtPacketType_IsValidEi
htmd:_ZN2et21ConnectStatus_IsValidEi
htmd:_ZN2et32_CatchupBuffer_default_instance_E
htmd:_ZN2et33_ConnectRequest_default_instance_E
htmd:_ZN2et33_SequenceHeader_default_instance_E
htmd:_ZN2et33_SocketEndpoint_default_instance_E
htmd:_ZN2et34_ConnectResponse_default_instance_E
htmd:_ZN2et9HtmServer11getPipeNameB5cxx11Ev
htmd:_ZN2et9HtmServer3runEv
htmd:_ZN2et9HtmServer7recoverEv
htmd:_ZN2et9HtmServer9sendDebugERKNSt7__cxx1112basic_stringIcSt11char_traitsIcESaIcEEE
htmd:_ZN2et9HtmServerC1ESt10shared_ptrINS_13SocketHandlerEERKNS_14SocketEndpointE
htmd:_ZN2et9HtmServerC2ESt10shared_ptrINS_13SocketHandlerEERKNS_14SocketEndpointE
htmd:_ZN6google8protobuf5Arena18CreateMaybeMessageIN2et13CatchupBufferEJEEEPT_PS1_DpOT0_
htmd:_ZN6google8protobuf5Arena18CreateMaybeMessageIN2et14ConnectRequestEJEEEPT_PS1_DpOT0_
htmd:_ZN6google8protobuf5Arena18CreateMaybeMessageIN2et14SequenceHeaderEJEEEPT_PS1_DpOT0_
htmd:_ZN6google8protobuf5Arena18CreateMaybeMessageIN2et14SocketEndpointEJEEEPT_PS1_DpOT0_
htmd:_ZN6google8protobuf5Arena18CreateMaybeMessageIN2et15ConnectResponseEJEEEPT_PS1_DpOT0_
htmd:_ZNK2el13Configuration3logERSo
htmd:_ZNK2el13Configuration9PredicateclEPKS0_
htmd:_ZNK2el4base17DefaultLogBuilder5buildB5cxx11EPKNS_10LogMessageEb
htmd:_ZNK2el4base5utils15CommandLineArgs13getParamValueEPKc
htmd:_ZNK2el4base5utils15CommandLineArgs17hasParamWithValueEPKc
htmd:_ZNK2el4base5utils15CommandLineArgs4sizeEv
htmd:_ZNK2el4base5utils15CommandLineArgs5emptyEv
htmd:_ZNK2el4base5utils15CommandLineArgs8hasParamEPKc
htmd:_ZNK2el6Logger23resolveLoggerFormatSpecEv
htmd:_ZNK2et13CatchupBuffer11GetTypeNameB5cxx11Ev
htmd:_ZNK2et13CatchupBuffer12ByteSizeLongEv
htmd:_ZNK2et13CatchupBuffer13IsInitializedEv
htmd:_ZNK2et13CatchupBuffer13SetCachedSizeEi
htmd:_ZNK2et13CatchupBuffer18_InternalSerializeEPhPN6google8protobuf2io19EpsCopyOutputStreamE
htmd:_ZNK2et14ConnectRequest11GetTypeNameB5cxx11Ev
htmd:_ZNK2et14ConnectRequest12ByteSizeLongEv
htmd:_ZNK2et14ConnectRequest13IsInitializedEv
htmd:_ZNK2et14ConnectRequest13SetCachedSizeEi
htmd:_ZNK2et14ConnectRequest18_InternalSerializeEPhPN6google8protobuf2io19EpsCopyOutputStreamE
htmd:_ZNK2et14SequenceHeader11GetTypeNameB5cxx11Ev
htmd:_ZNK2et14SequenceHeader12ByteSizeLongEv
htmd:_ZNK2et14SequenceHeader13IsInitializedEv
htmd:_ZNK2et14SequenceHeader13SetCachedSizeEi
htmd:_ZNK2et14SequenceHeader18_InternalSerializeEPhPN6google8protobuf2io19EpsCopyOutputStreamE
htmd:_ZNK2et14SocketEndpoint11GetTypeNameB5cxx11Ev
htmd:_ZNK2et14SocketEndpoint12ByteSizeLongEv
htmd:_ZNK2et14SocketEndpoint13IsInitializedEv
htmd:_ZNK2et14SocketEndpoint13SetCachedSizeEi
htmd:_ZNK2et14SocketEndpoint18_InternalSerializeEPhPN6google8protobuf2io19EpsCopyOutputStreamE
htmd:_ZNK2et15ConnectResponse11GetTypeNameB5cxx11Ev
htmd:_ZNK2et15ConnectResponse12ByteSizeLongEv
htmd:_ZNK2et15ConnectResponse13IsInitializedEv
htmd:_ZNK2et15ConnectResponse13SetCachedSizeEi
htmd:_ZNK2et15ConnectResponse18_InternalSerializeEPhPN6google8protobuf2io19EpsCopyOutputStreamE
htmd:__bss_start
htmd:__data_start
htmd:_edata
htmd:_end
htmd:_start
htmd:main
