libQt5Core.so.5:_Z21qRegisterResourceDataiPKhS0_S0_
libQt5Core.so.5:_Z23qUnregisterResourceDataiPKhS0_S0_
libQt5Core.so.5:_Z5qHashRK7QStringj
libQt5Core.so.5:_Z6qIsInfd
libQt5Core.so.5:_Z6qIsNaNd
libQt5Core.so.5:_ZN10QArrayData10deallocateEPS_mm
libQt5Core.so.5:_ZN10QArrayData11shared_nullE
libQt5Core.so.5:_ZN10QArrayData8allocateEmmm6QFlagsINS_16AllocationOptionEE
libQt5Core.so.5:_ZN10QByteArray11reallocDataEj6QFlagsIN10QArrayData16AllocationOptionEE
libQt5Core.so.5:_ZN10QByteArray6appendEPKc
libQt5Core.so.5:_ZN10QByteArray6appendEPKci
libQt5Core.so.5:_ZN10QByteArray6appendEc
libQt5Core.so.5:_ZN10QByteArrayC1EPKci
libQt5Core.so.5:_ZN11QBasicTimer4stopEv
libQt5Core.so.5:_ZN11QBasicTimer5startEiP7QObject
libQt5Core.so.5:_ZN11QFileDevice5closeEv
libQt5Core.so.5:_ZN11QMetaObject10ConnectionD1Ev
libQt5Core.so.5:_ZN11QMetaObject14normalizedTypeEPKc
libQt5Core.so.5:_ZN11QMetaObject18connectSlotsByNameEP7QObject
libQt5Core.so.5:_ZN11QMetaObject8activateEP7QObjectPKS_iPPv
libQt5Core.so.5:_ZN11QTextStream8readLineEx
libQt5Core.so.5:_ZN11QTextStream9setDeviceEP9QIODevice
libQt5Core.so.5:_ZN11QTextStreamC1EP9QIODevice
libQt5Core.so.5:_ZN11QTextStreamC2EP9QIODevice
libQt5Core.so.5:_ZN11QTextStreamD1Ev
libQt5Core.so.5:_ZN11QTextStreamD2Ev
libQt5Core.so.5:_ZN11QTextStreamlsERK7QString
libQt5Core.so.5:_ZN11QTextStreamlsEc
libQt5Core.so.5:_ZN11QTextStreamlsEd
libQt5Core.so.5:_ZN11QTextStreamlsEi
libQt5Core.so.5:_ZN12QEasingCurveC1ENS_4TypeE
libQt5Core.so.5:_ZN12QEasingCurveC1ERKS_
libQt5Core.so.5:_ZN12QEasingCurveD1Ev
libQt5Core.so.5:_ZN12QMapDataBase10createDataEv
libQt5Core.so.5:_ZN12QMapDataBase10createNodeEiiP12QMapNodeBaseb
libQt5Core.so.5:_ZN12QMapDataBase11shared_nullE
libQt5Core.so.5:_ZN12QMapDataBase18recalcMostLeftNodeEv
libQt5Core.so.5:_ZN12QMapDataBase20freeNodeAndRebalanceEP12QMapNodeBase
libQt5Core.so.5:_ZN12QMapDataBase8freeDataEPS_
libQt5Core.so.5:_ZN12QMapDataBase8freeTreeEP12QMapNodeBasei
libQt5Core.so.5:_ZN13QElapsedTimer5startEv
libQt5Core.so.5:_ZN13QElapsedTimer7restartEv
libQt5Core.so.5:_ZN15QtSharedPointer20ExternalRefCountData16setQObjectSharedEPK7QObjectb
libQt5Core.so.5:_ZN15QtSharedPointer20ExternalRefCountData9getAndRefEPK7QObject
libQt5Core.so.5:_ZN16QCoreApplication18applicationDirPathEv
libQt5Core.so.5:_ZN16QCoreApplication9sendEventEP7QObjectP6QEvent
libQt5Core.so.5:_ZN16QCoreApplication9translateEPKcS1_S1_i
libQt5Core.so.5:_ZN16QRandomGenerator10_fillRangeEPvS0_
libQt5Core.so.5:_ZN17QVariantAnimation11qt_metacallEN11QMetaObject4CallEiPPv
libQt5Core.so.5:_ZN17QVariantAnimation11qt_metacastEPKc
libQt5Core.so.5:_ZN17QVariantAnimation11setDurationEi
libQt5Core.so.5:_ZN17QVariantAnimation11setEndValueERK8QVariant
libQt5Core.so.5:_ZN17QVariantAnimation11updateStateEN18QAbstractAnimation5StateES1_
libQt5Core.so.5:_ZN17QVariantAnimation12setKeyValuesERK7QVectorI5QPairId8QVariantEE
libQt5Core.so.5:_ZN17QVariantAnimation13setKeyValueAtEdRK8QVariant
libQt5Core.so.5:_ZN17QVariantAnimation13setStartValueERK8QVariant
libQt5Core.so.5:_ZN17QVariantAnimation14setEasingCurveERK12QEasingCurve
libQt5Core.so.5:_ZN17QVariantAnimation16staticMetaObjectE
libQt5Core.so.5:_ZN17QVariantAnimation17updateCurrentTimeEi
libQt5Core.so.5:_ZN17QVariantAnimation18updateCurrentValueERK8QVariant
libQt5Core.so.5:_ZN17QVariantAnimation5eventEP6QEvent
libQt5Core.so.5:_ZN17QVariantAnimationC2EP7QObject
libQt5Core.so.5:_ZN17QVariantAnimationD2Ev
libQt5Core.so.5:_ZN18QAbstractAnimation15updateDirectionENS_9DirectionE
libQt5Core.so.5:_ZN18QAbstractAnimation4stopEv
libQt5Core.so.5:_ZN18QAbstractAnimation5startENS_14DeletionPolicyE
libQt5Core.so.5:_ZN18QAbstractItemModel10insertRowsEiiRK11QModelIndex
libQt5Core.so.5:_ZN18QAbstractItemModel10removeRowsEiiRK11QModelIndex
libQt5Core.so.5:_ZN18QAbstractItemModel11dataChangedERK11QModelIndexS2_RK7QVectorIiE
libQt5Core.so.5:_ZN18QAbstractItemModel11moveColumnsERK11QModelIndexiiS2_i
libQt5Core.so.5:_ZN18QAbstractItemModel11setItemDataERK11QModelIndexRK4QMapIi8QVariantE
libQt5Core.so.5:_ZN18QAbstractItemModel13insertColumnsEiiRK11QModelIndex
libQt5Core.so.5:_ZN18QAbstractItemModel13removeColumnsEiiRK11QModelIndex
libQt5Core.so.5:_ZN18QAbstractItemModel13setHeaderDataEiN2Qt11OrientationERK8QVarianti
libQt5Core.so.5:_ZN18QAbstractItemModel16staticMetaObjectE
libQt5Core.so.5:_ZN18QAbstractItemModel4sortEiN2Qt9SortOrderE
libQt5Core.so.5:_ZN18QAbstractItemModel6revertEv
libQt5Core.so.5:_ZN18QAbstractItemModel6submitEv
libQt5Core.so.5:_ZN18QAbstractItemModel8moveRowsERK11QModelIndexiiS2_i
libQt5Core.so.5:_ZN18QAbstractItemModel9fetchMoreERK11QModelIndex
libQt5Core.so.5:_ZN18QRandomGenerator646globalEv
libQt5Core.so.5:_ZN18QRegularExpressionC1ERK7QString6QFlagsINS_13PatternOptionEE
libQt5Core.so.5:_ZN18QRegularExpressionD1Ev
libQt5Core.so.5:_ZN19QAbstractTableModel11qt_metacallEN11QMetaObject4CallEiPPv
libQt5Core.so.5:_ZN19QAbstractTableModel11qt_metacastEPKc
libQt5Core.so.5:_ZN19QAbstractTableModel12dropMimeDataEPK9QMimeDataN2Qt10DropActionEiiRK11QModelIndex
libQt5Core.so.5:_ZN19QAbstractTableModel16staticMetaObjectE
libQt5Core.so.5:_ZN19QAbstractTableModelC2EP7QObject
libQt5Core.so.5:_ZN19QAbstractTableModelD2Ev
libQt5Core.so.5:_ZN21QAbstractConcatenable14appendLatin1ToEPKciP5QChar
libQt5Core.so.5:_ZN23QRegularExpressionMatchC1Ev
libQt5Core.so.5:_ZN23QRegularExpressionMatchD1Ev
libQt5Core.so.5:_ZN4QUrlC1ERK7QStringNS_11ParsingModeE
libQt5Core.so.5:_ZN4QUrlD1Ev
libQt5Core.so.5:_ZN5QChar8categoryEj
libQt5Core.so.5:_ZN5QDateC1Eiii
libQt5Core.so.5:_ZN5QFile4openE6QFlagsIN9QIODevice12OpenModeFlagEE
libQt5Core.so.5:_ZN5QFileC1ERK7QString
libQt5Core.so.5:_ZN5QFileD1Ev
libQt5Core.so.5:_ZN6QDebug9putStringEPK5QCharm
libQt5Core.so.5:_ZN6QDebugD1Ev
libQt5Core.so.5:_ZN6QLineF9fromPolarEdd
libQt5Core.so.5:_ZN6QTimer10singleShotEiPK7QObjectPKc
libQt5Core.so.5:_ZN6QTimer11setIntervalEi
libQt5Core.so.5:_ZN6QTimer16staticMetaObjectE
libQt5Core.so.5:_ZN6QTimer4stopEv
libQt5Core.so.5:_ZN6QTimer5startEi
libQt5Core.so.5:_ZN6QTimer5startEv
libQt5Core.so.5:_ZN6QTimer7timeoutENS_14QPrivateSignalE
libQt5Core.so.5:_ZN6QTimerC1EP7QObject
libQt5Core.so.5:_ZN6QTimerD1Ev
libQt5Core.so.5:_ZN7QLocaleC1ERKS_
libQt5Core.so.5:_ZN7QLocaleC1Ev
libQt5Core.so.5:_ZN7QLocaleD1Ev
libQt5Core.so.5:_ZN7QLocaleaSERKS_
libQt5Core.so.5:_ZN7QObject10childEventEP11QChildEvent
libQt5Core.so.5:_ZN7QObject10disconnectEPKS_PKcS1_S3_
libQt5Core.so.5:_ZN7QObject10timerEventEP11QTimerEvent
libQt5Core.so.5:_ZN7QObject11connectImplEPKS_PPvS1_S3_PN9QtPrivate15QSlotObjectBaseEN2Qt14ConnectionTypeEPKiPK11QMetaObject
libQt5Core.so.5:_ZN7QObject11customEventEP6QEvent
libQt5Core.so.5:_ZN7QObject11deleteLaterEv
libQt5Core.so.5:_ZN7QObject11eventFilterEPS_P6QEvent
libQt5Core.so.5:_ZN7QObject11qt_metacallEN11QMetaObject4CallEiPPv
libQt5Core.so.5:_ZN7QObject11qt_metacastEPKc
libQt5Core.so.5:_ZN7QObject12blockSignalsEb
libQt5Core.so.5:_ZN7QObject13connectNotifyERK11QMetaMethod
libQt5Core.so.5:_ZN7QObject13setObjectNameERK7QString
libQt5Core.so.5:_ZN7QObject14disconnectImplEPKS_PPvS1_S3_PK11QMetaObject
libQt5Core.so.5:_ZN7QObject16disconnectNotifyERK11QMetaMethod
libQt5Core.so.5:_ZN7QObject16staticMetaObjectE
libQt5Core.so.5:_ZN7QObject5eventEP6QEvent
libQt5Core.so.5:_ZN7QObject7connectEPKS_PKcS1_S3_N2Qt14ConnectionTypeE
libQt5Core.so.5:_ZN7QObject9setParentEPS_
libQt5Core.so.5:_ZN7QObjectC2EPS_
libQt5Core.so.5:_ZN7QObjectD2Ev
libQt5Core.so.5:_ZN7QString14toUpper_helperERS_
libQt5Core.so.5:_ZN7QString15fromUtf8_helperEPKci
libQt5Core.so.5:_ZN7QString15toLatin1_helperERKS_
libQt5Core.so.5:_ZN7QString16fromAscii_helperEPKci
libQt5Core.so.5:_ZN7QString17fromLatin1_helperEPKci
libQt5Core.so.5:_ZN7QString4chopEi
libQt5Core.so.5:_ZN7QString6appendERKS_
libQt5Core.so.5:_ZN7QString6numberEdci
libQt5Core.so.5:_ZN7QString6numberEii
libQt5Core.so.5:_ZN7QString6numberEji
libQt5Core.so.5:_ZN7QString7replaceE5QCharS0_N2Qt15CaseSensitivityE
libQt5Core.so.5:_ZN7QString7replaceERKS_S1_N2Qt15CaseSensitivityE
libQt5Core.so.5:_ZN7QString8asprintfEPKcz
libQt5Core.so.5:_ZN7QStringC1EiN2Qt14InitializationE
libQt5Core.so.5:_ZN7QStringaSE13QLatin1String
libQt5Core.so.5:_ZN7QStringaSERKS_
libQt5Core.so.5:_ZN7QThread15currentThreadIdEv
libQt5Core.so.5:_ZN8QVariantC1EPKc
libQt5Core.so.5:_ZN8QVariantC1ERK5QDate
libQt5Core.so.5:_ZN8QVariantC1ERK7QString
libQt5Core.so.5:_ZN8QVariantC1ERK9QDateTime
libQt5Core.so.5:_ZN8QVariantC1ERKS_
libQt5Core.so.5:_ZN8QVariantC1Ed
libQt5Core.so.5:_ZN8QVariantC1Ei
libQt5Core.so.5:_ZN8QVariantC1EiPKvj
libQt5Core.so.5:_ZN8QVariantD1Ev
libQt5Core.so.5:_ZN9QDateTime10fromStringERK7QStringS2_
libQt5Core.so.5:_ZN9QDateTime19fromMSecsSinceEpochEx
libQt5Core.so.5:_ZN9QDateTime7setDateERK5QDate
libQt5Core.so.5:_ZN9QDateTimeC1ERKS_
libQt5Core.so.5:_ZN9QDateTimeC1Ev
libQt5Core.so.5:_ZN9QDateTimeD1Ev
libQt5Core.so.5:_ZN9QDateTimeaSERKS_
libQt5Core.so.5:_ZN9QHashData11free_helperEPFvPNS_4NodeEE
libQt5Core.so.5:_ZN9QHashData11shared_nullE
libQt5Core.so.5:_ZN9QHashData12allocateNodeEi
libQt5Core.so.5:_ZN9QHashData13detach_helperEPFvPNS_4NodeEPvEPFvS1_Eii
libQt5Core.so.5:_ZN9QHashData6rehashEi
libQt5Core.so.5:_ZN9QHashData8freeNodeEPv
libQt5Core.so.5:_ZN9QHashData8nextNodeEPNS_4NodeE
libQt5Core.so.5:_ZN9QListData11detach_growEPii
libQt5Core.so.5:_ZN9QListData11shared_nullE
libQt5Core.so.5:_ZN9QListData5eraseEPPv
libQt5Core.so.5:_ZN9QListData6appendERKS_
libQt5Core.so.5:_ZN9QListData6appendEv
libQt5Core.so.5:_ZN9QListData6detachEi
libQt5Core.so.5:_ZN9QListData6insertEi
libQt5Core.so.5:_ZN9QListData6removeEi
libQt5Core.so.5:_ZN9QListData7disposeEPNS_4DataE
libQt5Core.so.5:_ZN9QListData7reallocEi
libQt5Core.so.5:_ZN9QMetaType22registerNormalizedTypeERK10QByteArrayPFvPvEPFS3_S3_PKvEi6QFlagsINS_8TypeFlagEEPK11QMetaObject
libQt5Core.so.5:_ZN9QMetaType25registerConverterFunctionEPKN9QtPrivate25AbstractConverterFunctionEii
libQt5Core.so.5:_ZN9QMetaType25registerNormalizedTypedefERK10QByteArrayi
libQt5Core.so.5:_ZN9QMetaType27unregisterConverterFunctionEii
libQt5Core.so.5:_ZN9QMetaType30hasRegisteredConverterFunctionEii
libQt5Core.so.5:_ZN9QMetaType8typeNameEi
libQt5Core.so.5:_ZN9QtPrivate12argToQStringE11QStringViewmPPKNS_7ArgBaseE
libQt5Core.so.5:_ZN9QtPrivate20QStringList_containsEPK11QStringListRK7QStringN2Qt15CaseSensitivityE
libQt5Core.so.5:_ZNK10QByteArray8endsWithEc
libQt5Core.so.5:_ZNK11QMetaObject2trEPKcS1_i
libQt5Core.so.5:_ZNK11QMetaObject4castEP7QObject
libQt5Core.so.5:_ZNK11QMetaObject9classNameEv
libQt5Core.so.5:_ZNK11QObjectData17dynamicMetaObjectEv
libQt5Core.so.5:_ZNK11QTextStream5atEndEv
libQt5Core.so.5:_ZNK12QEasingCurveeqERKS_
libQt5Core.so.5:_ZNK12QMapNodeBase8nextNodeEv
libQt5Core.so.5:_ZNK13QElapsedTimer7elapsedEv
libQt5Core.so.5:_ZNK14QMessageLogger5debugEv
libQt5Core.so.5:_ZNK14QMessageLogger5fatalEPKcz
libQt5Core.so.5:_ZNK14QMessageLogger7warningEPKcz
libQt5Core.so.5:_ZNK14QMessageLogger7warningEv
libQt5Core.so.5:_ZNK17QVariantAnimation12interpolatedERK8QVariantS2_d
libQt5Core.so.5:_ZNK17QVariantAnimation8durationEv
libQt5Core.so.5:_ZNK18QAbstractAnimation5stateEv
libQt5Core.so.5:_ZNK18QAbstractItemModel12canFetchMoreERK11QModelIndex
libQt5Core.so.5:_ZNK18QAbstractItemModel15canDropMimeDataEPK9QMimeDataN2Qt10DropActionEiiRK11QModelIndex
libQt5Core.so.5:_ZNK18QAbstractItemModel20supportedDragActionsEv
libQt5Core.so.5:_ZNK18QAbstractItemModel20supportedDropActionsEv
libQt5Core.so.5:_ZNK18QAbstractItemModel4spanERK11QModelIndex
libQt5Core.so.5:_ZNK18QAbstractItemModel5buddyERK11QModelIndex
libQt5Core.so.5:_ZNK18QAbstractItemModel5flagsERK11QModelIndex
libQt5Core.so.5:_ZNK18QAbstractItemModel5matchERK11QModelIndexiRK8QVarianti6QFlagsIN2Qt9MatchFlagEE
libQt5Core.so.5:_ZNK18QAbstractItemModel8itemDataERK11QModelIndex
libQt5Core.so.5:_ZNK18QAbstractItemModel8mimeDataERK5QListI11QModelIndexE
libQt5Core.so.5:_ZNK18QAbstractItemModel9mimeTypesEv
libQt5Core.so.5:_ZNK18QAbstractItemModel9roleNamesEv
libQt5Core.so.5:_ZNK19QAbstractTableModel11hasChildrenERK11QModelIndex
libQt5Core.so.5:_ZNK19QAbstractTableModel5indexEiiRK11QModelIndex
libQt5Core.so.5:_ZNK19QAbstractTableModel6parentERK11QModelIndex
libQt5Core.so.5:_ZNK19QAbstractTableModel7siblingEiiRK11QModelIndex
libQt5Core.so.5:_ZNK23QRegularExpressionMatch8capturedEi
libQt5Core.so.5:_ZNK5QDate10startOfDayEN2Qt8TimeSpecEi
libQt5Core.so.5:_ZNK5QRect10normalizedEv
libQt5Core.so.5:_ZNK5QRect8containsERK6QPointb
libQt5Core.so.5:_ZNK6QLineF5angleEv
libQt5Core.so.5:_ZNK6QLineF6lengthEv
libQt5Core.so.5:_ZNK6QRectF10intersectsERKS_
libQt5Core.so.5:_ZNK6QRectF10normalizedEv
libQt5Core.so.5:_ZNK6QRectF8containsERK7QPointF
libQt5Core.so.5:_ZNK6QRectF8containsERKS_
libQt5Core.so.5:_ZNK6QRectFanERKS_
libQt5Core.so.5:_ZNK6QRectForERKS_
libQt5Core.so.5:_ZNK7QLocale11exponentialEv
libQt5Core.so.5:_ZNK7QLocale12decimalPointEv
libQt5Core.so.5:_ZNK7QLocale12negativeSignEv
libQt5Core.so.5:_ZNK7QLocale14dateTimeFormatENS_10FormatTypeE
libQt5Core.so.5:_ZNK7QLocale8toDoubleERK7QStringPb
libQt5Core.so.5:_ZNK7QLocale8toStringERK9QDateTimeRK7QString
libQt5Core.so.5:_ZNK7QLocale8toStringEdci
libQt5Core.so.5:_ZNK7QLocale8toStringEx
libQt5Core.so.5:_ZNK7QLocaleneERKS_
libQt5Core.so.5:_ZNK7QObject10objectNameEv
libQt5Core.so.5:_ZNK7QObject6senderEv
libQt5Core.so.5:_ZNK7QString10startsWithERKS_N2Qt15CaseSensitivityE
libQt5Core.so.5:_ZNK7QString11lastIndexOfE5QChariN2Qt15CaseSensitivityE
libQt5Core.so.5:_ZNK7QString3argERKS_i5QChar
libQt5Core.so.5:_ZNK7QString3argEdici5QChar
libQt5Core.so.5:_ZNK7QString3argExii5QChar
libQt5Core.so.5:_ZNK7QString5rightEi
libQt5Core.so.5:_ZNK7QString5splitE5QChar6QFlagsIN2Qt18SplitBehaviorFlagsEENS2_15CaseSensitivityE
libQt5Core.so.5:_ZNK7QString5toIntEPbi
libQt5Core.so.5:_ZNK7QString7indexOfERK18QRegularExpressioni
libQt5Core.so.5:_ZNK7QString7indexOfERK18QRegularExpressioniP23QRegularExpressionMatch
libQt5Core.so.5:_ZNK7QString8toDoubleEPb
libQt5Core.so.5:_ZNK7QStringeqE13QLatin1String
libQt5Core.so.5:_ZNK8QVariant10canConvertEi
libQt5Core.so.5:_ZNK8QVariant10toDateTimeEv
libQt5Core.so.5:_ZNK8QVariant4typeEv
libQt5Core.so.5:_ZNK8QVariant5toIntEPb
libQt5Core.so.5:_ZNK8QVariant6toDateEv
libQt5Core.so.5:_ZNK8QVariant6toRealEPb
libQt5Core.so.5:_ZNK8QVariant7convertEiPv
libQt5Core.so.5:_ZNK8QVariant7toPointEv
libQt5Core.so.5:_ZNK8QVariant8toDoubleEPb
libQt5Core.so.5:_ZNK8QVariant8toPointFEv
libQt5Core.so.5:_ZNK8QVariant8toStringEv
libQt5Core.so.5:_ZNK8QVariant8userTypeEv
libQt5Core.so.5:_ZNK8QVariant9constDataEv
libQt5Core.so.5:_ZNK9QDateTime17toMSecsSinceEpochEv
libQt5Core.so.5:_ZNK9QDateTime4dateEv
libQt5Core.so.5:_ZNK9QDateTime7isValidEv
libQt5Core.so.5:_ZNK9QDateTime8toStringERK7QString
libQt5Core.so.5:_ZNK9QDateTimeeqERKS_
libQt5Core.so.5:_ZNK9QDateTimeltERKS_
libQt5Core.so.5:_ZTI11QTextStream
libQt5Core.so.5:_ZTI17QVariantAnimation
libQt5Core.so.5:_ZTI19QAbstractTableModel
libQt5Core.so.5:_ZTI7QObject
libQt5Core.so.5:_ZeqRK7QStringS1_
libQt5Core.so.5:_Zls6QDebugPK7QObject
libQt5Core.so.5:_Zls6QDebugRK6QSizeF
libQt5Core.so.5:_ZltRK7QStringS1_
libQt5Core.so.5:qt_resourceFeatureZlib
libQt5Core.so.5:qt_version_tag
libQt5Gui.so.5:_ZN10QMatrix4x45scaleEff
libQt5Gui.so.5:_ZN10QTransform6rotateEdN2Qt4AxisE
libQt5Gui.so.5:_ZN10QTransformC1Ev
libQt5Gui.so.5:_ZN11QMouseEventC1EN6QEvent4TypeERK7QPointFN2Qt11MouseButtonE6QFlagsIS6_ES7_INS5_16KeyboardModifierEE
libQt5Gui.so.5:_ZN11QTextCursor6selectENS_13SelectionTypeE
libQt5Gui.so.5:_ZN11QTextCursorD1Ev
libQt5Gui.so.5:_ZN11QTextOptionC1Ev
libQt5Gui.so.5:_ZN11QTextOptionD1Ev
libQt5Gui.so.5:_ZN12QFontMetricsC1ERK5QFont
libQt5Gui.so.5:_ZN12QFontMetricsD1Ev
libQt5Gui.so.5:_ZN12QPainterPath10addEllipseERK6QRectF
libQt5Gui.so.5:_ZN12QPainterPath11connectPathERKS_
libQt5Gui.so.5:_ZN12QPainterPath12closeSubpathEv
libQt5Gui.so.5:_ZN12QPainterPath14addRoundedRectERK6QRectFddN2Qt8SizeModeE
libQt5Gui.so.5:_ZN12QPainterPath5arcToERK6QRectFdd
libQt5Gui.so.5:_ZN12QPainterPath6lineToERK7QPointF
libQt5Gui.so.5:_ZN12QPainterPath6moveToERK7QPointF
libQt5Gui.so.5:_ZN12QPainterPath7addRectERK6QRectF
libQt5Gui.so.5:_ZN12QPainterPath7cubicToERK7QPointFS2_S2_
libQt5Gui.so.5:_ZN12QPainterPath9arcMoveToERK6QRectFd
libQt5Gui.so.5:_ZN12QPainterPathC1ERKS_
libQt5Gui.so.5:_ZN12QPainterPathC1Ev
libQt5Gui.so.5:_ZN12QPainterPathD1Ev
libQt5Gui.so.5:_ZN12QPainterPathaSERKS_
libQt5Gui.so.5:_ZN13QOpenGLBuffer4bindEv
libQt5Gui.so.5:_ZN13QOpenGLBuffer6createEv
libQt5Gui.so.5:_ZN13QOpenGLBuffer7releaseEv
libQt5Gui.so.5:_ZN13QOpenGLBuffer8allocateEPKvi
libQt5Gui.so.5:_ZN13QOpenGLBufferC1Ev
libQt5Gui.so.5:_ZN13QOpenGLBufferD1Ev
libQt5Gui.so.5:_ZN13QTextDocument17setDocumentMarginEd
libQt5Gui.so.5:_ZN13QTextDocument7setHtmlERK7QString
libQt5Gui.so.5:_ZN14QOpenGLContext14currentContextEv
libQt5Gui.so.5:_ZN14QOpenGLContext16staticMetaObjectE
libQt5Gui.so.5:_ZN14QOpenGLContext18aboutToBeDestroyedEv
libQt5Gui.so.5:_ZN14QSurfaceFormat10setSamplesEi
libQt5Gui.so.5:_ZN14QSurfaceFormat15setSwapBehaviorENS_12SwapBehaviorE
libQt5Gui.so.5:_ZN14QSurfaceFormat16setRedBufferSizeEi
libQt5Gui.so.5:_ZN14QSurfaceFormat17setBlueBufferSizeEi
libQt5Gui.so.5:_ZN14QSurfaceFormat17setRenderableTypeENS_14RenderableTypeE
libQt5Gui.so.5:_ZN14QSurfaceFormat18setAlphaBufferSizeEi
libQt5Gui.so.5:_ZN14QSurfaceFormat18setDepthBufferSizeEi
libQt5Gui.so.5:_ZN14QSurfaceFormat18setGreenBufferSizeEi
libQt5Gui.so.5:_ZN14QSurfaceFormat20setStencilBufferSizeEi
libQt5Gui.so.5:_ZN14QSurfaceFormatC1Ev
libQt5Gui.so.5:_ZN14QSurfaceFormatD1Ev
libQt5Gui.so.5:_ZN15QGuiApplication7paletteEv
libQt5Gui.so.5:_ZN15QLinearGradient12setFinalStopERK7QPointF
libQt5Gui.so.5:_ZN15QLinearGradient8setStartERK7QPointF
libQt5Gui.so.5:_ZN15QLinearGradientC1ERK7QPointFS2_
libQt5Gui.so.5:_ZN15QLinearGradientC1Edddd
libQt5Gui.so.5:_ZN15QLinearGradientC1Ev
libQt5Gui.so.5:_ZN15QLinearGradientD1Ev
libQt5Gui.so.5:_ZN16QOpenGLFunctions25initializeOpenGLFunctionsEv
libQt5Gui.so.5:_ZN16QOpenGLFunctionsC2Ev
libQt5Gui.so.5:_ZN19QPainterPathStroker11setCapStyleEN2Qt11PenCapStyleE
libQt5Gui.so.5:_ZN19QPainterPathStroker12setJoinStyleEN2Qt12PenJoinStyleE
libQt5Gui.so.5:_ZN19QPainterPathStroker13setMiterLimitEd
libQt5Gui.so.5:_ZN19QPainterPathStroker8setWidthEd
libQt5Gui.so.5:_ZN19QPainterPathStrokerC1Ev
libQt5Gui.so.5:_ZN19QPainterPathStrokerD1Ev
libQt5Gui.so.5:_ZN20QOpenGLShaderProgram15setUniformValueEiRK10QMatrix4x4
libQt5Gui.so.5:_ZN20QOpenGLShaderProgram15setUniformValueEiRK9QVector2D
libQt5Gui.so.5:_ZN20QOpenGLShaderProgram15setUniformValueEiRK9QVector3D
libQt5Gui.so.5:_ZN20QOpenGLShaderProgram15setUniformValueEif
libQt5Gui.so.5:_ZN20QOpenGLShaderProgram21bindAttributeLocationEPKci
libQt5Gui.so.5:_ZN20QOpenGLShaderProgram23addShaderFromSourceCodeE6QFlagsIN13QOpenGLShader13ShaderTypeBitEEPKc
libQt5Gui.so.5:_ZN20QOpenGLShaderProgram4bindEv
libQt5Gui.so.5:_ZN20QOpenGLShaderProgram7releaseEv
libQt5Gui.so.5:_ZN20QOpenGLShaderProgramC1EP7QObject
libQt5Gui.so.5:_ZN24QOpenGLFramebufferObject15blitFramebufferEPS_RK5QRectS0_S3_jj
libQt5Gui.so.5:_ZN24QOpenGLFramebufferObject4bindEv
libQt5Gui.so.5:_ZN24QOpenGLFramebufferObjectC1ERK5QSizeRK30QOpenGLFramebufferObjectFormat
libQt5Gui.so.5:_ZN24QOpenGLFramebufferObjectC1ERK5QSizej
libQt5Gui.so.5:_ZN24QOpenGLVertexArrayObject4bindEv
libQt5Gui.so.5:_ZN24QOpenGLVertexArrayObject6createEv
libQt5Gui.so.5:_ZN24QOpenGLVertexArrayObject7releaseEv
libQt5Gui.so.5:_ZN24QOpenGLVertexArrayObjectC1EP7QObject
libQt5Gui.so.5:_ZN24QOpenGLVertexArrayObjectD1Ev
libQt5Gui.so.5:_ZN30QOpenGLFramebufferObjectFormat10setSamplesEi
libQt5Gui.so.5:_ZN30QOpenGLFramebufferObjectFormat13setAttachmentEN24QOpenGLFramebufferObject10AttachmentE
libQt5Gui.so.5:_ZN30QOpenGLFramebufferObjectFormatC1Ev
libQt5Gui.so.5:_ZN30QOpenGLFramebufferObjectFormatD1Ev
libQt5Gui.so.5:_ZN4QPen11setCapStyleEN2Qt11PenCapStyleE
libQt5Gui.so.5:_ZN4QPen11setCosmeticEb
libQt5Gui.so.5:_ZN4QPen12setJoinStyleEN2Qt12PenJoinStyleE
libQt5Gui.so.5:_ZN4QPen8setColorERK6QColor
libQt5Gui.so.5:_ZN4QPen8setStyleEN2Qt8PenStyleE
libQt5Gui.so.5:_ZN4QPen8setWidthEi
libQt5Gui.so.5:_ZN4QPen9setWidthFEd
libQt5Gui.so.5:_ZN4QPenC1EN2Qt8PenStyleE
libQt5Gui.so.5:_ZN4QPenC1ERK6QBrushdN2Qt8PenStyleENS3_11PenCapStyleENS3_12PenJoinStyleE
libQt5Gui.so.5:_ZN4QPenC1ERK6QColor
libQt5Gui.so.5:_ZN4QPenC1ERKS_
libQt5Gui.so.5:_ZN4QPenC1Ev
libQt5Gui.so.5:_ZN4QPenC2ERKS_
libQt5Gui.so.5:_ZN4QPenC2Ev
libQt5Gui.so.5:_ZN4QPenD1Ev
libQt5Gui.so.5:_ZN4QPenD2Ev
libQt5Gui.so.5:_ZN4QPenaSERKS_
libQt5Gui.so.5:_ZN5QFont12setPixelSizeEi
libQt5Gui.so.5:_ZN5QFont13setPointSizeFEd
libQt5Gui.so.5:_ZN5QFont8setStyleENS_5StyleE
libQt5Gui.so.5:_ZN5QFont9setWeightEi
libQt5Gui.so.5:_ZN5QFontC1ERK7QStringiib
libQt5Gui.so.5:_ZN5QFontC1ERKS_
libQt5Gui.so.5:_ZN5QFontC1Ev
libQt5Gui.so.5:_ZN5QFontC2ERKS_
libQt5Gui.so.5:_ZN5QFontC2Ev
libQt5Gui.so.5:_ZN5QFontD1Ev
libQt5Gui.so.5:_ZN5QFontD2Ev
libQt5Gui.so.5:_ZN5QFontaSERKS_
libQt5Gui.so.5:_ZN5QIconC1Ev
libQt5Gui.so.5:_ZN5QIconD1Ev
libQt5Gui.so.5:_ZN6QBrush15setTextureImageERK6QImage
libQt5Gui.so.5:_ZN6QBrush8setColorERK6QColor
libQt5Gui.so.5:_ZN6QBrush8setStyleEN2Qt10BrushStyleE
libQt5Gui.so.5:_ZN6QBrushC1EN2Qt10BrushStyleE
libQt5Gui.so.5:_ZN6QBrushC1EN2Qt11GlobalColorENS0_10BrushStyleE
libQt5Gui.so.5:_ZN6QBrushC1ERK6QColorN2Qt10BrushStyleE
libQt5Gui.so.5:_ZN6QBrushC1ERK6QImage
libQt5Gui.so.5:_ZN6QBrushC1ERK9QGradient
libQt5Gui.so.5:_ZN6QBrushC1ERKS_
libQt5Gui.so.5:_ZN6QBrushC1Ev
libQt5Gui.so.5:_ZN6QBrushC2ERKS_
libQt5Gui.so.5:_ZN6QBrushC2Ev
libQt5Gui.so.5:_ZN6QBrushD1Ev
libQt5Gui.so.5:_ZN6QBrushD2Ev
libQt5Gui.so.5:_ZN6QBrushaSERKS_
libQt5Gui.so.5:_ZN6QColor13setNamedColorE13QLatin1String
libQt5Gui.so.5:_ZN6QColor13setNamedColorERK7QString
libQt5Gui.so.5:_ZN6QColor7setHsvFEdddd
libQt5Gui.so.5:_ZN6QColor7setRedFEd
libQt5Gui.so.5:_ZN6QColor7setRgbFEdddd
libQt5Gui.so.5:_ZN6QColor8setAlphaEi
libQt5Gui.so.5:_ZN6QColor8setBlueFEd
libQt5Gui.so.5:_ZN6QColor9setAlphaFEd
libQt5Gui.so.5:_ZN6QColor9setGreenFEd
libQt5Gui.so.5:_ZN6QColorC1EN2Qt11GlobalColorE
libQt5Gui.so.5:_ZN6QColorC1Ej
libQt5Gui.so.5:_ZN6QColoraSERKS_
libQt5Gui.so.5:_ZN6QImage19setDevicePixelRatioEd
libQt5Gui.so.5:_ZN6QImage4fillEN2Qt11GlobalColorE
libQt5Gui.so.5:_ZN6QImageC1ERK5QSizeNS_6FormatE
libQt5Gui.so.5:_ZN6QImageC1ERK7QStringPKc
libQt5Gui.so.5:_ZN6QImageC1EiiNS_6FormatE
libQt5Gui.so.5:_ZN6QImageC1Ev
libQt5Gui.so.5:_ZN6QImageD1Ev
libQt5Gui.so.5:_ZN6QImageaSERKS_
libQt5Gui.so.5:_ZN7QMatrixC1Ev
libQt5Gui.so.5:_ZN7QMatrixaSERKS_
libQt5Gui.so.5:_ZN7QRegionC1ERK5QRectNS_10RegionTypeE
libQt5Gui.so.5:_ZN7QRegionD1Ev
libQt5Gui.so.5:_ZN7QWindow4showEv
libQt5Gui.so.5:_ZN7QWindow5closeEv
libQt5Gui.so.5:_ZN7QWindow8setTitleERK7QString
libQt5Gui.so.5:_ZN8QPainter10drawPointsEPK7QPointFi
libQt5Gui.so.5:_ZN8QPainter10setOpacityEd
libQt5Gui.so.5:_ZN8QPainter10strokePathERK12QPainterPathRK4QPen
libQt5Gui.so.5:_ZN8QPainter11drawEllipseERK6QRectF
libQt5Gui.so.5:_ZN8QPainter11setClipRectERK6QRectFN2Qt13ClipOperationE
libQt5Gui.so.5:_ZN8QPainter11setClippingEb
libQt5Gui.so.5:_ZN8QPainter13setClipRegionERK7QRegionN2Qt13ClipOperationE
libQt5Gui.so.5:_ZN8QPainter13setRenderHintENS_10RenderHintEb
libQt5Gui.so.5:_ZN8QPainter14setRenderHintsE6QFlagsINS_10RenderHintEEb
libQt5Gui.so.5:_ZN8QPainter15drawRoundedRectERK6QRectFddN2Qt8SizeModeE
libQt5Gui.so.5:_ZN8QPainter4saveEv
libQt5Gui.so.5:_ZN8QPainter6setPenEN2Qt8PenStyleE
libQt5Gui.so.5:_ZN8QPainter6setPenERK4QPen
libQt5Gui.so.5:_ZN8QPainter6setPenERK6QColor
libQt5Gui.so.5:_ZN8QPainter7restoreEv
libQt5Gui.so.5:_ZN8QPainter7setFontERK5QFont
libQt5Gui.so.5:_ZN8QPainter8drawPathERK12QPainterPath
libQt5Gui.so.5:_ZN8QPainter8drawTextERK6QRectFRK7QStringRK11QTextOption
libQt5Gui.so.5:_ZN8QPainter8drawTextERK7QPointFRK7QString
libQt5Gui.so.5:_ZN8QPainter8setBrushEN2Qt10BrushStyleE
libQt5Gui.so.5:_ZN8QPainter8setBrushERK6QBrush
libQt5Gui.so.5:_ZN8QPainter9drawLinesEPK6QLineFi
libQt5Gui.so.5:_ZN8QPainter9drawRectsEPK6QRectFi
libQt5Gui.so.5:_ZN8QPainterC1EP12QPaintDevice
libQt5Gui.so.5:_ZN8QPainterD1Ev
libQt5Gui.so.5:_ZN8QPalette8setBrushENS_10ColorGroupENS_9ColorRoleERK6QBrush
libQt5Gui.so.5:_ZN8QPaletteC1ERKS_
libQt5Gui.so.5:_ZN8QPaletteD1Ev
libQt5Gui.so.5:_ZN9QFontInfoC1ERK5QFont
libQt5Gui.so.5:_ZN9QFontInfoD1Ev
libQt5Gui.so.5:_ZN9QGradient10setColorAtEdRK6QColor
libQt5Gui.so.5:_ZN9QGradient17setCoordinateModeENS_14CoordinateModeE
libQt5Gui.so.5:_ZN9QGradientD1Ev
libQt5Gui.so.5:_ZNK10QTransform7mapRectERK6QRectF
libQt5Gui.so.5:_ZNK12QFontMetrics12boundingRectERK5QRectiRK7QStringiPi
libQt5Gui.so.5:_ZNK12QFontMetrics17horizontalAdvanceERK7QStringi
libQt5Gui.so.5:_ZNK12QFontMetrics6heightEv
libQt5Gui.so.5:_ZNK12QFontMetrics7descentEv
libQt5Gui.so.5:_ZNK12QPainterPath10simplifiedEv
libQt5Gui.so.5:_ZNK12QPainterPath10toReversedEv
libQt5Gui.so.5:_ZNK12QPainterPath12boundingRectEv
libQt5Gui.so.5:_ZNK12QPainterPath14pointAtPercentEd
libQt5Gui.so.5:_ZNK13QTextDocument11toPlainTextEv
libQt5Gui.so.5:_ZNK13QTextDocument14documentMarginEv
libQt5Gui.so.5:_ZNK14QOpenGLContext10isOpenGLESEv
libQt5Gui.so.5:_ZNK14QOpenGLContext24defaultFramebufferObjectEv
libQt5Gui.so.5:_ZNK14QOpenGLContext6formatEv
libQt5Gui.so.5:_ZNK14QSurfaceFormat12majorVersionEv
libQt5Gui.so.5:_ZNK14QSurfaceFormat7profileEv
libQt5Gui.so.5:_ZNK19QPainterPathStroker12createStrokeERK12QPainterPath
libQt5Gui.so.5:_ZNK20QOpenGLShaderProgram15uniformLocationEPKc
libQt5Gui.so.5:_ZNK24QOpenGLFramebufferObject4sizeEv
libQt5Gui.so.5:_ZNK24QOpenGLFramebufferObject7textureEv
libQt5Gui.so.5:_ZNK24QOpenGLVertexArrayObject9isCreatedEv
libQt5Gui.so.5:_ZNK4QPen10miterLimitEv
libQt5Gui.so.5:_ZNK4QPen5colorEv
libQt5Gui.so.5:_ZNK4QPen5styleEv
libQt5Gui.so.5:_ZNK4QPen5widthEv
libQt5Gui.so.5:_ZNK4QPen6widthFEv
libQt5Gui.so.5:_ZNK4QPen8capStyleEv
libQt5Gui.so.5:_ZNK4QPen9joinStyleEv
libQt5Gui.so.5:_ZNK4QPeneqERKS_
libQt5Gui.so.5:_ZNK5QFont10pointSizeFEv
libQt5Gui.so.5:_ZNK5QFont5styleEv
libQt5Gui.so.5:_ZNK5QFont6weightEv
libQt5Gui.so.5:_ZNK5QFont8toStringEv
libQt5Gui.so.5:_ZNK5QFonteqERKS_
libQt5Gui.so.5:_ZNK5QFontneERKS_
libQt5Gui.so.5:_ZNK6QBrush12textureImageEv
libQt5Gui.so.5:_ZNK6QBrusheqERKS_
libQt5Gui.so.5:_ZNK6QColor14hsvSaturationFEv
libQt5Gui.so.5:_ZNK6QColor3rgbEv
libQt5Gui.so.5:_ZNK6QColor4nameEv
libQt5Gui.so.5:_ZNK6QColor4redFEv
libQt5Gui.so.5:_ZNK6QColor5alphaEv
libQt5Gui.so.5:_ZNK6QColor5blueFEv
libQt5Gui.so.5:_ZNK6QColor6greenFEv
libQt5Gui.so.5:_ZNK6QColor7hsvHueFEv
libQt5Gui.so.5:_ZNK6QColor7lighterEi
libQt5Gui.so.5:_ZNK6QColorcv8QVariantEv
libQt5Gui.so.5:_ZNK6QColoreqERKS_
libQt5Gui.so.5:_ZNK6QColorneERKS_
libQt5Gui.so.5:_ZNK6QImage4sizeEv
libQt5Gui.so.5:_ZNK6QImageneERKS_
libQt5Gui.so.5:_ZNK7QRegion11intersectedERK5QRect
libQt5Gui.so.5:_ZNK7QWindow16devicePixelRatioEv
libQt5Gui.so.5:_ZNK8QPainter3penEv
libQt5Gui.so.5:_ZNK8QPainter4fontEv
libQt5Gui.so.5:_ZNK9QFontInfo9pixelSizeEv
libQt5Gui.so.5:_ZNK9QGradient5stopsEv
libQt5Qml.so.5:_Z17qmlRegisterModulePKcii
libQt5Qml.so.5:_ZN10QQmlEngine13addImportPathERK7QString
libQt5Qml.so.5:_ZN10QQmlEngine16staticMetaObjectE
libQt5Qml.so.5:_ZN10QQmlEngine4quitEv
libQt5Qml.so.5:_ZN11QQmlContext18setContextPropertyERK7QStringP7QObject
libQt5Qml.so.5:_ZN11QQmlContext18setContextPropertyERK7QStringRK8QVariant
libQt5Qml.so.5:_ZN11QQmlPrivate11qmlregisterENS_16RegistrationTypeEPv
libQt5Qml.so.5:_ZN11QQmlPrivate30qdeclarativeelement_destructorEP7QObject
libQt5Qml.so.5:_ZN16QQmlParserStatusC2Ev
libQt5Qml.so.5:_ZN16QQmlParserStatusD2Ev
libQt5Qml.so.5:_ZN19QQmlExtensionPlugin11qt_metacallEN11QMetaObject4CallEiPPv
libQt5Qml.so.5:_ZN19QQmlExtensionPlugin11qt_metacastEPKc
libQt5Qml.so.5:_ZN19QQmlExtensionPlugin16initializeEngineEP10QQmlEnginePKc
libQt5Qml.so.5:_ZN19QQmlExtensionPlugin16staticMetaObjectE
libQt5Qml.so.5:_ZN19QQmlExtensionPluginC2EP7QObject
libQt5Qml.so.5:_ZN19QQmlExtensionPluginD2Ev
libQt5Qml.so.5:_ZTI16QQmlParserStatus
libQt5Qml.so.5:_ZTI19QQmlExtensionPlugin
libQt5Qml.so.5:_ZThn16_N19QQmlExtensionPlugin16initializeEngineEP10QQmlEnginePKc
libQt5Quick.so.5:_ZN10QQuickItem10classBeginEv
libQt5Quick.so.5:_ZN10QQuickItem10itemChangeENS_10ItemChangeERKNS_14ItemChangeDataE
libQt5Quick.so.5:_ZN10QQuickItem10touchEventEP11QTouchEvent
libQt5Quick.so.5:_ZN10QQuickItem10wheelEventEP11QWheelEvent
libQt5Quick.so.5:_ZN10QQuickItem11qt_metacallEN11QMetaObject4CallEiPPv
libQt5Quick.so.5:_ZN10QQuickItem11qt_metacastEPKc
libQt5Quick.so.5:_ZN10QQuickItem12focusInEventEP11QFocusEvent
libQt5Quick.so.5:_ZN10QQuickItem12updatePolishEv
libQt5Quick.so.5:_ZN10QQuickItem13dragMoveEventEP14QDragMoveEvent
libQt5Quick.so.5:_ZN10QQuickItem13focusOutEventEP11QFocusEvent
libQt5Quick.so.5:_ZN10QQuickItem13keyPressEventEP9QKeyEvent
libQt5Quick.so.5:_ZN10QQuickItem14dragEnterEventEP15QDragEnterEvent
libQt5Quick.so.5:_ZN10QQuickItem14dragLeaveEventEP15QDragLeaveEvent
libQt5Quick.so.5:_ZN10QQuickItem14mouseMoveEventEP11QMouseEvent
libQt5Quick.so.5:_ZN10QQuickItem15geometryChangedERK6QRectFS2_
libQt5Quick.so.5:_ZN10QQuickItem15hoverEnterEventEP11QHoverEvent
libQt5Quick.so.5:_ZN10QQuickItem15hoverLeaveEventEP11QHoverEvent
libQt5Quick.so.5:_ZN10QQuickItem15keyReleaseEventEP9QKeyEvent
libQt5Quick.so.5:_ZN10QQuickItem15setAntialiasingEb
libQt5Quick.so.5:_ZN10QQuickItem16inputMethodEventEP17QInputMethodEvent
libQt5Quick.so.5:_ZN10QQuickItem16mouseUngrabEventEv
libQt5Quick.so.5:_ZN10QQuickItem16releaseResourcesEv
libQt5Quick.so.5:_ZN10QQuickItem16staticMetaObjectE
libQt5Quick.so.5:_ZN10QQuickItem16touchUngrabEventEv
libQt5Quick.so.5:_ZN10QQuickItem17componentCompleteEv
libQt5Quick.so.5:_ZN10QQuickItem20setAcceptHoverEventsEb
libQt5Quick.so.5:_ZN10QQuickItem21childMouseEventFilterEPS_P6QEvent
libQt5Quick.so.5:_ZN10QQuickItem21windowDeactivateEventEv
libQt5Quick.so.5:_ZN10QQuickItem23setAcceptedMouseButtonsE6QFlagsIN2Qt11MouseButtonEE
libQt5Quick.so.5:_ZN10QQuickItem5eventEP6QEvent
libQt5Quick.so.5:_ZN10QQuickItem6updateEv
libQt5Quick.so.5:_ZN10QQuickItem7setFlagENS_4FlagEb
libQt5Quick.so.5:_ZN10QQuickItem9dropEventEP10QDropEvent
libQt5Quick.so.5:_ZN10QQuickItemC2EPS_
libQt5Quick.so.5:_ZN10QQuickItemD2Ev
libQt5Quick.so.5:_ZN10QQuickView13setResizeModeENS_10ResizeModeE
libQt5Quick.so.5:_ZN10QQuickView9setSourceERK4QUrl
libQt5Quick.so.5:_ZN10QQuickViewC1EP7QWindow
libQt5Quick.so.5:_ZN10QQuickViewD1Ev
libQt5Quick.so.5:_ZN11QSGRootNodeC2Ev
libQt5Quick.so.5:_ZN11QSGRootNodeD2Ev
libQt5Quick.so.5:_ZN12QQuickWindow15beforeRenderingEv
libQt5Quick.so.5:_ZN12QQuickWindow16resetOpenGLStateEv
libQt5Quick.so.5:_ZN12QQuickWindow16staticMetaObjectE
libQt5Quick.so.5:_ZN12QQuickWindow8setColorERK6QColor
libQt5Quick.so.5:_ZN7QSGNode15appendChildNodeEPS_
libQt5Quick.so.5:_ZN7QSGNode16prependChildNodeEPS_
libQt5Quick.so.5:_ZN7QSGNode7setFlagENS_4FlagEb
libQt5Quick.so.5:_ZN7QSGNode9markDirtyE6QFlagsINS_13DirtyStateBitEE
libQt5Quick.so.5:_ZNK10QQuickItem12antialiasingEv
libQt5Quick.so.5:_ZNK10QQuickItem12boundingRectEv
libQt5Quick.so.5:_ZNK10QQuickItem15textureProviderEv
libQt5Quick.so.5:_ZNK10QQuickItem16inputMethodQueryEN2Qt16InputMethodQueryE
libQt5Quick.so.5:_ZNK10QQuickItem17isTextureProviderEv
libQt5Quick.so.5:_ZNK10QQuickItem6windowEv
libQt5Quick.so.5:_ZNK10QQuickItem8clipRectEv
libQt5Quick.so.5:_ZNK10QQuickItem8containsERK7QPointF
libQt5Quick.so.5:_ZNK10QQuickView11rootContextEv
libQt5Quick.so.5:_ZNK10QQuickView6engineEv
libQt5Quick.so.5:_ZNK12QQuickWindow15createImageNodeEv
libQt5Quick.so.5:_ZNK12QQuickWindow17rendererInterfaceEv
libQt5Quick.so.5:_ZNK12QQuickWindow19createTextureFromIdEjRK5QSize6QFlagsINS_19CreateTextureOptionEE
libQt5Quick.so.5:_ZNK12QQuickWindow22createTextureFromImageERK6QImage6QFlagsINS_19CreateTextureOptionEE
libQt5Quick.so.5:_ZNK7QSGNode16isSubtreeBlockedEv
libQt5Quick.so.5:_ZTI10QQuickItem
libQt5Quick.so.5:_ZTI11QSGRootNode
libQt5Quick.so.5:_ZThn16_N10QQuickItem10classBeginEv
libQt5Widgets.so.5:_ZN10QBoxLayout9addWidgetEP7QWidgeti6QFlagsIN2Qt13AlignmentFlagEE
libQt5Widgets.so.5:_ZN10QTableView8setModelEP18QAbstractItemModel
libQt5Widgets.so.5:_ZN10QTableViewC1EP7QWidget
libQt5Widgets.so.5:_ZN11QFontDialogC1ERK5QFontP7QWidget
libQt5Widgets.so.5:_ZN11QFontDialogD1Ev
libQt5Widgets.so.5:_ZN11QFormLayout6addRowEP7QWidget
libQt5Widgets.so.5:_ZN11QFormLayout6addRowERK7QStringP7QWidget
libQt5Widgets.so.5:_ZN11QFormLayoutC1EP7QWidget
libQt5Widgets.so.5:_ZN11QGridLayout16setColumnStretchEii
libQt5Widgets.so.5:_ZN11QGridLayout9addLayoutEP7QLayoutii6QFlagsIN2Qt13AlignmentFlagEE
libQt5Widgets.so.5:_ZN11QGridLayout9addLayoutEP7QLayoutiiii6QFlagsIN2Qt13AlignmentFlagEE
libQt5Widgets.so.5:_ZN11QGridLayout9addWidgetEP7QWidgetii6QFlagsIN2Qt13AlignmentFlagEE
libQt5Widgets.so.5:_ZN11QGridLayout9addWidgetEP7QWidgetiiii6QFlagsIN2Qt13AlignmentFlagEE
libQt5Widgets.so.5:_ZN11QGridLayoutC1EP7QWidget
libQt5Widgets.so.5:_ZN11QGridLayoutC1Ev
libQt5Widgets.so.5:_ZN11QHBoxLayoutC1Ev
libQt5Widgets.so.5:_ZN11QHeaderView20setSectionResizeModeENS_10ResizeModeE
libQt5Widgets.so.5:_ZN11QMainWindow16setCentralWidgetEP7QWidget
libQt5Widgets.so.5:_ZN11QMainWindowC1EP7QWidget6QFlagsIN2Qt10WindowTypeEE
libQt5Widgets.so.5:_ZN11QMainWindowD1Ev
libQt5Widgets.so.5:_ZN11QPushButton16staticMetaObjectE
libQt5Widgets.so.5:_ZN11QPushButtonC1EP7QWidget
libQt5Widgets.so.5:_ZN11QPushButtonC1ERK7QStringP7QWidget
libQt5Widgets.so.5:_ZN11QRubberBand11setGeometryERK5QRect
libQt5Widgets.so.5:_ZN11QRubberBandC1ENS_5ShapeEP7QWidget
libQt5Widgets.so.5:_ZN11QScrollArea9setWidgetEP7QWidget
libQt5Widgets.so.5:_ZN11QScrollAreaC1EP7QWidget
libQt5Widgets.so.5:_ZN11QVBoxLayoutC1Ev
libQt5Widgets.so.5:_ZN12QApplication10setPaletteERK8QPalettePKc
libQt5Widgets.so.5:_ZN12QApplication4execEv
libQt5Widgets.so.5:_ZN12QApplicationC1ERiPPci
libQt5Widgets.so.5:_ZN12QApplicationD1Ev
libQt5Widgets.so.5:_ZN12QColorDialogC1ERK6QColorP7QWidget
libQt5Widgets.so.5:_ZN12QColorDialogD1Ev
libQt5Widgets.so.5:_ZN12QStyleOptionC2Eii
libQt5Widgets.so.5:_ZN12QStyleOptionD2Ev
libQt5Widgets.so.5:_ZN12QStyleOptionaSERKS_
libQt5Widgets.so.5:_ZN13QGraphicsItem10clearFocusEv
libQt5Widgets.so.5:_ZN13QGraphicsItem10itemChangeENS_18GraphicsItemChangeERK8QVariant
libQt5Widgets.so.5:_ZN13QGraphicsItem10sceneEventEP6QEvent
libQt5Widgets.so.5:_ZN13QGraphicsItem10setOpacityEd
libQt5Widgets.so.5:_ZN13QGraphicsItem10setToolTipERK7QString
libQt5Widgets.so.5:_ZN13QGraphicsItem10setVisibleEb
libQt5Widgets.so.5:_ZN13QGraphicsItem10wheelEventEP24QGraphicsSceneWheelEvent
libQt5Widgets.so.5:_ZN13QGraphicsItem11setRotationEd
libQt5Widgets.so.5:_ZN13QGraphicsItem12focusInEventEP11QFocusEvent
libQt5Widgets.so.5:_ZN13QGraphicsItem12setExtensionENS_9ExtensionERK8QVariant
libQt5Widgets.so.5:_ZN13QGraphicsItem13dragMoveEventEP27QGraphicsSceneDragDropEvent
libQt5Widgets.so.5:_ZN13QGraphicsItem13focusOutEventEP11QFocusEvent
libQt5Widgets.so.5:_ZN13QGraphicsItem13keyPressEventEP9QKeyEvent
libQt5Widgets.so.5:_ZN13QGraphicsItem14dragEnterEventEP27QGraphicsSceneDragDropEvent
libQt5Widgets.so.5:_ZN13QGraphicsItem14dragLeaveEventEP27QGraphicsSceneDragDropEvent
libQt5Widgets.so.5:_ZN13QGraphicsItem14hoverMoveEventEP24QGraphicsSceneHoverEvent
libQt5Widgets.so.5:_ZN13QGraphicsItem14mouseMoveEventEP24QGraphicsSceneMouseEvent
libQt5Widgets.so.5:_ZN13QGraphicsItem15hoverEnterEventEP24QGraphicsSceneHoverEvent
libQt5Widgets.so.5:_ZN13QGraphicsItem15hoverLeaveEventEP24QGraphicsSceneHoverEvent
libQt5Widgets.so.5:_ZN13QGraphicsItem15keyReleaseEventEP9QKeyEvent
libQt5Widgets.so.5:_ZN13QGraphicsItem15mousePressEventEP24QGraphicsSceneMouseEvent
libQt5Widgets.so.5:_ZN13QGraphicsItem16contextMenuEventEP30QGraphicsSceneContextMenuEvent
libQt5Widgets.so.5:_ZN13QGraphicsItem16inputMethodEventEP17QInputMethodEvent
libQt5Widgets.so.5:_ZN13QGraphicsItem16sceneEventFilterEPS_P6QEvent
libQt5Widgets.so.5:_ZN13QGraphicsItem17mouseReleaseEventEP24QGraphicsSceneMouseEvent
libQt5Widgets.so.5:_ZN13QGraphicsItem17setGraphicsEffectEP15QGraphicsEffect
libQt5Widgets.so.5:_ZN13QGraphicsItem20setAcceptHoverEventsEb
libQt5Widgets.so.5:_ZN13QGraphicsItem21mouseDoubleClickEventEP24QGraphicsSceneMouseEvent
libQt5Widgets.so.5:_ZN13QGraphicsItem21prepareGeometryChangeEv
libQt5Widgets.so.5:_ZN13QGraphicsItem21setHandlesChildEventsEb
libQt5Widgets.so.5:_ZN13QGraphicsItem23setAcceptedMouseButtonsE6QFlagsIN2Qt11MouseButtonEE
libQt5Widgets.so.5:_ZN13QGraphicsItem23setTransformOriginPointERK7QPointF
libQt5Widgets.so.5:_ZN13QGraphicsItem6setPosERK7QPointF
libQt5Widgets.so.5:_ZN13QGraphicsItem6updateERK6QRectF
libQt5Widgets.so.5:_ZN13QGraphicsItem7advanceEi
libQt5Widgets.so.5:_ZN13QGraphicsItem7setFlagENS_16GraphicsItemFlagEb
libQt5Widgets.so.5:_ZN13QGraphicsItem8setFlagsE6QFlagsINS_16GraphicsItemFlagEE
libQt5Widgets.so.5:_ZN13QGraphicsItem8setFocusEN2Qt11FocusReasonE
libQt5Widgets.so.5:_ZN13QGraphicsItem9dropEventEP27QGraphicsSceneDragDropEvent
libQt5Widgets.so.5:_ZN13QGraphicsItem9setZValueEd
libQt5Widgets.so.5:_ZN13QGraphicsItemC2EPS_
libQt5Widgets.so.5:_ZN13QGraphicsItemD2Ev
libQt5Widgets.so.5:_ZN13QGraphicsView10paintEventEP11QPaintEvent
libQt5Widgets.so.5:_ZN13QGraphicsView10wheelEventEP11QWheelEvent
libQt5Widgets.so.5:_ZN13QGraphicsView11qt_metacallEN11QMetaObject4CallEiPPv
libQt5Widgets.so.5:_ZN13QGraphicsView11qt_metacastEPKc
libQt5Widgets.so.5:_ZN13QGraphicsView11resizeEventEP12QResizeEvent
libQt5Widgets.so.5:_ZN13QGraphicsView11setDragModeENS_8DragModeE
libQt5Widgets.so.5:_ZN13QGraphicsView12focusInEventEP11QFocusEvent
libQt5Widgets.so.5:_ZN13QGraphicsView12setSceneRectERK6QRectF
libQt5Widgets.so.5:_ZN13QGraphicsView13dragMoveEventEP14QDragMoveEvent
libQt5Widgets.so.5:_ZN13QGraphicsView13focusOutEventEP11QFocusEvent
libQt5Widgets.so.5:_ZN13QGraphicsView13keyPressEventEP9QKeyEvent
libQt5Widgets.so.5:_ZN13QGraphicsView13setRenderHintEN8QPainter10RenderHintEb
libQt5Widgets.so.5:_ZN13QGraphicsView13setupViewportEP7QWidget
libQt5Widgets.so.5:_ZN13QGraphicsView13viewportEventEP6QEvent
libQt5Widgets.so.5:_ZN13QGraphicsView14dragEnterEventEP15QDragEnterEvent
libQt5Widgets.so.5:_ZN13QGraphicsView14dragLeaveEventEP15QDragLeaveEvent
libQt5Widgets.so.5:_ZN13QGraphicsView14drawBackgroundEP8QPainterRK6QRectF
libQt5Widgets.so.5:_ZN13QGraphicsView14drawForegroundEP8QPainterRK6QRectF
libQt5Widgets.so.5:_ZN13QGraphicsView14mouseMoveEventEP11QMouseEvent
libQt5Widgets.so.5:_ZN13QGraphicsView15keyReleaseEventEP9QKeyEvent
libQt5Widgets.so.5:_ZN13QGraphicsView15mousePressEventEP11QMouseEvent
libQt5Widgets.so.5:_ZN13QGraphicsView16contextMenuEventEP17QContextMenuEvent
libQt5Widgets.so.5:_ZN13QGraphicsView16inputMethodEventEP17QInputMethodEvent
libQt5Widgets.so.5:_ZN13QGraphicsView16scrollContentsByEii
libQt5Widgets.so.5:_ZN13QGraphicsView16staticMetaObjectE
libQt5Widgets.so.5:_ZN13QGraphicsView17mouseReleaseEventEP11QMouseEvent
libQt5Widgets.so.5:_ZN13QGraphicsView18focusNextPrevChildEb
libQt5Widgets.so.5:_ZN13QGraphicsView21mouseDoubleClickEventEP11QMouseEvent
libQt5Widgets.so.5:_ZN13QGraphicsView5eventEP6QEvent
libQt5Widgets.so.5:_ZN13QGraphicsView8setSceneEP14QGraphicsScene
libQt5Widgets.so.5:_ZN13QGraphicsView9drawItemsEP8QPainteriPP13QGraphicsItemPK24QStyleOptionGraphicsItem
libQt5Widgets.so.5:_ZN13QGraphicsView9dropEventEP10QDropEvent
libQt5Widgets.so.5:_ZN13QGraphicsView9showEventEP10QShowEvent
libQt5Widgets.so.5:_ZN13QGraphicsViewC2EP14QGraphicsSceneP7QWidget
libQt5Widgets.so.5:_ZN13QGraphicsViewC2EP7QWidget
libQt5Widgets.so.5:_ZN13QGraphicsViewD2Ev
libQt5Widgets.so.5:_ZN13QOpenGLWidget10paintEventEP11QPaintEvent
libQt5Widgets.so.5:_ZN13QOpenGLWidget11doneCurrentEv
libQt5Widgets.so.5:_ZN13QOpenGLWidget11makeCurrentEv
libQt5Widgets.so.5:_ZN13QOpenGLWidget11qt_metacallEN11QMetaObject4CallEiPPv
libQt5Widgets.so.5:_ZN13QOpenGLWidget11qt_metacastEPKc
libQt5Widgets.so.5:_ZN13QOpenGLWidget11resizeEventEP12QResizeEvent
libQt5Widgets.so.5:_ZN13QOpenGLWidget16staticMetaObjectE
libQt5Widgets.so.5:_ZN13QOpenGLWidget5eventEP6QEvent
libQt5Widgets.so.5:_ZN13QOpenGLWidget9setFormatERK14QSurfaceFormat
libQt5Widgets.so.5:_ZN13QOpenGLWidgetC2EP7QWidget6QFlagsIN2Qt10WindowTypeEE
libQt5Widgets.so.5:_ZN13QOpenGLWidgetD2Ev
libQt5Widgets.so.5:_ZN14QDoubleSpinBox10setMaximumEd
libQt5Widgets.so.5:_ZN14QDoubleSpinBox10setMinimumEd
libQt5Widgets.so.5:_ZN14QDoubleSpinBox12valueChangedEd
libQt5Widgets.so.5:_ZN14QDoubleSpinBox13setSingleStepEd
libQt5Widgets.so.5:_ZN14QDoubleSpinBox16staticMetaObjectE
libQt5Widgets.so.5:_ZN14QDoubleSpinBox8setValueEd
libQt5Widgets.so.5:_ZN14QDoubleSpinBoxC1EP7QWidget
libQt5Widgets.so.5:_ZN14QGraphicsScene10removeItemEP13QGraphicsItem
libQt5Widgets.so.5:_ZN14QGraphicsScene12setSceneRectERK6QRectF
libQt5Widgets.so.5:_ZN14QGraphicsScene16staticMetaObjectE
libQt5Widgets.so.5:_ZN14QGraphicsScene6renderEP8QPainterRK6QRectFS4_N2Qt15AspectRatioModeE
libQt5Widgets.so.5:_ZN14QGraphicsScene7addItemEP13QGraphicsItem
libQt5Widgets.so.5:_ZN14QGraphicsScene7changedERK5QListI6QRectFE
libQt5Widgets.so.5:_ZN14QGraphicsSceneC1EP7QObject
libQt5Widgets.so.5:_ZN15QAbstractButton10setCheckedEb
libQt5Widgets.so.5:_ZN15QAbstractButton16staticMetaObjectE
libQt5Widgets.so.5:_ZN15QAbstractButton7clickedEb
libQt5Widgets.so.5:_ZN15QAbstractButton7setTextERK7QString
libQt5Widgets.so.5:_ZN15QAbstractButton7toggledEb
libQt5Widgets.so.5:_ZN15QGraphicsLayout10invalidateEv
libQt5Widgets.so.5:_ZN15QGraphicsLayout11widgetEventEP6QEvent
libQt5Widgets.so.5:_ZN15QGraphicsLayout14updateGeometryEv
libQt5Widgets.so.5:_ZN15QGraphicsLayoutC2EP19QGraphicsLayoutItem
libQt5Widgets.so.5:_ZN15QGraphicsLayoutD2Ev
libQt5Widgets.so.5:_ZN15QGraphicsObject11grabGestureEN2Qt11GestureTypeE6QFlagsINS0_11GestureFlagEE
libQt5Widgets.so.5:_ZN15QGraphicsObject11qt_metacallEN11QMetaObject4CallEiPPv
libQt5Widgets.so.5:_ZN15QGraphicsObject11qt_metacastEPKc
libQt5Widgets.so.5:_ZN15QGraphicsObject16staticMetaObjectE
libQt5Widgets.so.5:_ZN15QGraphicsObject5eventEP6QEvent
libQt5Widgets.so.5:_ZN15QGraphicsObjectC2EP13QGraphicsItem
libQt5Widgets.so.5:_ZN15QGraphicsObjectD2Ev
libQt5Widgets.so.5:_ZN15QGraphicsWidget10closeEventEP11QCloseEvent
libQt5Widgets.so.5:_ZN15QGraphicsWidget10itemChangeEN13QGraphicsItem18GraphicsItemChangeERK8QVariant
libQt5Widgets.so.5:_ZN15QGraphicsWidget10sceneEventEP6QEvent
libQt5Widgets.so.5:_ZN15QGraphicsWidget11changeEventEP6QEvent
libQt5Widgets.so.5:_ZN15QGraphicsWidget11polishEventEv
libQt5Widgets.so.5:_ZN15QGraphicsWidget11qt_metacallEN11QMetaObject4CallEiPPv
libQt5Widgets.so.5:_ZN15QGraphicsWidget11qt_metacastEPKc
libQt5Widgets.so.5:_ZN15QGraphicsWidget11resizeEventEP25QGraphicsSceneResizeEvent
libQt5Widgets.so.5:_ZN15QGraphicsWidget11setGeometryERK6QRectF
libQt5Widgets.so.5:_ZN15QGraphicsWidget12focusInEventEP11QFocusEvent
libQt5Widgets.so.5:_ZN15QGraphicsWidget13focusOutEventEP11QFocusEvent
libQt5Widgets.so.5:_ZN15QGraphicsWidget14grabMouseEventEP6QEvent
libQt5Widgets.so.5:_ZN15QGraphicsWidget14hoverMoveEventEP24QGraphicsSceneHoverEvent
libQt5Widgets.so.5:_ZN15QGraphicsWidget14propertyChangeERK7QStringRK8QVariant
libQt5Widgets.so.5:_ZN15QGraphicsWidget14updateGeometryEv
libQt5Widgets.so.5:_ZN15QGraphicsWidget15hoverLeaveEventEP24QGraphicsSceneHoverEvent
libQt5Widgets.so.5:_ZN15QGraphicsWidget16paintWindowFrameEP8QPainterPK24QStyleOptionGraphicsItemP7QWidget
libQt5Widgets.so.5:_ZN15QGraphicsWidget16staticMetaObjectE
libQt5Widgets.so.5:_ZN15QGraphicsWidget16ungrabMouseEventEP6QEvent
libQt5Widgets.so.5:_ZN15QGraphicsWidget16windowFrameEventEP6QEvent
libQt5Widgets.so.5:_ZN15QGraphicsWidget17grabKeyboardEventEP6QEvent
libQt5Widgets.so.5:_ZN15QGraphicsWidget18focusNextPrevChildEb
libQt5Widgets.so.5:_ZN15QGraphicsWidget19ungrabKeyboardEventEP6QEvent
libQt5Widgets.so.5:_ZN15QGraphicsWidget5eventEP6QEvent
libQt5Widgets.so.5:_ZN15QGraphicsWidget5paintEP8QPainterPK24QStyleOptionGraphicsItemP7QWidget
libQt5Widgets.so.5:_ZN15QGraphicsWidget6resizeERK6QSizeF
libQt5Widgets.so.5:_ZN15QGraphicsWidget9hideEventEP10QHideEvent
libQt5Widgets.so.5:_ZN15QGraphicsWidget9moveEventEP23QGraphicsSceneMoveEvent
libQt5Widgets.so.5:_ZN15QGraphicsWidget9setLayoutEP15QGraphicsLayout
libQt5Widgets.so.5:_ZN15QGraphicsWidget9showEventEP10QShowEvent
libQt5Widgets.so.5:_ZN15QGraphicsWidgetC2EP13QGraphicsItem6QFlagsIN2Qt10WindowTypeEE
libQt5Widgets.so.5:_ZN15QGraphicsWidgetD2Ev
libQt5Widgets.so.5:_ZN17QGraphicsLineItem12setExtensionEN13QGraphicsItem9ExtensionERK8QVariant
libQt5Widgets.so.5:_ZN17QGraphicsLineItem5paintEP8QPainterPK24QStyleOptionGraphicsItemP7QWidget
libQt5Widgets.so.5:_ZN17QGraphicsLineItem6setPenERK4QPen
libQt5Widgets.so.5:_ZN17QGraphicsLineItem7setLineERK6QLineF
libQt5Widgets.so.5:_ZN17QGraphicsLineItemC1EP13QGraphicsItem
libQt5Widgets.so.5:_ZN17QGraphicsLineItemC2EP13QGraphicsItem
libQt5Widgets.so.5:_ZN17QGraphicsLineItemD2Ev
libQt5Widgets.so.5:_ZN17QGraphicsPathItem7setPathERK12QPainterPath
libQt5Widgets.so.5:_ZN17QGraphicsPathItemC1EP13QGraphicsItem
libQt5Widgets.so.5:_ZN17QGraphicsRectItem12setExtensionEN13QGraphicsItem9ExtensionERK8QVariant
libQt5Widgets.so.5:_ZN17QGraphicsRectItem5paintEP8QPainterPK24QStyleOptionGraphicsItemP7QWidget
libQt5Widgets.so.5:_ZN17QGraphicsRectItem7setRectERK6QRectF
libQt5Widgets.so.5:_ZN17QGraphicsRectItemC1EP13QGraphicsItem
libQt5Widgets.so.5:_ZN17QGraphicsRectItemC2EP13QGraphicsItem
libQt5Widgets.so.5:_ZN17QGraphicsRectItemC2EddddP13QGraphicsItem
libQt5Widgets.so.5:_ZN17QGraphicsRectItemD2Ev
libQt5Widgets.so.5:_ZN17QGraphicsTextItem10sceneEventEP6QEvent
libQt5Widgets.so.5:_ZN17QGraphicsTextItem11qt_metacallEN11QMetaObject4CallEiPPv
libQt5Widgets.so.5:_ZN17QGraphicsTextItem11qt_metacastEPKc
libQt5Widgets.so.5:_ZN17QGraphicsTextItem12focusInEventEP11QFocusEvent
libQt5Widgets.so.5:_ZN17QGraphicsTextItem12setExtensionEN13QGraphicsItem9ExtensionERK8QVariant
libQt5Widgets.so.5:_ZN17QGraphicsTextItem12setTextWidthEd
libQt5Widgets.so.5:_ZN17QGraphicsTextItem13dragMoveEventEP27QGraphicsSceneDragDropEvent
libQt5Widgets.so.5:_ZN17QGraphicsTextItem13focusOutEventEP11QFocusEvent
libQt5Widgets.so.5:_ZN17QGraphicsTextItem13keyPressEventEP9QKeyEvent
libQt5Widgets.so.5:_ZN17QGraphicsTextItem13setTextCursorERK11QTextCursor
libQt5Widgets.so.5:_ZN17QGraphicsTextItem14dragEnterEventEP27QGraphicsSceneDragDropEvent
libQt5Widgets.so.5:_ZN17QGraphicsTextItem14dragLeaveEventEP27QGraphicsSceneDragDropEvent
libQt5Widgets.so.5:_ZN17QGraphicsTextItem14hoverMoveEventEP24QGraphicsSceneHoverEvent
libQt5Widgets.so.5:_ZN17QGraphicsTextItem14mouseMoveEventEP24QGraphicsSceneMouseEvent
libQt5Widgets.so.5:_ZN17QGraphicsTextItem15hoverEnterEventEP24QGraphicsSceneHoverEvent
libQt5Widgets.so.5:_ZN17QGraphicsTextItem15hoverLeaveEventEP24QGraphicsSceneHoverEvent
libQt5Widgets.so.5:_ZN17QGraphicsTextItem15keyReleaseEventEP9QKeyEvent
libQt5Widgets.so.5:_ZN17QGraphicsTextItem15mousePressEventEP24QGraphicsSceneMouseEvent
libQt5Widgets.so.5:_ZN17QGraphicsTextItem16contextMenuEventEP30QGraphicsSceneContextMenuEvent
libQt5Widgets.so.5:_ZN17QGraphicsTextItem16inputMethodEventEP17QInputMethodEvent
libQt5Widgets.so.5:_ZN17QGraphicsTextItem16staticMetaObjectE
libQt5Widgets.so.5:_ZN17QGraphicsTextItem17mouseReleaseEventEP24QGraphicsSceneMouseEvent
libQt5Widgets.so.5:_ZN17QGraphicsTextItem19setDefaultTextColorERK6QColor
libQt5Widgets.so.5:_ZN17QGraphicsTextItem21mouseDoubleClickEventEP24QGraphicsSceneMouseEvent
libQt5Widgets.so.5:_ZN17QGraphicsTextItem23setTextInteractionFlagsE6QFlagsIN2Qt19TextInteractionFlagEE
libQt5Widgets.so.5:_ZN17QGraphicsTextItem5paintEP8QPainterPK24QStyleOptionGraphicsItemP7QWidget
libQt5Widgets.so.5:_ZN17QGraphicsTextItem7setFontERK5QFont
libQt5Widgets.so.5:_ZN17QGraphicsTextItem7setHtmlERK7QString
libQt5Widgets.so.5:_ZN17QGraphicsTextItem9dropEventEP27QGraphicsSceneDragDropEvent
libQt5Widgets.so.5:_ZN17QGraphicsTextItemC1EP13QGraphicsItem
libQt5Widgets.so.5:_ZN17QGraphicsTextItemC2EP13QGraphicsItem
libQt5Widgets.so.5:_ZN17QGraphicsTextItemD1Ev
libQt5Widgets.so.5:_ZN17QGraphicsTextItemD2Ev
libQt5Widgets.so.5:_ZN18QGraphicsItemGroup10addToGroupEP13QGraphicsItem
libQt5Widgets.so.5:_ZN18QGraphicsItemGroup15removeFromGroupEP13QGraphicsItem
libQt5Widgets.so.5:_ZN18QGraphicsItemGroupC1EP13QGraphicsItem
libQt5Widgets.so.5:_ZN18QGraphicsItemGroupD1Ev
libQt5Widgets.so.5:_ZN19QAbstractScrollArea11eventFilterEP7QObjectP6QEvent
libQt5Widgets.so.5:_ZN19QAbstractScrollArea26setVerticalScrollBarPolicyEN2Qt15ScrollBarPolicyE
libQt5Widgets.so.5:_ZN19QAbstractScrollArea28setHorizontalScrollBarPolicyEN2Qt15ScrollBarPolicyE
libQt5Widgets.so.5:_ZN19QGraphicsLayoutItem11setGeometryERK6QRectF
libQt5Widgets.so.5:_ZN19QGraphicsLayoutItem14setMinimumSizeERK6QSizeF
libQt5Widgets.so.5:_ZN19QGraphicsLayoutItem14updateGeometryEv
libQt5Widgets.so.5:_ZN19QGraphicsLayoutItemC2EPS_b
libQt5Widgets.so.5:_ZN19QGraphicsLayoutItemD2Ev
libQt5Widgets.so.5:_ZN19QGraphicsSceneEvent9setWidgetEP7QWidget
libQt5Widgets.so.5:_ZN20QGraphicsEllipseItem12setExtensionEN13QGraphicsItem9ExtensionERK8QVariant
libQt5Widgets.so.5:_ZN20QGraphicsEllipseItem5paintEP8QPainterPK24QStyleOptionGraphicsItemP7QWidget
libQt5Widgets.so.5:_ZN20QGraphicsEllipseItem7setRectERK6QRectF
libQt5Widgets.so.5:_ZN20QGraphicsEllipseItemC1EP13QGraphicsItem
libQt5Widgets.so.5:_ZN20QGraphicsEllipseItemC2EddddP13QGraphicsItem
libQt5Widgets.so.5:_ZN20QGraphicsEllipseItemD2Ev
libQt5Widgets.so.5:_ZN23QGraphicsSimpleTextItem7setTextERK7QString
libQt5Widgets.so.5:_ZN23QGraphicsSimpleTextItemC1EP13QGraphicsItem
libQt5Widgets.so.5:_ZN24QGraphicsSceneMouseEvent10setButtonsE6QFlagsIN2Qt11MouseButtonEE
libQt5Widgets.so.5:_ZN24QGraphicsSceneMouseEvent11setScenePosERK7QPointF
libQt5Widgets.so.5:_ZN24QGraphicsSceneMouseEvent12setModifiersE6QFlagsIN2Qt16KeyboardModifierEE
libQt5Widgets.so.5:_ZN24QGraphicsSceneMouseEvent12setScreenPosERK6QPoint
libQt5Widgets.so.5:_ZN24QGraphicsSceneMouseEvent15setLastScenePosERK7QPointF
libQt5Widgets.so.5:_ZN24QGraphicsSceneMouseEvent16setLastScreenPosERK6QPoint
libQt5Widgets.so.5:_ZN24QGraphicsSceneMouseEvent21setButtonDownScenePosEN2Qt11MouseButtonERK7QPointF
libQt5Widgets.so.5:_ZN24QGraphicsSceneMouseEvent22setButtonDownScreenPosEN2Qt11MouseButtonERK6QPoint
libQt5Widgets.so.5:_ZN24QGraphicsSceneMouseEvent9setButtonEN2Qt11MouseButtonE
libQt5Widgets.so.5:_ZN24QGraphicsSceneMouseEventC1EN6QEvent4TypeE
libQt5Widgets.so.5:_ZN24QGraphicsSceneMouseEventD1Ev
libQt5Widgets.so.5:_ZN25QGraphicsDropShadowEffect13setBlurRadiusEd
libQt5Widgets.so.5:_ZN25QGraphicsDropShadowEffect9setOffsetERK7QPointF
libQt5Widgets.so.5:_ZN25QGraphicsDropShadowEffectC1EP7QObject
libQt5Widgets.so.5:_ZN26QAbstractGraphicsShapeItem6setPenERK4QPen
libQt5Widgets.so.5:_ZN26QAbstractGraphicsShapeItem8setBrushERK6QBrush
libQt5Widgets.so.5:_ZN6QFrame11changeEventEP6QEvent
libQt5Widgets.so.5:_ZN6QFrame13setFrameShapeENS_5ShapeE
libQt5Widgets.so.5:_ZN6QLabel7setTextERK7QString
libQt5Widgets.so.5:_ZN6QLabelC1EP7QWidget6QFlagsIN2Qt10WindowTypeEE
libQt5Widgets.so.5:_ZN7QDialog4execEv
libQt5Widgets.so.5:_ZN7QLayout9addWidgetEP7QWidget
libQt5Widgets.so.5:_ZN7QWidget10adjustSizeEv
libQt5Widgets.so.5:_ZN7QWidget10closeEventEP11QCloseEvent
libQt5Widgets.so.5:_ZN7QWidget10enterEventEP6QEvent
libQt5Widgets.so.5:_ZN7QWidget10leaveEventEP6QEvent
libQt5Widgets.so.5:_ZN7QWidget10paintEventEP11QPaintEvent
libQt5Widgets.so.5:_ZN7QWidget10setEnabledEb
libQt5Widgets.so.5:_ZN7QWidget10setPaletteERK8QPalette
libQt5Widgets.so.5:_ZN7QWidget10setVisibleEb
libQt5Widgets.so.5:_ZN7QWidget10wheelEventEP11QWheelEvent
libQt5Widgets.so.5:_ZN7QWidget11actionEventEP12QActionEvent
libQt5Widgets.so.5:_ZN7QWidget11changeEventEP6QEvent
libQt5Widgets.so.5:_ZN7QWidget11grabGestureEN2Qt11GestureTypeE6QFlagsINS0_11GestureFlagEE
libQt5Widgets.so.5:_ZN7QWidget11nativeEventERK10QByteArrayPvPl
libQt5Widgets.so.5:_ZN7QWidget11qt_metacallEN11QMetaObject4CallEiPPv
libQt5Widgets.so.5:_ZN7QWidget11qt_metacastEPKc
libQt5Widgets.so.5:_ZN7QWidget11resizeEventEP12QResizeEvent
libQt5Widgets.so.5:_ZN7QWidget11setGeometryERK5QRect
libQt5Widgets.so.5:_ZN7QWidget11tabletEventEP12QTabletEvent
libQt5Widgets.so.5:_ZN7QWidget12focusInEventEP11QFocusEvent
libQt5Widgets.so.5:_ZN7QWidget12setAttributeEN2Qt15WidgetAttributeEb
libQt5Widgets.so.5:_ZN7QWidget13dragMoveEventEP14QDragMoveEvent
libQt5Widgets.so.5:_ZN7QWidget13focusOutEventEP11QFocusEvent
libQt5Widgets.so.5:_ZN7QWidget13keyPressEventEP9QKeyEvent
libQt5Widgets.so.5:_ZN7QWidget13setSizePolicyE11QSizePolicy
libQt5Widgets.so.5:_ZN7QWidget14dragEnterEventEP15QDragEnterEvent
libQt5Widgets.so.5:_ZN7QWidget14dragLeaveEventEP15QDragLeaveEvent
libQt5Widgets.so.5:_ZN7QWidget14mouseMoveEventEP11QMouseEvent
libQt5Widgets.so.5:_ZN7QWidget14setMaximumSizeEii
libQt5Widgets.so.5:_ZN7QWidget14setMinimumSizeEii
libQt5Widgets.so.5:_ZN7QWidget14setWindowFlagsE6QFlagsIN2Qt10WindowTypeEE
libQt5Widgets.so.5:_ZN7QWidget14setWindowTitleERK7QString
libQt5Widgets.so.5:_ZN7QWidget15keyReleaseEventEP9QKeyEvent
libQt5Widgets.so.5:_ZN7QWidget15mousePressEventEP11QMouseEvent
libQt5Widgets.so.5:_ZN7QWidget15setMinimumWidthEi
libQt5Widgets.so.5:_ZN7QWidget16contextMenuEventEP17QContextMenuEvent
libQt5Widgets.so.5:_ZN7QWidget16inputMethodEventEP17QInputMethodEvent
libQt5Widgets.so.5:_ZN7QWidget16staticMetaObjectE
libQt5Widgets.so.5:_ZN7QWidget17mouseReleaseEventEP11QMouseEvent
libQt5Widgets.so.5:_ZN7QWidget17setBackgroundRoleEN8QPalette9ColorRoleE
libQt5Widgets.so.5:_ZN7QWidget18focusNextPrevChildEb
libQt5Widgets.so.5:_ZN7QWidget21mouseDoubleClickEventEP11QMouseEvent
libQt5Widgets.so.5:_ZN7QWidget4hideEv
libQt5Widgets.so.5:_ZN7QWidget4moveERK6QPoint
libQt5Widgets.so.5:_ZN7QWidget4showEv
libQt5Widgets.so.5:_ZN7QWidget5eventEP6QEvent
libQt5Widgets.so.5:_ZN7QWidget5raiseEv
libQt5Widgets.so.5:_ZN7QWidget6resizeERK5QSize
libQt5Widgets.so.5:_ZN7QWidget6updateEv
libQt5Widgets.so.5:_ZN7QWidget9dropEventEP10QDropEvent
libQt5Widgets.so.5:_ZN7QWidget9hideEventEP10QHideEvent
libQt5Widgets.so.5:_ZN7QWidget9moveEventEP10QMoveEvent
libQt5Widgets.so.5:_ZN7QWidget9setLayoutEP7QLayout
libQt5Widgets.so.5:_ZN7QWidget9showEventEP10QShowEvent
libQt5Widgets.so.5:_ZN7QWidgetC1EPS_6QFlagsIN2Qt10WindowTypeEE
libQt5Widgets.so.5:_ZN7QWidgetC2EPS_6QFlagsIN2Qt10WindowTypeEE
libQt5Widgets.so.5:_ZN7QWidgetD2Ev
libQt5Widgets.so.5:_ZN9QCheckBox13setCheckStateEN2Qt10CheckStateE
libQt5Widgets.so.5:_ZN9QCheckBoxC1EP7QWidget
libQt5Widgets.so.5:_ZN9QComboBox10insertItemEiRK5QIconRK7QStringRK8QVariant
libQt5Widgets.so.5:_ZN9QComboBox15setCurrentIndexEi
libQt5Widgets.so.5:_ZN9QComboBox16staticMetaObjectE
libQt5Widgets.so.5:_ZN9QComboBox19currentIndexChangedEi
libQt5Widgets.so.5:_ZN9QComboBoxC1EP7QWidget
libQt5Widgets.so.5:_ZN9QGroupBoxC1ERK7QStringP7QWidget
libQt5Widgets.so.5:_ZN9QLineEdit11textChangedERK7QString
libQt5Widgets.so.5:_ZN9QLineEdit16staticMetaObjectE
libQt5Widgets.so.5:_ZN9QLineEdit7setTextERK7QString
libQt5Widgets.so.5:_ZN9QLineEditC1ERK7QStringP7QWidget
libQt5Widgets.so.5:_ZNK10QTableView14verticalHeaderEv
libQt5Widgets.so.5:_ZNK10QTableView16horizontalHeaderEv
libQt5Widgets.so.5:_ZNK11QFontDialog11currentFontEv
libQt5Widgets.so.5:_ZNK11QPanGesture5deltaEv
libQt5Widgets.so.5:_ZNK12QColorDialog13selectedColorEv
libQt5Widgets.so.5:_ZNK13QGestureEvent7gestureEN2Qt11GestureTypeE
libQt5Widgets.so.5:_ZNK13QGraphicsItem10childItemsEv
libQt5Widgets.so.5:_ZNK13QGraphicsItem10opaqueAreaEv
libQt5Widgets.so.5:_ZNK13QGraphicsItem10parentItemEv
libQt5Widgets.so.5:_ZNK13QGraphicsItem11mapToParentERK7QPointF
libQt5Widgets.so.5:_ZNK13QGraphicsItem12isObscuredByEPKS_
libQt5Widgets.so.5:_ZNK13QGraphicsItem13mapFromParentERK7QPointF
libQt5Widgets.so.5:_ZNK13QGraphicsItem16collidesWithItemEPKS_N2Qt17ItemSelectionModeE
libQt5Widgets.so.5:_ZNK13QGraphicsItem16collidesWithPathERK12QPainterPathN2Qt17ItemSelectionModeE
libQt5Widgets.so.5:_ZNK13QGraphicsItem16inputMethodQueryEN2Qt16InputMethodQueryE
libQt5Widgets.so.5:_ZNK13QGraphicsItem17supportsExtensionENS_9ExtensionE
libQt5Widgets.so.5:_ZNK13QGraphicsItem3posEv
libQt5Widgets.so.5:_ZNK13QGraphicsItem4typeEv
libQt5Widgets.so.5:_ZNK13QGraphicsItem5sceneEv
libQt5Widgets.so.5:_ZNK13QGraphicsItem5shapeEv
libQt5Widgets.so.5:_ZNK13QGraphicsItem6zValueEv
libQt5Widgets.so.5:_ZNK13QGraphicsItem7opacityEv
libQt5Widgets.so.5:_ZNK13QGraphicsItem8containsERK7QPointF
libQt5Widgets.so.5:_ZNK13QGraphicsItem9extensionERK8QVariant
libQt5Widgets.so.5:_ZNK13QGraphicsItem9isVisibleEv
libQt5Widgets.so.5:_ZNK13QGraphicsView11renderHintsEv
libQt5Widgets.so.5:_ZNK13QGraphicsView16inputMethodQueryEN2Qt16InputMethodQueryE
libQt5Widgets.so.5:_ZNK13QGraphicsView5sceneEv
libQt5Widgets.so.5:_ZNK13QGraphicsView8sizeHintEv
libQt5Widgets.so.5:_ZNK13QGraphicsView9transformEv
libQt5Widgets.so.5:_ZNK13QOpenGLWidget10redirectedEP6QPoint
libQt5Widgets.so.5:_ZNK13QOpenGLWidget11paintEngineEv
libQt5Widgets.so.5:_ZNK13QOpenGLWidget24defaultFramebufferObjectEv
libQt5Widgets.so.5:_ZNK13QOpenGLWidget6metricEN12QPaintDevice17PaintDeviceMetricE
libQt5Widgets.so.5:_ZNK13QOpenGLWidget7contextEv
libQt5Widgets.so.5:_ZNK13QPinchGesture11changeFlagsEv
libQt5Widgets.so.5:_ZNK13QPinchGesture11scaleFactorEv
libQt5Widgets.so.5:_ZNK14QDoubleSpinBox5valueEv
libQt5Widgets.so.5:_ZNK14QGraphicsScene5itemsERK7QPointFN2Qt17ItemSelectionModeENS3_9SortOrderERK10QTransform
libQt5Widgets.so.5:_ZNK14QGraphicsScene5viewsEv
libQt5Widgets.so.5:_ZNK15QAbstractButton9isCheckedEv
libQt5Widgets.so.5:_ZNK15QGraphicsLayout18getContentsMarginsEPdS0_S0_S0_
libQt5Widgets.so.5:_ZNK15QGraphicsObject10metaObjectEv
libQt5Widgets.so.5:_ZNK15QGraphicsWidget12boundingRectEv
libQt5Widgets.so.5:_ZNK15QGraphicsWidget15initStyleOptionEP12QStyleOption
libQt5Widgets.so.5:_ZNK15QGraphicsWidget18getContentsMarginsEPdS0_S0_S0_
libQt5Widgets.so.5:_ZNK15QGraphicsWidget20windowFrameSectionAtERK7QPointF
libQt5Widgets.so.5:_ZNK15QGraphicsWidget4sizeEv
libQt5Widgets.so.5:_ZNK15QGraphicsWidget4typeEv
libQt5Widgets.so.5:_ZNK15QGraphicsWidget5shapeEv
libQt5Widgets.so.5:_ZNK15QGraphicsWidget6layoutEv
libQt5Widgets.so.5:_ZNK15QGraphicsWidget8sizeHintEN2Qt8SizeHintERK6QSizeF
libQt5Widgets.so.5:_ZNK17QGraphicsLineItem10opaqueAreaEv
libQt5Widgets.so.5:_ZNK17QGraphicsLineItem12isObscuredByEPK13QGraphicsItem
libQt5Widgets.so.5:_ZNK17QGraphicsLineItem17supportsExtensionEN13QGraphicsItem9ExtensionE
libQt5Widgets.so.5:_ZNK17QGraphicsLineItem3penEv
libQt5Widgets.so.5:_ZNK17QGraphicsLineItem4lineEv
libQt5Widgets.so.5:_ZNK17QGraphicsLineItem4typeEv
libQt5Widgets.so.5:_ZNK17QGraphicsLineItem5shapeEv
libQt5Widgets.so.5:_ZNK17QGraphicsLineItem8containsERK7QPointF
libQt5Widgets.so.5:_ZNK17QGraphicsLineItem9extensionERK8QVariant
libQt5Widgets.so.5:_ZNK17QGraphicsRectItem10opaqueAreaEv
libQt5Widgets.so.5:_ZNK17QGraphicsRectItem12boundingRectEv
libQt5Widgets.so.5:_ZNK17QGraphicsRectItem12isObscuredByEPK13QGraphicsItem
libQt5Widgets.so.5:_ZNK17QGraphicsRectItem17supportsExtensionEN13QGraphicsItem9ExtensionE
libQt5Widgets.so.5:_ZNK17QGraphicsRectItem4rectEv
libQt5Widgets.so.5:_ZNK17QGraphicsRectItem4typeEv
libQt5Widgets.so.5:_ZNK17QGraphicsRectItem5shapeEv
libQt5Widgets.so.5:_ZNK17QGraphicsRectItem8containsERK7QPointF
libQt5Widgets.so.5:_ZNK17QGraphicsRectItem9extensionERK8QVariant
libQt5Widgets.so.5:_ZNK17QGraphicsTextItem10metaObjectEv
libQt5Widgets.so.5:_ZNK17QGraphicsTextItem10opaqueAreaEv
libQt5Widgets.so.5:_ZNK17QGraphicsTextItem10textCursorEv
libQt5Widgets.so.5:_ZNK17QGraphicsTextItem11toPlainTextEv
libQt5Widgets.so.5:_ZNK17QGraphicsTextItem12boundingRectEv
libQt5Widgets.so.5:_ZNK17QGraphicsTextItem12isObscuredByEPK13QGraphicsItem
libQt5Widgets.so.5:_ZNK17QGraphicsTextItem16defaultTextColorEv
libQt5Widgets.so.5:_ZNK17QGraphicsTextItem16inputMethodQueryEN2Qt16InputMethodQueryE
libQt5Widgets.so.5:_ZNK17QGraphicsTextItem17supportsExtensionEN13QGraphicsItem9ExtensionE
libQt5Widgets.so.5:_ZNK17QGraphicsTextItem4fontEv
libQt5Widgets.so.5:_ZNK17QGraphicsTextItem4typeEv
libQt5Widgets.so.5:_ZNK17QGraphicsTextItem5shapeEv
libQt5Widgets.so.5:_ZNK17QGraphicsTextItem6toHtmlEv
libQt5Widgets.so.5:_ZNK17QGraphicsTextItem8containsERK7QPointF
libQt5Widgets.so.5:_ZNK17QGraphicsTextItem8documentEv
libQt5Widgets.so.5:_ZNK17QGraphicsTextItem9extensionERK8QVariant
libQt5Widgets.so.5:_ZNK19QAbstractScrollArea15minimumSizeHintEv
libQt5Widgets.so.5:_ZNK19QAbstractScrollArea16viewportSizeHintEv
libQt5Widgets.so.5:_ZNK19QAbstractScrollArea8viewportEv
libQt5Widgets.so.5:_ZNK19QGraphicsLayoutItem11maximumSizeEv
libQt5Widgets.so.5:_ZNK19QGraphicsLayoutItem11minimumSizeEv
libQt5Widgets.so.5:_ZNK19QGraphicsLayoutItem17effectiveSizeHintEN2Qt8SizeHintERK6QSizeF
libQt5Widgets.so.5:_ZNK19QGraphicsLayoutItem18getContentsMarginsEPdS0_S0_S0_
libQt5Widgets.so.5:_ZNK19QGraphicsLayoutItem8geometryEv
libQt5Widgets.so.5:_ZNK20QGraphicsEllipseItem10opaqueAreaEv
libQt5Widgets.so.5:_ZNK20QGraphicsEllipseItem12boundingRectEv
libQt5Widgets.so.5:_ZNK20QGraphicsEllipseItem12isObscuredByEPK13QGraphicsItem
libQt5Widgets.so.5:_ZNK20QGraphicsEllipseItem17supportsExtensionEN13QGraphicsItem9ExtensionE
libQt5Widgets.so.5:_ZNK20QGraphicsEllipseItem4typeEv
libQt5Widgets.so.5:_ZNK20QGraphicsEllipseItem5shapeEv
libQt5Widgets.so.5:_ZNK20QGraphicsEllipseItem8containsERK7QPointF
libQt5Widgets.so.5:_ZNK20QGraphicsEllipseItem9extensionERK8QVariant
libQt5Widgets.so.5:_ZNK24QGraphicsSceneHoverEvent3posEv
libQt5Widgets.so.5:_ZNK24QGraphicsSceneMouseEvent13buttonDownPosEN2Qt11MouseButtonE
libQt5Widgets.so.5:_ZNK24QGraphicsSceneMouseEvent3posEv
libQt5Widgets.so.5:_ZNK24QGraphicsSceneMouseEvent7buttonsEv
libQt5Widgets.so.5:_ZNK24QGraphicsSceneMouseEvent8scenePosEv
libQt5Widgets.so.5:_ZNK24QGraphicsSceneMouseEvent9screenPosEv
libQt5Widgets.so.5:_ZNK26QAbstractGraphicsShapeItem3penEv
libQt5Widgets.so.5:_ZNK26QAbstractGraphicsShapeItem5brushEv
libQt5Widgets.so.5:_ZNK7QWidget10redirectedEP6QPoint
libQt5Widgets.so.5:_ZNK7QWidget11initPainterEP8QPainter
libQt5Widgets.so.5:_ZNK7QWidget11maximumSizeEv
libQt5Widgets.so.5:_ZNK7QWidget11minimumSizeEv
libQt5Widgets.so.5:_ZNK7QWidget11paintEngineEv
libQt5Widgets.so.5:_ZNK7QWidget13sharedPainterEv
libQt5Widgets.so.5:_ZNK7QWidget14heightForWidthEi
libQt5Widgets.so.5:_ZNK7QWidget15minimumSizeHintEv
libQt5Widgets.so.5:_ZNK7QWidget16inputMethodQueryEN2Qt16InputMethodQueryE
libQt5Widgets.so.5:_ZNK7QWidget17hasHeightForWidthEv
libQt5Widgets.so.5:_ZNK7QWidget6metricEN12QPaintDevice17PaintDeviceMetricE
libQt5Widgets.so.5:_ZNK7QWidget6windowEv
libQt5Widgets.so.5:_ZNK7QWidget7devTypeEv
libQt5Widgets.so.5:_ZNK7QWidget7paletteEv
libQt5Widgets.so.5:_ZNK7QWidget8sizeHintEv
libQt5Widgets.so.5:_ZNK9QCheckBox10checkStateEv
libQt5Widgets.so.5:_ZNK9QComboBox12currentIndexEv
libQt5Widgets.so.5:_ZNK9QComboBox5countEv
libQt5Widgets.so.5:_ZNK9QComboBox8findDataERK8QVarianti6QFlagsIN2Qt9MatchFlagEE
libQt5Widgets.so.5:_ZNK9QComboBox8itemDataEii
libQt5Widgets.so.5:_ZNK9QLineEdit4textEv
libQt5Widgets.so.5:_ZTI13QGraphicsItem
libQt5Widgets.so.5:_ZTI13QGraphicsView
libQt5Widgets.so.5:_ZTI13QOpenGLWidget
libQt5Widgets.so.5:_ZTI15QGraphicsLayout
libQt5Widgets.so.5:_ZTI15QGraphicsObject
libQt5Widgets.so.5:_ZTI15QGraphicsWidget
libQt5Widgets.so.5:_ZTI17QGraphicsLineItem
libQt5Widgets.so.5:_ZTI17QGraphicsRectItem
libQt5Widgets.so.5:_ZTI17QGraphicsTextItem
libQt5Widgets.so.5:_ZTI19QGraphicsLayoutItem
libQt5Widgets.so.5:_ZTI20QGraphicsEllipseItem
libQt5Widgets.so.5:_ZTI7QWidget
libQt5Widgets.so.5:_ZTV11QSpacerItem
libQt5Widgets.so.5:_ZThn16_N15QGraphicsWidget10itemChangeEN13QGraphicsItem18GraphicsItemChangeERK8QVariant
libQt5Widgets.so.5:_ZThn16_N15QGraphicsWidget10sceneEventEP6QEvent
libQt5Widgets.so.5:_ZThn16_N15QGraphicsWidget12focusInEventEP11QFocusEvent
libQt5Widgets.so.5:_ZThn16_N15QGraphicsWidget13focusOutEventEP11QFocusEvent
libQt5Widgets.so.5:_ZThn16_N15QGraphicsWidget14hoverMoveEventEP24QGraphicsSceneHoverEvent
libQt5Widgets.so.5:_ZThn16_N15QGraphicsWidget15hoverLeaveEventEP24QGraphicsSceneHoverEvent
libQt5Widgets.so.5:_ZThn16_N15QGraphicsWidget5paintEP8QPainterPK24QStyleOptionGraphicsItemP7QWidget
libQt5Widgets.so.5:_ZThn16_N17QGraphicsTextItem10sceneEventEP6QEvent
libQt5Widgets.so.5:_ZThn16_N17QGraphicsTextItem12focusInEventEP11QFocusEvent
libQt5Widgets.so.5:_ZThn16_N17QGraphicsTextItem12setExtensionEN13QGraphicsItem9ExtensionERK8QVariant
libQt5Widgets.so.5:_ZThn16_N17QGraphicsTextItem13dragMoveEventEP27QGraphicsSceneDragDropEvent
libQt5Widgets.so.5:_ZThn16_N17QGraphicsTextItem13focusOutEventEP11QFocusEvent
libQt5Widgets.so.5:_ZThn16_N17QGraphicsTextItem13keyPressEventEP9QKeyEvent
libQt5Widgets.so.5:_ZThn16_N17QGraphicsTextItem14dragEnterEventEP27QGraphicsSceneDragDropEvent
libQt5Widgets.so.5:_ZThn16_N17QGraphicsTextItem14dragLeaveEventEP27QGraphicsSceneDragDropEvent
libQt5Widgets.so.5:_ZThn16_N17QGraphicsTextItem14hoverMoveEventEP24QGraphicsSceneHoverEvent
libQt5Widgets.so.5:_ZThn16_N17QGraphicsTextItem14mouseMoveEventEP24QGraphicsSceneMouseEvent
libQt5Widgets.so.5:_ZThn16_N17QGraphicsTextItem15hoverEnterEventEP24QGraphicsSceneHoverEvent
libQt5Widgets.so.5:_ZThn16_N17QGraphicsTextItem15hoverLeaveEventEP24QGraphicsSceneHoverEvent
libQt5Widgets.so.5:_ZThn16_N17QGraphicsTextItem15keyReleaseEventEP9QKeyEvent
libQt5Widgets.so.5:_ZThn16_N17QGraphicsTextItem15mousePressEventEP24QGraphicsSceneMouseEvent
libQt5Widgets.so.5:_ZThn16_N17QGraphicsTextItem16contextMenuEventEP30QGraphicsSceneContextMenuEvent
libQt5Widgets.so.5:_ZThn16_N17QGraphicsTextItem16inputMethodEventEP17QInputMethodEvent
libQt5Widgets.so.5:_ZThn16_N17QGraphicsTextItem17mouseReleaseEventEP24QGraphicsSceneMouseEvent
libQt5Widgets.so.5:_ZThn16_N17QGraphicsTextItem21mouseDoubleClickEventEP24QGraphicsSceneMouseEvent
libQt5Widgets.so.5:_ZThn16_N17QGraphicsTextItem5paintEP8QPainterPK24QStyleOptionGraphicsItemP7QWidget
libQt5Widgets.so.5:_ZThn16_N17QGraphicsTextItem9dropEventEP27QGraphicsSceneDragDropEvent
libQt5Widgets.so.5:_ZThn16_NK13QOpenGLWidget10redirectedEP6QPoint
libQt5Widgets.so.5:_ZThn16_NK13QOpenGLWidget11paintEngineEv
libQt5Widgets.so.5:_ZThn16_NK13QOpenGLWidget6metricEN12QPaintDevice17PaintDeviceMetricE
libQt5Widgets.so.5:_ZThn16_NK15QGraphicsWidget12boundingRectEv
libQt5Widgets.so.5:_ZThn16_NK15QGraphicsWidget4typeEv
libQt5Widgets.so.5:_ZThn16_NK15QGraphicsWidget5shapeEv
libQt5Widgets.so.5:_ZThn16_NK17QGraphicsTextItem10opaqueAreaEv
libQt5Widgets.so.5:_ZThn16_NK17QGraphicsTextItem12boundingRectEv
libQt5Widgets.so.5:_ZThn16_NK17QGraphicsTextItem12isObscuredByEPK13QGraphicsItem
libQt5Widgets.so.5:_ZThn16_NK17QGraphicsTextItem16inputMethodQueryEN2Qt16InputMethodQueryE
libQt5Widgets.so.5:_ZThn16_NK17QGraphicsTextItem17supportsExtensionEN13QGraphicsItem9ExtensionE
libQt5Widgets.so.5:_ZThn16_NK17QGraphicsTextItem4typeEv
libQt5Widgets.so.5:_ZThn16_NK17QGraphicsTextItem5shapeEv
libQt5Widgets.so.5:_ZThn16_NK17QGraphicsTextItem8containsERK7QPointF
libQt5Widgets.so.5:_ZThn16_NK17QGraphicsTextItem9extensionERK8QVariant
libQt5Widgets.so.5:_ZThn16_NK7QWidget10redirectedEP6QPoint
libQt5Widgets.so.5:_ZThn16_NK7QWidget11initPainterEP8QPainter
libQt5Widgets.so.5:_ZThn16_NK7QWidget11paintEngineEv
libQt5Widgets.so.5:_ZThn16_NK7QWidget13sharedPainterEv
libQt5Widgets.so.5:_ZThn16_NK7QWidget6metricEN12QPaintDevice17PaintDeviceMetricE
libQt5Widgets.so.5:_ZThn16_NK7QWidget7devTypeEv
libQt5Widgets.so.5:_ZThn32_N15QGraphicsWidget11setGeometryERK6QRectF
libQt5Widgets.so.5:_ZThn32_N15QGraphicsWidget14updateGeometryEv
libQt5Widgets.so.5:_ZThn32_NK15QGraphicsWidget18getContentsMarginsEPdS0_S0_S0_
libQt5Widgets.so.5:_ZThn32_NK15QGraphicsWidget8sizeHintEN2Qt8SizeHintERK6QSizeF
libc.so.6:__cxa_atexit
libc.so.6:__libc_start_main
libc.so.6:__stack_chk_fail
libc.so.6:free
libc.so.6:malloc
libc.so.6:memcpy
libc.so.6:memmove
libc.so.6:memset
libc.so.6:strcmp
libc.so.6:strlen
libm.so.6:log
libm.so.6:log10
libm.so.6:pow
libm.so.6:sin
libm.so.6:sincos
libm.so.6:sqrt
libstdc++.so.6:_ZTVN10__cxxabiv117__class_type_infoE
libstdc++.so.6:_ZTVN10__cxxabiv120__si_class_type_infoE
libstdc++.so.6:_ZTVN10__cxxabiv121__vmi_class_type_infoE
libstdc++.so.6:_ZdaPv
libstdc++.so.6:_ZdlPv
libstdc++.so.6:_ZdlPvm
libstdc++.so.6:_Znam
libstdc++.so.6:_Znwm
libstdc++.so.6:__cxa_guard_acquire
libstdc++.so.6:__cxa_guard_release
