witchblast:_IO_stdin_used
witchblast:_Z12getGoldScorei
witchblast:_Z12getItemScore15item_equip_enum
witchblast:_Z12getTimeScorei
witchblast:_Z13compareScoresN14WitchBlastGame11StructScoreES0_
witchblast:_Z13getRandomDoorv
witchblast:_Z14getSecretScorev
witchblast:_Z14isUnidentified12enumItemType
witchblast:_Z15getMonsterScore13enemyTypeEnum
witchblast:_Z15getPerfectScorei
witchblast:_Z17getChallengeScorei
witchblast:_Z20generateStandardRoomib
witchblast:_Z22generateAdvancedRoom01v
witchblast:_Z22generateAdvancedRoom02v
witchblast:_Z22generateAdvancedRoom03v
witchblast:_Z22generateAdvancedRoom04v
witchblast:_Z22generateAdvancedRoom05v
witchblast:_Z22generateAdvancedRoom06v
witchblast:_Z22generateStandardRoom01v
witchblast:_Z22generateStandardRoom02v
witchblast:_Z22generateStandardRoom03v
witchblast:_Z22generateStandardRoom04v
witchblast:_Z22generateStandardRoom05v
witchblast:_Z22generateStandardRoom06v
witchblast:_Z22generateStandardRoom07v
witchblast:_Z22generateStandardRoom08v
witchblast:_Z4gamev
witchblast:_Z8compareZP10GameEntityS0_
witchblast:_ZN10BoltEntity10getDamagesEv
witchblast:_ZN10BoltEntity10isCriticalEv
witchblast:_ZN10BoltEntity10setDamagesEi
witchblast:_ZN10BoltEntity11calculateBBEv
witchblast:_ZN10BoltEntity11getBoltTypeEv
witchblast:_ZN10BoltEntity11loseDamagesEi
witchblast:_ZN10BoltEntity11setCriticalEb
witchblast:_ZN10BoltEntity12getEnemyTypeEv
witchblast:_ZN10BoltEntity12getGoThroughEv
witchblast:_ZN10BoltEntity12isFromPlayerEv
witchblast:_ZN10BoltEntity12setGoThroughEb
witchblast:_ZN10BoltEntity13collideMapTopEv
witchblast:_ZN10BoltEntity13setFromPlayerEb
witchblast:_ZN10BoltEntity14collideMapLeftEv
witchblast:_ZN10BoltEntity14collideWithMapEi
witchblast:_ZN10BoltEntity15collideMapRightEv
witchblast:_ZN10BoltEntity16collideMapBottomEv
witchblast:_ZN10BoltEntity17generateParticuleE8Vector2D
witchblast:_ZN10BoltEntity5stuckEv
witchblast:_ZN10BoltEntity6renderEPN2sf12RenderTargetE
witchblast:_ZN10BoltEntity7animateEf
witchblast:_ZN10BoltEntity7collideEv
witchblast:_ZN10BoltEntity7explodeEv
witchblast:_ZN10BoltEntity7onDyingEv
witchblast:_ZN10BoltEntity8getLevelEv
witchblast:_ZN10BoltEntity8isFlyingEv
witchblast:_ZN10BoltEntity9setFlyingEb
witchblast:_ZN10BoltEntityC1Efff12enumShotTypei
witchblast:_ZN10BoltEntityC2Efff12enumShotTypei
witchblast:_ZN10DoorEntity11renderDoorsEPN2sf12RenderTargetE
witchblast:_ZN10DoorEntity11setDoorTypeE8doorEnum
witchblast:_ZN10DoorEntity6renderEPN2sf12RenderTargetE
witchblast:_ZN10DoorEntity7animateEf
witchblast:_ZN10DoorEntity7setOpenEb
witchblast:_ZN10DoorEntity8openDoorEv
witchblast:_ZN10DoorEntity9closeDoorEv
witchblast:_ZN10DoorEntityC1Ei
witchblast:_ZN10DoorEntityC2Ei
witchblast:_ZN10DungeonMap10isRevealedEv
witchblast:_ZN10DungeonMap10isWalkableEii
witchblast:_ZN10DungeonMap10setClearedEb
witchblast:_ZN10DungeonMap10setVisitedEb
witchblast:_ZN10DungeonMap11getDivinityEii
witchblast:_ZN10DungeonMap11getDoorTypeEi
witchblast:_ZN10DungeonMap11getItemListB5cxx11Ev
witchblast:_ZN10DungeonMap11getRoomTypeEv
witchblast:_ZN10DungeonMap11getWallTypeEv
witchblast:_ZN10DungeonMap11initPatternENS_11patternEnumE
witchblast:_ZN10DungeonMap11isShootableEii
witchblast:_ZN10DungeonMap11setDoorTypeEi8doorEnum
witchblast:_ZN10DungeonMap11setRevealedEb
witchblast:_ZN10DungeonMap11setRoomTypeE12roomTypeEnum
witchblast:_ZN10DungeonMap11setWallTypeEi
witchblast:_ZN10DungeonMap12getChestListB5cxx11Ev
witchblast:_ZN10DungeonMap12isUpBlockingEii
witchblast:_ZN10DungeonMap12restoreItemsEv
witchblast:_ZN10DungeonMap13generateTableEiiiii
witchblast:_ZN10DungeonMap13getObjectTileEii
witchblast:_ZN10DungeonMap13getSpriteListB5cxx11Ev
witchblast:_ZN10DungeonMap13restoreChestsEv
witchblast:_ZN10DungeonMap13setObjectTileEiii
witchblast:_ZN10DungeonMap14addRandomGridsEi
witchblast:_ZN10DungeonMap14callRevelationEv
witchblast:_ZN10DungeonMap14containsHealthEv
witchblast:_ZN10DungeonMap14generateCarpetEiiiii
witchblast:_ZN10DungeonMap14generateTempleEii16enumDivinityType
witchblast:_ZN10DungeonMap14getFloorOffsetEv
witchblast:_ZN10DungeonMap14getLogicalTileEii
witchblast:_ZN10DungeonMap14getNeighbourUpEv
witchblast:_ZN10DungeonMap14hasNeighbourUpEv
witchblast:_ZN10DungeonMap14isDownBlockingEii
witchblast:_ZN10DungeonMap14isLeftBlockingEii
witchblast:_ZN10DungeonMap14restoreSpritesEv
witchblast:_ZN10DungeonMap14setFloorOffsetEi
witchblast:_ZN10DungeonMap14setLogicalTileEii19logicalMapStateEnum
witchblast:_ZN10DungeonMap15cleanMapObjectsEv
witchblast:_ZN10DungeonMap15generateKeyRoomEv
witchblast:_ZN10DungeonMap15isRightBlockingEii
witchblast:_ZN10DungeonMap15makePatternTileEii
witchblast:_ZN10DungeonMap16displayToConsoleEv
witchblast:_ZN10DungeonMap16generateExitRoomEv
witchblast:_ZN10DungeonMap16getNeighbourDownEv
witchblast:_ZN10DungeonMap16getNeighbourLeftEv
witchblast:_ZN10DungeonMap16hasNeighbourDownEv
witchblast:_ZN10DungeonMap16hasNeighbourLeftEv
witchblast:_ZN10DungeonMap17generateBonusRoomEv
witchblast:_ZN10DungeonMap17generateChestRoomEv
witchblast:_ZN10DungeonMap17generateCorridorsEv
witchblast:_ZN10DungeonMap17generateInselRoomEv
witchblast:_ZN10DungeonMap17getNeighbourRightEv
witchblast:_ZN10DungeonMap17hasKnownNeighbourEib
witchblast:_ZN10DungeonMap17hasNeighbourRightEv
witchblast:_ZN10DungeonMap17restoreMapObjectsEv
witchblast:_ZN10DungeonMap18generateLongObjectEiiii
witchblast:_ZN10DungeonMap18generateRandomTileEi
witchblast:_ZN10DungeonMap18generateRoomRandomEi
witchblast:_ZN10DungeonMap18generateSecretRoomEv
witchblast:_ZN10DungeonMap18generateTempleRoomEv
witchblast:_ZN10DungeonMap19generateRandomTilesEv
witchblast:_ZN10DungeonMap20addDestroyableObjectEiii
witchblast:_ZN10DungeonMap20generateMerchantRoomEv
witchblast:_ZN10DungeonMap20getRandomTileElementEi
witchblast:_ZN10DungeonMap20setRandomTileElementEiNS_17RandomTileElementE
witchblast:_ZN10DungeonMap21generateRoomWithHolesEi
witchblast:_ZN10DungeonMap24generateRoomWithoutHolesEi
witchblast:_ZN10DungeonMap6isDoorEii
witchblast:_ZN10DungeonMap7addHoleEii
witchblast:_ZN10DungeonMap7addItemEiffb
witchblast:_ZN10DungeonMap7isKnownEv
witchblast:_ZN10DungeonMap8addChestEibff
witchblast:_ZN10DungeonMap8initRoomEii
witchblast:_ZN10DungeonMap8openDoorEii
witchblast:_ZN10DungeonMap8setKnownEb
witchblast:_ZN10DungeonMap9addSpriteEiifff
witchblast:_ZN10DungeonMap9closeDoorEii
witchblast:_ZN10DungeonMap9isClearedEv
witchblast:_ZN10DungeonMap9isFlyableEii
witchblast:_ZN10DungeonMap9isVisitedEv
witchblast:_ZN10DungeonMap9randomizeEi
witchblast:_ZN10DungeonMapC1EP9GameFloorii
witchblast:_ZN10DungeonMapC1Eii
witchblast:_ZN10DungeonMapC2EP9GameFloorii
witchblast:_ZN10DungeonMapC2Eii
witchblast:_ZN10DungeonMapD0Ev
witchblast:_ZN10DungeonMapD1Ev
witchblast:_ZN10DungeonMapD2Ev
witchblast:_ZN10GameEntity11getLifetimeEv
witchblast:_ZN10GameEntity11getVelocityEv
witchblast:_ZN10GameEntity11setLifetimeEf
witchblast:_ZN10GameEntity11setVelocityE8Vector2D
witchblast:_ZN10GameEntity12setViscosityEf
witchblast:_ZN10GameEntity4getXEv
witchblast:_ZN10GameEntity4getYEv
witchblast:_ZN10GameEntity4getZEv
witchblast:_ZN10GameEntity4setXEf
witchblast:_ZN10GameEntity4setYEf
witchblast:_ZN10GameEntity4setZEf
witchblast:_ZN10GameEntity6getAgeEv
witchblast:_ZN10GameEntity6renderEPN2sf12RenderTargetE
witchblast:_ZN10GameEntity6setAgeEf
witchblast:_ZN10GameEntity7animateEf
witchblast:_ZN10GameEntity7getFadeEv
witchblast:_ZN10GameEntity7getTypeEv
witchblast:_ZN10GameEntity7onDyingEv
witchblast:_ZN10GameEntity7setSpinEf
witchblast:_ZN10GameEntity7setTypeEi
witchblast:_ZN10GameEntity8getDyingEv
witchblast:_ZN10GameEntity8setAngleEf
witchblast:_ZN10GameEntity8setDyingEb
witchblast:_ZN10GameEntity9setWeightEf
witchblast:_ZN10GameEntityC1Eff
witchblast:_ZN10GameEntityC1Ev
witchblast:_ZN10GameEntityC2Eff
witchblast:_ZN10GameEntityC2Ev
witchblast:_ZN10GameEntityD0Ev
witchblast:_ZN10GameEntityD1Ev
witchblast:_ZN10GameEntityD2Ev
witchblast:_ZN10GameEntityltERKS_
witchblast:_ZN10ItemEntity11calculateBBEv
witchblast:_ZN10ItemEntity13canBePickedUpEv
witchblast:_ZN10ItemEntity13collideMapTopEv
witchblast:_ZN10ItemEntity13startsJumpingEv
witchblast:_ZN10ItemEntity14collideMapLeftEv
witchblast:_ZN10ItemEntity14getMerchandiseEv
witchblast:_ZN10ItemEntity14setMerchandiseEb
witchblast:_ZN10ItemEntity15collideMapRightEv
witchblast:_ZN10ItemEntity16collideMapBottomEv
witchblast:_ZN10ItemEntity19readCollidingEntityEP21CollidingSpriteEntity
witchblast:_ZN10ItemEntity3buyEv
witchblast:_ZN10ItemEntity5dyingEv
witchblast:_ZN10ItemEntity6renderEPN2sf12RenderTargetE
witchblast:_ZN10ItemEntity7animateEf
witchblast:_ZN10ItemEntity7isOnMapEv
witchblast:_ZN10ItemEntity8getPriceEv
witchblast:_ZN10ItemEntityC1E12enumItemTypeff
witchblast:_ZN10ItemEntityC2E12enumItemTypeff
witchblast:_ZN10TextEntity12setAlignmentEi
witchblast:_ZN10TextEntity6renderEPN2sf12RenderTargetE
witchblast:_ZN10TextEntity7animateEf
witchblast:_ZN10TextEntity7setTextENSt7__cxx1112basic_stringIcSt11char_traitsIcESaIcEEE
witchblast:_ZN10TextEntity8setColorEi
witchblast:_ZN10TextEntityC1ENSt7__cxx1112basic_stringIcSt11char_traitsIcESaIcEEEiff
witchblast:_ZN10TextEntityC2ENSt7__cxx1112basic_stringIcSt11char_traitsIcESaIcEEEiff
witchblast:_ZN11ChestEntity10makeAppearEv
witchblast:_ZN11ChestEntity11calculateBBEv
witchblast:_ZN11ChestEntity12generateStarEN2sf5ColorE
witchblast:_ZN11ChestEntity12getChestTypeEv
witchblast:_ZN11ChestEntity15initFallingGridEv
witchblast:_ZN11ChestEntity19readCollidingEntityEP21CollidingSpriteEntity
witchblast:_ZN11ChestEntity4openEv
witchblast:_ZN11ChestEntity6renderEPN2sf12RenderTargetE
witchblast:_ZN11ChestEntity7animateEf
witchblast:_ZN11ChestEntity8dropItemE12enumItemType
witchblast:_ZN11ChestEntity8fallRockEv
witchblast:_ZN11ChestEntity9getOpenedEv
witchblast:_ZN11ChestEntityC1Effib
witchblast:_ZN11ChestEntityC2Effib
witchblast:_ZN11EnemyEntity10canCollideEv
witchblast:_ZN11EnemyEntity10setLabelDyEf
witchblast:_ZN11EnemyEntity11calculateBBEv
witchblast:_ZN11EnemyEntity12getEnemyTypeEv
witchblast:_ZN11EnemyEntity13collideMapTopEv
witchblast:_ZN11EnemyEntity13renderLifeBarEPN2sf12RenderTargetENSt7__cxx1112basic_stringIcSt11char_traitsIcESaIcEEE
witchblast:_ZN11EnemyEntity14collideMapLeftEv
witchblast:_ZN11EnemyEntity15checkNextFacingEf
witchblast:_ZN11EnemyEntity15collideMapRightEv
witchblast:_ZN11EnemyEntity15collideWithBoltEP10BoltEntity
witchblast:_ZN11EnemyEntity15testEntityInMapEv
witchblast:_ZN11EnemyEntity16collideMapBottomEv
witchblast:_ZN11EnemyEntity16collideWithEnemyEPS_
witchblast:_ZN11EnemyEntity19readCollidingEntityEP21CollidingSpriteEntity
witchblast:_ZN11EnemyEntity21getCollisionDirectionEP10BoltEntity
witchblast:_ZN11EnemyEntity4dropEv
witchblast:_ZN11EnemyEntity4hurtE10StructHurt
witchblast:_ZN11EnemyEntity5dyingEv
witchblast:_ZN11EnemyEntity6renderEPN2sf12RenderTargetE
witchblast:_ZN11EnemyEntity7animateEf
witchblast:_ZN11EnemyEntity8dropItemE12enumItemType
witchblast:_ZN11EnemyEntityC1EPN2sf7TextureEff
witchblast:_ZN11EnemyEntityC2EPN2sf7TextureEff
witchblast:_ZN11FairyEntity12gainNewPowerEv
witchblast:_ZN11FairyEntity15checkCollisionsEv
witchblast:_ZN11FairyEntity18isPlayerControlledEv
witchblast:_ZN11FairyEntity22computeFacingDirectionEv
witchblast:_ZN11FairyEntity4fireEib
witchblast:_ZN11FairyEntity4moveEi
witchblast:_ZN11FairyEntity7animateEf
witchblast:_ZN11FairyEntity7computeEv
witchblast:_ZN11FairyEntity9tryToFireEv
witchblast:_ZN11FairyEntityC1Eff12enumFamiliarb
witchblast:_ZN11FairyEntityC2Eff12enumFamiliarb
witchblast:_ZN11GhostEntity11calculateBBEv
witchblast:_ZN11GhostEntity12getGhostFadeEv
witchblast:_ZN11GhostEntity13collideMapTopEv
witchblast:_ZN11GhostEntity14collideMapLeftEv
witchblast:_ZN11GhostEntity15collideMapRightEv
witchblast:_ZN11GhostEntity15collideWithBoltEP10BoltEntity
witchblast:_ZN11GhostEntity16collideMapBottomEv
witchblast:_ZN11GhostEntity16collideWithEnemyEP11EnemyEntity
witchblast:_ZN11GhostEntity4dropEv
witchblast:_ZN11GhostEntity6renderEPN2sf12RenderTargetE
witchblast:_ZN11GhostEntity7animateEf
witchblast:_ZN11GhostEntityC1Eff
witchblast:_ZN11GhostEntityC2Eff
witchblast:_ZN11SlimeEntity10canCollideEv
witchblast:_ZN11SlimeEntity11calculateBBEv
witchblast:_ZN11SlimeEntity11makeExplodeEv
witchblast:_ZN11SlimeEntity12prepareDyingEv
witchblast:_ZN11SlimeEntity13collideMapTopEv
witchblast:_ZN11SlimeEntity14collideMapLeftEv
witchblast:_ZN11SlimeEntity14collideWithMapEi
witchblast:_ZN11SlimeEntity14getMovingStyleEv
witchblast:_ZN11SlimeEntity15collideMapRightEv
witchblast:_ZN11SlimeEntity16collideMapBottomEv
witchblast:_ZN11SlimeEntity16collideWithEnemyEP11EnemyEntity
witchblast:_ZN11SlimeEntity19readCollidingEntityEP21CollidingSpriteEntity
witchblast:_ZN11SlimeEntity4dropEv
witchblast:_ZN11SlimeEntity4fireEv
witchblast:_ZN11SlimeEntity5dyingEv
witchblast:_ZN11SlimeEntity6renderEPN2sf12RenderTargetE
witchblast:_ZN11SlimeEntity7animateEf
witchblast:_ZN11SlimeEntity7explodeEv
witchblast:_ZN11SlimeEntity7makePetEi
witchblast:_ZN11SlimeEntityC1Eff13slimeTypeEnumb
witchblast:_ZN11SlimeEntityC2Eff13slimeTypeEnumb
witchblast:_ZN11SnakeEntity11calculateBBEv
witchblast:_ZN11SnakeEntity13collideMapTopEv
witchblast:_ZN11SnakeEntity14collideMapLeftEv
witchblast:_ZN11SnakeEntity15collideMapRightEv
witchblast:_ZN11SnakeEntity16collideMapBottomEv
witchblast:_ZN11SnakeEntity16collideWithEnemyEP11EnemyEntity
witchblast:_ZN11SnakeEntity19readCollidingEntityEP21CollidingSpriteEntity
witchblast:_ZN11SnakeEntity4dropEv
witchblast:_ZN11SnakeEntity7animateEf
witchblast:_ZN11SnakeEntityC1EffNS_13snakeTypeEnumEb
witchblast:_ZN11SnakeEntityC2EffNS_13snakeTypeEnumEb
witchblast:_ZN11WitchEntity11calculateBBEv
witchblast:_ZN11WitchEntity13collideMapTopEv
witchblast:_ZN11WitchEntity14collideMapLeftEv
witchblast:_ZN11WitchEntity15collideMapRightEv
witchblast:_ZN11WitchEntity15collideWithBoltEP10BoltEntity
witchblast:_ZN11WitchEntity16collideMapBottomEv
witchblast:_ZN11WitchEntity16collideWithEnemyEP11EnemyEntity
witchblast:_ZN11WitchEntity4dropEv
witchblast:_ZN11WitchEntity4fireEv
witchblast:_ZN11WitchEntity7animateEf
witchblast:_ZN11WitchEntityC1EffNS_13witchTypeEnumE
witchblast:_ZN11WitchEntityC2EffNS_13witchTypeEnumE
witchblast:_ZN12BubbleEntity11calculateBBEv
witchblast:_ZN12BubbleEntity13collideMapTopEv
witchblast:_ZN12BubbleEntity13getBubbleSizeEv
witchblast:_ZN12BubbleEntity14collideMapLeftEv
witchblast:_ZN12BubbleEntity15collideMapRightEv
witchblast:_ZN12BubbleEntity16collideMapBottomEv
witchblast:_ZN12BubbleEntity16collideWithEnemyEP11EnemyEntity
witchblast:_ZN12BubbleEntity5dyingEv
witchblast:_ZN12BubbleEntity6renderEPN2sf12RenderTargetE
witchblast:_ZN12BubbleEntity7animateEf
witchblast:_ZN12BubbleEntityC1Eff14EnumBubbleTypei
witchblast:_ZN12BubbleEntityC2Eff14EnumBubbleTypei
witchblast:_ZN12ImageManager11getInstanceEv
witchblast:_ZN12ImageManager11reloadImageEiPKc
witchblast:_ZN12ImageManager8addImageEPKc
witchblast:_ZN12ImageManager8getImageEi
witchblast:_ZN12ImageManagerC1Ev
witchblast:_ZN12ImageManagerC2Ev
witchblast:_ZN12ImageManagerD1Ev
witchblast:_ZN12ImageManagerD2Ev
witchblast:_ZN12MagnetEntity7animateEf
witchblast:_ZN12MagnetEntityC1EffP12PlayerEntity12enumItemType
witchblast:_ZN12MagnetEntityC2EffP12PlayerEntity12enumItemType
witchblast:_ZN12PlayerEntity10canCollideEv
witchblast:_ZN12PlayerEntity10castFreezeEv
witchblast:_ZN12PlayerEntity10divineFuryEv
witchblast:_ZN12PlayerEntity10divineHealEi
witchblast:_ZN12PlayerEntity10isPoisonedEv
witchblast:_ZN12PlayerEntity10renderHaloEPN2sf12RenderTargetE
witchblast:_ZN12PlayerEntity10useBossKeyEv
witchblast:_ZN12PlayerEntity11acquireItemE12enumItemType
witchblast:_ZN12PlayerEntity11calculateBBEv
witchblast:_ZN12PlayerEntity11getDivinityEv
witchblast:_ZN12PlayerEntity11getFireRateEv
witchblast:_ZN12PlayerEntity11getShotTypeEi
witchblast:_ZN12PlayerEntity11getShotTypeEv
witchblast:_ZN12PlayerEntity11offerHealthEi
witchblast:_ZN12PlayerEntity11onClearRoomEv
witchblast:_ZN12PlayerEntity11setEnteringEv
witchblast:_ZN12PlayerEntity11setEquippedEibb
witchblast:_ZN12PlayerEntity11setShotTypeEi12enumShotType
witchblast:_ZN12PlayerEntity12canCastSpellEv
witchblast:_ZN12PlayerEntity12castFireballEv
witchblast:_ZN12PlayerEntity12castTeleportEv
witchblast:_ZN12PlayerEntity12castTimeStopEv
witchblast:_ZN12PlayerEntity12generateBoltEff
witchblast:_ZN12PlayerEntity12getEquipmentEv
witchblast:_ZN12PlayerEntity12getItemToBuyEv
witchblast:_ZN12PlayerEntity12getShotIndexEv
witchblast:_ZN12PlayerEntity12getShotLevelEi
witchblast:_ZN12PlayerEntity12getShotLevelEv
witchblast:_ZN12PlayerEntity12initShotTypeEv
witchblast:_ZN12PlayerEntity12loadDivinityEiiii
witchblast:_ZN12PlayerEntity12offerMonsterE13enemyTypeEnum12enumShotType
witchblast:_ZN12PlayerEntity12pietyLevelUpEv
witchblast:_ZN12PlayerEntity12renderPlayerEPN2sf12RenderTargetE
witchblast:_ZN12PlayerEntity12setItemToBuyEP10ItemEntity
witchblast:_ZN12PlayerEntity12setShotIndexEi
witchblast:_ZN12PlayerEntity12tryToConsumeEi
witchblast:_ZN12PlayerEntity13acquireStanceE12enumItemType
witchblast:_ZN12PlayerEntity13canGetNewShotEb
witchblast:_ZN12PlayerEntity13castLightningEv
witchblast:_ZN12PlayerEntity13collideMapTopEv
witchblast:_ZN12PlayerEntity13computePlayerEv
witchblast:_ZN12PlayerEntity13divineRepulseEv
witchblast:_ZN12PlayerEntity13getConsumableEi
witchblast:_ZN12PlayerEntity13setConsumableEii
witchblast:_ZN12PlayerEntity14castEarthquakeEv
witchblast:_ZN12PlayerEntity14castProtectionEv
witchblast:_ZN12PlayerEntity14collideMapLeftEv
witchblast:_ZN12PlayerEntity14collideWithMapEi
witchblast:_ZN12PlayerEntity14getActiveSpellEv
witchblast:_ZN12PlayerEntity14offerChallengeEv
witchblast:_ZN12PlayerEntity14resetFloorItemEv
witchblast:_ZN12PlayerEntity14selectShotTypeEi
witchblast:_ZN12PlayerEntity14setActiveSpellE13enumCastSpellb
witchblast:_ZN12PlayerEntity15collideMapRightEv
witchblast:_ZN12PlayerEntity15dropConsumablesEi
witchblast:_ZN12PlayerEntity15getBolPositionYEv
witchblast:_ZN12PlayerEntity15getFairieNumberEv
witchblast:_ZN12PlayerEntity15getPlayerStatusEv
witchblast:_ZN12PlayerEntity15initFallingGridEv
witchblast:_ZN12PlayerEntity15setLeavingLevelEv
witchblast:_ZN12PlayerEntity15setPlayerStatusENS_16playerStatusEnumE
witchblast:_ZN12PlayerEntity15setSpecialStateE16enumSpecialStatebfffb
witchblast:_ZN12PlayerEntity16collideMapBottomEv
witchblast:_ZN12PlayerEntity16divineProtectionEff
witchblast:_ZN12PlayerEntity16getFireDirectionEv
witchblast:_ZN12PlayerEntity17acquireConsumableE12enumItemType
witchblast:_ZN12PlayerEntity17castSummonsFlowerEv
witchblast:_ZN12PlayerEntity17getFadingDivinityEb
witchblast:_ZN12PlayerEntity18castTransmuteFairyEv
witchblast:_ZN12PlayerEntity18getFacingDirectionEv
witchblast:_ZN12PlayerEntity18getFairyTransmutedEv
witchblast:_ZN12PlayerEntity18resetFireDirectionEv
witchblast:_ZN12PlayerEntity18selectNextShotTypeEv
witchblast:_ZN12PlayerEntity18setFacingDirectionEi
witchblast:_ZN12PlayerEntity18willCollideWithMapEiib
witchblast:_ZN12PlayerEntity19canAquireConsumableE12enumItemType
witchblast:_ZN12PlayerEntity19displayAcquiredGoldEi
witchblast:_ZN12PlayerEntity19divineDestroyUndeadEv
witchblast:_ZN12PlayerEntity19getLastHurtingEnemyEv
witchblast:_ZN12PlayerEntity19getPercentFireDelayEv
witchblast:_ZN12PlayerEntity19readCollidingEntityEP21CollidingSpriteEntity
witchblast:_ZN12PlayerEntity19registerSpecialShotEi
witchblast:_ZN12PlayerEntity20getLastHurtingSourceEv
witchblast:_ZN12PlayerEntity20getPercentSpellDelayEv
witchblast:_ZN12PlayerEntity20triggerDivinityAfterEv
witchblast:_ZN12PlayerEntity21getCollidingDirectionEv
witchblast:_ZN12PlayerEntity21triggerDivinityBeforeEv
witchblast:_ZN12PlayerEntity22acquireItemAfterStanceEv
witchblast:_ZN12PlayerEntity23castSummonsSlimeExplodeEv
witchblast:_ZN12PlayerEntity25incrementDivInterventionsEv
witchblast:_ZN12PlayerEntity3payEi
witchblast:_ZN12PlayerEntity4fireEi
witchblast:_ZN12PlayerEntity4hurtE10StructHurt
witchblast:_ZN12PlayerEntity4moveEi
witchblast:_ZN12PlayerEntity5dyingEv
witchblast:_ZN12PlayerEntity5stuckEv
witchblast:_ZN12PlayerEntity6donateEi
witchblast:_ZN12PlayerEntity6isDeadEv
witchblast:_ZN12PlayerEntity6moveToEff
witchblast:_ZN12PlayerEntity6renderEPN2sf12RenderTargetE
witchblast:_ZN12PlayerEntity6revealEv
witchblast:_ZN12PlayerEntity6setMapEP7GameMapiiii
witchblast:_ZN12PlayerEntity7animateEf
witchblast:_ZN12PlayerEntity7canMoveEv
witchblast:_ZN12PlayerEntity7castWebEv
witchblast:_ZN12PlayerEntity7consumeE12enumItemType
witchblast:_ZN12PlayerEntity7worshipE16enumDivinityType
witchblast:_ZN12PlayerEntity8addPietyEi
witchblast:_ZN12PlayerEntity8fallRockEv
witchblast:_ZN12PlayerEntity8getFairyEj
witchblast:_ZN12PlayerEntity8getPietyEv
witchblast:_ZN12PlayerEntity8interactE19EnumInteractionTypei
witchblast:_ZN12PlayerEntity8isMovingEv
witchblast:_ZN12PlayerEntity8loseItemE12enumItemTypeb
witchblast:_ZN12PlayerEntity8rageFireEfbf
witchblast:_ZN12PlayerEntity9castSpellEv
witchblast:_ZN12PlayerEntity9divineIceEv
witchblast:_ZN12PlayerEntity9getDamageEv
witchblast:_ZN12PlayerEntity9getEndAgeEv
witchblast:_ZN12PlayerEntity9getLostHpEi
witchblast:_ZN12PlayerEntity9isEquipedEi
witchblast:_ZN12PlayerEntity9setEndAgeEf
witchblast:_ZN12PlayerEntity9setLostHpEii
witchblast:_ZN12PlayerEntityC1Eff
witchblast:_ZN12PlayerEntityC2Eff
witchblast:_ZN12SoundManager11getInstanceEv
witchblast:_ZN12SoundManager16checkSoundStatusEv
witchblast:_ZN12SoundManager17playPitchModSoundEib
witchblast:_ZN12SoundManager7setMuteEb
witchblast:_ZN12SoundManager8addSoundEPKc
witchblast:_ZN12SoundManager9playSoundEib
witchblast:_ZN12SoundManager9setVolumeEi
witchblast:_ZN12SoundManager9stopSoundEi
witchblast:_ZN12SoundManagerC1Ev
witchblast:_ZN12SoundManagerC2Ev
witchblast:_ZN12SoundManagerD1Ev
witchblast:_ZN12SoundManagerD2Ev
witchblast:_ZN12SpriteEntity10setTextureEPN2sf7TextureE
witchblast:_ZN12SpriteEntity10setVisibleEb
witchblast:_ZN12SpriteEntity12removeCenterEv
witchblast:_ZN12SpriteEntity12setMirroringEb
witchblast:_ZN12SpriteEntity12setRenderAddEv
witchblast:_ZN12SpriteEntity12setShrinkingEb
witchblast:_ZN12SpriteEntity12setShrinkingEbff
witchblast:_ZN12SpriteEntity16setImagesProLineEi
witchblast:_ZN12SpriteEntity17displayCenterAndZEPN2sf12RenderTargetE
witchblast:_ZN12SpriteEntity6renderEPN2sf12RenderTargetE
witchblast:_ZN12SpriteEntity7animateEf
witchblast:_ZN12SpriteEntity8getFrameEv
witchblast:_ZN12SpriteEntity8getWidthEv
witchblast:_ZN12SpriteEntity8setColorEN2sf5ColorE
witchblast:_ZN12SpriteEntity8setFrameEi
witchblast:_ZN12SpriteEntity8setScaleEff
witchblast:_ZN12SpriteEntity9getScaleXEv
witchblast:_ZN12SpriteEntity9setFadingEb
witchblast:_ZN12SpriteEntityC1EPN2sf7TextureEffiii
witchblast:_ZN12SpriteEntityC2EPN2sf7TextureEffiii
witchblast:_ZN12ZombieEntity11calculateBBEv
witchblast:_ZN12ZombieEntity11isAttackingEv
witchblast:_ZN12ZombieEntity13collideMapTopEv
witchblast:_ZN12ZombieEntity14collideMapLeftEv
witchblast:_ZN12ZombieEntity15collideMapRightEv
witchblast:_ZN12ZombieEntity16collideMapBottomEv
witchblast:_ZN12ZombieEntity16collideWithEnemyEP11EnemyEntity
witchblast:_ZN12ZombieEntity4dropEv
witchblast:_ZN12ZombieEntity6attackEv
witchblast:_ZN12ZombieEntity7animateEf
witchblast:_ZN12ZombieEntity7computeEb
witchblast:_ZN12ZombieEntityC1Effb
witchblast:_ZN12ZombieEntityC2Effb
witchblast:_ZN13ButcherEntity11calculateBBEv
witchblast:_ZN13ButcherEntity11isAttackingEv
witchblast:_ZN13ButcherEntity13collideMapTopEv
witchblast:_ZN13ButcherEntity14collideMapLeftEv
witchblast:_ZN13ButcherEntity15collideMapRightEv
witchblast:_ZN13ButcherEntity16collideMapBottomEv
witchblast:_ZN13ButcherEntity16collideWithEnemyEP11EnemyEntity
witchblast:_ZN13ButcherEntity4dropEv
witchblast:_ZN13ButcherEntity4hurtE10StructHurt
witchblast:_ZN13ButcherEntity6renderEPN2sf12RenderTargetE
witchblast:_ZN13ButcherEntity7animateEf
witchblast:_ZN13ButcherEntityC1Eff
witchblast:_ZN13ButcherEntityC2Eff
witchblast:_ZN13CyclopsEntity11calculateBBEv
witchblast:_ZN13CyclopsEntity13collideMapTopEv
witchblast:_ZN13CyclopsEntity13computeStatesEf
witchblast:_ZN13CyclopsEntity14collideMapLeftEv
witchblast:_ZN13CyclopsEntity14getHealthLevelEv
witchblast:_ZN13CyclopsEntity15collideMapRightEv
witchblast:_ZN13CyclopsEntity15initFallingGridEv
witchblast:_ZN13CyclopsEntity16afterWallCollideEv
witchblast:_ZN13CyclopsEntity16collideMapBottomEv
witchblast:_ZN13CyclopsEntity16collideWithEnemyEP11EnemyEntity
witchblast:_ZN13CyclopsEntity16inflictsRecoilToEP18BaseCreatureEntity
witchblast:_ZN13CyclopsEntity22computeNextRockMissileEv
witchblast:_ZN13CyclopsEntity4dropEv
witchblast:_ZN13CyclopsEntity4fireEv
witchblast:_ZN13CyclopsEntity4hurtE10StructHurt
witchblast:_ZN13CyclopsEntity6renderEPN2sf12RenderTargetE
witchblast:_ZN13CyclopsEntity7animateEf
witchblast:_ZN13CyclopsEntity8fallRockEv
witchblast:_ZN13CyclopsEntityC1Eff
witchblast:_ZN13CyclopsEntityC2Eff
witchblast:_ZN13EntityManager11getInstanceEv
witchblast:_ZN13EntityManager11renderAfterEPN2sf12RenderTargetEi
witchblast:_ZN13EntityManager11renderUnderEPN2sf12RenderTargetEi
witchblast:_ZN13EntityManager12initIteratorEv
witchblast:_ZN13EntityManager12partialCleanEi
witchblast:_ZN13EntityManager16displayToConsoleEv
witchblast:_ZN13EntityManager3addEP10GameEntity
witchblast:_ZN13EntityManager5cleanEv
witchblast:_ZN13EntityManager6renderEPN2sf12RenderTargetE
witchblast:_ZN13EntityManager7animateEf
witchblast:_ZN13EntityManager7getListB5cxx11Ev
witchblast:_ZN13EntityManager7onEventEN2sf5EventE
witchblast:_ZN13EntityManager7sortByZEv
witchblast:_ZN13EntityManager8nextItemEv
witchblast:_ZN13EntityManagerC1Ev
witchblast:_ZN13EntityManagerC2Ev
witchblast:_ZN13FranckyEntity11calculateBBEv
witchblast:_ZN13FranckyEntity13collideMapTopEv
witchblast:_ZN13FranckyEntity14collideMapLeftEv
witchblast:_ZN13FranckyEntity15collideMapRightEv
witchblast:_ZN13FranckyEntity16collideMapBottomEv
witchblast:_ZN13FranckyEntity16collideWithEnemyEP11EnemyEntity
witchblast:_ZN13FranckyEntity16inflictsRecoilToEP18BaseCreatureEntity
witchblast:_ZN13FranckyEntity4dropEv
witchblast:_ZN13FranckyEntity4fireEv
witchblast:_ZN13FranckyEntity5dyingEv
witchblast:_ZN13FranckyEntity6renderEPN2sf12RenderTargetE
witchblast:_ZN13FranckyEntity7animateEf
witchblast:_ZN13FranckyEntityC1Eff
witchblast:_ZN13FranckyEntityC2Eff
witchblast:_ZN13KingRatEntity11calculateBBEv
witchblast:_ZN13KingRatEntity13collideMapTopEv
witchblast:_ZN13KingRatEntity14collideMapLeftEv
witchblast:_ZN13KingRatEntity15collideMapRightEv
witchblast:_ZN13KingRatEntity16afterWallCollideEv
witchblast:_ZN13KingRatEntity16collideMapBottomEv
witchblast:_ZN13KingRatEntity16collideWithEnemyEP11EnemyEntity
witchblast:_ZN13KingRatEntity16inflictsRecoilToEP18BaseCreatureEntity
witchblast:_ZN13KingRatEntity17generateGreenRatsEv
witchblast:_ZN13KingRatEntity4dropEv
witchblast:_ZN13KingRatEntity4hurtE10StructHurt
witchblast:_ZN13KingRatEntity6renderEPN2sf12RenderTargetE
witchblast:_ZN13KingRatEntity7animateEf
witchblast:_ZN13KingRatEntityC1Eff
witchblast:_ZN13KingRatEntityC2Eff
witchblast:_ZN13MiniMapEntity6renderEPN2sf12RenderTargetE
witchblast:_ZN13MiniMapEntity7displayEPN2sf12RenderTargetE
witchblast:_ZN13MiniMapEntityC1EPN2sf7TextureEP7GameMapiii
witchblast:_ZN13MiniMapEntityC2EPN2sf7TextureEP7GameMapiii
witchblast:_ZN13MiniMapEntityD0Ev
witchblast:_ZN13MiniMapEntityD1Ev
witchblast:_ZN13MiniMapEntityD2Ev
witchblast:_ZN13PumpkinEntity11calculateBBEv
witchblast:_ZN13PumpkinEntity12prepareDyingEv
witchblast:_ZN13PumpkinEntity13collideMapTopEv
witchblast:_ZN13PumpkinEntity14collideMapLeftEv
witchblast:_ZN13PumpkinEntity15collideMapRightEv
witchblast:_ZN13PumpkinEntity16collideMapBottomEv
witchblast:_ZN13PumpkinEntity16collideWithEnemyEP11EnemyEntity
witchblast:_ZN13PumpkinEntity5dyingEv
witchblast:_ZN13PumpkinEntity6renderEPN2sf12RenderTargetE
witchblast:_ZN13PumpkinEntity7animateEf
witchblast:_ZN13PumpkinEntityC1Effb
witchblast:_ZN13PumpkinEntityC2Effb
witchblast:_ZN13SausageEntity10canCollideEv
witchblast:_ZN13SausageEntity11calculateBBEv
witchblast:_ZN13SausageEntity13collideMapTopEv
witchblast:_ZN13SausageEntity14collideMapLeftEv
witchblast:_ZN13SausageEntity15collideMapRightEv
witchblast:_ZN13SausageEntity16collideMapBottomEv
witchblast:_ZN13SausageEntity16collideWithEnemyEP11EnemyEntity
witchblast:_ZN13SausageEntity19readCollidingEntityEP21CollidingSpriteEntity
witchblast:_ZN13SausageEntity4dropEv
witchblast:_ZN13SausageEntity5dyingEv
witchblast:_ZN13SausageEntity6renderEPN2sf12RenderTargetE
witchblast:_ZN13SausageEntity7animateEf
witchblast:_ZN13SausageEntityC1Effb
witchblast:_ZN13SausageEntityC2Effb
witchblast:_ZN13TileMapEntity10getChangedEv
witchblast:_ZN13TileMapEntity10setTileBoxEii
witchblast:_ZN13TileMapEntity15computeVerticesEv
witchblast:_ZN13TileMapEntity15getTilesProLineEv
witchblast:_ZN13TileMapEntity4setXEf
witchblast:_ZN13TileMapEntity4setYEf
witchblast:_ZN13TileMapEntity6renderEPN2sf12RenderTargetE
witchblast:_ZN13TileMapEntity6setMapEP7GameMap
witchblast:_ZN13TileMapEntity7animateEf
witchblast:_ZN13TileMapEntityC1EPN2sf7TextureEP7GameMapiii
witchblast:_ZN13TileMapEntityC2EPN2sf7TextureEP7GameMapiii
witchblast:_ZN13TileMapEntityD0Ev
witchblast:_ZN13TileMapEntityD1Ev
witchblast:_ZN13TileMapEntityD2Ev
witchblast:_ZN13VampireEntity10renderRaysEPN2sf12RenderTargetEb
witchblast:_ZN13VampireEntity11calculateBBEv
witchblast:_ZN13VampireEntity12generateBatsEi
witchblast:_ZN13VampireEntity12prepareDyingEv
witchblast:_ZN13VampireEntity13computeStatesEf
witchblast:_ZN13VampireEntity14getHealthLevelEv
witchblast:_ZN13VampireEntity16inflictsRecoilToEP18BaseCreatureEntity
witchblast:_ZN13VampireEntity17calculatePositionEv
witchblast:_ZN13VampireEntity17testRaysCollisionEv
witchblast:_ZN13VampireEntity4dropEv
witchblast:_ZN13VampireEntity4hurtE10StructHurt
witchblast:_ZN13VampireEntity6renderEPN2sf12RenderTargetE
witchblast:_ZN13VampireEntity7animateEf
witchblast:_ZN13VampireEntityC1Eff
witchblast:_ZN13VampireEntityC2Eff
witchblast:_ZN14BlackRatEntity11calculateBBEv
witchblast:_ZN14BlackRatEntity12findNextGoalEv
witchblast:_ZN14BlackRatEntity13collideMapTopEv
witchblast:_ZN14BlackRatEntity14collideMapLeftEv
witchblast:_ZN14BlackRatEntity15collideMapRightEv
witchblast:_ZN14BlackRatEntity15collideWithBoltEP10BoltEntity
witchblast:_ZN14BlackRatEntity16collideMapBottomEv
witchblast:_ZN14BlackRatEntity16collideWithEnemyEP11EnemyEntity
witchblast:_ZN14BlackRatEntity7animateEf
witchblast:_ZN14BlackRatEntityC1EffNS_16ratBlackTypeEnumE
witchblast:_ZN14BlackRatEntityC2EffNS_16ratBlackTypeEnumE
witchblast:_ZN14BogeymanEntity10canCollideEv
witchblast:_ZN14BogeymanEntity11calculateBBEv
witchblast:_ZN14BogeymanEntity12prepareDyingEv
witchblast:_ZN14BogeymanEntity13collideMapTopEv
witchblast:_ZN14BogeymanEntity14collideMapLeftEv
witchblast:_ZN14BogeymanEntity15collideMapRightEv
witchblast:_ZN14BogeymanEntity16collideMapBottomEv
witchblast:_ZN14BogeymanEntity16collideWithEnemyEP11EnemyEntity
witchblast:_ZN14BogeymanEntity4fireEv
witchblast:_ZN14BogeymanEntity4hurtE10StructHurt
witchblast:_ZN14BogeymanEntity5dyingEv
witchblast:_ZN14BogeymanEntity6renderEPN2sf12RenderTargetE
witchblast:_ZN14BogeymanEntity7animateEf
witchblast:_ZN14BogeymanEntity8teleportEv
witchblast:_ZN14BogeymanEntityC1Eff
witchblast:_ZN14BogeymanEntityC2Eff
witchblast:_ZN14CauldronEntity11calculateBBEv
witchblast:_ZN14CauldronEntity13collideMapTopEv
witchblast:_ZN14CauldronEntity14collideMapLeftEv
witchblast:_ZN14CauldronEntity15collideMapRightEv
witchblast:_ZN14CauldronEntity16collideMapBottomEv
witchblast:_ZN14CauldronEntity16collideWithEnemyEP11EnemyEntity
witchblast:_ZN14CauldronEntity16inflictsRecoilToEP18BaseCreatureEntity
witchblast:_ZN14CauldronEntity19readCollidingEntityEP21CollidingSpriteEntity
witchblast:_ZN14CauldronEntity4dropEv
witchblast:_ZN14CauldronEntity5dyingEv
witchblast:_ZN14CauldronEntity7animateEf
witchblast:_ZN14CauldronEntityC1Eff16cauldronTypeEnum
witchblast:_ZN14CauldronEntityC2Eff16cauldronTypeEnum
witchblast:_ZN14GreenRatEntity10canCollideEv
witchblast:_ZN14GreenRatEntity11calculateBBEv
witchblast:_ZN14GreenRatEntity13collideMapTopEv
witchblast:_ZN14GreenRatEntity14collideMapLeftEv
witchblast:_ZN14GreenRatEntity15collideMapRightEv
witchblast:_ZN14GreenRatEntity16collideMapBottomEv
witchblast:_ZN14GreenRatEntity16collideWithEnemyEP11EnemyEntity
witchblast:_ZN14GreenRatEntity4dropEv
witchblast:_ZN14GreenRatEntity7animateEf
witchblast:_ZN14GreenRatEntityC1Eff
witchblast:_ZN14GreenRatEntityC2Eff
witchblast:_ZN14ObstacleEntity11calculateBBEv
witchblast:_ZN14ObstacleEntity12correctFrameEv
witchblast:_ZN14ObstacleEntity14getObjectIndexEv
witchblast:_ZN14ObstacleEntity19readCollidingEntityEP21CollidingSpriteEntity
witchblast:_ZN14ObstacleEntity4dropEv
witchblast:_ZN14ObstacleEntity4hurtE10StructHurt
witchblast:_ZN14ObstacleEntity5dyingEv
witchblast:_ZN14ObstacleEntity6renderEPN2sf12RenderTargetE
witchblast:_ZN14ObstacleEntity7animateEf
witchblast:_ZN14ObstacleEntityC1Effi
witchblast:_ZN14ObstacleEntityC2Effi
witchblast:_ZN14SlimePetEntity10canCollideEv
witchblast:_ZN14SlimePetEntity10changeRoomEv
witchblast:_ZN14SlimePetEntity11calculateBBEv
witchblast:_ZN14SlimePetEntity13collideMapTopEv
witchblast:_ZN14SlimePetEntity14collideMapLeftEv
witchblast:_ZN14SlimePetEntity14collideWithMapEi
witchblast:_ZN14SlimePetEntity14getMovingStyleEv
witchblast:_ZN14SlimePetEntity15collideMapRightEv
witchblast:_ZN14SlimePetEntity16collideMapBottomEv
witchblast:_ZN14SlimePetEntity19readCollidingEntityEP21CollidingSpriteEntity
witchblast:_ZN14SlimePetEntity4fallEv
witchblast:_ZN14SlimePetEntity6renderEPN2sf12RenderTargetE
witchblast:_ZN14SlimePetEntity7animateEf
witchblast:_ZN14SlimePetEntity9isFallingEv
witchblast:_ZN14SlimePetEntityC1Ev
witchblast:_ZN14SlimePetEntityC2Ev
witchblast:_ZN14WitchBlastGame10addMonsterE13enemyTypeEnumff
witchblast:_ZN14WitchBlastGame10closeDoorsEv
witchblast:_ZN14WitchBlastGame10initEventsEv
witchblast:_ZN14WitchBlastGame10isAdvancedEv
witchblast:_ZN14WitchBlastGame10isPressingEiNS_12inputKeyEnumEb
witchblast:_ZN14WitchBlastGame10pauseMusicEv
witchblast:_ZN14WitchBlastGame10refreshMapEv
witchblast:_ZN14WitchBlastGame10renderGameEv
witchblast:_ZN14WitchBlastGame10renderMenuEv
witchblast:_ZN14WitchBlastGame10saveScreenEv
witchblast:_ZN14WitchBlastGame10tryToClickEiii
witchblast:_ZN14WitchBlastGame10updateMenuEv
witchblast:_ZN14WitchBlastGame11createFloorEv
witchblast:_ZN14WitchBlastGame11generateMapEv
witchblast:_ZN14WitchBlastGame11getGameTimeEv
witchblast:_ZN14WitchBlastGame11renderDoorsEv
witchblast:_ZN14WitchBlastGame11renderIntroEv
witchblast:_ZN14WitchBlastGame11renderScoreEv
witchblast:_ZN14WitchBlastGame11resumeMusicEv
witchblast:_ZN14WitchBlastGame11revealFloorEv
witchblast:_ZN14WitchBlastGame11updateIntroEv
witchblast:_ZN14WitchBlastGame12generateStarEN2sf5ColorEff
witchblast:_ZN14WitchBlastGame12getDeltaTimeEv
witchblast:_ZN14WitchBlastGame12getItemSpellEv
witchblast:_ZN14WitchBlastGame12isItemLockedE12enumItemType
witchblast:_ZN14WitchBlastGame12loadGameDataEv
witchblast:_ZN14WitchBlastGame12loadHiScoresEv
witchblast:_ZN14WitchBlastGame12prepareIntroEv
witchblast:_ZN14WitchBlastGame12proceedEventE15EnumWorldEvents
witchblast:_ZN14WitchBlastGame12renderPlayerEffPbiii
witchblast:_ZN14WitchBlastGame12renderScoresESt6vectorINS_11StructScoreESaIS1_EENSt7__cxx1112basic_stringIcSt11char_traitsIcESaIcEEEb
witchblast:_ZN14WitchBlastGame12saveGameDataEv
witchblast:_ZN14WitchBlastGame12saveHiScoresEv
witchblast:_ZN14WitchBlastGame12saveMapItemsEv
witchblast:_ZN14WitchBlastGame12startNewGameEbi
witchblast:_ZN14WitchBlastGame12switchToMenuEv
witchblast:_ZN14WitchBlastGame12writeGraphicENSt7__cxx1112basic_stringIcSt11char_traitsIcESaIcEEEiffiN2sf5ColorEPNS6_12RenderTargetEiii
witchblast:_ZN14WitchBlastGame13addBonusScoreE14EnumScoreBonusi
witchblast:_ZN14WitchBlastGame13checkEnteringEv
witchblast:_ZN14WitchBlastGame13destroyUndeadEi
witchblast:_ZN14WitchBlastGame13enemyToStringB5cxx11E13enemyTypeEnum
witchblast:_ZN14WitchBlastGame13equipToStringB5cxx11EPb
witchblast:_ZN14WitchBlastGame13forgetPotionsEv
witchblast:_ZN14WitchBlastGame13generateBloodEffN18BaseCreatureEntity14enumBloodColorE
witchblast:_ZN14WitchBlastGame13getCurrentMapEv
witchblast:_ZN14WitchBlastGame13getEnemyCountEv
witchblast:_ZN14WitchBlastGame13getItemsCountEv
witchblast:_ZN14WitchBlastGame13getParametersEv
witchblast:_ZN14WitchBlastGame13isPresentItemEi
witchblast:_ZN14WitchBlastGame13renderCreditsEv
witchblast:_ZN14WitchBlastGame13renderLifeBarEv
witchblast:_ZN14WitchBlastGame13startNewLevelEv
witchblast:_ZN14WitchBlastGame14addHealingStatEi
witchblast:_ZN14WitchBlastGame14addHurtingStatEi
witchblast:_ZN14WitchBlastGame14addKilledEnemyE13enemyTypeEnum12enumShotType
witchblast:_ZN14WitchBlastGame14addPotionToMapE12enumItemTypeS0_b
witchblast:_ZN14WitchBlastGame14addPresentItemEi
witchblast:_ZN14WitchBlastGame14animateEffectsEv
witchblast:_ZN14WitchBlastGame14calculateScoreEv
witchblast:_ZN14WitchBlastGame14getShowLogicalEv
witchblast:_ZN14WitchBlastGame14getUndeadCountEv
witchblast:_ZN14WitchBlastGame14loadGameHeaderEv
witchblast:_ZN14WitchBlastGame14moveToOtherMapEi
witchblast:_ZN14WitchBlastGame14refreshMinimapEv
witchblast:_ZN14WitchBlastGame14renderHudShotsEPN2sf12RenderTargetE
witchblast:_ZN14WitchBlastGame14renderMessagesEv
witchblast:_ZN14WitchBlastGame14setDoorVisibleEi
witchblast:_ZN14WitchBlastGame14sourceToStringB5cxx11E14sourceTypeEnum13enemyTypeEnum
witchblast:_ZN14WitchBlastGame15buildInGameMenuEv
witchblast:_ZN14WitchBlastGame15getCurrentFloorEv
witchblast:_ZN14WitchBlastGame15getNearestEnemyEff
witchblast:_ZN14WitchBlastGame15getSecretsFoundEv
witchblast:_ZN14WitchBlastGame15isAdvancedLevelEv
witchblast:_ZN14WitchBlastGame15makeColorEffectEif
witchblast:_ZN14WitchBlastGame15saveDeathScreenEv
witchblast:_ZN14WitchBlastGame16checkInteractionEv
witchblast:_ZN14WitchBlastGame16getPressingStateEiNS_12inputKeyEnumE
witchblast:_ZN14WitchBlastGame16initMonsterArrayEv
witchblast:_ZN14WitchBlastGame16registerLanguageEv
witchblast:_ZN14WitchBlastGame16renderInGameMenuEv
witchblast:_ZN14WitchBlastGame16setPotionToKnownE12enumItemType
witchblast:_ZN14WitchBlastGame16updateActionKeysEv
witchblast:_ZN14WitchBlastGame17configureFromFileEv
witchblast:_ZN14WitchBlastGame17findPlaceMonstersE13enemyTypeEnumi
witchblast:_ZN14WitchBlastGame17getChallengeLevelEv
witchblast:_ZN14WitchBlastGame17getPlayerPositionEv
witchblast:_ZN14WitchBlastGame17potionEffectKnownE12enumItemType
witchblast:_ZN14WitchBlastGame17renderDeathScreenEff
witchblast:_ZN14WitchBlastGame17renderRunningGameEv
witchblast:_ZN14WitchBlastGame17resetPresentItemsEv
witchblast:_ZN14WitchBlastGame17sendScoreToServerEv
witchblast:_ZN14WitchBlastGame17updateMusicVolumeEv
witchblast:_ZN14WitchBlastGame17updateRunningGameEv
witchblast:_ZN14WitchBlastGame18acquireAlchemyBookEv
witchblast:_ZN14WitchBlastGame18generateUiParticleEff
witchblast:_ZN14WitchBlastGame18getRandomEquipItemEbb
witchblast:_ZN14WitchBlastGame18loadHiScoresOnlineEb
witchblast:_ZN14WitchBlastGame18randomizePotionMapEv
witchblast:_ZN14WitchBlastGame18renderAchievementsEv
witchblast:_ZN14WitchBlastGame18renderBossPortraitEv
witchblast:_ZN14WitchBlastGame18resetKilledEnemiesEv
witchblast:_ZN14WitchBlastGame19addLifeBarToDisplayENSt7__cxx1112basic_stringIcSt11char_traitsIcESaIcEEEii
witchblast:_ZN14WitchBlastGame19generateStandardMapEv
witchblast:_ZN14WitchBlastGame19getCurrentMapEntityEv
witchblast:_ZN14WitchBlastGame19registerAchievementE19enumAchievementType
witchblast:_ZN14WitchBlastGame19verifyDoorUnlockingEv
witchblast:_ZN14WitchBlastGame20gainMultiplayerPowerEv
witchblast:_ZN14WitchBlastGame21activateKeyRoomEffectEb
witchblast:_ZN14WitchBlastGame21isFunctionalityLockedE21enumFunctionalityType
witchblast:_ZN14WitchBlastGame22generateChallengeBonusEff
witchblast:_ZN14WitchBlastGame22receiveScoreFromServerEv
witchblast:_ZN14WitchBlastGame23checkDestroyableObjectsEv
witchblast:_ZN14WitchBlastGame23getAchievementsPercentsEv
witchblast:_ZN14WitchBlastGame23killArtefactDescriptionEv
witchblast:_ZN14WitchBlastGame23saveConfigurationToFileEv
witchblast:_ZN14WitchBlastGame23sendScoreToServerThreadEv
witchblast:_ZN14WitchBlastGame23showArtefactDescriptionE12enumItemType
witchblast:_ZN14WitchBlastGame24testAndAddMessageToQueueE12EnumMessages
witchblast:_ZN14WitchBlastGame25addDivLevelMessageToQueueENSt7__cxx1112basic_stringIcSt11char_traitsIcESaIcEEE
witchblast:_ZN14WitchBlastGame28receiveScoreFromServerThreadEv
witchblast:_ZN14WitchBlastGame5writeENSt7__cxx1112basic_stringIcSt11char_traitsIcESaIcEEEiffiN2sf5ColorEPNS6_12RenderTargetEiii
witchblast:_ZN14WitchBlastGame6addKeyEiNSt7__cxx1112basic_stringIcSt11char_traitsIcESaIcEEE
witchblast:_ZN14WitchBlastGame6forgetEv
witchblast:_ZN14WitchBlastGame7getBossEv
witchblast:_ZN14WitchBlastGame8enableAAEb
witchblast:_ZN14WitchBlastGame8getLevelEv
witchblast:_ZN14WitchBlastGame8loadGameEv
witchblast:_ZN14WitchBlastGame8onRenderEv
witchblast:_ZN14WitchBlastGame8onUpdateEv
witchblast:_ZN14WitchBlastGame8saveGameEv
witchblast:_ZN14WitchBlastGame9addCorpseEffi
witchblast:_ZN14WitchBlastGame9buildMenuEb
witchblast:_ZN14WitchBlastGame9checkDoorEi12roomTypeEnumS0_b
witchblast:_ZN14WitchBlastGame9getFloorXEv
witchblast:_ZN14WitchBlastGame9getFloorYEv
witchblast:_ZN14WitchBlastGame9getPlayerEv
witchblast:_ZN14WitchBlastGame9getPotionE12enumItemType
witchblast:_ZN14WitchBlastGame9makeShakeEf
witchblast:_ZN14WitchBlastGame9openDoorsEv
witchblast:_ZN14WitchBlastGame9playLevelEb
witchblast:_ZN14WitchBlastGame9playMusicENS_9musicEnumE
witchblast:_ZN14WitchBlastGame9renderHudEv
witchblast:_ZN14WitchBlastGame9saveStatsEv
witchblast:_ZN14WitchBlastGame9startGameEv
witchblast:_ZN14WitchBlastGameC1Ev
witchblast:_ZN14WitchBlastGameC2Ev
witchblast:_ZN14WitchBlastGameD0Ev
witchblast:_ZN14WitchBlastGameD1Ev
witchblast:_ZN14WitchBlastGameD2Ev
witchblast:_ZN15EnemyBoltEntity7animateEf
witchblast:_ZN15EnemyBoltEntityC1Eff12enumShotTypei13enemyTypeEnum
witchblast:_ZN15EnemyBoltEntityC2Eff12enumShotTypei13enemyTypeEnum
witchblast:_ZN15ExplosionEntity14testCollisionsEv
witchblast:_ZN15ExplosionEntity16setCanHurtPlayerEb
witchblast:_ZN15ExplosionEntity5dyingEv
witchblast:_ZN15ExplosionEntity6renderEPN2sf12RenderTargetE
witchblast:_ZN15ExplosionEntity7animateEf
witchblast:_ZN15ExplosionEntityC1Eff17explosionTypeEnumi13enemyTypeEnumb
witchblast:_ZN15ExplosionEntityC2Eff17explosionTypeEnumi13enemyTypeEnumb
witchblast:_ZN15SpiderEggEntity10canCollideEv
witchblast:_ZN15SpiderEggEntity11calculateBBEv
witchblast:_ZN15SpiderEggEntity12dyingFromAgeEv
witchblast:_ZN15SpiderEggEntity19readCollidingEntityEP21CollidingSpriteEntity
witchblast:_ZN15SpiderEggEntity6renderEPN2sf12RenderTargetE
witchblast:_ZN15SpiderEggEntity7animateEf
witchblast:_ZN15SpiderEggEntityC1Effb
witchblast:_ZN15SpiderEggEntityC2Effb
witchblast:_ZN15SpiderWebEntity11calculateBBEv
witchblast:_ZN15SpiderWebEntity11collideWallEv
witchblast:_ZN15SpiderWebEntity13collideMapTopEv
witchblast:_ZN15SpiderWebEntity14collideMapLeftEv
witchblast:_ZN15SpiderWebEntity15collideMapRightEv
witchblast:_ZN15SpiderWebEntity16collideMapBottomEv
witchblast:_ZN15SpiderWebEntity16collideWithEnemyEP11EnemyEntity
witchblast:_ZN15SpiderWebEntity19readCollidingEntityEP21CollidingSpriteEntity
witchblast:_ZN15SpiderWebEntity4dropEv
witchblast:_ZN15SpiderWebEntity7animateEf
witchblast:_ZN15SpiderWebEntityC1Effb
witchblast:_ZN15SpiderWebEntityC2Effb
witchblast:_ZN16DungeonMapEntity10getChangedEv
witchblast:_ZN16DungeonMapEntity10getCorpsesEv
witchblast:_ZN16DungeonMapEntity10refreshMapEv
witchblast:_ZN16DungeonMapEntity10renderPostEPN2sf12RenderTargetE
witchblast:_ZN16DungeonMapEntity11renderDoorsEPN2sf12RenderTargetE
witchblast:_ZN16DungeonMapEntity12checkFallingER19displayEntityStructii
witchblast:_ZN16DungeonMapEntity12computeDoorsEv
witchblast:_ZN16DungeonMapEntity12displayBloodEPN2sf12RenderTargetE
witchblast:_ZN16DungeonMapEntity13generateBloodEffN18BaseCreatureEntity14enumBloodColorE
witchblast:_ZN16DungeonMapEntity13renderOverlayEPN2sf12RenderTargetE
witchblast:_ZN16DungeonMapEntity14displayCorpsesEPN2sf12RenderTargetE
witchblast:_ZN16DungeonMapEntity14renderKeyStoneEPN2sf12RenderTargetE
witchblast:_ZN16DungeonMapEntity15animateParticleER19displayEntityStructff
witchblast:_ZN16DungeonMapEntity15collideWithWallER19displayEntityStructiib
witchblast:_ZN16DungeonMapEntity15computeVerticesEv
witchblast:_ZN16DungeonMapEntity19computeOverVerticesEv
witchblast:_ZN16DungeonMapEntity19shouldBeTransformedEi
witchblast:_ZN16DungeonMapEntity20computeBloodVerticesEv
witchblast:_ZN16DungeonMapEntity20displayBoltParticlesEPN2sf12RenderTargetE
witchblast:_ZN16DungeonMapEntity20generateBoltParticleEff8Vector2Dbiff
witchblast:_ZN16DungeonMapEntity21activateKeyRoomEffectEv
witchblast:_ZN16DungeonMapEntity21computeShadowVerticesEv
witchblast:_ZN16DungeonMapEntity22computeCorpsesVerticesEv
witchblast:_ZN16DungeonMapEntity29computeBoltParticulesVerticesEv
witchblast:_ZN16DungeonMapEntity6renderEPN2sf12RenderTargetE
witchblast:_ZN16DungeonMapEntity7animateEf
witchblast:_ZN16DungeonMapEntity8addBloodEffif
witchblast:_ZN16DungeonMapEntity8getBloodEv
witchblast:_ZN16DungeonMapEntity9addCorpseEffi
witchblast:_ZN16DungeonMapEntity9autoSpeedER19displayEntityStructf
witchblast:_ZN16DungeonMapEntityC1Ev
witchblast:_ZN16DungeonMapEntityC2Ev
witchblast:_ZN16EvilFlowerEntity10canCollideEv
witchblast:_ZN16EvilFlowerEntity11calculateBBEv
witchblast:_ZN16EvilFlowerEntity15setFireDelayMaxEf
witchblast:_ZN16EvilFlowerEntity4fireEv
witchblast:_ZN16EvilFlowerEntity6renderEPN2sf12RenderTargetE
witchblast:_ZN16EvilFlowerEntity7animateEf
witchblast:_ZN16EvilFlowerEntityC1Eff14flowerTypeEnum
witchblast:_ZN16EvilFlowerEntityC2Eff14flowerTypeEnum
witchblast:_ZN16GiantSlimeEntity10canCollideEv
witchblast:_ZN16GiantSlimeEntity11calculateBBEv
witchblast:_ZN16GiantSlimeEntity13changeToStateEi
witchblast:_ZN16GiantSlimeEntity13collideMapTopEv
witchblast:_ZN16GiantSlimeEntity14collideMapLeftEv
witchblast:_ZN16GiantSlimeEntity14getMovingStyleEv
witchblast:_ZN16GiantSlimeEntity15collideMapRightEv
witchblast:_ZN16GiantSlimeEntity16collideMapBottomEv
witchblast:_ZN16GiantSlimeEntity16collideWithEnemyEP11EnemyEntity
witchblast:_ZN16GiantSlimeEntity16inflictsRecoilToEP18BaseCreatureEntity
witchblast:_ZN16GiantSlimeEntity4fireEv
witchblast:_ZN16GiantSlimeEntity5dyingEv
witchblast:_ZN16GiantSlimeEntity6renderEPN2sf12RenderTargetE
witchblast:_ZN16GiantSlimeEntity7animateEf
witchblast:_ZN16GiantSlimeEntityC1Eff
witchblast:_ZN16GiantSlimeEntityC2Eff
witchblast:_ZN16LargeSlimeEntity10canCollideEv
witchblast:_ZN16LargeSlimeEntity11calculateBBEv
witchblast:_ZN16LargeSlimeEntity13changeToStateEi
witchblast:_ZN16LargeSlimeEntity13collideMapTopEv
witchblast:_ZN16LargeSlimeEntity14collideMapLeftEv
witchblast:_ZN16LargeSlimeEntity14getMovingStyleEv
witchblast:_ZN16LargeSlimeEntity15collideMapRightEv
witchblast:_ZN16LargeSlimeEntity16collideMapBottomEv
witchblast:_ZN16LargeSlimeEntity16collideWithEnemyEP11EnemyEntity
witchblast:_ZN16LargeSlimeEntity16inflictsRecoilToEP18BaseCreatureEntity
witchblast:_ZN16LargeSlimeEntity4fireEv
witchblast:_ZN16LargeSlimeEntity5dyingEv
witchblast:_ZN16LargeSlimeEntity6renderEPN2sf12RenderTargetE
witchblast:_ZN16LargeSlimeEntity7animateEf
witchblast:_ZN16LargeSlimeEntityC1Eff13slimeTypeEnum
witchblast:_ZN16LargeSlimeEntityC2Eff13slimeTypeEnum
witchblast:_ZN16ZombieDarkEntity11calculateBBEv
witchblast:_ZN16ZombieDarkEntity11isAttackingEv
witchblast:_ZN16ZombieDarkEntity12findNextGoalEv
witchblast:_ZN16ZombieDarkEntity13collideMapTopEv
witchblast:_ZN16ZombieDarkEntity14collideMapLeftEv
witchblast:_ZN16ZombieDarkEntity15collideMapRightEv
witchblast:_ZN16ZombieDarkEntity15collideWithBoltEP10BoltEntity
witchblast:_ZN16ZombieDarkEntity16collideMapBottomEv
witchblast:_ZN16ZombieDarkEntity16collideWithEnemyEP11EnemyEntity
witchblast:_ZN16ZombieDarkEntity18findNextRandomGoalEv
witchblast:_ZN16ZombieDarkEntity7animateEf
witchblast:_ZN16ZombieDarkEntityC1Eff
witchblast:_ZN16ZombieDarkEntityC2Eff
witchblast:_ZN17FallingRockEntity10canCollideEv
witchblast:_ZN17FallingRockEntity11calculateBBEv
witchblast:_ZN17FallingRockEntity16collideWithEnemyEP11EnemyEntity
witchblast:_ZN17FallingRockEntity5dyingEv
witchblast:_ZN17FallingRockEntity6renderEPN2sf12RenderTargetE
witchblast:_ZN17FallingRockEntity7animateEf
witchblast:_ZN17FallingRockEntityC1Effib
witchblast:_ZN17FallingRockEntityC2Effib
witchblast:_ZN17FranckyEntityFoot11calculateBBEv
witchblast:_ZN17FranckyEntityFoot13collideMapTopEv
witchblast:_ZN17FranckyEntityFoot14collideMapLeftEv
witchblast:_ZN17FranckyEntityFoot15collideMapRightEv
witchblast:_ZN17FranckyEntityFoot16collideMapBottomEv
witchblast:_ZN17FranckyEntityFoot16collideWithEnemyEP11EnemyEntity
witchblast:_ZN17FranckyEntityFoot6renderEPN2sf12RenderTargetE
witchblast:_ZN17FranckyEntityFoot7animateEf
witchblast:_ZN17FranckyEntityFootC1Eff
witchblast:_ZN17FranckyEntityFootC2Eff
witchblast:_ZN17FranckyEntityHand11calculateBBEv
witchblast:_ZN17FranckyEntityHand13collideMapTopEv
witchblast:_ZN17FranckyEntityHand14collideMapLeftEv
witchblast:_ZN17FranckyEntityHand15collideMapRightEv
witchblast:_ZN17FranckyEntityHand16collideMapBottomEv
witchblast:_ZN17FranckyEntityHand16collideWithEnemyEP11EnemyEntity
witchblast:_ZN17FranckyEntityHand4dropEv
witchblast:_ZN17FranckyEntityHand7animateEf
witchblast:_ZN17FranckyEntityHandC1Eff
witchblast:_ZN17FranckyEntityHandC2Eff
witchblast:_ZN17FranckyEntityHead11calculateBBEv
witchblast:_ZN17FranckyEntityHead13collideMapTopEv
witchblast:_ZN17FranckyEntityHead14collideMapLeftEv
witchblast:_ZN17FranckyEntityHead15collideMapRightEv
witchblast:_ZN17FranckyEntityHead16collideMapBottomEv
witchblast:_ZN17FranckyEntityHead16collideWithEnemyEP11EnemyEntity
witchblast:_ZN17FranckyEntityHead4fireEv
witchblast:_ZN17FranckyEntityHead6renderEPN2sf12RenderTargetE
witchblast:_ZN17FranckyEntityHead7animateEf
witchblast:_ZN17FranckyEntityHeadC1Eff
witchblast:_ZN17FranckyEntityHeadC2Eff
witchblast:_ZN17GiantSpiderEntity10canCollideEv
witchblast:_ZN17GiantSpiderEntity11calculateBBEv
witchblast:_ZN17GiantSpiderEntity13collideMapTopEv
witchblast:_ZN17GiantSpiderEntity14collideMapLeftEv
witchblast:_ZN17GiantSpiderEntity14getHealthLevelEv
witchblast:_ZN17GiantSpiderEntity15collideMapRightEv
witchblast:_ZN17GiantSpiderEntity16collideMapBottomEv
witchblast:_ZN17GiantSpiderEntity16collideWithEnemyEP11EnemyEntity
witchblast:_ZN17GiantSpiderEntity17calculateRotationEv
witchblast:_ZN17GiantSpiderEntity4dropEv
witchblast:_ZN17GiantSpiderEntity4fireEi
witchblast:_ZN17GiantSpiderEntity4hurtE10StructHurt
witchblast:_ZN17GiantSpiderEntity6renderEPN2sf12RenderTargetE
witchblast:_ZN17GiantSpiderEntity7animateEf
witchblast:_ZN17GiantSpiderEntityC1Eff
witchblast:_ZN17GiantSpiderEntityC2Eff
witchblast:_ZN17ParticleGenerator13RandomShuffleERfS0_
witchblast:_ZN17ParticleGenerator14RandomizeColorEP12SpriteEntity
witchblast:_ZN17ParticleGenerator17GenerateParticlesEiiffiiRK8Vector2Dif
witchblast:_ZN17ParticleGenerator17RandomizeVelocityER8Vector2D
witchblast:_ZN17ParticleGenerator20GenerateBoltParticleEiRK8Vector2Dffff
witchblast:_ZN17ParticleGeneratorC1Ev
witchblast:_ZN17ParticleGeneratorC2Ev
witchblast:_ZN17RockMissileEntity11calculateBBEv
witchblast:_ZN17RockMissileEntity11collideWallEv
witchblast:_ZN17RockMissileEntity13collideMapTopEv
witchblast:_ZN17RockMissileEntity14collideMapLeftEv
witchblast:_ZN17RockMissileEntity15collideMapRightEv
witchblast:_ZN17RockMissileEntity16collideMapBottomEv
witchblast:_ZN17RockMissileEntity16collideWithEnemyEP11EnemyEntity
witchblast:_ZN17RockMissileEntity16inflictsRecoilToEP18BaseCreatureEntity
witchblast:_ZN17RockMissileEntity5dyingEv
witchblast:_ZN17RockMissileEntity7animateEf
witchblast:_ZN17RockMissileEntityC1Effi
witchblast:_ZN17RockMissileEntityC2Effi
witchblast:_ZN17VampireDeadEntity11calculateBBEv
witchblast:_ZN17VampireDeadEntity16inflictsRecoilToEP18BaseCreatureEntity
witchblast:_ZN17VampireDeadEntity19readCollidingEntityEP21CollidingSpriteEntity
witchblast:_ZN17VampireDeadEntity4dropEv
witchblast:_ZN17VampireDeadEntity7animateEf
witchblast:_ZN17VampireDeadEntityC1Eff
witchblast:_ZN17VampireDeadEntityC2Eff
witchblast:_ZN18BaseCreatureEntity10canCollideEv
witchblast:_ZN18BaseCreatureEntity10giveRecoilEb8Vector2Df
witchblast:_ZN18BaseCreatureEntity11calculateBBEv
witchblast:_ZN18BaseCreatureEntity11isAttackingEv
witchblast:_ZN18BaseCreatureEntity11makeExplodeEv
witchblast:_ZN18BaseCreatureEntity12dyingFromAgeEv
witchblast:_ZN18BaseCreatureEntity12generateStarEN2sf5ColorE
witchblast:_ZN18BaseCreatureEntity12getHpDisplayEv
witchblast:_ZN18BaseCreatureEntity12prepareDyingEv
witchblast:_ZN18BaseCreatureEntity12textTooCloseEP10TextEntityff
witchblast:_ZN18BaseCreatureEntity13animateColorsEf
witchblast:_ZN18BaseCreatureEntity13animateRecoilEf
witchblast:_ZN18BaseCreatureEntity13animateStatesEf
witchblast:_ZN18BaseCreatureEntity14animatePhysicsEf
witchblast:_ZN18BaseCreatureEntity14collideWithMapEi
witchblast:_ZN18BaseCreatureEntity14getCurrentTileEv
witchblast:_ZN18BaseCreatureEntity14getMovingStyleEv
witchblast:_ZN18BaseCreatureEntity14intersectsTileE8Vector2DS0_ii
witchblast:_ZN18BaseCreatureEntity15getSpecialStateE16enumSpecialState
witchblast:_ZN18BaseCreatureEntity15setSpecialStateE16enumSpecialStatebfffb
witchblast:_ZN18BaseCreatureEntity16getCreatureSpeedEv
witchblast:_ZN18BaseCreatureEntity16inflictsRecoilToEPS_
witchblast:_ZN18BaseCreatureEntity17displayFlyingTextEffiNSt7__cxx1112basic_stringIcSt11char_traitsIcESaIcEEEN10TextEntity13colorTypeEnumE
witchblast:_ZN18BaseCreatureEntity18intersectsSegmentsE8Vector2DS0_S0_S0_
witchblast:_ZN18BaseCreatureEntity20determineDamageBonusE19enumStateResistancei
witchblast:_ZN18BaseCreatureEntity20determineSatusChanceE19enumStateResistancei
witchblast:_ZN18BaseCreatureEntity20isSpecialStateActiveE16enumSpecialState
witchblast:_ZN18BaseCreatureEntity22computeFacingDirectionEv
witchblast:_ZN18BaseCreatureEntity4healEi
witchblast:_ZN18BaseCreatureEntity4hurtE10StructHurt
witchblast:_ZN18BaseCreatureEntity5dyingEv
witchblast:_ZN18BaseCreatureEntity5getHpEv
witchblast:_ZN18BaseCreatureEntity5setHpEi
witchblast:_ZN18BaseCreatureEntity6canSeeEff
witchblast:_ZN18BaseCreatureEntity6renderEPN2sf12RenderTargetE
witchblast:_ZN18BaseCreatureEntity7animateEf
witchblast:_ZN18BaseCreatureEntity8getHpMaxEv
witchblast:_ZN18BaseCreatureEntity8setHpMaxEi
witchblast:_ZN18BaseCreatureEntity9canWalkToEff
witchblast:_ZN18BaseCreatureEntityC1EPN2sf7TextureEffii
witchblast:_ZN18BaseCreatureEntityC2EPN2sf7TextureEffii
witchblast:_ZN18LittleSpiderEntity11calculateBBEv
witchblast:_ZN18LittleSpiderEntity13collideMapTopEv
witchblast:_ZN18LittleSpiderEntity14collideMapLeftEv
witchblast:_ZN18LittleSpiderEntity15collideMapRightEv
witchblast:_ZN18LittleSpiderEntity16collideMapBottomEv
witchblast:_ZN18LittleSpiderEntity16collideWithEnemyEP11EnemyEntity
witchblast:_ZN18LittleSpiderEntity4dropEv
witchblast:_ZN18LittleSpiderEntity7animateEf
witchblast:_ZN18LittleSpiderEntityC1Eff14EnumSpiderTypeb
witchblast:_ZN18LittleSpiderEntityC2Eff14EnumSpiderTypeb
witchblast:_ZN20DungeonMapEntityPost6renderEPN2sf12RenderTargetE
witchblast:_ZN20DungeonMapEntityPost7animateEf
witchblast:_ZN20DungeonMapEntityPostC1EP16DungeonMapEntity
witchblast:_ZN20DungeonMapEntityPostC2EP16DungeonMapEntity
witchblast:_ZN21CollidingSpriteEntity10isOnGroundEv
witchblast:_ZN21CollidingSpriteEntity11calculateBBEv
witchblast:_ZN21CollidingSpriteEntity13collideEntityEPS_
witchblast:_ZN21CollidingSpriteEntity13collideMapTopEv
witchblast:_ZN21CollidingSpriteEntity14collideMapLeftEv
witchblast:_ZN21CollidingSpriteEntity14collideWithMapEi
witchblast:_ZN21CollidingSpriteEntity14getBoundingBoxEv
witchblast:_ZN21CollidingSpriteEntity15collideMapRightEv
witchblast:_ZN21CollidingSpriteEntity16collideMapBottomEv
witchblast:_ZN21CollidingSpriteEntity17collideWithEntityEPS_
witchblast:_ZN21CollidingSpriteEntity17setTileDimensionsEii
witchblast:_ZN21CollidingSpriteEntity18displayBoundingBoxEPN2sf12RenderTargetE
witchblast:_ZN21CollidingSpriteEntity18isCollidingWithMapEv
witchblast:_ZN21CollidingSpriteEntity19readCollidingEntityEPS_
witchblast:_ZN21CollidingSpriteEntity20testSpriteCollisionsEv
witchblast:_ZN21CollidingSpriteEntity5stuckEv
witchblast:_ZN21CollidingSpriteEntity6getMapEv
witchblast:_ZN21CollidingSpriteEntity6renderEPN2sf12RenderTargetE
witchblast:_ZN21CollidingSpriteEntity6setMapEP7GameMapiiii
witchblast:_ZN21CollidingSpriteEntity7animateEf
witchblast:_ZN21CollidingSpriteEntity7exitMapEi
witchblast:_ZN21CollidingSpriteEntity8makeFallEv
witchblast:_ZN21CollidingSpriteEntityC1EPN2sf7TextureEffii
witchblast:_ZN21CollidingSpriteEntityC2EPN2sf7TextureEffii
witchblast:_ZN21CollidingSpriteEntityD0Ev
witchblast:_ZN21CollidingSpriteEntityD1Ev
witchblast:_ZN21CollidingSpriteEntityD2Ev
witchblast:_ZN23DungeonMapEntityOverlay6renderEPN2sf12RenderTargetE
witchblast:_ZN23DungeonMapEntityOverlay7animateEf
witchblast:_ZN23DungeonMapEntityOverlayC1EP16DungeonMapEntity
witchblast:_ZN23DungeonMapEntityOverlayC2EP16DungeonMapEntity
witchblast:_ZN25ArtefactDescriptionEntity6renderEPN2sf12RenderTargetE
witchblast:_ZN25ArtefactDescriptionEntity7animateEf
witchblast:_ZN25ArtefactDescriptionEntityC1E12enumItemType
witchblast:_ZN25ArtefactDescriptionEntityC2E12enumItemType
witchblast:_ZN25ArtefactDescriptionEntityD0Ev
witchblast:_ZN25ArtefactDescriptionEntityD1Ev
witchblast:_ZN25ArtefactDescriptionEntityD2Ev
witchblast:_ZN4Game14getAbsolutTimeEv
witchblast:_ZN4Game6createEiiNSt7__cxx1112basic_stringIcSt11char_traitsIcESaIcEEEbb
witchblast:_ZN4Game8onRenderEv
witchblast:_ZN4Game8onUpdateEv
witchblast:_ZN4Game8quitGameEv
witchblast:_ZN4Game9startGameEv
witchblast:_ZN4GameC1Ev
witchblast:_ZN4GameC2Ev
witchblast:_ZN4GameD0Ev
witchblast:_ZN4GameD1Ev
witchblast:_ZN4GameD2Ev
witchblast:_ZN5tools10TextMapper11setLanguageERKNSt7__cxx1112basic_stringIcSt11char_traitsIcESaIcEEE
witchblast:_ZN5tools10TextMapper12LoadTextFileERKNSt7__cxx1112basic_stringIcSt11char_traitsIcESaIcEEE
witchblast:_ZN5tools10TextMapper8instanceEv
witchblast:_ZN5tools10TextMapperC1Ev
witchblast:_ZN5tools10TextMapperC2Ev
witchblast:_ZN5tools11setLanguageERKNSt7__cxx1112basic_stringIcSt11char_traitsIcESaIcEEE
witchblast:_ZN5tools8getLabelERKNSt7__cxx1112basic_stringIcSt11char_traitsIcESaIcEEE
witchblast:_ZN6Config10displayMapEv
witchblast:_ZN6Config10findStringENSt7__cxx1112basic_stringIcSt11char_traitsIcESaIcEEE
witchblast:_ZN6Config10saveToFileENSt7__cxx1112basic_stringIcSt11char_traitsIcESaIcEEESt3mapIS5_S5_St4lessIS5_ESaISt4pairIKS5_S5_EEE
witchblast:_ZN6Config12loadFromFileENSt7__cxx1112basic_stringIcSt11char_traitsIcESaIcEEE
witchblast:_ZN6Config16configFileExistsEv
witchblast:_ZN6Config7findIntENSt7__cxx1112basic_stringIcSt11char_traitsIcESaIcEEE
witchblast:_ZN6ConfigC1Ev
witchblast:_ZN6ConfigC2Ev
witchblast:_ZN7GameMap10getChangedEv
witchblast:_ZN7GameMap12isUpBlockingEii
witchblast:_ZN7GameMap12loadFromFileEPKc
witchblast:_ZN7GameMap14isDownBlockingEii
witchblast:_ZN7GameMap14isLeftBlockingEii
witchblast:_ZN7GameMap15isRightBlockingEii
witchblast:_ZN7GameMap5inMapEii
witchblast:_ZN7GameMap7getTileEii
witchblast:_ZN7GameMap7setTileEiii
witchblast:_ZN7GameMap8getWidthEv
witchblast:_ZN7GameMap9getHeightEv
witchblast:_ZN7GameMap9randomizeEi
witchblast:_ZN7GameMapC1Eii
witchblast:_ZN7GameMapC2Eii
witchblast:_ZN7GameMapD0Ev
witchblast:_ZN7GameMapD1Ev
witchblast:_ZN7GameMapD2Ev
witchblast:_ZN9BatEntity11calculateBBEv
witchblast:_ZN9BatEntity13collideMapTopEv
witchblast:_ZN9BatEntity14collideMapLeftEv
witchblast:_ZN9BatEntity15collideMapRightEv
witchblast:_ZN9BatEntity16collideMapBottomEv
witchblast:_ZN9BatEntity16collideWithEnemyEP11EnemyEntity
witchblast:_ZN9BatEntity4dropEv
witchblast:_ZN9BatEntity5dyingEv
witchblast:_ZN9BatEntity7animateEf
witchblast:_ZN9BatEntityC1Eff11EnumBatTypeb
witchblast:_ZN9BatEntityC2Eff11EnumBatTypeb
witchblast:_ZN9GameFloor11createFloorEv
witchblast:_ZN9GameFloor12setForceShopEv
witchblast:_ZN9GameFloor13hasRoomOfTypeE12roomTypeEnum
witchblast:_ZN9GameFloor14findSecretRoomEv
witchblast:_ZN9GameFloor14getAndVisitMapEii
witchblast:_ZN9GameFloor14neighboorCountEii
witchblast:_ZN9GameFloor15isSuperIsolatedEii
witchblast:_ZN9GameFloor16displayToConsoleEv
witchblast:_ZN9GameFloor17findSuperIsolatedEv
witchblast:_ZN9GameFloor17getFirstNeighboorEii
witchblast:_ZN9GameFloor6forgetEii
witchblast:_ZN9GameFloor6getMapEii
witchblast:_ZN9GameFloor6revealEv
witchblast:_ZN9GameFloor6setMapEiiP10DungeonMap
witchblast:_ZN9GameFloor7getRoomEii
witchblast:_ZN9GameFloor7setRoomEii12roomTypeEnum
witchblast:_ZN9GameFloor8finalizeEv
witchblast:_ZN9GameFloor8generateEv
witchblast:_ZN9GameFloorC1Ei
witchblast:_ZN9GameFloorC1Ev
witchblast:_ZN9GameFloorC2Ei
witchblast:_ZN9GameFloorC2Ev
witchblast:_ZN9GameFloorD0Ev
witchblast:_ZN9GameFloorD1Ev
witchblast:_ZN9GameFloorD2Ev
witchblast:_ZN9GuiEntity6renderEPN2sf12RenderTargetE
witchblast:_ZN9GuiEntity7animateEf
witchblast:_ZN9GuiEntity7onEventEN2sf5EventE
witchblast:_ZN9GuiEntity9getActiveEv
witchblast:_ZN9GuiEntity9setActiveEb
witchblast:_ZN9GuiEntityC1Eff
witchblast:_ZN9GuiEntityC2Eff
witchblast:_ZN9ImpEntity11calculateBBEv
witchblast:_ZN9ImpEntity13collideMapTopEv
witchblast:_ZN9ImpEntity14collideMapLeftEv
witchblast:_ZN9ImpEntity15collideMapRightEv
witchblast:_ZN9ImpEntity16collideMapBottomEv
witchblast:_ZN9ImpEntity16collideWithEnemyEP11EnemyEntity
witchblast:_ZN9ImpEntity4fireEv
witchblast:_ZN9ImpEntity4hurtE10StructHurt
witchblast:_ZN9ImpEntity5dyingEv
witchblast:_ZN9ImpEntity7animateEf
witchblast:_ZN9ImpEntity8teleportEv
witchblast:_ZN9ImpEntityC1EffNS_11impTypeEnumE
witchblast:_ZN9ImpEntityC2EffNS_11impTypeEnumE
witchblast:_ZN9PnjEntity6renderEPN2sf12RenderTargetE
witchblast:_ZN9PnjEntity7animateEf
witchblast:_ZN9PnjEntityC1Effi
witchblast:_ZN9PnjEntityC2Effi
witchblast:_ZN9RatEntity11calculateBBEv
witchblast:_ZN9RatEntity13collideMapTopEv
witchblast:_ZN9RatEntity14collideMapLeftEv
witchblast:_ZN9RatEntity15collideMapRightEv
witchblast:_ZN9RatEntity15collideWithBoltEP10BoltEntity
witchblast:_ZN9RatEntity16collideMapBottomEv
witchblast:_ZN9RatEntity16collideWithEnemyEP11EnemyEntity
witchblast:_ZN9RatEntity4dropEv
witchblast:_ZN9RatEntity7animateEf
witchblast:_ZN9RatEntity7computeEb
witchblast:_ZN9RatEntityC1EffNS_11ratTypeEnumEb
witchblast:_ZN9RatEntityC2EffNS_11ratTypeEnumEb
witchblast:__bss_start
witchblast:__data_start
witchblast:_edata
witchblast:_end
witchblast:_start
witchblast:eventToMessage
witchblast:main
witchblast:msgMap
