libKF6CoreAddons.so.6:_Z29kRegisterStaticPluginFunctionRK7QStringS1_13QStaticPlugin
libKF6CoreAddons.so.6:_ZN10KAboutData10addLicenseEN13KAboutLicense10LicenseKeyE
libKF6CoreAddons.so.6:_ZN10KAboutData10addLicenseEN13KAboutLicense10LicenseKeyENS0_18VersionRestrictionE
libKF6CoreAddons.so.6:_ZN10KAboutData10setLicenseEN13KAboutLicense10LicenseKeyE
libKF6CoreAddons.so.6:_ZN10KAboutData10setLicenseEN13KAboutLicense10LicenseKeyENS0_18VersionRestrictionE
libKF6CoreAddons.so.6:_ZN10KAboutData10setVersionERK10QByteArray
libKF6CoreAddons.so.6:_ZN10KAboutData11setHomepageERK7QString
libKF6CoreAddons.so.6:_ZN10KAboutData12addComponentERK15KAboutComponent
libKF6CoreAddons.so.6:_ZN10KAboutData12addComponentERK7QStringS2_S2_S2_N13KAboutLicense10LicenseKeyE
libKF6CoreAddons.so.6:_ZN10KAboutData12addComponentERK7QStringS2_S2_S2_S2_
libKF6CoreAddons.so.6:_ZN10KAboutData12setOtherTextERK7QString
libKF6CoreAddons.so.6:_ZN10KAboutData13setBugAddressERK10QByteArray
libKF6CoreAddons.so.6:_ZN10KAboutData13setTranslatorERK7QStringS2_
libKF6CoreAddons.so.6:_ZN10KAboutData14addLicenseTextERK7QString
libKF6CoreAddons.so.6:_ZN10KAboutData14setDisplayNameERK7QString
libKF6CoreAddons.so.6:_ZN10KAboutData14setLicenseTextERK7QString
libKF6CoreAddons.so.6:_ZN10KAboutData14setProductNameERK10QByteArray
libKF6CoreAddons.so.6:_ZN10KAboutData14setProgramLogoERK8QVariant
libKF6CoreAddons.so.6:_ZN10KAboutData15applicationDataEv
libKF6CoreAddons.so.6:_ZN10KAboutData16setComponentNameERK7QString
libKF6CoreAddons.so.6:_ZN10KAboutData16setupCommandLineEP18QCommandLineParser
libKF6CoreAddons.so.6:_ZN10KAboutData16staticMetaObjectE
libKF6CoreAddons.so.6:_ZN10KAboutData18addLicenseTextFileERK7QString
libKF6CoreAddons.so.6:_ZN10KAboutData18processCommandLineEP18QCommandLineParser
libKF6CoreAddons.so.6:_ZN10KAboutData18setApplicationDataERKS_
libKF6CoreAddons.so.6:_ZN10KAboutData18setDesktopFileNameERK7QString
libKF6CoreAddons.so.6:_ZN10KAboutData18setLicenseTextFileERK7QString
libKF6CoreAddons.so.6:_ZN10KAboutData19setCustomAuthorTextERK7QStringS2_
libKF6CoreAddons.so.6:_ZN10KAboutData19setShortDescriptionERK7QString
libKF6CoreAddons.so.6:_ZN10KAboutData20aboutTranslationTeamEv
libKF6CoreAddons.so.6:_ZN10KAboutData21setCopyrightStatementERK7QString
libKF6CoreAddons.so.6:_ZN10KAboutData21setOrganizationDomainERK10QByteArray
libKF6CoreAddons.so.6:_ZN10KAboutData21unsetCustomAuthorTextEv
libKF6CoreAddons.so.6:_ZN10KAboutData22applicationDataPointerEv
libKF6CoreAddons.so.6:_ZN10KAboutData9addAuthorERK12KAboutPerson
libKF6CoreAddons.so.6:_ZN10KAboutData9addAuthorERK7QStringS2_S2_S2_RK4QUrl
libKF6CoreAddons.so.6:_ZN10KAboutData9addCreditERK12KAboutPerson
libKF6CoreAddons.so.6:_ZN10KAboutData9addCreditERK7QStringS2_S2_S2_RK4QUrl
libKF6CoreAddons.so.6:_ZN10KAboutDataC1ERK7QStringS2_S2_
libKF6CoreAddons.so.6:_ZN10KAboutDataC1ERK7QStringS2_S2_S2_N13KAboutLicense10LicenseKeyES2_S2_S2_S2_
libKF6CoreAddons.so.6:_ZN10KAboutDataC1ERKS_
libKF6CoreAddons.so.6:_ZN10KAboutDataC2ERK7QStringS2_S2_
libKF6CoreAddons.so.6:_ZN10KAboutDataC2ERK7QStringS2_S2_S2_N13KAboutLicense10LicenseKeyES2_S2_S2_S2_
libKF6CoreAddons.so.6:_ZN10KAboutDataC2ERKS_
libKF6CoreAddons.so.6:_ZN10KAboutDataD1Ev
libKF6CoreAddons.so.6:_ZN10KAboutDataD2Ev
libKF6CoreAddons.so.6:_ZN10KAboutDataaSERKS_
libKF6CoreAddons.so.6:_ZN10KFileUtils11suggestNameERK4QUrlRK7QString
libKF6CoreAddons.so.6:_ZN10KFileUtils17makeSuggestedNameERK7QString
libKF6CoreAddons.so.6:_ZN10KFileUtils18findAllUniqueFilesERK5QListI7QStringES4_
libKF6CoreAddons.so.6:_ZN10KJsonUtils19readTranslatedValueERK11QJsonObjectRK7QStringRK10QJsonValue
libKF6CoreAddons.so.6:_ZN10KJsonUtils20readTranslatedStringERK11QJsonObjectRK7QStringS5_
libKF6CoreAddons.so.6:_ZN10KOSReleaseC1ERK7QString
libKF6CoreAddons.so.6:_ZN10KOSReleaseC2ERK7QString
libKF6CoreAddons.so.6:_ZN10KOSReleaseD1Ev
libKF6CoreAddons.so.6:_ZN10KOSReleaseD2Ev
libKF6CoreAddons.so.6:_ZN10KUserGroup13allGroupNamesEj
libKF6CoreAddons.so.6:_ZN10KUserGroup9allGroupsEj
libKF6CoreAddons.so.6:_ZN10KUserGroupC1E8KGroupId
libKF6CoreAddons.so.6:_ZN10KUserGroupC1EN5KUser7UIDModeE
libKF6CoreAddons.so.6:_ZN10KUserGroupC1EPK5group
libKF6CoreAddons.so.6:_ZN10KUserGroupC1EPKc
libKF6CoreAddons.so.6:_ZN10KUserGroupC1ERK7QString
libKF6CoreAddons.so.6:_ZN10KUserGroupC1ERKS_
libKF6CoreAddons.so.6:_ZN10KUserGroupC1Ej
libKF6CoreAddons.so.6:_ZN10KUserGroupC2E8KGroupId
libKF6CoreAddons.so.6:_ZN10KUserGroupC2EN5KUser7UIDModeE
libKF6CoreAddons.so.6:_ZN10KUserGroupC2EPK5group
libKF6CoreAddons.so.6:_ZN10KUserGroupC2EPKc
libKF6CoreAddons.so.6:_ZN10KUserGroupC2ERK7QString
libKF6CoreAddons.so.6:_ZN10KUserGroupC2ERKS_
libKF6CoreAddons.so.6:_ZN10KUserGroupC2Ej
libKF6CoreAddons.so.6:_ZN10KUserGroupD1Ev
libKF6CoreAddons.so.6:_ZN10KUserGroupD2Ev
libKF6CoreAddons.so.6:_ZN10KUserGroupaSERKS_
libKF6CoreAddons.so.6:_ZN11KCoreAddons13versionStringEv
libKF6CoreAddons.so.6:_ZN11KCoreAddons7versionEv
libKF6CoreAddons.so.6:_ZN11KMemoryInfoC1ERKS_
libKF6CoreAddons.so.6:_ZN11KMemoryInfoC1Ev
libKF6CoreAddons.so.6:_ZN11KMemoryInfoC2ERKS_
libKF6CoreAddons.so.6:_ZN11KMemoryInfoC2Ev
libKF6CoreAddons.so.6:_ZN11KMemoryInfoD1Ev
libKF6CoreAddons.so.6:_ZN11KMemoryInfoD2Ev
libKF6CoreAddons.so.6:_ZN11KMemoryInfoaSERKS_
libKF6CoreAddons.so.6:_ZN11KTextToHTML13convertToHtmlERK7QStringRK6QFlagsINS_6OptionEEii
libKF6CoreAddons.so.6:_ZN11KTextToHTML16staticMetaObjectE
libKF6CoreAddons.so.6:_ZN12KAboutPerson16staticMetaObjectE
libKF6CoreAddons.so.6:_ZN12KAboutPerson8fromJSONERK11QJsonObject
libKF6CoreAddons.so.6:_ZN12KAboutPersonC1ERK7QStringS2_S2_S2_RK4QUrl
libKF6CoreAddons.so.6:_ZN12KAboutPersonC1ERKS_
libKF6CoreAddons.so.6:_ZN12KAboutPersonC2ERK7QStringS2_S2_S2_RK4QUrl
libKF6CoreAddons.so.6:_ZN12KAboutPersonC2ERKS_
libKF6CoreAddons.so.6:_ZN12KAboutPersonD1Ev
libKF6CoreAddons.so.6:_ZN12KAboutPersonD2Ev
libKF6CoreAddons.so.6:_ZN12KAboutPersonaSERKS_
libKF6CoreAddons.so.6:_ZN12KProcessList11processInfoEx
libKF6CoreAddons.so.6:_ZN12KProcessList12KProcessInfoC1ERKS0_
libKF6CoreAddons.so.6:_ZN12KProcessList12KProcessInfoC1Ev
libKF6CoreAddons.so.6:_ZN12KProcessList12KProcessInfoC1ExRK7QStringS3_
libKF6CoreAddons.so.6:_ZN12KProcessList12KProcessInfoC1ExRK7QStringS3_S3_
libKF6CoreAddons.so.6:_ZN12KProcessList12KProcessInfoC2ERKS0_
libKF6CoreAddons.so.6:_ZN12KProcessList12KProcessInfoC2Ev
libKF6CoreAddons.so.6:_ZN12KProcessList12KProcessInfoC2ExRK7QStringS3_
libKF6CoreAddons.so.6:_ZN12KProcessList12KProcessInfoC2ExRK7QStringS3_S3_
libKF6CoreAddons.so.6:_ZN12KProcessList12KProcessInfoD1Ev
libKF6CoreAddons.so.6:_ZN12KProcessList12KProcessInfoD2Ev
libKF6CoreAddons.so.6:_ZN12KProcessList12KProcessInfoaSERKS0_
libKF6CoreAddons.so.6:_ZN12KProcessList15processInfoListEv
libKF6CoreAddons.so.6:_ZN12KUrlMimeData11setMetaDataERK4QMapI7QStringS1_EP9QMimeData
libKF6CoreAddons.so.6:_ZN12KUrlMimeData11setSourceIdEP9QMimeData
libKF6CoreAddons.so.6:_ZN12KUrlMimeData13mimeDataTypesEv
libKF6CoreAddons.so.6:_ZN12KUrlMimeData16urlsFromMimeDataEPK9QMimeData6QFlagsINS_12DecodeOptionEEP4QMapI7QStringS7_E
libKF6CoreAddons.so.6:_ZN12KUrlMimeData18exportUrlsToPortalEP9QMimeData
libKF6CoreAddons.so.6:_ZN12KUrlMimeData26isDocumentsPortalAvailableEv
libKF6CoreAddons.so.6:_ZN12KUrlMimeData7setUrlsERK5QListI4QUrlES4_P9QMimeData
libKF6CoreAddons.so.6:_ZN13KAboutLicense16staticMetaObjectE
libKF6CoreAddons.so.6:_ZN13KAboutLicense9byKeywordERK7QString
libKF6CoreAddons.so.6:_ZN13KAboutLicenseC1ERKS_
libKF6CoreAddons.so.6:_ZN13KAboutLicenseC1Ev
libKF6CoreAddons.so.6:_ZN13KAboutLicenseC2ERKS_
libKF6CoreAddons.so.6:_ZN13KAboutLicenseC2Ev
libKF6CoreAddons.so.6:_ZN13KAboutLicenseD1Ev
libKF6CoreAddons.so.6:_ZN13KAboutLicenseD2Ev
libKF6CoreAddons.so.6:_ZN13KAboutLicenseaSERKS_
libKF6CoreAddons.so.6:_ZN13KAutoSaveFile10staleFilesERK4QUrlRK7QString
libKF6CoreAddons.so.6:_ZN13KAutoSaveFile11qt_metacallEN11QMetaObject4CallEiPPv
libKF6CoreAddons.so.6:_ZN13KAutoSaveFile11qt_metacastEPKc
libKF6CoreAddons.so.6:_ZN13KAutoSaveFile11releaseLockEv
libKF6CoreAddons.so.6:_ZN13KAutoSaveFile13allStaleFilesERK7QString
libKF6CoreAddons.so.6:_ZN13KAutoSaveFile14setManagedFileERK4QUrl
libKF6CoreAddons.so.6:_ZN13KAutoSaveFile16staticMetaObjectE
libKF6CoreAddons.so.6:_ZN13KAutoSaveFile4openE6QFlagsIN13QIODeviceBase12OpenModeFlagEE
libKF6CoreAddons.so.6:_ZN13KAutoSaveFileC1EP7QObject
libKF6CoreAddons.so.6:_ZN13KAutoSaveFileC1ERK4QUrlP7QObject
libKF6CoreAddons.so.6:_ZN13KAutoSaveFileC2EP7QObject
libKF6CoreAddons.so.6:_ZN13KAutoSaveFileC2ERK4QUrlP7QObject
libKF6CoreAddons.so.6:_ZN13KAutoSaveFileD0Ev
libKF6CoreAddons.so.6:_ZN13KAutoSaveFileD1Ev
libKF6CoreAddons.so.6:_ZN13KAutoSaveFileD2Ev
libKF6CoreAddons.so.6:_ZN13KCompositeJob10slotResultEP4KJob
libKF6CoreAddons.so.6:_ZN13KCompositeJob11qt_metacallEN11QMetaObject4CallEiPPv
libKF6CoreAddons.so.6:_ZN13KCompositeJob11qt_metacastEPKc
libKF6CoreAddons.so.6:_ZN13KCompositeJob12clearSubjobsEv
libKF6CoreAddons.so.6:_ZN13KCompositeJob12removeSubjobEP4KJob
libKF6CoreAddons.so.6:_ZN13KCompositeJob15slotInfoMessageEP4KJobRK7QString
libKF6CoreAddons.so.6:_ZN13KCompositeJob16staticMetaObjectE
libKF6CoreAddons.so.6:_ZN13KCompositeJob9addSubjobEP4KJob
libKF6CoreAddons.so.6:_ZN13KCompositeJobC2EP7QObject
libKF6CoreAddons.so.6:_ZN13KCompositeJobD0Ev
libKF6CoreAddons.so.6:_ZN13KCompositeJobD1Ev
libKF6CoreAddons.so.6:_ZN13KCompositeJobD2Ev
libKF6CoreAddons.so.6:_ZN13KFuzzyMatcher11matchSimpleE11QStringViewS0_
libKF6CoreAddons.so.6:_ZN13KFuzzyMatcher13matchedRangesE11QStringViewS0_NS_9RangeTypeE
libKF6CoreAddons.so.6:_ZN13KFuzzyMatcher5matchE11QStringViewS0_
libKF6CoreAddons.so.6:_ZN14KJobUiDelegate11qt_metacallEN11QMetaObject4CallEiPPv
libKF6CoreAddons.so.6:_ZN14KJobUiDelegate11qt_metacastEPKc
libKF6CoreAddons.so.6:_ZN14KJobUiDelegate11slotWarningEP4KJobRK7QString
libKF6CoreAddons.so.6:_ZN14KJobUiDelegate16showErrorMessageEv
libKF6CoreAddons.so.6:_ZN14KJobUiDelegate16staticMetaObjectE
libKF6CoreAddons.so.6:_ZN14KJobUiDelegate27setAutoErrorHandlingEnabledEb
libKF6CoreAddons.so.6:_ZN14KJobUiDelegate29setAutoWarningHandlingEnabledEb
libKF6CoreAddons.so.6:_ZN14KJobUiDelegate6setJobEP4KJob
libKF6CoreAddons.so.6:_ZN14KJobUiDelegateC1E6QFlagsINS_4FlagEE
libKF6CoreAddons.so.6:_ZN14KJobUiDelegateC2E6QFlagsINS_4FlagEE
libKF6CoreAddons.so.6:_ZN14KJobUiDelegateD0Ev
libKF6CoreAddons.so.6:_ZN14KJobUiDelegateD1Ev
libKF6CoreAddons.so.6:_ZN14KJobUiDelegateD2Ev
libKF6CoreAddons.so.6:_ZN14KMacroExpander12expandMacrosERK7QStringRK5QHashI5QChar5QListIS0_EES4_
libKF6CoreAddons.so.6:_ZN14KMacroExpander12expandMacrosERK7QStringRK5QHashI5QCharS0_ES4_
libKF6CoreAddons.so.6:_ZN14KMacroExpander12expandMacrosERK7QStringRK5QHashIS0_5QListIS0_EE5QChar
libKF6CoreAddons.so.6:_ZN14KMacroExpander12expandMacrosERK7QStringRK5QHashIS0_S0_E5QChar
libKF6CoreAddons.so.6:_ZN14KMacroExpander22expandMacrosShellQuoteERK7QStringRK5QHashI5QChar5QListIS0_EES4_
libKF6CoreAddons.so.6:_ZN14KMacroExpander22expandMacrosShellQuoteERK7QStringRK5QHashI5QCharS0_ES4_
libKF6CoreAddons.so.6:_ZN14KMacroExpander22expandMacrosShellQuoteERK7QStringRK5QHashIS0_5QListIS0_EE5QChar
libKF6CoreAddons.so.6:_ZN14KMacroExpander22expandMacrosShellQuoteERK7QStringRK5QHashIS0_S0_E5QChar
libKF6CoreAddons.so.6:_ZN14KNetworkMounts10clearCacheEv
libKF6CoreAddons.so.6:_ZN14KNetworkMounts10isSlowPathERK7QStringNS_18KNetworkMountsTypeE
libKF6CoreAddons.so.6:_ZN14KNetworkMounts10setEnabledEb
libKF6CoreAddons.so.6:_ZN14KNetworkMounts11qt_metacallEN11QMetaObject4CallEiPPv
libKF6CoreAddons.so.6:_ZN14KNetworkMounts11qt_metacastEPKc
libKF6CoreAddons.so.6:_ZN14KNetworkMounts16staticMetaObjectE
libKF6CoreAddons.so.6:_ZN14KNetworkMounts20canonicalSymlinkPathERK7QString
libKF6CoreAddons.so.6:_ZN14KNetworkMounts22isOptionEnabledForPathERK7QStringNS_19KNetworkMountOptionE
libKF6CoreAddons.so.6:_ZN14KNetworkMounts4selfEv
libKF6CoreAddons.so.6:_ZN14KNetworkMounts4syncEv
libKF6CoreAddons.so.6:_ZN14KNetworkMounts7addPathERK7QStringNS_18KNetworkMountsTypeE
libKF6CoreAddons.so.6:_ZN14KNetworkMounts8setPathsERK5QListI7QStringENS_18KNetworkMountsTypeE
libKF6CoreAddons.so.6:_ZN14KNetworkMounts9setOptionENS_19KNetworkMountOptionEb
libKF6CoreAddons.so.6:_ZN14KPluginFactory11loadFactoryERK15KPluginMetaData
libKF6CoreAddons.so.6:_ZN14KPluginFactory11qt_metacallEN11QMetaObject4CallEiPPv
libKF6CoreAddons.so.6:_ZN14KPluginFactory11qt_metacastEPKc
libKF6CoreAddons.so.6:_ZN14KPluginFactory11setMetaDataERK15KPluginMetaData
libKF6CoreAddons.so.6:_ZN14KPluginFactory14registerPluginEPK11QMetaObjectPFP7QObjectP7QWidgetS4_RK15KPluginMetaDataRK5QListI8QVariantEE
libKF6CoreAddons.so.6:_ZN14KPluginFactory16staticMetaObjectE
libKF6CoreAddons.so.6:_ZN14KPluginFactory29logFailedInstantiationMessageE15KPluginMetaData
libKF6CoreAddons.so.6:_ZN14KPluginFactory29logFailedInstantiationMessageEPKc15KPluginMetaData
libKF6CoreAddons.so.6:_ZN14KPluginFactory6createEPKcP7QWidgetP7QObjectRK5QListI8QVariantE
libKF6CoreAddons.so.6:_ZN14KPluginFactoryC1Ev
libKF6CoreAddons.so.6:_ZN14KPluginFactoryC2Ev
libKF6CoreAddons.so.6:_ZN14KPluginFactoryD0Ev
libKF6CoreAddons.so.6:_ZN14KPluginFactoryD1Ev
libKF6CoreAddons.so.6:_ZN14KPluginFactoryD2Ev
libKF6CoreAddons.so.6:_ZN14KSignalHandler11qt_metacallEN11QMetaObject4CallEiPPv
libKF6CoreAddons.so.6:_ZN14KSignalHandler11qt_metacastEPKc
libKF6CoreAddons.so.6:_ZN14KSignalHandler11watchSignalEi
libKF6CoreAddons.so.6:_ZN14KSignalHandler14signalReceivedEi
libKF6CoreAddons.so.6:_ZN14KSignalHandler16staticMetaObjectE
libKF6CoreAddons.so.6:_ZN14KSignalHandler4selfEv
libKF6CoreAddons.so.6:_ZN14KSignalHandlerD0Ev
libKF6CoreAddons.so.6:_ZN14KSignalHandlerD1Ev
libKF6CoreAddons.so.6:_ZN14KSignalHandlerD2Ev
libKF6CoreAddons.so.6:_ZN14KStringHandler13logicalLengthERK7QString
libKF6CoreAddons.so.6:_ZN14KStringHandler14preProcessWrapERK7QString
libKF6CoreAddons.so.6:_ZN14KStringHandler7obscureERK7QString
libKF6CoreAddons.so.6:_ZN14KStringHandler7tagUrlsERK7QString
libKF6CoreAddons.so.6:_ZN14KStringHandler8capwordsERK5QListI7QStringE
libKF6CoreAddons.so.6:_ZN14KStringHandler8capwordsERK7QString
libKF6CoreAddons.so.6:_ZN14KStringHandler8csqueezeERK7QStringi
libKF6CoreAddons.so.6:_ZN14KStringHandler8lsqueezeERK7QStringi
libKF6CoreAddons.so.6:_ZN14KStringHandler8rsqueezeERK7QStringi
libKF6CoreAddons.so.6:_ZN14KStringHandler9perlSplitE11QStringViewS0_i
libKF6CoreAddons.so.6:_ZN14KStringHandler9perlSplitERK18QRegularExpressionRK7QStringi
libKF6CoreAddons.so.6:_ZN14KStringHandler9perlSplitERK5QCharRK7QStringi
libKF6CoreAddons.so.6:_ZN14KStringHandler9perlSplitERK7QStringS2_i
libKF6CoreAddons.so.6:_ZN15KAboutComponent16staticMetaObjectE
libKF6CoreAddons.so.6:_ZN15KAboutComponentC1ERK7QStringS2_S2_S2_N13KAboutLicense10LicenseKeyE
libKF6CoreAddons.so.6:_ZN15KAboutComponentC1ERK7QStringS2_S2_S2_S2_
libKF6CoreAddons.so.6:_ZN15KAboutComponentC1ERKS_
libKF6CoreAddons.so.6:_ZN15KAboutComponentC2ERK7QStringS2_S2_S2_N13KAboutLicense10LicenseKeyE
libKF6CoreAddons.so.6:_ZN15KAboutComponentC2ERK7QStringS2_S2_S2_S2_
libKF6CoreAddons.so.6:_ZN15KAboutComponentC2ERKS_
libKF6CoreAddons.so.6:_ZN15KAboutComponentD1Ev
libKF6CoreAddons.so.6:_ZN15KAboutComponentD2Ev
libKF6CoreAddons.so.6:_ZN15KAboutComponentaSERKS_
libKF6CoreAddons.so.6:_ZN15KFileSystemType14fileSystemNameENS_4TypeE
libKF6CoreAddons.so.6:_ZN15KFileSystemType14fileSystemTypeERK7QString
libKF6CoreAddons.so.6:_ZN15KPluginMetaData11findPluginsERK7QStringSt8functionIFbRKS_EE6QFlagsINS_21KPluginMetaDataOptionEE
libKF6CoreAddons.so.6:_ZN15KPluginMetaData12fromJsonFileERK7QString
libKF6CoreAddons.so.6:_ZN15KPluginMetaData14findPluginByIdERK7QStringS2_6QFlagsINS_21KPluginMetaDataOptionEE
libKF6CoreAddons.so.6:_ZN15KPluginMetaData16staticMetaObjectE
libKF6CoreAddons.so.6:_ZN15KPluginMetaDataC1ERK11QJsonObjectRK7QString
libKF6CoreAddons.so.6:_ZN15KPluginMetaDataC1ERK13QPluginLoader6QFlagsINS_21KPluginMetaDataOptionEE
libKF6CoreAddons.so.6:_ZN15KPluginMetaDataC1ERK7QString6QFlagsINS_21KPluginMetaDataOptionEE
libKF6CoreAddons.so.6:_ZN15KPluginMetaDataC1ERKS_
libKF6CoreAddons.so.6:_ZN15KPluginMetaDataC1Ev
libKF6CoreAddons.so.6:_ZN15KPluginMetaDataC2ERK11QJsonObjectRK7QString
libKF6CoreAddons.so.6:_ZN15KPluginMetaDataC2ERK13QPluginLoader6QFlagsINS_21KPluginMetaDataOptionEE
libKF6CoreAddons.so.6:_ZN15KPluginMetaDataC2ERK7QString6QFlagsINS_21KPluginMetaDataOptionEE
libKF6CoreAddons.so.6:_ZN15KPluginMetaDataC2ERKS_
libKF6CoreAddons.so.6:_ZN15KPluginMetaDataC2Ev
libKF6CoreAddons.so.6:_ZN15KPluginMetaDataD1Ev
libKF6CoreAddons.so.6:_ZN15KPluginMetaDataD2Ev
libKF6CoreAddons.so.6:_ZN15KPluginMetaDataaSERKS_
libKF6CoreAddons.so.6:_ZN16KRuntimePlatform15runtimePlatformEv
libKF6CoreAddons.so.6:_ZN16KSharedDataCache11deleteCacheERK7QString
libKF6CoreAddons.so.6:_ZN16KSharedDataCache12setTimestampEj
libKF6CoreAddons.so.6:_ZN16KSharedDataCache17setEvictionPolicyENS_14EvictionPolicyE
libKF6CoreAddons.so.6:_ZN16KSharedDataCache5clearEv
libKF6CoreAddons.so.6:_ZN16KSharedDataCache6insertERK7QStringRK10QByteArray
libKF6CoreAddons.so.6:_ZN16KSharedDataCache6removeERK7QString
libKF6CoreAddons.so.6:_ZN16KSharedDataCacheC1ERK7QStringjj
libKF6CoreAddons.so.6:_ZN16KSharedDataCacheC2ERK7QStringjj
libKF6CoreAddons.so.6:_ZN16KSharedDataCacheD1Ev
libKF6CoreAddons.so.6:_ZN16KSharedDataCacheD2Ev
libKF6CoreAddons.so.6:_ZN17KListOpenFilesJob11qt_metacallEN11QMetaObject4CallEiPPv
libKF6CoreAddons.so.6:_ZN17KListOpenFilesJob11qt_metacastEPKc
libKF6CoreAddons.so.6:_ZN17KListOpenFilesJob16staticMetaObjectE
libKF6CoreAddons.so.6:_ZN17KListOpenFilesJob5startEv
libKF6CoreAddons.so.6:_ZN17KListOpenFilesJobC1ERK7QString
libKF6CoreAddons.so.6:_ZN17KListOpenFilesJobC2ERK7QString
libKF6CoreAddons.so.6:_ZN17KListOpenFilesJobD0Ev
libKF6CoreAddons.so.6:_ZN17KListOpenFilesJobD1Ev
libKF6CoreAddons.so.6:_ZN17KListOpenFilesJobD2Ev
libKF6CoreAddons.so.6:_ZN18KCharMacroExpander16expandPlainMacroERK7QStringiR5QListIS0_E
libKF6CoreAddons.so.6:_ZN18KCharMacroExpander18expandEscapedMacroERK7QStringiR5QListIS0_E
libKF6CoreAddons.so.6:_ZN18KMacroExpanderBase12expandMacrosER7QString
libKF6CoreAddons.so.6:_ZN18KMacroExpanderBase13setEscapeCharE5QChar
libKF6CoreAddons.so.6:_ZN18KMacroExpanderBase16expandPlainMacroERK7QStringiR5QListIS0_E
libKF6CoreAddons.so.6:_ZN18KMacroExpanderBase18expandEscapedMacroERK7QStringiR5QListIS0_E
libKF6CoreAddons.so.6:_ZN18KMacroExpanderBase22expandMacrosShellQuoteER7QString
libKF6CoreAddons.so.6:_ZN18KMacroExpanderBase22expandMacrosShellQuoteER7QStringRi
libKF6CoreAddons.so.6:_ZN18KMacroExpanderBaseC1E5QChar
libKF6CoreAddons.so.6:_ZN18KMacroExpanderBaseC2E5QChar
libKF6CoreAddons.so.6:_ZN18KMacroExpanderBaseD0Ev
libKF6CoreAddons.so.6:_ZN18KMacroExpanderBaseD1Ev
libKF6CoreAddons.so.6:_ZN18KMacroExpanderBaseD2Ev
libKF6CoreAddons.so.6:_ZN18KWordMacroExpander16expandPlainMacroERK7QStringiR5QListIS0_E
libKF6CoreAddons.so.6:_ZN18KWordMacroExpander18expandEscapedMacroERK7QStringiR5QListIS0_E
libKF6CoreAddons.so.6:_ZN20KJobTrackerInterface11descriptionEP4KJobRK7QStringRKSt4pairIS2_S2_ES8_
libKF6CoreAddons.so.6:_ZN20KJobTrackerInterface11infoMessageEP4KJobRK7QString
libKF6CoreAddons.so.6:_ZN20KJobTrackerInterface11qt_metacallEN11QMetaObject4CallEiPPv
libKF6CoreAddons.so.6:_ZN20KJobTrackerInterface11qt_metacastEPKc
libKF6CoreAddons.so.6:_ZN20KJobTrackerInterface11registerJobEP4KJob
libKF6CoreAddons.so.6:_ZN20KJobTrackerInterface11totalAmountEP4KJobNS0_4UnitEy
libKF6CoreAddons.so.6:_ZN20KJobTrackerInterface13unregisterJobEP4KJob
libKF6CoreAddons.so.6:_ZN20KJobTrackerInterface15processedAmountEP4KJobNS0_4UnitEy
libKF6CoreAddons.so.6:_ZN20KJobTrackerInterface16staticMetaObjectE
libKF6CoreAddons.so.6:_ZN20KJobTrackerInterface5speedEP4KJobm
libKF6CoreAddons.so.6:_ZN20KJobTrackerInterface7percentEP4KJobm
libKF6CoreAddons.so.6:_ZN20KJobTrackerInterface7resumedEP4KJob
libKF6CoreAddons.so.6:_ZN20KJobTrackerInterface7warningEP4KJobRK7QString
libKF6CoreAddons.so.6:_ZN20KJobTrackerInterface8finishedEP4KJob
libKF6CoreAddons.so.6:_ZN20KJobTrackerInterface9suspendedEP4KJob
libKF6CoreAddons.so.6:_ZN20KJobTrackerInterfaceC1EP7QObject
libKF6CoreAddons.so.6:_ZN20KJobTrackerInterfaceC2EP7QObject
libKF6CoreAddons.so.6:_ZN20KJobTrackerInterfaceD0Ev
libKF6CoreAddons.so.6:_ZN20KJobTrackerInterfaceD1Ev
libKF6CoreAddons.so.6:_ZN20KJobTrackerInterfaceD2Ev
libKF6CoreAddons.so.6:_ZN24KSystemClockSkewNotifier11qt_metacallEN11QMetaObject4CallEiPPv
libKF6CoreAddons.so.6:_ZN24KSystemClockSkewNotifier11qt_metacastEPKc
libKF6CoreAddons.so.6:_ZN24KSystemClockSkewNotifier13activeChangedEv
libKF6CoreAddons.so.6:_ZN24KSystemClockSkewNotifier16staticMetaObjectE
libKF6CoreAddons.so.6:_ZN24KSystemClockSkewNotifier6skewedEv
libKF6CoreAddons.so.6:_ZN24KSystemClockSkewNotifier9setActiveEb
libKF6CoreAddons.so.6:_ZN24KSystemClockSkewNotifierC1EP7QObject
libKF6CoreAddons.so.6:_ZN24KSystemClockSkewNotifierC2EP7QObject
libKF6CoreAddons.so.6:_ZN24KSystemClockSkewNotifierD0Ev
libKF6CoreAddons.so.6:_ZN24KSystemClockSkewNotifierD1Ev
libKF6CoreAddons.so.6:_ZN24KSystemClockSkewNotifierD2Ev
libKF6CoreAddons.so.6:_ZN4KJob10emitResultEv
libKF6CoreAddons.so.6:_ZN4KJob10setPercentEm
libKF6CoreAddons.so.6:_ZN4KJob11descriptionEPS_RK7QStringRKSt4pairIS1_S1_ES7_
libKF6CoreAddons.so.6:_ZN4KJob11emitPercentEyy
libKF6CoreAddons.so.6:_ZN4KJob11infoMessageEPS_RK7QString
libKF6CoreAddons.so.6:_ZN4KJob11qt_metacallEN11QMetaObject4CallEiPPv
libKF6CoreAddons.so.6:_ZN4KJob11qt_metacastEPKc
libKF6CoreAddons.so.6:_ZN4KJob12setErrorTextERK7QString
libKF6CoreAddons.so.6:_ZN4KJob13processedSizeEPS_y
libKF6CoreAddons.so.6:_ZN4KJob13setAutoDeleteEb
libKF6CoreAddons.so.6:_ZN4KJob13setUiDelegateEP14KJobUiDelegate
libKF6CoreAddons.so.6:_ZN4KJob14percentChangedEPS_mNS_14QPrivateSignalE
libKF6CoreAddons.so.6:_ZN4KJob14setTotalAmountENS_4UnitEy
libKF6CoreAddons.so.6:_ZN4KJob15setCapabilitiesE6QFlagsINS_10CapabilityEE
libKF6CoreAddons.so.6:_ZN4KJob15setProgressUnitENS_4UnitE
libKF6CoreAddons.so.6:_ZN4KJob16staticMetaObjectE
libKF6CoreAddons.so.6:_ZN4KJob17startElapsedTimerEv
libKF6CoreAddons.so.6:_ZN4KJob18setProcessedAmountENS_4UnitEy
libKF6CoreAddons.so.6:_ZN4KJob18totalAmountChangedEPS_NS_4UnitEyNS_14QPrivateSignalE
libKF6CoreAddons.so.6:_ZN4KJob22processedAmountChangedEPS_NS_4UnitEyNS_14QPrivateSignalE
libKF6CoreAddons.so.6:_ZN4KJob29setFinishedNotificationHiddenEb
libKF6CoreAddons.so.6:_ZN4KJob4execEv
libKF6CoreAddons.so.6:_ZN4KJob4killENS_13KillVerbosityE
libKF6CoreAddons.so.6:_ZN4KJob5speedEPS_m
libKF6CoreAddons.so.6:_ZN4KJob6doKillEv
libKF6CoreAddons.so.6:_ZN4KJob6resultEPS_NS_14QPrivateSignalE
libKF6CoreAddons.so.6:_ZN4KJob6resumeEv
libKF6CoreAddons.so.6:_ZN4KJob7resumedEPS_NS_14QPrivateSignalE
libKF6CoreAddons.so.6:_ZN4KJob7suspendEv
libKF6CoreAddons.so.6:_ZN4KJob7warningEPS_RK7QString
libKF6CoreAddons.so.6:_ZN4KJob8doResumeEv
libKF6CoreAddons.so.6:_ZN4KJob8finishedEPS_NS_14QPrivateSignalE
libKF6CoreAddons.so.6:_ZN4KJob8setErrorEi
libKF6CoreAddons.so.6:_ZN4KJob9doSuspendEv
libKF6CoreAddons.so.6:_ZN4KJob9emitSpeedEm
libKF6CoreAddons.so.6:_ZN4KJob9suspendedEPS_NS_14QPrivateSignalE
libKF6CoreAddons.so.6:_ZN4KJob9totalSizeEPS_y
libKF6CoreAddons.so.6:_ZN4KJobC2EP7QObject
libKF6CoreAddons.so.6:_ZN4KJobD0Ev
libKF6CoreAddons.so.6:_ZN4KJobD1Ev
libKF6CoreAddons.so.6:_ZN4KJobD2Ev
libKF6CoreAddons.so.6:_ZN5KUser12allUserNamesEj
libKF6CoreAddons.so.6:_ZN5KUser8allUsersEj
libKF6CoreAddons.so.6:_ZN5KUserC1E7KUserId
libKF6CoreAddons.so.6:_ZN5KUserC1ENS_7UIDModeE
libKF6CoreAddons.so.6:_ZN5KUserC1EPK6passwd
libKF6CoreAddons.so.6:_ZN5KUserC1EPKc
libKF6CoreAddons.so.6:_ZN5KUserC1ERK7QString
libKF6CoreAddons.so.6:_ZN5KUserC1ERKS_
libKF6CoreAddons.so.6:_ZN5KUserC1Ej
libKF6CoreAddons.so.6:_ZN5KUserC2E7KUserId
libKF6CoreAddons.so.6:_ZN5KUserC2ENS_7UIDModeE
libKF6CoreAddons.so.6:_ZN5KUserC2EPK6passwd
libKF6CoreAddons.so.6:_ZN5KUserC2EPKc
libKF6CoreAddons.so.6:_ZN5KUserC2ERK7QString
libKF6CoreAddons.so.6:_ZN5KUserC2ERKS_
libKF6CoreAddons.so.6:_ZN5KUserC2Ej
libKF6CoreAddons.so.6:_ZN5KUserD1Ev
libKF6CoreAddons.so.6:_ZN5KUserD2Ev
libKF6CoreAddons.so.6:_ZN5KUseraSERKS_
libKF6CoreAddons.so.6:_ZN6KShell11tildeExpandERK7QString
libKF6CoreAddons.so.6:_ZN6KShell13tildeCollapseERK7QString
libKF6CoreAddons.so.6:_ZN6KShell8joinArgsERK5QListI7QStringE
libKF6CoreAddons.so.6:_ZN6KShell8quoteArgERK7QString
libKF6CoreAddons.so.6:_ZN6KShell9splitArgsERK7QString6QFlagsINS_6OptionEEPNS_6ErrorsE
libKF6CoreAddons.so.6:_ZN7KBackup16simpleBackupFileERK7QStringS2_S2_
libKF6CoreAddons.so.6:_ZN7KBackup18numberedBackupFileERK7QStringS2_S2_j
libKF6CoreAddons.so.6:_ZN7KFormat16staticMetaObjectE
libKF6CoreAddons.so.6:_ZN7KFormatC1ERK7QLocale
libKF6CoreAddons.so.6:_ZN7KFormatC1ERKS_
libKF6CoreAddons.so.6:_ZN7KFormatC2ERK7QLocale
libKF6CoreAddons.so.6:_ZN7KFormatC2ERKS_
libKF6CoreAddons.so.6:_ZN7KFormatD1Ev
libKF6CoreAddons.so.6:_ZN7KFormatD2Ev
libKF6CoreAddons.so.6:_ZN7KFormataSERKS_
libKF6CoreAddons.so.6:_ZN7KRandom12randomStringEi
libKF6CoreAddons.so.6:_ZN7KUserId13currentUserIdEv
libKF6CoreAddons.so.6:_ZN7KUserId22currentEffectiveUserIdEv
libKF6CoreAddons.so.6:_ZN7KUserId8fromNameERK7QString
libKF6CoreAddons.so.6:_ZN8KGroupId14currentGroupIdEv
libKF6CoreAddons.so.6:_ZN8KGroupId23currentEffectiveGroupIdEv
libKF6CoreAddons.so.6:_ZN8KGroupId8fromNameERK7QString
libKF6CoreAddons.so.6:_ZN8KLibexec14pathCandidatesERK7QString
libKF6CoreAddons.so.6:_ZN8KLibexec15pathFromAddressERK7QStringPv
libKF6CoreAddons.so.6:_ZN8KProcess10setProgramERK5QListI7QStringE
libKF6CoreAddons.so.6:_ZN8KProcess10setProgramERK7QStringRK5QListIS0_E
libKF6CoreAddons.so.6:_ZN8KProcess11qt_metacallEN11QMetaObject4CallEiPPv
libKF6CoreAddons.so.6:_ZN8KProcess11qt_metacastEPKc
libKF6CoreAddons.so.6:_ZN8KProcess12clearProgramEv
libKF6CoreAddons.so.6:_ZN8KProcess13startDetachedERK5QListI7QStringE
libKF6CoreAddons.so.6:_ZN8KProcess13startDetachedERK7QStringRK5QListIS0_E
libKF6CoreAddons.so.6:_ZN8KProcess13startDetachedEv
libKF6CoreAddons.so.6:_ZN8KProcess15setNextOpenModeE6QFlagsIN13QIODeviceBase12OpenModeFlagEE
libKF6CoreAddons.so.6:_ZN8KProcess15setShellCommandERK7QString
libKF6CoreAddons.so.6:_ZN8KProcess16clearEnvironmentEv
libKF6CoreAddons.so.6:_ZN8KProcess16staticMetaObjectE
libKF6CoreAddons.so.6:_ZN8KProcess20setOutputChannelModeENS_17OutputChannelModeE
libKF6CoreAddons.so.6:_ZN8KProcess5startEv
libKF6CoreAddons.so.6:_ZN8KProcess6setEnvERK7QStringS2_b
libKF6CoreAddons.so.6:_ZN8KProcess7executeERK5QListI7QStringEi
libKF6CoreAddons.so.6:_ZN8KProcess7executeERK7QStringRK5QListIS0_Ei
libKF6CoreAddons.so.6:_ZN8KProcess7executeEi
libKF6CoreAddons.so.6:_ZN8KProcess8unsetEnvERK7QString
libKF6CoreAddons.so.6:_ZN8KProcessC1EP7QObject
libKF6CoreAddons.so.6:_ZN8KProcessC2EP7QObject
libKF6CoreAddons.so.6:_ZN8KProcessD0Ev
libKF6CoreAddons.so.6:_ZN8KProcessD1Ev
libKF6CoreAddons.so.6:_ZN8KProcessD2Ev
libKF6CoreAddons.so.6:_ZN8KProcesslsERK5QListI7QStringE
libKF6CoreAddons.so.6:_ZN8KProcesslsERK7QString
libKF6CoreAddons.so.6:_ZN8KSandbox15makeHostContextERK8QProcess
libKF6CoreAddons.so.6:_ZN8KSandbox16startHostProcessER8QProcess6QFlagsIN13QIODeviceBase12OpenModeFlagEE
libKF6CoreAddons.so.6:_ZN8KSandbox6isSnapEv
libKF6CoreAddons.so.6:_ZN8KSandbox8isInsideEv
libKF6CoreAddons.so.6:_ZN8KSandbox9isFlatpakEv
libKF6CoreAddons.so.6:_ZN9KDirWatch10removeFileERK7QString
libKF6CoreAddons.so.6:_ZN9KDirWatch10setCreatedERK7QString
libKF6CoreAddons.so.6:_ZN9KDirWatch10setDeletedERK7QString
libKF6CoreAddons.so.6:_ZN9KDirWatch11qt_metacallEN11QMetaObject4CallEiPPv
libKF6CoreAddons.so.6:_ZN9KDirWatch11qt_metacastEPKc
libKF6CoreAddons.so.6:_ZN9KDirWatch11stopDirScanERK7QString
libKF6CoreAddons.so.6:_ZN9KDirWatch14restartDirScanERK7QString
libKF6CoreAddons.so.6:_ZN9KDirWatch16staticMetaObjectE
libKF6CoreAddons.so.6:_ZN9KDirWatch4selfEv
libKF6CoreAddons.so.6:_ZN9KDirWatch5dirtyERK7QString
libKF6CoreAddons.so.6:_ZN9KDirWatch5eventEP6QEvent
libKF6CoreAddons.so.6:_ZN9KDirWatch6addDirERK7QString6QFlagsINS_9WatchModeEE
libKF6CoreAddons.so.6:_ZN9KDirWatch6existsEv
libKF6CoreAddons.so.6:_ZN9KDirWatch7addFileERK7QString
libKF6CoreAddons.so.6:_ZN9KDirWatch7createdERK7QString
libKF6CoreAddons.so.6:_ZN9KDirWatch7deletedERK7QString
libKF6CoreAddons.so.6:_ZN9KDirWatch8setDirtyERK7QString
libKF6CoreAddons.so.6:_ZN9KDirWatch8stopScanEv
libKF6CoreAddons.so.6:_ZN9KDirWatch9isStoppedEv
libKF6CoreAddons.so.6:_ZN9KDirWatch9removeDirERK7QString
libKF6CoreAddons.so.6:_ZN9KDirWatch9startScanEbb
libKF6CoreAddons.so.6:_ZN9KDirWatchC1EP7QObject
libKF6CoreAddons.so.6:_ZN9KDirWatchC2EP7QObject
libKF6CoreAddons.so.6:_ZN9KDirWatchD0Ev
libKF6CoreAddons.so.6:_ZN9KDirWatchD1Ev
libKF6CoreAddons.so.6:_ZN9KDirWatchD2Ev
libKF6CoreAddons.so.6:_ZNK10KAboutData10bugAddressEv
libKF6CoreAddons.so.6:_ZNK10KAboutData10componentsEv
libKF6CoreAddons.so.6:_ZNK10KAboutData11displayNameEv
libKF6CoreAddons.so.6:_ZNK10KAboutData11productNameEv
libKF6CoreAddons.so.6:_ZNK10KAboutData11programLogoEv
libKF6CoreAddons.so.6:_ZNK10KAboutData11translatorsEv
libKF6CoreAddons.so.6:_ZNK10KAboutData13componentNameEv
libKF6CoreAddons.so.6:_ZNK10KAboutData15desktopFileNameEv
libKF6CoreAddons.so.6:_ZNK10KAboutData15internalVersionEv
libKF6CoreAddons.so.6:_ZNK10KAboutData16shortDescriptionEv
libKF6CoreAddons.so.6:_ZNK10KAboutData18copyrightStatementEv
libKF6CoreAddons.so.6:_ZNK10KAboutData18internalBugAddressEv
libKF6CoreAddons.so.6:_ZNK10KAboutData18organizationDomainEv
libKF6CoreAddons.so.6:_ZNK10KAboutData19internalProductNameEv
libKF6CoreAddons.so.6:_ZNK10KAboutData19internalProgramNameEv
libKF6CoreAddons.so.6:_ZNK10KAboutData20customAuthorRichTextEv
libKF6CoreAddons.so.6:_ZNK10KAboutData21customAuthorPlainTextEv
libKF6CoreAddons.so.6:_ZNK10KAboutData23customAuthorTextEnabledEv
libKF6CoreAddons.so.6:_ZNK10KAboutData7authorsEv
libKF6CoreAddons.so.6:_ZNK10KAboutData7creditsEv
libKF6CoreAddons.so.6:_ZNK10KAboutData7versionEv
libKF6CoreAddons.so.6:_ZNK10KAboutData8homepageEv
libKF6CoreAddons.so.6:_ZNK10KAboutData8licensesEv
libKF6CoreAddons.so.6:_ZNK10KAboutData9otherTextEv
libKF6CoreAddons.so.6:_ZNK10KOSRelease10extraValueERK7QString
libKF6CoreAddons.so.6:_ZNK10KOSRelease10prettyNameEv
libKF6CoreAddons.so.6:_ZNK10KOSRelease10supportUrlEv
libKF6CoreAddons.so.6:_ZNK10KOSRelease12bugReportUrlEv
libKF6CoreAddons.so.6:_ZNK10KOSRelease15versionCodenameEv
libKF6CoreAddons.so.6:_ZNK10KOSRelease16documentationUrlEv
libKF6CoreAddons.so.6:_ZNK10KOSRelease16privacyPolicyUrlEv
libKF6CoreAddons.so.6:_ZNK10KOSRelease2idEv
libKF6CoreAddons.so.6:_ZNK10KOSRelease4logoEv
libKF6CoreAddons.so.6:_ZNK10KOSRelease4nameEv
libKF6CoreAddons.so.6:_ZNK10KOSRelease6idLikeEv
libKF6CoreAddons.so.6:_ZNK10KOSRelease7buildIdEv
libKF6CoreAddons.so.6:_ZNK10KOSRelease7cpeNameEv
libKF6CoreAddons.so.6:_ZNK10KOSRelease7homeUrlEv
libKF6CoreAddons.so.6:_ZNK10KOSRelease7variantEv
libKF6CoreAddons.so.6:_ZNK10KOSRelease7versionEv
libKF6CoreAddons.so.6:_ZNK10KOSRelease9ansiColorEv
libKF6CoreAddons.so.6:_ZNK10KOSRelease9extraKeysEv
libKF6CoreAddons.so.6:_ZNK10KOSRelease9variantIdEv
libKF6CoreAddons.so.6:_ZNK10KOSRelease9versionIdEv
libKF6CoreAddons.so.6:_ZNK10KUserGroup4nameEv
libKF6CoreAddons.so.6:_ZNK10KUserGroup5usersEj
libKF6CoreAddons.so.6:_ZNK10KUserGroup7groupIdEv
libKF6CoreAddons.so.6:_ZNK10KUserGroup7isValidEv
libKF6CoreAddons.so.6:_ZNK10KUserGroup9userNamesEj
libKF6CoreAddons.so.6:_ZNK10KUserGroupeqERKS_
libKF6CoreAddons.so.6:_ZNK11KMemoryInfo12freePhysicalEv
libKF6CoreAddons.so.6:_ZNK11KMemoryInfo12freeSwapFileEv
libKF6CoreAddons.so.6:_ZNK11KMemoryInfo13totalPhysicalEv
libKF6CoreAddons.so.6:_ZNK11KMemoryInfo13totalSwapFileEv
libKF6CoreAddons.so.6:_ZNK11KMemoryInfo17availablePhysicalEv
libKF6CoreAddons.so.6:_ZNK11KMemoryInfo6cachedEv
libKF6CoreAddons.so.6:_ZNK11KMemoryInfo6isNullEv
libKF6CoreAddons.so.6:_ZNK11KMemoryInfo7buffersEv
libKF6CoreAddons.so.6:_ZNK11KMemoryInfoeqERKS_
libKF6CoreAddons.so.6:_ZNK11KMemoryInfoneERKS_
libKF6CoreAddons.so.6:_ZNK12KAboutPerson10webAddressEv
libKF6CoreAddons.so.6:_ZNK12KAboutPerson12emailAddressEv
libKF6CoreAddons.so.6:_ZNK12KAboutPerson4nameEv
libKF6CoreAddons.so.6:_ZNK12KAboutPerson4taskEv
libKF6CoreAddons.so.6:_ZNK12KAboutPerson9avatarUrlEv
libKF6CoreAddons.so.6:_ZNK12KProcessList12KProcessInfo3pidEv
libKF6CoreAddons.so.6:_ZNK12KProcessList12KProcessInfo4nameEv
libKF6CoreAddons.so.6:_ZNK12KProcessList12KProcessInfo4userEv
libKF6CoreAddons.so.6:_ZNK12KProcessList12KProcessInfo7commandEv
libKF6CoreAddons.so.6:_ZNK12KProcessList12KProcessInfo7isValidEv
libKF6CoreAddons.so.6:_ZNK13KAboutLicense3keyEv
libKF6CoreAddons.so.6:_ZNK13KAboutLicense4nameENS_10NameFormatE
libKF6CoreAddons.so.6:_ZNK13KAboutLicense4spdxEv
libKF6CoreAddons.so.6:_ZNK13KAboutLicense4textEv
libKF6CoreAddons.so.6:_ZNK13KAutoSaveFile10metaObjectEv
libKF6CoreAddons.so.6:_ZNK13KAutoSaveFile11managedFileEv
libKF6CoreAddons.so.6:_ZNK13KCompositeJob10hasSubjobsEv
libKF6CoreAddons.so.6:_ZNK13KCompositeJob10metaObjectEv
libKF6CoreAddons.so.6:_ZNK13KCompositeJob7subjobsEv
libKF6CoreAddons.so.6:_ZNK14KJobUiDelegate10metaObjectEv
libKF6CoreAddons.so.6:_ZNK14KJobUiDelegate26isAutoErrorHandlingEnabledEv
libKF6CoreAddons.so.6:_ZNK14KJobUiDelegate28isAutoWarningHandlingEnabledEv
libKF6CoreAddons.so.6:_ZNK14KJobUiDelegate3jobEv
libKF6CoreAddons.so.6:_ZNK14KNetworkMounts10metaObjectEv
libKF6CoreAddons.so.6:_ZNK14KNetworkMounts15isOptionEnabledENS_19KNetworkMountOptionEb
libKF6CoreAddons.so.6:_ZNK14KNetworkMounts5pathsENS_18KNetworkMountsTypeE
libKF6CoreAddons.so.6:_ZNK14KNetworkMounts9isEnabledEv
libKF6CoreAddons.so.6:_ZNK14KPluginFactory10metaObjectEv
libKF6CoreAddons.so.6:_ZNK14KPluginFactory8metaDataEv
libKF6CoreAddons.so.6:_ZNK14KSignalHandler10metaObjectEv
libKF6CoreAddons.so.6:_ZNK15KAboutComponent10webAddressEv
libKF6CoreAddons.so.6:_ZNK15KAboutComponent11descriptionEv
libKF6CoreAddons.so.6:_ZNK15KAboutComponent4nameEv
libKF6CoreAddons.so.6:_ZNK15KAboutComponent7licenseEv
libKF6CoreAddons.so.6:_ZNK15KAboutComponent7versionEv
libKF6CoreAddons.so.6:_ZNK15KPluginMetaData11descriptionEv
libKF6CoreAddons.so.6:_ZNK15KPluginMetaData11formFactorsEv
libKF6CoreAddons.so.6:_ZNK15KPluginMetaData11licenseTextEv
libKF6CoreAddons.so.6:_ZNK15KPluginMetaData11translatorsEv
libKF6CoreAddons.so.6:_ZNK15KPluginMetaData12bugReportUrlEv
libKF6CoreAddons.so.6:_ZNK15KPluginMetaData13copyrightTextEv
libKF6CoreAddons.so.6:_ZNK15KPluginMetaData14isStaticPluginEv
libKF6CoreAddons.so.6:_ZNK15KPluginMetaData16supportsMimeTypeERK7QString
libKF6CoreAddons.so.6:_ZNK15KPluginMetaData17otherContributorsEv
libKF6CoreAddons.so.6:_ZNK15KPluginMetaData18isEnabledByDefaultEv
libKF6CoreAddons.so.6:_ZNK15KPluginMetaData4nameEv
libKF6CoreAddons.so.6:_ZNK15KPluginMetaData5valueE11QStringViewRK5QListI7QStringE
libKF6CoreAddons.so.6:_ZNK15KPluginMetaData5valueE11QStringViewRK7QString
libKF6CoreAddons.so.6:_ZNK15KPluginMetaData5valueE11QStringViewb
libKF6CoreAddons.so.6:_ZNK15KPluginMetaData5valueE11QStringViewi
libKF6CoreAddons.so.6:_ZNK15KPluginMetaData5valueERK7QStringRK5QListIS0_E
libKF6CoreAddons.so.6:_ZNK15KPluginMetaData5valueERK7QStringS2_
libKF6CoreAddons.so.6:_ZNK15KPluginMetaData5valueERK7QStringb
libKF6CoreAddons.so.6:_ZNK15KPluginMetaData5valueERK7QStringi
libKF6CoreAddons.so.6:_ZNK15KPluginMetaData7authorsEv
libKF6CoreAddons.so.6:_ZNK15KPluginMetaData7isValidEv
libKF6CoreAddons.so.6:_ZNK15KPluginMetaData7licenseEv
libKF6CoreAddons.so.6:_ZNK15KPluginMetaData7rawDataEv
libKF6CoreAddons.so.6:_ZNK15KPluginMetaData7versionEv
libKF6CoreAddons.so.6:_ZNK15KPluginMetaData7websiteEv
libKF6CoreAddons.so.6:_ZNK15KPluginMetaData8categoryEv
libKF6CoreAddons.so.6:_ZNK15KPluginMetaData8fileNameEv
libKF6CoreAddons.so.6:_ZNK15KPluginMetaData8iconNameEv
libKF6CoreAddons.so.6:_ZNK15KPluginMetaData8isHiddenEv
libKF6CoreAddons.so.6:_ZNK15KPluginMetaData8pluginIdEv
libKF6CoreAddons.so.6:_ZNK15KPluginMetaData9mimeTypesEv
libKF6CoreAddons.so.6:_ZNK15KPluginMetaDataeqERKS_
libKF6CoreAddons.so.6:_ZNK16KSharedDataCache14evictionPolicyEv
libKF6CoreAddons.so.6:_ZNK16KSharedDataCache4findERK7QStringP10QByteArray
libKF6CoreAddons.so.6:_ZNK16KSharedDataCache8containsERK7QString
libKF6CoreAddons.so.6:_ZNK16KSharedDataCache8freeSizeEv
libKF6CoreAddons.so.6:_ZNK16KSharedDataCache9timestampEv
libKF6CoreAddons.so.6:_ZNK16KSharedDataCache9totalSizeEv
libKF6CoreAddons.so.6:_ZNK17KListOpenFilesJob10metaObjectEv
libKF6CoreAddons.so.6:_ZNK17KListOpenFilesJob15processInfoListEv
libKF6CoreAddons.so.6:_ZNK18KMacroExpanderBase10escapeCharEv
libKF6CoreAddons.so.6:_ZNK20KJobTrackerInterface10metaObjectEv
libKF6CoreAddons.so.6:_ZNK24KSystemClockSkewNotifier10metaObjectEv
libKF6CoreAddons.so.6:_ZNK24KSystemClockSkewNotifier8isActiveEv
libKF6CoreAddons.so.6:_ZNK4KJob10isFinishedEv
libKF6CoreAddons.so.6:_ZNK4KJob10metaObjectEv
libKF6CoreAddons.so.6:_ZNK4KJob10uiDelegateEv
libKF6CoreAddons.so.6:_ZNK4KJob11elapsedTimeEv
libKF6CoreAddons.so.6:_ZNK4KJob11errorStringEv
libKF6CoreAddons.so.6:_ZNK4KJob11isSuspendedEv
libKF6CoreAddons.so.6:_ZNK4KJob11totalAmountENS_4UnitE
libKF6CoreAddons.so.6:_ZNK4KJob12capabilitiesEv
libKF6CoreAddons.so.6:_ZNK4KJob12isAutoDeleteEv
libKF6CoreAddons.so.6:_ZNK4KJob15processedAmountENS_4UnitE
libKF6CoreAddons.so.6:_ZNK4KJob17isStartedWithExecEv
libKF6CoreAddons.so.6:_ZNK4KJob28isFinishedNotificationHiddenEv
libKF6CoreAddons.so.6:_ZNK4KJob5errorEv
libKF6CoreAddons.so.6:_ZNK4KJob7percentEv
libKF6CoreAddons.so.6:_ZNK4KJob9errorTextEv
libKF6CoreAddons.so.6:_ZNK5KUser10groupNamesEj
libKF6CoreAddons.so.6:_ZNK5KUser11isSuperUserEv
libKF6CoreAddons.so.6:_ZNK5KUser12faceIconPathEv
libKF6CoreAddons.so.6:_ZNK5KUser5shellEv
libKF6CoreAddons.so.6:_ZNK5KUser6groupsEj
libKF6CoreAddons.so.6:_ZNK5KUser6userIdEv
libKF6CoreAddons.so.6:_ZNK5KUser7groupIdEv
libKF6CoreAddons.so.6:_ZNK5KUser7homeDirEv
libKF6CoreAddons.so.6:_ZNK5KUser7isValidEv
libKF6CoreAddons.so.6:_ZNK5KUser8propertyENS_12UserPropertyE
libKF6CoreAddons.so.6:_ZNK5KUser9loginNameEv
libKF6CoreAddons.so.6:_ZNK5KUsereqERKS_
libKF6CoreAddons.so.6:_ZNK7KFormat10formatTimeERK9QDateTimeN7QLocale10FormatTypeE6QFlagsINS_16TimeFormatOptionEE
libKF6CoreAddons.so.6:_ZNK7KFormat11formatValueEdNS_4UnitEiNS_10UnitPrefixENS_17BinaryUnitDialectE
libKF6CoreAddons.so.6:_ZNK7KFormat11formatValueEdRK7QStringiNS_10UnitPrefixE
libKF6CoreAddons.so.6:_ZNK7KFormat11formatValueEdRK7QStringiNS_10UnitPrefixENS_17BinaryUnitDialectE
libKF6CoreAddons.so.6:_ZNK7KFormat14formatByteSizeEdiNS_17BinaryUnitDialectENS_15BinarySizeUnitsE
libKF6CoreAddons.so.6:_ZNK7KFormat14formatDistanceEd6QFlagsINS_20DistanceFormatOptionEE
libKF6CoreAddons.so.6:_ZNK7KFormat14formatDurationEy6QFlagsINS_20DurationFormatOptionEE
libKF6CoreAddons.so.6:_ZNK7KFormat18formatRelativeDateERK5QDateN7QLocale10FormatTypeE
libKF6CoreAddons.so.6:_ZNK7KFormat21formatDecimalDurationEyi
libKF6CoreAddons.so.6:_ZNK7KFormat22formatRelativeDateTimeERK9QDateTimeN7QLocale10FormatTypeE
libKF6CoreAddons.so.6:_ZNK7KFormat22formatSpelloutDurationEy
libKF6CoreAddons.so.6:_ZNK8KProcess10metaObjectEv
libKF6CoreAddons.so.6:_ZNK8KProcess17outputChannelModeEv
libKF6CoreAddons.so.6:_ZNK8KProcess7programEv
libKF6CoreAddons.so.6:_ZNK9KDirWatch10metaObjectEv
libKF6CoreAddons.so.6:_ZNK9KDirWatch14internalMethodEv
libKF6CoreAddons.so.6:_ZNK9KDirWatch5ctimeERK7QString
libKF6CoreAddons.so.6:_ZNK9KDirWatch8containsERK7QString
libKF6CoreAddons.so.6:_ZTI13KAutoSaveFile
libKF6CoreAddons.so.6:_ZTI13KCompositeJob
libKF6CoreAddons.so.6:_ZTI14KJobUiDelegate
libKF6CoreAddons.so.6:_ZTI14KNetworkMounts
libKF6CoreAddons.so.6:_ZTI14KPluginFactory
libKF6CoreAddons.so.6:_ZTI14KSignalHandler
libKF6CoreAddons.so.6:_ZTI17KListOpenFilesJob
libKF6CoreAddons.so.6:_ZTI18KCharMacroExpander
libKF6CoreAddons.so.6:_ZTI18KMacroExpanderBase
libKF6CoreAddons.so.6:_ZTI18KWordMacroExpander
libKF6CoreAddons.so.6:_ZTI20KJobTrackerInterface
libKF6CoreAddons.so.6:_ZTI24KSystemClockSkewNotifier
libKF6CoreAddons.so.6:_ZTI4KJob
libKF6CoreAddons.so.6:_ZTI8KProcess
libKF6CoreAddons.so.6:_ZTI9KDirWatch
libKF6CoreAddons.so.6:_ZTS13KAutoSaveFile
libKF6CoreAddons.so.6:_ZTS13KCompositeJob
libKF6CoreAddons.so.6:_ZTS14KJobUiDelegate
libKF6CoreAddons.so.6:_ZTS14KNetworkMounts
libKF6CoreAddons.so.6:_ZTS14KPluginFactory
libKF6CoreAddons.so.6:_ZTS14KSignalHandler
libKF6CoreAddons.so.6:_ZTS17KListOpenFilesJob
libKF6CoreAddons.so.6:_ZTS18KCharMacroExpander
libKF6CoreAddons.so.6:_ZTS18KMacroExpanderBase
libKF6CoreAddons.so.6:_ZTS18KWordMacroExpander
libKF6CoreAddons.so.6:_ZTS20KJobTrackerInterface
libKF6CoreAddons.so.6:_ZTS24KSystemClockSkewNotifier
libKF6CoreAddons.so.6:_ZTS4KJob
libKF6CoreAddons.so.6:_ZTS8KProcess
libKF6CoreAddons.so.6:_ZTS9KDirWatch
libKF6CoreAddons.so.6:_ZTV13KAutoSaveFile
libKF6CoreAddons.so.6:_ZTV13KCompositeJob
libKF6CoreAddons.so.6:_ZTV14KJobUiDelegate
libKF6CoreAddons.so.6:_ZTV14KNetworkMounts
libKF6CoreAddons.so.6:_ZTV14KPluginFactory
libKF6CoreAddons.so.6:_ZTV14KSignalHandler
libKF6CoreAddons.so.6:_ZTV17KListOpenFilesJob
libKF6CoreAddons.so.6:_ZTV18KCharMacroExpander
libKF6CoreAddons.so.6:_ZTV18KMacroExpanderBase
libKF6CoreAddons.so.6:_ZTV18KWordMacroExpander
libKF6CoreAddons.so.6:_ZTV20KJobTrackerInterface
libKF6CoreAddons.so.6:_ZTV24KSystemClockSkewNotifier
libKF6CoreAddons.so.6:_ZTV4KJob
libKF6CoreAddons.so.6:_ZTV8KProcess
libKF6CoreAddons.so.6:_ZTV9KDirWatch
libKF6CoreAddons.so.6:_Zls6QDebugRK15KPluginMetaData
libKF6CoreAddons.so.6:_Zls6QDebugRK9KDirWatch
libkcoreaddonsplugin.so:_Z37qml_register_types_org_kde_coreaddonsv
libkcoreaddonsplugin.so:qt_plugin_instance
libkcoreaddonsplugin.so:qt_plugin_query_metadata_v2
