libraw.so.20:.gomp_critical_user_dataupdate
libraw.so.20:J
libraw.so.20:JS
libraw.so.20:_Z12crxParamInitR13libraw_memmgrPP12CrxBandParammmjjijP26LibRaw_abstract_datastream
libraw.so.20:_Z13crxDecodeLineP12CrxBandParam
libraw.so.20:_Z13crxDecodeLineP12CrxBandParamPh
libraw.so.20:_Z14ifd_size_t_cmpPKvS0_
libraw.so.20:_Z15crxHorizontal53PiS_P19CrxWaveletTransformj
libraw.so.20:_Z16crxDecodeTopLineP12CrxBandParam
libraw.so.20:_Z16crxFreeImageDataP8CrxImage
libraw.so.20:_Z17crxSetupImageDataP17crx_data_header_tP8CrxImagePsmjiPh
libraw.so.20:_Z18crxFreeSubbandDataP8CrxImageP12CrxPlaneComp
libraw.so.20:_Z19crxConvertPlaneLineP8CrxImageiiiPii
libraw.so.20:_Z19crxReadImageHeadersP17crx_data_header_tP8CrxImagePhi
libraw.so.20:_Z19crxSetupSubbandDataP8CrxImageP12CrxPlaneCompPK7CrxTilej
libraw.so.20:_Z20crxDecodeLineRoundedP12CrxBandParam
libraw.so.20:_Z21crxIdwt53FilterDecodeP12CrxPlaneCompi
libraw.so.20:_Z21crxReadSubbandHeadersP17crx_data_header_tP8CrxImageP7CrxTileP12CrxPlaneCompPPhPi
libraw.so.20:_Z22crxIdwt53FilterGetLineP12CrxPlaneCompi
libraw.so.20:_Z23crxDecodeTopLineRoundedP12CrxBandParam
libraw.so.20:_Z24crxIdwt53FilterTransformP12CrxPlaneCompj
libraw.so.20:_Z25crxIdwt53FilterInitializeP12CrxPlaneCompi
libraw.so.20:_Z26crxDecodeLineNoRefPrevLineP12CrxBandParam
libraw.so.20:_Z29crxDecodeTopLineNoRefPrevLineP12CrxBandParam
libraw.so.20:_Z30crxDecodeLineWithIQuantizationP10CrxSubband
libraw.so.20:_ZN16LibRaw_constants11xyzd50_srgbE
libraw.so.20:_ZN16LibRaw_constants12prophoto_rgbE
libraw.so.20:_ZN16LibRaw_constants7rgb_rgbE
libraw.so.20:_ZN16LibRaw_constants7xyz_rgbE
libraw.so.20:_ZN16LibRaw_constants8aces_rgbE
libraw.so.20:_ZN16LibRaw_constants8wide_rgbE
libraw.so.20:_ZN16LibRaw_constants9adobe_rgbE
libraw.so.20:_ZN16LibRaw_constants9d65_whiteE
libraw.so.20:_ZN21pana_cs6_page_decoder9read_pageEv
libraw.so.20:_ZN22LibRaw_file_datastream15make_jas_streamEv
libraw.so.20:_ZN22LibRaw_file_datastream3eofEv
libraw.so.20:_ZN22LibRaw_file_datastream4getsEPci
libraw.so.20:_ZN22LibRaw_file_datastream4readEPvmm
libraw.so.20:_ZN22LibRaw_file_datastream4seekExi
libraw.so.20:_ZN22LibRaw_file_datastream4tellEv
libraw.so.20:_ZN22LibRaw_file_datastream5fnameEv
libraw.so.20:_ZN22LibRaw_file_datastream5validEv
libraw.so.20:_ZN22LibRaw_file_datastream9scanf_oneEPKcPv
libraw.so.20:_ZN22LibRaw_file_datastreamC1EPKc
libraw.so.20:_ZN22LibRaw_file_datastreamC2EPKc
libraw.so.20:_ZN22LibRaw_file_datastreamD0Ev
libraw.so.20:_ZN22LibRaw_file_datastreamD1Ev
libraw.so.20:_ZN22LibRaw_file_datastreamD2Ev
libraw.so.20:_ZN24LibRaw_buffer_datastream15make_jas_streamEv
libraw.so.20:_ZN24LibRaw_buffer_datastream3eofEv
libraw.so.20:_ZN24LibRaw_buffer_datastream4getsEPci
libraw.so.20:_ZN24LibRaw_buffer_datastream4readEPvmm
libraw.so.20:_ZN24LibRaw_buffer_datastream4seekExi
libraw.so.20:_ZN24LibRaw_buffer_datastream4tellEv
libraw.so.20:_ZN24LibRaw_buffer_datastream5validEv
libraw.so.20:_ZN24LibRaw_buffer_datastream8jpeg_srcEPv
libraw.so.20:_ZN24LibRaw_buffer_datastream9scanf_oneEPKcPv
libraw.so.20:_ZN24LibRaw_buffer_datastreamC1EPvm
libraw.so.20:_ZN24LibRaw_buffer_datastreamC2EPvm
libraw.so.20:_ZN24LibRaw_buffer_datastreamD0Ev
libraw.so.20:_ZN24LibRaw_buffer_datastreamD1Ev
libraw.so.20:_ZN24LibRaw_buffer_datastreamD2Ev
libraw.so.20:_ZN25LibRaw_bigfile_datastream15make_jas_streamEv
libraw.so.20:_ZN25LibRaw_bigfile_datastream3eofEv
libraw.so.20:_ZN25LibRaw_bigfile_datastream4getsEPci
libraw.so.20:_ZN25LibRaw_bigfile_datastream4readEPvmm
libraw.so.20:_ZN25LibRaw_bigfile_datastream4seekExi
libraw.so.20:_ZN25LibRaw_bigfile_datastream4tellEv
libraw.so.20:_ZN25LibRaw_bigfile_datastream5fnameEv
libraw.so.20:_ZN25LibRaw_bigfile_datastream5validEv
libraw.so.20:_ZN25LibRaw_bigfile_datastream9scanf_oneEPKcPv
libraw.so.20:_ZN25LibRaw_bigfile_datastreamC1EPKc
libraw.so.20:_ZN25LibRaw_bigfile_datastreamC2EPKc
libraw.so.20:_ZN25LibRaw_bigfile_datastreamD0Ev
libraw.so.20:_ZN25LibRaw_bigfile_datastreamD1Ev
libraw.so.20:_ZN25LibRaw_bigfile_datastreamD2Ev
libraw.so.20:_ZN26LibRaw_abstract_datastream8jpeg_srcEPv
libraw.so.20:_ZN3DHT10make_glineEi
libraw.so.20:_ZN3DHT11make_greensEv
libraw.so.20:_ZN3DHT11make_rbdiagEi
libraw.so.20:_ZN3DHT12make_hv_dirsEv
libraw.so.20:_ZN3DHT12restore_hotsEv
libraw.so.20:_ZN3DHT13copy_to_imageEv
libraw.so.20:_ZN3DHT13make_hv_dlineEi
libraw.so.20:_ZN3DHT14make_diag_dirsEv
libraw.so.20:_ZN3DHT14refine_hv_dirsEii
libraw.so.20:_ZN3DHT15illustrate_dirsEv
libraw.so.20:_ZN3DHT15make_diag_dlineEi
libraw.so.20:_ZN3DHT15refine_ihv_dirsEi
libraw.so.20:_ZN3DHT16illustrate_dlineEi
libraw.so.20:_ZN3DHT16refine_diag_dirsEii
libraw.so.20:_ZN3DHT17refine_idiag_dirsEi
libraw.so.20:_ZN3DHT7make_rbEv
libraw.so.20:_ZN3DHT9hide_hotsEv
libraw.so.20:_ZN3DHT9make_rbhvEi
libraw.so.20:_ZN3DHTC1ER6LibRaw
libraw.so.20:_ZN3DHTC2ER6LibRaw
libraw.so.20:_ZN3DHTD1Ev
libraw.so.20:_ZN3DHTD2Ev
libraw.so.20:_ZN4AAHD11make_ahd_rbEv
libraw.so.20:_ZN4AAHD12evaluate_ahdEv
libraw.so.20:_ZN4AAHD13combine_imageEv
libraw.so.20:_ZN4AAHD14make_ahd_glineEi
libraw.so.20:_ZN4AAHD14make_ahd_rb_hvEi
libraw.so.20:_ZN4AAHD14refine_hv_dirsEii
libraw.so.20:_ZN4AAHD14refine_hv_dirsEv
libraw.so.20:_ZN4AAHD15illustrate_dirsEv
libraw.so.20:_ZN4AAHD15make_ahd_greensEv
libraw.so.20:_ZN4AAHD15refine_ihv_dirsEi
libraw.so.20:_ZN4AAHD16illustrate_dlineEi
libraw.so.20:_ZN4AAHD16make_ahd_rb_lastEi
libraw.so.20:_ZN4AAHD8gammaLUTE
libraw.so.20:_ZN4AAHD9hide_hotsEv
libraw.so.20:_ZN4AAHD9yuv_coeffE
libraw.so.20:_ZN4AAHDC1ER6LibRaw
libraw.so.20:_ZN4AAHDC2ER6LibRaw
libraw.so.20:_ZN4AAHDD1Ev
libraw.so.20:_ZN4AAHDD2Ev
libraw.so.20:_ZN6LibRaw10aRGB_coeffEPA3_d
libraw.so.20:_ZN6LibRaw10apply_tiffEv
libraw.so.20:_ZN6LibRaw10bad_pixelsEPKc
libraw.so.20:_ZN6LibRaw10cameraListEv
libraw.so.20:_ZN6LibRaw10canon_s2isEv
libraw.so.20:_ZN6LibRaw10copy_bayerEPtS0_
libraw.so.20:_ZN6LibRaw10crxLoadRawEv
libraw.so.20:_ZN6LibRaw10dcb_color2EPA3_f
libraw.so.20:_ZN6LibRaw10dcb_color3EPA3_f
libraw.so.20:_ZN6LibRaw10dcb_decideEPA3_fS1_
libraw.so.20:_ZN6LibRaw10fbdd_greenEv
libraw.so.20:_ZN6LibRaw10fill_holesEi
libraw.so.20:_ZN6LibRaw10find_greenEiiii
libraw.so.20:_ZN6LibRaw10flip_indexEii
libraw.so.20:_ZN6LibRaw10free_imageEv
libraw.so.20:_ZN6LibRaw10getbithuffEiPt
libraw.so.20:_ZN6LibRaw10jpeg_thumbEv
libraw.so.20:_ZN6LibRaw10lch_to_rgbEPA3_d
libraw.so.20:_ZN6LibRaw10ljpeg_diffEPt
libraw.so.20:_ZN6LibRaw10ljpeg_idctEP5jhead
libraw.so.20:_ZN6LibRaw10minolta_z2Ev
libraw.so.20:_ZN6LibRaw10nikon_3700Ev
libraw.so.20:_ZN6LibRaw10nikon_e995Ev
libraw.so.20:_ZN6LibRaw10open_bayerEPhjtttttthhjjj
libraw.so.20:_ZN6LibRaw10parse_ciffEiii
libraw.so.20:_ZN6LibRaw10parse_cineEv
libraw.so.20:_ZN6LibRaw10parse_exifEi
libraw.so.20:_ZN6LibRaw10parse_fujiEi
libraw.so.20:_ZN6LibRaw10parse_jpegEi
libraw.so.20:_ZN6LibRaw10parse_riffEv
libraw.so.20:_ZN6LibRaw10parse_smalEii
libraw.so.20:_ZN6LibRaw10parse_tiffEi
libraw.so.20:_ZN6LibRaw10rgb_to_lchEPA3_d
libraw.so.20:_ZN6LibRaw10romm_coeffEPA3_f
libraw.so.20:_ZN6LibRaw10strcasestrEPcPKc
libraw.so.20:_ZN6LibRaw10trimSpacesEPc
libraw.so.20:_ZN6LibRaw10try_dngsdkEv
libraw.so.20:_ZN6LibRaw11adobe_coeffEjPKci
libraw.so.20:_ZN6LibRaw11cameraCountEv
libraw.so.20:_ZN6LibRaw11checkCancelEv
libraw.so.20:_ZN6LibRaw11dcb_nyquistEv
libraw.so.20:_ZN6LibRaw11fuji_rotateEv
libraw.so.20:_ZN6LibRaw11gamma_curveEddii
libraw.so.20:_ZN6LibRaw11have_fpdataEv
libraw.so.20:_ZN6LibRaw11layer_thumbEv
libraw.so.20:_ZN6LibRaw11ljpeg_startEP5jheadi
libraw.so.20:_ZN6LibRaw11nikon_e2100Ev
libraw.so.20:_ZN6LibRaw11open_bufferEPvm
libraw.so.20:_ZN6LibRaw11ph1_bithuffEiPt
libraw.so.20:_ZN6LibRaw11ppm16_thumbEv
libraw.so.20:_ZN6LibRaw11read_shortsEPtj
libraw.so.20:_ZN6LibRaw11strprogressE15LibRaw_progress
libraw.so.20:_ZN6LibRaw12Oly_wb_list1E
libraw.so.20:_ZN6LibRaw12Oly_wb_list2E
libraw.so.20:_ZN6LibRaw12capabilitiesEv
libraw.so.20:_ZN6LibRaw12cubic_splineEPKiS1_i
libraw.so.20:_ZN6LibRaw12int_to_floatEi
libraw.so.20:_ZN6LibRaw12is_canon_600Ev
libraw.so.20:_ZN6LibRaw12linear_tableEj
libraw.so.20:_ZN6LibRaw12make_decoderEPKh
libraw.so.20:_ZN6LibRaw12parseSonySR2EPhjjj
libraw.so.20:_ZN6LibRaw12parseSonySRFEj
libraw.so.20:_ZN6LibRaw12parse_rolleiEv
libraw.so.20:_ZN6LibRaw12raw2image_exEi
libraw.so.20:_ZN6LibRaw12rollei_thumbEv
libraw.so.20:_ZN6LibRaw12scale_colorsEv
libraw.so.20:_ZN6LibRaw12set_dng_hostEPv
libraw.so.20:_ZN6LibRaw12simple_coeffEi
libraw.so.20:_ZN6LibRaw12sony_decryptEPjiii
libraw.so.20:_ZN6LibRaw12try_rawspeedEv
libraw.so.20:_ZN6LibRaw12unpack_thumbEv
libraw.so.20:_ZN6LibRaw13Canon_wbi2stdE
libraw.so.20:_ZN6LibRaw13Fuji_wb_list1E
libraw.so.20:_ZN6LibRaw13Fuji_wb_list2E
libraw.so.20:_ZN6LibRaw13apply_profileEPKcS1_
libraw.so.20:_ZN6LibRaw13cam_xyz_coeffEPA4_fPA3_d
libraw.so.20:_ZN6LibRaw13dcraw_processEv
libraw.so.20:_ZN6LibRaw13get_timestampEi
libraw.so.20:_ZN6LibRaw13hat_transformEPfS0_iii
libraw.so.20:_ZN6LibRaw13is_jpeg_thumbEv
libraw.so.20:_ZN6LibRaw13is_nikon_srawEv
libraw.so.20:_ZN6LibRaw13median_filterEv
libraw.so.20:_ZN6LibRaw13parse_kyoceraEv
libraw.so.20:_ZN6LibRaw13parse_minoltaEi
libraw.so.20:_ZN6LibRaw13parse_redcineEv
libraw.so.20:_ZN6LibRaw13pseudoinverseEPA3_dS1_i
libraw.so.20:_ZN6LibRaw13remove_zeroesEv
libraw.so.20:_ZN6LibRaw13setCancelFlagEv
libraw.so.20:_ZN6LibRaw13sony_load_rawEv
libraw.so.20:_ZN6LibRaw13sraw_midpointEv
libraw.so.20:_ZN6LibRaw13versionNumberEv
libraw.so.20:_ZN6LibRaw14PentaxLensInfoEyj
libraw.so.20:_ZN6LibRaw14adjust_maximumEv
libraw.so.20:_ZN6LibRaw14canon_load_rawEv
libraw.so.20:_ZN6LibRaw14convert_to_rgbEv
libraw.so.20:_ZN6LibRaw14copy_mem_imageEPvii
libraw.so.20:_ZN6LibRaw14crxDecodePlaneEPvj
libraw.so.20:_ZN6LibRaw14dcb_color_fullEv
libraw.so.20:_ZN6LibRaw14dcb_correctionEv
libraw.so.20:_ZN6LibRaw14dcb_refinementEv
libraw.so.20:_ZN6LibRaw14green_matchingEv
libraw.so.20:_ZN6LibRaw14nikon_load_rawEv
libraw.so.20:_ZN6LibRaw14nokia_load_rawEv
libraw.so.20:_ZN6LibRaw14parse_broadcomEv
libraw.so.20:_ZN6LibRaw14parse_sinar_iaEv
libraw.so.20:_ZN6LibRaw14parse_tiff_ifdEi
libraw.so.20:_ZN6LibRaw14selectCRXTrackEs
libraw.so.20:_ZN6LibRaw14subtract_blackEv
libraw.so.20:_ZN6LibRaw14write_ppm_tiffEv
libraw.so.20:_ZN6LibRaw15Canon_WBpresetsEii
libraw.so.20:_ZN6LibRaw15Nikon_NRW_WBtagEii
libraw.so.20:_ZN6LibRaw15Pentax_wb_list1E
libraw.so.20:_ZN6LibRaw15Pentax_wb_list2E
libraw.so.20:_ZN6LibRaw15ahd_interpolateEv
libraw.so.20:_ZN6LibRaw15canon_600_coeffEv
libraw.so.20:_ZN6LibRaw15canon_600_colorEPii
libraw.so.20:_ZN6LibRaw15ciff_block_1030Ev
libraw.so.20:_ZN6LibRaw15clearCancelFlagEv
libraw.so.20:_ZN6LibRaw15crw_init_tablesEjPPt
libraw.so.20:_ZN6LibRaw15dcb_correction2Ev
libraw.so.20:_ZN6LibRaw15dcraw_clear_memEP24libraw_processed_image_t
libraw.so.20:_ZN6LibRaw15dht_interpolateEv
libraw.so.20:_ZN6LibRaw15fbdd_correctionEv
libraw.so.20:_ZN6LibRaw15init_fuji_blockEP21fuji_compressed_blockPK22fuji_compressed_paramsxj
libraw.so.20:_ZN6LibRaw15init_fuji_comprEP22fuji_compressed_params
libraw.so.20:_ZN6LibRaw15is_coolscan_nefEv
libraw.so.20:_ZN6LibRaw15is_curve_linearEv
libraw.so.20:_ZN6LibRaw15lin_interpolateEv
libraw.so.20:_ZN6LibRaw15nikon_load_srawEv
libraw.so.20:_ZN6LibRaw15open_datastreamEP26LibRaw_abstract_datastream
libraw.so.20:_ZN6LibRaw15packed_load_rawEv
libraw.so.20:_ZN6LibRaw15parseHassyModelEv
libraw.so.20:_ZN6LibRaw15parse_kodak_ifdEi
libraw.so.20:_ZN6LibRaw15parse_makernoteEii
libraw.so.20:_ZN6LibRaw15parse_phase_oneEi
libraw.so.20:_ZN6LibRaw15pentax_load_rawEv
libraw.so.20:_ZN6LibRaw15ppg_interpolateEv
libraw.so.20:_ZN6LibRaw15pre_interpolateEv
libraw.so.20:_ZN6LibRaw15raw2image_startEv
libraw.so.20:_ZN6LibRaw15rollei_load_rawEv
libraw.so.20:_ZN6LibRaw15vng_interpolateEv
libraw.so.20:_ZN6LibRaw15wavelet_denoiseEv
libraw.so.20:_ZN6LibRaw16KodakIllumMatrixEjPf
libraw.so.20:_ZN6LibRaw16Kodak_DCR_WBtagsEiji
libraw.so.20:_ZN6LibRaw16Kodak_KDC_WBtagsEii
libraw.so.20:_ZN6LibRaw16Sony_SR2_wb_listE
libraw.so.20:_ZN6LibRaw16Sony_SRF_wb_listE
libraw.so.20:_ZN6LibRaw16aahd_interpolateEv
libraw.so.20:_ZN6LibRaw16adobe_copy_pixelEjjPPt
libraw.so.20:_ZN6LibRaw16blend_highlightsEv
libraw.so.20:_ZN6LibRaw16fbdd_correction2EPA3_d
libraw.so.20:_ZN6LibRaw16fuji_decode_loopEPK22fuji_compressed_paramsiPxPj
libraw.so.20:_ZN6LibRaw16get_decoder_infoEP21libraw_decoder_info_t
libraw.so.20:_ZN6LibRaw16guess_byte_orderEi
libraw.so.20:_ZN6LibRaw16make_decoder_refEPPKh
libraw.so.20:_ZN6LibRaw16nikon_read_curveEv
libraw.so.20:_ZN6LibRaw16olympus_load_rawEv
libraw.so.20:_ZN6LibRaw16parseLeicaLensIDEv
libraw.so.20:_ZN6LibRaw16parse_gps_librawEi
libraw.so.20:_ZN6LibRaw16parse_thumb_noteEijj
libraw.so.20:_ZN6LibRaw16redcine_load_rawEv
libraw.so.20:_ZN6LibRaw16samsung_load_rawEv
libraw.so.20:_ZN6LibRaw16setMakeFromIndexEj
libraw.so.20:_ZN6LibRaw16smal_v6_load_rawEv
libraw.so.20:_ZN6LibRaw16smal_v9_load_rawEv
libraw.so.20:_ZN6LibRaw16valid_for_dngsdkEv
libraw.so.20:_ZN6LibRaw17Canon_WBCTpresetsEs
libraw.so.20:_ZN6LibRaw17Sony_SR2_wb_list1E
libraw.so.20:_ZN6LibRaw17broadcom_load_rawEv
libraw.so.20:_ZN6LibRaw17canon_600_auto_wbEv
libraw.so.20:_ZN6LibRaw17canon_600_correctEv
libraw.so.20:_ZN6LibRaw17canon_has_lowbitsEv
libraw.so.20:_ZN6LibRaw17convertFloatToIntEfff
libraw.so.20:_ZN6LibRaw17crxLoadDecodeLoopEPvi
libraw.so.20:_ZN6LibRaw17fuji_decode_stripEPK22fuji_compressed_paramsixj
libraw.so.20:_ZN6LibRaw17is_floating_pointEv
libraw.so.20:_ZN6LibRaw17jpeg_thumb_writerEP8_IO_FILEPci
libraw.so.20:_ZN6LibRaw17leaf_hdr_load_rawEv
libraw.so.20:_ZN6LibRaw17phase_one_correctEv
libraw.so.20:_ZN6LibRaw17remove_caseSubstrEPcS0_
libraw.so.20:_ZN6LibRaw17samsung2_load_rawEv
libraw.so.20:_ZN6LibRaw17samsung3_load_rawEv
libraw.so.20:_ZN6LibRaw17scale_colors_loopEPf
libraw.so.20:_ZN6LibRaw17sony_arq_load_rawEv
libraw.so.20:_ZN6LibRaw17sony_arw_load_rawEv
libraw.so.20:_ZN6LibRaw17unpacked_load_rawEv
libraw.so.20:_ZN6LibRaw18GetNormalizedModelEv
libraw.so.20:_ZN6LibRaw18border_interpolateEi
libraw.so.20:_ZN6LibRaw18canon_600_fixed_wbEi
libraw.so.20:_ZN6LibRaw18canon_600_load_rawEv
libraw.so.20:_ZN6LibRaw18canon_rmf_load_rawEv
libraw.so.20:_ZN6LibRaw18copy_line_to_bayerEP21fuji_compressed_blockiii
libraw.so.20:_ZN6LibRaw18crop_masked_pixelsEv
libraw.so.20:_ZN6LibRaw18dcb_copy_to_bufferEPA3_f
libraw.so.20:_ZN6LibRaw18dcraw_thumb_writerEPKc
libraw.so.20:_ZN6LibRaw18eight_bit_load_rawEv
libraw.so.20:_ZN6LibRaw18find_ifd_by_offsetEi
libraw.so.20:_ZN6LibRaw18fix_after_rawspeedEi
libraw.so.20:_ZN6LibRaw18kodak_262_load_rawEv
libraw.so.20:_ZN6LibRaw18kodak_65000_decodeEPsi
libraw.so.20:_ZN6LibRaw18kodak_rgb_load_rawEv
libraw.so.20:_ZN6LibRaw18kodak_thumb_loaderEv
libraw.so.20:_ZN6LibRaw18ljpeg_row_unrolledEiP5jhead
libraw.so.20:_ZN6LibRaw18lossy_dng_load_rawEv
libraw.so.20:_ZN6LibRaw18nikon_yuv_load_rawEv
libraw.so.20:_ZN6LibRaw18panasonic_load_rawEv
libraw.so.20:_ZN6LibRaw18parseLeicaLensNameEj
libraw.so.20:_ZN6LibRaw18parseSonyLensType2Ehh
libraw.so.20:_ZN6LibRaw18parse_exif_interopEi
libraw.so.20:_ZN6LibRaw18phase_one_load_rawEv
libraw.so.20:_ZN6LibRaw18process_Hassy_LensEi
libraw.so.20:_ZN6LibRaw18recover_highlightsEv
libraw.so.20:_ZN6LibRaw18recycle_datastreamEv
libraw.so.20:_ZN6LibRaw18sony_arw2_load_rawEv
libraw.so.20:_ZN6LibRaw18xtrans_interpolateEi
libraw.so.20:_ZN6LibRaw19canon_sraw_load_rawEv
libraw.so.20:_ZN6LibRaw19convert_to_rgb_loopEPA4_f
libraw.so.20:_ZN6LibRaw19copy_fuji_uncroppedEPtS0_
libraw.so.20:_ZN6LibRaw19copy_line_to_xtransEP21fuji_compressed_blockiii
libraw.so.20:_ZN6LibRaw19crxParseImageHeaderEPhi
libraw.so.20:_ZN6LibRaw19fuji_14bit_load_rawEv
libraw.so.20:_ZN6LibRaw19hasselblad_load_rawEv
libraw.so.20:_ZN6LibRaw19kodak_c330_load_rawEv
libraw.so.20:_ZN6LibRaw19kodak_c603_load_rawEv
libraw.so.20:_ZN6LibRaw19kodak_jpeg_load_rawEv
libraw.so.20:_ZN6LibRaw19kodak_radc_load_rawEv
libraw.so.20:_ZN6LibRaw19packed_dng_load_rawEv
libraw.so.20:_ZN6LibRaw19parseEpsonMakernoteEiij
libraw.so.20:_ZN6LibRaw19parseFujiMakernotesEjjjj
libraw.so.20:_ZN6LibRaw19parseLeicaMakernoteEiij
libraw.so.20:_ZN6LibRaw19parseNikonMakernoteEiij
libraw.so.20:_ZN6LibRaw19parseSigmaMakernoteEiij
libraw.so.20:_ZN6LibRaw19parseSonyMakernotesEijjjjRPhRtS1_S2_S1_S2_S1_S2_S1_S2_S1_S2_S1_S2_S1_S2_S1_S2_
libraw.so.20:_ZN6LibRaw19process_Sony_0x0116EPhty
libraw.so.20:_ZN6LibRaw19process_Sony_0x2010EPht
libraw.so.20:_ZN6LibRaw19process_Sony_0x9050EPhty
libraw.so.20:_ZN6LibRaw19process_Sony_0x9400EPhty
libraw.so.20:_ZN6LibRaw19process_Sony_0x9402EPht
libraw.so.20:_ZN6LibRaw19process_Sony_0x9403EPht
libraw.so.20:_ZN6LibRaw19process_Sony_0x9406EPht
libraw.so.20:_ZN6LibRaw19process_Sony_0x940cEPht
libraw.so.20:_ZN6LibRaw19process_Sony_0x940eEPhty
libraw.so.20:_ZN6LibRaw19setPhaseOneFeaturesEy
libraw.so.20:_ZN6LibRaw19setSonyBodyFeaturesEy
libraw.so.20:_ZN6LibRaw19smal_decode_segmentEPA2_ji
libraw.so.20:_ZN6LibRaw19xtrans_decode_blockEP21fuji_compressed_blockPK22fuji_compressed_paramsi
libraw.so.20:_ZN6LibRaw20Canon_CameraSettingsEj
libraw.so.20:_ZN6LibRaw20cameramakeridx2makerEj
libraw.so.20:_ZN6LibRaw20dcraw_make_mem_imageEPi
libraw.so.20:_ZN6LibRaw20dcraw_make_mem_thumbEPi
libraw.so.20:_ZN6LibRaw20deflate_dng_load_rawEv
libraw.so.20:_ZN6LibRaw20imacon_full_load_rawEv
libraw.so.20:_ZN6LibRaw20kodak_65000_load_rawEv
libraw.so.20:_ZN6LibRaw20kodak_dc120_load_rawEv
libraw.so.20:_ZN6LibRaw20kodak_thumb_load_rawEv
libraw.so.20:_ZN6LibRaw20kodak_ycbcr_load_rawEv
libraw.so.20:_ZN6LibRaw20lin_interpolate_loopEPii
libraw.so.20:_ZN6LibRaw20nikon_14bit_load_rawEv
libraw.so.20:_ZN6LibRaw20panasonicC6_load_rawEv
libraw.so.20:_ZN6LibRaw20panasonicC7_load_rawEv
libraw.so.20:_ZN6LibRaw20parseCanonMakernotesEjjjj
libraw.so.20:_ZN6LibRaw20parseOlympus_RawInfoEjjjj
libraw.so.20:_ZN6LibRaw20parseRicohMakernotesEijjjj
libraw.so.20:_ZN6LibRaw20parse_custom_camerasEjP22libraw_custom_camera_tPPc
libraw.so.20:_ZN6LibRaw20phase_one_flat_fieldEii
libraw.so.20:_ZN6LibRaw20phase_one_load_raw_cEv
libraw.so.20:_ZN6LibRaw20processNikonLensDataEPhj
libraw.so.20:_ZN6LibRaw20setCanonBodyFeaturesEy
libraw.so.20:_ZN6LibRaw20setLeicaBodyFeaturesEi
libraw.so.20:_ZN6LibRaw20sinar_4shot_load_rawEv
libraw.so.20:_ZN6LibRaw20unpack_function_nameEv
libraw.so.20:_ZN6LibRaw21HassyRawFormat_idx2HREj
libraw.so.20:_ZN6LibRaw21_CanonConvertApertureEt
libraw.so.20:_ZN6LibRaw21crxConvertPlaneLineDfEPvi
libraw.so.20:_ZN6LibRaw21crxLoadFinalizeLoopE3EPvi
libraw.so.20:_ZN6LibRaw21dcraw_ppm_tiff_writerEPKc
libraw.so.20:_ZN6LibRaw21identify_finetune_dcrEPcii
libraw.so.20:_ZN6LibRaw21lossless_dng_load_rawEv
libraw.so.20:_ZN6LibRaw21parsePentaxMakernotesEijjjj
libraw.so.20:_ZN6LibRaw21parseSonyLensFeaturesEhh
libraw.so.20:_ZN6LibRaw21pentax_4shot_load_rawEv
libraw.so.20:_ZN6LibRaw21removeExcessiveSpacesEPc
libraw.so.20:_ZN6LibRaw21setPentaxBodyFeaturesEy
libraw.so.20:_ZN6LibRaw22SetStandardIlluminantsEjPKc
libraw.so.20:_ZN6LibRaw22adjust_sizes_info_onlyEv
libraw.so.20:_ZN6LibRaw22android_loose_load_rawEv
libraw.so.20:_ZN6LibRaw22android_tight_load_rawEv
libraw.so.20:_ZN6LibRaw22getOlympus_CameraType2Ev
libraw.so.20:_ZN6LibRaw22is_phaseone_compressedEv
libraw.so.20:_ZN6LibRaw22lossless_jpeg_load_rawEv
libraw.so.20:_ZN6LibRaw22minolta_rd175_load_rawEv
libraw.so.20:_ZN6LibRaw22parseAdobeRAFMakernoteEv
libraw.so.20:_ZN6LibRaw22parseOlympus_EquipmentEjjjj
libraw.so.20:_ZN6LibRaw22parseSamsungMakernotesEijjjj
libraw.so.20:_ZN6LibRaw22parse_makernote_0xc634Eiij
libraw.so.20:_ZN6LibRaw22processCanonCameraInfoEyPhjjj
libraw.so.20:_ZN6LibRaw22quicktake_100_load_rawEv
libraw.so.20:_ZN6LibRaw22remove_trailing_spacesEPcm
libraw.so.20:_ZN6LibRaw22setOlympusBodyFeaturesEy
libraw.so.20:_ZN6LibRaw22tagtype_dataunit_bytesE
libraw.so.20:_ZN6LibRaw23dcb_restore_from_bufferEPA3_f
libraw.so.20:_ZN6LibRaw23fuji_bayer_decode_blockEP21fuji_compressed_blockPK22fuji_compressed_paramsi
libraw.so.20:_ZN6LibRaw23nikon_coolscan_load_rawEv
libraw.so.20:_ZN6LibRaw23parseAdobePanoMakernoteEv
libraw.so.20:_ZN6LibRaw23set_rawspeed_camerafileEPc
libraw.so.20:_ZN6LibRaw23subtract_black_internalEv
libraw.so.20:_ZN6LibRaw24fuji_compressed_load_rawEv
libraw.so.20:_ZN6LibRaw24hasselblad_full_load_rawEv
libraw.so.20:_ZN6LibRaw24identify_finetune_pentaxEv
libraw.so.20:_ZN6LibRaw24phase_one_subtract_blackEPtS0_
libraw.so.20:_ZN6LibRaw25phase_one_free_tempbufferEv
libraw.so.20:_ZN6LibRaw25unpacked_load_raw_FujiDBPEv
libraw.so.20:_ZN6LibRaw26Canon_G9_linenums_2_StdWBiE
libraw.so.20:_ZN6LibRaw26unpacked_load_raw_reversedEv
libraw.so.20:_ZN6LibRaw27Canon_D30_linenums_2_StdWBiE
libraw.so.20:_ZN6LibRaw27identify_process_dng_fieldsEv
libraw.so.20:_ZN6LibRaw27parseOlympus_CameraSettingsEijjjj
libraw.so.20:_ZN6LibRaw28getOlympus_SensorTemperatureEj
libraw.so.20:_ZN6LibRaw28nikon_load_padded_packed_rawEv
libraw.so.20:_ZN6LibRaw28parseLeicaInternalBodySerialEj
libraw.so.20:_ZN6LibRaw28parseOlympus_ImageProcessingEjjjj
libraw.so.20:_ZN6LibRaw28parse_fuji_compressed_headerEv
libraw.so.20:_ZN6LibRaw28vc5_dng_load_raw_placeholderEv
libraw.so.20:_ZN6LibRaw29ahd_interpolate_green_h_and_vEiiPA512_A512_A3_t
libraw.so.20:_ZN6LibRaw29identify_finetune_by_filesizeEi
libraw.so.20:_ZN6LibRaw29nikon_load_striped_packed_rawEv
libraw.so.20:_ZN6LibRaw29phase_one_allocate_tempbufferEv
libraw.so.20:_ZN6LibRaw30float_dng_load_raw_placeholderEv
libraw.so.20:_ZN6LibRaw30unpacked_load_raw_fuji_f700s20Ev
libraw.so.20:_ZN6LibRaw37ahd_interpolate_build_homogeneity_mapEiiPA512_A512_A3_sPA512_A2_c
libraw.so.20:_ZN6LibRaw3dcbEii
libraw.so.20:_ZN6LibRaw41Canon_KeyIsZero_Len2048_linenums_2_StdWBiE
libraw.so.20:_ZN6LibRaw42ahd_interpolate_combine_homogeneous_pixelsEiiPA512_A512_A3_tPA512_A2_c
libraw.so.20:_ZN6LibRaw43Canon_KeyIs0x0410_Len2048_linenums_2_StdWBiE
libraw.so.20:_ZN6LibRaw43Canon_KeyIs0x0410_Len3072_linenums_2_StdWBiE
libraw.so.20:_ZN6LibRaw45ahd_interpolate_r_and_b_and_convert_to_cielabEiiPA512_A512_A3_tPA512_A512_A3_s
libraw.so.20:_ZN6LibRaw4fbddEi
libraw.so.20:_ZN6LibRaw4fcolEii
libraw.so.20:_ZN6LibRaw4freeEPv
libraw.so.20:_ZN6LibRaw4get2Ev
libraw.so.20:_ZN6LibRaw4get4Ev
libraw.so.20:_ZN6LibRaw52ahd_interpolate_r_and_b_in_rgb_and_convert_to_cielabEiiPA512_A3_tPA512_A3_s
libraw.so.20:_ZN6LibRaw5p1rawEjj
libraw.so.20:_ZN6LibRaw5sget2EPh
libraw.so.20:_ZN6LibRaw5sget4EPh
libraw.so.20:_ZN6LibRaw6callocEmm
libraw.so.20:_ZN6LibRaw6cielabEPtPs
libraw.so.20:_ZN6LibRaw6dcb_ppEv
libraw.so.20:_ZN6LibRaw6derrorEv
libraw.so.20:_ZN6LibRaw6getintEi
libraw.so.20:_ZN6LibRaw6mallocEm
libraw.so.20:_ZN6LibRaw6memmemEPcmS0_m
libraw.so.20:_ZN6LibRaw6merrorEPvPKc
libraw.so.20:_ZN6LibRaw6streadEPcmP26LibRaw_abstract_datastream
libraw.so.20:_ZN6LibRaw6unpackEv
libraw.so.20:_ZN6LibRaw7dcb_horEPA3_f
libraw.so.20:_ZN6LibRaw7dcb_mapEv
libraw.so.20:_ZN6LibRaw7dcb_verEPA3_f
libraw.so.20:_ZN6LibRaw7exp_befEff
libraw.so.20:_ZN6LibRaw7getrealEi
libraw.so.20:_ZN6LibRaw7is_srawEv
libraw.so.20:_ZN6LibRaw7median4EPi
libraw.so.20:_ZN6LibRaw7reallocEPvm
libraw.so.20:_ZN6LibRaw7recycleEv
libraw.so.20:_ZN6LibRaw7stretchEv
libraw.so.20:_ZN6LibRaw7strnlenEPKcm
libraw.so.20:_ZN6LibRaw7thumbOKEx
libraw.so.20:_ZN6LibRaw7versionEv
libraw.so.20:_ZN6LibRaw8getwordsEPcPS0_ii
libraw.so.20:_ZN6LibRaw8identifyEv
libraw.so.20:_ZN6LibRaw8initdataEv
libraw.so.20:_ZN6LibRaw8parseCR3EyyRsPcS0_S0_
libraw.so.20:_ZN6LibRaw8parse_qtEi
libraw.so.20:_ZN6LibRaw8sget2RevEPh
libraw.so.20:_ZN6LibRaw8sgetrealEiPh
libraw.so.20:_ZN6LibRaw8strerrorEi
libraw.so.20:_ZN6LibRaw8subtractEPKc
libraw.so.20:_ZN6LibRaw8tiff_getEjPjS0_S0_S0_
libraw.so.20:_ZN6LibRaw8tiff_setEP8tiff_hdrPtttii
libraw.so.20:_ZN6LibRaw9FujiCCT_KE
libraw.so.20:_ZN6LibRaw9PentaxISOEt
libraw.so.20:_ZN6LibRaw9adjust_blEv
libraw.so.20:_ZN6LibRaw9dcb_colorEv
libraw.so.20:_ZN6LibRaw9fixupArriEv
libraw.so.20:_ZN6LibRaw9ljpeg_endEP5jhead
libraw.so.20:_ZN6LibRaw9ljpeg_rowEiP5jhead
libraw.so.20:_ZN6LibRaw9open_fileEPKcx
libraw.so.20:_ZN6LibRaw9pana_dataEiPj
libraw.so.20:_ZN6LibRaw9parse_gpsEi
libraw.so.20:_ZN6LibRaw9parse_mosEi
libraw.so.20:_ZN6LibRaw9ppm_thumbEv
libraw.so.20:_ZN6LibRaw9raw2imageEv
libraw.so.20:_ZN6LibRaw9tiff_headEP8tiff_hdri
libraw.so.20:_ZN6LibRaw9tiff_sgetEjPhjPxPjS2_S1_S2_Pi
libraw.so.20:_ZN6LibRawC1Ej
libraw.so.20:_ZN6LibRawC2Ej
libraw.so.20:_ZN6LibRawD0Ev
libraw.so.20:_ZN6LibRawD1Ev
libraw.so.20:_ZN6LibRawD2Ev
libraw.so.20:_ZNK6LibRaw20get_mem_image_formatEPiS0_S0_S0_
libraw.so.20:default_data_callback
libraw.so.20:default_memory_callback
libraw.so.20:exCoefNumTbl
libraw.so.20:foveon_data
libraw.so.20:libraw_COLOR
libraw.so.20:libraw_adjust_sizes_info_only
libraw.so.20:libraw_cameraCount
libraw.so.20:libraw_cameraList
libraw.so.20:libraw_capabilities
libraw.so.20:libraw_close
libraw.so.20:libraw_dcraw_clear_mem
libraw.so.20:libraw_dcraw_make_mem_image
libraw.so.20:libraw_dcraw_make_mem_thumb
libraw.so.20:libraw_dcraw_ppm_tiff_writer
libraw.so.20:libraw_dcraw_process
libraw.so.20:libraw_dcraw_thumb_writer
libraw.so.20:libraw_free_image
libraw.so.20:libraw_get_cam_mul
libraw.so.20:libraw_get_color_maximum
libraw.so.20:libraw_get_decoder_info
libraw.so.20:libraw_get_iheight
libraw.so.20:libraw_get_imgother
libraw.so.20:libraw_get_iparams
libraw.so.20:libraw_get_iwidth
libraw.so.20:libraw_get_lensinfo
libraw.so.20:libraw_get_pre_mul
libraw.so.20:libraw_get_raw_height
libraw.so.20:libraw_get_raw_width
libraw.so.20:libraw_get_rgb_cam
libraw.so.20:libraw_init
libraw.so.20:libraw_open_buffer
libraw.so.20:libraw_open_file
libraw.so.20:libraw_open_file_ex
libraw.so.20:libraw_raw2image
libraw.so.20:libraw_recycle
libraw.so.20:libraw_recycle_datastream
libraw.so.20:libraw_set_bright
libraw.so.20:libraw_set_dataerror_handler
libraw.so.20:libraw_set_demosaic
libraw.so.20:libraw_set_exifparser_handler
libraw.so.20:libraw_set_fbdd_noiserd
libraw.so.20:libraw_set_gamma
libraw.so.20:libraw_set_highlight
libraw.so.20:libraw_set_memerror_handler
libraw.so.20:libraw_set_no_auto_bright
libraw.so.20:libraw_set_output_bps
libraw.so.20:libraw_set_output_color
libraw.so.20:libraw_set_output_tif
libraw.so.20:libraw_set_progress_handler
libraw.so.20:libraw_set_user_mul
libraw.so.20:libraw_strerror
libraw.so.20:libraw_strprogress
libraw.so.20:libraw_subtract_black
libraw.so.20:libraw_unpack
libraw.so.20:libraw_unpack_function_name
libraw.so.20:libraw_unpack_thumb
libraw.so.20:libraw_version
libraw.so.20:libraw_versionNumber
libraw_r.so.20:.gomp_critical_user_dataupdate
libraw_r.so.20:J
libraw_r.so.20:JS
libraw_r.so.20:_Z12crxParamInitR13libraw_memmgrPP12CrxBandParammmjjijP26LibRaw_abstract_datastream
libraw_r.so.20:_Z13crxDecodeLineP12CrxBandParam
libraw_r.so.20:_Z13crxDecodeLineP12CrxBandParamPh
libraw_r.so.20:_Z14ifd_size_t_cmpPKvS0_
libraw_r.so.20:_Z15crxHorizontal53PiS_P19CrxWaveletTransformj
libraw_r.so.20:_Z16crxDecodeTopLineP12CrxBandParam
libraw_r.so.20:_Z16crxFreeImageDataP8CrxImage
libraw_r.so.20:_Z17crxSetupImageDataP17crx_data_header_tP8CrxImagePsmjiPh
libraw_r.so.20:_Z18crxFreeSubbandDataP8CrxImageP12CrxPlaneComp
libraw_r.so.20:_Z19crxConvertPlaneLineP8CrxImageiiiPii
libraw_r.so.20:_Z19crxReadImageHeadersP17crx_data_header_tP8CrxImagePhi
libraw_r.so.20:_Z19crxSetupSubbandDataP8CrxImageP12CrxPlaneCompPK7CrxTilej
libraw_r.so.20:_Z20crxDecodeLineRoundedP12CrxBandParam
libraw_r.so.20:_Z21crxIdwt53FilterDecodeP12CrxPlaneCompi
libraw_r.so.20:_Z21crxReadSubbandHeadersP17crx_data_header_tP8CrxImageP7CrxTileP12CrxPlaneCompPPhPi
libraw_r.so.20:_Z22crxIdwt53FilterGetLineP12CrxPlaneCompi
libraw_r.so.20:_Z23crxDecodeTopLineRoundedP12CrxBandParam
libraw_r.so.20:_Z24crxIdwt53FilterTransformP12CrxPlaneCompj
libraw_r.so.20:_Z25crxIdwt53FilterInitializeP12CrxPlaneCompi
libraw_r.so.20:_Z26crxDecodeLineNoRefPrevLineP12CrxBandParam
libraw_r.so.20:_Z29crxDecodeTopLineNoRefPrevLineP12CrxBandParam
libraw_r.so.20:_Z30crxDecodeLineWithIQuantizationP10CrxSubband
libraw_r.so.20:_ZN16LibRaw_constants11xyzd50_srgbE
libraw_r.so.20:_ZN16LibRaw_constants12prophoto_rgbE
libraw_r.so.20:_ZN16LibRaw_constants7rgb_rgbE
libraw_r.so.20:_ZN16LibRaw_constants7xyz_rgbE
libraw_r.so.20:_ZN16LibRaw_constants8aces_rgbE
libraw_r.so.20:_ZN16LibRaw_constants8wide_rgbE
libraw_r.so.20:_ZN16LibRaw_constants9adobe_rgbE
libraw_r.so.20:_ZN16LibRaw_constants9d65_whiteE
libraw_r.so.20:_ZN21pana_cs6_page_decoder9read_pageEv
libraw_r.so.20:_ZN22LibRaw_file_datastream15make_jas_streamEv
libraw_r.so.20:_ZN22LibRaw_file_datastream3eofEv
libraw_r.so.20:_ZN22LibRaw_file_datastream4getsEPci
libraw_r.so.20:_ZN22LibRaw_file_datastream4readEPvmm
libraw_r.so.20:_ZN22LibRaw_file_datastream4seekExi
libraw_r.so.20:_ZN22LibRaw_file_datastream4tellEv
libraw_r.so.20:_ZN22LibRaw_file_datastream5fnameEv
libraw_r.so.20:_ZN22LibRaw_file_datastream5validEv
libraw_r.so.20:_ZN22LibRaw_file_datastream9scanf_oneEPKcPv
libraw_r.so.20:_ZN22LibRaw_file_datastreamC1EPKc
libraw_r.so.20:_ZN22LibRaw_file_datastreamC2EPKc
libraw_r.so.20:_ZN22LibRaw_file_datastreamD0Ev
libraw_r.so.20:_ZN22LibRaw_file_datastreamD1Ev
libraw_r.so.20:_ZN22LibRaw_file_datastreamD2Ev
libraw_r.so.20:_ZN24LibRaw_buffer_datastream15make_jas_streamEv
libraw_r.so.20:_ZN24LibRaw_buffer_datastream3eofEv
libraw_r.so.20:_ZN24LibRaw_buffer_datastream4getsEPci
libraw_r.so.20:_ZN24LibRaw_buffer_datastream4readEPvmm
libraw_r.so.20:_ZN24LibRaw_buffer_datastream4seekExi
libraw_r.so.20:_ZN24LibRaw_buffer_datastream4tellEv
libraw_r.so.20:_ZN24LibRaw_buffer_datastream5validEv
libraw_r.so.20:_ZN24LibRaw_buffer_datastream8jpeg_srcEPv
libraw_r.so.20:_ZN24LibRaw_buffer_datastream9scanf_oneEPKcPv
libraw_r.so.20:_ZN24LibRaw_buffer_datastreamC1EPvm
libraw_r.so.20:_ZN24LibRaw_buffer_datastreamC2EPvm
libraw_r.so.20:_ZN24LibRaw_buffer_datastreamD0Ev
libraw_r.so.20:_ZN24LibRaw_buffer_datastreamD1Ev
libraw_r.so.20:_ZN24LibRaw_buffer_datastreamD2Ev
libraw_r.so.20:_ZN25LibRaw_bigfile_datastream15make_jas_streamEv
libraw_r.so.20:_ZN25LibRaw_bigfile_datastream3eofEv
libraw_r.so.20:_ZN25LibRaw_bigfile_datastream4getsEPci
libraw_r.so.20:_ZN25LibRaw_bigfile_datastream4readEPvmm
libraw_r.so.20:_ZN25LibRaw_bigfile_datastream4seekExi
libraw_r.so.20:_ZN25LibRaw_bigfile_datastream4tellEv
libraw_r.so.20:_ZN25LibRaw_bigfile_datastream5fnameEv
libraw_r.so.20:_ZN25LibRaw_bigfile_datastream5validEv
libraw_r.so.20:_ZN25LibRaw_bigfile_datastream9scanf_oneEPKcPv
libraw_r.so.20:_ZN25LibRaw_bigfile_datastreamC1EPKc
libraw_r.so.20:_ZN25LibRaw_bigfile_datastreamC2EPKc
libraw_r.so.20:_ZN25LibRaw_bigfile_datastreamD0Ev
libraw_r.so.20:_ZN25LibRaw_bigfile_datastreamD1Ev
libraw_r.so.20:_ZN25LibRaw_bigfile_datastreamD2Ev
libraw_r.so.20:_ZN26LibRaw_abstract_datastream8jpeg_srcEPv
libraw_r.so.20:_ZN3DHT10make_glineEi
libraw_r.so.20:_ZN3DHT11make_greensEv
libraw_r.so.20:_ZN3DHT11make_rbdiagEi
libraw_r.so.20:_ZN3DHT12make_hv_dirsEv
libraw_r.so.20:_ZN3DHT12restore_hotsEv
libraw_r.so.20:_ZN3DHT13copy_to_imageEv
libraw_r.so.20:_ZN3DHT13make_hv_dlineEi
libraw_r.so.20:_ZN3DHT14make_diag_dirsEv
libraw_r.so.20:_ZN3DHT14refine_hv_dirsEii
libraw_r.so.20:_ZN3DHT15illustrate_dirsEv
libraw_r.so.20:_ZN3DHT15make_diag_dlineEi
libraw_r.so.20:_ZN3DHT15refine_ihv_dirsEi
libraw_r.so.20:_ZN3DHT16illustrate_dlineEi
libraw_r.so.20:_ZN3DHT16refine_diag_dirsEii
libraw_r.so.20:_ZN3DHT17refine_idiag_dirsEi
libraw_r.so.20:_ZN3DHT7make_rbEv
libraw_r.so.20:_ZN3DHT9hide_hotsEv
libraw_r.so.20:_ZN3DHT9make_rbhvEi
libraw_r.so.20:_ZN3DHTC1ER6LibRaw
libraw_r.so.20:_ZN3DHTC2ER6LibRaw
libraw_r.so.20:_ZN3DHTD1Ev
libraw_r.so.20:_ZN3DHTD2Ev
libraw_r.so.20:_ZN4AAHD11make_ahd_rbEv
libraw_r.so.20:_ZN4AAHD12evaluate_ahdEv
libraw_r.so.20:_ZN4AAHD13combine_imageEv
libraw_r.so.20:_ZN4AAHD14make_ahd_glineEi
libraw_r.so.20:_ZN4AAHD14make_ahd_rb_hvEi
libraw_r.so.20:_ZN4AAHD14refine_hv_dirsEii
libraw_r.so.20:_ZN4AAHD14refine_hv_dirsEv
libraw_r.so.20:_ZN4AAHD15illustrate_dirsEv
libraw_r.so.20:_ZN4AAHD15make_ahd_greensEv
libraw_r.so.20:_ZN4AAHD15refine_ihv_dirsEi
libraw_r.so.20:_ZN4AAHD16illustrate_dlineEi
libraw_r.so.20:_ZN4AAHD16make_ahd_rb_lastEi
libraw_r.so.20:_ZN4AAHD8gammaLUTE
libraw_r.so.20:_ZN4AAHD9hide_hotsEv
libraw_r.so.20:_ZN4AAHD9yuv_coeffE
libraw_r.so.20:_ZN4AAHDC1ER6LibRaw
libraw_r.so.20:_ZN4AAHDC2ER6LibRaw
libraw_r.so.20:_ZN4AAHDD1Ev
libraw_r.so.20:_ZN4AAHDD2Ev
libraw_r.so.20:_ZN6LibRaw10aRGB_coeffEPA3_d
libraw_r.so.20:_ZN6LibRaw10apply_tiffEv
libraw_r.so.20:_ZN6LibRaw10bad_pixelsEPKc
libraw_r.so.20:_ZN6LibRaw10cameraListEv
libraw_r.so.20:_ZN6LibRaw10canon_s2isEv
libraw_r.so.20:_ZN6LibRaw10copy_bayerEPtS0_
libraw_r.so.20:_ZN6LibRaw10crxLoadRawEv
libraw_r.so.20:_ZN6LibRaw10dcb_color2EPA3_f
libraw_r.so.20:_ZN6LibRaw10dcb_color3EPA3_f
libraw_r.so.20:_ZN6LibRaw10dcb_decideEPA3_fS1_
libraw_r.so.20:_ZN6LibRaw10fbdd_greenEv
libraw_r.so.20:_ZN6LibRaw10fill_holesEi
libraw_r.so.20:_ZN6LibRaw10find_greenEiiii
libraw_r.so.20:_ZN6LibRaw10flip_indexEii
libraw_r.so.20:_ZN6LibRaw10free_imageEv
libraw_r.so.20:_ZN6LibRaw10getbithuffEiPt
libraw_r.so.20:_ZN6LibRaw10jpeg_thumbEv
libraw_r.so.20:_ZN6LibRaw10lch_to_rgbEPA3_d
libraw_r.so.20:_ZN6LibRaw10ljpeg_diffEPt
libraw_r.so.20:_ZN6LibRaw10ljpeg_idctEP5jhead
libraw_r.so.20:_ZN6LibRaw10minolta_z2Ev
libraw_r.so.20:_ZN6LibRaw10nikon_3700Ev
libraw_r.so.20:_ZN6LibRaw10nikon_e995Ev
libraw_r.so.20:_ZN6LibRaw10open_bayerEPhjtttttthhjjj
libraw_r.so.20:_ZN6LibRaw10parse_ciffEiii
libraw_r.so.20:_ZN6LibRaw10parse_cineEv
libraw_r.so.20:_ZN6LibRaw10parse_exifEi
libraw_r.so.20:_ZN6LibRaw10parse_fujiEi
libraw_r.so.20:_ZN6LibRaw10parse_jpegEi
libraw_r.so.20:_ZN6LibRaw10parse_riffEv
libraw_r.so.20:_ZN6LibRaw10parse_smalEii
libraw_r.so.20:_ZN6LibRaw10parse_tiffEi
libraw_r.so.20:_ZN6LibRaw10rgb_to_lchEPA3_d
libraw_r.so.20:_ZN6LibRaw10romm_coeffEPA3_f
libraw_r.so.20:_ZN6LibRaw10strcasestrEPcPKc
libraw_r.so.20:_ZN6LibRaw10trimSpacesEPc
libraw_r.so.20:_ZN6LibRaw10try_dngsdkEv
libraw_r.so.20:_ZN6LibRaw11adobe_coeffEjPKci
libraw_r.so.20:_ZN6LibRaw11cameraCountEv
libraw_r.so.20:_ZN6LibRaw11checkCancelEv
libraw_r.so.20:_ZN6LibRaw11dcb_nyquistEv
libraw_r.so.20:_ZN6LibRaw11fuji_rotateEv
libraw_r.so.20:_ZN6LibRaw11gamma_curveEddii
libraw_r.so.20:_ZN6LibRaw11have_fpdataEv
libraw_r.so.20:_ZN6LibRaw11layer_thumbEv
libraw_r.so.20:_ZN6LibRaw11ljpeg_startEP5jheadi
libraw_r.so.20:_ZN6LibRaw11nikon_e2100Ev
libraw_r.so.20:_ZN6LibRaw11open_bufferEPvm
libraw_r.so.20:_ZN6LibRaw11ph1_bithuffEiPt
libraw_r.so.20:_ZN6LibRaw11ppm16_thumbEv
libraw_r.so.20:_ZN6LibRaw11read_shortsEPtj
libraw_r.so.20:_ZN6LibRaw11strprogressE15LibRaw_progress
libraw_r.so.20:_ZN6LibRaw12Oly_wb_list1E
libraw_r.so.20:_ZN6LibRaw12Oly_wb_list2E
libraw_r.so.20:_ZN6LibRaw12capabilitiesEv
libraw_r.so.20:_ZN6LibRaw12cubic_splineEPKiS1_i
libraw_r.so.20:_ZN6LibRaw12int_to_floatEi
libraw_r.so.20:_ZN6LibRaw12is_canon_600Ev
libraw_r.so.20:_ZN6LibRaw12linear_tableEj
libraw_r.so.20:_ZN6LibRaw12make_decoderEPKh
libraw_r.so.20:_ZN6LibRaw12parseSonySR2EPhjjj
libraw_r.so.20:_ZN6LibRaw12parseSonySRFEj
libraw_r.so.20:_ZN6LibRaw12parse_rolleiEv
libraw_r.so.20:_ZN6LibRaw12raw2image_exEi
libraw_r.so.20:_ZN6LibRaw12rollei_thumbEv
libraw_r.so.20:_ZN6LibRaw12scale_colorsEv
libraw_r.so.20:_ZN6LibRaw12set_dng_hostEPv
libraw_r.so.20:_ZN6LibRaw12simple_coeffEi
libraw_r.so.20:_ZN6LibRaw12sony_decryptEPjiii
libraw_r.so.20:_ZN6LibRaw12try_rawspeedEv
libraw_r.so.20:_ZN6LibRaw12unpack_thumbEv
libraw_r.so.20:_ZN6LibRaw13Canon_wbi2stdE
libraw_r.so.20:_ZN6LibRaw13Fuji_wb_list1E
libraw_r.so.20:_ZN6LibRaw13Fuji_wb_list2E
libraw_r.so.20:_ZN6LibRaw13apply_profileEPKcS1_
libraw_r.so.20:_ZN6LibRaw13cam_xyz_coeffEPA4_fPA3_d
libraw_r.so.20:_ZN6LibRaw13dcraw_processEv
libraw_r.so.20:_ZN6LibRaw13get_timestampEi
libraw_r.so.20:_ZN6LibRaw13hat_transformEPfS0_iii
libraw_r.so.20:_ZN6LibRaw13is_jpeg_thumbEv
libraw_r.so.20:_ZN6LibRaw13is_nikon_srawEv
libraw_r.so.20:_ZN6LibRaw13median_filterEv
libraw_r.so.20:_ZN6LibRaw13parse_kyoceraEv
libraw_r.so.20:_ZN6LibRaw13parse_minoltaEi
libraw_r.so.20:_ZN6LibRaw13parse_redcineEv
libraw_r.so.20:_ZN6LibRaw13pseudoinverseEPA3_dS1_i
libraw_r.so.20:_ZN6LibRaw13remove_zeroesEv
libraw_r.so.20:_ZN6LibRaw13setCancelFlagEv
libraw_r.so.20:_ZN6LibRaw13sony_load_rawEv
libraw_r.so.20:_ZN6LibRaw13sraw_midpointEv
libraw_r.so.20:_ZN6LibRaw13versionNumberEv
libraw_r.so.20:_ZN6LibRaw14PentaxLensInfoEyj
libraw_r.so.20:_ZN6LibRaw14adjust_maximumEv
libraw_r.so.20:_ZN6LibRaw14canon_load_rawEv
libraw_r.so.20:_ZN6LibRaw14convert_to_rgbEv
libraw_r.so.20:_ZN6LibRaw14copy_mem_imageEPvii
libraw_r.so.20:_ZN6LibRaw14crxDecodePlaneEPvj
libraw_r.so.20:_ZN6LibRaw14dcb_color_fullEv
libraw_r.so.20:_ZN6LibRaw14dcb_correctionEv
libraw_r.so.20:_ZN6LibRaw14dcb_refinementEv
libraw_r.so.20:_ZN6LibRaw14green_matchingEv
libraw_r.so.20:_ZN6LibRaw14nikon_load_rawEv
libraw_r.so.20:_ZN6LibRaw14nokia_load_rawEv
libraw_r.so.20:_ZN6LibRaw14parse_broadcomEv
libraw_r.so.20:_ZN6LibRaw14parse_sinar_iaEv
libraw_r.so.20:_ZN6LibRaw14parse_tiff_ifdEi
libraw_r.so.20:_ZN6LibRaw14selectCRXTrackEs
libraw_r.so.20:_ZN6LibRaw14subtract_blackEv
libraw_r.so.20:_ZN6LibRaw14write_ppm_tiffEv
libraw_r.so.20:_ZN6LibRaw15Canon_WBpresetsEii
libraw_r.so.20:_ZN6LibRaw15Nikon_NRW_WBtagEii
libraw_r.so.20:_ZN6LibRaw15Pentax_wb_list1E
libraw_r.so.20:_ZN6LibRaw15Pentax_wb_list2E
libraw_r.so.20:_ZN6LibRaw15ahd_interpolateEv
libraw_r.so.20:_ZN6LibRaw15canon_600_coeffEv
libraw_r.so.20:_ZN6LibRaw15canon_600_colorEPii
libraw_r.so.20:_ZN6LibRaw15ciff_block_1030Ev
libraw_r.so.20:_ZN6LibRaw15clearCancelFlagEv
libraw_r.so.20:_ZN6LibRaw15crw_init_tablesEjPPt
libraw_r.so.20:_ZN6LibRaw15dcb_correction2Ev
libraw_r.so.20:_ZN6LibRaw15dcraw_clear_memEP24libraw_processed_image_t
libraw_r.so.20:_ZN6LibRaw15dht_interpolateEv
libraw_r.so.20:_ZN6LibRaw15fbdd_correctionEv
libraw_r.so.20:_ZN6LibRaw15init_fuji_blockEP21fuji_compressed_blockPK22fuji_compressed_paramsxj
libraw_r.so.20:_ZN6LibRaw15init_fuji_comprEP22fuji_compressed_params
libraw_r.so.20:_ZN6LibRaw15is_coolscan_nefEv
libraw_r.so.20:_ZN6LibRaw15is_curve_linearEv
libraw_r.so.20:_ZN6LibRaw15lin_interpolateEv
libraw_r.so.20:_ZN6LibRaw15nikon_load_srawEv
libraw_r.so.20:_ZN6LibRaw15open_datastreamEP26LibRaw_abstract_datastream
libraw_r.so.20:_ZN6LibRaw15packed_load_rawEv
libraw_r.so.20:_ZN6LibRaw15parseHassyModelEv
libraw_r.so.20:_ZN6LibRaw15parse_kodak_ifdEi
libraw_r.so.20:_ZN6LibRaw15parse_makernoteEii
libraw_r.so.20:_ZN6LibRaw15parse_phase_oneEi
libraw_r.so.20:_ZN6LibRaw15pentax_load_rawEv
libraw_r.so.20:_ZN6LibRaw15ppg_interpolateEv
libraw_r.so.20:_ZN6LibRaw15pre_interpolateEv
libraw_r.so.20:_ZN6LibRaw15raw2image_startEv
libraw_r.so.20:_ZN6LibRaw15rollei_load_rawEv
libraw_r.so.20:_ZN6LibRaw15vng_interpolateEv
libraw_r.so.20:_ZN6LibRaw15wavelet_denoiseEv
libraw_r.so.20:_ZN6LibRaw16KodakIllumMatrixEjPf
libraw_r.so.20:_ZN6LibRaw16Kodak_DCR_WBtagsEiji
libraw_r.so.20:_ZN6LibRaw16Kodak_KDC_WBtagsEii
libraw_r.so.20:_ZN6LibRaw16Sony_SR2_wb_listE
libraw_r.so.20:_ZN6LibRaw16Sony_SRF_wb_listE
libraw_r.so.20:_ZN6LibRaw16aahd_interpolateEv
libraw_r.so.20:_ZN6LibRaw16adobe_copy_pixelEjjPPt
libraw_r.so.20:_ZN6LibRaw16blend_highlightsEv
libraw_r.so.20:_ZN6LibRaw16fbdd_correction2EPA3_d
libraw_r.so.20:_ZN6LibRaw16fuji_decode_loopEPK22fuji_compressed_paramsiPxPj
libraw_r.so.20:_ZN6LibRaw16get_decoder_infoEP21libraw_decoder_info_t
libraw_r.so.20:_ZN6LibRaw16guess_byte_orderEi
libraw_r.so.20:_ZN6LibRaw16make_decoder_refEPPKh
libraw_r.so.20:_ZN6LibRaw16nikon_read_curveEv
libraw_r.so.20:_ZN6LibRaw16olympus_load_rawEv
libraw_r.so.20:_ZN6LibRaw16parseLeicaLensIDEv
libraw_r.so.20:_ZN6LibRaw16parse_gps_librawEi
libraw_r.so.20:_ZN6LibRaw16parse_thumb_noteEijj
libraw_r.so.20:_ZN6LibRaw16redcine_load_rawEv
libraw_r.so.20:_ZN6LibRaw16samsung_load_rawEv
libraw_r.so.20:_ZN6LibRaw16setMakeFromIndexEj
libraw_r.so.20:_ZN6LibRaw16smal_v6_load_rawEv
libraw_r.so.20:_ZN6LibRaw16smal_v9_load_rawEv
libraw_r.so.20:_ZN6LibRaw16valid_for_dngsdkEv
libraw_r.so.20:_ZN6LibRaw17Canon_WBCTpresetsEs
libraw_r.so.20:_ZN6LibRaw17Sony_SR2_wb_list1E
libraw_r.so.20:_ZN6LibRaw17broadcom_load_rawEv
libraw_r.so.20:_ZN6LibRaw17canon_600_auto_wbEv
libraw_r.so.20:_ZN6LibRaw17canon_600_correctEv
libraw_r.so.20:_ZN6LibRaw17canon_has_lowbitsEv
libraw_r.so.20:_ZN6LibRaw17convertFloatToIntEfff
libraw_r.so.20:_ZN6LibRaw17crxLoadDecodeLoopEPvi
libraw_r.so.20:_ZN6LibRaw17fuji_decode_stripEPK22fuji_compressed_paramsixj
libraw_r.so.20:_ZN6LibRaw17is_floating_pointEv
libraw_r.so.20:_ZN6LibRaw17jpeg_thumb_writerEP8_IO_FILEPci
libraw_r.so.20:_ZN6LibRaw17leaf_hdr_load_rawEv
libraw_r.so.20:_ZN6LibRaw17phase_one_correctEv
libraw_r.so.20:_ZN6LibRaw17remove_caseSubstrEPcS0_
libraw_r.so.20:_ZN6LibRaw17samsung2_load_rawEv
libraw_r.so.20:_ZN6LibRaw17samsung3_load_rawEv
libraw_r.so.20:_ZN6LibRaw17scale_colors_loopEPf
libraw_r.so.20:_ZN6LibRaw17sony_arq_load_rawEv
libraw_r.so.20:_ZN6LibRaw17sony_arw_load_rawEv
libraw_r.so.20:_ZN6LibRaw17unpacked_load_rawEv
libraw_r.so.20:_ZN6LibRaw18GetNormalizedModelEv
libraw_r.so.20:_ZN6LibRaw18border_interpolateEi
libraw_r.so.20:_ZN6LibRaw18canon_600_fixed_wbEi
libraw_r.so.20:_ZN6LibRaw18canon_600_load_rawEv
libraw_r.so.20:_ZN6LibRaw18canon_rmf_load_rawEv
libraw_r.so.20:_ZN6LibRaw18copy_line_to_bayerEP21fuji_compressed_blockiii
libraw_r.so.20:_ZN6LibRaw18crop_masked_pixelsEv
libraw_r.so.20:_ZN6LibRaw18dcb_copy_to_bufferEPA3_f
libraw_r.so.20:_ZN6LibRaw18dcraw_thumb_writerEPKc
libraw_r.so.20:_ZN6LibRaw18eight_bit_load_rawEv
libraw_r.so.20:_ZN6LibRaw18find_ifd_by_offsetEi
libraw_r.so.20:_ZN6LibRaw18fix_after_rawspeedEi
libraw_r.so.20:_ZN6LibRaw18kodak_262_load_rawEv
libraw_r.so.20:_ZN6LibRaw18kodak_65000_decodeEPsi
libraw_r.so.20:_ZN6LibRaw18kodak_rgb_load_rawEv
libraw_r.so.20:_ZN6LibRaw18kodak_thumb_loaderEv
libraw_r.so.20:_ZN6LibRaw18ljpeg_row_unrolledEiP5jhead
libraw_r.so.20:_ZN6LibRaw18lossy_dng_load_rawEv
libraw_r.so.20:_ZN6LibRaw18nikon_yuv_load_rawEv
libraw_r.so.20:_ZN6LibRaw18panasonic_load_rawEv
libraw_r.so.20:_ZN6LibRaw18parseLeicaLensNameEj
libraw_r.so.20:_ZN6LibRaw18parseSonyLensType2Ehh
libraw_r.so.20:_ZN6LibRaw18parse_exif_interopEi
libraw_r.so.20:_ZN6LibRaw18phase_one_load_rawEv
libraw_r.so.20:_ZN6LibRaw18process_Hassy_LensEi
libraw_r.so.20:_ZN6LibRaw18recover_highlightsEv
libraw_r.so.20:_ZN6LibRaw18recycle_datastreamEv
libraw_r.so.20:_ZN6LibRaw18sony_arw2_load_rawEv
libraw_r.so.20:_ZN6LibRaw18xtrans_interpolateEi
libraw_r.so.20:_ZN6LibRaw19canon_sraw_load_rawEv
libraw_r.so.20:_ZN6LibRaw19convert_to_rgb_loopEPA4_f
libraw_r.so.20:_ZN6LibRaw19copy_fuji_uncroppedEPtS0_
libraw_r.so.20:_ZN6LibRaw19copy_line_to_xtransEP21fuji_compressed_blockiii
libraw_r.so.20:_ZN6LibRaw19crxParseImageHeaderEPhi
libraw_r.so.20:_ZN6LibRaw19fuji_14bit_load_rawEv
libraw_r.so.20:_ZN6LibRaw19hasselblad_load_rawEv
libraw_r.so.20:_ZN6LibRaw19kodak_c330_load_rawEv
libraw_r.so.20:_ZN6LibRaw19kodak_c603_load_rawEv
libraw_r.so.20:_ZN6LibRaw19kodak_jpeg_load_rawEv
libraw_r.so.20:_ZN6LibRaw19kodak_radc_load_rawEv
libraw_r.so.20:_ZN6LibRaw19packed_dng_load_rawEv
libraw_r.so.20:_ZN6LibRaw19parseEpsonMakernoteEiij
libraw_r.so.20:_ZN6LibRaw19parseFujiMakernotesEjjjj
libraw_r.so.20:_ZN6LibRaw19parseLeicaMakernoteEiij
libraw_r.so.20:_ZN6LibRaw19parseNikonMakernoteEiij
libraw_r.so.20:_ZN6LibRaw19parseSigmaMakernoteEiij
libraw_r.so.20:_ZN6LibRaw19parseSonyMakernotesEijjjjRPhRtS1_S2_S1_S2_S1_S2_S1_S2_S1_S2_S1_S2_S1_S2_S1_S2_
libraw_r.so.20:_ZN6LibRaw19process_Sony_0x0116EPhty
libraw_r.so.20:_ZN6LibRaw19process_Sony_0x2010EPht
libraw_r.so.20:_ZN6LibRaw19process_Sony_0x9050EPhty
libraw_r.so.20:_ZN6LibRaw19process_Sony_0x9400EPhty
libraw_r.so.20:_ZN6LibRaw19process_Sony_0x9402EPht
libraw_r.so.20:_ZN6LibRaw19process_Sony_0x9403EPht
libraw_r.so.20:_ZN6LibRaw19process_Sony_0x9406EPht
libraw_r.so.20:_ZN6LibRaw19process_Sony_0x940cEPht
libraw_r.so.20:_ZN6LibRaw19process_Sony_0x940eEPhty
libraw_r.so.20:_ZN6LibRaw19setPhaseOneFeaturesEy
libraw_r.so.20:_ZN6LibRaw19setSonyBodyFeaturesEy
libraw_r.so.20:_ZN6LibRaw19smal_decode_segmentEPA2_ji
libraw_r.so.20:_ZN6LibRaw19xtrans_decode_blockEP21fuji_compressed_blockPK22fuji_compressed_paramsi
libraw_r.so.20:_ZN6LibRaw20Canon_CameraSettingsEj
libraw_r.so.20:_ZN6LibRaw20cameramakeridx2makerEj
libraw_r.so.20:_ZN6LibRaw20dcraw_make_mem_imageEPi
libraw_r.so.20:_ZN6LibRaw20dcraw_make_mem_thumbEPi
libraw_r.so.20:_ZN6LibRaw20deflate_dng_load_rawEv
libraw_r.so.20:_ZN6LibRaw20imacon_full_load_rawEv
libraw_r.so.20:_ZN6LibRaw20kodak_65000_load_rawEv
libraw_r.so.20:_ZN6LibRaw20kodak_dc120_load_rawEv
libraw_r.so.20:_ZN6LibRaw20kodak_thumb_load_rawEv
libraw_r.so.20:_ZN6LibRaw20kodak_ycbcr_load_rawEv
libraw_r.so.20:_ZN6LibRaw20lin_interpolate_loopEPii
libraw_r.so.20:_ZN6LibRaw20nikon_14bit_load_rawEv
libraw_r.so.20:_ZN6LibRaw20panasonicC6_load_rawEv
libraw_r.so.20:_ZN6LibRaw20panasonicC7_load_rawEv
libraw_r.so.20:_ZN6LibRaw20parseCanonMakernotesEjjjj
libraw_r.so.20:_ZN6LibRaw20parseOlympus_RawInfoEjjjj
libraw_r.so.20:_ZN6LibRaw20parseRicohMakernotesEijjjj
libraw_r.so.20:_ZN6LibRaw20parse_custom_camerasEjP22libraw_custom_camera_tPPc
libraw_r.so.20:_ZN6LibRaw20phase_one_flat_fieldEii
libraw_r.so.20:_ZN6LibRaw20phase_one_load_raw_cEv
libraw_r.so.20:_ZN6LibRaw20processNikonLensDataEPhj
libraw_r.so.20:_ZN6LibRaw20setCanonBodyFeaturesEy
libraw_r.so.20:_ZN6LibRaw20setLeicaBodyFeaturesEi
libraw_r.so.20:_ZN6LibRaw20sinar_4shot_load_rawEv
libraw_r.so.20:_ZN6LibRaw20unpack_function_nameEv
libraw_r.so.20:_ZN6LibRaw21HassyRawFormat_idx2HREj
libraw_r.so.20:_ZN6LibRaw21_CanonConvertApertureEt
libraw_r.so.20:_ZN6LibRaw21crxConvertPlaneLineDfEPvi
libraw_r.so.20:_ZN6LibRaw21crxLoadFinalizeLoopE3EPvi
libraw_r.so.20:_ZN6LibRaw21dcraw_ppm_tiff_writerEPKc
libraw_r.so.20:_ZN6LibRaw21identify_finetune_dcrEPcii
libraw_r.so.20:_ZN6LibRaw21lossless_dng_load_rawEv
libraw_r.so.20:_ZN6LibRaw21parsePentaxMakernotesEijjjj
libraw_r.so.20:_ZN6LibRaw21parseSonyLensFeaturesEhh
libraw_r.so.20:_ZN6LibRaw21pentax_4shot_load_rawEv
libraw_r.so.20:_ZN6LibRaw21removeExcessiveSpacesEPc
libraw_r.so.20:_ZN6LibRaw21setPentaxBodyFeaturesEy
libraw_r.so.20:_ZN6LibRaw22SetStandardIlluminantsEjPKc
libraw_r.so.20:_ZN6LibRaw22adjust_sizes_info_onlyEv
libraw_r.so.20:_ZN6LibRaw22android_loose_load_rawEv
libraw_r.so.20:_ZN6LibRaw22android_tight_load_rawEv
libraw_r.so.20:_ZN6LibRaw22getOlympus_CameraType2Ev
libraw_r.so.20:_ZN6LibRaw22is_phaseone_compressedEv
libraw_r.so.20:_ZN6LibRaw22lossless_jpeg_load_rawEv
libraw_r.so.20:_ZN6LibRaw22minolta_rd175_load_rawEv
libraw_r.so.20:_ZN6LibRaw22parseAdobeRAFMakernoteEv
libraw_r.so.20:_ZN6LibRaw22parseOlympus_EquipmentEjjjj
libraw_r.so.20:_ZN6LibRaw22parseSamsungMakernotesEijjjj
libraw_r.so.20:_ZN6LibRaw22parse_makernote_0xc634Eiij
libraw_r.so.20:_ZN6LibRaw22processCanonCameraInfoEyPhjjj
libraw_r.so.20:_ZN6LibRaw22quicktake_100_load_rawEv
libraw_r.so.20:_ZN6LibRaw22remove_trailing_spacesEPcm
libraw_r.so.20:_ZN6LibRaw22setOlympusBodyFeaturesEy
libraw_r.so.20:_ZN6LibRaw22tagtype_dataunit_bytesE
libraw_r.so.20:_ZN6LibRaw23dcb_restore_from_bufferEPA3_f
libraw_r.so.20:_ZN6LibRaw23fuji_bayer_decode_blockEP21fuji_compressed_blockPK22fuji_compressed_paramsi
libraw_r.so.20:_ZN6LibRaw23nikon_coolscan_load_rawEv
libraw_r.so.20:_ZN6LibRaw23parseAdobePanoMakernoteEv
libraw_r.so.20:_ZN6LibRaw23set_rawspeed_camerafileEPc
libraw_r.so.20:_ZN6LibRaw23subtract_black_internalEv
libraw_r.so.20:_ZN6LibRaw24fuji_compressed_load_rawEv
libraw_r.so.20:_ZN6LibRaw24hasselblad_full_load_rawEv
libraw_r.so.20:_ZN6LibRaw24identify_finetune_pentaxEv
libraw_r.so.20:_ZN6LibRaw24phase_one_subtract_blackEPtS0_
libraw_r.so.20:_ZN6LibRaw25phase_one_free_tempbufferEv
libraw_r.so.20:_ZN6LibRaw25unpacked_load_raw_FujiDBPEv
libraw_r.so.20:_ZN6LibRaw26Canon_G9_linenums_2_StdWBiE
libraw_r.so.20:_ZN6LibRaw26unpacked_load_raw_reversedEv
libraw_r.so.20:_ZN6LibRaw27Canon_D30_linenums_2_StdWBiE
libraw_r.so.20:_ZN6LibRaw27identify_process_dng_fieldsEv
libraw_r.so.20:_ZN6LibRaw27parseOlympus_CameraSettingsEijjjj
libraw_r.so.20:_ZN6LibRaw28getOlympus_SensorTemperatureEj
libraw_r.so.20:_ZN6LibRaw28nikon_load_padded_packed_rawEv
libraw_r.so.20:_ZN6LibRaw28parseLeicaInternalBodySerialEj
libraw_r.so.20:_ZN6LibRaw28parseOlympus_ImageProcessingEjjjj
libraw_r.so.20:_ZN6LibRaw28parse_fuji_compressed_headerEv
libraw_r.so.20:_ZN6LibRaw28vc5_dng_load_raw_placeholderEv
libraw_r.so.20:_ZN6LibRaw29ahd_interpolate_green_h_and_vEiiPA512_A512_A3_t
libraw_r.so.20:_ZN6LibRaw29identify_finetune_by_filesizeEi
libraw_r.so.20:_ZN6LibRaw29nikon_load_striped_packed_rawEv
libraw_r.so.20:_ZN6LibRaw29phase_one_allocate_tempbufferEv
libraw_r.so.20:_ZN6LibRaw30float_dng_load_raw_placeholderEv
libraw_r.so.20:_ZN6LibRaw30unpacked_load_raw_fuji_f700s20Ev
libraw_r.so.20:_ZN6LibRaw37ahd_interpolate_build_homogeneity_mapEiiPA512_A512_A3_sPA512_A2_c
libraw_r.so.20:_ZN6LibRaw3dcbEii
libraw_r.so.20:_ZN6LibRaw41Canon_KeyIsZero_Len2048_linenums_2_StdWBiE
libraw_r.so.20:_ZN6LibRaw42ahd_interpolate_combine_homogeneous_pixelsEiiPA512_A512_A3_tPA512_A2_c
libraw_r.so.20:_ZN6LibRaw43Canon_KeyIs0x0410_Len2048_linenums_2_StdWBiE
libraw_r.so.20:_ZN6LibRaw43Canon_KeyIs0x0410_Len3072_linenums_2_StdWBiE
libraw_r.so.20:_ZN6LibRaw45ahd_interpolate_r_and_b_and_convert_to_cielabEiiPA512_A512_A3_tPA512_A512_A3_s
libraw_r.so.20:_ZN6LibRaw4fbddEi
libraw_r.so.20:_ZN6LibRaw4fcolEii
libraw_r.so.20:_ZN6LibRaw4freeEPv
libraw_r.so.20:_ZN6LibRaw4get2Ev
libraw_r.so.20:_ZN6LibRaw4get4Ev
libraw_r.so.20:_ZN6LibRaw52ahd_interpolate_r_and_b_in_rgb_and_convert_to_cielabEiiPA512_A3_tPA512_A3_s
libraw_r.so.20:_ZN6LibRaw5p1rawEjj
libraw_r.so.20:_ZN6LibRaw5sget2EPh
libraw_r.so.20:_ZN6LibRaw5sget4EPh
libraw_r.so.20:_ZN6LibRaw6callocEmm
libraw_r.so.20:_ZN6LibRaw6cielabEPtPs
libraw_r.so.20:_ZN6LibRaw6dcb_ppEv
libraw_r.so.20:_ZN6LibRaw6derrorEv
libraw_r.so.20:_ZN6LibRaw6getintEi
libraw_r.so.20:_ZN6LibRaw6mallocEm
libraw_r.so.20:_ZN6LibRaw6memmemEPcmS0_m
libraw_r.so.20:_ZN6LibRaw6merrorEPvPKc
libraw_r.so.20:_ZN6LibRaw6streadEPcmP26LibRaw_abstract_datastream
libraw_r.so.20:_ZN6LibRaw6unpackEv
libraw_r.so.20:_ZN6LibRaw7dcb_horEPA3_f
libraw_r.so.20:_ZN6LibRaw7dcb_mapEv
libraw_r.so.20:_ZN6LibRaw7dcb_verEPA3_f
libraw_r.so.20:_ZN6LibRaw7exp_befEff
libraw_r.so.20:_ZN6LibRaw7getrealEi
libraw_r.so.20:_ZN6LibRaw7is_srawEv
libraw_r.so.20:_ZN6LibRaw7median4EPi
libraw_r.so.20:_ZN6LibRaw7reallocEPvm
libraw_r.so.20:_ZN6LibRaw7recycleEv
libraw_r.so.20:_ZN6LibRaw7stretchEv
libraw_r.so.20:_ZN6LibRaw7strnlenEPKcm
libraw_r.so.20:_ZN6LibRaw7thumbOKEx
libraw_r.so.20:_ZN6LibRaw7versionEv
libraw_r.so.20:_ZN6LibRaw8getwordsEPcPS0_ii
libraw_r.so.20:_ZN6LibRaw8identifyEv
libraw_r.so.20:_ZN6LibRaw8initdataEv
libraw_r.so.20:_ZN6LibRaw8parseCR3EyyRsPcS0_S0_
libraw_r.so.20:_ZN6LibRaw8parse_qtEi
libraw_r.so.20:_ZN6LibRaw8sget2RevEPh
libraw_r.so.20:_ZN6LibRaw8sgetrealEiPh
libraw_r.so.20:_ZN6LibRaw8strerrorEi
libraw_r.so.20:_ZN6LibRaw8subtractEPKc
libraw_r.so.20:_ZN6LibRaw8tiff_getEjPjS0_S0_S0_
libraw_r.so.20:_ZN6LibRaw8tiff_setEP8tiff_hdrPtttii
libraw_r.so.20:_ZN6LibRaw9FujiCCT_KE
libraw_r.so.20:_ZN6LibRaw9PentaxISOEt
libraw_r.so.20:_ZN6LibRaw9adjust_blEv
libraw_r.so.20:_ZN6LibRaw9dcb_colorEv
libraw_r.so.20:_ZN6LibRaw9fixupArriEv
libraw_r.so.20:_ZN6LibRaw9ljpeg_endEP5jhead
libraw_r.so.20:_ZN6LibRaw9ljpeg_rowEiP5jhead
libraw_r.so.20:_ZN6LibRaw9open_fileEPKcx
libraw_r.so.20:_ZN6LibRaw9pana_dataEiPj
libraw_r.so.20:_ZN6LibRaw9parse_gpsEi
libraw_r.so.20:_ZN6LibRaw9parse_mosEi
libraw_r.so.20:_ZN6LibRaw9ppm_thumbEv
libraw_r.so.20:_ZN6LibRaw9raw2imageEv
libraw_r.so.20:_ZN6LibRaw9tiff_headEP8tiff_hdri
libraw_r.so.20:_ZN6LibRaw9tiff_sgetEjPhjPxPjS2_S1_S2_Pi
libraw_r.so.20:_ZN6LibRawC1Ej
libraw_r.so.20:_ZN6LibRawC2Ej
libraw_r.so.20:_ZN6LibRawD0Ev
libraw_r.so.20:_ZN6LibRawD1Ev
libraw_r.so.20:_ZN6LibRawD2Ev
libraw_r.so.20:_ZNK6LibRaw20get_mem_image_formatEPiS0_S0_S0_
libraw_r.so.20:default_data_callback
libraw_r.so.20:default_memory_callback
libraw_r.so.20:exCoefNumTbl
libraw_r.so.20:foveon_data
libraw_r.so.20:libraw_COLOR
libraw_r.so.20:libraw_adjust_sizes_info_only
libraw_r.so.20:libraw_cameraCount
libraw_r.so.20:libraw_cameraList
libraw_r.so.20:libraw_capabilities
libraw_r.so.20:libraw_close
libraw_r.so.20:libraw_dcraw_clear_mem
libraw_r.so.20:libraw_dcraw_make_mem_image
libraw_r.so.20:libraw_dcraw_make_mem_thumb
libraw_r.so.20:libraw_dcraw_ppm_tiff_writer
libraw_r.so.20:libraw_dcraw_process
libraw_r.so.20:libraw_dcraw_thumb_writer
libraw_r.so.20:libraw_free_image
libraw_r.so.20:libraw_get_cam_mul
libraw_r.so.20:libraw_get_color_maximum
libraw_r.so.20:libraw_get_decoder_info
libraw_r.so.20:libraw_get_iheight
libraw_r.so.20:libraw_get_imgother
libraw_r.so.20:libraw_get_iparams
libraw_r.so.20:libraw_get_iwidth
libraw_r.so.20:libraw_get_lensinfo
libraw_r.so.20:libraw_get_pre_mul
libraw_r.so.20:libraw_get_raw_height
libraw_r.so.20:libraw_get_raw_width
libraw_r.so.20:libraw_get_rgb_cam
libraw_r.so.20:libraw_init
libraw_r.so.20:libraw_open_buffer
libraw_r.so.20:libraw_open_file
libraw_r.so.20:libraw_open_file_ex
libraw_r.so.20:libraw_raw2image
libraw_r.so.20:libraw_recycle
libraw_r.so.20:libraw_recycle_datastream
libraw_r.so.20:libraw_set_bright
libraw_r.so.20:libraw_set_dataerror_handler
libraw_r.so.20:libraw_set_demosaic
libraw_r.so.20:libraw_set_exifparser_handler
libraw_r.so.20:libraw_set_fbdd_noiserd
libraw_r.so.20:libraw_set_gamma
libraw_r.so.20:libraw_set_highlight
libraw_r.so.20:libraw_set_memerror_handler
libraw_r.so.20:libraw_set_no_auto_bright
libraw_r.so.20:libraw_set_output_bps
libraw_r.so.20:libraw_set_output_color
libraw_r.so.20:libraw_set_output_tif
libraw_r.so.20:libraw_set_progress_handler
libraw_r.so.20:libraw_set_user_mul
libraw_r.so.20:libraw_strerror
libraw_r.so.20:libraw_strprogress
libraw_r.so.20:libraw_subtract_black
libraw_r.so.20:libraw_unpack
libraw_r.so.20:libraw_unpack_function_name
libraw_r.so.20:libraw_unpack_thumb
libraw_r.so.20:libraw_version
libraw_r.so.20:libraw_versionNumber
