libKF5I18n.so.5:_Z5ki18nPKc
libKF5I18n.so.5:_Z6ki18ncPKcS0_
libKF5I18n.so.5:_Z6ki18ndPKcS0_
libKF5I18n.so.5:_Z6ki18npPKcS0_
libKF5I18n.so.5:_Z6kxi18nPKc
libKF5I18n.so.5:_Z7ki18ncpPKcS0_S0_
libKF5I18n.so.5:_Z7ki18ndcPKcS0_S0_
libKF5I18n.so.5:_Z7ki18ndpPKcS0_S0_
libKF5I18n.so.5:_Z7kxi18ncPKcS0_
libKF5I18n.so.5:_Z7kxi18ndPKcS0_
libKF5I18n.so.5:_Z7kxi18npPKcS0_
libKF5I18n.so.5:_Z8ki18ndcpPKcS0_S0_S0_
libKF5I18n.so.5:_Z8kxi18ncpPKcS0_S0_
libKF5I18n.so.5:_Z8kxi18ndcPKcS0_S0_
libKF5I18n.so.5:_Z8kxi18ndpPKcS0_S0_
libKF5I18n.so.5:_Z9kxi18ndcpPKcS0_S0_S0_
libKF5I18n.so.5:_ZN16KLocalizedString11translateQtEPKcS1_S1_i
libKF5I18n.so.5:_ZN16KLocalizedString12setLanguagesERK11QStringList
libKF5I18n.so.5:_ZN16KLocalizedString14clearLanguagesEv
libKF5I18n.so.5:_ZN16KLocalizedString14insertQtDomainEPKc
libKF5I18n.so.5:_ZN16KLocalizedString14removeQtDomainEPKc
libKF5I18n.so.5:_ZN16KLocalizedString17applicationDomainEv
libKF5I18n.so.5:_ZN16KLocalizedString17localizedFilePathERK7QString
libKF5I18n.so.5:_ZN16KLocalizedString18addDomainLocaleDirERK10QByteArrayRK7QString
libKF5I18n.so.5:_ZN16KLocalizedString20setApplicationDomainEPKc
libKF5I18n.so.5:_ZN16KLocalizedString23removeAcceleratorMarkerERK7QString
libKF5I18n.so.5:_ZN16KLocalizedString27availableDomainTranslationsERK10QByteArray
libKF5I18n.so.5:_ZN16KLocalizedString27isApplicationTranslatedIntoERK7QString
libKF5I18n.so.5:_ZN16KLocalizedString32availableApplicationTranslationsEv
libKF5I18n.so.5:_ZN16KLocalizedString9languagesEv
libKF5I18n.so.5:_ZN16KLocalizedStringC1EPKcS1_S1_S1_b
libKF5I18n.so.5:_ZN16KLocalizedStringC1ERKS_
libKF5I18n.so.5:_ZN16KLocalizedStringC1Ev
libKF5I18n.so.5:_ZN16KLocalizedStringC2EPKcS1_S1_S1_b
libKF5I18n.so.5:_ZN16KLocalizedStringC2ERKS_
libKF5I18n.so.5:_ZN16KLocalizedStringC2Ev
libKF5I18n.so.5:_ZN16KLocalizedStringD1Ev
libKF5I18n.so.5:_ZN16KLocalizedStringD2Ev
libKF5I18n.so.5:_ZN16KLocalizedStringaSERKS_
libKF5I18n.so.5:_ZN17KLocalizedContext11qt_metacallEN11QMetaObject4CallEiPPv
libKF5I18n.so.5:_ZN17KLocalizedContext11qt_metacastEPKc
libKF5I18n.so.5:_ZN17KLocalizedContext20setTranslationDomainERK7QString
libKF5I18n.so.5:_ZN17KLocalizedContext24translationDomainChangedERK7QString
libKF5I18n.so.5:_ZN17KLocalizedContextC1EP7QObject
libKF5I18n.so.5:_ZN17KLocalizedContextC2EP7QObject
libKF5I18n.so.5:_ZN17KLocalizedContextD0Ev
libKF5I18n.so.5:_ZN17KLocalizedContextD1Ev
libKF5I18n.so.5:_ZN17KLocalizedContextD2Ev
libKF5I18n.so.5:_ZN20KLocalizedTranslator11qt_metacallEN11QMetaObject4CallEiPPv
libKF5I18n.so.5:_ZN20KLocalizedTranslator11qt_metacastEPKc
libKF5I18n.so.5:_ZN20KLocalizedTranslator19addContextToMonitorERK7QString
libKF5I18n.so.5:_ZN20KLocalizedTranslator20setTranslationDomainERK7QString
libKF5I18n.so.5:_ZN20KLocalizedTranslator22removeContextToMonitorERK7QString
libKF5I18n.so.5:_ZN20KLocalizedTranslatorC1EP7QObject
libKF5I18n.so.5:_ZN20KLocalizedTranslatorC2EP7QObject
libKF5I18n.so.5:_ZN20KLocalizedTranslatorD0Ev
libKF5I18n.so.5:_ZN20KLocalizedTranslatorD1Ev
libKF5I18n.so.5:_ZN20KLocalizedTranslatorD2Ev
libKF5I18n.so.5:_ZN4Kuit14setupForDomainEPKc
libKF5I18n.so.5:_ZN4Kuit14setupForDomainERK10QByteArray
libKF5I18n.so.5:_ZN9KuitSetup11setTagClassERK7QStringN4Kuit8TagClassE
libKF5I18n.so.5:_ZN9KuitSetup13setTagPatternERK7QStringRK11QStringListN4Kuit12VisualFormatERK16KLocalizedStringPFS0_S5_S2_RK5QHashIS0_S0_ES2_S5_S7_Ei
libKF5I18n.so.5:_ZN9KuitSetup18setFormatForMarkerERK7QStringN4Kuit12VisualFormatE
libKF5I18n.so.5:_ZN9KuitSetupC1ERK10QByteArray
libKF5I18n.so.5:_ZN9KuitSetupC2ERK10QByteArray
libKF5I18n.so.5:_ZN9KuitSetupD1Ev
libKF5I18n.so.5:_ZN9KuitSetupD2Ev
libKF5I18n.so.5:_ZNK16KLocalizedString10withDomainEPKc
libKF5I18n.so.5:_ZNK16KLocalizedString10withFormatEN4Kuit12VisualFormatE
libKF5I18n.so.5:_ZNK16KLocalizedString12ignoreMarkupEv
libKF5I18n.so.5:_ZNK16KLocalizedString13withLanguagesERK11QStringList
libKF5I18n.so.5:_ZNK16KLocalizedString16untranslatedTextEv
libKF5I18n.so.5:_ZNK16KLocalizedString4subsE5QChariS0_
libKF5I18n.so.5:_ZNK16KLocalizedString4subsERK7QStringi5QChar
libKF5I18n.so.5:_ZNK16KLocalizedString4subsERKS_i5QChar
libKF5I18n.so.5:_ZNK16KLocalizedString4subsEdici5QChar
libKF5I18n.so.5:_ZNK16KLocalizedString4subsEiii5QChar
libKF5I18n.so.5:_ZNK16KLocalizedString4subsEjii5QChar
libKF5I18n.so.5:_ZNK16KLocalizedString4subsElii5QChar
libKF5I18n.so.5:_ZNK16KLocalizedString4subsEmii5QChar
libKF5I18n.so.5:_ZNK16KLocalizedString4subsExii5QChar
libKF5I18n.so.5:_ZNK16KLocalizedString4subsEyii5QChar
libKF5I18n.so.5:_ZNK16KLocalizedString7isEmptyEv
libKF5I18n.so.5:_ZNK16KLocalizedString8toStringEN4Kuit12VisualFormatE
libKF5I18n.so.5:_ZNK16KLocalizedString8toStringEPKc
libKF5I18n.so.5:_ZNK16KLocalizedString8toStringERK11QStringList
libKF5I18n.so.5:_ZNK16KLocalizedString8toStringEv
libKF5I18n.so.5:_ZNK16KLocalizedString9inContextERK7QStringS2_
libKF5I18n.so.5:_ZNK16KLocalizedString9relaxSubsEv
libKF5I18n.so.5:_ZNK17KLocalizedContext10metaObjectEv
libKF5I18n.so.5:_ZNK17KLocalizedContext17translationDomainEv
libKF5I18n.so.5:_ZNK17KLocalizedContext4i18nERK7QStringRK8QVariantS5_S5_S5_S5_S5_S5_S5_S5_S5_
libKF5I18n.so.5:_ZNK17KLocalizedContext5i18ncERK7QStringS2_RK8QVariantS5_S5_S5_S5_S5_S5_S5_S5_S5_
libKF5I18n.so.5:_ZNK17KLocalizedContext5i18ndERK7QStringS2_RK8QVariantS5_S5_S5_S5_S5_S5_S5_S5_S5_
libKF5I18n.so.5:_ZNK17KLocalizedContext5i18npERK7QStringS2_RK8QVariantS5_S5_S5_S5_S5_S5_S5_S5_S5_
libKF5I18n.so.5:_ZNK17KLocalizedContext5xi18nERK7QStringRK8QVariantS5_S5_S5_S5_S5_S5_S5_S5_S5_
libKF5I18n.so.5:_ZNK17KLocalizedContext6i18ncpERK7QStringS2_S2_RK8QVariantS5_S5_S5_S5_S5_S5_S5_S5_S5_
libKF5I18n.so.5:_ZNK17KLocalizedContext6i18ndcERK7QStringS2_S2_RK8QVariantS5_S5_S5_S5_S5_S5_S5_S5_S5_
libKF5I18n.so.5:_ZNK17KLocalizedContext6i18ndpERK7QStringS2_S2_RK8QVariantS5_S5_S5_S5_S5_S5_S5_S5_S5_
libKF5I18n.so.5:_ZNK17KLocalizedContext6xi18ncERK7QStringS2_RK8QVariantS5_S5_S5_S5_S5_S5_S5_S5_S5_
libKF5I18n.so.5:_ZNK17KLocalizedContext6xi18ndERK7QStringS2_RK8QVariantS5_S5_S5_S5_S5_S5_S5_S5_S5_
libKF5I18n.so.5:_ZNK17KLocalizedContext6xi18npERK7QStringS2_RK8QVariantS5_S5_S5_S5_S5_S5_S5_S5_S5_
libKF5I18n.so.5:_ZNK17KLocalizedContext7i18ndcpERK7QStringS2_S2_S2_RK8QVariantS5_S5_S5_S5_S5_S5_S5_S5_S5_
libKF5I18n.so.5:_ZNK17KLocalizedContext7xi18ncpERK7QStringS2_S2_RK8QVariantS5_S5_S5_S5_S5_S5_S5_S5_S5_
libKF5I18n.so.5:_ZNK17KLocalizedContext7xi18ndcERK7QStringS2_S2_RK8QVariantS5_S5_S5_S5_S5_S5_S5_S5_S5_
libKF5I18n.so.5:_ZNK17KLocalizedContext7xi18ndpERK7QStringS2_S2_RK8QVariantS5_S5_S5_S5_S5_S5_S5_S5_S5_
libKF5I18n.so.5:_ZNK17KLocalizedContext8xi18ndcpERK7QStringS2_S2_S2_RK8QVariantS5_S5_S5_S5_S5_S5_S5_S5_S5_
libKF5I18n.so.5:_ZNK20KLocalizedTranslator10metaObjectEv
libKF5I18n.so.5:_ZNK20KLocalizedTranslator9translateEPKcS1_S1_i
