_torchtext.so:PyInit__torchtext
_torchtext.so:_ZN6google8protobuf8internal8byteswapILi1EEEvPv
_torchtext.so:_ZN6google8protobuf8internal8byteswapILi4EEEvPv
_torchtext.so:_ZN6google8protobuf8internal8byteswapILi8EEEvPv
_torchtext.so:_ZN9torchtext12_infer_linesERKNSt7__cxx1112basic_stringIcSt11char_traitsIcESaIcEEE
_torchtext.so:_ZN9torchtext14_concat_tokensESt6vectorISt10shared_ptrIN11ska_ordered30order_preserving_flat_hash_mapINSt7__cxx1112basic_stringIcSt11char_traitsIcESaIcEEElSt4hashIS9_ESt8equal_toIS9_ESaISt4pairIS9_lEEEEESaISI_EEllb
_torchtext.so:_ZN9torchtext21_load_vocab_from_fileERKNSt7__cxx1112basic_stringIcSt11char_traitsIcESaIcEEEll
_torchtext.so:_ZN9torchtext22parse_vocab_file_chunkERKNSt7__cxx1112basic_stringIcSt11char_traitsIcESaIcEEEmllRKSt10shared_ptrIN11ska_ordered30order_preserving_flat_hash_mapIS5_lSt4hashIS5_ESt8equal_toIS5_ESaISt4pairIS5_lEEEEE
_torchtext.so:_ZN9torchtext25parse_raw_text_file_chunkERKNSt7__cxx1112basic_stringIcSt11char_traitsIcESaIcEEEmllRKSt10shared_ptrIN11ska_ordered30order_preserving_flat_hash_mapIS5_lSt4hashIS5_ESt8equal_toIS5_ESaISt4pairIS5_lEEEEERN5torch3jit6ModuleE
_torchtext.so:_ZN9torchtext27_build_vocab_from_text_fileERKNSt7__cxx1112basic_stringIcSt11char_traitsIcESaIcEEEllN5torch3jit6ModuleE
_torchtext.so:_ZN9torchtext50_build_vocab_from_text_file_using_python_tokenizerERKNSt7__cxx1112basic_stringIcSt11char_traitsIcESaIcEEElN8pybind116objectE
libtorchtext.so:_ZN6google8protobuf8internal8byteswapILi1EEEvPv
libtorchtext.so:_ZN6google8protobuf8internal8byteswapILi4EEEvPv
libtorchtext.so:_ZN6google8protobuf8internal8byteswapILi8EEEvPv
libtorchtext.so:_ZN9torchtext11BERTEncoder11BatchEncodeESt6vectorINSt7__cxx1112basic_stringIcSt11char_traitsIcESaIcEEESaIS7_EE
libtorchtext.so:_ZN9torchtext11BERTEncoder13BatchTokenizeESt6vectorINSt7__cxx1112basic_stringIcSt11char_traitsIcESaIcEEESaIS7_EE
libtorchtext.so:_ZN9torchtext11BERTEncoder15_basic_tokenizeERKNSt7__cxx1112basic_stringIjSt11char_traitsIjESaIjEEEb
libtorchtext.so:_ZN9torchtext11BERTEncoder6EncodeENSt7__cxx1112basic_stringIcSt11char_traitsIcESaIcEEE
libtorchtext.so:_ZN9torchtext11BERTEncoder6_cleanERKNSt7__cxx1112basic_stringIjSt11char_traitsIjESaIjEEEbb
libtorchtext.so:_ZN9torchtext11BERTEncoder6split_ERKNSt7__cxx1112basic_stringIcSt11char_traitsIcESaIcEEERSt6vectorIS6_SaIS6_EERKc
libtorchtext.so:_ZN9torchtext11BERTEncoder8TokenizeENSt7__cxx1112basic_stringIcSt11char_traitsIcESaIcEEE
libtorchtext.so:_ZN9torchtext11BERTEncoder8_max_segERKNSt7__cxx1112basic_stringIcSt11char_traitsIcESaIcEEERSt6vectorIS6_SaIS6_EE
libtorchtext.so:_ZN9torchtext11BERTEncoder9kUnkTokenB5cxx11E
libtorchtext.so:_ZN9torchtext11BERTEncoderC1ENS_5VocabEbSt8optionalIbESt6vectorINSt7__cxx1112basic_stringIcSt11char_traitsIcESaIcEEESaISA_EE
libtorchtext.so:_ZN9torchtext11BERTEncoderC1ERKNSt7__cxx1112basic_stringIcSt11char_traitsIcESaIcEEEbSt8optionalIbESt6vectorIS6_SaIS6_EE
libtorchtext.so:_ZN9torchtext11BERTEncoderC2ENS_5VocabEbSt8optionalIbESt6vectorINSt7__cxx1112basic_stringIcSt11char_traitsIcESaIcEEESaISA_EE
libtorchtext.so:_ZN9torchtext11BERTEncoderC2ERKNSt7__cxx1112basic_stringIcSt11char_traitsIcESaIcEEEbSt8optionalIbESt6vectorIS6_SaIS6_EE
libtorchtext.so:_ZN9torchtext11CLIPEncoder12PreTokenize_ENSt7__cxx1112basic_stringIcSt11char_traitsIcESaIcEEE
libtorchtext.so:_ZN9torchtext11CLIPEncoder4BPE_ERKSt6vectorINSt7__cxx1112basic_stringIcSt11char_traitsIcESaIcEEESaIS7_EE
libtorchtext.so:_ZN9torchtext11CLIPEncoder6EncodeERKNSt7__cxx1112basic_stringIcSt11char_traitsIcESaIcEEE
libtorchtext.so:_ZN9torchtext11CLIPEncoder8TokenizeERKNSt7__cxx1112basic_stringIcSt11char_traitsIcESaIcEEE
libtorchtext.so:_ZN9torchtext12_infer_shapeERKNSt7__cxx1112basic_stringIcSt11char_traitsIcESaIcEEEc
libtorchtext.so:_ZN9torchtext12split_tokensENSt7__cxx1112basic_stringIcSt11char_traitsIcESaIcEEES5_
libtorchtext.so:_ZN9torchtext13SentencePieceC1ERKNSt7__cxx1112basic_stringIcSt11char_traitsIcESaIcEEE
libtorchtext.so:_ZN9torchtext13SentencePieceC2ERKNSt7__cxx1112basic_stringIcSt11char_traitsIcESaIcEEE
libtorchtext.so:_ZN9torchtext13is_whitespaceERKNSt7__cxx1112basic_stringIcSt11char_traitsIcESaIcEEE
libtorchtext.so:_ZN9torchtext13load_sp_modelERKNSt7__cxx1112basic_stringIcSt11char_traitsIcESaIcEEE
libtorchtext.so:_ZN9torchtext14GPT2BPEEncoder11ByteEncode_ENSt7__cxx1112basic_stringIcSt11char_traitsIcESaIcEEEb
libtorchtext.so:_ZN9torchtext14GPT2BPEEncoder12PreTokenize_ENSt7__cxx1112basic_stringIcSt11char_traitsIcESaIcEEE
libtorchtext.so:_ZN9torchtext14GPT2BPEEncoder13FindBestPair_ESt6vectorINSt7__cxx1112basic_stringIcSt11char_traitsIcESaIcEEESaIS7_EE
libtorchtext.so:_ZN9torchtext14GPT2BPEEncoder16AddSpecialTokensERKN3c104DictINSt7__cxx1112basic_stringIcSt11char_traitsIcESaIcEEES8_EERKSt6vectorIS8_SaIS8_EE
libtorchtext.so:_ZN9torchtext14GPT2BPEEncoder16GetBPEMergeRank_ENSt7__cxx1112basic_stringIcSt11char_traitsIcESaIcEEE
libtorchtext.so:_ZN9torchtext14GPT2BPEEncoder4BPE_ERKSt6vectorINSt7__cxx1112basic_stringIcSt11char_traitsIcESaIcEEESaIS7_EE
libtorchtext.so:_ZN9torchtext14GPT2BPEEncoder6DecodeB5cxx11ERKSt6vectorIlSaIlEE
libtorchtext.so:_ZN9torchtext14GPT2BPEEncoder6EncodeERKNSt7__cxx1112basic_stringIcSt11char_traitsIcESaIcEEE
libtorchtext.so:_ZN9torchtext14GPT2BPEEncoder8TokenizeERKNSt7__cxx1112basic_stringIcSt11char_traitsIcESaIcEEE
libtorchtext.so:_ZN9torchtext14GPT2BPEEncoderC1ERKN3c104DictINSt7__cxx1112basic_stringIcSt11char_traitsIcESaIcEEElEESB_RKS8_RKNS2_IlS8_EEb
libtorchtext.so:_ZN9torchtext14GPT2BPEEncoderC1ERKSt13unordered_mapINSt7__cxx1112basic_stringIcSt11char_traitsIcESaIcEEElSt4hashIS7_ESt8equal_toIS7_ESaISt4pairIKS7_lEEESI_RSD_RKS1_IlS7_S8_IlESA_IlESaISC_IKlS7_EEEb
libtorchtext.so:_ZN9torchtext14GPT2BPEEncoderC2ERKN3c104DictINSt7__cxx1112basic_stringIcSt11char_traitsIcESaIcEEElEESB_RKS8_RKNS2_IlS8_EEb
libtorchtext.so:_ZN9torchtext14GPT2BPEEncoderC2ERKSt13unordered_mapINSt7__cxx1112basic_stringIcSt11char_traitsIcESaIcEEElSt4hashIS7_ESt8equal_toIS7_ESaISt4pairIKS7_lEEESI_RSD_RKS1_IlS7_S8_IlESA_IlESaISC_IKlS7_EEEb
libtorchtext.so:_ZN9torchtext14RegexTokenizerC1ERKSt6vectorINSt7__cxx1112basic_stringIcSt11char_traitsIcESaIcEEESaIS7_EESB_b
libtorchtext.so:_ZN9torchtext14RegexTokenizerC2ERKSt6vectorINSt7__cxx1112basic_stringIcSt11char_traitsIcESaIcEEESaIS7_EESB_b
libtorchtext.so:_ZN9torchtext14list_str_indexESt6vectorINSt7__cxx1112basic_stringIcSt11char_traitsIcESaIcEEESaIS6_EES6_i
libtorchtext.so:_ZN9torchtext15_concat_vectorsESt6vectorISt10shared_ptrIS0_INSt7__cxx1112basic_stringIcSt11char_traitsIcESaIcEEESaIS7_EEESaISA_EEll
libtorchtext.so:_ZN9torchtext16_serialize_regexB5cxx11ERKN3c1013intrusive_ptrINS_5RegexENS0_6detail34intrusive_target_default_null_typeIS2_EEEE
libtorchtext.so:_ZN9torchtext16_serialize_vocabB5cxx11ERKN3c1013intrusive_ptrINS_5VocabENS0_6detail34intrusive_target_default_null_typeIS2_EEEE
libtorchtext.so:_ZN9torchtext17generate_sp_modelERKNSt7__cxx1112basic_stringIcSt11char_traitsIcESaIcEEERKlS7_S7_
libtorchtext.so:_ZN9torchtext17kMaxCharsPerWordsE
libtorchtext.so:_ZN9torchtext18_deserialize_regexEONSt7__cxx1112basic_stringIcSt11char_traitsIcESaIcEEE
libtorchtext.so:_ZN9torchtext18_deserialize_vocabESt5tupleIJNSt7__cxx1112basic_stringIcSt11char_traitsIcESaIcEEESt6vectorIlSaIlEES7_IS6_SaIS6_EES7_IN2at6TensorESaISD_EEEE
libtorchtext.so:_ZN9torchtext18_serialize_vectorsB5cxx11ERKN3c1013intrusive_ptrINS_7VectorsENS0_6detail34intrusive_target_default_null_typeIS2_EEEE
libtorchtext.so:_ZN9torchtext18clip_pre_tokenizerENSt7__cxx1112basic_stringIcSt11char_traitsIcESaIcEEE
libtorchtext.so:_ZN9torchtext19concatenate_stringsERKSt6vectorINSt7__cxx1112basic_stringIcSt11char_traitsIcESaIcEEESaIS6_EE
libtorchtext.so:_ZN9torchtext19parse_vectors_chunkERKNSt7__cxx1112basic_stringIcSt11char_traitsIcESaIcEEEmlllcSt10shared_ptrISt6vectorIS5_SaIS5_EEEPf
libtorchtext.so:_ZN9torchtext20_deserialize_vectorsESt5tupleIJNSt7__cxx1112basic_stringIcSt11char_traitsIcESaIcEEESt6vectorIlSaIlEES7_IS6_SaIS6_EES7_IN2at6TensorESaISD_EEEE
libtorchtext.so:_ZN9torchtext20load_sp_model_stringENSt7__cxx1112basic_stringIcSt11char_traitsIcESaIcEEE
libtorchtext.so:_ZN9torchtext22gpt2_bpe_pre_tokenizerENSt7__cxx1112basic_stringIcSt11char_traitsIcESaIcEEE
libtorchtext.so:_ZN9torchtext23_serialize_bert_encoderB5cxx11ERKN3c1013intrusive_ptrINS_11BERTEncoderENS0_6detail34intrusive_target_default_null_typeIS2_EEEE
libtorchtext.so:_ZN9torchtext25_deserialize_bert_encoderESt5tupleIJbSt8optionalIbESt6vectorINSt7__cxx1112basic_stringIcSt11char_traitsIcESaIcEEESaIS9_EESB_EE
libtorchtext.so:_ZN9torchtext26_serialize_regex_tokenizerB5cxx11ERKN3c1013intrusive_ptrINS_14RegexTokenizerENS0_6detail34intrusive_target_default_null_typeIS2_EEEE
libtorchtext.so:_ZN9torchtext28_deserialize_regex_tokenizerEOSt5tupleIJSt6vectorINSt7__cxx1112basic_stringIcSt11char_traitsIcESaIcEEESaIS7_EES9_bEE
libtorchtext.so:_ZN9torchtext30_serialize_clip_encoder_pybindB5cxx11ERKN3c1013intrusive_ptrINS_11CLIPEncoderENS0_6detail34intrusive_target_default_null_typeIS2_EEEE
libtorchtext.so:_ZN9torchtext32_deserialize_clip_encoder_pybindESt5tupleIJSt13unordered_mapINSt7__cxx1112basic_stringIcSt11char_traitsIcESaIcEEElSt4hashIS7_ESt8equal_toIS7_ESaISt4pairIKS7_lEEESG_S7_S1_IlS7_S8_IlESA_IlESaISC_IKlS7_EEEbEE
libtorchtext.so:_ZN9torchtext33_load_token_and_vectors_from_fileERKNSt7__cxx1112basic_stringIcSt11char_traitsIcESaIcEEES7_lSt8optionalIN2at6TensorEE
libtorchtext.so:_ZN9torchtext33_serialize_clip_encoder_torchbindB5cxx11ERKN3c1013intrusive_ptrINS_11CLIPEncoderENS0_6detail34intrusive_target_default_null_typeIS2_EEEE
libtorchtext.so:_ZN9torchtext34_serialize_gpt2_bpe_encoder_pybindB5cxx11ERKN3c1013intrusive_ptrINS_14GPT2BPEEncoderENS0_6detail34intrusive_target_default_null_typeIS2_EEEE
libtorchtext.so:_ZN9torchtext35_deserialize_clip_encoder_torchbindESt5tupleIJN3c104DictINSt7__cxx1112basic_stringIcSt11char_traitsIcESaIcEEElEES9_S8_NS2_IlS8_EEbEE
libtorchtext.so:_ZN9torchtext36_deserialize_gpt2_bpe_encoder_pybindESt5tupleIJSt13unordered_mapINSt7__cxx1112basic_stringIcSt11char_traitsIcESaIcEEElSt4hashIS7_ESt8equal_toIS7_ESaISt4pairIKS7_lEEESG_S7_S1_IlS7_S8_IlESA_IlESaISC_IKlS7_EEEbEE
libtorchtext.so:_ZN9torchtext37_serialize_gpt2_bpe_encoder_torchbindB5cxx11ERKN3c1013intrusive_ptrINS_14GPT2BPEEncoderENS0_6detail34intrusive_target_default_null_typeIS2_EEEE
libtorchtext.so:_ZN9torchtext39_deserialize_gpt2_bpe_encoder_torchbindESt5tupleIJN3c104DictINSt7__cxx1112basic_stringIcSt11char_traitsIcESaIcEEElEES9_S8_NS2_IlS8_EEbEE
libtorchtext.so:_ZN9torchtext4impl13infer_offsetsERKNSt7__cxx1112basic_stringIcSt11char_traitsIcESaIcEEEllRSt6vectorImSaImEEl
libtorchtext.so:_ZN9torchtext4impl5divupEll
libtorchtext.so:_ZN9torchtext5RegexC1ERKNSt7__cxx1112basic_stringIcSt11char_traitsIcESaIcEEE
libtorchtext.so:_ZN9torchtext5RegexC2ERKNSt7__cxx1112basic_stringIcSt11char_traitsIcESaIcEEE
libtorchtext.so:_ZN9torchtext5RegexD0Ev
libtorchtext.so:_ZN9torchtext5RegexD1Ev
libtorchtext.so:_ZN9torchtext5RegexD2Ev
libtorchtext.so:_ZN9torchtext5Vocab12append_tokenENSt7__cxx1112basic_stringIcSt11char_traitsIcESaIcEEE
libtorchtext.so:_ZN9torchtext5Vocab12insert_tokenENSt7__cxx1112basic_stringIcSt11char_traitsIcESaIcEEERKl
libtorchtext.so:_ZN9torchtext5Vocab12lookup_tokenB5cxx11ERKl
libtorchtext.so:_ZN9torchtext5Vocab13lookup_tokensB5cxx11ERKSt6vectorIlSaIlEE
libtorchtext.so:_ZN9torchtext5Vocab14lookup_indicesERKSt6vectorISt17basic_string_viewIcSt11char_traitsIcEESaIS5_EE
libtorchtext.so:_ZN9torchtext5Vocab17set_default_indexESt8optionalIlE
libtorchtext.so:_ZN9torchtext5VocabC1ESt6vectorINSt7__cxx1112basic_stringIcSt11char_traitsIcESaIcEEESaIS7_EE
libtorchtext.so:_ZN9torchtext5VocabC1ESt6vectorINSt7__cxx1112basic_stringIcSt11char_traitsIcESaIcEEESaIS7_EERKSt8optionalIlE
libtorchtext.so:_ZN9torchtext5VocabC2ESt6vectorINSt7__cxx1112basic_stringIcSt11char_traitsIcESaIcEEESaIS7_EE
libtorchtext.so:_ZN9torchtext5VocabC2ESt6vectorINSt7__cxx1112basic_stringIcSt11char_traitsIcESaIcEEESaIS7_EERKSt8optionalIlE
libtorchtext.so:_ZN9torchtext7Vectors11__getitem__ERKNSt7__cxx1112basic_stringIcSt11char_traitsIcESaIcEEE
libtorchtext.so:_ZN9torchtext7Vectors11__setitem__ERKNSt7__cxx1112basic_stringIcSt11char_traitsIcESaIcEEERKN2at6TensorE
libtorchtext.so:_ZN9torchtext7Vectors14lookup_vectorsERKSt6vectorINSt7__cxx1112basic_stringIcSt11char_traitsIcESaIcEEESaIS7_EE
libtorchtext.so:_ZN9torchtext7Vectors7__len__Ev
libtorchtext.so:_ZN9torchtext7Vectors8get_stoiB5cxx11Ev
libtorchtext.so:_ZN9torchtext7VectorsC1ERKN11ska_ordered30order_preserving_flat_hash_mapINSt7__cxx1112basic_stringIcSt11char_traitsIcESaIcEEElSt4hashIS8_ESt8equal_toIS8_ESaISt4pairIS8_lEEEEN2at6TensorESK_
libtorchtext.so:_ZN9torchtext7VectorsC1ERKSt6vectorINSt7__cxx1112basic_stringIcSt11char_traitsIcESaIcEEESaIS7_EERKS1_IlSaIlEEN2at6TensorESH_
libtorchtext.so:_ZN9torchtext7VectorsC2ERKN11ska_ordered30order_preserving_flat_hash_mapINSt7__cxx1112basic_stringIcSt11char_traitsIcESaIcEEElSt4hashIS8_ESt8equal_toIS8_ESaISt4pairIS8_lEEEEN2at6TensorESK_
libtorchtext.so:_ZN9torchtext7VectorsC2ERKSt6vectorINSt7__cxx1112basic_stringIcSt11char_traitsIcESaIcEEESaIS7_EERKS1_IlSaIlEEN2at6TensorESH_
libtorchtext.so:_ZN9torchtext9get_pairsESt6vectorINSt7__cxx1112basic_stringIcSt11char_traitsIcESaIcEEESaIS6_EERKS6_
libtorchtext.so:_ZNK9torchtext13SentencePiece11EncodeAsIdsERKNSt7__cxx1112basic_stringIcSt11char_traitsIcESaIcEEE
libtorchtext.so:_ZNK9torchtext13SentencePiece12DecodePiecesERKSt6vectorINSt7__cxx1112basic_stringIcSt11char_traitsIcESaIcEEESaIS7_EE
libtorchtext.so:_ZNK9torchtext13SentencePiece12GetPieceSizeEv
libtorchtext.so:_ZNK9torchtext13SentencePiece14EncodeAsPiecesERKNSt7__cxx1112basic_stringIcSt11char_traitsIcESaIcEEE
libtorchtext.so:_ZNK9torchtext13SentencePiece6EncodeERKNSt7__cxx1112basic_stringIcSt11char_traitsIcESaIcEEE
libtorchtext.so:_ZNK9torchtext13SentencePiece6unk_idEv
libtorchtext.so:_ZNK9torchtext13SentencePiece9DecodeIdsB5cxx11ERKSt6vectorIlSaIlEE
libtorchtext.so:_ZNK9torchtext13SentencePiece9IdToPieceB5cxx11El
libtorchtext.so:_ZNK9torchtext13SentencePiece9PieceToIdERKNSt7__cxx1112basic_stringIcSt11char_traitsIcESaIcEEE
libtorchtext.so:_ZNK9torchtext14GPT2BPEEncoder13GetBPEEncoderB5cxx11Ev
libtorchtext.so:_ZNK9torchtext14GPT2BPEEncoder14GetByteEncoderB5cxx11Ev
libtorchtext.so:_ZNK9torchtext14GPT2BPEEncoder16GetBPEMergeRanksB5cxx11Ev
libtorchtext.so:_ZNK9torchtext14RegexTokenizer6split_ERNSt7__cxx1112basic_stringIcSt11char_traitsIcESaIcEEERSt6vectorIS6_SaIS6_EERKc
libtorchtext.so:_ZNK9torchtext14RegexTokenizer7forwardENSt7__cxx1112basic_stringIcSt11char_traitsIcESaIcEEE
libtorchtext.so:_ZNK9torchtext5Regex14FindAndConsumeEPN3re211StringPieceEPNSt7__cxx1112basic_stringIcSt11char_traitsIcESaIcEEE
libtorchtext.so:_ZNK9torchtext5Regex3SubENSt7__cxx1112basic_stringIcSt11char_traitsIcESaIcEEERKS6_
libtorchtext.so:_ZNK9torchtext5Vocab11__getitem__ERKSt17basic_string_viewIcSt11char_traitsIcEE
libtorchtext.so:_ZNK9torchtext5Vocab12__contains__ERKSt17basic_string_viewIcSt11char_traitsIcEE
libtorchtext.so:_ZNK9torchtext5Vocab17get_default_indexEv
libtorchtext.so:_ZNK9torchtext5Vocab7__len__Ev
libtorchtext.so:_ZNK9torchtext5Vocab8get_itosB5cxx11Ev
libtorchtext.so:_ZNK9torchtext5Vocab8get_stoiB5cxx11Ev
libtorchtext.so:utf8proc_NFC
libtorchtext.so:utf8proc_NFD
libtorchtext.so:utf8proc_NFKC
libtorchtext.so:utf8proc_NFKC_Casefold
libtorchtext.so:utf8proc_NFKD
libtorchtext.so:utf8proc_category
libtorchtext.so:utf8proc_category_string
libtorchtext.so:utf8proc_charwidth
libtorchtext.so:utf8proc_codepoint_valid
libtorchtext.so:utf8proc_decompose
libtorchtext.so:utf8proc_decompose_char
libtorchtext.so:utf8proc_decompose_custom
libtorchtext.so:utf8proc_encode_char
libtorchtext.so:utf8proc_errmsg
libtorchtext.so:utf8proc_get_property
libtorchtext.so:utf8proc_grapheme_break
libtorchtext.so:utf8proc_grapheme_break_stateful
libtorchtext.so:utf8proc_iterate
libtorchtext.so:utf8proc_map
libtorchtext.so:utf8proc_map_custom
libtorchtext.so:utf8proc_normalize_utf32
libtorchtext.so:utf8proc_reencode
libtorchtext.so:utf8proc_tolower
libtorchtext.so:utf8proc_totitle
libtorchtext.so:utf8proc_toupper
libtorchtext.so:utf8proc_unicode_version
libtorchtext.so:utf8proc_utf8class
libtorchtext.so:utf8proc_version
