libnode.so.115:Cr_z__dist_code
libnode.so.115:Cr_z__length_code
libnode.so.115:Cr_z__tr_align
libnode.so.115:Cr_z__tr_flush_bits
libnode.so.115:Cr_z__tr_flush_block
libnode.so.115:Cr_z__tr_init
libnode.so.115:Cr_z__tr_stored_block
libnode.so.115:Cr_z__tr_tally
libnode.so.115:Cr_z_adler32
libnode.so.115:Cr_z_adler32_combine
libnode.so.115:Cr_z_adler32_combine64
libnode.so.115:Cr_z_adler32_z
libnode.so.115:Cr_z_arm_cpu_enable_crc32
libnode.so.115:Cr_z_arm_cpu_enable_pmull
libnode.so.115:Cr_z_compress
libnode.so.115:Cr_z_compress2
libnode.so.115:Cr_z_compressBound
libnode.so.115:Cr_z_copy_with_crc
libnode.so.115:Cr_z_crc32
libnode.so.115:Cr_z_crc32_combine
libnode.so.115:Cr_z_crc32_combine64
libnode.so.115:Cr_z_crc32_combine_gen
libnode.so.115:Cr_z_crc32_combine_gen64
libnode.so.115:Cr_z_crc32_combine_op
libnode.so.115:Cr_z_crc32_z
libnode.so.115:Cr_z_crc_finalize
libnode.so.115:Cr_z_crc_reset
libnode.so.115:Cr_z_deflate
libnode.so.115:Cr_z_deflateBound
libnode.so.115:Cr_z_deflateCopy
libnode.so.115:Cr_z_deflateEnd
libnode.so.115:Cr_z_deflateGetDictionary
libnode.so.115:Cr_z_deflateInit2_
libnode.so.115:Cr_z_deflateInit_
libnode.so.115:Cr_z_deflateParams
libnode.so.115:Cr_z_deflatePending
libnode.so.115:Cr_z_deflatePrime
libnode.so.115:Cr_z_deflateReset
libnode.so.115:Cr_z_deflateResetKeep
libnode.so.115:Cr_z_deflateSetDictionary
libnode.so.115:Cr_z_deflateSetHeader
libnode.so.115:Cr_z_deflateTune
libnode.so.115:Cr_z_deflate_copyright
libnode.so.115:Cr_z_get_crc_table
libnode.so.115:Cr_z_gz_error
libnode.so.115:Cr_z_gzbuffer
libnode.so.115:Cr_z_gzclearerr
libnode.so.115:Cr_z_gzclose
libnode.so.115:Cr_z_gzclose_r
libnode.so.115:Cr_z_gzclose_w
libnode.so.115:Cr_z_gzdirect
libnode.so.115:Cr_z_gzdopen
libnode.so.115:Cr_z_gzeof
libnode.so.115:Cr_z_gzerror
libnode.so.115:Cr_z_gzflush
libnode.so.115:Cr_z_gzfread
libnode.so.115:Cr_z_gzfwrite
libnode.so.115:Cr_z_gzgetc
libnode.so.115:Cr_z_gzgetc_
libnode.so.115:Cr_z_gzgets
libnode.so.115:Cr_z_gzoffset
libnode.so.115:Cr_z_gzoffset64
libnode.so.115:Cr_z_gzopen
libnode.so.115:Cr_z_gzopen64
libnode.so.115:Cr_z_gzprintf
libnode.so.115:Cr_z_gzputc
libnode.so.115:Cr_z_gzputs
libnode.so.115:Cr_z_gzread
libnode.so.115:Cr_z_gzrewind
libnode.so.115:Cr_z_gzseek
libnode.so.115:Cr_z_gzseek64
libnode.so.115:Cr_z_gzsetparams
libnode.so.115:Cr_z_gztell
libnode.so.115:Cr_z_gztell64
libnode.so.115:Cr_z_gzungetc
libnode.so.115:Cr_z_gzvprintf
libnode.so.115:Cr_z_gzwrite
libnode.so.115:Cr_z_inflate
libnode.so.115:Cr_z_inflateBack
libnode.so.115:Cr_z_inflateBackEnd
libnode.so.115:Cr_z_inflateBackInit_
libnode.so.115:Cr_z_inflateCodesUsed
libnode.so.115:Cr_z_inflateCopy
libnode.so.115:Cr_z_inflateEnd
libnode.so.115:Cr_z_inflateGetDictionary
libnode.so.115:Cr_z_inflateGetHeader
libnode.so.115:Cr_z_inflateInit2_
libnode.so.115:Cr_z_inflateInit_
libnode.so.115:Cr_z_inflateMark
libnode.so.115:Cr_z_inflatePrime
libnode.so.115:Cr_z_inflateReset
libnode.so.115:Cr_z_inflateReset2
libnode.so.115:Cr_z_inflateResetKeep
libnode.so.115:Cr_z_inflateSetDictionary
libnode.so.115:Cr_z_inflateSync
libnode.so.115:Cr_z_inflateSyncPoint
libnode.so.115:Cr_z_inflateUndermine
libnode.so.115:Cr_z_inflateValidate
libnode.so.115:Cr_z_inflate_copyright
libnode.so.115:Cr_z_inflate_fast
libnode.so.115:Cr_z_inflate_table
libnode.so.115:Cr_z_uncompress
libnode.so.115:Cr_z_uncompress2
libnode.so.115:Cr_z_x86_cpu_enable_simd
libnode.so.115:Cr_z_x86_cpu_enable_sse2
libnode.so.115:Cr_z_x86_cpu_enable_ssse3
libnode.so.115:Cr_z_zError
libnode.so.115:Cr_z_z_errmsg
libnode.so.115:Cr_z_zcalloc
libnode.so.115:Cr_z_zcfree
libnode.so.115:Cr_z_zlibCompileFlags
libnode.so.115:Cr_z_zlibVersion
libnode.so.115:_Z11halfsiphashjm
libnode.so.115:_Z12_register_fsv
libnode.so.115:_Z12_register_osv
libnode.so.115:_Z12_register_uvv
libnode.so.115:_Z12_register_v8v
libnode.so.115:_Z12get_instancePv
libnode.so.115:_Z13_register_icuv
libnode.so.115:_Z13_register_seav
libnode.so.115:_Z13_register_urlv
libnode.so.115:_Z14_register_blobv
libnode.so.115:_Z14_register_utilv
libnode.so.115:_Z14_register_wasiv
libnode.so.115:_Z14_register_zlibv
libnode.so.115:_Z15_register_http2v
libnode.so.115:_Z15_register_typesv
libnode.so.115:_Z16_register_bufferv
libnode.so.115:_Z16_register_configv
libnode.so.115:_Z16_register_cryptov
libnode.so.115:_Z16_register_errorsv
libnode.so.115:_Z16_register_fs_dirv
libnode.so.115:_Z16_register_reportv
libnode.so.115:_Z16_register_serdesv
libnode.so.115:_Z16_register_timersv
libnode.so.115:_Z16_register_workerv
libnode.so.115:_Z17_register_optionsv
libnode.so.115:_Z17_register_symbolsv
libnode.so.115:_Z18_register_builtinsv
libnode.so.115:_Z18_register_profilerv
libnode.so.115:_Z18_register_tcp_wrapv
libnode.so.115:_Z18_register_tls_wrapv
libnode.so.115:_Z18_register_tty_wrapv
libnode.so.115:_Z18_register_udp_wrapv
libnode.so.115:_Z18_register_watchdogv
libnode.so.115:_Z19_register_constantsv
libnode.so.115:_Z19_register_inspectorv
libnode.so.115:_Z19_register_js_streamv
libnode.so.115:_Z19_register_messagingv
libnode.so.115:_Z19_register_pipe_wrapv
libnode.so.115:_Z20_register_async_wrapv
libnode.so.115:_Z20_register_block_listv
libnode.so.115:_Z20_register_cares_wrapv
libnode.so.115:_Z20_register_contextifyv
libnode.so.115:_Z20_register_heap_utilsv
libnode.so.115:_Z20_register_isolate_fsPN4node11IsolateDataEN2v85LocalINS2_14ObjectTemplateEEE
libnode.so.115:_Z20_register_mksnapshotv
libnode.so.115:_Z20_register_permissionv
libnode.so.115:_Z20_register_spawn_syncv
libnode.so.115:_Z20_register_task_queuev
libnode.so.115:_Z21_register_credentialsv
libnode.so.115:_Z21_register_http_parserv
libnode.so.115:_Z21_register_isolate_icuPN4node11IsolateDataEN2v85LocalINS2_14ObjectTemplateEEE
libnode.so.115:_Z21_register_isolate_urlPN4node11IsolateDataEN2v85LocalINS2_14ObjectTemplateEEE
libnode.so.115:_Z21_register_js_udp_wrapv
libnode.so.115:_Z21_register_module_wrapv
libnode.so.115:_Z21_register_performancev
libnode.so.115:_Z21_register_signal_wrapv
libnode.so.115:_Z21_register_stream_pipev
libnode.so.115:_Z21_register_stream_wrapv
libnode.so.115:_Z22_register_isolate_blobPN4node11IsolateDataEN2v85LocalINS2_14ObjectTemplateEEE
libnode.so.115:_Z22_register_process_wrapv
libnode.so.115:_Z22_register_trace_eventsv
libnode.so.115:_Z22_register_wasm_web_apiv
libnode.so.115:_Z23_register_fs_event_wrapv
libnode.so.115:_Z23_v8_internal_Get_ObjectPv
libnode.so.115:_Z23_v8_internal_Node_PrintPv
libnode.so.115:_Z23_v8_internal_Print_CodePv
libnode.so.115:_Z24_register_isolate_fs_dirPN4node11IsolateDataEN2v85LocalINS2_14ObjectTemplateEEE
libnode.so.115:_Z24_register_isolate_timersPN4node11IsolateDataEN2v85LocalINS2_14ObjectTemplateEEE
libnode.so.115:_Z24_register_isolate_workerPN4node11IsolateDataEN2v85LocalINS2_14ObjectTemplateEEE
libnode.so.115:_Z24_register_string_decoderv
libnode.so.115:_Z25_register_process_methodsv
libnode.so.115:_Z25_v8_internal_Print_ObjectPv
libnode.so.115:_Z26_register_encoding_bindingv
libnode.so.115:_Z26_register_internal_only_v8v
libnode.so.115:_Z26_register_isolate_builtinsPN4node11IsolateDataEN2v85LocalINS2_14ObjectTemplateEEE
libnode.so.115:_Z27_register_isolate_messagingPN4node11IsolateDataEN2v85LocalINS2_14ObjectTemplateEEE
libnode.so.115:_Z28_register_isolate_async_wrapPN4node11IsolateDataEN2v85LocalINS2_14ObjectTemplateEEE
libnode.so.115:_Z28_register_isolate_contextifyPN4node11IsolateDataEN2v85LocalINS2_14ObjectTemplateEEE
libnode.so.115:_Z28_register_isolate_mksnapshotPN4node11IsolateDataEN2v85LocalINS2_14ObjectTemplateEEE
libnode.so.115:_Z29_register_isolate_module_wrapPN4node11IsolateDataEN2v85LocalINS2_14ObjectTemplateEEE
libnode.so.115:_Z29_register_isolate_performancePN4node11IsolateDataEN2v85LocalINS2_14ObjectTemplateEEE
libnode.so.115:_Z29_v8_internal_Print_StackTracev
libnode.so.115:_Z30_v8_internal_Print_LoadHandlerPv
libnode.so.115:_Z30napi_module_register_by_symbolN2v85LocalINS_6ObjectEEENS0_INS_5ValueEEENS0_INS_7ContextEEEPFP12napi_value__P10napi_env__S8_Ei
libnode.so.115:_Z31_register_external_reference_fsPN4node25ExternalReferenceRegistryE
libnode.so.115:_Z31_register_external_reference_osPN4node25ExternalReferenceRegistryE
libnode.so.115:_Z31_register_external_reference_uvPN4node25ExternalReferenceRegistryE
libnode.so.115:_Z31_register_external_reference_v8PN4node25ExternalReferenceRegistryE
libnode.so.115:_Z31_v8_internal_Print_StoreHandlerPv
libnode.so.115:_Z32_register_external_reference_icuPN4node25ExternalReferenceRegistryE
libnode.so.115:_Z32_register_external_reference_seaPN4node25ExternalReferenceRegistryE
libnode.so.115:_Z32_register_external_reference_urlPN4node25ExternalReferenceRegistryE
libnode.so.115:_Z33_register_external_reference_blobPN4node25ExternalReferenceRegistryE
libnode.so.115:_Z33_register_external_reference_utilPN4node25ExternalReferenceRegistryE
libnode.so.115:_Z33_register_external_reference_zlibPN4node25ExternalReferenceRegistryE
libnode.so.115:_Z33_register_isolate_process_methodsPN4node11IsolateDataEN2v85LocalINS2_14ObjectTemplateEEE
libnode.so.115:_Z33_v8_internal_Print_TransitionTreePv
libnode.so.115:_Z34_register_external_reference_typesPN4node25ExternalReferenceRegistryE
libnode.so.115:_Z34_register_isolate_encoding_bindingPN4node11IsolateDataEN2v85LocalINS2_14ObjectTemplateEEE
libnode.so.115:_Z34get_node_api_context_register_funcPN4node11EnvironmentEPKci
libnode.so.115:_Z35_register_external_reference_bufferPN4node25ExternalReferenceRegistryE
libnode.so.115:_Z35_register_external_reference_cryptoPN4node25ExternalReferenceRegistryE
libnode.so.115:_Z35_register_external_reference_errorsPN4node25ExternalReferenceRegistryE
libnode.so.115:_Z35_register_external_reference_fs_dirPN4node25ExternalReferenceRegistryE
libnode.so.115:_Z35_register_external_reference_reportPN4node25ExternalReferenceRegistryE
libnode.so.115:_Z35_register_external_reference_serdesPN4node25ExternalReferenceRegistryE
libnode.so.115:_Z35_register_external_reference_timersPN4node25ExternalReferenceRegistryE
libnode.so.115:_Z35_register_external_reference_workerPN4node25ExternalReferenceRegistryE
libnode.so.115:_Z36_register_external_reference_bindingPN4node25ExternalReferenceRegistryE
libnode.so.115:_Z36_register_external_reference_env_varPN4node25ExternalReferenceRegistryE
libnode.so.115:_Z36_register_external_reference_optionsPN4node25ExternalReferenceRegistryE
libnode.so.115:_Z37_register_external_reference_builtinsPN4node25ExternalReferenceRegistryE
libnode.so.115:_Z37_register_external_reference_profilerPN4node25ExternalReferenceRegistryE
libnode.so.115:_Z37_register_external_reference_tcp_wrapPN4node25ExternalReferenceRegistryE
libnode.so.115:_Z37_register_external_reference_tls_wrapPN4node25ExternalReferenceRegistryE
libnode.so.115:_Z37_register_external_reference_tty_wrapPN4node25ExternalReferenceRegistryE
libnode.so.115:_Z37_register_external_reference_udp_wrapPN4node25ExternalReferenceRegistryE
libnode.so.115:_Z38_register_external_reference_inspectorPN4node25ExternalReferenceRegistryE
libnode.so.115:_Z38_register_external_reference_messagingPN4node25ExternalReferenceRegistryE
libnode.so.115:_Z38_register_external_reference_pipe_wrapPN4node25ExternalReferenceRegistryE
libnode.so.115:_Z39_register_external_reference_async_wrapPN4node25ExternalReferenceRegistryE
libnode.so.115:_Z39_register_external_reference_cares_wrapPN4node25ExternalReferenceRegistryE
libnode.so.115:_Z39_register_external_reference_contextifyPN4node25ExternalReferenceRegistryE
libnode.so.115:_Z39_register_external_reference_heap_utilsPN4node25ExternalReferenceRegistryE
libnode.so.115:_Z39_register_external_reference_mksnapshotPN4node25ExternalReferenceRegistryE
libnode.so.115:_Z39_register_external_reference_permissionPN4node25ExternalReferenceRegistryE
libnode.so.115:_Z39_register_external_reference_spawn_syncPN4node25ExternalReferenceRegistryE
libnode.so.115:_Z39_register_external_reference_task_queuePN4node25ExternalReferenceRegistryE
libnode.so.115:_Z40_register_external_reference_credentialsPN4node25ExternalReferenceRegistryE
libnode.so.115:_Z40_register_external_reference_handle_wrapPN4node25ExternalReferenceRegistryE
libnode.so.115:_Z40_register_external_reference_module_wrapPN4node25ExternalReferenceRegistryE
libnode.so.115:_Z40_register_external_reference_performancePN4node25ExternalReferenceRegistryE
libnode.so.115:_Z40_register_external_reference_signal_wrapPN4node25ExternalReferenceRegistryE
libnode.so.115:_Z40_register_external_reference_stream_wrapPN4node25ExternalReferenceRegistryE
libnode.so.115:_Z41_register_external_reference_process_wrapPN4node25ExternalReferenceRegistryE
libnode.so.115:_Z41_register_external_reference_trace_eventsPN4node25ExternalReferenceRegistryE
libnode.so.115:_Z41_register_external_reference_wasm_web_apiPN4node25ExternalReferenceRegistryE
libnode.so.115:_Z42_register_external_reference_fs_event_wrapPN4node25ExternalReferenceRegistryE
libnode.so.115:_Z43_register_external_reference_process_objectPN4node25ExternalReferenceRegistryE
libnode.so.115:_Z43_register_external_reference_string_decoderPN4node25ExternalReferenceRegistryE
libnode.so.115:_Z44_register_external_reference_process_methodsPN4node25ExternalReferenceRegistryE
libnode.so.115:_Z45_register_external_reference_encoding_bindingPN4node25ExternalReferenceRegistryE
libnode.so.115:_Z45_register_external_reference_internal_only_v8PN4node25ExternalReferenceRegistryE
libnode.so.115:_Z8V8_FatalPKcz
libnode.so.115:_Z9V8_DcheckPKciS0_
libnode.so.115:_ZN10napi_env__21InvokeFinalizerFromGCEPN6v8impl10RefTrackerE
libnode.so.115:_ZN12v8_inspector10StackFrameC1EONS_8String16EiS2_iib
libnode.so.115:_ZN12v8_inspector10StackFrameC2EONS_8String16EiS2_iib
libnode.so.115:_ZN12v8_inspector10V8Debugger12breakProgramEi
libnode.so.115:_ZN12v8_inspector10V8Debugger12queryObjectsEN2v85LocalINS1_7ContextEEENS2_INS1_6ObjectEEE
libnode.so.115:_ZN12v8_inspector10V8Debugger12restartFrameEii
libnode.so.115:_ZN12v8_inspector10V8Debugger13debuggerIdForEi
libnode.so.115:_ZN12v8_inspector10V8Debugger13stackTraceForEiRKNS_14V8StackTraceIdE
libnode.so.115:_ZN12v8_inspector10V8Debugger14ScriptCompiledEN2v85LocalINS1_5debug6ScriptEEEbb
libnode.so.115:_ZN12v8_inspector10V8Debugger14functionScopesEN2v85LocalINS1_7ContextEEENS2_INS1_8FunctionEEE
libnode.so.115:_ZN12v8_inspector10V8Debugger14privateMethodsEN2v85LocalINS1_7ContextEEENS2_INS1_5ValueEEE
libnode.so.115:_ZN12v8_inspector10V8Debugger15ExceptionThrownEN2v85LocalINS1_7ContextEEENS2_INS1_5ValueEEES6_bNS1_5debug13ExceptionTypeE
libnode.so.115:_ZN12v8_inspector10V8Debugger15ShouldBeSkippedEN2v85LocalINS1_5debug6ScriptEEEii
libnode.so.115:_ZN12v8_inspector10V8Debugger15canBreakProgramEv
libnode.so.115:_ZN12v8_inspector10V8Debugger15continueProgramEib
libnode.so.115:_ZN12v8_inspector10V8Debugger15generatorScopesEN2v85LocalINS1_7ContextEEENS2_INS1_5ValueEEE
libnode.so.115:_ZN12v8_inspector10V8Debugger15getTargetScopesEN2v85LocalINS1_7ContextEEENS2_INS1_5ValueEEENS0_15ScopeTargetKindE
libnode.so.115:_ZN12v8_inspector10V8Debugger15storeStackTraceESt10shared_ptrINS_15AsyncStackTraceEE
libnode.so.115:_ZN12v8_inspector10V8Debugger16asyncTaskStartedEPv
libnode.so.115:_ZN12v8_inspector10V8Debugger16createStackTraceEN2v85LocalINS1_10StackTraceEEE
libnode.so.115:_ZN12v8_inspector10V8Debugger16removeBreakpointEi
libnode.so.115:_ZN12v8_inspector10V8Debugger17addInternalObjectEN2v85LocalINS1_7ContextEEENS2_INS1_6ObjectEEENS_19V8InternalValueTypeE
libnode.so.115:_ZN12v8_inspector10V8Debugger17asyncTaskCanceledEPv
libnode.so.115:_ZN12v8_inspector10V8Debugger17asyncTaskFinishedEPv
libnode.so.115:_ZN12v8_inspector10V8Debugger17captureStackTraceEb
libnode.so.115:_ZN12v8_inspector10V8Debugger17interruptAndBreakEi
libnode.so.115:_ZN12v8_inspector10V8Debugger17reportTerminationEv
libnode.so.115:_ZN12v8_inspector10V8Debugger17stepIntoStatementEib
libnode.so.115:_ZN12v8_inspector10V8Debugger17stepOutOfFunctionEi
libnode.so.115:_ZN12v8_inspector10V8Debugger17stepOverStatementEi
libnode.so.115:_ZN12v8_inspector10V8Debugger18AsyncEventOccurredEN2v85debug20DebugAsyncActionTypeEib
libnode.so.115:_ZN12v8_inspector10V8Debugger18asyncTaskScheduledERKNS_10StringViewEPvb
libnode.so.115:_ZN12v8_inspector10V8Debugger18collectionsEntriesEN2v85LocalINS1_7ContextEEENS2_INS1_5ValueEEE
libnode.so.115:_ZN12v8_inspector10V8Debugger18continueToLocationEiPNS_16V8DebuggerScriptESt10unique_ptrINS_8protocol8Debugger8LocationESt14default_deleteIS6_EERKNS_8String16E
libnode.so.115:_ZN12v8_inspector10V8Debugger18currentAsyncParentEv
libnode.so.115:_ZN12v8_inspector10V8Debugger18getCompiledScriptsEiPNS_19V8DebuggerAgentImplE
libnode.so.115:_ZN12v8_inspector10V8Debugger18handleProgramBreakEN2v85LocalINS1_7ContextEEENS2_INS1_5ValueEEERKSt6vectorIiSaIiEENS1_4base7EnumSetINS1_5debug11BreakReasonEiEENSE_13ExceptionTypeEb
libnode.so.115:_ZN12v8_inspector10V8Debugger18internalPropertiesEN2v85LocalINS1_7ContextEEENS2_INS1_5ValueEEE
libnode.so.115:_ZN12v8_inspector10V8Debugger18setPauseOnNextCallEbi
libnode.so.115:_ZN12v8_inspector10V8Debugger18terminateExecutionEN2v85LocalINS1_7ContextEEESt10unique_ptrINS_8protocol7Runtime7Backend26TerminateExecutionCallbackESt14default_deleteIS9_EE
libnode.so.115:_ZN12v8_inspector10V8Debugger20IsFunctionBlackboxedEN2v85LocalINS1_5debug6ScriptEEERKNS3_8LocationES8_
libnode.so.115:_ZN12v8_inspector10V8Debugger20breakProgramOnAssertEi
libnode.so.115:_ZN12v8_inspector10V8Debugger20setBreakpointsActiveEb
libnode.so.115:_ZN12v8_inspector10V8Debugger21BreakProgramRequestedEN2v85LocalINS1_7ContextEEERKSt6vectorIiSaIiEENS1_4base7EnumSetINS1_5debug11BreakReasonEiEE
libnode.so.115:_ZN12v8_inspector10V8Debugger21allAsyncTasksCanceledEv
libnode.so.115:_ZN12v8_inspector10V8Debugger21currentContextGroupIdEv
libnode.so.115:_ZN12v8_inspector10V8Debugger21currentExternalParentEv
libnode.so.115:_ZN12v8_inspector10V8Debugger21nearHeapLimitCallbackEPvmm
libnode.so.115:_ZN12v8_inspector10V8Debugger22BreakOnInstrumentationEN2v85LocalINS1_7ContextEEEi
libnode.so.115:_ZN12v8_inspector10V8Debugger22muteScriptParsedEventsEv
libnode.so.115:_ZN12v8_inspector10V8Debugger22setAsyncCallStackDepthEPNS_19V8DebuggerAgentImplEi
libnode.so.115:_ZN12v8_inspector10V8Debugger22storeCurrentStackTraceERKNS_10StringViewE
libnode.so.115:_ZN12v8_inspector10V8Debugger23clearContinueToLocationEv
libnode.so.115:_ZN12v8_inspector10V8Debugger24asyncTaskStartedForStackEPv
libnode.so.115:_ZN12v8_inspector10V8Debugger24externalAsyncTaskStartedERKNS_14V8StackTraceIdE
libnode.so.115:_ZN12v8_inspector10V8Debugger24unmuteScriptParsedEventsEv
libnode.so.115:_ZN12v8_inspector10V8Debugger25asyncTaskCanceledForStackEPv
libnode.so.115:_ZN12v8_inspector10V8Debugger25asyncTaskFinishedForStackEPv
libnode.so.115:_ZN12v8_inspector10V8Debugger25externalAsyncTaskFinishedERKNS_14V8StackTraceIdE
libnode.so.115:_ZN12v8_inspector10V8Debugger25getPauseOnExceptionsStateEv
libnode.so.115:_ZN12v8_inspector10V8Debugger25setPauseOnExceptionsStateEN2v85debug19ExceptionBreakStateE
libnode.so.115:_ZN12v8_inspector10V8Debugger26asyncTaskScheduledForStackERKNS_10StringViewEPvbb
libnode.so.115:_ZN12v8_inspector10V8Debugger27asyncTaskStartedForSteppingEPv
libnode.so.115:_ZN12v8_inspector10V8Debugger28BreakpointConditionEvaluatedEN2v85LocalINS1_7ContextEEEibNS2_INS1_5ValueEEE
libnode.so.115:_ZN12v8_inspector10V8Debugger28asyncTaskCanceledForSteppingEPv
libnode.so.115:_ZN12v8_inspector10V8Debugger28asyncTaskFinishedForSteppingEPv
libnode.so.115:_ZN12v8_inspector10V8Debugger28setMaxAsyncTaskStacksForTestEi
libnode.so.115:_ZN12v8_inspector10V8Debugger28setMaxCallStackSizeToCaptureEPNS_18V8RuntimeAgentImplEi
libnode.so.115:_ZN12v8_inspector10V8Debugger29asyncTaskCandidateForSteppingEPv
libnode.so.115:_ZN12v8_inspector10V8Debugger29collectOldAsyncStacksIfNeededEv
libnode.so.115:_ZN12v8_inspector10V8Debugger31dumpAsyncTaskStacksStateForTestEv
libnode.so.115:_ZN12v8_inspector10V8Debugger31shouldContinueToCurrentLocationEv
libnode.so.115:_ZN12v8_inspector10V8Debugger32requestPauseAfterInstrumentationEv
libnode.so.115:_ZN12v8_inspector10V8Debugger34installTerminateExecutionCallbacksEN2v85LocalINS1_7ContextEEE
libnode.so.115:_ZN12v8_inspector10V8Debugger35terminateExecutionCompletedCallbackEPN2v87IsolateE
libnode.so.115:_ZN12v8_inspector10V8Debugger46quitMessageLoopIfAgentsFinishedInstrumentationEv
libnode.so.115:_ZN12v8_inspector10V8Debugger47terminateExecutionCompletedCallbackIgnoringDataEPN2v87IsolateEPv
libnode.so.115:_ZN12v8_inspector10V8Debugger6enableEv
libnode.so.115:_ZN12v8_inspector10V8Debugger7disableEv
libnode.so.115:_ZN12v8_inspector10V8Debugger9symbolizeEN2v85LocalINS1_10StackFrameEEE
libnode.so.115:_ZN12v8_inspector10V8DebuggerC1EPN2v87IsolateEPNS_15V8InspectorImplE
libnode.so.115:_ZN12v8_inspector10V8DebuggerC2EPN2v87IsolateEPNS_15V8InspectorImplE
libnode.so.115:_ZN12v8_inspector10V8DebuggerD0Ev
libnode.so.115:_ZN12v8_inspector10V8DebuggerD1Ev
libnode.so.115:_ZN12v8_inspector10V8DebuggerD2Ev
libnode.so.115:_ZN12v8_inspector10toString16ERKNS_10StringViewE
libnode.so.115:_ZN12v8_inspector10toV8StringEPN2v87IsolateERKNS_10StringViewE
libnode.so.115:_ZN12v8_inspector10toV8StringEPN2v87IsolateERKNS_8String16E
libnode.so.115:_ZN12v8_inspector11UTF16ToUTF8B5cxx11EPKDsm
libnode.so.115:_ZN12v8_inspector11UTF8ToUTF16B5cxx11EPKcm
libnode.so.115:_ZN12v8_inspector11V8Inspector6createEPN2v87IsolateEPNS_17V8InspectorClientE
libnode.so.115:_ZN12v8_inspector11ValueMirror13getPropertiesEN2v85LocalINS1_7ContextEEENS2_INS1_6ObjectEEEbbbPNS0_19PropertyAccumulatorE
libnode.so.115:_ZN12v8_inspector11ValueMirror20getPrivatePropertiesEN2v85LocalINS1_7ContextEEENS2_INS1_6ObjectEEEb
libnode.so.115:_ZN12v8_inspector11ValueMirror21getInternalPropertiesEN2v85LocalINS1_7ContextEEENS2_INS1_6ObjectEEEPSt6vectorINS_22InternalPropertyMirrorESaIS8_EE
libnode.so.115:_ZN12v8_inspector11ValueMirror6createEN2v85LocalINS1_7ContextEEENS2_INS1_5ValueEEE
libnode.so.115:_ZN12v8_inspector11ValueMirrorD0Ev
libnode.so.115:_ZN12v8_inspector11ValueMirrorD1Ev
libnode.so.115:_ZN12v8_inspector11ValueMirrorD2Ev
libnode.so.115:_ZN12v8_inspector12StringBuffer6createENS_10StringViewE
libnode.so.115:_ZN12v8_inspector12V8DebuggerIdC1ESt4pairIllE
libnode.so.115:_ZN12v8_inspector12V8DebuggerIdC2ESt4pairIllE
libnode.so.115:_ZN12v8_inspector12clientMirrorEN2v85LocalINS0_7ContextEEENS1_INS0_5ValueEEERKNS_8String16E
libnode.so.115:_ZN12v8_inspector12computeCrc32ERKNS_8String16E
libnode.so.115:_ZN12v8_inspector12toStringViewERKNS_8String16E
libnode.so.115:_ZN12v8_inspector13V8ContextInfo18executionContextIdEN2v85LocalINS1_7ContextEEE
libnode.so.115:_ZN12v8_inspector13findSourceURLERKNS_8String16Eb
libnode.so.115:_ZN12v8_inspector14InjectedScript10bindObjectEN2v85LocalINS1_5ValueEEERKNS_8String16E
libnode.so.115:_ZN12v8_inspector14InjectedScript10wrapObjectEN2v85LocalINS1_5ValueEEERKNS_8String16ENS_8WrapModeENS1_10MaybeLocalIS3_EEiPSt10unique_ptrINS_8protocol7Runtime12RemoteObjectESt14default_deleteISE_EE
libnode.so.115:_ZN12v8_inspector14InjectedScript10wrapObjectEN2v85LocalINS1_5ValueEEERKNS_8String16ENS_8WrapModeEPSt10unique_ptrINS_8protocol7Runtime12RemoteObjectESt14default_deleteISC_EE
libnode.so.115:_ZN12v8_inspector14InjectedScript11ObjectScope18findInjectedScriptEPNS_22V8InspectorSessionImplE
libnode.so.115:_ZN12v8_inspector14InjectedScript11ObjectScopeC1EPNS_22V8InspectorSessionImplERKNS_8String16E
libnode.so.115:_ZN12v8_inspector14InjectedScript11ObjectScopeC2EPNS_22V8InspectorSessionImplERKNS_8String16E
libnode.so.115:_ZN12v8_inspector14InjectedScript11ObjectScopeD0Ev
libnode.so.115:_ZN12v8_inspector14InjectedScript11ObjectScopeD1Ev
libnode.so.115:_ZN12v8_inspector14InjectedScript11ObjectScopeD2Ev
libnode.so.115:_ZN12v8_inspector14InjectedScript12ContextScope18findInjectedScriptEPNS_22V8InspectorSessionImplE
libnode.so.115:_ZN12v8_inspector14InjectedScript12ContextScopeC1EPNS_22V8InspectorSessionImplEi
libnode.so.115:_ZN12v8_inspector14InjectedScript12ContextScopeC2EPNS_22V8InspectorSessionImplEi
libnode.so.115:_ZN12v8_inspector14InjectedScript12ContextScopeD0Ev
libnode.so.115:_ZN12v8_inspector14InjectedScript12ContextScopeD1Ev
libnode.so.115:_ZN12v8_inspector14InjectedScript12ContextScopeD2Ev
libnode.so.115:_ZN12v8_inspector14InjectedScript12unbindObjectEi
libnode.so.115:_ZN12v8_inspector14InjectedScript13getPropertiesEN2v85LocalINS1_6ObjectEEERKNS_8String16EbbbNS_8WrapModeEPSt10unique_ptrISt6vectorIS9_INS_8protocol7Runtime18PropertyDescriptorESt14default_deleteISD_EESaISG_EESE_ISI_EEPN8v8_crdtp6detail8PtrMaybeINSC_16ExceptionDetailsEEE
libnode.so.115:_ZN12v8_inspector14InjectedScript13releaseObjectERKNS_8String16E
libnode.so.115:_ZN12v8_inspector14InjectedScript14CallFrameScope18findInjectedScriptEPNS_22V8InspectorSessionImplE
libnode.so.115:_ZN12v8_inspector14InjectedScript14CallFrameScopeC1EPNS_22V8InspectorSessionImplERKNS_8String16E
libnode.so.115:_ZN12v8_inspector14InjectedScript14CallFrameScopeC2EPNS_22V8InspectorSessionImplERKNS_8String16E
libnode.so.115:_ZN12v8_inspector14InjectedScript14CallFrameScopeD0Ev
libnode.so.115:_ZN12v8_inspector14InjectedScript14CallFrameScopeD1Ev
libnode.so.115:_ZN12v8_inspector14InjectedScript14CallFrameScopeD2Ev
libnode.so.115:_ZN12v8_inspector14InjectedScript14commandLineAPIEv
libnode.so.115:_ZN12v8_inspector14InjectedScript16wrapObjectMirrorERKNS_11ValueMirrorERKNS_8String16ENS_8WrapModeEN2v810MaybeLocalINS8_5ValueEEEiPSt10unique_ptrINS_8protocol7Runtime12RemoteObjectESt14default_deleteISF_EE
libnode.so.115:_ZN12v8_inspector14InjectedScript18addPromiseCallbackEPNS_22V8InspectorSessionImplEN2v810MaybeLocalINS3_5ValueEEERKNS_8String16ENS_8WrapModeEbbSt10shared_ptrINS_16EvaluateCallbackEE
libnode.so.115:_ZN12v8_inspector14InjectedScript18releaseObjectGroupERKNS_8String16E
libnode.so.115:_ZN12v8_inspector14InjectedScript18wrapEvaluateResultEN2v810MaybeLocalINS1_5ValueEEERKNS1_8TryCatchERKNS_8String16ENS_8WrapModeEbPSt10unique_ptrINS_8protocol7Runtime12RemoteObjectESt14default_deleteISF_EEPN8v8_crdtp6detail8PtrMaybeINSE_16ExceptionDetailsEEE
libnode.so.115:_ZN12v8_inspector14InjectedScript19resolveCallArgumentEPNS_8protocol7Runtime12CallArgumentEPN2v85LocalINS5_5ValueEEE
libnode.so.115:_ZN12v8_inspector14InjectedScript21addExceptionToDetailsEN2v85LocalINS1_5ValueEEEPNS_8protocol7Runtime16ExceptionDetailsERKNS_8String16E
libnode.so.115:_ZN12v8_inspector14InjectedScript22createExceptionDetailsEN2v85LocalINS1_7MessageEEENS2_INS1_5ValueEEERKNS_8String16EPN8v8_crdtp6detail8PtrMaybeINS_8protocol7Runtime16ExceptionDetailsEEE
libnode.so.115:_ZN12v8_inspector14InjectedScript22createExceptionDetailsERKN2v88TryCatchERKNS_8String16EPN8v8_crdtp6detail8PtrMaybeINS_8protocol7Runtime16ExceptionDetailsEEE
libnode.so.115:_ZN12v8_inspector14InjectedScript22deleteEvaluateCallbackESt10shared_ptrINS_16EvaluateCallbackEE
libnode.so.115:_ZN12v8_inspector14InjectedScript23setLastEvaluationResultEN2v85LocalINS1_5ValueEEE
libnode.so.115:_ZN12v8_inspector14InjectedScript24bindRemoteObjectIfNeededEiN2v85LocalINS1_7ContextEEENS2_INS1_5ValueEEERKNS_8String16EPNS_8protocol7Runtime12RemoteObjectE
libnode.so.115:_ZN12v8_inspector14InjectedScript24discardEvaluateCallbacksEv
libnode.so.115:_ZN12v8_inspector14InjectedScript31getInternalAndPrivatePropertiesEN2v85LocalINS1_5ValueEEERKNS_8String16EbPSt10unique_ptrISt6vectorIS8_INS_8protocol7Runtime26InternalPropertyDescriptorESt14default_deleteISC_EESaISF_EESD_ISH_EEPS8_IS9_IS8_INSB_25PrivatePropertyDescriptorESD_ISL_EESaISN_EESD_ISP_EE
libnode.so.115:_ZN12v8_inspector14InjectedScript31setCustomObjectFormatterEnabledEb
libnode.so.115:_ZN12v8_inspector14InjectedScript5Scope10initializeEv
libnode.so.115:_ZN12v8_inspector14InjectedScript5Scope18pretendUserGestureEv
libnode.so.115:_ZN12v8_inspector14InjectedScript5Scope21installCommandLineAPIEv
libnode.so.115:_ZN12v8_inspector14InjectedScript5Scope25setPauseOnExceptionsStateEN2v85debug19ExceptionBreakStateE
libnode.so.115:_ZN12v8_inspector14InjectedScript5Scope30allowCodeGenerationFromStringsEv
libnode.so.115:_ZN12v8_inspector14InjectedScript5Scope30ignoreExceptionsAndMuteConsoleEv
libnode.so.115:_ZN12v8_inspector14InjectedScript5Scope7cleanupEv
libnode.so.115:_ZN12v8_inspector14InjectedScript5ScopeC2EPNS_22V8InspectorSessionImplE
libnode.so.115:_ZN12v8_inspector14InjectedScript5ScopeD0Ev
libnode.so.115:_ZN12v8_inspector14InjectedScript5ScopeD1Ev
libnode.so.115:_ZN12v8_inspector14InjectedScript5ScopeD2Ev
libnode.so.115:_ZN12v8_inspector14InjectedScript9wrapTableEN2v85LocalINS1_6ObjectEEENS1_10MaybeLocalINS1_5ArrayEEE
libnode.so.115:_ZN12v8_inspector14InjectedScriptC1EPNS_16InspectedContextEi
libnode.so.115:_ZN12v8_inspector14InjectedScriptC2EPNS_16InspectedContextEi
libnode.so.115:_ZN12v8_inspector14InjectedScriptD1Ev
libnode.so.115:_ZN12v8_inspector14InjectedScriptD2Ev
libnode.so.115:_ZN12v8_inspector14RemoteObjectId5parseERKNS_8String16EPSt10unique_ptrIS0_St14default_deleteIS0_EE
libnode.so.115:_ZN12v8_inspector14RemoteObjectId9serializeEmii
libnode.so.115:_ZN12v8_inspector14V8StackTraceId8ToStringEv
libnode.so.115:_ZN12v8_inspector14V8StackTraceIdC1ENS_10StringViewE
libnode.so.115:_ZN12v8_inspector14V8StackTraceIdC1EmSt4pairIllE
libnode.so.115:_ZN12v8_inspector14V8StackTraceIdC1EmSt4pairIllEb
libnode.so.115:_ZN12v8_inspector14V8StackTraceIdC1Ev
libnode.so.115:_ZN12v8_inspector14V8StackTraceIdC2ENS_10StringViewE
libnode.so.115:_ZN12v8_inspector14V8StackTraceIdC2EmSt4pairIllE
libnode.so.115:_ZN12v8_inspector14V8StackTraceIdC2EmSt4pairIllEb
libnode.so.115:_ZN12v8_inspector14V8StackTraceIdC2Ev
libnode.so.115:_ZN12v8_inspector15AsyncStackTrace5storeEPNS_10V8DebuggerESt10shared_ptrIS0_E
libnode.so.115:_ZN12v8_inspector15AsyncStackTrace7captureEPNS_10V8DebuggerERKNS_8String16Eb
libnode.so.115:_ZN12v8_inspector15AsyncStackTraceC1ERKNS_8String16ESt6vectorISt10shared_ptrINS_10StackFrameEESaIS7_EES5_IS0_ERKNS_14V8StackTraceIdE
libnode.so.115:_ZN12v8_inspector15AsyncStackTraceC2ERKNS_8String16ESt6vectorISt10shared_ptrINS_10StackFrameEESaIS7_EES5_IS0_ERKNS_14V8StackTraceIdE
libnode.so.115:_ZN12v8_inspector15String16Builder12appendNumberEi
libnode.so.115:_ZN12v8_inspector15String16Builder12appendNumberEm
libnode.so.115:_ZN12v8_inspector15String16Builder15reserveCapacityEm
libnode.so.115:_ZN12v8_inspector15String16Builder19appendUnsignedAsHexEh
libnode.so.115:_ZN12v8_inspector15String16Builder19appendUnsignedAsHexEj
libnode.so.115:_ZN12v8_inspector15String16Builder19appendUnsignedAsHexEm
libnode.so.115:_ZN12v8_inspector15String16Builder6appendEDs
libnode.so.115:_ZN12v8_inspector15String16Builder6appendEPKDsm
libnode.so.115:_ZN12v8_inspector15String16Builder6appendEPKcm
libnode.so.115:_ZN12v8_inspector15String16Builder6appendERKNS_8String16E
libnode.so.115:_ZN12v8_inspector15String16Builder6appendEc
libnode.so.115:_ZN12v8_inspector15String16Builder8toStringEv
libnode.so.115:_ZN12v8_inspector15String16BuilderC1Ev
libnode.so.115:_ZN12v8_inspector15String16BuilderC2Ev
libnode.so.115:_ZN12v8_inspector15V8InspectorImpl10disconnectEPNS_22V8InspectorSessionImplE
libnode.so.115:_ZN12v8_inspector15V8InspectorImpl11contextByIdEi
libnode.so.115:_ZN12v8_inspector15V8InspectorImpl11idleStartedEv
libnode.so.115:_ZN12v8_inspector15V8InspectorImpl11sessionByIdEii
libnode.so.115:_ZN12v8_inspector15V8InspectorImpl12idleFinishedEv
libnode.so.115:_ZN12v8_inspector15V8InspectorImpl12regexContextEv
libnode.so.115:_ZN12v8_inspector15V8InspectorImpl13EvaluateScope10setTimeoutEd
libnode.so.115:_ZN12v8_inspector15V8InspectorImpl13EvaluateScopeC1ERKNS_14InjectedScript5ScopeE
libnode.so.115:_ZN12v8_inspector15V8InspectorImpl13EvaluateScopeC2ERKNS_14InjectedScript5ScopeE
libnode.so.115:_ZN12v8_inspector15V8InspectorImpl13EvaluateScopeD1Ev
libnode.so.115:_ZN12v8_inspector15V8InspectorImpl13EvaluateScopeD2Ev
libnode.so.115:_ZN12v8_inspector15V8InspectorImpl13compileScriptEN2v85LocalINS1_7ContextEEERKNS_8String16ES7_
libnode.so.115:_ZN12v8_inspector15V8InspectorImpl14contextCreatedERKNS_13V8ContextInfoE
libnode.so.115:_ZN12v8_inspector15V8InspectorImpl14forEachContextEiRKSt8functionIFvPNS_16InspectedContextEEE
libnode.so.115:_ZN12v8_inspector15V8InspectorImpl14forEachSessionEiRKSt8functionIFvPNS_22V8InspectorSessionImplEEE
libnode.so.115:_ZN12v8_inspector15V8InspectorImpl14muteExceptionsEi
libnode.so.115:_ZN12v8_inspector15V8InspectorImpl15exceptionThrownEN2v85LocalINS1_7ContextEEENS_10StringViewENS2_INS1_5ValueEEES5_S5_jjSt10unique_ptrINS_12V8StackTraceESt14default_deleteIS9_EEi
libnode.so.115:_ZN12v8_inspector15V8InspectorImpl16asyncTaskStartedEPv
libnode.so.115:_ZN12v8_inspector15V8InspectorImpl16contextCollectedEii
libnode.so.115:_ZN12v8_inspector15V8InspectorImpl16contextDestroyedEN2v85LocalINS1_7ContextEEE
libnode.so.115:_ZN12v8_inspector15V8InspectorImpl16createStackTraceEN2v85LocalINS1_10StackTraceEEE
libnode.so.115:_ZN12v8_inspector15V8InspectorImpl16exceptionRevokedEN2v85LocalINS1_7ContextEEEjNS_10StringViewE
libnode.so.115:_ZN12v8_inspector15V8InspectorImpl16generateUniqueIdEv
libnode.so.115:_ZN12v8_inspector15V8InspectorImpl16uniqueDebuggerIdEi
libnode.so.115:_ZN12v8_inspector15V8InspectorImpl16unmuteExceptionsEi
libnode.so.115:_ZN12v8_inspector15V8InspectorImpl17asyncTaskCanceledEPv
libnode.so.115:_ZN12v8_inspector15V8InspectorImpl17asyncTaskFinishedEPv
libnode.so.115:_ZN12v8_inspector15V8InspectorImpl17captureStackTraceEb
libnode.so.115:_ZN12v8_inspector15V8InspectorImpl17resetContextGroupEi
libnode.so.115:_ZN12v8_inspector15V8InspectorImpl18asyncTaskScheduledENS_10StringViewEPvb
libnode.so.115:_ZN12v8_inspector15V8InspectorImpl21allAsyncTasksCanceledEv
libnode.so.115:_ZN12v8_inspector15V8InspectorImpl22associateExceptionDataEN2v85LocalINS1_7ContextEEENS2_INS1_5ValueEEENS2_INS1_4NameEEES6_
libnode.so.115:_ZN12v8_inspector15V8InspectorImpl22storeCurrentStackTraceENS_10StringViewE
libnode.so.115:_ZN12v8_inspector15V8InspectorImpl23discardInspectedContextEii
libnode.so.115:_ZN12v8_inspector15V8InspectorImpl24exceptionMetaDataContextEv
libnode.so.115:_ZN12v8_inspector15V8InspectorImpl24externalAsyncTaskStartedERKNS_14V8StackTraceIdE
libnode.so.115:_ZN12v8_inspector15V8InspectorImpl24hasConsoleMessageStorageEi
libnode.so.115:_ZN12v8_inspector15V8InspectorImpl25externalAsyncTaskFinishedERKNS_14V8StackTraceIdE
libnode.so.115:_ZN12v8_inspector15V8InspectorImpl26getAssociatedExceptionDataEN2v85LocalINS1_5ValueEEE
libnode.so.115:_ZN12v8_inspector15V8InspectorImpl27compileAndRunInternalScriptEN2v85LocalINS1_7ContextEEENS2_INS1_6StringEEE
libnode.so.115:_ZN12v8_inspector15V8InspectorImpl27ensureConsoleMessageStorageEi
libnode.so.115:_ZN12v8_inspector15V8InspectorImpl37getAssociatedExceptionDataForProtocolEN2v85LocalINS1_5ValueEEE
libnode.so.115:_ZN12v8_inspector15V8InspectorImpl7connectEiPNS_11V8Inspector7ChannelENS_10StringViewENS1_16ClientTrustLevelENS1_17SessionPauseStateE
libnode.so.115:_ZN12v8_inspector15V8InspectorImpl7consoleEv
libnode.so.115:_ZN12v8_inspector15V8InspectorImplC1EPN2v87IsolateEPNS_17V8InspectorClientE
libnode.so.115:_ZN12v8_inspector15V8InspectorImplC2EPN2v87IsolateEPNS_17V8InspectorClientE
libnode.so.115:_ZN12v8_inspector15V8InspectorImplD0Ev
libnode.so.115:_ZN12v8_inspector15V8InspectorImplD1Ev
libnode.so.115:_ZN12v8_inspector15V8InspectorImplD2Ev
libnode.so.115:_ZN12v8_inspector15toProtocolValueEN2v85LocalINS0_7ContextEEENS1_INS0_5ValueEEEPSt10unique_ptrINS_8protocol5ValueESt14default_deleteIS8_EE
libnode.so.115:_ZN12v8_inspector15toProtocolValueEN2v85LocalINS0_7ContextEEENS1_INS0_5ValueEEEiPSt10unique_ptrINS_8protocol5ValueESt14default_deleteIS8_EE
libnode.so.115:_ZN12v8_inspector15toProtocolValueEd
libnode.so.115:_ZN12v8_inspector16EvaluateCallback11sendFailureESt8weak_ptrIS0_EPNS_14InjectedScriptERKN8v8_crdtp16DispatchResponseE
libnode.so.115:_ZN12v8_inspector16EvaluateCallback11sendSuccessESt8weak_ptrIS0_EPNS_14InjectedScriptESt10unique_ptrINS_8protocol7Runtime12RemoteObjectESt14default_deleteIS8_EEN8v8_crdtp6detail8PtrMaybeINS7_16ExceptionDetailsEEE
libnode.so.115:_ZN12v8_inspector16InspectedContext11setReportedEib
libnode.so.115:_ZN12v8_inspector16InspectedContext15getInternalTypeEN2v85LocalINS1_6ObjectEEE
libnode.so.115:_ZN12v8_inspector16InspectedContext17addInternalObjectEN2v85LocalINS1_6ObjectEEENS_19V8InternalValueTypeE
libnode.so.115:_ZN12v8_inspector16InspectedContext17getInjectedScriptEi
libnode.so.115:_ZN12v8_inspector16InspectedContext20createInjectedScriptEi
libnode.so.115:_ZN12v8_inspector16InspectedContext21discardInjectedScriptEi
libnode.so.115:_ZN12v8_inspector16InspectedContext9contextIdEN2v85LocalINS1_7ContextEEE
libnode.so.115:_ZN12v8_inspector16InspectedContextC1EPNS_15V8InspectorImplERKNS_13V8ContextInfoEi
libnode.so.115:_ZN12v8_inspector16InspectedContextC2EPNS_15V8InspectorImplERKNS_13V8ContextInfoEi
libnode.so.115:_ZN12v8_inspector16InspectedContextD1Ev
libnode.so.115:_ZN12v8_inspector16InspectedContextD2Ev
libnode.so.115:_ZN12v8_inspector16StringBufferFromENS_8String16E
libnode.so.115:_ZN12v8_inspector16StringBufferFromESt6vectorIhSaIhEE
libnode.so.115:_ZN12v8_inspector16V8ConsoleMessage11setLocationERKNS_8String16EjjSt10unique_ptrINS_16V8StackTraceImplESt14default_deleteIS5_EEi
libnode.so.115:_ZN12v8_inspector16V8ConsoleMessage16contextDestroyedEi
libnode.so.115:_ZN12v8_inspector16V8ConsoleMessage18createForExceptionEdRKNS_8String16ES3_jjSt10unique_ptrINS_16V8StackTraceImplESt14default_deleteIS5_EEiPN2v87IsolateES3_iNS9_5LocalINS9_5ValueEEEj
libnode.so.115:_ZN12v8_inspector16V8ConsoleMessage19createForConsoleAPIEN2v85LocalINS1_7ContextEEEiiPNS_15V8InspectorImplEdNS_14ConsoleAPITypeERKSt6vectorINS2_INS1_5ValueEEESaISA_EERKNS_8String16ESt10unique_ptrINS_16V8StackTraceImplESt14default_deleteISJ_EE
libnode.so.115:_ZN12v8_inspector16V8ConsoleMessage25createForRevokedExceptionEdRKNS_8String16Ej
libnode.so.115:_ZN12v8_inspector16V8ConsoleMessageC1ENS_15V8MessageOriginEdRKNS_8String16E
libnode.so.115:_ZN12v8_inspector16V8ConsoleMessageC2ENS_15V8MessageOriginEdRKNS_8String16E
libnode.so.115:_ZN12v8_inspector16V8ConsoleMessageD1Ev
libnode.so.115:_ZN12v8_inspector16V8ConsoleMessageD2Ev
libnode.so.115:_ZN12v8_inspector16V8DebuggerScript12setSourceURLERKNS_8String16E
libnode.so.115:_ZN12v8_inspector16V8DebuggerScript20removeWasmBreakpointEi
libnode.so.115:_ZN12v8_inspector16V8DebuggerScript6CreateEPN2v87IsolateENS1_5LocalINS1_5debug6ScriptEEEbPNS_19V8DebuggerAgentImplEPNS_17V8InspectorClientE
libnode.so.115:_ZN12v8_inspector16V8DebuggerScriptC2EPN2v87IsolateENS_8String16ES4_S4_
libnode.so.115:_ZN12v8_inspector16V8DebuggerScriptD0Ev
libnode.so.115:_ZN12v8_inspector16V8DebuggerScriptD1Ev
libnode.so.115:_ZN12v8_inspector16V8DebuggerScriptD2Ev
libnode.so.115:_ZN12v8_inspector16V8StackTraceImpl18StackFrameIterator4doneEv
libnode.so.115:_ZN12v8_inspector16V8StackTraceImpl18StackFrameIterator4nextEv
libnode.so.115:_ZN12v8_inspector16V8StackTraceImpl18StackFrameIterator5frameEv
libnode.so.115:_ZN12v8_inspector16V8StackTraceImpl18StackFrameIteratorC1EPKS0_
libnode.so.115:_ZN12v8_inspector16V8StackTraceImpl18StackFrameIteratorC2EPKS0_
libnode.so.115:_ZN12v8_inspector16V8StackTraceImpl5cloneEv
libnode.so.115:_ZN12v8_inspector16V8StackTraceImpl6createEPNS_10V8DebuggerEN2v85LocalINS3_10StackTraceEEEi
libnode.so.115:_ZN12v8_inspector16V8StackTraceImpl7captureEPNS_10V8DebuggerEi
libnode.so.115:_ZN12v8_inspector16V8StackTraceImplC1ESt6vectorISt10shared_ptrINS_10StackFrameEESaIS4_EEiS2_INS_15AsyncStackTraceEERKNS_14V8StackTraceIdE
libnode.so.115:_ZN12v8_inspector16V8StackTraceImplC2ESt6vectorISt10shared_ptrINS_10StackFrameEESaIS4_EEiS2_INS_15AsyncStackTraceEERKNS_14V8StackTraceIdE
libnode.so.115:_ZN12v8_inspector16V8StackTraceImplD0Ev
libnode.so.115:_ZN12v8_inspector16V8StackTraceImplD1Ev
libnode.so.115:_ZN12v8_inspector16V8StackTraceImplD2Ev
libnode.so.115:_ZN12v8_inspector16findSourceMapURLERKNS_8String16Eb
libnode.so.115:_ZN12v8_inspector16toProtocolStringEPN2v87IsolateENS0_5LocalINS0_6StringEEE
libnode.so.115:_ZN12v8_inspector17RemoteCallFrameId5parseERKNS_8String16EPSt10unique_ptrIS0_St14default_deleteIS0_EE
libnode.so.115:_ZN12v8_inspector17RemoteCallFrameId9serializeEmii
libnode.so.115:_ZN12v8_inspector17V8DebuggerBarrierC1EPNS_17V8InspectorClientEi
libnode.so.115:_ZN12v8_inspector17V8DebuggerBarrierC2EPNS_17V8InspectorClientEi
libnode.so.115:_ZN12v8_inspector17V8DebuggerBarrierD1Ev
libnode.so.115:_ZN12v8_inspector17V8DebuggerBarrierD2Ev
libnode.so.115:_ZN12v8_inspector17V8SchemaAgentImpl10getDomainsEPSt10unique_ptrISt6vectorIS1_INS_8protocol6Schema6DomainESt14default_deleteIS5_EESaIS8_EES6_ISA_EE
libnode.so.115:_ZN12v8_inspector17V8SchemaAgentImplC1EPNS_22V8InspectorSessionImplEPN8v8_crdtp15FrontendChannelEPNS_8protocol15DictionaryValueE
libnode.so.115:_ZN12v8_inspector17V8SchemaAgentImplC2EPNS_22V8InspectorSessionImplEPN8v8_crdtp15FrontendChannelEPNS_8protocol15DictionaryValueE
libnode.so.115:_ZN12v8_inspector17V8SchemaAgentImplD0Ev
libnode.so.115:_ZN12v8_inspector17V8SchemaAgentImplD1Ev
libnode.so.115:_ZN12v8_inspector17V8SchemaAgentImplD2Ev
libnode.so.115:_ZN12v8_inspector18RemoteObjectIdBase7parseIdERKNS_8String16E
libnode.so.115:_ZN12v8_inspector18RemoteObjectIdBaseC1Ev
libnode.so.115:_ZN12v8_inspector18RemoteObjectIdBaseC2Ev
libnode.so.115:_ZN12v8_inspector18V8ConsoleAgentImpl12messageAddedEPNS_16V8ConsoleMessageE
libnode.so.115:_ZN12v8_inspector18V8ConsoleAgentImpl13clearMessagesEv
libnode.so.115:_ZN12v8_inspector18V8ConsoleAgentImpl13reportMessageEPNS_16V8ConsoleMessageEb
libnode.so.115:_ZN12v8_inspector18V8ConsoleAgentImpl17reportAllMessagesEv
libnode.so.115:_ZN12v8_inspector18V8ConsoleAgentImpl6enableEv
libnode.so.115:_ZN12v8_inspector18V8ConsoleAgentImpl7disableEv
libnode.so.115:_ZN12v8_inspector18V8ConsoleAgentImpl7enabledEv
libnode.so.115:_ZN12v8_inspector18V8ConsoleAgentImpl7restoreEv
libnode.so.115:_ZN12v8_inspector18V8ConsoleAgentImplC1EPNS_22V8InspectorSessionImplEPN8v8_crdtp15FrontendChannelEPNS_8protocol15DictionaryValueE
libnode.so.115:_ZN12v8_inspector18V8ConsoleAgentImplC2EPNS_22V8InspectorSessionImplEPN8v8_crdtp15FrontendChannelEPNS_8protocol15DictionaryValueE
libnode.so.115:_ZN12v8_inspector18V8ConsoleAgentImplD0Ev
libnode.so.115:_ZN12v8_inspector18V8ConsoleAgentImplD1Ev
libnode.so.115:_ZN12v8_inspector18V8ConsoleAgentImplD2Ev
libnode.so.115:_ZN12v8_inspector18V8InspectorSession17canDispatchMethodENS_10StringViewE
libnode.so.115:_ZN12v8_inspector18V8RuntimeAgentImpl10addBindingEPNS_16InspectedContextERKNS_8String16E
libnode.so.115:_ZN12v8_inspector18V8RuntimeAgentImpl10addBindingERKNS_8String16EN8v8_crdtp6detail10ValueMaybeIiEENS6_IS1_EE
libnode.so.115:_ZN12v8_inspector18V8RuntimeAgentImpl11addBindingsEPNS_16InspectedContextE
libnode.so.115:_ZN12v8_inspector18V8RuntimeAgentImpl12awaitPromiseERKNS_8String16EN8v8_crdtp6detail10ValueMaybeIbEES7_St10unique_ptrINS_8protocol7Runtime7Backend20AwaitPromiseCallbackESt14default_deleteISC_EE
libnode.so.115:_ZN12v8_inspector18V8RuntimeAgentImpl12getHeapUsageEPdS1_
libnode.so.115:_ZN12v8_inspector18V8RuntimeAgentImpl12getIsolateIdEPNS_8String16E
libnode.so.115:_ZN12v8_inspector18V8RuntimeAgentImpl12messageAddedEPNS_16V8ConsoleMessageE
libnode.so.115:_ZN12v8_inspector18V8RuntimeAgentImpl12queryObjectsERKNS_8String16EN8v8_crdtp6detail10ValueMaybeIS1_EEPSt10unique_ptrINS_8protocol7Runtime12RemoteObjectESt14default_deleteISB_EE
libnode.so.115:_ZN12v8_inspector18V8RuntimeAgentImpl13bindingCalledERKNS_8String16ES3_i
libnode.so.115:_ZN12v8_inspector18V8RuntimeAgentImpl13compileScriptERKNS_8String16ES3_bN8v8_crdtp6detail10ValueMaybeIiEEPNS6_IS1_EEPNS5_8PtrMaybeINS_8protocol7Runtime16ExceptionDetailsEEE
libnode.so.115:_ZN12v8_inspector18V8RuntimeAgentImpl13getPropertiesERKNS_8String16EN8v8_crdtp6detail10ValueMaybeIbEES7_S7_S7_PSt10unique_ptrISt6vectorIS8_INS_8protocol7Runtime18PropertyDescriptorESt14default_deleteISC_EESaISF_EESD_ISH_EEPNS5_8PtrMaybeIS9_IS8_INSB_26InternalPropertyDescriptorESD_ISM_EESaISO_EEEEPNSL_IS9_IS8_INSB_25PrivatePropertyDescriptorESD_IST_EESaISV_EEEEPNSL_INSB_16ExceptionDetailsEEE
libnode.so.115:_ZN12v8_inspector18V8RuntimeAgentImpl13releaseObjectERKNS_8String16E
libnode.so.115:_ZN12v8_inspector18V8RuntimeAgentImpl13removeBindingERKNS_8String16E
libnode.so.115:_ZN12v8_inspector18V8RuntimeAgentImpl13reportMessageEPNS_16V8ConsoleMessageEb
libnode.so.115:_ZN12v8_inspector18V8RuntimeAgentImpl14callFunctionOnERKNS_8String16EN8v8_crdtp6detail10ValueMaybeIS1_EENS5_8PtrMaybeISt6vectorISt10unique_ptrINS_8protocol7Runtime12CallArgumentESt14default_deleteISD_EESaISG_EEEENS6_IbEESK_SK_SK_SK_NS6_IiEES7_SK_S7_SK_SA_INSC_7Backend22CallFunctionOnCallbackESE_ISN_EE
libnode.so.115:_ZN12v8_inspector18V8RuntimeAgentImpl15bindingCallbackERKN2v820FunctionCallbackInfoINS1_5ValueEEE
libnode.so.115:_ZN12v8_inspector18V8RuntimeAgentImpl18releaseObjectGroupERKNS_8String16E
libnode.so.115:_ZN12v8_inspector18V8RuntimeAgentImpl18terminateExecutionESt10unique_ptrINS_8protocol7Runtime7Backend26TerminateExecutionCallbackESt14default_deleteIS5_EE
libnode.so.115:_ZN12v8_inspector18V8RuntimeAgentImpl19getExceptionDetailsERKNS_8String16EPN8v8_crdtp6detail8PtrMaybeINS_8protocol7Runtime16ExceptionDetailsEEE
libnode.so.115:_ZN12v8_inspector18V8RuntimeAgentImpl21discardConsoleEntriesEv
libnode.so.115:_ZN12v8_inspector18V8RuntimeAgentImpl23globalLexicalScopeNamesEN8v8_crdtp6detail10ValueMaybeIiEEPSt10unique_ptrISt6vectorINS_8String16ESaIS7_EESt14default_deleteIS9_EE
libnode.so.115:_ZN12v8_inspector18V8RuntimeAgentImpl23runIfWaitingForDebuggerEv
libnode.so.115:_ZN12v8_inspector18V8RuntimeAgentImpl28setMaxCallStackSizeToCaptureEi
libnode.so.115:_ZN12v8_inspector18V8RuntimeAgentImpl29reportExecutionContextCreatedEPNS_16InspectedContextE
libnode.so.115:_ZN12v8_inspector18V8RuntimeAgentImpl31reportExecutionContextDestroyedEPNS_16InspectedContextE
libnode.so.115:_ZN12v8_inspector18V8RuntimeAgentImpl31setCustomObjectFormatterEnabledEb
libnode.so.115:_ZN12v8_inspector18V8RuntimeAgentImpl5resetEv
libnode.so.115:_ZN12v8_inspector18V8RuntimeAgentImpl6enableEv
libnode.so.115:_ZN12v8_inspector18V8RuntimeAgentImpl7disableEv
libnode.so.115:_ZN12v8_inspector18V8RuntimeAgentImpl7inspectESt10unique_ptrINS_8protocol7Runtime12RemoteObjectESt14default_deleteIS4_EES1_INS2_15DictionaryValueES5_IS8_EEi
libnode.so.115:_ZN12v8_inspector18V8RuntimeAgentImpl7restoreEv
libnode.so.115:_ZN12v8_inspector18V8RuntimeAgentImpl8evaluateERKNS_8String16EN8v8_crdtp6detail10ValueMaybeIS1_EENS6_IbEES8_NS6_IiEES8_S8_S8_S8_S8_NS6_IdEES8_S8_S8_S7_S8_St10unique_ptrINS_8protocol7Runtime7Backend16EvaluateCallbackESt14default_deleteISF_EE
libnode.so.115:_ZN12v8_inspector18V8RuntimeAgentImpl9runScriptERKNS_8String16EN8v8_crdtp6detail10ValueMaybeIiEENS6_IS1_EENS6_IbEES9_S9_S9_S9_St10unique_ptrINS_8protocol7Runtime7Backend17RunScriptCallbackESt14default_deleteISE_EE
libnode.so.115:_ZN12v8_inspector18V8RuntimeAgentImplC1EPNS_22V8InspectorSessionImplEPN8v8_crdtp15FrontendChannelEPNS_8protocol15DictionaryValueESt10shared_ptrINS_17V8DebuggerBarrierEE
libnode.so.115:_ZN12v8_inspector18V8RuntimeAgentImplC2EPNS_22V8InspectorSessionImplEPN8v8_crdtp15FrontendChannelEPNS_8protocol15DictionaryValueESt10shared_ptrINS_17V8DebuggerBarrierEE
libnode.so.115:_ZN12v8_inspector18V8RuntimeAgentImplD0Ev
libnode.so.115:_ZN12v8_inspector18V8RuntimeAgentImplD1Ev
libnode.so.115:_ZN12v8_inspector18V8RuntimeAgentImplD2Ev
libnode.so.115:_ZN12v8_inspector18createDataPropertyEN2v85LocalINS0_7ContextEEENS1_INS0_5ArrayEEEiNS1_INS0_5ValueEEE
libnode.so.115:_ZN12v8_inspector18createDataPropertyEN2v85LocalINS0_7ContextEEENS1_INS0_6ObjectEEENS1_INS0_4NameEEENS1_INS0_5ValueEEE
libnode.so.115:_ZN12v8_inspector19V8DebuggerAgentImpl10enableImplEv
libnode.so.115:_ZN12v8_inspector19V8DebuggerAgentImpl11didContinueEv
libnode.so.115:_ZN12v8_inspector19V8DebuggerAgentImpl12breakProgramERKNS_8String16ESt10unique_ptrINS_8protocol15DictionaryValueESt14default_deleteIS6_EE
libnode.so.115:_ZN12v8_inspector19V8DebuggerAgentImpl12restartFrameERKNS_8String16EN8v8_crdtp6detail10ValueMaybeIS1_EEPSt10unique_ptrISt6vectorIS8_INS_8protocol8Debugger9CallFrameESt14default_deleteISC_EESaISF_EESD_ISH_EEPNS5_8PtrMaybeINSA_7Runtime10StackTraceEEEPNSL_INSM_12StackTraceIdEEE
libnode.so.115:_ZN12v8_inspector19V8DebuggerAgentImpl13getStackTraceESt10unique_ptrINS_8protocol7Runtime12StackTraceIdESt14default_deleteIS4_EEPS1_INS3_10StackTraceES5_IS8_EE
libnode.so.115:_ZN12v8_inspector19V8DebuggerAgentImpl13setBreakpointESt10unique_ptrINS_8protocol8Debugger8LocationESt14default_deleteIS4_EEN8v8_crdtp6detail10ValueMaybeINS_8String16EEEPSB_PS7_
libnode.so.115:_ZN12v8_inspector19V8DebuggerAgentImpl14didParseSourceESt10unique_ptrINS_16V8DebuggerScriptESt14default_deleteIS2_EEb
libnode.so.115:_ZN12v8_inspector19V8DebuggerAgentImpl14setReturnValueESt10unique_ptrINS_8protocol7Runtime12CallArgumentESt14default_deleteIS4_EE
libnode.so.115:_ZN12v8_inspector19V8DebuggerAgentImpl15ScriptCollectedEPKNS_16V8DebuggerScriptE
libnode.so.115:_ZN12v8_inspector19V8DebuggerAgentImpl15getScriptSourceERKNS_8String16EPS1_PN8v8_crdtp6detail10ValueMaybeINS_8protocol6BinaryEEE
libnode.so.115:_ZN12v8_inspector19V8DebuggerAgentImpl15getWasmBytecodeERKNS_8String16EPNS_8protocol6BinaryE
libnode.so.115:_ZN12v8_inspector19V8DebuggerAgentImpl15popBreakDetailsEv
libnode.so.115:_ZN12v8_inspector19V8DebuggerAgentImpl15processSkipListEPSt6vectorISt10unique_ptrINS_8protocol8Debugger13LocationRangeESt14default_deleteIS5_EESaIS8_EE
libnode.so.115:_ZN12v8_inspector19V8DebuggerAgentImpl15searchInContentERKNS_8String16ES3_N8v8_crdtp6detail10ValueMaybeIbEES7_PSt10unique_ptrISt6vectorIS8_INS_8protocol8Debugger11SearchMatchESt14default_deleteISC_EESaISF_EESD_ISH_EE
libnode.so.115:_ZN12v8_inspector19V8DebuggerAgentImpl15setScriptSourceERKNS_8String16ES3_N8v8_crdtp6detail10ValueMaybeIbEES7_PNS5_8PtrMaybeISt6vectorISt10unique_ptrINS_8protocol8Debugger9CallFrameESt14default_deleteISD_EESaISG_EEEEPS7_PNS8_INSB_7Runtime10StackTraceEEEPNS8_INSM_12StackTraceIdEEEPS1_PNS8_INSM_16ExceptionDetailsEEE
libnode.so.115:_ZN12v8_inspector19V8DebuggerAgentImpl15shouldBeSkippedERKNS_8String16Eii
libnode.so.115:_ZN12v8_inspector19V8DebuggerAgentImpl16pauseOnAsyncCallESt10unique_ptrINS_8protocol7Runtime12StackTraceIdESt14default_deleteIS4_EE
libnode.so.115:_ZN12v8_inspector19V8DebuggerAgentImpl16pushBreakDetailsERKNS_8String16ESt10unique_ptrINS_8protocol15DictionaryValueESt14default_deleteIS6_EE
libnode.so.115:_ZN12v8_inspector19V8DebuggerAgentImpl16removeBreakpointERKNS_8String16E
libnode.so.115:_ZN12v8_inspector19V8DebuggerAgentImpl16setBreakpointForEN2v85LocalINS1_8FunctionEEENS2_INS1_6StringEEENS0_16BreakpointSourceE
libnode.so.115:_ZN12v8_inspector19V8DebuggerAgentImpl16setSkipAllPausesEb
libnode.so.115:_ZN12v8_inspector19V8DebuggerAgentImpl16setVariableValueEiRKNS_8String16ESt10unique_ptrINS_8protocol7Runtime12CallArgumentESt14default_deleteIS7_EES3_
libnode.so.115:_ZN12v8_inspector19V8DebuggerAgentImpl17clearBreakDetailsEv
libnode.so.115:_ZN12v8_inspector19V8DebuggerAgentImpl17currentCallFramesEPSt10unique_ptrISt6vectorIS1_INS_8protocol8Debugger9CallFrameESt14default_deleteIS5_EESaIS8_EES6_ISA_EE
libnode.so.115:_ZN12v8_inspector19V8DebuggerAgentImpl17setBreakpointImplERKNS_8String16EN2v85LocalINS4_8FunctionEEENS5_INS4_6StringEEE
libnode.so.115:_ZN12v8_inspector19V8DebuggerAgentImpl17setBreakpointImplERKNS_8String16ES3_S3_ii
libnode.so.115:_ZN12v8_inspector19V8DebuggerAgentImpl18continueToLocationESt10unique_ptrINS_8protocol8Debugger8LocationESt14default_deleteIS4_EEN8v8_crdtp6detail10ValueMaybeINS_8String16EEE
libnode.so.115:_ZN12v8_inspector19V8DebuggerAgentImpl18setBlackboxPatternERKNS_8String16E
libnode.so.115:_ZN12v8_inspector19V8DebuggerAgentImpl18setBreakpointByUrlEiN8v8_crdtp6detail10ValueMaybeINS_8String16EEES5_S5_NS3_IiEES5_PS4_PSt10unique_ptrISt6vectorIS8_INS_8protocol8Debugger8LocationESt14default_deleteISC_EESaISF_EESD_ISH_EE
libnode.so.115:_ZN12v8_inspector19V8DebuggerAgentImpl19evaluateOnCallFrameERKNS_8String16ES3_N8v8_crdtp6detail10ValueMaybeIS1_EENS6_IbEES8_S8_S8_S8_NS6_IdEEPSt10unique_ptrINS_8protocol7Runtime12RemoteObjectESt14default_deleteISD_EEPNS5_8PtrMaybeINSC_16ExceptionDetailsEEE
libnode.so.115:_ZN12v8_inspector19V8DebuggerAgentImpl19removeBreakpointForEN2v85LocalINS1_8FunctionEEENS0_16BreakpointSourceE
libnode.so.115:_ZN12v8_inspector19V8DebuggerAgentImpl19setBlackboxPatternsESt10unique_ptrISt6vectorINS_8String16ESaIS3_EESt14default_deleteIS5_EE
libnode.so.115:_ZN12v8_inspector19V8DebuggerAgentImpl19setBlackboxedRangesERKNS_8String16ESt10unique_ptrISt6vectorIS4_INS_8protocol8Debugger14ScriptPositionESt14default_deleteIS8_EESaISB_EES9_ISD_EE
libnode.so.115:_ZN12v8_inspector19V8DebuggerAgentImpl20isFunctionBlackboxedERKNS_8String16ERKN2v85debug8LocationES8_
libnode.so.115:_ZN12v8_inspector19V8DebuggerAgentImpl20removeBreakpointImplERKNS_8String16ERKSt6vectorIPNS_16V8DebuggerScriptESaIS6_EE
libnode.so.115:_ZN12v8_inspector19V8DebuggerAgentImpl20setBreakpointsActiveEb
libnode.so.115:_ZN12v8_inspector19V8DebuggerAgentImpl20setPauseOnExceptionsERKNS_8String16E
libnode.so.115:_ZN12v8_inspector19V8DebuggerAgentImpl21disassembleWasmModuleERKNS_8String16EPN8v8_crdtp6detail10ValueMaybeIS1_EEPiPSt10unique_ptrISt6vectorIiSaIiEESt14default_deleteISD_EEPSA_INS_8protocol8Debugger20WasmDisassemblyChunkESE_ISK_EE
libnode.so.115:_ZN12v8_inspector19V8DebuggerAgentImpl22currentAsyncStackTraceEv
libnode.so.115:_ZN12v8_inspector19V8DebuggerAgentImpl22getPossibleBreakpointsESt10unique_ptrINS_8protocol8Debugger8LocationESt14default_deleteIS4_EEN8v8_crdtp6detail8PtrMaybeIS4_EENS9_10ValueMaybeIbEEPS1_ISt6vectorIS1_INS3_13BreakLocationES5_ISF_EESaISH_EES5_ISJ_EE
libnode.so.115:_ZN12v8_inspector19V8DebuggerAgentImpl22setAsyncCallStackDepthEi
libnode.so.115:_ZN12v8_inspector19V8DebuggerAgentImpl24nextWasmDisassemblyChunkERKNS_8String16EPSt10unique_ptrINS_8protocol8Debugger20WasmDisassemblyChunkESt14default_deleteIS7_EE
libnode.so.115:_ZN12v8_inspector19V8DebuggerAgentImpl24setPauseOnExceptionsImplEi
libnode.so.115:_ZN12v8_inspector19V8DebuggerAgentImpl25currentExternalStackTraceEv
libnode.so.115:_ZN12v8_inspector19V8DebuggerAgentImpl25didPauseOnInstrumentationEi
libnode.so.115:_ZN12v8_inspector19V8DebuggerAgentImpl25resetBlackboxedStateCacheEv
libnode.so.115:_ZN12v8_inspector19V8DebuggerAgentImpl26cancelPauseOnNextStatementEv
libnode.so.115:_ZN12v8_inspector19V8DebuggerAgentImpl27setBreakpointOnFunctionCallERKNS_8String16EN8v8_crdtp6detail10ValueMaybeIS1_EEPS1_
libnode.so.115:_ZN12v8_inspector19V8DebuggerAgentImpl28schedulePauseOnNextStatementERKNS_8String16ESt10unique_ptrINS_8protocol15DictionaryValueESt14default_deleteIS6_EE
libnode.so.115:_ZN12v8_inspector19V8DebuggerAgentImpl28setInstrumentationBreakpointERKNS_8String16EPS1_
libnode.so.115:_ZN12v8_inspector19V8DebuggerAgentImpl42setScriptInstrumentationBreakpointIfNeededEPNS_16V8DebuggerScriptE
libnode.so.115:_ZN12v8_inspector19V8DebuggerAgentImpl4stopEv
libnode.so.115:_ZN12v8_inspector19V8DebuggerAgentImpl5pauseEv
libnode.so.115:_ZN12v8_inspector19V8DebuggerAgentImpl5resetEv
libnode.so.115:_ZN12v8_inspector19V8DebuggerAgentImpl6enableEN8v8_crdtp6detail10ValueMaybeIdEEPNS_8String16E
libnode.so.115:_ZN12v8_inspector19V8DebuggerAgentImpl6resumeEN8v8_crdtp6detail10ValueMaybeIbEE
libnode.so.115:_ZN12v8_inspector19V8DebuggerAgentImpl7disableEv
libnode.so.115:_ZN12v8_inspector19V8DebuggerAgentImpl7restoreEv
libnode.so.115:_ZN12v8_inspector19V8DebuggerAgentImpl7stepOutEv
libnode.so.115:_ZN12v8_inspector19V8DebuggerAgentImpl8didPauseEiN2v85LocalINS1_5ValueEEERKSt6vectorIiSaIiEENS1_5debug13ExceptionTypeEbNS1_4base7EnumSetINSA_11BreakReasonEiEE
libnode.so.115:_ZN12v8_inspector19V8DebuggerAgentImpl8stepIntoEN8v8_crdtp6detail10ValueMaybeIbEENS2_8PtrMaybeISt6vectorISt10unique_ptrINS_8protocol8Debugger13LocationRangeESt14default_deleteISA_EESaISD_EEEE
libnode.so.115:_ZN12v8_inspector19V8DebuggerAgentImpl8stepOverEN8v8_crdtp6detail8PtrMaybeISt6vectorISt10unique_ptrINS_8protocol8Debugger13LocationRangeESt14default_deleteIS8_EESaISB_EEEE
libnode.so.115:_ZN12v8_inspector19V8DebuggerAgentImplC1EPNS_22V8InspectorSessionImplEPN8v8_crdtp15FrontendChannelEPNS_8protocol15DictionaryValueE
libnode.so.115:_ZN12v8_inspector19V8DebuggerAgentImplC2EPNS_22V8InspectorSessionImplEPN8v8_crdtp15FrontendChannelEPNS_8protocol15DictionaryValueE
libnode.so.115:_ZN12v8_inspector19V8DebuggerAgentImplD0Ev
libnode.so.115:_ZN12v8_inspector19V8DebuggerAgentImplD1Ev
libnode.so.115:_ZN12v8_inspector19V8DebuggerAgentImplD2Ev
libnode.so.115:_ZN12v8_inspector19V8ProfilerAgentImpl13nextProfileIdEv
libnode.so.115:_ZN12v8_inspector19V8ProfilerAgentImpl13stopProfilingERKNS_8String16Eb
libnode.so.115:_ZN12v8_inspector19V8ProfilerAgentImpl14consoleProfileERKNS_8String16E
libnode.so.115:_ZN12v8_inspector19V8ProfilerAgentImpl14startProfilingERKNS_8String16E
libnode.so.115:_ZN12v8_inspector19V8ProfilerAgentImpl17consoleProfileEndERKNS_8String16E
libnode.so.115:_ZN12v8_inspector19V8ProfilerAgentImpl19setSamplingIntervalEi
libnode.so.115:_ZN12v8_inspector19V8ProfilerAgentImpl19stopPreciseCoverageEv
libnode.so.115:_ZN12v8_inspector19V8ProfilerAgentImpl19takePreciseCoverageEPSt10unique_ptrISt6vectorIS1_INS_8protocol8Profiler14ScriptCoverageESt14default_deleteIS5_EESaIS8_EES6_ISA_EEPd
libnode.so.115:_ZN12v8_inspector19V8ProfilerAgentImpl20startPreciseCoverageEN8v8_crdtp6detail10ValueMaybeIbEES4_S4_Pd
libnode.so.115:_ZN12v8_inspector19V8ProfilerAgentImpl21getBestEffortCoverageEPSt10unique_ptrISt6vectorIS1_INS_8protocol8Profiler14ScriptCoverageESt14default_deleteIS5_EESaIS8_EES6_ISA_EE
libnode.so.115:_ZN12v8_inspector19V8ProfilerAgentImpl33triggerPreciseCoverageDeltaUpdateERKNS_8String16E
libnode.so.115:_ZN12v8_inspector19V8ProfilerAgentImpl4stopEPSt10unique_ptrINS_8protocol8Profiler7ProfileESt14default_deleteIS4_EE
libnode.so.115:_ZN12v8_inspector19V8ProfilerAgentImpl5startEv
libnode.so.115:_ZN12v8_inspector19V8ProfilerAgentImpl6enableEv
libnode.so.115:_ZN12v8_inspector19V8ProfilerAgentImpl7disableEv
libnode.so.115:_ZN12v8_inspector19V8ProfilerAgentImpl7restoreEv
libnode.so.115:_ZN12v8_inspector19V8ProfilerAgentImplC1EPNS_22V8InspectorSessionImplEPN8v8_crdtp15FrontendChannelEPNS_8protocol15DictionaryValueE
libnode.so.115:_ZN12v8_inspector19V8ProfilerAgentImplC2EPNS_22V8InspectorSessionImplEPN8v8_crdtp15FrontendChannelEPNS_8protocol15DictionaryValueE
libnode.so.115:_ZN12v8_inspector19V8ProfilerAgentImplD0Ev
libnode.so.115:_ZN12v8_inspector19V8ProfilerAgentImplD1Ev
libnode.so.115:_ZN12v8_inspector19V8ProfilerAgentImplD2Ev
libnode.so.115:_ZN12v8_inspector20arrayToProtocolValueEN2v85LocalINS0_7ContextEEENS1_INS0_5ArrayEEEiPSt10unique_ptrINS_8protocol9ListValueESt14default_deleteIS8_EE
libnode.so.115:_ZN12v8_inspector20stackTraceIdToStringEm
libnode.so.115:_ZN12v8_inspector20stringViewStartsWithERKNS_10StringViewEPKc
libnode.so.115:_ZN12v8_inspector21V8WebDriverSerializer16serializeV8ValueEN2v85LocalINS1_6ObjectEEENS2_INS1_7ContextEEEi
libnode.so.115:_ZN12v8_inspector21generateCustomPreviewEiRKNS_8String16EN2v85LocalINS3_6ObjectEEENS3_10MaybeLocalINS3_5ValueEEEiPSt10unique_ptrINS_8protocol7Runtime13CustomPreviewESt14default_deleteISD_EE
libnode.so.115:_ZN12v8_inspector21objectToProtocolValueEN2v85LocalINS0_7ContextEEENS1_INS0_6ObjectEEEiPSt10unique_ptrINS_8protocol15DictionaryValueESt14default_deleteIS8_EE
libnode.so.115:_ZN12v8_inspector22V8InspectorSessionImpl10agentStateERKNS_8String16E
libnode.so.115:_ZN12v8_inspector22V8InspectorSessionImpl10wrapObjectEN2v85LocalINS1_7ContextEEENS2_INS1_5ValueEEENS_10StringViewEb
libnode.so.115:_ZN12v8_inspector22V8InspectorSessionImpl10wrapObjectEN2v85LocalINS1_7ContextEEENS2_INS1_5ValueEEERKNS_8String16Eb
libnode.so.115:_ZN12v8_inspector22V8InspectorSessionImpl11FallThroughEiN8v8_crdtp4spanIhEES3_
libnode.so.115:_ZN12v8_inspector22V8InspectorSessionImpl12breakProgramENS_10StringViewES1_
libnode.so.115:_ZN12v8_inspector22V8InspectorSessionImpl12unwrapObjectEPSt10unique_ptrINS_12StringBufferESt14default_deleteIS2_EENS_10StringViewEPN2v85LocalINS8_5ValueEEEPNS9_INS8_7ContextEEES6_
libnode.so.115:_ZN12v8_inspector22V8InspectorSessionImpl12unwrapObjectERKNS_8String16EPN2v85LocalINS4_5ValueEEEPNS5_INS4_7ContextEEEPS1_
libnode.so.115:_ZN12v8_inspector22V8InspectorSessionImpl15inspectedObjectEj
libnode.so.115:_ZN12v8_inspector22V8InspectorSessionImpl16setSkipAllPausesEb
libnode.so.115:_ZN12v8_inspector22V8InspectorSessionImpl16supportedDomainsEv
libnode.so.115:_ZN12v8_inspector22V8InspectorSessionImpl17reportAllContextsEPNS_18V8RuntimeAgentImplE
libnode.so.115:_ZN12v8_inspector22V8InspectorSessionImpl18addInspectedObjectESt10unique_ptrINS_18V8InspectorSession11InspectableESt14default_deleteIS3_EE
libnode.so.115:_ZN12v8_inspector22V8InspectorSessionImpl18findInjectedScriptEPNS_18RemoteObjectIdBaseERPNS_14InjectedScriptE
libnode.so.115:_ZN12v8_inspector22V8InspectorSessionImpl18findInjectedScriptEiRPNS_14InjectedScriptE
libnode.so.115:_ZN12v8_inspector22V8InspectorSessionImpl18releaseObjectGroupENS_10StringViewE
libnode.so.115:_ZN12v8_inspector22V8InspectorSessionImpl18releaseObjectGroupERKNS_8String16E
libnode.so.115:_ZN12v8_inspector22V8InspectorSessionImpl19searchInTextByLinesENS_10StringViewES1_bb
libnode.so.115:_ZN12v8_inspector22V8InspectorSessionImpl20SendProtocolResponseEiSt10unique_ptrIN8v8_crdtp12SerializableESt14default_deleteIS3_EE
libnode.so.115:_ZN12v8_inspector22V8InspectorSessionImpl20serializeForFrontendESt10unique_ptrIN8v8_crdtp12SerializableESt14default_deleteIS3_EE
libnode.so.115:_ZN12v8_inspector22V8InspectorSessionImpl20supportedDomainsImplEv
libnode.so.115:_ZN12v8_inspector22V8InspectorSessionImpl22discardInjectedScriptsEv
libnode.so.115:_ZN12v8_inspector22V8InspectorSessionImpl23dispatchProtocolMessageENS_10StringViewE
libnode.so.115:_ZN12v8_inspector22V8InspectorSessionImpl24SendProtocolNotificationESt10unique_ptrIN8v8_crdtp12SerializableESt14default_deleteIS3_EE
libnode.so.115:_ZN12v8_inspector22V8InspectorSessionImpl26FlushProtocolNotificationsEv
libnode.so.115:_ZN12v8_inspector22V8InspectorSessionImpl26cancelPauseOnNextStatementEv
libnode.so.115:_ZN12v8_inspector22V8InspectorSessionImpl28schedulePauseOnNextStatementENS_10StringViewES1_
libnode.so.115:_ZN12v8_inspector22V8InspectorSessionImpl29initializeCommandLineAPIScopeEi
libnode.so.115:_ZN12v8_inspector22V8InspectorSessionImpl31setCustomObjectFormatterEnabledEb
libnode.so.115:_ZN12v8_inspector22V8InspectorSessionImpl33triggerPreciseCoverageDeltaUpdateENS_10StringViewE
libnode.so.115:_ZN12v8_inspector22V8InspectorSessionImpl4stopEv
libnode.so.115:_ZN12v8_inspector22V8InspectorSessionImpl5resetEv
libnode.so.115:_ZN12v8_inspector22V8InspectorSessionImpl5stateEv
libnode.so.115:_ZN12v8_inspector22V8InspectorSessionImpl6createEPNS_15V8InspectorImplEiiPNS_11V8Inspector7ChannelENS_10StringViewENS3_16ClientTrustLevelESt10shared_ptrINS_17V8DebuggerBarrierEE
libnode.so.115:_ZN12v8_inspector22V8InspectorSessionImpl6resumeEb
libnode.so.115:_ZN12v8_inspector22V8InspectorSessionImpl8stepOverEv
libnode.so.115:_ZN12v8_inspector22V8InspectorSessionImpl9wrapTableEN2v85LocalINS1_7ContextEEENS2_INS1_6ObjectEEENS1_10MaybeLocalINS1_5ArrayEEE
libnode.so.115:_ZN12v8_inspector22V8InspectorSessionImplC1EPNS_15V8InspectorImplEiiPNS_11V8Inspector7ChannelENS_10StringViewENS3_16ClientTrustLevelESt10shared_ptrINS_17V8DebuggerBarrierEE
libnode.so.115:_ZN12v8_inspector22V8InspectorSessionImplC2EPNS_15V8InspectorImplEiiPNS_11V8Inspector7ChannelENS_10StringViewENS3_16ClientTrustLevelESt10shared_ptrINS_17V8DebuggerBarrierEE
libnode.so.115:_ZN12v8_inspector22V8InspectorSessionImplD0Ev
libnode.so.115:_ZN12v8_inspector22V8InspectorSessionImplD1Ev
libnode.so.115:_ZN12v8_inspector22V8InspectorSessionImplD2Ev
libnode.so.115:_ZN12v8_inspector22toV8StringInternalizedEPN2v87IsolateEPKc
libnode.so.115:_ZN12v8_inspector22toV8StringInternalizedEPN2v87IsolateERKNS_8String16E
libnode.so.115:_ZN12v8_inspector23V8ConsoleMessageStorage10addMessageESt10unique_ptrINS_16V8ConsoleMessageESt14default_deleteIS2_EE
libnode.so.115:_ZN12v8_inspector23V8ConsoleMessageStorage10countResetEiRKNS_8String16E
libnode.so.115:_ZN12v8_inspector23V8ConsoleMessageStorage16contextDestroyedEi
libnode.so.115:_ZN12v8_inspector23V8ConsoleMessageStorage30shouldReportDeprecationMessageEiRKNS_8String16E
libnode.so.115:_ZN12v8_inspector23V8ConsoleMessageStorage4timeEiRKNS_8String16E
libnode.so.115:_ZN12v8_inspector23V8ConsoleMessageStorage5clearEv
libnode.so.115:_ZN12v8_inspector23V8ConsoleMessageStorage5countEiRKNS_8String16E
libnode.so.115:_ZN12v8_inspector23V8ConsoleMessageStorage7timeEndEiRKNS_8String16E
libnode.so.115:_ZN12v8_inspector23V8ConsoleMessageStorage7timeLogEiRKNS_8String16E
libnode.so.115:_ZN12v8_inspector23V8ConsoleMessageStorage8hasTimerEiRKNS_8String16E
libnode.so.115:_ZN12v8_inspector23V8ConsoleMessageStorageC1EPNS_15V8InspectorImplEi
libnode.so.115:_ZN12v8_inspector23V8ConsoleMessageStorageC2EPNS_15V8InspectorImplEi
libnode.so.115:_ZN12v8_inspector23V8ConsoleMessageStorageD1Ev
libnode.so.115:_ZN12v8_inspector23V8ConsoleMessageStorageD2Ev
libnode.so.115:_ZN12v8_inspector23V8HeapProfilerAgentImpl12stopSamplingEPSt10unique_ptrINS_8protocol12HeapProfiler19SamplingHeapProfileESt14default_deleteIS4_EE
libnode.so.115:_ZN12v8_inspector23V8HeapProfilerAgentImpl13startSamplingEN8v8_crdtp6detail10ValueMaybeIdEENS3_IbEES5_
libnode.so.115:_ZN12v8_inspector23V8HeapProfilerAgentImpl14collectGarbageESt10unique_ptrINS_8protocol12HeapProfiler7Backend22CollectGarbageCallbackESt14default_deleteIS5_EE
libnode.so.115:_ZN12v8_inspector23V8HeapProfilerAgentImpl15getHeapObjectIdERKNS_8String16EPS1_
libnode.so.115:_ZN12v8_inspector23V8HeapProfilerAgentImpl16takeHeapSnapshotEN8v8_crdtp6detail10ValueMaybeIbEES4_S4_S4_
libnode.so.115:_ZN12v8_inspector23V8HeapProfilerAgentImpl18getSamplingProfileEPSt10unique_ptrINS_8protocol12HeapProfiler19SamplingHeapProfileESt14default_deleteIS4_EE
libnode.so.115:_ZN12v8_inspector23V8HeapProfilerAgentImpl22addInspectedHeapObjectERKNS_8String16E
libnode.so.115:_ZN12v8_inspector23V8HeapProfilerAgentImpl22requestHeapStatsUpdateEv
libnode.so.115:_ZN12v8_inspector23V8HeapProfilerAgentImpl23getObjectByHeapObjectIdERKNS_8String16EN8v8_crdtp6detail10ValueMaybeIS1_EEPSt10unique_ptrINS_8protocol7Runtime12RemoteObjectESt14default_deleteISB_EE
libnode.so.115:_ZN12v8_inspector23V8HeapProfilerAgentImpl23stopTrackingHeapObjectsEN8v8_crdtp6detail10ValueMaybeIbEES4_S4_S4_
libnode.so.115:_ZN12v8_inspector23V8HeapProfilerAgentImpl24startTrackingHeapObjectsEN8v8_crdtp6detail10ValueMaybeIbEE
libnode.so.115:_ZN12v8_inspector23V8HeapProfilerAgentImpl31stopTrackingHeapObjectsInternalEv
libnode.so.115:_ZN12v8_inspector23V8HeapProfilerAgentImpl32startTrackingHeapObjectsInternalEb
libnode.so.115:_ZN12v8_inspector23V8HeapProfilerAgentImpl6enableEv
libnode.so.115:_ZN12v8_inspector23V8HeapProfilerAgentImpl7disableEv
libnode.so.115:_ZN12v8_inspector23V8HeapProfilerAgentImpl7onTimerEPv
libnode.so.115:_ZN12v8_inspector23V8HeapProfilerAgentImpl7restoreEv
libnode.so.115:_ZN12v8_inspector23V8HeapProfilerAgentImplC1EPNS_22V8InspectorSessionImplEPN8v8_crdtp15FrontendChannelEPNS_8protocol15DictionaryValueE
libnode.so.115:_ZN12v8_inspector23V8HeapProfilerAgentImplC2EPNS_22V8InspectorSessionImplEPN8v8_crdtp15FrontendChannelEPNS_8protocol15DictionaryValueE
libnode.so.115:_ZN12v8_inspector23V8HeapProfilerAgentImplD0Ev
libnode.so.115:_ZN12v8_inspector23V8HeapProfilerAgentImplD1Ev
libnode.so.115:_ZN12v8_inspector23V8HeapProfilerAgentImplD2Ev
libnode.so.115:_ZN12v8_inspector23searchInTextByLinesImplEPNS_18V8InspectorSessionERKNS_8String16ES4_bb
libnode.so.115:_ZN12v8_inspector28SetMaxAsyncTaskStacksForTestEPNS_11V8InspectorEi
libnode.so.115:_ZN12v8_inspector29toProtocolStringWithTypeCheckEPN2v87IsolateENS0_5LocalINS0_5ValueEEE
libnode.so.115:_ZN12v8_inspector31DumpAsyncTaskStacksStateForTestEPNS_11V8InspectorE
libnode.so.115:_ZN12v8_inspector7V8RegexC1EPNS_15V8InspectorImplERKNS_8String16Ebb
libnode.so.115:_ZN12v8_inspector7V8RegexC2EPNS_15V8InspectorImplERKNS_8String16Ebb
libnode.so.115:_ZN12v8_inspector8String1610fromDoubleEd
libnode.so.115:_ZN12v8_inspector8String1610fromDoubleEdi
libnode.so.115:_ZN12v8_inspector8String1611fromIntegerEi
libnode.so.115:_ZN12v8_inspector8String1611fromIntegerEm
libnode.so.115:_ZN12v8_inspector8String1611fromUTF16LEEPKDsm
libnode.so.115:_ZN12v8_inspector8String1611fromUTF16LEEPKtm
libnode.so.115:_ZN12v8_inspector8String1613fromInteger64El
libnode.so.115:_ZN12v8_inspector8String168fromUTF8EPKcm
libnode.so.115:_ZN12v8_inspector8String16C1EONSt7__cxx1112basic_stringIDsSt11char_traitsIDsESaIDsEEE
libnode.so.115:_ZN12v8_inspector8String16C1EPKDs
libnode.so.115:_ZN12v8_inspector8String16C1EPKDsm
libnode.so.115:_ZN12v8_inspector8String16C1EPKc
libnode.so.115:_ZN12v8_inspector8String16C1EPKcm
libnode.so.115:_ZN12v8_inspector8String16C1EPKtm
libnode.so.115:_ZN12v8_inspector8String16C1ERKNSt7__cxx1112basic_stringIDsSt11char_traitsIDsESaIDsEEE
libnode.so.115:_ZN12v8_inspector8String16C2EONSt7__cxx1112basic_stringIDsSt11char_traitsIDsESaIDsEEE
libnode.so.115:_ZN12v8_inspector8String16C2EPKDs
libnode.so.115:_ZN12v8_inspector8String16C2EPKDsm
libnode.so.115:_ZN12v8_inspector8String16C2EPKc
libnode.so.115:_ZN12v8_inspector8String16C2EPKcm
libnode.so.115:_ZN12v8_inspector8String16C2EPKtm
libnode.so.115:_ZN12v8_inspector8String16C2ERKNSt7__cxx1112basic_stringIDsSt11char_traitsIDsESaIDsEEE
libnode.so.115:_ZN12v8_inspector8TaskInfoC1EPN2v87IsolateEPNS_9V8ConsoleENS1_5LocalINS1_6ObjectEEE
libnode.so.115:_ZN12v8_inspector8TaskInfoC2EPN2v87IsolateEPNS_9V8ConsoleENS1_5LocalINS1_6ObjectEEE
libnode.so.115:_ZN12v8_inspector8internal12V8DebuggerId8generateEPNS_15V8InspectorImplE
libnode.so.115:_ZN12v8_inspector8internal12V8DebuggerIdC1ERKNS_8String16E
libnode.so.115:_ZN12v8_inspector8internal12V8DebuggerIdC1ESt4pairIllE
libnode.so.115:_ZN12v8_inspector8internal12V8DebuggerIdC2ERKNS_8String16E
libnode.so.115:_ZN12v8_inspector8internal12V8DebuggerIdC2ESt4pairIllE
libnode.so.115:_ZN12v8_inspector8protocol12HeapProfiler10Dispatcher4wireEPN8v8_crdtp14UberDispatcherEPNS1_7BackendE
libnode.so.115:_ZN12v8_inspector8protocol12HeapProfiler19SamplingHeapProfile23deserializer_descriptorEv
libnode.so.115:_ZN12v8_inspector8protocol12HeapProfiler20DomainDispatcherImpl12stopSamplingERKN8v8_crdtp12DispatchableE
libnode.so.115:_ZN12v8_inspector8protocol12HeapProfiler20DomainDispatcherImpl13startSamplingERKN8v8_crdtp12DispatchableE
libnode.so.115:_ZN12v8_inspector8protocol12HeapProfiler20DomainDispatcherImpl14collectGarbageERKN8v8_crdtp12DispatchableE
libnode.so.115:_ZN12v8_inspector8protocol12HeapProfiler20DomainDispatcherImpl15getHeapObjectIdERKN8v8_crdtp12DispatchableE
libnode.so.115:_ZN12v8_inspector8protocol12HeapProfiler20DomainDispatcherImpl16takeHeapSnapshotERKN8v8_crdtp12DispatchableE
libnode.so.115:_ZN12v8_inspector8protocol12HeapProfiler20DomainDispatcherImpl18getSamplingProfileERKN8v8_crdtp12DispatchableE
libnode.so.115:_ZN12v8_inspector8protocol12HeapProfiler20DomainDispatcherImpl22addInspectedHeapObjectERKN8v8_crdtp12DispatchableE
libnode.so.115:_ZN12v8_inspector8protocol12HeapProfiler20DomainDispatcherImpl23getObjectByHeapObjectIdERKN8v8_crdtp12DispatchableE
libnode.so.115:_ZN12v8_inspector8protocol12HeapProfiler20DomainDispatcherImpl23stopTrackingHeapObjectsERKN8v8_crdtp12DispatchableE
libnode.so.115:_ZN12v8_inspector8protocol12HeapProfiler20DomainDispatcherImpl24startTrackingHeapObjectsERKN8v8_crdtp12DispatchableE
libnode.so.115:_ZN12v8_inspector8protocol12HeapProfiler20DomainDispatcherImpl6enableERKN8v8_crdtp12DispatchableE
libnode.so.115:_ZN12v8_inspector8protocol12HeapProfiler20DomainDispatcherImpl7disableERKN8v8_crdtp12DispatchableE
libnode.so.115:_ZN12v8_inspector8protocol12HeapProfiler20DomainDispatcherImpl8DispatchEN8v8_crdtp4spanIhEE
libnode.so.115:_ZN12v8_inspector8protocol12HeapProfiler23SamplingHeapProfileNode23deserializer_descriptorEv
libnode.so.115:_ZN12v8_inspector8protocol12HeapProfiler25SamplingHeapProfileSample23deserializer_descriptorEv
libnode.so.115:_ZN12v8_inspector8protocol12HeapProfiler8Frontend13resetProfilesEv
libnode.so.115:_ZN12v8_inspector8protocol12HeapProfiler8Frontend15heapStatsUpdateESt10unique_ptrISt6vectorIiSaIiEESt14default_deleteIS6_EE
libnode.so.115:_ZN12v8_inspector8protocol12HeapProfiler8Frontend16lastSeenObjectIdEid
libnode.so.115:_ZN12v8_inspector8protocol12HeapProfiler8Frontend19sendRawNotificationESt10unique_ptrIN8v8_crdtp12SerializableESt14default_deleteIS5_EE
libnode.so.115:_ZN12v8_inspector8protocol12HeapProfiler8Frontend20addHeapSnapshotChunkERKNS_8String16E
libnode.so.115:_ZN12v8_inspector8protocol12HeapProfiler8Frontend26reportHeapSnapshotProgressEiiN8v8_crdtp6detail10ValueMaybeIbEE
libnode.so.115:_ZN12v8_inspector8protocol12HeapProfiler8Frontend5flushEv
libnode.so.115:_ZN12v8_inspector8protocol12HeapProfiler8Metainfo10domainNameE
libnode.so.115:_ZN12v8_inspector8protocol12HeapProfiler8Metainfo13commandPrefixE
libnode.so.115:_ZN12v8_inspector8protocol12HeapProfiler8Metainfo7versionE
libnode.so.115:_ZN12v8_inspector8protocol15DictionaryValue10setBooleanERKNS_8String16Eb
libnode.so.115:_ZN12v8_inspector8protocol15DictionaryValue10setIntegerERKNS_8String16Ei
libnode.so.115:_ZN12v8_inspector8protocol15DictionaryValue6removeERKNS_8String16E
libnode.so.115:_ZN12v8_inspector8protocol15DictionaryValue8setArrayERKNS_8String16ESt10unique_ptrINS0_9ListValueESt14default_deleteIS6_EE
libnode.so.115:_ZN12v8_inspector8protocol15DictionaryValue8setValueERKNS_8String16ESt10unique_ptrINS0_5ValueESt14default_deleteIS6_EE
libnode.so.115:_ZN12v8_inspector8protocol15DictionaryValue9setDoubleERKNS_8String16Ed
libnode.so.115:_ZN12v8_inspector8protocol15DictionaryValue9setObjectERKNS_8String16ESt10unique_ptrIS1_St14default_deleteIS1_EE
libnode.so.115:_ZN12v8_inspector8protocol15DictionaryValue9setStringERKNS_8String16ES4_
libnode.so.115:_ZN12v8_inspector8protocol15DictionaryValueC1Ev
libnode.so.115:_ZN12v8_inspector8protocol15DictionaryValueC2Ev
libnode.so.115:_ZN12v8_inspector8protocol15DictionaryValueD0Ev
libnode.so.115:_ZN12v8_inspector8protocol15DictionaryValueD1Ev
libnode.so.115:_ZN12v8_inspector8protocol15DictionaryValueD2Ev
libnode.so.115:_ZN12v8_inspector8protocol5Value11parseBinaryEPKhm
libnode.so.115:_ZN12v8_inspector8protocol6Binary10fromBase64ERKNS_8String16EPb
libnode.so.115:_ZN12v8_inspector8protocol6Object9fromValueEPNS0_5ValueEPN8v8_crdtp12ErrorSupportE
libnode.so.115:_ZN12v8_inspector8protocol6ObjectC1ESt10unique_ptrINS0_15DictionaryValueESt14default_deleteIS3_EE
libnode.so.115:_ZN12v8_inspector8protocol6ObjectC2ESt10unique_ptrINS0_15DictionaryValueESt14default_deleteIS3_EE
libnode.so.115:_ZN12v8_inspector8protocol6ObjectD0Ev
libnode.so.115:_ZN12v8_inspector8protocol6ObjectD1Ev
libnode.so.115:_ZN12v8_inspector8protocol6ObjectD2Ev
libnode.so.115:_ZN12v8_inspector8protocol6Schema10Dispatcher4wireEPN8v8_crdtp14UberDispatcherEPNS1_7BackendE
libnode.so.115:_ZN12v8_inspector8protocol6Schema20DomainDispatcherImpl10getDomainsERKN8v8_crdtp12DispatchableE
libnode.so.115:_ZN12v8_inspector8protocol6Schema20DomainDispatcherImpl8DispatchEN8v8_crdtp4spanIhEE
libnode.so.115:_ZN12v8_inspector8protocol6Schema3API6Domain10fromBinaryEPKhm
libnode.so.115:_ZN12v8_inspector8protocol6Schema6Domain23deserializer_descriptorEv
libnode.so.115:_ZN12v8_inspector8protocol6Schema8Frontend19sendRawNotificationESt10unique_ptrIN8v8_crdtp12SerializableESt14default_deleteIS5_EE
libnode.so.115:_ZN12v8_inspector8protocol6Schema8Frontend5flushEv
libnode.so.115:_ZN12v8_inspector8protocol6Schema8Metainfo10domainNameE
libnode.so.115:_ZN12v8_inspector8protocol6Schema8Metainfo13commandPrefixE
libnode.so.115:_ZN12v8_inspector8protocol6Schema8Metainfo7versionE
libnode.so.115:_ZN12v8_inspector8protocol7Console10Dispatcher4wireEPN8v8_crdtp14UberDispatcherEPNS1_7BackendE
libnode.so.115:_ZN12v8_inspector8protocol7Console14ConsoleMessage10SourceEnum10ConsoleApiE
libnode.so.115:_ZN12v8_inspector8protocol7Console14ConsoleMessage10SourceEnum10JavascriptE
libnode.so.115:_ZN12v8_inspector8protocol7Console14ConsoleMessage10SourceEnum11DeprecationE
libnode.so.115:_ZN12v8_inspector8protocol7Console14ConsoleMessage10SourceEnum3XmlE
libnode.so.115:_ZN12v8_inspector8protocol7Console14ConsoleMessage10SourceEnum5OtherE
libnode.so.115:_ZN12v8_inspector8protocol7Console14ConsoleMessage10SourceEnum6WorkerE
libnode.so.115:_ZN12v8_inspector8protocol7Console14ConsoleMessage10SourceEnum7NetworkE
libnode.so.115:_ZN12v8_inspector8protocol7Console14ConsoleMessage10SourceEnum7StorageE
libnode.so.115:_ZN12v8_inspector8protocol7Console14ConsoleMessage10SourceEnum8AppcacheE
libnode.so.115:_ZN12v8_inspector8protocol7Console14ConsoleMessage10SourceEnum8SecurityE
libnode.so.115:_ZN12v8_inspector8protocol7Console14ConsoleMessage10SourceEnum9RenderingE
libnode.so.115:_ZN12v8_inspector8protocol7Console14ConsoleMessage23deserializer_descriptorEv
libnode.so.115:_ZN12v8_inspector8protocol7Console14ConsoleMessage9LevelEnum3LogE
libnode.so.115:_ZN12v8_inspector8protocol7Console14ConsoleMessage9LevelEnum4InfoE
libnode.so.115:_ZN12v8_inspector8protocol7Console14ConsoleMessage9LevelEnum5DebugE
libnode.so.115:_ZN12v8_inspector8protocol7Console14ConsoleMessage9LevelEnum5ErrorE
libnode.so.115:_ZN12v8_inspector8protocol7Console14ConsoleMessage9LevelEnum7WarningE
libnode.so.115:_ZN12v8_inspector8protocol7Console20DomainDispatcherImpl13clearMessagesERKN8v8_crdtp12DispatchableE
libnode.so.115:_ZN12v8_inspector8protocol7Console20DomainDispatcherImpl6enableERKN8v8_crdtp12DispatchableE
libnode.so.115:_ZN12v8_inspector8protocol7Console20DomainDispatcherImpl7disableERKN8v8_crdtp12DispatchableE
libnode.so.115:_ZN12v8_inspector8protocol7Console20DomainDispatcherImpl8DispatchEN8v8_crdtp4spanIhEE
libnode.so.115:_ZN12v8_inspector8protocol7Console8Frontend12messageAddedESt10unique_ptrINS1_14ConsoleMessageESt14default_deleteIS4_EE
libnode.so.115:_ZN12v8_inspector8protocol7Console8Frontend19sendRawNotificationESt10unique_ptrIN8v8_crdtp12SerializableESt14default_deleteIS5_EE
libnode.so.115:_ZN12v8_inspector8protocol7Console8Frontend5flushEv
libnode.so.115:_ZN12v8_inspector8protocol7Console8Metainfo10domainNameE
libnode.so.115:_ZN12v8_inspector8protocol7Console8Metainfo13commandPrefixE
libnode.so.115:_ZN12v8_inspector8protocol7Console8Metainfo7versionE
libnode.so.115:_ZN12v8_inspector8protocol7Runtime10Dispatcher4wireEPN8v8_crdtp14UberDispatcherEPNS1_7BackendE
libnode.so.115:_ZN12v8_inspector8protocol7Runtime10StackTrace23deserializer_descriptorEv
libnode.so.115:_ZN12v8_inspector8protocol7Runtime12CallArgument23deserializer_descriptorEv
libnode.so.115:_ZN12v8_inspector8protocol7Runtime12EntryPreview23deserializer_descriptorEv
libnode.so.115:_ZN12v8_inspector8protocol7Runtime12RemoteObject11SubtypeEnum10TypedarrayE
libnode.so.115:_ZN12v8_inspector8protocol7Runtime12RemoteObject11SubtypeEnum11ArraybufferE
libnode.so.115:_ZN12v8_inspector8protocol7Runtime12RemoteObject11SubtypeEnum17WebassemblymemoryE
libnode.so.115:_ZN12v8_inspector8protocol7Runtime12RemoteObject11SubtypeEnum3MapE
libnode.so.115:_ZN12v8_inspector8protocol7Runtime12RemoteObject11SubtypeEnum3SetE
libnode.so.115:_ZN12v8_inspector8protocol7Runtime12RemoteObject11SubtypeEnum4DateE
libnode.so.115:_ZN12v8_inspector8protocol7Runtime12RemoteObject11SubtypeEnum4NodeE
libnode.so.115:_ZN12v8_inspector8protocol7Runtime12RemoteObject11SubtypeEnum4NullE
libnode.so.115:_ZN12v8_inspector8protocol7Runtime12RemoteObject11SubtypeEnum5ArrayE
libnode.so.115:_ZN12v8_inspector8protocol7Runtime12RemoteObject11SubtypeEnum5ErrorE
libnode.so.115:_ZN12v8_inspector8protocol7Runtime12RemoteObject11SubtypeEnum5ProxyE
libnode.so.115:_ZN12v8_inspector8protocol7Runtime12RemoteObject11SubtypeEnum6RegexpE
libnode.so.115:_ZN12v8_inspector8protocol7Runtime12RemoteObject11SubtypeEnum7PromiseE
libnode.so.115:_ZN12v8_inspector8protocol7Runtime12RemoteObject11SubtypeEnum7WeakmapE
libnode.so.115:_ZN12v8_inspector8protocol7Runtime12RemoteObject11SubtypeEnum7WeaksetE
libnode.so.115:_ZN12v8_inspector8protocol7Runtime12RemoteObject11SubtypeEnum8DataviewE
libnode.so.115:_ZN12v8_inspector8protocol7Runtime12RemoteObject11SubtypeEnum8IteratorE
libnode.so.115:_ZN12v8_inspector8protocol7Runtime12RemoteObject11SubtypeEnum9GeneratorE
libnode.so.115:_ZN12v8_inspector8protocol7Runtime12RemoteObject11SubtypeEnum9WasmvalueE
libnode.so.115:_ZN12v8_inspector8protocol7Runtime12RemoteObject23deserializer_descriptorEv
libnode.so.115:_ZN12v8_inspector8protocol7Runtime12RemoteObject8TypeEnum6BigintE
libnode.so.115:_ZN12v8_inspector8protocol7Runtime12RemoteObject8TypeEnum6NumberE
libnode.so.115:_ZN12v8_inspector8protocol7Runtime12RemoteObject8TypeEnum6ObjectE
libnode.so.115:_ZN12v8_inspector8protocol7Runtime12RemoteObject8TypeEnum6StringE
libnode.so.115:_ZN12v8_inspector8protocol7Runtime12RemoteObject8TypeEnum6SymbolE
libnode.so.115:_ZN12v8_inspector8protocol7Runtime12RemoteObject8TypeEnum7BooleanE
libnode.so.115:_ZN12v8_inspector8protocol7Runtime12RemoteObject8TypeEnum8FunctionE
libnode.so.115:_ZN12v8_inspector8protocol7Runtime12RemoteObject8TypeEnum9UndefinedE
libnode.so.115:_ZN12v8_inspector8protocol7Runtime12StackTraceId23deserializer_descriptorEv
libnode.so.115:_ZN12v8_inspector8protocol7Runtime13CustomPreview23deserializer_descriptorEv
libnode.so.115:_ZN12v8_inspector8protocol7Runtime13ObjectPreview11SubtypeEnum10TypedarrayE
libnode.so.115:_ZN12v8_inspector8protocol7Runtime13ObjectPreview11SubtypeEnum11ArraybufferE
libnode.so.115:_ZN12v8_inspector8protocol7Runtime13ObjectPreview11SubtypeEnum17WebassemblymemoryE
libnode.so.115:_ZN12v8_inspector8protocol7Runtime13ObjectPreview11SubtypeEnum3MapE
libnode.so.115:_ZN12v8_inspector8protocol7Runtime13ObjectPreview11SubtypeEnum3SetE
libnode.so.115:_ZN12v8_inspector8protocol7Runtime13ObjectPreview11SubtypeEnum4DateE
libnode.so.115:_ZN12v8_inspector8protocol7Runtime13ObjectPreview11SubtypeEnum4NodeE
libnode.so.115:_ZN12v8_inspector8protocol7Runtime13ObjectPreview11SubtypeEnum4NullE
libnode.so.115:_ZN12v8_inspector8protocol7Runtime13ObjectPreview11SubtypeEnum5ArrayE
libnode.so.115:_ZN12v8_inspector8protocol7Runtime13ObjectPreview11SubtypeEnum5ErrorE
libnode.so.115:_ZN12v8_inspector8protocol7Runtime13ObjectPreview11SubtypeEnum5ProxyE
libnode.so.115:_ZN12v8_inspector8protocol7Runtime13ObjectPreview11SubtypeEnum6RegexpE
libnode.so.115:_ZN12v8_inspector8protocol7Runtime13ObjectPreview11SubtypeEnum7PromiseE
libnode.so.115:_ZN12v8_inspector8protocol7Runtime13ObjectPreview11SubtypeEnum7WeakmapE
libnode.so.115:_ZN12v8_inspector8protocol7Runtime13ObjectPreview11SubtypeEnum7WeaksetE
libnode.so.115:_ZN12v8_inspector8protocol7Runtime13ObjectPreview11SubtypeEnum8DataviewE
libnode.so.115:_ZN12v8_inspector8protocol7Runtime13ObjectPreview11SubtypeEnum8IteratorE
libnode.so.115:_ZN12v8_inspector8protocol7Runtime13ObjectPreview11SubtypeEnum9GeneratorE
libnode.so.115:_ZN12v8_inspector8protocol7Runtime13ObjectPreview11SubtypeEnum9WasmvalueE
libnode.so.115:_ZN12v8_inspector8protocol7Runtime13ObjectPreview23deserializer_descriptorEv
libnode.so.115:_ZN12v8_inspector8protocol7Runtime13ObjectPreview8TypeEnum6BigintE
libnode.so.115:_ZN12v8_inspector8protocol7Runtime13ObjectPreview8TypeEnum6NumberE
libnode.so.115:_ZN12v8_inspector8protocol7Runtime13ObjectPreview8TypeEnum6ObjectE
libnode.so.115:_ZN12v8_inspector8protocol7Runtime13ObjectPreview8TypeEnum6StringE
libnode.so.115:_ZN12v8_inspector8protocol7Runtime13ObjectPreview8TypeEnum6SymbolE
libnode.so.115:_ZN12v8_inspector8protocol7Runtime13ObjectPreview8TypeEnum7BooleanE
libnode.so.115:_ZN12v8_inspector8protocol7Runtime13ObjectPreview8TypeEnum8FunctionE
libnode.so.115:_ZN12v8_inspector8protocol7Runtime13ObjectPreview8TypeEnum9UndefinedE
libnode.so.115:_ZN12v8_inspector8protocol7Runtime14WebDriverValue23deserializer_descriptorEv
libnode.so.115:_ZN12v8_inspector8protocol7Runtime14WebDriverValue8TypeEnum10TypedarrayE
libnode.so.115:_ZN12v8_inspector8protocol7Runtime14WebDriverValue8TypeEnum11ArraybufferE
libnode.so.115:_ZN12v8_inspector8protocol7Runtime14WebDriverValue8TypeEnum3MapE
libnode.so.115:_ZN12v8_inspector8protocol7Runtime14WebDriverValue8TypeEnum3SetE
libnode.so.115:_ZN12v8_inspector8protocol7Runtime14WebDriverValue8TypeEnum4DateE
libnode.so.115:_ZN12v8_inspector8protocol7Runtime14WebDriverValue8TypeEnum4NodeE
libnode.so.115:_ZN12v8_inspector8protocol7Runtime14WebDriverValue8TypeEnum4NullE
libnode.so.115:_ZN12v8_inspector8protocol7Runtime14WebDriverValue8TypeEnum5ArrayE
libnode.so.115:_ZN12v8_inspector8protocol7Runtime14WebDriverValue8TypeEnum5ErrorE
libnode.so.115:_ZN12v8_inspector8protocol7Runtime14WebDriverValue8TypeEnum5ProxyE
libnode.so.115:_ZN12v8_inspector8protocol7Runtime14WebDriverValue8TypeEnum6BigintE
libnode.so.115:_ZN12v8_inspector8protocol7Runtime14WebDriverValue8TypeEnum6NumberE
libnode.so.115:_ZN12v8_inspector8protocol7Runtime14WebDriverValue8TypeEnum6ObjectE
libnode.so.115:_ZN12v8_inspector8protocol7Runtime14WebDriverValue8TypeEnum6RegexpE
libnode.so.115:_ZN12v8_inspector8protocol7Runtime14WebDriverValue8TypeEnum6StringE
libnode.so.115:_ZN12v8_inspector8protocol7Runtime14WebDriverValue8TypeEnum6SymbolE
libnode.so.115:_ZN12v8_inspector8protocol7Runtime14WebDriverValue8TypeEnum6WindowE
libnode.so.115:_ZN12v8_inspector8protocol7Runtime14WebDriverValue8TypeEnum7BooleanE
libnode.so.115:_ZN12v8_inspector8protocol7Runtime14WebDriverValue8TypeEnum7PromiseE
libnode.so.115:_ZN12v8_inspector8protocol7Runtime14WebDriverValue8TypeEnum7WeakmapE
libnode.so.115:_ZN12v8_inspector8protocol7Runtime14WebDriverValue8TypeEnum7WeaksetE
libnode.so.115:_ZN12v8_inspector8protocol7Runtime14WebDriverValue8TypeEnum8FunctionE
libnode.so.115:_ZN12v8_inspector8protocol7Runtime14WebDriverValue8TypeEnum9UndefinedE
libnode.so.115:_ZN12v8_inspector8protocol7Runtime15PropertyPreview11SubtypeEnum10TypedarrayE
libnode.so.115:_ZN12v8_inspector8protocol7Runtime15PropertyPreview11SubtypeEnum11ArraybufferE
libnode.so.115:_ZN12v8_inspector8protocol7Runtime15PropertyPreview11SubtypeEnum17WebassemblymemoryE
libnode.so.115:_ZN12v8_inspector8protocol7Runtime15PropertyPreview11SubtypeEnum3MapE
libnode.so.115:_ZN12v8_inspector8protocol7Runtime15PropertyPreview11SubtypeEnum3SetE
libnode.so.115:_ZN12v8_inspector8protocol7Runtime15PropertyPreview11SubtypeEnum4DateE
libnode.so.115:_ZN12v8_inspector8protocol7Runtime15PropertyPreview11SubtypeEnum4NodeE
libnode.so.115:_ZN12v8_inspector8protocol7Runtime15PropertyPreview11SubtypeEnum4NullE
libnode.so.115:_ZN12v8_inspector8protocol7Runtime15PropertyPreview11SubtypeEnum5ArrayE
libnode.so.115:_ZN12v8_inspector8protocol7Runtime15PropertyPreview11SubtypeEnum5ErrorE
libnode.so.115:_ZN12v8_inspector8protocol7Runtime15PropertyPreview11SubtypeEnum5ProxyE
libnode.so.115:_ZN12v8_inspector8protocol7Runtime15PropertyPreview11SubtypeEnum6RegexpE
libnode.so.115:_ZN12v8_inspector8protocol7Runtime15PropertyPreview11SubtypeEnum7PromiseE
libnode.so.115:_ZN12v8_inspector8protocol7Runtime15PropertyPreview11SubtypeEnum7WeakmapE
libnode.so.115:_ZN12v8_inspector8protocol7Runtime15PropertyPreview11SubtypeEnum7WeaksetE
libnode.so.115:_ZN12v8_inspector8protocol7Runtime15PropertyPreview11SubtypeEnum8DataviewE
libnode.so.115:_ZN12v8_inspector8protocol7Runtime15PropertyPreview11SubtypeEnum8IteratorE
libnode.so.115:_ZN12v8_inspector8protocol7Runtime15PropertyPreview11SubtypeEnum9GeneratorE
libnode.so.115:_ZN12v8_inspector8protocol7Runtime15PropertyPreview11SubtypeEnum9WasmvalueE
libnode.so.115:_ZN12v8_inspector8protocol7Runtime15PropertyPreview23deserializer_descriptorEv
libnode.so.115:_ZN12v8_inspector8protocol7Runtime15PropertyPreview8TypeEnum6BigintE
libnode.so.115:_ZN12v8_inspector8protocol7Runtime15PropertyPreview8TypeEnum6NumberE
libnode.so.115:_ZN12v8_inspector8protocol7Runtime15PropertyPreview8TypeEnum6ObjectE
libnode.so.115:_ZN12v8_inspector8protocol7Runtime15PropertyPreview8TypeEnum6StringE
libnode.so.115:_ZN12v8_inspector8protocol7Runtime15PropertyPreview8TypeEnum6SymbolE
libnode.so.115:_ZN12v8_inspector8protocol7Runtime15PropertyPreview8TypeEnum7BooleanE
libnode.so.115:_ZN12v8_inspector8protocol7Runtime15PropertyPreview8TypeEnum8AccessorE
libnode.so.115:_ZN12v8_inspector8protocol7Runtime15PropertyPreview8TypeEnum8FunctionE
libnode.so.115:_ZN12v8_inspector8protocol7Runtime15PropertyPreview8TypeEnum9UndefinedE
libnode.so.115:_ZN12v8_inspector8protocol7Runtime16ConsoleAPICalled8TypeEnum10ProfileEndE
libnode.so.115:_ZN12v8_inspector8protocol7Runtime16ConsoleAPICalled8TypeEnum10StartGroupE
libnode.so.115:_ZN12v8_inspector8protocol7Runtime16ConsoleAPICalled8TypeEnum19StartGroupCollapsedE
libnode.so.115:_ZN12v8_inspector8protocol7Runtime16ConsoleAPICalled8TypeEnum3DirE
libnode.so.115:_ZN12v8_inspector8protocol7Runtime16ConsoleAPICalled8TypeEnum3LogE
libnode.so.115:_ZN12v8_inspector8protocol7Runtime16ConsoleAPICalled8TypeEnum4InfoE
libnode.so.115:_ZN12v8_inspector8protocol7Runtime16ConsoleAPICalled8TypeEnum5ClearE
libnode.so.115:_ZN12v8_inspector8protocol7Runtime16ConsoleAPICalled8TypeEnum5CountE
libnode.so.115:_ZN12v8_inspector8protocol7Runtime16ConsoleAPICalled8TypeEnum5DebugE
libnode.so.115:_ZN12v8_inspector8protocol7Runtime16ConsoleAPICalled8TypeEnum5ErrorE
libnode.so.115:_ZN12v8_inspector8protocol7Runtime16ConsoleAPICalled8TypeEnum5TableE
libnode.so.115:_ZN12v8_inspector8protocol7Runtime16ConsoleAPICalled8TypeEnum5TraceE
libnode.so.115:_ZN12v8_inspector8protocol7Runtime16ConsoleAPICalled8TypeEnum6AssertE
libnode.so.115:_ZN12v8_inspector8protocol7Runtime16ConsoleAPICalled8TypeEnum6DirxmlE
libnode.so.115:_ZN12v8_inspector8protocol7Runtime16ConsoleAPICalled8TypeEnum7ProfileE
libnode.so.115:_ZN12v8_inspector8protocol7Runtime16ConsoleAPICalled8TypeEnum7TimeEndE
libnode.so.115:_ZN12v8_inspector8protocol7Runtime16ConsoleAPICalled8TypeEnum7WarningE
libnode.so.115:_ZN12v8_inspector8protocol7Runtime16ConsoleAPICalled8TypeEnum8EndGroupE
libnode.so.115:_ZN12v8_inspector8protocol7Runtime16ExceptionDetails23deserializer_descriptorEv
libnode.so.115:_ZN12v8_inspector8protocol7Runtime18PropertyDescriptor23deserializer_descriptorEv
libnode.so.115:_ZN12v8_inspector8protocol7Runtime20DomainDispatcherImpl10addBindingERKN8v8_crdtp12DispatchableE
libnode.so.115:_ZN12v8_inspector8protocol7Runtime20DomainDispatcherImpl12awaitPromiseERKN8v8_crdtp12DispatchableE
libnode.so.115:_ZN12v8_inspector8protocol7Runtime20DomainDispatcherImpl12getHeapUsageERKN8v8_crdtp12DispatchableE
libnode.so.115:_ZN12v8_inspector8protocol7Runtime20DomainDispatcherImpl12getIsolateIdERKN8v8_crdtp12DispatchableE
libnode.so.115:_ZN12v8_inspector8protocol7Runtime20DomainDispatcherImpl12queryObjectsERKN8v8_crdtp12DispatchableE
libnode.so.115:_ZN12v8_inspector8protocol7Runtime20DomainDispatcherImpl13compileScriptERKN8v8_crdtp12DispatchableE
libnode.so.115:_ZN12v8_inspector8protocol7Runtime20DomainDispatcherImpl13getPropertiesERKN8v8_crdtp12DispatchableE
libnode.so.115:_ZN12v8_inspector8protocol7Runtime20DomainDispatcherImpl13releaseObjectERKN8v8_crdtp12DispatchableE
libnode.so.115:_ZN12v8_inspector8protocol7Runtime20DomainDispatcherImpl13removeBindingERKN8v8_crdtp12DispatchableE
libnode.so.115:_ZN12v8_inspector8protocol7Runtime20DomainDispatcherImpl14callFunctionOnERKN8v8_crdtp12DispatchableE
libnode.so.115:_ZN12v8_inspector8protocol7Runtime20DomainDispatcherImpl18releaseObjectGroupERKN8v8_crdtp12DispatchableE
libnode.so.115:_ZN12v8_inspector8protocol7Runtime20DomainDispatcherImpl18terminateExecutionERKN8v8_crdtp12DispatchableE
libnode.so.115:_ZN12v8_inspector8protocol7Runtime20DomainDispatcherImpl19getExceptionDetailsERKN8v8_crdtp12DispatchableE
libnode.so.115:_ZN12v8_inspector8protocol7Runtime20DomainDispatcherImpl21discardConsoleEntriesERKN8v8_crdtp12DispatchableE
libnode.so.115:_ZN12v8_inspector8protocol7Runtime20DomainDispatcherImpl23globalLexicalScopeNamesERKN8v8_crdtp12DispatchableE
libnode.so.115:_ZN12v8_inspector8protocol7Runtime20DomainDispatcherImpl23runIfWaitingForDebuggerERKN8v8_crdtp12DispatchableE
libnode.so.115:_ZN12v8_inspector8protocol7Runtime20DomainDispatcherImpl28setMaxCallStackSizeToCaptureERKN8v8_crdtp12DispatchableE
libnode.so.115:_ZN12v8_inspector8protocol7Runtime20DomainDispatcherImpl31setCustomObjectFormatterEnabledERKN8v8_crdtp12DispatchableE
libnode.so.115:_ZN12v8_inspector8protocol7Runtime20DomainDispatcherImpl6enableERKN8v8_crdtp12DispatchableE
libnode.so.115:_ZN12v8_inspector8protocol7Runtime20DomainDispatcherImpl7disableERKN8v8_crdtp12DispatchableE
libnode.so.115:_ZN12v8_inspector8protocol7Runtime20DomainDispatcherImpl8DispatchEN8v8_crdtp4spanIhEE
libnode.so.115:_ZN12v8_inspector8protocol7Runtime20DomainDispatcherImpl8evaluateERKN8v8_crdtp12DispatchableE
libnode.so.115:_ZN12v8_inspector8protocol7Runtime20DomainDispatcherImpl9runScriptERKN8v8_crdtp12DispatchableE
libnode.so.115:_ZN12v8_inspector8protocol7Runtime25PrivatePropertyDescriptor23deserializer_descriptorEv
libnode.so.115:_ZN12v8_inspector8protocol7Runtime26InternalPropertyDescriptor23deserializer_descriptorEv
libnode.so.115:_ZN12v8_inspector8protocol7Runtime27ExecutionContextDescription23deserializer_descriptorEv
libnode.so.115:_ZN12v8_inspector8protocol7Runtime3API10StackTrace10fromBinaryEPKhm
libnode.so.115:_ZN12v8_inspector8protocol7Runtime3API12RemoteObject10fromBinaryEPKhm
libnode.so.115:_ZN12v8_inspector8protocol7Runtime3API12StackTraceId10fromBinaryEPKhm
libnode.so.115:_ZN12v8_inspector8protocol7Runtime8Frontend13bindingCalledERKNS_8String16ES5_i
libnode.so.115:_ZN12v8_inspector8protocol7Runtime8Frontend15exceptionThrownEdSt10unique_ptrINS1_16ExceptionDetailsESt14default_deleteIS4_EE
libnode.so.115:_ZN12v8_inspector8protocol7Runtime8Frontend16consoleAPICalledERKNS_8String16ESt10unique_ptrISt6vectorIS6_INS1_12RemoteObjectESt14default_deleteIS8_EESaISB_EES9_ISD_EEidN8v8_crdtp6detail8PtrMaybeINS1_10StackTraceEEENSH_10ValueMaybeIS3_EE
libnode.so.115:_ZN12v8_inspector8protocol7Runtime8Frontend16exceptionRevokedERKNS_8String16Ei
libnode.so.115:_ZN12v8_inspector8protocol7Runtime8Frontend16inspectRequestedESt10unique_ptrINS1_12RemoteObjectESt14default_deleteIS4_EES3_INS0_15DictionaryValueES5_IS8_EEN8v8_crdtp6detail10ValueMaybeIiEE
libnode.so.115:_ZN12v8_inspector8protocol7Runtime8Frontend19sendRawNotificationESt10unique_ptrIN8v8_crdtp12SerializableESt14default_deleteIS5_EE
libnode.so.115:_ZN12v8_inspector8protocol7Runtime8Frontend23executionContextCreatedESt10unique_ptrINS1_27ExecutionContextDescriptionESt14default_deleteIS4_EE
libnode.so.115:_ZN12v8_inspector8protocol7Runtime8Frontend24executionContextsClearedEv
libnode.so.115:_ZN12v8_inspector8protocol7Runtime8Frontend25executionContextDestroyedEiRKNS_8String16E
libnode.so.115:_ZN12v8_inspector8protocol7Runtime8Frontend5flushEv
libnode.so.115:_ZN12v8_inspector8protocol7Runtime8Metainfo10domainNameE
libnode.so.115:_ZN12v8_inspector8protocol7Runtime8Metainfo13commandPrefixE
libnode.so.115:_ZN12v8_inspector8protocol7Runtime8Metainfo7versionE
libnode.so.115:_ZN12v8_inspector8protocol7Runtime9CallFrame23deserializer_descriptorEv
libnode.so.115:_ZN12v8_inspector8protocol8Debugger10Dispatcher4wireEPN8v8_crdtp14UberDispatcherEPNS1_7BackendE
libnode.so.115:_ZN12v8_inspector8protocol8Debugger11SearchMatch23deserializer_descriptorEv
libnode.so.115:_ZN12v8_inspector8protocol8Debugger12DebugSymbols23deserializer_descriptorEv
libnode.so.115:_ZN12v8_inspector8protocol8Debugger12DebugSymbols8TypeEnum13EmbeddedDWARFE
libnode.so.115:_ZN12v8_inspector8protocol8Debugger12DebugSymbols8TypeEnum13ExternalDWARFE
libnode.so.115:_ZN12v8_inspector8protocol8Debugger12DebugSymbols8TypeEnum4NoneE
libnode.so.115:_ZN12v8_inspector8protocol8Debugger12DebugSymbols8TypeEnum9SourceMapE
libnode.so.115:_ZN12v8_inspector8protocol8Debugger12RestartFrame8ModeEnum8StepIntoE
libnode.so.115:_ZN12v8_inspector8protocol8Debugger13BreakLocation23deserializer_descriptorEv
libnode.so.115:_ZN12v8_inspector8protocol8Debugger13BreakLocation8TypeEnum17DebuggerStatementE
libnode.so.115:_ZN12v8_inspector8protocol8Debugger13BreakLocation8TypeEnum4CallE
libnode.so.115:_ZN12v8_inspector8protocol8Debugger13BreakLocation8TypeEnum6ReturnE
libnode.so.115:_ZN12v8_inspector8protocol8Debugger13LocationRange23deserializer_descriptorEv
libnode.so.115:_ZN12v8_inspector8protocol8Debugger14ScriptPosition23deserializer_descriptorEv
libnode.so.115:_ZN12v8_inspector8protocol8Debugger15SetScriptSource10StatusEnum12CompileErrorE
libnode.so.115:_ZN12v8_inspector8protocol8Debugger15SetScriptSource10StatusEnum23BlockedByActiveFunctionE
libnode.so.115:_ZN12v8_inspector8protocol8Debugger15SetScriptSource10StatusEnum24BlockedByActiveGeneratorE
libnode.so.115:_ZN12v8_inspector8protocol8Debugger15SetScriptSource10StatusEnum2OkE
libnode.so.115:_ZN12v8_inspector8protocol8Debugger15SetScriptSource10StatusEnum31BlockedByTopLevelEsModuleChangeE
libnode.so.115:_ZN12v8_inspector8protocol8Debugger18ContinueToLocation20TargetCallFramesEnum3AnyE
libnode.so.115:_ZN12v8_inspector8protocol8Debugger18ContinueToLocation20TargetCallFramesEnum7CurrentE
libnode.so.115:_ZN12v8_inspector8protocol8Debugger18ScriptLanguageEnum10JavaScriptE
libnode.so.115:_ZN12v8_inspector8protocol8Debugger18ScriptLanguageEnum11WebAssemblyE
libnode.so.115:_ZN12v8_inspector8protocol8Debugger20DomainDispatcherImpl12restartFrameERKN8v8_crdtp12DispatchableE
libnode.so.115:_ZN12v8_inspector8protocol8Debugger20DomainDispatcherImpl13getStackTraceERKN8v8_crdtp12DispatchableE
libnode.so.115:_ZN12v8_inspector8protocol8Debugger20DomainDispatcherImpl13setBreakpointERKN8v8_crdtp12DispatchableE
libnode.so.115:_ZN12v8_inspector8protocol8Debugger20DomainDispatcherImpl14setReturnValueERKN8v8_crdtp12DispatchableE
libnode.so.115:_ZN12v8_inspector8protocol8Debugger20DomainDispatcherImpl15getScriptSourceERKN8v8_crdtp12DispatchableE
libnode.so.115:_ZN12v8_inspector8protocol8Debugger20DomainDispatcherImpl15getWasmBytecodeERKN8v8_crdtp12DispatchableE
libnode.so.115:_ZN12v8_inspector8protocol8Debugger20DomainDispatcherImpl15searchInContentERKN8v8_crdtp12DispatchableE
libnode.so.115:_ZN12v8_inspector8protocol8Debugger20DomainDispatcherImpl15setScriptSourceERKN8v8_crdtp12DispatchableE
libnode.so.115:_ZN12v8_inspector8protocol8Debugger20DomainDispatcherImpl16pauseOnAsyncCallERKN8v8_crdtp12DispatchableE
libnode.so.115:_ZN12v8_inspector8protocol8Debugger20DomainDispatcherImpl16removeBreakpointERKN8v8_crdtp12DispatchableE
libnode.so.115:_ZN12v8_inspector8protocol8Debugger20DomainDispatcherImpl16setSkipAllPausesERKN8v8_crdtp12DispatchableE
libnode.so.115:_ZN12v8_inspector8protocol8Debugger20DomainDispatcherImpl16setVariableValueERKN8v8_crdtp12DispatchableE
libnode.so.115:_ZN12v8_inspector8protocol8Debugger20DomainDispatcherImpl18continueToLocationERKN8v8_crdtp12DispatchableE
libnode.so.115:_ZN12v8_inspector8protocol8Debugger20DomainDispatcherImpl18setBreakpointByUrlERKN8v8_crdtp12DispatchableE
libnode.so.115:_ZN12v8_inspector8protocol8Debugger20DomainDispatcherImpl19evaluateOnCallFrameERKN8v8_crdtp12DispatchableE
libnode.so.115:_ZN12v8_inspector8protocol8Debugger20DomainDispatcherImpl19setBlackboxPatternsERKN8v8_crdtp12DispatchableE
libnode.so.115:_ZN12v8_inspector8protocol8Debugger20DomainDispatcherImpl19setBlackboxedRangesERKN8v8_crdtp12DispatchableE
libnode.so.115:_ZN12v8_inspector8protocol8Debugger20DomainDispatcherImpl20setBreakpointsActiveERKN8v8_crdtp12DispatchableE
libnode.so.115:_ZN12v8_inspector8protocol8Debugger20DomainDispatcherImpl20setPauseOnExceptionsERKN8v8_crdtp12DispatchableE
libnode.so.115:_ZN12v8_inspector8protocol8Debugger20DomainDispatcherImpl21disassembleWasmModuleERKN8v8_crdtp12DispatchableE
libnode.so.115:_ZN12v8_inspector8protocol8Debugger20DomainDispatcherImpl22getPossibleBreakpointsERKN8v8_crdtp12DispatchableE
libnode.so.115:_ZN12v8_inspector8protocol8Debugger20DomainDispatcherImpl22setAsyncCallStackDepthERKN8v8_crdtp12DispatchableE
libnode.so.115:_ZN12v8_inspector8protocol8Debugger20DomainDispatcherImpl24nextWasmDisassemblyChunkERKN8v8_crdtp12DispatchableE
libnode.so.115:_ZN12v8_inspector8protocol8Debugger20DomainDispatcherImpl27setBreakpointOnFunctionCallERKN8v8_crdtp12DispatchableE
libnode.so.115:_ZN12v8_inspector8protocol8Debugger20DomainDispatcherImpl28setInstrumentationBreakpointERKN8v8_crdtp12DispatchableE
libnode.so.115:_ZN12v8_inspector8protocol8Debugger20DomainDispatcherImpl5pauseERKN8v8_crdtp12DispatchableE
libnode.so.115:_ZN12v8_inspector8protocol8Debugger20DomainDispatcherImpl6enableERKN8v8_crdtp12DispatchableE
libnode.so.115:_ZN12v8_inspector8protocol8Debugger20DomainDispatcherImpl6resumeERKN8v8_crdtp12DispatchableE
libnode.so.115:_ZN12v8_inspector8protocol8Debugger20DomainDispatcherImpl7disableERKN8v8_crdtp12DispatchableE
libnode.so.115:_ZN12v8_inspector8protocol8Debugger20DomainDispatcherImpl7stepOutERKN8v8_crdtp12DispatchableE
libnode.so.115:_ZN12v8_inspector8protocol8Debugger20DomainDispatcherImpl8DispatchEN8v8_crdtp4spanIhEE
libnode.so.115:_ZN12v8_inspector8protocol8Debugger20DomainDispatcherImpl8stepIntoERKN8v8_crdtp12DispatchableE
libnode.so.115:_ZN12v8_inspector8protocol8Debugger20DomainDispatcherImpl8stepOverERKN8v8_crdtp12DispatchableE
libnode.so.115:_ZN12v8_inspector8protocol8Debugger20SetPauseOnExceptions9StateEnum3AllE
libnode.so.115:_ZN12v8_inspector8protocol8Debugger20SetPauseOnExceptions9StateEnum4NoneE
libnode.so.115:_ZN12v8_inspector8protocol8Debugger20SetPauseOnExceptions9StateEnum6CaughtE
libnode.so.115:_ZN12v8_inspector8protocol8Debugger20SetPauseOnExceptions9StateEnum8UncaughtE
libnode.so.115:_ZN12v8_inspector8protocol8Debugger20WasmDisassemblyChunk23deserializer_descriptorEv
libnode.so.115:_ZN12v8_inspector8protocol8Debugger28SetInstrumentationBreakpoint19InstrumentationEnum21BeforeScriptExecutionE
libnode.so.115:_ZN12v8_inspector8protocol8Debugger28SetInstrumentationBreakpoint19InstrumentationEnum34BeforeScriptWithSourceMapExecutionE
libnode.so.115:_ZN12v8_inspector8protocol8Debugger3API11SearchMatch10fromBinaryEPKhm
libnode.so.115:_ZN12v8_inspector8protocol8Debugger3API6Paused10ReasonEnum12CSPViolationE
libnode.so.115:_ZN12v8_inspector8protocol8Debugger3API6Paused10ReasonEnum12DebugCommandE
libnode.so.115:_ZN12v8_inspector8protocol8Debugger3API6Paused10ReasonEnum13EventListenerE
libnode.so.115:_ZN12v8_inspector8protocol8Debugger3API6Paused10ReasonEnum15InstrumentationE
libnode.so.115:_ZN12v8_inspector8protocol8Debugger3API6Paused10ReasonEnum16PromiseRejectionE
libnode.so.115:_ZN12v8_inspector8protocol8Debugger3API6Paused10ReasonEnum3DOME
libnode.so.115:_ZN12v8_inspector8protocol8Debugger3API6Paused10ReasonEnum3OOME
libnode.so.115:_ZN12v8_inspector8protocol8Debugger3API6Paused10ReasonEnum3XHRE
libnode.so.115:_ZN12v8_inspector8protocol8Debugger3API6Paused10ReasonEnum5OtherE
libnode.so.115:_ZN12v8_inspector8protocol8Debugger3API6Paused10ReasonEnum6AssertE
libnode.so.115:_ZN12v8_inspector8protocol8Debugger3API6Paused10ReasonEnum9AmbiguousE
libnode.so.115:_ZN12v8_inspector8protocol8Debugger3API6Paused10ReasonEnum9ExceptionE
libnode.so.115:_ZN12v8_inspector8protocol8Debugger5Scope23deserializer_descriptorEv
libnode.so.115:_ZN12v8_inspector8protocol8Debugger5Scope8TypeEnum19WasmExpressionStackE
libnode.so.115:_ZN12v8_inspector8protocol8Debugger5Scope8TypeEnum4EvalE
libnode.so.115:_ZN12v8_inspector8protocol8Debugger5Scope8TypeEnum4WithE
libnode.so.115:_ZN12v8_inspector8protocol8Debugger5Scope8TypeEnum5BlockE
libnode.so.115:_ZN12v8_inspector8protocol8Debugger5Scope8TypeEnum5CatchE
libnode.so.115:_ZN12v8_inspector8protocol8Debugger5Scope8TypeEnum5LocalE
libnode.so.115:_ZN12v8_inspector8protocol8Debugger5Scope8TypeEnum6GlobalE
libnode.so.115:_ZN12v8_inspector8protocol8Debugger5Scope8TypeEnum6ModuleE
libnode.so.115:_ZN12v8_inspector8protocol8Debugger5Scope8TypeEnum6ScriptE
libnode.so.115:_ZN12v8_inspector8protocol8Debugger5Scope8TypeEnum7ClosureE
libnode.so.115:_ZN12v8_inspector8protocol8Debugger6Paused10ReasonEnum12CSPViolationE
libnode.so.115:_ZN12v8_inspector8protocol8Debugger6Paused10ReasonEnum12DebugCommandE
libnode.so.115:_ZN12v8_inspector8protocol8Debugger6Paused10ReasonEnum13EventListenerE
libnode.so.115:_ZN12v8_inspector8protocol8Debugger6Paused10ReasonEnum15InstrumentationE
libnode.so.115:_ZN12v8_inspector8protocol8Debugger6Paused10ReasonEnum16PromiseRejectionE
libnode.so.115:_ZN12v8_inspector8protocol8Debugger6Paused10ReasonEnum3DOME
libnode.so.115:_ZN12v8_inspector8protocol8Debugger6Paused10ReasonEnum3OOME
libnode.so.115:_ZN12v8_inspector8protocol8Debugger6Paused10ReasonEnum3XHRE
libnode.so.115:_ZN12v8_inspector8protocol8Debugger6Paused10ReasonEnum5OtherE
libnode.so.115:_ZN12v8_inspector8protocol8Debugger6Paused10ReasonEnum6AssertE
libnode.so.115:_ZN12v8_inspector8protocol8Debugger6Paused10ReasonEnum9AmbiguousE
libnode.so.115:_ZN12v8_inspector8protocol8Debugger6Paused10ReasonEnum9ExceptionE
libnode.so.115:_ZN12v8_inspector8protocol8Debugger8Frontend12scriptParsedERKNS_8String16ES5_iiiiiS5_N8v8_crdtp6detail8PtrMaybeINS0_15DictionaryValueEEENS7_10ValueMaybeIbEENSB_IS3_EESC_SC_NSB_IiEENS8_INS0_7Runtime10StackTraceEEESE_SD_NS8_INS1_12DebugSymbolsEEESD_
libnode.so.115:_ZN12v8_inspector8protocol8Debugger8Frontend18breakpointResolvedERKNS_8String16ESt10unique_ptrINS1_8LocationESt14default_deleteIS7_EE
libnode.so.115:_ZN12v8_inspector8protocol8Debugger8Frontend19scriptFailedToParseERKNS_8String16ES5_iiiiiS5_N8v8_crdtp6detail8PtrMaybeINS0_15DictionaryValueEEENS7_10ValueMaybeIS3_EENSB_IbEESD_NSB_IiEENS8_INS0_7Runtime10StackTraceEEESE_SC_SC_
libnode.so.115:_ZN12v8_inspector8protocol8Debugger8Frontend19sendRawNotificationESt10unique_ptrIN8v8_crdtp12SerializableESt14default_deleteIS5_EE
libnode.so.115:_ZN12v8_inspector8protocol8Debugger8Frontend5flushEv
libnode.so.115:_ZN12v8_inspector8protocol8Debugger8Frontend6pausedESt10unique_ptrISt6vectorIS3_INS1_9CallFrameESt14default_deleteIS5_EESaIS8_EES6_ISA_EERKNS_8String16EN8v8_crdtp6detail8PtrMaybeINS0_15DictionaryValueEEENSI_IS4_ISD_SaISD_EEEENSI_INS0_7Runtime10StackTraceEEENSI_INSO_12StackTraceIdEEESS_
libnode.so.115:_ZN12v8_inspector8protocol8Debugger8Frontend7resumedEv
libnode.so.115:_ZN12v8_inspector8protocol8Debugger8Location23deserializer_descriptorEv
libnode.so.115:_ZN12v8_inspector8protocol8Debugger8Metainfo10domainNameE
libnode.so.115:_ZN12v8_inspector8protocol8Debugger8Metainfo13commandPrefixE
libnode.so.115:_ZN12v8_inspector8protocol8Debugger8Metainfo7versionE
libnode.so.115:_ZN12v8_inspector8protocol8Debugger9CallFrame23deserializer_descriptorEv
libnode.so.115:_ZN12v8_inspector8protocol8Profiler10Dispatcher4wireEPN8v8_crdtp14UberDispatcherEPNS1_7BackendE
libnode.so.115:_ZN12v8_inspector8protocol8Profiler11ProfileNode23deserializer_descriptorEv
libnode.so.115:_ZN12v8_inspector8protocol8Profiler13CoverageRange23deserializer_descriptorEv
libnode.so.115:_ZN12v8_inspector8protocol8Profiler14ScriptCoverage23deserializer_descriptorEv
libnode.so.115:_ZN12v8_inspector8protocol8Profiler16FunctionCoverage23deserializer_descriptorEv
libnode.so.115:_ZN12v8_inspector8protocol8Profiler16PositionTickInfo23deserializer_descriptorEv
libnode.so.115:_ZN12v8_inspector8protocol8Profiler20DomainDispatcherImpl19setSamplingIntervalERKN8v8_crdtp12DispatchableE
libnode.so.115:_ZN12v8_inspector8protocol8Profiler20DomainDispatcherImpl19stopPreciseCoverageERKN8v8_crdtp12DispatchableE
libnode.so.115:_ZN12v8_inspector8protocol8Profiler20DomainDispatcherImpl19takePreciseCoverageERKN8v8_crdtp12DispatchableE
libnode.so.115:_ZN12v8_inspector8protocol8Profiler20DomainDispatcherImpl20startPreciseCoverageERKN8v8_crdtp12DispatchableE
libnode.so.115:_ZN12v8_inspector8protocol8Profiler20DomainDispatcherImpl21getBestEffortCoverageERKN8v8_crdtp12DispatchableE
libnode.so.115:_ZN12v8_inspector8protocol8Profiler20DomainDispatcherImpl4stopERKN8v8_crdtp12DispatchableE
libnode.so.115:_ZN12v8_inspector8protocol8Profiler20DomainDispatcherImpl5startERKN8v8_crdtp12DispatchableE
libnode.so.115:_ZN12v8_inspector8protocol8Profiler20DomainDispatcherImpl6enableERKN8v8_crdtp12DispatchableE
libnode.so.115:_ZN12v8_inspector8protocol8Profiler20DomainDispatcherImpl7disableERKN8v8_crdtp12DispatchableE
libnode.so.115:_ZN12v8_inspector8protocol8Profiler20DomainDispatcherImpl8DispatchEN8v8_crdtp4spanIhEE
libnode.so.115:_ZN12v8_inspector8protocol8Profiler7Profile23deserializer_descriptorEv
libnode.so.115:_ZN12v8_inspector8protocol8Profiler8Frontend19sendRawNotificationESt10unique_ptrIN8v8_crdtp12SerializableESt14default_deleteIS5_EE
libnode.so.115:_ZN12v8_inspector8protocol8Profiler8Frontend21consoleProfileStartedERKNS_8String16ESt10unique_ptrINS0_8Debugger8LocationESt14default_deleteIS8_EEN8v8_crdtp6detail10ValueMaybeIS3_EE
libnode.so.115:_ZN12v8_inspector8protocol8Profiler8Frontend22consoleProfileFinishedERKNS_8String16ESt10unique_ptrINS0_8Debugger8LocationESt14default_deleteIS8_EES6_INS1_7ProfileES9_ISC_EEN8v8_crdtp6detail10ValueMaybeIS3_EE
libnode.so.115:_ZN12v8_inspector8protocol8Profiler8Frontend26preciseCoverageDeltaUpdateEdRKNS_8String16ESt10unique_ptrISt6vectorIS6_INS1_14ScriptCoverageESt14default_deleteIS8_EESaISB_EES9_ISD_EE
libnode.so.115:_ZN12v8_inspector8protocol8Profiler8Frontend5flushEv
libnode.so.115:_ZN12v8_inspector8protocol8Profiler8Metainfo10domainNameE
libnode.so.115:_ZN12v8_inspector8protocol8Profiler8Metainfo13commandPrefixE
libnode.so.115:_ZN12v8_inspector8protocol8Profiler8Metainfo7versionE
libnode.so.115:_ZN12v8_inspector8protocol9ListValue2atEm
libnode.so.115:_ZN12v8_inspector8protocol9ListValue9pushValueESt10unique_ptrINS0_5ValueESt14default_deleteIS3_EE
libnode.so.115:_ZN12v8_inspector8protocol9ListValueC1Ev
libnode.so.115:_ZN12v8_inspector8protocol9ListValueC2Ev
libnode.so.115:_ZN12v8_inspector8protocol9ListValueD0Ev
libnode.so.115:_ZN12v8_inspector8protocol9ListValueD1Ev
libnode.so.115:_ZN12v8_inspector8protocol9ListValueD2Ev
libnode.so.115:_ZN12v8_inspector9V8Console10CountResetERKN2v85debug20ConsoleCallArgumentsERKNS2_14ConsoleContextE
libnode.so.115:_ZN12v8_inspector9V8Console10ProfileEndERKN2v85debug20ConsoleCallArgumentsERKNS2_14ConsoleContextE
libnode.so.115:_ZN12v8_inspector9V8Console10createTaskERKN2v820FunctionCallbackInfoINS1_5ValueEEE
libnode.so.115:_ZN12v8_inspector9V8Console11taskInfoKeyEv
libnode.so.115:_ZN12v8_inspector9V8Console12copyCallbackERKN2v820FunctionCallbackInfoINS1_5ValueEEEi
libnode.so.115:_ZN12v8_inspector9V8Console12keysCallbackERKN2v820FunctionCallbackInfoINS1_5ValueEEEi
libnode.so.115:_ZN12v8_inspector9V8Console12taskTemplateEv
libnode.so.115:_ZN12v8_inspector9V8Console14GroupCollapsedERKN2v85debug20ConsoleCallArgumentsERKNS2_14ConsoleContextE
libnode.so.115:_ZN12v8_inspector9V8Console14valuesCallbackERKN2v820FunctionCallbackInfoINS1_5ValueEEEi
libnode.so.115:_ZN12v8_inspector9V8Console15inspectCallbackERKN2v820FunctionCallbackInfoINS1_5ValueEEEi
libnode.so.115:_ZN12v8_inspector9V8Console15inspectedObjectERKN2v820FunctionCallbackInfoINS1_5ValueEEEij
libnode.so.115:_ZN12v8_inspector9V8Console17cancelConsoleTaskEPNS_8TaskInfoE
libnode.so.115:_ZN12v8_inspector9V8Console19CommandLineAPIScope22accessorGetterCallbackEN2v85LocalINS2_4NameEEERKNS2_20PropertyCallbackInfoINS2_5ValueEEE
libnode.so.115:_ZN12v8_inspector9V8Console19CommandLineAPIScope22accessorSetterCallbackEN2v85LocalINS2_4NameEEENS3_INS2_5ValueEEERKNS2_20PropertyCallbackInfoIvEE
libnode.so.115:_ZN12v8_inspector9V8Console19CommandLineAPIScopeC1EN2v85LocalINS2_7ContextEEENS3_INS2_6ObjectEEES7_
libnode.so.115:_ZN12v8_inspector9V8Console19CommandLineAPIScopeC2EN2v85LocalINS2_7ContextEEENS3_INS2_6ObjectEEES7_
libnode.so.115:_ZN12v8_inspector9V8Console19CommandLineAPIScopeD1Ev
libnode.so.115:_ZN12v8_inspector9V8Console19CommandLineAPIScopeD2Ev
libnode.so.115:_ZN12v8_inspector9V8Console19installMemoryGetterEN2v85LocalINS1_7ContextEEENS2_INS1_6ObjectEEE
libnode.so.115:_ZN12v8_inspector9V8Console20createCommandLineAPIEN2v85LocalINS1_7ContextEEEi
libnode.so.115:_ZN12v8_inspector9V8Console20memoryGetterCallbackERKN2v820FunctionCallbackInfoINS1_5ValueEEE
libnode.so.115:_ZN12v8_inspector9V8Console20memorySetterCallbackERKN2v820FunctionCallbackInfoINS1_5ValueEEE
libnode.so.115:_ZN12v8_inspector9V8Console20queryObjectsCallbackERKN2v820FunctionCallbackInfoINS1_5ValueEEEi
libnode.so.115:_ZN12v8_inspector9V8Console21debugFunctionCallbackERKN2v820FunctionCallbackInfoINS1_5ValueEEEi
libnode.so.115:_ZN12v8_inspector9V8Console23monitorFunctionCallbackERKN2v820FunctionCallbackInfoINS1_5ValueEEEi
libnode.so.115:_ZN12v8_inspector9V8Console23undebugFunctionCallbackERKN2v820FunctionCallbackInfoINS1_5ValueEEEi
libnode.so.115:_ZN12v8_inspector9V8Console25unmonitorFunctionCallbackERKN2v820FunctionCallbackInfoINS1_5ValueEEEi
libnode.so.115:_ZN12v8_inspector9V8Console27installAsyncStackTaggingAPIEN2v85LocalINS1_7ContextEEENS2_INS1_6ObjectEEE
libnode.so.115:_ZN12v8_inspector9V8Console28lastEvaluationResultCallbackERKN2v820FunctionCallbackInfoINS1_5ValueEEEi
libnode.so.115:_ZN12v8_inspector9V8Console3DirERKN2v85debug20ConsoleCallArgumentsERKNS2_14ConsoleContextE
libnode.so.115:_ZN12v8_inspector9V8Console3LogERKN2v85debug20ConsoleCallArgumentsERKNS2_14ConsoleContextE
libnode.so.115:_ZN12v8_inspector9V8Console4InfoERKN2v85debug20ConsoleCallArgumentsERKNS2_14ConsoleContextE
libnode.so.115:_ZN12v8_inspector9V8Console4TimeERKN2v85debug20ConsoleCallArgumentsERKNS2_14ConsoleContextE
libnode.so.115:_ZN12v8_inspector9V8Console4WarnERKN2v85debug20ConsoleCallArgumentsERKNS2_14ConsoleContextE
libnode.so.115:_ZN12v8_inspector9V8Console5ClearERKN2v85debug20ConsoleCallArgumentsERKNS2_14ConsoleContextE
libnode.so.115:_ZN12v8_inspector9V8Console5CountERKN2v85debug20ConsoleCallArgumentsERKNS2_14ConsoleContextE
libnode.so.115:_ZN12v8_inspector9V8Console5DebugERKN2v85debug20ConsoleCallArgumentsERKNS2_14ConsoleContextE
libnode.so.115:_ZN12v8_inspector9V8Console5ErrorERKN2v85debug20ConsoleCallArgumentsERKNS2_14ConsoleContextE
libnode.so.115:_ZN12v8_inspector9V8Console5GroupERKN2v85debug20ConsoleCallArgumentsERKNS2_14ConsoleContextE
libnode.so.115:_ZN12v8_inspector9V8Console5TableERKN2v85debug20ConsoleCallArgumentsERKNS2_14ConsoleContextE
libnode.so.115:_ZN12v8_inspector9V8Console5TraceERKN2v85debug20ConsoleCallArgumentsERKNS2_14ConsoleContextE
libnode.so.115:_ZN12v8_inspector9V8Console6AssertERKN2v85debug20ConsoleCallArgumentsERKNS2_14ConsoleContextE
libnode.so.115:_ZN12v8_inspector9V8Console6DirXmlERKN2v85debug20ConsoleCallArgumentsERKNS2_14ConsoleContextE
libnode.so.115:_ZN12v8_inspector9V8Console7ProfileERKN2v85debug20ConsoleCallArgumentsERKNS2_14ConsoleContextE
libnode.so.115:_ZN12v8_inspector9V8Console7TimeEndERKN2v85debug20ConsoleCallArgumentsERKNS2_14ConsoleContextE
libnode.so.115:_ZN12v8_inspector9V8Console7TimeLogERKN2v85debug20ConsoleCallArgumentsERKNS2_14ConsoleContextE
libnode.so.115:_ZN12v8_inspector9V8Console7runTaskERKN2v820FunctionCallbackInfoINS1_5ValueEEE
libnode.so.115:_ZN12v8_inspector9V8Console8GroupEndERKN2v85debug20ConsoleCallArgumentsERKNS2_14ConsoleContextE
libnode.so.115:_ZN12v8_inspector9V8Console9TimeStampERKN2v85debug20ConsoleCallArgumentsERKNS2_14ConsoleContextE
libnode.so.115:_ZN12v8_inspector9V8ConsoleC1EPNS_15V8InspectorImplE
libnode.so.115:_ZN12v8_inspector9V8ConsoleC2EPNS_15V8InspectorImplE
libnode.so.115:_ZN13zlib_internal14CompressHelperENS_11WrapperTypeEPhPmPKhmiPFPvmEPFvS5_E
libnode.so.115:_ZN13zlib_internal16UncompressHelperENS_11WrapperTypeEPhPmPKhm
libnode.so.115:_ZN13zlib_internal18GzipCompressHelperEPhPmPKhmPFPvmEPFvS4_E
libnode.so.115:_ZN13zlib_internal20GzipUncompressHelperEPhPmPKhm
libnode.so.115:_ZN13zlib_internal23GetGzipUncompressedSizeEPKhm
libnode.so.115:_ZN13zlib_internal26GzipExpectedCompressedSizeEm
libnode.so.115:_ZN15node_napi_env__13CallFinalizerEPFvP10napi_env__PvS2_ES2_S2_
libnode.so.115:_ZN15node_napi_env__16EnqueueFinalizerEPN6v8impl10RefTrackerE
libnode.so.115:_ZN15node_napi_env__19DrainFinalizerQueueEv
libnode.so.115:_ZN15node_napi_env__23trigger_fatal_exceptionEN2v85LocalINS0_5ValueEEE
libnode.so.115:_ZN15node_napi_env__8DeleteMeEv
libnode.so.115:_ZN15node_napi_env__C1EN2v85LocalINS0_7ContextEEERKNSt7__cxx1112basic_stringIcSt11char_traitsIcESaIcEEEi
libnode.so.115:_ZN15node_napi_env__C2EN2v85LocalINS0_7ContextEEERKNSt7__cxx1112basic_stringIcSt11char_traitsIcESaIcEEEi
libnode.so.115:_ZN2v810CpuProfile6DeleteEv
libnode.so.115:_ZN2v810FixedArray9CheckCastEPNS_4DataE
libnode.so.115:_ZN2v810Int16Array3NewENS_5LocalINS_11ArrayBufferEEEmm
libnode.so.115:_ZN2v810Int16Array3NewENS_5LocalINS_17SharedArrayBufferEEEmm
libnode.so.115:_ZN2v810Int16Array9CheckCastEPNS_5ValueE
libnode.so.115:_ZN2v810Int32Array3NewENS_5LocalINS_11ArrayBufferEEEmm
libnode.so.115:_ZN2v810Int32Array3NewENS_5LocalINS_17SharedArrayBufferEEEmm
libnode.so.115:_ZN2v810Int32Array9CheckCastEPNS_5ValueE
libnode.so.115:_ZN2v810NewContextEPNS_7IsolateEPNS_22ExtensionConfigurationENS_10MaybeLocalINS_14ObjectTemplateEEENS4_INS_5ValueEEEmNS_33DeserializeInternalFieldsCallbackEPNS_14MicrotaskQueueE
libnode.so.115:_ZN2v810StackTrace17CurrentStackTraceEPNS_7IsolateEiNS0_17StackTraceOptionsE
libnode.so.115:_ZN2v810StackTrace28CurrentScriptNameOrSourceURLEPNS_7IsolateE
libnode.so.115:_ZN2v810TypedArray6LengthEv
libnode.so.115:_ZN2v810TypedArray9CheckCastEPNS_5ValueE
libnode.so.115:_ZN2v810Uint8Array3NewENS_5LocalINS_11ArrayBufferEEEmm
libnode.so.115:_ZN2v810Uint8Array3NewENS_5LocalINS_17SharedArrayBufferEEEmm
libnode.so.115:_ZN2v810Uint8Array9CheckCastEPNS_5ValueE
libnode.so.115:_ZN2v811ArrayBuffer12SetDetachKeyENS_5LocalINS_5ValueEEE
libnode.so.115:_ZN2v811ArrayBuffer15GetBackingStoreEv
libnode.so.115:_ZN2v811ArrayBuffer15NewBackingStoreEPNS_7IsolateEm
libnode.so.115:_ZN2v811ArrayBuffer15NewBackingStoreEPvmPFvS1_mS1_ES1_
libnode.so.115:_ZN2v811ArrayBuffer24NewResizableBackingStoreEmm
libnode.so.115:_ZN2v811ArrayBuffer25NewBackingStoreForNodeLTSEPNS_7IsolateEm
libnode.so.115:_ZN2v811ArrayBuffer3NewEPNS_7IsolateESt10shared_ptrINS_12BackingStoreEE
libnode.so.115:_ZN2v811ArrayBuffer3NewEPNS_7IsolateEm
libnode.so.115:_ZN2v811ArrayBuffer6DetachENS_5LocalINS_5ValueEEE
libnode.so.115:_ZN2v811ArrayBuffer6DetachEv
libnode.so.115:_ZN2v811ArrayBuffer9Allocator10ReallocateEPvmm
libnode.so.115:_ZN2v811ArrayBuffer9Allocator19NewDefaultAllocatorEv
libnode.so.115:_ZN2v811ArrayBuffer9CheckCastEPNS_5ValueE
libnode.so.115:_ZN2v811CpuProfiler13CollectSampleEPNS_7IsolateE
libnode.so.115:_ZN2v811CpuProfiler13StopProfilingENS_5LocalINS_6StringEEE
libnode.so.115:_ZN2v811CpuProfiler14StartProfilingENS_5LocalINS_6StringEEENS_16CpuProfilingModeEbj
libnode.so.115:_ZN2v811CpuProfiler14StartProfilingENS_5LocalINS_6StringEEENS_19CpuProfilingOptionsESt10unique_ptrINS_24DiscardedSamplesDelegateESt14default_deleteIS6_EE
libnode.so.115:_ZN2v811CpuProfiler14StartProfilingENS_5LocalINS_6StringEEEb
libnode.so.115:_ZN2v811CpuProfiler19SetSamplingIntervalEi
libnode.so.115:_ZN2v811CpuProfiler21SetUsePreciseSamplingEb
libnode.so.115:_ZN2v811CpuProfiler38UseDetailedSourcePositionsForProfilingEPNS_7IsolateE
libnode.so.115:_ZN2v811CpuProfiler3NewEPNS_7IsolateENS_22CpuProfilingNamingModeENS_23CpuProfilingLoggingModeE
libnode.so.115:_ZN2v811CpuProfiler4StopEj
libnode.so.115:_ZN2v811CpuProfiler5StartENS_19CpuProfilingOptionsESt10unique_ptrINS_24DiscardedSamplesDelegateESt14default_deleteIS3_EE
libnode.so.115:_ZN2v811CpuProfiler5StartENS_5LocalINS_6StringEEENS_16CpuProfilingModeEbj
libnode.so.115:_ZN2v811CpuProfiler5StartENS_5LocalINS_6StringEEENS_19CpuProfilingOptionsESt10unique_ptrINS_24DiscardedSamplesDelegateESt14default_deleteIS6_EE
libnode.so.115:_ZN2v811CpuProfiler5StartENS_5LocalINS_6StringEEEb
libnode.so.115:_ZN2v811CpuProfiler7DisposeEv
libnode.so.115:_ZN2v811HandleScope10InitializeEPNS_7IsolateE
libnode.so.115:_ZN2v811HandleScope12CreateHandleEPNS_8internal7IsolateEm
libnode.so.115:_ZN2v811HandleScope15NumberOfHandlesEPNS_7IsolateE
libnode.so.115:_ZN2v811HandleScopeC1EPNS_7IsolateE
libnode.so.115:_ZN2v811HandleScopeC2EPNS_7IsolateE
libnode.so.115:_ZN2v811HandleScopeD1Ev
libnode.so.115:_ZN2v811HandleScopeD2Ev
libnode.so.115:_ZN2v811HandleScopedaEPvm
libnode.so.115:_ZN2v811HandleScopedlEPvm
libnode.so.115:_ZN2v811HandleScopenaEm
libnode.so.115:_ZN2v811HandleScopenwEm
libnode.so.115:_ZN2v811Uint16Array3NewENS_5LocalINS_11ArrayBufferEEEmm
libnode.so.115:_ZN2v811Uint16Array3NewENS_5LocalINS_17SharedArrayBufferEEEmm
libnode.so.115:_ZN2v811Uint16Array9CheckCastEPNS_5ValueE
libnode.so.115:_ZN2v811Uint32Array3NewENS_5LocalINS_11ArrayBufferEEEmm
libnode.so.115:_ZN2v811Uint32Array3NewENS_5LocalINS_17SharedArrayBufferEEEmm
libnode.so.115:_ZN2v811Uint32Array9CheckCastEPNS_5ValueE
libnode.so.115:_ZN2v812BackingStore10ReallocateEPNS_7IsolateESt10unique_ptrIS0_St14default_deleteIS0_EEm
libnode.so.115:_ZN2v812BackingStore12EmptyDeleterEPvmS1_
libnode.so.115:_ZN2v812BackingStoreD1Ev
libnode.so.115:_ZN2v812BackingStoreD2Ev
libnode.so.115:_ZN2v812BigIntObject3NewEPNS_7IsolateEl
libnode.so.115:_ZN2v812BigIntObject9CheckCastEPNS_5ValueE
libnode.so.115:_ZN2v812Float32Array3NewENS_5LocalINS_11ArrayBufferEEEmm
libnode.so.115:_ZN2v812Float32Array3NewENS_5LocalINS_17SharedArrayBufferEEEmm
libnode.so.115:_ZN2v812Float32Array9CheckCastEPNS_5ValueE
libnode.so.115:_ZN2v812Float64Array3NewENS_5LocalINS_11ArrayBufferEEEmm
libnode.so.115:_ZN2v812Float64Array3NewENS_5LocalINS_17SharedArrayBufferEEEmm
libnode.so.115:_ZN2v812Float64Array9CheckCastEPNS_5ValueE
libnode.so.115:_ZN2v812HeapProfiler11GetObjectIdENS_5LocalINS_5ValueEEE
libnode.so.115:_ZN2v812HeapProfiler11GetObjectIdEPv
libnode.so.115:_ZN2v812HeapProfiler12GetHeapStatsEPNS_12OutputStreamEPl
libnode.so.115:_ZN2v812HeapProfiler12QueryObjectsENS_5LocalINS_7ContextEEEPNS_20QueryObjectPredicateEPSt6vectorINS_6GlobalINS_6ObjectEEESaIS9_EE
libnode.so.115:_ZN2v812HeapProfiler14ClearObjectIdsEv
libnode.so.115:_ZN2v812HeapProfiler14FindObjectByIdEj
libnode.so.115:_ZN2v812HeapProfiler15GetHeapSnapshotEi
libnode.so.115:_ZN2v812HeapProfiler16GetSnapshotCountEv
libnode.so.115:_ZN2v812HeapProfiler16TakeHeapSnapshotEPNS_15ActivityControlEPNS0_18ObjectNameResolverEbb
libnode.so.115:_ZN2v812HeapProfiler16TakeHeapSnapshotERKNS0_19HeapSnapshotOptionsE
libnode.so.115:_ZN2v812HeapProfiler16kUnknownObjectIdE
libnode.so.115:_ZN2v812HeapProfiler20GetAllocationProfileEv
libnode.so.115:_ZN2v812HeapProfiler22DeleteAllHeapSnapshotsEv
libnode.so.115:_ZN2v812HeapProfiler23StopTrackingHeapObjectsEv
libnode.so.115:_ZN2v812HeapProfiler24StartTrackingHeapObjectsEb
libnode.so.115:_ZN2v812HeapProfiler24StopSamplingHeapProfilerEv
libnode.so.115:_ZN2v812HeapProfiler25StartSamplingHeapProfilerEmiNS0_13SamplingFlagsE
libnode.so.115:_ZN2v812HeapProfiler26SetGetDetachednessCallbackEPFNS_13EmbedderGraph4Node12DetachednessEPNS_7IsolateERKNS_5LocalINS_5ValueEEEtPvESB_
libnode.so.115:_ZN2v812HeapProfiler29AddBuildEmbedderGraphCallbackEPFvPNS_7IsolateEPNS_13EmbedderGraphEPvES5_
libnode.so.115:_ZN2v812HeapProfiler32RemoveBuildEmbedderGraphCallbackEPFvPNS_7IsolateEPNS_13EmbedderGraphEPvES5_
libnode.so.115:_ZN2v812HeapSnapshot6DeleteEv
libnode.so.115:_ZN2v812NumberObject3NewEPNS_7IsolateEd
libnode.so.115:_ZN2v812NumberObject9CheckCastEPNS_5ValueE
libnode.so.115:_ZN2v812StringObject3NewEPNS_7IsolateENS_5LocalINS_6StringEEE
libnode.so.115:_ZN2v812StringObject9CheckCastEPNS_5ValueE
libnode.so.115:_ZN2v812SymbolObject3NewEPNS_7IsolateENS_5LocalINS_6SymbolEEE
libnode.so.115:_ZN2v812SymbolObject9CheckCastEPNS_5ValueE
libnode.so.115:_ZN2v812api_internal10EternalizeEPNS_7IsolateEPNS_5ValueE
libnode.so.115:_ZN2v812api_internal12ToLocalEmptyEv
libnode.so.115:_ZN2v812api_internal13DisposeGlobalEPm
libnode.so.115:_ZN2v812api_internal17FromJustIsNothingEv
libnode.so.115:_ZN2v812api_internal18GlobalizeReferenceEPNS_8internal7IsolateEPm
libnode.so.115:_ZN2v812api_internal19CopyGlobalReferenceEPm
libnode.so.115:_ZN2v812api_internal19MoveGlobalReferenceEPPmS2_
libnode.so.115:_ZN2v812api_internal22AnnotateStrongRetainerEPmPKc
libnode.so.115:_ZN2v812api_internal24InternalFieldOutOfBoundsEi
libnode.so.115:_ZN2v812api_internal8MakeWeakEPPm
libnode.so.115:_ZN2v812api_internal8MakeWeakEPmPvPFvRKNS_16WeakCallbackInfoIvEEENS_16WeakCallbackTypeE
libnode.so.115:_ZN2v812api_internal9ClearWeakEPm
libnode.so.115:_ZN2v813BigInt64Array3NewENS_5LocalINS_11ArrayBufferEEEmm
libnode.so.115:_ZN2v813BigInt64Array3NewENS_5LocalINS_17SharedArrayBufferEEEmm
libnode.so.115:_ZN2v813BigInt64Array9CheckCastEPNS_5ValueE
libnode.so.115:_ZN2v813BooleanObject3NewEPNS_7IsolateEb
libnode.so.115:_ZN2v813BooleanObject9CheckCastEPNS_5ValueE
libnode.so.115:_ZN2v813CFunctionInfoC1ERKNS_9CTypeInfoEjPS2_
libnode.so.115:_ZN2v813CFunctionInfoC2ERKNS_9CTypeInfoEjPS2_
libnode.so.115:_ZN2v813ModuleRequest9CheckCastEPNS_4DataE
libnode.so.115:_ZN2v813RegisterStateC1ERKS0_
libnode.so.115:_ZN2v813RegisterStateC1Ev
libnode.so.115:_ZN2v813RegisterStateC2ERKS0_
libnode.so.115:_ZN2v813RegisterStateC2Ev
libnode.so.115:_ZN2v813RegisterStateD1Ev
libnode.so.115:_ZN2v813RegisterStateD2Ev
libnode.so.115:_ZN2v813RegisterStateaSERKS0_
libnode.so.115:_ZN2v813UnboundScript12GetSourceURLEv
libnode.so.115:_ZN2v813UnboundScript13GetLineNumberEi
libnode.so.115:_ZN2v813UnboundScript13GetScriptNameEv
libnode.so.115:_ZN2v813UnboundScript15GetColumnNumberEi
libnode.so.115:_ZN2v813UnboundScript19GetSourceMappingURLEv
libnode.so.115:_ZN2v813UnboundScript20BindToCurrentContextEv
libnode.so.115:_ZN2v813WasmStreaming15OnBytesReceivedEPKhm
libnode.so.115:_ZN2v813WasmStreaming22SetCompiledModuleBytesEPKhm
libnode.so.115:_ZN2v813WasmStreaming39SetMoreFunctionsCanBeSerializedCallbackESt8functionIFvNS_18CompiledWasmModuleEEE
libnode.so.115:_ZN2v813WasmStreaming5AbortENS_10MaybeLocalINS_5ValueEEE
libnode.so.115:_ZN2v813WasmStreaming6FinishEb
libnode.so.115:_ZN2v813WasmStreaming6SetUrlEPKcm
libnode.so.115:_ZN2v813WasmStreaming6UnpackEPNS_7IsolateENS_5LocalINS_5ValueEEE
libnode.so.115:_ZN2v813WasmStreamingC1ESt10unique_ptrINS0_17WasmStreamingImplESt14default_deleteIS2_EE
libnode.so.115:_ZN2v813WasmStreamingC2ESt10unique_ptrINS0_17WasmStreamingImplESt14default_deleteIS2_EE
libnode.so.115:_ZN2v813WasmStreamingD1Ev
libnode.so.115:_ZN2v813WasmStreamingD2Ev
libnode.so.115:_ZN2v814BigUint64Array3NewENS_5LocalINS_11ArrayBufferEEEmm
libnode.so.115:_ZN2v814BigUint64Array3NewENS_5LocalINS_17SharedArrayBufferEEEmm
libnode.so.115:_ZN2v814BigUint64Array9CheckCastEPNS_5ValueE
libnode.so.115:_ZN2v814CpuProfileNode17kNoLineNumberInfoE
libnode.so.115:_ZN2v814CpuProfileNode19kNoColumnNumberInfoE
libnode.so.115:_ZN2v814HeapStatisticsC1Ev
libnode.so.115:_ZN2v814HeapStatisticsC2Ev
libnode.so.115:_ZN2v814MicrotaskQueue3NewEPNS_7IsolateENS_16MicrotasksPolicyE
libnode.so.115:_ZN2v814ObjectTemplate10SetHandlerERKNS_33NamedPropertyHandlerConfigurationE
libnode.so.115:_ZN2v814ObjectTemplate10SetHandlerERKNS_35IndexedPropertyHandlerConfigurationE
libnode.so.115:_ZN2v814ObjectTemplate11NewInstanceENS_5LocalINS_7ContextEEE
libnode.so.115:_ZN2v814ObjectTemplate11SetAccessorENS_5LocalINS_4NameEEEPFvS3_RKNS_20PropertyCallbackInfoINS_5ValueEEEEPFvS3_NS1_IS5_EERKNS4_IvEEESB_NS_13AccessControlENS_17PropertyAttributeENS_14SideEffectTypeESJ_
libnode.so.115:_ZN2v814ObjectTemplate11SetAccessorENS_5LocalINS_6StringEEEPFvS3_RKNS_20PropertyCallbackInfoINS_5ValueEEEEPFvS3_NS1_IS5_EERKNS4_IvEEESB_NS_13AccessControlENS_17PropertyAttributeENS_14SideEffectTypeESJ_
libnode.so.115:_ZN2v814ObjectTemplate11SetCodeLikeEv
libnode.so.115:_ZN2v814ObjectTemplate17SetImmutableProtoEv
libnode.so.115:_ZN2v814ObjectTemplate18MarkAsUndetectableEv
libnode.so.115:_ZN2v814ObjectTemplate21SetInternalFieldCountEi
libnode.so.115:_ZN2v814ObjectTemplate22SetAccessCheckCallbackEPFbNS_5LocalINS_7ContextEEENS1_INS_6ObjectEEENS1_INS_5ValueEEEES7_
libnode.so.115:_ZN2v814ObjectTemplate24SetCallAsFunctionHandlerEPFvRKNS_20FunctionCallbackInfoINS_5ValueEEEENS_5LocalIS2_EE
libnode.so.115:_ZN2v814ObjectTemplate32SetAccessCheckCallbackAndHandlerEPFbNS_5LocalINS_7ContextEEENS1_INS_6ObjectEEENS1_INS_5ValueEEEERKNS_33NamedPropertyHandlerConfigurationERKNS_35IndexedPropertyHandlerConfigurationES7_
libnode.so.115:_ZN2v814ObjectTemplate3NewEPNS_7IsolateENS_5LocalINS_16FunctionTemplateEEE
libnode.so.115:_ZN2v814ObjectTemplate3NewEPNS_8internal7IsolateENS_5LocalINS_16FunctionTemplateEEE
libnode.so.115:_ZN2v814ObjectTemplate9CheckCastEPNS_4DataE
libnode.so.115:_ZN2v814PrimitiveArray3GetEPNS_7IsolateEi
libnode.so.115:_ZN2v814PrimitiveArray3NewEPNS_7IsolateEi
libnode.so.115:_ZN2v814PrimitiveArray3SetEPNS_7IsolateEiNS_5LocalINS_9PrimitiveEEE
libnode.so.115:_ZN2v814PrimitiveArray9CheckCastEPNS_4DataE
libnode.so.115:_ZN2v814ScriptCompiler10CachedDataC1EPKhiNS1_12BufferPolicyE
libnode.so.115:_ZN2v814ScriptCompiler10CachedDataC2EPKhiNS1_12BufferPolicyE
libnode.so.115:_ZN2v814ScriptCompiler10CachedDataD1Ev
libnode.so.115:_ZN2v814ScriptCompiler10CachedDataD2Ev
libnode.so.115:_ZN2v814ScriptCompiler13CompileModuleENS_5LocalINS_7ContextEEEPNS0_14StreamedSourceENS1_INS_6StringEEERKNS_12ScriptOriginE
libnode.so.115:_ZN2v814ScriptCompiler13CompileModuleEPNS_7IsolateEPNS0_6SourceENS0_14CompileOptionsENS0_13NoCacheReasonE
libnode.so.115:_ZN2v814ScriptCompiler14StartStreamingEPNS_7IsolateEPNS0_14StreamedSourceENS_10ScriptTypeENS0_14CompileOptionsE
libnode.so.115:_ZN2v814ScriptCompiler14StreamedSourceC1ESt10unique_ptrINS0_20ExternalSourceStreamESt14default_deleteIS3_EENS1_8EncodingE
libnode.so.115:_ZN2v814ScriptCompiler14StreamedSourceC2ESt10unique_ptrINS0_20ExternalSourceStreamESt14default_deleteIS3_EENS1_8EncodingE
libnode.so.115:_ZN2v814ScriptCompiler14StreamedSourceD1Ev
libnode.so.115:_ZN2v814ScriptCompiler14StreamedSourceD2Ev
libnode.so.115:_ZN2v814ScriptCompiler15CompileFunctionENS_5LocalINS_7ContextEEEPNS0_6SourceEmPNS1_INS_6StringEEEmPNS1_INS_6ObjectEEENS0_14CompileOptionsENS0_13NoCacheReasonE
libnode.so.115:_ZN2v814ScriptCompiler15CreateCodeCacheENS_5LocalINS_13UnboundScriptEEE
libnode.so.115:_ZN2v814ScriptCompiler15CreateCodeCacheENS_5LocalINS_19UnboundModuleScriptEEE
libnode.so.115:_ZN2v814ScriptCompiler19ScriptStreamingTask3RunEv
libnode.so.115:_ZN2v814ScriptCompiler20CachedDataVersionTagEv
libnode.so.115:_ZN2v814ScriptCompiler20CompileUnboundScriptEPNS_7IsolateEPNS0_6SourceENS0_14CompileOptionsENS0_13NoCacheReasonE
libnode.so.115:_ZN2v814ScriptCompiler20ConsumeCodeCacheTask19SourceTextAvailableEPNS_7IsolateENS_5LocalINS_6StringEEERKNS_12ScriptOriginE
libnode.so.115:_ZN2v814ScriptCompiler20ConsumeCodeCacheTask23MergeWithExistingScriptEv
libnode.so.115:_ZN2v814ScriptCompiler20ConsumeCodeCacheTask3RunEv
libnode.so.115:_ZN2v814ScriptCompiler20ConsumeCodeCacheTaskC1ESt10unique_ptrINS_8internal25BackgroundDeserializeTaskESt14default_deleteIS4_EE
libnode.so.115:_ZN2v814ScriptCompiler20ConsumeCodeCacheTaskC2ESt10unique_ptrINS_8internal25BackgroundDeserializeTaskESt14default_deleteIS4_EE
libnode.so.115:_ZN2v814ScriptCompiler20ConsumeCodeCacheTaskD1Ev
libnode.so.115:_ZN2v814ScriptCompiler20ConsumeCodeCacheTaskD2Ev
libnode.so.115:_ZN2v814ScriptCompiler22CompileUnboundInternalEPNS_7IsolateEPNS0_6SourceENS0_14CompileOptionsENS0_13NoCacheReasonE
libnode.so.115:_ZN2v814ScriptCompiler23CompileFunctionInternalENS_5LocalINS_7ContextEEEPNS0_6SourceEmPNS1_INS_6StringEEEmPNS1_INS_6ObjectEEENS0_14CompileOptionsENS0_13NoCacheReasonEPNS1_INS_14ScriptOrModuleEEE
libnode.so.115:_ZN2v814ScriptCompiler23StartConsumingCodeCacheEPNS_7IsolateESt10unique_ptrINS0_10CachedDataESt14default_deleteIS4_EE
libnode.so.115:_ZN2v814ScriptCompiler26CreateCodeCacheForFunctionENS_5LocalINS_8FunctionEEE
libnode.so.115:_ZN2v814ScriptCompiler7CompileENS_5LocalINS_7ContextEEEPNS0_14StreamedSourceENS1_INS_6StringEEERKNS_12ScriptOriginE
libnode.so.115:_ZN2v814ScriptCompiler7CompileENS_5LocalINS_7ContextEEEPNS0_6SourceENS0_14CompileOptionsENS0_13NoCacheReasonE
libnode.so.115:_ZN2v814ScriptOrModule15GetResourceNameEv
libnode.so.115:_ZN2v814ScriptOrModule18HostDefinedOptionsEv
libnode.so.115:_ZN2v815ArrayBufferView10ByteLengthEv
libnode.so.115:_ZN2v815ArrayBufferView10ByteOffsetEv
libnode.so.115:_ZN2v815ArrayBufferView12CopyContentsEPvm
libnode.so.115:_ZN2v815ArrayBufferView6BufferEv
libnode.so.115:_ZN2v815ArrayBufferView9CheckCastEPNS_5ValueE
libnode.so.115:_ZN2v815MicrotasksScope15GetCurrentDepthEPNS_7IsolateE
libnode.so.115:_ZN2v815MicrotasksScope17PerformCheckpointEPNS_7IsolateE
libnode.so.115:_ZN2v815MicrotasksScope19IsRunningMicrotasksEPNS_7IsolateE
libnode.so.115:_ZN2v815MicrotasksScopeC1ENS_5LocalINS_7ContextEEENS0_4TypeE
libnode.so.115:_ZN2v815MicrotasksScopeC1EPNS_7IsolateENS0_4TypeE
libnode.so.115:_ZN2v815MicrotasksScopeC1EPNS_7IsolateEPNS_14MicrotaskQueueENS0_4TypeE
libnode.so.115:_ZN2v815MicrotasksScopeC2ENS_5LocalINS_7ContextEEENS0_4TypeE
libnode.so.115:_ZN2v815MicrotasksScopeC2EPNS_7IsolateENS0_4TypeE
libnode.so.115:_ZN2v815MicrotasksScopeC2EPNS_7IsolateEPNS_14MicrotaskQueueENS0_4TypeE
libnode.so.115:_ZN2v815MicrotasksScopeD1Ev
libnode.so.115:_ZN2v815MicrotasksScopeD2Ev
libnode.so.115:_ZN2v815SealHandleScopeC1EPNS_7IsolateE
libnode.so.115:_ZN2v815SealHandleScopeC2EPNS_7IsolateE
libnode.so.115:_ZN2v815SealHandleScopeD1Ev
libnode.so.115:_ZN2v815SealHandleScopeD2Ev
libnode.so.115:_ZN2v815SealHandleScopedaEPvm
libnode.so.115:_ZN2v815SealHandleScopedlEPvm
libnode.so.115:_ZN2v815SealHandleScopenaEm
libnode.so.115:_ZN2v815SealHandleScopenwEm
libnode.so.115:_ZN2v815SnapshotCreator10AddContextENS_5LocalINS_7ContextEEENS_31SerializeInternalFieldsCallbackE
libnode.so.115:_ZN2v815SnapshotCreator10CreateBlobENS0_20FunctionCodeHandlingE
libnode.so.115:_ZN2v815SnapshotCreator10GetIsolateEv
libnode.so.115:_ZN2v815SnapshotCreator17SetDefaultContextENS_5LocalINS_7ContextEEENS_31SerializeInternalFieldsCallbackE
libnode.so.115:_ZN2v815SnapshotCreator7AddDataENS_5LocalINS_7ContextEEEm
libnode.so.115:_ZN2v815SnapshotCreator7AddDataEm
libnode.so.115:_ZN2v815SnapshotCreatorC1EPKlPKNS_11StartupDataE
libnode.so.115:_ZN2v815SnapshotCreatorC1EPNS_7IsolateEPKlPKNS_11StartupDataE
libnode.so.115:_ZN2v815SnapshotCreatorC2EPKlPKNS_11StartupDataE
libnode.so.115:_ZN2v815SnapshotCreatorC2EPNS_7IsolateEPKlPKNS_11StartupDataE
libnode.so.115:_ZN2v815SnapshotCreatorD1Ev
libnode.so.115:_ZN2v815SnapshotCreatorD2Ev
libnode.so.115:_ZN2v815ValueSerializer10WriteValueENS_5LocalINS_7ContextEEENS1_INS_5ValueEEE
libnode.so.115:_ZN2v815ValueSerializer11WriteDoubleEd
libnode.so.115:_ZN2v815ValueSerializer11WriteHeaderEv
libnode.so.115:_ZN2v815ValueSerializer11WriteUint32Ej
libnode.so.115:_ZN2v815ValueSerializer11WriteUint64Em
libnode.so.115:_ZN2v815ValueSerializer13WriteRawBytesEPKvm
libnode.so.115:_ZN2v815ValueSerializer19TransferArrayBufferEjNS_5LocalINS_11ArrayBufferEEE
libnode.so.115:_ZN2v815ValueSerializer37SetTreatArrayBufferViewsAsHostObjectsEb
libnode.so.115:_ZN2v815ValueSerializer7ReleaseEv
libnode.so.115:_ZN2v815ValueSerializer8Delegate15WriteHostObjectEPNS_7IsolateENS_5LocalINS_6ObjectEEE
libnode.so.115:_ZN2v815ValueSerializer8Delegate16FreeBufferMemoryEPv
libnode.so.115:_ZN2v815ValueSerializer8Delegate22GetSharedArrayBufferIdEPNS_7IsolateENS_5LocalINS_17SharedArrayBufferEEE
libnode.so.115:_ZN2v815ValueSerializer8Delegate22ReallocateBufferMemoryEPvmPm
libnode.so.115:_ZN2v815ValueSerializer8Delegate23GetWasmModuleTransferIdEPNS_7IsolateENS_5LocalINS_16WasmModuleObjectEEE
libnode.so.115:_ZN2v815ValueSerializer8Delegate24AdoptSharedValueConveyorEPNS_7IsolateEONS_19SharedValueConveyorE
libnode.so.115:_ZN2v815ValueSerializerC1EPNS_7IsolateE
libnode.so.115:_ZN2v815ValueSerializerC1EPNS_7IsolateEPNS0_8DelegateE
libnode.so.115:_ZN2v815ValueSerializerC2EPNS_7IsolateE
libnode.so.115:_ZN2v815ValueSerializerC2EPNS_7IsolateEPNS0_8DelegateE
libnode.so.115:_ZN2v815ValueSerializerD1Ev
libnode.so.115:_ZN2v815ValueSerializerD2Ev
libnode.so.115:_ZN2v816CodeEventHandler6EnableEv
libnode.so.115:_ZN2v816CodeEventHandler7DisableEv
libnode.so.115:_ZN2v816CodeEventHandlerC2EPNS_7IsolateE
libnode.so.115:_ZN2v816CodeEventHandlerD0Ev
libnode.so.115:_ZN2v816CodeEventHandlerD1Ev
libnode.so.115:_ZN2v816CodeEventHandlerD2Ev
libnode.so.115:_ZN2v816FunctionTemplate11GetFunctionENS_5LocalINS_7ContextEEE
libnode.so.115:_ZN2v816FunctionTemplate11HasInstanceENS_5LocalINS_5ValueEEE
libnode.so.115:_ZN2v816FunctionTemplate12NewWithCacheEPNS_7IsolateEPFvRKNS_20FunctionCallbackInfoINS_5ValueEEEENS_5LocalINS_7PrivateEEENSA_IS4_EENSA_INS_9SignatureEEEiNS_14SideEffectTypeE
libnode.so.115:_ZN2v816FunctionTemplate12SetClassNameENS_5LocalINS_6StringEEE
libnode.so.115:_ZN2v816FunctionTemplate14SetCallHandlerEPFvRKNS_20FunctionCallbackInfoINS_5ValueEEEENS_5LocalIS2_EENS_14SideEffectTypeERKNS_10MemorySpanIKNS_9CFunctionEEE
libnode.so.115:_ZN2v816FunctionTemplate15RemovePrototypeEv
libnode.so.115:_ZN2v816FunctionTemplate16InstanceTemplateEv
libnode.so.115:_ZN2v816FunctionTemplate17NewRemoteInstanceEv
libnode.so.115:_ZN2v816FunctionTemplate17PrototypeTemplateEv
libnode.so.115:_ZN2v816FunctionTemplate17ReadOnlyPrototypeEv
libnode.so.115:_ZN2v816FunctionTemplate20SetAcceptAnyReceiverEb
libnode.so.115:_ZN2v816FunctionTemplate25NewWithCFunctionOverloadsEPNS_7IsolateEPFvRKNS_20FunctionCallbackInfoINS_5ValueEEEENS_5LocalIS4_EENSA_INS_9SignatureEEEiNS_19ConstructorBehaviorENS_14SideEffectTypeERKNS_10MemorySpanIKNS_9CFunctionEEE
libnode.so.115:_ZN2v816FunctionTemplate28SetPrototypeProviderTemplateENS_5LocalIS0_EE
libnode.so.115:_ZN2v816FunctionTemplate3NewEPNS_7IsolateEPFvRKNS_20FunctionCallbackInfoINS_5ValueEEEENS_5LocalIS4_EENSA_INS_9SignatureEEEiNS_19ConstructorBehaviorENS_14SideEffectTypeEPKNS_9CFunctionEttt
libnode.so.115:_ZN2v816FunctionTemplate7InheritENS_5LocalIS0_EE
libnode.so.115:_ZN2v816FunctionTemplate9CheckCastEPNS_4DataE
libnode.so.115:_ZN2v816FunctionTemplate9SetLengthEi
libnode.so.115:_ZN2v816WasmMemoryObject6BufferEv
libnode.so.115:_ZN2v816WasmMemoryObject9CheckCastEPNS_5ValueE
libnode.so.115:_ZN2v816WasmModuleObject17GetCompiledModuleEv
libnode.so.115:_ZN2v816WasmModuleObject18FromCompiledModuleEPNS_7IsolateERKNS_18CompiledWasmModuleE
libnode.so.115:_ZN2v816WasmModuleObject7CompileEPNS_7IsolateENS_10MemorySpanIKhEE
libnode.so.115:_ZN2v816WasmModuleObject9CheckCastEPNS_5ValueE
libnode.so.115:_ZN2v817RegisterExtensionESt10unique_ptrINS_9ExtensionESt14default_deleteIS1_EE
libnode.so.115:_ZN2v817SharedArrayBuffer15GetBackingStoreEv
libnode.so.115:_ZN2v817SharedArrayBuffer15NewBackingStoreEPNS_7IsolateEm
libnode.so.115:_ZN2v817SharedArrayBuffer15NewBackingStoreEPvmPFvS1_mS1_ES1_
libnode.so.115:_ZN2v817SharedArrayBuffer3NewEPNS_7IsolateESt10shared_ptrINS_12BackingStoreEE
libnode.so.115:_ZN2v817SharedArrayBuffer3NewEPNS_7IsolateEm
libnode.so.115:_ZN2v817SharedArrayBuffer9CheckCastEPNS_5ValueE
libnode.so.115:_ZN2v817Uint8ClampedArray3NewENS_5LocalINS_11ArrayBufferEEEmm
libnode.so.115:_ZN2v817Uint8ClampedArray3NewENS_5LocalINS_17SharedArrayBufferEEEmm
libnode.so.115:_ZN2v817Uint8ClampedArray9CheckCastEPNS_5ValueE
libnode.so.115:_ZN2v817ValueDeserializer10ReadDoubleEPd
libnode.so.115:_ZN2v817ValueDeserializer10ReadHeaderENS_5LocalINS_7ContextEEE
libnode.so.115:_ZN2v817ValueDeserializer10ReadUint32EPj
libnode.so.115:_ZN2v817ValueDeserializer10ReadUint64EPm
libnode.so.115:_ZN2v817ValueDeserializer12ReadRawBytesEmPPKv
libnode.so.115:_ZN2v817ValueDeserializer19TransferArrayBufferEjNS_5LocalINS_11ArrayBufferEEE
libnode.so.115:_ZN2v817ValueDeserializer25TransferSharedArrayBufferEjNS_5LocalINS_17SharedArrayBufferEEE
libnode.so.115:_ZN2v817ValueDeserializer27SetSupportsLegacyWireFormatEb
libnode.so.115:_ZN2v817ValueDeserializer8Delegate14ReadHostObjectEPNS_7IsolateE
libnode.so.115:_ZN2v817ValueDeserializer8Delegate19GetWasmModuleFromIdEPNS_7IsolateEj
libnode.so.115:_ZN2v817ValueDeserializer8Delegate22GetSharedValueConveyorEPNS_7IsolateE
libnode.so.115:_ZN2v817ValueDeserializer8Delegate26GetSharedArrayBufferFromIdEPNS_7IsolateEj
libnode.so.115:_ZN2v817ValueDeserializer9ReadValueENS_5LocalINS_7ContextEEE
libnode.so.115:_ZN2v817ValueDeserializerC1EPNS_7IsolateEPKhm
libnode.so.115:_ZN2v817ValueDeserializerC1EPNS_7IsolateEPKhmPNS0_8DelegateE
libnode.so.115:_ZN2v817ValueDeserializerC2EPNS_7IsolateEPKhm
libnode.so.115:_ZN2v817ValueDeserializerC2EPNS_7IsolateEPKhmPNS0_8DelegateE
libnode.so.115:_ZN2v817ValueDeserializerD1Ev
libnode.so.115:_ZN2v817ValueDeserializerD2Ev
libnode.so.115:_ZN2v818CompiledWasmModule15GetWireBytesRefEv
libnode.so.115:_ZN2v818CompiledWasmModule9SerializeEv
libnode.so.115:_ZN2v818CompiledWasmModuleC1ESt10shared_ptrINS_8internal4wasm12NativeModuleEEPKcm
libnode.so.115:_ZN2v818CompiledWasmModuleC2ESt10shared_ptrINS_8internal4wasm12NativeModuleEEPKcm
libnode.so.115:_ZN2v818EmbedderStateScopeC1EPNS_7IsolateENS_5LocalINS_7ContextEEENS_16EmbedderStateTagE
libnode.so.115:_ZN2v818EmbedderStateScopeC2EPNS_7IsolateENS_5LocalINS_7ContextEEENS_16EmbedderStateTagE
libnode.so.115:_ZN2v818EmbedderStateScopeD1Ev
libnode.so.115:_ZN2v818EmbedderStateScopeD2Ev
libnode.so.115:_ZN2v818HeapCodeStatisticsC1Ev
libnode.so.115:_ZN2v818HeapCodeStatisticsC2Ev
libnode.so.115:_ZN2v818PropertyDescriptor14set_enumerableEb
libnode.so.115:_ZN2v818PropertyDescriptor16set_configurableEb
libnode.so.115:_ZN2v818PropertyDescriptorC1ENS_5LocalINS_5ValueEEE
libnode.so.115:_ZN2v818PropertyDescriptorC1ENS_5LocalINS_5ValueEEES3_
libnode.so.115:_ZN2v818PropertyDescriptorC1ENS_5LocalINS_5ValueEEEb
libnode.so.115:_ZN2v818PropertyDescriptorC1Ev
libnode.so.115:_ZN2v818PropertyDescriptorC2ENS_5LocalINS_5ValueEEE
libnode.so.115:_ZN2v818PropertyDescriptorC2ENS_5LocalINS_5ValueEEES3_
libnode.so.115:_ZN2v818PropertyDescriptorC2ENS_5LocalINS_5ValueEEEb
libnode.so.115:_ZN2v818PropertyDescriptorC2Ev
libnode.so.115:_ZN2v818PropertyDescriptorD1Ev
libnode.so.115:_ZN2v818PropertyDescriptorD2Ev
libnode.so.115:_ZN2v819CpuProfilingOptionsC1ENS_16CpuProfilingModeEjiNS_10MaybeLocalINS_7ContextEEE
libnode.so.115:_ZN2v819CpuProfilingOptionsC2ENS_16CpuProfilingModeEjiNS_10MaybeLocalINS_7ContextEEE
libnode.so.115:_ZN2v819HeapSpaceStatisticsC1Ev
libnode.so.115:_ZN2v819HeapSpaceStatisticsC2Ev
libnode.so.115:_ZN2v819RegisteredExtension13UnregisterAllEv
libnode.so.115:_ZN2v819RegisteredExtension16first_extension_E
libnode.so.115:_ZN2v819RegisteredExtension8RegisterESt10unique_ptrINS_9ExtensionESt14default_deleteIS2_EE
libnode.so.115:_ZN2v819RegisteredExtensionC1ESt10unique_ptrINS_9ExtensionESt14default_deleteIS2_EE
libnode.so.115:_ZN2v819RegisteredExtensionC2ESt10unique_ptrINS_9ExtensionESt14default_deleteIS2_EE
libnode.so.115:_ZN2v819ResourceConstraints17ConfigureDefaultsEmm
libnode.so.115:_ZN2v819ResourceConstraints29ConfigureDefaultsFromHeapSizeEmm
libnode.so.115:_ZN2v819SharedValueConveyorC1EOS0_
libnode.so.115:_ZN2v819SharedValueConveyorC1EPNS_7IsolateE
libnode.so.115:_ZN2v819SharedValueConveyorC2EOS0_
libnode.so.115:_ZN2v819SharedValueConveyorC2EPNS_7IsolateE
libnode.so.115:_ZN2v819SharedValueConveyorD1Ev
libnode.so.115:_ZN2v819SharedValueConveyorD2Ev
libnode.so.115:_ZN2v819SharedValueConveyoraSEOS0_
libnode.so.115:_ZN2v819UnboundModuleScript12GetSourceURLEv
libnode.so.115:_ZN2v819UnboundModuleScript19GetSourceMappingURLEv
libnode.so.115:_ZN2v820EscapableHandleScope6EscapeEPm
libnode.so.115:_ZN2v820EscapableHandleScopeC1EPNS_7IsolateE
libnode.so.115:_ZN2v820EscapableHandleScopeC2EPNS_7IsolateE
libnode.so.115:_ZN2v820EscapableHandleScopedaEPvm
libnode.so.115:_ZN2v820EscapableHandleScopedlEPvm
libnode.so.115:_ZN2v820EscapableHandleScopenaEm
libnode.so.115:_ZN2v820EscapableHandleScopenwEm
libnode.so.115:_ZN2v820HeapObjectStatisticsC1Ev
libnode.so.115:_ZN2v820HeapObjectStatisticsC2Ev
libnode.so.115:_ZN2v821MeasureMemoryDelegate7DefaultEPNS_7IsolateENS_5LocalINS_7ContextEEENS3_INS_7Promise8ResolverEEENS_17MeasureMemoryModeE
libnode.so.115:_ZN2v822SharedMemoryStatisticsC1Ev
libnode.so.115:_ZN2v822SharedMemoryStatisticsC2Ev
libnode.so.115:_ZN2v829TryHandleWebAssemblyTrapPosixEiP9siginfo_tPv
libnode.so.115:_ZN2v82V810GetVersionEv
libnode.so.115:_ZN2v82V810InitializeEi
libnode.so.115:_ZN2v82V813InitializeICUEPKc
libnode.so.115:_ZN2v82V815DisposePlatformEv
libnode.so.115:_ZN2v82V816SetEntropySourceEPFbPhmE
libnode.so.115:_ZN2v82V818InitializePlatformEPNS_8PlatformE
libnode.so.115:_ZN2v82V818SetFlagsFromStringEPKc
libnode.so.115:_ZN2v82V818SetFlagsFromStringEPKcm
libnode.so.115:_ZN2v82V819SetSnapshotDataBlobEPNS_11StartupDataE
libnode.so.115:_ZN2v82V821SetDcheckErrorHandlerEPFvPKciS2_E
libnode.so.115:_ZN2v82V823SetFlagsFromCommandLineEPiPPcb
libnode.so.115:_ZN2v82V825GetSharedMemoryStatisticsEPNS_22SharedMemoryStatisticsE
libnode.so.115:_ZN2v82V827SetFatalMemoryErrorCallbackEPFvPKcRKNS_10OOMDetailsEE
libnode.so.115:_ZN2v82V828EnableWebAssemblyTrapHandlerEb
libnode.so.115:_ZN2v82V828InitializeICUDefaultLocationEPKcS2_
libnode.so.115:_ZN2v82V829InitializeExternalStartupDataEPKc
libnode.so.115:_ZN2v82V832SetReturnAddressLocationResolverEPFmmE
libnode.so.115:_ZN2v82V837InitializeExternalStartupDataFromFileEPKc
libnode.so.115:_ZN2v82V87DisposeEv
libnode.so.115:_ZN2v835TryToCopyAndConvertArrayToCppBufferILj196608EiEEbNS_5LocalINS_5ArrayEEEPT0_j
libnode.so.115:_ZN2v835TryToCopyAndConvertArrayToCppBufferILj262144EjEEbNS_5LocalINS_5ArrayEEEPT0_j
libnode.so.115:_ZN2v835TryToCopyAndConvertArrayToCppBufferILj458752EfEEbNS_5LocalINS_5ArrayEEEPT0_j
libnode.so.115:_ZN2v835TryToCopyAndConvertArrayToCppBufferILj524288EdEEbNS_5LocalINS_5ArrayEEEPT0_j
libnode.so.115:_ZN2v837GetCalleeSavedRegistersFromEntryFrameEPvPNS_13RegisterStateE
libnode.so.115:_ZN2v83Map3GetENS_5LocalINS_7ContextEEENS1_INS_5ValueEEE
libnode.so.115:_ZN2v83Map3HasENS_5LocalINS_7ContextEEENS1_INS_5ValueEEE
libnode.so.115:_ZN2v83Map3NewEPNS_7IsolateE
libnode.so.115:_ZN2v83Map3SetENS_5LocalINS_7ContextEEENS1_INS_5ValueEEES5_
libnode.so.115:_ZN2v83Map5ClearEv
libnode.so.115:_ZN2v83Map6DeleteENS_5LocalINS_7ContextEEENS1_INS_5ValueEEE
libnode.so.115:_ZN2v83Map9CheckCastEPNS_5ValueE
libnode.so.115:_ZN2v83Set3AddENS_5LocalINS_7ContextEEENS1_INS_5ValueEEE
libnode.so.115:_ZN2v83Set3HasENS_5LocalINS_7ContextEEENS1_INS_5ValueEEE
libnode.so.115:_ZN2v83Set3NewEPNS_7IsolateE
libnode.so.115:_ZN2v83Set5ClearEv
libnode.so.115:_ZN2v83Set6DeleteENS_5LocalINS_7ContextEEENS1_INS_5ValueEEE
libnode.so.115:_ZN2v83Set9CheckCastEPNS_5ValueE
libnode.so.115:_ZN2v84Date3NewENS_5LocalINS_7ContextEEEd
libnode.so.115:_ZN2v84Date9CheckCastEPNS_5ValueE
libnode.so.115:_ZN2v84JSON5ParseENS_5LocalINS_7ContextEEENS1_INS_6StringEEE
libnode.so.115:_ZN2v84JSON9StringifyENS_5LocalINS_7ContextEEENS1_INS_5ValueEEENS1_INS_6StringEEE
libnode.so.115:_ZN2v84LoadEm
libnode.so.115:_ZN2v84Name15GetIdentityHashEv
libnode.so.115:_ZN2v84Name9CheckCastEPNS_4DataE
libnode.so.115:_ZN2v84base10BignumDtoaEdNS0_14BignumDtoaModeEiNS0_6VectorIcEEPiS4_
libnode.so.115:_ZN2v84base11SharedMutex10LockSharedEv
libnode.so.115:_ZN2v84base11SharedMutex12UnlockSharedEv
libnode.so.115:_ZN2v84base11SharedMutex13LockExclusiveEv
libnode.so.115:_ZN2v84base11SharedMutex13TryLockSharedEv
libnode.so.115:_ZN2v84base11SharedMutex15UnlockExclusiveEv
libnode.so.115:_ZN2v84base11SharedMutex16TryLockExclusiveEv
libnode.so.115:_ZN2v84base11SharedMutexC1Ev
libnode.so.115:_ZN2v84base11SharedMutexC2Ev
libnode.so.115:_ZN2v84base11SharedMutexD1Ev
libnode.so.115:_ZN2v84base11SharedMutexD2Ev
libnode.so.115:_ZN2v84base11ThreadTicks11IsSupportedEv
libnode.so.115:_ZN2v84base11ThreadTicks3NowEv
libnode.so.115:_ZN2v84base12CallOnceImplEPSt6atomicIhESt8functionIFvvEE
libnode.so.115:_ZN2v84base12MemoryRegion12FromMapsLineEPKc
libnode.so.115:_ZN2v84base12RelativePathEPKcS2_
libnode.so.115:_ZN2v84base13DoubleToAsciiEdNS0_8DtoaModeEiNS0_6VectorIcEEPiS4_S4_
libnode.so.115:_ZN2v84base13FastFixedDtoaEdiNS0_6VectorIcEEPiS3_
libnode.so.115:_ZN2v84base13PageAllocator11RemapSharedEPvS2_m
libnode.so.115:_ZN2v84base13PageAllocator12ReleasePagesEPvmm
libnode.so.115:_ZN2v84base13PageAllocator13AllocatePagesEPvmmNS_13PageAllocator10PermissionE
libnode.so.115:_ZN2v84base13PageAllocator13DecommitPagesEPvm
libnode.so.115:_ZN2v84base13PageAllocator13RecommitPagesEPvmNS_13PageAllocator10PermissionE
libnode.so.115:_ZN2v84base13PageAllocator14SetPermissionsEPvmNS_13PageAllocator10PermissionE
libnode.so.115:_ZN2v84base13PageAllocator17GetRandomMmapAddrEv
libnode.so.115:_ZN2v84base13PageAllocator17SetRandomMmapSeedEl
libnode.so.115:_ZN2v84base13PageAllocator18DiscardSystemPagesEPvm
libnode.so.115:_ZN2v84base13PageAllocator19AllocateSharedPagesEmPKv
libnode.so.115:_ZN2v84base13PageAllocator22CanAllocateSharedPagesEv
libnode.so.115:_ZN2v84base13PageAllocator9FreePagesEPvm
libnode.so.115:_ZN2v84base13PageAllocatorC1Ev
libnode.so.115:_ZN2v84base13PageAllocatorC2Ev
libnode.so.115:_ZN2v84base14RecursiveMutex4LockEv
libnode.so.115:_ZN2v84base14RecursiveMutex6UnlockEv
libnode.so.115:_ZN2v84base14RecursiveMutex7TryLockEv
libnode.so.115:_ZN2v84base14RecursiveMutexC1Ev
libnode.so.115:_ZN2v84base14RecursiveMutexC2Ev
libnode.so.115:_ZN2v84base14RecursiveMutexD1Ev
libnode.so.115:_ZN2v84base14RecursiveMutexD2Ev
libnode.so.115:_ZN2v84base15RegionAllocator10FindRegionEm
libnode.so.115:_ZN2v84base15RegionAllocator10TrimRegionEmm
libnode.so.115:_ZN2v84base15RegionAllocator11CheckRegionEm
libnode.so.115:_ZN2v84base15RegionAllocator14AllocateRegionEPNS0_21RandomNumberGeneratorEm
libnode.so.115:_ZN2v84base15RegionAllocator14AllocateRegionEm
libnode.so.115:_ZN2v84base15RegionAllocator14AllocateRegionEmmm
libnode.so.115:_ZN2v84base15RegionAllocator16AllocateRegionAtEmmNS1_11RegionStateE
libnode.so.115:_ZN2v84base15RegionAllocator17FreeListAddRegionEPNS1_6RegionE
libnode.so.115:_ZN2v84base15RegionAllocator18FreeListFindRegionEm
libnode.so.115:_ZN2v84base15RegionAllocator20FreeListRemoveRegionEPNS1_6RegionE
libnode.so.115:_ZN2v84base15RegionAllocator21AllocateAlignedRegionEmm
libnode.so.115:_ZN2v84base15RegionAllocator5MergeESt23_Rb_tree_const_iteratorIPNS1_6RegionEES5_
libnode.so.115:_ZN2v84base15RegionAllocator5SplitEPNS1_6RegionEm
libnode.so.115:_ZN2v84base15RegionAllocator6IsFreeEmm
libnode.so.115:_ZN2v84base15RegionAllocatorC1Emmm
libnode.so.115:_ZN2v84base15RegionAllocatorC2Emmm
libnode.so.115:_ZN2v84base15RegionAllocatorD1Ev
libnode.so.115:_ZN2v84base15RegionAllocatorD2Ev
libnode.so.115:_ZN2v84base15VLQBase64DecodeEPKcmPm
libnode.so.115:_ZN2v84base16PowersOfTenCache19kMaxDecimalExponentE
libnode.so.115:_ZN2v84base16PowersOfTenCache19kMinDecimalExponentE
libnode.so.115:_ZN2v84base16PowersOfTenCache24kDecimalExponentDistanceE
libnode.so.115:_ZN2v84base16PowersOfTenCache32GetCachedPowerForDecimalExponentEiPNS0_5DiyFpEPi
libnode.so.115:_ZN2v84base16PowersOfTenCache36GetCachedPowerForBinaryExponentRangeEiiPNS0_5DiyFpEPi
libnode.so.115:_ZN2v84base17ConditionVariable4WaitEPNS0_5MutexE
libnode.so.115:_ZN2v84base17ConditionVariable7WaitForEPNS0_5MutexERKNS0_9TimeDeltaE
libnode.so.115:_ZN2v84base17ConditionVariable9NotifyAllEv
libnode.so.115:_ZN2v84base17ConditionVariable9NotifyOneEv
libnode.so.115:_ZN2v84base17ConditionVariableC1Ev
libnode.so.115:_ZN2v84base17ConditionVariableC2Ev
libnode.so.115:_ZN2v84base17ConditionVariableD1Ev
libnode.so.115:_ZN2v84base17ConditionVariableD2Ev
libnode.so.115:_ZN2v84base17LsanPageAllocator12ReleasePagesEPvmm
libnode.so.115:_ZN2v84base17LsanPageAllocator13AllocatePagesEPvmmNS_13PageAllocator10PermissionE
libnode.so.115:_ZN2v84base17LsanPageAllocator19AllocateSharedPagesEmPKv
libnode.so.115:_ZN2v84base17LsanPageAllocator22CanAllocateSharedPagesEv
libnode.so.115:_ZN2v84base17LsanPageAllocator9FreePagesEPvm
libnode.so.115:_ZN2v84base17LsanPageAllocatorC1EPNS_13PageAllocatorE
libnode.so.115:_ZN2v84base17LsanPageAllocatorC2EPNS_13PageAllocatorE
libnode.so.115:_ZN2v84base17PrintCheckOperandIPKaEENSt9enable_ifIXaaaantsr3std11is_functionINSt14remove_pointerIT_E4typeEEE5valuentsr3std7is_enumIS6_EE5valuesr19has_output_operatorIS6_NS0_18CheckMessageStreamEEE5valueENSt7__cxx1112basic_stringIcSt11char_traitsIcESaIcEEEE4typeES6_
libnode.so.115:_ZN2v84base17PrintCheckOperandIPKcEENSt9enable_ifIXaaaantsr3std11is_functionINSt14remove_pointerIT_E4typeEEE5valuentsr3std7is_enumIS6_EE5valuesr19has_output_operatorIS6_NS0_18CheckMessageStreamEEE5valueENSt7__cxx1112basic_stringIcSt11char_traitsIcESaIcEEEE4typeES6_
libnode.so.115:_ZN2v84base17PrintCheckOperandIPKhEENSt9enable_ifIXaaaantsr3std11is_functionINSt14remove_pointerIT_E4typeEEE5valuentsr3std7is_enumIS6_EE5valuesr19has_output_operatorIS6_NS0_18CheckMessageStreamEEE5valueENSt7__cxx1112basic_stringIcSt11char_traitsIcESaIcEEEE4typeES6_
libnode.so.115:_ZN2v84base17PrintCheckOperandIPaEENSt9enable_ifIXaaaantsr3std11is_functionINSt14remove_pointerIT_E4typeEEE5valuentsr3std7is_enumIS5_EE5valuesr19has_output_operatorIS5_NS0_18CheckMessageStreamEEE5valueENSt7__cxx1112basic_stringIcSt11char_traitsIcESaIcEEEE4typeES5_
libnode.so.115:_ZN2v84base17PrintCheckOperandIPcEENSt9enable_ifIXaaaantsr3std11is_functionINSt14remove_pointerIT_E4typeEEE5valuentsr3std7is_enumIS5_EE5valuesr19has_output_operatorIS5_NS0_18CheckMessageStreamEEE5valueENSt7__cxx1112basic_stringIcSt11char_traitsIcESaIcEEEE4typeES5_
libnode.so.115:_ZN2v84base17PrintCheckOperandIPhEENSt9enable_ifIXaaaantsr3std11is_functionINSt14remove_pointerIT_E4typeEEE5valuentsr3std7is_enumIS5_EE5valuesr19has_output_operatorIS5_NS0_18CheckMessageStreamEEE5valueENSt7__cxx1112basic_stringIcSt11char_traitsIcESaIcEEEE4typeES5_
libnode.so.115:_ZN2v84base17PrintCheckOperandIaEENSt9enable_ifIXaaaantsr3std11is_functionINSt14remove_pointerIT_E4typeEEE5valuentsr3std7is_enumIS4_EE5valuesr19has_output_operatorIS4_NS0_18CheckMessageStreamEEE5valueENSt7__cxx1112basic_stringIcSt11char_traitsIcESaIcEEEE4typeES4_
libnode.so.115:_ZN2v84base17PrintCheckOperandIcEENSt9enable_ifIXaaaantsr3std11is_functionINSt14remove_pointerIT_E4typeEEE5valuentsr3std7is_enumIS4_EE5valuesr19has_output_operatorIS4_NS0_18CheckMessageStreamEEE5valueENSt7__cxx1112basic_stringIcSt11char_traitsIcESaIcEEEE4typeES4_
libnode.so.115:_ZN2v84base17PrintCheckOperandIhEENSt9enable_ifIXaaaantsr3std11is_functionINSt14remove_pointerIT_E4typeEEE5valuentsr3std7is_enumIS4_EE5valuesr19has_output_operatorIS4_NS0_18CheckMessageStreamEEE5valueENSt7__cxx1112basic_stringIcSt11char_traitsIcESaIcEEEE4typeES4_
libnode.so.115:_ZN2v84base17SetDcheckFunctionEPFvPKciS2_E
libnode.so.115:_ZN2v84base18PosixTimezoneCache21DaylightSavingsOffsetEd
libnode.so.115:_ZN2v84base18SetPrintStackTraceEPFvvE
libnode.so.115:_ZN2v84base19MemoryProtectionKey11AllocateKeyEv
libnode.so.115:_ZN2v84base19MemoryProtectionKey16GetKeyPermissionEi
libnode.so.115:_ZN2v84base19MemoryProtectionKey20SetPermissionsAndKeyEPNS_13PageAllocatorENS0_13AddressRegionENS2_10PermissionEi
libnode.so.115:_ZN2v84base19MemoryProtectionKey20SetPermissionsForKeyEiNS1_10PermissionE
libnode.so.115:_ZN2v84base19MemoryProtectionKey36InitializeMemoryProtectionKeySupportEv
libnode.so.115:_ZN2v84base19MemoryProtectionKey7FreeKeyEi
libnode.so.115:_ZN2v84base19VirtualAddressSpace12FreeSubspaceEPNS0_22VirtualAddressSubspaceE
libnode.so.115:_ZN2v84base19VirtualAddressSpace13AllocatePagesEmmmNS_15PagePermissionsE
libnode.so.115:_ZN2v84base19VirtualAddressSpace13DecommitPagesEmm
libnode.so.115:_ZN2v84base19VirtualAddressSpace13RecommitPagesEmmNS_15PagePermissionsE
libnode.so.115:_ZN2v84base19VirtualAddressSpace13SetRandomSeedEl
libnode.so.115:_ZN2v84base19VirtualAddressSpace15FreeGuardRegionEmm
libnode.so.115:_ZN2v84base19VirtualAddressSpace15FreeSharedPagesEmm
libnode.so.115:_ZN2v84base19VirtualAddressSpace16AllocateSubspaceEmmmNS_15PagePermissionsE
libnode.so.115:_ZN2v84base19VirtualAddressSpace17RandomPageAddressEv
libnode.so.115:_ZN2v84base19VirtualAddressSpace18DiscardSystemPagesEmm
libnode.so.115:_ZN2v84base19VirtualAddressSpace18SetPagePermissionsEmmNS_15PagePermissionsE
libnode.so.115:_ZN2v84base19VirtualAddressSpace19AllocateGuardRegionEmm
libnode.so.115:_ZN2v84base19VirtualAddressSpace19AllocateSharedPagesEmmNS_15PagePermissionsElm
libnode.so.115:_ZN2v84base19VirtualAddressSpace20CanAllocateSubspacesEv
libnode.so.115:_ZN2v84base19VirtualAddressSpace9FreePagesEmm
libnode.so.115:_ZN2v84base19VirtualAddressSpaceC1Ev
libnode.so.115:_ZN2v84base19VirtualAddressSpaceC2Ev
libnode.so.115:_ZN2v84base20BoundedPageAllocator12ReleasePagesEPvmm
libnode.so.115:_ZN2v84base20BoundedPageAllocator13AllocatePagesEPvmmNS_13PageAllocator10PermissionE
libnode.so.115:_ZN2v84base20BoundedPageAllocator13DecommitPagesEPvm
libnode.so.115:_ZN2v84base20BoundedPageAllocator13RecommitPagesEPvmNS_13PageAllocator10PermissionE
libnode.so.115:_ZN2v84base20BoundedPageAllocator14SetPermissionsEPvmNS_13PageAllocator10PermissionE
libnode.so.115:_ZN2v84base20BoundedPageAllocator15AllocatePagesAtEmmNS_13PageAllocator10PermissionE
libnode.so.115:_ZN2v84base20BoundedPageAllocator18DiscardSystemPagesEPvm
libnode.so.115:_ZN2v84base20BoundedPageAllocator29ReserveForSharedMemoryMappingEPvm
libnode.so.115:_ZN2v84base20BoundedPageAllocator9FreePagesEPvm
libnode.so.115:_ZN2v84base20BoundedPageAllocatorC1EPNS_13PageAllocatorEmmmNS0_22PageInitializationModeENS0_15PageFreeingModeE
libnode.so.115:_ZN2v84base20BoundedPageAllocatorC2EPNS_13PageAllocatorEmmmNS0_22PageInitializationModeENS0_15PageFreeingModeE
libnode.so.115:_ZN2v84base21PosixInitializeCommonEbPKc
libnode.so.115:_ZN2v84base21PosixMemoryMappedFileD0Ev
libnode.so.115:_ZN2v84base21PosixMemoryMappedFileD1Ev
libnode.so.115:_ZN2v84base21PosixMemoryMappedFileD2Ev
libnode.so.115:_ZN2v84base21RandomNumberGenerator10NextDoubleEv
libnode.so.115:_ZN2v84base21RandomNumberGenerator10NextSampleEmm
libnode.so.115:_ZN2v84base21RandomNumberGenerator11MurmurHash3Em
libnode.so.115:_ZN2v84base21RandomNumberGenerator14NextSampleSlowEmmRKSt13unordered_setImSt4hashImESt8equal_toImESaImEE
libnode.so.115:_ZN2v84base21RandomNumberGenerator16SetEntropySourceEPFbPhmE
libnode.so.115:_ZN2v84base21RandomNumberGenerator4NextEi
libnode.so.115:_ZN2v84base21RandomNumberGenerator7NextIntEi
libnode.so.115:_ZN2v84base21RandomNumberGenerator7SetSeedEl
libnode.so.115:_ZN2v84base21RandomNumberGenerator9NextBytesEPvm
libnode.so.115:_ZN2v84base21RandomNumberGenerator9NextInt64Ev
libnode.so.115:_ZN2v84base21RandomNumberGeneratorC1Ev
libnode.so.115:_ZN2v84base21RandomNumberGeneratorC2Ev
libnode.so.115:_ZN2v84base22VirtualAddressSubspace12FreeSubspaceEPS1_
libnode.so.115:_ZN2v84base22VirtualAddressSubspace13AllocatePagesEmmmNS_15PagePermissionsE
libnode.so.115:_ZN2v84base22VirtualAddressSubspace13DecommitPagesEmm
libnode.so.115:_ZN2v84base22VirtualAddressSubspace13RecommitPagesEmmNS_15PagePermissionsE
libnode.so.115:_ZN2v84base22VirtualAddressSubspace13SetRandomSeedEl
libnode.so.115:_ZN2v84base22VirtualAddressSubspace15FreeGuardRegionEmm
libnode.so.115:_ZN2v84base22VirtualAddressSubspace15FreeSharedPagesEmm
libnode.so.115:_ZN2v84base22VirtualAddressSubspace16AllocateSubspaceEmmmNS_15PagePermissionsE
libnode.so.115:_ZN2v84base22VirtualAddressSubspace17RandomPageAddressEv
libnode.so.115:_ZN2v84base22VirtualAddressSubspace18DiscardSystemPagesEmm
libnode.so.115:_ZN2v84base22VirtualAddressSubspace18SetPagePermissionsEmmNS_15PagePermissionsE
libnode.so.115:_ZN2v84base22VirtualAddressSubspace19AllocateGuardRegionEmm
libnode.so.115:_ZN2v84base22VirtualAddressSubspace19AllocateSharedPagesEmmNS_15PagePermissionsElm
libnode.so.115:_ZN2v84base22VirtualAddressSubspace9FreePagesEmm
libnode.so.115:_ZN2v84base22VirtualAddressSubspaceC1ENS0_23AddressSpaceReservationEPNS0_23VirtualAddressSpaceBaseENS_15PagePermissionsE
libnode.so.115:_ZN2v84base22VirtualAddressSubspaceC2ENS0_23AddressSpaceReservationEPNS0_23VirtualAddressSpaceBaseENS_15PagePermissionsE
libnode.so.115:_ZN2v84base22VirtualAddressSubspaceD0Ev
libnode.so.115:_ZN2v84base22VirtualAddressSubspaceD1Ev
libnode.so.115:_ZN2v84base22VirtualAddressSubspaceD2Ev
libnode.so.115:_ZN2v84base23AddressSpaceReservation10FreeSharedEPvm
libnode.so.115:_ZN2v84base23AddressSpaceReservation13DecommitPagesEPvm
libnode.so.115:_ZN2v84base23AddressSpaceReservation13RecommitPagesEPvmNS0_2OS16MemoryPermissionE
libnode.so.115:_ZN2v84base23AddressSpaceReservation14AllocateSharedEPvmNS0_2OS16MemoryPermissionElm
libnode.so.115:_ZN2v84base23AddressSpaceReservation14SetPermissionsEPvmNS0_2OS16MemoryPermissionE
libnode.so.115:_ZN2v84base23AddressSpaceReservation18DiscardSystemPagesEPvm
libnode.so.115:_ZN2v84base23AddressSpaceReservation18FreeSubReservationES1_
libnode.so.115:_ZN2v84base23AddressSpaceReservation20CreateSubReservationEPvmNS0_2OS16MemoryPermissionE
libnode.so.115:_ZN2v84base23AddressSpaceReservation4FreeEPvm
libnode.so.115:_ZN2v84base23AddressSpaceReservation8AllocateEPvmNS0_2OS16MemoryPermissionE
libnode.so.115:_ZN2v84base23LsanVirtualAddressSpace13AllocatePagesEmmmNS_15PagePermissionsE
libnode.so.115:_ZN2v84base23LsanVirtualAddressSpace15FreeSharedPagesEmm
libnode.so.115:_ZN2v84base23LsanVirtualAddressSpace16AllocateSubspaceEmmmNS_15PagePermissionsE
libnode.so.115:_ZN2v84base23LsanVirtualAddressSpace19AllocateSharedPagesEmmNS_15PagePermissionsElm
libnode.so.115:_ZN2v84base23LsanVirtualAddressSpace9FreePagesEmm
libnode.so.115:_ZN2v84base23LsanVirtualAddressSpaceC1ESt10unique_ptrINS_19VirtualAddressSpaceESt14default_deleteIS3_EE
libnode.so.115:_ZN2v84base23LsanVirtualAddressSpaceC2ESt10unique_ptrINS_19VirtualAddressSpaceESt14default_deleteIS3_EE
libnode.so.115:_ZN2v84base25GetSharedLibraryAddressesEP8_IO_FILE
libnode.so.115:_ZN2v84base25PosixDefaultTimezoneCache13LocalTimezoneEd
libnode.so.115:_ZN2v84base25PosixDefaultTimezoneCache15LocalTimeOffsetEdb
libnode.so.115:_ZN2v84base27charToDigitDecodeForTestingEh
libnode.so.115:_ZN2v84base2OS10DebugBreakEv
libnode.so.115:_ZN2v84base2OS10FreeSharedEPvm
libnode.so.115:_ZN2v84base2OS10InitializeEbPKc
libnode.so.115:_ZN2v84base2OS10PrintErrorEPKcz
libnode.so.115:_ZN2v84base2OS10RemapPagesEPKvmPvNS1_16MemoryPermissionE
libnode.so.115:_ZN2v84base2OS11ExitProcessEi
libnode.so.115:_ZN2v84base2OS11GetUserTimeEPjS2_
libnode.so.115:_ZN2v84base2OS11RemapSharedEPvS2_m
libnode.so.115:_ZN2v84base2OS11VPrintErrorEPKcP13__va_list_tag
libnode.so.115:_ZN2v84base2OS12GetLastErrorEv
libnode.so.115:_ZN2v84base2OS13DecommitPagesEPvm
libnode.so.115:_ZN2v84base2OS13RecommitPagesEPvmNS1_16MemoryPermissionE
libnode.so.115:_ZN2v84base2OS14AllocateSharedEPvmNS1_16MemoryPermissionElm
libnode.so.115:_ZN2v84base2OS14AllocateSharedEmNS1_16MemoryPermissionE
libnode.so.115:_ZN2v84base2OS14CommitPageSizeEv
libnode.so.115:_ZN2v84base2OS14HasLazyCommitsEv
libnode.so.115:_ZN2v84base2OS14SetPermissionsEPvmNS1_16MemoryPermissionE
libnode.so.115:_ZN2v84base2OS15LogFileOpenModeE
libnode.so.115:_ZN2v84base2OS15SetDataReadOnlyEPvm
libnode.so.115:_ZN2v84base2OS16AllocatePageSizeEv
libnode.so.115:_ZN2v84base2OS16MemoryMappedFile4openEPKcNS2_8FileModeE
libnode.so.115:_ZN2v84base2OS16MemoryMappedFile6createEPKcmPv
libnode.so.115:_ZN2v84base2OS17GetGCFakeMMapFileEv
libnode.so.115:_ZN2v84base2OS17GetRandomMmapAddrEv
libnode.so.115:_ZN2v84base2OS17OpenTemporaryFileEv
libnode.so.115:_ZN2v84base2OS17SetRandomMmapSeedEl
libnode.so.115:_ZN2v84base2OS17TimeCurrentMillisEv
libnode.so.115:_ZN2v84base2OS18DirectorySeparatorEv
libnode.so.115:_ZN2v84base2OS18DiscardSystemPagesEPvm
libnode.so.115:_ZN2v84base2OS18GetCurrentThreadIdEv
libnode.so.115:_ZN2v84base2OS18SignalCodeMovingGCEv
libnode.so.115:_ZN2v84base2OS19CreateTimezoneCacheEv
libnode.so.115:_ZN2v84base2OS19GetCurrentProcessIdEv
libnode.so.115:_ZN2v84base2OS20isDirectorySeparatorEc
libnode.so.115:_ZN2v84base2OS22AdjustSchedulingParamsEv
libnode.so.115:_ZN2v84base2OS22CanReserveAddressSpaceEv
libnode.so.115:_ZN2v84base2OS24ActivationFrameAlignmentEv
libnode.so.115:_ZN2v84base2OS25DestroySharedMemoryHandleEl
libnode.so.115:_ZN2v84base2OS25GetFreeMemoryRangesWithinEmmmm
libnode.so.115:_ZN2v84base2OS25GetSharedLibraryAddressesEv
libnode.so.115:_ZN2v84base2OS27FreeAddressSpaceReservationENS0_23AddressSpaceReservationE
libnode.so.115:_ZN2v84base2OS29CreateAddressSpaceReservationEPvmmNS1_16MemoryPermissionE
libnode.so.115:_ZN2v84base2OS34CreateSharedMemoryHandleForTestingEm
libnode.so.115:_ZN2v84base2OS4FreeEPvm
libnode.so.115:_ZN2v84base2OS5AbortEv
libnode.so.115:_ZN2v84base2OS5FOpenEPKcS3_
libnode.so.115:_ZN2v84base2OS5PrintEPKcz
libnode.so.115:_ZN2v84base2OS5SleepENS0_9TimeDeltaE
libnode.so.115:_ZN2v84base2OS6FPrintEP8_IO_FILEPKcz
libnode.so.115:_ZN2v84base2OS6RemoveEPKc
libnode.so.115:_ZN2v84base2OS6VPrintEPKcP13__va_list_tag
libnode.so.115:_ZN2v84base2OS7ReleaseEPvm
libnode.so.115:_ZN2v84base2OS7StrNCpyEPciPKcm
libnode.so.115:_ZN2v84base2OS7VFPrintEP8_IO_FILEPKcP13__va_list_tag
libnode.so.115:_ZN2v84base2OS8AllocateEPvmmNS1_16MemoryPermissionE
libnode.so.115:_ZN2v84base2OS8SNPrintFEPciPKcz
libnode.so.115:_ZN2v84base2OS9VSNPrintFEPciPKcP13__va_list_tag
libnode.so.115:_ZN2v84base30EmulatedVirtualAddressSubspace13AllocatePagesEmmmNS_15PagePermissionsE
libnode.so.115:_ZN2v84base30EmulatedVirtualAddressSubspace13DecommitPagesEmm
libnode.so.115:_ZN2v84base30EmulatedVirtualAddressSubspace13RecommitPagesEmmNS_15PagePermissionsE
libnode.so.115:_ZN2v84base30EmulatedVirtualAddressSubspace13SetRandomSeedEl
libnode.so.115:_ZN2v84base30EmulatedVirtualAddressSubspace15FreeGuardRegionEmm
libnode.so.115:_ZN2v84base30EmulatedVirtualAddressSubspace15FreeSharedPagesEmm
libnode.so.115:_ZN2v84base30EmulatedVirtualAddressSubspace16AllocateSubspaceEmmmNS_15PagePermissionsE
libnode.so.115:_ZN2v84base30EmulatedVirtualAddressSubspace17RandomPageAddressEv
libnode.so.115:_ZN2v84base30EmulatedVirtualAddressSubspace18DiscardSystemPagesEmm
libnode.so.115:_ZN2v84base30EmulatedVirtualAddressSubspace18SetPagePermissionsEmmNS_15PagePermissionsE
libnode.so.115:_ZN2v84base30EmulatedVirtualAddressSubspace19AllocateGuardRegionEmm
libnode.so.115:_ZN2v84base30EmulatedVirtualAddressSubspace19AllocateSharedPagesEmmNS_15PagePermissionsElm
libnode.so.115:_ZN2v84base30EmulatedVirtualAddressSubspace20CanAllocateSubspacesEv
libnode.so.115:_ZN2v84base30EmulatedVirtualAddressSubspace9FreePagesEmm
libnode.so.115:_ZN2v84base30EmulatedVirtualAddressSubspaceC1EPNS_19VirtualAddressSpaceEmmm
libnode.so.115:_ZN2v84base30EmulatedVirtualAddressSubspaceC2EPNS_19VirtualAddressSpaceEmmm
libnode.so.115:_ZN2v84base30EmulatedVirtualAddressSubspaceD0Ev
libnode.so.115:_ZN2v84base30EmulatedVirtualAddressSubspaceD1Ev
libnode.so.115:_ZN2v84base30EmulatedVirtualAddressSubspaceD2Ev
libnode.so.115:_ZN2v84base32VirtualAddressSpacePageAllocator12ReleasePagesEPvmm
libnode.so.115:_ZN2v84base32VirtualAddressSpacePageAllocator13AllocatePagesEPvmmNS_13PageAllocator10PermissionE
libnode.so.115:_ZN2v84base32VirtualAddressSpacePageAllocator13DecommitPagesEPvm
libnode.so.115:_ZN2v84base32VirtualAddressSpacePageAllocator13RecommitPagesEPvmNS_13PageAllocator10PermissionE
libnode.so.115:_ZN2v84base32VirtualAddressSpacePageAllocator14SetPermissionsEPvmNS_13PageAllocator10PermissionE
libnode.so.115:_ZN2v84base32VirtualAddressSpacePageAllocator18DiscardSystemPagesEPvm
libnode.so.115:_ZN2v84base32VirtualAddressSpacePageAllocator9FreePagesEPvm
libnode.so.115:_ZN2v84base32VirtualAddressSpacePageAllocatorC1EPNS_19VirtualAddressSpaceE
libnode.so.115:_ZN2v84base32VirtualAddressSpacePageAllocatorC2EPNS_19VirtualAddressSpaceE
libnode.so.115:_ZN2v84base33GetProtectionFromMemoryPermissionENS0_2OS16MemoryPermissionE
libnode.so.115:_ZN2v84base3CPUC1Ev
libnode.so.115:_ZN2v84base3CPUC2Ev
libnode.so.115:_ZN2v84base4Time10FromJsTimeEd
libnode.so.115:_ZN2v84base4Time11FromTimevalE7timeval
libnode.so.115:_ZN2v84base4Time12FromTimespecE8timespec
libnode.so.115:_ZN2v84base4Time17NowFromSystemTimeEv
libnode.so.115:_ZN2v84base4Time3NowEv
libnode.so.115:_ZN2v84base4bits11SignedDiv32Eii
libnode.so.115:_ZN2v84base4bits11SignedDiv64Ell
libnode.so.115:_ZN2v84base4bits11SignedMod32Eii
libnode.so.115:_ZN2v84base4bits11SignedMod64Ell
libnode.so.115:_ZN2v84base4bits15SignedMulHigh32Eii
libnode.so.115:_ZN2v84base4bits15SignedMulHigh64Ell
libnode.so.115:_ZN2v84base4bits17UnsignedMulHigh32Ejj
libnode.so.115:_ZN2v84base4bits17UnsignedMulHigh64Emm
libnode.so.115:_ZN2v84base4bits20SignedSaturatedAdd64Ell
libnode.so.115:_ZN2v84base4bits20SignedSaturatedSub64Ell
libnode.so.115:_ZN2v84base4bits21RoundUpToPowerOfTwo32Ej
libnode.so.115:_ZN2v84base4bits21RoundUpToPowerOfTwo64Em
libnode.so.115:_ZN2v84base4bits21SignedMulHighAndAdd32Eiii
libnode.so.115:_ZN2v84base5DiyFp8MultiplyERKS1_
libnode.so.115:_ZN2v84base5Mutex4LockEv
libnode.so.115:_ZN2v84base5Mutex6UnlockEv
libnode.so.115:_ZN2v84base5Mutex7TryLockEv
libnode.so.115:_ZN2v84base5MutexC1Ev
libnode.so.115:_ZN2v84base5MutexC2Ev
libnode.so.115:_ZN2v84base5MutexD1Ev
libnode.so.115:_ZN2v84base5MutexD2Ev
libnode.so.115:_ZN2v84base5Stack13GetStackStartEv
libnode.so.115:_ZN2v84base5Stack23GetCurrentStackPositionEv
libnode.so.115:_ZN2v84base5Stack29ObtainCurrentThreadStackStartEv
libnode.so.115:_ZN2v84base5debug10StackTraceC1EPKPKvm
libnode.so.115:_ZN2v84base5debug10StackTraceC1Ev
libnode.so.115:_ZN2v84base5debug10StackTraceC2EPKPKvm
libnode.so.115:_ZN2v84base5debug10StackTraceC2Ev
libnode.so.115:_ZN2v84base5debug10StackTraceD1Ev
libnode.so.115:_ZN2v84base5debug10StackTraceD2Ev
libnode.so.115:_ZN2v84base5debug22DisableSignalStackDumpEv
libnode.so.115:_ZN2v84base5debug27EnableInProcessStackDumpingEv
libnode.so.115:_ZN2v84base5debug8internal6itoa_rElPcmim
libnode.so.115:_ZN2v84base6Bignum11PlusCompareERKS1_S3_S3_
libnode.so.115:_ZN2v84base6Bignum12AssignBignumERKS1_
libnode.so.115:_ZN2v84base6Bignum12AssignUInt16Et
libnode.so.115:_ZN2v84base6Bignum12AssignUInt64Em
libnode.so.115:_ZN2v84base6Bignum13SubtractTimesERKS1_i
libnode.so.115:_ZN2v84base6Bignum14SubtractBignumERKS1_
libnode.so.115:_ZN2v84base6Bignum15AssignHexStringENS0_6VectorIKcEE
libnode.so.115:_ZN2v84base6Bignum15BigitsShiftLeftEi
libnode.so.115:_ZN2v84base6Bignum16MultiplyByUInt32Ej
libnode.so.115:_ZN2v84base6Bignum16MultiplyByUInt64Em
libnode.so.115:_ZN2v84base6Bignum17AssignPowerUInt16Eti
libnode.so.115:_ZN2v84base6Bignum19AssignDecimalStringENS0_6VectorIKcEE
libnode.so.115:_ZN2v84base6Bignum20MultiplyByPowerOfTenEi
libnode.so.115:_ZN2v84base6Bignum21DivideModuloIntBignumERKS1_
libnode.so.115:_ZN2v84base6Bignum4ZeroEv
libnode.so.115:_ZN2v84base6Bignum5AlignERKS1_
libnode.so.115:_ZN2v84base6Bignum5ClampEv
libnode.so.115:_ZN2v84base6Bignum6SquareEv
libnode.so.115:_ZN2v84base6Bignum7CompareERKS1_S3_
libnode.so.115:_ZN2v84base6Bignum9AddBignumERKS1_
libnode.so.115:_ZN2v84base6Bignum9AddUInt64Em
libnode.so.115:_ZN2v84base6Bignum9ShiftLeftEi
libnode.so.115:_ZN2v84base6BignumC1Ev
libnode.so.115:_ZN2v84base6BignumC2Ev
libnode.so.115:_ZN2v84base6StrtodENS0_6VectorIKcEEi
libnode.so.115:_ZN2v84base6Thread14GetThreadLocalEi
libnode.so.115:_ZN2v84base6Thread14SetThreadLocalEiPv
libnode.so.115:_ZN2v84base6Thread20CreateThreadLocalKeyEv
libnode.so.115:_ZN2v84base6Thread20DeleteThreadLocalKeyEi
libnode.so.115:_ZN2v84base6Thread4JoinEv
libnode.so.115:_ZN2v84base6Thread5StartEv
libnode.so.115:_ZN2v84base6Thread8set_nameEPKc
libnode.so.115:_ZN2v84base6ThreadC2ERKNS1_7OptionsE
libnode.so.115:_ZN2v84base6ThreadD0Ev
libnode.so.115:_ZN2v84base6ThreadD1Ev
libnode.so.115:_ZN2v84base6ThreadD2Ev
libnode.so.115:_ZN2v84base7StrNCpyENS0_6VectorIcEEPKcm
libnode.so.115:_ZN2v84base7SysInfo15AddressSpaceEndEv
libnode.so.115:_ZN2v84base7SysInfo18NumberOfProcessorsEv
libnode.so.115:_ZN2v84base7SysInfo21AmountOfVirtualMemoryEv
libnode.so.115:_ZN2v84base7SysInfo22AmountOfPhysicalMemoryEv
libnode.so.115:_ZN2v84base7ieee7543cosEd
libnode.so.115:_ZN2v84base7ieee7543expEd
libnode.so.115:_ZN2v84base7ieee7543logEd
libnode.so.115:_ZN2v84base7ieee7543powEdd
libnode.so.115:_ZN2v84base7ieee7543sinEd
libnode.so.115:_ZN2v84base7ieee7543tanEd
libnode.so.115:_ZN2v84base7ieee7544acosEd
libnode.so.115:_ZN2v84base7ieee7544asinEd
libnode.so.115:_ZN2v84base7ieee7544atanEd
libnode.so.115:_ZN2v84base7ieee7544cbrtEd
libnode.so.115:_ZN2v84base7ieee7544coshEd
libnode.so.115:_ZN2v84base7ieee7544log2Ed
libnode.so.115:_ZN2v84base7ieee7544sinhEd
libnode.so.115:_ZN2v84base7ieee7544tanhEd
libnode.so.115:_ZN2v84base7ieee7545acoshEd
libnode.so.115:_ZN2v84base7ieee7545asinhEd
libnode.so.115:_ZN2v84base7ieee7545atan2Edd
libnode.so.115:_ZN2v84base7ieee7545atanhEd
libnode.so.115:_ZN2v84base7ieee7545expm1Ed
libnode.so.115:_ZN2v84base7ieee7545log10Ed
libnode.so.115:_ZN2v84base7ieee7545log1pEd
libnode.so.115:_ZN2v84base8FastDtoaEdNS0_12FastDtoaModeEiNS0_6VectorIcEEPiS4_
libnode.so.115:_ZN2v84base8IsSubsetENS_15PagePermissionsES1_
libnode.so.115:_ZN2v84base8SNPrintFENS0_6VectorIcEEPKcz
libnode.so.115:_ZN2v84base9Semaphore4WaitEv
libnode.so.115:_ZN2v84base9Semaphore6SignalEv
libnode.so.115:_ZN2v84base9Semaphore7WaitForERKNS0_9TimeDeltaE
libnode.so.115:_ZN2v84base9SemaphoreC1Ei
libnode.so.115:_ZN2v84base9SemaphoreC2Ei
libnode.so.115:_ZN2v84base9SemaphoreD1Ev
libnode.so.115:_ZN2v84base9SemaphoreD2Ev
libnode.so.115:_ZN2v84base9TimeDelta12FromTimespecE8timespec
libnode.so.115:_ZN2v84base9TimeTicks16IsHighResolutionEv
libnode.so.115:_ZN2v84base9TimeTicks3NowEv
libnode.so.115:_ZN2v84base9VSNPrintFENS0_6VectorIcEEPKcP13__va_list_tag
libnode.so.115:_ZN2v84baselsERSoRKNS0_4TimeE
libnode.so.115:_ZN2v85Array3NewEPNS_7IsolateEPNS_5LocalINS_5ValueEEEm
libnode.so.115:_ZN2v85Array3NewEPNS_7IsolateEi
libnode.so.115:_ZN2v85Array9CheckCastEPNS_5ValueE
libnode.so.115:_ZN2v85Int329CheckCastEPNS_4DataE
libnode.so.115:_ZN2v85Proxy10GetHandlerEv
libnode.so.115:_ZN2v85Proxy3NewENS_5LocalINS_7ContextEEENS1_INS_6ObjectEEES5_
libnode.so.115:_ZN2v85Proxy6RevokeEv
libnode.so.115:_ZN2v85Proxy9CheckCastEPNS_5ValueE
libnode.so.115:_ZN2v85Proxy9GetTargetEv
libnode.so.115:_ZN2v85Utils16ReportApiFailureEPKcS2_
libnode.so.115:_ZN2v85Utils16ReportOOMFailureEPNS_8internal7IsolateEPKcRKNS_10OOMDetailsE
libnode.so.115:_ZN2v85Value10InstanceOfENS_5LocalINS_7ContextEEENS1_INS_6ObjectEEE
libnode.so.115:_ZN2v85Value6TypeOfEPNS_7IsolateE
libnode.so.115:_ZN2v85Value9CheckCastEPNS_4DataE
libnode.so.115:_ZN2v85debug10GetBuiltinEPNS_7IsolateENS0_7BuiltinE
libnode.so.115:_ZN2v85debug10WasmScript11DisassembleEPNS0_20DisassemblyCollectorEPSt6vectorIiSaIiEE
libnode.so.115:_ZN2v85debug10WasmScript15GetFunctionHashEi
libnode.so.115:_ZN2v85debug10WasmScript4CastEPNS0_6ScriptE
libnode.so.115:_ZN2v85debug11PrepareStepEPNS_7IsolateENS0_10StepActionE
libnode.so.115:_ZN2v85debug12AccessorPair14IsAccessorPairENS_5LocalINS_5ValueEEE
libnode.so.115:_ZN2v85debug12AccessorPair6getterEv
libnode.so.115:_ZN2v85debug12AccessorPair6setterEv
libnode.so.115:_ZN2v85debug12AccessorPair9CheckCastEPNS_5ValueE
libnode.so.115:_ZN2v85debug12GetContextIdENS_5LocalINS_7ContextEEE
libnode.so.115:_ZN2v85debug12GetInspectorEPNS_7IsolateE
libnode.so.115:_ZN2v85debug12SetContextIdENS_5LocalINS_7ContextEEEi
libnode.so.115:_ZN2v85debug12SetInspectorEPNS_7IsolateEPN12v8_inspector11V8InspectorE
libnode.so.115:_ZN2v85debug13BreakRightNowEPNS_7IsolateENS_4base7EnumSetINS0_11BreakReasonEiEE
libnode.so.115:_ZN2v85debug13ClearSteppingEPNS_7IsolateE
libnode.so.115:_ZN2v85debug13ScopeIterator17CreateForFunctionEPNS_7IsolateENS_5LocalINS_8FunctionEEE
libnode.so.115:_ZN2v85debug13ScopeIterator24CreateForGeneratorObjectEPNS_7IsolateENS_5LocalINS_6ObjectEEE
libnode.so.115:_ZN2v85debug14CallFunctionOnENS_5LocalINS_7ContextEEENS1_INS_8FunctionEEENS1_INS_5ValueEEEiPS7_b
libnode.so.115:_ZN2v85debug14EphemeronTable3GetEPNS_7IsolateENS_5LocalINS_5ValueEEE
libnode.so.115:_ZN2v85debug14EphemeronTable3NewEPNS_7IsolateE
libnode.so.115:_ZN2v85debug14EphemeronTable3SetEPNS_7IsolateENS_5LocalINS_5ValueEEES6_
libnode.so.115:_ZN2v85debug14EvaluateGlobalEPNS_7IsolateENS_5LocalINS_6StringEEENS0_18EvaluateGlobalModeEb
libnode.so.115:_ZN2v85debug14GetDebuggingIdENS_5LocalINS_8FunctionEEE
libnode.so.115:_ZN2v85debug14SetReturnValueEPNS_7IsolateENS_5LocalINS_5ValueEEE
libnode.so.115:_ZN2v85debug15CanBreakProgramEPNS_7IsolateE
libnode.so.115:_ZN2v85debug15GeneratorObject11IsSuspendedEv
libnode.so.115:_ZN2v85debug15GeneratorObject17SuspendedLocationEv
libnode.so.115:_ZN2v85debug15GeneratorObject4CastENS_5LocalINS_5ValueEEE
libnode.so.115:_ZN2v85debug15GeneratorObject6ScriptEv
libnode.so.115:_ZN2v85debug15GeneratorObject8FunctionEv
libnode.so.115:_ZN2v85debug15WasmValueObject17IsWasmValueObjectENS_5LocalINS_5ValueEEE
libnode.so.115:_ZN2v85debug15WasmValueObject9CheckCastEPNS_5ValueE
libnode.so.115:_ZN2v85debug16GetLoadedScriptsEPNS_7IsolateERSt6vectorINS_6GlobalINS0_6ScriptEEESaIS6_EE
libnode.so.115:_ZN2v85debug16PropertyIterator6CreateENS_5LocalINS_7ContextEEENS2_INS_6ObjectEEEb
libnode.so.115:_ZN2v85debug16RemoveBreakpointEPNS_7IsolateEi
libnode.so.115:_ZN2v85debug16SetDebugDelegateEPNS_7IsolateEPNS0_13DebugDelegateE
libnode.so.115:_ZN2v85debug17DisableBreakScopeC1EPNS_7IsolateE
libnode.so.115:_ZN2v85debug17DisableBreakScopeC2EPNS_7IsolateE
libnode.so.115:_ZN2v85debug17DisableBreakScopeD1Ev
libnode.so.115:_ZN2v85debug17DisableBreakScopeD2Ev
libnode.so.115:_ZN2v85debug17GetPrivateMembersENS_5LocalINS_7ContextEEENS1_INS_6ObjectEEEiPSt6vectorINS1_INS_5ValueEEESaIS8_EESB_
libnode.so.115:_ZN2v85debug18EstimatedValueSizeEPNS_7IsolateENS_5LocalINS_5ValueEEE
libnode.so.115:_ZN2v85debug18GetCreationContextENS_5LocalINS_6ObjectEEE
libnode.so.115:_ZN2v85debug18GetCurrentPlatformEv
libnode.so.115:_ZN2v85debug18GetDateDescriptionENS_5LocalINS_4DateEEE
libnode.so.115:_ZN2v85debug18GetNextRandomInt64EPNS_7IsolateE
libnode.so.115:_ZN2v85debug18SetConsoleDelegateEPNS_7IsolateEPNS0_15ConsoleDelegateE
libnode.so.115:_ZN2v85debug18StackTraceIterator6CreateEPNS_7IsolateEi
libnode.so.115:_ZN2v85debug19PrepareRestartFrameEPNS_7IsolateEi
libnode.so.115:_ZN2v85debug20ConsoleCallArgumentsC1EPNS_8internal7IsolateERKNS2_16BuiltinArgumentsE
libnode.so.115:_ZN2v85debug20ConsoleCallArgumentsC1ERKNS_20FunctionCallbackInfoINS_5ValueEEE
libnode.so.115:_ZN2v85debug20ConsoleCallArgumentsC2EPNS_8internal7IsolateERKNS2_16BuiltinArgumentsE
libnode.so.115:_ZN2v85debug20ConsoleCallArgumentsC2ERKNS_20FunctionCallbackInfoINS_5ValueEEE
libnode.so.115:_ZN2v85debug20GetBigIntDescriptionEPNS_7IsolateENS_5LocalINS_6BigIntEEE
libnode.so.115:_ZN2v85debug20GetBigIntStringValueEPNS_7IsolateENS_5LocalINS_6BigIntEEE
libnode.so.115:_ZN2v85debug20SetBreakPointsActiveEPNS_7IsolateEb
libnode.so.115:_ZN2v85debug20SetTerminateOnResumeEPNS_7IsolateE
libnode.so.115:_ZN2v85debug21GetInternalPropertiesEPNS_7IsolateENS_5LocalINS_5ValueEEE
libnode.so.115:_ZN2v85debug21GetMessageFromPromiseENS_5LocalINS_7PromiseEEE
libnode.so.115:_ZN2v85debug21SetAsyncEventDelegateEPNS_7IsolateEPNS0_18AsyncEventDelegateE
libnode.so.115:_ZN2v85debug21SetFunctionBreakpointENS_5LocalINS_8FunctionEEENS1_INS_6StringEEEPi
libnode.so.115:_ZN2v85debug22ChangeBreakOnExceptionEPNS_7IsolateENS0_19ExceptionBreakStateE
libnode.so.115:_ZN2v85debug22CompileInspectorScriptEPNS_7IsolateENS_5LocalINS_6StringEEE
libnode.so.115:_ZN2v85debug22ForceGarbageCollectionEPNS_7IsolateEN5cppgc18EmbedderStackStateE
libnode.so.115:_ZN2v85debug22GetFunctionDescriptionENS_5LocalINS_8FunctionEEE
libnode.so.115:_ZN2v85debug23GlobalLexicalScopeNamesENS_5LocalINS_7ContextEEEPSt6vectorINS_6GlobalINS_6StringEEESaIS7_EE
libnode.so.115:_ZN2v85debug23PostponeInterruptsScopeC1EPNS_7IsolateE
libnode.so.115:_ZN2v85debug23PostponeInterruptsScopeC2EPNS_7IsolateE
libnode.so.115:_ZN2v85debug23PostponeInterruptsScopeD1Ev
libnode.so.115:_ZN2v85debug23PostponeInterruptsScopeD2Ev
libnode.so.115:_ZN2v85debug24EnterDebuggingForIsolateEPNS_7IsolateE
libnode.so.115:_ZN2v85debug24EvaluateGlobalForTestingEPNS_7IsolateENS_5LocalINS_6ScriptEEENS0_18EvaluateGlobalModeEb
libnode.so.115:_ZN2v85debug24LeaveDebuggingForIsolateEPNS_7IsolateE
libnode.so.115:_ZN2v85debug25ResetBlackboxedStateCacheEPNS_7IsolateENS_5LocalINS0_6ScriptEEE
libnode.so.115:_ZN2v85debug26CreateMessageFromExceptionEPNS_7IsolateENS_5LocalINS_5ValueEEE
libnode.so.115:_ZN2v85debug26SetBreakOnNextFunctionCallEPNS_7IsolateE
libnode.so.115:_ZN2v85debug28ClearBreakOnNextFunctionCallEPNS_7IsolateE
libnode.so.115:_ZN2v85debug29NotifyDebuggerPausedEventSentEPNS_7IsolateE
libnode.so.115:_ZN2v85debug37RecordAsyncStackTaggingCreateTaskCallEPNS_7IsolateE
libnode.so.115:_ZN2v85debug6Script20RemoveWasmBreakpointEi
libnode.so.115:_ZN2v85debug8Coverage10ScriptDataC1EmSt10shared_ptrINS_8internal8CoverageEE
libnode.so.115:_ZN2v85debug8Coverage10ScriptDataC2EmSt10shared_ptrINS_8internal8CoverageEE
libnode.so.115:_ZN2v85debug8Coverage10SelectModeEPNS_7IsolateENS0_12CoverageModeE
libnode.so.115:_ZN2v85debug8Coverage14CollectPreciseEPNS_7IsolateE
libnode.so.115:_ZN2v85debug8Coverage17CollectBestEffortEPNS_7IsolateE
libnode.so.115:_ZN2v85debug8LocationC1Eii
libnode.so.115:_ZN2v85debug8LocationC1Ev
libnode.so.115:_ZN2v85debug8LocationC2Eii
libnode.so.115:_ZN2v85debug8LocationC2Ev
libnode.so.115:_ZN2v86BigInt12NewFromWordsENS_5LocalINS_7ContextEEEiiPKm
libnode.so.115:_ZN2v86BigInt15NewFromUnsignedEPNS_7IsolateEm
libnode.so.115:_ZN2v86BigInt3NewEPNS_7IsolateEl
libnode.so.115:_ZN2v86BigInt9CheckCastEPNS_4DataE
libnode.so.115:_ZN2v86Locker10InitializeEPNS_7IsolateE
libnode.so.115:_ZN2v86Locker8IsLockedEPNS_7IsolateE
libnode.so.115:_ZN2v86LockerD1Ev
libnode.so.115:_ZN2v86LockerD2Ev
libnode.so.115:_ZN2v86Module17InstantiateModuleENS_5LocalINS_7ContextEEEPFNS_10MaybeLocalIS0_EES3_NS1_INS_6StringEEENS1_INS_10FixedArrayEEENS1_IS0_EEE
libnode.so.115:_ZN2v86Module18GetModuleNamespaceEv
libnode.so.115:_ZN2v86Module21CreateSyntheticModuleEPNS_7IsolateENS_5LocalINS_6StringEEERKSt6vectorIS5_SaIS5_EEPFNS_10MaybeLocalINS_5ValueEEENS3_INS_7ContextEEENS3_IS0_EEE
libnode.so.115:_ZN2v86Module22GetUnboundModuleScriptEv
libnode.so.115:_ZN2v86Module24SetSyntheticModuleExportEPNS_7IsolateENS_5LocalINS_6StringEEENS3_INS_5ValueEEE
libnode.so.115:_ZN2v86Module30GetStalledTopLevelAwaitMessageEPNS_7IsolateE
libnode.so.115:_ZN2v86Module8EvaluateENS_5LocalINS_7ContextEEE
libnode.so.115:_ZN2v86Module9CheckCastEPNS_4DataE
libnode.so.115:_ZN2v86Number3NewEPNS_7IsolateEd
libnode.so.115:_ZN2v86Number9CheckCastEPNS_4DataE
libnode.so.115:_ZN2v86Object10GetIsolateEv
libnode.so.115:_ZN2v86Object10GetPrivateENS_5LocalINS_7ContextEEENS1_INS_7PrivateEEE
libnode.so.115:_ZN2v86Object10HasPrivateENS_5LocalINS_7ContextEEENS1_INS_7PrivateEEE
libnode.so.115:_ZN2v86Object10SetPrivateENS_5LocalINS_7ContextEEENS1_INS_7PrivateEEENS1_INS_5ValueEEE
libnode.so.115:_ZN2v86Object11SetAccessorENS_5LocalINS_7ContextEEENS1_INS_4NameEEEPFvS5_RKNS_20PropertyCallbackInfoINS_5ValueEEEEPFvS5_NS1_IS7_EERKNS6_IvEEENS_10MaybeLocalIS7_EENS_13AccessControlENS_17PropertyAttributeENS_14SideEffectTypeESN_
libnode.so.115:_ZN2v86Object12GetPrototypeEv
libnode.so.115:_ZN2v86Object12SetPrototypeENS_5LocalINS_7ContextEEENS1_INS_5ValueEEE
libnode.so.115:_ZN2v86Object13DeletePrivateENS_5LocalINS_7ContextEEENS1_INS_7PrivateEEE
libnode.so.115:_ZN2v86Object14CallAsFunctionENS_5LocalINS_7ContextEEENS1_INS_5ValueEEEiPS5_
libnode.so.115:_ZN2v86Object14DefinePropertyENS_5LocalINS_7ContextEEENS1_INS_4NameEEERNS_18PropertyDescriptorE
libnode.so.115:_ZN2v86Object14HasOwnPropertyENS_5LocalINS_7ContextEEENS1_INS_4NameEEE
libnode.so.115:_ZN2v86Object14HasOwnPropertyENS_5LocalINS_7ContextEEEj
libnode.so.115:_ZN2v86Object14PreviewEntriesEPb
libnode.so.115:_ZN2v86Object15GetIdentityHashEv
libnode.so.115:_ZN2v86Object16GetPropertyNamesENS_5LocalINS_7ContextEEE
libnode.so.115:_ZN2v86Object16GetPropertyNamesENS_5LocalINS_7ContextEEENS_17KeyCollectionModeENS_14PropertyFilterENS_11IndexFilterENS_17KeyConversionModeE
libnode.so.115:_ZN2v86Object16SetInternalFieldEiNS_5LocalINS_5ValueEEE
libnode.so.115:_ZN2v86Object17CallAsConstructorENS_5LocalINS_7ContextEEEiPNS1_INS_5ValueEEE
libnode.so.115:_ZN2v86Object17DefineOwnPropertyENS_5LocalINS_7ContextEEENS1_INS_4NameEEENS1_INS_5ValueEEENS_17PropertyAttributeE
libnode.so.115:_ZN2v86Object17SetIntegrityLevelENS_5LocalINS_7ContextEEENS_14IntegrityLevelE
libnode.so.115:_ZN2v86Object18CreateDataPropertyENS_5LocalINS_7ContextEEENS1_INS_4NameEEENS1_INS_5ValueEEE
libnode.so.115:_ZN2v86Object18CreateDataPropertyENS_5LocalINS_7ContextEEEjNS1_INS_5ValueEEE
libnode.so.115:_ZN2v86Object18GetConstructorNameEv
libnode.so.115:_ZN2v86Object18GetCreationContextEv
libnode.so.115:_ZN2v86Object19GetOwnPropertyNamesENS_5LocalINS_7ContextEEE
libnode.so.115:_ZN2v86Object19GetOwnPropertyNamesENS_5LocalINS_7ContextEEENS_14PropertyFilterENS_17KeyConversionModeE
libnode.so.115:_ZN2v86Object19ObjectProtoToStringENS_5LocalINS_7ContextEEE
libnode.so.115:_ZN2v86Object19SetAccessorPropertyENS_5LocalINS_4NameEEENS1_INS_8FunctionEEES5_NS_17PropertyAttributeENS_13AccessControlE
libnode.so.115:_ZN2v86Object19SetLazyDataPropertyENS_5LocalINS_7ContextEEENS1_INS_4NameEEEPFvS5_RKNS_20PropertyCallbackInfoINS_5ValueEEEENS1_IS7_EENS_17PropertyAttributeENS_14SideEffectTypeESF_
libnode.so.115:_ZN2v86Object20GetRealNamedPropertyENS_5LocalINS_7ContextEEENS1_INS_4NameEEE
libnode.so.115:_ZN2v86Object20HasRealNamedPropertyENS_5LocalINS_7ContextEEENS1_INS_4NameEEE
libnode.so.115:_ZN2v86Object20SlowGetInternalFieldEi
libnode.so.115:_ZN2v86Object21GetPropertyAttributesENS_5LocalINS_7ContextEEENS1_INS_5ValueEEE
libnode.so.115:_ZN2v86Object21SetNativeDataPropertyENS_5LocalINS_7ContextEEENS1_INS_4NameEEEPFvS5_RKNS_20PropertyCallbackInfoINS_5ValueEEEEPFvS5_NS1_IS7_EERKNS6_IvEEESD_NS_17PropertyAttributeENS_14SideEffectTypeESK_
libnode.so.115:_ZN2v86Object22HasRealIndexedPropertyENS_5LocalINS_7ContextEEEj
libnode.so.115:_ZN2v86Object24GetOwnPropertyDescriptorENS_5LocalINS_7ContextEEENS1_INS_4NameEEE
libnode.so.115:_ZN2v86Object25GetCreationContextCheckedEv
libnode.so.115:_ZN2v86Object27SetInternalFieldForNodeCoreEiNS_5LocalINS_13UnboundScriptEEE
libnode.so.115:_ZN2v86Object27SetInternalFieldForNodeCoreEiNS_5LocalINS_6ModuleEEE
libnode.so.115:_ZN2v86Object28FindInstanceInPrototypeChainENS_5LocalINS_16FunctionTemplateEEE
libnode.so.115:_ZN2v86Object28HasRealNamedCallbackPropertyENS_5LocalINS_7ContextEEENS1_INS_4NameEEE
libnode.so.115:_ZN2v86Object30GetRealNamedPropertyAttributesENS_5LocalINS_7ContextEEENS1_INS_4NameEEE
libnode.so.115:_ZN2v86Object32SetAlignedPointerInInternalFieldEiPv
libnode.so.115:_ZN2v86Object33SetAlignedPointerInInternalFieldsEiPiPPv
libnode.so.115:_ZN2v86Object36GetRealNamedPropertyInPrototypeChainENS_5LocalINS_7ContextEEENS1_INS_4NameEEE
libnode.so.115:_ZN2v86Object38SlowGetAlignedPointerFromInternalFieldEi
libnode.so.115:_ZN2v86Object3GetENS_5LocalINS_7ContextEEENS1_INS_5ValueEEE
libnode.so.115:_ZN2v86Object3GetENS_5LocalINS_7ContextEEEj
libnode.so.115:_ZN2v86Object3HasENS_5LocalINS_7ContextEEENS1_INS_5ValueEEE
libnode.so.115:_ZN2v86Object3HasENS_5LocalINS_7ContextEEEj
libnode.so.115:_ZN2v86Object3NewEPNS_7IsolateE
libnode.so.115:_ZN2v86Object3NewEPNS_7IsolateENS_5LocalINS_5ValueEEEPNS3_INS_4NameEEEPS5_m
libnode.so.115:_ZN2v86Object3SetENS_5LocalINS_7ContextEEENS1_INS_5ValueEEES5_
libnode.so.115:_ZN2v86Object3SetENS_5LocalINS_7ContextEEEjNS1_INS_5ValueEEE
libnode.so.115:_ZN2v86Object46GetRealNamedPropertyAttributesInPrototypeChainENS_5LocalINS_7ContextEEENS1_INS_4NameEEE
libnode.so.115:_ZN2v86Object50GetAlignedPointerFromEmbedderDataInCreationContextEi
libnode.so.115:_ZN2v86Object5CloneEv
libnode.so.115:_ZN2v86Object6DeleteENS_5LocalINS_7ContextEEENS1_INS_5ValueEEE
libnode.so.115:_ZN2v86Object6DeleteENS_5LocalINS_7ContextEEEj
libnode.so.115:_ZN2v86Object9CheckCastEPNS_5ValueE
libnode.so.115:_ZN2v86RegExp21NewWithBacktrackLimitENS_5LocalINS_7ContextEEENS1_INS_6StringEEENS0_5FlagsEj
libnode.so.115:_ZN2v86RegExp3NewENS_5LocalINS_7ContextEEENS1_INS_6StringEEENS0_5FlagsE
libnode.so.115:_ZN2v86RegExp4ExecENS_5LocalINS_7ContextEEENS1_INS_6StringEEE
libnode.so.115:_ZN2v86RegExp9CheckCastEPNS_5ValueE
libnode.so.115:_ZN2v86Script15GetResourceNameEv
libnode.so.115:_ZN2v86Script16GetUnboundScriptEv
libnode.so.115:_ZN2v86Script3RunENS_5LocalINS_7ContextEEE
libnode.so.115:_ZN2v86Script3RunENS_5LocalINS_7ContextEEENS1_INS_4DataEEE
libnode.so.115:_ZN2v86Script7CompileENS_5LocalINS_7ContextEEENS1_INS_6StringEEEPNS_12ScriptOriginE
libnode.so.115:_ZN2v86String11NewFromUtf8EPNS_7IsolateEPKcNS_13NewStringTypeEi
libnode.so.115:_ZN2v86String12MakeExternalEPNS0_22ExternalStringResourceE
libnode.so.115:_ZN2v86String12MakeExternalEPNS0_29ExternalOneByteStringResourceE
libnode.so.115:_ZN2v86String14NewFromOneByteEPNS_7IsolateEPKhNS_13NewStringTypeEi
libnode.so.115:_ZN2v86String14NewFromTwoByteEPNS_7IsolateEPKtNS_13NewStringTypeEi
libnode.so.115:_ZN2v86String18NewExternalOneByteEPNS_7IsolateEPNS0_29ExternalOneByteStringResourceE
libnode.so.115:_ZN2v86String18NewExternalTwoByteEPNS_7IsolateEPNS0_22ExternalStringResourceE
libnode.so.115:_ZN2v86String18NewFromUtf8LiteralEPNS_7IsolateEPKcNS_13NewStringTypeEi
libnode.so.115:_ZN2v86String22ExternalStringResource15UpdateDataCacheEv
libnode.so.115:_ZN2v86String29ExternalOneByteStringResource15UpdateDataCacheEv
libnode.so.115:_ZN2v86String5ValueC1EPNS_7IsolateENS_5LocalINS_5ValueEEE
libnode.so.115:_ZN2v86String5ValueC2EPNS_7IsolateENS_5LocalINS_5ValueEEE
libnode.so.115:_ZN2v86String5ValueD1Ev
libnode.so.115:_ZN2v86String5ValueD2Ev
libnode.so.115:_ZN2v86String6ConcatEPNS_7IsolateENS_5LocalIS0_EES4_
libnode.so.115:_ZN2v86String9CheckCastEPNS_4DataE
libnode.so.115:_ZN2v86String9Utf8ValueC1EPNS_7IsolateENS_5LocalINS_5ValueEEE
libnode.so.115:_ZN2v86String9Utf8ValueC2EPNS_7IsolateENS_5LocalINS_5ValueEEE
libnode.so.115:_ZN2v86String9Utf8ValueD1Ev
libnode.so.115:_ZN2v86String9Utf8ValueD2Ev
libnode.so.115:_ZN2v86Symbol10GetReplaceEPNS_7IsolateE
libnode.so.115:_ZN2v86Symbol11GetIteratorEPNS_7IsolateE
libnode.so.115:_ZN2v86Symbol14GetHasInstanceEPNS_7IsolateE
libnode.so.115:_ZN2v86Symbol14GetToPrimitiveEPNS_7IsolateE
libnode.so.115:_ZN2v86Symbol14GetToStringTagEPNS_7IsolateE
libnode.so.115:_ZN2v86Symbol14GetUnscopablesEPNS_7IsolateE
libnode.so.115:_ZN2v86Symbol16GetAsyncIteratorEPNS_7IsolateE
libnode.so.115:_ZN2v86Symbol21GetIsConcatSpreadableEPNS_7IsolateE
libnode.so.115:_ZN2v86Symbol3ForEPNS_7IsolateENS_5LocalINS_6StringEEE
libnode.so.115:_ZN2v86Symbol3NewEPNS_7IsolateENS_5LocalINS_6StringEEE
libnode.so.115:_ZN2v86Symbol6ForApiEPNS_7IsolateENS_5LocalINS_6StringEEE
libnode.so.115:_ZN2v86Symbol8GetMatchEPNS_7IsolateE
libnode.so.115:_ZN2v86Symbol8GetSplitEPNS_7IsolateE
libnode.so.115:_ZN2v86Symbol9CheckCastEPNS_4DataE
libnode.so.115:_ZN2v86Symbol9GetSearchEPNS_7IsolateE
libnode.so.115:_ZN2v86Uint329CheckCastEPNS_4DataE
libnode.so.115:_ZN2v86bigint10RightShiftENS0_8RWDigitsENS0_6DigitsEi
libnode.so.115:_ZN2v86bigint10RightShiftENS0_8RWDigitsENS0_6DigitsEmRKNS0_15RightShiftStateE
libnode.so.115:_ZN2v86bigint11AsUintN_NegENS0_8RWDigitsENS0_6DigitsEi
libnode.so.115:_ZN2v86bigint11AsUintN_PosENS0_8RWDigitsENS0_6DigitsEi
libnode.so.115:_ZN2v86bigint11SubtractOneENS0_8RWDigitsENS0_6DigitsE
libnode.so.115:_ZN2v86bigint13ProcessorImpl10FromStringENS0_8RWDigitsEPNS0_21FromStringAccumulatorE
libnode.so.115:_ZN2v86bigint13ProcessorImpl11MultiplyFFTENS0_8RWDigitsENS0_6DigitsES3_
libnode.so.115:_ZN2v86bigint13ProcessorImpl12DivideSingleENS0_8RWDigitsEPmNS0_6DigitsEm
libnode.so.115:_ZN2v86bigint13ProcessorImpl12InvertNewtonENS0_8RWDigitsENS0_6DigitsES2_
libnode.so.115:_ZN2v86bigint13ProcessorImpl12ToStringImplEPcPiNS0_6DigitsEibb
libnode.so.115:_ZN2v86bigint13ProcessorImpl13DivideBarrettENS0_8RWDigitsES2_NS0_6DigitsES3_
libnode.so.115:_ZN2v86bigint13ProcessorImpl13DivideBarrettENS0_8RWDigitsES2_NS0_6DigitsES3_S3_S2_
libnode.so.115:_ZN2v86bigint13ProcessorImpl13KaratsubaMainENS0_8RWDigitsENS0_6DigitsES3_S2_i
libnode.so.115:_ZN2v86bigint13ProcessorImpl14InvertBasecaseENS0_8RWDigitsENS0_6DigitsES2_
libnode.so.115:_ZN2v86bigint13ProcessorImpl14KaratsubaChunkENS0_8RWDigitsENS0_6DigitsES3_S2_
libnode.so.115:_ZN2v86bigint13ProcessorImpl14KaratsubaStartENS0_8RWDigitsENS0_6DigitsES3_S2_i
libnode.so.115:_ZN2v86bigint13ProcessorImpl14MultiplySingleENS0_8RWDigitsENS0_6DigitsEm
libnode.so.115:_ZN2v86bigint13ProcessorImpl15FromStringLargeENS0_8RWDigitsEPNS0_21FromStringAccumulatorE
libnode.so.115:_ZN2v86bigint13ProcessorImpl16DivideSchoolbookENS0_8RWDigitsES2_NS0_6DigitsES3_
libnode.so.115:_ZN2v86bigint13ProcessorImpl16MultiplyToomCookENS0_8RWDigitsENS0_6DigitsES3_
libnode.so.115:_ZN2v86bigint13ProcessorImpl17FromStringClassicENS0_8RWDigitsEPNS0_21FromStringAccumulatorE
libnode.so.115:_ZN2v86bigint13ProcessorImpl17MultiplyKaratsubaENS0_8RWDigitsENS0_6DigitsES3_
libnode.so.115:_ZN2v86bigint13ProcessorImpl18MultiplySchoolbookENS0_8RWDigitsENS0_6DigitsES3_
libnode.so.115:_ZN2v86bigint13ProcessorImpl20get_and_clear_statusEv
libnode.so.115:_ZN2v86bigint13ProcessorImpl21DivideBurnikelZieglerENS0_8RWDigitsES2_NS0_6DigitsES3_
libnode.so.115:_ZN2v86bigint13ProcessorImpl24FromStringBasePowerOfTwoENS0_8RWDigitsEPNS0_21FromStringAccumulatorE
libnode.so.115:_ZN2v86bigint13ProcessorImpl6DivideENS0_8RWDigitsENS0_6DigitsES3_
libnode.so.115:_ZN2v86bigint13ProcessorImpl6InvertENS0_8RWDigitsENS0_6DigitsES2_
libnode.so.115:_ZN2v86bigint13ProcessorImpl6ModuloENS0_8RWDigitsENS0_6DigitsES3_
libnode.so.115:_ZN2v86bigint13ProcessorImpl8MultiplyENS0_8RWDigitsENS0_6DigitsES3_
libnode.so.115:_ZN2v86bigint13ProcessorImpl8ToStringEPcPiNS0_6DigitsEib
libnode.so.115:_ZN2v86bigint13ProcessorImpl9Toom3MainENS0_8RWDigitsENS0_6DigitsES3_
libnode.so.115:_ZN2v86bigint13ProcessorImplC1EPNS0_8PlatformE
libnode.so.115:_ZN2v86bigint13ProcessorImplC2EPNS0_8PlatformE
libnode.so.115:_ZN2v86bigint13ProcessorImplD1Ev
libnode.so.115:_ZN2v86bigint13ProcessorImplD2Ev
libnode.so.115:_ZN2v86bigint14SubtractSignedENS0_8RWDigitsENS0_6DigitsEbS2_b
libnode.so.115:_ZN2v86bigint16BitwiseOr_NegNegENS0_8RWDigitsENS0_6DigitsES2_
libnode.so.115:_ZN2v86bigint16BitwiseOr_PosNegENS0_8RWDigitsENS0_6DigitsES2_
libnode.so.115:_ZN2v86bigint16BitwiseOr_PosPosENS0_8RWDigitsENS0_6DigitsES2_
libnode.so.115:_ZN2v86bigint17AddAndReturnCarryENS0_8RWDigitsENS0_6DigitsES2_
libnode.so.115:_ZN2v86bigint17BitwiseAnd_NegNegENS0_8RWDigitsENS0_6DigitsES2_
libnode.so.115:_ZN2v86bigint17BitwiseAnd_PosNegENS0_8RWDigitsENS0_6DigitsES2_
libnode.so.115:_ZN2v86bigint17BitwiseAnd_PosPosENS0_8RWDigitsENS0_6DigitsES2_
libnode.so.115:_ZN2v86bigint17BitwiseXor_NegNegENS0_8RWDigitsENS0_6DigitsES2_
libnode.so.115:_ZN2v86bigint17BitwiseXor_PosNegENS0_8RWDigitsENS0_6DigitsES2_
libnode.so.115:_ZN2v86bigint17BitwiseXor_PosPosENS0_8RWDigitsENS0_6DigitsES2_
libnode.so.115:_ZN2v86bigint18AsIntNResultLengthENS0_6DigitsEbi
libnode.so.115:_ZN2v86bigint18ProductGreaterThanEmmmm
libnode.so.115:_ZN2v86bigint18SubAndReturnBorrowENS0_8RWDigitsENS0_6DigitsE
libnode.so.115:_ZN2v86bigint20AddAndReturnOverflowENS0_8RWDigitsENS0_6DigitsE
libnode.so.115:_ZN2v86bigint20ToStringResultLengthENS0_6DigitsEib
libnode.so.115:_ZN2v86bigint23RightShift_ResultLengthENS0_6DigitsEbmPNS0_15RightShiftStateE
libnode.so.115:_ZN2v86bigint23SubtractAndReturnBorrowENS0_8RWDigitsENS0_6DigitsES2_
libnode.so.115:_ZN2v86bigint24AsUintN_Pos_ResultLengthENS0_6DigitsEi
libnode.so.115:_ZN2v86bigint3AddENS0_8RWDigitsENS0_6DigitsES2_
libnode.so.115:_ZN2v86bigint6AddOneENS0_8RWDigitsENS0_6DigitsE
libnode.so.115:_ZN2v86bigint6AsIntNENS0_8RWDigitsENS0_6DigitsEbi
libnode.so.115:_ZN2v86bigint8SubtractENS0_8RWDigitsENS0_6DigitsES2_
libnode.so.115:_ZN2v86bigint9AddSignedENS0_8RWDigitsENS0_6DigitsEbS2_b
libnode.so.115:_ZN2v86bigint9LeftShiftENS0_8RWDigitsENS0_6DigitsEi
libnode.so.115:_ZN2v86bigint9LeftShiftENS0_8RWDigitsENS0_6DigitsEm
libnode.so.115:_ZN2v86bigint9Processor10FromStringENS0_8RWDigitsEPNS0_21FromStringAccumulatorE
libnode.so.115:_ZN2v86bigint9Processor3NewEPNS0_8PlatformE
libnode.so.115:_ZN2v86bigint9Processor6DivideENS0_8RWDigitsENS0_6DigitsES3_
libnode.so.115:_ZN2v86bigint9Processor6ModuloENS0_8RWDigitsENS0_6DigitsES3_
libnode.so.115:_ZN2v86bigint9Processor7DestroyEv
libnode.so.115:_ZN2v86bigint9Processor8MultiplyENS0_8RWDigitsENS0_6DigitsES3_
libnode.so.115:_ZN2v86bigint9Processor8ToStringEPcPiNS0_6DigitsEib
libnode.so.115:_ZN2v87Boolean9CheckCastEPNS_4DataE
libnode.so.115:_ZN2v87Context10DeepFreezeEPNS0_18DeepFreezeDelegateE
libnode.so.115:_ZN2v87Context10GetIsolateEv
libnode.so.115:_ZN2v87Context12DetachGlobalEv
libnode.so.115:_ZN2v87Context12FromSnapshotEPNS_7IsolateEmNS_33DeserializeInternalFieldsCallbackEPNS_22ExtensionConfigurationENS_10MaybeLocalINS_5ValueEEEPNS_14MicrotaskQueueE
libnode.so.115:_ZN2v87Context15SetEmbedderDataEiNS_5LocalINS_5ValueEEE
libnode.so.115:_ZN2v87Context15SetPromiseHooksENS_5LocalINS_8FunctionEEES3_S3_S3_
libnode.so.115:_ZN2v87Context16GetSecurityTokenEv
libnode.so.115:_ZN2v87Context16NewRemoteContextEPNS_7IsolateENS_5LocalINS_14ObjectTemplateEEENS_10MaybeLocalINS_5ValueEEE
libnode.so.115:_ZN2v87Context16SetSecurityTokenENS_5LocalINS_5ValueEEE
libnode.so.115:_ZN2v87Context17GetMicrotaskQueueEv
libnode.so.115:_ZN2v87Context17SetMicrotaskQueueEPNS_14MicrotaskQueueE
libnode.so.115:_ZN2v87Context19SlowGetEmbedderDataEi
libnode.so.115:_ZN2v87Context20BackupIncumbentScopeC1ENS_5LocalIS0_EE
libnode.so.115:_ZN2v87Context20BackupIncumbentScopeC2ENS_5LocalIS0_EE
libnode.so.115:_ZN2v87Context20BackupIncumbentScopeD1Ev
libnode.so.115:_ZN2v87Context20BackupIncumbentScopeD2Ev
libnode.so.115:_ZN2v87Context22GetExtrasBindingObjectEv
libnode.so.115:_ZN2v87Context23GetDataFromSnapshotOnceEm
libnode.so.115:_ZN2v87Context23SetAbortScriptExecutionEPFvPNS_7IsolateENS_5LocalIS0_EEE
libnode.so.115:_ZN2v87Context23UseDefaultSecurityTokenEv
libnode.so.115:_ZN2v87Context24HasTemplateLiteralObjectENS_5LocalINS_5ValueEEE
libnode.so.115:_ZN2v87Context29GetNumberOfEmbedderDataFieldsEv
libnode.so.115:_ZN2v87Context30AllowCodeGenerationFromStringsEb
libnode.so.115:_ZN2v87Context31SetAlignedPointerInEmbedderDataEiPv
libnode.so.115:_ZN2v87Context36SetContinuationPreservedEmbedderDataENS_5LocalINS_5ValueEEE
libnode.so.115:_ZN2v87Context36SetErrorMessageForWasmCodeGenerationENS_5LocalINS_6StringEEE
libnode.so.115:_ZN2v87Context37SlowGetAlignedPointerFromEmbedderDataEi
libnode.so.115:_ZN2v87Context3NewEPNS_7IsolateEPNS_22ExtensionConfigurationENS_10MaybeLocalINS_14ObjectTemplateEEENS5_INS_5ValueEEENS_33DeserializeInternalFieldsCallbackEPNS_14MicrotaskQueueE
libnode.so.115:_ZN2v87Context43SetErrorMessageForCodeGenerationFromStringsENS_5LocalINS_6StringEEE
libnode.so.115:_ZN2v87Context4ExitEv
libnode.so.115:_ZN2v87Context5EnterEv
libnode.so.115:_ZN2v87Context6GlobalEv
libnode.so.115:_ZN2v87Context9CheckCastEPNS_4DataE
libnode.so.115:_ZN2v87CppHeap13GetHeapHandleEv
libnode.so.115:_ZN2v87CppHeap17CollectStatisticsEN5cppgc14HeapStatistics11DetailLevelE
libnode.so.115:_ZN2v87CppHeap19GetAllocationHandleEv
libnode.so.115:_ZN2v87CppHeap24CollectGarbageForTestingEN5cppgc18EmbedderStackStateE
libnode.so.115:_ZN2v87CppHeap36CollectCustomSpaceStatisticsAtLastGCESt6vectorIN5cppgc16CustomSpaceIndexESaIS3_EESt10unique_ptrINS_29CustomSpaceStatisticsReceiverESt14default_deleteIS7_EE
libnode.so.115:_ZN2v87CppHeap41CollectGarbageInYoungGenerationForTestingEN5cppgc18EmbedderStackStateE
libnode.so.115:_ZN2v87CppHeap42EnableDetachedGarbageCollectionsForTestingEv
libnode.so.115:_ZN2v87CppHeap6CreateEPNS_8PlatformERKNS_19CppHeapCreateParamsE
libnode.so.115:_ZN2v87CppHeap9TerminateEv
libnode.so.115:_ZN2v87Integer15NewFromUnsignedEPNS_7IsolateEj
libnode.so.115:_ZN2v87Integer3NewEPNS_7IsolateEi
libnode.so.115:_ZN2v87Integer9CheckCastEPNS_4DataE
libnode.so.115:_ZN2v87Isolate10GetCurrentEv
libnode.so.115:_ZN2v87Isolate10InitializeEPS0_RKNS0_12CreateParamsE
libnode.so.115:_ZN2v87Isolate10ThrowErrorENS_5LocalINS_6StringEEE
libnode.so.115:_ZN2v87Isolate11SetRAILModeENS_8RAILModeE
libnode.so.115:_ZN2v87Isolate12CreateParamsC1Ev
libnode.so.115:_ZN2v87Isolate12CreateParamsC2Ev
libnode.so.115:_ZN2v87Isolate12CreateParamsD1Ev
libnode.so.115:_ZN2v87Isolate12CreateParamsD2Ev
libnode.so.115:_ZN2v87Isolate12GetCodeRangeEPPvPm
libnode.so.115:_ZN2v87Isolate13AttachCppHeapEPNS_7CppHeapE
libnode.so.115:_ZN2v87Isolate13CopyCodePagesEmPNS_11MemoryRangeE
libnode.so.115:_ZN2v87Isolate13DetachCppHeapEv
libnode.so.115:_ZN2v87Isolate13MeasureMemoryESt10unique_ptrINS_21MeasureMemoryDelegateESt14default_deleteIS2_EENS_22MeasureMemoryExecutionE
libnode.so.115:_ZN2v87Isolate13SetStackLimitEm
libnode.so.115:_ZN2v87Isolate13TryGetCurrentEv
libnode.so.115:_ZN2v87Isolate14GetStackSampleERKNS_13RegisterStateEPPvmPNS_10SampleInfoE
libnode.so.115:_ZN2v87Isolate14SetEventLoggerEPFvPKciE
libnode.so.115:_ZN2v87Isolate14SetPromiseHookEPFvNS_15PromiseHookTypeENS_5LocalINS_7PromiseEEENS2_INS_5ValueEEEE
libnode.so.115:_ZN2v87Isolate14ThrowExceptionENS_5LocalINS_5ValueEEE
libnode.so.115:_ZN2v87Isolate15GetHeapProfilerEv
libnode.so.115:_ZN2v87Isolate15GetJSEntryStubsEv
libnode.so.115:_ZN2v87Isolate16ClearKeptObjectsEv
libnode.so.115:_ZN2v87Isolate16EnqueueMicrotaskENS_5LocalINS_8FunctionEEE
libnode.so.115:_ZN2v87Isolate16EnqueueMicrotaskEPFvPvES1_
libnode.so.115:_ZN2v87Isolate16RequestInterruptEPFvPS0_PvES2_
libnode.so.115:_ZN2v87Isolate17DumpAndResetStatsEv
libnode.so.115:_ZN2v87Isolate17GetCurrentContextEv
libnode.so.115:_ZN2v87Isolate17GetHeapStatisticsEPNS_14HeapStatisticsE
libnode.so.115:_ZN2v87Isolate18AddMessageListenerEPFvNS_5LocalINS_7MessageEEENS1_INS_5ValueEEEES5_
libnode.so.115:_ZN2v87Isolate18NumberOfHeapSpacesEv
libnode.so.115:_ZN2v87Isolate18SetCounterFunctionEPFPiPKcE
libnode.so.115:_ZN2v87Isolate18SetMetricsRecorderERKSt10shared_ptrINS_7metrics8RecorderEE
libnode.so.115:_ZN2v87Isolate18SetOOMErrorHandlerEPFvPKcRKNS_10OOMDetailsEE
libnode.so.115:_ZN2v87Isolate18TerminateExecutionEv
libnode.so.115:_ZN2v87Isolate19GetIncumbentContextEv
libnode.so.115:_ZN2v87Isolate19SetAllowAtomicsWaitEb
libnode.so.115:_ZN2v87Isolate19SetMicrotasksPolicyENS_16MicrotasksPolicyE
libnode.so.115:_ZN2v87Isolate19UpdateLoadStartTimeEv
libnode.so.115:_ZN2v87Isolate20GetEmbeddedCodeRangeEPPKvPm
libnode.so.115:_ZN2v87Isolate20SetFatalErrorHandlerEPFvPKcS2_E
libnode.so.115:_ZN2v87Isolate21AddGCEpilogueCallbackEPFvPS0_NS_6GCTypeENS_15GCCallbackFlagsEES2_
libnode.so.115:_ZN2v87Isolate21AddGCEpilogueCallbackEPFvPS0_NS_6GCTypeENS_15GCCallbackFlagsEPvES4_S2_
libnode.so.115:_ZN2v87Isolate21AddGCPrologueCallbackEPFvPS0_NS_6GCTypeENS_15GCCallbackFlagsEES2_
libnode.so.115:_ZN2v87Isolate21AddGCPrologueCallbackEPFvPS0_NS_6GCTypeENS_15GCCallbackFlagsEPvES4_S2_
libnode.so.115:_ZN2v87Isolate21AtomicsWaitWakeHandle4WakeEv
libnode.so.115:_ZN2v87Isolate21ClearCachesForTestingEv
libnode.so.115:_ZN2v87Isolate21LowMemoryNotificationEv
libnode.so.115:_ZN2v87Isolate21SetUseCounterCallbackEPFvPS0_NS0_17UseCounterFeatureEE
libnode.so.115:_ZN2v87Isolate21SetWasmModuleCallbackEPFbRKNS_20FunctionCallbackInfoINS_5ValueEEEE
libnode.so.115:_ZN2v87Isolate22GetHeapSpaceStatisticsEPNS_19HeapSpaceStatisticsEm
libnode.so.115:_ZN2v87Isolate22IsExecutionTerminatingEv
libnode.so.115:_ZN2v87Isolate22RemoveMessageListenersEPFvNS_5LocalINS_7MessageEEENS1_INS_5ValueEEEE
libnode.so.115:_ZN2v87Isolate22SetAddCrashKeyCallbackEPFvNS_10CrashKeyIdERKNSt7__cxx1112basic_stringIcSt11char_traitsIcESaIcEEEE
libnode.so.115:_ZN2v87Isolate22SetAtomicsWaitCallbackEPFvNS0_16AtomicsWaitEventENS_5LocalINS_17SharedArrayBufferEEEmldPNS0_21AtomicsWaitWakeHandleEPvES7_
libnode.so.115:_ZN2v87Isolate22SetJitCodeEventHandlerENS_19JitCodeEventOptionsEPFvPKNS_12JitCodeEventEE
libnode.so.115:_ZN2v87Isolate22VisitExternalResourcesEPNS_23ExternalResourceVisitorE
libnode.so.115:_ZN2v87Isolate23EnableMemorySavingsModeEv
libnode.so.115:_ZN2v87Isolate23GetArrayBufferAllocatorEv
libnode.so.115:_ZN2v87Isolate23GetDataFromSnapshotOnceEm
libnode.so.115:_ZN2v87Isolate23SafeForTerminationScopeC1EPS0_
libnode.so.115:_ZN2v87Isolate23SafeForTerminationScopeC2EPS0_
libnode.so.115:_ZN2v87Isolate23SafeForTerminationScopeD1Ev
libnode.so.115:_ZN2v87Isolate23SafeForTerminationScopeD2Ev
libnode.so.115:_ZN2v87Isolate23SetEmbedderRootsHandlerEPNS_20EmbedderRootsHandlerE
libnode.so.115:_ZN2v87Isolate23SetWasmInstanceCallbackEPFbRKNS_20FunctionCallbackInfoINS_5ValueEEEE
libnode.so.115:_ZN2v87Isolate24AddCallCompletedCallbackEPFvPS0_E
libnode.so.115:_ZN2v87Isolate24AddNearHeapLimitCallbackEPFmPvmmES1_
libnode.so.115:_ZN2v87Isolate24CancelTerminateExecutionEv
libnode.so.115:_ZN2v87Isolate24DisableMemorySavingsModeEv
libnode.so.115:_ZN2v87Isolate24IdleNotificationDeadlineEd
libnode.so.115:_ZN2v87Isolate24RemoveGCEpilogueCallbackEPFvPS0_NS_6GCTypeENS_15GCCallbackFlagsEE
libnode.so.115:_ZN2v87Isolate24RemoveGCEpilogueCallbackEPFvPS0_NS_6GCTypeENS_15GCCallbackFlagsEPvES4_
libnode.so.115:_ZN2v87Isolate24RemoveGCPrologueCallbackEPFvPS0_NS_6GCTypeENS_15GCCallbackFlagsEE
libnode.so.115:_ZN2v87Isolate24RemoveGCPrologueCallbackEPFvPS0_NS_6GCTypeENS_15GCCallbackFlagsEPvES4_
libnode.so.115:_ZN2v87Isolate24RestoreOriginalHeapLimitEv
libnode.so.115:_ZN2v87Isolate24SetPromiseRejectCallbackEPFvNS_20PromiseRejectMessageEE
libnode.so.115:_ZN2v87Isolate24SetWasmGCEnabledCallbackEPFbNS_5LocalINS_7ContextEEEE
libnode.so.115:_ZN2v87Isolate24SetWasmStreamingCallbackEPFvRKNS_20FunctionCallbackInfoINS_5ValueEEEE
libnode.so.115:_ZN2v87Isolate25HasPendingBackgroundTasksEv
libnode.so.115:_ZN2v87Isolate26InstallConditionalFeaturesENS_5LocalINS_7ContextEEE
libnode.so.115:_ZN2v87Isolate26MemoryPressureNotificationENS_19MemoryPressureLevelE
libnode.so.115:_ZN2v87Isolate26PerformMicrotaskCheckpointEv
libnode.so.115:_ZN2v87Isolate26SetCreateHistogramFunctionEPFPvPKciimE
libnode.so.115:_ZN2v87Isolate26SetWasmSimdEnabledCallbackEPFbNS_5LocalINS_7ContextEEEE
libnode.so.115:_ZN2v87Isolate27ContextDisposedNotificationEb
libnode.so.115:_ZN2v87Isolate27RemoveCallCompletedCallbackEPFvPS0_E
libnode.so.115:_ZN2v87Isolate27RemoveNearHeapLimitCallbackEPFmPvmmEm
libnode.so.115:_ZN2v87Isolate28AddBeforeCallEnteredCallbackEPFvPS0_E
libnode.so.115:_ZN2v87Isolate28GetEnteredOrMicrotaskContextEv
libnode.so.115:_ZN2v87Isolate28SetPrepareStackTraceCallbackEPFNS_10MaybeLocalINS_5ValueEEENS_5LocalINS_7ContextEEENS4_IS2_EENS4_INS_5ArrayEEEE
libnode.so.115:_ZN2v87Isolate28SetWasmLoadSourceMapCallbackEPFNS_5LocalINS_6StringEEEPS0_PKcE
libnode.so.115:_ZN2v87Isolate29AllowJavascriptExecutionScopeC1EPS0_
libnode.so.115:_ZN2v87Isolate29AllowJavascriptExecutionScopeC2EPS0_
libnode.so.115:_ZN2v87Isolate29AllowJavascriptExecutionScopeD1Ev
libnode.so.115:_ZN2v87Isolate29AllowJavascriptExecutionScopeD2Ev
libnode.so.115:_ZN2v87Isolate29DiscardThreadSpecificMetadataEv
libnode.so.115:_ZN2v87Isolate29IncreaseHeapLimitForDebuggingEv
libnode.so.115:_ZN2v87Isolate29SetAddHistogramSampleFunctionEPFvPviE
libnode.so.115:_ZN2v87Isolate30AddMicrotasksCompletedCallbackEPFvPS0_PvES2_
libnode.so.115:_ZN2v87Isolate30NumberOfTrackedHeapObjectTypesEv
libnode.so.115:_ZN2v87Isolate31GetHeapObjectStatisticsAtLastGCEPNS_20HeapObjectStatisticsEm
libnode.so.115:_ZN2v87Isolate31IsolateInBackgroundNotificationEv
libnode.so.115:_ZN2v87Isolate31IsolateInForegroundNotificationEv
libnode.so.115:_ZN2v87Isolate31RemoveBeforeCallEnteredCallbackEPFvPS0_E
libnode.so.115:_ZN2v87Isolate31SuppressMicrotaskExecutionScopeC1EPS0_PNS_14MicrotaskQueueE
libnode.so.115:_ZN2v87Isolate31SuppressMicrotaskExecutionScopeC2EPS0_PNS_14MicrotaskQueueE
libnode.so.115:_ZN2v87Isolate31SuppressMicrotaskExecutionScopeD1Ev
libnode.so.115:_ZN2v87Isolate31SuppressMicrotaskExecutionScopeD2Ev
libnode.so.115:_ZN2v87Isolate32AddMessageListenerWithErrorLevelEPFvNS_5LocalINS_7MessageEEENS1_INS_5ValueEEEEiS5_
libnode.so.115:_ZN2v87Isolate32DisallowJavascriptExecutionScopeC1EPS0_NS1_9OnFailureE
libnode.so.115:_ZN2v87Isolate32DisallowJavascriptExecutionScopeC2EPS0_NS1_9OnFailureE
libnode.so.115:_ZN2v87Isolate32DisallowJavascriptExecutionScopeD1Ev
libnode.so.115:_ZN2v87Isolate32DisallowJavascriptExecutionScopeD2Ev
libnode.so.115:_ZN2v87Isolate32GetHeapCodeAndMetadataStatisticsEPNS_18HeapCodeStatisticsE
libnode.so.115:_ZN2v87Isolate32IsHeapLimitIncreasedForDebuggingEv
libnode.so.115:_ZN2v87Isolate32SetWasmExceptionsEnabledCallbackEPFbNS_5LocalINS_7ContextEEEE
libnode.so.115:_ZN2v87Isolate33RemoveMicrotasksCompletedCallbackEPFvPS0_PvES2_
libnode.so.115:_ZN2v87Isolate34RequestGarbageCollectionForTestingENS0_21GarbageCollectionTypeE
libnode.so.115:_ZN2v87Isolate34RequestGarbageCollectionForTestingENS0_21GarbageCollectionTypeEN5cppgc18EmbedderStackStateE
libnode.so.115:_ZN2v87Isolate34SetAllowWasmCodeGenerationCallbackEPFbNS_5LocalINS_7ContextEEENS1_INS_6StringEEEE
libnode.so.115:_ZN2v87Isolate34SetWasmAsyncResolvePromiseCallbackEPFvPS0_NS_5LocalINS_7ContextEEENS2_INS_7Promise8ResolverEEENS2_INS_5ValueEEENS_16WasmAsyncSuccessEE
libnode.so.115:_ZN2v87Isolate35SetAbortOnUncaughtExceptionCallbackEPFbPS0_E
libnode.so.115:_ZN2v87Isolate36AutomaticallyRestoreInitialHeapLimitEd
libnode.so.115:_ZN2v87Isolate36ReportExternalAllocationLimitReachedEv
libnode.so.115:_ZN2v87Isolate36SetFailedAccessCheckCallbackFunctionEPFvNS_5LocalINS_6ObjectEEENS_10AccessTypeENS1_INS_5ValueEEEE
libnode.so.115:_ZN2v87Isolate37AdjustAmountOfExternalAllocatedMemoryEl
libnode.so.115:_ZN2v87Isolate37LocaleConfigurationChangeNotificationEv
libnode.so.115:_ZN2v87Isolate38SetHostImportModuleDynamicallyCallbackEPFNS_10MaybeLocalINS_7PromiseEEENS_5LocalINS_7ContextEEENS4_INS_4DataEEENS4_INS_5ValueEEENS4_INS_6StringEEENS4_INS_10FixedArrayEEEE
libnode.so.115:_ZN2v87Isolate39DateTimeConfigurationChangeNotificationENS0_17TimeZoneDetectionE
libnode.so.115:_ZN2v87Isolate39SetHostCreateShadowRealmContextCallbackEPFNS_10MaybeLocalINS_7ContextEEENS_5LocalIS2_EEE
libnode.so.115:_ZN2v87Isolate3NewERKNS0_12CreateParamsE
libnode.so.115:_ZN2v87Isolate41SetCaptureStackTraceForUncaughtExceptionsEbiNS_10StackTrace17StackTraceOptionsE
libnode.so.115:_ZN2v87Isolate41SetHostInitializeImportMetaObjectCallbackEPFvNS_5LocalINS_7ContextEEENS1_INS_6ModuleEEENS1_INS_6ObjectEEEE
libnode.so.115:_ZN2v87Isolate42SetModifyCodeGenerationFromStringsCallbackEPFNS_37ModifyCodeGenerationFromStringsResultENS_5LocalINS_7ContextEEENS2_INS_5ValueEEEbE
libnode.so.115:_ZN2v87Isolate46SetGetExternallyAllocatedMemoryInBytesCallbackEPFmvE
libnode.so.115:_ZN2v87Isolate46SetSharedArrayBufferConstructorEnabledCallbackEPFbNS_5LocalINS_7ContextEEEE
libnode.so.115:_ZN2v87Isolate4ExitEv
libnode.so.115:_ZN2v87Isolate5EnterEv
libnode.so.115:_ZN2v87Isolate6IsDeadEv
libnode.so.115:_ZN2v87Isolate7DisposeEv
libnode.so.115:_ZN2v87Isolate7IsInUseEv
libnode.so.115:_ZN2v87Isolate7SetIdleEb
libnode.so.115:_ZN2v87Isolate8AllocateEv
libnode.so.115:_ZN2v87Isolate9InContextEv
libnode.so.115:_ZN2v87Message22PrintCurrentStackTraceEPNS_7IsolateERSo
libnode.so.115:_ZN2v87Private3NewEPNS_7IsolateENS_5LocalINS_6StringEEE
libnode.so.115:_ZN2v87Private6ForApiEPNS_7IsolateENS_5LocalINS_6StringEEE
libnode.so.115:_ZN2v87Private9CheckCastEPNS_4DataE
libnode.so.115:_ZN2v87Promise12MarkAsSilentEv
libnode.so.115:_ZN2v87Promise13MarkAsHandledEv
libnode.so.115:_ZN2v87Promise4ThenENS_5LocalINS_7ContextEEENS1_INS_8FunctionEEE
libnode.so.115:_ZN2v87Promise4ThenENS_5LocalINS_7ContextEEENS1_INS_8FunctionEEES5_
libnode.so.115:_ZN2v87Promise5CatchENS_5LocalINS_7ContextEEENS1_INS_8FunctionEEE
libnode.so.115:_ZN2v87Promise5StateEv
libnode.so.115:_ZN2v87Promise6ResultEv
libnode.so.115:_ZN2v87Promise8Resolver10GetPromiseEv
libnode.so.115:_ZN2v87Promise8Resolver3NewENS_5LocalINS_7ContextEEE
libnode.so.115:_ZN2v87Promise8Resolver6RejectENS_5LocalINS_7ContextEEENS2_INS_5ValueEEE
libnode.so.115:_ZN2v87Promise8Resolver7ResolveENS_5LocalINS_7ContextEEENS2_INS_5ValueEEE
libnode.so.115:_ZN2v87Promise8Resolver9CheckCastEPNS_5ValueE
libnode.so.115:_ZN2v87Promise9CheckCastEPNS_5ValueE
libnode.so.115:_ZN2v87metrics13LongTaskStats3GetEPNS_7IsolateE
libnode.so.115:_ZN2v87metrics8Recorder10GetContextEPNS_7IsolateENS1_9ContextIdE
libnode.so.115:_ZN2v87metrics8Recorder12GetContextIdENS_5LocalINS_7ContextEEE
libnode.so.115:_ZN2v87sampler11AtomicGuardC1EPSt6atomicIbEb
libnode.so.115:_ZN2v87sampler11AtomicGuardC2EPSt6atomicIbEb
libnode.so.115:_ZN2v87sampler11AtomicGuardD1Ev
libnode.so.115:_ZN2v87sampler11AtomicGuardD2Ev
libnode.so.115:_ZN2v87sampler13SignalHandler13client_count_E
libnode.so.115:_ZN2v87sampler13SignalHandler17FillRegisterStateEPvPNS_13RegisterStateE
libnode.so.115:_ZN2v87sampler13SignalHandler19old_signal_handler_E
libnode.so.115:_ZN2v87sampler13SignalHandler20HandleProfilerSignalEiP9siginfo_tPv
libnode.so.115:_ZN2v87sampler13SignalHandler25signal_handler_installed_E
libnode.so.115:_ZN2v87sampler13SignalHandler6mutex_E
libnode.so.115:_ZN2v87sampler14SamplerManager10AddSamplerEPNS0_7SamplerE
libnode.so.115:_ZN2v87sampler14SamplerManager13RemoveSamplerEPNS0_7SamplerE
libnode.so.115:_ZN2v87sampler14SamplerManager8DoSampleERKNS_13RegisterStateE
libnode.so.115:_ZN2v87sampler14SamplerManager8instanceEv
libnode.so.115:_ZN2v87sampler7Sampler4StopEv
libnode.so.115:_ZN2v87sampler7Sampler5StartEv
libnode.so.115:_ZN2v87sampler7Sampler8DoSampleEv
libnode.so.115:_ZN2v87sampler7SamplerC2EPNS_7IsolateE
libnode.so.115:_ZN2v87sampler7SamplerD0Ev
libnode.so.115:_ZN2v87sampler7SamplerD1Ev
libnode.so.115:_ZN2v87sampler7SamplerD2Ev
libnode.so.115:_ZN2v87tracing11TracedValue10BeginArrayEPKc
libnode.so.115:_ZN2v87tracing11TracedValue10BeginArrayEv
libnode.so.115:_ZN2v87tracing11TracedValue10SetBooleanEPKcb
libnode.so.115:_ZN2v87tracing11TracedValue10SetIntegerEPKci
libnode.so.115:_ZN2v87tracing11TracedValue10WriteCommaEv
libnode.so.115:_ZN2v87tracing11TracedValue12AppendDoubleEd
libnode.so.115:_ZN2v87tracing11TracedValue12AppendStringEPKc
libnode.so.115:_ZN2v87tracing11TracedValue13AppendBooleanEb
libnode.so.115:_ZN2v87tracing11TracedValue13AppendIntegerEi
libnode.so.115:_ZN2v87tracing11TracedValue13EndDictionaryEv
libnode.so.115:_ZN2v87tracing11TracedValue15BeginDictionaryEPKc
libnode.so.115:_ZN2v87tracing11TracedValue15BeginDictionaryEv
libnode.so.115:_ZN2v87tracing11TracedValue6CreateEv
libnode.so.115:_ZN2v87tracing11TracedValue8EndArrayEv
libnode.so.115:_ZN2v87tracing11TracedValue8SetValueEPKcPS1_
libnode.so.115:_ZN2v87tracing11TracedValue9SetDoubleEPKcd
libnode.so.115:_ZN2v87tracing11TracedValue9SetStringEPKcS3_
libnode.so.115:_ZN2v87tracing11TracedValue9WriteNameEPKc
libnode.so.115:_ZN2v87tracing11TracedValueC1Ev
libnode.so.115:_ZN2v87tracing11TracedValueC2Ev
libnode.so.115:_ZN2v87tracing11TracedValueD0Ev
libnode.so.115:_ZN2v87tracing11TracedValueD1Ev
libnode.so.115:_ZN2v87tracing11TracedValueD2Ev
libnode.so.115:_ZN2v87tracing23TracingCategoryObserver14OnTraceEnabledEv
libnode.so.115:_ZN2v87tracing23TracingCategoryObserver15OnTraceDisabledEv
libnode.so.115:_ZN2v87tracing23TracingCategoryObserver5SetUpEv
libnode.so.115:_ZN2v87tracing23TracingCategoryObserver8TearDownEv
libnode.so.115:_ZN2v87tracing23TracingCategoryObserver9instance_E
libnode.so.115:_ZN2v88DataView3NewENS_5LocalINS_11ArrayBufferEEEmm
libnode.so.115:_ZN2v88DataView3NewENS_5LocalINS_17SharedArrayBufferEEEmm
libnode.so.115:_ZN2v88DataView9CheckCastEPNS_5ValueE
libnode.so.115:_ZN2v88External3NewEPNS_7IsolateEPv
libnode.so.115:_ZN2v88External9CheckCastEPNS_5ValueE
libnode.so.115:_ZN2v88Function19kLineOffsetNotFoundE
libnode.so.115:_ZN2v88Function21FunctionProtoToStringENS_5LocalINS_7ContextEEE
libnode.so.115:_ZN2v88Function3NewENS_5LocalINS_7ContextEEEPFvRKNS_20FunctionCallbackInfoINS_5ValueEEEENS1_IS5_EEiNS_19ConstructorBehaviorENS_14SideEffectTypeE
libnode.so.115:_ZN2v88Function4CallENS_5LocalINS_7ContextEEENS1_INS_5ValueEEEiPS5_
libnode.so.115:_ZN2v88Function7SetNameENS_5LocalINS_6StringEEE
libnode.so.115:_ZN2v88Function9CheckCastEPNS_5ValueE
libnode.so.115:_ZN2v88Platform21SystemClockTimeMillisEv
libnode.so.115:_ZN2v88Template10SetPrivateENS_5LocalINS_7PrivateEEENS1_INS_4DataEEENS_17PropertyAttributeE
libnode.so.115:_ZN2v88Template19SetAccessorPropertyENS_5LocalINS_4NameEEENS1_INS_16FunctionTemplateEEES5_NS_17PropertyAttributeENS_13AccessControlE
libnode.so.115:_ZN2v88Template19SetLazyDataPropertyENS_5LocalINS_4NameEEEPFvS3_RKNS_20PropertyCallbackInfoINS_5ValueEEEENS1_IS5_EENS_17PropertyAttributeENS_14SideEffectTypeESD_
libnode.so.115:_ZN2v88Template21SetNativeDataPropertyENS_5LocalINS_4NameEEEPFvS3_RKNS_20PropertyCallbackInfoINS_5ValueEEEEPFvS3_NS1_IS5_EERKNS4_IvEEESB_NS_17PropertyAttributeENS_13AccessControlENS_14SideEffectTypeESJ_
libnode.so.115:_ZN2v88Template21SetNativeDataPropertyENS_5LocalINS_6StringEEEPFvS3_RKNS_20PropertyCallbackInfoINS_5ValueEEEEPFvS3_NS1_IS5_EERKNS4_IvEEESB_NS_17PropertyAttributeENS_13AccessControlENS_14SideEffectTypeESJ_
libnode.so.115:_ZN2v88Template24SetIntrinsicDataPropertyENS_5LocalINS_4NameEEENS_9IntrinsicENS_17PropertyAttributeE
libnode.so.115:_ZN2v88Template3SetENS_5LocalINS_4NameEEENS1_INS_4DataEEENS_17PropertyAttributeE
libnode.so.115:_ZN2v88TryCatch10SetVerboseEb
libnode.so.115:_ZN2v88TryCatch10StackTraceENS_5LocalINS_7ContextEEENS1_INS_5ValueEEE
libnode.so.115:_ZN2v88TryCatch13ResetInternalEv
libnode.so.115:_ZN2v88TryCatch17SetCaptureMessageEb
libnode.so.115:_ZN2v88TryCatch5ResetEv
libnode.so.115:_ZN2v88TryCatch7ReThrowEv
libnode.so.115:_ZN2v88TryCatchC1EPNS_7IsolateE
libnode.so.115:_ZN2v88TryCatchC2EPNS_7IsolateE
libnode.so.115:_ZN2v88TryCatchD1Ev
libnode.so.115:_ZN2v88TryCatchD2Ev
libnode.so.115:_ZN2v88TryCatchdaEPvm
libnode.so.115:_ZN2v88TryCatchdlEPvm
libnode.so.115:_ZN2v88TryCatchnaEm
libnode.so.115:_ZN2v88TryCatchnwEm
libnode.so.115:_ZN2v88Unlocker10InitializeEPNS_7IsolateE
libnode.so.115:_ZN2v88UnlockerD1Ev
libnode.so.115:_ZN2v88UnlockerD2Ev
libnode.so.115:_ZN2v88Unwinder17TryUnwindV8FramesERKNS_12JSEntryStubsEmPKNS_11MemoryRangeEPNS_13RegisterStateEPKv
libnode.so.115:_ZN2v88Unwinder8PCIsInV8EmPKNS_11MemoryRangeEPv
libnode.so.115:_ZN2v88internal100FromConstexpr_PromiseAnyRejectElementContextSlots_constexpr_kPromiseAnyRejectElementCapabilitySlot_0EPNS0_8compiler18CodeAssemblerStateENS0_15PromiseBuiltins35PromiseAnyRejectElementContextSlotsE
libnode.so.115:_ZN2v88internal101ContextSlot_PromiseCapabilitiesExecutorContext_PromiseCapabilitiesExecutorContext_PromiseCapability_0EPNS0_8compiler18CodeAssemblerStateENS0_5TNodeINS0_7ContextEEENS4_INS0_7IntPtrTEEE
libnode.so.115:_ZN2v88internal101FromConstexpr_PromiseAllResolveElementContextSlots_constexpr_kPromiseAllResolveElementRemainingSlot_0EPNS0_8compiler18CodeAssemblerStateENS0_15PromiseBuiltins36PromiseAllResolveElementContextSlotsE
libnode.so.115:_ZN2v88internal101InitContextSlot_PromiseResolvingFunctionContext_PromiseResolvingFunctionContext_JSPromise_JSPromise_0EPNS0_8compiler18CodeAssemblerStateENS0_5TNodeINS0_7ContextEEENS4_INS0_7IntPtrTEEENS4_INS0_9JSPromiseEEE
libnode.so.115:_ZN2v88internal101InitializeFieldsFromIterator_InternalClassStructElement_InternalClassStructElementGeneratorIterator_0EPNS0_8compiler18CodeAssemblerStateENS0_90TorqueStructSlice_InternalClassStructElement_MutableReference_InternalClassStructElement_0ENS0_57TorqueStructInternalClassStructElementGeneratorIterator_0E
libnode.so.115:_ZN2v88internal102FromConstexpr_PromiseAllResolveElementContextSlots_constexpr_kPromiseAllResolveElementCapabilitySlot_0EPNS0_8compiler18CodeAssemblerStateENS0_15PromiseBuiltins36PromiseAllResolveElementContextSlotsE
libnode.so.115:_ZN2v88internal102FromConstexpr_PromiseValueThunkOrReasonContextSlot_constexpr_kPromiseValueThunkOrReasonContextLength_0EPNS0_8compiler18CodeAssemblerStateENS0_15PromiseBuiltins36PromiseValueThunkOrReasonContextSlotE
libnode.so.115:_ZN2v88internal106InitContextSlot_PromiseAnyRejectElementContext_PromiseAnyRejectElementContext_FixedArray_EmptyFixedArray_0EPNS0_8compiler18CodeAssemblerStateENS0_5TNodeINS0_7ContextEEENS4_INS0_7IntPtrTEEENS4_INS0_10FixedArrayEEE
libnode.so.115:_ZN2v88internal107Cast_String_OR_CallableApiObject_OR_CallableJSProxy_OR_JSFunction_OR_JSBoundFunction_OR_JSWrappedFunction_0EPNS0_8compiler18CodeAssemblerStateENS0_5TNodeINS0_7ContextEEENS4_INS0_6ObjectEEEPNS1_18CodeAssemblerLabelE
libnode.so.115:_ZN2v88internal108InitContextSlot_PromiseAllResolveElementContext_PromiseAllResolveElementContext_FixedArray_EmptyFixedArray_0EPNS0_8compiler18CodeAssemblerStateENS0_5TNodeINS0_7ContextEEENS4_INS0_7IntPtrTEEENS4_INS0_10FixedArrayEEE
libnode.so.115:_ZN2v88internal108InitContextSlot_PromiseAnyRejectElementContext_PromiseAnyRejectElementContext_Smi_constexpr_IntegerLiteral_0EPNS0_8compiler18CodeAssemblerStateENS0_5TNodeINS0_7ContextEEENS4_INS0_7IntPtrTEEENS0_14IntegerLiteralE
libnode.so.115:_ZN2v88internal109NewFixedArray_IteratorSequence_Object_SliceIterator_Object_MutableReference_Object_ConstantIterator_TheHole_0EPNS0_8compiler18CodeAssemblerStateENS0_5TNodeINS0_7IntPtrTEEENS0_107TorqueStructIteratorSequence_Object_SliceIterator_Object_MutableReference_Object_ConstantIterator_TheHole_0E
libnode.so.115:_ZN2v88internal10ActionNode12FillInBMInfoEPNS0_7IsolateEiiPNS0_19BoyerMooreLookaheadEb
libnode.so.115:_ZN2v88internal10ActionNode13ClearCapturesENS0_8IntervalEPNS0_10RegExpNodeE
libnode.so.115:_ZN2v88internal10ActionNode13StorePositionEibPNS0_10RegExpNodeE
libnode.so.115:_ZN2v88internal10ActionNode15EmptyMatchCheckEiiiPNS0_10RegExpNodeE
libnode.so.115:_ZN2v88internal10ActionNode17IncrementRegisterEiPNS0_10RegExpNodeE
libnode.so.115:_ZN2v88internal10ActionNode18SetRegisterForLoopEiiPNS0_10RegExpNodeE
libnode.so.115:_ZN2v88internal10ActionNode20GetQuickCheckDetailsEPNS0_17QuickCheckDetailsEPNS0_14RegExpCompilerEib
libnode.so.115:_ZN2v88internal10ActionNode21BeginNegativeSubmatchEiiPNS0_10RegExpNodeE
libnode.so.115:_ZN2v88internal10ActionNode21BeginPositiveSubmatchEiiPNS0_10RegExpNodeE
libnode.so.115:_ZN2v88internal10ActionNode23PositiveSubmatchSuccessEiiiiPNS0_10RegExpNodeE
libnode.so.115:_ZN2v88internal10ActionNode4EmitEPNS0_14RegExpCompilerEPNS0_5TraceE
libnode.so.115:_ZN2v88internal10ActionNode6AcceptEPNS0_11NodeVisitorE
libnode.so.115:_ZN2v88internal10ApiNatives15AddDataPropertyEPNS0_7IsolateENS0_6HandleINS0_12TemplateInfoEEENS4_INS0_4NameEEENS4_INS0_6ObjectEEENS0_18PropertyAttributesE
libnode.so.115:_ZN2v88internal10ApiNatives15AddDataPropertyEPNS0_7IsolateENS0_6HandleINS0_12TemplateInfoEEENS4_INS0_4NameEEENS_9IntrinsicENS0_18PropertyAttributesE
libnode.so.115:_ZN2v88internal10ApiNatives17CreateApiFunctionEPNS0_7IsolateENS0_6HandleINS0_13NativeContextEEENS4_INS0_20FunctionTemplateInfoEEENS4_INS0_6ObjectEEENS0_12InstanceTypeENS0_11MaybeHandleINS0_4NameEEE
libnode.so.115:_ZN2v88internal10ApiNatives17InstantiateObjectEPNS0_7IsolateENS0_6HandleINS0_18ObjectTemplateInfoEEENS4_INS0_10JSReceiverEEE
libnode.so.115:_ZN2v88internal10ApiNatives19AddAccessorPropertyEPNS0_7IsolateENS0_6HandleINS0_12TemplateInfoEEENS4_INS0_4NameEEENS4_INS0_20FunctionTemplateInfoEEESA_NS0_18PropertyAttributesE
libnode.so.115:_ZN2v88internal10ApiNatives19InstantiateFunctionENS0_6HandleINS0_20FunctionTemplateInfoEEENS0_11MaybeHandleINS0_4NameEEE
libnode.so.115:_ZN2v88internal10ApiNatives19InstantiateFunctionEPNS0_7IsolateENS0_6HandleINS0_13NativeContextEEENS4_INS0_20FunctionTemplateInfoEEENS0_11MaybeHandleINS0_4NameEEE
libnode.so.115:_ZN2v88internal10ApiNatives21AddNativeDataPropertyEPNS0_7IsolateENS0_6HandleINS0_12TemplateInfoEEENS4_INS0_12AccessorInfoEEE
libnode.so.115:_ZN2v88internal10ApiNatives23InstantiateRemoteObjectENS0_6HandleINS0_18ObjectTemplateInfoEEE
libnode.so.115:_ZN2v88internal10AssignmentC1ENS0_7AstNode8NodeTypeENS0_5Token5ValueEPNS0_10ExpressionES7_i
libnode.so.115:_ZN2v88internal10AssignmentC2ENS0_7AstNode8NodeTypeENS0_5Token5ValueEPNS0_10ExpressionES7_i
libnode.so.115:_ZN2v88internal10BigIntBase15BigIntBasePrintERSo
libnode.so.115:_ZN2v88internal10CancelableD0Ev
libnode.so.115:_ZN2v88internal10CancelableD1Ev
libnode.so.115:_ZN2v88internal10CancelableD2Ev
libnode.so.115:_ZN2v88internal10CaseClauseC1EPNS0_4ZoneEPNS0_10ExpressionERKNS0_10ScopedListIPNS0_9StatementEPvEE
libnode.so.115:_ZN2v88internal10CaseClauseC2EPNS0_4ZoneEPNS0_10ExpressionERKNS0_10ScopedListIPNS0_9StatementEPvEE
libnode.so.115:_ZN2v88internal10Cast_Map_0EPNS0_8compiler18CodeAssemblerStateENS0_5TNodeINS0_10HeapObjectEEEPNS1_18CodeAssemblerLabelE
libnode.so.115:_ZN2v88internal10Cast_Map_1EPNS0_8compiler18CodeAssemblerStateENS0_5TNodeINS0_7ContextEEENS4_INS0_6ObjectEEEPNS1_18CodeAssemblerLabelE
libnode.so.115:_ZN2v88internal10Cast_Smi_0EPNS0_8compiler18CodeAssemblerStateENS0_5TNodeINS0_6ObjectEEEPNS1_18CodeAssemblerLabelE
libnode.so.115:_ZN2v88internal10Cast_Smi_1EPNS0_8compiler18CodeAssemblerStateENS0_5TNodeINS0_7ContextEEENS4_INS0_11MaybeObjectEEEPNS1_18CodeAssemblerLabelE
libnode.so.115:_ZN2v88internal10ChoiceNode11EmitChoicesEPNS0_14RegExpCompilerEPNS0_25AlternativeGenerationListEiPNS0_5TraceEPNS0_12PreloadStateE
libnode.so.115:_ZN2v88internal10ChoiceNode12FillInBMInfoEPNS0_7IsolateEiiPNS0_19BoyerMooreLookaheadEb
libnode.so.115:_ZN2v88internal10ChoiceNode12SetUpPreLoadEPNS0_14RegExpCompilerEPNS0_5TraceEPNS0_12PreloadStateE
libnode.so.115:_ZN2v88internal10ChoiceNode13FilterOneByteEiNS_4base5FlagsINS0_10RegExpFlagEiEE
libnode.so.115:_ZN2v88internal10ChoiceNode13GenerateGuardEPNS0_20RegExpMacroAssemblerEPNS0_5GuardEPNS0_5TraceE
libnode.so.115:_ZN2v88internal10ChoiceNode14EmitGreedyLoopEPNS0_14RegExpCompilerEPNS0_5TraceEPNS0_25AlternativeGenerationListEPNS0_12PreloadStateEPNS0_15GreedyLoopStateEi
libnode.so.115:_ZN2v88internal10ChoiceNode20GetQuickCheckDetailsEPNS0_17QuickCheckDetailsEPNS0_14RegExpCompilerEib
libnode.so.115:_ZN2v88internal10ChoiceNode25EmitOutOfLineContinuationEPNS0_14RegExpCompilerEPNS0_5TraceENS0_18GuardedAlternativeEPNS0_21AlternativeGenerationEib
libnode.so.115:_ZN2v88internal10ChoiceNode26CalculatePreloadCharactersEPNS0_14RegExpCompilerEi
libnode.so.115:_ZN2v88internal10ChoiceNode28AssertGuardsMentionRegistersEPNS0_5TraceE
libnode.so.115:_ZN2v88internal10ChoiceNode29EmitOptimizedUnanchoredSearchEPNS0_14RegExpCompilerEPNS0_5TraceE
libnode.so.115:_ZN2v88internal10ChoiceNode34GreedyLoopTextLengthForAlternativeEPNS0_18GuardedAlternativeE
libnode.so.115:_ZN2v88internal10ChoiceNode4EmitEPNS0_14RegExpCompilerEPNS0_5TraceE
libnode.so.115:_ZN2v88internal10ChoiceNode6AcceptEPNS0_11NodeVisitorE
libnode.so.115:_ZN2v88internal10ClassScope17LookupPrivateNameEPNS0_13VariableProxyE
libnode.so.115:_ZN2v88internal10ClassScope18DeclarePrivateNameEPKNS0_12AstRawStringENS0_12VariableModeENS0_12IsStaticFlagEPb
libnode.so.115:_ZN2v88internal10ClassScope19ResolvePrivateNamesEPNS0_9ParseInfoE
libnode.so.115:_ZN2v88internal10ClassScope20DeclareBrandVariableEPNS0_15AstValueFactoryENS0_12IsStaticFlagEi
libnode.so.115:_ZN2v88internal10ClassScope20DeclareClassVariableEPNS0_15AstValueFactoryEPKNS0_12AstRawStringEi
libnode.so.115:_ZN2v88internal10ClassScope22LookupLocalPrivateNameEPKNS0_12AstRawStringE
libnode.so.115:_ZN2v88internal10ClassScope26FinalizeReparsedClassScopeEPNS0_7IsolateENS0_11MaybeHandleINS0_9ScopeInfoEEEPNS0_15AstValueFactoryEb
libnode.so.115:_ZN2v88internal10ClassScope28GetUnresolvedPrivateNameTailEv
libnode.so.115:_ZN2v88internal10ClassScope28LookupPrivateNameInScopeInfoEPKNS0_12AstRawStringE
libnode.so.115:_ZN2v88internal10ClassScope28ResolvePrivateNamesPartiallyEv
libnode.so.115:_ZN2v88internal10ClassScope30ResetUnresolvedPrivateNameTailENS_4base16ThreadedListBaseINS0_13VariableProxyENS2_9EmptyBaseENS4_14UnresolvedNextELb0EE8IteratorE
libnode.so.115:_ZN2v88internal10ClassScope32MigrateUnresolvedPrivateNameTailEPNS0_14AstNodeFactoryENS_4base16ThreadedListBaseINS0_13VariableProxyENS4_9EmptyBaseENS6_14UnresolvedNextELb0EE8IteratorE
libnode.so.115:_ZN2v88internal10ClassScopeC1EPNS0_4ZoneEPNS0_5ScopeEb
libnode.so.115:_ZN2v88internal10ClassScopeC2EPNS0_4ZoneEPNS0_5ScopeEb
libnode.so.115:_ZN2v88internal10Comparator19CalculateDifferenceEPNS1_5InputEPNS1_6OutputE
libnode.so.115:_ZN2v88internal10CpuProfile13FinishProfileEv
libnode.so.115:_ZN2v88internal10CpuProfile14CheckSubsampleENS_4base9TimeDeltaE
libnode.so.115:_ZN2v88internal10CpuProfile24StreamPendingTraceEventsEv
libnode.so.115:_ZN2v88internal10CpuProfile7AddPathENS_4base9TimeTicksERKSt6vectorINS0_22CodeEntryAndLineNumberESaIS5_EEibNS2_9TimeDeltaENS_8StateTagENS_16EmbedderStateTagE
libnode.so.115:_ZN2v88internal10CpuProfileC1EPNS0_11CpuProfilerEjPKcNS_19CpuProfilingOptionsESt10unique_ptrINS_24DiscardedSamplesDelegateESt14default_deleteIS8_EE
libnode.so.115:_ZN2v88internal10CpuProfileC2EPNS0_11CpuProfilerEjPKcNS_19CpuProfilingOptionsESt10unique_ptrINS_24DiscardedSamplesDelegateESt14default_deleteIS8_EE
libnode.so.115:_ZN2v88internal10CreateFuncEPNS0_7IsolateENS0_6HandleINS0_6StringEEEPFvRKNS_20FunctionCallbackInfoINS_5ValueEEEEbNS_14SideEffectTypeE
libnode.so.115:_ZN2v88internal10DateParser11DayComposer5WriteEPd
libnode.so.115:_ZN2v88internal10DateParser12KeywordTable5arrayE
libnode.so.115:_ZN2v88internal10DateParser12KeywordTable6LookupEPKji
libnode.so.115:_ZN2v88internal10DateParser12TimeComposer5WriteEPd
libnode.so.115:_ZN2v88internal10DateParser16ReadMillisecondsENS1_9DateTokenE
libnode.so.115:_ZN2v88internal10DateParser16TimeZoneComposer5WriteEPd
libnode.so.115:_ZN2v88internal10DebugScope23set_terminate_on_resumeEv
libnode.so.115:_ZN2v88internal10DebugScope24ElapsedTimeSinceCreationEv
libnode.so.115:_ZN2v88internal10DebugScopeC1EPNS0_5DebugE
libnode.so.115:_ZN2v88internal10DebugScopeC2EPNS0_5DebugE
libnode.so.115:_ZN2v88internal10DebugScopeD1Ev
libnode.so.115:_ZN2v88internal10DebugScopeD2Ev
libnode.so.115:_ZN2v88internal10Descriptor12DataConstantENS0_6HandleINS0_4NameEEENS2_INS0_6ObjectEEENS0_18PropertyAttributesE
libnode.so.115:_ZN2v88internal10Descriptor12DataConstantEPNS0_7IsolateENS0_6HandleINS0_4NameEEEiNS4_INS0_6ObjectEEENS0_18PropertyAttributesE
libnode.so.115:_ZN2v88internal10Descriptor16AccessorConstantENS0_6HandleINS0_4NameEEENS2_INS0_6ObjectEEENS0_18PropertyAttributesE
libnode.so.115:_ZN2v88internal10Descriptor9DataFieldENS0_6HandleINS0_4NameEEEiNS0_18PropertyAttributesENS0_17PropertyConstnessENS0_14RepresentationERKNS0_17MaybeObjectHandleE
libnode.so.115:_ZN2v88internal10Descriptor9DataFieldEPNS0_7IsolateENS0_6HandleINS0_4NameEEEiNS0_18PropertyAttributesENS0_14RepresentationE
libnode.so.115:_ZN2v88internal10DescriptorC1ENS0_6HandleINS0_4NameEEERKNS0_17MaybeObjectHandleENS0_12PropertyKindENS0_18PropertyAttributesENS0_16PropertyLocationENS0_17PropertyConstnessENS0_14RepresentationEi
libnode.so.115:_ZN2v88internal10DescriptorC1ENS0_6HandleINS0_4NameEEERKNS0_17MaybeObjectHandleENS0_15PropertyDetailsE
libnode.so.115:_ZN2v88internal10DescriptorC1Ev
libnode.so.115:_ZN2v88internal10DescriptorC2ENS0_6HandleINS0_4NameEEERKNS0_17MaybeObjectHandleENS0_12PropertyKindENS0_18PropertyAttributesENS0_16PropertyLocationENS0_17PropertyConstnessENS0_14RepresentationEi
libnode.so.115:_ZN2v88internal10DescriptorC2ENS0_6HandleINS0_4NameEEERKNS0_17MaybeObjectHandleENS0_15PropertyDetailsE
libnode.so.115:_ZN2v88internal10DescriptorC2Ev
libnode.so.115:_ZN2v88internal10DotPrinter8DotPrintEPKcPNS0_10RegExpNodeE
libnode.so.115:_ZN2v88internal10ErrorUtils16FormatStackTraceEPNS0_7IsolateENS0_6HandleINS0_8JSObjectEEENS4_INS0_6ObjectEEE
libnode.so.115:_ZN2v88internal10ErrorUtils16MakeGenericErrorEPNS0_7IsolateENS0_6HandleINS0_10JSFunctionEEENS0_15MessageTemplateENS4_INS0_6ObjectEEES9_S9_NS0_13FrameSkipModeE
libnode.so.115:_ZN2v88internal10ErrorUtils16NewIteratorErrorEPNS0_7IsolateENS0_6HandleINS0_6ObjectEEE
libnode.so.115:_ZN2v88internal10ErrorUtils17GetFormattedStackEPNS0_7IsolateENS0_6HandleINS0_8JSObjectEEE
libnode.so.115:_ZN2v88internal10ErrorUtils17SetFormattedStackEPNS0_7IsolateENS0_6HandleINS0_8JSObjectEEENS4_INS0_6ObjectEEE
libnode.so.115:_ZN2v88internal10ErrorUtils19ThrowSpreadArgErrorEPNS0_7IsolateENS0_15MessageTemplateENS0_6HandleINS0_6ObjectEEE
libnode.so.115:_ZN2v88internal10ErrorUtils25NewCalledNonCallableErrorEPNS0_7IsolateENS0_6HandleINS0_6ObjectEEE
libnode.so.115:_ZN2v88internal10ErrorUtils28ThrowLoadFromNullOrUndefinedEPNS0_7IsolateENS0_6HandleINS0_6ObjectEEENS0_11MaybeHandleIS5_EE
libnode.so.115:_ZN2v88internal10ErrorUtils30NewConstructedNonConstructableEPNS0_7IsolateENS0_6HandleINS0_6ObjectEEE
libnode.so.115:_ZN2v88internal10ErrorUtils8ToStringEPNS0_7IsolateENS0_6HandleINS0_6ObjectEEE
libnode.so.115:_ZN2v88internal10ErrorUtils9ConstructEPNS0_7IsolateENS0_6HandleINS0_10JSFunctionEEENS4_INS0_6ObjectEEES8_S8_
libnode.so.115:_ZN2v88internal10ErrorUtils9ConstructEPNS0_7IsolateENS0_6HandleINS0_10JSFunctionEEENS4_INS0_6ObjectEEES8_S8_NS0_13FrameSkipModeES8_NS1_20StackTraceCollectionE
libnode.so.115:_ZN2v88internal10Expression18IsCompileTimeValueEv
libnode.so.115:_ZN2v88internal10FastCopy_0EPNS0_8compiler18CodeAssemblerStateENS0_5TNodeINS0_12JSTypedArrayEEES6_NS4_INS0_8UintPtrTEEES8_PNS1_18CodeAssemblerLabelE
libnode.so.115:_ZN2v88internal10FindCallerEPNS0_7IsolateENS0_6HandleINS0_10JSFunctionEEE
libnode.so.115:_ZN2v88internal10FixedArray10SetAndGrowEPNS0_7IsolateENS0_6HandleIS1_EEiNS4_INS0_6ObjectEEE
libnode.so.115:_ZN2v88internal10FixedArray13ShrinkOrEmptyEPNS0_7IsolateENS0_6HandleIS1_EEi
libnode.so.115:_ZN2v88internal10FixedArray15FixedArrayPrintERSo
libnode.so.115:_ZN2v88internal10FixedArray6ShrinkEPNS0_7IsolateEi
libnode.so.115:_ZN2v88internal10GetterNameEPNS0_7IsolateENS0_6HandleINS0_6StringEEE
libnode.so.115:_ZN2v88internal10HeapNumber15HeapNumberPrintERSo
libnode.so.115:_ZN2v88internal10HeapNumber20HeapNumberShortPrintERSo
libnode.so.115:_ZN2v88internal10HeapObject11IsValidSlotENS0_3MapEi
libnode.so.115:_ZN2v88internal10HeapObject11IterateBodyENS0_16PtrComprCageBaseEPNS0_13ObjectVisitorE
libnode.so.115:_ZN2v88internal10HeapObject11IterateBodyENS0_3MapEiPNS0_13ObjectVisitorE
libnode.so.115:_ZN2v88internal10HeapObject11PrintHeaderERSoPKc
libnode.so.115:_ZN2v88internal10HeapObject15HeapObjectPrintERSo
libnode.so.115:_ZN2v88internal10HeapObject20HeapObjectShortPrintERSo
libnode.so.115:_ZN2v88internal10HeapObject7IterateENS0_16PtrComprCageBaseEPNS0_13ObjectVisitorE
libnode.so.115:_ZN2v88internal10IsNumber_0EPNS0_8compiler18CodeAssemblerStateENS0_5TNodeINS0_6ObjectEEE
libnode.so.115:_ZN2v88internal10IsRegExp_0EPNS0_8compiler18CodeAssemblerStateENS0_5TNodeINS0_7ContextEEENS4_INS0_6ObjectEEE
libnode.so.115:_ZN2v88internal10IsSymbol_0EPNS0_8compiler18CodeAssemblerStateENS0_5TNodeINS0_10HeapObjectEEE
libnode.so.115:_ZN2v88internal10JSCollator15JSCollatorPrintERSo
libnode.so.115:_ZN2v88internal10JSCollator15ResolvedOptionsEPNS0_7IsolateENS0_6HandleIS1_EE
libnode.so.115:_ZN2v88internal10JSCollator19GetAvailableLocalesB5cxx11Ev
libnode.so.115:_ZN2v88internal10JSCollator3NewEPNS0_7IsolateENS0_6HandleINS0_3MapEEENS4_INS0_6ObjectEEES8_PKc
libnode.so.115:_ZN2v88internal10JSDataView15JSDataViewPrintERSo
libnode.so.115:_ZN2v88internal10JSFunction12GetDebugNameENS0_6HandleIS1_EE
libnode.so.115:_ZN2v88internal10JSFunction12SetPrototypeENS0_6HandleIS1_EENS2_INS0_6ObjectEEE
libnode.so.115:_ZN2v88internal10JSFunction13DebugNameCStrEv
libnode.so.115:_ZN2v88internal10JSFunction13GetDerivedMapEPNS0_7IsolateENS0_6HandleIS1_EENS4_INS0_10JSReceiverEEE
libnode.so.115:_ZN2v88internal10JSFunction13SetInitialMapEPNS0_7IsolateENS0_6HandleIS1_EENS4_INS0_3MapEEENS4_INS0_10HeapObjectEEE
libnode.so.115:_ZN2v88internal10JSFunction13SetInitialMapEPNS0_7IsolateENS0_6HandleIS1_EENS4_INS0_3MapEEENS4_INS0_10HeapObjectEEES9_
libnode.so.115:_ZN2v88internal10JSFunction15JSFunctionPrintERSo
libnode.so.115:_ZN2v88internal10JSFunction18SetInterruptBudgetEPNS0_7IsolateE
libnode.so.115:_ZN2v88internal10JSFunction19EnsureHasInitialMapENS0_6HandleIS1_EE
libnode.so.115:_ZN2v88internal10JSFunction19MarkForOptimizationEPNS0_7IsolateENS0_8CodeKindENS0_15ConcurrencyModeE
libnode.so.115:_ZN2v88internal10JSFunction20EnsureFeedbackVectorEPNS0_7IsolateENS0_6HandleIS1_EEPNS0_15IsCompiledScopeE
libnode.so.115:_ZN2v88internal10JSFunction22InitializeFeedbackCellENS0_6HandleIS1_EEPNS0_15IsCompiledScopeEb
libnode.so.115:_ZN2v88internal10JSFunction27CalculateInstanceSizeHelperENS0_12InstanceTypeEbiiPiS3_
libnode.so.115:_ZN2v88internal10JSFunction28GetDerivedRabGsabDataViewMapEPNS0_7IsolateENS0_6HandleINS0_10JSReceiverEEE
libnode.so.115:_ZN2v88internal10JSFunction29CreateAndAttachFeedbackVectorEPNS0_7IsolateENS0_6HandleIS1_EEPNS0_15IsCompiledScopeE
libnode.so.115:_ZN2v88internal10JSFunction30CalculateExpectedNofPropertiesEPNS0_7IsolateENS0_6HandleIS1_EE
libnode.so.115:_ZN2v88internal10JSFunction30EnsureClosureFeedbackCellArrayENS0_6HandleIS1_EEb
libnode.so.115:_ZN2v88internal10JSFunction30GetDerivedRabGsabTypedArrayMapEPNS0_7IsolateENS0_6HandleIS1_EENS4_INS0_10JSReceiverEEE
libnode.so.115:_ZN2v88internal10JSFunction31ComputeInstanceSizeWithMinSlackEPNS0_7IsolateE
libnode.so.115:_ZN2v88internal10JSFunction34ClearAllTypeFeedbackInfoForTestingEv
libnode.so.115:_ZN2v88internal10JSFunction7GetNameEPNS0_7IsolateENS0_6HandleIS1_EE
libnode.so.115:_ZN2v88internal10JSFunction7SetNameENS0_6HandleIS1_EENS2_INS0_4NameEEENS2_INS0_6StringEEE
libnode.so.115:_ZN2v88internal10JSFunction8ToStringENS0_6HandleIS1_EE
libnode.so.115:_ZN2v88internal10JSFunction9PrintNameEP8_IO_FILE
libnode.so.115:_ZN2v88internal10JSReceiver10class_nameEv
libnode.so.115:_ZN2v88internal10JSReceiver11HasPropertyEPNS0_14LookupIteratorE
libnode.so.115:_ZN2v88internal10JSReceiver11ToPrimitiveEPNS0_7IsolateENS0_6HandleIS1_EENS0_15ToPrimitiveHintE
libnode.so.115:_ZN2v88internal10JSReceiver12GetOwnValuesEPNS0_7IsolateENS0_6HandleIS1_EENS0_14PropertyFilterEb
libnode.so.115:_ZN2v88internal10JSReceiver12IsExtensibleEPNS0_7IsolateENS0_6HandleIS1_EE
libnode.so.115:_ZN2v88internal10JSReceiver12SetPrototypeEPNS0_7IsolateENS0_6HandleIS1_EENS4_INS0_6ObjectEEEbNS0_11ShouldThrowE
libnode.so.115:_ZN2v88internal10JSReceiver13DeleteElementENS0_6HandleIS1_EEjNS0_12LanguageModeE
libnode.so.115:_ZN2v88internal10JSReceiver13GetOwnEntriesEPNS0_7IsolateENS0_6HandleIS1_EENS0_14PropertyFilterEb
libnode.so.115:_ZN2v88internal10JSReceiver13SetPropertiesENS0_10HeapObjectE
libnode.so.115:_ZN2v88internal10JSReceiver14DefinePropertyEPNS0_7IsolateENS0_6HandleINS0_6ObjectEEES6_S6_
libnode.so.115:_ZN2v88internal10JSReceiver14DeletePropertyENS0_6HandleIS1_EENS2_INS0_4NameEEENS0_12LanguageModeE
libnode.so.115:_ZN2v88internal10JSReceiver14DeletePropertyEPNS0_14LookupIteratorENS0_12LanguageModeE
libnode.so.115:_ZN2v88internal10JSReceiver14GetConstructorEPNS0_7IsolateENS0_6HandleIS1_EE
libnode.so.115:_ZN2v88internal10JSReceiver14HasOwnPropertyEPNS0_7IsolateENS0_6HandleIS1_EENS4_INS0_4NameEEE
libnode.so.115:_ZN2v88internal10JSReceiver15AddPrivateFieldEPNS0_14LookupIteratorENS0_6HandleINS0_6ObjectEEENS_5MaybeINS0_11ShouldThrowEEE
libnode.so.115:_ZN2v88internal10JSReceiver15GetDataPropertyEPNS0_14LookupIteratorENS0_16AllocationPolicyE
libnode.so.115:_ZN2v88internal10JSReceiver15GetIdentityHashEv
libnode.so.115:_ZN2v88internal10JSReceiver15SetIdentityHashEi
libnode.so.115:_ZN2v88internal10JSReceiver16CheckIfCanDefineEPNS0_7IsolateEPNS0_14LookupIteratorENS0_6HandleINS0_6ObjectEEENS_5MaybeINS0_11ShouldThrowEEE
libnode.so.115:_ZN2v88internal10JSReceiver16DefinePropertiesEPNS0_7IsolateENS0_6HandleINS0_6ObjectEEES6_
libnode.so.115:_ZN2v88internal10JSReceiver16GetFunctionRealmENS0_6HandleIS1_EE
libnode.so.115:_ZN2v88internal10JSReceiver17DefineOwnPropertyEPNS0_7IsolateENS0_6HandleIS1_EENS4_INS0_6ObjectEEEPNS0_18PropertyDescriptorENS_5MaybeINS0_11ShouldThrowEEE
libnode.so.115:_ZN2v88internal10JSReceiver17PreventExtensionsEPNS0_7IsolateENS0_6HandleIS1_EENS0_11ShouldThrowE
libnode.so.115:_ZN2v88internal10JSReceiver17SetIntegrityLevelEPNS0_7IsolateENS0_6HandleIS1_EENS0_18PropertyAttributesENS0_11ShouldThrowE
libnode.so.115:_ZN2v88internal10JSReceiver18CreateDataPropertyEPNS0_14LookupIteratorENS0_6HandleINS0_6ObjectEEENS_5MaybeINS0_11ShouldThrowEEE
libnode.so.115:_ZN2v88internal10JSReceiver18CreateDataPropertyEPNS0_7IsolateENS0_6HandleIS1_EENS4_INS0_4NameEEENS4_INS0_6ObjectEEENS_5MaybeINS0_11ShouldThrowEEE
libnode.so.115:_ZN2v88internal10JSReceiver18CreateIdentityHashEPNS0_7IsolateES1_
libnode.so.115:_ZN2v88internal10JSReceiver18GetConstructorNameEPNS0_7IsolateENS0_6HandleIS1_EE
libnode.so.115:_ZN2v88internal10JSReceiver18GetCreationContextEv
libnode.so.115:_ZN2v88internal10JSReceiver18TestIntegrityLevelEPNS0_7IsolateENS0_6HandleIS1_EENS0_18PropertyAttributesE
libnode.so.115:_ZN2v88internal10JSReceiver19HasInPrototypeChainEPNS0_7IsolateENS0_6HandleIS1_EENS4_INS0_6ObjectEEE
libnode.so.115:_ZN2v88internal10JSReceiver19HasProxyInPrototypeEPNS0_7IsolateE
libnode.so.115:_ZN2v88internal10JSReceiver19OrdinaryToPrimitiveEPNS0_7IsolateENS0_6HandleIS1_EENS0_23OrdinaryToPrimitiveHintE
libnode.so.115:_ZN2v88internal10JSReceiver21CheckPrivateNameStoreEPNS0_14LookupIteratorEb
libnode.so.115:_ZN2v88internal10JSReceiver21GetCreationContextRawEv
libnode.so.115:_ZN2v88internal10JSReceiver21GetPropertyAttributesEPNS0_14LookupIteratorE
libnode.so.115:_ZN2v88internal10JSReceiver22GetContextForMicrotaskENS0_6HandleIS1_EE
libnode.so.115:_ZN2v88internal10JSReceiver23DeletePropertyOrElementENS0_6HandleIS1_EENS2_INS0_4NameEEENS0_12LanguageModeE
libnode.so.115:_ZN2v88internal10JSReceiver23GetOrCreateIdentityHashEPNS0_7IsolateE
libnode.so.115:_ZN2v88internal10JSReceiver23SetOrCopyDataPropertiesEPNS0_7IsolateENS0_6HandleIS1_EENS4_INS0_6ObjectEEENS0_25PropertiesEnumerationModeEPKNS_4base12ScopedVectorIS7_EEb
libnode.so.115:_ZN2v88internal10JSReceiver24DeleteNormalizedPropertyENS0_6HandleIS1_EENS0_13InternalIndexE
libnode.so.115:_ZN2v88internal10JSReceiver24GetOwnPropertyDescriptorEPNS0_14LookupIteratorEPNS0_18PropertyDescriptorE
libnode.so.115:_ZN2v88internal10JSReceiver24GetOwnPropertyDescriptorEPNS0_7IsolateENS0_6HandleIS1_EENS4_INS0_6ObjectEEEPNS0_18PropertyDescriptorE
libnode.so.115:_ZN2v88internal10JSReceiver25OrdinaryDefineOwnPropertyEPNS0_14LookupIteratorEPNS0_18PropertyDescriptorENS_5MaybeINS0_11ShouldThrowEEE
libnode.so.115:_ZN2v88internal10JSReceiver25OrdinaryDefineOwnPropertyEPNS0_7IsolateENS0_6HandleINS0_8JSObjectEEENS4_INS0_6ObjectEEEPNS0_18PropertyDescriptorENS_5MaybeINS0_11ShouldThrowEEE
libnode.so.115:_ZN2v88internal10JSReceiver25OrdinaryDefineOwnPropertyEPNS0_7IsolateENS0_6HandleINS0_8JSObjectEEERKNS0_11PropertyKeyEPNS0_18PropertyDescriptorENS_5MaybeINS0_11ShouldThrowEEE
libnode.so.115:_ZN2v88internal10JSReceiver30IsCompatiblePropertyDescriptorEPNS0_7IsolateEbPNS0_18PropertyDescriptorES5_NS0_6HandleINS0_4NameEEENS_5MaybeINS0_11ShouldThrowEEE
libnode.so.115:_ZN2v88internal10JSReceiver34ValidateAndApplyPropertyDescriptorEPNS0_7IsolateEPNS0_14LookupIteratorEbPNS0_18PropertyDescriptorES7_NS_5MaybeINS0_11ShouldThrowEEENS0_6HandleINS0_4NameEEE
libnode.so.115:_ZN2v88internal10JSSegments10ContainingEPNS0_7IsolateENS0_6HandleIS1_EEd
libnode.so.115:_ZN2v88internal10JSSegments15JSSegmentsPrintERSo
libnode.so.115:_ZN2v88internal10JSSegments23CreateSegmentDataObjectEPNS0_7IsolateENS0_11JSSegmenter11GranularityEPN6icu_7613BreakIteratorERKNS6_13UnicodeStringEii
libnode.so.115:_ZN2v88internal10JSSegments6CreateEPNS0_7IsolateENS0_6HandleINS0_11JSSegmenterEEENS4_INS0_6StringEEE
libnode.so.115:_ZN2v88internal10MapUpdater10UpdateImplEv
libnode.so.115:_ZN2v88internal10MapUpdater11FindRootMapEv
libnode.so.115:_ZN2v88internal10MapUpdater12FindSplitMapENS0_6HandleINS0_15DescriptorArrayEEE
libnode.so.115:_ZN2v88internal10MapUpdater13FindTargetMapEv
libnode.so.115:_ZN2v88internal10MapUpdater15ConstructNewMapEv
libnode.so.115:_ZN2v88internal10MapUpdater15GeneralizeFieldENS0_6HandleINS0_3MapEEENS0_13InternalIndexENS0_17PropertyConstnessENS0_14RepresentationENS2_INS0_9FieldTypeEEE
libnode.so.115:_ZN2v88internal10MapUpdater15GeneralizeFieldEPNS0_7IsolateENS0_6HandleINS0_3MapEEENS0_13InternalIndexENS0_17PropertyConstnessENS0_14RepresentationENS4_INS0_9FieldTypeEEE
libnode.so.115:_ZN2v88internal10MapUpdater15TryUpdateNoLockEPNS0_7IsolateENS0_3MapENS0_15ConcurrencyModeE
libnode.so.115:_ZN2v88internal10MapUpdater15UpdateFieldTypeEPNS0_7IsolateENS0_6HandleINS0_3MapEEENS0_13InternalIndexENS4_INS0_4NameEEENS0_17PropertyConstnessENS0_14RepresentationERKNS0_17MaybeObjectHandleE
libnode.so.115:_ZN2v88internal10MapUpdater20BuildDescriptorArrayEv
libnode.so.115:_ZN2v88internal10MapUpdater22ReconfigureToDataFieldENS0_13InternalIndexENS0_18PropertyAttributesENS0_17PropertyConstnessENS0_14RepresentationENS0_6HandleINS0_9FieldTypeEEE
libnode.so.115:_ZN2v88internal10MapUpdater23ReconfigureElementsKindENS0_12ElementsKindE
libnode.so.115:_ZN2v88internal10MapUpdater27ReconfigureExistingPropertyEPNS0_7IsolateENS0_6HandleINS0_3MapEEENS0_13InternalIndexENS0_12PropertyKindENS0_18PropertyAttributesENS0_17PropertyConstnessE
libnode.so.115:_ZN2v88internal10MapUpdater29CompleteInobjectSlackTrackingEPNS0_7IsolateENS0_3MapE
libnode.so.115:_ZN2v88internal10MapUpdater32TryReconfigureToDataFieldInplaceEv
libnode.so.115:_ZN2v88internal10MapUpdater32TrySaveIntegrityLevelTransitionsEv
libnode.so.115:_ZN2v88internal10MapUpdater43ConstructNewMapWithIntegrityLevelTransitionEv
libnode.so.115:_ZN2v88internal10MapUpdater6UpdateEv
libnode.so.115:_ZN2v88internal10MapUpdater9NormalizeEPKc
libnode.so.115:_ZN2v88internal10MapUpdaterC1EPNS0_7IsolateENS0_6HandleINS0_3MapEEE
libnode.so.115:_ZN2v88internal10MapUpdaterC2EPNS0_7IsolateENS0_6HandleINS0_3MapEEE
libnode.so.115:_ZN2v88internal10MathRandom11RefillCacheEPNS0_7IsolateEm
libnode.so.115:_ZN2v88internal10MathRandom12ResetContextENS0_7ContextE
libnode.so.115:_ZN2v88internal10MathRandom17InitializeContextEPNS0_7IsolateENS0_6HandleINS0_7ContextEEE
libnode.so.115:_ZN2v88internal10MergeLow_0EPNS0_8compiler18CodeAssemblerStateENS0_5TNodeINS0_7ContextEEENS4_INS0_9SortStateEEENS4_INS0_3SmiEEESA_SA_SA_
libnode.so.115:_ZN2v88internal10MinorGCJob20ScheduleTaskIfNeededEPNS0_4HeapE
libnode.so.115:_ZN2v88internal10MinorGCJob30YoungGenerationTaskTriggerSizeEPNS0_4HeapE
libnode.so.115:_ZN2v88internal10MinorGCJob37YoungGenerationSizeTaskTriggerReachedEPNS0_4HeapE
libnode.so.115:_ZN2v88internal10MinorGCJob4Task11RunInternalEv
libnode.so.115:_ZN2v88internal10PagedSpace14RefillFreeListEv
libnode.so.115:_ZN2v88internal10Protectors17InvalidateMegaDOMEPNS0_7IsolateE
libnode.so.115:_ZN2v88internal10Protectors20InvalidateNoElementsEPNS0_7IsolateE
libnode.so.115:_ZN2v88internal10Protectors21InvalidatePromiseHookEPNS0_7IsolateE
libnode.so.115:_ZN2v88internal10Protectors26InvalidateArrayConstructorEPNS0_7IsolateE
libnode.so.115:_ZN2v88internal10Protectors30InvalidateArrayBufferDetachingEPNS0_7IsolateE
libnode.so.115:_ZN2v88internal10Protectors32InvalidateMapIteratorLookupChainEPNS0_7IsolateE
libnode.so.115:_ZN2v88internal10Protectors32InvalidatePromiseThenLookupChainEPNS0_7IsolateE
libnode.so.115:_ZN2v88internal10Protectors32InvalidateSetIteratorLookupChainEPNS0_7IsolateE
libnode.so.115:_ZN2v88internal10Protectors33InvalidateArraySpeciesLookupChainEPNS0_7IsolateE
libnode.so.115:_ZN2v88internal10Protectors34InvalidateArrayIteratorLookupChainEPNS0_7IsolateE
libnode.so.115:_ZN2v88internal10Protectors34InvalidateRegExpSpeciesLookupChainEPNS0_7IsolateE
libnode.so.115:_ZN2v88internal10Protectors35InvalidatePromiseResolveLookupChainEPNS0_7IsolateE
libnode.so.115:_ZN2v88internal10Protectors35InvalidatePromiseSpeciesLookupChainEPNS0_7IsolateE
libnode.so.115:_ZN2v88internal10Protectors35InvalidateStringIteratorLookupChainEPNS0_7IsolateE
libnode.so.115:_ZN2v88internal10Protectors38InvalidateTypedArraySpeciesLookupChainEPNS0_7IsolateE
libnode.so.115:_ZN2v88internal10Protectors39InvalidateIsConcatSpreadableLookupChainEPNS0_7IsolateE
libnode.so.115:_ZN2v88internal10Protectors40InvalidateNumberStringPrototypeNoReplaceEPNS0_7IsolateE
libnode.so.115:_ZN2v88internal10Protectors41InvalidateStringLengthOverflowLookupChainEPNS0_7IsolateE
libnode.so.115:_ZN2v88internal10PushCell_0EPNS0_8compiler18CodeAssemblerStateENS0_5TNodeINS0_22JSFinalizationRegistryEEENS4_INS0_8WeakCellEEE
libnode.so.115:_ZN2v88internal10RegExpAtom12AppendToTextEPNS0_10RegExpTextEPNS0_4ZoneE
libnode.so.115:_ZN2v88internal10RegExpAtom6AcceptEPNS0_13RegExpVisitorEPv
libnode.so.115:_ZN2v88internal10RegExpAtom6AsAtomEv
libnode.so.115:_ZN2v88internal10RegExpAtom6IsAtomEv
libnode.so.115:_ZN2v88internal10RegExpAtom6ToNodeEPNS0_14RegExpCompilerEPNS0_10RegExpNodeE
libnode.so.115:_ZN2v88internal10RegExpImpl11AtomCompileEPNS0_7IsolateENS0_6HandleINS0_8JSRegExpEEENS4_INS0_6StringEEENS_4base5FlagsINS0_10RegExpFlagEiEES8_
libnode.so.115:_ZN2v88internal10RegExpImpl11AtomExecRawEPNS0_7IsolateENS0_6HandleINS0_8JSRegExpEEENS4_INS0_6StringEEEiPii
libnode.so.115:_ZN2v88internal10RegExpImpl12IrregexpExecEPNS0_7IsolateENS0_6HandleINS0_8JSRegExpEEENS4_INS0_6StringEEEiNS4_INS0_15RegExpMatchInfoEEENS0_6RegExp10ExecQuirksE
libnode.so.115:_ZN2v88internal10RegExpImpl15CompileIrregexpEPNS0_7IsolateENS0_6HandleINS0_8JSRegExpEEENS4_INS0_6StringEEEb
libnode.so.115:_ZN2v88internal10RegExpImpl15IrregexpExecRawEPNS0_7IsolateENS0_6HandleINS0_8JSRegExpEEENS4_INS0_6StringEEEiPii
libnode.so.115:_ZN2v88internal10RegExpImpl15IrregexpPrepareEPNS0_7IsolateENS0_6HandleINS0_8JSRegExpEEENS4_INS0_6StringEEE
libnode.so.115:_ZN2v88internal10RegExpImpl16IrregexpByteCodeENS0_10FixedArrayEb
libnode.so.115:_ZN2v88internal10RegExpImpl18IrregexpInitializeEPNS0_7IsolateENS0_6HandleINS0_8JSRegExpEEENS4_INS0_6StringEEENS_4base5FlagsINS0_10RegExpFlagEiEEij
libnode.so.115:_ZN2v88internal10RegExpImpl18IrregexpNativeCodeENS0_10FixedArrayEb
libnode.so.115:_ZN2v88internal10RegExpImpl24IrregexpMaxRegisterCountENS0_10FixedArrayE
libnode.so.115:_ZN2v88internal10RegExpImpl24IrregexpNumberOfCapturesENS0_10FixedArrayE
libnode.so.115:_ZN2v88internal10RegExpImpl27SetIrregexpMaxRegisterCountENS0_10FixedArrayEi
libnode.so.115:_ZN2v88internal10RegExpImpl7CompileEPNS0_7IsolateEPNS0_4ZoneEPNS0_17RegExpCompileDataENS_4base5FlagsINS0_10RegExpFlagEiEENS0_6HandleINS0_6StringEEESE_bRj
libnode.so.115:_ZN2v88internal10RegExpImpl8AtomExecEPNS0_7IsolateENS0_6HandleINS0_8JSRegExpEEENS4_INS0_6StringEEEiNS4_INS0_15RegExpMatchInfoEEE
libnode.so.115:_ZN2v88internal10RegExpNode11EatsAtLeastEb
libnode.so.115:_ZN2v88internal10RegExpNode13KeepRecursingEPNS0_14RegExpCompilerE
libnode.so.115:_ZN2v88internal10RegExpNode13LimitVersionsEPNS0_14RegExpCompilerEPNS0_5TraceE
libnode.so.115:_ZN2v88internal10RegExpNode14EmitQuickCheckEPNS0_14RegExpCompilerEPNS0_5TraceES5_bPNS0_5LabelEPNS0_17QuickCheckDetailsEbPNS0_10ChoiceNodeE
libnode.so.115:_ZN2v88internal10RegExpNode24EatsAtLeastFromLoopEntryEv
libnode.so.115:_ZN2v88internal10RegExpNode33GetQuickCheckDetailsFromLoopEntryEPNS0_17QuickCheckDetailsEPNS0_14RegExpCompilerEib
libnode.so.115:_ZN2v88internal10RegExpNodeD0Ev
libnode.so.115:_ZN2v88internal10RegExpNodeD1Ev
libnode.so.115:_ZN2v88internal10RegExpNodeD2Ev
libnode.so.115:_ZN2v88internal10RegExpText12AppendToTextEPS1_PNS0_4ZoneE
libnode.so.115:_ZN2v88internal10RegExpText6AcceptEPNS0_13RegExpVisitorEPv
libnode.so.115:_ZN2v88internal10RegExpText6AsTextEv
libnode.so.115:_ZN2v88internal10RegExpText6IsTextEv
libnode.so.115:_ZN2v88internal10RegExpText6ToNodeEPNS0_14RegExpCompilerEPNS0_10RegExpNodeE
libnode.so.115:_ZN2v88internal10RegExpTree11AsAssertionEv
libnode.so.115:_ZN2v88internal10RegExpTree11IsAssertionEv
libnode.so.115:_ZN2v88internal10RegExpTree12AppendToTextEPNS0_10RegExpTextEPNS0_4ZoneE
libnode.so.115:_ZN2v88internal10RegExpTree12AsLookaroundEv
libnode.so.115:_ZN2v88internal10RegExpTree12AsQuantifierEv
libnode.so.115:_ZN2v88internal10RegExpTree12IsLookaroundEv
libnode.so.115:_ZN2v88internal10RegExpTree12IsQuantifierEv
libnode.so.115:_ZN2v88internal10RegExpTree13AsAlternativeEv
libnode.so.115:_ZN2v88internal10RegExpTree13AsClassRangesEv
libnode.so.115:_ZN2v88internal10RegExpTree13AsDisjunctionEv
libnode.so.115:_ZN2v88internal10RegExpTree13IsAlternativeEv
libnode.so.115:_ZN2v88internal10RegExpTree13IsClassRangesEv
libnode.so.115:_ZN2v88internal10RegExpTree13IsDisjunctionEv
libnode.so.115:_ZN2v88internal10RegExpTree15AsBackReferenceEv
libnode.so.115:_ZN2v88internal10RegExpTree15IsBackReferenceEv
libnode.so.115:_ZN2v88internal10RegExpTree17AsClassSetOperandEv
libnode.so.115:_ZN2v88internal10RegExpTree17IsClassSetOperandEv
libnode.so.115:_ZN2v88internal10RegExpTree20AsClassSetExpressionEv
libnode.so.115:_ZN2v88internal10RegExpTree20IsClassSetExpressionEv
libnode.so.115:_ZN2v88internal10RegExpTree5PrintERSoPNS0_4ZoneE
libnode.so.115:_ZN2v88internal10RegExpTree6AsAtomEv
libnode.so.115:_ZN2v88internal10RegExpTree6AsTextEv
libnode.so.115:_ZN2v88internal10RegExpTree6IsAtomEv
libnode.so.115:_ZN2v88internal10RegExpTree6IsTextEv
libnode.so.115:_ZN2v88internal10RegExpTree7AsEmptyEv
libnode.so.115:_ZN2v88internal10RegExpTree7AsGroupEv
libnode.so.115:_ZN2v88internal10RegExpTree7IsEmptyEv
libnode.so.115:_ZN2v88internal10RegExpTree7IsGroupEv
libnode.so.115:_ZN2v88internal10RegExpTree9AsCaptureEv
libnode.so.115:_ZN2v88internal10RegExpTree9IsCaptureEv
libnode.so.115:_ZN2v88internal10RootsTable11root_names_E
libnode.so.115:_ZN2v88internal10Serializer10PutSmiRootENS0_14FullObjectSlotE
libnode.so.115:_ZN2v88internal10Serializer13SerializeRootENS0_10HeapObjectE
libnode.so.115:_ZN2v88internal10Serializer14HotObjectsListC1EPNS0_4HeapE
libnode.so.115:_ZN2v88internal10Serializer14HotObjectsListC2EPNS0_4HeapE
libnode.so.115:_ZN2v88internal10Serializer14HotObjectsListD1Ev
libnode.so.115:_ZN2v88internal10Serializer14HotObjectsListD2Ev
libnode.so.115:_ZN2v88internal10Serializer14MustBeDeferredENS0_10HeapObjectE
libnode.so.115:_ZN2v88internal10Serializer15CountAllocationENS0_3MapEiNS0_13SnapshotSpaceE
libnode.so.115:_ZN2v88internal10Serializer15SerializeObjectENS0_6HandleINS0_10HeapObjectEEE
libnode.so.115:_ZN2v88internal10Serializer16ObjectSerializer13OutputRawDataEm
libnode.so.115:_ZN2v88internal10Serializer16ObjectSerializer13VisitPointersENS0_10HeapObjectENS0_14FullObjectSlotES4_
libnode.so.115:_ZN2v88internal10Serializer16ObjectSerializer13VisitPointersENS0_10HeapObjectENS0_19FullMaybeObjectSlotES4_
libnode.so.115:_ZN2v88internal10Serializer16ObjectSerializer15SerializeObjectEv
libnode.so.115:_ZN2v88internal10Serializer16ObjectSerializer15VisitCodeTargetEPNS0_9RelocInfoE
libnode.so.115:_ZN2v88internal10Serializer16ObjectSerializer16SerializeContentENS0_3MapEi
libnode.so.115:_ZN2v88internal10Serializer16ObjectSerializer16VisitCodePointerENS0_4CodeENS0_21OffHeapFullObjectSlotE
libnode.so.115:_ZN2v88internal10Serializer16ObjectSerializer17SerializeDeferredEv
libnode.so.115:_ZN2v88internal10Serializer16ObjectSerializer17SerializePrologueENS0_13SnapshotSpaceEiNS0_3MapE
libnode.so.115:_ZN2v88internal10Serializer16ObjectSerializer18VisitOffHeapTargetEPNS0_9RelocInfoE
libnode.so.115:_ZN2v88internal10Serializer16ObjectSerializer20VisitEmbeddedPointerEPNS0_9RelocInfoE
libnode.so.115:_ZN2v88internal10Serializer16ObjectSerializer20VisitExternalPointerENS0_10HeapObjectENS0_19ExternalPointerSlotENS0_18ExternalPointerTagE
libnode.so.115:_ZN2v88internal10Serializer16ObjectSerializer21SerializeBackingStoreEPviNS_5MaybeIiEE
libnode.so.115:_ZN2v88internal10Serializer16ObjectSerializer21SerializeJSTypedArrayEv
libnode.so.115:_ZN2v88internal10Serializer16ObjectSerializer22SerializeJSArrayBufferEv
libnode.so.115:_ZN2v88internal10Serializer16ObjectSerializer22VisitExternalReferenceEPNS0_9RelocInfoE
libnode.so.115:_ZN2v88internal10Serializer16ObjectSerializer22VisitInternalReferenceEPNS0_9RelocInfoE
libnode.so.115:_ZN2v88internal10Serializer16ObjectSerializer23OutputExternalReferenceEmibNS0_18ExternalPointerTagE
libnode.so.115:_ZN2v88internal10Serializer16ObjectSerializer23SerializeExternalStringEv
libnode.so.115:_ZN2v88internal10Serializer16ObjectSerializer26SerializeInstructionStreamENS0_3MapEi
libnode.so.115:_ZN2v88internal10Serializer16ObjectSerializer41SerializeExternalStringAsSequentialStringEv
libnode.so.115:_ZN2v88internal10Serializer16ObjectSerializer9SerializeEv
libnode.so.115:_ZN2v88internal10Serializer16OutputStatisticsEPKc
libnode.so.115:_ZN2v88internal10Serializer16PutBackReferenceENS0_10HeapObjectENS0_19SerializerReferenceE
libnode.so.115:_ZN2v88internal10Serializer17VisitRootPointersENS0_4RootEPKcNS0_14FullObjectSlotES5_
libnode.so.115:_ZN2v88internal10Serializer18SerializeHotObjectENS0_10HeapObjectE
libnode.so.115:_ZN2v88internal10Serializer19SerializeRootObjectENS0_14FullObjectSlotE
libnode.so.115:_ZN2v88internal10Serializer20PutAttachedReferenceENS0_19SerializerReferenceE
libnode.so.115:_ZN2v88internal10Serializer20ResolvePendingObjectENS0_10HeapObjectE
libnode.so.115:_ZN2v88internal10Serializer22SerializeBackReferenceENS0_10HeapObjectE
libnode.so.115:_ZN2v88internal10Serializer22SerializePendingObjectENS0_10HeapObjectE
libnode.so.115:_ZN2v88internal10Serializer23EncodeExternalReferenceEm
libnode.so.115:_ZN2v88internal10Serializer23RegisterObjectIsPendingENS0_10HeapObjectE
libnode.so.115:_ZN2v88internal10Serializer24InitializeCodeAddressMapEv
libnode.so.115:_ZN2v88internal10Serializer24SerializeDeferredObjectsEv
libnode.so.115:_ZN2v88internal10Serializer26PutPendingForwardReferenceERPSt6vectorIiSaIiEE
libnode.so.115:_ZN2v88internal10Serializer30ResolvePendingForwardReferenceEi
libnode.so.115:_ZN2v88internal10Serializer32SerializeReadOnlyObjectReferenceENS0_10HeapObjectEPNS0_16SnapshotByteSinkE
libnode.so.115:_ZN2v88internal10Serializer3PadEi
libnode.so.115:_ZN2v88internal10Serializer7PutRootENS0_9RootIndexE
libnode.so.115:_ZN2v88internal10Serializer8CopyCodeENS0_17InstructionStreamE
libnode.so.115:_ZN2v88internal10Serializer9PutRepeatEi
libnode.so.115:_ZN2v88internal10SerializerC2EPNS0_7IsolateENS_4base5FlagsINS0_8Snapshot14SerializerFlagEiEE
libnode.so.115:_ZN2v88internal10SetterNameEPNS0_7IsolateENS0_6HandleINS0_6StringEEE
libnode.so.115:_ZN2v88internal10SlowCopy_0EPNS0_8compiler18CodeAssemblerStateENS0_5TNodeINS0_7ContextEEENS4_INS0_12JSTypedArrayEEES8_NS4_INS0_8UintPtrTEEESA_
libnode.so.115:_ZN2v88internal10StackFrame32SetReturnAddressLocationResolverEPFmmE
libnode.so.115:_ZN2v88internal10StackFrame33return_address_location_resolver_E
libnode.so.115:_ZN2v88internal10StackGuard10InitThreadERKNS0_15ExecutionAccessE
libnode.so.115:_ZN2v88internal10StackGuard11ThreadLocal10InitializeEPNS0_7IsolateERKNS0_15ExecutionAccessE
libnode.so.115:_ZN2v88internal10StackGuard13SetStackLimitEm
libnode.so.115:_ZN2v88internal10StackGuard14CheckInterruptENS1_13InterruptFlagE
libnode.so.115:_ZN2v88internal10StackGuard14ClearInterruptENS1_13InterruptFlagE
libnode.so.115:_ZN2v88internal10StackGuard16EnableInterruptsEv
libnode.so.115:_ZN2v88internal10StackGuard16HandleInterruptsEv
libnode.so.115:_ZN2v88internal10StackGuard16RequestInterruptENS1_13InterruptFlagE
libnode.so.115:_ZN2v88internal10StackGuard17ArchiveStackGuardEPc
libnode.so.115:_ZN2v88internal10StackGuard17DisableInterruptsEv
libnode.so.115:_ZN2v88internal10StackGuard17RestoreStackGuardEPc
libnode.so.115:_ZN2v88internal10StackGuard18PopInterruptsScopeEv
libnode.so.115:_ZN2v88internal10StackGuard19FreeThreadResourcesEv
libnode.so.115:_ZN2v88internal10StackGuard19PushInterruptsScopeEPNS0_15InterruptsScopeE
libnode.so.115:_ZN2v88internal10StackGuard21HasTerminationRequestEv
libnode.so.115:_ZN2v88internal10StackGuard23FetchAndClearInterruptsEv
libnode.so.115:_ZN2v88internal10StackGuard28AdjustStackLimitForSimulatorEv
libnode.so.115:_ZN2v88internal10StatsTable18SetCounterFunctionEPFPiPKcE
libnode.so.115:_ZN2v88internal10StatsTableC1EPNS0_8CountersE
libnode.so.115:_ZN2v88internal10StatsTableC2EPNS0_8CountersE
libnode.so.115:_ZN2v88internal10Swap_Smi_0EPNS0_8compiler18CodeAssemblerStateENS0_27TorqueStructReference_Smi_0ES4_
libnode.so.115:_ZN2v88internal10Symbolizer19SymbolizeTickSampleERKNS0_10TickSampleE
libnode.so.115:_ZN2v88internal10Symbolizer9FindEntryEmPm
libnode.so.115:_ZN2v88internal10SymbolizerC1EPNS0_20InstructionStreamMapE
libnode.so.115:_ZN2v88internal10SymbolizerC2EPNS0_20InstructionStreamMapE
libnode.so.115:_ZN2v88internal10TenToThe_0EPNS0_8compiler18CodeAssemblerStateENS0_5TNodeINS0_7Uint32TEEE
libnode.so.115:_ZN2v88internal10TestCall_0EPNS0_8compiler18CodeAssemblerStateENS0_5TNodeINS0_3SmiEEEPNS1_18CodeAssemblerLabelE
libnode.so.115:_ZN2v88internal10TickSample14GetStackSampleEPNS0_7IsolateEPNS_13RegisterStateENS1_17RecordCEntryFrameEPPvmPNS_10SampleInfoEPNS_8StateTagEb
libnode.so.115:_ZN2v88internal10TickSample4InitEPNS0_7IsolateERKNS_13RegisterStateENS1_17RecordCEntryFrameEbbNS_4base9TimeDeltaE
libnode.so.115:_ZN2v88internal10TypedSlots11EnsureChunkEv
libnode.so.115:_ZN2v88internal10TypedSlots5MergeEPS1_
libnode.so.115:_ZN2v88internal10TypedSlots6InsertENS0_8SlotTypeEj
libnode.so.115:_ZN2v88internal10TypedSlots8NewChunkEPNS1_5ChunkEm
libnode.so.115:_ZN2v88internal10TypedSlotsD0Ev
libnode.so.115:_ZN2v88internal10TypedSlotsD1Ev
libnode.so.115:_ZN2v88internal10TypedSlotsD2Ev
libnode.so.115:_ZN2v88internal10UnaryOp1_0EPNS0_8compiler18CodeAssemblerStateENS0_5TNodeINS0_7ContextEEENS4_INS0_6ObjectEEEPNS1_18CodeAssemblerLabelEPNS1_26TypedCodeAssemblerVariableINS0_6UnionTINS0_3SmiENS0_10HeapNumberEEEEESA_PNSB_INS0_6BigIntEEE
libnode.so.115:_ZN2v88internal10UnaryOp2_0EPNS0_8compiler18CodeAssemblerStateENS0_5TNodeINS0_7ContextEEENS4_INS0_6ObjectEEEPNS1_18CodeAssemblerLabelEPNS1_26TypedCodeAssemblerVariableINS0_3SmiEEESA_PNSB_INS0_10HeapNumberEEESA_PNSB_INS0_6BigIntEEE
libnode.so.115:_ZN2v88internal10WasmScript13SetBreakPointENS0_6HandleINS0_6ScriptEEEPiNS2_INS0_10BreakPointEEE
libnode.so.115:_ZN2v88internal10WasmScript15ClearBreakPointENS0_6HandleINS0_6ScriptEEEiNS2_INS0_10BreakPointEEE
libnode.so.115:_ZN2v88internal10WasmScript16CheckBreakPointsEPNS0_7IsolateENS0_6HandleINS0_6ScriptEEEiNS0_12StackFrameIdE
libnode.so.115:_ZN2v88internal10WasmScript19AddBreakpointToInfoENS0_6HandleINS0_6ScriptEEEiNS2_INS0_10BreakPointEEE
libnode.so.115:_ZN2v88internal10WasmScript19ClearAllBreakpointsENS0_6ScriptE
libnode.so.115:_ZN2v88internal10WasmScript19ClearBreakPointByIdENS0_6HandleINS0_6ScriptEEEi
libnode.so.115:_ZN2v88internal10WasmScript22GetPossibleBreakpointsEPNS0_4wasm12NativeModuleERKNS_5debug8LocationES8_PSt6vectorINS5_13BreakLocationESaISA_EE
libnode.so.115:_ZN2v88internal10WasmScript24SetBreakPointForFunctionENS0_6HandleINS0_6ScriptEEEiiNS2_INS0_10BreakPointEEE
libnode.so.115:_ZN2v88internal10WasmScript28SetInstrumentationBreakpointENS0_6HandleINS0_6ScriptEEENS2_INS0_10BreakPointEEE
libnode.so.115:_ZN2v88internal10WasmScript40SetBreakPointOnFirstBreakableForFunctionENS0_6HandleINS0_6ScriptEEEiNS2_INS0_10BreakPointEEE
libnode.so.115:_ZN2v88internal10WasmStruct13GetFieldValueEj
libnode.so.115:_ZN2v88internal10WasmStruct15WasmStructPrintERSo
libnode.so.115:_ZN2v88internal10WriteBytesEPKcPKhib
libnode.so.115:_ZN2v88internal10WriteCharsEPKcS2_ib
libnode.so.115:_ZN2v88internal10hash_valueENS0_14BytecodeOffsetE
libnode.so.115:_ZN2v88internal10hash_valueENS0_16DeoptimizeReasonE
libnode.so.115:_ZN2v88internal10hash_valueENS0_17ExternalReferenceE
libnode.so.115:_ZN2v88internal10kSuccess_0EPNS0_8compiler18CodeAssemblerStateE
libnode.so.115:_ZN2v88internal110Cast_Undefined_OR_CallableApiObject_OR_CallableJSProxy_OR_JSFunction_OR_JSBoundFunction_OR_JSWrappedFunction_0EPNS0_8compiler18CodeAssemblerStateENS0_5TNodeINS0_10HeapObjectEEEPNS1_18CodeAssemblerLabelE
libnode.so.115:_ZN2v88internal110Cast_Undefined_OR_CallableApiObject_OR_CallableJSProxy_OR_JSFunction_OR_JSBoundFunction_OR_JSWrappedFunction_1EPNS0_8compiler18CodeAssemblerStateENS0_5TNodeINS0_7ContextEEENS4_INS0_6ObjectEEEPNS1_18CodeAssemblerLabelE
libnode.so.115:_ZN2v88internal110InitContextSlot_PromiseAllResolveElementContext_PromiseAllResolveElementContext_Smi_constexpr_IntegerLiteral_0EPNS0_8compiler18CodeAssemblerStateENS0_5TNodeINS0_7ContextEEENS4_INS0_7IntPtrTEEENS0_14IntegerLiteralE
libnode.so.115:_ZN2v88internal115InitContextSlot_PromiseAnyRejectElementContext_PromiseAnyRejectElementContext_PromiseCapability_PromiseCapability_0EPNS0_8compiler18CodeAssemblerStateENS0_5TNodeINS0_7ContextEEENS4_INS0_7IntPtrTEEENS4_INS0_17PromiseCapabilityEEE
libnode.so.115:_ZN2v88internal115Is_Undefined_OR_CallableApiObject_OR_CallableJSProxy_OR_JSFunction_OR_JSBoundFunction_OR_JSWrappedFunction_Object_0EPNS0_8compiler18CodeAssemblerStateENS0_5TNodeINS0_7ContextEEENS4_INS0_6ObjectEEE
libnode.so.115:_ZN2v88internal116UnsafeCast_Undefined_OR_CallableApiObject_OR_CallableJSProxy_OR_JSFunction_OR_JSBoundFunction_OR_JSWrappedFunction_0EPNS0_8compiler18CodeAssemblerStateENS0_5TNodeINS0_7ContextEEENS4_INS0_6ObjectEEE
libnode.so.115:_ZN2v88internal117Cast_JSReceiver_OR_Smi_OR_HeapNumber_OR_BigInt_OR_String_OR_Symbol_OR_True_OR_False_OR_Null_OR_Undefined_OR_TheHole_0EPNS0_8compiler18CodeAssemblerStateENS0_5TNodeINS0_6ObjectEEEPNS1_18CodeAssemblerLabelE
libnode.so.115:_ZN2v88internal117InitContextSlot_PromiseAllResolveElementContext_PromiseAllResolveElementContext_PromiseCapability_PromiseCapability_0EPNS0_8compiler18CodeAssemblerStateENS0_5TNodeINS0_7ContextEEENS4_INS0_7IntPtrTEEENS4_INS0_17PromiseCapabilityEEE
libnode.so.115:_ZN2v88internal118NewReference_Undefined_OR_CallableApiObject_OR_CallableJSProxy_OR_JSFunction_OR_JSBoundFunction_OR_JSWrappedFunction_0EPNS0_8compiler18CodeAssemblerStateENS0_5TNodeINS0_6ObjectEEENS4_INS0_7IntPtrTEEE
libnode.so.115:_ZN2v88internal11AlignedFreeEPv
libnode.so.115:_ZN2v88internal11AsmWasmData16AsmWasmDataPrintERSo
libnode.so.115:_ZN2v88internal11AsmWasmData3NewEPNS0_7IsolateESt10shared_ptrINS0_4wasm12NativeModuleEENS0_6HandleINS0_10HeapNumberEEE
libnode.so.115:_ZN2v88internal11BinaryOp1_0EPNS0_8compiler18CodeAssemblerStateENS0_5TNodeINS0_7ContextEEENS4_INS0_6ObjectEEES8_PNS1_18CodeAssemblerLabelEPNS1_26TypedCodeAssemblerVariableINS0_6UnionTINS0_3SmiENS0_10HeapNumberEEEEESH_SA_PNSB_INSC_ISF_NS0_6BigIntEEEEESL_
libnode.so.115:_ZN2v88internal11BinaryOp2_0EPNS0_8compiler18CodeAssemblerStateENS0_5TNodeINS0_7ContextEEENS4_INS0_6ObjectEEES8_PNS1_18CodeAssemblerLabelEPNS1_26TypedCodeAssemblerVariableINS0_3SmiEEESE_SA_PNSB_INS0_8Float64TEEESH_SA_PNSB_INS0_6UnionTINSI_ISC_NS0_10HeapNumberEEENS0_6BigIntEEEEESO_
libnode.so.115:_ZN2v88internal11CallPrinter10VisitAwaitEPNS0_5AwaitE
libnode.so.115:_ZN2v88internal11CallPrinter10VisitBlockEPNS0_5BlockE
libnode.so.115:_ZN2v88internal11CallPrinter10VisitThrowEPNS0_5ThrowE
libnode.so.115:_ZN2v88internal11CallPrinter10VisitYieldEPNS0_5YieldE
libnode.so.115:_ZN2v88internal11CallPrinter11VisitSpreadEPNS0_6SpreadE
libnode.so.115:_ZN2v88internal11CallPrinter12PrintLiteralENS0_6HandleINS0_6ObjectEEEb
libnode.so.115:_ZN2v88internal11CallPrinter12PrintLiteralEPKNS0_12AstRawStringEb
libnode.so.115:_ZN2v88internal11CallPrinter12VisitCallNewEPNS0_7CallNewE
libnode.so.115:_ZN2v88internal11CallPrinter12VisitLiteralEPNS0_7LiteralE
libnode.so.115:_ZN2v88internal11CallPrinter13FindArgumentsEPKNS0_8ZoneListIPNS0_10ExpressionEEE
libnode.so.115:_ZN2v88internal11CallPrinter13VisitPropertyEPNS0_8PropertyE
libnode.so.115:_ZN2v88internal11CallPrinter14FindStatementsEPKNS0_8ZoneListIPNS0_9StatementEEE
libnode.so.115:_ZN2v88internal11CallPrinter14VisitYieldStarEPNS0_9YieldStarE
libnode.so.115:_ZN2v88internal11CallPrinter15VisitAssignmentEPNS0_10AssignmentE
libnode.so.115:_ZN2v88internal11CallPrinter16VisitCallRuntimeEPNS0_11CallRuntimeE
libnode.so.115:_ZN2v88internal11CallPrinter16VisitConditionalEPNS0_11ConditionalE
libnode.so.115:_ZN2v88internal11CallPrinter16VisitIfStatementEPNS0_11IfStatementE
libnode.so.115:_ZN2v88internal11CallPrinter17VisitArrayLiteralEPNS0_12ArrayLiteralE
libnode.so.115:_ZN2v88internal11CallPrinter17VisitClassLiteralEPNS0_12ClassLiteralE
libnode.so.115:_ZN2v88internal11CallPrinter17VisitForStatementEPNS0_12ForStatementE
libnode.so.115:_ZN2v88internal11CallPrinter18VisitNaryOperationEPNS0_13NaryOperationE
libnode.so.115:_ZN2v88internal11CallPrinter18VisitObjectLiteralEPNS0_13ObjectLiteralE
libnode.so.115:_ZN2v88internal11CallPrinter18VisitOptionalChainEPNS0_13OptionalChainE
libnode.so.115:_ZN2v88internal11CallPrinter18VisitRegExpLiteralEPNS0_13RegExpLiteralE
libnode.so.115:_ZN2v88internal11CallPrinter18VisitVariableProxyEPNS0_13VariableProxyE
libnode.so.115:_ZN2v88internal11CallPrinter18VisitWithStatementEPNS0_13WithStatementE
libnode.so.115:_ZN2v88internal11CallPrinter19VisitBreakStatementEPNS0_14BreakStatementE
libnode.so.115:_ZN2v88internal11CallPrinter19VisitCountOperationEPNS0_14CountOperationE
libnode.so.115:_ZN2v88internal11CallPrinter19VisitEmptyStatementEPNS0_14EmptyStatementE
libnode.so.115:_ZN2v88internal11CallPrinter19VisitForInStatementEPNS0_14ForInStatementE
libnode.so.115:_ZN2v88internal11CallPrinter19VisitForOfStatementEPNS0_14ForOfStatementE
libnode.so.115:_ZN2v88internal11CallPrinter19VisitThisExpressionEPNS0_14ThisExpressionE
libnode.so.115:_ZN2v88internal11CallPrinter19VisitUnaryOperationEPNS0_14UnaryOperationE
libnode.so.115:_ZN2v88internal11CallPrinter19VisitWhileStatementEPNS0_14WhileStatementE
libnode.so.115:_ZN2v88internal11CallPrinter20VisitBinaryOperationEPNS0_15BinaryOperationE
libnode.so.115:_ZN2v88internal11CallPrinter20VisitFunctionLiteralEPNS0_15FunctionLiteralE
libnode.so.115:_ZN2v88internal11CallPrinter20VisitReturnStatementEPNS0_15ReturnStatementE
libnode.so.115:_ZN2v88internal11CallPrinter20VisitSwitchStatementEPNS0_15SwitchStatementE
libnode.so.115:_ZN2v88internal11CallPrinter20VisitTemplateLiteralEPNS0_15TemplateLiteralE
libnode.so.115:_ZN2v88internal11CallPrinter21VisitCompareOperationEPNS0_16CompareOperationE
libnode.so.115:_ZN2v88internal11CallPrinter21VisitDoWhileStatementEPNS0_16DoWhileStatementE
libnode.so.115:_ZN2v88internal11CallPrinter21VisitEmptyParenthesesEPNS0_16EmptyParenthesesE
libnode.so.115:_ZN2v88internal11CallPrinter22VisitContinueStatementEPNS0_17ContinueStatementE
libnode.so.115:_ZN2v88internal11CallPrinter22VisitDebuggerStatementEPNS0_17DebuggerStatementE
libnode.so.115:_ZN2v88internal11CallPrinter22VisitGetTemplateObjectEPNS0_17GetTemplateObjectE
libnode.so.115:_ZN2v88internal11CallPrinter22VisitTryCatchStatementEPNS0_17TryCatchStatementE
libnode.so.115:_ZN2v88internal11CallPrinter23VisitCompoundAssignmentEPNS0_18CompoundAssignmentE
libnode.so.115:_ZN2v88internal11CallPrinter23VisitSuperCallReferenceEPNS0_18SuperCallReferenceE
libnode.so.115:_ZN2v88internal11CallPrinter24VisitExpressionStatementEPNS0_19ExpressionStatementE
libnode.so.115:_ZN2v88internal11CallPrinter24VisitFunctionDeclarationEPNS0_19FunctionDeclarationE
libnode.so.115:_ZN2v88internal11CallPrinter24VisitTryFinallyStatementEPNS0_19TryFinallyStatementE
libnode.so.115:_ZN2v88internal11CallPrinter24VisitVariableDeclarationEPNS0_19VariableDeclarationE
libnode.so.115:_ZN2v88internal11CallPrinter25VisitImportCallExpressionEPNS0_20ImportCallExpressionE
libnode.so.115:_ZN2v88internal11CallPrinter26VisitNativeFunctionLiteralEPNS0_21NativeFunctionLiteralE
libnode.so.115:_ZN2v88internal11CallPrinter27VisitSuperPropertyReferenceEPNS0_22SuperPropertyReferenceE
libnode.so.115:_ZN2v88internal11CallPrinter33VisitSloppyBlockFunctionStatementEPNS0_28SloppyBlockFunctionStatementE
libnode.so.115:_ZN2v88internal11CallPrinter36VisitInitializeClassMembersStatementEPNS0_31InitializeClassMembersStatementE
libnode.so.115:_ZN2v88internal11CallPrinter43VisitInitializeClassStaticElementsStatementEPNS0_38InitializeClassStaticElementsStatementE
libnode.so.115:_ZN2v88internal11CallPrinter4FindEPNS0_7AstNodeEb
libnode.so.115:_ZN2v88internal11CallPrinter5PrintENS0_6HandleINS0_6StringEEE
libnode.so.115:_ZN2v88internal11CallPrinter5PrintEPKc
libnode.so.115:_ZN2v88internal11CallPrinter5PrintEPNS0_15FunctionLiteralEi
libnode.so.115:_ZN2v88internal11CallPrinter5PrintEc
libnode.so.115:_ZN2v88internal11CallPrinter9VisitCallEPNS0_4CallE
libnode.so.115:_ZN2v88internal11CallPrinterC1EPNS0_7IsolateEbNS1_21SpreadErrorInArgsHintE
libnode.so.115:_ZN2v88internal11CallPrinterC2EPNS0_7IsolateEbNS1_21SpreadErrorInArgsHintE
libnode.so.115:_ZN2v88internal11CallPrinterD1Ev
libnode.so.115:_ZN2v88internal11CallPrinterD2Ev
libnode.so.115:_ZN2v88internal11CallRuntime10debug_nameEv
libnode.so.115:_ZN2v88internal11Cast_Cell_0EPNS0_8compiler18CodeAssemblerStateENS0_5TNodeINS0_10HeapObjectEEEPNS1_18CodeAssemblerLabelE
libnode.so.115:_ZN2v88internal11Cast_Code_0EPNS0_8compiler18CodeAssemblerStateENS0_5TNodeINS0_10HeapObjectEEEPNS1_18CodeAssemblerLabelE
libnode.so.115:_ZN2v88internal11Cast_Name_0EPNS0_8compiler18CodeAssemblerStateENS0_5TNodeINS0_10HeapObjectEEEPNS1_18CodeAssemblerLabelE
libnode.so.115:_ZN2v88internal11Cast_Name_1EPNS0_8compiler18CodeAssemblerStateENS0_5TNodeINS0_7ContextEEENS4_INS0_6ObjectEEEPNS1_18CodeAssemblerLabelE
libnode.so.115:_ZN2v88internal11Cast_Null_0EPNS0_8compiler18CodeAssemblerStateENS0_5TNodeINS0_10HeapObjectEEEPNS1_18CodeAssemblerLabelE
libnode.so.115:_ZN2v88internal11Cast_Null_1EPNS0_8compiler18CodeAssemblerStateENS0_5TNodeINS0_7ContextEEENS4_INS0_6ObjectEEEPNS1_18CodeAssemblerLabelE
libnode.so.115:_ZN2v88internal11Cast_True_0EPNS0_8compiler18CodeAssemblerStateENS0_5TNodeINS0_6ObjectEEEPNS1_18CodeAssemblerLabelE
libnode.so.115:_ZN2v88internal11Cast_True_1EPNS0_8compiler18CodeAssemblerStateENS0_5TNodeINS0_10HeapObjectEEEPNS1_18CodeAssemblerLabelE
libnode.so.115:_ZN2v88internal11Cast_Zero_0EPNS0_8compiler18CodeAssemblerStateENS0_5TNodeINS0_6ObjectEEEPNS1_18CodeAssemblerLabelE
libnode.so.115:_ZN2v88internal11CodeFactory11CallVarargsEPNS0_7IsolateE
libnode.so.115:_ZN2v88internal11CodeFactory12CallFunctionEPNS0_7IsolateENS0_19ConvertReceiverModeE
libnode.so.115:_ZN2v88internal11CodeFactory12LoadGlobalICEPNS0_7IsolateENS0_10TypeofModeE
libnode.so.115:_ZN2v88internal11CodeFactory13RuntimeCEntryEPNS0_7IsolateEi
libnode.so.115:_ZN2v88internal11CodeFactory14CallWithSpreadEPNS0_7IsolateE
libnode.so.115:_ZN2v88internal11CodeFactory15CallApiCallbackEPNS0_7IsolateE
libnode.so.115:_ZN2v88internal11CodeFactory15ResumeGeneratorEPNS0_7IsolateE
libnode.so.115:_ZN2v88internal11CodeFactory16ConstructVarargsEPNS0_7IsolateE
libnode.so.115:_ZN2v88internal11CodeFactory16DefineNamedOwnICEPNS0_7IsolateE
libnode.so.115:_ZN2v88internal11CodeFactory17CallWithArrayLikeEPNS0_7IsolateE
libnode.so.115:_ZN2v88internal11CodeFactory17Call_WithFeedbackEPNS0_7IsolateENS0_19ConvertReceiverModeE
libnode.so.115:_ZN2v88internal11CodeFactory17ConstructFunctionEPNS0_7IsolateE
libnode.so.115:_ZN2v88internal11CodeFactory17InterpreterCEntryEPNS0_7IsolateEi
libnode.so.115:_ZN2v88internal11CodeFactory18CallForwardVarargsEPNS0_7IsolateE
libnode.so.115:_ZN2v88internal11CodeFactory19ConstructWithSpreadEPNS0_7IsolateE
libnode.so.115:_ZN2v88internal11CodeFactory19OrdinaryToPrimitiveEPNS0_7IsolateENS0_23OrdinaryToPrimitiveHintE
libnode.so.115:_ZN2v88internal11CodeFactory22FastNewFunctionContextEPNS0_7IsolateENS0_9ScopeTypeE
libnode.so.115:_ZN2v88internal11CodeFactory23ConstructForwardVarargsEPNS0_7IsolateE
libnode.so.115:_ZN2v88internal11CodeFactory23NonPrimitiveToPrimitiveEPNS0_7IsolateENS0_15ToPrimitiveHintE
libnode.so.115:_ZN2v88internal11CodeFactory26ArrayNoArgumentConstructorEPNS0_7IsolateENS0_12ElementsKindENS0_26AllocationSiteOverrideModeE
libnode.so.115:_ZN2v88internal11CodeFactory26CallFunctionForwardVarargsEPNS0_7IsolateE
libnode.so.115:_ZN2v88internal11CodeFactory27InterpreterPushArgsThenCallEPNS0_7IsolateENS0_19ConvertReceiverModeENS0_23InterpreterPushArgsModeE
libnode.so.115:_ZN2v88internal11CodeFactory27LoadGlobalICInOptimizedCodeEPNS0_7IsolateENS0_10TypeofModeE
libnode.so.115:_ZN2v88internal11CodeFactory29InterpreterOnStackReplacementEPNS0_7IsolateE
libnode.so.115:_ZN2v88internal11CodeFactory30ArraySingleArgumentConstructorEPNS0_7IsolateENS0_12ElementsKindENS0_26AllocationSiteOverrideModeE
libnode.so.115:_ZN2v88internal11CodeFactory31ConstructFunctionForwardVarargsEPNS0_7IsolateE
libnode.so.115:_ZN2v88internal11CodeFactory31DefineNamedOwnICInOptimizedCodeEPNS0_7IsolateE
libnode.so.115:_ZN2v88internal11CodeFactory32InterpreterPushArgsThenConstructEPNS0_7IsolateENS0_23InterpreterPushArgsModeE
libnode.so.115:_ZN2v88internal11CodeFactory40InterpreterOnStackReplacement_ToBaselineEPNS0_7IsolateE
libnode.so.115:_ZN2v88internal11CodeFactory4CallEPNS0_7IsolateENS0_19ConvertReceiverModeE
libnode.so.115:_ZN2v88internal11CodeFactory6CEntryEPNS0_7IsolateEiNS0_8ArgvModeEb
libnode.so.115:_ZN2v88internal11CodeFactory9ApiGetterEPNS0_7IsolateE
libnode.so.115:_ZN2v88internal11CodeFactory9ConstructEPNS0_7IsolateE
libnode.so.115:_ZN2v88internal11CodeFactory9StringAddEPNS0_7IsolateENS0_14StringAddFlagsE
libnode.so.115:_ZN2v88internal11CpuFeatures10supported_E
libnode.so.115:_ZN2v88internal11CpuFeatures11FlushICacheEPvm
libnode.so.115:_ZN2v88internal11CpuFeatures11PrintTargetEv
libnode.so.115:_ZN2v88internal11CpuFeatures12initialized_E
libnode.so.115:_ZN2v88internal11CpuFeatures13PrintFeaturesEv
libnode.so.115:_ZN2v88internal11CpuFeatures15supports_cetss_E
libnode.so.115:_ZN2v88internal11CpuFeatures17dcache_line_size_E
libnode.so.115:_ZN2v88internal11CpuFeatures17icache_line_size_E
libnode.so.115:_ZN2v88internal11CpuFeatures19SupportsWasmSimd128Ev
libnode.so.115:_ZN2v88internal11CpuFeatures23supports_wasm_simd_128_E
libnode.so.115:_ZN2v88internal11CpuFeatures9ProbeImplEb
libnode.so.115:_ZN2v88internal11CpuProfiler10GetProfileEi
libnode.so.115:_ZN2v88internal11CpuProfiler13CollectSampleEPNS0_7IsolateE
libnode.so.115:_ZN2v88internal11CpuProfiler13CollectSampleEv
libnode.so.115:_ZN2v88internal11CpuProfiler13DeleteProfileEPNS0_10CpuProfileE
libnode.so.115:_ZN2v88internal11CpuProfiler13EnableLoggingEv
libnode.so.115:_ZN2v88internal11CpuProfiler13ResetProfilesEv
libnode.so.115:_ZN2v88internal11CpuProfiler13StopProcessorEv
libnode.so.115:_ZN2v88internal11CpuProfiler13StopProfilingENS0_6StringE
libnode.so.115:_ZN2v88internal11CpuProfiler13StopProfilingEPKc
libnode.so.115:_ZN2v88internal11CpuProfiler13StopProfilingEj
libnode.so.115:_ZN2v88internal11CpuProfiler14DisableLoggingEv
libnode.so.115:_ZN2v88internal11CpuProfiler14StartProfilingENS0_6StringENS_19CpuProfilingOptionsESt10unique_ptrINS_24DiscardedSamplesDelegateESt14default_deleteIS5_EE
libnode.so.115:_ZN2v88internal11CpuProfiler14StartProfilingENS_19CpuProfilingOptionsESt10unique_ptrINS_24DiscardedSamplesDelegateESt14default_deleteIS4_EE
libnode.so.115:_ZN2v88internal11CpuProfiler14StartProfilingEPKcNS_19CpuProfilingOptionsESt10unique_ptrINS_24DiscardedSamplesDelegateESt14default_deleteIS6_EE
libnode.so.115:_ZN2v88internal11CpuProfiler16GetProfilesCountEv
libnode.so.115:_ZN2v88internal11CpuProfiler17DeleteAllProfilesEv
libnode.so.115:_ZN2v88internal11CpuProfiler21set_sampling_intervalENS_4base9TimeDeltaE
libnode.so.115:_ZN2v88internal11CpuProfiler22AdjustSamplingIntervalEv
libnode.so.115:_ZN2v88internal11CpuProfiler23ComputeSamplingIntervalEv
libnode.so.115:_ZN2v88internal11CpuProfiler24set_use_precise_samplingEb
libnode.so.115:_ZN2v88internal11CpuProfiler25GetAllProfilersMemorySizeEPNS0_7IsolateE
libnode.so.115:_ZN2v88internal11CpuProfiler26StartProcessorIfNotStartedEv
libnode.so.115:_ZN2v88internal11CpuProfilerC1EPNS0_7IsolateENS_22CpuProfilingNamingModeENS_23CpuProfilingLoggingModeE
libnode.so.115:_ZN2v88internal11CpuProfilerC1EPNS0_7IsolateENS_22CpuProfilingNamingModeENS_23CpuProfilingLoggingModeEPNS0_21CpuProfilesCollectionEPNS0_10SymbolizerEPNS0_23ProfilerEventsProcessorEPNS0_20ProfilerCodeObserverE
libnode.so.115:_ZN2v88internal11CpuProfilerC2EPNS0_7IsolateENS_22CpuProfilingNamingModeENS_23CpuProfilingLoggingModeE
libnode.so.115:_ZN2v88internal11CpuProfilerC2EPNS0_7IsolateENS_22CpuProfilingNamingModeENS_23CpuProfilingLoggingModeEPNS0_21CpuProfilesCollectionEPNS0_10SymbolizerEPNS0_23ProfilerEventsProcessorEPNS0_20ProfilerCodeObserverE
libnode.so.115:_ZN2v88internal11CpuProfilerD1Ev
libnode.so.115:_ZN2v88internal11CpuProfilerD2Ev
libnode.so.115:_ZN2v88internal11Deoptimizer10MessageForENS0_14DeoptimizeKindE
libnode.so.115:_ZN2v88internal11Deoptimizer12GetDeoptInfoENS0_4CodeEm
libnode.so.115:_ZN2v88internal11Deoptimizer13DeoptimizeAllEPNS0_7IsolateE
libnode.so.115:_ZN2v88internal11Deoptimizer13TraceDeoptAllEPNS0_7IsolateE
libnode.so.115:_ZN2v88internal11Deoptimizer13TraceDeoptEndEd
libnode.so.115:_ZN2v88internal11Deoptimizer15TraceDeoptBeginEiNS0_14BytecodeOffsetE
libnode.so.115:_ZN2v88internal11Deoptimizer18DeoptimizeFunctionENS0_10JSFunctionENS0_4CodeE
libnode.so.115:_ZN2v88internal11Deoptimizer18kLazyDeoptExitSizeE
libnode.so.115:_ZN2v88internal11Deoptimizer19ComputeOutputFramesEPS1_
libnode.so.115:_ZN2v88internal11Deoptimizer19kEagerDeoptExitSizeE
libnode.so.115:_ZN2v88internal11Deoptimizer20DeoptimizeMarkedCodeEPNS0_7IsolateE
libnode.so.115:_ZN2v88internal11Deoptimizer21DoComputeOutputFramesEv
libnode.so.115:_ZN2v88internal11Deoptimizer22GetDeoptimizationEntryENS0_14DeoptimizeKindE
libnode.so.115:_ZN2v88internal11Deoptimizer22MaterializeHeapObjectsEv
libnode.so.115:_ZN2v88internal11Deoptimizer23DeleteFrameDescriptionsEv
libnode.so.115:_ZN2v88internal11Deoptimizer24DebuggerInspectableFrameEPNS0_15JavaScriptFrameEiPNS0_7IsolateE
libnode.so.115:_ZN2v88internal11Deoptimizer25DoComputeUnoptimizedFrameEPNS0_15TranslatedFrameEib
libnode.so.115:_ZN2v88internal11Deoptimizer26TraceMarkForDeoptimizationEPNS0_7IsolateENS0_4CodeEPKc
libnode.so.115:_ZN2v88internal11Deoptimizer27ComputeIncomingArgumentSizeENS0_18SharedFunctionInfoE
libnode.so.115:_ZN2v88internal11Deoptimizer27DoComputeConstructStubFrameEPNS0_15TranslatedFrameEi
libnode.so.115:_ZN2v88internal11Deoptimizer28DoComputeBuiltinContinuationEPNS0_15TranslatedFrameEiNS0_23BuiltinContinuationModeE
libnode.so.115:_ZN2v88internal11Deoptimizer28QueueValueForMaterializationEmNS0_6ObjectERKNS0_15TranslatedFrame8iteratorE
libnode.so.115:_ZN2v88internal11Deoptimizer30DoComputeInlinedExtraArgumentsEPNS0_15TranslatedFrameEi
libnode.so.115:_ZN2v88internal11Deoptimizer32TraceEvictFromOptimizedCodeCacheEPNS0_7IsolateENS0_18SharedFunctionInfoEPKc
libnode.so.115:_ZN2v88internal11Deoptimizer32TrampolineForBuiltinContinuationENS0_23BuiltinContinuationModeEb
libnode.so.115:_ZN2v88internal11Deoptimizer32TranslatedValueForWasmReturnKindENS_4base8OptionalINS0_4wasm9ValueKindEEE
libnode.so.115:_ZN2v88internal11Deoptimizer38DeoptimizeAllOptimizedCodeWithFunctionEPNS0_7IsolateENS0_6HandleINS0_18SharedFunctionInfoEEE
libnode.so.115:_ZN2v88internal11Deoptimizer3NewEmNS0_14DeoptimizeKindEmiPNS0_7IsolateE
libnode.so.115:_ZN2v88internal11Deoptimizer4GrabEPNS0_7IsolateE
libnode.so.115:_ZN2v88internal11DeoptimizerC1EPNS0_7IsolateENS0_10JSFunctionENS0_14DeoptimizeKindEmi
libnode.so.115:_ZN2v88internal11DeoptimizerC2EPNS0_7IsolateENS0_10JSFunctionENS0_14DeoptimizeKindEmi
libnode.so.115:_ZN2v88internal11DeoptimizerD1Ev
libnode.so.115:_ZN2v88internal11DeoptimizerD2Ev
libnode.so.115:_ZN2v88internal11GCExtension25GetNativeFunctionTemplateEPNS_7IsolateENS_5LocalINS_6StringEEE
libnode.so.115:_ZN2v88internal11GCExtension2GCERKNS_20FunctionCallbackInfoINS_5ValueEEE
libnode.so.115:_ZN2v88internal11GetMethod_0EPNS0_8compiler18CodeAssemblerStateENS0_5TNodeINS0_7ContextEEENS4_INS0_6ObjectEEENS4_INS0_4NameEEEPNS1_18CodeAssemblerLabelESC_PNS1_26TypedCodeAssemblerVariableIS7_EE
libnode.so.115:_ZN2v88internal11GetMethod_1EPNS0_8compiler18CodeAssemblerStateENS0_5TNodeINS0_7ContextEEENS4_INS0_6ObjectEEENS4_INS0_6StringEEEPNS1_18CodeAssemblerLabelE
libnode.so.115:_ZN2v88internal11GetMethod_2EPNS0_8compiler18CodeAssemblerStateENS0_5TNodeINS0_7ContextEEENS4_INS0_6ObjectEEEPKcPNS1_18CodeAssemblerLabelE
libnode.so.115:_ZN2v88internal11GetMethod_3EPNS0_8compiler18CodeAssemblerStateENS0_5TNodeINS0_7ContextEEENS4_INS0_6ObjectEEENS4_INS0_6SymbolEEEPNS1_18CodeAssemblerLabelE
libnode.so.115:_ZN2v88internal11GetRWDigitsENS0_13MutableBigIntE
libnode.so.115:_ZN2v88internal11GetRWDigitsENS0_6HandleINS0_13MutableBigIntEEE
libnode.so.115:_ZN2v88internal11HandleScope15NumberOfHandlesEPNS0_7IsolateE
libnode.so.115:_ZN2v88internal11HandleScope16DeleteExtensionsEPNS0_7IsolateE
libnode.so.115:_ZN2v88internal11HandleScope20current_next_addressEPNS0_7IsolateE
libnode.so.115:_ZN2v88internal11HandleScope21current_level_addressEPNS0_7IsolateE
libnode.so.115:_ZN2v88internal11HandleScope21current_limit_addressEPNS0_7IsolateE
libnode.so.115:_ZN2v88internal11HandleScope6ExtendEPNS0_7IsolateE
libnode.so.115:_ZN2v88internal11InstallFuncEPNS0_7IsolateENS0_6HandleINS0_8JSObjectEEEPKcPFvRKNS_20FunctionCallbackInfoINS_5ValueEEEEibNS0_18PropertyAttributesENS_14SideEffectTypeE
libnode.so.115:_ZN2v88internal11IsContext_0EPNS0_8compiler18CodeAssemblerStateENS0_5TNodeINS0_10HeapObjectEEE
libnode.so.115:_ZN2v88internal11JSSegmenter15ResolvedOptionsEPNS0_7IsolateENS0_6HandleIS1_EE
libnode.so.115:_ZN2v88internal11JSSegmenter16JSSegmenterPrintERSo
libnode.so.115:_ZN2v88internal11JSSegmenter19GetAvailableLocalesB5cxx11Ev
libnode.so.115:_ZN2v88internal11JSSegmenter20GetGranularityStringEPNS0_7IsolateENS1_11GranularityE
libnode.so.115:_ZN2v88internal11JSSegmenter3NewEPNS0_7IsolateENS0_6HandleINS0_3MapEEENS4_INS0_6ObjectEEES8_
libnode.so.115:_ZN2v88internal11KeyedLoadIC11RuntimeLoadENS0_6HandleINS0_6ObjectEEES4_
libnode.so.115:_ZN2v88internal11KeyedLoadIC17UpdateLoadElementENS0_6HandleINS0_10HeapObjectEEENS0_19KeyedAccessLoadModeE
libnode.so.115:_ZN2v88internal11KeyedLoadIC18LoadElementHandlerENS0_6HandleINS0_3MapEEENS0_19KeyedAccessLoadModeE
libnode.so.115:_ZN2v88internal11KeyedLoadIC27CanChangeToAllowOutOfBoundsENS0_6HandleINS0_3MapEEE
libnode.so.115:_ZN2v88internal11KeyedLoadIC30LoadElementPolymorphicHandlersEPSt6vectorINS0_6HandleINS0_3MapEEESaIS5_EEPS2_INS0_17MaybeObjectHandleESaIS9_EENS0_19KeyedAccessLoadModeE
libnode.so.115:_ZN2v88internal11KeyedLoadIC4LoadENS0_6HandleINS0_6ObjectEEES4_
libnode.so.115:_ZN2v88internal11LoadHandler12PrintHandlerENS0_6ObjectERSo
libnode.so.115:_ZN2v88internal11LoadHandler13LoadFullChainEPNS0_7IsolateENS0_6HandleINS0_3MapEEERKNS0_17MaybeObjectHandleENS4_INS0_3SmiEEE
libnode.so.115:_ZN2v88internal11LoadHandler16LoadHandlerPrintERSo
libnode.so.115:_ZN2v88internal11LoadHandler17LoadFromPrototypeEPNS0_7IsolateENS0_6HandleINS0_3MapEEENS4_INS0_10JSReceiverEEENS4_INS0_3SmiEEENS0_17MaybeObjectHandleESB_
libnode.so.115:_ZN2v88internal11LoadHandler22GetKeyedAccessLoadModeENS0_11MaybeObjectE
libnode.so.115:_ZN2v88internal11LoadHandler29CanHandleHolderNotLookupStartENS0_6ObjectE
libnode.so.115:_ZN2v88internal11LocalLogger10MapDetailsENS0_3MapE
libnode.so.115:_ZN2v88internal11LocalLogger11ScriptEventENS0_15ScriptEventTypeEi
libnode.so.115:_ZN2v88internal11LocalLogger13ScriptDetailsENS0_6ScriptE
libnode.so.115:_ZN2v88internal11LocalLogger26CodeLinePosInfoRecordEventEmNS0_9ByteArrayENS_12JitCodeEvent8CodeTypeE
libnode.so.115:_ZN2v88internal11LocalLogger9MapCreateENS0_3MapE
libnode.so.115:_ZN2v88internal11LocalLoggerC1EPNS0_7IsolateE
libnode.so.115:_ZN2v88internal11LocalLoggerC2EPNS0_7IsolateE
libnode.so.115:_ZN2v88internal11MaglevFrame19StackGuardFrameSizeEi
libnode.so.115:_ZN2v88internal11MemoryChunk11SetReadableEv
libnode.so.115:_ZN2v88internal11MemoryChunk14ReleaseSlotSetEPPNS0_7SlotSetE
libnode.so.115:_ZN2v88internal11MemoryChunk15AllocateSlotSetEPPNS0_7SlotSetE
libnode.so.115:_ZN2v88internal11MemoryChunk15FreeListsLengthEv
libnode.so.115:_ZN2v88internal11MemoryChunk19DiscardUnusedMemoryEmm
libnode.so.115:_ZN2v88internal11MemoryChunk20SetReadAndExecutableEv
libnode.so.115:_ZN2v88internal11MemoryChunk25InitializationMemoryFenceEv
libnode.so.115:_ZN2v88internal11MemoryChunk25ReleaseAllAllocatedMemoryEv
libnode.so.115:_ZN2v88internal11MemoryChunk25SetDefaultCodePermissionsEv
libnode.so.115:_ZN2v88internal11MemoryChunk25SetOldGenerationPageFlagsEb
libnode.so.115:_ZN2v88internal11MemoryChunk27SetYoungGenerationPageFlagsEb
libnode.so.115:_ZN2v88internal11MemoryChunk30SetCodeModificationPermissionsEv
libnode.so.115:_ZN2v88internal11MemoryChunk44ReleaseAllocatedMemoryNeededForWritableChunkEv
libnode.so.115:_ZN2v88internal11MemoryChunk52DecrementWriteUnprotectCounterAndMaybeSetPermissionsENS_13PageAllocator10PermissionE
libnode.so.115:_ZN2v88internal11MemoryChunkC1EPNS0_4HeapEPNS0_9BaseSpaceEmmmNS0_13VirtualMemoryENS0_13ExecutabilityENS0_8PageSizeE
libnode.so.115:_ZN2v88internal11MemoryChunkC2EPNS0_4HeapEPNS0_9BaseSpaceEmmmNS0_13VirtualMemoryENS0_13ExecutabilityENS0_8PageSizeE
libnode.so.115:_ZN2v88internal11MergeHigh_0EPNS0_8compiler18CodeAssemblerStateENS0_5TNodeINS0_7ContextEEENS4_INS0_9SortStateEEENS4_INS0_3SmiEEESA_SA_SA_
libnode.so.115:_ZN2v88internal11ModuleScope23AllocateModuleVariablesEv
libnode.so.115:_ZN2v88internal11ModuleScopeC1ENS0_6HandleINS0_9ScopeInfoEEEPNS0_15AstValueFactoryE
libnode.so.115:_ZN2v88internal11ModuleScopeC1EPNS0_16DeclarationScopeEPNS0_15AstValueFactoryE
libnode.so.115:_ZN2v88internal11ModuleScopeC2ENS0_6HandleINS0_9ScopeInfoEEEPNS0_15AstValueFactoryE
libnode.so.115:_ZN2v88internal11ModuleScopeC2EPNS0_16DeclarationScopeEPNS0_15AstValueFactoryE
libnode.so.115:_ZN2v88internal11NewBuffer_0EPNS0_8compiler18CodeAssemblerStateENS0_5TNodeINS0_8UintPtrTEEENS4_INS0_6StringEEE
libnode.so.115:_ZN2v88internal11NewVector_0EPNS0_8compiler18CodeAssemblerStateENS0_5TNodeINS0_7ContextEEENS4_INS0_3SmiEEE
libnode.so.115:_ZN2v88internal11NoExtensionERKNS_20FunctionCallbackInfoINS_5ValueEEE
libnode.so.115:_ZN2v88internal11ObjectStats13PrintKeyAndIdEPKci
libnode.so.115:_ZN2v88internal11ObjectStats16ClearObjectStatsEb
libnode.so.115:_ZN2v88internal11ObjectStats17RecordObjectStatsENS0_12InstanceTypeEmm
libnode.so.115:_ZN2v88internal11ObjectStats20DumpInstanceTypeDataERNSt7__cxx1118basic_stringstreamIcSt11char_traitsIcESaIcEEEPKci
libnode.so.115:_ZN2v88internal11ObjectStats21CheckpointObjectStatsEv
libnode.so.115:_ZN2v88internal11ObjectStats21PrintInstanceTypeJSONEPKciS3_i
libnode.so.115:_ZN2v88internal11ObjectStats22HistogramIndexFromSizeEm
libnode.so.115:_ZN2v88internal11ObjectStats24RecordVirtualObjectStatsENS1_19VirtualInstanceTypeEmm
libnode.so.115:_ZN2v88internal11ObjectStats4DumpERNSt7__cxx1118basic_stringstreamIcSt11char_traitsIcESaIcEEE
libnode.so.115:_ZN2v88internal11ObjectStats7isolateEv
libnode.so.115:_ZN2v88internal11ObjectStats9PrintJSONEPKc
libnode.so.115:_ZN2v88internal11ProfileNode14FindOrAddChildEPNS0_9CodeEntryEi
libnode.so.115:_ZN2v88internal11ProfileNode16CollectDeoptInfoEPNS0_9CodeEntryE
libnode.so.115:_ZN2v88internal11ProfileNode18IncrementLineTicksEi
libnode.so.115:_ZN2v88internal11ProfileNode9FindChildEPNS0_9CodeEntryEi
libnode.so.115:_ZN2v88internal11ProfileNodeD1Ev
libnode.so.115:_ZN2v88internal11ProfileNodeD2Ev
libnode.so.115:_ZN2v88internal11ProfileTree14AddPathFromEndERKSt6vectorINS0_22CodeEntryAndLineNumberESaIS3_EEibNS_16CpuProfilingModeE
libnode.so.115:_ZN2v88internal11ProfileTree14AddPathFromEndERKSt6vectorIPNS0_9CodeEntryESaIS4_EEib
libnode.so.115:_ZN2v88internal11ProfileTreeC1EPNS0_7IsolateEPNS0_16CodeEntryStorageE
libnode.so.115:_ZN2v88internal11ProfileTreeC2EPNS0_7IsolateEPNS0_16CodeEntryStorageE
libnode.so.115:_ZN2v88internal11ProfileTreeD1Ev
libnode.so.115:_ZN2v88internal11ProfileTreeD2Ev
libnode.so.115:_ZN2v88internal11PropertyKeyC1EPNS0_7IsolateENS0_6HandleINS0_6ObjectEEEPb
libnode.so.115:_ZN2v88internal11PropertyKeyC2EPNS0_7IsolateENS0_6HandleINS0_6ObjectEEEPb
libnode.so.115:_ZN2v88internal11RegExpEmpty6AcceptEPNS0_13RegExpVisitorEPv
libnode.so.115:_ZN2v88internal11RegExpEmpty6ToNodeEPNS0_14RegExpCompilerEPNS0_10RegExpNodeE
libnode.so.115:_ZN2v88internal11RegExpEmpty7AsEmptyEv
libnode.so.115:_ZN2v88internal11RegExpEmpty7IsEmptyEv
libnode.so.115:_ZN2v88internal11RegExpGroup6AcceptEPNS0_13RegExpVisitorEPv
libnode.so.115:_ZN2v88internal11RegExpGroup6ToNodeEPNS0_14RegExpCompilerEPNS0_10RegExpNodeE
libnode.so.115:_ZN2v88internal11RegExpGroup7AsGroupEv
libnode.so.115:_ZN2v88internal11RegExpGroup7IsGroupEv
libnode.so.115:_ZN2v88internal11RegExpStack11ThreadLocal17FreeAndInvalidateEv
libnode.so.115:_ZN2v88internal11RegExpStack11ThreadLocal18ResetToStaticStackEPS1_
libnode.so.115:_ZN2v88internal11RegExpStack12ArchiveStackEPc
libnode.so.115:_ZN2v88internal11RegExpStack12RestoreStackEPc
libnode.so.115:_ZN2v88internal11RegExpStack14EnsureCapacityEm
libnode.so.115:_ZN2v88internal11RegExpStackC1Ev
libnode.so.115:_ZN2v88internal11RegExpStackC2Ev
libnode.so.115:_ZN2v88internal11RegExpStackD1Ev
libnode.so.115:_ZN2v88internal11RegExpStackD2Ev
libnode.so.115:_ZN2v88internal11RegExpUtils10RegExpExecEPNS0_7IsolateENS0_6HandleINS0_10JSReceiverEEENS4_INS0_6StringEEENS4_INS0_6ObjectEEE
libnode.so.115:_ZN2v88internal11RegExpUtils12GetLastIndexEPNS0_7IsolateENS0_6HandleINS0_10JSReceiverEEE
libnode.so.115:_ZN2v88internal11RegExpUtils12SetLastIndexEPNS0_7IsolateENS0_6HandleINS0_10JSReceiverEEEm
libnode.so.115:_ZN2v88internal11RegExpUtils18AdvanceStringIndexENS0_6HandleINS0_6StringEEEmb
libnode.so.115:_ZN2v88internal11RegExpUtils18IsUnmodifiedRegExpEPNS0_7IsolateENS0_6HandleINS0_6ObjectEEE
libnode.so.115:_ZN2v88internal11RegExpUtils20GenericCaptureGetterEPNS0_7IsolateENS0_6HandleINS0_15RegExpMatchInfoEEEiPb
libnode.so.115:_ZN2v88internal11RegExpUtils22SetAdvancedStringIndexEPNS0_7IsolateENS0_6HandleINS0_10JSReceiverEEENS4_INS0_6StringEEEb
libnode.so.115:_ZN2v88internal11Relocatable12ArchiveStateEPNS0_7IsolateEPc
libnode.so.115:_ZN2v88internal11Relocatable12RestoreStateEPNS0_7IsolateEPc
libnode.so.115:_ZN2v88internal11Relocatable21ArchiveSpacePerThreadEv
libnode.so.115:_ZN2v88internal11Relocatable31PostGarbageCollectionProcessingEPNS0_7IsolateE
libnode.so.115:_ZN2v88internal11Relocatable7IterateEPNS0_11RootVisitorEPS1_
libnode.so.115:_ZN2v88internal11Relocatable7IterateEPNS0_11RootVisitorEPc
libnode.so.115:_ZN2v88internal11Relocatable7IterateEPNS0_7IsolateEPNS0_11RootVisitorE
libnode.so.115:_ZN2v88internal11RootVisitor8RootNameENS0_4RootE
libnode.so.115:_ZN2v88internal11Runtime_AddEiPmPNS0_7IsolateE
libnode.so.115:_ZN2v88internal11SHA256_hashEPKvmPh
libnode.so.115:_ZN2v88internal11SHA256_initEPNS0_8HASH_CTXE
libnode.so.115:_ZN2v88internal11SameValue_0EPNS0_8compiler18CodeAssemblerStateENS0_5TNodeINS0_6ObjectEEES6_
libnode.so.115:_ZN2v88internal11SameValue_1EPNS0_8compiler18CodeAssemblerStateENS0_5TNodeINS0_6ObjectEEES6_
libnode.so.115:_ZN2v88internal11SaveContextC1EPNS0_7IsolateE
libnode.so.115:_ZN2v88internal11SaveContextC2EPNS0_7IsolateE
libnode.so.115:_ZN2v88internal11SaveContextD1Ev
libnode.so.115:_ZN2v88internal11SaveContextD2Ev
libnode.so.115:_ZN2v88internal11StringAdd_0EPNS0_8compiler18CodeAssemblerStateENS0_5TNodeINS0_7ContextEEENS4_INS0_6StringEEES8_
libnode.so.115:_ZN2v88internal11StringPad_0EPNS0_8compiler18CodeAssemblerStateENS0_5TNodeINS0_7ContextEEENS4_INS0_6ObjectEEENS0_21TorqueStructArgumentsEPKcNS0_7int31_tE
libnode.so.115:_ZN2v88internal11StringTable11DropOldDataEv
libnode.so.115:_ZN2v88internal11StringTable12LookupStringEPNS0_7IsolateENS0_6HandleINS0_6StringEEE
libnode.so.115:_ZN2v88internal11StringTable14EnsureCapacityENS0_16PtrComprCageBaseEi
libnode.so.115:_ZN2v88internal11StringTable15IterateElementsEPNS0_11RootVisitorE
libnode.so.115:_ZN2v88internal11StringTable21NotifyElementsRemovedEi
libnode.so.115:_ZN2v88internal11StringTable32TryStringToIndexOrLookupExistingEPNS0_7IsolateEm
libnode.so.115:_ZN2v88internal11StringTable4Data15IterateElementsEPNS0_11RootVisitorE
libnode.so.115:_ZN2v88internal11StringTable4Data3NewEi
libnode.so.115:_ZN2v88internal11StringTable4Data6ResizeENS0_16PtrComprCageBaseESt10unique_ptrIS2_St14default_deleteIS2_EEi
libnode.so.115:_ZN2v88internal11StringTable4DataC1Ei
libnode.so.115:_ZN2v88internal11StringTable4DataC2Ei
libnode.so.115:_ZN2v88internal11StringTable4DatadlEPv
libnode.so.115:_ZN2v88internal11StringTable4DatanwEmi
libnode.so.115:_ZN2v88internal11StringTableC1EPNS0_7IsolateE
libnode.so.115:_ZN2v88internal11StringTableC2EPNS0_7IsolateE
libnode.so.115:_ZN2v88internal11StringTableD1Ev
libnode.so.115:_ZN2v88internal11StringTableD2Ev
libnode.so.115:_ZN2v88internal11StringToIntEPNS0_7IsolateENS0_6HandleINS0_6StringEEEi
libnode.so.115:_ZN2v88internal11TestAndOr_0EPNS0_8compiler18CodeAssemblerStateENS0_5TNodeINS0_5BoolTEEES6_S6_
libnode.so.115:_ZN2v88internal11TestOrAnd_0EPNS0_8compiler18CodeAssemblerStateENS0_5TNodeINS0_5BoolTEEES6_S6_
libnode.so.115:_ZN2v88internal11TextElement11ClassRangesEPNS0_17RegExpClassRangesE
libnode.so.115:_ZN2v88internal11TextElement4AtomEPNS0_10RegExpAtomE
libnode.so.115:_ZN2v88internal11ThreadState13AllocateSpaceEv
libnode.so.115:_ZN2v88internal11ThreadState4NextEv
libnode.so.115:_ZN2v88internal11ThreadState6UnlinkEv
libnode.so.115:_ZN2v88internal11ThreadState8LinkIntoENS1_4ListE
libnode.so.115:_ZN2v88internal11ThreadStateC1EPNS0_13ThreadManagerE
libnode.so.115:_ZN2v88internal11ThreadStateC2EPNS0_13ThreadManagerE
libnode.so.115:_ZN2v88internal11ThreadStateD1Ev
libnode.so.115:_ZN2v88internal11ThreadStateD2Ev
libnode.so.115:_ZN2v88internal11TickCounter15AttachLocalHeapEPNS0_9LocalHeapE
libnode.so.115:_ZN2v88internal11TickCounter15DetachLocalHeapEv
libnode.so.115:_ZN2v88internal11ToBoolean_0EPNS0_8compiler18CodeAssemblerStateENS0_5TNodeINS0_6ObjectEEE
libnode.so.115:_ZN2v88internal11ToUintPtr_0EPNS0_8compiler18CodeAssemblerStateENS0_5TNodeINS0_7ContextEEENS4_INS0_6ObjectEEEPNS1_18CodeAssemblerLabelESA_SA_
libnode.so.115:_ZN2v88internal11Undefined_0EPNS0_8compiler18CodeAssemblerStateE
libnode.so.115:_ZN2v88internal11V8HeapTrait5kNameE
libnode.so.115:_ZN2v88internal11VariableMap3AddEPNS0_8VariableE
libnode.so.115:_ZN2v88internal11VariableMap6LookupEPKNS0_12AstRawStringE
libnode.so.115:_ZN2v88internal11VariableMap6RemoveEPNS0_8VariableE
libnode.so.115:_ZN2v88internal11VariableMap7DeclareEPNS0_4ZoneEPNS0_5ScopeEPKNS0_12AstRawStringENS0_12VariableModeENS0_12VariableKindENS0_18InitializationFlagENS0_17MaybeAssignedFlagENS0_12IsStaticFlagEPb
libnode.so.115:_ZN2v88internal11VariableMapC1EPNS0_4ZoneE
libnode.so.115:_ZN2v88internal11VariableMapC1ERKS1_PNS0_4ZoneE
libnode.so.115:_ZN2v88internal11VariableMapC2EPNS0_4ZoneE
libnode.so.115:_ZN2v88internal11VariableMapC2ERKS1_PNS0_4ZoneE
libnode.so.115:_ZN2v88internal11WeakObjects15UpdateWeakCellsERN4heap4base8WorklistINS0_8WeakCellELt64EEE
libnode.so.115:_ZN2v88internal11WeakObjects16UpdateJSWeakRefsERN4heap4base8WorklistINS0_9JSWeakRefELt64EEE
libnode.so.115:_ZN2v88internal11WeakObjects19UpdateAfterScavengeEv
libnode.so.115:_ZN2v88internal11WeakObjects20UpdateNextEphemeronsERN4heap4base8WorklistINS0_9EphemeronELt64EEE
libnode.so.115:_ZN2v88internal11WeakObjects20UpdateWeakReferencesERN4heap4base8WorklistISt4pairINS0_10HeapObjectENS0_18FullHeapObjectSlotEELt64EEE
libnode.so.115:_ZN2v88internal11WeakObjects22UpdateTransitionArraysERN4heap4base8WorklistINS0_15TransitionArrayELt64EEE
libnode.so.115:_ZN2v88internal11WeakObjects23UpdateCurrentEphemeronsERN4heap4base8WorklistINS0_9EphemeronELt64EEE
libnode.so.115:_ZN2v88internal11WeakObjects23UpdateWeakObjectsInCodeERN4heap4base8WorklistISt4pairINS0_10HeapObjectENS0_4CodeEELt64EEE
libnode.so.115:_ZN2v88internal11WeakObjects24UpdateFlushedJSFunctionsERN4heap4base8WorklistINS0_10JSFunctionELt64EEE
libnode.so.115:_ZN2v88internal11WeakObjects25UpdateEphemeronHashTablesERN4heap4base8WorklistINS0_18EphemeronHashTableELt64EEE
libnode.so.115:_ZN2v88internal11WeakObjects26UpdateDiscoveredEphemeronsERN4heap4base8WorklistINS0_9EphemeronELt64EEE
libnode.so.115:_ZN2v88internal11WeakObjects28UpdateCodeFlushingCandidatesERN4heap4base8WorklistINS0_18SharedFunctionInfoELt64EEE
libnode.so.115:_ZN2v88internal11WeakObjects32UpdateBaselineFlushingCandidatesERN4heap4base8WorklistINS0_10JSFunctionELt64EEE
libnode.so.115:_ZN2v88internal11WeakObjects5ClearEv
libnode.so.115:_ZN2v88internal11WeakObjects5Local7PublishEv
libnode.so.115:_ZN2v88internal11WeakObjects5LocalC1EPS1_
libnode.so.115:_ZN2v88internal11WeakObjects5LocalC2EPS1_
libnode.so.115:_ZN2v88internal11interpreter11Interpreter10InitializeEv
libnode.so.115:_ZN2v88internal11interpreter11Interpreter15ForEachBytecodeERKSt8functionIFvNS1_8BytecodeENS1_12OperandScaleEEE
libnode.so.115:_ZN2v88internal11interpreter11Interpreter17NewCompilationJobEPNS0_9ParseInfoEPNS0_15FunctionLiteralENS0_6HandleINS0_6ScriptEEEPNS0_19AccountingAllocatorEPSt6vectorIS6_SaIS6_EEPNS0_12LocalIsolateE
libnode.so.115:_ZN2v88internal11interpreter11Interpreter18GetBytecodeHandlerENS1_8BytecodeENS1_12OperandScaleE
libnode.so.115:_ZN2v88internal11interpreter11Interpreter18SetBytecodeHandlerENS1_8BytecodeENS1_12OperandScaleENS0_4CodeE
libnode.so.115:_ZN2v88internal11interpreter11Interpreter20InitDispatchCountersEv
libnode.so.115:_ZN2v88internal11interpreter11Interpreter21GetDispatchTableIndexENS1_8BytecodeENS1_12OperandScaleE
libnode.so.115:_ZN2v88internal11interpreter11Interpreter25GetDispatchCountersObjectEv
libnode.so.115:_ZN2v88internal11interpreter11Interpreter30NewSourcePositionCollectionJobEPNS0_9ParseInfoEPNS0_15FunctionLiteralENS0_6HandleINS0_13BytecodeArrayEEEPNS0_19AccountingAllocatorEPNS0_12LocalIsolateE
libnode.so.115:_ZN2v88internal11interpreter11InterpreterC1EPNS0_7IsolateE
libnode.so.115:_ZN2v88internal11interpreter11InterpreterC2EPNS0_7IsolateE
libnode.so.115:_ZN2v88internal11interpreter11LoopBuilder10LoopHeaderEv
libnode.so.115:_ZN2v88internal11interpreter11LoopBuilder11BindLoopEndEv
libnode.so.115:_ZN2v88internal11interpreter11LoopBuilder12JumpToHeaderEiPS2_
libnode.so.115:_ZN2v88internal11interpreter11LoopBuilder18BindContinueTargetEv
libnode.so.115:_ZN2v88internal11interpreter11LoopBuilder8LoopBodyEv
libnode.so.115:_ZN2v88internal11interpreter11LoopBuilderD0Ev
libnode.so.115:_ZN2v88internal11interpreter11LoopBuilderD1Ev
libnode.so.115:_ZN2v88internal11interpreter11LoopBuilderD2Ev
libnode.so.115:_ZN2v88internal11interpreter13SwitchBuilder11BindDefaultEPNS0_10CaseClauseE
libnode.so.115:_ZN2v88internal11interpreter13SwitchBuilder13JumpToDefaultEv
libnode.so.115:_ZN2v88internal11interpreter13SwitchBuilder16JumpToCaseIfTrueENS1_20BytecodeArrayBuilder13ToBooleanModeEi
libnode.so.115:_ZN2v88internal11interpreter13SwitchBuilder21EmitJumpTableIfExistsEiiRSt3mapIiPNS0_10CaseClauseESt4lessIiESaISt4pairIKiS5_EEE
libnode.so.115:_ZN2v88internal11interpreter13SwitchBuilder24JumpToFallThroughIfFalseEv
libnode.so.115:_ZN2v88internal11interpreter13SwitchBuilder26BindCaseTargetForJumpTableEiPNS0_10CaseClauseE
libnode.so.115:_ZN2v88internal11interpreter13SwitchBuilder28BindCaseTargetForCompareJumpEiPNS0_10CaseClauseE
libnode.so.115:_ZN2v88internal11interpreter13SwitchBuilderD0Ev
libnode.so.115:_ZN2v88internal11interpreter13SwitchBuilderD1Ev
libnode.so.115:_ZN2v88internal11interpreter13SwitchBuilderD2Ev
libnode.so.115:_ZN2v88internal11interpreter14BytecodeLabels3NewEv
libnode.so.115:_ZN2v88internal11interpreter14BytecodeLabels4BindEPNS1_20BytecodeArrayBuilderE
libnode.so.115:_ZN2v88internal11interpreter15BytecodeDecoder19DecodeSignedOperandEmNS1_11OperandTypeENS1_12OperandScaleE
libnode.so.115:_ZN2v88internal11interpreter15BytecodeDecoder21DecodeRegisterOperandEmNS1_11OperandTypeENS1_12OperandScaleE
libnode.so.115:_ZN2v88internal11interpreter15BytecodeDecoder21DecodeUnsignedOperandEmNS1_11OperandTypeENS1_12OperandScaleE
libnode.so.115:_ZN2v88internal11interpreter15BytecodeDecoder25DecodeRegisterListOperandEmjNS1_11OperandTypeENS1_12OperandScaleE
libnode.so.115:_ZN2v88internal11interpreter15BytecodeDecoder6DecodeERSoPKhb
libnode.so.115:_ZN2v88internal11interpreter15TestTypeOfFlags17GetFlagForLiteralEPKNS0_18AstStringConstantsEPNS0_7LiteralE
libnode.so.115:_ZN2v88internal11interpreter15TestTypeOfFlags6DecodeEh
libnode.so.115:_ZN2v88internal11interpreter15TestTypeOfFlags6EncodeENS2_11LiteralFlagE
libnode.so.115:_ZN2v88internal11interpreter15TestTypeOfFlags8ToStringENS2_11LiteralFlagE
libnode.so.115:_ZN2v88internal11interpreter15TryCatchBuilder6EndTryEv
libnode.so.115:_ZN2v88internal11interpreter15TryCatchBuilder8BeginTryENS1_8RegisterE
libnode.so.115:_ZN2v88internal11interpreter15TryCatchBuilder8EndCatchEv
libnode.so.115:_ZN2v88internal11interpreter15TryCatchBuilderD0Ev
libnode.so.115:_ZN2v88internal11interpreter15TryCatchBuilderD1Ev
libnode.so.115:_ZN2v88internal11interpreter15TryCatchBuilderD2Ev
libnode.so.115:_ZN2v88internal11interpreter16IntrinsicsHelper11IsSupportedENS0_7Runtime10FunctionIdE
libnode.so.115:_ZN2v88internal11interpreter16IntrinsicsHelper11ToRuntimeIdENS2_11IntrinsicIdE
libnode.so.115:_ZN2v88internal11interpreter16IntrinsicsHelper13FromRuntimeIdENS0_7Runtime10FunctionIdE
libnode.so.115:_ZN2v88internal11interpreter17BytecodeGenerator10BuildAwaitEi
libnode.so.115:_ZN2v88internal11interpreter17BytecodeGenerator10VisitAwaitEPNS0_5AwaitE
libnode.so.115:_ZN2v88internal11interpreter17BytecodeGenerator10VisitBlockEPNS0_5BlockE
libnode.so.115:_ZN2v88internal11interpreter17BytecodeGenerator10VisitThrowEPNS0_5ThrowE
libnode.so.115:_ZN2v88internal11interpreter17BytecodeGenerator10VisitYieldEPNS0_5YieldE
libnode.so.115:_ZN2v88internal11interpreter17BytecodeGenerator11BuildReturnEi
libnode.so.115:_ZN2v88internal11interpreter17BytecodeGenerator11VisitDeleteEPNS0_14UnaryOperationE
libnode.so.115:_ZN2v88internal11interpreter17BytecodeGenerator11VisitSpreadEPNS0_6SpreadE
libnode.so.115:_ZN2v88internal11interpreter17BytecodeGenerator11VisitTypeOfEPNS0_14UnaryOperationE
libnode.so.115:_ZN2v88internal11interpreter17BytecodeGenerator12BuildReThrowEv
libnode.so.115:_ZN2v88internal11interpreter17BytecodeGenerator12ControlScope14PerformCommandENS3_7CommandEPNS0_9StatementEi
libnode.so.115:_ZN2v88internal11interpreter17BytecodeGenerator12ControlScope25PopContextToExpectedDepthEv
libnode.so.115:_ZN2v88internal11interpreter17BytecodeGenerator12VisitCallNewEPNS0_7CallNewE
libnode.so.115:_ZN2v88internal11interpreter17BytecodeGenerator12VisitForTestEPNS0_10ExpressionEPNS1_14BytecodeLabelsES6_NS2_15TestFallthroughE
libnode.so.115:_ZN2v88internal11interpreter17BytecodeGenerator12VisitInScopeEPNS0_9StatementEPNS0_5ScopeE
libnode.so.115:_ZN2v88internal11interpreter17BytecodeGenerator12VisitLiteralEPNS0_7LiteralE
libnode.so.115:_ZN2v88internal11interpreter17BytecodeGenerator13VisitPropertyEPNS0_8PropertyE
libnode.so.115:_ZN2v88internal11interpreter17BytecodeGenerator14VisitArgumentsEPKNS0_8ZoneListIPNS0_10ExpressionEEEPNS1_12RegisterListE
libnode.so.115:_ZN2v88internal11interpreter17BytecodeGenerator14VisitCallSuperEPNS0_4CallE
libnode.so.115:_ZN2v88internal11interpreter17BytecodeGenerator14VisitForEffectEPNS0_10ExpressionE
libnode.so.115:_ZN2v88internal11interpreter17BytecodeGenerator14VisitYieldStarEPNS0_9YieldStarE
libnode.so.115:_ZN2v88internal11interpreter17BytecodeGenerator15BuildAssignmentERKNS2_17AssignmentLhsDataENS0_5Token5ValueENS0_18LookupHoistingModeE
libnode.so.115:_ZN2v88internal11interpreter17BytecodeGenerator15VisitAssignmentEPNS0_10AssignmentE
libnode.so.115:_ZN2v88internal11interpreter17BytecodeGenerator15VisitStatementsEPKNS0_8ZoneListIPNS0_9StatementEEE
libnode.so.115:_ZN2v88internal11interpreter17BytecodeGenerator16BuildAsyncReturnEi
libnode.so.115:_ZN2v88internal11interpreter17BytecodeGenerator16BuildDeclareCallENS0_7Runtime10FunctionIdE
libnode.so.115:_ZN2v88internal11interpreter17BytecodeGenerator16BuildGetIteratorENS0_12IteratorTypeE
libnode.so.115:_ZN2v88internal11interpreter17BytecodeGenerator16BuildStoreGlobalEPNS0_8VariableE
libnode.so.115:_ZN2v88internal11interpreter17BytecodeGenerator16BuildThrowIfHoleEPNS0_8VariableE
libnode.so.115:_ZN2v88internal11interpreter17BytecodeGenerator16GenerateBytecodeEm
libnode.so.115:_ZN2v88internal11interpreter17BytecodeGenerator16VisitCallRuntimeEPNS0_11CallRuntimeE
libnode.so.115:_ZN2v88internal11interpreter17BytecodeGenerator16VisitConditionalEPNS0_11ConditionalE
libnode.so.115:_ZN2v88internal11interpreter17BytecodeGenerator16VisitIfStatementEPNS0_11IfStatementE
libnode.so.115:_ZN2v88internal11interpreter17BytecodeGenerator16VisitLogicalTestENS0_5Token5ValueEPNS0_10ExpressionES6_i
libnode.so.115:_ZN2v88internal11interpreter17BytecodeGenerator17AssignmentLhsData11NonPropertyEPNS0_10ExpressionE
libnode.so.115:_ZN2v88internal11interpreter17BytecodeGenerator17AssignmentLhsData13KeyedPropertyENS1_8RegisterES4_
libnode.so.115:_ZN2v88internal11interpreter17BytecodeGenerator17AssignmentLhsData13NamedPropertyEPNS0_10ExpressionENS1_8RegisterEPKNS0_12AstRawStringE
libnode.so.115:_ZN2v88internal11interpreter17BytecodeGenerator17AssignmentLhsData18KeyedSuperPropertyENS1_12RegisterListE
libnode.so.115:_ZN2v88internal11interpreter17BytecodeGenerator17AssignmentLhsData18NamedSuperPropertyENS1_12RegisterListE
libnode.so.115:_ZN2v88internal11interpreter17BytecodeGenerator17AssignmentLhsData20PrivateDebugEvaluateENS0_10AssignTypeEPNS0_8PropertyENS1_8RegisterE
libnode.so.115:_ZN2v88internal11interpreter17BytecodeGenerator17AssignmentLhsData23PrivateMethodOrAccessorENS0_10AssignTypeEPNS0_8PropertyENS1_8RegisterES7_
libnode.so.115:_ZN2v88internal11interpreter17BytecodeGenerator17BuildClassLiteralEPNS0_12ClassLiteralENS1_8RegisterE
libnode.so.115:_ZN2v88internal11interpreter17BytecodeGenerator17BuildIteratorNextERKNS2_14IteratorRecordENS1_8RegisterE
libnode.so.115:_ZN2v88internal11interpreter17BytecodeGenerator17BuildSuspendPointEi
libnode.so.115:_ZN2v88internal11interpreter17BytecodeGenerator17BuildVariableLoadEPNS0_8VariableENS0_13HoleCheckModeENS0_10TypeofModeE
libnode.so.115:_ZN2v88internal11interpreter17BytecodeGenerator17VisitArrayLiteralEPNS0_12ArrayLiteralE
libnode.so.115:_ZN2v88internal11interpreter17BytecodeGenerator17VisitClassLiteralEPNS0_12ClassLiteralE
libnode.so.115:_ZN2v88internal11interpreter17BytecodeGenerator17VisitClassLiteralEPNS0_12ClassLiteralENS1_8RegisterE
libnode.so.115:_ZN2v88internal11interpreter17BytecodeGenerator17VisitDeclarationsEPNS_4base16ThreadedListBaseINS0_11DeclarationENS3_9EmptyBaseENS3_18ThreadedListTraitsIS5_EELb0EEE
libnode.so.115:_ZN2v88internal11interpreter17BytecodeGenerator17VisitForStatementEPNS0_12ForStatementE
libnode.so.115:_ZN2v88internal11interpreter17BytecodeGenerator17VisitPropertyLoadENS1_8RegisterEPNS0_8PropertyE
libnode.so.115:_ZN2v88internal11interpreter17BytecodeGenerator18BuildClassPropertyEPNS0_20ClassLiteralPropertyE
libnode.so.115:_ZN2v88internal11interpreter17BytecodeGenerator18BuildIteratorCloseERKNS2_14IteratorRecordEPNS0_10ExpressionE
libnode.so.115:_ZN2v88internal11interpreter17BytecodeGenerator18VisitIterationBodyEPNS0_18IterationStatementEPNS1_11LoopBuilderE
libnode.so.115:_ZN2v88internal11interpreter17BytecodeGenerator18VisitNaryOperationEPNS0_13NaryOperationE
libnode.so.115:_ZN2v88internal11interpreter17BytecodeGenerator18VisitObjectLiteralEPNS0_13ObjectLiteralE
libnode.so.115:_ZN2v88internal11interpreter17BytecodeGenerator18VisitOptionalChainEPNS0_13OptionalChainE
libnode.so.115:_ZN2v88internal11interpreter17BytecodeGenerator18VisitRegExpLiteralEPNS0_13RegExpLiteralE
libnode.so.115:_ZN2v88internal11interpreter17BytecodeGenerator18VisitVariableProxyEPNS0_13VariableProxyE
libnode.so.115:_ZN2v88internal11interpreter17BytecodeGenerator18VisitWithStatementEPNS0_13WithStatementE
libnode.so.115:_ZN2v88internal11interpreter17BytecodeGenerator19GetCachedLoadICSlotEPKNS0_10ExpressionEPKNS0_12AstRawStringE
libnode.so.115:_ZN2v88internal11interpreter17BytecodeGenerator19VisitBreakStatementEPNS0_14BreakStatementE
libnode.so.115:_ZN2v88internal11interpreter17BytecodeGenerator19VisitCountOperationEPNS0_14CountOperationE
libnode.so.115:_ZN2v88internal11interpreter17BytecodeGenerator19VisitEmptyStatementEPNS0_14EmptyStatementE
libnode.so.115:_ZN2v88internal11interpreter17BytecodeGenerator19VisitForInStatementEPNS0_14ForInStatementE
libnode.so.115:_ZN2v88internal11interpreter17BytecodeGenerator19VisitForNullishTestEPNS0_10ExpressionEPNS1_14BytecodeLabelsES6_S6_
libnode.so.115:_ZN2v88internal11interpreter17BytecodeGenerator19VisitForOfStatementEPNS0_14ForOfStatementE
libnode.so.115:_ZN2v88internal11interpreter17BytecodeGenerator19VisitForTypeOfValueEPNS0_10ExpressionE
libnode.so.115:_ZN2v88internal11interpreter17BytecodeGenerator19VisitThisExpressionEPNS0_14ThisExpressionE
libnode.so.115:_ZN2v88internal11interpreter17BytecodeGenerator19VisitUnaryOperationEPNS0_14UnaryOperationE
libnode.so.115:_ZN2v88internal11interpreter17BytecodeGenerator19VisitWhileStatementEPNS0_14WhileStatementE
libnode.so.115:_ZN2v88internal11interpreter17BytecodeGenerator20BuildLoadPropertyKeyEPNS0_15LiteralPropertyENS1_8RegisterE
libnode.so.115:_ZN2v88internal11interpreter17BytecodeGenerator20BuildPrivateMethodInEPNS0_8VariableEPNS0_10ExpressionE
libnode.so.115:_ZN2v88internal11interpreter17BytecodeGenerator20GenerateBytecodeBodyEv
libnode.so.115:_ZN2v88internal11interpreter17BytecodeGenerator20GetCachedStoreICSlotEPKNS0_10ExpressionEPKNS0_12AstRawStringE
libnode.so.115:_ZN2v88internal11interpreter17BytecodeGenerator20IsVariableInRegisterEPNS0_8VariableENS1_8RegisterE
libnode.so.115:_ZN2v88internal11interpreter17BytecodeGenerator20PrepareAssignmentLhsEPNS0_10ExpressionENS2_25AccumulatorPreservingModeE
libnode.so.115:_ZN2v88internal11interpreter17BytecodeGenerator20VisitArgumentsObjectEPNS0_8VariableE
libnode.so.115:_ZN2v88internal11interpreter17BytecodeGenerator20VisitBinaryOperationEPNS0_15BinaryOperationE
libnode.so.115:_ZN2v88internal11interpreter17BytecodeGenerator20VisitCommaExpressionEPNS0_15BinaryOperationE
libnode.so.115:_ZN2v88internal11interpreter17BytecodeGenerator20VisitFunctionLiteralEPNS0_15FunctionLiteralE
libnode.so.115:_ZN2v88internal11interpreter17BytecodeGenerator20VisitLiteralAccessorEPNS0_15LiteralPropertyENS1_8RegisterE
libnode.so.115:_ZN2v88internal11interpreter17BytecodeGenerator20VisitNaryLogicalTestENS0_5Token5ValueEPNS0_13NaryOperationEPKNS2_21NaryCodeCoverageSlotsE
libnode.so.115:_ZN2v88internal11interpreter17BytecodeGenerator20VisitReturnStatementEPNS0_15ReturnStatementE
libnode.so.115:_ZN2v88internal11interpreter17BytecodeGenerator20VisitSwitchStatementEPNS0_15SwitchStatementE
libnode.so.115:_ZN2v88internal11interpreter17BytecodeGenerator20VisitTemplateLiteralEPNS0_15TemplateLiteralE
libnode.so.115:_ZN2v88internal11interpreter17BytecodeGenerator21BuildSetNamedPropertyEPKNS0_10ExpressionENS1_8RegisterEPKNS0_12AstRawStringE
libnode.so.115:_ZN2v88internal11interpreter17BytecodeGenerator21BuildThisVariableLoadEv
libnode.so.115:_ZN2v88internal11interpreter17BytecodeGenerator21GetDummyCompareICSlotEv
libnode.so.115:_ZN2v88internal11interpreter17BytecodeGenerator21SetVariableInRegisterEPNS0_8VariableENS1_8RegisterE
libnode.so.115:_ZN2v88internal11interpreter17BytecodeGenerator21VisitCompareOperationEPNS0_16CompareOperationE
libnode.so.115:_ZN2v88internal11interpreter17BytecodeGenerator21VisitDoWhileStatementEPNS0_16DoWhileStatementE
libnode.so.115:_ZN2v88internal11interpreter17BytecodeGenerator21VisitEmptyParenthesesEPNS0_16EmptyParenthesesE
libnode.so.115:_ZN2v88internal11interpreter17BytecodeGenerator21VisitForRegisterValueEPNS0_10ExpressionE
libnode.so.115:_ZN2v88internal11interpreter17BytecodeGenerator22BuildFinalizeIterationENS2_14IteratorRecordENS1_8RegisterES4_
libnode.so.115:_ZN2v88internal11interpreter17BytecodeGenerator22BuildGeneratorPrologueEv
libnode.so.115:_ZN2v88internal11interpreter17BytecodeGenerator22BuildGetIteratorRecordENS0_12IteratorTypeE
libnode.so.115:_ZN2v88internal11interpreter17BytecodeGenerator22BuildGetIteratorRecordENS1_8RegisterES3_NS0_12IteratorTypeE
libnode.so.115:_ZN2v88internal11interpreter17BytecodeGenerator22BuildLiteralCompareNilENS0_5Token5ValueENS1_20BytecodeArrayBuilder8NilValueE
libnode.so.115:_ZN2v88internal11interpreter17BytecodeGenerator22BuildLoadNamedPropertyEPKNS0_10ExpressionENS1_8RegisterEPKNS0_12AstRawStringE
libnode.so.115:_ZN2v88internal11interpreter17BytecodeGenerator22BuildPrivateBrandCheckEPNS0_8PropertyENS1_8RegisterE
libnode.so.115:_ZN2v88internal11interpreter17BytecodeGenerator22VisitContinueStatementEPNS0_17ContinueStatementE
libnode.so.115:_ZN2v88internal11interpreter17BytecodeGenerator22VisitDebuggerStatementEPNS0_17DebuggerStatementE
libnode.so.115:_ZN2v88internal11interpreter17BytecodeGenerator22VisitGetTemplateObjectEPNS0_17GetTemplateObjectE
libnode.so.115:_ZN2v88internal11interpreter17BytecodeGenerator22VisitNewTargetVariableEPNS0_8VariableE
libnode.so.115:_ZN2v88internal11interpreter17BytecodeGenerator22VisitNullishExpressionEPNS0_15BinaryOperationE
libnode.so.115:_ZN2v88internal11interpreter17BytecodeGenerator22VisitTryCatchStatementEPNS0_17TryCatchStatementE
libnode.so.115:_ZN2v88internal11interpreter17BytecodeGenerator23BuildCallIteratorMethodENS1_8RegisterEPKNS0_12AstRawStringENS1_12RegisterListEPNS1_13BytecodeLabelEPNS1_14BytecodeLabelsE
libnode.so.115:_ZN2v88internal11interpreter17BytecodeGenerator23BuildCreateArrayLiteralEPKNS0_8ZoneListIPNS0_10ExpressionEEEPNS0_12ArrayLiteralE
libnode.so.115:_ZN2v88internal11interpreter17BytecodeGenerator23BuildVariableAssignmentEPNS0_8VariableENS0_5Token5ValueENS0_13HoleCheckModeENS0_18LookupHoistingModeE
libnode.so.115:_ZN2v88internal11interpreter17BytecodeGenerator23VisitCompoundAssignmentEPNS0_18CompoundAssignmentE
libnode.so.115:_ZN2v88internal11interpreter17BytecodeGenerator23VisitGlobalDeclarationsEPNS_4base16ThreadedListBaseINS0_11DeclarationENS3_9EmptyBaseENS3_18ThreadedListTraitsIS5_EELb0EEE
libnode.so.115:_ZN2v88internal11interpreter17BytecodeGenerator23VisitModuleDeclarationsEPNS_4base16ThreadedListBaseINS0_11DeclarationENS3_9EmptyBaseENS3_18ThreadedListTraitsIS5_EELb0EEE
libnode.so.115:_ZN2v88internal11interpreter17BytecodeGenerator23VisitRestArgumentsArrayEPNS0_8VariableE
libnode.so.115:_ZN2v88internal11interpreter17BytecodeGenerator23VisitSuperCallReferenceEPNS0_18SuperCallReferenceE
libnode.so.115:_ZN2v88internal11interpreter17BytecodeGenerator24BuildCreateObjectLiteralENS1_8RegisterEhm
libnode.so.115:_ZN2v88internal11interpreter17BytecodeGenerator24BuildNewLocalWithContextEPNS0_5ScopeE
libnode.so.115:_ZN2v88internal11interpreter17BytecodeGenerator24BuildPrivateGetterAccessENS1_8RegisterES3_
libnode.so.115:_ZN2v88internal11interpreter17BytecodeGenerator24BuildPrivateSetterAccessENS1_8RegisterES3_S3_
libnode.so.115:_ZN2v88internal11interpreter17BytecodeGenerator24GetCachedLoadSuperICSlotEPKNS0_12AstRawStringE
libnode.so.115:_ZN2v88internal11interpreter17BytecodeGenerator24VisitExpressionStatementEPNS0_19ExpressionStatementE
libnode.so.115:_ZN2v88internal11interpreter17BytecodeGenerator24VisitForAccumulatorValueEPNS0_10ExpressionE
libnode.so.115:_ZN2v88internal11interpreter17BytecodeGenerator24VisitFunctionDeclarationEPNS0_19FunctionDeclarationE
libnode.so.115:_ZN2v88internal11interpreter17BytecodeGenerator24VisitLogicalOrExpressionEPNS0_15BinaryOperationE
libnode.so.115:_ZN2v88internal11interpreter17BytecodeGenerator24VisitNaryCommaExpressionEPNS0_13NaryOperationE
libnode.so.115:_ZN2v88internal11interpreter17BytecodeGenerator24VisitTryFinallyStatementEPNS0_19TryFinallyStatementE
libnode.so.115:_ZN2v88internal11interpreter17BytecodeGenerator24VisitVariableDeclarationEPNS0_19VariableDeclarationE
libnode.so.115:_ZN2v88internal11interpreter17BytecodeGenerator25AddToEagerLiteralsIfEagerEPNS0_15FunctionLiteralE
libnode.so.115:_ZN2v88internal11interpreter17BytecodeGenerator25AllocateTopLevelRegistersEv
libnode.so.115:_ZN2v88internal11interpreter17BytecodeGenerator25BuildNewLocalBlockContextEPNS0_5ScopeE
libnode.so.115:_ZN2v88internal11interpreter17BytecodeGenerator25BuildNewLocalCatchContextEPNS0_5ScopeE
libnode.so.115:_ZN2v88internal11interpreter17BytecodeGenerator25GetCachedLoadGlobalICSlotENS0_10TypeofModeEPNS0_8VariableE
libnode.so.115:_ZN2v88internal11interpreter17BytecodeGenerator25VisitArithmeticExpressionEPNS0_15BinaryOperationE
libnode.so.115:_ZN2v88internal11interpreter17BytecodeGenerator25VisitImportCallExpressionEPNS0_20ImportCallExpressionE
libnode.so.115:_ZN2v88internal11interpreter17BytecodeGenerator25VisitLogicalAndExpressionEPNS0_15BinaryOperationE
libnode.so.115:_ZN2v88internal11interpreter17BytecodeGenerator25VisitNullishSubExpressionEPNS0_10ExpressionEPNS1_14BytecodeLabelsEi
libnode.so.115:_ZN2v88internal11interpreter17BytecodeGenerator25VisitThisFunctionVariableEPNS0_8VariableE
libnode.so.115:_ZN2v88internal11interpreter17BytecodeGenerator26BuildFillArrayWithIteratorENS2_14IteratorRecordENS1_8RegisterES4_S4_NS0_12FeedbackSlotES5_S5_S5_
libnode.so.115:_ZN2v88internal11interpreter17BytecodeGenerator26BuildInvalidPropertyAccessENS0_15MessageTemplateEPNS0_8PropertyE
libnode.so.115:_ZN2v88internal11interpreter17BytecodeGenerator26BuildSuperCallOptimizationENS1_8RegisterES3_S3_PNS1_13BytecodeLabelE
libnode.so.115:_ZN2v88internal11interpreter17BytecodeGenerator26GetCachedCreateClosureSlotEPNS0_15FunctionLiteralE
libnode.so.115:_ZN2v88internal11interpreter17BytecodeGenerator26GetCachedStoreGlobalICSlotENS0_12LanguageModeEPNS0_8VariableE
libnode.so.115:_ZN2v88internal11interpreter17BytecodeGenerator26VisitNaryNullishExpressionEPNS0_13NaryOperationE
libnode.so.115:_ZN2v88internal11interpreter17BytecodeGenerator26VisitNativeFunctionLiteralEPNS0_21NativeFunctionLiteralE
libnode.so.115:_ZN2v88internal11interpreter17BytecodeGenerator27BuildPrivateDebugDynamicGetEPNS0_8PropertyENS1_8RegisterE
libnode.so.115:_ZN2v88internal11interpreter17BytecodeGenerator27BuildPrivateDebugDynamicSetEPNS0_8PropertyENS1_8RegisterES5_
libnode.so.115:_ZN2v88internal11interpreter17BytecodeGenerator27GetRegisterForLocalVariableEPNS0_8VariableE
libnode.so.115:_ZN2v88internal11interpreter17BytecodeGenerator27VisitKeyedSuperPropertyLoadEPNS0_8PropertyENS1_8RegisterE
libnode.so.115:_ZN2v88internal11interpreter17BytecodeGenerator27VisitLogicalOrSubExpressionEPNS0_10ExpressionEPNS1_14BytecodeLabelsEi
libnode.so.115:_ZN2v88internal11interpreter17BytecodeGenerator27VisitModuleNamespaceImportsEv
libnode.so.115:_ZN2v88internal11interpreter17BytecodeGenerator27VisitNamedSuperPropertyLoadEPNS0_8PropertyENS1_8RegisterE
libnode.so.115:_ZN2v88internal11interpreter17BytecodeGenerator27VisitSuperPropertyReferenceEPNS0_22SuperPropertyReferenceE
libnode.so.115:_ZN2v88internal11interpreter17BytecodeGenerator28GetDestructuringDefaultValueEPPNS0_10ExpressionE
libnode.so.115:_ZN2v88internal11interpreter17BytecodeGenerator28VisitAndPushIntoRegisterListEPNS0_10ExpressionEPNS1_12RegisterListE
libnode.so.115:_ZN2v88internal11interpreter17BytecodeGenerator28VisitLogicalAndSubExpressionEPNS0_10ExpressionEPNS1_14BytecodeLabelsEi
libnode.so.115:_ZN2v88internal11interpreter17BytecodeGenerator28VisitNaryLogicalOrExpressionEPNS0_13NaryOperationE
libnode.so.115:_ZN2v88internal11interpreter17BytecodeGenerator28VisitPropertyLoadForRegisterENS1_8RegisterEPNS0_8PropertyES3_
libnode.so.115:_ZN2v88internal11interpreter17BytecodeGenerator29VisitInSameTestExecutionScopeEPNS0_10ExpressionE
libnode.so.115:_ZN2v88internal11interpreter17BytecodeGenerator29VisitLogicalTestSubExpressionENS0_5Token5ValueEPNS0_10ExpressionEPNS1_14BytecodeLabelsES8_i
libnode.so.115:_ZN2v88internal11interpreter17BytecodeGenerator29VisitNaryArithmeticExpressionEPNS0_13NaryOperationE
libnode.so.115:_ZN2v88internal11interpreter17BytecodeGenerator29VisitNaryLogicalAndExpressionEPNS0_13NaryOperationE
libnode.so.115:_ZN2v88internal11interpreter17BytecodeGenerator30BuildNewLocalActivationContextEv
libnode.so.115:_ZN2v88internal11interpreter17BytecodeGenerator31BuildPrivateBrandInitializationENS1_8RegisterEPNS0_8VariableE
libnode.so.115:_ZN2v88internal11interpreter17BytecodeGenerator32BuildLiteralStrictCompareBooleanEPNS0_7LiteralE
libnode.so.115:_ZN2v88internal11interpreter17BytecodeGenerator33BuildDestructuringArrayAssignmentEPNS0_12ArrayLiteralENS0_5Token5ValueENS0_18LookupHoistingModeE
libnode.so.115:_ZN2v88internal11interpreter17BytecodeGenerator33BuildInstanceMemberInitializationENS1_8RegisterES3_
libnode.so.115:_ZN2v88internal11interpreter17BytecodeGenerator33VisitForAccumulatorValueOrTheHoleEPNS0_10ExpressionE
libnode.so.115:_ZN2v88internal11interpreter17BytecodeGenerator33VisitSloppyBlockFunctionStatementEPNS0_28SloppyBlockFunctionStatementE
libnode.so.115:_ZN2v88internal11interpreter17BytecodeGenerator34AllocateBlockCoverageSlotIfEnabledEPNS0_7AstNodeENS0_15SourceRangeKindE
libnode.so.115:_ZN2v88internal11interpreter17BytecodeGenerator34BuildDestructuringObjectAssignmentEPNS0_13ObjectLiteralENS0_5Token5ValueENS0_18LookupHoistingModeE
libnode.so.115:_ZN2v88internal11interpreter17BytecodeGenerator34BuildPushUndefinedIntoRegisterListEPNS1_12RegisterListE
libnode.so.115:_ZN2v88internal11interpreter17BytecodeGenerator35BuildHoleCheckForVariableAssignmentEPNS0_8VariableENS0_5Token5ValueE
libnode.so.115:_ZN2v88internal11interpreter17BytecodeGenerator35VisitBlockDeclarationsAndStatementsEPNS0_5BlockE
libnode.so.115:_ZN2v88internal11interpreter17BytecodeGenerator36BuildVariableLoadForAccumulatorValueEPNS0_8VariableENS0_13HoleCheckModeENS0_10TypeofModeE
libnode.so.115:_ZN2v88internal11interpreter17BytecodeGenerator36VisitInitializeClassMembersStatementEPNS0_31InitializeClassMembersStatementE
libnode.so.115:_ZN2v88internal11interpreter17BytecodeGenerator38AllocateNaryBlockCoverageSlotIfEnabledEPNS0_13NaryOperationEm
libnode.so.115:_ZN2v88internal11interpreter17BytecodeGenerator41BuildLocalActivationContextInitializationEv
libnode.so.115:_ZN2v88internal11interpreter17BytecodeGenerator42BuildGeneratorObjectVariableInitializationEv
libnode.so.115:_ZN2v88internal11interpreter17BytecodeGenerator43BuildIncrementBlockCoverageCounterIfEnabledEPNS0_7AstNodeENS0_15SourceRangeKindE
libnode.so.115:_ZN2v88internal11interpreter17BytecodeGenerator43BuildIncrementBlockCoverageCounterIfEnabledEi
libnode.so.115:_ZN2v88internal11interpreter17BytecodeGenerator43VisitInitializeClassStaticElementsStatementEPNS0_38InitializeClassStaticElementsStatementE
libnode.so.115:_ZN2v88internal11interpreter17BytecodeGenerator8VisitNotEPNS0_14UnaryOperationE
libnode.so.115:_ZN2v88internal11interpreter17BytecodeGenerator9BuildTestENS1_20BytecodeArrayBuilder13ToBooleanModeEPNS1_14BytecodeLabelsES6_NS2_15TestFallthroughE
libnode.so.115:_ZN2v88internal11interpreter17BytecodeGenerator9VisitCallEPNS0_4CallE
libnode.so.115:_ZN2v88internal11interpreter17BytecodeGenerator9VisitVoidEPNS0_14UnaryOperationE
libnode.so.115:_ZN2v88internal11interpreter17BytecodeGeneratorC1EPNS0_12LocalIsolateEPNS0_4ZoneEPNS0_26UnoptimizedCompilationInfoEPKNS0_18AstStringConstantsEPSt6vectorIPNS0_15FunctionLiteralESaISE_EENS0_6HandleINS0_6ScriptEEE
libnode.so.115:_ZN2v88internal11interpreter17BytecodeGeneratorC2EPNS0_12LocalIsolateEPNS0_4ZoneEPNS0_26UnoptimizedCompilationInfoEPKNS0_18AstStringConstantsEPSt6vectorIPNS0_15FunctionLiteralESaISE_EENS0_6HandleINS0_6ScriptEEE
libnode.so.115:_ZN2v88internal11interpreter17TryFinallyBuilder10EndFinallyEv
libnode.so.115:_ZN2v88internal11interpreter17TryFinallyBuilder12BeginFinallyEv
libnode.so.115:_ZN2v88internal11interpreter17TryFinallyBuilder12BeginHandlerEv
libnode.so.115:_ZN2v88internal11interpreter17TryFinallyBuilder6EndTryEv
libnode.so.115:_ZN2v88internal11interpreter17TryFinallyBuilder8BeginTryENS1_8RegisterE
libnode.so.115:_ZN2v88internal11interpreter17TryFinallyBuilder8LeaveTryEv
libnode.so.115:_ZN2v88internal11interpreter17TryFinallyBuilderD0Ev
libnode.so.115:_ZN2v88internal11interpreter17TryFinallyBuilderD1Ev
libnode.so.115:_ZN2v88internal11interpreter17TryFinallyBuilderD2Ev
libnode.so.115:_ZN2v88internal11interpreter18CreateClosureFlags6EncodeEbbb
libnode.so.115:_ZN2v88internal11interpreter19BytecodeArrayWriter10EmitSwitchEPNS1_12BytecodeNodeEPNS1_17BytecodeJumpTableE
libnode.so.115:_ZN2v88internal11interpreter19BytecodeArrayWriter11WriteSwitchEPNS1_12BytecodeNodeEPNS1_17BytecodeJumpTableE
libnode.so.115:_ZN2v88internal11interpreter19BytecodeArrayWriter12EmitBytecodeEPKNS1_12BytecodeNodeE
libnode.so.115:_ZN2v88internal11interpreter19BytecodeArrayWriter12EmitJumpLoopEPNS1_12BytecodeNodeEPNS1_18BytecodeLoopHeaderE
libnode.so.115:_ZN2v88internal11interpreter19BytecodeArrayWriter13WriteJumpLoopEPNS1_12BytecodeNodeEPNS1_18BytecodeLoopHeaderE
libnode.so.115:_ZN2v88internal11interpreter19BytecodeArrayWriter14BindLoopHeaderEPNS1_18BytecodeLoopHeaderE
libnode.so.115:_ZN2v88internal11interpreter19BytecodeArrayWriter15StartBasicBlockEv
libnode.so.115:_ZN2v88internal11interpreter19BytecodeArrayWriter16BindTryRegionEndEPNS1_19HandlerTableBuilderEi
libnode.so.115:_ZN2v88internal11interpreter19BytecodeArrayWriter17BindHandlerTargetEPNS1_19HandlerTableBuilderEi
libnode.so.115:_ZN2v88internal11interpreter19BytecodeArrayWriter18BindJumpTableEntryEPNS1_17BytecodeJumpTableEi
libnode.so.115:_ZN2v88internal11interpreter19BytecodeArrayWriter18BindTryRegionStartEPNS1_19HandlerTableBuilderEi
libnode.so.115:_ZN2v88internal11interpreter19BytecodeArrayWriter21UpdateExitSeenInBlockENS1_8BytecodeE
libnode.so.115:_ZN2v88internal11interpreter19BytecodeArrayWriter22InvalidateLastBytecodeEv
libnode.so.115:_ZN2v88internal11interpreter19BytecodeArrayWriter22MaybeElideLastBytecodeENS1_8BytecodeEb
libnode.so.115:_ZN2v88internal11interpreter19BytecodeArrayWriter24PatchJumpWith8BitOperandEmi
libnode.so.115:_ZN2v88internal11interpreter19BytecodeArrayWriter24kMaxSizeOfPackedBytecodeE
libnode.so.115:_ZN2v88internal11interpreter19BytecodeArrayWriter25PatchJumpWith16BitOperandEmi
libnode.so.115:_ZN2v88internal11interpreter19BytecodeArrayWriter25PatchJumpWith32BitOperandEmi
libnode.so.115:_ZN2v88internal11interpreter19BytecodeArrayWriter25UpdateSourcePositionTableEPKNS1_12BytecodeNodeE
libnode.so.115:_ZN2v88internal11interpreter19BytecodeArrayWriter30SetFunctionEntrySourcePositionEi
libnode.so.115:_ZN2v88internal11interpreter19BytecodeArrayWriter5WriteEPNS1_12BytecodeNodeE
libnode.so.115:_ZN2v88internal11interpreter19BytecodeArrayWriter8EmitJumpEPNS1_12BytecodeNodeEPNS1_13BytecodeLabelE
libnode.so.115:_ZN2v88internal11interpreter19BytecodeArrayWriter9BindLabelEPNS1_13BytecodeLabelE
libnode.so.115:_ZN2v88internal11interpreter19BytecodeArrayWriter9PatchJumpEmm
libnode.so.115:_ZN2v88internal11interpreter19BytecodeArrayWriter9WriteJumpEPNS1_12BytecodeNodeEPNS1_13BytecodeLabelE
libnode.so.115:_ZN2v88internal11interpreter19BytecodeArrayWriterC1EPNS0_4ZoneEPNS1_20ConstantArrayBuilderENS0_26SourcePositionTableBuilder13RecordingModeE
libnode.so.115:_ZN2v88internal11interpreter19BytecodeArrayWriterC2EPNS0_4ZoneEPNS1_20ConstantArrayBuilderENS0_26SourcePositionTableBuilder13RecordingModeE
libnode.so.115:_ZN2v88internal11interpreter19HandlerTableBuilder13SetPredictionEiNS0_12HandlerTable15CatchPredictionE
libnode.so.115:_ZN2v88internal11interpreter19HandlerTableBuilder15NewHandlerEntryEv
libnode.so.115:_ZN2v88internal11interpreter19HandlerTableBuilder15SetTryRegionEndEim
libnode.so.115:_ZN2v88internal11interpreter19HandlerTableBuilder16SetHandlerTargetEim
libnode.so.115:_ZN2v88internal11interpreter19HandlerTableBuilder17SetTryRegionStartEim
libnode.so.115:_ZN2v88internal11interpreter19HandlerTableBuilder18SetContextRegisterEiNS1_8RegisterE
libnode.so.115:_ZN2v88internal11interpreter19HandlerTableBuilderC1EPNS0_4ZoneE
libnode.so.115:_ZN2v88internal11interpreter19HandlerTableBuilderC2EPNS0_4ZoneE
libnode.so.115:_ZN2v88internal11interpreter19IntrinsicsGenerator14GeneratorCloseERKNS1_20InterpreterAssembler15RegListNodePairENS0_5TNodeINS0_7ContextEEEi
libnode.so.115:_ZN2v88internal11interpreter19IntrinsicsGenerator15InvokeIntrinsicENS0_5TNodeINS0_7Uint32TEEENS3_INS0_7ContextEEERKNS1_20InterpreterAssembler15RegListNodePairE
libnode.so.115:_ZN2v88internal11interpreter19IntrinsicsGenerator18AsyncFunctionEnterERKNS1_20InterpreterAssembler15RegListNodePairENS0_5TNodeINS0_7ContextEEEi
libnode.so.115:_ZN2v88internal11interpreter19IntrinsicsGenerator18CopyDataPropertiesERKNS1_20InterpreterAssembler15RegListNodePairENS0_5TNodeINS0_7ContextEEEi
libnode.so.115:_ZN2v88internal11interpreter19IntrinsicsGenerator19AsyncFunctionRejectERKNS1_20InterpreterAssembler15RegListNodePairENS0_5TNodeINS0_7ContextEEEi
libnode.so.115:_ZN2v88internal11interpreter19IntrinsicsGenerator19GetImportMetaObjectERKNS1_20InterpreterAssembler15RegListNodePairENS0_5TNodeINS0_7ContextEEEi
libnode.so.115:_ZN2v88internal11interpreter19IntrinsicsGenerator20AsyncFunctionResolveERKNS1_20InterpreterAssembler15RegListNodePairENS0_5TNodeINS0_7ContextEEEi
libnode.so.115:_ZN2v88internal11interpreter19IntrinsicsGenerator20AsyncGeneratorRejectERKNS1_20InterpreterAssembler15RegListNodePairENS0_5TNodeINS0_7ContextEEEi
libnode.so.115:_ZN2v88internal11interpreter19IntrinsicsGenerator21AsyncGeneratorResolveERKNS1_20InterpreterAssembler15RegListNodePairENS0_5TNodeINS0_7ContextEEEi
libnode.so.115:_ZN2v88internal11interpreter19IntrinsicsGenerator22CreateIterResultObjectERKNS1_20InterpreterAssembler15RegListNodePairENS0_5TNodeINS0_7ContextEEEi
libnode.so.115:_ZN2v88internal11interpreter19IntrinsicsGenerator22GeneratorGetResumeModeERKNS1_20InterpreterAssembler15RegListNodePairENS0_5TNodeINS0_7ContextEEEi
libnode.so.115:_ZN2v88internal11interpreter19IntrinsicsGenerator22IntrinsicAsBuiltinCallERKNS1_20InterpreterAssembler15RegListNodePairENS0_5TNodeINS0_7ContextEEENS0_7BuiltinEi
libnode.so.115:_ZN2v88internal11interpreter19IntrinsicsGenerator23AbortIfArgCountMismatchEiNS0_5TNodeINS0_7Word32TEEE
libnode.so.115:_ZN2v88internal11interpreter19IntrinsicsGenerator23CreateJSGeneratorObjectERKNS1_20InterpreterAssembler15RegListNodePairENS0_5TNodeINS0_7ContextEEEi
libnode.so.115:_ZN2v88internal11interpreter19IntrinsicsGenerator24AsyncFunctionAwaitCaughtERKNS1_20InterpreterAssembler15RegListNodePairENS0_5TNodeINS0_7ContextEEEi
libnode.so.115:_ZN2v88internal11interpreter19IntrinsicsGenerator25AsyncGeneratorAwaitCaughtERKNS1_20InterpreterAssembler15RegListNodePairENS0_5TNodeINS0_7ContextEEEi
libnode.so.115:_ZN2v88internal11interpreter19IntrinsicsGenerator26AsyncFunctionAwaitUncaughtERKNS1_20InterpreterAssembler15RegListNodePairENS0_5TNodeINS0_7ContextEEEi
libnode.so.115:_ZN2v88internal11interpreter19IntrinsicsGenerator27AsyncGeneratorAwaitUncaughtERKNS1_20InterpreterAssembler15RegListNodePairENS0_5TNodeINS0_7ContextEEEi
libnode.so.115:_ZN2v88internal11interpreter19IntrinsicsGenerator27CreateAsyncFromSyncIteratorERKNS1_20InterpreterAssembler15RegListNodePairENS0_5TNodeINS0_7ContextEEEi
libnode.so.115:_ZN2v88internal11interpreter19IntrinsicsGenerator28AsyncGeneratorYieldWithAwaitERKNS1_20InterpreterAssembler15RegListNodePairENS0_5TNodeINS0_7ContextEEEi
libnode.so.115:_ZN2v88internal11interpreter19IntrinsicsGenerator47CopyDataPropertiesWithExcludedPropertiesOnStackERKNS1_20InterpreterAssembler15RegListNodePairENS0_5TNodeINS0_7ContextEEEi
libnode.so.115:_ZN2v88internal11interpreter20BytecodeArrayBuilder10CompareNilENS0_5Token5ValueENS2_8NilValueE
libnode.so.115:_ZN2v88internal11interpreter20BytecodeArrayBuilder10JumpIfNullEPNS1_13BytecodeLabelE
libnode.so.115:_ZN2v88internal11interpreter20BytecodeArrayBuilder10JumpIfTrueENS2_13ToBooleanModeEPNS1_13BytecodeLabelE
libnode.so.115:_ZN2v88internal11interpreter20BytecodeArrayBuilder10LoadGlobalEPKNS0_12AstRawStringEiNS0_10TypeofModeE
libnode.so.115:_ZN2v88internal11interpreter20BytecodeArrayBuilder10LogicalNotENS2_13ToBooleanModeE
libnode.so.115:_ZN2v88internal11interpreter20BytecodeArrayBuilder10MarkTryEndEi
libnode.so.115:_ZN2v88internal11interpreter20BytecodeArrayBuilder10PopContextENS1_8RegisterE
libnode.so.115:_ZN2v88internal11interpreter20BytecodeArrayBuilder11CallRuntimeENS0_7Runtime10FunctionIdE
libnode.so.115:_ZN2v88internal11interpreter20BytecodeArrayBuilder11CallRuntimeENS0_7Runtime10FunctionIdENS1_12RegisterListE
libnode.so.115:_ZN2v88internal11interpreter20BytecodeArrayBuilder11CallRuntimeENS0_7Runtime10FunctionIdENS1_8RegisterE
libnode.so.115:_ZN2v88internal11interpreter20BytecodeArrayBuilder11CloneObjectENS1_8RegisterEii
libnode.so.115:_ZN2v88internal11interpreter20BytecodeArrayBuilder11CompareNullEv
libnode.so.115:_ZN2v88internal11interpreter20BytecodeArrayBuilder11GetIteratorENS1_8RegisterEii
libnode.so.115:_ZN2v88internal11interpreter20BytecodeArrayBuilder11JumpIfFalseENS2_13ToBooleanModeEPNS1_13BytecodeLabelE
libnode.so.115:_ZN2v88internal11interpreter20BytecodeArrayBuilder11LoadBooleanEb
libnode.so.115:_ZN2v88internal11interpreter20BytecodeArrayBuilder11LoadLiteralENS0_3SmiE
libnode.so.115:_ZN2v88internal11interpreter20BytecodeArrayBuilder11LoadLiteralENS0_9AstBigIntE
libnode.so.115:_ZN2v88internal11interpreter20BytecodeArrayBuilder11LoadLiteralEPKNS0_12AstRawStringE
libnode.so.115:_ZN2v88internal11interpreter20BytecodeArrayBuilder11LoadLiteralEPKNS0_5ScopeE
libnode.so.115:_ZN2v88internal11interpreter20BytecodeArrayBuilder11LoadLiteralEd
libnode.so.115:_ZN2v88internal11interpreter20BytecodeArrayBuilder11LoadTheHoleEv
libnode.so.115:_ZN2v88internal11interpreter20BytecodeArrayBuilder11MarkHandlerEiNS0_12HandlerTable15CatchPredictionE
libnode.so.115:_ZN2v88internal11interpreter20BytecodeArrayBuilder11PushContextENS1_8RegisterE
libnode.so.115:_ZN2v88internal11interpreter20BytecodeArrayBuilder11StoreGlobalEPKNS0_12AstRawStringEi
libnode.so.115:_ZN2v88internal11interpreter20BytecodeArrayBuilder11WriteSwitchEPNS1_12BytecodeNodeEPNS1_17BytecodeJumpTableE
libnode.so.115:_ZN2v88internal11interpreter20BytecodeArrayBuilder12CallPropertyENS1_8RegisterENS1_12RegisterListEi
libnode.so.115:_ZN2v88internal11interpreter20BytecodeArrayBuilder12ForInPrepareENS1_12RegisterListEi
libnode.so.115:_ZN2v88internal11interpreter20BytecodeArrayBuilder12JumpIfNotNilEPNS1_13BytecodeLabelENS0_5Token5ValueENS2_8NilValueE
libnode.so.115:_ZN2v88internal11interpreter20BytecodeArrayBuilder12MarkTryBeginEiNS1_8RegisterE
libnode.so.115:_ZN2v88internal11interpreter20BytecodeArrayBuilder12MoveRegisterENS1_8RegisterES3_
libnode.so.115:_ZN2v88internal11interpreter20BytecodeArrayBuilder12OutputMovRawENS1_8RegisterES3_
libnode.so.115:_ZN2v88internal11interpreter20BytecodeArrayBuilder13CallJSRuntimeEiNS1_12RegisterListE
libnode.so.115:_ZN2v88internal11interpreter20BytecodeArrayBuilder13CompareTypeOfENS1_15TestTypeOfFlags11LiteralFlagE
libnode.so.115:_ZN2v88internal11interpreter20BytecodeArrayBuilder13CreateClosureEmii
libnode.so.115:_ZN2v88internal11interpreter20BytecodeArrayBuilder13ForInContinueENS1_8RegisterES3_
libnode.so.115:_ZN2v88internal11interpreter20BytecodeArrayBuilder13JumpIfNotNullEPNS1_13BytecodeLabelE
libnode.so.115:_ZN2v88internal11interpreter20BytecodeArrayBuilder13LoadUndefinedEv
libnode.so.115:_ZN2v88internal11interpreter20BytecodeArrayBuilder13OutputLdarRawENS1_8RegisterE
libnode.so.115:_ZN2v88internal11interpreter20BytecodeArrayBuilder13OutputStarRawENS1_8RegisterE
libnode.so.115:_ZN2v88internal11interpreter20BytecodeArrayBuilder13WriteJumpLoopEPNS1_12BytecodeNodeEPNS1_18BytecodeLoopHeaderE
libnode.so.115:_ZN2v88internal11interpreter20BytecodeArrayBuilder14CallWithSpreadENS1_8RegisterENS1_12RegisterListEi
libnode.so.115:_ZN2v88internal11interpreter20BytecodeArrayBuilder14ForInEnumerateENS1_8RegisterE
libnode.so.115:_ZN2v88internal11interpreter20BytecodeArrayBuilder14LoadLookupSlotEPKNS0_12AstRawStringENS0_10TypeofModeE
libnode.so.115:_ZN2v88internal11interpreter20BytecodeArrayBuilder14UnaryOperationENS0_5Token5ValueEi
libnode.so.115:_ZN2v88internal11interpreter20BytecodeArrayBuilder15BinaryOperationENS0_5Token5ValueENS1_8RegisterEi
libnode.so.115:_ZN2v88internal11interpreter20BytecodeArrayBuilder15CallAnyReceiverENS1_8RegisterENS1_12RegisterListEi
libnode.so.115:_ZN2v88internal11interpreter20BytecodeArrayBuilder15CreateArgumentsENS0_19CreateArgumentsTypeE
libnode.so.115:_ZN2v88internal11interpreter20BytecodeArrayBuilder15IncBlockCounterEi
libnode.so.115:_ZN2v88internal11interpreter20BytecodeArrayBuilder15JumpIfUndefinedEPNS1_13BytecodeLabelE
libnode.so.115:_ZN2v88internal11interpreter20BytecodeArrayBuilder15LoadContextSlotENS1_8RegisterEiiNS2_21ContextSlotMutabilityE
libnode.so.115:_ZN2v88internal11interpreter20BytecodeArrayBuilder15ResumeGeneratorENS1_8RegisterENS1_12RegisterListE
libnode.so.115:_ZN2v88internal11interpreter20BytecodeArrayBuilder15StoreLookupSlotEPKNS0_12AstRawStringENS0_12LanguageModeENS0_18LookupHoistingModeE
libnode.so.115:_ZN2v88internal11interpreter20BytecodeArrayBuilder16CompareOperationENS0_5Token5ValueENS1_8RegisterEi
libnode.so.115:_ZN2v88internal11interpreter20BytecodeArrayBuilder16CompareReferenceENS1_8RegisterE
libnode.so.115:_ZN2v88internal11interpreter20BytecodeArrayBuilder16CompareUndefinedEv
libnode.so.115:_ZN2v88internal11interpreter20BytecodeArrayBuilder16JumpIfJSReceiverEPNS1_13BytecodeLabelE
libnode.so.115:_ZN2v88internal11interpreter20BytecodeArrayBuilder16SetKeyedPropertyENS1_8RegisterES3_iNS0_12LanguageModeE
libnode.so.115:_ZN2v88internal11interpreter20BytecodeArrayBuilder16SetNamedPropertyENS1_8RegisterEPKNS0_12AstRawStringEiNS0_12LanguageModeE
libnode.so.115:_ZN2v88internal11interpreter20BytecodeArrayBuilder16SetNamedPropertyENS1_8RegisterEmiNS0_12LanguageModeE
libnode.so.115:_ZN2v88internal11interpreter20BytecodeArrayBuilder16StoreContextSlotENS1_8RegisterEii
libnode.so.115:_ZN2v88internal11interpreter20BytecodeArrayBuilder16SuspendGeneratorENS1_8RegisterENS1_12RegisterListEi
libnode.so.115:_ZN2v88internal11interpreter20BytecodeArrayBuilder17AllocateJumpTableEii
libnode.so.115:_ZN2v88internal11interpreter20BytecodeArrayBuilder17CreateEvalContextEPKNS0_5ScopeEi
libnode.so.115:_ZN2v88internal11interpreter20BytecodeArrayBuilder17CreateWithContextENS1_8RegisterEPKNS0_5ScopeE
libnode.so.115:_ZN2v88internal11interpreter20BytecodeArrayBuilder17GetTemplateObjectEmi
libnode.so.115:_ZN2v88internal11interpreter20BytecodeArrayBuilder17LoadKeyedPropertyENS1_8RegisterEi
libnode.so.115:_ZN2v88internal11interpreter20BytecodeArrayBuilder17LoadNamedPropertyENS1_8RegisterEPKNS0_12AstRawStringEi
libnode.so.115:_ZN2v88internal11interpreter20BytecodeArrayBuilder17SetPendingMessageEv
libnode.so.115:_ZN2v88internal11interpreter20BytecodeArrayBuilder18CallRuntimeForPairENS0_7Runtime10FunctionIdENS1_12RegisterListES5_
libnode.so.115:_ZN2v88internal11interpreter20BytecodeArrayBuilder18CallRuntimeForPairENS0_7Runtime10FunctionIdENS1_8RegisterENS1_12RegisterListE
libnode.so.115:_ZN2v88internal11interpreter20BytecodeArrayBuilder18CreateArrayLiteralEmii
libnode.so.115:_ZN2v88internal11interpreter20BytecodeArrayBuilder18CreateBlockContextEPKNS0_5ScopeE
libnode.so.115:_ZN2v88internal11interpreter20BytecodeArrayBuilder18CreateCatchContextENS1_8RegisterEPKNS0_5ScopeE
libnode.so.115:_ZN2v88internal11interpreter20BytecodeArrayBuilder18JumpIfNotUndefinedEPNS1_13BytecodeLabelE
libnode.so.115:_ZN2v88internal11interpreter20BytecodeArrayBuilder18LoadModuleVariableEii
libnode.so.115:_ZN2v88internal11interpreter20BytecodeArrayBuilder19CompareUndetectableEv
libnode.so.115:_ZN2v88internal11interpreter20BytecodeArrayBuilder19ConstructWithSpreadENS1_8RegisterENS1_12RegisterListEi
libnode.so.115:_ZN2v88internal11interpreter20BytecodeArrayBuilder19CreateObjectLiteralEmii
libnode.so.115:_ZN2v88internal11interpreter20BytecodeArrayBuilder19CreateRegExpLiteralEPKNS0_12AstRawStringEii
libnode.so.115:_ZN2v88internal11interpreter20BytecodeArrayBuilder19GetSuperConstructorENS1_8RegisterE
libnode.so.115:_ZN2v88internal11interpreter20BytecodeArrayBuilder19StoreInArrayLiteralENS1_8RegisterES3_i
libnode.so.115:_ZN2v88internal11interpreter20BytecodeArrayBuilder19StoreModuleVariableEii
libnode.so.115:_ZN2v88internal11interpreter20BytecodeArrayBuilder20GetConstantPoolEntryENS0_9AstBigIntE
libnode.so.115:_ZN2v88internal11interpreter20BytecodeArrayBuilder20GetConstantPoolEntryEPKNS0_12AstRawStringE
libnode.so.115:_ZN2v88internal11interpreter20BytecodeArrayBuilder20GetConstantPoolEntryEPKNS0_5ScopeE
libnode.so.115:_ZN2v88internal11interpreter20BytecodeArrayBuilder20GetConstantPoolEntryEd
libnode.so.115:_ZN2v88internal11interpreter20BytecodeArrayBuilder20LoadIteratorPropertyENS1_8RegisterEi
libnode.so.115:_ZN2v88internal11interpreter20BytecodeArrayBuilder20LoadLookupGlobalSlotEPKNS0_12AstRawStringENS0_10TypeofModeEii
libnode.so.115:_ZN2v88internal11interpreter20BytecodeArrayBuilder20NaNConstantPoolEntryEv
libnode.so.115:_ZN2v88internal11interpreter20BytecodeArrayBuilder21CallUndefinedReceiverENS1_8RegisterENS1_12RegisterListEi
libnode.so.115:_ZN2v88internal11interpreter20BytecodeArrayBuilder21CreateFunctionContextEPKNS0_5ScopeEi
libnode.so.115:_ZN2v88internal11interpreter20BytecodeArrayBuilder21JumpIfUndefinedOrNullEPNS1_13BytecodeLabelE
libnode.so.115:_ZN2v88internal11interpreter20BytecodeArrayBuilder21LoadConstantPoolEntryEm
libnode.so.115:_ZN2v88internal11interpreter20BytecodeArrayBuilder21LoadLookupContextSlotEPKNS0_12AstRawStringENS0_10TypeofModeEii
libnode.so.115:_ZN2v88internal11interpreter20BytecodeArrayBuilder21SetDeferredSourceInfoENS1_18BytecodeSourceInfoE
libnode.so.115:_ZN2v88internal11interpreter20BytecodeArrayBuilder21SwitchOnSmiNoFeedbackEPNS1_17BytecodeJumpTableE
libnode.so.115:_ZN2v88internal11interpreter20BytecodeArrayBuilder22DefineKeyedOwnPropertyENS1_8RegisterES3_NS_4base5FlagsINS0_26DefineKeyedOwnPropertyFlagEiEEi
libnode.so.115:_ZN2v88internal11interpreter20BytecodeArrayBuilder22DefineNamedOwnPropertyENS1_8RegisterEPKNS0_12AstRawStringEi
libnode.so.115:_ZN2v88internal11interpreter20BytecodeArrayBuilder22SwitchOnGeneratorStateENS1_8RegisterEPNS1_17BytecodeJumpTableE
libnode.so.115:_ZN2v88internal11interpreter20BytecodeArrayBuilder23CreateArrayFromIterableEv
libnode.so.115:_ZN2v88internal11interpreter20BytecodeArrayBuilder23CreateEmptyArrayLiteralEi
libnode.so.115:_ZN2v88internal11interpreter20BytecodeArrayBuilder23GetInputRegisterOperandENS1_8RegisterE
libnode.so.115:_ZN2v88internal11interpreter20BytecodeArrayBuilder24CreateEmptyObjectLiteralEv
libnode.so.115:_ZN2v88internal11interpreter20BytecodeArrayBuilder24GetOutputRegisterOperandENS1_8RegisterE
libnode.so.115:_ZN2v88internal11interpreter20BytecodeArrayBuilder25BinaryOperationSmiLiteralENS0_5Token5ValueENS0_3SmiEi
libnode.so.115:_ZN2v88internal11interpreter20BytecodeArrayBuilder25LoadAsyncIteratorPropertyENS1_8RegisterEi
libnode.so.115:_ZN2v88internal11interpreter20BytecodeArrayBuilder25ThrowReferenceErrorIfHoleEPKNS0_12AstRawStringE
libnode.so.115:_ZN2v88internal11interpreter20BytecodeArrayBuilder25ThrowSuperNotCalledIfHoleEv
libnode.so.115:_ZN2v88internal11interpreter20BytecodeArrayBuilder26LoadClassFieldsInitializerENS1_8RegisterEi
libnode.so.115:_ZN2v88internal11interpreter20BytecodeArrayBuilder26LoadNamedPropertyFromSuperENS1_8RegisterEPKNS0_12AstRawStringEi
libnode.so.115:_ZN2v88internal11interpreter20BytecodeArrayBuilder26StoreAccumulatorInRegisterENS1_8RegisterE
libnode.so.115:_ZN2v88internal11interpreter20BytecodeArrayBuilder26ThrowIfNotSuperConstructorENS1_8RegisterE
libnode.so.115:_ZN2v88internal11interpreter20BytecodeArrayBuilder27GetInputRegisterListOperandENS1_12RegisterListE
libnode.so.115:_ZN2v88internal11interpreter20BytecodeArrayBuilder27LoadAccumulatorWithRegisterENS1_8RegisterE
libnode.so.115:_ZN2v88internal11interpreter20BytecodeArrayBuilder27StoreClassFieldsInitializerENS1_8RegisterEi
libnode.so.115:_ZN2v88internal11interpreter20BytecodeArrayBuilder28GetOutputRegisterListOperandENS1_12RegisterListE
libnode.so.115:_ZN2v88internal11interpreter20BytecodeArrayBuilder28SetDeferredConstantPoolEntryEmNS0_6HandleINS0_6ObjectEEE
libnode.so.115:_ZN2v88internal11interpreter20BytecodeArrayBuilder30AttachOrEmitDeferredSourceInfoEPNS1_12BytecodeNodeE
libnode.so.115:_ZN2v88internal11interpreter20BytecodeArrayBuilder31DefineKeyedOwnPropertyInLiteralENS1_8RegisterES3_NS_4base5FlagsINS0_35DefineKeyedOwnPropertyInLiteralFlagEiEEi
libnode.so.115:_ZN2v88internal11interpreter20BytecodeArrayBuilder31EmitFunctionStartSourcePositionEi
libnode.so.115:_ZN2v88internal11interpreter20BytecodeArrayBuilder31IteratorSymbolConstantPoolEntryEv
libnode.so.115:_ZN2v88internal11interpreter20BytecodeArrayBuilder32EmptyFixedArrayConstantPoolEntryEv
libnode.so.115:_ZN2v88internal11interpreter20BytecodeArrayBuilder32ThrowSuperAlreadyCalledIfNotHoleEv
libnode.so.115:_ZN2v88internal11interpreter20BytecodeArrayBuilder33AllocateDeferredConstantPoolEntryEv
libnode.so.115:_ZN2v88internal11interpreter20BytecodeArrayBuilder34ClassFieldsSymbolConstantPoolEntryEv
libnode.so.115:_ZN2v88internal11interpreter20BytecodeArrayBuilder36AsyncIteratorSymbolConstantPoolEntryEv
libnode.so.115:_ZN2v88internal11interpreter20BytecodeArrayBuilder36FindNonDefaultConstructorOrConstructENS1_8RegisterES3_NS1_12RegisterListE
libnode.so.115:_ZN2v88internal11interpreter20BytecodeArrayBuilder44InterpreterTrampolineSymbolConstantPoolEntryEv
libnode.so.115:_ZN2v88internal11interpreter20BytecodeArrayBuilder49EmptyArrayBoilerplateDescriptionConstantPoolEntryEv
libnode.so.115:_ZN2v88internal11interpreter20BytecodeArrayBuilder4BindEPNS1_13BytecodeLabelE
libnode.so.115:_ZN2v88internal11interpreter20BytecodeArrayBuilder4BindEPNS1_17BytecodeJumpTableEi
libnode.so.115:_ZN2v88internal11interpreter20BytecodeArrayBuilder4BindEPNS1_18BytecodeLoopHeaderE
libnode.so.115:_ZN2v88internal11interpreter20BytecodeArrayBuilder4JumpEPNS1_13BytecodeLabelE
libnode.so.115:_ZN2v88internal11interpreter20BytecodeArrayBuilder50EmptyObjectBoilerplateDescriptionConstantPoolEntryEv
libnode.so.115:_ZN2v88internal11interpreter20BytecodeArrayBuilder5AbortENS0_11AbortReasonE
libnode.so.115:_ZN2v88internal11interpreter20BytecodeArrayBuilder5ThrowEv
libnode.so.115:_ZN2v88internal11interpreter20BytecodeArrayBuilder5WriteEPNS1_12BytecodeNodeE
libnode.so.115:_ZN2v88internal11interpreter20BytecodeArrayBuilder6DeleteENS1_8RegisterENS0_12LanguageModeE
libnode.so.115:_ZN2v88internal11interpreter20BytecodeArrayBuilder6ReturnEv
libnode.so.115:_ZN2v88internal11interpreter20BytecodeArrayBuilder6ToNameENS1_8RegisterE
libnode.so.115:_ZN2v88internal11interpreter20BytecodeArrayBuilder6TypeOfEv
libnode.so.115:_ZN2v88internal11interpreter20BytecodeArrayBuilder7ReThrowEv
libnode.so.115:_ZN2v88internal11interpreter20BytecodeArrayBuilder8DebuggerEv
libnode.so.115:_ZN2v88internal11interpreter20BytecodeArrayBuilder8JumpLoopEPNS1_18BytecodeLoopHeaderEiii
libnode.so.115:_ZN2v88internal11interpreter20BytecodeArrayBuilder8LoadNullEv
libnode.so.115:_ZN2v88internal11interpreter20BytecodeArrayBuilder8LoadTrueEv
libnode.so.115:_ZN2v88internal11interpreter20BytecodeArrayBuilder8ToNumberEi
libnode.so.115:_ZN2v88internal11interpreter20BytecodeArrayBuilder8ToObjectENS1_8RegisterE
libnode.so.115:_ZN2v88internal11interpreter20BytecodeArrayBuilder8ToStringEv
libnode.so.115:_ZN2v88internal11interpreter20BytecodeArrayBuilder9ConstructENS1_8RegisterENS1_12RegisterListEi
libnode.so.115:_ZN2v88internal11interpreter20BytecodeArrayBuilder9ForInNextENS1_8RegisterES3_NS1_12RegisterListEi
libnode.so.115:_ZN2v88internal11interpreter20BytecodeArrayBuilder9ForInStepENS1_8RegisterE
libnode.so.115:_ZN2v88internal11interpreter20BytecodeArrayBuilder9JumpIfNilEPNS1_13BytecodeLabelENS0_5Token5ValueENS2_8NilValueE
libnode.so.115:_ZN2v88internal11interpreter20BytecodeArrayBuilder9LoadFalseEv
libnode.so.115:_ZN2v88internal11interpreter20BytecodeArrayBuilder9ToNumericEi
libnode.so.115:_ZN2v88internal11interpreter20BytecodeArrayBuilder9WriteJumpEPNS1_12BytecodeNodeEPNS1_13BytecodeLabelE
libnode.so.115:_ZN2v88internal11interpreter20BytecodeArrayBuilderC1EPNS0_4ZoneEiiPNS0_18FeedbackVectorSpecENS0_26SourcePositionTableBuilder13RecordingModeE
libnode.so.115:_ZN2v88internal11interpreter20BytecodeArrayBuilderC2EPNS0_4ZoneEiiPNS0_18FeedbackVectorSpecENS0_26SourcePositionTableBuilder13RecordingModeE
libnode.so.115:_ZN2v88internal11interpreter20ConstantArrayBuilder13AllocateIndexENS2_5EntryE
libnode.so.115:_ZN2v88internal11interpreter20ConstantArrayBuilder13SetDeferredAtEmNS0_6HandleINS0_6ObjectEEE
libnode.so.115:_ZN2v88internal11interpreter20ConstantArrayBuilder13k8BitCapacityE
libnode.so.115:_ZN2v88internal11interpreter20ConstantArrayBuilder14InsertDeferredEv
libnode.so.115:_ZN2v88internal11interpreter20ConstantArrayBuilder14k16BitCapacityE
libnode.so.115:_ZN2v88internal11interpreter20ConstantArrayBuilder14k32BitCapacityE
libnode.so.115:_ZN2v88internal11interpreter20ConstantArrayBuilder15InsertJumpTableEm
libnode.so.115:_ZN2v88internal11interpreter20ConstantArrayBuilder15SetJumpTableSmiEmNS0_3SmiE
libnode.so.115:_ZN2v88internal11interpreter20ConstantArrayBuilder18AllocateIndexArrayENS2_5EntryEm
libnode.so.115:_ZN2v88internal11interpreter20ConstantArrayBuilder18ConstantArraySlice2AtEm
libnode.so.115:_ZN2v88internal11interpreter20ConstantArrayBuilder18ConstantArraySlice7ReserveEv
libnode.so.115:_ZN2v88internal11interpreter20ConstantArrayBuilder18ConstantArraySlice8AllocateENS2_5EntryEm
libnode.so.115:_ZN2v88internal11interpreter20ConstantArrayBuilder18ConstantArraySlice9UnreserveEv
libnode.so.115:_ZN2v88internal11interpreter20ConstantArrayBuilder18ConstantArraySliceC1EPNS0_4ZoneEmmNS1_11OperandSizeE
libnode.so.115:_ZN2v88internal11interpreter20ConstantArrayBuilder18ConstantArraySliceC2EPNS0_4ZoneEmmNS1_11OperandSizeE
libnode.so.115:_ZN2v88internal11interpreter20ConstantArrayBuilder19CommitReservedEntryENS1_11OperandSizeENS0_3SmiE
libnode.so.115:_ZN2v88internal11interpreter20ConstantArrayBuilder19CreateReservedEntryEv
libnode.so.115:_ZN2v88internal11interpreter20ConstantArrayBuilder20DiscardReservedEntryENS1_11OperandSizeE
libnode.so.115:_ZN2v88internal11interpreter20ConstantArrayBuilder20InsertIteratorSymbolEv
libnode.so.115:_ZN2v88internal11interpreter20ConstantArrayBuilder21AllocateReservedEntryENS0_3SmiE
libnode.so.115:_ZN2v88internal11interpreter20ConstantArrayBuilder21InsertEmptyFixedArrayEv
libnode.so.115:_ZN2v88internal11interpreter20ConstantArrayBuilder23InsertClassFieldsSymbolEv
libnode.so.115:_ZN2v88internal11interpreter20ConstantArrayBuilder25InsertAsyncIteratorSymbolEv
libnode.so.115:_ZN2v88internal11interpreter20ConstantArrayBuilder33InsertInterpreterTrampolineSymbolEv
libnode.so.115:_ZN2v88internal11interpreter20ConstantArrayBuilder38InsertEmptyArrayBoilerplateDescriptionEv
libnode.so.115:_ZN2v88internal11interpreter20ConstantArrayBuilder39InsertEmptyObjectBoilerplateDescriptionEv
libnode.so.115:_ZN2v88internal11interpreter20ConstantArrayBuilder6InsertENS0_3SmiE
libnode.so.115:_ZN2v88internal11interpreter20ConstantArrayBuilder6InsertENS0_9AstBigIntE
libnode.so.115:_ZN2v88internal11interpreter20ConstantArrayBuilder6InsertEPKNS0_12AstRawStringE
libnode.so.115:_ZN2v88internal11interpreter20ConstantArrayBuilder6InsertEPKNS0_5ScopeE
libnode.so.115:_ZN2v88internal11interpreter20ConstantArrayBuilder6InsertEd
libnode.so.115:_ZN2v88internal11interpreter20ConstantArrayBuilder9InsertNaNEv
libnode.so.115:_ZN2v88internal11interpreter20ConstantArrayBuilderC1EPNS0_4ZoneE
libnode.so.115:_ZN2v88internal11interpreter20ConstantArrayBuilderC2EPNS0_4ZoneE
libnode.so.115:_ZN2v88internal11interpreter20InterpreterAssembler10GetContextEv
libnode.so.115:_ZN2v88internal11interpreter20InterpreterAssembler10SetContextENS0_5TNodeINS0_7ContextEEE
libnode.so.115:_ZN2v88internal11interpreter20InterpreterAssembler12CallEpilogueEv
libnode.so.115:_ZN2v88internal11interpreter20InterpreterAssembler12CallPrologueEv
libnode.so.115:_ZN2v88internal11interpreter20InterpreterAssembler12DispatchWideENS1_12OperandScaleE
libnode.so.115:_ZN2v88internal11interpreter20InterpreterAssembler12JumpBackwardENS0_5TNodeINS0_7IntPtrTEEE
libnode.so.115:_ZN2v88internal11interpreter20InterpreterAssembler12LoadBytecodeENS0_5TNodeINS0_7IntPtrTEEE
libnode.so.115:_ZN2v88internal11interpreter20InterpreterAssembler12LoadOsrStateENS0_5TNodeINS0_14FeedbackVectorEEE
libnode.so.115:_ZN2v88internal11interpreter20InterpreterAssembler12LoadRegisterENS0_5TNodeINS0_7IntPtrTEEE
libnode.so.115:_ZN2v88internal11interpreter20InterpreterAssembler12LoadRegisterENS1_8RegisterE
libnode.so.115:_ZN2v88internal11interpreter20InterpreterAssembler12NextRegisterENS0_5TNodeINS0_7IntPtrTEEE
libnode.so.115:_ZN2v88internal11interpreter20InterpreterAssembler13OperandOffsetEi
libnode.so.115:_ZN2v88internal11interpreter20InterpreterAssembler13StoreRegisterENS0_5TNodeINS0_6ObjectEEENS1_8RegisterE
libnode.so.115:_ZN2v88internal11interpreter20InterpreterAssembler13StoreRegisterENS0_5TNodeINS0_6ObjectEEENS3_INS0_7IntPtrTEEE
libnode.so.115:_ZN2v88internal11interpreter20InterpreterAssembler13TraceBytecodeENS0_7Runtime10FunctionIdE
libnode.so.115:_ZN2v88internal11interpreter20InterpreterAssembler14BytecodeOffsetEv
libnode.so.115:_ZN2v88internal11interpreter20InterpreterAssembler14GetAccumulatorEv
libnode.so.115:_ZN2v88internal11interpreter20InterpreterAssembler14SetAccumulatorENS0_5TNodeINS0_6ObjectEEE
libnode.so.115:_ZN2v88internal11interpreter20InterpreterAssembler15InlineShortStarENS0_5TNodeINS0_5WordTEEE
libnode.so.115:_ZN2v88internal11interpreter20InterpreterAssembler15JumpConditionalENS0_5TNodeINS0_5BoolTEEENS3_INS0_7IntPtrTEEE
libnode.so.115:_ZN2v88internal11interpreter20InterpreterAssembler16RegisterLocationENS0_5TNodeINS0_7IntPtrTEEE
libnode.so.115:_ZN2v88internal11interpreter20InterpreterAssembler16RegisterLocationENS1_8RegisterE
libnode.so.115:_ZN2v88internal11interpreter20InterpreterAssembler17CallJSAndDispatchENS0_5TNodeINS0_6ObjectEEENS3_INS0_7ContextEEERKNS2_15RegListNodePairENS0_19ConvertReceiverModeE
libnode.so.115:_ZN2v88internal11interpreter20InterpreterAssembler17GetContextAtDepthENS0_5TNodeINS0_7ContextEEENS3_INS0_7Uint32TEEE
libnode.so.115:_ZN2v88internal11interpreter20InterpreterAssembler17JumpIfTaggedEqualENS0_5TNodeINS0_6ObjectEEES5_NS3_INS0_7IntPtrTEEE
libnode.so.115:_ZN2v88internal11interpreter20InterpreterAssembler17JumpIfTaggedEqualENS0_5TNodeINS0_6ObjectEEES5_i
libnode.so.115:_ZN2v88internal11interpreter20InterpreterAssembler17ToNumberOrNumericENS0_6Object10ConversionE
libnode.so.115:_ZN2v88internal11interpreter20InterpreterAssembler18BytecodeOperandIdxEi
libnode.so.115:_ZN2v88internal11interpreter20InterpreterAssembler18BytecodeOperandImmEi
libnode.so.115:_ZN2v88internal11interpreter20InterpreterAssembler18BytecodeOperandRegEi
libnode.so.115:_ZN2v88internal11interpreter20InterpreterAssembler18ClobberAccumulatorENS0_5TNodeINS0_6ObjectEEE
libnode.so.115:_ZN2v88internal11interpreter20InterpreterAssembler18DispatchToBytecodeENS0_5TNodeINS0_5WordTEEENS3_INS0_7IntPtrTEEE
libnode.so.115:_ZN2v88internal11interpreter20InterpreterAssembler18ImportRegisterFileENS0_5TNodeINS0_10FixedArrayEEERKNS2_15RegListNodePairENS3_INS0_6Int32TEEE
libnode.so.115:_ZN2v88internal11interpreter20InterpreterAssembler18LoadFeedbackVectorEv
libnode.so.115:_ZN2v88internal11interpreter20InterpreterAssembler18OnStackReplacementENS0_5TNodeINS0_7ContextEEENS3_INS0_14FeedbackVectorEEENS3_INS0_7IntPtrTEEENS3_INS0_6Int32TEEES9_NS3_INS0_5Int8TEEENS2_24OnStackReplacementParamsE
libnode.so.115:_ZN2v88internal11interpreter20InterpreterAssembler18SaveBytecodeOffsetEv
libnode.so.115:_ZN2v88internal11interpreter20InterpreterAssembler19AbortIfWordNotEqualENS0_5TNodeINS0_5WordTEEES5_NS0_11AbortReasonE
libnode.so.115:_ZN2v88internal11interpreter20InterpreterAssembler19BytecodeOperandUImmEi
libnode.so.115:_ZN2v88internal11interpreter20InterpreterAssembler19ConstructWithSpreadENS0_5TNodeINS0_6ObjectEEENS3_INS0_7ContextEEES5_RKNS2_15RegListNodePairENS3_INS0_8UintPtrTEEE
libnode.so.115:_ZN2v88internal11interpreter20InterpreterAssembler19LoadFunctionClosureEv
libnode.so.115:_ZN2v88internal11interpreter20InterpreterAssembler19RegisterFrameOffsetENS0_5TNodeINS0_7IntPtrTEEE
libnode.so.115:_ZN2v88internal11interpreter20InterpreterAssembler20BytecodeOperandCountEi
libnode.so.115:_ZN2v88internal11interpreter20InterpreterAssembler20BytecodeOperandFlag8Ei
libnode.so.115:_ZN2v88internal11interpreter20InterpreterAssembler20DispatchTablePointerEv
libnode.so.115:_ZN2v88internal11interpreter20InterpreterAssembler20JumpIfTaggedNotEqualENS0_5TNodeINS0_6ObjectEEES5_NS3_INS0_7IntPtrTEEE
libnode.so.115:_ZN2v88internal11interpreter20InterpreterAssembler20JumpIfTaggedNotEqualENS0_5TNodeINS0_6ObjectEEES5_i
libnode.so.115:_ZN2v88internal11interpreter20InterpreterAssembler20LoadAndUntagRegisterENS1_8RegisterE
libnode.so.115:_ZN2v88internal11interpreter20InterpreterAssembler20ReloadBytecodeOffsetEv
libnode.so.115:_ZN2v88internal11interpreter20InterpreterAssembler21BytecodeOperandFlag16Ei
libnode.so.115:_ZN2v88internal11interpreter20InterpreterAssembler21BytecodeOperandIdxSmiEi
libnode.so.115:_ZN2v88internal11interpreter20InterpreterAssembler21BytecodeOperandImmSmiEi
libnode.so.115:_ZN2v88internal11interpreter20InterpreterAssembler21BytecodeSignedOperandEiNS1_11OperandSizeE
libnode.so.115:_ZN2v88internal11interpreter20InterpreterAssembler21LoadConstantPoolEntryENS0_5TNodeINS0_5WordTEEE
libnode.so.115:_ZN2v88internal11interpreter20InterpreterAssembler21StarDispatchLookaheadENS0_5TNodeINS0_5WordTEEE
libnode.so.115:_ZN2v88internal11interpreter20InterpreterAssembler21TraceBytecodeDispatchENS0_5TNodeINS0_5WordTEEE
libnode.so.115:_ZN2v88internal11interpreter20InterpreterAssembler21UpdateInterruptBudgetENS0_5TNodeINS0_6Int32TEEEb
libnode.so.115:_ZN2v88internal11interpreter20InterpreterAssembler22BytecodeOperandUImmSmiEi
libnode.so.115:_ZN2v88internal11interpreter20InterpreterAssembler23BytecodeOperandIdxInt32Ei
libnode.so.115:_ZN2v88internal11interpreter20InterpreterAssembler23BytecodeOperandUImmWordEi
libnode.so.115:_ZN2v88internal11interpreter20InterpreterAssembler23BytecodeUnsignedOperandEiNS1_11OperandSizeE
libnode.so.115:_ZN2v88internal11interpreter20InterpreterAssembler23GetAccumulatorUncheckedEv
libnode.so.115:_ZN2v88internal11interpreter20InterpreterAssembler24BytecodeOperandImmIntPtrEi
libnode.so.115:_ZN2v88internal11interpreter20InterpreterAssembler24BytecodeOperandRuntimeIdEi
libnode.so.115:_ZN2v88internal11interpreter20InterpreterAssembler25BytecodeOperandSignedByteEi
libnode.so.115:_ZN2v88internal11interpreter20InterpreterAssembler25BytecodeOperandSignedQuadEi
libnode.so.115:_ZN2v88internal11interpreter20InterpreterAssembler25JumpIfTaggedEqualConstantENS0_5TNodeINS0_6ObjectEEES5_i
libnode.so.115:_ZN2v88internal11interpreter20InterpreterAssembler25StoreRegisterForShortStarENS0_5TNodeINS0_6ObjectEEENS3_INS0_5WordTEEE
libnode.so.115:_ZN2v88internal11interpreter20InterpreterAssembler26BytecodeArrayTaggedPointerEv
libnode.so.115:_ZN2v88internal11interpreter20InterpreterAssembler26BytecodeOperandIntrinsicIdEi
libnode.so.115:_ZN2v88internal11interpreter20InterpreterAssembler26BytecodeOperandSignedShortEi
libnode.so.115:_ZN2v88internal11interpreter20InterpreterAssembler26GetInterpretedFramePointerEv
libnode.so.115:_ZN2v88internal11interpreter20InterpreterAssembler26LoadRegisterAtOperandIndexEi
libnode.so.115:_ZN2v88internal11interpreter20InterpreterAssembler27AbortIfRegisterCountInvalidENS0_5TNodeINS0_14FixedArrayBaseEEENS3_INS0_7IntPtrTEEENS3_INS0_8UintPtrTEEE
libnode.so.115:_ZN2v88internal11interpreter20InterpreterAssembler27BytecodeOperandUnsignedByteEi
libnode.so.115:_ZN2v88internal11interpreter20InterpreterAssembler27BytecodeOperandUnsignedQuadEi
libnode.so.115:_ZN2v88internal11interpreter20InterpreterAssembler27CallJSWithSpreadAndDispatchENS0_5TNodeINS0_6ObjectEEENS3_INS0_7ContextEEERKNS2_15RegListNodePairENS3_INS0_8UintPtrTEEE
libnode.so.115:_ZN2v88internal11interpreter20InterpreterAssembler27StoreRegisterAtOperandIndexENS0_5TNodeINS0_6ObjectEEEi
libnode.so.115:_ZN2v88internal11interpreter20InterpreterAssembler28BytecodeOperandReadUnalignedEiNS0_11MachineTypeE
libnode.so.115:_ZN2v88internal11interpreter20InterpreterAssembler28BytecodeOperandUnsignedShortEi
libnode.so.115:_ZN2v88internal11interpreter20InterpreterAssembler28JumpIfTaggedNotEqualConstantENS0_5TNodeINS0_6ObjectEEES5_i
libnode.so.115:_ZN2v88internal11interpreter20InterpreterAssembler28LoadRegisterFromRegisterListERKNS2_15RegListNodePairEi
libnode.so.115:_ZN2v88internal11interpreter20InterpreterAssembler29BytecodeOperandIdxTaggedIndexEi
libnode.so.115:_ZN2v88internal11interpreter20InterpreterAssembler29GetRegisterListAtOperandIndexEi
libnode.so.115:_ZN2v88internal11interpreter20InterpreterAssembler29LoadAndUntagConstantPoolEntryENS0_5TNodeINS0_5WordTEEE
libnode.so.115:_ZN2v88internal11interpreter20InterpreterAssembler29TargetSupportsUnalignedAccessEv
libnode.so.115:_ZN2v88internal11interpreter20InterpreterAssembler29UpdateInterruptBudgetOnReturnEv
libnode.so.115:_ZN2v88internal11interpreter20InterpreterAssembler30BytecodeOperandConstantPoolIdxEi
libnode.so.115:_ZN2v88internal11interpreter20InterpreterAssembler30DispatchToBytecodeHandlerEntryENS0_5TNodeINS0_7RawPtrTEEENS3_INS0_7IntPtrTEEE
libnode.so.115:_ZN2v88internal11interpreter20InterpreterAssembler30LoadRegisterPairAtOperandIndexEi
libnode.so.115:_ZN2v88internal11interpreter20InterpreterAssembler30RegisterLocationInRegisterListERKNS2_15RegListNodePairEi
libnode.so.115:_ZN2v88internal11interpreter20InterpreterAssembler31ExportParametersAndRegisterFileENS0_5TNodeINS0_10FixedArrayEEERKNS2_15RegListNodePairENS3_INS0_6Int32TEEE
libnode.so.115:_ZN2v88internal11interpreter20InterpreterAssembler31StoreRegisterPairAtOperandIndexENS0_5TNodeINS0_6ObjectEEES5_i
libnode.so.115:_ZN2v88internal11interpreter20InterpreterAssembler32JumpConditionalByConstantOperandENS0_5TNodeINS0_5BoolTEEEi
libnode.so.115:_ZN2v88internal11interpreter20InterpreterAssembler33BytecodeOperandNativeContextIndexEi
libnode.so.115:_ZN2v88internal11interpreter20InterpreterAssembler33JumpConditionalByImmediateOperandENS0_5TNodeINS0_5BoolTEEEi
libnode.so.115:_ZN2v88internal11interpreter20InterpreterAssembler33StoreRegisterTripleAtOperandIndexENS0_5TNodeINS0_6ObjectEEES5_S5_i
libnode.so.115:_ZN2v88internal11interpreter20InterpreterAssembler35LoadConstantPoolEntryAtOperandIndexEi
libnode.so.115:_ZN2v88internal11interpreter20InterpreterAssembler43DispatchToBytecodeWithOptionalStarLookaheadENS0_5TNodeINS0_5WordTEEE
libnode.so.115:_ZN2v88internal11interpreter20InterpreterAssembler43LoadAndUntagConstantPoolEntryAtOperandIndexEi
libnode.so.115:_ZN2v88internal11interpreter20InterpreterAssembler4JumpENS0_5TNodeINS0_7IntPtrTEEE
libnode.so.115:_ZN2v88internal11interpreter20InterpreterAssembler4JumpENS0_5TNodeINS0_7IntPtrTEEEb
libnode.so.115:_ZN2v88internal11interpreter20InterpreterAssembler5AbortENS0_11AbortReasonE
libnode.so.115:_ZN2v88internal11interpreter20InterpreterAssembler7AdvanceENS0_5TNodeINS0_7IntPtrTEEEb
libnode.so.115:_ZN2v88internal11interpreter20InterpreterAssembler7AdvanceEi
libnode.so.115:_ZN2v88internal11interpreter20InterpreterAssembler7AdvanceEv
libnode.so.115:_ZN2v88internal11interpreter20InterpreterAssembler8DispatchEv
libnode.so.115:_ZN2v88internal11interpreter20InterpreterAssembler9ConstructENS0_5TNodeINS0_6ObjectEEENS3_INS0_7ContextEEES5_RKNS2_15RegListNodePairENS3_INS0_8UintPtrTEEENS3_INS0_10HeapObjectEEE
libnode.so.115:_ZN2v88internal11interpreter20InterpreterAssemblerC1EPNS0_8compiler18CodeAssemblerStateENS1_8BytecodeENS1_12OperandScaleE
libnode.so.115:_ZN2v88internal11interpreter20InterpreterAssemblerC2EPNS0_8compiler18CodeAssemblerStateENS1_8BytecodeENS1_12OperandScaleE
libnode.so.115:_ZN2v88internal11interpreter20InterpreterAssemblerD1Ev
libnode.so.115:_ZN2v88internal11interpreter20InterpreterAssemblerD2Ev
libnode.so.115:_ZN2v88internal11interpreter20StoreLookupSlotFlags15GetLanguageModeEh
libnode.so.115:_ZN2v88internal11interpreter20StoreLookupSlotFlags20IsLookupHoistingModeEh
libnode.so.115:_ZN2v88internal11interpreter20StoreLookupSlotFlags6EncodeENS0_12LanguageModeENS0_18LookupHoistingModeE
libnode.so.115:_ZN2v88internal11interpreter21BytecodeArrayIterator13IsValidOffsetENS0_6HandleINS0_13BytecodeArrayEEEi
libnode.so.115:_ZN2v88internal11interpreter21BytecodeArrayIterator14UpdatePointersEv
libnode.so.115:_ZN2v88internal11interpreter21BytecodeArrayIterator15ApplyDebugBreakEv
libnode.so.115:_ZN2v88internal11interpreter21BytecodeArrayIterator9SetOffsetEi
libnode.so.115:_ZN2v88internal11interpreter21BytecodeArrayIteratorC1ENS0_6HandleINS0_13BytecodeArrayEEEi
libnode.so.115:_ZN2v88internal11interpreter21BytecodeArrayIteratorC2ENS0_6HandleINS0_13BytecodeArrayEEEi
libnode.so.115:_ZN2v88internal11interpreter21BytecodeArrayIteratorD1Ev
libnode.so.115:_ZN2v88internal11interpreter21BytecodeArrayIteratorD2Ev
libnode.so.115:_ZN2v88internal11interpreter22JumpTableTargetOffsets8iterator23UpdateAndAdvanceToValidEv
libnode.so.115:_ZN2v88internal11interpreter22JumpTableTargetOffsets8iteratorC1EiiiPKNS1_21BytecodeArrayIteratorE
libnode.so.115:_ZN2v88internal11interpreter22JumpTableTargetOffsets8iteratorC2EiiiPKNS1_21BytecodeArrayIteratorE
libnode.so.115:_ZN2v88internal11interpreter22JumpTableTargetOffsets8iteratordeEv
libnode.so.115:_ZN2v88internal11interpreter22JumpTableTargetOffsets8iteratorneERKS3_
libnode.so.115:_ZN2v88internal11interpreter22JumpTableTargetOffsets8iteratorppEv
libnode.so.115:_ZN2v88internal11interpreter22JumpTableTargetOffsetsC1EPKNS1_21BytecodeArrayIteratorEiii
libnode.so.115:_ZN2v88internal11interpreter22JumpTableTargetOffsetsC2EPKNS1_21BytecodeArrayIteratorEiii
libnode.so.115:_ZN2v88internal11interpreter23CreateArrayLiteralFlags6EncodeEbi
libnode.so.115:_ZN2v88internal11interpreter23GenerateBytecodeHandlerEPNS0_7IsolateEPKcNS1_8BytecodeENS1_12OperandScaleENS0_7BuiltinERKNS0_16AssemblerOptionsE
libnode.so.115:_ZN2v88internal11interpreter23GenerateInvokeIntrinsicEPNS1_20InterpreterAssemblerENS0_5TNodeINS0_7Uint32TEEENS4_INS0_7ContextEEERKNS2_15RegListNodePairE
libnode.so.115:_ZN2v88internal11interpreter24CreateObjectLiteralFlags6EncodeEib
libnode.so.115:_ZN2v88internal11interpreter25BytecodeRegisterOptimizer11MaterializeEPNS2_12RegisterInfoE
libnode.so.115:_ZN2v88internal11interpreter25BytecodeRegisterOptimizer12RegisterInfo13GetEquivalentEv
libnode.so.115:_ZN2v88internal11interpreter25BytecodeRegisterOptimizer12RegisterInfo21AddToEquivalenceSetOfEPS3_
libnode.so.115:_ZN2v88internal11interpreter25BytecodeRegisterOptimizer12RegisterInfo22GetAllocatedEquivalentEv
libnode.so.115:_ZN2v88internal11interpreter25BytecodeRegisterOptimizer12RegisterInfo23MoveToNewEquivalenceSetEjbPNS0_8VariableE
libnode.so.115:_ZN2v88internal11interpreter25BytecodeRegisterOptimizer12RegisterInfo25GetMaterializedEquivalentEv
libnode.so.115:_ZN2v88internal11interpreter25BytecodeRegisterOptimizer12RegisterInfo26GetEquivalentToMaterializeEv
libnode.so.115:_ZN2v88internal11interpreter25BytecodeRegisterOptimizer12RegisterInfo31MarkTemporariesAsUnmaterializedENS1_8RegisterE
libnode.so.115:_ZN2v88internal11interpreter25BytecodeRegisterOptimizer12RegisterInfo34GetMaterializedEquivalentOtherThanENS1_8RegisterE
libnode.so.115:_ZN2v88internal11interpreter25BytecodeRegisterOptimizer15GrowRegisterMapENS1_8RegisterE
libnode.so.115:_ZN2v88internal11interpreter25BytecodeRegisterOptimizer16AllocateRegisterEPNS2_12RegisterInfoE
libnode.so.115:_ZN2v88internal11interpreter25BytecodeRegisterOptimizer16GetInputRegisterENS1_8RegisterE
libnode.so.115:_ZN2v88internal11interpreter25BytecodeRegisterOptimizer16RegisterTransferEPNS2_12RegisterInfoES4_
libnode.so.115:_ZN2v88internal11interpreter25BytecodeRegisterOptimizer17RegisterFreeEventENS1_8RegisterE
libnode.so.115:_ZN2v88internal11interpreter25BytecodeRegisterOptimizer19AddToEquivalenceSetEPNS2_12RegisterInfoES4_
libnode.so.115:_ZN2v88internal11interpreter25BytecodeRegisterOptimizer20GetInputRegisterListENS1_12RegisterListE
libnode.so.115:_ZN2v88internal11interpreter25BytecodeRegisterOptimizer20IsVariableInRegisterEPNS0_8VariableENS1_8RegisterE
libnode.so.115:_ZN2v88internal11interpreter25BytecodeRegisterOptimizer21GetVariableInRegisterENS1_8RegisterE
libnode.so.115:_ZN2v88internal11interpreter25BytecodeRegisterOptimizer21PrepareOutputRegisterENS1_8RegisterE
libnode.so.115:_ZN2v88internal11interpreter25BytecodeRegisterOptimizer21RegisterAllocateEventENS1_8RegisterE
libnode.so.115:_ZN2v88internal11interpreter25BytecodeRegisterOptimizer21RegisterListFreeEventENS1_12RegisterListE
libnode.so.115:_ZN2v88internal11interpreter25BytecodeRegisterOptimizer21SetVariableInRegisterEPNS0_8VariableENS1_8RegisterE
libnode.so.115:_ZN2v88internal11interpreter25BytecodeRegisterOptimizer21kInvalidEquivalenceIdE
libnode.so.115:_ZN2v88internal11interpreter25BytecodeRegisterOptimizer22OutputRegisterTransferEPNS2_12RegisterInfoES4_
libnode.so.115:_ZN2v88internal11interpreter25BytecodeRegisterOptimizer25GetMaterializedEquivalentEPNS2_12RegisterInfoE
libnode.so.115:_ZN2v88internal11interpreter25BytecodeRegisterOptimizer25PrepareOutputRegisterListENS1_12RegisterListE
libnode.so.115:_ZN2v88internal11interpreter25BytecodeRegisterOptimizer25RegisterListAllocateEventENS1_12RegisterListE
libnode.so.115:_ZN2v88internal11interpreter25BytecodeRegisterOptimizer27PushToRegistersNeedingFlushEPNS2_12RegisterInfoE
libnode.so.115:_ZN2v88internal11interpreter25BytecodeRegisterOptimizer28CreateMaterializedEquivalentEPNS2_12RegisterInfoE
libnode.so.115:_ZN2v88internal11interpreter25BytecodeRegisterOptimizer39GetMaterializedEquivalentNotAccumulatorEPNS2_12RegisterInfoE
libnode.so.115:_ZN2v88internal11interpreter25BytecodeRegisterOptimizer5FlushEv
libnode.so.115:_ZN2v88internal11interpreter25BytecodeRegisterOptimizerC1EPNS0_4ZoneEPNS1_25BytecodeRegisterAllocatorEiiPNS2_14BytecodeWriterE
libnode.so.115:_ZN2v88internal11interpreter25BytecodeRegisterOptimizerC2EPNS0_4ZoneEPNS1_25BytecodeRegisterAllocatorEiiPNS2_14BytecodeWriterE
libnode.so.115:_ZN2v88internal11interpreter25InterpreterCompilationJob14ExecuteJobImplEv
libnode.so.115:_ZN2v88internal11interpreter25InterpreterCompilationJob15FinalizeJobImplENS0_6HandleINS0_18SharedFunctionInfoEEEPNS0_12LocalIsolateE
libnode.so.115:_ZN2v88internal11interpreter25InterpreterCompilationJob15FinalizeJobImplENS0_6HandleINS0_18SharedFunctionInfoEEEPNS0_7IsolateE
libnode.so.115:_ZN2v88internal11interpreter25InterpreterCompilationJobC1EPNS0_9ParseInfoEPNS0_15FunctionLiteralENS0_6HandleINS0_6ScriptEEEPNS0_19AccountingAllocatorEPSt6vectorIS6_SaIS6_EEPNS0_12LocalIsolateE
libnode.so.115:_ZN2v88internal11interpreter25InterpreterCompilationJobC2EPNS0_9ParseInfoEPNS0_15FunctionLiteralENS0_6HandleINS0_6ScriptEEEPNS0_19AccountingAllocatorEPSt6vectorIS6_SaIS6_EEPNS0_12LocalIsolateE
libnode.so.115:_ZN2v88internal11interpreter26GetJumpWithConstantOperandENS1_8BytecodeE
libnode.so.115:_ZN2v88internal11interpreter27BreakableControlFlowBuilder14EmitJumpIfNullEPNS1_14BytecodeLabelsE
libnode.so.115:_ZN2v88internal11interpreter27BreakableControlFlowBuilder14EmitJumpIfTrueENS1_20BytecodeArrayBuilder13ToBooleanModeEPNS1_14BytecodeLabelsE
libnode.so.115:_ZN2v88internal11interpreter27BreakableControlFlowBuilder15BindBreakTargetEv
libnode.so.115:_ZN2v88internal11interpreter27BreakableControlFlowBuilder15EmitJumpIfFalseENS1_20BytecodeArrayBuilder13ToBooleanModeEPNS1_14BytecodeLabelsE
libnode.so.115:_ZN2v88internal11interpreter27BreakableControlFlowBuilder19EmitJumpIfUndefinedEPNS1_14BytecodeLabelsE
libnode.so.115:_ZN2v88internal11interpreter27BreakableControlFlowBuilder8EmitJumpEPNS1_14BytecodeLabelsE
libnode.so.115:_ZN2v88internal11interpreter27BreakableControlFlowBuilderD0Ev
libnode.so.115:_ZN2v88internal11interpreter27BreakableControlFlowBuilderD1Ev
libnode.so.115:_ZN2v88internal11interpreter27BreakableControlFlowBuilderD2Ev
libnode.so.115:_ZN2v88internal11interpreter27BytecodeArrayRandomIterator10InitializeEv
libnode.so.115:_ZN2v88internal11interpreter27BytecodeArrayRandomIterator21UpdateOffsetFromIndexEv
libnode.so.115:_ZN2v88internal11interpreter27BytecodeArrayRandomIteratorC1ENS0_6HandleINS0_13BytecodeArrayEEEPNS0_4ZoneE
libnode.so.115:_ZN2v88internal11interpreter27BytecodeArrayRandomIteratorC2ENS0_6HandleINS0_13BytecodeArrayEEEPNS0_4ZoneE
libnode.so.115:_ZN2v88internal11interpreter29ConditionalControlFlowBuilder4ElseEv
libnode.so.115:_ZN2v88internal11interpreter29ConditionalControlFlowBuilder4ThenEv
libnode.so.115:_ZN2v88internal11interpreter29ConditionalControlFlowBuilder9JumpToEndEv
libnode.so.115:_ZN2v88internal11interpreter29ConditionalControlFlowBuilderD0Ev
libnode.so.115:_ZN2v88internal11interpreter29ConditionalControlFlowBuilderD1Ev
libnode.so.115:_ZN2v88internal11interpreter29ConditionalControlFlowBuilderD2Ev
libnode.so.115:_ZN2v88internal11interpreter8Register13AreContiguousES2_S2_S2_S2_S2_
libnode.so.115:_ZN2v88internal11interpreter8Register14argument_countEv
libnode.so.115:_ZN2v88internal11interpreter8Register14bytecode_arrayEv
libnode.so.115:_ZN2v88internal11interpreter8Register15bytecode_offsetEv
libnode.so.115:_ZN2v88internal11interpreter8Register15current_contextEv
libnode.so.115:_ZN2v88internal11interpreter8Register16function_closureEv
libnode.so.115:_ZN2v88internal11interpreter8Register18FromParameterIndexEi
libnode.so.115:_ZN2v88internal11interpreter8Register19virtual_accumulatorEv
libnode.so.115:_ZN2v88internal11interpreter9Bytecodes12IsDebugBreakENS1_8BytecodeE
libnode.so.115:_ZN2v88internal11interpreter9Bytecodes13GetDebugBreakENS1_8BytecodeE
libnode.so.115:_ZN2v88internal11interpreter9Bytecodes13kOperandCountE
libnode.so.115:_ZN2v88internal11interpreter9Bytecodes13kOperandSizesE
libnode.so.115:_ZN2v88internal11interpreter9Bytecodes13kOperandTypesE
libnode.so.115:_ZN2v88internal11interpreter9Bytecodes14kBytecodeSizesE
libnode.so.115:_ZN2v88internal11interpreter9Bytecodes15IsStarLookaheadENS1_8BytecodeENS1_12OperandScaleE
libnode.so.115:_ZN2v88internal11interpreter9Bytecodes16GetOperandOffsetENS1_8BytecodeEiNS1_12OperandScaleE
libnode.so.115:_ZN2v88internal11interpreter9Bytecodes17kOperandKindSizesE
libnode.so.115:_ZN2v88internal11interpreter9Bytecodes17kOperandTypeInfosE
libnode.so.115:_ZN2v88internal11interpreter9Bytecodes18BytecodeHasHandlerENS1_8BytecodeENS1_12OperandScaleE
libnode.so.115:_ZN2v88internal11interpreter9Bytecodes20kImplicitRegisterUseE
libnode.so.115:_ZN2v88internal11interpreter9Bytecodes21IsRegisterOperandTypeENS1_11OperandTypeE
libnode.so.115:_ZN2v88internal11interpreter9Bytecodes21IsUnsignedOperandTypeENS1_11OperandTypeE
libnode.so.115:_ZN2v88internal11interpreter9Bytecodes23GetJumpWithoutToBooleanENS1_8BytecodeE
libnode.so.115:_ZN2v88internal11interpreter9Bytecodes25IsRegisterListOperandTypeENS1_11OperandTypeE
libnode.so.115:_ZN2v88internal11interpreter9Bytecodes26IsRegisterInputOperandTypeENS1_11OperandTypeE
libnode.so.115:_ZN2v88internal11interpreter9Bytecodes26MakesCallAlongCriticalPathENS1_8BytecodeE
libnode.so.115:_ZN2v88internal11interpreter9Bytecodes27IsRegisterOutputOperandTypeENS1_11OperandTypeE
libnode.so.115:_ZN2v88internal11interpreter9Bytecodes30IsBytecodeWithScalableOperandsENS1_8BytecodeE
libnode.so.115:_ZN2v88internal11interpreter9Bytecodes8ToStringB5cxx11ENS1_8BytecodeENS1_12OperandScaleEPKc
libnode.so.115:_ZN2v88internal11interpreter9Bytecodes8ToStringENS1_8BytecodeE
libnode.so.115:_ZN2v88internal11interpreterlsERSoRKNS1_11OperandSizeE
libnode.so.115:_ZN2v88internal11interpreterlsERSoRKNS1_11OperandTypeE
libnode.so.115:_ZN2v88internal11interpreterlsERSoRKNS1_12BytecodeNodeE
libnode.so.115:_ZN2v88internal11interpreterlsERSoRKNS1_12OperandScaleE
libnode.so.115:_ZN2v88internal11interpreterlsERSoRKNS1_18BytecodeSourceInfoE
libnode.so.115:_ZN2v88internal11interpreterlsERSoRKNS1_19ImplicitRegisterUseE
libnode.so.115:_ZN2v88internal11interpreterlsERSoRKNS1_20BytecodeArrayBuilder13ToBooleanModeE
libnode.so.115:_ZN2v88internal11interpreterlsERSoRKNS1_8BytecodeE
libnode.so.115:_ZN2v88internal11kLessThan_0EPNS0_8compiler18CodeAssemblerStateE
libnode.so.115:_ZN2v88internal11kSmiConst_0EPNS0_8compiler18CodeAssemblerStateE
libnode.so.115:_ZN2v88internal11kWasmNull_0EPNS0_8compiler18CodeAssemblerStateE
libnode.so.115:_ZN2v88internal11libc_memchrEPvim
libnode.so.115:_ZN2v88internal11libc_memcpyEPvPKvm
libnode.so.115:_ZN2v88internal11libc_memsetEPvim
libnode.so.115:_ZN2v88internal122Is_JSReceiver_OR_Smi_OR_HeapNumber_OR_BigInt_OR_String_OR_Symbol_OR_True_OR_False_OR_Null_OR_Undefined_OR_TheHole_Object_0EPNS0_8compiler18CodeAssemblerStateENS0_5TNodeINS0_7ContextEEENS4_INS0_6ObjectEEE
libnode.so.115:_ZN2v88internal123InitContextSlot_PromiseCapabilitiesExecutorContext_PromiseCapabilitiesExecutorContext_PromiseCapability_PromiseCapability_0EPNS0_8compiler18CodeAssemblerStateENS0_5TNodeINS0_7ContextEEENS4_INS0_7IntPtrTEEENS4_INS0_17PromiseCapabilityEEE
libnode.so.115:_ZN2v88internal123NativeContextSlot_Undefined_OR_CallableApiObject_OR_CallableJSProxy_OR_JSFunction_OR_JSBoundFunction_OR_JSWrappedFunction_0EPNS0_8compiler18CodeAssemblerStateENS0_5TNodeINS0_7ContextEEENS4_INS0_7IntPtrTEEE
libnode.so.115:_ZN2v88internal123UnsafeCast_JSReceiver_OR_Smi_OR_HeapNumber_OR_BigInt_OR_String_OR_Symbol_OR_True_OR_False_OR_Null_OR_Undefined_OR_TheHole_0EPNS0_8compiler18CodeAssemblerStateENS0_5TNodeINS0_7ContextEEENS4_INS0_6ObjectEEE
libnode.so.115:_ZN2v88internal124TimesSizeOf_JSReceiver_OR_Smi_OR_HeapNumber_OR_BigInt_OR_String_OR_Symbol_OR_True_OR_False_OR_Null_OR_Undefined_OR_TheHole_0EPNS0_8compiler18CodeAssemblerStateENS0_5TNodeINS0_7IntPtrTEEE
libnode.so.115:_ZN2v88internal125NewReference_JSReceiver_OR_Smi_OR_HeapNumber_OR_BigInt_OR_String_OR_Symbol_OR_True_OR_False_OR_Null_OR_Undefined_OR_TheHole_0EPNS0_8compiler18CodeAssemblerStateENS0_5TNodeINS0_6ObjectEEENS4_INS0_7IntPtrTEEE
libnode.so.115:_ZN2v88internal126ReferenceCast_Undefined_OR_CallableApiObject_OR_CallableJSProxy_OR_JSFunction_OR_JSBoundFunction_OR_JSWrappedFunction_Object_0EPNS0_8compiler18CodeAssemblerStateENS0_30TorqueStructReference_Object_0E
libnode.so.115:_ZN2v88internal128NewMutableSlice_JSReceiver_OR_Smi_OR_HeapNumber_OR_BigInt_OR_String_OR_Symbol_OR_True_OR_False_OR_Null_OR_Undefined_OR_TheHole_0EPNS0_8compiler18CodeAssemblerStateENS0_5TNodeINS0_6ObjectEEENS4_INS0_7IntPtrTEEES8_
libnode.so.115:_ZN2v88internal12AbstractCode14SourcePositionENS0_16PtrComprCageBaseEi
libnode.so.115:_ZN2v88internal12AbstractCode23SourceStatementPositionENS0_16PtrComprCageBaseEi
libnode.so.115:_ZN2v88internal12AccessorInfo12AppendUniqueEPNS0_7IsolateENS0_6HandleINS0_6ObjectEEENS4_INS0_10FixedArrayEEEi
libnode.so.115:_ZN2v88internal12AccessorInfo17AccessorInfoPrintERSo
libnode.so.115:_ZN2v88internal12AccessorPair12GetComponentEPNS0_7IsolateENS0_6HandleINS0_13NativeContextEEENS4_IS1_EENS0_17AccessorComponentE
libnode.so.115:_ZN2v88internal12AccessorPair4CopyEPNS0_7IsolateENS0_6HandleIS1_EE
libnode.so.115:_ZN2v88internal12AddAssembler15GenerateAddImplEv
libnode.so.115:_ZN2v88internal12AsmJsScanner11ResetLocalsEv
libnode.so.115:_ZN2v88internal12AsmJsScanner13ConsumeNumberEj
libnode.so.115:_ZN2v88internal12AsmJsScanner13ConsumeStringEj
libnode.so.115:_ZN2v88internal12AsmJsScanner13IsNumberStartEj
libnode.so.115:_ZN2v88internal12AsmJsScanner15ConsumeCCommentEv
libnode.so.115:_ZN2v88internal12AsmJsScanner16IsIdentifierPartEj
libnode.so.115:_ZN2v88internal12AsmJsScanner17ConsumeCPPCommentEv
libnode.so.115:_ZN2v88internal12AsmJsScanner17ConsumeIdentifierEj
libnode.so.115:_ZN2v88internal12AsmJsScanner17IsIdentifierStartEj
libnode.so.115:_ZN2v88internal12AsmJsScanner21ConsumeCompareOrShiftEj
libnode.so.115:_ZN2v88internal12AsmJsScanner4NextEv
libnode.so.115:_ZN2v88internal12AsmJsScanner4SeekEm
libnode.so.115:_ZN2v88internal12AsmJsScanner6RewindEv
libnode.so.115:_ZN2v88internal12AsmJsScannerC1EPNS0_20Utf16CharacterStreamE
libnode.so.115:_ZN2v88internal12AsmJsScannerC2EPNS0_20Utf16CharacterStreamE
libnode.so.115:_ZN2v88internal12AstRawString5EqualEPKS1_S3_
libnode.so.115:_ZN2v88internal12AstRawString7CompareEPKS1_S3_
libnode.so.115:_ZN2v88internal12BackingStore10ReallocateEPNS0_7IsolateEm
libnode.so.115:_ZN2v88internal12BackingStore11GrowInPlaceEPNS0_7IsolateEm
libnode.so.115:_ZN2v88internal12BackingStore13ResizeInPlaceEPNS0_7IsolateEm
libnode.so.115:_ZN2v88internal12BackingStore14CopyWasmMemoryEPNS0_7IsolateEmmNS0_14WasmMemoryFlagE
libnode.so.115:_ZN2v88internal12BackingStore14WrapAllocationEPNS0_7IsolateEPvmNS0_10SharedFlagEb
libnode.so.115:_ZN2v88internal12BackingStore14WrapAllocationEPvmPFvS2_mS2_ES2_NS0_10SharedFlagE
libnode.so.115:_ZN2v88internal12BackingStore17EmptyBackingStoreENS0_10SharedFlagE
libnode.so.115:_ZN2v88internal12BackingStore18AllocateWasmMemoryEPNS0_7IsolateEmmNS0_14WasmMemoryFlagENS0_10SharedFlagE
libnode.so.115:_ZN2v88internal12BackingStore19FreeResizableMemoryEv
libnode.so.115:_ZN2v88internal12BackingStore21GrowWasmMemoryInPlaceEPNS0_7IsolateEmm
libnode.so.115:_ZN2v88internal12BackingStore23SetAllocatorFromIsolateEPNS0_7IsolateE
libnode.so.115:_ZN2v88internal12BackingStore27get_shared_wasm_memory_dataEv
libnode.so.115:_ZN2v88internal12BackingStore28AttachSharedWasmMemoryObjectEPNS0_7IsolateENS0_6HandleINS0_16WasmMemoryObjectEEE
libnode.so.115:_ZN2v88internal12BackingStore29BroadcastSharedWasmMemoryGrowEPNS0_7IsolateESt10shared_ptrIS1_E
libnode.so.115:_ZN2v88internal12BackingStore29RemoveSharedWasmMemoryObjectsEPNS0_7IsolateE
libnode.so.115:_ZN2v88internal12BackingStore29UpdateSharedWasmMemoryObjectsEPNS0_7IsolateE
libnode.so.115:_ZN2v88internal12BackingStore33get_v8_api_array_buffer_allocatorEv
libnode.so.115:_ZN2v88internal12BackingStore35TryAllocateAndPartiallyCommitMemoryEPNS0_7IsolateEmmmmmNS0_14WasmMemoryFlagENS0_10SharedFlagE
libnode.so.115:_ZN2v88internal12BackingStore5ClearEv
libnode.so.115:_ZN2v88internal12BackingStore8AllocateEPNS0_7IsolateEmNS0_10SharedFlagENS0_15InitializedFlagE
libnode.so.115:_ZN2v88internal12BackingStoreC1EPvmmmNS0_10SharedFlagENS0_13ResizableFlagEbbbbb
libnode.so.115:_ZN2v88internal12BackingStoreC2EPvmmmNS0_10SharedFlagENS0_13ResizableFlagEbbbbb
libnode.so.115:_ZN2v88internal12BackingStoreD1Ev
libnode.so.115:_ZN2v88internal12BackingStoreD2Ev
libnode.so.115:_ZN2v88internal12Bootstrapper10InitializeEb
libnode.so.115:_ZN2v88internal12Bootstrapper10LogAllMapsEv
libnode.so.115:_ZN2v88internal12Bootstrapper12ArchiveStateEPc
libnode.so.115:_ZN2v88internal12Bootstrapper12RestoreStateEPc
libnode.so.115:_ZN2v88internal12Bootstrapper16NewRemoteContextENS0_11MaybeHandleINS0_13JSGlobalProxyEEENS_5LocalINS_14ObjectTemplateEEE
libnode.so.115:_ZN2v88internal12Bootstrapper17CreateEnvironmentENS0_11MaybeHandleINS0_13JSGlobalProxyEEENS_5LocalINS_14ObjectTemplateEEEPNS_22ExtensionConfigurationEmNS_33DeserializeInternalFieldsCallbackEPNS_14MicrotaskQueueE
libnode.so.115:_ZN2v88internal12Bootstrapper17InstallExtensionsENS0_6HandleINS0_7ContextEEEPNS_22ExtensionConfigurationE
libnode.so.115:_ZN2v88internal12Bootstrapper19FreeThreadResourcesEv
libnode.so.115:_ZN2v88internal12Bootstrapper21ArchiveSpacePerThreadEv
libnode.so.115:_ZN2v88internal12Bootstrapper24InitializeOncePerProcessEv
libnode.so.115:_ZN2v88internal12Bootstrapper7IterateEPNS0_11RootVisitorE
libnode.so.115:_ZN2v88internal12Bootstrapper8TearDownEv
libnode.so.115:_ZN2v88internal12BootstrapperC1EPNS0_7IsolateE
libnode.so.115:_ZN2v88internal12BootstrapperC2EPNS0_7IsolateE
libnode.so.115:_ZN2v88internal12BufferJoin_0EPNS0_8compiler18CodeAssemblerStateENS0_5TNodeINS0_7ContextEEENS0_20TorqueStructBuffer_0ENS4_INS0_6StringEEE
libnode.so.115:_ZN2v88internal12CallSiteInfo11GetTypeNameENS0_6HandleIS1_EE
libnode.so.115:_ZN2v88internal12CallSiteInfo13GetEvalOriginENS0_6HandleIS1_EE
libnode.so.115:_ZN2v88internal12CallSiteInfo13GetLineNumberENS0_6HandleIS1_EE
libnode.so.115:_ZN2v88internal12CallSiteInfo13GetMethodNameENS0_6HandleIS1_EE
libnode.so.115:_ZN2v88internal12CallSiteInfo13GetScriptHashENS0_6HandleIS1_EE
libnode.so.115:_ZN2v88internal12CallSiteInfo15ComputeLocationENS0_6HandleIS1_EEPNS0_15MessageLocationE
libnode.so.115:_ZN2v88internal12CallSiteInfo15GetColumnNumberENS0_6HandleIS1_EE
libnode.so.115:_ZN2v88internal12CallSiteInfo15GetFunctionNameENS0_6HandleIS1_EE
libnode.so.115:_ZN2v88internal12CallSiteInfo17GetSourcePositionENS0_6HandleIS1_EE
libnode.so.115:_ZN2v88internal12CallSiteInfo17GetWasmModuleNameENS0_6HandleIS1_EE
libnode.so.115:_ZN2v88internal12CallSiteInfo20GetFunctionDebugNameENS0_6HandleIS1_EE
libnode.so.115:_ZN2v88internal12CallSiteInfo21ComputeSourcePositionENS0_6HandleIS1_EEi
libnode.so.115:_ZN2v88internal12CallSiteInfo22GetEnclosingLineNumberENS0_6HandleIS1_EE
libnode.so.115:_ZN2v88internal12CallSiteInfo24GetEnclosingColumnNumberENS0_6HandleIS1_EE
libnode.so.115:_ZN2v88internal12CallSiteInfo9GetScriptEPNS0_7IsolateENS0_6HandleIS1_EE
libnode.so.115:_ZN2v88internal12CallableTask17BriefPrintDetailsERSo
libnode.so.115:_ZN2v88internal12Cast_False_0EPNS0_8compiler18CodeAssemblerStateENS0_5TNodeINS0_6ObjectEEEPNS1_18CodeAssemblerLabelE
libnode.so.115:_ZN2v88internal12Cast_False_1EPNS0_8compiler18CodeAssemblerStateENS0_5TNodeINS0_10HeapObjectEEEPNS1_18CodeAssemblerLabelE
libnode.so.115:_ZN2v88internal12Cast_JSAny_0EPNS0_8compiler18CodeAssemblerStateENS0_5TNodeINS0_6ObjectEEEPNS1_18CodeAssemblerLabelE
libnode.so.115:_ZN2v88internal12Cast_JSMap_0EPNS0_8compiler18CodeAssemblerStateENS0_5TNodeINS0_10HeapObjectEEEPNS1_18CodeAssemblerLabelE
libnode.so.115:_ZN2v88internal12Cast_JSSet_0EPNS0_8compiler18CodeAssemblerStateENS0_5TNodeINS0_10HeapObjectEEEPNS1_18CodeAssemblerLabelE
libnode.so.115:_ZN2v88internal12CharacterSet12CanonicalizeEv
libnode.so.115:_ZN2v88internal12CharacterSet6rangesEPNS0_4ZoneE
libnode.so.115:_ZN2v88internal12CoverageInfo14InitializeSlotEiii
libnode.so.115:_ZN2v88internal12CoverageInfo15ResetBlockCountEi
libnode.so.115:_ZN2v88internal12CoverageInfo17CoverageInfoPrintERSoSt10unique_ptrIA_cSt14default_deleteIS4_EE
libnode.so.115:_ZN2v88internal12DbgStreamBuf4syncEv
libnode.so.115:_ZN2v88internal12DbgStreamBuf8overflowEi
libnode.so.115:_ZN2v88internal12DbgStreamBufC1Ev
libnode.so.115:_ZN2v88internal12DbgStreamBufC2Ev
libnode.so.115:_ZN2v88internal12DbgStreamBufD0Ev
libnode.so.115:_ZN2v88internal12DbgStreamBufD1Ev
libnode.so.115:_ZN2v88internal12DbgStreamBufD2Ev
libnode.so.115:_ZN2v88internal12DeserializerINS0_12LocalIsolateEE24PostProcessNewJSReceiverENS0_3MapENS0_6HandleINS0_10JSReceiverEEENS0_12InstanceTypeENS0_13SnapshotSpaceE
libnode.so.115:_ZN2v88internal12DeserializerINS0_7IsolateEE24PostProcessNewJSReceiverENS0_3MapENS0_6HandleINS0_10JSReceiverEEENS0_12InstanceTypeENS0_13SnapshotSpaceE
libnode.so.115:_ZN2v88internal12Disassembler6DecodeEPNS0_7IsolateERSoPhS5_NS0_13CodeReferenceEm
libnode.so.115:_ZN2v88internal12EmbeddedData11FromIsolateEPNS0_7IsolateE
libnode.so.115:_ZN2v88internal12FeedbackCell17FeedbackCellPrintERSo
libnode.so.115:_ZN2v88internal12FlagGetter_0EPNS0_8compiler18CodeAssemblerStateENS0_5TNodeINS0_7ContextEEENS4_INS0_6ObjectEEENS0_8JSRegExp4FlagENS0_7int31_tEPKc
libnode.so.115:_ZN2v88internal12FrameSummary16WasmFrameSummaryC1EPNS0_7IsolateENS0_6HandleINS0_18WasmInstanceObjectEEEPNS0_4wasm8WasmCodeEiib
libnode.so.115:_ZN2v88internal12FrameSummary16WasmFrameSummaryC2EPNS0_7IsolateENS0_6HandleINS0_18WasmInstanceObjectEEEPNS0_4wasm8WasmCodeEiib
libnode.so.115:_ZN2v88internal12FrameSummary22JavaScriptFrameSummary30EnsureSourcePositionsAvailableEv
libnode.so.115:_ZN2v88internal12FrameSummary22JavaScriptFrameSummaryC1EPNS0_7IsolateENS0_6ObjectENS0_10JSFunctionENS0_12AbstractCodeEibNS0_10FixedArrayE
libnode.so.115:_ZN2v88internal12FrameSummary22JavaScriptFrameSummaryC2EPNS0_7IsolateENS0_6ObjectENS0_10JSFunctionENS0_12AbstractCodeEibNS0_10FixedArrayE
libnode.so.115:_ZN2v88internal12FrameSummary30EnsureSourcePositionsAvailableEv
libnode.so.115:_ZN2v88internal12FrameSummary3GetEPKNS0_11CommonFrameEi
libnode.so.115:_ZN2v88internal12FrameSummary6GetTopEPKNS0_11CommonFrameE
libnode.so.115:_ZN2v88internal12FrameSummary9GetBottomEPKNS0_11CommonFrameE
libnode.so.115:_ZN2v88internal12FrameSummary9GetSingleEPKNS0_11CommonFrameE
libnode.so.115:_ZN2v88internal12FrameSummaryD1Ev
libnode.so.115:_ZN2v88internal12FrameSummaryD2Ev
libnode.so.115:_ZN2v88internal12FreeListMany14GetPageForSizeEm
libnode.so.115:_ZN2v88internal12FreeListMany21GuaranteedAllocatableEm
libnode.so.115:_ZN2v88internal12FreeListMany8AllocateEmPmNS0_16AllocationOriginE
libnode.so.115:_ZN2v88internal12FreeListManyC1Ev
libnode.so.115:_ZN2v88internal12FreeListManyC2Ev
libnode.so.115:_ZN2v88internal12FreeListManyD0Ev
libnode.so.115:_ZN2v88internal12FreeListManyD1Ev
libnode.so.115:_ZN2v88internal12FreeListManyD2Ev
libnode.so.115:_ZN2v88internal12GetFileMutexEv
libnode.so.115:_ZN2v88internal12GetLazySmi_0EPNS0_8compiler18CodeAssemblerStateE
libnode.so.115:_ZN2v88internal12HandlerTable11LookupRangeEiPiPNS1_15CatchPredictionE
libnode.so.115:_ZN2v88internal12HandlerTable11SetRangeEndEii
libnode.so.115:_ZN2v88internal12HandlerTable12LookupReturnEi
libnode.so.115:_ZN2v88internal12HandlerTable12SetRangeDataEii
libnode.so.115:_ZN2v88internal12HandlerTable13SetRangeStartEii
libnode.so.115:_ZN2v88internal12HandlerTable14LengthForRangeEi
libnode.so.115:_ZN2v88internal12HandlerTable15EmitReturnEntryEPNS0_9AssemblerEii
libnode.so.115:_ZN2v88internal12HandlerTable15SetRangeHandlerEiiNS1_15CatchPredictionE
libnode.so.115:_ZN2v88internal12HandlerTable17EntrySizeFromModeENS1_12EncodingModeE
libnode.so.115:_ZN2v88internal12HandlerTable20EmitReturnTableStartEPNS0_9AssemblerE
libnode.so.115:_ZN2v88internal12HandlerTable22HandlerTableRangePrintERSo
libnode.so.115:_ZN2v88internal12HandlerTable23HandlerTableReturnPrintERSo
libnode.so.115:_ZN2v88internal12HandlerTableC1ENS0_13BytecodeArrayE
libnode.so.115:_ZN2v88internal12HandlerTableC1ENS0_4CodeE
libnode.so.115:_ZN2v88internal12HandlerTableC1ENS0_9ByteArrayE
libnode.so.115:_ZN2v88internal12HandlerTableC1EPKNS0_4wasm8WasmCodeE
libnode.so.115:_ZN2v88internal12HandlerTableC1EmiNS1_12EncodingModeE
libnode.so.115:_ZN2v88internal12HandlerTableC2ENS0_13BytecodeArrayE
libnode.so.115:_ZN2v88internal12HandlerTableC2ENS0_4CodeE
libnode.so.115:_ZN2v88internal12HandlerTableC2ENS0_9ByteArrayE
libnode.so.115:_ZN2v88internal12HandlerTableC2EPKNS0_4wasm8WasmCodeE
libnode.so.115:_ZN2v88internal12HandlerTableC2EmiNS1_12EncodingModeE
libnode.so.115:_ZN2v88internal12HeapProfiler11GetSnapshotEi
libnode.so.115:_ZN2v88internal12HeapProfiler12QueryObjectsENS0_6HandleINS0_7ContextEEEPNS_20QueryObjectPredicateEPSt6vectorINS_6GlobalINS_6ObjectEEESaISA_EE
libnode.so.115:_ZN2v88internal12HeapProfiler12TakeSnapshotENS_12HeapProfiler19HeapSnapshotOptionsE
libnode.so.115:_ZN2v88internal12HeapProfiler14RemoveSnapshotEPNS0_12HeapSnapshotE
libnode.so.115:_ZN2v88internal12HeapProfiler15AllocationEventEmi
libnode.so.115:_ZN2v88internal12HeapProfiler15GetDetachednessENS_5LocalINS_5ValueEEEt
libnode.so.115:_ZN2v88internal12HeapProfiler15ObjectMoveEventEmmi
libnode.so.115:_ZN2v88internal12HeapProfiler18BuildEmbedderGraphEPNS0_7IsolateEPNS_13EmbedderGraphE
libnode.so.115:_ZN2v88internal12HeapProfiler18ClearHeapObjectMapEv
libnode.so.115:_ZN2v88internal12HeapProfiler18DeleteAllSnapshotsEv
libnode.so.115:_ZN2v88internal12HeapProfiler18FindHeapObjectByIdEj
libnode.so.115:_ZN2v88internal12HeapProfiler19GetSnapshotObjectIdENS0_6HandleINS0_6ObjectEEE
libnode.so.115:_ZN2v88internal12HeapProfiler19GetSnapshotObjectIdEPv
libnode.so.115:_ZN2v88internal12HeapProfiler20GetAllocationProfileEv
libnode.so.115:_ZN2v88internal12HeapProfiler20PushHeapObjectsStatsEPNS_12OutputStreamEPl
libnode.so.115:_ZN2v88internal12HeapProfiler21UpdateObjectSizeEventEmi
libnode.so.115:_ZN2v88internal12HeapProfiler23StopHeapObjectsTrackingEv
libnode.so.115:_ZN2v88internal12HeapProfiler24MaybeClearStringsStorageEv
libnode.so.115:_ZN2v88internal12HeapProfiler24StartHeapObjectsTrackingEb
libnode.so.115:_ZN2v88internal12HeapProfiler24StopSamplingHeapProfilerEv
libnode.so.115:_ZN2v88internal12HeapProfiler25StartSamplingHeapProfilerEmiNS_12HeapProfiler13SamplingFlagsE
libnode.so.115:_ZN2v88internal12HeapProfiler26SetGetDetachednessCallbackEPFNS_13EmbedderGraph4Node12DetachednessEPNS_7IsolateERKNS_5LocalINS_5ValueEEEtPvESC_
libnode.so.115:_ZN2v88internal12HeapProfiler29AddBuildEmbedderGraphCallbackEPFvPNS_7IsolateEPNS_13EmbedderGraphEPvES6_
libnode.so.115:_ZN2v88internal12HeapProfiler32RemoveBuildEmbedderGraphCallbackEPFvPNS_7IsolateEPNS_13EmbedderGraphEPvES6_
libnode.so.115:_ZN2v88internal12HeapProfilerC1EPNS0_4HeapE
libnode.so.115:_ZN2v88internal12HeapProfilerC2EPNS0_4HeapE
libnode.so.115:_ZN2v88internal12HeapProfilerD0Ev
libnode.so.115:_ZN2v88internal12HeapProfilerD1Ev
libnode.so.115:_ZN2v88internal12HeapProfilerD2Ev
libnode.so.115:_ZN2v88internal12HeapSnapshot11AddLocationEPNS0_9HeapEntryEiii
libnode.so.115:_ZN2v88internal12HeapSnapshot12AddRootEntryEv
libnode.so.115:_ZN2v88internal12HeapSnapshot12FillChildrenEv
libnode.so.115:_ZN2v88internal12HeapSnapshot12GetEntryByIdEj
libnode.so.115:_ZN2v88internal12HeapSnapshot15AddGcRootsEntryEv
libnode.so.115:_ZN2v88internal12HeapSnapshot17AddGcSubrootEntryENS0_4RootEj
libnode.so.115:_ZN2v88internal12HeapSnapshot22RememberLastJSObjectIdEv
libnode.so.115:_ZN2v88internal12HeapSnapshot23AddSyntheticRootEntriesEv
libnode.so.115:_ZN2v88internal12HeapSnapshot5PrintEi
libnode.so.115:_ZN2v88internal12HeapSnapshot6DeleteEv
libnode.so.115:_ZN2v88internal12HeapSnapshot8AddEntryENS0_9HeapEntry4TypeEPKcjmj
libnode.so.115:_ZN2v88internal12HeapSnapshotC1EPNS0_12HeapProfilerENS_12HeapProfiler16HeapSnapshotModeENS4_12NumericsModeE
libnode.so.115:_ZN2v88internal12HeapSnapshotC2EPNS0_12HeapProfilerENS_12HeapProfiler16HeapSnapshotModeENS4_12NumericsModeE
libnode.so.115:_ZN2v88internal12IntToCStringEiNS_4base6VectorIcEE
libnode.so.115:_ZN2v88internal12InvertSign_0EPNS0_8compiler18CodeAssemblerStateENS0_5TNodeINS0_7Uint32TEEE
libnode.so.115:_ZN2v88internal12InvokeThen_0EPNS0_8compiler18CodeAssemblerStateENS0_5TNodeINS0_7ContextEEENS4_INS0_13NativeContextEEENS4_INS0_6ObjectEEESA_
libnode.so.115:_ZN2v88internal12InvokeThen_1EPNS0_8compiler18CodeAssemblerStateENS0_5TNodeINS0_7ContextEEENS4_INS0_13NativeContextEEENS4_INS0_6ObjectEEESA_SA_
libnode.so.115:_ZN2v88internal12IsFastLocaleENS0_6ObjectE
libnode.so.115:_ZN2v88internal12JSListFormat10FormatListEPNS0_7IsolateENS0_6HandleIS1_EENS4_INS0_10FixedArrayEEE
libnode.so.115:_ZN2v88internal12JSListFormat15ResolvedOptionsEPNS0_7IsolateENS0_6HandleIS1_EE
libnode.so.115:_ZN2v88internal12JSListFormat17FormatListToPartsEPNS0_7IsolateENS0_6HandleIS1_EENS4_INS0_10FixedArrayEEE
libnode.so.115:_ZN2v88internal12JSListFormat17JSListFormatPrintERSo
libnode.so.115:_ZN2v88internal12JSListFormat19GetAvailableLocalesB5cxx11Ev
libnode.so.115:_ZN2v88internal12JSListFormat3NewEPNS0_7IsolateENS0_6HandleINS0_3MapEEENS4_INS0_6ObjectEEES8_
libnode.so.115:_ZN2v88internal12JSTypedArray17DefineOwnPropertyEPNS0_7IsolateENS0_6HandleIS1_EENS4_INS0_6ObjectEEEPNS0_18PropertyDescriptorENS_5MaybeINS0_11ShouldThrowEEE
libnode.so.115:_ZN2v88internal12JSTypedArray17JSTypedArrayPrintERSo
libnode.so.115:_ZN2v88internal12JSTypedArray40LengthTrackingGsabBackedTypedArrayLengthEPNS0_7IsolateEm
libnode.so.115:_ZN2v88internal12JSTypedArray4typeEv
libnode.so.115:_ZN2v88internal12JSTypedArray9GetBufferEv
libnode.so.115:_ZN2v88internal12KeyedStoreIC18UpdateStoreElementENS0_6HandleINS0_3MapEEENS0_20KeyedAccessStoreModeES4_
libnode.so.115:_ZN2v88internal12KeyedStoreIC19StoreElementHandlerENS0_6HandleINS0_3MapEEENS0_20KeyedAccessStoreModeENS0_11MaybeHandleINS0_6ObjectEEE
libnode.so.115:_ZN2v88internal12KeyedStoreIC31StoreElementPolymorphicHandlersEPSt6vectorISt4pairINS0_6HandleINS0_3MapEEENS0_17MaybeObjectHandleEESaIS8_EENS0_20KeyedAccessStoreModeE
libnode.so.115:_ZN2v88internal12KeyedStoreIC5StoreENS0_6HandleINS0_6ObjectEEES4_S4_
libnode.so.115:_ZN2v88internal12LoadGlobalIC4LoadENS0_6HandleINS0_4NameEEEb
libnode.so.115:_ZN2v88internal12LocalFactory11AllocateRawEiNS0_14AllocationTypeENS0_19AllocationAlignmentE
libnode.so.115:_ZN2v88internal12LocalFactory15AddToScriptListENS0_6HandleINS0_6ScriptEEE
libnode.so.115:_ZN2v88internal12LocalFactory22NumberToStringCacheGetENS0_6ObjectEi
libnode.so.115:_ZN2v88internal12LocalFactory22NumberToStringCacheSetENS0_6HandleINS0_6ObjectEEEiNS2_INS0_6StringEEE
libnode.so.115:_ZN2v88internal12LocalFactory23NumberToStringCacheHashENS0_3SmiE
libnode.so.115:_ZN2v88internal12LocalFactory23NumberToStringCacheHashEd
libnode.so.115:_ZN2v88internal12LocalFactoryC1EPNS0_7IsolateE
libnode.so.115:_ZN2v88internal12LocalFactoryC2EPNS0_7IsolateE
libnode.so.115:_ZN2v88internal12LocalHandles18RemoveUnusedBlocksEv
libnode.so.115:_ZN2v88internal12LocalHandles7IterateEPNS0_11RootVisitorE
libnode.so.115:_ZN2v88internal12LocalHandles8AddBlockEv
libnode.so.115:_ZN2v88internal12LocalHandlesC1Ev
libnode.so.115:_ZN2v88internal12LocalHandlesC2Ev
libnode.so.115:_ZN2v88internal12LocalHandlesD1Ev
libnode.so.115:_ZN2v88internal12LocalHandlesD2Ev
libnode.so.115:_ZN2v88internal12LocalIsolate13DefaultLocaleB5cxx11Ev
libnode.so.115:_ZN2v88internal12LocalIsolate15GetNextScriptIdEv
libnode.so.115:_ZN2v88internal12LocalIsolate25InitializeBigIntProcessorEv
libnode.so.115:_ZN2v88internal12LocalIsolate27RegisterDeserializerStartedEv
libnode.so.115:_ZN2v88internal12LocalIsolate28RegisterDeserializerFinishedEv
libnode.so.115:_ZN2v88internal12LocalIsolateC1EPNS0_7IsolateENS0_10ThreadKindE
libnode.so.115:_ZN2v88internal12LocalIsolateC2EPNS0_7IsolateENS0_10ThreadKindE
libnode.so.115:_ZN2v88internal12LocalIsolateD1Ev
libnode.so.115:_ZN2v88internal12LocalIsolateD2Ev
libnode.so.115:_ZN2v88internal12MakeBigInt_0EPNS0_8compiler18CodeAssemblerStateENS0_5TNodeINS0_7ContextEEENS4_INS0_7Uint32TEEES8_b
libnode.so.115:_ZN2v88internal12NewJSArray_0EPNS0_8compiler18CodeAssemblerStateENS0_5TNodeINS0_7ContextEEENS4_INS0_3MapEEENS4_INS0_14FixedArrayBaseEEE
libnode.so.115:_ZN2v88internal12NewJSArray_1EPNS0_8compiler18CodeAssemblerStateENS0_5TNodeINS0_7ContextEEE
libnode.so.115:_ZN2v88internal12OFStreamBase4syncEv
libnode.so.115:_ZN2v88internal12OFStreamBase6xsputnEPKcl
libnode.so.115:_ZN2v88internal12OFStreamBase8overflowEi
libnode.so.115:_ZN2v88internal12OFStreamBaseC1EP8_IO_FILE
libnode.so.115:_ZN2v88internal12OFStreamBaseC2EP8_IO_FILE
libnode.so.115:_ZN2v88internal12PassesFilterENS_4base6VectorIKcEES4_
libnode.so.115:_ZN2v88internal12PreparseData17PreparseDataPrintERSo
libnode.so.115:_ZN2v88internal12PrintIsolateEPvPKcz
libnode.so.115:_ZN2v88internal12PropertyCell11InitialTypeEPNS0_7IsolateENS0_6ObjectE
libnode.so.115:_ZN2v88internal12PropertyCell11UpdatedTypeEPNS0_7IsolateES1_NS0_6ObjectENS0_15PropertyDetailsE
libnode.so.115:_ZN2v88internal12PropertyCell17PropertyCellPrintERSo
libnode.so.115:_ZN2v88internal12PropertyCell18ClearAndInvalidateENS0_13ReadOnlyRootsE
libnode.so.115:_ZN2v88internal12PropertyCell19InvalidateProtectorEv
libnode.so.115:_ZN2v88internal12PropertyCell21CheckDataIsCompatibleENS0_15PropertyDetailsENS0_6ObjectE
libnode.so.115:_ZN2v88internal12PropertyCell21PrepareForAndSetValueEPNS0_7IsolateENS0_6HandleINS0_16GlobalDictionaryEEENS0_13InternalIndexENS4_INS0_6ObjectEEENS0_15PropertyDetailsE
libnode.so.115:_ZN2v88internal12PropertyCell25InvalidateAndReplaceEntryEPNS0_7IsolateENS0_6HandleINS0_16GlobalDictionaryEEENS0_13InternalIndexENS0_15PropertyDetailsENS4_INS0_6ObjectEEE
libnode.so.115:_ZN2v88internal12ReadOnlyHeap14OnHeapTearDownEPNS0_4HeapE
libnode.so.115:_ZN2v88internal12ReadOnlyHeap15InitFromIsolateEPNS0_7IsolateE
libnode.so.115:_ZN2v88internal12ReadOnlyHeap21OnCreateRootsCompleteEPNS0_7IsolateE
libnode.so.115:_ZN2v88internal12ReadOnlyHeap22DeserializeIntoIsolateEPNS0_7IsolateEPNS0_12SnapshotDataEb
libnode.so.115:_ZN2v88internal12ReadOnlyHeap23IsSharedMemoryAvailableEv
libnode.so.115:_ZN2v88internal12ReadOnlyHeap25ExtendReadOnlyObjectCacheEv
libnode.so.115:_ZN2v88internal12ReadOnlyHeap27OnCreateHeapObjectsCompleteEPNS0_7IsolateE
libnode.so.115:_ZN2v88internal12ReadOnlyHeap31PopulateReadOnlySpaceStatisticsEPNS_22SharedMemoryStatisticsE
libnode.so.115:_ZN2v88internal12ReadOnlyHeap32CreateInitalHeapForBootstrappingEPNS0_7IsolateESt10shared_ptrINS0_17ReadOnlyArtifactsEE
libnode.so.115:_ZN2v88internal12ReadOnlyHeap5SetUpEPNS0_7IsolateEPNS0_12SnapshotDataEb
libnode.so.115:_ZN2v88internal12ReadOnlyHeap8ContainsENS0_10HeapObjectE
libnode.so.115:_ZN2v88internal12ReadOnlyHeap8ContainsEm
libnode.so.115:_ZN2v88internal12ReadOnlyHeapC1EPS1_PNS0_13ReadOnlySpaceE
libnode.so.115:_ZN2v88internal12ReadOnlyHeapC2EPS1_PNS0_13ReadOnlySpaceE
libnode.so.115:_ZN2v88internal12ReadOnlyPage21MakeHeaderRelocatableEv
libnode.so.115:_ZN2v88internal12ReadOnlyPage21ShrinkToHighWaterMarkEv
libnode.so.115:_ZN2v88internal12ReadOnlyPageC1EPNS0_4HeapEPNS0_9BaseSpaceEmmmNS0_13VirtualMemoryE
libnode.so.115:_ZN2v88internal12ReadOnlyPageC2EPNS0_4HeapEPNS0_9BaseSpaceEmmmNS0_13VirtualMemoryE
libnode.so.115:_ZN2v88internal12RegExpExec_0EPNS0_8compiler18CodeAssemblerStateENS0_5TNodeINS0_7ContextEEENS4_INS0_10JSReceiverEEENS4_INS0_6StringEEE
libnode.so.115:_ZN2v88internal12RegExpParser25ParseRegExpFromHeapStringEPNS0_7IsolateEPNS0_4ZoneENS0_6HandleINS0_6StringEEENS_4base5FlagsINS0_10RegExpFlagEiEEPNS0_17RegExpCompileDataE
libnode.so.115:_ZN2v88internal12ReleasePagesEPNS_13PageAllocatorEPvmm
libnode.so.115:_ZN2v88internal12RootIndexMapC1EPNS0_7IsolateE
libnode.so.115:_ZN2v88internal12RootIndexMapC2EPNS0_7IsolateE
libnode.so.115:_ZN2v88internal12Runtime_CallEiPmPNS0_7IsolateE
libnode.so.115:_ZN2v88internal12SHA256_finalEPNS0_8HASH_CTXE
libnode.so.115:_ZN2v88internal12SlowSplice_0EPNS0_8compiler18CodeAssemblerStateENS0_5TNodeINS0_7ContextEEENS0_21TorqueStructArgumentsENS4_INS0_10JSReceiverEEENS4_INS0_6UnionTINS0_3SmiENS0_10HeapNumberEEEEESE_NS4_ISB_EESE_
libnode.so.115:_ZN2v88internal12SnapshotDataC1EPKNS0_10SerializerE
libnode.so.115:_ZN2v88internal12SnapshotDataC2EPKNS0_10SerializerE
libnode.so.115:_ZN2v88internal12StatsCounter22SetupPtrFromStatsTableEv
libnode.so.115:_ZN2v88internal12StatsCounter7EnabledEv
libnode.so.115:_ZN2v88internal12StdoutStream14GetStdoutMutexEv
libnode.so.115:_ZN2v88internal12StoreHandler10StoreProxyEPNS0_7IsolateENS0_6HandleINS0_3MapEEENS4_INS0_7JSProxyEEENS4_INS0_10JSReceiverEEE
libnode.so.115:_ZN2v88internal12StoreHandler11StoreGlobalENS0_6HandleINS0_12PropertyCellEEE
libnode.so.115:_ZN2v88internal12StoreHandler12PrintHandlerENS0_6ObjectERSo
libnode.so.115:_ZN2v88internal12StoreHandler15StoreTransitionEPNS0_7IsolateENS0_6HandleINS0_3MapEEE
libnode.so.115:_ZN2v88internal12StoreHandler17StoreHandlerPrintERSo
libnode.so.115:_ZN2v88internal12StoreHandler18StoreOwnTransitionEPNS0_7IsolateENS0_6HandleINS0_3MapEEE
libnode.so.115:_ZN2v88internal12StoreHandler21StoreThroughPrototypeEPNS0_7IsolateENS0_6HandleINS0_3MapEEENS4_INS0_10JSReceiverEEENS4_INS0_3SmiEEENS0_17MaybeObjectHandleESB_
libnode.so.115:_ZN2v88internal12StoreHandler22StoreElementTransitionEPNS0_7IsolateENS0_6HandleINS0_3MapEEES6_NS0_20KeyedAccessStoreModeENS0_11MaybeHandleINS0_6ObjectEEE
libnode.so.115:_ZN2v88internal12StoreHandler23GetKeyedAccessStoreModeENS0_11MaybeObjectE
libnode.so.115:_ZN2v88internal12StringHasher18MakeArrayIndexHashEji
libnode.so.115:_ZN2v88internal12StringStream11PrintObjectENS0_6ObjectE
libnode.so.115:_ZN2v88internal12StringStream12OutputToFileEP8_IO_FILE
libnode.so.115:_ZN2v88internal12StringStream13PrintFunctionENS0_10JSFunctionENS0_6ObjectE
libnode.so.115:_ZN2v88internal12StringStream13PrintUsingMapENS0_8JSObjectE
libnode.so.115:_ZN2v88internal12StringStream14PrintByteArrayENS0_9ByteArrayE
libnode.so.115:_ZN2v88internal12StringStream14PrintPrototypeENS0_10JSFunctionENS0_6ObjectE
libnode.so.115:_ZN2v88internal12StringStream15PrintFixedArrayENS0_10FixedArrayEj
libnode.so.115:_ZN2v88internal12StringStream25ClearMentionedObjectCacheEPNS0_7IsolateE
libnode.so.115:_ZN2v88internal12StringStream25PrintMentionedObjectCacheEPNS0_7IsolateE
libnode.so.115:_ZN2v88internal12StringStream27PrintSecurityTokenIfChangedENS0_10JSFunctionE
libnode.so.115:_ZN2v88internal12StringStream3AddENS_4base6VectorIKcEENS3_INS1_6FmtElmEEE
libnode.so.115:_ZN2v88internal12StringStream3LogEPNS0_7IsolateE
libnode.so.115:_ZN2v88internal12StringStream3PutENS0_6StringE
libnode.so.115:_ZN2v88internal12StringStream3PutENS0_6StringEii
libnode.so.115:_ZN2v88internal12StringStream3PutEc
libnode.so.115:_ZN2v88internal12StringStream8ToStringEPNS0_7IsolateE
libnode.so.115:_ZN2v88internal12StringStream9PrintNameENS0_6ObjectE
libnode.so.115:_ZN2v88internal12StringTrim_0EPNS0_8compiler18CodeAssemblerStateENS0_5TNodeINS0_7ContextEEENS4_INS0_6ObjectEEENS0_21TorqueStructArgumentsEPKcNS0_6String8TrimModeE
libnode.so.115:_ZN2v88internal12TemplateList3AddEPNS0_7IsolateENS0_6HandleIS1_EENS4_INS0_6ObjectEEE
libnode.so.115:_ZN2v88internal12TemplateList3NewEPNS0_7IsolateEi
libnode.so.115:_ZN2v88internal12TestCatch1_0EPNS0_8compiler18CodeAssemblerStateENS0_5TNodeINS0_7ContextEEE
libnode.so.115:_ZN2v88internal12TestCatch2_0EPNS0_8compiler18CodeAssemblerStateENS0_5TNodeINS0_7ContextEEE
libnode.so.115:_ZN2v88internal12TestCatch3_0EPNS0_8compiler18CodeAssemblerStateENS0_5TNodeINS0_7ContextEEE
libnode.so.115:_ZN2v88internal12TestFrame1_0EPNS0_8compiler18CodeAssemblerStateENS0_5TNodeINS0_7ContextEEE
libnode.so.115:_ZN2v88internal12TestSlices_0EPNS0_8compiler18CodeAssemblerStateE
libnode.so.115:_ZN2v88internal12ToCharCode_0EPNS0_8compiler18CodeAssemblerStateENS0_5TNodeINS0_7Uint32TEEE
libnode.so.115:_ZN2v88internal12ToDateStringEdPNS0_9DateCacheENS0_16ToDateStringModeE
libnode.so.115:_ZN2v88internal12TracingFlags10zone_statsE
libnode.so.115:_ZN2v88internal12TracingFlags13runtime_statsE
libnode.so.115:_ZN2v88internal12TracingFlags2gcE
libnode.so.115:_ZN2v88internal12TracingFlags8gc_statsE
libnode.so.115:_ZN2v88internal12TracingFlags8ic_statsE
libnode.so.115:_ZN2v88internal12TypedSlotSet17ClearInvalidSlotsERKSt3mapIjjSt4lessIjESaISt4pairIKjjEEE
libnode.so.115:_ZN2v88internal12TypedSlotSet20AssertNoInvalidSlotsERKSt3mapIjjSt4lessIjESaISt4pairIKjjEEE
libnode.so.115:_ZN2v88internal12V8FileLogger10LogAllMapsEv
libnode.so.115:_ZN2v88internal12V8FileLogger10MapDetailsENS0_3MapE
libnode.so.115:_ZN2v88internal12V8FileLogger10TimerEventENS_14LogEventStatusEPKc
libnode.so.115:_ZN2v88internal12V8FileLogger10is_loggingEv
libnode.so.115:_ZN2v88internal12V8FileLogger11DeleteEventEPKcPv
libnode.so.115:_ZN2v88internal12V8FileLogger11LogBuiltinsEv
libnode.so.115:_ZN2v88internal12V8FileLogger11ScriptEventENS0_15ScriptEventTypeEi
libnode.so.115:_ZN2v88internal12V8FileLogger11StringEventEPKcS3_
libnode.so.115:_ZN2v88internal12V8FileLogger12IntPtrTEventEPKcl
libnode.so.115:_ZN2v88internal12V8FileLogger13CallbackEventENS0_6HandleINS0_4NameEEEm
libnode.so.115:_ZN2v88internal12V8FileLogger13CodeMoveEventENS0_17InstructionStreamES2_
libnode.so.115:_ZN2v88internal12V8FileLogger13CodeNameEventEmiPKc
libnode.so.115:_ZN2v88internal12V8FileLogger13FunctionEventEPKcidiiNS0_6StringE
libnode.so.115:_ZN2v88internal12V8FileLogger13FunctionEventEPKcidiiS3_mb
libnode.so.115:_ZN2v88internal12V8FileLogger13ScriptDetailsENS0_6ScriptE
libnode.so.115:_ZN2v88internal12V8FileLogger14CodeDeoptEventENS0_6HandleINS0_4CodeEEENS0_14DeoptimizeKindEmi
libnode.so.115:_ZN2v88internal12V8FileLogger14LogCodeObjectsEv
libnode.so.115:_ZN2v88internal12V8FileLogger15CodeCreateEventENS0_16LogEventListener7CodeTagENS0_6HandleINS0_12AbstractCodeEEENS4_INS0_18SharedFunctionInfoEEENS4_INS0_4NameEEE
libnode.so.115:_ZN2v88internal12V8FileLogger15CodeCreateEventENS0_16LogEventListener7CodeTagENS0_6HandleINS0_12AbstractCodeEEENS4_INS0_18SharedFunctionInfoEEENS4_INS0_4NameEEEii
libnode.so.115:_ZN2v88internal12V8FileLogger15CodeCreateEventENS0_16LogEventListener7CodeTagENS0_6HandleINS0_12AbstractCodeEEENS4_INS0_4NameEEE
libnode.so.115:_ZN2v88internal12V8FileLogger15CodeCreateEventENS0_16LogEventListener7CodeTagENS0_6HandleINS0_12AbstractCodeEEEPKc
libnode.so.115:_ZN2v88internal12V8FileLogger15CodeCreateEventENS0_16LogEventListener7CodeTagEPKNS0_4wasm8WasmCodeENS_4base6VectorIKcEEPSA_ii
libnode.so.115:_ZN2v88internal12V8FileLogger15UpdateIsLoggingEb
libnode.so.115:_ZN2v88internal12V8FileLogger16CurrentTimeEventEv
libnode.so.115:_ZN2v88internal12V8FileLogger16SharedLibraryEndEv
libnode.so.115:_ZN2v88internal12V8FileLogger17BytecodeMoveEventENS0_13BytecodeArrayES2_
libnode.so.115:_ZN2v88internal12V8FileLogger17CodeMovingGCEventEv
libnode.so.115:_ZN2v88internal12V8FileLogger17MoveEventInternalENS0_16LogEventListener5EventEmm
libnode.so.115:_ZN2v88internal12V8FileLogger17ProcessDeoptEventENS0_6HandleINS0_4CodeEEENS0_14SourcePositionEPKcS7_
libnode.so.115:_ZN2v88internal12V8FileLogger18LogCodeDisassembleENS0_6HandleINS0_12AbstractCodeEEE
libnode.so.115:_ZN2v88internal12V8FileLogger18ProfilerBeginEventEv
libnode.so.115:_ZN2v88internal12V8FileLogger18SharedLibraryEventERKNSt7__cxx1112basic_stringIcSt11char_traitsIcESaIcEEEmml
libnode.so.115:_ZN2v88internal12V8FileLogger18StopProfilerThreadEv
libnode.so.115:_ZN2v88internal12V8FileLogger19AddLogEventListenerEPNS0_16LogEventListenerE
libnode.so.115:_ZN2v88internal12V8FileLogger19CodeDisableOptEventENS0_6HandleINS0_12AbstractCodeEEENS2_INS0_18SharedFunctionInfoEEE
libnode.so.115:_ZN2v88internal12V8FileLogger19FeedbackVectorEventENS0_14FeedbackVectorENS0_12AbstractCodeE
libnode.so.115:_ZN2v88internal12V8FileLogger19GetterCallbackEventENS0_6HandleINS0_4NameEEEm
libnode.so.115:_ZN2v88internal12V8FileLogger19LogExistingFunctionENS0_6HandleINS0_18SharedFunctionInfoEEENS2_INS0_12AbstractCodeEEE
libnode.so.115:_ZN2v88internal12V8FileLogger19SetCodeEventHandlerEjPFvPKNS_12JitCodeEventEE
libnode.so.115:_ZN2v88internal12V8FileLogger19SetterCallbackEventENS0_6HandleINS0_4NameEEEm
libnode.so.115:_ZN2v88internal12V8FileLogger20LogAccessorCallbacksEv
libnode.so.115:_ZN2v88internal12V8FileLogger20LogCompiledFunctionsEb
libnode.so.115:_ZN2v88internal12V8FileLogger20UncheckedStringEventEPKcS3_
libnode.so.115:_ZN2v88internal12V8FileLogger21CallbackEventInternalEPKcNS0_6HandleINS0_4NameEEEm
libnode.so.115:_ZN2v88internal12V8FileLogger21CompilationCacheEventEPKcS3_NS0_18SharedFunctionInfoE
libnode.so.115:_ZN2v88internal12V8FileLogger21EnsureLogScriptSourceENS0_6ScriptE
libnode.so.115:_ZN2v88internal12V8FileLogger21RegExpCodeCreateEventENS0_6HandleINS0_12AbstractCodeEEENS2_INS0_6StringEEE
libnode.so.115:_ZN2v88internal12V8FileLogger21RuntimeCallTimerEventEv
libnode.so.115:_ZN2v88internal12V8FileLogger21TearDownAndGetLogFileEv
libnode.so.115:_ZN2v88internal12V8FileLogger22RemoveLogEventListenerEPNS0_16LogEventListenerE
libnode.so.115:_ZN2v88internal12V8FileLogger24LogSourceCodeInformationENS0_6HandleINS0_12AbstractCodeEEENS2_INS0_18SharedFunctionInfoEEE
libnode.so.115:_ZN2v88internal12V8FileLogger25CodeDependencyChangeEventENS0_6HandleINS0_4CodeEEENS2_INS0_18SharedFunctionInfoEEEPKc
libnode.so.115:_ZN2v88internal12V8FileLogger26CodeLinePosInfoRecordEventEmNS0_9ByteArrayENS_12JitCodeEvent8CodeTypeE
libnode.so.115:_ZN2v88internal12V8FileLogger27SharedFunctionInfoMoveEventEmm
libnode.so.115:_ZN2v88internal12V8FileLogger30WasmCodeLinePosInfoRecordEventEmNS_4base6VectorIKhEE
libnode.so.115:_ZN2v88internal12V8FileLogger4TimeEv
libnode.so.115:_ZN2v88internal12V8FileLogger5SetUpEPNS0_7IsolateE
libnode.so.115:_ZN2v88internal12V8FileLogger5kNextE
libnode.so.115:_ZN2v88internal12V8FileLogger7ICEventEPKcbNS0_6HandleINS0_3MapEEENS4_INS0_6ObjectEEEccS3_S3_
libnode.so.115:_ZN2v88internal12V8FileLogger7samplerEv
libnode.so.115:_ZN2v88internal12V8FileLogger8MapEventEPKcNS0_6HandleINS0_3MapEEES6_S3_NS4_INS0_10HeapObjectEEE
libnode.so.115:_ZN2v88internal12V8FileLogger8NewEventEPKcPvm
libnode.so.115:_ZN2v88internal12V8FileLogger9LateSetupEPNS0_7IsolateE
libnode.so.115:_ZN2v88internal12V8FileLogger9MapCreateENS0_3MapE
libnode.so.115:_ZN2v88internal12V8FileLogger9TickEventEPNS0_10TickSampleEb
libnode.so.115:_ZN2v88internal12V8FileLoggerC1EPNS0_7IsolateE
libnode.so.115:_ZN2v88internal12V8FileLoggerC2EPNS0_7IsolateE
libnode.so.115:_ZN2v88internal12V8FileLoggerD0Ev
libnode.so.115:_ZN2v88internal12V8FileLoggerD1Ev
libnode.so.115:_ZN2v88internal12V8FileLoggerD2Ev
libnode.so.115:_ZN2v88internal12WasmTypeInfo17WasmTypeInfoPrintERSo
libnode.so.115:_ZN2v88internal12WriteBarrier10SharedSlowEPNS0_9RelocInfoENS0_10HeapObjectE
libnode.so.115:_ZN2v88internal12WriteBarrier11MarkingSlowENS0_10HeapObjectENS0_18FullHeapObjectSlotES2_
libnode.so.115:_ZN2v88internal12WriteBarrier11MarkingSlowENS0_13JSArrayBufferEPNS0_20ArrayBufferExtensionE
libnode.so.115:_ZN2v88internal12WriteBarrier11MarkingSlowENS0_15DescriptorArrayEi
libnode.so.115:_ZN2v88internal12WriteBarrier11MarkingSlowENS0_17InstructionStreamEPNS0_9RelocInfoENS0_10HeapObjectE
libnode.so.115:_ZN2v88internal12WriteBarrier12SetForThreadEPNS0_14MarkingBarrierE
libnode.so.115:_ZN2v88internal12WriteBarrier14SharedFromCodeEmm
libnode.so.115:_ZN2v88internal12WriteBarrier15MarkingFromCodeEmm
libnode.so.115:_ZN2v88internal12WriteBarrier21CurrentMarkingBarrierENS0_10HeapObjectE
libnode.so.115:_ZN2v88internal12WriteBarrier21SharedMarkingFromCodeEmm
libnode.so.115:_ZN2v88internal12WriteBarrier27MarkingSlowFromGlobalHandleENS0_10HeapObjectE
libnode.so.115:_ZN2v88internal12WriteBarrier29MarkingSlowFromInternalFieldsEPNS0_4HeapENS0_8JSObjectE
libnode.so.115:_ZN2v88internal12kNoContext_0EPNS0_8compiler18CodeAssemblerStateE
libnode.so.115:_ZN2v88internal12kProxySlot_0EPNS0_8compiler18CodeAssemblerStateE
libnode.so.115:_ZN2v88internal12kStringMap_0EPNS0_8compiler18CodeAssemblerStateE
libnode.so.115:_ZN2v88internal12kValueSlot_0EPNS0_8compiler18CodeAssemblerStateE
libnode.so.115:_ZN2v88internal12libc_memmoveEPvPKvm
libnode.so.115:_ZN2v88internal12trap_handler12HandleSignalEiP9siginfo_tPv
libnode.so.115:_ZN2v88internal12trap_handler12MetadataLock9spinlock_E
libnode.so.115:_ZN2v88internal12trap_handler12MetadataLockC1Ev
libnode.so.115:_ZN2v88internal12trap_handler12MetadataLockC2Ev
libnode.so.115:_ZN2v88internal12trap_handler12MetadataLockD1Ev
libnode.so.115:_ZN2v88internal12trap_handler12MetadataLockD2Ev
libnode.so.115:_ZN2v88internal12trap_handler12gCodeObjectsE
libnode.so.115:_ZN2v88internal12trap_handler15TryHandleSignalEiP9siginfo_tPv
libnode.so.115:_ZN2v88internal12trap_handler15gNumCodeObjectsE
libnode.so.115:_ZN2v88internal12trap_handler17CreateHandlerDataEmmmPKNS1_24ProtectedInstructionDataE
libnode.so.115:_ZN2v88internal12trap_handler17EnableTrapHandlerEb
libnode.so.115:_ZN2v88internal12trap_handler17RemoveTrapHandlerEv
libnode.so.115:_ZN2v88internal12trap_handler17TryFindLandingPadEmPm
libnode.so.115:_ZN2v88internal12trap_handler18ReleaseHandlerDataEi
libnode.so.115:_ZN2v88internal12trap_handler19RegisterHandlerDataEmmmPKNS1_24ProtectedInstructionDataE
libnode.so.115:_ZN2v88internal12trap_handler19gRecoveredTrapCountE
libnode.so.115:_ZN2v88internal12trap_handler21GetRecoveredTrapCountEv
libnode.so.115:_ZN2v88internal12trap_handler21g_thread_in_wasm_codeE
libnode.so.115:_ZN2v88internal12trap_handler23IsKernelGeneratedSignalEP9siginfo_t
libnode.so.115:_ZN2v88internal12trap_handler25g_can_enable_trap_handlerE
libnode.so.115:_ZN2v88internal12trap_handler25g_is_trap_handler_enabledE
libnode.so.115:_ZN2v88internal12trap_handler26RegisterDefaultTrapHandlerEv
libnode.so.115:_ZN2v88internal12trap_handler33GetThreadInWasmThreadLocalAddressEv
libnode.so.115:_ZN2v88internal130IteratorSequence_float64_or_hole_SliceIterator_float64_or_hole_MutableReference_float64_or_hole_ConstantIterator_float64_or_hole_0EPNS0_8compiler18CodeAssemblerStateENS0_76TorqueStructSliceIterator_float64_or_hole_MutableReference_float64_or_hole_0ENS0_46TorqueStructConstantIterator_float64_or_hole_0E
libnode.so.115:_ZN2v88internal131InitializeFieldsFromIterator_Object_IteratorSequence_Object_SliceIterator_Object_MutableReference_Object_ConstantIterator_TheHole_0EPNS0_8compiler18CodeAssemblerStateENS0_50TorqueStructSlice_Object_MutableReference_Object_0ENS0_107TorqueStructIteratorSequence_Object_SliceIterator_Object_MutableReference_Object_ConstantIterator_TheHole_0E
libnode.so.115:_ZN2v88internal131NativeContextSlot_Context_Undefined_OR_CallableApiObject_OR_CallableJSProxy_OR_JSFunction_OR_JSBoundFunction_OR_JSWrappedFunction_0EPNS0_8compiler18CodeAssemblerStateENS0_5TNodeINS0_7ContextEEENS4_INS0_7IntPtrTEEE
libnode.so.115:_ZN2v88internal13AlignTagged_0EPNS0_8compiler18CodeAssemblerStateENS0_5TNodeINS0_7IntPtrTEEE
libnode.so.115:_ZN2v88internal13AllocatePagesEPNS_13PageAllocatorEPvmmNS1_10PermissionE
libnode.so.115:_ZN2v88internal13AnalyzeRegExpEPNS0_7IsolateEbNS_4base5FlagsINS0_10RegExpFlagEiEEPNS0_10RegExpNodeE
libnode.so.115:_ZN2v88internal13AssemblerBase13AddCodeTargetENS0_6HandleINS0_4CodeEEE
libnode.so.115:_ZN2v88internal13AssemblerBase17AddEmbeddedObjectENS0_6HandleINS0_10HeapObjectEEE
libnode.so.115:_ZN2v88internal13AssemblerBase17RequestHeapNumberENS0_17HeapNumberRequestE
libnode.so.115:_ZN2v88internal13AssemblerBase5PrintEPNS0_7IsolateE
libnode.so.115:_ZN2v88internal13AssemblerBaseC1ERKNS0_16AssemblerOptionsESt10unique_ptrINS0_15AssemblerBufferESt14default_deleteIS6_EE
libnode.so.115:_ZN2v88internal13AssemblerBaseC2ERKNS0_16AssemblerOptionsESt10unique_ptrINS0_15AssemblerBufferESt14default_deleteIS6_EE
libnode.so.115:_ZN2v88internal13AssemblerBaseD0Ev
libnode.so.115:_ZN2v88internal13AssemblerBaseD1Ev
libnode.so.115:_ZN2v88internal13AssemblerBaseD2Ev
libnode.so.115:_ZN2v88internal13AssertionNode12FillInBMInfoEPNS0_7IsolateEiiPNS0_19BoyerMooreLookaheadEb
libnode.so.115:_ZN2v88internal13AssertionNode17EmitBoundaryCheckEPNS0_14RegExpCompilerEPNS0_5TraceE
libnode.so.115:_ZN2v88internal13AssertionNode19BacktrackIfPreviousEPNS0_14RegExpCompilerEPNS0_5TraceENS1_10IfPreviousE
libnode.so.115:_ZN2v88internal13AssertionNode20GetQuickCheckDetailsEPNS0_17QuickCheckDetailsEPNS0_14RegExpCompilerEib
libnode.so.115:_ZN2v88internal13AssertionNode4EmitEPNS0_14RegExpCompilerEPNS0_5TraceE
libnode.so.115:_ZN2v88internal13AssertionNode6AcceptEPNS0_11NodeVisitorE
libnode.so.115:_ZN2v88internal13BaselineFrame12PatchContextENS0_7ContextE
libnode.so.115:_ZN2v88internal13BreakIterator13SetDebugBreakEv
libnode.so.115:_ZN2v88internal13BreakIterator14SkipToPositionEi
libnode.so.115:_ZN2v88internal13BreakIterator15ClearDebugBreakEv
libnode.so.115:_ZN2v88internal13BreakIterator16GetBreakLocationEv
libnode.so.115:_ZN2v88internal13BreakIterator17GetDebugBreakTypeEv
libnode.so.115:_ZN2v88internal13BreakIterator22BreakIndexFromPositionEi
libnode.so.115:_ZN2v88internal13BreakIterator4NextEv
libnode.so.115:_ZN2v88internal13BreakIterator7isolateEv
libnode.so.115:_ZN2v88internal13BreakIteratorC1ENS0_6HandleINS0_9DebugInfoEEE
libnode.so.115:_ZN2v88internal13BreakIteratorC2ENS0_6HandleINS0_9DebugInfoEEE
libnode.so.115:_ZN2v88internal13BreakLocation21AllAtCurrentStatementENS0_6HandleINS0_9DebugInfoEEEPNS0_15JavaScriptFrameEPSt6vectorIS1_SaIS1_EE
libnode.so.115:_ZN2v88internal13BreakLocation24BreakIndexFromCodeOffsetENS0_6HandleINS0_9DebugInfoEEENS2_INS0_12AbstractCodeEEEi
libnode.so.115:_ZN2v88internal13BreakLocation25IsPausedInJsFunctionEntryEPNS0_15JavaScriptFrameE
libnode.so.115:_ZN2v88internal13BreakLocation9FromFrameENS0_6HandleINS0_9DebugInfoEEEPNS0_15JavaScriptFrameE
libnode.so.115:_ZN2v88internal13Builtin_TraceEiPmPNS0_7IsolateE
libnode.so.115:_ZN2v88internal13BytecodeArray11DisassembleENS0_6HandleIS1_EERSo
libnode.so.115:_ZN2v88internal13BytecodeArray11DisassembleERSo
libnode.so.115:_ZN2v88internal13BytecodeArray15CopyBytecodesToES1_
libnode.so.115:_ZN2v88internal13BytecodeArray18BytecodeArrayPrintERSo
libnode.so.115:_ZN2v88internal13BytecodeArray9MakeOlderEv
libnode.so.115:_ZN2v88internal13BytecodeArray9PrintJsonERSo
libnode.so.115:_ZN2v88internal13CallCompare_0EPNS0_8compiler18CodeAssemblerStateENS0_5TNodeINS0_7ContextEEENS4_INS0_12JSTypedArrayEEENS4_INS0_10JSReceiverEEENS4_INS0_6ObjectEEESC_
libnode.so.115:_ZN2v88internal13CallResolve_0EPNS0_8compiler18CodeAssemblerStateENS0_5TNodeINS0_7ContextEEENS4_INS0_10JSReceiverEEENS4_INS0_6ObjectEEESA_
libnode.so.115:_ZN2v88internal13Cast_BigInt_0EPNS0_8compiler18CodeAssemblerStateENS0_5TNodeINS0_10HeapObjectEEEPNS1_18CodeAssemblerLabelE
libnode.so.115:_ZN2v88internal13Cast_BigInt_1EPNS0_8compiler18CodeAssemblerStateENS0_5TNodeINS0_7ContextEEENS4_INS0_6ObjectEEEPNS1_18CodeAssemblerLabelE
libnode.so.115:_ZN2v88internal13Cast_Filler_0EPNS0_8compiler18CodeAssemblerStateENS0_5TNodeINS0_10HeapObjectEEEPNS1_18CodeAssemblerLabelE
libnode.so.115:_ZN2v88internal13Cast_JSDate_0EPNS0_8compiler18CodeAssemblerStateENS0_5TNodeINS0_10HeapObjectEEEPNS1_18CodeAssemblerLabelE
libnode.so.115:_ZN2v88internal13Cast_Module_0EPNS0_8compiler18CodeAssemblerStateENS0_5TNodeINS0_10HeapObjectEEEPNS1_18CodeAssemblerLabelE
libnode.so.115:_ZN2v88internal13Cast_Number_0EPNS0_8compiler18CodeAssemblerStateENS0_5TNodeINS0_6ObjectEEEPNS1_18CodeAssemblerLabelE
libnode.so.115:_ZN2v88internal13Cast_Object_0EPNS0_8compiler18CodeAssemblerStateENS0_5TNodeINS0_6ObjectEEEPNS1_18CodeAssemblerLabelE
libnode.so.115:_ZN2v88internal13Cast_Script_0EPNS0_8compiler18CodeAssemblerStateENS0_5TNodeINS0_10HeapObjectEEEPNS1_18CodeAssemblerLabelE
libnode.so.115:_ZN2v88internal13Cast_SmiBox_0EPNS0_8compiler18CodeAssemblerStateENS0_5TNodeINS0_10HeapObjectEEEPNS1_18CodeAssemblerLabelE
libnode.so.115:_ZN2v88internal13Cast_String_0EPNS0_8compiler18CodeAssemblerStateENS0_5TNodeINS0_10HeapObjectEEEPNS1_18CodeAssemblerLabelE
libnode.so.115:_ZN2v88internal13Cast_String_1EPNS0_8compiler18CodeAssemblerStateENS0_5TNodeINS0_7ContextEEENS4_INS0_6ObjectEEEPNS1_18CodeAssemblerLabelE
libnode.so.115:_ZN2v88internal13Cast_Struct_0EPNS0_8compiler18CodeAssemblerStateENS0_5TNodeINS0_10HeapObjectEEEPNS1_18CodeAssemblerLabelE
libnode.so.115:_ZN2v88internal13Cast_Symbol_0EPNS0_8compiler18CodeAssemblerStateENS0_5TNodeINS0_10HeapObjectEEEPNS1_18CodeAssemblerLabelE
libnode.so.115:_ZN2v88internal13Cast_Symbol_1EPNS0_8compiler18CodeAssemblerStateENS0_5TNodeINS0_7ContextEEENS4_INS0_6ObjectEEEPNS1_18CodeAssemblerLabelE
libnode.so.115:_ZN2v88internal13Cast_Tuple2_0EPNS0_8compiler18CodeAssemblerStateENS0_5TNodeINS0_10HeapObjectEEEPNS1_18CodeAssemblerLabelE
libnode.so.115:_ZN2v88internal13CollectorBase15StartSweepSpaceEPNS0_10PagedSpaceE
libnode.so.115:_ZN2v88internal13CollectorBase9IsMajorMCEv
libnode.so.115:_ZN2v88internal13CollectorBaseC2EPNS0_4HeapENS0_16GarbageCollectorE
libnode.so.115:_ZN2v88internal13ContextFilter11OnMoveEventEmm
libnode.so.115:_ZN2v88internal13ConvertDoubleIbEET_d
libnode.so.115:_ZN2v88internal13ConvertDoubleIdEET_d
libnode.so.115:_ZN2v88internal13ConvertDoubleIfEET_d
libnode.so.115:_ZN2v88internal13ConvertDoubleIiEET_d
libnode.so.115:_ZN2v88internal13ConvertDoubleIjEET_d
libnode.so.115:_ZN2v88internal13ConvertDoubleIlEET_d
libnode.so.115:_ZN2v88internal13ConvertDoubleImEET_d
libnode.so.115:_ZN2v88internal13CopyAssembler16GenerateCopyImplEv
libnode.so.115:_ZN2v88internal13DataViewGet_0EPNS0_8compiler18CodeAssemblerStateENS0_5TNodeINS0_7ContextEEENS4_INS0_6ObjectEEES8_S8_NS0_12ElementsKindE
libnode.so.115:_ZN2v88internal13DataViewSet_0EPNS0_8compiler18CodeAssemblerStateENS0_5TNodeINS0_7ContextEEENS4_INS0_6ObjectEEES8_S8_S8_NS0_12ElementsKindE
libnode.so.115:_ZN2v88internal13DebugEvaluate14ContextBuilder12UpdateValuesEv
libnode.so.115:_ZN2v88internal13DebugEvaluate14ContextBuilderC1EPNS0_7IsolateEPNS0_15JavaScriptFrameEi
libnode.so.115:_ZN2v88internal13DebugEvaluate14ContextBuilderC2EPNS0_7IsolateEPNS0_15JavaScriptFrameEi
libnode.so.115:_ZN2v88internal13DebugEvaluate20WithTopmostArgumentsEPNS0_7IsolateENS0_6HandleINS0_6StringEEE
libnode.so.115:_ZN2v88internal13DebugEvaluate21ApplySideEffectChecksENS0_6HandleINS0_13BytecodeArrayEEE
libnode.so.115:_ZN2v88internal13DebugEvaluate25IsSideEffectFreeIntrinsicENS0_7Runtime10FunctionIdE
libnode.so.115:_ZN2v88internal13DebugEvaluate26FunctionGetSideEffectStateEPNS0_7IsolateENS0_6HandleINS0_18SharedFunctionInfoEEE
libnode.so.115:_ZN2v88internal13DebugEvaluate5LocalEPNS0_7IsolateENS0_12StackFrameIdEiNS0_6HandleINS0_6StringEEEb
libnode.so.115:_ZN2v88internal13DebugEvaluate6GlobalEPNS0_7IsolateENS0_6HandleINS0_10JSFunctionEEENS_5debug18EvaluateGlobalModeENS0_8REPLModeE
libnode.so.115:_ZN2v88internal13DebugEvaluate6GlobalEPNS0_7IsolateENS0_6HandleINS0_6StringEEENS_5debug18EvaluateGlobalModeENS0_8REPLModeE
libnode.so.115:_ZN2v88internal13DebugEvaluate8EvaluateEPNS0_7IsolateENS0_6HandleINS0_18SharedFunctionInfoEEENS4_INS0_7ContextEEENS4_INS0_6ObjectEEENS4_INS0_6StringEEEb
libnode.so.115:_ZN2v88internal13DependentCode14InsertWeakCodeEPNS0_7IsolateENS0_6HandleIS1_EENS_4base5FlagsINS1_15DependencyGroupEjEENS4_INS0_4CodeEEE
libnode.so.115:_ZN2v88internal13DependentCode16GetDependentCodeENS0_10HeapObjectE
libnode.so.115:_ZN2v88internal13DependentCode16SetDependentCodeENS0_6HandleINS0_10HeapObjectEEENS2_IS1_EE
libnode.so.115:_ZN2v88internal13DependentCode17FillEntryFromBackEii
libnode.so.115:_ZN2v88internal13DependentCode17InstallDependencyEPNS0_7IsolateENS0_6HandleINS0_4CodeEEENS4_INS0_10HeapObjectEEENS_4base5FlagsINS1_15DependencyGroupEjEE
libnode.so.115:_ZN2v88internal13DependentCode17IterateAndCompactERKSt8functionIFbNS0_4CodeENS_4base5FlagsINS1_15DependencyGroupEjEEEE
libnode.so.115:_ZN2v88internal13DependentCode19DependencyGroupNameENS1_15DependencyGroupE
libnode.so.115:_ZN2v88internal13DependentCode20empty_dependent_codeERKNS0_13ReadOnlyRootsE
libnode.so.115:_ZN2v88internal13DependentCode25MarkCodeForDeoptimizationEPNS0_7IsolateENS_4base5FlagsINS1_15DependencyGroupEjEE
libnode.so.115:_ZN2v88internal13DependentCode26DeoptimizeDependencyGroupsEPNS0_7IsolateENS_4base5FlagsINS1_15DependencyGroupEjEE
libnode.so.115:_ZN2v88internal13EhFrameWriter10GetEhFrameEPNS0_8CodeDescE
libnode.so.115:_ZN2v88internal13EhFrameWriter10InitializeEv
libnode.so.115:_ZN2v88internal13EhFrameWriter12WriteSLeb128Ei
libnode.so.115:_ZN2v88internal13EhFrameWriter12WriteULeb128Ej
libnode.so.115:_ZN2v88internal13EhFrameWriter14WriteFdeHeaderEv
libnode.so.115:_ZN2v88internal13EhFrameWriter15AdvanceLocationEi
libnode.so.115:_ZN2v88internal13EhFrameWriter15WriteEhFrameHdrEi
libnode.so.115:_ZN2v88internal13EhFrameWriter17WriteEmptyEhFrameERSo
libnode.so.115:_ZN2v88internal13EhFrameWriter17kInt32PlaceholderE
libnode.so.115:_ZN2v88internal13EhFrameWriter19RegisterToDwarfCodeENS0_8RegisterE
libnode.so.115:_ZN2v88internal13EhFrameWriter20SetBaseAddressOffsetEi
libnode.so.115:_ZN2v88internal13EhFrameWriter22SetBaseAddressRegisterENS0_8RegisterE
libnode.so.115:_ZN2v88internal13EhFrameWriter22WriteInitialStateInCieEv
libnode.so.115:_ZN2v88internal13EhFrameWriter25RecordRegisterNotModifiedENS0_8RegisterE
libnode.so.115:_ZN2v88internal13EhFrameWriter25RecordRegisterNotModifiedEi
libnode.so.115:_ZN2v88internal13EhFrameWriter25WritePaddingToAlignedSizeEi
libnode.so.115:_ZN2v88internal13EhFrameWriter26RecordRegisterSavedToStackEii
libnode.so.115:_ZN2v88internal13EhFrameWriter30WriteReturnAddressRegisterCodeEv
libnode.so.115:_ZN2v88internal13EhFrameWriter31SetBaseAddressRegisterAndOffsetENS0_8RegisterEi
libnode.so.115:_ZN2v88internal13EhFrameWriter32RecordRegisterFollowsInitialRuleENS0_8RegisterE
libnode.so.115:_ZN2v88internal13EhFrameWriter32RecordRegisterFollowsInitialRuleEi
libnode.so.115:_ZN2v88internal13EhFrameWriter6FinishEi
libnode.so.115:_ZN2v88internal13EhFrameWriter8WriteCieEv
libnode.so.115:_ZN2v88internal13EhFrameWriterC1EPNS0_4ZoneE
libnode.so.115:_ZN2v88internal13EhFrameWriterC2EPNS0_4ZoneE
libnode.so.115:_ZN2v88internal13EmbedderState11OnMoveEventEmm
libnode.so.115:_ZN2v88internal13EmbedderStateC1EPNS_7IsolateENS_5LocalINS_7ContextEEENS_16EmbedderStateTagE
libnode.so.115:_ZN2v88internal13EmbedderStateC2EPNS_7IsolateENS_5LocalINS_7ContextEEENS_16EmbedderStateTagE
libnode.so.115:_ZN2v88internal13EmbedderStateD1Ev
libnode.so.115:_ZN2v88internal13EmbedderStateD2Ev
libnode.so.115:_ZN2v88internal13FeedbackNexus12GetCallCountEv
libnode.so.115:_ZN2v88internal13FeedbackNexus16ConfigureMegaDOMERKNS0_17MaybeObjectHandleE
libnode.so.115:_ZN2v88internal13FeedbackNexus17CreateArrayOfSizeEi
libnode.so.115:_ZN2v88internal13FeedbackNexus18GetSpeculationModeEv
libnode.so.115:_ZN2v88internal13FeedbackNexus18SetSpeculationModeENS0_15SpeculationModeE
libnode.so.115:_ZN2v88internal13FeedbackNexus20ComputeCallFrequencyEv
libnode.so.115:_ZN2v88internal13FeedbackNexus20ConfigureCloneObjectENS0_6HandleINS0_3MapEEES4_
libnode.so.115:_ZN2v88internal13FeedbackNexus20ConfigureHandlerModeERKNS0_17MaybeObjectHandleE
libnode.so.115:_ZN2v88internal13FeedbackNexus20ConfigureMegamorphicENS0_11IcCheckTypeE
libnode.so.115:_ZN2v88internal13FeedbackNexus20ConfigureMegamorphicEv
libnode.so.115:_ZN2v88internal13FeedbackNexus20ConfigureMonomorphicENS0_6HandleINS0_4NameEEENS2_INS0_3MapEEERKNS0_17MaybeObjectHandleE
libnode.so.115:_ZN2v88internal13FeedbackNexus20ConfigurePolymorphicENS0_6HandleINS0_4NameEEERKSt6vectorISt4pairINS2_INS0_3MapEEENS0_17MaybeObjectHandleEESaISA_EE
libnode.so.115:_ZN2v88internal13FeedbackNexus21ExtractMegaDOMHandlerEv
libnode.so.115:_ZN2v88internal13FeedbackNexus22ConfigureUninitializedEv
libnode.so.115:_ZN2v88internal13FeedbackNexus22GetCallFeedbackContentEv
libnode.so.115:_ZN2v88internal13FeedbackNexus23ConfigureLexicalVarModeEiib
libnode.so.115:_ZN2v88internal13FeedbackNexus25ConfigurePropertyCellModeENS0_6HandleINS0_12PropertyCellEEE
libnode.so.115:_ZN2v88internal13FeedbackNexus5ClearENS0_13ClearBehaviorE
libnode.so.115:_ZN2v88internal13FeedbackNexus5PrintERSo
libnode.so.115:_ZN2v88internal13FeedbackNexusC1ENS0_14FeedbackVectorENS0_12FeedbackSlotE
libnode.so.115:_ZN2v88internal13FeedbackNexusC1ENS0_6HandleINS0_14FeedbackVectorEEENS0_12FeedbackSlotE
libnode.so.115:_ZN2v88internal13FeedbackNexusC1ENS0_6HandleINS0_14FeedbackVectorEEENS0_12FeedbackSlotERKNS0_11NexusConfigE
libnode.so.115:_ZN2v88internal13FeedbackNexusC2ENS0_14FeedbackVectorENS0_12FeedbackSlotE
libnode.so.115:_ZN2v88internal13FeedbackNexusC2ENS0_6HandleINS0_14FeedbackVectorEEENS0_12FeedbackSlotE
libnode.so.115:_ZN2v88internal13FeedbackNexusC2ENS0_6HandleINS0_14FeedbackVectorEEENS0_12FeedbackSlotERKNS0_11NexusConfigE
libnode.so.115:_ZN2v88internal13FutexWaitList10RemoveNodeEPNS0_17FutexWaitListNodeE
libnode.so.115:_ZN2v88internal13FutexWaitList10VerifyNodeEPNS0_17FutexWaitListNodeES3_S3_
libnode.so.115:_ZN2v88internal13FutexWaitList12NodeIsOnListEPNS0_17FutexWaitListNodeES3_
libnode.so.115:_ZN2v88internal13FutexWaitList6VerifyEv
libnode.so.115:_ZN2v88internal13FutexWaitList7AddNodeEPNS0_17FutexWaitListNodeE
libnode.so.115:_ZN2v88internal13GetBoolOptionEPNS0_7IsolateENS0_6HandleINS0_10JSReceiverEEEPKcS7_Pb
libnode.so.115:_ZN2v88internal13GlobalHandles10CopyGlobalEPm
libnode.so.115:_ZN2v88internal13GlobalHandles10MoveGlobalEPPmS3_
libnode.so.115:_ZN2v88internal13GlobalHandles11RecordStatsEPNS0_9HeapStatsE
libnode.so.115:_ZN2v88internal13GlobalHandles13ClearWeaknessEPm
libnode.so.115:_ZN2v88internal13GlobalHandles15IterateAllRootsEPNS0_11RootVisitorE
libnode.so.115:_ZN2v88internal13GlobalHandles16IterateWeakRootsEPNS0_11RootVisitorE
libnode.so.115:_ZN2v88internal13GlobalHandles18IterateStrongRootsEPNS0_11RootVisitorE
libnode.so.115:_ZN2v88internal13GlobalHandles20IterateAllYoungRootsEPNS0_11RootVisitorE
libnode.so.115:_ZN2v88internal13GlobalHandles21ClearListOfYoungNodesEv
libnode.so.115:_ZN2v88internal13GlobalHandles22AnnotateStrongRetainerEPmPKc
libnode.so.115:_ZN2v88internal13GlobalHandles22PendingPhantomCallback6InvokeEPNS0_7IsolateENS2_14InvocationTypeE
libnode.so.115:_ZN2v88internal13GlobalHandles22UpdateListOfYoungNodesEv
libnode.so.115:_ZN2v88internal13GlobalHandles23ProcessWeakYoungObjectsEPNS0_11RootVisitorEPFbPNS0_4HeapENS0_14FullObjectSlotEE
libnode.so.115:_ZN2v88internal13GlobalHandles25IterateAllRootsForTestingEPNS_23PersistentHandleVisitorE
libnode.so.115:_ZN2v88internal13GlobalHandles28ApplyPersistentHandleVisitorEPNS_23PersistentHandleVisitorEPNS1_4NodeE
libnode.so.115:_ZN2v88internal13GlobalHandles28InvokeFirstPassWeakCallbacksEv
libnode.so.115:_ZN2v88internal13GlobalHandles31PostGarbageCollectionProcessingENS_15GCCallbackFlagsE
libnode.so.115:_ZN2v88internal13GlobalHandles32InvokeSecondPassPhantomCallbacksEv
libnode.so.115:_ZN2v88internal13GlobalHandles33IterateWeakRootsForPhantomHandlesEPFbPNS0_4HeapENS0_14FullObjectSlotEE
libnode.so.115:_ZN2v88internal13GlobalHandles35IterateYoungStrongAndDependentRootsEPNS0_11RootVisitorE
libnode.so.115:_ZN2v88internal13GlobalHandles6CreateENS0_6ObjectE
libnode.so.115:_ZN2v88internal13GlobalHandles6CreateEm
libnode.so.115:_ZN2v88internal13GlobalHandles6IsWeakEPm
libnode.so.115:_ZN2v88internal13GlobalHandles7DestroyEPm
libnode.so.115:_ZN2v88internal13GlobalHandles8MakeWeakEPPm
libnode.so.115:_ZN2v88internal13GlobalHandles8MakeWeakEPmPvPFvRKNS_16WeakCallbackInfoIvEEENS_16WeakCallbackTypeE
libnode.so.115:_ZN2v88internal13GlobalHandlesC1EPNS0_7IsolateE
libnode.so.115:_ZN2v88internal13GlobalHandlesC2EPNS0_7IsolateE
libnode.so.115:_ZN2v88internal13GlobalHandlesD1Ev
libnode.so.115:_ZN2v88internal13GlobalHandlesD2Ev
libnode.so.115:_ZN2v88internal13HeapAllocator16SetReadOnlySpaceEPNS0_13ReadOnlySpaceE
libnode.so.115:_ZN2v88internal13HeapAllocator24AllocateRawLargeInternalEiNS0_14AllocationTypeENS0_16AllocationOriginENS0_19AllocationAlignmentE
libnode.so.115:_ZN2v88internal13HeapAllocator33AllocateRawWithLightRetrySlowPathEiNS0_14AllocationTypeENS0_16AllocationOriginENS0_19AllocationAlignmentE
libnode.so.115:_ZN2v88internal13HeapAllocator34AllocateRawWithRetryOrFailSlowPathEiNS0_14AllocationTypeENS0_16AllocationOriginENS0_19AllocationAlignmentE
libnode.so.115:_ZN2v88internal13HeapAllocator5SetupEv
libnode.so.115:_ZN2v88internal13HeapAllocatorC1EPNS0_4HeapE
libnode.so.115:_ZN2v88internal13HeapAllocatorC2EPNS0_4HeapE
libnode.so.115:_ZN2v88internal13HeapGraphEdgeC1ENS1_4TypeEPKcPNS0_9HeapEntryES6_
libnode.so.115:_ZN2v88internal13HeapGraphEdgeC1ENS1_4TypeEiPNS0_9HeapEntryES4_
libnode.so.115:_ZN2v88internal13HeapGraphEdgeC2ENS1_4TypeEPKcPNS0_9HeapEntryES6_
libnode.so.115:_ZN2v88internal13HeapGraphEdgeC2ENS1_4TypeEiPNS0_9HeapEntryES4_
libnode.so.115:_ZN2v88internal13InitializeICUEPKc
libnode.so.115:_ZN2v88internal13InstallGetterEPNS0_7IsolateENS0_6HandleINS0_8JSObjectEEEPKcPFvRKNS_20FunctionCallbackInfoINS_5ValueEEEE
libnode.so.115:_ZN2v88internal13IntToString_0EPNS0_8compiler18CodeAssemblerStateENS0_5TNodeINS0_6Int32TEEENS4_INS0_7Uint32TEEE
libnode.so.115:_ZN2v88internal13IsDebugInfo_0EPNS0_8compiler18CodeAssemblerStateENS0_5TNodeINS0_10HeapObjectEEE
libnode.so.115:_ZN2v88internal13IsMinusZero_0EPNS0_8compiler18CodeAssemblerStateENS0_5TNodeINS0_8Float64TEEE
libnode.so.115:_ZN2v88internal13JSArrayBuffer13MarkExtensionEv
libnode.so.115:_ZN2v88internal13JSArrayBuffer14DetachInternalEbPNS0_7IsolateE
libnode.so.115:_ZN2v88internal13JSArrayBuffer14GsabByteLengthEPNS0_7IsolateEm
libnode.so.115:_ZN2v88internal13JSArrayBuffer15EnsureExtensionEv
libnode.so.115:_ZN2v88internal13JSArrayBuffer15RemoveExtensionEv
libnode.so.115:_ZN2v88internal13JSArrayBuffer18JSArrayBufferPrintERSo
libnode.so.115:_ZN2v88internal13JSArrayBuffer18YoungMarkExtensionEv
libnode.so.115:_ZN2v88internal13JSArrayBuffer26YoungMarkExtensionPromotedEv
libnode.so.115:_ZN2v88internal13JSArrayBuffer41GetResizableBackingStorePageConfigurationEPNS0_7IsolateEmmNS0_11ShouldThrowEPmS5_S5_
libnode.so.115:_ZN2v88internal13JSArrayBuffer5SetupENS0_10SharedFlagENS0_13ResizableFlagESt10shared_ptrINS0_12BackingStoreEEPNS0_7IsolateE
libnode.so.115:_ZN2v88internal13JSArrayBuffer6AttachESt10shared_ptrINS0_12BackingStoreEE
libnode.so.115:_ZN2v88internal13JSArrayBuffer6DetachENS0_6HandleIS1_EEbNS2_INS0_6ObjectEEE
libnode.so.115:_ZN2v88internal13JSGlobalProxy18JSGlobalProxyPrintERSo
libnode.so.115:_ZN2v88internal13JSMapIterator18JSMapIteratorPrintERSo
libnode.so.115:_ZN2v88internal13JSPluralRules13ResolvePluralEPNS0_7IsolateENS0_6HandleIS1_EEd
libnode.so.115:_ZN2v88internal13JSPluralRules15ResolvedOptionsEPNS0_7IsolateENS0_6HandleIS1_EE
libnode.so.115:_ZN2v88internal13JSPluralRules18JSPluralRulesPrintERSo
libnode.so.115:_ZN2v88internal13JSPluralRules18ResolvePluralRangeEPNS0_7IsolateENS0_6HandleIS1_EEdd
libnode.so.115:_ZN2v88internal13JSPluralRules19GetAvailableLocalesB5cxx11Ev
libnode.so.115:_ZN2v88internal13JSPluralRules3NewEPNS0_7IsolateENS0_6HandleINS0_3MapEEENS4_INS0_6ObjectEEES8_
libnode.so.115:_ZN2v88internal13JSSetIterator18JSSetIteratorPrintERSo
libnode.so.115:_ZN2v88internal13JSShadowRealm18JSShadowRealmPrintERSo
libnode.so.115:_ZN2v88internal13JSSharedArray18JSSharedArrayPrintERSo
libnode.so.115:_ZN2v88internal13JsonStringifyEPNS0_7IsolateENS0_6HandleINS0_6ObjectEEES5_S5_
libnode.so.115:_ZN2v88internal13LiteralBuffer11NewCapacityEi
libnode.so.115:_ZN2v88internal13LiteralBuffer12ExpandBufferEv
libnode.so.115:_ZN2v88internal13LiteralBuffer14AddTwoByteCharEj
libnode.so.115:_ZN2v88internal13LiteralBuffer16ConvertToTwoByteEv
libnode.so.115:_ZN2v88internal13MathPowImpl_0EPNS0_8compiler18CodeAssemblerStateENS0_5TNodeINS0_7ContextEEENS4_INS0_6ObjectEEES8_
libnode.so.115:_ZN2v88internal13MemoryReducer10WatchdogGCERKNS1_5StateERKNS1_5EventE
libnode.so.115:_ZN2v88internal13MemoryReducer11NotifyTimerERKNS1_5EventE
libnode.so.115:_ZN2v88internal13MemoryReducer12kLongDelayMsE
libnode.so.115:_ZN2v88internal13MemoryReducer13ScheduleTimerEd
libnode.so.115:_ZN2v88internal13MemoryReducer13kShortDelayMsE
libnode.so.115:_ZN2v88internal13MemoryReducer15kMaxNumberOfGCsE
libnode.so.115:_ZN2v88internal13MemoryReducer16kWatchdogDelayMsE
libnode.so.115:_ZN2v88internal13MemoryReducer17NotifyMarkCompactEm
libnode.so.115:_ZN2v88internal13MemoryReducer21NotifyPossibleGarbageEv
libnode.so.115:_ZN2v88internal13MemoryReducer21kCommittedMemoryDeltaE
libnode.so.115:_ZN2v88internal13MemoryReducer22kCommittedMemoryFactorE
libnode.so.115:_ZN2v88internal13MemoryReducer4StepERKNS1_5StateERKNS1_5EventE
libnode.so.115:_ZN2v88internal13MemoryReducer8TearDownEv
libnode.so.115:_ZN2v88internal13MemoryReducer9TimerTask11RunInternalEv
libnode.so.115:_ZN2v88internal13MemoryReducer9TimerTaskC1EPS1_
libnode.so.115:_ZN2v88internal13MemoryReducer9TimerTaskC2EPS1_
libnode.so.115:_ZN2v88internal13MemoryReducerC1EPNS0_4HeapE
libnode.so.115:_ZN2v88internal13MemoryReducerC2EPNS0_4HeapE
libnode.so.115:_ZN2v88internal13MutableBigInt10GetRawBitsENS0_10BigIntBaseEPb
libnode.so.115:_ZN2v88internal13MutableBigInt10NewFromIntEPNS0_7IsolateEi
libnode.so.115:_ZN2v88internal13MutableBigInt11set_64_bitsEm
libnode.so.115:_ZN2v88internal13MutableBigInt12CanonicalizeES1_
libnode.so.115:_ZN2v88internal13MutableBigInt13MakeImmutableENS0_11MaybeHandleIS1_EE
libnode.so.115:_ZN2v88internal13MutableBigInt13NewFromDoubleEPNS0_7IsolateEd
libnode.so.115:_ZN2v88internal13MutableBigInt13ToShiftAmountENS0_6HandleINS0_10BigIntBaseEEE
libnode.so.115:_ZN2v88internal13MutableBigInt14AbsoluteAddOneEPNS0_7IsolateENS0_6HandleINS0_10BigIntBaseEEEbS1_
libnode.so.115:_ZN2v88internal13MutableBigInt14AbsoluteSubOneEPNS0_7IsolateENS0_6HandleINS0_10BigIntBaseEEE
libnode.so.115:_ZN2v88internal13MutableBigInt14DecideRoundingENS0_6HandleINS0_10BigIntBaseEEEiim
libnode.so.115:_ZN2v88internal13MutableBigInt16InitializeDigitsEih
libnode.so.115:_ZN2v88internal13MutableBigInt19LeftShiftByAbsoluteEPNS0_7IsolateENS0_6HandleINS0_10BigIntBaseEEES6_
libnode.so.115:_ZN2v88internal13MutableBigInt19RightShiftByMaximumEPNS0_7IsolateEb
libnode.so.115:_ZN2v88internal13MutableBigInt20RightShiftByAbsoluteEPNS0_7IsolateENS0_6HandleINS0_10BigIntBaseEEES6_
libnode.so.115:_ZN2v88internal13MutableBigInt4CopyEPNS0_7IsolateENS0_6HandleINS0_10BigIntBaseEEE
libnode.so.115:_ZN2v88internal13MutableBigInt8ToDoubleENS0_6HandleINS0_10BigIntBaseEEE
libnode.so.115:_ZN2v88internal13NativeContext14RunPromiseHookENS_15PromiseHookTypeENS0_6HandleINS0_9JSPromiseEEENS3_INS0_6ObjectEEE
libnode.so.115:_ZN2v88internal13NativeContext15GetErrorsThrownEv
libnode.so.115:_ZN2v88internal13NativeContext17ResetErrorsThrownEv
libnode.so.115:_ZN2v88internal13NativeContext18NativeContextPrintERSo
libnode.so.115:_ZN2v88internal13NativeContext21IncrementErrorsThrownEv
libnode.so.115:_ZN2v88internal13NativeContext24HasTemplateLiteralObjectENS0_7JSArrayE
libnode.so.115:_ZN2v88internal13NewJSObject_0EPNS0_8compiler18CodeAssemblerStateENS0_5TNodeINS0_7ContextEEE
libnode.so.115:_ZN2v88internal13NumberIsNaN_0EPNS0_8compiler18CodeAssemblerStateENS0_5TNodeINS0_6UnionTINS0_3SmiENS0_10HeapNumberEEEEE
libnode.so.115:_ZN2v88internal13ObjectHashSet3AddEPNS0_7IsolateENS0_6HandleIS1_EENS4_INS0_6ObjectEEE
libnode.so.115:_ZN2v88internal13ObjectLiteral18CalculateEmitStoreEPNS0_4ZoneE
libnode.so.115:_ZN2v88internal13ObjectVisitor14VisitRelocInfoEPNS0_13RelocIteratorE
libnode.so.115:_ZN2v88internal13PagedNewSpaceC1EPNS0_4HeapEmmRNS0_20LinearAllocationAreaE
libnode.so.115:_ZN2v88internal13PagedNewSpaceC2EPNS0_4HeapEmmRNS0_20LinearAllocationAreaE
libnode.so.115:_ZN2v88internal13PagedNewSpaceD0Ev
libnode.so.115:_ZN2v88internal13PagedNewSpaceD1Ev
libnode.so.115:_ZN2v88internal13PagedNewSpaceD2Ev
libnode.so.115:_ZN2v88internal13ProfilerStats14ReasonToStringENS1_6ReasonE
libnode.so.115:_ZN2v88internal13ProfilerStats5ClearEv
libnode.so.115:_ZN2v88internal13ProfilerStats9AddReasonENS1_6ReasonE
libnode.so.115:_ZN2v88internal13PromiseInit_0EPNS0_8compiler18CodeAssemblerStateENS0_5TNodeINS0_9JSPromiseEEE
libnode.so.115:_ZN2v88internal13PropertyArray18PropertyArrayPrintERSo
libnode.so.115:_ZN2v88internal13PrototypeInfo18PrototypeInfoPrintERSo
libnode.so.115:_ZN2v88internal13ReadOnlyRoots14FindHeapNumberEd
libnode.so.115:_ZN2v88internal13ReadOnlyRoots24InitFromStaticRootsTableEm
libnode.so.115:_ZN2v88internal13ReadOnlyRoots27one_pointer_filler_map_wordEv
libnode.so.115:_ZN2v88internal13ReadOnlyRoots7IterateEPNS0_11RootVisitorE
libnode.so.115:_ZN2v88internal13ReadOnlySpace10EnsurePageEv
libnode.so.115:_ZN2v88internal13ReadOnlySpace11AllocateRawEiNS0_19AllocationAlignmentE
libnode.so.115:_ZN2v88internal13ReadOnlySpace11ShrinkPagesEv
libnode.so.115:_ZN2v88internal13ReadOnlySpace18AllocateRawAlignedEiNS0_19AllocationAlignmentE
libnode.so.115:_ZN2v88internal13ReadOnlySpace18InitFromMemoryDumpEPNS0_7IsolateEPNS0_18SnapshotByteSourceE
libnode.so.115:_ZN2v88internal13ReadOnlySpace20AllocateRawUnalignedEi
libnode.so.115:_ZN2v88internal13ReadOnlySpace22SetPermissionsForPagesEPNS0_15MemoryAllocatorENS_13PageAllocator10PermissionE
libnode.so.115:_ZN2v88internal13ReadOnlySpace24EnsureSpaceForAllocationEi
libnode.so.115:_ZN2v88internal13ReadOnlySpace24FreeLinearAllocationAreaEv
libnode.so.115:_ZN2v88internal13ReadOnlySpace26TryAllocateLinearlyAlignedEiNS0_19AllocationAlignmentE
libnode.so.115:_ZN2v88internal13ReadOnlySpace28DetachPagesAndAddToArtifactsESt10shared_ptrINS0_17ReadOnlyArtifactsEE
libnode.so.115:_ZN2v88internal13ReadOnlySpace36RepairFreeSpacesAfterDeserializationEv
libnode.so.115:_ZN2v88internal13ReadOnlySpace4SealENS1_8SealModeE
libnode.so.115:_ZN2v88internal13ReadOnlySpace6UnsealEv
libnode.so.115:_ZN2v88internal13ReadOnlySpace8TearDownEPNS0_15MemoryAllocatorE
libnode.so.115:_ZN2v88internal13ReadOnlySpaceC1EPNS0_4HeapE
libnode.so.115:_ZN2v88internal13ReadOnlySpaceC2EPNS0_4HeapE
libnode.so.115:_ZN2v88internal13ReadOnlySpaceD0Ev
libnode.so.115:_ZN2v88internal13ReadOnlySpaceD1Ev
libnode.so.115:_ZN2v88internal13ReadOnlySpaceD2Ev
libnode.so.115:_ZN2v88internal13RegExpCapture15IsAnchoredAtEndEv
libnode.so.115:_ZN2v88internal13RegExpCapture16CaptureRegistersEv
libnode.so.115:_ZN2v88internal13RegExpCapture17IsAnchoredAtStartEv
libnode.so.115:_ZN2v88internal13RegExpCapture6AcceptEPNS0_13RegExpVisitorEPv
libnode.so.115:_ZN2v88internal13RegExpCapture6ToNodeEPNS0_10RegExpTreeEiPNS0_14RegExpCompilerEPNS0_10RegExpNodeE
libnode.so.115:_ZN2v88internal13RegExpCapture6ToNodeEPNS0_14RegExpCompilerEPNS0_10RegExpNodeE
libnode.so.115:_ZN2v88internal13RegExpCapture9AsCaptureEv
libnode.so.115:_ZN2v88internal13RegExpCapture9IsCaptureEv
libnode.so.115:_ZN2v88internal13RelocIterator14AdvanceReadIntEv
libnode.so.115:_ZN2v88internal13RelocIterator15AdvanceReadDataEv
libnode.so.115:_ZN2v88internal13RelocIterator21AdvanceReadLongPCJumpEv
libnode.so.115:_ZN2v88internal13RelocIterator4nextEv
libnode.so.115:_ZN2v88internal13RelocIteratorC1ENS0_13CodeReferenceEi
libnode.so.115:_ZN2v88internal13RelocIteratorC1ENS0_4CodeENS0_17InstructionStreamENS0_9ByteArrayEmi
libnode.so.115:_ZN2v88internal13RelocIteratorC1ENS0_4CodeENS0_17InstructionStreamEmmPKhS5_i
libnode.so.115:_ZN2v88internal13RelocIteratorC1ENS0_4CodeENS0_9ByteArrayEi
libnode.so.115:_ZN2v88internal13RelocIteratorC1ENS0_4CodeEi
libnode.so.115:_ZN2v88internal13RelocIteratorC1ENS_4base6VectorIhEENS3_IKhEEmi
libnode.so.115:_ZN2v88internal13RelocIteratorC1EPNS0_12EmbeddedDataENS0_4CodeEi
libnode.so.115:_ZN2v88internal13RelocIteratorC1ERKNS0_8CodeDescEi
libnode.so.115:_ZN2v88internal13RelocIteratorC2ENS0_13CodeReferenceEi
libnode.so.115:_ZN2v88internal13RelocIteratorC2ENS0_4CodeENS0_17InstructionStreamENS0_9ByteArrayEmi
libnode.so.115:_ZN2v88internal13RelocIteratorC2ENS0_4CodeENS0_17InstructionStreamEmmPKhS5_i
libnode.so.115:_ZN2v88internal13RelocIteratorC2ENS0_4CodeENS0_9ByteArrayEi
libnode.so.115:_ZN2v88internal13RelocIteratorC2ENS0_4CodeEi
libnode.so.115:_ZN2v88internal13RelocIteratorC2ENS_4base6VectorIhEENS3_IKhEEmi
libnode.so.115:_ZN2v88internal13RelocIteratorC2EPNS0_12EmbeddedDataENS0_4CodeEi
libnode.so.115:_ZN2v88internal13RelocIteratorC2ERKNS0_8CodeDescEi
libnode.so.115:_ZN2v88internal13Runtime_AbortEiPmPNS0_7IsolateE
libnode.so.115:_ZN2v88internal13Runtime_EqualEiPmPNS0_7IsolateE
libnode.so.115:_ZN2v88internal13Runtime_IsSmiEiPmPNS0_7IsolateE
libnode.so.115:_ZN2v88internal13Runtime_ThrowEiPmPNS0_7IsolateE
libnode.so.115:_ZN2v88internal13SHA256_updateEPNS0_8HASH_CTXEPKvm
libnode.so.115:_ZN2v88internal13ScannerStream10ForTestingEPKc
libnode.so.115:_ZN2v88internal13ScannerStream10ForTestingEPKcm
libnode.so.115:_ZN2v88internal13ScannerStream10ForTestingEPKtm
libnode.so.115:_ZN2v88internal13ScannerStream3ForEPNS0_7IsolateENS0_6HandleINS0_6StringEEE
libnode.so.115:_ZN2v88internal13ScannerStream3ForEPNS0_7IsolateENS0_6HandleINS0_6StringEEEii
libnode.so.115:_ZN2v88internal13ScannerStream3ForEPNS_14ScriptCompiler20ExternalSourceStreamENS2_14StreamedSource8EncodingE
libnode.so.115:_ZN2v88internal13ScopeIterator11ScopeObjectENS1_4ModeE
libnode.so.115:_ZN2v88internal13ScopeIterator12AdvanceScopeEv
libnode.so.115:_ZN2v88internal13ScopeIterator12end_positionEv
libnode.so.115:_ZN2v88internal13ScopeIterator14AdvanceContextEv
libnode.so.115:_ZN2v88internal13ScopeIterator14start_positionEv
libnode.so.115:_ZN2v88internal13ScopeIterator15AdvanceOneScopeEv
libnode.so.115:_ZN2v88internal13ScopeIterator15HasPositionInfoEv
libnode.so.115:_ZN2v88internal13ScopeIterator16SetVariableValueENS0_6HandleINS0_6StringEEENS2_INS0_6ObjectEEE
libnode.so.115:_ZN2v88internal13ScopeIterator17AdvanceOneContextEv
libnode.so.115:_ZN2v88internal13ScopeIterator20WithContextExtensionEv
libnode.so.115:_ZN2v88internal13ScopeIterator21SetLocalVariableValueENS0_6HandleINS0_6StringEEENS2_INS0_6ObjectEEE
libnode.so.115:_ZN2v88internal13ScopeIterator22SetModuleVariableValueENS0_6HandleINS0_6StringEEENS2_INS0_6ObjectEEE
libnode.so.115:_ZN2v88internal13ScopeIterator22SetScriptVariableValueENS0_6HandleINS0_6StringEEENS2_INS0_6ObjectEEE
libnode.so.115:_ZN2v88internal13ScopeIterator23MaterializeScopeDetailsEv
libnode.so.115:_ZN2v88internal13ScopeIterator23SetContextVariableValueENS0_6HandleINS0_6StringEEENS2_INS0_6ObjectEEE
libnode.so.115:_ZN2v88internal13ScopeIterator23UnwrapEvaluationContextEv
libnode.so.115:_ZN2v88internal13ScopeIterator24SetContextExtensionValueENS0_6HandleINS0_6StringEEENS2_INS0_6ObjectEEE
libnode.so.115:_ZN2v88internal13ScopeIterator25TryParseAndRetrieveScopesENS1_15ReparseStrategyE
libnode.so.115:_ZN2v88internal13ScopeIterator29CollectLocalsFromCurrentScopeEv
libnode.so.115:_ZN2v88internal13ScopeIterator4NextEv
libnode.so.115:_ZN2v88internal13ScopeIterator7RestartEv
libnode.so.115:_ZN2v88internal13ScopeIteratorC1EPNS0_7IsolateENS0_6HandleINS0_10JSFunctionEEE
libnode.so.115:_ZN2v88internal13ScopeIteratorC1EPNS0_7IsolateENS0_6HandleINS0_17JSGeneratorObjectEEE
libnode.so.115:_ZN2v88internal13ScopeIteratorC1EPNS0_7IsolateEPNS0_14FrameInspectorENS1_15ReparseStrategyE
libnode.so.115:_ZN2v88internal13ScopeIteratorC2EPNS0_7IsolateENS0_6HandleINS0_10JSFunctionEEE
libnode.so.115:_ZN2v88internal13ScopeIteratorC2EPNS0_7IsolateENS0_6HandleINS0_17JSGeneratorObjectEEE
libnode.so.115:_ZN2v88internal13ScopeIteratorC2EPNS0_7IsolateEPNS0_14FrameInspectorENS1_15ReparseStrategyE
libnode.so.115:_ZN2v88internal13ScopeIteratorD1Ev
libnode.so.115:_ZN2v88internal13ScopeIteratorD2Ev
libnode.so.115:_ZN2v88internal13SeqRegExpNode13FilterOneByteEiNS_4base5FlagsINS0_10RegExpFlagEiEE
libnode.so.115:_ZN2v88internal13SeqRegExpNode15FilterSuccessorEiNS_4base5FlagsINS0_10RegExpFlagEiEE
libnode.so.115:_ZN2v88internal13SmiConstant_0EPNS0_8compiler18CodeAssemblerStateENS0_14IntegerLiteralE
libnode.so.115:_ZN2v88internal13SpaceIterator4NextEv
libnode.so.115:_ZN2v88internal13SpaceIterator7HasNextEv
libnode.so.115:_ZN2v88internal13SpaceIteratorC1EPNS0_4HeapE
libnode.so.115:_ZN2v88internal13SpaceIteratorC2EPNS0_4HeapE
libnode.so.115:_ZN2v88internal13SpaceIteratorD0Ev
libnode.so.115:_ZN2v88internal13SpaceIteratorD1Ev
libnode.so.115:_ZN2v88internal13SpaceIteratorD2Ev
libnode.so.115:_ZN2v88internal13StoreGlobalIC5StoreENS0_6HandleINS0_4NameEEENS2_INS0_6ObjectEEE
libnode.so.115:_ZN2v88internal13TestForLoop_0EPNS0_8compiler18CodeAssemblerStateE
libnode.so.115:_ZN2v88internal13TestStruct1_0EPNS0_8compiler18CodeAssemblerStateENS0_25TorqueStructTestStructA_0E
libnode.so.115:_ZN2v88internal13TestStruct2_0EPNS0_8compiler18CodeAssemblerStateENS0_5TNodeINS0_7ContextEEE
libnode.so.115:_ZN2v88internal13TestStruct3_0EPNS0_8compiler18CodeAssemblerStateENS0_5TNodeINS0_7ContextEEE
libnode.so.115:_ZN2v88internal13TestStruct4_0EPNS0_8compiler18CodeAssemblerStateENS0_5TNodeINS0_7ContextEEE
libnode.so.115:_ZN2v88internal13ThreadManager10InitThreadERKNS0_15ExecutionAccessE
libnode.so.115:_ZN2v88internal13ThreadManager10IsArchivedEv
libnode.so.115:_ZN2v88internal13ThreadManager13ArchiveThreadEv
libnode.so.115:_ZN2v88internal13ThreadManager13RestoreThreadEv
libnode.so.115:_ZN2v88internal13ThreadManager18GetFreeThreadStateEv
libnode.so.115:_ZN2v88internal13ThreadManager19FreeThreadResourcesEv
libnode.so.115:_ZN2v88internal13ThreadManager20EagerlyArchiveThreadEv
libnode.so.115:_ZN2v88internal13ThreadManager21DeleteThreadStateListEPNS0_11ThreadStateE
libnode.so.115:_ZN2v88internal13ThreadManager21FirstThreadStateInUseEv
libnode.so.115:_ZN2v88internal13ThreadManager22IterateArchivedThreadsEPNS0_13ThreadVisitorE
libnode.so.115:_ZN2v88internal13ThreadManager4LockEv
libnode.so.115:_ZN2v88internal13ThreadManager6UnlockEv
libnode.so.115:_ZN2v88internal13ThreadManager7IterateEPNS0_11RootVisitorE
libnode.so.115:_ZN2v88internal13ThreadManager9CurrentIdEv
libnode.so.115:_ZN2v88internal13ThreadManagerC1EPNS0_7IsolateE
libnode.so.115:_ZN2v88internal13ThreadManagerC2EPNS0_7IsolateE
libnode.so.115:_ZN2v88internal13ThreadManagerD1Ev
libnode.so.115:_ZN2v88internal13ThreadManagerD2Ev
libnode.so.115:_ZN2v88internal13TracedHandles12IterateYoungEPNS0_11RootVisitorE
libnode.so.115:_ZN2v88internal13TracedHandles12SetIsMarkingEb
libnode.so.115:_ZN2v88internal13TracedHandles14ResetDeadNodesEPFbPNS0_4HeapENS0_14FullObjectSlotEE
libnode.so.115:_ZN2v88internal13TracedHandles17DeleteEmptyBlocksEv
libnode.so.115:_ZN2v88internal13TracedHandles17IterateYoungRootsEPNS0_11RootVisitorE
libnode.so.115:_ZN2v88internal13TracedHandles18MarkConservativelyEPmS2_NS1_8MarkModeE
libnode.so.115:_ZN2v88internal13TracedHandles19ProcessYoungObjectsEPNS0_11RootVisitorEPFbPNS0_4HeapENS0_14FullObjectSlotEE
libnode.so.115:_ZN2v88internal13TracedHandles19ResetYoungDeadNodesEPFbPNS0_4HeapENS0_14FullObjectSlotEE
libnode.so.115:_ZN2v88internal13TracedHandles21ClearListOfYoungNodesEv
libnode.so.115:_ZN2v88internal13TracedHandles22UpdateListOfYoungNodesEv
libnode.so.115:_ZN2v88internal13TracedHandles28SetIsSweepingOnMutatorThreadEb
libnode.so.115:_ZN2v88internal13TracedHandles30ComputeWeaknessForYoungObjectsEPFbNS0_14FullObjectSlotEE
libnode.so.115:_ZN2v88internal13TracedHandles36IterateAndMarkYoungRootsWithOldHostsEPNS0_11RootVisitorE
libnode.so.115:_ZN2v88internal13TracedHandles39IterateYoungRootsWithOldHostsForTestingEPNS0_11RootVisitorE
libnode.so.115:_ZN2v88internal13TracedHandles4CopyEPKPKmPPm
libnode.so.115:_ZN2v88internal13TracedHandles4MarkEPmNS1_8MarkModeE
libnode.so.115:_ZN2v88internal13TracedHandles4MoveEPPmS3_
libnode.so.115:_ZN2v88internal13TracedHandles6CreateEmPmNS0_21GlobalHandleStoreModeE
libnode.so.115:_ZN2v88internal13TracedHandles7DestroyEPm
libnode.so.115:_ZN2v88internal13TracedHandles7IterateEPNS0_11RootVisitorE
libnode.so.115:_ZN2v88internal13TracedHandlesC1EPNS0_7IsolateE
libnode.so.115:_ZN2v88internal13TracedHandlesC2EPNS0_7IsolateE
libnode.so.115:_ZN2v88internal13TracedHandlesD1Ev
libnode.so.115:_ZN2v88internal13TracedHandlesD2Ev
libnode.so.115:_ZN2v88internal13VariableProxy6BindToEPNS0_8VariableE
libnode.so.115:_ZN2v88internal13VariableProxyC1EPKS1_
libnode.so.115:_ZN2v88internal13VariableProxyC1EPNS0_8VariableEi
libnode.so.115:_ZN2v88internal13VariableProxyC2EPKS1_
libnode.so.115:_ZN2v88internal13VariableProxyC2EPNS0_8VariableEi
libnode.so.115:_ZN2v88internal13VirtualMemory12FreeReadOnlyEv
libnode.so.115:_ZN2v88internal13VirtualMemory13RecommitPagesEmmNS_13PageAllocator10PermissionE
libnode.so.115:_ZN2v88internal13VirtualMemory14SetPermissionsEmmNS_13PageAllocator10PermissionE
libnode.so.115:_ZN2v88internal13VirtualMemory18DiscardSystemPagesEmm
libnode.so.115:_ZN2v88internal13VirtualMemory4FreeEv
libnode.so.115:_ZN2v88internal13VirtualMemory5ResetEv
libnode.so.115:_ZN2v88internal13VirtualMemory7ReleaseEm
libnode.so.115:_ZN2v88internal13VirtualMemoryC1EPNS_13PageAllocatorEmPvmNS0_13JitPermissionE
libnode.so.115:_ZN2v88internal13VirtualMemoryC1Ev
libnode.so.115:_ZN2v88internal13VirtualMemoryC2EPNS_13PageAllocatorEmPvmNS0_13JitPermissionE
libnode.so.115:_ZN2v88internal13VirtualMemoryC2Ev
libnode.so.115:_ZN2v88internal13VirtualMemoryD1Ev
libnode.so.115:_ZN2v88internal13VirtualMemoryD2Ev
libnode.so.115:_ZN2v88internal13WasDetached_0EPNS0_8compiler18CodeAssemblerStateENS0_5TNodeINS0_17JSArrayBufferViewEEE
libnode.so.115:_ZN2v88internal13WasmExitFrame19ComputeStackPointerEm
libnode.so.115:_ZN2v88internal13WasmTagObject16MatchesSignatureEj
libnode.so.115:_ZN2v88internal13WasmTagObject3NewEPNS0_7IsolateEPKNS0_9SignatureINS0_4wasm9ValueTypeEEEjNS0_6HandleINS0_10HeapObjectEEE
libnode.so.115:_ZN2v88internal13WeakArrayList11EnsureSpaceEPNS0_7IsolateENS0_6HandleIS1_EEiNS0_14AllocationTypeE
libnode.so.115:_ZN2v88internal13WeakArrayList18WeakArrayListPrintERSo
libnode.so.115:_ZN2v88internal13WeakArrayList6AppendEPNS0_7IsolateENS0_6HandleIS1_EERKNS0_17MaybeObjectHandleENS0_14AllocationTypeE
libnode.so.115:_ZN2v88internal13WeakArrayList7CompactEPNS0_7IsolateE
libnode.so.115:_ZN2v88internal13WeakArrayList8AddToEndEPNS0_7IsolateENS0_6HandleIS1_EERKNS0_17MaybeObjectHandleE
libnode.so.115:_ZN2v88internal13WeakArrayList8AddToEndEPNS0_7IsolateENS0_6HandleIS1_EERKNS0_17MaybeObjectHandleES8_
libnode.so.115:_ZN2v88internal13WeakArrayList8ContainsENS0_11MaybeObjectE
libnode.so.115:_ZN2v88internal13WeakArrayList9RemoveOneERKNS0_17MaybeObjectHandleE
libnode.so.115:_ZN2v88internal13kDoubleHole_0EPNS0_8compiler18CodeAssemblerStateE
libnode.so.115:_ZN2v88internal13kNextString_0EPNS0_8compiler18CodeAssemblerStateE
libnode.so.115:_ZN2v88internal13kThenString_0EPNS0_8compiler18CodeAssemblerStateE
libnode.so.115:_ZN2v88internal145ContextSlot_NativeContext_NativeContext_Undefined_OR_CallableApiObject_OR_CallableJSProxy_OR_JSFunction_OR_JSBoundFunction_OR_JSWrappedFunction_0EPNS0_8compiler18CodeAssemblerStateENS0_5TNodeINS0_13NativeContextEEENS4_INS0_7IntPtrTEEE
libnode.so.115:_ZN2v88internal14AbortAssembler17GenerateAbortImplEv
libnode.so.115:_ZN2v88internal14AllocWithRetryEmPFPvmE
libnode.so.115:_ZN2v88internal14AllocationSite11ShouldTrackENS0_12ElementsKindES2_
libnode.so.115:_ZN2v88internal14AllocationSite15kPretenureRatioE
libnode.so.115:_ZN2v88internal14AllocationSite19AllocationSitePrintERSo
libnode.so.115:_ZN2v88internal14AllocationSite21PretenureDecisionNameENS1_17PretenureDecisionE
libnode.so.115:_ZN2v88internal14AllocationSite22ResetPretenureDecisionEv
libnode.so.115:_ZN2v88internal14AllocationSite8IsNestedEv
libnode.so.115:_ZN2v88internal14AstNodeFactory16NewNumberLiteralEdi
libnode.so.115:_ZN2v88internal14BreakPointInfo13HasBreakPointEPNS0_7IsolateENS0_6HandleIS1_EENS4_INS0_10BreakPointEEE
libnode.so.115:_ZN2v88internal14BreakPointInfo13SetBreakPointEPNS0_7IsolateENS0_6HandleIS1_EENS4_INS0_10BreakPointEEE
libnode.so.115:_ZN2v88internal14BreakPointInfo15ClearBreakPointEPNS0_7IsolateENS0_6HandleIS1_EENS4_INS0_10BreakPointEEE
libnode.so.115:_ZN2v88internal14BreakPointInfo17GetBreakPointByIdEPNS0_7IsolateENS0_6HandleIS1_EEi
libnode.so.115:_ZN2v88internal14BreakPointInfo18GetBreakPointCountEPNS0_7IsolateE
libnode.so.115:_ZN2v88internal14BuildIgnoreSetEv
libnode.so.115:_ZN2v88internal14CancelableTaskC2EPNS0_21CancelableTaskManagerE
libnode.so.115:_ZN2v88internal14CancelableTaskC2EPNS0_7IsolateE
libnode.so.115:_ZN2v88internal14Cast_Boolean_0EPNS0_8compiler18CodeAssemblerStateENS0_5TNodeINS0_6ObjectEEEPNS1_18CodeAssemblerLabelE
libnode.so.115:_ZN2v88internal14Cast_Boolean_1EPNS0_8compiler18CodeAssemblerStateENS0_5TNodeINS0_10HeapObjectEEEPNS1_18CodeAssemblerLabelE
libnode.so.115:_ZN2v88internal14Cast_Context_0EPNS0_8compiler18CodeAssemblerStateENS0_5TNodeINS0_10HeapObjectEEEPNS1_18CodeAssemblerLabelE
libnode.so.115:_ZN2v88internal14Cast_Context_1EPNS0_8compiler18CodeAssemblerStateENS0_5TNodeINS0_7ContextEEENS4_INS0_6ObjectEEEPNS1_18CodeAssemblerLabelE
libnode.so.115:_ZN2v88internal14Cast_Foreign_0EPNS0_8compiler18CodeAssemblerStateENS0_5TNodeINS0_10HeapObjectEEEPNS1_18CodeAssemblerLabelE
libnode.so.115:_ZN2v88internal14Cast_JSArray_0EPNS0_8compiler18CodeAssemblerStateENS0_5TNodeINS0_10HeapObjectEEEPNS1_18CodeAssemblerLabelE
libnode.so.115:_ZN2v88internal14Cast_JSArray_1EPNS0_8compiler18CodeAssemblerStateENS0_5TNodeINS0_7ContextEEENS4_INS0_6ObjectEEEPNS1_18CodeAssemblerLabelE
libnode.so.115:_ZN2v88internal14Cast_JSArray_2EPNS0_8compiler18CodeAssemblerStateENS0_5TNodeINS0_7ContextEEENS4_INS0_11MaybeObjectEEEPNS1_18CodeAssemblerLabelE
libnode.so.115:_ZN2v88internal14Cast_JSError_0EPNS0_8compiler18CodeAssemblerStateENS0_5TNodeINS0_10HeapObjectEEEPNS1_18CodeAssemblerLabelE
libnode.so.115:_ZN2v88internal14Cast_JSProxy_0EPNS0_8compiler18CodeAssemblerStateENS0_5TNodeINS0_10HeapObjectEEEPNS1_18CodeAssemblerLabelE
libnode.so.115:_ZN2v88internal14Cast_JSProxy_1EPNS0_8compiler18CodeAssemblerStateENS0_5TNodeINS0_7ContextEEENS4_INS0_6ObjectEEEPNS1_18CodeAssemblerLabelE
libnode.so.115:_ZN2v88internal14Cast_Numeric_0EPNS0_8compiler18CodeAssemblerStateENS0_5TNodeINS0_6ObjectEEEPNS1_18CodeAssemblerLabelE
libnode.so.115:_ZN2v88internal14Cast_Oddball_0EPNS0_8compiler18CodeAssemblerStateENS0_5TNodeINS0_10HeapObjectEEEPNS1_18CodeAssemblerLabelE
libnode.so.115:_ZN2v88internal14Cast_SmiPair_0EPNS0_8compiler18CodeAssemblerStateENS0_5TNodeINS0_10HeapObjectEEEPNS1_18CodeAssemblerLabelE
libnode.so.115:_ZN2v88internal14Cast_TheHole_0EPNS0_8compiler18CodeAssemblerStateENS0_5TNodeINS0_6ObjectEEEPNS1_18CodeAssemblerLabelE
libnode.so.115:_ZN2v88internal14Cast_TheHole_1EPNS0_8compiler18CodeAssemblerStateENS0_5TNodeINS0_10HeapObjectEEEPNS1_18CodeAssemblerLabelE
libnode.so.115:_ZN2v88internal14CharacterRange11IsCanonicalEPKNS0_8ZoneListIS1_EE
libnode.so.115:_ZN2v88internal14CharacterRange12CanonicalizeEPNS0_8ZoneListIS1_EE
libnode.so.115:_ZN2v88internal14CharacterRange14AddClassEscapeENS0_20StandardCharacterSetEPNS0_8ZoneListIS1_EEbPNS0_4ZoneE
libnode.so.115:_ZN2v88internal14CharacterRange14ClampToOneByteEPNS0_8ZoneListIS1_EE
libnode.so.115:_ZN2v88internal14CharacterRange18AddCaseEquivalentsEPNS0_7IsolateEPNS0_4ZoneEPNS0_8ZoneListIS1_EEb
libnode.so.115:_ZN2v88internal14CharacterRange22UnicodeSimpleCloseOverERN6icu_7610UnicodeSetE
libnode.so.115:_ZN2v88internal14CharacterRange25AddUnicodeCaseEquivalentsEPNS0_8ZoneListIS1_EEPNS0_4ZoneE
libnode.so.115:_ZN2v88internal14CharacterRange6EqualsEPKNS0_8ZoneListIS1_EES5_
libnode.so.115:_ZN2v88internal14CharacterRange6NegateEPKNS0_8ZoneListIS1_EEPS3_PNS0_4ZoneE
libnode.so.115:_ZN2v88internal14CharacterRange8SubtractEPKNS0_8ZoneListIS1_EES5_PS3_PNS0_4ZoneE
libnode.so.115:_ZN2v88internal14CharacterRange9IntersectEPKNS0_8ZoneListIS1_EES5_PS3_PNS0_4ZoneE
libnode.so.115:_ZN2v88internal14ClassPositions17BriefPrintDetailsERSo
libnode.so.115:_ZN2v88internal14CodeSerializer11DeserializeEPNS0_7IsolateEPNS0_17AlignedCachedDataENS0_6HandleINS0_6StringEEENS_19ScriptOriginOptionsENS0_11MaybeHandleINS0_6ScriptEEE
libnode.so.115:_ZN2v88internal14CodeSerializer16SerializeGenericENS0_6HandleINS0_10HeapObjectEEE
libnode.so.115:_ZN2v88internal14CodeSerializer19SerializeObjectImplENS0_6HandleINS0_10HeapObjectEEE
libnode.so.115:_ZN2v88internal14CodeSerializer24OffThreadDeserializeData13GetOnlyScriptEPNS0_9LocalHeapE
libnode.so.115:_ZN2v88internal14CodeSerializer25StartDeserializeOffThreadEPNS0_12LocalIsolateEPNS0_17AlignedCachedDataE
libnode.so.115:_ZN2v88internal14CodeSerializer26FinishOffThreadDeserializeEPNS0_7IsolateEONS1_24OffThreadDeserializeDataEPNS0_17AlignedCachedDataENS0_6HandleINS0_6StringEEENS_19ScriptOriginOptionsEPNS0_19BackgroundMergeTaskE
libnode.so.115:_ZN2v88internal14CodeSerializer27SerializeSharedFunctionInfoENS0_6HandleINS0_18SharedFunctionInfoEEE
libnode.so.115:_ZN2v88internal14CodeSerializer9SerializeEPNS0_7IsolateENS0_6HandleINS0_18SharedFunctionInfoEEE
libnode.so.115:_ZN2v88internal14CodeSerializerC1EPNS0_7IsolateEj
libnode.so.115:_ZN2v88internal14CodeSerializerC2EPNS0_7IsolateEj
libnode.so.115:_ZN2v88internal14CodeStatistics21CollectCodeStatisticsEPNS0_10PagedSpaceEPNS0_7IsolateE
libnode.so.115:_ZN2v88internal14CodeStatistics21CollectCodeStatisticsEPNS0_19OldLargeObjectSpaceEPNS0_7IsolateE
libnode.so.115:_ZN2v88internal14CodeStatistics30ResetCodeAndMetadataStatisticsEPNS0_7IsolateE
libnode.so.115:_ZN2v88internal14CodeStatistics31RecordCodeAndMetadataStatisticsENS0_10HeapObjectEPNS0_7IsolateE
libnode.so.115:_ZN2v88internal14CommitPageSizeEv
libnode.so.115:_ZN2v88internal14DotPrinterImpl11VisitActionEPNS0_10ActionNodeE
libnode.so.115:_ZN2v88internal14DotPrinterImpl11VisitChoiceEPNS0_10ChoiceNodeE
libnode.so.115:_ZN2v88internal14DotPrinterImpl14PrintOnFailureEPNS0_10RegExpNodeES3_
libnode.so.115:_ZN2v88internal14DotPrinterImpl14VisitAssertionEPNS0_13AssertionNodeE
libnode.so.115:_ZN2v88internal14DotPrinterImpl15PrintAttributesEPNS0_10RegExpNodeE
libnode.so.115:_ZN2v88internal14DotPrinterImpl15VisitLoopChoiceEPNS0_14LoopChoiceNodeE
libnode.so.115:_ZN2v88internal14DotPrinterImpl18VisitBackReferenceEPNS0_17BackReferenceNodeE
libnode.so.115:_ZN2v88internal14DotPrinterImpl29VisitNegativeLookaroundChoiceEPNS0_28NegativeLookaroundChoiceNodeE
libnode.so.115:_ZN2v88internal14DotPrinterImpl5VisitEPNS0_10RegExpNodeE
libnode.so.115:_ZN2v88internal14DotPrinterImpl8VisitEndEPNS0_7EndNodeE
libnode.so.115:_ZN2v88internal14DotPrinterImpl9PrintNodeEPKcPNS0_10RegExpNodeE
libnode.so.115:_ZN2v88internal14DotPrinterImpl9VisitTextEPNS0_8TextNodeE
libnode.so.115:_ZN2v88internal14EqualAssembler17GenerateEqualImplEv
libnode.so.115:_ZN2v88internal14ErrorStackData21EnsureStackFrameInfosEPNS0_7IsolateENS0_6HandleIS1_EE
libnode.so.115:_ZN2v88internal14EternalHandles15IterateAllRootsEPNS0_11RootVisitorE
libnode.so.115:_ZN2v88internal14EternalHandles17IterateYoungRootsEPNS0_11RootVisitorE
libnode.so.115:_ZN2v88internal14EternalHandles31PostGarbageCollectionProcessingEv
libnode.so.115:_ZN2v88internal14EternalHandles6CreateEPNS0_7IsolateENS0_6ObjectEPi
libnode.so.115:_ZN2v88internal14EternalHandlesD1Ev
libnode.so.115:_ZN2v88internal14EternalHandlesD2Ev
libnode.so.115:_ZN2v88internal14FastArrayMap_0EPNS0_8compiler18CodeAssemblerStateENS0_5TNodeINS0_7ContextEEENS4_INS0_7JSArrayEEENS4_INS0_3SmiEEENS4_INS0_10JSReceiverEEENS4_INS0_6ObjectEEEPNS1_18CodeAssemblerLabelEPNS1_26TypedCodeAssemblerVariableIS7_EEPNSH_IS9_EE
libnode.so.115:_ZN2v88internal14FeedbackVector10ClearSlotsEPNS0_7IsolateENS0_13ClearBehaviorE
libnode.so.115:_ZN2v88internal14FeedbackVector11reset_flagsEv
libnode.so.115:_ZN2v88internal14FeedbackVector13NewForTestingEPNS0_7IsolateEPKNS0_18FeedbackVectorSpecE
libnode.so.115:_ZN2v88internal14FeedbackVector16SetOptimizedCodeENS0_4CodeE
libnode.so.115:_ZN2v88internal14FeedbackVector17FeedbackSlotPrintERSoNS0_12FeedbackSlotE
libnode.so.115:_ZN2v88internal14FeedbackVector17osr_tiering_stateEv
libnode.so.115:_ZN2v88internal14FeedbackVector17set_tiering_stateENS0_12TieringStateE
libnode.so.115:_ZN2v88internal14FeedbackVector18ClearOptimizedCodeEv
libnode.so.115:_ZN2v88internal14FeedbackVector19FeedbackVectorPrintERSo
libnode.so.115:_ZN2v88internal14FeedbackVector19SetOptimizedOsrCodeENS0_12FeedbackSlotENS0_4CodeE
libnode.so.115:_ZN2v88internal14FeedbackVector19reset_tiering_stateEv
libnode.so.115:_ZN2v88internal14FeedbackVector21set_osr_tiering_stateENS0_12TieringStateE
libnode.so.115:_ZN2v88internal14FeedbackVector29AddToVectorsForProfilingToolsEPNS0_7IsolateENS0_6HandleIS1_EE
libnode.so.115:_ZN2v88internal14FeedbackVector30NewWithOneBinarySlotForTestingEPNS0_4ZoneEPNS0_7IsolateE
libnode.so.115:_ZN2v88internal14FeedbackVector31NewWithOneCompareSlotForTestingEPNS0_4ZoneEPNS0_7IsolateE
libnode.so.115:_ZN2v88internal14FeedbackVector32SaturatingIncrementProfilerTicksEv
libnode.so.115:_ZN2v88internal14FeedbackVector3NewEPNS0_7IsolateENS0_6HandleINS0_18SharedFunctionInfoEEENS4_INS0_24ClosureFeedbackCellArrayEEENS4_INS0_12FeedbackCellEEEPNS0_15IsCompiledScopeE
libnode.so.115:_ZN2v88internal14FeedbackVector41EvictOptimizedCodeMarkedForDeoptimizationEPNS0_7IsolateENS0_18SharedFunctionInfoEPKc
libnode.so.115:_ZN2v88internal14FixedArrayBase33GetMaxLengthForNewSpaceAllocationENS0_12ElementsKindE
libnode.so.115:_ZN2v88internal14Float64IsNaN_0EPNS0_8compiler18CodeAssemblerStateENS0_5TNodeINS0_8Float64TEEE
libnode.so.115:_ZN2v88internal14FrameInspector10GetContextEv
libnode.so.115:_ZN2v88internal14FrameInspector12GetParameterEi
libnode.so.115:_ZN2v88internal14FrameInspector12IsJavaScriptEv
libnode.so.115:_ZN2v88internal14FrameInspector13GetExpressionEi
libnode.so.115:_ZN2v88internal14FrameInspector15GetFunctionNameEv
libnode.so.115:_ZN2v88internal14FrameInspector16javascript_frameEv
libnode.so.115:_ZN2v88internal14FrameInspector33ParameterIsShadowedByContextLocalENS0_6HandleINS0_9ScopeInfoEEENS2_INS0_6StringEEE
libnode.so.115:_ZN2v88internal14FrameInspector6IsWasmEv
libnode.so.115:_ZN2v88internal14FrameInspectorC1EPNS0_11CommonFrameEiPNS0_7IsolateE
libnode.so.115:_ZN2v88internal14FrameInspectorC2EPNS0_11CommonFrameEiPNS0_7IsolateE
libnode.so.115:_ZN2v88internal14FrameInspectorD1Ev
libnode.so.115:_ZN2v88internal14FrameInspectorD2Ev
libnode.so.115:_ZN2v88internal14FutexEmulation10WaitWasm32EPNS0_7IsolateENS0_6HandleINS0_13JSArrayBufferEEEmil
libnode.so.115:_ZN2v88internal14FutexEmulation10WaitWasm64EPNS0_7IsolateENS0_6HandleINS0_13JSArrayBufferEEEmll
libnode.so.115:_ZN2v88internal14FutexEmulation13IsolateDeinitEPNS0_7IsolateE
libnode.so.115:_ZN2v88internal14FutexEmulation17NotifyAsyncWaiterEPNS0_17FutexWaitListNodeE
libnode.so.115:_ZN2v88internal14FutexEmulation20NumWaitersForTestingENS0_6HandleINS0_13JSArrayBufferEEEm
libnode.so.115:_ZN2v88internal14FutexEmulation24HandleAsyncWaiterTimeoutEPNS0_17FutexWaitListNodeE
libnode.so.115:_ZN2v88internal14FutexEmulation25CleanupAsyncWaiterPromiseEPNS0_17FutexWaitListNodeE
libnode.so.115:_ZN2v88internal14FutexEmulation25NumAsyncWaitersForTestingEPNS0_7IsolateE
libnode.so.115:_ZN2v88internal14FutexEmulation25ResolveAsyncWaiterPromiseEPNS0_17FutexWaitListNodeE
libnode.so.115:_ZN2v88internal14FutexEmulation26ResolveAsyncWaiterPromisesEPNS0_7IsolateE
libnode.so.115:_ZN2v88internal14FutexEmulation36NumUnresolvedAsyncPromisesForTestingENS0_6HandleINS0_13JSArrayBufferEEEm
libnode.so.115:_ZN2v88internal14FutexEmulation4WakeENS0_6HandleINS0_13JSArrayBufferEEEmj
libnode.so.115:_ZN2v88internal14FutexEmulation8WaitJs32EPNS0_7IsolateENS1_8WaitModeENS0_6HandleINS0_13JSArrayBufferEEEmid
libnode.so.115:_ZN2v88internal14FutexEmulation8WaitJs64EPNS0_7IsolateENS1_8WaitModeENS0_6HandleINS0_13JSArrayBufferEEEmld
libnode.so.115:_ZN2v88internal14GetAbortReasonENS0_11AbortReasonE
libnode.so.115:_ZN2v88internal14GetFromIndex_0EPNS0_8compiler18CodeAssemblerStateENS0_5TNodeINS0_7ContextEEENS4_INS0_6UnionTINS0_3SmiENS0_10HeapNumberEEEEENS0_21TorqueStructArgumentsE
libnode.so.115:_ZN2v88internal14GetShouldThrowEPNS0_7IsolateENS_5MaybeINS0_11ShouldThrowEEE
libnode.so.115:_ZN2v88internal14GetTempArray_0EPNS0_8compiler18CodeAssemblerStateENS0_5TNodeINS0_7ContextEEENS4_INS0_9SortStateEEENS4_INS0_3SmiEEE
libnode.so.115:_ZN2v88internal14HeapObjectsMap10MoveObjectEmmi
libnode.so.115:_ZN2v88internal14HeapObjectsMap14FindOrAddEntryEmjb
libnode.so.115:_ZN2v88internal14HeapObjectsMap16UpdateObjectSizeEmi
libnode.so.115:_ZN2v88internal14HeapObjectsMap16kGcRootsObjectIdE
libnode.so.115:_ZN2v88internal14HeapObjectsMap17RemoveDeadEntriesEv
libnode.so.115:_ZN2v88internal14HeapObjectsMap20AddMergedNativeEntryEPvm
libnode.so.115:_ZN2v88internal14HeapObjectsMap20PushHeapObjectsStatsEPNS_12OutputStreamEPl
libnode.so.115:_ZN2v88internal14HeapObjectsMap20UpdateHeapObjectsMapEv
libnode.so.115:_ZN2v88internal14HeapObjectsMap21FindMergedNativeEntryEPv
libnode.so.115:_ZN2v88internal14HeapObjectsMap21kInternalRootObjectIdE
libnode.so.115:_ZN2v88internal14HeapObjectsMap22kGcRootsFirstSubrootIdE
libnode.so.115:_ZN2v88internal14HeapObjectsMap23StopHeapObjectsTrackingEv
libnode.so.115:_ZN2v88internal14HeapObjectsMap23kFirstAvailableObjectIdE
libnode.so.115:_ZN2v88internal14HeapObjectsMap9FindEntryEm
libnode.so.115:_ZN2v88internal14HeapObjectsMapC1EPNS0_4HeapE
libnode.so.115:_ZN2v88internal14HeapObjectsMapC2EPNS0_4HeapE
libnode.so.115:_ZN2v88internal14IndexGenerator7GetNextEv
libnode.so.115:_ZN2v88internal14IndexGenerator8GiveBackEm
libnode.so.115:_ZN2v88internal14IndexGeneratorC1Em
libnode.so.115:_ZN2v88internal14IndexGeneratorC2Em
libnode.so.115:_ZN2v88internal14IsHeapNumber_0EPNS0_8compiler18CodeAssemblerStateENS0_5TNodeINS0_10HeapObjectEEE
libnode.so.115:_ZN2v88internal14IsSpecialIndexENS0_6StringE
libnode.so.115:_ZN2v88internal14Is_Smi_JSAny_0EPNS0_8compiler18CodeAssemblerStateENS0_5TNodeINS0_7ContextEEENS4_INS0_6ObjectEEE
libnode.so.115:_ZN2v88internal14JSAtomicsMutex12LockSlowPathEPNS0_7IsolateENS0_6HandleIS1_EEPSt6atomicImE
libnode.so.115:_ZN2v88internal14JSAtomicsMutex14UnlockSlowPathEPNS0_7IsolateEPSt6atomicImE
libnode.so.115:_ZN2v88internal14JSAtomicsMutex15TryLockExplicitEPSt6atomicImERm
libnode.so.115:_ZN2v88internal14JSAtomicsMutex19JSAtomicsMutexPrintERSo
libnode.so.115:_ZN2v88internal14JSAtomicsMutex26TryLockWaiterQueueExplicitEPSt6atomicImERm
libnode.so.115:_ZN2v88internal14JSDisplayNames15ResolvedOptionsEPNS0_7IsolateENS0_6HandleIS1_EE
libnode.so.115:_ZN2v88internal14JSDisplayNames19GetAvailableLocalesB5cxx11Ev
libnode.so.115:_ZN2v88internal14JSDisplayNames19JSDisplayNamesPrintERSo
libnode.so.115:_ZN2v88internal14JSDisplayNames2OfEPNS0_7IsolateENS0_6HandleIS1_EENS4_INS0_6ObjectEEE
libnode.so.115:_ZN2v88internal14JSDisplayNames3NewEPNS0_7IsolateENS0_6HandleINS0_3MapEEENS4_INS0_6ObjectEEES8_
libnode.so.115:_ZN2v88internal14JSGlobalObject19JSGlobalObjectPrintERSo
libnode.so.115:_ZN2v88internal14JSGlobalObject22InvalidatePropertyCellENS0_6HandleIS1_EENS2_INS0_4NameEEE
libnode.so.115:_ZN2v88internal14JSNumberFormat13FormatNumericEPNS0_7IsolateERKN6icu_766number24LocalizedNumberFormatterENS0_6HandleINS0_6ObjectEEE
libnode.so.115:_ZN2v88internal14JSNumberFormat13FormatToPartsEPNS0_7IsolateENS0_6HandleIS1_EENS4_INS0_6ObjectEEE
libnode.so.115:_ZN2v88internal14JSNumberFormat15ResolvedOptionsEPNS0_7IsolateENS0_6HandleIS1_EE
libnode.so.115:_ZN2v88internal14JSNumberFormat17GetRangeFormatterEPNS0_7IsolateENS0_6StringERKN6icu_766number24LocalizedNumberFormatterE
libnode.so.115:_ZN2v88internal14JSNumberFormat18FormatNumericRangeEPNS0_7IsolateENS0_6HandleIS1_EENS4_INS0_6ObjectEEES7_
libnode.so.115:_ZN2v88internal14JSNumberFormat18UnwrapNumberFormatEPNS0_7IsolateENS0_6HandleINS0_10JSReceiverEEE
libnode.so.115:_ZN2v88internal14JSNumberFormat19GetAvailableLocalesB5cxx11Ev
libnode.so.115:_ZN2v88internal14JSNumberFormat19JSNumberFormatPrintERSo
libnode.so.115:_ZN2v88internal14JSNumberFormat20NumberFormatFunctionEPNS0_7IsolateENS0_6HandleIS1_EENS4_INS0_6ObjectEEE
libnode.so.115:_ZN2v88internal14JSNumberFormat25FormatNumericRangeToPartsEPNS0_7IsolateENS0_6HandleIS1_EENS4_INS0_6ObjectEEES7_
libnode.so.115:_ZN2v88internal14JSNumberFormat26FractionDigitsFromSkeletonERKN6icu_7613UnicodeStringEPiS6_
libnode.so.115:_ZN2v88internal14JSNumberFormat26SetDigitOptionsToFormatterERKN6icu_766number26UnlocalizedNumberFormatterERKNS0_4Intl24NumberFormatDigitOptionsEiNS1_17ShowTrailingZerosE
libnode.so.115:_ZN2v88internal14JSNumberFormat27NumberingSystemFromSkeletonERKN6icu_7613UnicodeStringE
libnode.so.115:_ZN2v88internal14JSNumberFormat29SignificantDigitsFromSkeletonERKN6icu_7613UnicodeStringEPiS6_
libnode.so.115:_ZN2v88internal14JSNumberFormat32MinimumIntegerDigitsFromSkeletonERKN6icu_7613UnicodeStringE
libnode.so.115:_ZN2v88internal14JSNumberFormat3NewEPNS0_7IsolateENS0_6HandleINS0_3MapEEENS4_INS0_6ObjectEEES8_PKc
libnode.so.115:_ZN2v88internal14JSSharedStruct19JSSharedStructPrintERSo
libnode.so.115:_ZN2v88internal14KeyAccumulator10IsShadowedENS0_6HandleINS0_6ObjectEEE
libnode.so.115:_ZN2v88internal14KeyAccumulator11CollectKeysENS0_6HandleINS0_10JSReceiverEEES4_
libnode.so.115:_ZN2v88internal14KeyAccumulator14CollectOwnKeysENS0_6HandleINS0_10JSReceiverEEENS2_INS0_8JSObjectEEE
libnode.so.115:_ZN2v88internal14KeyAccumulator15AddShadowingKeyENS0_6HandleINS0_6ObjectEEE
libnode.so.115:_ZN2v88internal14KeyAccumulator15AddShadowingKeyENS0_6ObjectEPNS0_22CombinationAssertScopeIJNS0_29PerThreadAssertScopeDebugOnlyILNS0_19PerThreadAssertTypeE0ELb1EEENS4_ILS5_1ELb1EEEEEE
libnode.so.115:_ZN2v88internal14KeyAccumulator16HasShadowingKeysEv
libnode.so.115:_ZN2v88internal14KeyAccumulator18AddKeysFromJSProxyENS0_6HandleINS0_7JSProxyEEENS2_INS0_10FixedArrayEEE
libnode.so.115:_ZN2v88internal14KeyAccumulator19CollectPrivateNamesENS0_6HandleINS0_10JSReceiverEEENS2_INS0_8JSObjectEEE
libnode.so.115:_ZN2v88internal14KeyAccumulator21CollectOwnJSProxyKeysENS0_6HandleINS0_10JSReceiverEEENS2_INS0_7JSProxyEEE
libnode.so.115:_ZN2v88internal14KeyAccumulator22CollectInterceptorKeysENS0_6HandleINS0_10JSReceiverEEENS2_INS0_8JSObjectEEENS1_14IndexedOrNamedE
libnode.so.115:_ZN2v88internal14KeyAccumulator22GetOwnEnumPropertyKeysEPNS0_7IsolateENS0_6HandleINS0_8JSObjectEEE
libnode.so.115:_ZN2v88internal14KeyAccumulator23CollectOwnPropertyNamesENS0_6HandleINS0_10JSReceiverEEENS2_INS0_8JSObjectEEE
libnode.so.115:_ZN2v88internal14KeyAccumulator24CollectOwnElementIndicesENS0_6HandleINS0_10JSReceiverEEENS2_INS0_8JSObjectEEE
libnode.so.115:_ZN2v88internal14KeyAccumulator27CollectOwnJSProxyTargetKeysENS0_6HandleINS0_7JSProxyEEENS2_INS0_10JSReceiverEEE
libnode.so.115:_ZN2v88internal14KeyAccumulator29FilterForEnumerablePropertiesENS0_6HandleINS0_10JSReceiverEEENS2_INS0_8JSObjectEEENS2_INS0_15InterceptorInfoEEES6_NS1_14IndexedOrNamedE
libnode.so.115:_ZN2v88internal14KeyAccumulator30CollectInterceptorKeysInternalENS0_6HandleINS0_10JSReceiverEEENS2_INS0_8JSObjectEEENS2_INS0_15InterceptorInfoEEENS1_14IndexedOrNamedE
libnode.so.115:_ZN2v88internal14KeyAccumulator33CollectAccessCheckInterceptorKeysENS0_6HandleINS0_15AccessCheckInfoEEENS2_INS0_10JSReceiverEEENS2_INS0_8JSObjectEEE
libnode.so.115:_ZN2v88internal14KeyAccumulator4keysEv
libnode.so.115:_ZN2v88internal14KeyAccumulator6AddKeyENS0_6HandleINS0_6ObjectEEENS0_16AddKeyConversionE
libnode.so.115:_ZN2v88internal14KeyAccumulator6AddKeyENS0_6ObjectENS0_16AddKeyConversionE
libnode.so.115:_ZN2v88internal14KeyAccumulator7AddKeysENS0_6HandleINS0_10FixedArrayEEENS0_16AddKeyConversionE
libnode.so.115:_ZN2v88internal14KeyAccumulator7AddKeysENS0_6HandleINS0_8JSObjectEEENS0_16AddKeyConversionE
libnode.so.115:_ZN2v88internal14KeyAccumulator7GetKeysENS0_17GetKeysConversionE
libnode.so.115:_ZN2v88internal14KeyAccumulator7GetKeysEPNS0_7IsolateENS0_6HandleINS0_10JSReceiverEEENS0_17KeyCollectionModeENS0_14PropertyFilterENS0_17GetKeysConversionEbb
libnode.so.115:_ZN2v88internal14LoadScriptId_0EPNS0_8compiler18CodeAssemblerStateENS0_5TNodeINS0_6ScriptEEE
libnode.so.115:_ZN2v88internal14LoadSmiPairA_0EPNS0_8compiler18CodeAssemblerStateENS0_5TNodeINS0_7SmiPairEEE
libnode.so.115:_ZN2v88internal14LoadSmiPairB_0EPNS0_8compiler18CodeAssemblerStateENS0_5TNodeINS0_7SmiPairEEE
libnode.so.115:_ZN2v88internal14LookupIterator13SwapDataValueENS0_6HandleINS0_6ObjectEEENS_15SeqCstAccessTagE
libnode.so.115:_ZN2v88internal14LookupIterator14WriteDataValueENS0_6HandleINS0_6ObjectEEENS_15SeqCstAccessTagE
libnode.so.115:_ZN2v88internal14LookupIterator14WriteDataValueENS0_6HandleINS0_6ObjectEEEb
libnode.so.115:_ZN2v88internal14LookupIterator20LookupCachedPropertyENS0_6HandleINS0_12AccessorPairEEE
libnode.so.115:_ZN2v88internal14LookupIterator22PrepareForDataPropertyENS0_6HandleINS0_6ObjectEEE
libnode.so.115:_ZN2v88internal14LookupIterator23GetRootForNonJSReceiverEPNS0_7IsolateENS0_6HandleINS0_6ObjectEEEm
libnode.so.115:_ZN2v88internal14LookupIterator23InternalUpdateProtectorEPNS0_7IsolateENS0_6HandleINS0_6ObjectEEENS4_INS0_4NameEEE
libnode.so.115:_ZN2v88internal14LookupIterator23ReconfigureDataPropertyENS0_6HandleINS0_6ObjectEEENS0_18PropertyAttributesE
libnode.so.115:_ZN2v88internal14LookupIterator23TryLookupCachedPropertyENS0_6HandleINS0_12AccessorPairEEE
libnode.so.115:_ZN2v88internal14LookupIterator23TryLookupCachedPropertyEv
libnode.so.115:_ZN2v88internal14LookupIterator24TransitionToAccessorPairENS0_6HandleINS0_6ObjectEEENS0_18PropertyAttributesE
libnode.so.115:_ZN2v88internal14LookupIterator28TransitionToAccessorPropertyENS0_6HandleINS0_6ObjectEEES4_NS0_18PropertyAttributesE
libnode.so.115:_ZN2v88internal14LookupIterator29ApplyTransitionToDataPropertyENS0_6HandleINS0_10JSReceiverEEE
libnode.so.115:_ZN2v88internal14LookupIterator31PrepareTransitionToDataPropertyENS0_6HandleINS0_10JSReceiverEEENS2_INS0_6ObjectEEENS0_18PropertyAttributesENS0_11StoreOriginE
libnode.so.115:_ZN2v88internal14LookupIterator4NextEv
libnode.so.115:_ZN2v88internal14LookupIterator6DeleteEv
libnode.so.115:_ZN2v88internal14LookupIteratorC1EPNS0_7IsolateENS0_6HandleINS0_6ObjectEEENS4_INS0_4NameEEENS4_INS0_3MapEEENS0_15PropertyDetailsEb
libnode.so.115:_ZN2v88internal14LookupIteratorC2EPNS0_7IsolateENS0_6HandleINS0_6ObjectEEENS4_INS0_4NameEEENS4_INS0_3MapEEENS0_15PropertyDetailsEb
libnode.so.115:_ZN2v88internal14LoopChoiceNode12FillInBMInfoEPNS0_7IsolateEiiPNS0_19BoyerMooreLookaheadEb
libnode.so.115:_ZN2v88internal14LoopChoiceNode13FilterOneByteEiNS_4base5FlagsINS0_10RegExpFlagEiEE
libnode.so.115:_ZN2v88internal14LoopChoiceNode18AddLoopAlternativeENS0_18GuardedAlternativeE
libnode.so.115:_ZN2v88internal14LoopChoiceNode20GetQuickCheckDetailsEPNS0_17QuickCheckDetailsEPNS0_14RegExpCompilerEib
libnode.so.115:_ZN2v88internal14LoopChoiceNode22AddContinueAlternativeENS0_18GuardedAlternativeE
libnode.so.115:_ZN2v88internal14LoopChoiceNode24EatsAtLeastFromLoopEntryEv
libnode.so.115:_ZN2v88internal14LoopChoiceNode33GetQuickCheckDetailsFromLoopEntryEPNS0_17QuickCheckDetailsEPNS0_14RegExpCompilerEib
libnode.so.115:_ZN2v88internal14LoopChoiceNode4EmitEPNS0_14RegExpCompilerEPNS0_5TraceE
libnode.so.115:_ZN2v88internal14LoopChoiceNode6AcceptEPNS0_11NodeVisitorE
libnode.so.115:_ZN2v88internal14LowLevelLogger11LogCodeInfoEv
libnode.so.115:_ZN2v88internal14LowLevelLogger13CodeMoveEventENS0_17InstructionStreamES2_
libnode.so.115:_ZN2v88internal14LowLevelLogger13LogWriteBytesEPKci
libnode.so.115:_ZN2v88internal14LowLevelLogger17BytecodeMoveEventENS0_13BytecodeArrayES2_
libnode.so.115:_ZN2v88internal14LowLevelLogger17CodeMovingGCEventEv
libnode.so.115:_ZN2v88internal14LowLevelLogger17LogRecordedBufferENS0_12AbstractCodeENS0_11MaybeHandleINS0_18SharedFunctionInfoEEEPKci
libnode.so.115:_ZN2v88internal14LowLevelLogger17LogRecordedBufferEPKNS0_4wasm8WasmCodeEPKci
libnode.so.115:_ZN2v88internal14LowLevelLogger7kLogExtE
libnode.so.115:_ZN2v88internal14LowLevelLoggerC1EPNS0_7IsolateEPKc
libnode.so.115:_ZN2v88internal14LowLevelLoggerC2EPNS0_7IsolateEPKc
libnode.so.115:_ZN2v88internal14LowLevelLoggerD0Ev
libnode.so.115:_ZN2v88internal14LowLevelLoggerD1Ev
libnode.so.115:_ZN2v88internal14LowLevelLoggerD2Ev
libnode.so.115:_ZN2v88internal14MacroAssembler10Cvttsd2siqENS0_8RegisterENS0_11XMMRegisterE
libnode.so.115:_ZN2v88internal14MacroAssembler10Cvttsd2siqENS0_8RegisterENS0_7OperandE
libnode.so.115:_ZN2v88internal14MacroAssembler10Cvttsd2uiqENS0_8RegisterENS0_11XMMRegisterEPNS0_5LabelE
libnode.so.115:_ZN2v88internal14MacroAssembler10Cvttsd2uiqENS0_8RegisterENS0_7OperandEPNS0_5LabelE
libnode.so.115:_ZN2v88internal14MacroAssembler10Cvttss2siqENS0_8RegisterENS0_11XMMRegisterE
libnode.so.115:_ZN2v88internal14MacroAssembler10Cvttss2siqENS0_8RegisterENS0_7OperandE
libnode.so.115:_ZN2v88internal14MacroAssembler10Cvttss2uiqENS0_8RegisterENS0_11XMMRegisterEPNS0_5LabelE
libnode.so.115:_ZN2v88internal14MacroAssembler10Cvttss2uiqENS0_8RegisterENS0_7OperandEPNS0_5LabelE
libnode.so.115:_ZN2v88internal14MacroAssembler10DebugBreakEv
libnode.so.115:_ZN2v88internal14MacroAssembler10EnterFrameENS0_10StackFrame4TypeE
libnode.so.115:_ZN2v88internal14MacroAssembler10LeaveFrameENS0_10StackFrame4TypeE
libnode.so.115:_ZN2v88internal14MacroAssembler10MoveNumberENS0_8RegisterEd
libnode.so.115:_ZN2v88internal14MacroAssembler10SmiCompareENS0_7OperandENS0_3SmiE
libnode.so.115:_ZN2v88internal14MacroAssembler10SmiCompareENS0_7OperandENS0_8RegisterE
libnode.so.115:_ZN2v88internal14MacroAssembler10SmiCompareENS0_8RegisterENS0_3SmiE
libnode.so.115:_ZN2v88internal14MacroAssembler10SmiCompareENS0_8RegisterENS0_7OperandE
libnode.so.115:_ZN2v88internal14MacroAssembler10SmiCompareENS0_8RegisterES2_
libnode.so.115:_ZN2v88internal14MacroAssembler10SmiToIndexENS0_8RegisterES2_i
libnode.so.115:_ZN2v88internal14MacroAssembler10SmiToInt32ENS0_8RegisterE
libnode.so.115:_ZN2v88internal14MacroAssembler10SmiToInt32ENS0_8RegisterES2_
libnode.so.115:_ZN2v88internal14MacroAssembler11CallBuiltinENS0_7BuiltinE
libnode.so.115:_ZN2v88internal14MacroAssembler11CallRuntimeEPKNS0_7Runtime8FunctionEi
libnode.so.115:_ZN2v88internal14MacroAssembler11CompareRootENS0_7OperandENS0_9RootIndexE
libnode.so.115:_ZN2v88internal14MacroAssembler11CompareRootENS0_8RegisterENS0_9RootIndexE
libnode.so.115:_ZN2v88internal14MacroAssembler11LoadAddressENS0_8RegisterENS0_17ExternalReferenceE
libnode.so.115:_ZN2v88internal14MacroAssembler11PushAddressENS0_17ExternalReferenceE
libnode.so.115:_ZN2v88internal14MacroAssembler11RecordWriteENS0_8RegisterES2_S2_NS0_14SaveFPRegsModeE8SmiCheck
libnode.so.115:_ZN2v88internal14MacroAssembler12CompareRangeENS0_8RegisterEjj
libnode.so.115:_ZN2v88internal14MacroAssembler12IsObjectTypeENS0_8RegisterENS0_12InstanceTypeES2_
libnode.so.115:_ZN2v88internal14MacroAssembler12JumpIfNotSmiENS0_7OperandEPNS0_5LabelENS3_8DistanceE
libnode.so.115:_ZN2v88internal14MacroAssembler12JumpIfNotSmiENS0_8RegisterEPNS0_5LabelENS3_8DistanceE
libnode.so.115:_ZN2v88internal14MacroAssembler12StubPrologueENS0_10StackFrame4TypeE
libnode.so.115:_ZN2v88internal14MacroAssembler13CallCFunctionENS0_17ExternalReferenceEiNS1_19SetIsolateDataSlotsE
libnode.so.115:_ZN2v88internal14MacroAssembler13CallCFunctionENS0_8RegisterEiNS1_19SetIsolateDataSlotsE
libnode.so.115:_ZN2v88internal14MacroAssembler13CheckPageFlagENS0_8RegisterES2_iNS0_9ConditionEPNS0_5LabelENS4_8DistanceE
libnode.so.115:_ZN2v88internal14MacroAssembler13CmpObjectTypeENS0_8RegisterENS0_12InstanceTypeES2_
libnode.so.115:_ZN2v88internal14MacroAssembler13DropArgumentsENS0_8RegisterENS1_18ArgumentsCountTypeENS1_18ArgumentsCountModeE
libnode.so.115:_ZN2v88internal14MacroAssembler13DropArgumentsENS0_8RegisterES2_NS1_18ArgumentsCountTypeENS1_18ArgumentsCountModeE
libnode.so.115:_ZN2v88internal14MacroAssembler13LoadCodeEntryENS0_8RegisterES2_
libnode.so.115:_ZN2v88internal14MacroAssembler13LoadWeakValueENS0_8RegisterEPNS0_5LabelE
libnode.so.115:_ZN2v88internal14MacroAssembler13RootAsOperandENS0_9RootIndexE
libnode.so.115:_ZN2v88internal14MacroAssembler13SmiUntagFieldENS0_8RegisterENS0_7OperandE
libnode.so.115:_ZN2v88internal14MacroAssembler14CallCodeObjectENS0_8RegisterE
libnode.so.115:_ZN2v88internal14MacroAssembler14EnterExitFrameEiNS0_10StackFrame4TypeE
libnode.so.115:_ZN2v88internal14MacroAssembler14GetSmiConstantENS0_3SmiE
libnode.so.115:_ZN2v88internal14MacroAssembler14InvokeFunctionENS0_8RegisterES2_S2_10InvokeType
libnode.so.115:_ZN2v88internal14MacroAssembler14InvokeFunctionENS0_8RegisterES2_S2_S2_10InvokeType
libnode.so.115:_ZN2v88internal14MacroAssembler14InvokePrologueENS0_8RegisterES2_10InvokeType
libnode.so.115:_ZN2v88internal14MacroAssembler14JumpCodeObjectENS0_8RegisterE8JumpMode
libnode.so.115:_ZN2v88internal14MacroAssembler14LeaveExitFrameEv
libnode.so.115:_ZN2v88internal14MacroAssembler14LoadTaggedRootENS0_8RegisterENS0_9RootIndexE
libnode.so.115:_ZN2v88internal14MacroAssembler14PextrdPreSse41ENS0_8RegisterENS0_11XMMRegisterEh
libnode.so.115:_ZN2v88internal14MacroAssembler14PinsrdPreSse41ENS0_11XMMRegisterENS0_7OperandEhPj
libnode.so.115:_ZN2v88internal14MacroAssembler14PinsrdPreSse41ENS0_11XMMRegisterENS0_8RegisterEhPj
libnode.so.115:_ZN2v88internal14MacroAssembler14PopCallerSavedENS0_14SaveFPRegsModeENS0_8RegisterE
libnode.so.115:_ZN2v88internal14MacroAssembler14SmiAddConstantENS0_7OperandENS0_3SmiE
libnode.so.115:_ZN2v88internal14MacroAssembler15CmpInstanceTypeENS0_8RegisterENS0_12InstanceTypeE
libnode.so.115:_ZN2v88internal14MacroAssembler15JumpIfIsInRangeENS0_8RegisterEjjPNS0_5LabelENS3_8DistanceE
libnode.so.115:_ZN2v88internal14MacroAssembler15LoadTaggedFieldENS0_14TaggedRegisterENS0_7OperandE
libnode.so.115:_ZN2v88internal14MacroAssembler15LoadTaggedFieldENS0_8RegisterENS0_7OperandE
libnode.so.115:_ZN2v88internal14MacroAssembler15PopStackHandlerEv
libnode.so.115:_ZN2v88internal14MacroAssembler15PushCallerSavedENS0_14SaveFPRegsModeENS0_8RegisterE
libnode.so.115:_ZN2v88internal14MacroAssembler15PushTaggedFieldENS0_7OperandENS0_8RegisterE
libnode.so.115:_ZN2v88internal14MacroAssembler15TailCallBuiltinENS0_7BuiltinE
libnode.so.115:_ZN2v88internal14MacroAssembler15TailCallBuiltinENS0_7BuiltinENS0_9ConditionE
libnode.so.115:_ZN2v88internal14MacroAssembler15TailCallRuntimeENS0_7Runtime10FunctionIdE
libnode.so.115:_ZN2v88internal14MacroAssembler16DecompressTaggedENS0_8RegisterENS0_7OperandE
libnode.so.115:_ZN2v88internal14MacroAssembler16DecompressTaggedENS0_8RegisterES2_
libnode.so.115:_ZN2v88internal14MacroAssembler16DecompressTaggedENS0_8RegisterEm
libnode.so.115:_ZN2v88internal14MacroAssembler16LoadRootRelativeENS0_8RegisterEi
libnode.so.115:_ZN2v88internal14MacroAssembler16PushStackHandlerEv
libnode.so.115:_ZN2v88internal14MacroAssembler16RecordWriteFieldENS0_8RegisterEiS2_S2_NS0_14SaveFPRegsModeE8SmiCheck
libnode.so.115:_ZN2v88internal14MacroAssembler16SmiUntagUnsignedENS0_8RegisterE
libnode.so.115:_ZN2v88internal14MacroAssembler16SmiUntagUnsignedENS0_8RegisterENS0_7OperandE
libnode.so.115:_ZN2v88internal14MacroAssembler16StoreTaggedFieldENS0_7OperandENS0_8RegisterE
libnode.so.115:_ZN2v88internal14MacroAssembler16StoreTaggedFieldENS0_7OperandENS0_9ImmediateE
libnode.so.115:_ZN2v88internal14MacroAssembler17LoadCompressedMapENS0_8RegisterES2_
libnode.so.115:_ZN2v88internal14MacroAssembler18CallBuiltinByIndexENS0_8RegisterE
libnode.so.115:_ZN2v88internal14MacroAssembler18IncsspqIfSupportedENS0_8RegisterES2_
libnode.so.115:_ZN2v88internal14MacroAssembler18InvokeFunctionCodeENS0_8RegisterES2_S2_S2_10InvokeType
libnode.so.115:_ZN2v88internal14MacroAssembler18StackOverflowCheckENS0_8RegisterEPNS0_5LabelENS3_8DistanceE
libnode.so.115:_ZN2v88internal14MacroAssembler19CallRecordWriteStubENS0_8RegisterES2_NS0_14SaveFPRegsModeENS0_12StubCallModeE
libnode.so.115:_ZN2v88internal14MacroAssembler19CheckStackAlignmentEv
libnode.so.115:_ZN2v88internal14MacroAssembler19StackLimitAsOperandENS0_14StackLimitKindE
libnode.so.115:_ZN2v88internal14MacroAssembler20BailoutIfDeoptimizedENS0_8RegisterE
libnode.so.115:_ZN2v88internal14MacroAssembler20CmpInstanceTypeRangeENS0_8RegisterES2_NS0_12InstanceTypeES3_
libnode.so.115:_ZN2v88internal14MacroAssembler20EmitDecrementCounterEPNS0_12StatsCounterEi
libnode.so.115:_ZN2v88internal14MacroAssembler20EmitIncrementCounterEPNS0_12StatsCounterEi
libnode.so.115:_ZN2v88internal14MacroAssembler20PrepareCallCFunctionEi
libnode.so.115:_ZN2v88internal14MacroAssembler21CallForDeoptimizationENS0_7BuiltinEiPNS0_5LabelENS0_14DeoptimizeKindES4_S4_
libnode.so.115:_ZN2v88internal14MacroAssembler21LoadNativeContextSlotENS0_8RegisterEi
libnode.so.115:_ZN2v88internal14MacroAssembler21LoadTaggedSignedFieldENS0_8RegisterENS0_7OperandE
libnode.so.115:_ZN2v88internal14MacroAssembler21SmiUntagFieldUnsignedENS0_8RegisterENS0_7OperandE
libnode.so.115:_ZN2v88internal14MacroAssembler22AtomicStoreTaggedFieldENS0_7OperandENS0_8RegisterE
libnode.so.115:_ZN2v88internal14MacroAssembler22DecodeSandboxedPointerENS0_8RegisterE
libnode.so.115:_ZN2v88internal14MacroAssembler22DecompressTaggedSignedENS0_8RegisterENS0_7OperandE
libnode.so.115:_ZN2v88internal14MacroAssembler22DropUnderReturnAddressEiNS0_8RegisterE
libnode.so.115:_ZN2v88internal14MacroAssembler22EncodeSandboxedPointerENS0_8RegisterE
libnode.so.115:_ZN2v88internal14MacroAssembler22LoadFromConstantsTableENS0_8RegisterEi
libnode.so.115:_ZN2v88internal14MacroAssembler22LoadRootRegisterOffsetENS0_8RegisterEl
libnode.so.115:_ZN2v88internal14MacroAssembler22StoreTaggedSignedFieldENS0_7OperandENS0_3SmiE
libnode.so.115:_ZN2v88internal14MacroAssembler23CallDebugOnFunctionCallENS0_8RegisterES2_S2_S2_
libnode.so.115:_ZN2v88internal14MacroAssembler23CallEphemeronKeyBarrierENS0_8RegisterES2_NS0_14SaveFPRegsModeE
libnode.so.115:_ZN2v88internal14MacroAssembler23ComputeCodeStartAddressENS0_8RegisterE
libnode.so.115:_ZN2v88internal14MacroAssembler23JumpToExternalReferenceERKNS0_17ExternalReferenceEb
libnode.so.115:_ZN2v88internal14MacroAssembler23TryLoadOptimizedOsrCodeENS0_8RegisterES2_NS0_12FeedbackSlotEPNS0_5LabelENS4_8DistanceE
libnode.so.115:_ZN2v88internal14MacroAssembler24LoadExternalPointerFieldENS0_8RegisterENS0_7OperandENS0_18ExternalPointerTagES2_NS1_19IsolateRootLocationE
libnode.so.115:_ZN2v88internal14MacroAssembler25EntryFromBuiltinAsOperandENS0_7BuiltinE
libnode.so.115:_ZN2v88internal14MacroAssembler25JumpIfJSAnyIsNotPrimitiveENS0_8RegisterES2_PNS0_5LabelENS3_8DistanceENS0_9ConditionE
libnode.so.115:_ZN2v88internal14MacroAssembler25LoadSandboxedPointerFieldENS0_8RegisterENS0_7OperandE
libnode.so.115:_ZN2v88internal14MacroAssembler26ExternalReferenceAsOperandENS0_17ExternalReferenceENS0_8RegisterE
libnode.so.115:_ZN2v88internal14MacroAssembler26StoreSandboxedPointerFieldENS0_7OperandENS0_8RegisterE
libnode.so.115:_ZN2v88internal14MacroAssembler30EntryFromBuiltinIndexAsOperandENS0_8RegisterE
libnode.so.115:_ZN2v88internal14MacroAssembler30GenerateTailCallToReturnedCodeENS0_7Runtime10FunctionIdE8JumpMode
libnode.so.115:_ZN2v88internal14MacroAssembler31DropArgumentsAndPushNewReceiverENS0_8RegisterENS0_7OperandES2_NS1_18ArgumentsCountTypeENS1_18ArgumentsCountModeE
libnode.so.115:_ZN2v88internal14MacroAssembler31DropArgumentsAndPushNewReceiverENS0_8RegisterES2_S2_NS1_18ArgumentsCountTypeENS1_18ArgumentsCountModeE
libnode.so.115:_ZN2v88internal14MacroAssembler32CallRecordWriteStubSaveRegistersENS0_8RegisterES2_NS0_14SaveFPRegsModeENS0_12StubCallModeE
libnode.so.115:_ZN2v88internal14MacroAssembler33TestCodeIsMarkedForDeoptimizationENS0_8RegisterE
libnode.so.115:_ZN2v88internal14MacroAssembler34ArgumentStackSlotsForCFunctionCallEi
libnode.so.115:_ZN2v88internal14MacroAssembler35LoadTaggedFieldWithoutDecompressingENS0_8RegisterENS0_7OperandE
libnode.so.115:_ZN2v88internal14MacroAssembler35ReplaceClosureCodeWithOptimizedCodeENS0_8RegisterES2_S2_S2_
libnode.so.115:_ZN2v88internal14MacroAssembler39OptimizeCodeOrTailCallOptimizedCodeSlotENS0_8RegisterES2_S2_8JumpMode
libnode.so.115:_ZN2v88internal14MacroAssembler3CmpENS0_7OperandENS0_3SmiE
libnode.so.115:_ZN2v88internal14MacroAssembler3CmpENS0_7OperandENS0_6HandleINS0_6ObjectEEE
libnode.so.115:_ZN2v88internal14MacroAssembler3CmpENS0_8RegisterENS0_3SmiE
libnode.so.115:_ZN2v88internal14MacroAssembler3CmpENS0_8RegisterENS0_6HandleINS0_6ObjectEEE
libnode.so.115:_ZN2v88internal14MacroAssembler3CmpENS0_8RegisterEi
libnode.so.115:_ZN2v88internal14MacroAssembler3PopENS0_7OperandE
libnode.so.115:_ZN2v88internal14MacroAssembler3PopENS0_8RegisterE
libnode.so.115:_ZN2v88internal14MacroAssembler3RetEiNS0_8RegisterE
libnode.so.115:_ZN2v88internal14MacroAssembler3RetEv
libnode.so.115:_ZN2v88internal14MacroAssembler47LoadFeedbackVectorFlagsAndJumpIfNeedsProcessingENS0_8RegisterES2_NS0_8CodeKindEPNS0_5LabelE
libnode.so.115:_ZN2v88internal14MacroAssembler4CallENS0_17ExternalReferenceE
libnode.so.115:_ZN2v88internal14MacroAssembler4CallENS0_6HandleINS0_4CodeEEENS0_9RelocInfo4ModeE
libnode.so.115:_ZN2v88internal14MacroAssembler4CallENS0_7OperandE
libnode.so.115:_ZN2v88internal14MacroAssembler4CallEmNS0_9RelocInfo4ModeE
libnode.so.115:_ZN2v88internal14MacroAssembler4DropEi
libnode.so.115:_ZN2v88internal14MacroAssembler4JumpENS0_6HandleINS0_4CodeEEENS0_9RelocInfo4ModeE
libnode.so.115:_ZN2v88internal14MacroAssembler4JumpENS0_6HandleINS0_4CodeEEENS0_9RelocInfo4ModeENS0_9ConditionE
libnode.so.115:_ZN2v88internal14MacroAssembler4JumpENS0_7OperandE
libnode.so.115:_ZN2v88internal14MacroAssembler4JumpENS0_7OperandENS0_9ConditionE
libnode.so.115:_ZN2v88internal14MacroAssembler4JumpERKNS0_17ExternalReferenceE
libnode.so.115:_ZN2v88internal14MacroAssembler4JumpEmNS0_9RelocInfo4ModeE
libnode.so.115:_ZN2v88internal14MacroAssembler4JumpEmNS0_9RelocInfo4ModeENS0_9ConditionE
libnode.so.115:_ZN2v88internal14MacroAssembler4LoadENS0_8RegisterENS0_17ExternalReferenceE
libnode.so.115:_ZN2v88internal14MacroAssembler4MoveENS0_11XMMRegisterES2_
libnode.so.115:_ZN2v88internal14MacroAssembler4MoveENS0_11XMMRegisterEj
libnode.so.115:_ZN2v88internal14MacroAssembler4MoveENS0_11XMMRegisterEm
libnode.so.115:_ZN2v88internal14MacroAssembler4MoveENS0_11XMMRegisterEmm
libnode.so.115:_ZN2v88internal14MacroAssembler4MoveENS0_7OperandENS0_6HandleINS0_10HeapObjectEEENS0_9RelocInfo4ModeE
libnode.so.115:_ZN2v88internal14MacroAssembler4MoveENS0_7OperandEl
libnode.so.115:_ZN2v88internal14MacroAssembler4MoveENS0_8RegisterENS0_17ExternalReferenceE
libnode.so.115:_ZN2v88internal14MacroAssembler4MoveENS0_8RegisterENS0_3SmiE
libnode.so.115:_ZN2v88internal14MacroAssembler4MoveENS0_8RegisterENS0_6HandleINS0_10HeapObjectEEENS0_9RelocInfo4ModeE
libnode.so.115:_ZN2v88internal14MacroAssembler4MoveENS0_8RegisterENS0_7OperandE
libnode.so.115:_ZN2v88internal14MacroAssembler4MoveENS0_8RegisterENS0_9ImmediateE
libnode.so.115:_ZN2v88internal14MacroAssembler4MoveENS0_8RegisterES2_
libnode.so.115:_ZN2v88internal14MacroAssembler4MovqENS0_11XMMRegisterENS0_8RegisterE
libnode.so.115:_ZN2v88internal14MacroAssembler4MovqENS0_8RegisterENS0_11XMMRegisterE
libnode.so.115:_ZN2v88internal14MacroAssembler4PushENS0_3SmiE
libnode.so.115:_ZN2v88internal14MacroAssembler4PushENS0_6HandleINS0_10HeapObjectEEE
libnode.so.115:_ZN2v88internal14MacroAssembler4PushENS0_7OperandE
libnode.so.115:_ZN2v88internal14MacroAssembler4PushENS0_8RegisterE
libnode.so.115:_ZN2v88internal14MacroAssembler4PushENS0_9ImmediateE
libnode.so.115:_ZN2v88internal14MacroAssembler4TrapEv
libnode.so.115:_ZN2v88internal14MacroAssembler5AbortENS0_11AbortReasonE
libnode.so.115:_ZN2v88internal14MacroAssembler5CheckENS0_9ConditionENS0_11AbortReasonE
libnode.so.115:_ZN2v88internal14MacroAssembler5StoreENS0_17ExternalReferenceENS0_8RegisterE
libnode.so.115:_ZN2v88internal14MacroAssembler6LzcntlENS0_8RegisterENS0_7OperandE
libnode.so.115:_ZN2v88internal14MacroAssembler6LzcntlENS0_8RegisterES2_
libnode.so.115:_ZN2v88internal14MacroAssembler6LzcntqENS0_8RegisterENS0_7OperandE
libnode.so.115:_ZN2v88internal14MacroAssembler6LzcntqENS0_8RegisterES2_
libnode.so.115:_ZN2v88internal14MacroAssembler6PextrqENS0_8RegisterENS0_11XMMRegisterEa
libnode.so.115:_ZN2v88internal14MacroAssembler6PinsrqENS0_11XMMRegisterES2_NS0_7OperandEhPj
libnode.so.115:_ZN2v88internal14MacroAssembler6PinsrqENS0_11XMMRegisterES2_NS0_8RegisterEhPj
libnode.so.115:_ZN2v88internal14MacroAssembler6PopAllENS0_11RegListBaseINS0_11XMMRegisterEEEi
libnode.so.115:_ZN2v88internal14MacroAssembler6PopAllENS0_11RegListBaseINS0_8RegisterEEE
libnode.so.115:_ZN2v88internal14MacroAssembler6SmiTagENS0_8RegisterE
libnode.so.115:_ZN2v88internal14MacroAssembler6SmiTagENS0_8RegisterES2_
libnode.so.115:_ZN2v88internal14MacroAssembler6SwitchENS0_8RegisterES2_iPPNS0_5LabelEi
libnode.so.115:_ZN2v88internal14MacroAssembler6TzcntlENS0_8RegisterENS0_7OperandE
libnode.so.115:_ZN2v88internal14MacroAssembler6TzcntlENS0_8RegisterES2_
libnode.so.115:_ZN2v88internal14MacroAssembler6TzcntqENS0_8RegisterENS0_7OperandE
libnode.so.115:_ZN2v88internal14MacroAssembler6TzcntqENS0_8RegisterES2_
libnode.so.115:_ZN2v88internal14MacroAssembler7CmpeqsdENS0_11XMMRegisterES2_
libnode.so.115:_ZN2v88internal14MacroAssembler7CmpeqssENS0_11XMMRegisterES2_
libnode.so.115:_ZN2v88internal14MacroAssembler7LoadMapENS0_8RegisterES2_
libnode.so.115:_ZN2v88internal14MacroAssembler7PopQuadENS0_7OperandE
libnode.so.115:_ZN2v88internal14MacroAssembler7PopcntlENS0_8RegisterENS0_7OperandE
libnode.so.115:_ZN2v88internal14MacroAssembler7PopcntlENS0_8RegisterES2_
libnode.so.115:_ZN2v88internal14MacroAssembler7PopcntqENS0_8RegisterENS0_7OperandE
libnode.so.115:_ZN2v88internal14MacroAssembler7PopcntqENS0_8RegisterES2_
libnode.so.115:_ZN2v88internal14MacroAssembler7PushAllENS0_11RegListBaseINS0_11XMMRegisterEEEi
libnode.so.115:_ZN2v88internal14MacroAssembler7PushAllENS0_11RegListBaseINS0_8RegisterEEE
libnode.so.115:_ZN2v88internal14MacroAssembler8CheckSmiENS0_7OperandE
libnode.so.115:_ZN2v88internal14MacroAssembler8CheckSmiENS0_8RegisterE
libnode.so.115:_ZN2v88internal14MacroAssembler8Cvtsd2ssENS0_11XMMRegisterENS0_7OperandE
libnode.so.115:_ZN2v88internal14MacroAssembler8Cvtsd2ssENS0_11XMMRegisterES2_
libnode.so.115:_ZN2v88internal14MacroAssembler8Cvtss2sdENS0_11XMMRegisterENS0_7OperandE
libnode.so.115:_ZN2v88internal14MacroAssembler8Cvtss2sdENS0_11XMMRegisterES2_
libnode.so.115:_ZN2v88internal14MacroAssembler8LoadRootENS0_8RegisterENS0_9RootIndexE
libnode.so.115:_ZN2v88internal14MacroAssembler8MovePairENS0_8RegisterES2_S2_S2_
libnode.so.115:_ZN2v88internal14MacroAssembler8PrologueEv
libnode.so.115:_ZN2v88internal14MacroAssembler8PushQuadENS0_7OperandE
libnode.so.115:_ZN2v88internal14MacroAssembler8PushRootENS0_9RootIndexE
libnode.so.115:_ZN2v88internal14MacroAssembler8SmiUntagENS0_8RegisterE
libnode.so.115:_ZN2v88internal14MacroAssembler8SmiUntagENS0_8RegisterENS0_7OperandE
libnode.so.115:_ZN2v88internal14MacroAssembler8SmiUntagENS0_8RegisterES2_
libnode.so.115:_ZN2v88internal14MacroAssembler9Cvtlsi2sdENS0_11XMMRegisterENS0_7OperandE
libnode.so.115:_ZN2v88internal14MacroAssembler9Cvtlsi2sdENS0_11XMMRegisterENS0_8RegisterE
libnode.so.115:_ZN2v88internal14MacroAssembler9Cvtlsi2ssENS0_11XMMRegisterENS0_7OperandE
libnode.so.115:_ZN2v88internal14MacroAssembler9Cvtlsi2ssENS0_11XMMRegisterENS0_8RegisterE
libnode.so.115:_ZN2v88internal14MacroAssembler9Cvtlui2sdENS0_11XMMRegisterENS0_7OperandE
libnode.so.115:_ZN2v88internal14MacroAssembler9Cvtlui2sdENS0_11XMMRegisterENS0_8RegisterE
libnode.so.115:_ZN2v88internal14MacroAssembler9Cvtlui2ssENS0_11XMMRegisterENS0_7OperandE
libnode.so.115:_ZN2v88internal14MacroAssembler9Cvtlui2ssENS0_11XMMRegisterENS0_8RegisterE
libnode.so.115:_ZN2v88internal14MacroAssembler9Cvtqsi2sdENS0_11XMMRegisterENS0_7OperandE
libnode.so.115:_ZN2v88internal14MacroAssembler9Cvtqsi2sdENS0_11XMMRegisterENS0_8RegisterE
libnode.so.115:_ZN2v88internal14MacroAssembler9Cvtqsi2ssENS0_11XMMRegisterENS0_7OperandE
libnode.so.115:_ZN2v88internal14MacroAssembler9Cvtqsi2ssENS0_11XMMRegisterENS0_8RegisterE
libnode.so.115:_ZN2v88internal14MacroAssembler9Cvtqui2sdENS0_11XMMRegisterENS0_7OperandE
libnode.so.115:_ZN2v88internal14MacroAssembler9Cvtqui2sdENS0_11XMMRegisterENS0_8RegisterE
libnode.so.115:_ZN2v88internal14MacroAssembler9Cvtqui2ssENS0_11XMMRegisterENS0_7OperandE
libnode.so.115:_ZN2v88internal14MacroAssembler9Cvtqui2ssENS0_11XMMRegisterENS0_8RegisterE
libnode.so.115:_ZN2v88internal14MacroAssembler9Cvttsd2siENS0_8RegisterENS0_11XMMRegisterE
libnode.so.115:_ZN2v88internal14MacroAssembler9Cvttsd2siENS0_8RegisterENS0_7OperandE
libnode.so.115:_ZN2v88internal14MacroAssembler9Cvttsd2uiENS0_8RegisterENS0_11XMMRegisterEPNS0_5LabelE
libnode.so.115:_ZN2v88internal14MacroAssembler9Cvttsd2uiENS0_8RegisterENS0_7OperandEPNS0_5LabelE
libnode.so.115:_ZN2v88internal14MacroAssembler9Cvttss2siENS0_8RegisterENS0_11XMMRegisterE
libnode.so.115:_ZN2v88internal14MacroAssembler9Cvttss2siENS0_8RegisterENS0_7OperandE
libnode.so.115:_ZN2v88internal14MacroAssembler9Cvttss2uiENS0_8RegisterENS0_11XMMRegisterEPNS0_5LabelE
libnode.so.115:_ZN2v88internal14MacroAssembler9Cvttss2uiENS0_8RegisterENS0_7OperandEPNS0_5LabelE
libnode.so.115:_ZN2v88internal14MacroAssembler9JumpIfSmiENS0_8RegisterEPNS0_5LabelENS3_8DistanceE
libnode.so.115:_ZN2v88internal14MacroAssembler9PushArrayENS0_8RegisterES2_S2_NS1_14PushArrayOrderE
libnode.so.115:_ZN2v88internal14MacroAssembler9PushImm32Ei
libnode.so.115:_ZN2v88internal14MarkingBarrier10DeactivateEv
libnode.so.115:_ZN2v88internal14MarkingBarrier10PublishAllEPNS0_4HeapE
libnode.so.115:_ZN2v88internal14MarkingBarrier11ActivateAllEPNS0_4HeapEbNS0_18MarkingBarrierTypeE
libnode.so.115:_ZN2v88internal14MarkingBarrier13DeactivateAllEPNS0_4HeapE
libnode.so.115:_ZN2v88internal14MarkingBarrier14ActivateSharedEv
libnode.so.115:_ZN2v88internal14MarkingBarrier15PublishIfNeededEv
libnode.so.115:_ZN2v88internal14MarkingBarrier15RecordRelocSlotEPNS0_9RelocInfoENS0_10HeapObjectE
libnode.so.115:_ZN2v88internal14MarkingBarrier16DeactivateSharedEv
libnode.so.115:_ZN2v88internal14MarkingBarrier16WriteWithoutHostENS0_10HeapObjectE
