libOkular6Core.so.4:_ZN6Okular10Annotation11setContentsERK7QString
libOkular6Core.so.4:_ZN6Okular10Annotation11setNativeIdERK8QVariant
libOkular6Core.so.4:_ZN6Okular10Annotation13setNativeDataESt10shared_ptrIvE
libOkular6Core.so.4:_ZN6Okular10Annotation13setUniqueNameERK7QString
libOkular6Core.so.4:_ZN6Okular10Annotation15setCreationDateERK9QDateTime
libOkular6Core.so.4:_ZN6Okular10Annotation19setModificationDateERK9QDateTime
libOkular6Core.so.4:_ZN6Okular10Annotation20setBoundingRectangleERKNS_14NormalizedRectE
libOkular6Core.so.4:_ZN6Okular10Annotation22setDisposeDataFunctionEPFvPKS0_E
libOkular6Core.so.4:_ZN6Okular10Annotation23setAnnotationPropertiesERK8QDomNode
libOkular6Core.so.4:_ZN6Okular10Annotation5Style10setOpacityEd
libOkular6Core.so.4:_ZN6Okular10Annotation5Style11setXCornersEd
libOkular6Core.so.4:_ZN6Okular10Annotation5Style11setYCornersEd
libOkular6Core.so.4:_ZN6Okular10Annotation5Style12setLineStyleENS0_9LineStyleE
libOkular6Core.so.4:_ZN6Okular10Annotation5Style13setLineEffectENS0_10LineEffectE
libOkular6Core.so.4:_ZN6Okular10Annotation5Style18setEffectIntensityEd
libOkular6Core.so.4:_ZN6Okular10Annotation5Style8setColorERK6QColor
libOkular6Core.so.4:_ZN6Okular10Annotation5Style8setMarksEi
libOkular6Core.so.4:_ZN6Okular10Annotation5Style8setWidthEd
libOkular6Core.so.4:_ZN6Okular10Annotation5Style9setSpacesEi
libOkular6Core.so.4:_ZN6Okular10Annotation5StyleC1ERKS1_
libOkular6Core.so.4:_ZN6Okular10Annotation5StyleC1Ev
libOkular6Core.so.4:_ZN6Okular10Annotation5StyleC2ERKS1_
libOkular6Core.so.4:_ZN6Okular10Annotation5StyleC2Ev
libOkular6Core.so.4:_ZN6Okular10Annotation5StyleD1Ev
libOkular6Core.so.4:_ZN6Okular10Annotation5StyleD2Ev
libOkular6Core.so.4:_ZN6Okular10Annotation5StyleaSERKS1_
libOkular6Core.so.4:_ZN6Okular10Annotation5styleEv
libOkular6Core.so.4:_ZN6Okular10Annotation6Window10setSummaryERK7QString
libOkular6Core.so.4:_ZN6Okular10Annotation6Window10setTopLeftERKNS_15NormalizedPointE
libOkular6Core.so.4:_ZN6Okular10Annotation6Window8setFlagsEi
libOkular6Core.so.4:_ZN6Okular10Annotation6Window8setTitleERK7QString
libOkular6Core.so.4:_ZN6Okular10Annotation6Window8setWidthEi
libOkular6Core.so.4:_ZN6Okular10Annotation6Window9setHeightEi
libOkular6Core.so.4:_ZN6Okular10Annotation6WindowC1ERKS1_
libOkular6Core.so.4:_ZN6Okular10Annotation6WindowC1Ev
libOkular6Core.so.4:_ZN6Okular10Annotation6WindowC2ERKS1_
libOkular6Core.so.4:_ZN6Okular10Annotation6WindowC2Ev
libOkular6Core.so.4:_ZN6Okular10Annotation6WindowD1Ev
libOkular6Core.so.4:_ZN6Okular10Annotation6WindowD2Ev
libOkular6Core.so.4:_ZN6Okular10Annotation6WindowaSERKS1_
libOkular6Core.so.4:_ZN6Okular10Annotation6adjustERKNS_15NormalizedPointES3_
libOkular6Core.so.4:_ZN6Okular10Annotation6windowEv
libOkular6Core.so.4:_ZN6Okular10Annotation8Revision13setAnnotationEPS0_
libOkular6Core.so.4:_ZN6Okular10Annotation8Revision7setTypeENS0_12RevisionTypeE
libOkular6Core.so.4:_ZN6Okular10Annotation8Revision8setScopeENS0_13RevisionScopeE
libOkular6Core.so.4:_ZN6Okular10Annotation8RevisionC1ERKS1_
libOkular6Core.so.4:_ZN6Okular10Annotation8RevisionC1Ev
libOkular6Core.so.4:_ZN6Okular10Annotation8RevisionC2ERKS1_
libOkular6Core.so.4:_ZN6Okular10Annotation8RevisionC2Ev
libOkular6Core.so.4:_ZN6Okular10Annotation8RevisionD1Ev
libOkular6Core.so.4:_ZN6Okular10Annotation8RevisionD2Ev
libOkular6Core.so.4:_ZN6Okular10Annotation8RevisionaSERKS1_
libOkular6Core.so.4:_ZN6Okular10Annotation8setFlagsEi
libOkular6Core.so.4:_ZN6Okular10Annotation9revisionsEv
libOkular6Core.so.4:_ZN6Okular10Annotation9setAuthorERK7QString
libOkular6Core.so.4:_ZN6Okular10Annotation9translateERKNS_15NormalizedPointE
libOkular6Core.so.4:_ZN6Okular10AnnotationC2ERNS_17AnnotationPrivateE
libOkular6Core.so.4:_ZN6Okular10AnnotationC2ERNS_17AnnotationPrivateERK8QDomNode
libOkular6Core.so.4:_ZN6Okular10AnnotationD0Ev
libOkular6Core.so.4:_ZN6Okular10AnnotationD1Ev
libOkular6Core.so.4:_ZN6Okular10AnnotationD2Ev
libOkular6Core.so.4:_ZN6Okular10GotoActionC1ERK7QStringRKNS_16DocumentViewportE
libOkular6Core.so.4:_ZN6Okular10GotoActionC1ERK7QStringS3_
libOkular6Core.so.4:_ZN6Okular10GotoActionC2ERK7QStringRKNS_16DocumentViewportE
libOkular6Core.so.4:_ZN6Okular10GotoActionC2ERK7QStringS3_
libOkular6Core.so.4:_ZN6Okular10GotoActionD0Ev
libOkular6Core.so.4:_ZN6Okular10GotoActionD1Ev
libOkular6Core.so.4:_ZN6Okular10GotoActionD2Ev
libOkular6Core.so.4:_ZN6Okular10ObjectRect9transformERK10QTransform
libOkular6Core.so.4:_ZN6Okular10ObjectRectC1ERK9QPolygonFNS0_10ObjectTypeEPv
libOkular6Core.so.4:_ZN6Okular10ObjectRectC1ERKNS_14NormalizedRectEbNS0_10ObjectTypeEPv
libOkular6Core.so.4:_ZN6Okular10ObjectRectC1EddddbNS0_10ObjectTypeEPv
libOkular6Core.so.4:_ZN6Okular10ObjectRectC2ERK9QPolygonFNS0_10ObjectTypeEPv
libOkular6Core.so.4:_ZN6Okular10ObjectRectC2ERKNS_14NormalizedRectEbNS0_10ObjectTypeEPv
libOkular6Core.so.4:_ZN6Okular10ObjectRectC2EddddbNS0_10ObjectTypeEPv
libOkular6Core.so.4:_ZN6Okular10ObjectRectD0Ev
libOkular6Core.so.4:_ZN6Okular10ObjectRectD1Ev
libOkular6Core.so.4:_ZN6Okular10ObjectRectD2Ev
libOkular6Core.so.4:_ZN6Okular10TextEntityC1ERK7QStringRKNS_14NormalizedRectE
libOkular6Core.so.4:_ZN6Okular10TextEntityC2ERK7QStringRKNS_14NormalizedRectE
libOkular6Core.so.4:_ZN6Okular10TextEntityD1Ev
libOkular6Core.so.4:_ZN6Okular10TextEntityD2Ev
libOkular6Core.so.4:_ZN6Okular11AudioPlayer11qt_metacallEN11QMetaObject4CallEiPPv
libOkular6Core.so.4:_ZN6Okular11AudioPlayer11qt_metacastEPKc
libOkular6Core.so.4:_ZN6Okular11AudioPlayer11setDocumentERK4QUrlPNS_8DocumentE
libOkular6Core.so.4:_ZN6Okular11AudioPlayer13resetDocumentEv
libOkular6Core.so.4:_ZN6Okular11AudioPlayer13stopPlaybacksEv
libOkular6Core.so.4:_ZN6Okular11AudioPlayer16staticMetaObjectE
libOkular6Core.so.4:_ZN6Okular11AudioPlayer8instanceEv
libOkular6Core.so.4:_ZN6Okular11AudioPlayer9playSoundEPKNS_5SoundEPKNS_11SoundActionE
libOkular6Core.so.4:_ZN6Okular11AudioPlayerC1Ev
libOkular6Core.so.4:_ZN6Okular11AudioPlayerC2Ev
libOkular6Core.so.4:_ZN6Okular11AudioPlayerD0Ev
libOkular6Core.so.4:_ZN6Okular11AudioPlayerD1Ev
libOkular6Core.so.4:_ZN6Okular11AudioPlayerD2Ev
libOkular6Core.so.4:_ZN6Okular11FilePrinter10deleteFileER8QPrinterNS0_16FileDeletePolicyERK7QString
libOkular6Core.so.4:_ZN6Okular11FilePrinter11cupsOptionsER8QPrinterN11QPageLayout11OrientationENS0_9ScaleModeE
libOkular6Core.so.4:_ZN6Okular11FilePrinter11destinationER8QPrinterRK7QString
libOkular6Core.so.4:_ZN6Okular11FilePrinter11optionMediaER8QPrinter
libOkular6Core.so.4:_ZN6Okular11FilePrinter12doPrintFilesER8QPrinterRK5QListI7QStringENS0_16FileDeletePolicyENS0_16PageSelectPolicyERKS4_N11QPageLayout11OrientationENS0_9ScaleModeE
libOkular6Core.so.4:_ZN6Okular11FilePrinter13cupsAvailableEv
libOkular6Core.so.4:_ZN6Okular11FilePrinter13mediaPageSizeER8QPrinter
libOkular6Core.so.4:_ZN6Okular11FilePrinter14printArgumentsER8QPrinterNS0_16FileDeletePolicyENS0_16PageSelectPolicyEbRK7QStringS7_N11QPageLayout11OrientationENS0_9ScaleModeE
libOkular6Core.so.4:_ZN6Okular11FilePrinter15optionPageOrderER8QPrinter
libOkular6Core.so.4:_ZN6Okular11FilePrinter15pdf2psAvailableEv
libOkular6Core.so.4:_ZN6Okular11FilePrinter15ps2pdfAvailableEv
libOkular6Core.so.4:_ZN6Okular11FilePrinter16mediaPaperSourceER8QPrinter
libOkular6Core.so.4:_ZN6Okular11FilePrinter17optionOrientationER8QPrinterN11QPageLayout11OrientationE
libOkular6Core.so.4:_ZN6Okular11FilePrinter17optionPageMarginsER8QPrinterNS0_9ScaleModeE
libOkular6Core.so.4:_ZN6Okular11FilePrinter19optionCollateCopiesER8QPrinter
libOkular6Core.so.4:_ZN6Okular11FilePrinter20optionCupsPropertiesER8QPrinter
libOkular6Core.so.4:_ZN6Okular11FilePrinter25optionDoubleSidedPrintingER8QPrinter
libOkular6Core.so.4:_ZN6Okular11FilePrinter5pagesER8QPrinterNS0_16PageSelectPolicyERK7QStringbS6_
libOkular6Core.so.4:_ZN6Okular11FilePrinter6copiesER8QPrinterRK7QString
libOkular6Core.so.4:_ZN6Okular11FilePrinter7jobnameER8QPrinterRK7QString
libOkular6Core.so.4:_ZN6Okular11FilePrinter8pageListER8QPrinteriiRK5QListIiE
libOkular6Core.so.4:_ZN6Okular11FilePrinter9printFileER8QPrinterRK7QStringN11QPageLayout11OrientationENS0_16FileDeletePolicyENS0_16PageSelectPolicyES5_NS0_9ScaleModeE
libOkular6Core.so.4:_ZN6Okular11MovieAction13setAnnotationEPNS_15MovieAnnotationE
libOkular6Core.so.4:_ZN6Okular11MovieActionC1ENS0_13OperationTypeE
libOkular6Core.so.4:_ZN6Okular11MovieActionC2ENS0_13OperationTypeE
libOkular6Core.so.4:_ZN6Okular11MovieActionD0Ev
libOkular6Core.so.4:_ZN6Okular11MovieActionD1Ev
libOkular6Core.so.4:_ZN6Okular11MovieActionD2Ev
libOkular6Core.so.4:_ZN6Okular11PagePrivate18findEquivalentFormEPKNS_4PageEPNS_9FormFieldE
libOkular6Core.so.4:_ZN6Okular11SoundActionC1EdbbbPNS_5SoundE
libOkular6Core.so.4:_ZN6Okular11SoundActionC2EdbbbPNS_5SoundE
libOkular6Core.so.4:_ZN6Okular11SoundActionD0Ev
libOkular6Core.so.4:_ZN6Okular11SoundActionD1Ev
libOkular6Core.so.4:_ZN6Okular11SoundActionD2Ev
libOkular6Core.so.4:_ZN6Okular11TextRequestC1EPNS_4PageE
libOkular6Core.so.4:_ZN6Okular11TextRequestC1Ev
libOkular6Core.so.4:_ZN6Okular11TextRequestC2EPNS_4PageE
libOkular6Core.so.4:_ZN6Okular11TextRequestC2Ev
libOkular6Core.so.4:_ZN6Okular11TextRequestD1Ev
libOkular6Core.so.4:_ZN6Okular11TextRequestD2Ev
libOkular6Core.so.4:_ZN6Okular11errorStringENS_13SigningResultERK8QVariant
libOkular6Core.so.4:_ZN6Okular12BrowseActionC1ERK4QUrl
libOkular6Core.so.4:_ZN6Okular12BrowseActionC2ERK4QUrl
libOkular6Core.so.4:_ZN6Okular12BrowseActionD0Ev
libOkular6Core.so.4:_ZN6Okular12BrowseActionD1Ev
libOkular6Core.so.4:_ZN6Okular12BrowseActionD2Ev
libOkular6Core.so.4:_ZN6Okular12DocumentInfo11getKeyTitleENS0_3KeyE
libOkular6Core.so.4:_ZN6Okular12DocumentInfo12getKeyStringENS0_3KeyE
libOkular6Core.so.4:_ZN6Okular12DocumentInfo16getKeyFromStringERK7QString
libOkular6Core.so.4:_ZN6Okular12DocumentInfo3setENS0_3KeyERK7QString
libOkular6Core.so.4:_ZN6Okular12DocumentInfo3setERK7QStringS3_S3_
libOkular6Core.so.4:_ZN6Okular12DocumentInfoC1ERKS0_
libOkular6Core.so.4:_ZN6Okular12DocumentInfoC1Ev
libOkular6Core.so.4:_ZN6Okular12DocumentInfoC2ERKS0_
libOkular6Core.so.4:_ZN6Okular12DocumentInfoC2Ev
libOkular6Core.so.4:_ZN6Okular12DocumentInfoD1Ev
libOkular6Core.so.4:_ZN6Okular12DocumentInfoD2Ev
libOkular6Core.so.4:_ZN6Okular12DocumentInfoaSERKS0_
libOkular6Core.so.4:_ZN6Okular12EmbeddedFileC2Ev
libOkular6Core.so.4:_ZN6Okular12EmbeddedFileD0Ev
libOkular6Core.so.4:_ZN6Okular12EmbeddedFileD1Ev
libOkular6Core.so.4:_ZN6Okular12EmbeddedFileD2Ev
libOkular6Core.so.4:_ZN6Okular12ExportFormat14standardFormatENS0_20StandardExportFormatE
libOkular6Core.so.4:_ZN6Okular12ExportFormatC1ERK5QIconRK7QStringRK9QMimeType
libOkular6Core.so.4:_ZN6Okular12ExportFormatC1ERK7QStringRK9QMimeType
libOkular6Core.so.4:_ZN6Okular12ExportFormatC1ERKS0_
libOkular6Core.so.4:_ZN6Okular12ExportFormatC1Ev
libOkular6Core.so.4:_ZN6Okular12ExportFormatC2ERK5QIconRK7QStringRK9QMimeType
libOkular6Core.so.4:_ZN6Okular12ExportFormatC2ERK7QStringRK9QMimeType
libOkular6Core.so.4:_ZN6Okular12ExportFormatC2ERKS0_
libOkular6Core.so.4:_ZN6Okular12ExportFormatC2Ev
libOkular6Core.so.4:_ZN6Okular12ExportFormatD1Ev
libOkular6Core.so.4:_ZN6Okular12ExportFormatD2Ev
libOkular6Core.so.4:_ZN6Okular12ExportFormataSERKS0_
libOkular6Core.so.4:_ZN6Okular12ScriptActionC1ENS_10ScriptTypeERK7QString
libOkular6Core.so.4:_ZN6Okular12ScriptActionC2ENS_10ScriptTypeERK7QString
libOkular6Core.so.4:_ZN6Okular12ScriptActionD0Ev
libOkular6Core.so.4:_ZN6Okular12ScriptActionD1Ev
libOkular6Core.so.4:_ZN6Okular12ScriptActionD2Ev
libOkular6Core.so.4:_ZN6Okular12SettingsCore10paperColorEv
libOkular6Core.so.4:_ZN6Okular12SettingsCore10renderModeEv
libOkular6Core.so.4:_ZN6Okular12SettingsCore10setObeyDRMEb
libOkular6Core.so.4:_ZN6Okular12SettingsCore10slidesLoopEv
libOkular6Core.so.4:_ZN6Okular12SettingsCore11itemChangedEy
libOkular6Core.so.4:_ZN6Okular12SettingsCore11memoryLevelEv
libOkular6Core.so.4:_ZN6Okular12SettingsCore11qt_metacallEN11QMetaObject4CallEiPPv
libOkular6Core.so.4:_ZN6Okular12SettingsCore11qt_metacastEPKc
libOkular6Core.so.4:_ZN6Okular12SettingsCore11textHintingEv
libOkular6Core.so.4:_ZN6Okular12SettingsCore12changeColorsEv
libOkular6Core.so.4:_ZN6Okular12SettingsCore13setPaperColorERK6QColor
libOkular6Core.so.4:_ZN6Okular12SettingsCore13setRenderModeEi
libOkular6Core.so.4:_ZN6Okular12SettingsCore13setSlidesLoopEb
libOkular6Core.so.4:_ZN6Okular12SettingsCore13slidesAdvanceEv
libOkular6Core.so.4:_ZN6Okular12SettingsCore13textAntialiasEv
libOkular6Core.so.4:_ZN6Okular12SettingsCore14externalEditorEv
libOkular6Core.so.4:_ZN6Okular12SettingsCore14setMemoryLevelEi
libOkular6Core.so.4:_ZN6Okular12SettingsCore14setTextHintingEi
libOkular6Core.so.4:_ZN6Okular12SettingsCore15enableThreadingEv
libOkular6Core.so.4:_ZN6Okular12SettingsCore15setChangeColorsEb
libOkular6Core.so.4:_ZN6Okular12SettingsCore16chooseGeneratorsEv
libOkular6Core.so.4:_ZN6Okular12SettingsCore16setSlidesAdvanceEb
libOkular6Core.so.4:_ZN6Okular12SettingsCore16setTextAntialiasEi
libOkular6Core.so.4:_ZN6Okular12SettingsCore16staticMetaObjectE
libOkular6Core.so.4:_ZN6Okular12SettingsCore17colorModesChangedEv
libOkular6Core.so.4:_ZN6Okular12SettingsCore17graphicsAntialiasEv
libOkular6Core.so.4:_ZN6Okular12SettingsCore17setExternalEditorEi
libOkular6Core.so.4:_ZN6Okular12SettingsCore17slidesAdvanceTimeEv
libOkular6Core.so.4:_ZN6Okular12SettingsCore18isObeyDRMImmutableEv
libOkular6Core.so.4:_ZN6Okular12SettingsCore18setEnableThreadingEb
libOkular6Core.so.4:_ZN6Okular12SettingsCore19setChooseGeneratorsEb
libOkular6Core.so.4:_ZN6Okular12SettingsCore19slidesTapNavigationEv
libOkular6Core.so.4:_ZN6Okular12SettingsCore20setGraphicsAntialiasEi
libOkular6Core.so.4:_ZN6Okular12SettingsCore20setSlidesAdvanceTimeEj
libOkular6Core.so.4:_ZN6Okular12SettingsCore21externalEditorCommandEv
libOkular6Core.so.4:_ZN6Okular12SettingsCore21isPaperColorImmutableEv
libOkular6Core.so.4:_ZN6Okular12SettingsCore21isRenderModeImmutableEv
libOkular6Core.so.4:_ZN6Okular12SettingsCore21isSlidesLoopImmutableEv
libOkular6Core.so.4:_ZN6Okular12SettingsCore22isMemoryLevelImmutableEv
libOkular6Core.so.4:_ZN6Okular12SettingsCore22isTextHintingImmutableEv
libOkular6Core.so.4:_ZN6Okular12SettingsCore22setSlidesTapNavigationEi
libOkular6Core.so.4:_ZN6Okular12SettingsCore23isChangeColorsImmutableEv
libOkular6Core.so.4:_ZN6Okular12SettingsCore24isSlidesAdvanceImmutableEv
libOkular6Core.so.4:_ZN6Okular12SettingsCore24isTextAntialiasImmutableEv
libOkular6Core.so.4:_ZN6Okular12SettingsCore24setExternalEditorCommandERK7QString
libOkular6Core.so.4:_ZN6Okular12SettingsCore25isExternalEditorImmutableEv
libOkular6Core.so.4:_ZN6Okular12SettingsCore26isEnableThreadingImmutableEv
libOkular6Core.so.4:_ZN6Okular12SettingsCore27isChooseGeneratorsImmutableEv
libOkular6Core.so.4:_ZN6Okular12SettingsCore28isGraphicsAntialiasImmutableEv
libOkular6Core.so.4:_ZN6Okular12SettingsCore28isSlidesAdvanceTimeImmutableEv
libOkular6Core.so.4:_ZN6Okular12SettingsCore28useFileInfoForViewContinuousEv
libOkular6Core.so.4:_ZN6Okular12SettingsCore30isSlidesTapNavigationImmutableEv
libOkular6Core.so.4:_ZN6Okular12SettingsCore31setUseFileInfoForViewContinuousEb
libOkular6Core.so.4:_ZN6Okular12SettingsCore32isExternalEditorCommandImmutableEv
libOkular6Core.so.4:_ZN6Okular12SettingsCore39isUseFileInfoForViewContinuousImmutableEv
libOkular6Core.so.4:_ZN6Okular12SettingsCore4selfEv
libOkular6Core.so.4:_ZN6Okular12SettingsCore7obeyDRMEv
libOkular6Core.so.4:_ZN6Okular12SettingsCore7usrSaveEv
libOkular6Core.so.4:_ZN6Okular12SettingsCore8instanceE28QExplicitlySharedDataPointerI13KSharedConfigE
libOkular6Core.so.4:_ZN6Okular12SettingsCore8instanceERK7QString
libOkular6Core.so.4:_ZN6Okular12SettingsCoreC1E28QExplicitlySharedDataPointerI13KSharedConfigE
libOkular6Core.so.4:_ZN6Okular12SettingsCoreC2E28QExplicitlySharedDataPointerI13KSharedConfigE
libOkular6Core.so.4:_ZN6Okular12SettingsCoreD0Ev
libOkular6Core.so.4:_ZN6Okular12SettingsCoreD1Ev
libOkular6Core.so.4:_ZN6Okular12SettingsCoreD2Ev
libOkular6Core.so.4:_ZN6Okular13ExecuteActionC1ERK7QStringS3_
libOkular6Core.so.4:_ZN6Okular13ExecuteActionC2ERK7QStringS3_
libOkular6Core.so.4:_ZN6Okular13ExecuteActionD0Ev
libOkular6Core.so.4:_ZN6Okular13ExecuteActionD1Ev
libOkular6Core.so.4:_ZN6Okular13ExecuteActionD2Ev
libOkular6Core.so.4:_ZN6Okular13FormFieldText18setAppearanceValueERK8QVariant
libOkular6Core.so.4:_ZN6Okular13FormFieldText7setTextERK7QString
libOkular6Core.so.4:_ZN6Okular13FormFieldText8setValueERK8QVariant
libOkular6Core.so.4:_ZN6Okular13FormFieldTextC2Ev
libOkular6Core.so.4:_ZN6Okular13FormFieldTextD0Ev
libOkular6Core.so.4:_ZN6Okular13FormFieldTextD1Ev
libOkular6Core.so.4:_ZN6Okular13FormFieldTextD2Ev
libOkular6Core.so.4:_ZN6Okular13InkAnnotation11setInkPathsERK5QListIS1_INS_15NormalizedPointEEE
libOkular6Core.so.4:_ZN6Okular13InkAnnotationC1ERK8QDomNode
libOkular6Core.so.4:_ZN6Okular13InkAnnotationC1Ev
libOkular6Core.so.4:_ZN6Okular13InkAnnotationC2ERK8QDomNode
libOkular6Core.so.4:_ZN6Okular13InkAnnotationC2Ev
libOkular6Core.so.4:_ZN6Okular13InkAnnotationD0Ev
libOkular6Core.so.4:_ZN6Okular13InkAnnotationD1Ev
libOkular6Core.so.4:_ZN6Okular13InkAnnotationD2Ev
libOkular6Core.so.4:_ZN6Okular13PixmapRequest17setNormalizedRectERKNS_14NormalizedRectE
libOkular6Core.so.4:_ZN6Okular13PixmapRequest23setPartialUpdatesWantedEb
libOkular6Core.so.4:_ZN6Okular13PixmapRequest7setTileEb
libOkular6Core.so.4:_ZN6Okular13PixmapRequestC1EPNS_16DocumentObserverEiiidi6QFlagsINS0_20PixmapRequestFeatureEE
libOkular6Core.so.4:_ZN6Okular13PixmapRequestC2EPNS_16DocumentObserverEiiidi6QFlagsINS0_20PixmapRequestFeatureEE
libOkular6Core.so.4:_ZN6Okular13PixmapRequestD1Ev
libOkular6Core.so.4:_ZN6Okular13PixmapRequestD2Ev
libOkular6Core.so.4:_ZN6Okular13SignatureInfo11setLocationERK7QString
libOkular6Core.so.4:_ZN6Okular13SignatureInfo12setSignatureERK10QByteArray
libOkular6Core.so.4:_ZN6Okular13SignatureInfo13setSignerNameERK7QString
libOkular6Core.so.4:_ZN6Okular13SignatureInfo14setSigningTimeERK9QDateTime
libOkular6Core.so.4:_ZN6Okular13SignatureInfo16setHashAlgorithmENS0_13HashAlgorithmE
libOkular6Core.so.4:_ZN6Okular13SignatureInfo18setCertificateInfoERKNS_15CertificateInfoE
libOkular6Core.so.4:_ZN6Okular13SignatureInfo18setSignatureStatusENS0_15SignatureStatusE
libOkular6Core.so.4:_ZN6Okular13SignatureInfo18setSignerSubjectDNERK7QString
libOkular6Core.so.4:_ZN6Okular13SignatureInfo20setCertificateStatusENS0_17CertificateStatusE
libOkular6Core.so.4:_ZN6Okular13SignatureInfo20setSignedRangeBoundsERK5QListIxE
libOkular6Core.so.4:_ZN6Okular13SignatureInfo21setSignsTotalDocumentEb
libOkular6Core.so.4:_ZN6Okular13SignatureInfo9setReasonERK7QString
libOkular6Core.so.4:_ZN6Okular13SignatureInfoC1EOS0_
libOkular6Core.so.4:_ZN6Okular13SignatureInfoC1ERKS0_
libOkular6Core.so.4:_ZN6Okular13SignatureInfoC1Ev
libOkular6Core.so.4:_ZN6Okular13SignatureInfoC2EOS0_
libOkular6Core.so.4:_ZN6Okular13SignatureInfoC2ERKS0_
libOkular6Core.so.4:_ZN6Okular13SignatureInfoC2Ev
libOkular6Core.so.4:_ZN6Okular13SignatureInfoD1Ev
libOkular6Core.so.4:_ZN6Okular13SignatureInfoD2Ev
libOkular6Core.so.4:_ZN6Okular13SignatureInfoaSEOS0_
libOkular6Core.so.4:_ZN6Okular13SignatureInfoaSERKS0_
libOkular6Core.so.4:_ZN6Okular13TextSelectionC1ERKNS_15NormalizedPointES3_
libOkular6Core.so.4:_ZN6Okular13TextSelectionC2ERKNS_15NormalizedPointES3_
libOkular6Core.so.4:_ZN6Okular13TextSelectionD1Ev
libOkular6Core.so.4:_ZN6Okular13TextSelectionD2Ev
libOkular6Core.so.4:_ZN6Okular14DocumentActionC1ENS0_18DocumentActionTypeE
libOkular6Core.so.4:_ZN6Okular14DocumentActionC2ENS0_18DocumentActionTypeE
libOkular6Core.so.4:_ZN6Okular14DocumentActionD0Ev
libOkular6Core.so.4:_ZN6Okular14DocumentActionD1Ev
libOkular6Core.so.4:_ZN6Okular14DocumentActionD2Ev
libOkular6Core.so.4:_ZN6Okular14GeomAnnotation18setGeometricalTypeENS0_8GeomTypeE
libOkular6Core.so.4:_ZN6Okular14GeomAnnotation24setGeometricalInnerColorERK6QColor
libOkular6Core.so.4:_ZN6Okular14GeomAnnotationC1ERK8QDomNode
libOkular6Core.so.4:_ZN6Okular14GeomAnnotationC1Ev
libOkular6Core.so.4:_ZN6Okular14GeomAnnotationC2ERK8QDomNode
libOkular6Core.so.4:_ZN6Okular14GeomAnnotationC2Ev
libOkular6Core.so.4:_ZN6Okular14GeomAnnotationD0Ev
libOkular6Core.so.4:_ZN6Okular14GeomAnnotationD1Ev
libOkular6Core.so.4:_ZN6Okular14GeomAnnotationD2Ev
libOkular6Core.so.4:_ZN6Okular14LineAnnotation13setLineClosedEb
libOkular6Core.so.4:_ZN6Okular14LineAnnotation13setLineIntentENS0_10LineIntentE
libOkular6Core.so.4:_ZN6Okular14LineAnnotation13setLinePointsERK5QListINS_15NormalizedPointEE
libOkular6Core.so.4:_ZN6Okular14LineAnnotation14setShowCaptionEb
libOkular6Core.so.4:_ZN6Okular14LineAnnotation15setLineEndStyleENS0_9TermStyleE
libOkular6Core.so.4:_ZN6Okular14LineAnnotation17setLineInnerColorERK6QColor
libOkular6Core.so.4:_ZN6Okular14LineAnnotation17setLineStartStyleENS0_9TermStyleE
libOkular6Core.so.4:_ZN6Okular14LineAnnotation26setLineLeadingForwardPointEd
libOkular6Core.so.4:_ZN6Okular14LineAnnotation27setLineLeadingBackwardPointEd
libOkular6Core.so.4:_ZN6Okular14LineAnnotationC1ERK8QDomNode
libOkular6Core.so.4:_ZN6Okular14LineAnnotationC1Ev
libOkular6Core.so.4:_ZN6Okular14LineAnnotationC2ERK8QDomNode
libOkular6Core.so.4:_ZN6Okular14LineAnnotationC2Ev
libOkular6Core.so.4:_ZN6Okular14LineAnnotationD0Ev
libOkular6Core.so.4:_ZN6Okular14LineAnnotationD1Ev
libOkular6Core.so.4:_ZN6Okular14LineAnnotationD2Ev
libOkular6Core.so.4:_ZN6Okular14NormalizedRect10fromQRectFERK6QRectF
libOkular6Core.so.4:_ZN6Okular14NormalizedRect9transformERK10QTransform
libOkular6Core.so.4:_ZN6Okular14NormalizedRectC1E5QRectdd
libOkular6Core.so.4:_ZN6Okular14NormalizedRectC1ERKS0_
libOkular6Core.so.4:_ZN6Okular14NormalizedRectC1Edddd
libOkular6Core.so.4:_ZN6Okular14NormalizedRectC1Ev
libOkular6Core.so.4:_ZN6Okular14NormalizedRectC2E5QRectdd
libOkular6Core.so.4:_ZN6Okular14NormalizedRectC2ERKS0_
libOkular6Core.so.4:_ZN6Okular14NormalizedRectC2Edddd
libOkular6Core.so.4:_ZN6Okular14NormalizedRectC2Ev
libOkular6Core.so.4:_ZN6Okular14NormalizedRectaSERKS0_
libOkular6Core.so.4:_ZN6Okular14NormalizedRectoRERKS0_
libOkular6Core.so.4:_ZN6Okular14PageTransition11setDurationEd
libOkular6Core.so.4:_ZN6Okular14PageTransition12setAlignmentENS0_9AlignmentE
libOkular6Core.so.4:_ZN6Okular14PageTransition12setDirectionENS0_9DirectionE
libOkular6Core.so.4:_ZN6Okular14PageTransition16setIsRectangularEb
libOkular6Core.so.4:_ZN6Okular14PageTransition7setTypeENS0_4TypeE
libOkular6Core.so.4:_ZN6Okular14PageTransition8setAngleEi
libOkular6Core.so.4:_ZN6Okular14PageTransition8setScaleEd
libOkular6Core.so.4:_ZN6Okular14PageTransitionC1ENS0_4TypeE
libOkular6Core.so.4:_ZN6Okular14PageTransitionC1ERKS0_
libOkular6Core.so.4:_ZN6Okular14PageTransitionC2ENS0_4TypeE
libOkular6Core.so.4:_ZN6Okular14PageTransitionC2ERKS0_
libOkular6Core.so.4:_ZN6Okular14PageTransitionD1Ev
libOkular6Core.so.4:_ZN6Okular14PageTransitionD2Ev
libOkular6Core.so.4:_ZN6Okular14PageTransitionaSERKS0_
libOkular6Core.so.4:_ZN6Okular14TextAnnotation11setTextFontERK5QFont
libOkular6Core.so.4:_ZN6Okular14TextAnnotation11setTextIconERK7QString
libOkular6Core.so.4:_ZN6Okular14TextAnnotation11setTextTypeENS0_8TextTypeE
libOkular6Core.so.4:_ZN6Okular14TextAnnotation12setTextColorERK6QColor
libOkular6Core.so.4:_ZN6Okular14TextAnnotation16setInplaceIntentENS0_13InplaceIntentE
libOkular6Core.so.4:_ZN6Okular14TextAnnotation17setInplaceCalloutERKNS_15NormalizedPointEi
libOkular6Core.so.4:_ZN6Okular14TextAnnotation19setInplaceAlignmentEi
libOkular6Core.so.4:_ZN6Okular14TextAnnotationC1ERK8QDomNode
libOkular6Core.so.4:_ZN6Okular14TextAnnotationC1Ev
libOkular6Core.so.4:_ZN6Okular14TextAnnotationC2ERK8QDomNode
libOkular6Core.so.4:_ZN6Okular14TextAnnotationC2Ev
libOkular6Core.so.4:_ZN6Okular14TextAnnotationD0Ev
libOkular6Core.so.4:_ZN6Okular14TextAnnotationD1Ev
libOkular6Core.so.4:_ZN6Okular14TextAnnotationD2Ev
libOkular6Core.so.4:_ZN6Okular15AnnotationProxyC2Ev
libOkular6Core.so.4:_ZN6Okular15AnnotationProxyD0Ev
libOkular6Core.so.4:_ZN6Okular15AnnotationProxyD1Ev
libOkular6Core.so.4:_ZN6Okular15AnnotationProxyD2Ev
libOkular6Core.so.4:_ZN6Okular15AnnotationUtils15storeAnnotationEPKNS_10AnnotationER11QDomElementR12QDomDocument
libOkular6Core.so.4:_ZN6Okular15AnnotationUtils16createAnnotationERK11QDomElement
libOkular6Core.so.4:_ZN6Okular15AnnotationUtils16findChildElementERK8QDomNodeRK7QString
libOkular6Core.so.4:_ZN6Okular15AnnotationUtils18annotationGeometryEPKNS_10AnnotationEdd
libOkular6Core.so.4:_ZN6Okular15AnnotationUtils9loadStampERK7QString5QSizeN2Qt15AspectRatioModeE
libOkular6Core.so.4:_ZN6Okular15AnnotationUtils9loadStampERK7QStringib
libOkular6Core.so.4:_ZN6Okular15BookmarkManager11addBookmarkERK4QUrlRKNS_16DocumentViewportERK7QString
libOkular6Core.so.4:_ZN6Okular15BookmarkManager11addBookmarkERKNS_16DocumentViewportE
libOkular6Core.so.4:_ZN6Okular15BookmarkManager11addBookmarkEi
libOkular6Core.so.4:_ZN6Okular15BookmarkManager11qt_metacallEN11QMetaObject4CallEiPPv
libOkular6Core.so.4:_ZN6Okular15BookmarkManager11qt_metacastEPKc
libOkular6Core.so.4:_ZN6Okular15BookmarkManager14removeBookmarkERK4QUrlRK9KBookmark
libOkular6Core.so.4:_ZN6Okular15BookmarkManager14removeBookmarkERKNS_16DocumentViewportE
libOkular6Core.so.4:_ZN6Okular15BookmarkManager14removeBookmarkEi
libOkular6Core.so.4:_ZN6Okular15BookmarkManager14renameBookmarkEP9KBookmarkRK7QString
libOkular6Core.so.4:_ZN6Okular15BookmarkManager14renameBookmarkERK4QUrlRK7QString
libOkular6Core.so.4:_ZN6Okular15BookmarkManager15removeBookmarksERK4QUrlRKN9KBookmark4ListE
libOkular6Core.so.4:_ZN6Okular15BookmarkManager16bookmarksChangedERK4QUrl
libOkular6Core.so.4:_ZN6Okular15BookmarkManager16staticMetaObjectE
libOkular6Core.so.4:_ZN6Okular15BookmarkManager18removePageBookmarkEi
libOkular6Core.so.4:_ZN6Okular15BookmarkManager5savedEv
libOkular6Core.so.4:_ZN6Okular15BookmarkManager6setUrlERK4QUrl
libOkular6Core.so.4:_ZN6Okular15BookmarkManager7Private10_o_changedERK7QString
libOkular6Core.so.4:_ZN6Okular15BookmarkManager7Private12bookmarkFindERK4QUrlbP14KBookmarkGroup
libOkular6Core.so.4:_ZN6Okular15BookmarkManager7Private12openBookmarkERK9KBookmark6QFlagsIN2Qt11MouseButtonEES5_INS6_16KeyboardModifierEE
libOkular6Core.so.4:_ZN6Okular15BookmarkManager7openUrlERK4QUrl
libOkular6Core.so.4:_ZN6Okular15BookmarkManagerC1EPNS_15DocumentPrivateE
libOkular6Core.so.4:_ZN6Okular15BookmarkManagerC2EPNS_15DocumentPrivateE
libOkular6Core.so.4:_ZN6Okular15BookmarkManagerD0Ev
libOkular6Core.so.4:_ZN6Okular15BookmarkManagerD1Ev
libOkular6Core.so.4:_ZN6Okular15BookmarkManagerD2Ev
libOkular6Core.so.4:_ZN6Okular15CaretAnnotation14setCaretSymbolENS0_11CaretSymbolE
libOkular6Core.so.4:_ZN6Okular15CaretAnnotationC1ERK8QDomNode
libOkular6Core.so.4:_ZN6Okular15CaretAnnotationC1Ev
libOkular6Core.so.4:_ZN6Okular15CaretAnnotationC2ERK8QDomNode
libOkular6Core.so.4:_ZN6Okular15CaretAnnotationC2Ev
libOkular6Core.so.4:_ZN6Okular15CaretAnnotationD0Ev
libOkular6Core.so.4:_ZN6Okular15CaretAnnotationD1Ev
libOkular6Core.so.4:_ZN6Okular15CaretAnnotationD2Ev
libOkular6Core.so.4:_ZN6Okular15CertificateInfo10setBackendENS0_7BackendE
libOkular6Core.so.4:_ZN6Okular15CertificateInfo10setVersionEi
libOkular6Core.so.4:_ZN6Okular15CertificateInfo11setNickNameERK7QString
libOkular6Core.so.4:_ZN6Okular15CertificateInfo12setPublicKeyERK10QByteArray
libOkular6Core.so.4:_ZN6Okular15CertificateInfo12setQualifiedEb
libOkular6Core.so.4:_ZN6Okular15CertificateInfo13setIssuerInfoENS0_13EntityInfoKeyERK7QString
libOkular6Core.so.4:_ZN6Okular15CertificateInfo13setSelfSignedEb
libOkular6Core.so.4:_ZN6Okular15CertificateInfo14setKeyLocationENS0_11KeyLocationE
libOkular6Core.so.4:_ZN6Okular15CertificateInfo14setSubjectInfoENS0_13EntityInfoKeyERK7QString
libOkular6Core.so.4:_ZN6Okular15CertificateInfo14setValidityEndERK9QDateTime
libOkular6Core.so.4:_ZN6Okular15CertificateInfo15setSerialNumberERK10QByteArray
libOkular6Core.so.4:_ZN6Okular15CertificateInfo16setPublicKeyTypeENS0_13PublicKeyTypeE
libOkular6Core.so.4:_ZN6Okular15CertificateInfo16setValidityStartERK9QDateTime
libOkular6Core.so.4:_ZN6Okular15CertificateInfo18setCertificateDataERK10QByteArray
libOkular6Core.so.4:_ZN6Okular15CertificateInfo18setCertificateTypeENS0_15CertificateTypeE
libOkular6Core.so.4:_ZN6Okular15CertificateInfo20setPublicKeyStrengthEi
libOkular6Core.so.4:_ZN6Okular15CertificateInfo21setKeyUsageExtensionsE6QFlagsINS0_17KeyUsageExtensionEE
libOkular6Core.so.4:_ZN6Okular15CertificateInfo24setCheckPasswordFunctionERKSt8functionIFbRK7QStringEE
libOkular6Core.so.4:_ZN6Okular15CertificateInfo7setNullEb
libOkular6Core.so.4:_ZN6Okular15CertificateInfoC1EOS0_
libOkular6Core.so.4:_ZN6Okular15CertificateInfoC1ERKS0_
libOkular6Core.so.4:_ZN6Okular15CertificateInfoC1Ev
libOkular6Core.so.4:_ZN6Okular15CertificateInfoC2EOS0_
libOkular6Core.so.4:_ZN6Okular15CertificateInfoC2ERKS0_
libOkular6Core.so.4:_ZN6Okular15CertificateInfoC2Ev
libOkular6Core.so.4:_ZN6Okular15CertificateInfoD1Ev
libOkular6Core.so.4:_ZN6Okular15CertificateInfoD2Ev
libOkular6Core.so.4:_ZN6Okular15CertificateInfoaSEOS0_
libOkular6Core.so.4:_ZN6Okular15CertificateInfoaSERKS0_
libOkular6Core.so.4:_ZN6Okular15DocumentPrivate15docDataFileNameERK4QUrlx
libOkular6Core.so.4:_ZN6Okular15DocumentPrivate28evaluateKeystrokeEventChangeERK7QStringS3_ii
libOkular6Core.so.4:_ZN6Okular15FormFieldButton7setIconEPNS_9FormFieldE
libOkular6Core.so.4:_ZN6Okular15FormFieldButton8setStateEb
libOkular6Core.so.4:_ZN6Okular15FormFieldButtonC2Ev
libOkular6Core.so.4:_ZN6Okular15FormFieldButtonD0Ev
libOkular6Core.so.4:_ZN6Okular15FormFieldButtonD1Ev
libOkular6Core.so.4:_ZN6Okular15FormFieldButtonD2Ev
libOkular6Core.so.4:_ZN6Okular15FormFieldChoice13setEditChoiceERK7QString
libOkular6Core.so.4:_ZN6Okular15FormFieldChoice15setExportValuesERK4QMapI7QStringS2_E
libOkular6Core.so.4:_ZN6Okular15FormFieldChoice17setCurrentChoicesERK5QListIiE
libOkular6Core.so.4:_ZN6Okular15FormFieldChoice18setAppearanceValueERK8QVariant
libOkular6Core.so.4:_ZN6Okular15FormFieldChoice8setValueERK8QVariant
libOkular6Core.so.4:_ZN6Okular15FormFieldChoiceC2Ev
libOkular6Core.so.4:_ZN6Okular15FormFieldChoiceD0Ev
libOkular6Core.so.4:_ZN6Okular15FormFieldChoiceD1Ev
libOkular6Core.so.4:_ZN6Okular15FormFieldChoiceD2Ev
libOkular6Core.so.4:_ZN6Okular15MovieAnnotation8setMovieEPNS_5MovieE
libOkular6Core.so.4:_ZN6Okular15MovieAnnotationC1ERK8QDomNode
libOkular6Core.so.4:_ZN6Okular15MovieAnnotationC1Ev
libOkular6Core.so.4:_ZN6Okular15MovieAnnotationC2ERK8QDomNode
libOkular6Core.so.4:_ZN6Okular15MovieAnnotationC2Ev
libOkular6Core.so.4:_ZN6Okular15MovieAnnotationD0Ev
libOkular6Core.so.4:_ZN6Okular15MovieAnnotationD1Ev
libOkular6Core.so.4:_ZN6Okular15MovieAnnotationD2Ev
libOkular6Core.so.4:_ZN6Okular15NormalizedPoint11distanceSqrEddddRKS0_S2_
libOkular6Core.so.4:_ZN6Okular15NormalizedPoint9transformERK10QTransform
libOkular6Core.so.4:_ZN6Okular15NormalizedPointC1ERKS0_
libOkular6Core.so.4:_ZN6Okular15NormalizedPointC1Edd
libOkular6Core.so.4:_ZN6Okular15NormalizedPointC1Eiiii
libOkular6Core.so.4:_ZN6Okular15NormalizedPointC1Ev
libOkular6Core.so.4:_ZN6Okular15NormalizedPointC2ERKS0_
libOkular6Core.so.4:_ZN6Okular15NormalizedPointC2Edd
libOkular6Core.so.4:_ZN6Okular15NormalizedPointC2Eiiii
libOkular6Core.so.4:_ZN6Okular15NormalizedPointC2Ev
libOkular6Core.so.4:_ZN6Okular15NormalizedPointaSERKS0_
libOkular6Core.so.4:_ZN6Okular15RegularAreaRectC1ERKS0_
libOkular6Core.so.4:_ZN6Okular15RegularAreaRectC1Ev
libOkular6Core.so.4:_ZN6Okular15RegularAreaRectC2ERKS0_
libOkular6Core.so.4:_ZN6Okular15RegularAreaRectC2Ev
libOkular6Core.so.4:_ZN6Okular15RegularAreaRectD1Ev
libOkular6Core.so.4:_ZN6Okular15RegularAreaRectD2Ev
libOkular6Core.so.4:_ZN6Okular15RegularAreaRectaSERKS0_
libOkular6Core.so.4:_ZN6Okular15RenditionAction13setAnnotationEPNS_16ScreenAnnotationE
libOkular6Core.so.4:_ZN6Okular15RenditionActionC1ENS0_13OperationTypeEPNS_5MovieENS_10ScriptTypeERK7QString
libOkular6Core.so.4:_ZN6Okular15RenditionActionC2ENS0_13OperationTypeEPNS_5MovieENS_10ScriptTypeERK7QString
libOkular6Core.so.4:_ZN6Okular15RenditionActionD0Ev
libOkular6Core.so.4:_ZN6Okular15RenditionActionD1Ev
libOkular6Core.so.4:_ZN6Okular15RenditionActionD2Ev
libOkular6Core.so.4:_ZN6Okular15SoundAnnotation16setSoundIconNameERK7QString
libOkular6Core.so.4:_ZN6Okular15SoundAnnotation8setSoundEPNS_5SoundE
libOkular6Core.so.4:_ZN6Okular15SoundAnnotationC1ERK8QDomNode
libOkular6Core.so.4:_ZN6Okular15SoundAnnotationC1Ev
libOkular6Core.so.4:_ZN6Okular15SoundAnnotationC2ERK8QDomNode
libOkular6Core.so.4:_ZN6Okular15SoundAnnotationC2Ev
libOkular6Core.so.4:_ZN6Okular15SoundAnnotationD0Ev
libOkular6Core.so.4:_ZN6Okular15SoundAnnotationD1Ev
libOkular6Core.so.4:_ZN6Okular15SoundAnnotationD2Ev
libOkular6Core.so.4:_ZN6Okular15SourceReferenceC1ERK7QStringii
libOkular6Core.so.4:_ZN6Okular15SourceReferenceC2ERK7QStringii
libOkular6Core.so.4:_ZN6Okular15SourceReferenceD1Ev
libOkular6Core.so.4:_ZN6Okular15SourceReferenceD2Ev
libOkular6Core.so.4:_ZN6Okular15StampAnnotation16setStampIconNameERK7QString
libOkular6Core.so.4:_ZN6Okular15StampAnnotationC1ERK8QDomNode
libOkular6Core.so.4:_ZN6Okular15StampAnnotationC1Ev
libOkular6Core.so.4:_ZN6Okular15StampAnnotationC2ERK8QDomNode
libOkular6Core.so.4:_ZN6Okular15StampAnnotationC2Ev
libOkular6Core.so.4:_ZN6Okular15StampAnnotationD0Ev
libOkular6Core.so.4:_ZN6Okular15StampAnnotationD1Ev
libOkular6Core.so.4:_ZN6Okular15StampAnnotationD2Ev
libOkular6Core.so.4:_ZN6Okular15VisiblePageRectC1EiRKNS_14NormalizedRectE
libOkular6Core.so.4:_ZN6Okular15VisiblePageRectC2EiRKNS_14NormalizedRectE
libOkular6Core.so.4:_ZN6Okular16CertificateStoreC1Ev
libOkular6Core.so.4:_ZN6Okular16CertificateStoreC2Ev
libOkular6Core.so.4:_ZN6Okular16CertificateStoreD0Ev
libOkular6Core.so.4:_ZN6Okular16CertificateStoreD1Ev
libOkular6Core.so.4:_ZN6Okular16CertificateStoreD2Ev
libOkular6Core.so.4:_ZN6Okular16DocumentObserver10notifyZoomEi
libOkular6Core.so.4:_ZN6Okular16DocumentObserver11notifySetupERK5QListIPNS_4PageEEi
libOkular6Core.so.4:_ZN6Okular16DocumentObserver17notifyPageChangedEii
libOkular6Core.so.4:_ZN6Okular16DocumentObserver21notifyContentsClearedEi
libOkular6Core.so.4:_ZN6Okular16DocumentObserver21notifyViewportChangedEb
libOkular6Core.so.4:_ZN6Okular16DocumentObserver24notifyCurrentPageChangedEii
libOkular6Core.so.4:_ZN6Okular16DocumentObserver25notifyVisibleRectsChangedEv
libOkular6Core.so.4:_ZN6Okular16DocumentObserverC1Ev
libOkular6Core.so.4:_ZN6Okular16DocumentObserverC2Ev
libOkular6Core.so.4:_ZN6Okular16DocumentObserverD0Ev
libOkular6Core.so.4:_ZN6Okular16DocumentObserverD1Ev
libOkular6Core.so.4:_ZN6Okular16DocumentObserverD2Ev
libOkular6Core.so.4:_ZN6Okular16DocumentSynopsisC1ERK12QDomDocument
libOkular6Core.so.4:_ZN6Okular16DocumentSynopsisC1Ev
libOkular6Core.so.4:_ZN6Okular16DocumentSynopsisC2ERK12QDomDocument
libOkular6Core.so.4:_ZN6Okular16DocumentSynopsisC2Ev
libOkular6Core.so.4:_ZN6Okular16DocumentViewportC1ERK7QString
libOkular6Core.so.4:_ZN6Okular16DocumentViewportC1Ei
libOkular6Core.so.4:_ZN6Okular16DocumentViewportC2ERK7QString
libOkular6Core.so.4:_ZN6Okular16DocumentViewportC2Ei
libOkular6Core.so.4:_ZN6Okular16NewSignatureData11setFontSizeEd
libOkular6Core.so.4:_ZN6Okular16NewSignatureData11setLocationERK7QString
libOkular6Core.so.4:_ZN6Okular16NewSignatureData11setPasswordERK7QString
libOkular6Core.so.4:_ZN6Okular16NewSignatureData15setCertNicknameERK7QString
libOkular6Core.so.4:_ZN6Okular16NewSignatureData15setLeftFontSizeEd
libOkular6Core.so.4:_ZN6Okular16NewSignatureData19setDocumentPasswordERK7QString
libOkular6Core.so.4:_ZN6Okular16NewSignatureData20setBoundingRectangleERKNS_14NormalizedRectE
libOkular6Core.so.4:_ZN6Okular16NewSignatureData22setBackgroundImagePathERK7QString
libOkular6Core.so.4:_ZN6Okular16NewSignatureData24setCertSubjectCommonNameERK7QString
libOkular6Core.so.4:_ZN6Okular16NewSignatureData7setPageEi
libOkular6Core.so.4:_ZN6Okular16NewSignatureData9setReasonERK7QString
libOkular6Core.so.4:_ZN6Okular16NewSignatureDataC1Ev
libOkular6Core.so.4:_ZN6Okular16NewSignatureDataC2Ev
libOkular6Core.so.4:_ZN6Okular16NewSignatureDataD1Ev
libOkular6Core.so.4:_ZN6Okular16NewSignatureDataD2Ev
libOkular6Core.so.4:_ZN6Okular16ScreenAnnotation19setAdditionalActionENS_10Annotation20AdditionalActionTypeEPNS_6ActionE
libOkular6Core.so.4:_ZN6Okular16ScreenAnnotation9setActionEPNS_6ActionE
libOkular6Core.so.4:_ZN6Okular16ScreenAnnotationC1ERK8QDomNode
libOkular6Core.so.4:_ZN6Okular16ScreenAnnotationC1Ev
libOkular6Core.so.4:_ZN6Okular16ScreenAnnotationC2ERK8QDomNode
libOkular6Core.so.4:_ZN6Okular16ScreenAnnotationC2Ev
libOkular6Core.so.4:_ZN6Okular16ScreenAnnotationD0Ev
libOkular6Core.so.4:_ZN6Okular16ScreenAnnotationD1Ev
libOkular6Core.so.4:_ZN6Okular16ScreenAnnotationD2Ev
libOkular6Core.so.4:_ZN6Okular16WidgetAnnotation19setAdditionalActionENS_10Annotation20AdditionalActionTypeEPNS_6ActionE
libOkular6Core.so.4:_ZN6Okular16WidgetAnnotationC1ERK8QDomNode
libOkular6Core.so.4:_ZN6Okular16WidgetAnnotationC1Ev
libOkular6Core.so.4:_ZN6Okular16WidgetAnnotationC2ERK8QDomNode
libOkular6Core.so.4:_ZN6Okular16WidgetAnnotationC2Ev
libOkular6Core.so.4:_ZN6Okular16WidgetAnnotationD0Ev
libOkular6Core.so.4:_ZN6Okular16WidgetAnnotationD1Ev
libOkular6Core.so.4:_ZN6Okular16WidgetAnnotationD2Ev
libOkular6Core.so.4:_ZN6Okular17AnnotationPrivate3getEPNS_10AnnotationE
libOkular6Core.so.4:_ZN6Okular18FormFieldSignatureC2Ev
libOkular6Core.so.4:_ZN6Okular18FormFieldSignatureD0Ev
libOkular6Core.so.4:_ZN6Okular18FormFieldSignatureD1Ev
libOkular6Core.so.4:_ZN6Okular18FormFieldSignatureD2Ev
libOkular6Core.so.4:_ZN6Okular18PrintOptionsWidget11qt_metacallEN11QMetaObject4CallEiPPv
libOkular6Core.so.4:_ZN6Okular18PrintOptionsWidget11qt_metacastEPKc
libOkular6Core.so.4:_ZN6Okular18PrintOptionsWidget16staticMetaObjectE
libOkular6Core.so.4:_ZN6Okular19BackendConfigDialog11qt_metacallEN11QMetaObject4CallEiPPv
libOkular6Core.so.4:_ZN6Okular19BackendConfigDialog11qt_metacastEPKc
libOkular6Core.so.4:_ZN6Okular19BackendConfigDialog16staticMetaObjectE
libOkular6Core.so.4:_ZN6Okular19BackendOpaqueActionC1Ev
libOkular6Core.so.4:_ZN6Okular19BackendOpaqueActionC2Ev
libOkular6Core.so.4:_ZN6Okular19HighlightAnnotation14highlightQuadsEv
libOkular6Core.so.4:_ZN6Okular19HighlightAnnotation16setHighlightTypeENS0_13HighlightTypeE
libOkular6Core.so.4:_ZN6Okular19HighlightAnnotation4Quad10setFeatherEd
libOkular6Core.so.4:_ZN6Okular19HighlightAnnotation4Quad11setCapStartEb
libOkular6Core.so.4:_ZN6Okular19HighlightAnnotation4Quad8setPointERKNS_15NormalizedPointEi
libOkular6Core.so.4:_ZN6Okular19HighlightAnnotation4Quad9setCapEndEb
libOkular6Core.so.4:_ZN6Okular19HighlightAnnotation4Quad9transformERK10QTransform
libOkular6Core.so.4:_ZN6Okular19HighlightAnnotation4QuadC1ERKS1_
libOkular6Core.so.4:_ZN6Okular19HighlightAnnotation4QuadC1Ev
libOkular6Core.so.4:_ZN6Okular19HighlightAnnotation4QuadC2ERKS1_
libOkular6Core.so.4:_ZN6Okular19HighlightAnnotation4QuadC2Ev
libOkular6Core.so.4:_ZN6Okular19HighlightAnnotation4QuadD1Ev
libOkular6Core.so.4:_ZN6Okular19HighlightAnnotation4QuadD2Ev
libOkular6Core.so.4:_ZN6Okular19HighlightAnnotation4QuadaSERKS1_
libOkular6Core.so.4:_ZN6Okular19HighlightAnnotationC1ERK8QDomNode
libOkular6Core.so.4:_ZN6Okular19HighlightAnnotationC1Ev
libOkular6Core.so.4:_ZN6Okular19HighlightAnnotationC2ERK8QDomNode
libOkular6Core.so.4:_ZN6Okular19HighlightAnnotationC2Ev
libOkular6Core.so.4:_ZN6Okular19HighlightAnnotationD0Ev
libOkular6Core.so.4:_ZN6Okular19HighlightAnnotationD1Ev
libOkular6Core.so.4:_ZN6Okular19HighlightAnnotationD2Ev
libOkular6Core.so.4:_ZN6Okular19NonOwningObjectRectC1EddddbNS_10ObjectRect10ObjectTypeEPv
libOkular6Core.so.4:_ZN6Okular19NonOwningObjectRectC2EddddbNS_10ObjectRect10ObjectTypeEPv
libOkular6Core.so.4:_ZN6Okular19NonOwningObjectRectD0Ev
libOkular6Core.so.4:_ZN6Okular19NonOwningObjectRectD1Ev
libOkular6Core.so.4:_ZN6Okular19NonOwningObjectRectD2Ev
libOkular6Core.so.4:_ZN6Okular19RichMediaAnnotation15setEmbeddedFileEPNS_12EmbeddedFileE
libOkular6Core.so.4:_ZN6Okular19RichMediaAnnotation8setMovieEPNS_5MovieE
libOkular6Core.so.4:_ZN6Okular19RichMediaAnnotationC1ERK8QDomNode
libOkular6Core.so.4:_ZN6Okular19RichMediaAnnotationC1Ev
libOkular6Core.so.4:_ZN6Okular19RichMediaAnnotationC2ERK8QDomNode
libOkular6Core.so.4:_ZN6Okular19RichMediaAnnotationC2Ev
libOkular6Core.so.4:_ZN6Okular19RichMediaAnnotationD0Ev
libOkular6Core.so.4:_ZN6Okular19RichMediaAnnotationD1Ev
libOkular6Core.so.4:_ZN6Okular19RichMediaAnnotationD2Ev
libOkular6Core.so.4:_ZN6Okular19SignatureAnnotation11setFontSizeEd
libOkular6Core.so.4:_ZN6Okular19SignatureAnnotation11setLeftTextERK7QString
libOkular6Core.so.4:_ZN6Okular19SignatureAnnotation12setImagePathERK7QString
libOkular6Core.so.4:_ZN6Okular19SignatureAnnotation15setLeftFontSizeEd
libOkular6Core.so.4:_ZN6Okular19SignatureAnnotation15setSignFunctionESt8functionIFSt4pairINS_13SigningResultE7QStringERKNS_16NewSignatureDataERKS4_EE
libOkular6Core.so.4:_ZN6Okular19SignatureAnnotation19setFieldPartialNameERK7QString
libOkular6Core.so.4:_ZN6Okular19SignatureAnnotation4signERKNS_16NewSignatureDataERK7QString
libOkular6Core.so.4:_ZN6Okular19SignatureAnnotation7setPageEi
libOkular6Core.so.4:_ZN6Okular19SignatureAnnotation7setTextERK7QString
libOkular6Core.so.4:_ZN6Okular19SignatureAnnotationC1Ev
libOkular6Core.so.4:_ZN6Okular19SignatureAnnotationC2Ev
libOkular6Core.so.4:_ZN6Okular19SignatureAnnotationD0Ev
libOkular6Core.so.4:_ZN6Okular19SignatureAnnotationD1Ev
libOkular6Core.so.4:_ZN6Okular19SignatureAnnotationD2Ev
libOkular6Core.so.4:_ZN6Okular19SourceRefObjectRectC1ERKNS_15NormalizedPointEPv
libOkular6Core.so.4:_ZN6Okular19SourceRefObjectRectC2ERKNS_15NormalizedPointEPv
libOkular6Core.so.4:_ZN6Okular20AnnotationObjectRect9transformERK10QTransform
libOkular6Core.so.4:_ZN6Okular20AnnotationObjectRectC1EPNS_10AnnotationE
libOkular6Core.so.4:_ZN6Okular20AnnotationObjectRectC2EPNS_10AnnotationE
libOkular6Core.so.4:_ZN6Okular20AnnotationObjectRectD0Ev
libOkular6Core.so.4:_ZN6Okular20AnnotationObjectRectD1Ev
libOkular6Core.so.4:_ZN6Okular20AnnotationObjectRectD2Ev
libOkular6Core.so.4:_ZN6Okular20TextDocumentSettings11qt_metacallEN11QMetaObject4CallEiPPv
libOkular6Core.so.4:_ZN6Okular20TextDocumentSettings11qt_metacastEPKc
libOkular6Core.so.4:_ZN6Okular20TextDocumentSettings16staticMetaObjectE
libOkular6Core.so.4:_ZN6Okular20TextDocumentSettingsC1ERK7QStringP7QObject
libOkular6Core.so.4:_ZN6Okular20TextDocumentSettingsC2ERK7QStringP7QObject
libOkular6Core.so.4:_ZN6Okular21TextDocumentConverter11addMetaDataENS_12DocumentInfo3KeyERK7QString
libOkular6Core.so.4:_ZN6Okular21TextDocumentConverter11qt_metacallEN11QMetaObject4CallEiPPv
libOkular6Core.so.4:_ZN6Okular21TextDocumentConverter11qt_metacastEPKc
libOkular6Core.so.4:_ZN6Okular21TextDocumentConverter11setDocumentEP13QTextDocument
libOkular6Core.so.4:_ZN6Okular21TextDocumentConverter13addAnnotationEPNS_10AnnotationEii
libOkular6Core.so.4:_ZN6Okular21TextDocumentConverter16staticMetaObjectE
libOkular6Core.so.4:_ZN6Okular21TextDocumentConverter17calculateViewportEP13QTextDocumentRK10QTextBlock
libOkular6Core.so.4:_ZN6Okular21TextDocumentConverter19convertWithPasswordERK7QStringS3_
libOkular6Core.so.4:_ZN6Okular21TextDocumentConverter5errorERK7QStringi
libOkular6Core.so.4:_ZN6Okular21TextDocumentConverter6noticeERK7QStringi
libOkular6Core.so.4:_ZN6Okular21TextDocumentConverter7convertERK7QString
libOkular6Core.so.4:_ZN6Okular21TextDocumentConverter7warningERK7QStringi
libOkular6Core.so.4:_ZN6Okular21TextDocumentConverter8addTitleEiRK7QStringRK10QTextBlock
libOkular6Core.so.4:_ZN6Okular21TextDocumentConverter8documentEv
libOkular6Core.so.4:_ZN6Okular21TextDocumentConverter9addActionEPNS_6ActionEii
libOkular6Core.so.4:_ZN6Okular21TextDocumentConverterC1Ev
libOkular6Core.so.4:_ZN6Okular21TextDocumentConverterC2Ev
libOkular6Core.so.4:_ZN6Okular21TextDocumentConverterD0Ev
libOkular6Core.so.4:_ZN6Okular21TextDocumentConverterD1Ev
libOkular6Core.so.4:_ZN6Okular21TextDocumentConverterD2Ev
libOkular6Core.so.4:_ZN6Okular21TextDocumentGenerator11qt_metacallEN11QMetaObject4CallEiPPv
libOkular6Core.so.4:_ZN6Okular21TextDocumentGenerator11qt_metacastEPKc
libOkular6Core.so.4:_ZN6Okular21TextDocumentGenerator13reparseConfigEv
libOkular6Core.so.4:_ZN6Okular21TextDocumentGenerator14generatePixmapEPNS_13PixmapRequestE
libOkular6Core.so.4:_ZN6Okular21TextDocumentGenerator15doCloseDocumentEv
libOkular6Core.so.4:_ZN6Okular21TextDocumentGenerator15generalSettingsEv
libOkular6Core.so.4:_ZN6Okular21TextDocumentGenerator15setTextDocumentEP13QTextDocument
libOkular6Core.so.4:_ZN6Okular21TextDocumentGenerator16staticMetaObjectE
libOkular6Core.so.4:_ZN6Okular21TextDocumentGenerator24generateDocumentSynopsisEv
libOkular6Core.so.4:_ZN6Okular21TextDocumentGenerator24loadDocumentWithPasswordERK7QStringR5QListIPNS_4PageEES3_
libOkular6Core.so.4:_ZN6Okular21TextDocumentGenerator5printER8QPrinter
libOkular6Core.so.4:_ZN6Okular21TextDocumentGenerator8addPagesEP13KConfigDialog
libOkular6Core.so.4:_ZN6Okular21TextDocumentGenerator8exportToERK7QStringRKNS_12ExportFormatE
libOkular6Core.so.4:_ZN6Okular21TextDocumentGenerator8textPageEPNS_11TextRequestE
libOkular6Core.so.4:_ZN6Okular21TextDocumentGenerator9converterEv
libOkular6Core.so.4:_ZN6Okular21TextDocumentGeneratorC1EPNS_21TextDocumentConverterERK7QStringP7QObjectRK5QListI8QVariantE
libOkular6Core.so.4:_ZN6Okular21TextDocumentGeneratorC2EPNS_21TextDocumentConverterERK7QStringP7QObjectRK5QListI8QVariantE
libOkular6Core.so.4:_ZN6Okular21TextDocumentGeneratorD0Ev
libOkular6Core.so.4:_ZN6Okular21TextDocumentGeneratorD1Ev
libOkular6Core.so.4:_ZN6Okular21TextDocumentGeneratorD2Ev
libOkular6Core.so.4:_ZN6Okular24FileAttachmentAnnotation15setEmbeddedFileEPNS_12EmbeddedFileE
libOkular6Core.so.4:_ZN6Okular24FileAttachmentAnnotation15setFileIconNameERK7QString
libOkular6Core.so.4:_ZN6Okular24FileAttachmentAnnotationC1ERK8QDomNode
libOkular6Core.so.4:_ZN6Okular24FileAttachmentAnnotationC1Ev
libOkular6Core.so.4:_ZN6Okular24FileAttachmentAnnotationC2ERK8QDomNode
libOkular6Core.so.4:_ZN6Okular24FileAttachmentAnnotationC2Ev
libOkular6Core.so.4:_ZN6Okular24FileAttachmentAnnotationD0Ev
libOkular6Core.so.4:_ZN6Okular24FileAttachmentAnnotationD1Ev
libOkular6Core.so.4:_ZN6Okular24FileAttachmentAnnotationD2Ev
libOkular6Core.so.4:_ZN6Okular25DefaultPrintOptionsWidget11qt_metacallEN11QMetaObject4CallEiPPv
libOkular6Core.so.4:_ZN6Okular25DefaultPrintOptionsWidget11qt_metacastEPKc
libOkular6Core.so.4:_ZN6Okular25DefaultPrintOptionsWidget16staticMetaObjectE
libOkular6Core.so.4:_ZN6Okular25DefaultPrintOptionsWidgetC1EP7QWidget
libOkular6Core.so.4:_ZN6Okular25DefaultPrintOptionsWidgetC2EP7QWidget
libOkular6Core.so.4:_ZN6Okular26TextDocumentSettingsWidget11qt_metacallEN11QMetaObject4CallEiPPv
libOkular6Core.so.4:_ZN6Okular26TextDocumentSettingsWidget11qt_metacastEPKc
libOkular6Core.so.4:_ZN6Okular26TextDocumentSettingsWidget16staticMetaObjectE
libOkular6Core.so.4:_ZN6Okular26TextDocumentSettingsWidget6addRowERK7QStringP7QWidget
libOkular6Core.so.4:_ZN6Okular26TextDocumentSettingsWidgetC1EP7QWidget
libOkular6Core.so.4:_ZN6Okular26TextDocumentSettingsWidgetC2EP7QWidget
libOkular6Core.so.4:_ZN6Okular26TextDocumentSettingsWidgetD0Ev
libOkular6Core.so.4:_ZN6Okular26TextDocumentSettingsWidgetD1Ev
libOkular6Core.so.4:_ZN6Okular26TextDocumentSettingsWidgetD2Ev
libOkular6Core.so.4:_ZN6Okular4Page11deleteRectsEv
libOkular6Core.so.4:_ZN6Okular4Page11setDurationEd
libOkular6Core.so.4:_ZN6Okular4Page11setPageSizeEPNS_16DocumentObserverEii
libOkular6Core.so.4:_ZN6Okular4Page11setTextPageEPNS_8TextPageE
libOkular6Core.so.4:_ZN6Okular4Page12deletePixmapEPNS_16DocumentObserverE
libOkular6Core.so.4:_ZN6Okular4Page13addAnnotationEPNS_10AnnotationE
libOkular6Core.so.4:_ZN6Okular4Page13deletePixmapsEv
libOkular6Core.so.4:_ZN6Okular4Page13setFormFieldsERK5QListIPNS_9FormFieldEE
libOkular6Core.so.4:_ZN6Okular4Page13setPageActionENS0_10PageActionEPNS_6ActionE
libOkular6Core.so.4:_ZN6Okular4Page13setTransitionEPNS_14PageTransitionE
libOkular6Core.so.4:_ZN6Okular4Page14setBoundingBoxERKNS_14NormalizedRectE
libOkular6Core.so.4:_ZN6Okular4Page14setObjectRectsERK5QListIPNS_10ObjectRectEE
libOkular6Core.so.4:_ZN6Okular4Page16removeAnnotationEPNS_10AnnotationE
libOkular6Core.so.4:_ZN6Okular4Page17deleteAnnotationsEv
libOkular6Core.so.4:_ZN6Okular4Page19setSourceReferencesERK5QListIPNS_19SourceRefObjectRectEE
libOkular6Core.so.4:_ZN6Okular4Page22deleteSourceReferencesEv
libOkular6Core.so.4:_ZN6Okular4Page8setLabelERK7QString
libOkular6Core.so.4:_ZN6Okular4Page9setPixmapEPNS_16DocumentObserverEP7QPixmapRKNS_14NormalizedRectE
libOkular6Core.so.4:_ZN6Okular4PageC1EjddNS_8RotationE
libOkular6Core.so.4:_ZN6Okular4PageC2EjddNS_8RotationE
libOkular6Core.so.4:_ZN6Okular4PageD1Ev
libOkular6Core.so.4:_ZN6Okular4PageD2Ev
libOkular6Core.so.4:_ZN6Okular4Tile7PrivateC1Ev
libOkular6Core.so.4:_ZN6Okular4Tile7PrivateC2Ev
libOkular6Core.so.4:_ZN6Okular4TileC1ERKNS_14NormalizedRectEP7QPixmapb
libOkular6Core.so.4:_ZN6Okular4TileC1ERKS0_
libOkular6Core.so.4:_ZN6Okular4TileC2ERKNS_14NormalizedRectEP7QPixmapb
libOkular6Core.so.4:_ZN6Okular4TileC2ERKS0_
libOkular6Core.so.4:_ZN6Okular4TileD1Ev
libOkular6Core.so.4:_ZN6Okular4TileD2Ev
libOkular6Core.so.4:_ZN6Okular4TileaSERKS0_
libOkular6Core.so.4:_ZN6Okular4View13setCapabilityENS0_14ViewCapabilityERK8QVariant
libOkular6Core.so.4:_ZN6Okular4ViewC1ERK7QString
libOkular6Core.so.4:_ZN6Okular4ViewC2ERK7QString
libOkular6Core.so.4:_ZN6Okular4ViewD0Ev
libOkular6Core.so.4:_ZN6Okular4ViewD1Ev
libOkular6Core.so.4:_ZN6Okular4ViewD2Ev
libOkular6Core.so.4:_ZN6Okular5Movie11setAutoPlayEb
libOkular6Core.so.4:_ZN6Okular5Movie11setPlayModeENS0_8PlayModeE
libOkular6Core.so.4:_ZN6Okular5Movie11setRotationENS_8RotationE
libOkular6Core.so.4:_ZN6Okular5Movie14setPosterImageERK6QImage
libOkular6Core.so.4:_ZN6Okular5Movie14setStartPausedEb
libOkular6Core.so.4:_ZN6Okular5Movie15setShowControlsEb
libOkular6Core.so.4:_ZN6Okular5Movie18setPlayRepetitionsEd
libOkular6Core.so.4:_ZN6Okular5Movie18setShowPosterImageEb
libOkular6Core.so.4:_ZN6Okular5Movie7setSizeE5QSize
libOkular6Core.so.4:_ZN6Okular5MovieC1ERK7QString
libOkular6Core.so.4:_ZN6Okular5MovieC1ERK7QStringRK10QByteArray
libOkular6Core.so.4:_ZN6Okular5MovieC2ERK7QString
libOkular6Core.so.4:_ZN6Okular5MovieC2ERK7QStringRK10QByteArray
libOkular6Core.so.4:_ZN6Okular5MovieD1Ev
libOkular6Core.so.4:_ZN6Okular5MovieD2Ev
libOkular6Core.so.4:_ZN6Okular5Sound11setChannelsEi
libOkular6Core.so.4:_ZN6Okular5Sound15setSamplingRateEd
libOkular6Core.so.4:_ZN6Okular5Sound16setBitsPerSampleEi
libOkular6Core.so.4:_ZN6Okular5Sound16setSoundEncodingENS0_13SoundEncodingE
libOkular6Core.so.4:_ZN6Okular5SoundC1ERK10QByteArray
libOkular6Core.so.4:_ZN6Okular5SoundC1ERK7QString
libOkular6Core.so.4:_ZN6Okular5SoundC2ERK10QByteArray
libOkular6Core.so.4:_ZN6Okular5SoundC2ERK7QString
libOkular6Core.so.4:_ZN6Okular5SoundD1Ev
libOkular6Core.so.4:_ZN6Okular5SoundD2Ev
libOkular6Core.so.4:_ZN6Okular5Utils10rotateRectE5QRectiii
libOkular6Core.so.4:_ZN6Okular5Utils16imageBoundingBoxEPK6QImage
libOkular6Core.so.4:_ZN6Okular5Utils7realDpiEPK7QWindow
libOkular6Core.so.4:_ZN6Okular6Action11setNativeIdERK8QVariant
libOkular6Core.so.4:_ZN6Okular6Action14setNextActionsERK5QListIPS0_E
libOkular6Core.so.4:_ZN6Okular6Action15setNativeHandleESt10shared_ptrIKvE
libOkular6Core.so.4:_ZN6Okular6ActionC2ERNS_13ActionPrivateE
libOkular6Core.so.4:_ZN6Okular6ActionD0Ev
libOkular6Core.so.4:_ZN6Okular6ActionD1Ev
libOkular6Core.so.4:_ZN6Okular6ActionD2Ev
libOkular6Core.so.4:_ZN6Okular8Document10searchTextEiRK7QStringbN2Qt15CaseSensitivityENS0_10SearchTypeEbRK6QColor
libOkular6Core.so.4:_ZN6Okular8Document11addObserverEPNS_16DocumentObserverE
libOkular6Core.so.4:_ZN6Okular8Document11qt_metacallEN11QMetaObject4CallEiPPv
libOkular6Core.so.4:_ZN6Okular8Document11qt_metacastEPKc
libOkular6Core.so.4:_ZN6Okular8Document11resetSearchEi
libOkular6Core.so.4:_ZN6Okular8Document11saveChangesERK7QString
libOkular6Core.so.4:_ZN6Okular8Document11saveChangesERK7QStringPS1_
libOkular6Core.so.4:_ZN6Okular8Document11setPageSizeERKNS_8PageSizeE
libOkular6Core.so.4:_ZN6Okular8Document11setRotationEi
libOkular6Core.so.4:_ZN6Okular8Document11setViewportERKNS_16DocumentViewportEPNS_16DocumentObserverEbb
libOkular6Core.so.4:_ZN6Okular8Document12aboutToCloseEv
libOkular6Core.so.4:_ZN6Okular8Document12cancelSearchEv
libOkular6Core.so.4:_ZN6Okular8Document12clearHistoryEv
libOkular6Core.so.4:_ZN6Okular8Document12editFormListEiPNS_15FormFieldChoiceERK5QListIiE
libOkular6Core.so.4:_ZN6Okular8Document12editFormTextEiPNS_13FormFieldTextERK7QStringiii
libOkular6Core.so.4:_ZN6Okular8Document12editFormTextEiPNS_13FormFieldTextERK7QStringiiiS5_
libOkular6Core.so.4:_ZN6Okular8Document12linkGoToPageEv
libOkular6Core.so.4:_ZN6Okular8Document12openDocumentERK7QStringRK4QUrlRK9QMimeTypeS3_
libOkular6Core.so.4:_ZN6Okular8Document12registerViewEPNS_4ViewE
libOkular6Core.so.4:_ZN6Okular8Document12requestPrintEv
libOkular6Core.so.4:_ZN6Okular8Document13closeDocumentEv
libOkular6Core.so.4:_ZN6Okular8Document13editFormComboEiPNS_15FormFieldChoiceERK7QStringiii
libOkular6Core.so.4:_ZN6Okular8Document13processActionEPKNS_6ActionE
libOkular6Core.so.4:_ZN6Okular8Document13reparseConfigEv
libOkular6Core.so.4:_ZN6Okular8Document13requestSaveAsEv
libOkular6Core.so.4:_ZN6Okular8Document14canRedoChangedEb
libOkular6Core.so.4:_ZN6Okular8Document14canUndoChangedEb
libOkular6Core.so.4:_ZN6Okular8Document14continueSearchEi
libOkular6Core.so.4:_ZN6Okular8Document14continueSearchEiNS0_10SearchTypeE
libOkular6Core.so.4:_ZN6Okular8Document14refreshPixmapsEi
libOkular6Core.so.4:_ZN6Okular8Document14removeObserverEPNS_16DocumentObserverE
libOkular6Core.so.4:_ZN6Okular8Document14requestPixmapsERK5QListIPNS_13PixmapRequestEE
libOkular6Core.so.4:_ZN6Okular8Document14requestPixmapsERK5QListIPNS_13PixmapRequestEE6QFlagsINS0_17PixmapRequestFlagEE
libOkular6Core.so.4:_ZN6Okular8Document14searchFinishedEiNS0_12SearchStatusE
libOkular6Core.so.4:_ZN6Okular8Document14unregisterViewEPNS_4ViewE
libOkular6Core.so.4:_ZN6Okular8Document15editFormButtonsEiRK5QListIPNS_15FormFieldButtonEERKS1_IbE
libOkular6Core.so.4:_ZN6Okular8Document15requestTextPageEj
libOkular6Core.so.4:_ZN6Okular8Document15setHistoryCleanEb
libOkular6Core.so.4:_ZN6Okular8Document15setNextViewportEv
libOkular6Core.so.4:_ZN6Okular8Document15setPrevViewportEv
libOkular6Core.so.4:_ZN6Okular8Document15setViewportPageEiPNS_16DocumentObserverEb
libOkular6Core.so.4:_ZN6Okular8Document15stopFontReadingEv
libOkular6Core.so.4:_ZN6Okular8Document15swapBackingFileERK7QStringRK4QUrl
libOkular6Core.so.4:_ZN6Okular8Document16fillConfigDialogEP13KConfigDialog
libOkular6Core.so.4:_ZN6Okular8Document16fontReadingEndedEv
libOkular6Core.so.4:_ZN6Okular8Document16linkPresentationEv
libOkular6Core.so.4:_ZN6Okular8Document16printErrorStringENS0_10PrintErrorE
libOkular6Core.so.4:_ZN6Okular8Document16recalculateFormsEv
libOkular6Core.so.4:_ZN6Okular8Document16startFontReadingEv
libOkular6Core.so.4:_ZN6Okular8Document16staticMetaObjectE
libOkular6Core.so.4:_ZN6Okular8Document17addPageAnnotationEiPNS_10AnnotationE
libOkular6Core.so.4:_ZN6Okular8Document17refreshFormWidgetEPNS_9FormFieldE
libOkular6Core.so.4:_ZN6Okular8Document18processFocusActionEPKNS_6ActionEPNS_9FormFieldE
libOkular6Core.so.4:_ZN6Okular8Document18processKVCFActionsEPNS_9FormFieldE
libOkular6Core.so.4:_ZN6Okular8Document18processMovieActionEPKNS_11MovieActionE
libOkular6Core.so.4:_ZN6Okular8Document19extractArchivedFileERK7QString
libOkular6Core.so.4:_ZN6Okular8Document19fontReadingProgressEi
libOkular6Core.so.4:_ZN6Okular8Document19linkEndPresentationEv
libOkular6Core.so.4:_ZN6Okular8Document19openDocumentArchiveERK7QStringRK4QUrlS3_
libOkular6Core.so.4:_ZN6Okular8Document19processFormatActionEPKNS_6ActionEPNS_13FormFieldTextE
libOkular6Core.so.4:_ZN6Okular8Document19processFormatActionEPKNS_6ActionEPNS_9FormFieldE
libOkular6Core.so.4:_ZN6Okular8Document19saveDocumentArchiveERK7QString
libOkular6Core.so.4:_ZN6Okular8Document19setVisiblePageRectsERK5QListIPNS_15VisiblePageRectEEPNS_16DocumentObserverE
libOkular6Core.so.4:_ZN6Okular8Document20adjustPageAnnotationEiPNS_10AnnotationERKNS_15NormalizedPointES5_
libOkular6Core.so.4:_ZN6Okular8Document20docdataMigrationDoneEv
libOkular6Core.so.4:_ZN6Okular8Document20removePageAnnotationEiPNS_10AnnotationE
libOkular6Core.so.4:_ZN6Okular8Document20setPageTextSelectionEiOSt10unique_ptrINS_15RegularAreaRectESt14default_deleteIS2_EERK6QColor
libOkular6Core.so.4:_ZN6Okular8Document21processDocumentActionEPKNS_6ActionENS0_28DocumentAdditionalActionTypeE
libOkular6Core.so.4:_ZN6Okular8Document21processValidateActionEPKNS_6ActionEPNS_13FormFieldTextERb
libOkular6Core.so.4:_ZN6Okular8Document21processValidateActionEPKNS_6ActionEPNS_9FormFieldERb
libOkular6Core.so.4:_ZN6Okular8Document21removePageAnnotationsEiRK5QListIPNS_10AnnotationEE
libOkular6Core.so.4:_ZN6Okular8Document22dynamicSourceReferenceEidd
libOkular6Core.so.4:_ZN6Okular8Document22processKeystrokeActionEPKNS_6ActionEPNS_13FormFieldTextERK8QVariant
libOkular6Core.so.4:_ZN6Okular8Document22processKeystrokeActionEPKNS_6ActionEPNS_9FormFieldERK8QVariantii
libOkular6Core.so.4:_ZN6Okular8Document22processRenditionActionEPKNS_15RenditionActionE
libOkular6Core.so.4:_ZN6Okular8Document22processSourceReferenceEPKNS_15SourceReferenceE
libOkular6Core.so.4:_ZN6Okular8Document22processSourceReferenceERKNS_15SourceReferenceE
libOkular6Core.so.4:_ZN6Okular8Document22swapBackingFileArchiveERK7QStringRK4QUrl
libOkular6Core.so.4:_ZN6Okular8Document23setNextDocumentViewportERKNS_16DocumentViewportE
libOkular6Core.so.4:_ZN6Okular8Document23translatePageAnnotationEiPNS_10AnnotationERKNS_15NormalizedPointE
libOkular6Core.so.4:_ZN6Okular8Document23undoHistoryCleanChangedEb
libOkular6Core.so.4:_ZN6Okular8Document24setEditorCommandOverrideERK7QString
libOkular6Core.so.4:_ZN6Okular8Document24sourceReferenceActivatedERK7QStringiiPb
libOkular6Core.so.4:_ZN6Okular8Document25formListChangedByUndoRedoEiPNS_15FormFieldChoiceERK5QListIiE
libOkular6Core.so.4:_ZN6Okular8Document25formTextChangedByUndoRedoEiPNS_13FormFieldTextERK7QStringii
libOkular6Core.so.4:_ZN6Okular8Document25requestSignedRevisionDataERKNS_13SignatureInfoE
libOkular6Core.so.4:_ZN6Okular8Document26editPageAnnotationContentsEiPNS_10AnnotationERK7QStringiii
libOkular6Core.so.4:_ZN6Okular8Document26formComboChangedByUndoRedoEiPNS_15FormFieldChoiceERK7QStringii
libOkular6Core.so.4:_ZN6Okular8Document26setNextDocumentDestinationERK7QString
libOkular6Core.so.4:_ZN6Okular8Document27setAnnotationEditingEnabledEb
libOkular6Core.so.4:_ZN6Okular8Document28formButtonsChangedByUndoRedoEiRK5QListIPNS_15FormFieldButtonEE
libOkular6Core.so.4:_ZN6Okular8Document28processFormMouseScriptActionEPKNS_6ActionEPNS_9FormFieldENS0_14MouseEventTypeE
libOkular6Core.so.4:_ZN6Okular8Document28processKeystrokeCommitActionEPKNS_6ActionEPNS_13FormFieldTextE
libOkular6Core.so.4:_ZN6Okular8Document28processKeystrokeCommitActionEPKNS_6ActionEPNS_9FormFieldERb
libOkular6Core.so.4:_ZN6Okular8Document29processFormMouseUpScripActionEPKNS_6ActionEPNS_9FormFieldE
libOkular6Core.so.4:_ZN6Okular8Document30modifyPageAnnotationPropertiesEiPNS_10AnnotationE
libOkular6Core.so.4:_ZN6Okular8Document35annotationContentsChangedByUndoRedoEPNS_10AnnotationERK7QStringii
libOkular6Core.so.4:_ZN6Okular8Document35prepareToModifyAnnotationPropertiesEPNS_10AnnotationE
libOkular6Core.so.4:_ZN6Okular8Document4quitEv
libOkular6Core.so.4:_ZN6Okular8Document4redoEv
libOkular6Core.so.4:_ZN6Okular8Document4signERKNS_16NewSignatureDataERK7QString
libOkular6Core.so.4:_ZN6Okular8Document4undoEv
libOkular6Core.so.4:_ZN6Okular8Document5closeEv
libOkular6Core.so.4:_ZN6Okular8Document5errorERK7QStringi
libOkular6Core.so.4:_ZN6Okular8Document5printER8QPrinter
libOkular6Core.so.4:_ZN6Okular8Document6noticeERK7QStringi
libOkular6Core.so.4:_ZN6Okular8Document7gotFontERKNS_8FontInfoE
libOkular6Core.so.4:_ZN6Okular8Document7openUrlERK4QUrl
libOkular6Core.so.4:_ZN6Okular8Document7setZoomEiPNS_16DocumentObserverE
libOkular6Core.so.4:_ZN6Okular8Document7warningERK7QStringi
libOkular6Core.so.4:_ZN6Okular8Document8linkFindEv
libOkular6Core.so.4:_ZN6Okular8Document9guiClientEv
libOkular6Core.so.4:_ZN6Okular8DocumentC1EP7QWidget
libOkular6Core.so.4:_ZN6Okular8DocumentC2EP7QWidget
libOkular6Core.so.4:_ZN6Okular8DocumentD0Ev
libOkular6Core.so.4:_ZN6Okular8DocumentD1Ev
libOkular6Core.so.4:_ZN6Okular8DocumentD2Ev
libOkular6Core.so.4:_ZN6Okular8FontInfo11setNativeIdERK8QVariant
libOkular6Core.so.4:_ZN6Okular8FontInfo12setEmbedTypeENS0_9EmbedTypeE
libOkular6Core.so.4:_ZN6Okular8FontInfo17setCanBeExtractedEb
libOkular6Core.so.4:_ZN6Okular8FontInfo17setSubstituteNameERK7QString
libOkular6Core.so.4:_ZN6Okular8FontInfo7setFileERK7QString
libOkular6Core.so.4:_ZN6Okular8FontInfo7setNameERK7QString
libOkular6Core.so.4:_ZN6Okular8FontInfo7setTypeENS0_8FontTypeE
libOkular6Core.so.4:_ZN6Okular8FontInfoC1ERKS0_
libOkular6Core.so.4:_ZN6Okular8FontInfoC1Ev
libOkular6Core.so.4:_ZN6Okular8FontInfoC2ERKS0_
libOkular6Core.so.4:_ZN6Okular8FontInfoC2Ev
libOkular6Core.so.4:_ZN6Okular8FontInfoD1Ev
libOkular6Core.so.4:_ZN6Okular8FontInfoD2Ev
libOkular6Core.so.4:_ZN6Okular8FontInfoaSERKS0_
libOkular6Core.so.4:_ZN6Okular8PageSizeC1ERKS0_
libOkular6Core.so.4:_ZN6Okular8PageSizeC1EddRK7QString
libOkular6Core.so.4:_ZN6Okular8PageSizeC1Ev
libOkular6Core.so.4:_ZN6Okular8PageSizeC2ERKS0_
libOkular6Core.so.4:_ZN6Okular8PageSizeC2EddRK7QString
libOkular6Core.so.4:_ZN6Okular8PageSizeC2Ev
libOkular6Core.so.4:_ZN6Okular8PageSizeD1Ev
libOkular6Core.so.4:_ZN6Okular8PageSizeD2Ev
libOkular6Core.so.4:_ZN6Okular8PageSizeaSERKS0_
libOkular6Core.so.4:_ZN6Okular8TextPage6appendERK7QStringRKNS_14NormalizedRectE
libOkular6Core.so.4:_ZN6Okular8TextPage8findTextEiRK7QStringNS_15SearchDirectionEN2Qt15CaseSensitivityEPKNS_15RegularAreaRectE
libOkular6Core.so.4:_ZN6Okular8TextPageC1ERK5QListINS_10TextEntityEE
libOkular6Core.so.4:_ZN6Okular8TextPageC1Ev
libOkular6Core.so.4:_ZN6Okular8TextPageC2ERK5QListINS_10TextEntityEE
libOkular6Core.so.4:_ZN6Okular8TextPageC2Ev
libOkular6Core.so.4:_ZN6Okular8TextPageD1Ev
libOkular6Core.so.4:_ZN6Okular8TextPageD2Ev
libOkular6Core.so.4:_ZN6Okular9FormField10setVisibleEb
libOkular6Core.so.4:_ZN6Okular9FormField11commitValueERK7QString
libOkular6Core.so.4:_ZN6Okular9FormField11setReadOnlyEb
libOkular6Core.so.4:_ZN6Okular9FormField12setPrintableEb
libOkular6Core.so.4:_ZN6Okular9FormField18setAppearanceValueERK8QVariant
libOkular6Core.so.4:_ZN6Okular9FormField19setActivationActionEPNS_6ActionE
libOkular6Core.so.4:_ZN6Okular9FormField19setAdditionalActionENS0_20AdditionalActionTypeEPNS_6ActionE
libOkular6Core.so.4:_ZN6Okular9FormField19setAdditionalActionENS_10Annotation20AdditionalActionTypeEPNS_6ActionE
libOkular6Core.so.4:_ZN6Okular9FormField20commitFormattedValueERK7QString
libOkular6Core.so.4:_ZN6Okular9FormField8setValueERK8QVariant
libOkular6Core.so.4:_ZN6Okular9FormFieldC2ERNS_16FormFieldPrivateE
libOkular6Core.so.4:_ZN6Okular9FormFieldD0Ev
libOkular6Core.so.4:_ZN6Okular9FormFieldD1Ev
libOkular6Core.so.4:_ZN6Okular9FormFieldD2Ev
libOkular6Core.so.4:_ZN6Okular9Generator10setFeatureENS0_16GeneratorFeatureEb
libOkular6Core.so.4:_ZN6Okular9Generator11qt_metacallEN11QMetaObject4CallEiPPv
libOkular6Core.so.4:_ZN6Okular9Generator11qt_metacastEPKc
libOkular6Core.so.4:_ZN6Okular9Generator12fontsForPageEi
libOkular6Core.so.4:_ZN6Okular9Generator12loadDocumentERK7QStringR5QListIPNS_4PageEE
libOkular6Core.so.4:_ZN6Okular9Generator12opaqueActionEPKNS_19BackendOpaqueActionE
libOkular6Core.so.4:_ZN6Okular9Generator13closeDocumentEv
libOkular6Core.so.4:_ZN6Okular9Generator14generatePixmapEPNS_13PixmapRequestE
libOkular6Core.so.4:_ZN6Okular9Generator15pageSizeChangedERKNS_8PageSizeES3_
libOkular6Core.so.4:_ZN6Okular9Generator15requestFontDataERKNS_8FontInfoE
libOkular6Core.so.4:_ZN6Okular9Generator15rotationChangedENS_8RotationES1_
libOkular6Core.so.4:_ZN6Okular9Generator15swapBackingFileERK7QStringR5QListIPNS_4PageEE
libOkular6Core.so.4:_ZN6Okular9Generator16generateTextPageEPNS_4PageE
libOkular6Core.so.4:_ZN6Okular9Generator16staticMetaObjectE
libOkular6Core.so.4:_ZN6Okular9Generator20loadDocumentFromDataERK10QByteArrayR5QListIPNS_4PageEE
libOkular6Core.so.4:_ZN6Okular9Generator21updatePageBoundingBoxEiRKNS_14NormalizedRectE
libOkular6Core.so.4:_ZN6Okular9Generator23signalPixmapRequestDoneEPNS_13PixmapRequestE
libOkular6Core.so.4:_ZN6Okular9Generator24additionalDocumentActionENS_8Document28DocumentAdditionalActionTypeE
libOkular6Core.so.4:_ZN6Okular9Generator24freeOpaqueActionContentsERKNS_19BackendOpaqueActionE
libOkular6Core.so.4:_ZN6Okular9Generator24generateDocumentSynopsisEv
libOkular6Core.so.4:_ZN6Okular9Generator24loadDocumentWithPasswordERK7QStringR5QListIPNS_4PageEES3_
libOkular6Core.so.4:_ZN6Okular9Generator24signalTextGenerationDoneEPNS_4PageEPNS_8TextPageE
libOkular6Core.so.4:_ZN6Okular9Generator26signalPartialPixmapRequestEPNS_13PixmapRequestERK6QImage
libOkular6Core.so.4:_ZN6Okular9Generator27setActiveCertificateBackendENS_15CertificateInfo7BackendE
libOkular6Core.so.4:_ZN6Okular9Generator32loadDocumentFromDataWithPasswordERK10QByteArrayR5QListIPNS_4PageEERK7QString
libOkular6Core.so.4:_ZN6Okular9Generator4signERKNS_16NewSignatureDataERK7QString
libOkular6Core.so.4:_ZN6Okular9Generator5errorERK7QStringi
libOkular6Core.so.4:_ZN6Okular9Generator5imageEPNS_13PixmapRequestE
libOkular6Core.so.4:_ZN6Okular9Generator5printER8QPrinter
libOkular6Core.so.4:_ZN6Okular9Generator6noticeERK7QStringi
libOkular6Core.so.4:_ZN6Okular9Generator6setDPIE6QSizeF
libOkular6Core.so.4:_ZN6Okular9Generator7warningERK7QStringi
libOkular6Core.so.4:_ZN6Okular9Generator8exportToERK7QStringRKNS_12ExportFormatE
libOkular6Core.so.4:_ZN6Okular9Generator8textPageEPNS_11TextRequestE
libOkular6Core.so.4:_ZN6Okular9GeneratorC2EP7QObjectRK5QListI8QVariantE
libOkular6Core.so.4:_ZN6Okular9GeneratorC2ERNS_16GeneratorPrivateEP7QObjectRK5QListI8QVariantE
libOkular6Core.so.4:_ZN6Okular9GeneratorD0Ev
libOkular6Core.so.4:_ZN6Okular9GeneratorD1Ev
libOkular6Core.so.4:_ZN6Okular9GeneratorD2Ev
libOkular6Core.so.4:_ZNK6Okular10Annotation10canBeMovedEv
libOkular6Core.so.4:_ZNK6Okular10Annotation10nativeDataEv
libOkular6Core.so.4:_ZNK6Okular10Annotation10uniqueNameEv
libOkular6Core.so.4:_ZNK6Okular10Annotation12canBeResizedEv
libOkular6Core.so.4:_ZNK6Okular10Annotation12creationDateEv
libOkular6Core.so.4:_ZNK6Okular10Annotation16modificationDateEv
libOkular6Core.so.4:_ZNK6Okular10Annotation17boundingRectangleEv
libOkular6Core.so.4:_ZNK6Okular10Annotation23openDialogAfterCreationEv
libOkular6Core.so.4:_ZNK6Okular10Annotation28transformedBoundingRectangleEv
libOkular6Core.so.4:_ZNK6Okular10Annotation30getAnnotationPropertiesDomNodeEv
libOkular6Core.so.4:_ZNK6Okular10Annotation5Style10lineEffectEv
libOkular6Core.so.4:_ZNK6Okular10Annotation5Style15effectIntensityEv
libOkular6Core.so.4:_ZNK6Okular10Annotation5Style5colorEv
libOkular6Core.so.4:_ZNK6Okular10Annotation5Style5marksEv
libOkular6Core.so.4:_ZNK6Okular10Annotation5Style5widthEv
libOkular6Core.so.4:_ZNK6Okular10Annotation5Style6spacesEv
libOkular6Core.so.4:_ZNK6Okular10Annotation5Style7opacityEv
libOkular6Core.so.4:_ZNK6Okular10Annotation5Style8xCornersEv
libOkular6Core.so.4:_ZNK6Okular10Annotation5Style8yCornersEv
libOkular6Core.so.4:_ZNK6Okular10Annotation5Style9lineStyleEv
libOkular6Core.so.4:_ZNK6Okular10Annotation5flagsEv
libOkular6Core.so.4:_ZNK6Okular10Annotation5storeER8QDomNodeR12QDomDocument
libOkular6Core.so.4:_ZNK6Okular10Annotation5styleEv
libOkular6Core.so.4:_ZNK6Okular10Annotation6Window5flagsEv
libOkular6Core.so.4:_ZNK6Okular10Annotation6Window5titleEv
libOkular6Core.so.4:_ZNK6Okular10Annotation6Window5widthEv
libOkular6Core.so.4:_ZNK6Okular10Annotation6Window6heightEv
libOkular6Core.so.4:_ZNK6Okular10Annotation6Window7summaryEv
libOkular6Core.so.4:_ZNK6Okular10Annotation6Window7topLeftEv
libOkular6Core.so.4:_ZNK6Okular10Annotation6authorEv
libOkular6Core.so.4:_ZNK6Okular10Annotation6windowEv
libOkular6Core.so.4:_ZNK6Okular10Annotation8Revision10annotationEv
libOkular6Core.so.4:_ZNK6Okular10Annotation8Revision4typeEv
libOkular6Core.so.4:_ZNK6Okular10Annotation8Revision5scopeEv
libOkular6Core.so.4:_ZNK6Okular10Annotation8contentsEv
libOkular6Core.so.4:_ZNK6Okular10Annotation8nativeIdEv
libOkular6Core.so.4:_ZNK6Okular10Annotation9revisionsEv
libOkular6Core.so.4:_ZNK6Okular10GotoAction10actionTypeEv
libOkular6Core.so.4:_ZNK6Okular10GotoAction10isExternalEv
libOkular6Core.so.4:_ZNK6Okular10GotoAction12destViewportEv
libOkular6Core.so.4:_ZNK6Okular10GotoAction15destinationNameEv
libOkular6Core.so.4:_ZNK6Okular10GotoAction8fileNameEv
libOkular6Core.so.4:_ZNK6Okular10GotoAction9actionTipEv
libOkular6Core.so.4:_ZNK6Okular10ObjectRect10objectTypeEv
libOkular6Core.so.4:_ZNK6Okular10ObjectRect11distanceSqrEdddd
libOkular6Core.so.4:_ZNK6Okular10ObjectRect12boundingRectEdd
libOkular6Core.so.4:_ZNK6Okular10ObjectRect6objectEv
libOkular6Core.so.4:_ZNK6Okular10ObjectRect6regionEv
libOkular6Core.so.4:_ZNK6Okular10ObjectRect8containsEdddd
libOkular6Core.so.4:_ZNK6Okular10TextEntity15transformedAreaERK10QTransform
libOkular6Core.so.4:_ZNK6Okular10TextEntity4areaEv
libOkular6Core.so.4:_ZNK6Okular10TextEntity4textEv
libOkular6Core.so.4:_ZNK6Okular11AudioPlayer10metaObjectEv
libOkular6Core.so.4:_ZNK6Okular11AudioPlayer5stateEv
libOkular6Core.so.4:_ZNK6Okular11MovieAction10actionTypeEv
libOkular6Core.so.4:_ZNK6Okular11MovieAction10annotationEv
libOkular6Core.so.4:_ZNK6Okular11MovieAction9actionTipEv
libOkular6Core.so.4:_ZNK6Okular11MovieAction9operationEv
libOkular6Core.so.4:_ZNK6Okular11SoundAction10actionTypeEv
libOkular6Core.so.4:_ZNK6Okular11SoundAction11synchronousEv
libOkular6Core.so.4:_ZNK6Okular11SoundAction3mixEv
libOkular6Core.so.4:_ZNK6Okular11SoundAction5soundEv
libOkular6Core.so.4:_ZNK6Okular11SoundAction6repeatEv
libOkular6Core.so.4:_ZNK6Okular11SoundAction6volumeEv
libOkular6Core.so.4:_ZNK6Okular11SoundAction9actionTipEv
libOkular6Core.so.4:_ZNK6Okular11TextRequest21shouldAbortExtractionEv
libOkular6Core.so.4:_ZNK6Okular11TextRequest4pageEv
libOkular6Core.so.4:_ZNK6Okular12BrowseAction10actionTypeEv
libOkular6Core.so.4:_ZNK6Okular12BrowseAction3urlEv
libOkular6Core.so.4:_ZNK6Okular12BrowseAction9actionTipEv
libOkular6Core.so.4:_ZNK6Okular12DocumentInfo11getKeyTitleERK7QString
libOkular6Core.so.4:_ZNK6Okular12DocumentInfo3getENS0_3KeyE
libOkular6Core.so.4:_ZNK6Okular12DocumentInfo3getERK7QString
libOkular6Core.so.4:_ZNK6Okular12DocumentInfo4keysEv
libOkular6Core.so.4:_ZNK6Okular12ExportFormat11descriptionEv
libOkular6Core.so.4:_ZNK6Okular12ExportFormat4iconEv
libOkular6Core.so.4:_ZNK6Okular12ExportFormat6isNullEv
libOkular6Core.so.4:_ZNK6Okular12ExportFormat8mimeTypeEv
libOkular6Core.so.4:_ZNK6Okular12ExportFormateqERKS0_
libOkular6Core.so.4:_ZNK6Okular12ExportFormatneERKS0_
libOkular6Core.so.4:_ZNK6Okular12ScriptAction10actionTypeEv
libOkular6Core.so.4:_ZNK6Okular12ScriptAction10scriptTypeEv
libOkular6Core.so.4:_ZNK6Okular12ScriptAction6scriptEv
libOkular6Core.so.4:_ZNK6Okular12ScriptAction9actionTipEv
libOkular6Core.so.4:_ZNK6Okular12SettingsCore10metaObjectEv
libOkular6Core.so.4:_ZNK6Okular13ExecuteAction10actionTypeEv
libOkular6Core.so.4:_ZNK6Okular13ExecuteAction10parametersEv
libOkular6Core.so.4:_ZNK6Okular13ExecuteAction8fileNameEv
libOkular6Core.so.4:_ZNK6Okular13ExecuteAction9actionTipEv
libOkular6Core.so.4:_ZNK6Okular13FormFieldText10isPasswordEv
libOkular6Core.so.4:_ZNK6Okular13FormFieldText10isRichTextEv
libOkular6Core.so.4:_ZNK6Okular13FormFieldText13maximumLengthEv
libOkular6Core.so.4:_ZNK6Okular13FormFieldText13textAlignmentEv
libOkular6Core.so.4:_ZNK6Okular13FormFieldText17canBeSpellCheckedEv
libOkular6Core.so.4:_ZNK6Okular13FormFieldText5valueEv
libOkular6Core.so.4:_ZNK6Okular13InkAnnotation19transformedInkPathsEv
libOkular6Core.so.4:_ZNK6Okular13InkAnnotation5storeER8QDomNodeR12QDomDocument
libOkular6Core.so.4:_ZNK6Okular13InkAnnotation7subTypeEv
libOkular6Core.so.4:_ZNK6Okular13InkAnnotation8inkPathsEv
libOkular6Core.so.4:_ZNK6Okular13PixmapRequest10pageNumberEv
libOkular6Core.so.4:_ZNK6Okular13PixmapRequest12asynchronousEv
libOkular6Core.so.4:_ZNK6Okular13PixmapRequest14normalizedRectEv
libOkular6Core.so.4:_ZNK6Okular13PixmapRequest17shouldAbortRenderEv
libOkular6Core.so.4:_ZNK6Okular13PixmapRequest20partialUpdatesWantedEv
libOkular6Core.so.4:_ZNK6Okular13PixmapRequest4pageEv
libOkular6Core.so.4:_ZNK6Okular13PixmapRequest5widthEv
libOkular6Core.so.4:_ZNK6Okular13PixmapRequest6heightEv
libOkular6Core.so.4:_ZNK6Okular13PixmapRequest6isTileEv
libOkular6Core.so.4:_ZNK6Okular13PixmapRequest7preloadEv
libOkular6Core.so.4:_ZNK6Okular13PixmapRequest8observerEv
libOkular6Core.so.4:_ZNK6Okular13PixmapRequest8priorityEv
libOkular6Core.so.4:_ZNK6Okular13SignatureInfo10signerNameEv
libOkular6Core.so.4:_ZNK6Okular13SignatureInfo11signingTimeEv
libOkular6Core.so.4:_ZNK6Okular13SignatureInfo13hashAlgorithmEv
libOkular6Core.so.4:_ZNK6Okular13SignatureInfo15certificateInfoEv
libOkular6Core.so.4:_ZNK6Okular13SignatureInfo15signatureStatusEv
libOkular6Core.so.4:_ZNK6Okular13SignatureInfo15signerSubjectDNEv
libOkular6Core.so.4:_ZNK6Okular13SignatureInfo17certificateStatusEv
libOkular6Core.so.4:_ZNK6Okular13SignatureInfo17signedRangeBoundsEv
libOkular6Core.so.4:_ZNK6Okular13SignatureInfo18signsTotalDocumentEv
libOkular6Core.so.4:_ZNK6Okular13SignatureInfo6reasonEv
libOkular6Core.so.4:_ZNK6Okular13SignatureInfo8locationEv
libOkular6Core.so.4:_ZNK6Okular13SignatureInfo9signatureEv
libOkular6Core.so.4:_ZNK6Okular13TextSelection3endEv
libOkular6Core.so.4:_ZNK6Okular13TextSelection5startEv
libOkular6Core.so.4:_ZNK6Okular14DocumentAction10actionTypeEv
libOkular6Core.so.4:_ZNK6Okular14DocumentAction18documentActionTypeEv
libOkular6Core.so.4:_ZNK6Okular14DocumentAction9actionTipEv
libOkular6Core.so.4:_ZNK6Okular14GeomAnnotation15geometricalTypeEv
libOkular6Core.so.4:_ZNK6Okular14GeomAnnotation21geometricalInnerColorEv
libOkular6Core.so.4:_ZNK6Okular14GeomAnnotation5storeER8QDomNodeR12QDomDocument
libOkular6Core.so.4:_ZNK6Okular14GeomAnnotation7subTypeEv
libOkular6Core.so.4:_ZNK6Okular14LineAnnotation10lineClosedEv
libOkular6Core.so.4:_ZNK6Okular14LineAnnotation10lineIntentEv
libOkular6Core.so.4:_ZNK6Okular14LineAnnotation10linePointsEv
libOkular6Core.so.4:_ZNK6Okular14LineAnnotation11showCaptionEv
libOkular6Core.so.4:_ZNK6Okular14LineAnnotation12lineEndStyleEv
libOkular6Core.so.4:_ZNK6Okular14LineAnnotation14lineInnerColorEv
libOkular6Core.so.4:_ZNK6Okular14LineAnnotation14lineStartStyleEv
libOkular6Core.so.4:_ZNK6Okular14LineAnnotation21transformedLinePointsEv
libOkular6Core.so.4:_ZNK6Okular14LineAnnotation23lineLeadingForwardPointEv
libOkular6Core.so.4:_ZNK6Okular14LineAnnotation24lineLeadingBackwardPointEv
libOkular6Core.so.4:_ZNK6Okular14LineAnnotation5storeER8QDomNodeR12QDomDocument
libOkular6Core.so.4:_ZNK6Okular14LineAnnotation7subTypeEv
libOkular6Core.so.4:_ZNK6Okular14NormalizedRect10intersectsEPKS0_
libOkular6Core.so.4:_ZNK6Okular14NormalizedRect10intersectsERKS0_
libOkular6Core.so.4:_ZNK6Okular14NormalizedRect10intersectsEdddd
libOkular6Core.so.4:_ZNK6Okular14NormalizedRect15roundedGeometryEii
libOkular6Core.so.4:_ZNK6Okular14NormalizedRect6centerEv
libOkular6Core.so.4:_ZNK6Okular14NormalizedRect6isNullEv
libOkular6Core.so.4:_ZNK6Okular14NormalizedRect8containsEdd
libOkular6Core.so.4:_ZNK6Okular14NormalizedRect8geometryEii
libOkular6Core.so.4:_ZNK6Okular14NormalizedRect9geometryFEff
libOkular6Core.so.4:_ZNK6Okular14NormalizedRectanERKS0_
libOkular6Core.so.4:_ZNK6Okular14NormalizedRecteqERKS0_
libOkular6Core.so.4:_ZNK6Okular14NormalizedRectorERKS0_
libOkular6Core.so.4:_ZNK6Okular14PageTransition13isRectangularEv
libOkular6Core.so.4:_ZNK6Okular14PageTransition4typeEv
libOkular6Core.so.4:_ZNK6Okular14PageTransition5angleEv
libOkular6Core.so.4:_ZNK6Okular14PageTransition5scaleEv
libOkular6Core.so.4:_ZNK6Okular14PageTransition8durationEv
libOkular6Core.so.4:_ZNK6Okular14PageTransition9alignmentEv
libOkular6Core.so.4:_ZNK6Okular14PageTransition9directionEv
libOkular6Core.so.4:_ZNK6Okular14TextAnnotation13inplaceIntentEv
libOkular6Core.so.4:_ZNK6Okular14TextAnnotation14inplaceCalloutEi
libOkular6Core.so.4:_ZNK6Okular14TextAnnotation16inplaceAlignmentEv
libOkular6Core.so.4:_ZNK6Okular14TextAnnotation25transformedInplaceCalloutEi
libOkular6Core.so.4:_ZNK6Okular14TextAnnotation5storeER8QDomNodeR12QDomDocument
libOkular6Core.so.4:_ZNK6Okular14TextAnnotation7subTypeEv
libOkular6Core.so.4:_ZNK6Okular14TextAnnotation8textFontEv
libOkular6Core.so.4:_ZNK6Okular14TextAnnotation8textIconEv
libOkular6Core.so.4:_ZNK6Okular14TextAnnotation8textTypeEv
libOkular6Core.so.4:_ZNK6Okular14TextAnnotation9textColorEv
libOkular6Core.so.4:_ZNK6Okular15BookmarkManager10metaObjectEv
libOkular6Core.so.4:_ZNK6Okular15BookmarkManager11titleForUrlERK4QUrl
libOkular6Core.so.4:_ZNK6Okular15BookmarkManager12isBookmarkedERKNS_16DocumentViewportE
libOkular6Core.so.4:_ZNK6Okular15BookmarkManager12isBookmarkedEi
libOkular6Core.so.4:_ZNK6Okular15BookmarkManager12nextBookmarkERKNS_16DocumentViewportE
libOkular6Core.so.4:_ZNK6Okular15BookmarkManager13actionsForUrlERK4QUrl
libOkular6Core.so.4:_ZNK6Okular15BookmarkManager16previousBookmarkERKNS_16DocumentViewportE
libOkular6Core.so.4:_ZNK6Okular15BookmarkManager4saveEv
libOkular6Core.so.4:_ZNK6Okular15BookmarkManager5filesEv
libOkular6Core.so.4:_ZNK6Okular15BookmarkManager7Private10currentUrlEv
libOkular6Core.so.4:_ZNK6Okular15BookmarkManager7Private12currentTitleEv
libOkular6Core.so.4:_ZNK6Okular15BookmarkManager7Private12enableOptionEN14KBookmarkOwner14BookmarkOptionE
libOkular6Core.so.4:_ZNK6Okular15BookmarkManager8bookmarkERKNS_16DocumentViewportE
libOkular6Core.so.4:_ZNK6Okular15BookmarkManager8bookmarkEi
libOkular6Core.so.4:_ZNK6Okular15BookmarkManager9bookmarksERK4QUrl
libOkular6Core.so.4:_ZNK6Okular15BookmarkManager9bookmarksEi
libOkular6Core.so.4:_ZNK6Okular15BookmarkManager9bookmarksEv
libOkular6Core.so.4:_ZNK6Okular15CaretAnnotation11caretSymbolEv
libOkular6Core.so.4:_ZNK6Okular15CaretAnnotation5storeER8QDomNodeR12QDomDocument
libOkular6Core.so.4:_ZNK6Okular15CaretAnnotation7subTypeEv
libOkular6Core.so.4:_ZNK6Okular15CertificateInfo10issuerInfoENS0_13EntityInfoKeyENS0_11EmptyStringE
libOkular6Core.so.4:_ZNK6Okular15CertificateInfo11isQualifiedEv
libOkular6Core.so.4:_ZNK6Okular15CertificateInfo11keyLocationEv
libOkular6Core.so.4:_ZNK6Okular15CertificateInfo11subjectInfoENS0_13EntityInfoKeyENS0_11EmptyStringE
libOkular6Core.so.4:_ZNK6Okular15CertificateInfo11validityEndEv
libOkular6Core.so.4:_ZNK6Okular15CertificateInfo12isSelfSignedEv
libOkular6Core.so.4:_ZNK6Okular15CertificateInfo12serialNumberEv
libOkular6Core.so.4:_ZNK6Okular15CertificateInfo13checkPasswordERK7QString
libOkular6Core.so.4:_ZNK6Okular15CertificateInfo13publicKeyTypeEv
libOkular6Core.so.4:_ZNK6Okular15CertificateInfo13validityStartEv
libOkular6Core.so.4:_ZNK6Okular15CertificateInfo15certificateDataEv
libOkular6Core.so.4:_ZNK6Okular15CertificateInfo15certificateTypeEv
libOkular6Core.so.4:_ZNK6Okular15CertificateInfo17publicKeyStrengthEv
libOkular6Core.so.4:_ZNK6Okular15CertificateInfo18keyUsageExtensionsEv
libOkular6Core.so.4:_ZNK6Okular15CertificateInfo6isNullEv
libOkular6Core.so.4:_ZNK6Okular15CertificateInfo7backendEv
libOkular6Core.so.4:_ZNK6Okular15CertificateInfo7versionEv
libOkular6Core.so.4:_ZNK6Okular15CertificateInfo8nickNameEv
libOkular6Core.so.4:_ZNK6Okular15CertificateInfo9publicKeyEv
libOkular6Core.so.4:_ZNK6Okular15FormFieldChoice10editChoiceEv
libOkular6Core.so.4:_ZNK6Okular15FormFieldChoice10isEditableEv
libOkular6Core.so.4:_ZNK6Okular15FormFieldChoice11multiSelectEv
libOkular6Core.so.4:_ZNK6Okular15FormFieldChoice13textAlignmentEv
libOkular6Core.so.4:_ZNK6Okular15FormFieldChoice17canBeSpellCheckedEv
libOkular6Core.so.4:_ZNK6Okular15FormFieldChoice20exportValueForChoiceERK7QString
libOkular6Core.so.4:_ZNK6Okular15FormFieldChoice5valueEv
libOkular6Core.so.4:_ZNK6Okular15MovieAnnotation5movieEv
libOkular6Core.so.4:_ZNK6Okular15MovieAnnotation5storeER8QDomNodeR12QDomDocument
libOkular6Core.so.4:_ZNK6Okular15MovieAnnotation7subTypeEv
libOkular6Core.so.4:_ZNK6Okular15NormalizedPoint11distanceSqrEdddd
libOkular6Core.so.4:_ZNK6Okular15RenditionAction10actionTypeEv
libOkular6Core.so.4:_ZNK6Okular15RenditionAction10annotationEv
libOkular6Core.so.4:_ZNK6Okular15RenditionAction10scriptTypeEv
libOkular6Core.so.4:_ZNK6Okular15RenditionAction5movieEv
libOkular6Core.so.4:_ZNK6Okular15RenditionAction6scriptEv
libOkular6Core.so.4:_ZNK6Okular15RenditionAction9actionTipEv
libOkular6Core.so.4:_ZNK6Okular15RenditionAction9operationEv
libOkular6Core.so.4:_ZNK6Okular15SoundAnnotation13soundIconNameEv
libOkular6Core.so.4:_ZNK6Okular15SoundAnnotation5soundEv
libOkular6Core.so.4:_ZNK6Okular15SoundAnnotation5storeER8QDomNodeR12QDomDocument
libOkular6Core.so.4:_ZNK6Okular15SoundAnnotation7subTypeEv
libOkular6Core.so.4:_ZNK6Okular15SourceReference3rowEv
libOkular6Core.so.4:_ZNK6Okular15SourceReference6columnEv
libOkular6Core.so.4:_ZNK6Okular15SourceReference8fileNameEv
libOkular6Core.so.4:_ZNK6Okular15StampAnnotation13stampIconNameEv
libOkular6Core.so.4:_ZNK6Okular15StampAnnotation5storeER8QDomNodeR12QDomDocument
libOkular6Core.so.4:_ZNK6Okular15StampAnnotation7subTypeEv
libOkular6Core.so.4:_ZNK6Okular16CertificateStore19signingCertificatesEPb
libOkular6Core.so.4:_ZNK6Okular16CertificateStore25signingCertificatesForNowEPbS1_
libOkular6Core.so.4:_ZNK6Okular16DocumentObserver15canUnloadPixmapEi
libOkular6Core.so.4:_ZNK6Okular16DocumentViewport7isValidEv
libOkular6Core.so.4:_ZNK6Okular16DocumentViewport8toStringEv
libOkular6Core.so.4:_ZNK6Okular16DocumentViewporteqERKS0_
libOkular6Core.so.4:_ZNK6Okular16DocumentViewportltERKS0_
libOkular6Core.so.4:_ZNK6Okular16NewSignatureData12certNicknameEv
libOkular6Core.so.4:_ZNK6Okular16NewSignatureData12leftFontSizeEv
libOkular6Core.so.4:_ZNK6Okular16NewSignatureData16documentPasswordEv
libOkular6Core.so.4:_ZNK6Okular16NewSignatureData17boundingRectangleEv
libOkular6Core.so.4:_ZNK6Okular16NewSignatureData19backgroundImagePathEv
libOkular6Core.so.4:_ZNK6Okular16NewSignatureData21certSubjectCommonNameEv
libOkular6Core.so.4:_ZNK6Okular16NewSignatureData4pageEv
libOkular6Core.so.4:_ZNK6Okular16NewSignatureData6reasonEv
libOkular6Core.so.4:_ZNK6Okular16NewSignatureData8fontSizeEv
libOkular6Core.so.4:_ZNK6Okular16NewSignatureData8locationEv
libOkular6Core.so.4:_ZNK6Okular16NewSignatureData8passwordEv
libOkular6Core.so.4:_ZNK6Okular16ScreenAnnotation16additionalActionENS_10Annotation20AdditionalActionTypeE
libOkular6Core.so.4:_ZNK6Okular16ScreenAnnotation5storeER8QDomNodeR12QDomDocument
libOkular6Core.so.4:_ZNK6Okular16ScreenAnnotation6actionEv
libOkular6Core.so.4:_ZNK6Okular16ScreenAnnotation7subTypeEv
libOkular6Core.so.4:_ZNK6Okular16WidgetAnnotation16additionalActionENS_10Annotation20AdditionalActionTypeE
libOkular6Core.so.4:_ZNK6Okular16WidgetAnnotation5storeER8QDomNodeR12QDomDocument
libOkular6Core.so.4:_ZNK6Okular16WidgetAnnotation7subTypeEv
libOkular6Core.so.4:_ZNK6Okular18PrintOptionsWidget10metaObjectEv
libOkular6Core.so.4:_ZNK6Okular19BackendConfigDialog10metaObjectEv
libOkular6Core.so.4:_ZNK6Okular19BackendOpaqueAction10actionTypeEv
libOkular6Core.so.4:_ZNK6Okular19HighlightAnnotation13highlightTypeEv
libOkular6Core.so.4:_ZNK6Okular19HighlightAnnotation14highlightQuadsEv
libOkular6Core.so.4:_ZNK6Okular19HighlightAnnotation4Quad16transformedPointEi
libOkular6Core.so.4:_ZNK6Okular19HighlightAnnotation4Quad5pointEi
libOkular6Core.so.4:_ZNK6Okular19HighlightAnnotation4Quad6capEndEv
libOkular6Core.so.4:_ZNK6Okular19HighlightAnnotation4Quad7featherEv
libOkular6Core.so.4:_ZNK6Okular19HighlightAnnotation4Quad8capStartEv
libOkular6Core.so.4:_ZNK6Okular19HighlightAnnotation5storeER8QDomNodeR12QDomDocument
libOkular6Core.so.4:_ZNK6Okular19HighlightAnnotation7subTypeEv
libOkular6Core.so.4:_ZNK6Okular19RichMediaAnnotation12embeddedFileEv
libOkular6Core.so.4:_ZNK6Okular19RichMediaAnnotation5movieEv
libOkular6Core.so.4:_ZNK6Okular19RichMediaAnnotation5storeER8QDomNodeR12QDomDocument
libOkular6Core.so.4:_ZNK6Okular19RichMediaAnnotation7subTypeEv
libOkular6Core.so.4:_ZNK6Okular19SignatureAnnotation12leftFontSizeEv
libOkular6Core.so.4:_ZNK6Okular19SignatureAnnotation16fieldPartialNameEv
libOkular6Core.so.4:_ZNK6Okular19SignatureAnnotation4pageEv
libOkular6Core.so.4:_ZNK6Okular19SignatureAnnotation4textEv
libOkular6Core.so.4:_ZNK6Okular19SignatureAnnotation5storeER8QDomNodeR12QDomDocument
libOkular6Core.so.4:_ZNK6Okular19SignatureAnnotation7subTypeEv
libOkular6Core.so.4:_ZNK6Okular19SignatureAnnotation8fontSizeEv
libOkular6Core.so.4:_ZNK6Okular19SignatureAnnotation8leftTextEv
libOkular6Core.so.4:_ZNK6Okular19SignatureAnnotation9imagePathEv
libOkular6Core.so.4:_ZNK6Okular19SourceRefObjectRect12boundingRectEdd
libOkular6Core.so.4:_ZNK6Okular19SourceRefObjectRect8containsEdddd
libOkular6Core.so.4:_ZNK6Okular20AnnotationObjectRect10annotationEv
libOkular6Core.so.4:_ZNK6Okular20AnnotationObjectRect12boundingRectEdd
libOkular6Core.so.4:_ZNK6Okular20AnnotationObjectRect8containsEdddd
libOkular6Core.so.4:_ZNK6Okular20TextDocumentSettings10metaObjectEv
libOkular6Core.so.4:_ZNK6Okular20TextDocumentSettings4fontEv
libOkular6Core.so.4:_ZNK6Okular21TextDocumentConverter10metaObjectEv
libOkular6Core.so.4:_ZNK6Okular21TextDocumentConverter9generatorEv
libOkular6Core.so.4:_ZNK6Okular21TextDocumentGenerator10metaObjectEv
libOkular6Core.so.4:_ZNK6Okular21TextDocumentGenerator13exportFormatsEv
libOkular6Core.so.4:_ZNK6Okular21TextDocumentGenerator17canGeneratePixmapEv
libOkular6Core.so.4:_ZNK6Okular21TextDocumentGenerator20generateDocumentInfoERK4QSetINS_12DocumentInfo3KeyEE
libOkular6Core.so.4:_ZNK6Okular24FileAttachmentAnnotation12embeddedFileEv
libOkular6Core.so.4:_ZNK6Okular24FileAttachmentAnnotation12fileIconNameEv
libOkular6Core.so.4:_ZNK6Okular24FileAttachmentAnnotation5storeER8QDomNodeR12QDomDocument
libOkular6Core.so.4:_ZNK6Okular24FileAttachmentAnnotation7subTypeEv
libOkular6Core.so.4:_ZNK6Okular25DefaultPrintOptionsWidget10metaObjectEv
libOkular6Core.so.4:_ZNK6Okular25DefaultPrintOptionsWidget18ignorePrintMarginsEv
libOkular6Core.so.4:_ZNK6Okular26TextDocumentSettingsWidget10metaObjectEv
libOkular6Core.so.4:_ZNK6Okular4Page10annotationERK7QString
libOkular6Core.so.4:_ZNK6Okular4Page10formFieldsEv
libOkular6Core.so.4:_ZNK6Okular4Page10objectRectENS_10ObjectRect10ObjectTypeEdddd
libOkular6Core.so.4:_ZNK6Okular4Page10pageActionENS0_10PageActionE
libOkular6Core.so.4:_ZNK6Okular4Page10transitionEv
libOkular6Core.so.4:_ZNK6Okular4Page11annotationsEv
libOkular6Core.so.4:_ZNK6Okular4Page11boundingBoxEv
libOkular6Core.so.4:_ZNK6Okular4Page11hasTextPageEv
libOkular6Core.so.4:_ZNK6Okular4Page11objectRectsENS_10ObjectRect10ObjectTypeEdddd
libOkular6Core.so.4:_ZNK6Okular4Page11objectRectsEv
libOkular6Core.so.4:_ZNK6Okular4Page11orientationEv
libOkular6Core.so.4:_ZNK6Okular4Page13hasHighlightsEi
libOkular6Core.so.4:_ZNK6Okular4Page13hasObjectRectEdddd
libOkular6Core.so.4:_ZNK6Okular4Page13hasTransitionEv
libOkular6Core.so.4:_ZNK6Okular4Page13textSelectionEv
libOkular6Core.so.4:_ZNK6Okular4Page14hasAnnotationsEv
libOkular6Core.so.4:_ZNK6Okular4Page15hasTilesManagerEPKNS_16DocumentObserverE
libOkular6Core.so.4:_ZNK6Okular4Page16_o_nearestPixmapEPNS_16DocumentObserverEii
libOkular6Core.so.4:_ZNK6Okular4Page16totalOrientationEv
libOkular6Core.so.4:_ZNK6Okular4Page17nearestObjectRectENS_10ObjectRect10ObjectTypeEddddPd
libOkular6Core.so.4:_ZNK6Okular4Page18isBoundingBoxKnownEv
libOkular6Core.so.4:_ZNK6Okular4Page18textSelectionColorEv
libOkular6Core.so.4:_ZNK6Okular4Page4textEPKNS_15RegularAreaRectE
libOkular6Core.so.4:_ZNK6Okular4Page4textEPKNS_15RegularAreaRectENS_8TextPage26TextAreaInclusionBehaviourE
libOkular6Core.so.4:_ZNK6Okular4Page5labelEv
libOkular6Core.so.4:_ZNK6Okular4Page5ratioEv
libOkular6Core.so.4:_ZNK6Okular4Page5widthEv
libOkular6Core.so.4:_ZNK6Okular4Page5wordsEPKNS_15RegularAreaRectENS_8TextPage26TextAreaInclusionBehaviourE
libOkular6Core.so.4:_ZNK6Okular4Page6heightEv
libOkular6Core.so.4:_ZNK6Okular4Page6numberEv
libOkular6Core.so.4:_ZNK6Okular4Page6wordAtERKNS_15NormalizedPointE
libOkular6Core.so.4:_ZNK6Okular4Page7tilesAtEPKNS_16DocumentObserverERKNS_14NormalizedRectE
libOkular6Core.so.4:_ZNK6Okular4Page8durationEv
libOkular6Core.so.4:_ZNK6Okular4Page8findTextEiRK7QStringNS_15SearchDirectionEN2Qt15CaseSensitivityEPKNS_15RegularAreaRectE
libOkular6Core.so.4:_ZNK6Okular4Page8rotationEv
libOkular6Core.so.4:_ZNK6Okular4Page8textAreaERKNS_13TextSelectionE
libOkular6Core.so.4:_ZNK6Okular4Page9hasPixmapEPNS_16DocumentObserverEiiRKNS_14NormalizedRectE
libOkular6Core.so.4:_ZNK6Okular4Tile4rectEv
libOkular6Core.so.4:_ZNK6Okular4Tile6pixmapEv
libOkular6Core.so.4:_ZNK6Okular4Tile7isValidEv
libOkular6Core.so.4:_ZNK6Okular4View10capabilityENS0_14ViewCapabilityE
libOkular6Core.so.4:_ZNK6Okular4View12viewDocumentEv
libOkular6Core.so.4:_ZNK6Okular4View15capabilityFlagsENS0_14ViewCapabilityE
libOkular6Core.so.4:_ZNK6Okular4View18supportsCapabilityENS0_14ViewCapabilityE
libOkular6Core.so.4:_ZNK6Okular4View4nameEv
libOkular6Core.so.4:_ZNK6Okular5Movie11posterImageEv
libOkular6Core.so.4:_ZNK6Okular5Movie11startPausedEv
libOkular6Core.so.4:_ZNK6Okular5Movie12showControlsEv
libOkular6Core.so.4:_ZNK6Okular5Movie15playRepetitionsEv
libOkular6Core.so.4:_ZNK6Okular5Movie15showPosterImageEv
libOkular6Core.so.4:_ZNK6Okular5Movie3urlEv
libOkular6Core.so.4:_ZNK6Okular5Movie4sizeEv
libOkular6Core.so.4:_ZNK6Okular5Movie8autoPlayEv
libOkular6Core.so.4:_ZNK6Okular5Movie8playModeEv
libOkular6Core.so.4:_ZNK6Okular5Movie8rotationEv
libOkular6Core.so.4:_ZNK6Okular5Sound12samplingRateEv
libOkular6Core.so.4:_ZNK6Okular5Sound13bitsPerSampleEv
libOkular6Core.so.4:_ZNK6Okular5Sound13soundEncodingEv
libOkular6Core.so.4:_ZNK6Okular5Sound3urlEv
libOkular6Core.so.4:_ZNK6Okular5Sound4dataEv
libOkular6Core.so.4:_ZNK6Okular5Sound8channelsEv
libOkular6Core.so.4:_ZNK6Okular5Sound9soundTypeEv
libOkular6Core.so.4:_ZNK6Okular6Action11nextActionsEv
libOkular6Core.so.4:_ZNK6Okular6Action12nativeHandleEv
libOkular6Core.so.4:_ZNK6Okular6Action8nativeIdEv
libOkular6Core.so.4:_ZNK6Okular6Action9actionTipEv
libOkular6Core.so.4:_ZNK6Okular8Document10metaObjectEv
libOkular6Core.so.4:_ZNK6Okular8Document11currentPageEv
libOkular6Core.so.4:_ZNK6Okular8Document11layersModelEv
libOkular6Core.so.4:_ZNK6Okular8Document11orientationEv
libOkular6Core.so.4:_ZNK6Okular8Document12allPagesSizeEv
libOkular6Core.so.4:_ZNK6Okular8Document12documentInfoERK4QSetINS_12DocumentInfo3KeyEE
libOkular6Core.so.4:_ZNK6Okular8Document12documentInfoEv
libOkular6Core.so.4:_ZNK6Okular8Document12exportToTextERK7QString
libOkular6Core.so.4:_ZNK6Okular8Document12historyAtEndEv
libOkular6Core.so.4:_ZNK6Okular8Document13embeddedFilesEv
libOkular6Core.so.4:_ZNK6Okular8Document13exportFormatsEv
libOkular6Core.so.4:_ZNK6Okular8Document13generatorInfoEv
libOkular6Core.so.4:_ZNK6Okular8Document13supportsTilesEv
libOkular6Core.so.4:_ZNK6Okular8Document14canSaveChangesENS0_14SaveCapabilityE
libOkular6Core.so.4:_ZNK6Okular8Document14canSaveChangesEv
libOkular6Core.so.4:_ZNK6Okular8Document14historyAtBeginEv
libOkular6Core.so.4:_ZNK6Okular8Document14isHistoryCleanEv
libOkular6Core.so.4:_ZNK6Okular8Document14pageSizeStringEi
libOkular6Core.so.4:_ZNK6Okular8Document14reloadDocumentEv
libOkular6Core.so.4:_ZNK6Okular8Document15bookmarkManagerEv
libOkular6Core.so.4:_ZNK6Okular8Document15canExportToTextEv
libOkular6Core.so.4:_ZNK6Okular8Document15currentDocumentEv
libOkular6Core.so.4:_ZNK6Okular8Document15printingSupportEv
libOkular6Core.so.4:_ZNK6Okular8Document16certificateStoreEv
libOkular6Core.so.4:_ZNK6Okular8Document16documentSynopsisEv
libOkular6Core.so.4:_ZNK6Okular8Document16visiblePageRectsEv
libOkular6Core.so.4:_ZNK6Okular8Document17supportsPageSizesEv
libOkular6Core.so.4:_ZNK6Okular8Document17supportsSearchingEv
libOkular6Core.so.4:_ZNK6Okular8Document17walletDataForFileERK7QStringPS1_S4_S4_
libOkular6Core.so.4:_ZNK6Okular8Document18bookmarkedPageListEv
libOkular6Core.so.4:_ZNK6Okular8Document18canSwapBackingFileEv
libOkular6Core.so.4:_ZNK6Okular8Document18supportedMimeTypesEv
libOkular6Core.so.4:_ZNK6Okular8Document19bookmarkedPageRangeEv
libOkular6Core.so.4:_ZNK6Okular8Document19canConfigurePrinterEv
libOkular6Core.so.4:_ZNK6Okular8Document19supportsPrintToFileEv
libOkular6Core.so.4:_ZNK6Okular8Document21editorCommandOverrideEv
libOkular6Core.so.4:_ZNK6Okular8Document22configurableGeneratorsEv
libOkular6Core.so.4:_ZNK6Okular8Document23canModifyPageAnnotationEPKNS_10AnnotationE
libOkular6Core.so.4:_ZNK6Okular8Document23canRemovePageAnnotationEPKNS_10AnnotationE
libOkular6Core.so.4:_ZNK6Okular8Document24isDocdataMigrationNeededEv
libOkular6Core.so.4:_ZNK6Okular8Document24printConfigurationWidgetEv
libOkular6Core.so.4:_ZNK6Okular8Document25canProvideFontInformationEv
libOkular6Core.so.4:_ZNK6Okular8Document4pageEi
libOkular6Core.so.4:_ZNK6Okular8Document5pagesEv
libOkular6Core.so.4:_ZNK6Okular8Document7canRedoEv
libOkular6Core.so.4:_ZNK6Okular8Document7canSignEv
libOkular6Core.so.4:_ZNK6Okular8Document7canUndoEv
libOkular6Core.so.4:_ZNK6Okular8Document8exportToERK7QStringRKNS_12ExportFormatE
libOkular6Core.so.4:_ZNK6Okular8Document8fontDataERKNS_8FontInfoE
libOkular6Core.so.4:_ZNK6Okular8Document8isOpenedEv
libOkular6Core.so.4:_ZNK6Okular8Document8metaDataERK7QStringRK8QVariant
libOkular6Core.so.4:_ZNK6Okular8Document8rotationEv
libOkular6Core.so.4:_ZNK6Okular8Document8viewportEv
libOkular6Core.so.4:_ZNK6Okular8Document9isAllowedENS_10PermissionE
libOkular6Core.so.4:_ZNK6Okular8Document9openErrorEv
libOkular6Core.so.4:_ZNK6Okular8Document9pageSizesEv
libOkular6Core.so.4:_ZNK6Okular8FontInfo14canBeExtractedEv
libOkular6Core.so.4:_ZNK6Okular8FontInfo14substituteNameEv
libOkular6Core.so.4:_ZNK6Okular8FontInfo4fileEv
libOkular6Core.so.4:_ZNK6Okular8FontInfo4nameEv
libOkular6Core.so.4:_ZNK6Okular8FontInfo4typeEv
libOkular6Core.so.4:_ZNK6Okular8FontInfo8nativeIdEv
libOkular6Core.so.4:_ZNK6Okular8FontInfo9embedTypeEv
libOkular6Core.so.4:_ZNK6Okular8FontInfoeqERKS0_
libOkular6Core.so.4:_ZNK6Okular8FontInfoneERKS0_
libOkular6Core.so.4:_ZNK6Okular8PageSize4nameEv
libOkular6Core.so.4:_ZNK6Okular8PageSize5widthEv
libOkular6Core.so.4:_ZNK6Okular8PageSize6heightEv
libOkular6Core.so.4:_ZNK6Okular8PageSize6isNullEv
libOkular6Core.so.4:_ZNK6Okular8PageSizeeqERKS0_
libOkular6Core.so.4:_ZNK6Okular8PageSizeneERKS0_
libOkular6Core.so.4:_ZNK6Okular8TextPage4textEPKNS_15RegularAreaRectE
libOkular6Core.so.4:_ZNK6Okular8TextPage4textEPKNS_15RegularAreaRectENS0_26TextAreaInclusionBehaviourE
libOkular6Core.so.4:_ZNK6Okular8TextPage5wordsEPKNS_15RegularAreaRectENS0_26TextAreaInclusionBehaviourE
libOkular6Core.so.4:_ZNK6Okular8TextPage6wordAtERKNS_15NormalizedPointE
libOkular6Core.so.4:_ZNK6Okular8TextPage8textAreaERKNS_13TextSelectionE
libOkular6Core.so.4:_ZNK6Okular9FormField10isReadOnlyEv
libOkular6Core.so.4:_ZNK6Okular9FormField11isPrintableEv
libOkular6Core.so.4:_ZNK6Okular9FormField14committedValueEv
libOkular6Core.so.4:_ZNK6Okular9FormField16activationActionEv
libOkular6Core.so.4:_ZNK6Okular9FormField16additionalActionENS0_20AdditionalActionTypeE
libOkular6Core.so.4:_ZNK6Okular9FormField16additionalActionENS_10Annotation20AdditionalActionTypeE
libOkular6Core.so.4:_ZNK6Okular9FormField17additionalActionsEv
libOkular6Core.so.4:_ZNK6Okular9FormField23committedFormattedValueEv
libOkular6Core.so.4:_ZNK6Okular9FormField4pageEv
libOkular6Core.so.4:_ZNK6Okular9FormField4typeEv
libOkular6Core.so.4:_ZNK6Okular9FormField5valueEv
libOkular6Core.so.4:_ZNK6Okular9FormField9isVisibleEv
libOkular6Core.so.4:_ZNK6Okular9Generator10hasFeatureENS0_16GeneratorFeatureE
libOkular6Core.so.4:_ZNK6Okular9Generator10metaObjectEv
libOkular6Core.so.4:_ZNK6Okular9Generator11layersModelEv
libOkular6Core.so.4:_ZNK6Okular9Generator13embeddedFilesEv
libOkular6Core.so.4:_ZNK6Okular9Generator13exportFormatsEv
libOkular6Core.so.4:_ZNK6Okular9Generator15pagesSizeMetricEv
libOkular6Core.so.4:_ZNK6Okular9Generator16certificateStoreEv
libOkular6Core.so.4:_ZNK6Okular9Generator16documentMetaDataENS0_19DocumentMetaDataKeyERK8QVariant
libOkular6Core.so.4:_ZNK6Okular9Generator17canGeneratePixmapEv
libOkular6Core.so.4:_ZNK6Okular9Generator17defaultPageLayoutEv
libOkular6Core.so.4:_ZNK6Okular9Generator17walletDataForFileERK7QStringPS1_S4_S4_
libOkular6Core.so.4:_ZNK6Okular9Generator19canGenerateTextPageEv
libOkular6Core.so.4:_ZNK6Okular9Generator20generateDocumentInfoERK4QSetINS_12DocumentInfo3KeyEE
libOkular6Core.so.4:_ZNK6Okular9Generator21defaultPageContinuousEv
libOkular6Core.so.4:_ZNK6Okular9Generator24activeCertificateBackendEv
libOkular6Core.so.4:_ZNK6Okular9Generator3dpiEv
libOkular6Core.so.4:_ZNK6Okular9Generator7canSignEv
libOkular6Core.so.4:_ZNK6Okular9Generator8documentEv
libOkular6Core.so.4:_ZNK6Okular9Generator8metaDataERK7QStringRK8QVariant
libOkular6Core.so.4:_ZNK6Okular9Generator9isAllowedENS_10PermissionE
libOkular6Core.so.4:_ZNK6Okular9Generator9pageSizesEv
libOkular6Core.so.4:_ZNK6Okular9Generator9userMutexEv
libOkular6Core.so.4:_ZTIN6Okular10AnnotationE
libOkular6Core.so.4:_ZTIN6Okular10GotoActionE
libOkular6Core.so.4:_ZTIN6Okular10ObjectRectE
libOkular6Core.so.4:_ZTIN6Okular11AudioPlayerE
libOkular6Core.so.4:_ZTIN6Okular11MovieActionE
libOkular6Core.so.4:_ZTIN6Okular11SoundActionE
libOkular6Core.so.4:_ZTIN6Okular12BrowseActionE
libOkular6Core.so.4:_ZTIN6Okular12EmbeddedFileE
libOkular6Core.so.4:_ZTIN6Okular12ScriptActionE
libOkular6Core.so.4:_ZTIN6Okular12SettingsCoreE
libOkular6Core.so.4:_ZTIN6Okular13ExecuteActionE
libOkular6Core.so.4:_ZTIN6Okular13FormFieldTextE
libOkular6Core.so.4:_ZTIN6Okular13InkAnnotationE
libOkular6Core.so.4:_ZTIN6Okular14DocumentActionE
libOkular6Core.so.4:_ZTIN6Okular14GeomAnnotationE
libOkular6Core.so.4:_ZTIN6Okular14LineAnnotationE
libOkular6Core.so.4:_ZTIN6Okular14TextAnnotationE
libOkular6Core.so.4:_ZTIN6Okular15AnnotationProxyE
libOkular6Core.so.4:_ZTIN6Okular15BookmarkManager7PrivateE
libOkular6Core.so.4:_ZTIN6Okular15BookmarkManagerE
libOkular6Core.so.4:_ZTIN6Okular15CaretAnnotationE
libOkular6Core.so.4:_ZTIN6Okular15FormFieldButtonE
libOkular6Core.so.4:_ZTIN6Okular15FormFieldChoiceE
libOkular6Core.so.4:_ZTIN6Okular15MovieAnnotationE
libOkular6Core.so.4:_ZTIN6Okular15RenditionActionE
libOkular6Core.so.4:_ZTIN6Okular15SoundAnnotationE
libOkular6Core.so.4:_ZTIN6Okular15StampAnnotationE
libOkular6Core.so.4:_ZTIN6Okular16CertificateStoreE
libOkular6Core.so.4:_ZTIN6Okular16DocumentObserverE
libOkular6Core.so.4:_ZTIN6Okular16ScreenAnnotationE
libOkular6Core.so.4:_ZTIN6Okular16WidgetAnnotationE
libOkular6Core.so.4:_ZTIN6Okular18FormFieldSignatureE
libOkular6Core.so.4:_ZTIN6Okular18PrintOptionsWidgetE
libOkular6Core.so.4:_ZTIN6Okular19BackendConfigDialogE
libOkular6Core.so.4:_ZTIN6Okular19BackendOpaqueActionE
libOkular6Core.so.4:_ZTIN6Okular19HighlightAnnotationE
libOkular6Core.so.4:_ZTIN6Okular19NonOwningObjectRectE
libOkular6Core.so.4:_ZTIN6Okular19RichMediaAnnotationE
libOkular6Core.so.4:_ZTIN6Okular19SignatureAnnotationE
libOkular6Core.so.4:_ZTIN6Okular19SourceRefObjectRectE
libOkular6Core.so.4:_ZTIN6Okular20AnnotationObjectRectE
libOkular6Core.so.4:_ZTIN6Okular20TextDocumentSettingsE
libOkular6Core.so.4:_ZTIN6Okular21TextDocumentConverterE
libOkular6Core.so.4:_ZTIN6Okular21TextDocumentGeneratorE
libOkular6Core.so.4:_ZTIN6Okular24FileAttachmentAnnotationE
libOkular6Core.so.4:_ZTIN6Okular25DefaultPrintOptionsWidgetE
libOkular6Core.so.4:_ZTIN6Okular26TextDocumentSettingsWidgetE
libOkular6Core.so.4:_ZTIN6Okular4ViewE
libOkular6Core.so.4:_ZTIN6Okular6ActionE
libOkular6Core.so.4:_ZTIN6Okular8DocumentE
libOkular6Core.so.4:_ZTIN6Okular9FormFieldE
libOkular6Core.so.4:_ZTIN6Okular9GeneratorE
libOkular6Core.so.4:_ZTSN6Okular10AnnotationE
libOkular6Core.so.4:_ZTSN6Okular10GotoActionE
libOkular6Core.so.4:_ZTSN6Okular10ObjectRectE
libOkular6Core.so.4:_ZTSN6Okular11AudioPlayerE
libOkular6Core.so.4:_ZTSN6Okular11MovieActionE
libOkular6Core.so.4:_ZTSN6Okular11SoundActionE
libOkular6Core.so.4:_ZTSN6Okular12BrowseActionE
libOkular6Core.so.4:_ZTSN6Okular12EmbeddedFileE
libOkular6Core.so.4:_ZTSN6Okular12ScriptActionE
libOkular6Core.so.4:_ZTSN6Okular12SettingsCoreE
libOkular6Core.so.4:_ZTSN6Okular13ExecuteActionE
libOkular6Core.so.4:_ZTSN6Okular13FormFieldTextE
libOkular6Core.so.4:_ZTSN6Okular13InkAnnotationE
libOkular6Core.so.4:_ZTSN6Okular14DocumentActionE
libOkular6Core.so.4:_ZTSN6Okular14GeomAnnotationE
libOkular6Core.so.4:_ZTSN6Okular14LineAnnotationE
libOkular6Core.so.4:_ZTSN6Okular14TextAnnotationE
libOkular6Core.so.4:_ZTSN6Okular15AnnotationProxyE
libOkular6Core.so.4:_ZTSN6Okular15BookmarkManager7PrivateE
libOkular6Core.so.4:_ZTSN6Okular15BookmarkManagerE
libOkular6Core.so.4:_ZTSN6Okular15CaretAnnotationE
libOkular6Core.so.4:_ZTSN6Okular15FormFieldButtonE
libOkular6Core.so.4:_ZTSN6Okular15FormFieldChoiceE
libOkular6Core.so.4:_ZTSN6Okular15MovieAnnotationE
libOkular6Core.so.4:_ZTSN6Okular15RenditionActionE
libOkular6Core.so.4:_ZTSN6Okular15SoundAnnotationE
libOkular6Core.so.4:_ZTSN6Okular15StampAnnotationE
libOkular6Core.so.4:_ZTSN6Okular16CertificateStoreE
libOkular6Core.so.4:_ZTSN6Okular16DocumentObserverE
libOkular6Core.so.4:_ZTSN6Okular16ScreenAnnotationE
libOkular6Core.so.4:_ZTSN6Okular16WidgetAnnotationE
libOkular6Core.so.4:_ZTSN6Okular18FormFieldSignatureE
libOkular6Core.so.4:_ZTSN6Okular18PrintOptionsWidgetE
libOkular6Core.so.4:_ZTSN6Okular19BackendConfigDialogE
libOkular6Core.so.4:_ZTSN6Okular19BackendOpaqueActionE
libOkular6Core.so.4:_ZTSN6Okular19HighlightAnnotationE
libOkular6Core.so.4:_ZTSN6Okular19NonOwningObjectRectE
libOkular6Core.so.4:_ZTSN6Okular19RichMediaAnnotationE
libOkular6Core.so.4:_ZTSN6Okular19SignatureAnnotationE
libOkular6Core.so.4:_ZTSN6Okular19SourceRefObjectRectE
libOkular6Core.so.4:_ZTSN6Okular20AnnotationObjectRectE
libOkular6Core.so.4:_ZTSN6Okular20TextDocumentSettingsE
libOkular6Core.so.4:_ZTSN6Okular21TextDocumentConverterE
libOkular6Core.so.4:_ZTSN6Okular21TextDocumentGeneratorE
libOkular6Core.so.4:_ZTSN6Okular24FileAttachmentAnnotationE
libOkular6Core.so.4:_ZTSN6Okular25DefaultPrintOptionsWidgetE
libOkular6Core.so.4:_ZTSN6Okular26TextDocumentSettingsWidgetE
libOkular6Core.so.4:_ZTSN6Okular4ViewE
libOkular6Core.so.4:_ZTSN6Okular6ActionE
libOkular6Core.so.4:_ZTSN6Okular8DocumentE
libOkular6Core.so.4:_ZTSN6Okular9FormFieldE
libOkular6Core.so.4:_ZTSN6Okular9GeneratorE
libOkular6Core.so.4:_ZTVN6Okular10AnnotationE
libOkular6Core.so.4:_ZTVN6Okular10GotoActionE
libOkular6Core.so.4:_ZTVN6Okular10ObjectRectE
libOkular6Core.so.4:_ZTVN6Okular11AudioPlayerE
libOkular6Core.so.4:_ZTVN6Okular11MovieActionE
libOkular6Core.so.4:_ZTVN6Okular11SoundActionE
libOkular6Core.so.4:_ZTVN6Okular12BrowseActionE
libOkular6Core.so.4:_ZTVN6Okular12EmbeddedFileE
libOkular6Core.so.4:_ZTVN6Okular12ScriptActionE
libOkular6Core.so.4:_ZTVN6Okular12SettingsCoreE
libOkular6Core.so.4:_ZTVN6Okular13ExecuteActionE
libOkular6Core.so.4:_ZTVN6Okular13FormFieldTextE
libOkular6Core.so.4:_ZTVN6Okular13InkAnnotationE
libOkular6Core.so.4:_ZTVN6Okular14DocumentActionE
libOkular6Core.so.4:_ZTVN6Okular14GeomAnnotationE
libOkular6Core.so.4:_ZTVN6Okular14LineAnnotationE
libOkular6Core.so.4:_ZTVN6Okular14TextAnnotationE
libOkular6Core.so.4:_ZTVN6Okular15AnnotationProxyE
libOkular6Core.so.4:_ZTVN6Okular15BookmarkManager7PrivateE
libOkular6Core.so.4:_ZTVN6Okular15BookmarkManagerE
libOkular6Core.so.4:_ZTVN6Okular15CaretAnnotationE
libOkular6Core.so.4:_ZTVN6Okular15FormFieldButtonE
libOkular6Core.so.4:_ZTVN6Okular15FormFieldChoiceE
libOkular6Core.so.4:_ZTVN6Okular15MovieAnnotationE
libOkular6Core.so.4:_ZTVN6Okular15RenditionActionE
libOkular6Core.so.4:_ZTVN6Okular15SoundAnnotationE
libOkular6Core.so.4:_ZTVN6Okular15StampAnnotationE
libOkular6Core.so.4:_ZTVN6Okular16CertificateStoreE
libOkular6Core.so.4:_ZTVN6Okular16DocumentObserverE
libOkular6Core.so.4:_ZTVN6Okular16ScreenAnnotationE
libOkular6Core.so.4:_ZTVN6Okular16WidgetAnnotationE
libOkular6Core.so.4:_ZTVN6Okular18FormFieldSignatureE
libOkular6Core.so.4:_ZTVN6Okular18PrintOptionsWidgetE
libOkular6Core.so.4:_ZTVN6Okular19BackendConfigDialogE
libOkular6Core.so.4:_ZTVN6Okular19BackendOpaqueActionE
libOkular6Core.so.4:_ZTVN6Okular19HighlightAnnotationE
libOkular6Core.so.4:_ZTVN6Okular19NonOwningObjectRectE
libOkular6Core.so.4:_ZTVN6Okular19RichMediaAnnotationE
libOkular6Core.so.4:_ZTVN6Okular19SignatureAnnotationE
libOkular6Core.so.4:_ZTVN6Okular19SourceRefObjectRectE
libOkular6Core.so.4:_ZTVN6Okular20AnnotationObjectRectE
libOkular6Core.so.4:_ZTVN6Okular20TextDocumentSettingsE
libOkular6Core.so.4:_ZTVN6Okular21TextDocumentConverterE
libOkular6Core.so.4:_ZTVN6Okular21TextDocumentGeneratorE
libOkular6Core.so.4:_ZTVN6Okular24FileAttachmentAnnotationE
libOkular6Core.so.4:_ZTVN6Okular25DefaultPrintOptionsWidgetE
libOkular6Core.so.4:_ZTVN6Okular26TextDocumentSettingsWidgetE
libOkular6Core.so.4:_ZTVN6Okular4ViewE
libOkular6Core.so.4:_ZTVN6Okular6ActionE
libOkular6Core.so.4:_ZTVN6Okular8DocumentE
libOkular6Core.so.4:_ZTVN6Okular9FormFieldE
libOkular6Core.so.4:_ZTVN6Okular9GeneratorE
libOkular6Core.so.4:_ZThn16_N6Okular26TextDocumentSettingsWidgetD0Ev
libOkular6Core.so.4:_ZThn16_N6Okular26TextDocumentSettingsWidgetD1Ev
libOkular6Core.so.4:_ZThn24_N6Okular21TextDocumentGenerator13reparseConfigEv
libOkular6Core.so.4:_ZThn24_N6Okular21TextDocumentGenerator8addPagesEP13KConfigDialog
libOkular6Core.so.4:_ZThn24_N6Okular21TextDocumentGeneratorD0Ev
libOkular6Core.so.4:_ZThn24_N6Okular21TextDocumentGeneratorD1Ev
libOkular6Core.so.4:_Zls6QDebugRKN6Okular13PixmapRequestE
libOkular6Core.so.4:_Zls6QDebugRKN6Okular14NormalizedRectE
libOkular6Core.so.4:_Zls6QDebugRKN6Okular15NormalizedPointE
okularGenerator_comicbook.so:qt_plugin_instance
okularGenerator_comicbook.so:qt_plugin_query_metadata_v2
okularGenerator_djvu.so:qt_plugin_instance
okularGenerator_djvu.so:qt_plugin_query_metadata_v2
okularGenerator_dvi.so:qt_plugin_instance
okularGenerator_dvi.so:qt_plugin_query_metadata_v2
okularGenerator_epub.so:qt_plugin_instance
okularGenerator_epub.so:qt_plugin_query_metadata_v2
okularGenerator_fax.so:qt_plugin_instance
okularGenerator_fax.so:qt_plugin_query_metadata_v2
okularGenerator_fb.so:qt_plugin_instance
okularGenerator_fb.so:qt_plugin_query_metadata_v2
okularGenerator_ghostview.so:qt_plugin_instance
okularGenerator_ghostview.so:qt_plugin_query_metadata_v2
okularGenerator_kimgio.so:qt_plugin_instance
okularGenerator_kimgio.so:qt_plugin_query_metadata_v2
okularGenerator_md.so:qt_plugin_instance
okularGenerator_md.so:qt_plugin_query_metadata_v2
okularGenerator_mobi.so:qt_plugin_instance
okularGenerator_mobi.so:qt_plugin_query_metadata_v2
okularGenerator_poppler.so:qt_plugin_instance
okularGenerator_poppler.so:qt_plugin_query_metadata_v2
okularGenerator_tiff.so:qt_plugin_instance
okularGenerator_tiff.so:qt_plugin_query_metadata_v2
okularGenerator_txt.so:qt_plugin_instance
okularGenerator_txt.so:qt_plugin_query_metadata_v2
okularGenerator_xps.so:qt_plugin_instance
okularGenerator_xps.so:qt_plugin_query_metadata_v2
okularpart.so:_ZN11PagePainter10blackWhiteEP6QImageii
okularpart.so:_ZN11PagePainter10invertLumaEP6QImagefff
okularpart.so:_ZN11PagePainter15invertLightnessEP6QImage
okularpart.so:_ZN11PagePainter15invertLumaPixelERhS0_S0_fff
okularpart.so:_ZN11PagePainter16drawShapeOnImageER6QImageRK5QListIN6Okular15NormalizedPointEEbRK4QPenRK6QBrushdNS_15RasterOperationE
okularpart.so:_ZN11PagePainter16hueShiftNegativeEP6QImage
okularpart.so:_ZN11PagePainter16hueShiftPositiveEP6QImage
okularpart.so:_ZN11PagePainter18drawEllipseOnImageER6QImageRK5QListIN6Okular15NormalizedPointEERK4QPenRK6QBrushdNS_15RasterOperationE
okularpart.so:_ZN11PagePainter18paintPageOnPainterEP8QPainterPKN6Okular4PageEPNS2_16DocumentObserverEiii5QRect
okularpart.so:_ZN11PagePainter25paintCroppedPageOnPainterEP8QPainterPKN6Okular4PageEPNS2_16DocumentObserverEiii5QRectRKNS2_14NormalizedRectEPNS2_15NormalizedPointE
okularpart.so:_ZN11PagePainter7recolorEP6QImageRK6QColorS4_
okularpart.so:_ZN3TOC10rightClickERKN6Okular16DocumentViewportE6QPointRK7QString
okularpart.so:_ZN3TOC11collapseAllEv
okularpart.so:_ZN3TOC11notifySetupERK5QListIPN6Okular4PageEEi
okularpart.so:_ZN3TOC11qt_metacallEN11QMetaObject4CallEiPPv
okularpart.so:_ZN3TOC11qt_metacastEPKc
okularpart.so:_ZN3TOC12finishReloadEv
okularpart.so:_ZN3TOC12slotExecutedERK11QModelIndex
okularpart.so:_ZN3TOC13reparseConfigEv
okularpart.so:_ZN3TOC14rollbackReloadEv
okularpart.so:_ZN3TOC16contextMenuEventEP17QContextMenuEvent
okularpart.so:_ZN3TOC16prepareForReloadEv
okularpart.so:_ZN3TOC16staticMetaObjectE
okularpart.so:_ZN3TOC17expandRecursivelyEv
okularpart.so:_ZN3TOC17saveSearchOptionsEv
okularpart.so:_ZN3TOC19collapseRecursivelyEv
okularpart.so:_ZN3TOC24notifyCurrentPageChangedEii
okularpart.so:_ZN3TOC6hasTOCEb
okularpart.so:_ZN3TOC9expandAllEv
okularpart.so:_ZN3TOCC1EP7QWidgetPN6Okular8DocumentE
okularpart.so:_ZN3TOCC2EP7QWidgetPN6Okular8DocumentE
okularpart.so:_ZN3TOCD0Ev
okularpart.so:_ZN3TOCD1Ev
okularpart.so:_ZN3TOCD2Ev
okularpart.so:_ZN6Layers11notifySetupERK5QListIPN6Okular4PageEEi
okularpart.so:_ZN6Layers11qt_metacallEN11QMetaObject4CallEiPPv
okularpart.so:_ZN6Layers11qt_metacastEPKc
okularpart.so:_ZN6Layers11setPageViewEP8PageView
okularpart.so:_ZN6Layers16staticMetaObjectE
okularpart.so:_ZN6Layers17saveSearchOptionsEv
okularpart.so:_ZN6Layers9hasLayersEb
okularpart.so:_ZN6LayersC1EP7QWidgetPN6Okular8DocumentE
okularpart.so:_ZN6LayersC2EP7QWidgetPN6Okular8DocumentE
okularpart.so:_ZN6LayersD0Ev
okularpart.so:_ZN6LayersD1Ev
okularpart.so:_ZN6LayersD2Ev
okularpart.so:_ZN6Okular4Part10cannotQuitEv
okularpart.so:_ZN6Okular4Part10doOpenFileERK9QMimeTypeRK7QStringPb
okularpart.so:_ZN6Okular4Part10queryCloseEv
okularpart.so:_ZN6Okular4Part10setupPrintER8QPrinter
okularpart.so:_ZN6Okular4Part10slotReloadEv
okularpart.so:_ZN6Okular4Part11currentPageEv
okularpart.so:_ZN6Okular4Part11eventFilterEP7QObjectP6QEvent
okularpart.so:_ZN6Okular4Part11notifySetupERK5QListIPNS_4PageEEi
okularpart.so:_ZN6Okular4Part11qt_metacallEN11QMetaObject4CallEiPPv
okularpart.so:_ZN6Okular4Part11qt_metacastEPKc
okularpart.so:_ZN6Okular4Part11setModifiedEb
okularpart.so:_ZN6Okular4Part11urlsDroppedERK5QListI4QUrlE
okularpart.so:_ZN6Okular4Part12enableLayersEb
okularpart.so:_ZN6Okular4Part12errorMessageERK7QStringi
okularpart.so:_ZN6Okular4Part12moveSplitterEi
okularpart.so:_ZN6Okular4Part12openDocumentERK4QUrlj
okularpart.so:_ZN6Okular4Part12openDocumentERK7QString
okularpart.so:_ZN6Okular4Part12setEditorCmdERK7QString
okularpart.so:_ZN6Okular4Part12setReadWriteEb
okularpart.so:_ZN6Okular4Part12setupActionsEv
okularpart.so:_ZN6Okular4Part12slotExportAsEP7QAction
okularpart.so:_ZN6Okular4Part12slotFindNextEv
okularpart.so:_ZN6Okular4Part12slotFindPrevEv
okularpart.so:_ZN6Okular4Part12slotGoToPageEv
okularpart.so:_ZN6Okular4Part12slotGotoLastEv
okularpart.so:_ZN6Okular4Part12slotNextPageEv
okularpart.so:_ZN6Okular4Part12slotShowMenuEPKNS_4PageE6QPoint
okularpart.so:_ZN6Okular4Part13finishSigningEv
okularpart.so:_ZN6Okular4Part13loadCancelledERK7QString
okularpart.so:_ZN6Okular4Part13noticeMessageERK7QStringi
okularpart.so:_ZN6Okular4Part13numberOfPartsE
okularpart.so:_ZN6Okular4Part13slotFileDirtyERK7QString
okularpart.so:_ZN6Okular4Part13slotGotoFirstEv
okularpart.so:_ZN6Okular4Part13slotNewConfigEv
okularpart.so:_ZN6Okular4Part14findMainWindowEv
okularpart.so:_ZN6Okular4Part14setFileToWatchERK7QString
okularpart.so:_ZN6Okular4Part14slotJobStartedEPN3KIO3JobE
okularpart.so:_ZN6Okular4Part14slotSaveFileAsEb
okularpart.so:_ZN6Okular4Part14unsetDummyModeEv
okularpart.so:_ZN6Okular4Part14warningMessageERK7QStringi
okularpart.so:_ZN6Okular4Part15currentDocumentEv
okularpart.so:_ZN6Okular4Part15fitWindowToPageE5QSizeS1_
okularpart.so:_ZN6Okular4Part15mimeTypeChangedERK9QMimeType
okularpart.so:_ZN6Okular4Part15slotAddBookmarkEv
okularpart.so:_ZN6Okular4Part15slotHideFindBarEv
okularpart.so:_ZN6Okular4Part15slotHistoryBackEv
okularpart.so:_ZN6Okular4Part15slotHistoryNextEv
okularpart.so:_ZN6Okular4Part15slotJobFinishedEP4KJob
okularpart.so:_ZN6Okular4Part15slotPreferencesEv
okularpart.so:_ZN6Okular4Part15slotShowFindBarEv
okularpart.so:_ZN6Okular4Part15slotShowTOCMenuERKNS_16DocumentViewportE6QPointRK7QString
okularpart.so:_ZN6Okular4Part16guiActivateEventEPN6KParts16GUIActivateEventE
okularpart.so:_ZN6Okular4Part16handleCompressedER7QStringRKS1_N18KCompressionDevice15CompressionTypeE
okularpart.so:_ZN6Okular4Part16psTransformEndedEiN8QProcess10ExitStatusE
okularpart.so:_ZN6Okular4Part16slotAboutBackendEv
okularpart.so:_ZN6Okular4Part16slotImportPSFileEv
okularpart.so:_ZN6Okular4Part16slotNextBookmarkEv
okularpart.so:_ZN6Okular4Part16slotPreviousPageEv
okularpart.so:_ZN6Okular4Part16slotPrintPreviewEv
okularpart.so:_ZN6Okular4Part16staticMetaObjectE
okularpart.so:_ZN6Okular4Part16unsetFileToWatchEv
okularpart.so:_ZN6Okular4Part17enableCloseActionEb
okularpart.so:_ZN6Okular4Part17enablePrintActionEb
okularpart.so:_ZN6Okular4Part17handleDroppedUrlsERK5QListI4QUrlE
okularpart.so:_ZN6Okular4Part17notifyPageChangedEii
okularpart.so:_ZN6Okular4Part17slotAttemptReloadEbRK4QUrl
okularpart.so:_ZN6Okular4Part17slotShowBottomBarEv
okularpart.so:_ZN6Okular4Part17slotShowLeftPanelEv
okularpart.so:_ZN6Okular4Part17startPresentationEv
okularpart.so:_ZN6Okular4Part17updateViewActionsEv
okularpart.so:_ZN6Okular4Part18displayInfoMessageERK7QStringN14KMessageWidget11MessageTypeEi
okularpart.so:_ZN6Okular4Part18setViewerShortcutsEv
okularpart.so:_ZN6Okular4Part18setupViewerActionsEv
okularpart.so:_ZN6Okular4Part18showSourceLocationERK7QStringiib
okularpart.so:_ZN6Okular4Part18slotRemoveBookmarkERKNS_16DocumentViewportE
okularpart.so:_ZN6Okular4Part18slotRenameBookmarkERKNS_16DocumentViewportE
okularpart.so:_ZN6Okular4Part18slotShowPropertiesEv
okularpart.so:_ZN6Okular4Part19enableStartWithFindERK7QString
okularpart.so:_ZN6Okular4Part19openSourceReferenceERK7QStringii
okularpart.so:_ZN6Okular4Part19openUrlFromDocumentERK4QUrl
okularpart.so:_ZN6Okular4Part19rebuildBookmarkMenuEb
okularpart.so:_ZN6Okular4Part19resetStartArgumentsEv
okularpart.so:_ZN6Okular4Part19setupConfigSkeletonERK5QListI8QVariantE
okularpart.so:_ZN6Okular4Part19slotSetChangeColorsEb
okularpart.so:_ZN6Okular4Part20enableExitAfterPrintEv
okularpart.so:_ZN6Okular4Part20enableStartWithPrintEv
okularpart.so:_ZN6Okular4Part20openUrlFromBookmarksERK4QUrl
okularpart.so:_ZN6Okular4Part20slotHidePresentationEv
okularpart.so:_ZN6Okular4Part20slotPreviousBookmarkEv
okularpart.so:_ZN6Okular4Part20slotShowPresentationEv
okularpart.so:_ZN6Okular4Part21maxRecentItemsChangedEi
okularpart.so:_ZN6Okular4Part21notifyViewportChangedEb
okularpart.so:_ZN6Okular4Part21slotShowEmbeddedFilesEv
okularpart.so:_ZN6Okular4Part21viewerMenuStateChangeEb
okularpart.so:_ZN6Okular4Part22aboutToShowContextMenuEP5QMenuP7QActionS2_
okularpart.so:_ZN6Okular4Part22slotToggleChangeColorsEv
okularpart.so:_ZN6Okular4Part22slotTogglePresentationEv
okularpart.so:_ZN6Okular4Part22updateBookmarksActionsEv
okularpart.so:_ZN6Okular4Part23setWatchFileModeEnabledEb
okularpart.so:_ZN6Okular4Part23slotRebuildBookmarkMenuEv
okularpart.so:_ZN6Okular4Part23slotShareActionFinishedERK11QJsonObjectiRK7QString
okularpart.so:_ZN6Okular4Part23slotUpdateHamburgerMenuEv
okularpart.so:_ZN6Okular4Part24slotGeneratorPreferencesEv
okularpart.so:_ZN6Okular4Part24slotOpenContainingFolderEv
okularpart.so:_ZN6Okular4Part24updateAboutBackendActionEv
okularpart.so:_ZN6Okular4Part25slotAnnotationPreferencesEv
okularpart.so:_ZN6Okular4Part26requestOpenNewlySignedFileERK7QStringi
okularpart.so:_ZN6Okular4Part26setWindowTitleFromDocumentEv
okularpart.so:_ZN6Okular4Part26slotRemoveBookmarkFromMenuEv
okularpart.so:_ZN6Okular4Part26slotRenameBookmarkFromMenuEv
okularpart.so:_ZN6Okular4Part27enableSidebarSignaturesItemEb
okularpart.so:_ZN6Okular4Part28clearLastShownSourceLocationEv
okularpart.so:_ZN6Okular4Part28slotAccessibilityPreferencesEv
okularpart.so:_ZN6Okular4Part31tryOpeningUrlWithFragmentAsNameEv
okularpart.so:_ZN6Okular4Part33setShowSourceLocationsGraphicallyEb
okularpart.so:_ZN6Okular4Part33slotRenameCurrentViewportBookmarkEv
okularpart.so:_ZN6Okular4Part34slotHandleActivatedSourceReferenceERK7QStringiiPb
okularpart.so:_ZN6Okular4Part5closeEv
okularpart.so:_ZN6Okular4Part5pagesEv
okularpart.so:_ZN6Okular4Part6reloadEv
okularpart.so:_ZN6Okular4Part6saveAsERK4QUrl
okularpart.so:_ZN6Okular4Part6saveAsERK4QUrl6QFlagsINS0_10SaveAsFlagEE
okularpart.so:_ZN6Okular4Part7doPrintER8QPrinter
okularpart.so:_ZN6Okular4Part7openUrlERK4QUrl
okularpart.so:_ZN6Okular4Part7openUrlERK4QUrlb
okularpart.so:_ZN6Okular4Part8closeUrlEb
okularpart.so:_ZN6Okular4Part8closeUrlEv
okularpart.so:_ZN6Okular4Part8goToPageEj
okularpart.so:_ZN6Okular4Part8openFileEv
okularpart.so:_ZN6Okular4Part8saveFileEv
okularpart.so:_ZN6Okular4Part8showMenuEPKNS_4PageE6QPointRK7QStringRKNS_16DocumentViewportEb
okularpart.so:_ZN6Okular4Part8slotFindEv
okularpart.so:_ZN6Okular4Part9enableTOCEb
okularpart.so:_ZN6Okular4Part9slotPrintEv
okularpart.so:_ZN6Okular4PartC1EP7QObjectRK5QListI8QVariantE
okularpart.so:_ZN6Okular4PartC2EP7QObjectRK5QListI8QVariantE
okularpart.so:_ZN6Okular4PartD0Ev
okularpart.so:_ZN6Okular4PartD1Ev
okularpart.so:_ZN6Okular4PartD2Ev
okularpart.so:_ZN6Okular8Settings10bWContrastEv
okularpart.so:_ZN6Okular8Settings10setShowOSDEb
okularpart.so:_ZN6Okular8Settings11bWThresholdEv
okularpart.so:_ZN6Okular8Settings11groupByPageEv
okularpart.so:_ZN6Okular8Settings11itemChangedEy
okularpart.so:_ZN6Okular8Settings11qt_metacallEN11QMetaObject4CallEiPPv
okularpart.so:_ZN6Okular8Settings11qt_metacastEPKc
okularpart.so:_ZN6Okular8Settings11setTrimModeEi
okularpart.so:_ZN6Okular8Settings11setTtsVoiceERK7QString
okularpart.so:_ZN6Okular8Settings11setViewModeEi
okularpart.so:_ZN6Okular8Settings11setZoomModeEj
okularpart.so:_ZN6Okular8Settings11trimMarginsEv
okularpart.so:_ZN6Okular8Settings11viewColumnsEv
okularpart.so:_ZN6Okular8Settings12drawingToolsEv
okularpart.so:_ZN6Okular8Settings12setMouseModeEi
okularpart.so:_ZN6Okular8Settings12setTtsEngineERK7QString
okularpart.so:_ZN6Okular8Settings12setWatchFileEb
okularpart.so:_ZN6Okular8Settings12slidesCursorEv
okularpart.so:_ZN6Okular8Settings12slidesScreenEv
okularpart.so:_ZN6Okular8Settings13findAsYouTypeEv
okularpart.so:_ZN6Okular8Settings13groupByAuthorEv
okularpart.so:_ZN6Okular8Settings13scrollOverlapEv
okularpart.so:_ZN6Okular8Settings13setBWContrastEj
okularpart.so:_ZN6Okular8Settings13showBottomBarEv
okularpart.so:_ZN6Okular8Settings13showLeftPanelEv
okularpart.so:_ZN6Okular8Settings13splitterSizesEv
okularpart.so:_ZN6Okular8Settings13tocPageColumnEv
okularpart.so:_ZN6Okular8Settings14highlightLinksEv
okularpart.so:_ZN6Okular8Settings14identityAuthorEv
okularpart.so:_ZN6Okular8Settings14maxRecentItemsEv
okularpart.so:_ZN6Okular8Settings14setBWThresholdEj
okularpart.so:_ZN6Okular8Settings14setGroupByPageEb
okularpart.so:_ZN6Okular8Settings14setTrimMarginsEb
okularpart.so:_ZN6Okular8Settings14setViewColumnsEj
okularpart.so:_ZN6Okular8Settings14showScrollBarsEv
okularpart.so:_ZN6Okular8Settings14viewContinuousEv
okularpart.so:_ZN6Okular8Settings15backgroundColorEv
okularpart.so:_ZN6Okular8Settings15currentPageOnlyEv
okularpart.so:_ZN6Okular8Settings15filterBookmarksEv
okularpart.so:_ZN6Okular8Settings15highlightImagesEv
okularpart.so:_ZN6Okular8Settings15setDrawingToolsERK5QListI7QStringE
okularpart.so:_ZN6Okular8Settings15setSlidesCursorEi
okularpart.so:_ZN6Okular8Settings15setSlidesScreenEi
okularpart.so:_ZN6Okular8Settings15sidebarIconSizeEv
okularpart.so:_ZN6Okular8Settings15sidebarShowTextEv
okularpart.so:_ZN6Okular8Settings15smoothScrollingEv
okularpart.so:_ZN6Okular8Settings16customZoomFactorEv
okularpart.so:_ZN6Okular8Settings16setFindAsYouTypeEb
okularpart.so:_ZN6Okular8Settings16setGroupByAuthorEb
okularpart.so:_ZN6Okular8Settings16setScrollOverlapEj
okularpart.so:_ZN6Okular8Settings16setShowBottomBarEb
okularpart.so:_ZN6Okular8Settings16setShowLeftPanelEb
okularpart.so:_ZN6Okular8Settings16setSplitterSizesERK5QListIiE
okularpart.so:_ZN6Okular8Settings16setTocPageColumnEb
okularpart.so:_ZN6Okular8Settings16slidesTransitionEv
okularpart.so:_ZN6Okular8Settings16staticMetaObjectE
okularpart.so:_ZN6Okular8Settings17enableCompositingEv
okularpart.so:_ZN6Okular8Settings17isUseTTSImmutableEv
okularpart.so:_ZN6Okular8Settings17recolorBackgroundEv
okularpart.so:_ZN6Okular8Settings17recolorForegroundEv
okularpart.so:_ZN6Okular8Settings17setHighlightLinksEb
okularpart.so:_ZN6Okular8Settings17setIdentityAuthorERK7QString
okularpart.so:_ZN6Okular8Settings17setMaxRecentItemsEi
okularpart.so:_ZN6Okular8Settings17setShowScrollBarsEb
okularpart.so:_ZN6Okular8Settings17setViewContinuousEb
okularpart.so:_ZN6Okular8Settings17slidesShowSummaryEv
okularpart.so:_ZN6Okular8Settings17switchToTabIfOpenEv
okularpart.so:_ZN6Okular8Settings18colorModesChanged2Ev
okularpart.so:_ZN6Okular8Settings18isShowOSDImmutableEv
okularpart.so:_ZN6Okular8Settings18setBackgroundColorERK6QColor
okularpart.so:_ZN6Okular8Settings18setCurrentPageOnlyEb
okularpart.so:_ZN6Okular8Settings18setFilterBookmarksEb
okularpart.so:_ZN6Okular8Settings18setHighlightImagesEb
okularpart.so:_ZN6Okular8Settings18setSidebarIconSizeEj
okularpart.so:_ZN6Okular8Settings18setSidebarShowTextEb
okularpart.so:_ZN6Okular8Settings18setSmoothScrollingEb
okularpart.so:_ZN6Okular8Settings18slidesShowProgressEv
okularpart.so:_ZN6Okular8Settings19debugDrawBoundariesEv
okularpart.so:_ZN6Okular8Settings19isTrimModeImmutableEv
okularpart.so:_ZN6Okular8Settings19isTtsVoiceImmutableEv
okularpart.so:_ZN6Okular8Settings19isViewModeImmutableEv
okularpart.so:_ZN6Okular8Settings19isZoomModeImmutableEv
okularpart.so:_ZN6Okular8Settings19rtlReadingDirectionEv
okularpart.so:_ZN6Okular8Settings19searchCaseSensitiveEv
okularpart.so:_ZN6Okular8Settings19setCustomZoomFactorEj
okularpart.so:_ZN6Okular8Settings19setSlidesTransitionEi
okularpart.so:_ZN6Okular8Settings19shellOpenFileInTabsEv
okularpart.so:_ZN6Okular8Settings20displayDocumentTitleEv
okularpart.so:_ZN6Okular8Settings20editToolBarPlacementEv
okularpart.so:_ZN6Okular8Settings20isMouseModeImmutableEv
okularpart.so:_ZN6Okular8Settings20isTtsEngineImmutableEv
okularpart.so:_ZN6Okular8Settings20isWatchFileImmutableEv
okularpart.so:_ZN6Okular8Settings20quickAnnotationToolsEv
okularpart.so:_ZN6Okular8Settings20setEnableCompositingEb
okularpart.so:_ZN6Okular8Settings20setRecolorBackgroundERK6QColor
okularpart.so:_ZN6Okular8Settings20setRecolorForegroundERK6QColor
okularpart.so:_ZN6Okular8Settings20setSlidesShowSummaryEb
okularpart.so:_ZN6Okular8Settings20setSwitchToTabIfOpenEb
okularpart.so:_ZN6Okular8Settings21dragBeyondScreenEdgesEv
okularpart.so:_ZN6Okular8Settings21isBWContrastImmutableEv
okularpart.so:_ZN6Okular8Settings21searchFromCurrentPageEv
okularpart.so:_ZN6Okular8Settings21setSlidesShowProgressEb
okularpart.so:_ZN6Okular8Settings21slidesBackgroundColorEv
okularpart.so:_ZN6Okular8Settings21viewContinuousChangedEv
okularpart.so:_ZN6Okular8Settings22builtinAnnotationToolsEv
okularpart.so:_ZN6Okular8Settings22isBWThresholdImmutableEv
okularpart.so:_ZN6Okular8Settings22isGroupByPageImmutableEv
okularpart.so:_ZN6Okular8Settings22isTrimMarginsImmutableEv
okularpart.so:_ZN6Okular8Settings22isViewColumnsImmutableEv
okularpart.so:_ZN6Okular8Settings22setDebugDrawBoundariesEb
okularpart.so:_ZN6Okular8Settings22setRtlReadingDirectionEb
okularpart.so:_ZN6Okular8Settings22setSearchCaseSensitiveEb
okularpart.so:_ZN6Okular8Settings22setShellOpenFileInTabsEb
okularpart.so:_ZN6Okular8Settings22syncThumbnailsViewportEv
okularpart.so:_ZN6Okular8Settings23debugDrawAnnotationRectEv
okularpart.so:_ZN6Okular8Settings23isDrawingToolsImmutableEv
okularpart.so:_ZN6Okular8Settings23isSlidesCursorImmutableEv
okularpart.so:_ZN6Okular8Settings23isSlidesScreenImmutableEv
okularpart.so:_ZN6Okular8Settings23setDisplayDocumentTitleEb
okularpart.so:_ZN6Okular8Settings23setEditToolBarPlacementEi
okularpart.so:_ZN6Okular8Settings23setQuickAnnotationToolsERK5QListI7QStringE
okularpart.so:_ZN6Okular8Settings24annotationContinuousModeEv
okularpart.so:_ZN6Okular8Settings24isFindAsYouTypeImmutableEv
okularpart.so:_ZN6Okular8Settings24isGroupByAuthorImmutableEv
okularpart.so:_ZN6Okular8Settings24isScrollOverlapImmutableEv
okularpart.so:_ZN6Okular8Settings24isShowBottomBarImmutableEv
okularpart.so:_ZN6Okular8Settings24isShowLeftPanelImmutableEv
okularpart.so:_ZN6Okular8Settings24isSplitterSizesImmutableEv
okularpart.so:_ZN6Okular8Settings24isTocPageColumnImmutableEv
okularpart.so:_ZN6Okular8Settings24primaryAnnotationToolBarEv
okularpart.so:_ZN6Okular8Settings24setDragBeyondScreenEdgesEb
okularpart.so:_ZN6Okular8Settings24setSearchFromCurrentPageEb
okularpart.so:_ZN6Okular8Settings24setSlidesBackgroundColorERK6QColor
okularpart.so:_ZN6Okular8Settings24useCustomBackgroundColorEv
okularpart.so:_ZN6Okular8Settings25displayDocumentNameOrPathEv
okularpart.so:_ZN6Okular8Settings25isHighlightLinksImmutableEv
okularpart.so:_ZN6Okular8Settings25isIdentityAuthorImmutableEv
okularpart.so:_ZN6Okular8Settings25isMaxRecentItemsImmutableEv
okularpart.so:_ZN6Okular8Settings25isShowScrollBarsImmutableEv
okularpart.so:_ZN6Okular8Settings25isViewContinuousImmutableEv
okularpart.so:_ZN6Okular8Settings25layersSearchCaseSensitiveEv
okularpart.so:_ZN6Okular8Settings25setBuiltinAnnotationToolsERK5QListI7QStringE
okularpart.so:_ZN6Okular8Settings25setSyncThumbnailsViewportEb
okularpart.so:_ZN6Okular8Settings26isBackgroundColorImmutableEv
okularpart.so:_ZN6Okular8Settings26isCurrentPageOnlyImmutableEv
okularpart.so:_ZN6Okular8Settings26isFilterBookmarksImmutableEv
okularpart.so:_ZN6Okular8Settings26isHighlightImagesImmutableEv
okularpart.so:_ZN6Okular8Settings26isSidebarIconSizeImmutableEv
okularpart.so:_ZN6Okular8Settings26isSidebarShowTextImmutableEv
okularpart.so:_ZN6Okular8Settings26isSmoothScrollingImmutableEv
okularpart.so:_ZN6Okular8Settings26reviewsSearchCaseSensitiveEv
okularpart.so:_ZN6Okular8Settings26setDebugDrawAnnotationRectEb
okularpart.so:_ZN6Okular8Settings27contentsSearchCaseSensitiveEv
okularpart.so:_ZN6Okular8Settings27isCustomZoomFactorImmutableEv
okularpart.so:_ZN6Okular8Settings27isSlidesTransitionImmutableEv
okularpart.so:_ZN6Okular8Settings27quickAnnotationToolsChangedEv
okularpart.so:_ZN6Okular8Settings27setAnnotationContinuousModeEb
okularpart.so:_ZN6Okular8Settings27setPrimaryAnnotationToolBarEi
okularpart.so:_ZN6Okular8Settings27setUseCustomBackgroundColorEb
okularpart.so:_ZN6Okular8Settings27showEmbeddedContentMessagesEv
okularpart.so:_ZN6Okular8Settings28isEnableCompositingImmutableEv
okularpart.so:_ZN6Okular8Settings28isRecolorBackgroundImmutableEv
okularpart.so:_ZN6Okular8Settings28isRecolorForegroundImmutableEv
okularpart.so:_ZN6Okular8Settings28isSlidesShowSummaryImmutableEv
okularpart.so:_ZN6Okular8Settings28isSwitchToTabIfOpenImmutableEv
okularpart.so:_ZN6Okular8Settings28quickAnnotationDefaultActionEv
okularpart.so:_ZN6Okular8Settings28setDisplayDocumentNameOrPathEi
okularpart.so:_ZN6Okular8Settings28setLayersSearchCaseSensitiveEb
okularpart.so:_ZN6Okular8Settings29builtinAnnotationToolsChangedEv
okularpart.so:_ZN6Okular8Settings29isSlidesShowProgressImmutableEv
okularpart.so:_ZN6Okular8Settings29layersSearchRegularExpressionEv
okularpart.so:_ZN6Okular8Settings29setReviewsSearchCaseSensitiveEb
okularpart.so:_ZN6Okular8Settings30isDebugDrawBoundariesImmutableEv
okularpart.so:_ZN6Okular8Settings30isRtlReadingDirectionImmutableEv
okularpart.so:_ZN6Okular8Settings30isSearchCaseSensitiveImmutableEv
okularpart.so:_ZN6Okular8Settings30isShellOpenFileInTabsImmutableEv
okularpart.so:_ZN6Okular8Settings30reviewsSearchRegularExpressionEv
okularpart.so:_ZN6Okular8Settings30setContentsSearchCaseSensitiveEb
okularpart.so:_ZN6Okular8Settings30setShowEmbeddedContentMessagesEb
okularpart.so:_ZN6Okular8Settings30showSourceLocationsGraphicallyEv
okularpart.so:_ZN6Okular8Settings31contentsSearchRegularExpressionEv
okularpart.so:_ZN6Okular8Settings31isDisplayDocumentTitleImmutableEv
okularpart.so:_ZN6Okular8Settings31isEditToolBarPlacementImmutableEv
okularpart.so:_ZN6Okular8Settings31isQuickAnnotationToolsImmutableEv
okularpart.so:_ZN6Okular8Settings31primaryAnnotationToolBarChangedEv
okularpart.so:_ZN6Okular8Settings31setQuickAnnotationDefaultActionEj
okularpart.so:_ZN6Okular8Settings32isDragBeyondScreenEdgesImmutableEv
okularpart.so:_ZN6Okular8Settings32isSearchFromCurrentPageImmutableEv
okularpart.so:_ZN6Okular8Settings32isSlidesBackgroundColorImmutableEv
okularpart.so:_ZN6Okular8Settings32setLayersSearchRegularExpressionEb
okularpart.so:_ZN6Okular8Settings33isBuiltinAnnotationToolsImmutableEv
okularpart.so:_ZN6Okular8Settings33isSyncThumbnailsViewportImmutableEv
okularpart.so:_ZN6Okular8Settings33setReviewsSearchRegularExpressionEb
okularpart.so:_ZN6Okular8Settings33setShowSourceLocationsGraphicallyEb
okularpart.so:_ZN6Okular8Settings34isDebugDrawAnnotationRectImmutableEv
okularpart.so:_ZN6Okular8Settings34setContentsSearchRegularExpressionEb
okularpart.so:_ZN6Okular8Settings35isAnnotationContinuousModeImmutableEv
okularpart.so:_ZN6Okular8Settings35isPrimaryAnnotationToolBarImmutableEv
okularpart.so:_ZN6Okular8Settings35isUseCustomBackgroundColorImmutableEv
okularpart.so:_ZN6Okular8Settings36isDisplayDocumentNameOrPathImmutableEv
okularpart.so:_ZN6Okular8Settings36isLayersSearchCaseSensitiveImmutableEv
okularpart.so:_ZN6Okular8Settings37isReviewsSearchCaseSensitiveImmutableEv
okularpart.so:_ZN6Okular8Settings38isContentsSearchCaseSensitiveImmutableEv
okularpart.so:_ZN6Okular8Settings38isShowEmbeddedContentMessagesImmutableEv
okularpart.so:_ZN6Okular8Settings39isQuickAnnotationDefaultActionImmutableEv
okularpart.so:_ZN6Okular8Settings40isLayersSearchRegularExpressionImmutableEv
okularpart.so:_ZN6Okular8Settings41isReviewsSearchRegularExpressionImmutableEv
okularpart.so:_ZN6Okular8Settings41isShowSourceLocationsGraphicallyImmutableEv
okularpart.so:_ZN6Okular8Settings42isContentsSearchRegularExpressionImmutableEv
okularpart.so:_ZN6Okular8Settings4selfEv
okularpart.so:_ZN6Okular8Settings6useTTSEv
okularpart.so:_ZN6Okular8Settings7showOSDEv
okularpart.so:_ZN6Okular8Settings7usrSaveEv
okularpart.so:_ZN6Okular8Settings8instanceE28QExplicitlySharedDataPointerI13KSharedConfigE
okularpart.so:_ZN6Okular8Settings8instanceERK7QString
okularpart.so:_ZN6Okular8Settings8trimModeEv
okularpart.so:_ZN6Okular8Settings8ttsVoiceEv
okularpart.so:_ZN6Okular8Settings8viewModeEv
okularpart.so:_ZN6Okular8Settings8zoomModeEv
okularpart.so:_ZN6Okular8Settings9mouseModeEv
okularpart.so:_ZN6Okular8Settings9setUseTTSEb
okularpart.so:_ZN6Okular8Settings9ttsEngineEv
okularpart.so:_ZN6Okular8Settings9watchFileEv
okularpart.so:_ZN6Okular8SettingsC1E28QExplicitlySharedDataPointerI13KSharedConfigE
okularpart.so:_ZN6Okular8SettingsC2E28QExplicitlySharedDataPointerI13KSharedConfigE
okularpart.so:_ZN6Okular8SettingsD0Ev
okularpart.so:_ZN6Okular8SettingsD1Ev
okularpart.so:_ZN6Okular8SettingsD2Ev
okularpart.so:_ZN7Sidebar11qt_metacallEN11QMetaObject4CallEiPPv
okularpart.so:_ZN7Sidebar11qt_metacastEPKc
okularpart.so:_ZN7Sidebar11urlsDroppedERK5QListI4QUrlE
okularpart.so:_ZN7Sidebar12moveSplitterEi
okularpart.so:_ZN7Sidebar13setMainWidgetEP7QWidget
okularpart.so:_ZN7Sidebar13splitterMovedEii
okularpart.so:_ZN7Sidebar14dragEnterEventEP15QDragEnterEvent
okularpart.so:_ZN7Sidebar14setCurrentItemEP7QWidget
okularpart.so:_ZN7Sidebar15setBottomWidgetEP7QWidget
okularpart.so:_ZN7Sidebar16staticMetaObjectE
okularpart.so:_ZN7Sidebar20setSidebarVisibilityEb
okularpart.so:_ZN7Sidebar7addItemEP7QWidgetRK5QIconRK7QString
okularpart.so:_ZN7Sidebar9dropEventEP10QDropEvent
okularpart.so:_ZN7SidebarC1EP7QWidget
okularpart.so:_ZN7SidebarC2EP7QWidget
okularpart.so:_ZN7SidebarD0Ev
okularpart.so:_ZN7SidebarD1Ev
okularpart.so:_ZN7SidebarD2Ev
okularpart.so:_ZNK3TOC10metaObjectEv
okularpart.so:_ZNK3TOC13expandedNodesERK11QModelIndex
okularpart.so:_ZNK6Layers10metaObjectEv
okularpart.so:_ZNK6Okular4Part10metaObjectEv
okularpart.so:_ZNK6Okular4Part16annotationsModelEv
okularpart.so:_ZNK6Okular4Part16documentMetaDataERK7QString
okularpart.so:_ZNK6Okular4Part16getSideContainerEv
okularpart.so:_ZNK6Okular4Part18openNewFilesInTabsEv
okularpart.so:_ZNK6Okular4Part18supportedMimeTypesEv
okularpart.so:_ZNK6Okular4Part22isWatchFileModeEnabledEv
okularpart.so:_ZNK6Okular4Part23checkNativeSaveDataLossEPbS1_
okularpart.so:_ZNK6Okular4Part28activateTabIfAlreadyOpenFileEv
okularpart.so:_ZNK6Okular4Part34areSourceLocationsShownGraphicallyEv
okularpart.so:_ZNK6Okular4Part7realUrlEv
okularpart.so:_ZNK6Okular8Settings10metaObjectEv
okularpart.so:_ZNK7Sidebar10metaObjectEv
okularpart.so:_ZNK7Sidebar11currentItemEv
okularpart.so:_ZNK7Sidebar16getSideContainerEv
okularpart.so:_ZNK7Sidebar16isSidebarVisibleEv
okularpart.so:_ZNK7Sidebar16saveSplitterSizeEv
okularpart.so:_ZTCN6Okular4PartE0_N6KParts12ReadOnlyPartE
okularpart.so:_ZTCN6Okular4PartE0_N6KParts13ReadWritePartE
okularpart.so:_ZTCN6Okular4PartE0_N6KParts4PartE
okularpart.so:_ZTCN6Okular4PartE16_N6KParts8PartBaseE
okularpart.so:_ZTI3TOC
okularpart.so:_ZTI6Layers
okularpart.so:_ZTI7Sidebar
okularpart.so:_ZTIN6Okular4PartE
okularpart.so:_ZTIN6Okular8SettingsE
okularpart.so:_ZTS3TOC
okularpart.so:_ZTS6Layers
okularpart.so:_ZTS7Sidebar
okularpart.so:_ZTSN6Okular4PartE
okularpart.so:_ZTSN6Okular8SettingsE
okularpart.so:_ZTTN6Okular4PartE
okularpart.so:_ZTV3TOC
okularpart.so:_ZTV6Layers
okularpart.so:_ZTV7Sidebar
okularpart.so:_ZTVN6Okular4PartE
okularpart.so:_ZTVN6Okular8SettingsE
okularpart.so:_ZThn16_N3TOCD0Ev
okularpart.so:_ZThn16_N3TOCD1Ev
okularpart.so:_ZThn16_N6LayersD0Ev
okularpart.so:_ZThn16_N6LayersD1Ev
okularpart.so:_ZThn16_N6Okular4PartD0Ev
okularpart.so:_ZThn16_N6Okular4PartD1Ev
okularpart.so:_ZThn16_N7SidebarD0Ev
okularpart.so:_ZThn16_N7SidebarD1Ev
okularpart.so:_ZThn32_N6Okular4Part11notifySetupERK5QListIPNS_4PageEEi
okularpart.so:_ZThn32_N6Okular4Part17notifyPageChangedEii
okularpart.so:_ZThn32_N6Okular4Part21notifyViewportChangedEb
okularpart.so:_ZThn32_N6Okular4PartD0Ev
okularpart.so:_ZThn32_N6Okular4PartD1Ev
okularpart.so:_ZThn40_N3TOC11notifySetupERK5QListIPN6Okular4PageEEi
okularpart.so:_ZThn40_N3TOC24notifyCurrentPageChangedEii
okularpart.so:_ZThn40_N3TOCD0Ev
okularpart.so:_ZThn40_N3TOCD1Ev
okularpart.so:_ZThn40_N6Layers11notifySetupERK5QListIPN6Okular4PageEEi
okularpart.so:_ZThn40_N6LayersD0Ev
okularpart.so:_ZThn40_N6LayersD1Ev
okularpart.so:_ZThn48_N6Okular4Part12openDocumentERK4QUrlj
okularpart.so:_ZThn48_N6Okular4Part17startPresentationEv
okularpart.so:_ZThn48_N6Okular4Part8goToPageEj
okularpart.so:_ZThn48_N6Okular4PartD0Ev
okularpart.so:_ZThn48_N6Okular4PartD1Ev
okularpart.so:_ZThn48_NK6Okular4Part18supportedMimeTypesEv
okularpart.so:_ZThn56_N6Okular4Part18showSourceLocationERK7QStringiib
okularpart.so:_ZThn56_N6Okular4Part23setWatchFileModeEnabledEb
okularpart.so:_ZThn56_N6Okular4Part28clearLastShownSourceLocationEv
okularpart.so:_ZThn56_N6Okular4Part33setShowSourceLocationsGraphicallyEb
okularpart.so:_ZThn56_N6Okular4PartD0Ev
okularpart.so:_ZThn56_N6Okular4PartD1Ev
okularpart.so:_ZThn56_NK6Okular4Part16getSideContainerEv
okularpart.so:_ZThn56_NK6Okular4Part18openNewFilesInTabsEv
okularpart.so:_ZThn56_NK6Okular4Part22isWatchFileModeEnabledEv
okularpart.so:_ZThn56_NK6Okular4Part34areSourceLocationsShownGraphicallyEv
okularpart.so:_ZTv0_n24_N6Okular4PartD0Ev
okularpart.so:_ZTv0_n24_N6Okular4PartD1Ev
okularpart.so:qt_plugin_instance
okularpart.so:qt_plugin_query_metadata_v2
