ld-linux-x86-64.so.2:__tls_get_addr
libKExiv2Qt6.so.0:_ZN11KExiv2Iface6KExiv2C1Ev
libKExiv2Qt6.so.0:_ZN11KExiv2Iface6KExiv2D1Ev
libKExiv2Qt6.so.0:_ZNK11KExiv2Iface6KExiv212loadFromDataERK10QByteArray
libKExiv2Qt6.so.0:_ZNK11KExiv2Iface6KExiv216rotateExifQImageER6QImageNS0_16ImageOrientationE
libKExiv2Qt6.so.0:_ZNK11KExiv2Iface6KExiv219getImageOrientationEv
libKF6Archive.so.6:_ZN18KCompressionDevice24filterForCompressionTypeENS_15CompressionTypeE
libKF6Archive.so.6:_ZN18KCompressionDevice4openE6QFlagsIN13QIODeviceBase12OpenModeFlagEE
libKF6Archive.so.6:_ZN18KCompressionDeviceC1ERK7QStringNS_15CompressionTypeE
libKF6Archive.so.6:_ZN18KCompressionDeviceD1Ev
libKF6Archive.so.6:_ZN4KTarC1ERK7QStringS2_
libKF6Archive.so.6:_ZN4KZipC1ERK7QString
libKF6Archive.so.6:_ZN4KZipD1Ev
libKF6Archive.so.6:_ZN5K7ZipC1ERK7QString
libKF6Archive.so.6:_ZN8KArchive12addLocalFileERK7QStringS2_
libKF6Archive.so.6:_ZN8KArchive4openE6QFlagsIN13QIODeviceBase12OpenModeFlagEE
libKF6Archive.so.6:_ZN8KArchive5closeEv
libKF6Archive.so.6:_ZN8KArchive9writeFileERK7QString14QByteArrayViewjS2_S2_RK9QDateTimeS6_S6_
libKF6Archive.so.6:_ZNK13KZipFileEntry4pathEv
libKF6Archive.so.6:_ZNK17KArchiveDirectory5entryERK7QString
libKF6Archive.so.6:_ZNK17KArchiveDirectory7entriesEv
libKF6Archive.so.6:_ZNK8KArchive8fileNameEv
libKF6Archive.so.6:_ZNK8KArchive9directoryEv
libKF6Bookmarks.so.6:_ZN14KBookmarkGroup11addBookmarkERK7QStringRK4QUrlS2_
libKF6Bookmarks.so.6:_ZN14KBookmarkGroup14deleteBookmarkERK9KBookmark
libKF6Bookmarks.so.6:_ZN14KBookmarkGroup15createNewFolderERK7QString
libKF6Bookmarks.so.6:_ZN14KBookmarkGroupC1Ev
libKF6Bookmarks.so.6:_ZN14KBookmarkOwner12openInNewTabERK9KBookmark
libKF6Bookmarks.so.6:_ZN14KBookmarkOwner15openInNewWindowERK9KBookmark
libKF6Bookmarks.so.6:_ZN14KBookmarkOwner16openFolderinTabsERK14KBookmarkGroup
libKF6Bookmarks.so.6:_ZN14KBookmarkOwnerC2Ev
libKF6Bookmarks.so.6:_ZN14KBookmarkOwnerD2Ev
libKF6Bookmarks.so.6:_ZN15KBookmarkAction11qt_metacallEN11QMetaObject4CallEiPPv
libKF6Bookmarks.so.6:_ZN15KBookmarkAction11qt_metacastEPKc
libKF6Bookmarks.so.6:_ZN15KBookmarkAction16staticMetaObjectE
libKF6Bookmarks.so.6:_ZN15KBookmarkActionC2ERK9KBookmarkP14KBookmarkOwnerP7QObject
libKF6Bookmarks.so.6:_ZN15KBookmarkActionD2Ev
libKF6Bookmarks.so.6:_ZN16KBookmarkManager11emitChangedERK14KBookmarkGroup
libKF6Bookmarks.so.6:_ZN16KBookmarkManager11emitChangedEv
libKF6Bookmarks.so.6:_ZN16KBookmarkManager13findByAddressERK7QString
libKF6Bookmarks.so.6:_ZN16KBookmarkManager16staticMetaObjectE
libKF6Bookmarks.so.6:_ZN16KBookmarkManager7changedERK7QString
libKF6Bookmarks.so.6:_ZN16KBookmarkManagerC1ERK7QStringP7QObject
libKF6Bookmarks.so.6:_ZN16KBookmarkManagerD1Ev
libKF6Bookmarks.so.6:_ZN9KBookmark11setFullTextERK7QString
libKF6Bookmarks.so.6:_ZN9KBookmark4ListC1Ev
libKF6Bookmarks.so.6:_ZN9KBookmark6setUrlERK4QUrl
libKF6Bookmarks.so.6:_ZN9KBookmarkC1Ev
libKF6Bookmarks.so.6:_ZNK14KBookmarkGroup4nextERK9KBookmark
libKF6Bookmarks.so.6:_ZNK14KBookmarkGroup5firstEv
libKF6Bookmarks.so.6:_ZNK16KBookmarkManager4rootEv
libKF6Bookmarks.so.6:_ZNK9KBookmark11isSeparatorEv
libKF6Bookmarks.so.6:_ZNK9KBookmark11parentGroupEv
libKF6Bookmarks.so.6:_ZNK9KBookmark3urlEv
libKF6Bookmarks.so.6:_ZNK9KBookmark6isNullEv
libKF6Bookmarks.so.6:_ZNK9KBookmark7addressEv
libKF6Bookmarks.so.6:_ZNK9KBookmark7isGroupEv
libKF6Bookmarks.so.6:_ZNK9KBookmark7toGroupEv
libKF6Bookmarks.so.6:_ZNK9KBookmark8fullTextEv
libKF6Bookmarks.so.6:_ZNK9KBookmarkeqERKS_
libKF6Bookmarks.so.6:_ZTI14KBookmarkOwner
libKF6Bookmarks.so.6:_ZTI15KBookmarkAction
libKF6ColorScheme.so.6:_ZN12KColorSchemeC1EN8QPalette10ColorGroupENS_8ColorSetE28QExplicitlySharedDataPointerI13KSharedConfigE
libKF6ColorScheme.so.6:_ZN12KColorSchemeD1Ev
libKF6ColorScheme.so.6:_ZN19KColorSchemeManagerC1EP7QObject
libKF6ColorScheme.so.6:_ZNK12KColorScheme10backgroundENS_14BackgroundRoleE
libKF6ColorScheme.so.6:_ZNK12KColorScheme10foregroundENS_14ForegroundRoleE
libKF6Completion.so.6:_ZN11KCompletion7addItemERK7QString
libKF6Completion.so.6:_ZN15KCompletionBase12virtual_hookEiPv
libKF6Completion.so.6:_ZN15KCompletionBase16completionObjectEb
libKF6Completion.so.6:_ZN15KCompletionBase16setHandleSignalsEb
libKF6Completion.so.6:_ZN9KComboBox16staticMetaObjectE
libKF6Completion.so.6:_ZN9KComboBoxC1EP7QWidget
libKF6Completion.so.6:_ZN9KComboBoxC1EbP7QWidget
libKF6Completion.so.6:_ZN9KLineEdit10paintEventEP11QPaintEvent
libKF6Completion.so.6:_ZN9KLineEdit11qt_metacallEN11QMetaObject4CallEiPPv
libKF6Completion.so.6:_ZN9KLineEdit11qt_metacastEPKc
libKF6Completion.so.6:_ZN9KLineEdit11resizeEventEP12QResizeEvent
libKF6Completion.so.6:_ZN9KLineEdit11setReadOnlyEb
libKF6Completion.so.6:_ZN9KLineEdit13completionBoxEb
libKF6Completion.so.6:_ZN9KLineEdit13keyPressEventEP9QKeyEvent
libKF6Completion.so.6:_ZN9KLineEdit14makeCompletionERK7QString
libKF6Completion.so.6:_ZN9KLineEdit15mousePressEventEP11QMouseEvent
libKF6Completion.so.6:_ZN9KLineEdit16contextMenuEventEP17QContextMenuEvent
libKF6Completion.so.6:_ZN9KLineEdit16returnKeyPressedERK7QString
libKF6Completion.so.6:_ZN9KLineEdit16setCompletedTextERK7QString
libKF6Completion.so.6:_ZN9KLineEdit16setCompletedTextERK7QStringb
libKF6Completion.so.6:_ZN9KLineEdit16staticMetaObjectE
libKF6Completion.so.6:_ZN9KLineEdit17mouseReleaseEventEP11QMouseEvent
libKF6Completion.so.6:_ZN9KLineEdit17setCompletedItemsERK5QListI7QStringEb
libKF6Completion.so.6:_ZN9KLineEdit17setCompletionModeEN11KCompletion14CompletionModeE
libKF6Completion.so.6:_ZN9KLineEdit19setCompletionObjectEP11KCompletionb
libKF6Completion.so.6:_ZN9KLineEdit21mouseDoubleClickEventEP11QMouseEvent
libKF6Completion.so.6:_ZN9KLineEdit25createStandardContextMenuEv
libKF6Completion.so.6:_ZN9KLineEdit5eventEP6QEvent
libKF6Completion.so.6:_ZN9KLineEdit7setTextERK7QString
libKF6Completion.so.6:_ZN9KLineEditC1EP7QWidget
libKF6Completion.so.6:_ZN9KLineEditC1ERK7QStringP7QWidget
libKF6Completion.so.6:_ZN9KLineEditC2EP7QWidget
libKF6Completion.so.6:_ZN9KLineEditD2Ev
libKF6Completion.so.6:_ZNK9KLineEdit4copyEv
libKF6Completion.so.6:_ZTI9KLineEdit
libKF6Completion.so.6:_ZThn40_N9KLineEdit16setCompletedTextERK7QString
libKF6Completion.so.6:_ZThn40_N9KLineEdit17setCompletedItemsERK5QListI7QStringEb
libKF6Completion.so.6:_ZThn40_N9KLineEdit17setCompletionModeEN11KCompletion14CompletionModeE
libKF6Completion.so.6:_ZThn40_N9KLineEdit19setCompletionObjectEP11KCompletionb
libKF6ConfigCore.so.6:_ZN11KAuthorized9authorizeERK7QString
libKF6ConfigCore.so.6:_ZN11KConfigBase5groupERK7QString
libKF6ConfigCore.so.6:_ZN12KConfigGroup10writeEntryEPKcRK8QVariant6QFlagsIN11KConfigBase15WriteConfigFlagEE
libKF6ConfigCore.so.6:_ZN12KConfigGroup10writeEntryEPKcS1_6QFlagsIN11KConfigBase15WriteConfigFlagEE
libKF6ConfigCore.so.6:_ZN12KConfigGroup10writeEntryERK7QStringRK5QListIS0_E6QFlagsIN11KConfigBase15WriteConfigFlagEE
libKF6ConfigCore.so.6:_ZN12KConfigGroup10writeEntryERK7QStringS2_6QFlagsIN11KConfigBase15WriteConfigFlagEE
libKF6ConfigCore.so.6:_ZN12KConfigGroup11deleteEntryEPKc6QFlagsIN11KConfigBase15WriteConfigFlagEE
libKF6ConfigCore.so.6:_ZN12KConfigGroup14writePathEntryEPKcRK5QListI7QStringE6QFlagsIN11KConfigBase15WriteConfigFlagEE
libKF6ConfigCore.so.6:_ZN12KConfigGroupC1ERK28QExplicitlySharedDataPointerI13KSharedConfigERK7QString
libKF6ConfigCore.so.6:_ZN12KConfigGroupD1Ev
libKF6ConfigCore.so.6:_ZN13KSharedConfig10openConfigERK7QString6QFlagsIN7KConfig8OpenFlagEEN14QStandardPaths16StandardLocationE
libKF6ConfigCore.so.6:_ZN14KConfigWatcher13configChangedERK12KConfigGroupRK5QListI10QByteArrayE
libKF6ConfigCore.so.6:_ZN14KConfigWatcher16staticMetaObjectE
libKF6ConfigCore.so.6:_ZN14KConfigWatcher6createERK28QExplicitlySharedDataPointerI13KSharedConfigE
libKF6ConfigCore.so.6:_ZN19KCoreConfigSkeleton10ItemStringC1ERK7QStringS3_RS1_S3_NS0_4TypeE
libKF6ConfigCore.so.6:_ZN19KCoreConfigSkeleton11ItemIntListC1ERK7QStringS3_R5QListIiERKS5_
libKF6ConfigCore.so.6:_ZN19KCoreConfigSkeleton11addItemBoolERK7QStringRbbS2_
libKF6ConfigCore.so.6:_ZN19KCoreConfigSkeleton11setDefaultsEv
libKF6ConfigCore.so.6:_ZN19KCoreConfigSkeleton11useDefaultsEb
libKF6ConfigCore.so.6:_ZN19KCoreConfigSkeleton13configChangedEv
libKF6ConfigCore.so.6:_ZN19KCoreConfigSkeleton14ItemStringListC1ERK7QStringS3_R5QListIS1_ERKS5_
libKF6ConfigCore.so.6:_ZN19KCoreConfigSkeleton14usrSetDefaultsEv
libKF6ConfigCore.so.6:_ZN19KCoreConfigSkeleton14usrUseDefaultsEb
libKF6ConfigCore.so.6:_ZN19KCoreConfigSkeleton15setCurrentGroupERK7QString
libKF6ConfigCore.so.6:_ZN19KCoreConfigSkeleton16staticMetaObjectE
libKF6ConfigCore.so.6:_ZN19KCoreConfigSkeleton4loadEv
libKF6ConfigCore.so.6:_ZN19KCoreConfigSkeleton4readEv
libKF6ConfigCore.so.6:_ZN19KCoreConfigSkeleton4saveEv
libKF6ConfigCore.so.6:_ZN19KCoreConfigSkeleton7ItemInt11setMaxValueEi
libKF6ConfigCore.so.6:_ZN19KCoreConfigSkeleton7ItemInt11setMinValueEi
libKF6ConfigCore.so.6:_ZN19KCoreConfigSkeleton7ItemIntC1ERK7QStringS3_Rii
libKF6ConfigCore.so.6:_ZN19KCoreConfigSkeleton7addItemEP19KConfigSkeletonItemRK7QString
libKF6ConfigCore.so.6:_ZN19KCoreConfigSkeleton7usrReadEv
libKF6ConfigCore.so.6:_ZN19KCoreConfigSkeleton7usrSaveEv
libKF6ConfigCore.so.6:_ZN19KCoreConfigSkeleton8ItemBoolC1ERK7QStringS3_Rbb
libKF6ConfigCore.so.6:_ZN19KCoreConfigSkeleton8ItemEnumC1ERK7QStringS3_RiRK5QListINS0_6ChoiceEEi
libKF6ConfigCore.so.6:_ZN19KCoreConfigSkeleton8ItemUInt11setMaxValueEj
libKF6ConfigCore.so.6:_ZN19KCoreConfigSkeleton8ItemUInt11setMinValueEj
libKF6ConfigCore.so.6:_ZN19KCoreConfigSkeleton8ItemUIntC1ERK7QStringS3_Rjj
libKF6ConfigCore.so.6:_ZN19KCoreConfigSkeletonD2Ev
libKF6ConfigCore.so.6:_ZN29KConfigCompilerSignallingItemC1EP19KConfigSkeletonItemP7QObjectMS2_FvyEy
libKF6ConfigCore.so.6:_ZNK12KConfigGroup13readPathEntryEPKcRK5QListI7QStringE
libKF6ConfigCore.so.6:_ZNK12KConfigGroup13readPathEntryERK7QStringS2_
libKF6ConfigCore.so.6:_ZNK12KConfigGroup4nameEv
libKF6ConfigCore.so.6:_ZNK12KConfigGroup9readEntryEPKcRK5QListI7QStringE
libKF6ConfigCore.so.6:_ZNK12KConfigGroup9readEntryEPKcRK7QString
libKF6ConfigCore.so.6:_ZNK12KConfigGroup9readEntryEPKcRK8QVariant
libKF6ConfigCore.so.6:_ZNK12KConfigGroup9readEntryERK7QStringS2_
libKF6ConfigCore.so.6:_ZNK19KCoreConfigSkeleton11isImmutableERK7QString
libKF6ConfigCore.so.6:_ZNK19KCoreConfigSkeleton12currentGroupEv
libKF6ConfigGui.so.6:_ZN13KWindowConfig14saveWindowSizeEPK7QWindowR12KConfigGroup6QFlagsIN11KConfigBase15WriteConfigFlagEE
libKF6ConfigGui.so.6:_ZN13KWindowConfig17restoreWindowSizeEP7QWindowRK12KConfigGroup
libKF6ConfigGui.so.6:_ZN15KConfigSkeleton11addItemFontERK7QStringR5QFontRKS3_S2_
libKF6ConfigGui.so.6:_ZN15KConfigSkeleton11qt_metacallEN11QMetaObject4CallEiPPv
libKF6ConfigGui.so.6:_ZN15KConfigSkeleton11qt_metacastEPKc
libKF6ConfigGui.so.6:_ZN15KConfigSkeleton16staticMetaObjectE
libKF6ConfigGui.so.6:_ZN15KConfigSkeleton9ItemColorC1ERK7QStringS3_R6QColorRKS4_
libKF6ConfigGui.so.6:_ZN15KConfigSkeletonC2E28QExplicitlySharedDataPointerI13KSharedConfigEP7QObject
libKF6ConfigGui.so.6:_ZN15KConfigSkeletonC2ERK7QStringP7QObject
libKF6ConfigGui.so.6:_ZN17KStandardShortcut6reloadEv
libKF6ConfigGui.so.6:_ZN17KStandardShortcut6zoomInEv
libKF6ConfigGui.so.6:_ZN17KStandardShortcut7tabNextEv
libKF6ConfigGui.so.6:_ZN17KStandardShortcut7tabPrevEv
libKF6ConfigGui.so.6:_ZN17KStandardShortcut7zoomOutEv
libKF6ConfigGui.so.6:_ZN17KStandardShortcut8gotoLineEv
libKF6ConfigGui.so.6:_ZNK15KConfigSkeleton10metaObjectEv
libKF6ConfigGui.so.6:_ZTI15KConfigSkeleton
libKF6ConfigWidgets.so.6:_ZN13KConfigDialog10hasChangedEv
libKF6ConfigWidgets.so.6:_ZN13KConfigDialog11qt_metacallEN11QMetaObject4CallEiPPv
libKF6ConfigWidgets.so.6:_ZN13KConfigDialog11qt_metacastEPKc
libKF6ConfigWidgets.so.6:_ZN13KConfigDialog13updateWidgetsEv
libKF6ConfigWidgets.so.6:_ZN13KConfigDialog14updateSettingsEv
libKF6ConfigWidgets.so.6:_ZN13KConfigDialog15settingsChangedERK7QString
libKF6ConfigWidgets.so.6:_ZN13KConfigDialog16staticMetaObjectE
libKF6ConfigWidgets.so.6:_ZN13KConfigDialog20updateWidgetsDefaultEv
libKF6ConfigWidgets.so.6:_ZN13KConfigDialog7addPageEP7QWidgetP19KCoreConfigSkeletonRK7QStringS6_S6_
libKF6ConfigWidgets.so.6:_ZN13KConfigDialog7addPageEP7QWidgetRK7QStringS4_S4_b
libKF6ConfigWidgets.so.6:_ZN13KConfigDialog7setHelpERK7QStringS2_
libKF6ConfigWidgets.so.6:_ZN13KConfigDialog8showHelpEv
libKF6ConfigWidgets.so.6:_ZN13KConfigDialog9isDefaultEv
libKF6ConfigWidgets.so.6:_ZN13KConfigDialog9showEventEP10QShowEvent
libKF6ConfigWidgets.so.6:_ZN13KConfigDialogC2EP7QWidgetRK7QStringP19KCoreConfigSkeleton
libKF6ConfigWidgets.so.6:_ZN13KConfigDialogD2Ev
libKF6ConfigWidgets.so.6:_ZN13KStyleManager9initStyleEv
libKF6ConfigWidgets.so.6:_ZN14KHamburgerMenu10setMenuBarEP8QMenuBar
libKF6ConfigWidgets.so.6:_ZN14KHamburgerMenu13hideActionsOfEP7QWidget
libKF6ConfigWidgets.so.6:_ZN14KHamburgerMenu15aboutToShowMenuEv
libKF6ConfigWidgets.so.6:_ZN14KHamburgerMenu16staticMetaObjectE
libKF6ConfigWidgets.so.6:_ZN14KHamburgerMenu20setShowMenuBarActionEP7QAction
libKF6ConfigWidgets.so.6:_ZN14KHamburgerMenu9addToMenuEP5QMenu
libKF6ConfigWidgets.so.6:_ZN15KStandardAction10fullScreenEPK7QObjectPKcP7QWidgetPS0_
libKF6ConfigWidgets.so.6:_ZN15KStandardAction10openRecentEPK7QObjectPKcPS0_
libKF6ConfigWidgets.so.6:_ZN15KStandardAction11addBookmarkEPK7QObjectPKcPS0_
libKF6ConfigWidgets.so.6:_ZN15KStandardAction11preferencesEPK7QObjectPKcPS0_
libKF6ConfigWidgets.so.6:_ZN15KStandardAction11showMenubarEPK7QObjectPKcPS0_
libKF6ConfigWidgets.so.6:_ZN15KStandardAction12documentBackEPK7QObjectPKcPS0_
libKF6ConfigWidgets.so.6:_ZN15KStandardAction12printPreviewEPK7QObjectPKcPS0_
libKF6ConfigWidgets.so.6:_ZN15KStandardAction13hamburgerMenuEPK7QObjectPKcPS0_
libKF6ConfigWidgets.so.6:_ZN15KStandardAction15documentForwardEPK7QObjectPKcPS0_
libKF6ConfigWidgets.so.6:_ZN15KStandardAction17_k_createInternalENS_14StandardActionEP7QObject
libKF6ConfigWidgets.so.6:_ZN15KStandardAction4findEPK7QObjectPKcPS0_
libKF6ConfigWidgets.so.6:_ZN15KStandardAction4nameENS_14StandardActionE
libKF6ConfigWidgets.so.6:_ZN15KStandardAction4nextEPK7QObjectPKcPS0_
libKF6ConfigWidgets.so.6:_ZN15KStandardAction4openEPK7QObjectPKcPS0_
libKF6ConfigWidgets.so.6:_ZN15KStandardAction4quitEPK7QObjectPKcPS0_
libKF6ConfigWidgets.so.6:_ZN15KStandardAction5closeEPK7QObjectPKcPS0_
libKF6ConfigWidgets.so.6:_ZN15KStandardAction5printEPK7QObjectPKcPS0_
libKF6ConfigWidgets.so.6:_ZN15KStandardAction5priorEPK7QObjectPKcPS0_
libKF6ConfigWidgets.so.6:_ZN15KStandardAction6createENS_14StandardActionEPK7QObjectPKcPS1_
libKF6ConfigWidgets.so.6:_ZN15KStandardAction6saveAsEPK7QObjectPKcPS0_
libKF6ConfigWidgets.so.6:_ZN15KStandardAction6zoomInEPK7QObjectPKcPS0_
libKF6ConfigWidgets.so.6:_ZN15KStandardAction7zoomOutEPK7QObjectPKcPS0_
libKF6ConfigWidgets.so.6:_ZN15KStandardAction8findNextEPK7QObjectPKcPS0_
libKF6ConfigWidgets.so.6:_ZN15KStandardAction8findPrevEPK7QObjectPKcPS0_
libKF6ConfigWidgets.so.6:_ZN15KStandardAction8gotoPageEPK7QObjectPKcPS0_
libKF6ConfigWidgets.so.6:_ZN15KStandardAction8lastPageEPK7QObjectPKcPS0_
libKF6ConfigWidgets.so.6:_ZN15KStandardAction9firstPageEPK7QObjectPKcPS0_
libKF6ConfigWidgets.so.6:_ZN15KStandardAction9selectAllEPK7QObjectPKcPS0_
libKF6ConfigWidgets.so.6:_ZN16KColorSchemeMenu10createMenuEP19KColorSchemeManagerP7QObject
libKF6ConfigWidgets.so.6:_ZN18KRecentFilesAction11loadEntriesERK12KConfigGroup
libKF6ConfigWidgets.so.6:_ZN18KRecentFilesAction11saveEntriesERK12KConfigGroup
libKF6ConfigWidgets.so.6:_ZN18KRecentFilesAction11setMaxItemsEi
libKF6ConfigWidgets.so.6:_ZN18KRecentFilesAction16staticMetaObjectE
libKF6ConfigWidgets.so.6:_ZN18KRecentFilesAction17recentListClearedEv
libKF6ConfigWidgets.so.6:_ZN18KRecentFilesAction6addUrlERK4QUrlRK7QString
libKF6ConfigWidgets.so.6:_ZN18KRecentFilesAction9removeUrlERK4QUrl
libKF6ConfigWidgets.so.6:_ZNK14KHamburgerMenu7menuBarEv
libKF6ConfigWidgets.so.6:_ZNK18KRecentFilesAction8maxItemsEv
libKF6ConfigWidgets.so.6:_ZTI13KConfigDialog
libKF6CoreAddons.so.6:_ZN10KAboutData16setupCommandLineEP18QCommandLineParser
libKF6CoreAddons.so.6:_ZN10KAboutData18processCommandLineEP18QCommandLineParser
libKF6CoreAddons.so.6:_ZN10KAboutData18setApplicationDataERKS_
libKF6CoreAddons.so.6:_ZN10KAboutData9addAuthorERK7QStringS2_S2_S2_RK4QUrl
libKF6CoreAddons.so.6:_ZN10KAboutData9addCreditERK7QStringS2_S2_S2_RK4QUrl
libKF6CoreAddons.so.6:_ZN10KAboutDataC1ERK7QStringS2_S2_S2_N13KAboutLicense10LicenseKeyES2_S2_S2_S2_
libKF6CoreAddons.so.6:_ZN10KAboutDataD1Ev
libKF6CoreAddons.so.6:_ZN10KUserGroupC1E8KGroupId
libKF6CoreAddons.so.6:_ZN10KUserGroupD1Ev
libKF6CoreAddons.so.6:_ZN12KUrlMimeData16urlsFromMimeDataEPK9QMimeData6QFlagsINS_12DecodeOptionEEP4QMapI7QStringS7_E
libKF6CoreAddons.so.6:_ZN14KMacroExpander22expandMacrosShellQuoteERK7QStringRK5QHashI5QCharS0_ES4_
libKF6CoreAddons.so.6:_ZN14KPluginFactory11loadFactoryERK15KPluginMetaData
libKF6CoreAddons.so.6:_ZN14KPluginFactory11qt_metacallEN11QMetaObject4CallEiPPv
libKF6CoreAddons.so.6:_ZN14KPluginFactory11qt_metacastEPKc
libKF6CoreAddons.so.6:_ZN14KPluginFactory14registerPluginEPK11QMetaObjectPFP7QObjectP7QWidgetS4_RK15KPluginMetaDataRK5QListI8QVariantEE
libKF6CoreAddons.so.6:_ZN14KPluginFactory16staticMetaObjectE
libKF6CoreAddons.so.6:_ZN14KPluginFactory29logFailedInstantiationMessageEPKc15KPluginMetaData
libKF6CoreAddons.so.6:_ZN14KPluginFactory6createEPKcP7QWidgetP7QObjectRK5QListI8QVariantE
libKF6CoreAddons.so.6:_ZN14KPluginFactoryC2Ev
libKF6CoreAddons.so.6:_ZN14KPluginFactoryD2Ev
libKF6CoreAddons.so.6:_ZN14KStringHandler8rsqueezeERK7QStringi
libKF6CoreAddons.so.6:_ZN15KPluginMetaData11findPluginsERK7QStringSt8functionIFbRKS_EE6QFlagsINS_21KPluginMetaDataOptionEE
libKF6CoreAddons.so.6:_ZN15KPluginMetaDataC1ERK11QJsonObjectRK7QString
libKF6CoreAddons.so.6:_ZN15KPluginMetaDataC1ERK7QString6QFlagsINS_21KPluginMetaDataOptionEE
libKF6CoreAddons.so.6:_ZN15KPluginMetaDataC1ERKS_
libKF6CoreAddons.so.6:_ZN15KPluginMetaDataC1Ev
libKF6CoreAddons.so.6:_ZN15KPluginMetaDataD1Ev
libKF6CoreAddons.so.6:_ZN15KPluginMetaDataaSERKS_
libKF6CoreAddons.so.6:_ZN4KJob13setUiDelegateEP14KJobUiDelegate
libKF6CoreAddons.so.6:_ZN4KJob16staticMetaObjectE
libKF6CoreAddons.so.6:_ZN4KJob4execEv
libKF6CoreAddons.so.6:_ZN4KJob6resultEPS_NS_14QPrivateSignalE
libKF6CoreAddons.so.6:_ZN5KUserC1ENS_7UIDModeE
libKF6CoreAddons.so.6:_ZN5KUserD1Ev
libKF6CoreAddons.so.6:_ZN6KShell9splitArgsERK7QString6QFlagsINS_6OptionEEPNS_6ErrorsE
libKF6CoreAddons.so.6:_ZN7KFormatC1ERK7QLocale
libKF6CoreAddons.so.6:_ZN7KFormatD1Ev
libKF6CoreAddons.so.6:_ZN8KProcess10setProgramERK7QStringRK5QListIS0_E
libKF6CoreAddons.so.6:_ZN8KProcess13startDetachedERK7QStringRK5QListIS0_E
libKF6CoreAddons.so.6:_ZN8KProcess15setNextOpenModeE6QFlagsIN13QIODeviceBase12OpenModeFlagEE
libKF6CoreAddons.so.6:_ZN8KProcess20setOutputChannelModeENS_17OutputChannelModeE
libKF6CoreAddons.so.6:_ZN8KProcess5startEv
libKF6CoreAddons.so.6:_ZN8KProcess7executeERK7QStringRK5QListIS0_Ei
libKF6CoreAddons.so.6:_ZN8KProcess7executeEi
libKF6CoreAddons.so.6:_ZN8KProcessC1EP7QObject
libKF6CoreAddons.so.6:_ZN8KProcessD1Ev
libKF6CoreAddons.so.6:_ZN8KProcesslsERK5QListI7QStringE
libKF6CoreAddons.so.6:_ZN8KProcesslsERK7QString
libKF6CoreAddons.so.6:_ZN9KDirWatch10removeFileERK7QString
libKF6CoreAddons.so.6:_ZN9KDirWatch16staticMetaObjectE
libKF6CoreAddons.so.6:_ZN9KDirWatch5dirtyERK7QString
libKF6CoreAddons.so.6:_ZN9KDirWatch7addFileERK7QString
libKF6CoreAddons.so.6:_ZN9KDirWatch7createdERK7QString
libKF6CoreAddons.so.6:_ZN9KDirWatch7deletedERK7QString
libKF6CoreAddons.so.6:_ZN9KDirWatchC1EP7QObject
libKF6CoreAddons.so.6:_ZNK10KUserGroup4nameEv
libKF6CoreAddons.so.6:_ZNK15KPluginMetaData11descriptionEv
libKF6CoreAddons.so.6:_ZNK15KPluginMetaData7isValidEv
libKF6CoreAddons.so.6:_ZNK15KPluginMetaData7rawDataEv
libKF6CoreAddons.so.6:_ZNK15KPluginMetaData8fileNameEv
libKF6CoreAddons.so.6:_ZNK15KPluginMetaData8iconNameEv
libKF6CoreAddons.so.6:_ZNK15KPluginMetaData8pluginIdEv
libKF6CoreAddons.so.6:_ZNK15KPluginMetaData9mimeTypesEv
libKF6CoreAddons.so.6:_ZNK15KPluginMetaDataeqERKS_
libKF6CoreAddons.so.6:_ZNK4KJob5errorEv
libKF6CoreAddons.so.6:_ZNK5KUser7groupIdEv
libKF6CoreAddons.so.6:_ZNK5KUser8propertyENS_12UserPropertyE
libKF6CoreAddons.so.6:_ZNK5KUser9loginNameEv
libKF6CoreAddons.so.6:_ZNK7KFormat14formatByteSizeEdiNS_17BinaryUnitDialectENS_15BinarySizeUnitsE
libKF6CoreAddons.so.6:_ZTI14KPluginFactory
libKF6Crash.so.6:_ZN6KCrash10initializeEv
libKF6I18n.so.6:_Z6ki18ndPKcS0_
libKF6I18n.so.6:_Z7ki18ndcPKcS0_S0_
libKF6I18n.so.6:_Z7ki18ndpPKcS0_S0_
libKF6I18n.so.6:_Z8ki18ndcpPKcS0_S0_S0_
libKF6I18n.so.6:_Z8kxi18ndcPKcS0_S0_
libKF6I18n.so.6:_ZN16KLocalizedString20setApplicationDomainERK10QByteArray
libKF6I18n.so.6:_ZN16KLocalizedStringC1ERKS_
libKF6I18n.so.6:_ZN16KLocalizedStringC1Ev
libKF6I18n.so.6:_ZN16KLocalizedStringD1Ev
libKF6I18n.so.6:_ZN16KLocalizedStringaSERKS_
libKF6I18n.so.6:_ZNK16KLocalizedString4subsERK7QStringi5QChar
libKF6I18n.so.6:_ZNK16KLocalizedString4subsEdici5QChar
libKF6I18n.so.6:_ZNK16KLocalizedString4subsEiii5QChar
libKF6I18n.so.6:_ZNK16KLocalizedString4subsEjii5QChar
libKF6I18n.so.6:_ZNK16KLocalizedString4subsExii5QChar
libKF6I18n.so.6:_ZNK16KLocalizedString8toStringEv
libKF6I18n.so.6:_ZNK16KLocalizedString9relaxSubsEv
libKF6IconThemes.so.6:_ZN10KIconTheme9initThemeEv
libKF6ItemViews.so.6:_ZN21KTreeWidgetSearchLine13addTreeWidgetEP11QTreeWidget
libKF6ItemViews.so.6:_ZN21KTreeWidgetSearchLineC1EP7QWidgetP11QTreeWidget
libKF6KIOCore.so.6:_ZN3KIO19setModificationTimeERK4QUrlRK9QDateTime
libKF6KIOCore.so.6:_ZN3KIO26createDefaultJobUiDelegateE6QFlagsIN14KJobUiDelegate4FlagEEP7QWidget
libKF6KIOCore.so.6:_ZN3KIO3Job11addMetaDataERK7QStringS3_
libKF6KIOCore.so.6:_ZN3KIO3Job16staticMetaObjectE
libKF6KIOCore.so.6:_ZN3KIO4statERK4QUrlNS_7StatJob8StatSideE6QFlagsINS_10StatDetailEES5_INS_7JobFlagEE
libKF6KIOCore.so.6:_ZN3KIO5upUrlERK4QUrl
libKF6KIOCore.so.6:_ZN3KIO9file_copyERK4QUrlS2_i6QFlagsINS_7JobFlagEE
libKF6KIOGui.so.6:_ZN10KUriFilter15filterSearchUriER14KUriFilterData6QFlagsINS_16SearchFilterTypeEE
libKF6KIOGui.so.6:_ZN10KUriFilter4selfEv
libKF6KIOGui.so.6:_ZN14KUriFilterData25setSearchFilteringOptionsE6QFlagsINS_18SearchFilterOptionEE
libKF6KIOGui.so.6:_ZN14KUriFilterDataC1ERK7QString
libKF6KIOGui.so.6:_ZN14KUriFilterDataD1Ev
libKF6KIOGui.so.6:_ZN3KIO10OpenUrlJob16isExecutableFileERK4QUrlRK7QString
libKF6KIOGui.so.6:_ZN3KIO10OpenUrlJobC1ERK4QUrlP7QObject
libKF6KIOGui.so.6:_ZN3KIO10OpenUrlJobC1ERK4QUrlRK7QStringP7QObject
libKF6KIOGui.so.6:_ZN3KIO18CommandLauncherJobC1ERK7QStringRK5QListIS1_EP7QObject
libKF6KIOGui.so.6:_ZN3KIO22highlightInFileManagerERK5QListI4QUrlERK10QByteArray
libKF6KIOGui.so.6:_ZNK14KUriFilterData24preferredSearchProvidersEv
libKF6KIOGui.so.6:_ZNK14KUriFilterData31queryForPreferredSearchProviderERK7QString
libKF6KIOGui.so.6:_ZNK14KUriFilterData34iconNameForPreferredSearchProviderERK7QString
libKF6KIOGui.so.6:_ZNK14KUriFilterData3uriEv
libKF6KIOWidgets.so.6:_ZN13KUrlRequester11changeEventEP6QEvent
libKF6KIOWidgets.so.6:_ZN13KUrlRequester11eventFilterEP7QObjectP6QEvent
libKF6KIOWidgets.so.6:_ZN13KUrlRequester11qt_metacallEN11QMetaObject4CallEiPPv
libKF6KIOWidgets.so.6:_ZN13KUrlRequester11qt_metacastEPKc
libKF6KIOWidgets.so.6:_ZN13KUrlRequester11textChangedERK7QString
libKF6KIOWidgets.so.6:_ZN13KUrlRequester13setNameFilterERK7QString
libKF6KIOWidgets.so.6:_ZN13KUrlRequester16staticMetaObjectE
libKF6KIOWidgets.so.6:_ZN13KUrlRequester6setUrlERK4QUrl
libKF6KIOWidgets.so.6:_ZN13KUrlRequester7setModeE6QFlagsIN5KFile4ModeEE
libKF6KIOWidgets.so.6:_ZN13KUrlRequester7setTextERK7QString
libKF6KIOWidgets.so.6:_ZN13KUrlRequesterC1EP7QWidget
libKF6KIOWidgets.so.6:_ZN13KUrlRequesterC2EP7QWidget
libKF6KIOWidgets.so.6:_ZN13KUrlRequesterD2Ev
libKF6KIOWidgets.so.6:_ZNK13KUrlRequester10fileDialogEv
libKF6KIOWidgets.so.6:_ZNK13KUrlRequester3urlEv
libKF6KIOWidgets.so.6:_ZNK13KUrlRequester4textEv
libKF6KIOWidgets.so.6:_ZNK13KUrlRequester8lineEditEv
libKF6KIOWidgets.so.6:_ZTI13KUrlRequester
libKF6Parts.so.6:_ZN6KParts10MainWindow11qt_metacallEN11QMetaObject4CallEiPPv
libKF6Parts.so.6:_ZN6KParts10MainWindow11qt_metacastEPKc
libKF6Parts.so.6:_ZN6KParts10MainWindow14createShellGUIEb
libKF6Parts.so.6:_ZN6KParts10MainWindow16staticMetaObjectE
libKF6Parts.so.6:_ZN6KParts10MainWindow17configureToolbarsEv
libKF6Parts.so.6:_ZN6KParts10MainWindow20saveNewToolbarConfigEv
libKF6Parts.so.6:_ZN6KParts10MainWindow20slotSetStatusBarTextERK7QString
libKF6Parts.so.6:_ZN6KParts10MainWindow9createGUIEPNS_4PartE
libKF6Parts.so.6:_ZN6KParts10MainWindowC2EP7QWidget6QFlagsIN2Qt10WindowTypeEE
libKF6Parts.so.6:_ZN6KParts10MainWindowD0Ev
libKF6Parts.so.6:_ZN6KParts10MainWindowD1Ev
libKF6Parts.so.6:_ZN6KParts10MainWindowD2Ev
libKF6Parts.so.6:_ZN6KParts12ReadOnlyPart11qt_metacallEN11QMetaObject4CallEiPPv
libKF6Parts.so.6:_ZN6KParts12ReadOnlyPart11qt_metacastEPKc
libKF6Parts.so.6:_ZN6KParts12ReadOnlyPart12setArgumentsERKNS_16OpenUrlArgumentsE
libKF6Parts.so.6:_ZN6KParts12ReadOnlyPart16guiActivateEventEPNS_16GUIActivateEventE
libKF6Parts.so.6:_ZN6KParts12ReadOnlyPart16setLocalFilePathERK7QString
libKF6Parts.so.6:_ZN6KParts12ReadOnlyPart16staticMetaObjectE
libKF6Parts.so.6:_ZN6KParts12ReadOnlyPart6setUrlERK4QUrl
libKF6Parts.so.6:_ZN6KParts12ReadOnlyPart7openUrlERK4QUrl
libKF6Parts.so.6:_ZN6KParts12ReadOnlyPart7startedEPN3KIO3JobE
libKF6Parts.so.6:_ZN6KParts12ReadOnlyPart8canceledERK7QString
libKF6Parts.so.6:_ZN6KParts12ReadOnlyPart8closeUrlEv
libKF6Parts.so.6:_ZN6KParts12ReadOnlyPart8openFileEv
libKF6Parts.so.6:_ZN6KParts12ReadOnlyPart9completedEv
libKF6Parts.so.6:_ZN6KParts12ReadOnlyPartD0Ev
libKF6Parts.so.6:_ZN6KParts12ReadOnlyPartD1Ev
libKF6Parts.so.6:_ZN6KParts13ReadWritePart10queryCloseEv
libKF6Parts.so.6:_ZN6KParts13ReadWritePart11qt_metacallEN11QMetaObject4CallEiPPv
libKF6Parts.so.6:_ZN6KParts13ReadWritePart11qt_metacastEPKc
libKF6Parts.so.6:_ZN6KParts13ReadWritePart11setModifiedEb
libKF6Parts.so.6:_ZN6KParts13ReadWritePart12setReadWriteEb
libKF6Parts.so.6:_ZN6KParts13ReadWritePart16staticMetaObjectE
libKF6Parts.so.6:_ZN6KParts13ReadWritePart4saveEv
libKF6Parts.so.6:_ZN6KParts13ReadWritePart6saveAsERK4QUrl
libKF6Parts.so.6:_ZN6KParts13ReadWritePart8closeUrlEb
libKF6Parts.so.6:_ZN6KParts13ReadWritePart8closeUrlEv
libKF6Parts.so.6:_ZN6KParts13ReadWritePart9saveToUrlEv
libKF6Parts.so.6:_ZN6KParts13ReadWritePartC2EP7QObjectRK15KPluginMetaData
libKF6Parts.so.6:_ZN6KParts13ReadWritePartD0Ev
libKF6Parts.so.6:_ZN6KParts13ReadWritePartD1Ev
libKF6Parts.so.6:_ZN6KParts13ReadWritePartD2Ev
libKF6Parts.so.6:_ZN6KParts16OpenUrlArgumentsD1Ev
libKF6Parts.so.6:_ZN6KParts19NavigationExtension11qt_metacallEN11QMetaObject4CallEiPPv
libKF6Parts.so.6:_ZN6KParts19NavigationExtension11qt_metacastEPKc
libKF6Parts.so.6:_ZN6KParts19NavigationExtension12enableActionEPKcb
libKF6Parts.so.6:_ZN6KParts19NavigationExtension12restoreStateER11QDataStream
libKF6Parts.so.6:_ZN6KParts19NavigationExtension13openUrlNotifyEv
libKF6Parts.so.6:_ZN6KParts19NavigationExtension16staticMetaObjectE
libKF6Parts.so.6:_ZN6KParts19NavigationExtension17setLocationBarUrlERK7QString
libKF6Parts.so.6:_ZN6KParts19NavigationExtension25setURLDropHandlingEnabledEb
libKF6Parts.so.6:_ZN6KParts19NavigationExtension7xOffsetEv
libKF6Parts.so.6:_ZN6KParts19NavigationExtension7yOffsetEv
libKF6Parts.so.6:_ZN6KParts19NavigationExtension9saveStateER11QDataStream
libKF6Parts.so.6:_ZN6KParts19NavigationExtensionC2EPNS_12ReadOnlyPartE
libKF6Parts.so.6:_ZN6KParts19NavigationExtensionD2Ev
libKF6Parts.so.6:_ZN6KParts4Part10setManagerEPNS_11PartManagerE
libKF6Parts.so.6:_ZN6KParts4Part11customEventEP6QEvent
libKF6Parts.so.6:_ZN6KParts4Part11qt_metacallEN11QMetaObject4CallEiPPv
libKF6Parts.so.6:_ZN6KParts4Part11qt_metacastEPKc
libKF6Parts.so.6:_ZN6KParts4Part16guiActivateEventEPNS_16GUIActivateEventE
libKF6Parts.so.6:_ZN6KParts4Part16setWindowCaptionERK7QString
libKF6Parts.so.6:_ZN6KParts4Part17partActivateEventEPNS_17PartActivateEventE
libKF6Parts.so.6:_ZN6KParts4Part6widgetEv
libKF6Parts.so.6:_ZN6KParts4Part7hitTestEP7QWidgetRK6QPoint
libKF6Parts.so.6:_ZN6KParts4Part9setWidgetEP7QWidget
libKF6Parts.so.6:_ZN6KParts4PartD0Ev
libKF6Parts.so.6:_ZN6KParts4PartD1Ev
libKF6Parts.so.6:_ZN6KParts8PartBaseC2Ev
libKF6Parts.so.6:_ZN6KParts8PartBaseD0Ev
libKF6Parts.so.6:_ZN6KParts8PartBaseD1Ev
libKF6Parts.so.6:_ZN6KParts8PartBaseD2Ev
libKF6Parts.so.6:_ZNK6KParts10MainWindow10metaObjectEv
libKF6Parts.so.6:_ZNK6KParts12ReadOnlyPart10metaObjectEv
libKF6Parts.so.6:_ZNK6KParts12ReadOnlyPart13localFilePathEv
libKF6Parts.so.6:_ZNK6KParts12ReadOnlyPart3urlEv
libKF6Parts.so.6:_ZNK6KParts12ReadOnlyPart9argumentsEv
libKF6Parts.so.6:_ZNK6KParts13ReadWritePart10isModifiedEv
libKF6Parts.so.6:_ZNK6KParts13ReadWritePart10metaObjectEv
libKF6Parts.so.6:_ZNK6KParts13ReadWritePart11isReadWriteEv
libKF6Parts.so.6:_ZNK6KParts16GUIActivateEvent9activatedEv
libKF6Parts.so.6:_ZNK6KParts16OpenUrlArguments8mimeTypeEv
libKF6Parts.so.6:_ZNK6KParts4Part10metaObjectEv
libKF6Parts.so.6:_ZTIN6KParts10MainWindowE
libKF6Parts.so.6:_ZTIN6KParts12ReadOnlyPartE
libKF6Parts.so.6:_ZTIN6KParts13ReadWritePartE
libKF6Parts.so.6:_ZTIN6KParts19NavigationExtensionE
libKF6Parts.so.6:_ZTIN6KParts4PartE
libKF6Parts.so.6:_ZTIN6KParts8PartBaseE
libKF6Parts.so.6:_ZThn16_N6KParts12ReadOnlyPartD0Ev
libKF6Parts.so.6:_ZThn16_N6KParts12ReadOnlyPartD1Ev
libKF6Parts.so.6:_ZThn16_N6KParts13ReadWritePartD0Ev
libKF6Parts.so.6:_ZThn16_N6KParts13ReadWritePartD1Ev
libKF6Parts.so.6:_ZThn16_N6KParts4PartD0Ev
libKF6Parts.so.6:_ZThn16_N6KParts4PartD1Ev
libKF6Parts.so.6:_ZTv0_n24_N6KParts10MainWindowD0Ev
libKF6Parts.so.6:_ZTv0_n24_N6KParts10MainWindowD1Ev
libKF6Parts.so.6:_ZTv0_n24_N6KParts12ReadOnlyPartD0Ev
libKF6Parts.so.6:_ZTv0_n24_N6KParts12ReadOnlyPartD1Ev
libKF6Parts.so.6:_ZTv0_n24_N6KParts13ReadWritePartD0Ev
libKF6Parts.so.6:_ZTv0_n24_N6KParts13ReadWritePartD1Ev
libKF6Parts.so.6:_ZTv0_n24_N6KParts4PartD0Ev
libKF6Parts.so.6:_ZTv0_n24_N6KParts4PartD1Ev
libKF6Parts.so.6:_ZTv0_n24_N6KParts8PartBaseD0Ev
libKF6Parts.so.6:_ZTv0_n24_N6KParts8PartBaseD1Ev
libKF6Parts.so.6:_ZTv0_n32_N6KParts10MainWindowD0Ev
libKF6Parts.so.6:_ZTv0_n32_N6KParts10MainWindowD1Ev
libKF6Pty.so.6:_ZN11KPtyProcess16staticMetaObjectE
libKF6Pty.so.6:_ZN11KPtyProcessC1EP7QObject
libKF6Purpose.so.6:_ZN7Purpose17AlternativesModel12setInputDataERK11QJsonObject
libKF6Purpose.so.6:_ZN7Purpose17AlternativesModel13setPluginTypeERK7QString
libKF6PurposeWidgets.so.6:_ZN7Purpose4Menu16staticMetaObjectE
libKF6PurposeWidgets.so.6:_ZN7Purpose4Menu6reloadEv
libKF6PurposeWidgets.so.6:_ZN7Purpose4Menu8finishedERK11QJsonObjectiRK7QString
libKF6PurposeWidgets.so.6:_ZN7Purpose4MenuC1EP7QWidget
libKF6PurposeWidgets.so.6:_ZNK7Purpose4Menu5modelEv
libKF6TextWidgets.so.6:_ZN9KTextEdit11qt_metacallEN11QMetaObject4CallEiPPv
libKF6TextWidgets.so.6:_ZN9KTextEdit11qt_metacastEPKc
libKF6TextWidgets.so.6:_ZN9KTextEdit11setReadOnlyEb
libKF6TextWidgets.so.6:_ZN9KTextEdit12focusInEventEP11QFocusEvent
libKF6TextWidgets.so.6:_ZN9KTextEdit13keyPressEventEP9QKeyEvent
libKF6TextWidgets.so.6:_ZN9KTextEdit14deleteWordBackEv
libKF6TextWidgets.so.6:_ZN9KTextEdit14mousePopupMenuEv
libKF6TextWidgets.so.6:_ZN9KTextEdit16contextMenuEventEP17QContextMenuEvent
libKF6TextWidgets.so.6:_ZN9KTextEdit16staticMetaObjectE
libKF6TextWidgets.so.6:_ZN9KTextEdit17createHighlighterEv
libKF6TextWidgets.so.6:_ZN9KTextEdit17deleteWordForwardEv
libKF6TextWidgets.so.6:_ZN9KTextEdit22aboutToShowContextMenuEP5QMenu
libKF6TextWidgets.so.6:_ZN9KTextEdit23setCheckSpellingEnabledEb
libKF6TextWidgets.so.6:_ZN9KTextEdit5eventEP6QEvent
libKF6TextWidgets.so.6:_ZN9KTextEditC1EP7QWidget
libKF6TextWidgets.so.6:_ZN9KTextEditC2EP7QWidget
libKF6TextWidgets.so.6:_ZN9KTextEditD2Ev
libKF6TextWidgets.so.6:_ZNK9KTextEdit20checkSpellingEnabledEv
libKF6TextWidgets.so.6:_ZNK9KTextEdit25shouldBlockBeSpellCheckedERK7QString
libKF6TextWidgets.so.6:_ZTI9KTextEdit
libKF6ThreadWeaver.so.6:_ZN12ThreadWeaver11IdDecorator11setExecutorEPNS_8ExecutorE
libKF6ThreadWeaver.so.6:_ZN12ThreadWeaver11IdDecorator12requestAbortEv
libKF6ThreadWeaver.so.6:_ZN12ThreadWeaver11IdDecorator15aboutToBeQueuedEPNS_8QueueAPIE
libKF6ThreadWeaver.so.6:_ZN12ThreadWeaver11IdDecorator15blockingExecuteEv
libKF6ThreadWeaver.so.6:_ZN12ThreadWeaver11IdDecorator17aboutToBeDequeuedEPNS_8QueueAPIE
libKF6ThreadWeaver.so.6:_ZN12ThreadWeaver11IdDecorator17assignQueuePolicyEPNS_11QueuePolicyE
libKF6ThreadWeaver.so.6:_ZN12ThreadWeaver11IdDecorator17removeQueuePolicyEPNS_11QueuePolicyE
libKF6ThreadWeaver.so.6:_ZN12ThreadWeaver11IdDecorator22aboutToBeQueued_lockedEPNS_8QueueAPIE
libKF6ThreadWeaver.so.6:_ZN12ThreadWeaver11IdDecorator24aboutToBeDequeued_lockedEPNS_8QueueAPIE
libKF6ThreadWeaver.so.6:_ZN12ThreadWeaver11IdDecorator3runE14QSharedPointerINS_12JobInterfaceEEPNS_6ThreadE
libKF6ThreadWeaver.so.6:_ZN12ThreadWeaver11IdDecorator7executeERK14QSharedPointerINS_12JobInterfaceEEPNS_6ThreadE
libKF6ThreadWeaver.so.6:_ZN12ThreadWeaver11IdDecorator9setStatusENS_12JobInterface6StatusE
libKF6ThreadWeaver.so.6:_ZN12ThreadWeaver11IdDecoratorD2Ev
libKF6ThreadWeaver.so.6:_ZN12ThreadWeaver16QObjectDecorator10defaultEndERK14QSharedPointerINS_12JobInterfaceEEPNS_6ThreadE
libKF6ThreadWeaver.so.6:_ZN12ThreadWeaver16QObjectDecorator11qt_metacallEN11QMetaObject4CallEiPPv
libKF6ThreadWeaver.so.6:_ZN12ThreadWeaver16QObjectDecorator11qt_metacastEPKc
libKF6ThreadWeaver.so.6:_ZN12ThreadWeaver16QObjectDecorator12defaultBeginERK14QSharedPointerINS_12JobInterfaceEEPNS_6ThreadE
libKF6ThreadWeaver.so.6:_ZN12ThreadWeaver16QObjectDecorator16staticMetaObjectE
libKF6ThreadWeaver.so.6:_ZN12ThreadWeaver16QObjectDecorator4doneE14QSharedPointerINS_12JobInterfaceEE
libKF6ThreadWeaver.so.6:_ZN12ThreadWeaver16QObjectDecoratorC2EPNS_12JobInterfaceEP7QObject
libKF6ThreadWeaver.so.6:_ZN12ThreadWeaver3Job10defaultEndERK14QSharedPointerINS_12JobInterfaceEEPNS_6ThreadE
libKF6ThreadWeaver.so.6:_ZN12ThreadWeaver3Job11setExecutorEPNS_8ExecutorE
libKF6ThreadWeaver.so.6:_ZN12ThreadWeaver3Job12defaultBeginERK14QSharedPointerINS_12JobInterfaceEEPNS_6ThreadE
libKF6ThreadWeaver.so.6:_ZN12ThreadWeaver3Job12requestAbortEv
libKF6ThreadWeaver.so.6:_ZN12ThreadWeaver3Job15aboutToBeQueuedEPNS_8QueueAPIE
libKF6ThreadWeaver.so.6:_ZN12ThreadWeaver3Job15blockingExecuteEv
libKF6ThreadWeaver.so.6:_ZN12ThreadWeaver3Job17aboutToBeDequeuedEPNS_8QueueAPIE
libKF6ThreadWeaver.so.6:_ZN12ThreadWeaver3Job17assignQueuePolicyEPNS_11QueuePolicyE
libKF6ThreadWeaver.so.6:_ZN12ThreadWeaver3Job17removeQueuePolicyEPNS_11QueuePolicyE
libKF6ThreadWeaver.so.6:_ZN12ThreadWeaver3Job22aboutToBeQueued_lockedEPNS_8QueueAPIE
libKF6ThreadWeaver.so.6:_ZN12ThreadWeaver3Job24aboutToBeDequeued_lockedEPNS_8QueueAPIE
libKF6ThreadWeaver.so.6:_ZN12ThreadWeaver3Job7executeERK14QSharedPointerINS_12JobInterfaceEEPNS_6ThreadE
libKF6ThreadWeaver.so.6:_ZN12ThreadWeaver3Job9setStatusENS_12JobInterface6StatusE
libKF6ThreadWeaver.so.6:_ZN12ThreadWeaver3JobC2Ev
libKF6ThreadWeaver.so.6:_ZN12ThreadWeaver3JobD2Ev
libKF6ThreadWeaver.so.6:_ZN12ThreadWeaver5Queue7enqueueERK14QSharedPointerINS_12JobInterfaceEE
libKF6ThreadWeaver.so.6:_ZN12ThreadWeaver5QueueC1EP7QObject
libKF6ThreadWeaver.so.6:_ZN12ThreadWeaver5QueueD1Ev
libKF6ThreadWeaver.so.6:_ZNK12ThreadWeaver11IdDecorator10isFinishedEv
libKF6ThreadWeaver.so.6:_ZNK12ThreadWeaver11IdDecorator13queuePoliciesEv
libKF6ThreadWeaver.so.6:_ZNK12ThreadWeaver11IdDecorator3jobEv
libKF6ThreadWeaver.so.6:_ZNK12ThreadWeaver11IdDecorator5mutexEv
libKF6ThreadWeaver.so.6:_ZNK12ThreadWeaver11IdDecorator6statusEv
libKF6ThreadWeaver.so.6:_ZNK12ThreadWeaver11IdDecorator7successEv
libKF6ThreadWeaver.so.6:_ZNK12ThreadWeaver11IdDecorator8executorEv
libKF6ThreadWeaver.so.6:_ZNK12ThreadWeaver11IdDecorator8priorityEv
libKF6ThreadWeaver.so.6:_ZNK12ThreadWeaver3Job10isFinishedEv
libKF6ThreadWeaver.so.6:_ZNK12ThreadWeaver3Job13queuePoliciesEv
libKF6ThreadWeaver.so.6:_ZNK12ThreadWeaver3Job5mutexEv
libKF6ThreadWeaver.so.6:_ZNK12ThreadWeaver3Job6statusEv
libKF6ThreadWeaver.so.6:_ZNK12ThreadWeaver3Job7successEv
libKF6ThreadWeaver.so.6:_ZNK12ThreadWeaver3Job8executorEv
libKF6ThreadWeaver.so.6:_ZNK12ThreadWeaver3Job8priorityEv
libKF6ThreadWeaver.so.6:_ZTIN12ThreadWeaver16QObjectDecoratorE
libKF6ThreadWeaver.so.6:_ZTIN12ThreadWeaver3JobE
libKF6ThreadWeaver.so.6:_ZThn16_N12ThreadWeaver16QObjectDecorator10defaultEndERK14QSharedPointerINS_12JobInterfaceEEPNS_6ThreadE
libKF6ThreadWeaver.so.6:_ZThn16_N12ThreadWeaver16QObjectDecorator12defaultBeginERK14QSharedPointerINS_12JobInterfaceEEPNS_6ThreadE
libKF6Wallet.so.6:_ZN7KWallet6Wallet10openWalletERK7QStringyNS0_8OpenTypeE
libKF6Wallet.so.6:_ZN7KWallet6Wallet13NetworkWalletEv
libKF6WidgetsAddons.so.6:_ZN11KActionMenu11qt_metacallEN11QMetaObject4CallEiPPv
libKF6WidgetsAddons.so.6:_ZN11KActionMenu11qt_metacastEPKc
libKF6WidgetsAddons.so.6:_ZN11KActionMenu12addSeparatorEv
libKF6WidgetsAddons.so.6:_ZN11KActionMenu12createWidgetEP7QWidget
libKF6WidgetsAddons.so.6:_ZN11KActionMenu12insertActionEP7QActionS1_
libKF6WidgetsAddons.so.6:_ZN11KActionMenu12removeActionEP7QAction
libKF6WidgetsAddons.so.6:_ZN11KActionMenu12setPopupModeEN11QToolButton19ToolButtonPopupModeE
libKF6WidgetsAddons.so.6:_ZN11KActionMenu16staticMetaObjectE
libKF6WidgetsAddons.so.6:_ZN11KActionMenu9addActionEP7QAction
libKF6WidgetsAddons.so.6:_ZN11KActionMenuC1ERK5QIconRK7QStringP7QObject
libKF6WidgetsAddons.so.6:_ZN11KActionMenuC1ERK7QStringP7QObject
libKF6WidgetsAddons.so.6:_ZN11KActionMenuC2ERK5QIconRK7QStringP7QObject
libKF6WidgetsAddons.so.6:_ZN11KActionMenuD2Ev
libKF6WidgetsAddons.so.6:_ZN11KJobWidgets9setWindowEP7QObjectP7QWidget
libKF6WidgetsAddons.so.6:_ZN11KMessageBox11informationEP7QWidgetRK7QStringS4_S4_6QFlagsINS_6OptionEE
libKF6WidgetsAddons.so.6:_ZN11KMessageBox13detailedErrorEP7QWidgetRK7QStringS4_S4_6QFlagsINS_6OptionEE
libKF6WidgetsAddons.so.6:_ZN11KMessageBox17createKMessageBoxEP7QDialogP16QDialogButtonBoxN11QMessageBox4IconERK7QStringRK5QListIS6_ES8_Pb6QFlagsINS_6OptionEES8_
libKF6WidgetsAddons.so.6:_ZN11KMessageBox18questionTwoActionsEP7QWidgetRK7QStringS4_RK8KGuiItemS7_S4_6QFlagsINS_6OptionEE
libKF6WidgetsAddons.so.6:_ZN11KMessageBox21warningContinueCancelEP7QWidgetRK7QStringS4_RK8KGuiItemS7_S4_6QFlagsINS_6OptionEE
libKF6WidgetsAddons.so.6:_ZN11KMessageBox23shouldBeShownTwoActionsERK7QStringRNS_10ButtonCodeE
libKF6WidgetsAddons.so.6:_ZN11KMessageBox23warningTwoActionsCancelEP7QWidgetRK7QStringS4_RK8KGuiItemS7_S7_S4_6QFlagsINS_6OptionEE
libKF6WidgetsAddons.so.6:_ZN11KMessageBox25warningContinueCancelListEP7QWidgetRK7QStringRK5QListIS2_ES4_RK8KGuiItemSB_S4_6QFlagsINS_6OptionEE
libKF6WidgetsAddons.so.6:_ZN11KMessageBox27saveDontShowAgainTwoActionsERK7QStringNS_10ButtonCodeE
libKF6WidgetsAddons.so.6:_ZN11KMessageBox27warningTwoActionsCancelListEP7QWidgetRK7QStringRK5QListIS2_ES4_RK8KGuiItemSB_SB_S4_6QFlagsINS_6OptionEE
libKF6WidgetsAddons.so.6:_ZN11KMessageBox5errorEP7QWidgetRK7QStringS4_6QFlagsINS_6OptionEE
libKF6WidgetsAddons.so.6:_ZN11KPageDialog10pageWidgetEv
libKF6WidgetsAddons.so.6:_ZN11KPageDialog11qt_metacallEN11QMetaObject4CallEiPPv
libKF6WidgetsAddons.so.6:_ZN11KPageDialog11qt_metacastEPKc
libKF6WidgetsAddons.so.6:_ZN11KPageDialog11setFaceTypeENS_8FaceTypeE
libKF6WidgetsAddons.so.6:_ZN11KPageDialog14setCurrentPageEP15KPageWidgetItem
libKF6WidgetsAddons.so.6:_ZN11KPageDialog15addActionButtonEP15QAbstractButton
libKF6WidgetsAddons.so.6:_ZN11KPageDialog16staticMetaObjectE
libKF6WidgetsAddons.so.6:_ZN11KPageDialog18setStandardButtonsE6QFlagsIN16QDialogButtonBox14StandardButtonEE
libKF6WidgetsAddons.so.6:_ZN11KPageDialog7addPageEP7QWidgetRK7QString
libKF6WidgetsAddons.so.6:_ZN11KPageDialogC2EP7QWidget6QFlagsIN2Qt10WindowTypeEE
libKF6WidgetsAddons.so.6:_ZN11KPageDialogD2Ev
libKF6WidgetsAddons.so.6:_ZN11KPageWidget16staticMetaObjectE
libKF6WidgetsAddons.so.6:_ZN11KPageWidget18currentPageChangedEP15KPageWidgetItemS1_
libKF6WidgetsAddons.so.6:_ZN12KColorButton16staticMetaObjectE
libKF6WidgetsAddons.so.6:_ZN12KColorButton7changedERK6QColor
libKF6WidgetsAddons.so.6:_ZN12KColorButton8setColorERK6QColor
libKF6WidgetsAddons.so.6:_ZN12KColorButtonC1EP7QWidget
libKF6WidgetsAddons.so.6:_ZN12KTitleWidget7setTextERK7QString6QFlagsIN2Qt13AlignmentFlagEE
libKF6WidgetsAddons.so.6:_ZN12KTitleWidget8setLevelEi
libKF6WidgetsAddons.so.6:_ZN12KTitleWidgetC1EP7QWidget
libKF6WidgetsAddons.so.6:_ZN13KSelectAction11setEditableEb
libKF6WidgetsAddons.so.6:_ZN13KSelectAction14setCurrentItemEi
libKF6WidgetsAddons.so.6:_ZN13KSelectAction14setToolBarModeENS_11ToolBarModeE
libKF6WidgetsAddons.so.6:_ZN13KSelectAction15actionTriggeredEP7QAction
libKF6WidgetsAddons.so.6:_ZN13KSelectAction16removeAllActionsEv
libKF6WidgetsAddons.so.6:_ZN13KSelectAction16setCurrentActionEP7QAction
libKF6WidgetsAddons.so.6:_ZN13KSelectAction16staticMetaObjectE
libKF6WidgetsAddons.so.6:_ZN13KSelectAction20setMaxComboViewCountEi
libKF6WidgetsAddons.so.6:_ZN13KSelectAction22setToolButtonPopupModeEN11QToolButton19ToolButtonPopupModeE
libKF6WidgetsAddons.so.6:_ZN13KSelectAction8setItemsERK5QListI7QStringE
libKF6WidgetsAddons.so.6:_ZN13KSelectAction9addActionEP7QAction
libKF6WidgetsAddons.so.6:_ZN13KSelectAction9addActionERK7QString
libKF6WidgetsAddons.so.6:_ZN13KSelectActionC1ERK5QIconRK7QStringP7QObject
libKF6WidgetsAddons.so.6:_ZN13KToggleAction16staticMetaObjectE
libKF6WidgetsAddons.so.6:_ZN13KToggleActionC1EP7QObject
libKF6WidgetsAddons.so.6:_ZN13KToggleActionC1ERK5QIconRK7QStringP7QObject
libKF6WidgetsAddons.so.6:_ZN13KToggleActionC1ERK7QStringP7QObject
libKF6WidgetsAddons.so.6:_ZN14KColumnResizer20addWidgetsFromLayoutEP7QLayouti
libKF6WidgetsAddons.so.6:_ZN14KColumnResizerC1EP7QObject
libKF6WidgetsAddons.so.6:_ZN14KFontRequester12fontSelectedERK5QFont
libKF6WidgetsAddons.so.6:_ZN14KFontRequester16staticMetaObjectE
libKF6WidgetsAddons.so.6:_ZN14KFontRequesterC1EP7QWidgetb
libKF6WidgetsAddons.so.6:_ZN14KMessageWidget11setPositionENS_8PositionE
libKF6WidgetsAddons.so.6:_ZN14KMessageWidget11setWordWrapEb
libKF6WidgetsAddons.so.6:_ZN14KMessageWidget12animatedHideEv
libKF6WidgetsAddons.so.6:_ZN14KMessageWidget13linkActivatedERK7QString
libKF6WidgetsAddons.so.6:_ZN14KMessageWidget14setMessageTypeENS_11MessageTypeE
libKF6WidgetsAddons.so.6:_ZN14KMessageWidget16staticMetaObjectE
libKF6WidgetsAddons.so.6:_ZN14KMessageWidget21setCloseButtonVisibleEb
libKF6WidgetsAddons.so.6:_ZN14KMessageWidget7setIconERK5QIcon
libKF6WidgetsAddons.so.6:_ZN14KMessageWidget7setTextERK7QString
libKF6WidgetsAddons.so.6:_ZN14KMessageWidget9addActionEP7QAction
libKF6WidgetsAddons.so.6:_ZN14KMessageWidgetC1EP7QWidget
libKF6WidgetsAddons.so.6:_ZN15KPageWidgetItem16staticMetaObjectE
libKF6WidgetsAddons.so.6:_ZN15KPageWidgetItem7setIconERK5QIcon
libKF6WidgetsAddons.so.6:_ZN15KPasswordDialog9setPromptERK7QString
libKF6WidgetsAddons.so.6:_ZN15KPasswordDialogC1EP7QWidgetRK6QFlagsINS_19KPasswordDialogFlagEE
libKF6WidgetsAddons.so.6:_ZN15KPasswordDialogD1Ev
libKF6WidgetsAddons.so.6:_ZN16KStandardGuiItem4contEv
libKF6WidgetsAddons.so.6:_ZN16KStandardGuiItem4saveEv
libKF6WidgetsAddons.so.6:_ZN16KStandardGuiItem6cancelEv
libKF6WidgetsAddons.so.6:_ZN16KStandardGuiItem7discardEv
libKF6WidgetsAddons.so.6:_ZN18KSqueezedTextLabel11qt_metacallEN11QMetaObject4CallEiPPv
libKF6WidgetsAddons.so.6:_ZN18KSqueezedTextLabel11qt_metacastEPKc
libKF6WidgetsAddons.so.6:_ZN18KSqueezedTextLabel11resizeEventEP12QResizeEvent
libKF6WidgetsAddons.so.6:_ZN18KSqueezedTextLabel12setAlignmentE6QFlagsIN2Qt13AlignmentFlagEE
libKF6WidgetsAddons.so.6:_ZN18KSqueezedTextLabel16contextMenuEventEP17QContextMenuEvent
libKF6WidgetsAddons.so.6:_ZN18KSqueezedTextLabel16staticMetaObjectE
libKF6WidgetsAddons.so.6:_ZN18KSqueezedTextLabel17mouseReleaseEventEP11QMouseEvent
libKF6WidgetsAddons.so.6:_ZN18KSqueezedTextLabel7setTextERK7QString
libKF6WidgetsAddons.so.6:_ZN18KSqueezedTextLabelC1ERK7QStringP7QWidget
libKF6WidgetsAddons.so.6:_ZN18KSqueezedTextLabelC2EP7QWidget
libKF6WidgetsAddons.so.6:_ZN18KSqueezedTextLabelD2Ev
libKF6WidgetsAddons.so.6:_ZN19KAcceleratorManager10setNoAccelEP7QWidget
libKF6WidgetsAddons.so.6:_ZN20KBusyIndicatorWidgetC1EP7QWidget
libKF6WidgetsAddons.so.6:_ZN20KViewStateSerializer11qt_metacallEN11QMetaObject4CallEiPPv
libKF6WidgetsAddons.so.6:_ZN20KViewStateSerializer11qt_metacastEPKc
libKF6WidgetsAddons.so.6:_ZN20KViewStateSerializer15restoreExpandedERK5QListI7QStringE
libKF6WidgetsAddons.so.6:_ZN20KViewStateSerializer16staticMetaObjectE
libKF6WidgetsAddons.so.6:_ZN20KViewStateSerializer7setViewEP17QAbstractItemView
libKF6WidgetsAddons.so.6:_ZN20KViewStateSerializerC2EP7QObject
libKF6WidgetsAddons.so.6:_ZN20KViewStateSerializerD2Ev
libKF6WidgetsAddons.so.6:_ZN23KToggleFullScreenAction13setFullScreenEP7QWidgetb
libKF6WidgetsAddons.so.6:_ZN23KToggleFullScreenAction16staticMetaObjectE
libKF6WidgetsAddons.so.6:_ZN7KCursor17setAutoHideCursorEP7QWidgetbb
libKF6WidgetsAddons.so.6:_ZN7KCursor18setHideCursorDelayEi
libKF6WidgetsAddons.so.6:_ZN8KGuiItem6assignEP11QPushButtonRKS_
libKF6WidgetsAddons.so.6:_ZN8KGuiItemC1ERK7QStringS2_S2_S2_
libKF6WidgetsAddons.so.6:_ZN8KGuiItemD1Ev
libKF6WidgetsAddons.so.6:_ZN9KPageView14setCurrentPageERK11QModelIndex
libKF6WidgetsAddons.so.6:_ZNK11KActionMenu9popupModeEv
libKF6WidgetsAddons.so.6:_ZNK11KPageDialog6buttonEN16QDialogButtonBox14StandardButtonE
libKF6WidgetsAddons.so.6:_ZNK12KColorButton5colorEv
libKF6WidgetsAddons.so.6:_ZNK13KSelectAction11currentItemEv
libKF6WidgetsAddons.so.6:_ZNK13KSelectAction11currentTextEv
libKF6WidgetsAddons.so.6:_ZNK13KSelectAction21selectableActionGroupEv
libKF6WidgetsAddons.so.6:_ZNK13KSelectAction7actionsEv
libKF6WidgetsAddons.so.6:_ZNK14KFontRequester4fontEv
libKF6WidgetsAddons.so.6:_ZNK15KPasswordDialog12keepPasswordEv
libKF6WidgetsAddons.so.6:_ZNK15KPasswordDialog8passwordEv
libKF6WidgetsAddons.so.6:_ZNK18KSqueezedTextLabel15minimumSizeHintEv
libKF6WidgetsAddons.so.6:_ZNK18KSqueezedTextLabel8sizeHintEv
libKF6WidgetsAddons.so.6:_ZNK20KViewStateSerializer13expansionKeysEv
libKF6WidgetsAddons.so.6:_ZNK9KPageView5modelEv
libKF6WidgetsAddons.so.6:_ZTI11KActionMenu
libKF6WidgetsAddons.so.6:_ZTI11KPageDialog
libKF6WidgetsAddons.so.6:_ZTI18KSqueezedTextLabel
libKF6WidgetsAddons.so.6:_ZTI20KViewStateSerializer
libKF6WindowSystem.so.6:_ZN10KX11Extras14currentDesktopEv
libKF6WindowSystem.so.6:_ZN11KWindowInfoC1Ey6QFlagsIN3NET8PropertyEES0_INS1_9Property2EE
libKF6WindowSystem.so.6:_ZN11KWindowInfoD1Ev
libKF6WindowSystem.so.6:_ZN12KStartupInfo15setNewStartupIdEP7QWindowRK10QByteArray
libKF6WindowSystem.so.6:_ZN13KWindowSystem13isPlatformX11Ev
libKF6WindowSystem.so.6:_ZN13KWindowSystem14activateWindowEP7QWindowl
libKF6WindowSystem.so.6:_ZN13KWindowSystem17isPlatformWaylandEv
libKF6WindowSystem.so.6:_ZN13KWindowSystem28setCurrentXdgActivationTokenERK7QString
libKF6WindowSystem.so.6:_ZNK11KWindowInfo7desktopEv
libKF6XmlGui.so.6:_ZN11KMainWindow10closeEventEP11QCloseEvent
libKF6XmlGui.so.6:_ZN11KMainWindow10queryCloseEv
libKF6XmlGui.so.6:_ZN11KMainWindow10setCaptionERK7QString
libKF6XmlGui.so.6:_ZN11KMainWindow10setCaptionERK7QStringb
libKF6XmlGui.so.6:_ZN11KMainWindow13canBeRestoredEi
libKF6XmlGui.so.6:_ZN11KMainWindow13keyPressEventEP9QKeyEvent
libKF6XmlGui.so.6:_ZN11KMainWindow15setPlainCaptionERK7QString
libKF6XmlGui.so.6:_ZN11KMainWindow16staticMetaObjectE
libKF6XmlGui.so.6:_ZN11KMainWindow19classNameOfToplevelEi
libKF6XmlGui.so.6:_ZN11KMainWindow20readGlobalPropertiesEP7KConfig
libKF6XmlGui.so.6:_ZN11KMainWindow20saveGlobalPropertiesEP7KConfig
libKF6XmlGui.so.6:_ZN11KMainWindow7restoreEib
libKF6XmlGui.so.6:_ZN11KMainWindow7toolBarERK7QString
libKF6XmlGui.so.6:_ZN13KXMLGUIClient10setXMLFileERK7QStringbb
libKF6XmlGui.so.6:_ZN13KXMLGUIClient12stateChangedERK7QStringNS_18ReverseStateChangeE
libKF6XmlGui.so.6:_ZN13KXMLGUIClient12virtual_hookEiPv
libKF6XmlGui.so.6:_ZN13KXMLGUIClient14plugActionListERK7QStringRK5QListIP7QActionE
libKF6XmlGui.so.6:_ZN13KXMLGUIClient14setDOMDocumentERK12QDomDocumentb
libKF6XmlGui.so.6:_ZN13KXMLGUIClient15setLocalXMLFileERK7QString
libKF6XmlGui.so.6:_ZN13KXMLGUIClient16setComponentNameERK7QStringS2_
libKF6XmlGui.so.6:_ZN13KXMLGUIClient16unplugActionListERK7QString
libKF6XmlGui.so.6:_ZN13KXMLGUIClient6setXMLERK7QStringb
libKF6XmlGui.so.6:_ZN13KXMLGUIClient9reloadXMLEv
libKF6XmlGui.so.6:_ZN13KXMLGUIClientC2Ev
libKF6XmlGui.so.6:_ZN13KXMLGUIClientD2Ev
libKF6XmlGui.so.6:_ZN13KXmlGuiWindow10guiFactoryEv
libKF6XmlGui.so.6:_ZN13KXmlGuiWindow11qt_metacallEN11QMetaObject4CallEiPPv
libKF6XmlGui.so.6:_ZN13KXmlGuiWindow11qt_metacastEPKc
libKF6XmlGui.so.6:_ZN13KXmlGuiWindow16slotStateChangedERK7QString
libKF6XmlGui.so.6:_ZN13KXmlGuiWindow17configureToolbarsEv
libKF6XmlGui.so.6:_ZN13KXmlGuiWindow20saveNewToolbarConfigEv
libKF6XmlGui.so.6:_ZN13KXmlGuiWindow23applyMainWindowSettingsERK12KConfigGroup
libKF6XmlGui.so.6:_ZN13KXmlGuiWindow29setStandardToolBarMenuEnabledEb
libKF6XmlGui.so.6:_ZN13KXmlGuiWindow5eventEP6QEvent
libKF6XmlGui.so.6:_ZN13KXmlGuiWindow8setupGUIE6QFlagsINS_20StandardWindowOptionEERK7QString
libKF6XmlGui.so.6:_ZN13KXmlGuiWindowD0Ev
libKF6XmlGui.so.6:_ZN13KXmlGuiWindowD1Ev
libKF6XmlGui.so.6:_ZN14KXMLGUIBuilder11finalizeGUIEP13KXMLGUIClient
libKF6XmlGui.so.6:_ZN14KXMLGUIBuilder12virtual_hookEiPv
libKF6XmlGui.so.6:_ZN14KXMLGUIBuilder15createContainerEP7QWidgetiRK11QDomElementRP7QAction
libKF6XmlGui.so.6:_ZN14KXMLGUIBuilder15removeContainerEP7QWidgetS1_R11QDomElementP7QAction
libKF6XmlGui.so.6:_ZN14KXMLGUIBuilder19createCustomElementEP7QWidgetiRK11QDomElement
libKF6XmlGui.so.6:_ZN14KXMLGUIFactory12removeClientEP13KXMLGUIClient
libKF6XmlGui.so.6:_ZN14KXMLGUIFactory14shortcutsSavedEv
libKF6XmlGui.so.6:_ZN14KXMLGUIFactory16staticMetaObjectE
libKF6XmlGui.so.6:_ZN14KXMLGUIFactory23refreshActionPropertiesEv
libKF6XmlGui.so.6:_ZN14KXMLGUIFactory9addClientEP13KXMLGUIClient
libKF6XmlGui.so.6:_ZN14KXMLGUIFactory9containerERK7QStringP13KXMLGUIClientb
libKF6XmlGui.so.6:_ZN17KActionCollection18setDefaultShortcutEP7QActionRK12QKeySequence
libKF6XmlGui.so.6:_ZN17KActionCollection19setDefaultShortcutsEP7QActionRK5QListI12QKeySequenceE
libKF6XmlGui.so.6:_ZN17KActionCollection9addActionERK7QStringP7QAction
libKF6XmlGui.so.6:_ZN17KActionCollection9addActionERK7QStringPK7QObjectPKc
libKF6XmlGui.so.6:_ZN18KAboutPluginDialogC1ERK15KPluginMetaDataP7QWidget
libKF6XmlGui.so.6:_ZN18KAboutPluginDialogD1Ev
libKF6XmlGui.so.6:_ZNK11KMainWindow8toolBarsEv
libKF6XmlGui.so.6:_ZNK13KXMLGUIClient11domDocumentEv
libKF6XmlGui.so.6:_ZNK13KXMLGUIClient12localXMLFileEv
libKF6XmlGui.so.6:_ZNK13KXMLGUIClient13componentNameEv
libKF6XmlGui.so.6:_ZNK13KXMLGUIClient16actionCollectionEv
libKF6XmlGui.so.6:_ZNK13KXMLGUIClient6actionERK11QDomElement
libKF6XmlGui.so.6:_ZNK13KXMLGUIClient7factoryEv
libKF6XmlGui.so.6:_ZNK13KXMLGUIClient7xmlFileEv
libKF6XmlGui.so.6:_ZNK13KXmlGuiWindow10metaObjectEv
libKF6XmlGui.so.6:_ZNK14KXMLGUIBuilder10customTagsEv
libKF6XmlGui.so.6:_ZNK14KXMLGUIBuilder13containerTagsEv
libKF6XmlGui.so.6:_ZNK14KXMLGUIFactory7clientsEv
libKF6XmlGui.so.6:_ZNK17KActionCollection6actionERK7QString
libKF6XmlGui.so.6:_ZTI13KXmlGuiWindow
libKF6XmlGui.so.6:_ZTv0_n24_N13KXmlGuiWindowD0Ev
libKF6XmlGui.so.6:_ZTv0_n24_N13KXmlGuiWindowD1Ev
libPlasmaActivities.so.7:_ZN11KActivities16ResourceInstance14notifyAccessedERK4QUrlRK7QString
libQMobipocket6.so.3:_ZN10Mobipocket8DocumentC1EP9QIODevice
libQMobipocket6.so.3:_ZNK10Mobipocket8Document10imageCountEv
libQMobipocket6.so.3:_ZNK10Mobipocket8Document4textEi
libQMobipocket6.so.3:_ZNK10Mobipocket8Document6hasDRMEv
libQMobipocket6.so.3:_ZNK10Mobipocket8Document7isValidEv
libQMobipocket6.so.3:_ZNK10Mobipocket8Document8getImageEi
libQMobipocket6.so.3:_ZNK10Mobipocket8Document8metadataEv
libQt6Core.so.6:_Z13comparesEqualRK4QUrlS1_
libQt6Core.so.6:_Z13comparesEqualRK9QMimeTypeS1_
libQt6Core.so.6:_Z15compareThreeWayRK4QUrlS1_
libQt6Core.so.6:_Z15compareThreeWayRK9QDateTimeS1_
libQt6Core.so.6:_Z20qEnvironmentVariablePKc
libQt6Core.so.6:_Z20qt_qFindChild_helperPK7QObject14QAnyStringViewRK11QMetaObject6QFlagsIN2Qt15FindChildOptionEE
libQt6Core.so.6:_Z21qRegisterResourceDataiPKhS0_S0_
libQt6Core.so.6:_Z23qUnregisterResourceDataiPKhS0_S0_
libQt6Core.so.6:_Z23qt_qFindChildren_helperPK7QObject14QAnyStringViewRK11QMetaObjectP5QListIPvE6QFlagsIN2Qt15FindChildOptionEE
libQt6Core.so.6:_Z26qt_QMetaEnum_debugOperatorR6QDebugxPK11QMetaObjectPKc
libQt6Core.so.6:_Z30qt_QMetaEnum_flagDebugOperatorR6QDebugyPK11QMetaObjectPKc
libQt6Core.so.6:_Z5qHash11QStringViewm
libQt6Core.so.6:_Z5qHashRK4QUrlm
libQt6Core.so.6:_Z5qHashRK9QMimeTypem
libQt6Core.so.6:_Z7qgetenvPKc
libQt6Core.so.6:_Z9qstrnicmpPKcS0_m
libQt6Core.so.6:_Z9qunsetenvPKc
libQt6Core.so.6:_ZN10QArrayData10deallocateEPS_xx
libQt6Core.so.6:_ZN10QArrayData19reallocateUnalignedEPS_PvxxNS_16AllocationOptionE
libQt6Core.so.6:_ZN10QArrayData8allocateEPPS_xxxNS_16AllocationOptionE
libQt6Core.so.6:_ZN10QArrayData9allocate1EPPS_xNS_16AllocationOptionE
libQt6Core.so.6:_ZN10QByteArray10fromBase64ERKS_6QFlagsINS_12Base64OptionEE
libQt6Core.so.6:_ZN10QByteArray11reallocDataExN10QArrayData16AllocationOptionE
libQt6Core.so.6:_ZN10QByteArray14toLower_helperERS_
libQt6Core.so.6:_ZN10QByteArray14trimmed_helperERS_
libQt6Core.so.6:_ZN10QByteArray5clearEv
libQt6Core.so.6:_ZN10QByteArray6_emptyE
libQt6Core.so.6:_ZN10QByteArray6appendERKS_
libQt6Core.so.6:_ZN10QByteArray6appendEc
libQt6Core.so.6:_ZN10QByteArray6insertEx14QByteArrayView
libQt6Core.so.6:_ZN10QByteArray6resizeEx
libQt6Core.so.6:_ZN10QByteArrayC1EPKcx
libQt6Core.so.6:_ZN10QByteArrayC1Exc
libQt6Core.so.6:_ZN10QByteArrayaSEPKc
libQt6Core.so.6:_ZN10QByteArrayaSERKS_
libQt6Core.so.6:_ZN10QEventLoop4execE6QFlagsINS_17ProcessEventsFlagEE
libQt6Core.so.6:_ZN10QEventLoop4exitEi
libQt6Core.so.6:_ZN10QEventLoop4quitEv
libQt6Core.so.6:_ZN10QEventLoopC1EP7QObject
libQt6Core.so.6:_ZN10QEventLoopD1Ev
libQt6Core.so.6:_ZN10QJsonArrayC1ESt16initializer_listI10QJsonValueE
libQt6Core.so.6:_ZN10QJsonArrayD1Ev
libQt6Core.so.6:_ZN10QJsonValueC1EO10QJsonArray
libQt6Core.so.6:_ZN10QJsonValueC1ERK11QJsonObject
libQt6Core.so.6:_ZN10QJsonValueC1ERK7QString
libQt6Core.so.6:_ZN10QJsonValueD1Ev
libQt6Core.so.6:_ZN10QSemaphore7acquireEi
libQt6Core.so.6:_ZN10QSemaphore7releaseEi
libQt6Core.so.6:_ZN10QSemaphoreC1Ei
libQt6Core.so.6:_ZN10QSemaphoreD1Ev
libQt6Core.so.6:_ZN11QBasicMutex12lockInternalEv
libQt6Core.so.6:_ZN11QBasicMutex15destroyInternalEPv
libQt6Core.so.6:_ZN11QBasicMutex19unlockInternalFutexEPv
libQt6Core.so.6:_ZN11QDataStream11resetStatusEv
libQt6Core.so.6:_ZN11QDataStream9setStatusENS_6StatusE
libQt6Core.so.6:_ZN11QDataStreamC1EP9QIODevice
libQt6Core.so.6:_ZN11QDataStreamD1Ev
libQt6Core.so.6:_ZN11QDataStreamlsEa
libQt6Core.so.6:_ZN11QDataStreamlsEi
libQt6Core.so.6:_ZN11QDataStreamlsEx
libQt6Core.so.6:_ZN11QDataStreamrsERa
libQt6Core.so.6:_ZN11QDataStreamrsERb
libQt6Core.so.6:_ZN11QDataStreamrsERi
libQt6Core.so.6:_ZN11QDataStreamrsERs
libQt6Core.so.6:_ZN11QDataStreamrsERx
libQt6Core.so.6:_ZN11QFileDevice4seekEx
libQt6Core.so.6:_ZN11QFileDevice5closeEv
libQt6Core.so.6:_ZN11QFileDevice5flushEv
libQt6Core.so.6:_ZN11QJsonObjectC1ESt16initializer_listISt4pairI7QString10QJsonValueEE
libQt6Core.so.6:_ZN11QJsonObjectD1Ev
libQt6Core.so.6:_ZN11QJsonObjectixERK7QString
libQt6Core.so.6:_ZN11QMetaObject10ConnectionD1Ev
libQt6Core.so.6:_ZN11QMetaObject14normalizedTypeEPKc
libQt6Core.so.6:_ZN11QMetaObject16invokeMethodImplEP7QObjectPKcN2Qt14ConnectionTypeExPKPKvPKS3_PKPKN9QtPrivate18QMetaTypeInterfaceE
libQt6Core.so.6:_ZN11QMetaObject16invokeMethodImplEP7QObjectPN9QtPrivate15QSlotObjectBaseEN2Qt14ConnectionTypeExPKPKvPKPKcPKPKNS2_18QMetaTypeInterfaceE
libQt6Core.so.6:_ZN11QMetaObject18connectSlotsByNameEP7QObject
libQt6Core.so.6:_ZN11QMetaObject19normalizedSignatureEPKc
libQt6Core.so.6:_ZN11QMetaObject8activateEP7QObjectPKS_iPPv
libQt6Core.so.6:_ZN11QTextStream11setEncodingEN16QStringConverter8EncodingE
libQt6Core.so.6:_ZN11QTextStream8readLineEx
libQt6Core.so.6:_ZN11QTextStreamC1EP7QString6QFlagsIN13QIODeviceBase12OpenModeFlagEE
libQt6Core.so.6:_ZN11QTextStreamC1EP8_IO_FILE6QFlagsIN13QIODeviceBase12OpenModeFlagEE
libQt6Core.so.6:_ZN11QTextStreamC1EP9QIODevice
libQt6Core.so.6:_ZN11QTextStreamD1Ev
libQt6Core.so.6:_ZN11QTextStreamlsE5QChar
libQt6Core.so.6:_ZN11QTextStreamlsEPKc
libQt6Core.so.6:_ZN11QTextStreamlsEPKv
libQt6Core.so.6:_ZN11QTextStreamlsERK10QByteArray
libQt6Core.so.6:_ZN11QTextStreamlsERK7QString
libQt6Core.so.6:_ZN11QTextStreamlsEc
libQt6Core.so.6:_ZN11QTextStreamlsEd
libQt6Core.so.6:_ZN11QTextStreamlsEf
libQt6Core.so.6:_ZN11QTextStreamlsEi
libQt6Core.so.6:_ZN11QTextStreamlsEj
libQt6Core.so.6:_ZN11QTextStreamlsEm
libQt6Core.so.6:_ZN11QTextStreamlsEt
libQt6Core.so.6:_ZN11QTextStreamlsEx
libQt6Core.so.6:_ZN11QTextStreamlsEy
libQt6Core.so.6:_ZN12QDirIterator4nextEv
libQt6Core.so.6:_ZN12QDirIteratorC1ERK4QDir6QFlagsINS_12IteratorFlagEE
libQt6Core.so.6:_ZN12QDirIteratorD1Ev
libQt6Core.so.6:_ZN13QJsonValueRefaSERK10QJsonValue
libQt6Core.so.6:_ZN13QMimeDatabaseC1Ev
libQt6Core.so.6:_ZN13QMimeDatabaseD1Ev
libQt6Core.so.6:_ZN13QTemporaryDirC1Ev
libQt6Core.so.6:_ZN13QTemporaryDirD1Ev
libQt6Core.so.6:_ZN14QDeadlineTimer16setRemainingTimeExN2Qt9TimerTypeE
libQt6Core.so.6:_ZN14QDeadlineTimerC1ExN2Qt9TimerTypeE
libQt6Core.so.6:_ZN14QStandardPaths14findExecutableERK7QStringRK5QListIS0_E
libQt6Core.so.6:_ZN14QStandardPaths16writableLocationENS_16StandardLocationE
libQt6Core.so.6:_ZN14QStandardPaths6locateENS_16StandardLocationERK7QString6QFlagsINS_12LocateOptionEE
libQt6Core.so.6:_ZN14QStandardPaths9locateAllENS_16StandardLocationERK7QString6QFlagsINS_12LocateOptionEE
libQt6Core.so.6:_ZN14QTemporaryFile13setAutoRemoveEb
libQt6Core.so.6:_ZN14QTemporaryFile15setFileTemplateERK7QString
libQt6Core.so.6:_ZN14QTemporaryFile6renameERK7QString
libQt6Core.so.6:_ZN14QTemporaryFileC1ERK7QString
libQt6Core.so.6:_ZN14QTemporaryFileC1ERK7QStringP7QObject
libQt6Core.so.6:_ZN14QTemporaryFileC1Ev
libQt6Core.so.6:_ZN14QTemporaryFileD1Ev
libQt6Core.so.6:_ZN15QtSharedPointer20ExternalRefCountData9getAndRefEPK7QObject
libQt6Core.so.6:_ZN16QCoreApplication11aboutToQuitENS_14QPrivateSignalE
libQt6Core.so.6:_ZN16QCoreApplication12setAttributeEN2Qt20ApplicationAttributeEb
libQt6Core.so.6:_ZN16QCoreApplication13processEventsE6QFlagsIN10QEventLoop17ProcessEventsFlagEE
libQt6Core.so.6:_ZN16QCoreApplication14applicationPidEv
libQt6Core.so.6:_ZN16QCoreApplication15applicationNameEv
libQt6Core.so.6:_ZN16QCoreApplication16staticMetaObjectE
libQt6Core.so.6:_ZN16QCoreApplication4selfE
libQt6Core.so.6:_ZN16QCoreApplication9postEventEP7QObjectP6QEventi
libQt6Core.so.6:_ZN16QCoreApplication9sendEventEP7QObjectP6QEvent
libQt6Core.so.6:_ZN16QDebugStateSaverC1ER6QDebug
libQt6Core.so.6:_ZN16QDebugStateSaverD1Ev
libQt6Core.so.6:_ZN16QLoggingCategoryC1EPKc9QtMsgType
libQt6Core.so.6:_ZN16QLoggingCategoryD1Ev
libQt6Core.so.6:_ZN16QRandomGenerator10_fillRangeEPvx
libQt6Core.so.6:_ZN16QStringConverter15encodingForHtmlE14QByteArrayView
libQt6Core.so.6:_ZN16QStringConverter18encodingInterfacesE
libQt6Core.so.6:_ZN16QXmlStreamReader11addDataImplERK10QByteArray
libQt6Core.so.6:_ZN16QXmlStreamReader15readElementTextENS_24ReadElementTextBehaviourE
libQt6Core.so.6:_ZN16QXmlStreamReader8readNextEv
libQt6Core.so.6:_ZN16QXmlStreamReaderC1E14QAnyStringView
libQt6Core.so.6:_ZN16QXmlStreamReaderC1Ev
libQt6Core.so.6:_ZN16QXmlStreamReaderC2ERK10QByteArrayNS_21PrivateConstructorTagE
libQt6Core.so.6:_ZN16QXmlStreamReaderD1Ev
libQt6Core.so.6:_ZN18QAbstractItemModel10insertRowsEiiRK11QModelIndex
libQt6Core.so.6:_ZN18QAbstractItemModel10modelResetENS_14QPrivateSignalE
libQt6Core.so.6:_ZN18QAbstractItemModel10removeRowsEiiRK11QModelIndex
libQt6Core.so.6:_ZN18QAbstractItemModel11dataChangedERK11QModelIndexS2_RK5QListIiE
libQt6Core.so.6:_ZN18QAbstractItemModel11moveColumnsERK11QModelIndexiiS2_i
libQt6Core.so.6:_ZN18QAbstractItemModel11qt_metacallEN11QMetaObject4CallEiPPv
libQt6Core.so.6:_ZN18QAbstractItemModel11qt_metacastEPKc
libQt6Core.so.6:_ZN18QAbstractItemModel11rowsRemovedERK11QModelIndexiiNS_14QPrivateSignalE
libQt6Core.so.6:_ZN18QAbstractItemModel11setItemDataERK11QModelIndexRK4QMapIi8QVariantE
libQt6Core.so.6:_ZN18QAbstractItemModel12dropMimeDataEPK9QMimeDataN2Qt10DropActionEiiRK11QModelIndex
libQt6Core.so.6:_ZN18QAbstractItemModel12rowsInsertedERK11QModelIndexiiNS_14QPrivateSignalE
libQt6Core.so.6:_ZN18QAbstractItemModel13clearItemDataERK11QModelIndex
libQt6Core.so.6:_ZN18QAbstractItemModel13endInsertRowsEv
libQt6Core.so.6:_ZN18QAbstractItemModel13endRemoveRowsEv
libQt6Core.so.6:_ZN18QAbstractItemModel13endResetModelEv
libQt6Core.so.6:_ZN18QAbstractItemModel13insertColumnsEiiRK11QModelIndex
libQt6Core.so.6:_ZN18QAbstractItemModel13layoutChangedERK5QListI21QPersistentModelIndexENS_16LayoutChangeHintE
libQt6Core.so.6:_ZN18QAbstractItemModel13removeColumnsEiiRK11QModelIndex
libQt6Core.so.6:_ZN18QAbstractItemModel13setHeaderDataEiN2Qt11OrientationERK8QVarianti
libQt6Core.so.6:_ZN18QAbstractItemModel15beginInsertRowsERK11QModelIndexii
libQt6Core.so.6:_ZN18QAbstractItemModel15beginRemoveRowsERK11QModelIndexii
libQt6Core.so.6:_ZN18QAbstractItemModel15beginResetModelEv
libQt6Core.so.6:_ZN18QAbstractItemModel16staticMetaObjectE
libQt6Core.so.6:_ZN18QAbstractItemModel17resetInternalDataEv
libQt6Core.so.6:_ZN18QAbstractItemModel19modelAboutToBeResetENS_14QPrivateSignalE
libQt6Core.so.6:_ZN18QAbstractItemModel20rowsAboutToBeRemovedERK11QModelIndexiiNS_14QPrivateSignalE
libQt6Core.so.6:_ZN18QAbstractItemModel21rowsAboutToBeInsertedERK11QModelIndexiiNS_14QPrivateSignalE
libQt6Core.so.6:_ZN18QAbstractItemModel22layoutAboutToBeChangedERK5QListI21QPersistentModelIndexENS_16LayoutChangeHintE
libQt6Core.so.6:_ZN18QAbstractItemModel4sortEiN2Qt9SortOrderE
libQt6Core.so.6:_ZN18QAbstractItemModel6revertEv
libQt6Core.so.6:_ZN18QAbstractItemModel6submitEv
libQt6Core.so.6:_ZN18QAbstractItemModel7setDataERK11QModelIndexRK8QVarianti
libQt6Core.so.6:_ZN18QAbstractItemModel8moveRowsERK11QModelIndexiiS2_i
libQt6Core.so.6:_ZN18QAbstractItemModel9fetchMoreERK11QModelIndex
libQt6Core.so.6:_ZN18QAbstractItemModelC2EP7QObject
libQt6Core.so.6:_ZN18QAbstractItemModelD2Ev
libQt6Core.so.6:_ZN18QAbstractListModel11qt_metacallEN11QMetaObject4CallEiPPv
libQt6Core.so.6:_ZN18QAbstractListModel11qt_metacastEPKc
libQt6Core.so.6:_ZN18QAbstractListModel12dropMimeDataEPK9QMimeDataN2Qt10DropActionEiiRK11QModelIndex
libQt6Core.so.6:_ZN18QAbstractListModel16staticMetaObjectE
libQt6Core.so.6:_ZN18QAbstractListModelC2EP7QObject
libQt6Core.so.6:_ZN18QAbstractListModelD2Ev
libQt6Core.so.6:_ZN18QCommandLineOptionC1ERK5QListI7QStringERKS1_S6_S6_
libQt6Core.so.6:_ZN18QCommandLineOptionD1Ev
libQt6Core.so.6:_ZN18QCommandLineParser21addPositionalArgumentERK7QStringS2_S2_
libQt6Core.so.6:_ZN18QCommandLineParser27setSingleDashWordOptionModeENS_24SingleDashWordOptionModeE
libQt6Core.so.6:_ZN18QCommandLineParser7processERK16QCoreApplication
libQt6Core.so.6:_ZN18QCommandLineParser9addOptionERK18QCommandLineOption
libQt6Core.so.6:_ZN18QCommandLineParserC1Ev
libQt6Core.so.6:_ZN18QCommandLineParserD1Ev
libQt6Core.so.6:_ZN18QCryptographicHash4hashE14QByteArrayViewNS_9AlgorithmE
libQt6Core.so.6:_ZN18QRandomGenerator646globalEv
libQt6Core.so.6:_ZN18QRegularExpression10setPatternERK7QString
libQt6Core.so.6:_ZN18QRegularExpression17setPatternOptionsE6QFlagsINS_13PatternOptionEE
libQt6Core.so.6:_ZN18QRegularExpressionC1ERK7QString6QFlagsINS_13PatternOptionEE
libQt6Core.so.6:_ZN18QRegularExpressionC1Ev
libQt6Core.so.6:_ZN18QRegularExpressionD1Ev
libQt6Core.so.6:_ZN19QAbstractProxyModel11qt_metacallEN11QMetaObject4CallEiPPv
libQt6Core.so.6:_ZN19QAbstractProxyModel11qt_metacastEPKc
libQt6Core.so.6:_ZN19QAbstractProxyModel11setItemDataERK11QModelIndexRK4QMapIi8QVariantE
libQt6Core.so.6:_ZN19QAbstractProxyModel12dropMimeDataEPK9QMimeDataN2Qt10DropActionEiiRK11QModelIndex
libQt6Core.so.6:_ZN19QAbstractProxyModel13clearItemDataERK11QModelIndex
libQt6Core.so.6:_ZN19QAbstractProxyModel13setHeaderDataEiN2Qt11OrientationERK8QVarianti
libQt6Core.so.6:_ZN19QAbstractProxyModel14setSourceModelEP18QAbstractItemModel
libQt6Core.so.6:_ZN19QAbstractProxyModel16staticMetaObjectE
libQt6Core.so.6:_ZN19QAbstractProxyModel4sortEiN2Qt9SortOrderE
libQt6Core.so.6:_ZN19QAbstractProxyModel6revertEv
libQt6Core.so.6:_ZN19QAbstractProxyModel6submitEv
libQt6Core.so.6:_ZN19QAbstractProxyModel7setDataERK11QModelIndexRK8QVarianti
libQt6Core.so.6:_ZN19QAbstractProxyModel9fetchMoreERK11QModelIndex
libQt6Core.so.6:_ZN19QAbstractProxyModelC2EP7QObject
libQt6Core.so.6:_ZN19QAbstractProxyModelD2Ev
libQt6Core.so.6:_ZN19QAbstractTableModel11qt_metacallEN11QMetaObject4CallEiPPv
libQt6Core.so.6:_ZN19QAbstractTableModel11qt_metacastEPKc
libQt6Core.so.6:_ZN19QAbstractTableModel12dropMimeDataEPK9QMimeDataN2Qt10DropActionEiiRK11QModelIndex
libQt6Core.so.6:_ZN19QAbstractTableModel16staticMetaObjectE
libQt6Core.so.6:_ZN19QAbstractTableModelC2EP7QObject
libQt6Core.so.6:_ZN19QAbstractTableModelD2Ev
libQt6Core.so.6:_ZN19QItemSelectionModel14currentChangedERK11QModelIndexS2_
libQt6Core.so.6:_ZN19QItemSelectionModel16selectionChangedERK14QItemSelectionS2_
libQt6Core.so.6:_ZN19QItemSelectionModel16staticMetaObjectE
libQt6Core.so.6:_ZN20QStringConverterBase5State5clearEv
libQt6Core.so.6:_ZN21QAbstractConcatenable14appendLatin1ToE13QLatin1StringP5QChar
libQt6Core.so.6:_ZN21QPersistentModelIndexC1ERK11QModelIndex
libQt6Core.so.6:_ZN21QPersistentModelIndexC1ERKS_
libQt6Core.so.6:_ZN21QPersistentModelIndexD1Ev
libQt6Core.so.6:_ZN21QSortFilterProxyModel10insertRowsEiiRK11QModelIndex
libQt6Core.so.6:_ZN21QSortFilterProxyModel10removeRowsEiiRK11QModelIndex
libQt6Core.so.6:_ZN21QSortFilterProxyModel11qt_metacallEN11QMetaObject4CallEiPPv
libQt6Core.so.6:_ZN21QSortFilterProxyModel11qt_metacastEPKc
libQt6Core.so.6:_ZN21QSortFilterProxyModel12dropMimeDataEPK9QMimeDataN2Qt10DropActionEiiRK11QModelIndex
libQt6Core.so.6:_ZN21QSortFilterProxyModel13insertColumnsEiiRK11QModelIndex
libQt6Core.so.6:_ZN21QSortFilterProxyModel13removeColumnsEiiRK11QModelIndex
libQt6Core.so.6:_ZN21QSortFilterProxyModel13setHeaderDataEiN2Qt11OrientationERK8QVarianti
libQt6Core.so.6:_ZN21QSortFilterProxyModel14setSourceModelEP18QAbstractItemModel
libQt6Core.so.6:_ZN21QSortFilterProxyModel16invalidateFilterEv
libQt6Core.so.6:_ZN21QSortFilterProxyModel16staticMetaObjectE
libQt6Core.so.6:_ZN21QSortFilterProxyModel20invalidateRowsFilterEv
libQt6Core.so.6:_ZN21QSortFilterProxyModel20setDynamicSortFilterEb
libQt6Core.so.6:_ZN21QSortFilterProxyModel22setSortCaseSensitivityEN2Qt15CaseSensitivityE
libQt6Core.so.6:_ZN21QSortFilterProxyModel4sortEiN2Qt9SortOrderE
libQt6Core.so.6:_ZN21QSortFilterProxyModel7setDataERK11QModelIndexRK8QVarianti
libQt6Core.so.6:_ZN21QSortFilterProxyModel9fetchMoreERK11QModelIndex
libQt6Core.so.6:_ZN21QSortFilterProxyModelC1EP7QObject
libQt6Core.so.6:_ZN21QSortFilterProxyModelC2EP7QObject
libQt6Core.so.6:_ZN21QSortFilterProxyModelD2Ev
libQt6Core.so.6:_ZN23QRegularExpressionMatchC1Ev
libQt6Core.so.6:_ZN23QRegularExpressionMatchD1Ev
libQt6Core.so.6:_ZN2Qt16staticMetaObjectE
libQt6Core.so.6:_ZN31QRegularExpressionMatchIterator4nextEv
libQt6Core.so.6:_ZN31QRegularExpressionMatchIteratorD1Ev
libQt6Core.so.6:_ZN4QDir11currentPathEv
libQt6Core.so.6:_ZN4QDir14isRelativePathERK7QString
libQt6Core.so.6:_ZN4QDir8homePathEv
libQt6Core.so.6:_ZN4QDir8rootPathEv
libQt6Core.so.6:_ZN4QDir8tempPathEv
libQt6Core.so.6:_ZN4QDir9cleanPathERK7QString
libQt6Core.so.6:_ZN4QDir9setFilterE6QFlagsINS_6FilterEE
libQt6Core.so.6:_ZN4QDirC1ERK7QString
libQt6Core.so.6:_ZN4QDirD1Ev
libQt6Core.so.6:_ZN4QUrl11setFragmentERK7QStringNS_11ParsingModeE
libQt6Core.so.6:_ZN4QUrl13fromLocalFileERK7QString
libQt6Core.so.6:_ZN4QUrl13fromUserInputERK7QStringS2_6QFlagsINS_25UserInputResolutionOptionEE
libQt6Core.so.6:_ZN4QUrl19fromPercentEncodingERK10QByteArray
libQt6Core.so.6:_ZN4QUrl5clearEv
libQt6Core.so.6:_ZN4QUrl7setPathERK7QStringNS_11ParsingModeE
libQt6Core.so.6:_ZN4QUrlC1ERK7QStringNS_11ParsingModeE
libQt6Core.so.6:_ZN4QUrlC1ERKS_
libQt6Core.so.6:_ZN4QUrlC1Ev
libQt6Core.so.6:_ZN4QUrlD1Ev
libQt6Core.so.6:_ZN4QUrlaSERKS_
libQt6Core.so.6:_ZN5QChar10digitValueEDi
libQt6Core.so.6:_ZN5QChar14isSpace_helperEDi
libQt6Core.so.6:_ZN5QChar15isLetter_helperEDi
libQt6Core.so.6:_ZN5QChar15isNumber_helperEDi
libQt6Core.so.6:_ZN5QChar7toLowerEDi
libQt6Core.so.6:_ZN5QChar7toUpperEDi
libQt6Core.so.6:_ZN5QChar8categoryEDi
libQt6Core.so.6:_ZN5QDate10fromStringE11QStringViewN2Qt10DateFormatE
libQt6Core.so.6:_ZN5QFile4copyERK7QString
libQt6Core.so.6:_ZN5QFile4copyERK7QStringS2_
libQt6Core.so.6:_ZN5QFile4openE6QFlagsIN13QIODeviceBase12OpenModeFlagEE
libQt6Core.so.6:_ZN5QFile4openEP8_IO_FILE6QFlagsIN13QIODeviceBase12OpenModeFlagEES2_IN11QFileDevice14FileHandleFlagEE
libQt6Core.so.6:_ZN5QFile4openEi6QFlagsIN13QIODeviceBase12OpenModeFlagEES0_IN11QFileDevice14FileHandleFlagEE
libQt6Core.so.6:_ZN5QFile6existsERK7QString
libQt6Core.so.6:_ZN5QFile6removeERK7QString
libQt6Core.so.6:_ZN5QFile6removeEv
libQt6Core.so.6:_ZN5QFile6renameERK7QStringS2_
libQt6Core.so.6:_ZN5QFileC1ERK7QString
libQt6Core.so.6:_ZN5QFileC1Ev
libQt6Core.so.6:_ZN5QFileD1Ev
libQt6Core.so.6:_ZN5QSize9transposeEv
libQt6Core.so.6:_ZN5QUuid10createUuidEv
libQt6Core.so.6:_ZN6QDebug12putByteArrayEPKcmNS_13Latin1ContentE
libQt6Core.so.6:_ZN6QDebug9putStringEPK5QCharm
libQt6Core.so.6:_ZN6QDebugD1Ev
libQt6Core.so.6:_ZN6QEvent16staticMetaObjectE
libQt6Core.so.6:_ZN6QTimer11setIntervalENSt6chrono8durationIlSt5ratioILl1ELl1000EEEE
libQt6Core.so.6:_ZN6QTimer11setIntervalEi
libQt6Core.so.6:_ZN6QTimer13setSingleShotEb
libQt6Core.so.6:_ZN6QTimer14singleShotImplENSt6chrono8durationIlSt5ratioILl1ELl1000000000EEEEN2Qt9TimerTypeEPK7QObjectPN9QtPrivate15QSlotObjectBaseE
libQt6Core.so.6:_ZN6QTimer16staticMetaObjectE
libQt6Core.so.6:_ZN6QTimer4stopEv
libQt6Core.so.6:_ZN6QTimer5startEi
libQt6Core.so.6:_ZN6QTimer5startEv
libQt6Core.so.6:_ZN6QTimer7timeoutENS_14QPrivateSignalE
libQt6Core.so.6:_ZN6QTimerC1EP7QObject
libQt6Core.so.6:_ZN6QTimerD1Ev
libQt6Core.so.6:_ZN7QBuffer4openE6QFlagsIN13QIODeviceBase12OpenModeFlagEE
libQt6Core.so.6:_ZN7QBuffer4seekEx
libQt6Core.so.6:_ZN7QBuffer7setDataERK10QByteArray
libQt6Core.so.6:_ZN7QBufferC1EP10QByteArrayP7QObject
libQt6Core.so.6:_ZN7QBufferC1EP7QObject
libQt6Core.so.6:_ZN7QBufferD1Ev
libQt6Core.so.6:_ZN7QLocale16languageToStringENS_8LanguageE
libQt6Core.so.6:_ZN7QLocale17territoryToStringENS_7CountryE
libQt6Core.so.6:_ZN7QLocale6systemEv
libQt6Core.so.6:_ZN7QLocaleC1Ev
libQt6Core.so.6:_ZN7QLocaleC2E11QStringView
libQt6Core.so.6:_ZN7QLocaleD1Ev
libQt6Core.so.6:_ZN7QLocaleaSERKS_
libQt6Core.so.6:_ZN7QObject10childEventEP11QChildEvent
libQt6Core.so.6:_ZN7QObject10disconnectEPKS_PKcS1_S3_
libQt6Core.so.6:_ZN7QObject10disconnectERKN11QMetaObject10ConnectionE
libQt6Core.so.6:_ZN7QObject10timerEventEP11QTimerEvent
libQt6Core.so.6:_ZN7QObject11connectImplEPKS_PPvS1_S3_PN9QtPrivate15QSlotObjectBaseEN2Qt14ConnectionTypeEPKiPK11QMetaObject
libQt6Core.so.6:_ZN7QObject11customEventEP6QEvent
libQt6Core.so.6:_ZN7QObject11deleteLaterEv
libQt6Core.so.6:_ZN7QObject11eventFilterEPS_P6QEvent
libQt6Core.so.6:_ZN7QObject11qt_metacallEN11QMetaObject4CallEiPPv
libQt6Core.so.6:_ZN7QObject11qt_metacastEPKc
libQt6Core.so.6:_ZN7QObject12blockSignalsEb
libQt6Core.so.6:_ZN7QObject12moveToThreadEP7QThreadN2Qt15Disambiguated_tE
libQt6Core.so.6:_ZN7QObject13connectNotifyERK11QMetaMethod
libQt6Core.so.6:_ZN7QObject13doSetPropertyEPKcRK8QVariantPS2_
libQt6Core.so.6:_ZN7QObject13setObjectNameE14QAnyStringView
libQt6Core.so.6:_ZN7QObject14disconnectImplEPKS_PPvS1_S3_PK11QMetaObject
libQt6Core.so.6:_ZN7QObject15doSetObjectNameERK7QString
libQt6Core.so.6:_ZN7QObject16disconnectNotifyERK11QMetaMethod
libQt6Core.so.6:_ZN7QObject16staticMetaObjectE
libQt6Core.so.6:_ZN7QObject17removeEventFilterEPS_
libQt6Core.so.6:_ZN7QObject18installEventFilterEPS_
libQt6Core.so.6:_ZN7QObject5eventEP6QEvent
libQt6Core.so.6:_ZN7QObject7connectEPKS_PKcS1_S3_N2Qt14ConnectionTypeE
libQt6Core.so.6:_ZN7QObject9destroyedEPS_
libQt6Core.so.6:_ZN7QObject9setParentEPS_
libQt6Core.so.6:_ZN7QObjectC1EPS_
libQt6Core.so.6:_ZN7QObjectC2EPS_
libQt6Core.so.6:_ZN7QObjectD2Ev
libQt6Core.so.6:_ZN7QString10fromLatin1E14QByteArrayView
libQt6Core.so.6:_ZN7QString11reallocDataExN10QArrayData16AllocationOptionE
libQt6Core.so.6:_ZN7QString13fromLocal8BitE14QByteArrayView
libQt6Core.so.6:_ZN7QString13sliced_helperERS_xx
libQt6Core.so.6:_ZN7QString13toUcs4_helperEPKDsxPDi
libQt6Core.so.6:_ZN7QString13toUtf8_helperERKS_
libQt6Core.so.6:_ZN7QString14toLower_helperERKS_
libQt6Core.so.6:_ZN7QString14toLower_helperERS_
libQt6Core.so.6:_ZN7QString14toUpper_helperERS_
libQt6Core.so.6:_ZN7QString14trimmed_helperERKS_
libQt6Core.so.6:_ZN7QString14trimmed_helperERS_
libQt6Core.so.6:_ZN7QString15toLatin1_helperERKS_
libQt6Core.so.6:_ZN7QString17simplified_helperERKS_
libQt6Core.so.6:_ZN7QString17simplified_helperERS_
libQt6Core.so.6:_ZN7QString17toIntegral_helperE11QStringViewPbi
libQt6Core.so.6:_ZN7QString17toIntegral_helperE11QStringViewPbj
libQt6Core.so.6:_ZN7QString18toLocal8Bit_helperEPK5QCharx
libQt6Core.so.6:_ZN7QString23toLatin1_helper_inplaceERS_
libQt6Core.so.6:_ZN7QString4chopEx
libQt6Core.so.6:_ZN7QString6_emptyE
libQt6Core.so.6:_ZN7QString6appendE13QLatin1String
libQt6Core.so.6:_ZN7QString6appendE5QChar
libQt6Core.so.6:_ZN7QString6appendERKS_
libQt6Core.so.6:_ZN7QString6insertEx13QLatin1String
libQt6Core.so.6:_ZN7QString6insertEx5QChar
libQt6Core.so.6:_ZN7QString6insertExPK5QCharx
libQt6Core.so.6:_ZN7QString6numberEdci
libQt6Core.so.6:_ZN7QString6numberEii
libQt6Core.so.6:_ZN7QString6numberEji
libQt6Core.so.6:_ZN7QString6numberExi
libQt6Core.so.6:_ZN7QString6removeE5QCharN2Qt15CaseSensitivityE
libQt6Core.so.6:_ZN7QString6removeERKS_N2Qt15CaseSensitivityE
libQt6Core.so.6:_ZN7QString6removeExx
libQt6Core.so.6:_ZN7QString6resizeEx
libQt6Core.so.6:_ZN7QString7replaceE13QLatin1StringS0_N2Qt15CaseSensitivityE
libQt6Core.so.6:_ZN7QString7replaceE5QChar13QLatin1StringN2Qt15CaseSensitivityE
libQt6Core.so.6:_ZN7QString7replaceE5QCharS0_N2Qt15CaseSensitivityE
libQt6Core.so.6:_ZN7QString7replaceERK18QRegularExpressionRKS_
libQt6Core.so.6:_ZN7QString7replaceERKS_S1_N2Qt15CaseSensitivityE
libQt6Core.so.6:_ZN7QString7replaceExx5QChar
libQt6Core.so.6:_ZN7QString8fromUcs4EPKDix
libQt6Core.so.6:_ZN7QString8fromUtf8E14QByteArrayView
libQt6Core.so.6:_ZN7QString8truncateEx
libQt6Core.so.6:_ZN7QStringC1E5QChar
libQt6Core.so.6:_ZN7QStringC1EPK5QCharx
libQt6Core.so.6:_ZN7QStringC1ExN2Qt14InitializationE
libQt6Core.so.6:_ZN7QStringC2EPK5QCharx
libQt6Core.so.6:_ZN7QStringaSE13QLatin1String
libQt6Core.so.6:_ZN7QStringaSE5QChar
libQt6Core.so.6:_ZN7QStringaSERKS_
libQt6Core.so.6:_ZN7QThread11qt_metacallEN11QMetaObject4CallEiPPv
libQt6Core.so.6:_ZN7QThread11qt_metacastEPKc
libQt6Core.so.6:_ZN7QThread16staticMetaObjectE
libQt6Core.so.6:_ZN7QThread4quitEv
libQt6Core.so.6:_ZN7QThread4waitE14QDeadlineTimer
libQt6Core.so.6:_ZN7QThread5eventEP6QEvent
libQt6Core.so.6:_ZN7QThread5startENS_8PriorityE
libQt6Core.so.6:_ZN7QThread7startedENS_14QPrivateSignalE
libQt6Core.so.6:_ZN7QThread8finishedENS_14QPrivateSignalE
libQt6Core.so.6:_ZN7QThreadC1EP7QObject
libQt6Core.so.6:_ZN7QThreadC2EP7QObject
libQt6Core.so.6:_ZN7QThreadD1Ev
libQt6Core.so.6:_ZN7QThreadD2Ev
libQt6Core.so.6:_ZN8QProcess13startDetachedERK7QStringRK5QListIS0_ES2_Px
libQt6Core.so.6:_ZN8QProcess14setReadChannelENS_14ProcessChannelE
libQt6Core.so.6:_ZN8QProcess14waitForStartedEi
libQt6Core.so.6:_ZN8QProcess15waitForFinishedEi
libQt6Core.so.6:_ZN8QProcess16staticMetaObjectE
libQt6Core.so.6:_ZN8QProcess19setWorkingDirectoryERK7QString
libQt6Core.so.6:_ZN8QProcess20readAllStandardErrorEv
libQt6Core.so.6:_ZN8QProcess21readAllStandardOutputEv
libQt6Core.so.6:_ZN8QProcess21setProcessChannelModeENS_18ProcessChannelModeE
libQt6Core.so.6:_ZN8QProcess22readyReadStandardErrorENS_14QPrivateSignalE
libQt6Core.so.6:_ZN8QProcess23readyReadStandardOutputENS_14QPrivateSignalE
libQt6Core.so.6:_ZN8QProcess4killEv
libQt6Core.so.6:_ZN8QProcess5startERK7QStringRK5QListIS0_E6QFlagsIN13QIODeviceBase12OpenModeFlagEE
libQt6Core.so.6:_ZN8QProcess8finishedEiNS_10ExitStatusE
libQt6Core.so.6:_ZN8QProcessC1EP7QObject
libQt6Core.so.6:_ZN8QProcessD1Ev
libQt6Core.so.6:_ZN8QVariant13moveConstructE9QMetaTypePv
libQt6Core.so.6:_ZN8QVariantC1E9QMetaTypePKv
libQt6Core.so.6:_ZN8QVariantC1ERK10QByteArray
libQt6Core.so.6:_ZN8QVariantC1ERK5QListI7QStringE
libQt6Core.so.6:_ZN8QVariantC1ERK7QString
libQt6Core.so.6:_ZN8QVariantC1ERKS_
libQt6Core.so.6:_ZN8QVariantC1Eb
libQt6Core.so.6:_ZN8QVariantC1Ed
libQt6Core.so.6:_ZN8QVariantC1Ef
libQt6Core.so.6:_ZN8QVariantC1Ei
libQt6Core.so.6:_ZN8QVariantC1Ej
libQt6Core.so.6:_ZN8QVariantC1Ex
libQt6Core.so.6:_ZN8QVariantD1Ev
libQt6Core.so.6:_ZN8QVariantaSERKS_
libQt6Core.so.6:_ZN9QBitArrayC1Exb
libQt6Core.so.6:_ZN9QDateTime10fromStringE11QStringViewN2Qt10DateFormatE
libQt6Core.so.6:_ZN9QDateTime10fromStringERK7QString11QStringViewi
libQt6Core.so.6:_ZN9QDateTime15currentDateTimeEv
libQt6Core.so.6:_ZN9QDateTime18fromSecsSinceEpochEx
libQt6Core.so.6:_ZN9QDateTimeC1ERKS_
libQt6Core.so.6:_ZN9QDateTimeC1Ev
libQt6Core.so.6:_ZN9QDateTimeD1Ev
libQt6Core.so.6:_ZN9QDateTimeaSERKS_
libQt6Core.so.6:_ZN9QFileInfo6existsERK7QString
libQt6Core.so.6:_ZN9QFileInfo7setFileERK4QDirRK7QString
libQt6Core.so.6:_ZN9QFileInfo7setFileERK7QString
libQt6Core.so.6:_ZN9QFileInfoC1ERK11QFileDevice
libQt6Core.so.6:_ZN9QFileInfoC1ERK4QDirRK7QString
libQt6Core.so.6:_ZN9QFileInfoC1ERK7QString
libQt6Core.so.6:_ZN9QFileInfoC1ERKS_
libQt6Core.so.6:_ZN9QFileInfoC1Ev
libQt6Core.so.6:_ZN9QFileInfoD1Ev
libQt6Core.so.6:_ZN9QFileInfoaSERKS_
libQt6Core.so.6:_ZN9QHashSeed10globalSeedEv
libQt6Core.so.6:_ZN9QIODevice4readEPcx
libQt6Core.so.6:_ZN9QIODevice4readEx
libQt6Core.so.6:_ZN9QIODevice5writeEPKcx
libQt6Core.so.6:_ZN9QIODevice5writeERK10QByteArray
libQt6Core.so.6:_ZN9QIODevice7readAllEv
libQt6Core.so.6:_ZN9QIODevice8readLineEx
libQt6Core.so.6:_ZN9QMetaType10canConvertES_S_
libQt6Core.so.6:_ZN9QMetaType14registerHelperEPKN9QtPrivate18QMetaTypeInterfaceE
libQt6Core.so.6:_ZN9QMetaType25registerConverterFunctionERKSt8functionIFbPKvPvEES_S_
libQt6Core.so.6:_ZN9QMetaType25registerNormalizedTypedefERK10QByteArrayS_
libQt6Core.so.6:_ZN9QMetaType27registerMutableViewFunctionERKSt8functionIFbPvS1_EES_S_
libQt6Core.so.6:_ZN9QMetaType27unregisterConverterFunctionES_S_
libQt6Core.so.6:_ZN9QMetaType29unregisterMutableViewFunctionES_S_
libQt6Core.so.6:_ZN9QMetaType7convertES_PKvS_Pv
libQt6Core.so.6:_ZN9QMetaTypeC1Ei
libQt6Core.so.6:_ZN9QMimeData7setHtmlERK7QString
libQt6Core.so.6:_ZN9QMimeData7setTextERK7QString
libQt6Core.so.6:_ZN9QMimeDataC1Ev
libQt6Core.so.6:_ZN9QMimeType16staticMetaObjectE
libQt6Core.so.6:_ZN9QMimeTypeC1ERKS_
libQt6Core.so.6:_ZN9QMimeTypeC1Ev
libQt6Core.so.6:_ZN9QMimeTypeD1Ev
libQt6Core.so.6:_ZN9QMimeTypeaSERKS_
libQt6Core.so.6:_ZN9QtPrivate10startsWithE11QStringView13QLatin1StringN2Qt15CaseSensitivityE
libQt6Core.so.6:_ZN9QtPrivate11lastIndexOfE11QStringViewxDsN2Qt15CaseSensitivityE
libQt6Core.so.6:_ZN9QtPrivate12argToQStringE14QAnyStringViewmPPKNS_7ArgBaseE
libQt6Core.so.6:_ZN9QtPrivate12equalStringsE11QStringView13QLatin1String
libQt6Core.so.6:_ZN9QtPrivate12equalStringsE11QStringViewS0_
libQt6Core.so.6:_ZN9QtPrivate14compareStringsE11QStringViewS0_N2Qt15CaseSensitivityE
libQt6Core.so.6:_ZN9QtPrivate15convertToLatin1E11QStringView
libQt6Core.so.6:_ZN9QtPrivate16QStringList_joinEPK5QListI7QStringEPK5QCharx
libQt6Core.so.6:_ZN9QtPrivate17expectedAllocSizeEmm
libQt6Core.so.6:_ZN9QtPrivate18QStringList_filterEPK5QListI7QStringE11QStringViewN2Qt15CaseSensitivityE
libQt6Core.so.6:_ZN9QtPrivate19QStringList_indexOfERK5QListI7QStringE11QStringViewxN2Qt15CaseSensitivityE
libQt6Core.so.6:_ZN9QtPrivate20QStringList_containsEPK5QListI7QStringE11QStringViewN2Qt15CaseSensitivityE
libQt6Core.so.6:_ZN9QtPrivate25QMetaTypeInterfaceWrapperI10QByteArrayE8metaTypeE
libQt6Core.so.6:_ZN9QtPrivate25QMetaTypeInterfaceWrapperI11QModelIndexE8metaTypeE
libQt6Core.so.6:_ZN9QtPrivate25QMetaTypeInterfaceWrapperI4QUrlE8metaTypeE
libQt6Core.so.6:_ZN9QtPrivate25QMetaTypeInterfaceWrapperI5QListI7QStringEE8metaTypeE
libQt6Core.so.6:_ZN9QtPrivate25QMetaTypeInterfaceWrapperI5QSizeE8metaTypeE
libQt6Core.so.6:_ZN9QtPrivate25QMetaTypeInterfaceWrapperI6QPointE8metaTypeE
libQt6Core.so.6:_ZN9QtPrivate25QMetaTypeInterfaceWrapperI7QStringE8metaTypeE
libQt6Core.so.6:_ZN9QtPrivate25QMetaTypeInterfaceWrapperI9QDateTimeE8metaTypeE
libQt6Core.so.6:_ZN9QtPrivate25QMetaTypeInterfaceWrapperIP7QObjectE8metaTypeE
libQt6Core.so.6:_ZN9QtPrivate25QMetaTypeInterfaceWrapperIbE8metaTypeE
libQt6Core.so.6:_ZN9QtPrivate25QMetaTypeInterfaceWrapperIdE8metaTypeE
libQt6Core.so.6:_ZN9QtPrivate25QMetaTypeInterfaceWrapperIiE8metaTypeE
libQt6Core.so.6:_ZN9QtPrivate25QMetaTypeInterfaceWrapperIjE8metaTypeE
libQt6Core.so.6:_ZN9QtPrivate52hasRegisteredConverterFunctionToIterableMetaSequenceE9QMetaType
libQt6Core.so.6:_ZN9QtPrivate54hasRegisteredMutableViewFunctionToIterableMetaSequenceE9QMetaType
libQt6Core.so.6:_ZN9QtPrivate7trimmedE11QStringView
libQt6Core.so.6:_ZN9QtPrivate8qustrchrE11QStringViewDs
libQt6Core.so.6:_ZN9QtPrivate9sizedFreeEPvm
libQt6Core.so.6:_ZNK10QByteArray5toHexEc
libQt6Core.so.6:_ZNK10QByteArray8toBase64E6QFlagsINS_12Base64OptionEE
libQt6Core.so.6:_ZNK10QJsonValue5toIntEi
libQt6Core.so.6:_ZNK10QJsonValue6toBoolEb
libQt6Core.so.6:_ZNK10QJsonValue8toStringEv
libQt6Core.so.6:_ZNK11QDataStream26isDeviceTransactionStartedEv
libQt6Core.so.6:_ZNK11QFileDevice5errorEv
libQt6Core.so.6:_ZNK11QFileDevice6handleEv
libQt6Core.so.6:_ZNK11QJsonObject5valueERK7QString
libQt6Core.so.6:_ZNK11QJsonObjectixERK7QString
libQt6Core.so.6:_ZNK11QMetaObject11indexOfSlotEPKc
libQt6Core.so.6:_ZNK11QMetaObject2trEPKcS1_i
libQt6Core.so.6:_ZNK11QMetaObject4castEPK7QObject
libQt6Core.so.6:_ZNK11QMetaObject9classNameEv
libQt6Core.so.6:_ZNK11QObjectData17dynamicMetaObjectEv
libQt6Core.so.6:_ZNK11QStringView5splitE5QChar6QFlagsIN2Qt18SplitBehaviorFlagsEENS2_15CaseSensitivityE
libQt6Core.so.6:_ZNK11QStringView5splitERK18QRegularExpression6QFlagsIN2Qt18SplitBehaviorFlagsEE
libQt6Core.so.6:_ZNK11QStringView7toFloatEPb
libQt6Core.so.6:_ZNK11QStringView8toDoubleEPb
libQt6Core.so.6:_ZNK11QTextStream5atEndEv
libQt6Core.so.6:_ZNK12QDirIterator7hasNextEv
libQt6Core.so.6:_ZNK12QDirIterator8fileInfoEv
libQt6Core.so.6:_ZNK13QJsonValueRef8toObjectEv
libQt6Core.so.6:_ZNK13QMimeDatabase14mimeTypeForUrlERK4QUrl
libQt6Core.so.6:_ZNK13QMimeDatabase15mimeTypeForDataERK10QByteArray
libQt6Core.so.6:_ZNK13QMimeDatabase15mimeTypeForFileERK7QStringNS_9MatchModeE
libQt6Core.so.6:_ZNK13QMimeDatabase15mimeTypeForNameERK7QString
libQt6Core.so.6:_ZNK13QMimeDatabase26mimeTypeForFileNameAndDataERK7QStringRK10QByteArray
libQt6Core.so.6:_ZNK13QTemporaryDir4pathEv
libQt6Core.so.6:_ZNK14QDeadlineTimer10hasExpiredEv
libQt6Core.so.6:_ZNK14QItemSelection7indexesEv
libQt6Core.so.6:_ZNK14QMessageLogger5debugEv
libQt6Core.so.6:_ZNK14QMessageLogger5fatalEPKcz
libQt6Core.so.6:_ZNK14QMessageLogger7warningEv
libQt6Core.so.6:_ZNK14QMessageLogger8criticalEv
libQt6Core.so.6:_ZNK14QTemporaryFile8fileNameEv
libQt6Core.so.6:_ZNK16QXmlStreamReader10attributesEv
libQt6Core.so.6:_ZNK16QXmlStreamReader11errorStringEv
libQt6Core.so.6:_ZNK16QXmlStreamReader4nameEv
libQt6Core.so.6:_ZNK16QXmlStreamReader4textEv
libQt6Core.so.6:_ZNK16QXmlStreamReader5atEndEv
libQt6Core.so.6:_ZNK16QXmlStreamReader5errorEv
libQt6Core.so.6:_ZNK16QXmlStreamReader9tokenTypeEv
libQt6Core.so.6:_ZNK18QAbstractItemModel10checkIndexERK11QModelIndex6QFlagsINS_16CheckIndexOptionEE
libQt6Core.so.6:_ZNK18QAbstractItemModel10headerDataEiN2Qt11OrientationEi
libQt6Core.so.6:_ZNK18QAbstractItemModel12canFetchMoreERK11QModelIndex
libQt6Core.so.6:_ZNK18QAbstractItemModel15canDropMimeDataEPK9QMimeDataN2Qt10DropActionEiiRK11QModelIndex
libQt6Core.so.6:_ZNK18QAbstractItemModel20supportedDragActionsEv
libQt6Core.so.6:_ZNK18QAbstractItemModel20supportedDropActionsEv
libQt6Core.so.6:_ZNK18QAbstractItemModel4spanERK11QModelIndex
libQt6Core.so.6:_ZNK18QAbstractItemModel5buddyERK11QModelIndex
libQt6Core.so.6:_ZNK18QAbstractItemModel5flagsERK11QModelIndex
libQt6Core.so.6:_ZNK18QAbstractItemModel5matchERK11QModelIndexiRK8QVarianti6QFlagsIN2Qt9MatchFlagEE
libQt6Core.so.6:_ZNK18QAbstractItemModel7siblingEiiRK11QModelIndex
libQt6Core.so.6:_ZNK18QAbstractItemModel8hasIndexEiiRK11QModelIndex
libQt6Core.so.6:_ZNK18QAbstractItemModel8itemDataERK11QModelIndex
libQt6Core.so.6:_ZNK18QAbstractItemModel8mimeDataERK5QListI11QModelIndexE
libQt6Core.so.6:_ZNK18QAbstractItemModel9mimeTypesEv
libQt6Core.so.6:_ZNK18QAbstractItemModel9multiDataERK11QModelIndex18QModelRoleDataSpan
libQt6Core.so.6:_ZNK18QAbstractItemModel9roleNamesEv
libQt6Core.so.6:_ZNK18QAbstractListModel11columnCountERK11QModelIndex
libQt6Core.so.6:_ZNK18QAbstractListModel11hasChildrenERK11QModelIndex
libQt6Core.so.6:_ZNK18QAbstractListModel5flagsERK11QModelIndex
libQt6Core.so.6:_ZNK18QAbstractListModel5indexEiiRK11QModelIndex
libQt6Core.so.6:_ZNK18QAbstractListModel6parentERK11QModelIndex
libQt6Core.so.6:_ZNK18QAbstractListModel7siblingEiiRK11QModelIndex
libQt6Core.so.6:_ZNK18QCommandLineParser19positionalArgumentsEv
libQt6Core.so.6:_ZNK18QCommandLineParser5isSetERK7QString
libQt6Core.so.6:_ZNK18QCommandLineParser5valueERK7QString
libQt6Core.so.6:_ZNK18QRegularExpression11globalMatchERK7QStringxNS_9MatchTypeE6QFlagsINS_11MatchOptionEE
libQt6Core.so.6:_ZNK18QRegularExpression5matchERK7QStringxNS_9MatchTypeE6QFlagsINS_11MatchOptionEE
libQt6Core.so.6:_ZNK19QAbstractProxyModel10headerDataEiN2Qt11OrientationEi
libQt6Core.so.6:_ZNK19QAbstractProxyModel11hasChildrenERK11QModelIndex
libQt6Core.so.6:_ZNK19QAbstractProxyModel11sourceModelEv
libQt6Core.so.6:_ZNK19QAbstractProxyModel12canFetchMoreERK11QModelIndex
libQt6Core.so.6:_ZNK19QAbstractProxyModel15canDropMimeDataEPK9QMimeDataN2Qt10DropActionEiiRK11QModelIndex
libQt6Core.so.6:_ZNK19QAbstractProxyModel20mapSelectionToSourceERK14QItemSelection
libQt6Core.so.6:_ZNK19QAbstractProxyModel20supportedDragActionsEv
libQt6Core.so.6:_ZNK19QAbstractProxyModel20supportedDropActionsEv
libQt6Core.so.6:_ZNK19QAbstractProxyModel22mapSelectionFromSourceERK14QItemSelection
libQt6Core.so.6:_ZNK19QAbstractProxyModel4dataERK11QModelIndexi
libQt6Core.so.6:_ZNK19QAbstractProxyModel4spanERK11QModelIndex
libQt6Core.so.6:_ZNK19QAbstractProxyModel5buddyERK11QModelIndex
libQt6Core.so.6:_ZNK19QAbstractProxyModel5flagsERK11QModelIndex
libQt6Core.so.6:_ZNK19QAbstractProxyModel7siblingEiiRK11QModelIndex
libQt6Core.so.6:_ZNK19QAbstractProxyModel8itemDataERK11QModelIndex
libQt6Core.so.6:_ZNK19QAbstractProxyModel8mimeDataERK5QListI11QModelIndexE
libQt6Core.so.6:_ZNK19QAbstractProxyModel9mimeTypesEv
libQt6Core.so.6:_ZNK19QAbstractProxyModel9roleNamesEv
libQt6Core.so.6:_ZNK19QAbstractTableModel11hasChildrenERK11QModelIndex
libQt6Core.so.6:_ZNK19QAbstractTableModel5flagsERK11QModelIndex
libQt6Core.so.6:_ZNK19QAbstractTableModel5indexEiiRK11QModelIndex
libQt6Core.so.6:_ZNK19QAbstractTableModel6parentERK11QModelIndex
libQt6Core.so.6:_ZNK19QAbstractTableModel7siblingEiiRK11QModelIndex
libQt6Core.so.6:_ZNK19QItemSelectionModel12hasSelectionEv
libQt6Core.so.6:_ZNK19QItemSelectionModel15selectedIndexesEv
libQt6Core.so.6:_ZNK20QXmlStreamAttributes5valueE14QAnyStringView
libQt6Core.so.6:_ZNK21QSortFilterProxyModel10headerDataEiN2Qt11OrientationEi
libQt6Core.so.6:_ZNK21QSortFilterProxyModel11columnCountERK11QModelIndex
libQt6Core.so.6:_ZNK21QSortFilterProxyModel11hasChildrenERK11QModelIndex
libQt6Core.so.6:_ZNK21QSortFilterProxyModel11mapToSourceERK11QModelIndex
libQt6Core.so.6:_ZNK21QSortFilterProxyModel12canFetchMoreERK11QModelIndex
libQt6Core.so.6:_ZNK21QSortFilterProxyModel13mapFromSourceERK11QModelIndex
libQt6Core.so.6:_ZNK21QSortFilterProxyModel19filterAcceptsColumnEiRK11QModelIndex
libQt6Core.so.6:_ZNK21QSortFilterProxyModel20mapSelectionToSourceERK14QItemSelection
libQt6Core.so.6:_ZNK21QSortFilterProxyModel20supportedDropActionsEv
libQt6Core.so.6:_ZNK21QSortFilterProxyModel22mapSelectionFromSourceERK14QItemSelection
libQt6Core.so.6:_ZNK21QSortFilterProxyModel4dataERK11QModelIndexi
libQt6Core.so.6:_ZNK21QSortFilterProxyModel4spanERK11QModelIndex
libQt6Core.so.6:_ZNK21QSortFilterProxyModel5buddyERK11QModelIndex
libQt6Core.so.6:_ZNK21QSortFilterProxyModel5flagsERK11QModelIndex
libQt6Core.so.6:_ZNK21QSortFilterProxyModel5indexEiiRK11QModelIndex
libQt6Core.so.6:_ZNK21QSortFilterProxyModel5matchERK11QModelIndexiRK8QVarianti6QFlagsIN2Qt9MatchFlagEE
libQt6Core.so.6:_ZNK21QSortFilterProxyModel6parentERK11QModelIndex
libQt6Core.so.6:_ZNK21QSortFilterProxyModel7siblingEiiRK11QModelIndex
libQt6Core.so.6:_ZNK21QSortFilterProxyModel8lessThanERK11QModelIndexS2_
libQt6Core.so.6:_ZNK21QSortFilterProxyModel8mimeDataERK5QListI11QModelIndexE
libQt6Core.so.6:_ZNK21QSortFilterProxyModel8rowCountERK11QModelIndex
libQt6Core.so.6:_ZNK21QSortFilterProxyModel9mimeTypesEv
libQt6Core.so.6:_ZNK23QRegularExpressionMatch13capturedStartEi
libQt6Core.so.6:_ZNK23QRegularExpressionMatch8capturedEi
libQt6Core.so.6:_ZNK23QRegularExpressionMatch8hasMatchEv
libQt6Core.so.6:_ZNK31QRegularExpressionMatchIterator7hasNextEv
libQt6Core.so.6:_ZNK4QDir16absoluteFilePathERK7QString
libQt6Core.so.6:_ZNK4QDir6mkpathERK7QStringSt8optionalI6QFlagsIN11QFileDevice10PermissionEEE
libQt6Core.so.6:_ZNK4QUrl10isRelativeEv
libQt6Core.so.6:_ZNK4QUrl11hasFragmentEv
libQt6Core.so.6:_ZNK4QUrl11isLocalFileEv
libQt6Core.so.6:_ZNK4QUrl11toLocalFileEv
libQt6Core.so.6:_ZNK4QUrl15toDisplayStringE12QUrlTwoFlagsINS_19UrlFormattingOptionENS_25ComponentFormattingOptionEE
libQt6Core.so.6:_ZNK4QUrl3urlE12QUrlTwoFlagsINS_19UrlFormattingOptionENS_25ComponentFormattingOptionEE
libQt6Core.so.6:_ZNK4QUrl4hostE6QFlagsINS_25ComponentFormattingOptionEE
libQt6Core.so.6:_ZNK4QUrl4pathE6QFlagsINS_25ComponentFormattingOptionEE
libQt6Core.so.6:_ZNK4QUrl4portEi
libQt6Core.so.6:_ZNK4QUrl6schemeEv
libQt6Core.so.6:_ZNK4QUrl7isEmptyEv
libQt6Core.so.6:_ZNK4QUrl7isValidEv
libQt6Core.so.6:_ZNK4QUrl8adjustedE12QUrlTwoFlagsINS_19UrlFormattingOptionENS_25ComponentFormattingOptionEE
libQt6Core.so.6:_ZNK4QUrl8fileNameE6QFlagsINS_25ComponentFormattingOptionEE
libQt6Core.so.6:_ZNK4QUrl8fragmentE6QFlagsINS_25ComponentFormattingOptionEE
libQt6Core.so.6:_ZNK4QUrl8passwordE6QFlagsINS_25ComponentFormattingOptionEE
libQt6Core.so.6:_ZNK4QUrl8resolvedERKS_
libQt6Core.so.6:_ZNK4QUrl8toStringE12QUrlTwoFlagsINS_19UrlFormattingOptionENS_25ComponentFormattingOptionEE
libQt6Core.so.6:_ZNK4QUrl8userNameE6QFlagsINS_25ComponentFormattingOptionEE
libQt6Core.so.6:_ZNK5QFile4sizeEv
libQt6Core.so.6:_ZNK5QFile6existsEv
libQt6Core.so.6:_ZNK5QFile8fileNameEv
libQt6Core.so.6:_ZNK5QRect10intersectsERKS_
libQt6Core.so.6:_ZNK5QRect10normalizedEv
libQt6Core.so.6:_ZNK5QRect8containsERK6QPointb
libQt6Core.so.6:_ZNK5QRect8containsERKS_b
libQt6Core.so.6:_ZNK5QRectanERKS_
libQt6Core.so.6:_ZNK5QRectorERKS_
libQt6Core.so.6:_ZNK5QSize6scaledERKS_N2Qt15AspectRatioModeE
libQt6Core.so.6:_ZNK5QUuid8toStringENS_12StringFormatE
libQt6Core.so.6:_ZNK6QRectF10normalizedEv
libQt6Core.so.6:_ZNK6QRectF13toAlignedRectEv
libQt6Core.so.6:_ZNK6QRectFanERKS_
libQt6Core.so.6:_ZNK6QTimer13remainingTimeEv
libQt6Core.so.6:_ZNK6QTimer7timerIdEv
libQt6Core.so.6:_ZNK6QTimer8isActiveEv
libQt6Core.so.6:_ZNK7QLocale12decimalPointEv
libQt6Core.so.6:_ZNK7QLocale14dateTimeFormatENS_10FormatTypeE
libQt6Core.so.6:_ZNK7QLocale17measurementSystemEv
libQt6Core.so.6:_ZNK7QLocale4nameENS_12TagSeparatorE
libQt6Core.so.6:_ZNK7QLocale8languageEv
libQt6Core.so.6:_ZNK7QLocale8toDoubleE11QStringViewPb
libQt6Core.so.6:_ZNK7QLocale8toStringE5QDateNS_10FormatTypeE
libQt6Core.so.6:_ZNK7QLocale8toStringERK9QDateTime11QStringView
libQt6Core.so.6:_ZNK7QLocale8toStringERK9QDateTimeNS_10FormatTypeE
libQt6Core.so.6:_ZNK7QLocale8toStringEdci
libQt6Core.so.6:_ZNK7QLocale9monthNameEiNS_10FormatTypeE
libQt6Core.so.6:_ZNK7QLocale9territoryEv
libQt6Core.so.6:_ZNK7QObject10objectNameEv
libQt6Core.so.6:_ZNK7QObject6senderEv
libQt6Core.so.6:_ZNK7QObject8propertyEPKc
libQt6Core.so.6:_ZNK7QString10normalizedENS_17NormalizationFormEN5QChar14UnicodeVersionE
libQt6Core.so.6:_ZNK7QString10startsWithE13QLatin1StringN2Qt15CaseSensitivityE
libQt6Core.so.6:_ZNK7QString10startsWithE5QCharN2Qt15CaseSensitivityE
libQt6Core.so.6:_ZNK7QString10startsWithERKS_N2Qt15CaseSensitivityE
libQt6Core.so.6:_ZNK7QString11lastIndexOfERKS_xN2Qt15CaseSensitivityE
libQt6Core.so.6:_ZNK7QString11toStdStringB5cxx11Ev
libQt6Core.so.6:_ZNK7QString13toHtmlEscapedEv
libQt6Core.so.6:_ZNK7QString5countE5QCharN2Qt15CaseSensitivityE
libQt6Core.so.6:_ZNK7QString5countERKS_N2Qt15CaseSensitivityE
libQt6Core.so.6:_ZNK7QString5splitE5QChar6QFlagsIN2Qt18SplitBehaviorFlagsEENS2_15CaseSensitivityE
libQt6Core.so.6:_ZNK7QString5splitERK18QRegularExpression6QFlagsIN2Qt18SplitBehaviorFlagsEE
libQt6Core.so.6:_ZNK7QString5splitERKS_6QFlagsIN2Qt18SplitBehaviorFlagsEENS3_15CaseSensitivityE
libQt6Core.so.6:_ZNK7QString7compareERKS_N2Qt15CaseSensitivityE
libQt6Core.so.6:_ZNK7QString7indexOfE13QLatin1StringxN2Qt15CaseSensitivityE
libQt6Core.so.6:_ZNK7QString7indexOfERKS_xN2Qt15CaseSensitivityE
libQt6Core.so.6:_ZNK7QString7sectionERKS_xx6QFlagsINS_11SectionFlagEE
libQt6Core.so.6:_ZNK7QString7toFloatEPb
libQt6Core.so.6:_ZNK7QString8arg_implE14QAnyStringViewi5QChar
libQt6Core.so.6:_ZNK7QString8arg_implEdici5QChar
libQt6Core.so.6:_ZNK7QString8arg_implExii5QChar
libQt6Core.so.6:_ZNK7QString8arg_implEyii5QChar
libQt6Core.so.6:_ZNK7QString8containsERK18QRegularExpressionP23QRegularExpressionMatch
libQt6Core.so.6:_ZNK7QString8endsWithE13QLatin1StringN2Qt15CaseSensitivityE
libQt6Core.so.6:_ZNK7QString8endsWithE5QCharN2Qt15CaseSensitivityE
libQt6Core.so.6:_ZNK7QString8endsWithERKS_N2Qt15CaseSensitivityE
libQt6Core.so.6:_ZNK7QString8toDoubleEPb
libQt6Core.so.6:_ZNK7QThread10isFinishedEv
libQt6Core.so.6:_ZNK7QThread9isRunningEv
libQt6Core.so.6:_ZNK8QProcess8exitCodeEv
libQt6Core.so.6:_ZNK8QVariant11toByteArrayEv
libQt6Core.so.6:_ZNK8QVariant12qdebugHelperE6QDebug
libQt6Core.so.6:_ZNK8QVariant12toStringListEv
libQt6Core.so.6:_ZNK8QVariant5toIntEPb
libQt6Core.so.6:_ZNK8QVariant6equalsERKS_
libQt6Core.so.6:_ZNK8QVariant6isNullEv
libQt6Core.so.6:_ZNK8QVariant6toBoolEv
libQt6Core.so.6:_ZNK8QVariant8toDoubleEPb
libQt6Core.so.6:_ZNK8QVariant8toStringEv
libQt6Core.so.6:_ZNK9QDateTime10toTimeSpecEN2Qt8TimeSpecE
libQt6Core.so.6:_ZNK9QDateTime6equalsERKS_
libQt6Core.so.6:_ZNK9QDateTime7isValidEv
libQt6Core.so.6:_ZNK9QDateTime8toStringEN2Qt10DateFormatE
libQt6Core.so.6:_ZNK9QDateTime8toStringERK7QString
libQt6Core.so.6:_ZNK9QFileInfo10isReadableEv
libQt6Core.so.6:_ZNK9QFileInfo10isWritableEv
libQt6Core.so.6:_ZNK9QFileInfo11absoluteDirEv
libQt6Core.so.6:_ZNK9QFileInfo12absolutePathEv
libQt6Core.so.6:_ZNK9QFileInfo13canonicalPathEv
libQt6Core.so.6:_ZNK9QFileInfo13symLinkTargetEv
libQt6Core.so.6:_ZNK9QFileInfo14completeSuffixEv
libQt6Core.so.6:_ZNK9QFileInfo16absoluteFilePathEv
libQt6Core.so.6:_ZNK9QFileInfo16completeBaseNameEv
libQt6Core.so.6:_ZNK9QFileInfo17canonicalFilePathEv
libQt6Core.so.6:_ZNK9QFileInfo3dirEv
libQt6Core.so.6:_ZNK9QFileInfo4pathEv
libQt6Core.so.6:_ZNK9QFileInfo4sizeEv
libQt6Core.so.6:_ZNK9QFileInfo5isDirEv
libQt6Core.so.6:_ZNK9QFileInfo6existsEv
libQt6Core.so.6:_ZNK9QFileInfo6isFileEv
libQt6Core.so.6:_ZNK9QFileInfo6suffixEv
libQt6Core.so.6:_ZNK9QFileInfo8baseNameEv
libQt6Core.so.6:_ZNK9QFileInfo8fileNameEv
libQt6Core.so.6:_ZNK9QFileInfo8filePathEv
libQt6Core.so.6:_ZNK9QFileInfo8fileTimeEN11QFileDevice8FileTimeE
libQt6Core.so.6:_ZNK9QFileInfo9isSymLinkEv
libQt6Core.so.6:_ZNK9QIODevice10isReadableEv
libQt6Core.so.6:_ZNK9QIODevice11canReadLineEv
libQt6Core.so.6:_ZNK9QIODevice11errorStringEv
libQt6Core.so.6:_ZNK9QMimeData7hasUrlsEv
libQt6Core.so.6:_ZNK9QMimeType12filterStringEv
libQt6Core.so.6:_ZNK9QMimeType12globPatternsEv
libQt6Core.so.6:_ZNK9QMimeType15preferredSuffixEv
libQt6Core.so.6:_ZNK9QMimeType4nameEv
libQt6Core.so.6:_ZNK9QMimeType7commentEv
libQt6Core.so.6:_ZNK9QMimeType7isValidEv
libQt6Core.so.6:_ZNK9QMimeType8iconNameEv
libQt6Core.so.6:_ZNK9QMimeType8inheritsERK7QString
libQt6Core.so.6:_ZNK9QMimeType8suffixesEv
libQt6Core.so.6:_ZNK9QMimeType9isDefaultEv
libQt6Core.so.6:_ZNKR7QString3midExx
libQt6Core.so.6:_ZNO7QString3midExx
libQt6Core.so.6:_ZTI18QAbstractItemModel
libQt6Core.so.6:_ZTI18QAbstractListModel
libQt6Core.so.6:_ZTI19QAbstractProxyModel
libQt6Core.so.6:_ZTI19QAbstractTableModel
libQt6Core.so.6:_ZTI21QSortFilterProxyModel
libQt6Core.so.6:_ZTI6QEvent
libQt6Core.so.6:_ZTI7QObject
libQt6Core.so.6:_ZTI7QThread
libQt6Core.so.6:_Zls6QDebugPK7QObject
libQt6Core.so.6:_Zls6QDebugRK4QUrl
libQt6Core.so.6:_Zls6QDebugRK6QSizeF
libQt6Core.so.6:_Zls6QDebugRK9QMimeType
libQt6Core.so.6:_ZlsR11QDataStreamRK4QUrl
libQt6Core.so.6:_ZrsR11QDataStreamR4QUrl
libQt6Core.so.6:qt_resourceFeatureZstd
libQt6Core.so.6:qt_version_tag
libQt6DBus.so.6:_Z14qDBusReplyFillRK12QDBusMessageR10QDBusErrorR8QVariant
libQt6DBus.so.6:_Z41qRegisterNormalizedMetaType_QDBusArgumentRK10QByteArray
libQt6DBus.so.6:_Z51qRegisterNormalizedMetaType_QDBusUnixFileDescriptorRK10QByteArray
libQt6DBus.so.6:_ZN10QDBusErrorC1Ev
libQt6DBus.so.6:_ZN12QDBusMessage16createMethodCallERK7QStringS2_S2_S2_
libQt6DBus.so.6:_ZN12QDBusMessageD1Ev
libQt6DBus.so.6:_ZN12QDBusMessagelsERK8QVariant
libQt6DBus.so.6:_ZN13QDBusArgumentC1ERKS_
libQt6DBus.so.6:_ZN13QDBusArgumentC1Ev
libQt6DBus.so.6:_ZN13QDBusArgumentD1Ev
libQt6DBus.so.6:_ZN14QDBusInterfaceC1ERK7QStringS2_S2_RK15QDBusConnectionP7QObject
libQt6DBus.so.6:_ZN14QDBusInterfaceD1Ev
libQt6DBus.so.6:_ZN15QDBusConnection10sessionBusEv
libQt6DBus.so.6:_ZN15QDBusConnection14registerObjectERK7QStringP7QObject6QFlagsINS_14RegisterOptionEE
libQt6DBus.so.6:_ZN15QDBusConnection15registerServiceERK7QString
libQt6DBus.so.6:_ZN15QDBusConnection16unregisterObjectERK7QStringNS_14UnregisterModeE
libQt6DBus.so.6:_ZN15QDBusConnection17unregisterServiceERK7QString
libQt6DBus.so.6:_ZN15QDBusConnection9systemBusEv
libQt6DBus.so.6:_ZN15QDBusConnectionD1Ev
libQt6DBus.so.6:_ZN16QDBusPendingCall15waitForFinishedEv
libQt6DBus.so.6:_ZN16QDBusPendingCallD1Ev
libQt6DBus.so.6:_ZN21QDBusPendingReplyBase12setMetaTypesEiPK9QMetaType
libQt6DBus.so.6:_ZN21QDBusPendingReplyBase6assignERK16QDBusPendingCall
libQt6DBus.so.6:_ZN21QDBusPendingReplyBaseC2Ev
libQt6DBus.so.6:_ZN21QDBusPendingReplyBaseD2Ev
libQt6DBus.so.6:_ZN22QDBusAbstractInterface6doCallEN5QDBus8CallModeERK7QStringPK8QVariantm
libQt6DBus.so.6:_ZN23QDBusUnixFileDescriptorC1ERKS_
libQt6DBus.so.6:_ZN23QDBusUnixFileDescriptorC1Ev
libQt6DBus.so.6:_ZN23QDBusUnixFileDescriptorD1Ev
libQt6DBus.so.6:_ZNK10QDBusError7isValidEv
libQt6DBus.so.6:_ZNK13QDBusArgumentrsER23QDBusUnixFileDescriptor
libQt6DBus.so.6:_ZNK13QDBusArgumentrsERj
libQt6DBus.so.6:_ZNK15QDBusConnection9asyncCallERK12QDBusMessagei
libQt6DBus.so.6:_ZNK15QDBusConnection9interfaceEv
libQt6DBus.so.6:_ZNK16QDBusPendingCall5errorEv
libQt6DBus.so.6:_ZNK16QDBusPendingCall7isValidEv
libQt6DBus.so.6:_ZNK21QDBusPendingReplyBase10argumentAtEi
libQt6DBus.so.6:_ZNK22QDBusAbstractInterface7isValidEv
libQt6DBus.so.6:_ZNK23QDBusUnixFileDescriptor14fileDescriptorEv
libQt6DBus.so.6:_ZNK24QDBusConnectionInterface22registeredServiceNamesEv
libQt6DBus.so.6:_Zls6QDebugRK10QDBusError
libQt6Gui.so.6:_Z52qRegisterNormalizedMetaType_QPageLayout__OrientationRK10QByteArray
libQt6Gui.so.6:_ZN10QClipboard11setMimeDataEP9QMimeDataNS_4ModeE
libQt6Gui.so.6:_ZN10QClipboard7setTextERK7QStringNS_4ModeE
libQt6Gui.so.6:_ZN10QClipboard9setPixmapERK7QPixmapNS_4ModeE
libQt6Gui.so.6:_ZN10QTextBlock8iteratormmEv
libQt6Gui.so.6:_ZN10QTextBlock8iteratorppEv
libQt6Gui.so.6:_ZN10QTextFrame8iteratorppEv
libQt6Gui.so.6:_ZN10QTextTable10appendRowsEi
libQt6Gui.so.6:_ZN10QTextTable10mergeCellsEiiii
libQt6Gui.so.6:_ZN10QTextTable13appendColumnsEi
libQt6Gui.so.6:_ZN10QTransform5scaleEdd
libQt6Gui.so.6:_ZN10QTransform6rotateEdN2Qt4AxisE
libQt6Gui.so.6:_ZN10QTransform9translateEdd
libQt6Gui.so.6:_ZN10QUndoStack10beginMacroERK7QString
libQt6Gui.so.6:_ZN10QUndoStack10resetCleanEv
libQt6Gui.so.6:_ZN10QUndoStack12cleanChangedEb
libQt6Gui.so.6:_ZN10QUndoStack14canRedoChangedEb
libQt6Gui.so.6:_ZN10QUndoStack14canUndoChangedEb
libQt6Gui.so.6:_ZN10QUndoStack16staticMetaObjectE
libQt6Gui.so.6:_ZN10QUndoStack4pushEP12QUndoCommand
libQt6Gui.so.6:_ZN10QUndoStack4redoEv
libQt6Gui.so.6:_ZN10QUndoStack4undoEv
libQt6Gui.so.6:_ZN10QUndoStack5clearEv
libQt6Gui.so.6:_ZN10QUndoStack8endMacroEv
libQt6Gui.so.6:_ZN10QUndoStack8setCleanEv
libQt6Gui.so.6:_ZN10QUndoStackC1EP7QObject
libQt6Gui.so.6:_ZN11QFocusEventC1EN6QEvent4TypeEN2Qt11FocusReasonE
libQt6Gui.so.6:_ZN11QFocusEventD1Ev
libQt6Gui.so.6:_ZN11QIconEngine10actualSizeERK5QSizeN5QIcon4ModeENS3_5StateE
libQt6Gui.so.6:_ZN11QIconEngine12scaledPixmapERK5QSizeN5QIcon4ModeENS3_5StateEd
libQt6Gui.so.6:_ZN11QIconEngine12virtual_hookEiPv
libQt6Gui.so.6:_ZN11QIconEngine14availableSizesEN5QIcon4ModeENS0_5StateE
libQt6Gui.so.6:_ZN11QIconEngine4readER11QDataStream
libQt6Gui.so.6:_ZN11QIconEngine6isNullEv
libQt6Gui.so.6:_ZN11QIconEngine7addFileERK7QStringRK5QSizeN5QIcon4ModeENS6_5StateE
libQt6Gui.so.6:_ZN11QIconEngine8iconNameEv
libQt6Gui.so.6:_ZN11QIconEngine9addPixmapERK7QPixmapN5QIcon4ModeENS3_5StateE
libQt6Gui.so.6:_ZN11QIconEngineC2Ev
libQt6Gui.so.6:_ZN11QIconEngineD2Ev
libQt6Gui.so.6:_ZN11QPageLayoutD1Ev
libQt6Gui.so.6:_ZN11QTextCursor10insertHtmlERK7QString
libQt6Gui.so.6:_ZN11QTextCursor10insertTextERK7QString
libQt6Gui.so.6:_ZN11QTextCursor10insertTextERK7QStringRK15QTextCharFormat
libQt6Gui.so.6:_ZN11QTextCursor11insertBlockERK16QTextBlockFormat
libQt6Gui.so.6:_ZN11QTextCursor11insertBlockERK16QTextBlockFormatRK15QTextCharFormat
libQt6Gui.so.6:_ZN11QTextCursor11insertBlockEv
libQt6Gui.so.6:_ZN11QTextCursor11insertFrameERK16QTextFrameFormat
libQt6Gui.so.6:_ZN11QTextCursor11insertImageERK16QTextImageFormat
libQt6Gui.so.6:_ZN11QTextCursor11insertImageERK6QImageRK7QString
libQt6Gui.so.6:_ZN11QTextCursor11insertImageERK7QString
libQt6Gui.so.6:_ZN11QTextCursor11insertTableEiiRK16QTextTableFormat
libQt6Gui.so.6:_ZN11QTextCursor11setPositionEiNS_8MoveModeE
libQt6Gui.so.6:_ZN11QTextCursor12movePositionENS_13MoveOperationENS_8MoveModeEi
libQt6Gui.so.6:_ZN11QTextCursor13setCharFormatERK15QTextCharFormat
libQt6Gui.so.6:_ZN11QTextCursor18removeSelectedTextEv
libQt6Gui.so.6:_ZN11QTextCursorC1EP13QTextDocument
libQt6Gui.so.6:_ZN11QTextCursorC1ERK10QTextBlock
libQt6Gui.so.6:_ZN11QTextCursorD1Ev
libQt6Gui.so.6:_ZN11QTextFormat11setPropertyEiRK8QVariant
libQt6Gui.so.6:_ZN11QTextFormatC2ERKS_
libQt6Gui.so.6:_ZN11QTextFormatD1Ev
libQt6Gui.so.6:_ZN11QTextFormatD2Ev
libQt6Gui.so.6:_ZN11QTextObject9setFormatERK11QTextFormat
libQt6Gui.so.6:_ZN11QWheelEventC1ERK7QPointFS2_6QPointS3_6QFlagsIN2Qt11MouseButtonEES4_INS5_16KeyboardModifierEENS5_11ScrollPhaseEbNS5_16MouseEventSourceEPK15QPointingDevice
libQt6Gui.so.6:_ZN12QActionGroup10setEnabledEb
libQt6Gui.so.6:_ZN12QActionGroup12removeActionEP7QAction
libQt6Gui.so.6:_ZN12QActionGroup12setExclusiveEb
libQt6Gui.so.6:_ZN12QActionGroup16staticMetaObjectE
libQt6Gui.so.6:_ZN12QActionGroup9addActionEP7QAction
libQt6Gui.so.6:_ZN12QActionGroup9triggeredEP7QAction
libQt6Gui.so.6:_ZN12QActionGroupC1EP7QObject
libQt6Gui.so.6:_ZN12QFontMetricsC1ERK5QFont
libQt6Gui.so.6:_ZN12QFontMetricsD1Ev
libQt6Gui.so.6:_ZN12QImageReader11imageFormatEP9QIODevice
libQt6Gui.so.6:_ZN12QImageReader13setScaledSizeERK5QSize
libQt6Gui.so.6:_ZN12QImageReader16setAutoTransformEb
libQt6Gui.so.6:_ZN12QImageReader21supportedImageFormatsEv
libQt6Gui.so.6:_ZN12QImageReader24setAutoDetectImageFormatEb
libQt6Gui.so.6:_ZN12QImageReader4readEP6QImage
libQt6Gui.so.6:_ZN12QImageReader4readEv
libQt6Gui.so.6:_ZN12QImageReader9setDeviceEP9QIODevice
libQt6Gui.so.6:_ZN12QImageReaderC1EP9QIODeviceRK10QByteArray
libQt6Gui.so.6:_ZN12QImageReaderC1ERK7QStringRK10QByteArray
libQt6Gui.so.6:_ZN12QImageReaderC1Ev
libQt6Gui.so.6:_ZN12QImageReaderD1Ev
libQt6Gui.so.6:_ZN12QKeySequenceC1E15QKeyCombinationS0_S0_S0_
libQt6Gui.so.6:_ZN12QKeySequenceC1ERKS_
libQt6Gui.so.6:_ZN12QKeySequenceC1Eiiii
libQt6Gui.so.6:_ZN12QKeySequenceC1Ev
libQt6Gui.so.6:_ZN12QKeySequenceD1Ev
libQt6Gui.so.6:_ZN12QPaintDeviceC2Ev
libQt6Gui.so.6:_ZN12QPainterPath10addEllipseERK6QRectF
libQt6Gui.so.6:_ZN12QPainterPath10addPolygonERK9QPolygonF
libQt6Gui.so.6:_ZN12QPainterPath11setFillRuleEN2Qt8FillRuleE
libQt6Gui.so.6:_ZN12QPainterPath12closeSubpathEv
libQt6Gui.so.6:_ZN12QPainterPath6lineToERK7QPointF
libQt6Gui.so.6:_ZN12QPainterPath6moveToERK7QPointF
libQt6Gui.so.6:_ZN12QPainterPath6quadToERK7QPointFS2_
libQt6Gui.so.6:_ZN12QPainterPath7addRectERK6QRectF
libQt6Gui.so.6:_ZN12QPainterPath7cubicToERK7QPointFS2_S2_
libQt6Gui.so.6:_ZN12QPainterPathC1ERKS_
libQt6Gui.so.6:_ZN12QPainterPathC1Ev
libQt6Gui.so.6:_ZN12QPainterPathD1Ev
libQt6Gui.so.6:_ZN12QPainterPathaSERKS_
libQt6Gui.so.6:_ZN12QUndoCommand7setTextERK7QString
libQt6Gui.so.6:_ZN12QUndoCommand9mergeWithEPKS_
libQt6Gui.so.6:_ZN12QUndoCommandC2EPS_
libQt6Gui.so.6:_ZN12QUndoCommandD2Ev
libQt6Gui.so.6:_ZN13QFontDatabase21removeApplicationFontEi
libQt6Gui.so.6:_ZN13QFontDatabase23applicationFontFamiliesEi
libQt6Gui.so.6:_ZN13QFontDatabase26addApplicationFontFromDataERK10QByteArray
libQt6Gui.so.6:_ZN13QFontDatabase4fontERK7QStringS2_i
libQt6Gui.so.6:_ZN13QFontDatabase6stylesERK7QString
libQt6Gui.so.6:_ZN13QFontMetricsFC1ERK5QFont
libQt6Gui.so.6:_ZN13QFontMetricsFD1Ev
libQt6Gui.so.6:_ZN13QIntValidator6setTopEi
libQt6Gui.so.6:_ZN13QIntValidatorC1EiiP7QObject
libQt6Gui.so.6:_ZN13QTextDocument11addResourceEiRK4QUrlRK8QVariant
libQt6Gui.so.6:_ZN13QTextDocument11qt_metacallEN11QMetaObject4CallEiPPv
libQt6Gui.so.6:_ZN13QTextDocument11qt_metacastEPKc
libQt6Gui.so.6:_ZN13QTextDocument11setPageSizeERK6QSizeF
libQt6Gui.so.6:_ZN13QTextDocument12createObjectERK11QTextFormat
libQt6Gui.so.6:_ZN13QTextDocument12drawContentsEP8QPainterRK6QRectF
libQt6Gui.so.6:_ZN13QTextDocument12loadResourceEiRK4QUrl
libQt6Gui.so.6:_ZN13QTextDocument12setPlainTextERK7QString
libQt6Gui.so.6:_ZN13QTextDocument12setTextWidthEd
libQt6Gui.so.6:_ZN13QTextDocument14setDefaultFontERK5QFont
libQt6Gui.so.6:_ZN13QTextDocument16staticMetaObjectE
libQt6Gui.so.6:_ZN13QTextDocument18setUndoRedoEnabledEb
libQt6Gui.so.6:_ZN13QTextDocument20setDefaultStyleSheetERK7QString
libQt6Gui.so.6:_ZN13QTextDocument5clearEv
libQt6Gui.so.6:_ZN13QTextDocument7setHtmlERK7QString
libQt6Gui.so.6:_ZN13QTextDocumentC1EP7QObject
libQt6Gui.so.6:_ZN13QTextDocumentC2EP7QObject
libQt6Gui.so.6:_ZN13QTextDocumentD1Ev
libQt6Gui.so.6:_ZN13QTextDocumentD2Ev
libQt6Gui.so.6:_ZN15QGuiApplication11screenAddedEP7QScreen
libQt6Gui.so.6:_ZN15QGuiApplication12mouseButtonsEv
libQt6Gui.so.6:_ZN15QGuiApplication12platformNameEv
libQt6Gui.so.6:_ZN15QGuiApplication13primaryScreenEv
libQt6Gui.so.6:_ZN15QGuiApplication13screenRemovedEP7QScreen
libQt6Gui.so.6:_ZN15QGuiApplication13setWindowIconERK5QIcon
libQt6Gui.so.6:_ZN15QGuiApplication15layoutDirectionEv
libQt6Gui.so.6:_ZN15QGuiApplication16staticMetaObjectE
libQt6Gui.so.6:_ZN15QGuiApplication17keyboardModifiersEv
libQt6Gui.so.6:_ZN15QGuiApplication17setOverrideCursorERK7QCursor
libQt6Gui.so.6:_ZN15QGuiApplication21restoreOverrideCursorEv
libQt6Gui.so.6:_ZN15QGuiApplication35setHighDpiScaleFactorRoundingPolicyEN2Qt32HighDpiScaleFactorRoundingPolicyE
libQt6Gui.so.6:_ZN15QGuiApplication7paletteEv
libQt6Gui.so.6:_ZN15QGuiApplication7screensEv
libQt6Gui.so.6:_ZN15QGuiApplication9clipboardEv
libQt6Gui.so.6:_ZN15QLinearGradient12setFinalStopERK7QPointF
libQt6Gui.so.6:_ZN15QLinearGradient8setStartERK7QPointF
libQt6Gui.so.6:_ZN15QLinearGradientC1Ev
libQt6Gui.so.6:_ZN15QLinearGradientD1Ev
libQt6Gui.so.6:_ZN15QPointingDevice21primaryPointingDeviceERK7QString
libQt6Gui.so.6:_ZN15QRadialGradient13setFocalPointERK7QPointF
libQt6Gui.so.6:_ZN15QRadialGradient9setCenterERK7QPointF
libQt6Gui.so.6:_ZN15QRadialGradient9setRadiusEd
libQt6Gui.so.6:_ZN15QRadialGradientC1Ev
libQt6Gui.so.6:_ZN15QRadialGradientD1Ev
libQt6Gui.so.6:_ZN15QTextCharFormatC1Ev
libQt6Gui.so.6:_ZN16QDesktopServices7openUrlERK4QUrl
libQt6Gui.so.6:_ZN16QTextBlockFormatC1Ev
libQt6Gui.so.6:_ZN16QTextFrameFormat9setMarginEd
libQt6Gui.so.6:_ZN16QTextFrameFormatC1Ev
libQt6Gui.so.6:_ZN16QTextImageFormatC1Ev
libQt6Gui.so.6:_ZN16QTextTableFormatC1Ev
libQt6Gui.so.6:_ZN17QPagedPaintDevice11setPageSizeERK9QPageSize
libQt6Gui.so.6:_ZN17QPagedPaintDevice18setPageOrientationEN11QPageLayout11OrientationE
libQt6Gui.so.6:_ZN19QTextDocumentWriter24supportedDocumentFormatsEv
libQt6Gui.so.6:_ZN19QTextDocumentWriter5writeEPK13QTextDocument
libQt6Gui.so.6:_ZN19QTextDocumentWriterC1ERK7QStringRK10QByteArray
libQt6Gui.so.6:_ZN19QTextDocumentWriterD1Ev
libQt6Gui.so.6:_ZN2Qt20convertFromPlainTextERK7QStringNS_14WhiteSpaceModeE
libQt6Gui.so.6:_ZN4QPen11setCapStyleEN2Qt11PenCapStyleE
libQt6Gui.so.6:_ZN4QPen12setJoinStyleEN2Qt12PenJoinStyleE
libQt6Gui.so.6:_ZN4QPen13setDashOffsetEd
libQt6Gui.so.6:_ZN4QPen13setMiterLimitEd
libQt6Gui.so.6:_ZN4QPen14setDashPatternERK5QListIdE
libQt6Gui.so.6:_ZN4QPen8setBrushERK6QBrush
libQt6Gui.so.6:_ZN4QPen8setColorERK6QColor
libQt6Gui.so.6:_ZN4QPen8setStyleEN2Qt8PenStyleE
libQt6Gui.so.6:_ZN4QPen8setWidthEi
libQt6Gui.so.6:_ZN4QPen9setWidthFEd
libQt6Gui.so.6:_ZN4QPenC1EN2Qt8PenStyleE
libQt6Gui.so.6:_ZN4QPenC1ERK6QBrushdN2Qt8PenStyleENS3_11PenCapStyleENS3_12PenJoinStyleE
libQt6Gui.so.6:_ZN4QPenC1ERK6QColor
libQt6Gui.so.6:_ZN4QPenC1ERKS_
libQt6Gui.so.6:_ZN4QPenC1Ev
libQt6Gui.so.6:_ZN4QPenD1Ev
libQt6Gui.so.6:_ZN5QFont10fromStringERK7QString
libQt6Gui.so.6:_ZN5QFont12setPixelSizeEi
libQt6Gui.so.6:_ZN5QFont12setPointSizeEi
libQt6Gui.so.6:_ZN5QFont8setStyleENS_5StyleE
libQt6Gui.so.6:_ZN5QFont9setWeightENS_6WeightE
libQt6Gui.so.6:_ZN5QFontC1ERKS_
libQt6Gui.so.6:_ZN5QFontC1Ev
libQt6Gui.so.6:_ZN5QFontD1Ev
libQt6Gui.so.6:_ZN5QFontaSERKS_
libQt6Gui.so.6:_ZN5QIcon19fallbackSearchPathsEv
libQt6Gui.so.6:_ZN5QIcon22setFallbackSearchPathsERK5QListI7QStringE
libQt6Gui.so.6:_ZN5QIcon9addPixmapERK7QPixmapNS_4ModeENS_5StateE
libQt6Gui.so.6:_ZN5QIcon9fromThemeERK7QString
libQt6Gui.so.6:_ZN5QIcon9fromThemeERK7QStringRKS_
libQt6Gui.so.6:_ZN5QIconC1EP11QIconEngine
libQt6Gui.so.6:_ZN5QIconC1ERK7QPixmap
libQt6Gui.so.6:_ZN5QIconC1ERKS_
libQt6Gui.so.6:_ZN5QIconC1Ev
libQt6Gui.so.6:_ZN5QIconD1Ev
libQt6Gui.so.6:_ZN5QIconaSERKS_
libQt6Gui.so.6:_ZN6QBrush12setTransformERK10QTransform
libQt6Gui.so.6:_ZN6QBrushC1EN2Qt11GlobalColorENS0_10BrushStyleE
libQt6Gui.so.6:_ZN6QBrushC1ERK6QColorN2Qt10BrushStyleE
libQt6Gui.so.6:_ZN6QBrushC1ERK6QImage
libQt6Gui.so.6:_ZN6QBrushC1ERK9QGradient
libQt6Gui.so.6:_ZN6QBrushC1ERKS_
libQt6Gui.so.6:_ZN6QBrushC1Ev
libQt6Gui.so.6:_ZN6QBrushD1Ev
libQt6Gui.so.6:_ZN6QBrushaSERKS_
libQt6Gui.so.6:_ZN6QColor10fromStringE14QAnyStringView
libQt6Gui.so.6:_ZN6QColor6setRedEi
libQt6Gui.so.6:_ZN6QColor7fromHsvEiiii
libQt6Gui.so.6:_ZN6QColor7setBlueEi
libQt6Gui.so.6:_ZN6QColor8fromHsvFEffff
libQt6Gui.so.6:_ZN6QColor8setAlphaEi
libQt6Gui.so.6:_ZN6QColor8setGreenEi
libQt6Gui.so.6:_ZN6QColor9setAlphaFEf
libQt6Gui.so.6:_ZN6QColorC1EN2Qt11GlobalColorE
libQt6Gui.so.6:_ZN6QColorC1Ej
libQt6Gui.so.6:_ZN6QColoraSEN2Qt11GlobalColorE
libQt6Gui.so.6:_ZN6QImage12invertPixelsENS_10InvertModeE
libQt6Gui.so.6:_ZN6QImage12loadFromDataEPKhiPKc
libQt6Gui.so.6:_ZN6QImage16setDotsPerMeterXEi
libQt6Gui.so.6:_ZN6QImage16setDotsPerMeterYEi
libQt6Gui.so.6:_ZN6QImage16staticMetaObjectE
libQt6Gui.so.6:_ZN6QImage19setDevicePixelRatioEd
libQt6Gui.so.6:_ZN6QImage23convertToFormat_inplaceENS_6FormatE6QFlagsIN2Qt19ImageConversionFlagEE
libQt6Gui.so.6:_ZN6QImage4bitsEv
libQt6Gui.so.6:_ZN6QImage4fillEN2Qt11GlobalColorE
libQt6Gui.so.6:_ZN6QImage4fillERK6QColor
libQt6Gui.so.6:_ZN6QImage4fillEj
libQt6Gui.so.6:_ZN6QImage8fromDataE14QByteArrayViewPKc
libQt6Gui.so.6:_ZN6QImage8fromDataEPKhiPKc
libQt6Gui.so.6:_ZN6QImage8scanLineEi
libQt6Gui.so.6:_ZN6QImage8setColorEij
libQt6Gui.so.6:_ZN6QImageC1EPhiiNS_6FormatEPFvPvES2_
libQt6Gui.so.6:_ZN6QImageC1ERK5QSizeNS_6FormatE
libQt6Gui.so.6:_ZN6QImageC1ERK7QStringPKc
libQt6Gui.so.6:_ZN6QImageC1ERKS_
libQt6Gui.so.6:_ZN6QImageC1EiiNS_6FormatE
libQt6Gui.so.6:_ZN6QImageC1Ev
libQt6Gui.so.6:_ZN6QImageD1Ev
libQt6Gui.so.6:_ZN6QImageaSERKS_
libQt6Gui.so.6:_ZN7QAction10setCheckedEb
libQt6Gui.so.6:_ZN7QAction10setEnabledEb
libQt6Gui.so.6:_ZN7QAction10setToolTipERK7QString
libQt6Gui.so.6:_ZN7QAction10setVisibleEb
libQt6Gui.so.6:_ZN7QAction11qt_metacallEN11QMetaObject4CallEiPPv
libQt6Gui.so.6:_ZN7QAction11qt_metacastEPKc
libQt6Gui.so.6:_ZN7QAction11setIconTextERK7QString
libQt6Gui.so.6:_ZN7QAction11setShortcutERK12QKeySequence
libQt6Gui.so.6:_ZN7QAction12setCheckableEb
libQt6Gui.so.6:_ZN7QAction12setSeparatorEb
libQt6Gui.so.6:_ZN7QAction12setWhatsThisERK7QString
libQt6Gui.so.6:_ZN7QAction13setMenuObjectEP7QObject
libQt6Gui.so.6:_ZN7QAction14setActionGroupEP12QActionGroup
libQt6Gui.so.6:_ZN7QAction16staticMetaObjectE
libQt6Gui.so.6:_ZN7QAction18setShortcutContextEN2Qt15ShortcutContextE
libQt6Gui.so.6:_ZN7QAction5eventEP6QEvent
libQt6Gui.so.6:_ZN7QAction7changedEv
libQt6Gui.so.6:_ZN7QAction7setDataERK8QVariant
libQt6Gui.so.6:_ZN7QAction7setFontERK5QFont
libQt6Gui.so.6:_ZN7QAction7setIconERK5QIcon
libQt6Gui.so.6:_ZN7QAction7setTextERK7QString
libQt6Gui.so.6:_ZN7QAction7toggledEb
libQt6Gui.so.6:_ZN7QAction8activateENS_11ActionEventE
libQt6Gui.so.6:_ZN7QAction9triggeredEb
libQt6Gui.so.6:_ZN7QActionC1EP7QObject
libQt6Gui.so.6:_ZN7QActionC1ERK5QIconRK7QStringP7QObject
libQt6Gui.so.6:_ZN7QActionC1ERK7QStringP7QObject
libQt6Gui.so.6:_ZN7QActionC2EP7QObject
libQt6Gui.so.6:_ZN7QActionD1Ev
libQt6Gui.so.6:_ZN7QActionD2Ev
libQt6Gui.so.6:_ZN7QCursor3posEPK7QScreen
libQt6Gui.so.6:_ZN7QCursor3posEv
libQt6Gui.so.6:_ZN7QCursor6setPosEP7QScreenii
libQt6Gui.so.6:_ZN7QCursorC1EN2Qt11CursorShapeE
libQt6Gui.so.6:_ZN7QCursorC1ERK7QPixmapii
libQt6Gui.so.6:_ZN7QCursorD1Ev
libQt6Gui.so.6:_ZN7QPixmap15fromImageReaderEP12QImageReader6QFlagsIN2Qt19ImageConversionFlagEE
libQt6Gui.so.6:_ZN7QPixmap16fromImageInPlaceER6QImage6QFlagsIN2Qt19ImageConversionFlagEE
libQt6Gui.so.6:_ZN7QPixmap19setDevicePixelRatioEd
libQt6Gui.so.6:_ZN7QPixmap4fillERK6QColor
libQt6Gui.so.6:_ZN7QPixmap4loadERK7QStringPKc6QFlagsIN2Qt19ImageConversionFlagEE
libQt6Gui.so.6:_ZN7QPixmap9fromImageERK6QImage6QFlagsIN2Qt19ImageConversionFlagEE
libQt6Gui.so.6:_ZN7QPixmapC1ERK5QSize
libQt6Gui.so.6:_ZN7QPixmapC1ERK7QStringPKc6QFlagsIN2Qt19ImageConversionFlagEE
libQt6Gui.so.6:_ZN7QPixmapC1ERKS_
libQt6Gui.so.6:_ZN7QPixmapC1Eii
libQt6Gui.so.6:_ZN7QPixmapC1Ev
libQt6Gui.so.6:_ZN7QPixmapD1Ev
libQt6Gui.so.6:_ZN7QPixmapaSERKS_
libQt6Gui.so.6:_ZN7QRegionC1ERK5QRectNS_10RegionTypeE
libQt6Gui.so.6:_ZN7QRegionC1ERKS_
libQt6Gui.so.6:_ZN7QRegionD1Ev
libQt6Gui.so.6:_ZN7QRegionmIERKS_
libQt6Gui.so.6:_ZN8QPainter10drawPixmapERK6QRectFRK7QPixmapS2_
libQt6Gui.so.6:_ZN8QPainter10drawPixmapERK7QPointFRK7QPixmap
libQt6Gui.so.6:_ZN8QPainter10setOpacityEd
libQt6Gui.so.6:_ZN8QPainter10strokePathERK12QPainterPathRK4QPen
libQt6Gui.so.6:_ZN8QPainter11drawEllipseERK5QRect
libQt6Gui.so.6:_ZN8QPainter11drawEllipseERK6QRectF
libQt6Gui.so.6:_ZN8QPainter11setClipPathERK12QPainterPathN2Qt13ClipOperationE
libQt6Gui.so.6:_ZN8QPainter11setClipRectERK5QRectN2Qt13ClipOperationE
libQt6Gui.so.6:_ZN8QPainter12drawPolylineEPK6QPointi
libQt6Gui.so.6:_ZN8QPainter12drawPolylineEPK7QPointFi
libQt6Gui.so.6:_ZN8QPainter13setRenderHintENS_10RenderHintEb
libQt6Gui.so.6:_ZN8QPainter14resetTransformEv
libQt6Gui.so.6:_ZN8QPainter14setRenderHintsE6QFlagsINS_10RenderHintEEb
libQt6Gui.so.6:_ZN8QPainter15drawRoundedRectERK6QRectFddN2Qt8SizeModeE
libQt6Gui.so.6:_ZN8QPainter17setWorldTransformERK10QTransformb
libQt6Gui.so.6:_ZN8QPainter18setCompositionModeENS_15CompositionModeE
libQt6Gui.so.6:_ZN8QPainter18setLayoutDirectionEN2Qt15LayoutDirectionE
libQt6Gui.so.6:_ZN8QPainter3endEv
libQt6Gui.so.6:_ZN8QPainter4saveEv
libQt6Gui.so.6:_ZN8QPainter5beginEP12QPaintDevice
libQt6Gui.so.6:_ZN8QPainter5scaleEdd
libQt6Gui.so.6:_ZN8QPainter6rotateEd
libQt6Gui.so.6:_ZN8QPainter6setPenEN2Qt8PenStyleE
libQt6Gui.so.6:_ZN8QPainter6setPenERK4QPen
libQt6Gui.so.6:_ZN8QPainter6setPenERK6QColor
libQt6Gui.so.6:_ZN8QPainter7drawArcERK6QRectFii
libQt6Gui.so.6:_ZN8QPainter7drawPieERK6QRectFii
libQt6Gui.so.6:_ZN8QPainter7restoreEv
libQt6Gui.so.6:_ZN8QPainter7setFontERK5QFont
libQt6Gui.so.6:_ZN8QPainter8drawPathERK12QPainterPath
libQt6Gui.so.6:_ZN8QPainter8drawTextERK5QRectiRK7QStringPS0_
libQt6Gui.so.6:_ZN8QPainter8drawTextERK7QPointFRK7QString
libQt6Gui.so.6:_ZN8QPainter8fillRectERK5QRectRK6QColor
libQt6Gui.so.6:_ZN8QPainter8setBrushE6QColor
libQt6Gui.so.6:_ZN8QPainter8setBrushEN2Qt10BrushStyleE
libQt6Gui.so.6:_ZN8QPainter8setBrushERK6QBrush
libQt6Gui.so.6:_ZN8QPainter9drawImageERK6QRectFRK6QImageS2_6QFlagsIN2Qt19ImageConversionFlagEE
libQt6Gui.so.6:_ZN8QPainter9drawImageERK7QPointFRK6QImage
libQt6Gui.so.6:_ZN8QPainter9drawLinesEPK5QLinei
libQt6Gui.so.6:_ZN8QPainter9drawLinesEPK6QLineFi
libQt6Gui.so.6:_ZN8QPainter9drawRectsEPK5QRecti
libQt6Gui.so.6:_ZN8QPainter9drawRectsEPK6QRectFi
libQt6Gui.so.6:_ZN8QPainter9translateERK7QPointF
libQt6Gui.so.6:_ZN8QPainterC1EP12QPaintDevice
libQt6Gui.so.6:_ZN8QPainterC1Ev
libQt6Gui.so.6:_ZN8QPainterC2Ev
libQt6Gui.so.6:_ZN8QPainterD1Ev
libQt6Gui.so.6:_ZN8QPainterD2Ev
libQt6Gui.so.6:_ZN8QPalette8setBrushENS_10ColorGroupENS_9ColorRoleERK6QBrush
libQt6Gui.so.6:_ZN8QPaletteC1ERK6QColor
libQt6Gui.so.6:_ZN8QPaletteC1ERKS_
libQt6Gui.so.6:_ZN8QPaletteC1Ev
libQt6Gui.so.6:_ZN8QPaletteD1Ev
libQt6Gui.so.6:_ZN8QPolygon8setPointEiii
libQt6Gui.so.6:_ZN8QX11Info13nextStartupIdEv
libQt6Gui.so.6:_ZN9QFontInfoC1ERK5QFont
libQt6Gui.so.6:_ZN9QFontInfoD1Ev
libQt6Gui.so.6:_ZN9QGradient10setColorAtEdRK6QColor
libQt6Gui.so.6:_ZN9QGradient16staticMetaObjectE
libQt6Gui.so.6:_ZN9QKeyEventC1EN6QEvent4TypeEi6QFlagsIN2Qt16KeyboardModifierEERK7QStringbt
libQt6Gui.so.6:_ZN9QKeyEventD1Ev
libQt6Gui.so.6:_ZN9QPageSize2idERK5QSizeNS_15SizeMatchPolicyE
libQt6Gui.so.6:_ZN9QPageSize4nameENS_10PageSizeIdE
libQt6Gui.so.6:_ZN9QPageSizeD1Ev
libQt6Gui.so.6:_ZNK10QClipboard17supportsSelectionEv
libQt6Gui.so.6:_ZNK10QTextBlock4nextEv
libQt6Gui.so.6:_ZNK10QTextBlock5beginEv
libQt6Gui.so.6:_ZNK10QTextBlock6layoutEv
libQt6Gui.so.6:_ZNK10QTextBlock7isValidEv
libQt6Gui.so.6:_ZNK10QTextBlock8iterator8fragmentEv
libQt6Gui.so.6:_ZNK10QTextBlock8positionEv
libQt6Gui.so.6:_ZNK10QTextFrame12lastPositionEv
libQt6Gui.so.6:_ZNK10QTextFrame5beginEv
libQt6Gui.so.6:_ZNK10QTextFrame8iterator12currentBlockEv
libQt6Gui.so.6:_ZNK10QTextTable4rowsEv
libQt6Gui.so.6:_ZNK10QTextTable6cellAtEii
libQt6Gui.so.6:_ZNK10QTextTable7columnsEv
libQt6Gui.so.6:_ZNK10QTransform3mapERK12QPainterPath
libQt6Gui.so.6:_ZNK10QTransform3mapEddPdS0_
libQt6Gui.so.6:_ZNK10QTransform4typeEv
libQt6Gui.so.6:_ZNK10QTransform7mapRectERK5QRect
libQt6Gui.so.6:_ZNK10QTransform7mapRectERK6QRectF
libQt6Gui.so.6:_ZNK10QTransform8invertedEPb
libQt6Gui.so.6:_ZNK10QTransformeqERKS_
libQt6Gui.so.6:_ZNK10QTransformmlERKS_
libQt6Gui.so.6:_ZNK10QUndoStack5countEv
libQt6Gui.so.6:_ZNK10QUndoStack7canRedoEv
libQt6Gui.so.6:_ZNK10QUndoStack7canUndoEv
libQt6Gui.so.6:_ZNK10QUndoStack7commandEi
libQt6Gui.so.6:_ZNK10QUndoStack7isCleanEv
libQt6Gui.so.6:_ZNK11QEventPoint14globalPositionEv
libQt6Gui.so.6:_ZNK11QEventPoint8positionEv
libQt6Gui.so.6:_ZNK11QFocusEvent6reasonEv
libQt6Gui.so.6:_ZNK11QIconEngine3keyEv
libQt6Gui.so.6:_ZNK11QIconEngine5writeER11QDataStream
libQt6Gui.so.6:_ZNK11QMouseEvent6sourceEv
libQt6Gui.so.6:_ZNK11QPageLayout11orientationEv
libQt6Gui.so.6:_ZNK11QPageLayout7marginsENS_4UnitE
libQt6Gui.so.6:_ZNK11QPageLayout8pageSizeEv
libQt6Gui.so.6:_ZNK11QTextCursor10charFormatEv
libQt6Gui.so.6:_ZNK11QTextCursor12currentFrameEv
libQt6Gui.so.6:_ZNK11QTextCursor12selectedTextEv
libQt6Gui.so.6:_ZNK11QTextCursor5blockEv
libQt6Gui.so.6:_ZNK11QTextCursor6anchorEv
libQt6Gui.so.6:_ZNK11QTextCursor6isNullEv
libQt6Gui.so.6:_ZNK11QTextCursor8positionEv
libQt6Gui.so.6:_ZNK11QTextFormat11intPropertyEi
libQt6Gui.so.6:_ZNK11QTextFormat12boolPropertyEi
libQt6Gui.so.6:_ZNK11QTextFormat13toFrameFormatEv
libQt6Gui.so.6:_ZNK11QTextFormat13toImageFormatEv
libQt6Gui.so.6:_ZNK11QTextFormat14doublePropertyEi
libQt6Gui.so.6:_ZNK11QTextFormat14stringPropertyEi
libQt6Gui.so.6:_ZNK11QTextFormat4typeEv
libQt6Gui.so.6:_ZNK11QTextFormat8propertyEi
libQt6Gui.so.6:_ZNK11QTextLayout19lineForTextPositionEi
libQt6Gui.so.6:_ZNK11QTextLayout6lineAtEi
libQt6Gui.so.6:_ZNK11QTextObject6formatEv
libQt6Gui.so.6:_ZNK12QActionGroup13checkedActionEv
libQt6Gui.so.6:_ZNK12QActionGroup7actionsEv
libQt6Gui.so.6:_ZNK12QActionGroup9isEnabledEv
libQt6Gui.so.6:_ZNK12QFontMetrics12boundingRectERK5QRectiRK7QStringiPi
libQt6Gui.so.6:_ZNK12QFontMetrics12boundingRectERK7QString
libQt6Gui.so.6:_ZNK12QFontMetrics16averageCharWidthEv
libQt6Gui.so.6:_ZNK12QFontMetrics17horizontalAdvanceE5QChar
libQt6Gui.so.6:_ZNK12QFontMetrics17horizontalAdvanceERK7QStringi
libQt6Gui.so.6:_ZNK12QFontMetrics6heightEv
libQt6Gui.so.6:_ZNK12QImageReader11errorStringEv
libQt6Gui.so.6:_ZNK12QImageReader14transformationEv
libQt6Gui.so.6:_ZNK12QImageReader4sizeEv
libQt6Gui.so.6:_ZNK12QImageReader7canReadEv
libQt6Gui.so.6:_ZNK12QPaintDevice16devicePixelRatioEv
libQt6Gui.so.6:_ZNK12QPainterPath12boundingRectEv
libQt6Gui.so.6:_ZNK12QPainterPath15currentPositionEv
libQt6Gui.so.6:_ZNK12QPainterPath7isEmptyEv
libQt6Gui.so.6:_ZNK12QPainterPath8containsERK7QPointF
libQt6Gui.so.6:_ZNK12QUndoCommand2idEv
libQt6Gui.so.6:_ZNK13QFontMetricsF12boundingRectERK6QRectFiRK7QStringiPi
libQt6Gui.so.6:_ZNK13QTextDocument11toPlainTextEv
libQt6Gui.so.6:_ZNK13QTextDocument14documentLayoutEv
libQt6Gui.so.6:_ZNK13QTextDocument3endEv
libQt6Gui.so.6:_ZNK13QTextDocument4findERK7QStringRK11QTextCursor6QFlagsINS_8FindFlagEE
libQt6Gui.so.6:_ZNK13QTextDocument4sizeEv
libQt6Gui.so.6:_ZNK13QTextDocument5beginEv
libQt6Gui.so.6:_ZNK13QTextDocument5printEP17QPagedPaintDevice
libQt6Gui.so.6:_ZNK13QTextDocument8pageSizeEv
libQt6Gui.so.6:_ZNK13QTextDocument8resourceEiRK4QUrl
libQt6Gui.so.6:_ZNK13QTextDocument9findBlockEi
libQt6Gui.so.6:_ZNK13QTextDocument9pageCountEv
libQt6Gui.so.6:_ZNK13QTextDocument9rootFrameEv
libQt6Gui.so.6:_ZNK13QTextFragment10charFormatEv
libQt6Gui.so.6:_ZNK13QTextFragment6lengthEv
libQt6Gui.so.6:_ZNK13QTextFragment8positionEv
libQt6Gui.so.6:_ZNK14QTextTableCell13firstPositionEv
libQt6Gui.so.6:_ZNK15QGuiApplication16devicePixelRatioEv
libQt6Gui.so.6:_ZNK15QGuiApplication17isSessionRestoredEv
libQt6Gui.so.6:_ZNK15QTextCharFormat11anchorNamesEv
libQt6Gui.so.6:_ZNK17QPagedPaintDevice10pageLayoutEv
libQt6Gui.so.6:_ZNK4QPen5widthEv
libQt6Gui.so.6:_ZNK5QFont8toStringEv
libQt6Gui.so.6:_ZNK5QFont9pointSizeEv
libQt6Gui.so.6:_ZNK5QFontcv8QVariantEv
libQt6Gui.so.6:_ZNK5QFontneERKS_
libQt6Gui.so.6:_ZNK5QIcon5paintEP8QPainterRK5QRect6QFlagsIN2Qt13AlignmentFlagEENS_4ModeENS_5StateE
libQt6Gui.so.6:_ZNK5QIcon6isNullEv
libQt6Gui.so.6:_ZNK5QIcon6pixmapERK5QSizeNS_4ModeENS_5StateE
libQt6Gui.so.6:_ZNK5QIconcv8QVariantEv
libQt6Gui.so.6:_ZNK6QBrushcv8QVariantEv
libQt6Gui.so.6:_ZNK6QBrusheqERKS_
libQt6Gui.so.6:_ZNK6QColor3redEv
libQt6Gui.so.6:_ZNK6QColor3rgbEv
libQt6Gui.so.6:_ZNK6QColor4blueEv
libQt6Gui.so.6:_ZNK6QColor4nameENS_10NameFormatE
libQt6Gui.so.6:_ZNK6QColor4redFEv
libQt6Gui.so.6:_ZNK6QColor4rgbaEv
libQt6Gui.so.6:_ZNK6QColor5alphaEv
libQt6Gui.so.6:_ZNK6QColor5blueFEv
libQt6Gui.so.6:_ZNK6QColor5greenEv
libQt6Gui.so.6:_ZNK6QColor6alphaFEv
libQt6Gui.so.6:_ZNK6QColor6darkerEi
libQt6Gui.so.6:_ZNK6QColor6getHsvEPiS0_S0_S0_
libQt6Gui.so.6:_ZNK6QColor6greenFEv
libQt6Gui.so.6:_ZNK6QColor7lighterEi
libQt6Gui.so.6:_ZNK6QColorcv8QVariantEv
libQt6Gui.so.6:_ZNK6QColoreqERKS_
libQt6Gui.so.6:_ZNK6QColorneERKS_
libQt6Gui.so.6:_ZNK6QImage11transformedERK10QTransformN2Qt18TransformationModeE
libQt6Gui.so.6:_ZNK6QImage12bytesPerLineEv
libQt6Gui.so.6:_ZNK6QImage13scaledToWidthEiN2Qt18TransformationModeE
libQt6Gui.so.6:_ZNK6QImage14scaledToHeightEiN2Qt18TransformationModeE
libQt6Gui.so.6:_ZNK6QImage16devicePixelRatioEv
libQt6Gui.so.6:_ZNK6QImage22convertToFormat_helperENS_6FormatE6QFlagsIN2Qt19ImageConversionFlagEE
libQt6Gui.so.6:_ZNK6QImage4copyERK5QRect
libQt6Gui.so.6:_ZNK6QImage4rectEv
libQt6Gui.so.6:_ZNK6QImage4saveERK7QStringPKci
libQt6Gui.so.6:_ZNK6QImage4sizeEv
libQt6Gui.so.6:_ZNK6QImage5pixelEii
libQt6Gui.so.6:_ZNK6QImage5widthEv
libQt6Gui.so.6:_ZNK6QImage6formatEv
libQt6Gui.so.6:_ZNK6QImage6heightEv
libQt6Gui.so.6:_ZNK6QImage6isNullEv
libQt6Gui.so.6:_ZNK6QImage6scaledERK5QSizeN2Qt15AspectRatioModeENS3_18TransformationModeE
libQt6Gui.so.6:_ZNK6QImagecv8QVariantEv
libQt6Gui.so.6:_ZNK6QImageeqERKS_
libQt6Gui.so.6:_ZNK7QAction10menuObjectEv
libQt6Gui.so.6:_ZNK7QAction11isCheckableEv
libQt6Gui.so.6:_ZNK7QAction17associatedObjectsEv
libQt6Gui.so.6:_ZNK7QAction4dataEv
libQt6Gui.so.6:_ZNK7QAction4fontEv
libQt6Gui.so.6:_ZNK7QAction4iconEv
libQt6Gui.so.6:_ZNK7QAction4textEv
libQt6Gui.so.6:_ZNK7QAction8priorityEv
libQt6Gui.so.6:_ZNK7QAction9isCheckedEv
libQt6Gui.so.6:_ZNK7QAction9isEnabledEv
libQt6Gui.so.6:_ZNK7QAction9isVisibleEv
libQt6Gui.so.6:_ZNK7QAction9shortcutsEv
libQt6Gui.so.6:_ZNK7QCursor5shapeEv
libQt6Gui.so.6:_ZNK7QPixmap16devicePixelRatioEv
libQt6Gui.so.6:_ZNK7QPixmap4copyERK5QRect
libQt6Gui.so.6:_ZNK7QPixmap4rectEv
libQt6Gui.so.6:_ZNK7QPixmap4saveERK7QStringPKci
libQt6Gui.so.6:_ZNK7QPixmap4sizeEv
libQt6Gui.so.6:_ZNK7QPixmap5widthEv
libQt6Gui.so.6:_ZNK7QPixmap6heightEv
libQt6Gui.so.6:_ZNK7QPixmap6isNullEv
libQt6Gui.so.6:_ZNK7QPixmap6scaledERK5QSizeN2Qt15AspectRatioModeENS3_18TransformationModeE
libQt6Gui.so.6:_ZNK7QPixmap7toImageEv
libQt6Gui.so.6:_ZNK7QPixmapcv8QVariantEv
libQt6Gui.so.6:_ZNK7QRegion10subtractedERKS_
libQt6Gui.so.6:_ZNK7QRegion12boundingRectEv
libQt6Gui.so.6:_ZNK7QRegion3endEv
libQt6Gui.so.6:_ZNK7QRegion5beginEv
libQt6Gui.so.6:_ZNK7QRegion6unitedERK5QRect
libQt6Gui.so.6:_ZNK7QRegionanERK5QRect
libQt6Gui.so.6:_ZNK7QScreen12manufacturerEv
libQt6Gui.so.6:_ZNK7QScreen13availableSizeEv
libQt6Gui.so.6:_ZNK7QScreen16devicePixelRatioEv
libQt6Gui.so.6:_ZNK7QScreen20physicalDotsPerInchXEv
libQt6Gui.so.6:_ZNK7QScreen20physicalDotsPerInchYEv
libQt6Gui.so.6:_ZNK7QScreen4nameEv
libQt6Gui.so.6:_ZNK7QScreen4sizeEv
libQt6Gui.so.6:_ZNK7QScreen5modelEv
libQt6Gui.so.6:_ZNK7QScreen8geometryEv
libQt6Gui.so.6:_ZNK7QWindow5winIdEv
libQt6Gui.so.6:_ZNK7QWindow6screenEv
libQt6Gui.so.6:_ZNK8QPainter11fontMetricsEv
libQt6Gui.so.6:_ZNK8QPainter3penEv
libQt6Gui.so.6:_ZNK8QPainter4fontEv
libQt6Gui.so.6:_ZNK8QPainter6deviceEv
libQt6Gui.so.6:_ZNK8QPainter6windowEv
libQt6Gui.so.6:_ZNK8QPainter7opacityEv
libQt6Gui.so.6:_ZNK8QPainter8viewportEv
libQt6Gui.so.6:_ZNK8QPalette5brushENS_10ColorGroupENS_9ColorRoleE
libQt6Gui.so.6:_ZNK9QFontInfo9pointSizeEv
libQt6Gui.so.6:_ZNK9QKeyEvent7matchesEN12QKeySequence11StandardKeyE
libQt6Gui.so.6:_ZNK9QKeyEvent9modifiersEv
libQt6Gui.so.6:_ZNK9QPageSize2idEv
libQt6Gui.so.6:_ZNK9QPolygonF13containsPointERK7QPointFN2Qt8FillRuleE
libQt6Gui.so.6:_ZNK9QTextLine1yEv
libQt6Gui.so.6:_ZNK9QTextLine6heightEv
libQt6Gui.so.6:_ZNK9QTextLine9cursorToXEPiNS_4EdgeE
libQt6Gui.so.6:_ZTI10QDropEvent
libQt6Gui.so.6:_ZTI11QIconEngine
libQt6Gui.so.6:_ZTI12QUndoCommand
libQt6Gui.so.6:_ZTI13QTextDocument
libQt6Gui.so.6:_ZTI14QDragMoveEvent
libQt6Gui.so.6:_ZTI7QAction
libQt6Gui.so.6:_ZTV6QImage
libQt6Gui.so.6:_ZTV7QPixmap
libQt6Gui.so.6:_Zls6QDebugRK10QTransform
libQt6Gui.so.6:_Zls6QDebugRK5QIcon
libQt6Gui.so.6:_Zls6QDebugRK6QBrush
libQt6Gui.so.6:_Zls6QDebugRK6QColor
libQt6Gui.so.6:_Zls6QDebugRK6QImage
libQt6Gui.so.6:_ZlsR11QDataStreamRK10QTransform
libQt6Gui.so.6:_ZlsR11QDataStreamRK5QIcon
libQt6Gui.so.6:_ZlsR11QDataStreamRK6QBrush
libQt6Gui.so.6:_ZlsR11QDataStreamRK6QColor
libQt6Gui.so.6:_ZlsR11QDataStreamRK6QImage
libQt6Gui.so.6:_ZrsR11QDataStreamR10QTransform
libQt6Gui.so.6:_ZrsR11QDataStreamR5QIcon
libQt6Gui.so.6:_ZrsR11QDataStreamR6QBrush
libQt6Gui.so.6:_ZrsR11QDataStreamR6QColor
libQt6Gui.so.6:_ZrsR11QDataStreamR6QImage
libQt6PrintSupport.so.6:_ZN12QPrintDialog4execEv
libQt6PrintSupport.so.6:_ZN12QPrintDialog9setOptionEN20QAbstractPrintDialog17PrintDialogOptionEb
libQt6PrintSupport.so.6:_ZN12QPrintDialogC1EP8QPrinterP7QWidget
libQt6PrintSupport.so.6:_ZN12QPrintDialogD1Ev
libQt6PrintSupport.so.6:_ZN20QAbstractPrintDialog13setOptionTabsERK5QListIP7QWidgetE
libQt6PrintSupport.so.6:_ZN20QAbstractPrintDialog9setFromToEii
libQt6PrintSupport.so.6:_ZN20QAbstractPrintDialog9setMinMaxEii
libQt6PrintSupport.so.6:_ZN8QPrinter10setDocNameERK7QString
libQt6PrintSupport.so.6:_ZN8QPrinter11setFullPageEb
libQt6PrintSupport.so.6:_ZN8QPrinter13setPrintRangeENS_10PrintRangeE
libQt6PrintSupport.so.6:_ZN8QPrinter15setOutputFormatENS_12OutputFormatE
libQt6PrintSupport.so.6:_ZN8QPrinter17setOutputFileNameERK7QString
libQt6PrintSupport.so.6:_ZN8QPrinter9setFromToEii
libQt6PrintSupport.so.6:_ZN8QPrinterC1ENS_11PrinterModeE
libQt6PrintSupport.so.6:_ZN8QPrinterD1Ev
libQt6PrintSupport.so.6:_ZNK12QPrintDialog10testOptionEN20QAbstractPrintDialog17PrintDialogOptionE
libQt6PrintSupport.so.6:_ZNK8QPrinter10printRangeEv
libQt6PrintSupport.so.6:_ZNK8QPrinter11paperSourceEv
libQt6PrintSupport.so.6:_ZNK8QPrinter11printEngineEv
libQt6PrintSupport.so.6:_ZNK8QPrinter11printerNameEv
libQt6PrintSupport.so.6:_ZNK8QPrinter12outputFormatEv
libQt6PrintSupport.so.6:_ZNK8QPrinter12printerStateEv
libQt6PrintSupport.so.6:_ZNK8QPrinter13collateCopiesEv
libQt6PrintSupport.so.6:_ZNK8QPrinter14outputFileNameEv
libQt6PrintSupport.so.6:_ZNK8QPrinter22supportsMultipleCopiesEv
libQt6PrintSupport.so.6:_ZNK8QPrinter6duplexEv
libQt6PrintSupport.so.6:_ZNK8QPrinter6toPageEv
libQt6PrintSupport.so.6:_ZNK8QPrinter7docNameEv
libQt6PrintSupport.so.6:_ZNK8QPrinter8fromPageEv
libQt6PrintSupport.so.6:_ZNK8QPrinter8fullPageEv
libQt6PrintSupport.so.6:_ZNK8QPrinter8pageRectENS_4UnitE
libQt6PrintSupport.so.6:_ZNK8QPrinter9copyCountEv
libQt6PrintSupport.so.6:_ZNK8QPrinter9pageOrderEv
libQt6PrintSupport.so.6:_ZNK8QPrinter9paperRectENS_4UnitE
libQt6Qml.so.6:_Z9qjsEnginePK7QObject
libQt6Qml.so.6:_ZN8QJSValue11setPropertyERK7QStringRKS_
libQt6Qml.so.6:_ZN8QJSValue11setPropertyEjRKS_
libQt6Qml.so.6:_ZN8QJSValueC1ENS_12SpecialValueE
libQt6Qml.so.6:_ZN8QJSValueC1ERK7QString
libQt6Qml.so.6:_ZN8QJSValueC1ERKS_
libQt6Qml.so.6:_ZN8QJSValueC1Eb
libQt6Qml.so.6:_ZN8QJSValueC1Ed
libQt6Qml.so.6:_ZN8QJSValueC1Ei
libQt6Qml.so.6:_ZN8QJSValueC1Ej
libQt6Qml.so.6:_ZN8QJSValueD1Ev
libQt6Qml.so.6:_ZN9QJSEngine10newQObjectEP7QObject
libQt6Qml.so.6:_ZN9QJSEngine14newErrorObjectEN8QJSValue9ErrorTypeERK7QString
libQt6Qml.so.6:_ZN9QJSEngine14setInterruptedEb
libQt6Qml.so.6:_ZN9QJSEngine8evaluateERK7QStringS2_iP5QListIS0_E
libQt6Qml.so.6:_ZN9QJSEngine8newArrayEj
libQt6Qml.so.6:_ZN9QJSEngine9newObjectEv
libQt6Qml.so.6:_ZN9QJSEngineC1Ev
libQt6Qml.so.6:_ZN9QJSEngineD1Ev
libQt6Qml.so.6:_ZNK8QJSValue11isUndefinedEv
libQt6Qml.so.6:_ZNK8QJSValue5toIntEv
libQt6Qml.so.6:_ZNK8QJSValue6isBoolEv
libQt6Qml.so.6:_ZNK8QJSValue6toBoolEv
libQt6Qml.so.6:_ZNK8QJSValue6toUIntEv
libQt6Qml.so.6:_ZNK8QJSValue7isArrayEv
libQt6Qml.so.6:_ZNK8QJSValue7isErrorEv
libQt6Qml.so.6:_ZNK8QJSValue8isNumberEv
libQt6Qml.so.6:_ZNK8QJSValue8isObjectEv
libQt6Qml.so.6:_ZNK8QJSValue8isStringEv
libQt6Qml.so.6:_ZNK8QJSValue8propertyERK7QString
libQt6Qml.so.6:_ZNK8QJSValue8propertyEj
libQt6Qml.so.6:_ZNK8QJSValue8toStringEv
libQt6Qml.so.6:_ZNK9QJSEngine12globalObjectEv
libQt6Qml.so.6:_ZlsR11QDataStreamRK8QJSValue
libQt6Qml.so.6:_ZrsR11QDataStreamR8QJSValue
libQt6Svg.so.6:_ZN12QSvgRenderer6renderEP8QPainterRK7QStringRK6QRectF
libQt6Svg.so.6:_ZN12QSvgRendererC1ERK7QStringP7QObject
libQt6Svg.so.6:_ZNK12QSvgRenderer13elementExistsERK7QString
libQt6Svg.so.6:_ZNK12QSvgRenderer15boundsOnElementERK7QString
libQt6Svg.so.6:_ZNK12QSvgRenderer7isValidEv
libQt6TextToSpeech.so.6:_ZN13QTextToSpeech12stateChangedENS_5StateE
libQt6TextToSpeech.so.6:_ZN13QTextToSpeech16availableEnginesEv
libQt6TextToSpeech.so.6:_ZN13QTextToSpeech16staticMetaObjectE
libQt6TextToSpeech.so.6:_ZN13QTextToSpeech3sayERK7QString
libQt6TextToSpeech.so.6:_ZN13QTextToSpeech4stopENS_12BoundaryHintE
libQt6TextToSpeech.so.6:_ZN13QTextToSpeech5pauseENS_12BoundaryHintE
libQt6TextToSpeech.so.6:_ZN13QTextToSpeech6resumeEv
libQt6TextToSpeech.so.6:_ZN13QTextToSpeech8setVoiceERK6QVoice
libQt6TextToSpeech.so.6:_ZN13QTextToSpeechC1ERK7QStringP7QObject
libQt6TextToSpeech.so.6:_ZN6QVoiceD1Ev
libQt6TextToSpeech.so.6:_ZNK13QTextToSpeech15availableVoicesEv
libQt6TextToSpeech.so.6:_ZNK13QTextToSpeech5stateEv
libQt6TextToSpeech.so.6:_ZNK6QVoice4nameEv
libQt6Widgets.so.6:_ZN10QBoxLayout10addSpacingEi
libQt6Widgets.so.6:_ZN10QBoxLayout10addStretchEi
libQt6Widgets.so.6:_ZN10QBoxLayout10setStretchEii
libQt6Widgets.so.6:_ZN10QBoxLayout12insertWidgetEiP7QWidgeti6QFlagsIN2Qt13AlignmentFlagEE
libQt6Widgets.so.6:_ZN10QBoxLayout9addLayoutEP7QLayouti
libQt6Widgets.so.6:_ZN10QBoxLayout9addWidgetEP7QWidgeti6QFlagsIN2Qt13AlignmentFlagEE
libQt6Widgets.so.6:_ZN10QTabWidget10setMovableEb
libQt6Widgets.so.6:_ZN10QTabWidget10setTabIconEiRK5QIcon
libQt6Widgets.so.6:_ZN10QTabWidget10setTabTextEiRK7QString
libQt6Widgets.so.6:_ZN10QTabWidget11setIconSizeERK5QSize
libQt6Widgets.so.6:_ZN10QTabWidget12setElideModeEN2Qt13TextElideModeE
libQt6Widgets.so.6:_ZN10QTabWidget13setTabToolTipEiRK7QString
libQt6Widgets.so.6:_ZN10QTabWidget14currentChangedEi
libQt6Widgets.so.6:_ZN10QTabWidget15setCurrentIndexEi
libQt6Widgets.so.6:_ZN10QTabWidget15setDocumentModeEb
libQt6Widgets.so.6:_ZN10QTabWidget15setTabsClosableEb
libQt6Widgets.so.6:_ZN10QTabWidget16setCurrentWidgetEP7QWidget
libQt6Widgets.so.6:_ZN10QTabWidget16staticMetaObjectE
libQt6Widgets.so.6:_ZN10QTabWidget17tabCloseRequestedEi
libQt6Widgets.so.6:_ZN10QTabWidget6addTabEP7QWidgetRK5QIconRK7QString
libQt6Widgets.so.6:_ZN10QTabWidget6addTabEP7QWidgetRK7QString
libQt6Widgets.so.6:_ZN10QTabWidget9removeTabEi
libQt6Widgets.so.6:_ZN10QTabWidgetC1EP7QWidget
libQt6Widgets.so.6:_ZN10QTableView22setCornerButtonEnabledEb
libQt6Widgets.so.6:_ZN10QTableView23resizeColumnsToContentsEv
libQt6Widgets.so.6:_ZN10QTableViewC1EP7QWidget
libQt6Widgets.so.6:_ZN11QDockWidget10closeEventEP11QCloseEvent
libQt6Widgets.so.6:_ZN11QDockWidget10paintEventEP11QPaintEvent
libQt6Widgets.so.6:_ZN11QDockWidget11changeEventEP6QEvent
libQt6Widgets.so.6:_ZN11QDockWidget11qt_metacallEN11QMetaObject4CallEiPPv
libQt6Widgets.so.6:_ZN11QDockWidget11qt_metacastEPKc
libQt6Widgets.so.6:_ZN11QDockWidget11setFeaturesE6QFlagsINS_17DockWidgetFeatureEE
libQt6Widgets.so.6:_ZN11QDockWidget15setAllowedAreasE6QFlagsIN2Qt14DockWidgetAreaEE
libQt6Widgets.so.6:_ZN11QDockWidget16staticMetaObjectE
libQt6Widgets.so.6:_ZN11QDockWidget17setTitleBarWidgetEP7QWidget
libQt6Widgets.so.6:_ZN11QDockWidget17visibilityChangedEb
libQt6Widgets.so.6:_ZN11QDockWidget5eventEP6QEvent
libQt6Widgets.so.6:_ZN11QDockWidget9setWidgetEP7QWidget
libQt6Widgets.so.6:_ZN11QDockWidgetC2EP7QWidget6QFlagsIN2Qt10WindowTypeEE
libQt6Widgets.so.6:_ZN11QDockWidgetD2Ev
libQt6Widgets.so.6:_ZN11QFileDialog11setFileModeENS_8FileModeE
libQt6Widgets.so.6:_ZN11QFileDialog13setAcceptModeENS_10AcceptModeE
libQt6Widgets.so.6:_ZN11QFileDialog14getOpenFileUrlEP7QWidgetRK7QStringRK4QUrlS4_PS2_6QFlagsINS_6OptionEERK5QListIS2_E
libQt6Widgets.so.6:_ZN11QFileDialog14getSaveFileUrlEP7QWidgetRK7QStringRK4QUrlS4_PS2_6QFlagsINS_6OptionEERK5QListIS2_E
libQt6Widgets.so.6:_ZN11QFileDialog14setNameFiltersERK5QListI7QStringE
libQt6Widgets.so.6:_ZN11QFileDialog15getOpenFileNameEP7QWidgetRK7QStringS4_S4_PS2_6QFlagsINS_6OptionEE
libQt6Widgets.so.6:_ZN11QFileDialog15getSaveFileNameEP7QWidgetRK7QStringS4_S4_PS2_6QFlagsINS_6OptionEE
libQt6Widgets.so.6:_ZN11QFileDialog15setDirectoryUrlERK4QUrl
libQt6Widgets.so.6:_ZN11QFileDialog18setMimeTypeFiltersERK5QListI7QStringE
libQt6Widgets.so.6:_ZN11QFileDialog9setOptionENS_6OptionEb
libQt6Widgets.so.6:_ZN11QFileDialogC1EP7QWidgetRK7QStringS4_S4_
libQt6Widgets.so.6:_ZN11QFontDialog7getFontEPbRK5QFontP7QWidgetRK7QString6QFlagsINS_16FontDialogOptionEE
libQt6Widgets.so.6:_ZN11QFormLayout17setLabelAlignmentE6QFlagsIN2Qt13AlignmentFlagEE
libQt6Widgets.so.6:_ZN11QFormLayout20setFieldGrowthPolicyENS_17FieldGrowthPolicyE
libQt6Widgets.so.6:_ZN11QFormLayout6addRowEP7QWidget
libQt6Widgets.so.6:_ZN11QFormLayout6addRowEP7QWidgetS1_
libQt6Widgets.so.6:_ZN11QFormLayout6addRowERK7QStringP7QLayout
libQt6Widgets.so.6:_ZN11QFormLayout6addRowERK7QStringP7QWidget
libQt6Widgets.so.6:_ZN11QFormLayout9setLayoutEiNS_8ItemRoleEP7QLayout
libQt6Widgets.so.6:_ZN11QFormLayout9setWidgetEiNS_8ItemRoleEP7QWidget
libQt6Widgets.so.6:_ZN11QFormLayoutC1EP7QWidget
libQt6Widgets.so.6:_ZN11QGridLayout13setRowStretchEii
libQt6Widgets.so.6:_ZN11QGridLayout16setColumnStretchEii
libQt6Widgets.so.6:_ZN11QGridLayout7addItemEP11QLayoutItemiiii6QFlagsIN2Qt13AlignmentFlagEE
libQt6Widgets.so.6:_ZN11QGridLayout9addLayoutEP7QLayoutiiii6QFlagsIN2Qt13AlignmentFlagEE
libQt6Widgets.so.6:_ZN11QGridLayout9addWidgetEP7QWidgetii6QFlagsIN2Qt13AlignmentFlagEE
libQt6Widgets.so.6:_ZN11QGridLayout9addWidgetEP7QWidgetiiii6QFlagsIN2Qt13AlignmentFlagEE
libQt6Widgets.so.6:_ZN11QGridLayoutC1EP7QWidget
libQt6Widgets.so.6:_ZN11QHBoxLayoutC1EP7QWidget
libQt6Widgets.so.6:_ZN11QHBoxLayoutC1Ev
libQt6Widgets.so.6:_ZN11QHeaderView20setSectionResizeModeEiNS_10ResizeModeE
libQt6Widgets.so.6:_ZN11QLayoutItem12setAlignmentE6QFlagsIN2Qt13AlignmentFlagEE
libQt6Widgets.so.6:_ZN11QListWidget10insertItemEiP15QListWidgetItem
libQt6Widgets.so.6:_ZN11QListWidget11insertItemsEiRK5QListI7QStringE
libQt6Widgets.so.6:_ZN11QListWidget11qt_metacallEN11QMetaObject4CallEiPPv
libQt6Widgets.so.6:_ZN11QListWidget11qt_metacastEPKc
libQt6Widgets.so.6:_ZN11QListWidget12dropMimeDataEiPK9QMimeDataN2Qt10DropActionE
libQt6Widgets.so.6:_ZN11QListWidget12scrollToItemEPK15QListWidgetItemN17QAbstractItemView10ScrollHintE
libQt6Widgets.so.6:_ZN11QListWidget13setCurrentRowEi
libQt6Widgets.so.6:_ZN11QListWidget14setCurrentItemEP15QListWidgetItem
libQt6Widgets.so.6:_ZN11QListWidget16staticMetaObjectE
libQt6Widgets.so.6:_ZN11QListWidget17currentRowChangedEi
libQt6Widgets.so.6:_ZN11QListWidget17itemDoubleClickedEP15QListWidgetItem
libQt6Widgets.so.6:_ZN11QListWidget17setSelectionModelEP19QItemSelectionModel
libQt6Widgets.so.6:_ZN11QListWidget20itemSelectionChangedEv
libQt6Widgets.so.6:_ZN11QListWidget5clearEv
libQt6Widgets.so.6:_ZN11QListWidget5eventEP6QEvent
libQt6Widgets.so.6:_ZN11QListWidget8setModelEP18QAbstractItemModel
libQt6Widgets.so.6:_ZN11QListWidget8takeItemEi
libQt6Widgets.so.6:_ZN11QListWidget9dropEventEP10QDropEvent
libQt6Widgets.so.6:_ZN11QListWidgetC1EP7QWidget
libQt6Widgets.so.6:_ZN11QListWidgetC2EP7QWidget
libQt6Widgets.so.6:_ZN11QListWidgetD2Ev
libQt6Widgets.so.6:_ZN11QMainWindow11resizeDocksERK5QListIP11QDockWidgetERKS0_IiEN2Qt11OrientationE
libQt6Widgets.so.6:_ZN11QMainWindow13addDockWidgetEN2Qt14DockWidgetAreaEP11QDockWidget
libQt6Widgets.so.6:_ZN11QMainWindow15createPopupMenuEv
libQt6Widgets.so.6:_ZN11QMainWindow16contextMenuEventEP17QContextMenuEvent
libQt6Widgets.so.6:_ZN11QMainWindow16setCentralWidgetEP7QWidget
libQt6Widgets.so.6:_ZN11QMessageBox11informationEP7QWidgetRK7QStringS4_6QFlagsINS_14StandardButtonEES6_
libQt6Widgets.so.6:_ZN11QMessageBox11setCheckBoxEP9QCheckBox
libQt6Widgets.so.6:_ZN11QMessageBox18setStandardButtonsE6QFlagsINS_14StandardButtonEE
libQt6Widgets.so.6:_ZN11QMessageBoxC1ENS_4IconERK7QStringS3_6QFlagsINS_14StandardButtonEEP7QWidgetS4_IN2Qt10WindowTypeEE
libQt6Widgets.so.6:_ZN11QMessageBoxD1Ev
libQt6Widgets.so.6:_ZN11QPushButton10paintEventEP11QPaintEvent
libQt6Widgets.so.6:_ZN11QPushButton10setDefaultEb
libQt6Widgets.so.6:_ZN11QPushButton11qt_metacallEN11QMetaObject4CallEiPPv
libQt6Widgets.so.6:_ZN11QPushButton11qt_metacastEPKc
libQt6Widgets.so.6:_ZN11QPushButton12focusInEventEP11QFocusEvent
libQt6Widgets.so.6:_ZN11QPushButton13focusOutEventEP11QFocusEvent
libQt6Widgets.so.6:_ZN11QPushButton13keyPressEventEP9QKeyEvent
libQt6Widgets.so.6:_ZN11QPushButton14mouseMoveEventEP11QMouseEvent
libQt6Widgets.so.6:_ZN11QPushButton16staticMetaObjectE
libQt6Widgets.so.6:_ZN11QPushButton5eventEP6QEvent
libQt6Widgets.so.6:_ZN11QPushButton7setFlatEb
libQt6Widgets.so.6:_ZN11QPushButton7setMenuEP5QMenu
libQt6Widgets.so.6:_ZN11QPushButtonC1EP7QWidget
libQt6Widgets.so.6:_ZN11QPushButtonC1ERK5QIconRK7QStringP7QWidget
libQt6Widgets.so.6:_ZN11QPushButtonC1ERK7QStringP7QWidget
libQt6Widgets.so.6:_ZN11QPushButtonC2EP7QWidget
libQt6Widgets.so.6:_ZN11QPushButtonD2Ev
libQt6Widgets.so.6:_ZN11QScrollArea11eventFilterEP7QObjectP6QEvent
libQt6Widgets.so.6:_ZN11QScrollArea11qt_metacallEN11QMetaObject4CallEiPPv
libQt6Widgets.so.6:_ZN11QScrollArea11qt_metacastEPKc
libQt6Widgets.so.6:_ZN11QScrollArea11resizeEventEP12QResizeEvent
libQt6Widgets.so.6:_ZN11QScrollArea13ensureVisibleEiiii
libQt6Widgets.so.6:_ZN11QScrollArea16scrollContentsByEii
libQt6Widgets.so.6:_ZN11QScrollArea16staticMetaObjectE
libQt6Widgets.so.6:_ZN11QScrollArea18focusNextPrevChildEb
libQt6Widgets.so.6:_ZN11QScrollArea5eventEP6QEvent
libQt6Widgets.so.6:_ZN11QScrollArea9setWidgetEP7QWidget
libQt6Widgets.so.6:_ZN11QScrollAreaC2EP7QWidget
libQt6Widgets.so.6:_ZN11QScrollAreaD2Ev
libQt6Widgets.so.6:_ZN11QToolButton10enterEventEP11QEnterEvent
libQt6Widgets.so.6:_ZN11QToolButton10leaveEventEP6QEvent
libQt6Widgets.so.6:_ZN11QToolButton10paintEventEP11QPaintEvent
libQt6Widgets.so.6:_ZN11QToolButton10timerEventEP11QTimerEvent
libQt6Widgets.so.6:_ZN11QToolButton11actionEventEP12QActionEvent
libQt6Widgets.so.6:_ZN11QToolButton11changeEventEP6QEvent
libQt6Widgets.so.6:_ZN11QToolButton11qt_metacallEN11QMetaObject4CallEiPPv
libQt6Widgets.so.6:_ZN11QToolButton11qt_metacastEPKc
libQt6Widgets.so.6:_ZN11QToolButton12setAutoRaiseEb
libQt6Widgets.so.6:_ZN11QToolButton12setPopupModeENS_19ToolButtonPopupModeE
libQt6Widgets.so.6:_ZN11QToolButton13checkStateSetEv
libQt6Widgets.so.6:_ZN11QToolButton14nextCheckStateEv
libQt6Widgets.so.6:_ZN11QToolButton15mousePressEventEP11QMouseEvent
libQt6Widgets.so.6:_ZN11QToolButton16setDefaultActionEP7QAction
libQt6Widgets.so.6:_ZN11QToolButton16staticMetaObjectE
libQt6Widgets.so.6:_ZN11QToolButton17mouseReleaseEventEP11QMouseEvent
libQt6Widgets.so.6:_ZN11QToolButton18setToolButtonStyleEN2Qt15ToolButtonStyleE
libQt6Widgets.so.6:_ZN11QToolButton5eventEP6QEvent
libQt6Widgets.so.6:_ZN11QToolButton7setMenuEP5QMenu
libQt6Widgets.so.6:_ZN11QToolButtonC1EP7QWidget
libQt6Widgets.so.6:_ZN11QToolButtonC2EP7QWidget
libQt6Widgets.so.6:_ZN11QToolButtonD2Ev
libQt6Widgets.so.6:_ZN11QTreeWidget11itemChangedEP15QTreeWidgetItemi
libQt6Widgets.so.6:_ZN11QTreeWidget12scrollToItemEPK15QTreeWidgetItemN17QAbstractItemView10ScrollHintE
libQt6Widgets.so.6:_ZN11QTreeWidget13itemActivatedEP15QTreeWidgetItemi
libQt6Widgets.so.6:_ZN11QTreeWidget15addTopLevelItemEP15QTreeWidgetItem
libQt6Widgets.so.6:_ZN11QTreeWidget15setHeaderLabelsERK5QListI7QStringE
libQt6Widgets.so.6:_ZN11QTreeWidget16addTopLevelItemsERK5QListIP15QTreeWidgetItemE
libQt6Widgets.so.6:_ZN11QTreeWidget16staticMetaObjectE
libQt6Widgets.so.6:_ZN11QTreeWidget17itemDoubleClickedEP15QTreeWidgetItemi
libQt6Widgets.so.6:_ZN11QTreeWidget20itemSelectionChangedEv
libQt6Widgets.so.6:_ZN11QTreeWidget5clearEv
libQt6Widgets.so.6:_ZN11QTreeWidget8editItemEP15QTreeWidgetItemi
libQt6Widgets.so.6:_ZN11QTreeWidget9sortItemsEiN2Qt9SortOrderE
libQt6Widgets.so.6:_ZN11QTreeWidgetC1EP7QWidget
libQt6Widgets.so.6:_ZN11QVBoxLayoutC1EP7QWidget
libQt6Widgets.so.6:_ZN11QVBoxLayoutC1Ev
libQt6Widgets.so.6:_ZN12QApplication17startDragDistanceEv
libQt6Widgets.so.6:_ZN12QApplication19doubleClickIntervalEv
libQt6Widgets.so.6:_ZN12QApplication4beepEv
libQt6Widgets.so.6:_ZN12QApplication4execEv
libQt6Widgets.so.6:_ZN12QApplication4fontEv
libQt6Widgets.so.6:_ZN12QApplication5styleEv
libQt6Widgets.so.6:_ZN12QApplication8widgetAtERK6QPoint
libQt6Widgets.so.6:_ZN12QApplicationC1ERiPPci
libQt6Widgets.so.6:_ZN12QApplicationD1Ev
libQt6Widgets.so.6:_ZN12QButtonGroup12setExclusiveEb
libQt6Widgets.so.6:_ZN12QButtonGroup13buttonClickedEP15QAbstractButton
libQt6Widgets.so.6:_ZN12QButtonGroup16staticMetaObjectE
libQt6Widgets.so.6:_ZN12QButtonGroup5setIdEP15QAbstractButtoni
libQt6Widgets.so.6:_ZN12QButtonGroup9addButtonEP15QAbstractButtoni
libQt6Widgets.so.6:_ZN12QButtonGroupC1EP7QObject
libQt6Widgets.so.6:_ZN12QColorDialog8getColorERK6QColorP7QWidgetRK7QString6QFlagsINS_17ColorDialogOptionEE
libQt6Widgets.so.6:_ZN12QInputDialog16getMultiLineTextEP7QWidgetRK7QStringS4_S4_Pb6QFlagsIN2Qt10WindowTypeEES6_INS7_15InputMethodHintEE
libQt6Widgets.so.6:_ZN12QInputDialog7getTextEP7QWidgetRK7QStringS4_N9QLineEdit8EchoModeES4_Pb6QFlagsIN2Qt10WindowTypeEES8_INS9_15InputMethodHintEE
libQt6Widgets.so.6:_ZN12QProgressBar8setRangeEii
libQt6Widgets.so.6:_ZN12QProgressBar8setValueEi
libQt6Widgets.so.6:_ZN12QProgressBarC1EP7QWidget
libQt6Widgets.so.6:_ZN12QRadioButton11qt_metacallEN11QMetaObject4CallEiPPv
libQt6Widgets.so.6:_ZN12QRadioButton11qt_metacastEPKc
libQt6Widgets.so.6:_ZN12QRadioButton14mouseMoveEventEP11QMouseEvent
libQt6Widgets.so.6:_ZN12QRadioButton16staticMetaObjectE
libQt6Widgets.so.6:_ZN12QRadioButton5eventEP6QEvent
libQt6Widgets.so.6:_ZN12QRadioButtonC1EP7QWidget
libQt6Widgets.so.6:_ZN12QRadioButtonC2EP7QWidget
libQt6Widgets.so.6:_ZN12QRadioButtonD2Ev
libQt6Widgets.so.6:_ZN12QStyleOption8initFromEPK7QWidget
libQt6Widgets.so.6:_ZN12QStyleOptionC1Eii
libQt6Widgets.so.6:_ZN12QStyleOptionC2Eii
libQt6Widgets.so.6:_ZN12QStyleOptionD1Ev
libQt6Widgets.so.6:_ZN12QStyleOptionD2Ev
libQt6Widgets.so.6:_ZN12QStyleOptionaSERKS_
libQt6Widgets.so.6:_ZN13QItemDelegate11editorEventEP6QEventP18QAbstractItemModelRK20QStyleOptionViewItemRK11QModelIndex
libQt6Widgets.so.6:_ZN13QItemDelegate11eventFilterEP7QObjectP6QEvent
libQt6Widgets.so.6:_ZN13QItemDelegate11qt_metacallEN11QMetaObject4CallEiPPv
libQt6Widgets.so.6:_ZN13QItemDelegate11qt_metacastEPKc
libQt6Widgets.so.6:_ZN13QItemDelegate16staticMetaObjectE
libQt6Widgets.so.6:_ZN13QItemDelegateC2EP7QObject
libQt6Widgets.so.6:_ZN13QItemDelegateD2Ev
libQt6Widgets.so.6:_ZN13QWidgetAction11eventFilterEP7QObjectP6QEvent
libQt6Widgets.so.6:_ZN13QWidgetAction11qt_metacallEN11QMetaObject4CallEiPPv
libQt6Widgets.so.6:_ZN13QWidgetAction11qt_metacastEPKc
libQt6Widgets.so.6:_ZN13QWidgetAction12createWidgetEP7QWidget
libQt6Widgets.so.6:_ZN13QWidgetAction12deleteWidgetEP7QWidget
libQt6Widgets.so.6:_ZN13QWidgetAction16setDefaultWidgetEP7QWidget
libQt6Widgets.so.6:_ZN13QWidgetAction16staticMetaObjectE
libQt6Widgets.so.6:_ZN13QWidgetAction5eventEP6QEvent
libQt6Widgets.so.6:_ZN13QWidgetActionC1EP7QObject
libQt6Widgets.so.6:_ZN13QWidgetActionC2EP7QObject
libQt6Widgets.so.6:_ZN13QWidgetActionD2Ev
libQt6Widgets.so.6:_ZN14QDoubleSpinBox12valueChangedEd
libQt6Widgets.so.6:_ZN14QDoubleSpinBox13setSingleStepEd
libQt6Widgets.so.6:_ZN14QDoubleSpinBox16staticMetaObjectE
libQt6Widgets.so.6:_ZN14QDoubleSpinBox8setRangeEdd
libQt6Widgets.so.6:_ZN14QDoubleSpinBox8setValueEd
libQt6Widgets.so.6:_ZN14QDoubleSpinBoxC1EP7QWidget
libQt6Widgets.so.6:_ZN14QStackedLayout15setCurrentIndexEi
libQt6Widgets.so.6:_ZN14QStackedLayout9addWidgetEP7QWidget
libQt6Widgets.so.6:_ZN14QStackedLayoutC1EP7QWidget
libQt6Widgets.so.6:_ZN14QStackedWidget11qt_metacallEN11QMetaObject4CallEiPPv
libQt6Widgets.so.6:_ZN14QStackedWidget11qt_metacastEPKc
libQt6Widgets.so.6:_ZN14QStackedWidget12removeWidgetEP7QWidget
libQt6Widgets.so.6:_ZN14QStackedWidget15setCurrentIndexEi
libQt6Widgets.so.6:_ZN14QStackedWidget16setCurrentWidgetEP7QWidget
libQt6Widgets.so.6:_ZN14QStackedWidget16staticMetaObjectE
libQt6Widgets.so.6:_ZN14QStackedWidget5eventEP6QEvent
libQt6Widgets.so.6:_ZN14QStackedWidget9addWidgetEP7QWidget
libQt6Widgets.so.6:_ZN14QStackedWidgetC1EP7QWidget
libQt6Widgets.so.6:_ZN14QStackedWidgetC2EP7QWidget
libQt6Widgets.so.6:_ZN14QStackedWidgetD2Ev
libQt6Widgets.so.6:_ZN15QAbstractButton10setCheckedEb
libQt6Widgets.so.6:_ZN15QAbstractButton10timerEventEP11QTimerEvent
libQt6Widgets.so.6:_ZN15QAbstractButton11changeEventEP6QEvent
libQt6Widgets.so.6:_ZN15QAbstractButton11qt_metacallEN11QMetaObject4CallEiPPv
libQt6Widgets.so.6:_ZN15QAbstractButton11qt_metacastEPKc
libQt6Widgets.so.6:_ZN15QAbstractButton11setIconSizeERK5QSize
libQt6Widgets.so.6:_ZN15QAbstractButton11setShortcutERK12QKeySequence
libQt6Widgets.so.6:_ZN15QAbstractButton12focusInEventEP11QFocusEvent
libQt6Widgets.so.6:_ZN15QAbstractButton12setCheckableEb
libQt6Widgets.so.6:_ZN15QAbstractButton13checkStateSetEv
libQt6Widgets.so.6:_ZN15QAbstractButton13focusOutEventEP11QFocusEvent
libQt6Widgets.so.6:_ZN15QAbstractButton13keyPressEventEP9QKeyEvent
libQt6Widgets.so.6:_ZN15QAbstractButton14mouseMoveEventEP11QMouseEvent
libQt6Widgets.so.6:_ZN15QAbstractButton14nextCheckStateEv
libQt6Widgets.so.6:_ZN15QAbstractButton15keyReleaseEventEP9QKeyEvent
libQt6Widgets.so.6:_ZN15QAbstractButton15mousePressEventEP11QMouseEvent
libQt6Widgets.so.6:_ZN15QAbstractButton16staticMetaObjectE
libQt6Widgets.so.6:_ZN15QAbstractButton17mouseReleaseEventEP11QMouseEvent
libQt6Widgets.so.6:_ZN15QAbstractButton5eventEP6QEvent
libQt6Widgets.so.6:_ZN15QAbstractButton7clickedEb
libQt6Widgets.so.6:_ZN15QAbstractButton7setDownEb
libQt6Widgets.so.6:_ZN15QAbstractButton7setIconERK5QIcon
libQt6Widgets.so.6:_ZN15QAbstractButton7setTextERK7QString
libQt6Widgets.so.6:_ZN15QAbstractButton7toggledEb
libQt6Widgets.so.6:_ZN15QAbstractButtonC2EP7QWidget
libQt6Widgets.so.6:_ZN15QAbstractButtonD2Ev
libQt6Widgets.so.6:_ZN15QAbstractSlider10setMaximumEi
libQt6Widgets.so.6:_ZN15QAbstractSlider10setMinimumEi
libQt6Widgets.so.6:_ZN15QAbstractSlider11setPageStepEi
libQt6Widgets.so.6:_ZN15QAbstractSlider12valueChangedEi
libQt6Widgets.so.6:_ZN15QAbstractSlider13setSingleStepEi
libQt6Widgets.so.6:_ZN15QAbstractSlider13triggerActionENS_12SliderActionE
libQt6Widgets.so.6:_ZN15QAbstractSlider14setOrientationEN2Qt11OrientationE
libQt6Widgets.so.6:_ZN15QAbstractSlider15actionTriggeredEi
libQt6Widgets.so.6:_ZN15QAbstractSlider16staticMetaObjectE
libQt6Widgets.so.6:_ZN15QAbstractSlider8setRangeEii
libQt6Widgets.so.6:_ZN15QAbstractSlider8setValueEi
libQt6Widgets.so.6:_ZN15QListWidgetItem11setSelectedEb
libQt6Widgets.so.6:_ZN15QListWidgetItemC1ERK7QStringP11QListWidgeti
libQt6Widgets.so.6:_ZN15QProgressDialog10setMaximumEi
libQt6Widgets.so.6:_ZN15QProgressDialog12setLabelTextERK7QString
libQt6Widgets.so.6:_ZN15QProgressDialog15setCancelButtonEP11QPushButton
libQt6Widgets.so.6:_ZN15QProgressDialog18setMinimumDurationEi
libQt6Widgets.so.6:_ZN15QProgressDialog8setValueEi
libQt6Widgets.so.6:_ZN15QTreeWidgetItem11addChildrenERK5QListIPS_E
libQt6Widgets.so.6:_ZN15QTreeWidgetItem11removeChildEPS_
libQt6Widgets.so.6:_ZN15QTreeWidgetItem11setExpandedEb
libQt6Widgets.so.6:_ZN15QTreeWidgetItem12sortChildrenEiN2Qt9SortOrderEb
libQt6Widgets.so.6:_ZN15QTreeWidgetItem4readER11QDataStream
libQt6Widgets.so.6:_ZN15QTreeWidgetItem7setDataEiiRK8QVariant
libQt6Widgets.so.6:_ZN15QTreeWidgetItem8setFlagsE6QFlagsIN2Qt8ItemFlagEE
libQt6Widgets.so.6:_ZN15QTreeWidgetItemC1EP11QTreeWidgetRK5QListI7QStringEi
libQt6Widgets.so.6:_ZN15QTreeWidgetItemC1Ei
libQt6Widgets.so.6:_ZN15QTreeWidgetItemC2EP11QTreeWidgeti
libQt6Widgets.so.6:_ZN15QTreeWidgetItemC2Ei
libQt6Widgets.so.6:_ZN15QTreeWidgetItemD2Ev
libQt6Widgets.so.6:_ZN16QDialogButtonBox14setOrientationEN2Qt11OrientationE
libQt6Widgets.so.6:_ZN16QDialogButtonBox16staticMetaObjectE
libQt6Widgets.so.6:_ZN16QDialogButtonBox18setStandardButtonsE6QFlagsINS_14StandardButtonEE
libQt6Widgets.so.6:_ZN16QDialogButtonBox8acceptedEv
libQt6Widgets.so.6:_ZN16QDialogButtonBox8rejectedEv
libQt6Widgets.so.6:_ZN16QDialogButtonBox9addButtonEP15QAbstractButtonNS_10ButtonRoleE
libQt6Widgets.so.6:_ZN16QDialogButtonBoxC1E6QFlagsINS_14StandardButtonEEP7QWidget
libQt6Widgets.so.6:_ZN16QDialogButtonBoxC1EP7QWidget
libQt6Widgets.so.6:_ZN17QAbstractItemView10commitDataEP7QWidget
libQt6Widgets.so.6:_ZN17QAbstractItemView11closeEditorEP7QWidgetN21QAbstractItemDelegate11EndEditHintE
libQt6Widgets.so.6:_ZN17QAbstractItemView11eventFilterEP7QObjectP6QEvent
libQt6Widgets.so.6:_ZN17QAbstractItemView11resizeEventEP12QResizeEvent
libQt6Widgets.so.6:_ZN17QAbstractItemView11setIconSizeERK5QSize
libQt6Widgets.so.6:_ZN17QAbstractItemView12focusInEventEP11QFocusEvent
libQt6Widgets.so.6:_ZN17QAbstractItemView13focusOutEventEP11QFocusEvent
libQt6Widgets.so.6:_ZN17QAbstractItemView13keyPressEventEP9QKeyEvent
libQt6Widgets.so.6:_ZN17QAbstractItemView13viewportEventEP6QEvent
libQt6Widgets.so.6:_ZN17QAbstractItemView14clearSelectionEv
libQt6Widgets.so.6:_ZN17QAbstractItemView14dragEnterEventEP15QDragEnterEvent
libQt6Widgets.so.6:_ZN17QAbstractItemView14dragLeaveEventEP15QDragLeaveEvent
libQt6Widgets.so.6:_ZN17QAbstractItemView14keyboardSearchERK7QString
libQt6Widgets.so.6:_ZN17QAbstractItemView14setDragEnabledEb
libQt6Widgets.so.6:_ZN17QAbstractItemView15editorDestroyedEP7QObject
libQt6Widgets.so.6:_ZN17QAbstractItemView15mousePressEventEP11QMouseEvent
libQt6Widgets.so.6:_ZN17QAbstractItemView15setCurrentIndexERK11QModelIndex
libQt6Widgets.so.6:_ZN17QAbstractItemView15setEditTriggersE6QFlagsINS_11EditTriggerEE
libQt6Widgets.so.6:_ZN17QAbstractItemView15setItemDelegateEP21QAbstractItemDelegate
libQt6Widgets.so.6:_ZN17QAbstractItemView16inputMethodEventEP17QInputMethodEvent
libQt6Widgets.so.6:_ZN17QAbstractItemView16setSelectionModeENS_13SelectionModeE
libQt6Widgets.so.6:_ZN17QAbstractItemView16staticMetaObjectE
libQt6Widgets.so.6:_ZN17QAbstractItemView16updateEditorDataEv
libQt6Widgets.so.6:_ZN17QAbstractItemView18focusNextPrevChildEb
libQt6Widgets.so.6:_ZN17QAbstractItemView20setSelectionBehaviorENS_17SelectionBehaviorE
libQt6Widgets.so.6:_ZN17QAbstractItemView21mouseDoubleClickEventEP11QMouseEvent
libQt6Widgets.so.6:_ZN17QAbstractItemView21setVerticalScrollModeENS_10ScrollModeE
libQt6Widgets.so.6:_ZN17QAbstractItemView22updateEditorGeometriesEv
libQt6Widgets.so.6:_ZN17QAbstractItemView23setAlternatingRowColorsEb
libQt6Widgets.so.6:_ZN17QAbstractItemView23verticalScrollbarActionEi
libQt6Widgets.so.6:_ZN17QAbstractItemView25horizontalScrollbarActionEi
libQt6Widgets.so.6:_ZN17QAbstractItemView29verticalScrollbarValueChangedEi
libQt6Widgets.so.6:_ZN17QAbstractItemView31horizontalScrollbarValueChangedEi
libQt6Widgets.so.6:_ZN17QAbstractItemView4editERK11QModelIndexNS_11EditTriggerEP6QEvent
libQt6Widgets.so.6:_ZN17QAbstractItemView5eventEP6QEvent
libQt6Widgets.so.6:_ZN17QAbstractItemView7clickedERK11QModelIndex
libQt6Widgets.so.6:_ZN17QAbstractItemView9activatedERK11QModelIndex
libQt6Widgets.so.6:_ZN17QAbstractItemView9dropEventEP10QDropEvent
libQt6Widgets.so.6:_ZN17QAbstractItemView9selectAllEv
libQt6Widgets.so.6:_ZN17QAbstractItemView9startDragE6QFlagsIN2Qt10DropActionEE
libQt6Widgets.so.6:_ZN17QFileIconProviderC1Ev
libQt6Widgets.so.6:_ZN17QFileIconProviderD1Ev
libQt6Widgets.so.6:_ZN17QStyleOptionFrameC1Ev
libQt6Widgets.so.6:_ZN18QStyleOptionButtonC1Ev
libQt6Widgets.so.6:_ZN19QAbstractScrollArea10paintEventEP11QPaintEvent
libQt6Widgets.so.6:_ZN19QAbstractScrollArea10wheelEventEP11QWheelEvent
libQt6Widgets.so.6:_ZN19QAbstractScrollArea11eventFilterEP7QObjectP6QEvent
libQt6Widgets.so.6:_ZN19QAbstractScrollArea11qt_metacallEN11QMetaObject4CallEiPPv
libQt6Widgets.so.6:_ZN19QAbstractScrollArea11qt_metacastEPKc
libQt6Widgets.so.6:_ZN19QAbstractScrollArea13dragMoveEventEP14QDragMoveEvent
libQt6Widgets.so.6:_ZN19QAbstractScrollArea13setupViewportEP7QWidget
libQt6Widgets.so.6:_ZN19QAbstractScrollArea13viewportEventEP6QEvent
libQt6Widgets.so.6:_ZN19QAbstractScrollArea14dragEnterEventEP15QDragEnterEvent
libQt6Widgets.so.6:_ZN19QAbstractScrollArea14dragLeaveEventEP15QDragLeaveEvent
libQt6Widgets.so.6:_ZN19QAbstractScrollArea14mouseMoveEventEP11QMouseEvent
libQt6Widgets.so.6:_ZN19QAbstractScrollArea15mousePressEventEP11QMouseEvent
libQt6Widgets.so.6:_ZN19QAbstractScrollArea16contextMenuEventEP17QContextMenuEvent
libQt6Widgets.so.6:_ZN19QAbstractScrollArea16staticMetaObjectE
libQt6Widgets.so.6:_ZN19QAbstractScrollArea17mouseReleaseEventEP11QMouseEvent
libQt6Widgets.so.6:_ZN19QAbstractScrollArea21mouseDoubleClickEventEP11QMouseEvent
libQt6Widgets.so.6:_ZN19QAbstractScrollArea26setVerticalScrollBarPolicyEN2Qt15ScrollBarPolicyE
libQt6Widgets.so.6:_ZN19QAbstractScrollArea28setHorizontalScrollBarPolicyEN2Qt15ScrollBarPolicyE
libQt6Widgets.so.6:_ZN19QAbstractScrollArea5eventEP6QEvent
libQt6Widgets.so.6:_ZN19QAbstractScrollArea9dropEventEP10QDropEvent
libQt6Widgets.so.6:_ZN19QAbstractScrollAreaC2EP7QWidget
libQt6Widgets.so.6:_ZN19QAbstractScrollAreaD2Ev
libQt6Widgets.so.6:_ZN19QScrollerProperties15setScrollMetricENS_12ScrollMetricERK8QVariant
libQt6Widgets.so.6:_ZN19QScrollerPropertiesC1Ev
libQt6Widgets.so.6:_ZN19QScrollerPropertiesD1Ev
libQt6Widgets.so.6:_ZN19QStyledItemDelegate11editorEventEP6QEventP18QAbstractItemModelRK20QStyleOptionViewItemRK11QModelIndex
libQt6Widgets.so.6:_ZN19QStyledItemDelegate11eventFilterEP7QObjectP6QEvent
libQt6Widgets.so.6:_ZN19QStyledItemDelegate11qt_metacallEN11QMetaObject4CallEiPPv
libQt6Widgets.so.6:_ZN19QStyledItemDelegate11qt_metacastEPKc
libQt6Widgets.so.6:_ZN19QStyledItemDelegate16staticMetaObjectE
libQt6Widgets.so.6:_ZN19QStyledItemDelegateC2EP7QObject
libQt6Widgets.so.6:_ZN19QStyledItemDelegateD2Ev
libQt6Widgets.so.6:_ZN21QAbstractItemDelegate9helpEventEP10QHelpEventP17QAbstractItemViewRK20QStyleOptionViewItemRK11QModelIndex
libQt6Widgets.so.6:_ZN22QGraphicsOpacityEffect10setOpacityEd
libQt6Widgets.so.6:_ZN22QGraphicsOpacityEffectC1EP7QObject
libQt6Widgets.so.6:_ZN5QMenu12addSeparatorEv
libQt6Widgets.so.6:_ZN5QMenu16staticMetaObjectE
libQt6Widgets.so.6:_ZN5QMenu4execERK5QListIP7QActionERK6QPointS2_P7QWidget
libQt6Widgets.so.6:_ZN5QMenu4execERK6QPointP7QAction
libQt6Widgets.so.6:_ZN5QMenu5clearEv
libQt6Widgets.so.6:_ZN5QMenu5popupERK6QPointP7QAction
libQt6Widgets.so.6:_ZN5QMenu7addMenuEPS_
libQt6Widgets.so.6:_ZN5QMenu7addMenuERK5QIconRK7QString
libQt6Widgets.so.6:_ZN5QMenu7addMenuERK7QString
libQt6Widgets.so.6:_ZN5QMenu7setIconERK5QIcon
libQt6Widgets.so.6:_ZN5QMenu8setTitleERK7QString
libQt6Widgets.so.6:_ZN5QMenu9triggeredEP7QAction
libQt6Widgets.so.6:_ZN5QMenuC1EP7QWidget
libQt6Widgets.so.6:_ZN5QMenuD1Ev
libQt6Widgets.so.6:_ZN6QFrame10paintEventEP11QPaintEvent
libQt6Widgets.so.6:_ZN6QFrame11changeEventEP6QEvent
libQt6Widgets.so.6:_ZN6QFrame11qt_metacallEN11QMetaObject4CallEiPPv
libQt6Widgets.so.6:_ZN6QFrame11qt_metacastEPKc
libQt6Widgets.so.6:_ZN6QFrame13setFrameShapeENS_5ShapeE
libQt6Widgets.so.6:_ZN6QFrame13setFrameStyleEi
libQt6Widgets.so.6:_ZN6QFrame14setFrameShadowENS_6ShadowE
libQt6Widgets.so.6:_ZN6QFrame16staticMetaObjectE
libQt6Widgets.so.6:_ZN6QFrame5eventEP6QEvent
libQt6Widgets.so.6:_ZN6QFrameC1EP7QWidget6QFlagsIN2Qt10WindowTypeEE
libQt6Widgets.so.6:_ZN6QFrameC2EP7QWidget6QFlagsIN2Qt10WindowTypeEE
libQt6Widgets.so.6:_ZN6QFrameD2Ev
libQt6Widgets.so.6:_ZN6QLabel10paintEventEP11QPaintEvent
libQt6Widgets.so.6:_ZN6QLabel11changeEventEP6QEvent
libQt6Widgets.so.6:_ZN6QLabel11setWordWrapEb
libQt6Widgets.so.6:_ZN6QLabel12focusInEventEP11QFocusEvent
libQt6Widgets.so.6:_ZN6QLabel12setAlignmentE6QFlagsIN2Qt13AlignmentFlagEE
libQt6Widgets.so.6:_ZN6QLabel13focusOutEventEP11QFocusEvent
libQt6Widgets.so.6:_ZN6QLabel13keyPressEventEP9QKeyEvent
libQt6Widgets.so.6:_ZN6QLabel13setTextFormatEN2Qt10TextFormatE
libQt6Widgets.so.6:_ZN6QLabel14mouseMoveEventEP11QMouseEvent
libQt6Widgets.so.6:_ZN6QLabel15mousePressEventEP11QMouseEvent
libQt6Widgets.so.6:_ZN6QLabel16staticMetaObjectE
libQt6Widgets.so.6:_ZN6QLabel17setScaledContentsEb
libQt6Widgets.so.6:_ZN6QLabel18focusNextPrevChildEb
libQt6Widgets.so.6:_ZN6QLabel23setTextInteractionFlagsE6QFlagsIN2Qt19TextInteractionFlagEE
libQt6Widgets.so.6:_ZN6QLabel5eventEP6QEvent
libQt6Widgets.so.6:_ZN6QLabel7setTextERK7QString
libQt6Widgets.so.6:_ZN6QLabel8setBuddyEP7QWidget
libQt6Widgets.so.6:_ZN6QLabel9setMarginEi
libQt6Widgets.so.6:_ZN6QLabel9setPixmapERK7QPixmap
libQt6Widgets.so.6:_ZN6QLabelC1EP7QWidget6QFlagsIN2Qt10WindowTypeEE
libQt6Widgets.so.6:_ZN6QLabelC1ERK7QStringP7QWidget6QFlagsIN2Qt10WindowTypeEE
libQt6Widgets.so.6:_ZN7QDialog10closeEventEP11QCloseEvent
libQt6Widgets.so.6:_ZN7QDialog10setVisibleEb
libQt6Widgets.so.6:_ZN7QDialog11eventFilterEP7QObjectP6QEvent
libQt6Widgets.so.6:_ZN7QDialog11qt_metacallEN11QMetaObject4CallEiPPv
libQt6Widgets.so.6:_ZN7QDialog11qt_metacastEPKc
libQt6Widgets.so.6:_ZN7QDialog11resizeEventEP12QResizeEvent
libQt6Widgets.so.6:_ZN7QDialog13keyPressEventEP9QKeyEvent
libQt6Widgets.so.6:_ZN7QDialog16contextMenuEventEP17QContextMenuEvent
libQt6Widgets.so.6:_ZN7QDialog16staticMetaObjectE
libQt6Widgets.so.6:_ZN7QDialog4doneEi
libQt6Widgets.so.6:_ZN7QDialog4execEv
libQt6Widgets.so.6:_ZN7QDialog4openEv
libQt6Widgets.so.6:_ZN7QDialog6acceptEv
libQt6Widgets.so.6:_ZN7QDialog6rejectEv
libQt6Widgets.so.6:_ZN7QDialog8finishedEi
libQt6Widgets.so.6:_ZN7QDialog8setModalEb
libQt6Widgets.so.6:_ZN7QDialog9showEventEP10QShowEvent
libQt6Widgets.so.6:_ZN7QDialogC1EP7QWidget6QFlagsIN2Qt10WindowTypeEE
libQt6Widgets.so.6:_ZN7QDialogC2EP7QWidget6QFlagsIN2Qt10WindowTypeEE
libQt6Widgets.so.6:_ZN7QDialogD2Ev
libQt6Widgets.so.6:_ZN7QLayout12removeWidgetEP7QWidget
libQt6Widgets.so.6:_ZN7QLayout12setAlignmentEP7QWidget6QFlagsIN2Qt13AlignmentFlagEE
libQt6Widgets.so.6:_ZN7QLayout17setSizeConstraintENS_14SizeConstraintE
libQt6Widgets.so.6:_ZN7QLayout18setContentsMarginsERK8QMargins
libQt6Widgets.so.6:_ZN7QLayout18setContentsMarginsEiiii
libQt6Widgets.so.6:_ZN7QLayout9addWidgetEP7QWidget
libQt6Widgets.so.6:_ZN7QSlider15setTickIntervalEi
libQt6Widgets.so.6:_ZN7QSlider15setTickPositionENS_12TickPositionE
libQt6Widgets.so.6:_ZN7QSliderC1EN2Qt11OrientationEP7QWidget
libQt6Widgets.so.6:_ZN7QSliderC1EP7QWidget
libQt6Widgets.so.6:_ZN7QTabBar12setExpandingEb
libQt6Widgets.so.6:_ZN7QTabBar16staticMetaObjectE
libQt6Widgets.so.6:_ZN7QTabBar8tabMovedEii
libQt6Widgets.so.6:_ZN7QWidget10adjustSizeEv
libQt6Widgets.so.6:_ZN7QWidget10clearFocusEv
libQt6Widgets.so.6:_ZN7QWidget10closeEventEP11QCloseEvent
libQt6Widgets.so.6:_ZN7QWidget10enterEventEP11QEnterEvent
libQt6Widgets.so.6:_ZN7QWidget10leaveEventEP6QEvent
libQt6Widgets.so.6:_ZN7QWidget10paintEventEP11QPaintEvent
libQt6Widgets.so.6:_ZN7QWidget10setEnabledEb
libQt6Widgets.so.6:_ZN7QWidget10setPaletteERK8QPalette
libQt6Widgets.so.6:_ZN7QWidget10setToolTipERK7QString
libQt6Widgets.so.6:_ZN7QWidget10setVisibleEb
libQt6Widgets.so.6:_ZN7QWidget10showNormalEv
libQt6Widgets.so.6:_ZN7QWidget10wheelEventEP11QWheelEvent
libQt6Widgets.so.6:_ZN7QWidget11actionEventEP12QActionEvent
libQt6Widgets.so.6:_ZN7QWidget11changeEventEP6QEvent
libQt6Widgets.so.6:_ZN7QWidget11grabGestureEN2Qt11GestureTypeE6QFlagsINS0_11GestureFlagEE
libQt6Widgets.so.6:_ZN7QWidget11nativeEventERK10QByteArrayPvPx
libQt6Widgets.so.6:_ZN7QWidget11qt_metacallEN11QMetaObject4CallEiPPv
libQt6Widgets.so.6:_ZN7QWidget11qt_metacastEPKc
libQt6Widgets.so.6:_ZN7QWidget11resizeEventEP12QResizeEvent
libQt6Widgets.so.6:_ZN7QWidget11setGeometryERK5QRect
libQt6Widgets.so.6:_ZN7QWidget11tabletEventEP12QTabletEvent
libQt6Widgets.so.6:_ZN7QWidget12focusInEventEP11QFocusEvent
libQt6Widgets.so.6:_ZN7QWidget12insertActionEP7QActionS1_
libQt6Widgets.so.6:_ZN7QWidget12removeActionEP7QAction
libQt6Widgets.so.6:_ZN7QWidget12setAttributeEN2Qt15WidgetAttributeEb
libQt6Widgets.so.6:_ZN7QWidget12setFixedSizeERK5QSize
libQt6Widgets.so.6:_ZN7QWidget12setFixedSizeEii
libQt6Widgets.so.6:_ZN7QWidget12setWhatsThisERK7QString
libQt6Widgets.so.6:_ZN7QWidget13dragMoveEventEP14QDragMoveEvent
libQt6Widgets.so.6:_ZN7QWidget13focusOutEventEP11QFocusEvent
libQt6Widgets.so.6:_ZN7QWidget13keyPressEventEP9QKeyEvent
libQt6Widgets.so.6:_ZN7QWidget13setFixedWidthEi
libQt6Widgets.so.6:_ZN7QWidget13setFocusProxyEPS_
libQt6Widgets.so.6:_ZN7QWidget13setSizePolicyE11QSizePolicy
libQt6Widgets.so.6:_ZN7QWidget14dragEnterEventEP15QDragEnterEvent
libQt6Widgets.so.6:_ZN7QWidget14dragLeaveEventEP15QDragLeaveEvent
libQt6Widgets.so.6:_ZN7QWidget14mouseMoveEventEP11QMouseEvent
libQt6Widgets.so.6:_ZN7QWidget14setAcceptDropsEb
libQt6Widgets.so.6:_ZN7QWidget14setFixedHeightEi
libQt6Widgets.so.6:_ZN7QWidget14setFocusPolicyEN2Qt11FocusPolicyE
libQt6Widgets.so.6:_ZN7QWidget14setMaximumSizeEii
libQt6Widgets.so.6:_ZN7QWidget14setMinimumSizeEii
libQt6Widgets.so.6:_ZN7QWidget14setWindowStateE6QFlagsIN2Qt11WindowStateEE
libQt6Widgets.so.6:_ZN7QWidget14setWindowTitleERK7QString
libQt6Widgets.so.6:_ZN7QWidget14updateGeometryEv
libQt6Widgets.so.6:_ZN7QWidget15keyReleaseEventEP9QKeyEvent
libQt6Widgets.so.6:_ZN7QWidget15mousePressEventEP11QMouseEvent
libQt6Widgets.so.6:_ZN7QWidget15setMaximumWidthEi
libQt6Widgets.so.6:_ZN7QWidget15setMinimumWidthEi
libQt6Widgets.so.6:_ZN7QWidget16contextMenuEventEP17QContextMenuEvent
libQt6Widgets.so.6:_ZN7QWidget16inputMethodEventEP17QInputMethodEvent
libQt6Widgets.so.6:_ZN7QWidget16setMaximumHeightEi
libQt6Widgets.so.6:_ZN7QWidget16staticMetaObjectE
libQt6Widgets.so.6:_ZN7QWidget17mouseReleaseEventEP11QMouseEvent
libQt6Widgets.so.6:_ZN7QWidget17setBackgroundRoleEN8QPalette9ColorRoleE
libQt6Widgets.so.6:_ZN7QWidget17setGraphicsEffectEP15QGraphicsEffect
libQt6Widgets.so.6:_ZN7QWidget17setUpdatesEnabledEb
libQt6Widgets.so.6:_ZN7QWidget17setWindowModalityEN2Qt14WindowModalityE
libQt6Widgets.so.6:_ZN7QWidget18focusNextPrevChildEb
libQt6Widgets.so.6:_ZN7QWidget20setContextMenuPolicyEN2Qt17ContextMenuPolicyE
libQt6Widgets.so.6:_ZN7QWidget21mouseDoubleClickEventEP11QMouseEvent
libQt6Widgets.so.6:_ZN7QWidget21setAutoFillBackgroundEb
libQt6Widgets.so.6:_ZN7QWidget26customContextMenuRequestedERK6QPoint
libQt6Widgets.so.6:_ZN7QWidget4hideEv
libQt6Widgets.so.6:_ZN7QWidget4moveERK6QPoint
libQt6Widgets.so.6:_ZN7QWidget4showEv
libQt6Widgets.so.6:_ZN7QWidget5closeEv
libQt6Widgets.so.6:_ZN7QWidget5eventEP6QEvent
libQt6Widgets.so.6:_ZN7QWidget5raiseEv
libQt6Widgets.so.6:_ZN7QWidget6resizeERK5QSize
libQt6Widgets.so.6:_ZN7QWidget6scrollEiiRK5QRect
libQt6Widgets.so.6:_ZN7QWidget6updateERK5QRect
libQt6Widgets.so.6:_ZN7QWidget6updateEv
libQt6Widgets.so.6:_ZN7QWidget7setFontERK5QFont
libQt6Widgets.so.6:_ZN7QWidget8setFocusEN2Qt11FocusReasonE
libQt6Widgets.so.6:_ZN7QWidget9addActionEP7QAction
libQt6Widgets.so.6:_ZN7QWidget9addActionERK5QIconRK7QString
libQt6Widgets.so.6:_ZN7QWidget9addActionERK7QString
libQt6Widgets.so.6:_ZN7QWidget9dropEventEP10QDropEvent
libQt6Widgets.so.6:_ZN7QWidget9hideEventEP10QHideEvent
libQt6Widgets.so.6:_ZN7QWidget9moveEventEP10QMoveEvent
libQt6Widgets.so.6:_ZN7QWidget9setCursorERK7QCursor
libQt6Widgets.so.6:_ZN7QWidget9setHiddenEb
libQt6Widgets.so.6:_ZN7QWidget9setLayoutEP7QLayout
libQt6Widgets.so.6:_ZN7QWidget9setParentEPS_
libQt6Widgets.so.6:_ZN7QWidget9showEventEP10QShowEvent
libQt6Widgets.so.6:_ZN7QWidgetC1EPS_6QFlagsIN2Qt10WindowTypeEE
libQt6Widgets.so.6:_ZN7QWidgetC2EPS_6QFlagsIN2Qt10WindowTypeEE
libQt6Widgets.so.6:_ZN7QWidgetD2Ev
libQt6Widgets.so.6:_ZN8QSpinBox10setMaximumEi
libQt6Widgets.so.6:_ZN8QSpinBox10setMinimumEi
libQt6Widgets.so.6:_ZN8QSpinBox12valueChangedEi
libQt6Widgets.so.6:_ZN8QSpinBox13setSingleStepEi
libQt6Widgets.so.6:_ZN8QSpinBox16staticMetaObjectE
libQt6Widgets.so.6:_ZN8QSpinBox8setRangeEii
libQt6Widgets.so.6:_ZN8QSpinBox8setValueEi
libQt6Widgets.so.6:_ZN8QSpinBox9setPrefixERK7QString
libQt6Widgets.so.6:_ZN8QSpinBox9setSuffixERK7QString
libQt6Widgets.so.6:_ZN8QSpinBoxC1EP7QWidget
libQt6Widgets.so.6:_ZN8QToolBar10paintEventEP11QPaintEvent
libQt6Widgets.so.6:_ZN8QToolBar10setMovableEb
libQt6Widgets.so.6:_ZN8QToolBar11actionEventEP12QActionEvent
libQt6Widgets.so.6:_ZN8QToolBar11changeEventEP6QEvent
libQt6Widgets.so.6:_ZN8QToolBar11qt_metacallEN11QMetaObject4CallEiPPv
libQt6Widgets.so.6:_ZN8QToolBar11qt_metacastEPKc
libQt6Widgets.so.6:_ZN8QToolBar11setIconSizeERK5QSize
libQt6Widgets.so.6:_ZN8QToolBar12addSeparatorEv
libQt6Widgets.so.6:_ZN8QToolBar15iconSizeChangedERK5QSize
libQt6Widgets.so.6:_ZN8QToolBar16staticMetaObjectE
libQt6Widgets.so.6:_ZN8QToolBar17visibilityChangedEb
libQt6Widgets.so.6:_ZN8QToolBar18orientationChangedEN2Qt11OrientationE
libQt6Widgets.so.6:_ZN8QToolBar22toolButtonStyleChangedEN2Qt15ToolButtonStyleE
libQt6Widgets.so.6:_ZN8QToolBar5eventEP6QEvent
libQt6Widgets.so.6:_ZN8QToolBar9addWidgetEP7QWidget
libQt6Widgets.so.6:_ZN8QToolBarC1EP7QWidget
libQt6Widgets.so.6:_ZN8QToolBarC2EP7QWidget
libQt6Widgets.so.6:_ZN8QToolBarD2Ev
libQt6Widgets.so.6:_ZN8QToolTip8showTextERK6QPointRK7QStringP7QWidgetRK5QRecti
libQt6Widgets.so.6:_ZN8QToolTip9isVisibleEv
libQt6Widgets.so.6:_ZN9QCheckBox11qt_metacallEN11QMetaObject4CallEiPPv
libQt6Widgets.so.6:_ZN9QCheckBox11qt_metacastEPKc
libQt6Widgets.so.6:_ZN9QCheckBox13checkStateSetEv
libQt6Widgets.so.6:_ZN9QCheckBox13setCheckStateEN2Qt10CheckStateE
libQt6Widgets.so.6:_ZN9QCheckBox14mouseMoveEventEP11QMouseEvent
libQt6Widgets.so.6:_ZN9QCheckBox14nextCheckStateEv
libQt6Widgets.so.6:_ZN9QCheckBox16staticMetaObjectE
libQt6Widgets.so.6:_ZN9QCheckBox5eventEP6QEvent
libQt6Widgets.so.6:_ZN9QCheckBoxC1EP7QWidget
libQt6Widgets.so.6:_ZN9QCheckBoxC1ERK7QStringP7QWidget
libQt6Widgets.so.6:_ZN9QCheckBoxC2EP7QWidget
libQt6Widgets.so.6:_ZN9QCheckBoxD2Ev
libQt6Widgets.so.6:_ZN9QComboBox10insertItemEiRK5QIconRK7QStringRK8QVariant
libQt6Widgets.so.6:_ZN9QComboBox10paintEventEP11QPaintEvent
libQt6Widgets.so.6:_ZN9QComboBox10wheelEventEP11QWheelEvent
libQt6Widgets.so.6:_ZN9QComboBox11changeEventEP6QEvent
libQt6Widgets.so.6:_ZN9QComboBox11insertItemsEiRK5QListI7QStringE
libQt6Widgets.so.6:_ZN9QComboBox11qt_metacallEN11QMetaObject4CallEiPPv
libQt6Widgets.so.6:_ZN9QComboBox11qt_metacastEPKc
libQt6Widgets.so.6:_ZN9QComboBox11resizeEventEP12QResizeEvent
libQt6Widgets.so.6:_ZN9QComboBox11setEditTextERK7QString
libQt6Widgets.so.6:_ZN9QComboBox11setEditableEb
libQt6Widgets.so.6:_ZN9QComboBox11setItemTextEiRK7QString
libQt6Widgets.so.6:_ZN9QComboBox12focusInEventEP11QFocusEvent
libQt6Widgets.so.6:_ZN9QComboBox13focusOutEventEP11QFocusEvent
libQt6Widgets.so.6:_ZN9QComboBox13keyPressEventEP9QKeyEvent
libQt6Widgets.so.6:_ZN9QComboBox15editTextChangedERK7QString
libQt6Widgets.so.6:_ZN9QComboBox15keyReleaseEventEP9QKeyEvent
libQt6Widgets.so.6:_ZN9QComboBox15mousePressEventEP11QMouseEvent
libQt6Widgets.so.6:_ZN9QComboBox15setCurrentIndexEi
libQt6Widgets.so.6:_ZN9QComboBox15setInsertPolicyENS_12InsertPolicyE
libQt6Widgets.so.6:_ZN9QComboBox16contextMenuEventEP17QContextMenuEvent
libQt6Widgets.so.6:_ZN9QComboBox16inputMethodEventEP17QInputMethodEvent
libQt6Widgets.so.6:_ZN9QComboBox16staticMetaObjectE
libQt6Widgets.so.6:_ZN9QComboBox17mouseReleaseEventEP11QMouseEvent
libQt6Widgets.so.6:_ZN9QComboBox19currentIndexChangedEi
libQt6Widgets.so.6:_ZN9QComboBox5clearEv
libQt6Widgets.so.6:_ZN9QComboBox5eventEP6QEvent
libQt6Widgets.so.6:_ZN9QComboBox8setModelEP18QAbstractItemModel
libQt6Widgets.so.6:_ZN9QComboBox9hideEventEP10QHideEvent
libQt6Widgets.so.6:_ZN9QComboBox9hidePopupEv
libQt6Widgets.so.6:_ZN9QComboBox9showEventEP10QShowEvent
libQt6Widgets.so.6:_ZN9QComboBox9showPopupEv
libQt6Widgets.so.6:_ZN9QComboBoxC1EP7QWidget
libQt6Widgets.so.6:_ZN9QComboBoxC2EP7QWidget
libQt6Widgets.so.6:_ZN9QComboBoxD2Ev
libQt6Widgets.so.6:_ZN9QGroupBox8setTitleERK7QString
libQt6Widgets.so.6:_ZN9QGroupBoxC1EP7QWidget
libQt6Widgets.so.6:_ZN9QGroupBoxC1ERK7QStringP7QWidget
libQt6Widgets.so.6:_ZN9QLineEdit10paintEventEP11QPaintEvent
libQt6Widgets.so.6:_ZN9QLineEdit10textEditedERK7QString
libQt6Widgets.so.6:_ZN9QLineEdit10timerEventEP11QTimerEvent
libQt6Widgets.so.6:_ZN9QLineEdit11changeEventEP6QEvent
libQt6Widgets.so.6:_ZN9QLineEdit11qt_metacallEN11QMetaObject4CallEiPPv
libQt6Widgets.so.6:_ZN9QLineEdit11qt_metacastEPKc
libQt6Widgets.so.6:_ZN9QLineEdit11setEchoModeENS_8EchoModeE
libQt6Widgets.so.6:_ZN9QLineEdit11setReadOnlyEb
libQt6Widgets.so.6:_ZN9QLineEdit11textChangedERK7QString
libQt6Widgets.so.6:_ZN9QLineEdit12focusInEventEP11QFocusEvent
libQt6Widgets.so.6:_ZN9QLineEdit12setAlignmentE6QFlagsIN2Qt13AlignmentFlagEE
libQt6Widgets.so.6:_ZN9QLineEdit12setMaxLengthEi
libQt6Widgets.so.6:_ZN9QLineEdit12setSelectionEii
libQt6Widgets.so.6:_ZN9QLineEdit12setValidatorEPK10QValidator
libQt6Widgets.so.6:_ZN9QLineEdit13cursorForwardEbi
libQt6Widgets.so.6:_ZN9QLineEdit13dragMoveEventEP14QDragMoveEvent
libQt6Widgets.so.6:_ZN9QLineEdit13focusOutEventEP11QFocusEvent
libQt6Widgets.so.6:_ZN9QLineEdit13keyPressEventEP9QKeyEvent
libQt6Widgets.so.6:_ZN9QLineEdit13returnPressedEv
libQt6Widgets.so.6:_ZN9QLineEdit14dragEnterEventEP15QDragEnterEvent
libQt6Widgets.so.6:_ZN9QLineEdit14dragLeaveEventEP15QDragLeaveEvent
libQt6Widgets.so.6:_ZN9QLineEdit14mouseMoveEventEP11QMouseEvent
libQt6Widgets.so.6:_ZN9QLineEdit15keyReleaseEventEP9QKeyEvent
libQt6Widgets.so.6:_ZN9QLineEdit15mousePressEventEP11QMouseEvent
libQt6Widgets.so.6:_ZN9QLineEdit16inputMethodEventEP17QInputMethodEvent
libQt6Widgets.so.6:_ZN9QLineEdit16staticMetaObjectE
libQt6Widgets.so.6:_ZN9QLineEdit17mouseReleaseEventEP11QMouseEvent
libQt6Widgets.so.6:_ZN9QLineEdit17setCursorPositionEi
libQt6Widgets.so.6:_ZN9QLineEdit18setPlaceholderTextERK7QString
libQt6Widgets.so.6:_ZN9QLineEdit21cursorPositionChangedEii
libQt6Widgets.so.6:_ZN9QLineEdit21mouseDoubleClickEventEP11QMouseEvent
libQt6Widgets.so.6:_ZN9QLineEdit21setClearButtonEnabledEb
libQt6Widgets.so.6:_ZN9QLineEdit25createStandardContextMenuEv
libQt6Widgets.so.6:_ZN9QLineEdit5clearEv
libQt6Widgets.so.6:_ZN9QLineEdit5eventEP6QEvent
libQt6Widgets.so.6:_ZN9QLineEdit7setTextERK7QString
libQt6Widgets.so.6:_ZN9QLineEdit9dropEventEP10QDropEvent
libQt6Widgets.so.6:_ZN9QLineEdit9selectAllEv
libQt6Widgets.so.6:_ZN9QLineEditC1EP7QWidget
libQt6Widgets.so.6:_ZN9QLineEditC2EP7QWidget
libQt6Widgets.so.6:_ZN9QLineEditD2Ev
libQt6Widgets.so.6:_ZN9QListView10moveCursorEN17QAbstractItemView12CursorActionE6QFlagsIN2Qt16KeyboardModifierEE
libQt6Widgets.so.6:_ZN9QListView10paintEventEP11QPaintEvent
libQt6Widgets.so.6:_ZN9QListView10setSpacingEi
libQt6Widgets.so.6:_ZN9QListView10timerEventEP11QTimerEvent
libQt6Widgets.so.6:_ZN9QListView10wheelEventEP11QWheelEvent
libQt6Widgets.so.6:_ZN9QListView11dataChangedERK11QModelIndexS2_RK5QListIiE
libQt6Widgets.so.6:_ZN9QListView11resizeEventEP12QResizeEvent
libQt6Widgets.so.6:_ZN9QListView11setViewModeENS_8ViewModeE
libQt6Widgets.so.6:_ZN9QListView12rowsInsertedERK11QModelIndexii
libQt6Widgets.so.6:_ZN9QListView12setRootIndexERK11QModelIndex
libQt6Widgets.so.6:_ZN9QListView12setSelectionERK5QRect6QFlagsIN19QItemSelectionModel13SelectionFlagEE
libQt6Widgets.so.6:_ZN9QListView13doItemsLayoutEv
libQt6Widgets.so.6:_ZN9QListView13dragMoveEventEP14QDragMoveEvent
libQt6Widgets.so.6:_ZN9QListView13setLayoutModeENS_10LayoutModeE
libQt6Widgets.so.6:_ZN9QListView14currentChangedERK11QModelIndexS2_
libQt6Widgets.so.6:_ZN9QListView14dragLeaveEventEP15QDragLeaveEvent
libQt6Widgets.so.6:_ZN9QListView14mouseMoveEventEP11QMouseEvent
libQt6Widgets.so.6:_ZN9QListView16scrollContentsByEii
libQt6Widgets.so.6:_ZN9QListView16selectionChangedERK14QItemSelectionS2_
libQt6Widgets.so.6:_ZN9QListView16staticMetaObjectE
libQt6Widgets.so.6:_ZN9QListView16updateGeometriesEv
libQt6Widgets.so.6:_ZN9QListView17mouseReleaseEventEP11QMouseEvent
libQt6Widgets.so.6:_ZN9QListView20rowsAboutToBeRemovedERK11QModelIndexii
libQt6Widgets.so.6:_ZN9QListView5resetEv
libQt6Widgets.so.6:_ZN9QListView8scrollToERK11QModelIndexN17QAbstractItemView10ScrollHintE
libQt6Widgets.so.6:_ZN9QListView9startDragE6QFlagsIN2Qt10DropActionEE
libQt6Widgets.so.6:_ZN9QListViewC1EP7QWidget
libQt6Widgets.so.6:_ZN9QScroller11handleInputENS_5InputERK7QPointFx
libQt6Widgets.so.6:_ZN9QScroller12stateChangedENS_5StateE
libQt6Widgets.so.6:_ZN9QScroller16staticMetaObjectE
libQt6Widgets.so.6:_ZN9QScroller21setScrollerPropertiesERK19QScrollerProperties
libQt6Widgets.so.6:_ZN9QScroller4stopEv
libQt6Widgets.so.6:_ZN9QScroller8scrollToERK7QPointFi
libQt6Widgets.so.6:_ZN9QScroller8scrollerEP7QObject
libQt6Widgets.so.6:_ZN9QSizeGripC1EP7QWidget
libQt6Widgets.so.6:_ZN9QSplitter13splitterMovedEii
libQt6Widgets.so.6:_ZN9QSplitter15setOpaqueResizeEb
libQt6Widgets.so.6:_ZN9QSplitter16staticMetaObjectE
libQt6Widgets.so.6:_ZN9QSplitter22setChildrenCollapsibleEb
libQt6Widgets.so.6:_ZN9QSplitter8setSizesERK5QListIiE
libQt6Widgets.so.6:_ZN9QSplitterC1EP7QWidget
libQt6Widgets.so.6:_ZN9QTextEdit10paintEventEP11QPaintEvent
libQt6Widgets.so.6:_ZN9QTextEdit10timerEventEP11QTimerEvent
libQt6Widgets.so.6:_ZN9QTextEdit10wheelEventEP11QWheelEvent
libQt6Widgets.so.6:_ZN9QTextEdit11changeEventEP6QEvent
libQt6Widgets.so.6:_ZN9QTextEdit11resizeEventEP12QResizeEvent
libQt6Widgets.so.6:_ZN9QTextEdit11setReadOnlyEb
libQt6Widgets.so.6:_ZN9QTextEdit11textChangedEv
libQt6Widgets.so.6:_ZN9QTextEdit12loadResourceEiRK4QUrl
libQt6Widgets.so.6:_ZN9QTextEdit12setAlignmentE6QFlagsIN2Qt13AlignmentFlagEE
libQt6Widgets.so.6:_ZN9QTextEdit12setPlainTextERK7QString
libQt6Widgets.so.6:_ZN9QTextEdit13dragMoveEventEP14QDragMoveEvent
libQt6Widgets.so.6:_ZN9QTextEdit13focusOutEventEP11QFocusEvent
libQt6Widgets.so.6:_ZN9QTextEdit13setTextCursorERK11QTextCursor
libQt6Widgets.so.6:_ZN9QTextEdit14dragEnterEventEP15QDragEnterEvent
libQt6Widgets.so.6:_ZN9QTextEdit14dragLeaveEventEP15QDragLeaveEvent
libQt6Widgets.so.6:_ZN9QTextEdit14mouseMoveEventEP11QMouseEvent
libQt6Widgets.so.6:_ZN9QTextEdit15doSetTextCursorERK11QTextCursor
libQt6Widgets.so.6:_ZN9QTextEdit15keyReleaseEventEP9QKeyEvent
libQt6Widgets.so.6:_ZN9QTextEdit15mousePressEventEP11QMouseEvent
libQt6Widgets.so.6:_ZN9QTextEdit16inputMethodEventEP17QInputMethodEvent
libQt6Widgets.so.6:_ZN9QTextEdit16scrollContentsByEii
libQt6Widgets.so.6:_ZN9QTextEdit16staticMetaObjectE
libQt6Widgets.so.6:_ZN9QTextEdit17mouseReleaseEventEP11QMouseEvent
libQt6Widgets.so.6:_ZN9QTextEdit17setAcceptRichTextEb
libQt6Widgets.so.6:_ZN9QTextEdit18focusNextPrevChildEb
libQt6Widgets.so.6:_ZN9QTextEdit18insertFromMimeDataEPK9QMimeData
libQt6Widgets.so.6:_ZN9QTextEdit21cursorPositionChangedEv
libQt6Widgets.so.6:_ZN9QTextEdit21mouseDoubleClickEventEP11QMouseEvent
libQt6Widgets.so.6:_ZN9QTextEdit7setHtmlERK7QString
libQt6Widgets.so.6:_ZN9QTextEdit7setTextERK7QString
libQt6Widgets.so.6:_ZN9QTextEdit9dropEventEP10QDropEvent
libQt6Widgets.so.6:_ZN9QTextEdit9showEventEP10QShowEvent
libQt6Widgets.so.6:_ZN9QTextEditC1EP7QWidget
libQt6Widgets.so.6:_ZN9QTreeView10moveCursorEN17QAbstractItemView12CursorActionE6QFlagsIN2Qt16KeyboardModifierEE
libQt6Widgets.so.6:_ZN9QTreeView10paintEventEP11QPaintEvent
libQt6Widgets.so.6:_ZN9QTreeView10timerEventEP11QTimerEvent
libQt6Widgets.so.6:_ZN9QTreeView11changeEventEP6QEvent
libQt6Widgets.so.6:_ZN9QTreeView11collapseAllEv
libQt6Widgets.so.6:_ZN9QTreeView11dataChangedERK11QModelIndexS2_RK5QListIiE
libQt6Widgets.so.6:_ZN9QTreeView11qt_metacallEN11QMetaObject4CallEiPPv
libQt6Widgets.so.6:_ZN9QTreeView11qt_metacastEPKc
libQt6Widgets.so.6:_ZN9QTreeView12rowsInsertedERK11QModelIndexii
libQt6Widgets.so.6:_ZN9QTreeView12setRootIndexERK11QModelIndex
libQt6Widgets.so.6:_ZN9QTreeView12setRowHiddenEiRK11QModelIndexb
libQt6Widgets.so.6:_ZN9QTreeView12setSelectionERK5QRect6QFlagsIN19QItemSelectionModel13SelectionFlagEE
libQt6Widgets.so.6:_ZN9QTreeView12sortByColumnEiN2Qt9SortOrderE
libQt6Widgets.so.6:_ZN9QTreeView13doItemsLayoutEv
libQt6Widgets.so.6:_ZN9QTreeView13dragMoveEventEP14QDragMoveEvent
libQt6Widgets.so.6:_ZN9QTreeView13keyPressEventEP9QKeyEvent
libQt6Widgets.so.6:_ZN9QTreeView13viewportEventEP6QEvent
libQt6Widgets.so.6:_ZN9QTreeView14currentChangedERK11QModelIndexS2_
libQt6Widgets.so.6:_ZN9QTreeView14keyboardSearchERK7QString
libQt6Widgets.so.6:_ZN9QTreeView14mouseMoveEventEP11QMouseEvent
libQt6Widgets.so.6:_ZN9QTreeView14setIndentationEi
libQt6Widgets.so.6:_ZN9QTreeView15mousePressEventEP11QMouseEvent
libQt6Widgets.so.6:_ZN9QTreeView16scrollContentsByEii
libQt6Widgets.so.6:_ZN9QTreeView16selectionChangedERK14QItemSelectionS2_
libQt6Widgets.so.6:_ZN9QTreeView16staticMetaObjectE
libQt6Widgets.so.6:_ZN9QTreeView16updateGeometriesEv
libQt6Widgets.so.6:_ZN9QTreeView17mouseReleaseEventEP11QMouseEvent
libQt6Widgets.so.6:_ZN9QTreeView17setSelectionModelEP19QItemSelectionModel
libQt6Widgets.so.6:_ZN9QTreeView17setSortingEnabledEb
libQt6Widgets.so.6:_ZN9QTreeView18setRootIsDecoratedEb
libQt6Widgets.so.6:_ZN9QTreeView20rowsAboutToBeRemovedERK11QModelIndexii
libQt6Widgets.so.6:_ZN9QTreeView21mouseDoubleClickEventEP11QMouseEvent
libQt6Widgets.so.6:_ZN9QTreeView22resizeColumnToContentsEi
libQt6Widgets.so.6:_ZN9QTreeView25horizontalScrollbarActionEi
libQt6Widgets.so.6:_ZN9QTreeView29verticalScrollbarValueChangedEi
libQt6Widgets.so.6:_ZN9QTreeView5resetEv
libQt6Widgets.so.6:_ZN9QTreeView6expandERK11QModelIndex
libQt6Widgets.so.6:_ZN9QTreeView8collapseERK11QModelIndex
libQt6Widgets.so.6:_ZN9QTreeView8scrollToERK11QModelIndexN17QAbstractItemView10ScrollHintE
libQt6Widgets.so.6:_ZN9QTreeView8setModelEP18QAbstractItemModel
libQt6Widgets.so.6:_ZN9QTreeView9expandAllEv
libQt6Widgets.so.6:_ZN9QTreeView9selectAllEv
libQt6Widgets.so.6:_ZN9QTreeViewC1EP7QWidget
libQt6Widgets.so.6:_ZN9QTreeViewC2EP7QWidget
libQt6Widgets.so.6:_ZN9QTreeViewD2Ev
libQt6Widgets.so.6:_ZNK10QTabWidget12currentIndexEv
libQt6Widgets.so.6:_ZNK10QTabWidget13currentWidgetEv
libQt6Widgets.so.6:_ZNK10QTabWidget5countEv
libQt6Widgets.so.6:_ZNK10QTabWidget6tabBarEv
libQt6Widgets.so.6:_ZNK10QTableView14verticalHeaderEv
libQt6Widgets.so.6:_ZNK10QTableView16horizontalHeaderEv
libQt6Widgets.so.6:_ZNK11QDockWidget15initStyleOptionEP22QStyleOptionDockWidget
libQt6Widgets.so.6:_ZNK11QDockWidget8featuresEv
libQt6Widgets.so.6:_ZNK11QFileDialog12selectedUrlsEv
libQt6Widgets.so.6:_ZNK11QFormLayout13labelForFieldEP7QWidget
libQt6Widgets.so.6:_ZNK11QListWidget10currentRowEv
libQt6Widgets.so.6:_ZNK11QListWidget11currentItemEv
libQt6Widgets.so.6:_ZNK11QListWidget13selectedItemsEv
libQt6Widgets.so.6:_ZNK11QListWidget20supportedDropActionsEv
libQt6Widgets.so.6:_ZNK11QListWidget3rowEPK15QListWidgetItem
libQt6Widgets.so.6:_ZNK11QListWidget4itemEi
libQt6Widgets.so.6:_ZNK11QListWidget5countEv
libQt6Widgets.so.6:_ZNK11QListWidget8mimeDataERK5QListIP15QListWidgetItemE
libQt6Widgets.so.6:_ZNK11QListWidget9mimeTypesEv
libQt6Widgets.so.6:_ZNK11QMainWindow7menuBarEv
libQt6Widgets.so.6:_ZNK11QPushButton15initStyleOptionEP18QStyleOptionButton
libQt6Widgets.so.6:_ZNK11QPushButton15minimumSizeHintEv
libQt6Widgets.so.6:_ZNK11QPushButton8sizeHintEv
libQt6Widgets.so.6:_ZNK11QPushButton9hitButtonERK6QPoint
libQt6Widgets.so.6:_ZNK11QScrollArea16viewportSizeHintEv
libQt6Widgets.so.6:_ZNK11QScrollArea6widgetEv
libQt6Widgets.so.6:_ZNK11QScrollArea8sizeHintEv
libQt6Widgets.so.6:_ZNK11QToolButton15initStyleOptionEP22QStyleOptionToolButton
libQt6Widgets.so.6:_ZNK11QToolButton15minimumSizeHintEv
libQt6Widgets.so.6:_ZNK11QToolButton15toolButtonStyleEv
libQt6Widgets.so.6:_ZNK11QToolButton8sizeHintEv
libQt6Widgets.so.6:_ZNK11QToolButton9hitButtonERK6QPoint
libQt6Widgets.so.6:_ZNK11QTreeWidget11columnCountEv
libQt6Widgets.so.6:_ZNK11QTreeWidget12topLevelItemEi
libQt6Widgets.so.6:_ZNK11QTreeWidget13selectedItemsEv
libQt6Widgets.so.6:_ZNK11QTreeWidget17invisibleRootItemEv
libQt6Widgets.so.6:_ZNK11QTreeWidget17topLevelItemCountEv
libQt6Widgets.so.6:_ZNK11QTreeWidget6itemAtERK6QPoint
libQt6Widgets.so.6:_ZNK12QButtonGroup7buttonsEv
libQt6Widgets.so.6:_ZNK12QButtonGroup9exclusiveEv
libQt6Widgets.so.6:_ZNK12QProgressBar7maximumEv
libQt6Widgets.so.6:_ZNK12QRadioButton15initStyleOptionEP18QStyleOptionButton
libQt6Widgets.so.6:_ZNK12QRadioButton15minimumSizeHintEv
libQt6Widgets.so.6:_ZNK12QRadioButton8sizeHintEv
libQt6Widgets.so.6:_ZNK13QGestureEvent7gestureEN2Qt11GestureTypeE
libQt6Widgets.so.6:_ZNK13QItemDelegate11drawDisplayEP8QPainterRK20QStyleOptionViewItemRK5QRectRK7QString
libQt6Widgets.so.6:_ZNK13QItemDelegate12createEditorEP7QWidgetRK20QStyleOptionViewItemRK11QModelIndex
libQt6Widgets.so.6:_ZNK13QItemDelegate12setModelDataEP7QWidgetP18QAbstractItemModelRK11QModelIndex
libQt6Widgets.so.6:_ZNK13QItemDelegate13setEditorDataEP7QWidgetRK11QModelIndex
libQt6Widgets.so.6:_ZNK13QItemDelegate14drawDecorationEP8QPainterRK20QStyleOptionViewItemRK5QRectRK7QPixmap
libQt6Widgets.so.6:_ZNK13QItemDelegate20updateEditorGeometryEP7QWidgetRK20QStyleOptionViewItemRK11QModelIndex
libQt6Widgets.so.6:_ZNK13QItemDelegate5paintEP8QPainterRK20QStyleOptionViewItemRK11QModelIndex
libQt6Widgets.so.6:_ZNK13QItemDelegate8sizeHintERK20QStyleOptionViewItemRK11QModelIndex
libQt6Widgets.so.6:_ZNK13QItemDelegate9drawCheckEP8QPainterRK20QStyleOptionViewItemRK5QRectN2Qt10CheckStateE
libQt6Widgets.so.6:_ZNK13QItemDelegate9drawFocusEP8QPainterRK20QStyleOptionViewItemRK5QRect
libQt6Widgets.so.6:_ZNK13QPinchGesture11centerPointEv
libQt6Widgets.so.6:_ZNK13QPinchGesture11changeFlagsEv
libQt6Widgets.so.6:_ZNK13QPinchGesture13rotationAngleEv
libQt6Widgets.so.6:_ZNK13QPinchGesture16totalScaleFactorEv
libQt6Widgets.so.6:_ZNK13QSwipeGesture19horizontalDirectionEv
libQt6Widgets.so.6:_ZNK13QWidgetAction14createdWidgetsEv
libQt6Widgets.so.6:_ZNK14QDoubleSpinBox5valueEv
libQt6Widgets.so.6:_ZNK14QStackedWidget13currentWidgetEv
libQt6Widgets.so.6:_ZNK14QStackedWidget7indexOfEPK7QWidget
libQt6Widgets.so.6:_ZNK15QAbstractButton5groupEv
libQt6Widgets.so.6:_ZNK15QAbstractButton9hitButtonERK6QPoint
libQt6Widgets.so.6:_ZNK15QAbstractButton9isCheckedEv
libQt6Widgets.so.6:_ZNK15QAbstractSlider10singleStepEv
libQt6Widgets.so.6:_ZNK15QAbstractSlider5valueEv
libQt6Widgets.so.6:_ZNK15QAbstractSlider7maximumEv
libQt6Widgets.so.6:_ZNK15QAbstractSlider7minimumEv
libQt6Widgets.so.6:_ZNK15QProgressDialog5valueEv
libQt6Widgets.so.6:_ZNK15QTreeWidgetItem18executePendingSortEv
libQt6Widgets.so.6:_ZNK15QTreeWidgetItem4dataEii
libQt6Widgets.so.6:_ZNK15QTreeWidgetItem5cloneEv
libQt6Widgets.so.6:_ZNK15QTreeWidgetItem5writeER11QDataStream
libQt6Widgets.so.6:_ZNK15QTreeWidgetItemltERKS_
libQt6Widgets.so.6:_ZNK16QDialogButtonBox6buttonENS_14StandardButtonE
libQt6Widgets.so.6:_ZNK17QAbstractItemView12currentIndexEv
libQt6Widgets.so.6:_ZNK17QAbstractItemView14selectionModelEv
libQt6Widgets.so.6:_ZNK17QAbstractItemView14sizeHintForRowEi
libQt6Widgets.so.6:_ZNK17QAbstractItemView16inputMethodQueryEN2Qt16InputMethodQueryE
libQt6Widgets.so.6:_ZNK17QAbstractItemView16selectionCommandERK11QModelIndexPK6QEvent
libQt6Widgets.so.6:_ZNK17QAbstractItemView17sizeHintForColumnEi
libQt6Widgets.so.6:_ZNK17QAbstractItemView18initViewItemOptionEP20QStyleOptionViewItem
libQt6Widgets.so.6:_ZNK17QAbstractItemView20itemDelegateForIndexERK11QModelIndex
libQt6Widgets.so.6:_ZNK17QAbstractItemView5modelEv
libQt6Widgets.so.6:_ZNK17QAbstractItemView9rootIndexEv
libQt6Widgets.so.6:_ZNK17QFileIconProvider4iconERK9QFileInfo
libQt6Widgets.so.6:_ZNK19QAbstractScrollArea15minimumSizeHintEv
libQt6Widgets.so.6:_ZNK19QAbstractScrollArea16viewportSizeHintEv
libQt6Widgets.so.6:_ZNK19QAbstractScrollArea17verticalScrollBarEv
libQt6Widgets.so.6:_ZNK19QAbstractScrollArea19horizontalScrollBarEv
libQt6Widgets.so.6:_ZNK19QAbstractScrollArea25horizontalScrollBarPolicyEv
libQt6Widgets.so.6:_ZNK19QAbstractScrollArea8sizeHintEv
libQt6Widgets.so.6:_ZNK19QAbstractScrollArea8viewportEv
libQt6Widgets.so.6:_ZNK19QStyledItemDelegate11displayTextERK8QVariantRK7QLocale
libQt6Widgets.so.6:_ZNK19QStyledItemDelegate12createEditorEP7QWidgetRK20QStyleOptionViewItemRK11QModelIndex
libQt6Widgets.so.6:_ZNK19QStyledItemDelegate12setModelDataEP7QWidgetP18QAbstractItemModelRK11QModelIndex
libQt6Widgets.so.6:_ZNK19QStyledItemDelegate13setEditorDataEP7QWidgetRK11QModelIndex
libQt6Widgets.so.6:_ZNK19QStyledItemDelegate15initStyleOptionEP20QStyleOptionViewItemRK11QModelIndex
libQt6Widgets.so.6:_ZNK19QStyledItemDelegate20updateEditorGeometryEP7QWidgetRK20QStyleOptionViewItemRK11QModelIndex
libQt6Widgets.so.6:_ZNK19QStyledItemDelegate5paintEP8QPainterRK20QStyleOptionViewItemRK11QModelIndex
libQt6Widgets.so.6:_ZNK19QStyledItemDelegate8sizeHintERK20QStyleOptionViewItemRK11QModelIndex
libQt6Widgets.so.6:_ZNK21QAbstractItemDelegate13destroyEditorEP7QWidgetRK11QModelIndex
libQt6Widgets.so.6:_ZNK21QAbstractItemDelegate13paintingRolesEv
libQt6Widgets.so.6:_ZNK5QMenu10menuActionEv
libQt6Widgets.so.6:_ZNK5QMenu12activeActionEv
libQt6Widgets.so.6:_ZNK5QMenu14actionGeometryEP7QAction
libQt6Widgets.so.6:_ZNK5QMenu8actionAtERK6QPoint
libQt6Widgets.so.6:_ZNK6QFrame10frameWidthEv
libQt6Widgets.so.6:_ZNK6QFrame15initStyleOptionEP17QStyleOptionFrame
libQt6Widgets.so.6:_ZNK6QFrame8sizeHintEv
libQt6Widgets.so.6:_ZNK6QFrame9frameRectEv
libQt6Widgets.so.6:_ZNK6QLabel14heightForWidthEi
libQt6Widgets.so.6:_ZNK6QLabel6pixmapEv
libQt6Widgets.so.6:_ZNK7QDialog15minimumSizeHintEv
libQt6Widgets.so.6:_ZNK7QDialog8sizeHintEv
libQt6Widgets.so.6:_ZNK7QTabBar5tabAtERK6QPoint
libQt6Widgets.so.6:_ZNK7QWidget10redirectedEP6QPoint
libQt6Widgets.so.6:_ZNK7QWidget10sizePolicyEv
libQt6Widgets.so.6:_ZNK7QWidget11initPainterEP8QPainter
libQt6Widgets.so.6:_ZNK7QWidget11isVisibleToEPKS_
libQt6Widgets.so.6:_ZNK7QWidget11mapToGlobalERK6QPoint
libQt6Widgets.so.6:_ZNK7QWidget11maximumSizeEv
libQt6Widgets.so.6:_ZNK7QWidget11paintEngineEv
libQt6Widgets.so.6:_ZNK7QWidget11windowStateEv
libQt6Widgets.so.6:_ZNK7QWidget11windowTitleEv
libQt6Widgets.so.6:_ZNK7QWidget12contentsRectEv
libQt6Widgets.so.6:_ZNK7QWidget12isFullScreenEv
libQt6Widgets.so.6:_ZNK7QWidget12windowHandleEv
libQt6Widgets.so.6:_ZNK7QWidget13mapFromGlobalERK6QPoint
libQt6Widgets.so.6:_ZNK7QWidget13mapFromGlobalERK7QPointF
libQt6Widgets.so.6:_ZNK7QWidget13sharedPainterEv
libQt6Widgets.so.6:_ZNK7QWidget14effectiveWinIdEv
libQt6Widgets.so.6:_ZNK7QWidget14heightForWidthEi
libQt6Widgets.so.6:_ZNK7QWidget15contentsMarginsEv
libQt6Widgets.so.6:_ZNK7QWidget15layoutDirectionEv
libQt6Widgets.so.6:_ZNK7QWidget15minimumSizeHintEv
libQt6Widgets.so.6:_ZNK7QWidget16inputMethodQueryEN2Qt16InputMethodQueryE
libQt6Widgets.so.6:_ZNK7QWidget17hasHeightForWidthEv
libQt6Widgets.so.6:_ZNK7QWidget3posEv
libQt6Widgets.so.6:_ZNK7QWidget5mapToEPKS_RK6QPoint
libQt6Widgets.so.6:_ZNK7QWidget5styleEv
libQt6Widgets.so.6:_ZNK7QWidget6cursorEv
libQt6Widgets.so.6:_ZNK7QWidget6layoutEv
libQt6Widgets.so.6:_ZNK7QWidget6metricEN12QPaintDevice17PaintDeviceMetricE
libQt6Widgets.so.6:_ZNK7QWidget6screenEv
libQt6Widgets.so.6:_ZNK7QWidget6windowEv
libQt6Widgets.so.6:_ZNK7QWidget7actionsEv
libQt6Widgets.so.6:_ZNK7QWidget7devTypeEv
libQt6Widgets.so.6:_ZNK7QWidget7paletteEv
libQt6Widgets.so.6:_ZNK7QWidget8hasFocusEv
libQt6Widgets.so.6:_ZNK7QWidget8sizeHintEv
libQt6Widgets.so.6:_ZNK8QGesture5stateEv
libQt6Widgets.so.6:_ZNK8QMenuBar15isNativeMenuBarEv
libQt6Widgets.so.6:_ZNK8QSpinBox5valueEv
libQt6Widgets.so.6:_ZNK8QToolBar11orientationEv
libQt6Widgets.so.6:_ZNK8QToolBar15initStyleOptionEP19QStyleOptionToolBar
libQt6Widgets.so.6:_ZNK8QToolBar15toolButtonStyleEv
libQt6Widgets.so.6:_ZNK8QToolBar8iconSizeEv
libQt6Widgets.so.6:_ZNK9QCheckBox15initStyleOptionEP18QStyleOptionButton
libQt6Widgets.so.6:_ZNK9QCheckBox15minimumSizeHintEv
libQt6Widgets.so.6:_ZNK9QCheckBox8sizeHintEv
libQt6Widgets.so.6:_ZNK9QComboBox10isEditableEv
libQt6Widgets.so.6:_ZNK9QComboBox11currentDataEi
libQt6Widgets.so.6:_ZNK9QComboBox11currentTextEv
libQt6Widgets.so.6:_ZNK9QComboBox12currentIndexEv
libQt6Widgets.so.6:_ZNK9QComboBox15initStyleOptionEP20QStyleOptionComboBox
libQt6Widgets.so.6:_ZNK9QComboBox15minimumSizeHintEv
libQt6Widgets.so.6:_ZNK9QComboBox16inputMethodQueryEN2Qt16InputMethodQueryE
libQt6Widgets.so.6:_ZNK9QComboBox5countEv
libQt6Widgets.so.6:_ZNK9QComboBox8findDataERK8QVarianti6QFlagsIN2Qt9MatchFlagEE
libQt6Widgets.so.6:_ZNK9QComboBox8itemDataEii
libQt6Widgets.so.6:_ZNK9QComboBox8itemTextEi
libQt6Widgets.so.6:_ZNK9QComboBox8lineEditEv
libQt6Widgets.so.6:_ZNK9QComboBox8sizeHintEv
libQt6Widgets.so.6:_ZNK9QLineEdit12selectedTextEv
libQt6Widgets.so.6:_ZNK9QLineEdit14cursorPositionEv
libQt6Widgets.so.6:_ZNK9QLineEdit14selectionStartEv
libQt6Widgets.so.6:_ZNK9QLineEdit15hasSelectedTextEv
libQt6Widgets.so.6:_ZNK9QLineEdit15initStyleOptionEP17QStyleOptionFrame
libQt6Widgets.so.6:_ZNK9QLineEdit15minimumSizeHintEv
libQt6Widgets.so.6:_ZNK9QLineEdit16inputMethodQueryEN2Qt16InputMethodQueryE
libQt6Widgets.so.6:_ZNK9QLineEdit4textEv
libQt6Widgets.so.6:_ZNK9QLineEdit8sizeHintEv
libQt6Widgets.so.6:_ZNK9QListView10visualRectERK11QModelIndex
libQt6Widgets.so.6:_ZNK9QListView13isIndexHiddenERK11QModelIndex
libQt6Widgets.so.6:_ZNK9QListView14verticalOffsetEv
libQt6Widgets.so.6:_ZNK9QListView15selectedIndexesEv
libQt6Widgets.so.6:_ZNK9QListView16horizontalOffsetEv
libQt6Widgets.so.6:_ZNK9QListView16viewportSizeHintEv
libQt6Widgets.so.6:_ZNK9QListView18initViewItemOptionEP20QStyleOptionViewItem
libQt6Widgets.so.6:_ZNK9QListView24visualRegionForSelectionERK14QItemSelection
libQt6Widgets.so.6:_ZNK9QListView7indexAtERK6QPoint
libQt6Widgets.so.6:_ZNK9QListView7spacingEv
libQt6Widgets.so.6:_ZNK9QScroller13finalPositionEv
libQt6Widgets.so.6:_ZNK9QScroller5stateEv
libQt6Widgets.so.6:_ZNK9QSplitter5sizesEv
libQt6Widgets.so.6:_ZNK9QTextEdit10textCursorEv
libQt6Widgets.so.6:_ZNK9QTextEdit11toPlainTextEv
libQt6Widgets.so.6:_ZNK9QTextEdit13fontPointSizeEv
libQt6Widgets.so.6:_ZNK9QTextEdit16inputMethodQueryEN2Qt16InputMethodQueryE
libQt6Widgets.so.6:_ZNK9QTextEdit21canInsertFromMimeDataEPK9QMimeData
libQt6Widgets.so.6:_ZNK9QTextEdit27createMimeDataFromSelectionEv
libQt6Widgets.so.6:_ZNK9QTextEdit8documentEv
libQt6Widgets.so.6:_ZNK9QTextEdit9textColorEv
libQt6Widgets.so.6:_ZNK9QTreeView10isExpandedERK11QModelIndex
libQt6Widgets.so.6:_ZNK9QTreeView10visualRectERK11QModelIndex
libQt6Widgets.so.6:_ZNK9QTreeView12drawBranchesEP8QPainterRK5QRectRK11QModelIndex
libQt6Widgets.so.6:_ZNK9QTreeView13isIndexHiddenERK11QModelIndex
libQt6Widgets.so.6:_ZNK9QTreeView14verticalOffsetEv
libQt6Widgets.so.6:_ZNK9QTreeView15selectedIndexesEv
libQt6Widgets.so.6:_ZNK9QTreeView16horizontalOffsetEv
libQt6Widgets.so.6:_ZNK9QTreeView16viewportSizeHintEv
libQt6Widgets.so.6:_ZNK9QTreeView17sizeHintForColumnEi
libQt6Widgets.so.6:_ZNK9QTreeView24visualRegionForSelectionERK14QItemSelection
libQt6Widgets.so.6:_ZNK9QTreeView6headerEv
libQt6Widgets.so.6:_ZNK9QTreeView7drawRowEP8QPainterRK20QStyleOptionViewItemRK11QModelIndex
libQt6Widgets.so.6:_ZNK9QTreeView7indexAtERK6QPoint
libQt6Widgets.so.6:_ZTI11QDockWidget
libQt6Widgets.so.6:_ZTI11QListWidget
libQt6Widgets.so.6:_ZTI11QPushButton
libQt6Widgets.so.6:_ZTI11QScrollArea
libQt6Widgets.so.6:_ZTI11QToolButton
libQt6Widgets.so.6:_ZTI12QRadioButton
libQt6Widgets.so.6:_ZTI13QItemDelegate
libQt6Widgets.so.6:_ZTI13QWidgetAction
libQt6Widgets.so.6:_ZTI14QStackedWidget
libQt6Widgets.so.6:_ZTI15QAbstractButton
libQt6Widgets.so.6:_ZTI15QTreeWidgetItem
libQt6Widgets.so.6:_ZTI19QAbstractScrollArea
libQt6Widgets.so.6:_ZTI19QStyledItemDelegate
libQt6Widgets.so.6:_ZTI5QMenu
libQt6Widgets.so.6:_ZTI6QFrame
libQt6Widgets.so.6:_ZTI7QDialog
libQt6Widgets.so.6:_ZTI7QWidget
libQt6Widgets.so.6:_ZTI8QToolBar
libQt6Widgets.so.6:_ZTI9QCheckBox
libQt6Widgets.so.6:_ZTI9QComboBox
libQt6Widgets.so.6:_ZTI9QLineEdit
libQt6Widgets.so.6:_ZTI9QTreeView
libQt6Widgets.so.6:_ZTV11QSpacerItem
libQt6Widgets.so.6:_ZThn16_NK7QWidget10redirectedEP6QPoint
libQt6Widgets.so.6:_ZThn16_NK7QWidget11initPainterEP8QPainter
libQt6Widgets.so.6:_ZThn16_NK7QWidget11paintEngineEv
libQt6Widgets.so.6:_ZThn16_NK7QWidget13sharedPainterEv
libQt6Widgets.so.6:_ZThn16_NK7QWidget6metricEN12QPaintDevice17PaintDeviceMetricE
libQt6Widgets.so.6:_ZThn16_NK7QWidget7devTypeEv
libQt6Xml.so.6:_ZN11QDomElement10setTagNameERK7QString
libQt6Xml.so.6:_ZN11QDomElement12setAttributeERK7QStringS2_
libQt6Xml.so.6:_ZN11QDomElement12setAttributeERK7QStringx
libQt6Xml.so.6:_ZN11QDomElement12setAttributeERK7QStringy
libQt6Xml.so.6:_ZN11QDomElement15removeAttributeERK7QString
libQt6Xml.so.6:_ZN11QDomElementC1ERKS_
libQt6Xml.so.6:_ZN11QDomElementC1Ev
libQt6Xml.so.6:_ZN11QDomElementaSERKS_
libQt6Xml.so.6:_ZN12QDomDocument10importNodeERK8QDomNodeb
libQt6Xml.so.6:_ZN12QDomDocument10setContentE14QAnyStringView6QFlagsINS_11ParseOptionEE
libQt6Xml.so.6:_ZN12QDomDocument10setContentEP9QIODevice6QFlagsINS_11ParseOptionEE
libQt6Xml.so.6:_ZN12QDomDocument10setContentEP9QIODevicebP7QStringPiS4_
libQt6Xml.so.6:_ZN12QDomDocument10setContentERK7QStringbPS0_PiS4_
libQt6Xml.so.6:_ZN12QDomDocument13createElementERK7QString
libQt6Xml.so.6:_ZN12QDomDocument14createTextNodeERK7QString
libQt6Xml.so.6:_ZN12QDomDocument27createProcessingInstructionERK7QStringS2_
libQt6Xml.so.6:_ZN12QDomDocumentC1ERK7QString
libQt6Xml.so.6:_ZN12QDomDocumentC1ERKS_
libQt6Xml.so.6:_ZN12QDomDocumentC1Ev
libQt6Xml.so.6:_ZN12QDomDocumentC2ERK7QString
libQt6Xml.so.6:_ZN12QDomDocumentC2ERKS_
libQt6Xml.so.6:_ZN12QDomDocumentD1Ev
libQt6Xml.so.6:_ZN12QDomDocumentD2Ev
libQt6Xml.so.6:_ZN12QDomDocumentaSERKS_
libQt6Xml.so.6:_ZN12QDomNodeListD1Ev
libQt6Xml.so.6:_ZN8QDomNode11appendChildERKS_
libQt6Xml.so.6:_ZN8QDomNode11removeChildERKS_
libQt6Xml.so.6:_ZN8QDomNode12replaceChildERKS_S1_
libQt6Xml.so.6:_ZN8QDomNode5clearEv
libQt6Xml.so.6:_ZN8QDomNodeC1ERKS_
libQt6Xml.so.6:_ZN8QDomNodeC1Ev
libQt6Xml.so.6:_ZN8QDomNodeD1Ev
libQt6Xml.so.6:_ZN8QDomNodeD2Ev
libQt6Xml.so.6:_ZN8QDomNodeaSERKS_
libQt6Xml.so.6:_ZNK11QDomElement11attributeNSERK7QStringS2_S2_
libQt6Xml.so.6:_ZNK11QDomElement12hasAttributeERK7QString
libQt6Xml.so.6:_ZNK11QDomElement17elementsByTagNameERK7QString
libQt6Xml.so.6:_ZNK11QDomElement4textEv
libQt6Xml.so.6:_ZNK11QDomElement7tagNameEv
libQt6Xml.so.6:_ZNK11QDomElement9attributeERK7QStringS2_
libQt6Xml.so.6:_ZNK12QDomDocument11toByteArrayEi
libQt6Xml.so.6:_ZNK12QDomDocument15documentElementEv
libQt6Xml.so.6:_ZNK12QDomDocument17elementsByTagNameERK7QString
libQt6Xml.so.6:_ZNK12QDomDocument8toStringEi
libQt6Xml.so.6:_ZNK12QDomNodeList4itemEi
libQt6Xml.so.6:_ZNK12QDomNodeList6lengthEv
libQt6Xml.so.6:_ZNK17QDomCharacterData4dataEv
libQt6Xml.so.6:_ZNK8QDomNode10firstChildEv
libQt6Xml.so.6:_ZNK8QDomNode10parentNodeEv
libQt6Xml.so.6:_ZNK8QDomNode11nextSiblingEv
libQt6Xml.so.6:_ZNK8QDomNode13hasChildNodesEv
libQt6Xml.so.6:_ZNK8QDomNode13ownerDocumentEv
libQt6Xml.so.6:_ZNK8QDomNode14toCDATASectionEv
libQt6Xml.so.6:_ZNK8QDomNode17firstChildElementERK7QStringS2_
libQt6Xml.so.6:_ZNK8QDomNode18nextSiblingElementERK7QStringS2_
libQt6Xml.so.6:_ZNK8QDomNode4saveER11QTextStreamiNS_14EncodingPolicyE
libQt6Xml.so.6:_ZNK8QDomNode6isNullEv
libQt6Xml.so.6:_ZNK8QDomNode6isTextEv
libQt6Xml.so.6:_ZNK8QDomNode6toTextEv
libQt6Xml.so.6:_ZNK8QDomNode8nodeNameEv
libQt6Xml.so.6:_ZNK8QDomNode9cloneNodeEb
libQt6Xml.so.6:_ZNK8QDomNode9isElementEv
libQt6Xml.so.6:_ZNK8QDomNode9lastChildEv
libQt6Xml.so.6:_ZNK8QDomNode9toElementEv
libQt6Xml.so.6:_ZNK8QDomNodeeqERKS_
libc.so.6:__cxa_atexit
libc.so.6:__errno_location
libc.so.6:__isoc23_strtol
libc.so.6:__libc_single_threaded
libc.so.6:__libc_start_main
libc.so.6:__stack_chk_fail
libc.so.6:__strncpy_chk
libc.so.6:__vfprintf_chk
libc.so.6:__vprintf_chk
libc.so.6:__vsnprintf_chk
libc.so.6:abort
libc.so.6:calloc
libc.so.6:chmod
libc.so.6:close
libc.so.6:drand48
libc.so.6:dup
libc.so.6:exit
libc.so.6:fclose
libc.so.6:fdopen
libc.so.6:fopen
libc.so.6:fputs
libc.so.6:fread
libc.so.6:free
libc.so.6:fseek
libc.so.6:ftell
libc.so.6:getc
libc.so.6:isxdigit
libc.so.6:malloc
libc.so.6:malloc_trim
libc.so.6:memchr
libc.so.6:memcmp
libc.so.6:memcpy
libc.so.6:memmove
libc.so.6:memset
libc.so.6:realloc
libc.so.6:rename
libc.so.6:setlocale
libc.so.6:stderr
libc.so.6:stdin
libc.so.6:stdout
libc.so.6:strcat
libc.so.6:strchr
libc.so.6:strcmp
libc.so.6:strcpy
libc.so.6:strdup
libc.so.6:strlen
libc.so.6:strncmp
libc.so.6:strncpy
libc.so.6:strtod
libc.so.6:umask
libdjvulibre.so.21:ddjvu_context_create
libdjvulibre.so.21:ddjvu_context_release
libdjvulibre.so.21:ddjvu_document_create_by_filename_utf8
libdjvulibre.so.21:ddjvu_document_get_fileinfo_imp
libdjvulibre.so.21:ddjvu_document_get_filenum
libdjvulibre.so.21:ddjvu_document_get_outline
libdjvulibre.so.21:ddjvu_document_get_pageanno
libdjvulibre.so.21:ddjvu_document_get_pageinfo_imp
libdjvulibre.so.21:ddjvu_document_get_pagenum
libdjvulibre.so.21:ddjvu_document_get_pagetext
libdjvulibre.so.21:ddjvu_document_get_type
libdjvulibre.so.21:ddjvu_document_job
libdjvulibre.so.21:ddjvu_document_print
libdjvulibre.so.21:ddjvu_format_create
libdjvulibre.so.21:ddjvu_format_release
libdjvulibre.so.21:ddjvu_format_set_row_order
libdjvulibre.so.21:ddjvu_format_set_y_direction
libdjvulibre.so.21:ddjvu_job_release
libdjvulibre.so.21:ddjvu_job_status
libdjvulibre.so.21:ddjvu_message_peek
libdjvulibre.so.21:ddjvu_message_pop
libdjvulibre.so.21:ddjvu_message_wait
libdjvulibre.so.21:ddjvu_miniexp_release
libdjvulibre.so.21:ddjvu_page_create_by_pageno
libdjvulibre.so.21:ddjvu_page_get_width
libdjvulibre.so.21:ddjvu_page_job
libdjvulibre.so.21:ddjvu_page_render
libdjvulibre.so.21:miniexp_cadr
libdjvulibre.so.21:miniexp_cdddr
libdjvulibre.so.21:miniexp_length
libdjvulibre.so.21:miniexp_nth
libdjvulibre.so.21:miniexp_reverse
libdjvulibre.so.21:miniexp_rplaca
libdjvulibre.so.21:miniexp_stringp
libdjvulibre.so.21:miniexp_symbol
libdjvulibre.so.21:miniexp_to_name
libdjvulibre.so.21:miniexp_to_str
libepub.so.0:epub_cleanup
libepub.so.0:epub_close
libepub.so.0:epub_free_iterator
libepub.so.0:epub_free_titerator
libepub.so.0:epub_get_data
libepub.so.0:epub_get_iterator
libepub.so.0:epub_get_metadata
libepub.so.0:epub_get_titerator
libepub.so.0:epub_it_get_curr
libepub.so.0:epub_it_get_curr_url
libepub.so.0:epub_it_get_next
libepub.so.0:epub_open
libepub.so.0:epub_tit_curr_valid
libepub.so.0:epub_tit_get_curr_depth
libepub.so.0:epub_tit_get_curr_label
libepub.so.0:epub_tit_get_curr_link
libepub.so.0:epub_tit_next
libfreetype.so.6:FT_Done_Face
libfreetype.so.6:FT_Done_FreeType
libfreetype.so.6:FT_Get_Char_Index
libfreetype.so.6:FT_Get_Name_Index
libfreetype.so.6:FT_Init_FreeType
libfreetype.so.6:FT_Load_Glyph
libfreetype.so.6:FT_New_Face
libfreetype.so.6:FT_Render_Glyph
libfreetype.so.6:FT_Set_Char_Size
libfreetype.so.6:FT_Set_Charmap
libfreetype.so.6:FT_Set_Transform
libm.so.6:atan2
libm.so.6:ceil
libm.so.6:ceilf
libm.so.6:cos
libm.so.6:floor
libm.so.6:hypot
libm.so.6:round
libm.so.6:sin
libm.so.6:sqrt
libmarkdown.so.3:mkd3_compile
libmarkdown.so.3:mkd3_in
libmarkdown.so.3:mkd_cleanup
libmarkdown.so.3:mkd_document
libmarkdown.so.3:mkd_flags
libmarkdown.so.3:mkd_free_flags
libmarkdown.so.3:mkd_set_flag_num
libphonon4qt6.so.4:_ZN6Phonon10SeekSliderC1EPNS_11MediaObjectEP7QWidget
libphonon4qt6.so.4:_ZN6Phonon10createPathEPNS_9MediaNodeES1_
libphonon4qt6.so.4:_ZN6Phonon11AudioOutput9setVolumeEd
libphonon4qt6.so.4:_ZN6Phonon11AudioOutputC1ENS_8CategoryEP7QObject
libphonon4qt6.so.4:_ZN6Phonon11MediaObject12stateChangedENS_5StateES1_
libphonon4qt6.so.4:_ZN6Phonon11MediaObject16setCurrentSourceERKNS_11MediaSourceE
libphonon4qt6.so.4:_ZN6Phonon11MediaObject16staticMetaObjectE
libphonon4qt6.so.4:_ZN6Phonon11MediaObject4playEv
libphonon4qt6.so.4:_ZN6Phonon11MediaObject4stopEv
libphonon4qt6.so.4:_ZN6Phonon11MediaObject8finishedEv
libphonon4qt6.so.4:_ZN6Phonon11MediaObjectC1EP7QObject
libphonon4qt6.so.4:_ZN6Phonon11MediaSourceC1EP9QIODevice
libphonon4qt6.so.4:_ZN6Phonon11MediaSourceC1ERK4QUrl
libphonon4qt6.so.4:_ZN6Phonon11MediaSourceD1Ev
libphonon4qt6.so.4:_ZN6Phonon11VideoPlayer16staticMetaObjectE
libphonon4qt6.so.4:_ZN6Phonon11VideoPlayer4loadERKNS_11MediaSourceE
libphonon4qt6.so.4:_ZN6Phonon11VideoPlayer4playEv
libphonon4qt6.so.4:_ZN6Phonon11VideoPlayer4stopEv
libphonon4qt6.so.4:_ZN6Phonon11VideoPlayer5pauseEv
libphonon4qt6.so.4:_ZN6Phonon11VideoPlayer8finishedEv
libphonon4qt6.so.4:_ZN6Phonon11VideoPlayerC1ENS_8CategoryEP7QWidget
libphonon4qt6.so.4:_ZN6Phonon4PathD1Ev
libphonon4qt6.so.4:_ZN6PhononlsE6QDebugRKNS_5StateE
libphonon4qt6.so.4:_ZNK6Phonon10SeekSlider8iconSizeEv
libphonon4qt6.so.4:_ZNK6Phonon11VideoPlayer11mediaObjectEv
libphonon4qt6.so.4:_ZNK6Phonon11VideoPlayer11videoWidgetEv
libphonon4qt6.so.4:_ZNK6Phonon11VideoPlayer9isPlayingEv
libphonon4qt6.so.4:_ZNK6Phonon11VideoWidget8snapshotEv
libpoppler-qt6.so.3:_ZN7Poppler10Annotation11setBoundaryERK6QRectF
libpoppler-qt6.so.3:_ZN7Poppler10Annotation11setContentsERK7QString
libpoppler-qt6.so.3:_ZN7Poppler10Annotation13setUniqueNameERK7QString
libpoppler-qt6.so.3:_ZN7Poppler10Annotation15setCreationDateERK9QDateTime
libpoppler-qt6.so.3:_ZN7Poppler10Annotation19setModificationDateERK9QDateTime
libpoppler-qt6.so.3:_ZN7Poppler10Annotation23setAnnotationAppearanceERKNS_20AnnotationAppearanceE
libpoppler-qt6.so.3:_ZN7Poppler10Annotation5Popup10setSummaryERK7QString
libpoppler-qt6.so.3:_ZN7Poppler10Annotation5Popup11setGeometryERK6QRectF
libpoppler-qt6.so.3:_ZN7Poppler10Annotation5Popup8setFlagsEi
libpoppler-qt6.so.3:_ZN7Poppler10Annotation5Popup8setTitleERK7QString
libpoppler-qt6.so.3:_ZN7Poppler10Annotation5PopupC1Ev
libpoppler-qt6.so.3:_ZN7Poppler10Annotation5PopupD1Ev
libpoppler-qt6.so.3:_ZN7Poppler10Annotation5Style10setOpacityEd
libpoppler-qt6.so.3:_ZN7Poppler10Annotation5Style11setXCornersEd
libpoppler-qt6.so.3:_ZN7Poppler10Annotation5Style11setYCornersEd
libpoppler-qt6.so.3:_ZN7Poppler10Annotation5Style12setLineStyleENS0_9LineStyleE
libpoppler-qt6.so.3:_ZN7Poppler10Annotation5Style13setLineEffectENS0_10LineEffectE
libpoppler-qt6.so.3:_ZN7Poppler10Annotation5Style18setEffectIntensityEd
libpoppler-qt6.so.3:_ZN7Poppler10Annotation5Style8setColorERK6QColor
libpoppler-qt6.so.3:_ZN7Poppler10Annotation5Style8setWidthEd
libpoppler-qt6.so.3:_ZN7Poppler10Annotation5StyleC1Ev
libpoppler-qt6.so.3:_ZN7Poppler10Annotation5StyleD1Ev
libpoppler-qt6.so.3:_ZN7Poppler10Annotation8setFlagsE6QFlagsINS0_4FlagEE
libpoppler-qt6.so.3:_ZN7Poppler10Annotation8setPopupERKNS0_5PopupE
libpoppler-qt6.so.3:_ZN7Poppler10Annotation8setStyleERKNS0_5StyleE
libpoppler-qt6.so.3:_ZN7Poppler10Annotation9setAuthorERK7QString
libpoppler-qt6.so.3:_ZN7Poppler11AsyncObject16staticMetaObjectE
libpoppler-qt6.so.3:_ZN7Poppler11AsyncObject4doneEv
libpoppler-qt6.so.3:_ZN7Poppler11OutlineItemD1Ev
libpoppler-qt6.so.3:_ZN7Poppler11PSConverter11setPageListERK5QListIiE
libpoppler-qt6.so.3:_ZN7Poppler11PSConverter12setPSOptionsE6QFlagsINS0_8PSOptionEE
libpoppler-qt6.so.3:_ZN7Poppler11PSConverter12setTopMarginEi
libpoppler-qt6.so.3:_ZN7Poppler11PSConverter13setLeftMarginEi
libpoppler-qt6.so.3:_ZN7Poppler11PSConverter13setPaperWidthEi
libpoppler-qt6.so.3:_ZN7Poppler11PSConverter14setPaperHeightEi
libpoppler-qt6.so.3:_ZN7Poppler11PSConverter14setRightMarginEi
libpoppler-qt6.so.3:_ZN7Poppler11PSConverter15setBottomMarginEi
libpoppler-qt6.so.3:_ZN7Poppler11PSConverter16setStrictMarginsEb
libpoppler-qt6.so.3:_ZN7Poppler11PSConverter17setForceRasterizeEb
libpoppler-qt6.so.3:_ZN7Poppler11PSConverter24setForceOverprintPreviewEb
libpoppler-qt6.so.3:_ZN7Poppler11PSConverter8setTitleERK7QString
libpoppler-qt6.so.3:_ZN7Poppler12EmbeddedFile4dataEv
libpoppler-qt6.so.3:_ZN7Poppler12FontIterator4nextEv
libpoppler-qt6.so.3:_ZN7Poppler12FontIteratorD1Ev
libpoppler-qt6.so.3:_ZN7Poppler12PDFConverter13setPDFOptionsE6QFlagsINS0_9PDFOptionEE
libpoppler-qt6.so.3:_ZN7Poppler12PDFConverter16NewSignatureData11setFontSizeEd
libpoppler-qt6.so.3:_ZN7Poppler12PDFConverter16NewSignatureData11setLocationERK7QString
libpoppler-qt6.so.3:_ZN7Poppler12PDFConverter16NewSignatureData11setPasswordERK7QString
libpoppler-qt6.so.3:_ZN7Poppler12PDFConverter16NewSignatureData12setFontColorERK6QColor
libpoppler-qt6.so.3:_ZN7Poppler12PDFConverter16NewSignatureData12setImagePathERK7QString
libpoppler-qt6.so.3:_ZN7Poppler12PDFConverter16NewSignatureData14setBorderColorERK6QColor
libpoppler-qt6.so.3:_ZN7Poppler12PDFConverter16NewSignatureData15setCertNicknameERK7QString
libpoppler-qt6.so.3:_ZN7Poppler12PDFConverter16NewSignatureData15setLeftFontSizeEd
libpoppler-qt6.so.3:_ZN7Poppler12PDFConverter16NewSignatureData16setSignatureTextERK7QString
libpoppler-qt6.so.3:_ZN7Poppler12PDFConverter16NewSignatureData18setBackgroundColorERK6QColor
libpoppler-qt6.so.3:_ZN7Poppler12PDFConverter16NewSignatureData20setBoundingRectangleERK6QRectF
libpoppler-qt6.so.3:_ZN7Poppler12PDFConverter16NewSignatureData20setSignatureLeftTextERK7QString
libpoppler-qt6.so.3:_ZN7Poppler12PDFConverter16NewSignatureData23setDocumentUserPasswordERK10QByteArray
libpoppler-qt6.so.3:_ZN7Poppler12PDFConverter16NewSignatureData24setDocumentOwnerPasswordERK10QByteArray
libpoppler-qt6.so.3:_ZN7Poppler12PDFConverter16NewSignatureData7setPageEi
libpoppler-qt6.so.3:_ZN7Poppler12PDFConverter16NewSignatureData9setReasonERK7QString
libpoppler-qt6.so.3:_ZN7Poppler12PDFConverter16NewSignatureDataC1Ev
libpoppler-qt6.so.3:_ZN7Poppler12PDFConverter16NewSignatureDataD1Ev
libpoppler-qt6.so.3:_ZN7Poppler12PDFConverter4signERKNS0_16NewSignatureDataE
libpoppler-qt6.so.3:_ZN7Poppler13BaseConverter15setOutputDeviceEP9QIODevice
libpoppler-qt6.so.3:_ZN7Poppler13BaseConverter17setOutputFileNameERK7QString
libpoppler-qt6.so.3:_ZN7Poppler13FormFieldIconD1Ev
libpoppler-qt6.so.3:_ZN7Poppler13FormFieldText17setAppearanceTextERK7QString
libpoppler-qt6.so.3:_ZN7Poppler13FormFieldText7setTextERK7QString
libpoppler-qt6.so.3:_ZN7Poppler13InkAnnotation11setInkPathsERK5QListIS1_I7QPointFEE
libpoppler-qt6.so.3:_ZN7Poppler13InkAnnotationC1Ev
libpoppler-qt6.so.3:_ZN7Poppler14GeomAnnotation11setGeomTypeENS0_8GeomTypeE
libpoppler-qt6.so.3:_ZN7Poppler14GeomAnnotation17setGeomInnerColorERK6QColor
libpoppler-qt6.so.3:_ZN7Poppler14GeomAnnotationC1Ev
libpoppler-qt6.so.3:_ZN7Poppler14LineAnnotation13setLineClosedEb
libpoppler-qt6.so.3:_ZN7Poppler14LineAnnotation13setLineIntentENS0_10LineIntentE
libpoppler-qt6.so.3:_ZN7Poppler14LineAnnotation13setLinePointsERK5QListI7QPointFE
libpoppler-qt6.so.3:_ZN7Poppler14LineAnnotation15setLineEndStyleENS0_9TermStyleE
libpoppler-qt6.so.3:_ZN7Poppler14LineAnnotation17setLineInnerColorERK6QColor
libpoppler-qt6.so.3:_ZN7Poppler14LineAnnotation17setLineStartStyleENS0_9TermStyleE
libpoppler-qt6.so.3:_ZN7Poppler14LineAnnotation18setLineShowCaptionEb
libpoppler-qt6.so.3:_ZN7Poppler14LineAnnotation23setLineLeadingBackPointEd
libpoppler-qt6.so.3:_ZN7Poppler14LineAnnotation26setLineLeadingForwardPointEd
libpoppler-qt6.so.3:_ZN7Poppler14LineAnnotationC1ENS0_8LineTypeE
libpoppler-qt6.so.3:_ZN7Poppler14TextAnnotation11setTextFontERK5QFont
libpoppler-qt6.so.3:_ZN7Poppler14TextAnnotation11setTextIconERK7QString
libpoppler-qt6.so.3:_ZN7Poppler14TextAnnotation12setTextColorERK6QColor
libpoppler-qt6.so.3:_ZN7Poppler14TextAnnotation15setInplaceAlignENS0_20InplaceAlignPositionE
libpoppler-qt6.so.3:_ZN7Poppler14TextAnnotation16setCalloutPointsERK5QListI7QPointFE
libpoppler-qt6.so.3:_ZN7Poppler14TextAnnotation16setInplaceIntentENS0_13InplaceIntentE
libpoppler-qt6.so.3:_ZN7Poppler14TextAnnotationC1ENS0_8TextTypeE
libpoppler-qt6.so.3:_ZN7Poppler15CaretAnnotation14setCaretSymbolENS0_11CaretSymbolE
libpoppler-qt6.so.3:_ZN7Poppler15CaretAnnotationC1Ev
libpoppler-qt6.so.3:_ZN7Poppler15CertificateInfoC1ERKS0_
libpoppler-qt6.so.3:_ZN7Poppler15CertificateInfoD1Ev
libpoppler-qt6.so.3:_ZN7Poppler15FormFieldButton7setIconERKNS_13FormFieldIconE
libpoppler-qt6.so.3:_ZN7Poppler15FormFieldButton8setStateEb
libpoppler-qt6.so.3:_ZN7Poppler15FormFieldChoice13setEditChoiceERK7QString
libpoppler-qt6.so.3:_ZN7Poppler15FormFieldChoice17setCurrentChoicesERK5QListIiE
libpoppler-qt6.so.3:_ZN7Poppler15FormFieldChoice23setAppearanceChoiceTextERK7QString
libpoppler-qt6.so.3:_ZN7Poppler15LinkDestinationD1Ev
libpoppler-qt6.so.3:_ZN7Poppler15OptContentModel9applyLinkEPNS_12LinkOCGStateE
libpoppler-qt6.so.3:_ZN7Poppler15StampAnnotation19setStampCustomImageERK6QImage
libpoppler-qt6.so.3:_ZN7Poppler15StampAnnotationC1Ev
libpoppler-qt6.so.3:_ZN7Poppler19HighlightAnnotation16setHighlightTypeENS0_13HighlightTypeE
libpoppler-qt6.so.3:_ZN7Poppler19HighlightAnnotation17setHighlightQuadsERK5QListINS0_4QuadEE
libpoppler-qt6.so.3:_ZN7Poppler19HighlightAnnotationC1Ev
libpoppler-qt6.so.3:_ZN7Poppler19SignatureAnnotation11setFontSizeEd
libpoppler-qt6.so.3:_ZN7Poppler19SignatureAnnotation11setLeftTextERK7QString
libpoppler-qt6.so.3:_ZN7Poppler19SignatureAnnotation12setFontColorERK6QColor
libpoppler-qt6.so.3:_ZN7Poppler19SignatureAnnotation12setImagePathERK7QString
libpoppler-qt6.so.3:_ZN7Poppler19SignatureAnnotation14setBorderColorERK6QColor
libpoppler-qt6.so.3:_ZN7Poppler19SignatureAnnotation15setLeftFontSizeEd
libpoppler-qt6.so.3:_ZN7Poppler19SignatureAnnotation19setFieldPartialNameERK7QString
libpoppler-qt6.so.3:_ZN7Poppler19SignatureAnnotation4signERK7QStringRKNS_12PDFConverter16NewSignatureDataE
libpoppler-qt6.so.3:_ZN7Poppler19SignatureAnnotation7setTextERK7QString
libpoppler-qt6.so.3:_ZN7Poppler19SignatureAnnotationC1Ev
libpoppler-qt6.so.3:_ZN7Poppler20AnnotationAppearanceD1Ev
libpoppler-qt6.so.3:_ZN7Poppler21setDebugErrorFunctionEPFvRK7QStringRK8QVariantES5_
libpoppler-qt6.so.3:_ZN7Poppler22setNSSPasswordCallbackERKSt8functionIFPcPKcEE
libpoppler-qt6.so.3:_ZN7Poppler23SignatureValidationInfoD1Ev
libpoppler-qt6.so.3:_ZN7Poppler23activeCryptoSignBackendEv
libpoppler-qt6.so.3:_ZN7Poppler23arePgpSignaturesAllowedEv
libpoppler-qt6.so.3:_ZN7Poppler23setPgpSignaturesAllowedEb
libpoppler-qt6.so.3:_ZN7Poppler26setActiveCryptoSignBackendENS_17CryptoSignBackendE
libpoppler-qt6.so.3:_ZN7Poppler27availableCryptoSignBackendsEv
libpoppler-qt6.so.3:_ZN7Poppler27hasCryptoSignBackendFeatureENS_17CryptoSignBackendENS_24CryptoSignBackendFeatureE
libpoppler-qt6.so.3:_ZN7Poppler31getAvailableSigningCertificatesEv
libpoppler-qt6.so.3:_ZN7Poppler4Page13addAnnotationEPKNS_10AnnotationE
libpoppler-qt6.so.3:_ZN7Poppler4Page16removeAnnotationEPKNS_10AnnotationE
libpoppler-qt6.so.3:_ZN7Poppler4PageD1Ev
libpoppler-qt6.so.3:_ZN7Poppler7TextBoxD1Ev
libpoppler-qt6.so.3:_ZN7Poppler7Version6stringEv
libpoppler-qt6.so.3:_ZN7Poppler8Document12loadFromDataERK10QByteArrayS3_S3_
libpoppler-qt6.so.3:_ZN7Poppler8Document13setPaperColorERK6QColor
libpoppler-qt6.so.3:_ZN7Poppler8Document13setRenderHintENS0_10RenderHintEb
libpoppler-qt6.so.3:_ZN7Poppler8Document15linkDestinationERK7QString
libpoppler-qt6.so.3:_ZN7Poppler8Document19applyResetFormsLinkERKNS_13LinkResetFormE
libpoppler-qt6.so.3:_ZN7Poppler8Document20optionalContentModelEv
libpoppler-qt6.so.3:_ZN7Poppler8Document28setXRefReconstructedCallbackERKSt8functionIFvvEE
libpoppler-qt6.so.3:_ZN7Poppler8Document4loadERK7QStringRK10QByteArrayS6_
libpoppler-qt6.so.3:_ZN7Poppler8Document6unlockERK10QByteArrayS3_
libpoppler-qt6.so.3:_ZN7Poppler8DocumentD1Ev
libpoppler-qt6.so.3:_ZN7Poppler8FontInfoC1ERKS0_
libpoppler-qt6.so.3:_ZN7Poppler8FontInfoC1Ev
libpoppler-qt6.so.3:_ZN7Poppler8FontInfoD1Ev
libpoppler-qt6.so.3:_ZN7Poppler9FormField10setVisibleEb
libpoppler-qt6.so.3:_ZN7Poppler9FormField11setReadOnlyEb
libpoppler-qt6.so.3:_ZN7Poppler9FormField12setPrintableEb
libpoppler-qt6.so.3:_ZN7Poppler9getNSSDirEv
libpoppler-qt6.so.3:_ZN7Poppler9setNSSDirERK7QString
libpoppler-qt6.so.3:_ZNK7Poppler10Annotation10uniqueNameEv
libpoppler-qt6.so.3:_ZNK7Poppler10Annotation12creationDateEv
libpoppler-qt6.so.3:_ZNK7Poppler10Annotation12revisionTypeEv
libpoppler-qt6.so.3:_ZNK7Poppler10Annotation13revisionScopeEv
libpoppler-qt6.so.3:_ZNK7Poppler10Annotation16modificationDateEv
libpoppler-qt6.so.3:_ZNK7Poppler10Annotation20annotationAppearanceEv
libpoppler-qt6.so.3:_ZNK7Poppler10Annotation5Popup5flagsEv
libpoppler-qt6.so.3:_ZNK7Poppler10Annotation5Popup5titleEv
libpoppler-qt6.so.3:_ZNK7Poppler10Annotation5Popup7summaryEv
libpoppler-qt6.so.3:_ZNK7Poppler10Annotation5Popup8geometryEv
libpoppler-qt6.so.3:_ZNK7Poppler10Annotation5Style10lineEffectEv
libpoppler-qt6.so.3:_ZNK7Poppler10Annotation5Style15effectIntensityEv
libpoppler-qt6.so.3:_ZNK7Poppler10Annotation5Style5colorEv
libpoppler-qt6.so.3:_ZNK7Poppler10Annotation5Style5widthEv
libpoppler-qt6.so.3:_ZNK7Poppler10Annotation5Style7opacityEv
libpoppler-qt6.so.3:_ZNK7Poppler10Annotation5Style8xCornersEv
libpoppler-qt6.so.3:_ZNK7Poppler10Annotation5Style8yCornersEv
libpoppler-qt6.so.3:_ZNK7Poppler10Annotation5Style9dashArrayEv
libpoppler-qt6.so.3:_ZNK7Poppler10Annotation5Style9lineStyleEv
libpoppler-qt6.so.3:_ZNK7Poppler10Annotation5flagsEv
libpoppler-qt6.so.3:_ZNK7Poppler10Annotation5popupEv
libpoppler-qt6.so.3:_ZNK7Poppler10Annotation5styleEv
libpoppler-qt6.so.3:_ZNK7Poppler10Annotation6authorEv
libpoppler-qt6.so.3:_ZNK7Poppler10Annotation8boundaryEv
libpoppler-qt6.so.3:_ZNK7Poppler10Annotation8contentsEv
libpoppler-qt6.so.3:_ZNK7Poppler10Annotation9revisionsEv
libpoppler-qt6.so.3:_ZNK7Poppler10LinkAction10actionTypeEv
libpoppler-qt6.so.3:_ZNK7Poppler10LinkBrowse3urlEv
libpoppler-qt6.so.3:_ZNK7Poppler11LinkExecute10parametersEv
libpoppler-qt6.so.3:_ZNK7Poppler11LinkExecute8fileNameEv
libpoppler-qt6.so.3:_ZNK7Poppler11MovieObject11posterImageEv
libpoppler-qt6.so.3:_ZNK7Poppler11MovieObject12showControlsEv
libpoppler-qt6.so.3:_ZNK7Poppler11MovieObject15showPosterImageEv
libpoppler-qt6.so.3:_ZNK7Poppler11MovieObject3urlEv
libpoppler-qt6.so.3:_ZNK7Poppler11MovieObject4sizeEv
libpoppler-qt6.so.3:_ZNK7Poppler11MovieObject8playModeEv
libpoppler-qt6.so.3:_ZNK7Poppler11MovieObject8rotationEv
libpoppler-qt6.so.3:_ZNK7Poppler11OutlineItem11destinationEv
libpoppler-qt6.so.3:_ZNK7Poppler11OutlineItem11hasChildrenEv
libpoppler-qt6.so.3:_ZNK7Poppler11OutlineItem16externalFileNameEv
libpoppler-qt6.so.3:_ZNK7Poppler11OutlineItem3uriEv
libpoppler-qt6.so.3:_ZNK7Poppler11OutlineItem4nameEv
libpoppler-qt6.so.3:_ZNK7Poppler11OutlineItem6isOpenEv
libpoppler-qt6.so.3:_ZNK7Poppler11OutlineItem8childrenEv
libpoppler-qt6.so.3:_ZNK7Poppler11PSConverter9psOptionsEv
libpoppler-qt6.so.3:_ZNK7Poppler11SoundObject12samplingRateEv
libpoppler-qt6.so.3:_ZNK7Poppler11SoundObject13bitsPerSampleEv
libpoppler-qt6.so.3:_ZNK7Poppler11SoundObject13soundEncodingEv
libpoppler-qt6.so.3:_ZNK7Poppler11SoundObject3urlEv
libpoppler-qt6.so.3:_ZNK7Poppler11SoundObject4dataEv
libpoppler-qt6.so.3:_ZNK7Poppler11SoundObject8channelsEv
libpoppler-qt6.so.3:_ZNK7Poppler11SoundObject9soundTypeEv
libpoppler-qt6.so.3:_ZNK7Poppler12EmbeddedFile10createDateEv
libpoppler-qt6.so.3:_ZNK7Poppler12EmbeddedFile11descriptionEv
libpoppler-qt6.so.3:_ZNK7Poppler12EmbeddedFile4nameEv
libpoppler-qt6.so.3:_ZNK7Poppler12EmbeddedFile4sizeEv
libpoppler-qt6.so.3:_ZNK7Poppler12EmbeddedFile7modDateEv
libpoppler-qt6.so.3:_ZNK7Poppler12FontIterator7hasNextEv
libpoppler-qt6.so.3:_ZNK7Poppler12PDFConverter10pdfOptionsEv
libpoppler-qt6.so.3:_ZNK7Poppler12PDFConverter17lastSigningResultEv
libpoppler-qt6.so.3:_ZNK7Poppler12PDFConverter23lastSigningErrorDetailsEv
libpoppler-qt6.so.3:_ZNK7Poppler13BaseConverter9lastErrorEv
libpoppler-qt6.so.3:_ZNK7Poppler13FormFieldText10isPasswordEv
libpoppler-qt6.so.3:_ZNK7Poppler13FormFieldText10isRichTextEv
libpoppler-qt6.so.3:_ZNK7Poppler13FormFieldText13maximumLengthEv
libpoppler-qt6.so.3:_ZNK7Poppler13FormFieldText13textAlignmentEv
libpoppler-qt6.so.3:_ZNK7Poppler13FormFieldText17canBeSpellCheckedEv
libpoppler-qt6.so.3:_ZNK7Poppler13FormFieldText4textEv
libpoppler-qt6.so.3:_ZNK7Poppler13FormFieldText8textTypeEv
libpoppler-qt6.so.3:_ZNK7Poppler13InkAnnotation8inkPathsEv
libpoppler-qt6.so.3:_ZNK7Poppler13LinkRendition22isReferencedAnnotationEPKNS_16ScreenAnnotationE
libpoppler-qt6.so.3:_ZNK7Poppler13LinkRendition6actionEv
libpoppler-qt6.so.3:_ZNK7Poppler13LinkRendition6scriptEv
libpoppler-qt6.so.3:_ZNK7Poppler13LinkRendition9renditionEv
libpoppler-qt6.so.3:_ZNK7Poppler14GeomAnnotation14geomInnerColorEv
libpoppler-qt6.so.3:_ZNK7Poppler14GeomAnnotation8geomTypeEv
libpoppler-qt6.so.3:_ZNK7Poppler14LineAnnotation10lineIntentEv
libpoppler-qt6.so.3:_ZNK7Poppler14LineAnnotation10linePointsEv
libpoppler-qt6.so.3:_ZNK7Poppler14LineAnnotation12isLineClosedEv
libpoppler-qt6.so.3:_ZNK7Poppler14LineAnnotation12lineEndStyleEv
libpoppler-qt6.so.3:_ZNK7Poppler14LineAnnotation14lineInnerColorEv
libpoppler-qt6.so.3:_ZNK7Poppler14LineAnnotation14lineStartStyleEv
libpoppler-qt6.so.3:_ZNK7Poppler14LineAnnotation15lineShowCaptionEv
libpoppler-qt6.so.3:_ZNK7Poppler14LineAnnotation20lineLeadingBackPointEv
libpoppler-qt6.so.3:_ZNK7Poppler14LineAnnotation23lineLeadingForwardPointEv
libpoppler-qt6.so.3:_ZNK7Poppler14LinkJavaScript6scriptEv
libpoppler-qt6.so.3:_ZNK7Poppler14MediaRendition10isEmbeddedEv
libpoppler-qt6.so.3:_ZNK7Poppler14MediaRendition11repeatCountEv
libpoppler-qt6.so.3:_ZNK7Poppler14MediaRendition12showControlsEv
libpoppler-qt6.so.3:_ZNK7Poppler14MediaRendition4dataEv
libpoppler-qt6.so.3:_ZNK7Poppler14MediaRendition4sizeEv
libpoppler-qt6.so.3:_ZNK7Poppler14MediaRendition8autoPlayEv
libpoppler-qt6.so.3:_ZNK7Poppler14MediaRendition8fileNameEv
libpoppler-qt6.so.3:_ZNK7Poppler14PageTransition12durationRealEv
libpoppler-qt6.so.3:_ZNK7Poppler14PageTransition13isRectangularEv
libpoppler-qt6.so.3:_ZNK7Poppler14PageTransition4typeEv
libpoppler-qt6.so.3:_ZNK7Poppler14PageTransition5angleEv
libpoppler-qt6.so.3:_ZNK7Poppler14PageTransition5scaleEv
libpoppler-qt6.so.3:_ZNK7Poppler14PageTransition9alignmentEv
libpoppler-qt6.so.3:_ZNK7Poppler14PageTransition9directionEv
libpoppler-qt6.so.3:_ZNK7Poppler14TextAnnotation12calloutPointEi
libpoppler-qt6.so.3:_ZNK7Poppler14TextAnnotation12inplaceAlignEv
libpoppler-qt6.so.3:_ZNK7Poppler14TextAnnotation13inplaceIntentEv
libpoppler-qt6.so.3:_ZNK7Poppler14TextAnnotation8textFontEv
libpoppler-qt6.so.3:_ZNK7Poppler14TextAnnotation8textIconEv
libpoppler-qt6.so.3:_ZNK7Poppler14TextAnnotation8textTypeEv
libpoppler-qt6.so.3:_ZNK7Poppler14TextAnnotation9textColorEv
libpoppler-qt6.so.3:_ZNK7Poppler15CaretAnnotation11caretSymbolEv
libpoppler-qt6.so.3:_ZNK7Poppler15CertificateInfo10issuerInfoENS0_13EntityInfoKeyE
libpoppler-qt6.so.3:_ZNK7Poppler15CertificateInfo11isQualifiedEv
libpoppler-qt6.so.3:_ZNK7Poppler15CertificateInfo11keyLocationEv
libpoppler-qt6.so.3:_ZNK7Poppler15CertificateInfo11subjectInfoENS0_13EntityInfoKeyE
libpoppler-qt6.so.3:_ZNK7Poppler15CertificateInfo11validityEndEv
libpoppler-qt6.so.3:_ZNK7Poppler15CertificateInfo12isSelfSignedEv
libpoppler-qt6.so.3:_ZNK7Poppler15CertificateInfo12serialNumberEv
libpoppler-qt6.so.3:_ZNK7Poppler15CertificateInfo13checkPasswordERK7QString
libpoppler-qt6.so.3:_ZNK7Poppler15CertificateInfo13publicKeyTypeEv
libpoppler-qt6.so.3:_ZNK7Poppler15CertificateInfo13validityStartEv
libpoppler-qt6.so.3:_ZNK7Poppler15CertificateInfo15certificateDataEv
libpoppler-qt6.so.3:_ZNK7Poppler15CertificateInfo15certificateTypeEv
libpoppler-qt6.so.3:_ZNK7Poppler15CertificateInfo17publicKeyStrengthEv
libpoppler-qt6.so.3:_ZNK7Poppler15CertificateInfo18keyUsageExtensionsEv
libpoppler-qt6.so.3:_ZNK7Poppler15CertificateInfo6isNullEv
libpoppler-qt6.so.3:_ZNK7Poppler15CertificateInfo7versionEv
libpoppler-qt6.so.3:_ZNK7Poppler15CertificateInfo8nickNameEv
libpoppler-qt6.so.3:_ZNK7Poppler15CertificateInfo9publicKeyEv
libpoppler-qt6.so.3:_ZNK7Poppler15FormFieldButton10buttonTypeEv
libpoppler-qt6.so.3:_ZNK7Poppler15FormFieldButton4iconEv
libpoppler-qt6.so.3:_ZNK7Poppler15FormFieldButton5stateEv
libpoppler-qt6.so.3:_ZNK7Poppler15FormFieldButton7captionEv
libpoppler-qt6.so.3:_ZNK7Poppler15FormFieldButton8siblingsEv
libpoppler-qt6.so.3:_ZNK7Poppler15FormFieldChoice10choiceTypeEv
libpoppler-qt6.so.3:_ZNK7Poppler15FormFieldChoice10editChoiceEv
libpoppler-qt6.so.3:_ZNK7Poppler15FormFieldChoice10isEditableEv
libpoppler-qt6.so.3:_ZNK7Poppler15FormFieldChoice11multiSelectEv
libpoppler-qt6.so.3:_ZNK7Poppler15FormFieldChoice13textAlignmentEv
libpoppler-qt6.so.3:_ZNK7Poppler15FormFieldChoice14currentChoicesEv
libpoppler-qt6.so.3:_ZNK7Poppler15FormFieldChoice17canBeSpellCheckedEv
libpoppler-qt6.so.3:_ZNK7Poppler15FormFieldChoice23choicesWithExportValuesEv
libpoppler-qt6.so.3:_ZNK7Poppler15FormFieldChoice7choicesEv
libpoppler-qt6.so.3:_ZNK7Poppler15LinkDestination10pageNumberEv
libpoppler-qt6.so.3:_ZNK7Poppler15LinkDestination11isChangeTopEv
libpoppler-qt6.so.3:_ZNK7Poppler15LinkDestination12isChangeLeftEv
libpoppler-qt6.so.3:_ZNK7Poppler15LinkDestination15destinationNameEv
libpoppler-qt6.so.3:_ZNK7Poppler15LinkDestination3topEv
libpoppler-qt6.so.3:_ZNK7Poppler15LinkDestination4leftEv
libpoppler-qt6.so.3:_ZNK7Poppler15MovieAnnotation5movieEv
libpoppler-qt6.so.3:_ZNK7Poppler15SoundAnnotation13soundIconNameEv
libpoppler-qt6.so.3:_ZNK7Poppler15SoundAnnotation5soundEv
libpoppler-qt6.so.3:_ZNK7Poppler15StampAnnotation13stampIconNameEv
libpoppler-qt6.so.3:_ZNK7Poppler16ScreenAnnotation16additionalActionENS_10Annotation20AdditionalActionTypeE
libpoppler-qt6.so.3:_ZNK7Poppler16ScreenAnnotation6actionEv
libpoppler-qt6.so.3:_ZNK7Poppler16WidgetAnnotation16additionalActionENS_10Annotation20AdditionalActionTypeE
libpoppler-qt6.so.3:_ZNK7Poppler18FormFieldSignature13signatureTypeEv
libpoppler-qt6.so.3:_ZNK7Poppler18FormFieldSignature13validateAsyncENS0_15ValidateOptionsERK9QDateTime
libpoppler-qt6.so.3:_ZNK7Poppler18FormFieldSignature14validateResultEv
libpoppler-qt6.so.3:_ZNK7Poppler18FormFieldSignature23lastSigningErrorDetailsEv
libpoppler-qt6.so.3:_ZNK7Poppler18FormFieldSignature4signERK7QStringRKNS_12PDFConverter16NewSignatureDataE
libpoppler-qt6.so.3:_ZNK7Poppler19HighlightAnnotation13highlightTypeEv
libpoppler-qt6.so.3:_ZNK7Poppler19HighlightAnnotation14highlightQuadsEv
libpoppler-qt6.so.3:_ZNK7Poppler19RichMediaAnnotation10Activation9conditionEv
libpoppler-qt6.so.3:_ZNK7Poppler19RichMediaAnnotation13Configuration9instancesEv
libpoppler-qt6.so.3:_ZNK7Poppler19RichMediaAnnotation5Asset12embeddedFileEv
libpoppler-qt6.so.3:_ZNK7Poppler19RichMediaAnnotation5Asset4nameEv
libpoppler-qt6.so.3:_ZNK7Poppler19RichMediaAnnotation6Params9flashVarsEv
libpoppler-qt6.so.3:_ZNK7Poppler19RichMediaAnnotation7Content14configurationsEv
libpoppler-qt6.so.3:_ZNK7Poppler19RichMediaAnnotation7Content6assetsEv
libpoppler-qt6.so.3:_ZNK7Poppler19RichMediaAnnotation7contentEv
libpoppler-qt6.so.3:_ZNK7Poppler19RichMediaAnnotation8Instance4typeEv
libpoppler-qt6.so.3:_ZNK7Poppler19RichMediaAnnotation8Instance6paramsEv
libpoppler-qt6.so.3:_ZNK7Poppler19RichMediaAnnotation8Settings10activationEv
libpoppler-qt6.so.3:_ZNK7Poppler19RichMediaAnnotation8settingsEv
libpoppler-qt6.so.3:_ZNK7Poppler19SignatureAnnotation23lastSigningErrorDetailsEv
libpoppler-qt6.so.3:_ZNK7Poppler23SignatureValidationInfo10signerNameEv
libpoppler-qt6.so.3:_ZNK7Poppler23SignatureValidationInfo11signingTimeEv
libpoppler-qt6.so.3:_ZNK7Poppler23SignatureValidationInfo13hashAlgorithmEv
libpoppler-qt6.so.3:_ZNK7Poppler23SignatureValidationInfo15certificateInfoEv
libpoppler-qt6.so.3:_ZNK7Poppler23SignatureValidationInfo15signatureStatusEv
libpoppler-qt6.so.3:_ZNK7Poppler23SignatureValidationInfo15signerSubjectDNEv
libpoppler-qt6.so.3:_ZNK7Poppler23SignatureValidationInfo17certificateStatusEv
libpoppler-qt6.so.3:_ZNK7Poppler23SignatureValidationInfo17signedRangeBoundsEv
libpoppler-qt6.so.3:_ZNK7Poppler23SignatureValidationInfo18signsTotalDocumentEv
libpoppler-qt6.so.3:_ZNK7Poppler23SignatureValidationInfo6reasonEv
libpoppler-qt6.so.3:_ZNK7Poppler23SignatureValidationInfo8locationEv
libpoppler-qt6.so.3:_ZNK7Poppler23SignatureValidationInfo9signatureEv
libpoppler-qt6.so.3:_ZNK7Poppler24FileAttachmentAnnotation12embeddedFileEv
libpoppler-qt6.so.3:_ZNK7Poppler24FileAttachmentAnnotation12fileIconNameEv
libpoppler-qt6.so.3:_ZNK7Poppler4Link8linkAreaEv
libpoppler-qt6.so.3:_ZNK7Poppler4Link9nextLinksEv
libpoppler-qt6.so.3:_ZNK7Poppler4Page10formFieldsEv
libpoppler-qt6.so.3:_ZNK7Poppler4Page10transitionEv
libpoppler-qt6.so.3:_ZNK7Poppler4Page11annotationsERK4QSetINS_10Annotation7SubTypeEE
libpoppler-qt6.so.3:_ZNK7Poppler4Page11orientationEv
libpoppler-qt6.so.3:_ZNK7Poppler4Page13renderToImageEddiiiiNS0_8RotationE
libpoppler-qt6.so.3:_ZNK7Poppler4Page13renderToImageEddiiiiNS0_8RotationEPFvRK6QImageRK8QVariantEPFbS7_ESB_S7_
libpoppler-qt6.so.3:_ZNK7Poppler4Page4textERK6QRectF
libpoppler-qt6.so.3:_ZNK7Poppler4Page5labelEv
libpoppler-qt6.so.3:_ZNK7Poppler4Page5linksEv
libpoppler-qt6.so.3:_ZNK7Poppler4Page6actionENS0_10PageActionE
libpoppler-qt6.so.3:_ZNK7Poppler4Page8durationEv
libpoppler-qt6.so.3:_ZNK7Poppler4Page8pageSizeEv
libpoppler-qt6.so.3:_ZNK7Poppler4Page8textListENS0_8RotationEPFbRK8QVariantES4_
libpoppler-qt6.so.3:_ZNK7Poppler4Page9pageSizeFEv
libpoppler-qt6.so.3:_ZNK7Poppler7TextBox11boundingBoxEv
libpoppler-qt6.so.3:_ZNK7Poppler7TextBox13hasSpaceAfterEv
libpoppler-qt6.so.3:_ZNK7Poppler7TextBox15charBoundingBoxEi
libpoppler-qt6.so.3:_ZNK7Poppler7TextBox4textEv
libpoppler-qt6.so.3:_ZNK7Poppler7TextBox8nextWordEv
libpoppler-qt6.so.3:_ZNK7Poppler8Document10okToChangeEv
libpoppler-qt6.so.3:_ZNK7Poppler8Document10pageLayoutEv
libpoppler-qt6.so.3:_ZNK7Poppler8Document10paperColorEv
libpoppler-qt6.so.3:_ZNK7Poppler8Document10signaturesEv
libpoppler-qt6.so.3:_ZNK7Poppler8Document11isEncryptedEv
libpoppler-qt6.so.3:_ZNK7Poppler8Document11psConverterEv
libpoppler-qt6.so.3:_ZNK7Poppler8Document11renderHintsEv
libpoppler-qt6.so.3:_ZNK7Poppler8Document12isLinearizedEv
libpoppler-qt6.so.3:_ZNK7Poppler8Document12okToAddNotesEv
libpoppler-qt6.so.3:_ZNK7Poppler8Document12okToFillFormEv
libpoppler-qt6.so.3:_ZNK7Poppler8Document12pdfConverterEv
libpoppler-qt6.so.3:_ZNK7Poppler8Document13embeddedFilesEv
libpoppler-qt6.so.3:_ZNK7Poppler8Document13getPdfVersionEv
libpoppler-qt6.so.3:_ZNK7Poppler8Document15newFontIteratorEi
libpoppler-qt6.so.3:_ZNK7Poppler8Document16additionalActionENS0_29DocumentAdditionalActionsTypeE
libpoppler-qt6.so.3:_ZNK7Poppler8Document18formCalculateOrderEv
libpoppler-qt6.so.3:_ZNK7Poppler8Document18hasOptionalContentEv
libpoppler-qt6.so.3:_ZNK7Poppler8Document20xrefWasReconstructedEv
libpoppler-qt6.so.3:_ZNK7Poppler8Document4dateERK7QString
libpoppler-qt6.so.3:_ZNK7Poppler8Document4infoERK7QString
libpoppler-qt6.so.3:_ZNK7Poppler8Document4pageEi
libpoppler-qt6.so.3:_ZNK7Poppler8Document7outlineEv
libpoppler-qt6.so.3:_ZNK7Poppler8Document7scriptsEv
libpoppler-qt6.so.3:_ZNK7Poppler8Document8fontDataERKNS_8FontInfoE
libpoppler-qt6.so.3:_ZNK7Poppler8Document8formTypeEv
libpoppler-qt6.so.3:_ZNK7Poppler8Document8isLockedEv
libpoppler-qt6.so.3:_ZNK7Poppler8Document8metadataEv
libpoppler-qt6.so.3:_ZNK7Poppler8Document8numPagesEv
libpoppler-qt6.so.3:_ZNK7Poppler8Document8okToCopyEv
libpoppler-qt6.so.3:_ZNK7Poppler8Document8pageModeEv
libpoppler-qt6.so.3:_ZNK7Poppler8Document9okToPrintEv
libpoppler-qt6.so.3:_ZNK7Poppler8FontInfo10isEmbeddedEv
libpoppler-qt6.so.3:_ZNK7Poppler8FontInfo14substituteNameEv
libpoppler-qt6.so.3:_ZNK7Poppler8FontInfo4fileEv
libpoppler-qt6.so.3:_ZNK7Poppler8FontInfo4nameEv
libpoppler-qt6.so.3:_ZNK7Poppler8FontInfo4typeEv
libpoppler-qt6.so.3:_ZNK7Poppler8FontInfo8isSubsetEv
libpoppler-qt6.so.3:_ZNK7Poppler8LinkGoto11destinationEv
libpoppler-qt6.so.3:_ZNK7Poppler8LinkGoto8fileNameEv
libpoppler-qt6.so.3:_ZNK7Poppler8LinkHide12isShowActionEv
libpoppler-qt6.so.3:_ZNK7Poppler8LinkHide7targetsEv
libpoppler-qt6.so.3:_ZNK7Poppler9FormField10isReadOnlyEv
libpoppler-qt6.so.3:_ZNK7Poppler9FormField11isPrintableEv
libpoppler-qt6.so.3:_ZNK7Poppler9FormField16activationActionEv
libpoppler-qt6.so.3:_ZNK7Poppler9FormField16additionalActionENS0_20AdditionalActionTypeE
libpoppler-qt6.so.3:_ZNK7Poppler9FormField16additionalActionENS_10Annotation20AdditionalActionTypeE
libpoppler-qt6.so.3:_ZNK7Poppler9FormField18fullyQualifiedNameEv
libpoppler-qt6.so.3:_ZNK7Poppler9FormField2idEv
libpoppler-qt6.so.3:_ZNK7Poppler9FormField4nameEv
libpoppler-qt6.so.3:_ZNK7Poppler9FormField4rectEv
libpoppler-qt6.so.3:_ZNK7Poppler9FormField6uiNameEv
libpoppler-qt6.so.3:_ZNK7Poppler9FormField9isVisibleEv
libpoppler-qt6.so.3:_ZNK7Poppler9LinkMovie22isReferencedAnnotationEPKNS_15MovieAnnotationE
libpoppler-qt6.so.3:_ZNK7Poppler9LinkMovie9operationEv
libpoppler-qt6.so.3:_ZNK7Poppler9LinkSound11synchronousEv
libpoppler-qt6.so.3:_ZNK7Poppler9LinkSound3mixEv
libpoppler-qt6.so.3:_ZNK7Poppler9LinkSound5soundEv
libpoppler-qt6.so.3:_ZNK7Poppler9LinkSound6repeatEv
libpoppler-qt6.so.3:_ZNK7Poppler9LinkSound6volumeEv
libpoppler-qt6.so.3:_ZTIN7Poppler12LinkOCGStateE
libpoppler-qt6.so.3:_ZTIN7Poppler13LinkResetFormE
libpoppler-qt6.so.3:_ZTIN7Poppler4LinkE
libspectre.so.1:spectre_document_free
libspectre.so.1:spectre_document_get_creation_date
libspectre.so.1:spectre_document_get_creator
libspectre.so.1:spectre_document_get_for
libspectre.so.1:spectre_document_get_format
libspectre.so.1:spectre_document_get_language_level
libspectre.so.1:spectre_document_get_n_pages
libspectre.so.1:spectre_document_get_page
libspectre.so.1:spectre_document_get_title
libspectre.so.1:spectre_document_is_eps
libspectre.so.1:spectre_document_load
libspectre.so.1:spectre_document_new
libspectre.so.1:spectre_document_status
libspectre.so.1:spectre_exporter_begin
libspectre.so.1:spectre_exporter_do_page
libspectre.so.1:spectre_exporter_end
libspectre.so.1:spectre_exporter_free
libspectre.so.1:spectre_exporter_new
libspectre.so.1:spectre_page_free
libspectre.so.1:spectre_page_get_orientation
libspectre.so.1:spectre_page_get_size
libspectre.so.1:spectre_page_render
libspectre.so.1:spectre_render_context_free
libspectre.so.1:spectre_render_context_new
libspectre.so.1:spectre_render_context_set_antialias_bits
libspectre.so.1:spectre_render_context_set_scale
libspectre.so.1:spectre_render_context_set_use_platform_fonts
libspectre.so.1:spectre_status_to_string
libstdc++.so.6:_ZNKSt8__detail20_Prime_rehash_policy14_M_need_rehashEmmm
libstdc++.so.6:_ZNSt8__detail15_List_node_base11_M_transferEPS0_S1_
libstdc++.so.6:_ZNSt8__detail15_List_node_base7_M_hookEPS0_
libstdc++.so.6:_ZNSt8__detail15_List_node_base9_M_unhookEv
libstdc++.so.6:_ZSt17__throw_bad_allocv
libstdc++.so.6:_ZSt18_Rb_tree_decrementPSt18_Rb_tree_node_base
libstdc++.so.6:_ZSt18_Rb_tree_incrementPSt18_Rb_tree_node_base
libstdc++.so.6:_ZSt19__throw_logic_errorPKc
libstdc++.so.6:_ZSt20__throw_length_errorPKc
libstdc++.so.6:_ZSt21ios_base_library_initv
libstdc++.so.6:_ZSt24__throw_out_of_range_fmtPKcz
libstdc++.so.6:_ZSt25__throw_bad_function_callv
libstdc++.so.6:_ZSt28_Rb_tree_rebalance_for_erasePSt18_Rb_tree_node_baseRS_
libstdc++.so.6:_ZSt28__throw_bad_array_new_lengthv
libstdc++.so.6:_ZSt29_Rb_tree_insert_and_rebalancebPSt18_Rb_tree_node_baseS0_RS_
libstdc++.so.6:_ZSt4cerr
libstdc++.so.6:_ZStlsIcSt11char_traitsIcESaIcEERSt13basic_ostreamIT_T0_ES7_RKNSt7__cxx1112basic_stringIS4_S5_T1_EE
libstdc++.so.6:_ZTVN10__cxxabiv117__class_type_infoE
libstdc++.so.6:_ZTVN10__cxxabiv120__si_class_type_infoE
libstdc++.so.6:_ZTVN10__cxxabiv121__vmi_class_type_infoE
libstdc++.so.6:_ZdaPv
libstdc++.so.6:_ZdaPvm
libstdc++.so.6:_ZdlPv
libstdc++.so.6:_ZdlPvm
libstdc++.so.6:_Znam
libstdc++.so.6:_Znwm
libstdc++.so.6:_ZnwmRKSt9nothrow_t
libstdc++.so.6:__cxa_guard_acquire
libstdc++.so.6:__cxa_guard_release
libstdc++.so.6:__cxa_pure_virtual
libstdc++.so.6:__cxa_thread_atexit
libstdc++.so.6:__dynamic_cast
libtiff.so.6:TIFFClientOpen
libtiff.so.6:TIFFClose
libtiff.so.6:TIFFGetField
libtiff.so.6:TIFFGetFieldDefaulted
libtiff.so.6:TIFFNumberOfDirectories
libtiff.so.6:TIFFReadRGBAImageOriented
libtiff.so.6:TIFFSetDirectory
libz.so.1:gzclose
libz.so.1:gzerror
libz.so.1:gzopen
libz.so.1:gzread
libz.so.1:gzseek
libz.so.1:gztell
