libsane.so.1:AllocateImageBuffer
libsane.so.1:CMD_get_buff_status
libsane.so.1:CMD_get_document_existanse
libsane.so.1:CMD_read_image
libsane.so.1:CMD_read_pic_elements
libsane.so.1:CMD_read_support_info
libsane.so.1:CMD_request_sense
libsane.so.1:CMD_reset_window
libsane.so.1:CMD_scan
libsane.so.1:CMD_set_timeout
libsane.so.1:CMD_set_window
libsane.so.1:CMD_test_unit_ready
libsane.so.1:CMD_wait_buff_status
libsane.so.1:CMD_wait_document_existanse
libsane.so.1:MatchVersions
libsane.so.1:ProcessAvahiDevice
libsane.so.1:RTS_Debug
libsane.so.1:RawScan
libsane.so.1:RawScanPath
libsane.so.1:ReadImageData
libsane.so.1:ReadImageDataDuplex
libsane.so.1:ReadImageDataSimplex
libsane.so.1:WRef
libsane.so.1:_ZN7genesys10IUsbDeviceD0Ev
libsane.so.1:_ZN7genesys10IUsbDeviceD1Ev
libsane.so.1:_ZN7genesys10IUsbDeviceD2Ev
libsane.so.1:_ZN7genesys10MotorSlope17create_from_stepsEjjj
libsane.so.1:_ZN7genesys11ImageBuffer8get_dataEmPh
libsane.so.1:_ZN7genesys11ImageBufferC1EmSt8functionIFbmPhEE
libsane.so.1:_ZN7genesys11ImageBufferC2EmSt8functionIFbmPhEE
libsane.so.1:_ZN7genesys11s_frontendsE
libsane.so.1:_ZN7genesys12genesys_cropEPNS_15Genesys_ScannerE
libsane.so.1:_ZN7genesys12scanner_moveERNS_14Genesys_DeviceENS_10ScanMethodEjNS_9DirectionE
libsane.so.1:_ZN7genesys13SaneException7set_msgEPKcP13__va_list_tag
libsane.so.1:_ZN7genesys13SaneException7set_msgEv
libsane.so.1:_ZN7genesys13SaneExceptionC1E11SANE_Status
libsane.so.1:_ZN7genesys13SaneExceptionC1E11SANE_StatusPKcz
libsane.so.1:_ZN7genesys13SaneExceptionC1EPKcz
libsane.so.1:_ZN7genesys13SaneExceptionC2E11SANE_Status
libsane.so.1:_ZN7genesys13SaneExceptionC2E11SANE_StatusPKcz
libsane.so.1:_ZN7genesys13SaneExceptionC2EPKcz
libsane.so.1:_ZN7genesys13TestUsbDevice10bulk_writeEPKhPm
libsane.so.1:_ZN7genesys13TestUsbDevice10clear_haltEv
libsane.so.1:_ZN7genesys13TestUsbDevice11control_msgEiiiiiPh
libsane.so.1:_ZN7genesys13TestUsbDevice18get_vendor_productERiS1_
libsane.so.1:_ZN7genesys13TestUsbDevice4openEPKc
libsane.so.1:_ZN7genesys13TestUsbDevice5closeEv
libsane.so.1:_ZN7genesys13TestUsbDevice5resetEv
libsane.so.1:_ZN7genesys13TestUsbDevice9bulk_readEPhPm
libsane.so.1:_ZN7genesys13TestUsbDeviceC1Ett
libsane.so.1:_ZN7genesys13TestUsbDeviceC2Ett
libsane.so.1:_ZN7genesys13TestUsbDeviceD0Ev
libsane.so.1:_ZN7genesys13TestUsbDeviceD1Ev
libsane.so.1:_ZN7genesys13TestUsbDeviceD2Ev
libsane.so.1:_ZN7genesys13binarize_lineEPNS_14Genesys_DeviceEPhS2_i
libsane.so.1:_ZN7genesys13s_usb_devicesE
libsane.so.1:_ZN7genesys14Genesys_Buffer12get_read_posEv
libsane.so.1:_ZN7genesys14Genesys_Buffer13get_write_posEm
libsane.so.1:_ZN7genesys14Genesys_Buffer5allocEm
libsane.so.1:_ZN7genesys14Genesys_Buffer5clearEv
libsane.so.1:_ZN7genesys14Genesys_Buffer5resetEv
libsane.so.1:_ZN7genesys14Genesys_Buffer7consumeEm
libsane.so.1:_ZN7genesys14Genesys_Buffer7produceEm
libsane.so.1:_ZN7genesys14Genesys_Device17set_head_pos_zeroENS_10ScanHeadIdE
libsane.so.1:_ZN7genesys14Genesys_Device19get_pipeline_sourceEv
libsane.so.1:_ZN7genesys14Genesys_Device20set_head_pos_unknownEv
libsane.so.1:_ZN7genesys14Genesys_Device25advance_head_pos_by_stepsENS_10ScanHeadIdENS_9DirectionEj
libsane.so.1:_ZN7genesys14Genesys_Device27advance_head_pos_by_sessionENS_10ScanHeadIdE
libsane.so.1:_ZN7genesys14Genesys_Device5clearEv
libsane.so.1:_ZN7genesys14Genesys_DeviceD1Ev
libsane.so.1:_ZN7genesys14Genesys_DeviceD2Ev
libsane.so.1:_ZN7genesys14genesys_deskewEPNS_15Genesys_ScannerERKNS_14Genesys_SensorE
libsane.so.1:_ZN7genesys14sane_exit_implEv
libsane.so.1:_ZN7genesys14sane_init_implEPiPFvPKcPcS3_E
libsane.so.1:_ZN7genesys14sane_read_implEPvPhiPi
libsane.so.1:_ZN7genesys15FakeBufferModel13simulate_readEm
libsane.so.1:_ZN7genesys15FakeBufferModel9push_stepEmm
libsane.so.1:_ZN7genesys15MotorSlopeTable11slice_stepsEj
libsane.so.1:_ZN7genesys15compute_sessionEPKNS_14Genesys_DeviceERNS_11ScanSessionERKNS_14Genesys_SensorE
libsane.so.1:_ZN7genesys15genesys_despeckEPNS_15Genesys_ScannerE
libsane.so.1:_ZN7genesys15get_gamma_tableEPNS_14Genesys_DeviceERKNS_14Genesys_SensorEi
libsane.so.1:_ZN7genesys15is_testing_modeEv
libsane.so.1:_ZN7genesys15sane_close_implEPv
libsane.so.1:_ZN7genesys15sane_start_implEPv
libsane.so.1:_ZN7genesys16ScannerInterfaceD0Ev
libsane.so.1:_ZN7genesys16ScannerInterfaceD1Ev
libsane.so.1:_ZN7genesys16ScannerInterfaceD2Ev
libsane.so.1:_ZN7genesys16find_sensor_implEPNS_14Genesys_DeviceEjjNS_10ScanMethodE
libsane.so.1:_ZN7genesys16genesys_derotateEPNS_15Genesys_ScannerE
libsane.so.1:_ZN7genesys16read_calibrationERSiRSt6vectorINS_25Genesys_Calibration_CacheESaIS2_EERKNSt7__cxx1112basic_stringIcSt11char_traitsIcESaIcEEE
libsane.so.1:_ZN7genesys16sane_cancel_implEPv
libsane.so.1:_ZN7genesys16set_pixel_to_rowEPhmNS_5PixelENS_11PixelFormatE
libsane.so.1:_ZN7genesys17ImagePipelineNodeD0Ev
libsane.so.1:_ZN7genesys17ImagePipelineNodeD1Ev
libsane.so.1:_ZN7genesys17ImagePipelineNodeD2Ev
libsane.so.1:_ZN7genesys17regs_set_exposureENS_8AsicTypeERNS_20Genesys_Register_SetERKNS_14SensorExposureE
libsane.so.1:_ZN7genesys17write_calibrationERSoRSt6vectorINS_25Genesys_Calibration_CacheESaIS2_EE
libsane.so.1:_ZN7genesys18DebugMessageHelper3logEjPKc
libsane.so.1:_ZN7genesys18DebugMessageHelper4vlogEjPKcz
libsane.so.1:_ZN7genesys18DebugMessageHelper7vstatusEPKcz
libsane.so.1:_ZN7genesys18DebugMessageHelperC1EPKc
libsane.so.1:_ZN7genesys18DebugMessageHelperC1EPKcS2_z
libsane.so.1:_ZN7genesys18DebugMessageHelperC2EPKc
libsane.so.1:_ZN7genesys18DebugMessageHelperC2EPKcS2_z
libsane.so.1:_ZN7genesys18DebugMessageHelperD1Ev
libsane.so.1:_ZN7genesys18DebugMessageHelperD2Ev
libsane.so.1:_ZN7genesys18ImagePipelineStack12get_all_dataEv
libsane.so.1:_ZN7genesys18ImagePipelineStack5clearEv
libsane.so.1:_ZN7genesys18ImagePipelineStack9get_imageEv
libsane.so.1:_ZN7genesys18create_slope_tableERKNS_10MotorSlopeEjNS_8StepTypeEjjj
libsane.so.1:_ZN7genesys18debug_print_statusERNS_18DebugMessageHelperENS_6StatusE
libsane.so.1:_ZN7genesys18get_pixel_channelsENS_11PixelFormatE
libsane.so.1:_ZN7genesys18get_pixel_from_rowEPKhmNS_11PixelFormatE
libsane.so.1:_ZN7genesys19ScannerInterfaceUsb10write_0x8cEhh
libsane.so.1:_ZN7genesys19ScannerInterfaceUsb11write_gammaEhjPhmNS_16ScannerInterface5FlagsE
libsane.so.1:_ZN7genesys19ScannerInterfaceUsb12write_bufferEhjPhmNS_16ScannerInterface5FlagsE
libsane.so.1:_ZN7genesys19ScannerInterfaceUsb13read_registerEt
libsane.so.1:_ZN7genesys19ScannerInterfaceUsb14bulk_read_dataEhPhm
libsane.so.1:_ZN7genesys19ScannerInterfaceUsb14get_usb_deviceEv
libsane.so.1:_ZN7genesys19ScannerInterfaceUsb14write_registerEth
libsane.so.1:_ZN7genesys19ScannerInterfaceUsb15bulk_write_dataEhPhm
libsane.so.1:_ZN7genesys19ScannerInterfaceUsb15test_checkpointERKNSt7__cxx1112basic_stringIcSt11char_traitsIcESaIcEEE
libsane.so.1:_ZN7genesys19ScannerInterfaceUsb15write_registersERKNS_20Genesys_Register_SetE
libsane.so.1:_ZN7genesys19ScannerInterfaceUsb16read_fe_registerEh
libsane.so.1:_ZN7genesys19ScannerInterfaceUsb16record_key_valueERKNSt7__cxx1112basic_stringIcSt11char_traitsIcESaIcEEES8_
libsane.so.1:_ZN7genesys19ScannerInterfaceUsb17write_fe_registerEht
libsane.so.1:_ZN7genesys19ScannerInterfaceUsb18record_slope_tableEjRKSt6vectorItSaItEE
libsane.so.1:_ZN7genesys19ScannerInterfaceUsb23record_progress_messageEPKc
libsane.so.1:_ZN7genesys19ScannerInterfaceUsb8sleep_usEj
libsane.so.1:_ZN7genesys19ScannerInterfaceUsb9write_ahbEjjPh
libsane.so.1:_ZN7genesys19ScannerInterfaceUsbC1EPNS_14Genesys_DeviceE
libsane.so.1:_ZN7genesys19ScannerInterfaceUsbC2EPNS_14Genesys_DeviceE
libsane.so.1:_ZN7genesys19ScannerInterfaceUsbD0Ev
libsane.so.1:_ZN7genesys19ScannerInterfaceUsbD1Ev
libsane.so.1:_ZN7genesys19ScannerInterfaceUsbD2Ev
libsane.so.1:_ZN7genesys19create_pixel_formatEjjNS_10ColorOrderE
libsane.so.1:_ZN7genesys19enable_testing_modeEttSt8functionIFvRKNS_14Genesys_DeviceERNS_20TestScannerInterfaceERKNSt7__cxx1112basic_stringIcSt11char_traitsIcESaIcEEEEE
libsane.so.1:_ZN7genesys19get_pixel_row_bytesENS_11PixelFormatEm
libsane.so.1:_ZN7genesys19print_scan_positionERSoRKNS_14Genesys_DeviceENS_10ScanHeadIdE
libsane.so.1:_ZN7genesys19scanner_read_statusERNS_14Genesys_DeviceE
libsane.so.1:_ZN7genesys19scanner_stop_actionERNS_14Genesys_DeviceE
libsane.so.1:_ZN7genesys19should_enable_gammaERKNS_11ScanSessionERKNS_14Genesys_SensorE
libsane.so.1:_ZN7genesys20TestScannerInterface10write_0x8cEhh
libsane.so.1:_ZN7genesys20TestScannerInterface11write_gammaEhjPhmNS_16ScannerInterface5FlagsE
libsane.so.1:_ZN7genesys20TestScannerInterface12write_bufferEhjPhmNS_16ScannerInterface5FlagsE
libsane.so.1:_ZN7genesys20TestScannerInterface13read_registerEt
libsane.so.1:_ZN7genesys20TestScannerInterface14bulk_read_dataEhPhm
libsane.so.1:_ZN7genesys20TestScannerInterface14get_usb_deviceEv
libsane.so.1:_ZN7genesys20TestScannerInterface14write_registerEth
libsane.so.1:_ZN7genesys20TestScannerInterface15bulk_write_dataEhPhm
libsane.so.1:_ZN7genesys20TestScannerInterface15test_checkpointERKNSt7__cxx1112basic_stringIcSt11char_traitsIcESaIcEEE
libsane.so.1:_ZN7genesys20TestScannerInterface15write_registersERKNS_20Genesys_Register_SetE
libsane.so.1:_ZN7genesys20TestScannerInterface16read_fe_registerEh
libsane.so.1:_ZN7genesys20TestScannerInterface16record_key_valueERKNSt7__cxx1112basic_stringIcSt11char_traitsIcESaIcEEES8_
libsane.so.1:_ZN7genesys20TestScannerInterface17write_fe_registerEht
libsane.so.1:_ZN7genesys20TestScannerInterface18record_slope_tableEjRKSt6vectorItSaItEE
libsane.so.1:_ZN7genesys20TestScannerInterface19recorded_key_valuesB5cxx11Ev
libsane.so.1:_ZN7genesys20TestScannerInterface21recorded_slope_tablesEv
libsane.so.1:_ZN7genesys20TestScannerInterface23record_progress_messageEPKc
libsane.so.1:_ZN7genesys20TestScannerInterface23set_checkpoint_callbackESt8functionIFvRKNS_14Genesys_DeviceERS0_RKNSt7__cxx1112basic_stringIcSt11char_traitsIcESaIcEEEEE
libsane.so.1:_ZN7genesys20TestScannerInterface8sleep_usEj
libsane.so.1:_ZN7genesys20TestScannerInterface9write_ahbEjjPh
libsane.so.1:_ZN7genesys20TestScannerInterfaceC1EPNS_14Genesys_DeviceE
libsane.so.1:_ZN7genesys20TestScannerInterfaceC2EPNS_14Genesys_DeviceE
libsane.so.1:_ZN7genesys20TestScannerInterfaceD0Ev
libsane.so.1:_ZN7genesys20TestScannerInterfaceD1Ev
libsane.so.1:_ZN7genesys20TestScannerInterfaceD2Ev
libsane.so.1:_ZN7genesys20build_image_pipelineEPNS_14Genesys_DeviceERKNS_11ScanSessionE
libsane.so.1:_ZN7genesys20disable_testing_modeEv
libsane.so.1:_ZN7genesys20genesys_gray_lineartEPNS_14Genesys_DeviceEPhS2_mmh
libsane.so.1:_ZN7genesys20gl124_motor_profilesE
libsane.so.1:_ZN7genesys20gl843_motor_profilesE
libsane.so.1:_ZN7genesys20gl846_motor_profilesE
libsane.so.1:_ZN7genesys20gl847_motor_profilesE
libsane.so.1:_ZN7genesys20regs_set_optical_offENS_8AsicTypeERNS_20Genesys_Register_SetE
libsane.so.1:_ZN7genesys20scanner_start_actionERNS_14Genesys_DeviceEb
libsane.so.1:_ZN7genesys20set_raw_pixel_to_rowEPhmNS_8RawPixelENS_11PixelFormatE
libsane.so.1:_ZN7genesys21ImageBufferGenesysUsb13get_read_sizeEv
libsane.so.1:_ZN7genesys21ImageBufferGenesysUsb8get_dataEmPh
libsane.so.1:_ZN7genesys21ImageBufferGenesysUsbC1EmRKNS_15FakeBufferModelESt8functionIFvmPhEE
libsane.so.1:_ZN7genesys21ImageBufferGenesysUsbC2EmRKNS_15FakeBufferModelESt8functionIFvmPhEE
libsane.so.1:_ZN7genesys21compute_frontend_gainEffNS_12FrontendTypeE
libsane.so.1:_ZN7genesys21get_testing_vendor_idEv
libsane.so.1:_ZN7genesys21sane_get_devices_implEPPPK11SANE_Devicei
libsane.so.1:_ZN7genesys21sane_set_io_mode_implEPvi
libsane.so.1:_ZN7genesys22ImagePipelineNodeDebug17get_next_row_dataEPh
libsane.so.1:_ZN7genesys22ImagePipelineNodeDebugC1ERNS_17ImagePipelineNodeERKNSt7__cxx1112basic_stringIcSt11char_traitsIcESaIcEEE
libsane.so.1:_ZN7genesys22ImagePipelineNodeDebugC2ERNS_17ImagePipelineNodeERKNSt7__cxx1112basic_stringIcSt11char_traitsIcESaIcEEE
libsane.so.1:_ZN7genesys22ImagePipelineNodeDebugD0Ev
libsane.so.1:_ZN7genesys22ImagePipelineNodeDebugD1Ev
libsane.so.1:_ZN7genesys22ImagePipelineNodeDebugD2Ev
libsane.so.1:_ZN7genesys22get_pixel_format_depthENS_11PixelFormatE
libsane.so.1:_ZN7genesys22get_raw_pixel_from_rowEPKhmNS_11PixelFormatE
libsane.so.1:_ZN7genesys22get_testing_product_idEv
libsane.so.1:_ZN7genesys22sanei_genesys_load_lutEPhiiiiii
libsane.so.1:_ZN7genesys22scanner_move_back_homeERNS_14Genesys_DeviceEb
libsane.so.1:_ZN7genesys22set_raw_channel_to_rowEPhmjtNS_11PixelFormatE
libsane.so.1:_ZN7genesys23genesys_init_gpo_tablesEv
libsane.so.1:_ZN7genesys23get_registers_gain4_bitENS_8AsicTypeERKNS_20Genesys_Register_SetE
libsane.so.1:_ZN7genesys23get_testing_device_nameB5cxx11Ev
libsane.so.1:_ZN7genesys23sane_get_select_fd_implEPvPi
libsane.so.1:_ZN7genesys23sanei_genesys_asic_initEPNS_14Genesys_DeviceEb
libsane.so.1:_ZN7genesys23sanei_genesys_set_dpihwERNS_20Genesys_Register_SetERKNS_14Genesys_SensorEj
libsane.so.1:_ZN7genesys24ImagePipelineNodeExtract17get_next_row_dataEPh
libsane.so.1:_ZN7genesys24ImagePipelineNodeExtractC1ERNS_17ImagePipelineNodeEmmmm
libsane.so.1:_ZN7genesys24ImagePipelineNodeExtractC2ERNS_17ImagePipelineNodeEmmmm
libsane.so.1:_ZN7genesys24ImagePipelineNodeExtractD0Ev
libsane.so.1:_ZN7genesys24ImagePipelineNodeExtractD1Ev
libsane.so.1:_ZN7genesys24ImagePipelineNodeExtractD2Ev
libsane.so.1:_ZN7genesys24compute_session_pipelineEPKNS_14Genesys_DeviceERNS_11ScanSessionE
libsane.so.1:_ZN7genesys24convert_pixel_row_formatEPKhNS_11PixelFormatEPhS2_m
libsane.so.1:_ZN7genesys24genesys_option_to_buttonEi
libsane.so.1:_ZN7genesys24get_raw_channel_from_rowEPKhmjNS_11PixelFormatE
libsane.so.1:_ZN7genesys24get_slope_table_max_sizeENS_8AsicTypeE
libsane.so.1:_ZN7genesys24sane_control_option_implEPvi11SANE_ActionS0_Pi
libsane.so.1:_ZN7genesys24sane_get_parameters_implEPvP15SANE_Parameters
libsane.so.1:_ZN7genesys24sanei_genesys_has_sensorEPNS_14Genesys_DeviceEjjNS_10ScanMethodE
libsane.so.1:_ZN7genesys24sanei_genesys_write_fileEPKcPKhm
libsane.so.1:_ZN7genesys24scanner_is_motor_stoppedERNS_14Genesys_DeviceE
libsane.so.1:_ZN7genesys25genesys_init_motor_tablesEv
libsane.so.1:_ZN7genesys25get_pixels_from_row_bytesENS_11PixelFormatEm
libsane.so.1:_ZN7genesys25sanei_genesys_find_sensorEPNS_14Genesys_DeviceEjjNS_10ScanMethodE
libsane.so.1:_ZN7genesys25sanei_genesys_slope_tableENS_8AsicTypeEiiijRKNS_13Motor_ProfileE
libsane.so.1:_ZN7genesys25scanner_move_back_home_taERNS_14Genesys_DeviceE
libsane.so.1:_ZN7genesys25scanner_read_print_statusERNS_14Genesys_DeviceE
libsane.so.1:_ZN7genesys26ImagePipelineNodeCalibrate17get_next_row_dataEPh
libsane.so.1:_ZN7genesys26ImagePipelineNodeCalibrateC1ERNS_17ImagePipelineNodeERKSt6vectorItSaItEES7_
libsane.so.1:_ZN7genesys26ImagePipelineNodeCalibrateC2ERNS_17ImagePipelineNodeERKSt6vectorItSaItEES7_
libsane.so.1:_ZN7genesys26ImagePipelineNodeDesegment17get_next_row_dataEPh
libsane.so.1:_ZN7genesys26ImagePipelineNodeDesegmentC1ERNS_17ImagePipelineNodeEmRKSt6vectorIjSaIjEEmmm
libsane.so.1:_ZN7genesys26ImagePipelineNodeDesegmentC1ERNS_17ImagePipelineNodeEmmmmm
libsane.so.1:_ZN7genesys26ImagePipelineNodeDesegmentC2ERNS_17ImagePipelineNodeEmRKSt6vectorIjSaIjEEmmm
libsane.so.1:_ZN7genesys26ImagePipelineNodeDesegmentC2ERNS_17ImagePipelineNodeEmmmmm
libsane.so.1:_ZN7genesys26ImagePipelineNodeScaleRows17get_next_row_dataEPh
libsane.so.1:_ZN7genesys26ImagePipelineNodeScaleRowsC1ERNS_17ImagePipelineNodeEm
libsane.so.1:_ZN7genesys26ImagePipelineNodeScaleRowsC2ERNS_17ImagePipelineNodeEm
libsane.so.1:_ZN7genesys26create_slope_table_fastestENS_8AsicTypeEjRKNS_13Motor_ProfileE
libsane.so.1:_ZN7genesys26genesys_init_sensor_tablesEv
libsane.so.1:_ZN7genesys26sanei_genesys_init_cmd_setEPNS_14Genesys_DeviceE
libsane.so.1:_ZN7genesys26sanei_genesys_init_structsEPNS_14Genesys_DeviceE
libsane.so.1:_ZN7genesys26sanei_genesys_read_scancntEPNS_14Genesys_DeviceEPj
libsane.so.1:_ZN7genesys26wait_until_has_valid_wordsEPNS_14Genesys_DeviceE
libsane.so.1:_ZN7genesys27sanei_genesys_wait_for_homeEPNS_14Genesys_DeviceE
libsane.so.1:_ZN7genesys27scanner_stop_action_no_moveERNS_14Genesys_DeviceERNS_20Genesys_Register_SetE
libsane.so.1:_ZN7genesys27wait_until_buffer_non_emptyEPNS_14Genesys_DeviceEb
libsane.so.1:_ZN7genesys28ImagePipelineNodeArraySource17get_next_row_dataEPh
libsane.so.1:_ZN7genesys28ImagePipelineNodeArraySourceC1EmmNS_11PixelFormatESt6vectorIhSaIhEE
libsane.so.1:_ZN7genesys28ImagePipelineNodeArraySourceC2EmmNS_11PixelFormatESt6vectorIhSaIhEE
libsane.so.1:_ZN7genesys28ImagePipelineNodeBytesSource23consume_remaining_bytesEm
libsane.so.1:_ZN7genesys28ImagePipelineNodeImageSource17get_next_row_dataEPh
libsane.so.1:_ZN7genesys28ImagePipelineNodeImageSourceC1ERKNS_5ImageE
libsane.so.1:_ZN7genesys28ImagePipelineNodeImageSourceC2ERKNS_5ImageE
libsane.so.1:_ZN7genesys28apply_reg_settings_to_deviceERNS_14Genesys_DeviceERKNS_18RegisterSettingSetIhEE
libsane.so.1:_ZN7genesys28compute_session_buffer_sizesENS_8AsicTypeERNS_11ScanSessionE
libsane.so.1:_ZN7genesys28genesys_init_frontend_tablesEv
libsane.so.1:_ZN7genesys28get_pixel_format_color_orderENS_11PixelFormatE
libsane.so.1:_ZN7genesys28option_string_to_scan_methodERKNSt7__cxx1112basic_stringIcSt11char_traitsIcESaIcEEE
libsane.so.1:_ZN7genesys28sanei_genesys_calculate_zmodEbjRKSt6vectorItSaItEEjjjPjS5_
libsane.so.1:_ZN7genesys28sanei_genesys_exposure_time2EPNS_14Genesys_DeviceEfNS_8StepTypeEii
libsane.so.1:_ZN7genesys28sanei_genesys_get_lowest_dpiEPNS_14Genesys_DeviceE
libsane.so.1:_ZN7genesys28sanei_genesys_set_lamp_powerEPNS_14Genesys_DeviceERKNS_14Genesys_SensorERNS_20Genesys_Register_SetEb
libsane.so.1:_ZN7genesys28sanei_genesys_write_pnm_fileEPKcPKhiiii
libsane.so.1:_ZN7genesys28sanei_genesys_write_pnm_fileEPKcRKNS_5ImageE
libsane.so.1:_ZN7genesys28scan_method_to_option_stringENS_10ScanMethodE
libsane.so.1:_ZN7genesys28scanner_read_reliable_statusERNS_14Genesys_DeviceE
libsane.so.1:_ZN7genesys29compute_frontend_gain_wolfsonEff
libsane.so.1:_ZN7genesys29compute_session_pixel_offsetsEPKNS_14Genesys_DeviceERNS_11ScanSessionERKNS_14Genesys_SensorE
libsane.so.1:_ZN7genesys29run_functions_at_backend_exitEv
libsane.so.1:_ZN7genesys29sanei_genesys_find_sensor_anyEPNS_14Genesys_DeviceE
libsane.so.1:_ZN7genesys29sanei_genesys_get_lowest_ydpiEPNS_14Genesys_DeviceE
libsane.so.1:_ZN7genesys29sanei_genesys_is_buffer_emptyEPNS_14Genesys_DeviceE
libsane.so.1:_ZN7genesys29sanei_genesys_read_feed_stepsEPNS_14Genesys_DeviceEPj
libsane.so.1:_ZN7genesys29sanei_genesys_set_motor_powerERNS_20Genesys_Register_SetEb
libsane.so.1:_ZN7genesys30ImagePipelineNodeFormatConvert17get_next_row_dataEPh
libsane.so.1:_ZN7genesys30compute_acceleration_for_stepsEjjj
libsane.so.1:_ZN7genesys30genesys_init_usb_device_tablesEv
libsane.so.1:_ZN7genesys30sanei_genesys_find_sensors_allEPNS_14Genesys_DeviceENS_10ScanMethodE
libsane.so.1:_ZN7genesys30sanei_genesys_read_valid_wordsEPNS_14Genesys_DeviceEPj
libsane.so.1:_ZN7genesys30sanei_genesys_send_gamma_tableEPNS_14Genesys_DeviceERKNS_14Genesys_SensorE
libsane.so.1:_ZN7genesys30sanei_genesys_write_pnm_file16EPKcPKtjjj
libsane.so.1:_ZN7genesys31ImagePipelineNodeCallableSource17get_next_row_dataEPh
libsane.so.1:_ZN7genesys31ImagePipelineNodeMergeMonoLines17get_next_row_dataEPh
libsane.so.1:_ZN7genesys31ImagePipelineNodeMergeMonoLines17get_output_formatENS_11PixelFormatENS_10ColorOrderE
libsane.so.1:_ZN7genesys31ImagePipelineNodeMergeMonoLinesC1ERNS_17ImagePipelineNodeENS_10ColorOrderE
libsane.so.1:_ZN7genesys31ImagePipelineNodeMergeMonoLinesC2ERNS_17ImagePipelineNodeENS_10ColorOrderE
libsane.so.1:_ZN7genesys31ImagePipelineNodeSplitMonoLines17get_next_row_dataEPh
libsane.so.1:_ZN7genesys31ImagePipelineNodeSplitMonoLines17get_output_formatENS_11PixelFormatE
libsane.so.1:_ZN7genesys31ImagePipelineNodeSplitMonoLinesC1ERNS_17ImagePipelineNodeE
libsane.so.1:_ZN7genesys31ImagePipelineNodeSplitMonoLinesC2ERNS_17ImagePipelineNodeE
libsane.so.1:_ZN7genesys31get_testing_checkpoint_callbackB5cxx11Ev
libsane.so.1:_ZN7genesys31sane_get_option_descriptor_implEPvi
libsane.so.1:_ZN7genesys31sanei_genesys_get_bulk_max_sizeENS_8AsicTypeE
libsane.so.1:_ZN7genesys31sanei_genesys_get_motor_profileERKSt6vectorINS_13Motor_ProfileESaIS1_EENS_7MotorIdEi
libsane.so.1:_ZN7genesys31sanei_genesys_init_shading_dataEPNS_14Genesys_DeviceERKNS_14Genesys_SensorEi
libsane.so.1:_ZN7genesys32ImagePipelineNodePixelShiftLines17get_next_row_dataEPh
libsane.so.1:_ZN7genesys32ImagePipelineNodePixelShiftLinesC1ERNS_17ImagePipelineNodeERKSt6vectorImSaImEE
libsane.so.1:_ZN7genesys32ImagePipelineNodePixelShiftLinesC2ERNS_17ImagePipelineNodeERKSt6vectorImSaImEE
libsane.so.1:_ZN7genesys32ImagePipelineNodeSwap16BitEndian17get_next_row_dataEPh
libsane.so.1:_ZN7genesys32ImagePipelineNodeSwap16BitEndianC1ERNS_17ImagePipelineNodeE
libsane.so.1:_ZN7genesys32ImagePipelineNodeSwap16BitEndianC2ERNS_17ImagePipelineNodeE
libsane.so.1:_ZN7genesys32option_string_to_scan_color_modeERKNSt7__cxx1112basic_stringIcSt11char_traitsIcESaIcEEE
libsane.so.1:_ZN7genesys32sanei_genesys_create_gamma_tableERSt6vectorItSaItEEifff
libsane.so.1:_ZN7genesys32sanei_genesys_set_buffer_addressEPNS_14Genesys_DeviceEj
libsane.so.1:_ZN7genesys32scan_color_mode_to_option_stringENS_13ScanColorModeE
libsane.so.1:_ZN7genesys33genesys_init_motor_profile_tablesEv
libsane.so.1:_ZN7genesys33sanei_genesys_create_slope_table3ENS_8AsicTypeERKNS_13Genesys_MotorENS_8StepTypeEij
libsane.so.1:_ZN7genesys34ImagePipelineNodeDeinterleaveLinesC1ERNS_17ImagePipelineNodeEmm
libsane.so.1:_ZN7genesys34ImagePipelineNodeDeinterleaveLinesC2ERNS_17ImagePipelineNodeEmm
libsane.so.1:_ZN7genesys34read_unshuffled_image_from_scannerEPNS_14Genesys_DeviceERKNS_11ScanSessionEm
libsane.so.1:_ZN7genesys34scanner_clear_scan_and_feed_countsERNS_14Genesys_DeviceE
libsane.so.1:_ZN7genesys35ImagePipelineNodeBufferedGenesysUsb17get_next_row_dataEPh
libsane.so.1:_ZN7genesys35ImagePipelineNodeBufferedGenesysUsbC1EmmNS_11PixelFormatEmRKNS_15FakeBufferModelESt8functionIFvmPhEE
libsane.so.1:_ZN7genesys35ImagePipelineNodeBufferedGenesysUsbC2EmmNS_11PixelFormatEmRKNS_15FakeBufferModelESt8functionIFvmPhEE
libsane.so.1:_ZN7genesys35add_function_to_run_at_backend_exitERKSt8functionIFvvEE
libsane.so.1:_ZN7genesys35sanei_genesys_find_sensor_for_writeEPNS_14Genesys_DeviceEjjNS_10ScanMethodE
libsane.so.1:_ZN7genesys35sanei_genesys_generate_gamma_bufferEPNS_14Genesys_DeviceERKNS_14Genesys_SensorEiiiPh
libsane.so.1:_ZN7genesys35scanner_clear_scan_and_feed_counts2ERNS_14Genesys_DeviceE
libsane.so.1:_ZN7genesys36ImagePipelineNodeComponentShiftLines17get_next_row_dataEPh
libsane.so.1:_ZN7genesys36ImagePipelineNodeComponentShiftLinesC1ERNS_17ImagePipelineNodeEjjj
libsane.so.1:_ZN7genesys36ImagePipelineNodeComponentShiftLinesC2ERNS_17ImagePipelineNodeEjjj
libsane.so.1:_ZN7genesys36compute_frontend_gain_analog_devicesEff
libsane.so.1:_ZN7genesys36sanei_genesys_read_data_from_scannerEPNS_14Genesys_DeviceEPhm
libsane.so.1:_ZN7genesys36sanei_genesys_search_reference_pointEPNS_14Genesys_DeviceERNS_14Genesys_SensorEPKhiiii
libsane.so.1:_ZN7genesys39ImagePipelineNodeBufferedCallableSource17get_next_row_dataEPh
libsane.so.1:_ZN7genesys39ImagePipelineNodeBufferedCallableSourceC1EmmNS_11PixelFormatEmSt8functionIFbmPhEE
libsane.so.1:_ZN7genesys39ImagePipelineNodeBufferedCallableSourceC2EmmNS_11PixelFormatEmSt8functionIFbmPhEE
libsane.so.1:_ZN7genesys39genesys_init_motor_profile_tables_gl124Ev
libsane.so.1:_ZN7genesys39genesys_init_motor_profile_tables_gl843Ev
libsane.so.1:_ZN7genesys39genesys_init_motor_profile_tables_gl846Ev
libsane.so.1:_ZN7genesys39genesys_init_motor_profile_tables_gl847Ev
libsane.so.1:_ZN7genesys39sanei_genesys_is_compatible_calibrationEPNS_14Genesys_DeviceERKNS_11ScanSessionEPKNS_25Genesys_Calibration_CacheEb
libsane.so.1:_ZN7genesys40is_supported_write_pnm_file_image_formatENS_11PixelFormatE
libsane.so.1:_ZN7genesys40sanei_genesys_create_default_gamma_tableEPNS_14Genesys_DeviceERSt6vectorItSaItEEf
libsane.so.1:_ZN7genesys40sanei_genesys_find_sensors_all_for_writeEPNS_14Genesys_DeviceENS_10ScanMethodE
libsane.so.1:_ZN7genesys5Image11get_row_ptrEm
libsane.so.1:_ZN7genesys5Image13set_raw_pixelEmmRKNS_8RawPixelE
libsane.so.1:_ZN7genesys5Image6resizeEmmNS_11PixelFormatE
libsane.so.1:_ZN7genesys5Image9set_pixelEmmRKNS_5PixelE
libsane.so.1:_ZN7genesys5ImageC1EmmNS_11PixelFormatE
libsane.so.1:_ZN7genesys5ImageC1Ev
libsane.so.1:_ZN7genesys5ImageC2EmmNS_11PixelFormatE
libsane.so.1:_ZN7genesys5ImageC2Ev
libsane.so.1:_ZN7genesys5gl12420create_gl124_cmd_setEv
libsane.so.1:_ZN7genesys5gl12421gl124_setup_scan_gpioEPNS_14Genesys_DeviceEi
libsane.so.1:_ZN7genesys5gl64620create_gl646_cmd_setEv
libsane.so.1:_ZN7genesys5gl84120create_gl841_cmd_setEv
libsane.so.1:_ZN7genesys5gl84320create_gl843_cmd_setEv
libsane.so.1:_ZN7genesys5gl84325gl843_set_xpa_motor_powerEPNS_14Genesys_DeviceERNS_20Genesys_Register_SetEb
libsane.so.1:_ZN7genesys5gl84620create_gl846_cmd_setEv
libsane.so.1:_ZN7genesys5gl84720create_gl847_cmd_setEv
libsane.so.1:_ZN7genesys5s_gpoE
libsane.so.1:_ZN7genesys8s_motorsE
libsane.so.1:_ZN7genesys9UsbDevice10bulk_writeEPKhPm
libsane.so.1:_ZN7genesys9UsbDevice10clear_haltEv
libsane.so.1:_ZN7genesys9UsbDevice11control_msgEiiiiiPh
libsane.so.1:_ZN7genesys9UsbDevice12set_not_openEv
libsane.so.1:_ZN7genesys9UsbDevice18get_vendor_productERiS1_
libsane.so.1:_ZN7genesys9UsbDevice4openEPKc
libsane.so.1:_ZN7genesys9UsbDevice5closeEv
libsane.so.1:_ZN7genesys9UsbDevice5resetEv
libsane.so.1:_ZN7genesys9UsbDevice9bulk_readEPhPm
libsane.so.1:_ZN7genesys9UsbDeviceD0Ev
libsane.so.1:_ZN7genesys9UsbDeviceD1Ev
libsane.so.1:_ZN7genesys9UsbDeviceD2Ev
libsane.so.1:_ZN7genesys9s_sensorsE
libsane.so.1:_ZN7genesyslsERSoNS_11ColorFilterE
libsane.so.1:_ZN7genesyslsERSoNS_6StatusE
libsane.so.1:_ZN7genesyslsERSoNS_8ScanFlagE
libsane.so.1:_ZN7genesyslsERSoNS_8StepTypeE
libsane.so.1:_ZN7genesyslsERSoRK15SANE_Parameters
libsane.so.1:_ZN7genesyslsERSoRKNS_10MotorSlopeE
libsane.so.1:_ZN7genesyslsERSoRKNS_11ScanSessionE
libsane.so.1:_ZN7genesyslsERSoRKNS_11SetupParamsE
libsane.so.1:_ZN7genesyslsERSoRKNS_12FrontendTypeE
libsane.so.1:_ZN7genesyslsERSoRKNS_13Genesys_MotorE
libsane.so.1:_ZN7genesyslsERSoRKNS_13StaggerConfigE
libsane.so.1:_ZN7genesyslsERSoRKNS_14Genesys_DeviceE
libsane.so.1:_ZN7genesyslsERSoRKNS_14Genesys_SensorE
libsane.so.1:_ZN7genesyslsERSoRKNS_14SensorExposureE
libsane.so.1:_ZN7genesyslsERSoRKNS_16Genesys_FrontendE
libsane.so.1:_ZN7genesyslsERSoRKNS_16Genesys_SettingsE
libsane.so.1:_ZN7genesyslsERSoRKNS_16ResolutionFilterE
libsane.so.1:_ZN7genesyslsERSoRKNS_21GenesysFrontendLayoutE
libsane.so.1:_ZNK7genesys10MotorSlope22get_table_step_shiftedEjNS_8StepTypeE
libsane.so.1:_ZNK7genesys13Genesys_Model15get_resolutionsENS_10ScanMethodE
libsane.so.1:_ZNK7genesys13Genesys_Model23get_resolution_settingsENS_10ScanMethodE
libsane.so.1:_ZNK7genesys13SaneException4whatEv
libsane.so.1:_ZNK7genesys13SaneException6statusEv
libsane.so.1:_ZNK7genesys13TestUsbDevice14assert_is_openEv
libsane.so.1:_ZNK7genesys14Genesys_Device17is_head_pos_knownENS_10ScanHeadIdE
libsane.so.1:_ZNK7genesys14Genesys_Device8head_posENS_10ScanHeadIdE
libsane.so.1:_ZNK7genesys15FakeBufferModel15available_spaceEv
libsane.so.1:_ZNK7genesys17MethodResolutions15get_resolutionsEv
libsane.so.1:_ZNK7genesys18ImagePipelineStack15get_input_widthEv
libsane.so.1:_ZNK7genesys18ImagePipelineStack16get_input_formatEv
libsane.so.1:_ZNK7genesys18ImagePipelineStack16get_input_heightEv
libsane.so.1:_ZNK7genesys18ImagePipelineStack16get_output_widthEv
libsane.so.1:_ZNK7genesys18ImagePipelineStack17get_output_formatEv
libsane.so.1:_ZNK7genesys18ImagePipelineStack17get_output_heightEv
libsane.so.1:_ZNK7genesys18ImagePipelineStack18ensure_node_existsEv
libsane.so.1:_ZNK7genesys18ImagePipelineStack19get_input_row_bytesEv
libsane.so.1:_ZNK7genesys18ImagePipelineStack20get_output_row_bytesEv
libsane.so.1:_ZNK7genesys19ScannerInterfaceUsb7is_mockEv
libsane.so.1:_ZNK7genesys20TestScannerInterface21last_progress_messageB5cxx11Ev
libsane.so.1:_ZNK7genesys20TestScannerInterface7is_mockEv
libsane.so.1:_ZNK7genesys5Image11get_row_ptrEm
libsane.so.1:_ZNK7genesys5Image13get_raw_pixelEmm
libsane.so.1:_ZNK7genesys5Image15get_raw_channelEmmj
libsane.so.1:_ZNK7genesys5Image9get_pixelEmm
libsane.so.1:_ZNK7genesys5gl12415CommandSetGl12410begin_scanEPNS_14Genesys_DeviceERKNS_14Genesys_SensorEPNS_20Genesys_Register_SetEb
libsane.so.1:_ZNK7genesys5gl12415CommandSetGl12410move_to_taEPNS_14Genesys_DeviceE
libsane.so.1:_ZNK7genesys5gl12415CommandSetGl12410save_powerEPNS_14Genesys_DeviceEb
libsane.so.1:_ZNK7genesys5gl12415CommandSetGl12412search_stripEPNS_14Genesys_DeviceERKNS_14Genesys_SensorEbb
libsane.so.1:_ZNK7genesys5gl12415CommandSetGl12413load_documentEPNS_14Genesys_DeviceE
libsane.so.1:_ZNK7genesys5gl12415CommandSetGl12414eject_documentEPNS_14Genesys_DeviceE
libsane.so.1:_ZNK7genesys5gl12415CommandSetGl12414move_back_homeEPNS_14Genesys_DeviceEb
libsane.so.1:_ZNK7genesys5gl12415CommandSetGl12415led_calibrationEPNS_14Genesys_DeviceERKNS_14Genesys_SensorERNS_20Genesys_Register_SetE
libsane.so.1:_ZNK7genesys5gl12415CommandSetGl12415set_powersavingEPNS_14Genesys_DeviceEi
libsane.so.1:_ZNK7genesys5gl12415CommandSetGl12416send_gamma_tableEPNS_14Genesys_DeviceERKNS_14Genesys_SensorE
libsane.so.1:_ZNK7genesys5gl12415CommandSetGl12417send_shading_dataEPNS_14Genesys_DeviceERKNS_14Genesys_SensorEPhi
libsane.so.1:_ZNK7genesys5gl12415CommandSetGl12418init_regs_for_scanEPNS_14Genesys_DeviceERKNS_14Genesys_SensorE
libsane.so.1:_ZNK7genesys5gl12415CommandSetGl12418offset_calibrationEPNS_14Genesys_DeviceERKNS_14Genesys_SensorERNS_20Genesys_Register_SetE
libsane.so.1:_ZNK7genesys5gl12415CommandSetGl12419detect_document_endEPNS_14Genesys_DeviceE
libsane.so.1:_ZNK7genesys5gl12415CommandSetGl12419wait_for_motor_stopEPNS_14Genesys_DeviceE
libsane.so.1:_ZNK7genesys5gl12415CommandSetGl12420init_regs_for_warmupEPNS_14Genesys_DeviceERKNS_14Genesys_SensorEPNS_20Genesys_Register_SetEPiS9_
libsane.so.1:_ZNK7genesys5gl12415CommandSetGl12421init_regs_for_shadingEPNS_14Genesys_DeviceERKNS_14Genesys_SensorERNS_20Genesys_Register_SetE
libsane.so.1:_ZNK7genesys5gl12415CommandSetGl12421search_start_positionEPNS_14Genesys_DeviceE
libsane.so.1:_ZNK7genesys5gl12415CommandSetGl12422calculate_scan_sessionEPKNS_14Genesys_DeviceERKNS_14Genesys_SensorERKNS_16Genesys_SettingsE
libsane.so.1:_ZNK7genesys5gl12415CommandSetGl12423coarse_gain_calibrationEPNS_14Genesys_DeviceERKNS_14Genesys_SensorERNS_20Genesys_Register_SetEi
libsane.so.1:_ZNK7genesys5gl12415CommandSetGl12423update_hardware_sensorsEPNS_15Genesys_ScannerE
libsane.so.1:_ZNK7genesys5gl12415CommandSetGl12423update_home_sensor_gpioERNS_14Genesys_DeviceE
libsane.so.1:_ZNK7genesys5gl12415CommandSetGl12426init_regs_for_scan_sessionEPNS_14Genesys_DeviceERKNS_14Genesys_SensorEPNS_20Genesys_Register_SetERKNS_11ScanSessionE
libsane.so.1:_ZNK7genesys5gl12415CommandSetGl12432init_regs_for_coarse_calibrationEPNS_14Genesys_DeviceERKNS_14Genesys_SensorERNS_20Genesys_Register_SetE
libsane.so.1:_ZNK7genesys5gl12415CommandSetGl12436needs_home_before_init_regs_for_scanEPNS_14Genesys_DeviceE
libsane.so.1:_ZNK7genesys5gl12415CommandSetGl1244initEPNS_14Genesys_DeviceE
libsane.so.1:_ZNK7genesys5gl12415CommandSetGl1246set_feEPNS_14Genesys_DeviceERKNS_14Genesys_SensorEh
libsane.so.1:_ZNK7genesys5gl12415CommandSetGl1248end_scanEPNS_14Genesys_DeviceEPNS_20Genesys_Register_SetEb
libsane.so.1:_ZNK7genesys5gl12415CommandSetGl1249asic_bootEPNS_14Genesys_DeviceEb
libsane.so.1:_ZNK7genesys5gl64615CommandSetGl64610begin_scanEPNS_14Genesys_DeviceERKNS_14Genesys_SensorEPNS_20Genesys_Register_SetEb
libsane.so.1:_ZNK7genesys5gl64615CommandSetGl64610move_to_taEPNS_14Genesys_DeviceE
libsane.so.1:_ZNK7genesys5gl64615CommandSetGl64610save_powerEPNS_14Genesys_DeviceEb
libsane.so.1:_ZNK7genesys5gl64615CommandSetGl64612search_stripEPNS_14Genesys_DeviceERKNS_14Genesys_SensorEbb
libsane.so.1:_ZNK7genesys5gl64615CommandSetGl64613load_documentEPNS_14Genesys_DeviceE
libsane.so.1:_ZNK7genesys5gl64615CommandSetGl64614eject_documentEPNS_14Genesys_DeviceE
libsane.so.1:_ZNK7genesys5gl64615CommandSetGl64614move_back_homeEPNS_14Genesys_DeviceEb
libsane.so.1:_ZNK7genesys5gl64615CommandSetGl64615led_calibrationEPNS_14Genesys_DeviceERKNS_14Genesys_SensorERNS_20Genesys_Register_SetE
libsane.so.1:_ZNK7genesys5gl64615CommandSetGl64615set_powersavingEPNS_14Genesys_DeviceEi
libsane.so.1:_ZNK7genesys5gl64615CommandSetGl64616send_gamma_tableEPNS_14Genesys_DeviceERKNS_14Genesys_SensorE
libsane.so.1:_ZNK7genesys5gl64615CommandSetGl64617send_shading_dataEPNS_14Genesys_DeviceERKNS_14Genesys_SensorEPhi
libsane.so.1:_ZNK7genesys5gl64615CommandSetGl64618init_regs_for_scanEPNS_14Genesys_DeviceERKNS_14Genesys_SensorE
libsane.so.1:_ZNK7genesys5gl64615CommandSetGl64618offset_calibrationEPNS_14Genesys_DeviceERKNS_14Genesys_SensorERNS_20Genesys_Register_SetE
libsane.so.1:_ZNK7genesys5gl64615CommandSetGl64619detect_document_endEPNS_14Genesys_DeviceE
libsane.so.1:_ZNK7genesys5gl64615CommandSetGl64619wait_for_motor_stopEPNS_14Genesys_DeviceE
libsane.so.1:_ZNK7genesys5gl64615CommandSetGl64620init_regs_for_warmupEPNS_14Genesys_DeviceERKNS_14Genesys_SensorEPNS_20Genesys_Register_SetEPiS9_
libsane.so.1:_ZNK7genesys5gl64615CommandSetGl64621init_regs_for_shadingEPNS_14Genesys_DeviceERKNS_14Genesys_SensorERNS_20Genesys_Register_SetE
libsane.so.1:_ZNK7genesys5gl64615CommandSetGl64621search_start_positionEPNS_14Genesys_DeviceE
libsane.so.1:_ZNK7genesys5gl64615CommandSetGl64622calculate_scan_sessionEPKNS_14Genesys_DeviceERKNS_14Genesys_SensorERKNS_16Genesys_SettingsE
libsane.so.1:_ZNK7genesys5gl64615CommandSetGl64623coarse_gain_calibrationEPNS_14Genesys_DeviceERKNS_14Genesys_SensorERNS_20Genesys_Register_SetEi
libsane.so.1:_ZNK7genesys5gl64615CommandSetGl64623update_hardware_sensorsEPNS_15Genesys_ScannerE
libsane.so.1:_ZNK7genesys5gl64615CommandSetGl64626init_regs_for_scan_sessionEPNS_14Genesys_DeviceERKNS_14Genesys_SensorEPNS_20Genesys_Register_SetERKNS_11ScanSessionE
libsane.so.1:_ZNK7genesys5gl64615CommandSetGl64632init_regs_for_coarse_calibrationEPNS_14Genesys_DeviceERKNS_14Genesys_SensorERNS_20Genesys_Register_SetE
libsane.so.1:_ZNK7genesys5gl64615CommandSetGl64636needs_home_before_init_regs_for_scanEPNS_14Genesys_DeviceE
libsane.so.1:_ZNK7genesys5gl64615CommandSetGl6464initEPNS_14Genesys_DeviceE
libsane.so.1:_ZNK7genesys5gl64615CommandSetGl6466set_feEPNS_14Genesys_DeviceERKNS_14Genesys_SensorEh
libsane.so.1:_ZNK7genesys5gl64615CommandSetGl6468end_scanEPNS_14Genesys_DeviceEPNS_20Genesys_Register_SetEb
libsane.so.1:_ZNK7genesys5gl64615CommandSetGl6469asic_bootEPNS_14Genesys_DeviceEb
libsane.so.1:_ZNK7genesys5gl84115CommandSetGl84110begin_scanEPNS_14Genesys_DeviceERKNS_14Genesys_SensorEPNS_20Genesys_Register_SetEb
libsane.so.1:_ZNK7genesys5gl84115CommandSetGl84110move_to_taEPNS_14Genesys_DeviceE
libsane.so.1:_ZNK7genesys5gl84115CommandSetGl84110save_powerEPNS_14Genesys_DeviceEb
libsane.so.1:_ZNK7genesys5gl84115CommandSetGl84112search_stripEPNS_14Genesys_DeviceERKNS_14Genesys_SensorEbb
libsane.so.1:_ZNK7genesys5gl84115CommandSetGl84113load_documentEPNS_14Genesys_DeviceE
libsane.so.1:_ZNK7genesys5gl84115CommandSetGl84114eject_documentEPNS_14Genesys_DeviceE
libsane.so.1:_ZNK7genesys5gl84115CommandSetGl84114move_back_homeEPNS_14Genesys_DeviceEb
libsane.so.1:_ZNK7genesys5gl84115CommandSetGl84115led_calibrationEPNS_14Genesys_DeviceERKNS_14Genesys_SensorERNS_20Genesys_Register_SetE
libsane.so.1:_ZNK7genesys5gl84115CommandSetGl84115set_powersavingEPNS_14Genesys_DeviceEi
libsane.so.1:_ZNK7genesys5gl84115CommandSetGl84116send_gamma_tableEPNS_14Genesys_DeviceERKNS_14Genesys_SensorE
libsane.so.1:_ZNK7genesys5gl84115CommandSetGl84117send_shading_dataEPNS_14Genesys_DeviceERKNS_14Genesys_SensorEPhi
libsane.so.1:_ZNK7genesys5gl84115CommandSetGl84118init_regs_for_scanEPNS_14Genesys_DeviceERKNS_14Genesys_SensorE
libsane.so.1:_ZNK7genesys5gl84115CommandSetGl84118offset_calibrationEPNS_14Genesys_DeviceERKNS_14Genesys_SensorERNS_20Genesys_Register_SetE
libsane.so.1:_ZNK7genesys5gl84115CommandSetGl84119detect_document_endEPNS_14Genesys_DeviceE
libsane.so.1:_ZNK7genesys5gl84115CommandSetGl84119wait_for_motor_stopEPNS_14Genesys_DeviceE
libsane.so.1:_ZNK7genesys5gl84115CommandSetGl84120init_regs_for_warmupEPNS_14Genesys_DeviceERKNS_14Genesys_SensorEPNS_20Genesys_Register_SetEPiS9_
libsane.so.1:_ZNK7genesys5gl84115CommandSetGl84121init_regs_for_shadingEPNS_14Genesys_DeviceERKNS_14Genesys_SensorERNS_20Genesys_Register_SetE
libsane.so.1:_ZNK7genesys5gl84115CommandSetGl84121search_start_positionEPNS_14Genesys_DeviceE
libsane.so.1:_ZNK7genesys5gl84115CommandSetGl84122calculate_scan_sessionEPKNS_14Genesys_DeviceERKNS_14Genesys_SensorERKNS_16Genesys_SettingsE
libsane.so.1:_ZNK7genesys5gl84115CommandSetGl84123coarse_gain_calibrationEPNS_14Genesys_DeviceERKNS_14Genesys_SensorERNS_20Genesys_Register_SetEi
libsane.so.1:_ZNK7genesys5gl84115CommandSetGl84123update_hardware_sensorsEPNS_15Genesys_ScannerE
libsane.so.1:_ZNK7genesys5gl84115CommandSetGl84126init_regs_for_scan_sessionEPNS_14Genesys_DeviceERKNS_14Genesys_SensorEPNS_20Genesys_Register_SetERKNS_11ScanSessionE
libsane.so.1:_ZNK7genesys5gl84115CommandSetGl84132init_regs_for_coarse_calibrationEPNS_14Genesys_DeviceERKNS_14Genesys_SensorERNS_20Genesys_Register_SetE
libsane.so.1:_ZNK7genesys5gl84115CommandSetGl84136needs_home_before_init_regs_for_scanEPNS_14Genesys_DeviceE
libsane.so.1:_ZNK7genesys5gl84115CommandSetGl8414initEPNS_14Genesys_DeviceE
libsane.so.1:_ZNK7genesys5gl84115CommandSetGl8416set_feEPNS_14Genesys_DeviceERKNS_14Genesys_SensorEh
libsane.so.1:_ZNK7genesys5gl84115CommandSetGl8418end_scanEPNS_14Genesys_DeviceEPNS_20Genesys_Register_SetEb
libsane.so.1:_ZNK7genesys5gl84115CommandSetGl8419asic_bootEPNS_14Genesys_DeviceEb
libsane.so.1:_ZNK7genesys5gl84315CommandSetGl84310begin_scanEPNS_14Genesys_DeviceERKNS_14Genesys_SensorEPNS_20Genesys_Register_SetEb
libsane.so.1:_ZNK7genesys5gl84315CommandSetGl84310move_to_taEPNS_14Genesys_DeviceE
libsane.so.1:_ZNK7genesys5gl84315CommandSetGl84310save_powerEPNS_14Genesys_DeviceEb
libsane.so.1:_ZNK7genesys5gl84315CommandSetGl84312search_stripEPNS_14Genesys_DeviceERKNS_14Genesys_SensorEbb
libsane.so.1:_ZNK7genesys5gl84315CommandSetGl84313load_documentEPNS_14Genesys_DeviceE
libsane.so.1:_ZNK7genesys5gl84315CommandSetGl84314eject_documentEPNS_14Genesys_DeviceE
libsane.so.1:_ZNK7genesys5gl84315CommandSetGl84314move_back_homeEPNS_14Genesys_DeviceEb
libsane.so.1:_ZNK7genesys5gl84315CommandSetGl84315led_calibrationEPNS_14Genesys_DeviceERKNS_14Genesys_SensorERNS_20Genesys_Register_SetE
libsane.so.1:_ZNK7genesys5gl84315CommandSetGl84315set_powersavingEPNS_14Genesys_DeviceEi
libsane.so.1:_ZNK7genesys5gl84315CommandSetGl84316send_gamma_tableEPNS_14Genesys_DeviceERKNS_14Genesys_SensorE
libsane.so.1:_ZNK7genesys5gl84315CommandSetGl84317send_shading_dataEPNS_14Genesys_DeviceERKNS_14Genesys_SensorEPhi
libsane.so.1:_ZNK7genesys5gl84315CommandSetGl84318init_regs_for_scanEPNS_14Genesys_DeviceERKNS_14Genesys_SensorE
libsane.so.1:_ZNK7genesys5gl84315CommandSetGl84318offset_calibrationEPNS_14Genesys_DeviceERKNS_14Genesys_SensorERNS_20Genesys_Register_SetE
libsane.so.1:_ZNK7genesys5gl84315CommandSetGl84319detect_document_endEPNS_14Genesys_DeviceE
libsane.so.1:_ZNK7genesys5gl84315CommandSetGl84319wait_for_motor_stopEPNS_14Genesys_DeviceE
libsane.so.1:_ZNK7genesys5gl84315CommandSetGl84320init_regs_for_warmupEPNS_14Genesys_DeviceERKNS_14Genesys_SensorEPNS_20Genesys_Register_SetEPiS9_
libsane.so.1:_ZNK7genesys5gl84315CommandSetGl84321init_regs_for_shadingEPNS_14Genesys_DeviceERKNS_14Genesys_SensorERNS_20Genesys_Register_SetE
libsane.so.1:_ZNK7genesys5gl84315CommandSetGl84321search_start_positionEPNS_14Genesys_DeviceE
libsane.so.1:_ZNK7genesys5gl84315CommandSetGl84322calculate_scan_sessionEPKNS_14Genesys_DeviceERKNS_14Genesys_SensorERKNS_16Genesys_SettingsE
libsane.so.1:_ZNK7genesys5gl84315CommandSetGl84323coarse_gain_calibrationEPNS_14Genesys_DeviceERKNS_14Genesys_SensorERNS_20Genesys_Register_SetEi
libsane.so.1:_ZNK7genesys5gl84315CommandSetGl84323update_hardware_sensorsEPNS_15Genesys_ScannerE
libsane.so.1:_ZNK7genesys5gl84315CommandSetGl84326init_regs_for_scan_sessionEPNS_14Genesys_DeviceERKNS_14Genesys_SensorEPNS_20Genesys_Register_SetERKNS_11ScanSessionE
libsane.so.1:_ZNK7genesys5gl84315CommandSetGl84332init_regs_for_coarse_calibrationEPNS_14Genesys_DeviceERKNS_14Genesys_SensorERNS_20Genesys_Register_SetE
libsane.so.1:_ZNK7genesys5gl84315CommandSetGl84336needs_home_before_init_regs_for_scanEPNS_14Genesys_DeviceE
libsane.so.1:_ZNK7genesys5gl84315CommandSetGl8434initEPNS_14Genesys_DeviceE
libsane.so.1:_ZNK7genesys5gl84315CommandSetGl8436set_feEPNS_14Genesys_DeviceERKNS_14Genesys_SensorEh
libsane.so.1:_ZNK7genesys5gl84315CommandSetGl8438end_scanEPNS_14Genesys_DeviceEPNS_20Genesys_Register_SetEb
libsane.so.1:_ZNK7genesys5gl84315CommandSetGl8439asic_bootEPNS_14Genesys_DeviceEb
libsane.so.1:_ZNK7genesys5gl84615CommandSetGl84610begin_scanEPNS_14Genesys_DeviceERKNS_14Genesys_SensorEPNS_20Genesys_Register_SetEb
libsane.so.1:_ZNK7genesys5gl84615CommandSetGl84610move_to_taEPNS_14Genesys_DeviceE
libsane.so.1:_ZNK7genesys5gl84615CommandSetGl84610save_powerEPNS_14Genesys_DeviceEb
libsane.so.1:_ZNK7genesys5gl84615CommandSetGl84612search_stripEPNS_14Genesys_DeviceERKNS_14Genesys_SensorEbb
libsane.so.1:_ZNK7genesys5gl84615CommandSetGl84613load_documentEPNS_14Genesys_DeviceE
libsane.so.1:_ZNK7genesys5gl84615CommandSetGl84614eject_documentEPNS_14Genesys_DeviceE
libsane.so.1:_ZNK7genesys5gl84615CommandSetGl84614move_back_homeEPNS_14Genesys_DeviceEb
libsane.so.1:_ZNK7genesys5gl84615CommandSetGl84615led_calibrationEPNS_14Genesys_DeviceERKNS_14Genesys_SensorERNS_20Genesys_Register_SetE
libsane.so.1:_ZNK7genesys5gl84615CommandSetGl84615set_powersavingEPNS_14Genesys_DeviceEi
libsane.so.1:_ZNK7genesys5gl84615CommandSetGl84616send_gamma_tableEPNS_14Genesys_DeviceERKNS_14Genesys_SensorE
libsane.so.1:_ZNK7genesys5gl84615CommandSetGl84617send_shading_dataEPNS_14Genesys_DeviceERKNS_14Genesys_SensorEPhi
libsane.so.1:_ZNK7genesys5gl84615CommandSetGl84618init_regs_for_scanEPNS_14Genesys_DeviceERKNS_14Genesys_SensorE
libsane.so.1:_ZNK7genesys5gl84615CommandSetGl84618offset_calibrationEPNS_14Genesys_DeviceERKNS_14Genesys_SensorERNS_20Genesys_Register_SetE
libsane.so.1:_ZNK7genesys5gl84615CommandSetGl84619detect_document_endEPNS_14Genesys_DeviceE
libsane.so.1:_ZNK7genesys5gl84615CommandSetGl84619wait_for_motor_stopEPNS_14Genesys_DeviceE
libsane.so.1:_ZNK7genesys5gl84615CommandSetGl84620init_regs_for_warmupEPNS_14Genesys_DeviceERKNS_14Genesys_SensorEPNS_20Genesys_Register_SetEPiS9_
libsane.so.1:_ZNK7genesys5gl84615CommandSetGl84621init_regs_for_shadingEPNS_14Genesys_DeviceERKNS_14Genesys_SensorERNS_20Genesys_Register_SetE
libsane.so.1:_ZNK7genesys5gl84615CommandSetGl84621search_start_positionEPNS_14Genesys_DeviceE
libsane.so.1:_ZNK7genesys5gl84615CommandSetGl84622calculate_scan_sessionEPKNS_14Genesys_DeviceERKNS_14Genesys_SensorERKNS_16Genesys_SettingsE
libsane.so.1:_ZNK7genesys5gl84615CommandSetGl84623coarse_gain_calibrationEPNS_14Genesys_DeviceERKNS_14Genesys_SensorERNS_20Genesys_Register_SetEi
libsane.so.1:_ZNK7genesys5gl84615CommandSetGl84623update_hardware_sensorsEPNS_15Genesys_ScannerE
libsane.so.1:_ZNK7genesys5gl84615CommandSetGl84623update_home_sensor_gpioERNS_14Genesys_DeviceE
libsane.so.1:_ZNK7genesys5gl84615CommandSetGl84626init_regs_for_scan_sessionEPNS_14Genesys_DeviceERKNS_14Genesys_SensorEPNS_20Genesys_Register_SetERKNS_11ScanSessionE
libsane.so.1:_ZNK7genesys5gl84615CommandSetGl84632init_regs_for_coarse_calibrationEPNS_14Genesys_DeviceERKNS_14Genesys_SensorERNS_20Genesys_Register_SetE
libsane.so.1:_ZNK7genesys5gl84615CommandSetGl84636needs_home_before_init_regs_for_scanEPNS_14Genesys_DeviceE
libsane.so.1:_ZNK7genesys5gl84615CommandSetGl8464initEPNS_14Genesys_DeviceE
libsane.so.1:_ZNK7genesys5gl84615CommandSetGl8466set_feEPNS_14Genesys_DeviceERKNS_14Genesys_SensorEh
libsane.so.1:_ZNK7genesys5gl84615CommandSetGl8468end_scanEPNS_14Genesys_DeviceEPNS_20Genesys_Register_SetEb
libsane.so.1:_ZNK7genesys5gl84615CommandSetGl8469asic_bootEPNS_14Genesys_DeviceEb
libsane.so.1:_ZNK7genesys5gl84715CommandSetGl84710begin_scanEPNS_14Genesys_DeviceERKNS_14Genesys_SensorEPNS_20Genesys_Register_SetEb
libsane.so.1:_ZNK7genesys5gl84715CommandSetGl84710move_to_taEPNS_14Genesys_DeviceE
libsane.so.1:_ZNK7genesys5gl84715CommandSetGl84710save_powerEPNS_14Genesys_DeviceEb
libsane.so.1:_ZNK7genesys5gl84715CommandSetGl84712search_stripEPNS_14Genesys_DeviceERKNS_14Genesys_SensorEbb
libsane.so.1:_ZNK7genesys5gl84715CommandSetGl84713load_documentEPNS_14Genesys_DeviceE
libsane.so.1:_ZNK7genesys5gl84715CommandSetGl84714eject_documentEPNS_14Genesys_DeviceE
libsane.so.1:_ZNK7genesys5gl84715CommandSetGl84714move_back_homeEPNS_14Genesys_DeviceEb
libsane.so.1:_ZNK7genesys5gl84715CommandSetGl84715led_calibrationEPNS_14Genesys_DeviceERKNS_14Genesys_SensorERNS_20Genesys_Register_SetE
libsane.so.1:_ZNK7genesys5gl84715CommandSetGl84715set_powersavingEPNS_14Genesys_DeviceEi
libsane.so.1:_ZNK7genesys5gl84715CommandSetGl84716send_gamma_tableEPNS_14Genesys_DeviceERKNS_14Genesys_SensorE
libsane.so.1:_ZNK7genesys5gl84715CommandSetGl84717send_shading_dataEPNS_14Genesys_DeviceERKNS_14Genesys_SensorEPhi
libsane.so.1:_ZNK7genesys5gl84715CommandSetGl84718init_regs_for_scanEPNS_14Genesys_DeviceERKNS_14Genesys_SensorE
libsane.so.1:_ZNK7genesys5gl84715CommandSetGl84718offset_calibrationEPNS_14Genesys_DeviceERKNS_14Genesys_SensorERNS_20Genesys_Register_SetE
libsane.so.1:_ZNK7genesys5gl84715CommandSetGl84719detect_document_endEPNS_14Genesys_DeviceE
libsane.so.1:_ZNK7genesys5gl84715CommandSetGl84719wait_for_motor_stopEPNS_14Genesys_DeviceE
libsane.so.1:_ZNK7genesys5gl84715CommandSetGl84720init_regs_for_warmupEPNS_14Genesys_DeviceERKNS_14Genesys_SensorEPNS_20Genesys_Register_SetEPiS9_
libsane.so.1:_ZNK7genesys5gl84715CommandSetGl84721init_regs_for_shadingEPNS_14Genesys_DeviceERKNS_14Genesys_SensorERNS_20Genesys_Register_SetE
libsane.so.1:_ZNK7genesys5gl84715CommandSetGl84721search_start_positionEPNS_14Genesys_DeviceE
libsane.so.1:_ZNK7genesys5gl84715CommandSetGl84722calculate_scan_sessionEPKNS_14Genesys_DeviceERKNS_14Genesys_SensorERKNS_16Genesys_SettingsE
libsane.so.1:_ZNK7genesys5gl84715CommandSetGl84723coarse_gain_calibrationEPNS_14Genesys_DeviceERKNS_14Genesys_SensorERNS_20Genesys_Register_SetEi
libsane.so.1:_ZNK7genesys5gl84715CommandSetGl84723update_hardware_sensorsEPNS_15Genesys_ScannerE
libsane.so.1:_ZNK7genesys5gl84715CommandSetGl84723update_home_sensor_gpioERNS_14Genesys_DeviceE
libsane.so.1:_ZNK7genesys5gl84715CommandSetGl84726init_regs_for_scan_sessionEPNS_14Genesys_DeviceERKNS_14Genesys_SensorEPNS_20Genesys_Register_SetERKNS_11ScanSessionE
libsane.so.1:_ZNK7genesys5gl84715CommandSetGl84732init_regs_for_coarse_calibrationEPNS_14Genesys_DeviceERKNS_14Genesys_SensorERNS_20Genesys_Register_SetE
libsane.so.1:_ZNK7genesys5gl84715CommandSetGl84736needs_home_before_init_regs_for_scanEPNS_14Genesys_DeviceE
libsane.so.1:_ZNK7genesys5gl84715CommandSetGl8474initEPNS_14Genesys_DeviceE
libsane.so.1:_ZNK7genesys5gl84715CommandSetGl8476set_feEPNS_14Genesys_DeviceERKNS_14Genesys_SensorEh
libsane.so.1:_ZNK7genesys5gl84715CommandSetGl8478end_scanEPNS_14Genesys_DeviceEPNS_20Genesys_Register_SetEb
libsane.so.1:_ZNK7genesys5gl84715CommandSetGl8479asic_bootEPNS_14Genesys_DeviceEb
libsane.so.1:_ZNK7genesys9UsbDevice14assert_is_openEv
libsane.so.1:acccurvecount
libsane.so.1:add_timeout_to_uri
libsane.so.1:arrangeline
libsane.so.1:arrangeline2
libsane.so.1:attach
libsane.so.1:auto_binarization
libsane.so.1:auto_separation
libsane.so.1:available_transports
libsane.so.1:binarythresholdh
libsane.so.1:binarythresholdl
libsane.so.1:bjnp_protocol_defs
libsane.so.1:buffer_crop
libsane.so.1:buffer_deskew
libsane.so.1:buffer_despeck
libsane.so.1:buffer_isblank
libsane.so.1:buffer_rotate
libsane.so.1:bw_threshold
libsane.so.1:bytesperline
libsane.so.1:calibdata
libsane.so.1:camera
libsane.so.1:cmparray
libsane.so.1:cmsg
libsane.so.1:compression
libsane.so.1:dataline_count
libsane.so.1:debug_options
libsane.so.1:deccurvecount
libsane.so.1:default_gain_offset
libsane.so.1:dir_buf2
libsane.so.1:dir_list
libsane.so.1:e2_ack
libsane.so.1:e2_ack_next
libsane.so.1:e2_add_depth
libsane.so.1:e2_add_resolution
libsane.so.1:e2_block_read
libsane.so.1:e2_cancel
libsane.so.1:e2_check_adf
libsane.so.1:e2_check_warm_up
libsane.so.1:e2_cmd_info_block
libsane.so.1:e2_cmd_simple
libsane.so.1:e2_copy_image_data
libsane.so.1:e2_dev_init
libsane.so.1:e2_dev_model
libsane.so.1:e2_dev_post_init
libsane.so.1:e2_discover_capabilities
libsane.so.1:e2_esc_cmd
libsane.so.1:e2_ext_read
libsane.so.1:e2_init_parameters
libsane.so.1:e2_recv
libsane.so.1:e2_recv_info_block
libsane.so.1:e2_scan_finish
libsane.so.1:e2_send
libsane.so.1:e2_set_adf_area
libsane.so.1:e2_set_cmd_level
libsane.so.1:e2_set_extended_scanning_parameters
libsane.so.1:e2_set_fbf_area
libsane.so.1:e2_set_model
libsane.so.1:e2_set_scanning_parameters
libsane.so.1:e2_set_tpu2_area
libsane.so.1:e2_set_tpu_area
libsane.so.1:e2_setup_block_mode
libsane.so.1:e2_start_ext_scan
libsane.so.1:e2_start_std_scan
libsane.so.1:e2_txrx
libsane.so.1:e2_wait_button
libsane.so.1:e2_wait_warm_up
libsane.so.1:eds_add_depth
libsane.so.1:eds_add_resolution
libsane.so.1:eds_control
libsane.so.1:eds_copy_image_from_ring
libsane.so.1:eds_dev_init
libsane.so.1:eds_dev_post_init
libsane.so.1:eds_fsx
libsane.so.1:eds_fsy
libsane.so.1:eds_init_parameters
libsane.so.1:eds_is_model
libsane.so.1:eds_jpeg_finish
libsane.so.1:eds_jpeg_read
libsane.so.1:eds_jpeg_read_header
libsane.so.1:eds_jpeg_start
libsane.so.1:eds_lock
libsane.so.1:eds_recv
libsane.so.1:eds_ring_avail
libsane.so.1:eds_ring_flush
libsane.so.1:eds_ring_init
libsane.so.1:eds_ring_read
libsane.so.1:eds_ring_skip
libsane.so.1:eds_ring_write
libsane.so.1:eds_send
libsane.so.1:eds_set_adf_area
libsane.so.1:eds_set_fbf_area
libsane.so.1:eds_set_resolution_range
libsane.so.1:eds_set_tpu_area
libsane.so.1:eds_txrx
libsane.so.1:encTmpFileName
libsane.so.1:epson_cct_models
libsane.so.1:epson_cct_profiles
libsane.so.1:epsonds_get_number_of_ids
libsane.so.1:epsonds_net_lock
libsane.so.1:epsonds_net_read
libsane.so.1:epsonds_net_request_read
libsane.so.1:epsonds_net_unlock
libsane.so.1:epsonds_net_write
libsane.so.1:epsonds_usb_product_ids
libsane.so.1:esci2_can
libsane.so.1:esci2_capa
libsane.so.1:esci2_fin
libsane.so.1:esci2_img
libsane.so.1:esci2_info
libsane.so.1:esci2_mech
libsane.so.1:esci2_para
libsane.so.1:esci2_resa
libsane.so.1:esci2_stat
libsane.so.1:esci2_trdt
libsane.so.1:esci_eject
libsane.so.1:esci_enable_infrared
libsane.so.1:esci_feed
libsane.so.1:esci_get_scanning_parameter
libsane.so.1:esci_request_command_parameter
libsane.so.1:esci_request_extended_identity
libsane.so.1:esci_request_extended_status
libsane.so.1:esci_request_focus_position
libsane.so.1:esci_request_identity
libsane.so.1:esci_request_identity2
libsane.so.1:esci_request_push_button_status
libsane.so.1:esci_request_scanner_status
libsane.so.1:esci_request_status
libsane.so.1:esci_reset
libsane.so.1:esci_set_color_correction_coefficients
libsane.so.1:esci_set_gamma_table
libsane.so.1:esci_set_resolution
libsane.so.1:esci_set_scan_area
libsane.so.1:esci_set_scanning_parameter
libsane.so.1:esci_set_zoom
libsane.so.1:fail_test
libsane.so.1:fixed_black_shading
libsane.so.1:fixed_white_shading
libsane.so.1:g_devices
libsane.so.1:g_devlist
libsane.so.1:gain
libsane.so.1:gamma_params
libsane.so.1:get_adjust_data
libsane.so.1:get_buffer_status
libsane.so.1:get_optval_list
libsane.so.1:global_firmware_filename
libsane.so.1:global_has_cal_buffer
libsane.so.1:global_lines_per_block
libsane.so.1:grayfilter
libsane.so.1:halftone
libsane.so.1:halftone_params
libsane.so.1:hexdump
libsane.so.1:hopper_down
libsane.so.1:hp_gamma
libsane.so.1:imageheight
libsane.so.1:imagesize
libsane.so.1:imagewidth3
libsane.so.1:inquiry
libsane.so.1:jkd_black
libsane.so.1:jkd_blackbpl
libsane.so.1:kodakaio_com_str
libsane.so.1:kv_already_open
libsane.so.1:kv_calc_paper_size
libsane.so.1:kv_close
libsane.so.1:kv_control_option
libsane.so.1:kv_enum_devices
libsane.so.1:kv_exit
libsane.so.1:kv_get_depth
libsane.so.1:kv_get_devices_list
libsane.so.1:kv_get_mode
libsane.so.1:kv_get_option_descriptor
libsane.so.1:kv_init_options
libsane.so.1:kv_open
libsane.so.1:kv_open_by_name
libsane.so.1:kv_send_command
libsane.so.1:kv_set_window_data
libsane.so.1:kv_usb_already_open
libsane.so.1:kv_usb_cleanup
libsane.so.1:kv_usb_close
libsane.so.1:kv_usb_enum_devices
libsane.so.1:kv_usb_escape
libsane.so.1:kv_usb_open
libsane.so.1:kv_usb_send_command
libsane.so.1:kvs20xx_document_exist
libsane.so.1:kvs20xx_init_options
libsane.so.1:kvs20xx_init_window
libsane.so.1:kvs20xx_read_image_data
libsane.so.1:kvs20xx_read_picture_element
libsane.so.1:kvs20xx_reset_window
libsane.so.1:kvs20xx_scan
libsane.so.1:kvs20xx_sense_handler
libsane.so.1:kvs20xx_set_timeout
libsane.so.1:kvs20xx_set_window
libsane.so.1:kvs20xx_test_unit_ready
libsane.so.1:kvs40xx_document_exist
libsane.so.1:kvs40xx_init_options
libsane.so.1:kvs40xx_init_window
libsane.so.1:kvs40xx_read_image_data
libsane.so.1:kvs40xx_read_picture_element
libsane.so.1:kvs40xx_reset_window
libsane.so.1:kvs40xx_scan
libsane.so.1:kvs40xx_sense_handler
libsane.so.1:kvs40xx_set_timeout
libsane.so.1:kvs40xx_set_window
libsane.so.1:kvs40xx_test_unit_ready
libsane.so.1:line_size
libsane.so.1:lineart_width
libsane.so.1:linedarlampoff
libsane.so.1:little_endian
libsane.so.1:md5_buffer
libsane.so.1:md5_finish_ctx
libsane.so.1:md5_init_ctx
libsane.so.1:md5_process_block
libsane.so.1:md5_process_bytes
libsane.so.1:md5_read_ctx
libsane.so.1:md5_stream
libsane.so.1:mem_total
libsane.so.1:mitabla2
libsane.so.1:mode_params
libsane.so.1:noisematrix
libsane.so.1:numVersions
libsane.so.1:offset
libsane.so.1:paddingtype
libsane.so.1:pieusb_definition_list_head
libsane.so.1:pieusb_supported_usb_device
libsane.so.1:pieusb_supported_usb_device_list
libsane.so.1:pixeldarklevel
libsane.so.1:pixma_activate
libsane.so.1:pixma_activate_connection
libsane.so.1:pixma_binarize_line
libsane.so.1:pixma_deactivate
libsane.so.1:pixma_deactivate_connection
libsane.so.1:pixma_r_to_ir
libsane.so.1:pixma_rgb_to_gray
libsane.so.1:pl
libsane.so.1:posix_dlsym
libsane.so.1:pwmlamplevel
libsane.so.1:r_cmd_count
libsane.so.1:read_button_pressed
libsane.so.1:read_doc_in_adf_value
libsane.so.1:read_lcd_and_led_values
libsane.so.1:read_support_info
libsane.so.1:read_v15b4
libsane.so.1:ret_cancel
libsane.so.1:sane_abaton_cancel
libsane.so.1:sane_abaton_close
libsane.so.1:sane_abaton_control_option
libsane.so.1:sane_abaton_exit
libsane.so.1:sane_abaton_get_devices
libsane.so.1:sane_abaton_get_option_descriptor
libsane.so.1:sane_abaton_get_parameters
libsane.so.1:sane_abaton_get_select_fd
libsane.so.1:sane_abaton_init
libsane.so.1:sane_abaton_open
libsane.so.1:sane_abaton_read
libsane.so.1:sane_abaton_set_io_mode
libsane.so.1:sane_abaton_start
libsane.so.1:sane_agfafocus_cancel
libsane.so.1:sane_agfafocus_close
libsane.so.1:sane_agfafocus_control_option
libsane.so.1:sane_agfafocus_exit
libsane.so.1:sane_agfafocus_get_devices
libsane.so.1:sane_agfafocus_get_option_descriptor
libsane.so.1:sane_agfafocus_get_parameters
libsane.so.1:sane_agfafocus_get_select_fd
libsane.so.1:sane_agfafocus_init
libsane.so.1:sane_agfafocus_open
libsane.so.1:sane_agfafocus_read
libsane.so.1:sane_agfafocus_set_io_mode
libsane.so.1:sane_agfafocus_start
libsane.so.1:sane_apple_cancel
libsane.so.1:sane_apple_close
libsane.so.1:sane_apple_control_option
libsane.so.1:sane_apple_exit
libsane.so.1:sane_apple_get_devices
libsane.so.1:sane_apple_get_option_descriptor
libsane.so.1:sane_apple_get_parameters
libsane.so.1:sane_apple_get_select_fd
libsane.so.1:sane_apple_init
libsane.so.1:sane_apple_open
libsane.so.1:sane_apple_read
libsane.so.1:sane_apple_set_io_mode
libsane.so.1:sane_apple_start
libsane.so.1:sane_artec_cancel
libsane.so.1:sane_artec_close
libsane.so.1:sane_artec_control_option
libsane.so.1:sane_artec_eplus48u_cancel
libsane.so.1:sane_artec_eplus48u_close
libsane.so.1:sane_artec_eplus48u_control_option
libsane.so.1:sane_artec_eplus48u_exit
libsane.so.1:sane_artec_eplus48u_get_devices
libsane.so.1:sane_artec_eplus48u_get_option_descriptor
libsane.so.1:sane_artec_eplus48u_get_parameters
libsane.so.1:sane_artec_eplus48u_get_select_fd
libsane.so.1:sane_artec_eplus48u_init
libsane.so.1:sane_artec_eplus48u_open
libsane.so.1:sane_artec_eplus48u_read
libsane.so.1:sane_artec_eplus48u_set_io_mode
libsane.so.1:sane_artec_eplus48u_start
libsane.so.1:sane_artec_exit
libsane.so.1:sane_artec_get_devices
libsane.so.1:sane_artec_get_option_descriptor
libsane.so.1:sane_artec_get_parameters
libsane.so.1:sane_artec_get_select_fd
libsane.so.1:sane_artec_init
libsane.so.1:sane_artec_open
libsane.so.1:sane_artec_read
libsane.so.1:sane_artec_set_io_mode
libsane.so.1:sane_artec_start
libsane.so.1:sane_as6e_cancel
libsane.so.1:sane_as6e_close
libsane.so.1:sane_as6e_control_option
libsane.so.1:sane_as6e_exit
libsane.so.1:sane_as6e_get_devices
libsane.so.1:sane_as6e_get_option_descriptor
libsane.so.1:sane_as6e_get_parameters
libsane.so.1:sane_as6e_get_select_fd
libsane.so.1:sane_as6e_init
libsane.so.1:sane_as6e_open
libsane.so.1:sane_as6e_read
libsane.so.1:sane_as6e_set_io_mode
libsane.so.1:sane_as6e_start
libsane.so.1:sane_auth
libsane.so.1:sane_auto_eject
libsane.so.1:sane_avision_cancel
libsane.so.1:sane_avision_close
libsane.so.1:sane_avision_control_option
libsane.so.1:sane_avision_exit
libsane.so.1:sane_avision_get_devices
libsane.so.1:sane_avision_get_option_descriptor
libsane.so.1:sane_avision_get_parameters
libsane.so.1:sane_avision_get_select_fd
libsane.so.1:sane_avision_init
libsane.so.1:sane_avision_open
libsane.so.1:sane_avision_read
libsane.so.1:sane_avision_set_io_mode
libsane.so.1:sane_avision_start
libsane.so.1:sane_bh_cancel
libsane.so.1:sane_bh_close
libsane.so.1:sane_bh_control_option
libsane.so.1:sane_bh_exit
libsane.so.1:sane_bh_get_devices
libsane.so.1:sane_bh_get_option_descriptor
libsane.so.1:sane_bh_get_parameters
libsane.so.1:sane_bh_get_select_fd
libsane.so.1:sane_bh_init
libsane.so.1:sane_bh_open
libsane.so.1:sane_bh_read
libsane.so.1:sane_bh_set_io_mode
libsane.so.1:sane_bh_start
libsane.so.1:sane_cancel
libsane.so.1:sane_canon630u_cancel
libsane.so.1:sane_canon630u_close
libsane.so.1:sane_canon630u_control_option
libsane.so.1:sane_canon630u_exit
libsane.so.1:sane_canon630u_get_devices
libsane.so.1:sane_canon630u_get_option_descriptor
libsane.so.1:sane_canon630u_get_parameters
libsane.so.1:sane_canon630u_get_select_fd
libsane.so.1:sane_canon630u_init
libsane.so.1:sane_canon630u_open
libsane.so.1:sane_canon630u_read
libsane.so.1:sane_canon630u_set_io_mode
libsane.so.1:sane_canon630u_start
libsane.so.1:sane_canon_cancel
libsane.so.1:sane_canon_close
libsane.so.1:sane_canon_control_option
libsane.so.1:sane_canon_dr_cancel
libsane.so.1:sane_canon_dr_close
libsane.so.1:sane_canon_dr_control_option
libsane.so.1:sane_canon_dr_exit
libsane.so.1:sane_canon_dr_get_devices
libsane.so.1:sane_canon_dr_get_option_descriptor
libsane.so.1:sane_canon_dr_get_parameters
libsane.so.1:sane_canon_dr_get_select_fd
libsane.so.1:sane_canon_dr_init
libsane.so.1:sane_canon_dr_open
libsane.so.1:sane_canon_dr_read
libsane.so.1:sane_canon_dr_set_io_mode
libsane.so.1:sane_canon_dr_start
libsane.so.1:sane_canon_exit
libsane.so.1:sane_canon_get_devices
libsane.so.1:sane_canon_get_option_descriptor
libsane.so.1:sane_canon_get_parameters
libsane.so.1:sane_canon_get_select_fd
libsane.so.1:sane_canon_init
libsane.so.1:sane_canon_open
libsane.so.1:sane_canon_pp_cancel
libsane.so.1:sane_canon_pp_close
libsane.so.1:sane_canon_pp_control_option
libsane.so.1:sane_canon_pp_exit
libsane.so.1:sane_canon_pp_get_devices
libsane.so.1:sane_canon_pp_get_option_descriptor
libsane.so.1:sane_canon_pp_get_parameters
libsane.so.1:sane_canon_pp_get_select_fd
libsane.so.1:sane_canon_pp_init
libsane.so.1:sane_canon_pp_open
libsane.so.1:sane_canon_pp_read
libsane.so.1:sane_canon_pp_set_io_mode
libsane.so.1:sane_canon_pp_start
libsane.so.1:sane_canon_read
libsane.so.1:sane_canon_set_io_mode
libsane.so.1:sane_canon_start
libsane.so.1:sane_cardscan_cancel
libsane.so.1:sane_cardscan_close
libsane.so.1:sane_cardscan_control_option
libsane.so.1:sane_cardscan_exit
libsane.so.1:sane_cardscan_get_devices
libsane.so.1:sane_cardscan_get_option_descriptor
libsane.so.1:sane_cardscan_get_parameters
libsane.so.1:sane_cardscan_get_select_fd
libsane.so.1:sane_cardscan_init
libsane.so.1:sane_cardscan_open
libsane.so.1:sane_cardscan_read
libsane.so.1:sane_cardscan_set_io_mode
libsane.so.1:sane_cardscan_start
libsane.so.1:sane_close
libsane.so.1:sane_control_option
libsane.so.1:sane_coolscan2_cancel
libsane.so.1:sane_coolscan2_close
libsane.so.1:sane_coolscan2_control_option
libsane.so.1:sane_coolscan2_exit
libsane.so.1:sane_coolscan2_get_devices
libsane.so.1:sane_coolscan2_get_option_descriptor
libsane.so.1:sane_coolscan2_get_parameters
libsane.so.1:sane_coolscan2_get_select_fd
libsane.so.1:sane_coolscan2_init
libsane.so.1:sane_coolscan2_open
libsane.so.1:sane_coolscan2_read
libsane.so.1:sane_coolscan2_set_io_mode
libsane.so.1:sane_coolscan2_start
libsane.so.1:sane_coolscan3_cancel
libsane.so.1:sane_coolscan3_close
libsane.so.1:sane_coolscan3_control_option
libsane.so.1:sane_coolscan3_exit
libsane.so.1:sane_coolscan3_get_devices
libsane.so.1:sane_coolscan3_get_option_descriptor
libsane.so.1:sane_coolscan3_get_parameters
libsane.so.1:sane_coolscan3_get_select_fd
libsane.so.1:sane_coolscan3_init
libsane.so.1:sane_coolscan3_open
libsane.so.1:sane_coolscan3_read
libsane.so.1:sane_coolscan3_set_io_mode
libsane.so.1:sane_coolscan3_start
libsane.so.1:sane_coolscan_cancel
libsane.so.1:sane_coolscan_close
libsane.so.1:sane_coolscan_control_option
libsane.so.1:sane_coolscan_exit
libsane.so.1:sane_coolscan_get_devices
libsane.so.1:sane_coolscan_get_option_descriptor
libsane.so.1:sane_coolscan_get_parameters
libsane.so.1:sane_coolscan_get_select_fd
libsane.so.1:sane_coolscan_init
libsane.so.1:sane_coolscan_open
libsane.so.1:sane_coolscan_read
libsane.so.1:sane_coolscan_set_io_mode
libsane.so.1:sane_coolscan_start
libsane.so.1:sane_dc210_cancel
libsane.so.1:sane_dc210_close
libsane.so.1:sane_dc210_control_option
libsane.so.1:sane_dc210_exit
libsane.so.1:sane_dc210_get_devices
libsane.so.1:sane_dc210_get_option_descriptor
libsane.so.1:sane_dc210_get_parameters
libsane.so.1:sane_dc210_get_select_fd
libsane.so.1:sane_dc210_init
libsane.so.1:sane_dc210_open
libsane.so.1:sane_dc210_read
libsane.so.1:sane_dc210_set_io_mode
libsane.so.1:sane_dc210_start
libsane.so.1:sane_dc240_cancel
libsane.so.1:sane_dc240_close
libsane.so.1:sane_dc240_control_option
libsane.so.1:sane_dc240_exit
libsane.so.1:sane_dc240_get_devices
libsane.so.1:sane_dc240_get_option_descriptor
libsane.so.1:sane_dc240_get_parameters
libsane.so.1:sane_dc240_get_select_fd
libsane.so.1:sane_dc240_init
libsane.so.1:sane_dc240_open
libsane.so.1:sane_dc240_read
libsane.so.1:sane_dc240_set_io_mode
libsane.so.1:sane_dc240_start
libsane.so.1:sane_dc25_cancel
libsane.so.1:sane_dc25_close
libsane.so.1:sane_dc25_control_option
libsane.so.1:sane_dc25_exit
libsane.so.1:sane_dc25_get_devices
libsane.so.1:sane_dc25_get_option_descriptor
libsane.so.1:sane_dc25_get_parameters
libsane.so.1:sane_dc25_get_select_fd
libsane.so.1:sane_dc25_init
libsane.so.1:sane_dc25_open
libsane.so.1:sane_dc25_read
libsane.so.1:sane_dc25_set_io_mode
libsane.so.1:sane_dc25_start
libsane.so.1:sane_dell1600n_net_cancel
libsane.so.1:sane_dell1600n_net_close
libsane.so.1:sane_dell1600n_net_control_option
libsane.so.1:sane_dell1600n_net_exit
libsane.so.1:sane_dell1600n_net_get_devices
libsane.so.1:sane_dell1600n_net_get_option_descriptor
libsane.so.1:sane_dell1600n_net_get_parameters
libsane.so.1:sane_dell1600n_net_get_select_fd
libsane.so.1:sane_dell1600n_net_init
libsane.so.1:sane_dell1600n_net_open
libsane.so.1:sane_dell1600n_net_read
libsane.so.1:sane_dell1600n_net_set_io_mode
libsane.so.1:sane_dell1600n_net_start
libsane.so.1:sane_dll_cancel
libsane.so.1:sane_dll_close
libsane.so.1:sane_dll_control_option
libsane.so.1:sane_dll_exit
libsane.so.1:sane_dll_get_devices
libsane.so.1:sane_dll_get_option_descriptor
libsane.so.1:sane_dll_get_parameters
libsane.so.1:sane_dll_get_select_fd
libsane.so.1:sane_dll_init
libsane.so.1:sane_dll_open
libsane.so.1:sane_dll_read
libsane.so.1:sane_dll_set_io_mode
libsane.so.1:sane_dll_start
libsane.so.1:sane_dmc_cancel
libsane.so.1:sane_dmc_close
libsane.so.1:sane_dmc_control_option
libsane.so.1:sane_dmc_exit
libsane.so.1:sane_dmc_get_devices
libsane.so.1:sane_dmc_get_option_descriptor
libsane.so.1:sane_dmc_get_parameters
libsane.so.1:sane_dmc_get_select_fd
libsane.so.1:sane_dmc_init
libsane.so.1:sane_dmc_open
libsane.so.1:sane_dmc_read
libsane.so.1:sane_dmc_set_io_mode
libsane.so.1:sane_dmc_start
libsane.so.1:sane_epjitsu_cancel
libsane.so.1:sane_epjitsu_close
libsane.so.1:sane_epjitsu_control_option
libsane.so.1:sane_epjitsu_exit
libsane.so.1:sane_epjitsu_get_devices
libsane.so.1:sane_epjitsu_get_option_descriptor
libsane.so.1:sane_epjitsu_get_parameters
libsane.so.1:sane_epjitsu_get_select_fd
libsane.so.1:sane_epjitsu_init
libsane.so.1:sane_epjitsu_open
libsane.so.1:sane_epjitsu_read
libsane.so.1:sane_epjitsu_set_io_mode
libsane.so.1:sane_epjitsu_start
libsane.so.1:sane_epson2_cancel
libsane.so.1:sane_epson2_close
libsane.so.1:sane_epson2_control_option
libsane.so.1:sane_epson2_exit
libsane.so.1:sane_epson2_get_devices
libsane.so.1:sane_epson2_get_option_descriptor
libsane.so.1:sane_epson2_get_parameters
libsane.so.1:sane_epson2_get_select_fd
libsane.so.1:sane_epson2_init
libsane.so.1:sane_epson2_open
libsane.so.1:sane_epson2_read
libsane.so.1:sane_epson2_set_io_mode
libsane.so.1:sane_epson2_start
libsane.so.1:sane_epson_cancel
libsane.so.1:sane_epson_close
libsane.so.1:sane_epson_control_option
libsane.so.1:sane_epson_exit
libsane.so.1:sane_epson_get_devices
libsane.so.1:sane_epson_get_option_descriptor
libsane.so.1:sane_epson_get_parameters
libsane.so.1:sane_epson_get_select_fd
libsane.so.1:sane_epson_init
libsane.so.1:sane_epson_open
libsane.so.1:sane_epson_read
libsane.so.1:sane_epson_set_io_mode
libsane.so.1:sane_epson_start
libsane.so.1:sane_epsonds_cancel
libsane.so.1:sane_epsonds_close
libsane.so.1:sane_epsonds_control_option
libsane.so.1:sane_epsonds_exit
libsane.so.1:sane_epsonds_get_devices
libsane.so.1:sane_epsonds_get_option_descriptor
libsane.so.1:sane_epsonds_get_parameters
libsane.so.1:sane_epsonds_get_select_fd
libsane.so.1:sane_epsonds_init
libsane.so.1:sane_epsonds_open
libsane.so.1:sane_epsonds_read
libsane.so.1:sane_epsonds_set_io_mode
libsane.so.1:sane_epsonds_start
libsane.so.1:sane_exit
libsane.so.1:sane_fujitsu_cancel
libsane.so.1:sane_fujitsu_close
libsane.so.1:sane_fujitsu_control_option
libsane.so.1:sane_fujitsu_exit
libsane.so.1:sane_fujitsu_get_devices
libsane.so.1:sane_fujitsu_get_option_descriptor
libsane.so.1:sane_fujitsu_get_parameters
libsane.so.1:sane_fujitsu_get_select_fd
libsane.so.1:sane_fujitsu_init
libsane.so.1:sane_fujitsu_open
libsane.so.1:sane_fujitsu_read
libsane.so.1:sane_fujitsu_set_io_mode
libsane.so.1:sane_fujitsu_start
libsane.so.1:sane_genesys_cancel
libsane.so.1:sane_genesys_close
libsane.so.1:sane_genesys_control_option
libsane.so.1:sane_genesys_exit
libsane.so.1:sane_genesys_get_devices
libsane.so.1:sane_genesys_get_option_descriptor
libsane.so.1:sane_genesys_get_parameters
libsane.so.1:sane_genesys_get_select_fd
libsane.so.1:sane_genesys_init
libsane.so.1:sane_genesys_open
libsane.so.1:sane_genesys_read
libsane.so.1:sane_genesys_set_io_mode
libsane.so.1:sane_genesys_start
libsane.so.1:sane_get_devices
libsane.so.1:sane_get_option_descriptor
libsane.so.1:sane_get_parameters
libsane.so.1:sane_get_select_fd
libsane.so.1:sane_gphoto2_cancel
libsane.so.1:sane_gphoto2_close
libsane.so.1:sane_gphoto2_control_option
libsane.so.1:sane_gphoto2_exit
libsane.so.1:sane_gphoto2_get_devices
libsane.so.1:sane_gphoto2_get_option_descriptor
libsane.so.1:sane_gphoto2_get_parameters
libsane.so.1:sane_gphoto2_get_select_fd
libsane.so.1:sane_gphoto2_init
libsane.so.1:sane_gphoto2_open
libsane.so.1:sane_gphoto2_read
libsane.so.1:sane_gphoto2_set_io_mode
libsane.so.1:sane_gphoto2_start
libsane.so.1:sane_gt68xx_cancel
libsane.so.1:sane_gt68xx_close
libsane.so.1:sane_gt68xx_control_option
libsane.so.1:sane_gt68xx_exit
libsane.so.1:sane_gt68xx_get_devices
libsane.so.1:sane_gt68xx_get_option_descriptor
libsane.so.1:sane_gt68xx_get_parameters
libsane.so.1:sane_gt68xx_get_select_fd
libsane.so.1:sane_gt68xx_init
libsane.so.1:sane_gt68xx_open
libsane.so.1:sane_gt68xx_read
libsane.so.1:sane_gt68xx_set_io_mode
libsane.so.1:sane_gt68xx_start
libsane.so.1:sane_hp3500_cancel
libsane.so.1:sane_hp3500_close
libsane.so.1:sane_hp3500_control_option
libsane.so.1:sane_hp3500_exit
libsane.so.1:sane_hp3500_get_devices
libsane.so.1:sane_hp3500_get_option_descriptor
libsane.so.1:sane_hp3500_get_parameters
libsane.so.1:sane_hp3500_get_select_fd
libsane.so.1:sane_hp3500_init
libsane.so.1:sane_hp3500_open
libsane.so.1:sane_hp3500_read
libsane.so.1:sane_hp3500_set_io_mode
libsane.so.1:sane_hp3500_start
libsane.so.1:sane_hp3900_cancel
libsane.so.1:sane_hp3900_close
libsane.so.1:sane_hp3900_control_option
libsane.so.1:sane_hp3900_exit
libsane.so.1:sane_hp3900_get_devices
libsane.so.1:sane_hp3900_get_option_descriptor
libsane.so.1:sane_hp3900_get_parameters
libsane.so.1:sane_hp3900_get_select_fd
libsane.so.1:sane_hp3900_init
libsane.so.1:sane_hp3900_open
libsane.so.1:sane_hp3900_read
libsane.so.1:sane_hp3900_set_io_mode
libsane.so.1:sane_hp3900_start
libsane.so.1:sane_hp4200_cancel
libsane.so.1:sane_hp4200_close
libsane.so.1:sane_hp4200_control_option
libsane.so.1:sane_hp4200_exit
libsane.so.1:sane_hp4200_get_devices
libsane.so.1:sane_hp4200_get_option_descriptor
libsane.so.1:sane_hp4200_get_parameters
libsane.so.1:sane_hp4200_get_select_fd
libsane.so.1:sane_hp4200_init
libsane.so.1:sane_hp4200_open
libsane.so.1:sane_hp4200_read
libsane.so.1:sane_hp4200_set_io_mode
libsane.so.1:sane_hp4200_start
libsane.so.1:sane_hp5400_cancel
libsane.so.1:sane_hp5400_close
libsane.so.1:sane_hp5400_control_option
libsane.so.1:sane_hp5400_exit
libsane.so.1:sane_hp5400_get_devices
libsane.so.1:sane_hp5400_get_option_descriptor
libsane.so.1:sane_hp5400_get_parameters
libsane.so.1:sane_hp5400_get_select_fd
libsane.so.1:sane_hp5400_init
libsane.so.1:sane_hp5400_open
libsane.so.1:sane_hp5400_read
libsane.so.1:sane_hp5400_set_io_mode
libsane.so.1:sane_hp5400_start
libsane.so.1:sane_hp5590_cancel
libsane.so.1:sane_hp5590_close
libsane.so.1:sane_hp5590_control_option
libsane.so.1:sane_hp5590_exit
libsane.so.1:sane_hp5590_get_devices
libsane.so.1:sane_hp5590_get_option_descriptor
libsane.so.1:sane_hp5590_get_parameters
libsane.so.1:sane_hp5590_get_select_fd
libsane.so.1:sane_hp5590_init
libsane.so.1:sane_hp5590_open
libsane.so.1:sane_hp5590_read
libsane.so.1:sane_hp5590_set_io_mode
libsane.so.1:sane_hp5590_start
libsane.so.1:sane_hp_cancel
libsane.so.1:sane_hp_close
libsane.so.1:sane_hp_control_option
libsane.so.1:sane_hp_exit
libsane.so.1:sane_hp_get_devices
libsane.so.1:sane_hp_get_option_descriptor
libsane.so.1:sane_hp_get_parameters
libsane.so.1:sane_hp_get_select_fd
libsane.so.1:sane_hp_init
libsane.so.1:sane_hp_open
libsane.so.1:sane_hp_read
libsane.so.1:sane_hp_set_io_mode
libsane.so.1:sane_hp_start
libsane.so.1:sane_hpljm1005_cancel
libsane.so.1:sane_hpljm1005_close
libsane.so.1:sane_hpljm1005_control_option
libsane.so.1:sane_hpljm1005_exit
libsane.so.1:sane_hpljm1005_get_devices
libsane.so.1:sane_hpljm1005_get_option_descriptor
libsane.so.1:sane_hpljm1005_get_parameters
libsane.so.1:sane_hpljm1005_get_select_fd
libsane.so.1:sane_hpljm1005_init
libsane.so.1:sane_hpljm1005_open
libsane.so.1:sane_hpljm1005_read
libsane.so.1:sane_hpljm1005_set_io_mode
libsane.so.1:sane_hpljm1005_start
libsane.so.1:sane_hpsj5s_cancel
libsane.so.1:sane_hpsj5s_close
libsane.so.1:sane_hpsj5s_control_option
libsane.so.1:sane_hpsj5s_exit
libsane.so.1:sane_hpsj5s_get_devices
libsane.so.1:sane_hpsj5s_get_option_descriptor
libsane.so.1:sane_hpsj5s_get_parameters
libsane.so.1:sane_hpsj5s_get_select_fd
libsane.so.1:sane_hpsj5s_init
libsane.so.1:sane_hpsj5s_open
libsane.so.1:sane_hpsj5s_read
libsane.so.1:sane_hpsj5s_set_io_mode
libsane.so.1:sane_hpsj5s_start
libsane.so.1:sane_hs2p_cancel
libsane.so.1:sane_hs2p_close
libsane.so.1:sane_hs2p_control_option
libsane.so.1:sane_hs2p_exit
libsane.so.1:sane_hs2p_get_devices
libsane.so.1:sane_hs2p_get_option_descriptor
libsane.so.1:sane_hs2p_get_parameters
libsane.so.1:sane_hs2p_get_select_fd
libsane.so.1:sane_hs2p_init
libsane.so.1:sane_hs2p_open
libsane.so.1:sane_hs2p_read
libsane.so.1:sane_hs2p_set_io_mode
libsane.so.1:sane_hs2p_start
libsane.so.1:sane_ibm_cancel
libsane.so.1:sane_ibm_close
libsane.so.1:sane_ibm_control_option
libsane.so.1:sane_ibm_exit
libsane.so.1:sane_ibm_get_devices
libsane.so.1:sane_ibm_get_option_descriptor
libsane.so.1:sane_ibm_get_parameters
libsane.so.1:sane_ibm_get_select_fd
libsane.so.1:sane_ibm_init
libsane.so.1:sane_ibm_open
libsane.so.1:sane_ibm_read
libsane.so.1:sane_ibm_set_io_mode
libsane.so.1:sane_ibm_start
libsane.so.1:sane_init
libsane.so.1:sane_kodak_cancel
libsane.so.1:sane_kodak_close
libsane.so.1:sane_kodak_control_option
libsane.so.1:sane_kodak_exit
libsane.so.1:sane_kodak_get_devices
libsane.so.1:sane_kodak_get_option_descriptor
libsane.so.1:sane_kodak_get_parameters
libsane.so.1:sane_kodak_get_select_fd
libsane.so.1:sane_kodak_init
libsane.so.1:sane_kodak_open
libsane.so.1:sane_kodak_read
libsane.so.1:sane_kodak_set_io_mode
libsane.so.1:sane_kodak_start
libsane.so.1:sane_kodakaio_cancel
libsane.so.1:sane_kodakaio_close
libsane.so.1:sane_kodakaio_control_option
libsane.so.1:sane_kodakaio_exit
libsane.so.1:sane_kodakaio_get_devices
libsane.so.1:sane_kodakaio_get_option_descriptor
libsane.so.1:sane_kodakaio_get_parameters
libsane.so.1:sane_kodakaio_get_select_fd
libsane.so.1:sane_kodakaio_init
libsane.so.1:sane_kodakaio_open
libsane.so.1:sane_kodakaio_read
libsane.so.1:sane_kodakaio_set_io_mode
libsane.so.1:sane_kodakaio_start
libsane.so.1:sane_kvs1025_cancel
libsane.so.1:sane_kvs1025_close
libsane.so.1:sane_kvs1025_control_option
libsane.so.1:sane_kvs1025_exit
libsane.so.1:sane_kvs1025_get_devices
libsane.so.1:sane_kvs1025_get_option_descriptor
libsane.so.1:sane_kvs1025_get_parameters
libsane.so.1:sane_kvs1025_get_select_fd
libsane.so.1:sane_kvs1025_init
libsane.so.1:sane_kvs1025_open
libsane.so.1:sane_kvs1025_read
libsane.so.1:sane_kvs1025_set_io_mode
libsane.so.1:sane_kvs1025_start
libsane.so.1:sane_kvs20xx_cancel
libsane.so.1:sane_kvs20xx_close
libsane.so.1:sane_kvs20xx_control_option
libsane.so.1:sane_kvs20xx_exit
libsane.so.1:sane_kvs20xx_get_devices
libsane.so.1:sane_kvs20xx_get_option_descriptor
libsane.so.1:sane_kvs20xx_get_parameters
libsane.so.1:sane_kvs20xx_get_select_fd
libsane.so.1:sane_kvs20xx_init
libsane.so.1:sane_kvs20xx_open
libsane.so.1:sane_kvs20xx_read
libsane.so.1:sane_kvs20xx_set_io_mode
libsane.so.1:sane_kvs20xx_start
libsane.so.1:sane_kvs40xx_cancel
libsane.so.1:sane_kvs40xx_close
libsane.so.1:sane_kvs40xx_control_option
libsane.so.1:sane_kvs40xx_exit
libsane.so.1:sane_kvs40xx_get_devices
libsane.so.1:sane_kvs40xx_get_option_descriptor
libsane.so.1:sane_kvs40xx_get_parameters
libsane.so.1:sane_kvs40xx_get_select_fd
libsane.so.1:sane_kvs40xx_init
libsane.so.1:sane_kvs40xx_open
libsane.so.1:sane_kvs40xx_read
libsane.so.1:sane_kvs40xx_set_io_mode
libsane.so.1:sane_kvs40xx_start
libsane.so.1:sane_leo_cancel
libsane.so.1:sane_leo_close
libsane.so.1:sane_leo_control_option
libsane.so.1:sane_leo_exit
libsane.so.1:sane_leo_get_devices
libsane.so.1:sane_leo_get_option_descriptor
libsane.so.1:sane_leo_get_parameters
libsane.so.1:sane_leo_get_select_fd
libsane.so.1:sane_leo_init
libsane.so.1:sane_leo_open
libsane.so.1:sane_leo_read
libsane.so.1:sane_leo_set_io_mode
libsane.so.1:sane_leo_start
libsane.so.1:sane_lexmark_cancel
libsane.so.1:sane_lexmark_close
libsane.so.1:sane_lexmark_control_option
libsane.so.1:sane_lexmark_exit
libsane.so.1:sane_lexmark_get_devices
libsane.so.1:sane_lexmark_get_option_descriptor
libsane.so.1:sane_lexmark_get_parameters
libsane.so.1:sane_lexmark_get_select_fd
libsane.so.1:sane_lexmark_init
libsane.so.1:sane_lexmark_open
libsane.so.1:sane_lexmark_read
libsane.so.1:sane_lexmark_set_io_mode
libsane.so.1:sane_lexmark_start
libsane.so.1:sane_ma1509_cancel
libsane.so.1:sane_ma1509_close
libsane.so.1:sane_ma1509_control_option
libsane.so.1:sane_ma1509_exit
libsane.so.1:sane_ma1509_get_devices
libsane.so.1:sane_ma1509_get_option_descriptor
libsane.so.1:sane_ma1509_get_parameters
libsane.so.1:sane_ma1509_get_select_fd
libsane.so.1:sane_ma1509_init
libsane.so.1:sane_ma1509_open
libsane.so.1:sane_ma1509_read
libsane.so.1:sane_ma1509_set_io_mode
libsane.so.1:sane_ma1509_start
libsane.so.1:sane_magicolor_cancel
libsane.so.1:sane_magicolor_close
libsane.so.1:sane_magicolor_control_option
libsane.so.1:sane_magicolor_exit
libsane.so.1:sane_magicolor_get_devices
libsane.so.1:sane_magicolor_get_option_descriptor
libsane.so.1:sane_magicolor_get_parameters
libsane.so.1:sane_magicolor_get_select_fd
libsane.so.1:sane_magicolor_init
libsane.so.1:sane_magicolor_open
libsane.so.1:sane_magicolor_read
libsane.so.1:sane_magicolor_set_io_mode
libsane.so.1:sane_magicolor_start
libsane.so.1:sane_matsushita_cancel
libsane.so.1:sane_matsushita_close
libsane.so.1:sane_matsushita_control_option
libsane.so.1:sane_matsushita_exit
libsane.so.1:sane_matsushita_get_devices
libsane.so.1:sane_matsushita_get_option_descriptor
libsane.so.1:sane_matsushita_get_parameters
libsane.so.1:sane_matsushita_get_select_fd
libsane.so.1:sane_matsushita_init
libsane.so.1:sane_matsushita_open
libsane.so.1:sane_matsushita_read
libsane.so.1:sane_matsushita_set_io_mode
libsane.so.1:sane_matsushita_start
libsane.so.1:sane_microtek2_cancel
libsane.so.1:sane_microtek2_close
libsane.so.1:sane_microtek2_control_option
libsane.so.1:sane_microtek2_exit
libsane.so.1:sane_microtek2_get_devices
libsane.so.1:sane_microtek2_get_option_descriptor
libsane.so.1:sane_microtek2_get_parameters
libsane.so.1:sane_microtek2_get_select_fd
libsane.so.1:sane_microtek2_init
libsane.so.1:sane_microtek2_open
libsane.so.1:sane_microtek2_read
libsane.so.1:sane_microtek2_set_io_mode
libsane.so.1:sane_microtek2_start
libsane.so.1:sane_microtek_cancel
libsane.so.1:sane_microtek_close
libsane.so.1:sane_microtek_control_option
libsane.so.1:sane_microtek_exit
libsane.so.1:sane_microtek_get_devices
libsane.so.1:sane_microtek_get_option_descriptor
libsane.so.1:sane_microtek_get_parameters
libsane.so.1:sane_microtek_get_select_fd
libsane.so.1:sane_microtek_init
libsane.so.1:sane_microtek_open
libsane.so.1:sane_microtek_read
libsane.so.1:sane_microtek_set_io_mode
libsane.so.1:sane_microtek_start
libsane.so.1:sane_mustek_cancel
libsane.so.1:sane_mustek_close
libsane.so.1:sane_mustek_control_option
libsane.so.1:sane_mustek_exit
libsane.so.1:sane_mustek_get_devices
libsane.so.1:sane_mustek_get_option_descriptor
libsane.so.1:sane_mustek_get_parameters
libsane.so.1:sane_mustek_get_select_fd
libsane.so.1:sane_mustek_init
libsane.so.1:sane_mustek_open
libsane.so.1:sane_mustek_pp_cancel
libsane.so.1:sane_mustek_pp_close
libsane.so.1:sane_mustek_pp_control_option
libsane.so.1:sane_mustek_pp_exit
libsane.so.1:sane_mustek_pp_get_devices
libsane.so.1:sane_mustek_pp_get_option_descriptor
libsane.so.1:sane_mustek_pp_get_parameters
libsane.so.1:sane_mustek_pp_get_select_fd
libsane.so.1:sane_mustek_pp_init
libsane.so.1:sane_mustek_pp_open
libsane.so.1:sane_mustek_pp_read
libsane.so.1:sane_mustek_pp_set_io_mode
libsane.so.1:sane_mustek_pp_start
libsane.so.1:sane_mustek_read
libsane.so.1:sane_mustek_set_io_mode
libsane.so.1:sane_mustek_start
libsane.so.1:sane_mustek_usb2_cancel
libsane.so.1:sane_mustek_usb2_close
libsane.so.1:sane_mustek_usb2_control_option
libsane.so.1:sane_mustek_usb2_exit
libsane.so.1:sane_mustek_usb2_get_devices
libsane.so.1:sane_mustek_usb2_get_option_descriptor
libsane.so.1:sane_mustek_usb2_get_parameters
libsane.so.1:sane_mustek_usb2_get_select_fd
libsane.so.1:sane_mustek_usb2_init
libsane.so.1:sane_mustek_usb2_open
libsane.so.1:sane_mustek_usb2_read
libsane.so.1:sane_mustek_usb2_set_io_mode
libsane.so.1:sane_mustek_usb2_start
libsane.so.1:sane_mustek_usb_cancel
libsane.so.1:sane_mustek_usb_close
libsane.so.1:sane_mustek_usb_control_option
libsane.so.1:sane_mustek_usb_exit
libsane.so.1:sane_mustek_usb_get_devices
libsane.so.1:sane_mustek_usb_get_option_descriptor
libsane.so.1:sane_mustek_usb_get_parameters
libsane.so.1:sane_mustek_usb_get_select_fd
libsane.so.1:sane_mustek_usb_init
libsane.so.1:sane_mustek_usb_open
libsane.so.1:sane_mustek_usb_read
libsane.so.1:sane_mustek_usb_set_io_mode
libsane.so.1:sane_mustek_usb_start
libsane.so.1:sane_nec_cancel
libsane.so.1:sane_nec_close
libsane.so.1:sane_nec_control_option
libsane.so.1:sane_nec_exit
libsane.so.1:sane_nec_get_devices
libsane.so.1:sane_nec_get_option_descriptor
libsane.so.1:sane_nec_get_parameters
libsane.so.1:sane_nec_get_select_fd
libsane.so.1:sane_nec_init
libsane.so.1:sane_nec_open
libsane.so.1:sane_nec_read
libsane.so.1:sane_nec_set_io_mode
libsane.so.1:sane_nec_start
libsane.so.1:sane_net_cancel
libsane.so.1:sane_net_close
libsane.so.1:sane_net_control_option
libsane.so.1:sane_net_exit
libsane.so.1:sane_net_get_devices
libsane.so.1:sane_net_get_option_descriptor
libsane.so.1:sane_net_get_parameters
libsane.so.1:sane_net_get_select_fd
libsane.so.1:sane_net_init
libsane.so.1:sane_net_open
libsane.so.1:sane_net_read
libsane.so.1:sane_net_set_io_mode
libsane.so.1:sane_net_start
libsane.so.1:sane_niash_cancel
libsane.so.1:sane_niash_close
libsane.so.1:sane_niash_control_option
libsane.so.1:sane_niash_exit
libsane.so.1:sane_niash_get_devices
libsane.so.1:sane_niash_get_option_descriptor
libsane.so.1:sane_niash_get_parameters
libsane.so.1:sane_niash_get_select_fd
libsane.so.1:sane_niash_init
libsane.so.1:sane_niash_open
libsane.so.1:sane_niash_read
libsane.so.1:sane_niash_set_io_mode
libsane.so.1:sane_niash_start
libsane.so.1:sane_open
libsane.so.1:sane_p5_cancel
libsane.so.1:sane_p5_close
libsane.so.1:sane_p5_control_option
libsane.so.1:sane_p5_exit
libsane.so.1:sane_p5_get_devices
libsane.so.1:sane_p5_get_option_descriptor
libsane.so.1:sane_p5_get_parameters
libsane.so.1:sane_p5_get_select_fd
libsane.so.1:sane_p5_init
libsane.so.1:sane_p5_open
libsane.so.1:sane_p5_read
libsane.so.1:sane_p5_set_io_mode
libsane.so.1:sane_p5_start
libsane.so.1:sane_pie_cancel
libsane.so.1:sane_pie_close
libsane.so.1:sane_pie_control_option
libsane.so.1:sane_pie_exit
libsane.so.1:sane_pie_get_devices
libsane.so.1:sane_pie_get_option_descriptor
libsane.so.1:sane_pie_get_parameters
libsane.so.1:sane_pie_get_select_fd
libsane.so.1:sane_pie_init
libsane.so.1:sane_pie_open
libsane.so.1:sane_pie_read
libsane.so.1:sane_pie_set_io_mode
libsane.so.1:sane_pie_start
libsane.so.1:sane_pieusb_cancel
libsane.so.1:sane_pieusb_close
libsane.so.1:sane_pieusb_control_option
libsane.so.1:sane_pieusb_exit
libsane.so.1:sane_pieusb_get_devices
libsane.so.1:sane_pieusb_get_option_descriptor
libsane.so.1:sane_pieusb_get_parameters
libsane.so.1:sane_pieusb_get_select_fd
libsane.so.1:sane_pieusb_init
libsane.so.1:sane_pieusb_open
libsane.so.1:sane_pieusb_read
libsane.so.1:sane_pieusb_set_io_mode
libsane.so.1:sane_pieusb_start
libsane.so.1:sane_pixma_cancel
libsane.so.1:sane_pixma_close
libsane.so.1:sane_pixma_control_option
libsane.so.1:sane_pixma_exit
libsane.so.1:sane_pixma_get_devices
libsane.so.1:sane_pixma_get_option_descriptor
libsane.so.1:sane_pixma_get_parameters
libsane.so.1:sane_pixma_get_select_fd
libsane.so.1:sane_pixma_init
libsane.so.1:sane_pixma_open
libsane.so.1:sane_pixma_read
libsane.so.1:sane_pixma_set_io_mode
libsane.so.1:sane_pixma_start
libsane.so.1:sane_plustek_cancel
libsane.so.1:sane_plustek_close
libsane.so.1:sane_plustek_control_option
libsane.so.1:sane_plustek_exit
libsane.so.1:sane_plustek_get_devices
libsane.so.1:sane_plustek_get_option_descriptor
libsane.so.1:sane_plustek_get_parameters
libsane.so.1:sane_plustek_get_select_fd
libsane.so.1:sane_plustek_init
libsane.so.1:sane_plustek_open
libsane.so.1:sane_plustek_pp_cancel
libsane.so.1:sane_plustek_pp_close
libsane.so.1:sane_plustek_pp_control_option
libsane.so.1:sane_plustek_pp_exit
libsane.so.1:sane_plustek_pp_get_devices
libsane.so.1:sane_plustek_pp_get_option_descriptor
libsane.so.1:sane_plustek_pp_get_parameters
libsane.so.1:sane_plustek_pp_get_select_fd
libsane.so.1:sane_plustek_pp_init
libsane.so.1:sane_plustek_pp_open
libsane.so.1:sane_plustek_pp_read
libsane.so.1:sane_plustek_pp_set_io_mode
libsane.so.1:sane_plustek_pp_start
libsane.so.1:sane_plustek_read
libsane.so.1:sane_plustek_set_io_mode
libsane.so.1:sane_plustek_start
libsane.so.1:sane_qcam_cancel
libsane.so.1:sane_qcam_close
libsane.so.1:sane_qcam_control_option
libsane.so.1:sane_qcam_exit
libsane.so.1:sane_qcam_get_devices
libsane.so.1:sane_qcam_get_option_descriptor
libsane.so.1:sane_qcam_get_parameters
libsane.so.1:sane_qcam_get_select_fd
libsane.so.1:sane_qcam_init
libsane.so.1:sane_qcam_open
libsane.so.1:sane_qcam_read
libsane.so.1:sane_qcam_set_io_mode
libsane.so.1:sane_qcam_start
libsane.so.1:sane_read
libsane.so.1:sane_ricoh2_cancel
libsane.so.1:sane_ricoh2_close
libsane.so.1:sane_ricoh2_control_option
libsane.so.1:sane_ricoh2_exit
libsane.so.1:sane_ricoh2_get_devices
libsane.so.1:sane_ricoh2_get_option_descriptor
libsane.so.1:sane_ricoh2_get_parameters
libsane.so.1:sane_ricoh2_get_select_fd
libsane.so.1:sane_ricoh2_init
libsane.so.1:sane_ricoh2_open
libsane.so.1:sane_ricoh2_read
libsane.so.1:sane_ricoh2_set_io_mode
libsane.so.1:sane_ricoh2_start
libsane.so.1:sane_ricoh_cancel
libsane.so.1:sane_ricoh_close
libsane.so.1:sane_ricoh_control_option
libsane.so.1:sane_ricoh_exit
libsane.so.1:sane_ricoh_get_devices
libsane.so.1:sane_ricoh_get_option_descriptor
libsane.so.1:sane_ricoh_get_parameters
libsane.so.1:sane_ricoh_get_select_fd
libsane.so.1:sane_ricoh_init
libsane.so.1:sane_ricoh_open
libsane.so.1:sane_ricoh_read
libsane.so.1:sane_ricoh_set_io_mode
libsane.so.1:sane_ricoh_start
libsane.so.1:sane_rts8891_cancel
libsane.so.1:sane_rts8891_close
libsane.so.1:sane_rts8891_control_option
libsane.so.1:sane_rts8891_exit
libsane.so.1:sane_rts8891_get_devices
libsane.so.1:sane_rts8891_get_option_descriptor
libsane.so.1:sane_rts8891_get_parameters
libsane.so.1:sane_rts8891_get_select_fd
libsane.so.1:sane_rts8891_init
libsane.so.1:sane_rts8891_open
libsane.so.1:sane_rts8891_read
libsane.so.1:sane_rts8891_set_io_mode
libsane.so.1:sane_rts8891_start
libsane.so.1:sane_s9036_cancel
libsane.so.1:sane_s9036_close
libsane.so.1:sane_s9036_control_option
libsane.so.1:sane_s9036_exit
libsane.so.1:sane_s9036_get_devices
libsane.so.1:sane_s9036_get_option_descriptor
libsane.so.1:sane_s9036_get_parameters
libsane.so.1:sane_s9036_get_select_fd
libsane.so.1:sane_s9036_init
libsane.so.1:sane_s9036_open
libsane.so.1:sane_s9036_read
libsane.so.1:sane_s9036_set_io_mode
libsane.so.1:sane_s9036_start
libsane.so.1:sane_sceptre_cancel
libsane.so.1:sane_sceptre_close
libsane.so.1:sane_sceptre_control_option
libsane.so.1:sane_sceptre_exit
libsane.so.1:sane_sceptre_get_devices
libsane.so.1:sane_sceptre_get_option_descriptor
libsane.so.1:sane_sceptre_get_parameters
libsane.so.1:sane_sceptre_get_select_fd
libsane.so.1:sane_sceptre_init
libsane.so.1:sane_sceptre_open
libsane.so.1:sane_sceptre_read
libsane.so.1:sane_sceptre_set_io_mode
libsane.so.1:sane_sceptre_start
libsane.so.1:sane_set_io_mode
libsane.so.1:sane_sharp_cancel
libsane.so.1:sane_sharp_close
libsane.so.1:sane_sharp_control_option
libsane.so.1:sane_sharp_exit
libsane.so.1:sane_sharp_get_devices
libsane.so.1:sane_sharp_get_option_descriptor
libsane.so.1:sane_sharp_get_parameters
libsane.so.1:sane_sharp_get_select_fd
libsane.so.1:sane_sharp_init
libsane.so.1:sane_sharp_open
libsane.so.1:sane_sharp_read
libsane.so.1:sane_sharp_set_io_mode
libsane.so.1:sane_sharp_start
libsane.so.1:sane_sm3600_cancel
libsane.so.1:sane_sm3600_close
libsane.so.1:sane_sm3600_control_option
libsane.so.1:sane_sm3600_exit
libsane.so.1:sane_sm3600_get_devices
libsane.so.1:sane_sm3600_get_option_descriptor
libsane.so.1:sane_sm3600_get_parameters
libsane.so.1:sane_sm3600_get_select_fd
libsane.so.1:sane_sm3600_init
libsane.so.1:sane_sm3600_open
libsane.so.1:sane_sm3600_read
libsane.so.1:sane_sm3600_set_io_mode
libsane.so.1:sane_sm3600_start
libsane.so.1:sane_sm3840_cancel
libsane.so.1:sane_sm3840_close
libsane.so.1:sane_sm3840_control_option
libsane.so.1:sane_sm3840_exit
libsane.so.1:sane_sm3840_get_devices
libsane.so.1:sane_sm3840_get_option_descriptor
libsane.so.1:sane_sm3840_get_parameters
libsane.so.1:sane_sm3840_get_select_fd
libsane.so.1:sane_sm3840_init
libsane.so.1:sane_sm3840_open
libsane.so.1:sane_sm3840_read
libsane.so.1:sane_sm3840_set_io_mode
libsane.so.1:sane_sm3840_start
libsane.so.1:sane_snapscan_cancel
libsane.so.1:sane_snapscan_close
libsane.so.1:sane_snapscan_control_option
libsane.so.1:sane_snapscan_exit
libsane.so.1:sane_snapscan_get_devices
libsane.so.1:sane_snapscan_get_option_descriptor
libsane.so.1:sane_snapscan_get_parameters
libsane.so.1:sane_snapscan_get_select_fd
libsane.so.1:sane_snapscan_init
libsane.so.1:sane_snapscan_open
libsane.so.1:sane_snapscan_read
libsane.so.1:sane_snapscan_set_io_mode
libsane.so.1:sane_snapscan_start
libsane.so.1:sane_sp15c_cancel
libsane.so.1:sane_sp15c_close
libsane.so.1:sane_sp15c_control_option
libsane.so.1:sane_sp15c_exit
libsane.so.1:sane_sp15c_get_devices
libsane.so.1:sane_sp15c_get_option_descriptor
libsane.so.1:sane_sp15c_get_parameters
libsane.so.1:sane_sp15c_get_select_fd
libsane.so.1:sane_sp15c_init
libsane.so.1:sane_sp15c_open
libsane.so.1:sane_sp15c_read
libsane.so.1:sane_sp15c_set_io_mode
libsane.so.1:sane_sp15c_start
libsane.so.1:sane_st400_cancel
libsane.so.1:sane_st400_close
libsane.so.1:sane_st400_control_option
libsane.so.1:sane_st400_exit
libsane.so.1:sane_st400_get_devices
libsane.so.1:sane_st400_get_option_descriptor
libsane.so.1:sane_st400_get_parameters
libsane.so.1:sane_st400_get_select_fd
libsane.so.1:sane_st400_init
libsane.so.1:sane_st400_open
libsane.so.1:sane_st400_read
libsane.so.1:sane_st400_set_io_mode
libsane.so.1:sane_st400_start
libsane.so.1:sane_start
libsane.so.1:sane_strstatus
libsane.so.1:sane_stv680_cancel
libsane.so.1:sane_stv680_close
libsane.so.1:sane_stv680_control_option
libsane.so.1:sane_stv680_exit
libsane.so.1:sane_stv680_get_devices
libsane.so.1:sane_stv680_get_option_descriptor
libsane.so.1:sane_stv680_get_parameters
libsane.so.1:sane_stv680_get_select_fd
libsane.so.1:sane_stv680_init
libsane.so.1:sane_stv680_open
libsane.so.1:sane_stv680_read
libsane.so.1:sane_stv680_set_io_mode
libsane.so.1:sane_stv680_start
libsane.so.1:sane_tamarack_cancel
libsane.so.1:sane_tamarack_close
libsane.so.1:sane_tamarack_control_option
libsane.so.1:sane_tamarack_exit
libsane.so.1:sane_tamarack_get_devices
libsane.so.1:sane_tamarack_get_option_descriptor
libsane.so.1:sane_tamarack_get_parameters
libsane.so.1:sane_tamarack_get_select_fd
libsane.so.1:sane_tamarack_init
libsane.so.1:sane_tamarack_open
libsane.so.1:sane_tamarack_read
libsane.so.1:sane_tamarack_set_io_mode
libsane.so.1:sane_tamarack_start
libsane.so.1:sane_teco1_cancel
libsane.so.1:sane_teco1_close
libsane.so.1:sane_teco1_control_option
libsane.so.1:sane_teco1_exit
libsane.so.1:sane_teco1_get_devices
libsane.so.1:sane_teco1_get_option_descriptor
libsane.so.1:sane_teco1_get_parameters
libsane.so.1:sane_teco1_get_select_fd
libsane.so.1:sane_teco1_init
libsane.so.1:sane_teco1_open
libsane.so.1:sane_teco1_read
libsane.so.1:sane_teco1_set_io_mode
libsane.so.1:sane_teco1_start
libsane.so.1:sane_teco2_cancel
libsane.so.1:sane_teco2_close
libsane.so.1:sane_teco2_control_option
libsane.so.1:sane_teco2_exit
libsane.so.1:sane_teco2_get_devices
libsane.so.1:sane_teco2_get_option_descriptor
libsane.so.1:sane_teco2_get_parameters
libsane.so.1:sane_teco2_get_select_fd
libsane.so.1:sane_teco2_init
libsane.so.1:sane_teco2_open
libsane.so.1:sane_teco2_read
libsane.so.1:sane_teco2_set_io_mode
libsane.so.1:sane_teco2_start
libsane.so.1:sane_teco3_cancel
libsane.so.1:sane_teco3_close
libsane.so.1:sane_teco3_control_option
libsane.so.1:sane_teco3_exit
libsane.so.1:sane_teco3_get_devices
libsane.so.1:sane_teco3_get_option_descriptor
libsane.so.1:sane_teco3_get_parameters
libsane.so.1:sane_teco3_get_select_fd
libsane.so.1:sane_teco3_init
libsane.so.1:sane_teco3_open
libsane.so.1:sane_teco3_read
libsane.so.1:sane_teco3_set_io_mode
libsane.so.1:sane_teco3_start
libsane.so.1:sane_test_cancel
libsane.so.1:sane_test_close
libsane.so.1:sane_test_control_option
libsane.so.1:sane_test_exit
libsane.so.1:sane_test_get_devices
libsane.so.1:sane_test_get_option_descriptor
libsane.so.1:sane_test_get_parameters
libsane.so.1:sane_test_get_select_fd
libsane.so.1:sane_test_init
libsane.so.1:sane_test_open
libsane.so.1:sane_test_read
libsane.so.1:sane_test_set_io_mode
libsane.so.1:sane_test_start
libsane.so.1:sane_u12_cancel
libsane.so.1:sane_u12_close
libsane.so.1:sane_u12_control_option
libsane.so.1:sane_u12_exit
libsane.so.1:sane_u12_get_devices
libsane.so.1:sane_u12_get_option_descriptor
libsane.so.1:sane_u12_get_parameters
libsane.so.1:sane_u12_get_select_fd
libsane.so.1:sane_u12_init
libsane.so.1:sane_u12_open
libsane.so.1:sane_u12_read
libsane.so.1:sane_u12_set_io_mode
libsane.so.1:sane_u12_start
libsane.so.1:sane_umax1220u_cancel
libsane.so.1:sane_umax1220u_close
libsane.so.1:sane_umax1220u_control_option
libsane.so.1:sane_umax1220u_exit
libsane.so.1:sane_umax1220u_get_devices
libsane.so.1:sane_umax1220u_get_option_descriptor
libsane.so.1:sane_umax1220u_get_parameters
libsane.so.1:sane_umax1220u_get_select_fd
libsane.so.1:sane_umax1220u_init
libsane.so.1:sane_umax1220u_open
libsane.so.1:sane_umax1220u_read
libsane.so.1:sane_umax1220u_set_io_mode
libsane.so.1:sane_umax1220u_start
libsane.so.1:sane_umax_cancel
libsane.so.1:sane_umax_close
libsane.so.1:sane_umax_control_option
libsane.so.1:sane_umax_exit
libsane.so.1:sane_umax_get_devices
libsane.so.1:sane_umax_get_option_descriptor
libsane.so.1:sane_umax_get_parameters
libsane.so.1:sane_umax_get_select_fd
libsane.so.1:sane_umax_init
libsane.so.1:sane_umax_open
libsane.so.1:sane_umax_pp_cancel
libsane.so.1:sane_umax_pp_close
libsane.so.1:sane_umax_pp_control_option
libsane.so.1:sane_umax_pp_exit
libsane.so.1:sane_umax_pp_get_devices
libsane.so.1:sane_umax_pp_get_option_descriptor
libsane.so.1:sane_umax_pp_get_parameters
libsane.so.1:sane_umax_pp_get_select_fd
libsane.so.1:sane_umax_pp_init
libsane.so.1:sane_umax_pp_open
libsane.so.1:sane_umax_pp_read
libsane.so.1:sane_umax_pp_set_io_mode
libsane.so.1:sane_umax_pp_start
libsane.so.1:sane_umax_read
libsane.so.1:sane_umax_set_io_mode
libsane.so.1:sane_umax_start
libsane.so.1:sane_v4l_cancel
libsane.so.1:sane_v4l_close
libsane.so.1:sane_v4l_control_option
libsane.so.1:sane_v4l_exit
libsane.so.1:sane_v4l_get_devices
libsane.so.1:sane_v4l_get_option_descriptor
libsane.so.1:sane_v4l_get_parameters
libsane.so.1:sane_v4l_get_select_fd
libsane.so.1:sane_v4l_init
libsane.so.1:sane_v4l_open
libsane.so.1:sane_v4l_read
libsane.so.1:sane_v4l_set_io_mode
libsane.so.1:sane_v4l_start
libsane.so.1:sane_xerox_mfp_cancel
libsane.so.1:sane_xerox_mfp_close
libsane.so.1:sane_xerox_mfp_control_option
libsane.so.1:sane_xerox_mfp_exit
libsane.so.1:sane_xerox_mfp_get_devices
libsane.so.1:sane_xerox_mfp_get_option_descriptor
libsane.so.1:sane_xerox_mfp_get_parameters
libsane.so.1:sane_xerox_mfp_get_select_fd
libsane.so.1:sane_xerox_mfp_init
libsane.so.1:sane_xerox_mfp_open
libsane.so.1:sane_xerox_mfp_read
libsane.so.1:sane_xerox_mfp_set_io_mode
libsane.so.1:sane_xerox_mfp_start
libsane.so.1:sanei__hp_accessor_data
libsane.so.1:sanei_ab306_close
libsane.so.1:sanei_ab306_cmd
libsane.so.1:sanei_ab306_exit
libsane.so.1:sanei_ab306_get_io_privilege
libsane.so.1:sanei_ab306_open
libsane.so.1:sanei_ab306_rdata
libsane.so.1:sanei_ab306_test_ready
libsane.so.1:sanei_access_init
libsane.so.1:sanei_access_lock
libsane.so.1:sanei_access_unlock
libsane.so.1:sanei_bjnp_activate
libsane.so.1:sanei_bjnp_close
libsane.so.1:sanei_bjnp_deactivate
libsane.so.1:sanei_bjnp_find_devices
libsane.so.1:sanei_bjnp_init
libsane.so.1:sanei_bjnp_open
libsane.so.1:sanei_bjnp_read_bulk
libsane.so.1:sanei_bjnp_read_int
libsane.so.1:sanei_bjnp_set_timeout
libsane.so.1:sanei_bjnp_write_bulk
libsane.so.1:sanei_canon_pp_abort_scan
libsane.so.1:sanei_canon_pp_adjust_gamma
libsane.so.1:sanei_canon_pp_calibrate
libsane.so.1:sanei_canon_pp_check_status
libsane.so.1:sanei_canon_pp_close_scanner
libsane.so.1:sanei_canon_pp_detect
libsane.so.1:sanei_canon_pp_init_scan
libsane.so.1:sanei_canon_pp_initialise
libsane.so.1:sanei_canon_pp_load_weights
libsane.so.1:sanei_canon_pp_read
libsane.so.1:sanei_canon_pp_read_segment
libsane.so.1:sanei_canon_pp_scanner_init
libsane.so.1:sanei_canon_pp_set_ieee1284_mode
libsane.so.1:sanei_canon_pp_sleep_scanner
libsane.so.1:sanei_canon_pp_wake_scanner
libsane.so.1:sanei_canon_pp_write
libsane.so.1:sanei_check_value
libsane.so.1:sanei_codec_bin_init
libsane.so.1:sanei_config_attach_matching_devices
libsane.so.1:sanei_config_get_paths
libsane.so.1:sanei_config_get_string
libsane.so.1:sanei_config_open
libsane.so.1:sanei_config_read
libsane.so.1:sanei_config_skip_whitespace
libsane.so.1:sanei_configure_attach
libsane.so.1:sanei_constrain_value
libsane.so.1:sanei_debug_abaton
libsane.so.1:sanei_debug_agfafocus
libsane.so.1:sanei_debug_apple
libsane.so.1:sanei_debug_artec
libsane.so.1:sanei_debug_artec_eplus48u
libsane.so.1:sanei_debug_as6e
libsane.so.1:sanei_debug_avision
libsane.so.1:sanei_debug_bh
libsane.so.1:sanei_debug_bjnp
libsane.so.1:sanei_debug_canon
libsane.so.1:sanei_debug_canon630u
libsane.so.1:sanei_debug_canon_dr
libsane.so.1:sanei_debug_canon_pp
libsane.so.1:sanei_debug_canon_pp_call
libsane.so.1:sanei_debug_cardscan
libsane.so.1:sanei_debug_coolscan
libsane.so.1:sanei_debug_coolscan2
libsane.so.1:sanei_debug_coolscan3
libsane.so.1:sanei_debug_dc210
libsane.so.1:sanei_debug_dc240
libsane.so.1:sanei_debug_dc25
libsane.so.1:sanei_debug_dell1600n_net
libsane.so.1:sanei_debug_dll
libsane.so.1:sanei_debug_dmc
libsane.so.1:sanei_debug_epjitsu
libsane.so.1:sanei_debug_epson
libsane.so.1:sanei_debug_epson2
libsane.so.1:sanei_debug_epson2_call
libsane.so.1:sanei_debug_epson2_scsi
libsane.so.1:sanei_debug_epson_scsi
libsane.so.1:sanei_debug_epsonds
libsane.so.1:sanei_debug_epsonds_call
libsane.so.1:sanei_debug_fujitsu
libsane.so.1:sanei_debug_genesys
libsane.so.1:sanei_debug_genesys_call
libsane.so.1:sanei_debug_gphoto2
libsane.so.1:sanei_debug_gt68xx
libsane.so.1:sanei_debug_hp
libsane.so.1:sanei_debug_hp3500
libsane.so.1:sanei_debug_hp3900
libsane.so.1:sanei_debug_hp4200
libsane.so.1:sanei_debug_hp5400
libsane.so.1:sanei_debug_hp5400_call
libsane.so.1:sanei_debug_hp5590
libsane.so.1:sanei_debug_hp_call
libsane.so.1:sanei_debug_hpljm1005
libsane.so.1:sanei_debug_hpsj5s
libsane.so.1:sanei_debug_hs2p
libsane.so.1:sanei_debug_ibm
libsane.so.1:sanei_debug_kodak
libsane.so.1:sanei_debug_kodakaio
libsane.so.1:sanei_debug_kvs1025
libsane.so.1:sanei_debug_kvs1025_call
libsane.so.1:sanei_debug_kvs20xx
libsane.so.1:sanei_debug_kvs20xx_call
libsane.so.1:sanei_debug_kvs40xx
libsane.so.1:sanei_debug_kvs40xx_call
libsane.so.1:sanei_debug_leo
libsane.so.1:sanei_debug_lexmark
libsane.so.1:sanei_debug_lexmark_low
libsane.so.1:sanei_debug_ma1509
libsane.so.1:sanei_debug_magicolor
libsane.so.1:sanei_debug_matsushita
libsane.so.1:sanei_debug_microtek
libsane.so.1:sanei_debug_microtek2
libsane.so.1:sanei_debug_msg
libsane.so.1:sanei_debug_mustek
libsane.so.1:sanei_debug_mustek_pp
libsane.so.1:sanei_debug_mustek_usb
libsane.so.1:sanei_debug_mustek_usb2
libsane.so.1:sanei_debug_nec
libsane.so.1:sanei_debug_net
libsane.so.1:sanei_debug_niash
libsane.so.1:sanei_debug_p5
libsane.so.1:sanei_debug_pie
libsane.so.1:sanei_debug_pieusb
libsane.so.1:sanei_debug_pieusb_call
libsane.so.1:sanei_debug_pixma
libsane.so.1:sanei_debug_pixma_call
libsane.so.1:sanei_debug_plustek
libsane.so.1:sanei_debug_plustek_pp
libsane.so.1:sanei_debug_qcam
libsane.so.1:sanei_debug_ricoh
libsane.so.1:sanei_debug_ricoh2
libsane.so.1:sanei_debug_rts8891
libsane.so.1:sanei_debug_rts88xx_lib
libsane.so.1:sanei_debug_s9036
libsane.so.1:sanei_debug_sanei_ab306
libsane.so.1:sanei_debug_sanei_access
libsane.so.1:sanei_debug_sanei_config
libsane.so.1:sanei_debug_sanei_debug
libsane.so.1:sanei_debug_sanei_ir
libsane.so.1:sanei_debug_sanei_lm983x
libsane.so.1:sanei_debug_sanei_magic
libsane.so.1:sanei_debug_sanei_pa4s2
libsane.so.1:sanei_debug_sanei_pio
libsane.so.1:sanei_debug_sanei_pp
libsane.so.1:sanei_debug_sanei_pv8630
libsane.so.1:sanei_debug_sanei_scsi
libsane.so.1:sanei_debug_sanei_tcp
libsane.so.1:sanei_debug_sanei_thread
libsane.so.1:sanei_debug_sanei_udp
libsane.so.1:sanei_debug_sanei_usb
libsane.so.1:sanei_debug_sanei_wire
libsane.so.1:sanei_debug_sceptre
libsane.so.1:sanei_debug_sharp
libsane.so.1:sanei_debug_sm3600
libsane.so.1:sanei_debug_sm3840
libsane.so.1:sanei_debug_snapscan
libsane.so.1:sanei_debug_sp15c
libsane.so.1:sanei_debug_st400
libsane.so.1:sanei_debug_stv680
libsane.so.1:sanei_debug_tamarack
libsane.so.1:sanei_debug_teco1
libsane.so.1:sanei_debug_teco2
libsane.so.1:sanei_debug_teco3
libsane.so.1:sanei_debug_test
libsane.so.1:sanei_debug_u12
libsane.so.1:sanei_debug_umax
libsane.so.1:sanei_debug_umax1220u
libsane.so.1:sanei_debug_umax_pp
libsane.so.1:sanei_debug_umax_pp_call
libsane.so.1:sanei_debug_umax_pp_low
libsane.so.1:sanei_debug_v4l
libsane.so.1:sanei_debug_xerox_mfp
libsane.so.1:sanei_debug_xerox_mfp_call
libsane.so.1:sanei_epson2_scsi_inquiry
libsane.so.1:sanei_epson2_scsi_read
libsane.so.1:sanei_epson2_scsi_sense_handler
libsane.so.1:sanei_epson2_scsi_test_unit_ready
libsane.so.1:sanei_epson2_scsi_write
libsane.so.1:sanei_epson_getNumberOfUSBProductIds
libsane.so.1:sanei_epson_net_lock
libsane.so.1:sanei_epson_net_read
libsane.so.1:sanei_epson_net_unlock
libsane.so.1:sanei_epson_net_write
libsane.so.1:sanei_epson_scsi_inquiry
libsane.so.1:sanei_epson_scsi_read
libsane.so.1:sanei_epson_scsi_sense_handler
libsane.so.1:sanei_epson_scsi_write
libsane.so.1:sanei_epson_usb_product_ids
libsane.so.1:sanei_hp_accessor_bool_new
libsane.so.1:sanei_hp_accessor_choice_maxsize
libsane.so.1:sanei_hp_accessor_choice_new
libsane.so.1:sanei_hp_accessor_choice_strlist
libsane.so.1:sanei_hp_accessor_data
libsane.so.1:sanei_hp_accessor_fixed_new
libsane.so.1:sanei_hp_accessor_gamma_vector_new
libsane.so.1:sanei_hp_accessor_geometry_new
libsane.so.1:sanei_hp_accessor_get
libsane.so.1:sanei_hp_accessor_getint
libsane.so.1:sanei_hp_accessor_int_new
libsane.so.1:sanei_hp_accessor_matrix_vector_new
libsane.so.1:sanei_hp_accessor_new
libsane.so.1:sanei_hp_accessor_set
libsane.so.1:sanei_hp_accessor_setint
libsane.so.1:sanei_hp_accessor_size
libsane.so.1:sanei_hp_accessor_subvector_new
libsane.so.1:sanei_hp_accessor_vector_length
libsane.so.1:sanei_hp_accessor_vector_maxval
libsane.so.1:sanei_hp_accessor_vector_minval
libsane.so.1:sanei_hp_accessor_vector_new
libsane.so.1:sanei_hp_alloc
libsane.so.1:sanei_hp_allocz
libsane.so.1:sanei_hp_choice_isEnabled
libsane.so.1:sanei_hp_data_destroy
libsane.so.1:sanei_hp_data_dup
libsane.so.1:sanei_hp_data_new
libsane.so.1:sanei_hp_dbgdump
libsane.so.1:sanei_hp_device_compat
libsane.so.1:sanei_hp_device_get
libsane.so.1:sanei_hp_device_info_get
libsane.so.1:sanei_hp_device_new
libsane.so.1:sanei_hp_device_probe
libsane.so.1:sanei_hp_device_probe_model
libsane.so.1:sanei_hp_device_sanedevice
libsane.so.1:sanei_hp_device_simulate_clear
libsane.so.1:sanei_hp_device_simulate_get
libsane.so.1:sanei_hp_device_simulate_set
libsane.so.1:sanei_hp_device_support_get
libsane.so.1:sanei_hp_device_support_probe
libsane.so.1:sanei_hp_free
libsane.so.1:sanei_hp_free_all
libsane.so.1:sanei_hp_get_connect
libsane.so.1:sanei_hp_get_max_model
libsane.so.1:sanei_hp_handle_cancel
libsane.so.1:sanei_hp_handle_control
libsane.so.1:sanei_hp_handle_destroy
libsane.so.1:sanei_hp_handle_getParameters
libsane.so.1:sanei_hp_handle_getPipefd
libsane.so.1:sanei_hp_handle_new
libsane.so.1:sanei_hp_handle_read
libsane.so.1:sanei_hp_handle_saneoption
libsane.so.1:sanei_hp_handle_setNonblocking
libsane.so.1:sanei_hp_handle_startScan
libsane.so.1:sanei_hp_init_openfd
libsane.so.1:sanei_hp_is_active_xpa
libsane.so.1:sanei_hp_is_flatbed_adf
libsane.so.1:sanei_hp_memdup
libsane.so.1:sanei_hp_nonscsi_new
libsane.so.1:sanei_hp_optset_control
libsane.so.1:sanei_hp_optset_data_width
libsane.so.1:sanei_hp_optset_download
libsane.so.1:sanei_hp_optset_guessParameters
libsane.so.1:sanei_hp_optset_isImmediate
libsane.so.1:sanei_hp_optset_mirror_vert
libsane.so.1:sanei_hp_optset_new
libsane.so.1:sanei_hp_optset_output_8bit
libsane.so.1:sanei_hp_optset_saneoption
libsane.so.1:sanei_hp_optset_scan_type
libsane.so.1:sanei_hp_optset_scanmode
libsane.so.1:sanei_hp_optset_start_wait
libsane.so.1:sanei_hp_realloc
libsane.so.1:sanei_hp_scl_calibrate
libsane.so.1:sanei_hp_scl_clearErrors
libsane.so.1:sanei_hp_scl_download
libsane.so.1:sanei_hp_scl_errcheck
libsane.so.1:sanei_hp_scl_inquire
libsane.so.1:sanei_hp_scl_reset
libsane.so.1:sanei_hp_scl_set
libsane.so.1:sanei_hp_scl_startScan
libsane.so.1:sanei_hp_scl_upload
libsane.so.1:sanei_hp_scl_upload_binary
libsane.so.1:sanei_hp_scsi_destroy
libsane.so.1:sanei_hp_scsi_devicename
libsane.so.1:sanei_hp_scsi_get_connect
libsane.so.1:sanei_hp_scsi_inq
libsane.so.1:sanei_hp_scsi_model
libsane.so.1:sanei_hp_scsi_new
libsane.so.1:sanei_hp_scsi_pipeout
libsane.so.1:sanei_hp_scsi_vendor
libsane.so.1:sanei_hp_strdup
libsane.so.1:sanei_init_debug
libsane.so.1:sanei_ir_RGB_luminance
libsane.so.1:sanei_ir_accumulate_norm_histo
libsane.so.1:sanei_ir_add_threshold
libsane.so.1:sanei_ir_create_norm_histo
libsane.so.1:sanei_ir_create_norm_histogram
libsane.so.1:sanei_ir_dilate
libsane.so.1:sanei_ir_dilate_mean
libsane.so.1:sanei_ir_filter_madmean
libsane.so.1:sanei_ir_filter_mean
libsane.so.1:sanei_ir_find_crop
libsane.so.1:sanei_ir_init
libsane.so.1:sanei_ir_ln_table
libsane.so.1:sanei_ir_manhattan_dist
libsane.so.1:sanei_ir_spectral_clean
libsane.so.1:sanei_ir_threshold_maxentropy
libsane.so.1:sanei_ir_threshold_otsu
libsane.so.1:sanei_ir_threshold_yen
libsane.so.1:sanei_ir_to_8bit
libsane.so.1:sanei_jpeg_jinit_write_ppm
libsane.so.1:sanei_lexmark_low_assign_model
libsane.so.1:sanei_lexmark_low_calibration
libsane.so.1:sanei_lexmark_low_close_device
libsane.so.1:sanei_lexmark_low_destroy
libsane.so.1:sanei_lexmark_low_find_start_line
libsane.so.1:sanei_lexmark_low_gain_calibration
libsane.so.1:sanei_lexmark_low_init
libsane.so.1:sanei_lexmark_low_move_fwd
libsane.so.1:sanei_lexmark_low_offset_calibration
libsane.so.1:sanei_lexmark_low_open_device
libsane.so.1:sanei_lexmark_low_read_scan_data
libsane.so.1:sanei_lexmark_low_search_home_bwd
libsane.so.1:sanei_lexmark_low_search_home_fwd
libsane.so.1:sanei_lexmark_low_set_scan_regs
libsane.so.1:sanei_lexmark_low_shading_calibration
libsane.so.1:sanei_lexmark_low_start_scan
libsane.so.1:sanei_lm983x_init
libsane.so.1:sanei_lm983x_read
libsane.so.1:sanei_lm983x_reset
libsane.so.1:sanei_lm983x_write
libsane.so.1:sanei_lm983x_write_byte
libsane.so.1:sanei_magic_crop
libsane.so.1:sanei_magic_despeck
libsane.so.1:sanei_magic_findEdges
libsane.so.1:sanei_magic_findSkew
libsane.so.1:sanei_magic_findTurn
libsane.so.1:sanei_magic_getTransX
libsane.so.1:sanei_magic_getTransY
libsane.so.1:sanei_magic_init
libsane.so.1:sanei_magic_isBlank
libsane.so.1:sanei_magic_isBlank2
libsane.so.1:sanei_magic_rotate
libsane.so.1:sanei_magic_turn
libsane.so.1:sanei_magicolor_usb_product_ids
libsane.so.1:sanei_pa4s2_close
libsane.so.1:sanei_pa4s2_devices
libsane.so.1:sanei_pa4s2_enable
libsane.so.1:sanei_pa4s2_open
libsane.so.1:sanei_pa4s2_options
libsane.so.1:sanei_pa4s2_readbegin
libsane.so.1:sanei_pa4s2_readbyte
libsane.so.1:sanei_pa4s2_readend
libsane.so.1:sanei_pa4s2_scsi_pp_get_status
libsane.so.1:sanei_pa4s2_scsi_pp_open
libsane.so.1:sanei_pa4s2_scsi_pp_reg_select
libsane.so.1:sanei_pa4s2_writebyte
libsane.so.1:sanei_parport_find_device
libsane.so.1:sanei_parport_find_port
libsane.so.1:sanei_pieusb_analyse_options
libsane.so.1:sanei_pieusb_analyze_preview
libsane.so.1:sanei_pieusb_buffer_create
libsane.so.1:sanei_pieusb_buffer_delete
libsane.so.1:sanei_pieusb_buffer_get
libsane.so.1:sanei_pieusb_buffer_put_full_color_line
libsane.so.1:sanei_pieusb_buffer_put_single_color_line
libsane.so.1:sanei_pieusb_cmd_17
libsane.so.1:sanei_pieusb_cmd_get_ccd_mask
libsane.so.1:sanei_pieusb_cmd_get_gain_offset
libsane.so.1:sanei_pieusb_cmd_get_mode
libsane.so.1:sanei_pieusb_cmd_get_parameters
libsane.so.1:sanei_pieusb_cmd_get_scan_frame
libsane.so.1:sanei_pieusb_cmd_get_scanned_lines
libsane.so.1:sanei_pieusb_cmd_get_sense
libsane.so.1:sanei_pieusb_cmd_get_shading_parms
libsane.so.1:sanei_pieusb_cmd_inquiry
libsane.so.1:sanei_pieusb_cmd_read_state
libsane.so.1:sanei_pieusb_cmd_set_exposure_time
libsane.so.1:sanei_pieusb_cmd_set_gain_offset
libsane.so.1:sanei_pieusb_cmd_set_highlight_shadow
libsane.so.1:sanei_pieusb_cmd_set_mode
libsane.so.1:sanei_pieusb_cmd_set_scan_frame
libsane.so.1:sanei_pieusb_cmd_set_scan_head
libsane.so.1:sanei_pieusb_cmd_slide
libsane.so.1:sanei_pieusb_cmd_start_scan
libsane.so.1:sanei_pieusb_cmd_stop_scan
libsane.so.1:sanei_pieusb_cmd_test_unit_ready
libsane.so.1:sanei_pieusb_command
libsane.so.1:sanei_pieusb_convert_status
libsane.so.1:sanei_pieusb_correct_shading
libsane.so.1:sanei_pieusb_decode_sense
libsane.so.1:sanei_pieusb_find_device_callback
libsane.so.1:sanei_pieusb_get_ccd_mask
libsane.so.1:sanei_pieusb_get_parameters
libsane.so.1:sanei_pieusb_get_scan_data
libsane.so.1:sanei_pieusb_get_shading_data
libsane.so.1:sanei_pieusb_init_options
libsane.so.1:sanei_pieusb_on_cancel
libsane.so.1:sanei_pieusb_parse_config_line
libsane.so.1:sanei_pieusb_post
libsane.so.1:sanei_pieusb_print_options
libsane.so.1:sanei_pieusb_set_frame_from_options
libsane.so.1:sanei_pieusb_set_gain_offset
libsane.so.1:sanei_pieusb_set_mode_from_options
libsane.so.1:sanei_pieusb_supported_device_list_add
libsane.so.1:sanei_pieusb_supported_device_list_contains
libsane.so.1:sanei_pieusb_usb_reset
libsane.so.1:sanei_pieusb_wait_ready
libsane.so.1:sanei_pio_close
libsane.so.1:sanei_pio_open
libsane.so.1:sanei_pio_read
libsane.so.1:sanei_pio_write
libsane.so.1:sanei_pixma_cancel
libsane.so.1:sanei_pixma_check_dpi
libsane.so.1:sanei_pixma_check_result
libsane.so.1:sanei_pixma_check_scan_param
libsane.so.1:sanei_pixma_cleanup
libsane.so.1:sanei_pixma_close
libsane.so.1:sanei_pixma_cmd_transaction
libsane.so.1:sanei_pixma_collect_devices
libsane.so.1:sanei_pixma_connect
libsane.so.1:sanei_pixma_disconnect
libsane.so.1:sanei_pixma_dump
libsane.so.1:sanei_pixma_enable_background
libsane.so.1:sanei_pixma_exec
libsane.so.1:sanei_pixma_exec_short_cmd
libsane.so.1:sanei_pixma_fill_gamma_table
libsane.so.1:sanei_pixma_find_scanners
libsane.so.1:sanei_pixma_get_be16
libsane.so.1:sanei_pixma_get_be32
libsane.so.1:sanei_pixma_get_config
libsane.so.1:sanei_pixma_get_device_config
libsane.so.1:sanei_pixma_get_device_id
libsane.so.1:sanei_pixma_get_device_model
libsane.so.1:sanei_pixma_get_device_status
libsane.so.1:sanei_pixma_get_string
libsane.so.1:sanei_pixma_get_time
libsane.so.1:sanei_pixma_hexdump
libsane.so.1:sanei_pixma_iclass_devices
libsane.so.1:sanei_pixma_init
libsane.so.1:sanei_pixma_io_cleanup
libsane.so.1:sanei_pixma_io_init
libsane.so.1:sanei_pixma_map_status_errno
libsane.so.1:sanei_pixma_mp150_devices
libsane.so.1:sanei_pixma_mp730_devices
libsane.so.1:sanei_pixma_mp750_devices
libsane.so.1:sanei_pixma_mp800_devices
libsane.so.1:sanei_pixma_newcmd
libsane.so.1:sanei_pixma_open
libsane.so.1:sanei_pixma_read
libsane.so.1:sanei_pixma_read_image
libsane.so.1:sanei_pixma_reset_device
libsane.so.1:sanei_pixma_scan
libsane.so.1:sanei_pixma_set_be16
libsane.so.1:sanei_pixma_set_be32
libsane.so.1:sanei_pixma_set_debug_level
libsane.so.1:sanei_pixma_set_interrupt_mode
libsane.so.1:sanei_pixma_sleep
libsane.so.1:sanei_pixma_strerror
libsane.so.1:sanei_pixma_sum_bytes
libsane.so.1:sanei_pixma_wait_event
libsane.so.1:sanei_pixma_wait_interrupt
libsane.so.1:sanei_pixma_write
libsane.so.1:sanei_pp_claim
libsane.so.1:sanei_pp_close
libsane.so.1:sanei_pp_getmodes
libsane.so.1:sanei_pp_inb_ctrl
libsane.so.1:sanei_pp_inb_data
libsane.so.1:sanei_pp_inb_epp
libsane.so.1:sanei_pp_inb_stat
libsane.so.1:sanei_pp_init
libsane.so.1:sanei_pp_open
libsane.so.1:sanei_pp_outb_addr
libsane.so.1:sanei_pp_outb_ctrl
libsane.so.1:sanei_pp_outb_data
libsane.so.1:sanei_pp_outb_epp
libsane.so.1:sanei_pp_release
libsane.so.1:sanei_pp_set_datadir
libsane.so.1:sanei_pp_setmode
libsane.so.1:sanei_pp_udelay
libsane.so.1:sanei_pp_uses_directio
libsane.so.1:sanei_pv8630_bulkread
libsane.so.1:sanei_pv8630_bulkwrite
libsane.so.1:sanei_pv8630_flush_buffer
libsane.so.1:sanei_pv8630_init
libsane.so.1:sanei_pv8630_prep_bulkread
libsane.so.1:sanei_pv8630_prep_bulkwrite
libsane.so.1:sanei_pv8630_read_byte
libsane.so.1:sanei_pv8630_wait_byte
libsane.so.1:sanei_pv8630_write_byte
libsane.so.1:sanei_pv8630_xpect_byte
libsane.so.1:sanei_rts88xx_cancel
libsane.so.1:sanei_rts88xx_data_count
libsane.so.1:sanei_rts88xx_get_lamp_status
libsane.so.1:sanei_rts88xx_get_lcd
libsane.so.1:sanei_rts88xx_get_mem
libsane.so.1:sanei_rts88xx_get_status
libsane.so.1:sanei_rts88xx_is_color
libsane.so.1:sanei_rts88xx_lib_init
libsane.so.1:sanei_rts88xx_nvram_ctrl
libsane.so.1:sanei_rts88xx_read_data
libsane.so.1:sanei_rts88xx_read_mem
libsane.so.1:sanei_rts88xx_read_reg
libsane.so.1:sanei_rts88xx_read_regs
libsane.so.1:sanei_rts88xx_reset_lamp
libsane.so.1:sanei_rts88xx_set_color_scan
libsane.so.1:sanei_rts88xx_set_gain
libsane.so.1:sanei_rts88xx_set_gray_scan
libsane.so.1:sanei_rts88xx_set_mem
libsane.so.1:sanei_rts88xx_set_offset
libsane.so.1:sanei_rts88xx_set_scan_area
libsane.so.1:sanei_rts88xx_set_scan_frequency
libsane.so.1:sanei_rts88xx_set_status
libsane.so.1:sanei_rts88xx_setup_nvram
libsane.so.1:sanei_rts88xx_wait_data
libsane.so.1:sanei_rts88xx_write_control
libsane.so.1:sanei_rts88xx_write_mem
libsane.so.1:sanei_rts88xx_write_reg
libsane.so.1:sanei_rts88xx_write_regs
libsane.so.1:sanei_scsi_close
libsane.so.1:sanei_scsi_cmd
libsane.so.1:sanei_scsi_cmd2
libsane.so.1:sanei_scsi_find_devices
libsane.so.1:sanei_scsi_max_request_size
libsane.so.1:sanei_scsi_open
libsane.so.1:sanei_scsi_open_extended
libsane.so.1:sanei_scsi_req_enter
libsane.so.1:sanei_scsi_req_enter2
libsane.so.1:sanei_scsi_req_flush_all
libsane.so.1:sanei_scsi_req_flush_all_extended
libsane.so.1:sanei_scsi_req_wait
libsane.so.1:sanei_tcp_close
libsane.so.1:sanei_tcp_open
libsane.so.1:sanei_tcp_read
libsane.so.1:sanei_tcp_write
libsane.so.1:sanei_thread_begin
libsane.so.1:sanei_thread_get_status
libsane.so.1:sanei_thread_init
libsane.so.1:sanei_thread_is_forked
libsane.so.1:sanei_thread_is_valid
libsane.so.1:sanei_thread_kill
libsane.so.1:sanei_thread_sendsig
libsane.so.1:sanei_thread_waitpid
libsane.so.1:sanei_udp_close
libsane.so.1:sanei_udp_open
libsane.so.1:sanei_udp_open_broadcast
libsane.so.1:sanei_udp_read
libsane.so.1:sanei_udp_recvfrom
libsane.so.1:sanei_udp_set_nonblock
libsane.so.1:sanei_udp_write
libsane.so.1:sanei_udp_write_broadcast
libsane.so.1:sanei_umax_pp_UTA
libsane.so.1:sanei_umax_pp_attach
libsane.so.1:sanei_umax_pp_cancel
libsane.so.1:sanei_umax_pp_checkModel
libsane.so.1:sanei_umax_pp_close
libsane.so.1:sanei_umax_pp_cmdSync
libsane.so.1:sanei_umax_pp_endSession
libsane.so.1:sanei_umax_pp_gamma
libsane.so.1:sanei_umax_pp_getLeft
libsane.so.1:sanei_umax_pp_getastra
libsane.so.1:sanei_umax_pp_getauto
libsane.so.1:sanei_umax_pp_getfull
libsane.so.1:sanei_umax_pp_getparport
libsane.so.1:sanei_umax_pp_getport
libsane.so.1:sanei_umax_pp_initPort
libsane.so.1:sanei_umax_pp_initScanner
libsane.so.1:sanei_umax_pp_initTransport
libsane.so.1:sanei_umax_pp_lamp
libsane.so.1:sanei_umax_pp_model
libsane.so.1:sanei_umax_pp_open
libsane.so.1:sanei_umax_pp_park
libsane.so.1:sanei_umax_pp_parkWait
libsane.so.1:sanei_umax_pp_probeScanner
libsane.so.1:sanei_umax_pp_read
libsane.so.1:sanei_umax_pp_readBlock
libsane.so.1:sanei_umax_pp_scan
libsane.so.1:sanei_umax_pp_scannerStatus
libsane.so.1:sanei_umax_pp_setLamp
libsane.so.1:sanei_umax_pp_setLeft
libsane.so.1:sanei_umax_pp_setastra
libsane.so.1:sanei_umax_pp_setauto
libsane.so.1:sanei_umax_pp_setfull
libsane.so.1:sanei_umax_pp_setparport
libsane.so.1:sanei_umax_pp_setport
libsane.so.1:sanei_umax_pp_start
libsane.so.1:sanei_umax_pp_startScan
libsane.so.1:sanei_umax_pp_status
libsane.so.1:sanei_usb_attach_matching_devices
libsane.so.1:sanei_usb_claim_interface
libsane.so.1:sanei_usb_clear_halt
libsane.so.1:sanei_usb_close
libsane.so.1:sanei_usb_control_msg
libsane.so.1:sanei_usb_exit
libsane.so.1:sanei_usb_find_devices
libsane.so.1:sanei_usb_get_descriptor
libsane.so.1:sanei_usb_get_endpoint
libsane.so.1:sanei_usb_get_vendor_product
libsane.so.1:sanei_usb_get_vendor_product_byname
libsane.so.1:sanei_usb_init
libsane.so.1:sanei_usb_is_replay_mode_enabled
libsane.so.1:sanei_usb_open
libsane.so.1:sanei_usb_read_bulk
libsane.so.1:sanei_usb_read_int
libsane.so.1:sanei_usb_release_interface
libsane.so.1:sanei_usb_reset
libsane.so.1:sanei_usb_scan_devices
libsane.so.1:sanei_usb_set_altinterface
libsane.so.1:sanei_usb_set_configuration
libsane.so.1:sanei_usb_set_endpoint
libsane.so.1:sanei_usb_set_timeout
libsane.so.1:sanei_usb_testing_enable_record
libsane.so.1:sanei_usb_testing_enable_replay
libsane.so.1:sanei_usb_testing_get_backend
libsane.so.1:sanei_usb_testing_record_message
libsane.so.1:sanei_usb_write_bulk
libsane.so.1:sanei_w_action
libsane.so.1:sanei_w_array
libsane.so.1:sanei_w_authorization_req
libsane.so.1:sanei_w_bool
libsane.so.1:sanei_w_byte
libsane.so.1:sanei_w_call
libsane.so.1:sanei_w_char
libsane.so.1:sanei_w_constraint_type
libsane.so.1:sanei_w_control_option_reply
libsane.so.1:sanei_w_control_option_req
libsane.so.1:sanei_w_device
libsane.so.1:sanei_w_device_ptr
libsane.so.1:sanei_w_exit
libsane.so.1:sanei_w_frame
libsane.so.1:sanei_w_free
libsane.so.1:sanei_w_get_devices_reply
libsane.so.1:sanei_w_get_parameters_reply
libsane.so.1:sanei_w_init
libsane.so.1:sanei_w_init_reply
libsane.so.1:sanei_w_init_req
libsane.so.1:sanei_w_open_reply
libsane.so.1:sanei_w_option_descriptor
libsane.so.1:sanei_w_option_descriptor_array
libsane.so.1:sanei_w_option_descriptor_ptr
libsane.so.1:sanei_w_parameters
libsane.so.1:sanei_w_ptr
libsane.so.1:sanei_w_range
libsane.so.1:sanei_w_reply
libsane.so.1:sanei_w_set_dir
libsane.so.1:sanei_w_space
libsane.so.1:sanei_w_start_reply
libsane.so.1:sanei_w_status
libsane.so.1:sanei_w_string
libsane.so.1:sanei_w_unit
libsane.so.1:sanei_w_value_type
libsane.so.1:sanei_w_void
libsane.so.1:sanei_w_word
libsane.so.1:scan
libsane.so.1:scan2
libsane.so.1:scantype
libsane.so.1:shadingbase
libsane.so.1:shadingfact
libsane.so.1:shrink_image
libsane.so.1:smearacccurvecount
libsane.so.1:smeardeccurvecount
libsane.so.1:source_list
libsane.so.1:stop_adf
libsane.so.1:tcp_configure_device
libsane.so.1:tcp_dev_close
libsane.so.1:tcp_dev_open
libsane.so.1:tcp_dev_request
libsane.so.1:teardown_scan
libsane.so.1:testing_append_commands_node
libsane.so.1:testing_known_commands_input_failed
libsane.so.1:testing_last_known_seq
libsane.so.1:testing_record_backend
libsane.so.1:testing_xml_doc
libsane.so.1:testing_xml_next_tx_node
libsane.so.1:testing_xml_path
libsane.so.1:usb_configure_device
libsane.so.1:usb_dev_close
libsane.so.1:usb_dev_open
libsane.so.1:usb_dev_request
libsane.so.1:usb_devfile
libsane.so.1:v0750
libsane.so.1:v07c0
libsane.so.1:v14b4
libsane.so.1:v15b4
libsane.so.1:v15bc
libsane.so.1:v15f8
libsane.so.1:v1600
libsane.so.1:v1604
libsane.so.1:v1608
libsane.so.1:v160c_block_size
libsane.so.1:v1619
libsane.so.1:v35b8
libsane.so.1:w_cmd_count
libsane.so.1:waitforpwm
libsane.so.1:wshading
