icon_mode.so:_ZN8BaseMode10mainWidgetEv
icon_mode.so:_ZN8BaseMode11qt_metacallEN11QMetaObject4CallEiPPv
icon_mode.so:_ZN8BaseMode11qt_metacastEPKc
icon_mode.so:_ZN8BaseMode11viewChangedEb
icon_mode.so:_ZN8BaseMode13searchChangedERK7QString
icon_mode.so:_ZN8BaseMode14actionsChangedEv
icon_mode.so:_ZN8BaseMode15leaveModuleViewEv
icon_mode.so:_ZN8BaseMode15setShowToolTipsEb
icon_mode.so:_ZN8BaseMode16addConfigurationEP13KConfigDialog
icon_mode.so:_ZN8BaseMode16setStartupModuleERK7QString
icon_mode.so:_ZN8BaseMode16staticMetaObjectE
icon_mode.so:_ZN8BaseMode17loadConfigurationEv
icon_mode.so:_ZN8BaseMode17saveConfigurationEv
icon_mode.so:_ZN8BaseMode18changeToolBarItemsE6QFlagsINS_17ToolBarItemsFlagsEE
icon_mode.so:_ZN8BaseMode20setStartupModuleArgsERK11QStringList
icon_mode.so:_ZN8BaseMode4initE15KPluginMetaData
icon_mode.so:_ZN8BaseMode9aboutDataEv
icon_mode.so:_ZN8BaseMode9giveFocusEv
icon_mode.so:_ZN8BaseMode9initEventEv
icon_mode.so:_ZN8BaseMode9saveStateEv
icon_mode.so:_ZN8BaseModeC1EP7QObjectRK5QListI8QVariantE
icon_mode.so:_ZN8BaseModeC2EP7QObjectRK5QListI8QVariantE
icon_mode.so:_ZN8BaseModeD0Ev
icon_mode.so:_ZN8BaseModeD1Ev
icon_mode.so:_ZN8BaseModeD2Ev
icon_mode.so:_ZNK8BaseMode10metaObjectEv
icon_mode.so:_ZNK8BaseMode10moduleViewEv
icon_mode.so:_ZNK8BaseMode11actionsListEv
icon_mode.so:_ZNK8BaseMode12showToolTipsEv
icon_mode.so:_ZNK8BaseMode13startupModuleEv
icon_mode.so:_ZNK8BaseMode15applicationModeEv
icon_mode.so:_ZNK8BaseMode17startupModuleArgsEv
icon_mode.so:_ZNK8BaseMode5viewsEv
icon_mode.so:_ZNK8BaseMode6configEv
icon_mode.so:_ZNK8BaseMode8homeItemEv
icon_mode.so:_ZNK8BaseMode8metaDataEv
icon_mode.so:_ZNK8BaseMode8rootItemEv
icon_mode.so:_ZTI8BaseMode
icon_mode.so:_ZTS8BaseMode
icon_mode.so:_ZTV8BaseMode
icon_mode.so:_ZZZN10KAboutDataC4ERK7QStringS2_S2_S2_N13KAboutLicense10LicenseKeyES2_S2_S2_S2_Ed_NKUlvE_clEvE15qstring_literal
icon_mode.so:__bss_start
icon_mode.so:_edata
icon_mode.so:_end
icon_mode.so:qt_plugin_instance
icon_mode.so:qt_plugin_query_metadata
systemsettings_sidebar_mode.so:_ZN8BaseMode10mainWidgetEv
systemsettings_sidebar_mode.so:_ZN8BaseMode11qt_metacallEN11QMetaObject4CallEiPPv
systemsettings_sidebar_mode.so:_ZN8BaseMode11qt_metacastEPKc
systemsettings_sidebar_mode.so:_ZN8BaseMode11viewChangedEb
systemsettings_sidebar_mode.so:_ZN8BaseMode13searchChangedERK7QString
systemsettings_sidebar_mode.so:_ZN8BaseMode14actionsChangedEv
systemsettings_sidebar_mode.so:_ZN8BaseMode15leaveModuleViewEv
systemsettings_sidebar_mode.so:_ZN8BaseMode15setShowToolTipsEb
systemsettings_sidebar_mode.so:_ZN8BaseMode16addConfigurationEP13KConfigDialog
systemsettings_sidebar_mode.so:_ZN8BaseMode16setStartupModuleERK7QString
systemsettings_sidebar_mode.so:_ZN8BaseMode16staticMetaObjectE
systemsettings_sidebar_mode.so:_ZN8BaseMode17loadConfigurationEv
systemsettings_sidebar_mode.so:_ZN8BaseMode17saveConfigurationEv
systemsettings_sidebar_mode.so:_ZN8BaseMode18changeToolBarItemsE6QFlagsINS_17ToolBarItemsFlagsEE
systemsettings_sidebar_mode.so:_ZN8BaseMode20setStartupModuleArgsERK11QStringList
systemsettings_sidebar_mode.so:_ZN8BaseMode4initE15KPluginMetaData
systemsettings_sidebar_mode.so:_ZN8BaseMode9aboutDataEv
systemsettings_sidebar_mode.so:_ZN8BaseMode9giveFocusEv
systemsettings_sidebar_mode.so:_ZN8BaseMode9initEventEv
systemsettings_sidebar_mode.so:_ZN8BaseMode9saveStateEv
systemsettings_sidebar_mode.so:_ZN8BaseModeC1EP7QObjectRK5QListI8QVariantE
systemsettings_sidebar_mode.so:_ZN8BaseModeC2EP7QObjectRK5QListI8QVariantE
systemsettings_sidebar_mode.so:_ZN8BaseModeD0Ev
systemsettings_sidebar_mode.so:_ZN8BaseModeD1Ev
systemsettings_sidebar_mode.so:_ZN8BaseModeD2Ev
systemsettings_sidebar_mode.so:_ZNK8BaseMode10metaObjectEv
systemsettings_sidebar_mode.so:_ZNK8BaseMode10moduleViewEv
systemsettings_sidebar_mode.so:_ZNK8BaseMode11actionsListEv
systemsettings_sidebar_mode.so:_ZNK8BaseMode12showToolTipsEv
systemsettings_sidebar_mode.so:_ZNK8BaseMode13startupModuleEv
systemsettings_sidebar_mode.so:_ZNK8BaseMode15applicationModeEv
systemsettings_sidebar_mode.so:_ZNK8BaseMode17startupModuleArgsEv
systemsettings_sidebar_mode.so:_ZNK8BaseMode5viewsEv
systemsettings_sidebar_mode.so:_ZNK8BaseMode6configEv
systemsettings_sidebar_mode.so:_ZNK8BaseMode8homeItemEv
systemsettings_sidebar_mode.so:_ZNK8BaseMode8metaDataEv
systemsettings_sidebar_mode.so:_ZNK8BaseMode8rootItemEv
systemsettings_sidebar_mode.so:_ZTI8BaseMode
systemsettings_sidebar_mode.so:_ZTS8BaseMode
systemsettings_sidebar_mode.so:_ZTV8BaseMode
systemsettings_sidebar_mode.so:_ZZZN10KAboutDataC4ERK7QStringS2_S2_S2_N13KAboutLicense10LicenseKeyES2_S2_S2_S2_Ed_NKUlvE_clEvE15qstring_literal
systemsettings_sidebar_mode.so:__bss_start
systemsettings_sidebar_mode.so:_edata
systemsettings_sidebar_mode.so:_end
systemsettings_sidebar_mode.so:qt_plugin_instance
systemsettings_sidebar_mode.so:qt_plugin_query_metadata
