colord.so:_ZN13XEventHandler11qt_metacallEN11QMetaObject4CallEiPPv
colord.so:_ZN13XEventHandler11qt_metacastEPKc
colord.so:_ZN13XEventHandler13outputChangedEv
colord.so:_ZN13XEventHandler16staticMetaObjectE
colord.so:_ZN13XEventHandler17nativeEventFilterERK10QByteArrayPvPx
colord.so:_ZN13XEventHandlerC1Ei
colord.so:_ZN13XEventHandlerC2Ei
colord.so:_ZN6ColorD11deviceAddedERK15QDBusObjectPath
colord.so:_ZN6ColorD11qt_metacallEN11QMetaObject4CallEiPPv
colord.so:_ZN6ColorD11qt_metacastEPKc
colord.so:_ZN6ColorD12checkOutputsEv
colord.so:_ZN6ColorD12profileAddedERK15QDBusObjectPath
colord.so:_ZN6ColorD12removeOutputERK14QSharedPointerI6OutputE
colord.so:_ZN6ColorD13deviceChangedERK15QDBusObjectPath
colord.so:_ZN6ColorD13outputChangedERK14QSharedPointerI6OutputE
colord.so:_ZN6ColorD15connectToColorDEv
colord.so:_ZN6ColorD16connectToDisplayEv
colord.so:_ZN6ColorD16staticMetaObjectE
colord.so:_ZN6ColorD18getProfileMetadataERK15QDBusObjectPath
colord.so:_ZN6ColorD19serviceOwnerChangedERK7QStringS2_S2_
colord.so:_ZN6ColorD22addEdidProfileToDeviceERK14QSharedPointerI6OutputE
colord.so:_ZN6ColorD4initEv
colord.so:_ZN6ColorD5resetEv
colord.so:_ZN6ColorD9addOutputERK14QSharedPointerI6OutputE
colord.so:_ZN6ColorDC1EP7QObjectRK5QListI8QVariantE
colord.so:_ZN6ColorDC2EP7QObjectRK5QListI8QVariantE
colord.so:_ZN6ColorDD0Ev
colord.so:_ZN6ColorDD1Ev
colord.so:_ZN6ColorDD2Ev
colord.so:_ZNK13XEventHandler10metaObjectEv
colord.so:_ZNK6ColorD10getAtomIdsEv
colord.so:_ZNK6ColorD10metaObjectEv
colord.so:_ZNK6ColorD16getPrimaryCRTCIdEm
colord.so:_ZTI13XEventHandler
colord.so:_ZTI6ColorD
colord.so:_ZTS13XEventHandler
colord.so:_ZTS6ColorD
colord.so:_ZTV13XEventHandler
colord.so:_ZTV6ColorD
colord.so:_ZThn16_N13XEventHandler17nativeEventFilterERK10QByteArrayPvPx
colord.so:qt_plugin_instance
colord.so:qt_plugin_query_metadata_v2
kcm_colord.so:_ZN7Profile10convertXYZEP9cmsCIEXYZ
kcm_colord.so:_ZN7Profile11setFilenameERK7QString
kcm_colord.so:_ZN7Profile12parseProfileEPKjm
kcm_colord.so:_ZN7Profile14getNamedColorsEv
kcm_colord.so:_ZN7Profile17profileWithSourceERK7QStringS2_RK9QDateTime
kcm_colord.so:_ZN7ProfileC1ERK7QString
kcm_colord.so:_ZN7ProfileC2ERK7QString
kcm_colord.so:_ZN7ProfileD1Ev
kcm_colord.so:_ZN7ProfileD2Ev
kcm_colord.so:_ZNK7Profile10colorspaceEv
kcm_colord.so:_ZNK7Profile10kindStringEv
kcm_colord.so:_ZNK7Profile11descriptionEv
kcm_colord.so:_ZNK7Profile11temperatureEv
kcm_colord.so:_ZNK7Profile12errorMessageEv
kcm_colord.so:_ZNK7Profile12manufacturerEv
kcm_colord.so:_ZNK7Profile4kindEv
kcm_colord.so:_ZNK7Profile4sizeEv
kcm_colord.so:_ZNK7Profile5modelEv
kcm_colord.so:_ZNK7Profile6loadedEv
kcm_colord.so:_ZNK7Profile7versionEv
kcm_colord.so:_ZNK7Profile8checksumEv
kcm_colord.so:_ZNK7Profile8filenameEv
kcm_colord.so:_ZNK7Profile9canDeleteEv
kcm_colord.so:_ZNK7Profile9copyrightEv
kcm_colord.so:qt_plugin_instance
kcm_colord.so:qt_plugin_query_metadata_v2
