libKF6Contacts.so.6:_ZN9KContacts10FieldGroup17setFieldGroupNameERK7QString
libKF6Contacts.so.6:_ZN9KContacts10FieldGroup8setValueERK7QString
libKF6Contacts.so.6:_ZN9KContacts10FieldGroup9setParamsERKNS_12ParameterMapE
libKF6Contacts.so.6:_ZN9KContacts10FieldGroupC1ERK7QString
libKF6Contacts.so.6:_ZN9KContacts10FieldGroupC1ERKS0_
libKF6Contacts.so.6:_ZN9KContacts10FieldGroupC1Ev
libKF6Contacts.so.6:_ZN9KContacts10FieldGroupC2ERK7QString
libKF6Contacts.so.6:_ZN9KContacts10FieldGroupC2ERKS0_
libKF6Contacts.so.6:_ZN9KContacts10FieldGroupC2Ev
libKF6Contacts.so.6:_ZN9KContacts10FieldGroupD1Ev
libKF6Contacts.so.6:_ZN9KContacts10FieldGroupD2Ev
libKF6Contacts.so.6:_ZN9KContacts10FieldGroupaSERKS0_
libKF6Contacts.so.6:_ZN9KContacts11CalendarUrl6setUrlERK4QUrl
libKF6Contacts.so.6:_ZN9KContacts11CalendarUrl7setTypeENS0_12CalendarTypeE
libKF6Contacts.so.6:_ZN9KContacts11CalendarUrl9setParamsERKNS_12ParameterMapE
libKF6Contacts.so.6:_ZN9KContacts11CalendarUrlC1ENS0_12CalendarTypeE
libKF6Contacts.so.6:_ZN9KContacts11CalendarUrlC1ERKS0_
libKF6Contacts.so.6:_ZN9KContacts11CalendarUrlC1Ev
libKF6Contacts.so.6:_ZN9KContacts11CalendarUrlC2ENS0_12CalendarTypeE
libKF6Contacts.so.6:_ZN9KContacts11CalendarUrlC2ERKS0_
libKF6Contacts.so.6:_ZN9KContacts11CalendarUrlC2Ev
libKF6Contacts.so.6:_ZN9KContacts11CalendarUrlD1Ev
libKF6Contacts.so.6:_ZN9KContacts11CalendarUrlD2Ev
libKF6Contacts.so.6:_ZN9KContacts11CalendarUrlaSERKS0_
libKF6Contacts.so.6:_ZN9KContacts11PhoneNumber13typeFlagLabelENS0_8TypeFlagE
libKF6Contacts.so.6:_ZN9KContacts11PhoneNumber16staticMetaObjectE
libKF6Contacts.so.6:_ZN9KContacts11PhoneNumber5setIdERK7QString
libKF6Contacts.so.6:_ZN9KContacts11PhoneNumber7setTypeE6QFlagsINS0_8TypeFlagEE
libKF6Contacts.so.6:_ZN9KContacts11PhoneNumber8typeListEv
libKF6Contacts.so.6:_ZN9KContacts11PhoneNumber9setNumberERK7QString
libKF6Contacts.so.6:_ZN9KContacts11PhoneNumber9typeLabelE6QFlagsINS0_8TypeFlagEE
libKF6Contacts.so.6:_ZN9KContacts11PhoneNumberC1ERK7QString6QFlagsINS0_8TypeFlagEE
libKF6Contacts.so.6:_ZN9KContacts11PhoneNumberC1ERKS0_
libKF6Contacts.so.6:_ZN9KContacts11PhoneNumberC1Ev
libKF6Contacts.so.6:_ZN9KContacts11PhoneNumberC2ERK7QString6QFlagsINS0_8TypeFlagEE
libKF6Contacts.so.6:_ZN9KContacts11PhoneNumberC2ERKS0_
libKF6Contacts.so.6:_ZN9KContacts11PhoneNumberC2Ev
libKF6Contacts.so.6:_ZN9KContacts11PhoneNumberD1Ev
libKF6Contacts.so.6:_ZN9KContacts11PhoneNumberD2Ev
libKF6Contacts.so.6:_ZN9KContacts11PhoneNumberaSERKS0_
libKF6Contacts.so.6:_ZN9KContacts12ClientPidMap15setClientPidMapERK7QString
libKF6Contacts.so.6:_ZN9KContacts12ClientPidMap9setParamsERKNS_12ParameterMapE
libKF6Contacts.so.6:_ZN9KContacts12ClientPidMapC1ERK7QString
libKF6Contacts.so.6:_ZN9KContacts12ClientPidMapC1ERKS0_
libKF6Contacts.so.6:_ZN9KContacts12ClientPidMapC1Ev
libKF6Contacts.so.6:_ZN9KContacts12ClientPidMapC2ERK7QString
libKF6Contacts.so.6:_ZN9KContacts12ClientPidMapC2ERKS0_
libKF6Contacts.so.6:_ZN9KContacts12ClientPidMapC2Ev
libKF6Contacts.so.6:_ZN9KContacts12ClientPidMapD1Ev
libKF6Contacts.so.6:_ZN9KContacts12ClientPidMapD2Ev
libKF6Contacts.so.6:_ZN9KContacts12ClientPidMapaSERKS0_
libKF6Contacts.so.6:_ZN9KContacts12ContactGroup16ContactReference12insertCustomERK7QStringS4_
libKF6Contacts.so.6:_ZN9KContacts12ContactGroup16ContactReference12removeCustomERK7QString
libKF6Contacts.so.6:_ZN9KContacts12ContactGroup16ContactReference17setPreferredEmailERK7QString
libKF6Contacts.so.6:_ZN9KContacts12ContactGroup16ContactReference6setGidERK7QString
libKF6Contacts.so.6:_ZN9KContacts12ContactGroup16ContactReference6setUidERK7QString
libKF6Contacts.so.6:_ZN9KContacts12ContactGroup16ContactReferenceC1ERK7QString
libKF6Contacts.so.6:_ZN9KContacts12ContactGroup16ContactReferenceC1ERKS1_
libKF6Contacts.so.6:_ZN9KContacts12ContactGroup16ContactReferenceC1Ev
libKF6Contacts.so.6:_ZN9KContacts12ContactGroup16ContactReferenceC2ERK7QString
libKF6Contacts.so.6:_ZN9KContacts12ContactGroup16ContactReferenceC2ERKS1_
libKF6Contacts.so.6:_ZN9KContacts12ContactGroup16ContactReferenceC2Ev
libKF6Contacts.so.6:_ZN9KContacts12ContactGroup16ContactReferenceD1Ev
libKF6Contacts.so.6:_ZN9KContacts12ContactGroup16ContactReferenceD2Ev
libKF6Contacts.so.6:_ZN9KContacts12ContactGroup16ContactReferenceaSERKS1_
libKF6Contacts.so.6:_ZN9KContacts12ContactGroup16contactReferenceEi
libKF6Contacts.so.6:_ZN9KContacts12ContactGroup20removeAllContactDataEv
libKF6Contacts.so.6:_ZN9KContacts12ContactGroup21ContactGroupReference12insertCustomERK7QStringS4_
libKF6Contacts.so.6:_ZN9KContacts12ContactGroup21ContactGroupReference12removeCustomERK7QString
libKF6Contacts.so.6:_ZN9KContacts12ContactGroup21ContactGroupReference6setUidERK7QString
libKF6Contacts.so.6:_ZN9KContacts12ContactGroup21ContactGroupReferenceC1ERK7QString
libKF6Contacts.so.6:_ZN9KContacts12ContactGroup21ContactGroupReferenceC1ERKS1_
libKF6Contacts.so.6:_ZN9KContacts12ContactGroup21ContactGroupReferenceC1Ev
libKF6Contacts.so.6:_ZN9KContacts12ContactGroup21ContactGroupReferenceC2ERK7QString
libKF6Contacts.so.6:_ZN9KContacts12ContactGroup21ContactGroupReferenceC2ERKS1_
libKF6Contacts.so.6:_ZN9KContacts12ContactGroup21ContactGroupReferenceC2Ev
libKF6Contacts.so.6:_ZN9KContacts12ContactGroup21ContactGroupReferenceD1Ev
libKF6Contacts.so.6:_ZN9KContacts12ContactGroup21ContactGroupReferenceD2Ev
libKF6Contacts.so.6:_ZN9KContacts12ContactGroup21ContactGroupReferenceaSERKS1_
libKF6Contacts.so.6:_ZN9KContacts12ContactGroup21contactGroupReferenceEi
libKF6Contacts.so.6:_ZN9KContacts12ContactGroup26removeAllContactReferencesEv
libKF6Contacts.so.6:_ZN9KContacts12ContactGroup31removeAllContactGroupReferencesEv
libKF6Contacts.so.6:_ZN9KContacts12ContactGroup4Data12insertCustomERK7QStringS4_
libKF6Contacts.so.6:_ZN9KContacts12ContactGroup4Data12removeCustomERK7QString
libKF6Contacts.so.6:_ZN9KContacts12ContactGroup4Data7setNameERK7QString
libKF6Contacts.so.6:_ZN9KContacts12ContactGroup4Data8setEmailERK7QString
libKF6Contacts.so.6:_ZN9KContacts12ContactGroup4DataC1ERK7QStringS4_
libKF6Contacts.so.6:_ZN9KContacts12ContactGroup4DataC1ERKS1_
libKF6Contacts.so.6:_ZN9KContacts12ContactGroup4DataC1Ev
libKF6Contacts.so.6:_ZN9KContacts12ContactGroup4DataC2ERK7QStringS4_
libKF6Contacts.so.6:_ZN9KContacts12ContactGroup4DataC2ERKS1_
libKF6Contacts.so.6:_ZN9KContacts12ContactGroup4DataC2Ev
libKF6Contacts.so.6:_ZN9KContacts12ContactGroup4DataD1Ev
libKF6Contacts.so.6:_ZN9KContacts12ContactGroup4DataD2Ev
libKF6Contacts.so.6:_ZN9KContacts12ContactGroup4DataaSERKS1_
libKF6Contacts.so.6:_ZN9KContacts12ContactGroup4dataEi
libKF6Contacts.so.6:_ZN9KContacts12ContactGroup5setIdERK7QString
libKF6Contacts.so.6:_ZN9KContacts12ContactGroup6appendERKNS0_16ContactReferenceE
libKF6Contacts.so.6:_ZN9KContacts12ContactGroup6appendERKNS0_21ContactGroupReferenceE
libKF6Contacts.so.6:_ZN9KContacts12ContactGroup6appendERKNS0_4DataE
libKF6Contacts.so.6:_ZN9KContacts12ContactGroup6removeERKNS0_16ContactReferenceE
libKF6Contacts.so.6:_ZN9KContacts12ContactGroup6removeERKNS0_21ContactGroupReferenceE
libKF6Contacts.so.6:_ZN9KContacts12ContactGroup6removeERKNS0_4DataE
libKF6Contacts.so.6:_ZN9KContacts12ContactGroup7setNameERK7QString
libKF6Contacts.so.6:_ZN9KContacts12ContactGroup8mimeTypeEv
libKF6Contacts.so.6:_ZN9KContacts12ContactGroupC1ERK7QString
libKF6Contacts.so.6:_ZN9KContacts12ContactGroupC1ERKS0_
libKF6Contacts.so.6:_ZN9KContacts12ContactGroupC1Ev
libKF6Contacts.so.6:_ZN9KContacts12ContactGroupC2ERK7QString
libKF6Contacts.so.6:_ZN9KContacts12ContactGroupC2ERKS0_
libKF6Contacts.so.6:_ZN9KContacts12ContactGroupC2Ev
libKF6Contacts.so.6:_ZN9KContacts12ContactGroupD1Ev
libKF6Contacts.so.6:_ZN9KContacts12ContactGroupD2Ev
libKF6Contacts.so.6:_ZN9KContacts12ContactGroupaSERKS0_
libKF6Contacts.so.6:_ZN9KContacts13AddressFormat16staticMetaObjectE
libKF6Contacts.so.6:_ZN9KContacts13AddressFormatC1ERKS0_
libKF6Contacts.so.6:_ZN9KContacts13AddressFormatC1Ev
libKF6Contacts.so.6:_ZN9KContacts13AddressFormatC2ERKS0_
libKF6Contacts.so.6:_ZN9KContacts13AddressFormatC2Ev
libKF6Contacts.so.6:_ZN9KContacts13AddressFormatD1Ev
libKF6Contacts.so.6:_ZN9KContacts13AddressFormatD2Ev
libKF6Contacts.so.6:_ZN9KContacts13AddressFormataSERKS0_
libKF6Contacts.so.6:_ZN9KContacts13LDIFConverter15LDIFToAddresseeERK7QStringR5QListINS_9AddresseeEERS4_INS_12ContactGroupEERK9QDateTime
libKF6Contacts.so.6:_ZN9KContacts13LDIFConverter15addresseeToLDIFERK5QListINS_9AddresseeEER7QString
libKF6Contacts.so.6:_ZN9KContacts13LDIFConverter15addresseeToLDIFERKNS_9AddresseeER7QString
libKF6Contacts.so.6:_ZN9KContacts13LDIFConverter18contactGroupToLDIFERK5QListINS_12ContactGroupEER7QString
libKF6Contacts.so.6:_ZN9KContacts13LDIFConverter18contactGroupToLDIFERKNS_12ContactGroupER7QString
libKF6Contacts.so.6:_ZN9KContacts13LDIFConverter30addresseeAndContactGroupToLDIFERK5QListINS_9AddresseeEERKS1_INS_12ContactGroupEER7QString
libKF6Contacts.so.6:_ZN9KContacts14VCardConverterC1Ev
libKF6Contacts.so.6:_ZN9KContacts14VCardConverterC2Ev
libKF6Contacts.so.6:_ZN9KContacts14VCardConverterD1Ev
libKF6Contacts.so.6:_ZN9KContacts14VCardConverterD2Ev
libKF6Contacts.so.6:_ZN9KContacts16ContactGroupTool12convertToXmlERK5QListINS_12ContactGroupEEP9QIODeviceP7QString
libKF6Contacts.so.6:_ZN9KContacts16ContactGroupTool12convertToXmlERKNS_12ContactGroupEP9QIODeviceP7QString
libKF6Contacts.so.6:_ZN9KContacts16ContactGroupTool14convertFromXmlEP9QIODeviceR5QListINS_12ContactGroupEEP7QString
libKF6Contacts.so.6:_ZN9KContacts16ContactGroupTool14convertFromXmlEP9QIODeviceRNS_12ContactGroupEP7QString
libKF6Contacts.so.6:_ZN9KContacts16staticMetaObjectE
libKF6Contacts.so.6:_ZN9KContacts17VCardStringToDateERK7QString
libKF6Contacts.so.6:_ZN9KContacts17adaptIMAttributesER10QByteArray
libKF6Contacts.so.6:_ZN9KContacts17dateToVCardStringE5QDate
libKF6Contacts.so.6:_ZN9KContacts17dateToVCardStringERK9QDateTime
libKF6Contacts.so.6:_ZN9KContacts18ResourceLocatorUrl12setPreferredEb
libKF6Contacts.so.6:_ZN9KContacts18ResourceLocatorUrl16staticMetaObjectE
libKF6Contacts.so.6:_ZN9KContacts18ResourceLocatorUrl6setUrlERK4QUrl
libKF6Contacts.so.6:_ZN9KContacts18ResourceLocatorUrl7setTypeE6QFlagsINS0_8TypeFlagEE
libKF6Contacts.so.6:_ZN9KContacts18ResourceLocatorUrl9setParamsERKNS_12ParameterMapE
libKF6Contacts.so.6:_ZN9KContacts18ResourceLocatorUrlC1ERKS0_
libKF6Contacts.so.6:_ZN9KContacts18ResourceLocatorUrlC1Ev
libKF6Contacts.so.6:_ZN9KContacts18ResourceLocatorUrlC2ERKS0_
libKF6Contacts.so.6:_ZN9KContacts18ResourceLocatorUrlC2Ev
libKF6Contacts.so.6:_ZN9KContacts18ResourceLocatorUrlD1Ev
libKF6Contacts.so.6:_ZN9KContacts18ResourceLocatorUrlD2Ev
libKF6Contacts.so.6:_ZN9KContacts18ResourceLocatorUrlaSERKS0_
libKF6Contacts.so.6:_ZN9KContacts20AddressFormatElement16staticMetaObjectE
libKF6Contacts.so.6:_ZN9KContacts20AddressFormatElementC1ERKS0_
libKF6Contacts.so.6:_ZN9KContacts20AddressFormatElementC1Ev
libKF6Contacts.so.6:_ZN9KContacts20AddressFormatElementC2ERKS0_
libKF6Contacts.so.6:_ZN9KContacts20AddressFormatElementC2Ev
libKF6Contacts.so.6:_ZN9KContacts20AddressFormatElementD1Ev
libKF6Contacts.so.6:_ZN9KContacts20AddressFormatElementD2Ev
libKF6Contacts.so.6:_ZN9KContacts20AddressFormatElementaSERKS0_
libKF6Contacts.so.6:_ZN9KContacts23AddressFormatRepository16formatForAddressERKNS_7AddressENS_23AddressFormatPreferenceE
libKF6Contacts.so.6:_ZN9KContacts23AddressFormatRepository16formatForCountryERK7QStringNS_29AddressFormatScriptPreferenceENS_23AddressFormatPreferenceE
libKF6Contacts.so.6:_ZN9KContacts23AddressFormatRepository16staticMetaObjectE
libKF6Contacts.so.6:_ZN9KContacts3Geo11setLatitudeEf
libKF6Contacts.so.6:_ZN9KContacts3Geo12setLongitudeEf
libKF6Contacts.so.6:_ZN9KContacts3Geo16staticMetaObjectE
libKF6Contacts.so.6:_ZN9KContacts3Geo5clearEv
libKF6Contacts.so.6:_ZN9KContacts3GeoC1ERKS0_
libKF6Contacts.so.6:_ZN9KContacts3GeoC1Eff
libKF6Contacts.so.6:_ZN9KContacts3GeoC1Ev
libKF6Contacts.so.6:_ZN9KContacts3GeoC2ERKS0_
libKF6Contacts.so.6:_ZN9KContacts3GeoC2Eff
libKF6Contacts.so.6:_ZN9KContacts3GeoC2Ev
libKF6Contacts.so.6:_ZN9KContacts3GeoD1Ev
libKF6Contacts.so.6:_ZN9KContacts3GeoD2Ev
libKF6Contacts.so.6:_ZN9KContacts3GeoaSERKS0_
libKF6Contacts.so.6:_ZN9KContacts3Key11setTextDataERK7QString
libKF6Contacts.so.6:_ZN9KContacts3Key13setBinaryDataERK10QByteArray
libKF6Contacts.so.6:_ZN9KContacts3Key19setCustomTypeStringERK7QString
libKF6Contacts.so.6:_ZN9KContacts3Key5setIdERK7QString
libKF6Contacts.so.6:_ZN9KContacts3Key7setTypeENS0_4TypeE
libKF6Contacts.so.6:_ZN9KContacts3Key8typeListEv
libKF6Contacts.so.6:_ZN9KContacts3Key9typeLabelENS0_4TypeE
libKF6Contacts.so.6:_ZN9KContacts3KeyC1ERK7QStringNS0_4TypeE
libKF6Contacts.so.6:_ZN9KContacts3KeyC1ERKS0_
libKF6Contacts.so.6:_ZN9KContacts3KeyC2ERK7QStringNS0_4TypeE
libKF6Contacts.so.6:_ZN9KContacts3KeyC2ERKS0_
libKF6Contacts.so.6:_ZN9KContacts3KeyD1Ev
libKF6Contacts.so.6:_ZN9KContacts3KeyD2Ev
libKF6Contacts.so.6:_ZN9KContacts3KeyaSERKS0_
libKF6Contacts.so.6:_ZN9KContacts3Org15setOrganizationERK7QString
libKF6Contacts.so.6:_ZN9KContacts3Org9setParamsERKNS_12ParameterMapE
libKF6Contacts.so.6:_ZN9KContacts3OrgC1ERK7QString
libKF6Contacts.so.6:_ZN9KContacts3OrgC1ERKS0_
libKF6Contacts.so.6:_ZN9KContacts3OrgC1Ev
libKF6Contacts.so.6:_ZN9KContacts3OrgC2ERK7QString
libKF6Contacts.so.6:_ZN9KContacts3OrgC2ERKS0_
libKF6Contacts.so.6:_ZN9KContacts3OrgC2Ev
libKF6Contacts.so.6:_ZN9KContacts3OrgD1Ev
libKF6Contacts.so.6:_ZN9KContacts3OrgD2Ev
libKF6Contacts.so.6:_ZN9KContacts3OrgaSERKS0_
libKF6Contacts.so.6:_ZN9KContacts4Impp10setAddressERK4QUrl
libKF6Contacts.so.6:_ZN9KContacts4Impp11serviceIconERK7QString
libKF6Contacts.so.6:_ZN9KContacts4Impp12serviceLabelERK7QString
libKF6Contacts.so.6:_ZN9KContacts4Impp12serviceTypesEv
libKF6Contacts.so.6:_ZN9KContacts4Impp12setPreferredEb
libKF6Contacts.so.6:_ZN9KContacts4Impp16staticMetaObjectE
libKF6Contacts.so.6:_ZN9KContacts4Impp9setParamsERKNS_12ParameterMapE
libKF6Contacts.so.6:_ZN9KContacts4ImppC1ERK4QUrl
libKF6Contacts.so.6:_ZN9KContacts4ImppC1ERKS0_
libKF6Contacts.so.6:_ZN9KContacts4ImppC1Ev
libKF6Contacts.so.6:_ZN9KContacts4ImppC2ERK4QUrl
libKF6Contacts.so.6:_ZN9KContacts4ImppC2ERKS0_
libKF6Contacts.so.6:_ZN9KContacts4ImppC2Ev
libKF6Contacts.so.6:_ZN9KContacts4ImppD1Ev
libKF6Contacts.so.6:_ZN9KContacts4ImppD2Ev
libKF6Contacts.so.6:_ZN9KContacts4ImppaSERKS0_
libKF6Contacts.so.6:_ZN9KContacts4Lang11setLanguageERK7QString
libKF6Contacts.so.6:_ZN9KContacts4Lang9setParamsERKNS_12ParameterMapE
libKF6Contacts.so.6:_ZN9KContacts4LangC1ERK7QString
libKF6Contacts.so.6:_ZN9KContacts4LangC1ERKS0_
libKF6Contacts.so.6:_ZN9KContacts4LangC1Ev
libKF6Contacts.so.6:_ZN9KContacts4LangC2ERK7QString
libKF6Contacts.so.6:_ZN9KContacts4LangC2ERKS0_
libKF6Contacts.so.6:_ZN9KContacts4LangC2Ev
libKF6Contacts.so.6:_ZN9KContacts4LangD1Ev
libKF6Contacts.so.6:_ZN9KContacts4LangD2Ev
libKF6Contacts.so.6:_ZN9KContacts4LangaSERKS0_
libKF6Contacts.so.6:_ZN9KContacts4Note7setNoteERK7QString
libKF6Contacts.so.6:_ZN9KContacts4NoteC1ERK7QString
libKF6Contacts.so.6:_ZN9KContacts4NoteC1ERKS0_
libKF6Contacts.so.6:_ZN9KContacts4NoteC1Ev
libKF6Contacts.so.6:_ZN9KContacts4NoteC2ERK7QString
libKF6Contacts.so.6:_ZN9KContacts4NoteC2ERKS0_
libKF6Contacts.so.6:_ZN9KContacts4NoteC2Ev
libKF6Contacts.so.6:_ZN9KContacts4NoteD1Ev
libKF6Contacts.so.6:_ZN9KContacts4NoteD2Ev
libKF6Contacts.so.6:_ZN9KContacts4NoteaSERKS0_
libKF6Contacts.so.6:_ZN9KContacts4Role7setRoleERK7QString
libKF6Contacts.so.6:_ZN9KContacts4Role9setParamsERKNS_12ParameterMapE
libKF6Contacts.so.6:_ZN9KContacts4RoleC1ERK7QString
libKF6Contacts.so.6:_ZN9KContacts4RoleC1ERKS0_
libKF6Contacts.so.6:_ZN9KContacts4RoleC1Ev
libKF6Contacts.so.6:_ZN9KContacts4RoleC2ERK7QString
libKF6Contacts.so.6:_ZN9KContacts4RoleC2ERKS0_
libKF6Contacts.so.6:_ZN9KContacts4RoleC2Ev
libKF6Contacts.so.6:_ZN9KContacts4RoleD1Ev
libKF6Contacts.so.6:_ZN9KContacts4RoleD2Ev
libKF6Contacts.so.6:_ZN9KContacts4RoleaSERKS0_
libKF6Contacts.so.6:_ZN9KContacts5Email12setPreferredEb
libKF6Contacts.so.6:_ZN9KContacts5Email16staticMetaObjectE
libKF6Contacts.so.6:_ZN9KContacts5Email7setTypeE6QFlagsINS0_8TypeFlagEE
libKF6Contacts.so.6:_ZN9KContacts5Email8setEmailERK7QString
libKF6Contacts.so.6:_ZN9KContacts5Email9setParamsERKNS_12ParameterMapE
libKF6Contacts.so.6:_ZN9KContacts5EmailC1ERK7QString
libKF6Contacts.so.6:_ZN9KContacts5EmailC1ERKS0_
libKF6Contacts.so.6:_ZN9KContacts5EmailC1Ev
libKF6Contacts.so.6:_ZN9KContacts5EmailC2ERK7QString
libKF6Contacts.so.6:_ZN9KContacts5EmailC2ERKS0_
libKF6Contacts.so.6:_ZN9KContacts5EmailC2Ev
libKF6Contacts.so.6:_ZN9KContacts5EmailD1Ev
libKF6Contacts.so.6:_ZN9KContacts5EmailD2Ev
libKF6Contacts.so.6:_ZN9KContacts5EmailaSERKS0_
libKF6Contacts.so.6:_ZN9KContacts5Sound6setUrlERK7QString
libKF6Contacts.so.6:_ZN9KContacts5Sound7setDataERK10QByteArray
libKF6Contacts.so.6:_ZN9KContacts5SoundC1ERK10QByteArray
libKF6Contacts.so.6:_ZN9KContacts5SoundC1ERK7QString
libKF6Contacts.so.6:_ZN9KContacts5SoundC1ERKS0_
libKF6Contacts.so.6:_ZN9KContacts5SoundC1Ev
libKF6Contacts.so.6:_ZN9KContacts5SoundC2ERK10QByteArray
libKF6Contacts.so.6:_ZN9KContacts5SoundC2ERK7QString
libKF6Contacts.so.6:_ZN9KContacts5SoundC2ERKS0_
libKF6Contacts.so.6:_ZN9KContacts5SoundC2Ev
libKF6Contacts.so.6:_ZN9KContacts5SoundD1Ev
libKF6Contacts.so.6:_ZN9KContacts5SoundD2Ev
libKF6Contacts.so.6:_ZN9KContacts5SoundaSERKS0_
libKF6Contacts.so.6:_ZN9KContacts5Title8setTitleERK7QString
libKF6Contacts.so.6:_ZN9KContacts5Title9setParamsERKNS_12ParameterMapE
libKF6Contacts.so.6:_ZN9KContacts5TitleC1ERK7QString
libKF6Contacts.so.6:_ZN9KContacts5TitleC1ERKS0_
libKF6Contacts.so.6:_ZN9KContacts5TitleC1Ev
libKF6Contacts.so.6:_ZN9KContacts5TitleC2ERK7QString
libKF6Contacts.so.6:_ZN9KContacts5TitleC2ERKS0_
libKF6Contacts.so.6:_ZN9KContacts5TitleC2Ev
libKF6Contacts.so.6:_ZN9KContacts5TitleD1Ev
libKF6Contacts.so.6:_ZN9KContacts5TitleD2Ev
libKF6Contacts.so.6:_ZN9KContacts5TitleaSERKS0_
libKF6Contacts.so.6:_ZN9KContacts6Gender10setCommentERK7QString
libKF6Contacts.so.6:_ZN9KContacts6Gender9setGenderERK7QString
libKF6Contacts.so.6:_ZN9KContacts6GenderC1ERK7QString
libKF6Contacts.so.6:_ZN9KContacts6GenderC1ERKS0_
libKF6Contacts.so.6:_ZN9KContacts6GenderC1Ev
libKF6Contacts.so.6:_ZN9KContacts6GenderC2ERK7QString
libKF6Contacts.so.6:_ZN9KContacts6GenderC2ERKS0_
libKF6Contacts.so.6:_ZN9KContacts6GenderC2Ev
libKF6Contacts.so.6:_ZN9KContacts6GenderD1Ev
libKF6Contacts.so.6:_ZN9KContacts6GenderD2Ev
libKF6Contacts.so.6:_ZN9KContacts6GenderaSERKS0_
libKF6Contacts.so.6:_ZN9KContacts7Address10labelLabelEv
libKF6Contacts.so.6:_ZN9KContacts7Address10setCountryERK7QString
libKF6Contacts.so.6:_ZN9KContacts7Address11regionLabelEv
libKF6Contacts.so.6:_ZN9KContacts7Address11setExtendedERK7QString
libKF6Contacts.so.6:_ZN9KContacts7Address11setLocalityERK7QString
libKF6Contacts.so.6:_ZN9KContacts7Address11streetLabelEv
libKF6Contacts.so.6:_ZN9KContacts7Address12countryLabelEv
libKF6Contacts.so.6:_ZN9KContacts7Address13extendedLabelEv
libKF6Contacts.so.6:_ZN9KContacts7Address13localityLabelEv
libKF6Contacts.so.6:_ZN9KContacts7Address13setPostalCodeERK7QString
libKF6Contacts.so.6:_ZN9KContacts7Address13typeFlagLabelENS0_8TypeFlagE
libKF6Contacts.so.6:_ZN9KContacts7Address15postalCodeLabelEv
libKF6Contacts.so.6:_ZN9KContacts7Address16setPostOfficeBoxERK7QString
libKF6Contacts.so.6:_ZN9KContacts7Address16staticMetaObjectE
libKF6Contacts.so.6:_ZN9KContacts7Address18postOfficeBoxLabelEv
libKF6Contacts.so.6:_ZN9KContacts7Address5clearEv
libKF6Contacts.so.6:_ZN9KContacts7Address5setIdERK7QString
libKF6Contacts.so.6:_ZN9KContacts7Address6setGeoERKNS_3GeoE
libKF6Contacts.so.6:_ZN9KContacts7Address7setTypeE6QFlagsINS0_8TypeFlagEE
libKF6Contacts.so.6:_ZN9KContacts7Address8setLabelERK7QString
libKF6Contacts.so.6:_ZN9KContacts7Address8typeListEv
libKF6Contacts.so.6:_ZN9KContacts7Address9setRegionERK7QString
libKF6Contacts.so.6:_ZN9KContacts7Address9setStreetERK7QString
libKF6Contacts.so.6:_ZN9KContacts7Address9typeLabelE6QFlagsINS0_8TypeFlagEE
libKF6Contacts.so.6:_ZN9KContacts7AddressC1E6QFlagsINS0_8TypeFlagEE
libKF6Contacts.so.6:_ZN9KContacts7AddressC1ERKS0_
libKF6Contacts.so.6:_ZN9KContacts7AddressC1Ev
libKF6Contacts.so.6:_ZN9KContacts7AddressC2E6QFlagsINS0_8TypeFlagEE
libKF6Contacts.so.6:_ZN9KContacts7AddressC2ERKS0_
libKF6Contacts.so.6:_ZN9KContacts7AddressC2Ev
libKF6Contacts.so.6:_ZN9KContacts7AddressD1Ev
libKF6Contacts.so.6:_ZN9KContacts7AddressD2Ev
libKF6Contacts.so.6:_ZN9KContacts7AddressaSERKS0_
libKF6Contacts.so.6:_ZN9KContacts7Picture10setRawDataERK10QByteArrayRK7QString
libKF6Contacts.so.6:_ZN9KContacts7Picture16staticMetaObjectE
libKF6Contacts.so.6:_ZN9KContacts7Picture6setUrlERK7QString
libKF6Contacts.so.6:_ZN9KContacts7Picture6setUrlERK7QStringS3_
libKF6Contacts.so.6:_ZN9KContacts7Picture7setDataERK6QImage
libKF6Contacts.so.6:_ZN9KContacts7PictureC1ERK6QImage
libKF6Contacts.so.6:_ZN9KContacts7PictureC1ERK7QString
libKF6Contacts.so.6:_ZN9KContacts7PictureC1ERKS0_
libKF6Contacts.so.6:_ZN9KContacts7PictureC1Ev
libKF6Contacts.so.6:_ZN9KContacts7PictureC2ERK6QImage
libKF6Contacts.so.6:_ZN9KContacts7PictureC2ERK7QString
libKF6Contacts.so.6:_ZN9KContacts7PictureC2ERKS0_
libKF6Contacts.so.6:_ZN9KContacts7PictureC2Ev
libKF6Contacts.so.6:_ZN9KContacts7PictureD1Ev
libKF6Contacts.so.6:_ZN9KContacts7PictureD2Ev
libKF6Contacts.so.6:_ZN9KContacts7PictureaSERKS0_
libKF6Contacts.so.6:_ZN9KContacts7Related10setRelatedERK7QString
libKF6Contacts.so.6:_ZN9KContacts7Related9setParamsERKNS_12ParameterMapE
libKF6Contacts.so.6:_ZN9KContacts7RelatedC1ERK7QString
libKF6Contacts.so.6:_ZN9KContacts7RelatedC1ERKS0_
libKF6Contacts.so.6:_ZN9KContacts7RelatedC1Ev
libKF6Contacts.so.6:_ZN9KContacts7RelatedC2ERK7QString
libKF6Contacts.so.6:_ZN9KContacts7RelatedC2ERKS0_
libKF6Contacts.so.6:_ZN9KContacts7RelatedC2Ev
libKF6Contacts.so.6:_ZN9KContacts7RelatedD1Ev
libKF6Contacts.so.6:_ZN9KContacts7RelatedD2Ev
libKF6Contacts.so.6:_ZN9KContacts7RelatedaSERKS0_
libKF6Contacts.so.6:_ZN9KContacts7Secrecy7setTypeENS0_4TypeE
libKF6Contacts.so.6:_ZN9KContacts7Secrecy8typeListEv
libKF6Contacts.so.6:_ZN9KContacts7Secrecy9typeLabelENS0_4TypeE
libKF6Contacts.so.6:_ZN9KContacts7SecrecyC1ENS0_4TypeE
libKF6Contacts.so.6:_ZN9KContacts7SecrecyC1ERKS0_
libKF6Contacts.so.6:_ZN9KContacts7SecrecyC2ENS0_4TypeE
libKF6Contacts.so.6:_ZN9KContacts7SecrecyC2ERKS0_
libKF6Contacts.so.6:_ZN9KContacts7SecrecyD1Ev
libKF6Contacts.so.6:_ZN9KContacts7SecrecyD2Ev
libKF6Contacts.so.6:_ZN9KContacts7SecrecyaSERKS0_
libKF6Contacts.so.6:_ZN9KContacts8NickName11setNickNameERK7QString
libKF6Contacts.so.6:_ZN9KContacts8NickName9setParamsERKNS_12ParameterMapE
libKF6Contacts.so.6:_ZN9KContacts8NickNameC1ERK7QString
libKF6Contacts.so.6:_ZN9KContacts8NickNameC1ERKS0_
libKF6Contacts.so.6:_ZN9KContacts8NickNameC1Ev
libKF6Contacts.so.6:_ZN9KContacts8NickNameC2ERK7QString
libKF6Contacts.so.6:_ZN9KContacts8NickNameC2ERKS0_
libKF6Contacts.so.6:_ZN9KContacts8NickNameC2Ev
libKF6Contacts.so.6:_ZN9KContacts8NickNameD1Ev
libKF6Contacts.so.6:_ZN9KContacts8NickNameD2Ev
libKF6Contacts.so.6:_ZN9KContacts8NickNameaSERKS0_
libKF6Contacts.so.6:_ZN9KContacts8TimeZone9setOffsetEi
libKF6Contacts.so.6:_ZN9KContacts8TimeZoneC1ERKS0_
libKF6Contacts.so.6:_ZN9KContacts8TimeZoneC1Ei
libKF6Contacts.so.6:_ZN9KContacts8TimeZoneC1Ev
libKF6Contacts.so.6:_ZN9KContacts8TimeZoneC2ERKS0_
libKF6Contacts.so.6:_ZN9KContacts8TimeZoneC2Ei
libKF6Contacts.so.6:_ZN9KContacts8TimeZoneC2Ev
libKF6Contacts.so.6:_ZN9KContacts8TimeZoneD1Ev
libKF6Contacts.so.6:_ZN9KContacts8TimeZoneD2Ev
libKF6Contacts.so.6:_ZN9KContacts8TimeZoneaSERKS0_
libKF6Contacts.so.6:_ZN9KContacts9Addressee10emailLabelEv
libKF6Contacts.so.6:_ZN9KContacts9Addressee10insertImppERKNS_4ImppE
libKF6Contacts.so.6:_ZN9KContacts9Addressee10insertLangERKNS_4LangE
libKF6Contacts.so.6:_ZN9KContacts9Addressee10pagerLabelEv
libKF6Contacts.so.6:_ZN9KContacts9Addressee10photoLabelEv
libKF6Contacts.so.6:_ZN9KContacts9Addressee10removeLangERK7QString
libKF6Contacts.so.6:_ZN9KContacts9Addressee10setChangedEb
libKF6Contacts.so.6:_ZN9KContacts9Addressee10setCustomsERK5QListI7QStringE
libKF6Contacts.so.6:_ZN9KContacts9Addressee10setMembersERK5QListI7QStringE
libKF6Contacts.so.6:_ZN9KContacts9Addressee10setSecrecyERKNS_7SecrecyE
libKF6Contacts.so.6:_ZN9KContacts9Addressee10soundLabelEv
libKF6Contacts.so.6:_ZN9KContacts9Addressee10titleLabelEv
libKF6Contacts.so.6:_ZN9KContacts9Addressee11mailerLabelEv
libKF6Contacts.so.6:_ZN9KContacts9Addressee11prefixLabelEv
libKF6Contacts.so.6:_ZN9KContacts9Addressee11removeEmailERK7QString
libKF6Contacts.so.6:_ZN9KContacts9Addressee11setBirthdayERK5QDate
libKF6Contacts.so.6:_ZN9KContacts9Addressee11setBirthdayERK9QDateTimeb
libKF6Contacts.so.6:_ZN9KContacts9Addressee11setBlogFeedERK4QUrl
libKF6Contacts.so.6:_ZN9KContacts9Addressee11setImppListERK5QListINS_4ImppEE
libKF6Contacts.so.6:_ZN9KContacts9Addressee11setNickNameERK7QString
libKF6Contacts.so.6:_ZN9KContacts9Addressee11setNickNameERKNS_8NickNameE
libKF6Contacts.so.6:_ZN9KContacts9Addressee11setRevisionERK9QDateTime
libKF6Contacts.so.6:_ZN9KContacts9Addressee11setTimeZoneERKNS_8TimeZoneE
libKF6Contacts.so.6:_ZN9KContacts9Addressee11suffixLabelEv
libKF6Contacts.so.6:_ZN9KContacts9Addressee12homeFaxLabelEv
libKF6Contacts.so.6:_ZN9KContacts9Addressee12insertCustomERK7QStringS3_S3_
libKF6Contacts.so.6:_ZN9KContacts9Addressee12insertMemberERK7QString
libKF6Contacts.so.6:_ZN9KContacts9Addressee12removeCustomERK7QStringS3_
libKF6Contacts.so.6:_ZN9KContacts9Addressee12secrecyLabelEv
libKF6Contacts.so.6:_ZN9KContacts9Addressee12setAddressesERK5QListINS_7AddressEE
libKF6Contacts.so.6:_ZN9KContacts9Addressee12setDeathDateERK9QDateTime
libKF6Contacts.so.6:_ZN9KContacts9Addressee12setEmailListERK5QListINS_5EmailEE
libKF6Contacts.so.6:_ZN9KContacts9Addressee12setGivenNameERK7QString
libKF6Contacts.so.6:_ZN9KContacts9Addressee12setProductIdERK7QString
libKF6Contacts.so.6:_ZN9KContacts9Addressee13birthdayLabelEv
libKF6Contacts.so.6:_ZN9KContacts9Addressee13carPhoneLabelEv
libKF6Contacts.so.6:_ZN9KContacts9Addressee13insertAddressERKNS_7AddressE
libKF6Contacts.so.6:_ZN9KContacts9Addressee13nickNameLabelEv
libKF6Contacts.so.6:_ZN9KContacts9Addressee13removeAddressERKNS_7AddressE
libKF6Contacts.so.6:_ZN9KContacts9Addressee13revisionLabelEv
libKF6Contacts.so.6:_ZN9KContacts9Addressee13setCategoriesERK5QListI7QStringE
libKF6Contacts.so.6:_ZN9KContacts9Addressee13setDepartmentERK7QString
libKF6Contacts.so.6:_ZN9KContacts9Addressee13setFamilyNameERK7QString
libKF6Contacts.so.6:_ZN9KContacts9Addressee13setProfessionERK7QString
libKF6Contacts.so.6:_ZN9KContacts9Addressee13setSortStringERK7QString
libKF6Contacts.so.6:_ZN9KContacts9Addressee13timeZoneLabelEv
libKF6Contacts.so.6:_ZN9KContacts9Addressee14givenNameLabelEv
libKF6Contacts.so.6:_ZN9KContacts9Addressee14homePhoneLabelEv
libKF6Contacts.so.6:_ZN9KContacts9Addressee14insertCategoryERK7QString
libKF6Contacts.so.6:_ZN9KContacts9Addressee14insertExtraUrlERKNS_18ResourceLocatorUrlE
libKF6Contacts.so.6:_ZN9KContacts9Addressee14productIdLabelEv
libKF6Contacts.so.6:_ZN9KContacts9Addressee14removeCategoryERK7QString
libKF6Contacts.so.6:_ZN9KContacts9Addressee14setAnniversaryERK5QDate
libKF6Contacts.so.6:_ZN9KContacts9Addressee14setSpousesNameERK7QString
libKF6Contacts.so.6:_ZN9KContacts9Addressee15departmentLabelEv
libKF6Contacts.so.6:_ZN9KContacts9Addressee15familyNameLabelEv
libKF6Contacts.so.6:_ZN9KContacts9Addressee15insertExtraLogoERKNS_7PictureE
libKF6Contacts.so.6:_ZN9KContacts9Addressee15insertExtraRoleERKNS_4RoleE
libKF6Contacts.so.6:_ZN9KContacts9Addressee15insertSourceUrlERK4QUrl
libKF6Contacts.so.6:_ZN9KContacts9Addressee15setExtraUrlListERK5QListINS_18ResourceLocatorUrlEE
libKF6Contacts.so.6:_ZN9KContacts9Addressee15setManagersNameERK7QString
libKF6Contacts.so.6:_ZN9KContacts9Addressee15setOrganizationERK7QString
libKF6Contacts.so.6:_ZN9KContacts9Addressee15setOrganizationERKNS_3OrgE
libKF6Contacts.so.6:_ZN9KContacts9Addressee15setPhoneNumbersERK5QListINS_11PhoneNumberEE
libKF6Contacts.so.6:_ZN9KContacts9Addressee15sortStringLabelEv
libKF6Contacts.so.6:_ZN9KContacts9Addressee16businessFaxLabelEv
libKF6Contacts.so.6:_ZN9KContacts9Addressee16insertExtraPhotoERKNS_7PictureE
libKF6Contacts.so.6:_ZN9KContacts9Addressee16insertExtraSoundERKNS_5SoundE
libKF6Contacts.so.6:_ZN9KContacts9Addressee16insertExtraTitleERKNS_5TitleE
libKF6Contacts.so.6:_ZN9KContacts9Addressee16insertFieldGroupERKNS_10FieldGroupE
libKF6Contacts.so.6:_ZN9KContacts9Addressee16mobilePhoneLabelEv
libKF6Contacts.so.6:_ZN9KContacts9Addressee16setExtraLogoListERK5QListINS_7PictureEE
libKF6Contacts.so.6:_ZN9KContacts9Addressee16setExtraRoleListERK5QListINS_4RoleEE
libKF6Contacts.so.6:_ZN9KContacts9Addressee16setFormattedNameERK7QString
libKF6Contacts.so.6:_ZN9KContacts9Addressee16setRelationshipsERK5QListINS_7RelatedEE
libKF6Contacts.so.6:_ZN9KContacts9Addressee16staticMetaObjectE
libKF6Contacts.so.6:_ZN9KContacts9Addressee17insertCalendarUrlERKNS_11CalendarUrlE
libKF6Contacts.so.6:_ZN9KContacts9Addressee17insertPhoneNumberERKNS_11PhoneNumberE
libKF6Contacts.so.6:_ZN9KContacts9Addressee17organizationLabelEv
libKF6Contacts.so.6:_ZN9KContacts9Addressee17parseEmailAddressERK7QStringRS1_S4_
libKF6Contacts.so.6:_ZN9KContacts9Addressee17removePhoneNumberERKNS_11PhoneNumberE
libKF6Contacts.so.6:_ZN9KContacts9Addressee17setAdditionalNameERK7QString
libKF6Contacts.so.6:_ZN9KContacts9Addressee17setAssistantsNameERK7QString
libKF6Contacts.so.6:_ZN9KContacts9Addressee17setExtraPhotoListERK5QListINS_7PictureEE
libKF6Contacts.so.6:_ZN9KContacts9Addressee17setExtraSoundListERK5QListINS_5SoundEE
libKF6Contacts.so.6:_ZN9KContacts9Addressee17setExtraTitleListERK5QListINS_5TitleEE
libKF6Contacts.so.6:_ZN9KContacts9Addressee17setFieldGroupListERK5QListINS_10FieldGroupEE
libKF6Contacts.so.6:_ZN9KContacts9Addressee17setNameFromStringERK7QString
libKF6Contacts.so.6:_ZN9KContacts9Addressee17setSourcesUrlListERK5QListI4QUrlE
libKF6Contacts.so.6:_ZN9KContacts9Addressee18businessPhoneLabelEv
libKF6Contacts.so.6:_ZN9KContacts9Addressee18formattedNameLabelEv
libKF6Contacts.so.6:_ZN9KContacts9Addressee18insertClientPidMapERKNS_12ClientPidMapE
libKF6Contacts.so.6:_ZN9KContacts9Addressee18insertRelationshipERKNS_7RelatedE
libKF6Contacts.so.6:_ZN9KContacts9Addressee19additionalNameLabelEv
libKF6Contacts.so.6:_ZN9KContacts9Addressee19insertExtraNickNameERKNS_8NickNameE
libKF6Contacts.so.6:_ZN9KContacts9Addressee19setClientPidMapListERK5QListINS_12ClientPidMapEE
libKF6Contacts.so.6:_ZN9KContacts9Addressee20setExtraNickNameListERK5QListINS_8NickNameEE
libKF6Contacts.so.6:_ZN9KContacts9Addressee21homeAddressLabelLabelEv
libKF6Contacts.so.6:_ZN9KContacts9Addressee22homeAddressRegionLabelEv
libKF6Contacts.so.6:_ZN9KContacts9Addressee22homeAddressStreetLabelEv
libKF6Contacts.so.6:_ZN9KContacts9Addressee23homeAddressCountryLabelEv
libKF6Contacts.so.6:_ZN9KContacts9Addressee23insertExtraOrganizationERKNS_3OrgE
libKF6Contacts.so.6:_ZN9KContacts9Addressee24homeAddressLocalityLabelEv
libKF6Contacts.so.6:_ZN9KContacts9Addressee24setExtraOrganizationListERK5QListINS_3OrgEE
libKF6Contacts.so.6:_ZN9KContacts9Addressee25businessAddressLabelLabelEv
libKF6Contacts.so.6:_ZN9KContacts9Addressee26businessAddressRegionLabelEv
libKF6Contacts.so.6:_ZN9KContacts9Addressee26businessAddressStreetLabelEv
libKF6Contacts.so.6:_ZN9KContacts9Addressee26homeAddressPostalCodeLabelEv
libKF6Contacts.so.6:_ZN9KContacts9Addressee27businessAddressCountryLabelEv
libKF6Contacts.so.6:_ZN9KContacts9Addressee28businessAddressLocalityLabelEv
libKF6Contacts.so.6:_ZN9KContacts9Addressee29homeAddressPostOfficeBoxLabelEv
libKF6Contacts.so.6:_ZN9KContacts9Addressee30businessAddressPostalCodeLabelEv
libKF6Contacts.so.6:_ZN9KContacts9Addressee33businessAddressPostOfficeBoxLabelEv
libKF6Contacts.so.6:_ZN9KContacts9Addressee6setGeoERKNS_3GeoE
libKF6Contacts.so.6:_ZN9KContacts9Addressee6setUidERK7QString
libKF6Contacts.so.6:_ZN9KContacts9Addressee6setUrlERK4QUrl
libKF6Contacts.so.6:_ZN9KContacts9Addressee6setUrlERKNS_18ResourceLocatorUrlE
libKF6Contacts.so.6:_ZN9KContacts9Addressee7setKeysERK5QListINS_3KeyEE
libKF6Contacts.so.6:_ZN9KContacts9Addressee7setKindERK7QString
libKF6Contacts.so.6:_ZN9KContacts9Addressee7setLogoERKNS_7PictureE
libKF6Contacts.so.6:_ZN9KContacts9Addressee7setNameERK7QString
libKF6Contacts.so.6:_ZN9KContacts9Addressee7setNoteERK7QString
libKF6Contacts.so.6:_ZN9KContacts9Addressee7setRoleERK7QString
libKF6Contacts.so.6:_ZN9KContacts9Addressee7setRoleERKNS_4RoleE
libKF6Contacts.so.6:_ZN9KContacts9Addressee8addEmailERKNS_5EmailE
libKF6Contacts.so.6:_ZN9KContacts9Addressee8geoLabelEv
libKF6Contacts.so.6:_ZN9KContacts9Addressee8mimeTypeEv
libKF6Contacts.so.6:_ZN9KContacts9Addressee8setLangsERK5QListINS_4LangEE
libKF6Contacts.so.6:_ZN9KContacts9Addressee8setPhotoERKNS_7PictureE
libKF6Contacts.so.6:_ZN9KContacts9Addressee8setSoundERKNS_5SoundE
libKF6Contacts.so.6:_ZN9KContacts9Addressee8setTitleERK7QString
libKF6Contacts.so.6:_ZN9KContacts9Addressee8setTitleERKNS_5TitleE
libKF6Contacts.so.6:_ZN9KContacts9Addressee8uidLabelEv
libKF6Contacts.so.6:_ZN9KContacts9Addressee8urlLabelEv
libKF6Contacts.so.6:_ZN9KContacts9Addressee9insertKeyERKNS_3KeyE
libKF6Contacts.so.6:_ZN9KContacts9Addressee9isdnLabelEv
libKF6Contacts.so.6:_ZN9KContacts9Addressee9logoLabelEv
libKF6Contacts.so.6:_ZN9KContacts9Addressee9nameLabelEv
libKF6Contacts.so.6:_ZN9KContacts9Addressee9noteLabelEv
libKF6Contacts.so.6:_ZN9KContacts9Addressee9removeKeyERKNS_3KeyE
libKF6Contacts.so.6:_ZN9KContacts9Addressee9roleLabelEv
libKF6Contacts.so.6:_ZN9KContacts9Addressee9setEmailsERK5QListI7QStringE
libKF6Contacts.so.6:_ZN9KContacts9Addressee9setGenderERKNS_6GenderE
libKF6Contacts.so.6:_ZN9KContacts9Addressee9setMailerERK7QString
libKF6Contacts.so.6:_ZN9KContacts9Addressee9setOfficeERK7QString
libKF6Contacts.so.6:_ZN9KContacts9Addressee9setPrefixERK7QString
libKF6Contacts.so.6:_ZN9KContacts9Addressee9setSuffixERK7QString
libKF6Contacts.so.6:_ZN9KContacts9AddresseeC1ERKS0_
libKF6Contacts.so.6:_ZN9KContacts9AddresseeC1Ev
libKF6Contacts.so.6:_ZN9KContacts9AddresseeC2ERKS0_
libKF6Contacts.so.6:_ZN9KContacts9AddresseeC2Ev
libKF6Contacts.so.6:_ZN9KContacts9AddresseeD1Ev
libKF6Contacts.so.6:_ZN9KContacts9AddresseeD2Ev
libKF6Contacts.so.6:_ZN9KContacts9AddresseeaSERKS0_
libKF6Contacts.so.6:_ZN9KContacts9VCardDrag12fromMimeDataEPK9QMimeDataR10QByteArray
libKF6Contacts.so.6:_ZN9KContacts9VCardDrag12fromMimeDataEPK9QMimeDataR5QListINS_9AddresseeEE
libKF6Contacts.so.6:_ZN9KContacts9VCardDrag16populateMimeDataEP9QMimeDataRK10QByteArray
libKF6Contacts.so.6:_ZN9KContacts9VCardDrag16populateMimeDataEP9QMimeDataRK5QListINS_9AddresseeEE
libKF6Contacts.so.6:_ZN9KContacts9VCardDrag9canDecodeEPK9QMimeData
libKF6Contacts.so.6:_ZN9KContacts9VCardLine12addParameterERK7QStringS3_
libKF6Contacts.so.6:_ZN9KContacts9VCardLine13addParametersERKNS_12ParameterMapE
libKF6Contacts.so.6:_ZN9KContacts9VCardLine13setIdentifierERK7QString
libKF6Contacts.so.6:_ZN9KContacts9VCardLine14setBase64ValueERK10QByteArray
libKF6Contacts.so.6:_ZN9KContacts9VCardLine8setGroupERK7QString
libKF6Contacts.so.6:_ZN9KContacts9VCardLine8setValueERK8QVariant
libKF6Contacts.so.6:_ZN9KContacts9VCardLineC1ERK7QString
libKF6Contacts.so.6:_ZN9KContacts9VCardLineC1ERK7QStringRK8QVariant
libKF6Contacts.so.6:_ZN9KContacts9VCardLineC1ERKS0_
libKF6Contacts.so.6:_ZN9KContacts9VCardLineC1Ev
libKF6Contacts.so.6:_ZN9KContacts9VCardLineC2ERK7QString
libKF6Contacts.so.6:_ZN9KContacts9VCardLineC2ERK7QStringRK8QVariant
libKF6Contacts.so.6:_ZN9KContacts9VCardLineC2ERKS0_
libKF6Contacts.so.6:_ZN9KContacts9VCardLineC2Ev
libKF6Contacts.so.6:_ZN9KContacts9VCardLineD1Ev
libKF6Contacts.so.6:_ZN9KContacts9VCardLineD2Ev
libKF6Contacts.so.6:_ZN9KContacts9VCardLineaSERKS0_
libKF6Contacts.so.6:_ZN9KContacts9VCardTool10createDateERK5QDateNS_5VCard7VersionE
libKF6Contacts.so.6:_ZN9KContacts9VCardTool10createTimeERK5QTimeNS_5VCard7VersionE
libKF6Contacts.so.6:_ZN9KContacts9VCardTool13parseDateTimeERK7QStringPb
libKF6Contacts.so.6:_ZN9KContacts9VCardTool14createDateTimeERK9QDateTimeNS_5VCard7VersionEb
libKF6Contacts.so.6:_ZN9KContacts9VCardToolC1Ev
libKF6Contacts.so.6:_ZN9KContacts9VCardToolC2Ev
libKF6Contacts.so.6:_ZN9KContacts9VCardToolD1Ev
libKF6Contacts.so.6:_ZN9KContacts9VCardToolD2Ev
libKF6Contacts.so.6:_ZN9KContactslsER11QDataStreamRKNS_10FieldGroupE
libKF6Contacts.so.6:_ZN9KContactslsER11QDataStreamRKNS_11CalendarUrlE
libKF6Contacts.so.6:_ZN9KContactslsER11QDataStreamRKNS_11PhoneNumberE
libKF6Contacts.so.6:_ZN9KContactslsER11QDataStreamRKNS_12ClientPidMapE
libKF6Contacts.so.6:_ZN9KContactslsER11QDataStreamRKNS_18ResourceLocatorUrlE
libKF6Contacts.so.6:_ZN9KContactslsER11QDataStreamRKNS_3GeoE
libKF6Contacts.so.6:_ZN9KContactslsER11QDataStreamRKNS_3KeyE
libKF6Contacts.so.6:_ZN9KContactslsER11QDataStreamRKNS_3OrgE
libKF6Contacts.so.6:_ZN9KContactslsER11QDataStreamRKNS_4ImppE
libKF6Contacts.so.6:_ZN9KContactslsER11QDataStreamRKNS_4LangE
libKF6Contacts.so.6:_ZN9KContactslsER11QDataStreamRKNS_4NoteE
libKF6Contacts.so.6:_ZN9KContactslsER11QDataStreamRKNS_4RoleE
libKF6Contacts.so.6:_ZN9KContactslsER11QDataStreamRKNS_5EmailE
libKF6Contacts.so.6:_ZN9KContactslsER11QDataStreamRKNS_5SoundE
libKF6Contacts.so.6:_ZN9KContactslsER11QDataStreamRKNS_5TitleE
libKF6Contacts.so.6:_ZN9KContactslsER11QDataStreamRKNS_6GenderE
libKF6Contacts.so.6:_ZN9KContactslsER11QDataStreamRKNS_7AddressE
libKF6Contacts.so.6:_ZN9KContactslsER11QDataStreamRKNS_7PictureE
libKF6Contacts.so.6:_ZN9KContactslsER11QDataStreamRKNS_7RelatedE
libKF6Contacts.so.6:_ZN9KContactslsER11QDataStreamRKNS_7SecrecyE
libKF6Contacts.so.6:_ZN9KContactslsER11QDataStreamRKNS_8NickNameE
libKF6Contacts.so.6:_ZN9KContactslsER11QDataStreamRKNS_8TimeZoneE
libKF6Contacts.so.6:_ZN9KContactslsER11QDataStreamRKNS_9AddresseeE
libKF6Contacts.so.6:_ZN9KContactsrsER11QDataStreamRNS_10FieldGroupE
libKF6Contacts.so.6:_ZN9KContactsrsER11QDataStreamRNS_11CalendarUrlE
libKF6Contacts.so.6:_ZN9KContactsrsER11QDataStreamRNS_11PhoneNumberE
libKF6Contacts.so.6:_ZN9KContactsrsER11QDataStreamRNS_12ClientPidMapE
libKF6Contacts.so.6:_ZN9KContactsrsER11QDataStreamRNS_18ResourceLocatorUrlE
libKF6Contacts.so.6:_ZN9KContactsrsER11QDataStreamRNS_3GeoE
libKF6Contacts.so.6:_ZN9KContactsrsER11QDataStreamRNS_3KeyE
libKF6Contacts.so.6:_ZN9KContactsrsER11QDataStreamRNS_3OrgE
libKF6Contacts.so.6:_ZN9KContactsrsER11QDataStreamRNS_4ImppE
libKF6Contacts.so.6:_ZN9KContactsrsER11QDataStreamRNS_4LangE
libKF6Contacts.so.6:_ZN9KContactsrsER11QDataStreamRNS_4NoteE
libKF6Contacts.so.6:_ZN9KContactsrsER11QDataStreamRNS_4RoleE
libKF6Contacts.so.6:_ZN9KContactsrsER11QDataStreamRNS_5EmailE
libKF6Contacts.so.6:_ZN9KContactsrsER11QDataStreamRNS_5SoundE
libKF6Contacts.so.6:_ZN9KContactsrsER11QDataStreamRNS_5TitleE
libKF6Contacts.so.6:_ZN9KContactsrsER11QDataStreamRNS_6GenderE
libKF6Contacts.so.6:_ZN9KContactsrsER11QDataStreamRNS_7AddressE
libKF6Contacts.so.6:_ZN9KContactsrsER11QDataStreamRNS_7PictureE
libKF6Contacts.so.6:_ZN9KContactsrsER11QDataStreamRNS_7RelatedE
libKF6Contacts.so.6:_ZN9KContactsrsER11QDataStreamRNS_7SecrecyE
libKF6Contacts.so.6:_ZN9KContactsrsER11QDataStreamRNS_8NickNameE
libKF6Contacts.so.6:_ZN9KContactsrsER11QDataStreamRNS_8TimeZoneE
libKF6Contacts.so.6:_ZN9KContactsrsER11QDataStreamRNS_9AddresseeE
libKF6Contacts.so.6:_ZNK9KContacts10FieldGroup14fieldGroupNameEv
libKF6Contacts.so.6:_ZNK9KContacts10FieldGroup5valueEv
libKF6Contacts.so.6:_ZNK9KContacts10FieldGroup6paramsEv
libKF6Contacts.so.6:_ZNK9KContacts10FieldGroup7isValidEv
libKF6Contacts.so.6:_ZNK9KContacts10FieldGroup8toStringEv
libKF6Contacts.so.6:_ZNK9KContacts10FieldGroupeqERKS0_
libKF6Contacts.so.6:_ZNK9KContacts10FieldGroupneERKS0_
libKF6Contacts.so.6:_ZNK9KContacts11CalendarUrl3urlEv
libKF6Contacts.so.6:_ZNK9KContacts11CalendarUrl4typeEv
libKF6Contacts.so.6:_ZNK9KContacts11CalendarUrl6paramsEv
libKF6Contacts.so.6:_ZNK9KContacts11CalendarUrl7isValidEv
libKF6Contacts.so.6:_ZNK9KContacts11CalendarUrl8toStringEv
libKF6Contacts.so.6:_ZNK9KContacts11CalendarUrleqERKS0_
libKF6Contacts.so.6:_ZNK9KContacts11CalendarUrlneERKS0_
libKF6Contacts.so.6:_ZNK9KContacts11PhoneNumber11isPreferredEv
libKF6Contacts.so.6:_ZNK9KContacts11PhoneNumber11supportsSmsEv
libKF6Contacts.so.6:_ZNK9KContacts11PhoneNumber16normalizedNumberEv
libKF6Contacts.so.6:_ZNK9KContacts11PhoneNumber2idEv
libKF6Contacts.so.6:_ZNK9KContacts11PhoneNumber4typeEv
libKF6Contacts.so.6:_ZNK9KContacts11PhoneNumber6numberEv
libKF6Contacts.so.6:_ZNK9KContacts11PhoneNumber7isEmptyEv
libKF6Contacts.so.6:_ZNK9KContacts11PhoneNumber8toStringEv
libKF6Contacts.so.6:_ZNK9KContacts11PhoneNumber9typeLabelEv
libKF6Contacts.so.6:_ZNK9KContacts11PhoneNumbereqERKS0_
libKF6Contacts.so.6:_ZNK9KContacts11PhoneNumberneERKS0_
libKF6Contacts.so.6:_ZNK9KContacts12ClientPidMap12clientPidMapEv
libKF6Contacts.so.6:_ZNK9KContacts12ClientPidMap6paramsEv
libKF6Contacts.so.6:_ZNK9KContacts12ClientPidMap7isValidEv
libKF6Contacts.so.6:_ZNK9KContacts12ClientPidMap8toStringEv
libKF6Contacts.so.6:_ZNK9KContacts12ClientPidMapeqERKS0_
libKF6Contacts.so.6:_ZNK9KContacts12ClientPidMapneERKS0_
libKF6Contacts.so.6:_ZNK9KContacts12ContactGroup16ContactReference14preferredEmailEv
libKF6Contacts.so.6:_ZNK9KContacts12ContactGroup16ContactReference3gidEv
libKF6Contacts.so.6:_ZNK9KContacts12ContactGroup16ContactReference3uidEv
libKF6Contacts.so.6:_ZNK9KContacts12ContactGroup16ContactReference6customERK7QString
libKF6Contacts.so.6:_ZNK9KContacts12ContactGroup16ContactReferenceeqERKS1_
libKF6Contacts.so.6:_ZNK9KContacts12ContactGroup16contactReferenceEi
libKF6Contacts.so.6:_ZNK9KContacts12ContactGroup21ContactGroupReference3uidEv
libKF6Contacts.so.6:_ZNK9KContacts12ContactGroup21ContactGroupReference6customERK7QString
libKF6Contacts.so.6:_ZNK9KContacts12ContactGroup21ContactGroupReferenceeqERKS1_
libKF6Contacts.so.6:_ZNK9KContacts12ContactGroup21contactGroupReferenceEi
libKF6Contacts.so.6:_ZNK9KContacts12ContactGroup21contactReferenceCountEv
libKF6Contacts.so.6:_ZNK9KContacts12ContactGroup26contactGroupReferenceCountEv
libKF6Contacts.so.6:_ZNK9KContacts12ContactGroup2idEv
libKF6Contacts.so.6:_ZNK9KContacts12ContactGroup4Data4nameEv
libKF6Contacts.so.6:_ZNK9KContacts12ContactGroup4Data5emailEv
libKF6Contacts.so.6:_ZNK9KContacts12ContactGroup4Data6customERK7QString
libKF6Contacts.so.6:_ZNK9KContacts12ContactGroup4DataeqERKS1_
libKF6Contacts.so.6:_ZNK9KContacts12ContactGroup4dataEi
libKF6Contacts.so.6:_ZNK9KContacts12ContactGroup4nameEv
libKF6Contacts.so.6:_ZNK9KContacts12ContactGroup5countEv
libKF6Contacts.so.6:_ZNK9KContacts12ContactGroup9dataCountEv
libKF6Contacts.so.6:_ZNK9KContacts12ContactGroupeqERKS0_
libKF6Contacts.so.6:_ZNK9KContacts13AddressFormat10usedFieldsEv
libKF6Contacts.so.6:_ZNK9KContacts13AddressFormat14requiredFieldsEv
libKF6Contacts.so.6:_ZNK9KContacts13AddressFormat15upperCaseFieldsEv
libKF6Contacts.so.6:_ZNK9KContacts13AddressFormat27postalCodeRegularExpressionEv
libKF6Contacts.so.6:_ZNK9KContacts13AddressFormat7countryEv
libKF6Contacts.so.6:_ZNK9KContacts13AddressFormat8elementsEv
libKF6Contacts.so.6:_ZNK9KContacts14VCardConverter10parseVCardERK10QByteArray
libKF6Contacts.so.6:_ZNK9KContacts14VCardConverter11createVCardERKNS_9AddresseeENS0_7VersionE
libKF6Contacts.so.6:_ZNK9KContacts14VCardConverter11exportVCardERKNS_9AddresseeENS0_7VersionE
libKF6Contacts.so.6:_ZNK9KContacts14VCardConverter11parseVCardsERK10QByteArray
libKF6Contacts.so.6:_ZNK9KContacts14VCardConverter12createVCardsERK5QListINS_9AddresseeEENS0_7VersionE
libKF6Contacts.so.6:_ZNK9KContacts14VCardConverter12exportVCardsERK5QListINS_9AddresseeEENS0_7VersionE
libKF6Contacts.so.6:_ZNK9KContacts18ResourceLocatorUrl11isPreferredEv
libKF6Contacts.so.6:_ZNK9KContacts18ResourceLocatorUrl13resourceLabelEv
libKF6Contacts.so.6:_ZNK9KContacts18ResourceLocatorUrl3urlEv
libKF6Contacts.so.6:_ZNK9KContacts18ResourceLocatorUrl4typeEv
libKF6Contacts.so.6:_ZNK9KContacts18ResourceLocatorUrl6paramsEv
libKF6Contacts.so.6:_ZNK9KContacts18ResourceLocatorUrl7isValidEv
libKF6Contacts.so.6:_ZNK9KContacts18ResourceLocatorUrl8toStringEv
libKF6Contacts.so.6:_ZNK9KContacts18ResourceLocatorUrleqERKS0_
libKF6Contacts.so.6:_ZNK9KContacts18ResourceLocatorUrlneERKS0_
libKF6Contacts.so.6:_ZNK9KContacts20AddressFormatElement11isSeparatorEv
libKF6Contacts.so.6:_ZNK9KContacts20AddressFormatElement5fieldEv
libKF6Contacts.so.6:_ZNK9KContacts20AddressFormatElement7isFieldEv
libKF6Contacts.so.6:_ZNK9KContacts20AddressFormatElement7literalEv
libKF6Contacts.so.6:_ZNK9KContacts20AddressFormatElement9isLiteralEv
libKF6Contacts.so.6:_ZNK9KContacts3Geo7isValidEv
libKF6Contacts.so.6:_ZNK9KContacts3Geo8latitudeEv
libKF6Contacts.so.6:_ZNK9KContacts3Geo8toStringEv
libKF6Contacts.so.6:_ZNK9KContacts3Geo9longitudeEv
libKF6Contacts.so.6:_ZNK9KContacts3GeoeqERKS0_
libKF6Contacts.so.6:_ZNK9KContacts3GeoneERKS0_
libKF6Contacts.so.6:_ZNK9KContacts3Key10binaryDataEv
libKF6Contacts.so.6:_ZNK9KContacts3Key16customTypeStringEv
libKF6Contacts.so.6:_ZNK9KContacts3Key2idEv
libKF6Contacts.so.6:_ZNK9KContacts3Key4typeEv
libKF6Contacts.so.6:_ZNK9KContacts3Key8isBinaryEv
libKF6Contacts.so.6:_ZNK9KContacts3Key8textDataEv
libKF6Contacts.so.6:_ZNK9KContacts3Key8toStringEv
libKF6Contacts.so.6:_ZNK9KContacts3KeyeqERKS0_
libKF6Contacts.so.6:_ZNK9KContacts3KeyneERKS0_
libKF6Contacts.so.6:_ZNK9KContacts3Org12organizationEv
libKF6Contacts.so.6:_ZNK9KContacts3Org6paramsEv
libKF6Contacts.so.6:_ZNK9KContacts3Org7isValidEv
libKF6Contacts.so.6:_ZNK9KContacts3Org8toStringEv
libKF6Contacts.so.6:_ZNK9KContacts3OrgeqERKS0_
libKF6Contacts.so.6:_ZNK9KContacts3OrgneERKS0_
libKF6Contacts.so.6:_ZNK9KContacts4Impp11isPreferredEv
libKF6Contacts.so.6:_ZNK9KContacts4Impp11serviceIconEv
libKF6Contacts.so.6:_ZNK9KContacts4Impp11serviceTypeEv
libKF6Contacts.so.6:_ZNK9KContacts4Impp12serviceLabelEv
libKF6Contacts.so.6:_ZNK9KContacts4Impp6paramsEv
libKF6Contacts.so.6:_ZNK9KContacts4Impp7addressEv
libKF6Contacts.so.6:_ZNK9KContacts4Impp7isValidEv
libKF6Contacts.so.6:_ZNK9KContacts4Impp8toStringEv
libKF6Contacts.so.6:_ZNK9KContacts4ImppeqERKS0_
libKF6Contacts.so.6:_ZNK9KContacts4ImppneERKS0_
libKF6Contacts.so.6:_ZNK9KContacts4Lang6paramsEv
libKF6Contacts.so.6:_ZNK9KContacts4Lang7isValidEv
libKF6Contacts.so.6:_ZNK9KContacts4Lang8languageEv
libKF6Contacts.so.6:_ZNK9KContacts4Lang8toStringEv
libKF6Contacts.so.6:_ZNK9KContacts4LangeqERKS0_
libKF6Contacts.so.6:_ZNK9KContacts4LangneERKS0_
libKF6Contacts.so.6:_ZNK9KContacts4Note4noteEv
libKF6Contacts.so.6:_ZNK9KContacts4Note7isValidEv
libKF6Contacts.so.6:_ZNK9KContacts4Note8toStringEv
libKF6Contacts.so.6:_ZNK9KContacts4NoteeqERKS0_
libKF6Contacts.so.6:_ZNK9KContacts4NoteneERKS0_
libKF6Contacts.so.6:_ZNK9KContacts4Role4roleEv
libKF6Contacts.so.6:_ZNK9KContacts4Role6paramsEv
libKF6Contacts.so.6:_ZNK9KContacts4Role7isValidEv
libKF6Contacts.so.6:_ZNK9KContacts4Role8toStringEv
libKF6Contacts.so.6:_ZNK9KContacts4RoleeqERKS0_
libKF6Contacts.so.6:_ZNK9KContacts4RoleneERKS0_
libKF6Contacts.so.6:_ZNK9KContacts5Email11isPreferredEv
libKF6Contacts.so.6:_ZNK9KContacts5Email4mailEv
libKF6Contacts.so.6:_ZNK9KContacts5Email4typeEv
libKF6Contacts.so.6:_ZNK9KContacts5Email6paramsEv
libKF6Contacts.so.6:_ZNK9KContacts5Email7isValidEv
libKF6Contacts.so.6:_ZNK9KContacts5Email8toStringEv
libKF6Contacts.so.6:_ZNK9KContacts5EmaileqERKS0_
libKF6Contacts.so.6:_ZNK9KContacts5EmailneERKS0_
libKF6Contacts.so.6:_ZNK9KContacts5Sound3urlEv
libKF6Contacts.so.6:_ZNK9KContacts5Sound4dataEv
libKF6Contacts.so.6:_ZNK9KContacts5Sound4typeEv
libKF6Contacts.so.6:_ZNK9KContacts5Sound7isEmptyEv
libKF6Contacts.so.6:_ZNK9KContacts5Sound8isInternEv
libKF6Contacts.so.6:_ZNK9KContacts5Sound8toStringEv
libKF6Contacts.so.6:_ZNK9KContacts5SoundeqERKS0_
libKF6Contacts.so.6:_ZNK9KContacts5SoundneERKS0_
libKF6Contacts.so.6:_ZNK9KContacts5Title5titleEv
libKF6Contacts.so.6:_ZNK9KContacts5Title6paramsEv
libKF6Contacts.so.6:_ZNK9KContacts5Title7isValidEv
libKF6Contacts.so.6:_ZNK9KContacts5Title8toStringEv
libKF6Contacts.so.6:_ZNK9KContacts5TitleeqERKS0_
libKF6Contacts.so.6:_ZNK9KContacts5TitleneERKS0_
libKF6Contacts.so.6:_ZNK9KContacts6Gender6genderEv
libKF6Contacts.so.6:_ZNK9KContacts6Gender7commentEv
libKF6Contacts.so.6:_ZNK9KContacts6Gender7isValidEv
libKF6Contacts.so.6:_ZNK9KContacts6Gender8toStringEv
libKF6Contacts.so.6:_ZNK9KContacts6GendereqERKS0_
libKF6Contacts.so.6:_ZNK9KContacts6GenderneERKS0_
libKF6Contacts.so.6:_ZNK9KContacts7Address10postalCodeEv
libKF6Contacts.so.6:_ZNK9KContacts7Address13postOfficeBoxEv
libKF6Contacts.so.6:_ZNK9KContacts7Address2idEv
libKF6Contacts.so.6:_ZNK9KContacts7Address3geoEv
libKF6Contacts.so.6:_ZNK9KContacts7Address4typeEv
libKF6Contacts.so.6:_ZNK9KContacts7Address5labelEv
libKF6Contacts.so.6:_ZNK9KContacts7Address6geoUriEv
libKF6Contacts.so.6:_ZNK9KContacts7Address6regionEv
libKF6Contacts.so.6:_ZNK9KContacts7Address6streetEv
libKF6Contacts.so.6:_ZNK9KContacts7Address7countryEv
libKF6Contacts.so.6:_ZNK9KContacts7Address7isEmptyEv
libKF6Contacts.so.6:_ZNK9KContacts7Address8extendedEv
libKF6Contacts.so.6:_ZNK9KContacts7Address8localityEv
libKF6Contacts.so.6:_ZNK9KContacts7Address8toStringEv
libKF6Contacts.so.6:_ZNK9KContacts7Address9formattedENS_18AddressFormatStyleERK7QStringS4_
libKF6Contacts.so.6:_ZNK9KContacts7Address9typeLabelEv
libKF6Contacts.so.6:_ZNK9KContacts7AddresseqERKS0_
libKF6Contacts.so.6:_ZNK9KContacts7AddressneERKS0_
libKF6Contacts.so.6:_ZNK9KContacts7Picture3urlEv
libKF6Contacts.so.6:_ZNK9KContacts7Picture4dataEv
libKF6Contacts.so.6:_ZNK9KContacts7Picture4typeEv
libKF6Contacts.so.6:_ZNK9KContacts7Picture7isEmptyEv
libKF6Contacts.so.6:_ZNK9KContacts7Picture7rawDataEv
libKF6Contacts.so.6:_ZNK9KContacts7Picture8isInternEv
libKF6Contacts.so.6:_ZNK9KContacts7Picture8toStringEv
libKF6Contacts.so.6:_ZNK9KContacts7PictureeqERKS0_
libKF6Contacts.so.6:_ZNK9KContacts7PictureneERKS0_
libKF6Contacts.so.6:_ZNK9KContacts7Related6paramsEv
libKF6Contacts.so.6:_ZNK9KContacts7Related7isValidEv
libKF6Contacts.so.6:_ZNK9KContacts7Related7relatedEv
libKF6Contacts.so.6:_ZNK9KContacts7Related8toStringEv
libKF6Contacts.so.6:_ZNK9KContacts7RelatedeqERKS0_
libKF6Contacts.so.6:_ZNK9KContacts7RelatedneERKS0_
libKF6Contacts.so.6:_ZNK9KContacts7Secrecy4typeEv
libKF6Contacts.so.6:_ZNK9KContacts7Secrecy7isValidEv
libKF6Contacts.so.6:_ZNK9KContacts7Secrecy8toStringEv
libKF6Contacts.so.6:_ZNK9KContacts7SecrecyeqERKS0_
libKF6Contacts.so.6:_ZNK9KContacts7SecrecyneERKS0_
libKF6Contacts.so.6:_ZNK9KContacts8NickName6paramsEv
libKF6Contacts.so.6:_ZNK9KContacts8NickName7isValidEv
libKF6Contacts.so.6:_ZNK9KContacts8NickName8nicknameEv
libKF6Contacts.so.6:_ZNK9KContacts8NickName8toStringEv
libKF6Contacts.so.6:_ZNK9KContacts8NickNameeqERKS0_
libKF6Contacts.so.6:_ZNK9KContacts8NickNameneERKS0_
libKF6Contacts.so.6:_ZNK9KContacts8TimeZone6offsetEv
libKF6Contacts.so.6:_ZNK9KContacts8TimeZone7isValidEv
libKF6Contacts.so.6:_ZNK9KContacts8TimeZone8toStringEv
libKF6Contacts.so.6:_ZNK9KContacts8TimeZoneeqERKS0_
libKF6Contacts.so.6:_ZNK9KContacts8TimeZoneneERKS0_
libKF6Contacts.so.6:_ZNK9KContacts9Addressee10categoriesEv
libKF6Contacts.so.6:_ZNK9KContacts9Addressee10departmentEv
libKF6Contacts.so.6:_ZNK9KContacts9Addressee10familyNameEv
libKF6Contacts.so.6:_ZNK9KContacts9Addressee10professionEv
libKF6Contacts.so.6:_ZNK9KContacts9Addressee10sortStringEv
libKF6Contacts.so.6:_ZNK9KContacts9Addressee11anniversaryEv
libKF6Contacts.so.6:_ZNK9KContacts9Addressee11findAddressERK7QString
libKF6Contacts.so.6:_ZNK9KContacts9Addressee11hasCategoryERK7QString
libKF6Contacts.so.6:_ZNK9KContacts9Addressee11phoneNumberE6QFlagsINS_11PhoneNumber8TypeFlagEE
libKF6Contacts.so.6:_ZNK9KContacts9Addressee11spousesNameEv
libKF6Contacts.so.6:_ZNK9KContacts9Addressee12extraUrlListEv
libKF6Contacts.so.6:_ZNK9KContacts9Addressee12managersNameEv
libKF6Contacts.so.6:_ZNK9KContacts9Addressee12organizationEv
libKF6Contacts.so.6:_ZNK9KContacts9Addressee12phoneNumbersE6QFlagsINS_11PhoneNumber8TypeFlagEE
libKF6Contacts.so.6:_ZNK9KContacts9Addressee12phoneNumbersEv
libKF6Contacts.so.6:_ZNK9KContacts9Addressee13assembledNameEv
libKF6Contacts.so.6:_ZNK9KContacts9Addressee13extraLogoListEv
libKF6Contacts.so.6:_ZNK9KContacts9Addressee13extraRoleListEv
libKF6Contacts.so.6:_ZNK9KContacts9Addressee13formattedNameEv
libKF6Contacts.so.6:_ZNK9KContacts9Addressee13relationshipsEv
libKF6Contacts.so.6:_ZNK9KContacts9Addressee14additionalNameEv
libKF6Contacts.so.6:_ZNK9KContacts9Addressee14assistantsNameEv
libKF6Contacts.so.6:_ZNK9KContacts9Addressee14extraPhotoListEv
libKF6Contacts.so.6:_ZNK9KContacts9Addressee14extraSoundListEv
libKF6Contacts.so.6:_ZNK9KContacts9Addressee14extraTitleListEv
libKF6Contacts.so.6:_ZNK9KContacts9Addressee14fieldGroupListEv
libKF6Contacts.so.6:_ZNK9KContacts9Addressee14preferredEmailEv
libKF6Contacts.so.6:_ZNK9KContacts9Addressee14sourcesUrlListEv
libKF6Contacts.so.6:_ZNK9KContacts9Addressee15birthdayHasTimeEv
libKF6Contacts.so.6:_ZNK9KContacts9Addressee15calendarUrlListEv
libKF6Contacts.so.6:_ZNK9KContacts9Addressee15findPhoneNumberERK7QString
libKF6Contacts.so.6:_ZNK9KContacts9Addressee16clientPidMapListEv
libKF6Contacts.so.6:_ZNK9KContacts9Addressee17extraNickNameListEv
libKF6Contacts.so.6:_ZNK9KContacts9Addressee21extraOrganizationListEv
libKF6Contacts.so.6:_ZNK9KContacts9Addressee3geoEv
libKF6Contacts.so.6:_ZNK9KContacts9Addressee3keyENS_3Key4TypeERK7QString
libKF6Contacts.so.6:_ZNK9KContacts9Addressee3uidEv
libKF6Contacts.so.6:_ZNK9KContacts9Addressee3urlEv
libKF6Contacts.so.6:_ZNK9KContacts9Addressee4keysENS_3Key4TypeERK7QString
libKF6Contacts.so.6:_ZNK9KContacts9Addressee4keysEv
libKF6Contacts.so.6:_ZNK9KContacts9Addressee4kindEv
libKF6Contacts.so.6:_ZNK9KContacts9Addressee4logoEv
libKF6Contacts.so.6:_ZNK9KContacts9Addressee4nameEv
libKF6Contacts.so.6:_ZNK9KContacts9Addressee4noteEv
libKF6Contacts.so.6:_ZNK9KContacts9Addressee4roleEv
libKF6Contacts.so.6:_ZNK9KContacts9Addressee5langsEv
libKF6Contacts.so.6:_ZNK9KContacts9Addressee5photoEv
libKF6Contacts.so.6:_ZNK9KContacts9Addressee5soundEv
libKF6Contacts.so.6:_ZNK9KContacts9Addressee5titleEv
libKF6Contacts.so.6:_ZNK9KContacts9Addressee6customERK7QStringS3_
libKF6Contacts.so.6:_ZNK9KContacts9Addressee6emailsEv
libKF6Contacts.so.6:_ZNK9KContacts9Addressee6genderEv
libKF6Contacts.so.6:_ZNK9KContacts9Addressee6mailerEv
libKF6Contacts.so.6:_ZNK9KContacts9Addressee6officeEv
libKF6Contacts.so.6:_ZNK9KContacts9Addressee6prefixEv
libKF6Contacts.so.6:_ZNK9KContacts9Addressee6suffixEv
libKF6Contacts.so.6:_ZNK9KContacts9Addressee7addressE6QFlagsINS_7Address8TypeFlagEE
libKF6Contacts.so.6:_ZNK9KContacts9Addressee7changedEv
libKF6Contacts.so.6:_ZNK9KContacts9Addressee7customsEv
libKF6Contacts.so.6:_ZNK9KContacts9Addressee7findKeyERK7QString
libKF6Contacts.so.6:_ZNK9KContacts9Addressee7isEmptyEv
libKF6Contacts.so.6:_ZNK9KContacts9Addressee7membersEv
libKF6Contacts.so.6:_ZNK9KContacts9Addressee7secrecyEv
libKF6Contacts.so.6:_ZNK9KContacts9Addressee8birthdayEv
libKF6Contacts.so.6:_ZNK9KContacts9Addressee8blogFeedEv
libKF6Contacts.so.6:_ZNK9KContacts9Addressee8imppListEv
libKF6Contacts.so.6:_ZNK9KContacts9Addressee8nickNameEv
libKF6Contacts.so.6:_ZNK9KContacts9Addressee8realNameEv
libKF6Contacts.so.6:_ZNK9KContacts9Addressee8revisionEv
libKF6Contacts.so.6:_ZNK9KContacts9Addressee8timeZoneEv
libKF6Contacts.so.6:_ZNK9KContacts9Addressee8toStringEv
libKF6Contacts.so.6:_ZNK9KContacts9Addressee9addressesE6QFlagsINS_7Address8TypeFlagEE
libKF6Contacts.so.6:_ZNK9KContacts9Addressee9addressesEv
libKF6Contacts.so.6:_ZNK9KContacts9Addressee9deathDateEv
libKF6Contacts.so.6:_ZNK9KContacts9Addressee9emailListEv
libKF6Contacts.so.6:_ZNK9KContacts9Addressee9fullEmailERK7QString
libKF6Contacts.so.6:_ZNK9KContacts9Addressee9givenNameEv
libKF6Contacts.so.6:_ZNK9KContacts9Addressee9productIdEv
libKF6Contacts.so.6:_ZNK9KContacts9AddresseeeqERKS0_
libKF6Contacts.so.6:_ZNK9KContacts9AddresseeneERKS0_
libKF6Contacts.so.6:_ZNK9KContacts9VCardLine10identifierEv
libKF6Contacts.so.6:_ZNK9KContacts9VCardLine10parametersERK7QString
libKF6Contacts.so.6:_ZNK9KContacts9VCardLine11base64ValueEv
libKF6Contacts.so.6:_ZNK9KContacts9VCardLine12parameterMapEv
libKF6Contacts.so.6:_ZNK9KContacts9VCardLine13parameterListEv
libKF6Contacts.so.6:_ZNK9KContacts9VCardLine5groupEv
libKF6Contacts.so.6:_ZNK9KContacts9VCardLine5valueEv
libKF6Contacts.so.6:_ZNK9KContacts9VCardLine8hasGroupEv
libKF6Contacts.so.6:_ZNK9KContacts9VCardLine9parameterERK7QString
libKF6Contacts.so.6:_ZNK9KContacts9VCardLineeqERKS0_
libKF6Contacts.so.6:_ZNK9KContacts9VCardTool11parseVCardsERK10QByteArray
libKF6Contacts.so.6:_ZNK9KContacts9VCardTool12createVCardsERK5QListINS_9AddresseeEENS_5VCard7VersionE
libKF6Contacts.so.6:_ZNK9KContacts9VCardTool12exportVCardsERK5QListINS_9AddresseeEENS_5VCard7VersionE
libKF6Contacts.so.6:_Zls6QDebugRKN9KContacts9VCardLineE
libkcontactsqml.so:_Z35qml_register_types_org_kde_contactsv
libkcontactsqml.so:qt_plugin_instance
libkcontactsqml.so:qt_plugin_query_metadata_v2
