libxerces-c-3.1.so:_ZN11xercesc_3_110CMBinaryOp11orphanChildEv
libxerces-c-3.1.so:_ZN11xercesc_3_110CMBinaryOp7getLeftEv
libxerces-c-3.1.so:_ZN11xercesc_3_110CMBinaryOp8getRightEv
libxerces-c-3.1.so:_ZN11xercesc_3_110CMBinaryOpC1ENS_15ContentSpecNode9NodeTypesEPNS_6CMNodeES4_jPNS_13MemoryManagerE
libxerces-c-3.1.so:_ZN11xercesc_3_110CMBinaryOpC2ENS_15ContentSpecNode9NodeTypesEPNS_6CMNodeES4_jPNS_13MemoryManagerE
libxerces-c-3.1.so:_ZN11xercesc_3_110CMBinaryOpD0Ev
libxerces-c-3.1.so:_ZN11xercesc_3_110CMBinaryOpD1Ev
libxerces-c-3.1.so:_ZN11xercesc_3_110CMBinaryOpD2Ev
libxerces-c-3.1.so:_ZN11xercesc_3_110DTDGrammar11putElemDeclEjPKtS2_S2_jb
libxerces-c-3.1.so:_ZN11xercesc_3_110DTDGrammar12createObjectEPNS_13MemoryManagerE
libxerces-c-3.1.so:_ZN11xercesc_3_110DTDGrammar17findOrAddElemDeclEjPKtS2_S2_jRb
libxerces-c-3.1.so:_ZN11xercesc_3_110DTDGrammar21setGrammarDescriptionEPNS_21XMLGrammarDescriptionE
libxerces-c-3.1.so:_ZN11xercesc_3_110DTDGrammar5resetEv
libxerces-c-3.1.so:_ZN11xercesc_3_110DTDGrammar9serializeERNS_16XSerializeEngineE
libxerces-c-3.1.so:_ZN11xercesc_3_110DTDGrammarC1EPNS_13MemoryManagerE
libxerces-c-3.1.so:_ZN11xercesc_3_110DTDGrammarC2EPNS_13MemoryManagerE
libxerces-c-3.1.so:_ZN11xercesc_3_110DTDGrammarD0Ev
libxerces-c-3.1.so:_ZN11xercesc_3_110DTDGrammarD1Ev
libxerces-c-3.1.so:_ZN11xercesc_3_110DTDGrammarD2Ev
libxerces-c-3.1.so:_ZN11xercesc_3_110DTDScanner10scanAttDefERNS_14DTDElementDeclERNS_9XMLBufferE
libxerces-c-3.1.so:_ZN11xercesc_3_110DTDScanner11expandPERefEbbbb
libxerces-c-3.1.so:_ZN11xercesc_3_110DTDScanner11scanCharRefERtS1_
libxerces-c-3.1.so:_ZN11xercesc_3_110DTDScanner11scanCommentEv
libxerces-c-3.1.so:_ZN11xercesc_3_110DTDScanner12scanAttValueEPKtRNS_9XMLBufferENS_9XMLAttDef8AttTypesE
libxerces-c-3.1.so:_ZN11xercesc_3_110DTDScanner12scanChildrenERKNS_14DTDElementDeclERNS_9XMLBufferE
libxerces-c-3.1.so:_ZN11xercesc_3_110DTDScanner12scanTextDeclEv
libxerces-c-3.1.so:_ZN11xercesc_3_110DTDScanner13checkForPERefEbb
libxerces-c-3.1.so:_ZN11xercesc_3_110DTDScanner13scanEntityDefERNS_13DTDEntityDeclEb
libxerces-c-3.1.so:_ZN11xercesc_3_110DTDScanner13scanEntityRefERtS1_Rb
libxerces-c-3.1.so:_ZN11xercesc_3_110DTDScanner14scanEntityDeclEv
libxerces-c-3.1.so:_ZN11xercesc_3_110DTDScanner14scanMarkupDeclEb
libxerces-c-3.1.so:_ZN11xercesc_3_110DTDScanner14setScannerInfoEPNS_10XMLScannerEPNS_9ReaderMgrEPNS_12XMLBufferMgrE
libxerces-c-3.1.so:_ZN11xercesc_3_110DTDScanner15getQuotedStringERNS_9XMLBufferE
libxerces-c-3.1.so:_ZN11xercesc_3_110DTDScanner15scanAttListDeclEv
libxerces-c-3.1.so:_ZN11xercesc_3_110DTDScanner15scanContentSpecERNS_14DTDElementDeclE
libxerces-c-3.1.so:_ZN11xercesc_3_110DTDScanner15scanDefaultDeclERNS_9DTDAttDefE
libxerces-c-3.1.so:_ZN11xercesc_3_110DTDScanner15scanElementDeclEv
libxerces-c-3.1.so:_ZN11xercesc_3_110DTDScanner15scanEnumerationERKNS_9DTDAttDefERNS_9XMLBufferEb
libxerces-c-3.1.so:_ZN11xercesc_3_110DTDScanner16scanNotationDeclEv
libxerces-c-3.1.so:_ZN11xercesc_3_110DTDScanner17scanEntityLiteralERNS_9XMLBufferE
libxerces-c-3.1.so:_ZN11xercesc_3_110DTDScanner17scanExtSubsetDeclEbb
libxerces-c-3.1.so:_ZN11xercesc_3_110DTDScanner17scanPublicLiteralERNS_9XMLBufferE
libxerces-c-3.1.so:_ZN11xercesc_3_110DTDScanner17scanSystemLiteralERNS_9XMLBufferE
libxerces-c-3.1.so:_ZN11xercesc_3_110DTDScanner18scanIgnoredSectionEv
libxerces-c-3.1.so:_ZN11xercesc_3_110DTDScanner18scanInternalSubsetEv
libxerces-c-3.1.so:_ZN11xercesc_3_110DTDScanner6scanEqEv
libxerces-c-3.1.so:_ZN11xercesc_3_110DTDScanner6scanIdERNS_9XMLBufferES2_NS0_7IDTypesE
libxerces-c-3.1.so:_ZN11xercesc_3_110DTDScanner6scanPIEv
libxerces-c-3.1.so:_ZN11xercesc_3_110DTDScanner9scanMixedERNS_14DTDElementDeclE
libxerces-c-3.1.so:_ZN11xercesc_3_110DTDScannerC1EPNS_10DTDGrammarEPNS_14DocTypeHandlerEPNS_13MemoryManagerES6_
libxerces-c-3.1.so:_ZN11xercesc_3_110DTDScannerC2EPNS_10DTDGrammarEPNS_14DocTypeHandlerEPNS_13MemoryManagerES6_
libxerces-c-3.1.so:_ZN11xercesc_3_110DTDScannerD0Ev
libxerces-c-3.1.so:_ZN11xercesc_3_110DTDScannerD1Ev
libxerces-c-3.1.so:_ZN11xercesc_3_110DTDScannerD2Ev
libxerces-c-3.1.so:_ZN11xercesc_3_110ModifierOpC1ENS_2Op6opTypeEiiPNS_13MemoryManagerE
libxerces-c-3.1.so:_ZN11xercesc_3_110ModifierOpC2ENS_2Op6opTypeEiiPNS_13MemoryManagerE
libxerces-c-3.1.so:_ZN11xercesc_3_110ParenTokenC1ENS_5Token7tokTypeEPS1_iPNS_13MemoryManagerE
libxerces-c-3.1.so:_ZN11xercesc_3_110ParenTokenC2ENS_5Token7tokTypeEPS1_iPNS_13MemoryManagerE
libxerces-c-3.1.so:_ZN11xercesc_3_110ParenTokenD0Ev
libxerces-c-3.1.so:_ZN11xercesc_3_110ParenTokenD1Ev
libxerces-c-3.1.so:_ZN11xercesc_3_110ParenTokenD2Ev
libxerces-c-3.1.so:_ZN11xercesc_3_110RangeToken10sortRangesEv
libxerces-c-3.1.so:_ZN11xercesc_3_110RangeToken11doCreateMapEv
libxerces-c-3.1.so:_ZN11xercesc_3_110RangeToken11mergeRangesEPKNS_5TokenE
libxerces-c-3.1.so:_ZN11xercesc_3_110RangeToken13compactRangesEv
libxerces-c-3.1.so:_ZN11xercesc_3_110RangeToken14setRangeValuesEPij
libxerces-c-3.1.so:_ZN11xercesc_3_110RangeToken14subtractRangesEPS0_
libxerces-c-3.1.so:_ZN11xercesc_3_110RangeToken15intersectRangesEPS0_
libxerces-c-3.1.so:_ZN11xercesc_3_110RangeToken16complementRangesEPS0_PNS_12TokenFactoryEPNS_13MemoryManagerE
libxerces-c-3.1.so:_ZN11xercesc_3_110RangeToken23getCaseInsensitiveTokenEPNS_12TokenFactoryE
libxerces-c-3.1.so:_ZN11xercesc_3_110RangeToken5matchEi
libxerces-c-3.1.so:_ZN11xercesc_3_110RangeToken6expandEj
libxerces-c-3.1.so:_ZN11xercesc_3_110RangeToken8addRangeEii
libxerces-c-3.1.so:_ZN11xercesc_3_110RangeTokenC1ENS_5Token7tokTypeEPNS_13MemoryManagerE
libxerces-c-3.1.so:_ZN11xercesc_3_110RangeTokenC2ENS_5Token7tokTypeEPNS_13MemoryManagerE
libxerces-c-3.1.so:_ZN11xercesc_3_110RangeTokenD0Ev
libxerces-c-3.1.so:_ZN11xercesc_3_110RangeTokenD1Ev
libxerces-c-3.1.so:_ZN11xercesc_3_110RangeTokenD2Ev
libxerces-c-3.1.so:_ZN11xercesc_3_110RegxParser11parseFactorEv
libxerces-c-3.1.so:_ZN11xercesc_3_110RegxParser11processNextEv
libxerces-c-3.1.so:_ZN11xercesc_3_110RegxParser11processPlusEPNS_5TokenE
libxerces-c-3.1.so:_ZN11xercesc_3_110RegxParser11processStarEPNS_5TokenE
libxerces-c-3.1.so:_ZN11xercesc_3_110RegxParser12processCaretEv
libxerces-c-3.1.so:_ZN11xercesc_3_110RegxParser12processParenEv
libxerces-c-3.1.so:_ZN11xercesc_3_110RegxParser13checkQuestionEm
libxerces-c-3.1.so:_ZN11xercesc_3_110RegxParser13decodeEscapedEv
libxerces-c-3.1.so:_ZN11xercesc_3_110RegxParser13processDollarEv
libxerces-c-3.1.so:_ZN11xercesc_3_110RegxParser15processQuestionEPNS_5TokenE
libxerces-c-3.1.so:_ZN11xercesc_3_110RegxParser17ReferencePositionC1Eim
libxerces-c-3.1.so:_ZN11xercesc_3_110RegxParser17ReferencePositionC2Eim
libxerces-c-3.1.so:_ZN11xercesc_3_110RegxParser19parseCharacterClassEb
libxerces-c-3.1.so:_ZN11xercesc_3_110RegxParser20getTokenForShorthandEi
libxerces-c-3.1.so:_ZN11xercesc_3_110RegxParser20processBackReferenceEv
libxerces-c-3.1.so:_ZN11xercesc_3_110RegxParser21processBacksolidus_pPEi
libxerces-c-3.1.so:_ZN11xercesc_3_110RegxParser5parseEPKti
libxerces-c-3.1.so:_ZN11xercesc_3_110RegxParser9parseAtomEv
libxerces-c-3.1.so:_ZN11xercesc_3_110RegxParser9parseRegxEb
libxerces-c-3.1.so:_ZN11xercesc_3_110RegxParser9parseTermEb
libxerces-c-3.1.so:_ZN11xercesc_3_110RegxParserC1EPNS_13MemoryManagerE
libxerces-c-3.1.so:_ZN11xercesc_3_110RegxParserC2EPNS_13MemoryManagerE
libxerces-c-3.1.so:_ZN11xercesc_3_110RegxParserD0Ev
libxerces-c-3.1.so:_ZN11xercesc_3_110RegxParserD1Ev
libxerces-c-3.1.so:_ZN11xercesc_3_110RegxParserD2Ev
libxerces-c-3.1.so:_ZN11xercesc_3_110SchemaInfo19updateImportingInfoEPS0_
libxerces-c-3.1.so:_ZN11xercesc_3_110SchemaInfo20getTopLevelComponentEtPKtS2_
libxerces-c-3.1.so:_ZN11xercesc_3_110SchemaInfo20getTopLevelComponentEtPKtS2_PPS0_
libxerces-c-3.1.so:_ZN11xercesc_3_110SchemaInfoC1EtiiiPKNS_14NamespaceScopeEPKtS5_PKNS_10DOMElementEPNS_10XMLScannerEPNS_13MemoryManagerE
libxerces-c-3.1.so:_ZN11xercesc_3_110SchemaInfoC2EtiiiPKNS_14NamespaceScopeEPKtS5_PKNS_10DOMElementEPNS_10XMLScannerEPNS_13MemoryManagerE
libxerces-c-3.1.so:_ZN11xercesc_3_110SchemaInfoD1Ev
libxerces-c-3.1.so:_ZN11xercesc_3_110SchemaInfoD2Ev
libxerces-c-3.1.so:_ZN11xercesc_3_110UnionToken8addChildEPNS_5TokenEPNS_12TokenFactoryE
libxerces-c-3.1.so:_ZN11xercesc_3_110UnionTokenC1ENS_5Token7tokTypeEPNS_13MemoryManagerE
libxerces-c-3.1.so:_ZN11xercesc_3_110UnionTokenC2ENS_5Token7tokTypeEPNS_13MemoryManagerE
libxerces-c-3.1.so:_ZN11xercesc_3_110UnionTokenD0Ev
libxerces-c-3.1.so:_ZN11xercesc_3_110UnionTokenD1Ev
libxerces-c-3.1.so:_ZN11xercesc_3_110UnionTokenD2Ev
libxerces-c-3.1.so:_ZN11xercesc_3_110ValueStore13endValueScopeEv
libxerces-c-3.1.so:_ZN11xercesc_3_110ValueStore14duplicateValueEv
libxerces-c-3.1.so:_ZN11xercesc_3_110ValueStore14reportNilErrorEPNS_18IdentityConstraintE
libxerces-c-3.1.so:_ZN11xercesc_3_110ValueStore15startValueScopeEv
libxerces-c-3.1.so:_ZN11xercesc_3_110ValueStore19endDocumentFragmentEPNS_15ValueStoreCacheE
libxerces-c-3.1.so:_ZN11xercesc_3_110ValueStore5clearEv
libxerces-c-3.1.so:_ZN11xercesc_3_110ValueStore6appendEPKS0_
libxerces-c-3.1.so:_ZN11xercesc_3_110ValueStore8addValueEPNS_14FieldActivatorEPNS_8IC_FieldEPNS_17DatatypeValidatorEPKt
libxerces-c-3.1.so:_ZN11xercesc_3_110ValueStore8containsEPKNS_13FieldValueMapE
libxerces-c-3.1.so:_ZN11xercesc_3_110ValueStoreC1EPNS_18IdentityConstraintEPNS_10XMLScannerEPNS_13MemoryManagerE
libxerces-c-3.1.so:_ZN11xercesc_3_110ValueStoreC2EPNS_18IdentityConstraintEPNS_10XMLScannerEPNS_13MemoryManagerE
libxerces-c-3.1.so:_ZN11xercesc_3_110ValueStoreD1Ev
libxerces-c-3.1.so:_ZN11xercesc_3_110ValueStoreD2Ev
libxerces-c-3.1.so:_ZN11xercesc_3_110XMLChar1_011enableNELWSEv
libxerces-c-3.1.so:_ZN11xercesc_3_110XMLChar1_011isAllSpacesEPKtm
libxerces-c-3.1.so:_ZN11xercesc_3_110XMLChar1_011isValidNameEPKt
libxerces-c-3.1.so:_ZN11xercesc_3_110XMLChar1_011isValidNameEPKtm
libxerces-c-3.1.so:_ZN11xercesc_3_110XMLChar1_012isValidQNameEPKtm
libxerces-c-3.1.so:_ZN11xercesc_3_110XMLChar1_013isValidNCNameEPKtm
libxerces-c-3.1.so:_ZN11xercesc_3_110XMLChar1_014isPublicIdCharEtt
libxerces-c-3.1.so:_ZN11xercesc_3_110XMLChar1_014isValidNmtokenEPKtm
libxerces-c-3.1.so:_ZN11xercesc_3_110XMLChar1_018containsWhiteSpaceEPKtm
libxerces-c-3.1.so:_ZN11xercesc_3_110XMLChar1_111isAllSpacesEPKtm
libxerces-c-3.1.so:_ZN11xercesc_3_110XMLChar1_111isValidNameEPKt
libxerces-c-3.1.so:_ZN11xercesc_3_110XMLChar1_111isValidNameEPKtm
libxerces-c-3.1.so:_ZN11xercesc_3_110XMLChar1_112isValidQNameEPKtm
libxerces-c-3.1.so:_ZN11xercesc_3_110XMLChar1_113isValidNCNameEPKtm
libxerces-c-3.1.so:_ZN11xercesc_3_110XMLChar1_114isPublicIdCharEtt
libxerces-c-3.1.so:_ZN11xercesc_3_110XMLChar1_114isValidNmtokenEPKtm
libxerces-c-3.1.so:_ZN11xercesc_3_110XMLChar1_118containsWhiteSpaceEPKtm
libxerces-c-3.1.so:_ZN11xercesc_3_110XMLRefInfo12createObjectEPNS_13MemoryManagerE
libxerces-c-3.1.so:_ZN11xercesc_3_110XMLRefInfo9serializeERNS_16XSerializeEngineE
libxerces-c-3.1.so:_ZN11xercesc_3_110XMLRefInfoC1EPNS_13MemoryManagerE
libxerces-c-3.1.so:_ZN11xercesc_3_110XMLRefInfoC2EPNS_13MemoryManagerE
libxerces-c-3.1.so:_ZN11xercesc_3_110XMLScanner10commonInitEv
libxerces-c-3.1.so:_ZN11xercesc_3_110XMLScanner10scanPrologEv
libxerces-c-3.1.so:_ZN11xercesc_3_110XMLScanner11checkIDRefsEv
libxerces-c-3.1.so:_ZN11xercesc_3_110XMLScanner11loadGrammarEPKcsb
libxerces-c-3.1.so:_ZN11xercesc_3_110XMLScanner11loadGrammarEPKtsb
libxerces-c-3.1.so:_ZN11xercesc_3_110XMLScanner11scanCharRefERtS1_
libxerces-c-3.1.so:_ZN11xercesc_3_110XMLScanner11scanCommentEv
libxerces-c-3.1.so:_ZN11xercesc_3_110XMLScanner11scanXMLDeclENS0_9DeclTypesE
libxerces-c-3.1.so:_ZN11xercesc_3_110XMLScanner12checkXMLDeclEb
libxerces-c-3.1.so:_ZN11xercesc_3_110XMLScanner12isLegalTokenERKNS_13XMLPScanTokenE
libxerces-c-3.1.so:_ZN11xercesc_3_110XMLScanner12resolveQNameEPKtRNS_9XMLBufferENS_9ElemStack8MapModesERi
libxerces-c-3.1.so:_ZN11xercesc_3_110XMLScanner12scanDocumentEPKc
libxerces-c-3.1.so:_ZN11xercesc_3_110XMLScanner12scanDocumentEPKt
libxerces-c-3.1.so:_ZN11xercesc_3_110XMLScanner12scanUpToWSOrERNS_9XMLBufferEt
libxerces-c-3.1.so:_ZN11xercesc_3_110XMLScanner12setValidatorEPNS_12XMLValidatorE
libxerces-c-3.1.so:_ZN11xercesc_3_110XMLScanner13getNewUIntPtrEv
libxerces-c-3.1.so:_ZN11xercesc_3_110XMLScanner13initValidatorEPNS_12XMLValidatorE
libxerces-c-3.1.so:_ZN11xercesc_3_110XMLScanner13resetUIntPoolEv
libxerces-c-3.1.so:_ZN11xercesc_3_110XMLScanner13resolvePrefixEPKtNS_9ElemStack8MapModesE
libxerces-c-3.1.so:_ZN11xercesc_3_110XMLScanner14senseNextTokenERm
libxerces-c-3.1.so:_ZN11xercesc_3_110XMLScanner15getQuotedStringERNS_9XMLBufferE
libxerces-c-3.1.so:_ZN11xercesc_3_110XMLScanner16checkInternalDTDEbPKtS2_
libxerces-c-3.1.so:_ZN11xercesc_3_110XMLScanner16recreateUIntPoolEv
libxerces-c-3.1.so:_ZN11xercesc_3_110XMLScanner16setParseSettingsEPS0_
libxerces-c-3.1.so:_ZN11xercesc_3_110XMLScanner16setURIStringPoolEPNS_13XMLStringPoolE
libxerces-c-3.1.so:_ZN11xercesc_3_110XMLScanner17scanMiscellaneousEv
libxerces-c-3.1.so:_ZN11xercesc_3_110XMLScanner18resetCachedGrammarEv
libxerces-c-3.1.so:_ZN11xercesc_3_110XMLScanner21resolveQNameWithColonEPKtRNS_9XMLBufferENS_9ElemStack8MapModesEi
libxerces-c-3.1.so:_ZN11xercesc_3_110XMLScanner27emitErrorWillThrowExceptionENS_7XMLErrs5CodesE
libxerces-c-3.1.so:_ZN11xercesc_3_110XMLScanner6scanEqEb
libxerces-c-3.1.so:_ZN11xercesc_3_110XMLScanner6scanPIEv
libxerces-c-3.1.so:_ZN11xercesc_3_110XMLScanner7cleanUpEv
libxerces-c-3.1.so:_ZN11xercesc_3_110XMLScanner9emitErrorENS_7XMLErrs5CodesE
libxerces-c-3.1.so:_ZN11xercesc_3_110XMLScanner9emitErrorENS_7XMLErrs5CodesENS_10XMLExcepts5CodesEPKtS6_S6_S6_
libxerces-c-3.1.so:_ZN11xercesc_3_110XMLScanner9emitErrorENS_7XMLErrs5CodesEPKcS4_S4_S4_
libxerces-c-3.1.so:_ZN11xercesc_3_110XMLScanner9emitErrorENS_7XMLErrs5CodesEPKtS4_S4_S4_
libxerces-c-3.1.so:_ZN11xercesc_3_110XMLScanner9scanFirstEPKcRNS_13XMLPScanTokenE
libxerces-c-3.1.so:_ZN11xercesc_3_110XMLScanner9scanFirstEPKtRNS_13XMLPScanTokenE
libxerces-c-3.1.so:_ZN11xercesc_3_110XMLScanner9scanFirstERKNS_11InputSourceERNS_13XMLPScanTokenE
libxerces-c-3.1.so:_ZN11xercesc_3_110XMLScanner9scanResetERNS_13XMLPScanTokenE
libxerces-c-3.1.so:_ZN11xercesc_3_110XMLScannerC1EPNS_12XMLValidatorEPNS_15GrammarResolverEPNS_13MemoryManagerE
libxerces-c-3.1.so:_ZN11xercesc_3_110XMLScannerC1EPNS_18XMLDocumentHandlerEPNS_14DocTypeHandlerEPNS_16XMLEntityHandlerEPNS_16XMLErrorReporterEPNS_12XMLValidatorEPNS_15GrammarResolverEPNS_13MemoryManagerE
libxerces-c-3.1.so:_ZN11xercesc_3_110XMLScannerC2EPNS_12XMLValidatorEPNS_15GrammarResolverEPNS_13MemoryManagerE
libxerces-c-3.1.so:_ZN11xercesc_3_110XMLScannerC2EPNS_18XMLDocumentHandlerEPNS_14DocTypeHandlerEPNS_16XMLEntityHandlerEPNS_16XMLErrorReporterEPNS_12XMLValidatorEPNS_15GrammarResolverEPNS_13MemoryManagerE
libxerces-c-3.1.so:_ZN11xercesc_3_110XMLScannerD0Ev
libxerces-c-3.1.so:_ZN11xercesc_3_110XMLScannerD1Ev
libxerces-c-3.1.so:_ZN11xercesc_3_110XMLScannerD2Ev
libxerces-c-3.1.so:_ZN11xercesc_3_110XProtoType4loadERNS_16XSerializeEngineEPhPNS_13MemoryManagerE
libxerces-c-3.1.so:_ZN11xercesc_3_110XSDLocator9setValuesEPKtS2_mm
libxerces-c-3.1.so:_ZN11xercesc_3_110XSDLocatorC1Ev
libxerces-c-3.1.so:_ZN11xercesc_3_110XSDLocatorC2Ev
libxerces-c-3.1.so:_ZN11xercesc_3_110XSParticle14getElementTermEv
libxerces-c-3.1.so:_ZN11xercesc_3_110XSParticle15getWildcardTermEv
libxerces-c-3.1.so:_ZN11xercesc_3_110XSParticle17getModelGroupTermEv
libxerces-c-3.1.so:_ZN11xercesc_3_110XSParticleC1ENS0_9TERM_TYPEEPNS_7XSModelEPNS_8XSObjectEmmbPNS_13MemoryManagerE
libxerces-c-3.1.so:_ZN11xercesc_3_110XSParticleC2ENS0_9TERM_TYPEEPNS_7XSModelEPNS_8XSObjectEmmbPNS_13MemoryManagerE
libxerces-c-3.1.so:_ZN11xercesc_3_110XSParticleD0Ev
libxerces-c-3.1.so:_ZN11xercesc_3_110XSParticleD1Ev
libxerces-c-3.1.so:_ZN11xercesc_3_110XSParticleD2Ev
libxerces-c-3.1.so:_ZN11xercesc_3_110XSWildcard18buildNamespaceListEPKNS_15ContentSpecNodeE
libxerces-c-3.1.so:_ZN11xercesc_3_110XSWildcardC1EPKNS_15ContentSpecNodeEPNS_12XSAnnotationEPNS_7XSModelEPNS_13MemoryManagerE
libxerces-c-3.1.so:_ZN11xercesc_3_110XSWildcardC1EPNS_12SchemaAttDefEPNS_12XSAnnotationEPNS_7XSModelEPNS_13MemoryManagerE
libxerces-c-3.1.so:_ZN11xercesc_3_110XSWildcardC2EPKNS_15ContentSpecNodeEPNS_12XSAnnotationEPNS_7XSModelEPNS_13MemoryManagerE
libxerces-c-3.1.so:_ZN11xercesc_3_110XSWildcardC2EPNS_12SchemaAttDefEPNS_12XSAnnotationEPNS_7XSModelEPNS_13MemoryManagerE
libxerces-c-3.1.so:_ZN11xercesc_3_110XSWildcardD0Ev
libxerces-c-3.1.so:_ZN11xercesc_3_110XSWildcardD1Ev
libxerces-c-3.1.so:_ZN11xercesc_3_110XSWildcardD2Ev
libxerces-c-3.1.so:_ZN11xercesc_3_110XercesStep12createObjectEPNS_13MemoryManagerE
libxerces-c-3.1.so:_ZN11xercesc_3_110XercesStep9serializeERNS_16XSerializeEngineE
libxerces-c-3.1.so:_ZN11xercesc_3_110XercesStepC1EPNS_13MemoryManagerE
libxerces-c-3.1.so:_ZN11xercesc_3_110XercesStepC1ERKS0_
libxerces-c-3.1.so:_ZN11xercesc_3_110XercesStepC1EtPNS_14XercesNodeTestE
libxerces-c-3.1.so:_ZN11xercesc_3_110XercesStepC2EPNS_13MemoryManagerE
libxerces-c-3.1.so:_ZN11xercesc_3_110XercesStepC2ERKS0_
libxerces-c-3.1.so:_ZN11xercesc_3_110XercesStepC2EtPNS_14XercesNodeTestE
libxerces-c-3.1.so:_ZN11xercesc_3_110XercesStepaSERKS0_
libxerces-c-3.1.so:_ZN11xercesc_3_110deallocateEPv
libxerces-c-3.1.so:_ZN11xercesc_3_111ConcatTokenC1EPNS_5TokenES2_PNS_13MemoryManagerE
libxerces-c-3.1.so:_ZN11xercesc_3_111ConcatTokenC2EPNS_5TokenES2_PNS_13MemoryManagerE
libxerces-c-3.1.so:_ZN11xercesc_3_111ConcatTokenD0Ev
libxerces-c-3.1.so:_ZN11xercesc_3_111ConcatTokenD1Ev
libxerces-c-3.1.so:_ZN11xercesc_3_111ConcatTokenD2Ev
libxerces-c-3.1.so:_ZN11xercesc_3_111DOMAttrImpl11appendChildEPNS_7DOMNodeE
libxerces-c-3.1.so:_ZN11xercesc_3_111DOMAttrImpl11removeChildEPNS_7DOMNodeE
libxerces-c-3.1.so:_ZN11xercesc_3_111DOMAttrImpl11setUserDataEPKtPvPNS_18DOMUserDataHandlerE
libxerces-c-3.1.so:_ZN11xercesc_3_111DOMAttrImpl12insertBeforeEPNS_7DOMNodeES2_
libxerces-c-3.1.so:_ZN11xercesc_3_111DOMAttrImpl12replaceChildEPNS_7DOMNodeES2_
libxerces-c-3.1.so:_ZN11xercesc_3_111DOMAttrImpl12setNodeValueEPKt
libxerces-c-3.1.so:_ZN11xercesc_3_111DOMAttrImpl12setSpecifiedEb
libxerces-c-3.1.so:_ZN11xercesc_3_111DOMAttrImpl12setValueFastEPKt
libxerces-c-3.1.so:_ZN11xercesc_3_111DOMAttrImpl14setTextContentEPKt
libxerces-c-3.1.so:_ZN11xercesc_3_111DOMAttrImpl15setOwnerElementEPNS_10DOMElementE
libxerces-c-3.1.so:_ZN11xercesc_3_111DOMAttrImpl17setSchemaTypeInfoEPKNS_15DOMTypeInfoImplE
libxerces-c-3.1.so:_ZN11xercesc_3_111DOMAttrImpl6renameEPKtS2_
libxerces-c-3.1.so:_ZN11xercesc_3_111DOMAttrImpl7releaseEv
libxerces-c-3.1.so:_ZN11xercesc_3_111DOMAttrImpl8setValueEPKt
libxerces-c-3.1.so:_ZN11xercesc_3_111DOMAttrImpl9normalizeEv
libxerces-c-3.1.so:_ZN11xercesc_3_111DOMAttrImpl9setPrefixEPKt
libxerces-c-3.1.so:_ZN11xercesc_3_111DOMAttrImplC1EPNS_11DOMDocumentEPKt
libxerces-c-3.1.so:_ZN11xercesc_3_111DOMAttrImplC1ERKS0_b
libxerces-c-3.1.so:_ZN11xercesc_3_111DOMAttrImplC2EPNS_11DOMDocumentEPKt
libxerces-c-3.1.so:_ZN11xercesc_3_111DOMAttrImplC2ERKS0_b
libxerces-c-3.1.so:_ZN11xercesc_3_111DOMAttrImplD0Ev
libxerces-c-3.1.so:_ZN11xercesc_3_111DOMAttrImplD1Ev
libxerces-c-3.1.so:_ZN11xercesc_3_111DOMAttrImplD2Ev
libxerces-c-3.1.so:_ZN11xercesc_3_111DOMNodeImpl11appendChildEPNS_7DOMNodeE
libxerces-c-3.1.so:_ZN11xercesc_3_111DOMNodeImpl11removeChildEPNS_7DOMNodeE
libxerces-c-3.1.so:_ZN11xercesc_3_111DOMNodeImpl11setReadOnlyEbb
libxerces-c-3.1.so:_ZN11xercesc_3_111DOMNodeImpl11setUserDataEPKtPvPNS_18DOMUserDataHandlerE
libxerces-c-3.1.so:_ZN11xercesc_3_111DOMNodeImpl12getXmlStringEv
libxerces-c-3.1.so:_ZN11xercesc_3_111DOMNodeImpl12insertBeforeEPNS_7DOMNodeES2_
libxerces-c-3.1.so:_ZN11xercesc_3_111DOMNodeImpl12replaceChildEPNS_7DOMNodeES2_
libxerces-c-3.1.so:_ZN11xercesc_3_111DOMNodeImpl12setNodeValueEPKt
libxerces-c-3.1.so:_ZN11xercesc_3_111DOMNodeImpl14getXmlnsStringEv
libxerces-c-3.1.so:_ZN11xercesc_3_111DOMNodeImpl14setTextContentEPKt
libxerces-c-3.1.so:_ZN11xercesc_3_111DOMNodeImpl15getXmlURIStringEv
libxerces-c-3.1.so:_ZN11xercesc_3_111DOMNodeImpl16setOwnerDocumentEPNS_11DOMDocumentE
libxerces-c-3.1.so:_ZN11xercesc_3_111DOMNodeImpl17getXmlnsURIStringEv
libxerces-c-3.1.so:_ZN11xercesc_3_111DOMNodeImpl7releaseEv
libxerces-c-3.1.so:_ZN11xercesc_3_111DOMNodeImpl9mapPrefixEPKtS2_s
libxerces-c-3.1.so:_ZN11xercesc_3_111DOMNodeImpl9normalizeEv
libxerces-c-3.1.so:_ZN11xercesc_3_111DOMNodeImpl9setPrefixEPKt
libxerces-c-3.1.so:_ZN11xercesc_3_111DOMNodeImplC1EPNS_7DOMNodeE
libxerces-c-3.1.so:_ZN11xercesc_3_111DOMNodeImplC1ERKS0_
libxerces-c-3.1.so:_ZN11xercesc_3_111DOMNodeImplC2EPNS_7DOMNodeE
libxerces-c-3.1.so:_ZN11xercesc_3_111DOMNodeImplC2ERKS0_
libxerces-c-3.1.so:_ZN11xercesc_3_111DOMNodeImplD1Ev
libxerces-c-3.1.so:_ZN11xercesc_3_111DOMNodeImplD2Ev
libxerces-c-3.1.so:_ZN11xercesc_3_111DOMTextImpl10appendDataEPKt
libxerces-c-3.1.so:_ZN11xercesc_3_111DOMTextImpl10appendDataEPKtm
libxerces-c-3.1.so:_ZN11xercesc_3_111DOMTextImpl10deleteDataEmm
libxerces-c-3.1.so:_ZN11xercesc_3_111DOMTextImpl10insertDataEmPKt
libxerces-c-3.1.so:_ZN11xercesc_3_111DOMTextImpl11appendChildEPNS_7DOMNodeE
libxerces-c-3.1.so:_ZN11xercesc_3_111DOMTextImpl11removeChildEPNS_7DOMNodeE
libxerces-c-3.1.so:_ZN11xercesc_3_111DOMTextImpl11replaceDataEmmPKt
libxerces-c-3.1.so:_ZN11xercesc_3_111DOMTextImpl11setUserDataEPKtPvPNS_18DOMUserDataHandlerE
libxerces-c-3.1.so:_ZN11xercesc_3_111DOMTextImpl12insertBeforeEPNS_7DOMNodeES2_
libxerces-c-3.1.so:_ZN11xercesc_3_111DOMTextImpl12replaceChildEPNS_7DOMNodeES2_
libxerces-c-3.1.so:_ZN11xercesc_3_111DOMTextImpl12setNodeValueEPKt
libxerces-c-3.1.so:_ZN11xercesc_3_111DOMTextImpl14setTextContentEPKt
libxerces-c-3.1.so:_ZN11xercesc_3_111DOMTextImpl16replaceWholeTextEPKt
libxerces-c-3.1.so:_ZN11xercesc_3_111DOMTextImpl22setIgnorableWhitespaceEb
libxerces-c-3.1.so:_ZN11xercesc_3_111DOMTextImpl7releaseEv
libxerces-c-3.1.so:_ZN11xercesc_3_111DOMTextImpl7setDataEPKt
libxerces-c-3.1.so:_ZN11xercesc_3_111DOMTextImpl9normalizeEv
libxerces-c-3.1.so:_ZN11xercesc_3_111DOMTextImpl9setPrefixEPKt
libxerces-c-3.1.so:_ZN11xercesc_3_111DOMTextImpl9splitTextEm
libxerces-c-3.1.so:_ZN11xercesc_3_111DOMTextImplC1EPNS_11DOMDocumentEPKt
libxerces-c-3.1.so:_ZN11xercesc_3_111DOMTextImplC1EPNS_11DOMDocumentEPKtm
libxerces-c-3.1.so:_ZN11xercesc_3_111DOMTextImplC1ERKS0_b
libxerces-c-3.1.so:_ZN11xercesc_3_111DOMTextImplC2EPNS_11DOMDocumentEPKt
libxerces-c-3.1.so:_ZN11xercesc_3_111DOMTextImplC2EPNS_11DOMDocumentEPKtm
libxerces-c-3.1.so:_ZN11xercesc_3_111DOMTextImplC2ERKS0_b
libxerces-c-3.1.so:_ZN11xercesc_3_111DOMTextImplD0Ev
libxerces-c-3.1.so:_ZN11xercesc_3_111DOMTextImplD1Ev
libxerces-c-3.1.so:_ZN11xercesc_3_111DOMTextImplD2Ev
libxerces-c-3.1.so:_ZN11xercesc_3_111IC_Selector12createObjectEPNS_13MemoryManagerE
libxerces-c-3.1.so:_ZN11xercesc_3_111IC_Selector13createMatcherEPNS_14FieldActivatorEiPNS_13MemoryManagerE
libxerces-c-3.1.so:_ZN11xercesc_3_111IC_Selector9serializeERNS_16XSerializeEngineE
libxerces-c-3.1.so:_ZN11xercesc_3_111IC_SelectorC1EPNS_11XercesXPathEPNS_18IdentityConstraintE
libxerces-c-3.1.so:_ZN11xercesc_3_111IC_SelectorC1EPNS_13MemoryManagerE
libxerces-c-3.1.so:_ZN11xercesc_3_111IC_SelectorC2EPNS_11XercesXPathEPNS_18IdentityConstraintE
libxerces-c-3.1.so:_ZN11xercesc_3_111IC_SelectorC2EPNS_13MemoryManagerE
libxerces-c-3.1.so:_ZN11xercesc_3_111IC_SelectorD0Ev
libxerces-c-3.1.so:_ZN11xercesc_3_111IC_SelectorD1Ev
libxerces-c-3.1.so:_ZN11xercesc_3_111IC_SelectorD2Ev
libxerces-c-3.1.so:_ZN11xercesc_3_111InputSource11setEncodingEPKt
libxerces-c-3.1.so:_ZN11xercesc_3_111InputSource11setPublicIdEPKt
libxerces-c-3.1.so:_ZN11xercesc_3_111InputSource11setSystemIdEPKt
libxerces-c-3.1.so:_ZN11xercesc_3_111InputSourceC1EPKcPNS_13MemoryManagerE
libxerces-c-3.1.so:_ZN11xercesc_3_111InputSourceC1EPKcS2_PNS_13MemoryManagerE
libxerces-c-3.1.so:_ZN11xercesc_3_111InputSourceC1EPKtPNS_13MemoryManagerE
libxerces-c-3.1.so:_ZN11xercesc_3_111InputSourceC1EPKtS2_PNS_13MemoryManagerE
libxerces-c-3.1.so:_ZN11xercesc_3_111InputSourceC1EPNS_13MemoryManagerE
libxerces-c-3.1.so:_ZN11xercesc_3_111InputSourceC2EPKcPNS_13MemoryManagerE
libxerces-c-3.1.so:_ZN11xercesc_3_111InputSourceC2EPKcS2_PNS_13MemoryManagerE
libxerces-c-3.1.so:_ZN11xercesc_3_111InputSourceC2EPKtPNS_13MemoryManagerE
libxerces-c-3.1.so:_ZN11xercesc_3_111InputSourceC2EPKtS2_PNS_13MemoryManagerE
libxerces-c-3.1.so:_ZN11xercesc_3_111InputSourceC2EPNS_13MemoryManagerE
libxerces-c-3.1.so:_ZN11xercesc_3_111InputSourceD0Ev
libxerces-c-3.1.so:_ZN11xercesc_3_111InputSourceD1Ev
libxerces-c-3.1.so:_ZN11xercesc_3_111InputSourceD2Ev
libxerces-c-3.1.so:_ZN11xercesc_3_111PSVIElement17getTypeDefinitionEv
libxerces-c-3.1.so:_ZN11xercesc_3_111PSVIElement23getMemberTypeDefinitionEv
libxerces-c-3.1.so:_ZN11xercesc_3_111PSVIElement5resetENS_8PSVIItem14VALIDITY_STATEENS1_15ASSESSMENT_TYPEEPKtbPNS_20XSElementDeclarationEPNS_16XSTypeDefinitionEPNS_22XSSimpleTypeDefinitionEPNS_7XSModelES5_S5_PtPNS_21XSNotationDeclarationE
libxerces-c-3.1.so:_ZN11xercesc_3_111PSVIElementC1EPNS_13MemoryManagerE
libxerces-c-3.1.so:_ZN11xercesc_3_111PSVIElementC2EPNS_13MemoryManagerE
libxerces-c-3.1.so:_ZN11xercesc_3_111PSVIElementD0Ev
libxerces-c-3.1.so:_ZN11xercesc_3_111PSVIElementD1Ev
libxerces-c-3.1.so:_ZN11xercesc_3_111PSVIElementD2Ev
libxerces-c-3.1.so:_ZN11xercesc_3_111StringTokenC1ENS_5Token7tokTypeEPKtiPNS_13MemoryManagerE
libxerces-c-3.1.so:_ZN11xercesc_3_111StringTokenC2ENS_5Token7tokTypeEPKtiPNS_13MemoryManagerE
libxerces-c-3.1.so:_ZN11xercesc_3_111StringTokenD0Ev
libxerces-c-3.1.so:_ZN11xercesc_3_111StringTokenD1Ev
libxerces-c-3.1.so:_ZN11xercesc_3_111StringTokenD2Ev
libxerces-c-3.1.so:_ZN11xercesc_3_111WFElemStack10setElementEPKtjj
libxerces-c-3.1.so:_ZN11xercesc_3_111WFElemStack11expandStackEv
libxerces-c-3.1.so:_ZN11xercesc_3_111WFElemStack5resetEjjjj
libxerces-c-3.1.so:_ZN11xercesc_3_111WFElemStack6popTopEv
libxerces-c-3.1.so:_ZN11xercesc_3_111WFElemStack8addLevelEPKtjj
libxerces-c-3.1.so:_ZN11xercesc_3_111WFElemStack8addLevelEv
libxerces-c-3.1.so:_ZN11xercesc_3_111WFElemStack9addPrefixEPKtj
libxerces-c-3.1.so:_ZN11xercesc_3_111WFElemStack9expandMapEv
libxerces-c-3.1.so:_ZN11xercesc_3_111WFElemStackC1EPNS_13MemoryManagerE
libxerces-c-3.1.so:_ZN11xercesc_3_111WFElemStackC2EPNS_13MemoryManagerE
libxerces-c-3.1.so:_ZN11xercesc_3_111WFElemStackD1Ev
libxerces-c-3.1.so:_ZN11xercesc_3_111WFElemStackD2Ev
libxerces-c-3.1.so:_ZN11xercesc_3_111XMLDateTime10parseMonthEv
libxerces-c-3.1.so:_ZN11xercesc_3_111XMLDateTime11addDurationEPS0_PKS0_i
libxerces-c-3.1.so:_ZN11xercesc_3_111XMLDateTime11findUTCSignEm
libxerces-c-3.1.so:_ZN11xercesc_3_111XMLDateTime11getTimeZoneEm
libxerces-c-3.1.so:_ZN11xercesc_3_111XMLDateTime12compareOrderEPKS0_S2_
libxerces-c-3.1.so:_ZN11xercesc_3_111XMLDateTime12createObjectEPNS_13MemoryManagerE
libxerces-c-3.1.so:_ZN11xercesc_3_111XMLDateTime12getYearMonthEv
libxerces-c-3.1.so:_ZN11xercesc_3_111XMLDateTime13compareResultEPKS0_S2_bi
libxerces-c-3.1.so:_ZN11xercesc_3_111XMLDateTime13compareResultEiib
libxerces-c-3.1.so:_ZN11xercesc_3_111XMLDateTime13parseDateTimeEv
libxerces-c-3.1.so:_ZN11xercesc_3_111XMLDateTime13parseDurationEv
libxerces-c-3.1.so:_ZN11xercesc_3_111XMLDateTime13parseMonthDayEv
libxerces-c-3.1.so:_ZN11xercesc_3_111XMLDateTime13parseTimeZoneEv
libxerces-c-3.1.so:_ZN11xercesc_3_111XMLDateTime14parseYearMonthEv
libxerces-c-3.1.so:_ZN11xercesc_3_111XMLDateTime7compareEPKS0_S2_
libxerces-c-3.1.so:_ZN11xercesc_3_111XMLDateTime7compareEPKS0_S2_b
libxerces-c-3.1.so:_ZN11xercesc_3_111XMLDateTime7getDateEv
libxerces-c-3.1.so:_ZN11xercesc_3_111XMLDateTime7getTimeEv
libxerces-c-3.1.so:_ZN11xercesc_3_111XMLDateTime8parseDayEv
libxerces-c-3.1.so:_ZN11xercesc_3_111XMLDateTime9normalizeEv
libxerces-c-3.1.so:_ZN11xercesc_3_111XMLDateTime9parseDateEv
libxerces-c-3.1.so:_ZN11xercesc_3_111XMLDateTime9parseTimeEv
libxerces-c-3.1.so:_ZN11xercesc_3_111XMLDateTime9parseYearEv
libxerces-c-3.1.so:_ZN11xercesc_3_111XMLDateTime9serializeERNS_16XSerializeEngineE
libxerces-c-3.1.so:_ZN11xercesc_3_111XMLDateTimeC1EPKtPNS_13MemoryManagerE
libxerces-c-3.1.so:_ZN11xercesc_3_111XMLDateTimeC1EPNS_13MemoryManagerE
libxerces-c-3.1.so:_ZN11xercesc_3_111XMLDateTimeC1ERKS0_
libxerces-c-3.1.so:_ZN11xercesc_3_111XMLDateTimeC2EPKtPNS_13MemoryManagerE
libxerces-c-3.1.so:_ZN11xercesc_3_111XMLDateTimeC2EPNS_13MemoryManagerE
libxerces-c-3.1.so:_ZN11xercesc_3_111XMLDateTimeC2ERKS0_
libxerces-c-3.1.so:_ZN11xercesc_3_111XMLDateTimeD0Ev
libxerces-c-3.1.so:_ZN11xercesc_3_111XMLDateTimeD1Ev
libxerces-c-3.1.so:_ZN11xercesc_3_111XMLDateTimeD2Ev
libxerces-c-3.1.so:_ZN11xercesc_3_111XMLDateTimeaSERKS0_
libxerces-c-3.1.so:_ZN11xercesc_3_111XercesXPath12createObjectEPNS_13MemoryManagerE
libxerces-c-3.1.so:_ZN11xercesc_3_111XercesXPath15parseExpressionEPNS_13XMLStringPoolEPNS_23XercesNamespaceResolverE
libxerces-c-3.1.so:_ZN11xercesc_3_111XercesXPath26checkForSelectedAttributesEv
libxerces-c-3.1.so:_ZN11xercesc_3_111XercesXPath7cleanUpEv
libxerces-c-3.1.so:_ZN11xercesc_3_111XercesXPath9serializeERNS_16XSerializeEngineE
libxerces-c-3.1.so:_ZN11xercesc_3_111XercesXPathC1EPKtPNS_13XMLStringPoolEPNS_23XercesNamespaceResolverEjbPNS_13MemoryManagerE
libxerces-c-3.1.so:_ZN11xercesc_3_111XercesXPathC1EPNS_13MemoryManagerE
libxerces-c-3.1.so:_ZN11xercesc_3_111XercesXPathC2EPKtPNS_13XMLStringPoolEPNS_23XercesNamespaceResolverEjbPNS_13MemoryManagerE
libxerces-c-3.1.so:_ZN11xercesc_3_111XercesXPathC2EPNS_13MemoryManagerE
libxerces-c-3.1.so:_ZN11xercesc_3_111XercesXPathD0Ev
libxerces-c-3.1.so:_ZN11xercesc_3_111XercesXPathD1Ev
libxerces-c-3.1.so:_ZN11xercesc_3_111XercesXPathD2Ev
libxerces-c-3.1.so:_ZN11xercesc_3_112ClosureTokenC1ENS_5Token7tokTypeEPS1_PNS_13MemoryManagerE
libxerces-c-3.1.so:_ZN11xercesc_3_112ClosureTokenC2ENS_5Token7tokTypeEPS1_PNS_13MemoryManagerE
libxerces-c-3.1.so:_ZN11xercesc_3_112ClosureTokenD0Ev
libxerces-c-3.1.so:_ZN11xercesc_3_112ClosureTokenD1Ev
libxerces-c-3.1.so:_ZN11xercesc_3_112ClosureTokenD2Ev
libxerces-c-3.1.so:_ZN11xercesc_3_112DGXMLScanner10commonInitEv
libxerces-c-3.1.so:_ZN11xercesc_3_112DGXMLScanner10scanEndTagERb
libxerces-c-3.1.so:_ZN11xercesc_3_112DGXMLScanner11loadGrammarERKNS_11InputSourceEsb
libxerces-c-3.1.so:_ZN11xercesc_3_112DGXMLScanner11scanContentEv
libxerces-c-3.1.so:_ZN11xercesc_3_112DGXMLScanner11updateNSMapEPKtS2_S2_
libxerces-c-3.1.so:_ZN11xercesc_3_112DGXMLScanner12buildAttListEmPNS_14XMLElementDeclERNS_11RefVectorOfINS_7XMLAttrEEE
libxerces-c-3.1.so:_ZN11xercesc_3_112DGXMLScanner12scanAttValueEPKNS_9XMLAttDefEPKtRNS_9XMLBufferE
libxerces-c-3.1.so:_ZN11xercesc_3_112DGXMLScanner12scanCharDataERNS_9XMLBufferE
libxerces-c-3.1.so:_ZN11xercesc_3_112DGXMLScanner12scanDocumentERKNS_11InputSourceE
libxerces-c-3.1.so:_ZN11xercesc_3_112DGXMLScanner12scanStartTagERb
libxerces-c-3.1.so:_ZN11xercesc_3_112DGXMLScanner12sendCharDataERNS_9XMLBufferE
libxerces-c-3.1.so:_ZN11xercesc_3_112DGXMLScanner13scanCDSectionEv
libxerces-c-3.1.so:_ZN11xercesc_3_112DGXMLScanner13scanEntityRefEbRtS1_Rb
libxerces-c-3.1.so:_ZN11xercesc_3_112DGXMLScanner14loadDTDGrammarERKNS_11InputSourceEb
libxerces-c-3.1.so:_ZN11xercesc_3_112DGXMLScanner14scanStartTagNSERb
libxerces-c-3.1.so:_ZN11xercesc_3_112DGXMLScanner15resolveSystemIdEPKtS2_
libxerces-c-3.1.so:_ZN11xercesc_3_112DGXMLScanner15scanDocTypeDeclEv
libxerces-c-3.1.so:_ZN11xercesc_3_112DGXMLScanner17getEntityDeclPoolEv
libxerces-c-3.1.so:_ZN11xercesc_3_112DGXMLScanner25scanAttrListforNameSpacesEPNS_11RefVectorOfINS_7XMLAttrEEEmPNS_14XMLElementDeclE
libxerces-c-3.1.so:_ZN11xercesc_3_112DGXMLScanner7cleanUpEv
libxerces-c-3.1.so:_ZN11xercesc_3_112DGXMLScanner8scanNextERNS_13XMLPScanTokenE
libxerces-c-3.1.so:_ZN11xercesc_3_112DGXMLScanner9scanResetERKNS_11InputSourceE
libxerces-c-3.1.so:_ZN11xercesc_3_112DGXMLScannerC1EPNS_12XMLValidatorEPNS_15GrammarResolverEPNS_13MemoryManagerE
libxerces-c-3.1.so:_ZN11xercesc_3_112DGXMLScannerC1EPNS_18XMLDocumentHandlerEPNS_14DocTypeHandlerEPNS_16XMLEntityHandlerEPNS_16XMLErrorReporterEPNS_12XMLValidatorEPNS_15GrammarResolverEPNS_13MemoryManagerE
libxerces-c-3.1.so:_ZN11xercesc_3_112DGXMLScannerC2EPNS_12XMLValidatorEPNS_15GrammarResolverEPNS_13MemoryManagerE
libxerces-c-3.1.so:_ZN11xercesc_3_112DGXMLScannerC2EPNS_18XMLDocumentHandlerEPNS_14DocTypeHandlerEPNS_16XMLEntityHandlerEPNS_16XMLErrorReporterEPNS_12XMLValidatorEPNS_15GrammarResolverEPNS_13MemoryManagerE
libxerces-c-3.1.so:_ZN11xercesc_3_112DGXMLScannerD0Ev
libxerces-c-3.1.so:_ZN11xercesc_3_112DGXMLScannerD1Ev
libxerces-c-3.1.so:_ZN11xercesc_3_112DGXMLScannerD2Ev
libxerces-c-3.1.so:_ZN11xercesc_3_112DOMChildNodeC1ERKS0_
libxerces-c-3.1.so:_ZN11xercesc_3_112DOMChildNodeC1Ev
libxerces-c-3.1.so:_ZN11xercesc_3_112DOMChildNodeC2ERKS0_
libxerces-c-3.1.so:_ZN11xercesc_3_112DOMChildNodeC2Ev
libxerces-c-3.1.so:_ZN11xercesc_3_112DOMChildNodeD1Ev
libxerces-c-3.1.so:_ZN11xercesc_3_112DOMChildNodeD2Ev
libxerces-c-3.1.so:_ZN11xercesc_3_112DOMErrorImpl11setLocationEPNS_10DOMLocatorE
libxerces-c-3.1.so:_ZN11xercesc_3_112DOMErrorImplC1ENS_8DOMError13ErrorSeverityE
libxerces-c-3.1.so:_ZN11xercesc_3_112DOMErrorImplC1ENS_8DOMError13ErrorSeverityEPKtPNS_10DOMLocatorE
libxerces-c-3.1.so:_ZN11xercesc_3_112DOMErrorImplC1ENS_8DOMError13ErrorSeverityEPKtS4_Pv
libxerces-c-3.1.so:_ZN11xercesc_3_112DOMErrorImplC2ENS_8DOMError13ErrorSeverityE
libxerces-c-3.1.so:_ZN11xercesc_3_112DOMErrorImplC2ENS_8DOMError13ErrorSeverityEPKtPNS_10DOMLocatorE
libxerces-c-3.1.so:_ZN11xercesc_3_112DOMErrorImplC2ENS_8DOMError13ErrorSeverityEPKtS4_Pv
libxerces-c-3.1.so:_ZN11xercesc_3_112DOMErrorImplD0Ev
libxerces-c-3.1.so:_ZN11xercesc_3_112DOMErrorImplD1Ev
libxerces-c-3.1.so:_ZN11xercesc_3_112DOMErrorImplD2Ev
libxerces-c-3.1.so:_ZN11xercesc_3_112DOMExceptionC1ERKS0_
libxerces-c-3.1.so:_ZN11xercesc_3_112DOMExceptionC1EssPNS_13MemoryManagerE
libxerces-c-3.1.so:_ZN11xercesc_3_112DOMExceptionC1Ev
libxerces-c-3.1.so:_ZN11xercesc_3_112DOMExceptionC2ERKS0_
libxerces-c-3.1.so:_ZN11xercesc_3_112DOMExceptionC2EssPNS_13MemoryManagerE
libxerces-c-3.1.so:_ZN11xercesc_3_112DOMExceptionC2Ev
libxerces-c-3.1.so:_ZN11xercesc_3_112DOMExceptionD0Ev
libxerces-c-3.1.so:_ZN11xercesc_3_112DOMExceptionD1Ev
libxerces-c-3.1.so:_ZN11xercesc_3_112DOMExceptionD2Ev
libxerces-c-3.1.so:_ZN11xercesc_3_112DOMNodeIDMap3addEPNS_7DOMAttrE
libxerces-c-3.1.so:_ZN11xercesc_3_112DOMNodeIDMap4findEPKt
libxerces-c-3.1.so:_ZN11xercesc_3_112DOMNodeIDMap6removeEPNS_7DOMAttrE
libxerces-c-3.1.so:_ZN11xercesc_3_112DOMNodeIDMap9growTableEv
libxerces-c-3.1.so:_ZN11xercesc_3_112DOMNodeIDMapC1EmPNS_11DOMDocumentE
libxerces-c-3.1.so:_ZN11xercesc_3_112DOMNodeIDMapC2EmPNS_11DOMDocumentE
libxerces-c-3.1.so:_ZN11xercesc_3_112DOMNodeIDMapD1Ev
libxerces-c-3.1.so:_ZN11xercesc_3_112DOMNodeIDMapD2Ev
libxerces-c-3.1.so:_ZN11xercesc_3_112DOMRangeImpl10insertNodeEPNS_7DOMNodeE
libxerces-c-3.1.so:_ZN11xercesc_3_112DOMRangeImpl10selectNodeEPKNS_7DOMNodeE
libxerces-c-3.1.so:_ZN11xercesc_3_112DOMRangeImpl11getDocumentEv
libxerces-c-3.1.so:_ZN11xercesc_3_112DOMRangeImpl11removeChildEPNS_7DOMNodeES2_
libxerces-c-3.1.so:_ZN11xercesc_3_112DOMRangeImpl11setEndAfterEPKNS_7DOMNodeE
libxerces-c-3.1.so:_ZN11xercesc_3_112DOMRangeImpl12isAncestorOfEPKNS_7DOMNodeES3_
libxerces-c-3.1.so:_ZN11xercesc_3_112DOMRangeImpl12setEndBeforeEPKNS_7DOMNodeE
libxerces-c-3.1.so:_ZN11xercesc_3_112DOMRangeImpl12setEndOffsetEm
libxerces-c-3.1.so:_ZN11xercesc_3_112DOMRangeImpl12traverseNodeEPNS_7DOMNodeEbbi
libxerces-c-3.1.so:_ZN11xercesc_3_112DOMRangeImpl13checkReadOnlyEPNS_7DOMNodeES2_mm
libxerces-c-3.1.so:_ZN11xercesc_3_112DOMRangeImpl13setStartAfterEPKNS_7DOMNodeE
libxerces-c-3.1.so:_ZN11xercesc_3_112DOMRangeImpl14deleteContentsEv
libxerces-c-3.1.so:_ZN11xercesc_3_112DOMRangeImpl14setStartBeforeEPKNS_7DOMNodeE
libxerces-c-3.1.so:_ZN11xercesc_3_112DOMRangeImpl14setStartOffsetEm
libxerces-c-3.1.so:_ZN11xercesc_3_112DOMRangeImpl15extractContentsEv
libxerces-c-3.1.so:_ZN11xercesc_3_112DOMRangeImpl15getSelectedNodeEPNS_7DOMNodeEi
libxerces-c-3.1.so:_ZN11xercesc_3_112DOMRangeImpl15setEndContainerEPKNS_7DOMNodeE
libxerces-c-3.1.so:_ZN11xercesc_3_112DOMRangeImpl15updateSplitInfoEPNS_7DOMNodeES2_m
libxerces-c-3.1.so:_ZN11xercesc_3_112DOMRangeImpl16surroundContentsEPNS_7DOMNodeE
libxerces-c-3.1.so:_ZN11xercesc_3_112DOMRangeImpl16traverseContentsENS0_13TraversalTypeE
libxerces-c-3.1.so:_ZN11xercesc_3_112DOMRangeImpl16traverseTextNodeEPNS_7DOMNodeEbi
libxerces-c-3.1.so:_ZN11xercesc_3_112DOMRangeImpl17setStartContainerEPKNS_7DOMNodeE
libxerces-c-3.1.so:_ZN11xercesc_3_112DOMRangeImpl18selectNodeContentsEPKNS_7DOMNodeE
libxerces-c-3.1.so:_ZN11xercesc_3_112DOMRangeImpl19receiveReplacedTextEPNS_7DOMNodeE
libxerces-c-3.1.so:_ZN11xercesc_3_112DOMRangeImpl19recurseTreeAndCheckEPNS_7DOMNodeES2_
libxerces-c-3.1.so:_ZN11xercesc_3_112DOMRangeImpl20traverseLeftBoundaryEPNS_7DOMNodeEi
libxerces-c-3.1.so:_ZN11xercesc_3_112DOMRangeImpl21traverseFullySelectedEPNS_7DOMNodeEi
libxerces-c-3.1.so:_ZN11xercesc_3_112DOMRangeImpl21traverseRightBoundaryEPNS_7DOMNodeEi
libxerces-c-3.1.so:_ZN11xercesc_3_112DOMRangeImpl21traverseSameContainerEi
libxerces-c-3.1.so:_ZN11xercesc_3_112DOMRangeImpl23traverseCommonAncestorsEPNS_7DOMNodeES2_i
libxerces-c-3.1.so:_ZN11xercesc_3_112DOMRangeImpl25traversePartiallySelectedEPNS_7DOMNodeEi
libxerces-c-3.1.so:_ZN11xercesc_3_112DOMRangeImpl25updateRangeForDeletedNodeEPNS_7DOMNodeE
libxerces-c-3.1.so:_ZN11xercesc_3_112DOMRangeImpl25updateRangeForDeletedTextEPNS_7DOMNodeEmm
libxerces-c-3.1.so:_ZN11xercesc_3_112DOMRangeImpl26traverseCommonEndContainerEPNS_7DOMNodeEi
libxerces-c-3.1.so:_ZN11xercesc_3_112DOMRangeImpl26updateRangeForInsertedNodeEPNS_7DOMNodeE
libxerces-c-3.1.so:_ZN11xercesc_3_112DOMRangeImpl26updateRangeForInsertedTextEPNS_7DOMNodeEmm
libxerces-c-3.1.so:_ZN11xercesc_3_112DOMRangeImpl28traverseCommonStartContainerEPNS_7DOMNodeEi
libxerces-c-3.1.so:_ZN11xercesc_3_112DOMRangeImpl6detachEv
libxerces-c-3.1.so:_ZN11xercesc_3_112DOMRangeImpl6setEndEPKNS_7DOMNodeEm
libxerces-c-3.1.so:_ZN11xercesc_3_112DOMRangeImpl7releaseEv
libxerces-c-3.1.so:_ZN11xercesc_3_112DOMRangeImpl8collapseEb
libxerces-c-3.1.so:_ZN11xercesc_3_112DOMRangeImpl8setStartEPKNS_7DOMNodeEm
libxerces-c-3.1.so:_ZN11xercesc_3_112DOMRangeImplC1EPNS_11DOMDocumentEPNS_13MemoryManagerE
libxerces-c-3.1.so:_ZN11xercesc_3_112DOMRangeImplC1ERKS0_
libxerces-c-3.1.so:_ZN11xercesc_3_112DOMRangeImplC2EPNS_11DOMDocumentEPNS_13MemoryManagerE
libxerces-c-3.1.so:_ZN11xercesc_3_112DOMRangeImplC2ERKS0_
libxerces-c-3.1.so:_ZN11xercesc_3_112DOMRangeImplD0Ev
libxerces-c-3.1.so:_ZN11xercesc_3_112DOMRangeImplD1Ev
libxerces-c-3.1.so:_ZN11xercesc_3_112DOMRangeImplD2Ev
libxerces-c-3.1.so:_ZN11xercesc_3_112DTDValidator12checkContentEPNS_14XMLElementDeclEPPNS_5QNameEmPm
libxerces-c-3.1.so:_ZN11xercesc_3_112DTDValidator14checkTokenListERKNS_9XMLAttDefEb
libxerces-c-3.1.so:_ZN11xercesc_3_112DTDValidator17validateAttrValueEPKNS_9XMLAttDefEPKtbPKNS_14XMLElementDeclE
libxerces-c-3.1.so:_ZN11xercesc_3_112DTDValidator19postParseValidationEv
libxerces-c-3.1.so:_ZN11xercesc_3_112DTDValidator20preContentValidationEbb
libxerces-c-3.1.so:_ZN11xercesc_3_112DTDValidator5resetEv
libxerces-c-3.1.so:_ZN11xercesc_3_112DTDValidatorC1EPNS_16XMLErrorReporterE
libxerces-c-3.1.so:_ZN11xercesc_3_112DTDValidatorC2EPNS_16XMLErrorReporterE
libxerces-c-3.1.so:_ZN11xercesc_3_112DTDValidatorD0Ev
libxerces-c-3.1.so:_ZN11xercesc_3_112DTDValidatorD1Ev
libxerces-c-3.1.so:_ZN11xercesc_3_112DTDValidatorD2Ev
libxerces-c-3.1.so:_ZN11xercesc_3_112FieldMatcher7matchedEPKtPNS_17DatatypeValidatorEb
libxerces-c-3.1.so:_ZN11xercesc_3_112FieldMatcherC1EPNS_11XercesXPathEPNS_8IC_FieldEPNS_10ValueStoreEPNS_14FieldActivatorEPNS_13MemoryManagerE
libxerces-c-3.1.so:_ZN11xercesc_3_112FieldMatcherC2EPNS_11XercesXPathEPNS_8IC_FieldEPNS_10ValueStoreEPNS_14FieldActivatorEPNS_13MemoryManagerE
libxerces-c-3.1.so:_ZN11xercesc_3_112IGXMLScanner10commonInitEv
libxerces-c-3.1.so:_ZN11xercesc_3_112IGXMLScanner10scanEndTagERb
libxerces-c-3.1.so:_ZN11xercesc_3_112IGXMLScanner11loadGrammarERKNS_11InputSourceEsb
libxerces-c-3.1.so:_ZN11xercesc_3_112IGXMLScanner11rawAttrScanEPKtRNS_11RefVectorOfINS_12KVStringPairEEERb
libxerces-c-3.1.so:_ZN11xercesc_3_112IGXMLScanner11scanContentEv
libxerces-c-3.1.so:_ZN11xercesc_3_112IGXMLScanner11updateNSMapEPKtS2_
libxerces-c-3.1.so:_ZN11xercesc_3_112IGXMLScanner11updateNSMapEPKtS2_i
libxerces-c-3.1.so:_ZN11xercesc_3_112IGXMLScanner12buildAttListERKNS_11RefVectorOfINS_12KVStringPairEEEmPNS_14XMLElementDeclERNS1_INS_7XMLAttrEEE
libxerces-c-3.1.so:_ZN11xercesc_3_112IGXMLScanner12scanAttValueEPKNS_9XMLAttDefEPKtRNS_9XMLBufferE
libxerces-c-3.1.so:_ZN11xercesc_3_112IGXMLScanner12scanCharDataERNS_9XMLBufferE
libxerces-c-3.1.so:_ZN11xercesc_3_112IGXMLScanner12scanDocumentERKNS_11InputSourceE
libxerces-c-3.1.so:_ZN11xercesc_3_112IGXMLScanner12scanStartTagERb
libxerces-c-3.1.so:_ZN11xercesc_3_112IGXMLScanner12sendCharDataERNS_9XMLBufferE
libxerces-c-3.1.so:_ZN11xercesc_3_112IGXMLScanner13scanCDSectionEv
libxerces-c-3.1.so:_ZN11xercesc_3_112IGXMLScanner13scanEntityRefEbRtS1_Rb
libxerces-c-3.1.so:_ZN11xercesc_3_112IGXMLScanner13switchGrammarEPKt
libxerces-c-3.1.so:_ZN11xercesc_3_112IGXMLScanner14endElementPSVIEPNS_17SchemaElementDeclEPNS_17DatatypeValidatorE
libxerces-c-3.1.so:_ZN11xercesc_3_112IGXMLScanner14loadDTDGrammarERKNS_11InputSourceEb
libxerces-c-3.1.so:_ZN11xercesc_3_112IGXMLScanner14scanStartTagNSERb
libxerces-c-3.1.so:_ZN11xercesc_3_112IGXMLScanner15resizeElemStateEv
libxerces-c-3.1.so:_ZN11xercesc_3_112IGXMLScanner15resolveSystemIdEPKtS2_
libxerces-c-3.1.so:_ZN11xercesc_3_112IGXMLScanner15scanDocTypeDeclEv
libxerces-c-3.1.so:_ZN11xercesc_3_112IGXMLScanner17getEntityDeclPoolEv
libxerces-c-3.1.so:_ZN11xercesc_3_112IGXMLScanner17normalizeAttValueEPKNS_9XMLAttDefEPKtS5_RNS_9XMLBufferE
libxerces-c-3.1.so:_ZN11xercesc_3_112IGXMLScanner18basicAttrValueScanEPKtRNS_9XMLBufferE
libxerces-c-3.1.so:_ZN11xercesc_3_112IGXMLScanner18resetCachedGrammarEv
libxerces-c-3.1.so:_ZN11xercesc_3_112IGXMLScanner19parseSchemaLocationEPKtb
libxerces-c-3.1.so:_ZN11xercesc_3_112IGXMLScanner20laxElementValidationEPNS_5QNameEPNS_25ContentLeafNameTypeVectorEPKNS_15XMLContentModelEm
libxerces-c-3.1.so:_ZN11xercesc_3_112IGXMLScanner20loadXMLSchemaGrammarERKNS_11InputSourceEb
libxerces-c-3.1.so:_ZN11xercesc_3_112IGXMLScanner20normalizeAttRawValueEPKtS2_RNS_9XMLBufferE
libxerces-c-3.1.so:_ZN11xercesc_3_112IGXMLScanner20resetPSVIElemContextEv
libxerces-c-3.1.so:_ZN11xercesc_3_112IGXMLScanner20resolveSchemaGrammarEPKtS2_b
libxerces-c-3.1.so:_ZN11xercesc_3_112IGXMLScanner21processSchemaLocationEPt
libxerces-c-3.1.so:_ZN11xercesc_3_112IGXMLScanner22anyAttributeValidationEPNS_12SchemaAttDefEjRbS3_
libxerces-c-3.1.so:_ZN11xercesc_3_112IGXMLScanner22resizeRawAttrColonListEv
libxerces-c-3.1.so:_ZN11xercesc_3_112IGXMLScanner28scanRawAttrListforNameSpacesEm
libxerces-c-3.1.so:_ZN11xercesc_3_112IGXMLScanner7cleanUpEv
libxerces-c-3.1.so:_ZN11xercesc_3_112IGXMLScanner8scanNextERNS_13XMLPScanTokenE
libxerces-c-3.1.so:_ZN11xercesc_3_112IGXMLScanner9scanResetERKNS_11InputSourceE
libxerces-c-3.1.so:_ZN11xercesc_3_112IGXMLScannerC1EPNS_12XMLValidatorEPNS_15GrammarResolverEPNS_13MemoryManagerE
libxerces-c-3.1.so:_ZN11xercesc_3_112IGXMLScannerC1EPNS_18XMLDocumentHandlerEPNS_14DocTypeHandlerEPNS_16XMLEntityHandlerEPNS_16XMLErrorReporterEPNS_12XMLValidatorEPNS_15GrammarResolverEPNS_13MemoryManagerE
libxerces-c-3.1.so:_ZN11xercesc_3_112IGXMLScannerC2EPNS_12XMLValidatorEPNS_15GrammarResolverEPNS_13MemoryManagerE
libxerces-c-3.1.so:_ZN11xercesc_3_112IGXMLScannerC2EPNS_18XMLDocumentHandlerEPNS_14DocTypeHandlerEPNS_16XMLEntityHandlerEPNS_16XMLErrorReporterEPNS_12XMLValidatorEPNS_15GrammarResolverEPNS_13MemoryManagerE
libxerces-c-3.1.so:_ZN11xercesc_3_112IGXMLScannerD0Ev
libxerces-c-3.1.so:_ZN11xercesc_3_112IGXMLScannerD1Ev
libxerces-c-3.1.so:_ZN11xercesc_3_112IGXMLScannerD2Ev
libxerces-c-3.1.so:_ZN11xercesc_3_112KVStringPair12createObjectEPNS_13MemoryManagerE
libxerces-c-3.1.so:_ZN11xercesc_3_112KVStringPair9serializeERNS_16XSerializeEngineE
libxerces-c-3.1.so:_ZN11xercesc_3_112KVStringPairC1EPKtS2_PNS_13MemoryManagerE
libxerces-c-3.1.so:_ZN11xercesc_3_112KVStringPairC1EPKtS2_mPNS_13MemoryManagerE
libxerces-c-3.1.so:_ZN11xercesc_3_112KVStringPairC1EPKtmS2_mPNS_13MemoryManagerE
libxerces-c-3.1.so:_ZN11xercesc_3_112KVStringPairC1EPNS_13MemoryManagerE
libxerces-c-3.1.so:_ZN11xercesc_3_112KVStringPairC1ERKS0_
libxerces-c-3.1.so:_ZN11xercesc_3_112KVStringPairC2EPKtS2_PNS_13MemoryManagerE
libxerces-c-3.1.so:_ZN11xercesc_3_112KVStringPairC2EPKtS2_mPNS_13MemoryManagerE
libxerces-c-3.1.so:_ZN11xercesc_3_112KVStringPairC2EPKtmS2_mPNS_13MemoryManagerE
libxerces-c-3.1.so:_ZN11xercesc_3_112KVStringPairC2EPNS_13MemoryManagerE
libxerces-c-3.1.so:_ZN11xercesc_3_112KVStringPairC2ERKS0_
libxerces-c-3.1.so:_ZN11xercesc_3_112KVStringPairD0Ev
libxerces-c-3.1.so:_ZN11xercesc_3_112KVStringPairD1Ev
libxerces-c-3.1.so:_ZN11xercesc_3_112KVStringPairD2Ev
libxerces-c-3.1.so:_ZN11xercesc_3_112PanicHandler20getPanicReasonStringENS0_12PanicReasonsE
libxerces-c-3.1.so:_ZN11xercesc_3_112PosixFileMgr10isRelativeEPKtPNS_13MemoryManagerE
libxerces-c-3.1.so:_ZN11xercesc_3_112PosixFileMgr11getFullPathEPKtPNS_13MemoryManagerE
libxerces-c-3.1.so:_ZN11xercesc_3_112PosixFileMgr19getCurrentDirectoryEPNS_13MemoryManagerE
libxerces-c-3.1.so:_ZN11xercesc_3_112PosixFileMgr6curPosEPvPNS_13MemoryManagerE
libxerces-c-3.1.so:_ZN11xercesc_3_112PosixFileMgr8fileOpenEPKcbPNS_13MemoryManagerE
libxerces-c-3.1.so:_ZN11xercesc_3_112PosixFileMgr8fileOpenEPKtbPNS_13MemoryManagerE
libxerces-c-3.1.so:_ZN11xercesc_3_112PosixFileMgr8fileReadEPvmPhPNS_13MemoryManagerE
libxerces-c-3.1.so:_ZN11xercesc_3_112PosixFileMgr8fileSizeEPvPNS_13MemoryManagerE
libxerces-c-3.1.so:_ZN11xercesc_3_112PosixFileMgr9fileCloseEPvPNS_13MemoryManagerE
libxerces-c-3.1.so:_ZN11xercesc_3_112PosixFileMgr9fileResetEPvPNS_13MemoryManagerE
libxerces-c-3.1.so:_ZN11xercesc_3_112PosixFileMgr9fileWriteEPvmPKhPNS_13MemoryManagerE
libxerces-c-3.1.so:_ZN11xercesc_3_112PosixFileMgr9openStdInEPNS_13MemoryManagerE
libxerces-c-3.1.so:_ZN11xercesc_3_112PosixFileMgrC1Ev
libxerces-c-3.1.so:_ZN11xercesc_3_112PosixFileMgrC2Ev
libxerces-c-3.1.so:_ZN11xercesc_3_112PosixFileMgrD0Ev
libxerces-c-3.1.so:_ZN11xercesc_3_112PosixFileMgrD1Ev
libxerces-c-3.1.so:_ZN11xercesc_3_112PosixFileMgrD2Ev
libxerces-c-3.1.so:_ZN11xercesc_3_112RangeFactoryC1Ev
libxerces-c-3.1.so:_ZN11xercesc_3_112RangeFactoryC2Ev
libxerces-c-3.1.so:_ZN11xercesc_3_112RangeFactoryD0Ev
libxerces-c-3.1.so:_ZN11xercesc_3_112RangeFactoryD1Ev
libxerces-c-3.1.so:_ZN11xercesc_3_112RangeFactoryD2Ev
libxerces-c-3.1.so:_ZN11xercesc_3_112SGXMLScanner10commonInitEv
libxerces-c-3.1.so:_ZN11xercesc_3_112SGXMLScanner10scanEndTagERb
libxerces-c-3.1.so:_ZN11xercesc_3_112SGXMLScanner11loadGrammarERKNS_11InputSourceEsb
libxerces-c-3.1.so:_ZN11xercesc_3_112SGXMLScanner11rawAttrScanEPKtRNS_11RefVectorOfINS_12KVStringPairEEERb
libxerces-c-3.1.so:_ZN11xercesc_3_112SGXMLScanner11scanContentEv
libxerces-c-3.1.so:_ZN11xercesc_3_112SGXMLScanner11updateNSMapEPKtS2_
libxerces-c-3.1.so:_ZN11xercesc_3_112SGXMLScanner11updateNSMapEPKtS2_i
libxerces-c-3.1.so:_ZN11xercesc_3_112SGXMLScanner12buildAttListERKNS_11RefVectorOfINS_12KVStringPairEEEmPNS_14XMLElementDeclERNS1_INS_7XMLAttrEEE
libxerces-c-3.1.so:_ZN11xercesc_3_112SGXMLScanner12scanCharDataERNS_9XMLBufferE
libxerces-c-3.1.so:_ZN11xercesc_3_112SGXMLScanner12scanDocumentERKNS_11InputSourceE
libxerces-c-3.1.so:_ZN11xercesc_3_112SGXMLScanner12scanStartTagERb
libxerces-c-3.1.so:_ZN11xercesc_3_112SGXMLScanner12sendCharDataERNS_9XMLBufferE
libxerces-c-3.1.so:_ZN11xercesc_3_112SGXMLScanner13scanCDSectionEv
libxerces-c-3.1.so:_ZN11xercesc_3_112SGXMLScanner13scanEntityRefEbRtS1_Rb
libxerces-c-3.1.so:_ZN11xercesc_3_112SGXMLScanner13switchGrammarEPKt
libxerces-c-3.1.so:_ZN11xercesc_3_112SGXMLScanner14endElementPSVIEPNS_17SchemaElementDeclEPNS_17DatatypeValidatorE
libxerces-c-3.1.so:_ZN11xercesc_3_112SGXMLScanner15resizeElemStateEv
libxerces-c-3.1.so:_ZN11xercesc_3_112SGXMLScanner15resolveSystemIdEPKtS2_
libxerces-c-3.1.so:_ZN11xercesc_3_112SGXMLScanner15scanDocTypeDeclEv
libxerces-c-3.1.so:_ZN11xercesc_3_112SGXMLScanner17getEntityDeclPoolEv
libxerces-c-3.1.so:_ZN11xercesc_3_112SGXMLScanner17normalizeAttValueEPKNS_9XMLAttDefEPKtS5_RNS_9XMLBufferE
libxerces-c-3.1.so:_ZN11xercesc_3_112SGXMLScanner18basicAttrValueScanEPKtRNS_9XMLBufferE
libxerces-c-3.1.so:_ZN11xercesc_3_112SGXMLScanner18resetCachedGrammarEv
libxerces-c-3.1.so:_ZN11xercesc_3_112SGXMLScanner19parseSchemaLocationEPKtb
libxerces-c-3.1.so:_ZN11xercesc_3_112SGXMLScanner20laxElementValidationEPNS_5QNameEPNS_25ContentLeafNameTypeVectorEPKNS_15XMLContentModelEm
libxerces-c-3.1.so:_ZN11xercesc_3_112SGXMLScanner20loadXMLSchemaGrammarERKNS_11InputSourceEb
libxerces-c-3.1.so:_ZN11xercesc_3_112SGXMLScanner20normalizeAttRawValueEPKtS2_RNS_9XMLBufferE
libxerces-c-3.1.so:_ZN11xercesc_3_112SGXMLScanner20resetPSVIElemContextEv
libxerces-c-3.1.so:_ZN11xercesc_3_112SGXMLScanner20resolveSchemaGrammarEPKtS2_b
libxerces-c-3.1.so:_ZN11xercesc_3_112SGXMLScanner22anyAttributeValidationEPNS_12SchemaAttDefEjRbS3_
libxerces-c-3.1.so:_ZN11xercesc_3_112SGXMLScanner22resizeRawAttrColonListEv
libxerces-c-3.1.so:_ZN11xercesc_3_112SGXMLScanner28scanRawAttrListforNameSpacesEm
libxerces-c-3.1.so:_ZN11xercesc_3_112SGXMLScanner7cleanUpEv
libxerces-c-3.1.so:_ZN11xercesc_3_112SGXMLScanner8scanNextERNS_13XMLPScanTokenE
libxerces-c-3.1.so:_ZN11xercesc_3_112SGXMLScanner9scanResetERKNS_11InputSourceE
libxerces-c-3.1.so:_ZN11xercesc_3_112SGXMLScannerC1EPNS_12XMLValidatorEPNS_15GrammarResolverEPNS_13MemoryManagerE
libxerces-c-3.1.so:_ZN11xercesc_3_112SGXMLScannerC1EPNS_18XMLDocumentHandlerEPNS_14DocTypeHandlerEPNS_16XMLEntityHandlerEPNS_16XMLErrorReporterEPNS_12XMLValidatorEPNS_15GrammarResolverEPNS_13MemoryManagerE
libxerces-c-3.1.so:_ZN11xercesc_3_112SGXMLScannerC2EPNS_12XMLValidatorEPNS_15GrammarResolverEPNS_13MemoryManagerE
libxerces-c-3.1.so:_ZN11xercesc_3_112SGXMLScannerC2EPNS_18XMLDocumentHandlerEPNS_14DocTypeHandlerEPNS_16XMLEntityHandlerEPNS_16XMLErrorReporterEPNS_12XMLValidatorEPNS_15GrammarResolverEPNS_13MemoryManagerE
libxerces-c-3.1.so:_ZN11xercesc_3_112SGXMLScannerD0Ev
libxerces-c-3.1.so:_ZN11xercesc_3_112SGXMLScannerD1Ev
libxerces-c-3.1.so:_ZN11xercesc_3_112SGXMLScannerD2Ev
libxerces-c-3.1.so:_ZN11xercesc_3_112SchemaAttDef10setAttNameEPKtS2_i
libxerces-c-3.1.so:_ZN11xercesc_3_112SchemaAttDef12createObjectEPNS_13MemoryManagerE
libxerces-c-3.1.so:_ZN11xercesc_3_112SchemaAttDef9serializeERNS_16XSerializeEngineE
libxerces-c-3.1.so:_ZN11xercesc_3_112SchemaAttDefC1EPKS0_
libxerces-c-3.1.so:_ZN11xercesc_3_112SchemaAttDefC1EPKtS2_iNS_9XMLAttDef8AttTypesENS3_11DefAttTypesEPNS_13MemoryManagerE
libxerces-c-3.1.so:_ZN11xercesc_3_112SchemaAttDefC1EPKtS2_iS2_NS_9XMLAttDef8AttTypesENS3_11DefAttTypesES2_PNS_13MemoryManagerE
libxerces-c-3.1.so:_ZN11xercesc_3_112SchemaAttDefC1EPNS_13MemoryManagerE
libxerces-c-3.1.so:_ZN11xercesc_3_112SchemaAttDefC2EPKS0_
libxerces-c-3.1.so:_ZN11xercesc_3_112SchemaAttDefC2EPKtS2_iNS_9XMLAttDef8AttTypesENS3_11DefAttTypesEPNS_13MemoryManagerE
libxerces-c-3.1.so:_ZN11xercesc_3_112SchemaAttDefC2EPKtS2_iS2_NS_9XMLAttDef8AttTypesENS3_11DefAttTypesES2_PNS_13MemoryManagerE
libxerces-c-3.1.so:_ZN11xercesc_3_112SchemaAttDefC2EPNS_13MemoryManagerE
libxerces-c-3.1.so:_ZN11xercesc_3_112SchemaAttDefD0Ev
libxerces-c-3.1.so:_ZN11xercesc_3_112SchemaAttDefD1Ev
libxerces-c-3.1.so:_ZN11xercesc_3_112SchemaAttDefD2Ev
libxerces-c-3.1.so:_ZN11xercesc_3_112TokenFactory10createCharEjb
libxerces-c-3.1.so:_ZN11xercesc_3_112TokenFactory10getLineEndEv
libxerces-c-3.1.so:_ZN11xercesc_3_112TokenFactory11createRangeEb
libxerces-c-3.1.so:_ZN11xercesc_3_112TokenFactory11createTokenENS_5Token7tokTypeE
libxerces-c-3.1.so:_ZN11xercesc_3_112TokenFactory11createUnionEb
libxerces-c-3.1.so:_ZN11xercesc_3_112TokenFactory12createConcatEPNS_5TokenES2_
libxerces-c-3.1.so:_ZN11xercesc_3_112TokenFactory12createStringEPKt
libxerces-c-3.1.so:_ZN11xercesc_3_112TokenFactory12getLineBeginEv
libxerces-c-3.1.so:_ZN11xercesc_3_112TokenFactory13createClosureEPNS_5TokenEb
libxerces-c-3.1.so:_ZN11xercesc_3_112TokenFactory14staticGetRangeEPKtb
libxerces-c-3.1.so:_ZN11xercesc_3_112TokenFactory17createParenthesisEPNS_5TokenEi
libxerces-c-3.1.so:_ZN11xercesc_3_112TokenFactory19createBackReferenceEi
libxerces-c-3.1.so:_ZN11xercesc_3_112TokenFactory6getDotEv
libxerces-c-3.1.so:_ZN11xercesc_3_112TokenFactoryC1EPNS_13MemoryManagerE
libxerces-c-3.1.so:_ZN11xercesc_3_112TokenFactoryC2EPNS_13MemoryManagerE
libxerces-c-3.1.so:_ZN11xercesc_3_112TokenFactoryD1Ev
libxerces-c-3.1.so:_ZN11xercesc_3_112TokenFactoryD2Ev
libxerces-c-3.1.so:_ZN11xercesc_3_112WFXMLScanner10commonInitEv
libxerces-c-3.1.so:_ZN11xercesc_3_112WFXMLScanner10scanEndTagERb
libxerces-c-3.1.so:_ZN11xercesc_3_112WFXMLScanner11loadGrammarERKNS_11InputSourceEsb
libxerces-c-3.1.so:_ZN11xercesc_3_112WFXMLScanner11scanContentEv
libxerces-c-3.1.so:_ZN11xercesc_3_112WFXMLScanner12scanAttValueEPKtRNS_9XMLBufferE
libxerces-c-3.1.so:_ZN11xercesc_3_112WFXMLScanner12scanCharDataERNS_9XMLBufferE
libxerces-c-3.1.so:_ZN11xercesc_3_112WFXMLScanner12scanDocumentERKNS_11InputSourceE
libxerces-c-3.1.so:_ZN11xercesc_3_112WFXMLScanner12scanStartTagERb
libxerces-c-3.1.so:_ZN11xercesc_3_112WFXMLScanner12sendCharDataERNS_9XMLBufferE
libxerces-c-3.1.so:_ZN11xercesc_3_112WFXMLScanner13scanCDSectionEv
libxerces-c-3.1.so:_ZN11xercesc_3_112WFXMLScanner13scanEntityRefEbRtS1_Rb
libxerces-c-3.1.so:_ZN11xercesc_3_112WFXMLScanner14scanStartTagNSERb
libxerces-c-3.1.so:_ZN11xercesc_3_112WFXMLScanner15resolveSystemIdEPKtS2_
libxerces-c-3.1.so:_ZN11xercesc_3_112WFXMLScanner15scanDocTypeDeclEv
libxerces-c-3.1.so:_ZN11xercesc_3_112WFXMLScanner17getEntityDeclPoolEv
libxerces-c-3.1.so:_ZN11xercesc_3_112WFXMLScanner7cleanUpEv
libxerces-c-3.1.so:_ZN11xercesc_3_112WFXMLScanner8scanNextERNS_13XMLPScanTokenE
libxerces-c-3.1.so:_ZN11xercesc_3_112WFXMLScanner9scanResetERKNS_11InputSourceE
libxerces-c-3.1.so:_ZN11xercesc_3_112WFXMLScannerC1EPNS_12XMLValidatorEPNS_15GrammarResolverEPNS_13MemoryManagerE
libxerces-c-3.1.so:_ZN11xercesc_3_112WFXMLScannerC1EPNS_18XMLDocumentHandlerEPNS_14DocTypeHandlerEPNS_16XMLEntityHandlerEPNS_16XMLErrorReporterEPNS_12XMLValidatorEPNS_15GrammarResolverEPNS_13MemoryManagerE
libxerces-c-3.1.so:_ZN11xercesc_3_112WFXMLScannerC2EPNS_12XMLValidatorEPNS_15GrammarResolverEPNS_13MemoryManagerE
libxerces-c-3.1.so:_ZN11xercesc_3_112WFXMLScannerC2EPNS_18XMLDocumentHandlerEPNS_14DocTypeHandlerEPNS_16XMLEntityHandlerEPNS_16XMLErrorReporterEPNS_12XMLValidatorEPNS_15GrammarResolverEPNS_13MemoryManagerE
libxerces-c-3.1.so:_ZN11xercesc_3_112WFXMLScannerD0Ev
libxerces-c-3.1.so:_ZN11xercesc_3_112WFXMLScannerD1Ev
libxerces-c-3.1.so:_ZN11xercesc_3_112WFXMLScannerD2Ev
libxerces-c-3.1.so:_ZN11xercesc_3_112XMLBufferMgr11bidOnBufferEv
libxerces-c-3.1.so:_ZN11xercesc_3_112XMLBufferMgr13releaseBufferERNS_9XMLBufferE
libxerces-c-3.1.so:_ZN11xercesc_3_112XMLBufferMgrC1EPNS_13MemoryManagerE
libxerces-c-3.1.so:_ZN11xercesc_3_112XMLBufferMgrC2EPNS_13MemoryManagerE
libxerces-c-3.1.so:_ZN11xercesc_3_112XMLBufferMgrD1Ev
libxerces-c-3.1.so:_ZN11xercesc_3_112XMLBufferMgrD2Ev
libxerces-c-3.1.so:_ZN11xercesc_3_112XMLException11setPositionEPKcm
libxerces-c-3.1.so:_ZN11xercesc_3_112XMLException14loadExceptTextENS_10XMLExcepts5CodesE
libxerces-c-3.1.so:_ZN11xercesc_3_112XMLException14loadExceptTextENS_10XMLExcepts5CodesEPKcS4_S4_S4_
libxerces-c-3.1.so:_ZN11xercesc_3_112XMLException14loadExceptTextENS_10XMLExcepts5CodesEPKtS4_S4_S4_
libxerces-c-3.1.so:_ZN11xercesc_3_112XMLExceptionC1EPKcmPNS_13MemoryManagerE
libxerces-c-3.1.so:_ZN11xercesc_3_112XMLExceptionC1ERKS0_
libxerces-c-3.1.so:_ZN11xercesc_3_112XMLExceptionC1Ev
libxerces-c-3.1.so:_ZN11xercesc_3_112XMLExceptionC2EPKcmPNS_13MemoryManagerE
libxerces-c-3.1.so:_ZN11xercesc_3_112XMLExceptionC2ERKS0_
libxerces-c-3.1.so:_ZN11xercesc_3_112XMLExceptionC2Ev
libxerces-c-3.1.so:_ZN11xercesc_3_112XMLExceptionD0Ev
libxerces-c-3.1.so:_ZN11xercesc_3_112XMLExceptionD1Ev
libxerces-c-3.1.so:_ZN11xercesc_3_112XMLExceptionD2Ev
libxerces-c-3.1.so:_ZN11xercesc_3_112XMLExceptionaSERKS0_
libxerces-c-3.1.so:_ZN11xercesc_3_112XMLFormatter10getCharRefERmRPhPKt
libxerces-c-3.1.so:_ZN11xercesc_3_112XMLFormatter12inEscapeListENS0_11EscapeFlagsEt
libxerces-c-3.1.so:_ZN11xercesc_3_112XMLFormatter12writeCharRefERKt
libxerces-c-3.1.so:_ZN11xercesc_3_112XMLFormatter12writeCharRefEm
libxerces-c-3.1.so:_ZN11xercesc_3_112XMLFormatter13specialFormatEPKtmNS0_11EscapeFlagsE
libxerces-c-3.1.so:_ZN11xercesc_3_112XMLFormatter20handleUnEscapedCharsEPKtmNS0_10UnRepFlagsE
libxerces-c-3.1.so:_ZN11xercesc_3_112XMLFormatter8writeBOMEPKhm
libxerces-c-3.1.so:_ZN11xercesc_3_112XMLFormatter9formatBufEPKtmNS0_11EscapeFlagsENS0_10UnRepFlagsE
libxerces-c-3.1.so:_ZN11xercesc_3_112XMLFormatterC1EPKcPNS_15XMLFormatTargetENS0_11EscapeFlagsENS0_10UnRepFlagsEPNS_13MemoryManagerE
libxerces-c-3.1.so:_ZN11xercesc_3_112XMLFormatterC1EPKcS2_PNS_15XMLFormatTargetENS0_11EscapeFlagsENS0_10UnRepFlagsEPNS_13MemoryManagerE
libxerces-c-3.1.so:_ZN11xercesc_3_112XMLFormatterC1EPKtPNS_15XMLFormatTargetENS0_11EscapeFlagsENS0_10UnRepFlagsEPNS_13MemoryManagerE
libxerces-c-3.1.so:_ZN11xercesc_3_112XMLFormatterC1EPKtS2_PNS_15XMLFormatTargetENS0_11EscapeFlagsENS0_10UnRepFlagsEPNS_13MemoryManagerE
libxerces-c-3.1.so:_ZN11xercesc_3_112XMLFormatterC2EPKcPNS_15XMLFormatTargetENS0_11EscapeFlagsENS0_10UnRepFlagsEPNS_13MemoryManagerE
libxerces-c-3.1.so:_ZN11xercesc_3_112XMLFormatterC2EPKcS2_PNS_15XMLFormatTargetENS0_11EscapeFlagsENS0_10UnRepFlagsEPNS_13MemoryManagerE
libxerces-c-3.1.so:_ZN11xercesc_3_112XMLFormatterC2EPKtPNS_15XMLFormatTargetENS0_11EscapeFlagsENS0_10UnRepFlagsEPNS_13MemoryManagerE
libxerces-c-3.1.so:_ZN11xercesc_3_112XMLFormatterC2EPKtS2_PNS_15XMLFormatTargetENS0_11EscapeFlagsENS0_10UnRepFlagsEPNS_13MemoryManagerE
libxerces-c-3.1.so:_ZN11xercesc_3_112XMLFormatterD1Ev
libxerces-c-3.1.so:_ZN11xercesc_3_112XMLFormatterD2Ev
libxerces-c-3.1.so:_ZN11xercesc_3_112XMLFormatterlsEPKt
libxerces-c-3.1.so:_ZN11xercesc_3_112XMLFormatterlsEt
libxerces-c-3.1.so:_ZN11xercesc_3_112XMLMsgLoader10getNLSHomeEv
libxerces-c-3.1.so:_ZN11xercesc_3_112XMLMsgLoader10setNLSHomeEPKc
libxerces-c-3.1.so:_ZN11xercesc_3_112XMLMsgLoader9getLocaleEv
libxerces-c-3.1.so:_ZN11xercesc_3_112XMLMsgLoader9setLocaleEPKc
libxerces-c-3.1.so:_ZN11xercesc_3_112XMLMutexLockC1EPNS_8XMLMutexE
libxerces-c-3.1.so:_ZN11xercesc_3_112XMLMutexLockC2EPNS_8XMLMutexE
libxerces-c-3.1.so:_ZN11xercesc_3_112XMLMutexLockD1Ev
libxerces-c-3.1.so:_ZN11xercesc_3_112XMLMutexLockD2Ev
libxerces-c-3.1.so:_ZN11xercesc_3_112XMLValidator9emitErrorENS_8XMLValid5CodesE
libxerces-c-3.1.so:_ZN11xercesc_3_112XMLValidator9emitErrorENS_8XMLValid5CodesENS_10XMLExcepts5CodesEPKtS6_S6_S6_
libxerces-c-3.1.so:_ZN11xercesc_3_112XMLValidator9emitErrorENS_8XMLValid5CodesEPKcS4_S4_S4_
libxerces-c-3.1.so:_ZN11xercesc_3_112XMLValidator9emitErrorENS_8XMLValid5CodesEPKtS4_S4_S4_
libxerces-c-3.1.so:_ZN11xercesc_3_112XMLValidatorC1EPNS_16XMLErrorReporterE
libxerces-c-3.1.so:_ZN11xercesc_3_112XMLValidatorC2EPNS_16XMLErrorReporterE
libxerces-c-3.1.so:_ZN11xercesc_3_112XPathMatcher10endElementERKNS_14XMLElementDeclEPKtPNS_17ValidationContextEPNS_17DatatypeValidatorE
libxerces-c-3.1.so:_ZN11xercesc_3_112XPathMatcher12startElementERKNS_14XMLElementDeclEjPKtRKNS_11RefVectorOfINS_7XMLAttrEEEmPNS_17ValidationContextE
libxerces-c-3.1.so:_ZN11xercesc_3_112XPathMatcher21startDocumentFragmentEv
libxerces-c-3.1.so:_ZN11xercesc_3_112XPathMatcher4initEPNS_11XercesXPathE
libxerces-c-3.1.so:_ZN11xercesc_3_112XPathMatcher7matchedEPKtPNS_17DatatypeValidatorEb
libxerces-c-3.1.so:_ZN11xercesc_3_112XPathMatcher7matchesEPKNS_14XercesNodeTestEPKNS_5QNameE
libxerces-c-3.1.so:_ZN11xercesc_3_112XPathMatcher9isMatchedEv
libxerces-c-3.1.so:_ZN11xercesc_3_112XPathMatcherC1EPNS_11XercesXPathEPNS_13MemoryManagerE
libxerces-c-3.1.so:_ZN11xercesc_3_112XPathMatcherC1EPNS_11XercesXPathEPNS_18IdentityConstraintEPNS_13MemoryManagerE
libxerces-c-3.1.so:_ZN11xercesc_3_112XPathMatcherC2EPNS_11XercesXPathEPNS_13MemoryManagerE
libxerces-c-3.1.so:_ZN11xercesc_3_112XPathMatcherC2EPNS_11XercesXPathEPNS_18IdentityConstraintEPNS_13MemoryManagerE
libxerces-c-3.1.so:_ZN11xercesc_3_112XPathMatcherD0Ev
libxerces-c-3.1.so:_ZN11xercesc_3_112XPathMatcherD1Ev
libxerces-c-3.1.so:_ZN11xercesc_3_112XPathMatcherD2Ev
libxerces-c-3.1.so:_ZN11xercesc_3_112XPathScanner10scanNCNameEPKtmm
libxerces-c-3.1.so:_ZN11xercesc_3_112XPathScanner10scanNumberEPKtmmPNS_13ValueVectorOfIiEE
libxerces-c-3.1.so:_ZN11xercesc_3_112XPathScanner14scanExpressionEPKtmmPNS_13ValueVectorOfIiEE
libxerces-c-3.1.so:_ZN11xercesc_3_112XPathScanner4initEv
libxerces-c-3.1.so:_ZN11xercesc_3_112XPathScannerC1EPNS_13XMLStringPoolE
libxerces-c-3.1.so:_ZN11xercesc_3_112XPathScannerC2EPNS_13XMLStringPoolE
libxerces-c-3.1.so:_ZN11xercesc_3_112XSAnnotation11setSystemIdEPKt
libxerces-c-3.1.so:_ZN11xercesc_3_112XSAnnotation12createObjectEPNS_13MemoryManagerE
libxerces-c-3.1.so:_ZN11xercesc_3_112XSAnnotation15writeAnnotationEPNS_14ContentHandlerE
libxerces-c-3.1.so:_ZN11xercesc_3_112XSAnnotation15writeAnnotationEPNS_7DOMNodeENS0_17ANNOTATION_TARGETE
libxerces-c-3.1.so:_ZN11xercesc_3_112XSAnnotation7getNextEv
libxerces-c-3.1.so:_ZN11xercesc_3_112XSAnnotation7setNextEPS0_
libxerces-c-3.1.so:_ZN11xercesc_3_112XSAnnotation9serializeERNS_16XSerializeEngineE
libxerces-c-3.1.so:_ZN11xercesc_3_112XSAnnotationC1EPKtPNS_13MemoryManagerE
libxerces-c-3.1.so:_ZN11xercesc_3_112XSAnnotationC1EPNS_13MemoryManagerE
libxerces-c-3.1.so:_ZN11xercesc_3_112XSAnnotationC2EPKtPNS_13MemoryManagerE
libxerces-c-3.1.so:_ZN11xercesc_3_112XSAnnotationC2EPNS_13MemoryManagerE
libxerces-c-3.1.so:_ZN11xercesc_3_112XSAnnotationD0Ev
libxerces-c-3.1.so:_ZN11xercesc_3_112XSAnnotationD1Ev
libxerces-c-3.1.so:_ZN11xercesc_3_112XSAnnotationD2Ev
libxerces-c-3.1.so:_ZN11xercesc_3_112XSDDOMParser10docCommentEPKt
libxerces-c-3.1.so:_ZN11xercesc_3_112XSDDOMParser10endElementERKNS_14XMLElementDeclEjbPKt
libxerces-c-3.1.so:_ZN11xercesc_3_112XSDDOMParser12startElementERKNS_14XMLElementDeclEjPKtRKNS_11RefVectorOfINS_7XMLAttrEEEmbb
libxerces-c-3.1.so:_ZN11xercesc_3_112XSDDOMParser13docCharactersEPKtmb
libxerces-c-3.1.so:_ZN11xercesc_3_112XSDDOMParser13resolveEntityEPNS_21XMLResourceIdentifierE
libxerces-c-3.1.so:_ZN11xercesc_3_112XSDDOMParser15startAnnotationERKNS_14XMLElementDeclERKNS_11RefVectorOfINS_7XMLAttrEEEm
libxerces-c-3.1.so:_ZN11xercesc_3_112XSDDOMParser18endEntityReferenceERKNS_13XMLEntityDeclE
libxerces-c-3.1.so:_ZN11xercesc_3_112XSDDOMParser19createElementNSNodeEPKtS2_
libxerces-c-3.1.so:_ZN11xercesc_3_112XSDDOMParser19ignorableWhitespaceEPKtmb
libxerces-c-3.1.so:_ZN11xercesc_3_112XSDDOMParser20endAnnotationElementERKNS_14XMLElementDeclEb
libxerces-c-3.1.so:_ZN11xercesc_3_112XSDDOMParser20setUserEntityHandlerEPNS_16XMLEntityHandlerE
libxerces-c-3.1.so:_ZN11xercesc_3_112XSDDOMParser20setUserErrorReporterEPNS_16XMLErrorReporterE
libxerces-c-3.1.so:_ZN11xercesc_3_112XSDDOMParser20startEntityReferenceERKNS_13XMLEntityDeclE
libxerces-c-3.1.so:_ZN11xercesc_3_112XSDDOMParser22startAnnotationElementERKNS_14XMLElementDeclERKNS_11RefVectorOfINS_7XMLAttrEEEm
libxerces-c-3.1.so:_ZN11xercesc_3_112XSDDOMParser5errorEjPKtNS_16XMLErrorReporter8ErrTypesES2_S2_S2_mm
libxerces-c-3.1.so:_ZN11xercesc_3_112XSDDOMParserC1EPNS_12XMLValidatorEPNS_13MemoryManagerEPNS_14XMLGrammarPoolE
libxerces-c-3.1.so:_ZN11xercesc_3_112XSDDOMParserC2EPNS_12XMLValidatorEPNS_13MemoryManagerEPNS_14XMLGrammarPoolE
libxerces-c-3.1.so:_ZN11xercesc_3_112XSDDOMParserD0Ev
libxerces-c-3.1.so:_ZN11xercesc_3_112XSDDOMParserD1Ev
libxerces-c-3.1.so:_ZN11xercesc_3_112XSDDOMParserD2Ev
libxerces-c-3.1.so:_ZN11xercesc_3_112XSModelGroupC1ENS0_15COMPOSITOR_TYPEEPNS_11RefVectorOfINS_10XSParticleEEEPNS_12XSAnnotationEPNS_7XSModelEPNS_13MemoryManagerE
libxerces-c-3.1.so:_ZN11xercesc_3_112XSModelGroupC2ENS0_15COMPOSITOR_TYPEEPNS_11RefVectorOfINS_10XSParticleEEEPNS_12XSAnnotationEPNS_7XSModelEPNS_13MemoryManagerE
libxerces-c-3.1.so:_ZN11xercesc_3_112XSModelGroupD0Ev
libxerces-c-3.1.so:_ZN11xercesc_3_112XSModelGroupD1Ev
libxerces-c-3.1.so:_ZN11xercesc_3_112XSModelGroupD2Ev
libxerces-c-3.1.so:_ZN11xercesc_3_113DOMAttrNSImpl6renameEPKtS2_
libxerces-c-3.1.so:_ZN11xercesc_3_113DOMAttrNSImpl7releaseEv
libxerces-c-3.1.so:_ZN11xercesc_3_113DOMAttrNSImpl7setNameEPKtS2_
libxerces-c-3.1.so:_ZN11xercesc_3_113DOMAttrNSImpl9setPrefixEPKt
libxerces-c-3.1.so:_ZN11xercesc_3_113DOMAttrNSImplC1EPNS_11DOMDocumentEPKt
libxerces-c-3.1.so:_ZN11xercesc_3_113DOMAttrNSImplC1EPNS_11DOMDocumentEPKtS4_
libxerces-c-3.1.so:_ZN11xercesc_3_113DOMAttrNSImplC1EPNS_11DOMDocumentEPKtS4_S4_S4_
libxerces-c-3.1.so:_ZN11xercesc_3_113DOMAttrNSImplC1ERKS0_b
libxerces-c-3.1.so:_ZN11xercesc_3_113DOMAttrNSImplC2EPNS_11DOMDocumentEPKt
libxerces-c-3.1.so:_ZN11xercesc_3_113DOMAttrNSImplC2EPNS_11DOMDocumentEPKtS4_
libxerces-c-3.1.so:_ZN11xercesc_3_113DOMAttrNSImplC2EPNS_11DOMDocumentEPKtS4_S4_S4_
libxerces-c-3.1.so:_ZN11xercesc_3_113DOMAttrNSImplC2ERKS0_b
libxerces-c-3.1.so:_ZN11xercesc_3_113DOMEntityImpl10setBaseURIEPKt
libxerces-c-3.1.so:_ZN11xercesc_3_113DOMEntityImpl11appendChildEPNS_7DOMNodeE
libxerces-c-3.1.so:_ZN11xercesc_3_113DOMEntityImpl11removeChildEPNS_7DOMNodeE
libxerces-c-3.1.so:_ZN11xercesc_3_113DOMEntityImpl11setPublicIdEPKt
libxerces-c-3.1.so:_ZN11xercesc_3_113DOMEntityImpl11setSystemIdEPKt
libxerces-c-3.1.so:_ZN11xercesc_3_113DOMEntityImpl11setUserDataEPKtPvPNS_18DOMUserDataHandlerE
libxerces-c-3.1.so:_ZN11xercesc_3_113DOMEntityImpl12insertBeforeEPNS_7DOMNodeES2_
libxerces-c-3.1.so:_ZN11xercesc_3_113DOMEntityImpl12replaceChildEPNS_7DOMNodeES2_
libxerces-c-3.1.so:_ZN11xercesc_3_113DOMEntityImpl12setEntityRefEPNS_18DOMEntityReferenceE
libxerces-c-3.1.so:_ZN11xercesc_3_113DOMEntityImpl12setNodeValueEPKt
libxerces-c-3.1.so:_ZN11xercesc_3_113DOMEntityImpl13setXmlVersionEPKt
libxerces-c-3.1.so:_ZN11xercesc_3_113DOMEntityImpl14setTextContentEPKt
libxerces-c-3.1.so:_ZN11xercesc_3_113DOMEntityImpl14setXmlEncodingEPKt
libxerces-c-3.1.so:_ZN11xercesc_3_113DOMEntityImpl15setNotationNameEPKt
libxerces-c-3.1.so:_ZN11xercesc_3_113DOMEntityImpl16setInputEncodingEPKt
libxerces-c-3.1.so:_ZN11xercesc_3_113DOMEntityImpl7releaseEv
libxerces-c-3.1.so:_ZN11xercesc_3_113DOMEntityImpl9normalizeEv
libxerces-c-3.1.so:_ZN11xercesc_3_113DOMEntityImpl9setPrefixEPKt
libxerces-c-3.1.so:_ZN11xercesc_3_113DOMEntityImplC1EPNS_11DOMDocumentEPKt
libxerces-c-3.1.so:_ZN11xercesc_3_113DOMEntityImplC1ERKS0_b
libxerces-c-3.1.so:_ZN11xercesc_3_113DOMEntityImplC2EPNS_11DOMDocumentEPKt
libxerces-c-3.1.so:_ZN11xercesc_3_113DOMEntityImplC2ERKS0_b
libxerces-c-3.1.so:_ZN11xercesc_3_113DOMEntityImplD0Ev
libxerces-c-3.1.so:_ZN11xercesc_3_113DOMEntityImplD1Ev
libxerces-c-3.1.so:_ZN11xercesc_3_113DOMEntityImplD2Ev
libxerces-c-3.1.so:_ZN11xercesc_3_113DOMNodeVector10addElementEPNS_7DOMNodeE
libxerces-c-3.1.so:_ZN11xercesc_3_113DOMNodeVector10checkSpaceEv
libxerces-c-3.1.so:_ZN11xercesc_3_113DOMNodeVector12setElementAtEPNS_7DOMNodeEm
libxerces-c-3.1.so:_ZN11xercesc_3_113DOMNodeVector15insertElementAtEPNS_7DOMNodeEm
libxerces-c-3.1.so:_ZN11xercesc_3_113DOMNodeVector15removeElementAtEm
libxerces-c-3.1.so:_ZN11xercesc_3_113DOMNodeVector4initEPNS_11DOMDocumentEm
libxerces-c-3.1.so:_ZN11xercesc_3_113DOMNodeVector5resetEv
libxerces-c-3.1.so:_ZN11xercesc_3_113DOMNodeVectorC1EPNS_11DOMDocumentE
libxerces-c-3.1.so:_ZN11xercesc_3_113DOMNodeVectorC1EPNS_11DOMDocumentEm
libxerces-c-3.1.so:_ZN11xercesc_3_113DOMNodeVectorC2EPNS_11DOMDocumentE
libxerces-c-3.1.so:_ZN11xercesc_3_113DOMNodeVectorC2EPNS_11DOMDocumentEm
libxerces-c-3.1.so:_ZN11xercesc_3_113DOMNodeVectorD1Ev
libxerces-c-3.1.so:_ZN11xercesc_3_113DOMNodeVectorD2Ev
libxerces-c-3.1.so:_ZN11xercesc_3_113DOMNormalizer17InScopeNamespaces11removeScopeEv
libxerces-c-3.1.so:_ZN11xercesc_3_113DOMNormalizer17InScopeNamespaces18addOrChangeBindingEPKtS3_PNS_13MemoryManagerE
libxerces-c-3.1.so:_ZN11xercesc_3_113DOMNormalizer17InScopeNamespaces4sizeEv
libxerces-c-3.1.so:_ZN11xercesc_3_113DOMNormalizer17InScopeNamespaces5Scope18addOrChangeBindingEPKtS4_PNS_13MemoryManagerE
libxerces-c-3.1.so:_ZN11xercesc_3_113DOMNormalizer17InScopeNamespaces5ScopeC1EPS2_
libxerces-c-3.1.so:_ZN11xercesc_3_113DOMNormalizer17InScopeNamespaces5ScopeC2EPS2_
libxerces-c-3.1.so:_ZN11xercesc_3_113DOMNormalizer17InScopeNamespaces5ScopeD1Ev
libxerces-c-3.1.so:_ZN11xercesc_3_113DOMNormalizer17InScopeNamespaces5ScopeD2Ev
libxerces-c-3.1.so:_ZN11xercesc_3_113DOMNormalizer17InScopeNamespaces8addScopeEPNS_13MemoryManagerE
libxerces-c-3.1.so:_ZN11xercesc_3_113DOMNormalizer17InScopeNamespacesC1EPNS_13MemoryManagerE
libxerces-c-3.1.so:_ZN11xercesc_3_113DOMNormalizer17InScopeNamespacesC2EPNS_13MemoryManagerE
libxerces-c-3.1.so:_ZN11xercesc_3_113DOMNormalizer17InScopeNamespacesD1Ev
libxerces-c-3.1.so:_ZN11xercesc_3_113DOMNormalizer17InScopeNamespacesD2Ev
libxerces-c-3.1.so:_ZN11xercesc_3_113DOMNormalizer17normalizeDocumentEPNS_15DOMDocumentImplE
libxerces-c-3.1.so:_ZN11xercesc_3_113DOMNormalizerC1EPNS_13MemoryManagerE
libxerces-c-3.1.so:_ZN11xercesc_3_113DOMNormalizerC2EPNS_13MemoryManagerE
libxerces-c-3.1.so:_ZN11xercesc_3_113DOMNormalizerD1Ev
libxerces-c-3.1.so:_ZN11xercesc_3_113DOMNormalizerD2Ev
libxerces-c-3.1.so:_ZN11xercesc_3_113DOMParentNode11appendChildEPNS_7DOMNodeE
libxerces-c-3.1.so:_ZN11xercesc_3_113DOMParentNode11removeChildEPNS_7DOMNodeE
libxerces-c-3.1.so:_ZN11xercesc_3_113DOMParentNode12insertBeforeEPNS_7DOMNodeES2_
libxerces-c-3.1.so:_ZN11xercesc_3_113DOMParentNode12replaceChildEPNS_7DOMNodeES2_
libxerces-c-3.1.so:_ZN11xercesc_3_113DOMParentNode13cloneChildrenEPKNS_7DOMNodeE
libxerces-c-3.1.so:_ZN11xercesc_3_113DOMParentNode15appendChildFastEPNS_7DOMNodeE
libxerces-c-3.1.so:_ZN11xercesc_3_113DOMParentNode16setOwnerDocumentEPNS_11DOMDocumentE
libxerces-c-3.1.so:_ZN11xercesc_3_113DOMParentNode7changedEv
libxerces-c-3.1.so:_ZN11xercesc_3_113DOMParentNode7releaseEv
libxerces-c-3.1.so:_ZN11xercesc_3_113DOMParentNode9lastChildEPNS_7DOMNodeE
libxerces-c-3.1.so:_ZN11xercesc_3_113DOMParentNode9normalizeEv
libxerces-c-3.1.so:_ZN11xercesc_3_113DOMParentNodeC1EPNS_11DOMDocumentE
libxerces-c-3.1.so:_ZN11xercesc_3_113DOMParentNodeC1ERKS0_
libxerces-c-3.1.so:_ZN11xercesc_3_113DOMParentNodeC2EPNS_11DOMDocumentE
libxerces-c-3.1.so:_ZN11xercesc_3_113DOMParentNodeC2ERKS0_
libxerces-c-3.1.so:_ZN11xercesc_3_113DTDAttDefList10findAttDefEPKtS2_
libxerces-c-3.1.so:_ZN11xercesc_3_113DTDAttDefList10findAttDefEjPKt
libxerces-c-3.1.so:_ZN11xercesc_3_113DTDAttDefList12createObjectEPNS_13MemoryManagerE
libxerces-c-3.1.so:_ZN11xercesc_3_113DTDAttDefList9getAttDefEm
libxerces-c-3.1.so:_ZN11xercesc_3_113DTDAttDefList9serializeERNS_16XSerializeEngineE
libxerces-c-3.1.so:_ZN11xercesc_3_113DTDAttDefListC1EPNS_13MemoryManagerE
libxerces-c-3.1.so:_ZN11xercesc_3_113DTDAttDefListC1EPNS_14RefHashTableOfINS_9DTDAttDefENS_12StringHasherEEEPNS_13MemoryManagerE
libxerces-c-3.1.so:_ZN11xercesc_3_113DTDAttDefListC2EPNS_13MemoryManagerE
libxerces-c-3.1.so:_ZN11xercesc_3_113DTDAttDefListC2EPNS_14RefHashTableOfINS_9DTDAttDefENS_12StringHasherEEEPNS_13MemoryManagerE
libxerces-c-3.1.so:_ZN11xercesc_3_113DTDAttDefListD0Ev
libxerces-c-3.1.so:_ZN11xercesc_3_113DTDAttDefListD1Ev
libxerces-c-3.1.so:_ZN11xercesc_3_113DTDAttDefListD2Ev
libxerces-c-3.1.so:_ZN11xercesc_3_113DTDEntityDecl12createObjectEPNS_13MemoryManagerE
libxerces-c-3.1.so:_ZN11xercesc_3_113DTDEntityDecl9serializeERNS_16XSerializeEngineE
libxerces-c-3.1.so:_ZN11xercesc_3_113FieldValueMap5clearEv
libxerces-c-3.1.so:_ZN11xercesc_3_113FieldValueMap7cleanUpEv
libxerces-c-3.1.so:_ZN11xercesc_3_113FieldValueMapC1EPNS_13MemoryManagerE
libxerces-c-3.1.so:_ZN11xercesc_3_113FieldValueMapC1ERKS0_
libxerces-c-3.1.so:_ZN11xercesc_3_113FieldValueMapC2EPNS_13MemoryManagerE
libxerces-c-3.1.so:_ZN11xercesc_3_113FieldValueMapC2ERKS0_
libxerces-c-3.1.so:_ZN11xercesc_3_113FieldValueMapD1Ev
libxerces-c-3.1.so:_ZN11xercesc_3_113FieldValueMapD2Ev
libxerces-c-3.1.so:_ZN11xercesc_3_113PSVIAttribute5resetEPKtNS_8PSVIItem14VALIDITY_STATEENS3_15ASSESSMENT_TYPEEPNS_22XSSimpleTypeDefinitionES7_S2_bPNS_22XSAttributeDeclarationEPNS_17DatatypeValidatorE
libxerces-c-3.1.so:_ZN11xercesc_3_113PSVIAttribute8setValueEPKt
libxerces-c-3.1.so:_ZN11xercesc_3_113PSVIAttributeC1EPNS_13MemoryManagerE
libxerces-c-3.1.so:_ZN11xercesc_3_113PSVIAttributeC2EPNS_13MemoryManagerE
libxerces-c-3.1.so:_ZN11xercesc_3_113PosixMutexMgr4lockEPv
libxerces-c-3.1.so:_ZN11xercesc_3_113PosixMutexMgr6createEPNS_13MemoryManagerE
libxerces-c-3.1.so:_ZN11xercesc_3_113PosixMutexMgr6unlockEPv
libxerces-c-3.1.so:_ZN11xercesc_3_113PosixMutexMgr7destroyEPvPNS_13MemoryManagerE
libxerces-c-3.1.so:_ZN11xercesc_3_113PosixMutexMgrC1Ev
libxerces-c-3.1.so:_ZN11xercesc_3_113PosixMutexMgrC2Ev
libxerces-c-3.1.so:_ZN11xercesc_3_113PosixMutexMgrD0Ev
libxerces-c-3.1.so:_ZN11xercesc_3_113PosixMutexMgrD1Ev
libxerces-c-3.1.so:_ZN11xercesc_3_113PosixMutexMgrD2Ev
libxerces-c-3.1.so:_ZN11xercesc_3_113RangeTokenMap11addCategoryEPKt
libxerces-c-3.1.so:_ZN11xercesc_3_113RangeTokenMap11addRangeMapEPKtPNS_12RangeFactoryE
libxerces-c-3.1.so:_ZN11xercesc_3_113RangeTokenMap13addKeywordMapEPKtS2_
libxerces-c-3.1.so:_ZN11xercesc_3_113RangeTokenMap13setRangeTokenEPKtPNS_10RangeTokenEb
libxerces-c-3.1.so:_ZN11xercesc_3_113RangeTokenMap16buildTokenRangesEv
libxerces-c-3.1.so:_ZN11xercesc_3_113RangeTokenMap18initializeRegistryEv
libxerces-c-3.1.so:_ZN11xercesc_3_113RangeTokenMap7cleanUpEv
libxerces-c-3.1.so:_ZN11xercesc_3_113RangeTokenMap8getRangeEPKtb
libxerces-c-3.1.so:_ZN11xercesc_3_113RangeTokenMap8instanceEv
libxerces-c-3.1.so:_ZN11xercesc_3_113RangeTokenMapC1EPNS_13MemoryManagerE
libxerces-c-3.1.so:_ZN11xercesc_3_113RangeTokenMapC2EPNS_13MemoryManagerE
libxerces-c-3.1.so:_ZN11xercesc_3_113RangeTokenMapD1Ev
libxerces-c-3.1.so:_ZN11xercesc_3_113RangeTokenMapD2Ev
libxerces-c-3.1.so:_ZN11xercesc_3_113SchemaGrammar11putElemDeclEjPKtS2_S2_jb
libxerces-c-3.1.so:_ZN11xercesc_3_113SchemaGrammar12createObjectEPNS_13MemoryManagerE
libxerces-c-3.1.so:_ZN11xercesc_3_113SchemaGrammar13addAnnotationEPNS_12XSAnnotationE
libxerces-c-3.1.so:_ZN11xercesc_3_113SchemaGrammar13putAnnotationEPvPNS_12XSAnnotationE
libxerces-c-3.1.so:_ZN11xercesc_3_113SchemaGrammar17findOrAddElemDeclEjPKtS2_S2_jRb
libxerces-c-3.1.so:_ZN11xercesc_3_113SchemaGrammar21setGrammarDescriptionEPNS_21XMLGrammarDescriptionE
libxerces-c-3.1.so:_ZN11xercesc_3_113SchemaGrammar5resetEv
libxerces-c-3.1.so:_ZN11xercesc_3_113SchemaGrammar7cleanUpEv
libxerces-c-3.1.so:_ZN11xercesc_3_113SchemaGrammar9serializeERNS_16XSerializeEngineE
libxerces-c-3.1.so:_ZN11xercesc_3_113SchemaGrammarC1EPNS_13MemoryManagerE
libxerces-c-3.1.so:_ZN11xercesc_3_113SchemaGrammarC2EPNS_13MemoryManagerE
libxerces-c-3.1.so:_ZN11xercesc_3_113SchemaGrammarD0Ev
libxerces-c-3.1.so:_ZN11xercesc_3_113SchemaGrammarD1Ev
libxerces-c-3.1.so:_ZN11xercesc_3_113SchemaGrammarD2Ev
libxerces-c-3.1.so:_ZN11xercesc_3_113XIncludeUtils11reportErrorEPKNS_7DOMNodeENS_7XMLErrs5CodesEPKtS7_
libxerces-c-3.1.so:_ZN11xercesc_3_113XIncludeUtils17doDOMNodeXIncludeEPNS_7DOMNodeEPNS_11DOMDocumentEPNS_16XMLEntityHandlerE
libxerces-c-3.1.so:_ZN11xercesc_3_113XIncludeUtils18isXIIncludeDOMNodeEPNS_7DOMNodeE
libxerces-c-3.1.so:_ZN11xercesc_3_113XIncludeUtils18isXIIncludeElementEPKtS2_
libxerces-c-3.1.so:_ZN11xercesc_3_113XIncludeUtils19isXIFallbackDOMNodeEPNS_7DOMNodeE
libxerces-c-3.1.so:_ZN11xercesc_3_113XIncludeUtils19isXIFallbackElementEPKtS2_
libxerces-c-3.1.so:_ZN11xercesc_3_113XIncludeUtils20doXIncludeXMLFileDOMEPKtS2_PNS_7DOMNodeEPNS_11DOMDocumentEPNS_16XMLEntityHandlerE
libxerces-c-3.1.so:_ZN11xercesc_3_113XIncludeUtils20freeInclusionHistoryEv
libxerces-c-3.1.so:_ZN11xercesc_3_113XIncludeUtils21doXIncludeTEXTFileDOMEPKtS2_S2_PNS_7DOMNodeEPNS_11DOMDocumentEPNS_16XMLEntityHandlerE
libxerces-c-3.1.so:_ZN11xercesc_3_113XIncludeUtils21setContentNegotiationEPKtS2_
libxerces-c-3.1.so:_ZN11xercesc_3_113XIncludeUtils23getEscapedHRefAttrValueEPKtRb
libxerces-c-3.1.so:_ZN11xercesc_3_113XIncludeUtils25parseDOMNodeDoingXIncludeEPNS_7DOMNodeEPNS_11DOMDocumentEPNS_16XMLEntityHandlerE
libxerces-c-3.1.so:_ZN11xercesc_3_113XIncludeUtils26checkTextIsValidForIncludeEPt
libxerces-c-3.1.so:_ZN11xercesc_3_113XIncludeUtils32isInCurrentInclusionHistoryStackEPKt
libxerces-c-3.1.so:_ZN11xercesc_3_113XIncludeUtils35popFromCurrentInclusionHistoryStackEPKt
libxerces-c-3.1.so:_ZN11xercesc_3_113XIncludeUtils44addDocumentURIToCurrentInclusionHistoryStackEPKt
libxerces-c-3.1.so:_ZN11xercesc_3_113XIncludeUtilsC1EPNS_16XMLErrorReporterE
libxerces-c-3.1.so:_ZN11xercesc_3_113XIncludeUtilsC2EPNS_16XMLErrorReporterE
libxerces-c-3.1.so:_ZN11xercesc_3_113XIncludeUtilsD1Ev
libxerces-c-3.1.so:_ZN11xercesc_3_113XIncludeUtilsD2Ev
libxerces-c-3.1.so:_ZN11xercesc_3_113XMLAttDefList12createObjectEPNS_13MemoryManagerE
libxerces-c-3.1.so:_ZN11xercesc_3_113XMLAttDefList9serializeERNS_16XSerializeEngineE
libxerces-c-3.1.so:_ZN11xercesc_3_113XMLBigDecimal12createObjectEPNS_13MemoryManagerE
libxerces-c-3.1.so:_ZN11xercesc_3_113XMLBigDecimal12parseDecimalEPKtPNS_13MemoryManagerE
libxerces-c-3.1.so:_ZN11xercesc_3_113XMLBigDecimal12parseDecimalEPKtPtRiS4_S4_PNS_13MemoryManagerE
libxerces-c-3.1.so:_ZN11xercesc_3_113XMLBigDecimal13compareValuesEPKS0_S2_PNS_13MemoryManagerE
libxerces-c-3.1.so:_ZN11xercesc_3_113XMLBigDecimal15setDecimalValueEPKt
libxerces-c-3.1.so:_ZN11xercesc_3_113XMLBigDecimal26getCanonicalRepresentationEPKtPNS_13MemoryManagerE
libxerces-c-3.1.so:_ZN11xercesc_3_113XMLBigDecimal7cleanUpEv
libxerces-c-3.1.so:_ZN11xercesc_3_113XMLBigDecimal9serializeERNS_16XSerializeEngineE
libxerces-c-3.1.so:_ZN11xercesc_3_113XMLBigDecimalC1EPKtPNS_13MemoryManagerE
libxerces-c-3.1.so:_ZN11xercesc_3_113XMLBigDecimalC1EPNS_13MemoryManagerE
libxerces-c-3.1.so:_ZN11xercesc_3_113XMLBigDecimalC2EPKtPNS_13MemoryManagerE
libxerces-c-3.1.so:_ZN11xercesc_3_113XMLBigDecimalC2EPNS_13MemoryManagerE
libxerces-c-3.1.so:_ZN11xercesc_3_113XMLBigDecimalD0Ev
libxerces-c-3.1.so:_ZN11xercesc_3_113XMLBigDecimalD1Ev
libxerces-c-3.1.so:_ZN11xercesc_3_113XMLBigDecimalD2Ev
libxerces-c-3.1.so:_ZN11xercesc_3_113XMLBigInteger13compareValuesEPKS0_S2_PNS_13MemoryManagerE
libxerces-c-3.1.so:_ZN11xercesc_3_113XMLBigInteger13compareValuesEPKtRKiS2_S4_PNS_13MemoryManagerE
libxerces-c-3.1.so:_ZN11xercesc_3_113XMLBigInteger15parseBigIntegerEPKtPtRiPNS_13MemoryManagerE
libxerces-c-3.1.so:_ZN11xercesc_3_113XMLBigInteger26getCanonicalRepresentationEPKtPNS_13MemoryManagerEb
libxerces-c-3.1.so:_ZN11xercesc_3_113XMLBigInteger6divideEj
libxerces-c-3.1.so:_ZN11xercesc_3_113XMLBigInteger8multiplyEj
libxerces-c-3.1.so:_ZN11xercesc_3_113XMLBigIntegerC1EPKtPNS_13MemoryManagerE
libxerces-c-3.1.so:_ZN11xercesc_3_113XMLBigIntegerC1ERKS0_
libxerces-c-3.1.so:_ZN11xercesc_3_113XMLBigIntegerC2EPKtPNS_13MemoryManagerE
libxerces-c-3.1.so:_ZN11xercesc_3_113XMLBigIntegerC2ERKS0_
libxerces-c-3.1.so:_ZN11xercesc_3_113XMLBigIntegerD1Ev
libxerces-c-3.1.so:_ZN11xercesc_3_113XMLBigIntegerD2Ev
libxerces-c-3.1.so:_ZN11xercesc_3_113XMLEntityDecl12createObjectEPNS_13MemoryManagerE
libxerces-c-3.1.so:_ZN11xercesc_3_113XMLEntityDecl7cleanUpEv
libxerces-c-3.1.so:_ZN11xercesc_3_113XMLEntityDecl7setNameEPKt
libxerces-c-3.1.so:_ZN11xercesc_3_113XMLEntityDecl9serializeERNS_16XSerializeEngineE
libxerces-c-3.1.so:_ZN11xercesc_3_113XMLEntityDeclC1EPKtPNS_13MemoryManagerE
libxerces-c-3.1.so:_ZN11xercesc_3_113XMLEntityDeclC1EPKtS2_PNS_13MemoryManagerE
libxerces-c-3.1.so:_ZN11xercesc_3_113XMLEntityDeclC1EPKttPNS_13MemoryManagerE
libxerces-c-3.1.so:_ZN11xercesc_3_113XMLEntityDeclC1EPNS_13MemoryManagerE
libxerces-c-3.1.so:_ZN11xercesc_3_113XMLEntityDeclC2EPKtPNS_13MemoryManagerE
libxerces-c-3.1.so:_ZN11xercesc_3_113XMLEntityDeclC2EPKtS2_PNS_13MemoryManagerE
libxerces-c-3.1.so:_ZN11xercesc_3_113XMLEntityDeclC2EPKttPNS_13MemoryManagerE
libxerces-c-3.1.so:_ZN11xercesc_3_113XMLEntityDeclC2EPNS_13MemoryManagerE
libxerces-c-3.1.so:_ZN11xercesc_3_113XMLEntityDeclD0Ev
libxerces-c-3.1.so:_ZN11xercesc_3_113XMLEntityDeclD1Ev
libxerces-c-3.1.so:_ZN11xercesc_3_113XMLEntityDeclD2Ev
libxerces-c-3.1.so:_ZN11xercesc_3_113XMLRecognizer15encodingForNameEPKt
libxerces-c-3.1.so:_ZN11xercesc_3_113XMLRecognizer15nameForEncodingENS0_9EncodingsEPNS_13MemoryManagerE
libxerces-c-3.1.so:_ZN11xercesc_3_113XMLRecognizer18basicEncodingProbeEPKhm
libxerces-c-3.1.so:_ZN11xercesc_3_113XMLStringPool11addNewEntryEPKt
libxerces-c-3.1.so:_ZN11xercesc_3_113XMLStringPool12createObjectEPNS_13MemoryManagerE
libxerces-c-3.1.so:_ZN11xercesc_3_113XMLStringPool8flushAllEv
libxerces-c-3.1.so:_ZN11xercesc_3_113XMLStringPool9serializeERNS_16XSerializeEngineE
libxerces-c-3.1.so:_ZN11xercesc_3_113XMLStringPoolC1EPNS_13MemoryManagerE
libxerces-c-3.1.so:_ZN11xercesc_3_113XMLStringPoolC1EjPNS_13MemoryManagerE
libxerces-c-3.1.so:_ZN11xercesc_3_113XMLStringPoolC2EPNS_13MemoryManagerE
libxerces-c-3.1.so:_ZN11xercesc_3_113XMLStringPoolC2EjPNS_13MemoryManagerE
libxerces-c-3.1.so:_ZN11xercesc_3_113XMLStringPoolD0Ev
libxerces-c-3.1.so:_ZN11xercesc_3_113XMLStringPoolD1Ev
libxerces-c-3.1.so:_ZN11xercesc_3_113XMLStringPoolD2Ev
libxerces-c-3.1.so:_ZN11xercesc_3_113XMLTranscoderC1EPKtmPNS_13MemoryManagerE
libxerces-c-3.1.so:_ZN11xercesc_3_113XMLTranscoderC2EPKtmPNS_13MemoryManagerE
libxerces-c-3.1.so:_ZN11xercesc_3_113XMLTranscoderD0Ev
libxerces-c-3.1.so:_ZN11xercesc_3_113XMLTranscoderD1Ev
libxerces-c-3.1.so:_ZN11xercesc_3_113XMLTranscoderD2Ev
libxerces-c-3.1.so:_ZN11xercesc_3_113XSAXMLScanner10scanEndTagERb
libxerces-c-3.1.so:_ZN11xercesc_3_113XSAXMLScanner12scanStartTagERb
libxerces-c-3.1.so:_ZN11xercesc_3_113XSAXMLScanner13switchGrammarEPKtb
libxerces-c-3.1.so:_ZN11xercesc_3_113XSAXMLScanner28scanRawAttrListforNameSpacesEm
libxerces-c-3.1.so:_ZN11xercesc_3_113XSAXMLScanner9scanResetERKNS_11InputSourceE
libxerces-c-3.1.so:_ZN11xercesc_3_113XSAXMLScannerC1EPNS_15GrammarResolverEPNS_13XMLStringPoolEPNS_13SchemaGrammarEPNS_13MemoryManagerE
libxerces-c-3.1.so:_ZN11xercesc_3_113XSAXMLScannerC2EPNS_15GrammarResolverEPNS_13XMLStringPoolEPNS_13SchemaGrammarEPNS_13MemoryManagerE
libxerces-c-3.1.so:_ZN11xercesc_3_113XSAXMLScannerD0Ev
libxerces-c-3.1.so:_ZN11xercesc_3_113XSAXMLScannerD1Ev
libxerces-c-3.1.so:_ZN11xercesc_3_113XSAXMLScannerD2Ev
libxerces-c-3.1.so:_ZN11xercesc_3_114BinInputStreamC1Ev
libxerces-c-3.1.so:_ZN11xercesc_3_114BinInputStreamC2Ev
libxerces-c-3.1.so:_ZN11xercesc_3_114BinInputStreamD0Ev
libxerces-c-3.1.so:_ZN11xercesc_3_114BinInputStreamD1Ev
libxerces-c-3.1.so:_ZN11xercesc_3_114BinInputStreamD2Ev
libxerces-c-3.1.so:_ZN11xercesc_3_114DOMAttrMapImpl11setReadOnlyEbb
libxerces-c-3.1.so:_ZN11xercesc_3_114DOMAttrMapImpl12cloneAttrMapEPNS_7DOMNodeE
libxerces-c-3.1.so:_ZN11xercesc_3_114DOMAttrMapImpl12cloneContentEPKS0_
libxerces-c-3.1.so:_ZN11xercesc_3_114DOMAttrMapImpl12setNamedItemEPNS_7DOMNodeE
libxerces-c-3.1.so:_ZN11xercesc_3_114DOMAttrMapImpl14setNamedItemNSEPNS_7DOMNodeE
libxerces-c-3.1.so:_ZN11xercesc_3_114DOMAttrMapImpl15removeNamedItemEPKt
libxerces-c-3.1.so:_ZN11xercesc_3_114DOMAttrMapImpl16setNamedItemFastEPNS_7DOMNodeE
libxerces-c-3.1.so:_ZN11xercesc_3_114DOMAttrMapImpl17removeNamedItemAtEm
libxerces-c-3.1.so:_ZN11xercesc_3_114DOMAttrMapImpl17removeNamedItemNSEPKtS2_
libxerces-c-3.1.so:_ZN11xercesc_3_114DOMAttrMapImpl18setNamedItemNSFastEPNS_7DOMNodeE
libxerces-c-3.1.so:_ZN11xercesc_3_114DOMAttrMapImpl23moveSpecifiedAttributesEPS0_
libxerces-c-3.1.so:_ZN11xercesc_3_114DOMAttrMapImpl26reconcileDefaultAttributesEPKS0_
libxerces-c-3.1.so:_ZN11xercesc_3_114DOMAttrMapImpl7reserveEm
libxerces-c-3.1.so:_ZN11xercesc_3_114DOMAttrMapImpl8readOnlyEv
libxerces-c-3.1.so:_ZN11xercesc_3_114DOMAttrMapImplC1EPNS_7DOMNodeE
libxerces-c-3.1.so:_ZN11xercesc_3_114DOMAttrMapImplC1EPNS_7DOMNodeEPKS0_
libxerces-c-3.1.so:_ZN11xercesc_3_114DOMAttrMapImplC2EPNS_7DOMNodeE
libxerces-c-3.1.so:_ZN11xercesc_3_114DOMAttrMapImplC2EPNS_7DOMNodeEPKS0_
libxerces-c-3.1.so:_ZN11xercesc_3_114DOMAttrMapImplD0Ev
libxerces-c-3.1.so:_ZN11xercesc_3_114DOMAttrMapImplD1Ev
libxerces-c-3.1.so:_ZN11xercesc_3_114DOMAttrMapImplD2Ev
libxerces-c-3.1.so:_ZN11xercesc_3_114DOMCommentImpl10appendDataEPKt
libxerces-c-3.1.so:_ZN11xercesc_3_114DOMCommentImpl10deleteDataEmm
libxerces-c-3.1.so:_ZN11xercesc_3_114DOMCommentImpl10insertDataEmPKt
libxerces-c-3.1.so:_ZN11xercesc_3_114DOMCommentImpl11appendChildEPNS_7DOMNodeE
libxerces-c-3.1.so:_ZN11xercesc_3_114DOMCommentImpl11removeChildEPNS_7DOMNodeE
libxerces-c-3.1.so:_ZN11xercesc_3_114DOMCommentImpl11replaceDataEmmPKt
libxerces-c-3.1.so:_ZN11xercesc_3_114DOMCommentImpl11setUserDataEPKtPvPNS_18DOMUserDataHandlerE
libxerces-c-3.1.so:_ZN11xercesc_3_114DOMCommentImpl12insertBeforeEPNS_7DOMNodeES2_
libxerces-c-3.1.so:_ZN11xercesc_3_114DOMCommentImpl12replaceChildEPNS_7DOMNodeES2_
libxerces-c-3.1.so:_ZN11xercesc_3_114DOMCommentImpl12setNodeValueEPKt
libxerces-c-3.1.so:_ZN11xercesc_3_114DOMCommentImpl14setTextContentEPKt
libxerces-c-3.1.so:_ZN11xercesc_3_114DOMCommentImpl7releaseEv
libxerces-c-3.1.so:_ZN11xercesc_3_114DOMCommentImpl7setDataEPKt
libxerces-c-3.1.so:_ZN11xercesc_3_114DOMCommentImpl9normalizeEv
libxerces-c-3.1.so:_ZN11xercesc_3_114DOMCommentImpl9setPrefixEPKt
libxerces-c-3.1.so:_ZN11xercesc_3_114DOMCommentImpl9splitTextEm
libxerces-c-3.1.so:_ZN11xercesc_3_114DOMCommentImplC1EPNS_11DOMDocumentEPKt
libxerces-c-3.1.so:_ZN11xercesc_3_114DOMCommentImplC1ERKS0_b
libxerces-c-3.1.so:_ZN11xercesc_3_114DOMCommentImplC2EPNS_11DOMDocumentEPKt
libxerces-c-3.1.so:_ZN11xercesc_3_114DOMCommentImplC2ERKS0_b
libxerces-c-3.1.so:_ZN11xercesc_3_114DOMCommentImplD0Ev
libxerces-c-3.1.so:_ZN11xercesc_3_114DOMCommentImplD1Ev
libxerces-c-3.1.so:_ZN11xercesc_3_114DOMCommentImplD2Ev
libxerces-c-3.1.so:_ZN11xercesc_3_114DOMElementImpl11appendChildEPNS_7DOMNodeE
libxerces-c-3.1.so:_ZN11xercesc_3_114DOMElementImpl11removeChildEPNS_7DOMNodeE
libxerces-c-3.1.so:_ZN11xercesc_3_114DOMElementImpl11setReadOnlyEbb
libxerces-c-3.1.so:_ZN11xercesc_3_114DOMElementImpl11setUserDataEPKtPvPNS_18DOMUserDataHandlerE
libxerces-c-3.1.so:_ZN11xercesc_3_114DOMElementImpl12insertBeforeEPNS_7DOMNodeES2_
libxerces-c-3.1.so:_ZN11xercesc_3_114DOMElementImpl12replaceChildEPNS_7DOMNodeES2_
libxerces-c-3.1.so:_ZN11xercesc_3_114DOMElementImpl12setAttributeEPKtS2_
libxerces-c-3.1.so:_ZN11xercesc_3_114DOMElementImpl12setNodeValueEPKt
libxerces-c-3.1.so:_ZN11xercesc_3_114DOMElementImpl14setAttributeNSEPKtS2_S2_
libxerces-c-3.1.so:_ZN11xercesc_3_114DOMElementImpl14setIdAttributeEPKtb
libxerces-c-3.1.so:_ZN11xercesc_3_114DOMElementImpl14setTextContentEPKt
libxerces-c-3.1.so:_ZN11xercesc_3_114DOMElementImpl15removeAttributeEPKt
libxerces-c-3.1.so:_ZN11xercesc_3_114DOMElementImpl16setAttributeNodeEPNS_7DOMAttrE
libxerces-c-3.1.so:_ZN11xercesc_3_114DOMElementImpl16setIdAttributeNSEPKtS2_b
libxerces-c-3.1.so:_ZN11xercesc_3_114DOMElementImpl17removeAttributeNSEPKtS2_
libxerces-c-3.1.so:_ZN11xercesc_3_114DOMElementImpl18setAttributeNodeNSEPNS_7DOMAttrE
libxerces-c-3.1.so:_ZN11xercesc_3_114DOMElementImpl18setIdAttributeNodeEPKNS_7DOMAttrEb
libxerces-c-3.1.so:_ZN11xercesc_3_114DOMElementImpl19removeAttributeNodeEPNS_7DOMAttrE
libxerces-c-3.1.so:_ZN11xercesc_3_114DOMElementImpl22setupDefaultAttributesEv
libxerces-c-3.1.so:_ZN11xercesc_3_114DOMElementImpl23setDefaultAttributeNodeEPNS_7DOMAttrE
libxerces-c-3.1.so:_ZN11xercesc_3_114DOMElementImpl25setDefaultAttributeNodeNSEPNS_7DOMAttrE
libxerces-c-3.1.so:_ZN11xercesc_3_114DOMElementImpl6renameEPKtS2_
libxerces-c-3.1.so:_ZN11xercesc_3_114DOMElementImpl7releaseEv
libxerces-c-3.1.so:_ZN11xercesc_3_114DOMElementImpl9normalizeEv
libxerces-c-3.1.so:_ZN11xercesc_3_114DOMElementImpl9setPrefixEPKt
libxerces-c-3.1.so:_ZN11xercesc_3_114DOMElementImplC1EPNS_11DOMDocumentEPKt
libxerces-c-3.1.so:_ZN11xercesc_3_114DOMElementImplC1ERKS0_b
libxerces-c-3.1.so:_ZN11xercesc_3_114DOMElementImplC2EPNS_11DOMDocumentEPKt
libxerces-c-3.1.so:_ZN11xercesc_3_114DOMElementImplC2ERKS0_b
libxerces-c-3.1.so:_ZN11xercesc_3_114DOMElementImplD0Ev
libxerces-c-3.1.so:_ZN11xercesc_3_114DOMElementImplD1Ev
libxerces-c-3.1.so:_ZN11xercesc_3_114DOMElementImplD2Ev
libxerces-c-3.1.so:_ZN11xercesc_3_114DOMLSExceptionC1ERKS0_
libxerces-c-3.1.so:_ZN11xercesc_3_114DOMLSExceptionC1EssPNS_13MemoryManagerE
libxerces-c-3.1.so:_ZN11xercesc_3_114DOMLSExceptionC1Ev
libxerces-c-3.1.so:_ZN11xercesc_3_114DOMLSExceptionC2ERKS0_
libxerces-c-3.1.so:_ZN11xercesc_3_114DOMLSExceptionC2EssPNS_13MemoryManagerE
libxerces-c-3.1.so:_ZN11xercesc_3_114DOMLSExceptionC2Ev
libxerces-c-3.1.so:_ZN11xercesc_3_114DOMLSExceptionD0Ev
libxerces-c-3.1.so:_ZN11xercesc_3_114DOMLSExceptionD1Ev
libxerces-c-3.1.so:_ZN11xercesc_3_114DOMLSExceptionD2Ev
libxerces-c-3.1.so:_ZN11xercesc_3_114DOMLSInputImpl10setBaseURIEPKt
libxerces-c-3.1.so:_ZN11xercesc_3_114DOMLSInputImpl11setEncodingEPKt
libxerces-c-3.1.so:_ZN11xercesc_3_114DOMLSInputImpl11setPublicIdEPKt
libxerces-c-3.1.so:_ZN11xercesc_3_114DOMLSInputImpl11setSystemIdEPKt
libxerces-c-3.1.so:_ZN11xercesc_3_114DOMLSInputImpl13setByteStreamEPNS_11InputSourceE
libxerces-c-3.1.so:_ZN11xercesc_3_114DOMLSInputImpl13setStringDataEPKt
libxerces-c-3.1.so:_ZN11xercesc_3_114DOMLSInputImpl28setIssueFatalErrorIfNotFoundEb
libxerces-c-3.1.so:_ZN11xercesc_3_114DOMLSInputImpl7releaseEv
libxerces-c-3.1.so:_ZN11xercesc_3_114DOMLSInputImplC1EPNS_13MemoryManagerE
libxerces-c-3.1.so:_ZN11xercesc_3_114DOMLSInputImplC2EPNS_13MemoryManagerE
libxerces-c-3.1.so:_ZN11xercesc_3_114DOMLSInputImplD0Ev
libxerces-c-3.1.so:_ZN11xercesc_3_114DOMLSInputImplD1Ev
libxerces-c-3.1.so:_ZN11xercesc_3_114DOMLSInputImplD2Ev
libxerces-c-3.1.so:_ZN11xercesc_3_114DOMLocatorImplC1EmmPNS_7DOMNodeEPKtmm
libxerces-c-3.1.so:_ZN11xercesc_3_114DOMLocatorImplC1Ev
libxerces-c-3.1.so:_ZN11xercesc_3_114DOMLocatorImplC2EmmPNS_7DOMNodeEPKtmm
libxerces-c-3.1.so:_ZN11xercesc_3_114DOMLocatorImplC2Ev
libxerces-c-3.1.so:_ZN11xercesc_3_114DOMLocatorImplD0Ev
libxerces-c-3.1.so:_ZN11xercesc_3_114DOMLocatorImplD1Ev
libxerces-c-3.1.so:_ZN11xercesc_3_114DOMLocatorImplD2Ev
libxerces-c-3.1.so:_ZN11xercesc_3_114DTDElementDecl12createObjectEPNS_13MemoryManagerE
libxerces-c-3.1.so:_ZN11xercesc_3_114DTDElementDecl14setContentSpecEPNS_15ContentSpecNodeE
libxerces-c-3.1.so:_ZN11xercesc_3_114DTDElementDecl16createChildModelEv
libxerces-c-3.1.so:_ZN11xercesc_3_114DTDElementDecl16makeContentModelEv
libxerces-c-3.1.so:_ZN11xercesc_3_114DTDElementDecl9addAttDefEPNS_9DTDAttDefE
libxerces-c-3.1.so:_ZN11xercesc_3_114DTDElementDecl9getAttDefEPKt
libxerces-c-3.1.so:_ZN11xercesc_3_114DTDElementDecl9serializeERNS_16XSerializeEngineE
libxerces-c-3.1.so:_ZN11xercesc_3_114DTDElementDeclC1EPKtjNS0_10ModelTypesEPNS_13MemoryManagerE
libxerces-c-3.1.so:_ZN11xercesc_3_114DTDElementDeclC1EPNS_13MemoryManagerE
libxerces-c-3.1.so:_ZN11xercesc_3_114DTDElementDeclC1EPNS_5QNameENS0_10ModelTypesEPNS_13MemoryManagerE
libxerces-c-3.1.so:_ZN11xercesc_3_114DTDElementDeclC2EPKtjNS0_10ModelTypesEPNS_13MemoryManagerE
libxerces-c-3.1.so:_ZN11xercesc_3_114DTDElementDeclC2EPNS_13MemoryManagerE
libxerces-c-3.1.so:_ZN11xercesc_3_114DTDElementDeclC2EPNS_5QNameENS0_10ModelTypesEPNS_13MemoryManagerE
libxerces-c-3.1.so:_ZN11xercesc_3_114DTDElementDeclD0Ev
libxerces-c-3.1.so:_ZN11xercesc_3_114DTDElementDeclD1Ev
libxerces-c-3.1.so:_ZN11xercesc_3_114DTDElementDeclD2Ev
libxerces-c-3.1.so:_ZN11xercesc_3_114FieldActivator13activateFieldEPNS_8IC_FieldEi
libxerces-c-3.1.so:_ZN11xercesc_3_114FieldActivator16endValueScopeForEPKNS_18IdentityConstraintEi
libxerces-c-3.1.so:_ZN11xercesc_3_114FieldActivator18startValueScopeForEPKNS_18IdentityConstraintEi
libxerces-c-3.1.so:_ZN11xercesc_3_114FieldActivatorC1EPNS_15ValueStoreCacheEPNS_17XPathMatcherStackEPNS_13MemoryManagerE
libxerces-c-3.1.so:_ZN11xercesc_3_114FieldActivatorC1ERKS0_
libxerces-c-3.1.so:_ZN11xercesc_3_114FieldActivatorC2EPNS_15ValueStoreCacheEPNS_17XPathMatcherStackEPNS_13MemoryManagerE
libxerces-c-3.1.so:_ZN11xercesc_3_114FieldActivatorC2ERKS0_
libxerces-c-3.1.so:_ZN11xercesc_3_114FieldActivatorD1Ev
libxerces-c-3.1.so:_ZN11xercesc_3_114FieldActivatorD2Ev
libxerces-c-3.1.so:_ZN11xercesc_3_114FieldActivatoraSERKS0_
libxerces-c-3.1.so:_ZN11xercesc_3_114InMemMsgLoader7loadMsgEjPtm
libxerces-c-3.1.so:_ZN11xercesc_3_114InMemMsgLoader7loadMsgEjPtmPKcS3_S3_S3_PNS_13MemoryManagerE
libxerces-c-3.1.so:_ZN11xercesc_3_114InMemMsgLoader7loadMsgEjPtmPKtS3_S3_S3_PNS_13MemoryManagerE
libxerces-c-3.1.so:_ZN11xercesc_3_114InMemMsgLoaderC1EPKt
libxerces-c-3.1.so:_ZN11xercesc_3_114InMemMsgLoaderC2EPKt
libxerces-c-3.1.so:_ZN11xercesc_3_114InMemMsgLoaderD0Ev
libxerces-c-3.1.so:_ZN11xercesc_3_114InMemMsgLoaderD1Ev
libxerces-c-3.1.so:_ZN11xercesc_3_114InMemMsgLoaderD2Ev
libxerces-c-3.1.so:_ZN11xercesc_3_114NamespaceScope11expandStackEv
libxerces-c-3.1.so:_ZN11xercesc_3_114NamespaceScope13decreaseDepthEv
libxerces-c-3.1.so:_ZN11xercesc_3_114NamespaceScope13increaseDepthEv
libxerces-c-3.1.so:_ZN11xercesc_3_114NamespaceScope5resetEj
libxerces-c-3.1.so:_ZN11xercesc_3_114NamespaceScope9addPrefixEPKtj
libxerces-c-3.1.so:_ZN11xercesc_3_114NamespaceScope9expandMapEPNS0_9StackElemE
libxerces-c-3.1.so:_ZN11xercesc_3_114NamespaceScopeC1EPKS0_PNS_13MemoryManagerE
libxerces-c-3.1.so:_ZN11xercesc_3_114NamespaceScopeC1EPNS_13MemoryManagerE
libxerces-c-3.1.so:_ZN11xercesc_3_114NamespaceScopeC2EPKS0_PNS_13MemoryManagerE
libxerces-c-3.1.so:_ZN11xercesc_3_114NamespaceScopeC2EPNS_13MemoryManagerE
libxerces-c-3.1.so:_ZN11xercesc_3_114NamespaceScopeD1Ev
libxerces-c-3.1.so:_ZN11xercesc_3_114NamespaceScopeD2Ev
libxerces-c-3.1.so:_ZN11xercesc_3_114TranscodeToStr9transcodeEPKtmPNS_13XMLTranscoderE
libxerces-c-3.1.so:_ZN11xercesc_3_114TranscodeToStrC1EPKtPKcPNS_13MemoryManagerE
libxerces-c-3.1.so:_ZN11xercesc_3_114TranscodeToStrC1EPKtPNS_13XMLTranscoderEPNS_13MemoryManagerE
libxerces-c-3.1.so:_ZN11xercesc_3_114TranscodeToStrC1EPKtmPKcPNS_13MemoryManagerE
libxerces-c-3.1.so:_ZN11xercesc_3_114TranscodeToStrC1EPKtmPNS_13XMLTranscoderEPNS_13MemoryManagerE
libxerces-c-3.1.so:_ZN11xercesc_3_114TranscodeToStrC2EPKtPKcPNS_13MemoryManagerE
libxerces-c-3.1.so:_ZN11xercesc_3_114TranscodeToStrC2EPKtPNS_13XMLTranscoderEPNS_13MemoryManagerE
libxerces-c-3.1.so:_ZN11xercesc_3_114TranscodeToStrC2EPKtmPKcPNS_13MemoryManagerE
libxerces-c-3.1.so:_ZN11xercesc_3_114TranscodeToStrC2EPKtmPNS_13XMLTranscoderEPNS_13MemoryManagerE
libxerces-c-3.1.so:_ZN11xercesc_3_114TranscodeToStrD1Ev
libxerces-c-3.1.so:_ZN11xercesc_3_114TranscodeToStrD2Ev
libxerces-c-3.1.so:_ZN11xercesc_3_114TraverseSchema11checkMinMaxEPNS_15ContentSpecNodeEPKNS_10DOMElementEi
libxerces-c-3.1.so:_ZN11xercesc_3_114TraverseSchema11traverseAllEPKNS_10DOMElementERb
libxerces-c-3.1.so:_ZN11xercesc_3_114TraverseSchema11traverseAnyEPKNS_10DOMElementE
libxerces-c-3.1.so:_ZN11xercesc_3_114TraverseSchema11traverseKeyEPKNS_10DOMElementEPNS_17SchemaElementDeclE
libxerces-c-3.1.so:_ZN11xercesc_3_114TraverseSchema12checkContentEPKNS_10DOMElementEPS1_bb
libxerces-c-3.1.so:_ZN11xercesc_3_114TraverseSchema13parseBlockSetEPKNS_10DOMElementEib
libxerces-c-3.1.so:_ZN11xercesc_3_114TraverseSchema13parseFinalSetEPKNS_10DOMElementEib
libxerces-c-3.1.so:_ZN11xercesc_3_114TraverseSchema14traverseByListEPKNS_10DOMElementES3_PKtS5_iPNS_7JanitorINS_12XSAnnotationEEE
libxerces-c-3.1.so:_ZN11xercesc_3_114TraverseSchema14traverseImportEPKNS_10DOMElementE
libxerces-c-3.1.so:_ZN11xercesc_3_114TraverseSchema14traverseKeyRefEPKNS_10DOMElementEPNS_17SchemaElementDeclE
libxerces-c-3.1.so:_ZN11xercesc_3_114TraverseSchema14traverseUniqueEPKNS_10DOMElementEPNS_17SchemaElementDeclE
libxerces-c-3.1.so:_ZN11xercesc_3_114TraverseSchema15checkFixedFacetEPKNS_10DOMElementEPKtPKNS_17DatatypeValidatorERj
libxerces-c-3.1.so:_ZN11xercesc_3_114TraverseSchema15findDTValidatorEPKNS_10DOMElementEPKtS5_i
libxerces-c-3.1.so:_ZN11xercesc_3_114TraverseSchema15processAttValueEPKtRNS_9XMLBufferE
libxerces-c-3.1.so:_ZN11xercesc_3_114TraverseSchema15processChildrenEPKNS_10DOMElementE
libxerces-c-3.1.so:_ZN11xercesc_3_114TraverseSchema15processElementsEPKNS_10DOMElementEPNS_15ComplexTypeInfoES5_
libxerces-c-3.1.so:_ZN11xercesc_3_114TraverseSchema15processElementsEPKNS_10DOMElementEPNS_15XercesGroupInfoEPNS_15ComplexTypeInfoE
libxerces-c-3.1.so:_ZN11xercesc_3_114TraverseSchema15processGroupRefEPKNS_10DOMElementEPKt
libxerces-c-3.1.so:_ZN11xercesc_3_114TraverseSchema15traverseByUnionEPKNS_10DOMElementES3_PKtS5_iiPNS_7JanitorINS_12XSAnnotationEEE
libxerces-c-3.1.so:_ZN11xercesc_3_114TraverseSchema15traverseIncludeEPKNS_10DOMElementE
libxerces-c-3.1.so:_ZN11xercesc_3_114TraverseSchema16attWildCardUnionEPNS_12SchemaAttDefEPKS1_
libxerces-c-3.1.so:_ZN11xercesc_3_114TraverseSchema16doTraverseSchemaEPKNS_10DOMElementE
libxerces-c-3.1.so:_ZN11xercesc_3_114TraverseSchema16isWildCardSubsetEPKNS_12SchemaAttDefES3_
libxerces-c-3.1.so:_ZN11xercesc_3_114TraverseSchema16preprocessImportEPKNS_10DOMElementE
libxerces-c-3.1.so:_ZN11xercesc_3_114TraverseSchema16preprocessSchemaEPNS_10DOMElementEPKtb
libxerces-c-3.1.so:_ZN11xercesc_3_114TraverseSchema16traverseRedefineEPKNS_10DOMElementE
libxerces-c-3.1.so:_ZN11xercesc_3_114TraverseSchema17copyGroupElementsEPKNS_10DOMElementEPNS_15XercesGroupInfoES5_PNS_15ComplexTypeInfoE
libxerces-c-3.1.so:_ZN11xercesc_3_114TraverseSchema17emptiableParticleEPKNS_15ContentSpecNodeE
libxerces-c-3.1.so:_ZN11xercesc_3_114TraverseSchema17getGlobalElemDeclEPKNS_10DOMElementEPKt
libxerces-c-3.1.so:_ZN11xercesc_3_114TraverseSchema17getTypeInfoFromNSEPKNS_10DOMElementEPKtS5_
libxerces-c-3.1.so:_ZN11xercesc_3_114TraverseSchema17preprocessIncludeEPKNS_10DOMElementE
libxerces-c-3.1.so:_ZN11xercesc_3_114TraverseSchema17processAttributesEPKNS_10DOMElementES3_PNS_15ComplexTypeInfoEb
libxerces-c-3.1.so:_ZN11xercesc_3_114TraverseSchema17processElemDeclICEPNS_10DOMElementEPNS_17SchemaElementDeclE
libxerces-c-3.1.so:_ZN11xercesc_3_114TraverseSchema17reportSchemaErrorEPKNS_10DOMElementEPKti
libxerces-c-3.1.so:_ZN11xercesc_3_114TraverseSchema17reportSchemaErrorEPKNS_10DOMElementEPKtiS5_S5_S5_S5_
libxerces-c-3.1.so:_ZN11xercesc_3_114TraverseSchema17reportSchemaErrorEPKNS_10DOMElementERKNS_12XMLExceptionE
libxerces-c-3.1.so:_ZN11xercesc_3_114TraverseSchema17reportSchemaErrorEPKNS_10XSDLocatorEPKti
libxerces-c-3.1.so:_ZN11xercesc_3_114TraverseSchema17reportSchemaErrorEPKNS_10XSDLocatorEPKtiS5_S5_S5_S5_
libxerces-c-3.1.so:_ZN11xercesc_3_114TraverseSchema17restoreSchemaInfoEPNS_10SchemaInfoENS1_8ListTypeEj
libxerces-c-3.1.so:_ZN11xercesc_3_114TraverseSchema17traverseGroupDeclEPKNS_10DOMElementEb
libxerces-c-3.1.so:_ZN11xercesc_3_114TraverseSchema18fixRedefinedSchemaEPKNS_10DOMElementEPNS_10SchemaInfoEPKtS7_i
libxerces-c-3.1.so:_ZN11xercesc_3_114TraverseSchema18getElementAttValueEPKNS_10DOMElementEPKtNS_17DatatypeValidator13ValidatorTypeE
libxerces-c-3.1.so:_ZN11xercesc_3_114TraverseSchema18preprocessChildrenEPKNS_10DOMElementE
libxerces-c-3.1.so:_ZN11xercesc_3_114TraverseSchema18preprocessRedefineEPKNS_10DOMElementE
libxerces-c-3.1.so:_ZN11xercesc_3_114TraverseSchema18resolvePrefixToURIEPKNS_10DOMElementEPKt
libxerces-c-3.1.so:_ZN11xercesc_3_114TraverseSchema19changeRedefineGroupEPKNS_10DOMElementEPKtS5_i
libxerces-c-3.1.so:_ZN11xercesc_3_114TraverseSchema19openRedefinedSchemaEPKNS_10DOMElementE
libxerces-c-3.1.so:_ZN11xercesc_3_114TraverseSchema19processBaseTypeInfoEPKNS_10DOMElementEPKtS5_S5_PNS_15ComplexTypeInfoE
libxerces-c-3.1.so:_ZN11xercesc_3_114TraverseSchema19traverseElementDeclEPKNS_10DOMElementEb
libxerces-c-3.1.so:_ZN11xercesc_3_114TraverseSchema19validateAnnotationsEv
libxerces-c-3.1.so:_ZN11xercesc_3_114TraverseSchema20checkAttDerivationOKEPKNS_10DOMElementEPKNS_15ComplexTypeInfoES6_
libxerces-c-3.1.so:_ZN11xercesc_3_114TraverseSchema20checkAttDerivationOKEPKNS_10DOMElementEPKNS_18XercesAttGroupInfoES6_
libxerces-c-3.1.so:_ZN11xercesc_3_114TraverseSchema20getDatatypeValidatorEPKtS2_
libxerces-c-3.1.so:_ZN11xercesc_3_114TraverseSchema20processElemDeclAttrsEPKNS_10DOMElementEPNS_17SchemaElementDeclERPKtb
libxerces-c-3.1.so:_ZN11xercesc_3_114TraverseSchema20traverseAnyAttributeEPKNS_10DOMElementE
libxerces-c-3.1.so:_ZN11xercesc_3_114TraverseSchema20traverseNotationDeclEPKNS_10DOMElementE
libxerces-c-3.1.so:_ZN11xercesc_3_114TraverseSchema20traverseNotationDeclEPKNS_10DOMElementEPKtS5_
libxerces-c-3.1.so:_ZN11xercesc_3_114TraverseSchema20traverseSchemaHeaderEPKNS_10DOMElementE
libxerces-c-3.1.so:_ZN11xercesc_3_114TraverseSchema21processComplexContentEPKNS_10DOMElementEPKtS3_PNS_15ComplexTypeInfoES5_bb
libxerces-c-3.1.so:_ZN11xercesc_3_114TraverseSchema21processElementDeclRefEPKNS_10DOMElementEPKt
libxerces-c-3.1.so:_ZN11xercesc_3_114TraverseSchema21resolveSchemaLocationEPKtNS_21XMLResourceIdentifier22ResourceIdentifierTypeES2_
libxerces-c-3.1.so:_ZN11xercesc_3_114TraverseSchema21traverseAttributeDeclEPKNS_10DOMElementEPNS_15ComplexTypeInfoEb
libxerces-c-3.1.so:_ZN11xercesc_3_114TraverseSchema21traverseByRestrictionEPKNS_10DOMElementES3_PKtS5_iPNS_7JanitorINS_12XSAnnotationEEE
libxerces-c-3.1.so:_ZN11xercesc_3_114TraverseSchema22copyAttGroupAttributesEPKNS_10DOMElementEPNS_18XercesAttGroupInfoES5_PNS_15ComplexTypeInfoE
libxerces-c-3.1.so:_ZN11xercesc_3_114TraverseSchema22defaultComplexTypeInfoEPNS_15ComplexTypeInfoE
libxerces-c-3.1.so:_ZN11xercesc_3_114TraverseSchema22traverseAnnotationDeclEPKNS_10DOMElementEPNS_13ValueVectorOfIPNS_7DOMNodeEEEb
libxerces-c-3.1.so:_ZN11xercesc_3_114TraverseSchema22traverseChoiceSequenceEPKNS_10DOMElementEiRb
libxerces-c-3.1.so:_ZN11xercesc_3_114TraverseSchema22traverseSimpleTypeDeclEPKNS_10DOMElementEbi
libxerces-c-3.1.so:_ZN11xercesc_3_114TraverseSchema23attWildCardIntersectionEPNS_12SchemaAttDefEPKS1_
libxerces-c-3.1.so:_ZN11xercesc_3_114TraverseSchema23checkForComplexTypeInfoEPKNS_10DOMElementE
libxerces-c-3.1.so:_ZN11xercesc_3_114TraverseSchema23createSchemaElementDeclEPKNS_10DOMElementEPKtRbRS5_b
libxerces-c-3.1.so:_ZN11xercesc_3_114TraverseSchema23getElementTypeValidatorEPKNS_10DOMElementEPKtRbS5_
libxerces-c-3.1.so:_ZN11xercesc_3_114TraverseSchema23processAttributeDeclRefEPKNS_10DOMElementEPNS_15ComplexTypeInfoEPKtS7_S7_S7_
libxerces-c-3.1.so:_ZN11xercesc_3_114TraverseSchema23traverseComplexTypeDeclEPKNS_10DOMElementEbPKt
libxerces-c-3.1.so:_ZN11xercesc_3_114TraverseSchema23wildcardAllowsNamespaceEPKNS_12SchemaAttDefEj
libxerces-c-3.1.so:_ZN11xercesc_3_114TraverseSchema24isIdentityConstraintNameEPKt
libxerces-c-3.1.so:_ZN11xercesc_3_114TraverseSchema24isSubstitutionGroupValidEPKNS_10DOMElementEPKNS_17SchemaElementDeclEPKNS_15ComplexTypeInfoEPKNS_17DatatypeValidatorEPKtb
libxerces-c-3.1.so:_ZN11xercesc_3_114TraverseSchema24processAttributeGroupRefEPKNS_10DOMElementEPKtPNS_15ComplexTypeInfoE
libxerces-c-3.1.so:_ZN11xercesc_3_114TraverseSchema24processSubstitutionGroupEPKNS_10DOMElementEPNS_17SchemaElementDeclERPNS_15ComplexTypeInfoERPNS_17DatatypeValidatorEPKt
libxerces-c-3.1.so:_ZN11xercesc_3_114TraverseSchema24retrieveNamespaceMappingEPKNS_10DOMElementE
libxerces-c-3.1.so:_ZN11xercesc_3_114TraverseSchema25getElementComplexTypeInfoEPKNS_10DOMElementEPKtS5_
libxerces-c-3.1.so:_ZN11xercesc_3_114TraverseSchema25renameRedefinedComponentsEPKNS_10DOMElementEPNS_10SchemaInfoES5_
libxerces-c-3.1.so:_ZN11xercesc_3_114TraverseSchema25traverseSimpleContentDeclEPKtS2_PKNS_10DOMElementEPNS_15ComplexTypeInfoEPNS_7JanitorINS_12XSAnnotationEEE
libxerces-c-3.1.so:_ZN11xercesc_3_114TraverseSchema26checkTypeFromAnotherSchemaEPKNS_10DOMElementEPKt
libxerces-c-3.1.so:_ZN11xercesc_3_114TraverseSchema26getAttrDatatypeValidatorNSEPKNS_10DOMElementEPKtS5_
libxerces-c-3.1.so:_ZN11xercesc_3_114TraverseSchema26traverseAttributeGroupDeclEPKNS_10DOMElementEPNS_15ComplexTypeInfoEb
libxerces-c-3.1.so:_ZN11xercesc_3_114TraverseSchema26traverseComplexContentDeclEPKtPKNS_10DOMElementEPNS_15ComplexTypeInfoEbPNS_7JanitorINS_12XSAnnotationEEE
libxerces-c-3.1.so:_ZN11xercesc_3_114TraverseSchema26traverseIdentityConstraintEPNS_18IdentityConstraintEPKNS_10DOMElementE
libxerces-c-3.1.so:_ZN11xercesc_3_114TraverseSchema26validateRedefineNameChangeEPKNS_10DOMElementEPKtS5_iPNS_10SchemaInfoE
libxerces-c-3.1.so:_ZN11xercesc_3_114TraverseSchema27buildValidSubstitutionListBEPKNS_10DOMElementEPNS_17SchemaElementDeclES5_
libxerces-c-3.1.so:_ZN11xercesc_3_114TraverseSchema27buildValidSubstitutionListFEPKNS_10DOMElementEPNS_17SchemaElementDeclES5_
libxerces-c-3.1.so:_ZN11xercesc_3_114TraverseSchema27checkForSimpleTypeValidatorEPKNS_10DOMElementEi
libxerces-c-3.1.so:_ZN11xercesc_3_114TraverseSchema27generateSyntheticAnnotationEPKNS_10DOMElementEPNS_13ValueVectorOfIPNS_7DOMNodeEEE
libxerces-c-3.1.so:_ZN11xercesc_3_114TraverseSchema27isSubstitutionGroupCircularEPNS_17SchemaElementDeclES2_
libxerces-c-3.1.so:_ZN11xercesc_3_114TraverseSchema28checkElemDeclValueConstraintEPKNS_10DOMElementEPNS_17SchemaElementDeclEPKtPNS_15ComplexTypeInfoEPNS_17DatatypeValidatorE
libxerces-c-3.1.so:_ZN11xercesc_3_114TraverseSchema30checkIdentityConstraintContentEPKNS_10DOMElementE
libxerces-c-3.1.so:_ZN11xercesc_3_114TraverseSchema32checkEnumerationRequiredNotationEPKNS_10DOMElementEPKtS5_
libxerces-c-3.1.so:_ZN11xercesc_3_114TraverseSchema4initEv
libxerces-c-3.1.so:_ZN11xercesc_3_114TraverseSchema7cleanUpEv
libxerces-c-3.1.so:_ZN11xercesc_3_114TraverseSchemaC1EPNS_10DOMElementEPNS_13XMLStringPoolEPNS_13SchemaGrammarEPNS_15GrammarResolverEPNS_19RefHash2KeysTableOfINS_10SchemaInfoENS_12StringHasherEEESD_PNS_10XMLScannerEPKtPNS_16XMLEntityHandlerEPNS_16XMLErrorReporterEPNS_13MemoryManagerEb
libxerces-c-3.1.so:_ZN11xercesc_3_114TraverseSchemaC2EPNS_10DOMElementEPNS_13XMLStringPoolEPNS_13SchemaGrammarEPNS_15GrammarResolverEPNS_19RefHash2KeysTableOfINS_10SchemaInfoENS_12StringHasherEEESD_PNS_10XMLScannerEPKtPNS_16XMLEntityHandlerEPNS_16XMLErrorReporterEPNS_13MemoryManagerEb
libxerces-c-3.1.so:_ZN11xercesc_3_114TraverseSchemaD1Ev
libxerces-c-3.1.so:_ZN11xercesc_3_114TraverseSchemaD2Ev
libxerces-c-3.1.so:_ZN11xercesc_3_114URLInputSourceC1EPKtPKcPNS_13MemoryManagerE
libxerces-c-3.1.so:_ZN11xercesc_3_114URLInputSourceC1EPKtPKcS4_PNS_13MemoryManagerE
libxerces-c-3.1.so:_ZN11xercesc_3_114URLInputSourceC1EPKtS2_PNS_13MemoryManagerE
libxerces-c-3.1.so:_ZN11xercesc_3_114URLInputSourceC1EPKtS2_S2_PNS_13MemoryManagerE
libxerces-c-3.1.so:_ZN11xercesc_3_114URLInputSourceC1ERKNS_6XMLURLEPNS_13MemoryManagerE
libxerces-c-3.1.so:_ZN11xercesc_3_114URLInputSourceC2EPKtPKcPNS_13MemoryManagerE
libxerces-c-3.1.so:_ZN11xercesc_3_114URLInputSourceC2EPKtPKcS4_PNS_13MemoryManagerE
libxerces-c-3.1.so:_ZN11xercesc_3_114URLInputSourceC2EPKtS2_PNS_13MemoryManagerE
libxerces-c-3.1.so:_ZN11xercesc_3_114URLInputSourceC2EPKtS2_S2_PNS_13MemoryManagerE
libxerces-c-3.1.so:_ZN11xercesc_3_114URLInputSourceC2ERKNS_6XMLURLEPNS_13MemoryManagerE
libxerces-c-3.1.so:_ZN11xercesc_3_114URLInputSourceD0Ev
libxerces-c-3.1.so:_ZN11xercesc_3_114URLInputSourceD1Ev
libxerces-c-3.1.so:_ZN11xercesc_3_114URLInputSourceD2Ev
libxerces-c-3.1.so:_ZN11xercesc_3_114XMLCanRepGroupC1ENS0_11CanRepGroupE
libxerces-c-3.1.so:_ZN11xercesc_3_114XMLCanRepGroupC2ENS0_11CanRepGroupE
libxerces-c-3.1.so:_ZN11xercesc_3_114XMLCanRepGroupD1Ev
libxerces-c-3.1.so:_ZN11xercesc_3_114XMLCanRepGroupD2Ev
libxerces-c-3.1.so:_ZN11xercesc_3_114XMLElementDecl12createObjectEPNS_13MemoryManagerE
libxerces-c-3.1.so:_ZN11xercesc_3_114XMLElementDecl14setElementNameEPKNS_5QNameE
libxerces-c-3.1.so:_ZN11xercesc_3_114XMLElementDecl14setElementNameEPKtS2_i
libxerces-c-3.1.so:_ZN11xercesc_3_114XMLElementDecl14setElementNameEPKti
libxerces-c-3.1.so:_ZN11xercesc_3_114XMLElementDecl15loadElementDeclERNS_16XSerializeEngineE
libxerces-c-3.1.so:_ZN11xercesc_3_114XMLElementDecl16storeElementDeclERNS_16XSerializeEngineEPS0_
libxerces-c-3.1.so:_ZN11xercesc_3_114XMLElementDecl9serializeERNS_16XSerializeEngineE
libxerces-c-3.1.so:_ZN11xercesc_3_114XMLElementDeclC1EPNS_13MemoryManagerE
libxerces-c-3.1.so:_ZN11xercesc_3_114XMLElementDeclC2EPNS_13MemoryManagerE
libxerces-c-3.1.so:_ZN11xercesc_3_114XMLElementDeclD0Ev
libxerces-c-3.1.so:_ZN11xercesc_3_114XMLElementDeclD1Ev
libxerces-c-3.1.so:_ZN11xercesc_3_114XMLElementDeclD2Ev
libxerces-c-3.1.so:_ZN11xercesc_3_114XMLInitializer16terminateXSValueEv
libxerces-c-3.1.so:_ZN11xercesc_3_114XMLInitializer17initializeDOMHeapEmmm
libxerces-c-3.1.so:_ZN11xercesc_3_114XMLInitializer17initializeXSValueEv
libxerces-c-3.1.so:_ZN11xercesc_3_114XMLInitializer19terminateDTDGrammarEv
libxerces-c-3.1.so:_ZN11xercesc_3_114XMLInitializer19terminateStaticDataEv
libxerces-c-3.1.so:_ZN11xercesc_3_114XMLInitializer19terminateXMLScannerEv
libxerces-c-3.1.so:_ZN11xercesc_3_114XMLInitializer20initializeDTDGrammarEv
libxerces-c-3.1.so:_ZN11xercesc_3_114XMLInitializer20initializeStaticDataEv
libxerces-c-3.1.so:_ZN11xercesc_3_114XMLInitializer20initializeXMLScannerEv
libxerces-c-3.1.so:_ZN11xercesc_3_114XMLInitializer21terminateTransServiceEv
libxerces-c-3.1.so:_ZN11xercesc_3_114XMLInitializer21terminateXMLExceptionEv
libxerces-c-3.1.so:_ZN11xercesc_3_114XMLInitializer21terminateXMLValidatorEv
libxerces-c-3.1.so:_ZN11xercesc_3_114XMLInitializer22initializeTransServiceEv
libxerces-c-3.1.so:_ZN11xercesc_3_114XMLInitializer22initializeXMLExceptionEv
libxerces-c-3.1.so:_ZN11xercesc_3_114XMLInitializer22initializeXMLValidatorEv
libxerces-c-3.1.so:_ZN11xercesc_3_114XMLInitializer22terminateDOMNormalizerEv
libxerces-c-3.1.so:_ZN11xercesc_3_114XMLInitializer22terminateRangeTokenMapEv
libxerces-c-3.1.so:_ZN11xercesc_3_114XMLInitializer23initializeDOMNormalizerEv
libxerces-c-3.1.so:_ZN11xercesc_3_114XMLInitializer23initializeRangeTokenMapEv
libxerces-c-3.1.so:_ZN11xercesc_3_114XMLInitializer24terminateComplexTypeInfoEv
libxerces-c-3.1.so:_ZN11xercesc_3_114XMLInitializer24terminateDOMNodeListImplEv
libxerces-c-3.1.so:_ZN11xercesc_3_114XMLInitializer25initializeComplexTypeInfoEv
libxerces-c-3.1.so:_ZN11xercesc_3_114XMLInitializer25initializeDOMNodeListImplEv
libxerces-c-3.1.so:_ZN11xercesc_3_114XMLInitializer25terminateXSDErrorReporterEv
libxerces-c-3.1.so:_ZN11xercesc_3_114XMLInitializer26initializeXSDErrorReporterEv
libxerces-c-3.1.so:_ZN11xercesc_3_114XMLInitializer26terminateEncodingValidatorEv
libxerces-c-3.1.so:_ZN11xercesc_3_114XMLInitializer26terminateRegularExpressionEv
libxerces-c-3.1.so:_ZN11xercesc_3_114XMLInitializer27initializeEncodingValidatorEv
libxerces-c-3.1.so:_ZN11xercesc_3_114XMLInitializer27initializeRegularExpressionEv
libxerces-c-3.1.so:_ZN11xercesc_3_114XMLInitializer28terminateDOMDocumentTypeImplEv
libxerces-c-3.1.so:_ZN11xercesc_3_114XMLInitializer29initializeDOMDocumentTypeImplEv
libxerces-c-3.1.so:_ZN11xercesc_3_114XMLInitializer30terminateDOMImplementationImplEv
libxerces-c-3.1.so:_ZN11xercesc_3_114XMLInitializer30terminateGeneralAttributeCheckEv
libxerces-c-3.1.so:_ZN11xercesc_3_114XMLInitializer31initializeDOMImplementationImplEv
libxerces-c-3.1.so:_ZN11xercesc_3_114XMLInitializer31initializeGeneralAttributeCheckEv
libxerces-c-3.1.so:_ZN11xercesc_3_114XMLInitializer33terminateDatatypeValidatorFactoryEv
libxerces-c-3.1.so:_ZN11xercesc_3_114XMLInitializer34initializeDatatypeValidatorFactoryEv
libxerces-c-3.1.so:_ZN11xercesc_3_114XMLInitializer34terminateDOMImplementationRegistryEv
libxerces-c-3.1.so:_ZN11xercesc_3_114XMLInitializer35initializeDOMImplementationRegistryEv
libxerces-c-3.1.so:_ZN11xercesc_3_114XSAttributeUse3setEbNS_11XSConstants16VALUE_CONSTRAINTEPKt
libxerces-c-3.1.so:_ZN11xercesc_3_114XSAttributeUseC1EPNS_22XSAttributeDeclarationEPNS_7XSModelEPNS_13MemoryManagerE
libxerces-c-3.1.so:_ZN11xercesc_3_114XSAttributeUseC2EPNS_22XSAttributeDeclarationEPNS_7XSModelEPNS_13MemoryManagerE
libxerces-c-3.1.so:_ZN11xercesc_3_114XSAttributeUseD0Ev
libxerces-c-3.1.so:_ZN11xercesc_3_114XSAttributeUseD1Ev
libxerces-c-3.1.so:_ZN11xercesc_3_114XSAttributeUseD2Ev
libxerces-c-3.1.so:_ZN11xercesc_3_114XercesNodeTest12createObjectEPNS_13MemoryManagerE
libxerces-c-3.1.so:_ZN11xercesc_3_114XercesNodeTest9serializeERNS_16XSerializeEngineE
libxerces-c-3.1.so:_ZN11xercesc_3_114XercesNodeTestC1EPKNS_5QNameE
libxerces-c-3.1.so:_ZN11xercesc_3_114XercesNodeTestC1EPKtjPNS_13MemoryManagerE
libxerces-c-3.1.so:_ZN11xercesc_3_114XercesNodeTestC1EPNS_13MemoryManagerE
libxerces-c-3.1.so:_ZN11xercesc_3_114XercesNodeTestC1ERKS0_
libxerces-c-3.1.so:_ZN11xercesc_3_114XercesNodeTestC1EsPNS_13MemoryManagerE
libxerces-c-3.1.so:_ZN11xercesc_3_114XercesNodeTestC2EPKNS_5QNameE
libxerces-c-3.1.so:_ZN11xercesc_3_114XercesNodeTestC2EPKtjPNS_13MemoryManagerE
libxerces-c-3.1.so:_ZN11xercesc_3_114XercesNodeTestC2EPNS_13MemoryManagerE
libxerces-c-3.1.so:_ZN11xercesc_3_114XercesNodeTestC2ERKS0_
libxerces-c-3.1.so:_ZN11xercesc_3_114XercesNodeTestC2EsPNS_13MemoryManagerE
libxerces-c-3.1.so:_ZN11xercesc_3_114XercesNodeTestaSERKS0_
libxerces-c-3.1.so:_ZN11xercesc_3_115AllContentModel14buildChildListEPNS_15ContentSpecNodeERNS_13ValueVectorOfIPNS_5QNameEEERNS3_IbEE
libxerces-c-3.1.so:_ZN11xercesc_3_115AllContentModel30checkUniqueParticleAttributionEPNS_13SchemaGrammarEPNS_15GrammarResolverEPNS_13XMLStringPoolEPNS_12XMLValidatorEPjPKt
libxerces-c-3.1.so:_ZN11xercesc_3_115AllContentModelC1EPNS_15ContentSpecNodeEbPNS_13MemoryManagerE
libxerces-c-3.1.so:_ZN11xercesc_3_115AllContentModelC2EPNS_15ContentSpecNodeEbPNS_13MemoryManagerE
libxerces-c-3.1.so:_ZN11xercesc_3_115AllContentModelD0Ev
libxerces-c-3.1.so:_ZN11xercesc_3_115AllContentModelD1Ev
libxerces-c-3.1.so:_ZN11xercesc_3_115AllContentModelD2Ev
libxerces-c-3.1.so:_ZN11xercesc_3_115BinOutputStreamC1Ev
libxerces-c-3.1.so:_ZN11xercesc_3_115BinOutputStreamC2Ev
libxerces-c-3.1.so:_ZN11xercesc_3_115BinOutputStreamD0Ev
libxerces-c-3.1.so:_ZN11xercesc_3_115BinOutputStreamD1Ev
libxerces-c-3.1.so:_ZN11xercesc_3_115BinOutputStreamD2Ev
libxerces-c-3.1.so:_ZN11xercesc_3_115ComplexTypeInfo10getAnyTypeEj
libxerces-c-3.1.so:_ZN11xercesc_3_115ComplexTypeInfo10setLocatorEPNS_10XSDLocatorE
libxerces-c-3.1.so:_ZN11xercesc_3_115ComplexTypeInfo12createObjectEPNS_13MemoryManagerE
libxerces-c-3.1.so:_ZN11xercesc_3_115ComplexTypeInfo14setContentSpecEPNS_15ContentSpecNodeE
libxerces-c-3.1.so:_ZN11xercesc_3_115ComplexTypeInfo16makeContentModelEb
libxerces-c-3.1.so:_ZN11xercesc_3_115ComplexTypeInfo18expandContentModelEPNS_15ContentSpecNodeEiib
libxerces-c-3.1.so:_ZN11xercesc_3_115ComplexTypeInfo21useRepeatingLeafNodesEPNS_15ContentSpecNodeE
libxerces-c-3.1.so:_ZN11xercesc_3_115ComplexTypeInfo22convertContentSpecTreeEPNS_15ContentSpecNodeEbb
libxerces-c-3.1.so:_ZN11xercesc_3_115ComplexTypeInfo23resizeContentSpecOrgURIEv
libxerces-c-3.1.so:_ZN11xercesc_3_115ComplexTypeInfo30checkUniqueParticleAttributionEPNS_13SchemaGrammarEPNS_15GrammarResolverEPNS_13XMLStringPoolEPNS_12XMLValidatorE
libxerces-c-3.1.so:_ZN11xercesc_3_115ComplexTypeInfo9addAttDefEPNS_12SchemaAttDefE
libxerces-c-3.1.so:_ZN11xercesc_3_115ComplexTypeInfo9serializeERNS_16XSerializeEngineE
libxerces-c-3.1.so:_ZN11xercesc_3_115ComplexTypeInfoC1EPNS_13MemoryManagerE
libxerces-c-3.1.so:_ZN11xercesc_3_115ComplexTypeInfoC2EPNS_13MemoryManagerE
libxerces-c-3.1.so:_ZN11xercesc_3_115ComplexTypeInfoD0Ev
libxerces-c-3.1.so:_ZN11xercesc_3_115ComplexTypeInfoD1Ev
libxerces-c-3.1.so:_ZN11xercesc_3_115ComplexTypeInfoD2Ev
libxerces-c-3.1.so:_ZN11xercesc_3_115ContentSpecNode12createObjectEPNS_13MemoryManagerE
libxerces-c-3.1.so:_ZN11xercesc_3_115ContentSpecNode9serializeERNS_16XSerializeEngineE
libxerces-c-3.1.so:_ZN11xercesc_3_115ContentSpecNodeC1ERKS0_
libxerces-c-3.1.so:_ZN11xercesc_3_115ContentSpecNodeC2ERKS0_
libxerces-c-3.1.so:_ZN11xercesc_3_115CurlNetAccessor11cleanupCurlEv
libxerces-c-3.1.so:_ZN11xercesc_3_115CurlNetAccessor7makeNewERKNS_6XMLURLEPKNS_14XMLNetHTTPInfoE
libxerces-c-3.1.so:_ZN11xercesc_3_115CurlNetAccessor8initCurlEv
libxerces-c-3.1.so:_ZN11xercesc_3_115CurlNetAccessorC1Ev
libxerces-c-3.1.so:_ZN11xercesc_3_115CurlNetAccessorC2Ev
libxerces-c-3.1.so:_ZN11xercesc_3_115CurlNetAccessorD0Ev
libxerces-c-3.1.so:_ZN11xercesc_3_115CurlNetAccessorD1Ev
libxerces-c-3.1.so:_ZN11xercesc_3_115CurlNetAccessorD2Ev
libxerces-c-3.1.so:_ZN11xercesc_3_115DFAContentModel14countLeafNodesEPNS_15ContentSpecNodeE
libxerces-c-3.1.so:_ZN11xercesc_3_115DFAContentModel15buildSyntaxTreeEPNS_15ContentSpecNodeERj
libxerces-c-3.1.so:_ZN11xercesc_3_115DFAContentModel30checkUniqueParticleAttributionEPNS_13SchemaGrammarEPNS_15GrammarResolverEPNS_13XMLStringPoolEPNS_12XMLValidatorEPjPKt
libxerces-c-3.1.so:_ZN11xercesc_3_115DFAContentModel8buildDFAEPNS_15ContentSpecNodeE
libxerces-c-3.1.so:_ZN11xercesc_3_115DFAContentModelC1EbPNS_15ContentSpecNodeEPNS_13MemoryManagerE
libxerces-c-3.1.so:_ZN11xercesc_3_115DFAContentModelC1EbPNS_15ContentSpecNodeEbPNS_13MemoryManagerE
libxerces-c-3.1.so:_ZN11xercesc_3_115DFAContentModelC2EbPNS_15ContentSpecNodeEPNS_13MemoryManagerE
libxerces-c-3.1.so:_ZN11xercesc_3_115DFAContentModelC2EbPNS_15ContentSpecNodeEbPNS_13MemoryManagerE
libxerces-c-3.1.so:_ZN11xercesc_3_115DFAContentModelD0Ev
libxerces-c-3.1.so:_ZN11xercesc_3_115DFAContentModelD1Ev
libxerces-c-3.1.so:_ZN11xercesc_3_115DFAContentModelD2Ev
libxerces-c-3.1.so:_ZN11xercesc_3_115DOMDocumentImpl10deleteHeapEv
libxerces-c-3.1.so:_ZN11xercesc_3_115DOMDocumentImpl10importNodeEPKNS_7DOMNodeEb
libxerces-c-3.1.so:_ZN11xercesc_3_115DOMDocumentImpl10importNodeEPKNS_7DOMNodeEbb
libxerces-c-3.1.so:_ZN11xercesc_3_115DOMDocumentImpl10renameNodeEPNS_7DOMNodeEPKtS4_
libxerces-c-3.1.so:_ZN11xercesc_3_115DOMDocumentImpl11appendChildEPNS_7DOMNodeE
libxerces-c-3.1.so:_ZN11xercesc_3_115DOMDocumentImpl11cloneStringEPKt
libxerces-c-3.1.so:_ZN11xercesc_3_115DOMDocumentImpl11createRangeEv
libxerces-c-3.1.so:_ZN11xercesc_3_115DOMDocumentImpl11removeChildEPNS_7DOMNodeE
libxerces-c-3.1.so:_ZN11xercesc_3_115DOMDocumentImpl11removeRangeEPNS_12DOMRangeImplE
libxerces-c-3.1.so:_ZN11xercesc_3_115DOMDocumentImpl11setUserDataEPKtPvPNS_18DOMUserDataHandlerE
libxerces-c-3.1.so:_ZN11xercesc_3_115DOMDocumentImpl11setUserDataEPNS_11DOMNodeImplEPKtPvPNS_18DOMUserDataHandlerE
libxerces-c-3.1.so:_ZN11xercesc_3_115DOMDocumentImpl12createEntityEPKt
libxerces-c-3.1.so:_ZN11xercesc_3_115DOMDocumentImpl12insertBeforeEPNS_7DOMNodeES2_
libxerces-c-3.1.so:_ZN11xercesc_3_115DOMDocumentImpl12replaceChildEPNS_7DOMNodeES2_
libxerces-c-3.1.so:_ZN11xercesc_3_115DOMDocumentImpl12setNodeValueEPKt
libxerces-c-3.1.so:_ZN11xercesc_3_115DOMDocumentImpl13createCommentEPKt
libxerces-c-3.1.so:_ZN11xercesc_3_115DOMDocumentImpl13createElementEPKt
libxerces-c-3.1.so:_ZN11xercesc_3_115DOMDocumentImpl13releaseBufferEPNS_9DOMBufferE
libxerces-c-3.1.so:_ZN11xercesc_3_115DOMDocumentImpl13setXmlVersionEPKt
libxerces-c-3.1.so:_ZN11xercesc_3_115DOMDocumentImpl14createNotationEPKt
libxerces-c-3.1.so:_ZN11xercesc_3_115DOMDocumentImpl14createTextNodeEPKt
libxerces-c-3.1.so:_ZN11xercesc_3_115DOMDocumentImpl14setDocumentURIEPKt
libxerces-c-3.1.so:_ZN11xercesc_3_115DOMDocumentImpl14setTextContentEPKt
libxerces-c-3.1.so:_ZN11xercesc_3_115DOMDocumentImpl14setXmlEncodingEPKt
libxerces-c-3.1.so:_ZN11xercesc_3_115DOMDocumentImpl15createAttributeEPKt
libxerces-c-3.1.so:_ZN11xercesc_3_115DOMDocumentImpl15createElementNSEPKtS2_
libxerces-c-3.1.so:_ZN11xercesc_3_115DOMDocumentImpl15createElementNSEPKtS2_mm
libxerces-c-3.1.so:_ZN11xercesc_3_115DOMDocumentImpl15getDeepNodeListEPKNS_7DOMNodeEPKt
libxerces-c-3.1.so:_ZN11xercesc_3_115DOMDocumentImpl15getDeepNodeListEPKNS_7DOMNodeEPKtS5_
libxerces-c-3.1.so:_ZN11xercesc_3_115DOMDocumentImpl15setDocumentTypeEPNS_15DOMDocumentTypeE
libxerces-c-3.1.so:_ZN11xercesc_3_115DOMDocumentImpl16createExpressionEPKtPKNS_18DOMXPathNSResolverE
libxerces-c-3.1.so:_ZN11xercesc_3_115DOMDocumentImpl16createNSResolverEPKNS_7DOMNodeE
libxerces-c-3.1.so:_ZN11xercesc_3_115DOMDocumentImpl16createTreeWalkerEPNS_7DOMNodeEmPNS_13DOMNodeFilterEb
libxerces-c-3.1.so:_ZN11xercesc_3_115DOMDocumentImpl16setInputEncodingEPKt
libxerces-c-3.1.so:_ZN11xercesc_3_115DOMDocumentImpl16setXmlStandaloneEb
libxerces-c-3.1.so:_ZN11xercesc_3_115DOMDocumentImpl16transferUserDataEPNS_11DOMNodeImplES2_
libxerces-c-3.1.so:_ZN11xercesc_3_115DOMDocumentImpl17createAttributeNSEPKtS2_
libxerces-c-3.1.so:_ZN11xercesc_3_115DOMDocumentImpl17normalizeDocumentEv
libxerces-c-3.1.so:_ZN11xercesc_3_115DOMDocumentImpl18createCDATASectionEPKt
libxerces-c-3.1.so:_ZN11xercesc_3_115DOMDocumentImpl18createDocumentTypeEPKt
libxerces-c-3.1.so:_ZN11xercesc_3_115DOMDocumentImpl18createDocumentTypeEPKtS2_S2_
libxerces-c-3.1.so:_ZN11xercesc_3_115DOMDocumentImpl18createNodeIteratorEPNS_7DOMNodeEmPNS_13DOMNodeFilterEb
libxerces-c-3.1.so:_ZN11xercesc_3_115DOMDocumentImpl18removeNodeIteratorEPNS_19DOMNodeIteratorImplE
libxerces-c-3.1.so:_ZN11xercesc_3_115DOMDocumentImpl20createElementNoCheckEPKt
libxerces-c-3.1.so:_ZN11xercesc_3_115DOMDocumentImpl21createEntityReferenceEPKt
libxerces-c-3.1.so:_ZN11xercesc_3_115DOMDocumentImpl22createDocumentFragmentEv
libxerces-c-3.1.so:_ZN11xercesc_3_115DOMDocumentImpl22setStrictErrorCheckingEb
libxerces-c-3.1.so:_ZN11xercesc_3_115DOMDocumentImpl24releaseDocNotifyUserDataEPNS_7DOMNodeE
libxerces-c-3.1.so:_ZN11xercesc_3_115DOMDocumentImpl27createProcessingInstructionEPKtS2_
libxerces-c-3.1.so:_ZN11xercesc_3_115DOMDocumentImpl28setMemoryAllocationBlockSizeEm
libxerces-c-3.1.so:_ZN11xercesc_3_115DOMDocumentImpl29createEntityReferenceByParserEPKt
libxerces-c-3.1.so:_ZN11xercesc_3_115DOMDocumentImpl7changedEv
libxerces-c-3.1.so:_ZN11xercesc_3_115DOMDocumentImpl7isKidOKEPNS_7DOMNodeES2_
libxerces-c-3.1.so:_ZN11xercesc_3_115DOMDocumentImpl7releaseEPNS_7DOMNodeENS_16DOMMemoryManager14NodeObjectTypeE
libxerces-c-3.1.so:_ZN11xercesc_3_115DOMDocumentImpl7releaseEv
libxerces-c-3.1.so:_ZN11xercesc_3_115DOMDocumentImpl8allocateEm
libxerces-c-3.1.so:_ZN11xercesc_3_115DOMDocumentImpl8allocateEmNS_16DOMMemoryManager14NodeObjectTypeE
libxerces-c-3.1.so:_ZN11xercesc_3_115DOMDocumentImpl8evaluateEPKtPKNS_7DOMNodeEPKNS_18DOMXPathNSResolverENS_14DOMXPathResult10ResultTypeEPS9_
libxerces-c-3.1.so:_ZN11xercesc_3_115DOMDocumentImpl9adoptNodeEPNS_7DOMNodeE
libxerces-c-3.1.so:_ZN11xercesc_3_115DOMDocumentImpl9isXMLNameEPKt
libxerces-c-3.1.so:_ZN11xercesc_3_115DOMDocumentImpl9normalizeEv
libxerces-c-3.1.so:_ZN11xercesc_3_115DOMDocumentImpl9popBufferEm
libxerces-c-3.1.so:_ZN11xercesc_3_115DOMDocumentImpl9setPrefixEPKt
libxerces-c-3.1.so:_ZN11xercesc_3_115DOMDocumentImplC1EPKtS2_PNS_15DOMDocumentTypeEPNS_17DOMImplementationEPNS_13MemoryManagerE
libxerces-c-3.1.so:_ZN11xercesc_3_115DOMDocumentImplC1EPNS_17DOMImplementationEPNS_13MemoryManagerE
libxerces-c-3.1.so:_ZN11xercesc_3_115DOMDocumentImplC2EPKtS2_PNS_15DOMDocumentTypeEPNS_17DOMImplementationEPNS_13MemoryManagerE
libxerces-c-3.1.so:_ZN11xercesc_3_115DOMDocumentImplC2EPNS_17DOMImplementationEPNS_13MemoryManagerE
libxerces-c-3.1.so:_ZN11xercesc_3_115DOMDocumentImplD0Ev
libxerces-c-3.1.so:_ZN11xercesc_3_115DOMDocumentImplD1Ev
libxerces-c-3.1.so:_ZN11xercesc_3_115DOMDocumentImplD2Ev
libxerces-c-3.1.so:_ZN11xercesc_3_115DOMLSOutputImpl11setEncodingEPKt
libxerces-c-3.1.so:_ZN11xercesc_3_115DOMLSOutputImpl11setSystemIdEPKt
libxerces-c-3.1.so:_ZN11xercesc_3_115DOMLSOutputImpl13setByteStreamEPNS_15XMLFormatTargetE
libxerces-c-3.1.so:_ZN11xercesc_3_115DOMLSOutputImpl7releaseEv
libxerces-c-3.1.so:_ZN11xercesc_3_115DOMLSOutputImplC1EPNS_13MemoryManagerE
libxerces-c-3.1.so:_ZN11xercesc_3_115DOMLSOutputImplC2EPNS_13MemoryManagerE
libxerces-c-3.1.so:_ZN11xercesc_3_115DOMLSOutputImplD0Ev
libxerces-c-3.1.so:_ZN11xercesc_3_115DOMLSOutputImplD1Ev
libxerces-c-3.1.so:_ZN11xercesc_3_115DOMLSOutputImplD2Ev
libxerces-c-3.1.so:_ZN11xercesc_3_115DOMLSParserImpl10docCommentEPKt
libxerces-c-3.1.so:_ZN11xercesc_3_115DOMLSParserImpl10endElementERKNS_14XMLElementDeclEjbPKt
libxerces-c-3.1.so:_ZN11xercesc_3_115DOMLSParserImpl10resetParseEv
libxerces-c-3.1.so:_ZN11xercesc_3_115DOMLSParserImpl11applyFilterEPNS_7DOMNodeE
libxerces-c-3.1.so:_ZN11xercesc_3_115DOMLSParserImpl11loadGrammarEPKNS_10DOMLSInputENS_7Grammar11GrammarTypeEb
libxerces-c-3.1.so:_ZN11xercesc_3_115DOMLSParserImpl11loadGrammarEPKcNS_7Grammar11GrammarTypeEb
libxerces-c-3.1.so:_ZN11xercesc_3_115DOMLSParserImpl11loadGrammarEPKtNS_7Grammar11GrammarTypeEb
libxerces-c-3.1.so:_ZN11xercesc_3_115DOMLSParserImpl11resetErrorsEv
libxerces-c-3.1.so:_ZN11xercesc_3_115DOMLSParserImpl12setParameterEPKtPKv
libxerces-c-3.1.so:_ZN11xercesc_3_115DOMLSParserImpl12setParameterEPKtb
libxerces-c-3.1.so:_ZN11xercesc_3_115DOMLSParserImpl12startElementERKNS_14XMLElementDeclEjPKtRKNS_11RefVectorOfINS_7XMLAttrEEEmbb
libxerces-c-3.1.so:_ZN11xercesc_3_115DOMLSParserImpl13docCharactersEPKtmb
libxerces-c-3.1.so:_ZN11xercesc_3_115DOMLSParserImpl13resolveEntityEPNS_21XMLResourceIdentifierE
libxerces-c-3.1.so:_ZN11xercesc_3_115DOMLSParserImpl13startDocumentEv
libxerces-c-3.1.so:_ZN11xercesc_3_115DOMLSParserImpl16parseWithContextEPKNS_10DOMLSInputEPNS_7DOMNodeENS_11DOMLSParser10ActionTypeE
libxerces-c-3.1.so:_ZN11xercesc_3_115DOMLSParserImpl17resetDocumentPoolEv
libxerces-c-3.1.so:_ZN11xercesc_3_115DOMLSParserImpl20startEntityReferenceERKNS_13XMLEntityDeclE
libxerces-c-3.1.so:_ZN11xercesc_3_115DOMLSParserImpl22resetCachedGrammarPoolEv
libxerces-c-3.1.so:_ZN11xercesc_3_115DOMLSParserImpl5abortEv
libxerces-c-3.1.so:_ZN11xercesc_3_115DOMLSParserImpl5docPIEPKtS2_
libxerces-c-3.1.so:_ZN11xercesc_3_115DOMLSParserImpl5errorEjPKtNS_16XMLErrorReporter8ErrTypesES2_S2_S2_mm
libxerces-c-3.1.so:_ZN11xercesc_3_115DOMLSParserImpl5parseEPKNS_10DOMLSInputE
libxerces-c-3.1.so:_ZN11xercesc_3_115DOMLSParserImpl7XMLDeclEPKtS2_S2_S2_
libxerces-c-3.1.so:_ZN11xercesc_3_115DOMLSParserImpl7releaseEv
libxerces-c-3.1.so:_ZN11xercesc_3_115DOMLSParserImpl8parseURIEPKc
libxerces-c-3.1.so:_ZN11xercesc_3_115DOMLSParserImpl8parseURIEPKt
libxerces-c-3.1.so:_ZN11xercesc_3_115DOMLSParserImpl9setFilterEPNS_17DOMLSParserFilterE
libxerces-c-3.1.so:_ZN11xercesc_3_115DOMLSParserImplC1EPNS_12XMLValidatorEPNS_13MemoryManagerEPNS_14XMLGrammarPoolE
libxerces-c-3.1.so:_ZN11xercesc_3_115DOMLSParserImplC2EPNS_12XMLValidatorEPNS_13MemoryManagerEPNS_14XMLGrammarPoolE
libxerces-c-3.1.so:_ZN11xercesc_3_115DOMLSParserImplD0Ev
libxerces-c-3.1.so:_ZN11xercesc_3_115DOMLSParserImplD1Ev
libxerces-c-3.1.so:_ZN11xercesc_3_115DOMLSParserImplD2Ev
libxerces-c-3.1.so:_ZN11xercesc_3_115DOMNodeListImplC1EPNS_13DOMParentNodeE
libxerces-c-3.1.so:_ZN11xercesc_3_115DOMNodeListImplC2EPNS_13DOMParentNodeE
libxerces-c-3.1.so:_ZN11xercesc_3_115DOMNodeListImplD0Ev
libxerces-c-3.1.so:_ZN11xercesc_3_115DOMNodeListImplD1Ev
libxerces-c-3.1.so:_ZN11xercesc_3_115DOMNodeListImplD2Ev
libxerces-c-3.1.so:_ZN11xercesc_3_115DOMNotationImpl10setBaseURIEPKt
libxerces-c-3.1.so:_ZN11xercesc_3_115DOMNotationImpl11appendChildEPNS_7DOMNodeE
libxerces-c-3.1.so:_ZN11xercesc_3_115DOMNotationImpl11removeChildEPNS_7DOMNodeE
libxerces-c-3.1.so:_ZN11xercesc_3_115DOMNotationImpl11setPublicIdEPKt
libxerces-c-3.1.so:_ZN11xercesc_3_115DOMNotationImpl11setSystemIdEPKt
libxerces-c-3.1.so:_ZN11xercesc_3_115DOMNotationImpl11setUserDataEPKtPvPNS_18DOMUserDataHandlerE
libxerces-c-3.1.so:_ZN11xercesc_3_115DOMNotationImpl12insertBeforeEPNS_7DOMNodeES2_
libxerces-c-3.1.so:_ZN11xercesc_3_115DOMNotationImpl12replaceChildEPNS_7DOMNodeES2_
libxerces-c-3.1.so:_ZN11xercesc_3_115DOMNotationImpl12setNodeValueEPKt
libxerces-c-3.1.so:_ZN11xercesc_3_115DOMNotationImpl14setTextContentEPKt
libxerces-c-3.1.so:_ZN11xercesc_3_115DOMNotationImpl7releaseEv
libxerces-c-3.1.so:_ZN11xercesc_3_115DOMNotationImpl9normalizeEv
libxerces-c-3.1.so:_ZN11xercesc_3_115DOMNotationImpl9setPrefixEPKt
libxerces-c-3.1.so:_ZN11xercesc_3_115DOMNotationImplC1EPNS_11DOMDocumentEPKt
libxerces-c-3.1.so:_ZN11xercesc_3_115DOMNotationImplC1ERKS0_b
libxerces-c-3.1.so:_ZN11xercesc_3_115DOMNotationImplC2EPNS_11DOMDocumentEPKt
libxerces-c-3.1.so:_ZN11xercesc_3_115DOMNotationImplC2ERKS0_b
libxerces-c-3.1.so:_ZN11xercesc_3_115DOMNotationImplD0Ev
libxerces-c-3.1.so:_ZN11xercesc_3_115DOMNotationImplD1Ev
libxerces-c-3.1.so:_ZN11xercesc_3_115DOMNotationImplD2Ev
libxerces-c-3.1.so:_ZN11xercesc_3_115DOMTypeInfoImpl17setStringPropertyENS_15DOMPSVITypeInfo12PSVIPropertyEPKt
libxerces-c-3.1.so:_ZN11xercesc_3_115DOMTypeInfoImpl18setNumericPropertyENS_15DOMPSVITypeInfo12PSVIPropertyEi
libxerces-c-3.1.so:_ZN11xercesc_3_115DOMTypeInfoImplC1EPKtS2_
libxerces-c-3.1.so:_ZN11xercesc_3_115DOMTypeInfoImplC1EPNS_15DOMDocumentImplEPKNS_15DOMPSVITypeInfoE
libxerces-c-3.1.so:_ZN11xercesc_3_115DOMTypeInfoImplC2EPKtS2_
libxerces-c-3.1.so:_ZN11xercesc_3_115DOMTypeInfoImplC2EPNS_15DOMDocumentImplEPKNS_15DOMPSVITypeInfoE
libxerces-c-3.1.so:_ZN11xercesc_3_115GrammarResolver10getGrammarEPKt
libxerces-c-3.1.so:_ZN11xercesc_3_115GrammarResolver10getGrammarEPNS_21XMLGrammarDescriptionE
libxerces-c-3.1.so:_ZN11xercesc_3_115GrammarResolver10getXSModelEv
libxerces-c-3.1.so:_ZN11xercesc_3_115GrammarResolver10putGrammarEPNS_7GrammarE
libxerces-c-3.1.so:_ZN11xercesc_3_115GrammarResolver13cacheGrammarsEv
libxerces-c-3.1.so:_ZN11xercesc_3_115GrammarResolver13orphanGrammarEPKt
libxerces-c-3.1.so:_ZN11xercesc_3_115GrammarResolver17containsNameSpaceEPKt
libxerces-c-3.1.so:_ZN11xercesc_3_115GrammarResolver18resetCachedGrammarEv
libxerces-c-3.1.so:_ZN11xercesc_3_115GrammarResolver20getDatatypeValidatorEPKtS2_
libxerces-c-3.1.so:_ZN11xercesc_3_115GrammarResolver21cacheGrammarFromParseEb
libxerces-c-3.1.so:_ZN11xercesc_3_115GrammarResolver5resetEv
libxerces-c-3.1.so:_ZN11xercesc_3_115GrammarResolverC1EPNS_14XMLGrammarPoolEPNS_13MemoryManagerE
libxerces-c-3.1.so:_ZN11xercesc_3_115GrammarResolverC2EPNS_14XMLGrammarPoolEPNS_13MemoryManagerE
libxerces-c-3.1.so:_ZN11xercesc_3_115GrammarResolverD1Ev
libxerces-c-3.1.so:_ZN11xercesc_3_115GrammarResolverD2Ev
libxerces-c-3.1.so:_ZN11xercesc_3_115IconvGNUWrapper7iconvToEPKcPmPPcm
libxerces-c-3.1.so:_ZN11xercesc_3_115IconvGNUWrapper7toLowerEt
libxerces-c-3.1.so:_ZN11xercesc_3_115IconvGNUWrapper7toUpperEt
libxerces-c-3.1.so:_ZN11xercesc_3_115IconvGNUWrapper9iconvFromEPKcPmPPcm
libxerces-c-3.1.so:_ZN11xercesc_3_115IconvGNUWrapperC1EPNS_13MemoryManagerE
libxerces-c-3.1.so:_ZN11xercesc_3_115IconvGNUWrapperC1EPvS1_mjPNS_13MemoryManagerE
libxerces-c-3.1.so:_ZN11xercesc_3_115IconvGNUWrapperC2EPNS_13MemoryManagerE
libxerces-c-3.1.so:_ZN11xercesc_3_115IconvGNUWrapperC2EPvS1_mjPNS_13MemoryManagerE
libxerces-c-3.1.so:_ZN11xercesc_3_115IconvGNUWrapperD0Ev
libxerces-c-3.1.so:_ZN11xercesc_3_115IconvGNUWrapperD1Ev
libxerces-c-3.1.so:_ZN11xercesc_3_115IconvGNUWrapperD2Ev
libxerces-c-3.1.so:_ZN11xercesc_3_115SchemaValidator11findElementEijPKtPNS_13SchemaGrammarEPKNS_15ComplexTypeInfoE
libxerces-c-3.1.so:_ZN11xercesc_3_115SchemaValidator12checkContentEPNS_14XMLElementDeclEPPNS_5QNameEmPm
libxerces-c-3.1.so:_ZN11xercesc_3_115SchemaValidator12checkRecurseEPNS_13SchemaGrammarEPKNS_15ContentSpecNodeEiPNS_13ValueVectorOfIPS3_EES5_iS9_PKNS_15ComplexTypeInfoEb
libxerces-c-3.1.so:_ZN11xercesc_3_115SchemaValidator12checkTypesOKEPKNS_17SchemaElementDeclES3_PKt
libxerces-c-3.1.so:_ZN11xercesc_3_115SchemaValidator13checkNSCompatEPKNS_15ContentSpecNodeES3_b
libxerces-c-3.1.so:_ZN11xercesc_3_115SchemaValidator13checkNSSubsetEPKNS_15ContentSpecNodeES3_
libxerces-c-3.1.so:_ZN11xercesc_3_115SchemaValidator14checkMapAndSumEPNS_13SchemaGrammarEPKNS_15ContentSpecNodeEPNS_13ValueVectorOfIPS3_EEiS7_S9_iPKNS_15ComplexTypeInfoE
libxerces-c-3.1.so:_ZN11xercesc_3_115SchemaValidator14gatherChildrenENS_15ContentSpecNode9NodeTypesEPS1_PNS_13ValueVectorOfIS3_EE
libxerces-c-3.1.so:_ZN11xercesc_3_115SchemaValidator15validateElementEPKNS_14XMLElementDeclE
libxerces-c-3.1.so:_ZN11xercesc_3_115SchemaValidator16getNonUnaryGroupEPNS_15ContentSpecNodeE
libxerces-c-3.1.so:_ZN11xercesc_3_115SchemaValidator17validateAttrValueEPKNS_9XMLAttDefEPKtbPKNS_14XMLElementDeclE
libxerces-c-3.1.so:_ZN11xercesc_3_115SchemaValidator18checkICRestrictionEPKNS_17SchemaElementDeclES3_PKtS5_
libxerces-c-3.1.so:_ZN11xercesc_3_115SchemaValidator18checkNameAndTypeOKEPNS_13SchemaGrammarEPKNS_15ContentSpecNodeEiS5_iPKNS_15ComplexTypeInfoE
libxerces-c-3.1.so:_ZN11xercesc_3_115SchemaValidator19checkNSSubsetChoiceEPKNS_15ContentSpecNodeES3_
libxerces-c-3.1.so:_ZN11xercesc_3_115SchemaValidator19isWildCardEltSubsetEPKNS_15ContentSpecNodeES3_
libxerces-c-3.1.so:_ZN11xercesc_3_115SchemaValidator19normalizeWhiteSpaceEPNS_17DatatypeValidatorEPKtRNS_9XMLBufferEb
libxerces-c-3.1.so:_ZN11xercesc_3_115SchemaValidator19postParseValidationEv
libxerces-c-3.1.so:_ZN11xercesc_3_115SchemaValidator20preContentValidationEbb
libxerces-c-3.1.so:_ZN11xercesc_3_115SchemaValidator21checkRecurseAsIfGroupEPNS_13SchemaGrammarEPNS_15ContentSpecNodeEiPKS3_iPNS_13ValueVectorOfIS4_EEPKNS_15ComplexTypeInfoE
libxerces-c-3.1.so:_ZN11xercesc_3_115SchemaValidator21checkRecurseUnorderedEPNS_13SchemaGrammarEPKNS_15ContentSpecNodeEPNS_13ValueVectorOfIPS3_EEiS7_S9_iPKNS_15ComplexTypeInfoE
libxerces-c-3.1.so:_ZN11xercesc_3_115SchemaValidator23checkNSSubsetChoiceRootEPKNS_15ContentSpecNodeES3_
libxerces-c-3.1.so:_ZN11xercesc_3_115SchemaValidator23checkParticleDerivationEPNS_13SchemaGrammarEPKNS_15ComplexTypeInfoE
libxerces-c-3.1.so:_ZN11xercesc_3_115SchemaValidator25checkParticleDerivationOkEPNS_13SchemaGrammarEPNS_15ContentSpecNodeEiS4_iPKNS_15ComplexTypeInfoEb
libxerces-c-3.1.so:_ZN11xercesc_3_115SchemaValidator26checkRefElementConsistencyEPNS_13SchemaGrammarEPKNS_15ComplexTypeInfoEPKNS_15XercesGroupInfoE
libxerces-c-3.1.so:_ZN11xercesc_3_115SchemaValidator26wildcardEltAllowsNamespaceEPKNS_15ContentSpecNodeEj
libxerces-c-3.1.so:_ZN11xercesc_3_115SchemaValidator28checkForPointlessOccurrencesEPNS_15ContentSpecNodeENS1_9NodeTypesEPNS_13ValueVectorOfIS2_EE
libxerces-c-3.1.so:_ZN11xercesc_3_115SchemaValidator30checkNSRecurseCheckCardinalityEPNS_13SchemaGrammarEPKNS_15ContentSpecNodeEPNS_13ValueVectorOfIPS3_EEiS7_b
libxerces-c-3.1.so:_ZN11xercesc_3_115SchemaValidator5resetEv
libxerces-c-3.1.so:_ZN11xercesc_3_115SchemaValidatorC1EPNS_16XMLErrorReporterEPNS_13MemoryManagerE
libxerces-c-3.1.so:_ZN11xercesc_3_115SchemaValidatorC2EPNS_16XMLErrorReporterEPNS_13MemoryManagerE
libxerces-c-3.1.so:_ZN11xercesc_3_115SchemaValidatorD0Ev
libxerces-c-3.1.so:_ZN11xercesc_3_115SchemaValidatorD1Ev
libxerces-c-3.1.so:_ZN11xercesc_3_115SchemaValidatorD2Ev
libxerces-c-3.1.so:_ZN11xercesc_3_115SelectorMatcher10endElementERKNS_14XMLElementDeclEPKtPNS_17ValidationContextEPNS_17DatatypeValidatorE
libxerces-c-3.1.so:_ZN11xercesc_3_115SelectorMatcher12startElementERKNS_14XMLElementDeclEjPKtRKNS_11RefVectorOfINS_7XMLAttrEEEmPNS_17ValidationContextE
libxerces-c-3.1.so:_ZN11xercesc_3_115SelectorMatcher21startDocumentFragmentEv
libxerces-c-3.1.so:_ZN11xercesc_3_115SelectorMatcherC1EPNS_11XercesXPathEPNS_11IC_SelectorEPNS_14FieldActivatorEiPNS_13MemoryManagerE
libxerces-c-3.1.so:_ZN11xercesc_3_115SelectorMatcherC2EPNS_11XercesXPathEPNS_11IC_SelectorEPNS_14FieldActivatorEiPNS_13MemoryManagerE
libxerces-c-3.1.so:_ZN11xercesc_3_115ValueStoreCache10endElementEv
libxerces-c-3.1.so:_ZN11xercesc_3_115ValueStoreCache10transplantEPNS_18IdentityConstraintEi
libxerces-c-3.1.so:_ZN11xercesc_3_115ValueStoreCache12startElementEv
libxerces-c-3.1.so:_ZN11xercesc_3_115ValueStoreCache13startDocumentEv
libxerces-c-3.1.so:_ZN11xercesc_3_115ValueStoreCache18initValueStoresForEPNS_17SchemaElementDeclEi
libxerces-c-3.1.so:_ZN11xercesc_3_115ValueStoreCache4initEv
libxerces-c-3.1.so:_ZN11xercesc_3_115ValueStoreCache7cleanUpEv
libxerces-c-3.1.so:_ZN11xercesc_3_115ValueStoreCacheC1EPNS_13MemoryManagerE
libxerces-c-3.1.so:_ZN11xercesc_3_115ValueStoreCacheC2EPNS_13MemoryManagerE
libxerces-c-3.1.so:_ZN11xercesc_3_115ValueStoreCacheD1Ev
libxerces-c-3.1.so:_ZN11xercesc_3_115ValueStoreCacheD2Ev
libxerces-c-3.1.so:_ZN11xercesc_3_115VecAttrListImpl9setVectorEPKNS_11RefVectorOfINS_7XMLAttrEEEmb
libxerces-c-3.1.so:_ZN11xercesc_3_115VecAttrListImplC1Ev
libxerces-c-3.1.so:_ZN11xercesc_3_115VecAttrListImplC2Ev
libxerces-c-3.1.so:_ZN11xercesc_3_115VecAttrListImplD0Ev
libxerces-c-3.1.so:_ZN11xercesc_3_115VecAttrListImplD1Ev
libxerces-c-3.1.so:_ZN11xercesc_3_115VecAttrListImplD2Ev
libxerces-c-3.1.so:_ZN11xercesc_3_115XMLChTranscoder11transcodeToEPKtmPhmRmNS_13XMLTranscoder9UnRepOptsE
libxerces-c-3.1.so:_ZN11xercesc_3_115XMLChTranscoder13transcodeFromEPKhmPtmRmPh
libxerces-c-3.1.so:_ZN11xercesc_3_115XMLChTranscoder14canTranscodeToEj
libxerces-c-3.1.so:_ZN11xercesc_3_115XMLChTranscoderC1EPKtmPNS_13MemoryManagerE
libxerces-c-3.1.so:_ZN11xercesc_3_115XMLChTranscoderC2EPKtmPNS_13MemoryManagerE
libxerces-c-3.1.so:_ZN11xercesc_3_115XMLChTranscoderD0Ev
libxerces-c-3.1.so:_ZN11xercesc_3_115XMLChTranscoderD1Ev
libxerces-c-3.1.so:_ZN11xercesc_3_115XMLChTranscoderD2Ev
libxerces-c-3.1.so:_ZN11xercesc_3_115XMLNotationDecl12createObjectEPNS_13MemoryManagerE
libxerces-c-3.1.so:_ZN11xercesc_3_115XMLNotationDecl7cleanUpEv
libxerces-c-3.1.so:_ZN11xercesc_3_115XMLNotationDecl7setNameEPKt
libxerces-c-3.1.so:_ZN11xercesc_3_115XMLNotationDecl9serializeERNS_16XSerializeEngineE
libxerces-c-3.1.so:_ZN11xercesc_3_115XMLNotationDeclC1EPKtS2_S2_S2_PNS_13MemoryManagerE
libxerces-c-3.1.so:_ZN11xercesc_3_115XMLNotationDeclC1EPNS_13MemoryManagerE
libxerces-c-3.1.so:_ZN11xercesc_3_115XMLNotationDeclC2EPKtS2_S2_S2_PNS_13MemoryManagerE
libxerces-c-3.1.so:_ZN11xercesc_3_115XMLNotationDeclC2EPNS_13MemoryManagerE
libxerces-c-3.1.so:_ZN11xercesc_3_115XMLNotationDeclD0Ev
libxerces-c-3.1.so:_ZN11xercesc_3_115XMLNotationDeclD1Ev
libxerces-c-3.1.so:_ZN11xercesc_3_115XMLNotationDeclD2Ev
libxerces-c-3.1.so:_ZN11xercesc_3_115XMLRangeFactory11buildRangesEPNS_13RangeTokenMapE
libxerces-c-3.1.so:_ZN11xercesc_3_115XMLRangeFactory20initializeKeywordMapEPNS_13RangeTokenMapE
libxerces-c-3.1.so:_ZN11xercesc_3_115XMLRangeFactoryC1Ev
libxerces-c-3.1.so:_ZN11xercesc_3_115XMLRangeFactoryC2Ev
libxerces-c-3.1.so:_ZN11xercesc_3_115XMLRangeFactoryD0Ev
libxerces-c-3.1.so:_ZN11xercesc_3_115XMLRangeFactoryD1Ev
libxerces-c-3.1.so:_ZN11xercesc_3_115XMLRangeFactoryD2Ev
libxerces-c-3.1.so:_ZN11xercesc_3_115XMLTransService11addEncodingEPKtPNS_8ENameMapE
libxerces-c-3.1.so:_ZN11xercesc_3_115XMLTransService16initTransServiceEv
libxerces-c-3.1.so:_ZN11xercesc_3_115XMLTransService18strictIANAEncodingEb
libxerces-c-3.1.so:_ZN11xercesc_3_115XMLTransService20isStrictIANAEncodingEv
libxerces-c-3.1.so:_ZN11xercesc_3_115XMLTransService20makeNewTranscoderForENS_13XMLRecognizer9EncodingsERNS0_5CodesEmPNS_13MemoryManagerE
libxerces-c-3.1.so:_ZN11xercesc_3_115XMLTransService20makeNewTranscoderForEPKcRNS0_5CodesEmPNS_13MemoryManagerE
libxerces-c-3.1.so:_ZN11xercesc_3_115XMLTransService20makeNewTranscoderForEPKtRNS0_5CodesEmPNS_13MemoryManagerE
libxerces-c-3.1.so:_ZN11xercesc_3_115XMLTransServiceC1Ev
libxerces-c-3.1.so:_ZN11xercesc_3_115XMLTransServiceC2Ev
libxerces-c-3.1.so:_ZN11xercesc_3_115XMLTransServiceD0Ev
libxerces-c-3.1.so:_ZN11xercesc_3_115XMLTransServiceD1Ev
libxerces-c-3.1.so:_ZN11xercesc_3_115XMLTransServiceD2Ev
libxerces-c-3.1.so:_ZN11xercesc_3_115XMLUniCharacter7getTypeEt
libxerces-c-3.1.so:_ZN11xercesc_3_115XSIDCDefinition12getNamespaceEv
libxerces-c-3.1.so:_ZN11xercesc_3_115XSIDCDefinition14getAnnotationsEv
libxerces-c-3.1.so:_ZN11xercesc_3_115XSIDCDefinition14getSelectorStrEv
libxerces-c-3.1.so:_ZN11xercesc_3_115XSIDCDefinition16getNamespaceItemEv
libxerces-c-3.1.so:_ZN11xercesc_3_115XSIDCDefinitionC1EPNS_18IdentityConstraintEPS0_PNS_12XSAnnotationEPNS_16RefArrayVectorOfItEEPNS_7XSModelEPNS_13MemoryManagerE
libxerces-c-3.1.so:_ZN11xercesc_3_115XSIDCDefinitionC2EPNS_18IdentityConstraintEPS0_PNS_12XSAnnotationEPNS_16RefArrayVectorOfItEEPNS_7XSModelEPNS_13MemoryManagerE
libxerces-c-3.1.so:_ZN11xercesc_3_115XSIDCDefinitionD0Ev
libxerces-c-3.1.so:_ZN11xercesc_3_115XSIDCDefinitionD1Ev
libxerces-c-3.1.so:_ZN11xercesc_3_115XSIDCDefinitionD2Ev
libxerces-c-3.1.so:_ZN11xercesc_3_115XSNamespaceItem13getComponentsENS_11XSConstants14COMPONENT_TYPEE
libxerces-c-3.1.so:_ZN11xercesc_3_115XSNamespaceItem17getAttributeGroupEPKt
libxerces-c-3.1.so:_ZN11xercesc_3_115XSNamespaceItem17getTypeDefinitionEPKt
libxerces-c-3.1.so:_ZN11xercesc_3_115XSNamespaceItem20getDocumentLocationsEv
libxerces-c-3.1.so:_ZN11xercesc_3_115XSNamespaceItem21getElementDeclarationEPKt
libxerces-c-3.1.so:_ZN11xercesc_3_115XSNamespaceItem22getNotationDeclarationEPKt
libxerces-c-3.1.so:_ZN11xercesc_3_115XSNamespaceItem23getAttributeDeclarationEPKt
libxerces-c-3.1.so:_ZN11xercesc_3_115XSNamespaceItem23getModelGroupDefinitionEPKt
libxerces-c-3.1.so:_ZN11xercesc_3_115XSNamespaceItemC1EPNS_7XSModelEPKtPNS_13MemoryManagerE
libxerces-c-3.1.so:_ZN11xercesc_3_115XSNamespaceItemC1EPNS_7XSModelEPNS_13SchemaGrammarEPNS_13MemoryManagerE
libxerces-c-3.1.so:_ZN11xercesc_3_115XSNamespaceItemC2EPNS_7XSModelEPKtPNS_13MemoryManagerE
libxerces-c-3.1.so:_ZN11xercesc_3_115XSNamespaceItemC2EPNS_7XSModelEPNS_13SchemaGrammarEPNS_13MemoryManagerE
libxerces-c-3.1.so:_ZN11xercesc_3_115XSNamespaceItemD1Ev
libxerces-c-3.1.so:_ZN11xercesc_3_115XSNamespaceItemD2Ev
libxerces-c-3.1.so:_ZN11xercesc_3_115XSObjectFactory13processAttUseEPNS_12SchemaAttDefEPNS_14XSAttributeUseE
libxerces-c-3.1.so:_ZN11xercesc_3_115XSObjectFactory13processFacetsEPNS_17DatatypeValidatorEPNS_7XSModelEPNS_22XSSimpleTypeDefinitionE
libxerces-c-3.1.so:_ZN11xercesc_3_115XSObjectFactory14putObjectInMapEPvPNS_8XSObjectE
libxerces-c-3.1.so:_ZN11xercesc_3_115XSObjectFactory16createXSWildcardEPKNS_15ContentSpecNodeEPNS_7XSModelE
libxerces-c-3.1.so:_ZN11xercesc_3_115XSObjectFactory16createXSWildcardEPNS_12SchemaAttDefEPNS_7XSModelE
libxerces-c-3.1.so:_ZN11xercesc_3_115XSObjectFactory17buildAllParticlesEPKNS_15ContentSpecNodeEPNS_11RefVectorOfINS_10XSParticleEEEPNS_7XSModelE
libxerces-c-3.1.so:_ZN11xercesc_3_115XSObjectFactory20createXSAttributeUseEPNS_22XSAttributeDeclarationEPNS_7XSModelE
libxerces-c-3.1.so:_ZN11xercesc_3_115XSObjectFactory21createElementParticleEPKNS_15ContentSpecNodeEPNS_7XSModelE
libxerces-c-3.1.so:_ZN11xercesc_3_115XSObjectFactory22createWildcardParticleEPKNS_15ContentSpecNodeEPNS_7XSModelE
libxerces-c-3.1.so:_ZN11xercesc_3_115XSObjectFactory22getAnnotationFromModelEPNS_7XSModelEPKv
libxerces-c-3.1.so:_ZN11xercesc_3_115XSObjectFactory24createModelGroupParticleEPKNS_15ContentSpecNodeEPNS_7XSModelE
libxerces-c-3.1.so:_ZN11xercesc_3_115XSObjectFactory24isMultiValueFacetDefinedEPNS_17DatatypeValidatorE
libxerces-c-3.1.so:_ZN11xercesc_3_115XSObjectFactory26createXSAttGroupDefinitionEPNS_18XercesAttGroupInfoEPNS_7XSModelE
libxerces-c-3.1.so:_ZN11xercesc_3_115XSObjectFactory28buildChoiceSequenceParticlesEPKNS_15ContentSpecNodeEPNS_11RefVectorOfINS_10XSParticleEEEPNS_7XSModelE
libxerces-c-3.1.so:_ZN11xercesc_3_115XSObjectFactory28createXSModelGroupDefinitionEPNS_15XercesGroupInfoEPNS_7XSModelE
libxerces-c-3.1.so:_ZN11xercesc_3_115XSObjectFactory9addOrFindEPNS_12SchemaAttDefEPNS_7XSModelEPNS_23XSComplexTypeDefinitionE
libxerces-c-3.1.so:_ZN11xercesc_3_115XSObjectFactory9addOrFindEPNS_15ComplexTypeInfoEPNS_7XSModelE
libxerces-c-3.1.so:_ZN11xercesc_3_115XSObjectFactory9addOrFindEPNS_15XMLNotationDeclEPNS_7XSModelE
libxerces-c-3.1.so:_ZN11xercesc_3_115XSObjectFactory9addOrFindEPNS_17DatatypeValidatorEPNS_7XSModelEb
libxerces-c-3.1.so:_ZN11xercesc_3_115XSObjectFactory9addOrFindEPNS_17SchemaElementDeclEPNS_7XSModelEPNS_23XSComplexTypeDefinitionE
libxerces-c-3.1.so:_ZN11xercesc_3_115XSObjectFactory9addOrFindEPNS_18IdentityConstraintEPNS_7XSModelE
libxerces-c-3.1.so:_ZN11xercesc_3_115XSObjectFactoryC1EPNS_13MemoryManagerE
libxerces-c-3.1.so:_ZN11xercesc_3_115XSObjectFactoryC2EPNS_13MemoryManagerE
libxerces-c-3.1.so:_ZN11xercesc_3_115XSObjectFactoryD1Ev
libxerces-c-3.1.so:_ZN11xercesc_3_115XSObjectFactoryD2Ev
libxerces-c-3.1.so:_ZN11xercesc_3_115XercesDOMParser10getGrammarEPKt
libxerces-c-3.1.so:_ZN11xercesc_3_115XercesDOMParser10resetParseEv
libxerces-c-3.1.so:_ZN11xercesc_3_115XercesDOMParser11loadGrammarEPKcNS_7Grammar11GrammarTypeEb
libxerces-c-3.1.so:_ZN11xercesc_3_115XercesDOMParser11loadGrammarEPKtNS_7Grammar11GrammarTypeEb
libxerces-c-3.1.so:_ZN11xercesc_3_115XercesDOMParser11loadGrammarERKNS_11InputSourceENS_7Grammar11GrammarTypeEb
libxerces-c-3.1.so:_ZN11xercesc_3_115XercesDOMParser11resetErrorsEv
libxerces-c-3.1.so:_ZN11xercesc_3_115XercesDOMParser13resolveEntityEPNS_21XMLResourceIdentifierE
libxerces-c-3.1.so:_ZN11xercesc_3_115XercesDOMParser14getRootGrammarEv
libxerces-c-3.1.so:_ZN11xercesc_3_115XercesDOMParser15setErrorHandlerEPNS_12ErrorHandlerE
libxerces-c-3.1.so:_ZN11xercesc_3_115XercesDOMParser17resetDocumentPoolEv
libxerces-c-3.1.so:_ZN11xercesc_3_115XercesDOMParser17setEntityResolverEPNS_14EntityResolverE
libxerces-c-3.1.so:_ZN11xercesc_3_115XercesDOMParser18setIgnoreCachedDTDEb
libxerces-c-3.1.so:_ZN11xercesc_3_115XercesDOMParser20setXMLEntityResolverEPNS_17XMLEntityResolverE
libxerces-c-3.1.so:_ZN11xercesc_3_115XercesDOMParser21cacheGrammarFromParseEb
libxerces-c-3.1.so:_ZN11xercesc_3_115XercesDOMParser22resetCachedGrammarPoolEv
libxerces-c-3.1.so:_ZN11xercesc_3_115XercesDOMParser23useCachedGrammarInParseEb
libxerces-c-3.1.so:_ZN11xercesc_3_115XercesDOMParser5errorEjPKtNS_16XMLErrorReporter8ErrTypesES2_S2_S2_mm
libxerces-c-3.1.so:_ZN11xercesc_3_115XercesDOMParserC1EPNS_12XMLValidatorEPNS_13MemoryManagerEPNS_14XMLGrammarPoolE
libxerces-c-3.1.so:_ZN11xercesc_3_115XercesDOMParserC2EPNS_12XMLValidatorEPNS_13MemoryManagerEPNS_14XMLGrammarPoolE
libxerces-c-3.1.so:_ZN11xercesc_3_115XercesDOMParserD0Ev
libxerces-c-3.1.so:_ZN11xercesc_3_115XercesDOMParserD1Ev
libxerces-c-3.1.so:_ZN11xercesc_3_115XercesDOMParserD2Ev
libxerces-c-3.1.so:_ZN11xercesc_3_115XercesGroupInfo10setLocatorEPNS_10XSDLocatorE
libxerces-c-3.1.so:_ZN11xercesc_3_115XercesGroupInfo12createObjectEPNS_13MemoryManagerE
libxerces-c-3.1.so:_ZN11xercesc_3_115XercesGroupInfo9serializeERNS_16XSerializeEngineE
libxerces-c-3.1.so:_ZN11xercesc_3_115XercesGroupInfoC1EPNS_13MemoryManagerE
libxerces-c-3.1.so:_ZN11xercesc_3_115XercesGroupInfoC1EjjPNS_13MemoryManagerE
libxerces-c-3.1.so:_ZN11xercesc_3_115XercesGroupInfoC2EPNS_13MemoryManagerE
libxerces-c-3.1.so:_ZN11xercesc_3_115XercesGroupInfoC2EjjPNS_13MemoryManagerE
libxerces-c-3.1.so:_ZN11xercesc_3_115XercesGroupInfoD0Ev
libxerces-c-3.1.so:_ZN11xercesc_3_115XercesGroupInfoD1Ev
libxerces-c-3.1.so:_ZN11xercesc_3_115XercesGroupInfoD2Ev
libxerces-c-3.1.so:_ZN11xercesc_3_116DOMElementNSImpl17setSchemaTypeInfoEPKNS_15DOMTypeInfoImplE
libxerces-c-3.1.so:_ZN11xercesc_3_116DOMElementNSImpl6renameEPKtS2_
libxerces-c-3.1.so:_ZN11xercesc_3_116DOMElementNSImpl7releaseEv
libxerces-c-3.1.so:_ZN11xercesc_3_116DOMElementNSImpl7setNameEPKtS2_
libxerces-c-3.1.so:_ZN11xercesc_3_116DOMElementNSImpl9setPrefixEPKt
libxerces-c-3.1.so:_ZN11xercesc_3_116DOMElementNSImplC1EPNS_11DOMDocumentEPKt
libxerces-c-3.1.so:_ZN11xercesc_3_116DOMElementNSImplC1EPNS_11DOMDocumentEPKtS4_
libxerces-c-3.1.so:_ZN11xercesc_3_116DOMElementNSImplC1EPNS_11DOMDocumentEPKtS4_S4_S4_
libxerces-c-3.1.so:_ZN11xercesc_3_116DOMElementNSImplC1ERKS0_b
libxerces-c-3.1.so:_ZN11xercesc_3_116DOMElementNSImplC2EPNS_11DOMDocumentEPKt
libxerces-c-3.1.so:_ZN11xercesc_3_116DOMElementNSImplC2EPNS_11DOMDocumentEPKtS4_
libxerces-c-3.1.so:_ZN11xercesc_3_116DOMElementNSImplC2EPNS_11DOMDocumentEPKtS4_S4_S4_
libxerces-c-3.1.so:_ZN11xercesc_3_116DOMElementNSImplC2ERKS0_b
libxerces-c-3.1.so:_ZN11xercesc_3_116SchemaAttDefList10findAttDefEPKtS2_
libxerces-c-3.1.so:_ZN11xercesc_3_116SchemaAttDefList10findAttDefEjPKt
libxerces-c-3.1.so:_ZN11xercesc_3_116SchemaAttDefList12createObjectEPNS_13MemoryManagerE
libxerces-c-3.1.so:_ZN11xercesc_3_116SchemaAttDefList9getAttDefEm
libxerces-c-3.1.so:_ZN11xercesc_3_116SchemaAttDefList9serializeERNS_16XSerializeEngineE
libxerces-c-3.1.so:_ZN11xercesc_3_116SchemaAttDefListC1EPNS_13MemoryManagerE
libxerces-c-3.1.so:_ZN11xercesc_3_116SchemaAttDefListC1EPNS_19RefHash2KeysTableOfINS_12SchemaAttDefENS_12StringHasherEEEPNS_13MemoryManagerE
libxerces-c-3.1.so:_ZN11xercesc_3_116SchemaAttDefListC2EPNS_13MemoryManagerE
libxerces-c-3.1.so:_ZN11xercesc_3_116SchemaAttDefListC2EPNS_19RefHash2KeysTableOfINS_12SchemaAttDefENS_12StringHasherEEEPNS_13MemoryManagerE
libxerces-c-3.1.so:_ZN11xercesc_3_116SchemaAttDefListD0Ev
libxerces-c-3.1.so:_ZN11xercesc_3_116SchemaAttDefListD1Ev
libxerces-c-3.1.so:_ZN11xercesc_3_116SchemaAttDefListD2Ev
libxerces-c-3.1.so:_ZN11xercesc_3_116TranscodeFromStr9transcodeEPKhmPNS_13XMLTranscoderE
libxerces-c-3.1.so:_ZN11xercesc_3_116TranscodeFromStrC1EPKhmPKcPNS_13MemoryManagerE
libxerces-c-3.1.so:_ZN11xercesc_3_116TranscodeFromStrC1EPKhmPNS_13XMLTranscoderEPNS_13MemoryManagerE
libxerces-c-3.1.so:_ZN11xercesc_3_116TranscodeFromStrC2EPKhmPKcPNS_13MemoryManagerE
libxerces-c-3.1.so:_ZN11xercesc_3_116TranscodeFromStrC2EPKhmPNS_13XMLTranscoderEPNS_13MemoryManagerE
libxerces-c-3.1.so:_ZN11xercesc_3_116TranscodeFromStrD1Ev
libxerces-c-3.1.so:_ZN11xercesc_3_116TranscodeFromStrD2Ev
libxerces-c-3.1.so:_ZN11xercesc_3_116XIncludeLocation11prependPathEPKt
libxerces-c-3.1.so:_ZN11xercesc_3_116XIncludeLocation17findEndOfProtocolEPKt
libxerces-c-3.1.so:_ZN11xercesc_3_116XIncludeLocationC1EPKt
libxerces-c-3.1.so:_ZN11xercesc_3_116XIncludeLocationC2EPKt
libxerces-c-3.1.so:_ZN11xercesc_3_116XIncludeLocationD1Ev
libxerces-c-3.1.so:_ZN11xercesc_3_116XIncludeLocationD2Ev
libxerces-c-3.1.so:_ZN11xercesc_3_116XMLLCPTranscoderC1Ev
libxerces-c-3.1.so:_ZN11xercesc_3_116XMLLCPTranscoderC2Ev
libxerces-c-3.1.so:_ZN11xercesc_3_116XMLLCPTranscoderD0Ev
libxerces-c-3.1.so:_ZN11xercesc_3_116XMLLCPTranscoderD1Ev
libxerces-c-3.1.so:_ZN11xercesc_3_116XMLLCPTranscoderD2Ev
libxerces-c-3.1.so:_ZN11xercesc_3_116XMLPlatformUtils10InitializeEPKcS2_PNS_12PanicHandlerEPNS_13MemoryManagerE
libxerces-c-3.1.so:_ZN11xercesc_3_116XMLPlatformUtils10InitializeEmmmPKcS2_PNS_12PanicHandlerEPNS_13MemoryManagerE
libxerces-c-3.1.so:_ZN11xercesc_3_116XMLPlatformUtils10closeMutexEPvPNS_13MemoryManagerE
libxerces-c-3.1.so:_ZN11xercesc_3_116XMLPlatformUtils10curFilePosEPvPNS_13MemoryManagerE
libxerces-c-3.1.so:_ZN11xercesc_3_116XMLPlatformUtils10isRelativeEPKtPNS_13MemoryManagerE
libxerces-c-3.1.so:_ZN11xercesc_3_116XMLPlatformUtils10loadMsgSetEPKt
libxerces-c-3.1.so:_ZN11xercesc_3_116XMLPlatformUtils10weavePathsEPKtS2_PNS_13MemoryManagerE
libxerces-c-3.1.so:_ZN11xercesc_3_116XMLPlatformUtils11getFullPathEPKtPNS_13MemoryManagerE
libxerces-c-3.1.so:_ZN11xercesc_3_116XMLPlatformUtils11loadAMsgSetEPKt
libxerces-c-3.1.so:_ZN11xercesc_3_116XMLPlatformUtils11makeFileMgrEPNS_13MemoryManagerE
libxerces-c-3.1.so:_ZN11xercesc_3_116XMLPlatformUtils11unlockMutexEPv
libxerces-c-3.1.so:_ZN11xercesc_3_116XMLPlatformUtils12makeMutexMgrEPNS_13MemoryManagerE
libxerces-c-3.1.so:_ZN11xercesc_3_116XMLPlatformUtils12recognizeNELEbPNS_13MemoryManagerE
libxerces-c-3.1.so:_ZN11xercesc_3_116XMLPlatformUtils14readFileBufferEPvmPhPNS_13MemoryManagerE
libxerces-c-3.1.so:_ZN11xercesc_3_116XMLPlatformUtils14removeDotSlashEPtPNS_13MemoryManagerE
libxerces-c-3.1.so:_ZN11xercesc_3_116XMLPlatformUtils15isNELRecognizedEv
libxerces-c-3.1.so:_ZN11xercesc_3_116XMLPlatformUtils15makeNetAccessorEv
libxerces-c-3.1.so:_ZN11xercesc_3_116XMLPlatformUtils15openFileToWriteEPKcPNS_13MemoryManagerE
libxerces-c-3.1.so:_ZN11xercesc_3_116XMLPlatformUtils15openFileToWriteEPKtPNS_13MemoryManagerE
libxerces-c-3.1.so:_ZN11xercesc_3_116XMLPlatformUtils15openStdInHandleEPNS_13MemoryManagerE
libxerces-c-3.1.so:_ZN11xercesc_3_116XMLPlatformUtils16getCurrentMillisEv
libxerces-c-3.1.so:_ZN11xercesc_3_116XMLPlatformUtils16makeTransServiceEv
libxerces-c-3.1.so:_ZN11xercesc_3_116XMLPlatformUtils17removeDotDotSlashEPtPNS_13MemoryManagerE
libxerces-c-3.1.so:_ZN11xercesc_3_116XMLPlatformUtils17writeBufferToFileEPvmPKhPNS_13MemoryManagerE
libxerces-c-3.1.so:_ZN11xercesc_3_116XMLPlatformUtils18strictIANAEncodingEb
libxerces-c-3.1.so:_ZN11xercesc_3_116XMLPlatformUtils19getCurrentDirectoryEPNS_13MemoryManagerE
libxerces-c-3.1.so:_ZN11xercesc_3_116XMLPlatformUtils20isStrictIANAEncodingEv
libxerces-c-3.1.so:_ZN11xercesc_3_116XMLPlatformUtils22searchSlashDotDotSlashEPt
libxerces-c-3.1.so:_ZN11xercesc_3_116XMLPlatformUtils5panicENS_12PanicHandler12PanicReasonsE
libxerces-c-3.1.so:_ZN11xercesc_3_116XMLPlatformUtils8fileSizeEPvPNS_13MemoryManagerE
libxerces-c-3.1.so:_ZN11xercesc_3_116XMLPlatformUtils8openFileEPKcPNS_13MemoryManagerE
libxerces-c-3.1.so:_ZN11xercesc_3_116XMLPlatformUtils8openFileEPKtPNS_13MemoryManagerE
libxerces-c-3.1.so:_ZN11xercesc_3_116XMLPlatformUtils9TerminateEv
libxerces-c-3.1.so:_ZN11xercesc_3_116XMLPlatformUtils9closeFileEPvPNS_13MemoryManagerE
libxerces-c-3.1.so:_ZN11xercesc_3_116XMLPlatformUtils9lockMutexEPv
libxerces-c-3.1.so:_ZN11xercesc_3_116XMLPlatformUtils9makeMutexEPNS_13MemoryManagerE
libxerces-c-3.1.so:_ZN11xercesc_3_116XMLPlatformUtils9resetFileEPvPNS_13MemoryManagerE
libxerces-c-3.1.so:_ZN11xercesc_3_116XMLReaderFactory15createXMLReaderEPNS_13MemoryManagerEPNS_14XMLGrammarPoolE
libxerces-c-3.1.so:_ZN11xercesc_3_116XSDElementNSImplC1EPNS_11DOMDocumentEPKt
libxerces-c-3.1.so:_ZN11xercesc_3_116XSDElementNSImplC1EPNS_11DOMDocumentEPKtS4_mm
libxerces-c-3.1.so:_ZN11xercesc_3_116XSDElementNSImplC1ERKS0_b
libxerces-c-3.1.so:_ZN11xercesc_3_116XSDElementNSImplC2EPNS_11DOMDocumentEPKt
libxerces-c-3.1.so:_ZN11xercesc_3_116XSDElementNSImplC2EPNS_11DOMDocumentEPKtS4_mm
libxerces-c-3.1.so:_ZN11xercesc_3_116XSDElementNSImplC2ERKS0_b
libxerces-c-3.1.so:_ZN11xercesc_3_116XSDErrorReporter9emitErrorERKNS_12XMLExceptionEPKNS_7LocatorE
libxerces-c-3.1.so:_ZN11xercesc_3_116XSDErrorReporter9emitErrorEjPKtPKNS_7LocatorE
libxerces-c-3.1.so:_ZN11xercesc_3_116XSDErrorReporter9emitErrorEjPKtPKNS_7LocatorES2_S2_S2_S2_PNS_13MemoryManagerE
libxerces-c-3.1.so:_ZN11xercesc_3_116XSDErrorReporterC1EPNS_16XMLErrorReporterE
libxerces-c-3.1.so:_ZN11xercesc_3_116XSDErrorReporterC2EPNS_16XMLErrorReporterE
libxerces-c-3.1.so:_ZN11xercesc_3_116XSTypeDefinition11derivedFromEPKtS2_
libxerces-c-3.1.so:_ZN11xercesc_3_116XSTypeDefinition7isFinalEs
libxerces-c-3.1.so:_ZN11xercesc_3_116XSTypeDefinitionC1ENS0_13TYPE_CATEGORYEPS0_PNS_7XSModelEPNS_13MemoryManagerE
libxerces-c-3.1.so:_ZN11xercesc_3_116XSTypeDefinitionC2ENS0_13TYPE_CATEGORYEPS0_PNS_7XSModelEPNS_13MemoryManagerE
libxerces-c-3.1.so:_ZN11xercesc_3_116XSTypeDefinitionD0Ev
libxerces-c-3.1.so:_ZN11xercesc_3_116XSTypeDefinitionD1Ev
libxerces-c-3.1.so:_ZN11xercesc_3_116XSTypeDefinitionD2Ev
libxerces-c-3.1.so:_ZN11xercesc_3_116XSerializeEngine10fillBufferEv
libxerces-c-3.1.so:_ZN11xercesc_3_116XSerializeEngine10readStringERPhRmS3_b
libxerces-c-3.1.so:_ZN11xercesc_3_116XSerializeEngine10readStringERPtRmS3_b
libxerces-c-3.1.so:_ZN11xercesc_3_116XSerializeEngine10readUInt64ERm
libxerces-c-3.1.so:_ZN11xercesc_3_116XSerializeEngine10writeInt64El
libxerces-c-3.1.so:_ZN11xercesc_3_116XSerializeEngine11addLoadPoolEPv
libxerces-c-3.1.so:_ZN11xercesc_3_116XSerializeEngine11flushBufferEv
libxerces-c-3.1.so:_ZN11xercesc_3_116XSerializeEngine11writeStringEPKhmb
libxerces-c-3.1.so:_ZN11xercesc_3_116XSerializeEngine11writeStringEPKtmb
libxerces-c-3.1.so:_ZN11xercesc_3_116XSerializeEngine11writeUInt64Em
libxerces-c-3.1.so:_ZN11xercesc_3_116XSerializeEngine12addStorePoolEPv
libxerces-c-3.1.so:_ZN11xercesc_3_116XSerializeEngine14registerObjectEPv
libxerces-c-3.1.so:_ZN11xercesc_3_116XSerializeEngine16needToLoadObjectEPPv
libxerces-c-3.1.so:_ZN11xercesc_3_116XSerializeEngine17needToStoreObjectEPv
libxerces-c-3.1.so:_ZN11xercesc_3_116XSerializeEngine4readEPNS_10XProtoTypeE
libxerces-c-3.1.so:_ZN11xercesc_3_116XSerializeEngine4readEPNS_10XProtoTypeEPj
libxerces-c-3.1.so:_ZN11xercesc_3_116XSerializeEngine4readEPhm
libxerces-c-3.1.so:_ZN11xercesc_3_116XSerializeEngine4readEPtm
libxerces-c-3.1.so:_ZN11xercesc_3_116XSerializeEngine5flushEv
libxerces-c-3.1.so:_ZN11xercesc_3_116XSerializeEngine5writeEPKhm
libxerces-c-3.1.so:_ZN11xercesc_3_116XSerializeEngine5writeEPKtm
libxerces-c-3.1.so:_ZN11xercesc_3_116XSerializeEngine5writeEPNS_10XProtoTypeE
libxerces-c-3.1.so:_ZN11xercesc_3_116XSerializeEngine5writeEPNS_13XSerializableE
libxerces-c-3.1.so:_ZN11xercesc_3_116XSerializeEngine8readSizeERm
libxerces-c-3.1.so:_ZN11xercesc_3_116XSerializeEngine9pumpCountEv
libxerces-c-3.1.so:_ZN11xercesc_3_116XSerializeEngine9readInt64ERl
libxerces-c-3.1.so:_ZN11xercesc_3_116XSerializeEngine9writeSizeEm
libxerces-c-3.1.so:_ZN11xercesc_3_116XSerializeEngineC1EPNS_14BinInputStreamEPNS_14XMLGrammarPoolEm
libxerces-c-3.1.so:_ZN11xercesc_3_116XSerializeEngineC1EPNS_15BinOutputStreamEPNS_14XMLGrammarPoolEm
libxerces-c-3.1.so:_ZN11xercesc_3_116XSerializeEngineC2EPNS_14BinInputStreamEPNS_14XMLGrammarPoolEm
libxerces-c-3.1.so:_ZN11xercesc_3_116XSerializeEngineC2EPNS_15BinOutputStreamEPNS_14XMLGrammarPoolEm
libxerces-c-3.1.so:_ZN11xercesc_3_116XSerializeEngineD1Ev
libxerces-c-3.1.so:_ZN11xercesc_3_116XSerializeEngineD2Ev
libxerces-c-3.1.so:_ZN11xercesc_3_116XSerializeEnginelsEb
libxerces-c-3.1.so:_ZN11xercesc_3_116XSerializeEnginelsEc
libxerces-c-3.1.so:_ZN11xercesc_3_116XSerializeEnginelsEd
libxerces-c-3.1.so:_ZN11xercesc_3_116XSerializeEnginelsEf
libxerces-c-3.1.so:_ZN11xercesc_3_116XSerializeEnginelsEh
libxerces-c-3.1.so:_ZN11xercesc_3_116XSerializeEnginelsEi
libxerces-c-3.1.so:_ZN11xercesc_3_116XSerializeEnginelsEj
libxerces-c-3.1.so:_ZN11xercesc_3_116XSerializeEnginelsEl
libxerces-c-3.1.so:_ZN11xercesc_3_116XSerializeEnginelsEm
libxerces-c-3.1.so:_ZN11xercesc_3_116XSerializeEnginelsEs
libxerces-c-3.1.so:_ZN11xercesc_3_116XSerializeEnginelsEt
libxerces-c-3.1.so:_ZN11xercesc_3_116XSerializeEnginersERb
libxerces-c-3.1.so:_ZN11xercesc_3_116XSerializeEnginersERc
libxerces-c-3.1.so:_ZN11xercesc_3_116XSerializeEnginersERd
libxerces-c-3.1.so:_ZN11xercesc_3_116XSerializeEnginersERf
libxerces-c-3.1.so:_ZN11xercesc_3_116XSerializeEnginersERh
libxerces-c-3.1.so:_ZN11xercesc_3_116XSerializeEnginersERi
libxerces-c-3.1.so:_ZN11xercesc_3_116XSerializeEnginersERj
libxerces-c-3.1.so:_ZN11xercesc_3_116XSerializeEnginersERl
libxerces-c-3.1.so:_ZN11xercesc_3_116XSerializeEnginersERm
libxerces-c-3.1.so:_ZN11xercesc_3_116XSerializeEnginersERs
libxerces-c-3.1.so:_ZN11xercesc_3_116XSerializeEnginersERt
libxerces-c-3.1.so:_ZN11xercesc_3_117ASCIIRangeFactory11buildRangesEPNS_13RangeTokenMapE
libxerces-c-3.1.so:_ZN11xercesc_3_117ASCIIRangeFactory20initializeKeywordMapEPNS_13RangeTokenMapE
libxerces-c-3.1.so:_ZN11xercesc_3_117ASCIIRangeFactoryC1Ev
libxerces-c-3.1.so:_ZN11xercesc_3_117ASCIIRangeFactoryC2Ev
libxerces-c-3.1.so:_ZN11xercesc_3_117ASCIIRangeFactoryD0Ev
libxerces-c-3.1.so:_ZN11xercesc_3_117ASCIIRangeFactoryD1Ev
libxerces-c-3.1.so:_ZN11xercesc_3_117ASCIIRangeFactoryD2Ev
libxerces-c-3.1.so:_ZN11xercesc_3_117AbstractDOMParser10createAttrEPKt
libxerces-c-3.1.so:_ZN11xercesc_3_117AbstractDOMParser10createTextEPKtm
libxerces-c-3.1.so:_ZN11xercesc_3_117AbstractDOMParser10docCommentEPKt
libxerces-c-3.1.so:_ZN11xercesc_3_117AbstractDOMParser10endAttListERKNS_14DTDElementDeclE
libxerces-c-3.1.so:_ZN11xercesc_3_117AbstractDOMParser10endElementERKNS_14XMLElementDeclEjbPKt
libxerces-c-3.1.so:_ZN11xercesc_3_117AbstractDOMParser10entityDeclERKNS_13DTDEntityDeclEbb
libxerces-c-3.1.so:_ZN11xercesc_3_117AbstractDOMParser10initializeEv
libxerces-c-3.1.so:_ZN11xercesc_3_117AbstractDOMParser10parseFirstEPKcRNS_13XMLPScanTokenE
libxerces-c-3.1.so:_ZN11xercesc_3_117AbstractDOMParser10parseFirstEPKtRNS_13XMLPScanTokenE
libxerces-c-3.1.so:_ZN11xercesc_3_117AbstractDOMParser10parseFirstERKNS_11InputSourceERNS_13XMLPScanTokenE
libxerces-c-3.1.so:_ZN11xercesc_3_117AbstractDOMParser10parseResetERNS_13XMLPScanTokenE
libxerces-c-3.1.so:_ZN11xercesc_3_117AbstractDOMParser10useScannerEPKt
libxerces-c-3.1.so:_ZN11xercesc_3_117AbstractDOMParser11doctypeDeclERKNS_14DTDElementDeclEPKtS5_bb
libxerces-c-3.1.so:_ZN11xercesc_3_117AbstractDOMParser11elementDeclERKNS_14DTDElementDeclEb
libxerces-c-3.1.so:_ZN11xercesc_3_117AbstractDOMParser11endDocumentEv
libxerces-c-3.1.so:_ZN11xercesc_3_117AbstractDOMParser11getDocumentEv
libxerces-c-3.1.so:_ZN11xercesc_3_117AbstractDOMParser11setDoSchemaEb
libxerces-c-3.1.so:_ZN11xercesc_3_117AbstractDOMParser11setDocumentEPNS_11DOMDocumentE
libxerces-c-3.1.so:_ZN11xercesc_3_117AbstractDOMParser12createAttrNSEPKtS2_S2_S2_
libxerces-c-3.1.so:_ZN11xercesc_3_117AbstractDOMParser12endExtSubsetEv
libxerces-c-3.1.so:_ZN11xercesc_3_117AbstractDOMParser12endIntSubsetEv
libxerces-c-3.1.so:_ZN11xercesc_3_117AbstractDOMParser12notationDeclERKNS_15XMLNotationDeclEb
libxerces-c-3.1.so:_ZN11xercesc_3_117AbstractDOMParser12resetDocTypeEv
libxerces-c-3.1.so:_ZN11xercesc_3_117AbstractDOMParser12startAttListERKNS_14DTDElementDeclE
libxerces-c-3.1.so:_ZN11xercesc_3_117AbstractDOMParser12startElementERKNS_14XMLElementDeclEjPKtRKNS_11RefVectorOfINS_7XMLAttrEEEmbb
libxerces-c-3.1.so:_ZN11xercesc_3_117AbstractDOMParser13adoptDocumentEv
libxerces-c-3.1.so:_ZN11xercesc_3_117AbstractDOMParser13createElementEPKt
libxerces-c-3.1.so:_ZN11xercesc_3_117AbstractDOMParser13docCharactersEPKtmb
libxerces-c-3.1.so:_ZN11xercesc_3_117AbstractDOMParser13resetDocumentEv
libxerces-c-3.1.so:_ZN11xercesc_3_117AbstractDOMParser13setLoadSchemaEb
libxerces-c-3.1.so:_ZN11xercesc_3_117AbstractDOMParser13startDocumentEv
libxerces-c-3.1.so:_ZN11xercesc_3_117AbstractDOMParser14doctypeCommentEPKt
libxerces-c-3.1.so:_ZN11xercesc_3_117AbstractDOMParser14setPSVIHandlerEPNS_11PSVIHandlerE
libxerces-c-3.1.so:_ZN11xercesc_3_117AbstractDOMParser14startExtSubsetEv
libxerces-c-3.1.so:_ZN11xercesc_3_117AbstractDOMParser14startIntSubsetEv
libxerces-c-3.1.so:_ZN11xercesc_3_117AbstractDOMParser15createElementNSEPKtS2_S2_S2_
libxerces-c-3.1.so:_ZN11xercesc_3_117AbstractDOMParser15resetInProgressEv
libxerces-c-3.1.so:_ZN11xercesc_3_117AbstractDOMParser15setDoNamespacesEb
libxerces-c-3.1.so:_ZN11xercesc_3_117AbstractDOMParser15setLowWaterMarkEm
libxerces-c-3.1.so:_ZN11xercesc_3_117AbstractDOMParser17doctypeWhitespaceEPKtm
libxerces-c-3.1.so:_ZN11xercesc_3_117AbstractDOMParser17handleElementPSVIEPKtS2_PNS_11PSVIElementE
libxerces-c-3.1.so:_ZN11xercesc_3_117AbstractDOMParser18createCDATASectionEPKtm
libxerces-c-3.1.so:_ZN11xercesc_3_117AbstractDOMParser18endEntityReferenceERKNS_13XMLEntityDeclE
libxerces-c-3.1.so:_ZN11xercesc_3_117AbstractDOMParser18setCalculateSrcOfsEb
libxerces-c-3.1.so:_ZN11xercesc_3_117AbstractDOMParser18setLoadExternalDTDEb
libxerces-c-3.1.so:_ZN11xercesc_3_117AbstractDOMParser18setSecurityManagerEPNS_15SecurityManagerE
libxerces-c-3.1.so:_ZN11xercesc_3_117AbstractDOMParser19ignorableWhitespaceEPKtmb
libxerces-c-3.1.so:_ZN11xercesc_3_117AbstractDOMParser19setCreateSchemaInfoEb
libxerces-c-3.1.so:_ZN11xercesc_3_117AbstractDOMParser19setValidationSchemeENS0_10ValSchemesE
libxerces-c-3.1.so:_ZN11xercesc_3_117AbstractDOMParser20handleAttributesPSVIEPKtS2_PNS_17PSVIAttributeListE
libxerces-c-3.1.so:_ZN11xercesc_3_117AbstractDOMParser20setIgnoreAnnotationsEb
libxerces-c-3.1.so:_ZN11xercesc_3_117AbstractDOMParser20setSkipDTDValidationEb
libxerces-c-3.1.so:_ZN11xercesc_3_117AbstractDOMParser20startEntityReferenceERKNS_13XMLEntityDeclE
libxerces-c-3.1.so:_ZN11xercesc_3_117AbstractDOMParser22setValidateAnnotationsEb
libxerces-c-3.1.so:_ZN11xercesc_3_117AbstractDOMParser24handlePartialElementPSVIEPKtS2_PNS_11PSVIElementE
libxerces-c-3.1.so:_ZN11xercesc_3_117AbstractDOMParser24setExitOnFirstFatalErrorEb
libxerces-c-3.1.so:_ZN11xercesc_3_117AbstractDOMParser24setHandleMultipleImportsEb
libxerces-c-3.1.so:_ZN11xercesc_3_117AbstractDOMParser24setStandardUriConformantEb
libxerces-c-3.1.so:_ZN11xercesc_3_117AbstractDOMParser25setExternalSchemaLocationEPKc
libxerces-c-3.1.so:_ZN11xercesc_3_117AbstractDOMParser25setExternalSchemaLocationEPKt
libxerces-c-3.1.so:_ZN11xercesc_3_117AbstractDOMParser28setValidationConstraintFatalEb
libxerces-c-3.1.so:_ZN11xercesc_3_117AbstractDOMParser29setIdentityConstraintCheckingEb
libxerces-c-3.1.so:_ZN11xercesc_3_117AbstractDOMParser31setGenerateSyntheticAnnotationsEb
libxerces-c-3.1.so:_ZN11xercesc_3_117AbstractDOMParser31setValidationSchemaFullCheckingEb
libxerces-c-3.1.so:_ZN11xercesc_3_117AbstractDOMParser33setDisableDefaultEntityResolutionEb
libxerces-c-3.1.so:_ZN11xercesc_3_117AbstractDOMParser36setExternalNoNamespaceSchemaLocationEPKc
libxerces-c-3.1.so:_ZN11xercesc_3_117AbstractDOMParser36setExternalNoNamespaceSchemaLocationEPKt
libxerces-c-3.1.so:_ZN11xercesc_3_117AbstractDOMParser5docPIEPKtS2_
libxerces-c-3.1.so:_ZN11xercesc_3_117AbstractDOMParser5parseEPKc
libxerces-c-3.1.so:_ZN11xercesc_3_117AbstractDOMParser5parseEPKt
libxerces-c-3.1.so:_ZN11xercesc_3_117AbstractDOMParser5parseERKNS_11InputSourceE
libxerces-c-3.1.so:_ZN11xercesc_3_117AbstractDOMParser5resetEv
libxerces-c-3.1.so:_ZN11xercesc_3_117AbstractDOMParser6attDefERKNS_14DTDElementDeclERKNS_9DTDAttDefEb
libxerces-c-3.1.so:_ZN11xercesc_3_117AbstractDOMParser7XMLDeclEPKtS2_S2_S2_
libxerces-c-3.1.so:_ZN11xercesc_3_117AbstractDOMParser7cleanUpEv
libxerces-c-3.1.so:_ZN11xercesc_3_117AbstractDOMParser8TextDeclEPKtS2_
libxerces-c-3.1.so:_ZN11xercesc_3_117AbstractDOMParser9doctypePIEPKtS2_
libxerces-c-3.1.so:_ZN11xercesc_3_117AbstractDOMParser9parseNextERNS_13XMLPScanTokenE
libxerces-c-3.1.so:_ZN11xercesc_3_117AbstractDOMParser9resetPoolEv
libxerces-c-3.1.so:_ZN11xercesc_3_117AbstractDOMParserC1EPNS_12XMLValidatorEPNS_13MemoryManagerEPNS_14XMLGrammarPoolE
libxerces-c-3.1.so:_ZN11xercesc_3_117AbstractDOMParserC2EPNS_12XMLValidatorEPNS_13MemoryManagerEPNS_14XMLGrammarPoolE
libxerces-c-3.1.so:_ZN11xercesc_3_117AbstractDOMParserD0Ev
libxerces-c-3.1.so:_ZN11xercesc_3_117AbstractDOMParserD1Ev
libxerces-c-3.1.so:_ZN11xercesc_3_117AbstractDOMParserD2Ev
libxerces-c-3.1.so:_ZN11xercesc_3_117BinMemInputStream9readBytesEPhm
libxerces-c-3.1.so:_ZN11xercesc_3_117BinMemInputStreamC1EPKhmNS0_7BufOptsEPNS_13MemoryManagerE
libxerces-c-3.1.so:_ZN11xercesc_3_117BinMemInputStreamC2EPKhmNS0_7BufOptsEPNS_13MemoryManagerE
libxerces-c-3.1.so:_ZN11xercesc_3_117BinMemInputStreamD0Ev
libxerces-c-3.1.so:_ZN11xercesc_3_117BinMemInputStreamD1Ev
libxerces-c-3.1.so:_ZN11xercesc_3_117BinMemInputStreamD2Ev
libxerces-c-3.1.so:_ZN11xercesc_3_117BlockRangeFactory11buildRangesEPNS_13RangeTokenMapE
libxerces-c-3.1.so:_ZN11xercesc_3_117BlockRangeFactory20initializeKeywordMapEPNS_13RangeTokenMapE
libxerces-c-3.1.so:_ZN11xercesc_3_117BlockRangeFactoryC1Ev
libxerces-c-3.1.so:_ZN11xercesc_3_117BlockRangeFactoryC2Ev
libxerces-c-3.1.so:_ZN11xercesc_3_117BlockRangeFactoryD0Ev
libxerces-c-3.1.so:_ZN11xercesc_3_117BlockRangeFactoryD1Ev
libxerces-c-3.1.so:_ZN11xercesc_3_117BlockRangeFactoryD2Ev
libxerces-c-3.1.so:_ZN11xercesc_3_117DOMImplementation17getImplementationEv
libxerces-c-3.1.so:_ZN11xercesc_3_117DOMImplementation19loadDOMExceptionMsgEsPtm
libxerces-c-3.1.so:_ZN11xercesc_3_117DOMRangeExceptionC1ERKS0_
libxerces-c-3.1.so:_ZN11xercesc_3_117DOMRangeExceptionC1EssPNS_13MemoryManagerE
libxerces-c-3.1.so:_ZN11xercesc_3_117DOMRangeExceptionC1Ev
libxerces-c-3.1.so:_ZN11xercesc_3_117DOMRangeExceptionC2ERKS0_
libxerces-c-3.1.so:_ZN11xercesc_3_117DOMRangeExceptionC2EssPNS_13MemoryManagerE
libxerces-c-3.1.so:_ZN11xercesc_3_117DOMRangeExceptionC2Ev
libxerces-c-3.1.so:_ZN11xercesc_3_117DOMRangeExceptionD0Ev
libxerces-c-3.1.so:_ZN11xercesc_3_117DOMRangeExceptionD1Ev
libxerces-c-3.1.so:_ZN11xercesc_3_117DOMRangeExceptionD2Ev
libxerces-c-3.1.so:_ZN11xercesc_3_117DOMStringListImpl3addEPKt
libxerces-c-3.1.so:_ZN11xercesc_3_117DOMStringListImpl7releaseEv
libxerces-c-3.1.so:_ZN11xercesc_3_117DOMStringListImplC1EiPNS_13MemoryManagerE
libxerces-c-3.1.so:_ZN11xercesc_3_117DOMStringListImplC2EiPNS_13MemoryManagerE
libxerces-c-3.1.so:_ZN11xercesc_3_117DOMStringListImplD0Ev
libxerces-c-3.1.so:_ZN11xercesc_3_117DOMStringListImplD1Ev
libxerces-c-3.1.so:_ZN11xercesc_3_117DOMStringListImplD2Ev
libxerces-c-3.1.so:_ZN11xercesc_3_117DOMTreeWalkerImpl10acceptNodeEPNS_7DOMNodeE
libxerces-c-3.1.so:_ZN11xercesc_3_117DOMTreeWalkerImpl10firstChildEv
libxerces-c-3.1.so:_ZN11xercesc_3_117DOMTreeWalkerImpl10parentNodeEv
libxerces-c-3.1.so:_ZN11xercesc_3_117DOMTreeWalkerImpl11nextSiblingEv
libxerces-c-3.1.so:_ZN11xercesc_3_117DOMTreeWalkerImpl12getLastChildEPNS_7DOMNodeE
libxerces-c-3.1.so:_ZN11xercesc_3_117DOMTreeWalkerImpl12previousNodeEv
libxerces-c-3.1.so:_ZN11xercesc_3_117DOMTreeWalkerImpl13getFirstChildEPNS_7DOMNodeE
libxerces-c-3.1.so:_ZN11xercesc_3_117DOMTreeWalkerImpl13getParentNodeEPNS_7DOMNodeE
libxerces-c-3.1.so:_ZN11xercesc_3_117DOMTreeWalkerImpl13getWhatToShowEv
libxerces-c-3.1.so:_ZN11xercesc_3_117DOMTreeWalkerImpl14getCurrentNodeEv
libxerces-c-3.1.so:_ZN11xercesc_3_117DOMTreeWalkerImpl14getNextSiblingEPNS_7DOMNodeE
libxerces-c-3.1.so:_ZN11xercesc_3_117DOMTreeWalkerImpl14setCurrentNodeEPNS_7DOMNodeE
libxerces-c-3.1.so:_ZN11xercesc_3_117DOMTreeWalkerImpl15previousSiblingEv
libxerces-c-3.1.so:_ZN11xercesc_3_117DOMTreeWalkerImpl18getPreviousSiblingEPNS_7DOMNodeE
libxerces-c-3.1.so:_ZN11xercesc_3_117DOMTreeWalkerImpl25getExpandEntityReferencesEv
libxerces-c-3.1.so:_ZN11xercesc_3_117DOMTreeWalkerImpl7getRootEv
libxerces-c-3.1.so:_ZN11xercesc_3_117DOMTreeWalkerImpl7releaseEv
libxerces-c-3.1.so:_ZN11xercesc_3_117DOMTreeWalkerImpl8nextNodeEv
libxerces-c-3.1.so:_ZN11xercesc_3_117DOMTreeWalkerImpl9getFilterEv
libxerces-c-3.1.so:_ZN11xercesc_3_117DOMTreeWalkerImpl9lastChildEv
libxerces-c-3.1.so:_ZN11xercesc_3_117DOMTreeWalkerImplC1EPNS_7DOMNodeEmPNS_13DOMNodeFilterEb
libxerces-c-3.1.so:_ZN11xercesc_3_117DOMTreeWalkerImplC1ERKS0_
libxerces-c-3.1.so:_ZN11xercesc_3_117DOMTreeWalkerImplC2EPNS_7DOMNodeEmPNS_13DOMNodeFilterEb
libxerces-c-3.1.so:_ZN11xercesc_3_117DOMTreeWalkerImplC2ERKS0_
libxerces-c-3.1.so:_ZN11xercesc_3_117DOMTreeWalkerImplaSERKS0_
libxerces-c-3.1.so:_ZN11xercesc_3_117DOMXPathExceptionC1ERKS0_
libxerces-c-3.1.so:_ZN11xercesc_3_117DOMXPathExceptionC1EssPNS_13MemoryManagerE
libxerces-c-3.1.so:_ZN11xercesc_3_117DOMXPathExceptionC1Ev
libxerces-c-3.1.so:_ZN11xercesc_3_117DOMXPathExceptionC2ERKS0_
libxerces-c-3.1.so:_ZN11xercesc_3_117DOMXPathExceptionC2EssPNS_13MemoryManagerE
libxerces-c-3.1.so:_ZN11xercesc_3_117DOMXPathExceptionC2Ev
libxerces-c-3.1.so:_ZN11xercesc_3_117DOMXPathExceptionD0Ev
libxerces-c-3.1.so:_ZN11xercesc_3_117DOMXPathExceptionD1Ev
libxerces-c-3.1.so:_ZN11xercesc_3_117DOMXPathExceptionD2Ev
libxerces-c-3.1.so:_ZN11xercesc_3_117DatatypeValidator11setTypeNameEPKt
libxerces-c-3.1.so:_ZN11xercesc_3_117DatatypeValidator11setTypeNameEPKtS2_
libxerces-c-3.1.so:_ZN11xercesc_3_117DatatypeValidator12createObjectEPNS_13MemoryManagerE
libxerces-c-3.1.so:_ZN11xercesc_3_117DatatypeValidator6loadDVERNS_16XSerializeEngineE
libxerces-c-3.1.so:_ZN11xercesc_3_117DatatypeValidator7cleanUpEv
libxerces-c-3.1.so:_ZN11xercesc_3_117DatatypeValidator7storeDVERNS_16XSerializeEngineEPS0_
libxerces-c-3.1.so:_ZN11xercesc_3_117DatatypeValidator9serializeERNS_16XSerializeEngineE
libxerces-c-3.1.so:_ZN11xercesc_3_117DatatypeValidatorC1EPS0_PNS_14RefHashTableOfINS_12KVStringPairENS_12StringHasherEEEiNS0_13ValidatorTypeEPNS_13MemoryManagerE
libxerces-c-3.1.so:_ZN11xercesc_3_117DatatypeValidatorC2EPS0_PNS_14RefHashTableOfINS_12KVStringPairENS_12StringHasherEEEiNS0_13ValidatorTypeEPNS_13MemoryManagerE
libxerces-c-3.1.so:_ZN11xercesc_3_117DatatypeValidatorD0Ev
libxerces-c-3.1.so:_ZN11xercesc_3_117DatatypeValidatorD1Ev
libxerces-c-3.1.so:_ZN11xercesc_3_117DatatypeValidatorD2Ev
libxerces-c-3.1.so:_ZN11xercesc_3_117DateTimeValidator12checkContentEPKtPNS_17ValidationContextEbPNS_13MemoryManagerE
libxerces-c-3.1.so:_ZN11xercesc_3_117DateTimeValidator12compareDatesEPKNS_11XMLDateTimeES3_b
libxerces-c-3.1.so:_ZN11xercesc_3_117DateTimeValidator12createObjectEPNS_13MemoryManagerE
libxerces-c-3.1.so:_ZN11xercesc_3_117DateTimeValidator13compareValuesEPKNS_9XMLNumberES3_
libxerces-c-3.1.so:_ZN11xercesc_3_117DateTimeValidator14setEnumerationEPNS_13MemoryManagerE
libxerces-c-3.1.so:_ZN11xercesc_3_117DateTimeValidator15setMaxExclusiveEPKt
libxerces-c-3.1.so:_ZN11xercesc_3_117DateTimeValidator15setMaxInclusiveEPKt
libxerces-c-3.1.so:_ZN11xercesc_3_117DateTimeValidator15setMinExclusiveEPKt
libxerces-c-3.1.so:_ZN11xercesc_3_117DateTimeValidator15setMinInclusiveEPKt
libxerces-c-3.1.so:_ZN11xercesc_3_117DateTimeValidator7compareEPKtS2_PNS_13MemoryManagerE
libxerces-c-3.1.so:_ZN11xercesc_3_117DateTimeValidator8validateEPKtPNS_17ValidationContextEPNS_13MemoryManagerE
libxerces-c-3.1.so:_ZN11xercesc_3_117DateTimeValidator9serializeERNS_16XSerializeEngineE
libxerces-c-3.1.so:_ZN11xercesc_3_117DateTimeValidatorC1EPNS_17DatatypeValidatorEPNS_14RefHashTableOfINS_12KVStringPairENS_12StringHasherEEEiNS1_13ValidatorTypeEPNS_13MemoryManagerE
libxerces-c-3.1.so:_ZN11xercesc_3_117DateTimeValidatorC2EPNS_17DatatypeValidatorEPNS_14RefHashTableOfINS_12KVStringPairENS_12StringHasherEEEiNS1_13ValidatorTypeEPNS_13MemoryManagerE
libxerces-c-3.1.so:_ZN11xercesc_3_117DateTimeValidatorD0Ev
libxerces-c-3.1.so:_ZN11xercesc_3_117DateTimeValidatorD1Ev
libxerces-c-3.1.so:_ZN11xercesc_3_117DateTimeValidatorD2Ev
libxerces-c-3.1.so:_ZN11xercesc_3_117EncodingValidator15isValidEncodingEPKt
libxerces-c-3.1.so:_ZN11xercesc_3_117EncodingValidator18initializeRegistryEv
libxerces-c-3.1.so:_ZN11xercesc_3_117EncodingValidator8instanceEv
libxerces-c-3.1.so:_ZN11xercesc_3_117EncodingValidatorC1Ev
libxerces-c-3.1.so:_ZN11xercesc_3_117EncodingValidatorC2Ev
libxerces-c-3.1.so:_ZN11xercesc_3_117EncodingValidatorD1Ev
libxerces-c-3.1.so:_ZN11xercesc_3_117EncodingValidatorD2Ev
libxerces-c-3.1.so:_ZN11xercesc_3_117MemBufInputSource22resetMemBufInputSourceEPKhm
libxerces-c-3.1.so:_ZN11xercesc_3_117MemBufInputSourceC1EPKhmPKcbPNS_13MemoryManagerE
libxerces-c-3.1.so:_ZN11xercesc_3_117MemBufInputSourceC1EPKhmPKtbPNS_13MemoryManagerE
libxerces-c-3.1.so:_ZN11xercesc_3_117MemBufInputSourceC2EPKhmPKcbPNS_13MemoryManagerE
libxerces-c-3.1.so:_ZN11xercesc_3_117MemBufInputSourceC2EPKhmPKtbPNS_13MemoryManagerE
libxerces-c-3.1.so:_ZN11xercesc_3_117MemBufInputSourceD0Ev
libxerces-c-3.1.so:_ZN11xercesc_3_117MemBufInputSourceD1Ev
libxerces-c-3.1.so:_ZN11xercesc_3_117MemBufInputSourceD2Ev
libxerces-c-3.1.so:_ZN11xercesc_3_117MemoryManagerImpl10deallocateEPv
libxerces-c-3.1.so:_ZN11xercesc_3_117MemoryManagerImpl25getExceptionMemoryManagerEv
libxerces-c-3.1.so:_ZN11xercesc_3_117MemoryManagerImpl8allocateEm
libxerces-c-3.1.so:_ZN11xercesc_3_117MixedContentModel14buildChildListEPNS_15ContentSpecNodeERNS_13ValueVectorOfIPNS_5QNameEEERNS3_INS1_9NodeTypesEEE
libxerces-c-3.1.so:_ZN11xercesc_3_117MixedContentModelC1EbPNS_15ContentSpecNodeEbPNS_13MemoryManagerE
libxerces-c-3.1.so:_ZN11xercesc_3_117MixedContentModelC2EbPNS_15ContentSpecNodeEbPNS_13MemoryManagerE
libxerces-c-3.1.so:_ZN11xercesc_3_117MixedContentModelD0Ev
libxerces-c-3.1.so:_ZN11xercesc_3_117MixedContentModelD1Ev
libxerces-c-3.1.so:_ZN11xercesc_3_117MixedContentModelD2Ev
libxerces-c-3.1.so:_ZN11xercesc_3_117PSVIAttributeList22getAttributePSVIByNameEPKtS2_
libxerces-c-3.1.so:_ZN11xercesc_3_117PSVIAttributeList23getAttributeNameAtIndexEm
libxerces-c-3.1.so:_ZN11xercesc_3_117PSVIAttributeList23getAttributePSVIAtIndexEm
libxerces-c-3.1.so:_ZN11xercesc_3_117PSVIAttributeList28getAttributeNamespaceAtIndexEm
libxerces-c-3.1.so:_ZN11xercesc_3_117PSVIAttributeListC1EPNS_13MemoryManagerE
libxerces-c-3.1.so:_ZN11xercesc_3_117PSVIAttributeListC2EPNS_13MemoryManagerE
libxerces-c-3.1.so:_ZN11xercesc_3_117RangeTokenElemMapC1Ej
libxerces-c-3.1.so:_ZN11xercesc_3_117RangeTokenElemMapC2Ej
libxerces-c-3.1.so:_ZN11xercesc_3_117RangeTokenElemMapD1Ev
libxerces-c-3.1.so:_ZN11xercesc_3_117RangeTokenElemMapD2Ev
libxerces-c-3.1.so:_ZN11xercesc_3_117RegularExpression10setPatternEPKtS2_
libxerces-c-3.1.so:_ZN11xercesc_3_117RegularExpression12parseOptionsEPKt
libxerces-c-3.1.so:_ZN11xercesc_3_117RegularExpression14doTokenOverlapEPKNS_2OpEPNS_5TokenE
libxerces-c-3.1.so:_ZN11xercesc_3_117RegularExpression14getOptionValueEt
libxerces-c-3.1.so:_ZN11xercesc_3_117RegularExpression14getRegexParserEiPNS_13MemoryManagerE
libxerces-c-3.1.so:_ZN11xercesc_3_117RegularExpression16staticInitializeEPNS_13MemoryManagerE
libxerces-c-3.1.so:_ZN11xercesc_3_117RegularExpression7Context5resetEPKtmmmij
libxerces-c-3.1.so:_ZN11xercesc_3_117RegularExpression7Context6nextChERiRm
libxerces-c-3.1.so:_ZN11xercesc_3_117RegularExpression7ContextC1EPNS_13MemoryManagerE
libxerces-c-3.1.so:_ZN11xercesc_3_117RegularExpression7ContextC1EPS1_
libxerces-c-3.1.so:_ZN11xercesc_3_117RegularExpression7ContextC2EPNS_13MemoryManagerE
libxerces-c-3.1.so:_ZN11xercesc_3_117RegularExpression7ContextC2EPS1_
libxerces-c-3.1.so:_ZN11xercesc_3_117RegularExpression7ContextD1Ev
libxerces-c-3.1.so:_ZN11xercesc_3_117RegularExpression7ContextD2Ev
libxerces-c-3.1.so:_ZN11xercesc_3_117RegularExpression7ContextaSERKS1_
libxerces-c-3.1.so:_ZN11xercesc_3_117RegularExpression7compileEPKNS_5TokenE
libxerces-c-3.1.so:_ZN11xercesc_3_117RegularExpression7compileEPKNS_5TokenEPNS_2OpEb
libxerces-c-3.1.so:_ZN11xercesc_3_117RegularExpression7prepareEv
libxerces-c-3.1.so:_ZN11xercesc_3_117RegularExpressionC1EPKcPNS_13MemoryManagerE
libxerces-c-3.1.so:_ZN11xercesc_3_117RegularExpressionC1EPKcS2_PNS_13MemoryManagerE
libxerces-c-3.1.so:_ZN11xercesc_3_117RegularExpressionC1EPKtPNS_13MemoryManagerE
libxerces-c-3.1.so:_ZN11xercesc_3_117RegularExpressionC1EPKtS2_PNS_13MemoryManagerE
libxerces-c-3.1.so:_ZN11xercesc_3_117RegularExpressionC2EPKcPNS_13MemoryManagerE
libxerces-c-3.1.so:_ZN11xercesc_3_117RegularExpressionC2EPKcS2_PNS_13MemoryManagerE
libxerces-c-3.1.so:_ZN11xercesc_3_117RegularExpressionC2EPKtPNS_13MemoryManagerE
libxerces-c-3.1.so:_ZN11xercesc_3_117RegularExpressionC2EPKtS2_PNS_13MemoryManagerE
libxerces-c-3.1.so:_ZN11xercesc_3_117RegularExpressionD0Ev
libxerces-c-3.1.so:_ZN11xercesc_3_117RegularExpressionD1Ev
libxerces-c-3.1.so:_ZN11xercesc_3_117RegularExpressionD2Ev
libxerces-c-3.1.so:_ZN11xercesc_3_117SAX2XMLFilterImpl10charactersEPKtm
libxerces-c-3.1.so:_ZN11xercesc_3_117SAX2XMLFilterImpl10endElementEPKtS2_S2_
libxerces-c-3.1.so:_ZN11xercesc_3_117SAX2XMLFilterImpl10fatalErrorERKNS_17SAXParseExceptionE
libxerces-c-3.1.so:_ZN11xercesc_3_117SAX2XMLFilterImpl10getGrammarEPKt
libxerces-c-3.1.so:_ZN11xercesc_3_117SAX2XMLFilterImpl10parseFirstEPKcRNS_13XMLPScanTokenE
libxerces-c-3.1.so:_ZN11xercesc_3_117SAX2XMLFilterImpl10parseFirstEPKtRNS_13XMLPScanTokenE
libxerces-c-3.1.so:_ZN11xercesc_3_117SAX2XMLFilterImpl10parseFirstERKNS_11InputSourceERNS_13XMLPScanTokenE
libxerces-c-3.1.so:_ZN11xercesc_3_117SAX2XMLFilterImpl10parseResetERNS_13XMLPScanTokenE
libxerces-c-3.1.so:_ZN11xercesc_3_117SAX2XMLFilterImpl10setFeatureEPKtb
libxerces-c-3.1.so:_ZN11xercesc_3_117SAX2XMLFilterImpl11endDocumentEv
libxerces-c-3.1.so:_ZN11xercesc_3_117SAX2XMLFilterImpl11loadGrammarEPKcNS_7Grammar11GrammarTypeEb
libxerces-c-3.1.so:_ZN11xercesc_3_117SAX2XMLFilterImpl11loadGrammarEPKtNS_7Grammar11GrammarTypeEb
libxerces-c-3.1.so:_ZN11xercesc_3_117SAX2XMLFilterImpl11loadGrammarERKNS_11InputSourceENS_7Grammar11GrammarTypeEb
libxerces-c-3.1.so:_ZN11xercesc_3_117SAX2XMLFilterImpl11resetErrorsEv
libxerces-c-3.1.so:_ZN11xercesc_3_117SAX2XMLFilterImpl11setPropertyEPKtPv
libxerces-c-3.1.so:_ZN11xercesc_3_117SAX2XMLFilterImpl12notationDeclEPKtS2_S2_
libxerces-c-3.1.so:_ZN11xercesc_3_117SAX2XMLFilterImpl12resetDocTypeEv
libxerces-c-3.1.so:_ZN11xercesc_3_117SAX2XMLFilterImpl12setValidatorEPNS_12XMLValidatorE
libxerces-c-3.1.so:_ZN11xercesc_3_117SAX2XMLFilterImpl12startElementEPKtS2_S2_RKNS_10AttributesE
libxerces-c-3.1.so:_ZN11xercesc_3_117SAX2XMLFilterImpl13resolveEntityEPKtS2_
libxerces-c-3.1.so:_ZN11xercesc_3_117SAX2XMLFilterImpl13skippedEntityEPKt
libxerces-c-3.1.so:_ZN11xercesc_3_117SAX2XMLFilterImpl13startDocumentEv
libxerces-c-3.1.so:_ZN11xercesc_3_117SAX2XMLFilterImpl14getRootGrammarEv
libxerces-c-3.1.so:_ZN11xercesc_3_117SAX2XMLFilterImpl16endPrefixMappingEPKt
libxerces-c-3.1.so:_ZN11xercesc_3_117SAX2XMLFilterImpl18setDocumentLocatorEPKNS_7LocatorE
libxerces-c-3.1.so:_ZN11xercesc_3_117SAX2XMLFilterImpl18setInputBufferSizeEm
libxerces-c-3.1.so:_ZN11xercesc_3_117SAX2XMLFilterImpl18startPrefixMappingEPKtS2_
libxerces-c-3.1.so:_ZN11xercesc_3_117SAX2XMLFilterImpl18unparsedEntityDeclEPKtS2_S2_S2_
libxerces-c-3.1.so:_ZN11xercesc_3_117SAX2XMLFilterImpl19ignorableWhitespaceEPKtm
libxerces-c-3.1.so:_ZN11xercesc_3_117SAX2XMLFilterImpl21processingInstructionEPKtS2_
libxerces-c-3.1.so:_ZN11xercesc_3_117SAX2XMLFilterImpl22resetCachedGrammarPoolEv
libxerces-c-3.1.so:_ZN11xercesc_3_117SAX2XMLFilterImpl24setExitOnFirstFatalErrorEb
libxerces-c-3.1.so:_ZN11xercesc_3_117SAX2XMLFilterImpl28setValidationConstraintFatalEb
libxerces-c-3.1.so:_ZN11xercesc_3_117SAX2XMLFilterImpl5errorERKNS_17SAXParseExceptionE
libxerces-c-3.1.so:_ZN11xercesc_3_117SAX2XMLFilterImpl5parseEPKc
libxerces-c-3.1.so:_ZN11xercesc_3_117SAX2XMLFilterImpl5parseEPKt
libxerces-c-3.1.so:_ZN11xercesc_3_117SAX2XMLFilterImpl5parseERKNS_11InputSourceE
libxerces-c-3.1.so:_ZN11xercesc_3_117SAX2XMLFilterImpl7warningERKNS_17SAXParseExceptionE
libxerces-c-3.1.so:_ZN11xercesc_3_117SAX2XMLFilterImpl9parseNextERNS_13XMLPScanTokenE
libxerces-c-3.1.so:_ZN11xercesc_3_117SAX2XMLFilterImpl9setParentEPNS_13SAX2XMLReaderE
libxerces-c-3.1.so:_ZN11xercesc_3_117SAX2XMLFilterImplC1EPNS_13SAX2XMLReaderE
libxerces-c-3.1.so:_ZN11xercesc_3_117SAX2XMLFilterImplC2EPNS_13SAX2XMLReaderE
libxerces-c-3.1.so:_ZN11xercesc_3_117SAX2XMLFilterImplD0Ev
libxerces-c-3.1.so:_ZN11xercesc_3_117SAX2XMLFilterImplD1Ev
libxerces-c-3.1.so:_ZN11xercesc_3_117SAX2XMLFilterImplD2Ev
libxerces-c-3.1.so:_ZN11xercesc_3_117SAX2XMLReaderImpl10docCommentEPKt
libxerces-c-3.1.so:_ZN11xercesc_3_117SAX2XMLReaderImpl10endAttListERKNS_14DTDElementDeclE
libxerces-c-3.1.so:_ZN11xercesc_3_117SAX2XMLReaderImpl10endElementERKNS_14XMLElementDeclEjbPKt
libxerces-c-3.1.so:_ZN11xercesc_3_117SAX2XMLReaderImpl10entityDeclERKNS_13DTDEntityDeclEbb
libxerces-c-3.1.so:_ZN11xercesc_3_117SAX2XMLReaderImpl10getGrammarEPKt
libxerces-c-3.1.so:_ZN11xercesc_3_117SAX2XMLReaderImpl10initializeEv
libxerces-c-3.1.so:_ZN11xercesc_3_117SAX2XMLReaderImpl10parseFirstEPKcRNS_13XMLPScanTokenE
libxerces-c-3.1.so:_ZN11xercesc_3_117SAX2XMLReaderImpl10parseFirstEPKtRNS_13XMLPScanTokenE
libxerces-c-3.1.so:_ZN11xercesc_3_117SAX2XMLReaderImpl10parseFirstERKNS_11InputSourceERNS_13XMLPScanTokenE
libxerces-c-3.1.so:_ZN11xercesc_3_117SAX2XMLReaderImpl10parseResetERNS_13XMLPScanTokenE
libxerces-c-3.1.so:_ZN11xercesc_3_117SAX2XMLReaderImpl10setFeatureEPKtb
libxerces-c-3.1.so:_ZN11xercesc_3_117SAX2XMLReaderImpl11doctypeDeclERKNS_14DTDElementDeclEPKtS5_bb
libxerces-c-3.1.so:_ZN11xercesc_3_117SAX2XMLReaderImpl11elementDeclERKNS_14DTDElementDeclEb
libxerces-c-3.1.so:_ZN11xercesc_3_117SAX2XMLReaderImpl11endDocumentEv
libxerces-c-3.1.so:_ZN11xercesc_3_117SAX2XMLReaderImpl11loadGrammarEPKcNS_7Grammar11GrammarTypeEb
libxerces-c-3.1.so:_ZN11xercesc_3_117SAX2XMLReaderImpl11loadGrammarEPKtNS_7Grammar11GrammarTypeEb
libxerces-c-3.1.so:_ZN11xercesc_3_117SAX2XMLReaderImpl11loadGrammarERKNS_11InputSourceENS_7Grammar11GrammarTypeEb
libxerces-c-3.1.so:_ZN11xercesc_3_117SAX2XMLReaderImpl11resetErrorsEv
libxerces-c-3.1.so:_ZN11xercesc_3_117SAX2XMLReaderImpl11setDoSchemaEb
libxerces-c-3.1.so:_ZN11xercesc_3_117SAX2XMLReaderImpl11setPropertyEPKtPv
libxerces-c-3.1.so:_ZN11xercesc_3_117SAX2XMLReaderImpl12endExtSubsetEv
libxerces-c-3.1.so:_ZN11xercesc_3_117SAX2XMLReaderImpl12endIntSubsetEv
libxerces-c-3.1.so:_ZN11xercesc_3_117SAX2XMLReaderImpl12notationDeclERKNS_15XMLNotationDeclEb
libxerces-c-3.1.so:_ZN11xercesc_3_117SAX2XMLReaderImpl12resetDocTypeEv
libxerces-c-3.1.so:_ZN11xercesc_3_117SAX2XMLReaderImpl12setValidatorEPNS_12XMLValidatorE
libxerces-c-3.1.so:_ZN11xercesc_3_117SAX2XMLReaderImpl12startAttListERKNS_14DTDElementDeclE
libxerces-c-3.1.so:_ZN11xercesc_3_117SAX2XMLReaderImpl12startElementERKNS_14XMLElementDeclEjPKtRKNS_11RefVectorOfINS_7XMLAttrEEEmbb
libxerces-c-3.1.so:_ZN11xercesc_3_117SAX2XMLReaderImpl13docCharactersEPKtmb
libxerces-c-3.1.so:_ZN11xercesc_3_117SAX2XMLReaderImpl13resetDocumentEv
libxerces-c-3.1.so:_ZN11xercesc_3_117SAX2XMLReaderImpl13resetEntitiesEv
libxerces-c-3.1.so:_ZN11xercesc_3_117SAX2XMLReaderImpl13resolveEntityEPNS_21XMLResourceIdentifierE
libxerces-c-3.1.so:_ZN11xercesc_3_117SAX2XMLReaderImpl13setDTDHandlerEPNS_10DTDHandlerE
libxerces-c-3.1.so:_ZN11xercesc_3_117SAX2XMLReaderImpl13startDocumentEv
libxerces-c-3.1.so:_ZN11xercesc_3_117SAX2XMLReaderImpl14doctypeCommentEPKt
libxerces-c-3.1.so:_ZN11xercesc_3_117SAX2XMLReaderImpl14endInputSourceERKNS_11InputSourceE
libxerces-c-3.1.so:_ZN11xercesc_3_117SAX2XMLReaderImpl14expandSystemIdEPKtRNS_9XMLBufferE
libxerces-c-3.1.so:_ZN11xercesc_3_117SAX2XMLReaderImpl14setPSVIHandlerEPNS_11PSVIHandlerE
libxerces-c-3.1.so:_ZN11xercesc_3_117SAX2XMLReaderImpl14startExtSubsetEv
libxerces-c-3.1.so:_ZN11xercesc_3_117SAX2XMLReaderImpl14startIntSubsetEv
libxerces-c-3.1.so:_ZN11xercesc_3_117SAX2XMLReaderImpl15resetInProgressEv
libxerces-c-3.1.so:_ZN11xercesc_3_117SAX2XMLReaderImpl15setDoNamespacesEb
libxerces-c-3.1.so:_ZN11xercesc_3_117SAX2XMLReaderImpl15setErrorHandlerEPNS_12ErrorHandlerE
libxerces-c-3.1.so:_ZN11xercesc_3_117SAX2XMLReaderImpl16startInputSourceERKNS_11InputSourceE
libxerces-c-3.1.so:_ZN11xercesc_3_117SAX2XMLReaderImpl17doctypeWhitespaceEPKtm
libxerces-c-3.1.so:_ZN11xercesc_3_117SAX2XMLReaderImpl17setContentHandlerEPNS_14ContentHandlerE
libxerces-c-3.1.so:_ZN11xercesc_3_117SAX2XMLReaderImpl17setEntityResolverEPNS_14EntityResolverE
libxerces-c-3.1.so:_ZN11xercesc_3_117SAX2XMLReaderImpl17setLexicalHandlerEPNS_14LexicalHandlerE
libxerces-c-3.1.so:_ZN11xercesc_3_117SAX2XMLReaderImpl18endEntityReferenceERKNS_13XMLEntityDeclE
libxerces-c-3.1.so:_ZN11xercesc_3_117SAX2XMLReaderImpl18setInputBufferSizeEm
libxerces-c-3.1.so:_ZN11xercesc_3_117SAX2XMLReaderImpl19ignorableWhitespaceEPKtmb
libxerces-c-3.1.so:_ZN11xercesc_3_117SAX2XMLReaderImpl19removeAdvDocHandlerEPNS_18XMLDocumentHandlerE
libxerces-c-3.1.so:_ZN11xercesc_3_117SAX2XMLReaderImpl19setValidationSchemeENS_13SAX2XMLReader10ValSchemesE
libxerces-c-3.1.so:_ZN11xercesc_3_117SAX2XMLReaderImpl20installAdvDocHandlerEPNS_18XMLDocumentHandlerE
libxerces-c-3.1.so:_ZN11xercesc_3_117SAX2XMLReaderImpl20setXMLEntityResolverEPNS_17XMLEntityResolverE
libxerces-c-3.1.so:_ZN11xercesc_3_117SAX2XMLReaderImpl20startEntityReferenceERKNS_13XMLEntityDeclE
libxerces-c-3.1.so:_ZN11xercesc_3_117SAX2XMLReaderImpl21setDeclarationHandlerEPNS_11DeclHandlerE
libxerces-c-3.1.so:_ZN11xercesc_3_117SAX2XMLReaderImpl22resetCachedGrammarPoolEv
libxerces-c-3.1.so:_ZN11xercesc_3_117SAX2XMLReaderImpl24setExitOnFirstFatalErrorEb
libxerces-c-3.1.so:_ZN11xercesc_3_117SAX2XMLReaderImpl28setValidationConstraintFatalEb
libxerces-c-3.1.so:_ZN11xercesc_3_117SAX2XMLReaderImpl5docPIEPKtS2_
libxerces-c-3.1.so:_ZN11xercesc_3_117SAX2XMLReaderImpl5errorEjPKtNS_16XMLErrorReporter8ErrTypesES2_S2_S2_mm
libxerces-c-3.1.so:_ZN11xercesc_3_117SAX2XMLReaderImpl5parseEPKc
libxerces-c-3.1.so:_ZN11xercesc_3_117SAX2XMLReaderImpl5parseEPKt
libxerces-c-3.1.so:_ZN11xercesc_3_117SAX2XMLReaderImpl5parseERKNS_11InputSourceE
libxerces-c-3.1.so:_ZN11xercesc_3_117SAX2XMLReaderImpl6attDefERKNS_14DTDElementDeclERKNS_9DTDAttDefEb
libxerces-c-3.1.so:_ZN11xercesc_3_117SAX2XMLReaderImpl7XMLDeclEPKtS2_S2_S2_
libxerces-c-3.1.so:_ZN11xercesc_3_117SAX2XMLReaderImpl7cleanUpEv
libxerces-c-3.1.so:_ZN11xercesc_3_117SAX2XMLReaderImpl8TextDeclEPKtS2_
libxerces-c-3.1.so:_ZN11xercesc_3_117SAX2XMLReaderImpl9doctypePIEPKtS2_
libxerces-c-3.1.so:_ZN11xercesc_3_117SAX2XMLReaderImpl9parseNextERNS_13XMLPScanTokenE
libxerces-c-3.1.so:_ZN11xercesc_3_117SAX2XMLReaderImplC1EPNS_13MemoryManagerEPNS_14XMLGrammarPoolE
libxerces-c-3.1.so:_ZN11xercesc_3_117SAX2XMLReaderImplC2EPNS_13MemoryManagerEPNS_14XMLGrammarPoolE
libxerces-c-3.1.so:_ZN11xercesc_3_117SAX2XMLReaderImplD0Ev
libxerces-c-3.1.so:_ZN11xercesc_3_117SAX2XMLReaderImplD1Ev
libxerces-c-3.1.so:_ZN11xercesc_3_117SAX2XMLReaderImplD2Ev
libxerces-c-3.1.so:_ZN11xercesc_3_117SAXParseExceptionC1EPKtRKNS_7LocatorEPNS_13MemoryManagerE
libxerces-c-3.1.so:_ZN11xercesc_3_117SAXParseExceptionC1EPKtS2_S2_mmPNS_13MemoryManagerE
libxerces-c-3.1.so:_ZN11xercesc_3_117SAXParseExceptionC1ERKS0_
libxerces-c-3.1.so:_ZN11xercesc_3_117SAXParseExceptionC2EPKtRKNS_7LocatorEPNS_13MemoryManagerE
libxerces-c-3.1.so:_ZN11xercesc_3_117SAXParseExceptionC2EPKtS2_S2_mmPNS_13MemoryManagerE
libxerces-c-3.1.so:_ZN11xercesc_3_117SAXParseExceptionC2ERKS0_
libxerces-c-3.1.so:_ZN11xercesc_3_117SAXParseExceptionD0Ev
libxerces-c-3.1.so:_ZN11xercesc_3_117SAXParseExceptionD1Ev
libxerces-c-3.1.so:_ZN11xercesc_3_117SAXParseExceptionD2Ev
libxerces-c-3.1.so:_ZN11xercesc_3_117SAXParseExceptionaSERKS0_
libxerces-c-3.1.so:_ZN11xercesc_3_117SchemaElementDecl12createObjectEPNS_13MemoryManagerE
libxerces-c-3.1.so:_ZN11xercesc_3_117SchemaElementDecl9getAttDefEPKti
libxerces-c-3.1.so:_ZN11xercesc_3_117SchemaElementDecl9serializeERNS_16XSerializeEngineE
libxerces-c-3.1.so:_ZN11xercesc_3_117SchemaElementDeclC1EPKNS_5QNameENS0_10ModelTypesEjPNS_13MemoryManagerE
libxerces-c-3.1.so:_ZN11xercesc_3_117SchemaElementDeclC1EPKtS2_iNS0_10ModelTypesEjPNS_13MemoryManagerE
libxerces-c-3.1.so:_ZN11xercesc_3_117SchemaElementDeclC1EPNS_13MemoryManagerE
libxerces-c-3.1.so:_ZN11xercesc_3_117SchemaElementDeclC2EPKNS_5QNameENS0_10ModelTypesEjPNS_13MemoryManagerE
libxerces-c-3.1.so:_ZN11xercesc_3_117SchemaElementDeclC2EPKtS2_iNS0_10ModelTypesEjPNS_13MemoryManagerE
libxerces-c-3.1.so:_ZN11xercesc_3_117SchemaElementDeclC2EPNS_13MemoryManagerE
libxerces-c-3.1.so:_ZN11xercesc_3_117SchemaElementDeclD0Ev
libxerces-c-3.1.so:_ZN11xercesc_3_117SchemaElementDeclD1Ev
libxerces-c-3.1.so:_ZN11xercesc_3_117SchemaElementDeclD2Ev
libxerces-c-3.1.so:_ZN11xercesc_3_117VecAttributesImpl9setVectorEPKNS_11RefVectorOfINS_7XMLAttrEEEmPKNS_10XMLScannerEb
libxerces-c-3.1.so:_ZN11xercesc_3_117VecAttributesImplC1Ev
libxerces-c-3.1.so:_ZN11xercesc_3_117VecAttributesImplC2Ev
libxerces-c-3.1.so:_ZN11xercesc_3_117VecAttributesImplD0Ev
libxerces-c-3.1.so:_ZN11xercesc_3_117VecAttributesImplD1Ev
libxerces-c-3.1.so:_ZN11xercesc_3_117VecAttributesImplD2Ev
libxerces-c-3.1.so:_ZN11xercesc_3_117XMLDTDDescription12createObjectEPNS_13MemoryManagerE
libxerces-c-3.1.so:_ZN11xercesc_3_117XMLDTDDescription9serializeERNS_16XSerializeEngineE
libxerces-c-3.1.so:_ZN11xercesc_3_117XMLDTDDescriptionC1EPNS_13MemoryManagerE
libxerces-c-3.1.so:_ZN11xercesc_3_117XMLDTDDescriptionC2EPNS_13MemoryManagerE
libxerces-c-3.1.so:_ZN11xercesc_3_117XMLDTDDescriptionD0Ev
libxerces-c-3.1.so:_ZN11xercesc_3_117XMLDTDDescriptionD1Ev
libxerces-c-3.1.so:_ZN11xercesc_3_117XMLDTDDescriptionD2Ev
libxerces-c-3.1.so:_ZN11xercesc_3_117XMLUCS4Transcoder11transcodeToEPKtmPhmRmNS_13XMLTranscoder9UnRepOptsE
libxerces-c-3.1.so:_ZN11xercesc_3_117XMLUCS4Transcoder13transcodeFromEPKhmPtmRmPh
libxerces-c-3.1.so:_ZN11xercesc_3_117XMLUCS4Transcoder14canTranscodeToEj
libxerces-c-3.1.so:_ZN11xercesc_3_117XMLUCS4TranscoderC1EPKtmbPNS_13MemoryManagerE
libxerces-c-3.1.so:_ZN11xercesc_3_117XMLUCS4TranscoderC2EPKtmbPNS_13MemoryManagerE
libxerces-c-3.1.so:_ZN11xercesc_3_117XMLUCS4TranscoderD0Ev
libxerces-c-3.1.so:_ZN11xercesc_3_117XMLUCS4TranscoderD1Ev
libxerces-c-3.1.so:_ZN11xercesc_3_117XMLUCS4TranscoderD2Ev
libxerces-c-3.1.so:_ZN11xercesc_3_117XMLUTF8Transcoder11transcodeToEPKtmPhmRmNS_13XMLTranscoder9UnRepOptsE
libxerces-c-3.1.so:_ZN11xercesc_3_117XMLUTF8Transcoder13transcodeFromEPKhmPtmRmPh
libxerces-c-3.1.so:_ZN11xercesc_3_117XMLUTF8Transcoder14canTranscodeToEj
libxerces-c-3.1.so:_ZN11xercesc_3_117XMLUTF8TranscoderC1EPKtmPNS_13MemoryManagerE
libxerces-c-3.1.so:_ZN11xercesc_3_117XMLUTF8TranscoderC2EPKtmPNS_13MemoryManagerE
libxerces-c-3.1.so:_ZN11xercesc_3_117XMLUTF8TranscoderD0Ev
libxerces-c-3.1.so:_ZN11xercesc_3_117XMLUTF8TranscoderD1Ev
libxerces-c-3.1.so:_ZN11xercesc_3_117XMLUTF8TranscoderD2Ev
libxerces-c-3.1.so:_ZN11xercesc_3_117XPathMatcherStack5clearEv
libxerces-c-3.1.so:_ZN11xercesc_3_117XPathMatcherStack7cleanUpEv
libxerces-c-3.1.so:_ZN11xercesc_3_117XPathMatcherStackC1EPNS_13MemoryManagerE
libxerces-c-3.1.so:_ZN11xercesc_3_117XPathMatcherStackC2EPNS_13MemoryManagerE
libxerces-c-3.1.so:_ZN11xercesc_3_117XPathMatcherStackD1Ev
libxerces-c-3.1.so:_ZN11xercesc_3_117XPathMatcherStackD2Ev
libxerces-c-3.1.so:_ZN11xercesc_3_117XSMultiValueFacetC1ENS_22XSSimpleTypeDefinition5FACETEPNS_16RefArrayVectorOfItEEbPNS_12XSAnnotationEPNS_7XSModelEPNS_13MemoryManagerE
libxerces-c-3.1.so:_ZN11xercesc_3_117XSMultiValueFacetC2ENS_22XSSimpleTypeDefinition5FACETEPNS_16RefArrayVectorOfItEEbPNS_12XSAnnotationEPNS_7XSModelEPNS_13MemoryManagerE
libxerces-c-3.1.so:_ZN11xercesc_3_117XSMultiValueFacetD0Ev
libxerces-c-3.1.so:_ZN11xercesc_3_117XSMultiValueFacetD1Ev
libxerces-c-3.1.so:_ZN11xercesc_3_117XSMultiValueFacetD2Ev
libxerces-c-3.1.so:_ZN11xercesc_3_118BinFileInputStream5resetEv
libxerces-c-3.1.so:_ZN11xercesc_3_118BinFileInputStream9readBytesEPhm
libxerces-c-3.1.so:_ZN11xercesc_3_118BinFileInputStreamC1EPKcPNS_13MemoryManagerE
libxerces-c-3.1.so:_ZN11xercesc_3_118BinFileInputStreamC1EPKtPNS_13MemoryManagerE
libxerces-c-3.1.so:_ZN11xercesc_3_118BinFileInputStreamC1EPvPNS_13MemoryManagerE
libxerces-c-3.1.so:_ZN11xercesc_3_118BinFileInputStreamC2EPKcPNS_13MemoryManagerE
libxerces-c-3.1.so:_ZN11xercesc_3_118BinFileInputStreamC2EPKtPNS_13MemoryManagerE
libxerces-c-3.1.so:_ZN11xercesc_3_118BinFileInputStreamC2EPvPNS_13MemoryManagerE
libxerces-c-3.1.so:_ZN11xercesc_3_118BinFileInputStreamD0Ev
libxerces-c-3.1.so:_ZN11xercesc_3_118BinFileInputStreamD1Ev
libxerces-c-3.1.so:_ZN11xercesc_3_118BinFileInputStreamD2Ev
libxerces-c-3.1.so:_ZN11xercesc_3_118BinMemOutputStream10writeBytesEPKhm
libxerces-c-3.1.so:_ZN11xercesc_3_118BinMemOutputStream14ensureCapacityEm
libxerces-c-3.1.so:_ZN11xercesc_3_118BinMemOutputStream5resetEv
libxerces-c-3.1.so:_ZN11xercesc_3_118BinMemOutputStreamC1EmPNS_13MemoryManagerE
libxerces-c-3.1.so:_ZN11xercesc_3_118BinMemOutputStreamC2EmPNS_13MemoryManagerE
libxerces-c-3.1.so:_ZN11xercesc_3_118BinMemOutputStreamD0Ev
libxerces-c-3.1.so:_ZN11xercesc_3_118BinMemOutputStreamD1Ev
libxerces-c-3.1.so:_ZN11xercesc_3_118BinMemOutputStreamD2Ev
libxerces-c-3.1.so:_ZN11xercesc_3_118CurlURLInputStream12readCallbackEPcmm
libxerces-c-3.1.so:_ZN11xercesc_3_118CurlURLInputStream13writeCallbackEPcmm
libxerces-c-3.1.so:_ZN11xercesc_3_118CurlURLInputStream18staticReadCallbackEPcmmPv
libxerces-c-3.1.so:_ZN11xercesc_3_118CurlURLInputStream19staticWriteCallbackEPcmmPv
libxerces-c-3.1.so:_ZN11xercesc_3_118CurlURLInputStream8readMoreEPi
libxerces-c-3.1.so:_ZN11xercesc_3_118CurlURLInputStream9readBytesEPhm
libxerces-c-3.1.so:_ZN11xercesc_3_118CurlURLInputStreamC1ERKNS_6XMLURLEPKNS_14XMLNetHTTPInfoE
libxerces-c-3.1.so:_ZN11xercesc_3_118CurlURLInputStreamC2ERKNS_6XMLURLEPKNS_14XMLNetHTTPInfoE
libxerces-c-3.1.so:_ZN11xercesc_3_118CurlURLInputStreamD0Ev
libxerces-c-3.1.so:_ZN11xercesc_3_118CurlURLInputStreamD1Ev
libxerces-c-3.1.so:_ZN11xercesc_3_118CurlURLInputStreamD2Ev
libxerces-c-3.1.so:_ZN11xercesc_3_118DOMXPathResultImpl11iterateNextEv
libxerces-c-3.1.so:_ZN11xercesc_3_118DOMXPathResultImpl12snapshotItemEm
libxerces-c-3.1.so:_ZN11xercesc_3_118DOMXPathResultImpl5resetENS_14DOMXPathResult10ResultTypeE
libxerces-c-3.1.so:_ZN11xercesc_3_118DOMXPathResultImpl7releaseEv
libxerces-c-3.1.so:_ZN11xercesc_3_118DOMXPathResultImpl9addResultEPNS_7DOMNodeE
libxerces-c-3.1.so:_ZN11xercesc_3_118DOMXPathResultImplC1ENS_14DOMXPathResult10ResultTypeEPNS_13MemoryManagerE
libxerces-c-3.1.so:_ZN11xercesc_3_118DOMXPathResultImplC2ENS_14DOMXPathResult10ResultTypeEPNS_13MemoryManagerE
libxerces-c-3.1.so:_ZN11xercesc_3_118DOMXPathResultImplD0Ev
libxerces-c-3.1.so:_ZN11xercesc_3_118DOMXPathResultImplD1Ev
libxerces-c-3.1.so:_ZN11xercesc_3_118DOMXPathResultImplD2Ev
libxerces-c-3.1.so:_ZN11xercesc_3_118IconvGNUTranscoder11transcodeToEPKtmPhmRmNS_13XMLTranscoder9UnRepOptsE
libxerces-c-3.1.so:_ZN11xercesc_3_118IconvGNUTranscoder13transcodeFromEPKhmPtmRmPh
libxerces-c-3.1.so:_ZN11xercesc_3_118IconvGNUTranscoder14canTranscodeToEj
libxerces-c-3.1.so:_ZN11xercesc_3_118IconvGNUTranscoderC1EPKtmPvS3_mjPNS_13MemoryManagerE
libxerces-c-3.1.so:_ZN11xercesc_3_118IconvGNUTranscoderC2EPKtmPvS3_mjPNS_13MemoryManagerE
libxerces-c-3.1.so:_ZN11xercesc_3_118IconvGNUTranscoderD0Ev
libxerces-c-3.1.so:_ZN11xercesc_3_118IconvGNUTranscoderD1Ev
libxerces-c-3.1.so:_ZN11xercesc_3_118IconvGNUTranscoderD2Ev
libxerces-c-3.1.so:_ZN11xercesc_3_118IdentityConstraint11setSelectorEPNS_11IC_SelectorE
libxerces-c-3.1.so:_ZN11xercesc_3_118IdentityConstraint12createObjectEPNS_13MemoryManagerE
libxerces-c-3.1.so:_ZN11xercesc_3_118IdentityConstraint6loadICERNS_16XSerializeEngineE
libxerces-c-3.1.so:_ZN11xercesc_3_118IdentityConstraint7cleanUpEv
libxerces-c-3.1.so:_ZN11xercesc_3_118IdentityConstraint7storeICERNS_16XSerializeEngineEPS0_
libxerces-c-3.1.so:_ZN11xercesc_3_118IdentityConstraint9serializeERNS_16XSerializeEngineE
libxerces-c-3.1.so:_ZN11xercesc_3_118IdentityConstraintC1EPKtS2_PNS_13MemoryManagerE
libxerces-c-3.1.so:_ZN11xercesc_3_118IdentityConstraintC2EPKtS2_PNS_13MemoryManagerE
libxerces-c-3.1.so:_ZN11xercesc_3_118IdentityConstraintD0Ev
libxerces-c-3.1.so:_ZN11xercesc_3_118IdentityConstraintD1Ev
libxerces-c-3.1.so:_ZN11xercesc_3_118IdentityConstraintD2Ev
libxerces-c-3.1.so:_ZN11xercesc_3_118MemBufFormatTarget10writeCharsEPKhmPNS_12XMLFormatterE
libxerces-c-3.1.so:_ZN11xercesc_3_118MemBufFormatTarget14ensureCapacityEm
libxerces-c-3.1.so:_ZN11xercesc_3_118MemBufFormatTarget5resetEv
libxerces-c-3.1.so:_ZN11xercesc_3_118MemBufFormatTargetC1EmPNS_13MemoryManagerE
libxerces-c-3.1.so:_ZN11xercesc_3_118MemBufFormatTargetC2EmPNS_13MemoryManagerE
libxerces-c-3.1.so:_ZN11xercesc_3_118MemBufFormatTargetD0Ev
libxerces-c-3.1.so:_ZN11xercesc_3_118MemBufFormatTargetD1Ev
libxerces-c-3.1.so:_ZN11xercesc_3_118MemBufFormatTargetD2Ev
libxerces-c-3.1.so:_ZN11xercesc_3_118ParserForXMLSchema11processPlusEPNS_5TokenE
libxerces-c-3.1.so:_ZN11xercesc_3_118ParserForXMLSchema11processStarEPNS_5TokenE
libxerces-c-3.1.so:_ZN11xercesc_3_118ParserForXMLSchema12processCaretEv
libxerces-c-3.1.so:_ZN11xercesc_3_118ParserForXMLSchema12processParenEv
libxerces-c-3.1.so:_ZN11xercesc_3_118ParserForXMLSchema13checkQuestionEm
libxerces-c-3.1.so:_ZN11xercesc_3_118ParserForXMLSchema13decodeEscapedEv
libxerces-c-3.1.so:_ZN11xercesc_3_118ParserForXMLSchema13processDollarEv
libxerces-c-3.1.so:_ZN11xercesc_3_118ParserForXMLSchema15processQuestionEPNS_5TokenE
libxerces-c-3.1.so:_ZN11xercesc_3_118ParserForXMLSchema20processBackReferenceEv
libxerces-c-3.1.so:_ZN11xercesc_3_118ParserForXMLSchemaC1EPNS_13MemoryManagerE
libxerces-c-3.1.so:_ZN11xercesc_3_118ParserForXMLSchemaC2EPNS_13MemoryManagerE
libxerces-c-3.1.so:_ZN11xercesc_3_118ParserForXMLSchemaD0Ev
libxerces-c-3.1.so:_ZN11xercesc_3_118ParserForXMLSchemaD1Ev
libxerces-c-3.1.so:_ZN11xercesc_3_118ParserForXMLSchemaD2Ev
libxerces-c-3.1.so:_ZN11xercesc_3_118SimpleContentModel30checkUniqueParticleAttributionEPNS_13SchemaGrammarEPNS_15GrammarResolverEPNS_13XMLStringPoolEPNS_12XMLValidatorEPjPKt
libxerces-c-3.1.so:_ZN11xercesc_3_118StdOutFormatTarget10writeCharsEPKhmPNS_12XMLFormatterE
libxerces-c-3.1.so:_ZN11xercesc_3_118StdOutFormatTarget5flushEv
libxerces-c-3.1.so:_ZN11xercesc_3_118StdOutFormatTargetC1Ev
libxerces-c-3.1.so:_ZN11xercesc_3_118StdOutFormatTargetC2Ev
libxerces-c-3.1.so:_ZN11xercesc_3_118StdOutFormatTargetD0Ev
libxerces-c-3.1.so:_ZN11xercesc_3_118StdOutFormatTargetD1Ev
libxerces-c-3.1.so:_ZN11xercesc_3_118StdOutFormatTargetD2Ev
libxerces-c-3.1.so:_ZN11xercesc_3_118Wrapper4DOMLSInput11setEncodingEPKt
libxerces-c-3.1.so:_ZN11xercesc_3_118Wrapper4DOMLSInput11setPublicIdEPKt
libxerces-c-3.1.so:_ZN11xercesc_3_118Wrapper4DOMLSInput11setSystemIdEPKt
libxerces-c-3.1.so:_ZN11xercesc_3_118Wrapper4DOMLSInput28setIssueFatalErrorIfNotFoundEb
libxerces-c-3.1.so:_ZN11xercesc_3_118Wrapper4DOMLSInputC1EPNS_10DOMLSInputEPNS_21DOMLSResourceResolverEbPNS_13MemoryManagerE
libxerces-c-3.1.so:_ZN11xercesc_3_118Wrapper4DOMLSInputC2EPNS_10DOMLSInputEPNS_21DOMLSResourceResolverEbPNS_13MemoryManagerE
libxerces-c-3.1.so:_ZN11xercesc_3_118Wrapper4DOMLSInputD0Ev
libxerces-c-3.1.so:_ZN11xercesc_3_118Wrapper4DOMLSInputD1Ev
libxerces-c-3.1.so:_ZN11xercesc_3_118Wrapper4DOMLSInputD2Ev
libxerces-c-3.1.so:_ZN11xercesc_3_118XML88591Transcoder11transcodeToEPKtmPhmRmNS_13XMLTranscoder9UnRepOptsE
libxerces-c-3.1.so:_ZN11xercesc_3_118XML88591Transcoder13transcodeFromEPKhmPtmRmPh
libxerces-c-3.1.so:_ZN11xercesc_3_118XML88591Transcoder14canTranscodeToEj
libxerces-c-3.1.so:_ZN11xercesc_3_118XML88591TranscoderC1EPKtmPNS_13MemoryManagerE
libxerces-c-3.1.so:_ZN11xercesc_3_118XML88591TranscoderC2EPKtmPNS_13MemoryManagerE
libxerces-c-3.1.so:_ZN11xercesc_3_118XML88591TranscoderD0Ev
libxerces-c-3.1.so:_ZN11xercesc_3_118XML88591TranscoderD1Ev
libxerces-c-3.1.so:_ZN11xercesc_3_118XML88591TranscoderD2Ev
libxerces-c-3.1.so:_ZN11xercesc_3_118XMLASCIITranscoder11transcodeToEPKtmPhmRmNS_13XMLTranscoder9UnRepOptsE
libxerces-c-3.1.so:_ZN11xercesc_3_118XMLASCIITranscoder13transcodeFromEPKhmPtmRmPh
libxerces-c-3.1.so:_ZN11xercesc_3_118XMLASCIITranscoder14canTranscodeToEj
libxerces-c-3.1.so:_ZN11xercesc_3_118XMLASCIITranscoderC1EPKtmPNS_13MemoryManagerE
libxerces-c-3.1.so:_ZN11xercesc_3_118XMLASCIITranscoderC2EPKtmPNS_13MemoryManagerE
libxerces-c-3.1.so:_ZN11xercesc_3_118XMLASCIITranscoderD0Ev
libxerces-c-3.1.so:_ZN11xercesc_3_118XMLASCIITranscoderD1Ev
libxerces-c-3.1.so:_ZN11xercesc_3_118XMLASCIITranscoderD2Ev
libxerces-c-3.1.so:_ZN11xercesc_3_118XMLGrammarPoolImpl10getXSModelERb
libxerces-c-3.1.so:_ZN11xercesc_3_118XMLGrammarPoolImpl10unlockPoolEv
libxerces-c-3.1.so:_ZN11xercesc_3_118XMLGrammarPoolImpl12cacheGrammarEPNS_7GrammarE
libxerces-c-3.1.so:_ZN11xercesc_3_118XMLGrammarPoolImpl13createXSModelEv
libxerces-c-3.1.so:_ZN11xercesc_3_118XMLGrammarPoolImpl13orphanGrammarEPKt
libxerces-c-3.1.so:_ZN11xercesc_3_118XMLGrammarPoolImpl15retrieveGrammarEPNS_21XMLGrammarDescriptionE
libxerces-c-3.1.so:_ZN11xercesc_3_118XMLGrammarPoolImpl16createDTDGrammarEv
libxerces-c-3.1.so:_ZN11xercesc_3_118XMLGrammarPoolImpl16getURIStringPoolEv
libxerces-c-3.1.so:_ZN11xercesc_3_118XMLGrammarPoolImpl17serializeGrammarsEPNS_15BinOutputStreamE
libxerces-c-3.1.so:_ZN11xercesc_3_118XMLGrammarPoolImpl19createSchemaGrammarEv
libxerces-c-3.1.so:_ZN11xercesc_3_118XMLGrammarPoolImpl19deserializeGrammarsEPNS_14BinInputStreamE
libxerces-c-3.1.so:_ZN11xercesc_3_118XMLGrammarPoolImpl20createDTDDescriptionEPKt
libxerces-c-3.1.so:_ZN11xercesc_3_118XMLGrammarPoolImpl23createSchemaDescriptionEPKt
libxerces-c-3.1.so:_ZN11xercesc_3_118XMLGrammarPoolImpl5clearEv
libxerces-c-3.1.so:_ZN11xercesc_3_118XMLGrammarPoolImpl7cleanUpEv
libxerces-c-3.1.so:_ZN11xercesc_3_118XMLGrammarPoolImpl8lockPoolEv
libxerces-c-3.1.so:_ZN11xercesc_3_118XMLGrammarPoolImplC1EPNS_13MemoryManagerE
libxerces-c-3.1.so:_ZN11xercesc_3_118XMLGrammarPoolImplC2EPNS_13MemoryManagerE
libxerces-c-3.1.so:_ZN11xercesc_3_118XMLGrammarPoolImplD0Ev
libxerces-c-3.1.so:_ZN11xercesc_3_118XMLGrammarPoolImplD1Ev
libxerces-c-3.1.so:_ZN11xercesc_3_118XMLGrammarPoolImplD2Ev
libxerces-c-3.1.so:_ZN11xercesc_3_118XMLScannerResolver14resolveScannerEPKtPNS_12XMLValidatorEPNS_15GrammarResolverEPNS_13MemoryManagerE
libxerces-c-3.1.so:_ZN11xercesc_3_118XMLScannerResolver14resolveScannerEPKtPNS_18XMLDocumentHandlerEPNS_14DocTypeHandlerEPNS_16XMLEntityHandlerEPNS_16XMLErrorReporterEPNS_12XMLValidatorEPNS_15GrammarResolverEPNS_13MemoryManagerE
libxerces-c-3.1.so:_ZN11xercesc_3_118XMLScannerResolver17getDefaultScannerEPNS_12XMLValidatorEPNS_15GrammarResolverEPNS_13MemoryManagerE
libxerces-c-3.1.so:_ZN11xercesc_3_118XMLStringTokenizer13hasMoreTokensEv
libxerces-c-3.1.so:_ZN11xercesc_3_118XMLStringTokenizer7cleanUpEv
libxerces-c-3.1.so:_ZN11xercesc_3_118XMLStringTokenizer9nextTokenEv
libxerces-c-3.1.so:_ZN11xercesc_3_118XMLStringTokenizerC1EPKtPNS_13MemoryManagerE
libxerces-c-3.1.so:_ZN11xercesc_3_118XMLStringTokenizerC1EPKtS2_PNS_13MemoryManagerE
libxerces-c-3.1.so:_ZN11xercesc_3_118XMLStringTokenizerC2EPKtPNS_13MemoryManagerE
libxerces-c-3.1.so:_ZN11xercesc_3_118XMLStringTokenizerC2EPKtS2_PNS_13MemoryManagerE
libxerces-c-3.1.so:_ZN11xercesc_3_118XMLStringTokenizerD1Ev
libxerces-c-3.1.so:_ZN11xercesc_3_118XMLStringTokenizerD2Ev
libxerces-c-3.1.so:_ZN11xercesc_3_118XMLUTF16Transcoder11transcodeToEPKtmPhmRmNS_13XMLTranscoder9UnRepOptsE
libxerces-c-3.1.so:_ZN11xercesc_3_118XMLUTF16Transcoder13transcodeFromEPKhmPtmRmPh
libxerces-c-3.1.so:_ZN11xercesc_3_118XMLUTF16Transcoder14canTranscodeToEj
libxerces-c-3.1.so:_ZN11xercesc_3_118XMLUTF16TranscoderC1EPKtmbPNS_13MemoryManagerE
libxerces-c-3.1.so:_ZN11xercesc_3_118XMLUTF16TranscoderC2EPKtmbPNS_13MemoryManagerE
libxerces-c-3.1.so:_ZN11xercesc_3_118XMLUTF16TranscoderD0Ev
libxerces-c-3.1.so:_ZN11xercesc_3_118XMLUTF16TranscoderD1Ev
libxerces-c-3.1.so:_ZN11xercesc_3_118XMLUTF16TranscoderD2Ev
libxerces-c-3.1.so:_ZN11xercesc_3_118XercesAttGroupInfo12createObjectEPNS_13MemoryManagerE
libxerces-c-3.1.so:_ZN11xercesc_3_118XercesAttGroupInfo17containsAttributeEPKtj
libxerces-c-3.1.so:_ZN11xercesc_3_118XercesAttGroupInfo9serializeERNS_16XSerializeEngineE
libxerces-c-3.1.so:_ZN11xercesc_3_118XercesAttGroupInfoC1EPNS_13MemoryManagerE
libxerces-c-3.1.so:_ZN11xercesc_3_118XercesAttGroupInfoC1EjjPNS_13MemoryManagerE
libxerces-c-3.1.so:_ZN11xercesc_3_118XercesAttGroupInfoC2EPNS_13MemoryManagerE
libxerces-c-3.1.so:_ZN11xercesc_3_118XercesAttGroupInfoC2EjjPNS_13MemoryManagerE
libxerces-c-3.1.so:_ZN11xercesc_3_118XercesAttGroupInfoD0Ev
libxerces-c-3.1.so:_ZN11xercesc_3_118XercesAttGroupInfoD1Ev
libxerces-c-3.1.so:_ZN11xercesc_3_118XercesAttGroupInfoD2Ev
libxerces-c-3.1.so:_ZN11xercesc_3_118XercesLocationPath12createObjectEPNS_13MemoryManagerE
libxerces-c-3.1.so:_ZN11xercesc_3_118XercesLocationPath9serializeERNS_16XSerializeEngineE
libxerces-c-3.1.so:_ZN11xercesc_3_118XercesLocationPathC1EPNS_11RefVectorOfINS_10XercesStepEEE
libxerces-c-3.1.so:_ZN11xercesc_3_118XercesLocationPathC1EPNS_13MemoryManagerE
libxerces-c-3.1.so:_ZN11xercesc_3_118XercesLocationPathC2EPNS_11RefVectorOfINS_10XercesStepEEE
libxerces-c-3.1.so:_ZN11xercesc_3_118XercesLocationPathC2EPNS_13MemoryManagerE
libxerces-c-3.1.so:_ZN11xercesc_3_119BinFileOutputStream10writeBytesEPKhm
libxerces-c-3.1.so:_ZN11xercesc_3_119BinFileOutputStream5resetEv
libxerces-c-3.1.so:_ZN11xercesc_3_119BinFileOutputStreamC1EPKcPNS_13MemoryManagerE
libxerces-c-3.1.so:_ZN11xercesc_3_119BinFileOutputStreamC1EPKtPNS_13MemoryManagerE
libxerces-c-3.1.so:_ZN11xercesc_3_119BinFileOutputStreamC2EPKcPNS_13MemoryManagerE
libxerces-c-3.1.so:_ZN11xercesc_3_119BinFileOutputStreamC2EPKtPNS_13MemoryManagerE
libxerces-c-3.1.so:_ZN11xercesc_3_119BinFileOutputStreamD0Ev
libxerces-c-3.1.so:_ZN11xercesc_3_119BinFileOutputStreamD1Ev
libxerces-c-3.1.so:_ZN11xercesc_3_119BinFileOutputStreamD2Ev
libxerces-c-3.1.so:_ZN11xercesc_3_119DOMCDATASectionImpl10appendDataEPKt
libxerces-c-3.1.so:_ZN11xercesc_3_119DOMCDATASectionImpl10deleteDataEmm
libxerces-c-3.1.so:_ZN11xercesc_3_119DOMCDATASectionImpl10insertDataEmPKt
libxerces-c-3.1.so:_ZN11xercesc_3_119DOMCDATASectionImpl11appendChildEPNS_7DOMNodeE
libxerces-c-3.1.so:_ZN11xercesc_3_119DOMCDATASectionImpl11removeChildEPNS_7DOMNodeE
libxerces-c-3.1.so:_ZN11xercesc_3_119DOMCDATASectionImpl11replaceDataEmmPKt
libxerces-c-3.1.so:_ZN11xercesc_3_119DOMCDATASectionImpl11setUserDataEPKtPvPNS_18DOMUserDataHandlerE
libxerces-c-3.1.so:_ZN11xercesc_3_119DOMCDATASectionImpl12insertBeforeEPNS_7DOMNodeES2_
libxerces-c-3.1.so:_ZN11xercesc_3_119DOMCDATASectionImpl12replaceChildEPNS_7DOMNodeES2_
libxerces-c-3.1.so:_ZN11xercesc_3_119DOMCDATASectionImpl12setNodeValueEPKt
libxerces-c-3.1.so:_ZN11xercesc_3_119DOMCDATASectionImpl14setTextContentEPKt
libxerces-c-3.1.so:_ZN11xercesc_3_119DOMCDATASectionImpl16replaceWholeTextEPKt
libxerces-c-3.1.so:_ZN11xercesc_3_119DOMCDATASectionImpl7releaseEv
libxerces-c-3.1.so:_ZN11xercesc_3_119DOMCDATASectionImpl7setDataEPKt
libxerces-c-3.1.so:_ZN11xercesc_3_119DOMCDATASectionImpl9normalizeEv
libxerces-c-3.1.so:_ZN11xercesc_3_119DOMCDATASectionImpl9setPrefixEPKt
libxerces-c-3.1.so:_ZN11xercesc_3_119DOMCDATASectionImpl9splitTextEm
libxerces-c-3.1.so:_ZN11xercesc_3_119DOMCDATASectionImplC1EPNS_11DOMDocumentEPKt
libxerces-c-3.1.so:_ZN11xercesc_3_119DOMCDATASectionImplC1EPNS_11DOMDocumentEPKtm
libxerces-c-3.1.so:_ZN11xercesc_3_119DOMCDATASectionImplC1ERKS0_b
libxerces-c-3.1.so:_ZN11xercesc_3_119DOMCDATASectionImplC2EPNS_11DOMDocumentEPKt
libxerces-c-3.1.so:_ZN11xercesc_3_119DOMCDATASectionImplC2EPNS_11DOMDocumentEPKtm
libxerces-c-3.1.so:_ZN11xercesc_3_119DOMCDATASectionImplC2ERKS0_b
libxerces-c-3.1.so:_ZN11xercesc_3_119DOMCDATASectionImplD0Ev
libxerces-c-3.1.so:_ZN11xercesc_3_119DOMCDATASectionImplD1Ev
libxerces-c-3.1.so:_ZN11xercesc_3_119DOMCDATASectionImplD2Ev
libxerces-c-3.1.so:_ZN11xercesc_3_119DOMDeepNodeListImpl24nextMatchingElementAfterEPNS_7DOMNodeE
libxerces-c-3.1.so:_ZN11xercesc_3_119DOMDeepNodeListImpl9cacheItemEm
libxerces-c-3.1.so:_ZN11xercesc_3_119DOMDeepNodeListImplC1EPKNS_7DOMNodeEPKt
libxerces-c-3.1.so:_ZN11xercesc_3_119DOMDeepNodeListImplC1EPKNS_7DOMNodeEPKtS5_
libxerces-c-3.1.so:_ZN11xercesc_3_119DOMDeepNodeListImplC2EPKNS_7DOMNodeEPKt
libxerces-c-3.1.so:_ZN11xercesc_3_119DOMDeepNodeListImplC2EPKNS_7DOMNodeEPKtS5_
libxerces-c-3.1.so:_ZN11xercesc_3_119DOMDeepNodeListImplD0Ev
libxerces-c-3.1.so:_ZN11xercesc_3_119DOMDeepNodeListImplD1Ev
libxerces-c-3.1.so:_ZN11xercesc_3_119DOMDeepNodeListImplD2Ev
libxerces-c-3.1.so:_ZN11xercesc_3_119DOMDocumentTypeImpl11appendChildEPNS_7DOMNodeE
libxerces-c-3.1.so:_ZN11xercesc_3_119DOMDocumentTypeImpl11removeChildEPNS_7DOMNodeE
libxerces-c-3.1.so:_ZN11xercesc_3_119DOMDocumentTypeImpl11setPublicIdEPKt
libxerces-c-3.1.so:_ZN11xercesc_3_119DOMDocumentTypeImpl11setReadOnlyEbb
libxerces-c-3.1.so:_ZN11xercesc_3_119DOMDocumentTypeImpl11setSystemIdEPKt
libxerces-c-3.1.so:_ZN11xercesc_3_119DOMDocumentTypeImpl11setUserDataEPKtPvPNS_18DOMUserDataHandlerE
libxerces-c-3.1.so:_ZN11xercesc_3_119DOMDocumentTypeImpl12insertBeforeEPNS_7DOMNodeES2_
libxerces-c-3.1.so:_ZN11xercesc_3_119DOMDocumentTypeImpl12replaceChildEPNS_7DOMNodeES2_
libxerces-c-3.1.so:_ZN11xercesc_3_119DOMDocumentTypeImpl12setNodeValueEPKt
libxerces-c-3.1.so:_ZN11xercesc_3_119DOMDocumentTypeImpl14setTextContentEPKt
libxerces-c-3.1.so:_ZN11xercesc_3_119DOMDocumentTypeImpl16setOwnerDocumentEPNS_11DOMDocumentE
libxerces-c-3.1.so:_ZN11xercesc_3_119DOMDocumentTypeImpl17setInternalSubsetEPKt
libxerces-c-3.1.so:_ZN11xercesc_3_119DOMDocumentTypeImpl7releaseEv
libxerces-c-3.1.so:_ZN11xercesc_3_119DOMDocumentTypeImpl9normalizeEv
libxerces-c-3.1.so:_ZN11xercesc_3_119DOMDocumentTypeImpl9setPrefixEPKt
libxerces-c-3.1.so:_ZN11xercesc_3_119DOMDocumentTypeImplC1EPNS_11DOMDocumentEPKtS4_S4_b
libxerces-c-3.1.so:_ZN11xercesc_3_119DOMDocumentTypeImplC1EPNS_11DOMDocumentEPKtb
libxerces-c-3.1.so:_ZN11xercesc_3_119DOMDocumentTypeImplC1ERKS0_bb
libxerces-c-3.1.so:_ZN11xercesc_3_119DOMDocumentTypeImplC2EPNS_11DOMDocumentEPKtS4_S4_b
libxerces-c-3.1.so:_ZN11xercesc_3_119DOMDocumentTypeImplC2EPNS_11DOMDocumentEPKtb
libxerces-c-3.1.so:_ZN11xercesc_3_119DOMDocumentTypeImplC2ERKS0_bb
libxerces-c-3.1.so:_ZN11xercesc_3_119DOMDocumentTypeImplD0Ev
libxerces-c-3.1.so:_ZN11xercesc_3_119DOMDocumentTypeImplD1Ev
libxerces-c-3.1.so:_ZN11xercesc_3_119DOMDocumentTypeImplD2Ev
libxerces-c-3.1.so:_ZN11xercesc_3_119DOMLSSerializerImpl10processBOMEv
libxerces-c-3.1.so:_ZN11xercesc_3_119DOMLSSerializerImpl10setNewLineEPKt
libxerces-c-3.1.so:_ZN11xercesc_3_119DOMLSSerializerImpl10writeToURIEPKNS_7DOMNodeEPKt
libxerces-c-3.1.so:_ZN11xercesc_3_119DOMLSSerializerImpl11printIndentEj
libxerces-c-3.1.so:_ZN11xercesc_3_119DOMLSSerializerImpl11processNodeEPKNS_7DOMNodeE
libxerces-c-3.1.so:_ZN11xercesc_3_119DOMLSSerializerImpl11processNodeEPKNS_7DOMNodeEi
libxerces-c-3.1.so:_ZN11xercesc_3_119DOMLSSerializerImpl11reportErrorEPKNS_7DOMNodeENS_8DOMError13ErrorSeverityENS_9XMLDOMMsg5CodesE
libxerces-c-3.1.so:_ZN11xercesc_3_119DOMLSSerializerImpl11reportErrorEPKNS_7DOMNodeENS_8DOMError13ErrorSeverityEPKt
libxerces-c-3.1.so:_ZN11xercesc_3_119DOMLSSerializerImpl12printNewLineEv
libxerces-c-3.1.so:_ZN11xercesc_3_119DOMLSSerializerImpl12setParameterEPKtPKv
libxerces-c-3.1.so:_ZN11xercesc_3_119DOMLSSerializerImpl12setParameterEPKtb
libxerces-c-3.1.so:_ZN11xercesc_3_119DOMLSSerializerImpl13writeToStringEPKNS_7DOMNodeEPNS_13MemoryManagerE
libxerces-c-3.1.so:_ZN11xercesc_3_119DOMLSSerializerImpl16procCdataSectionEPKtPKNS_7DOMNodeE
libxerces-c-3.1.so:_ZN11xercesc_3_119DOMLSSerializerImpl19customNodeSerializeEPKNS_7DOMNodeEi
libxerces-c-3.1.so:_ZN11xercesc_3_119DOMLSSerializerImpl27procUnrepCharInCdataSectionEPKtPKNS_7DOMNodeE
libxerces-c-3.1.so:_ZN11xercesc_3_119DOMLSSerializerImpl5writeEPKNS_7DOMNodeEPNS_11DOMLSOutputE
libxerces-c-3.1.so:_ZN11xercesc_3_119DOMLSSerializerImpl7releaseEv
libxerces-c-3.1.so:_ZN11xercesc_3_119DOMLSSerializerImpl9setFilterEPNS_21DOMLSSerializerFilterE
libxerces-c-3.1.so:_ZN11xercesc_3_119DOMLSSerializerImplC1EPNS_13MemoryManagerE
libxerces-c-3.1.so:_ZN11xercesc_3_119DOMLSSerializerImplC2EPNS_13MemoryManagerE
libxerces-c-3.1.so:_ZN11xercesc_3_119DOMLSSerializerImplD0Ev
libxerces-c-3.1.so:_ZN11xercesc_3_119DOMLSSerializerImplD1Ev
libxerces-c-3.1.so:_ZN11xercesc_3_119DOMLSSerializerImplD2Ev
libxerces-c-3.1.so:_ZN11xercesc_3_119DOMNamedNodeMapImpl11setReadOnlyEbb
libxerces-c-3.1.so:_ZN11xercesc_3_119DOMNamedNodeMapImpl12setNamedItemEPNS_7DOMNodeE
libxerces-c-3.1.so:_ZN11xercesc_3_119DOMNamedNodeMapImpl14setNamedItemNSEPNS_7DOMNodeE
libxerces-c-3.1.so:_ZN11xercesc_3_119DOMNamedNodeMapImpl15removeNamedItemEPKt
libxerces-c-3.1.so:_ZN11xercesc_3_119DOMNamedNodeMapImpl17removeNamedItemNSEPKtS2_
libxerces-c-3.1.so:_ZN11xercesc_3_119DOMNamedNodeMapImpl8cloneMapEPNS_7DOMNodeE
libxerces-c-3.1.so:_ZN11xercesc_3_119DOMNamedNodeMapImpl8readOnlyEv
libxerces-c-3.1.so:_ZN11xercesc_3_119DOMNamedNodeMapImplC1EPNS_7DOMNodeE
libxerces-c-3.1.so:_ZN11xercesc_3_119DOMNamedNodeMapImplC2EPNS_7DOMNodeE
libxerces-c-3.1.so:_ZN11xercesc_3_119DOMNamedNodeMapImplD0Ev
libxerces-c-3.1.so:_ZN11xercesc_3_119DOMNamedNodeMapImplD1Ev
libxerces-c-3.1.so:_ZN11xercesc_3_119DOMNamedNodeMapImplD2Ev
libxerces-c-3.1.so:_ZN11xercesc_3_119DOMNodeIteratorImpl10acceptNodeEPNS_7DOMNodeE
libxerces-c-3.1.so:_ZN11xercesc_3_119DOMNodeIteratorImpl10removeNodeEPNS_7DOMNodeE
libxerces-c-3.1.so:_ZN11xercesc_3_119DOMNodeIteratorImpl12previousNodeEPNS_7DOMNodeE
libxerces-c-3.1.so:_ZN11xercesc_3_119DOMNodeIteratorImpl12previousNodeEv
libxerces-c-3.1.so:_ZN11xercesc_3_119DOMNodeIteratorImpl13getWhatToShowEv
libxerces-c-3.1.so:_ZN11xercesc_3_119DOMNodeIteratorImpl17matchNodeOrParentEPNS_7DOMNodeE
libxerces-c-3.1.so:_ZN11xercesc_3_119DOMNodeIteratorImpl25getExpandEntityReferencesEv
libxerces-c-3.1.so:_ZN11xercesc_3_119DOMNodeIteratorImpl6detachEv
libxerces-c-3.1.so:_ZN11xercesc_3_119DOMNodeIteratorImpl7getRootEv
libxerces-c-3.1.so:_ZN11xercesc_3_119DOMNodeIteratorImpl7releaseEv
libxerces-c-3.1.so:_ZN11xercesc_3_119DOMNodeIteratorImpl8nextNodeEPNS_7DOMNodeEb
libxerces-c-3.1.so:_ZN11xercesc_3_119DOMNodeIteratorImpl8nextNodeEv
libxerces-c-3.1.so:_ZN11xercesc_3_119DOMNodeIteratorImpl9getFilterEv
libxerces-c-3.1.so:_ZN11xercesc_3_119DOMNodeIteratorImplC1EPNS_11DOMDocumentEPNS_7DOMNodeEmPNS_13DOMNodeFilterEb
libxerces-c-3.1.so:_ZN11xercesc_3_119DOMNodeIteratorImplC1ERKS0_
libxerces-c-3.1.so:_ZN11xercesc_3_119DOMNodeIteratorImplC2EPNS_11DOMDocumentEPNS_7DOMNodeEmPNS_13DOMNodeFilterEb
libxerces-c-3.1.so:_ZN11xercesc_3_119DOMNodeIteratorImplC2ERKS0_
libxerces-c-3.1.so:_ZN11xercesc_3_119DOMNodeIteratorImplD0Ev
libxerces-c-3.1.so:_ZN11xercesc_3_119DOMNodeIteratorImplD1Ev
libxerces-c-3.1.so:_ZN11xercesc_3_119DOMNodeIteratorImplD2Ev
libxerces-c-3.1.so:_ZN11xercesc_3_119DOMNodeIteratorImplaSERKS0_
libxerces-c-3.1.so:_ZN11xercesc_3_119DefaultPanicHandler5panicENS_12PanicHandler12PanicReasonsE
libxerces-c-3.1.so:_ZN11xercesc_3_119IDDatatypeValidator11newInstanceEPNS_14RefHashTableOfINS_12KVStringPairENS_12StringHasherEEEPNS_16RefArrayVectorOfItEEiPNS_13MemoryManagerE
libxerces-c-3.1.so:_ZN11xercesc_3_119IDDatatypeValidator12createObjectEPNS_13MemoryManagerE
libxerces-c-3.1.so:_ZN11xercesc_3_119IDDatatypeValidator15checkValueSpaceEPKtPNS_13MemoryManagerE
libxerces-c-3.1.so:_ZN11xercesc_3_119IDDatatypeValidator8validateEPKtPNS_17ValidationContextEPNS_13MemoryManagerE
libxerces-c-3.1.so:_ZN11xercesc_3_119IDDatatypeValidator9serializeERNS_16XSerializeEngineE
libxerces-c-3.1.so:_ZN11xercesc_3_119IDDatatypeValidatorC1EPNS_13MemoryManagerE
libxerces-c-3.1.so:_ZN11xercesc_3_119IDDatatypeValidatorC1EPNS_17DatatypeValidatorEPNS_14RefHashTableOfINS_12KVStringPairENS_12StringHasherEEEPNS_16RefArrayVectorOfItEEiPNS_13MemoryManagerE
libxerces-c-3.1.so:_ZN11xercesc_3_119IDDatatypeValidatorC1EPNS_17DatatypeValidatorEPNS_14RefHashTableOfINS_12KVStringPairENS_12StringHasherEEEiNS1_13ValidatorTypeEPNS_13MemoryManagerE
libxerces-c-3.1.so:_ZN11xercesc_3_119IDDatatypeValidatorC2EPNS_13MemoryManagerE
libxerces-c-3.1.so:_ZN11xercesc_3_119IDDatatypeValidatorC2EPNS_17DatatypeValidatorEPNS_14RefHashTableOfINS_12KVStringPairENS_12StringHasherEEEPNS_16RefArrayVectorOfItEEiPNS_13MemoryManagerE
libxerces-c-3.1.so:_ZN11xercesc_3_119IDDatatypeValidatorC2EPNS_17DatatypeValidatorEPNS_14RefHashTableOfINS_12KVStringPairENS_12StringHasherEEEiNS1_13ValidatorTypeEPNS_13MemoryManagerE
libxerces-c-3.1.so:_ZN11xercesc_3_119IDDatatypeValidatorD0Ev
libxerces-c-3.1.so:_ZN11xercesc_3_119IDDatatypeValidatorD1Ev
libxerces-c-3.1.so:_ZN11xercesc_3_119IDDatatypeValidatorD2Ev
libxerces-c-3.1.so:_ZN11xercesc_3_119UnicodeRangeFactory11buildRangesEPNS_13RangeTokenMapE
libxerces-c-3.1.so:_ZN11xercesc_3_119UnicodeRangeFactory14getUniCategoryEt
libxerces-c-3.1.so:_ZN11xercesc_3_119UnicodeRangeFactory20initializeKeywordMapEPNS_13RangeTokenMapE
libxerces-c-3.1.so:_ZN11xercesc_3_119UnicodeRangeFactoryC1Ev
libxerces-c-3.1.so:_ZN11xercesc_3_119UnicodeRangeFactoryC2Ev
libxerces-c-3.1.so:_ZN11xercesc_3_119UnicodeRangeFactoryD0Ev
libxerces-c-3.1.so:_ZN11xercesc_3_119UnicodeRangeFactoryD1Ev
libxerces-c-3.1.so:_ZN11xercesc_3_119UnicodeRangeFactoryD2Ev
libxerces-c-3.1.so:_ZN11xercesc_3_119Wrapper4InputSource11setEncodingEPKt
libxerces-c-3.1.so:_ZN11xercesc_3_119Wrapper4InputSource11setPublicIdEPKt
libxerces-c-3.1.so:_ZN11xercesc_3_119Wrapper4InputSource11setSystemIdEPKt
libxerces-c-3.1.so:_ZN11xercesc_3_119Wrapper4InputSource28setIssueFatalErrorIfNotFoundEb
libxerces-c-3.1.so:_ZN11xercesc_3_119Wrapper4InputSource7releaseEv
libxerces-c-3.1.so:_ZN11xercesc_3_119Wrapper4InputSourceC1EPNS_11InputSourceEbPNS_13MemoryManagerE
libxerces-c-3.1.so:_ZN11xercesc_3_119Wrapper4InputSourceC2EPNS_11InputSourceEbPNS_13MemoryManagerE
libxerces-c-3.1.so:_ZN11xercesc_3_119Wrapper4InputSourceD0Ev
libxerces-c-3.1.so:_ZN11xercesc_3_119Wrapper4InputSourceD1Ev
libxerces-c-3.1.so:_ZN11xercesc_3_119Wrapper4InputSourceD2Ev
libxerces-c-3.1.so:_ZN11xercesc_3_119XMLEBCDICTranscoder11xlatThisOneEh
libxerces-c-3.1.so:_ZN11xercesc_3_119XMLEBCDICTranscoderC1EPKtmPNS_13MemoryManagerE
libxerces-c-3.1.so:_ZN11xercesc_3_119XMLEBCDICTranscoderC2EPKtmPNS_13MemoryManagerE
libxerces-c-3.1.so:_ZN11xercesc_3_119XMLEBCDICTranscoderD0Ev
libxerces-c-3.1.so:_ZN11xercesc_3_119XMLEBCDICTranscoderD1Ev
libxerces-c-3.1.so:_ZN11xercesc_3_119XMLEBCDICTranscoderD2Ev
libxerces-c-3.1.so:_ZN11xercesc_3_119XTemplateSerializer10loadObjectEPPNS_10NameIdPoolINS_13DTDEntityDeclEEEiiRNS_16XSerializeEngineE
libxerces-c-3.1.so:_ZN11xercesc_3_119XTemplateSerializer10loadObjectEPPNS_10NameIdPoolINS_14DTDElementDeclEEEiiRNS_16XSerializeEngineE
libxerces-c-3.1.so:_ZN11xercesc_3_119XTemplateSerializer10loadObjectEPPNS_10NameIdPoolINS_15XMLNotationDeclEEEiiRNS_16XSerializeEngineE
libxerces-c-3.1.so:_ZN11xercesc_3_119XTemplateSerializer10loadObjectEPPNS_11RefVectorOfINS_10XercesStepEEEibRNS_16XSerializeEngineE
libxerces-c-3.1.so:_ZN11xercesc_3_119XTemplateSerializer10loadObjectEPPNS_11RefVectorOfINS_12SchemaAttDefEEEibRNS_16XSerializeEngineE
libxerces-c-3.1.so:_ZN11xercesc_3_119XTemplateSerializer10loadObjectEPPNS_11RefVectorOfINS_15ContentSpecNodeEEEibRNS_16XSerializeEngineE
libxerces-c-3.1.so:_ZN11xercesc_3_119XTemplateSerializer10loadObjectEPPNS_11RefVectorOfINS_17DatatypeValidatorEEEibRNS_16XSerializeEngineE
libxerces-c-3.1.so:_ZN11xercesc_3_119XTemplateSerializer10loadObjectEPPNS_11RefVectorOfINS_17SchemaElementDeclEEEibRNS_16XSerializeEngineE
libxerces-c-3.1.so:_ZN11xercesc_3_119XTemplateSerializer10loadObjectEPPNS_11RefVectorOfINS_18IdentityConstraintEEEibRNS_16XSerializeEngineE
libxerces-c-3.1.so:_ZN11xercesc_3_119XTemplateSerializer10loadObjectEPPNS_11RefVectorOfINS_18XercesLocationPathEEEibRNS_16XSerializeEngineE
libxerces-c-3.1.so:_ZN11xercesc_3_119XTemplateSerializer10loadObjectEPPNS_11RefVectorOfINS_8IC_FieldEEEibRNS_16XSerializeEngineE
libxerces-c-3.1.so:_ZN11xercesc_3_119XTemplateSerializer10loadObjectEPPNS_11RefVectorOfINS_9XMLNumberEEEibNS2_10NumberTypeERNS_16XSerializeEngineE
libxerces-c-3.1.so:_ZN11xercesc_3_119XTemplateSerializer10loadObjectEPPNS_13ValueVectorOfIPNS_17SchemaElementDeclEEEibRNS_16XSerializeEngineE
libxerces-c-3.1.so:_ZN11xercesc_3_119XTemplateSerializer10loadObjectEPPNS_13ValueVectorOfIjEEibRNS_16XSerializeEngineE
libxerces-c-3.1.so:_ZN11xercesc_3_119XTemplateSerializer10loadObjectEPPNS_14RefHashTableOfINS_10XMLRefInfoENS_12StringHasherEEEibRNS_16XSerializeEngineE
libxerces-c-3.1.so:_ZN11xercesc_3_119XTemplateSerializer10loadObjectEPPNS_14RefHashTableOfINS_12KVStringPairENS_12StringHasherEEEibRNS_16XSerializeEngineE
libxerces-c-3.1.so:_ZN11xercesc_3_119XTemplateSerializer10loadObjectEPPNS_14RefHashTableOfINS_12XSAnnotationENS_9PtrHasherEEEibRNS_16XSerializeEngineE
libxerces-c-3.1.so:_ZN11xercesc_3_119XTemplateSerializer10loadObjectEPPNS_14RefHashTableOfINS_15ComplexTypeInfoENS_12StringHasherEEEibRNS_16XSerializeEngineE
libxerces-c-3.1.so:_ZN11xercesc_3_119XTemplateSerializer10loadObjectEPPNS_14RefHashTableOfINS_15XercesGroupInfoENS_12StringHasherEEEibRNS_16XSerializeEngineE
libxerces-c-3.1.so:_ZN11xercesc_3_119XTemplateSerializer10loadObjectEPPNS_14RefHashTableOfINS_17DatatypeValidatorENS_12StringHasherEEEibRNS_16XSerializeEngineE
libxerces-c-3.1.so:_ZN11xercesc_3_119XTemplateSerializer10loadObjectEPPNS_14RefHashTableOfINS_18XercesAttGroupInfoENS_12StringHasherEEEibRNS_16XSerializeEngineE
libxerces-c-3.1.so:_ZN11xercesc_3_119XTemplateSerializer10loadObjectEPPNS_14RefHashTableOfINS_7GrammarENS_12StringHasherEEEibRNS_16XSerializeEngineE
libxerces-c-3.1.so:_ZN11xercesc_3_119XTemplateSerializer10loadObjectEPPNS_14RefHashTableOfINS_9DTDAttDefENS_12StringHasherEEEibRNS_16XSerializeEngineE
libxerces-c-3.1.so:_ZN11xercesc_3_119XTemplateSerializer10loadObjectEPPNS_14RefHashTableOfINS_9XMLAttDefENS_12StringHasherEEEibRNS_16XSerializeEngineE
libxerces-c-3.1.so:_ZN11xercesc_3_119XTemplateSerializer10loadObjectEPPNS_16RefArrayVectorOfItEEibRNS_16XSerializeEngineE
libxerces-c-3.1.so:_ZN11xercesc_3_119XTemplateSerializer10loadObjectEPPNS_18RefHash3KeysIdPoolINS_17SchemaElementDeclENS_12StringHasherEEEibiRNS_16XSerializeEngineE
libxerces-c-3.1.so:_ZN11xercesc_3_119XTemplateSerializer10loadObjectEPPNS_19RefHash2KeysTableOfINS_12SchemaAttDefENS_12StringHasherEEEibRNS_16XSerializeEngineE
libxerces-c-3.1.so:_ZN11xercesc_3_119XTemplateSerializer10loadObjectEPPNS_19RefHash2KeysTableOfINS_13ValueVectorOfIPNS_17SchemaElementDeclEEENS_12StringHasherEEEibRNS_16XSerializeEngineE
libxerces-c-3.1.so:_ZN11xercesc_3_119XTemplateSerializer11storeObjectEPNS_10NameIdPoolINS_13DTDEntityDeclEEERNS_16XSerializeEngineE
libxerces-c-3.1.so:_ZN11xercesc_3_119XTemplateSerializer11storeObjectEPNS_10NameIdPoolINS_14DTDElementDeclEEERNS_16XSerializeEngineE
libxerces-c-3.1.so:_ZN11xercesc_3_119XTemplateSerializer11storeObjectEPNS_10NameIdPoolINS_15XMLNotationDeclEEERNS_16XSerializeEngineE
libxerces-c-3.1.so:_ZN11xercesc_3_119XTemplateSerializer11storeObjectEPNS_11RefVectorOfINS_10XercesStepEEERNS_16XSerializeEngineE
libxerces-c-3.1.so:_ZN11xercesc_3_119XTemplateSerializer11storeObjectEPNS_11RefVectorOfINS_12SchemaAttDefEEERNS_16XSerializeEngineE
libxerces-c-3.1.so:_ZN11xercesc_3_119XTemplateSerializer11storeObjectEPNS_11RefVectorOfINS_15ContentSpecNodeEEERNS_16XSerializeEngineE
libxerces-c-3.1.so:_ZN11xercesc_3_119XTemplateSerializer11storeObjectEPNS_11RefVectorOfINS_17DatatypeValidatorEEERNS_16XSerializeEngineE
libxerces-c-3.1.so:_ZN11xercesc_3_119XTemplateSerializer11storeObjectEPNS_11RefVectorOfINS_17SchemaElementDeclEEERNS_16XSerializeEngineE
libxerces-c-3.1.so:_ZN11xercesc_3_119XTemplateSerializer11storeObjectEPNS_11RefVectorOfINS_18IdentityConstraintEEERNS_16XSerializeEngineE
libxerces-c-3.1.so:_ZN11xercesc_3_119XTemplateSerializer11storeObjectEPNS_11RefVectorOfINS_18XercesLocationPathEEERNS_16XSerializeEngineE
libxerces-c-3.1.so:_ZN11xercesc_3_119XTemplateSerializer11storeObjectEPNS_11RefVectorOfINS_8IC_FieldEEERNS_16XSerializeEngineE
libxerces-c-3.1.so:_ZN11xercesc_3_119XTemplateSerializer11storeObjectEPNS_11RefVectorOfINS_9XMLNumberEEERNS_16XSerializeEngineE
libxerces-c-3.1.so:_ZN11xercesc_3_119XTemplateSerializer11storeObjectEPNS_13ValueVectorOfIPNS_17SchemaElementDeclEEERNS_16XSerializeEngineE
libxerces-c-3.1.so:_ZN11xercesc_3_119XTemplateSerializer11storeObjectEPNS_13ValueVectorOfIjEERNS_16XSerializeEngineE
libxerces-c-3.1.so:_ZN11xercesc_3_119XTemplateSerializer11storeObjectEPNS_14RefHashTableOfINS_10XMLRefInfoENS_12StringHasherEEERNS_16XSerializeEngineE
libxerces-c-3.1.so:_ZN11xercesc_3_119XTemplateSerializer11storeObjectEPNS_14RefHashTableOfINS_12KVStringPairENS_12StringHasherEEERNS_16XSerializeEngineE
libxerces-c-3.1.so:_ZN11xercesc_3_119XTemplateSerializer11storeObjectEPNS_14RefHashTableOfINS_12XSAnnotationENS_9PtrHasherEEERNS_16XSerializeEngineE
libxerces-c-3.1.so:_ZN11xercesc_3_119XTemplateSerializer11storeObjectEPNS_14RefHashTableOfINS_15ComplexTypeInfoENS_12StringHasherEEERNS_16XSerializeEngineE
libxerces-c-3.1.so:_ZN11xercesc_3_119XTemplateSerializer11storeObjectEPNS_14RefHashTableOfINS_15XercesGroupInfoENS_12StringHasherEEERNS_16XSerializeEngineE
libxerces-c-3.1.so:_ZN11xercesc_3_119XTemplateSerializer11storeObjectEPNS_14RefHashTableOfINS_17DatatypeValidatorENS_12StringHasherEEERNS_16XSerializeEngineE
libxerces-c-3.1.so:_ZN11xercesc_3_119XTemplateSerializer11storeObjectEPNS_14RefHashTableOfINS_18XercesAttGroupInfoENS_12StringHasherEEERNS_16XSerializeEngineE
libxerces-c-3.1.so:_ZN11xercesc_3_119XTemplateSerializer11storeObjectEPNS_14RefHashTableOfINS_7GrammarENS_12StringHasherEEERNS_16XSerializeEngineE
libxerces-c-3.1.so:_ZN11xercesc_3_119XTemplateSerializer11storeObjectEPNS_14RefHashTableOfINS_9DTDAttDefENS_12StringHasherEEERNS_16XSerializeEngineE
libxerces-c-3.1.so:_ZN11xercesc_3_119XTemplateSerializer11storeObjectEPNS_14RefHashTableOfINS_9XMLAttDefENS_12StringHasherEEERNS_16XSerializeEngineE
libxerces-c-3.1.so:_ZN11xercesc_3_119XTemplateSerializer11storeObjectEPNS_16RefArrayVectorOfItEERNS_16XSerializeEngineE
libxerces-c-3.1.so:_ZN11xercesc_3_119XTemplateSerializer11storeObjectEPNS_18RefHash3KeysIdPoolINS_17SchemaElementDeclENS_12StringHasherEEERNS_16XSerializeEngineE
libxerces-c-3.1.so:_ZN11xercesc_3_119XTemplateSerializer11storeObjectEPNS_19RefHash2KeysTableOfINS_12SchemaAttDefENS_12StringHasherEEERNS_16XSerializeEngineE
libxerces-c-3.1.so:_ZN11xercesc_3_119XTemplateSerializer11storeObjectEPNS_19RefHash2KeysTableOfINS_13ValueVectorOfIPNS_17SchemaElementDeclEEENS_12StringHasherEEERNS_16XSerializeEngineE
libxerces-c-3.1.so:_ZN11xercesc_3_120DOMCharacterDataImpl10appendDataEPKNS_7DOMNodeEPKt
libxerces-c-3.1.so:_ZN11xercesc_3_120DOMCharacterDataImpl10appendDataEPKNS_7DOMNodeEPKtm
libxerces-c-3.1.so:_ZN11xercesc_3_120DOMCharacterDataImpl10deleteDataEPKNS_7DOMNodeEmm
libxerces-c-3.1.so:_ZN11xercesc_3_120DOMCharacterDataImpl10insertDataEPKNS_7DOMNodeEmPKt
libxerces-c-3.1.so:_ZN11xercesc_3_120DOMCharacterDataImpl11replaceDataEPKNS_7DOMNodeEmmPKt
libxerces-c-3.1.so:_ZN11xercesc_3_120DOMCharacterDataImpl12setNodeValueEPKNS_7DOMNodeEPKt
libxerces-c-3.1.so:_ZN11xercesc_3_120DOMCharacterDataImpl13releaseBufferEv
libxerces-c-3.1.so:_ZN11xercesc_3_120DOMCharacterDataImpl7setDataEPKNS_7DOMNodeEPKt
libxerces-c-3.1.so:_ZN11xercesc_3_120DOMCharacterDataImplC1EPNS_11DOMDocumentEPKt
libxerces-c-3.1.so:_ZN11xercesc_3_120DOMCharacterDataImplC1EPNS_11DOMDocumentEPKtm
libxerces-c-3.1.so:_ZN11xercesc_3_120DOMCharacterDataImplC1ERKS0_
libxerces-c-3.1.so:_ZN11xercesc_3_120DOMCharacterDataImplC2EPNS_11DOMDocumentEPKt
libxerces-c-3.1.so:_ZN11xercesc_3_120DOMCharacterDataImplC2EPNS_11DOMDocumentEPKtm
libxerces-c-3.1.so:_ZN11xercesc_3_120DOMCharacterDataImplC2ERKS0_
libxerces-c-3.1.so:_ZN11xercesc_3_120DOMCharacterDataImplD1Ev
libxerces-c-3.1.so:_ZN11xercesc_3_120DOMCharacterDataImplD2Ev
libxerces-c-3.1.so:_ZN11xercesc_3_120DOMConfigurationImpl12setParameterEPKtPKv
libxerces-c-3.1.so:_ZN11xercesc_3_120DOMConfigurationImpl12setParameterEPKtb
libxerces-c-3.1.so:_ZN11xercesc_3_120DOMConfigurationImpl13setSchemaTypeEPKt
libxerces-c-3.1.so:_ZN11xercesc_3_120DOMConfigurationImpl15setErrorHandlerEPNS_15DOMErrorHandlerE
libxerces-c-3.1.so:_ZN11xercesc_3_120DOMConfigurationImpl17setSchemaLocationEPKt
libxerces-c-3.1.so:_ZN11xercesc_3_120DOMConfigurationImplC1EPNS_13MemoryManagerE
libxerces-c-3.1.so:_ZN11xercesc_3_120DOMConfigurationImplC2EPNS_13MemoryManagerE
libxerces-c-3.1.so:_ZN11xercesc_3_120DOMConfigurationImplD0Ev
libxerces-c-3.1.so:_ZN11xercesc_3_120DOMConfigurationImplD1Ev
libxerces-c-3.1.so:_ZN11xercesc_3_120DOMConfigurationImplD2Ev
libxerces-c-3.1.so:_ZN11xercesc_3_120DayDatatypeValidator11newInstanceEPNS_14RefHashTableOfINS_12KVStringPairENS_12StringHasherEEEPNS_16RefArrayVectorOfItEEiPNS_13MemoryManagerE
libxerces-c-3.1.so:_ZN11xercesc_3_120DayDatatypeValidator12createObjectEPNS_13MemoryManagerE
libxerces-c-3.1.so:_ZN11xercesc_3_120DayDatatypeValidator5parseEPKtPNS_13MemoryManagerE
libxerces-c-3.1.so:_ZN11xercesc_3_120DayDatatypeValidator5parseEPNS_11XMLDateTimeE
libxerces-c-3.1.so:_ZN11xercesc_3_120DayDatatypeValidator9serializeERNS_16XSerializeEngineE
libxerces-c-3.1.so:_ZN11xercesc_3_120DayDatatypeValidatorC1EPNS_13MemoryManagerE
libxerces-c-3.1.so:_ZN11xercesc_3_120DayDatatypeValidatorC1EPNS_17DatatypeValidatorEPNS_14RefHashTableOfINS_12KVStringPairENS_12StringHasherEEEPNS_16RefArrayVectorOfItEEiPNS_13MemoryManagerE
libxerces-c-3.1.so:_ZN11xercesc_3_120DayDatatypeValidatorC2EPNS_13MemoryManagerE
libxerces-c-3.1.so:_ZN11xercesc_3_120DayDatatypeValidatorC2EPNS_17DatatypeValidatorEPNS_14RefHashTableOfINS_12KVStringPairENS_12StringHasherEEEPNS_16RefArrayVectorOfItEEiPNS_13MemoryManagerE
libxerces-c-3.1.so:_ZN11xercesc_3_120DayDatatypeValidatorD0Ev
libxerces-c-3.1.so:_ZN11xercesc_3_120DayDatatypeValidatorD1Ev
libxerces-c-3.1.so:_ZN11xercesc_3_120DayDatatypeValidatorD2Ev
libxerces-c-3.1.so:_ZN11xercesc_3_120IconvGNUTransService14compareIStringEPKtS2_
libxerces-c-3.1.so:_ZN11xercesc_3_120IconvGNUTransService15compareNIStringEPKtS2_m
libxerces-c-3.1.so:_ZN11xercesc_3_120IconvGNUTransService20makeNewLCPTranscoderEPNS_13MemoryManagerE
libxerces-c-3.1.so:_ZN11xercesc_3_120IconvGNUTransService20makeNewXMLTranscoderEPKtRNS_15XMLTransService5CodesEmPNS_13MemoryManagerE
libxerces-c-3.1.so:_ZN11xercesc_3_120IconvGNUTransService9lowerCaseEPt
libxerces-c-3.1.so:_ZN11xercesc_3_120IconvGNUTransService9upperCaseEPt
libxerces-c-3.1.so:_ZN11xercesc_3_120IconvGNUTransServiceC1EPNS_13MemoryManagerE
libxerces-c-3.1.so:_ZN11xercesc_3_120IconvGNUTransServiceC2EPNS_13MemoryManagerE
libxerces-c-3.1.so:_ZN11xercesc_3_120IconvGNUTransServiceD0Ev
libxerces-c-3.1.so:_ZN11xercesc_3_120IconvGNUTransServiceD1Ev
libxerces-c-3.1.so:_ZN11xercesc_3_120IconvGNUTransServiceD2Ev
libxerces-c-3.1.so:_ZN11xercesc_3_120LocalFileInputSourceC1EPKtPNS_13MemoryManagerE
libxerces-c-3.1.so:_ZN11xercesc_3_120LocalFileInputSourceC1EPKtS2_PNS_13MemoryManagerE
libxerces-c-3.1.so:_ZN11xercesc_3_120LocalFileInputSourceC2EPKtPNS_13MemoryManagerE
libxerces-c-3.1.so:_ZN11xercesc_3_120LocalFileInputSourceC2EPKtS2_PNS_13MemoryManagerE
libxerces-c-3.1.so:_ZN11xercesc_3_120LocalFileInputSourceD0Ev
libxerces-c-3.1.so:_ZN11xercesc_3_120LocalFileInputSourceD1Ev
libxerces-c-3.1.so:_ZN11xercesc_3_120LocalFileInputSourceD2Ev
libxerces-c-3.1.so:_ZN11xercesc_3_120XMLIBM1047Transcoder11xlatThisOneEh
libxerces-c-3.1.so:_ZN11xercesc_3_120XMLIBM1047TranscoderC1EPKtmPNS_13MemoryManagerE
libxerces-c-3.1.so:_ZN11xercesc_3_120XMLIBM1047TranscoderC2EPKtmPNS_13MemoryManagerE
libxerces-c-3.1.so:_ZN11xercesc_3_120XMLIBM1047TranscoderD0Ev
libxerces-c-3.1.so:_ZN11xercesc_3_120XMLIBM1047TranscoderD1Ev
libxerces-c-3.1.so:_ZN11xercesc_3_120XMLIBM1047TranscoderD2Ev
libxerces-c-3.1.so:_ZN11xercesc_3_120XMLIBM1140Transcoder11xlatThisOneEh
libxerces-c-3.1.so:_ZN11xercesc_3_120XMLIBM1140TranscoderC1EPKtmPNS_13MemoryManagerE
libxerces-c-3.1.so:_ZN11xercesc_3_120XMLIBM1140TranscoderC2EPKtmPNS_13MemoryManagerE
libxerces-c-3.1.so:_ZN11xercesc_3_120XMLIBM1140TranscoderD0Ev
libxerces-c-3.1.so:_ZN11xercesc_3_120XMLIBM1140TranscoderD1Ev
libxerces-c-3.1.so:_ZN11xercesc_3_120XMLIBM1140TranscoderD2Ev
libxerces-c-3.1.so:_ZN11xercesc_3_120XMLSchemaDescription12createObjectEPNS_13MemoryManagerE
libxerces-c-3.1.so:_ZN11xercesc_3_120XMLSchemaDescription9serializeERNS_16XSerializeEngineE
libxerces-c-3.1.so:_ZN11xercesc_3_120XMLSchemaDescriptionC1EPNS_13MemoryManagerE
libxerces-c-3.1.so:_ZN11xercesc_3_120XMLSchemaDescriptionC2EPNS_13MemoryManagerE
libxerces-c-3.1.so:_ZN11xercesc_3_120XMLSchemaDescriptionD0Ev
libxerces-c-3.1.so:_ZN11xercesc_3_120XMLSchemaDescriptionD1Ev
libxerces-c-3.1.so:_ZN11xercesc_3_120XMLSchemaDescriptionD2Ev
libxerces-c-3.1.so:_ZN11xercesc_3_120XMLWin1252TranscoderC1EPKtmPNS_13MemoryManagerE
libxerces-c-3.1.so:_ZN11xercesc_3_120XMLWin1252TranscoderC2EPKtmPNS_13MemoryManagerE
libxerces-c-3.1.so:_ZN11xercesc_3_120XMLWin1252TranscoderD0Ev
libxerces-c-3.1.so:_ZN11xercesc_3_120XMLWin1252TranscoderD1Ev
libxerces-c-3.1.so:_ZN11xercesc_3_120XMLWin1252TranscoderD2Ev
libxerces-c-3.1.so:_ZN11xercesc_3_120XSElementDeclaration12getNamespaceEv
libxerces-c-3.1.so:_ZN11xercesc_3_120XSElementDeclaration16getNamespaceItemEv
libxerces-c-3.1.so:_ZN11xercesc_3_120XSElementDeclaration18getConstraintValueEv
libxerces-c-3.1.so:_ZN11xercesc_3_120XSElementDeclaration24isDisallowedSubstitutionENS_11XSConstants15DERIVATION_TYPEE
libxerces-c-3.1.so:_ZN11xercesc_3_120XSElementDeclaration28isSubstitutionGroupExclusionENS_11XSConstants15DERIVATION_TYPEE
libxerces-c-3.1.so:_ZN11xercesc_3_120XSElementDeclarationC1EPNS_17SchemaElementDeclEPNS_16XSTypeDefinitionEPS0_PNS_12XSAnnotationEPNS_10XSNamedMapINS_15XSIDCDefinitionEEEPNS_7XSModelENS_11XSConstants5SCOPEEPNS_23XSComplexTypeDefinitionEPNS_13MemoryManagerE
libxerces-c-3.1.so:_ZN11xercesc_3_120XSElementDeclarationC2EPNS_17SchemaElementDeclEPNS_16XSTypeDefinitionEPS0_PNS_12XSAnnotationEPNS_10XSNamedMapINS_15XSIDCDefinitionEEEPNS_7XSModelENS_11XSConstants5SCOPEEPNS_23XSComplexTypeDefinitionEPNS_13MemoryManagerE
libxerces-c-3.1.so:_ZN11xercesc_3_120XSElementDeclarationD0Ev
libxerces-c-3.1.so:_ZN11xercesc_3_120XSElementDeclarationD1Ev
libxerces-c-3.1.so:_ZN11xercesc_3_120XSElementDeclarationD2Ev
libxerces-c-3.1.so:_ZN11xercesc_3_121DOMImplementationImpl13createLSInputEPNS_13MemoryManagerE
libxerces-c-3.1.so:_ZN11xercesc_3_121DOMImplementationImpl14createDocumentEPKtS2_PNS_15DOMDocumentTypeEPNS_13MemoryManagerE
libxerces-c-3.1.so:_ZN11xercesc_3_121DOMImplementationImpl14createDocumentEPNS_13MemoryManagerE
libxerces-c-3.1.so:_ZN11xercesc_3_121DOMImplementationImpl14createLSOutputEPNS_13MemoryManagerE
libxerces-c-3.1.so:_ZN11xercesc_3_121DOMImplementationImpl14createLSParserENS_19DOMImplementationLS23DOMImplementationLSModeEPKtPNS_13MemoryManagerEPNS_14XMLGrammarPoolE
libxerces-c-3.1.so:_ZN11xercesc_3_121DOMImplementationImpl16getMsgLoader4DOMEv
libxerces-c-3.1.so:_ZN11xercesc_3_121DOMImplementationImpl18createDocumentTypeEPKtS2_S2_
libxerces-c-3.1.so:_ZN11xercesc_3_121DOMImplementationImpl18createLSSerializerEPNS_13MemoryManagerE
libxerces-c-3.1.so:_ZN11xercesc_3_121DOMImplementationImpl24getDOMImplementationImplEv
libxerces-c-3.1.so:_ZN11xercesc_3_121DateDatatypeValidator11newInstanceEPNS_14RefHashTableOfINS_12KVStringPairENS_12StringHasherEEEPNS_16RefArrayVectorOfItEEiPNS_13MemoryManagerE
libxerces-c-3.1.so:_ZN11xercesc_3_121DateDatatypeValidator12createObjectEPNS_13MemoryManagerE
libxerces-c-3.1.so:_ZN11xercesc_3_121DateDatatypeValidator5parseEPKtPNS_13MemoryManagerE
libxerces-c-3.1.so:_ZN11xercesc_3_121DateDatatypeValidator5parseEPNS_11XMLDateTimeE
libxerces-c-3.1.so:_ZN11xercesc_3_121DateDatatypeValidator9serializeERNS_16XSerializeEngineE
libxerces-c-3.1.so:_ZN11xercesc_3_121DateDatatypeValidatorC1EPNS_13MemoryManagerE
libxerces-c-3.1.so:_ZN11xercesc_3_121DateDatatypeValidatorC1EPNS_17DatatypeValidatorEPNS_14RefHashTableOfINS_12KVStringPairENS_12StringHasherEEEPNS_16RefArrayVectorOfItEEiPNS_13MemoryManagerE
libxerces-c-3.1.so:_ZN11xercesc_3_121DateDatatypeValidatorC2EPNS_13MemoryManagerE
libxerces-c-3.1.so:_ZN11xercesc_3_121DateDatatypeValidatorC2EPNS_17DatatypeValidatorEPNS_14RefHashTableOfINS_12KVStringPairENS_12StringHasherEEEPNS_16RefArrayVectorOfItEEiPNS_13MemoryManagerE
libxerces-c-3.1.so:_ZN11xercesc_3_121DateDatatypeValidatorD0Ev
libxerces-c-3.1.so:_ZN11xercesc_3_121DateDatatypeValidatorD1Ev
libxerces-c-3.1.so:_ZN11xercesc_3_121DateDatatypeValidatorD2Ev
libxerces-c-3.1.so:_ZN11xercesc_3_121GeneralAttributeCheck10initializeEv
libxerces-c-3.1.so:_ZN11xercesc_3_121GeneralAttributeCheck15checkAttributesEPKNS_10DOMElementEtPNS_14TraverseSchemaEbPNS_13ValueVectorOfIPNS_7DOMNodeEEE
libxerces-c-3.1.so:_ZN11xercesc_3_121GeneralAttributeCheck8validateEPKNS_10DOMElementEPKtS5_sPNS_14TraverseSchemaE
libxerces-c-3.1.so:_ZN11xercesc_3_121GeneralAttributeCheckC1EPNS_13MemoryManagerE
libxerces-c-3.1.so:_ZN11xercesc_3_121GeneralAttributeCheckC2EPNS_13MemoryManagerE
libxerces-c-3.1.so:_ZN11xercesc_3_121GeneralAttributeCheckD1Ev
libxerces-c-3.1.so:_ZN11xercesc_3_121GeneralAttributeCheckD2Ev
libxerces-c-3.1.so:_ZN11xercesc_3_121IconvGNULCPTranscoder16calcRequiredSizeEPKcPNS_13MemoryManagerE
libxerces-c-3.1.so:_ZN11xercesc_3_121IconvGNULCPTranscoder16calcRequiredSizeEPKtPNS_13MemoryManagerE
libxerces-c-3.1.so:_ZN11xercesc_3_121IconvGNULCPTranscoder9transcodeEPKcPNS_13MemoryManagerE
libxerces-c-3.1.so:_ZN11xercesc_3_121IconvGNULCPTranscoder9transcodeEPKcPtmPNS_13MemoryManagerE
libxerces-c-3.1.so:_ZN11xercesc_3_121IconvGNULCPTranscoder9transcodeEPKtPNS_13MemoryManagerE
libxerces-c-3.1.so:_ZN11xercesc_3_121IconvGNULCPTranscoder9transcodeEPKtPcmPNS_13MemoryManagerE
libxerces-c-3.1.so:_ZN11xercesc_3_121IconvGNULCPTranscoderC1EPvS1_mjPNS_13MemoryManagerE
libxerces-c-3.1.so:_ZN11xercesc_3_121IconvGNULCPTranscoderC2EPvS1_mjPNS_13MemoryManagerE
libxerces-c-3.1.so:_ZN11xercesc_3_121IconvGNULCPTranscoderD0Ev
libxerces-c-3.1.so:_ZN11xercesc_3_121IconvGNULCPTranscoderD1Ev
libxerces-c-3.1.so:_ZN11xercesc_3_121IconvGNULCPTranscoderD2Ev
libxerces-c-3.1.so:_ZN11xercesc_3_121ListDatatypeValidator11newInstanceEPNS_14RefHashTableOfINS_12KVStringPairENS_12StringHasherEEEPNS_16RefArrayVectorOfItEEiPNS_13MemoryManagerE
libxerces-c-3.1.so:_ZN11xercesc_3_121ListDatatypeValidator12checkContentEPKtPNS_17ValidationContextEbPNS_13MemoryManagerE
libxerces-c-3.1.so:_ZN11xercesc_3_121ListDatatypeValidator12checkContentEPNS_15BaseRefVectorOfItEEPKtPNS_17ValidationContextEbPNS_13MemoryManagerE
libxerces-c-3.1.so:_ZN11xercesc_3_121ListDatatypeValidator12createObjectEPNS_13MemoryManagerE
libxerces-c-3.1.so:_ZN11xercesc_3_121ListDatatypeValidator12inheritFacetEv
libxerces-c-3.1.so:_ZN11xercesc_3_121ListDatatypeValidator15checkValueSpaceEPKtPNS_13MemoryManagerE
libxerces-c-3.1.so:_ZN11xercesc_3_121ListDatatypeValidator16inspectFacetBaseEPNS_13MemoryManagerE
libxerces-c-3.1.so:_ZN11xercesc_3_121ListDatatypeValidator7compareEPKtS2_PNS_13MemoryManagerE
libxerces-c-3.1.so:_ZN11xercesc_3_121ListDatatypeValidator8validateEPKtPNS_17ValidationContextEPNS_13MemoryManagerE
libxerces-c-3.1.so:_ZN11xercesc_3_121ListDatatypeValidator9serializeERNS_16XSerializeEngineE
libxerces-c-3.1.so:_ZN11xercesc_3_121ListDatatypeValidatorC1EPNS_13MemoryManagerE
libxerces-c-3.1.so:_ZN11xercesc_3_121ListDatatypeValidatorC1EPNS_17DatatypeValidatorEPNS_14RefHashTableOfINS_12KVStringPairENS_12StringHasherEEEPNS_16RefArrayVectorOfItEEiPNS_13MemoryManagerE
libxerces-c-3.1.so:_ZN11xercesc_3_121ListDatatypeValidatorC2EPNS_13MemoryManagerE
libxerces-c-3.1.so:_ZN11xercesc_3_121ListDatatypeValidatorC2EPNS_17DatatypeValidatorEPNS_14RefHashTableOfINS_12KVStringPairENS_12StringHasherEEEPNS_16RefArrayVectorOfItEEiPNS_13MemoryManagerE
libxerces-c-3.1.so:_ZN11xercesc_3_121ListDatatypeValidatorD0Ev
libxerces-c-3.1.so:_ZN11xercesc_3_121ListDatatypeValidatorD1Ev
libxerces-c-3.1.so:_ZN11xercesc_3_121ListDatatypeValidatorD2Ev
libxerces-c-3.1.so:_ZN11xercesc_3_121LocalFileFormatTarget10writeCharsEPKhmPNS_12XMLFormatterE
libxerces-c-3.1.so:_ZN11xercesc_3_121LocalFileFormatTarget14ensureCapacityEm
libxerces-c-3.1.so:_ZN11xercesc_3_121LocalFileFormatTarget5flushEv
libxerces-c-3.1.so:_ZN11xercesc_3_121LocalFileFormatTargetC1EPKcPNS_13MemoryManagerE
libxerces-c-3.1.so:_ZN11xercesc_3_121LocalFileFormatTargetC1EPKtPNS_13MemoryManagerE
libxerces-c-3.1.so:_ZN11xercesc_3_121LocalFileFormatTargetC2EPKcPNS_13MemoryManagerE
libxerces-c-3.1.so:_ZN11xercesc_3_121LocalFileFormatTargetC2EPKtPNS_13MemoryManagerE
libxerces-c-3.1.so:_ZN11xercesc_3_121LocalFileFormatTargetD0Ev
libxerces-c-3.1.so:_ZN11xercesc_3_121LocalFileFormatTargetD1Ev
libxerces-c-3.1.so:_ZN11xercesc_3_121LocalFileFormatTargetD2Ev
libxerces-c-3.1.so:_ZN11xercesc_3_121NameDatatypeValidator11newInstanceEPNS_14RefHashTableOfINS_12KVStringPairENS_12StringHasherEEEPNS_16RefArrayVectorOfItEEiPNS_13MemoryManagerE
libxerces-c-3.1.so:_ZN11xercesc_3_121NameDatatypeValidator12createObjectEPNS_13MemoryManagerE
libxerces-c-3.1.so:_ZN11xercesc_3_121NameDatatypeValidator15checkValueSpaceEPKtPNS_13MemoryManagerE
libxerces-c-3.1.so:_ZN11xercesc_3_121NameDatatypeValidator7compareEPKtS2_PNS_13MemoryManagerE
libxerces-c-3.1.so:_ZN11xercesc_3_121NameDatatypeValidator8validateEPKtPNS_17ValidationContextEPNS_13MemoryManagerE
libxerces-c-3.1.so:_ZN11xercesc_3_121NameDatatypeValidator9serializeERNS_16XSerializeEngineE
libxerces-c-3.1.so:_ZN11xercesc_3_121NameDatatypeValidatorC1EPNS_13MemoryManagerE
libxerces-c-3.1.so:_ZN11xercesc_3_121NameDatatypeValidatorC1EPNS_17DatatypeValidatorEPNS_14RefHashTableOfINS_12KVStringPairENS_12StringHasherEEEPNS_16RefArrayVectorOfItEEiPNS_13MemoryManagerE
libxerces-c-3.1.so:_ZN11xercesc_3_121NameDatatypeValidatorC1EPNS_17DatatypeValidatorEPNS_14RefHashTableOfINS_12KVStringPairENS_12StringHasherEEEiNS1_13ValidatorTypeEPNS_13MemoryManagerE
libxerces-c-3.1.so:_ZN11xercesc_3_121NameDatatypeValidatorC2EPNS_13MemoryManagerE
libxerces-c-3.1.so:_ZN11xercesc_3_121NameDatatypeValidatorC2EPNS_17DatatypeValidatorEPNS_14RefHashTableOfINS_12KVStringPairENS_12StringHasherEEEPNS_16RefArrayVectorOfItEEiPNS_13MemoryManagerE
libxerces-c-3.1.so:_ZN11xercesc_3_121NameDatatypeValidatorC2EPNS_17DatatypeValidatorEPNS_14RefHashTableOfINS_12KVStringPairENS_12StringHasherEEEiNS1_13ValidatorTypeEPNS_13MemoryManagerE
libxerces-c-3.1.so:_ZN11xercesc_3_121NameDatatypeValidatorD0Ev
libxerces-c-3.1.so:_ZN11xercesc_3_121NameDatatypeValidatorD1Ev
libxerces-c-3.1.so:_ZN11xercesc_3_121NameDatatypeValidatorD2Ev
libxerces-c-3.1.so:_ZN11xercesc_3_121TimeDatatypeValidator11newInstanceEPNS_14RefHashTableOfINS_12KVStringPairENS_12StringHasherEEEPNS_16RefArrayVectorOfItEEiPNS_13MemoryManagerE
libxerces-c-3.1.so:_ZN11xercesc_3_121TimeDatatypeValidator12createObjectEPNS_13MemoryManagerE
libxerces-c-3.1.so:_ZN11xercesc_3_121TimeDatatypeValidator5parseEPKtPNS_13MemoryManagerE
libxerces-c-3.1.so:_ZN11xercesc_3_121TimeDatatypeValidator5parseEPNS_11XMLDateTimeE
libxerces-c-3.1.so:_ZN11xercesc_3_121TimeDatatypeValidator9serializeERNS_16XSerializeEngineE
libxerces-c-3.1.so:_ZN11xercesc_3_121TimeDatatypeValidatorC1EPNS_13MemoryManagerE
libxerces-c-3.1.so:_ZN11xercesc_3_121TimeDatatypeValidatorC1EPNS_17DatatypeValidatorEPNS_14RefHashTableOfINS_12KVStringPairENS_12StringHasherEEEPNS_16RefArrayVectorOfItEEiPNS_13MemoryManagerE
libxerces-c-3.1.so:_ZN11xercesc_3_121TimeDatatypeValidatorC2EPNS_13MemoryManagerE
libxerces-c-3.1.so:_ZN11xercesc_3_121TimeDatatypeValidatorC2EPNS_17DatatypeValidatorEPNS_14RefHashTableOfINS_12KVStringPairENS_12StringHasherEEEPNS_16RefArrayVectorOfItEEiPNS_13MemoryManagerE
libxerces-c-3.1.so:_ZN11xercesc_3_121TimeDatatypeValidatorD0Ev
libxerces-c-3.1.so:_ZN11xercesc_3_121TimeDatatypeValidatorD1Ev
libxerces-c-3.1.so:_ZN11xercesc_3_121TimeDatatypeValidatorD2Ev
libxerces-c-3.1.so:_ZN11xercesc_3_121ValidationContextImpl12setIdRefListEPNS_14RefHashTableOfINS_10XMLRefInfoENS_12StringHasherEEE
libxerces-c-3.1.so:_ZN11xercesc_3_121ValidationContextImpl14clearIdRefListEv
libxerces-c-3.1.so:_ZN11xercesc_3_121ValidationContextImpl15getURIForPrefixEPt
libxerces-c-3.1.so:_ZN11xercesc_3_121ValidationContextImpl15isPrefixUnknownEPt
libxerces-c-3.1.so:_ZN11xercesc_3_121ValidationContextImpl16toCheckIdRefListEb
libxerces-c-3.1.so:_ZN11xercesc_3_121ValidationContextImpl17setEntityDeclPoolEPKNS_10NameIdPoolINS_13DTDEntityDeclEEE
libxerces-c-3.1.so:_ZN11xercesc_3_121ValidationContextImpl5addIdEPKt
libxerces-c-3.1.so:_ZN11xercesc_3_121ValidationContextImpl8addIdRefEPKt
libxerces-c-3.1.so:_ZN11xercesc_3_121ValidationContextImplC1EPNS_13MemoryManagerE
libxerces-c-3.1.so:_ZN11xercesc_3_121ValidationContextImplC2EPNS_13MemoryManagerE
libxerces-c-3.1.so:_ZN11xercesc_3_121ValidationContextImplD0Ev
libxerces-c-3.1.so:_ZN11xercesc_3_121ValidationContextImplD1Ev
libxerces-c-3.1.so:_ZN11xercesc_3_121ValidationContextImplD2Ev
libxerces-c-3.1.so:_ZN11xercesc_3_121XML256TableTranscoder11transcodeToEPKtmPhmRmNS_13XMLTranscoder9UnRepOptsE
libxerces-c-3.1.so:_ZN11xercesc_3_121XML256TableTranscoder13transcodeFromEPKhmPtmRmPh
libxerces-c-3.1.so:_ZN11xercesc_3_121XML256TableTranscoder14canTranscodeToEj
libxerces-c-3.1.so:_ZN11xercesc_3_121XML256TableTranscoderC1EPKtmS2_PKNS_15XMLTransService8TransRecEmPNS_13MemoryManagerE
libxerces-c-3.1.so:_ZN11xercesc_3_121XML256TableTranscoderC2EPKtmS2_PKNS_15XMLTransService8TransRecEmPNS_13MemoryManagerE
libxerces-c-3.1.so:_ZN11xercesc_3_121XML256TableTranscoderD0Ev
libxerces-c-3.1.so:_ZN11xercesc_3_121XML256TableTranscoderD1Ev
libxerces-c-3.1.so:_ZN11xercesc_3_121XML256TableTranscoderD2Ev
libxerces-c-3.1.so:_ZN11xercesc_3_121XMLDTDDescriptionImpl11setRootNameEPKt
libxerces-c-3.1.so:_ZN11xercesc_3_121XMLDTDDescriptionImpl11setSystemIdEPKt
libxerces-c-3.1.so:_ZN11xercesc_3_121XMLDTDDescriptionImpl12createObjectEPNS_13MemoryManagerE
libxerces-c-3.1.so:_ZN11xercesc_3_121XMLDTDDescriptionImpl9serializeERNS_16XSerializeEngineE
libxerces-c-3.1.so:_ZN11xercesc_3_121XMLDTDDescriptionImplC1EPKtPNS_13MemoryManagerE
libxerces-c-3.1.so:_ZN11xercesc_3_121XMLDTDDescriptionImplC1EPNS_13MemoryManagerE
libxerces-c-3.1.so:_ZN11xercesc_3_121XMLDTDDescriptionImplC2EPKtPNS_13MemoryManagerE
libxerces-c-3.1.so:_ZN11xercesc_3_121XMLDTDDescriptionImplC2EPNS_13MemoryManagerE
libxerces-c-3.1.so:_ZN11xercesc_3_121XMLDTDDescriptionImplD0Ev
libxerces-c-3.1.so:_ZN11xercesc_3_121XMLDTDDescriptionImplD1Ev
libxerces-c-3.1.so:_ZN11xercesc_3_121XMLDTDDescriptionImplD2Ev
libxerces-c-3.1.so:_ZN11xercesc_3_121XMLGrammarDescription12createObjectEPNS_13MemoryManagerE
libxerces-c-3.1.so:_ZN11xercesc_3_121XMLGrammarDescription9serializeERNS_16XSerializeEngineE
libxerces-c-3.1.so:_ZN11xercesc_3_121XMLGrammarDescriptionC1EPNS_13MemoryManagerE
libxerces-c-3.1.so:_ZN11xercesc_3_121XMLGrammarDescriptionC2EPNS_13MemoryManagerE
libxerces-c-3.1.so:_ZN11xercesc_3_121XMLGrammarDescriptionD0Ev
libxerces-c-3.1.so:_ZN11xercesc_3_121XMLGrammarDescriptionD1Ev
libxerces-c-3.1.so:_ZN11xercesc_3_121XMLGrammarDescriptionD2Ev
libxerces-c-3.1.so:_ZN11xercesc_3_121XPathScannerForSchema8addTokenEPNS_13ValueVectorOfIiEEi
libxerces-c-3.1.so:_ZN11xercesc_3_121XPathScannerForSchemaC1EPNS_13XMLStringPoolE
libxerces-c-3.1.so:_ZN11xercesc_3_121XPathScannerForSchemaC2EPNS_13XMLStringPoolE
libxerces-c-3.1.so:_ZN11xercesc_3_121XSNotationDeclaration11getPublicIdEv
libxerces-c-3.1.so:_ZN11xercesc_3_121XSNotationDeclaration11getSystemIdEv
libxerces-c-3.1.so:_ZN11xercesc_3_121XSNotationDeclaration12getNamespaceEv
libxerces-c-3.1.so:_ZN11xercesc_3_121XSNotationDeclaration16getNamespaceItemEv
libxerces-c-3.1.so:_ZN11xercesc_3_121XSNotationDeclarationC1EPNS_15XMLNotationDeclEPNS_12XSAnnotationEPNS_7XSModelEPNS_13MemoryManagerE
libxerces-c-3.1.so:_ZN11xercesc_3_121XSNotationDeclarationC2EPNS_15XMLNotationDeclEPNS_12XSAnnotationEPNS_7XSModelEPNS_13MemoryManagerE
libxerces-c-3.1.so:_ZN11xercesc_3_121XSNotationDeclarationD0Ev
libxerces-c-3.1.so:_ZN11xercesc_3_121XSNotationDeclarationD1Ev
libxerces-c-3.1.so:_ZN11xercesc_3_121XSNotationDeclarationD2Ev
libxerces-c-3.1.so:_ZN11xercesc_3_121XercesElementWildcard13uriInWildcardEPNS_13SchemaGrammarEPNS_5QNameEjNS_15ContentSpecNode9NodeTypesEPNS_27SubstitutionGroupComparatorE
libxerces-c-3.1.so:_ZN11xercesc_3_121XercesElementWildcard17wildcardIntersectENS_15ContentSpecNode9NodeTypesEjS2_j
libxerces-c-3.1.so:_ZN11xercesc_3_121XercesElementWildcard8conflictEPNS_13SchemaGrammarENS_15ContentSpecNode9NodeTypesEPNS_5QNameES4_S6_PNS_27SubstitutionGroupComparatorE
libxerces-c-3.1.so:_ZN11xercesc_3_121YearDatatypeValidator11newInstanceEPNS_14RefHashTableOfINS_12KVStringPairENS_12StringHasherEEEPNS_16RefArrayVectorOfItEEiPNS_13MemoryManagerE
libxerces-c-3.1.so:_ZN11xercesc_3_121YearDatatypeValidator12createObjectEPNS_13MemoryManagerE
libxerces-c-3.1.so:_ZN11xercesc_3_121YearDatatypeValidator5parseEPKtPNS_13MemoryManagerE
libxerces-c-3.1.so:_ZN11xercesc_3_121YearDatatypeValidator5parseEPNS_11XMLDateTimeE
libxerces-c-3.1.so:_ZN11xercesc_3_121YearDatatypeValidator9serializeERNS_16XSerializeEngineE
libxerces-c-3.1.so:_ZN11xercesc_3_121YearDatatypeValidatorC1EPNS_13MemoryManagerE
libxerces-c-3.1.so:_ZN11xercesc_3_121YearDatatypeValidatorC1EPNS_17DatatypeValidatorEPNS_14RefHashTableOfINS_12KVStringPairENS_12StringHasherEEEPNS_16RefArrayVectorOfItEEiPNS_13MemoryManagerE
libxerces-c-3.1.so:_ZN11xercesc_3_121YearDatatypeValidatorC2EPNS_13MemoryManagerE
libxerces-c-3.1.so:_ZN11xercesc_3_121YearDatatypeValidatorC2EPNS_17DatatypeValidatorEPNS_14RefHashTableOfINS_12KVStringPairENS_12StringHasherEEEPNS_16RefArrayVectorOfItEEiPNS_13MemoryManagerE
libxerces-c-3.1.so:_ZN11xercesc_3_121YearDatatypeValidatorD0Ev
libxerces-c-3.1.so:_ZN11xercesc_3_121YearDatatypeValidatorD1Ev
libxerces-c-3.1.so:_ZN11xercesc_3_121YearDatatypeValidatorD2Ev
libxerces-c-3.1.so:_ZN11xercesc_3_122DOMEntityReferenceImpl11appendChildEPNS_7DOMNodeE
libxerces-c-3.1.so:_ZN11xercesc_3_122DOMEntityReferenceImpl11removeChildEPNS_7DOMNodeE
libxerces-c-3.1.so:_ZN11xercesc_3_122DOMEntityReferenceImpl11setReadOnlyEbb
libxerces-c-3.1.so:_ZN11xercesc_3_122DOMEntityReferenceImpl11setUserDataEPKtPvPNS_18DOMUserDataHandlerE
libxerces-c-3.1.so:_ZN11xercesc_3_122DOMEntityReferenceImpl12insertBeforeEPNS_7DOMNodeES2_
libxerces-c-3.1.so:_ZN11xercesc_3_122DOMEntityReferenceImpl12replaceChildEPNS_7DOMNodeES2_
libxerces-c-3.1.so:_ZN11xercesc_3_122DOMEntityReferenceImpl12setNodeValueEPKt
libxerces-c-3.1.so:_ZN11xercesc_3_122DOMEntityReferenceImpl14setTextContentEPKt
libxerces-c-3.1.so:_ZN11xercesc_3_122DOMEntityReferenceImpl7releaseEv
libxerces-c-3.1.so:_ZN11xercesc_3_122DOMEntityReferenceImpl9normalizeEv
libxerces-c-3.1.so:_ZN11xercesc_3_122DOMEntityReferenceImpl9setPrefixEPKt
libxerces-c-3.1.so:_ZN11xercesc_3_122DOMEntityReferenceImplC1EPNS_11DOMDocumentEPKt
libxerces-c-3.1.so:_ZN11xercesc_3_122DOMEntityReferenceImplC1EPNS_11DOMDocumentEPKtb
libxerces-c-3.1.so:_ZN11xercesc_3_122DOMEntityReferenceImplC1ERKS0_b
libxerces-c-3.1.so:_ZN11xercesc_3_122DOMEntityReferenceImplC2EPNS_11DOMDocumentEPKt
libxerces-c-3.1.so:_ZN11xercesc_3_122DOMEntityReferenceImplC2EPNS_11DOMDocumentEPKtb
libxerces-c-3.1.so:_ZN11xercesc_3_122DOMEntityReferenceImplC2ERKS0_b
libxerces-c-3.1.so:_ZN11xercesc_3_122DOMEntityReferenceImplD0Ev
libxerces-c-3.1.so:_ZN11xercesc_3_122DOMEntityReferenceImplD1Ev
libxerces-c-3.1.so:_ZN11xercesc_3_122DOMEntityReferenceImplD2Ev
libxerces-c-3.1.so:_ZN11xercesc_3_122DOMXPathExpressionImpl7cleanUpEv
libxerces-c-3.1.so:_ZN11xercesc_3_122DOMXPathExpressionImpl7releaseEv
libxerces-c-3.1.so:_ZN11xercesc_3_122DOMXPathExpressionImplC1EPKtPKNS_18DOMXPathNSResolverEPNS_13MemoryManagerE
libxerces-c-3.1.so:_ZN11xercesc_3_122DOMXPathExpressionImplC2EPKtPKNS_18DOMXPathNSResolverEPNS_13MemoryManagerE
libxerces-c-3.1.so:_ZN11xercesc_3_122DOMXPathExpressionImplD0Ev
libxerces-c-3.1.so:_ZN11xercesc_3_122DOMXPathExpressionImplD1Ev
libxerces-c-3.1.so:_ZN11xercesc_3_122DOMXPathExpressionImplD2Ev
libxerces-c-3.1.so:_ZN11xercesc_3_122DOMXPathNSResolverImpl19addNamespaceBindingEPKtS2_
libxerces-c-3.1.so:_ZN11xercesc_3_122DOMXPathNSResolverImpl7releaseEv
libxerces-c-3.1.so:_ZN11xercesc_3_122DOMXPathNSResolverImplC1EPKNS_7DOMNodeEPNS_13MemoryManagerE
libxerces-c-3.1.so:_ZN11xercesc_3_122DOMXPathNSResolverImplC2EPKNS_7DOMNodeEPNS_13MemoryManagerE
libxerces-c-3.1.so:_ZN11xercesc_3_122DOMXPathNSResolverImplD0Ev
libxerces-c-3.1.so:_ZN11xercesc_3_122DOMXPathNSResolverImplD1Ev
libxerces-c-3.1.so:_ZN11xercesc_3_122DOMXPathNSResolverImplD2Ev
libxerces-c-3.1.so:_ZN11xercesc_3_122FloatDatatypeValidator11newInstanceEPNS_14RefHashTableOfINS_12KVStringPairENS_12StringHasherEEEPNS_16RefArrayVectorOfItEEiPNS_13MemoryManagerE
libxerces-c-3.1.so:_ZN11xercesc_3_122FloatDatatypeValidator12checkContentEPKtPNS_17ValidationContextEbPNS_13MemoryManagerE
libxerces-c-3.1.so:_ZN11xercesc_3_122FloatDatatypeValidator12createObjectEPNS_13MemoryManagerE
libxerces-c-3.1.so:_ZN11xercesc_3_122FloatDatatypeValidator13compareValuesEPKNS_9XMLNumberES3_
libxerces-c-3.1.so:_ZN11xercesc_3_122FloatDatatypeValidator14setEnumerationEPNS_13MemoryManagerE
libxerces-c-3.1.so:_ZN11xercesc_3_122FloatDatatypeValidator15setMaxExclusiveEPKt
libxerces-c-3.1.so:_ZN11xercesc_3_122FloatDatatypeValidator15setMaxInclusiveEPKt
libxerces-c-3.1.so:_ZN11xercesc_3_122FloatDatatypeValidator15setMinExclusiveEPKt
libxerces-c-3.1.so:_ZN11xercesc_3_122FloatDatatypeValidator15setMinInclusiveEPKt
libxerces-c-3.1.so:_ZN11xercesc_3_122FloatDatatypeValidator7compareEPKtS2_PNS_13MemoryManagerE
libxerces-c-3.1.so:_ZN11xercesc_3_122FloatDatatypeValidator9serializeERNS_16XSerializeEngineE
libxerces-c-3.1.so:_ZN11xercesc_3_122FloatDatatypeValidatorC1EPNS_13MemoryManagerE
libxerces-c-3.1.so:_ZN11xercesc_3_122FloatDatatypeValidatorC1EPNS_17DatatypeValidatorEPNS_14RefHashTableOfINS_12KVStringPairENS_12StringHasherEEEPNS_16RefArrayVectorOfItEEiPNS_13MemoryManagerE
libxerces-c-3.1.so:_ZN11xercesc_3_122FloatDatatypeValidatorC1EPNS_17DatatypeValidatorEPNS_14RefHashTableOfINS_12KVStringPairENS_12StringHasherEEEiNS1_13ValidatorTypeEPNS_13MemoryManagerE
libxerces-c-3.1.so:_ZN11xercesc_3_122FloatDatatypeValidatorC2EPNS_13MemoryManagerE
libxerces-c-3.1.so:_ZN11xercesc_3_122FloatDatatypeValidatorC2EPNS_17DatatypeValidatorEPNS_14RefHashTableOfINS_12KVStringPairENS_12StringHasherEEEPNS_16RefArrayVectorOfItEEiPNS_13MemoryManagerE
libxerces-c-3.1.so:_ZN11xercesc_3_122FloatDatatypeValidatorC2EPNS_17DatatypeValidatorEPNS_14RefHashTableOfINS_12KVStringPairENS_12StringHasherEEEiNS1_13ValidatorTypeEPNS_13MemoryManagerE
libxerces-c-3.1.so:_ZN11xercesc_3_122FloatDatatypeValidatorD0Ev
libxerces-c-3.1.so:_ZN11xercesc_3_122FloatDatatypeValidatorD1Ev
libxerces-c-3.1.so:_ZN11xercesc_3_122FloatDatatypeValidatorD2Ev
libxerces-c-3.1.so:_ZN11xercesc_3_122IDREFDatatypeValidator11newInstanceEPNS_14RefHashTableOfINS_12KVStringPairENS_12StringHasherEEEPNS_16RefArrayVectorOfItEEiPNS_13MemoryManagerE
libxerces-c-3.1.so:_ZN11xercesc_3_122IDREFDatatypeValidator12createObjectEPNS_13MemoryManagerE
libxerces-c-3.1.so:_ZN11xercesc_3_122IDREFDatatypeValidator15checkValueSpaceEPKtPNS_13MemoryManagerE
libxerces-c-3.1.so:_ZN11xercesc_3_122IDREFDatatypeValidator8validateEPKtPNS_17ValidationContextEPNS_13MemoryManagerE
libxerces-c-3.1.so:_ZN11xercesc_3_122IDREFDatatypeValidator9serializeERNS_16XSerializeEngineE
libxerces-c-3.1.so:_ZN11xercesc_3_122IDREFDatatypeValidatorC1EPNS_13MemoryManagerE
libxerces-c-3.1.so:_ZN11xercesc_3_122IDREFDatatypeValidatorC1EPNS_17DatatypeValidatorEPNS_14RefHashTableOfINS_12KVStringPairENS_12StringHasherEEEPNS_16RefArrayVectorOfItEEiPNS_13MemoryManagerE
libxerces-c-3.1.so:_ZN11xercesc_3_122IDREFDatatypeValidatorC1EPNS_17DatatypeValidatorEPNS_14RefHashTableOfINS_12KVStringPairENS_12StringHasherEEEiNS1_13ValidatorTypeEPNS_13MemoryManagerE
libxerces-c-3.1.so:_ZN11xercesc_3_122IDREFDatatypeValidatorC2EPNS_13MemoryManagerE
libxerces-c-3.1.so:_ZN11xercesc_3_122IDREFDatatypeValidatorC2EPNS_17DatatypeValidatorEPNS_14RefHashTableOfINS_12KVStringPairENS_12StringHasherEEEPNS_16RefArrayVectorOfItEEiPNS_13MemoryManagerE
libxerces-c-3.1.so:_ZN11xercesc_3_122IDREFDatatypeValidatorC2EPNS_17DatatypeValidatorEPNS_14RefHashTableOfINS_12KVStringPairENS_12StringHasherEEEiNS1_13ValidatorTypeEPNS_13MemoryManagerE
libxerces-c-3.1.so:_ZN11xercesc_3_122IDREFDatatypeValidatorD0Ev
libxerces-c-3.1.so:_ZN11xercesc_3_122IDREFDatatypeValidatorD1Ev
libxerces-c-3.1.so:_ZN11xercesc_3_122IDREFDatatypeValidatorD2Ev
libxerces-c-3.1.so:_ZN11xercesc_3_122MonthDatatypeValidator11newInstanceEPNS_14RefHashTableOfINS_12KVStringPairENS_12StringHasherEEEPNS_16RefArrayVectorOfItEEiPNS_13MemoryManagerE
libxerces-c-3.1.so:_ZN11xercesc_3_122MonthDatatypeValidator12createObjectEPNS_13MemoryManagerE
libxerces-c-3.1.so:_ZN11xercesc_3_122MonthDatatypeValidator5parseEPKtPNS_13MemoryManagerE
libxerces-c-3.1.so:_ZN11xercesc_3_122MonthDatatypeValidator5parseEPNS_11XMLDateTimeE
libxerces-c-3.1.so:_ZN11xercesc_3_122MonthDatatypeValidator9serializeERNS_16XSerializeEngineE
libxerces-c-3.1.so:_ZN11xercesc_3_122MonthDatatypeValidatorC1EPNS_13MemoryManagerE
libxerces-c-3.1.so:_ZN11xercesc_3_122MonthDatatypeValidatorC1EPNS_17DatatypeValidatorEPNS_14RefHashTableOfINS_12KVStringPairENS_12StringHasherEEEPNS_16RefArrayVectorOfItEEiPNS_13MemoryManagerE
libxerces-c-3.1.so:_ZN11xercesc_3_122MonthDatatypeValidatorC2EPNS_13MemoryManagerE
libxerces-c-3.1.so:_ZN11xercesc_3_122MonthDatatypeValidatorC2EPNS_17DatatypeValidatorEPNS_14RefHashTableOfINS_12KVStringPairENS_12StringHasherEEEPNS_16RefArrayVectorOfItEEiPNS_13MemoryManagerE
libxerces-c-3.1.so:_ZN11xercesc_3_122MonthDatatypeValidatorD0Ev
libxerces-c-3.1.so:_ZN11xercesc_3_122MonthDatatypeValidatorD1Ev
libxerces-c-3.1.so:_ZN11xercesc_3_122MonthDatatypeValidatorD2Ev
libxerces-c-3.1.so:_ZN11xercesc_3_122QNameDatatypeValidator11newInstanceEPNS_14RefHashTableOfINS_12KVStringPairENS_12StringHasherEEEPNS_16RefArrayVectorOfItEEiPNS_13MemoryManagerE
libxerces-c-3.1.so:_ZN11xercesc_3_122QNameDatatypeValidator12checkContentEPKtPNS_17ValidationContextEbPNS_13MemoryManagerE
libxerces-c-3.1.so:_ZN11xercesc_3_122QNameDatatypeValidator12createObjectEPNS_13MemoryManagerE
libxerces-c-3.1.so:_ZN11xercesc_3_122QNameDatatypeValidator15checkValueSpaceEPKtPNS_13MemoryManagerE
libxerces-c-3.1.so:_ZN11xercesc_3_122QNameDatatypeValidator16inspectFacetBaseEPNS_13MemoryManagerE
libxerces-c-3.1.so:_ZN11xercesc_3_122QNameDatatypeValidator9serializeERNS_16XSerializeEngineE
libxerces-c-3.1.so:_ZN11xercesc_3_122QNameDatatypeValidatorC1EPNS_13MemoryManagerE
libxerces-c-3.1.so:_ZN11xercesc_3_122QNameDatatypeValidatorC1EPNS_17DatatypeValidatorEPNS_14RefHashTableOfINS_12KVStringPairENS_12StringHasherEEEPNS_16RefArrayVectorOfItEEiPNS_13MemoryManagerE
libxerces-c-3.1.so:_ZN11xercesc_3_122QNameDatatypeValidatorC2EPNS_13MemoryManagerE
libxerces-c-3.1.so:_ZN11xercesc_3_122QNameDatatypeValidatorC2EPNS_17DatatypeValidatorEPNS_14RefHashTableOfINS_12KVStringPairENS_12StringHasherEEEPNS_16RefArrayVectorOfItEEiPNS_13MemoryManagerE
libxerces-c-3.1.so:_ZN11xercesc_3_122QNameDatatypeValidatorD0Ev
libxerces-c-3.1.so:_ZN11xercesc_3_122QNameDatatypeValidatorD1Ev
libxerces-c-3.1.so:_ZN11xercesc_3_122QNameDatatypeValidatorD2Ev
libxerces-c-3.1.so:_ZN11xercesc_3_122UnionDatatypeValidator12checkContentEPKtPNS_17ValidationContextEbPNS_13MemoryManagerE
libxerces-c-3.1.so:_ZN11xercesc_3_122UnionDatatypeValidator12createObjectEPNS_13MemoryManagerE
libxerces-c-3.1.so:_ZN11xercesc_3_122UnionDatatypeValidator4initEPNS_17DatatypeValidatorEPNS_14RefHashTableOfINS_12KVStringPairENS_12StringHasherEEEPNS_16RefArrayVectorOfItEEPNS_13MemoryManagerE
libxerces-c-3.1.so:_ZN11xercesc_3_122UnionDatatypeValidator7compareEPKtS2_PNS_13MemoryManagerE
libxerces-c-3.1.so:_ZN11xercesc_3_122UnionDatatypeValidator9serializeERNS_16XSerializeEngineE
libxerces-c-3.1.so:_ZN11xercesc_3_122UnionDatatypeValidatorC1EPNS_11RefVectorOfINS_17DatatypeValidatorEEEiPNS_13MemoryManagerE
libxerces-c-3.1.so:_ZN11xercesc_3_122UnionDatatypeValidatorC1EPNS_13MemoryManagerE
libxerces-c-3.1.so:_ZN11xercesc_3_122UnionDatatypeValidatorC1EPNS_17DatatypeValidatorEPNS_14RefHashTableOfINS_12KVStringPairENS_12StringHasherEEEPNS_16RefArrayVectorOfItEEiPNS_13MemoryManagerEPNS_11RefVectorOfIS1_EEb
libxerces-c-3.1.so:_ZN11xercesc_3_122UnionDatatypeValidatorC2EPNS_11RefVectorOfINS_17DatatypeValidatorEEEiPNS_13MemoryManagerE
libxerces-c-3.1.so:_ZN11xercesc_3_122UnionDatatypeValidatorC2EPNS_13MemoryManagerE
libxerces-c-3.1.so:_ZN11xercesc_3_122UnionDatatypeValidatorC2EPNS_17DatatypeValidatorEPNS_14RefHashTableOfINS_12KVStringPairENS_12StringHasherEEEPNS_16RefArrayVectorOfItEEiPNS_13MemoryManagerEPNS_11RefVectorOfIS1_EEb
libxerces-c-3.1.so:_ZN11xercesc_3_122UnionDatatypeValidatorD0Ev
libxerces-c-3.1.so:_ZN11xercesc_3_122UnionDatatypeValidatorD1Ev
libxerces-c-3.1.so:_ZN11xercesc_3_122UnionDatatypeValidatorD2Ev
libxerces-c-3.1.so:_ZN11xercesc_3_122XMLAbstractDoubleFloat12createObjectEPNS_13MemoryManagerE
libxerces-c-3.1.so:_ZN11xercesc_3_122XMLAbstractDoubleFloat12formatStringEv
libxerces-c-3.1.so:_ZN11xercesc_3_122XMLAbstractDoubleFloat13compareValuesEPKS0_S2_PNS_13MemoryManagerE
libxerces-c-3.1.so:_ZN11xercesc_3_122XMLAbstractDoubleFloat13normalizeZeroEPt
libxerces-c-3.1.so:_ZN11xercesc_3_122XMLAbstractDoubleFloat14compareSpecialEPKS0_PNS_13MemoryManagerE
libxerces-c-3.1.so:_ZN11xercesc_3_122XMLAbstractDoubleFloat21normalizeDecimalPointEPc
libxerces-c-3.1.so:_ZN11xercesc_3_122XMLAbstractDoubleFloat26getCanonicalRepresentationEPKtPNS_13MemoryManagerE
libxerces-c-3.1.so:_ZN11xercesc_3_122XMLAbstractDoubleFloat4initEPKt
libxerces-c-3.1.so:_ZN11xercesc_3_122XMLAbstractDoubleFloat7convertEPc
libxerces-c-3.1.so:_ZN11xercesc_3_122XMLAbstractDoubleFloat9serializeERNS_16XSerializeEngineE
libxerces-c-3.1.so:_ZN11xercesc_3_122XMLAbstractDoubleFloatC1EPNS_13MemoryManagerE
libxerces-c-3.1.so:_ZN11xercesc_3_122XMLAbstractDoubleFloatC2EPNS_13MemoryManagerE
libxerces-c-3.1.so:_ZN11xercesc_3_122XMLAbstractDoubleFloatD0Ev
libxerces-c-3.1.so:_ZN11xercesc_3_122XMLAbstractDoubleFloatD1Ev
libxerces-c-3.1.so:_ZN11xercesc_3_122XMLAbstractDoubleFloatD2Ev
libxerces-c-3.1.so:_ZN11xercesc_3_122XSAttributeDeclaration12getNamespaceEv
libxerces-c-3.1.so:_ZN11xercesc_3_122XSAttributeDeclaration16getNamespaceItemEv
libxerces-c-3.1.so:_ZN11xercesc_3_122XSAttributeDeclaration18getConstraintValueEv
libxerces-c-3.1.so:_ZN11xercesc_3_122XSAttributeDeclarationC1EPNS_12SchemaAttDefEPNS_22XSSimpleTypeDefinitionEPNS_12XSAnnotationEPNS_7XSModelENS_11XSConstants5SCOPEEPNS_23XSComplexTypeDefinitionEPNS_13MemoryManagerE
libxerces-c-3.1.so:_ZN11xercesc_3_122XSAttributeDeclarationC2EPNS_12SchemaAttDefEPNS_22XSSimpleTypeDefinitionEPNS_12XSAnnotationEPNS_7XSModelENS_11XSConstants5SCOPEEPNS_23XSComplexTypeDefinitionEPNS_13MemoryManagerE
libxerces-c-3.1.so:_ZN11xercesc_3_122XSAttributeDeclarationD0Ev
libxerces-c-3.1.so:_ZN11xercesc_3_122XSAttributeDeclarationD1Ev
libxerces-c-3.1.so:_ZN11xercesc_3_122XSAttributeDeclarationD2Ev
libxerces-c-3.1.so:_ZN11xercesc_3_122XSModelGroupDefinition12getNamespaceEv
libxerces-c-3.1.so:_ZN11xercesc_3_122XSModelGroupDefinition13getModelGroupEv
libxerces-c-3.1.so:_ZN11xercesc_3_122XSModelGroupDefinition16getNamespaceItemEv
libxerces-c-3.1.so:_ZN11xercesc_3_122XSModelGroupDefinitionC1EPNS_15XercesGroupInfoEPNS_10XSParticleEPNS_12XSAnnotationEPNS_7XSModelEPNS_13MemoryManagerE
libxerces-c-3.1.so:_ZN11xercesc_3_122XSModelGroupDefinitionC2EPNS_15XercesGroupInfoEPNS_10XSParticleEPNS_12XSAnnotationEPNS_7XSModelEPNS_13MemoryManagerE
libxerces-c-3.1.so:_ZN11xercesc_3_122XSModelGroupDefinitionD0Ev
libxerces-c-3.1.so:_ZN11xercesc_3_122XSModelGroupDefinitionD1Ev
libxerces-c-3.1.so:_ZN11xercesc_3_122XSModelGroupDefinitionD2Ev
libxerces-c-3.1.so:_ZN11xercesc_3_122XSSimpleTypeDefinition11getBaseTypeEv
libxerces-c-3.1.so:_ZN11xercesc_3_122XSSimpleTypeDefinition12getNamespaceEv
libxerces-c-3.1.so:_ZN11xercesc_3_122XSSimpleTypeDefinition12isFixedFacetENS0_5FACETE
libxerces-c-3.1.so:_ZN11xercesc_3_122XSSimpleTypeDefinition12setFacetInfoEiiPNS_11RefVectorOfINS_7XSFacetEEEPNS1_INS_17XSMultiValueFacetEEEPNS_16RefArrayVectorOfItEE
libxerces-c-3.1.so:_ZN11xercesc_3_122XSSimpleTypeDefinition14isDefinedFacetENS0_5FACETE
libxerces-c-3.1.so:_ZN11xercesc_3_122XSSimpleTypeDefinition15derivedFromTypeEPKNS_16XSTypeDefinitionE
libxerces-c-3.1.so:_ZN11xercesc_3_122XSSimpleTypeDefinition16getNamespaceItemEv
libxerces-c-3.1.so:_ZN11xercesc_3_122XSSimpleTypeDefinition20getLexicalFacetValueENS0_5FACETE
libxerces-c-3.1.so:_ZN11xercesc_3_122XSSimpleTypeDefinition21getLexicalEnumerationEv
libxerces-c-3.1.so:_ZN11xercesc_3_122XSSimpleTypeDefinitionC1EPNS_17DatatypeValidatorENS0_7VARIETYEPNS_16XSTypeDefinitionEPS0_PNS_11RefVectorOfIS0_EEPNS_12XSAnnotationEPNS_7XSModelEPNS_13MemoryManagerE
libxerces-c-3.1.so:_ZN11xercesc_3_122XSSimpleTypeDefinitionC2EPNS_17DatatypeValidatorENS0_7VARIETYEPNS_16XSTypeDefinitionEPS0_PNS_11RefVectorOfIS0_EEPNS_12XSAnnotationEPNS_7XSModelEPNS_13MemoryManagerE
libxerces-c-3.1.so:_ZN11xercesc_3_122XSSimpleTypeDefinitionD0Ev
libxerces-c-3.1.so:_ZN11xercesc_3_122XSSimpleTypeDefinitionD1Ev
libxerces-c-3.1.so:_ZN11xercesc_3_122XSSimpleTypeDefinitionD2Ev
libxerces-c-3.1.so:_ZN11xercesc_3_123AbstractStringValidator11assignFacetEPNS_13MemoryManagerE
libxerces-c-3.1.so:_ZN11xercesc_3_123AbstractStringValidator12checkContentEPKtPNS_17ValidationContextEbPNS_13MemoryManagerE
libxerces-c-3.1.so:_ZN11xercesc_3_123AbstractStringValidator12createObjectEPNS_13MemoryManagerE
libxerces-c-3.1.so:_ZN11xercesc_3_123AbstractStringValidator12inheritFacetEv
libxerces-c-3.1.so:_ZN11xercesc_3_123AbstractStringValidator12inspectFacetEPNS_13MemoryManagerE
libxerces-c-3.1.so:_ZN11xercesc_3_123AbstractStringValidator16inspectFacetBaseEPNS_13MemoryManagerE
libxerces-c-3.1.so:_ZN11xercesc_3_123AbstractStringValidator20normalizeEnumerationEPNS_13MemoryManagerE
libxerces-c-3.1.so:_ZN11xercesc_3_123AbstractStringValidator21assignAdditionalFacetEPKtS2_PNS_13MemoryManagerE
libxerces-c-3.1.so:_ZN11xercesc_3_123AbstractStringValidator22inheritAdditionalFacetEv
libxerces-c-3.1.so:_ZN11xercesc_3_123AbstractStringValidator4initEPNS_16RefArrayVectorOfItEEPNS_13MemoryManagerE
libxerces-c-3.1.so:_ZN11xercesc_3_123AbstractStringValidator7compareEPKtS2_PNS_13MemoryManagerE
libxerces-c-3.1.so:_ZN11xercesc_3_123AbstractStringValidator8validateEPKtPNS_17ValidationContextEPNS_13MemoryManagerE
libxerces-c-3.1.so:_ZN11xercesc_3_123AbstractStringValidator9serializeERNS_16XSerializeEngineE
libxerces-c-3.1.so:_ZN11xercesc_3_123AbstractStringValidatorC1EPNS_17DatatypeValidatorEPNS_14RefHashTableOfINS_12KVStringPairENS_12StringHasherEEEiNS1_13ValidatorTypeEPNS_13MemoryManagerE
libxerces-c-3.1.so:_ZN11xercesc_3_123AbstractStringValidatorC2EPNS_17DatatypeValidatorEPNS_14RefHashTableOfINS_12KVStringPairENS_12StringHasherEEEiNS1_13ValidatorTypeEPNS_13MemoryManagerE
libxerces-c-3.1.so:_ZN11xercesc_3_123AbstractStringValidatorD0Ev
libxerces-c-3.1.so:_ZN11xercesc_3_123AbstractStringValidatorD1Ev
libxerces-c-3.1.so:_ZN11xercesc_3_123AbstractStringValidatorD2Ev
libxerces-c-3.1.so:_ZN11xercesc_3_123AnyURIDatatypeValidator11newInstanceEPNS_14RefHashTableOfINS_12KVStringPairENS_12StringHasherEEEPNS_16RefArrayVectorOfItEEiPNS_13MemoryManagerE
libxerces-c-3.1.so:_ZN11xercesc_3_123AnyURIDatatypeValidator12createObjectEPNS_13MemoryManagerE
libxerces-c-3.1.so:_ZN11xercesc_3_123AnyURIDatatypeValidator15checkValueSpaceEPKtPNS_13MemoryManagerE
libxerces-c-3.1.so:_ZN11xercesc_3_123AnyURIDatatypeValidator6encodeEPKtmRNS_9XMLBufferEPNS_13MemoryManagerE
libxerces-c-3.1.so:_ZN11xercesc_3_123AnyURIDatatypeValidator9serializeERNS_16XSerializeEngineE
libxerces-c-3.1.so:_ZN11xercesc_3_123AnyURIDatatypeValidatorC1EPNS_13MemoryManagerE
libxerces-c-3.1.so:_ZN11xercesc_3_123AnyURIDatatypeValidatorC1EPNS_17DatatypeValidatorEPNS_14RefHashTableOfINS_12KVStringPairENS_12StringHasherEEEPNS_16RefArrayVectorOfItEEiPNS_13MemoryManagerE
libxerces-c-3.1.so:_ZN11xercesc_3_123AnyURIDatatypeValidatorC2EPNS_13MemoryManagerE
libxerces-c-3.1.so:_ZN11xercesc_3_123AnyURIDatatypeValidatorC2EPNS_17DatatypeValidatorEPNS_14RefHashTableOfINS_12KVStringPairENS_12StringHasherEEEPNS_16RefArrayVectorOfItEEiPNS_13MemoryManagerE
libxerces-c-3.1.so:_ZN11xercesc_3_123AnyURIDatatypeValidatorD0Ev
libxerces-c-3.1.so:_ZN11xercesc_3_123AnyURIDatatypeValidatorD1Ev
libxerces-c-3.1.so:_ZN11xercesc_3_123AnyURIDatatypeValidatorD2Ev
libxerces-c-3.1.so:_ZN11xercesc_3_123DOMDocumentFragmentImpl11appendChildEPNS_7DOMNodeE
libxerces-c-3.1.so:_ZN11xercesc_3_123DOMDocumentFragmentImpl11removeChildEPNS_7DOMNodeE
libxerces-c-3.1.so:_ZN11xercesc_3_123DOMDocumentFragmentImpl11setUserDataEPKtPvPNS_18DOMUserDataHandlerE
libxerces-c-3.1.so:_ZN11xercesc_3_123DOMDocumentFragmentImpl12insertBeforeEPNS_7DOMNodeES2_
libxerces-c-3.1.so:_ZN11xercesc_3_123DOMDocumentFragmentImpl12replaceChildEPNS_7DOMNodeES2_
libxerces-c-3.1.so:_ZN11xercesc_3_123DOMDocumentFragmentImpl12setNodeValueEPKt
libxerces-c-3.1.so:_ZN11xercesc_3_123DOMDocumentFragmentImpl14setTextContentEPKt
libxerces-c-3.1.so:_ZN11xercesc_3_123DOMDocumentFragmentImpl7releaseEv
libxerces-c-3.1.so:_ZN11xercesc_3_123DOMDocumentFragmentImpl9normalizeEv
libxerces-c-3.1.so:_ZN11xercesc_3_123DOMDocumentFragmentImpl9setPrefixEPKt
libxerces-c-3.1.so:_ZN11xercesc_3_123DOMDocumentFragmentImplC1EPNS_11DOMDocumentE
libxerces-c-3.1.so:_ZN11xercesc_3_123DOMDocumentFragmentImplC1ERKS0_b
libxerces-c-3.1.so:_ZN11xercesc_3_123DOMDocumentFragmentImplC2EPNS_11DOMDocumentE
libxerces-c-3.1.so:_ZN11xercesc_3_123DOMDocumentFragmentImplC2ERKS0_b
libxerces-c-3.1.so:_ZN11xercesc_3_123DOMDocumentFragmentImplD0Ev
libxerces-c-3.1.so:_ZN11xercesc_3_123DOMDocumentFragmentImplD1Ev
libxerces-c-3.1.so:_ZN11xercesc_3_123DOMDocumentFragmentImplD2Ev
libxerces-c-3.1.so:_ZN11xercesc_3_123DoubleDatatypeValidator11newInstanceEPNS_14RefHashTableOfINS_12KVStringPairENS_12StringHasherEEEPNS_16RefArrayVectorOfItEEiPNS_13MemoryManagerE
libxerces-c-3.1.so:_ZN11xercesc_3_123DoubleDatatypeValidator12checkContentEPKtPNS_17ValidationContextEbPNS_13MemoryManagerE
libxerces-c-3.1.so:_ZN11xercesc_3_123DoubleDatatypeValidator12createObjectEPNS_13MemoryManagerE
libxerces-c-3.1.so:_ZN11xercesc_3_123DoubleDatatypeValidator13compareValuesEPKNS_9XMLNumberES3_
libxerces-c-3.1.so:_ZN11xercesc_3_123DoubleDatatypeValidator14setEnumerationEPNS_13MemoryManagerE
libxerces-c-3.1.so:_ZN11xercesc_3_123DoubleDatatypeValidator15setMaxExclusiveEPKt
libxerces-c-3.1.so:_ZN11xercesc_3_123DoubleDatatypeValidator15setMaxInclusiveEPKt
libxerces-c-3.1.so:_ZN11xercesc_3_123DoubleDatatypeValidator15setMinExclusiveEPKt
libxerces-c-3.1.so:_ZN11xercesc_3_123DoubleDatatypeValidator15setMinInclusiveEPKt
libxerces-c-3.1.so:_ZN11xercesc_3_123DoubleDatatypeValidator7compareEPKtS2_PNS_13MemoryManagerE
libxerces-c-3.1.so:_ZN11xercesc_3_123DoubleDatatypeValidator9serializeERNS_16XSerializeEngineE
libxerces-c-3.1.so:_ZN11xercesc_3_123DoubleDatatypeValidatorC1EPNS_13MemoryManagerE
libxerces-c-3.1.so:_ZN11xercesc_3_123DoubleDatatypeValidatorC1EPNS_17DatatypeValidatorEPNS_14RefHashTableOfINS_12KVStringPairENS_12StringHasherEEEPNS_16RefArrayVectorOfItEEiPNS_13MemoryManagerE
libxerces-c-3.1.so:_ZN11xercesc_3_123DoubleDatatypeValidatorC1EPNS_17DatatypeValidatorEPNS_14RefHashTableOfINS_12KVStringPairENS_12StringHasherEEEiNS1_13ValidatorTypeEPNS_13MemoryManagerE
libxerces-c-3.1.so:_ZN11xercesc_3_123DoubleDatatypeValidatorC2EPNS_13MemoryManagerE
libxerces-c-3.1.so:_ZN11xercesc_3_123DoubleDatatypeValidatorC2EPNS_17DatatypeValidatorEPNS_14RefHashTableOfINS_12KVStringPairENS_12StringHasherEEEPNS_16RefArrayVectorOfItEEiPNS_13MemoryManagerE
libxerces-c-3.1.so:_ZN11xercesc_3_123DoubleDatatypeValidatorC2EPNS_17DatatypeValidatorEPNS_14RefHashTableOfINS_12KVStringPairENS_12StringHasherEEEiNS1_13ValidatorTypeEPNS_13MemoryManagerE
libxerces-c-3.1.so:_ZN11xercesc_3_123DoubleDatatypeValidatorD0Ev
libxerces-c-3.1.so:_ZN11xercesc_3_123DoubleDatatypeValidatorD1Ev
libxerces-c-3.1.so:_ZN11xercesc_3_123DoubleDatatypeValidatorD2Ev
libxerces-c-3.1.so:_ZN11xercesc_3_123ENTITYDatatypeValidator11newInstanceEPNS_14RefHashTableOfINS_12KVStringPairENS_12StringHasherEEEPNS_16RefArrayVectorOfItEEiPNS_13MemoryManagerE
libxerces-c-3.1.so:_ZN11xercesc_3_123ENTITYDatatypeValidator12createObjectEPNS_13MemoryManagerE
libxerces-c-3.1.so:_ZN11xercesc_3_123ENTITYDatatypeValidator15checkValueSpaceEPKtPNS_13MemoryManagerE
libxerces-c-3.1.so:_ZN11xercesc_3_123ENTITYDatatypeValidator7compareEPKtS2_PNS_13MemoryManagerE
libxerces-c-3.1.so:_ZN11xercesc_3_123ENTITYDatatypeValidator8validateEPKtPNS_17ValidationContextEPNS_13MemoryManagerE
libxerces-c-3.1.so:_ZN11xercesc_3_123ENTITYDatatypeValidator9serializeERNS_16XSerializeEngineE
libxerces-c-3.1.so:_ZN11xercesc_3_123ENTITYDatatypeValidatorC1EPNS_13MemoryManagerE
libxerces-c-3.1.so:_ZN11xercesc_3_123ENTITYDatatypeValidatorC1EPNS_17DatatypeValidatorEPNS_14RefHashTableOfINS_12KVStringPairENS_12StringHasherEEEPNS_16RefArrayVectorOfItEEiPNS_13MemoryManagerE
libxerces-c-3.1.so:_ZN11xercesc_3_123ENTITYDatatypeValidatorC2EPNS_13MemoryManagerE
libxerces-c-3.1.so:_ZN11xercesc_3_123ENTITYDatatypeValidatorC2EPNS_17DatatypeValidatorEPNS_14RefHashTableOfINS_12KVStringPairENS_12StringHasherEEEPNS_16RefArrayVectorOfItEEiPNS_13MemoryManagerE
libxerces-c-3.1.so:_ZN11xercesc_3_123ENTITYDatatypeValidatorD0Ev
libxerces-c-3.1.so:_ZN11xercesc_3_123ENTITYDatatypeValidatorD1Ev
libxerces-c-3.1.so:_ZN11xercesc_3_123ENTITYDatatypeValidatorD2Ev
libxerces-c-3.1.so:_ZN11xercesc_3_123NCNameDatatypeValidator11newInstanceEPNS_14RefHashTableOfINS_12KVStringPairENS_12StringHasherEEEPNS_16RefArrayVectorOfItEEiPNS_13MemoryManagerE
libxerces-c-3.1.so:_ZN11xercesc_3_123NCNameDatatypeValidator12createObjectEPNS_13MemoryManagerE
libxerces-c-3.1.so:_ZN11xercesc_3_123NCNameDatatypeValidator15checkValueSpaceEPKtPNS_13MemoryManagerE
libxerces-c-3.1.so:_ZN11xercesc_3_123NCNameDatatypeValidator7compareEPKtS2_PNS_13MemoryManagerE
libxerces-c-3.1.so:_ZN11xercesc_3_123NCNameDatatypeValidator8validateEPKtPNS_17ValidationContextEPNS_13MemoryManagerE
libxerces-c-3.1.so:_ZN11xercesc_3_123NCNameDatatypeValidator9serializeERNS_16XSerializeEngineE
libxerces-c-3.1.so:_ZN11xercesc_3_123NCNameDatatypeValidatorC1EPNS_13MemoryManagerE
libxerces-c-3.1.so:_ZN11xercesc_3_123NCNameDatatypeValidatorC1EPNS_17DatatypeValidatorEPNS_14RefHashTableOfINS_12KVStringPairENS_12StringHasherEEEPNS_16RefArrayVectorOfItEEiPNS_13MemoryManagerE
libxerces-c-3.1.so:_ZN11xercesc_3_123NCNameDatatypeValidatorC1EPNS_17DatatypeValidatorEPNS_14RefHashTableOfINS_12KVStringPairENS_12StringHasherEEEiNS1_13ValidatorTypeEPNS_13MemoryManagerE
libxerces-c-3.1.so:_ZN11xercesc_3_123NCNameDatatypeValidatorC2EPNS_13MemoryManagerE
libxerces-c-3.1.so:_ZN11xercesc_3_123NCNameDatatypeValidatorC2EPNS_17DatatypeValidatorEPNS_14RefHashTableOfINS_12KVStringPairENS_12StringHasherEEEPNS_16RefArrayVectorOfItEEiPNS_13MemoryManagerE
libxerces-c-3.1.so:_ZN11xercesc_3_123NCNameDatatypeValidatorC2EPNS_17DatatypeValidatorEPNS_14RefHashTableOfINS_12KVStringPairENS_12StringHasherEEEiNS1_13ValidatorTypeEPNS_13MemoryManagerE
libxerces-c-3.1.so:_ZN11xercesc_3_123NCNameDatatypeValidatorD0Ev
libxerces-c-3.1.so:_ZN11xercesc_3_123NCNameDatatypeValidatorD1Ev
libxerces-c-3.1.so:_ZN11xercesc_3_123NCNameDatatypeValidatorD2Ev
libxerces-c-3.1.so:_ZN11xercesc_3_123StringDatatypeValidator11newInstanceEPNS_14RefHashTableOfINS_12KVStringPairENS_12StringHasherEEEPNS_16RefArrayVectorOfItEEiPNS_13MemoryManagerE
libxerces-c-3.1.so:_ZN11xercesc_3_123StringDatatypeValidator12createObjectEPNS_13MemoryManagerE
libxerces-c-3.1.so:_ZN11xercesc_3_123StringDatatypeValidator15checkValueSpaceEPKtPNS_13MemoryManagerE
libxerces-c-3.1.so:_ZN11xercesc_3_123StringDatatypeValidator21assignAdditionalFacetEPKtS2_PNS_13MemoryManagerE
libxerces-c-3.1.so:_ZN11xercesc_3_123StringDatatypeValidator22inheritAdditionalFacetEv
libxerces-c-3.1.so:_ZN11xercesc_3_123StringDatatypeValidator9serializeERNS_16XSerializeEngineE
libxerces-c-3.1.so:_ZN11xercesc_3_123StringDatatypeValidatorC1EPNS_13MemoryManagerE
libxerces-c-3.1.so:_ZN11xercesc_3_123StringDatatypeValidatorC1EPNS_17DatatypeValidatorEPNS_14RefHashTableOfINS_12KVStringPairENS_12StringHasherEEEPNS_16RefArrayVectorOfItEEiPNS_13MemoryManagerE
libxerces-c-3.1.so:_ZN11xercesc_3_123StringDatatypeValidatorC1EPNS_17DatatypeValidatorEPNS_14RefHashTableOfINS_12KVStringPairENS_12StringHasherEEEiNS1_13ValidatorTypeEPNS_13MemoryManagerE
libxerces-c-3.1.so:_ZN11xercesc_3_123StringDatatypeValidatorC2EPNS_13MemoryManagerE
libxerces-c-3.1.so:_ZN11xercesc_3_123StringDatatypeValidatorC2EPNS_17DatatypeValidatorEPNS_14RefHashTableOfINS_12KVStringPairENS_12StringHasherEEEPNS_16RefArrayVectorOfItEEiPNS_13MemoryManagerE
libxerces-c-3.1.so:_ZN11xercesc_3_123StringDatatypeValidatorC2EPNS_17DatatypeValidatorEPNS_14RefHashTableOfINS_12KVStringPairENS_12StringHasherEEEiNS1_13ValidatorTypeEPNS_13MemoryManagerE
libxerces-c-3.1.so:_ZN11xercesc_3_123StringDatatypeValidatorD0Ev
libxerces-c-3.1.so:_ZN11xercesc_3_123StringDatatypeValidatorD1Ev
libxerces-c-3.1.so:_ZN11xercesc_3_123StringDatatypeValidatorD2Ev
libxerces-c-3.1.so:_ZN11xercesc_3_123XSComplexTypeDefinition11getBaseTypeEv
libxerces-c-3.1.so:_ZN11xercesc_3_123XSComplexTypeDefinition12getNamespaceEv
libxerces-c-3.1.so:_ZN11xercesc_3_123XSComplexTypeDefinition14getAnnotationsEv
libxerces-c-3.1.so:_ZN11xercesc_3_123XSComplexTypeDefinition15derivedFromTypeEPKNS_16XSTypeDefinitionE
libxerces-c-3.1.so:_ZN11xercesc_3_123XSComplexTypeDefinition16getNamespaceItemEv
libxerces-c-3.1.so:_ZN11xercesc_3_123XSComplexTypeDefinition24isProhibitedSubstitutionENS_11XSConstants15DERIVATION_TYPEE
libxerces-c-3.1.so:_ZN11xercesc_3_123XSComplexTypeDefinitionC1EPNS_15ComplexTypeInfoEPNS_10XSWildcardEPNS_22XSSimpleTypeDefinitionEPNS_11RefVectorOfINS_14XSAttributeUseEEEPNS_16XSTypeDefinitionEPNS_10XSParticleEPNS_12XSAnnotationEPNS_7XSModelEPNS_13MemoryManagerE
libxerces-c-3.1.so:_ZN11xercesc_3_123XSComplexTypeDefinitionC2EPNS_15ComplexTypeInfoEPNS_10XSWildcardEPNS_22XSSimpleTypeDefinitionEPNS_11RefVectorOfINS_14XSAttributeUseEEEPNS_16XSTypeDefinitionEPNS_10XSParticleEPNS_12XSAnnotationEPNS_7XSModelEPNS_13MemoryManagerE
libxerces-c-3.1.so:_ZN11xercesc_3_123XSComplexTypeDefinitionD0Ev
libxerces-c-3.1.so:_ZN11xercesc_3_123XSComplexTypeDefinitionD1Ev
libxerces-c-3.1.so:_ZN11xercesc_3_123XSComplexTypeDefinitionD2Ev
libxerces-c-3.1.so:_ZN11xercesc_3_124AbstractNumericValidator11boundsCheckEPKNS_9XMLNumberEPNS_13MemoryManagerE
libxerces-c-3.1.so:_ZN11xercesc_3_124AbstractNumericValidator12createObjectEPNS_13MemoryManagerE
libxerces-c-3.1.so:_ZN11xercesc_3_124AbstractNumericValidator8validateEPKtPNS_17ValidationContextEPNS_13MemoryManagerE
libxerces-c-3.1.so:_ZN11xercesc_3_124AbstractNumericValidator9serializeERNS_16XSerializeEngineE
libxerces-c-3.1.so:_ZN11xercesc_3_124AbstractNumericValidatorC1EPNS_17DatatypeValidatorEPNS_14RefHashTableOfINS_12KVStringPairENS_12StringHasherEEEiNS1_13ValidatorTypeEPNS_13MemoryManagerE
libxerces-c-3.1.so:_ZN11xercesc_3_124AbstractNumericValidatorC2EPNS_17DatatypeValidatorEPNS_14RefHashTableOfINS_12KVStringPairENS_12StringHasherEEEiNS1_13ValidatorTypeEPNS_13MemoryManagerE
libxerces-c-3.1.so:_ZN11xercesc_3_124AbstractNumericValidatorD0Ev
libxerces-c-3.1.so:_ZN11xercesc_3_124AbstractNumericValidatorD1Ev
libxerces-c-3.1.so:_ZN11xercesc_3_124AbstractNumericValidatorD2Ev
libxerces-c-3.1.so:_ZN11xercesc_3_124BooleanDatatypeValidator12checkContentEPKtPNS_17ValidationContextEbPNS_13MemoryManagerE
libxerces-c-3.1.so:_ZN11xercesc_3_124BooleanDatatypeValidator12createObjectEPNS_13MemoryManagerE
libxerces-c-3.1.so:_ZN11xercesc_3_124BooleanDatatypeValidator7compareEPKtS2_PNS_13MemoryManagerE
libxerces-c-3.1.so:_ZN11xercesc_3_124BooleanDatatypeValidator9serializeERNS_16XSerializeEngineE
libxerces-c-3.1.so:_ZN11xercesc_3_124BooleanDatatypeValidatorC1EPNS_17DatatypeValidatorEPNS_14RefHashTableOfINS_12KVStringPairENS_12StringHasherEEEPNS_16RefArrayVectorOfItEEiPNS_13MemoryManagerE
libxerces-c-3.1.so:_ZN11xercesc_3_124BooleanDatatypeValidatorC2EPNS_17DatatypeValidatorEPNS_14RefHashTableOfINS_12KVStringPairENS_12StringHasherEEEPNS_16RefArrayVectorOfItEEiPNS_13MemoryManagerE
libxerces-c-3.1.so:_ZN11xercesc_3_124DatatypeValidatorFactory12createObjectEPNS_13MemoryManagerE
libxerces-c-3.1.so:_ZN11xercesc_3_124DatatypeValidatorFactory13resetRegistryEv
libxerces-c-3.1.so:_ZN11xercesc_3_124DatatypeValidatorFactory14getCanRepGroupEPKNS_17DatatypeValidatorE
libxerces-c-3.1.so:_ZN11xercesc_3_124DatatypeValidatorFactory19initCanRepRegistoryEv
libxerces-c-3.1.so:_ZN11xercesc_3_124DatatypeValidatorFactory23createDatatypeValidatorEPKtPNS_11RefVectorOfINS_17DatatypeValidatorEEEibPNS_13MemoryManagerE
libxerces-c-3.1.so:_ZN11xercesc_3_124DatatypeValidatorFactory23createDatatypeValidatorEPKtPNS_17DatatypeValidatorEPNS_14RefHashTableOfINS_12KVStringPairENS_12StringHasherEEEPNS_16RefArrayVectorOfItEEbibPNS_13MemoryManagerE
libxerces-c-3.1.so:_ZN11xercesc_3_124DatatypeValidatorFactory23getBuiltInBaseValidatorEPKNS_17DatatypeValidatorE
libxerces-c-3.1.so:_ZN11xercesc_3_124DatatypeValidatorFactory29expandRegistryToFullSchemaSetEv
libxerces-c-3.1.so:_ZN11xercesc_3_124DatatypeValidatorFactory9serializeERNS_16XSerializeEngineE
libxerces-c-3.1.so:_ZN11xercesc_3_124DatatypeValidatorFactoryC1EPNS_13MemoryManagerE
libxerces-c-3.1.so:_ZN11xercesc_3_124DatatypeValidatorFactoryC2EPNS_13MemoryManagerE
libxerces-c-3.1.so:_ZN11xercesc_3_124DatatypeValidatorFactoryD0Ev
libxerces-c-3.1.so:_ZN11xercesc_3_124DatatypeValidatorFactoryD1Ev
libxerces-c-3.1.so:_ZN11xercesc_3_124DatatypeValidatorFactoryD2Ev
libxerces-c-3.1.so:_ZN11xercesc_3_124DecimalDatatypeValidator11newInstanceEPNS_14RefHashTableOfINS_12KVStringPairENS_12StringHasherEEEPNS_16RefArrayVectorOfItEEiPNS_13MemoryManagerE
libxerces-c-3.1.so:_ZN11xercesc_3_124DecimalDatatypeValidator12checkContentEPKtPNS_17ValidationContextEbPNS_13MemoryManagerE
libxerces-c-3.1.so:_ZN11xercesc_3_124DecimalDatatypeValidator12createObjectEPNS_13MemoryManagerE
libxerces-c-3.1.so:_ZN11xercesc_3_124DecimalDatatypeValidator13compareValuesEPKNS_9XMLNumberES3_
libxerces-c-3.1.so:_ZN11xercesc_3_124DecimalDatatypeValidator14setEnumerationEPNS_13MemoryManagerE
libxerces-c-3.1.so:_ZN11xercesc_3_124DecimalDatatypeValidator15setMaxExclusiveEPKt
libxerces-c-3.1.so:_ZN11xercesc_3_124DecimalDatatypeValidator15setMaxInclusiveEPKt
libxerces-c-3.1.so:_ZN11xercesc_3_124DecimalDatatypeValidator15setMinExclusiveEPKt
libxerces-c-3.1.so:_ZN11xercesc_3_124DecimalDatatypeValidator15setMinInclusiveEPKt
libxerces-c-3.1.so:_ZN11xercesc_3_124DecimalDatatypeValidator21assignAdditionalFacetEPKtS2_PNS_13MemoryManagerE
libxerces-c-3.1.so:_ZN11xercesc_3_124DecimalDatatypeValidator22inheritAdditionalFacetEv
libxerces-c-3.1.so:_ZN11xercesc_3_124DecimalDatatypeValidator7compareEPKtS2_PNS_13MemoryManagerE
libxerces-c-3.1.so:_ZN11xercesc_3_124DecimalDatatypeValidator9serializeERNS_16XSerializeEngineE
libxerces-c-3.1.so:_ZN11xercesc_3_124DecimalDatatypeValidatorC1EPNS_13MemoryManagerE
libxerces-c-3.1.so:_ZN11xercesc_3_124DecimalDatatypeValidatorC1EPNS_17DatatypeValidatorEPNS_14RefHashTableOfINS_12KVStringPairENS_12StringHasherEEEPNS_16RefArrayVectorOfItEEiPNS_13MemoryManagerE
libxerces-c-3.1.so:_ZN11xercesc_3_124DecimalDatatypeValidatorC1EPNS_17DatatypeValidatorEPNS_14RefHashTableOfINS_12KVStringPairENS_12StringHasherEEEiNS1_13ValidatorTypeEPNS_13MemoryManagerE
libxerces-c-3.1.so:_ZN11xercesc_3_124DecimalDatatypeValidatorC2EPNS_13MemoryManagerE
libxerces-c-3.1.so:_ZN11xercesc_3_124DecimalDatatypeValidatorC2EPNS_17DatatypeValidatorEPNS_14RefHashTableOfINS_12KVStringPairENS_12StringHasherEEEPNS_16RefArrayVectorOfItEEiPNS_13MemoryManagerE
libxerces-c-3.1.so:_ZN11xercesc_3_124DecimalDatatypeValidatorC2EPNS_17DatatypeValidatorEPNS_14RefHashTableOfINS_12KVStringPairENS_12StringHasherEEEiNS1_13ValidatorTypeEPNS_13MemoryManagerE
libxerces-c-3.1.so:_ZN11xercesc_3_124DecimalDatatypeValidatorD0Ev
libxerces-c-3.1.so:_ZN11xercesc_3_124DecimalDatatypeValidatorD1Ev
libxerces-c-3.1.so:_ZN11xercesc_3_124DecimalDatatypeValidatorD2Ev
libxerces-c-3.1.so:_ZN11xercesc_3_124SAXNotSupportedExceptionC1EPKcPNS_13MemoryManagerE
libxerces-c-3.1.so:_ZN11xercesc_3_124SAXNotSupportedExceptionC1EPKtPNS_13MemoryManagerE
libxerces-c-3.1.so:_ZN11xercesc_3_124SAXNotSupportedExceptionC1EPNS_13MemoryManagerE
libxerces-c-3.1.so:_ZN11xercesc_3_124SAXNotSupportedExceptionC1ERKNS_12SAXExceptionE
libxerces-c-3.1.so:_ZN11xercesc_3_124SAXNotSupportedExceptionC2EPKcPNS_13MemoryManagerE
libxerces-c-3.1.so:_ZN11xercesc_3_124SAXNotSupportedExceptionC2EPKtPNS_13MemoryManagerE
libxerces-c-3.1.so:_ZN11xercesc_3_124SAXNotSupportedExceptionC2EPNS_13MemoryManagerE
libxerces-c-3.1.so:_ZN11xercesc_3_124SAXNotSupportedExceptionC2ERKNS_12SAXExceptionE
libxerces-c-3.1.so:_ZN11xercesc_3_124XMLSchemaDescriptionImpl12createObjectEPNS_13MemoryManagerE
libxerces-c-3.1.so:_ZN11xercesc_3_124XMLSchemaDescriptionImpl13setAttributesEPNS_9XMLAttDefE
libxerces-c-3.1.so:_ZN11xercesc_3_124XMLSchemaDescriptionImpl14setContextTypeENS_20XMLSchemaDescription11ContextTypeE
libxerces-c-3.1.so:_ZN11xercesc_3_124XMLSchemaDescriptionImpl16setLocationHintsEPKt
libxerces-c-3.1.so:_ZN11xercesc_3_124XMLSchemaDescriptionImpl18setTargetNamespaceEPKt
libxerces-c-3.1.so:_ZN11xercesc_3_124XMLSchemaDescriptionImpl22setTriggeringComponentEPNS_5QNameE
libxerces-c-3.1.so:_ZN11xercesc_3_124XMLSchemaDescriptionImpl23setEnclosingElementNameEPNS_5QNameE
libxerces-c-3.1.so:_ZN11xercesc_3_124XMLSchemaDescriptionImpl9serializeERNS_16XSerializeEngineE
libxerces-c-3.1.so:_ZN11xercesc_3_124XMLSchemaDescriptionImplC1EPKtPNS_13MemoryManagerE
libxerces-c-3.1.so:_ZN11xercesc_3_124XMLSchemaDescriptionImplC1EPNS_13MemoryManagerE
libxerces-c-3.1.so:_ZN11xercesc_3_124XMLSchemaDescriptionImplC2EPKtPNS_13MemoryManagerE
libxerces-c-3.1.so:_ZN11xercesc_3_124XMLSchemaDescriptionImplC2EPNS_13MemoryManagerE
libxerces-c-3.1.so:_ZN11xercesc_3_124XMLSchemaDescriptionImplD0Ev
libxerces-c-3.1.so:_ZN11xercesc_3_124XMLSchemaDescriptionImplD1Ev
libxerces-c-3.1.so:_ZN11xercesc_3_124XMLSchemaDescriptionImplD2Ev
libxerces-c-3.1.so:_ZN11xercesc_3_125ContentLeafNameTypeVector9setValuesEPPNS_5QNameEPNS_15ContentSpecNode9NodeTypesEm
libxerces-c-3.1.so:_ZN11xercesc_3_125ContentLeafNameTypeVectorC1EPNS_13MemoryManagerE
libxerces-c-3.1.so:_ZN11xercesc_3_125ContentLeafNameTypeVectorC1EPPNS_5QNameEPNS_15ContentSpecNode9NodeTypesEmPNS_13MemoryManagerE
libxerces-c-3.1.so:_ZN11xercesc_3_125ContentLeafNameTypeVectorC1ERKS0_
libxerces-c-3.1.so:_ZN11xercesc_3_125ContentLeafNameTypeVectorC2EPNS_13MemoryManagerE
libxerces-c-3.1.so:_ZN11xercesc_3_125ContentLeafNameTypeVectorC2EPPNS_5QNameEPNS_15ContentSpecNode9NodeTypesEmPNS_13MemoryManagerE
libxerces-c-3.1.so:_ZN11xercesc_3_125ContentLeafNameTypeVectorC2ERKS0_
libxerces-c-3.1.so:_ZN11xercesc_3_125ContentLeafNameTypeVectorD1Ev
libxerces-c-3.1.so:_ZN11xercesc_3_125ContentLeafNameTypeVectorD2Ev
libxerces-c-3.1.so:_ZN11xercesc_3_125DOMImplementationListImpl3addEPNS_17DOMImplementationE
libxerces-c-3.1.so:_ZN11xercesc_3_125DOMImplementationListImpl7releaseEv
libxerces-c-3.1.so:_ZN11xercesc_3_125DOMImplementationListImplC1Ev
libxerces-c-3.1.so:_ZN11xercesc_3_125DOMImplementationListImplC2Ev
libxerces-c-3.1.so:_ZN11xercesc_3_125DOMImplementationListImplD0Ev
libxerces-c-3.1.so:_ZN11xercesc_3_125DOMImplementationListImplD1Ev
libxerces-c-3.1.so:_ZN11xercesc_3_125DOMImplementationListImplD2Ev
libxerces-c-3.1.so:_ZN11xercesc_3_125DOMImplementationRegistry20getDOMImplementationEPKt
libxerces-c-3.1.so:_ZN11xercesc_3_125DOMImplementationRegistry24getDOMImplementationListEPKt
libxerces-c-3.1.so:_ZN11xercesc_3_125DOMImplementationRegistry9addSourceEPNS_23DOMImplementationSourceE
libxerces-c-3.1.so:_ZN11xercesc_3_125DateTimeDatatypeValidator11newInstanceEPNS_14RefHashTableOfINS_12KVStringPairENS_12StringHasherEEEPNS_16RefArrayVectorOfItEEiPNS_13MemoryManagerE
libxerces-c-3.1.so:_ZN11xercesc_3_125DateTimeDatatypeValidator12createObjectEPNS_13MemoryManagerE
libxerces-c-3.1.so:_ZN11xercesc_3_125DateTimeDatatypeValidator5parseEPKtPNS_13MemoryManagerE
libxerces-c-3.1.so:_ZN11xercesc_3_125DateTimeDatatypeValidator5parseEPNS_11XMLDateTimeE
libxerces-c-3.1.so:_ZN11xercesc_3_125DateTimeDatatypeValidator9serializeERNS_16XSerializeEngineE
libxerces-c-3.1.so:_ZN11xercesc_3_125DateTimeDatatypeValidatorC1EPNS_13MemoryManagerE
libxerces-c-3.1.so:_ZN11xercesc_3_125DateTimeDatatypeValidatorC1EPNS_17DatatypeValidatorEPNS_14RefHashTableOfINS_12KVStringPairENS_12StringHasherEEEPNS_16RefArrayVectorOfItEEiPNS_13MemoryManagerE
libxerces-c-3.1.so:_ZN11xercesc_3_125DateTimeDatatypeValidatorC2EPNS_13MemoryManagerE
libxerces-c-3.1.so:_ZN11xercesc_3_125DateTimeDatatypeValidatorC2EPNS_17DatatypeValidatorEPNS_14RefHashTableOfINS_12KVStringPairENS_12StringHasherEEEPNS_16RefArrayVectorOfItEEiPNS_13MemoryManagerE
libxerces-c-3.1.so:_ZN11xercesc_3_125DateTimeDatatypeValidatorD0Ev
libxerces-c-3.1.so:_ZN11xercesc_3_125DateTimeDatatypeValidatorD1Ev
libxerces-c-3.1.so:_ZN11xercesc_3_125DateTimeDatatypeValidatorD2Ev
libxerces-c-3.1.so:_ZN11xercesc_3_125DurationDatatypeValidator11newInstanceEPNS_14RefHashTableOfINS_12KVStringPairENS_12StringHasherEEEPNS_16RefArrayVectorOfItEEiPNS_13MemoryManagerE
libxerces-c-3.1.so:_ZN11xercesc_3_125DurationDatatypeValidator12compareDatesEPKNS_11XMLDateTimeES3_b
libxerces-c-3.1.so:_ZN11xercesc_3_125DurationDatatypeValidator12createObjectEPNS_13MemoryManagerE
libxerces-c-3.1.so:_ZN11xercesc_3_125DurationDatatypeValidator5parseEPKtPNS_13MemoryManagerE
libxerces-c-3.1.so:_ZN11xercesc_3_125DurationDatatypeValidator5parseEPNS_11XMLDateTimeE
libxerces-c-3.1.so:_ZN11xercesc_3_125DurationDatatypeValidator9serializeERNS_16XSerializeEngineE
libxerces-c-3.1.so:_ZN11xercesc_3_125DurationDatatypeValidatorC1EPNS_13MemoryManagerE
libxerces-c-3.1.so:_ZN11xercesc_3_125DurationDatatypeValidatorC1EPNS_17DatatypeValidatorEPNS_14RefHashTableOfINS_12KVStringPairENS_12StringHasherEEEPNS_16RefArrayVectorOfItEEiPNS_13MemoryManagerE
libxerces-c-3.1.so:_ZN11xercesc_3_125DurationDatatypeValidatorC2EPNS_13MemoryManagerE
libxerces-c-3.1.so:_ZN11xercesc_3_125DurationDatatypeValidatorC2EPNS_17DatatypeValidatorEPNS_14RefHashTableOfINS_12KVStringPairENS_12StringHasherEEEPNS_16RefArrayVectorOfItEEiPNS_13MemoryManagerE
libxerces-c-3.1.so:_ZN11xercesc_3_125DurationDatatypeValidatorD0Ev
libxerces-c-3.1.so:_ZN11xercesc_3_125DurationDatatypeValidatorD1Ev
libxerces-c-3.1.so:_ZN11xercesc_3_125DurationDatatypeValidatorD2Ev
libxerces-c-3.1.so:_ZN11xercesc_3_125IdentityConstraintHandler17deactivateContextEPNS_17SchemaElementDeclEPKtPNS_17ValidationContextEPNS_17DatatypeValidatorE
libxerces-c-3.1.so:_ZN11xercesc_3_125IdentityConstraintHandler19activateSelectorForEPNS_18IdentityConstraintEi
libxerces-c-3.1.so:_ZN11xercesc_3_125IdentityConstraintHandler26activateIdentityConstraintEPNS_17SchemaElementDeclEijPKtRKNS_11RefVectorOfINS_7XMLAttrEEEmPNS_17ValidationContextE
libxerces-c-3.1.so:_ZN11xercesc_3_125IdentityConstraintHandler5resetEv
libxerces-c-3.1.so:_ZN11xercesc_3_125IdentityConstraintHandler7cleanUpEv
libxerces-c-3.1.so:_ZN11xercesc_3_125IdentityConstraintHandlerC1EPNS_10XMLScannerEPNS_13MemoryManagerE
libxerces-c-3.1.so:_ZN11xercesc_3_125IdentityConstraintHandlerC2EPNS_10XMLScannerEPNS_13MemoryManagerE
libxerces-c-3.1.so:_ZN11xercesc_3_125IdentityConstraintHandlerD0Ev
libxerces-c-3.1.so:_ZN11xercesc_3_125IdentityConstraintHandlerD1Ev
libxerces-c-3.1.so:_ZN11xercesc_3_125IdentityConstraintHandlerD2Ev
libxerces-c-3.1.so:_ZN11xercesc_3_125MonthDayDatatypeValidator11newInstanceEPNS_14RefHashTableOfINS_12KVStringPairENS_12StringHasherEEEPNS_16RefArrayVectorOfItEEiPNS_13MemoryManagerE
libxerces-c-3.1.so:_ZN11xercesc_3_125MonthDayDatatypeValidator12createObjectEPNS_13MemoryManagerE
libxerces-c-3.1.so:_ZN11xercesc_3_125MonthDayDatatypeValidator5parseEPKtPNS_13MemoryManagerE
libxerces-c-3.1.so:_ZN11xercesc_3_125MonthDayDatatypeValidator5parseEPNS_11XMLDateTimeE
libxerces-c-3.1.so:_ZN11xercesc_3_125MonthDayDatatypeValidator9serializeERNS_16XSerializeEngineE
libxerces-c-3.1.so:_ZN11xercesc_3_125MonthDayDatatypeValidatorC1EPNS_13MemoryManagerE
libxerces-c-3.1.so:_ZN11xercesc_3_125MonthDayDatatypeValidatorC1EPNS_17DatatypeValidatorEPNS_14RefHashTableOfINS_12KVStringPairENS_12StringHasherEEEPNS_16RefArrayVectorOfItEEiPNS_13MemoryManagerE
libxerces-c-3.1.so:_ZN11xercesc_3_125MonthDayDatatypeValidatorC2EPNS_13MemoryManagerE
libxerces-c-3.1.so:_ZN11xercesc_3_125MonthDayDatatypeValidatorC2EPNS_17DatatypeValidatorEPNS_14RefHashTableOfINS_12KVStringPairENS_12StringHasherEEEPNS_16RefArrayVectorOfItEEiPNS_13MemoryManagerE
libxerces-c-3.1.so:_ZN11xercesc_3_125MonthDayDatatypeValidatorD0Ev
libxerces-c-3.1.so:_ZN11xercesc_3_125MonthDayDatatypeValidatorD1Ev
libxerces-c-3.1.so:_ZN11xercesc_3_125MonthDayDatatypeValidatorD2Ev
libxerces-c-3.1.so:_ZN11xercesc_3_125NOTATIONDatatypeValidator11newInstanceEPNS_14RefHashTableOfINS_12KVStringPairENS_12StringHasherEEEPNS_16RefArrayVectorOfItEEiPNS_13MemoryManagerE
libxerces-c-3.1.so:_ZN11xercesc_3_125NOTATIONDatatypeValidator12checkContentEPKtPNS_17ValidationContextEbPNS_13MemoryManagerE
libxerces-c-3.1.so:_ZN11xercesc_3_125NOTATIONDatatypeValidator12createObjectEPNS_13MemoryManagerE
libxerces-c-3.1.so:_ZN11xercesc_3_125NOTATIONDatatypeValidator15checkValueSpaceEPKtPNS_13MemoryManagerE
libxerces-c-3.1.so:_ZN11xercesc_3_125NOTATIONDatatypeValidator9serializeERNS_16XSerializeEngineE
libxerces-c-3.1.so:_ZN11xercesc_3_125NOTATIONDatatypeValidatorC1EPNS_13MemoryManagerE
libxerces-c-3.1.so:_ZN11xercesc_3_125NOTATIONDatatypeValidatorC1EPNS_17DatatypeValidatorEPNS_14RefHashTableOfINS_12KVStringPairENS_12StringHasherEEEPNS_16RefArrayVectorOfItEEiPNS_13MemoryManagerE
libxerces-c-3.1.so:_ZN11xercesc_3_125NOTATIONDatatypeValidatorC2EPNS_13MemoryManagerE
libxerces-c-3.1.so:_ZN11xercesc_3_125NOTATIONDatatypeValidatorC2EPNS_17DatatypeValidatorEPNS_14RefHashTableOfINS_12KVStringPairENS_12StringHasherEEEPNS_16RefArrayVectorOfItEEiPNS_13MemoryManagerE
libxerces-c-3.1.so:_ZN11xercesc_3_125NOTATIONDatatypeValidatorD0Ev
libxerces-c-3.1.so:_ZN11xercesc_3_125NOTATIONDatatypeValidatorD1Ev
libxerces-c-3.1.so:_ZN11xercesc_3_125NOTATIONDatatypeValidatorD2Ev
libxerces-c-3.1.so:_ZN11xercesc_3_125SAXNotRecognizedExceptionC1EPKcPNS_13MemoryManagerE
libxerces-c-3.1.so:_ZN11xercesc_3_125SAXNotRecognizedExceptionC1EPKtPNS_13MemoryManagerE
libxerces-c-3.1.so:_ZN11xercesc_3_125SAXNotRecognizedExceptionC1EPNS_13MemoryManagerE
libxerces-c-3.1.so:_ZN11xercesc_3_125SAXNotRecognizedExceptionC1ERKNS_12SAXExceptionE
libxerces-c-3.1.so:_ZN11xercesc_3_125SAXNotRecognizedExceptionC2EPKcPNS_13MemoryManagerE
libxerces-c-3.1.so:_ZN11xercesc_3_125SAXNotRecognizedExceptionC2EPKtPNS_13MemoryManagerE
libxerces-c-3.1.so:_ZN11xercesc_3_125SAXNotRecognizedExceptionC2EPNS_13MemoryManagerE
libxerces-c-3.1.so:_ZN11xercesc_3_125SAXNotRecognizedExceptionC2ERKNS_12SAXExceptionE
libxerces-c-3.1.so:_ZN11xercesc_3_125XMLSynchronizedStringPool8flushAllEv
libxerces-c-3.1.so:_ZN11xercesc_3_125XMLSynchronizedStringPool9addOrFindEPKt
libxerces-c-3.1.so:_ZN11xercesc_3_125XMLSynchronizedStringPoolC1EPKNS_13XMLStringPoolEjPNS_13MemoryManagerE
libxerces-c-3.1.so:_ZN11xercesc_3_125XMLSynchronizedStringPoolC2EPKNS_13XMLStringPoolEjPNS_13MemoryManagerE
libxerces-c-3.1.so:_ZN11xercesc_3_125XMLSynchronizedStringPoolD0Ev
libxerces-c-3.1.so:_ZN11xercesc_3_125XMLSynchronizedStringPoolD1Ev
libxerces-c-3.1.so:_ZN11xercesc_3_125XMLSynchronizedStringPoolD2Ev
libxerces-c-3.1.so:_ZN11xercesc_3_126HexBinaryDatatypeValidator11newInstanceEPNS_14RefHashTableOfINS_12KVStringPairENS_12StringHasherEEEPNS_16RefArrayVectorOfItEEiPNS_13MemoryManagerE
libxerces-c-3.1.so:_ZN11xercesc_3_126HexBinaryDatatypeValidator12createObjectEPNS_13MemoryManagerE
libxerces-c-3.1.so:_ZN11xercesc_3_126HexBinaryDatatypeValidator15checkValueSpaceEPKtPNS_13MemoryManagerE
libxerces-c-3.1.so:_ZN11xercesc_3_126HexBinaryDatatypeValidator9serializeERNS_16XSerializeEngineE
libxerces-c-3.1.so:_ZN11xercesc_3_126HexBinaryDatatypeValidatorC1EPNS_13MemoryManagerE
libxerces-c-3.1.so:_ZN11xercesc_3_126HexBinaryDatatypeValidatorC1EPNS_17DatatypeValidatorEPNS_14RefHashTableOfINS_12KVStringPairENS_12StringHasherEEEPNS_16RefArrayVectorOfItEEiPNS_13MemoryManagerE
libxerces-c-3.1.so:_ZN11xercesc_3_126HexBinaryDatatypeValidatorC2EPNS_13MemoryManagerE
libxerces-c-3.1.so:_ZN11xercesc_3_126HexBinaryDatatypeValidatorC2EPNS_17DatatypeValidatorEPNS_14RefHashTableOfINS_12KVStringPairENS_12StringHasherEEEPNS_16RefArrayVectorOfItEEiPNS_13MemoryManagerE
libxerces-c-3.1.so:_ZN11xercesc_3_126HexBinaryDatatypeValidatorD0Ev
libxerces-c-3.1.so:_ZN11xercesc_3_126HexBinaryDatatypeValidatorD1Ev
libxerces-c-3.1.so:_ZN11xercesc_3_126HexBinaryDatatypeValidatorD2Ev
libxerces-c-3.1.so:_ZN11xercesc_3_126XSAttributeGroupDefinition12getNamespaceEv
libxerces-c-3.1.so:_ZN11xercesc_3_126XSAttributeGroupDefinition16getNamespaceItemEv
libxerces-c-3.1.so:_ZN11xercesc_3_126XSAttributeGroupDefinitionC1EPNS_18XercesAttGroupInfoEPNS_11RefVectorOfINS_14XSAttributeUseEEEPNS_10XSWildcardEPNS_12XSAnnotationEPNS_7XSModelEPNS_13MemoryManagerE
libxerces-c-3.1.so:_ZN11xercesc_3_126XSAttributeGroupDefinitionC2EPNS_18XercesAttGroupInfoEPNS_11RefVectorOfINS_14XSAttributeUseEEEPNS_10XSWildcardEPNS_12XSAnnotationEPNS_7XSModelEPNS_13MemoryManagerE
libxerces-c-3.1.so:_ZN11xercesc_3_126XSAttributeGroupDefinitionD0Ev
libxerces-c-3.1.so:_ZN11xercesc_3_126XSAttributeGroupDefinitionD1Ev
libxerces-c-3.1.so:_ZN11xercesc_3_126XSAttributeGroupDefinitionD2Ev
libxerces-c-3.1.so:_ZN11xercesc_3_126YearMonthDatatypeValidator11newInstanceEPNS_14RefHashTableOfINS_12KVStringPairENS_12StringHasherEEEPNS_16RefArrayVectorOfItEEiPNS_13MemoryManagerE
libxerces-c-3.1.so:_ZN11xercesc_3_126YearMonthDatatypeValidator12createObjectEPNS_13MemoryManagerE
libxerces-c-3.1.so:_ZN11xercesc_3_126YearMonthDatatypeValidator5parseEPKtPNS_13MemoryManagerE
libxerces-c-3.1.so:_ZN11xercesc_3_126YearMonthDatatypeValidator5parseEPNS_11XMLDateTimeE
libxerces-c-3.1.so:_ZN11xercesc_3_126YearMonthDatatypeValidator9serializeERNS_16XSerializeEngineE
libxerces-c-3.1.so:_ZN11xercesc_3_126YearMonthDatatypeValidatorC1EPNS_13MemoryManagerE
libxerces-c-3.1.so:_ZN11xercesc_3_126YearMonthDatatypeValidatorC1EPNS_17DatatypeValidatorEPNS_14RefHashTableOfINS_12KVStringPairENS_12StringHasherEEEPNS_16RefArrayVectorOfItEEiPNS_13MemoryManagerE
libxerces-c-3.1.so:_ZN11xercesc_3_126YearMonthDatatypeValidatorC2EPNS_13MemoryManagerE
libxerces-c-3.1.so:_ZN11xercesc_3_126YearMonthDatatypeValidatorC2EPNS_17DatatypeValidatorEPNS_14RefHashTableOfINS_12KVStringPairENS_12StringHasherEEEPNS_16RefArrayVectorOfItEEiPNS_13MemoryManagerE
libxerces-c-3.1.so:_ZN11xercesc_3_126YearMonthDatatypeValidatorD0Ev
libxerces-c-3.1.so:_ZN11xercesc_3_126YearMonthDatatypeValidatorD1Ev
libxerces-c-3.1.so:_ZN11xercesc_3_126YearMonthDatatypeValidatorD2Ev
libxerces-c-3.1.so:_ZN11xercesc_3_127SubstitutionGroupComparator14isEquivalentToEPKNS_5QNameES3_
libxerces-c-3.1.so:_ZN11xercesc_3_127SubstitutionGroupComparator19isAllowedByWildcardEPNS_13SchemaGrammarEPNS_5QNameEjb
libxerces-c-3.1.so:_ZN11xercesc_3_128DOMProcessingInstructionImpl10deleteDataEmm
libxerces-c-3.1.so:_ZN11xercesc_3_128DOMProcessingInstructionImpl10setBaseURIEPKt
libxerces-c-3.1.so:_ZN11xercesc_3_128DOMProcessingInstructionImpl11appendChildEPNS_7DOMNodeE
libxerces-c-3.1.so:_ZN11xercesc_3_128DOMProcessingInstructionImpl11removeChildEPNS_7DOMNodeE
libxerces-c-3.1.so:_ZN11xercesc_3_128DOMProcessingInstructionImpl11setUserDataEPKtPvPNS_18DOMUserDataHandlerE
libxerces-c-3.1.so:_ZN11xercesc_3_128DOMProcessingInstructionImpl12insertBeforeEPNS_7DOMNodeES2_
libxerces-c-3.1.so:_ZN11xercesc_3_128DOMProcessingInstructionImpl12replaceChildEPNS_7DOMNodeES2_
libxerces-c-3.1.so:_ZN11xercesc_3_128DOMProcessingInstructionImpl12setNodeValueEPKt
libxerces-c-3.1.so:_ZN11xercesc_3_128DOMProcessingInstructionImpl14setTextContentEPKt
libxerces-c-3.1.so:_ZN11xercesc_3_128DOMProcessingInstructionImpl7releaseEv
libxerces-c-3.1.so:_ZN11xercesc_3_128DOMProcessingInstructionImpl7setDataEPKt
libxerces-c-3.1.so:_ZN11xercesc_3_128DOMProcessingInstructionImpl9normalizeEv
libxerces-c-3.1.so:_ZN11xercesc_3_128DOMProcessingInstructionImpl9setPrefixEPKt
libxerces-c-3.1.so:_ZN11xercesc_3_128DOMProcessingInstructionImpl9splitTextEm
libxerces-c-3.1.so:_ZN11xercesc_3_128DOMProcessingInstructionImplC1EPNS_11DOMDocumentEPKtS4_
libxerces-c-3.1.so:_ZN11xercesc_3_128DOMProcessingInstructionImplC1ERKS0_b
libxerces-c-3.1.so:_ZN11xercesc_3_128DOMProcessingInstructionImplC2EPNS_11DOMDocumentEPKtS4_
libxerces-c-3.1.so:_ZN11xercesc_3_128DOMProcessingInstructionImplC2ERKS0_b
libxerces-c-3.1.so:_ZN11xercesc_3_128DOMProcessingInstructionImplD0Ev
libxerces-c-3.1.so:_ZN11xercesc_3_128DOMProcessingInstructionImplD1Ev
libxerces-c-3.1.so:_ZN11xercesc_3_128DOMProcessingInstructionImplD2Ev
libxerces-c-3.1.so:_ZN11xercesc_3_128XIncludeDOMDocumentProcessor20doXIncludeDOMProcessEPKNS_11DOMDocumentEPNS_16XMLErrorReporterEPNS_16XMLEntityHandlerE
libxerces-c-3.1.so:_ZN11xercesc_3_129AbstractNumericFacetValidator11assignFacetEPNS_13MemoryManagerE
libxerces-c-3.1.so:_ZN11xercesc_3_129AbstractNumericFacetValidator11loadClusiveERNS_16XSerializeEngineERbRPNS_9XMLNumberENS4_10NumberTypeEi
libxerces-c-3.1.so:_ZN11xercesc_3_129AbstractNumericFacetValidator12createObjectEPNS_13MemoryManagerE
libxerces-c-3.1.so:_ZN11xercesc_3_129AbstractNumericFacetValidator12inheritFacetEv
libxerces-c-3.1.so:_ZN11xercesc_3_129AbstractNumericFacetValidator12inspectFacetEPNS_13MemoryManagerE
libxerces-c-3.1.so:_ZN11xercesc_3_129AbstractNumericFacetValidator12storeClusiveERNS_16XSerializeEngineEbPNS_9XMLNumberE
libxerces-c-3.1.so:_ZN11xercesc_3_129AbstractNumericFacetValidator16inspectFacetBaseEPNS_13MemoryManagerE
libxerces-c-3.1.so:_ZN11xercesc_3_129AbstractNumericFacetValidator21assignAdditionalFacetEPKtS2_PNS_13MemoryManagerE
libxerces-c-3.1.so:_ZN11xercesc_3_129AbstractNumericFacetValidator22inheritAdditionalFacetEv
libxerces-c-3.1.so:_ZN11xercesc_3_129AbstractNumericFacetValidator4initEPNS_16RefArrayVectorOfItEEPNS_13MemoryManagerE
libxerces-c-3.1.so:_ZN11xercesc_3_129AbstractNumericFacetValidator9serializeERNS_16XSerializeEngineE
libxerces-c-3.1.so:_ZN11xercesc_3_129AbstractNumericFacetValidatorC1EPNS_17DatatypeValidatorEPNS_14RefHashTableOfINS_12KVStringPairENS_12StringHasherEEEiNS1_13ValidatorTypeEPNS_13MemoryManagerE
libxerces-c-3.1.so:_ZN11xercesc_3_129AbstractNumericFacetValidatorC2EPNS_17DatatypeValidatorEPNS_14RefHashTableOfINS_12KVStringPairENS_12StringHasherEEEiNS1_13ValidatorTypeEPNS_13MemoryManagerE
libxerces-c-3.1.so:_ZN11xercesc_3_129AbstractNumericFacetValidatorD0Ev
libxerces-c-3.1.so:_ZN11xercesc_3_129AbstractNumericFacetValidatorD1Ev
libxerces-c-3.1.so:_ZN11xercesc_3_129AbstractNumericFacetValidatorD2Ev
libxerces-c-3.1.so:_ZN11xercesc_3_129Base64BinaryDatatypeValidator11newInstanceEPNS_14RefHashTableOfINS_12KVStringPairENS_12StringHasherEEEPNS_16RefArrayVectorOfItEEiPNS_13MemoryManagerE
libxerces-c-3.1.so:_ZN11xercesc_3_129Base64BinaryDatatypeValidator12createObjectEPNS_13MemoryManagerE
libxerces-c-3.1.so:_ZN11xercesc_3_129Base64BinaryDatatypeValidator15checkValueSpaceEPKtPNS_13MemoryManagerE
libxerces-c-3.1.so:_ZN11xercesc_3_129Base64BinaryDatatypeValidator20normalizeEnumerationEPNS_13MemoryManagerE
libxerces-c-3.1.so:_ZN11xercesc_3_129Base64BinaryDatatypeValidator9serializeERNS_16XSerializeEngineE
libxerces-c-3.1.so:_ZN11xercesc_3_129Base64BinaryDatatypeValidatorC1EPNS_13MemoryManagerE
libxerces-c-3.1.so:_ZN11xercesc_3_129Base64BinaryDatatypeValidatorC1EPNS_17DatatypeValidatorEPNS_14RefHashTableOfINS_12KVStringPairENS_12StringHasherEEEPNS_16RefArrayVectorOfItEEiPNS_13MemoryManagerE
libxerces-c-3.1.so:_ZN11xercesc_3_129Base64BinaryDatatypeValidatorC2EPNS_13MemoryManagerE
libxerces-c-3.1.so:_ZN11xercesc_3_129Base64BinaryDatatypeValidatorC2EPNS_17DatatypeValidatorEPNS_14RefHashTableOfINS_12KVStringPairENS_12StringHasherEEEPNS_16RefArrayVectorOfItEEiPNS_13MemoryManagerE
libxerces-c-3.1.so:_ZN11xercesc_3_129Base64BinaryDatatypeValidatorD0Ev
libxerces-c-3.1.so:_ZN11xercesc_3_129Base64BinaryDatatypeValidatorD1Ev
libxerces-c-3.1.so:_ZN11xercesc_3_129Base64BinaryDatatypeValidatorD2Ev
libxerces-c-3.1.so:_ZN11xercesc_3_12OpC1ENS0_6opTypeEPNS_13MemoryManagerE
libxerces-c-3.1.so:_ZN11xercesc_3_12OpC2ENS0_6opTypeEPNS_13MemoryManagerE
libxerces-c-3.1.so:_ZN11xercesc_3_130AnySimpleTypeDatatypeValidator11newInstanceEPNS_14RefHashTableOfINS_12KVStringPairENS_12StringHasherEEEPNS_16RefArrayVectorOfItEEiPNS_13MemoryManagerE
libxerces-c-3.1.so:_ZN11xercesc_3_130AnySimpleTypeDatatypeValidator12createObjectEPNS_13MemoryManagerE
libxerces-c-3.1.so:_ZN11xercesc_3_130AnySimpleTypeDatatypeValidator7compareEPKtS2_PNS_13MemoryManagerE
libxerces-c-3.1.so:_ZN11xercesc_3_130AnySimpleTypeDatatypeValidator9serializeERNS_16XSerializeEngineE
libxerces-c-3.1.so:_ZN11xercesc_3_130AnySimpleTypeDatatypeValidatorC1EPNS_13MemoryManagerE
libxerces-c-3.1.so:_ZN11xercesc_3_130AnySimpleTypeDatatypeValidatorC2EPNS_13MemoryManagerE
libxerces-c-3.1.so:_ZN11xercesc_3_130AnySimpleTypeDatatypeValidatorD0Ev
libxerces-c-3.1.so:_ZN11xercesc_3_130AnySimpleTypeDatatypeValidatorD1Ev
libxerces-c-3.1.so:_ZN11xercesc_3_130AnySimpleTypeDatatypeValidatorD2Ev
libxerces-c-3.1.so:_ZN11xercesc_3_15CMAny11orphanChildEv
libxerces-c-3.1.so:_ZN11xercesc_3_15CMAny11setPositionEj
libxerces-c-3.1.so:_ZN11xercesc_3_15CMAnyC1ENS_15ContentSpecNode9NodeTypesEjjjPNS_13MemoryManagerE
libxerces-c-3.1.so:_ZN11xercesc_3_15CMAnyC2ENS_15ContentSpecNode9NodeTypesEjjjPNS_13MemoryManagerE
libxerces-c-3.1.so:_ZN11xercesc_3_15CMAnyD0Ev
libxerces-c-3.1.so:_ZN11xercesc_3_15CMAnyD1Ev
libxerces-c-3.1.so:_ZN11xercesc_3_15CMAnyD2Ev
libxerces-c-3.1.so:_ZN11xercesc_3_15Match10initializeERKS0_
libxerces-c-3.1.so:_ZN11xercesc_3_15Match11setNoGroupsEi
libxerces-c-3.1.so:_ZN11xercesc_3_15Match7cleanUpEv
libxerces-c-3.1.so:_ZN11xercesc_3_15MatchC1EPNS_13MemoryManagerE
libxerces-c-3.1.so:_ZN11xercesc_3_15MatchC1ERKS0_
libxerces-c-3.1.so:_ZN11xercesc_3_15MatchC2EPNS_13MemoryManagerE
libxerces-c-3.1.so:_ZN11xercesc_3_15MatchC2ERKS0_
libxerces-c-3.1.so:_ZN11xercesc_3_15MatchD0Ev
libxerces-c-3.1.so:_ZN11xercesc_3_15MatchD1Ev
libxerces-c-3.1.so:_ZN11xercesc_3_15MatchD2Ev
libxerces-c-3.1.so:_ZN11xercesc_3_15MatchaSERKS0_
libxerces-c-3.1.so:_ZN11xercesc_3_15QName10getRawNameEv
libxerces-c-3.1.so:_ZN11xercesc_3_15QName10setNPrefixEPKtm
libxerces-c-3.1.so:_ZN11xercesc_3_15QName12createObjectEPNS_13MemoryManagerE
libxerces-c-3.1.so:_ZN11xercesc_3_15QName13setNLocalPartEPKtm
libxerces-c-3.1.so:_ZN11xercesc_3_15QName7cleanUpEv
libxerces-c-3.1.so:_ZN11xercesc_3_15QName7setNameEPKtS2_j
libxerces-c-3.1.so:_ZN11xercesc_3_15QName7setNameEPKtj
libxerces-c-3.1.so:_ZN11xercesc_3_15QName9serializeERNS_16XSerializeEngineE
libxerces-c-3.1.so:_ZN11xercesc_3_15QName9setValuesERKS0_
libxerces-c-3.1.so:_ZN11xercesc_3_15QNameC1EPKtS2_jPNS_13MemoryManagerE
libxerces-c-3.1.so:_ZN11xercesc_3_15QNameC1EPKtjPNS_13MemoryManagerE
libxerces-c-3.1.so:_ZN11xercesc_3_15QNameC1EPNS_13MemoryManagerE
libxerces-c-3.1.so:_ZN11xercesc_3_15QNameC1ERKS0_
libxerces-c-3.1.so:_ZN11xercesc_3_15QNameC2EPKtS2_jPNS_13MemoryManagerE
libxerces-c-3.1.so:_ZN11xercesc_3_15QNameC2EPKtjPNS_13MemoryManagerE
libxerces-c-3.1.so:_ZN11xercesc_3_15QNameC2EPNS_13MemoryManagerE
libxerces-c-3.1.so:_ZN11xercesc_3_15QNameC2ERKS0_
libxerces-c-3.1.so:_ZN11xercesc_3_15QNameD0Ev
libxerces-c-3.1.so:_ZN11xercesc_3_15QNameD1Ev
libxerces-c-3.1.so:_ZN11xercesc_3_15QNameD2Ev
libxerces-c-3.1.so:_ZN11xercesc_3_15Token13isShorterThanEPS0_
libxerces-c-3.1.so:_ZN11xercesc_3_15Token15findFixedStringEiRi
libxerces-c-3.1.so:_ZN11xercesc_3_15Token21analyzeFirstCharacterEPNS_10RangeTokenEiPNS_12TokenFactoryE
libxerces-c-3.1.so:_ZN11xercesc_3_15TokenC1ENS0_7tokTypeEPNS_13MemoryManagerE
libxerces-c-3.1.so:_ZN11xercesc_3_15TokenC2ENS0_7tokTypeEPNS_13MemoryManagerE
libxerces-c-3.1.so:_ZN11xercesc_3_15TokenD0Ev
libxerces-c-3.1.so:_ZN11xercesc_3_15TokenD1Ev
libxerces-c-3.1.so:_ZN11xercesc_3_15TokenD2Ev
libxerces-c-3.1.so:_ZN11xercesc_3_15XUtil20getFirstChildElementEPKNS_7DOMNodeE
libxerces-c-3.1.so:_ZN11xercesc_3_15XUtil21getNextSiblingElementEPKNS_7DOMNodeE
libxerces-c-3.1.so:_ZN11xercesc_3_15XUtil22getFirstChildElementNSEPKNS_7DOMNodeEPPKtS5_j
libxerces-c-3.1.so:_ZN11xercesc_3_15XUtil23getNextSiblingElementNSEPKNS_7DOMNodeEPPKtS5_j
libxerces-c-3.1.so:_ZN11xercesc_3_16Base6413getDataLengthEPKtPNS_13MemoryManagerENS0_11ConformanceE
libxerces-c-3.1.so:_ZN11xercesc_3_16Base6415decodeToXMLByteEPKtPmPNS_13MemoryManagerENS0_11ConformanceE
libxerces-c-3.1.so:_ZN11xercesc_3_16Base6426getCanonicalRepresentationEPKtPNS_13MemoryManagerENS0_11ConformanceE
libxerces-c-3.1.so:_ZN11xercesc_3_16Base646decodeEPKhPmPNS_13MemoryManagerENS0_11ConformanceE
libxerces-c-3.1.so:_ZN11xercesc_3_16Base646decodeEPKhPmRPhPNS_13MemoryManagerENS0_11ConformanceE
libxerces-c-3.1.so:_ZN11xercesc_3_16Base646encodeEPKhmPmPNS_13MemoryManagerE
libxerces-c-3.1.so:_ZN11xercesc_3_16Base646isDataERKh
libxerces-c-3.1.so:_ZN11xercesc_3_16BitSet14ensureCapacityEm
libxerces-c-3.1.so:_ZN11xercesc_3_16BitSet3setEm
libxerces-c-3.1.so:_ZN11xercesc_3_16BitSet5clearEm
libxerces-c-3.1.so:_ZN11xercesc_3_16BitSet6orWithERKS0_
libxerces-c-3.1.so:_ZN11xercesc_3_16BitSet7andWithERKS0_
libxerces-c-3.1.so:_ZN11xercesc_3_16BitSet7xorWithERKS0_
libxerces-c-3.1.so:_ZN11xercesc_3_16BitSet8clearAllEv
libxerces-c-3.1.so:_ZN11xercesc_3_16BitSetC1ERKS0_
libxerces-c-3.1.so:_ZN11xercesc_3_16BitSetC1EmPNS_13MemoryManagerE
libxerces-c-3.1.so:_ZN11xercesc_3_16BitSetC2ERKS0_
libxerces-c-3.1.so:_ZN11xercesc_3_16BitSetC2EmPNS_13MemoryManagerE
libxerces-c-3.1.so:_ZN11xercesc_3_16BitSetD1Ev
libxerces-c-3.1.so:_ZN11xercesc_3_16BitSetD2Ev
libxerces-c-3.1.so:_ZN11xercesc_3_16CharOpC1ENS_2Op6opTypeEiPNS_13MemoryManagerE
libxerces-c-3.1.so:_ZN11xercesc_3_16CharOpC2ENS_2Op6opTypeEiPNS_13MemoryManagerE
libxerces-c-3.1.so:_ZN11xercesc_3_16HexBin13getDataLengthEPKt
libxerces-c-3.1.so:_ZN11xercesc_3_16HexBin14isArrayByteHexEPKt
libxerces-c-3.1.so:_ZN11xercesc_3_16HexBin15decodeToXMLByteEPKtPNS_13MemoryManagerE
libxerces-c-3.1.so:_ZN11xercesc_3_16HexBin26getCanonicalRepresentationEPKtPNS_13MemoryManagerE
libxerces-c-3.1.so:_ZN11xercesc_3_16HexBin5isHexERKt
libxerces-c-3.1.so:_ZN11xercesc_3_16IC_Key12createObjectEPNS_13MemoryManagerE
libxerces-c-3.1.so:_ZN11xercesc_3_16IC_Key9serializeERNS_16XSerializeEngineE
libxerces-c-3.1.so:_ZN11xercesc_3_16IC_KeyC1EPKtS2_PNS_13MemoryManagerE
libxerces-c-3.1.so:_ZN11xercesc_3_16IC_KeyC1EPNS_13MemoryManagerE
libxerces-c-3.1.so:_ZN11xercesc_3_16IC_KeyC2EPKtS2_PNS_13MemoryManagerE
libxerces-c-3.1.so:_ZN11xercesc_3_16IC_KeyC2EPNS_13MemoryManagerE
libxerces-c-3.1.so:_ZN11xercesc_3_16IC_KeyD0Ev
libxerces-c-3.1.so:_ZN11xercesc_3_16IC_KeyD1Ev
libxerces-c-3.1.so:_ZN11xercesc_3_16IC_KeyD2Ev
libxerces-c-3.1.so:_ZN11xercesc_3_16XMLURL12lookupByNameEPKt
libxerces-c-3.1.so:_ZN11xercesc_3_16XMLURL13buildFullTextEv
libxerces-c-3.1.so:_ZN11xercesc_3_16XMLURL14makeRelativeToEPKt
libxerces-c-3.1.so:_ZN11xercesc_3_16XMLURL14makeRelativeToERKS0_
libxerces-c-3.1.so:_ZN11xercesc_3_16XMLURL20conglomerateWithBaseERKS0_b
libxerces-c-3.1.so:_ZN11xercesc_3_16XMLURL5parseEPKt
libxerces-c-3.1.so:_ZN11xercesc_3_16XMLURL5parseEPKtRS0_
libxerces-c-3.1.so:_ZN11xercesc_3_16XMLURL6setURLEPKt
libxerces-c-3.1.so:_ZN11xercesc_3_16XMLURL6setURLEPKtS2_
libxerces-c-3.1.so:_ZN11xercesc_3_16XMLURL6setURLEPKtS2_RS0_
libxerces-c-3.1.so:_ZN11xercesc_3_16XMLURL6setURLERKS0_PKt
libxerces-c-3.1.so:_ZN11xercesc_3_16XMLURL7cleanUpEv
libxerces-c-3.1.so:_ZN11xercesc_3_16XMLURLC1EPKcPNS_13MemoryManagerE
libxerces-c-3.1.so:_ZN11xercesc_3_16XMLURLC1EPKtPKcPNS_13MemoryManagerE
libxerces-c-3.1.so:_ZN11xercesc_3_16XMLURLC1EPKtPNS_13MemoryManagerE
libxerces-c-3.1.so:_ZN11xercesc_3_16XMLURLC1EPKtS2_PNS_13MemoryManagerE
libxerces-c-3.1.so:_ZN11xercesc_3_16XMLURLC1EPNS_13MemoryManagerE
libxerces-c-3.1.so:_ZN11xercesc_3_16XMLURLC1ERKS0_
libxerces-c-3.1.so:_ZN11xercesc_3_16XMLURLC1ERKS0_PKc
libxerces-c-3.1.so:_ZN11xercesc_3_16XMLURLC1ERKS0_PKt
libxerces-c-3.1.so:_ZN11xercesc_3_16XMLURLC2EPKcPNS_13MemoryManagerE
libxerces-c-3.1.so:_ZN11xercesc_3_16XMLURLC2EPKtPKcPNS_13MemoryManagerE
libxerces-c-3.1.so:_ZN11xercesc_3_16XMLURLC2EPKtPNS_13MemoryManagerE
libxerces-c-3.1.so:_ZN11xercesc_3_16XMLURLC2EPKtS2_PNS_13MemoryManagerE
libxerces-c-3.1.so:_ZN11xercesc_3_16XMLURLC2EPNS_13MemoryManagerE
libxerces-c-3.1.so:_ZN11xercesc_3_16XMLURLC2ERKS0_
libxerces-c-3.1.so:_ZN11xercesc_3_16XMLURLC2ERKS0_PKc
libxerces-c-3.1.so:_ZN11xercesc_3_16XMLURLC2ERKS0_PKt
libxerces-c-3.1.so:_ZN11xercesc_3_16XMLURLD0Ev
libxerces-c-3.1.so:_ZN11xercesc_3_16XMLURLD1Ev
libxerces-c-3.1.so:_ZN11xercesc_3_16XMLURLD2Ev
libxerces-c-3.1.so:_ZN11xercesc_3_16XMLURLaSERKS0_
libxerces-c-3.1.so:_ZN11xercesc_3_16XMLUri10initializeEPKS0_PKt
libxerces-c-3.1.so:_ZN11xercesc_3_16XMLUri10initializeERKS0_
libxerces-c-3.1.so:_ZN11xercesc_3_16XMLUri10isValidURIEPKS0_PKtb
libxerces-c-3.1.so:_ZN11xercesc_3_16XMLUri10isValidURIEbPKtb
libxerces-c-3.1.so:_ZN11xercesc_3_16XMLUri11isURIStringEPKt
libxerces-c-3.1.so:_ZN11xercesc_3_16XMLUri11processPathEPKtmbb
libxerces-c-3.1.so:_ZN11xercesc_3_16XMLUri11setFragmentEPKt
libxerces-c-3.1.so:_ZN11xercesc_3_16XMLUri11setUserInfoEPKt
libxerces-c-3.1.so:_ZN11xercesc_3_16XMLUri12createObjectEPNS_13MemoryManagerE
libxerces-c-3.1.so:_ZN11xercesc_3_16XMLUri12isGenericURIEv
libxerces-c-3.1.so:_ZN11xercesc_3_16XMLUri12normalizeURIEPKtRNS_9XMLBufferE
libxerces-c-3.1.so:_ZN11xercesc_3_16XMLUri13buildFullTextEv
libxerces-c-3.1.so:_ZN11xercesc_3_16XMLUri13processSchemeEPKtRm
libxerces-c-3.1.so:_ZN11xercesc_3_16XMLUri14initializePathEPKt
libxerces-c-3.1.so:_ZN11xercesc_3_16XMLUri14setQueryStringEPKt
libxerces-c-3.1.so:_ZN11xercesc_3_16XMLUri15scanHexSequenceEPKtmmRi
libxerces-c-3.1.so:_ZN11xercesc_3_16XMLUri16initializeSchemeEPKt
libxerces-c-3.1.so:_ZN11xercesc_3_16XMLUri16processAuthorityEPKtm
libxerces-c-3.1.so:_ZN11xercesc_3_16XMLUri19initializeAuthorityEPKt
libxerces-c-3.1.so:_ZN11xercesc_3_16XMLUri19isWellFormedAddressEPKtPNS_13MemoryManagerE
libxerces-c-3.1.so:_ZN11xercesc_3_16XMLUri19isWellFormedAddressEPKtm
libxerces-c-3.1.so:_ZN11xercesc_3_16XMLUri20isConformantUserInfoEPKtPNS_13MemoryManagerE
libxerces-c-3.1.so:_ZN11xercesc_3_16XMLUri20setRegBasedAuthorityEPKt
libxerces-c-3.1.so:_ZN11xercesc_3_16XMLUri22isConformantSchemeNameEPKt
libxerces-c-3.1.so:_ZN11xercesc_3_16XMLUri22isConformantSchemeNameEPKtm
libxerces-c-3.1.so:_ZN11xercesc_3_16XMLUri23isWellFormedIPv4AddressEPKtm
libxerces-c-3.1.so:_ZN11xercesc_3_16XMLUri25isWellFormedIPv6ReferenceEPKtm
libxerces-c-3.1.so:_ZN11xercesc_3_16XMLUri27isValidServerBasedAuthorityEPKtiS2_PNS_13MemoryManagerE
libxerces-c-3.1.so:_ZN11xercesc_3_16XMLUri27isValidServerBasedAuthorityEPKtmiS2_m
libxerces-c-3.1.so:_ZN11xercesc_3_16XMLUri29isValidRegistryBasedAuthorityEPKt
libxerces-c-3.1.so:_ZN11xercesc_3_16XMLUri29isValidRegistryBasedAuthorityEPKtm
libxerces-c-3.1.so:_ZN11xercesc_3_16XMLUri7cleanUpEv
libxerces-c-3.1.so:_ZN11xercesc_3_16XMLUri7setHostEPKt
libxerces-c-3.1.so:_ZN11xercesc_3_16XMLUri7setPathEPKt
libxerces-c-3.1.so:_ZN11xercesc_3_16XMLUri7setPortEi
libxerces-c-3.1.so:_ZN11xercesc_3_16XMLUri9serializeERNS_16XSerializeEngineE
libxerces-c-3.1.so:_ZN11xercesc_3_16XMLUri9setSchemeEPKt
libxerces-c-3.1.so:_ZN11xercesc_3_16XMLUriC1EPKS0_PKtPNS_13MemoryManagerE
libxerces-c-3.1.so:_ZN11xercesc_3_16XMLUriC1EPKtPNS_13MemoryManagerE
libxerces-c-3.1.so:_ZN11xercesc_3_16XMLUriC1EPNS_13MemoryManagerE
libxerces-c-3.1.so:_ZN11xercesc_3_16XMLUriC1ERKS0_
libxerces-c-3.1.so:_ZN11xercesc_3_16XMLUriC2EPKS0_PKtPNS_13MemoryManagerE
libxerces-c-3.1.so:_ZN11xercesc_3_16XMLUriC2EPKtPNS_13MemoryManagerE
libxerces-c-3.1.so:_ZN11xercesc_3_16XMLUriC2EPNS_13MemoryManagerE
libxerces-c-3.1.so:_ZN11xercesc_3_16XMLUriC2ERKS0_
libxerces-c-3.1.so:_ZN11xercesc_3_16XMLUriD0Ev
libxerces-c-3.1.so:_ZN11xercesc_3_16XMLUriD1Ev
libxerces-c-3.1.so:_ZN11xercesc_3_16XMLUriD2Ev
libxerces-c-3.1.so:_ZN11xercesc_3_16XMLUriaSERKS0_
libxerces-c-3.1.so:_ZN11xercesc_3_17ChildOp8setChildEPKNS_2OpE
libxerces-c-3.1.so:_ZN11xercesc_3_17ChildOpC1ENS_2Op6opTypeEPNS_13MemoryManagerE
libxerces-c-3.1.so:_ZN11xercesc_3_17ChildOpC2ENS_2Op6opTypeEPNS_13MemoryManagerE
libxerces-c-3.1.so:_ZN11xercesc_3_17Grammar11loadGrammarERNS_16XSerializeEngineE
libxerces-c-3.1.so:_ZN11xercesc_3_17Grammar12createObjectEPNS_13MemoryManagerE
libxerces-c-3.1.so:_ZN11xercesc_3_17Grammar12storeGrammarERNS_16XSerializeEngineEPS0_
libxerces-c-3.1.so:_ZN11xercesc_3_17Grammar9serializeERNS_16XSerializeEngineE
libxerces-c-3.1.so:_ZN11xercesc_3_17RangeOpC1ENS_2Op6opTypeEPKNS_5TokenEPNS_13MemoryManagerE
libxerces-c-3.1.so:_ZN11xercesc_3_17RangeOpC2ENS_2Op6opTypeEPKNS_5TokenEPNS_13MemoryManagerE
libxerces-c-3.1.so:_ZN11xercesc_3_17UnionOp10addElementEPNS_2OpE
libxerces-c-3.1.so:_ZN11xercesc_3_17UnionOpC1ENS_2Op6opTypeEmPNS_13MemoryManagerE
libxerces-c-3.1.so:_ZN11xercesc_3_17UnionOpC2ENS_2Op6opTypeEmPNS_13MemoryManagerE
libxerces-c-3.1.so:_ZN11xercesc_3_17XMLAttr7cleanUpEv
libxerces-c-3.1.so:_ZN11xercesc_3_17XMLAttr7setNameEjPKtS2_
libxerces-c-3.1.so:_ZN11xercesc_3_17XMLAttr8setURIIdEj
libxerces-c-3.1.so:_ZN11xercesc_3_17XMLAttr8setValueEPKt
libxerces-c-3.1.so:_ZN11xercesc_3_17XMLAttrC1EPNS_13MemoryManagerE
libxerces-c-3.1.so:_ZN11xercesc_3_17XMLAttrC1EjPKtS2_NS_9XMLAttDef8AttTypesEbPNS_13MemoryManagerEPNS_17DatatypeValidatorEb
libxerces-c-3.1.so:_ZN11xercesc_3_17XMLAttrC1EjPKtS2_S2_NS_9XMLAttDef8AttTypesEbPNS_13MemoryManagerEPNS_17DatatypeValidatorEb
libxerces-c-3.1.so:_ZN11xercesc_3_17XMLAttrC2EPNS_13MemoryManagerE
libxerces-c-3.1.so:_ZN11xercesc_3_17XMLAttrC2EjPKtS2_NS_9XMLAttDef8AttTypesEbPNS_13MemoryManagerEPNS_17DatatypeValidatorEb
libxerces-c-3.1.so:_ZN11xercesc_3_17XMLAttrC2EjPKtS2_S2_NS_9XMLAttDef8AttTypesEbPNS_13MemoryManagerEPNS_17DatatypeValidatorEb
libxerces-c-3.1.so:_ZN11xercesc_3_17XMemorydlEPv
libxerces-c-3.1.so:_ZN11xercesc_3_17XMemorydlEPvPNS_13MemoryManagerE
libxerces-c-3.1.so:_ZN11xercesc_3_17XMemorydlEPvS1_
libxerces-c-3.1.so:_ZN11xercesc_3_17XMemorynwEm
libxerces-c-3.1.so:_ZN11xercesc_3_17XMemorynwEmPNS_13MemoryManagerE
libxerces-c-3.1.so:_ZN11xercesc_3_17XMemorynwEmPv
libxerces-c-3.1.so:_ZN11xercesc_3_17XSFacetC1ENS_22XSSimpleTypeDefinition5FACETEPKtbPNS_12XSAnnotationEPNS_7XSModelEPNS_13MemoryManagerE
libxerces-c-3.1.so:_ZN11xercesc_3_17XSFacetC2ENS_22XSSimpleTypeDefinition5FACETEPKtbPNS_12XSAnnotationEPNS_7XSModelEPNS_13MemoryManagerE
libxerces-c-3.1.so:_ZN11xercesc_3_17XSFacetD0Ev
libxerces-c-3.1.so:_ZN11xercesc_3_17XSFacetD1Ev
libxerces-c-3.1.so:_ZN11xercesc_3_17XSFacetD2Ev
libxerces-c-3.1.so:_ZN11xercesc_3_17XSModel11getXSObjectEPv
libxerces-c-3.1.so:_ZN11xercesc_3_17XSModel13getComponentsENS_11XSConstants14COMPONENT_TYPEE
libxerces-c-3.1.so:_ZN11xercesc_3_17XSModel14getAnnotationsEv
libxerces-c-3.1.so:_ZN11xercesc_3_17XSModel15addS4SToXSModelEPNS_15XSNamespaceItemEPNS_14RefHashTableOfINS_17DatatypeValidatorENS_12StringHasherEEE
libxerces-c-3.1.so:_ZN11xercesc_3_17XSModel15getXSObjectByIdEmNS_11XSConstants14COMPONENT_TYPEE
libxerces-c-3.1.so:_ZN11xercesc_3_17XSModel16getNamespaceItemEPKt
libxerces-c-3.1.so:_ZN11xercesc_3_17XSModel17getAttributeGroupEPKtS2_
libxerces-c-3.1.so:_ZN11xercesc_3_17XSModel17getTypeDefinitionEPKtS2_
libxerces-c-3.1.so:_ZN11xercesc_3_17XSModel19addGrammarToXSModelEPNS_15XSNamespaceItemE
libxerces-c-3.1.so:_ZN11xercesc_3_17XSModel21getElementDeclarationEPKtS2_
libxerces-c-3.1.so:_ZN11xercesc_3_17XSModel22addComponentToIdVectorEPNS_8XSObjectEm
libxerces-c-3.1.so:_ZN11xercesc_3_17XSModel22getNotationDeclarationEPKtS2_
libxerces-c-3.1.so:_ZN11xercesc_3_17XSModel23addComponentToNamespaceEPNS_15XSNamespaceItemEPNS_8XSObjectEmb
libxerces-c-3.1.so:_ZN11xercesc_3_17XSModel23getAttributeDeclarationEPKtS2_
libxerces-c-3.1.so:_ZN11xercesc_3_17XSModel23getModelGroupDefinitionEPKtS2_
libxerces-c-3.1.so:_ZN11xercesc_3_17XSModel24getComponentsByNamespaceENS_11XSConstants14COMPONENT_TYPEEPKt
libxerces-c-3.1.so:_ZN11xercesc_3_17XSModelC1EPNS_14XMLGrammarPoolEPNS_13MemoryManagerE
libxerces-c-3.1.so:_ZN11xercesc_3_17XSModelC1EPS0_PNS_15GrammarResolverEPNS_13MemoryManagerE
libxerces-c-3.1.so:_ZN11xercesc_3_17XSModelC2EPNS_14XMLGrammarPoolEPNS_13MemoryManagerE
libxerces-c-3.1.so:_ZN11xercesc_3_17XSModelC2EPS0_PNS_15GrammarResolverEPNS_13MemoryManagerE
libxerces-c-3.1.so:_ZN11xercesc_3_17XSModelD1Ev
libxerces-c-3.1.so:_ZN11xercesc_3_17XSModelD2Ev
libxerces-c-3.1.so:_ZN11xercesc_3_17XSValue11getDataTypeEPKt
libxerces-c-3.1.so:_ZN11xercesc_3_17XSValue14getActualValueEPKtNS0_8DataTypeERNS0_6StatusENS0_10XMLVersionEbPNS_13MemoryManagerE
libxerces-c-3.1.so:_ZN11xercesc_3_17XSValue15validateStringsEPKtNS0_8DataTypeERNS0_6StatusENS0_10XMLVersionEPNS_13MemoryManagerE
libxerces-c-3.1.so:_ZN11xercesc_3_17XSValue16getActValStringsEPKtNS0_8DataTypeERNS0_6StatusENS0_10XMLVersionEbPNS_13MemoryManagerE
libxerces-c-3.1.so:_ZN11xercesc_3_17XSValue16getCanRepStringsEPKtNS0_8DataTypeERNS0_6StatusENS0_10XMLVersionEbPNS_13MemoryManagerE
libxerces-c-3.1.so:_ZN11xercesc_3_17XSValue16validateNumericsEPKtNS0_8DataTypeERNS0_6StatusEPNS_13MemoryManagerE
libxerces-c-3.1.so:_ZN11xercesc_3_17XSValue17getActValNumericsEPKtNS0_8DataTypeERNS0_6StatusEbPNS_13MemoryManagerE
libxerces-c-3.1.so:_ZN11xercesc_3_17XSValue17getCanRepNumericsEPKtNS0_8DataTypeERNS0_6StatusEbPNS_13MemoryManagerE
libxerces-c-3.1.so:_ZN11xercesc_3_17XSValue17validateDateTimesEPKtNS0_8DataTypeERNS0_6StatusEPNS_13MemoryManagerE
libxerces-c-3.1.so:_ZN11xercesc_3_17XSValue18getActValDateTimesEPKtNS0_8DataTypeERNS0_6StatusEPNS_13MemoryManagerE
libxerces-c-3.1.so:_ZN11xercesc_3_17XSValue18getCanRepDateTimesEPKtNS0_8DataTypeERNS0_6StatusEbPNS_13MemoryManagerE
libxerces-c-3.1.so:_ZN11xercesc_3_17XSValue18initializeRegistryEv
libxerces-c-3.1.so:_ZN11xercesc_3_17XSValue21getActualNumericValueEPKtRNS0_6StatusERNS0_7t_valueEPNS_13MemoryManagerENS0_8DataTypeE
libxerces-c-3.1.so:_ZN11xercesc_3_17XSValue26getCanonicalRepresentationEPKtNS0_8DataTypeERNS0_6StatusENS0_10XMLVersionEbPNS_13MemoryManagerE
libxerces-c-3.1.so:_ZN11xercesc_3_17XSValue8validateEPKtNS0_8DataTypeERNS0_6StatusENS0_10XMLVersionEPNS_13MemoryManagerE
libxerces-c-3.1.so:_ZN11xercesc_3_17XSValueC1ENS0_8DataTypeEPNS_13MemoryManagerE
libxerces-c-3.1.so:_ZN11xercesc_3_17XSValueC2ENS0_8DataTypeEPNS_13MemoryManagerE
libxerces-c-3.1.so:_ZN11xercesc_3_17XSValueD1Ev
libxerces-c-3.1.so:_ZN11xercesc_3_17XSValueD2Ev
libxerces-c-3.1.so:_ZN11xercesc_3_18IC_Field12createObjectEPNS_13MemoryManagerE
libxerces-c-3.1.so:_ZN11xercesc_3_18IC_Field13createMatcherEPNS_14FieldActivatorEPNS_10ValueStoreEPNS_13MemoryManagerE
libxerces-c-3.1.so:_ZN11xercesc_3_18IC_Field9serializeERNS_16XSerializeEngineE
libxerces-c-3.1.so:_ZN11xercesc_3_18IC_FieldC1EPNS_11XercesXPathEPNS_18IdentityConstraintE
libxerces-c-3.1.so:_ZN11xercesc_3_18IC_FieldC1EPNS_13MemoryManagerE
libxerces-c-3.1.so:_ZN11xercesc_3_18IC_FieldC2EPNS_11XercesXPathEPNS_18IdentityConstraintE
libxerces-c-3.1.so:_ZN11xercesc_3_18IC_FieldC2EPNS_13MemoryManagerE
libxerces-c-3.1.so:_ZN11xercesc_3_18IC_FieldD0Ev
libxerces-c-3.1.so:_ZN11xercesc_3_18IC_FieldD1Ev
libxerces-c-3.1.so:_ZN11xercesc_3_18IC_FieldD2Ev
libxerces-c-3.1.so:_ZN11xercesc_3_18PSVIItem11setValidityENS0_14VALIDITY_STATEE
libxerces-c-3.1.so:_ZN11xercesc_3_18PSVIItem22setValidationAttemptedENS0_15ASSESSMENT_TYPEE
libxerces-c-3.1.so:_ZN11xercesc_3_18PSVIItem5resetEPKtS2_NS0_14VALIDITY_STATEENS0_15ASSESSMENT_TYPEE
libxerces-c-3.1.so:_ZN11xercesc_3_18PSVIItemC1EPNS_13MemoryManagerE
libxerces-c-3.1.so:_ZN11xercesc_3_18PSVIItemC2EPNS_13MemoryManagerE
libxerces-c-3.1.so:_ZN11xercesc_3_18RegxUtil20stripExtendedCommentEPKtPNS_13MemoryManagerE
libxerces-c-3.1.so:_ZN11xercesc_3_18RegxUtil21decomposeToSurrogatesEiPNS_13MemoryManagerE
libxerces-c-3.1.so:_ZN11xercesc_3_18StringOpC1ENS_2Op6opTypeEPKtPNS_13MemoryManagerE
libxerces-c-3.1.so:_ZN11xercesc_3_18StringOpC2ENS_2Op6opTypeEPKtPNS_13MemoryManagerE
libxerces-c-3.1.so:_ZN11xercesc_3_18XMLFloat12createObjectEPNS_13MemoryManagerE
libxerces-c-3.1.so:_ZN11xercesc_3_18XMLFloat13checkBoundaryEPc
libxerces-c-3.1.so:_ZN11xercesc_3_18XMLFloat9serializeERNS_16XSerializeEngineE
libxerces-c-3.1.so:_ZN11xercesc_3_18XMLFloatC1EPKtPNS_13MemoryManagerE
libxerces-c-3.1.so:_ZN11xercesc_3_18XMLFloatC1EPNS_13MemoryManagerE
libxerces-c-3.1.so:_ZN11xercesc_3_18XMLFloatC2EPKtPNS_13MemoryManagerE
libxerces-c-3.1.so:_ZN11xercesc_3_18XMLFloatC2EPNS_13MemoryManagerE
libxerces-c-3.1.so:_ZN11xercesc_3_18XMLFloatD0Ev
libxerces-c-3.1.so:_ZN11xercesc_3_18XMLFloatD1Ev
libxerces-c-3.1.so:_ZN11xercesc_3_18XMLFloatD2Ev
libxerces-c-3.1.so:_ZN11xercesc_3_18XMLMutex4lockEv
libxerces-c-3.1.so:_ZN11xercesc_3_18XMLMutex6unlockEv
libxerces-c-3.1.so:_ZN11xercesc_3_18XMLMutexC1EPNS_13MemoryManagerE
libxerces-c-3.1.so:_ZN11xercesc_3_18XMLMutexC2EPNS_13MemoryManagerE
libxerces-c-3.1.so:_ZN11xercesc_3_18XMLMutexD1Ev
libxerces-c-3.1.so:_ZN11xercesc_3_18XMLMutexD2Ev
libxerces-c-3.1.so:_ZN11xercesc_3_18XSObject12getNamespaceEv
libxerces-c-3.1.so:_ZN11xercesc_3_18XSObject16getNamespaceItemEv
libxerces-c-3.1.so:_ZN11xercesc_3_18XSObject5setIdEm
libxerces-c-3.1.so:_ZN11xercesc_3_18XSObjectC1ENS_11XSConstants14COMPONENT_TYPEEPNS_7XSModelEPNS_13MemoryManagerE
libxerces-c-3.1.so:_ZN11xercesc_3_18XSObjectC2ENS_11XSConstants14COMPONENT_TYPEEPNS_7XSModelEPNS_13MemoryManagerE
libxerces-c-3.1.so:_ZN11xercesc_3_18XSObjectD0Ev
libxerces-c-3.1.so:_ZN11xercesc_3_18XSObjectD1Ev
libxerces-c-3.1.so:_ZN11xercesc_3_18XSObjectD2Ev
libxerces-c-3.1.so:_ZN11xercesc_3_18allocateEPKt
libxerces-c-3.1.so:_ZN11xercesc_3_19BMPattern10initializeEv
libxerces-c-3.1.so:_ZN11xercesc_3_19BMPattern7cleanUpEv
libxerces-c-3.1.so:_ZN11xercesc_3_19BMPatternC1EPKtbPNS_13MemoryManagerE
libxerces-c-3.1.so:_ZN11xercesc_3_19BMPatternC1EPKtibPNS_13MemoryManagerE
libxerces-c-3.1.so:_ZN11xercesc_3_19BMPatternC2EPKtbPNS_13MemoryManagerE
libxerces-c-3.1.so:_ZN11xercesc_3_19BMPatternC2EPKtibPNS_13MemoryManagerE
libxerces-c-3.1.so:_ZN11xercesc_3_19BMPatternD1Ev
libxerces-c-3.1.so:_ZN11xercesc_3_19BMPatternD2Ev
libxerces-c-3.1.so:_ZN11xercesc_3_19CMUnaryOp11orphanChildEv
libxerces-c-3.1.so:_ZN11xercesc_3_19CMUnaryOp8getChildEv
libxerces-c-3.1.so:_ZN11xercesc_3_19CMUnaryOpC1ENS_15ContentSpecNode9NodeTypesEPNS_6CMNodeEjPNS_13MemoryManagerE
libxerces-c-3.1.so:_ZN11xercesc_3_19CMUnaryOpC2ENS_15ContentSpecNode9NodeTypesEPNS_6CMNodeEjPNS_13MemoryManagerE
libxerces-c-3.1.so:_ZN11xercesc_3_19CMUnaryOpD0Ev
libxerces-c-3.1.so:_ZN11xercesc_3_19CMUnaryOpD1Ev
libxerces-c-3.1.so:_ZN11xercesc_3_19CMUnaryOpD2Ev
libxerces-c-3.1.so:_ZN11xercesc_3_19CharTokenC1ENS_5Token7tokTypeEiPNS_13MemoryManagerE
libxerces-c-3.1.so:_ZN11xercesc_3_19CharTokenC2ENS_5Token7tokTypeEiPNS_13MemoryManagerE
libxerces-c-3.1.so:_ZN11xercesc_3_19CharTokenD0Ev
libxerces-c-3.1.so:_ZN11xercesc_3_19CharTokenD1Ev
libxerces-c-3.1.so:_ZN11xercesc_3_19CharTokenD2Ev
libxerces-c-3.1.so:_ZN11xercesc_3_19DOMBuffer14expandCapacityEm
libxerces-c-3.1.so:_ZN11xercesc_3_19DOMBufferC1EPNS_15DOMDocumentImplEm
libxerces-c-3.1.so:_ZN11xercesc_3_19DOMBufferC2EPNS_15DOMDocumentImplEm
libxerces-c-3.1.so:_ZN11xercesc_3_19DTDAttDef12createObjectEPNS_13MemoryManagerE
libxerces-c-3.1.so:_ZN11xercesc_3_19DTDAttDef7setNameEPKt
libxerces-c-3.1.so:_ZN11xercesc_3_19DTDAttDef9serializeERNS_16XSerializeEngineE
libxerces-c-3.1.so:_ZN11xercesc_3_19DTDAttDefC1EPKtNS_9XMLAttDef8AttTypesENS3_11DefAttTypesEPNS_13MemoryManagerE
libxerces-c-3.1.so:_ZN11xercesc_3_19DTDAttDefC1EPKtS2_NS_9XMLAttDef8AttTypesENS3_11DefAttTypesES2_PNS_13MemoryManagerE
libxerces-c-3.1.so:_ZN11xercesc_3_19DTDAttDefC1EPNS_13MemoryManagerE
libxerces-c-3.1.so:_ZN11xercesc_3_19DTDAttDefC2EPKtNS_9XMLAttDef8AttTypesENS3_11DefAttTypesEPNS_13MemoryManagerE
libxerces-c-3.1.so:_ZN11xercesc_3_19DTDAttDefC2EPKtS2_NS_9XMLAttDef8AttTypesENS3_11DefAttTypesES2_PNS_13MemoryManagerE
libxerces-c-3.1.so:_ZN11xercesc_3_19DTDAttDefC2EPNS_13MemoryManagerE
libxerces-c-3.1.so:_ZN11xercesc_3_19DTDAttDefD0Ev
libxerces-c-3.1.so:_ZN11xercesc_3_19DTDAttDefD1Ev
libxerces-c-3.1.so:_ZN11xercesc_3_19DTDAttDefD2Ev
libxerces-c-3.1.so:_ZN11xercesc_3_19ElemStack10setElementEPNS_14XMLElementDeclEm
libxerces-c-3.1.so:_ZN11xercesc_3_19ElemStack11expandStackEv
libxerces-c-3.1.so:_ZN11xercesc_3_19ElemStack15addGlobalPrefixEPKtj
libxerces-c-3.1.so:_ZN11xercesc_3_19ElemStack5resetEjjjj
libxerces-c-3.1.so:_ZN11xercesc_3_19ElemStack6popTopEv
libxerces-c-3.1.so:_ZN11xercesc_3_19ElemStack8addChildEPNS_5QNameEb
libxerces-c-3.1.so:_ZN11xercesc_3_19ElemStack8addLevelEPNS_14XMLElementDeclEm
libxerces-c-3.1.so:_ZN11xercesc_3_19ElemStack8addLevelEv
libxerces-c-3.1.so:_ZN11xercesc_3_19ElemStack9addPrefixEPKtj
libxerces-c-3.1.so:_ZN11xercesc_3_19ElemStack9expandMapEPNS0_9StackElemE
libxerces-c-3.1.so:_ZN11xercesc_3_19ElemStackC1EPNS_13MemoryManagerE
libxerces-c-3.1.so:_ZN11xercesc_3_19ElemStackC2EPNS_13MemoryManagerE
libxerces-c-3.1.so:_ZN11xercesc_3_19ElemStackD1Ev
libxerces-c-3.1.so:_ZN11xercesc_3_19ElemStackD2Ev
libxerces-c-3.1.so:_ZN11xercesc_3_19IC_KeyRef12createObjectEPNS_13MemoryManagerE
libxerces-c-3.1.so:_ZN11xercesc_3_19IC_KeyRef9serializeERNS_16XSerializeEngineE
libxerces-c-3.1.so:_ZN11xercesc_3_19IC_KeyRefC1EPKtS2_PNS_18IdentityConstraintEPNS_13MemoryManagerE
libxerces-c-3.1.so:_ZN11xercesc_3_19IC_KeyRefC1EPNS_13MemoryManagerE
libxerces-c-3.1.so:_ZN11xercesc_3_19IC_KeyRefC2EPKtS2_PNS_18IdentityConstraintEPNS_13MemoryManagerE
libxerces-c-3.1.so:_ZN11xercesc_3_19IC_KeyRefC2EPNS_13MemoryManagerE
libxerces-c-3.1.so:_ZN11xercesc_3_19IC_KeyRefD0Ev
libxerces-c-3.1.so:_ZN11xercesc_3_19IC_KeyRefD1Ev
libxerces-c-3.1.so:_ZN11xercesc_3_19IC_KeyRefD2Ev
libxerces-c-3.1.so:_ZN11xercesc_3_19IC_Unique12createObjectEPNS_13MemoryManagerE
libxerces-c-3.1.so:_ZN11xercesc_3_19IC_Unique9serializeERNS_16XSerializeEngineE
libxerces-c-3.1.so:_ZN11xercesc_3_19IC_UniqueC1EPKtS2_PNS_13MemoryManagerE
libxerces-c-3.1.so:_ZN11xercesc_3_19IC_UniqueC1EPNS_13MemoryManagerE
libxerces-c-3.1.so:_ZN11xercesc_3_19IC_UniqueC2EPKtS2_PNS_13MemoryManagerE
libxerces-c-3.1.so:_ZN11xercesc_3_19IC_UniqueC2EPNS_13MemoryManagerE
libxerces-c-3.1.so:_ZN11xercesc_3_19IC_UniqueD0Ev
libxerces-c-3.1.so:_ZN11xercesc_3_19IC_UniqueD1Ev
libxerces-c-3.1.so:_ZN11xercesc_3_19IC_UniqueD2Ev
libxerces-c-3.1.so:_ZN11xercesc_3_19OpFactory11createDotOpEv
libxerces-c-3.1.so:_ZN11xercesc_3_19OpFactory12createCharOpEi
libxerces-c-3.1.so:_ZN11xercesc_3_19OpFactory13createRangeOpEPKNS_5TokenE
libxerces-c-3.1.so:_ZN11xercesc_3_19OpFactory13createUnionOpEm
libxerces-c-3.1.so:_ZN11xercesc_3_19OpFactory14createAnchorOpEi
libxerces-c-3.1.so:_ZN11xercesc_3_19OpFactory14createStringOpEPKt
libxerces-c-3.1.so:_ZN11xercesc_3_19OpFactory15createCaptureOpEiPKNS_2OpE
libxerces-c-3.1.so:_ZN11xercesc_3_19OpFactory15createClosureOpEi
libxerces-c-3.1.so:_ZN11xercesc_3_19OpFactory16createQuestionOpEb
libxerces-c-3.1.so:_ZN11xercesc_3_19OpFactory21createBackReferenceOpEi
libxerces-c-3.1.so:_ZN11xercesc_3_19OpFactory24createNonGreedyClosureOpEv
libxerces-c-3.1.so:_ZN11xercesc_3_19OpFactoryC1EPNS_13MemoryManagerE
libxerces-c-3.1.so:_ZN11xercesc_3_19OpFactoryC2EPNS_13MemoryManagerE
libxerces-c-3.1.so:_ZN11xercesc_3_19OpFactoryD1Ev
libxerces-c-3.1.so:_ZN11xercesc_3_19OpFactoryD2Ev
libxerces-c-3.1.so:_ZN11xercesc_3_19ReaderMgr10pushReaderEPNS_9XMLReaderEPNS_13XMLEntityDeclE
libxerces-c-3.1.so:_ZN11xercesc_3_19ReaderMgr11getNextCharEv
libxerces-c-3.1.so:_ZN11xercesc_3_19ReaderMgr11skipIfQuoteERt
libxerces-c-3.1.so:_ZN11xercesc_3_19ReaderMgr11skipUntilInEPKt
libxerces-c-3.1.so:_ZN11xercesc_3_19ReaderMgr11skippedCharEt
libxerces-c-3.1.so:_ZN11xercesc_3_19ReaderMgr12createReaderEPKtS2_S2_bNS_9XMLReader7RefFromENS3_5TypesENS3_7SourcesERPNS_11InputSourceEbmb
libxerces-c-3.1.so:_ZN11xercesc_3_19ReaderMgr12createReaderEPKtS2_bNS_9XMLReader7RefFromENS3_5TypesENS3_7SourcesERPNS_11InputSourceEbmb
libxerces-c-3.1.so:_ZN11xercesc_3_19ReaderMgr12createReaderERKNS_11InputSourceEbNS_9XMLReader7RefFromENS4_5TypesENS4_7SourcesEbm
libxerces-c-3.1.so:_ZN11xercesc_3_19ReaderMgr12peekNextCharEv
libxerces-c-3.1.so:_ZN11xercesc_3_19ReaderMgr12skippedSpaceEv
libxerces-c-3.1.so:_ZN11xercesc_3_19ReaderMgr14skipPastSpacesERbb
libxerces-c-3.1.so:_ZN11xercesc_3_19ReaderMgr14skipPastSpacesEv
libxerces-c-3.1.so:_ZN11xercesc_3_19ReaderMgr15getUpToCharOrWSERNS_9XMLBufferEt
libxerces-c-3.1.so:_ZN11xercesc_3_19ReaderMgr15skipUntilInOrWSEPKt
libxerces-c-3.1.so:_ZN11xercesc_3_19ReaderMgr16cleanStackBackToEm
libxerces-c-3.1.so:_ZN11xercesc_3_19ReaderMgr16getCurrentEntityEv
libxerces-c-3.1.so:_ZN11xercesc_3_19ReaderMgr16skipQuotedStringEt
libxerces-c-3.1.so:_ZN11xercesc_3_19ReaderMgr18createIntEntReaderEPKtNS_9XMLReader7RefFromENS3_5TypesES2_mbbm
libxerces-c-3.1.so:_ZN11xercesc_3_19ReaderMgr5resetEv
libxerces-c-3.1.so:_ZN11xercesc_3_19ReaderMgr9getSpacesERNS_9XMLBufferE
libxerces-c-3.1.so:_ZN11xercesc_3_19ReaderMgr9popReaderEv
libxerces-c-3.1.so:_ZN11xercesc_3_19ReaderMgrC1EPNS_13MemoryManagerE
libxerces-c-3.1.so:_ZN11xercesc_3_19ReaderMgrC2EPNS_13MemoryManagerE
libxerces-c-3.1.so:_ZN11xercesc_3_19ReaderMgrD0Ev
libxerces-c-3.1.so:_ZN11xercesc_3_19ReaderMgrD1Ev
libxerces-c-3.1.so:_ZN11xercesc_3_19ReaderMgrD2Ev
libxerces-c-3.1.so:_ZN11xercesc_3_19SAXParser10docCommentEPKt
libxerces-c-3.1.so:_ZN11xercesc_3_19SAXParser10endAttListERKNS_14DTDElementDeclE
libxerces-c-3.1.so:_ZN11xercesc_3_19SAXParser10endElementERKNS_14XMLElementDeclEjbPKt
libxerces-c-3.1.so:_ZN11xercesc_3_19SAXParser10entityDeclERKNS_13DTDEntityDeclEbb
libxerces-c-3.1.so:_ZN11xercesc_3_19SAXParser10getGrammarEPKt
libxerces-c-3.1.so:_ZN11xercesc_3_19SAXParser10initializeEv
libxerces-c-3.1.so:_ZN11xercesc_3_19SAXParser10parseFirstEPKcRNS_13XMLPScanTokenE
libxerces-c-3.1.so:_ZN11xercesc_3_19SAXParser10parseFirstEPKtRNS_13XMLPScanTokenE
libxerces-c-3.1.so:_ZN11xercesc_3_19SAXParser10parseFirstERKNS_11InputSourceERNS_13XMLPScanTokenE
libxerces-c-3.1.so:_ZN11xercesc_3_19SAXParser10parseResetERNS_13XMLPScanTokenE
libxerces-c-3.1.so:_ZN11xercesc_3_19SAXParser10useScannerEPKt
libxerces-c-3.1.so:_ZN11xercesc_3_19SAXParser11doctypeDeclERKNS_14DTDElementDeclEPKtS5_bb
libxerces-c-3.1.so:_ZN11xercesc_3_19SAXParser11elementDeclERKNS_14DTDElementDeclEb
libxerces-c-3.1.so:_ZN11xercesc_3_19SAXParser11endDocumentEv
libxerces-c-3.1.so:_ZN11xercesc_3_19SAXParser11loadGrammarEPKcNS_7Grammar11GrammarTypeEb
libxerces-c-3.1.so:_ZN11xercesc_3_19SAXParser11loadGrammarEPKtNS_7Grammar11GrammarTypeEb
libxerces-c-3.1.so:_ZN11xercesc_3_19SAXParser11loadGrammarERKNS_11InputSourceENS_7Grammar11GrammarTypeEb
libxerces-c-3.1.so:_ZN11xercesc_3_19SAXParser11resetErrorsEv
libxerces-c-3.1.so:_ZN11xercesc_3_19SAXParser11setDoSchemaEb
libxerces-c-3.1.so:_ZN11xercesc_3_19SAXParser12endExtSubsetEv
libxerces-c-3.1.so:_ZN11xercesc_3_19SAXParser12endIntSubsetEv
libxerces-c-3.1.so:_ZN11xercesc_3_19SAXParser12notationDeclERKNS_15XMLNotationDeclEb
libxerces-c-3.1.so:_ZN11xercesc_3_19SAXParser12resetDocTypeEv
libxerces-c-3.1.so:_ZN11xercesc_3_19SAXParser12startAttListERKNS_14DTDElementDeclE
libxerces-c-3.1.so:_ZN11xercesc_3_19SAXParser12startElementERKNS_14XMLElementDeclEjPKtRKNS_11RefVectorOfINS_7XMLAttrEEEmbb
libxerces-c-3.1.so:_ZN11xercesc_3_19SAXParser13docCharactersEPKtmb
libxerces-c-3.1.so:_ZN11xercesc_3_19SAXParser13resetDocumentEv
libxerces-c-3.1.so:_ZN11xercesc_3_19SAXParser13resetEntitiesEv
libxerces-c-3.1.so:_ZN11xercesc_3_19SAXParser13resolveEntityEPNS_21XMLResourceIdentifierE
libxerces-c-3.1.so:_ZN11xercesc_3_19SAXParser13setDTDHandlerEPNS_10DTDHandlerE
libxerces-c-3.1.so:_ZN11xercesc_3_19SAXParser13setLoadSchemaEb
libxerces-c-3.1.so:_ZN11xercesc_3_19SAXParser13startDocumentEv
libxerces-c-3.1.so:_ZN11xercesc_3_19SAXParser14doctypeCommentEPKt
libxerces-c-3.1.so:_ZN11xercesc_3_19SAXParser14endInputSourceERKNS_11InputSourceE
libxerces-c-3.1.so:_ZN11xercesc_3_19SAXParser14expandSystemIdEPKtRNS_9XMLBufferE
libxerces-c-3.1.so:_ZN11xercesc_3_19SAXParser14getRootGrammarEv
libxerces-c-3.1.so:_ZN11xercesc_3_19SAXParser14setPSVIHandlerEPNS_11PSVIHandlerE
libxerces-c-3.1.so:_ZN11xercesc_3_19SAXParser14startExtSubsetEv
libxerces-c-3.1.so:_ZN11xercesc_3_19SAXParser14startIntSubsetEv
libxerces-c-3.1.so:_ZN11xercesc_3_19SAXParser15resetInProgressEv
libxerces-c-3.1.so:_ZN11xercesc_3_19SAXParser15setDoNamespacesEb
libxerces-c-3.1.so:_ZN11xercesc_3_19SAXParser15setErrorHandlerEPNS_12ErrorHandlerE
libxerces-c-3.1.so:_ZN11xercesc_3_19SAXParser15setLowWaterMarkEm
libxerces-c-3.1.so:_ZN11xercesc_3_19SAXParser16startInputSourceERKNS_11InputSourceE
libxerces-c-3.1.so:_ZN11xercesc_3_19SAXParser17doctypeWhitespaceEPKtm
libxerces-c-3.1.so:_ZN11xercesc_3_19SAXParser17setEntityResolverEPNS_14EntityResolverE
libxerces-c-3.1.so:_ZN11xercesc_3_19SAXParser18endEntityReferenceERKNS_13XMLEntityDeclE
libxerces-c-3.1.so:_ZN11xercesc_3_19SAXParser18setCalculateSrcOfsEb
libxerces-c-3.1.so:_ZN11xercesc_3_19SAXParser18setDocumentHandlerEPNS_15DocumentHandlerE
libxerces-c-3.1.so:_ZN11xercesc_3_19SAXParser18setIgnoreCachedDTDEb
libxerces-c-3.1.so:_ZN11xercesc_3_19SAXParser18setInputBufferSizeEm
libxerces-c-3.1.so:_ZN11xercesc_3_19SAXParser18setLoadExternalDTDEb
libxerces-c-3.1.so:_ZN11xercesc_3_19SAXParser18setSecurityManagerEPNS_15SecurityManagerE
libxerces-c-3.1.so:_ZN11xercesc_3_19SAXParser19ignorableWhitespaceEPKtmb
libxerces-c-3.1.so:_ZN11xercesc_3_19SAXParser19removeAdvDocHandlerEPNS_18XMLDocumentHandlerE
libxerces-c-3.1.so:_ZN11xercesc_3_19SAXParser19setValidationSchemeENS0_10ValSchemesE
libxerces-c-3.1.so:_ZN11xercesc_3_19SAXParser20installAdvDocHandlerEPNS_18XMLDocumentHandlerE
libxerces-c-3.1.so:_ZN11xercesc_3_19SAXParser20setIgnoreAnnotationsEb
libxerces-c-3.1.so:_ZN11xercesc_3_19SAXParser20setSkipDTDValidationEb
libxerces-c-3.1.so:_ZN11xercesc_3_19SAXParser20setXMLEntityResolverEPNS_17XMLEntityResolverE
libxerces-c-3.1.so:_ZN11xercesc_3_19SAXParser20startEntityReferenceERKNS_13XMLEntityDeclE
libxerces-c-3.1.so:_ZN11xercesc_3_19SAXParser21cacheGrammarFromParseEb
libxerces-c-3.1.so:_ZN11xercesc_3_19SAXParser22resetCachedGrammarPoolEv
libxerces-c-3.1.so:_ZN11xercesc_3_19SAXParser22setValidateAnnotationsEb
libxerces-c-3.1.so:_ZN11xercesc_3_19SAXParser23useCachedGrammarInParseEb
libxerces-c-3.1.so:_ZN11xercesc_3_19SAXParser24setExitOnFirstFatalErrorEb
libxerces-c-3.1.so:_ZN11xercesc_3_19SAXParser24setHandleMultipleImportsEb
libxerces-c-3.1.so:_ZN11xercesc_3_19SAXParser24setStandardUriConformantEb
libxerces-c-3.1.so:_ZN11xercesc_3_19SAXParser25setExternalSchemaLocationEPKc
libxerces-c-3.1.so:_ZN11xercesc_3_19SAXParser25setExternalSchemaLocationEPKt
libxerces-c-3.1.so:_ZN11xercesc_3_19SAXParser28setValidationConstraintFatalEb
libxerces-c-3.1.so:_ZN11xercesc_3_19SAXParser29setIdentityConstraintCheckingEb
libxerces-c-3.1.so:_ZN11xercesc_3_19SAXParser31setGenerateSyntheticAnnotationsEb
libxerces-c-3.1.so:_ZN11xercesc_3_19SAXParser31setValidationSchemaFullCheckingEb
libxerces-c-3.1.so:_ZN11xercesc_3_19SAXParser33setDisableDefaultEntityResolutionEb
libxerces-c-3.1.so:_ZN11xercesc_3_19SAXParser36setExternalNoNamespaceSchemaLocationEPKc
libxerces-c-3.1.so:_ZN11xercesc_3_19SAXParser36setExternalNoNamespaceSchemaLocationEPKt
libxerces-c-3.1.so:_ZN11xercesc_3_19SAXParser5docPIEPKtS2_
libxerces-c-3.1.so:_ZN11xercesc_3_19SAXParser5errorEjPKtNS_16XMLErrorReporter8ErrTypesES2_S2_S2_mm
libxerces-c-3.1.so:_ZN11xercesc_3_19SAXParser5parseEPKc
libxerces-c-3.1.so:_ZN11xercesc_3_19SAXParser5parseEPKt
libxerces-c-3.1.so:_ZN11xercesc_3_19SAXParser5parseERKNS_11InputSourceE
libxerces-c-3.1.so:_ZN11xercesc_3_19SAXParser6attDefERKNS_14DTDElementDeclERKNS_9DTDAttDefEb
libxerces-c-3.1.so:_ZN11xercesc_3_19SAXParser7XMLDeclEPKtS2_S2_S2_
libxerces-c-3.1.so:_ZN11xercesc_3_19SAXParser7cleanUpEv
libxerces-c-3.1.so:_ZN11xercesc_3_19SAXParser8TextDeclEPKtS2_
libxerces-c-3.1.so:_ZN11xercesc_3_19SAXParser9doctypePIEPKtS2_
libxerces-c-3.1.so:_ZN11xercesc_3_19SAXParser9parseNextERNS_13XMLPScanTokenE
libxerces-c-3.1.so:_ZN11xercesc_3_19SAXParserC1EPNS_12XMLValidatorEPNS_13MemoryManagerEPNS_14XMLGrammarPoolE
libxerces-c-3.1.so:_ZN11xercesc_3_19SAXParserC2EPNS_12XMLValidatorEPNS_13MemoryManagerEPNS_14XMLGrammarPoolE
libxerces-c-3.1.so:_ZN11xercesc_3_19SAXParserD0Ev
libxerces-c-3.1.so:_ZN11xercesc_3_19SAXParserD1Ev
libxerces-c-3.1.so:_ZN11xercesc_3_19SAXParserD2Ev
libxerces-c-3.1.so:_ZN11xercesc_3_19XMLAttDef12createObjectEPNS_13MemoryManagerE
libxerces-c-3.1.so:_ZN11xercesc_3_19XMLAttDef16getAttTypeStringENS0_8AttTypesEPNS_13MemoryManagerE
libxerces-c-3.1.so:_ZN11xercesc_3_19XMLAttDef19getDefAttTypeStringENS0_11DefAttTypesEPNS_13MemoryManagerE
libxerces-c-3.1.so:_ZN11xercesc_3_19XMLAttDef7cleanUpEv
libxerces-c-3.1.so:_ZN11xercesc_3_19XMLAttDef9serializeERNS_16XSerializeEngineE
libxerces-c-3.1.so:_ZN11xercesc_3_19XMLAttDefC1ENS0_8AttTypesENS0_11DefAttTypesEPNS_13MemoryManagerE
libxerces-c-3.1.so:_ZN11xercesc_3_19XMLAttDefC1EPKtNS0_8AttTypesENS0_11DefAttTypesES2_PNS_13MemoryManagerE
libxerces-c-3.1.so:_ZN11xercesc_3_19XMLAttDefC2ENS0_8AttTypesENS0_11DefAttTypesEPNS_13MemoryManagerE
libxerces-c-3.1.so:_ZN11xercesc_3_19XMLAttDefC2EPKtNS0_8AttTypesENS0_11DefAttTypesES2_PNS_13MemoryManagerE
libxerces-c-3.1.so:_ZN11xercesc_3_19XMLAttDefD0Ev
libxerces-c-3.1.so:_ZN11xercesc_3_19XMLAttDefD1Ev
libxerces-c-3.1.so:_ZN11xercesc_3_19XMLAttDefD2Ev
libxerces-c-3.1.so:_ZN11xercesc_3_19XMLBuffer14ensureCapacityEm
libxerces-c-3.1.so:_ZN11xercesc_3_19XMLDouble12createObjectEPNS_13MemoryManagerE
libxerces-c-3.1.so:_ZN11xercesc_3_19XMLDouble13checkBoundaryEPc
libxerces-c-3.1.so:_ZN11xercesc_3_19XMLDouble9serializeERNS_16XSerializeEngineE
libxerces-c-3.1.so:_ZN11xercesc_3_19XMLDoubleC1EPKtPNS_13MemoryManagerE
libxerces-c-3.1.so:_ZN11xercesc_3_19XMLDoubleC1EPNS_13MemoryManagerE
libxerces-c-3.1.so:_ZN11xercesc_3_19XMLDoubleC2EPKtPNS_13MemoryManagerE
libxerces-c-3.1.so:_ZN11xercesc_3_19XMLDoubleC2EPNS_13MemoryManagerE
libxerces-c-3.1.so:_ZN11xercesc_3_19XMLDoubleD0Ev
libxerces-c-3.1.so:_ZN11xercesc_3_19XMLDoubleD1Ev
libxerces-c-3.1.so:_ZN11xercesc_3_19XMLDoubleD2Ev
libxerces-c-3.1.so:_ZN11xercesc_3_19XMLNumber10loadNumberENS0_10NumberTypeERNS_16XSerializeEngineE
libxerces-c-3.1.so:_ZN11xercesc_3_19XMLNumber12createObjectEPNS_13MemoryManagerE
libxerces-c-3.1.so:_ZN11xercesc_3_19XMLNumber9serializeERNS_16XSerializeEngineE
libxerces-c-3.1.so:_ZN11xercesc_3_19XMLNumberC1ERKS0_
libxerces-c-3.1.so:_ZN11xercesc_3_19XMLNumberC1Ev
libxerces-c-3.1.so:_ZN11xercesc_3_19XMLNumberC2ERKS0_
libxerces-c-3.1.so:_ZN11xercesc_3_19XMLNumberC2Ev
libxerces-c-3.1.so:_ZN11xercesc_3_19XMLNumberD0Ev
libxerces-c-3.1.so:_ZN11xercesc_3_19XMLNumberD1Ev
libxerces-c-3.1.so:_ZN11xercesc_3_19XMLNumberD2Ev
libxerces-c-3.1.so:_ZN11xercesc_3_19XMLReader10peekStringEPKt
libxerces-c-3.1.so:_ZN11xercesc_3_19XMLReader10skipSpacesERbb
libxerces-c-3.1.so:_ZN11xercesc_3_19XMLReader11setEncodingEPKt
libxerces-c-3.1.so:_ZN11xercesc_3_19XMLReader11skipIfQuoteERt
libxerces-c-3.1.so:_ZN11xercesc_3_19XMLReader11skippedCharEt
libxerces-c-3.1.so:_ZN11xercesc_3_19XMLReader12doInitDecodeEv
libxerces-c-3.1.so:_ZN11xercesc_3_19XMLReader12skippedSpaceEv
libxerces-c-3.1.so:_ZN11xercesc_3_19XMLReader13skippedStringEPKt
libxerces-c-3.1.so:_ZN11xercesc_3_19XMLReader14xcodeMoreCharsEPtPhm
libxerces-c-3.1.so:_ZN11xercesc_3_19XMLReader15checkForSwappedEv
libxerces-c-3.1.so:_ZN11xercesc_3_19XMLReader15getUpToCharOrWSERNS_9XMLBufferEt
libxerces-c-3.1.so:_ZN11xercesc_3_19XMLReader16refreshRawBufferEv
libxerces-c-3.1.so:_ZN11xercesc_3_19XMLReader17refreshCharBufferEv
libxerces-c-3.1.so:_ZN11xercesc_3_19XMLReader17skippedStringLongEPKt
libxerces-c-3.1.so:_ZN11xercesc_3_19XMLReader7getNameERNS_9XMLBufferEb
libxerces-c-3.1.so:_ZN11xercesc_3_19XMLReader8getQNameERNS_9XMLBufferEPi
libxerces-c-3.1.so:_ZN11xercesc_3_19XMLReader9getNCNameERNS_9XMLBufferE
libxerces-c-3.1.so:_ZN11xercesc_3_19XMLReader9getSpacesERNS_9XMLBufferE
libxerces-c-3.1.so:_ZN11xercesc_3_19XMLReader9handleEOLERtb
libxerces-c-3.1.so:_ZN11xercesc_3_19XMLReaderC1EPKtS2_PNS_14BinInputStreamENS0_7RefFromENS0_5TypesENS0_7SourcesEbbmNS0_10XMLVersionEPNS_13MemoryManagerE
libxerces-c-3.1.so:_ZN11xercesc_3_19XMLReaderC1EPKtS2_PNS_14BinInputStreamENS_13XMLRecognizer9EncodingsENS0_7RefFromENS0_5TypesENS0_7SourcesEbbmNS0_10XMLVersionEPNS_13MemoryManagerE
libxerces-c-3.1.so:_ZN11xercesc_3_19XMLReaderC1EPKtS2_PNS_14BinInputStreamES2_NS0_7RefFromENS0_5TypesENS0_7SourcesEbbmNS0_10XMLVersionEPNS_13MemoryManagerE
libxerces-c-3.1.so:_ZN11xercesc_3_19XMLReaderC2EPKtS2_PNS_14BinInputStreamENS0_7RefFromENS0_5TypesENS0_7SourcesEbbmNS0_10XMLVersionEPNS_13MemoryManagerE
libxerces-c-3.1.so:_ZN11xercesc_3_19XMLReaderC2EPKtS2_PNS_14BinInputStreamENS_13XMLRecognizer9EncodingsENS0_7RefFromENS0_5TypesENS0_7SourcesEbbmNS0_10XMLVersionEPNS_13MemoryManagerE
libxerces-c-3.1.so:_ZN11xercesc_3_19XMLReaderC2EPKtS2_PNS_14BinInputStreamES2_NS0_7RefFromENS0_5TypesENS0_7SourcesEbbmNS0_10XMLVersionEPNS_13MemoryManagerE
libxerces-c-3.1.so:_ZN11xercesc_3_19XMLReaderD1Ev
libxerces-c-3.1.so:_ZN11xercesc_3_19XMLReaderD2Ev
libxerces-c-3.1.so:_ZN11xercesc_3_19XMLString10collapseWSEPtPNS_13MemoryManagerE
libxerces-c-3.1.so:_ZN11xercesc_3_19XMLString10copyStringEPcPKc
libxerces-c-3.1.so:_ZN11xercesc_3_19XMLString10copyStringEPtPKt
libxerces-c-3.1.so:_ZN11xercesc_3_19XMLString10initStringEPNS_16XMLLCPTranscoderEPNS_13MemoryManagerE
libxerces-c-3.1.so:_ZN11xercesc_3_19XMLString10isAlphaNumEt
libxerces-c-3.1.so:_ZN11xercesc_3_19XMLString10removeCharEPKtRS1_RNS_9XMLBufferE
libxerces-c-3.1.so:_ZN11xercesc_3_19XMLString10sizeToTextEmPcmjPNS_13MemoryManagerE
libxerces-c-3.1.so:_ZN11xercesc_3_19XMLString10sizeToTextEmPtmjPNS_13MemoryManagerE
libxerces-c-3.1.so:_ZN11xercesc_3_19XMLString10startsWithEPKcS2_
libxerces-c-3.1.so:_ZN11xercesc_3_19XMLString10termStringEv
libxerces-c-3.1.so:_ZN11xercesc_3_19XMLString11copyNStringEPtPKtm
libxerces-c-3.1.so:_ZN11xercesc_3_19XMLString11lastIndexOfEPKcc
libxerces-c-3.1.so:_ZN11xercesc_3_19XMLString11lastIndexOfEPKccmPNS_13MemoryManagerE
libxerces-c-3.1.so:_ZN11xercesc_3_19XMLString11lastIndexOfEPKttmPNS_13MemoryManagerE
libxerces-c-3.1.so:_ZN11xercesc_3_19XMLString11lastIndexOfEtPKtm
libxerces-c-3.1.so:_ZN11xercesc_3_19XMLString11startsWithIEPKcS2_
libxerces-c-3.1.so:_ZN11xercesc_3_19XMLString12isWSReplacedEPKt
libxerces-c-3.1.so:_ZN11xercesc_3_19XMLString12patternMatchEPKtS2_
libxerces-c-3.1.so:_ZN11xercesc_3_19XMLString13compareStringEPKcS2_
libxerces-c-3.1.so:_ZN11xercesc_3_19XMLString13compareStringEPKtS2_
libxerces-c-3.1.so:_ZN11xercesc_3_19XMLString13isWSCollapsedEPKt
libxerces-c-3.1.so:_ZN11xercesc_3_19XMLString13regionMatchesEPKtiS2_im
libxerces-c-3.1.so:_ZN11xercesc_3_19XMLString13replaceTokensEPtmPKtS3_S3_S3_PNS_13MemoryManagerE
libxerces-c-3.1.so:_ZN11xercesc_3_19XMLString14compareIStringEPKcS2_
libxerces-c-3.1.so:_ZN11xercesc_3_19XMLString14compareIStringEPKtS2_
libxerces-c-3.1.so:_ZN11xercesc_3_19XMLString14compareNStringEPKcS2_m
libxerces-c-3.1.so:_ZN11xercesc_3_19XMLString14compareNStringEPKtS2_m
libxerces-c-3.1.so:_ZN11xercesc_3_19XMLString14isValidEncNameEPKt
libxerces-c-3.1.so:_ZN11xercesc_3_19XMLString14lowerCaseASCIIEPt
libxerces-c-3.1.so:_ZN11xercesc_3_19XMLString14regionIMatchesEPKtiS2_im
libxerces-c-3.1.so:_ZN11xercesc_3_19XMLString14tokenizeStringEPKtPNS_13MemoryManagerE
libxerces-c-3.1.so:_ZN11xercesc_3_19XMLString14upperCaseASCIIEPt
libxerces-c-3.1.so:_ZN11xercesc_3_19XMLString15compareNIStringEPKcS2_m
libxerces-c-3.1.so:_ZN11xercesc_3_19XMLString15compareNIStringEPKtS2_m
libxerces-c-3.1.so:_ZN11xercesc_3_19XMLString15isValidNOTATIONEPKtPNS_13MemoryManagerE
libxerces-c-3.1.so:_ZN11xercesc_3_19XMLString19compareIStringASCIIEPKtS2_
libxerces-c-3.1.so:_ZN11xercesc_3_19XMLString3cutEPtm
libxerces-c-3.1.so:_ZN11xercesc_3_19XMLString4hashEPKcm
libxerces-c-3.1.so:_ZN11xercesc_3_19XMLString4trimEPc
libxerces-c-3.1.so:_ZN11xercesc_3_19XMLString4trimEPt
libxerces-c-3.1.so:_ZN11xercesc_3_19XMLString5isHexEt
libxerces-c-3.1.so:_ZN11xercesc_3_19XMLString6fixURIEPKtPt
libxerces-c-3.1.so:_ZN11xercesc_3_19XMLString7findAnyEPKtS2_
libxerces-c-3.1.so:_ZN11xercesc_3_19XMLString7findAnyEPtPKt
libxerces-c-3.1.so:_ZN11xercesc_3_19XMLString7indexOfEPKcc
libxerces-c-3.1.so:_ZN11xercesc_3_19XMLString7indexOfEPKccmPNS_13MemoryManagerE
libxerces-c-3.1.so:_ZN11xercesc_3_19XMLString7indexOfEPKtt
libxerces-c-3.1.so:_ZN11xercesc_3_19XMLString7indexOfEPKttmPNS_13MemoryManagerE
libxerces-c-3.1.so:_ZN11xercesc_3_19XMLString7isAlphaEt
libxerces-c-3.1.so:_ZN11xercesc_3_19XMLString7isDigitEt
libxerces-c-3.1.so:_ZN11xercesc_3_19XMLString7releaseEPPcPNS_13MemoryManagerE
libxerces-c-3.1.so:_ZN11xercesc_3_19XMLString7releaseEPPtPNS_13MemoryManagerE
libxerces-c-3.1.so:_ZN11xercesc_3_19XMLString8isInListEPKtS2_
libxerces-c-3.1.so:_ZN11xercesc_3_19XMLString8parseIntEPKtPNS_13MemoryManagerE
libxerces-c-3.1.so:_ZN11xercesc_3_19XMLString8removeWSEPtPNS_13MemoryManagerE
libxerces-c-3.1.so:_ZN11xercesc_3_19XMLString9binToTextEiPcmjPNS_13MemoryManagerE
libxerces-c-3.1.so:_ZN11xercesc_3_19XMLString9binToTextEiPtmjPNS_13MemoryManagerE
libxerces-c-3.1.so:_ZN11xercesc_3_19XMLString9binToTextEjPcmjPNS_13MemoryManagerE
libxerces-c-3.1.so:_ZN11xercesc_3_19XMLString9binToTextEjPtmjPNS_13MemoryManagerE
libxerces-c-3.1.so:_ZN11xercesc_3_19XMLString9binToTextElPcmjPNS_13MemoryManagerE
libxerces-c-3.1.so:_ZN11xercesc_3_19XMLString9binToTextElPtmjPNS_13MemoryManagerE
libxerces-c-3.1.so:_ZN11xercesc_3_19XMLString9binToTextEmPcmjPNS_13MemoryManagerE
libxerces-c-3.1.so:_ZN11xercesc_3_19XMLString9binToTextEmPtmjPNS_13MemoryManagerE
libxerces-c-3.1.so:_ZN11xercesc_3_19XMLString9catStringEPcPKc
libxerces-c-3.1.so:_ZN11xercesc_3_19XMLString9catStringEPtPKt
libxerces-c-3.1.so:_ZN11xercesc_3_19XMLString9lowerCaseEPt
libxerces-c-3.1.so:_ZN11xercesc_3_19XMLString9makeUNameEPKtS2_
libxerces-c-3.1.so:_ZN11xercesc_3_19XMLString9replaceWSEPtPNS_13MemoryManagerE
libxerces-c-3.1.so:_ZN11xercesc_3_19XMLString9replicateEPKcPNS_13MemoryManagerE
libxerces-c-3.1.so:_ZN11xercesc_3_19XMLString9stringLenEPKc
libxerces-c-3.1.so:_ZN11xercesc_3_19XMLString9subStringEPcPKcmmPNS_13MemoryManagerE
libxerces-c-3.1.so:_ZN11xercesc_3_19XMLString9subStringEPtPKtmmPNS_13MemoryManagerE
libxerces-c-3.1.so:_ZN11xercesc_3_19XMLString9subStringEPtPKtmmmPNS_13MemoryManagerE
libxerces-c-3.1.so:_ZN11xercesc_3_19XMLString9textToBinEPKtRjPNS_13MemoryManagerE
libxerces-c-3.1.so:_ZN11xercesc_3_19XMLString9transcodeEPKcPNS_13MemoryManagerE
libxerces-c-3.1.so:_ZN11xercesc_3_19XMLString9transcodeEPKcPtmPNS_13MemoryManagerE
libxerces-c-3.1.so:_ZN11xercesc_3_19XMLString9transcodeEPKtPNS_13MemoryManagerE
libxerces-c-3.1.so:_ZN11xercesc_3_19XMLString9transcodeEPKtPcmPNS_13MemoryManagerE
libxerces-c-3.1.so:_ZN11xercesc_3_19XMLString9upperCaseEPt
libxerces-c-3.1.so:_ZNK11xercesc_3_110CMBinaryOp11calcLastPosERNS_10CMStateSetE
libxerces-c-3.1.so:_ZNK11xercesc_3_110CMBinaryOp12calcFirstPosERNS_10CMStateSetE
libxerces-c-3.1.so:_ZNK11xercesc_3_110CMBinaryOp7getLeftEv
libxerces-c-3.1.so:_ZNK11xercesc_3_110CMBinaryOp8getRightEv
libxerces-c-3.1.so:_ZNK11xercesc_3_110DTDGrammar12getProtoTypeEv
libxerces-c-3.1.so:_ZNK11xercesc_3_110DTDGrammar14isSerializableEv
libxerces-c-3.1.so:_ZNK11xercesc_3_110DTDGrammar21getGrammarDescriptionEv
libxerces-c-3.1.so:_ZNK11xercesc_3_110ModifierOp7getDataEv
libxerces-c-3.1.so:_ZNK11xercesc_3_110ModifierOp8getData2Ev
libxerces-c-3.1.so:_ZNK11xercesc_3_110XMLRefInfo12getProtoTypeEv
libxerces-c-3.1.so:_ZNK11xercesc_3_110XMLRefInfo14isSerializableEv
libxerces-c-3.1.so:_ZNK11xercesc_3_110XMLScanner10getURITextEj
libxerces-c-3.1.so:_ZNK11xercesc_3_110XMLScanner10getURITextEjRNS_9XMLBufferE
libxerces-c-3.1.so:_ZNK11xercesc_3_110XProtoType5storeERNS_16XSerializeEngineE
libxerces-c-3.1.so:_ZNK11xercesc_3_110XercesStep12getProtoTypeEv
libxerces-c-3.1.so:_ZNK11xercesc_3_110XercesStep14isSerializableEv
libxerces-c-3.1.so:_ZNK11xercesc_3_110XercesStepeqERKS0_
libxerces-c-3.1.so:_ZNK11xercesc_3_110XercesStepneERKS0_
libxerces-c-3.1.so:_ZNK11xercesc_3_111DOMAttrImpl10getBaseURIEv
libxerces-c-3.1.so:_ZNK11xercesc_3_111DOMAttrImpl10getFeatureEPKtS2_
libxerces-c-3.1.so:_ZNK11xercesc_3_111DOMAttrImpl10isSameNodeEPKNS_7DOMNodeE
libxerces-c-3.1.so:_ZNK11xercesc_3_111DOMAttrImpl11getNodeNameEv
libxerces-c-3.1.so:_ZNK11xercesc_3_111DOMAttrImpl11getNodeTypeEv
libxerces-c-3.1.so:_ZNK11xercesc_3_111DOMAttrImpl11getUserDataEPKt
libxerces-c-3.1.so:_ZNK11xercesc_3_111DOMAttrImpl11isEqualNodeEPKNS_7DOMNodeE
libxerces-c-3.1.so:_ZNK11xercesc_3_111DOMAttrImpl11isSupportedEPKtS2_
libxerces-c-3.1.so:_ZNK11xercesc_3_111DOMAttrImpl12getLastChildEv
libxerces-c-3.1.so:_ZNK11xercesc_3_111DOMAttrImpl12getLocalNameEv
libxerces-c-3.1.so:_ZNK11xercesc_3_111DOMAttrImpl12getNodeValueEv
libxerces-c-3.1.so:_ZNK11xercesc_3_111DOMAttrImpl12getSpecifiedEv
libxerces-c-3.1.so:_ZNK11xercesc_3_111DOMAttrImpl12getTextValueEPNS_7DOMNodeERNS_9XMLBufferE
libxerces-c-3.1.so:_ZNK11xercesc_3_111DOMAttrImpl12lookupPrefixEPKt
libxerces-c-3.1.so:_ZNK11xercesc_3_111DOMAttrImpl13getAttributesEv
libxerces-c-3.1.so:_ZNK11xercesc_3_111DOMAttrImpl13getChildNodesEv
libxerces-c-3.1.so:_ZNK11xercesc_3_111DOMAttrImpl13getFirstChildEv
libxerces-c-3.1.so:_ZNK11xercesc_3_111DOMAttrImpl13getParentNodeEv
libxerces-c-3.1.so:_ZNK11xercesc_3_111DOMAttrImpl13hasAttributesEv
libxerces-c-3.1.so:_ZNK11xercesc_3_111DOMAttrImpl13hasChildNodesEv
libxerces-c-3.1.so:_ZNK11xercesc_3_111DOMAttrImpl14getNextSiblingEv
libxerces-c-3.1.so:_ZNK11xercesc_3_111DOMAttrImpl14getTextContentEv
libxerces-c-3.1.so:_ZNK11xercesc_3_111DOMAttrImpl15getNamespaceURIEv
libxerces-c-3.1.so:_ZNK11xercesc_3_111DOMAttrImpl15getOwnerElementEv
libxerces-c-3.1.so:_ZNK11xercesc_3_111DOMAttrImpl16getOwnerDocumentEv
libxerces-c-3.1.so:_ZNK11xercesc_3_111DOMAttrImpl17getSchemaTypeInfoEv
libxerces-c-3.1.so:_ZNK11xercesc_3_111DOMAttrImpl18getPreviousSiblingEv
libxerces-c-3.1.so:_ZNK11xercesc_3_111DOMAttrImpl18isDefaultNamespaceEPKt
libxerces-c-3.1.so:_ZNK11xercesc_3_111DOMAttrImpl18lookupNamespaceURIEPKt
libxerces-c-3.1.so:_ZNK11xercesc_3_111DOMAttrImpl23compareDocumentPositionEPKNS_7DOMNodeE
libxerces-c-3.1.so:_ZNK11xercesc_3_111DOMAttrImpl4isIdEv
libxerces-c-3.1.so:_ZNK11xercesc_3_111DOMAttrImpl7getNameEv
libxerces-c-3.1.so:_ZNK11xercesc_3_111DOMAttrImpl8getValueEv
libxerces-c-3.1.so:_ZNK11xercesc_3_111DOMAttrImpl9cloneNodeEb
libxerces-c-3.1.so:_ZNK11xercesc_3_111DOMAttrImpl9getPrefixEv
libxerces-c-3.1.so:_ZNK11xercesc_3_111DOMNodeImpl10getBaseURIEv
libxerces-c-3.1.so:_ZNK11xercesc_3_111DOMNodeImpl10getFeatureEPKtS2_
libxerces-c-3.1.so:_ZNK11xercesc_3_111DOMNodeImpl10isSameNodeEPKNS_7DOMNodeE
libxerces-c-3.1.so:_ZNK11xercesc_3_111DOMNodeImpl11getUserDataEPKt
libxerces-c-3.1.so:_ZNK11xercesc_3_111DOMNodeImpl11isEqualNodeEPKNS_7DOMNodeE
libxerces-c-3.1.so:_ZNK11xercesc_3_111DOMNodeImpl11isSupportedEPKtS2_
libxerces-c-3.1.so:_ZNK11xercesc_3_111DOMNodeImpl12getLastChildEv
libxerces-c-3.1.so:_ZNK11xercesc_3_111DOMNodeImpl12getLocalNameEv
libxerces-c-3.1.so:_ZNK11xercesc_3_111DOMNodeImpl12getNodeValueEv
libxerces-c-3.1.so:_ZNK11xercesc_3_111DOMNodeImpl12lookupPrefixEPKt
libxerces-c-3.1.so:_ZNK11xercesc_3_111DOMNodeImpl12lookupPrefixEPKtPNS_10DOMElementE
libxerces-c-3.1.so:_ZNK11xercesc_3_111DOMNodeImpl13getAttributesEv
libxerces-c-3.1.so:_ZNK11xercesc_3_111DOMNodeImpl13getChildNodesEv
libxerces-c-3.1.so:_ZNK11xercesc_3_111DOMNodeImpl13getFirstChildEv
libxerces-c-3.1.so:_ZNK11xercesc_3_111DOMNodeImpl13getParentNodeEv
libxerces-c-3.1.so:_ZNK11xercesc_3_111DOMNodeImpl13hasAttributesEv
libxerces-c-3.1.so:_ZNK11xercesc_3_111DOMNodeImpl13hasChildNodesEv
libxerces-c-3.1.so:_ZNK11xercesc_3_111DOMNodeImpl14getNextSiblingEv
libxerces-c-3.1.so:_ZNK11xercesc_3_111DOMNodeImpl14getTextContentEPtRm
libxerces-c-3.1.so:_ZNK11xercesc_3_111DOMNodeImpl14getTextContentEv
libxerces-c-3.1.so:_ZNK11xercesc_3_111DOMNodeImpl15getNamespaceURIEv
libxerces-c-3.1.so:_ZNK11xercesc_3_111DOMNodeImpl16getOwnerDocumentEv
libxerces-c-3.1.so:_ZNK11xercesc_3_111DOMNodeImpl17getTreeParentNodeEPKNS_7DOMNodeE
libxerces-c-3.1.so:_ZNK11xercesc_3_111DOMNodeImpl18getElementAncestorEPKNS_7DOMNodeE
libxerces-c-3.1.so:_ZNK11xercesc_3_111DOMNodeImpl18getPreviousSiblingEv
libxerces-c-3.1.so:_ZNK11xercesc_3_111DOMNodeImpl18isDefaultNamespaceEPKt
libxerces-c-3.1.so:_ZNK11xercesc_3_111DOMNodeImpl18lookupNamespaceURIEPKt
libxerces-c-3.1.so:_ZNK11xercesc_3_111DOMNodeImpl20callUserDataHandlersENS_18DOMUserDataHandler16DOMOperationTypeEPKNS_7DOMNodeEPS3_
libxerces-c-3.1.so:_ZNK11xercesc_3_111DOMNodeImpl23compareDocumentPositionEPKNS_7DOMNodeE
libxerces-c-3.1.so:_ZNK11xercesc_3_111DOMNodeImpl26reverseTreeOrderBitPatternEs
libxerces-c-3.1.so:_ZNK11xercesc_3_111DOMNodeImpl9getPrefixEv
libxerces-c-3.1.so:_ZNK11xercesc_3_111DOMTextImpl10getBaseURIEv
libxerces-c-3.1.so:_ZNK11xercesc_3_111DOMTextImpl10getFeatureEPKtS2_
libxerces-c-3.1.so:_ZNK11xercesc_3_111DOMTextImpl10isSameNodeEPKNS_7DOMNodeE
libxerces-c-3.1.so:_ZNK11xercesc_3_111DOMTextImpl11getNodeNameEv
libxerces-c-3.1.so:_ZNK11xercesc_3_111DOMTextImpl11getNodeTypeEv
libxerces-c-3.1.so:_ZNK11xercesc_3_111DOMTextImpl11getUserDataEPKt
libxerces-c-3.1.so:_ZNK11xercesc_3_111DOMTextImpl11isEqualNodeEPKNS_7DOMNodeE
libxerces-c-3.1.so:_ZNK11xercesc_3_111DOMTextImpl11isSupportedEPKtS2_
libxerces-c-3.1.so:_ZNK11xercesc_3_111DOMTextImpl12getLastChildEv
libxerces-c-3.1.so:_ZNK11xercesc_3_111DOMTextImpl12getLocalNameEv
libxerces-c-3.1.so:_ZNK11xercesc_3_111DOMTextImpl12getNodeValueEv
libxerces-c-3.1.so:_ZNK11xercesc_3_111DOMTextImpl12getWholeTextEv
libxerces-c-3.1.so:_ZNK11xercesc_3_111DOMTextImpl12lookupPrefixEPKt
libxerces-c-3.1.so:_ZNK11xercesc_3_111DOMTextImpl13getAttributesEv
libxerces-c-3.1.so:_ZNK11xercesc_3_111DOMTextImpl13getChildNodesEv
libxerces-c-3.1.so:_ZNK11xercesc_3_111DOMTextImpl13getFirstChildEv
libxerces-c-3.1.so:_ZNK11xercesc_3_111DOMTextImpl13getParentNodeEv
libxerces-c-3.1.so:_ZNK11xercesc_3_111DOMTextImpl13hasAttributesEv
libxerces-c-3.1.so:_ZNK11xercesc_3_111DOMTextImpl13hasChildNodesEv
libxerces-c-3.1.so:_ZNK11xercesc_3_111DOMTextImpl13substringDataEmm
libxerces-c-3.1.so:_ZNK11xercesc_3_111DOMTextImpl14getNextSiblingEv
libxerces-c-3.1.so:_ZNK11xercesc_3_111DOMTextImpl14getTextContentEv
libxerces-c-3.1.so:_ZNK11xercesc_3_111DOMTextImpl15getNamespaceURIEv
libxerces-c-3.1.so:_ZNK11xercesc_3_111DOMTextImpl16getOwnerDocumentEv
libxerces-c-3.1.so:_ZNK11xercesc_3_111DOMTextImpl18getPreviousSiblingEv
libxerces-c-3.1.so:_ZNK11xercesc_3_111DOMTextImpl18isDefaultNamespaceEPKt
libxerces-c-3.1.so:_ZNK11xercesc_3_111DOMTextImpl18lookupNamespaceURIEPKt
libxerces-c-3.1.so:_ZNK11xercesc_3_111DOMTextImpl21isIgnorableWhitespaceEv
libxerces-c-3.1.so:_ZNK11xercesc_3_111DOMTextImpl23compareDocumentPositionEPKNS_7DOMNodeE
libxerces-c-3.1.so:_ZNK11xercesc_3_111DOMTextImpl29getIsElementContentWhitespaceEv
libxerces-c-3.1.so:_ZNK11xercesc_3_111DOMTextImpl7getDataEv
libxerces-c-3.1.so:_ZNK11xercesc_3_111DOMTextImpl9cloneNodeEb
libxerces-c-3.1.so:_ZNK11xercesc_3_111DOMTextImpl9getLengthEv
libxerces-c-3.1.so:_ZNK11xercesc_3_111DOMTextImpl9getPrefixEv
libxerces-c-3.1.so:_ZNK11xercesc_3_111IC_Selector12getProtoTypeEv
libxerces-c-3.1.so:_ZNK11xercesc_3_111IC_Selector14isSerializableEv
libxerces-c-3.1.so:_ZNK11xercesc_3_111IC_SelectoreqERKS0_
libxerces-c-3.1.so:_ZNK11xercesc_3_111IC_SelectorneERKS0_
libxerces-c-3.1.so:_ZNK11xercesc_3_111WFElemStack10topElementEv
libxerces-c-3.1.so:_ZNK11xercesc_3_111WFElemStack14mapPrefixToURIEPKtRb
libxerces-c-3.1.so:_ZNK11xercesc_3_111XMLDateTime10fillStringERPtim
libxerces-c-3.1.so:_ZNK11xercesc_3_111XMLDateTime10getRawDataEv
libxerces-c-3.1.so:_ZNK11xercesc_3_111XMLDateTime12getProtoTypeEv
libxerces-c-3.1.so:_ZNK11xercesc_3_111XMLDateTime12parseIntYearEm
libxerces-c-3.1.so:_ZNK11xercesc_3_111XMLDateTime14fillYearStringERPti
libxerces-c-3.1.so:_ZNK11xercesc_3_111XMLDateTime14isSerializableEv
libxerces-c-3.1.so:_ZNK11xercesc_3_111XMLDateTime15parseMiliSecondEmm
libxerces-c-3.1.so:_ZNK11xercesc_3_111XMLDateTime16validateDateTimeEv
libxerces-c-3.1.so:_ZNK11xercesc_3_111XMLDateTime17searchMiliSecondsERPtS2_
libxerces-c-3.1.so:_ZNK11xercesc_3_111XMLDateTime18getFormattedStringEv
libxerces-c-3.1.so:_ZNK11xercesc_3_111XMLDateTime30getDateCanonicalRepresentationEPNS_13MemoryManagerE
libxerces-c-3.1.so:_ZNK11xercesc_3_111XMLDateTime30getTimeCanonicalRepresentationEPNS_13MemoryManagerE
libxerces-c-3.1.so:_ZNK11xercesc_3_111XMLDateTime34getDateTimeCanonicalRepresentationEPNS_13MemoryManagerE
libxerces-c-3.1.so:_ZNK11xercesc_3_111XMLDateTime7getSignEv
libxerces-c-3.1.so:_ZNK11xercesc_3_111XMLDateTime7indexOfEmmt
libxerces-c-3.1.so:_ZNK11xercesc_3_111XMLDateTime8parseIntEmm
libxerces-c-3.1.so:_ZNK11xercesc_3_111XercesXPath12getProtoTypeEv
libxerces-c-3.1.so:_ZNK11xercesc_3_111XercesXPath14isSerializableEv
libxerces-c-3.1.so:_ZNK11xercesc_3_111XercesXPatheqERKS0_
libxerces-c-3.1.so:_ZNK11xercesc_3_111XercesXPathneERKS0_
libxerces-c-3.1.so:_ZNK11xercesc_3_112DGXMLScanner17getEntityDeclPoolEv
libxerces-c-3.1.so:_ZNK11xercesc_3_112DOMChildNode13getParentNodeEPKNS_7DOMNodeE
libxerces-c-3.1.so:_ZNK11xercesc_3_112DOMChildNode14getNextSiblingEv
libxerces-c-3.1.so:_ZNK11xercesc_3_112DOMChildNode18getPreviousSiblingEPKNS_7DOMNodeE
libxerces-c-3.1.so:_ZNK11xercesc_3_112DOMErrorImpl19setRelatedExceptionEPv
libxerces-c-3.1.so:_ZNK11xercesc_3_112DOMRangeImpl10checkIndexEPKNS_7DOMNodeEm
libxerces-c-3.1.so:_ZNK11xercesc_3_112DOMRangeImpl10cloneRangeEv
libxerces-c-3.1.so:_ZNK11xercesc_3_112DOMRangeImpl12getCollapsedEv
libxerces-c-3.1.so:_ZNK11xercesc_3_112DOMRangeImpl12getEndOffsetEv
libxerces-c-3.1.so:_ZNK11xercesc_3_112DOMRangeImpl12validateNodeEPKNS_7DOMNodeE
libxerces-c-3.1.so:_ZNK11xercesc_3_112DOMRangeImpl13cloneContentsEv
libxerces-c-3.1.so:_ZNK11xercesc_3_112DOMRangeImpl14getStartOffsetEv
libxerces-c-3.1.so:_ZNK11xercesc_3_112DOMRangeImpl15getEndContainerEv
libxerces-c-3.1.so:_ZNK11xercesc_3_112DOMRangeImpl16commonAncestorOfEPKNS_7DOMNodeES3_
libxerces-c-3.1.so:_ZNK11xercesc_3_112DOMRangeImpl17getStartContainerEv
libxerces-c-3.1.so:_ZNK11xercesc_3_112DOMRangeImpl19isValidAncestorTypeEPKNS_7DOMNodeE
libxerces-c-3.1.so:_ZNK11xercesc_3_112DOMRangeImpl20isLegalContainedNodeEPKNS_7DOMNodeE
libxerces-c-3.1.so:_ZNK11xercesc_3_112DOMRangeImpl21compareBoundaryPointsENS_8DOMRange10CompareHowEPKS1_
libxerces-c-3.1.so:_ZNK11xercesc_3_112DOMRangeImpl21hasLegalRootContainerEPKNS_7DOMNodeE
libxerces-c-3.1.so:_ZNK11xercesc_3_112DOMRangeImpl26getCommonAncestorContainerEv
libxerces-c-3.1.so:_ZNK11xercesc_3_112DOMRangeImpl7indexOfEPKNS_7DOMNodeES3_
libxerces-c-3.1.so:_ZNK11xercesc_3_112DOMRangeImpl8nextNodeEPKNS_7DOMNodeEb
libxerces-c-3.1.so:_ZNK11xercesc_3_112DOMRangeImpl8toStringEv
libxerces-c-3.1.so:_ZNK11xercesc_3_112DTDValidator11faultInAttrERNS_7XMLAttrERKNS_9XMLAttDefE
libxerces-c-3.1.so:_ZNK11xercesc_3_112DTDValidator18requiresNamespacesEv
libxerces-c-3.1.so:_ZNK11xercesc_3_112IGXMLScanner17getEntityDeclPoolEv
libxerces-c-3.1.so:_ZNK11xercesc_3_112KVStringPair12getProtoTypeEv
libxerces-c-3.1.so:_ZNK11xercesc_3_112KVStringPair14isSerializableEv
libxerces-c-3.1.so:_ZNK11xercesc_3_112SGXMLScanner17getEntityDeclPoolEv
libxerces-c-3.1.so:_ZNK11xercesc_3_112SchemaAttDef11getFullNameEv
libxerces-c-3.1.so:_ZNK11xercesc_3_112SchemaAttDef12getProtoTypeEv
libxerces-c-3.1.so:_ZNK11xercesc_3_112SchemaAttDef14isSerializableEv
libxerces-c-3.1.so:_ZNK11xercesc_3_112WFXMLScanner17getEntityDeclPoolEv
libxerces-c-3.1.so:_ZNK11xercesc_3_112XPathMatcher15getInitialDepthEv
libxerces-c-3.1.so:_ZNK11xercesc_3_112XSAnnotation12getProtoTypeEv
libxerces-c-3.1.so:_ZNK11xercesc_3_112XSAnnotation14isSerializableEv
libxerces-c-3.1.so:_ZNK11xercesc_3_113DOMAttrNSImpl12getLocalNameEv
libxerces-c-3.1.so:_ZNK11xercesc_3_113DOMAttrNSImpl15getNamespaceURIEv
libxerces-c-3.1.so:_ZNK11xercesc_3_113DOMAttrNSImpl9cloneNodeEb
libxerces-c-3.1.so:_ZNK11xercesc_3_113DOMAttrNSImpl9getPrefixEv
libxerces-c-3.1.so:_ZNK11xercesc_3_113DOMEntityImpl10getBaseURIEv
libxerces-c-3.1.so:_ZNK11xercesc_3_113DOMEntityImpl10getFeatureEPKtS2_
libxerces-c-3.1.so:_ZNK11xercesc_3_113DOMEntityImpl10isSameNodeEPKNS_7DOMNodeE
libxerces-c-3.1.so:_ZNK11xercesc_3_113DOMEntityImpl11getNodeNameEv
libxerces-c-3.1.so:_ZNK11xercesc_3_113DOMEntityImpl11getNodeTypeEv
libxerces-c-3.1.so:_ZNK11xercesc_3_113DOMEntityImpl11getPublicIdEv
libxerces-c-3.1.so:_ZNK11xercesc_3_113DOMEntityImpl11getSystemIdEv
libxerces-c-3.1.so:_ZNK11xercesc_3_113DOMEntityImpl11getUserDataEPKt
libxerces-c-3.1.so:_ZNK11xercesc_3_113DOMEntityImpl11isEqualNodeEPKNS_7DOMNodeE
libxerces-c-3.1.so:_ZNK11xercesc_3_113DOMEntityImpl11isSupportedEPKtS2_
libxerces-c-3.1.so:_ZNK11xercesc_3_113DOMEntityImpl12getEntityRefEv
libxerces-c-3.1.so:_ZNK11xercesc_3_113DOMEntityImpl12getLastChildEv
libxerces-c-3.1.so:_ZNK11xercesc_3_113DOMEntityImpl12getLocalNameEv
libxerces-c-3.1.so:_ZNK11xercesc_3_113DOMEntityImpl12getNodeValueEv
libxerces-c-3.1.so:_ZNK11xercesc_3_113DOMEntityImpl12lookupPrefixEPKt
libxerces-c-3.1.so:_ZNK11xercesc_3_113DOMEntityImpl13getAttributesEv
libxerces-c-3.1.so:_ZNK11xercesc_3_113DOMEntityImpl13getChildNodesEv
libxerces-c-3.1.so:_ZNK11xercesc_3_113DOMEntityImpl13getFirstChildEv
libxerces-c-3.1.so:_ZNK11xercesc_3_113DOMEntityImpl13getParentNodeEv
libxerces-c-3.1.so:_ZNK11xercesc_3_113DOMEntityImpl13getXmlVersionEv
libxerces-c-3.1.so:_ZNK11xercesc_3_113DOMEntityImpl13hasAttributesEv
libxerces-c-3.1.so:_ZNK11xercesc_3_113DOMEntityImpl13hasChildNodesEv
libxerces-c-3.1.so:_ZNK11xercesc_3_113DOMEntityImpl14getNextSiblingEv
libxerces-c-3.1.so:_ZNK11xercesc_3_113DOMEntityImpl14getTextContentEv
libxerces-c-3.1.so:_ZNK11xercesc_3_113DOMEntityImpl14getXmlEncodingEv
libxerces-c-3.1.so:_ZNK11xercesc_3_113DOMEntityImpl15getNamespaceURIEv
libxerces-c-3.1.so:_ZNK11xercesc_3_113DOMEntityImpl15getNotationNameEv
libxerces-c-3.1.so:_ZNK11xercesc_3_113DOMEntityImpl16getInputEncodingEv
libxerces-c-3.1.so:_ZNK11xercesc_3_113DOMEntityImpl16getOwnerDocumentEv
libxerces-c-3.1.so:_ZNK11xercesc_3_113DOMEntityImpl18cloneEntityRefTreeEv
libxerces-c-3.1.so:_ZNK11xercesc_3_113DOMEntityImpl18getPreviousSiblingEv
libxerces-c-3.1.so:_ZNK11xercesc_3_113DOMEntityImpl18isDefaultNamespaceEPKt
libxerces-c-3.1.so:_ZNK11xercesc_3_113DOMEntityImpl18lookupNamespaceURIEPKt
libxerces-c-3.1.so:_ZNK11xercesc_3_113DOMEntityImpl23compareDocumentPositionEPKNS_7DOMNodeE
libxerces-c-3.1.so:_ZNK11xercesc_3_113DOMEntityImpl9cloneNodeEb
libxerces-c-3.1.so:_ZNK11xercesc_3_113DOMEntityImpl9getPrefixEv
libxerces-c-3.1.so:_ZNK11xercesc_3_113DOMNormalizer13normalizeNodeEPNS_7DOMNodeE
libxerces-c-3.1.so:_ZNK11xercesc_3_113DOMNormalizer14integerToXMLChEj
libxerces-c-3.1.so:_ZNK11xercesc_3_113DOMNormalizer14namespaceFixUpEPNS_14DOMElementImplE
libxerces-c-3.1.so:_ZNK11xercesc_3_113DOMNormalizer17InScopeNamespaces14isValidBindingEPKtS3_
libxerces-c-3.1.so:_ZNK11xercesc_3_113DOMNormalizer17InScopeNamespaces5Scope6getUriEPKt
libxerces-c-3.1.so:_ZNK11xercesc_3_113DOMNormalizer17InScopeNamespaces5Scope9getPrefixEPKt
libxerces-c-3.1.so:_ZNK11xercesc_3_113DOMNormalizer17InScopeNamespaces6getUriEPKt
libxerces-c-3.1.so:_ZNK11xercesc_3_113DOMNormalizer17InScopeNamespaces9getPrefixEPKt
libxerces-c-3.1.so:_ZNK11xercesc_3_113DOMNormalizer22addCustomNamespaceDeclEPKtPNS_14DOMElementImplE
libxerces-c-3.1.so:_ZNK11xercesc_3_113DOMNormalizer24addOrChangeNamespaceDeclEPKtS2_PNS_14DOMElementImplE
libxerces-c-3.1.so:_ZNK11xercesc_3_113DOMNormalizer5errorENS_7XMLErrs5CodesEPKNS_7DOMNodeE
libxerces-c-3.1.so:_ZNK11xercesc_3_113DOMParentNode11getDocumentEv
libxerces-c-3.1.so:_ZNK11xercesc_3_113DOMParentNode11isEqualNodeEPKNS_7DOMNodeE
libxerces-c-3.1.so:_ZNK11xercesc_3_113DOMParentNode12getLastChildEv
libxerces-c-3.1.so:_ZNK11xercesc_3_113DOMParentNode13getChildNodesEv
libxerces-c-3.1.so:_ZNK11xercesc_3_113DOMParentNode13getFirstChildEv
libxerces-c-3.1.so:_ZNK11xercesc_3_113DOMParentNode13hasChildNodesEv
libxerces-c-3.1.so:_ZNK11xercesc_3_113DOMParentNode16getOwnerDocumentEv
libxerces-c-3.1.so:_ZNK11xercesc_3_113DOMParentNode7changesEv
libxerces-c-3.1.so:_ZNK11xercesc_3_113DOMParentNode9lastChildEv
libxerces-c-3.1.so:_ZNK11xercesc_3_113DTDAttDefList10findAttDefEPKtS2_
libxerces-c-3.1.so:_ZNK11xercesc_3_113DTDAttDefList10findAttDefEjPKt
libxerces-c-3.1.so:_ZNK11xercesc_3_113DTDAttDefList12getProtoTypeEv
libxerces-c-3.1.so:_ZNK11xercesc_3_113DTDAttDefList14getAttDefCountEv
libxerces-c-3.1.so:_ZNK11xercesc_3_113DTDAttDefList14isSerializableEv
libxerces-c-3.1.so:_ZNK11xercesc_3_113DTDAttDefList7isEmptyEv
libxerces-c-3.1.so:_ZNK11xercesc_3_113DTDAttDefList9getAttDefEm
libxerces-c-3.1.so:_ZNK11xercesc_3_113DTDEntityDecl12getProtoTypeEv
libxerces-c-3.1.so:_ZNK11xercesc_3_113DTDEntityDecl14isSerializableEv
libxerces-c-3.1.so:_ZNK11xercesc_3_113FieldValueMap7indexOfEPKNS_8IC_FieldERm
libxerces-c-3.1.so:_ZNK11xercesc_3_113ICValueHasher10getHashValEPKvm
libxerces-c-3.1.so:_ZNK11xercesc_3_113ICValueHasher13isDuplicateOfEPNS_17DatatypeValidatorEPKtS2_S4_
libxerces-c-3.1.so:_ZNK11xercesc_3_113ICValueHasher6equalsEPKvS2_
libxerces-c-3.1.so:_ZNK11xercesc_3_113SchemaGrammar12getProtoTypeEv
libxerces-c-3.1.so:_ZNK11xercesc_3_113SchemaGrammar14isSerializableEv
libxerces-c-3.1.so:_ZNK11xercesc_3_113XMLAttDefList12getProtoTypeEv
libxerces-c-3.1.so:_ZNK11xercesc_3_113XMLAttDefList14isSerializableEv
libxerces-c-3.1.so:_ZNK11xercesc_3_113XMLBigDecimal12getProtoTypeEv
libxerces-c-3.1.so:_ZNK11xercesc_3_113XMLBigDecimal14isSerializableEv
libxerces-c-3.1.so:_ZNK11xercesc_3_113XMLBigDecimal9toCompareERKS0_
libxerces-c-3.1.so:_ZNK11xercesc_3_113XMLBigInteger8intValueEv
libxerces-c-3.1.so:_ZNK11xercesc_3_113XMLEntityDecl12getProtoTypeEv
libxerces-c-3.1.so:_ZNK11xercesc_3_113XMLEntityDecl14isSerializableEv
libxerces-c-3.1.so:_ZNK11xercesc_3_113XMLStringPool12getProtoTypeEv
libxerces-c-3.1.so:_ZNK11xercesc_3_113XMLStringPool14isSerializableEv
libxerces-c-3.1.so:_ZNK11xercesc_3_114DOMAttrMapImpl12getNamedItemEPKt
libxerces-c-3.1.so:_ZNK11xercesc_3_114DOMAttrMapImpl13findNamePointEPKt
libxerces-c-3.1.so:_ZNK11xercesc_3_114DOMAttrMapImpl13findNamePointEPKtS2_
libxerces-c-3.1.so:_ZNK11xercesc_3_114DOMAttrMapImpl14getNamedItemNSEPKtS2_
libxerces-c-3.1.so:_ZNK11xercesc_3_114DOMAttrMapImpl4itemEm
libxerces-c-3.1.so:_ZNK11xercesc_3_114DOMAttrMapImpl9getLengthEv
libxerces-c-3.1.so:_ZNK11xercesc_3_114DOMCommentImpl10getBaseURIEv
libxerces-c-3.1.so:_ZNK11xercesc_3_114DOMCommentImpl10getFeatureEPKtS2_
libxerces-c-3.1.so:_ZNK11xercesc_3_114DOMCommentImpl10isSameNodeEPKNS_7DOMNodeE
libxerces-c-3.1.so:_ZNK11xercesc_3_114DOMCommentImpl11getNodeNameEv
libxerces-c-3.1.so:_ZNK11xercesc_3_114DOMCommentImpl11getNodeTypeEv
libxerces-c-3.1.so:_ZNK11xercesc_3_114DOMCommentImpl11getUserDataEPKt
libxerces-c-3.1.so:_ZNK11xercesc_3_114DOMCommentImpl11isEqualNodeEPKNS_7DOMNodeE
libxerces-c-3.1.so:_ZNK11xercesc_3_114DOMCommentImpl11isSupportedEPKtS2_
libxerces-c-3.1.so:_ZNK11xercesc_3_114DOMCommentImpl12getLastChildEv
libxerces-c-3.1.so:_ZNK11xercesc_3_114DOMCommentImpl12getLocalNameEv
libxerces-c-3.1.so:_ZNK11xercesc_3_114DOMCommentImpl12getNodeValueEv
libxerces-c-3.1.so:_ZNK11xercesc_3_114DOMCommentImpl12lookupPrefixEPKt
libxerces-c-3.1.so:_ZNK11xercesc_3_114DOMCommentImpl13getAttributesEv
libxerces-c-3.1.so:_ZNK11xercesc_3_114DOMCommentImpl13getChildNodesEv
libxerces-c-3.1.so:_ZNK11xercesc_3_114DOMCommentImpl13getFirstChildEv
libxerces-c-3.1.so:_ZNK11xercesc_3_114DOMCommentImpl13getParentNodeEv
libxerces-c-3.1.so:_ZNK11xercesc_3_114DOMCommentImpl13hasAttributesEv
libxerces-c-3.1.so:_ZNK11xercesc_3_114DOMCommentImpl13hasChildNodesEv
libxerces-c-3.1.so:_ZNK11xercesc_3_114DOMCommentImpl13substringDataEmm
libxerces-c-3.1.so:_ZNK11xercesc_3_114DOMCommentImpl14getNextSiblingEv
libxerces-c-3.1.so:_ZNK11xercesc_3_114DOMCommentImpl14getTextContentEv
libxerces-c-3.1.so:_ZNK11xercesc_3_114DOMCommentImpl15getNamespaceURIEv
libxerces-c-3.1.so:_ZNK11xercesc_3_114DOMCommentImpl16getOwnerDocumentEv
libxerces-c-3.1.so:_ZNK11xercesc_3_114DOMCommentImpl18getPreviousSiblingEv
libxerces-c-3.1.so:_ZNK11xercesc_3_114DOMCommentImpl18isDefaultNamespaceEPKt
libxerces-c-3.1.so:_ZNK11xercesc_3_114DOMCommentImpl18lookupNamespaceURIEPKt
libxerces-c-3.1.so:_ZNK11xercesc_3_114DOMCommentImpl23compareDocumentPositionEPKNS_7DOMNodeE
libxerces-c-3.1.so:_ZNK11xercesc_3_114DOMCommentImpl7getDataEv
libxerces-c-3.1.so:_ZNK11xercesc_3_114DOMCommentImpl9cloneNodeEb
libxerces-c-3.1.so:_ZNK11xercesc_3_114DOMCommentImpl9getLengthEv
libxerces-c-3.1.so:_ZNK11xercesc_3_114DOMCommentImpl9getPrefixEv
libxerces-c-3.1.so:_ZNK11xercesc_3_114DOMElementImpl10getBaseURIEv
libxerces-c-3.1.so:_ZNK11xercesc_3_114DOMElementImpl10getFeatureEPKtS2_
libxerces-c-3.1.so:_ZNK11xercesc_3_114DOMElementImpl10getTagNameEv
libxerces-c-3.1.so:_ZNK11xercesc_3_114DOMElementImpl10isSameNodeEPKNS_7DOMNodeE
libxerces-c-3.1.so:_ZNK11xercesc_3_114DOMElementImpl11getNodeNameEv
libxerces-c-3.1.so:_ZNK11xercesc_3_114DOMElementImpl11getNodeTypeEv
libxerces-c-3.1.so:_ZNK11xercesc_3_114DOMElementImpl11getUserDataEPKt
libxerces-c-3.1.so:_ZNK11xercesc_3_114DOMElementImpl11isEqualNodeEPKNS_7DOMNodeE
libxerces-c-3.1.so:_ZNK11xercesc_3_114DOMElementImpl11isSupportedEPKtS2_
libxerces-c-3.1.so:_ZNK11xercesc_3_114DOMElementImpl12getAttributeEPKt
libxerces-c-3.1.so:_ZNK11xercesc_3_114DOMElementImpl12getLastChildEv
libxerces-c-3.1.so:_ZNK11xercesc_3_114DOMElementImpl12getLocalNameEv
libxerces-c-3.1.so:_ZNK11xercesc_3_114DOMElementImpl12getNodeValueEv
libxerces-c-3.1.so:_ZNK11xercesc_3_114DOMElementImpl12hasAttributeEPKt
libxerces-c-3.1.so:_ZNK11xercesc_3_114DOMElementImpl12lookupPrefixEPKt
libxerces-c-3.1.so:_ZNK11xercesc_3_114DOMElementImpl13getAttributesEv
libxerces-c-3.1.so:_ZNK11xercesc_3_114DOMElementImpl13getChildNodesEv
libxerces-c-3.1.so:_ZNK11xercesc_3_114DOMElementImpl13getFirstChildEv
libxerces-c-3.1.so:_ZNK11xercesc_3_114DOMElementImpl13getParentNodeEv
libxerces-c-3.1.so:_ZNK11xercesc_3_114DOMElementImpl13hasAttributesEv
libxerces-c-3.1.so:_ZNK11xercesc_3_114DOMElementImpl13hasChildNodesEv
libxerces-c-3.1.so:_ZNK11xercesc_3_114DOMElementImpl14getAttributeNSEPKtS2_
libxerces-c-3.1.so:_ZNK11xercesc_3_114DOMElementImpl14getNextSiblingEv
libxerces-c-3.1.so:_ZNK11xercesc_3_114DOMElementImpl14getTextContentEv
libxerces-c-3.1.so:_ZNK11xercesc_3_114DOMElementImpl14hasAttributeNSEPKtS2_
libxerces-c-3.1.so:_ZNK11xercesc_3_114DOMElementImpl15getNamespaceURIEv
libxerces-c-3.1.so:_ZNK11xercesc_3_114DOMElementImpl16getAttributeNodeEPKt
libxerces-c-3.1.so:_ZNK11xercesc_3_114DOMElementImpl16getOwnerDocumentEv
libxerces-c-3.1.so:_ZNK11xercesc_3_114DOMElementImpl17getSchemaTypeInfoEv
libxerces-c-3.1.so:_ZNK11xercesc_3_114DOMElementImpl18getAttributeNodeNSEPKtS2_
libxerces-c-3.1.so:_ZNK11xercesc_3_114DOMElementImpl18getPreviousSiblingEv
libxerces-c-3.1.so:_ZNK11xercesc_3_114DOMElementImpl18isDefaultNamespaceEPKt
libxerces-c-3.1.so:_ZNK11xercesc_3_114DOMElementImpl18lookupNamespaceURIEPKt
libxerces-c-3.1.so:_ZNK11xercesc_3_114DOMElementImpl19getLastElementChildEPKNS_7DOMNodeE
libxerces-c-3.1.so:_ZNK11xercesc_3_114DOMElementImpl19getLastElementChildEv
libxerces-c-3.1.so:_ZNK11xercesc_3_114DOMElementImpl20getChildElementCountEv
libxerces-c-3.1.so:_ZNK11xercesc_3_114DOMElementImpl20getDefaultAttributesEv
libxerces-c-3.1.so:_ZNK11xercesc_3_114DOMElementImpl20getElementsByTagNameEPKt
libxerces-c-3.1.so:_ZNK11xercesc_3_114DOMElementImpl20getFirstElementChildEPKNS_7DOMNodeE
libxerces-c-3.1.so:_ZNK11xercesc_3_114DOMElementImpl20getFirstElementChildEv
libxerces-c-3.1.so:_ZNK11xercesc_3_114DOMElementImpl21getNextElementSiblingEv
libxerces-c-3.1.so:_ZNK11xercesc_3_114DOMElementImpl21getNextLogicalSiblingEPKNS_7DOMNodeE
libxerces-c-3.1.so:_ZNK11xercesc_3_114DOMElementImpl22getElementsByTagNameNSEPKtS2_
libxerces-c-3.1.so:_ZNK11xercesc_3_114DOMElementImpl23compareDocumentPositionEPKNS_7DOMNodeE
libxerces-c-3.1.so:_ZNK11xercesc_3_114DOMElementImpl25getPreviousElementSiblingEv
libxerces-c-3.1.so:_ZNK11xercesc_3_114DOMElementImpl25getPreviousLogicalSiblingEPKNS_7DOMNodeE
libxerces-c-3.1.so:_ZNK11xercesc_3_114DOMElementImpl9cloneNodeEb
libxerces-c-3.1.so:_ZNK11xercesc_3_114DOMElementImpl9getPrefixEv
libxerces-c-3.1.so:_ZNK11xercesc_3_114DTDElementDecl10hasAttDefsEv
libxerces-c-3.1.so:_ZNK11xercesc_3_114DTDElementDecl12getProtoTypeEv
libxerces-c-3.1.so:_ZNK11xercesc_3_114DTDElementDecl13getAttDefListEv
libxerces-c-3.1.so:_ZNK11xercesc_3_114DTDElementDecl13getObjectTypeEv
libxerces-c-3.1.so:_ZNK11xercesc_3_114DTDElementDecl14isSerializableEv
libxerces-c-3.1.so:_ZNK11xercesc_3_114DTDElementDecl15getCharDataOptsEv
libxerces-c-3.1.so:_ZNK11xercesc_3_114DTDElementDecl17faultInAttDefListEv
libxerces-c-3.1.so:_ZNK11xercesc_3_114DTDElementDecl18formatContentModelEv
libxerces-c-3.1.so:_ZNK11xercesc_3_114DTDElementDecl24getFormattedContentModelEv
libxerces-c-3.1.so:_ZNK11xercesc_3_114DTDElementDecl9getAttDefEPKt
libxerces-c-3.1.so:_ZNK11xercesc_3_114NamespaceScope21getNamespaceForPrefixEPKt
libxerces-c-3.1.so:_ZNK11xercesc_3_114URLInputSource10makeStreamEv
libxerces-c-3.1.so:_ZNK11xercesc_3_114XMLElementDecl12getProtoTypeEv
libxerces-c-3.1.so:_ZNK11xercesc_3_114XMLElementDecl14isSerializableEv
libxerces-c-3.1.so:_ZNK11xercesc_3_114XercesNodeTest12getProtoTypeEv
libxerces-c-3.1.so:_ZNK11xercesc_3_114XercesNodeTest14isSerializableEv
libxerces-c-3.1.so:_ZNK11xercesc_3_114XercesNodeTesteqERKS0_
libxerces-c-3.1.so:_ZNK11xercesc_3_114XercesNodeTestneERKS0_
libxerces-c-3.1.so:_ZNK11xercesc_3_115AllContentModel15validateContentEPPNS_5QNameEmjPmPNS_13MemoryManagerE
libxerces-c-3.1.so:_ZNK11xercesc_3_115AllContentModel22validateContentSpecialEPPNS_5QNameEmjPNS_15GrammarResolverEPNS_13XMLStringPoolEPmPNS_13MemoryManagerE
libxerces-c-3.1.so:_ZNK11xercesc_3_115ComplexTypeInfo12getProtoTypeEv
libxerces-c-3.1.so:_ZNK11xercesc_3_115ComplexTypeInfo13getAttDefListEv
libxerces-c-3.1.so:_ZNK11xercesc_3_115ComplexTypeInfo14isSerializableEv
libxerces-c-3.1.so:_ZNK11xercesc_3_115ComplexTypeInfo17faultInAttDefListEv
libxerces-c-3.1.so:_ZNK11xercesc_3_115ComplexTypeInfo18formatContentModelEv
libxerces-c-3.1.so:_ZNK11xercesc_3_115ComplexTypeInfo24getFormattedContentModelEv
libxerces-c-3.1.so:_ZNK11xercesc_3_115ContentSpecNode10formatSpecERNS_9XMLBufferE
libxerces-c-3.1.so:_ZNK11xercesc_3_115ContentSpecNode12getProtoTypeEv
libxerces-c-3.1.so:_ZNK11xercesc_3_115ContentSpecNode14isSerializableEv
libxerces-c-3.1.so:_ZNK11xercesc_3_115ContentSpecNode16getMaxTotalRangeEv
libxerces-c-3.1.so:_ZNK11xercesc_3_115ContentSpecNode16getMinTotalRangeEv
libxerces-c-3.1.so:_ZNK11xercesc_3_115DFAContentModel15validateContentEPPNS_5QNameEmjPmPNS_13MemoryManagerE
libxerces-c-3.1.so:_ZNK11xercesc_3_115DFAContentModel16makeDefStateListEv
libxerces-c-3.1.so:_ZNK11xercesc_3_115DFAContentModel17handleRepetitionsEPKNS_5QNameEjjRjS4_mPNS_27SubstitutionGroupComparatorE
libxerces-c-3.1.so:_ZNK11xercesc_3_115DFAContentModel22validateContentSpecialEPPNS_5QNameEmjPNS_15GrammarResolverEPNS_13XMLStringPoolEPmPNS_13MemoryManagerE
libxerces-c-3.1.so:_ZNK11xercesc_3_115DFAContentModel28getContentLeafNameTypeVectorEv
libxerces-c-3.1.so:_ZNK11xercesc_3_115DOMDocumentImpl10getBaseURIEv
libxerces-c-3.1.so:_ZNK11xercesc_3_115DOMDocumentImpl10getDoctypeEv
libxerces-c-3.1.so:_ZNK11xercesc_3_115DOMDocumentImpl10getFeatureEPKtS2_
libxerces-c-3.1.so:_ZNK11xercesc_3_115DOMDocumentImpl10isSameNodeEPKNS_7DOMNodeE
libxerces-c-3.1.so:_ZNK11xercesc_3_115DOMDocumentImpl11getNodeNameEv
libxerces-c-3.1.so:_ZNK11xercesc_3_115DOMDocumentImpl11getNodeTypeEv
libxerces-c-3.1.so:_ZNK11xercesc_3_115DOMDocumentImpl11getUserDataEPKNS_11DOMNodeImplEPKt
libxerces-c-3.1.so:_ZNK11xercesc_3_115DOMDocumentImpl11getUserDataEPKt
libxerces-c-3.1.so:_ZNK11xercesc_3_115DOMDocumentImpl11isEqualNodeEPKNS_7DOMNodeE
libxerces-c-3.1.so:_ZNK11xercesc_3_115DOMDocumentImpl11isSupportedEPKtS2_
libxerces-c-3.1.so:_ZNK11xercesc_3_115DOMDocumentImpl12getDOMConfigEv
libxerces-c-3.1.so:_ZNK11xercesc_3_115DOMDocumentImpl12getLastChildEv
libxerces-c-3.1.so:_ZNK11xercesc_3_115DOMDocumentImpl12getLocalNameEv
libxerces-c-3.1.so:_ZNK11xercesc_3_115DOMDocumentImpl12getNodeValueEv
libxerces-c-3.1.so:_ZNK11xercesc_3_115DOMDocumentImpl12lookupPrefixEPKt
libxerces-c-3.1.so:_ZNK11xercesc_3_115DOMDocumentImpl13getAttributesEv
libxerces-c-3.1.so:_ZNK11xercesc_3_115DOMDocumentImpl13getChildNodesEv
libxerces-c-3.1.so:_ZNK11xercesc_3_115DOMDocumentImpl13getFirstChildEv
libxerces-c-3.1.so:_ZNK11xercesc_3_115DOMDocumentImpl13getParentNodeEv
libxerces-c-3.1.so:_ZNK11xercesc_3_115DOMDocumentImpl13getXmlVersionEv
libxerces-c-3.1.so:_ZNK11xercesc_3_115DOMDocumentImpl13hasAttributesEv
libxerces-c-3.1.so:_ZNK11xercesc_3_115DOMDocumentImpl13hasChildNodesEv
libxerces-c-3.1.so:_ZNK11xercesc_3_115DOMDocumentImpl14getDocumentURIEv
libxerces-c-3.1.so:_ZNK11xercesc_3_115DOMDocumentImpl14getElementByIdEPKt
libxerces-c-3.1.so:_ZNK11xercesc_3_115DOMDocumentImpl14getNextSiblingEv
libxerces-c-3.1.so:_ZNK11xercesc_3_115DOMDocumentImpl14getTextContentEv
libxerces-c-3.1.so:_ZNK11xercesc_3_115DOMDocumentImpl14getXmlEncodingEv
libxerces-c-3.1.so:_ZNK11xercesc_3_115DOMDocumentImpl15getNamespaceURIEv
libxerces-c-3.1.so:_ZNK11xercesc_3_115DOMDocumentImpl16getInputEncodingEv
libxerces-c-3.1.so:_ZNK11xercesc_3_115DOMDocumentImpl16getNodeIteratorsEv
libxerces-c-3.1.so:_ZNK11xercesc_3_115DOMDocumentImpl16getOwnerDocumentEv
libxerces-c-3.1.so:_ZNK11xercesc_3_115DOMDocumentImpl16getXmlStandaloneEv
libxerces-c-3.1.so:_ZNK11xercesc_3_115DOMDocumentImpl17getImplementationEv
libxerces-c-3.1.so:_ZNK11xercesc_3_115DOMDocumentImpl18getDocumentElementEv
libxerces-c-3.1.so:_ZNK11xercesc_3_115DOMDocumentImpl18getPreviousSiblingEv
libxerces-c-3.1.so:_ZNK11xercesc_3_115DOMDocumentImpl18isDefaultNamespaceEPKt
libxerces-c-3.1.so:_ZNK11xercesc_3_115DOMDocumentImpl18lookupNamespaceURIEPKt
libxerces-c-3.1.so:_ZNK11xercesc_3_115DOMDocumentImpl20callUserDataHandlersEPKNS_11DOMNodeImplENS_18DOMUserDataHandler16DOMOperationTypeEPKNS_7DOMNodeEPS6_
libxerces-c-3.1.so:_ZNK11xercesc_3_115DOMDocumentImpl20getElementsByTagNameEPKt
libxerces-c-3.1.so:_ZNK11xercesc_3_115DOMDocumentImpl22getElementsByTagNameNSEPKtS2_
libxerces-c-3.1.so:_ZNK11xercesc_3_115DOMDocumentImpl22getStrictErrorCheckingEv
libxerces-c-3.1.so:_ZNK11xercesc_3_115DOMDocumentImpl23compareDocumentPositionEPKNS_7DOMNodeE
libxerces-c-3.1.so:_ZNK11xercesc_3_115DOMDocumentImpl28getMemoryAllocationBlockSizeEv
libxerces-c-3.1.so:_ZNK11xercesc_3_115DOMDocumentImpl7changesEv
libxerces-c-3.1.so:_ZNK11xercesc_3_115DOMDocumentImpl9cloneNodeEb
libxerces-c-3.1.so:_ZNK11xercesc_3_115DOMDocumentImpl9getPrefixEv
libxerces-c-3.1.so:_ZNK11xercesc_3_115DOMDocumentImpl9getRangesEv
libxerces-c-3.1.so:_ZNK11xercesc_3_115DOMLSParserImpl10getGrammarEPKt
libxerces-c-3.1.so:_ZNK11xercesc_3_115DOMLSParserImpl10getURITextEj
libxerces-c-3.1.so:_ZNK11xercesc_3_115DOMLSParserImpl12getParameterEPKt
libxerces-c-3.1.so:_ZNK11xercesc_3_115DOMLSParserImpl12getSrcOffsetEv
libxerces-c-3.1.so:_ZNK11xercesc_3_115DOMLSParserImpl14getRootGrammarEv
libxerces-c-3.1.so:_ZNK11xercesc_3_115DOMLSParserImpl15canSetParameterEPKtPKv
libxerces-c-3.1.so:_ZNK11xercesc_3_115DOMLSParserImpl15canSetParameterEPKtb
libxerces-c-3.1.so:_ZNK11xercesc_3_115DOMLSParserImpl17getParameterNamesEv
libxerces-c-3.1.so:_ZNK11xercesc_3_115DOMLSParserImpl7getBusyEv
libxerces-c-3.1.so:_ZNK11xercesc_3_115DOMNodeListImpl4itemEm
libxerces-c-3.1.so:_ZNK11xercesc_3_115DOMNodeListImpl9getLengthEv
libxerces-c-3.1.so:_ZNK11xercesc_3_115DOMNotationImpl10getBaseURIEv
libxerces-c-3.1.so:_ZNK11xercesc_3_115DOMNotationImpl10getFeatureEPKtS2_
libxerces-c-3.1.so:_ZNK11xercesc_3_115DOMNotationImpl10isSameNodeEPKNS_7DOMNodeE
libxerces-c-3.1.so:_ZNK11xercesc_3_115DOMNotationImpl11getNodeNameEv
libxerces-c-3.1.so:_ZNK11xercesc_3_115DOMNotationImpl11getNodeTypeEv
libxerces-c-3.1.so:_ZNK11xercesc_3_115DOMNotationImpl11getPublicIdEv
libxerces-c-3.1.so:_ZNK11xercesc_3_115DOMNotationImpl11getSystemIdEv
libxerces-c-3.1.so:_ZNK11xercesc_3_115DOMNotationImpl11getUserDataEPKt
libxerces-c-3.1.so:_ZNK11xercesc_3_115DOMNotationImpl11isEqualNodeEPKNS_7DOMNodeE
libxerces-c-3.1.so:_ZNK11xercesc_3_115DOMNotationImpl11isSupportedEPKtS2_
libxerces-c-3.1.so:_ZNK11xercesc_3_115DOMNotationImpl12getLastChildEv
libxerces-c-3.1.so:_ZNK11xercesc_3_115DOMNotationImpl12getLocalNameEv
libxerces-c-3.1.so:_ZNK11xercesc_3_115DOMNotationImpl12getNodeValueEv
libxerces-c-3.1.so:_ZNK11xercesc_3_115DOMNotationImpl12lookupPrefixEPKt
libxerces-c-3.1.so:_ZNK11xercesc_3_115DOMNotationImpl13getAttributesEv
libxerces-c-3.1.so:_ZNK11xercesc_3_115DOMNotationImpl13getChildNodesEv
libxerces-c-3.1.so:_ZNK11xercesc_3_115DOMNotationImpl13getFirstChildEv
libxerces-c-3.1.so:_ZNK11xercesc_3_115DOMNotationImpl13getParentNodeEv
libxerces-c-3.1.so:_ZNK11xercesc_3_115DOMNotationImpl13hasAttributesEv
libxerces-c-3.1.so:_ZNK11xercesc_3_115DOMNotationImpl13hasChildNodesEv
libxerces-c-3.1.so:_ZNK11xercesc_3_115DOMNotationImpl14getNextSiblingEv
libxerces-c-3.1.so:_ZNK11xercesc_3_115DOMNotationImpl14getTextContentEv
libxerces-c-3.1.so:_ZNK11xercesc_3_115DOMNotationImpl15getNamespaceURIEv
libxerces-c-3.1.so:_ZNK11xercesc_3_115DOMNotationImpl16getOwnerDocumentEv
libxerces-c-3.1.so:_ZNK11xercesc_3_115DOMNotationImpl18getPreviousSiblingEv
libxerces-c-3.1.so:_ZNK11xercesc_3_115DOMNotationImpl18isDefaultNamespaceEPKt
libxerces-c-3.1.so:_ZNK11xercesc_3_115DOMNotationImpl18lookupNamespaceURIEPKt
libxerces-c-3.1.so:_ZNK11xercesc_3_115DOMNotationImpl23compareDocumentPositionEPKNS_7DOMNodeE
libxerces-c-3.1.so:_ZNK11xercesc_3_115DOMNotationImpl9cloneNodeEb
libxerces-c-3.1.so:_ZNK11xercesc_3_115DOMNotationImpl9getPrefixEv
libxerces-c-3.1.so:_ZNK11xercesc_3_115DOMTypeInfoImpl11getTypeNameEv
libxerces-c-3.1.so:_ZNK11xercesc_3_115DOMTypeInfoImpl13isDerivedFromEPKtS2_NS_11DOMTypeInfo17DerivationMethodsE
libxerces-c-3.1.so:_ZNK11xercesc_3_115DOMTypeInfoImpl16getTypeNamespaceEv
libxerces-c-3.1.so:_ZNK11xercesc_3_115DOMTypeInfoImpl17getStringPropertyENS_15DOMPSVITypeInfo12PSVIPropertyE
libxerces-c-3.1.so:_ZNK11xercesc_3_115DOMTypeInfoImpl18getNumericPropertyENS_15DOMPSVITypeInfo12PSVIPropertyE
libxerces-c-3.1.so:_ZNK11xercesc_3_115GrammarResolver20getGrammarEnumeratorEv
libxerces-c-3.1.so:_ZNK11xercesc_3_115GrammarResolver26getCachedGrammarEnumeratorEv
libxerces-c-3.1.so:_ZNK11xercesc_3_115GrammarResolver30getReferencedGrammarEnumeratorEv
libxerces-c-3.1.so:_ZNK11xercesc_3_115IconvGNUWrapper10mbcToXMLChEPKcPt
libxerces-c-3.1.so:_ZNK11xercesc_3_115IconvGNUWrapper10xmlChToMbcEtPc
libxerces-c-3.1.so:_ZNK11xercesc_3_115IconvGNUWrapper8mbsToXMLEPKcPtm
libxerces-c-3.1.so:_ZNK11xercesc_3_115IconvGNUWrapper8xmlToMbsEPKtPcm
libxerces-c-3.1.so:_ZNK11xercesc_3_115SchemaValidator11faultInAttrERNS_7XMLAttrERKNS_9XMLAttDefE
libxerces-c-3.1.so:_ZNK11xercesc_3_115SchemaValidator18requiresNamespacesEv
libxerces-c-3.1.so:_ZNK11xercesc_3_115VecAttrListImpl7getNameEm
libxerces-c-3.1.so:_ZNK11xercesc_3_115VecAttrListImpl7getTypeEPKt
libxerces-c-3.1.so:_ZNK11xercesc_3_115VecAttrListImpl7getTypeEm
libxerces-c-3.1.so:_ZNK11xercesc_3_115VecAttrListImpl8getValueEPKc
libxerces-c-3.1.so:_ZNK11xercesc_3_115VecAttrListImpl8getValueEPKt
libxerces-c-3.1.so:_ZNK11xercesc_3_115VecAttrListImpl8getValueEm
libxerces-c-3.1.so:_ZNK11xercesc_3_115VecAttrListImpl9getLengthEv
libxerces-c-3.1.so:_ZNK11xercesc_3_115XMLNotationDecl12getProtoTypeEv
libxerces-c-3.1.so:_ZNK11xercesc_3_115XMLNotationDecl14isSerializableEv
libxerces-c-3.1.so:_ZNK11xercesc_3_115XSIDCDefinition11getCategoryEv
libxerces-c-3.1.so:_ZNK11xercesc_3_115XSIDCDefinition7getNameEv
libxerces-c-3.1.so:_ZNK11xercesc_3_115XercesDOMParser10getURITextEj
libxerces-c-3.1.so:_ZNK11xercesc_3_115XercesDOMParser12getSrcOffsetEv
libxerces-c-3.1.so:_ZNK11xercesc_3_115XercesDOMParser18getIgnoreCachedDTDEv
libxerces-c-3.1.so:_ZNK11xercesc_3_115XercesDOMParser25isCachingGrammarFromParseEv
libxerces-c-3.1.so:_ZNK11xercesc_3_115XercesDOMParser27isUsingCachedGrammarInParseEv
libxerces-c-3.1.so:_ZNK11xercesc_3_115XercesGroupInfo12getProtoTypeEv
libxerces-c-3.1.so:_ZNK11xercesc_3_115XercesGroupInfo14isSerializableEv
libxerces-c-3.1.so:_ZNK11xercesc_3_116DOMElementNSImpl10getFeatureEPKtS2_
libxerces-c-3.1.so:_ZNK11xercesc_3_116DOMElementNSImpl11isSupportedEPKtS2_
libxerces-c-3.1.so:_ZNK11xercesc_3_116DOMElementNSImpl12getLocalNameEv
libxerces-c-3.1.so:_ZNK11xercesc_3_116DOMElementNSImpl15getNamespaceURIEv
libxerces-c-3.1.so:_ZNK11xercesc_3_116DOMElementNSImpl17getSchemaTypeInfoEv
libxerces-c-3.1.so:_ZNK11xercesc_3_116DOMElementNSImpl9cloneNodeEb
libxerces-c-3.1.so:_ZNK11xercesc_3_116DOMElementNSImpl9getPrefixEv
libxerces-c-3.1.so:_ZNK11xercesc_3_116SchemaAttDefList10findAttDefEPKtS2_
libxerces-c-3.1.so:_ZNK11xercesc_3_116SchemaAttDefList10findAttDefEjPKt
libxerces-c-3.1.so:_ZNK11xercesc_3_116SchemaAttDefList12getProtoTypeEv
libxerces-c-3.1.so:_ZNK11xercesc_3_116SchemaAttDefList14getAttDefCountEv
libxerces-c-3.1.so:_ZNK11xercesc_3_116SchemaAttDefList14isSerializableEv
libxerces-c-3.1.so:_ZNK11xercesc_3_116SchemaAttDefList7isEmptyEv
libxerces-c-3.1.so:_ZNK11xercesc_3_116SchemaAttDefList9getAttDefEm
libxerces-c-3.1.so:_ZNK11xercesc_3_116StdInInputSource10makeStreamEv
libxerces-c-3.1.so:_ZNK11xercesc_3_116XSDElementNSImpl9cloneNodeEb
libxerces-c-3.1.so:_ZNK11xercesc_3_116XSerializeEngine13getStringPoolEv
libxerces-c-3.1.so:_ZNK11xercesc_3_116XSerializeEngine14getGrammarPoolEv
libxerces-c-3.1.so:_ZNK11xercesc_3_116XSerializeEngine14lookupLoadPoolEj
libxerces-c-3.1.so:_ZNK11xercesc_3_116XSerializeEngine15lookupStorePoolEPv
libxerces-c-3.1.so:_ZNK11xercesc_3_116XSerializeEngine16getMemoryManagerEv
libxerces-c-3.1.so:_ZNK11xercesc_3_116XSerializeEngine5traceEPc
libxerces-c-3.1.so:_ZNK11xercesc_3_117AbstractDOMParser11getDoSchemaEv
libxerces-c-3.1.so:_ZNK11xercesc_3_117AbstractDOMParser12getValidatorEv
libxerces-c-3.1.so:_ZNK11xercesc_3_117AbstractDOMParser13getErrorCountEv
libxerces-c-3.1.so:_ZNK11xercesc_3_117AbstractDOMParser13getLoadSchemaEv
libxerces-c-3.1.so:_ZNK11xercesc_3_117AbstractDOMParser15getDoNamespacesEv
libxerces-c-3.1.so:_ZNK11xercesc_3_117AbstractDOMParser15getLowWaterMarkEv
libxerces-c-3.1.so:_ZNK11xercesc_3_117AbstractDOMParser17isDocumentAdoptedEv
libxerces-c-3.1.so:_ZNK11xercesc_3_117AbstractDOMParser18getCalculateSrcOfsEv
libxerces-c-3.1.so:_ZNK11xercesc_3_117AbstractDOMParser18getLoadExternalDTDEv
libxerces-c-3.1.so:_ZNK11xercesc_3_117AbstractDOMParser18getSecurityManagerEv
libxerces-c-3.1.so:_ZNK11xercesc_3_117AbstractDOMParser19getValidationSchemeEv
libxerces-c-3.1.so:_ZNK11xercesc_3_117AbstractDOMParser20getIgnoreAnnotationsEv
libxerces-c-3.1.so:_ZNK11xercesc_3_117AbstractDOMParser20getSkipDTDValidationEv
libxerces-c-3.1.so:_ZNK11xercesc_3_117AbstractDOMParser22getValidateAnnotationsEv
libxerces-c-3.1.so:_ZNK11xercesc_3_117AbstractDOMParser24getExitOnFirstFatalErrorEv
libxerces-c-3.1.so:_ZNK11xercesc_3_117AbstractDOMParser24getHandleMultipleImportsEv
libxerces-c-3.1.so:_ZNK11xercesc_3_117AbstractDOMParser24getStandardUriConformantEv
libxerces-c-3.1.so:_ZNK11xercesc_3_117AbstractDOMParser25getExternalSchemaLocationEv
libxerces-c-3.1.so:_ZNK11xercesc_3_117AbstractDOMParser28getValidationConstraintFatalEv
libxerces-c-3.1.so:_ZNK11xercesc_3_117AbstractDOMParser29getIdentityConstraintCheckingEv
libxerces-c-3.1.so:_ZNK11xercesc_3_117AbstractDOMParser31getGenerateSyntheticAnnotationsEv
libxerces-c-3.1.so:_ZNK11xercesc_3_117AbstractDOMParser31getValidationSchemaFullCheckingEv
libxerces-c-3.1.so:_ZNK11xercesc_3_117AbstractDOMParser33getDisableDefaultEntityResolutionEv
libxerces-c-3.1.so:_ZNK11xercesc_3_117AbstractDOMParser36getExternalNoNamespaceSchemaLocationEv
libxerces-c-3.1.so:_ZNK11xercesc_3_117BinMemInputStream14getContentTypeEv
libxerces-c-3.1.so:_ZNK11xercesc_3_117DOMStringListImpl4itemEm
libxerces-c-3.1.so:_ZNK11xercesc_3_117DOMStringListImpl8containsEPKt
libxerces-c-3.1.so:_ZNK11xercesc_3_117DOMStringListImpl9getLengthEv
libxerces-c-3.1.so:_ZNK11xercesc_3_117DatatypeValidator11getWSstringEs
libxerces-c-3.1.so:_ZNK11xercesc_3_117DatatypeValidator12getProtoTypeEv
libxerces-c-3.1.so:_ZNK11xercesc_3_117DatatypeValidator14isSerializableEv
libxerces-c-3.1.so:_ZNK11xercesc_3_117DatatypeValidator26getCanonicalRepresentationEPKtPNS_13MemoryManagerEb
libxerces-c-3.1.so:_ZNK11xercesc_3_117DateTimeValidator12getProtoTypeEv
libxerces-c-3.1.so:_ZNK11xercesc_3_117DateTimeValidator14isSerializableEv
libxerces-c-3.1.so:_ZNK11xercesc_3_117MemBufInputSource10makeStreamEv
libxerces-c-3.1.so:_ZNK11xercesc_3_117MixedContentModel15validateContentEPPNS_5QNameEmjPmPNS_13MemoryManagerE
libxerces-c-3.1.so:_ZNK11xercesc_3_117MixedContentModel22validateContentSpecialEPPNS_5QNameEmjPNS_15GrammarResolverEPNS_13XMLStringPoolEPmPNS_13MemoryManagerE
libxerces-c-3.1.so:_ZNK11xercesc_3_117MixedContentModel7hasDupsEv
libxerces-c-3.1.so:_ZNK11xercesc_3_117PSVIAttributeList9getLengthEv
libxerces-c-3.1.so:_ZNK11xercesc_3_117RegularExpression10allMatchesEPKtmmPNS_11RefVectorOfINS_5MatchEEEPNS_13MemoryManagerE
libxerces-c-3.1.so:_ZNK11xercesc_3_117RegularExpression10matchRangeEPNS0_7ContextEPKNS_2OpERmb
libxerces-c-3.1.so:_ZNK11xercesc_3_117RegularExpression10matchUnionEPNS0_7ContextEPKNS_2OpEm
libxerces-c-3.1.so:_ZNK11xercesc_3_117RegularExpression11matchAnchorEPNS0_7ContextEim
libxerces-c-3.1.so:_ZNK11xercesc_3_117RegularExpression11matchStringEPNS0_7ContextEPKtRmb
libxerces-c-3.1.so:_ZNK11xercesc_3_117RegularExpression12matchCaptureEPNS0_7ContextEPKNS_2OpEm
libxerces-c-3.1.so:_ZNK11xercesc_3_117RegularExpression15matchIgnoreCaseEii
libxerces-c-3.1.so:_ZNK11xercesc_3_117RegularExpression18matchBackReferenceEPNS0_7ContextEiRmb
libxerces-c-3.1.so:_ZNK11xercesc_3_117RegularExpression5matchEPNS0_7ContextEPKNS_2OpEm
libxerces-c-3.1.so:_ZNK11xercesc_3_117RegularExpression7matchesEPKcPNS_13MemoryManagerE
libxerces-c-3.1.so:_ZNK11xercesc_3_117RegularExpression7matchesEPKcPNS_5MatchEPNS_13MemoryManagerE
libxerces-c-3.1.so:_ZNK11xercesc_3_117RegularExpression7matchesEPKcmmPNS_13MemoryManagerE
libxerces-c-3.1.so:_ZNK11xercesc_3_117RegularExpression7matchesEPKcmmPNS_5MatchEPNS_13MemoryManagerE
libxerces-c-3.1.so:_ZNK11xercesc_3_117RegularExpression7matchesEPKtPNS_13MemoryManagerE
libxerces-c-3.1.so:_ZNK11xercesc_3_117RegularExpression7matchesEPKtPNS_5MatchEPNS_13MemoryManagerE
libxerces-c-3.1.so:_ZNK11xercesc_3_117RegularExpression7matchesEPKtmmPNS_13MemoryManagerE
libxerces-c-3.1.so:_ZNK11xercesc_3_117RegularExpression7matchesEPKtmmPNS_5MatchEPNS_13MemoryManagerE
libxerces-c-3.1.so:_ZNK11xercesc_3_117RegularExpression7replaceEPKcS2_PNS_13MemoryManagerE
libxerces-c-3.1.so:_ZNK11xercesc_3_117RegularExpression7replaceEPKcS2_mmPNS_13MemoryManagerE
libxerces-c-3.1.so:_ZNK11xercesc_3_117RegularExpression7replaceEPKtS2_PNS_13MemoryManagerE
libxerces-c-3.1.so:_ZNK11xercesc_3_117RegularExpression7replaceEPKtS2_mmPNS_13MemoryManagerE
libxerces-c-3.1.so:_ZNK11xercesc_3_117RegularExpression8matchDotEPNS0_7ContextERm
libxerces-c-3.1.so:_ZNK11xercesc_3_117RegularExpression8subInExpEPKtS2_PKNS_5MatchERNS_9XMLBufferEPNS_13MemoryManagerE
libxerces-c-3.1.so:_ZNK11xercesc_3_117RegularExpression8tokenizeEPKcPNS_13MemoryManagerE
libxerces-c-3.1.so:_ZNK11xercesc_3_117RegularExpression8tokenizeEPKcmmPNS_13MemoryManagerE
libxerces-c-3.1.so:_ZNK11xercesc_3_117RegularExpression8tokenizeEPKtPNS_13MemoryManagerE
libxerces-c-3.1.so:_ZNK11xercesc_3_117RegularExpression8tokenizeEPKtmmPNS_13MemoryManagerE
libxerces-c-3.1.so:_ZNK11xercesc_3_117RegularExpression9matchCharEPNS0_7ContextEiRmb
libxerces-c-3.1.so:_ZNK11xercesc_3_117SAX2XMLFilterImpl10getFeatureEPKt
libxerces-c-3.1.so:_ZNK11xercesc_3_117SAX2XMLFilterImpl10getURITextEj
libxerces-c-3.1.so:_ZNK11xercesc_3_117SAX2XMLFilterImpl11getPropertyEPKt
libxerces-c-3.1.so:_ZNK11xercesc_3_117SAX2XMLFilterImpl12getSrcOffsetEv
libxerces-c-3.1.so:_ZNK11xercesc_3_117SAX2XMLFilterImpl12getValidatorEv
libxerces-c-3.1.so:_ZNK11xercesc_3_117SAX2XMLFilterImpl13getErrorCountEv
libxerces-c-3.1.so:_ZNK11xercesc_3_117SAX2XMLFilterImpl24getExitOnFirstFatalErrorEv
libxerces-c-3.1.so:_ZNK11xercesc_3_117SAX2XMLFilterImpl28getValidationConstraintFatalEv
libxerces-c-3.1.so:_ZNK11xercesc_3_117SAX2XMLReaderImpl10getFeatureEPKt
libxerces-c-3.1.so:_ZNK11xercesc_3_117SAX2XMLReaderImpl11getDoSchemaEv
libxerces-c-3.1.so:_ZNK11xercesc_3_117SAX2XMLReaderImpl11getPropertyEPKt
libxerces-c-3.1.so:_ZNK11xercesc_3_117SAX2XMLReaderImpl12getValidatorEv
libxerces-c-3.1.so:_ZNK11xercesc_3_117SAX2XMLReaderImpl13getErrorCountEv
libxerces-c-3.1.so:_ZNK11xercesc_3_117SAX2XMLReaderImpl15getDoNamespacesEv
libxerces-c-3.1.so:_ZNK11xercesc_3_117SAXParseException11getPublicIdEv
libxerces-c-3.1.so:_ZNK11xercesc_3_117SAXParseException11getSystemIdEv
libxerces-c-3.1.so:_ZNK11xercesc_3_117SAXParseException13getLineNumberEv
libxerces-c-3.1.so:_ZNK11xercesc_3_117SAXParseException15getColumnNumberEv
libxerces-c-3.1.so:_ZNK11xercesc_3_117SchemaElementDecl10hasAttDefsEv
libxerces-c-3.1.so:_ZNK11xercesc_3_117SchemaElementDecl12getProtoTypeEv
libxerces-c-3.1.so:_ZNK11xercesc_3_117SchemaElementDecl13getAttDefListEv
libxerces-c-3.1.so:_ZNK11xercesc_3_117SchemaElementDecl13getObjectTypeEv
libxerces-c-3.1.so:_ZNK11xercesc_3_117SchemaElementDecl14isSerializableEv
libxerces-c-3.1.so:_ZNK11xercesc_3_117SchemaElementDecl15getCharDataOptsEv
libxerces-c-3.1.so:_ZNK11xercesc_3_117SchemaElementDecl24getFormattedContentModelEv
libxerces-c-3.1.so:_ZNK11xercesc_3_117SchemaElementDecl9getAttDefEPKti
libxerces-c-3.1.so:_ZNK11xercesc_3_117VecAttributesImpl12getLocalNameEm
libxerces-c-3.1.so:_ZNK11xercesc_3_117VecAttributesImpl6getURIEm
libxerces-c-3.1.so:_ZNK11xercesc_3_117VecAttributesImpl7getTypeEPKt
libxerces-c-3.1.so:_ZNK11xercesc_3_117VecAttributesImpl7getTypeEPKtS2_
libxerces-c-3.1.so:_ZNK11xercesc_3_117VecAttributesImpl7getTypeEm
libxerces-c-3.1.so:_ZNK11xercesc_3_117VecAttributesImpl8getIndexEPKt
libxerces-c-3.1.so:_ZNK11xercesc_3_117VecAttributesImpl8getIndexEPKtRm
libxerces-c-3.1.so:_ZNK11xercesc_3_117VecAttributesImpl8getIndexEPKtS2_
libxerces-c-3.1.so:_ZNK11xercesc_3_117VecAttributesImpl8getIndexEPKtS2_Rm
libxerces-c-3.1.so:_ZNK11xercesc_3_117VecAttributesImpl8getQNameEm
libxerces-c-3.1.so:_ZNK11xercesc_3_117VecAttributesImpl8getValueEPKt
libxerces-c-3.1.so:_ZNK11xercesc_3_117VecAttributesImpl8getValueEPKtS2_
libxerces-c-3.1.so:_ZNK11xercesc_3_117VecAttributesImpl8getValueEm
libxerces-c-3.1.so:_ZNK11xercesc_3_117VecAttributesImpl9getLengthEv
libxerces-c-3.1.so:_ZNK11xercesc_3_117XMLDTDDescription12getProtoTypeEv
libxerces-c-3.1.so:_ZNK11xercesc_3_117XMLDTDDescription14isSerializableEv
libxerces-c-3.1.so:_ZNK11xercesc_3_118BinFileInputStream14getContentTypeEv
libxerces-c-3.1.so:_ZNK11xercesc_3_118BinFileInputStream6curPosEv
libxerces-c-3.1.so:_ZNK11xercesc_3_118BinFileInputStream7getSizeEv
libxerces-c-3.1.so:_ZNK11xercesc_3_118BinMemOutputStream12getRawBufferEv
libxerces-c-3.1.so:_ZNK11xercesc_3_118BinMemOutputStream6curPosEv
libxerces-c-3.1.so:_ZNK11xercesc_3_118BinMemOutputStream7getSizeEv
libxerces-c-3.1.so:_ZNK11xercesc_3_118CurlURLInputStream14getContentTypeEv
libxerces-c-3.1.so:_ZNK11xercesc_3_118DOMXPathResultImpl11getTypeInfoEv
libxerces-c-3.1.so:_ZNK11xercesc_3_118DOMXPathResultImpl12getNodeValueEv
libxerces-c-3.1.so:_ZNK11xercesc_3_118DOMXPathResultImpl13getResultTypeEv
libxerces-c-3.1.so:_ZNK11xercesc_3_118DOMXPathResultImpl14getNumberValueEv
libxerces-c-3.1.so:_ZNK11xercesc_3_118DOMXPathResultImpl14getStringValueEv
libxerces-c-3.1.so:_ZNK11xercesc_3_118DOMXPathResultImpl15getBooleanValueEv
libxerces-c-3.1.so:_ZNK11xercesc_3_118DOMXPathResultImpl15getIntegerValueEv
libxerces-c-3.1.so:_ZNK11xercesc_3_118DOMXPathResultImpl17getSnapshotLengthEv
libxerces-c-3.1.so:_ZNK11xercesc_3_118DOMXPathResultImpl23getInvalidIteratorStateEv
libxerces-c-3.1.so:_ZNK11xercesc_3_118DOMXPathResultImpl6isNodeEv
libxerces-c-3.1.so:_ZNK11xercesc_3_118IdentityConstraint12getProtoTypeEv
libxerces-c-3.1.so:_ZNK11xercesc_3_118IdentityConstraint14isSerializableEv
libxerces-c-3.1.so:_ZNK11xercesc_3_118IdentityConstrainteqERKS0_
libxerces-c-3.1.so:_ZNK11xercesc_3_118IdentityConstraintneERKS0_
libxerces-c-3.1.so:_ZNK11xercesc_3_118MemBufFormatTarget12getRawBufferEv
libxerces-c-3.1.so:_ZNK11xercesc_3_118SimpleContentModel15validateContentEPPNS_5QNameEmjPmPNS_13MemoryManagerE
libxerces-c-3.1.so:_ZNK11xercesc_3_118SimpleContentModel22validateContentSpecialEPPNS_5QNameEmjPNS_15GrammarResolverEPNS_13XMLStringPoolEPmPNS_13MemoryManagerE
libxerces-c-3.1.so:_ZNK11xercesc_3_118SimpleContentModel28getContentLeafNameTypeVectorEv
libxerces-c-3.1.so:_ZNK11xercesc_3_118Wrapper4DOMLSInput10makeStreamEv
libxerces-c-3.1.so:_ZNK11xercesc_3_118Wrapper4DOMLSInput11getEncodingEv
libxerces-c-3.1.so:_ZNK11xercesc_3_118Wrapper4DOMLSInput11getPublicIdEv
libxerces-c-3.1.so:_ZNK11xercesc_3_118Wrapper4DOMLSInput11getSystemIdEv
libxerces-c-3.1.so:_ZNK11xercesc_3_118Wrapper4DOMLSInput28getIssueFatalErrorIfNotFoundEv
libxerces-c-3.1.so:_ZNK11xercesc_3_118XMLGrammarPoolImpl20getGrammarEnumeratorEv
libxerces-c-3.1.so:_ZNK11xercesc_3_118XercesAttGroupInfo12getProtoTypeEv
libxerces-c-3.1.so:_ZNK11xercesc_3_118XercesAttGroupInfo14isSerializableEv
libxerces-c-3.1.so:_ZNK11xercesc_3_118XercesAttGroupInfo9getAttDefEPKti
libxerces-c-3.1.so:_ZNK11xercesc_3_118XercesLocationPath12getProtoTypeEv
libxerces-c-3.1.so:_ZNK11xercesc_3_118XercesLocationPath14isSerializableEv
libxerces-c-3.1.so:_ZNK11xercesc_3_118XercesLocationPatheqERKS0_
libxerces-c-3.1.so:_ZNK11xercesc_3_118XercesLocationPathneERKS0_
libxerces-c-3.1.so:_ZNK11xercesc_3_119BinFileOutputStream6curPosEv
libxerces-c-3.1.so:_ZNK11xercesc_3_119BinFileOutputStream7getSizeEv
libxerces-c-3.1.so:_ZNK11xercesc_3_119DOMCDATASectionImpl10getBaseURIEv
libxerces-c-3.1.so:_ZNK11xercesc_3_119DOMCDATASectionImpl10getFeatureEPKtS2_
libxerces-c-3.1.so:_ZNK11xercesc_3_119DOMCDATASectionImpl10isSameNodeEPKNS_7DOMNodeE
libxerces-c-3.1.so:_ZNK11xercesc_3_119DOMCDATASectionImpl11getNodeNameEv
libxerces-c-3.1.so:_ZNK11xercesc_3_119DOMCDATASectionImpl11getNodeTypeEv
libxerces-c-3.1.so:_ZNK11xercesc_3_119DOMCDATASectionImpl11getUserDataEPKt
libxerces-c-3.1.so:_ZNK11xercesc_3_119DOMCDATASectionImpl11isEqualNodeEPKNS_7DOMNodeE
libxerces-c-3.1.so:_ZNK11xercesc_3_119DOMCDATASectionImpl11isSupportedEPKtS2_
libxerces-c-3.1.so:_ZNK11xercesc_3_119DOMCDATASectionImpl12getLastChildEv
libxerces-c-3.1.so:_ZNK11xercesc_3_119DOMCDATASectionImpl12getLocalNameEv
libxerces-c-3.1.so:_ZNK11xercesc_3_119DOMCDATASectionImpl12getNodeValueEv
libxerces-c-3.1.so:_ZNK11xercesc_3_119DOMCDATASectionImpl12getWholeTextEv
libxerces-c-3.1.so:_ZNK11xercesc_3_119DOMCDATASectionImpl12lookupPrefixEPKt
libxerces-c-3.1.so:_ZNK11xercesc_3_119DOMCDATASectionImpl13getAttributesEv
libxerces-c-3.1.so:_ZNK11xercesc_3_119DOMCDATASectionImpl13getChildNodesEv
libxerces-c-3.1.so:_ZNK11xercesc_3_119DOMCDATASectionImpl13getFirstChildEv
libxerces-c-3.1.so:_ZNK11xercesc_3_119DOMCDATASectionImpl13getParentNodeEv
libxerces-c-3.1.so:_ZNK11xercesc_3_119DOMCDATASectionImpl13hasAttributesEv
libxerces-c-3.1.so:_ZNK11xercesc_3_119DOMCDATASectionImpl13hasChildNodesEv
libxerces-c-3.1.so:_ZNK11xercesc_3_119DOMCDATASectionImpl13substringDataEmm
libxerces-c-3.1.so:_ZNK11xercesc_3_119DOMCDATASectionImpl14getNextSiblingEv
libxerces-c-3.1.so:_ZNK11xercesc_3_119DOMCDATASectionImpl14getTextContentEv
libxerces-c-3.1.so:_ZNK11xercesc_3_119DOMCDATASectionImpl15getNamespaceURIEv
libxerces-c-3.1.so:_ZNK11xercesc_3_119DOMCDATASectionImpl16getOwnerDocumentEv
libxerces-c-3.1.so:_ZNK11xercesc_3_119DOMCDATASectionImpl18getPreviousSiblingEv
libxerces-c-3.1.so:_ZNK11xercesc_3_119DOMCDATASectionImpl18isDefaultNamespaceEPKt
libxerces-c-3.1.so:_ZNK11xercesc_3_119DOMCDATASectionImpl18lookupNamespaceURIEPKt
libxerces-c-3.1.so:_ZNK11xercesc_3_119DOMCDATASectionImpl21isIgnorableWhitespaceEv
libxerces-c-3.1.so:_ZNK11xercesc_3_119DOMCDATASectionImpl23compareDocumentPositionEPKNS_7DOMNodeE
libxerces-c-3.1.so:_ZNK11xercesc_3_119DOMCDATASectionImpl29getIsElementContentWhitespaceEv
libxerces-c-3.1.so:_ZNK11xercesc_3_119DOMCDATASectionImpl7getDataEv
libxerces-c-3.1.so:_ZNK11xercesc_3_119DOMCDATASectionImpl9cloneNodeEb
libxerces-c-3.1.so:_ZNK11xercesc_3_119DOMCDATASectionImpl9getLengthEv
libxerces-c-3.1.so:_ZNK11xercesc_3_119DOMCDATASectionImpl9getPrefixEv
libxerces-c-3.1.so:_ZNK11xercesc_3_119DOMDeepNodeListImpl4itemEm
libxerces-c-3.1.so:_ZNK11xercesc_3_119DOMDeepNodeListImpl9getLengthEv
libxerces-c-3.1.so:_ZNK11xercesc_3_119DOMDocumentTypeImpl10getBaseURIEv
libxerces-c-3.1.so:_ZNK11xercesc_3_119DOMDocumentTypeImpl10getFeatureEPKtS2_
libxerces-c-3.1.so:_ZNK11xercesc_3_119DOMDocumentTypeImpl10isSameNodeEPKNS_7DOMNodeE
libxerces-c-3.1.so:_ZNK11xercesc_3_119DOMDocumentTypeImpl11getElementsEv
libxerces-c-3.1.so:_ZNK11xercesc_3_119DOMDocumentTypeImpl11getEntitiesEv
libxerces-c-3.1.so:_ZNK11xercesc_3_119DOMDocumentTypeImpl11getNodeNameEv
libxerces-c-3.1.so:_ZNK11xercesc_3_119DOMDocumentTypeImpl11getNodeTypeEv
libxerces-c-3.1.so:_ZNK11xercesc_3_119DOMDocumentTypeImpl11getPublicIdEv
libxerces-c-3.1.so:_ZNK11xercesc_3_119DOMDocumentTypeImpl11getSystemIdEv
libxerces-c-3.1.so:_ZNK11xercesc_3_119DOMDocumentTypeImpl11getUserDataEPKt
libxerces-c-3.1.so:_ZNK11xercesc_3_119DOMDocumentTypeImpl11isEqualNodeEPKNS_7DOMNodeE
libxerces-c-3.1.so:_ZNK11xercesc_3_119DOMDocumentTypeImpl11isSupportedEPKtS2_
libxerces-c-3.1.so:_ZNK11xercesc_3_119DOMDocumentTypeImpl12getLastChildEv
libxerces-c-3.1.so:_ZNK11xercesc_3_119DOMDocumentTypeImpl12getLocalNameEv
libxerces-c-3.1.so:_ZNK11xercesc_3_119DOMDocumentTypeImpl12getNodeValueEv
libxerces-c-3.1.so:_ZNK11xercesc_3_119DOMDocumentTypeImpl12getNotationsEv
libxerces-c-3.1.so:_ZNK11xercesc_3_119DOMDocumentTypeImpl12lookupPrefixEPKt
libxerces-c-3.1.so:_ZNK11xercesc_3_119DOMDocumentTypeImpl13getAttributesEv
libxerces-c-3.1.so:_ZNK11xercesc_3_119DOMDocumentTypeImpl13getChildNodesEv
libxerces-c-3.1.so:_ZNK11xercesc_3_119DOMDocumentTypeImpl13getFirstChildEv
libxerces-c-3.1.so:_ZNK11xercesc_3_119DOMDocumentTypeImpl13getParentNodeEv
libxerces-c-3.1.so:_ZNK11xercesc_3_119DOMDocumentTypeImpl13hasAttributesEv
libxerces-c-3.1.so:_ZNK11xercesc_3_119DOMDocumentTypeImpl13hasChildNodesEv
libxerces-c-3.1.so:_ZNK11xercesc_3_119DOMDocumentTypeImpl14getNextSiblingEv
libxerces-c-3.1.so:_ZNK11xercesc_3_119DOMDocumentTypeImpl14getTextContentEv
libxerces-c-3.1.so:_ZNK11xercesc_3_119DOMDocumentTypeImpl15getNamespaceURIEv
libxerces-c-3.1.so:_ZNK11xercesc_3_119DOMDocumentTypeImpl16getOwnerDocumentEv
libxerces-c-3.1.so:_ZNK11xercesc_3_119DOMDocumentTypeImpl17getInternalSubsetEv
libxerces-c-3.1.so:_ZNK11xercesc_3_119DOMDocumentTypeImpl18getPreviousSiblingEv
libxerces-c-3.1.so:_ZNK11xercesc_3_119DOMDocumentTypeImpl18isDefaultNamespaceEPKt
libxerces-c-3.1.so:_ZNK11xercesc_3_119DOMDocumentTypeImpl18isIntSubsetReadingEv
libxerces-c-3.1.so:_ZNK11xercesc_3_119DOMDocumentTypeImpl18lookupNamespaceURIEPKt
libxerces-c-3.1.so:_ZNK11xercesc_3_119DOMDocumentTypeImpl23compareDocumentPositionEPKNS_7DOMNodeE
libxerces-c-3.1.so:_ZNK11xercesc_3_119DOMDocumentTypeImpl7getNameEv
libxerces-c-3.1.so:_ZNK11xercesc_3_119DOMDocumentTypeImpl9cloneNodeEb
libxerces-c-3.1.so:_ZNK11xercesc_3_119DOMDocumentTypeImpl9getPrefixEv
libxerces-c-3.1.so:_ZNK11xercesc_3_119DOMLSSerializerImpl10getNewLineEv
libxerces-c-3.1.so:_ZNK11xercesc_3_119DOMLSSerializerImpl11checkFilterEPKNS_7DOMNodeE
libxerces-c-3.1.so:_ZNK11xercesc_3_119DOMLSSerializerImpl12checkFeatureEPKtbRi
libxerces-c-3.1.so:_ZNK11xercesc_3_119DOMLSSerializerImpl12getParameterEPKt
libxerces-c-3.1.so:_ZNK11xercesc_3_119DOMLSSerializerImpl13canSetFeatureEib
libxerces-c-3.1.so:_ZNK11xercesc_3_119DOMLSSerializerImpl15canSetParameterEPKtPKv
libxerces-c-3.1.so:_ZNK11xercesc_3_119DOMLSSerializerImpl15canSetParameterEPKtb
libxerces-c-3.1.so:_ZNK11xercesc_3_119DOMLSSerializerImpl17getParameterNamesEv
libxerces-c-3.1.so:_ZNK11xercesc_3_119DOMLSSerializerImpl24isNamespaceBindingActiveEPKtS2_
libxerces-c-3.1.so:_ZNK11xercesc_3_119DOMLSSerializerImpl32isDefaultNamespacePrefixDeclaredEv
libxerces-c-3.1.so:_ZNK11xercesc_3_119DOMLSSerializerImpl9getFilterEv
libxerces-c-3.1.so:_ZNK11xercesc_3_119DOMNamedNodeMapImpl12getNamedItemEPKt
libxerces-c-3.1.so:_ZNK11xercesc_3_119DOMNamedNodeMapImpl14getNamedItemNSEPKtS2_
libxerces-c-3.1.so:_ZNK11xercesc_3_119DOMNamedNodeMapImpl4itemEm
libxerces-c-3.1.so:_ZNK11xercesc_3_119DOMNamedNodeMapImpl9getLengthEv
libxerces-c-3.1.so:_ZNK11xercesc_3_119IDDatatypeValidator12getProtoTypeEv
libxerces-c-3.1.so:_ZNK11xercesc_3_119IDDatatypeValidator14isSerializableEv
libxerces-c-3.1.so:_ZNK11xercesc_3_119Wrapper4InputSource11getEncodingEv
libxerces-c-3.1.so:_ZNK11xercesc_3_119Wrapper4InputSource11getPublicIdEv
libxerces-c-3.1.so:_ZNK11xercesc_3_119Wrapper4InputSource11getSystemIdEv
libxerces-c-3.1.so:_ZNK11xercesc_3_119Wrapper4InputSource13getByteStreamEv
libxerces-c-3.1.so:_ZNK11xercesc_3_119Wrapper4InputSource28getIssueFatalErrorIfNotFoundEv
libxerces-c-3.1.so:_ZNK11xercesc_3_120DOMCharacterDataImpl12getNodeValueEv
libxerces-c-3.1.so:_ZNK11xercesc_3_120DOMCharacterDataImpl13substringDataEPKNS_7DOMNodeEmm
libxerces-c-3.1.so:_ZNK11xercesc_3_120DOMCharacterDataImpl7getDataEv
libxerces-c-3.1.so:_ZNK11xercesc_3_120DOMCharacterDataImpl9getLengthEv
libxerces-c-3.1.so:_ZNK11xercesc_3_120DOMConfigurationImpl12getParameterEPKt
libxerces-c-3.1.so:_ZNK11xercesc_3_120DOMConfigurationImpl13getSchemaTypeEv
libxerces-c-3.1.so:_ZNK11xercesc_3_120DOMConfigurationImpl14getFeatureFlagEPKt
libxerces-c-3.1.so:_ZNK11xercesc_3_120DOMConfigurationImpl15canSetParameterEPKtPKv
libxerces-c-3.1.so:_ZNK11xercesc_3_120DOMConfigurationImpl15canSetParameterEPKtb
libxerces-c-3.1.so:_ZNK11xercesc_3_120DOMConfigurationImpl15getErrorHandlerEv
libxerces-c-3.1.so:_ZNK11xercesc_3_120DOMConfigurationImpl17getParameterNamesEv
libxerces-c-3.1.so:_ZNK11xercesc_3_120DOMConfigurationImpl17getSchemaLocationEv
libxerces-c-3.1.so:_ZNK11xercesc_3_120DayDatatypeValidator12getProtoTypeEv
libxerces-c-3.1.so:_ZNK11xercesc_3_120DayDatatypeValidator14isSerializableEv
libxerces-c-3.1.so:_ZNK11xercesc_3_120IconvGNUTransService14supportsSrcOfsEv
libxerces-c-3.1.so:_ZNK11xercesc_3_120IconvGNUTransService5getIdEv
libxerces-c-3.1.so:_ZNK11xercesc_3_120LocalFileInputSource10makeStreamEv
libxerces-c-3.1.so:_ZNK11xercesc_3_120XMLSchemaDescription12getProtoTypeEv
libxerces-c-3.1.so:_ZNK11xercesc_3_120XMLSchemaDescription14isSerializableEv
libxerces-c-3.1.so:_ZNK11xercesc_3_120XSElementDeclaration11getAbstractEv
libxerces-c-3.1.so:_ZNK11xercesc_3_120XSElementDeclaration11getNillableEv
libxerces-c-3.1.so:_ZNK11xercesc_3_120XSElementDeclaration17getConstraintTypeEv
libxerces-c-3.1.so:_ZNK11xercesc_3_120XSElementDeclaration7getNameEv
libxerces-c-3.1.so:_ZNK11xercesc_3_121DOMImplementationImpl10getFeatureEPKtS2_
libxerces-c-3.1.so:_ZNK11xercesc_3_121DOMImplementationImpl10hasFeatureEPKtS2_
libxerces-c-3.1.so:_ZNK11xercesc_3_121DOMImplementationImpl20getDOMImplementationEPKt
libxerces-c-3.1.so:_ZNK11xercesc_3_121DOMImplementationImpl24getDOMImplementationListEPKt
libxerces-c-3.1.so:_ZNK11xercesc_3_121DateDatatypeValidator12getProtoTypeEv
libxerces-c-3.1.so:_ZNK11xercesc_3_121DateDatatypeValidator14isSerializableEv
libxerces-c-3.1.so:_ZNK11xercesc_3_121DateDatatypeValidator26getCanonicalRepresentationEPKtPNS_13MemoryManagerEb
libxerces-c-3.1.so:_ZNK11xercesc_3_121ListDatatypeValidator12getProtoTypeEv
libxerces-c-3.1.so:_ZNK11xercesc_3_121ListDatatypeValidator14getItemTypeDTVEv
libxerces-c-3.1.so:_ZNK11xercesc_3_121ListDatatypeValidator14isSerializableEv
libxerces-c-3.1.so:_ZNK11xercesc_3_121ListDatatypeValidator15valueSpaceCheckEPNS_15BaseRefVectorOfItEEPKtPNS_13MemoryManagerE
libxerces-c-3.1.so:_ZNK11xercesc_3_121ListDatatypeValidator26getCanonicalRepresentationEPKtPNS_13MemoryManagerEb
libxerces-c-3.1.so:_ZNK11xercesc_3_121ListDatatypeValidator9getLengthEPKtPNS_13MemoryManagerE
libxerces-c-3.1.so:_ZNK11xercesc_3_121NameDatatypeValidator12getProtoTypeEv
libxerces-c-3.1.so:_ZNK11xercesc_3_121NameDatatypeValidator14isSerializableEv
libxerces-c-3.1.so:_ZNK11xercesc_3_121TimeDatatypeValidator12getProtoTypeEv
libxerces-c-3.1.so:_ZNK11xercesc_3_121TimeDatatypeValidator14isSerializableEv
libxerces-c-3.1.so:_ZNK11xercesc_3_121TimeDatatypeValidator26getCanonicalRepresentationEPKtPNS_13MemoryManagerEb
libxerces-c-3.1.so:_ZNK11xercesc_3_121ValidationContextImpl11checkEntityEPKt
libxerces-c-3.1.so:_ZNK11xercesc_3_121ValidationContextImpl12getIdRefListEv
libxerces-c-3.1.so:_ZNK11xercesc_3_121ValidationContextImpl17getEntityDeclPoolEv
libxerces-c-3.1.so:_ZNK11xercesc_3_121XML256TableTranscoder9xlatOneToEt
libxerces-c-3.1.so:_ZNK11xercesc_3_121XMLDTDDescriptionImpl11getRootNameEv
libxerces-c-3.1.so:_ZNK11xercesc_3_121XMLDTDDescriptionImpl11getSystemIdEv
libxerces-c-3.1.so:_ZNK11xercesc_3_121XMLDTDDescriptionImpl12getProtoTypeEv
libxerces-c-3.1.so:_ZNK11xercesc_3_121XMLDTDDescriptionImpl13getGrammarKeyEv
libxerces-c-3.1.so:_ZNK11xercesc_3_121XMLDTDDescriptionImpl14isSerializableEv
libxerces-c-3.1.so:_ZNK11xercesc_3_121XMLGrammarDescription12getProtoTypeEv
libxerces-c-3.1.so:_ZNK11xercesc_3_121XMLGrammarDescription14isSerializableEv
libxerces-c-3.1.so:_ZNK11xercesc_3_121XSNotationDeclaration7getNameEv
libxerces-c-3.1.so:_ZNK11xercesc_3_121YearDatatypeValidator12getProtoTypeEv
libxerces-c-3.1.so:_ZNK11xercesc_3_121YearDatatypeValidator14isSerializableEv
libxerces-c-3.1.so:_ZNK11xercesc_3_122DOMEntityReferenceImpl10getBaseURIEv
libxerces-c-3.1.so:_ZNK11xercesc_3_122DOMEntityReferenceImpl10getFeatureEPKtS2_
libxerces-c-3.1.so:_ZNK11xercesc_3_122DOMEntityReferenceImpl10isSameNodeEPKNS_7DOMNodeE
libxerces-c-3.1.so:_ZNK11xercesc_3_122DOMEntityReferenceImpl11getNodeNameEv
libxerces-c-3.1.so:_ZNK11xercesc_3_122DOMEntityReferenceImpl11getNodeTypeEv
libxerces-c-3.1.so:_ZNK11xercesc_3_122DOMEntityReferenceImpl11getUserDataEPKt
libxerces-c-3.1.so:_ZNK11xercesc_3_122DOMEntityReferenceImpl11isEqualNodeEPKNS_7DOMNodeE
libxerces-c-3.1.so:_ZNK11xercesc_3_122DOMEntityReferenceImpl11isSupportedEPKtS2_
libxerces-c-3.1.so:_ZNK11xercesc_3_122DOMEntityReferenceImpl12getLastChildEv
libxerces-c-3.1.so:_ZNK11xercesc_3_122DOMEntityReferenceImpl12getLocalNameEv
libxerces-c-3.1.so:_ZNK11xercesc_3_122DOMEntityReferenceImpl12getNodeValueEv
libxerces-c-3.1.so:_ZNK11xercesc_3_122DOMEntityReferenceImpl12lookupPrefixEPKt
libxerces-c-3.1.so:_ZNK11xercesc_3_122DOMEntityReferenceImpl13getAttributesEv
libxerces-c-3.1.so:_ZNK11xercesc_3_122DOMEntityReferenceImpl13getChildNodesEv
libxerces-c-3.1.so:_ZNK11xercesc_3_122DOMEntityReferenceImpl13getFirstChildEv
libxerces-c-3.1.so:_ZNK11xercesc_3_122DOMEntityReferenceImpl13getParentNodeEv
libxerces-c-3.1.so:_ZNK11xercesc_3_122DOMEntityReferenceImpl13hasAttributesEv
libxerces-c-3.1.so:_ZNK11xercesc_3_122DOMEntityReferenceImpl13hasChildNodesEv
libxerces-c-3.1.so:_ZNK11xercesc_3_122DOMEntityReferenceImpl14getNextSiblingEv
libxerces-c-3.1.so:_ZNK11xercesc_3_122DOMEntityReferenceImpl14getTextContentEv
libxerces-c-3.1.so:_ZNK11xercesc_3_122DOMEntityReferenceImpl15getNamespaceURIEv
libxerces-c-3.1.so:_ZNK11xercesc_3_122DOMEntityReferenceImpl16getOwnerDocumentEv
libxerces-c-3.1.so:_ZNK11xercesc_3_122DOMEntityReferenceImpl18getPreviousSiblingEv
libxerces-c-3.1.so:_ZNK11xercesc_3_122DOMEntityReferenceImpl18isDefaultNamespaceEPKt
libxerces-c-3.1.so:_ZNK11xercesc_3_122DOMEntityReferenceImpl18lookupNamespaceURIEPKt
libxerces-c-3.1.so:_ZNK11xercesc_3_122DOMEntityReferenceImpl23compareDocumentPositionEPKNS_7DOMNodeE
libxerces-c-3.1.so:_ZNK11xercesc_3_122DOMEntityReferenceImpl9cloneNodeEb
libxerces-c-3.1.so:_ZNK11xercesc_3_122DOMEntityReferenceImpl9getPrefixEv
libxerces-c-3.1.so:_ZNK11xercesc_3_122DOMXPathExpressionImpl8evaluateEPKNS_7DOMNodeENS_14DOMXPathResult10ResultTypeEPS4_
libxerces-c-3.1.so:_ZNK11xercesc_3_122DOMXPathExpressionImpl8testNodeEPNS_12XPathMatcherEPNS_18DOMXPathResultImplEPNS_10DOMElementE
libxerces-c-3.1.so:_ZNK11xercesc_3_122DOMXPathNSResolverImpl12lookupPrefixEPKt
libxerces-c-3.1.so:_ZNK11xercesc_3_122DOMXPathNSResolverImpl18lookupNamespaceURIEPKt
libxerces-c-3.1.so:_ZNK11xercesc_3_122FloatDatatypeValidator12getProtoTypeEv
libxerces-c-3.1.so:_ZNK11xercesc_3_122FloatDatatypeValidator14isSerializableEv
libxerces-c-3.1.so:_ZNK11xercesc_3_122IDREFDatatypeValidator12getProtoTypeEv
libxerces-c-3.1.so:_ZNK11xercesc_3_122IDREFDatatypeValidator14isSerializableEv
libxerces-c-3.1.so:_ZNK11xercesc_3_122MonthDatatypeValidator12getProtoTypeEv
libxerces-c-3.1.so:_ZNK11xercesc_3_122MonthDatatypeValidator14isSerializableEv
libxerces-c-3.1.so:_ZNK11xercesc_3_122QNameDatatypeValidator12getProtoTypeEv
libxerces-c-3.1.so:_ZNK11xercesc_3_122QNameDatatypeValidator14isSerializableEv
libxerces-c-3.1.so:_ZNK11xercesc_3_122UnionDatatypeValidator12getProtoTypeEv
libxerces-c-3.1.so:_ZNK11xercesc_3_122UnionDatatypeValidator13getEnumStringEv
libxerces-c-3.1.so:_ZNK11xercesc_3_122UnionDatatypeValidator14isSerializableEv
libxerces-c-3.1.so:_ZNK11xercesc_3_122UnionDatatypeValidator26getCanonicalRepresentationEPKtPNS_13MemoryManagerEb
libxerces-c-3.1.so:_ZNK11xercesc_3_122XMLAbstractDoubleFloat10getRawDataEv
libxerces-c-3.1.so:_ZNK11xercesc_3_122XMLAbstractDoubleFloat12getProtoTypeEv
libxerces-c-3.1.so:_ZNK11xercesc_3_122XMLAbstractDoubleFloat14isSerializableEv
libxerces-c-3.1.so:_ZNK11xercesc_3_122XMLAbstractDoubleFloat18getFormattedStringEv
libxerces-c-3.1.so:_ZNK11xercesc_3_122XMLAbstractDoubleFloat7getSignEv
libxerces-c-3.1.so:_ZNK11xercesc_3_122XSAttributeDeclaration11getRequiredEv
libxerces-c-3.1.so:_ZNK11xercesc_3_122XSAttributeDeclaration17getConstraintTypeEv
libxerces-c-3.1.so:_ZNK11xercesc_3_122XSAttributeDeclaration7getNameEv
libxerces-c-3.1.so:_ZNK11xercesc_3_122XSModelGroupDefinition7getNameEv
libxerces-c-3.1.so:_ZNK11xercesc_3_122XSSimpleTypeDefinition10getBoundedEv
libxerces-c-3.1.so:_ZNK11xercesc_3_122XSSimpleTypeDefinition10getNumericEv
libxerces-c-3.1.so:_ZNK11xercesc_3_122XSSimpleTypeDefinition10getOrderedEv
libxerces-c-3.1.so:_ZNK11xercesc_3_122XSSimpleTypeDefinition12getAnonymousEv
libxerces-c-3.1.so:_ZNK11xercesc_3_122XSSimpleTypeDefinition7getNameEv
libxerces-c-3.1.so:_ZNK11xercesc_3_122XSSimpleTypeDefinition9getFiniteEv
libxerces-c-3.1.so:_ZNK11xercesc_3_123AbstractStringValidator12getProtoTypeEv
libxerces-c-3.1.so:_ZNK11xercesc_3_123AbstractStringValidator13getEnumStringEv
libxerces-c-3.1.so:_ZNK11xercesc_3_123AbstractStringValidator14isSerializableEv
libxerces-c-3.1.so:_ZNK11xercesc_3_123AbstractStringValidator16normalizeContentEPtPNS_13MemoryManagerE
libxerces-c-3.1.so:_ZNK11xercesc_3_123AbstractStringValidator20checkAdditionalFacetEPKtPNS_13MemoryManagerE
libxerces-c-3.1.so:_ZNK11xercesc_3_123AbstractStringValidator31checkAdditionalFacetConstraintsEPNS_13MemoryManagerE
libxerces-c-3.1.so:_ZNK11xercesc_3_123AbstractStringValidator9getLengthEPKtPNS_13MemoryManagerE
libxerces-c-3.1.so:_ZNK11xercesc_3_123AnyURIDatatypeValidator12getProtoTypeEv
libxerces-c-3.1.so:_ZNK11xercesc_3_123AnyURIDatatypeValidator14isSerializableEv
libxerces-c-3.1.so:_ZNK11xercesc_3_123DOMDocumentFragmentImpl10getBaseURIEv
libxerces-c-3.1.so:_ZNK11xercesc_3_123DOMDocumentFragmentImpl10getFeatureEPKtS2_
libxerces-c-3.1.so:_ZNK11xercesc_3_123DOMDocumentFragmentImpl10isSameNodeEPKNS_7DOMNodeE
libxerces-c-3.1.so:_ZNK11xercesc_3_123DOMDocumentFragmentImpl11getNodeNameEv
libxerces-c-3.1.so:_ZNK11xercesc_3_123DOMDocumentFragmentImpl11getNodeTypeEv
libxerces-c-3.1.so:_ZNK11xercesc_3_123DOMDocumentFragmentImpl11getUserDataEPKt
libxerces-c-3.1.so:_ZNK11xercesc_3_123DOMDocumentFragmentImpl11isEqualNodeEPKNS_7DOMNodeE
libxerces-c-3.1.so:_ZNK11xercesc_3_123DOMDocumentFragmentImpl11isSupportedEPKtS2_
libxerces-c-3.1.so:_ZNK11xercesc_3_123DOMDocumentFragmentImpl12getLastChildEv
libxerces-c-3.1.so:_ZNK11xercesc_3_123DOMDocumentFragmentImpl12getLocalNameEv
libxerces-c-3.1.so:_ZNK11xercesc_3_123DOMDocumentFragmentImpl12getNodeValueEv
libxerces-c-3.1.so:_ZNK11xercesc_3_123DOMDocumentFragmentImpl12lookupPrefixEPKt
libxerces-c-3.1.so:_ZNK11xercesc_3_123DOMDocumentFragmentImpl13getAttributesEv
libxerces-c-3.1.so:_ZNK11xercesc_3_123DOMDocumentFragmentImpl13getChildNodesEv
libxerces-c-3.1.so:_ZNK11xercesc_3_123DOMDocumentFragmentImpl13getFirstChildEv
libxerces-c-3.1.so:_ZNK11xercesc_3_123DOMDocumentFragmentImpl13getParentNodeEv
libxerces-c-3.1.so:_ZNK11xercesc_3_123DOMDocumentFragmentImpl13hasAttributesEv
libxerces-c-3.1.so:_ZNK11xercesc_3_123DOMDocumentFragmentImpl13hasChildNodesEv
libxerces-c-3.1.so:_ZNK11xercesc_3_123DOMDocumentFragmentImpl14getNextSiblingEv
libxerces-c-3.1.so:_ZNK11xercesc_3_123DOMDocumentFragmentImpl14getTextContentEv
libxerces-c-3.1.so:_ZNK11xercesc_3_123DOMDocumentFragmentImpl15getNamespaceURIEv
libxerces-c-3.1.so:_ZNK11xercesc_3_123DOMDocumentFragmentImpl16getOwnerDocumentEv
libxerces-c-3.1.so:_ZNK11xercesc_3_123DOMDocumentFragmentImpl18getPreviousSiblingEv
libxerces-c-3.1.so:_ZNK11xercesc_3_123DOMDocumentFragmentImpl18isDefaultNamespaceEPKt
libxerces-c-3.1.so:_ZNK11xercesc_3_123DOMDocumentFragmentImpl18lookupNamespaceURIEPKt
libxerces-c-3.1.so:_ZNK11xercesc_3_123DOMDocumentFragmentImpl23compareDocumentPositionEPKNS_7DOMNodeE
libxerces-c-3.1.so:_ZNK11xercesc_3_123DOMDocumentFragmentImpl9cloneNodeEb
libxerces-c-3.1.so:_ZNK11xercesc_3_123DOMDocumentFragmentImpl9getPrefixEv
libxerces-c-3.1.so:_ZNK11xercesc_3_123DoubleDatatypeValidator12getProtoTypeEv
libxerces-c-3.1.so:_ZNK11xercesc_3_123DoubleDatatypeValidator14isSerializableEv
libxerces-c-3.1.so:_ZNK11xercesc_3_123ENTITYDatatypeValidator12getProtoTypeEv
libxerces-c-3.1.so:_ZNK11xercesc_3_123ENTITYDatatypeValidator14isSerializableEv
libxerces-c-3.1.so:_ZNK11xercesc_3_123NCNameDatatypeValidator12getProtoTypeEv
libxerces-c-3.1.so:_ZNK11xercesc_3_123NCNameDatatypeValidator14isSerializableEv
libxerces-c-3.1.so:_ZNK11xercesc_3_123StringDatatypeValidator12getProtoTypeEv
libxerces-c-3.1.so:_ZNK11xercesc_3_123StringDatatypeValidator14isSerializableEv
libxerces-c-3.1.so:_ZNK11xercesc_3_123StringDatatypeValidator20checkAdditionalFacetEPKtPNS_13MemoryManagerE
libxerces-c-3.1.so:_ZNK11xercesc_3_123StringDatatypeValidator31checkAdditionalFacetConstraintsEPNS_13MemoryManagerE
libxerces-c-3.1.so:_ZNK11xercesc_3_123XSComplexTypeDefinition11getAbstractEv
libxerces-c-3.1.so:_ZNK11xercesc_3_123XSComplexTypeDefinition12getAnonymousEv
libxerces-c-3.1.so:_ZNK11xercesc_3_123XSComplexTypeDefinition14getContentTypeEv
libxerces-c-3.1.so:_ZNK11xercesc_3_123XSComplexTypeDefinition19getDerivationMethodEv
libxerces-c-3.1.so:_ZNK11xercesc_3_123XSComplexTypeDefinition7getNameEv
libxerces-c-3.1.so:_ZNK11xercesc_3_124AbstractNumericValidator12getProtoTypeEv
libxerces-c-3.1.so:_ZNK11xercesc_3_124AbstractNumericValidator14isSerializableEv
libxerces-c-3.1.so:_ZNK11xercesc_3_124AbstractNumericValidator26getCanonicalRepresentationEPKtPNS_13MemoryManagerEb
libxerces-c-3.1.so:_ZNK11xercesc_3_124BooleanDatatypeValidator12getProtoTypeEv
libxerces-c-3.1.so:_ZNK11xercesc_3_124BooleanDatatypeValidator13getEnumStringEv
libxerces-c-3.1.so:_ZNK11xercesc_3_124BooleanDatatypeValidator14isSerializableEv
libxerces-c-3.1.so:_ZNK11xercesc_3_124BooleanDatatypeValidator26getCanonicalRepresentationEPKtPNS_13MemoryManagerEb
libxerces-c-3.1.so:_ZNK11xercesc_3_124DatatypeValidatorFactory12getProtoTypeEv
libxerces-c-3.1.so:_ZNK11xercesc_3_124DatatypeValidatorFactory14isSerializableEv
libxerces-c-3.1.so:_ZNK11xercesc_3_124DecimalDatatypeValidator12getProtoTypeEv
libxerces-c-3.1.so:_ZNK11xercesc_3_124DecimalDatatypeValidator14isSerializableEv
libxerces-c-3.1.so:_ZNK11xercesc_3_124DecimalDatatypeValidator26getCanonicalRepresentationEPKtPNS_13MemoryManagerEb
libxerces-c-3.1.so:_ZNK11xercesc_3_124DecimalDatatypeValidator31checkAdditionalFacetConstraintsEPNS_13MemoryManagerE
libxerces-c-3.1.so:_ZNK11xercesc_3_124DecimalDatatypeValidator35checkAdditionalFacetConstraintsBaseEPNS_13MemoryManagerE
libxerces-c-3.1.so:_ZNK11xercesc_3_124XMLSchemaDescriptionImpl12getProtoTypeEv
libxerces-c-3.1.so:_ZNK11xercesc_3_124XMLSchemaDescriptionImpl13getAttributesEv
libxerces-c-3.1.so:_ZNK11xercesc_3_124XMLSchemaDescriptionImpl13getGrammarKeyEv
libxerces-c-3.1.so:_ZNK11xercesc_3_124XMLSchemaDescriptionImpl14getContextTypeEv
libxerces-c-3.1.so:_ZNK11xercesc_3_124XMLSchemaDescriptionImpl14isSerializableEv
libxerces-c-3.1.so:_ZNK11xercesc_3_124XMLSchemaDescriptionImpl16getLocationHintsEv
libxerces-c-3.1.so:_ZNK11xercesc_3_124XMLSchemaDescriptionImpl18getTargetNamespaceEv
libxerces-c-3.1.so:_ZNK11xercesc_3_124XMLSchemaDescriptionImpl22getTriggeringComponentEv
libxerces-c-3.1.so:_ZNK11xercesc_3_124XMLSchemaDescriptionImpl23getEnclosingElementNameEv
libxerces-c-3.1.so:_ZNK11xercesc_3_125ContentLeafNameTypeVector12getLeafCountEv
libxerces-c-3.1.so:_ZNK11xercesc_3_125ContentLeafNameTypeVector13getLeafNameAtEm
libxerces-c-3.1.so:_ZNK11xercesc_3_125ContentLeafNameTypeVector13getLeafTypeAtEm
libxerces-c-3.1.so:_ZNK11xercesc_3_125DOMImplementationListImpl4itemEm
libxerces-c-3.1.so:_ZNK11xercesc_3_125DOMImplementationListImpl9getLengthEv
libxerces-c-3.1.so:_ZNK11xercesc_3_125DateTimeDatatypeValidator12getProtoTypeEv
libxerces-c-3.1.so:_ZNK11xercesc_3_125DateTimeDatatypeValidator14isSerializableEv
libxerces-c-3.1.so:_ZNK11xercesc_3_125DateTimeDatatypeValidator26getCanonicalRepresentationEPKtPNS_13MemoryManagerEb
libxerces-c-3.1.so:_ZNK11xercesc_3_125DurationDatatypeValidator12getProtoTypeEv
libxerces-c-3.1.so:_ZNK11xercesc_3_125DurationDatatypeValidator14isSerializableEv
libxerces-c-3.1.so:_ZNK11xercesc_3_125MonthDayDatatypeValidator12getProtoTypeEv
libxerces-c-3.1.so:_ZNK11xercesc_3_125MonthDayDatatypeValidator14isSerializableEv
libxerces-c-3.1.so:_ZNK11xercesc_3_125NOTATIONDatatypeValidator12getProtoTypeEv
libxerces-c-3.1.so:_ZNK11xercesc_3_125NOTATIONDatatypeValidator14isSerializableEv
libxerces-c-3.1.so:_ZNK11xercesc_3_125XMLSynchronizedStringPool13getValueForIdEj
libxerces-c-3.1.so:_ZNK11xercesc_3_125XMLSynchronizedStringPool14getStringCountEv
libxerces-c-3.1.so:_ZNK11xercesc_3_125XMLSynchronizedStringPool5getIdEPKt
libxerces-c-3.1.so:_ZNK11xercesc_3_125XMLSynchronizedStringPool6existsEPKt
libxerces-c-3.1.so:_ZNK11xercesc_3_125XMLSynchronizedStringPool6existsEj
libxerces-c-3.1.so:_ZNK11xercesc_3_126HexBinaryDatatypeValidator12getProtoTypeEv
libxerces-c-3.1.so:_ZNK11xercesc_3_126HexBinaryDatatypeValidator14isSerializableEv
libxerces-c-3.1.so:_ZNK11xercesc_3_126HexBinaryDatatypeValidator9getLengthEPKtPNS_13MemoryManagerE
libxerces-c-3.1.so:_ZNK11xercesc_3_126XSAttributeGroupDefinition7getNameEv
libxerces-c-3.1.so:_ZNK11xercesc_3_126YearMonthDatatypeValidator12getProtoTypeEv
libxerces-c-3.1.so:_ZNK11xercesc_3_126YearMonthDatatypeValidator14isSerializableEv
libxerces-c-3.1.so:_ZNK11xercesc_3_128DOMProcessingInstructionImpl10getBaseURIEv
libxerces-c-3.1.so:_ZNK11xercesc_3_128DOMProcessingInstructionImpl10getFeatureEPKtS2_
libxerces-c-3.1.so:_ZNK11xercesc_3_128DOMProcessingInstructionImpl10isSameNodeEPKNS_7DOMNodeE
libxerces-c-3.1.so:_ZNK11xercesc_3_128DOMProcessingInstructionImpl11getNodeNameEv
libxerces-c-3.1.so:_ZNK11xercesc_3_128DOMProcessingInstructionImpl11getNodeTypeEv
libxerces-c-3.1.so:_ZNK11xercesc_3_128DOMProcessingInstructionImpl11getUserDataEPKt
libxerces-c-3.1.so:_ZNK11xercesc_3_128DOMProcessingInstructionImpl11isEqualNodeEPKNS_7DOMNodeE
libxerces-c-3.1.so:_ZNK11xercesc_3_128DOMProcessingInstructionImpl11isSupportedEPKtS2_
libxerces-c-3.1.so:_ZNK11xercesc_3_128DOMProcessingInstructionImpl12getLastChildEv
libxerces-c-3.1.so:_ZNK11xercesc_3_128DOMProcessingInstructionImpl12getLocalNameEv
libxerces-c-3.1.so:_ZNK11xercesc_3_128DOMProcessingInstructionImpl12getNodeValueEv
libxerces-c-3.1.so:_ZNK11xercesc_3_128DOMProcessingInstructionImpl12lookupPrefixEPKt
libxerces-c-3.1.so:_ZNK11xercesc_3_128DOMProcessingInstructionImpl13getAttributesEv
libxerces-c-3.1.so:_ZNK11xercesc_3_128DOMProcessingInstructionImpl13getChildNodesEv
libxerces-c-3.1.so:_ZNK11xercesc_3_128DOMProcessingInstructionImpl13getFirstChildEv
libxerces-c-3.1.so:_ZNK11xercesc_3_128DOMProcessingInstructionImpl13getParentNodeEv
libxerces-c-3.1.so:_ZNK11xercesc_3_128DOMProcessingInstructionImpl13hasAttributesEv
libxerces-c-3.1.so:_ZNK11xercesc_3_128DOMProcessingInstructionImpl13hasChildNodesEv
libxerces-c-3.1.so:_ZNK11xercesc_3_128DOMProcessingInstructionImpl13substringDataEmm
libxerces-c-3.1.so:_ZNK11xercesc_3_128DOMProcessingInstructionImpl14getNextSiblingEv
libxerces-c-3.1.so:_ZNK11xercesc_3_128DOMProcessingInstructionImpl14getTextContentEv
libxerces-c-3.1.so:_ZNK11xercesc_3_128DOMProcessingInstructionImpl15getNamespaceURIEv
libxerces-c-3.1.so:_ZNK11xercesc_3_128DOMProcessingInstructionImpl16getOwnerDocumentEv
libxerces-c-3.1.so:_ZNK11xercesc_3_128DOMProcessingInstructionImpl18getPreviousSiblingEv
libxerces-c-3.1.so:_ZNK11xercesc_3_128DOMProcessingInstructionImpl18isDefaultNamespaceEPKt
libxerces-c-3.1.so:_ZNK11xercesc_3_128DOMProcessingInstructionImpl18lookupNamespaceURIEPKt
libxerces-c-3.1.so:_ZNK11xercesc_3_128DOMProcessingInstructionImpl23compareDocumentPositionEPKNS_7DOMNodeE
libxerces-c-3.1.so:_ZNK11xercesc_3_128DOMProcessingInstructionImpl7getDataEv
libxerces-c-3.1.so:_ZNK11xercesc_3_128DOMProcessingInstructionImpl9cloneNodeEb
libxerces-c-3.1.so:_ZNK11xercesc_3_128DOMProcessingInstructionImpl9getPrefixEv
libxerces-c-3.1.so:_ZNK11xercesc_3_128DOMProcessingInstructionImpl9getTargetEv
libxerces-c-3.1.so:_ZNK11xercesc_3_129AbstractNumericFacetValidator12getProtoTypeEv
libxerces-c-3.1.so:_ZNK11xercesc_3_129AbstractNumericFacetValidator13getEnumStringEv
libxerces-c-3.1.so:_ZNK11xercesc_3_129AbstractNumericFacetValidator14isSerializableEv
libxerces-c-3.1.so:_ZNK11xercesc_3_129AbstractNumericFacetValidator31checkAdditionalFacetConstraintsEPNS_13MemoryManagerE
libxerces-c-3.1.so:_ZNK11xercesc_3_129AbstractNumericFacetValidator35checkAdditionalFacetConstraintsBaseEPNS_13MemoryManagerE
libxerces-c-3.1.so:_ZNK11xercesc_3_129Base64BinaryDatatypeValidator12getProtoTypeEv
libxerces-c-3.1.so:_ZNK11xercesc_3_129Base64BinaryDatatypeValidator14isSerializableEv
libxerces-c-3.1.so:_ZNK11xercesc_3_129Base64BinaryDatatypeValidator16normalizeContentEPtPNS_13MemoryManagerE
libxerces-c-3.1.so:_ZNK11xercesc_3_129Base64BinaryDatatypeValidator9getLengthEPKtPNS_13MemoryManagerE
libxerces-c-3.1.so:_ZNK11xercesc_3_12Op10getLiteralEv
libxerces-c-3.1.so:_ZNK11xercesc_3_12Op7getDataEv
libxerces-c-3.1.so:_ZNK11xercesc_3_12Op7getSizeEv
libxerces-c-3.1.so:_ZNK11xercesc_3_12Op8getChildEv
libxerces-c-3.1.so:_ZNK11xercesc_3_12Op8getData2Ev
libxerces-c-3.1.so:_ZNK11xercesc_3_12Op8getTokenEv
libxerces-c-3.1.so:_ZNK11xercesc_3_12Op9elementAtEm
libxerces-c-3.1.so:_ZNK11xercesc_3_130AnySimpleTypeDatatypeValidator12getProtoTypeEv
libxerces-c-3.1.so:_ZNK11xercesc_3_130AnySimpleTypeDatatypeValidator13getEnumStringEv
libxerces-c-3.1.so:_ZNK11xercesc_3_130AnySimpleTypeDatatypeValidator14isSerializableEv
libxerces-c-3.1.so:_ZNK11xercesc_3_15CMAny11calcLastPosERNS_10CMStateSetE
libxerces-c-3.1.so:_ZNK11xercesc_3_15CMAny11getPositionEv
libxerces-c-3.1.so:_ZNK11xercesc_3_15CMAny12calcFirstPosERNS_10CMStateSetE
libxerces-c-3.1.so:_ZNK11xercesc_3_15CMAny6getURIEv
libxerces-c-3.1.so:_ZNK11xercesc_3_15QName10getRawNameEv
libxerces-c-3.1.so:_ZNK11xercesc_3_15QName12getProtoTypeEv
libxerces-c-3.1.so:_ZNK11xercesc_3_15QName14isSerializableEv
libxerces-c-3.1.so:_ZNK11xercesc_3_15QNameeqERKS0_
libxerces-c-3.1.so:_ZNK11xercesc_3_15Token12getMaxLengthEv
libxerces-c-3.1.so:_ZNK11xercesc_3_15Token12getMinLengthEv
libxerces-c-3.1.so:_ZNK11xercesc_3_16BitSet13allAreClearedEv
libxerces-c-3.1.so:_ZNK11xercesc_3_16BitSet3getEm
libxerces-c-3.1.so:_ZNK11xercesc_3_16BitSet4hashEm
libxerces-c-3.1.so:_ZNK11xercesc_3_16BitSet4sizeEv
libxerces-c-3.1.so:_ZNK11xercesc_3_16BitSet6equalsERKS0_
libxerces-c-3.1.so:_ZNK11xercesc_3_16BitSet9allAreSetEv
libxerces-c-3.1.so:_ZNK11xercesc_3_16CharOp7getDataEv
libxerces-c-3.1.so:_ZNK11xercesc_3_16IC_Key12getProtoTypeEv
libxerces-c-3.1.so:_ZNK11xercesc_3_16IC_Key14isSerializableEv
libxerces-c-3.1.so:_ZNK11xercesc_3_16XMLURL10getPortNumEv
libxerces-c-3.1.so:_ZNK11xercesc_3_16XMLURL10isRelativeEv
libxerces-c-3.1.so:_ZNK11xercesc_3_16XMLURL13makeNewStreamEv
libxerces-c-3.1.so:_ZNK11xercesc_3_16XMLURL14hasInvalidCharEv
libxerces-c-3.1.so:_ZNK11xercesc_3_16XMLURL15getProtocolNameEv
libxerces-c-3.1.so:_ZNK11xercesc_3_16XMLURLeqERKS0_
libxerces-c-3.1.so:_ZNK11xercesc_3_16XMLUri12getProtoTypeEv
libxerces-c-3.1.so:_ZNK11xercesc_3_16XMLUri14isSerializableEv
libxerces-c-3.1.so:_ZNK11xercesc_3_17ChildOp8getChildEv
libxerces-c-3.1.so:_ZNK11xercesc_3_17Grammar12getProtoTypeEv
libxerces-c-3.1.so:_ZNK11xercesc_3_17Grammar14isSerializableEv
libxerces-c-3.1.so:_ZNK11xercesc_3_17RangeOp8getTokenEv
libxerces-c-3.1.so:_ZNK11xercesc_3_17UnionOp7getSizeEv
libxerces-c-3.1.so:_ZNK11xercesc_3_17UnionOp9elementAtEm
libxerces-c-3.1.so:_ZNK11xercesc_3_17XMLAttr8getQNameEv
libxerces-c-3.1.so:_ZNK11xercesc_3_18IC_Field12getProtoTypeEv
libxerces-c-3.1.so:_ZNK11xercesc_3_18IC_Field14isSerializableEv
libxerces-c-3.1.so:_ZNK11xercesc_3_18IC_FieldeqERKS0_
libxerces-c-3.1.so:_ZNK11xercesc_3_18IC_FieldneERKS0_
libxerces-c-3.1.so:_ZNK11xercesc_3_18PSVIItem14getActualValueEv
libxerces-c-3.1.so:_ZNK11xercesc_3_18StringOp10getLiteralEv
libxerces-c-3.1.so:_ZNK11xercesc_3_18XMLFloat12getProtoTypeEv
libxerces-c-3.1.so:_ZNK11xercesc_3_18XMLFloat14isSerializableEv
libxerces-c-3.1.so:_ZNK11xercesc_3_18XSObject5getIdEv
libxerces-c-3.1.so:_ZNK11xercesc_3_18XSObject7getNameEv
libxerces-c-3.1.so:_ZNK11xercesc_3_19BMPattern7matchesEPKtmm
libxerces-c-3.1.so:_ZNK11xercesc_3_19CMUnaryOp11calcLastPosERNS_10CMStateSetE
libxerces-c-3.1.so:_ZNK11xercesc_3_19CMUnaryOp12calcFirstPosERNS_10CMStateSetE
libxerces-c-3.1.so:_ZNK11xercesc_3_19CMUnaryOp8getChildEv
libxerces-c-3.1.so:_ZNK11xercesc_3_19DTDAttDef12getProtoTypeEv
libxerces-c-3.1.so:_ZNK11xercesc_3_19DTDAttDef14isSerializableEv
libxerces-c-3.1.so:_ZNK11xercesc_3_19ElemStack10topElementEv
libxerces-c-3.1.so:_ZNK11xercesc_3_19ElemStack14mapPrefixToURIEPKtRb
libxerces-c-3.1.so:_ZNK11xercesc_3_19ElemStack15getNamespaceMapEv
libxerces-c-3.1.so:_ZNK11xercesc_3_19IC_KeyRef12getProtoTypeEv
libxerces-c-3.1.so:_ZNK11xercesc_3_19IC_KeyRef14isSerializableEv
libxerces-c-3.1.so:_ZNK11xercesc_3_19IC_Unique12getProtoTypeEv
libxerces-c-3.1.so:_ZNK11xercesc_3_19IC_Unique14isSerializableEv
libxerces-c-3.1.so:_ZNK11xercesc_3_19ReaderMgr11getPublicIdEv
libxerces-c-3.1.so:_ZNK11xercesc_3_19ReaderMgr11getSystemIdEv
libxerces-c-3.1.so:_ZNK11xercesc_3_19ReaderMgr13getLineNumberEv
libxerces-c-3.1.so:_ZNK11xercesc_3_19ReaderMgr14getReaderDepthEv
libxerces-c-3.1.so:_ZNK11xercesc_3_19ReaderMgr15getColumnNumberEv
libxerces-c-3.1.so:_ZNK11xercesc_3_19ReaderMgr16getCurrentEntityEv
libxerces-c-3.1.so:_ZNK11xercesc_3_19ReaderMgr16getLastExtEntityERPKNS_13XMLEntityDeclE
libxerces-c-3.1.so:_ZNK11xercesc_3_19ReaderMgr20getLastExtEntityInfoERNS0_17LastExtEntityInfoE
libxerces-c-3.1.so:_ZNK11xercesc_3_19ReaderMgr21getCurrentEncodingStrEv
libxerces-c-3.1.so:_ZNK11xercesc_3_19ReaderMgr27isScanningPERefOutOfLiteralEv
libxerces-c-3.1.so:_ZNK11xercesc_3_19ReaderMgr5atEOFEv
libxerces-c-3.1.so:_ZNK11xercesc_3_19ReaderMgr7isEmptyEv
libxerces-c-3.1.so:_ZNK11xercesc_3_19SAXParser10getURITextEj
libxerces-c-3.1.so:_ZNK11xercesc_3_19SAXParser11getDoSchemaEv
libxerces-c-3.1.so:_ZNK11xercesc_3_19SAXParser12getSrcOffsetEv
libxerces-c-3.1.so:_ZNK11xercesc_3_19SAXParser12getValidatorEv
libxerces-c-3.1.so:_ZNK11xercesc_3_19SAXParser13getErrorCountEv
libxerces-c-3.1.so:_ZNK11xercesc_3_19SAXParser13getLoadSchemaEv
libxerces-c-3.1.so:_ZNK11xercesc_3_19SAXParser15getDoNamespacesEv
libxerces-c-3.1.so:_ZNK11xercesc_3_19SAXParser15getLowWaterMarkEv
libxerces-c-3.1.so:_ZNK11xercesc_3_19SAXParser18getCalculateSrcOfsEv
libxerces-c-3.1.so:_ZNK11xercesc_3_19SAXParser18getIgnoreCachedDTDEv
libxerces-c-3.1.so:_ZNK11xercesc_3_19SAXParser18getLoadExternalDTDEv
libxerces-c-3.1.so:_ZNK11xercesc_3_19SAXParser18getSecurityManagerEv
libxerces-c-3.1.so:_ZNK11xercesc_3_19SAXParser19getValidationSchemeEv
libxerces-c-3.1.so:_ZNK11xercesc_3_19SAXParser20getIgnoreAnnotationsEv
libxerces-c-3.1.so:_ZNK11xercesc_3_19SAXParser20getSkipDTDValidationEv
libxerces-c-3.1.so:_ZNK11xercesc_3_19SAXParser22getValidateAnnotationsEv
libxerces-c-3.1.so:_ZNK11xercesc_3_19SAXParser24getExitOnFirstFatalErrorEv
libxerces-c-3.1.so:_ZNK11xercesc_3_19SAXParser24getHandleMultipleImportsEv
libxerces-c-3.1.so:_ZNK11xercesc_3_19SAXParser24getStandardUriConformantEv
libxerces-c-3.1.so:_ZNK11xercesc_3_19SAXParser25getExternalSchemaLocationEv
libxerces-c-3.1.so:_ZNK11xercesc_3_19SAXParser25isCachingGrammarFromParseEv
libxerces-c-3.1.so:_ZNK11xercesc_3_19SAXParser27isUsingCachedGrammarInParseEv
libxerces-c-3.1.so:_ZNK11xercesc_3_19SAXParser28getValidationConstraintFatalEv
libxerces-c-3.1.so:_ZNK11xercesc_3_19SAXParser29getIdentityConstraintCheckingEv
libxerces-c-3.1.so:_ZNK11xercesc_3_19SAXParser31getGenerateSyntheticAnnotationsEv
libxerces-c-3.1.so:_ZNK11xercesc_3_19SAXParser31getValidationSchemaFullCheckingEv
libxerces-c-3.1.so:_ZNK11xercesc_3_19SAXParser33getDisableDefaultEntityResolutionEv
libxerces-c-3.1.so:_ZNK11xercesc_3_19SAXParser36getExternalNoNamespaceSchemaLocationEv
libxerces-c-3.1.so:_ZNK11xercesc_3_19XMLAttDef12getProtoTypeEv
libxerces-c-3.1.so:_ZNK11xercesc_3_19XMLAttDef14isSerializableEv
libxerces-c-3.1.so:_ZNK11xercesc_3_19XMLDouble12getProtoTypeEv
libxerces-c-3.1.so:_ZNK11xercesc_3_19XMLDouble14isSerializableEv
libxerces-c-3.1.so:_ZNK11xercesc_3_19XMLNumber12getProtoTypeEv
libxerces-c-3.1.so:_ZNK11xercesc_3_19XMLNumber14isSerializableEv
libxerces-c-3.1.so:_ZNK11xercesc_3_19XMLReader11isAllSpacesEPKtm
libxerces-c-3.1.so:_ZNK11xercesc_3_19XMLReader12getSrcOffsetEv
libxerces-c-3.1.so:_ZNK11xercesc_3_19XMLReader14isPublicIdCharEt
libxerces-c-3.1.so:_ZNK11xercesc_3_19XMLReader18containsWhiteSpaceEPKtm
libxerces-c-3.1.so:_ZThn16_N11xercesc_3_112XSDDOMParser13resolveEntityEPNS_21XMLResourceIdentifierE
libxerces-c-3.1.so:_ZThn16_N11xercesc_3_112XSDDOMParserD0Ev
libxerces-c-3.1.so:_ZThn16_N11xercesc_3_112XSDDOMParserD1Ev
libxerces-c-3.1.so:_ZThn16_N11xercesc_3_115DOMDocumentImpl16createExpressionEPKtPKNS_18DOMXPathNSResolverE
libxerces-c-3.1.so:_ZThn16_N11xercesc_3_115DOMDocumentImpl16createNSResolverEPKNS_7DOMNodeE
libxerces-c-3.1.so:_ZThn16_N11xercesc_3_115DOMDocumentImpl8evaluateEPKtPKNS_7DOMNodeEPKNS_18DOMXPathNSResolverENS_14DOMXPathResult10ResultTypeEPS9_
libxerces-c-3.1.so:_ZThn16_N11xercesc_3_115DOMDocumentImplD0Ev
libxerces-c-3.1.so:_ZThn16_N11xercesc_3_115DOMDocumentImplD1Ev
libxerces-c-3.1.so:_ZThn16_N11xercesc_3_115DOMLSParserImpl13resolveEntityEPNS_21XMLResourceIdentifierE
libxerces-c-3.1.so:_ZThn16_N11xercesc_3_115DOMLSParserImplD0Ev
libxerces-c-3.1.so:_ZThn16_N11xercesc_3_115DOMLSParserImplD1Ev
libxerces-c-3.1.so:_ZThn16_N11xercesc_3_115XercesDOMParser13resolveEntityEPNS_21XMLResourceIdentifierE
libxerces-c-3.1.so:_ZThn16_N11xercesc_3_115XercesDOMParserD0Ev
libxerces-c-3.1.so:_ZThn16_N11xercesc_3_115XercesDOMParserD1Ev
libxerces-c-3.1.so:_ZThn16_N11xercesc_3_117AbstractDOMParserD0Ev
libxerces-c-3.1.so:_ZThn16_N11xercesc_3_117AbstractDOMParserD1Ev
libxerces-c-3.1.so:_ZThn16_N11xercesc_3_117SAX2XMLFilterImpl12notationDeclEPKtS2_S2_
libxerces-c-3.1.so:_ZThn16_N11xercesc_3_117SAX2XMLFilterImpl12resetDocTypeEv
libxerces-c-3.1.so:_ZThn16_N11xercesc_3_117SAX2XMLFilterImpl18unparsedEntityDeclEPKtS2_S2_S2_
libxerces-c-3.1.so:_ZThn16_N11xercesc_3_117SAX2XMLFilterImplD0Ev
libxerces-c-3.1.so:_ZThn16_N11xercesc_3_117SAX2XMLFilterImplD1Ev
libxerces-c-3.1.so:_ZThn16_N11xercesc_3_117SAX2XMLReaderImpl11resetErrorsEv
libxerces-c-3.1.so:_ZThn16_N11xercesc_3_117SAX2XMLReaderImpl5errorEjPKtNS_16XMLErrorReporter8ErrTypesES2_S2_S2_mm
libxerces-c-3.1.so:_ZThn16_N11xercesc_3_117SAX2XMLReaderImplD0Ev
libxerces-c-3.1.so:_ZThn16_N11xercesc_3_117SAX2XMLReaderImplD1Ev
libxerces-c-3.1.so:_ZThn16_N11xercesc_3_19SAXParser11resetErrorsEv
libxerces-c-3.1.so:_ZThn16_N11xercesc_3_19SAXParser5errorEjPKtNS_16XMLErrorReporter8ErrTypesES2_S2_S2_mm
libxerces-c-3.1.so:_ZThn16_N11xercesc_3_19SAXParserD0Ev
libxerces-c-3.1.so:_ZThn16_N11xercesc_3_19SAXParserD1Ev
libxerces-c-3.1.so:_ZThn192_N11xercesc_3_115DOMLSParserImpl11loadGrammarEPKNS_10DOMLSInputENS_7Grammar11GrammarTypeEb
libxerces-c-3.1.so:_ZThn192_N11xercesc_3_115DOMLSParserImpl11loadGrammarEPKcNS_7Grammar11GrammarTypeEb
libxerces-c-3.1.so:_ZThn192_N11xercesc_3_115DOMLSParserImpl11loadGrammarEPKtNS_7Grammar11GrammarTypeEb
libxerces-c-3.1.so:_ZThn192_N11xercesc_3_115DOMLSParserImpl16parseWithContextEPKNS_10DOMLSInputEPNS_7DOMNodeENS_11DOMLSParser10ActionTypeE
libxerces-c-3.1.so:_ZThn192_N11xercesc_3_115DOMLSParserImpl17resetDocumentPoolEv
libxerces-c-3.1.so:_ZThn192_N11xercesc_3_115DOMLSParserImpl22resetCachedGrammarPoolEv
libxerces-c-3.1.so:_ZThn192_N11xercesc_3_115DOMLSParserImpl5abortEv
libxerces-c-3.1.so:_ZThn192_N11xercesc_3_115DOMLSParserImpl5parseEPKNS_10DOMLSInputE
libxerces-c-3.1.so:_ZThn192_N11xercesc_3_115DOMLSParserImpl7releaseEv
libxerces-c-3.1.so:_ZThn192_N11xercesc_3_115DOMLSParserImpl8parseURIEPKc
libxerces-c-3.1.so:_ZThn192_N11xercesc_3_115DOMLSParserImpl8parseURIEPKt
libxerces-c-3.1.so:_ZThn192_N11xercesc_3_115DOMLSParserImpl9setFilterEPNS_17DOMLSParserFilterE
libxerces-c-3.1.so:_ZThn192_N11xercesc_3_115DOMLSParserImplD0Ev
libxerces-c-3.1.so:_ZThn192_N11xercesc_3_115DOMLSParserImplD1Ev
libxerces-c-3.1.so:_ZThn192_NK11xercesc_3_115DOMLSParserImpl10getGrammarEPKt
libxerces-c-3.1.so:_ZThn192_NK11xercesc_3_115DOMLSParserImpl10getURITextEj
libxerces-c-3.1.so:_ZThn192_NK11xercesc_3_115DOMLSParserImpl12getSrcOffsetEv
libxerces-c-3.1.so:_ZThn192_NK11xercesc_3_115DOMLSParserImpl14getRootGrammarEv
libxerces-c-3.1.so:_ZThn192_NK11xercesc_3_115DOMLSParserImpl7getBusyEv
libxerces-c-3.1.so:_ZThn200_N11xercesc_3_115DOMLSParserImpl12setParameterEPKtPKv
libxerces-c-3.1.so:_ZThn200_N11xercesc_3_115DOMLSParserImpl12setParameterEPKtb
libxerces-c-3.1.so:_ZThn200_N11xercesc_3_115DOMLSParserImplD0Ev
libxerces-c-3.1.so:_ZThn200_N11xercesc_3_115DOMLSParserImplD1Ev
libxerces-c-3.1.so:_ZThn200_NK11xercesc_3_115DOMLSParserImpl12getParameterEPKt
libxerces-c-3.1.so:_ZThn200_NK11xercesc_3_115DOMLSParserImpl15canSetParameterEPKtPKv
libxerces-c-3.1.so:_ZThn200_NK11xercesc_3_115DOMLSParserImpl15canSetParameterEPKtb
libxerces-c-3.1.so:_ZThn200_NK11xercesc_3_115DOMLSParserImpl17getParameterNamesEv
libxerces-c-3.1.so:_ZThn24_N11xercesc_3_112XSDDOMParserD0Ev
libxerces-c-3.1.so:_ZThn24_N11xercesc_3_112XSDDOMParserD1Ev
libxerces-c-3.1.so:_ZThn24_N11xercesc_3_115DOMDocumentImpl16createTreeWalkerEPNS_7DOMNodeEmPNS_13DOMNodeFilterEb
libxerces-c-3.1.so:_ZThn24_N11xercesc_3_115DOMDocumentImpl18createNodeIteratorEPNS_7DOMNodeEmPNS_13DOMNodeFilterEb
libxerces-c-3.1.so:_ZThn24_N11xercesc_3_115DOMDocumentImplD0Ev
libxerces-c-3.1.so:_ZThn24_N11xercesc_3_115DOMDocumentImplD1Ev
libxerces-c-3.1.so:_ZThn24_N11xercesc_3_115DOMLSParserImplD0Ev
libxerces-c-3.1.so:_ZThn24_N11xercesc_3_115DOMLSParserImplD1Ev
libxerces-c-3.1.so:_ZThn24_N11xercesc_3_115XercesDOMParserD0Ev
libxerces-c-3.1.so:_ZThn24_N11xercesc_3_115XercesDOMParserD1Ev
libxerces-c-3.1.so:_ZThn24_N11xercesc_3_117AbstractDOMParser10endAttListERKNS_14DTDElementDeclE
libxerces-c-3.1.so:_ZThn24_N11xercesc_3_117AbstractDOMParser10entityDeclERKNS_13DTDEntityDeclEbb
libxerces-c-3.1.so:_ZThn24_N11xercesc_3_117AbstractDOMParser11doctypeDeclERKNS_14DTDElementDeclEPKtS5_bb
libxerces-c-3.1.so:_ZThn24_N11xercesc_3_117AbstractDOMParser11elementDeclERKNS_14DTDElementDeclEb
libxerces-c-3.1.so:_ZThn24_N11xercesc_3_117AbstractDOMParser12endExtSubsetEv
libxerces-c-3.1.so:_ZThn24_N11xercesc_3_117AbstractDOMParser12endIntSubsetEv
libxerces-c-3.1.so:_ZThn24_N11xercesc_3_117AbstractDOMParser12notationDeclERKNS_15XMLNotationDeclEb
libxerces-c-3.1.so:_ZThn24_N11xercesc_3_117AbstractDOMParser12resetDocTypeEv
libxerces-c-3.1.so:_ZThn24_N11xercesc_3_117AbstractDOMParser12startAttListERKNS_14DTDElementDeclE
libxerces-c-3.1.so:_ZThn24_N11xercesc_3_117AbstractDOMParser14doctypeCommentEPKt
libxerces-c-3.1.so:_ZThn24_N11xercesc_3_117AbstractDOMParser14startExtSubsetEv
libxerces-c-3.1.so:_ZThn24_N11xercesc_3_117AbstractDOMParser14startIntSubsetEv
libxerces-c-3.1.so:_ZThn24_N11xercesc_3_117AbstractDOMParser17doctypeWhitespaceEPKtm
libxerces-c-3.1.so:_ZThn24_N11xercesc_3_117AbstractDOMParser6attDefERKNS_14DTDElementDeclERKNS_9DTDAttDefEb
libxerces-c-3.1.so:_ZThn24_N11xercesc_3_117AbstractDOMParser8TextDeclEPKtS2_
libxerces-c-3.1.so:_ZThn24_N11xercesc_3_117AbstractDOMParser9doctypePIEPKtS2_
libxerces-c-3.1.so:_ZThn24_N11xercesc_3_117AbstractDOMParserD0Ev
libxerces-c-3.1.so:_ZThn24_N11xercesc_3_117AbstractDOMParserD1Ev
libxerces-c-3.1.so:_ZThn24_N11xercesc_3_117SAX2XMLFilterImpl10charactersEPKtm
libxerces-c-3.1.so:_ZThn24_N11xercesc_3_117SAX2XMLFilterImpl10endElementEPKtS2_S2_
libxerces-c-3.1.so:_ZThn24_N11xercesc_3_117SAX2XMLFilterImpl11endDocumentEv
libxerces-c-3.1.so:_ZThn24_N11xercesc_3_117SAX2XMLFilterImpl12startElementEPKtS2_S2_RKNS_10AttributesE
libxerces-c-3.1.so:_ZThn24_N11xercesc_3_117SAX2XMLFilterImpl13skippedEntityEPKt
libxerces-c-3.1.so:_ZThn24_N11xercesc_3_117SAX2XMLFilterImpl13startDocumentEv
libxerces-c-3.1.so:_ZThn24_N11xercesc_3_117SAX2XMLFilterImpl16endPrefixMappingEPKt
libxerces-c-3.1.so:_ZThn24_N11xercesc_3_117SAX2XMLFilterImpl18setDocumentLocatorEPKNS_7LocatorE
libxerces-c-3.1.so:_ZThn24_N11xercesc_3_117SAX2XMLFilterImpl18startPrefixMappingEPKtS2_
libxerces-c-3.1.so:_ZThn24_N11xercesc_3_117SAX2XMLFilterImpl19ignorableWhitespaceEPKtm
libxerces-c-3.1.so:_ZThn24_N11xercesc_3_117SAX2XMLFilterImpl21processingInstructionEPKtS2_
libxerces-c-3.1.so:_ZThn24_N11xercesc_3_117SAX2XMLFilterImplD0Ev
libxerces-c-3.1.so:_ZThn24_N11xercesc_3_117SAX2XMLFilterImplD1Ev
libxerces-c-3.1.so:_ZThn24_N11xercesc_3_117SAX2XMLReaderImpl13resetEntitiesEv
libxerces-c-3.1.so:_ZThn24_N11xercesc_3_117SAX2XMLReaderImpl13resolveEntityEPNS_21XMLResourceIdentifierE
libxerces-c-3.1.so:_ZThn24_N11xercesc_3_117SAX2XMLReaderImpl14endInputSourceERKNS_11InputSourceE
libxerces-c-3.1.so:_ZThn24_N11xercesc_3_117SAX2XMLReaderImpl14expandSystemIdEPKtRNS_9XMLBufferE
libxerces-c-3.1.so:_ZThn24_N11xercesc_3_117SAX2XMLReaderImpl16startInputSourceERKNS_11InputSourceE
libxerces-c-3.1.so:_ZThn24_N11xercesc_3_117SAX2XMLReaderImplD0Ev
libxerces-c-3.1.so:_ZThn24_N11xercesc_3_117SAX2XMLReaderImplD1Ev
libxerces-c-3.1.so:_ZThn24_N11xercesc_3_19SAXParser13resetEntitiesEv
libxerces-c-3.1.so:_ZThn24_N11xercesc_3_19SAXParser13resolveEntityEPNS_21XMLResourceIdentifierE
libxerces-c-3.1.so:_ZThn24_N11xercesc_3_19SAXParser14endInputSourceERKNS_11InputSourceE
libxerces-c-3.1.so:_ZThn24_N11xercesc_3_19SAXParser14expandSystemIdEPKtRNS_9XMLBufferE
libxerces-c-3.1.so:_ZThn24_N11xercesc_3_19SAXParser16startInputSourceERKNS_11InputSourceE
libxerces-c-3.1.so:_ZThn24_N11xercesc_3_19SAXParserD0Ev
libxerces-c-3.1.so:_ZThn24_N11xercesc_3_19SAXParserD1Ev
libxerces-c-3.1.so:_ZThn32_N11xercesc_3_112XSDDOMParserD0Ev
libxerces-c-3.1.so:_ZThn32_N11xercesc_3_112XSDDOMParserD1Ev
libxerces-c-3.1.so:_ZThn32_N11xercesc_3_115DOMDocumentImpl11appendChildEPNS_7DOMNodeE
libxerces-c-3.1.so:_ZThn32_N11xercesc_3_115DOMDocumentImpl11removeChildEPNS_7DOMNodeE
libxerces-c-3.1.so:_ZThn32_N11xercesc_3_115DOMDocumentImpl11setUserDataEPKtPvPNS_18DOMUserDataHandlerE
libxerces-c-3.1.so:_ZThn32_N11xercesc_3_115DOMDocumentImpl12insertBeforeEPNS_7DOMNodeES2_
libxerces-c-3.1.so:_ZThn32_N11xercesc_3_115DOMDocumentImpl12replaceChildEPNS_7DOMNodeES2_
libxerces-c-3.1.so:_ZThn32_N11xercesc_3_115DOMDocumentImpl12setNodeValueEPKt
libxerces-c-3.1.so:_ZThn32_N11xercesc_3_115DOMDocumentImpl14setTextContentEPKt
libxerces-c-3.1.so:_ZThn32_N11xercesc_3_115DOMDocumentImpl7releaseEv
libxerces-c-3.1.so:_ZThn32_N11xercesc_3_115DOMDocumentImpl9normalizeEv
libxerces-c-3.1.so:_ZThn32_N11xercesc_3_115DOMDocumentImpl9setPrefixEPKt
libxerces-c-3.1.so:_ZThn32_N11xercesc_3_115DOMDocumentImplD0Ev
libxerces-c-3.1.so:_ZThn32_N11xercesc_3_115DOMDocumentImplD1Ev
libxerces-c-3.1.so:_ZThn32_N11xercesc_3_115DOMLSParserImplD0Ev
libxerces-c-3.1.so:_ZThn32_N11xercesc_3_115DOMLSParserImplD1Ev
libxerces-c-3.1.so:_ZThn32_N11xercesc_3_115XercesDOMParserD0Ev
libxerces-c-3.1.so:_ZThn32_N11xercesc_3_115XercesDOMParserD1Ev
libxerces-c-3.1.so:_ZThn32_N11xercesc_3_117AbstractDOMParser17handleElementPSVIEPKtS2_PNS_11PSVIElementE
libxerces-c-3.1.so:_ZThn32_N11xercesc_3_117AbstractDOMParser20handleAttributesPSVIEPKtS2_PNS_17PSVIAttributeListE
libxerces-c-3.1.so:_ZThn32_N11xercesc_3_117AbstractDOMParser24handlePartialElementPSVIEPKtS2_PNS_11PSVIElementE
libxerces-c-3.1.so:_ZThn32_N11xercesc_3_117AbstractDOMParserD0Ev
libxerces-c-3.1.so:_ZThn32_N11xercesc_3_117AbstractDOMParserD1Ev
libxerces-c-3.1.so:_ZThn32_N11xercesc_3_117SAX2XMLFilterImpl10fatalErrorERKNS_17SAXParseExceptionE
libxerces-c-3.1.so:_ZThn32_N11xercesc_3_117SAX2XMLFilterImpl11resetErrorsEv
libxerces-c-3.1.so:_ZThn32_N11xercesc_3_117SAX2XMLFilterImpl5errorERKNS_17SAXParseExceptionE
libxerces-c-3.1.so:_ZThn32_N11xercesc_3_117SAX2XMLFilterImpl7warningERKNS_17SAXParseExceptionE
libxerces-c-3.1.so:_ZThn32_N11xercesc_3_117SAX2XMLFilterImplD0Ev
libxerces-c-3.1.so:_ZThn32_N11xercesc_3_117SAX2XMLFilterImplD1Ev
libxerces-c-3.1.so:_ZThn32_N11xercesc_3_117SAX2XMLReaderImpl10endAttListERKNS_14DTDElementDeclE
libxerces-c-3.1.so:_ZThn32_N11xercesc_3_117SAX2XMLReaderImpl10entityDeclERKNS_13DTDEntityDeclEbb
libxerces-c-3.1.so:_ZThn32_N11xercesc_3_117SAX2XMLReaderImpl11doctypeDeclERKNS_14DTDElementDeclEPKtS5_bb
libxerces-c-3.1.so:_ZThn32_N11xercesc_3_117SAX2XMLReaderImpl11elementDeclERKNS_14DTDElementDeclEb
libxerces-c-3.1.so:_ZThn32_N11xercesc_3_117SAX2XMLReaderImpl12endExtSubsetEv
libxerces-c-3.1.so:_ZThn32_N11xercesc_3_117SAX2XMLReaderImpl12endIntSubsetEv
libxerces-c-3.1.so:_ZThn32_N11xercesc_3_117SAX2XMLReaderImpl12notationDeclERKNS_15XMLNotationDeclEb
libxerces-c-3.1.so:_ZThn32_N11xercesc_3_117SAX2XMLReaderImpl12resetDocTypeEv
libxerces-c-3.1.so:_ZThn32_N11xercesc_3_117SAX2XMLReaderImpl12startAttListERKNS_14DTDElementDeclE
libxerces-c-3.1.so:_ZThn32_N11xercesc_3_117SAX2XMLReaderImpl14doctypeCommentEPKt
libxerces-c-3.1.so:_ZThn32_N11xercesc_3_117SAX2XMLReaderImpl14startExtSubsetEv
libxerces-c-3.1.so:_ZThn32_N11xercesc_3_117SAX2XMLReaderImpl14startIntSubsetEv
libxerces-c-3.1.so:_ZThn32_N11xercesc_3_117SAX2XMLReaderImpl17doctypeWhitespaceEPKtm
libxerces-c-3.1.so:_ZThn32_N11xercesc_3_117SAX2XMLReaderImpl6attDefERKNS_14DTDElementDeclERKNS_9DTDAttDefEb
libxerces-c-3.1.so:_ZThn32_N11xercesc_3_117SAX2XMLReaderImpl8TextDeclEPKtS2_
libxerces-c-3.1.so:_ZThn32_N11xercesc_3_117SAX2XMLReaderImpl9doctypePIEPKtS2_
libxerces-c-3.1.so:_ZThn32_N11xercesc_3_117SAX2XMLReaderImplD0Ev
libxerces-c-3.1.so:_ZThn32_N11xercesc_3_117SAX2XMLReaderImplD1Ev
libxerces-c-3.1.so:_ZThn32_N11xercesc_3_118IconvGNUTranscoderD0Ev
libxerces-c-3.1.so:_ZThn32_N11xercesc_3_118IconvGNUTranscoderD1Ev
libxerces-c-3.1.so:_ZThn32_N11xercesc_3_19SAXParser10endAttListERKNS_14DTDElementDeclE
libxerces-c-3.1.so:_ZThn32_N11xercesc_3_19SAXParser10entityDeclERKNS_13DTDEntityDeclEbb
libxerces-c-3.1.so:_ZThn32_N11xercesc_3_19SAXParser11doctypeDeclERKNS_14DTDElementDeclEPKtS5_bb
libxerces-c-3.1.so:_ZThn32_N11xercesc_3_19SAXParser11elementDeclERKNS_14DTDElementDeclEb
libxerces-c-3.1.so:_ZThn32_N11xercesc_3_19SAXParser12endExtSubsetEv
libxerces-c-3.1.so:_ZThn32_N11xercesc_3_19SAXParser12endIntSubsetEv
libxerces-c-3.1.so:_ZThn32_N11xercesc_3_19SAXParser12notationDeclERKNS_15XMLNotationDeclEb
libxerces-c-3.1.so:_ZThn32_N11xercesc_3_19SAXParser12resetDocTypeEv
libxerces-c-3.1.so:_ZThn32_N11xercesc_3_19SAXParser12startAttListERKNS_14DTDElementDeclE
libxerces-c-3.1.so:_ZThn32_N11xercesc_3_19SAXParser14doctypeCommentEPKt
libxerces-c-3.1.so:_ZThn32_N11xercesc_3_19SAXParser14startExtSubsetEv
libxerces-c-3.1.so:_ZThn32_N11xercesc_3_19SAXParser14startIntSubsetEv
libxerces-c-3.1.so:_ZThn32_N11xercesc_3_19SAXParser17doctypeWhitespaceEPKtm
libxerces-c-3.1.so:_ZThn32_N11xercesc_3_19SAXParser6attDefERKNS_14DTDElementDeclERKNS_9DTDAttDefEb
libxerces-c-3.1.so:_ZThn32_N11xercesc_3_19SAXParser8TextDeclEPKtS2_
libxerces-c-3.1.so:_ZThn32_N11xercesc_3_19SAXParser9doctypePIEPKtS2_
libxerces-c-3.1.so:_ZThn32_N11xercesc_3_19SAXParserD0Ev
libxerces-c-3.1.so:_ZThn32_N11xercesc_3_19SAXParserD1Ev
libxerces-c-3.1.so:_ZThn32_NK11xercesc_3_115DOMDocumentImpl10getBaseURIEv
libxerces-c-3.1.so:_ZThn32_NK11xercesc_3_115DOMDocumentImpl10getFeatureEPKtS2_
libxerces-c-3.1.so:_ZThn32_NK11xercesc_3_115DOMDocumentImpl10isSameNodeEPKNS_7DOMNodeE
libxerces-c-3.1.so:_ZThn32_NK11xercesc_3_115DOMDocumentImpl11getNodeNameEv
libxerces-c-3.1.so:_ZThn32_NK11xercesc_3_115DOMDocumentImpl11getNodeTypeEv
libxerces-c-3.1.so:_ZThn32_NK11xercesc_3_115DOMDocumentImpl11getUserDataEPKt
libxerces-c-3.1.so:_ZThn32_NK11xercesc_3_115DOMDocumentImpl11isEqualNodeEPKNS_7DOMNodeE
libxerces-c-3.1.so:_ZThn32_NK11xercesc_3_115DOMDocumentImpl11isSupportedEPKtS2_
libxerces-c-3.1.so:_ZThn32_NK11xercesc_3_115DOMDocumentImpl12getLastChildEv
libxerces-c-3.1.so:_ZThn32_NK11xercesc_3_115DOMDocumentImpl12getLocalNameEv
libxerces-c-3.1.so:_ZThn32_NK11xercesc_3_115DOMDocumentImpl12getNodeValueEv
libxerces-c-3.1.so:_ZThn32_NK11xercesc_3_115DOMDocumentImpl12lookupPrefixEPKt
libxerces-c-3.1.so:_ZThn32_NK11xercesc_3_115DOMDocumentImpl13getAttributesEv
libxerces-c-3.1.so:_ZThn32_NK11xercesc_3_115DOMDocumentImpl13getChildNodesEv
libxerces-c-3.1.so:_ZThn32_NK11xercesc_3_115DOMDocumentImpl13getFirstChildEv
libxerces-c-3.1.so:_ZThn32_NK11xercesc_3_115DOMDocumentImpl13getParentNodeEv
libxerces-c-3.1.so:_ZThn32_NK11xercesc_3_115DOMDocumentImpl13hasAttributesEv
libxerces-c-3.1.so:_ZThn32_NK11xercesc_3_115DOMDocumentImpl13hasChildNodesEv
libxerces-c-3.1.so:_ZThn32_NK11xercesc_3_115DOMDocumentImpl14getNextSiblingEv
libxerces-c-3.1.so:_ZThn32_NK11xercesc_3_115DOMDocumentImpl14getTextContentEv
libxerces-c-3.1.so:_ZThn32_NK11xercesc_3_115DOMDocumentImpl15getNamespaceURIEv
libxerces-c-3.1.so:_ZThn32_NK11xercesc_3_115DOMDocumentImpl16getOwnerDocumentEv
libxerces-c-3.1.so:_ZThn32_NK11xercesc_3_115DOMDocumentImpl18getPreviousSiblingEv
libxerces-c-3.1.so:_ZThn32_NK11xercesc_3_115DOMDocumentImpl18isDefaultNamespaceEPKt
libxerces-c-3.1.so:_ZThn32_NK11xercesc_3_115DOMDocumentImpl18lookupNamespaceURIEPKt
libxerces-c-3.1.so:_ZThn32_NK11xercesc_3_115DOMDocumentImpl23compareDocumentPositionEPKNS_7DOMNodeE
libxerces-c-3.1.so:_ZThn32_NK11xercesc_3_115DOMDocumentImpl9cloneNodeEb
libxerces-c-3.1.so:_ZThn32_NK11xercesc_3_115DOMDocumentImpl9getPrefixEv
libxerces-c-3.1.so:_ZThn8_N11xercesc_3_112XSAnnotationD0Ev
libxerces-c-3.1.so:_ZThn8_N11xercesc_3_112XSAnnotationD1Ev
libxerces-c-3.1.so:_ZThn8_N11xercesc_3_112XSDDOMParser5errorEjPKtNS_16XMLErrorReporter8ErrTypesES2_S2_S2_mm
libxerces-c-3.1.so:_ZThn8_N11xercesc_3_112XSDDOMParserD0Ev
libxerces-c-3.1.so:_ZThn8_N11xercesc_3_112XSDDOMParserD1Ev
libxerces-c-3.1.so:_ZThn8_N11xercesc_3_115DOMDocumentImpl10importNodeEPKNS_7DOMNodeEb
libxerces-c-3.1.so:_ZThn8_N11xercesc_3_115DOMDocumentImpl10renameNodeEPNS_7DOMNodeEPKtS4_
libxerces-c-3.1.so:_ZThn8_N11xercesc_3_115DOMDocumentImpl11createRangeEv
libxerces-c-3.1.so:_ZThn8_N11xercesc_3_115DOMDocumentImpl12createEntityEPKt
libxerces-c-3.1.so:_ZThn8_N11xercesc_3_115DOMDocumentImpl13createCommentEPKt
libxerces-c-3.1.so:_ZThn8_N11xercesc_3_115DOMDocumentImpl13createElementEPKt
libxerces-c-3.1.so:_ZThn8_N11xercesc_3_115DOMDocumentImpl13setXmlVersionEPKt
libxerces-c-3.1.so:_ZThn8_N11xercesc_3_115DOMDocumentImpl14createNotationEPKt
libxerces-c-3.1.so:_ZThn8_N11xercesc_3_115DOMDocumentImpl14createTextNodeEPKt
libxerces-c-3.1.so:_ZThn8_N11xercesc_3_115DOMDocumentImpl14setDocumentURIEPKt
libxerces-c-3.1.so:_ZThn8_N11xercesc_3_115DOMDocumentImpl15createAttributeEPKt
libxerces-c-3.1.so:_ZThn8_N11xercesc_3_115DOMDocumentImpl15createElementNSEPKtS2_
libxerces-c-3.1.so:_ZThn8_N11xercesc_3_115DOMDocumentImpl15createElementNSEPKtS2_mm
libxerces-c-3.1.so:_ZThn8_N11xercesc_3_115DOMDocumentImpl16setXmlStandaloneEb
libxerces-c-3.1.so:_ZThn8_N11xercesc_3_115DOMDocumentImpl17createAttributeNSEPKtS2_
libxerces-c-3.1.so:_ZThn8_N11xercesc_3_115DOMDocumentImpl17normalizeDocumentEv
libxerces-c-3.1.so:_ZThn8_N11xercesc_3_115DOMDocumentImpl18createCDATASectionEPKt
libxerces-c-3.1.so:_ZThn8_N11xercesc_3_115DOMDocumentImpl18createDocumentTypeEPKt
libxerces-c-3.1.so:_ZThn8_N11xercesc_3_115DOMDocumentImpl18createDocumentTypeEPKtS2_S2_
libxerces-c-3.1.so:_ZThn8_N11xercesc_3_115DOMDocumentImpl21createEntityReferenceEPKt
libxerces-c-3.1.so:_ZThn8_N11xercesc_3_115DOMDocumentImpl22createDocumentFragmentEv
libxerces-c-3.1.so:_ZThn8_N11xercesc_3_115DOMDocumentImpl22setStrictErrorCheckingEb
libxerces-c-3.1.so:_ZThn8_N11xercesc_3_115DOMDocumentImpl27createProcessingInstructionEPKtS2_
libxerces-c-3.1.so:_ZThn8_N11xercesc_3_115DOMDocumentImpl9adoptNodeEPNS_7DOMNodeE
libxerces-c-3.1.so:_ZThn8_N11xercesc_3_115DOMDocumentImplD0Ev
libxerces-c-3.1.so:_ZThn8_N11xercesc_3_115DOMDocumentImplD1Ev
libxerces-c-3.1.so:_ZThn8_N11xercesc_3_115DOMLSParserImpl11resetErrorsEv
libxerces-c-3.1.so:_ZThn8_N11xercesc_3_115DOMLSParserImpl5errorEjPKtNS_16XMLErrorReporter8ErrTypesES2_S2_S2_mm
libxerces-c-3.1.so:_ZThn8_N11xercesc_3_115DOMLSParserImplD0Ev
libxerces-c-3.1.so:_ZThn8_N11xercesc_3_115DOMLSParserImplD1Ev
libxerces-c-3.1.so:_ZThn8_N11xercesc_3_115XercesDOMParser11resetErrorsEv
libxerces-c-3.1.so:_ZThn8_N11xercesc_3_115XercesDOMParser5errorEjPKtNS_16XMLErrorReporter8ErrTypesES2_S2_S2_mm
libxerces-c-3.1.so:_ZThn8_N11xercesc_3_115XercesDOMParserD0Ev
libxerces-c-3.1.so:_ZThn8_N11xercesc_3_115XercesDOMParserD1Ev
libxerces-c-3.1.so:_ZThn8_N11xercesc_3_117AbstractDOMParserD0Ev
libxerces-c-3.1.so:_ZThn8_N11xercesc_3_117AbstractDOMParserD1Ev
libxerces-c-3.1.so:_ZThn8_N11xercesc_3_117SAX2XMLFilterImpl13resolveEntityEPKtS2_
libxerces-c-3.1.so:_ZThn8_N11xercesc_3_117SAX2XMLFilterImplD0Ev
libxerces-c-3.1.so:_ZThn8_N11xercesc_3_117SAX2XMLFilterImplD1Ev
libxerces-c-3.1.so:_ZThn8_N11xercesc_3_117SAX2XMLReaderImpl10docCommentEPKt
libxerces-c-3.1.so:_ZThn8_N11xercesc_3_117SAX2XMLReaderImpl10endElementERKNS_14XMLElementDeclEjbPKt
libxerces-c-3.1.so:_ZThn8_N11xercesc_3_117SAX2XMLReaderImpl11endDocumentEv
libxerces-c-3.1.so:_ZThn8_N11xercesc_3_117SAX2XMLReaderImpl12startElementERKNS_14XMLElementDeclEjPKtRKNS_11RefVectorOfINS_7XMLAttrEEEmbb
libxerces-c-3.1.so:_ZThn8_N11xercesc_3_117SAX2XMLReaderImpl13docCharactersEPKtmb
libxerces-c-3.1.so:_ZThn8_N11xercesc_3_117SAX2XMLReaderImpl13resetDocumentEv
libxerces-c-3.1.so:_ZThn8_N11xercesc_3_117SAX2XMLReaderImpl13startDocumentEv
libxerces-c-3.1.so:_ZThn8_N11xercesc_3_117SAX2XMLReaderImpl18endEntityReferenceERKNS_13XMLEntityDeclE
libxerces-c-3.1.so:_ZThn8_N11xercesc_3_117SAX2XMLReaderImpl19ignorableWhitespaceEPKtmb
libxerces-c-3.1.so:_ZThn8_N11xercesc_3_117SAX2XMLReaderImpl20startEntityReferenceERKNS_13XMLEntityDeclE
libxerces-c-3.1.so:_ZThn8_N11xercesc_3_117SAX2XMLReaderImpl5docPIEPKtS2_
libxerces-c-3.1.so:_ZThn8_N11xercesc_3_117SAX2XMLReaderImpl7XMLDeclEPKtS2_S2_S2_
libxerces-c-3.1.so:_ZThn8_N11xercesc_3_117SAX2XMLReaderImplD0Ev
libxerces-c-3.1.so:_ZThn8_N11xercesc_3_117SAX2XMLReaderImplD1Ev
libxerces-c-3.1.so:_ZThn8_N11xercesc_3_119DOMLSSerializerImpl12setParameterEPKtPKv
libxerces-c-3.1.so:_ZThn8_N11xercesc_3_119DOMLSSerializerImpl12setParameterEPKtb
libxerces-c-3.1.so:_ZThn8_N11xercesc_3_119DOMLSSerializerImplD0Ev
libxerces-c-3.1.so:_ZThn8_N11xercesc_3_119DOMLSSerializerImplD1Ev
libxerces-c-3.1.so:_ZThn8_N11xercesc_3_120IconvGNUTransServiceD0Ev
libxerces-c-3.1.so:_ZThn8_N11xercesc_3_120IconvGNUTransServiceD1Ev
libxerces-c-3.1.so:_ZThn8_N11xercesc_3_121IconvGNULCPTranscoderD0Ev
libxerces-c-3.1.so:_ZThn8_N11xercesc_3_121IconvGNULCPTranscoderD1Ev
libxerces-c-3.1.so:_ZThn8_N11xercesc_3_19SAXParser10docCommentEPKt
libxerces-c-3.1.so:_ZThn8_N11xercesc_3_19SAXParser10endElementERKNS_14XMLElementDeclEjbPKt
libxerces-c-3.1.so:_ZThn8_N11xercesc_3_19SAXParser11endDocumentEv
libxerces-c-3.1.so:_ZThn8_N11xercesc_3_19SAXParser12startElementERKNS_14XMLElementDeclEjPKtRKNS_11RefVectorOfINS_7XMLAttrEEEmbb
libxerces-c-3.1.so:_ZThn8_N11xercesc_3_19SAXParser13docCharactersEPKtmb
libxerces-c-3.1.so:_ZThn8_N11xercesc_3_19SAXParser13resetDocumentEv
libxerces-c-3.1.so:_ZThn8_N11xercesc_3_19SAXParser13startDocumentEv
libxerces-c-3.1.so:_ZThn8_N11xercesc_3_19SAXParser18endEntityReferenceERKNS_13XMLEntityDeclE
libxerces-c-3.1.so:_ZThn8_N11xercesc_3_19SAXParser19ignorableWhitespaceEPKtmb
libxerces-c-3.1.so:_ZThn8_N11xercesc_3_19SAXParser20startEntityReferenceERKNS_13XMLEntityDeclE
libxerces-c-3.1.so:_ZThn8_N11xercesc_3_19SAXParser5docPIEPKtS2_
libxerces-c-3.1.so:_ZThn8_N11xercesc_3_19SAXParser7XMLDeclEPKtS2_S2_S2_
libxerces-c-3.1.so:_ZThn8_N11xercesc_3_19SAXParserD0Ev
libxerces-c-3.1.so:_ZThn8_N11xercesc_3_19SAXParserD1Ev
libxerces-c-3.1.so:_ZThn8_NK11xercesc_3_115DOMDocumentImpl10getDoctypeEv
libxerces-c-3.1.so:_ZThn8_NK11xercesc_3_115DOMDocumentImpl12getDOMConfigEv
libxerces-c-3.1.so:_ZThn8_NK11xercesc_3_115DOMDocumentImpl13getXmlVersionEv
libxerces-c-3.1.so:_ZThn8_NK11xercesc_3_115DOMDocumentImpl14getDocumentURIEv
libxerces-c-3.1.so:_ZThn8_NK11xercesc_3_115DOMDocumentImpl14getElementByIdEPKt
libxerces-c-3.1.so:_ZThn8_NK11xercesc_3_115DOMDocumentImpl14getXmlEncodingEv
libxerces-c-3.1.so:_ZThn8_NK11xercesc_3_115DOMDocumentImpl16getInputEncodingEv
libxerces-c-3.1.so:_ZThn8_NK11xercesc_3_115DOMDocumentImpl16getXmlStandaloneEv
libxerces-c-3.1.so:_ZThn8_NK11xercesc_3_115DOMDocumentImpl17getImplementationEv
libxerces-c-3.1.so:_ZThn8_NK11xercesc_3_115DOMDocumentImpl18getDocumentElementEv
libxerces-c-3.1.so:_ZThn8_NK11xercesc_3_115DOMDocumentImpl20getElementsByTagNameEPKt
libxerces-c-3.1.so:_ZThn8_NK11xercesc_3_115DOMDocumentImpl22getElementsByTagNameNSEPKtS2_
libxerces-c-3.1.so:_ZThn8_NK11xercesc_3_115DOMDocumentImpl22getStrictErrorCheckingEv
libxerces-c-3.1.so:_ZThn8_NK11xercesc_3_115DOMTypeInfoImpl17getStringPropertyENS_15DOMPSVITypeInfo12PSVIPropertyE
libxerces-c-3.1.so:_ZThn8_NK11xercesc_3_115DOMTypeInfoImpl18getNumericPropertyENS_15DOMPSVITypeInfo12PSVIPropertyE
libxerces-c-3.1.so:_ZThn8_NK11xercesc_3_119DOMLSSerializerImpl12getParameterEPKt
libxerces-c-3.1.so:_ZThn8_NK11xercesc_3_119DOMLSSerializerImpl15canSetParameterEPKtPKv
libxerces-c-3.1.so:_ZThn8_NK11xercesc_3_119DOMLSSerializerImpl15canSetParameterEPKtb
libxerces-c-3.1.so:_ZThn8_NK11xercesc_3_119DOMLSSerializerImpl17getParameterNamesEv
libxerces-c-3.1.so:_ZThn8_NK11xercesc_3_121DOMImplementationImpl20getDOMImplementationEPKt
libxerces-c-3.1.so:_ZThn8_NK11xercesc_3_121DOMImplementationImpl24getDOMImplementationListEPKt
libxerces-c-3.1.so:stricmp
libxerces-c-3.1.so:strnicmp
