libKUserFeedbackCore.so.1:_ZN13KUserFeedback10SurveyInfo6setUrlERK4QUrl
libKUserFeedbackCore.so.1:_ZN13KUserFeedback10SurveyInfo7setUuidERK5QUuid
libKUserFeedbackCore.so.1:_ZN13KUserFeedback10SurveyInfo8fromJsonERK11QJsonObject
libKUserFeedbackCore.so.1:_ZN13KUserFeedback10SurveyInfo9setTargetERK7QString
libKUserFeedbackCore.so.1:_ZN13KUserFeedback10SurveyInfoC1ERKS0_
libKUserFeedbackCore.so.1:_ZN13KUserFeedback10SurveyInfoC1Ev
libKUserFeedbackCore.so.1:_ZN13KUserFeedback10SurveyInfoC2ERKS0_
libKUserFeedbackCore.so.1:_ZN13KUserFeedback10SurveyInfoC2Ev
libKUserFeedbackCore.so.1:_ZN13KUserFeedback10SurveyInfoD1Ev
libKUserFeedbackCore.so.1:_ZN13KUserFeedback10SurveyInfoD2Ev
libKUserFeedbackCore.so.1:_ZN13KUserFeedback10SurveyInfoaSERKS0_
libKUserFeedbackCore.so.1:_ZN13KUserFeedback13CpuInfoSource4dataEv
libKUserFeedbackCore.so.1:_ZN13KUserFeedback13CpuInfoSourceC1Ev
libKUserFeedbackCore.so.1:_ZN13KUserFeedback13CpuInfoSourceC2Ev
libKUserFeedbackCore.so.1:_ZN13KUserFeedback13QPAInfoSource4dataEv
libKUserFeedbackCore.so.1:_ZN13KUserFeedback13QPAInfoSourceC1Ev
libKUserFeedbackCore.so.1:_ZN13KUserFeedback13QPAInfoSourceC2Ev
libKUserFeedbackCore.so.1:_ZN13KUserFeedback15QtVersionSource4dataEv
libKUserFeedbackCore.so.1:_ZN13KUserFeedback15QtVersionSourceC1Ev
libKUserFeedbackCore.so.1:_ZN13KUserFeedback15QtVersionSourceC2Ev
libKUserFeedbackCore.so.1:_ZN13KUserFeedback15UsageTimeSource11setProviderEPNS_15ProviderPrivateE
libKUserFeedbackCore.so.1:_ZN13KUserFeedback15UsageTimeSource4dataEv
libKUserFeedbackCore.so.1:_ZN13KUserFeedback15UsageTimeSourceC1Ev
libKUserFeedbackCore.so.1:_ZN13KUserFeedback15UsageTimeSourceC2Ev
libKUserFeedbackCore.so.1:_ZN13KUserFeedback16LocaleInfoSource4dataEv
libKUserFeedbackCore.so.1:_ZN13KUserFeedback16LocaleInfoSourceC1Ev
libKUserFeedbackCore.so.1:_ZN13KUserFeedback16LocaleInfoSourceC2Ev
libKUserFeedbackCore.so.1:_ZN13KUserFeedback16OpenGLInfoSource4dataEv
libKUserFeedbackCore.so.1:_ZN13KUserFeedback16OpenGLInfoSourceC1Ev
libKUserFeedbackCore.so.1:_ZN13KUserFeedback16OpenGLInfoSourceC2Ev
libKUserFeedbackCore.so.1:_ZN13KUserFeedback16ScreenInfoSource4dataEv
libKUserFeedbackCore.so.1:_ZN13KUserFeedback16ScreenInfoSourceC1Ev
libKUserFeedbackCore.so.1:_ZN13KUserFeedback16ScreenInfoSourceC2Ev
libKUserFeedbackCore.so.1:_ZN13KUserFeedback16StartCountSource11setProviderEPNS_15ProviderPrivateE
libKUserFeedbackCore.so.1:_ZN13KUserFeedback16StartCountSource4dataEv
libKUserFeedbackCore.so.1:_ZN13KUserFeedback16StartCountSourceC1Ev
libKUserFeedbackCore.so.1:_ZN13KUserFeedback16StartCountSourceC2Ev
libKUserFeedbackCore.so.1:_ZN13KUserFeedback18AbstractDataSource16setTelemetryModeENS_8Provider13TelemetryModeE
libKUserFeedbackCore.so.1:_ZN13KUserFeedback18AbstractDataSource4loadEP9QSettings
libKUserFeedbackCore.so.1:_ZN13KUserFeedback18AbstractDataSource5resetEP9QSettings
libKUserFeedbackCore.so.1:_ZN13KUserFeedback18AbstractDataSource5setIdERK7QString
libKUserFeedbackCore.so.1:_ZN13KUserFeedback18AbstractDataSource5storeEP9QSettings
libKUserFeedbackCore.so.1:_ZN13KUserFeedback18AbstractDataSource8loadImplEP9QSettings
libKUserFeedbackCore.so.1:_ZN13KUserFeedback18AbstractDataSource9resetImplEP9QSettings
libKUserFeedbackCore.so.1:_ZN13KUserFeedback18AbstractDataSource9setActiveEb
libKUserFeedbackCore.so.1:_ZN13KUserFeedback18AbstractDataSource9storeImplEP9QSettings
libKUserFeedbackCore.so.1:_ZN13KUserFeedback18AbstractDataSourceC1ERK7QStringNS_8Provider13TelemetryModeE
libKUserFeedbackCore.so.1:_ZN13KUserFeedback18AbstractDataSourceC1ERK7QStringNS_8Provider13TelemetryModeEPNS_25AbstractDataSourcePrivateE
libKUserFeedbackCore.so.1:_ZN13KUserFeedback18AbstractDataSourceC2ERK7QStringNS_8Provider13TelemetryModeE
libKUserFeedbackCore.so.1:_ZN13KUserFeedback18AbstractDataSourceC2ERK7QStringNS_8Provider13TelemetryModeEPNS_25AbstractDataSourcePrivateE
libKUserFeedbackCore.so.1:_ZN13KUserFeedback18AbstractDataSourceD0Ev
libKUserFeedbackCore.so.1:_ZN13KUserFeedback18AbstractDataSourceD1Ev
libKUserFeedbackCore.so.1:_ZN13KUserFeedback18AbstractDataSourceD2Ev
libKUserFeedbackCore.so.1:_ZN13KUserFeedback18CompilerInfoSource4dataEv
libKUserFeedbackCore.so.1:_ZN13KUserFeedback18CompilerInfoSourceC1Ev
libKUserFeedbackCore.so.1:_ZN13KUserFeedback18CompilerInfoSourceC2Ev
libKUserFeedbackCore.so.1:_ZN13KUserFeedback18PlatformInfoSource4dataEv
libKUserFeedbackCore.so.1:_ZN13KUserFeedback18PlatformInfoSourceC1Ev
libKUserFeedbackCore.so.1:_ZN13KUserFeedback18PlatformInfoSourceC2Ev
libKUserFeedbackCore.so.1:_ZN13KUserFeedback19PropertyRatioSource14setDescriptionERK7QString
libKUserFeedbackCore.so.1:_ZN13KUserFeedback19PropertyRatioSource15addValueMappingERK8QVariantRK7QString
libKUserFeedbackCore.so.1:_ZN13KUserFeedback19PropertyRatioSource15setPropertyNameERK7QString
libKUserFeedbackCore.so.1:_ZN13KUserFeedback19PropertyRatioSource4dataEv
libKUserFeedbackCore.so.1:_ZN13KUserFeedback19PropertyRatioSource7setNameERK7QString
libKUserFeedbackCore.so.1:_ZN13KUserFeedback19PropertyRatioSource8loadImplEP9QSettings
libKUserFeedbackCore.so.1:_ZN13KUserFeedback19PropertyRatioSource9resetImplEP9QSettings
libKUserFeedbackCore.so.1:_ZN13KUserFeedback19PropertyRatioSource9setObjectEP7QObject
libKUserFeedbackCore.so.1:_ZN13KUserFeedback19PropertyRatioSource9storeImplEP9QSettings
libKUserFeedbackCore.so.1:_ZN13KUserFeedback19PropertyRatioSourceC1EP7QObjectPKcRK7QString
libKUserFeedbackCore.so.1:_ZN13KUserFeedback19PropertyRatioSourceC2EP7QObjectPKcRK7QString
libKUserFeedbackCore.so.1:_ZN13KUserFeedback20AuditLogUiController11qt_metacallEN11QMetaObject4CallEiPPv
libKUserFeedbackCore.so.1:_ZN13KUserFeedback20AuditLogUiController11qt_metacastEPKc
libKUserFeedbackCore.so.1:_ZN13KUserFeedback20AuditLogUiController20logEntryCountChangedEv
libKUserFeedbackCore.so.1:_ZN13KUserFeedback20AuditLogUiController5clearEv
libKUserFeedbackCore.so.1:_ZN13KUserFeedback20AuditLogUiControllerC1EP7QObject
libKUserFeedbackCore.so.1:_ZN13KUserFeedback20AuditLogUiControllerC2EP7QObject
libKUserFeedbackCore.so.1:_ZN13KUserFeedback20AuditLogUiControllerD0Ev
libKUserFeedbackCore.so.1:_ZN13KUserFeedback20AuditLogUiControllerD1Ev
libKUserFeedbackCore.so.1:_ZN13KUserFeedback20AuditLogUiControllerD2Ev
libKUserFeedbackCore.so.1:_ZN13KUserFeedback20SelectionRatioSource14setDescriptionERK7QString
libKUserFeedbackCore.so.1:_ZN13KUserFeedback20SelectionRatioSource4dataEv
libKUserFeedbackCore.so.1:_ZN13KUserFeedback20SelectionRatioSource7setRoleEi
libKUserFeedbackCore.so.1:_ZN13KUserFeedback20SelectionRatioSource8loadImplEP9QSettings
libKUserFeedbackCore.so.1:_ZN13KUserFeedback20SelectionRatioSource9resetImplEP9QSettings
libKUserFeedbackCore.so.1:_ZN13KUserFeedback20SelectionRatioSource9storeImplEP9QSettings
libKUserFeedbackCore.so.1:_ZN13KUserFeedback20SelectionRatioSourceC1EP19QItemSelectionModelRK7QString
libKUserFeedbackCore.so.1:_ZN13KUserFeedback20SelectionRatioSourceC2EP19QItemSelectionModelRK7QString
libKUserFeedbackCore.so.1:_ZN13KUserFeedback24ApplicationVersionSource4dataEv
libKUserFeedbackCore.so.1:_ZN13KUserFeedback24ApplicationVersionSourceC1Ev
libKUserFeedbackCore.so.1:_ZN13KUserFeedback24ApplicationVersionSourceC2Ev
libKUserFeedbackCore.so.1:_ZN13KUserFeedback26FeedbackConfigUiController11qt_metacallEN11QMetaObject4CallEiPPv
libKUserFeedbackCore.so.1:_ZN13KUserFeedback26FeedbackConfigUiController11qt_metacastEPKc
libKUserFeedbackCore.so.1:_ZN13KUserFeedback26FeedbackConfigUiController15providerChangedEv
libKUserFeedbackCore.so.1:_ZN13KUserFeedback26FeedbackConfigUiController18setApplicationNameERK7QString
libKUserFeedbackCore.so.1:_ZN13KUserFeedback26FeedbackConfigUiController19setFeedbackProviderEPNS_8ProviderE
libKUserFeedbackCore.so.1:_ZN13KUserFeedback26FeedbackConfigUiController22applicationNameChangedERK7QString
libKUserFeedbackCore.so.1:_ZN13KUserFeedback26FeedbackConfigUiControllerC1EP7QObject
libKUserFeedbackCore.so.1:_ZN13KUserFeedback26FeedbackConfigUiControllerC2EP7QObject
libKUserFeedbackCore.so.1:_ZN13KUserFeedback26FeedbackConfigUiControllerD0Ev
libKUserFeedbackCore.so.1:_ZN13KUserFeedback26FeedbackConfigUiControllerD1Ev
libKUserFeedbackCore.so.1:_ZN13KUserFeedback26FeedbackConfigUiControllerD2Ev
libKUserFeedbackCore.so.1:_ZN13KUserFeedback8Provider10setEnabledEb
libKUserFeedbackCore.so.1:_ZN13KUserFeedback8Provider11qt_metacallEN11QMetaObject4CallEiPPv
libKUserFeedbackCore.so.1:_ZN13KUserFeedback8Provider11qt_metacastEPKc
libKUserFeedbackCore.so.1:_ZN13KUserFeedback8Provider13addDataSourceEPNS_18AbstractDataSourceE
libKUserFeedbackCore.so.1:_ZN13KUserFeedback8Provider14enabledChangedEv
libKUserFeedbackCore.so.1:_ZN13KUserFeedback8Provider15surveyAvailableERKNS_10SurveyInfoE
libKUserFeedbackCore.so.1:_ZN13KUserFeedback8Provider15surveyCompletedERKNS_10SurveyInfoE
libKUserFeedbackCore.so.1:_ZN13KUserFeedback8Provider16setTelemetryModeENS0_13TelemetryModeE
libKUserFeedbackCore.so.1:_ZN13KUserFeedback8Provider17setFeedbackServerERK4QUrl
libKUserFeedbackCore.so.1:_ZN13KUserFeedback8Provider17setSurveyIntervalEi
libKUserFeedbackCore.so.1:_ZN13KUserFeedback8Provider18dataSourcesChangedEv
libKUserFeedbackCore.so.1:_ZN13KUserFeedback8Provider20setProductIdentifierERK7QString
libKUserFeedbackCore.so.1:_ZN13KUserFeedback8Provider20telemetryModeChangedEv
libKUserFeedbackCore.so.1:_ZN13KUserFeedback8Provider21setEncouragementDelayEi
libKUserFeedbackCore.so.1:_ZN13KUserFeedback8Provider21setSubmissionIntervalEi
libKUserFeedbackCore.so.1:_ZN13KUserFeedback8Provider21surveyIntervalChangedEv
libKUserFeedbackCore.so.1:_ZN13KUserFeedback8Provider23providerSettingsChangedEv
libKUserFeedbackCore.so.1:_ZN13KUserFeedback8Provider24setEncouragementIntervalEi
libKUserFeedbackCore.so.1:_ZN13KUserFeedback8Provider24showEncouragementMessageEv
libKUserFeedbackCore.so.1:_ZN13KUserFeedback8Provider38setApplicationStartsUntilEncouragementEi
libKUserFeedbackCore.so.1:_ZN13KUserFeedback8Provider41setApplicationUsageTimeUntilEncouragementEi
libKUserFeedbackCore.so.1:_ZN13KUserFeedback8Provider4loadEv
libKUserFeedbackCore.so.1:_ZN13KUserFeedback8Provider5storeEv
libKUserFeedbackCore.so.1:_ZN13KUserFeedback8Provider6submitEv
libKUserFeedbackCore.so.1:_ZN13KUserFeedback8ProviderC1EP7QObject
libKUserFeedbackCore.so.1:_ZN13KUserFeedback8ProviderC2EP7QObject
libKUserFeedbackCore.so.1:_ZN13KUserFeedback8ProviderD0Ev
libKUserFeedbackCore.so.1:_ZN13KUserFeedback8ProviderD1Ev
libKUserFeedbackCore.so.1:_ZN13KUserFeedback8ProviderD2Ev
libKUserFeedbackCore.so.1:_ZNK13KUserFeedback10SurveyInfo3urlEv
libKUserFeedbackCore.so.1:_ZNK13KUserFeedback10SurveyInfo4uuidEv
libKUserFeedbackCore.so.1:_ZNK13KUserFeedback10SurveyInfo6targetEv
libKUserFeedbackCore.so.1:_ZNK13KUserFeedback10SurveyInfo7isValidEv
libKUserFeedbackCore.so.1:_ZNK13KUserFeedback13CpuInfoSource11descriptionEv
libKUserFeedbackCore.so.1:_ZNK13KUserFeedback13CpuInfoSource4nameEv
libKUserFeedbackCore.so.1:_ZNK13KUserFeedback13QPAInfoSource11descriptionEv
libKUserFeedbackCore.so.1:_ZNK13KUserFeedback13QPAInfoSource4nameEv
libKUserFeedbackCore.so.1:_ZNK13KUserFeedback15QtVersionSource11descriptionEv
libKUserFeedbackCore.so.1:_ZNK13KUserFeedback15QtVersionSource4nameEv
libKUserFeedbackCore.so.1:_ZNK13KUserFeedback15UsageTimeSource11descriptionEv
libKUserFeedbackCore.so.1:_ZNK13KUserFeedback15UsageTimeSource4nameEv
libKUserFeedbackCore.so.1:_ZNK13KUserFeedback16LocaleInfoSource11descriptionEv
libKUserFeedbackCore.so.1:_ZNK13KUserFeedback16LocaleInfoSource4nameEv
libKUserFeedbackCore.so.1:_ZNK13KUserFeedback16OpenGLInfoSource11descriptionEv
libKUserFeedbackCore.so.1:_ZNK13KUserFeedback16OpenGLInfoSource4nameEv
libKUserFeedbackCore.so.1:_ZNK13KUserFeedback16ScreenInfoSource11descriptionEv
libKUserFeedbackCore.so.1:_ZNK13KUserFeedback16ScreenInfoSource4nameEv
libKUserFeedbackCore.so.1:_ZNK13KUserFeedback16StartCountSource11descriptionEv
libKUserFeedbackCore.so.1:_ZNK13KUserFeedback16StartCountSource4nameEv
libKUserFeedbackCore.so.1:_ZNK13KUserFeedback18AbstractDataSource13telemetryModeEv
libKUserFeedbackCore.so.1:_ZNK13KUserFeedback18AbstractDataSource2idEv
libKUserFeedbackCore.so.1:_ZNK13KUserFeedback18AbstractDataSource4nameEv
libKUserFeedbackCore.so.1:_ZNK13KUserFeedback18AbstractDataSource8isActiveEv
libKUserFeedbackCore.so.1:_ZNK13KUserFeedback18CompilerInfoSource11descriptionEv
libKUserFeedbackCore.so.1:_ZNK13KUserFeedback18CompilerInfoSource4nameEv
libKUserFeedbackCore.so.1:_ZNK13KUserFeedback18PlatformInfoSource11descriptionEv
libKUserFeedbackCore.so.1:_ZNK13KUserFeedback18PlatformInfoSource4nameEv
libKUserFeedbackCore.so.1:_ZNK13KUserFeedback19PropertyRatioSource11descriptionEv
libKUserFeedbackCore.so.1:_ZNK13KUserFeedback19PropertyRatioSource12propertyNameEv
libKUserFeedbackCore.so.1:_ZNK13KUserFeedback19PropertyRatioSource4nameEv
libKUserFeedbackCore.so.1:_ZNK13KUserFeedback19PropertyRatioSource6objectEv
libKUserFeedbackCore.so.1:_ZNK13KUserFeedback20AuditLogUiController10metaObjectEv
libKUserFeedbackCore.so.1:_ZNK13KUserFeedback20AuditLogUiController13hasLogEntriesEv
libKUserFeedbackCore.so.1:_ZNK13KUserFeedback20AuditLogUiController13logEntryModelEv
libKUserFeedbackCore.so.1:_ZNK13KUserFeedback20AuditLogUiController8logEntryERK9QDateTime
libKUserFeedbackCore.so.1:_ZNK13KUserFeedback20SelectionRatioSource11descriptionEv
libKUserFeedbackCore.so.1:_ZNK13KUserFeedback24ApplicationVersionSource11descriptionEv
libKUserFeedbackCore.so.1:_ZNK13KUserFeedback24ApplicationVersionSource4nameEv
libKUserFeedbackCore.so.1:_ZNK13KUserFeedback26FeedbackConfigUiController10metaObjectEv
libKUserFeedbackCore.so.1:_ZNK13KUserFeedback26FeedbackConfigUiController13telemetryNameENS_8Provider13TelemetryModeE
libKUserFeedbackCore.so.1:_ZNK13KUserFeedback26FeedbackConfigUiController15applicationNameEv
libKUserFeedbackCore.so.1:_ZNK13KUserFeedback26FeedbackConfigUiController15surveyModeCountEv
libKUserFeedbackCore.so.1:_ZNK13KUserFeedback26FeedbackConfigUiController16feedbackProviderEv
libKUserFeedbackCore.so.1:_ZNK13KUserFeedback26FeedbackConfigUiController17telemetryModeNameEi
libKUserFeedbackCore.so.1:_ZNK13KUserFeedback26FeedbackConfigUiController18telemetryModeCountEv
libKUserFeedbackCore.so.1:_ZNK13KUserFeedback26FeedbackConfigUiController20telemetryDescriptionENS_8Provider13TelemetryModeE
libKUserFeedbackCore.so.1:_ZNK13KUserFeedback26FeedbackConfigUiController20telemetryIndexToModeEi
libKUserFeedbackCore.so.1:_ZNK13KUserFeedback26FeedbackConfigUiController20telemetryModeDetailsEi
libKUserFeedbackCore.so.1:_ZNK13KUserFeedback26FeedbackConfigUiController20telemetryModeToIndexENS_8Provider13TelemetryModeE
libKUserFeedbackCore.so.1:_ZNK13KUserFeedback26FeedbackConfigUiController21surveyIndexToIntervalEi
libKUserFeedbackCore.so.1:_ZNK13KUserFeedback26FeedbackConfigUiController21surveyIntervalToIndexEi
libKUserFeedbackCore.so.1:_ZNK13KUserFeedback26FeedbackConfigUiController21surveyModeDescriptionEi
libKUserFeedbackCore.so.1:_ZNK13KUserFeedback26FeedbackConfigUiController24telemetryModeDescriptionEi
libKUserFeedbackCore.so.1:_ZNK13KUserFeedback8Provider10dataSourceERK7QString
libKUserFeedbackCore.so.1:_ZNK13KUserFeedback8Provider10metaObjectEv
libKUserFeedbackCore.so.1:_ZNK13KUserFeedback8Provider11dataSourcesEv
libKUserFeedbackCore.so.1:_ZNK13KUserFeedback8Provider13telemetryModeEv
libKUserFeedbackCore.so.1:_ZNK13KUserFeedback8Provider14feedbackServerEv
libKUserFeedbackCore.so.1:_ZNK13KUserFeedback8Provider14surveyIntervalEv
libKUserFeedbackCore.so.1:_ZNK13KUserFeedback8Provider17productIdentifierEv
libKUserFeedbackCore.so.1:_ZNK13KUserFeedback8Provider18encouragementDelayEv
libKUserFeedbackCore.so.1:_ZNK13KUserFeedback8Provider18submissionIntervalEv
libKUserFeedbackCore.so.1:_ZNK13KUserFeedback8Provider19describeDataSourcesEv
libKUserFeedbackCore.so.1:_ZNK13KUserFeedback8Provider21encouragementIntervalEv
libKUserFeedbackCore.so.1:_ZNK13KUserFeedback8Provider35applicationStartsUntilEncouragementEv
libKUserFeedbackCore.so.1:_ZNK13KUserFeedback8Provider38applicationUsageTimeUntilEncouragementEv
libKUserFeedbackCore.so.1:_ZNK13KUserFeedback8Provider9isEnabledEv
libKUserFeedbackWidgets.so.1:_ZN13KUserFeedback15StyleInfoSource4dataEv
libKUserFeedbackWidgets.so.1:_ZN13KUserFeedback15StyleInfoSourceC1Ev
libKUserFeedbackWidgets.so.1:_ZN13KUserFeedback15StyleInfoSourceC2Ev
libKUserFeedbackWidgets.so.1:_ZN13KUserFeedback17NotificationPopup11eventFilterEP7QObjectP6QEvent
libKUserFeedbackWidgets.so.1:_ZN13KUserFeedback17NotificationPopup11qt_metacallEN11QMetaObject4CallEiPPv
libKUserFeedbackWidgets.so.1:_ZN13KUserFeedback17NotificationPopup11qt_metacastEPKc
libKUserFeedbackWidgets.so.1:_ZN13KUserFeedback17NotificationPopup15keyReleaseEventEP9QKeyEvent
libKUserFeedbackWidgets.so.1:_ZN13KUserFeedback17NotificationPopup19setFeedbackProviderEPNS_8ProviderE
libKUserFeedbackWidgets.so.1:_ZN13KUserFeedback17NotificationPopupC1EP7QWidget
libKUserFeedbackWidgets.so.1:_ZN13KUserFeedback17NotificationPopupC2EP7QWidget
libKUserFeedbackWidgets.so.1:_ZN13KUserFeedback17NotificationPopupD0Ev
libKUserFeedbackWidgets.so.1:_ZN13KUserFeedback17NotificationPopupD1Ev
libKUserFeedbackWidgets.so.1:_ZN13KUserFeedback17NotificationPopupD2Ev
libKUserFeedbackWidgets.so.1:_ZN13KUserFeedback20FeedbackConfigDialog11qt_metacallEN11QMetaObject4CallEiPPv
libKUserFeedbackWidgets.so.1:_ZN13KUserFeedback20FeedbackConfigDialog11qt_metacastEPKc
libKUserFeedbackWidgets.so.1:_ZN13KUserFeedback20FeedbackConfigDialog19setFeedbackProviderEPNS_8ProviderE
libKUserFeedbackWidgets.so.1:_ZN13KUserFeedback20FeedbackConfigDialog6acceptEv
libKUserFeedbackWidgets.so.1:_ZN13KUserFeedback20FeedbackConfigDialogC1EP7QWidget
libKUserFeedbackWidgets.so.1:_ZN13KUserFeedback20FeedbackConfigDialogC2EP7QWidget
libKUserFeedbackWidgets.so.1:_ZN13KUserFeedback20FeedbackConfigDialogD0Ev
libKUserFeedbackWidgets.so.1:_ZN13KUserFeedback20FeedbackConfigDialogD1Ev
libKUserFeedbackWidgets.so.1:_ZN13KUserFeedback20FeedbackConfigDialogD2Ev
libKUserFeedbackWidgets.so.1:_ZN13KUserFeedback20FeedbackConfigWidget11eventFilterEP7QObjectP6QEvent
libKUserFeedbackWidgets.so.1:_ZN13KUserFeedback20FeedbackConfigWidget11qt_metacallEN11QMetaObject4CallEiPPv
libKUserFeedbackWidgets.so.1:_ZN13KUserFeedback20FeedbackConfigWidget11qt_metacastEPKc
libKUserFeedbackWidgets.so.1:_ZN13KUserFeedback20FeedbackConfigWidget19setFeedbackProviderEPNS_8ProviderE
libKUserFeedbackWidgets.so.1:_ZN13KUserFeedback20FeedbackConfigWidget20configurationChangedEv
libKUserFeedbackWidgets.so.1:_ZN13KUserFeedback20FeedbackConfigWidgetC1EP7QWidget
libKUserFeedbackWidgets.so.1:_ZN13KUserFeedback20FeedbackConfigWidgetC2EP7QWidget
libKUserFeedbackWidgets.so.1:_ZN13KUserFeedback20FeedbackConfigWidgetD0Ev
libKUserFeedbackWidgets.so.1:_ZN13KUserFeedback20FeedbackConfigWidgetD1Ev
libKUserFeedbackWidgets.so.1:_ZN13KUserFeedback20FeedbackConfigWidgetD2Ev
libKUserFeedbackWidgets.so.1:_ZNK13KUserFeedback15StyleInfoSource11descriptionEv
libKUserFeedbackWidgets.so.1:_ZNK13KUserFeedback15StyleInfoSource4nameEv
libKUserFeedbackWidgets.so.1:_ZNK13KUserFeedback17NotificationPopup10metaObjectEv
libKUserFeedbackWidgets.so.1:_ZNK13KUserFeedback20FeedbackConfigDialog10metaObjectEv
libKUserFeedbackWidgets.so.1:_ZNK13KUserFeedback20FeedbackConfigWidget10metaObjectEv
libKUserFeedbackWidgets.so.1:_ZNK13KUserFeedback20FeedbackConfigWidget13telemetryModeEv
libKUserFeedbackWidgets.so.1:_ZNK13KUserFeedback20FeedbackConfigWidget14surveyIntervalEv
libKUserFeedbackWidgets.so.1:_ZNK13KUserFeedback20FeedbackConfigWidget16feedbackProviderEv
libKUserFeedbackWidgets.so.1:_ZThn16_N13KUserFeedback17NotificationPopupD0Ev
libKUserFeedbackWidgets.so.1:_ZThn16_N13KUserFeedback17NotificationPopupD1Ev
libKUserFeedbackWidgets.so.1:_ZThn16_N13KUserFeedback20FeedbackConfigDialogD0Ev
libKUserFeedbackWidgets.so.1:_ZThn16_N13KUserFeedback20FeedbackConfigDialogD1Ev
libKUserFeedbackWidgets.so.1:_ZThn16_N13KUserFeedback20FeedbackConfigWidgetD0Ev
libKUserFeedbackWidgets.so.1:_ZThn16_N13KUserFeedback20FeedbackConfigWidgetD1Ev
