ZynAddSubFX.so:_Z15port_is_enabledPKN5rtosc4PortEPcmRKNS_5PortsEPvbPFvS2_PKcS9_S6_S7_S7_ES7_
ZynAddSubFX.so:_Z20metaiterator_advanceRPKcS1_
ZynAddSubFX.so:_Z7do_hashRKSt6vectorINSt7__cxx1112basic_stringIcSt11char_traitsIcESaIcEEESaIS5_EERKS_IiSaIiEE
ZynAddSubFX.so:_Z7killMapiRN5rtosc17MidiMapperStorageE
ZynAddSubFX.so:_ZN22Value_Smoothing_Filter11sample_rateEm
ZynAddSubFX.so:_ZN22Value_Smoothing_Filter5applyEPfmf
ZynAddSubFX.so:_ZN3GUI15genOscInterfaceEPN3zyn10MiddleWareE
ZynAddSubFX.so:_ZN3GUI6tickUiEPv
ZynAddSubFX.so:_ZN3GUI7raiseUiEPvPKc
ZynAddSubFX.so:_ZN3GUI7raiseUiEPvPKcS2_z
ZynAddSubFX.so:_ZN3GUI8createUiEP16Fl_Osc_InterfacePv
ZynAddSubFX.so:_ZN3GUI9destroyUiEPv
ZynAddSubFX.so:_ZN3zyn10CombFilter13setfreq_and_qEff
ZynAddSubFX.so:_ZN3zyn10CombFilter4setqEf
ZynAddSubFX.so:_ZN3zyn10CombFilter7setfreqEf
ZynAddSubFX.so:_ZN3zyn10CombFilter7setgainEf
ZynAddSubFX.so:_ZN3zyn10CombFilter7settypeEh
ZynAddSubFX.so:_ZN3zyn10CombFilter9filteroutEPf
ZynAddSubFX.so:_ZN3zyn10CombFilterC1EPNS_9AllocatorEhffji
ZynAddSubFX.so:_ZN3zyn10CombFilterC2EPNS_9AllocatorEhffji
ZynAddSubFX.so:_ZN3zyn10CombFilterD0Ev
ZynAddSubFX.so:_ZN3zyn10CombFilterD1Ev
ZynAddSubFX.so:_ZN3zyn10CombFilterD2Ev
ZynAddSubFX.so:_ZN3zyn10Controller10getfromXMLERNS_10XMLwrapperE
ZynAddSubFX.so:_ZN3zyn10Controller10setfilterqEi
ZynAddSubFX.so:_ZN3zyn10Controller10setfilterqEv
ZynAddSubFX.so:_ZN3zyn10Controller10setpanningEi
ZynAddSubFX.so:_ZN3zyn10Controller10setpanningEv
ZynAddSubFX.so:_ZN3zyn10Controller10setsustainEi
ZynAddSubFX.so:_ZN3zyn10Controller10setsustainEv
ZynAddSubFX.so:_ZN3zyn10Controller11setmodwheelEi
ZynAddSubFX.so:_ZN3zyn10Controller11setmodwheelEv
ZynAddSubFX.so:_ZN3zyn10Controller12setbandwidthEi
ZynAddSubFX.so:_ZN3zyn10Controller12setbandwidthEv
ZynAddSubFX.so:_ZN3zyn10Controller13setexpressionEi
ZynAddSubFX.so:_ZN3zyn10Controller13setexpressionEv
ZynAddSubFX.so:_ZN3zyn10Controller13setpitchwheelEi
ZynAddSubFX.so:_ZN3zyn10Controller13setpitchwheelEv
ZynAddSubFX.so:_ZN3zyn10Controller13setportamentoEi
ZynAddSubFX.so:_ZN3zyn10Controller14setresonancebwEi
ZynAddSubFX.so:_ZN3zyn10Controller14setresonancebwEv
ZynAddSubFX.so:_ZN3zyn10Controller15setfiltercutoffEi
ZynAddSubFX.so:_ZN3zyn10Controller15setfiltercutoffEv
ZynAddSubFX.so:_ZN3zyn10Controller18setparameternumberEji
ZynAddSubFX.so:_ZN3zyn10Controller18setresonancecenterEi
ZynAddSubFX.so:_ZN3zyn10Controller18setresonancecenterEv
ZynAddSubFX.so:_ZN3zyn10Controller5portsE
ZynAddSubFX.so:_ZN3zyn10Controller7add2XMLERNS_10XMLwrapperE
ZynAddSubFX.so:_ZN3zyn10Controller7getnrpnEPiS1_S1_S1_
ZynAddSubFX.so:_ZN3zyn10Controller8defaultsEv
ZynAddSubFX.so:_ZN3zyn10Controller8resetallEv
ZynAddSubFX.so:_ZN3zyn10Controller8setfmampEi
ZynAddSubFX.so:_ZN3zyn10Controller8setfmampEv
ZynAddSubFX.so:_ZN3zyn10Controller9setvolumeEi
ZynAddSubFX.so:_ZN3zyn10Controller9setvolumeEv
ZynAddSubFX.so:_ZN3zyn10ControllerC1ERKNS_7SYNTH_TEPKNS_7AbsTimeE
ZynAddSubFX.so:_ZN3zyn10ControllerC2ERKNS_7SYNTH_TEPKNS_7AbsTimeE
ZynAddSubFX.so:_ZN3zyn10Distortion12applyfiltersEPfS1_
ZynAddSubFX.so:_ZN3zyn10Distortion12getpresetparEhj
ZynAddSubFX.so:_ZN3zyn10Distortion3outERKNS_6StereoIPfEE
ZynAddSubFX.so:_ZN3zyn10Distortion5portsE
ZynAddSubFX.so:_ZN3zyn10Distortion6sethpfEh
ZynAddSubFX.so:_ZN3zyn10Distortion6setlpfEh
ZynAddSubFX.so:_ZN3zyn10Distortion7cleanupEv
ZynAddSubFX.so:_ZN3zyn10Distortion9changeparEih
ZynAddSubFX.so:_ZN3zyn10Distortion9setpresetEh
ZynAddSubFX.so:_ZN3zyn10Distortion9setvolumeEh
ZynAddSubFX.so:_ZN3zyn10DistortionC1ENS_12EffectParamsE
ZynAddSubFX.so:_ZN3zyn10DistortionC2ENS_12EffectParamsE
ZynAddSubFX.so:_ZN3zyn10DistortionD0Ev
ZynAddSubFX.so:_ZN3zyn10DistortionD1Ev
ZynAddSubFX.so:_ZN3zyn10DistortionD2Ev
ZynAddSubFX.so:_ZN3zyn10DummyAllocE
ZynAddSubFX.so:_ZN3zyn10FFTwrapperC1Ei
ZynAddSubFX.so:_ZN3zyn10FFTwrapperC2Ei
ZynAddSubFX.so:_ZN3zyn10FFTwrapperD1Ev
ZynAddSubFX.so:_ZN3zyn10FFTwrapperD2Ev
ZynAddSubFX.so:_ZN3zyn10Microtonal10getfromXMLERNS_10XMLwrapperE
ZynAddSubFX.so:_ZN3zyn10Microtonal12tuningtolineEiPci
ZynAddSubFX.so:_ZN3zyn10Microtonal13linetotuningsERNS_12OctaveTuningEPKc
ZynAddSubFX.so:_ZN3zyn10Microtonal13texttomappingEPKc
ZynAddSubFX.so:_ZN3zyn10Microtonal13texttotuningsEPKc
ZynAddSubFX.so:_ZN3zyn10Microtonal5applyEv
ZynAddSubFX.so:_ZN3zyn10Microtonal5portsE
ZynAddSubFX.so:_ZN3zyn10Microtonal7loadXMLEPKc
ZynAddSubFX.so:_ZN3zyn10Microtonal7loadkbmERNS_7KbmInfoEPKc
ZynAddSubFX.so:_ZN3zyn10Microtonal7loadsclERNS_7SclInfoEPKc
ZynAddSubFX.so:_ZN3zyn10Microtonal8defaultsEv
ZynAddSubFX.so:_ZN3zyn10Microtonal8loadlineEP8_IO_FILEPc
ZynAddSubFX.so:_ZN3zyn10MicrotonalC1ERKi
ZynAddSubFX.so:_ZN3zyn10MicrotonalC2ERKi
ZynAddSubFX.so:_ZN3zyn10MicrotonalD1Ev
ZynAddSubFX.so:_ZN3zyn10MicrotonalD2Ev
ZynAddSubFX.so:_ZN3zyn10MiddleWare10spawnUiApiEv
ZynAddSubFX.so:_ZN3zyn10MiddleWare11getAllPortsEv
ZynAddSubFX.so:_ZN3zyn10MiddleWare11spawnMasterEv
ZynAddSubFX.so:_ZN3zyn10MiddleWare11transmitMsgEPKc
ZynAddSubFX.so:_ZN3zyn10MiddleWare11transmitMsgEPKcS2_z
ZynAddSubFX.so:_ZN3zyn10MiddleWare12doReadOnlyOpESt8functionIFvvEE
ZynAddSubFX.so:_ZN3zyn10MiddleWare12switchMasterEPNS_6MasterE
ZynAddSubFX.so:_ZN3zyn10MiddleWare13setUiCallbackEPFvPvPKcES1_
ZynAddSubFX.so:_ZN3zyn10MiddleWare14enableAutoSaveEi
ZynAddSubFX.so:_ZN3zyn10MiddleWare14pendingSetBankEi
ZynAddSubFX.so:_ZN3zyn10MiddleWare14removeAutoSaveEv
ZynAddSubFX.so:_ZN3zyn10MiddleWare14transmitMsgGuiEPKc
ZynAddSubFX.so:_ZN3zyn10MiddleWare14transmitMsgGuiEPKcS2_z
ZynAddSubFX.so:_ZN3zyn10MiddleWare14transmitMsg_vaEPKcS2_P13__va_list_tag
ZynAddSubFX.so:_ZN3zyn10MiddleWare15getPresetsStoreEv
ZynAddSubFX.so:_ZN3zyn10MiddleWare15messageAnywhereEPKcS2_z
ZynAddSubFX.so:_ZN3zyn10MiddleWare15setIdleCallbackEPFvPvES1_
ZynAddSubFX.so:_ZN3zyn10MiddleWare15updateResourcesEPNS_6MasterE
ZynAddSubFX.so:_ZN3zyn10MiddleWare17pendingSetProgramEii
ZynAddSubFX.so:_ZN3zyn10MiddleWare17transmitMsgGui_vaEPKcS2_P13__va_list_tag
ZynAddSubFX.so:_ZN3zyn10MiddleWare27discardAllbToUButHandleFreeEv
ZynAddSubFX.so:_ZN3zyn10MiddleWare4tickEv
ZynAddSubFX.so:_ZN3zyn10MiddleWare9activeUrlENSt7__cxx1112basic_stringIcSt11char_traitsIcESaIcEEE
ZynAddSubFX.so:_ZN3zyn10MiddleWareC1ENS_7SYNTH_TEPNS_6ConfigEi
ZynAddSubFX.so:_ZN3zyn10MiddleWareC2ENS_7SYNTH_TEPNS_6ConfigEi
ZynAddSubFX.so:_ZN3zyn10MiddleWareD1Ev
ZynAddSubFX.so:_ZN3zyn10MiddleWareD2Ev
ZynAddSubFX.so:_ZN3zyn10MoogFilter13setfreq_and_qEff
ZynAddSubFX.so:_ZN3zyn10MoogFilter4setqEf
ZynAddSubFX.so:_ZN3zyn10MoogFilter7setfreqEf
ZynAddSubFX.so:_ZN3zyn10MoogFilter7setgainEf
ZynAddSubFX.so:_ZN3zyn10MoogFilter7settypeEh
ZynAddSubFX.so:_ZN3zyn10MoogFilter9filteroutEPf
ZynAddSubFX.so:_ZN3zyn10MoogFilterC1Ehffji
ZynAddSubFX.so:_ZN3zyn10MoogFilterC2Ehffji
ZynAddSubFX.so:_ZN3zyn10MoogFilterD0Ev
ZynAddSubFX.so:_ZN3zyn10MoogFilterD1Ev
ZynAddSubFX.so:_ZN3zyn10MoogFilterD2Ev
ZynAddSubFX.so:_ZN3zyn10MultiQueueC1Ev
ZynAddSubFX.so:_ZN3zyn10MultiQueueC2Ev
ZynAddSubFX.so:_ZN3zyn10MultiQueueD1Ev
ZynAddSubFX.so:_ZN3zyn10MultiQueueD2Ev
ZynAddSubFX.so:_ZN3zyn10Portamento4initERKNS_10ControllerERKNS_7SYNTH_TEbfff
ZynAddSubFX.so:_ZN3zyn10Portamento6updateEv
ZynAddSubFX.so:_ZN3zyn10PortamentoC1ERKNS_10ControllerERKNS_7SYNTH_TEbfff
ZynAddSubFX.so:_ZN3zyn10PortamentoC2ERKNS_10ControllerERKNS_7SYNTH_TEbfff
ZynAddSubFX.so:_ZN3zyn10WatchPoint8is_emptyEv
ZynAddSubFX.so:_ZN3zyn10WatchPoint9is_activeEv
ZynAddSubFX.so:_ZN3zyn10WatchPointC1EPNS_12WatchManagerEPKcS4_
ZynAddSubFX.so:_ZN3zyn10WatchPointC2EPNS_12WatchManagerEPKcS4_
ZynAddSubFX.so:_ZN3zyn10XMLwrapper10addparboolERKNSt7__cxx1112basic_stringIcSt11char_traitsIcESaIcEEEi
ZynAddSubFX.so:_ZN3zyn10XMLwrapper10addparrealERKNSt7__cxx1112basic_stringIcSt11char_traitsIcESaIcEEEf
ZynAddSubFX.so:_ZN3zyn10XMLwrapper10exitbranchEv
ZynAddSubFX.so:_ZN3zyn10XMLwrapper10putXMLdataEPKc
ZynAddSubFX.so:_ZN3zyn10XMLwrapper11beginbranchERKNSt7__cxx1112basic_stringIcSt11char_traitsIcESaIcEEE
ZynAddSubFX.so:_ZN3zyn10XMLwrapper11beginbranchERKNSt7__cxx1112basic_stringIcSt11char_traitsIcESaIcEEEi
ZynAddSubFX.so:_ZN3zyn10XMLwrapper11enterbranchERKNSt7__cxx1112basic_stringIcSt11char_traitsIcESaIcEEE
ZynAddSubFX.so:_ZN3zyn10XMLwrapper11enterbranchERKNSt7__cxx1112basic_stringIcSt11char_traitsIcESaIcEEEi
ZynAddSubFX.so:_ZN3zyn10XMLwrapper11loadXMLfileERKNSt7__cxx1112basic_stringIcSt11char_traitsIcESaIcEEE
ZynAddSubFX.so:_ZN3zyn10XMLwrapper11setPadSynthEb
ZynAddSubFX.so:_ZN3zyn10XMLwrapper3addERKNS_7XmlNodeE
ZynAddSubFX.so:_ZN3zyn10XMLwrapper6addparERKNSt7__cxx1112basic_stringIcSt11char_traitsIcESaIcEEEi
ZynAddSubFX.so:_ZN3zyn10XMLwrapper7cleanupEv
ZynAddSubFX.so:_ZN3zyn10XMLwrapper9addparstrERKNSt7__cxx1112basic_stringIcSt11char_traitsIcESaIcEEES8_
ZynAddSubFX.so:_ZN3zyn10XMLwrapper9endbranchEv
ZynAddSubFX.so:_ZN3zyn10XMLwrapperC1Ev
ZynAddSubFX.so:_ZN3zyn10XMLwrapperC2Ev
ZynAddSubFX.so:_ZN3zyn10XMLwrapperD1Ev
ZynAddSubFX.so:_ZN3zyn10XMLwrapperD2Ev
ZynAddSubFX.so:_ZN3zyn10deallocateEPKcPv
ZynAddSubFX.so:_ZN3zyn10fileexistsEPKc
ZynAddSubFX.so:_ZN3zyn10getUrlTypeENSt7__cxx1112basic_stringIcSt11char_traitsIcESaIcEEE
ZynAddSubFX.so:_ZN3zyn10idsFromMsgEPKcPiS2_S2_Pb
ZynAddSubFX.so:_ZN3zyn10presetCopyERNS_10MiddleWareENSt7__cxx1112basic_stringIcSt11char_traitsIcESaIcEEES7_
ZynAddSubFX.so:_ZN3zyn10prng_stateE
ZynAddSubFX.so:_ZN3zyn11FFT_cleanupEv
ZynAddSubFX.so:_ZN3zyn11Sympathetic12applyfiltersEPfS1_
ZynAddSubFX.so:_ZN3zyn11Sympathetic12getpresetparEhj
ZynAddSubFX.so:_ZN3zyn11Sympathetic14calcFreqsPianoEv
ZynAddSubFX.so:_ZN3zyn11Sympathetic15calcFreqsGuitarEv
ZynAddSubFX.so:_ZN3zyn11Sympathetic16calcFreqsGenericEv
ZynAddSubFX.so:_ZN3zyn11Sympathetic3outERKNS_6StereoIPfEE
ZynAddSubFX.so:_ZN3zyn11Sympathetic5portsE
ZynAddSubFX.so:_ZN3zyn11Sympathetic6sethpfEh
ZynAddSubFX.so:_ZN3zyn11Sympathetic6setlpfEh
ZynAddSubFX.so:_ZN3zyn11Sympathetic7cleanupEv
ZynAddSubFX.so:_ZN3zyn11Sympathetic9calcFreqsEv
ZynAddSubFX.so:_ZN3zyn11Sympathetic9changeparEih
ZynAddSubFX.so:_ZN3zyn11Sympathetic9setpresetEh
ZynAddSubFX.so:_ZN3zyn11Sympathetic9setvolumeEh
ZynAddSubFX.so:_ZN3zyn11SympatheticC1ENS_12EffectParamsE
ZynAddSubFX.so:_ZN3zyn11SympatheticC2ENS_12EffectParamsE
ZynAddSubFX.so:_ZN3zyn11SympatheticD0Ev
ZynAddSubFX.so:_ZN3zyn11SympatheticD1Ev
ZynAddSubFX.so:_ZN3zyn11SympatheticD2Ev
ZynAddSubFX.so:_ZN3zyn11doClassCopyENSt7__cxx1112basic_stringIcSt11char_traitsIcESaIcEEERNS_10MiddleWareES5_S5_
ZynAddSubFX.so:_ZN3zyn11fast_strcpyEPcPKcm
ZynAddSubFX.so:_ZN3zyn11interpolateEPKfmf
ZynAddSubFX.so:_ZN3zyn11presetPasteERNS_10MiddleWareENSt7__cxx1112basic_stringIcSt11char_traitsIcESaIcEEES7_
ZynAddSubFX.so:_ZN3zyn11rtosc_splatEPKcSt3setINSt7__cxx1112basic_stringIcSt11char_traitsIcESaIcEEESt4lessIS8_ESaIS8_EE
ZynAddSubFX.so:_ZN3zyn12AnalogFilter12computeCoeffEiffiffRi
ZynAddSubFX.so:_ZN3zyn12AnalogFilter13setfreq_and_qEff
ZynAddSubFX.so:_ZN3zyn12AnalogFilter15singlefilteroutEPfRNS0_6fstageEfj
ZynAddSubFX.so:_ZN3zyn12AnalogFilter18computefiltercoefsEff
ZynAddSubFX.so:_ZN3zyn12AnalogFilter1HEf
ZynAddSubFX.so:_ZN3zyn12AnalogFilter4setqEf
ZynAddSubFX.so:_ZN3zyn12AnalogFilter7cleanupEv
ZynAddSubFX.so:_ZN3zyn12AnalogFilter7setfreqEf
ZynAddSubFX.so:_ZN3zyn12AnalogFilter7setgainEf
ZynAddSubFX.so:_ZN3zyn12AnalogFilter7settypeEi
ZynAddSubFX.so:_ZN3zyn12AnalogFilter9filteroutEPf
ZynAddSubFX.so:_ZN3zyn12AnalogFilter9setstagesEi
ZynAddSubFX.so:_ZN3zyn12AnalogFilterC1Ehffhji
ZynAddSubFX.so:_ZN3zyn12AnalogFilterC2Ehffhji
ZynAddSubFX.so:_ZN3zyn12AnalogFilterD0Ev
ZynAddSubFX.so:_ZN3zyn12AnalogFilterD1Ev
ZynAddSubFX.so:_ZN3zyn12AnalogFilterD2Ev
ZynAddSubFX.so:_ZN3zyn12EffectParamsC1ERNS_9AllocatorEbPfS3_hjiPNS_12FilterParamsEb
ZynAddSubFX.so:_ZN3zyn12EffectParamsC2ERNS_9AllocatorEbPfS3_hjiPNS_12FilterParamsEb
ZynAddSubFX.so:_ZN3zyn12FilterParams10getfromXMLERNS_10XMLwrapperE
ZynAddSubFX.so:_ZN3zyn12FilterParams10pasteArrayERS0_i
ZynAddSubFX.so:_ZN3zyn12FilterParams14add2XMLsectionERNS_10XMLwrapperEi
ZynAddSubFX.so:_ZN3zyn12FilterParams14baseqFromOldPqEi
ZynAddSubFX.so:_ZN3zyn12FilterParams16gainFromOldPgainEi
ZynAddSubFX.so:_ZN3zyn12FilterParams17getfromXMLsectionERNS_10XMLwrapperEi
ZynAddSubFX.so:_ZN3zyn12FilterParams19basefreqFromOldPreqEi
ZynAddSubFX.so:_ZN3zyn12FilterParams19getfromFilterParamsEPKS0_
ZynAddSubFX.so:_ZN3zyn12FilterParams5pasteERS0_
ZynAddSubFX.so:_ZN3zyn12FilterParams5portsE
ZynAddSubFX.so:_ZN3zyn12FilterParams5setupEv
ZynAddSubFX.so:_ZN3zyn12FilterParams7add2XMLERNS_10XMLwrapperE
ZynAddSubFX.so:_ZN3zyn12FilterParams8defaultsEi
ZynAddSubFX.so:_ZN3zyn12FilterParams8defaultsEv
ZynAddSubFX.so:_ZN3zyn12FilterParams9updateLocEi
ZynAddSubFX.so:_ZN3zyn12FilterParams9updateLocEii
ZynAddSubFX.so:_ZN3zyn12FilterParamsC1EPKNS_7AbsTimeE
ZynAddSubFX.so:_ZN3zyn12FilterParamsC1EhhhiPKNS_7AbsTimeE
ZynAddSubFX.so:_ZN3zyn12FilterParamsC1EiPKNS_7AbsTimeE
ZynAddSubFX.so:_ZN3zyn12FilterParamsC2EPKNS_7AbsTimeE
ZynAddSubFX.so:_ZN3zyn12FilterParamsC2EhhhiPKNS_7AbsTimeE
ZynAddSubFX.so:_ZN3zyn12FilterParamsC2EiPKNS_7AbsTimeE
ZynAddSubFX.so:_ZN3zyn12FilterParamsD0Ev
ZynAddSubFX.so:_ZN3zyn12FilterParamsD1Ev
ZynAddSubFX.so:_ZN3zyn12FilterParamsD2Ev
ZynAddSubFX.so:_ZN3zyn12PexitprogramE
ZynAddSubFX.so:_ZN3zyn12PresetsArray13setpresettypeEPKc
ZynAddSubFX.so:_ZN3zyn12PresetsArray4copyERNS_12PresetsStoreEPKc
ZynAddSubFX.so:_ZN3zyn12PresetsArray4copyERNS_12PresetsStoreEiPKc
ZynAddSubFX.so:_ZN3zyn12PresetsArrayC1Ev
ZynAddSubFX.so:_ZN3zyn12PresetsArrayC2Ev
ZynAddSubFX.so:_ZN3zyn12PresetsArrayD0Ev
ZynAddSubFX.so:_ZN3zyn12PresetsArrayD1Ev
ZynAddSubFX.so:_ZN3zyn12PresetsArrayD2Ev
ZynAddSubFX.so:_ZN3zyn12PresetsStore10copypresetERNS_10XMLwrapperEPcNSt7__cxx1112basic_stringIcSt11char_traitsIcESaIcEEE
ZynAddSubFX.so:_ZN3zyn12PresetsStore11pastepresetERNS_10XMLwrapperEj
ZynAddSubFX.so:_ZN3zyn12PresetsStore12clearpresetsEv
ZynAddSubFX.so:_ZN3zyn12PresetsStore12deletepresetENSt7__cxx1112basic_stringIcSt11char_traitsIcESaIcEEE
ZynAddSubFX.so:_ZN3zyn12PresetsStore12deletepresetEj
ZynAddSubFX.so:_ZN3zyn12PresetsStore13copyclipboardERNS_10XMLwrapperEPc
ZynAddSubFX.so:_ZN3zyn12PresetsStore14pasteclipboardERNS_10XMLwrapperE
ZynAddSubFX.so:_ZN3zyn12PresetsStore14scanforpresetsEv
ZynAddSubFX.so:_ZN3zyn12PresetsStore18checkclipboardtypeEPKc
ZynAddSubFX.so:_ZN3zyn12PresetsStoreC1ERKNS_6ConfigE
ZynAddSubFX.so:_ZN3zyn12PresetsStoreC2ERKNS_6ConfigE
ZynAddSubFX.so:_ZN3zyn12PresetsStoreD1Ev
ZynAddSubFX.so:_ZN3zyn12PresetsStoreD2Ev
ZynAddSubFX.so:_ZN3zyn12WatchManager13trigger_otherEi
ZynAddSubFX.so:_ZN3zyn12WatchManager4tickEv
ZynAddSubFX.so:_ZN3zyn12WatchManager7satisfyEPKcPfi
ZynAddSubFX.so:_ZN3zyn12WatchManager7satisfyEPKcf
ZynAddSubFX.so:_ZN3zyn12WatchManager9add_watchEPKc
ZynAddSubFX.so:_ZN3zyn12WatchManager9del_watchEPKc
ZynAddSubFX.so:_ZN3zyn12WatchManagerC1EPN5rtosc10ThreadLinkE
ZynAddSubFX.so:_ZN3zyn12WatchManagerC2EPN5rtosc10ThreadLinkE
ZynAddSubFX.so:_ZN3zyn12basefunc_sawEff
ZynAddSubFX.so:_ZN3zyn12basefunc_sqrEff
ZynAddSubFX.so:_ZN3zyn12cinterpolateEPKfmf
ZynAddSubFX.so:_ZN3zyn12doClassPasteENSt7__cxx1112basic_stringIcSt11char_traitsIcESaIcEEES5_RNS_10MiddleWareES5_RNS_10XMLwrapperE
ZynAddSubFX.so:_ZN3zyn12polyblampresEfff
ZynAddSubFX.so:_ZN3zyn12presetDeleteEi
ZynAddSubFX.so:_ZN3zyn12presetRescanEv
ZynAddSubFX.so:_ZN3zyn12preset_portsE
ZynAddSubFX.so:_ZN3zyn12rmsNormalizeEPSt7complexIfEi
ZynAddSubFX.so:_ZN3zyn12set_realtimeEv
ZynAddSubFX.so:_ZN3zyn13DynamicFilter12getpresetparEhj
ZynAddSubFX.so:_ZN3zyn13DynamicFilter12reinitfilterEv
ZynAddSubFX.so:_ZN3zyn13DynamicFilter15setfilterpresetEh
ZynAddSubFX.so:_ZN3zyn13DynamicFilter3outERKNS_6StereoIPfEE
ZynAddSubFX.so:_ZN3zyn13DynamicFilter5portsE
ZynAddSubFX.so:_ZN3zyn13DynamicFilter7cleanupEv
ZynAddSubFX.so:_ZN3zyn13DynamicFilter8setdepthEh
ZynAddSubFX.so:_ZN3zyn13DynamicFilter9changeparEih
ZynAddSubFX.so:_ZN3zyn13DynamicFilter9setampsnsEh
ZynAddSubFX.so:_ZN3zyn13DynamicFilter9setpresetEhb
ZynAddSubFX.so:_ZN3zyn13DynamicFilter9setvolumeEh
ZynAddSubFX.so:_ZN3zyn13DynamicFilterC1ENS_12EffectParamsE
ZynAddSubFX.so:_ZN3zyn13DynamicFilterC2ENS_12EffectParamsE
ZynAddSubFX.so:_ZN3zyn13DynamicFilterD0Ev
ZynAddSubFX.so:_ZN3zyn13DynamicFilterD1Ev
ZynAddSubFX.so:_ZN3zyn13DynamicFilterD2Ev
ZynAddSubFX.so:_ZN3zyn13FormantFilter13setfreq_and_qEff
ZynAddSubFX.so:_ZN3zyn13FormantFilter4setqEf
ZynAddSubFX.so:_ZN3zyn13FormantFilter6setposEf
ZynAddSubFX.so:_ZN3zyn13FormantFilter7cleanupEv
ZynAddSubFX.so:_ZN3zyn13FormantFilter7setfreqEf
ZynAddSubFX.so:_ZN3zyn13FormantFilter7setgainEf
ZynAddSubFX.so:_ZN3zyn13FormantFilter9filteroutEPf
ZynAddSubFX.so:_ZN3zyn13FormantFilterC1EPKNS_12FilterParamsEPNS_9AllocatorEji
ZynAddSubFX.so:_ZN3zyn13FormantFilterC2EPKNS_12FilterParamsEPNS_9AllocatorEji
ZynAddSubFX.so:_ZN3zyn13FormantFilterD0Ev
ZynAddSubFX.so:_ZN3zyn13FormantFilterD1Ev
ZynAddSubFX.so:_ZN3zyn13FormantFilterD2Ev
ZynAddSubFX.so:_ZN3zyn13LockFreeQueue4readEv
ZynAddSubFX.so:_ZN3zyn13LockFreeQueue5writeEPNS_13QueueListItemE
ZynAddSubFX.so:_ZN3zyn13LockFreeQueueC1EPNS_13QueueListItemEi
ZynAddSubFX.so:_ZN3zyn13LockFreeQueueC2EPNS_13QueueListItemEi
ZynAddSubFX.so:_ZN3zyn13LockFreeQueueD1Ev
ZynAddSubFX.so:_ZN3zyn13LockFreeQueueD2Ev
ZynAddSubFX.so:_ZN3zyn13QueueListItemC1Ev
ZynAddSubFX.so:_ZN3zyn13QueueListItemC2Ev
ZynAddSubFX.so:_ZN3zyn13ScratchStringC1EPKc
ZynAddSubFX.so:_ZN3zyn13ScratchStringC1Eh
ZynAddSubFX.so:_ZN3zyn13ScratchStringC1Ei
ZynAddSubFX.so:_ZN3zyn13ScratchStringC1Ev
ZynAddSubFX.so:_ZN3zyn13ScratchStringC2EPKc
ZynAddSubFX.so:_ZN3zyn13ScratchStringC2Eh
ZynAddSubFX.so:_ZN3zyn13ScratchStringC2Ei
ZynAddSubFX.so:_ZN3zyn13ScratchStringC2Ev
ZynAddSubFX.so:_ZN3zyn13ScratchStringplES0_
ZynAddSubFX.so:_ZN3zyn13VecWatchPointC1EPNS_12WatchManagerEPKcS4_
ZynAddSubFX.so:_ZN3zyn13VecWatchPointC2EPNS_12WatchManagerEPKcS4_
ZynAddSubFX.so:_ZN3zyn13loadMidiLearnERNS_10XMLwrapperERN5rtosc13MidiMappernRTE
ZynAddSubFX.so:_ZN3zyn13osc_low_shelfEjff
ZynAddSubFX.so:_ZN3zyn13saveMidiLearnERNS_10XMLwrapperERKN5rtosc13MidiMappernRTE
ZynAddSubFX.so:_ZN3zyn13waveShapeSmpsEiPfhhhh
ZynAddSubFX.so:_ZN3zyn14AllocatorClass11dealloc_memEPv
ZynAddSubFX.so:_ZN3zyn14AllocatorClass9addMemoryEPvm
ZynAddSubFX.so:_ZN3zyn14AllocatorClass9alloc_memEm
ZynAddSubFX.so:_ZN3zyn14CombFilterBank10setStringsEjf
ZynAddSubFX.so:_ZN3zyn14CombFilterBank9filteroutEPf
ZynAddSubFX.so:_ZN3zyn14CombFilterBankC1EPNS_9AllocatorEjif
ZynAddSubFX.so:_ZN3zyn14CombFilterBankC2EPNS_9AllocatorEjif
ZynAddSubFX.so:_ZN3zyn14CombFilterBankD1Ev
ZynAddSubFX.so:_ZN3zyn14CombFilterBankD2Ev
ZynAddSubFX.so:_ZN3zyn14EnvelopeParams10ASRinit_bwEcfcf
ZynAddSubFX.so:_ZN3zyn14EnvelopeParams10env_dB2rapEf
ZynAddSubFX.so:_ZN3zyn14EnvelopeParams10env_rap2dBEf
ZynAddSubFX.so:_ZN3zyn14EnvelopeParams10getfromXMLERNS_10XMLwrapperE
ZynAddSubFX.so:_ZN3zyn14EnvelopeParams11ADSRinit_dBEffcf
ZynAddSubFX.so:_ZN3zyn14EnvelopeParams13converttofreeEv
ZynAddSubFX.so:_ZN3zyn14EnvelopeParams14store2defaultsEv
ZynAddSubFX.so:_ZN3zyn14EnvelopeParams15ADSRinit_filterEcfcffc
ZynAddSubFX.so:_ZN3zyn14EnvelopeParams4initEi
ZynAddSubFX.so:_ZN3zyn14EnvelopeParams5pasteERKS0_
ZynAddSubFX.so:_ZN3zyn14EnvelopeParams5portsE
ZynAddSubFX.so:_ZN3zyn14EnvelopeParams7ASRinitEcfcf
ZynAddSubFX.so:_ZN3zyn14EnvelopeParams7add2XMLERNS_10XMLwrapperE
ZynAddSubFX.so:_ZN3zyn14EnvelopeParams8ADSRinitEffcf
ZynAddSubFX.so:_ZN3zyn14EnvelopeParams8defaultsEv
ZynAddSubFX.so:_ZN3zyn14EnvelopeParamsC1EhhPKNS_7AbsTimeE
ZynAddSubFX.so:_ZN3zyn14EnvelopeParamsC2EhhPKNS_7AbsTimeE
ZynAddSubFX.so:_ZN3zyn14EnvelopeParamsD0Ev
ZynAddSubFX.so:_ZN3zyn14EnvelopeParamsD1Ev
ZynAddSubFX.so:_ZN3zyn14EnvelopeParamsD2Ev
ZynAddSubFX.so:_ZN3zyn14MiddleWareImpl10bToUhandleEPKc
ZynAddSubFX.so:_ZN3zyn14MiddleWareImpl12doReadOnlyOpESt8functionIFvvEE
ZynAddSubFX.so:_ZN3zyn14MiddleWareImpl12sendToRemoteEPKcNSt7__cxx1112basic_stringIcSt11char_traitsIcESaIcEEE
ZynAddSubFX.so:_ZN3zyn14MiddleWareImpl17broadcastToRemoteEPKc
ZynAddSubFX.so:_ZN3zyn14MiddleWareImpl18doReadOnlyOpNormalESt8functionIFvvEEb
ZynAddSubFX.so:_ZN3zyn14MiddleWareImpl18doReadOnlyOpPluginESt8functionIFvvEE
ZynAddSubFX.so:_ZN3zyn14MiddleWareImpl21recreateMinimalMasterEv
ZynAddSubFX.so:_ZN3zyn14MiddleWareImpl27discardAllbToUButHandleFreeEv
ZynAddSubFX.so:_ZN3zyn14MiddleWareImpl5writeEPKcS2_P13__va_list_tag
ZynAddSubFX.so:_ZN3zyn14MiddleWareImpl5writeEPKcS2_z
ZynAddSubFX.so:_ZN3zyn14MiddleWareImpl9handleMsgEPKcb
ZynAddSubFX.so:_ZN3zyn14MiddleWareImpl9heartBeatEPNS_6MasterE
ZynAddSubFX.so:_ZN3zyn14MiddleWareImpl9kitEnableEPKc
ZynAddSubFX.so:_ZN3zyn14MiddleWareImpl9kitEnableEiii
ZynAddSubFX.so:_ZN3zyn14MiddleWareImplC1EPNS_10MiddleWareENS_7SYNTH_TEPNS_6ConfigEi
ZynAddSubFX.so:_ZN3zyn14MiddleWareImplC2EPNS_10MiddleWareENS_7SYNTH_TEPNS_6ConfigEi
ZynAddSubFX.so:_ZN3zyn14MiddleWareImplD1Ev
ZynAddSubFX.so:_ZN3zyn14MiddleWareImplD2Ev
ZynAddSubFX.so:_ZN3zyn14basefunc_chirpEff
ZynAddSubFX.so:_ZN3zyn14basefunc_diodeEff
ZynAddSubFX.so:_ZN3zyn14basefunc_gaussEff
ZynAddSubFX.so:_ZN3zyn14basefunc_powerEff
ZynAddSubFX.so:_ZN3zyn14basefunc_pulseEff
ZynAddSubFX.so:_ZN3zyn14basefunc_spikeEff
ZynAddSubFX.so:_ZN3zyn14ctorAllocFreqsEPNS_10FFTwrapperEi
ZynAddSubFX.so:_ZN3zyn15FloatWatchPointC1EPNS_12WatchManagerEPKcS4_
ZynAddSubFX.so:_ZN3zyn15FloatWatchPointC2EPNS_12WatchManagerEPKcS4_
ZynAddSubFX.so:_ZN3zyn15OscilGenBuffers8defaultsEv
ZynAddSubFX.so:_ZN3zyn15OscilGenBuffersC1ENS_22OscilGenBuffersCreatorE
ZynAddSubFX.so:_ZN3zyn15OscilGenBuffersC2ENS_22OscilGenBuffersCreatorE
ZynAddSubFX.so:_ZN3zyn15OscilGenBuffersD1Ev
ZynAddSubFX.so:_ZN3zyn15OscilGenBuffersD2Ev
ZynAddSubFX.so:_ZN3zyn15basefunc_circleEff
ZynAddSubFX.so:_ZN3zyn15getBaseFunctionEh
ZynAddSubFX.so:_ZN3zyn15mxmlFindElementEPK12_mxml_node_sS2_PKcS4_S4_i
ZynAddSubFX.so:_ZN3zyn15preparePadSynthENSt7__cxx1112basic_stringIcSt11char_traitsIcESaIcEEEPNS_17PADnoteParametersERN5rtosc6RtDataE
ZynAddSubFX.so:_ZN3zyn15presetCopyArrayERNS_10MiddleWareENSt7__cxx1112basic_stringIcSt11char_traitsIcESaIcEEEiS7_
ZynAddSubFX.so:_ZN3zyn16ADnoteParameters10getfromXMLERNS_10XMLwrapperE
ZynAddSubFX.so:_ZN3zyn16ADnoteParameters10pasteArrayERS0_i
ZynAddSubFX.so:_ZN3zyn16ADnoteParameters11EnableVoiceERKNS_7SYNTH_TEiPKNS_7AbsTimeE
ZynAddSubFX.so:_ZN3zyn16ADnoteParameters14add2XMLsectionERNS_10XMLwrapperEi
ZynAddSubFX.so:_ZN3zyn16ADnoteParameters17getfromXMLsectionERNS_10XMLwrapperEi
ZynAddSubFX.so:_ZN3zyn16ADnoteParameters5pasteERS0_
ZynAddSubFX.so:_ZN3zyn16ADnoteParameters5portsE
ZynAddSubFX.so:_ZN3zyn16ADnoteParameters7add2XMLERNS_10XMLwrapperE
ZynAddSubFX.so:_ZN3zyn16ADnoteParameters8defaultsEi
ZynAddSubFX.so:_ZN3zyn16ADnoteParameters8defaultsEv
ZynAddSubFX.so:_ZN3zyn16ADnoteParameters9KillVoiceEi
ZynAddSubFX.so:_ZN3zyn16ADnoteParametersC1ERKNS_7SYNTH_TEPNS_10FFTwrapperEPKNS_7AbsTimeE
ZynAddSubFX.so:_ZN3zyn16ADnoteParametersC2ERKNS_7SYNTH_TEPNS_10FFTwrapperEPKNS_7AbsTimeE
ZynAddSubFX.so:_ZN3zyn16ADnoteParametersD0Ev
ZynAddSubFX.so:_ZN3zyn16ADnoteParametersD1Ev
ZynAddSubFX.so:_ZN3zyn16ADnoteParametersD2Ev
ZynAddSubFX.so:_ZN3zyn16ADnoteVoiceParam10getfromXMLERNS_10XMLwrapperEj
ZynAddSubFX.so:_ZN3zyn16ADnoteVoiceParam4killEv
ZynAddSubFX.so:_ZN3zyn16ADnoteVoiceParam5pasteERS0_
ZynAddSubFX.so:_ZN3zyn16ADnoteVoiceParam5portsE
ZynAddSubFX.so:_ZN3zyn16ADnoteVoiceParam6enableERKNS_7SYNTH_TEPNS_10FFTwrapperEPKNS_9ResonanceEPKNS_7AbsTimeE
ZynAddSubFX.so:_ZN3zyn16ADnoteVoiceParam7add2XMLERNS_10XMLwrapperEb
ZynAddSubFX.so:_ZN3zyn16ADnoteVoiceParam8defaultsEv
ZynAddSubFX.so:_ZN3zyn16CallbackRepeater4tickEv
ZynAddSubFX.so:_ZN3zyn16CallbackRepeaterC1EiSt8functionIFvvEE
ZynAddSubFX.so:_ZN3zyn16CallbackRepeaterC2EiSt8functionIFvvEE
ZynAddSubFX.so:_ZN3zyn16basefunc_abssineEff
ZynAddSubFX.so:_ZN3zyn16buildVoiceParMsgB5cxx11EPKiS1_S1_PKb
ZynAddSubFX.so:_ZN3zyn16connectMidiLearnEiibNSt7__cxx1112basic_stringIcSt11char_traitsIcESaIcEEERN5rtosc13MidiMappernRTE
ZynAddSubFX.so:_ZN3zyn16ctorAllocSamplesEPNS_10FFTwrapperEi
ZynAddSubFX.so:_ZN3zyn16doClassArrayCopyENSt7__cxx1112basic_stringIcSt11char_traitsIcESaIcEEEiRNS_10MiddleWareES5_S5_
ZynAddSubFX.so:_ZN3zyn16getUrlPresetTypeENSt7__cxx1112basic_stringIcSt11char_traitsIcESaIcEEERNS_10MiddleWareE
ZynAddSubFX.so:_ZN3zyn16legalizeFilenameENSt7__cxx1112basic_stringIcSt11char_traitsIcESaIcEEE
ZynAddSubFX.so:_ZN3zyn16presetPasteArrayERNS_10MiddleWareENSt7__cxx1112basic_stringIcSt11char_traitsIcESaIcEEEiS7_
ZynAddSubFX.so:_ZN3zyn16trimLeadingWhiteEPKc
ZynAddSubFX.so:_ZN3zyn17ADnoteGlobalParam10getfromXMLERNS_10XMLwrapperE
ZynAddSubFX.so:_ZN3zyn17ADnoteGlobalParam5pasteERS0_
ZynAddSubFX.so:_ZN3zyn17ADnoteGlobalParam5portsE
ZynAddSubFX.so:_ZN3zyn17ADnoteGlobalParam7add2XMLERNS_10XMLwrapperE
ZynAddSubFX.so:_ZN3zyn17ADnoteGlobalParam8defaultsEv
ZynAddSubFX.so:_ZN3zyn17ADnoteGlobalParamC1EPKNS_7AbsTimeE
ZynAddSubFX.so:_ZN3zyn17ADnoteGlobalParamC2EPKNS_7AbsTimeE
ZynAddSubFX.so:_ZN3zyn17ADnoteGlobalParamD1Ev
ZynAddSubFX.so:_ZN3zyn17ADnoteGlobalParamD2Ev
ZynAddSubFX.so:_ZN3zyn17PADnoteParameters10export2wavENSt7__cxx1112basic_stringIcSt11char_traitsIcESaIcEEE
ZynAddSubFX.so:_ZN3zyn17PADnoteParameters10getfromXMLERNS_10XMLwrapperE
ZynAddSubFX.so:_ZN3zyn17PADnoteParameters10getprofileEPfi
ZynAddSubFX.so:_ZN3zyn17PADnoteParameters12deletesampleEi
ZynAddSubFX.so:_ZN3zyn17PADnoteParameters13deletesamplesEv
ZynAddSubFX.so:_ZN3zyn17PADnoteParameters13setPbandwidthEi
ZynAddSubFX.so:_ZN3zyn17PADnoteParameters14realtime_portsE
ZynAddSubFX.so:_ZN3zyn17PADnoteParameters15applyparametersESt8functionIFbvEEj
ZynAddSubFX.so:_ZN3zyn17PADnoteParameters15applyparametersEv
ZynAddSubFX.so:_ZN3zyn17PADnoteParameters15sampleGeneratorESt8functionIFviONS0_6SampleEEES1_IFbvEEj
ZynAddSubFX.so:_ZN3zyn17PADnoteParameters18non_realtime_portsE
ZynAddSubFX.so:_ZN3zyn17PADnoteParameters5pasteERS0_
ZynAddSubFX.so:_ZN3zyn17PADnoteParameters5portsE
ZynAddSubFX.so:_ZN3zyn17PADnoteParameters7add2XMLERNS_10XMLwrapperE
ZynAddSubFX.so:_ZN3zyn17PADnoteParameters7pasteRTERS0_
ZynAddSubFX.so:_ZN3zyn17PADnoteParameters8defaultsEv
ZynAddSubFX.so:_ZN3zyn17PADnoteParametersC1ERKNS_7SYNTH_TEPNS_10FFTwrapperEPKNS_7AbsTimeE
ZynAddSubFX.so:_ZN3zyn17PADnoteParametersC2ERKNS_7SYNTH_TEPNS_10FFTwrapperEPKNS_7AbsTimeE
ZynAddSubFX.so:_ZN3zyn17PADnoteParametersD0Ev
ZynAddSubFX.so:_ZN3zyn17PADnoteParametersD1Ev
ZynAddSubFX.so:_ZN3zyn17PADnoteParametersD2Ev
ZynAddSubFX.so:_ZN3zyn17SUBnoteParameters10getfromXMLERNS_10XMLwrapperE
ZynAddSubFX.so:_ZN3zyn17SUBnoteParameters16convertBandwidthEiifii
ZynAddSubFX.so:_ZN3zyn17SUBnoteParameters18convertHarmonicMagEii
ZynAddSubFX.so:_ZN3zyn17SUBnoteParameters26updateFrequencyMultipliersEv
ZynAddSubFX.so:_ZN3zyn17SUBnoteParameters5pasteERS0_
ZynAddSubFX.so:_ZN3zyn17SUBnoteParameters5portsE
ZynAddSubFX.so:_ZN3zyn17SUBnoteParameters7add2XMLERNS_10XMLwrapperE
ZynAddSubFX.so:_ZN3zyn17SUBnoteParameters8defaultsEv
ZynAddSubFX.so:_ZN3zyn17SUBnoteParametersC1EPKNS_7AbsTimeE
ZynAddSubFX.so:_ZN3zyn17SUBnoteParametersC2EPKNS_7AbsTimeE
ZynAddSubFX.so:_ZN3zyn17SUBnoteParametersD0Ev
ZynAddSubFX.so:_ZN3zyn17SUBnoteParametersD1Ev
ZynAddSubFX.so:_ZN3zyn17SUBnoteParametersD2Ev
ZynAddSubFX.so:_ZN3zyn17basefunc_triangleEff
ZynAddSubFX.so:_ZN3zyn17doClassArrayPasteENSt7__cxx1112basic_stringIcSt11char_traitsIcESaIcEEES5_iRNS_10MiddleWareES5_RNS_10XMLwrapperE
ZynAddSubFX.so:_ZN3zyn17real_preset_portsE
ZynAddSubFX.so:_ZN3zyn18PortamentoRealtimeC1EPvRNS_9AllocatorESt8functionIFvPS0_EERKNS_10PortamentoE
ZynAddSubFX.so:_ZN3zyn18PortamentoRealtimeC2EPvRNS_9AllocatorESt8functionIFvPS0_EERKNS_10PortamentoE
ZynAddSubFX.so:_ZN3zyn18PortamentoRealtimeD1Ev
ZynAddSubFX.so:_ZN3zyn18PortamentoRealtimeD2Ev
ZynAddSubFX.so:_ZN3zyn18basefunc_chebyshevEff
ZynAddSubFX.so:_ZN3zyn18basefunc_pulsesineEff
ZynAddSubFX.so:_ZN3zyn18gcc_10_1_0_is_dumbERKSt6vectorINSt7__cxx1112basic_stringIcSt11char_traitsIcESaIcEEESaIS6_EEiPcP11rtosc_arg_t
ZynAddSubFX.so:_ZN3zyn18mxmlElementGetAttrEPK12_mxml_node_sPKc
ZynAddSubFX.so:_ZN3zyn19FORCE_BANK_DIR_FILEE
ZynAddSubFX.so:_ZN3zyn19basefunc_powersinusEff
ZynAddSubFX.so:_ZN3zyn19os_guess_pid_lengthEv
ZynAddSubFX.so:_ZN3zyn19platform_strcasestrEPKcS1_
ZynAddSubFX.so:_ZN3zyn19presetClipboardTypeB5cxx11Ev
ZynAddSubFX.so:_ZN3zyn20basefunc_stretchsineEff
ZynAddSubFX.so:_ZN3zyn23basefunc_absstretchsineEff
ZynAddSubFX.so:_ZN3zyn23os_pid_as_padded_stringB5cxx11Ev
ZynAddSubFX.so:_ZN3zyn24presetCheckClipboardTypeEv
ZynAddSubFX.so:_ZN3zyn2EQ12getpresetparEhj
ZynAddSubFX.so:_ZN3zyn2EQ15getfreqresponseEf
ZynAddSubFX.so:_ZN3zyn2EQ3outERKNS_6StereoIPfEE
ZynAddSubFX.so:_ZN3zyn2EQ5portsE
ZynAddSubFX.so:_ZN3zyn2EQ7cleanupEv
ZynAddSubFX.so:_ZN3zyn2EQ9changeparEih
ZynAddSubFX.so:_ZN3zyn2EQ9setpresetEh
ZynAddSubFX.so:_ZN3zyn2EQ9setvolumeEh
ZynAddSubFX.so:_ZN3zyn2EQC1ENS_12EffectParamsE
ZynAddSubFX.so:_ZN3zyn2EQC2ENS_12EffectParamsE
ZynAddSubFX.so:_ZN3zyn2EQD0Ev
ZynAddSubFX.so:_ZN3zyn2EQD1Ev
ZynAddSubFX.so:_ZN3zyn2EQD2Ev
ZynAddSubFX.so:_ZN3zyn30XMLwrapper_whitespace_callbackEP12_mxml_node_si
ZynAddSubFX.so:_ZN3zyn3LFO10releasekeyEv
ZynAddSubFX.so:_ZN3zyn3LFO10updateParsEv
ZynAddSubFX.so:_ZN3zyn3LFO18computeNextFreqRndEv
ZynAddSubFX.so:_ZN3zyn3LFO6biquadEf
ZynAddSubFX.so:_ZN3zyn3LFO6lfooutEv
ZynAddSubFX.so:_ZN3zyn3LFO7baseOutEcf
ZynAddSubFX.so:_ZN3zyn3LFO9amplfooutEv
ZynAddSubFX.so:_ZN3zyn3LFOC1ERKNS_9LFOParamsEfRKNS_7AbsTimeEPNS_12WatchManagerEPKc
ZynAddSubFX.so:_ZN3zyn3LFOC2ERKNS_9LFOParamsEfRKNS_7AbsTimeEPNS_12WatchManagerEPKc
ZynAddSubFX.so:_ZN3zyn3LFOD1Ev
ZynAddSubFX.so:_ZN3zyn3LFOD2Ev
ZynAddSubFX.so:_ZN3zyn3Nio10getSourcesB5cxx11Ev
ZynAddSubFX.so:_ZN3zyn3Nio10masterSwapEPNS_6MasterE
ZynAddSubFX.so:_ZN3zyn3Nio18getAudioCompressorEv
ZynAddSubFX.so:_ZN3zyn3Nio18setAudioCompressorEb
ZynAddSubFX.so:_ZN3zyn3Nio5portsE
ZynAddSubFX.so:_ZN3zyn3Nio7getSinkB5cxx11Ev
ZynAddSubFX.so:_ZN3zyn3Nio7setSinkENSt7__cxx1112basic_stringIcSt11char_traitsIcESaIcEEE
ZynAddSubFX.so:_ZN3zyn3Nio7waveNewEPNS_7WavFileE
ZynAddSubFX.so:_ZN3zyn3Nio8getSinksB5cxx11Ev
ZynAddSubFX.so:_ZN3zyn3Nio8waveStopEv
ZynAddSubFX.so:_ZN3zyn3Nio9getSourceB5cxx11Ev
ZynAddSubFX.so:_ZN3zyn3Nio9setSourceENSt7__cxx1112basic_stringIcSt11char_traitsIcESaIcEEE
ZynAddSubFX.so:_ZN3zyn3Nio9waveStartEv
ZynAddSubFX.so:_ZN3zyn4Bank10savetoslotEjPNS_4PartE
ZynAddSubFX.so:_ZN3zyn4Bank11scanrootdirENSt7__cxx1112basic_stringIcSt11char_traitsIcESaIcEEE
ZynAddSubFX.so:_ZN3zyn4Bank12loadfromslotEjPNS_4PartE
ZynAddSubFX.so:_ZN3zyn4Bank13expanddirnameERNSt7__cxx1112basic_stringIcSt11char_traitsIcESaIcEEE
ZynAddSubFX.so:_ZN3zyn4Bank14deletefrombankEi
ZynAddSubFX.so:_ZN3zyn4Bank14rescanforbanksEv
ZynAddSubFX.so:_ZN3zyn4Bank15getnamenumberedB5cxx11Ej
ZynAddSubFX.so:_ZN3zyn4Bank5blistENSt7__cxx1112basic_stringIcSt11char_traitsIcESaIcEEE
ZynAddSubFX.so:_ZN3zyn4Bank5ins_tC1Ev
ZynAddSubFX.so:_ZN3zyn4Bank5ins_tC2Ev
ZynAddSubFX.so:_ZN3zyn4Bank6lockedEv
ZynAddSubFX.so:_ZN3zyn4Bank6setLsbEh
ZynAddSubFX.so:_ZN3zyn4Bank6setMsbEh
ZynAddSubFX.so:_ZN3zyn4Bank7getnameB5cxx11Ej
ZynAddSubFX.so:_ZN3zyn4Bank7newbankENSt7__cxx1112basic_stringIcSt11char_traitsIcESaIcEEE
ZynAddSubFX.so:_ZN3zyn4Bank7setnameEjRKNSt7__cxx1112basic_stringIcSt11char_traitsIcESaIcEEEi
ZynAddSubFX.so:_ZN3zyn4Bank8loadbankENSt7__cxx1112basic_stringIcSt11char_traitsIcESaIcEEE
ZynAddSubFX.so:_ZN3zyn4Bank8swapslotEjj
ZynAddSubFX.so:_ZN3zyn4Bank9addtobankEiNSt7__cxx1112basic_stringIcSt11char_traitsIcESaIcEEES6_
ZynAddSubFX.so:_ZN3zyn4Bank9clearbankEv
ZynAddSubFX.so:_ZN3zyn4Bank9clearslotEj
ZynAddSubFX.so:_ZN3zyn4Bank9emptyslotEj
ZynAddSubFX.so:_ZN3zyn4BankC1EPNS_6ConfigE
ZynAddSubFX.so:_ZN3zyn4BankC2EPNS_6ConfigE
ZynAddSubFX.so:_ZN3zyn4BankD1Ev
ZynAddSubFX.so:_ZN3zyn4BankD2Ev
ZynAddSubFX.so:_ZN3zyn4Echo10initdelaysEv
ZynAddSubFX.so:_ZN3zyn4Echo10setlrdelayEh
ZynAddSubFX.so:_ZN3zyn4Echo12getpresetparEhj
ZynAddSubFX.so:_ZN3zyn4Echo3outERKNS_6StereoIPfEE
ZynAddSubFX.so:_ZN3zyn4Echo5portsE
ZynAddSubFX.so:_ZN3zyn4Echo5setfbEh
ZynAddSubFX.so:_ZN3zyn4Echo7cleanupEv
ZynAddSubFX.so:_ZN3zyn4Echo8setdelayEh
ZynAddSubFX.so:_ZN3zyn4Echo9changeparEih
ZynAddSubFX.so:_ZN3zyn4Echo9sethidampEh
ZynAddSubFX.so:_ZN3zyn4Echo9setpresetEh
ZynAddSubFX.so:_ZN3zyn4Echo9setvolumeEh
ZynAddSubFX.so:_ZN3zyn4EchoC1ENS_12EffectParamsE
ZynAddSubFX.so:_ZN3zyn4EchoC2ENS_12EffectParamsE
ZynAddSubFX.so:_ZN3zyn4EchoD0Ev
ZynAddSubFX.so:_ZN3zyn4EchoD1Ev
ZynAddSubFX.so:_ZN3zyn4EchoD2Ev
ZynAddSubFX.so:_ZN3zyn4Part10getfromXMLERNS_10XMLwrapperE
ZynAddSubFX.so:_ZN3zyn4Part10monomemPopEh
ZynAddSubFX.so:_ZN3zyn4Part11AllNotesOffEv
ZynAddSubFX.so:_ZN3zyn4Part11monomemPushEh
ZynAddSubFX.so:_ZN3zyn4Part11setPpanningEc
ZynAddSubFX.so:_ZN3zyn4Part11setVolumedBEf
ZynAddSubFX.so:_ZN3zyn4Part11setkeylimitEh
ZynAddSubFX.so:_ZN3zyn4Part12limit_voicesEi
ZynAddSubFX.so:_ZN3zyn4Part12monomemClearEv
ZynAddSubFX.so:_ZN3zyn4Part13MonoMemRenoteEv
ZynAddSubFX.so:_ZN3zyn4Part13SetControllerEjhfi
ZynAddSubFX.so:_ZN3zyn4Part13SetControllerEji
ZynAddSubFX.so:_ZN3zyn4Part13initialize_rtEv
ZynAddSubFX.so:_ZN3zyn4Part13setvoicelimitEh
ZynAddSubFX.so:_ZN3zyn4Part13verifyKeyModeEv
ZynAddSubFX.so:_ZN3zyn4Part13volume127TodBEh
ZynAddSubFX.so:_ZN3zyn4Part14NoteOnInternalEhhf
ZynAddSubFX.so:_ZN3zyn4Part14ReleaseAllKeysEv
ZynAddSubFX.so:_ZN3zyn4Part15ComputePartSmpsEv
ZynAddSubFX.so:_ZN3zyn4Part15applyparametersESt8functionIFbvEE
ZynAddSubFX.so:_ZN3zyn4Part15applyparametersEv
ZynAddSubFX.so:_ZN3zyn4Part15getNoteLog2FreqEiRf
ZynAddSubFX.so:_ZN3zyn4Part16setkititemstatusEjb
ZynAddSubFX.so:_ZN3zyn4Part17add2XMLinstrumentERNS_10XMLwrapperE
ZynAddSubFX.so:_ZN3zyn4Part17loadXMLinstrumentEPKc
ZynAddSubFX.so:_ZN3zyn4Part18defaultsinstrumentEv
ZynAddSubFX.so:_ZN3zyn4Part20PolyphonicAftertouchEhh
ZynAddSubFX.so:_ZN3zyn4Part20ReleaseSustainedKeysEv
ZynAddSubFX.so:_ZN3zyn4Part20getfromXMLinstrumentERNS_10XMLwrapperE
ZynAddSubFX.so:_ZN3zyn4Part3Kit5portsE
ZynAddSubFX.so:_ZN3zyn4Part3KitC1Ev
ZynAddSubFX.so:_ZN3zyn4Part3KitC2Ev
ZynAddSubFX.so:_ZN3zyn4Part5portsE
ZynAddSubFX.so:_ZN3zyn4Part7NoteOffEh
ZynAddSubFX.so:_ZN3zyn4Part7add2XMLERNS_10XMLwrapperE
ZynAddSubFX.so:_ZN3zyn4Part7cleanupEb
ZynAddSubFX.so:_ZN3zyn4Part7kill_rtEv
ZynAddSubFX.so:_ZN3zyn4Part7saveXMLEPKc
ZynAddSubFX.so:_ZN3zyn4Part8defaultsEv
ZynAddSubFX.so:_ZN3zyn4PartC1ERNS_9AllocatorERKNS_7SYNTH_TERKNS_7AbsTimeERKiSA_PNS_10MicrotonalEPNS_10FFTwrapperEPNS_12WatchManagerEPKc
ZynAddSubFX.so:_ZN3zyn4PartC2ERNS_9AllocatorERKNS_7SYNTH_TERKNS_7AbsTimeERKiSA_PNS_10MicrotonalEPNS_10FFTwrapperEPNS_12WatchManagerEPKc
ZynAddSubFX.so:_ZN3zyn4PartD1Ev
ZynAddSubFX.so:_ZN3zyn4PartD2Ev
ZynAddSubFX.so:_ZN3zyn4VelFEfh
ZynAddSubFX.so:_ZN3zyn4dataEPNS_6next_tE
ZynAddSubFX.so:_ZN3zyn5osc_sEjff
ZynAddSubFX.so:_ZN3zyn5sfindENSt7__cxx1112basic_stringIcSt11char_traitsIcESaIcEEES5_
ZynAddSubFX.so:_ZN3zyn5xml_kE
ZynAddSubFX.so:_ZN3zyn6ADnote10legatonoteERKNS_12LegatoParamsE
ZynAddSubFX.so:_ZN3zyn6ADnote10releasekeyEv
ZynAddSubFX.so:_ZN3zyn6ADnote10setupVoiceEi
ZynAddSubFX.so:_ZN3zyn6ADnote11cloneLegatoEv
ZynAddSubFX.so:_ZN3zyn6ADnote13setupVoiceModEib
ZynAddSubFX.so:_ZN3zyn6ADnote14initparametersEPNS_12WatchManagerEPKc
ZynAddSubFX.so:_ZN3zyn6ADnote16setupVoiceDetuneEi
ZynAddSubFX.so:_ZN3zyn6ADnote16setupVoiceUnisonEi
ZynAddSubFX.so:_ZN3zyn6ADnote23compute_unison_freq_rapEi
ZynAddSubFX.so:_ZN3zyn6ADnote24computecurrentparametersEv
ZynAddSubFX.so:_ZN3zyn6ADnote5Voice10releasekeyEv
ZynAddSubFX.so:_ZN3zyn6ADnote5Voice4killERNS_9AllocatorERKNS_7SYNTH_TE
ZynAddSubFX.so:_ZN3zyn6ADnote6Global14initparametersERKNS_17ADnoteGlobalParamERKNS_7SYNTH_TERKNS_7AbsTimeERNS_9AllocatorEffbPNS_12WatchManagerEPKc
ZynAddSubFX.so:_ZN3zyn6ADnote6Global4killERNS_9AllocatorE
ZynAddSubFX.so:_ZN3zyn6ADnote6entombEv
ZynAddSubFX.so:_ZN3zyn6ADnote7noteoutEPfS1_
ZynAddSubFX.so:_ZN3zyn6ADnote7setfreqEif
ZynAddSubFX.so:_ZN3zyn6ADnote8KillNoteEv
ZynAddSubFX.so:_ZN3zyn6ADnote9KillVoiceEi
ZynAddSubFX.so:_ZN3zyn6ADnote9setfreqFMEif
ZynAddSubFX.so:_ZN3zyn6ADnoteC1EPNS_16ADnoteParametersERKNS_11SynthParamsEPNS_12WatchManagerEPKc
ZynAddSubFX.so:_ZN3zyn6ADnoteC2EPNS_16ADnoteParametersERKNS_11SynthParamsEPNS_12WatchManagerEPKc
ZynAddSubFX.so:_ZN3zyn6ADnoteD0Ev
ZynAddSubFX.so:_ZN3zyn6ADnoteD1Ev
ZynAddSubFX.so:_ZN3zyn6ADnoteD2Ev
ZynAddSubFX.so:_ZN3zyn6BankDb10addBankDirENSt7__cxx1112basic_stringIcSt11char_traitsIcESaIcEEE
ZynAddSubFX.so:_ZN3zyn6BankDb5clearEv
ZynAddSubFX.so:_ZN3zyn6BankDb9scanBanksEv
ZynAddSubFX.so:_ZN3zyn6Chorus12getpresetparEhj
ZynAddSubFX.so:_ZN3zyn6Chorus3outERKNS_6StereoIPfEE
ZynAddSubFX.so:_ZN3zyn6Chorus5portsE
ZynAddSubFX.so:_ZN3zyn6Chorus5setfbEh
ZynAddSubFX.so:_ZN3zyn6Chorus7cleanupEv
ZynAddSubFX.so:_ZN3zyn6Chorus8getdelayEf
ZynAddSubFX.so:_ZN3zyn6Chorus8setdelayEh
ZynAddSubFX.so:_ZN3zyn6Chorus8setdepthEh
ZynAddSubFX.so:_ZN3zyn6Chorus9changeparEih
ZynAddSubFX.so:_ZN3zyn6Chorus9setpresetEh
ZynAddSubFX.so:_ZN3zyn6Chorus9setvolumeEh
ZynAddSubFX.so:_ZN3zyn6ChorusC1ENS_12EffectParamsE
ZynAddSubFX.so:_ZN3zyn6ChorusC2ENS_12EffectParamsE
ZynAddSubFX.so:_ZN3zyn6ChorusD0Ev
ZynAddSubFX.so:_ZN3zyn6ChorusD1Ev
ZynAddSubFX.so:_ZN3zyn6ChorusD2Ev
ZynAddSubFX.so:_ZN3zyn6Config10readConfigEPKc
ZynAddSubFX.so:_ZN3zyn6Config19clearpresetsdirlistEv
ZynAddSubFX.so:_ZN3zyn6Config20clearbankrootdirlistEv
ZynAddSubFX.so:_ZN3zyn6Config4initEv
ZynAddSubFX.so:_ZN3zyn6Config5portsE
ZynAddSubFX.so:_ZN3zyn6ConfigC1Ev
ZynAddSubFX.so:_ZN3zyn6ConfigC2Ev
ZynAddSubFX.so:_ZN3zyn6ConfigD1Ev
ZynAddSubFX.so:_ZN3zyn6ConfigD2Ev
ZynAddSubFX.so:_ZN3zyn6Effect10setlrcrossEc
ZynAddSubFX.so:_ZN3zyn6Effect10setpanningEc
ZynAddSubFX.so:_ZN3zyn6Effect3outEPfS1_
ZynAddSubFX.so:_ZN3zyn6Effect9crossoverERfS1_f
ZynAddSubFX.so:_ZN3zyn6EffectC1ENS_12EffectParamsE
ZynAddSubFX.so:_ZN3zyn6EffectC2ENS_12EffectParamsE
ZynAddSubFX.so:_ZN3zyn6Filter11getrealfreqEf
ZynAddSubFX.so:_ZN3zyn6Filter8generateERNS_9AllocatorEPKNS_12FilterParamsEji
ZynAddSubFX.so:_ZN3zyn6FilterC1Eji
ZynAddSubFX.so:_ZN3zyn6FilterC2Eji
ZynAddSubFX.so:_ZN3zyn6Master10getXMLDataEv
ZynAddSubFX.so:_ZN3zyn6Master10getalldataEPPc
ZynAddSubFX.so:_ZN3zyn6Master10getfromXMLERNS_10XMLwrapperE
ZynAddSubFX.so:_ZN3zyn6Master10putalldataEPKc
ZynAddSubFX.so:_ZN3zyn6Master12setPkeyshiftEc
ZynAddSubFX.so:_ZN3zyn6Master12vuresetpeaksEv
ZynAddSubFX.so:_ZN3zyn6Master13applyOscEventEPKcPfS3_bbRNS_7DataObjEiPS0_
ZynAddSubFX.so:_ZN3zyn6Master13applyOscEventEPKcPfS3_bbi
ZynAddSubFX.so:_ZN3zyn6Master13applyOscEventEPKcbi
ZynAddSubFX.so:_ZN3zyn6Master13initialize_rtEv
ZynAddSubFX.so:_ZN3zyn6Master13setControllerEcihf
ZynAddSubFX.so:_ZN3zyn6Master13setControllerEcii
ZynAddSubFX.so:_ZN3zyn6Master13setPsysefxvolEiic
ZynAddSubFX.so:_ZN3zyn6Master14copyMasterCbToEPS0_
ZynAddSubFX.so:_ZN3zyn6Master14loadAutomationERNS_10XMLwrapperERN5rtosc13AutomationMgrE
ZynAddSubFX.so:_ZN3zyn6Master14loadOSCFromStrEPKcPN5rtosc21savefile_dispatcher_tE
ZynAddSubFX.so:_ZN3zyn6Master14saveAutomationERNS_10XMLwrapperERKN5rtosc13AutomationMgrE
ZynAddSubFX.so:_ZN3zyn6Master14setPsysefxsendEiic
ZynAddSubFX.so:_ZN3zyn6Master15applyparametersEv
ZynAddSubFX.so:_ZN3zyn6Master16volume127ToFloatEh
ZynAddSubFX.so:_ZN3zyn6Master18GetAudioOutSamplesEmjPfS1_
ZynAddSubFX.so:_ZN3zyn6Master18setAudioCompressorEb
ZynAddSubFX.so:_ZN3zyn6Master20polyphonicAftertouchEchc
ZynAddSubFX.so:_ZN3zyn6Master24setMasterChangedCallbackEPFvPvPS0_ES1_
ZynAddSubFX.so:_ZN3zyn6Master5portsE
ZynAddSubFX.so:_ZN3zyn6Master6ShutUpEv
ZynAddSubFX.so:_ZN3zyn6Master6noteOnEchcf
ZynAddSubFX.so:_ZN3zyn6Master6runOSCEPfS1_bPS0_
ZynAddSubFX.so:_ZN3zyn6Master7add2XMLERNS_10XMLwrapperE
ZynAddSubFX.so:_ZN3zyn6Master7loadOSCEPKcPN5rtosc21savefile_dispatcher_tE
ZynAddSubFX.so:_ZN3zyn6Master7loadXMLEPKc
ZynAddSubFX.so:_ZN3zyn6Master7noteOffEch
ZynAddSubFX.so:_ZN3zyn6Master7saveOSCENSt7__cxx1112basic_stringIcSt11char_traitsIcESaIcEEERSt3setIS6_St4lessIS6_ESaIS6_EE
ZynAddSubFX.so:_ZN3zyn6Master7saveXMLEPKc
ZynAddSubFX.so:_ZN3zyn6Master8AudioOutEPfS1_
ZynAddSubFX.so:_ZN3zyn6Master8defaultsEv
ZynAddSubFX.so:_ZN3zyn6Master8vuUpdateEPKfS2_
ZynAddSubFX.so:_ZN3zyn6Master9partonoffEii
ZynAddSubFX.so:_ZN3zyn6MasterC1ERKNS_7SYNTH_TEPNS_6ConfigE
ZynAddSubFX.so:_ZN3zyn6MasterC2ERKNS_7SYNTH_TEPNS_6ConfigE
ZynAddSubFX.so:_ZN3zyn6MasterD1Ev
ZynAddSubFX.so:_ZN3zyn6MasterD2Ev
ZynAddSubFX.so:_ZN3zyn6Phaser10applyPhaseEffPf
ZynAddSubFX.so:_ZN3zyn6Phaser10applyPhaseEfffRfPfS2_
ZynAddSubFX.so:_ZN3zyn6Phaser11AnalogPhaseERKNS_6StereoIPfEE
ZynAddSubFX.so:_ZN3zyn6Phaser11normalPhaseERKNS_6StereoIPfEE
ZynAddSubFX.so:_ZN3zyn6Phaser12analog_setupEv
ZynAddSubFX.so:_ZN3zyn6Phaser12getpresetparEhj
ZynAddSubFX.so:_ZN3zyn6Phaser13setdistortionEh
ZynAddSubFX.so:_ZN3zyn6Phaser3outERKNS_6StereoIPfEE
ZynAddSubFX.so:_ZN3zyn6Phaser5portsE
ZynAddSubFX.so:_ZN3zyn6Phaser5setfbEh
ZynAddSubFX.so:_ZN3zyn6Phaser7cleanupEv
ZynAddSubFX.so:_ZN3zyn6Phaser8setdepthEh
ZynAddSubFX.so:_ZN3zyn6Phaser8setphaseEh
ZynAddSubFX.so:_ZN3zyn6Phaser8setwidthEh
ZynAddSubFX.so:_ZN3zyn6Phaser9changeparEih
ZynAddSubFX.so:_ZN3zyn6Phaser9setoffsetEh
ZynAddSubFX.so:_ZN3zyn6Phaser9setpresetEh
ZynAddSubFX.so:_ZN3zyn6Phaser9setstagesEh
ZynAddSubFX.so:_ZN3zyn6Phaser9setvolumeEh
ZynAddSubFX.so:_ZN3zyn6PhaserC1ENS_12EffectParamsE
ZynAddSubFX.so:_ZN3zyn6PhaserC2ENS_12EffectParamsE
ZynAddSubFX.so:_ZN3zyn6PhaserD0Ev
ZynAddSubFX.so:_ZN3zyn6PhaserD1Ev
ZynAddSubFX.so:_ZN3zyn6PhaserD2Ev
ZynAddSubFX.so:_ZN3zyn6Reverb11processmonoEiPfS1_
ZynAddSubFX.so:_ZN3zyn6Reverb11setidelayfbEh
ZynAddSubFX.so:_ZN3zyn6Reverb11setlohidampEh
ZynAddSubFX.so:_ZN3zyn6Reverb11setroomsizeEh
ZynAddSubFX.so:_ZN3zyn6Reverb12getpresetparEhj
ZynAddSubFX.so:_ZN3zyn6Reverb12setbandwidthEh
ZynAddSubFX.so:_ZN3zyn6Reverb3outERKNS_6StereoIPfEE
ZynAddSubFX.so:_ZN3zyn6Reverb5portsE
ZynAddSubFX.so:_ZN3zyn6Reverb6sethpfEh
ZynAddSubFX.so:_ZN3zyn6Reverb6setlpfEh
ZynAddSubFX.so:_ZN3zyn6Reverb7cleanupEv
ZynAddSubFX.so:_ZN3zyn6Reverb7settimeEh
ZynAddSubFX.so:_ZN3zyn6Reverb7settypeEh
ZynAddSubFX.so:_ZN3zyn6Reverb9changeparEih
ZynAddSubFX.so:_ZN3zyn6Reverb9setidelayEh
ZynAddSubFX.so:_ZN3zyn6Reverb9setpresetEh
ZynAddSubFX.so:_ZN3zyn6Reverb9setvolumeEh
ZynAddSubFX.so:_ZN3zyn6ReverbC1ENS_12EffectParamsE
ZynAddSubFX.so:_ZN3zyn6ReverbC2ENS_12EffectParamsE
ZynAddSubFX.so:_ZN3zyn6ReverbD0Ev
ZynAddSubFX.so:_ZN3zyn6ReverbD1Ev
ZynAddSubFX.so:_ZN3zyn6ReverbD2Ev
ZynAddSubFX.so:_ZN3zyn6Unison12setBandwidthEf
ZynAddSubFX.so:_ZN3zyn6Unison16setBaseFrequencyEf
ZynAddSubFX.so:_ZN3zyn6Unison16updateParametersEv
ZynAddSubFX.so:_ZN3zyn6Unison16updateUnisonDataEv
ZynAddSubFX.so:_ZN3zyn6Unison7processEiPfS1_
ZynAddSubFX.so:_ZN3zyn6Unison7setSizeEi
ZynAddSubFX.so:_ZN3zyn6UnisonC1EPNS_9AllocatorEiff
ZynAddSubFX.so:_ZN3zyn6UnisonC2EPNS_9AllocatorEiff
ZynAddSubFX.so:_ZN3zyn6UnisonD1Ev
ZynAddSubFX.so:_ZN3zyn6UnisonD2Ev
ZynAddSubFX.so:_ZN3zyn6msg_idE
ZynAddSubFX.so:_ZN3zyn6osc_lpEjff
ZynAddSubFX.so:_ZN3zyn6vuDataC1Ev
ZynAddSubFX.so:_ZN3zyn6vuDataC2Ev
ZynAddSubFX.so:_ZN3zyn7PADnote10legatonoteERKNS_12LegatoParamsE
ZynAddSubFX.so:_ZN3zyn7PADnote10releasekeyEv
ZynAddSubFX.so:_ZN3zyn7PADnote11cloneLegatoEv
ZynAddSubFX.so:_ZN3zyn7PADnote13Compute_CubicEPfS1_if
ZynAddSubFX.so:_ZN3zyn7PADnote14Compute_LinearEPfS1_if
ZynAddSubFX.so:_ZN3zyn7PADnote24computecurrentparametersEv
ZynAddSubFX.so:_ZN3zyn7PADnote5setupEfPNS_10PortamentoEfbPNS_12WatchManagerEPKc
ZynAddSubFX.so:_ZN3zyn7PADnote6entombEv
ZynAddSubFX.so:_ZN3zyn7PADnote7noteoutEPfS1_
ZynAddSubFX.so:_ZN3zyn7PADnoteC1EPKNS_17PADnoteParametersERKNS_11SynthParamsERKiPNS_12WatchManagerEPKc
ZynAddSubFX.so:_ZN3zyn7PADnoteC2EPKNS_17PADnoteParametersERKNS_11SynthParamsERKiPNS_12WatchManagerEPKc
ZynAddSubFX.so:_ZN3zyn7PADnoteD0Ev
ZynAddSubFX.so:_ZN3zyn7PADnoteD1Ev
ZynAddSubFX.so:_ZN3zyn7PADnoteD2Ev
ZynAddSubFX.so:_ZN3zyn7Presets12deletepresetERNS_12PresetsStoreEi
ZynAddSubFX.so:_ZN3zyn7Presets13setpresettypeEPKc
ZynAddSubFX.so:_ZN3zyn7Presets18checkclipboardtypeERNS_12PresetsStoreE
ZynAddSubFX.so:_ZN3zyn7Presets4copyERNS_12PresetsStoreEPKc
ZynAddSubFX.so:_ZN3zyn7PresetsC1Ev
ZynAddSubFX.so:_ZN3zyn7PresetsC2Ev
ZynAddSubFX.so:_ZN3zyn7PresetsD0Ev
ZynAddSubFX.so:_ZN3zyn7PresetsD1Ev
ZynAddSubFX.so:_ZN3zyn7PresetsD2Ev
ZynAddSubFX.so:_ZN3zyn7SUBnote10chanOutputEPfPNS0_8bpfilterEi
ZynAddSubFX.so:_ZN3zyn7SUBnote10initfilterERNS0_8bpfilterEffffb
ZynAddSubFX.so:_ZN3zyn7SUBnote10legatonoteERKNS_12LegatoParamsE
ZynAddSubFX.so:_ZN3zyn7SUBnote10releasekeyEv
ZynAddSubFX.so:_ZN3zyn7SUBnote11cloneLegatoEv
ZynAddSubFX.so:_ZN3zyn7SUBnote12setupFiltersEfPib
ZynAddSubFX.so:_ZN3zyn7SUBnote14computerolloffEf
ZynAddSubFX.so:_ZN3zyn7SUBnote14initparametersEfPNS_12WatchManagerEPKc
ZynAddSubFX.so:_ZN3zyn7SUBnote18computefiltercoefsERNS0_8bpfilterEfff
ZynAddSubFX.so:_ZN3zyn7SUBnote21computeallfiltercoefsEPNS0_8bpfilterEfff
ZynAddSubFX.so:_ZN3zyn7SUBnote24computecurrentparametersEv
ZynAddSubFX.so:_ZN3zyn7SUBnote5setupEfPNS_10PortamentoEfbPNS_12WatchManagerEPKc
ZynAddSubFX.so:_ZN3zyn7SUBnote6entombEv
ZynAddSubFX.so:_ZN3zyn7SUBnote7noteoutEPfS1_
ZynAddSubFX.so:_ZN3zyn7SUBnote8KillNoteEv
ZynAddSubFX.so:_ZN3zyn7SUBnoteC1EPKNS_17SUBnoteParametersERKNS_11SynthParamsEPNS_12WatchManagerEPKc
ZynAddSubFX.so:_ZN3zyn7SUBnoteC2EPKNS_17SUBnoteParametersERKNS_11SynthParamsEPNS_12WatchManagerEPKc
ZynAddSubFX.so:_ZN3zyn7SUBnoteD0Ev
ZynAddSubFX.so:_ZN3zyn7SUBnoteD1Ev
ZynAddSubFX.so:_ZN3zyn7SUBnoteD2Ev
ZynAddSubFX.so:_ZN3zyn7SYNTH_T5aliasEb
ZynAddSubFX.so:_ZN3zyn7SYNTH_T9numRandomEv
ZynAddSubFX.so:_ZN3zyn7WavFile16writeMonoSamplesEiPs
ZynAddSubFX.so:_ZN3zyn7WavFile18writeStereoSamplesEiPs
ZynAddSubFX.so:_ZN3zyn7WavFileC1ENSt7__cxx1112basic_stringIcSt11char_traitsIcESaIcEEEii
ZynAddSubFX.so:_ZN3zyn7WavFileC2ENSt7__cxx1112basic_stringIcSt11char_traitsIcESaIcEEEii
ZynAddSubFX.so:_ZN3zyn7WavFileD1Ev
ZynAddSubFX.so:_ZN3zyn7WavFileD2Ev
ZynAddSubFX.so:_ZN3zyn7XmlNode3hasENSt7__cxx1112basic_stringIcSt11char_traitsIcESaIcEEE
ZynAddSubFX.so:_ZN3zyn7XmlNodeC1ENSt7__cxx1112basic_stringIcSt11char_traitsIcESaIcEEE
ZynAddSubFX.so:_ZN3zyn7XmlNodeC2ENSt7__cxx1112basic_stringIcSt11char_traitsIcESaIcEEE
ZynAddSubFX.so:_ZN3zyn7XmlNodeixENSt7__cxx1112basic_stringIcSt11char_traitsIcESaIcEEE
ZynAddSubFX.so:_ZN3zyn7captureINSt7__cxx1112basic_stringIcSt11char_traitsIcESaIcEEEEET_PNS_6MasterES6_
ZynAddSubFX.so:_ZN3zyn7captureIPvEET_PNS_6MasterENSt7__cxx1112basic_stringIcSt11char_traitsIcESaIcEEE
ZynAddSubFX.so:_ZN3zyn7floatEqEff
ZynAddSubFX.so:_ZN3zyn7osc_bp1Ejff
ZynAddSubFX.so:_ZN3zyn7osc_bp2Ejff
ZynAddSubFX.so:_ZN3zyn7osc_bs1Ejff
ZynAddSubFX.so:_ZN3zyn7osc_bs2Ejff
ZynAddSubFX.so:_ZN3zyn7osc_cosEjff
ZynAddSubFX.so:_ZN3zyn7osc_hp1Ejff
ZynAddSubFX.so:_ZN3zyn7osc_hp2Ejff
ZynAddSubFX.so:_ZN3zyn7osc_lp2Ejff
ZynAddSubFX.so:_ZN3zyn7osc_sinEjff
ZynAddSubFX.so:_ZN3zyn7verboseE
ZynAddSubFX.so:_ZN3zyn8Alienwah12getpresetparEhj
ZynAddSubFX.so:_ZN3zyn8Alienwah3outERKNS_6StereoIPfEE
ZynAddSubFX.so:_ZN3zyn8Alienwah5portsE
ZynAddSubFX.so:_ZN3zyn8Alienwah5setfbEh
ZynAddSubFX.so:_ZN3zyn8Alienwah7cleanupEv
ZynAddSubFX.so:_ZN3zyn8Alienwah8setdelayEh
ZynAddSubFX.so:_ZN3zyn8Alienwah8setdepthEh
ZynAddSubFX.so:_ZN3zyn8Alienwah8setphaseEh
ZynAddSubFX.so:_ZN3zyn8Alienwah9changeparEih
ZynAddSubFX.so:_ZN3zyn8Alienwah9setpresetEh
ZynAddSubFX.so:_ZN3zyn8Alienwah9setvolumeEh
ZynAddSubFX.so:_ZN3zyn8AlienwahC1ENS_12EffectParamsE
ZynAddSubFX.so:_ZN3zyn8AlienwahC2ENS_12EffectParamsE
ZynAddSubFX.so:_ZN3zyn8AlienwahD0Ev
ZynAddSubFX.so:_ZN3zyn8AlienwahD1Ev
ZynAddSubFX.so:_ZN3zyn8AlienwahD2Ev
ZynAddSubFX.so:_ZN3zyn8Envelope10releasekeyEv
ZynAddSubFX.so:_ZN3zyn8Envelope11forceFinishEv
ZynAddSubFX.so:_ZN3zyn8Envelope5watchEff
ZynAddSubFX.so:_ZN3zyn8Envelope6envoutEb
ZynAddSubFX.so:_ZN3zyn8Envelope9envout_dBEv
ZynAddSubFX.so:_ZN3zyn8EnvelopeC1ERNS_14EnvelopeParamsEffPNS_12WatchManagerEPKc
ZynAddSubFX.so:_ZN3zyn8EnvelopeC2ERNS_14EnvelopeParamsEffPNS_12WatchManagerEPKc
ZynAddSubFX.so:_ZN3zyn8EnvelopeD1Ev
ZynAddSubFX.so:_ZN3zyn8EnvelopeD2Ev
ZynAddSubFX.so:_ZN3zyn8NotePool10activeDescEv
ZynAddSubFX.so:_ZN3zyn8NotePool10insertNoteEhhNS0_15SynthDescriptorEPNS_18PortamentoRealtimeEb
ZynAddSubFX.so:_ZN3zyn8NotePool10limitVoiceEi
ZynAddSubFX.so:_ZN3zyn8NotePool11activeNotesERNS0_14NoteDescriptorE
ZynAddSubFX.so:_ZN3zyn8NotePool11applyLegatoEhRKNS_12LegatoParamsEPNS_18PortamentoRealtimeE
ZynAddSubFX.so:_ZN3zyn8NotePool12killAllNotesEv
ZynAddSubFX.so:_ZN3zyn8NotePool14NoteDescriptor17makeUnsustainableEv
ZynAddSubFX.so:_ZN3zyn8NotePool14NoteDescriptor9doSustainEv
ZynAddSubFX.so:_ZN3zyn8NotePool14NoteDescriptor9setStatusEh
ZynAddSubFX.so:_ZN3zyn8NotePool14NoteDescriptoreqES1_
ZynAddSubFX.so:_ZN3zyn8NotePool14releaseLatchedEv
ZynAddSubFX.so:_ZN3zyn8NotePool15enforceKeyLimitEi
ZynAddSubFX.so:_ZN3zyn8NotePool15upgradeToLegatoEv
ZynAddSubFX.so:_ZN3zyn8NotePool16insertLegatoNoteENS0_14NoteDescriptorENS0_15SynthDescriptorE
ZynAddSubFX.so:_ZN3zyn8NotePool17enforceVoiceLimitEii
ZynAddSubFX.so:_ZN3zyn8NotePool17makeUnsustainableEh
ZynAddSubFX.so:_ZN3zyn8NotePool19releasePlayingNotesEv
ZynAddSubFX.so:_ZN3zyn8NotePool22releaseSustainingNotesEv
ZynAddSubFX.so:_ZN3zyn8NotePool4dumpEv
ZynAddSubFX.so:_ZN3zyn8NotePool4killERNS0_14NoteDescriptorE
ZynAddSubFX.so:_ZN3zyn8NotePool4killERNS0_15SynthDescriptorE
ZynAddSubFX.so:_ZN3zyn8NotePool5latchERNS0_14NoteDescriptorE
ZynAddSubFX.so:_ZN3zyn8NotePool6entombERNS0_14NoteDescriptorE
ZynAddSubFX.so:_ZN3zyn8NotePool7cleanupEv
ZynAddSubFX.so:_ZN3zyn8NotePool7releaseERNS0_14NoteDescriptorE
ZynAddSubFX.so:_ZN3zyn8NotePool8killNoteEh
ZynAddSubFX.so:_ZN3zyn8NotePoolC1Ev
ZynAddSubFX.so:_ZN3zyn8NotePoolC2Ev
ZynAddSubFX.so:_ZN3zyn8OscilGen10getfromXMLERNS_10XMLwrapperE
ZynAddSubFX.so:_ZN3zyn8OscilGen11getspectrumEiPfi
ZynAddSubFX.so:_ZN3zyn8OscilGen11newrandseedEj
ZynAddSubFX.so:_ZN3zyn8OscilGen12convert2sineEv
ZynAddSubFX.so:_ZN3zyn8OscilGen14realtime_portsE
ZynAddSubFX.so:_ZN3zyn8OscilGen18non_realtime_portsE
ZynAddSubFX.so:_ZN3zyn8OscilGen22getcurrentbasefunctionENS_15FFTsampleBufferE
ZynAddSubFX.so:_ZN3zyn8OscilGen5pasteERS0_
ZynAddSubFX.so:_ZN3zyn8OscilGen5portsE
ZynAddSubFX.so:_ZN3zyn8OscilGen7add2XMLERNS_10XMLwrapperE
ZynAddSubFX.so:_ZN3zyn8OscilGen8defaultsEv
ZynAddSubFX.so:_ZN3zyn8OscilGen9useasbaseEv
ZynAddSubFX.so:_ZN3zyn8OscilGenC1ERKNS_7SYNTH_TEPNS_10FFTwrapperEPKNS_9ResonanceE
ZynAddSubFX.so:_ZN3zyn8OscilGenC2ERKNS_7SYNTH_TEPNS_10FFTwrapperEPKNS_9ResonanceE
ZynAddSubFX.so:_ZN3zyn8Recorder10triggernowEv
ZynAddSubFX.so:_ZN3zyn8Recorder11preparefileENSt7__cxx1112basic_stringIcSt11char_traitsIcESaIcEEEi
ZynAddSubFX.so:_ZN3zyn8Recorder4stopEv
ZynAddSubFX.so:_ZN3zyn8Recorder5pauseEv
ZynAddSubFX.so:_ZN3zyn8Recorder5portsE
ZynAddSubFX.so:_ZN3zyn8Recorder5startEv
ZynAddSubFX.so:_ZN3zyn8Recorder9recordingEv
ZynAddSubFX.so:_ZN3zyn8RecorderC1ERKNS_7SYNTH_TE
ZynAddSubFX.so:_ZN3zyn8RecorderC2ERKNS_7SYNTH_TE
ZynAddSubFX.so:_ZN3zyn8RecorderD1Ev
ZynAddSubFX.so:_ZN3zyn8RecorderD2Ev
ZynAddSubFX.so:_ZN3zyn8SVFilter13setfreq_and_qEff
ZynAddSubFX.so:_ZN3zyn8SVFilter15computeResponseEiffiff
ZynAddSubFX.so:_ZN3zyn8SVFilter15singlefilteroutEPfRNS0_6fstageERNS0_10parametersEi
ZynAddSubFX.so:_ZN3zyn8SVFilter18computefiltercoefsEv
ZynAddSubFX.so:_ZN3zyn8SVFilter19getfilteroutfortypeERNS0_6fstageE
ZynAddSubFX.so:_ZN3zyn8SVFilter4setqEf
ZynAddSubFX.so:_ZN3zyn8SVFilter7cleanupEv
ZynAddSubFX.so:_ZN3zyn8SVFilter7setfreqEf
ZynAddSubFX.so:_ZN3zyn8SVFilter7setgainEf
ZynAddSubFX.so:_ZN3zyn8SVFilter7settypeEi
ZynAddSubFX.so:_ZN3zyn8SVFilter8responseC1Effffff
ZynAddSubFX.so:_ZN3zyn8SVFilter8responseC2Effffff
ZynAddSubFX.so:_ZN3zyn8SVFilter9filteroutEPf
ZynAddSubFX.so:_ZN3zyn8SVFilter9setstagesEi
ZynAddSubFX.so:_ZN3zyn8SVFilterC1Ehffhji
ZynAddSubFX.so:_ZN3zyn8SVFilterC2Ehffhji
ZynAddSubFX.so:_ZN3zyn8SVFilterD0Ev
ZynAddSubFX.so:_ZN3zyn8SVFilterD1Ev
ZynAddSubFX.so:_ZN3zyn8SVFilterD2Ev
ZynAddSubFX.so:_ZN3zyn8isPluginE
ZynAddSubFX.so:_ZN3zyn8loadfileENSt7__cxx1112basic_stringIcSt11char_traitsIcESaIcEEE
ZynAddSubFX.so:_ZN3zyn8osc_hp1bEjff
ZynAddSubFX.so:_ZN3zyn8osc_lpskEjff
ZynAddSubFX.so:_ZN3zyn9Allocator14endTransactionEv
ZynAddSubFX.so:_ZN3zyn9Allocator16beginTransactionEv
ZynAddSubFX.so:_ZN3zyn9Allocator19rollbackTransactionEv
ZynAddSubFX.so:_ZN3zyn9AllocatorC1Ev
ZynAddSubFX.so:_ZN3zyn9AllocatorC2Ev
ZynAddSubFX.so:_ZN3zyn9AllocatorD0Ev
ZynAddSubFX.so:_ZN3zyn9AllocatorD1Ev
ZynAddSubFX.so:_ZN3zyn9AllocatorD2Ev
ZynAddSubFX.so:_ZN3zyn9BankEntryC1Ev
ZynAddSubFX.so:_ZN3zyn9BankEntryC2Ev
ZynAddSubFX.so:_ZN3zyn9EffectLFO11getlfoshapeEf
ZynAddSubFX.so:_ZN3zyn9EffectLFO12effectlfooutEPfS1_
ZynAddSubFX.so:_ZN3zyn9EffectLFO12updateparamsEv
ZynAddSubFX.so:_ZN3zyn9EffectLFOC1Eff
ZynAddSubFX.so:_ZN3zyn9EffectLFOC2Eff
ZynAddSubFX.so:_ZN3zyn9EffectLFOD1Ev
ZynAddSubFX.so:_ZN3zyn9EffectLFOD2Ev
ZynAddSubFX.so:_ZN3zyn9EffectMgr10getfromXMLERNS_10XMLwrapperE
ZynAddSubFX.so:_ZN3zyn9EffectMgr10setdryonlyEb
ZynAddSubFX.so:_ZN3zyn9EffectMgr12changeeffectEi
ZynAddSubFX.so:_ZN3zyn9EffectMgr12changepresetEh
ZynAddSubFX.so:_ZN3zyn9EffectMgr14changeeffectrtEib
ZynAddSubFX.so:_ZN3zyn9EffectMgr14changepresetrtEhb
ZynAddSubFX.so:_ZN3zyn9EffectMgr14geteffectparrtEi
ZynAddSubFX.so:_ZN3zyn9EffectMgr14seteffectparrtEih
ZynAddSubFX.so:_ZN3zyn9EffectMgr15sysefxgetvolumeEv
ZynAddSubFX.so:_ZN3zyn9EffectMgr16changesettingsrtEPKs
ZynAddSubFX.so:_ZN3zyn9EffectMgr17getEQfreqresponseEf
ZynAddSubFX.so:_ZN3zyn9EffectMgr3outEPfS1_
ZynAddSubFX.so:_ZN3zyn9EffectMgr4initEv
ZynAddSubFX.so:_ZN3zyn9EffectMgr4killEv
ZynAddSubFX.so:_ZN3zyn9EffectMgr5pasteERS0_
ZynAddSubFX.so:_ZN3zyn9EffectMgr5portsE
ZynAddSubFX.so:_ZN3zyn9EffectMgr7add2XMLERNS_10XMLwrapperE
ZynAddSubFX.so:_ZN3zyn9EffectMgr7cleanupEv
ZynAddSubFX.so:_ZN3zyn9EffectMgr8defaultsEv
ZynAddSubFX.so:_ZN3zyn9EffectMgr9geteffectEv
ZynAddSubFX.so:_ZN3zyn9EffectMgr9getpresetEv
ZynAddSubFX.so:_ZN3zyn9EffectMgrC1ERNS_9AllocatorERKNS_7SYNTH_TEbPKNS_7AbsTimeE
ZynAddSubFX.so:_ZN3zyn9EffectMgrC2ERNS_9AllocatorERKNS_7SYNTH_TEbPKNS_7AbsTimeE
ZynAddSubFX.so:_ZN3zyn9EffectMgrD0Ev
ZynAddSubFX.so:_ZN3zyn9EffectMgrD1Ev
ZynAddSubFX.so:_ZN3zyn9EffectMgrD2Ev
ZynAddSubFX.so:_ZN3zyn9LFOParams10getfromXMLERNS_10XMLwrapperE
ZynAddSubFX.so:_ZN3zyn9LFOParams5pasteERS0_
ZynAddSubFX.so:_ZN3zyn9LFOParams5portsE
ZynAddSubFX.so:_ZN3zyn9LFOParams5setupEv
ZynAddSubFX.so:_ZN3zyn9LFOParams7add2XMLERNS_10XMLwrapperE
ZynAddSubFX.so:_ZN3zyn9LFOParams8defaultsEv
ZynAddSubFX.so:_ZN3zyn9LFOParamsC1EPKNS_7AbsTimeE
ZynAddSubFX.so:_ZN3zyn9LFOParamsC1EfcccccfffciPKNS_7AbsTimeE
ZynAddSubFX.so:_ZN3zyn9LFOParamsC1EiPKNS_7AbsTimeE
ZynAddSubFX.so:_ZN3zyn9LFOParamsC2EPKNS_7AbsTimeE
ZynAddSubFX.so:_ZN3zyn9LFOParamsC2EfcccccfffciPKNS_7AbsTimeE
ZynAddSubFX.so:_ZN3zyn9LFOParamsC2EiPKNS_7AbsTimeE
ZynAddSubFX.so:_ZN3zyn9LFOParamsD0Ev
ZynAddSubFX.so:_ZN3zyn9LFOParamsD1Ev
ZynAddSubFX.so:_ZN3zyn9LFOParamsD2Ev
ZynAddSubFX.so:_ZN3zyn9ModFilter11paramUpdateERPNS_6FilterE
ZynAddSubFX.so:_ZN3zyn9ModFilter11updateSenseEfhh
ZynAddSubFX.so:_ZN3zyn9ModFilter13anParamUpdateERNS_12AnalogFilterE
ZynAddSubFX.so:_ZN3zyn9ModFilter13cbParamUpdateERNS_10CombFilterE
ZynAddSubFX.so:_ZN3zyn9ModFilter13mgParamUpdateERNS_10MoogFilterE
ZynAddSubFX.so:_ZN3zyn9ModFilter13svParamUpdateERNS_8SVFilterE
ZynAddSubFX.so:_ZN3zyn9ModFilter14updateNoteFreqEf
ZynAddSubFX.so:_ZN3zyn9ModFilter6addModERNS_3LFOE
ZynAddSubFX.so:_ZN3zyn9ModFilter6addModERNS_8EnvelopeE
ZynAddSubFX.so:_ZN3zyn9ModFilter6filterEPfS1_
ZynAddSubFX.so:_ZN3zyn9ModFilter6updateEff
ZynAddSubFX.so:_ZN3zyn9ModFilterC1ERKNS_12FilterParamsERKNS_7SYNTH_TERKNS_7AbsTimeERNS_9AllocatorEbf
ZynAddSubFX.so:_ZN3zyn9ModFilterC2ERKNS_12FilterParamsERKNS_7SYNTH_TERKNS_7AbsTimeERNS_9AllocatorEbf
ZynAddSubFX.so:_ZN3zyn9ModFilterD1Ev
ZynAddSubFX.so:_ZN3zyn9ModFilterD2Ev
ZynAddSubFX.so:_ZN3zyn9Resonance10getfromXMLERNS_10XMLwrapperE
ZynAddSubFX.so:_ZN3zyn9Resonance14sendcontrollerENS_15MidiControllersEf
ZynAddSubFX.so:_ZN3zyn9Resonance16interpolatepeaksEi
ZynAddSubFX.so:_ZN3zyn9Resonance4zeroEv
ZynAddSubFX.so:_ZN3zyn9Resonance5pasteERS0_
ZynAddSubFX.so:_ZN3zyn9Resonance5portsE
ZynAddSubFX.so:_ZN3zyn9Resonance6smoothEv
ZynAddSubFX.so:_ZN3zyn9Resonance7add2XMLERNS_10XMLwrapperE
ZynAddSubFX.so:_ZN3zyn9Resonance8defaultsEv
ZynAddSubFX.so:_ZN3zyn9Resonance8setpointEih
ZynAddSubFX.so:_ZN3zyn9Resonance9randomizeEi
ZynAddSubFX.so:_ZN3zyn9ResonanceC1Ev
ZynAddSubFX.so:_ZN3zyn9ResonanceC2Ev
ZynAddSubFX.so:_ZN3zyn9ResonanceD0Ev
ZynAddSubFX.so:_ZN3zyn9ResonanceD1Ev
ZynAddSubFX.so:_ZN3zyn9ResonanceD2Ev
ZynAddSubFX.so:_ZN3zyn9SynthNote11setVelocityEf
ZynAddSubFX.so:_ZN3zyn9SynthNote13getRandomUintEv
ZynAddSubFX.so:_ZN3zyn9SynthNote14getRandomFloatEv
ZynAddSubFX.so:_ZN3zyn9SynthNote15setFilterCutoffEf
ZynAddSubFX.so:_ZN3zyn9SynthNote22getFilterCutoffRelFreqEv
ZynAddSubFX.so:_ZN3zyn9SynthNote6Legato5applyERS0_PfS3_
ZynAddSubFX.so:_ZN3zyn9SynthNote6Legato6updateERKNS_12LegatoParamsE
ZynAddSubFX.so:_ZN3zyn9SynthNote6LegatoC1ERKNS_7SYNTH_TEfPNS_10PortamentoEfbj
ZynAddSubFX.so:_ZN3zyn9SynthNote6LegatoC2ERKNS_7SYNTH_TEfPNS_10PortamentoEfbj
ZynAddSubFX.so:_ZN3zyn9SynthNote8setPitchEf
ZynAddSubFX.so:_ZN3zyn9SynthNoteC1ERKNS_11SynthParamsE
ZynAddSubFX.so:_ZN3zyn9SynthNoteC2ERKNS_11SynthParamsE
ZynAddSubFX.so:_ZN3zyn9bankPortsE
ZynAddSubFX.so:_ZN3zyn9getFilterEh
ZynAddSubFX.so:_ZN3zyn9getStatusEi
ZynAddSubFX.so:_ZN3zyn9getdetuneEhtt
ZynAddSubFX.so:_ZN3zyn9invSignalEPfm
ZynAddSubFX.so:_ZN3zyn9normalizeEPSt7complexIfEi
ZynAddSubFX.so:_ZN3zyn9os_usleepEl
ZynAddSubFX.so:_ZN3zynlsERSoRKNS_12version_typeE
ZynAddSubFX.so:_ZN3zynmlEfSt7complexIfE
ZynAddSubFX.so:_ZN5rtosc10ClonePortsC1ERKNS_5PortsESt16initializer_listINS_9ClonePortEE
ZynAddSubFX.so:_ZN5rtosc10ClonePortsC2ERKNS_5PortsESt16initializer_listINS_9ClonePortEE
ZynAddSubFX.so:_ZN5rtosc10MergePortsC1ESt16initializer_listIPKNS_5PortsEE
ZynAddSubFX.so:_ZN5rtosc10MergePortsC2ESt16initializer_listIPKNS_5PortsEE
ZynAddSubFX.so:_ZN5rtosc10ThreadLink10writeArrayEPKcS2_PK11rtosc_arg_t
ZynAddSubFX.so:_ZN5rtosc10ThreadLink14read_lookaheadEv
ZynAddSubFX.so:_ZN5rtosc10ThreadLink4readEb
ZynAddSubFX.so:_ZN5rtosc10ThreadLink4readEv
ZynAddSubFX.so:_ZN5rtosc10ThreadLink5writeEPKcS2_z
ZynAddSubFX.so:_ZN5rtosc10ThreadLink6bufferEv
ZynAddSubFX.so:_ZN5rtosc10ThreadLink9raw_writeEPKc
ZynAddSubFX.so:_ZN5rtosc10ThreadLinkC1Emm
ZynAddSubFX.so:_ZN5rtosc10ThreadLinkC2Emm
ZynAddSubFX.so:_ZN5rtosc10ThreadLinkD1Ev
ZynAddSubFX.so:_ZN5rtosc10ThreadLinkD2Ev
ZynAddSubFX.so:_ZN5rtosc10walk_portsEPKNS_5PortsEPcmPvPFvPKNS_4PortEPKcS9_RS1_S4_S4_EbS4_b
ZynAddSubFX.so:_ZN5rtosc11UndoHistory11recordEventEPKc
ZynAddSubFX.so:_ZN5rtosc11UndoHistory11seekHistoryEi
ZynAddSubFX.so:_ZN5rtosc11UndoHistory11setCallbackESt8functionIFvPKcEE
ZynAddSubFX.so:_ZN5rtosc11UndoHistoryC1Ev
ZynAddSubFX.so:_ZN5rtosc11UndoHistoryC2Ev
ZynAddSubFX.so:_ZN5rtosc11UndoHistoryD1Ev
ZynAddSubFX.so:_ZN5rtosc11UndoHistoryD2Ev
ZynAddSubFX.so:_ZN5rtosc11path_searchERKNS_5PortsEPKcS4_PcmP11rtosc_arg_tmNS_16path_search_optsEb
ZynAddSubFX.so:_ZN5rtosc11path_searchERKNS_5PortsEPKcmPcmNS_16path_search_optsEb
ZynAddSubFX.so:_ZN5rtosc12MidiMapperRT12addWatchPortEv
ZynAddSubFX.so:_ZN5rtosc12MidiMapperRT12setBackendCbESt8functionIFvPKcEE
ZynAddSubFX.so:_ZN5rtosc12MidiMapperRT13setFrontendCbESt8functionIFvPKcEE
ZynAddSubFX.so:_ZN5rtosc12MidiMapperRT15removeWatchPortEv
ZynAddSubFX.so:_ZN5rtosc12MidiMapperRT5portsE
ZynAddSubFX.so:_ZN5rtosc12MidiMapperRT8addWatchEv
ZynAddSubFX.so:_ZN5rtosc12MidiMapperRT8bindPortEv
ZynAddSubFX.so:_ZN5rtosc12MidiMapperRT8handleCCEiicb
ZynAddSubFX.so:_ZN5rtosc12MidiMapperRT8remWatchEv
ZynAddSubFX.so:_ZN5rtosc12MidiMapperRTC1Ev
ZynAddSubFX.so:_ZN5rtosc12MidiMapperRTC2Ev
ZynAddSubFX.so:_ZN5rtosc12map_arg_valsEP15rtosc_arg_val_tmNS_4Port13MetaContainerE
ZynAddSubFX.so:_ZN5rtosc12save_to_fileERKNS_5PortsEPvPKc13rtosc_versionRSt3setINSt7__cxx1112basic_stringIcSt11char_traitsIcESaIcEEESt4lessISD_ESaISD_EERKSt6vectorISD_SG_ESD_
ZynAddSubFX.so:_ZN5rtosc13AutomationMgr10handleMidiEiii
ZynAddSubFX.so:_ZN5rtosc13AutomationMgr10setSlotSubEiif
ZynAddSubFX.so:_ZN5rtosc13AutomationMgr11simpleSlopeEiiff
ZynAddSubFX.so:_ZN5rtosc13AutomationMgr12clearSlotSubEii
ZynAddSubFX.so:_ZN5rtosc13AutomationMgr12set_instanceEPv
ZynAddSubFX.so:_ZN5rtosc13AutomationMgr13createBindingEiPKcb
ZynAddSubFX.so:_ZN5rtosc13AutomationMgr13updateMappingEii
ZynAddSubFX.so:_ZN5rtosc13AutomationMgr14getSlotSubGainEii
ZynAddSubFX.so:_ZN5rtosc13AutomationMgr14setSlotSubGainEiif
ZynAddSubFX.so:_ZN5rtosc13AutomationMgr14setSlotSubPathEiiPKc
ZynAddSubFX.so:_ZN5rtosc13AutomationMgr16getSlotSubOffsetEii
ZynAddSubFX.so:_ZN5rtosc13AutomationMgr16setSlotSubOffsetEiif
ZynAddSubFX.so:_ZN5rtosc13AutomationMgr18setparameternumberEji
ZynAddSubFX.so:_ZN5rtosc13AutomationMgr7getNameEi
ZynAddSubFX.so:_ZN5rtosc13AutomationMgr7getSlotEi
ZynAddSubFX.so:_ZN5rtosc13AutomationMgr7getnrpnEPiS1_S1_S1_
ZynAddSubFX.so:_ZN5rtosc13AutomationMgr7setNameEiPKc
ZynAddSubFX.so:_ZN5rtosc13AutomationMgr7setSlotEif
ZynAddSubFX.so:_ZN5rtosc13AutomationMgr9clearSlotEi
ZynAddSubFX.so:_ZN5rtosc13AutomationMgr9set_portsERKNS_5PortsE
ZynAddSubFX.so:_ZN5rtosc13AutomationMgrC1Eiii
ZynAddSubFX.so:_ZN5rtosc13AutomationMgrC2Eiii
ZynAddSubFX.so:_ZN5rtosc13AutomationMgrD1Ev
ZynAddSubFX.so:_ZN5rtosc13AutomationMgrD2Ev
ZynAddSubFX.so:_ZN5rtosc13MidiMappernRT10apply_highEii
ZynAddSubFX.so:_ZN5rtosc13MidiMappernRT10apply_midiEii
ZynAddSubFX.so:_ZN5rtosc13MidiMappernRT10delMappingEibPKc
ZynAddSubFX.so:_ZN5rtosc13MidiMappernRT10hasPendingENSt7__cxx1112basic_stringIcSt11char_traitsIcESaIcEEE
ZynAddSubFX.so:_ZN5rtosc13MidiMappernRT12addNewMapperEiRKNS_4PortENSt7__cxx1112basic_stringIcSt11char_traitsIcESaIcEEE
ZynAddSubFX.so:_ZN5rtosc13MidiMappernRT12getBijectionENSt7__cxx1112basic_stringIcSt11char_traitsIcESaIcEEE
ZynAddSubFX.so:_ZN5rtosc13MidiMappernRT13addFineMapperEiRKNS_4PortENSt7__cxx1112basic_stringIcSt11char_traitsIcESaIcEEE
ZynAddSubFX.so:_ZN5rtosc13MidiMappernRT14hasFinePendingENSt7__cxx1112basic_stringIcSt11char_traitsIcESaIcEEE
ZynAddSubFX.so:_ZN5rtosc13MidiMappernRT14replaceMappingEibPKc
ZynAddSubFX.so:_ZN5rtosc13MidiMappernRT15getMappedStringENSt7__cxx1112basic_stringIcSt11char_traitsIcESaIcEEE
ZynAddSubFX.so:_ZN5rtosc13MidiMappernRT16hasCoarsePendingENSt7__cxx1112basic_stringIcSt11char_traitsIcESaIcEEE
ZynAddSubFX.so:_ZN5rtosc13MidiMappernRT20generateNewBijectionERKNS_4PortENSt7__cxx1112basic_stringIcSt11char_traitsIcESaIcEEE
ZynAddSubFX.so:_ZN5rtosc13MidiMappernRT21getMidiMappingStringsB5cxx11Ev
ZynAddSubFX.so:_ZN5rtosc13MidiMappernRT3hasENSt7__cxx1112basic_stringIcSt11char_traitsIcESaIcEEE
ZynAddSubFX.so:_ZN5rtosc13MidiMappernRT3mapEPKcb
ZynAddSubFX.so:_ZN5rtosc13MidiMappernRT5clearEv
ZynAddSubFX.so:_ZN5rtosc13MidiMappernRT5snoopEPKc
ZynAddSubFX.so:_ZN5rtosc13MidiMappernRT5unMapEPKcb
ZynAddSubFX.so:_ZN5rtosc13MidiMappernRT7getFineENSt7__cxx1112basic_stringIcSt11char_traitsIcESaIcEEE
ZynAddSubFX.so:_ZN5rtosc13MidiMappernRT7hasFineENSt7__cxx1112basic_stringIcSt11char_traitsIcESaIcEEE
ZynAddSubFX.so:_ZN5rtosc13MidiMappernRT9apply_lowEii
ZynAddSubFX.so:_ZN5rtosc13MidiMappernRT9getBoundsEPKc
ZynAddSubFX.so:_ZN5rtosc13MidiMappernRT9getCoarseENSt7__cxx1112basic_stringIcSt11char_traitsIcESaIcEEE
ZynAddSubFX.so:_ZN5rtosc13MidiMappernRT9hasCoarseENSt7__cxx1112basic_stringIcSt11char_traitsIcESaIcEEE
ZynAddSubFX.so:_ZN5rtosc13MidiMappernRT9setBoundsEPKcff
ZynAddSubFX.so:_ZN5rtosc13MidiMappernRT9useFreeIDEi
ZynAddSubFX.so:_ZN5rtosc13MidiMappernRTC1Ev
ZynAddSubFX.so:_ZN5rtosc13MidiMappernRTC2Ev
ZynAddSubFX.so:_ZN5rtosc14getUndoAddressEPKc
ZynAddSubFX.so:_ZN5rtosc14load_from_fileEPKcRKNS_5PortsEPvS1_13rtosc_versionPNS_21savefile_dispatcher_tE
ZynAddSubFX.so:_ZN5rtosc15UndoHistoryImpl10mergeEventElPKcPcm
ZynAddSubFX.so:_ZN5rtosc15UndoHistoryImpl5clearEv
ZynAddSubFX.so:_ZN5rtosc15UndoHistoryImpl6replayEPKc
ZynAddSubFX.so:_ZN5rtosc15UndoHistoryImpl6rewindEPKc
ZynAddSubFX.so:_ZN5rtosc17MidiMapperStorage11cloneValuesERKS0_
ZynAddSubFX.so:_ZN5rtosc17MidiMapperStorage5cloneEv
ZynAddSubFX.so:_ZN5rtosc17MidiMapperStorage8handleCCEiiSt8functionIFvPKcEE
ZynAddSubFX.so:_ZN5rtosc17enum_key_from_msgENS_4Port13MetaContainerEPKc
ZynAddSubFX.so:_ZN5rtosc17first_equal_indexEPK15rtosc_arg_val_tPS0_mm
ZynAddSubFX.so:_ZN5rtosc17get_default_valueEPKcRKNS_5PortsEPvPKNS_4PortEii
ZynAddSubFX.so:_ZN5rtosc17get_default_valueEPKcS1_RKNS_5PortsEPvPKNS_4PortEimP15rtosc_arg_val_tPcm
ZynAddSubFX.so:_ZN5rtosc18get_changed_valuesERKNS_5PortsEPvRSt3setINSt7__cxx1112basic_stringIcSt11char_traitsIcESaIcEEESt4lessISA_ESaISA_EERKSt6vectorISA_SD_E
ZynAddSubFX.so:_ZN5rtosc18rtosc_arg_val_sizeEc
ZynAddSubFX.so:_ZN5rtosc21canonicalize_arg_valsEP15rtosc_arg_val_tmPKcNS_4Port13MetaContainerE
ZynAddSubFX.so:_ZN5rtosc21savefile_dispatcher_t11do_dispatchEPKc
ZynAddSubFX.so:_ZN5rtosc21savefile_dispatcher_t11on_dispatchEmPcmmP15rtosc_arg_val_t
ZynAddSubFX.so:_ZN5rtosc21savefile_dispatcher_t16default_responseEm
ZynAddSubFX.so:_ZN5rtosc25dispatch_printed_messagesEPKcRKNS_5PortsEPvPNS_21savefile_dispatcher_tE
ZynAddSubFX.so:_ZN5rtosc4Port12MetaIteratorC1EPKc
ZynAddSubFX.so:_ZN5rtosc4Port12MetaIteratorC2EPKc
ZynAddSubFX.so:_ZN5rtosc4Port12MetaIteratorppEv
ZynAddSubFX.so:_ZN5rtosc4Port13MetaContainerC1EPKc
ZynAddSubFX.so:_ZN5rtosc4Port13MetaContainerC2EPKc
ZynAddSubFX.so:_ZN5rtosc5Ports12collapsePathEPc
ZynAddSubFX.so:_ZN5rtosc5Ports12refreshMagicEv
ZynAddSubFX.so:_ZN5rtosc5PortsC1ESt16initializer_listINS_4PortEE
ZynAddSubFX.so:_ZN5rtosc5PortsC2ESt16initializer_listINS_4PortEE
ZynAddSubFX.so:_ZN5rtosc5PortsD1Ev
ZynAddSubFX.so:_ZN5rtosc5PortsD2Ev
ZynAddSubFX.so:_ZN5rtosc6RtData10chainArrayEPKcS2_P11rtosc_arg_t
ZynAddSubFX.so:_ZN5rtosc6RtData10push_indexEi
ZynAddSubFX.so:_ZN5rtosc6RtData10replyArrayEPKcS2_P11rtosc_arg_t
ZynAddSubFX.so:_ZN5rtosc6RtData14broadcastArrayEPKcS2_P11rtosc_arg_t
ZynAddSubFX.so:_ZN5rtosc6RtData5chainEPKc
ZynAddSubFX.so:_ZN5rtosc6RtData5chainEPKcS2_z
ZynAddSubFX.so:_ZN5rtosc6RtData5replyEPKc
ZynAddSubFX.so:_ZN5rtosc6RtData5replyEPKcS2_z
ZynAddSubFX.so:_ZN5rtosc6RtData7forwardEPKc
ZynAddSubFX.so:_ZN5rtosc6RtData9broadcastEPKc
ZynAddSubFX.so:_ZN5rtosc6RtData9broadcastEPKcS2_z
ZynAddSubFX.so:_ZN5rtosc6RtData9pop_indexEv
ZynAddSubFX.so:_ZN5rtosc6RtDataC1Ev
ZynAddSubFX.so:_ZN5rtosc6RtDataC2Ev
ZynAddSubFX.so:_ZN5rtosc7helpers22get_value_from_runtimeEPvRKNS_4PortEmPcPKcmmP15rtosc_arg_val_tPSt6vectorISA_IcSaIcEESaISC_EE
ZynAddSubFX.so:_ZN5rtosc7helpers22get_value_from_runtimeEPvRKNS_5PortsEmPcS5_mi
ZynAddSubFX.so:_ZN5rtosc8enum_keyENS_4Port13MetaContainerEPKc
ZynAddSubFX.so:_ZN5rtosc9scan_depsERKNSt7__cxx1112basic_stringIcSt11char_traitsIcESaIcEEES5_RKNS_5PortsERKSt3mapIS5_PNS_9message_tESt4lessIS5_ESaISt4pairIS6_SD_EEERKSt6vectorISC_SaISC_EE
ZynAddSubFX.so:_ZN5rtosclsERSoRNS_15OscDocFormatterE
ZynAddSubFX.so:_ZN7DISTRHO12createPluginEv
ZynAddSubFX.so:_ZN7DISTRHO14PluginExporter15sFallbackRangesE
ZynAddSubFX.so:_ZN7DISTRHO14PluginExporter15sFallbackStringE
ZynAddSubFX.so:_ZN7DISTRHO14PluginExporter18sFallbackAudioPortE
ZynAddSubFX.so:_ZN7DISTRHO14PluginExporter18sFallbackPortGroupE
ZynAddSubFX.so:_ZN7DISTRHO14PluginExporter19sFallbackEnumValuesE
ZynAddSubFX.so:_ZN7DISTRHO14snprintf_paramEPcfm
ZynAddSubFX.so:_ZN7DISTRHO15snprintf_iparamEPcim
ZynAddSubFX.so:_ZN7DISTRHO16d_lastBufferSizeE
ZynAddSubFX.so:_ZN7DISTRHO16d_lastSampleRateE
ZynAddSubFX.so:_ZN7DISTRHO17lv2_work_responseEPvjPKv
ZynAddSubFX.so:_ZN7DISTRHO37d_lastCanRequestParameterValueChangesE
ZynAddSubFX.so:_ZN7DISTRHO6Plugin13initAudioPortEbjRNS_9AudioPortE
ZynAddSubFX.so:_ZN7DISTRHO6Plugin13initPortGroupEjRNS_9PortGroupE
ZynAddSubFX.so:_ZN7DISTRHO6Plugin17bufferSizeChangedEj
ZynAddSubFX.so:_ZN7DISTRHO6Plugin17sampleRateChangedEd
ZynAddSubFX.so:_ZN7DISTRHO6PluginC1Ejjj
ZynAddSubFX.so:_ZN7DISTRHO6PluginC2Ejjj
ZynAddSubFX.so:_ZN7DISTRHO6PluginD0Ev
ZynAddSubFX.so:_ZN7DISTRHO6PluginD1Ev
ZynAddSubFX.so:_ZN7DISTRHO6PluginD2Ev
ZynAddSubFX.so:_ZN7DISTRHO7strncpyEPcPKcm
ZynAddSubFX.so:_ZN7DISTRHO8lv2_workEPvPF17LV2_Worker_StatusS0_jPKvES0_jS3_
ZynAddSubFX.so:_ZNK3zyn10Distortion6getparEi
ZynAddSubFX.so:_ZNK3zyn10FFTwrapper10freqs2smpsENS_13FFTfreqBufferENS_15FFTsampleBufferES1_
ZynAddSubFX.so:_ZNK3zyn10FFTwrapper10smps2freqsENS_15FFTsampleBufferENS_13FFTfreqBufferES1_
ZynAddSubFX.so:_ZNK3zyn10FFTwrapper24freqs2smps_noconst_inputENS_13FFTfreqBufferENS_15FFTsampleBufferE
ZynAddSubFX.so:_ZNK3zyn10FFTwrapper24smps2freqs_noconst_inputENS_15FFTsampleBufferENS_13FFTfreqBufferE
ZynAddSubFX.so:_ZNK3zyn10Microtonal11getnotefreqEfi
ZynAddSubFX.so:_ZNK3zyn10Microtonal13getoctavesizeEv
ZynAddSubFX.so:_ZNK3zyn10Microtonal19updatenotefreq_log2ERfi
ZynAddSubFX.so:_ZNK3zyn10Microtonal7add2XMLERNS_10XMLwrapperE
ZynAddSubFX.so:_ZNK3zyn10Microtonal7saveXMLEPKc
ZynAddSubFX.so:_ZNK3zyn10MicrotonaleqERKS0_
ZynAddSubFX.so:_ZNK3zyn10MicrotonalneERKS0_
ZynAddSubFX.so:_ZNK3zyn10MiddleWare13checkAutoSaveEv
ZynAddSubFX.so:_ZNK3zyn10MiddleWare13getServerPortEv
ZynAddSubFX.so:_ZNK3zyn10MiddleWare14getProgramNameB5cxx11Ei
ZynAddSubFX.so:_ZNK3zyn10MiddleWare15getPresetsStoreEv
ZynAddSubFX.so:_ZNK3zyn10MiddleWare16getServerAddressEv
ZynAddSubFX.so:_ZNK3zyn10MiddleWare8getSynthEv
ZynAddSubFX.so:_ZNK3zyn10MiddleWare9activeUrlB5cxx11Ev
ZynAddSubFX.so:_ZNK3zyn10XMLwrapper10doloadfileERKNSt7__cxx1112basic_stringIcSt11char_traitsIcESaIcEEE
ZynAddSubFX.so:_ZNK3zyn10XMLwrapper10dosavefileEPKciS2_
ZynAddSubFX.so:_ZNK3zyn10XMLwrapper10getXMLdataEv
ZynAddSubFX.so:_ZNK3zyn10XMLwrapper10getparboolERKNSt7__cxx1112basic_stringIcSt11char_traitsIcESaIcEEEi
ZynAddSubFX.so:_ZNK3zyn10XMLwrapper10getparrealEPKcf
ZynAddSubFX.so:_ZNK3zyn10XMLwrapper10getparrealEPKcfff
ZynAddSubFX.so:_ZNK3zyn10XMLwrapper10hasparrealEPKc
ZynAddSubFX.so:_ZNK3zyn10XMLwrapper11getbranchidEii
ZynAddSubFX.so:_ZNK3zyn10XMLwrapper11hasPadSynthEv
ZynAddSubFX.so:_ZNK3zyn10XMLwrapper11saveXMLfileERKNSt7__cxx1112basic_stringIcSt11char_traitsIcESaIcEEEi
ZynAddSubFX.so:_ZNK3zyn10XMLwrapper6getparERKNSt7__cxx1112basic_stringIcSt11char_traitsIcESaIcEEEiii
ZynAddSubFX.so:_ZNK3zyn10XMLwrapper9addparamsEPKcjz
ZynAddSubFX.so:_ZNK3zyn10XMLwrapper9getBranchEv
ZynAddSubFX.so:_ZNK3zyn10XMLwrapper9getpar127ERKNSt7__cxx1112basic_stringIcSt11char_traitsIcESaIcEEEi
ZynAddSubFX.so:_ZNK3zyn10XMLwrapper9getparstrERKNSt7__cxx1112basic_stringIcSt11char_traitsIcESaIcEEEPci
ZynAddSubFX.so:_ZNK3zyn10XMLwrapper9getparstrERKNSt7__cxx1112basic_stringIcSt11char_traitsIcESaIcEEES8_
ZynAddSubFX.so:_ZNK3zyn11Sympathetic6getparEi
ZynAddSubFX.so:_ZNK3zyn12FilterParams10getfreqposEf
ZynAddSubFX.so:_ZNK3zyn12FilterParams11getformantqEh
ZynAddSubFX.so:_ZNK3zyn12FilterParams13getcenterfreqEv
ZynAddSubFX.so:_ZNK3zyn12FilterParams13getformantampEh
ZynAddSubFX.so:_ZNK3zyn12FilterParams14getformantfreqEh
ZynAddSubFX.so:_ZNK3zyn12FilterParams14getoctavesfreqEv
ZynAddSubFX.so:_ZNK3zyn12FilterParams15getfreqtrackingEf
ZynAddSubFX.so:_ZNK3zyn12FilterParams4getqEv
ZynAddSubFX.so:_ZNK3zyn12FilterParams7getfreqEv
ZynAddSubFX.so:_ZNK3zyn12FilterParams7getgainEv
ZynAddSubFX.so:_ZNK3zyn12FilterParams8getfreqxEf
ZynAddSubFX.so:_ZNK3zyn12PresetsStore12presetstructltERKS1_
ZynAddSubFX.so:_ZNK3zyn12WatchManager14trigger_activeEPKc
ZynAddSubFX.so:_ZNK3zyn12WatchManager6activeEPKc
ZynAddSubFX.so:_ZNK3zyn12WatchManager7samplesEPKc
ZynAddSubFX.so:_ZNK3zyn13DynamicFilter6getparEi
ZynAddSubFX.so:_ZNK3zyn14AllocatorClass9lowMemoryEjm
ZynAddSubFX.so:_ZNK3zyn14EnvelopeParams5getdtEc
ZynAddSubFX.so:_ZNK3zyn16ADnoteParameters28getBandwidthDetuneMultiplierEv
ZynAddSubFX.so:_ZNK3zyn16ADnoteParameters29getUnisonFrequencySpreadCentsEi
ZynAddSubFX.so:_ZNK3zyn16ADnoteVoiceParam29getUnisonFrequencySpreadCentsEv
ZynAddSubFX.so:_ZNK3zyn17PADnoteParameters27generatespectrum_otherModesEPfif
ZynAddSubFX.so:_ZNK3zyn17PADnoteParameters30generatespectrum_bandwidthModeEPfifPKfif
ZynAddSubFX.so:_ZNK3zyn17PADnoteParameters6getNhrEi
ZynAddSubFX.so:_ZNK3zyn17SUBnoteParameters15activeHarmonicsEPiRi
ZynAddSubFX.so:_ZNK3zyn2EQ6getparEi
ZynAddSubFX.so:_ZNK3zyn2EQ9getFilterEPfS1_
ZynAddSubFX.so:_ZNK3zyn4Bank10bankstructltERKS1_
ZynAddSubFX.so:_ZNK3zyn4Bank18normalizedirsuffixERNSt7__cxx1112basic_stringIcSt11char_traitsIcESaIcEEE
ZynAddSubFX.so:_ZNK3zyn4Bank6searchENSt7__cxx1112basic_stringIcSt11char_traitsIcESaIcEEE
ZynAddSubFX.so:_ZNK3zyn4Echo6getparEi
ZynAddSubFX.so:_ZNK3zyn4Part11cloneTraitsERS0_
ZynAddSubFX.so:_ZNK3zyn4Part11getVelocityEhhh
ZynAddSubFX.so:_ZNK3zyn4Part11monomemBackEv
ZynAddSubFX.so:_ZNK3zyn4Part12monomemEmptyEv
ZynAddSubFX.so:_ZNK3zyn4Part3Kit6activeEv
ZynAddSubFX.so:_ZNK3zyn4Part3Kit6sendtoEv
ZynAddSubFX.so:_ZNK3zyn4Part3Kit9validNoteEc
ZynAddSubFX.so:_ZNK3zyn6ADnote8finishedEv
ZynAddSubFX.so:_ZNK3zyn6BankDb10processXizENSt7__cxx1112basic_stringIcSt11char_traitsIcESaIcEEES6_RSt3mapIS6_NS_9BankEntryESt4lessIS6_ESaISt4pairIKS6_S8_EEE
ZynAddSubFX.so:_ZNK3zyn6BankDb6searchENSt7__cxx1112basic_stringIcSt11char_traitsIcESaIcEEE
ZynAddSubFX.so:_ZNK3zyn6Chorus6getparEi
ZynAddSubFX.so:_ZNK3zyn6Config10saveConfigEPKc
ZynAddSubFX.so:_ZNK3zyn6Config17getConfigFileNameEPci
ZynAddSubFX.so:_ZNK3zyn6Config4saveEv
ZynAddSubFX.so:_ZNK3zyn6Master11hasMasterCbEv
ZynAddSubFX.so:_ZNK3zyn6Phaser6getparEi
ZynAddSubFX.so:_ZNK3zyn6Reverb6getparEi
ZynAddSubFX.so:_ZNK3zyn7PADnote8finishedEv
ZynAddSubFX.so:_ZNK3zyn7SUBnote8finishedEv
ZynAddSubFX.so:_ZNK3zyn7WavFile4goodEv
ZynAddSubFX.so:_ZNK3zyn8Alienwah6getparEi
ZynAddSubFX.so:_ZNK3zyn8Envelope8finishedEv
ZynAddSubFX.so:_ZNK3zyn8NotePool10activeDescEv
ZynAddSubFX.so:_ZNK3zyn8NotePool12usedNoteDescEv
ZynAddSubFX.so:_ZNK3zyn8NotePool13usedSynthDescEv
ZynAddSubFX.so:_ZNK3zyn8NotePool14NoteDescriptor10canSustainEv
ZynAddSubFX.so:_ZNK3zyn8NotePool14NoteDescriptor3offEv
ZynAddSubFX.so:_ZNK3zyn8NotePool14NoteDescriptor5dyingEv
ZynAddSubFX.so:_ZNK3zyn8NotePool14NoteDescriptor7latchedEv
ZynAddSubFX.so:_ZNK3zyn8NotePool14NoteDescriptor7playingEv
ZynAddSubFX.so:_ZNK3zyn8NotePool14NoteDescriptor8entombedEv
ZynAddSubFX.so:_ZNK3zyn8NotePool14NoteDescriptor8releasedEv
ZynAddSubFX.so:_ZNK3zyn8NotePool14NoteDescriptor9sustainedEv
ZynAddSubFX.so:_ZNK3zyn8NotePool15getRunningNotesEv
ZynAddSubFX.so:_ZNK3zyn8NotePool16getRunningVoicesEv
ZynAddSubFX.so:_ZNK3zyn8NotePool17existsRunningNoteEv
ZynAddSubFX.so:_ZNK3zyn8NotePool4fullEv
ZynAddSubFX.so:_ZNK3zyn8NotePool9synthFullEi
ZynAddSubFX.so:_ZNK3zyn8OscilGen10modulationERNS_15OscilGenBuffersENS_13FFTfreqBufferE
ZynAddSubFX.so:_ZNK3zyn8OscilGen11needPrepareERNS_15OscilGenBuffersE
ZynAddSubFX.so:_ZNK3zyn8OscilGen11oscilfilterEPSt7complexIfE
ZynAddSubFX.so:_ZNK3zyn8OscilGen14shiftharmonicsEPSt7complexIfE
ZynAddSubFX.so:_ZNK3zyn8OscilGen14spectrumadjustEPSt7complexIfE
ZynAddSubFX.so:_ZNK3zyn8OscilGen15getbasefunctionERNS_15OscilGenBuffersENS_15FFTsampleBufferE
ZynAddSubFX.so:_ZNK3zyn8OscilGen16adaptiveharmonicEPSt7complexIfEf
ZynAddSubFX.so:_ZNK3zyn8OscilGen18changebasefunctionERNS_15OscilGenBuffersE
ZynAddSubFX.so:_ZNK3zyn8OscilGen21createOscilGenBuffersEv
ZynAddSubFX.so:_ZNK3zyn8OscilGen27adaptiveharmonicpostprocessEPSt7complexIfEi
ZynAddSubFX.so:_ZNK3zyn8OscilGen3getERNS_15OscilGenBuffersEPffi
ZynAddSubFX.so:_ZNK3zyn8OscilGen7prepareERNS_15OscilGenBuffersE
ZynAddSubFX.so:_ZNK3zyn8OscilGen7prepareERNS_15OscilGenBuffersENS_13FFTfreqBufferE
ZynAddSubFX.so:_ZNK3zyn8OscilGen8userfuncERNS_15OscilGenBuffersEf
ZynAddSubFX.so:_ZNK3zyn8OscilGen9waveshapeERNS_15OscilGenBuffersENS_13FFTfreqBufferE
ZynAddSubFX.so:_ZNK3zyn9Allocator12totalAllocedEv
ZynAddSubFX.so:_ZNK3zyn9Allocator7memFreeEPv
ZynAddSubFX.so:_ZNK3zyn9Allocator8memPoolsEv
ZynAddSubFX.so:_ZNK3zyn9Allocator9freePoolsEv
ZynAddSubFX.so:_ZNK3zyn9BankEntry5matchENSt7__cxx1112basic_stringIcSt11char_traitsIcESaIcEEE
ZynAddSubFX.so:_ZNK3zyn9BankEntryltERKS0_
ZynAddSubFX.so:_ZNK3zyn9Resonance10getfreqposEf
ZynAddSubFX.so:_ZNK3zyn9Resonance13getcenterfreqEv
ZynAddSubFX.so:_ZNK3zyn9Resonance14getoctavesfreqEv
ZynAddSubFX.so:_ZNK3zyn9Resonance15getfreqresponseEf
ZynAddSubFX.so:_ZNK3zyn9Resonance8applyresEiPSt7complexIfEf
ZynAddSubFX.so:_ZNK3zyn9Resonance8getfreqxEf
ZynAddSubFX.so:_ZNK5rtosc10ThreadLink11buffer_sizeEv
ZynAddSubFX.so:_ZNK5rtosc10ThreadLink16hasNextLookaheadEv
ZynAddSubFX.so:_ZNK5rtosc10ThreadLink4peakEv
ZynAddSubFX.so:_ZNK5rtosc10ThreadLink7hasNextEb
ZynAddSubFX.so:_ZNK5rtosc10ThreadLink7hasNextEv
ZynAddSubFX.so:_ZNK5rtosc11UndoHistory10getHistoryEi
ZynAddSubFX.so:_ZNK5rtosc11UndoHistory11showHistoryEv
ZynAddSubFX.so:_ZNK5rtosc11UndoHistory4sizeEv
ZynAddSubFX.so:_ZNK5rtosc11UndoHistory6getPosEv
ZynAddSubFX.so:_ZNK5rtosc13AutomationMgr9free_slotEv
ZynAddSubFX.so:_ZNK5rtosc13MidiBijectionclEf
ZynAddSubFX.so:_ZNK5rtosc13MidiBijectionclEi
ZynAddSubFX.so:_ZNK5rtosc4Port12MetaIteratorcvbEv
ZynAddSubFX.so:_ZNK5rtosc4Port13MetaContainer3endEv
ZynAddSubFX.so:_ZNK5rtosc4Port13MetaContainer4findEPKc
ZynAddSubFX.so:_ZNK5rtosc4Port13MetaContainer5beginEv
ZynAddSubFX.so:_ZNK5rtosc4Port13MetaContainer6lengthEv
ZynAddSubFX.so:_ZNK5rtosc4Port13MetaContainerixEPKc
ZynAddSubFX.so:_ZNK5rtosc5Ports7aproposEPKc
ZynAddSubFX.so:_ZNK5rtosc5Ports8dispatchEPKcRNS_6RtDataEb
ZynAddSubFX.so:_ZNK5rtosc5PortsixEPKc
ZynAddSubFX.so:_ZNK7DISTRHO6Plugin13getBufferSizeEv
ZynAddSubFX.so:_ZNK7DISTRHO6Plugin13getSampleRateEv
ZynAddSubFX.so:advance_path
ZynAddSubFX.so:arraytypes_match
ZynAddSubFX.so:chunk_path
ZynAddSubFX.so:delta_from_arg_vals
ZynAddSubFX.so:fast_strcpy
ZynAddSubFX.so:get_default_cmp_options
ZynAddSubFX.so:lv2_descriptor
ZynAddSubFX.so:lv2_generate_ttl
ZynAddSubFX.so:main
ZynAddSubFX.so:parse_identifier
ZynAddSubFX.so:range_min
ZynAddSubFX.so:rtosc_amessage
ZynAddSubFX.so:rtosc_arg_arr_len
ZynAddSubFX.so:rtosc_arg_arr_len_set
ZynAddSubFX.so:rtosc_arg_arr_type
ZynAddSubFX.so:rtosc_arg_arr_type_set
ZynAddSubFX.so:rtosc_arg_rep_has_delta
ZynAddSubFX.so:rtosc_arg_rep_has_delta_set
ZynAddSubFX.so:rtosc_arg_rep_num
ZynAddSubFX.so:rtosc_arg_rep_num_set
ZynAddSubFX.so:rtosc_arg_val_add
ZynAddSubFX.so:rtosc_arg_val_current_time
ZynAddSubFX.so:rtosc_arg_val_div
ZynAddSubFX.so:rtosc_arg_val_from_double
ZynAddSubFX.so:rtosc_arg_val_from_int
ZynAddSubFX.so:rtosc_arg_val_from_params
ZynAddSubFX.so:rtosc_arg_val_from_time_t
ZynAddSubFX.so:rtosc_arg_val_immediatelly
ZynAddSubFX.so:rtosc_arg_val_is_immediatelly
ZynAddSubFX.so:rtosc_arg_val_itr_get
ZynAddSubFX.so:rtosc_arg_val_itr_init
ZynAddSubFX.so:rtosc_arg_val_itr_next
ZynAddSubFX.so:rtosc_arg_val_mult
ZynAddSubFX.so:rtosc_arg_val_negate
ZynAddSubFX.so:rtosc_arg_val_null
ZynAddSubFX.so:rtosc_arg_val_range_arg
ZynAddSubFX.so:rtosc_arg_val_round
ZynAddSubFX.so:rtosc_arg_val_sub
ZynAddSubFX.so:rtosc_arg_val_to_int
ZynAddSubFX.so:rtosc_arg_vals_cmp
ZynAddSubFX.so:rtosc_arg_vals_cmp_has_next
ZynAddSubFX.so:rtosc_arg_vals_cmp_single
ZynAddSubFX.so:rtosc_arg_vals_eq
ZynAddSubFX.so:rtosc_arg_vals_eq_after_abort
ZynAddSubFX.so:rtosc_arg_vals_eq_single
ZynAddSubFX.so:rtosc_argument
ZynAddSubFX.so:rtosc_argument_string
ZynAddSubFX.so:rtosc_av_arr_len
ZynAddSubFX.so:rtosc_av_arr_len_set
ZynAddSubFX.so:rtosc_av_arr_type
ZynAddSubFX.so:rtosc_av_arr_type_set
ZynAddSubFX.so:rtosc_av_rep_has_delta
ZynAddSubFX.so:rtosc_av_rep_has_delta_set
ZynAddSubFX.so:rtosc_av_rep_num
ZynAddSubFX.so:rtosc_av_rep_num_set
ZynAddSubFX.so:rtosc_bundle
ZynAddSubFX.so:rtosc_bundle_elements
ZynAddSubFX.so:rtosc_bundle_fetch
ZynAddSubFX.so:rtosc_bundle_p
ZynAddSubFX.so:rtosc_bundle_size
ZynAddSubFX.so:rtosc_bundle_timetag
ZynAddSubFX.so:rtosc_count_printed_arg_vals
ZynAddSubFX.so:rtosc_count_printed_arg_vals_of_msg
ZynAddSubFX.so:rtosc_current_version
ZynAddSubFX.so:rtosc_float2secfracs
ZynAddSubFX.so:rtosc_itr_begin
ZynAddSubFX.so:rtosc_itr_end
ZynAddSubFX.so:rtosc_itr_next
ZynAddSubFX.so:rtosc_match
ZynAddSubFX.so:rtosc_match_full_path
ZynAddSubFX.so:rtosc_match_options
ZynAddSubFX.so:rtosc_match_partial
ZynAddSubFX.so:rtosc_match_path
ZynAddSubFX.so:rtosc_matchable_path
ZynAddSubFX.so:rtosc_message
ZynAddSubFX.so:rtosc_message_length
ZynAddSubFX.so:rtosc_message_ring_length
ZynAddSubFX.so:rtosc_narguments
ZynAddSubFX.so:rtosc_params_from_arg_val
ZynAddSubFX.so:rtosc_print_arg_val
ZynAddSubFX.so:rtosc_print_arg_vals
ZynAddSubFX.so:rtosc_print_message
ZynAddSubFX.so:rtosc_scan_arg_val
ZynAddSubFX.so:rtosc_scan_arg_vals
ZynAddSubFX.so:rtosc_scan_message
ZynAddSubFX.so:rtosc_secfracs2float
ZynAddSubFX.so:rtosc_secfracs_from_arg_val
ZynAddSubFX.so:rtosc_skip_next_printed_arg
ZynAddSubFX.so:rtosc_subpath_pat_type
ZynAddSubFX.so:rtosc_time_t_from_arg_val
ZynAddSubFX.so:rtosc_type
ZynAddSubFX.so:rtosc_v2argvals
ZynAddSubFX.so:rtosc_valid_message_p
ZynAddSubFX.so:rtosc_version_cmp
ZynAddSubFX.so:rtosc_version_print_to_12byte_str
ZynAddSubFX.so:rtosc_vmessage
ZynAddSubFX.so:tlsf_add_pool
ZynAddSubFX.so:tlsf_align_size
ZynAddSubFX.so:tlsf_alloc_overhead
ZynAddSubFX.so:tlsf_block_size
ZynAddSubFX.so:tlsf_block_size_max
ZynAddSubFX.so:tlsf_block_size_min
ZynAddSubFX.so:tlsf_check
ZynAddSubFX.so:tlsf_check_pool
ZynAddSubFX.so:tlsf_create
ZynAddSubFX.so:tlsf_create_with_pool
ZynAddSubFX.so:tlsf_destroy
ZynAddSubFX.so:tlsf_free
ZynAddSubFX.so:tlsf_get_pool
ZynAddSubFX.so:tlsf_malloc
ZynAddSubFX.so:tlsf_memalign
ZynAddSubFX.so:tlsf_pool_overhead
ZynAddSubFX.so:tlsf_realloc
ZynAddSubFX.so:tlsf_remove_pool
ZynAddSubFX.so:tlsf_size
ZynAddSubFX.so:tlsf_walk_pool
ZynAddSubFX.so:types_match
ZynAddSubFX_ui.so:_ZN7DISTRHO14g_nextWindowIdE
ZynAddSubFX_ui.so:_ZN7DISTRHO16g_nextBundlePathE
ZynAddSubFX_ui.so:_ZN7DISTRHO17g_nextScaleFactorE
ZynAddSubFX_ui.so:_ZN7DISTRHO2UI11PrivateData16createNextWindowEPS0_jj
ZynAddSubFX_ui.so:_ZN7DISTRHO2UI11PrivateData17s_nextPrivateDataE
ZynAddSubFX_ui.so:_ZN7DISTRHO2UI11sizeChangedEjj
ZynAddSubFX_ui.so:_ZN7DISTRHO2UI13editParameterEjb
ZynAddSubFX_ui.so:_ZN7DISTRHO2UI17getNextBundlePathEv
ZynAddSubFX_ui.so:_ZN7DISTRHO2UI17sampleRateChangedEd
ZynAddSubFX_ui.so:_ZN7DISTRHO2UI17setParameterValueEjf
ZynAddSubFX_ui.so:_ZN7DISTRHO2UI18getNextScaleFactorEv
ZynAddSubFX_ui.so:_ZN7DISTRHO2UI20uiScaleFactorChangedEd
ZynAddSubFX_ui.so:_ZN7DISTRHO2UI8sendNoteEhhh
ZynAddSubFX_ui.so:_ZN7DISTRHO2UI8setStateEPKcS2_
ZynAddSubFX_ui.so:_ZN7DISTRHO2UIC1Ejjb
ZynAddSubFX_ui.so:_ZN7DISTRHO2UIC2Ejjb
ZynAddSubFX_ui.so:_ZN7DISTRHO2UID0Ev
ZynAddSubFX_ui.so:_ZN7DISTRHO2UID1Ev
ZynAddSubFX_ui.so:_ZN7DISTRHO2UID2Ev
ZynAddSubFX_ui.so:_ZN7DISTRHO8createUIEv
ZynAddSubFX_ui.so:_ZNK7DISTRHO2UI11isResizableEv
ZynAddSubFX_ui.so:_ZNK7DISTRHO2UI13getSampleRateEv
ZynAddSubFX_ui.so:_ZNK7DISTRHO2UI18getBackgroundColorEv
ZynAddSubFX_ui.so:_ZNK7DISTRHO2UI18getForegroundColorEv
ZynAddSubFX_ui.so:lv2ui_descriptor
ZynAlienWah.so:_Z15port_is_enabledPKN5rtosc4PortEPcmRKNS_5PortsEPvbPFvS2_PKcS9_S6_S7_S7_ES7_
ZynAlienWah.so:_Z20metaiterator_advanceRPKcS1_
ZynAlienWah.so:_Z7do_hashRKSt6vectorINSt7__cxx1112basic_stringIcSt11char_traitsIcESaIcEEESaIS5_EERKS_IiSaIiEE
ZynAlienWah.so:_ZN22Value_Smoothing_Filter11sample_rateEm
ZynAlienWah.so:_ZN22Value_Smoothing_Filter5applyEPfmf
ZynAlienWah.so:_ZN3zyn10CombFilter13setfreq_and_qEff
ZynAlienWah.so:_ZN3zyn10CombFilter4setqEf
ZynAlienWah.so:_ZN3zyn10CombFilter7setfreqEf
ZynAlienWah.so:_ZN3zyn10CombFilter7setgainEf
ZynAlienWah.so:_ZN3zyn10CombFilter7settypeEh
ZynAlienWah.so:_ZN3zyn10CombFilter9filteroutEPf
ZynAlienWah.so:_ZN3zyn10CombFilterC1EPNS_9AllocatorEhffji
ZynAlienWah.so:_ZN3zyn10CombFilterC2EPNS_9AllocatorEhffji
ZynAlienWah.so:_ZN3zyn10CombFilterD0Ev
ZynAlienWah.so:_ZN3zyn10CombFilterD1Ev
ZynAlienWah.so:_ZN3zyn10CombFilterD2Ev
ZynAlienWah.so:_ZN3zyn10DummyAllocE
ZynAlienWah.so:_ZN3zyn10MoogFilter13setfreq_and_qEff
ZynAlienWah.so:_ZN3zyn10MoogFilter4setqEf
ZynAlienWah.so:_ZN3zyn10MoogFilter7setfreqEf
ZynAlienWah.so:_ZN3zyn10MoogFilter7setgainEf
ZynAlienWah.so:_ZN3zyn10MoogFilter7settypeEh
ZynAlienWah.so:_ZN3zyn10MoogFilter9filteroutEPf
ZynAlienWah.so:_ZN3zyn10MoogFilterC1Ehffji
ZynAlienWah.so:_ZN3zyn10MoogFilterC2Ehffji
ZynAlienWah.so:_ZN3zyn10MoogFilterD0Ev
ZynAlienWah.so:_ZN3zyn10MoogFilterD1Ev
ZynAlienWah.so:_ZN3zyn10MoogFilterD2Ev
ZynAlienWah.so:_ZN3zyn10XMLwrapper10addparboolERKNSt7__cxx1112basic_stringIcSt11char_traitsIcESaIcEEEi
ZynAlienWah.so:_ZN3zyn10XMLwrapper10addparrealERKNSt7__cxx1112basic_stringIcSt11char_traitsIcESaIcEEEf
ZynAlienWah.so:_ZN3zyn10XMLwrapper10exitbranchEv
ZynAlienWah.so:_ZN3zyn10XMLwrapper10putXMLdataEPKc
ZynAlienWah.so:_ZN3zyn10XMLwrapper11beginbranchERKNSt7__cxx1112basic_stringIcSt11char_traitsIcESaIcEEE
ZynAlienWah.so:_ZN3zyn10XMLwrapper11beginbranchERKNSt7__cxx1112basic_stringIcSt11char_traitsIcESaIcEEEi
ZynAlienWah.so:_ZN3zyn10XMLwrapper11enterbranchERKNSt7__cxx1112basic_stringIcSt11char_traitsIcESaIcEEE
ZynAlienWah.so:_ZN3zyn10XMLwrapper11enterbranchERKNSt7__cxx1112basic_stringIcSt11char_traitsIcESaIcEEEi
ZynAlienWah.so:_ZN3zyn10XMLwrapper11loadXMLfileERKNSt7__cxx1112basic_stringIcSt11char_traitsIcESaIcEEE
ZynAlienWah.so:_ZN3zyn10XMLwrapper11setPadSynthEb
ZynAlienWah.so:_ZN3zyn10XMLwrapper3addERKNS_7XmlNodeE
ZynAlienWah.so:_ZN3zyn10XMLwrapper6addparERKNSt7__cxx1112basic_stringIcSt11char_traitsIcESaIcEEEi
ZynAlienWah.so:_ZN3zyn10XMLwrapper7cleanupEv
ZynAlienWah.so:_ZN3zyn10XMLwrapper9addparstrERKNSt7__cxx1112basic_stringIcSt11char_traitsIcESaIcEEES8_
ZynAlienWah.so:_ZN3zyn10XMLwrapper9endbranchEv
ZynAlienWah.so:_ZN3zyn10XMLwrapperC1Ev
ZynAlienWah.so:_ZN3zyn10XMLwrapperC2Ev
ZynAlienWah.so:_ZN3zyn10XMLwrapperD1Ev
ZynAlienWah.so:_ZN3zyn10XMLwrapperD2Ev
ZynAlienWah.so:_ZN3zyn10fileexistsEPKc
ZynAlienWah.so:_ZN3zyn10prng_stateE
ZynAlienWah.so:_ZN3zyn11fast_strcpyEPcPKcm
ZynAlienWah.so:_ZN3zyn11interpolateEPKfmf
ZynAlienWah.so:_ZN3zyn11rtosc_splatEPKcSt3setINSt7__cxx1112basic_stringIcSt11char_traitsIcESaIcEEESt4lessIS8_ESaIS8_EE
ZynAlienWah.so:_ZN3zyn12AnalogFilter12computeCoeffEiffiffRi
ZynAlienWah.so:_ZN3zyn12AnalogFilter13setfreq_and_qEff
ZynAlienWah.so:_ZN3zyn12AnalogFilter15singlefilteroutEPfRNS0_6fstageEfj
ZynAlienWah.so:_ZN3zyn12AnalogFilter18computefiltercoefsEff
ZynAlienWah.so:_ZN3zyn12AnalogFilter1HEf
ZynAlienWah.so:_ZN3zyn12AnalogFilter4setqEf
ZynAlienWah.so:_ZN3zyn12AnalogFilter7cleanupEv
ZynAlienWah.so:_ZN3zyn12AnalogFilter7setfreqEf
ZynAlienWah.so:_ZN3zyn12AnalogFilter7setgainEf
ZynAlienWah.so:_ZN3zyn12AnalogFilter7settypeEi
ZynAlienWah.so:_ZN3zyn12AnalogFilter9filteroutEPf
ZynAlienWah.so:_ZN3zyn12AnalogFilter9setstagesEi
ZynAlienWah.so:_ZN3zyn12AnalogFilterC1Ehffhji
ZynAlienWah.so:_ZN3zyn12AnalogFilterC2Ehffhji
ZynAlienWah.so:_ZN3zyn12AnalogFilterD0Ev
ZynAlienWah.so:_ZN3zyn12AnalogFilterD1Ev
ZynAlienWah.so:_ZN3zyn12AnalogFilterD2Ev
ZynAlienWah.so:_ZN3zyn12EffectParamsC1ERNS_9AllocatorEbPfS3_hjiPNS_12FilterParamsEb
ZynAlienWah.so:_ZN3zyn12EffectParamsC2ERNS_9AllocatorEbPfS3_hjiPNS_12FilterParamsEb
ZynAlienWah.so:_ZN3zyn12FilterParams10getfromXMLERNS_10XMLwrapperE
ZynAlienWah.so:_ZN3zyn12FilterParams10pasteArrayERS0_i
ZynAlienWah.so:_ZN3zyn12FilterParams14add2XMLsectionERNS_10XMLwrapperEi
ZynAlienWah.so:_ZN3zyn12FilterParams14baseqFromOldPqEi
ZynAlienWah.so:_ZN3zyn12FilterParams16gainFromOldPgainEi
ZynAlienWah.so:_ZN3zyn12FilterParams17getfromXMLsectionERNS_10XMLwrapperEi
ZynAlienWah.so:_ZN3zyn12FilterParams19basefreqFromOldPreqEi
ZynAlienWah.so:_ZN3zyn12FilterParams19getfromFilterParamsEPKS0_
ZynAlienWah.so:_ZN3zyn12FilterParams5pasteERS0_
ZynAlienWah.so:_ZN3zyn12FilterParams5portsE
ZynAlienWah.so:_ZN3zyn12FilterParams5setupEv
ZynAlienWah.so:_ZN3zyn12FilterParams7add2XMLERNS_10XMLwrapperE
ZynAlienWah.so:_ZN3zyn12FilterParams8defaultsEi
ZynAlienWah.so:_ZN3zyn12FilterParams8defaultsEv
ZynAlienWah.so:_ZN3zyn12FilterParams9updateLocEi
ZynAlienWah.so:_ZN3zyn12FilterParams9updateLocEii
ZynAlienWah.so:_ZN3zyn12FilterParamsC1EPKNS_7AbsTimeE
ZynAlienWah.so:_ZN3zyn12FilterParamsC1EhhhiPKNS_7AbsTimeE
ZynAlienWah.so:_ZN3zyn12FilterParamsC1EiPKNS_7AbsTimeE
ZynAlienWah.so:_ZN3zyn12FilterParamsC2EPKNS_7AbsTimeE
ZynAlienWah.so:_ZN3zyn12FilterParamsC2EhhhiPKNS_7AbsTimeE
ZynAlienWah.so:_ZN3zyn12FilterParamsC2EiPKNS_7AbsTimeE
ZynAlienWah.so:_ZN3zyn12FilterParamsD0Ev
ZynAlienWah.so:_ZN3zyn12FilterParamsD1Ev
ZynAlienWah.so:_ZN3zyn12FilterParamsD2Ev
ZynAlienWah.so:_ZN3zyn12PresetsArray13setpresettypeEPKc
ZynAlienWah.so:_ZN3zyn12PresetsArray4copyERNS_12PresetsStoreEPKc
ZynAlienWah.so:_ZN3zyn12PresetsArray4copyERNS_12PresetsStoreEiPKc
ZynAlienWah.so:_ZN3zyn12PresetsArrayC1Ev
ZynAlienWah.so:_ZN3zyn12PresetsArrayC2Ev
ZynAlienWah.so:_ZN3zyn12PresetsArrayD0Ev
ZynAlienWah.so:_ZN3zyn12PresetsArrayD1Ev
ZynAlienWah.so:_ZN3zyn12PresetsArrayD2Ev
ZynAlienWah.so:_ZN3zyn12PresetsStore10copypresetERNS_10XMLwrapperEPcNSt7__cxx1112basic_stringIcSt11char_traitsIcESaIcEEE
ZynAlienWah.so:_ZN3zyn12PresetsStore11pastepresetERNS_10XMLwrapperEj
ZynAlienWah.so:_ZN3zyn12PresetsStore12clearpresetsEv
ZynAlienWah.so:_ZN3zyn12PresetsStore12deletepresetENSt7__cxx1112basic_stringIcSt11char_traitsIcESaIcEEE
ZynAlienWah.so:_ZN3zyn12PresetsStore12deletepresetEj
ZynAlienWah.so:_ZN3zyn12PresetsStore13copyclipboardERNS_10XMLwrapperEPc
ZynAlienWah.so:_ZN3zyn12PresetsStore14pasteclipboardERNS_10XMLwrapperE
ZynAlienWah.so:_ZN3zyn12PresetsStore14scanforpresetsEv
ZynAlienWah.so:_ZN3zyn12PresetsStore18checkclipboardtypeEPKc
ZynAlienWah.so:_ZN3zyn12PresetsStoreC1ERKNS_6ConfigE
ZynAlienWah.so:_ZN3zyn12PresetsStoreC2ERKNS_6ConfigE
ZynAlienWah.so:_ZN3zyn12PresetsStoreD1Ev
ZynAlienWah.so:_ZN3zyn12PresetsStoreD2Ev
ZynAlienWah.so:_ZN3zyn12cinterpolateEPKfmf
ZynAlienWah.so:_ZN3zyn12set_realtimeEv
ZynAlienWah.so:_ZN3zyn13FormantFilter13setfreq_and_qEff
ZynAlienWah.so:_ZN3zyn13FormantFilter4setqEf
ZynAlienWah.so:_ZN3zyn13FormantFilter6setposEf
ZynAlienWah.so:_ZN3zyn13FormantFilter7cleanupEv
ZynAlienWah.so:_ZN3zyn13FormantFilter7setfreqEf
ZynAlienWah.so:_ZN3zyn13FormantFilter7setgainEf
ZynAlienWah.so:_ZN3zyn13FormantFilter9filteroutEPf
ZynAlienWah.so:_ZN3zyn13FormantFilterC1EPKNS_12FilterParamsEPNS_9AllocatorEji
ZynAlienWah.so:_ZN3zyn13FormantFilterC2EPKNS_12FilterParamsEPNS_9AllocatorEji
ZynAlienWah.so:_ZN3zyn13FormantFilterD0Ev
ZynAlienWah.so:_ZN3zyn13FormantFilterD1Ev
ZynAlienWah.so:_ZN3zyn13FormantFilterD2Ev
ZynAlienWah.so:_ZN3zyn14AllocatorClass11dealloc_memEPv
ZynAlienWah.so:_ZN3zyn14AllocatorClass9addMemoryEPvm
ZynAlienWah.so:_ZN3zyn14AllocatorClass9alloc_memEm
ZynAlienWah.so:_ZN3zyn15mxmlFindElementEPK12_mxml_node_sS2_PKcS4_S4_i
ZynAlienWah.so:_ZN3zyn16legalizeFilenameENSt7__cxx1112basic_stringIcSt11char_traitsIcESaIcEEE
ZynAlienWah.so:_ZN3zyn16trimLeadingWhiteEPKc
ZynAlienWah.so:_ZN3zyn18mxmlElementGetAttrEPK12_mxml_node_sPKc
ZynAlienWah.so:_ZN3zyn19os_guess_pid_lengthEv
ZynAlienWah.so:_ZN3zyn23os_pid_as_padded_stringB5cxx11Ev
ZynAlienWah.so:_ZN3zyn30XMLwrapper_whitespace_callbackEP12_mxml_node_si
ZynAlienWah.so:_ZN3zyn4VelFEfh
ZynAlienWah.so:_ZN3zyn4dataEPNS_6next_tE
ZynAlienWah.so:_ZN3zyn5xml_kE
ZynAlienWah.so:_ZN3zyn6Effect10setlrcrossEc
ZynAlienWah.so:_ZN3zyn6Effect10setpanningEc
ZynAlienWah.so:_ZN3zyn6Effect3outEPfS1_
ZynAlienWah.so:_ZN3zyn6Effect9crossoverERfS1_f
ZynAlienWah.so:_ZN3zyn6EffectC1ENS_12EffectParamsE
ZynAlienWah.so:_ZN3zyn6EffectC2ENS_12EffectParamsE
ZynAlienWah.so:_ZN3zyn6Filter11getrealfreqEf
ZynAlienWah.so:_ZN3zyn6Filter8generateERNS_9AllocatorEPKNS_12FilterParamsEji
ZynAlienWah.so:_ZN3zyn6FilterC1Eji
ZynAlienWah.so:_ZN3zyn6FilterC2Eji
ZynAlienWah.so:_ZN3zyn7Presets12deletepresetERNS_12PresetsStoreEi
ZynAlienWah.so:_ZN3zyn7Presets13setpresettypeEPKc
ZynAlienWah.so:_ZN3zyn7Presets18checkclipboardtypeERNS_12PresetsStoreE
ZynAlienWah.so:_ZN3zyn7Presets4copyERNS_12PresetsStoreEPKc
ZynAlienWah.so:_ZN3zyn7PresetsC1Ev
ZynAlienWah.so:_ZN3zyn7PresetsC2Ev
ZynAlienWah.so:_ZN3zyn7PresetsD0Ev
ZynAlienWah.so:_ZN3zyn7PresetsD1Ev
ZynAlienWah.so:_ZN3zyn7PresetsD2Ev
ZynAlienWah.so:_ZN3zyn7SYNTH_T9numRandomEv
ZynAlienWah.so:_ZN3zyn7XmlNode3hasENSt7__cxx1112basic_stringIcSt11char_traitsIcESaIcEEE
ZynAlienWah.so:_ZN3zyn7XmlNodeC1ENSt7__cxx1112basic_stringIcSt11char_traitsIcESaIcEEE
ZynAlienWah.so:_ZN3zyn7XmlNodeC2ENSt7__cxx1112basic_stringIcSt11char_traitsIcESaIcEEE
ZynAlienWah.so:_ZN3zyn7XmlNodeixENSt7__cxx1112basic_stringIcSt11char_traitsIcESaIcEEE
ZynAlienWah.so:_ZN3zyn7verboseE
ZynAlienWah.so:_ZN3zyn8Alienwah12getpresetparEhj
ZynAlienWah.so:_ZN3zyn8Alienwah3outERKNS_6StereoIPfEE
ZynAlienWah.so:_ZN3zyn8Alienwah5portsE
ZynAlienWah.so:_ZN3zyn8Alienwah5setfbEh
ZynAlienWah.so:_ZN3zyn8Alienwah7cleanupEv
ZynAlienWah.so:_ZN3zyn8Alienwah8setdelayEh
ZynAlienWah.so:_ZN3zyn8Alienwah8setdepthEh
ZynAlienWah.so:_ZN3zyn8Alienwah8setphaseEh
ZynAlienWah.so:_ZN3zyn8Alienwah9changeparEih
ZynAlienWah.so:_ZN3zyn8Alienwah9setpresetEh
ZynAlienWah.so:_ZN3zyn8Alienwah9setvolumeEh
ZynAlienWah.so:_ZN3zyn8AlienwahC1ENS_12EffectParamsE
ZynAlienWah.so:_ZN3zyn8AlienwahC2ENS_12EffectParamsE
ZynAlienWah.so:_ZN3zyn8AlienwahD0Ev
ZynAlienWah.so:_ZN3zyn8AlienwahD1Ev
ZynAlienWah.so:_ZN3zyn8AlienwahD2Ev
ZynAlienWah.so:_ZN3zyn8SVFilter13setfreq_and_qEff
ZynAlienWah.so:_ZN3zyn8SVFilter15computeResponseEiffiff
ZynAlienWah.so:_ZN3zyn8SVFilter15singlefilteroutEPfRNS0_6fstageERNS0_10parametersEi
ZynAlienWah.so:_ZN3zyn8SVFilter18computefiltercoefsEv
ZynAlienWah.so:_ZN3zyn8SVFilter19getfilteroutfortypeERNS0_6fstageE
ZynAlienWah.so:_ZN3zyn8SVFilter4setqEf
ZynAlienWah.so:_ZN3zyn8SVFilter7cleanupEv
ZynAlienWah.so:_ZN3zyn8SVFilter7setfreqEf
ZynAlienWah.so:_ZN3zyn8SVFilter7setgainEf
ZynAlienWah.so:_ZN3zyn8SVFilter7settypeEi
ZynAlienWah.so:_ZN3zyn8SVFilter8responseC1Effffff
ZynAlienWah.so:_ZN3zyn8SVFilter8responseC2Effffff
ZynAlienWah.so:_ZN3zyn8SVFilter9filteroutEPf
ZynAlienWah.so:_ZN3zyn8SVFilter9setstagesEi
ZynAlienWah.so:_ZN3zyn8SVFilterC1Ehffhji
ZynAlienWah.so:_ZN3zyn8SVFilterC2Ehffhji
ZynAlienWah.so:_ZN3zyn8SVFilterD0Ev
ZynAlienWah.so:_ZN3zyn8SVFilterD1Ev
ZynAlienWah.so:_ZN3zyn8SVFilterD2Ev
ZynAlienWah.so:_ZN3zyn8isPluginE
ZynAlienWah.so:_ZN3zyn9Allocator14endTransactionEv
ZynAlienWah.so:_ZN3zyn9Allocator16beginTransactionEv
ZynAlienWah.so:_ZN3zyn9Allocator19rollbackTransactionEv
ZynAlienWah.so:_ZN3zyn9AllocatorC1Ev
ZynAlienWah.so:_ZN3zyn9AllocatorC2Ev
ZynAlienWah.so:_ZN3zyn9AllocatorD0Ev
ZynAlienWah.so:_ZN3zyn9AllocatorD1Ev
ZynAlienWah.so:_ZN3zyn9AllocatorD2Ev
ZynAlienWah.so:_ZN3zyn9EffectLFO11getlfoshapeEf
ZynAlienWah.so:_ZN3zyn9EffectLFO12effectlfooutEPfS1_
ZynAlienWah.so:_ZN3zyn9EffectLFO12updateparamsEv
ZynAlienWah.so:_ZN3zyn9EffectLFOC1Eff
ZynAlienWah.so:_ZN3zyn9EffectLFOC2Eff
ZynAlienWah.so:_ZN3zyn9EffectLFOD1Ev
ZynAlienWah.so:_ZN3zyn9EffectLFOD2Ev
ZynAlienWah.so:_ZN3zyn9getdetuneEhtt
ZynAlienWah.so:_ZN3zyn9invSignalEPfm
ZynAlienWah.so:_ZN3zyn9os_usleepEl
ZynAlienWah.so:_ZN3zynlsERSoRKNS_12version_typeE
ZynAlienWah.so:_ZN5rtosc10ClonePortsC1ERKNS_5PortsESt16initializer_listINS_9ClonePortEE
ZynAlienWah.so:_ZN5rtosc10ClonePortsC2ERKNS_5PortsESt16initializer_listINS_9ClonePortEE
ZynAlienWah.so:_ZN5rtosc10MergePortsC1ESt16initializer_listIPKNS_5PortsEE
ZynAlienWah.so:_ZN5rtosc10MergePortsC2ESt16initializer_listIPKNS_5PortsEE
ZynAlienWah.so:_ZN5rtosc10walk_portsEPKNS_5PortsEPcmPvPFvPKNS_4PortEPKcS9_RS1_S4_S4_EbS4_b
ZynAlienWah.so:_ZN5rtosc11path_searchERKNS_5PortsEPKcS4_PcmP11rtosc_arg_tmNS_16path_search_optsEb
ZynAlienWah.so:_ZN5rtosc11path_searchERKNS_5PortsEPKcmPcmNS_16path_search_optsEb
ZynAlienWah.so:_ZN5rtosc12map_arg_valsEP15rtosc_arg_val_tmNS_4Port13MetaContainerE
ZynAlienWah.so:_ZN5rtosc17enum_key_from_msgENS_4Port13MetaContainerEPKc
ZynAlienWah.so:_ZN5rtosc21canonicalize_arg_valsEP15rtosc_arg_val_tmPKcNS_4Port13MetaContainerE
ZynAlienWah.so:_ZN5rtosc4Port12MetaIteratorC1EPKc
ZynAlienWah.so:_ZN5rtosc4Port12MetaIteratorC2EPKc
ZynAlienWah.so:_ZN5rtosc4Port12MetaIteratorppEv
ZynAlienWah.so:_ZN5rtosc4Port13MetaContainerC1EPKc
ZynAlienWah.so:_ZN5rtosc4Port13MetaContainerC2EPKc
ZynAlienWah.so:_ZN5rtosc5Ports12collapsePathEPc
ZynAlienWah.so:_ZN5rtosc5Ports12refreshMagicEv
ZynAlienWah.so:_ZN5rtosc5PortsC1ESt16initializer_listINS_4PortEE
ZynAlienWah.so:_ZN5rtosc5PortsC2ESt16initializer_listINS_4PortEE
ZynAlienWah.so:_ZN5rtosc5PortsD1Ev
ZynAlienWah.so:_ZN5rtosc5PortsD2Ev
ZynAlienWah.so:_ZN5rtosc6RtData10chainArrayEPKcS2_P11rtosc_arg_t
ZynAlienWah.so:_ZN5rtosc6RtData10push_indexEi
ZynAlienWah.so:_ZN5rtosc6RtData10replyArrayEPKcS2_P11rtosc_arg_t
ZynAlienWah.so:_ZN5rtosc6RtData14broadcastArrayEPKcS2_P11rtosc_arg_t
ZynAlienWah.so:_ZN5rtosc6RtData5chainEPKc
ZynAlienWah.so:_ZN5rtosc6RtData5chainEPKcS2_z
ZynAlienWah.so:_ZN5rtosc6RtData5replyEPKc
ZynAlienWah.so:_ZN5rtosc6RtData5replyEPKcS2_z
ZynAlienWah.so:_ZN5rtosc6RtData7forwardEPKc
ZynAlienWah.so:_ZN5rtosc6RtData9broadcastEPKc
ZynAlienWah.so:_ZN5rtosc6RtData9broadcastEPKcS2_z
ZynAlienWah.so:_ZN5rtosc6RtData9pop_indexEv
ZynAlienWah.so:_ZN5rtosc6RtDataC1Ev
ZynAlienWah.so:_ZN5rtosc6RtDataC2Ev
ZynAlienWah.so:_ZN5rtosc7helpers22get_value_from_runtimeEPvRKNS_4PortEmPcPKcmmP15rtosc_arg_val_tPSt6vectorISA_IcSaIcEESaISC_EE
ZynAlienWah.so:_ZN5rtosc7helpers22get_value_from_runtimeEPvRKNS_5PortsEmPcS5_mi
ZynAlienWah.so:_ZN5rtosc8enum_keyENS_4Port13MetaContainerEPKc
ZynAlienWah.so:_ZN5rtosclsERSoRNS_15OscDocFormatterE
ZynAlienWah.so:_ZN7DISTRHO12createPluginEv
ZynAlienWah.so:_ZN7DISTRHO14PluginExporter15sFallbackRangesE
ZynAlienWah.so:_ZN7DISTRHO14PluginExporter15sFallbackStringE
ZynAlienWah.so:_ZN7DISTRHO14PluginExporter18sFallbackAudioPortE
ZynAlienWah.so:_ZN7DISTRHO14PluginExporter18sFallbackPortGroupE
ZynAlienWah.so:_ZN7DISTRHO14PluginExporter19sFallbackEnumValuesE
ZynAlienWah.so:_ZN7DISTRHO14snprintf_paramEPcfm
ZynAlienWah.so:_ZN7DISTRHO15snprintf_iparamEPcim
ZynAlienWah.so:_ZN7DISTRHO16d_lastBufferSizeE
ZynAlienWah.so:_ZN7DISTRHO16d_lastSampleRateE
ZynAlienWah.so:_ZN7DISTRHO37d_lastCanRequestParameterValueChangesE
ZynAlienWah.so:_ZN7DISTRHO6Plugin13initAudioPortEbjRNS_9AudioPortE
ZynAlienWah.so:_ZN7DISTRHO6Plugin13initPortGroupEjRNS_9PortGroupE
ZynAlienWah.so:_ZN7DISTRHO6Plugin17bufferSizeChangedEj
ZynAlienWah.so:_ZN7DISTRHO6Plugin17sampleRateChangedEd
ZynAlienWah.so:_ZN7DISTRHO6PluginC1Ejjj
ZynAlienWah.so:_ZN7DISTRHO6PluginC2Ejjj
ZynAlienWah.so:_ZN7DISTRHO6PluginD0Ev
ZynAlienWah.so:_ZN7DISTRHO6PluginD1Ev
ZynAlienWah.so:_ZN7DISTRHO6PluginD2Ev
ZynAlienWah.so:_ZN7DISTRHO7strncpyEPcPKcm
ZynAlienWah.so:_ZNK3zyn10XMLwrapper10doloadfileERKNSt7__cxx1112basic_stringIcSt11char_traitsIcESaIcEEE
ZynAlienWah.so:_ZNK3zyn10XMLwrapper10dosavefileEPKciS2_
ZynAlienWah.so:_ZNK3zyn10XMLwrapper10getXMLdataEv
ZynAlienWah.so:_ZNK3zyn10XMLwrapper10getparboolERKNSt7__cxx1112basic_stringIcSt11char_traitsIcESaIcEEEi
ZynAlienWah.so:_ZNK3zyn10XMLwrapper10getparrealEPKcf
ZynAlienWah.so:_ZNK3zyn10XMLwrapper10getparrealEPKcfff
ZynAlienWah.so:_ZNK3zyn10XMLwrapper10hasparrealEPKc
ZynAlienWah.so:_ZNK3zyn10XMLwrapper11getbranchidEii
ZynAlienWah.so:_ZNK3zyn10XMLwrapper11hasPadSynthEv
ZynAlienWah.so:_ZNK3zyn10XMLwrapper11saveXMLfileERKNSt7__cxx1112basic_stringIcSt11char_traitsIcESaIcEEEi
ZynAlienWah.so:_ZNK3zyn10XMLwrapper6getparERKNSt7__cxx1112basic_stringIcSt11char_traitsIcESaIcEEEiii
ZynAlienWah.so:_ZNK3zyn10XMLwrapper9addparamsEPKcjz
ZynAlienWah.so:_ZNK3zyn10XMLwrapper9getBranchEv
ZynAlienWah.so:_ZNK3zyn10XMLwrapper9getpar127ERKNSt7__cxx1112basic_stringIcSt11char_traitsIcESaIcEEEi
ZynAlienWah.so:_ZNK3zyn10XMLwrapper9getparstrERKNSt7__cxx1112basic_stringIcSt11char_traitsIcESaIcEEEPci
ZynAlienWah.so:_ZNK3zyn10XMLwrapper9getparstrERKNSt7__cxx1112basic_stringIcSt11char_traitsIcESaIcEEES8_
ZynAlienWah.so:_ZNK3zyn12FilterParams10getfreqposEf
ZynAlienWah.so:_ZNK3zyn12FilterParams11getformantqEh
ZynAlienWah.so:_ZNK3zyn12FilterParams13getcenterfreqEv
ZynAlienWah.so:_ZNK3zyn12FilterParams13getformantampEh
ZynAlienWah.so:_ZNK3zyn12FilterParams14getformantfreqEh
ZynAlienWah.so:_ZNK3zyn12FilterParams14getoctavesfreqEv
ZynAlienWah.so:_ZNK3zyn12FilterParams15getfreqtrackingEf
ZynAlienWah.so:_ZNK3zyn12FilterParams4getqEv
ZynAlienWah.so:_ZNK3zyn12FilterParams7getfreqEv
ZynAlienWah.so:_ZNK3zyn12FilterParams7getgainEv
ZynAlienWah.so:_ZNK3zyn12FilterParams8getfreqxEf
ZynAlienWah.so:_ZNK3zyn12PresetsStore12presetstructltERKS1_
ZynAlienWah.so:_ZNK3zyn14AllocatorClass9lowMemoryEjm
ZynAlienWah.so:_ZNK3zyn8Alienwah6getparEi
ZynAlienWah.so:_ZNK3zyn9Allocator12totalAllocedEv
ZynAlienWah.so:_ZNK3zyn9Allocator7memFreeEPv
ZynAlienWah.so:_ZNK3zyn9Allocator8memPoolsEv
ZynAlienWah.so:_ZNK3zyn9Allocator9freePoolsEv
ZynAlienWah.so:_ZNK5rtosc4Port12MetaIteratorcvbEv
ZynAlienWah.so:_ZNK5rtosc4Port13MetaContainer3endEv
ZynAlienWah.so:_ZNK5rtosc4Port13MetaContainer4findEPKc
ZynAlienWah.so:_ZNK5rtosc4Port13MetaContainer5beginEv
ZynAlienWah.so:_ZNK5rtosc4Port13MetaContainer6lengthEv
ZynAlienWah.so:_ZNK5rtosc4Port13MetaContainerixEPKc
ZynAlienWah.so:_ZNK5rtosc5Ports7aproposEPKc
ZynAlienWah.so:_ZNK5rtosc5Ports8dispatchEPKcRNS_6RtDataEb
ZynAlienWah.so:_ZNK5rtosc5PortsixEPKc
ZynAlienWah.so:_ZNK7DISTRHO6Plugin13getBufferSizeEv
ZynAlienWah.so:_ZNK7DISTRHO6Plugin13getSampleRateEv
ZynAlienWah.so:advance_path
ZynAlienWah.so:arraytypes_match
ZynAlienWah.so:chunk_path
ZynAlienWah.so:delta_from_arg_vals
ZynAlienWah.so:fast_strcpy
ZynAlienWah.so:get_default_cmp_options
ZynAlienWah.so:lv2_descriptor
ZynAlienWah.so:lv2_generate_ttl
ZynAlienWah.so:main
ZynAlienWah.so:parse_identifier
ZynAlienWah.so:range_min
ZynAlienWah.so:rtosc_amessage
ZynAlienWah.so:rtosc_arg_arr_len
ZynAlienWah.so:rtosc_arg_arr_len_set
ZynAlienWah.so:rtosc_arg_arr_type
ZynAlienWah.so:rtosc_arg_arr_type_set
ZynAlienWah.so:rtosc_arg_rep_has_delta
ZynAlienWah.so:rtosc_arg_rep_has_delta_set
ZynAlienWah.so:rtosc_arg_rep_num
ZynAlienWah.so:rtosc_arg_rep_num_set
ZynAlienWah.so:rtosc_arg_val_add
ZynAlienWah.so:rtosc_arg_val_current_time
ZynAlienWah.so:rtosc_arg_val_div
ZynAlienWah.so:rtosc_arg_val_from_double
ZynAlienWah.so:rtosc_arg_val_from_int
ZynAlienWah.so:rtosc_arg_val_from_params
ZynAlienWah.so:rtosc_arg_val_from_time_t
ZynAlienWah.so:rtosc_arg_val_immediatelly
ZynAlienWah.so:rtosc_arg_val_is_immediatelly
ZynAlienWah.so:rtosc_arg_val_itr_get
ZynAlienWah.so:rtosc_arg_val_itr_init
ZynAlienWah.so:rtosc_arg_val_itr_next
ZynAlienWah.so:rtosc_arg_val_mult
ZynAlienWah.so:rtosc_arg_val_negate
ZynAlienWah.so:rtosc_arg_val_null
ZynAlienWah.so:rtosc_arg_val_range_arg
ZynAlienWah.so:rtosc_arg_val_round
ZynAlienWah.so:rtosc_arg_val_sub
ZynAlienWah.so:rtosc_arg_val_to_int
ZynAlienWah.so:rtosc_arg_vals_cmp
ZynAlienWah.so:rtosc_arg_vals_cmp_has_next
ZynAlienWah.so:rtosc_arg_vals_cmp_single
ZynAlienWah.so:rtosc_arg_vals_eq
ZynAlienWah.so:rtosc_arg_vals_eq_after_abort
ZynAlienWah.so:rtosc_arg_vals_eq_single
ZynAlienWah.so:rtosc_argument
ZynAlienWah.so:rtosc_argument_string
ZynAlienWah.so:rtosc_av_arr_len
ZynAlienWah.so:rtosc_av_arr_len_set
ZynAlienWah.so:rtosc_av_arr_type
ZynAlienWah.so:rtosc_av_arr_type_set
ZynAlienWah.so:rtosc_av_rep_has_delta
ZynAlienWah.so:rtosc_av_rep_has_delta_set
ZynAlienWah.so:rtosc_av_rep_num
ZynAlienWah.so:rtosc_av_rep_num_set
ZynAlienWah.so:rtosc_bundle
ZynAlienWah.so:rtosc_bundle_elements
ZynAlienWah.so:rtosc_bundle_fetch
ZynAlienWah.so:rtosc_bundle_p
ZynAlienWah.so:rtosc_bundle_size
ZynAlienWah.so:rtosc_bundle_timetag
ZynAlienWah.so:rtosc_count_printed_arg_vals
ZynAlienWah.so:rtosc_count_printed_arg_vals_of_msg
ZynAlienWah.so:rtosc_float2secfracs
ZynAlienWah.so:rtosc_itr_begin
ZynAlienWah.so:rtosc_itr_end
ZynAlienWah.so:rtosc_itr_next
ZynAlienWah.so:rtosc_match
ZynAlienWah.so:rtosc_match_full_path
ZynAlienWah.so:rtosc_match_options
ZynAlienWah.so:rtosc_match_partial
ZynAlienWah.so:rtosc_match_path
ZynAlienWah.so:rtosc_matchable_path
ZynAlienWah.so:rtosc_message
ZynAlienWah.so:rtosc_message_length
ZynAlienWah.so:rtosc_message_ring_length
ZynAlienWah.so:rtosc_narguments
ZynAlienWah.so:rtosc_params_from_arg_val
ZynAlienWah.so:rtosc_print_arg_val
ZynAlienWah.so:rtosc_print_arg_vals
ZynAlienWah.so:rtosc_print_message
ZynAlienWah.so:rtosc_scan_arg_val
ZynAlienWah.so:rtosc_scan_arg_vals
ZynAlienWah.so:rtosc_scan_message
ZynAlienWah.so:rtosc_secfracs2float
ZynAlienWah.so:rtosc_secfracs_from_arg_val
ZynAlienWah.so:rtosc_skip_next_printed_arg
ZynAlienWah.so:rtosc_subpath_pat_type
ZynAlienWah.so:rtosc_time_t_from_arg_val
ZynAlienWah.so:rtosc_type
ZynAlienWah.so:rtosc_v2argvals
ZynAlienWah.so:rtosc_valid_message_p
ZynAlienWah.so:rtosc_vmessage
ZynAlienWah.so:tlsf_add_pool
ZynAlienWah.so:tlsf_align_size
ZynAlienWah.so:tlsf_alloc_overhead
ZynAlienWah.so:tlsf_block_size
ZynAlienWah.so:tlsf_block_size_max
ZynAlienWah.so:tlsf_block_size_min
ZynAlienWah.so:tlsf_check
ZynAlienWah.so:tlsf_check_pool
ZynAlienWah.so:tlsf_create
ZynAlienWah.so:tlsf_create_with_pool
ZynAlienWah.so:tlsf_destroy
ZynAlienWah.so:tlsf_free
ZynAlienWah.so:tlsf_get_pool
ZynAlienWah.so:tlsf_malloc
ZynAlienWah.so:tlsf_memalign
ZynAlienWah.so:tlsf_pool_overhead
ZynAlienWah.so:tlsf_realloc
ZynAlienWah.so:tlsf_remove_pool
ZynAlienWah.so:tlsf_size
ZynAlienWah.so:tlsf_walk_pool
ZynAlienWah.so:types_match
ZynChorus.so:_Z15port_is_enabledPKN5rtosc4PortEPcmRKNS_5PortsEPvbPFvS2_PKcS9_S6_S7_S7_ES7_
ZynChorus.so:_Z20metaiterator_advanceRPKcS1_
ZynChorus.so:_Z7do_hashRKSt6vectorINSt7__cxx1112basic_stringIcSt11char_traitsIcESaIcEEESaIS5_EERKS_IiSaIiEE
ZynChorus.so:_ZN22Value_Smoothing_Filter11sample_rateEm
ZynChorus.so:_ZN22Value_Smoothing_Filter5applyEPfmf
ZynChorus.so:_ZN3zyn10CombFilter13setfreq_and_qEff
ZynChorus.so:_ZN3zyn10CombFilter4setqEf
ZynChorus.so:_ZN3zyn10CombFilter7setfreqEf
ZynChorus.so:_ZN3zyn10CombFilter7setgainEf
ZynChorus.so:_ZN3zyn10CombFilter7settypeEh
ZynChorus.so:_ZN3zyn10CombFilter9filteroutEPf
ZynChorus.so:_ZN3zyn10CombFilterC1EPNS_9AllocatorEhffji
ZynChorus.so:_ZN3zyn10CombFilterC2EPNS_9AllocatorEhffji
ZynChorus.so:_ZN3zyn10CombFilterD0Ev
ZynChorus.so:_ZN3zyn10CombFilterD1Ev
ZynChorus.so:_ZN3zyn10CombFilterD2Ev
ZynChorus.so:_ZN3zyn10DummyAllocE
ZynChorus.so:_ZN3zyn10MoogFilter13setfreq_and_qEff
ZynChorus.so:_ZN3zyn10MoogFilter4setqEf
ZynChorus.so:_ZN3zyn10MoogFilter7setfreqEf
ZynChorus.so:_ZN3zyn10MoogFilter7setgainEf
ZynChorus.so:_ZN3zyn10MoogFilter7settypeEh
ZynChorus.so:_ZN3zyn10MoogFilter9filteroutEPf
ZynChorus.so:_ZN3zyn10MoogFilterC1Ehffji
ZynChorus.so:_ZN3zyn10MoogFilterC2Ehffji
ZynChorus.so:_ZN3zyn10MoogFilterD0Ev
ZynChorus.so:_ZN3zyn10MoogFilterD1Ev
ZynChorus.so:_ZN3zyn10MoogFilterD2Ev
ZynChorus.so:_ZN3zyn10XMLwrapper10addparboolERKNSt7__cxx1112basic_stringIcSt11char_traitsIcESaIcEEEi
ZynChorus.so:_ZN3zyn10XMLwrapper10addparrealERKNSt7__cxx1112basic_stringIcSt11char_traitsIcESaIcEEEf
ZynChorus.so:_ZN3zyn10XMLwrapper10exitbranchEv
ZynChorus.so:_ZN3zyn10XMLwrapper10putXMLdataEPKc
ZynChorus.so:_ZN3zyn10XMLwrapper11beginbranchERKNSt7__cxx1112basic_stringIcSt11char_traitsIcESaIcEEE
ZynChorus.so:_ZN3zyn10XMLwrapper11beginbranchERKNSt7__cxx1112basic_stringIcSt11char_traitsIcESaIcEEEi
ZynChorus.so:_ZN3zyn10XMLwrapper11enterbranchERKNSt7__cxx1112basic_stringIcSt11char_traitsIcESaIcEEE
ZynChorus.so:_ZN3zyn10XMLwrapper11enterbranchERKNSt7__cxx1112basic_stringIcSt11char_traitsIcESaIcEEEi
ZynChorus.so:_ZN3zyn10XMLwrapper11loadXMLfileERKNSt7__cxx1112basic_stringIcSt11char_traitsIcESaIcEEE
ZynChorus.so:_ZN3zyn10XMLwrapper11setPadSynthEb
ZynChorus.so:_ZN3zyn10XMLwrapper3addERKNS_7XmlNodeE
ZynChorus.so:_ZN3zyn10XMLwrapper6addparERKNSt7__cxx1112basic_stringIcSt11char_traitsIcESaIcEEEi
ZynChorus.so:_ZN3zyn10XMLwrapper7cleanupEv
ZynChorus.so:_ZN3zyn10XMLwrapper9addparstrERKNSt7__cxx1112basic_stringIcSt11char_traitsIcESaIcEEES8_
ZynChorus.so:_ZN3zyn10XMLwrapper9endbranchEv
ZynChorus.so:_ZN3zyn10XMLwrapperC1Ev
ZynChorus.so:_ZN3zyn10XMLwrapperC2Ev
ZynChorus.so:_ZN3zyn10XMLwrapperD1Ev
ZynChorus.so:_ZN3zyn10XMLwrapperD2Ev
ZynChorus.so:_ZN3zyn10fileexistsEPKc
ZynChorus.so:_ZN3zyn10prng_stateE
ZynChorus.so:_ZN3zyn11fast_strcpyEPcPKcm
ZynChorus.so:_ZN3zyn11interpolateEPKfmf
ZynChorus.so:_ZN3zyn11rtosc_splatEPKcSt3setINSt7__cxx1112basic_stringIcSt11char_traitsIcESaIcEEESt4lessIS8_ESaIS8_EE
ZynChorus.so:_ZN3zyn12AnalogFilter12computeCoeffEiffiffRi
ZynChorus.so:_ZN3zyn12AnalogFilter13setfreq_and_qEff
ZynChorus.so:_ZN3zyn12AnalogFilter15singlefilteroutEPfRNS0_6fstageEfj
ZynChorus.so:_ZN3zyn12AnalogFilter18computefiltercoefsEff
ZynChorus.so:_ZN3zyn12AnalogFilter1HEf
ZynChorus.so:_ZN3zyn12AnalogFilter4setqEf
ZynChorus.so:_ZN3zyn12AnalogFilter7cleanupEv
ZynChorus.so:_ZN3zyn12AnalogFilter7setfreqEf
ZynChorus.so:_ZN3zyn12AnalogFilter7setgainEf
ZynChorus.so:_ZN3zyn12AnalogFilter7settypeEi
ZynChorus.so:_ZN3zyn12AnalogFilter9filteroutEPf
ZynChorus.so:_ZN3zyn12AnalogFilter9setstagesEi
ZynChorus.so:_ZN3zyn12AnalogFilterC1Ehffhji
ZynChorus.so:_ZN3zyn12AnalogFilterC2Ehffhji
ZynChorus.so:_ZN3zyn12AnalogFilterD0Ev
ZynChorus.so:_ZN3zyn12AnalogFilterD1Ev
ZynChorus.so:_ZN3zyn12AnalogFilterD2Ev
ZynChorus.so:_ZN3zyn12EffectParamsC1ERNS_9AllocatorEbPfS3_hjiPNS_12FilterParamsEb
ZynChorus.so:_ZN3zyn12EffectParamsC2ERNS_9AllocatorEbPfS3_hjiPNS_12FilterParamsEb
ZynChorus.so:_ZN3zyn12FilterParams10getfromXMLERNS_10XMLwrapperE
ZynChorus.so:_ZN3zyn12FilterParams10pasteArrayERS0_i
ZynChorus.so:_ZN3zyn12FilterParams14add2XMLsectionERNS_10XMLwrapperEi
ZynChorus.so:_ZN3zyn12FilterParams14baseqFromOldPqEi
ZynChorus.so:_ZN3zyn12FilterParams16gainFromOldPgainEi
ZynChorus.so:_ZN3zyn12FilterParams17getfromXMLsectionERNS_10XMLwrapperEi
ZynChorus.so:_ZN3zyn12FilterParams19basefreqFromOldPreqEi
ZynChorus.so:_ZN3zyn12FilterParams19getfromFilterParamsEPKS0_
ZynChorus.so:_ZN3zyn12FilterParams5pasteERS0_
ZynChorus.so:_ZN3zyn12FilterParams5portsE
ZynChorus.so:_ZN3zyn12FilterParams5setupEv
ZynChorus.so:_ZN3zyn12FilterParams7add2XMLERNS_10XMLwrapperE
ZynChorus.so:_ZN3zyn12FilterParams8defaultsEi
ZynChorus.so:_ZN3zyn12FilterParams8defaultsEv
ZynChorus.so:_ZN3zyn12FilterParams9updateLocEi
ZynChorus.so:_ZN3zyn12FilterParams9updateLocEii
ZynChorus.so:_ZN3zyn12FilterParamsC1EPKNS_7AbsTimeE
ZynChorus.so:_ZN3zyn12FilterParamsC1EhhhiPKNS_7AbsTimeE
ZynChorus.so:_ZN3zyn12FilterParamsC1EiPKNS_7AbsTimeE
ZynChorus.so:_ZN3zyn12FilterParamsC2EPKNS_7AbsTimeE
ZynChorus.so:_ZN3zyn12FilterParamsC2EhhhiPKNS_7AbsTimeE
ZynChorus.so:_ZN3zyn12FilterParamsC2EiPKNS_7AbsTimeE
ZynChorus.so:_ZN3zyn12FilterParamsD0Ev
ZynChorus.so:_ZN3zyn12FilterParamsD1Ev
ZynChorus.so:_ZN3zyn12FilterParamsD2Ev
ZynChorus.so:_ZN3zyn12PresetsArray13setpresettypeEPKc
ZynChorus.so:_ZN3zyn12PresetsArray4copyERNS_12PresetsStoreEPKc
ZynChorus.so:_ZN3zyn12PresetsArray4copyERNS_12PresetsStoreEiPKc
ZynChorus.so:_ZN3zyn12PresetsArrayC1Ev
ZynChorus.so:_ZN3zyn12PresetsArrayC2Ev
ZynChorus.so:_ZN3zyn12PresetsArrayD0Ev
ZynChorus.so:_ZN3zyn12PresetsArrayD1Ev
ZynChorus.so:_ZN3zyn12PresetsArrayD2Ev
ZynChorus.so:_ZN3zyn12PresetsStore10copypresetERNS_10XMLwrapperEPcNSt7__cxx1112basic_stringIcSt11char_traitsIcESaIcEEE
ZynChorus.so:_ZN3zyn12PresetsStore11pastepresetERNS_10XMLwrapperEj
ZynChorus.so:_ZN3zyn12PresetsStore12clearpresetsEv
ZynChorus.so:_ZN3zyn12PresetsStore12deletepresetENSt7__cxx1112basic_stringIcSt11char_traitsIcESaIcEEE
ZynChorus.so:_ZN3zyn12PresetsStore12deletepresetEj
ZynChorus.so:_ZN3zyn12PresetsStore13copyclipboardERNS_10XMLwrapperEPc
ZynChorus.so:_ZN3zyn12PresetsStore14pasteclipboardERNS_10XMLwrapperE
ZynChorus.so:_ZN3zyn12PresetsStore14scanforpresetsEv
ZynChorus.so:_ZN3zyn12PresetsStore18checkclipboardtypeEPKc
ZynChorus.so:_ZN3zyn12PresetsStoreC1ERKNS_6ConfigE
ZynChorus.so:_ZN3zyn12PresetsStoreC2ERKNS_6ConfigE
ZynChorus.so:_ZN3zyn12PresetsStoreD1Ev
ZynChorus.so:_ZN3zyn12PresetsStoreD2Ev
ZynChorus.so:_ZN3zyn12cinterpolateEPKfmf
ZynChorus.so:_ZN3zyn12set_realtimeEv
ZynChorus.so:_ZN3zyn13FormantFilter13setfreq_and_qEff
ZynChorus.so:_ZN3zyn13FormantFilter4setqEf
ZynChorus.so:_ZN3zyn13FormantFilter6setposEf
ZynChorus.so:_ZN3zyn13FormantFilter7cleanupEv
ZynChorus.so:_ZN3zyn13FormantFilter7setfreqEf
ZynChorus.so:_ZN3zyn13FormantFilter7setgainEf
ZynChorus.so:_ZN3zyn13FormantFilter9filteroutEPf
ZynChorus.so:_ZN3zyn13FormantFilterC1EPKNS_12FilterParamsEPNS_9AllocatorEji
ZynChorus.so:_ZN3zyn13FormantFilterC2EPKNS_12FilterParamsEPNS_9AllocatorEji
ZynChorus.so:_ZN3zyn13FormantFilterD0Ev
ZynChorus.so:_ZN3zyn13FormantFilterD1Ev
ZynChorus.so:_ZN3zyn13FormantFilterD2Ev
ZynChorus.so:_ZN3zyn14AllocatorClass11dealloc_memEPv
ZynChorus.so:_ZN3zyn14AllocatorClass9addMemoryEPvm
ZynChorus.so:_ZN3zyn14AllocatorClass9alloc_memEm
ZynChorus.so:_ZN3zyn15mxmlFindElementEPK12_mxml_node_sS2_PKcS4_S4_i
ZynChorus.so:_ZN3zyn16legalizeFilenameENSt7__cxx1112basic_stringIcSt11char_traitsIcESaIcEEE
ZynChorus.so:_ZN3zyn16trimLeadingWhiteEPKc
ZynChorus.so:_ZN3zyn18mxmlElementGetAttrEPK12_mxml_node_sPKc
ZynChorus.so:_ZN3zyn19os_guess_pid_lengthEv
ZynChorus.so:_ZN3zyn23os_pid_as_padded_stringB5cxx11Ev
ZynChorus.so:_ZN3zyn30XMLwrapper_whitespace_callbackEP12_mxml_node_si
ZynChorus.so:_ZN3zyn4VelFEfh
ZynChorus.so:_ZN3zyn4dataEPNS_6next_tE
ZynChorus.so:_ZN3zyn5xml_kE
ZynChorus.so:_ZN3zyn6Chorus12getpresetparEhj
ZynChorus.so:_ZN3zyn6Chorus3outERKNS_6StereoIPfEE
ZynChorus.so:_ZN3zyn6Chorus5portsE
ZynChorus.so:_ZN3zyn6Chorus5setfbEh
ZynChorus.so:_ZN3zyn6Chorus7cleanupEv
ZynChorus.so:_ZN3zyn6Chorus8getdelayEf
ZynChorus.so:_ZN3zyn6Chorus8setdelayEh
ZynChorus.so:_ZN3zyn6Chorus8setdepthEh
ZynChorus.so:_ZN3zyn6Chorus9changeparEih
ZynChorus.so:_ZN3zyn6Chorus9setpresetEh
ZynChorus.so:_ZN3zyn6Chorus9setvolumeEh
ZynChorus.so:_ZN3zyn6ChorusC1ENS_12EffectParamsE
ZynChorus.so:_ZN3zyn6ChorusC2ENS_12EffectParamsE
ZynChorus.so:_ZN3zyn6ChorusD0Ev
ZynChorus.so:_ZN3zyn6ChorusD1Ev
ZynChorus.so:_ZN3zyn6ChorusD2Ev
ZynChorus.so:_ZN3zyn6Effect10setlrcrossEc
ZynChorus.so:_ZN3zyn6Effect10setpanningEc
ZynChorus.so:_ZN3zyn6Effect3outEPfS1_
ZynChorus.so:_ZN3zyn6Effect9crossoverERfS1_f
ZynChorus.so:_ZN3zyn6EffectC1ENS_12EffectParamsE
ZynChorus.so:_ZN3zyn6EffectC2ENS_12EffectParamsE
ZynChorus.so:_ZN3zyn6Filter11getrealfreqEf
ZynChorus.so:_ZN3zyn6Filter8generateERNS_9AllocatorEPKNS_12FilterParamsEji
ZynChorus.so:_ZN3zyn6FilterC1Eji
ZynChorus.so:_ZN3zyn6FilterC2Eji
ZynChorus.so:_ZN3zyn7Presets12deletepresetERNS_12PresetsStoreEi
ZynChorus.so:_ZN3zyn7Presets13setpresettypeEPKc
ZynChorus.so:_ZN3zyn7Presets18checkclipboardtypeERNS_12PresetsStoreE
ZynChorus.so:_ZN3zyn7Presets4copyERNS_12PresetsStoreEPKc
ZynChorus.so:_ZN3zyn7PresetsC1Ev
ZynChorus.so:_ZN3zyn7PresetsC2Ev
ZynChorus.so:_ZN3zyn7PresetsD0Ev
ZynChorus.so:_ZN3zyn7PresetsD1Ev
ZynChorus.so:_ZN3zyn7PresetsD2Ev
ZynChorus.so:_ZN3zyn7SYNTH_T9numRandomEv
ZynChorus.so:_ZN3zyn7XmlNode3hasENSt7__cxx1112basic_stringIcSt11char_traitsIcESaIcEEE
ZynChorus.so:_ZN3zyn7XmlNodeC1ENSt7__cxx1112basic_stringIcSt11char_traitsIcESaIcEEE
ZynChorus.so:_ZN3zyn7XmlNodeC2ENSt7__cxx1112basic_stringIcSt11char_traitsIcESaIcEEE
ZynChorus.so:_ZN3zyn7XmlNodeixENSt7__cxx1112basic_stringIcSt11char_traitsIcESaIcEEE
ZynChorus.so:_ZN3zyn7verboseE
ZynChorus.so:_ZN3zyn8SVFilter13setfreq_and_qEff
ZynChorus.so:_ZN3zyn8SVFilter15computeResponseEiffiff
ZynChorus.so:_ZN3zyn8SVFilter15singlefilteroutEPfRNS0_6fstageERNS0_10parametersEi
ZynChorus.so:_ZN3zyn8SVFilter18computefiltercoefsEv
ZynChorus.so:_ZN3zyn8SVFilter19getfilteroutfortypeERNS0_6fstageE
ZynChorus.so:_ZN3zyn8SVFilter4setqEf
ZynChorus.so:_ZN3zyn8SVFilter7cleanupEv
ZynChorus.so:_ZN3zyn8SVFilter7setfreqEf
ZynChorus.so:_ZN3zyn8SVFilter7setgainEf
ZynChorus.so:_ZN3zyn8SVFilter7settypeEi
ZynChorus.so:_ZN3zyn8SVFilter8responseC1Effffff
ZynChorus.so:_ZN3zyn8SVFilter8responseC2Effffff
ZynChorus.so:_ZN3zyn8SVFilter9filteroutEPf
ZynChorus.so:_ZN3zyn8SVFilter9setstagesEi
ZynChorus.so:_ZN3zyn8SVFilterC1Ehffhji
ZynChorus.so:_ZN3zyn8SVFilterC2Ehffhji
ZynChorus.so:_ZN3zyn8SVFilterD0Ev
ZynChorus.so:_ZN3zyn8SVFilterD1Ev
ZynChorus.so:_ZN3zyn8SVFilterD2Ev
ZynChorus.so:_ZN3zyn8isPluginE
ZynChorus.so:_ZN3zyn9Allocator14endTransactionEv
ZynChorus.so:_ZN3zyn9Allocator16beginTransactionEv
ZynChorus.so:_ZN3zyn9Allocator19rollbackTransactionEv
ZynChorus.so:_ZN3zyn9AllocatorC1Ev
ZynChorus.so:_ZN3zyn9AllocatorC2Ev
ZynChorus.so:_ZN3zyn9AllocatorD0Ev
ZynChorus.so:_ZN3zyn9AllocatorD1Ev
ZynChorus.so:_ZN3zyn9AllocatorD2Ev
ZynChorus.so:_ZN3zyn9EffectLFO11getlfoshapeEf
ZynChorus.so:_ZN3zyn9EffectLFO12effectlfooutEPfS1_
ZynChorus.so:_ZN3zyn9EffectLFO12updateparamsEv
ZynChorus.so:_ZN3zyn9EffectLFOC1Eff
ZynChorus.so:_ZN3zyn9EffectLFOC2Eff
ZynChorus.so:_ZN3zyn9EffectLFOD1Ev
ZynChorus.so:_ZN3zyn9EffectLFOD2Ev
ZynChorus.so:_ZN3zyn9getdetuneEhtt
ZynChorus.so:_ZN3zyn9invSignalEPfm
ZynChorus.so:_ZN3zyn9os_usleepEl
ZynChorus.so:_ZN3zynlsERSoRKNS_12version_typeE
ZynChorus.so:_ZN5rtosc10ClonePortsC1ERKNS_5PortsESt16initializer_listINS_9ClonePortEE
ZynChorus.so:_ZN5rtosc10ClonePortsC2ERKNS_5PortsESt16initializer_listINS_9ClonePortEE
ZynChorus.so:_ZN5rtosc10MergePortsC1ESt16initializer_listIPKNS_5PortsEE
ZynChorus.so:_ZN5rtosc10MergePortsC2ESt16initializer_listIPKNS_5PortsEE
ZynChorus.so:_ZN5rtosc10walk_portsEPKNS_5PortsEPcmPvPFvPKNS_4PortEPKcS9_RS1_S4_S4_EbS4_b
ZynChorus.so:_ZN5rtosc11path_searchERKNS_5PortsEPKcS4_PcmP11rtosc_arg_tmNS_16path_search_optsEb
ZynChorus.so:_ZN5rtosc11path_searchERKNS_5PortsEPKcmPcmNS_16path_search_optsEb
ZynChorus.so:_ZN5rtosc12map_arg_valsEP15rtosc_arg_val_tmNS_4Port13MetaContainerE
ZynChorus.so:_ZN5rtosc17enum_key_from_msgENS_4Port13MetaContainerEPKc
ZynChorus.so:_ZN5rtosc21canonicalize_arg_valsEP15rtosc_arg_val_tmPKcNS_4Port13MetaContainerE
ZynChorus.so:_ZN5rtosc4Port12MetaIteratorC1EPKc
ZynChorus.so:_ZN5rtosc4Port12MetaIteratorC2EPKc
ZynChorus.so:_ZN5rtosc4Port12MetaIteratorppEv
ZynChorus.so:_ZN5rtosc4Port13MetaContainerC1EPKc
ZynChorus.so:_ZN5rtosc4Port13MetaContainerC2EPKc
ZynChorus.so:_ZN5rtosc5Ports12collapsePathEPc
ZynChorus.so:_ZN5rtosc5Ports12refreshMagicEv
ZynChorus.so:_ZN5rtosc5PortsC1ESt16initializer_listINS_4PortEE
ZynChorus.so:_ZN5rtosc5PortsC2ESt16initializer_listINS_4PortEE
ZynChorus.so:_ZN5rtosc5PortsD1Ev
ZynChorus.so:_ZN5rtosc5PortsD2Ev
ZynChorus.so:_ZN5rtosc6RtData10chainArrayEPKcS2_P11rtosc_arg_t
ZynChorus.so:_ZN5rtosc6RtData10push_indexEi
ZynChorus.so:_ZN5rtosc6RtData10replyArrayEPKcS2_P11rtosc_arg_t
ZynChorus.so:_ZN5rtosc6RtData14broadcastArrayEPKcS2_P11rtosc_arg_t
ZynChorus.so:_ZN5rtosc6RtData5chainEPKc
ZynChorus.so:_ZN5rtosc6RtData5chainEPKcS2_z
ZynChorus.so:_ZN5rtosc6RtData5replyEPKc
ZynChorus.so:_ZN5rtosc6RtData5replyEPKcS2_z
ZynChorus.so:_ZN5rtosc6RtData7forwardEPKc
ZynChorus.so:_ZN5rtosc6RtData9broadcastEPKc
ZynChorus.so:_ZN5rtosc6RtData9broadcastEPKcS2_z
ZynChorus.so:_ZN5rtosc6RtData9pop_indexEv
ZynChorus.so:_ZN5rtosc6RtDataC1Ev
ZynChorus.so:_ZN5rtosc6RtDataC2Ev
ZynChorus.so:_ZN5rtosc7helpers22get_value_from_runtimeEPvRKNS_4PortEmPcPKcmmP15rtosc_arg_val_tPSt6vectorISA_IcSaIcEESaISC_EE
ZynChorus.so:_ZN5rtosc7helpers22get_value_from_runtimeEPvRKNS_5PortsEmPcS5_mi
ZynChorus.so:_ZN5rtosc8enum_keyENS_4Port13MetaContainerEPKc
ZynChorus.so:_ZN5rtosclsERSoRNS_15OscDocFormatterE
ZynChorus.so:_ZN7DISTRHO12createPluginEv
ZynChorus.so:_ZN7DISTRHO14PluginExporter15sFallbackRangesE
ZynChorus.so:_ZN7DISTRHO14PluginExporter15sFallbackStringE
ZynChorus.so:_ZN7DISTRHO14PluginExporter18sFallbackAudioPortE
ZynChorus.so:_ZN7DISTRHO14PluginExporter18sFallbackPortGroupE
ZynChorus.so:_ZN7DISTRHO14PluginExporter19sFallbackEnumValuesE
ZynChorus.so:_ZN7DISTRHO14snprintf_paramEPcfm
ZynChorus.so:_ZN7DISTRHO15snprintf_iparamEPcim
ZynChorus.so:_ZN7DISTRHO16d_lastBufferSizeE
ZynChorus.so:_ZN7DISTRHO16d_lastSampleRateE
ZynChorus.so:_ZN7DISTRHO37d_lastCanRequestParameterValueChangesE
ZynChorus.so:_ZN7DISTRHO6Plugin13initAudioPortEbjRNS_9AudioPortE
ZynChorus.so:_ZN7DISTRHO6Plugin13initPortGroupEjRNS_9PortGroupE
ZynChorus.so:_ZN7DISTRHO6Plugin17bufferSizeChangedEj
ZynChorus.so:_ZN7DISTRHO6Plugin17sampleRateChangedEd
ZynChorus.so:_ZN7DISTRHO6PluginC1Ejjj
ZynChorus.so:_ZN7DISTRHO6PluginC2Ejjj
ZynChorus.so:_ZN7DISTRHO6PluginD0Ev
ZynChorus.so:_ZN7DISTRHO6PluginD1Ev
ZynChorus.so:_ZN7DISTRHO6PluginD2Ev
ZynChorus.so:_ZN7DISTRHO7strncpyEPcPKcm
ZynChorus.so:_ZNK3zyn10XMLwrapper10doloadfileERKNSt7__cxx1112basic_stringIcSt11char_traitsIcESaIcEEE
ZynChorus.so:_ZNK3zyn10XMLwrapper10dosavefileEPKciS2_
ZynChorus.so:_ZNK3zyn10XMLwrapper10getXMLdataEv
ZynChorus.so:_ZNK3zyn10XMLwrapper10getparboolERKNSt7__cxx1112basic_stringIcSt11char_traitsIcESaIcEEEi
ZynChorus.so:_ZNK3zyn10XMLwrapper10getparrealEPKcf
ZynChorus.so:_ZNK3zyn10XMLwrapper10getparrealEPKcfff
ZynChorus.so:_ZNK3zyn10XMLwrapper10hasparrealEPKc
ZynChorus.so:_ZNK3zyn10XMLwrapper11getbranchidEii
ZynChorus.so:_ZNK3zyn10XMLwrapper11hasPadSynthEv
ZynChorus.so:_ZNK3zyn10XMLwrapper11saveXMLfileERKNSt7__cxx1112basic_stringIcSt11char_traitsIcESaIcEEEi
ZynChorus.so:_ZNK3zyn10XMLwrapper6getparERKNSt7__cxx1112basic_stringIcSt11char_traitsIcESaIcEEEiii
ZynChorus.so:_ZNK3zyn10XMLwrapper9addparamsEPKcjz
ZynChorus.so:_ZNK3zyn10XMLwrapper9getBranchEv
ZynChorus.so:_ZNK3zyn10XMLwrapper9getpar127ERKNSt7__cxx1112basic_stringIcSt11char_traitsIcESaIcEEEi
ZynChorus.so:_ZNK3zyn10XMLwrapper9getparstrERKNSt7__cxx1112basic_stringIcSt11char_traitsIcESaIcEEEPci
ZynChorus.so:_ZNK3zyn10XMLwrapper9getparstrERKNSt7__cxx1112basic_stringIcSt11char_traitsIcESaIcEEES8_
ZynChorus.so:_ZNK3zyn12FilterParams10getfreqposEf
ZynChorus.so:_ZNK3zyn12FilterParams11getformantqEh
ZynChorus.so:_ZNK3zyn12FilterParams13getcenterfreqEv
ZynChorus.so:_ZNK3zyn12FilterParams13getformantampEh
ZynChorus.so:_ZNK3zyn12FilterParams14getformantfreqEh
ZynChorus.so:_ZNK3zyn12FilterParams14getoctavesfreqEv
ZynChorus.so:_ZNK3zyn12FilterParams15getfreqtrackingEf
ZynChorus.so:_ZNK3zyn12FilterParams4getqEv
ZynChorus.so:_ZNK3zyn12FilterParams7getfreqEv
ZynChorus.so:_ZNK3zyn12FilterParams7getgainEv
ZynChorus.so:_ZNK3zyn12FilterParams8getfreqxEf
ZynChorus.so:_ZNK3zyn12PresetsStore12presetstructltERKS1_
ZynChorus.so:_ZNK3zyn14AllocatorClass9lowMemoryEjm
ZynChorus.so:_ZNK3zyn6Chorus6getparEi
ZynChorus.so:_ZNK3zyn9Allocator12totalAllocedEv
ZynChorus.so:_ZNK3zyn9Allocator7memFreeEPv
ZynChorus.so:_ZNK3zyn9Allocator8memPoolsEv
ZynChorus.so:_ZNK3zyn9Allocator9freePoolsEv
ZynChorus.so:_ZNK5rtosc4Port12MetaIteratorcvbEv
ZynChorus.so:_ZNK5rtosc4Port13MetaContainer3endEv
ZynChorus.so:_ZNK5rtosc4Port13MetaContainer4findEPKc
ZynChorus.so:_ZNK5rtosc4Port13MetaContainer5beginEv
ZynChorus.so:_ZNK5rtosc4Port13MetaContainer6lengthEv
ZynChorus.so:_ZNK5rtosc4Port13MetaContainerixEPKc
ZynChorus.so:_ZNK5rtosc5Ports7aproposEPKc
ZynChorus.so:_ZNK5rtosc5Ports8dispatchEPKcRNS_6RtDataEb
ZynChorus.so:_ZNK5rtosc5PortsixEPKc
ZynChorus.so:_ZNK7DISTRHO6Plugin13getBufferSizeEv
ZynChorus.so:_ZNK7DISTRHO6Plugin13getSampleRateEv
ZynChorus.so:advance_path
ZynChorus.so:arraytypes_match
ZynChorus.so:chunk_path
ZynChorus.so:delta_from_arg_vals
ZynChorus.so:fast_strcpy
ZynChorus.so:get_default_cmp_options
ZynChorus.so:lv2_descriptor
ZynChorus.so:lv2_generate_ttl
ZynChorus.so:main
ZynChorus.so:parse_identifier
ZynChorus.so:range_min
ZynChorus.so:rtosc_amessage
ZynChorus.so:rtosc_arg_arr_len
ZynChorus.so:rtosc_arg_arr_len_set
ZynChorus.so:rtosc_arg_arr_type
ZynChorus.so:rtosc_arg_arr_type_set
ZynChorus.so:rtosc_arg_rep_has_delta
ZynChorus.so:rtosc_arg_rep_has_delta_set
ZynChorus.so:rtosc_arg_rep_num
ZynChorus.so:rtosc_arg_rep_num_set
ZynChorus.so:rtosc_arg_val_add
ZynChorus.so:rtosc_arg_val_current_time
ZynChorus.so:rtosc_arg_val_div
ZynChorus.so:rtosc_arg_val_from_double
ZynChorus.so:rtosc_arg_val_from_int
ZynChorus.so:rtosc_arg_val_from_params
ZynChorus.so:rtosc_arg_val_from_time_t
ZynChorus.so:rtosc_arg_val_immediatelly
ZynChorus.so:rtosc_arg_val_is_immediatelly
ZynChorus.so:rtosc_arg_val_itr_get
ZynChorus.so:rtosc_arg_val_itr_init
ZynChorus.so:rtosc_arg_val_itr_next
ZynChorus.so:rtosc_arg_val_mult
ZynChorus.so:rtosc_arg_val_negate
ZynChorus.so:rtosc_arg_val_null
ZynChorus.so:rtosc_arg_val_range_arg
ZynChorus.so:rtosc_arg_val_round
ZynChorus.so:rtosc_arg_val_sub
ZynChorus.so:rtosc_arg_val_to_int
ZynChorus.so:rtosc_arg_vals_cmp
ZynChorus.so:rtosc_arg_vals_cmp_has_next
ZynChorus.so:rtosc_arg_vals_cmp_single
ZynChorus.so:rtosc_arg_vals_eq
ZynChorus.so:rtosc_arg_vals_eq_after_abort
ZynChorus.so:rtosc_arg_vals_eq_single
ZynChorus.so:rtosc_argument
ZynChorus.so:rtosc_argument_string
ZynChorus.so:rtosc_av_arr_len
ZynChorus.so:rtosc_av_arr_len_set
ZynChorus.so:rtosc_av_arr_type
ZynChorus.so:rtosc_av_arr_type_set
ZynChorus.so:rtosc_av_rep_has_delta
ZynChorus.so:rtosc_av_rep_has_delta_set
ZynChorus.so:rtosc_av_rep_num
ZynChorus.so:rtosc_av_rep_num_set
ZynChorus.so:rtosc_bundle
ZynChorus.so:rtosc_bundle_elements
ZynChorus.so:rtosc_bundle_fetch
ZynChorus.so:rtosc_bundle_p
ZynChorus.so:rtosc_bundle_size
ZynChorus.so:rtosc_bundle_timetag
ZynChorus.so:rtosc_count_printed_arg_vals
ZynChorus.so:rtosc_count_printed_arg_vals_of_msg
ZynChorus.so:rtosc_float2secfracs
ZynChorus.so:rtosc_itr_begin
ZynChorus.so:rtosc_itr_end
ZynChorus.so:rtosc_itr_next
ZynChorus.so:rtosc_match
ZynChorus.so:rtosc_match_full_path
ZynChorus.so:rtosc_match_options
ZynChorus.so:rtosc_match_partial
ZynChorus.so:rtosc_match_path
ZynChorus.so:rtosc_matchable_path
ZynChorus.so:rtosc_message
ZynChorus.so:rtosc_message_length
ZynChorus.so:rtosc_message_ring_length
ZynChorus.so:rtosc_narguments
ZynChorus.so:rtosc_params_from_arg_val
ZynChorus.so:rtosc_print_arg_val
ZynChorus.so:rtosc_print_arg_vals
ZynChorus.so:rtosc_print_message
ZynChorus.so:rtosc_scan_arg_val
ZynChorus.so:rtosc_scan_arg_vals
ZynChorus.so:rtosc_scan_message
ZynChorus.so:rtosc_secfracs2float
ZynChorus.so:rtosc_secfracs_from_arg_val
ZynChorus.so:rtosc_skip_next_printed_arg
ZynChorus.so:rtosc_subpath_pat_type
ZynChorus.so:rtosc_time_t_from_arg_val
ZynChorus.so:rtosc_type
ZynChorus.so:rtosc_v2argvals
ZynChorus.so:rtosc_valid_message_p
ZynChorus.so:rtosc_vmessage
ZynChorus.so:tlsf_add_pool
ZynChorus.so:tlsf_align_size
ZynChorus.so:tlsf_alloc_overhead
ZynChorus.so:tlsf_block_size
ZynChorus.so:tlsf_block_size_max
ZynChorus.so:tlsf_block_size_min
ZynChorus.so:tlsf_check
ZynChorus.so:tlsf_check_pool
ZynChorus.so:tlsf_create
ZynChorus.so:tlsf_create_with_pool
ZynChorus.so:tlsf_destroy
ZynChorus.so:tlsf_free
ZynChorus.so:tlsf_get_pool
ZynChorus.so:tlsf_malloc
ZynChorus.so:tlsf_memalign
ZynChorus.so:tlsf_pool_overhead
ZynChorus.so:tlsf_realloc
ZynChorus.so:tlsf_remove_pool
ZynChorus.so:tlsf_size
ZynChorus.so:tlsf_walk_pool
ZynChorus.so:types_match
ZynDistortion.so:_Z15port_is_enabledPKN5rtosc4PortEPcmRKNS_5PortsEPvbPFvS2_PKcS9_S6_S7_S7_ES7_
ZynDistortion.so:_Z20metaiterator_advanceRPKcS1_
ZynDistortion.so:_Z7do_hashRKSt6vectorINSt7__cxx1112basic_stringIcSt11char_traitsIcESaIcEEESaIS5_EERKS_IiSaIiEE
ZynDistortion.so:_ZN22Value_Smoothing_Filter11sample_rateEm
ZynDistortion.so:_ZN22Value_Smoothing_Filter5applyEPfmf
ZynDistortion.so:_ZN3zyn10CombFilter13setfreq_and_qEff
ZynDistortion.so:_ZN3zyn10CombFilter4setqEf
ZynDistortion.so:_ZN3zyn10CombFilter7setfreqEf
ZynDistortion.so:_ZN3zyn10CombFilter7setgainEf
ZynDistortion.so:_ZN3zyn10CombFilter7settypeEh
ZynDistortion.so:_ZN3zyn10CombFilter9filteroutEPf
ZynDistortion.so:_ZN3zyn10CombFilterC1EPNS_9AllocatorEhffji
ZynDistortion.so:_ZN3zyn10CombFilterC2EPNS_9AllocatorEhffji
ZynDistortion.so:_ZN3zyn10CombFilterD0Ev
ZynDistortion.so:_ZN3zyn10CombFilterD1Ev
ZynDistortion.so:_ZN3zyn10CombFilterD2Ev
ZynDistortion.so:_ZN3zyn10Distortion12applyfiltersEPfS1_
ZynDistortion.so:_ZN3zyn10Distortion12getpresetparEhj
ZynDistortion.so:_ZN3zyn10Distortion3outERKNS_6StereoIPfEE
ZynDistortion.so:_ZN3zyn10Distortion5portsE
ZynDistortion.so:_ZN3zyn10Distortion6sethpfEh
ZynDistortion.so:_ZN3zyn10Distortion6setlpfEh
ZynDistortion.so:_ZN3zyn10Distortion7cleanupEv
ZynDistortion.so:_ZN3zyn10Distortion9changeparEih
ZynDistortion.so:_ZN3zyn10Distortion9setpresetEh
ZynDistortion.so:_ZN3zyn10Distortion9setvolumeEh
ZynDistortion.so:_ZN3zyn10DistortionC1ENS_12EffectParamsE
ZynDistortion.so:_ZN3zyn10DistortionC2ENS_12EffectParamsE
ZynDistortion.so:_ZN3zyn10DistortionD0Ev
ZynDistortion.so:_ZN3zyn10DistortionD1Ev
ZynDistortion.so:_ZN3zyn10DistortionD2Ev
ZynDistortion.so:_ZN3zyn10DummyAllocE
ZynDistortion.so:_ZN3zyn10MoogFilter13setfreq_and_qEff
ZynDistortion.so:_ZN3zyn10MoogFilter4setqEf
ZynDistortion.so:_ZN3zyn10MoogFilter7setfreqEf
ZynDistortion.so:_ZN3zyn10MoogFilter7setgainEf
ZynDistortion.so:_ZN3zyn10MoogFilter7settypeEh
ZynDistortion.so:_ZN3zyn10MoogFilter9filteroutEPf
ZynDistortion.so:_ZN3zyn10MoogFilterC1Ehffji
ZynDistortion.so:_ZN3zyn10MoogFilterC2Ehffji
ZynDistortion.so:_ZN3zyn10MoogFilterD0Ev
ZynDistortion.so:_ZN3zyn10MoogFilterD1Ev
ZynDistortion.so:_ZN3zyn10MoogFilterD2Ev
ZynDistortion.so:_ZN3zyn10XMLwrapper10addparboolERKNSt7__cxx1112basic_stringIcSt11char_traitsIcESaIcEEEi
ZynDistortion.so:_ZN3zyn10XMLwrapper10addparrealERKNSt7__cxx1112basic_stringIcSt11char_traitsIcESaIcEEEf
ZynDistortion.so:_ZN3zyn10XMLwrapper10exitbranchEv
ZynDistortion.so:_ZN3zyn10XMLwrapper10putXMLdataEPKc
ZynDistortion.so:_ZN3zyn10XMLwrapper11beginbranchERKNSt7__cxx1112basic_stringIcSt11char_traitsIcESaIcEEE
ZynDistortion.so:_ZN3zyn10XMLwrapper11beginbranchERKNSt7__cxx1112basic_stringIcSt11char_traitsIcESaIcEEEi
ZynDistortion.so:_ZN3zyn10XMLwrapper11enterbranchERKNSt7__cxx1112basic_stringIcSt11char_traitsIcESaIcEEE
ZynDistortion.so:_ZN3zyn10XMLwrapper11enterbranchERKNSt7__cxx1112basic_stringIcSt11char_traitsIcESaIcEEEi
ZynDistortion.so:_ZN3zyn10XMLwrapper11loadXMLfileERKNSt7__cxx1112basic_stringIcSt11char_traitsIcESaIcEEE
ZynDistortion.so:_ZN3zyn10XMLwrapper11setPadSynthEb
ZynDistortion.so:_ZN3zyn10XMLwrapper3addERKNS_7XmlNodeE
ZynDistortion.so:_ZN3zyn10XMLwrapper6addparERKNSt7__cxx1112basic_stringIcSt11char_traitsIcESaIcEEEi
ZynDistortion.so:_ZN3zyn10XMLwrapper7cleanupEv
ZynDistortion.so:_ZN3zyn10XMLwrapper9addparstrERKNSt7__cxx1112basic_stringIcSt11char_traitsIcESaIcEEES8_
ZynDistortion.so:_ZN3zyn10XMLwrapper9endbranchEv
ZynDistortion.so:_ZN3zyn10XMLwrapperC1Ev
ZynDistortion.so:_ZN3zyn10XMLwrapperC2Ev
ZynDistortion.so:_ZN3zyn10XMLwrapperD1Ev
ZynDistortion.so:_ZN3zyn10XMLwrapperD2Ev
ZynDistortion.so:_ZN3zyn10fileexistsEPKc
ZynDistortion.so:_ZN3zyn10prng_stateE
ZynDistortion.so:_ZN3zyn11fast_strcpyEPcPKcm
ZynDistortion.so:_ZN3zyn11interpolateEPKfmf
ZynDistortion.so:_ZN3zyn11rtosc_splatEPKcSt3setINSt7__cxx1112basic_stringIcSt11char_traitsIcESaIcEEESt4lessIS8_ESaIS8_EE
ZynDistortion.so:_ZN3zyn12AnalogFilter12computeCoeffEiffiffRi
ZynDistortion.so:_ZN3zyn12AnalogFilter13setfreq_and_qEff
ZynDistortion.so:_ZN3zyn12AnalogFilter15singlefilteroutEPfRNS0_6fstageEfj
ZynDistortion.so:_ZN3zyn12AnalogFilter18computefiltercoefsEff
ZynDistortion.so:_ZN3zyn12AnalogFilter1HEf
ZynDistortion.so:_ZN3zyn12AnalogFilter4setqEf
ZynDistortion.so:_ZN3zyn12AnalogFilter7cleanupEv
ZynDistortion.so:_ZN3zyn12AnalogFilter7setfreqEf
ZynDistortion.so:_ZN3zyn12AnalogFilter7setgainEf
ZynDistortion.so:_ZN3zyn12AnalogFilter7settypeEi
ZynDistortion.so:_ZN3zyn12AnalogFilter9filteroutEPf
ZynDistortion.so:_ZN3zyn12AnalogFilter9setstagesEi
ZynDistortion.so:_ZN3zyn12AnalogFilterC1Ehffhji
ZynDistortion.so:_ZN3zyn12AnalogFilterC2Ehffhji
ZynDistortion.so:_ZN3zyn12AnalogFilterD0Ev
ZynDistortion.so:_ZN3zyn12AnalogFilterD1Ev
ZynDistortion.so:_ZN3zyn12AnalogFilterD2Ev
ZynDistortion.so:_ZN3zyn12EffectParamsC1ERNS_9AllocatorEbPfS3_hjiPNS_12FilterParamsEb
ZynDistortion.so:_ZN3zyn12EffectParamsC2ERNS_9AllocatorEbPfS3_hjiPNS_12FilterParamsEb
ZynDistortion.so:_ZN3zyn12FilterParams10getfromXMLERNS_10XMLwrapperE
ZynDistortion.so:_ZN3zyn12FilterParams10pasteArrayERS0_i
ZynDistortion.so:_ZN3zyn12FilterParams14add2XMLsectionERNS_10XMLwrapperEi
ZynDistortion.so:_ZN3zyn12FilterParams14baseqFromOldPqEi
ZynDistortion.so:_ZN3zyn12FilterParams16gainFromOldPgainEi
ZynDistortion.so:_ZN3zyn12FilterParams17getfromXMLsectionERNS_10XMLwrapperEi
ZynDistortion.so:_ZN3zyn12FilterParams19basefreqFromOldPreqEi
ZynDistortion.so:_ZN3zyn12FilterParams19getfromFilterParamsEPKS0_
ZynDistortion.so:_ZN3zyn12FilterParams5pasteERS0_
ZynDistortion.so:_ZN3zyn12FilterParams5portsE
ZynDistortion.so:_ZN3zyn12FilterParams5setupEv
ZynDistortion.so:_ZN3zyn12FilterParams7add2XMLERNS_10XMLwrapperE
ZynDistortion.so:_ZN3zyn12FilterParams8defaultsEi
ZynDistortion.so:_ZN3zyn12FilterParams8defaultsEv
ZynDistortion.so:_ZN3zyn12FilterParams9updateLocEi
ZynDistortion.so:_ZN3zyn12FilterParams9updateLocEii
ZynDistortion.so:_ZN3zyn12FilterParamsC1EPKNS_7AbsTimeE
ZynDistortion.so:_ZN3zyn12FilterParamsC1EhhhiPKNS_7AbsTimeE
ZynDistortion.so:_ZN3zyn12FilterParamsC1EiPKNS_7AbsTimeE
ZynDistortion.so:_ZN3zyn12FilterParamsC2EPKNS_7AbsTimeE
ZynDistortion.so:_ZN3zyn12FilterParamsC2EhhhiPKNS_7AbsTimeE
ZynDistortion.so:_ZN3zyn12FilterParamsC2EiPKNS_7AbsTimeE
ZynDistortion.so:_ZN3zyn12FilterParamsD0Ev
ZynDistortion.so:_ZN3zyn12FilterParamsD1Ev
ZynDistortion.so:_ZN3zyn12FilterParamsD2Ev
ZynDistortion.so:_ZN3zyn12PresetsArray13setpresettypeEPKc
ZynDistortion.so:_ZN3zyn12PresetsArray4copyERNS_12PresetsStoreEPKc
ZynDistortion.so:_ZN3zyn12PresetsArray4copyERNS_12PresetsStoreEiPKc
ZynDistortion.so:_ZN3zyn12PresetsArrayC1Ev
ZynDistortion.so:_ZN3zyn12PresetsArrayC2Ev
ZynDistortion.so:_ZN3zyn12PresetsArrayD0Ev
ZynDistortion.so:_ZN3zyn12PresetsArrayD1Ev
ZynDistortion.so:_ZN3zyn12PresetsArrayD2Ev
ZynDistortion.so:_ZN3zyn12PresetsStore10copypresetERNS_10XMLwrapperEPcNSt7__cxx1112basic_stringIcSt11char_traitsIcESaIcEEE
ZynDistortion.so:_ZN3zyn12PresetsStore11pastepresetERNS_10XMLwrapperEj
ZynDistortion.so:_ZN3zyn12PresetsStore12clearpresetsEv
ZynDistortion.so:_ZN3zyn12PresetsStore12deletepresetENSt7__cxx1112basic_stringIcSt11char_traitsIcESaIcEEE
ZynDistortion.so:_ZN3zyn12PresetsStore12deletepresetEj
ZynDistortion.so:_ZN3zyn12PresetsStore13copyclipboardERNS_10XMLwrapperEPc
ZynDistortion.so:_ZN3zyn12PresetsStore14pasteclipboardERNS_10XMLwrapperE
ZynDistortion.so:_ZN3zyn12PresetsStore14scanforpresetsEv
ZynDistortion.so:_ZN3zyn12PresetsStore18checkclipboardtypeEPKc
ZynDistortion.so:_ZN3zyn12PresetsStoreC1ERKNS_6ConfigE
ZynDistortion.so:_ZN3zyn12PresetsStoreC2ERKNS_6ConfigE
ZynDistortion.so:_ZN3zyn12PresetsStoreD1Ev
ZynDistortion.so:_ZN3zyn12PresetsStoreD2Ev
ZynDistortion.so:_ZN3zyn12cinterpolateEPKfmf
ZynDistortion.so:_ZN3zyn12polyblampresEfff
ZynDistortion.so:_ZN3zyn12set_realtimeEv
ZynDistortion.so:_ZN3zyn13FormantFilter13setfreq_and_qEff
ZynDistortion.so:_ZN3zyn13FormantFilter4setqEf
ZynDistortion.so:_ZN3zyn13FormantFilter6setposEf
ZynDistortion.so:_ZN3zyn13FormantFilter7cleanupEv
ZynDistortion.so:_ZN3zyn13FormantFilter7setfreqEf
ZynDistortion.so:_ZN3zyn13FormantFilter7setgainEf
ZynDistortion.so:_ZN3zyn13FormantFilter9filteroutEPf
ZynDistortion.so:_ZN3zyn13FormantFilterC1EPKNS_12FilterParamsEPNS_9AllocatorEji
ZynDistortion.so:_ZN3zyn13FormantFilterC2EPKNS_12FilterParamsEPNS_9AllocatorEji
ZynDistortion.so:_ZN3zyn13FormantFilterD0Ev
ZynDistortion.so:_ZN3zyn13FormantFilterD1Ev
ZynDistortion.so:_ZN3zyn13FormantFilterD2Ev
ZynDistortion.so:_ZN3zyn13waveShapeSmpsEiPfhhhh
ZynDistortion.so:_ZN3zyn14AllocatorClass11dealloc_memEPv
ZynDistortion.so:_ZN3zyn14AllocatorClass9addMemoryEPvm
ZynDistortion.so:_ZN3zyn14AllocatorClass9alloc_memEm
ZynDistortion.so:_ZN3zyn15mxmlFindElementEPK12_mxml_node_sS2_PKcS4_S4_i
ZynDistortion.so:_ZN3zyn16legalizeFilenameENSt7__cxx1112basic_stringIcSt11char_traitsIcESaIcEEE
ZynDistortion.so:_ZN3zyn16trimLeadingWhiteEPKc
ZynDistortion.so:_ZN3zyn18mxmlElementGetAttrEPK12_mxml_node_sPKc
ZynDistortion.so:_ZN3zyn19os_guess_pid_lengthEv
ZynDistortion.so:_ZN3zyn23os_pid_as_padded_stringB5cxx11Ev
ZynDistortion.so:_ZN3zyn30XMLwrapper_whitespace_callbackEP12_mxml_node_si
ZynDistortion.so:_ZN3zyn4VelFEfh
ZynDistortion.so:_ZN3zyn4dataEPNS_6next_tE
ZynDistortion.so:_ZN3zyn5xml_kE
ZynDistortion.so:_ZN3zyn6Effect10setlrcrossEc
ZynDistortion.so:_ZN3zyn6Effect10setpanningEc
ZynDistortion.so:_ZN3zyn6Effect3outEPfS1_
ZynDistortion.so:_ZN3zyn6Effect9crossoverERfS1_f
ZynDistortion.so:_ZN3zyn6EffectC1ENS_12EffectParamsE
ZynDistortion.so:_ZN3zyn6EffectC2ENS_12EffectParamsE
ZynDistortion.so:_ZN3zyn6Filter11getrealfreqEf
ZynDistortion.so:_ZN3zyn6Filter8generateERNS_9AllocatorEPKNS_12FilterParamsEji
ZynDistortion.so:_ZN3zyn6FilterC1Eji
ZynDistortion.so:_ZN3zyn6FilterC2Eji
ZynDistortion.so:_ZN3zyn7Presets12deletepresetERNS_12PresetsStoreEi
ZynDistortion.so:_ZN3zyn7Presets13setpresettypeEPKc
ZynDistortion.so:_ZN3zyn7Presets18checkclipboardtypeERNS_12PresetsStoreE
ZynDistortion.so:_ZN3zyn7Presets4copyERNS_12PresetsStoreEPKc
ZynDistortion.so:_ZN3zyn7PresetsC1Ev
ZynDistortion.so:_ZN3zyn7PresetsC2Ev
ZynDistortion.so:_ZN3zyn7PresetsD0Ev
ZynDistortion.so:_ZN3zyn7PresetsD1Ev
ZynDistortion.so:_ZN3zyn7PresetsD2Ev
ZynDistortion.so:_ZN3zyn7SYNTH_T9numRandomEv
ZynDistortion.so:_ZN3zyn7XmlNode3hasENSt7__cxx1112basic_stringIcSt11char_traitsIcESaIcEEE
ZynDistortion.so:_ZN3zyn7XmlNodeC1ENSt7__cxx1112basic_stringIcSt11char_traitsIcESaIcEEE
ZynDistortion.so:_ZN3zyn7XmlNodeC2ENSt7__cxx1112basic_stringIcSt11char_traitsIcESaIcEEE
ZynDistortion.so:_ZN3zyn7XmlNodeixENSt7__cxx1112basic_stringIcSt11char_traitsIcESaIcEEE
ZynDistortion.so:_ZN3zyn7verboseE
ZynDistortion.so:_ZN3zyn8SVFilter13setfreq_and_qEff
ZynDistortion.so:_ZN3zyn8SVFilter15computeResponseEiffiff
ZynDistortion.so:_ZN3zyn8SVFilter15singlefilteroutEPfRNS0_6fstageERNS0_10parametersEi
ZynDistortion.so:_ZN3zyn8SVFilter18computefiltercoefsEv
ZynDistortion.so:_ZN3zyn8SVFilter19getfilteroutfortypeERNS0_6fstageE
ZynDistortion.so:_ZN3zyn8SVFilter4setqEf
ZynDistortion.so:_ZN3zyn8SVFilter7cleanupEv
ZynDistortion.so:_ZN3zyn8SVFilter7setfreqEf
ZynDistortion.so:_ZN3zyn8SVFilter7setgainEf
ZynDistortion.so:_ZN3zyn8SVFilter7settypeEi
ZynDistortion.so:_ZN3zyn8SVFilter8responseC1Effffff
ZynDistortion.so:_ZN3zyn8SVFilter8responseC2Effffff
ZynDistortion.so:_ZN3zyn8SVFilter9filteroutEPf
ZynDistortion.so:_ZN3zyn8SVFilter9setstagesEi
ZynDistortion.so:_ZN3zyn8SVFilterC1Ehffhji
ZynDistortion.so:_ZN3zyn8SVFilterC2Ehffhji
ZynDistortion.so:_ZN3zyn8SVFilterD0Ev
ZynDistortion.so:_ZN3zyn8SVFilterD1Ev
ZynDistortion.so:_ZN3zyn8SVFilterD2Ev
ZynDistortion.so:_ZN3zyn8isPluginE
ZynDistortion.so:_ZN3zyn9Allocator14endTransactionEv
ZynDistortion.so:_ZN3zyn9Allocator16beginTransactionEv
ZynDistortion.so:_ZN3zyn9Allocator19rollbackTransactionEv
ZynDistortion.so:_ZN3zyn9AllocatorC1Ev
ZynDistortion.so:_ZN3zyn9AllocatorC2Ev
ZynDistortion.so:_ZN3zyn9AllocatorD0Ev
ZynDistortion.so:_ZN3zyn9AllocatorD1Ev
ZynDistortion.so:_ZN3zyn9AllocatorD2Ev
ZynDistortion.so:_ZN3zyn9getdetuneEhtt
ZynDistortion.so:_ZN3zyn9invSignalEPfm
ZynDistortion.so:_ZN3zyn9os_usleepEl
ZynDistortion.so:_ZN3zynlsERSoRKNS_12version_typeE
ZynDistortion.so:_ZN5rtosc10ClonePortsC1ERKNS_5PortsESt16initializer_listINS_9ClonePortEE
ZynDistortion.so:_ZN5rtosc10ClonePortsC2ERKNS_5PortsESt16initializer_listINS_9ClonePortEE
ZynDistortion.so:_ZN5rtosc10MergePortsC1ESt16initializer_listIPKNS_5PortsEE
ZynDistortion.so:_ZN5rtosc10MergePortsC2ESt16initializer_listIPKNS_5PortsEE
ZynDistortion.so:_ZN5rtosc10walk_portsEPKNS_5PortsEPcmPvPFvPKNS_4PortEPKcS9_RS1_S4_S4_EbS4_b
ZynDistortion.so:_ZN5rtosc11path_searchERKNS_5PortsEPKcS4_PcmP11rtosc_arg_tmNS_16path_search_optsEb
ZynDistortion.so:_ZN5rtosc11path_searchERKNS_5PortsEPKcmPcmNS_16path_search_optsEb
ZynDistortion.so:_ZN5rtosc12map_arg_valsEP15rtosc_arg_val_tmNS_4Port13MetaContainerE
ZynDistortion.so:_ZN5rtosc17enum_key_from_msgENS_4Port13MetaContainerEPKc
ZynDistortion.so:_ZN5rtosc21canonicalize_arg_valsEP15rtosc_arg_val_tmPKcNS_4Port13MetaContainerE
ZynDistortion.so:_ZN5rtosc4Port12MetaIteratorC1EPKc
ZynDistortion.so:_ZN5rtosc4Port12MetaIteratorC2EPKc
ZynDistortion.so:_ZN5rtosc4Port12MetaIteratorppEv
ZynDistortion.so:_ZN5rtosc4Port13MetaContainerC1EPKc
ZynDistortion.so:_ZN5rtosc4Port13MetaContainerC2EPKc
ZynDistortion.so:_ZN5rtosc5Ports12collapsePathEPc
ZynDistortion.so:_ZN5rtosc5Ports12refreshMagicEv
ZynDistortion.so:_ZN5rtosc5PortsC1ESt16initializer_listINS_4PortEE
ZynDistortion.so:_ZN5rtosc5PortsC2ESt16initializer_listINS_4PortEE
ZynDistortion.so:_ZN5rtosc5PortsD1Ev
ZynDistortion.so:_ZN5rtosc5PortsD2Ev
ZynDistortion.so:_ZN5rtosc6RtData10chainArrayEPKcS2_P11rtosc_arg_t
ZynDistortion.so:_ZN5rtosc6RtData10push_indexEi
ZynDistortion.so:_ZN5rtosc6RtData10replyArrayEPKcS2_P11rtosc_arg_t
ZynDistortion.so:_ZN5rtosc6RtData14broadcastArrayEPKcS2_P11rtosc_arg_t
ZynDistortion.so:_ZN5rtosc6RtData5chainEPKc
ZynDistortion.so:_ZN5rtosc6RtData5chainEPKcS2_z
ZynDistortion.so:_ZN5rtosc6RtData5replyEPKc
ZynDistortion.so:_ZN5rtosc6RtData5replyEPKcS2_z
ZynDistortion.so:_ZN5rtosc6RtData7forwardEPKc
ZynDistortion.so:_ZN5rtosc6RtData9broadcastEPKc
ZynDistortion.so:_ZN5rtosc6RtData9broadcastEPKcS2_z
ZynDistortion.so:_ZN5rtosc6RtData9pop_indexEv
ZynDistortion.so:_ZN5rtosc6RtDataC1Ev
ZynDistortion.so:_ZN5rtosc6RtDataC2Ev
ZynDistortion.so:_ZN5rtosc7helpers22get_value_from_runtimeEPvRKNS_4PortEmPcPKcmmP15rtosc_arg_val_tPSt6vectorISA_IcSaIcEESaISC_EE
ZynDistortion.so:_ZN5rtosc7helpers22get_value_from_runtimeEPvRKNS_5PortsEmPcS5_mi
ZynDistortion.so:_ZN5rtosc8enum_keyENS_4Port13MetaContainerEPKc
ZynDistortion.so:_ZN5rtosclsERSoRNS_15OscDocFormatterE
ZynDistortion.so:_ZN7DISTRHO12createPluginEv
ZynDistortion.so:_ZN7DISTRHO14PluginExporter15sFallbackRangesE
ZynDistortion.so:_ZN7DISTRHO14PluginExporter15sFallbackStringE
ZynDistortion.so:_ZN7DISTRHO14PluginExporter18sFallbackAudioPortE
ZynDistortion.so:_ZN7DISTRHO14PluginExporter18sFallbackPortGroupE
ZynDistortion.so:_ZN7DISTRHO14PluginExporter19sFallbackEnumValuesE
ZynDistortion.so:_ZN7DISTRHO14snprintf_paramEPcfm
ZynDistortion.so:_ZN7DISTRHO15snprintf_iparamEPcim
ZynDistortion.so:_ZN7DISTRHO16d_lastBufferSizeE
ZynDistortion.so:_ZN7DISTRHO16d_lastSampleRateE
ZynDistortion.so:_ZN7DISTRHO37d_lastCanRequestParameterValueChangesE
ZynDistortion.so:_ZN7DISTRHO6Plugin13initAudioPortEbjRNS_9AudioPortE
ZynDistortion.so:_ZN7DISTRHO6Plugin13initPortGroupEjRNS_9PortGroupE
ZynDistortion.so:_ZN7DISTRHO6Plugin17bufferSizeChangedEj
ZynDistortion.so:_ZN7DISTRHO6Plugin17sampleRateChangedEd
ZynDistortion.so:_ZN7DISTRHO6PluginC1Ejjj
ZynDistortion.so:_ZN7DISTRHO6PluginC2Ejjj
ZynDistortion.so:_ZN7DISTRHO6PluginD0Ev
ZynDistortion.so:_ZN7DISTRHO6PluginD1Ev
ZynDistortion.so:_ZN7DISTRHO6PluginD2Ev
ZynDistortion.so:_ZN7DISTRHO7strncpyEPcPKcm
ZynDistortion.so:_ZNK3zyn10Distortion6getparEi
ZynDistortion.so:_ZNK3zyn10XMLwrapper10doloadfileERKNSt7__cxx1112basic_stringIcSt11char_traitsIcESaIcEEE
ZynDistortion.so:_ZNK3zyn10XMLwrapper10dosavefileEPKciS2_
ZynDistortion.so:_ZNK3zyn10XMLwrapper10getXMLdataEv
ZynDistortion.so:_ZNK3zyn10XMLwrapper10getparboolERKNSt7__cxx1112basic_stringIcSt11char_traitsIcESaIcEEEi
ZynDistortion.so:_ZNK3zyn10XMLwrapper10getparrealEPKcf
ZynDistortion.so:_ZNK3zyn10XMLwrapper10getparrealEPKcfff
ZynDistortion.so:_ZNK3zyn10XMLwrapper10hasparrealEPKc
ZynDistortion.so:_ZNK3zyn10XMLwrapper11getbranchidEii
ZynDistortion.so:_ZNK3zyn10XMLwrapper11hasPadSynthEv
ZynDistortion.so:_ZNK3zyn10XMLwrapper11saveXMLfileERKNSt7__cxx1112basic_stringIcSt11char_traitsIcESaIcEEEi
ZynDistortion.so:_ZNK3zyn10XMLwrapper6getparERKNSt7__cxx1112basic_stringIcSt11char_traitsIcESaIcEEEiii
ZynDistortion.so:_ZNK3zyn10XMLwrapper9addparamsEPKcjz
ZynDistortion.so:_ZNK3zyn10XMLwrapper9getBranchEv
ZynDistortion.so:_ZNK3zyn10XMLwrapper9getpar127ERKNSt7__cxx1112basic_stringIcSt11char_traitsIcESaIcEEEi
ZynDistortion.so:_ZNK3zyn10XMLwrapper9getparstrERKNSt7__cxx1112basic_stringIcSt11char_traitsIcESaIcEEEPci
ZynDistortion.so:_ZNK3zyn10XMLwrapper9getparstrERKNSt7__cxx1112basic_stringIcSt11char_traitsIcESaIcEEES8_
ZynDistortion.so:_ZNK3zyn12FilterParams10getfreqposEf
ZynDistortion.so:_ZNK3zyn12FilterParams11getformantqEh
ZynDistortion.so:_ZNK3zyn12FilterParams13getcenterfreqEv
ZynDistortion.so:_ZNK3zyn12FilterParams13getformantampEh
ZynDistortion.so:_ZNK3zyn12FilterParams14getformantfreqEh
ZynDistortion.so:_ZNK3zyn12FilterParams14getoctavesfreqEv
ZynDistortion.so:_ZNK3zyn12FilterParams15getfreqtrackingEf
ZynDistortion.so:_ZNK3zyn12FilterParams4getqEv
ZynDistortion.so:_ZNK3zyn12FilterParams7getfreqEv
ZynDistortion.so:_ZNK3zyn12FilterParams7getgainEv
ZynDistortion.so:_ZNK3zyn12FilterParams8getfreqxEf
ZynDistortion.so:_ZNK3zyn12PresetsStore12presetstructltERKS1_
ZynDistortion.so:_ZNK3zyn14AllocatorClass9lowMemoryEjm
ZynDistortion.so:_ZNK3zyn9Allocator12totalAllocedEv
ZynDistortion.so:_ZNK3zyn9Allocator7memFreeEPv
ZynDistortion.so:_ZNK3zyn9Allocator8memPoolsEv
ZynDistortion.so:_ZNK3zyn9Allocator9freePoolsEv
ZynDistortion.so:_ZNK5rtosc4Port12MetaIteratorcvbEv
ZynDistortion.so:_ZNK5rtosc4Port13MetaContainer3endEv
ZynDistortion.so:_ZNK5rtosc4Port13MetaContainer4findEPKc
ZynDistortion.so:_ZNK5rtosc4Port13MetaContainer5beginEv
ZynDistortion.so:_ZNK5rtosc4Port13MetaContainer6lengthEv
ZynDistortion.so:_ZNK5rtosc4Port13MetaContainerixEPKc
ZynDistortion.so:_ZNK5rtosc5Ports7aproposEPKc
ZynDistortion.so:_ZNK5rtosc5Ports8dispatchEPKcRNS_6RtDataEb
ZynDistortion.so:_ZNK5rtosc5PortsixEPKc
ZynDistortion.so:_ZNK7DISTRHO6Plugin13getBufferSizeEv
ZynDistortion.so:_ZNK7DISTRHO6Plugin13getSampleRateEv
ZynDistortion.so:advance_path
ZynDistortion.so:arraytypes_match
ZynDistortion.so:chunk_path
ZynDistortion.so:delta_from_arg_vals
ZynDistortion.so:fast_strcpy
ZynDistortion.so:get_default_cmp_options
ZynDistortion.so:lv2_descriptor
ZynDistortion.so:lv2_generate_ttl
ZynDistortion.so:main
ZynDistortion.so:parse_identifier
ZynDistortion.so:range_min
ZynDistortion.so:rtosc_amessage
ZynDistortion.so:rtosc_arg_arr_len
ZynDistortion.so:rtosc_arg_arr_len_set
ZynDistortion.so:rtosc_arg_arr_type
ZynDistortion.so:rtosc_arg_arr_type_set
ZynDistortion.so:rtosc_arg_rep_has_delta
ZynDistortion.so:rtosc_arg_rep_has_delta_set
ZynDistortion.so:rtosc_arg_rep_num
ZynDistortion.so:rtosc_arg_rep_num_set
ZynDistortion.so:rtosc_arg_val_add
ZynDistortion.so:rtosc_arg_val_current_time
ZynDistortion.so:rtosc_arg_val_div
ZynDistortion.so:rtosc_arg_val_from_double
ZynDistortion.so:rtosc_arg_val_from_int
ZynDistortion.so:rtosc_arg_val_from_params
ZynDistortion.so:rtosc_arg_val_from_time_t
ZynDistortion.so:rtosc_arg_val_immediatelly
ZynDistortion.so:rtosc_arg_val_is_immediatelly
ZynDistortion.so:rtosc_arg_val_itr_get
ZynDistortion.so:rtosc_arg_val_itr_init
ZynDistortion.so:rtosc_arg_val_itr_next
ZynDistortion.so:rtosc_arg_val_mult
ZynDistortion.so:rtosc_arg_val_negate
ZynDistortion.so:rtosc_arg_val_null
ZynDistortion.so:rtosc_arg_val_range_arg
ZynDistortion.so:rtosc_arg_val_round
ZynDistortion.so:rtosc_arg_val_sub
ZynDistortion.so:rtosc_arg_val_to_int
ZynDistortion.so:rtosc_arg_vals_cmp
ZynDistortion.so:rtosc_arg_vals_cmp_has_next
ZynDistortion.so:rtosc_arg_vals_cmp_single
ZynDistortion.so:rtosc_arg_vals_eq
ZynDistortion.so:rtosc_arg_vals_eq_after_abort
ZynDistortion.so:rtosc_arg_vals_eq_single
ZynDistortion.so:rtosc_argument
ZynDistortion.so:rtosc_argument_string
ZynDistortion.so:rtosc_av_arr_len
ZynDistortion.so:rtosc_av_arr_len_set
ZynDistortion.so:rtosc_av_arr_type
ZynDistortion.so:rtosc_av_arr_type_set
ZynDistortion.so:rtosc_av_rep_has_delta
ZynDistortion.so:rtosc_av_rep_has_delta_set
ZynDistortion.so:rtosc_av_rep_num
ZynDistortion.so:rtosc_av_rep_num_set
ZynDistortion.so:rtosc_bundle
ZynDistortion.so:rtosc_bundle_elements
ZynDistortion.so:rtosc_bundle_fetch
ZynDistortion.so:rtosc_bundle_p
ZynDistortion.so:rtosc_bundle_size
ZynDistortion.so:rtosc_bundle_timetag
ZynDistortion.so:rtosc_count_printed_arg_vals
ZynDistortion.so:rtosc_count_printed_arg_vals_of_msg
ZynDistortion.so:rtosc_float2secfracs
ZynDistortion.so:rtosc_itr_begin
ZynDistortion.so:rtosc_itr_end
ZynDistortion.so:rtosc_itr_next
ZynDistortion.so:rtosc_match
ZynDistortion.so:rtosc_match_full_path
ZynDistortion.so:rtosc_match_options
ZynDistortion.so:rtosc_match_partial
ZynDistortion.so:rtosc_match_path
ZynDistortion.so:rtosc_matchable_path
ZynDistortion.so:rtosc_message
ZynDistortion.so:rtosc_message_length
ZynDistortion.so:rtosc_message_ring_length
ZynDistortion.so:rtosc_narguments
ZynDistortion.so:rtosc_params_from_arg_val
ZynDistortion.so:rtosc_print_arg_val
ZynDistortion.so:rtosc_print_arg_vals
ZynDistortion.so:rtosc_print_message
ZynDistortion.so:rtosc_scan_arg_val
ZynDistortion.so:rtosc_scan_arg_vals
ZynDistortion.so:rtosc_scan_message
ZynDistortion.so:rtosc_secfracs2float
ZynDistortion.so:rtosc_secfracs_from_arg_val
ZynDistortion.so:rtosc_skip_next_printed_arg
ZynDistortion.so:rtosc_subpath_pat_type
ZynDistortion.so:rtosc_time_t_from_arg_val
ZynDistortion.so:rtosc_type
ZynDistortion.so:rtosc_v2argvals
ZynDistortion.so:rtosc_valid_message_p
ZynDistortion.so:rtosc_vmessage
ZynDistortion.so:tlsf_add_pool
ZynDistortion.so:tlsf_align_size
ZynDistortion.so:tlsf_alloc_overhead
ZynDistortion.so:tlsf_block_size
ZynDistortion.so:tlsf_block_size_max
ZynDistortion.so:tlsf_block_size_min
ZynDistortion.so:tlsf_check
ZynDistortion.so:tlsf_check_pool
ZynDistortion.so:tlsf_create
ZynDistortion.so:tlsf_create_with_pool
ZynDistortion.so:tlsf_destroy
ZynDistortion.so:tlsf_free
ZynDistortion.so:tlsf_get_pool
ZynDistortion.so:tlsf_malloc
ZynDistortion.so:tlsf_memalign
ZynDistortion.so:tlsf_pool_overhead
ZynDistortion.so:tlsf_realloc
ZynDistortion.so:tlsf_remove_pool
ZynDistortion.so:tlsf_size
ZynDistortion.so:tlsf_walk_pool
ZynDistortion.so:types_match
ZynDynamicFilter.so:_Z15port_is_enabledPKN5rtosc4PortEPcmRKNS_5PortsEPvbPFvS2_PKcS9_S6_S7_S7_ES7_
ZynDynamicFilter.so:_Z20metaiterator_advanceRPKcS1_
ZynDynamicFilter.so:_Z7do_hashRKSt6vectorINSt7__cxx1112basic_stringIcSt11char_traitsIcESaIcEEESaIS5_EERKS_IiSaIiEE
ZynDynamicFilter.so:_ZN22Value_Smoothing_Filter11sample_rateEm
ZynDynamicFilter.so:_ZN22Value_Smoothing_Filter5applyEPfmf
ZynDynamicFilter.so:_ZN3zyn10CombFilter13setfreq_and_qEff
ZynDynamicFilter.so:_ZN3zyn10CombFilter4setqEf
ZynDynamicFilter.so:_ZN3zyn10CombFilter7setfreqEf
ZynDynamicFilter.so:_ZN3zyn10CombFilter7setgainEf
ZynDynamicFilter.so:_ZN3zyn10CombFilter7settypeEh
ZynDynamicFilter.so:_ZN3zyn10CombFilter9filteroutEPf
ZynDynamicFilter.so:_ZN3zyn10CombFilterC1EPNS_9AllocatorEhffji
ZynDynamicFilter.so:_ZN3zyn10CombFilterC2EPNS_9AllocatorEhffji
ZynDynamicFilter.so:_ZN3zyn10CombFilterD0Ev
ZynDynamicFilter.so:_ZN3zyn10CombFilterD1Ev
ZynDynamicFilter.so:_ZN3zyn10CombFilterD2Ev
ZynDynamicFilter.so:_ZN3zyn10DummyAllocE
ZynDynamicFilter.so:_ZN3zyn10MoogFilter13setfreq_and_qEff
ZynDynamicFilter.so:_ZN3zyn10MoogFilter4setqEf
ZynDynamicFilter.so:_ZN3zyn10MoogFilter7setfreqEf
ZynDynamicFilter.so:_ZN3zyn10MoogFilter7setgainEf
ZynDynamicFilter.so:_ZN3zyn10MoogFilter7settypeEh
ZynDynamicFilter.so:_ZN3zyn10MoogFilter9filteroutEPf
ZynDynamicFilter.so:_ZN3zyn10MoogFilterC1Ehffji
ZynDynamicFilter.so:_ZN3zyn10MoogFilterC2Ehffji
ZynDynamicFilter.so:_ZN3zyn10MoogFilterD0Ev
ZynDynamicFilter.so:_ZN3zyn10MoogFilterD1Ev
ZynDynamicFilter.so:_ZN3zyn10MoogFilterD2Ev
ZynDynamicFilter.so:_ZN3zyn10XMLwrapper10addparboolERKNSt7__cxx1112basic_stringIcSt11char_traitsIcESaIcEEEi
ZynDynamicFilter.so:_ZN3zyn10XMLwrapper10addparrealERKNSt7__cxx1112basic_stringIcSt11char_traitsIcESaIcEEEf
ZynDynamicFilter.so:_ZN3zyn10XMLwrapper10exitbranchEv
ZynDynamicFilter.so:_ZN3zyn10XMLwrapper10putXMLdataEPKc
ZynDynamicFilter.so:_ZN3zyn10XMLwrapper11beginbranchERKNSt7__cxx1112basic_stringIcSt11char_traitsIcESaIcEEE
ZynDynamicFilter.so:_ZN3zyn10XMLwrapper11beginbranchERKNSt7__cxx1112basic_stringIcSt11char_traitsIcESaIcEEEi
ZynDynamicFilter.so:_ZN3zyn10XMLwrapper11enterbranchERKNSt7__cxx1112basic_stringIcSt11char_traitsIcESaIcEEE
ZynDynamicFilter.so:_ZN3zyn10XMLwrapper11enterbranchERKNSt7__cxx1112basic_stringIcSt11char_traitsIcESaIcEEEi
ZynDynamicFilter.so:_ZN3zyn10XMLwrapper11loadXMLfileERKNSt7__cxx1112basic_stringIcSt11char_traitsIcESaIcEEE
ZynDynamicFilter.so:_ZN3zyn10XMLwrapper11setPadSynthEb
ZynDynamicFilter.so:_ZN3zyn10XMLwrapper3addERKNS_7XmlNodeE
ZynDynamicFilter.so:_ZN3zyn10XMLwrapper6addparERKNSt7__cxx1112basic_stringIcSt11char_traitsIcESaIcEEEi
ZynDynamicFilter.so:_ZN3zyn10XMLwrapper7cleanupEv
ZynDynamicFilter.so:_ZN3zyn10XMLwrapper9addparstrERKNSt7__cxx1112basic_stringIcSt11char_traitsIcESaIcEEES8_
ZynDynamicFilter.so:_ZN3zyn10XMLwrapper9endbranchEv
ZynDynamicFilter.so:_ZN3zyn10XMLwrapperC1Ev
ZynDynamicFilter.so:_ZN3zyn10XMLwrapperC2Ev
ZynDynamicFilter.so:_ZN3zyn10XMLwrapperD1Ev
ZynDynamicFilter.so:_ZN3zyn10XMLwrapperD2Ev
ZynDynamicFilter.so:_ZN3zyn10fileexistsEPKc
ZynDynamicFilter.so:_ZN3zyn10prng_stateE
ZynDynamicFilter.so:_ZN3zyn11fast_strcpyEPcPKcm
ZynDynamicFilter.so:_ZN3zyn11interpolateEPKfmf
ZynDynamicFilter.so:_ZN3zyn11rtosc_splatEPKcSt3setINSt7__cxx1112basic_stringIcSt11char_traitsIcESaIcEEESt4lessIS8_ESaIS8_EE
ZynDynamicFilter.so:_ZN3zyn12AnalogFilter12computeCoeffEiffiffRi
ZynDynamicFilter.so:_ZN3zyn12AnalogFilter13setfreq_and_qEff
ZynDynamicFilter.so:_ZN3zyn12AnalogFilter15singlefilteroutEPfRNS0_6fstageEfj
ZynDynamicFilter.so:_ZN3zyn12AnalogFilter18computefiltercoefsEff
ZynDynamicFilter.so:_ZN3zyn12AnalogFilter1HEf
ZynDynamicFilter.so:_ZN3zyn12AnalogFilter4setqEf
ZynDynamicFilter.so:_ZN3zyn12AnalogFilter7cleanupEv
ZynDynamicFilter.so:_ZN3zyn12AnalogFilter7setfreqEf
ZynDynamicFilter.so:_ZN3zyn12AnalogFilter7setgainEf
ZynDynamicFilter.so:_ZN3zyn12AnalogFilter7settypeEi
ZynDynamicFilter.so:_ZN3zyn12AnalogFilter9filteroutEPf
ZynDynamicFilter.so:_ZN3zyn12AnalogFilter9setstagesEi
ZynDynamicFilter.so:_ZN3zyn12AnalogFilterC1Ehffhji
ZynDynamicFilter.so:_ZN3zyn12AnalogFilterC2Ehffhji
ZynDynamicFilter.so:_ZN3zyn12AnalogFilterD0Ev
ZynDynamicFilter.so:_ZN3zyn12AnalogFilterD1Ev
ZynDynamicFilter.so:_ZN3zyn12AnalogFilterD2Ev
ZynDynamicFilter.so:_ZN3zyn12EffectParamsC1ERNS_9AllocatorEbPfS3_hjiPNS_12FilterParamsEb
ZynDynamicFilter.so:_ZN3zyn12EffectParamsC2ERNS_9AllocatorEbPfS3_hjiPNS_12FilterParamsEb
ZynDynamicFilter.so:_ZN3zyn12FilterParams10getfromXMLERNS_10XMLwrapperE
ZynDynamicFilter.so:_ZN3zyn12FilterParams10pasteArrayERS0_i
ZynDynamicFilter.so:_ZN3zyn12FilterParams14add2XMLsectionERNS_10XMLwrapperEi
ZynDynamicFilter.so:_ZN3zyn12FilterParams14baseqFromOldPqEi
ZynDynamicFilter.so:_ZN3zyn12FilterParams16gainFromOldPgainEi
ZynDynamicFilter.so:_ZN3zyn12FilterParams17getfromXMLsectionERNS_10XMLwrapperEi
ZynDynamicFilter.so:_ZN3zyn12FilterParams19basefreqFromOldPreqEi
ZynDynamicFilter.so:_ZN3zyn12FilterParams19getfromFilterParamsEPKS0_
ZynDynamicFilter.so:_ZN3zyn12FilterParams5pasteERS0_
ZynDynamicFilter.so:_ZN3zyn12FilterParams5portsE
ZynDynamicFilter.so:_ZN3zyn12FilterParams5setupEv
ZynDynamicFilter.so:_ZN3zyn12FilterParams7add2XMLERNS_10XMLwrapperE
ZynDynamicFilter.so:_ZN3zyn12FilterParams8defaultsEi
ZynDynamicFilter.so:_ZN3zyn12FilterParams8defaultsEv
ZynDynamicFilter.so:_ZN3zyn12FilterParams9updateLocEi
ZynDynamicFilter.so:_ZN3zyn12FilterParams9updateLocEii
ZynDynamicFilter.so:_ZN3zyn12FilterParamsC1EPKNS_7AbsTimeE
ZynDynamicFilter.so:_ZN3zyn12FilterParamsC1EhhhiPKNS_7AbsTimeE
ZynDynamicFilter.so:_ZN3zyn12FilterParamsC1EiPKNS_7AbsTimeE
ZynDynamicFilter.so:_ZN3zyn12FilterParamsC2EPKNS_7AbsTimeE
ZynDynamicFilter.so:_ZN3zyn12FilterParamsC2EhhhiPKNS_7AbsTimeE
ZynDynamicFilter.so:_ZN3zyn12FilterParamsC2EiPKNS_7AbsTimeE
ZynDynamicFilter.so:_ZN3zyn12FilterParamsD0Ev
ZynDynamicFilter.so:_ZN3zyn12FilterParamsD1Ev
ZynDynamicFilter.so:_ZN3zyn12FilterParamsD2Ev
ZynDynamicFilter.so:_ZN3zyn12PresetsArray13setpresettypeEPKc
ZynDynamicFilter.so:_ZN3zyn12PresetsArray4copyERNS_12PresetsStoreEPKc
ZynDynamicFilter.so:_ZN3zyn12PresetsArray4copyERNS_12PresetsStoreEiPKc
ZynDynamicFilter.so:_ZN3zyn12PresetsArrayC1Ev
ZynDynamicFilter.so:_ZN3zyn12PresetsArrayC2Ev
ZynDynamicFilter.so:_ZN3zyn12PresetsArrayD0Ev
ZynDynamicFilter.so:_ZN3zyn12PresetsArrayD1Ev
ZynDynamicFilter.so:_ZN3zyn12PresetsArrayD2Ev
ZynDynamicFilter.so:_ZN3zyn12PresetsStore10copypresetERNS_10XMLwrapperEPcNSt7__cxx1112basic_stringIcSt11char_traitsIcESaIcEEE
ZynDynamicFilter.so:_ZN3zyn12PresetsStore11pastepresetERNS_10XMLwrapperEj
ZynDynamicFilter.so:_ZN3zyn12PresetsStore12clearpresetsEv
ZynDynamicFilter.so:_ZN3zyn12PresetsStore12deletepresetENSt7__cxx1112basic_stringIcSt11char_traitsIcESaIcEEE
ZynDynamicFilter.so:_ZN3zyn12PresetsStore12deletepresetEj
ZynDynamicFilter.so:_ZN3zyn12PresetsStore13copyclipboardERNS_10XMLwrapperEPc
ZynDynamicFilter.so:_ZN3zyn12PresetsStore14pasteclipboardERNS_10XMLwrapperE
ZynDynamicFilter.so:_ZN3zyn12PresetsStore14scanforpresetsEv
ZynDynamicFilter.so:_ZN3zyn12PresetsStore18checkclipboardtypeEPKc
ZynDynamicFilter.so:_ZN3zyn12PresetsStoreC1ERKNS_6ConfigE
ZynDynamicFilter.so:_ZN3zyn12PresetsStoreC2ERKNS_6ConfigE
ZynDynamicFilter.so:_ZN3zyn12PresetsStoreD1Ev
ZynDynamicFilter.so:_ZN3zyn12PresetsStoreD2Ev
ZynDynamicFilter.so:_ZN3zyn12cinterpolateEPKfmf
ZynDynamicFilter.so:_ZN3zyn12set_realtimeEv
ZynDynamicFilter.so:_ZN3zyn13DynamicFilter12getpresetparEhj
ZynDynamicFilter.so:_ZN3zyn13DynamicFilter12reinitfilterEv
ZynDynamicFilter.so:_ZN3zyn13DynamicFilter15setfilterpresetEh
ZynDynamicFilter.so:_ZN3zyn13DynamicFilter3outERKNS_6StereoIPfEE
ZynDynamicFilter.so:_ZN3zyn13DynamicFilter5portsE
ZynDynamicFilter.so:_ZN3zyn13DynamicFilter7cleanupEv
ZynDynamicFilter.so:_ZN3zyn13DynamicFilter8setdepthEh
ZynDynamicFilter.so:_ZN3zyn13DynamicFilter9changeparEih
ZynDynamicFilter.so:_ZN3zyn13DynamicFilter9setampsnsEh
ZynDynamicFilter.so:_ZN3zyn13DynamicFilter9setpresetEhb
ZynDynamicFilter.so:_ZN3zyn13DynamicFilter9setvolumeEh
ZynDynamicFilter.so:_ZN3zyn13DynamicFilterC1ENS_12EffectParamsE
ZynDynamicFilter.so:_ZN3zyn13DynamicFilterC2ENS_12EffectParamsE
ZynDynamicFilter.so:_ZN3zyn13DynamicFilterD0Ev
ZynDynamicFilter.so:_ZN3zyn13DynamicFilterD1Ev
ZynDynamicFilter.so:_ZN3zyn13DynamicFilterD2Ev
ZynDynamicFilter.so:_ZN3zyn13FormantFilter13setfreq_and_qEff
ZynDynamicFilter.so:_ZN3zyn13FormantFilter4setqEf
ZynDynamicFilter.so:_ZN3zyn13FormantFilter6setposEf
ZynDynamicFilter.so:_ZN3zyn13FormantFilter7cleanupEv
ZynDynamicFilter.so:_ZN3zyn13FormantFilter7setfreqEf
ZynDynamicFilter.so:_ZN3zyn13FormantFilter7setgainEf
ZynDynamicFilter.so:_ZN3zyn13FormantFilter9filteroutEPf
ZynDynamicFilter.so:_ZN3zyn13FormantFilterC1EPKNS_12FilterParamsEPNS_9AllocatorEji
ZynDynamicFilter.so:_ZN3zyn13FormantFilterC2EPKNS_12FilterParamsEPNS_9AllocatorEji
ZynDynamicFilter.so:_ZN3zyn13FormantFilterD0Ev
ZynDynamicFilter.so:_ZN3zyn13FormantFilterD1Ev
ZynDynamicFilter.so:_ZN3zyn13FormantFilterD2Ev
ZynDynamicFilter.so:_ZN3zyn14AllocatorClass11dealloc_memEPv
ZynDynamicFilter.so:_ZN3zyn14AllocatorClass9addMemoryEPvm
ZynDynamicFilter.so:_ZN3zyn14AllocatorClass9alloc_memEm
ZynDynamicFilter.so:_ZN3zyn15mxmlFindElementEPK12_mxml_node_sS2_PKcS4_S4_i
ZynDynamicFilter.so:_ZN3zyn16legalizeFilenameENSt7__cxx1112basic_stringIcSt11char_traitsIcESaIcEEE
ZynDynamicFilter.so:_ZN3zyn16trimLeadingWhiteEPKc
ZynDynamicFilter.so:_ZN3zyn18mxmlElementGetAttrEPK12_mxml_node_sPKc
ZynDynamicFilter.so:_ZN3zyn19os_guess_pid_lengthEv
ZynDynamicFilter.so:_ZN3zyn23os_pid_as_padded_stringB5cxx11Ev
ZynDynamicFilter.so:_ZN3zyn30XMLwrapper_whitespace_callbackEP12_mxml_node_si
ZynDynamicFilter.so:_ZN3zyn4VelFEfh
ZynDynamicFilter.so:_ZN3zyn4dataEPNS_6next_tE
ZynDynamicFilter.so:_ZN3zyn5xml_kE
ZynDynamicFilter.so:_ZN3zyn6Effect10setlrcrossEc
ZynDynamicFilter.so:_ZN3zyn6Effect10setpanningEc
ZynDynamicFilter.so:_ZN3zyn6Effect3outEPfS1_
ZynDynamicFilter.so:_ZN3zyn6Effect9crossoverERfS1_f
ZynDynamicFilter.so:_ZN3zyn6EffectC1ENS_12EffectParamsE
ZynDynamicFilter.so:_ZN3zyn6EffectC2ENS_12EffectParamsE
ZynDynamicFilter.so:_ZN3zyn6Filter11getrealfreqEf
ZynDynamicFilter.so:_ZN3zyn6Filter8generateERNS_9AllocatorEPKNS_12FilterParamsEji
ZynDynamicFilter.so:_ZN3zyn6FilterC1Eji
ZynDynamicFilter.so:_ZN3zyn6FilterC2Eji
ZynDynamicFilter.so:_ZN3zyn7Presets12deletepresetERNS_12PresetsStoreEi
ZynDynamicFilter.so:_ZN3zyn7Presets13setpresettypeEPKc
ZynDynamicFilter.so:_ZN3zyn7Presets18checkclipboardtypeERNS_12PresetsStoreE
ZynDynamicFilter.so:_ZN3zyn7Presets4copyERNS_12PresetsStoreEPKc
ZynDynamicFilter.so:_ZN3zyn7PresetsC1Ev
ZynDynamicFilter.so:_ZN3zyn7PresetsC2Ev
ZynDynamicFilter.so:_ZN3zyn7PresetsD0Ev
ZynDynamicFilter.so:_ZN3zyn7PresetsD1Ev
ZynDynamicFilter.so:_ZN3zyn7PresetsD2Ev
ZynDynamicFilter.so:_ZN3zyn7SYNTH_T9numRandomEv
ZynDynamicFilter.so:_ZN3zyn7XmlNode3hasENSt7__cxx1112basic_stringIcSt11char_traitsIcESaIcEEE
ZynDynamicFilter.so:_ZN3zyn7XmlNodeC1ENSt7__cxx1112basic_stringIcSt11char_traitsIcESaIcEEE
ZynDynamicFilter.so:_ZN3zyn7XmlNodeC2ENSt7__cxx1112basic_stringIcSt11char_traitsIcESaIcEEE
ZynDynamicFilter.so:_ZN3zyn7XmlNodeixENSt7__cxx1112basic_stringIcSt11char_traitsIcESaIcEEE
ZynDynamicFilter.so:_ZN3zyn7verboseE
ZynDynamicFilter.so:_ZN3zyn8SVFilter13setfreq_and_qEff
ZynDynamicFilter.so:_ZN3zyn8SVFilter15computeResponseEiffiff
ZynDynamicFilter.so:_ZN3zyn8SVFilter15singlefilteroutEPfRNS0_6fstageERNS0_10parametersEi
ZynDynamicFilter.so:_ZN3zyn8SVFilter18computefiltercoefsEv
ZynDynamicFilter.so:_ZN3zyn8SVFilter19getfilteroutfortypeERNS0_6fstageE
ZynDynamicFilter.so:_ZN3zyn8SVFilter4setqEf
ZynDynamicFilter.so:_ZN3zyn8SVFilter7cleanupEv
ZynDynamicFilter.so:_ZN3zyn8SVFilter7setfreqEf
ZynDynamicFilter.so:_ZN3zyn8SVFilter7setgainEf
ZynDynamicFilter.so:_ZN3zyn8SVFilter7settypeEi
ZynDynamicFilter.so:_ZN3zyn8SVFilter8responseC1Effffff
ZynDynamicFilter.so:_ZN3zyn8SVFilter8responseC2Effffff
ZynDynamicFilter.so:_ZN3zyn8SVFilter9filteroutEPf
ZynDynamicFilter.so:_ZN3zyn8SVFilter9setstagesEi
ZynDynamicFilter.so:_ZN3zyn8SVFilterC1Ehffhji
ZynDynamicFilter.so:_ZN3zyn8SVFilterC2Ehffhji
ZynDynamicFilter.so:_ZN3zyn8SVFilterD0Ev
ZynDynamicFilter.so:_ZN3zyn8SVFilterD1Ev
ZynDynamicFilter.so:_ZN3zyn8SVFilterD2Ev
ZynDynamicFilter.so:_ZN3zyn8isPluginE
ZynDynamicFilter.so:_ZN3zyn9Allocator14endTransactionEv
ZynDynamicFilter.so:_ZN3zyn9Allocator16beginTransactionEv
ZynDynamicFilter.so:_ZN3zyn9Allocator19rollbackTransactionEv
ZynDynamicFilter.so:_ZN3zyn9AllocatorC1Ev
ZynDynamicFilter.so:_ZN3zyn9AllocatorC2Ev
ZynDynamicFilter.so:_ZN3zyn9AllocatorD0Ev
ZynDynamicFilter.so:_ZN3zyn9AllocatorD1Ev
ZynDynamicFilter.so:_ZN3zyn9AllocatorD2Ev
ZynDynamicFilter.so:_ZN3zyn9EffectLFO11getlfoshapeEf
ZynDynamicFilter.so:_ZN3zyn9EffectLFO12effectlfooutEPfS1_
ZynDynamicFilter.so:_ZN3zyn9EffectLFO12updateparamsEv
ZynDynamicFilter.so:_ZN3zyn9EffectLFOC1Eff
ZynDynamicFilter.so:_ZN3zyn9EffectLFOC2Eff
ZynDynamicFilter.so:_ZN3zyn9EffectLFOD1Ev
ZynDynamicFilter.so:_ZN3zyn9EffectLFOD2Ev
ZynDynamicFilter.so:_ZN3zyn9getdetuneEhtt
ZynDynamicFilter.so:_ZN3zyn9invSignalEPfm
ZynDynamicFilter.so:_ZN3zyn9os_usleepEl
ZynDynamicFilter.so:_ZN3zynlsERSoRKNS_12version_typeE
ZynDynamicFilter.so:_ZN5rtosc10ClonePortsC1ERKNS_5PortsESt16initializer_listINS_9ClonePortEE
ZynDynamicFilter.so:_ZN5rtosc10ClonePortsC2ERKNS_5PortsESt16initializer_listINS_9ClonePortEE
ZynDynamicFilter.so:_ZN5rtosc10MergePortsC1ESt16initializer_listIPKNS_5PortsEE
ZynDynamicFilter.so:_ZN5rtosc10MergePortsC2ESt16initializer_listIPKNS_5PortsEE
ZynDynamicFilter.so:_ZN5rtosc10walk_portsEPKNS_5PortsEPcmPvPFvPKNS_4PortEPKcS9_RS1_S4_S4_EbS4_b
ZynDynamicFilter.so:_ZN5rtosc11path_searchERKNS_5PortsEPKcS4_PcmP11rtosc_arg_tmNS_16path_search_optsEb
ZynDynamicFilter.so:_ZN5rtosc11path_searchERKNS_5PortsEPKcmPcmNS_16path_search_optsEb
ZynDynamicFilter.so:_ZN5rtosc12map_arg_valsEP15rtosc_arg_val_tmNS_4Port13MetaContainerE
ZynDynamicFilter.so:_ZN5rtosc17enum_key_from_msgENS_4Port13MetaContainerEPKc
ZynDynamicFilter.so:_ZN5rtosc21canonicalize_arg_valsEP15rtosc_arg_val_tmPKcNS_4Port13MetaContainerE
ZynDynamicFilter.so:_ZN5rtosc4Port12MetaIteratorC1EPKc
ZynDynamicFilter.so:_ZN5rtosc4Port12MetaIteratorC2EPKc
ZynDynamicFilter.so:_ZN5rtosc4Port12MetaIteratorppEv
ZynDynamicFilter.so:_ZN5rtosc4Port13MetaContainerC1EPKc
ZynDynamicFilter.so:_ZN5rtosc4Port13MetaContainerC2EPKc
ZynDynamicFilter.so:_ZN5rtosc5Ports12collapsePathEPc
ZynDynamicFilter.so:_ZN5rtosc5Ports12refreshMagicEv
ZynDynamicFilter.so:_ZN5rtosc5PortsC1ESt16initializer_listINS_4PortEE
ZynDynamicFilter.so:_ZN5rtosc5PortsC2ESt16initializer_listINS_4PortEE
ZynDynamicFilter.so:_ZN5rtosc5PortsD1Ev
ZynDynamicFilter.so:_ZN5rtosc5PortsD2Ev
ZynDynamicFilter.so:_ZN5rtosc6RtData10chainArrayEPKcS2_P11rtosc_arg_t
ZynDynamicFilter.so:_ZN5rtosc6RtData10push_indexEi
ZynDynamicFilter.so:_ZN5rtosc6RtData10replyArrayEPKcS2_P11rtosc_arg_t
ZynDynamicFilter.so:_ZN5rtosc6RtData14broadcastArrayEPKcS2_P11rtosc_arg_t
ZynDynamicFilter.so:_ZN5rtosc6RtData5chainEPKc
ZynDynamicFilter.so:_ZN5rtosc6RtData5chainEPKcS2_z
ZynDynamicFilter.so:_ZN5rtosc6RtData5replyEPKc
ZynDynamicFilter.so:_ZN5rtosc6RtData5replyEPKcS2_z
ZynDynamicFilter.so:_ZN5rtosc6RtData7forwardEPKc
ZynDynamicFilter.so:_ZN5rtosc6RtData9broadcastEPKc
ZynDynamicFilter.so:_ZN5rtosc6RtData9broadcastEPKcS2_z
ZynDynamicFilter.so:_ZN5rtosc6RtData9pop_indexEv
ZynDynamicFilter.so:_ZN5rtosc6RtDataC1Ev
ZynDynamicFilter.so:_ZN5rtosc6RtDataC2Ev
ZynDynamicFilter.so:_ZN5rtosc7helpers22get_value_from_runtimeEPvRKNS_4PortEmPcPKcmmP15rtosc_arg_val_tPSt6vectorISA_IcSaIcEESaISC_EE
ZynDynamicFilter.so:_ZN5rtosc7helpers22get_value_from_runtimeEPvRKNS_5PortsEmPcS5_mi
ZynDynamicFilter.so:_ZN5rtosc8enum_keyENS_4Port13MetaContainerEPKc
ZynDynamicFilter.so:_ZN5rtosclsERSoRNS_15OscDocFormatterE
ZynDynamicFilter.so:_ZN7DISTRHO12createPluginEv
ZynDynamicFilter.so:_ZN7DISTRHO14PluginExporter15sFallbackRangesE
ZynDynamicFilter.so:_ZN7DISTRHO14PluginExporter15sFallbackStringE
ZynDynamicFilter.so:_ZN7DISTRHO14PluginExporter18sFallbackAudioPortE
ZynDynamicFilter.so:_ZN7DISTRHO14PluginExporter18sFallbackPortGroupE
ZynDynamicFilter.so:_ZN7DISTRHO14PluginExporter19sFallbackEnumValuesE
ZynDynamicFilter.so:_ZN7DISTRHO14snprintf_paramEPcfm
ZynDynamicFilter.so:_ZN7DISTRHO15snprintf_iparamEPcim
ZynDynamicFilter.so:_ZN7DISTRHO16d_lastBufferSizeE
ZynDynamicFilter.so:_ZN7DISTRHO16d_lastSampleRateE
ZynDynamicFilter.so:_ZN7DISTRHO37d_lastCanRequestParameterValueChangesE
ZynDynamicFilter.so:_ZN7DISTRHO6Plugin13initAudioPortEbjRNS_9AudioPortE
ZynDynamicFilter.so:_ZN7DISTRHO6Plugin13initPortGroupEjRNS_9PortGroupE
ZynDynamicFilter.so:_ZN7DISTRHO6Plugin17bufferSizeChangedEj
ZynDynamicFilter.so:_ZN7DISTRHO6Plugin17sampleRateChangedEd
ZynDynamicFilter.so:_ZN7DISTRHO6PluginC1Ejjj
ZynDynamicFilter.so:_ZN7DISTRHO6PluginC2Ejjj
ZynDynamicFilter.so:_ZN7DISTRHO6PluginD0Ev
ZynDynamicFilter.so:_ZN7DISTRHO6PluginD1Ev
ZynDynamicFilter.so:_ZN7DISTRHO6PluginD2Ev
ZynDynamicFilter.so:_ZN7DISTRHO7strncpyEPcPKcm
ZynDynamicFilter.so:_ZNK3zyn10XMLwrapper10doloadfileERKNSt7__cxx1112basic_stringIcSt11char_traitsIcESaIcEEE
ZynDynamicFilter.so:_ZNK3zyn10XMLwrapper10dosavefileEPKciS2_
ZynDynamicFilter.so:_ZNK3zyn10XMLwrapper10getXMLdataEv
ZynDynamicFilter.so:_ZNK3zyn10XMLwrapper10getparboolERKNSt7__cxx1112basic_stringIcSt11char_traitsIcESaIcEEEi
ZynDynamicFilter.so:_ZNK3zyn10XMLwrapper10getparrealEPKcf
ZynDynamicFilter.so:_ZNK3zyn10XMLwrapper10getparrealEPKcfff
ZynDynamicFilter.so:_ZNK3zyn10XMLwrapper10hasparrealEPKc
ZynDynamicFilter.so:_ZNK3zyn10XMLwrapper11getbranchidEii
ZynDynamicFilter.so:_ZNK3zyn10XMLwrapper11hasPadSynthEv
ZynDynamicFilter.so:_ZNK3zyn10XMLwrapper11saveXMLfileERKNSt7__cxx1112basic_stringIcSt11char_traitsIcESaIcEEEi
ZynDynamicFilter.so:_ZNK3zyn10XMLwrapper6getparERKNSt7__cxx1112basic_stringIcSt11char_traitsIcESaIcEEEiii
ZynDynamicFilter.so:_ZNK3zyn10XMLwrapper9addparamsEPKcjz
ZynDynamicFilter.so:_ZNK3zyn10XMLwrapper9getBranchEv
ZynDynamicFilter.so:_ZNK3zyn10XMLwrapper9getpar127ERKNSt7__cxx1112basic_stringIcSt11char_traitsIcESaIcEEEi
ZynDynamicFilter.so:_ZNK3zyn10XMLwrapper9getparstrERKNSt7__cxx1112basic_stringIcSt11char_traitsIcESaIcEEEPci
ZynDynamicFilter.so:_ZNK3zyn10XMLwrapper9getparstrERKNSt7__cxx1112basic_stringIcSt11char_traitsIcESaIcEEES8_
ZynDynamicFilter.so:_ZNK3zyn12FilterParams10getfreqposEf
ZynDynamicFilter.so:_ZNK3zyn12FilterParams11getformantqEh
ZynDynamicFilter.so:_ZNK3zyn12FilterParams13getcenterfreqEv
ZynDynamicFilter.so:_ZNK3zyn12FilterParams13getformantampEh
ZynDynamicFilter.so:_ZNK3zyn12FilterParams14getformantfreqEh
ZynDynamicFilter.so:_ZNK3zyn12FilterParams14getoctavesfreqEv
ZynDynamicFilter.so:_ZNK3zyn12FilterParams15getfreqtrackingEf
ZynDynamicFilter.so:_ZNK3zyn12FilterParams4getqEv
ZynDynamicFilter.so:_ZNK3zyn12FilterParams7getfreqEv
ZynDynamicFilter.so:_ZNK3zyn12FilterParams7getgainEv
ZynDynamicFilter.so:_ZNK3zyn12FilterParams8getfreqxEf
ZynDynamicFilter.so:_ZNK3zyn12PresetsStore12presetstructltERKS1_
ZynDynamicFilter.so:_ZNK3zyn13DynamicFilter6getparEi
ZynDynamicFilter.so:_ZNK3zyn14AllocatorClass9lowMemoryEjm
ZynDynamicFilter.so:_ZNK3zyn9Allocator12totalAllocedEv
ZynDynamicFilter.so:_ZNK3zyn9Allocator7memFreeEPv
ZynDynamicFilter.so:_ZNK3zyn9Allocator8memPoolsEv
ZynDynamicFilter.so:_ZNK3zyn9Allocator9freePoolsEv
ZynDynamicFilter.so:_ZNK5rtosc4Port12MetaIteratorcvbEv
ZynDynamicFilter.so:_ZNK5rtosc4Port13MetaContainer3endEv
ZynDynamicFilter.so:_ZNK5rtosc4Port13MetaContainer4findEPKc
ZynDynamicFilter.so:_ZNK5rtosc4Port13MetaContainer5beginEv
ZynDynamicFilter.so:_ZNK5rtosc4Port13MetaContainer6lengthEv
ZynDynamicFilter.so:_ZNK5rtosc4Port13MetaContainerixEPKc
ZynDynamicFilter.so:_ZNK5rtosc5Ports7aproposEPKc
ZynDynamicFilter.so:_ZNK5rtosc5Ports8dispatchEPKcRNS_6RtDataEb
ZynDynamicFilter.so:_ZNK5rtosc5PortsixEPKc
ZynDynamicFilter.so:_ZNK7DISTRHO6Plugin13getBufferSizeEv
ZynDynamicFilter.so:_ZNK7DISTRHO6Plugin13getSampleRateEv
ZynDynamicFilter.so:advance_path
ZynDynamicFilter.so:arraytypes_match
ZynDynamicFilter.so:chunk_path
ZynDynamicFilter.so:delta_from_arg_vals
ZynDynamicFilter.so:fast_strcpy
ZynDynamicFilter.so:get_default_cmp_options
ZynDynamicFilter.so:lv2_descriptor
ZynDynamicFilter.so:lv2_generate_ttl
ZynDynamicFilter.so:main
ZynDynamicFilter.so:parse_identifier
ZynDynamicFilter.so:range_min
ZynDynamicFilter.so:rtosc_amessage
ZynDynamicFilter.so:rtosc_arg_arr_len
ZynDynamicFilter.so:rtosc_arg_arr_len_set
ZynDynamicFilter.so:rtosc_arg_arr_type
ZynDynamicFilter.so:rtosc_arg_arr_type_set
ZynDynamicFilter.so:rtosc_arg_rep_has_delta
ZynDynamicFilter.so:rtosc_arg_rep_has_delta_set
ZynDynamicFilter.so:rtosc_arg_rep_num
ZynDynamicFilter.so:rtosc_arg_rep_num_set
ZynDynamicFilter.so:rtosc_arg_val_add
ZynDynamicFilter.so:rtosc_arg_val_current_time
ZynDynamicFilter.so:rtosc_arg_val_div
ZynDynamicFilter.so:rtosc_arg_val_from_double
ZynDynamicFilter.so:rtosc_arg_val_from_int
ZynDynamicFilter.so:rtosc_arg_val_from_params
ZynDynamicFilter.so:rtosc_arg_val_from_time_t
ZynDynamicFilter.so:rtosc_arg_val_immediatelly
ZynDynamicFilter.so:rtosc_arg_val_is_immediatelly
ZynDynamicFilter.so:rtosc_arg_val_itr_get
ZynDynamicFilter.so:rtosc_arg_val_itr_init
ZynDynamicFilter.so:rtosc_arg_val_itr_next
ZynDynamicFilter.so:rtosc_arg_val_mult
ZynDynamicFilter.so:rtosc_arg_val_negate
ZynDynamicFilter.so:rtosc_arg_val_null
ZynDynamicFilter.so:rtosc_arg_val_range_arg
ZynDynamicFilter.so:rtosc_arg_val_round
ZynDynamicFilter.so:rtosc_arg_val_sub
ZynDynamicFilter.so:rtosc_arg_val_to_int
ZynDynamicFilter.so:rtosc_arg_vals_cmp
ZynDynamicFilter.so:rtosc_arg_vals_cmp_has_next
ZynDynamicFilter.so:rtosc_arg_vals_cmp_single
ZynDynamicFilter.so:rtosc_arg_vals_eq
ZynDynamicFilter.so:rtosc_arg_vals_eq_after_abort
ZynDynamicFilter.so:rtosc_arg_vals_eq_single
ZynDynamicFilter.so:rtosc_argument
ZynDynamicFilter.so:rtosc_argument_string
ZynDynamicFilter.so:rtosc_av_arr_len
ZynDynamicFilter.so:rtosc_av_arr_len_set
ZynDynamicFilter.so:rtosc_av_arr_type
ZynDynamicFilter.so:rtosc_av_arr_type_set
ZynDynamicFilter.so:rtosc_av_rep_has_delta
ZynDynamicFilter.so:rtosc_av_rep_has_delta_set
ZynDynamicFilter.so:rtosc_av_rep_num
ZynDynamicFilter.so:rtosc_av_rep_num_set
ZynDynamicFilter.so:rtosc_bundle
ZynDynamicFilter.so:rtosc_bundle_elements
ZynDynamicFilter.so:rtosc_bundle_fetch
ZynDynamicFilter.so:rtosc_bundle_p
ZynDynamicFilter.so:rtosc_bundle_size
ZynDynamicFilter.so:rtosc_bundle_timetag
ZynDynamicFilter.so:rtosc_count_printed_arg_vals
ZynDynamicFilter.so:rtosc_count_printed_arg_vals_of_msg
ZynDynamicFilter.so:rtosc_float2secfracs
ZynDynamicFilter.so:rtosc_itr_begin
ZynDynamicFilter.so:rtosc_itr_end
ZynDynamicFilter.so:rtosc_itr_next
ZynDynamicFilter.so:rtosc_match
ZynDynamicFilter.so:rtosc_match_full_path
ZynDynamicFilter.so:rtosc_match_options
ZynDynamicFilter.so:rtosc_match_partial
ZynDynamicFilter.so:rtosc_match_path
ZynDynamicFilter.so:rtosc_matchable_path
ZynDynamicFilter.so:rtosc_message
ZynDynamicFilter.so:rtosc_message_length
ZynDynamicFilter.so:rtosc_message_ring_length
ZynDynamicFilter.so:rtosc_narguments
ZynDynamicFilter.so:rtosc_params_from_arg_val
ZynDynamicFilter.so:rtosc_print_arg_val
ZynDynamicFilter.so:rtosc_print_arg_vals
ZynDynamicFilter.so:rtosc_print_message
ZynDynamicFilter.so:rtosc_scan_arg_val
ZynDynamicFilter.so:rtosc_scan_arg_vals
ZynDynamicFilter.so:rtosc_scan_message
ZynDynamicFilter.so:rtosc_secfracs2float
ZynDynamicFilter.so:rtosc_secfracs_from_arg_val
ZynDynamicFilter.so:rtosc_skip_next_printed_arg
ZynDynamicFilter.so:rtosc_subpath_pat_type
ZynDynamicFilter.so:rtosc_time_t_from_arg_val
ZynDynamicFilter.so:rtosc_type
ZynDynamicFilter.so:rtosc_v2argvals
ZynDynamicFilter.so:rtosc_valid_message_p
ZynDynamicFilter.so:rtosc_vmessage
ZynDynamicFilter.so:tlsf_add_pool
ZynDynamicFilter.so:tlsf_align_size
ZynDynamicFilter.so:tlsf_alloc_overhead
ZynDynamicFilter.so:tlsf_block_size
ZynDynamicFilter.so:tlsf_block_size_max
ZynDynamicFilter.so:tlsf_block_size_min
ZynDynamicFilter.so:tlsf_check
ZynDynamicFilter.so:tlsf_check_pool
ZynDynamicFilter.so:tlsf_create
ZynDynamicFilter.so:tlsf_create_with_pool
ZynDynamicFilter.so:tlsf_destroy
ZynDynamicFilter.so:tlsf_free
ZynDynamicFilter.so:tlsf_get_pool
ZynDynamicFilter.so:tlsf_malloc
ZynDynamicFilter.so:tlsf_memalign
ZynDynamicFilter.so:tlsf_pool_overhead
ZynDynamicFilter.so:tlsf_realloc
ZynDynamicFilter.so:tlsf_remove_pool
ZynDynamicFilter.so:tlsf_size
ZynDynamicFilter.so:tlsf_walk_pool
ZynDynamicFilter.so:types_match
ZynEcho.so:_Z15port_is_enabledPKN5rtosc4PortEPcmRKNS_5PortsEPvbPFvS2_PKcS9_S6_S7_S7_ES7_
ZynEcho.so:_Z20metaiterator_advanceRPKcS1_
ZynEcho.so:_Z7do_hashRKSt6vectorINSt7__cxx1112basic_stringIcSt11char_traitsIcESaIcEEESaIS5_EERKS_IiSaIiEE
ZynEcho.so:_ZN22Value_Smoothing_Filter11sample_rateEm
ZynEcho.so:_ZN22Value_Smoothing_Filter5applyEPfmf
ZynEcho.so:_ZN3zyn10CombFilter13setfreq_and_qEff
ZynEcho.so:_ZN3zyn10CombFilter4setqEf
ZynEcho.so:_ZN3zyn10CombFilter7setfreqEf
ZynEcho.so:_ZN3zyn10CombFilter7setgainEf
ZynEcho.so:_ZN3zyn10CombFilter7settypeEh
ZynEcho.so:_ZN3zyn10CombFilter9filteroutEPf
ZynEcho.so:_ZN3zyn10CombFilterC1EPNS_9AllocatorEhffji
ZynEcho.so:_ZN3zyn10CombFilterC2EPNS_9AllocatorEhffji
ZynEcho.so:_ZN3zyn10CombFilterD0Ev
ZynEcho.so:_ZN3zyn10CombFilterD1Ev
ZynEcho.so:_ZN3zyn10CombFilterD2Ev
ZynEcho.so:_ZN3zyn10DummyAllocE
ZynEcho.so:_ZN3zyn10MoogFilter13setfreq_and_qEff
ZynEcho.so:_ZN3zyn10MoogFilter4setqEf
ZynEcho.so:_ZN3zyn10MoogFilter7setfreqEf
ZynEcho.so:_ZN3zyn10MoogFilter7setgainEf
ZynEcho.so:_ZN3zyn10MoogFilter7settypeEh
ZynEcho.so:_ZN3zyn10MoogFilter9filteroutEPf
ZynEcho.so:_ZN3zyn10MoogFilterC1Ehffji
ZynEcho.so:_ZN3zyn10MoogFilterC2Ehffji
ZynEcho.so:_ZN3zyn10MoogFilterD0Ev
ZynEcho.so:_ZN3zyn10MoogFilterD1Ev
ZynEcho.so:_ZN3zyn10MoogFilterD2Ev
ZynEcho.so:_ZN3zyn10XMLwrapper10addparboolERKNSt7__cxx1112basic_stringIcSt11char_traitsIcESaIcEEEi
ZynEcho.so:_ZN3zyn10XMLwrapper10addparrealERKNSt7__cxx1112basic_stringIcSt11char_traitsIcESaIcEEEf
ZynEcho.so:_ZN3zyn10XMLwrapper10exitbranchEv
ZynEcho.so:_ZN3zyn10XMLwrapper10putXMLdataEPKc
ZynEcho.so:_ZN3zyn10XMLwrapper11beginbranchERKNSt7__cxx1112basic_stringIcSt11char_traitsIcESaIcEEE
ZynEcho.so:_ZN3zyn10XMLwrapper11beginbranchERKNSt7__cxx1112basic_stringIcSt11char_traitsIcESaIcEEEi
ZynEcho.so:_ZN3zyn10XMLwrapper11enterbranchERKNSt7__cxx1112basic_stringIcSt11char_traitsIcESaIcEEE
ZynEcho.so:_ZN3zyn10XMLwrapper11enterbranchERKNSt7__cxx1112basic_stringIcSt11char_traitsIcESaIcEEEi
ZynEcho.so:_ZN3zyn10XMLwrapper11loadXMLfileERKNSt7__cxx1112basic_stringIcSt11char_traitsIcESaIcEEE
ZynEcho.so:_ZN3zyn10XMLwrapper11setPadSynthEb
ZynEcho.so:_ZN3zyn10XMLwrapper3addERKNS_7XmlNodeE
ZynEcho.so:_ZN3zyn10XMLwrapper6addparERKNSt7__cxx1112basic_stringIcSt11char_traitsIcESaIcEEEi
ZynEcho.so:_ZN3zyn10XMLwrapper7cleanupEv
ZynEcho.so:_ZN3zyn10XMLwrapper9addparstrERKNSt7__cxx1112basic_stringIcSt11char_traitsIcESaIcEEES8_
ZynEcho.so:_ZN3zyn10XMLwrapper9endbranchEv
ZynEcho.so:_ZN3zyn10XMLwrapperC1Ev
ZynEcho.so:_ZN3zyn10XMLwrapperC2Ev
ZynEcho.so:_ZN3zyn10XMLwrapperD1Ev
ZynEcho.so:_ZN3zyn10XMLwrapperD2Ev
ZynEcho.so:_ZN3zyn10fileexistsEPKc
ZynEcho.so:_ZN3zyn10prng_stateE
ZynEcho.so:_ZN3zyn11fast_strcpyEPcPKcm
ZynEcho.so:_ZN3zyn11interpolateEPKfmf
ZynEcho.so:_ZN3zyn11rtosc_splatEPKcSt3setINSt7__cxx1112basic_stringIcSt11char_traitsIcESaIcEEESt4lessIS8_ESaIS8_EE
ZynEcho.so:_ZN3zyn12AnalogFilter12computeCoeffEiffiffRi
ZynEcho.so:_ZN3zyn12AnalogFilter13setfreq_and_qEff
ZynEcho.so:_ZN3zyn12AnalogFilter15singlefilteroutEPfRNS0_6fstageEfj
ZynEcho.so:_ZN3zyn12AnalogFilter18computefiltercoefsEff
ZynEcho.so:_ZN3zyn12AnalogFilter1HEf
ZynEcho.so:_ZN3zyn12AnalogFilter4setqEf
ZynEcho.so:_ZN3zyn12AnalogFilter7cleanupEv
ZynEcho.so:_ZN3zyn12AnalogFilter7setfreqEf
ZynEcho.so:_ZN3zyn12AnalogFilter7setgainEf
ZynEcho.so:_ZN3zyn12AnalogFilter7settypeEi
ZynEcho.so:_ZN3zyn12AnalogFilter9filteroutEPf
ZynEcho.so:_ZN3zyn12AnalogFilter9setstagesEi
ZynEcho.so:_ZN3zyn12AnalogFilterC1Ehffhji
ZynEcho.so:_ZN3zyn12AnalogFilterC2Ehffhji
ZynEcho.so:_ZN3zyn12AnalogFilterD0Ev
ZynEcho.so:_ZN3zyn12AnalogFilterD1Ev
ZynEcho.so:_ZN3zyn12AnalogFilterD2Ev
ZynEcho.so:_ZN3zyn12EffectParamsC1ERNS_9AllocatorEbPfS3_hjiPNS_12FilterParamsEb
ZynEcho.so:_ZN3zyn12EffectParamsC2ERNS_9AllocatorEbPfS3_hjiPNS_12FilterParamsEb
ZynEcho.so:_ZN3zyn12FilterParams10getfromXMLERNS_10XMLwrapperE
ZynEcho.so:_ZN3zyn12FilterParams10pasteArrayERS0_i
ZynEcho.so:_ZN3zyn12FilterParams14add2XMLsectionERNS_10XMLwrapperEi
ZynEcho.so:_ZN3zyn12FilterParams14baseqFromOldPqEi
ZynEcho.so:_ZN3zyn12FilterParams16gainFromOldPgainEi
ZynEcho.so:_ZN3zyn12FilterParams17getfromXMLsectionERNS_10XMLwrapperEi
ZynEcho.so:_ZN3zyn12FilterParams19basefreqFromOldPreqEi
ZynEcho.so:_ZN3zyn12FilterParams19getfromFilterParamsEPKS0_
ZynEcho.so:_ZN3zyn12FilterParams5pasteERS0_
ZynEcho.so:_ZN3zyn12FilterParams5portsE
ZynEcho.so:_ZN3zyn12FilterParams5setupEv
ZynEcho.so:_ZN3zyn12FilterParams7add2XMLERNS_10XMLwrapperE
ZynEcho.so:_ZN3zyn12FilterParams8defaultsEi
ZynEcho.so:_ZN3zyn12FilterParams8defaultsEv
ZynEcho.so:_ZN3zyn12FilterParams9updateLocEi
ZynEcho.so:_ZN3zyn12FilterParams9updateLocEii
ZynEcho.so:_ZN3zyn12FilterParamsC1EPKNS_7AbsTimeE
ZynEcho.so:_ZN3zyn12FilterParamsC1EhhhiPKNS_7AbsTimeE
ZynEcho.so:_ZN3zyn12FilterParamsC1EiPKNS_7AbsTimeE
ZynEcho.so:_ZN3zyn12FilterParamsC2EPKNS_7AbsTimeE
ZynEcho.so:_ZN3zyn12FilterParamsC2EhhhiPKNS_7AbsTimeE
ZynEcho.so:_ZN3zyn12FilterParamsC2EiPKNS_7AbsTimeE
ZynEcho.so:_ZN3zyn12FilterParamsD0Ev
ZynEcho.so:_ZN3zyn12FilterParamsD1Ev
ZynEcho.so:_ZN3zyn12FilterParamsD2Ev
ZynEcho.so:_ZN3zyn12PresetsArray13setpresettypeEPKc
ZynEcho.so:_ZN3zyn12PresetsArray4copyERNS_12PresetsStoreEPKc
ZynEcho.so:_ZN3zyn12PresetsArray4copyERNS_12PresetsStoreEiPKc
ZynEcho.so:_ZN3zyn12PresetsArrayC1Ev
ZynEcho.so:_ZN3zyn12PresetsArrayC2Ev
ZynEcho.so:_ZN3zyn12PresetsArrayD0Ev
ZynEcho.so:_ZN3zyn12PresetsArrayD1Ev
ZynEcho.so:_ZN3zyn12PresetsArrayD2Ev
ZynEcho.so:_ZN3zyn12PresetsStore10copypresetERNS_10XMLwrapperEPcNSt7__cxx1112basic_stringIcSt11char_traitsIcESaIcEEE
ZynEcho.so:_ZN3zyn12PresetsStore11pastepresetERNS_10XMLwrapperEj
ZynEcho.so:_ZN3zyn12PresetsStore12clearpresetsEv
ZynEcho.so:_ZN3zyn12PresetsStore12deletepresetENSt7__cxx1112basic_stringIcSt11char_traitsIcESaIcEEE
ZynEcho.so:_ZN3zyn12PresetsStore12deletepresetEj
ZynEcho.so:_ZN3zyn12PresetsStore13copyclipboardERNS_10XMLwrapperEPc
ZynEcho.so:_ZN3zyn12PresetsStore14pasteclipboardERNS_10XMLwrapperE
ZynEcho.so:_ZN3zyn12PresetsStore14scanforpresetsEv
ZynEcho.so:_ZN3zyn12PresetsStore18checkclipboardtypeEPKc
ZynEcho.so:_ZN3zyn12PresetsStoreC1ERKNS_6ConfigE
ZynEcho.so:_ZN3zyn12PresetsStoreC2ERKNS_6ConfigE
ZynEcho.so:_ZN3zyn12PresetsStoreD1Ev
ZynEcho.so:_ZN3zyn12PresetsStoreD2Ev
ZynEcho.so:_ZN3zyn12cinterpolateEPKfmf
ZynEcho.so:_ZN3zyn12set_realtimeEv
ZynEcho.so:_ZN3zyn13FormantFilter13setfreq_and_qEff
ZynEcho.so:_ZN3zyn13FormantFilter4setqEf
ZynEcho.so:_ZN3zyn13FormantFilter6setposEf
ZynEcho.so:_ZN3zyn13FormantFilter7cleanupEv
ZynEcho.so:_ZN3zyn13FormantFilter7setfreqEf
ZynEcho.so:_ZN3zyn13FormantFilter7setgainEf
ZynEcho.so:_ZN3zyn13FormantFilter9filteroutEPf
ZynEcho.so:_ZN3zyn13FormantFilterC1EPKNS_12FilterParamsEPNS_9AllocatorEji
ZynEcho.so:_ZN3zyn13FormantFilterC2EPKNS_12FilterParamsEPNS_9AllocatorEji
ZynEcho.so:_ZN3zyn13FormantFilterD0Ev
ZynEcho.so:_ZN3zyn13FormantFilterD1Ev
ZynEcho.so:_ZN3zyn13FormantFilterD2Ev
ZynEcho.so:_ZN3zyn14AllocatorClass11dealloc_memEPv
ZynEcho.so:_ZN3zyn14AllocatorClass9addMemoryEPvm
ZynEcho.so:_ZN3zyn14AllocatorClass9alloc_memEm
ZynEcho.so:_ZN3zyn15mxmlFindElementEPK12_mxml_node_sS2_PKcS4_S4_i
ZynEcho.so:_ZN3zyn16legalizeFilenameENSt7__cxx1112basic_stringIcSt11char_traitsIcESaIcEEE
ZynEcho.so:_ZN3zyn16trimLeadingWhiteEPKc
ZynEcho.so:_ZN3zyn18mxmlElementGetAttrEPK12_mxml_node_sPKc
ZynEcho.so:_ZN3zyn19os_guess_pid_lengthEv
ZynEcho.so:_ZN3zyn23os_pid_as_padded_stringB5cxx11Ev
ZynEcho.so:_ZN3zyn30XMLwrapper_whitespace_callbackEP12_mxml_node_si
ZynEcho.so:_ZN3zyn4Echo10initdelaysEv
ZynEcho.so:_ZN3zyn4Echo10setlrdelayEh
ZynEcho.so:_ZN3zyn4Echo12getpresetparEhj
ZynEcho.so:_ZN3zyn4Echo3outERKNS_6StereoIPfEE
ZynEcho.so:_ZN3zyn4Echo5portsE
ZynEcho.so:_ZN3zyn4Echo5setfbEh
ZynEcho.so:_ZN3zyn4Echo7cleanupEv
ZynEcho.so:_ZN3zyn4Echo8setdelayEh
ZynEcho.so:_ZN3zyn4Echo9changeparEih
ZynEcho.so:_ZN3zyn4Echo9sethidampEh
ZynEcho.so:_ZN3zyn4Echo9setpresetEh
ZynEcho.so:_ZN3zyn4Echo9setvolumeEh
ZynEcho.so:_ZN3zyn4EchoC1ENS_12EffectParamsE
ZynEcho.so:_ZN3zyn4EchoC2ENS_12EffectParamsE
ZynEcho.so:_ZN3zyn4EchoD0Ev
ZynEcho.so:_ZN3zyn4EchoD1Ev
ZynEcho.so:_ZN3zyn4EchoD2Ev
ZynEcho.so:_ZN3zyn4VelFEfh
ZynEcho.so:_ZN3zyn4dataEPNS_6next_tE
ZynEcho.so:_ZN3zyn5xml_kE
ZynEcho.so:_ZN3zyn6Effect10setlrcrossEc
ZynEcho.so:_ZN3zyn6Effect10setpanningEc
ZynEcho.so:_ZN3zyn6Effect3outEPfS1_
ZynEcho.so:_ZN3zyn6Effect9crossoverERfS1_f
ZynEcho.so:_ZN3zyn6EffectC1ENS_12EffectParamsE
ZynEcho.so:_ZN3zyn6EffectC2ENS_12EffectParamsE
ZynEcho.so:_ZN3zyn6Filter11getrealfreqEf
ZynEcho.so:_ZN3zyn6Filter8generateERNS_9AllocatorEPKNS_12FilterParamsEji
ZynEcho.so:_ZN3zyn6FilterC1Eji
ZynEcho.so:_ZN3zyn6FilterC2Eji
ZynEcho.so:_ZN3zyn7Presets12deletepresetERNS_12PresetsStoreEi
ZynEcho.so:_ZN3zyn7Presets13setpresettypeEPKc
ZynEcho.so:_ZN3zyn7Presets18checkclipboardtypeERNS_12PresetsStoreE
ZynEcho.so:_ZN3zyn7Presets4copyERNS_12PresetsStoreEPKc
ZynEcho.so:_ZN3zyn7PresetsC1Ev
ZynEcho.so:_ZN3zyn7PresetsC2Ev
ZynEcho.so:_ZN3zyn7PresetsD0Ev
ZynEcho.so:_ZN3zyn7PresetsD1Ev
ZynEcho.so:_ZN3zyn7PresetsD2Ev
ZynEcho.so:_ZN3zyn7SYNTH_T9numRandomEv
ZynEcho.so:_ZN3zyn7XmlNode3hasENSt7__cxx1112basic_stringIcSt11char_traitsIcESaIcEEE
ZynEcho.so:_ZN3zyn7XmlNodeC1ENSt7__cxx1112basic_stringIcSt11char_traitsIcESaIcEEE
ZynEcho.so:_ZN3zyn7XmlNodeC2ENSt7__cxx1112basic_stringIcSt11char_traitsIcESaIcEEE
ZynEcho.so:_ZN3zyn7XmlNodeixENSt7__cxx1112basic_stringIcSt11char_traitsIcESaIcEEE
ZynEcho.so:_ZN3zyn7verboseE
ZynEcho.so:_ZN3zyn8SVFilter13setfreq_and_qEff
ZynEcho.so:_ZN3zyn8SVFilter15computeResponseEiffiff
ZynEcho.so:_ZN3zyn8SVFilter15singlefilteroutEPfRNS0_6fstageERNS0_10parametersEi
ZynEcho.so:_ZN3zyn8SVFilter18computefiltercoefsEv
ZynEcho.so:_ZN3zyn8SVFilter19getfilteroutfortypeERNS0_6fstageE
ZynEcho.so:_ZN3zyn8SVFilter4setqEf
ZynEcho.so:_ZN3zyn8SVFilter7cleanupEv
ZynEcho.so:_ZN3zyn8SVFilter7setfreqEf
ZynEcho.so:_ZN3zyn8SVFilter7setgainEf
ZynEcho.so:_ZN3zyn8SVFilter7settypeEi
ZynEcho.so:_ZN3zyn8SVFilter8responseC1Effffff
ZynEcho.so:_ZN3zyn8SVFilter8responseC2Effffff
ZynEcho.so:_ZN3zyn8SVFilter9filteroutEPf
ZynEcho.so:_ZN3zyn8SVFilter9setstagesEi
ZynEcho.so:_ZN3zyn8SVFilterC1Ehffhji
ZynEcho.so:_ZN3zyn8SVFilterC2Ehffhji
ZynEcho.so:_ZN3zyn8SVFilterD0Ev
ZynEcho.so:_ZN3zyn8SVFilterD1Ev
ZynEcho.so:_ZN3zyn8SVFilterD2Ev
ZynEcho.so:_ZN3zyn8isPluginE
ZynEcho.so:_ZN3zyn9Allocator14endTransactionEv
ZynEcho.so:_ZN3zyn9Allocator16beginTransactionEv
ZynEcho.so:_ZN3zyn9Allocator19rollbackTransactionEv
ZynEcho.so:_ZN3zyn9AllocatorC1Ev
ZynEcho.so:_ZN3zyn9AllocatorC2Ev
ZynEcho.so:_ZN3zyn9AllocatorD0Ev
ZynEcho.so:_ZN3zyn9AllocatorD1Ev
ZynEcho.so:_ZN3zyn9AllocatorD2Ev
ZynEcho.so:_ZN3zyn9getdetuneEhtt
ZynEcho.so:_ZN3zyn9invSignalEPfm
ZynEcho.so:_ZN3zyn9os_usleepEl
ZynEcho.so:_ZN3zynlsERSoRKNS_12version_typeE
ZynEcho.so:_ZN5rtosc10ClonePortsC1ERKNS_5PortsESt16initializer_listINS_9ClonePortEE
ZynEcho.so:_ZN5rtosc10ClonePortsC2ERKNS_5PortsESt16initializer_listINS_9ClonePortEE
ZynEcho.so:_ZN5rtosc10MergePortsC1ESt16initializer_listIPKNS_5PortsEE
ZynEcho.so:_ZN5rtosc10MergePortsC2ESt16initializer_listIPKNS_5PortsEE
ZynEcho.so:_ZN5rtosc10walk_portsEPKNS_5PortsEPcmPvPFvPKNS_4PortEPKcS9_RS1_S4_S4_EbS4_b
ZynEcho.so:_ZN5rtosc11path_searchERKNS_5PortsEPKcS4_PcmP11rtosc_arg_tmNS_16path_search_optsEb
ZynEcho.so:_ZN5rtosc11path_searchERKNS_5PortsEPKcmPcmNS_16path_search_optsEb
ZynEcho.so:_ZN5rtosc12map_arg_valsEP15rtosc_arg_val_tmNS_4Port13MetaContainerE
ZynEcho.so:_ZN5rtosc17enum_key_from_msgENS_4Port13MetaContainerEPKc
ZynEcho.so:_ZN5rtosc21canonicalize_arg_valsEP15rtosc_arg_val_tmPKcNS_4Port13MetaContainerE
ZynEcho.so:_ZN5rtosc4Port12MetaIteratorC1EPKc
ZynEcho.so:_ZN5rtosc4Port12MetaIteratorC2EPKc
ZynEcho.so:_ZN5rtosc4Port12MetaIteratorppEv
ZynEcho.so:_ZN5rtosc4Port13MetaContainerC1EPKc
ZynEcho.so:_ZN5rtosc4Port13MetaContainerC2EPKc
ZynEcho.so:_ZN5rtosc5Ports12collapsePathEPc
ZynEcho.so:_ZN5rtosc5Ports12refreshMagicEv
ZynEcho.so:_ZN5rtosc5PortsC1ESt16initializer_listINS_4PortEE
ZynEcho.so:_ZN5rtosc5PortsC2ESt16initializer_listINS_4PortEE
ZynEcho.so:_ZN5rtosc5PortsD1Ev
ZynEcho.so:_ZN5rtosc5PortsD2Ev
ZynEcho.so:_ZN5rtosc6RtData10chainArrayEPKcS2_P11rtosc_arg_t
ZynEcho.so:_ZN5rtosc6RtData10push_indexEi
ZynEcho.so:_ZN5rtosc6RtData10replyArrayEPKcS2_P11rtosc_arg_t
ZynEcho.so:_ZN5rtosc6RtData14broadcastArrayEPKcS2_P11rtosc_arg_t
ZynEcho.so:_ZN5rtosc6RtData5chainEPKc
ZynEcho.so:_ZN5rtosc6RtData5chainEPKcS2_z
ZynEcho.so:_ZN5rtosc6RtData5replyEPKc
ZynEcho.so:_ZN5rtosc6RtData5replyEPKcS2_z
ZynEcho.so:_ZN5rtosc6RtData7forwardEPKc
ZynEcho.so:_ZN5rtosc6RtData9broadcastEPKc
ZynEcho.so:_ZN5rtosc6RtData9broadcastEPKcS2_z
ZynEcho.so:_ZN5rtosc6RtData9pop_indexEv
ZynEcho.so:_ZN5rtosc6RtDataC1Ev
ZynEcho.so:_ZN5rtosc6RtDataC2Ev
ZynEcho.so:_ZN5rtosc7helpers22get_value_from_runtimeEPvRKNS_4PortEmPcPKcmmP15rtosc_arg_val_tPSt6vectorISA_IcSaIcEESaISC_EE
ZynEcho.so:_ZN5rtosc7helpers22get_value_from_runtimeEPvRKNS_5PortsEmPcS5_mi
ZynEcho.so:_ZN5rtosc8enum_keyENS_4Port13MetaContainerEPKc
ZynEcho.so:_ZN5rtosclsERSoRNS_15OscDocFormatterE
ZynEcho.so:_ZN7DISTRHO12createPluginEv
ZynEcho.so:_ZN7DISTRHO14PluginExporter15sFallbackRangesE
ZynEcho.so:_ZN7DISTRHO14PluginExporter15sFallbackStringE
ZynEcho.so:_ZN7DISTRHO14PluginExporter18sFallbackAudioPortE
ZynEcho.so:_ZN7DISTRHO14PluginExporter18sFallbackPortGroupE
ZynEcho.so:_ZN7DISTRHO14PluginExporter19sFallbackEnumValuesE
ZynEcho.so:_ZN7DISTRHO14snprintf_paramEPcfm
ZynEcho.so:_ZN7DISTRHO15snprintf_iparamEPcim
ZynEcho.so:_ZN7DISTRHO16d_lastBufferSizeE
ZynEcho.so:_ZN7DISTRHO16d_lastSampleRateE
ZynEcho.so:_ZN7DISTRHO37d_lastCanRequestParameterValueChangesE
ZynEcho.so:_ZN7DISTRHO6Plugin13initAudioPortEbjRNS_9AudioPortE
ZynEcho.so:_ZN7DISTRHO6Plugin13initPortGroupEjRNS_9PortGroupE
ZynEcho.so:_ZN7DISTRHO6Plugin17bufferSizeChangedEj
ZynEcho.so:_ZN7DISTRHO6Plugin17sampleRateChangedEd
ZynEcho.so:_ZN7DISTRHO6PluginC1Ejjj
ZynEcho.so:_ZN7DISTRHO6PluginC2Ejjj
ZynEcho.so:_ZN7DISTRHO6PluginD0Ev
ZynEcho.so:_ZN7DISTRHO6PluginD1Ev
ZynEcho.so:_ZN7DISTRHO6PluginD2Ev
ZynEcho.so:_ZN7DISTRHO7strncpyEPcPKcm
ZynEcho.so:_ZNK3zyn10XMLwrapper10doloadfileERKNSt7__cxx1112basic_stringIcSt11char_traitsIcESaIcEEE
ZynEcho.so:_ZNK3zyn10XMLwrapper10dosavefileEPKciS2_
ZynEcho.so:_ZNK3zyn10XMLwrapper10getXMLdataEv
ZynEcho.so:_ZNK3zyn10XMLwrapper10getparboolERKNSt7__cxx1112basic_stringIcSt11char_traitsIcESaIcEEEi
ZynEcho.so:_ZNK3zyn10XMLwrapper10getparrealEPKcf
ZynEcho.so:_ZNK3zyn10XMLwrapper10getparrealEPKcfff
ZynEcho.so:_ZNK3zyn10XMLwrapper10hasparrealEPKc
ZynEcho.so:_ZNK3zyn10XMLwrapper11getbranchidEii
ZynEcho.so:_ZNK3zyn10XMLwrapper11hasPadSynthEv
ZynEcho.so:_ZNK3zyn10XMLwrapper11saveXMLfileERKNSt7__cxx1112basic_stringIcSt11char_traitsIcESaIcEEEi
ZynEcho.so:_ZNK3zyn10XMLwrapper6getparERKNSt7__cxx1112basic_stringIcSt11char_traitsIcESaIcEEEiii
ZynEcho.so:_ZNK3zyn10XMLwrapper9addparamsEPKcjz
ZynEcho.so:_ZNK3zyn10XMLwrapper9getBranchEv
ZynEcho.so:_ZNK3zyn10XMLwrapper9getpar127ERKNSt7__cxx1112basic_stringIcSt11char_traitsIcESaIcEEEi
ZynEcho.so:_ZNK3zyn10XMLwrapper9getparstrERKNSt7__cxx1112basic_stringIcSt11char_traitsIcESaIcEEEPci
ZynEcho.so:_ZNK3zyn10XMLwrapper9getparstrERKNSt7__cxx1112basic_stringIcSt11char_traitsIcESaIcEEES8_
ZynEcho.so:_ZNK3zyn12FilterParams10getfreqposEf
ZynEcho.so:_ZNK3zyn12FilterParams11getformantqEh
ZynEcho.so:_ZNK3zyn12FilterParams13getcenterfreqEv
ZynEcho.so:_ZNK3zyn12FilterParams13getformantampEh
ZynEcho.so:_ZNK3zyn12FilterParams14getformantfreqEh
ZynEcho.so:_ZNK3zyn12FilterParams14getoctavesfreqEv
ZynEcho.so:_ZNK3zyn12FilterParams15getfreqtrackingEf
ZynEcho.so:_ZNK3zyn12FilterParams4getqEv
ZynEcho.so:_ZNK3zyn12FilterParams7getfreqEv
ZynEcho.so:_ZNK3zyn12FilterParams7getgainEv
ZynEcho.so:_ZNK3zyn12FilterParams8getfreqxEf
ZynEcho.so:_ZNK3zyn12PresetsStore12presetstructltERKS1_
ZynEcho.so:_ZNK3zyn14AllocatorClass9lowMemoryEjm
ZynEcho.so:_ZNK3zyn4Echo6getparEi
ZynEcho.so:_ZNK3zyn9Allocator12totalAllocedEv
ZynEcho.so:_ZNK3zyn9Allocator7memFreeEPv
ZynEcho.so:_ZNK3zyn9Allocator8memPoolsEv
ZynEcho.so:_ZNK3zyn9Allocator9freePoolsEv
ZynEcho.so:_ZNK5rtosc4Port12MetaIteratorcvbEv
ZynEcho.so:_ZNK5rtosc4Port13MetaContainer3endEv
ZynEcho.so:_ZNK5rtosc4Port13MetaContainer4findEPKc
ZynEcho.so:_ZNK5rtosc4Port13MetaContainer5beginEv
ZynEcho.so:_ZNK5rtosc4Port13MetaContainer6lengthEv
ZynEcho.so:_ZNK5rtosc4Port13MetaContainerixEPKc
ZynEcho.so:_ZNK5rtosc5Ports7aproposEPKc
ZynEcho.so:_ZNK5rtosc5Ports8dispatchEPKcRNS_6RtDataEb
ZynEcho.so:_ZNK5rtosc5PortsixEPKc
ZynEcho.so:_ZNK7DISTRHO6Plugin13getBufferSizeEv
ZynEcho.so:_ZNK7DISTRHO6Plugin13getSampleRateEv
ZynEcho.so:advance_path
ZynEcho.so:arraytypes_match
ZynEcho.so:chunk_path
ZynEcho.so:delta_from_arg_vals
ZynEcho.so:fast_strcpy
ZynEcho.so:get_default_cmp_options
ZynEcho.so:lv2_descriptor
ZynEcho.so:lv2_generate_ttl
ZynEcho.so:main
ZynEcho.so:parse_identifier
ZynEcho.so:range_min
ZynEcho.so:rtosc_amessage
ZynEcho.so:rtosc_arg_arr_len
ZynEcho.so:rtosc_arg_arr_len_set
ZynEcho.so:rtosc_arg_arr_type
ZynEcho.so:rtosc_arg_arr_type_set
ZynEcho.so:rtosc_arg_rep_has_delta
ZynEcho.so:rtosc_arg_rep_has_delta_set
ZynEcho.so:rtosc_arg_rep_num
ZynEcho.so:rtosc_arg_rep_num_set
ZynEcho.so:rtosc_arg_val_add
ZynEcho.so:rtosc_arg_val_current_time
ZynEcho.so:rtosc_arg_val_div
ZynEcho.so:rtosc_arg_val_from_double
ZynEcho.so:rtosc_arg_val_from_int
ZynEcho.so:rtosc_arg_val_from_params
ZynEcho.so:rtosc_arg_val_from_time_t
ZynEcho.so:rtosc_arg_val_immediatelly
ZynEcho.so:rtosc_arg_val_is_immediatelly
ZynEcho.so:rtosc_arg_val_itr_get
ZynEcho.so:rtosc_arg_val_itr_init
ZynEcho.so:rtosc_arg_val_itr_next
ZynEcho.so:rtosc_arg_val_mult
ZynEcho.so:rtosc_arg_val_negate
ZynEcho.so:rtosc_arg_val_null
ZynEcho.so:rtosc_arg_val_range_arg
ZynEcho.so:rtosc_arg_val_round
ZynEcho.so:rtosc_arg_val_sub
ZynEcho.so:rtosc_arg_val_to_int
ZynEcho.so:rtosc_arg_vals_cmp
ZynEcho.so:rtosc_arg_vals_cmp_has_next
ZynEcho.so:rtosc_arg_vals_cmp_single
ZynEcho.so:rtosc_arg_vals_eq
ZynEcho.so:rtosc_arg_vals_eq_after_abort
ZynEcho.so:rtosc_arg_vals_eq_single
ZynEcho.so:rtosc_argument
ZynEcho.so:rtosc_argument_string
ZynEcho.so:rtosc_av_arr_len
ZynEcho.so:rtosc_av_arr_len_set
ZynEcho.so:rtosc_av_arr_type
ZynEcho.so:rtosc_av_arr_type_set
ZynEcho.so:rtosc_av_rep_has_delta
ZynEcho.so:rtosc_av_rep_has_delta_set
ZynEcho.so:rtosc_av_rep_num
ZynEcho.so:rtosc_av_rep_num_set
ZynEcho.so:rtosc_bundle
ZynEcho.so:rtosc_bundle_elements
ZynEcho.so:rtosc_bundle_fetch
ZynEcho.so:rtosc_bundle_p
ZynEcho.so:rtosc_bundle_size
ZynEcho.so:rtosc_bundle_timetag
ZynEcho.so:rtosc_count_printed_arg_vals
ZynEcho.so:rtosc_count_printed_arg_vals_of_msg
ZynEcho.so:rtosc_float2secfracs
ZynEcho.so:rtosc_itr_begin
ZynEcho.so:rtosc_itr_end
ZynEcho.so:rtosc_itr_next
ZynEcho.so:rtosc_match
ZynEcho.so:rtosc_match_full_path
ZynEcho.so:rtosc_match_options
ZynEcho.so:rtosc_match_partial
ZynEcho.so:rtosc_match_path
ZynEcho.so:rtosc_matchable_path
ZynEcho.so:rtosc_message
ZynEcho.so:rtosc_message_length
ZynEcho.so:rtosc_message_ring_length
ZynEcho.so:rtosc_narguments
ZynEcho.so:rtosc_params_from_arg_val
ZynEcho.so:rtosc_print_arg_val
ZynEcho.so:rtosc_print_arg_vals
ZynEcho.so:rtosc_print_message
ZynEcho.so:rtosc_scan_arg_val
ZynEcho.so:rtosc_scan_arg_vals
ZynEcho.so:rtosc_scan_message
ZynEcho.so:rtosc_secfracs2float
ZynEcho.so:rtosc_secfracs_from_arg_val
ZynEcho.so:rtosc_skip_next_printed_arg
ZynEcho.so:rtosc_subpath_pat_type
ZynEcho.so:rtosc_time_t_from_arg_val
ZynEcho.so:rtosc_type
ZynEcho.so:rtosc_v2argvals
ZynEcho.so:rtosc_valid_message_p
ZynEcho.so:rtosc_vmessage
ZynEcho.so:tlsf_add_pool
ZynEcho.so:tlsf_align_size
ZynEcho.so:tlsf_alloc_overhead
ZynEcho.so:tlsf_block_size
ZynEcho.so:tlsf_block_size_max
ZynEcho.so:tlsf_block_size_min
ZynEcho.so:tlsf_check
ZynEcho.so:tlsf_check_pool
ZynEcho.so:tlsf_create
ZynEcho.so:tlsf_create_with_pool
ZynEcho.so:tlsf_destroy
ZynEcho.so:tlsf_free
ZynEcho.so:tlsf_get_pool
ZynEcho.so:tlsf_malloc
ZynEcho.so:tlsf_memalign
ZynEcho.so:tlsf_pool_overhead
ZynEcho.so:tlsf_realloc
ZynEcho.so:tlsf_remove_pool
ZynEcho.so:tlsf_size
ZynEcho.so:tlsf_walk_pool
ZynEcho.so:types_match
ZynPhaser.so:_Z15port_is_enabledPKN5rtosc4PortEPcmRKNS_5PortsEPvbPFvS2_PKcS9_S6_S7_S7_ES7_
ZynPhaser.so:_Z20metaiterator_advanceRPKcS1_
ZynPhaser.so:_Z7do_hashRKSt6vectorINSt7__cxx1112basic_stringIcSt11char_traitsIcESaIcEEESaIS5_EERKS_IiSaIiEE
ZynPhaser.so:_ZN22Value_Smoothing_Filter11sample_rateEm
ZynPhaser.so:_ZN22Value_Smoothing_Filter5applyEPfmf
ZynPhaser.so:_ZN3zyn10CombFilter13setfreq_and_qEff
ZynPhaser.so:_ZN3zyn10CombFilter4setqEf
ZynPhaser.so:_ZN3zyn10CombFilter7setfreqEf
ZynPhaser.so:_ZN3zyn10CombFilter7setgainEf
ZynPhaser.so:_ZN3zyn10CombFilter7settypeEh
ZynPhaser.so:_ZN3zyn10CombFilter9filteroutEPf
ZynPhaser.so:_ZN3zyn10CombFilterC1EPNS_9AllocatorEhffji
ZynPhaser.so:_ZN3zyn10CombFilterC2EPNS_9AllocatorEhffji
ZynPhaser.so:_ZN3zyn10CombFilterD0Ev
ZynPhaser.so:_ZN3zyn10CombFilterD1Ev
ZynPhaser.so:_ZN3zyn10CombFilterD2Ev
ZynPhaser.so:_ZN3zyn10DummyAllocE
ZynPhaser.so:_ZN3zyn10MoogFilter13setfreq_and_qEff
ZynPhaser.so:_ZN3zyn10MoogFilter4setqEf
ZynPhaser.so:_ZN3zyn10MoogFilter7setfreqEf
ZynPhaser.so:_ZN3zyn10MoogFilter7setgainEf
ZynPhaser.so:_ZN3zyn10MoogFilter7settypeEh
ZynPhaser.so:_ZN3zyn10MoogFilter9filteroutEPf
ZynPhaser.so:_ZN3zyn10MoogFilterC1Ehffji
ZynPhaser.so:_ZN3zyn10MoogFilterC2Ehffji
ZynPhaser.so:_ZN3zyn10MoogFilterD0Ev
ZynPhaser.so:_ZN3zyn10MoogFilterD1Ev
ZynPhaser.so:_ZN3zyn10MoogFilterD2Ev
ZynPhaser.so:_ZN3zyn10XMLwrapper10addparboolERKNSt7__cxx1112basic_stringIcSt11char_traitsIcESaIcEEEi
ZynPhaser.so:_ZN3zyn10XMLwrapper10addparrealERKNSt7__cxx1112basic_stringIcSt11char_traitsIcESaIcEEEf
ZynPhaser.so:_ZN3zyn10XMLwrapper10exitbranchEv
ZynPhaser.so:_ZN3zyn10XMLwrapper10putXMLdataEPKc
ZynPhaser.so:_ZN3zyn10XMLwrapper11beginbranchERKNSt7__cxx1112basic_stringIcSt11char_traitsIcESaIcEEE
ZynPhaser.so:_ZN3zyn10XMLwrapper11beginbranchERKNSt7__cxx1112basic_stringIcSt11char_traitsIcESaIcEEEi
ZynPhaser.so:_ZN3zyn10XMLwrapper11enterbranchERKNSt7__cxx1112basic_stringIcSt11char_traitsIcESaIcEEE
ZynPhaser.so:_ZN3zyn10XMLwrapper11enterbranchERKNSt7__cxx1112basic_stringIcSt11char_traitsIcESaIcEEEi
ZynPhaser.so:_ZN3zyn10XMLwrapper11loadXMLfileERKNSt7__cxx1112basic_stringIcSt11char_traitsIcESaIcEEE
ZynPhaser.so:_ZN3zyn10XMLwrapper11setPadSynthEb
ZynPhaser.so:_ZN3zyn10XMLwrapper3addERKNS_7XmlNodeE
ZynPhaser.so:_ZN3zyn10XMLwrapper6addparERKNSt7__cxx1112basic_stringIcSt11char_traitsIcESaIcEEEi
ZynPhaser.so:_ZN3zyn10XMLwrapper7cleanupEv
ZynPhaser.so:_ZN3zyn10XMLwrapper9addparstrERKNSt7__cxx1112basic_stringIcSt11char_traitsIcESaIcEEES8_
ZynPhaser.so:_ZN3zyn10XMLwrapper9endbranchEv
ZynPhaser.so:_ZN3zyn10XMLwrapperC1Ev
ZynPhaser.so:_ZN3zyn10XMLwrapperC2Ev
ZynPhaser.so:_ZN3zyn10XMLwrapperD1Ev
ZynPhaser.so:_ZN3zyn10XMLwrapperD2Ev
ZynPhaser.so:_ZN3zyn10fileexistsEPKc
ZynPhaser.so:_ZN3zyn10prng_stateE
ZynPhaser.so:_ZN3zyn11fast_strcpyEPcPKcm
ZynPhaser.so:_ZN3zyn11interpolateEPKfmf
ZynPhaser.so:_ZN3zyn11rtosc_splatEPKcSt3setINSt7__cxx1112basic_stringIcSt11char_traitsIcESaIcEEESt4lessIS8_ESaIS8_EE
ZynPhaser.so:_ZN3zyn12AnalogFilter12computeCoeffEiffiffRi
ZynPhaser.so:_ZN3zyn12AnalogFilter13setfreq_and_qEff
ZynPhaser.so:_ZN3zyn12AnalogFilter15singlefilteroutEPfRNS0_6fstageEfj
ZynPhaser.so:_ZN3zyn12AnalogFilter18computefiltercoefsEff
ZynPhaser.so:_ZN3zyn12AnalogFilter1HEf
ZynPhaser.so:_ZN3zyn12AnalogFilter4setqEf
ZynPhaser.so:_ZN3zyn12AnalogFilter7cleanupEv
ZynPhaser.so:_ZN3zyn12AnalogFilter7setfreqEf
ZynPhaser.so:_ZN3zyn12AnalogFilter7setgainEf
ZynPhaser.so:_ZN3zyn12AnalogFilter7settypeEi
ZynPhaser.so:_ZN3zyn12AnalogFilter9filteroutEPf
ZynPhaser.so:_ZN3zyn12AnalogFilter9setstagesEi
ZynPhaser.so:_ZN3zyn12AnalogFilterC1Ehffhji
ZynPhaser.so:_ZN3zyn12AnalogFilterC2Ehffhji
ZynPhaser.so:_ZN3zyn12AnalogFilterD0Ev
ZynPhaser.so:_ZN3zyn12AnalogFilterD1Ev
ZynPhaser.so:_ZN3zyn12AnalogFilterD2Ev
ZynPhaser.so:_ZN3zyn12EffectParamsC1ERNS_9AllocatorEbPfS3_hjiPNS_12FilterParamsEb
ZynPhaser.so:_ZN3zyn12EffectParamsC2ERNS_9AllocatorEbPfS3_hjiPNS_12FilterParamsEb
ZynPhaser.so:_ZN3zyn12FilterParams10getfromXMLERNS_10XMLwrapperE
ZynPhaser.so:_ZN3zyn12FilterParams10pasteArrayERS0_i
ZynPhaser.so:_ZN3zyn12FilterParams14add2XMLsectionERNS_10XMLwrapperEi
ZynPhaser.so:_ZN3zyn12FilterParams14baseqFromOldPqEi
ZynPhaser.so:_ZN3zyn12FilterParams16gainFromOldPgainEi
ZynPhaser.so:_ZN3zyn12FilterParams17getfromXMLsectionERNS_10XMLwrapperEi
ZynPhaser.so:_ZN3zyn12FilterParams19basefreqFromOldPreqEi
ZynPhaser.so:_ZN3zyn12FilterParams19getfromFilterParamsEPKS0_
ZynPhaser.so:_ZN3zyn12FilterParams5pasteERS0_
ZynPhaser.so:_ZN3zyn12FilterParams5portsE
ZynPhaser.so:_ZN3zyn12FilterParams5setupEv
ZynPhaser.so:_ZN3zyn12FilterParams7add2XMLERNS_10XMLwrapperE
ZynPhaser.so:_ZN3zyn12FilterParams8defaultsEi
ZynPhaser.so:_ZN3zyn12FilterParams8defaultsEv
ZynPhaser.so:_ZN3zyn12FilterParams9updateLocEi
ZynPhaser.so:_ZN3zyn12FilterParams9updateLocEii
ZynPhaser.so:_ZN3zyn12FilterParamsC1EPKNS_7AbsTimeE
ZynPhaser.so:_ZN3zyn12FilterParamsC1EhhhiPKNS_7AbsTimeE
ZynPhaser.so:_ZN3zyn12FilterParamsC1EiPKNS_7AbsTimeE
ZynPhaser.so:_ZN3zyn12FilterParamsC2EPKNS_7AbsTimeE
ZynPhaser.so:_ZN3zyn12FilterParamsC2EhhhiPKNS_7AbsTimeE
ZynPhaser.so:_ZN3zyn12FilterParamsC2EiPKNS_7AbsTimeE
ZynPhaser.so:_ZN3zyn12FilterParamsD0Ev
ZynPhaser.so:_ZN3zyn12FilterParamsD1Ev
ZynPhaser.so:_ZN3zyn12FilterParamsD2Ev
ZynPhaser.so:_ZN3zyn12PresetsArray13setpresettypeEPKc
ZynPhaser.so:_ZN3zyn12PresetsArray4copyERNS_12PresetsStoreEPKc
ZynPhaser.so:_ZN3zyn12PresetsArray4copyERNS_12PresetsStoreEiPKc
ZynPhaser.so:_ZN3zyn12PresetsArrayC1Ev
ZynPhaser.so:_ZN3zyn12PresetsArrayC2Ev
ZynPhaser.so:_ZN3zyn12PresetsArrayD0Ev
ZynPhaser.so:_ZN3zyn12PresetsArrayD1Ev
ZynPhaser.so:_ZN3zyn12PresetsArrayD2Ev
ZynPhaser.so:_ZN3zyn12PresetsStore10copypresetERNS_10XMLwrapperEPcNSt7__cxx1112basic_stringIcSt11char_traitsIcESaIcEEE
ZynPhaser.so:_ZN3zyn12PresetsStore11pastepresetERNS_10XMLwrapperEj
ZynPhaser.so:_ZN3zyn12PresetsStore12clearpresetsEv
ZynPhaser.so:_ZN3zyn12PresetsStore12deletepresetENSt7__cxx1112basic_stringIcSt11char_traitsIcESaIcEEE
ZynPhaser.so:_ZN3zyn12PresetsStore12deletepresetEj
ZynPhaser.so:_ZN3zyn12PresetsStore13copyclipboardERNS_10XMLwrapperEPc
ZynPhaser.so:_ZN3zyn12PresetsStore14pasteclipboardERNS_10XMLwrapperE
ZynPhaser.so:_ZN3zyn12PresetsStore14scanforpresetsEv
ZynPhaser.so:_ZN3zyn12PresetsStore18checkclipboardtypeEPKc
ZynPhaser.so:_ZN3zyn12PresetsStoreC1ERKNS_6ConfigE
ZynPhaser.so:_ZN3zyn12PresetsStoreC2ERKNS_6ConfigE
ZynPhaser.so:_ZN3zyn12PresetsStoreD1Ev
ZynPhaser.so:_ZN3zyn12PresetsStoreD2Ev
ZynPhaser.so:_ZN3zyn12cinterpolateEPKfmf
ZynPhaser.so:_ZN3zyn12set_realtimeEv
ZynPhaser.so:_ZN3zyn13FormantFilter13setfreq_and_qEff
ZynPhaser.so:_ZN3zyn13FormantFilter4setqEf
ZynPhaser.so:_ZN3zyn13FormantFilter6setposEf
ZynPhaser.so:_ZN3zyn13FormantFilter7cleanupEv
ZynPhaser.so:_ZN3zyn13FormantFilter7setfreqEf
ZynPhaser.so:_ZN3zyn13FormantFilter7setgainEf
ZynPhaser.so:_ZN3zyn13FormantFilter9filteroutEPf
ZynPhaser.so:_ZN3zyn13FormantFilterC1EPKNS_12FilterParamsEPNS_9AllocatorEji
ZynPhaser.so:_ZN3zyn13FormantFilterC2EPKNS_12FilterParamsEPNS_9AllocatorEji
ZynPhaser.so:_ZN3zyn13FormantFilterD0Ev
ZynPhaser.so:_ZN3zyn13FormantFilterD1Ev
ZynPhaser.so:_ZN3zyn13FormantFilterD2Ev
ZynPhaser.so:_ZN3zyn14AllocatorClass11dealloc_memEPv
ZynPhaser.so:_ZN3zyn14AllocatorClass9addMemoryEPvm
ZynPhaser.so:_ZN3zyn14AllocatorClass9alloc_memEm
ZynPhaser.so:_ZN3zyn15mxmlFindElementEPK12_mxml_node_sS2_PKcS4_S4_i
ZynPhaser.so:_ZN3zyn16legalizeFilenameENSt7__cxx1112basic_stringIcSt11char_traitsIcESaIcEEE
ZynPhaser.so:_ZN3zyn16trimLeadingWhiteEPKc
ZynPhaser.so:_ZN3zyn18mxmlElementGetAttrEPK12_mxml_node_sPKc
ZynPhaser.so:_ZN3zyn19os_guess_pid_lengthEv
ZynPhaser.so:_ZN3zyn23os_pid_as_padded_stringB5cxx11Ev
ZynPhaser.so:_ZN3zyn30XMLwrapper_whitespace_callbackEP12_mxml_node_si
ZynPhaser.so:_ZN3zyn4VelFEfh
ZynPhaser.so:_ZN3zyn4dataEPNS_6next_tE
ZynPhaser.so:_ZN3zyn5xml_kE
ZynPhaser.so:_ZN3zyn6Effect10setlrcrossEc
ZynPhaser.so:_ZN3zyn6Effect10setpanningEc
ZynPhaser.so:_ZN3zyn6Effect3outEPfS1_
ZynPhaser.so:_ZN3zyn6Effect9crossoverERfS1_f
ZynPhaser.so:_ZN3zyn6EffectC1ENS_12EffectParamsE
ZynPhaser.so:_ZN3zyn6EffectC2ENS_12EffectParamsE
ZynPhaser.so:_ZN3zyn6Filter11getrealfreqEf
ZynPhaser.so:_ZN3zyn6Filter8generateERNS_9AllocatorEPKNS_12FilterParamsEji
ZynPhaser.so:_ZN3zyn6FilterC1Eji
ZynPhaser.so:_ZN3zyn6FilterC2Eji
ZynPhaser.so:_ZN3zyn6Phaser10applyPhaseEffPf
ZynPhaser.so:_ZN3zyn6Phaser10applyPhaseEfffRfPfS2_
ZynPhaser.so:_ZN3zyn6Phaser11AnalogPhaseERKNS_6StereoIPfEE
ZynPhaser.so:_ZN3zyn6Phaser11normalPhaseERKNS_6StereoIPfEE
ZynPhaser.so:_ZN3zyn6Phaser12analog_setupEv
ZynPhaser.so:_ZN3zyn6Phaser12getpresetparEhj
ZynPhaser.so:_ZN3zyn6Phaser13setdistortionEh
ZynPhaser.so:_ZN3zyn6Phaser3outERKNS_6StereoIPfEE
ZynPhaser.so:_ZN3zyn6Phaser5portsE
ZynPhaser.so:_ZN3zyn6Phaser5setfbEh
ZynPhaser.so:_ZN3zyn6Phaser7cleanupEv
ZynPhaser.so:_ZN3zyn6Phaser8setdepthEh
ZynPhaser.so:_ZN3zyn6Phaser8setphaseEh
ZynPhaser.so:_ZN3zyn6Phaser8setwidthEh
ZynPhaser.so:_ZN3zyn6Phaser9changeparEih
ZynPhaser.so:_ZN3zyn6Phaser9setoffsetEh
ZynPhaser.so:_ZN3zyn6Phaser9setpresetEh
ZynPhaser.so:_ZN3zyn6Phaser9setstagesEh
ZynPhaser.so:_ZN3zyn6Phaser9setvolumeEh
ZynPhaser.so:_ZN3zyn6PhaserC1ENS_12EffectParamsE
ZynPhaser.so:_ZN3zyn6PhaserC2ENS_12EffectParamsE
ZynPhaser.so:_ZN3zyn6PhaserD0Ev
ZynPhaser.so:_ZN3zyn6PhaserD1Ev
ZynPhaser.so:_ZN3zyn6PhaserD2Ev
ZynPhaser.so:_ZN3zyn7Presets12deletepresetERNS_12PresetsStoreEi
ZynPhaser.so:_ZN3zyn7Presets13setpresettypeEPKc
ZynPhaser.so:_ZN3zyn7Presets18checkclipboardtypeERNS_12PresetsStoreE
ZynPhaser.so:_ZN3zyn7Presets4copyERNS_12PresetsStoreEPKc
ZynPhaser.so:_ZN3zyn7PresetsC1Ev
ZynPhaser.so:_ZN3zyn7PresetsC2Ev
ZynPhaser.so:_ZN3zyn7PresetsD0Ev
ZynPhaser.so:_ZN3zyn7PresetsD1Ev
ZynPhaser.so:_ZN3zyn7PresetsD2Ev
ZynPhaser.so:_ZN3zyn7SYNTH_T9numRandomEv
ZynPhaser.so:_ZN3zyn7XmlNode3hasENSt7__cxx1112basic_stringIcSt11char_traitsIcESaIcEEE
ZynPhaser.so:_ZN3zyn7XmlNodeC1ENSt7__cxx1112basic_stringIcSt11char_traitsIcESaIcEEE
ZynPhaser.so:_ZN3zyn7XmlNodeC2ENSt7__cxx1112basic_stringIcSt11char_traitsIcESaIcEEE
ZynPhaser.so:_ZN3zyn7XmlNodeixENSt7__cxx1112basic_stringIcSt11char_traitsIcESaIcEEE
ZynPhaser.so:_ZN3zyn7verboseE
ZynPhaser.so:_ZN3zyn8SVFilter13setfreq_and_qEff
ZynPhaser.so:_ZN3zyn8SVFilter15computeResponseEiffiff
ZynPhaser.so:_ZN3zyn8SVFilter15singlefilteroutEPfRNS0_6fstageERNS0_10parametersEi
ZynPhaser.so:_ZN3zyn8SVFilter18computefiltercoefsEv
ZynPhaser.so:_ZN3zyn8SVFilter19getfilteroutfortypeERNS0_6fstageE
ZynPhaser.so:_ZN3zyn8SVFilter4setqEf
ZynPhaser.so:_ZN3zyn8SVFilter7cleanupEv
ZynPhaser.so:_ZN3zyn8SVFilter7setfreqEf
ZynPhaser.so:_ZN3zyn8SVFilter7setgainEf
ZynPhaser.so:_ZN3zyn8SVFilter7settypeEi
ZynPhaser.so:_ZN3zyn8SVFilter8responseC1Effffff
ZynPhaser.so:_ZN3zyn8SVFilter8responseC2Effffff
ZynPhaser.so:_ZN3zyn8SVFilter9filteroutEPf
ZynPhaser.so:_ZN3zyn8SVFilter9setstagesEi
ZynPhaser.so:_ZN3zyn8SVFilterC1Ehffhji
ZynPhaser.so:_ZN3zyn8SVFilterC2Ehffhji
ZynPhaser.so:_ZN3zyn8SVFilterD0Ev
ZynPhaser.so:_ZN3zyn8SVFilterD1Ev
ZynPhaser.so:_ZN3zyn8SVFilterD2Ev
ZynPhaser.so:_ZN3zyn8isPluginE
ZynPhaser.so:_ZN3zyn9Allocator14endTransactionEv
ZynPhaser.so:_ZN3zyn9Allocator16beginTransactionEv
ZynPhaser.so:_ZN3zyn9Allocator19rollbackTransactionEv
ZynPhaser.so:_ZN3zyn9AllocatorC1Ev
ZynPhaser.so:_ZN3zyn9AllocatorC2Ev
ZynPhaser.so:_ZN3zyn9AllocatorD0Ev
ZynPhaser.so:_ZN3zyn9AllocatorD1Ev
ZynPhaser.so:_ZN3zyn9AllocatorD2Ev
ZynPhaser.so:_ZN3zyn9EffectLFO11getlfoshapeEf
ZynPhaser.so:_ZN3zyn9EffectLFO12effectlfooutEPfS1_
ZynPhaser.so:_ZN3zyn9EffectLFO12updateparamsEv
ZynPhaser.so:_ZN3zyn9EffectLFOC1Eff
ZynPhaser.so:_ZN3zyn9EffectLFOC2Eff
ZynPhaser.so:_ZN3zyn9EffectLFOD1Ev
ZynPhaser.so:_ZN3zyn9EffectLFOD2Ev
ZynPhaser.so:_ZN3zyn9getdetuneEhtt
ZynPhaser.so:_ZN3zyn9invSignalEPfm
ZynPhaser.so:_ZN3zyn9os_usleepEl
ZynPhaser.so:_ZN3zynlsERSoRKNS_12version_typeE
ZynPhaser.so:_ZN5rtosc10ClonePortsC1ERKNS_5PortsESt16initializer_listINS_9ClonePortEE
ZynPhaser.so:_ZN5rtosc10ClonePortsC2ERKNS_5PortsESt16initializer_listINS_9ClonePortEE
ZynPhaser.so:_ZN5rtosc10MergePortsC1ESt16initializer_listIPKNS_5PortsEE
ZynPhaser.so:_ZN5rtosc10MergePortsC2ESt16initializer_listIPKNS_5PortsEE
ZynPhaser.so:_ZN5rtosc10walk_portsEPKNS_5PortsEPcmPvPFvPKNS_4PortEPKcS9_RS1_S4_S4_EbS4_b
ZynPhaser.so:_ZN5rtosc11path_searchERKNS_5PortsEPKcS4_PcmP11rtosc_arg_tmNS_16path_search_optsEb
ZynPhaser.so:_ZN5rtosc11path_searchERKNS_5PortsEPKcmPcmNS_16path_search_optsEb
ZynPhaser.so:_ZN5rtosc12map_arg_valsEP15rtosc_arg_val_tmNS_4Port13MetaContainerE
ZynPhaser.so:_ZN5rtosc17enum_key_from_msgENS_4Port13MetaContainerEPKc
ZynPhaser.so:_ZN5rtosc21canonicalize_arg_valsEP15rtosc_arg_val_tmPKcNS_4Port13MetaContainerE
ZynPhaser.so:_ZN5rtosc4Port12MetaIteratorC1EPKc
ZynPhaser.so:_ZN5rtosc4Port12MetaIteratorC2EPKc
ZynPhaser.so:_ZN5rtosc4Port12MetaIteratorppEv
ZynPhaser.so:_ZN5rtosc4Port13MetaContainerC1EPKc
ZynPhaser.so:_ZN5rtosc4Port13MetaContainerC2EPKc
ZynPhaser.so:_ZN5rtosc5Ports12collapsePathEPc
ZynPhaser.so:_ZN5rtosc5Ports12refreshMagicEv
ZynPhaser.so:_ZN5rtosc5PortsC1ESt16initializer_listINS_4PortEE
ZynPhaser.so:_ZN5rtosc5PortsC2ESt16initializer_listINS_4PortEE
ZynPhaser.so:_ZN5rtosc5PortsD1Ev
ZynPhaser.so:_ZN5rtosc5PortsD2Ev
ZynPhaser.so:_ZN5rtosc6RtData10chainArrayEPKcS2_P11rtosc_arg_t
ZynPhaser.so:_ZN5rtosc6RtData10push_indexEi
ZynPhaser.so:_ZN5rtosc6RtData10replyArrayEPKcS2_P11rtosc_arg_t
ZynPhaser.so:_ZN5rtosc6RtData14broadcastArrayEPKcS2_P11rtosc_arg_t
ZynPhaser.so:_ZN5rtosc6RtData5chainEPKc
ZynPhaser.so:_ZN5rtosc6RtData5chainEPKcS2_z
ZynPhaser.so:_ZN5rtosc6RtData5replyEPKc
ZynPhaser.so:_ZN5rtosc6RtData5replyEPKcS2_z
ZynPhaser.so:_ZN5rtosc6RtData7forwardEPKc
ZynPhaser.so:_ZN5rtosc6RtData9broadcastEPKc
ZynPhaser.so:_ZN5rtosc6RtData9broadcastEPKcS2_z
ZynPhaser.so:_ZN5rtosc6RtData9pop_indexEv
ZynPhaser.so:_ZN5rtosc6RtDataC1Ev
ZynPhaser.so:_ZN5rtosc6RtDataC2Ev
ZynPhaser.so:_ZN5rtosc7helpers22get_value_from_runtimeEPvRKNS_4PortEmPcPKcmmP15rtosc_arg_val_tPSt6vectorISA_IcSaIcEESaISC_EE
ZynPhaser.so:_ZN5rtosc7helpers22get_value_from_runtimeEPvRKNS_5PortsEmPcS5_mi
ZynPhaser.so:_ZN5rtosc8enum_keyENS_4Port13MetaContainerEPKc
ZynPhaser.so:_ZN5rtosclsERSoRNS_15OscDocFormatterE
ZynPhaser.so:_ZN7DISTRHO12createPluginEv
ZynPhaser.so:_ZN7DISTRHO14PluginExporter15sFallbackRangesE
ZynPhaser.so:_ZN7DISTRHO14PluginExporter15sFallbackStringE
ZynPhaser.so:_ZN7DISTRHO14PluginExporter18sFallbackAudioPortE
ZynPhaser.so:_ZN7DISTRHO14PluginExporter18sFallbackPortGroupE
ZynPhaser.so:_ZN7DISTRHO14PluginExporter19sFallbackEnumValuesE
ZynPhaser.so:_ZN7DISTRHO14snprintf_paramEPcfm
ZynPhaser.so:_ZN7DISTRHO15snprintf_iparamEPcim
ZynPhaser.so:_ZN7DISTRHO16d_lastBufferSizeE
ZynPhaser.so:_ZN7DISTRHO16d_lastSampleRateE
ZynPhaser.so:_ZN7DISTRHO37d_lastCanRequestParameterValueChangesE
ZynPhaser.so:_ZN7DISTRHO6Plugin13initAudioPortEbjRNS_9AudioPortE
ZynPhaser.so:_ZN7DISTRHO6Plugin13initPortGroupEjRNS_9PortGroupE
ZynPhaser.so:_ZN7DISTRHO6Plugin17bufferSizeChangedEj
ZynPhaser.so:_ZN7DISTRHO6Plugin17sampleRateChangedEd
ZynPhaser.so:_ZN7DISTRHO6PluginC1Ejjj
ZynPhaser.so:_ZN7DISTRHO6PluginC2Ejjj
ZynPhaser.so:_ZN7DISTRHO6PluginD0Ev
ZynPhaser.so:_ZN7DISTRHO6PluginD1Ev
ZynPhaser.so:_ZN7DISTRHO6PluginD2Ev
ZynPhaser.so:_ZN7DISTRHO7strncpyEPcPKcm
ZynPhaser.so:_ZNK3zyn10XMLwrapper10doloadfileERKNSt7__cxx1112basic_stringIcSt11char_traitsIcESaIcEEE
ZynPhaser.so:_ZNK3zyn10XMLwrapper10dosavefileEPKciS2_
ZynPhaser.so:_ZNK3zyn10XMLwrapper10getXMLdataEv
ZynPhaser.so:_ZNK3zyn10XMLwrapper10getparboolERKNSt7__cxx1112basic_stringIcSt11char_traitsIcESaIcEEEi
ZynPhaser.so:_ZNK3zyn10XMLwrapper10getparrealEPKcf
ZynPhaser.so:_ZNK3zyn10XMLwrapper10getparrealEPKcfff
ZynPhaser.so:_ZNK3zyn10XMLwrapper10hasparrealEPKc
ZynPhaser.so:_ZNK3zyn10XMLwrapper11getbranchidEii
ZynPhaser.so:_ZNK3zyn10XMLwrapper11hasPadSynthEv
ZynPhaser.so:_ZNK3zyn10XMLwrapper11saveXMLfileERKNSt7__cxx1112basic_stringIcSt11char_traitsIcESaIcEEEi
ZynPhaser.so:_ZNK3zyn10XMLwrapper6getparERKNSt7__cxx1112basic_stringIcSt11char_traitsIcESaIcEEEiii
ZynPhaser.so:_ZNK3zyn10XMLwrapper9addparamsEPKcjz
ZynPhaser.so:_ZNK3zyn10XMLwrapper9getBranchEv
ZynPhaser.so:_ZNK3zyn10XMLwrapper9getpar127ERKNSt7__cxx1112basic_stringIcSt11char_traitsIcESaIcEEEi
ZynPhaser.so:_ZNK3zyn10XMLwrapper9getparstrERKNSt7__cxx1112basic_stringIcSt11char_traitsIcESaIcEEEPci
ZynPhaser.so:_ZNK3zyn10XMLwrapper9getparstrERKNSt7__cxx1112basic_stringIcSt11char_traitsIcESaIcEEES8_
ZynPhaser.so:_ZNK3zyn12FilterParams10getfreqposEf
ZynPhaser.so:_ZNK3zyn12FilterParams11getformantqEh
ZynPhaser.so:_ZNK3zyn12FilterParams13getcenterfreqEv
ZynPhaser.so:_ZNK3zyn12FilterParams13getformantampEh
ZynPhaser.so:_ZNK3zyn12FilterParams14getformantfreqEh
ZynPhaser.so:_ZNK3zyn12FilterParams14getoctavesfreqEv
ZynPhaser.so:_ZNK3zyn12FilterParams15getfreqtrackingEf
ZynPhaser.so:_ZNK3zyn12FilterParams4getqEv
ZynPhaser.so:_ZNK3zyn12FilterParams7getfreqEv
ZynPhaser.so:_ZNK3zyn12FilterParams7getgainEv
ZynPhaser.so:_ZNK3zyn12FilterParams8getfreqxEf
ZynPhaser.so:_ZNK3zyn12PresetsStore12presetstructltERKS1_
ZynPhaser.so:_ZNK3zyn14AllocatorClass9lowMemoryEjm
ZynPhaser.so:_ZNK3zyn6Phaser6getparEi
ZynPhaser.so:_ZNK3zyn9Allocator12totalAllocedEv
ZynPhaser.so:_ZNK3zyn9Allocator7memFreeEPv
ZynPhaser.so:_ZNK3zyn9Allocator8memPoolsEv
ZynPhaser.so:_ZNK3zyn9Allocator9freePoolsEv
ZynPhaser.so:_ZNK5rtosc4Port12MetaIteratorcvbEv
ZynPhaser.so:_ZNK5rtosc4Port13MetaContainer3endEv
ZynPhaser.so:_ZNK5rtosc4Port13MetaContainer4findEPKc
ZynPhaser.so:_ZNK5rtosc4Port13MetaContainer5beginEv
ZynPhaser.so:_ZNK5rtosc4Port13MetaContainer6lengthEv
ZynPhaser.so:_ZNK5rtosc4Port13MetaContainerixEPKc
ZynPhaser.so:_ZNK5rtosc5Ports7aproposEPKc
ZynPhaser.so:_ZNK5rtosc5Ports8dispatchEPKcRNS_6RtDataEb
ZynPhaser.so:_ZNK5rtosc5PortsixEPKc
ZynPhaser.so:_ZNK7DISTRHO6Plugin13getBufferSizeEv
ZynPhaser.so:_ZNK7DISTRHO6Plugin13getSampleRateEv
ZynPhaser.so:advance_path
ZynPhaser.so:arraytypes_match
ZynPhaser.so:chunk_path
ZynPhaser.so:delta_from_arg_vals
ZynPhaser.so:fast_strcpy
ZynPhaser.so:get_default_cmp_options
ZynPhaser.so:lv2_descriptor
ZynPhaser.so:lv2_generate_ttl
ZynPhaser.so:main
ZynPhaser.so:parse_identifier
ZynPhaser.so:range_min
ZynPhaser.so:rtosc_amessage
ZynPhaser.so:rtosc_arg_arr_len
ZynPhaser.so:rtosc_arg_arr_len_set
ZynPhaser.so:rtosc_arg_arr_type
ZynPhaser.so:rtosc_arg_arr_type_set
ZynPhaser.so:rtosc_arg_rep_has_delta
ZynPhaser.so:rtosc_arg_rep_has_delta_set
ZynPhaser.so:rtosc_arg_rep_num
ZynPhaser.so:rtosc_arg_rep_num_set
ZynPhaser.so:rtosc_arg_val_add
ZynPhaser.so:rtosc_arg_val_current_time
ZynPhaser.so:rtosc_arg_val_div
ZynPhaser.so:rtosc_arg_val_from_double
ZynPhaser.so:rtosc_arg_val_from_int
ZynPhaser.so:rtosc_arg_val_from_params
ZynPhaser.so:rtosc_arg_val_from_time_t
ZynPhaser.so:rtosc_arg_val_immediatelly
ZynPhaser.so:rtosc_arg_val_is_immediatelly
ZynPhaser.so:rtosc_arg_val_itr_get
ZynPhaser.so:rtosc_arg_val_itr_init
ZynPhaser.so:rtosc_arg_val_itr_next
ZynPhaser.so:rtosc_arg_val_mult
ZynPhaser.so:rtosc_arg_val_negate
ZynPhaser.so:rtosc_arg_val_null
ZynPhaser.so:rtosc_arg_val_range_arg
ZynPhaser.so:rtosc_arg_val_round
ZynPhaser.so:rtosc_arg_val_sub
ZynPhaser.so:rtosc_arg_val_to_int
ZynPhaser.so:rtosc_arg_vals_cmp
ZynPhaser.so:rtosc_arg_vals_cmp_has_next
ZynPhaser.so:rtosc_arg_vals_cmp_single
ZynPhaser.so:rtosc_arg_vals_eq
ZynPhaser.so:rtosc_arg_vals_eq_after_abort
ZynPhaser.so:rtosc_arg_vals_eq_single
ZynPhaser.so:rtosc_argument
ZynPhaser.so:rtosc_argument_string
ZynPhaser.so:rtosc_av_arr_len
ZynPhaser.so:rtosc_av_arr_len_set
ZynPhaser.so:rtosc_av_arr_type
ZynPhaser.so:rtosc_av_arr_type_set
ZynPhaser.so:rtosc_av_rep_has_delta
ZynPhaser.so:rtosc_av_rep_has_delta_set
ZynPhaser.so:rtosc_av_rep_num
ZynPhaser.so:rtosc_av_rep_num_set
ZynPhaser.so:rtosc_bundle
ZynPhaser.so:rtosc_bundle_elements
ZynPhaser.so:rtosc_bundle_fetch
ZynPhaser.so:rtosc_bundle_p
ZynPhaser.so:rtosc_bundle_size
ZynPhaser.so:rtosc_bundle_timetag
ZynPhaser.so:rtosc_count_printed_arg_vals
ZynPhaser.so:rtosc_count_printed_arg_vals_of_msg
ZynPhaser.so:rtosc_float2secfracs
ZynPhaser.so:rtosc_itr_begin
ZynPhaser.so:rtosc_itr_end
ZynPhaser.so:rtosc_itr_next
ZynPhaser.so:rtosc_match
ZynPhaser.so:rtosc_match_full_path
ZynPhaser.so:rtosc_match_options
ZynPhaser.so:rtosc_match_partial
ZynPhaser.so:rtosc_match_path
ZynPhaser.so:rtosc_matchable_path
ZynPhaser.so:rtosc_message
ZynPhaser.so:rtosc_message_length
ZynPhaser.so:rtosc_message_ring_length
ZynPhaser.so:rtosc_narguments
ZynPhaser.so:rtosc_params_from_arg_val
ZynPhaser.so:rtosc_print_arg_val
ZynPhaser.so:rtosc_print_arg_vals
ZynPhaser.so:rtosc_print_message
ZynPhaser.so:rtosc_scan_arg_val
ZynPhaser.so:rtosc_scan_arg_vals
ZynPhaser.so:rtosc_scan_message
ZynPhaser.so:rtosc_secfracs2float
ZynPhaser.so:rtosc_secfracs_from_arg_val
ZynPhaser.so:rtosc_skip_next_printed_arg
ZynPhaser.so:rtosc_subpath_pat_type
ZynPhaser.so:rtosc_time_t_from_arg_val
ZynPhaser.so:rtosc_type
ZynPhaser.so:rtosc_v2argvals
ZynPhaser.so:rtosc_valid_message_p
ZynPhaser.so:rtosc_vmessage
ZynPhaser.so:tlsf_add_pool
ZynPhaser.so:tlsf_align_size
ZynPhaser.so:tlsf_alloc_overhead
ZynPhaser.so:tlsf_block_size
ZynPhaser.so:tlsf_block_size_max
ZynPhaser.so:tlsf_block_size_min
ZynPhaser.so:tlsf_check
ZynPhaser.so:tlsf_check_pool
ZynPhaser.so:tlsf_create
ZynPhaser.so:tlsf_create_with_pool
ZynPhaser.so:tlsf_destroy
ZynPhaser.so:tlsf_free
ZynPhaser.so:tlsf_get_pool
ZynPhaser.so:tlsf_malloc
ZynPhaser.so:tlsf_memalign
ZynPhaser.so:tlsf_pool_overhead
ZynPhaser.so:tlsf_realloc
ZynPhaser.so:tlsf_remove_pool
ZynPhaser.so:tlsf_size
ZynPhaser.so:tlsf_walk_pool
ZynPhaser.so:types_match
ZynReverb.so:_Z15port_is_enabledPKN5rtosc4PortEPcmRKNS_5PortsEPvbPFvS2_PKcS9_S6_S7_S7_ES7_
ZynReverb.so:_Z20metaiterator_advanceRPKcS1_
ZynReverb.so:_Z7do_hashRKSt6vectorINSt7__cxx1112basic_stringIcSt11char_traitsIcESaIcEEESaIS5_EERKS_IiSaIiEE
ZynReverb.so:_ZN22Value_Smoothing_Filter11sample_rateEm
ZynReverb.so:_ZN22Value_Smoothing_Filter5applyEPfmf
ZynReverb.so:_ZN3zyn10CombFilter13setfreq_and_qEff
ZynReverb.so:_ZN3zyn10CombFilter4setqEf
ZynReverb.so:_ZN3zyn10CombFilter7setfreqEf
ZynReverb.so:_ZN3zyn10CombFilter7setgainEf
ZynReverb.so:_ZN3zyn10CombFilter7settypeEh
ZynReverb.so:_ZN3zyn10CombFilter9filteroutEPf
ZynReverb.so:_ZN3zyn10CombFilterC1EPNS_9AllocatorEhffji
ZynReverb.so:_ZN3zyn10CombFilterC2EPNS_9AllocatorEhffji
ZynReverb.so:_ZN3zyn10CombFilterD0Ev
ZynReverb.so:_ZN3zyn10CombFilterD1Ev
ZynReverb.so:_ZN3zyn10CombFilterD2Ev
ZynReverb.so:_ZN3zyn10DummyAllocE
ZynReverb.so:_ZN3zyn10MoogFilter13setfreq_and_qEff
ZynReverb.so:_ZN3zyn10MoogFilter4setqEf
ZynReverb.so:_ZN3zyn10MoogFilter7setfreqEf
ZynReverb.so:_ZN3zyn10MoogFilter7setgainEf
ZynReverb.so:_ZN3zyn10MoogFilter7settypeEh
ZynReverb.so:_ZN3zyn10MoogFilter9filteroutEPf
ZynReverb.so:_ZN3zyn10MoogFilterC1Ehffji
ZynReverb.so:_ZN3zyn10MoogFilterC2Ehffji
ZynReverb.so:_ZN3zyn10MoogFilterD0Ev
ZynReverb.so:_ZN3zyn10MoogFilterD1Ev
ZynReverb.so:_ZN3zyn10MoogFilterD2Ev
ZynReverb.so:_ZN3zyn10XMLwrapper10addparboolERKNSt7__cxx1112basic_stringIcSt11char_traitsIcESaIcEEEi
ZynReverb.so:_ZN3zyn10XMLwrapper10addparrealERKNSt7__cxx1112basic_stringIcSt11char_traitsIcESaIcEEEf
ZynReverb.so:_ZN3zyn10XMLwrapper10exitbranchEv
ZynReverb.so:_ZN3zyn10XMLwrapper10putXMLdataEPKc
ZynReverb.so:_ZN3zyn10XMLwrapper11beginbranchERKNSt7__cxx1112basic_stringIcSt11char_traitsIcESaIcEEE
ZynReverb.so:_ZN3zyn10XMLwrapper11beginbranchERKNSt7__cxx1112basic_stringIcSt11char_traitsIcESaIcEEEi
ZynReverb.so:_ZN3zyn10XMLwrapper11enterbranchERKNSt7__cxx1112basic_stringIcSt11char_traitsIcESaIcEEE
ZynReverb.so:_ZN3zyn10XMLwrapper11enterbranchERKNSt7__cxx1112basic_stringIcSt11char_traitsIcESaIcEEEi
ZynReverb.so:_ZN3zyn10XMLwrapper11loadXMLfileERKNSt7__cxx1112basic_stringIcSt11char_traitsIcESaIcEEE
ZynReverb.so:_ZN3zyn10XMLwrapper11setPadSynthEb
ZynReverb.so:_ZN3zyn10XMLwrapper3addERKNS_7XmlNodeE
ZynReverb.so:_ZN3zyn10XMLwrapper6addparERKNSt7__cxx1112basic_stringIcSt11char_traitsIcESaIcEEEi
ZynReverb.so:_ZN3zyn10XMLwrapper7cleanupEv
ZynReverb.so:_ZN3zyn10XMLwrapper9addparstrERKNSt7__cxx1112basic_stringIcSt11char_traitsIcESaIcEEES8_
ZynReverb.so:_ZN3zyn10XMLwrapper9endbranchEv
ZynReverb.so:_ZN3zyn10XMLwrapperC1Ev
ZynReverb.so:_ZN3zyn10XMLwrapperC2Ev
ZynReverb.so:_ZN3zyn10XMLwrapperD1Ev
ZynReverb.so:_ZN3zyn10XMLwrapperD2Ev
ZynReverb.so:_ZN3zyn10fileexistsEPKc
ZynReverb.so:_ZN3zyn10prng_stateE
ZynReverb.so:_ZN3zyn11fast_strcpyEPcPKcm
ZynReverb.so:_ZN3zyn11interpolateEPKfmf
ZynReverb.so:_ZN3zyn11rtosc_splatEPKcSt3setINSt7__cxx1112basic_stringIcSt11char_traitsIcESaIcEEESt4lessIS8_ESaIS8_EE
ZynReverb.so:_ZN3zyn12AnalogFilter12computeCoeffEiffiffRi
ZynReverb.so:_ZN3zyn12AnalogFilter13setfreq_and_qEff
ZynReverb.so:_ZN3zyn12AnalogFilter15singlefilteroutEPfRNS0_6fstageEfj
ZynReverb.so:_ZN3zyn12AnalogFilter18computefiltercoefsEff
ZynReverb.so:_ZN3zyn12AnalogFilter1HEf
ZynReverb.so:_ZN3zyn12AnalogFilter4setqEf
ZynReverb.so:_ZN3zyn12AnalogFilter7cleanupEv
ZynReverb.so:_ZN3zyn12AnalogFilter7setfreqEf
ZynReverb.so:_ZN3zyn12AnalogFilter7setgainEf
ZynReverb.so:_ZN3zyn12AnalogFilter7settypeEi
ZynReverb.so:_ZN3zyn12AnalogFilter9filteroutEPf
ZynReverb.so:_ZN3zyn12AnalogFilter9setstagesEi
ZynReverb.so:_ZN3zyn12AnalogFilterC1Ehffhji
ZynReverb.so:_ZN3zyn12AnalogFilterC2Ehffhji
ZynReverb.so:_ZN3zyn12AnalogFilterD0Ev
ZynReverb.so:_ZN3zyn12AnalogFilterD1Ev
ZynReverb.so:_ZN3zyn12AnalogFilterD2Ev
ZynReverb.so:_ZN3zyn12EffectParamsC1ERNS_9AllocatorEbPfS3_hjiPNS_12FilterParamsEb
ZynReverb.so:_ZN3zyn12EffectParamsC2ERNS_9AllocatorEbPfS3_hjiPNS_12FilterParamsEb
ZynReverb.so:_ZN3zyn12FilterParams10getfromXMLERNS_10XMLwrapperE
ZynReverb.so:_ZN3zyn12FilterParams10pasteArrayERS0_i
ZynReverb.so:_ZN3zyn12FilterParams14add2XMLsectionERNS_10XMLwrapperEi
ZynReverb.so:_ZN3zyn12FilterParams14baseqFromOldPqEi
ZynReverb.so:_ZN3zyn12FilterParams16gainFromOldPgainEi
ZynReverb.so:_ZN3zyn12FilterParams17getfromXMLsectionERNS_10XMLwrapperEi
ZynReverb.so:_ZN3zyn12FilterParams19basefreqFromOldPreqEi
ZynReverb.so:_ZN3zyn12FilterParams19getfromFilterParamsEPKS0_
ZynReverb.so:_ZN3zyn12FilterParams5pasteERS0_
ZynReverb.so:_ZN3zyn12FilterParams5portsE
ZynReverb.so:_ZN3zyn12FilterParams5setupEv
ZynReverb.so:_ZN3zyn12FilterParams7add2XMLERNS_10XMLwrapperE
ZynReverb.so:_ZN3zyn12FilterParams8defaultsEi
ZynReverb.so:_ZN3zyn12FilterParams8defaultsEv
ZynReverb.so:_ZN3zyn12FilterParams9updateLocEi
ZynReverb.so:_ZN3zyn12FilterParams9updateLocEii
ZynReverb.so:_ZN3zyn12FilterParamsC1EPKNS_7AbsTimeE
ZynReverb.so:_ZN3zyn12FilterParamsC1EhhhiPKNS_7AbsTimeE
ZynReverb.so:_ZN3zyn12FilterParamsC1EiPKNS_7AbsTimeE
ZynReverb.so:_ZN3zyn12FilterParamsC2EPKNS_7AbsTimeE
ZynReverb.so:_ZN3zyn12FilterParamsC2EhhhiPKNS_7AbsTimeE
ZynReverb.so:_ZN3zyn12FilterParamsC2EiPKNS_7AbsTimeE
ZynReverb.so:_ZN3zyn12FilterParamsD0Ev
ZynReverb.so:_ZN3zyn12FilterParamsD1Ev
ZynReverb.so:_ZN3zyn12FilterParamsD2Ev
ZynReverb.so:_ZN3zyn12PresetsArray13setpresettypeEPKc
ZynReverb.so:_ZN3zyn12PresetsArray4copyERNS_12PresetsStoreEPKc
ZynReverb.so:_ZN3zyn12PresetsArray4copyERNS_12PresetsStoreEiPKc
ZynReverb.so:_ZN3zyn12PresetsArrayC1Ev
ZynReverb.so:_ZN3zyn12PresetsArrayC2Ev
ZynReverb.so:_ZN3zyn12PresetsArrayD0Ev
ZynReverb.so:_ZN3zyn12PresetsArrayD1Ev
ZynReverb.so:_ZN3zyn12PresetsArrayD2Ev
ZynReverb.so:_ZN3zyn12PresetsStore10copypresetERNS_10XMLwrapperEPcNSt7__cxx1112basic_stringIcSt11char_traitsIcESaIcEEE
ZynReverb.so:_ZN3zyn12PresetsStore11pastepresetERNS_10XMLwrapperEj
ZynReverb.so:_ZN3zyn12PresetsStore12clearpresetsEv
ZynReverb.so:_ZN3zyn12PresetsStore12deletepresetENSt7__cxx1112basic_stringIcSt11char_traitsIcESaIcEEE
ZynReverb.so:_ZN3zyn12PresetsStore12deletepresetEj
ZynReverb.so:_ZN3zyn12PresetsStore13copyclipboardERNS_10XMLwrapperEPc
ZynReverb.so:_ZN3zyn12PresetsStore14pasteclipboardERNS_10XMLwrapperE
ZynReverb.so:_ZN3zyn12PresetsStore14scanforpresetsEv
ZynReverb.so:_ZN3zyn12PresetsStore18checkclipboardtypeEPKc
ZynReverb.so:_ZN3zyn12PresetsStoreC1ERKNS_6ConfigE
ZynReverb.so:_ZN3zyn12PresetsStoreC2ERKNS_6ConfigE
ZynReverb.so:_ZN3zyn12PresetsStoreD1Ev
ZynReverb.so:_ZN3zyn12PresetsStoreD2Ev
ZynReverb.so:_ZN3zyn12cinterpolateEPKfmf
ZynReverb.so:_ZN3zyn12set_realtimeEv
ZynReverb.so:_ZN3zyn13FormantFilter13setfreq_and_qEff
ZynReverb.so:_ZN3zyn13FormantFilter4setqEf
ZynReverb.so:_ZN3zyn13FormantFilter6setposEf
ZynReverb.so:_ZN3zyn13FormantFilter7cleanupEv
ZynReverb.so:_ZN3zyn13FormantFilter7setfreqEf
ZynReverb.so:_ZN3zyn13FormantFilter7setgainEf
ZynReverb.so:_ZN3zyn13FormantFilter9filteroutEPf
ZynReverb.so:_ZN3zyn13FormantFilterC1EPKNS_12FilterParamsEPNS_9AllocatorEji
ZynReverb.so:_ZN3zyn13FormantFilterC2EPKNS_12FilterParamsEPNS_9AllocatorEji
ZynReverb.so:_ZN3zyn13FormantFilterD0Ev
ZynReverb.so:_ZN3zyn13FormantFilterD1Ev
ZynReverb.so:_ZN3zyn13FormantFilterD2Ev
ZynReverb.so:_ZN3zyn14AllocatorClass11dealloc_memEPv
ZynReverb.so:_ZN3zyn14AllocatorClass9addMemoryEPvm
ZynReverb.so:_ZN3zyn14AllocatorClass9alloc_memEm
ZynReverb.so:_ZN3zyn15mxmlFindElementEPK12_mxml_node_sS2_PKcS4_S4_i
ZynReverb.so:_ZN3zyn16legalizeFilenameENSt7__cxx1112basic_stringIcSt11char_traitsIcESaIcEEE
ZynReverb.so:_ZN3zyn16trimLeadingWhiteEPKc
ZynReverb.so:_ZN3zyn18mxmlElementGetAttrEPK12_mxml_node_sPKc
ZynReverb.so:_ZN3zyn19os_guess_pid_lengthEv
ZynReverb.so:_ZN3zyn23os_pid_as_padded_stringB5cxx11Ev
ZynReverb.so:_ZN3zyn30XMLwrapper_whitespace_callbackEP12_mxml_node_si
ZynReverb.so:_ZN3zyn4VelFEfh
ZynReverb.so:_ZN3zyn4dataEPNS_6next_tE
ZynReverb.so:_ZN3zyn5xml_kE
ZynReverb.so:_ZN3zyn6Effect10setlrcrossEc
ZynReverb.so:_ZN3zyn6Effect10setpanningEc
ZynReverb.so:_ZN3zyn6Effect3outEPfS1_
ZynReverb.so:_ZN3zyn6Effect9crossoverERfS1_f
ZynReverb.so:_ZN3zyn6EffectC1ENS_12EffectParamsE
ZynReverb.so:_ZN3zyn6EffectC2ENS_12EffectParamsE
ZynReverb.so:_ZN3zyn6Filter11getrealfreqEf
ZynReverb.so:_ZN3zyn6Filter8generateERNS_9AllocatorEPKNS_12FilterParamsEji
ZynReverb.so:_ZN3zyn6FilterC1Eji
ZynReverb.so:_ZN3zyn6FilterC2Eji
ZynReverb.so:_ZN3zyn6Reverb11processmonoEiPfS1_
ZynReverb.so:_ZN3zyn6Reverb11setidelayfbEh
ZynReverb.so:_ZN3zyn6Reverb11setlohidampEh
ZynReverb.so:_ZN3zyn6Reverb11setroomsizeEh
ZynReverb.so:_ZN3zyn6Reverb12getpresetparEhj
ZynReverb.so:_ZN3zyn6Reverb12setbandwidthEh
ZynReverb.so:_ZN3zyn6Reverb3outERKNS_6StereoIPfEE
ZynReverb.so:_ZN3zyn6Reverb5portsE
ZynReverb.so:_ZN3zyn6Reverb6sethpfEh
ZynReverb.so:_ZN3zyn6Reverb6setlpfEh
ZynReverb.so:_ZN3zyn6Reverb7cleanupEv
ZynReverb.so:_ZN3zyn6Reverb7settimeEh
ZynReverb.so:_ZN3zyn6Reverb7settypeEh
ZynReverb.so:_ZN3zyn6Reverb9changeparEih
ZynReverb.so:_ZN3zyn6Reverb9setidelayEh
ZynReverb.so:_ZN3zyn6Reverb9setpresetEh
ZynReverb.so:_ZN3zyn6Reverb9setvolumeEh
ZynReverb.so:_ZN3zyn6ReverbC1ENS_12EffectParamsE
ZynReverb.so:_ZN3zyn6ReverbC2ENS_12EffectParamsE
ZynReverb.so:_ZN3zyn6ReverbD0Ev
ZynReverb.so:_ZN3zyn6ReverbD1Ev
ZynReverb.so:_ZN3zyn6ReverbD2Ev
ZynReverb.so:_ZN3zyn6Unison12setBandwidthEf
ZynReverb.so:_ZN3zyn6Unison16setBaseFrequencyEf
ZynReverb.so:_ZN3zyn6Unison16updateParametersEv
ZynReverb.so:_ZN3zyn6Unison16updateUnisonDataEv
ZynReverb.so:_ZN3zyn6Unison7processEiPfS1_
ZynReverb.so:_ZN3zyn6Unison7setSizeEi
ZynReverb.so:_ZN3zyn6UnisonC1EPNS_9AllocatorEiff
ZynReverb.so:_ZN3zyn6UnisonC2EPNS_9AllocatorEiff
ZynReverb.so:_ZN3zyn6UnisonD1Ev
ZynReverb.so:_ZN3zyn6UnisonD2Ev
ZynReverb.so:_ZN3zyn7Presets12deletepresetERNS_12PresetsStoreEi
ZynReverb.so:_ZN3zyn7Presets13setpresettypeEPKc
ZynReverb.so:_ZN3zyn7Presets18checkclipboardtypeERNS_12PresetsStoreE
ZynReverb.so:_ZN3zyn7Presets4copyERNS_12PresetsStoreEPKc
ZynReverb.so:_ZN3zyn7PresetsC1Ev
ZynReverb.so:_ZN3zyn7PresetsC2Ev
ZynReverb.so:_ZN3zyn7PresetsD0Ev
ZynReverb.so:_ZN3zyn7PresetsD1Ev
ZynReverb.so:_ZN3zyn7PresetsD2Ev
ZynReverb.so:_ZN3zyn7SYNTH_T9numRandomEv
ZynReverb.so:_ZN3zyn7XmlNode3hasENSt7__cxx1112basic_stringIcSt11char_traitsIcESaIcEEE
ZynReverb.so:_ZN3zyn7XmlNodeC1ENSt7__cxx1112basic_stringIcSt11char_traitsIcESaIcEEE
ZynReverb.so:_ZN3zyn7XmlNodeC2ENSt7__cxx1112basic_stringIcSt11char_traitsIcESaIcEEE
ZynReverb.so:_ZN3zyn7XmlNodeixENSt7__cxx1112basic_stringIcSt11char_traitsIcESaIcEEE
ZynReverb.so:_ZN3zyn7verboseE
ZynReverb.so:_ZN3zyn8SVFilter13setfreq_and_qEff
ZynReverb.so:_ZN3zyn8SVFilter15computeResponseEiffiff
ZynReverb.so:_ZN3zyn8SVFilter15singlefilteroutEPfRNS0_6fstageERNS0_10parametersEi
ZynReverb.so:_ZN3zyn8SVFilter18computefiltercoefsEv
ZynReverb.so:_ZN3zyn8SVFilter19getfilteroutfortypeERNS0_6fstageE
ZynReverb.so:_ZN3zyn8SVFilter4setqEf
ZynReverb.so:_ZN3zyn8SVFilter7cleanupEv
ZynReverb.so:_ZN3zyn8SVFilter7setfreqEf
ZynReverb.so:_ZN3zyn8SVFilter7setgainEf
ZynReverb.so:_ZN3zyn8SVFilter7settypeEi
ZynReverb.so:_ZN3zyn8SVFilter8responseC1Effffff
ZynReverb.so:_ZN3zyn8SVFilter8responseC2Effffff
ZynReverb.so:_ZN3zyn8SVFilter9filteroutEPf
ZynReverb.so:_ZN3zyn8SVFilter9setstagesEi
ZynReverb.so:_ZN3zyn8SVFilterC1Ehffhji
ZynReverb.so:_ZN3zyn8SVFilterC2Ehffhji
ZynReverb.so:_ZN3zyn8SVFilterD0Ev
ZynReverb.so:_ZN3zyn8SVFilterD1Ev
ZynReverb.so:_ZN3zyn8SVFilterD2Ev
ZynReverb.so:_ZN3zyn8isPluginE
ZynReverb.so:_ZN3zyn9Allocator14endTransactionEv
ZynReverb.so:_ZN3zyn9Allocator16beginTransactionEv
ZynReverb.so:_ZN3zyn9Allocator19rollbackTransactionEv
ZynReverb.so:_ZN3zyn9AllocatorC1Ev
ZynReverb.so:_ZN3zyn9AllocatorC2Ev
ZynReverb.so:_ZN3zyn9AllocatorD0Ev
ZynReverb.so:_ZN3zyn9AllocatorD1Ev
ZynReverb.so:_ZN3zyn9AllocatorD2Ev
ZynReverb.so:_ZN3zyn9getdetuneEhtt
ZynReverb.so:_ZN3zyn9invSignalEPfm
ZynReverb.so:_ZN3zyn9os_usleepEl
ZynReverb.so:_ZN3zynlsERSoRKNS_12version_typeE
ZynReverb.so:_ZN5rtosc10ClonePortsC1ERKNS_5PortsESt16initializer_listINS_9ClonePortEE
ZynReverb.so:_ZN5rtosc10ClonePortsC2ERKNS_5PortsESt16initializer_listINS_9ClonePortEE
ZynReverb.so:_ZN5rtosc10MergePortsC1ESt16initializer_listIPKNS_5PortsEE
ZynReverb.so:_ZN5rtosc10MergePortsC2ESt16initializer_listIPKNS_5PortsEE
ZynReverb.so:_ZN5rtosc10walk_portsEPKNS_5PortsEPcmPvPFvPKNS_4PortEPKcS9_RS1_S4_S4_EbS4_b
ZynReverb.so:_ZN5rtosc11path_searchERKNS_5PortsEPKcS4_PcmP11rtosc_arg_tmNS_16path_search_optsEb
ZynReverb.so:_ZN5rtosc11path_searchERKNS_5PortsEPKcmPcmNS_16path_search_optsEb
ZynReverb.so:_ZN5rtosc12map_arg_valsEP15rtosc_arg_val_tmNS_4Port13MetaContainerE
ZynReverb.so:_ZN5rtosc17enum_key_from_msgENS_4Port13MetaContainerEPKc
ZynReverb.so:_ZN5rtosc21canonicalize_arg_valsEP15rtosc_arg_val_tmPKcNS_4Port13MetaContainerE
ZynReverb.so:_ZN5rtosc4Port12MetaIteratorC1EPKc
ZynReverb.so:_ZN5rtosc4Port12MetaIteratorC2EPKc
ZynReverb.so:_ZN5rtosc4Port12MetaIteratorppEv
ZynReverb.so:_ZN5rtosc4Port13MetaContainerC1EPKc
ZynReverb.so:_ZN5rtosc4Port13MetaContainerC2EPKc
ZynReverb.so:_ZN5rtosc5Ports12collapsePathEPc
ZynReverb.so:_ZN5rtosc5Ports12refreshMagicEv
ZynReverb.so:_ZN5rtosc5PortsC1ESt16initializer_listINS_4PortEE
ZynReverb.so:_ZN5rtosc5PortsC2ESt16initializer_listINS_4PortEE
ZynReverb.so:_ZN5rtosc5PortsD1Ev
ZynReverb.so:_ZN5rtosc5PortsD2Ev
ZynReverb.so:_ZN5rtosc6RtData10chainArrayEPKcS2_P11rtosc_arg_t
ZynReverb.so:_ZN5rtosc6RtData10push_indexEi
ZynReverb.so:_ZN5rtosc6RtData10replyArrayEPKcS2_P11rtosc_arg_t
ZynReverb.so:_ZN5rtosc6RtData14broadcastArrayEPKcS2_P11rtosc_arg_t
ZynReverb.so:_ZN5rtosc6RtData5chainEPKc
ZynReverb.so:_ZN5rtosc6RtData5chainEPKcS2_z
ZynReverb.so:_ZN5rtosc6RtData5replyEPKc
ZynReverb.so:_ZN5rtosc6RtData5replyEPKcS2_z
ZynReverb.so:_ZN5rtosc6RtData7forwardEPKc
ZynReverb.so:_ZN5rtosc6RtData9broadcastEPKc
ZynReverb.so:_ZN5rtosc6RtData9broadcastEPKcS2_z
ZynReverb.so:_ZN5rtosc6RtData9pop_indexEv
ZynReverb.so:_ZN5rtosc6RtDataC1Ev
ZynReverb.so:_ZN5rtosc6RtDataC2Ev
ZynReverb.so:_ZN5rtosc7helpers22get_value_from_runtimeEPvRKNS_4PortEmPcPKcmmP15rtosc_arg_val_tPSt6vectorISA_IcSaIcEESaISC_EE
ZynReverb.so:_ZN5rtosc7helpers22get_value_from_runtimeEPvRKNS_5PortsEmPcS5_mi
ZynReverb.so:_ZN5rtosc8enum_keyENS_4Port13MetaContainerEPKc
ZynReverb.so:_ZN5rtosclsERSoRNS_15OscDocFormatterE
ZynReverb.so:_ZN7DISTRHO12createPluginEv
ZynReverb.so:_ZN7DISTRHO14PluginExporter15sFallbackRangesE
ZynReverb.so:_ZN7DISTRHO14PluginExporter15sFallbackStringE
ZynReverb.so:_ZN7DISTRHO14PluginExporter18sFallbackAudioPortE
ZynReverb.so:_ZN7DISTRHO14PluginExporter18sFallbackPortGroupE
ZynReverb.so:_ZN7DISTRHO14PluginExporter19sFallbackEnumValuesE
ZynReverb.so:_ZN7DISTRHO14snprintf_paramEPcfm
ZynReverb.so:_ZN7DISTRHO15snprintf_iparamEPcim
ZynReverb.so:_ZN7DISTRHO16d_lastBufferSizeE
ZynReverb.so:_ZN7DISTRHO16d_lastSampleRateE
ZynReverb.so:_ZN7DISTRHO37d_lastCanRequestParameterValueChangesE
ZynReverb.so:_ZN7DISTRHO6Plugin13initAudioPortEbjRNS_9AudioPortE
ZynReverb.so:_ZN7DISTRHO6Plugin13initPortGroupEjRNS_9PortGroupE
ZynReverb.so:_ZN7DISTRHO6Plugin17bufferSizeChangedEj
ZynReverb.so:_ZN7DISTRHO6Plugin17sampleRateChangedEd
ZynReverb.so:_ZN7DISTRHO6PluginC1Ejjj
ZynReverb.so:_ZN7DISTRHO6PluginC2Ejjj
ZynReverb.so:_ZN7DISTRHO6PluginD0Ev
ZynReverb.so:_ZN7DISTRHO6PluginD1Ev
ZynReverb.so:_ZN7DISTRHO6PluginD2Ev
ZynReverb.so:_ZN7DISTRHO7strncpyEPcPKcm
ZynReverb.so:_ZNK3zyn10XMLwrapper10doloadfileERKNSt7__cxx1112basic_stringIcSt11char_traitsIcESaIcEEE
ZynReverb.so:_ZNK3zyn10XMLwrapper10dosavefileEPKciS2_
ZynReverb.so:_ZNK3zyn10XMLwrapper10getXMLdataEv
ZynReverb.so:_ZNK3zyn10XMLwrapper10getparboolERKNSt7__cxx1112basic_stringIcSt11char_traitsIcESaIcEEEi
ZynReverb.so:_ZNK3zyn10XMLwrapper10getparrealEPKcf
ZynReverb.so:_ZNK3zyn10XMLwrapper10getparrealEPKcfff
ZynReverb.so:_ZNK3zyn10XMLwrapper10hasparrealEPKc
ZynReverb.so:_ZNK3zyn10XMLwrapper11getbranchidEii
ZynReverb.so:_ZNK3zyn10XMLwrapper11hasPadSynthEv
ZynReverb.so:_ZNK3zyn10XMLwrapper11saveXMLfileERKNSt7__cxx1112basic_stringIcSt11char_traitsIcESaIcEEEi
ZynReverb.so:_ZNK3zyn10XMLwrapper6getparERKNSt7__cxx1112basic_stringIcSt11char_traitsIcESaIcEEEiii
ZynReverb.so:_ZNK3zyn10XMLwrapper9addparamsEPKcjz
ZynReverb.so:_ZNK3zyn10XMLwrapper9getBranchEv
ZynReverb.so:_ZNK3zyn10XMLwrapper9getpar127ERKNSt7__cxx1112basic_stringIcSt11char_traitsIcESaIcEEEi
ZynReverb.so:_ZNK3zyn10XMLwrapper9getparstrERKNSt7__cxx1112basic_stringIcSt11char_traitsIcESaIcEEEPci
ZynReverb.so:_ZNK3zyn10XMLwrapper9getparstrERKNSt7__cxx1112basic_stringIcSt11char_traitsIcESaIcEEES8_
ZynReverb.so:_ZNK3zyn12FilterParams10getfreqposEf
ZynReverb.so:_ZNK3zyn12FilterParams11getformantqEh
ZynReverb.so:_ZNK3zyn12FilterParams13getcenterfreqEv
ZynReverb.so:_ZNK3zyn12FilterParams13getformantampEh
ZynReverb.so:_ZNK3zyn12FilterParams14getformantfreqEh
ZynReverb.so:_ZNK3zyn12FilterParams14getoctavesfreqEv
ZynReverb.so:_ZNK3zyn12FilterParams15getfreqtrackingEf
ZynReverb.so:_ZNK3zyn12FilterParams4getqEv
ZynReverb.so:_ZNK3zyn12FilterParams7getfreqEv
ZynReverb.so:_ZNK3zyn12FilterParams7getgainEv
ZynReverb.so:_ZNK3zyn12FilterParams8getfreqxEf
ZynReverb.so:_ZNK3zyn12PresetsStore12presetstructltERKS1_
ZynReverb.so:_ZNK3zyn14AllocatorClass9lowMemoryEjm
ZynReverb.so:_ZNK3zyn6Reverb6getparEi
ZynReverb.so:_ZNK3zyn9Allocator12totalAllocedEv
ZynReverb.so:_ZNK3zyn9Allocator7memFreeEPv
ZynReverb.so:_ZNK3zyn9Allocator8memPoolsEv
ZynReverb.so:_ZNK3zyn9Allocator9freePoolsEv
ZynReverb.so:_ZNK5rtosc4Port12MetaIteratorcvbEv
ZynReverb.so:_ZNK5rtosc4Port13MetaContainer3endEv
ZynReverb.so:_ZNK5rtosc4Port13MetaContainer4findEPKc
ZynReverb.so:_ZNK5rtosc4Port13MetaContainer5beginEv
ZynReverb.so:_ZNK5rtosc4Port13MetaContainer6lengthEv
ZynReverb.so:_ZNK5rtosc4Port13MetaContainerixEPKc
ZynReverb.so:_ZNK5rtosc5Ports7aproposEPKc
ZynReverb.so:_ZNK5rtosc5Ports8dispatchEPKcRNS_6RtDataEb
ZynReverb.so:_ZNK5rtosc5PortsixEPKc
ZynReverb.so:_ZNK7DISTRHO6Plugin13getBufferSizeEv
ZynReverb.so:_ZNK7DISTRHO6Plugin13getSampleRateEv
ZynReverb.so:advance_path
ZynReverb.so:arraytypes_match
ZynReverb.so:chunk_path
ZynReverb.so:delta_from_arg_vals
ZynReverb.so:fast_strcpy
ZynReverb.so:get_default_cmp_options
ZynReverb.so:lv2_descriptor
ZynReverb.so:lv2_generate_ttl
ZynReverb.so:main
ZynReverb.so:parse_identifier
ZynReverb.so:range_min
ZynReverb.so:rtosc_amessage
ZynReverb.so:rtosc_arg_arr_len
ZynReverb.so:rtosc_arg_arr_len_set
ZynReverb.so:rtosc_arg_arr_type
ZynReverb.so:rtosc_arg_arr_type_set
ZynReverb.so:rtosc_arg_rep_has_delta
ZynReverb.so:rtosc_arg_rep_has_delta_set
ZynReverb.so:rtosc_arg_rep_num
ZynReverb.so:rtosc_arg_rep_num_set
ZynReverb.so:rtosc_arg_val_add
ZynReverb.so:rtosc_arg_val_current_time
ZynReverb.so:rtosc_arg_val_div
ZynReverb.so:rtosc_arg_val_from_double
ZynReverb.so:rtosc_arg_val_from_int
ZynReverb.so:rtosc_arg_val_from_params
ZynReverb.so:rtosc_arg_val_from_time_t
ZynReverb.so:rtosc_arg_val_immediatelly
ZynReverb.so:rtosc_arg_val_is_immediatelly
ZynReverb.so:rtosc_arg_val_itr_get
ZynReverb.so:rtosc_arg_val_itr_init
ZynReverb.so:rtosc_arg_val_itr_next
ZynReverb.so:rtosc_arg_val_mult
ZynReverb.so:rtosc_arg_val_negate
ZynReverb.so:rtosc_arg_val_null
ZynReverb.so:rtosc_arg_val_range_arg
ZynReverb.so:rtosc_arg_val_round
ZynReverb.so:rtosc_arg_val_sub
ZynReverb.so:rtosc_arg_val_to_int
ZynReverb.so:rtosc_arg_vals_cmp
ZynReverb.so:rtosc_arg_vals_cmp_has_next
ZynReverb.so:rtosc_arg_vals_cmp_single
ZynReverb.so:rtosc_arg_vals_eq
ZynReverb.so:rtosc_arg_vals_eq_after_abort
ZynReverb.so:rtosc_arg_vals_eq_single
ZynReverb.so:rtosc_argument
ZynReverb.so:rtosc_argument_string
ZynReverb.so:rtosc_av_arr_len
ZynReverb.so:rtosc_av_arr_len_set
ZynReverb.so:rtosc_av_arr_type
ZynReverb.so:rtosc_av_arr_type_set
ZynReverb.so:rtosc_av_rep_has_delta
ZynReverb.so:rtosc_av_rep_has_delta_set
ZynReverb.so:rtosc_av_rep_num
ZynReverb.so:rtosc_av_rep_num_set
ZynReverb.so:rtosc_bundle
ZynReverb.so:rtosc_bundle_elements
ZynReverb.so:rtosc_bundle_fetch
ZynReverb.so:rtosc_bundle_p
ZynReverb.so:rtosc_bundle_size
ZynReverb.so:rtosc_bundle_timetag
ZynReverb.so:rtosc_count_printed_arg_vals
ZynReverb.so:rtosc_count_printed_arg_vals_of_msg
ZynReverb.so:rtosc_float2secfracs
ZynReverb.so:rtosc_itr_begin
ZynReverb.so:rtosc_itr_end
ZynReverb.so:rtosc_itr_next
ZynReverb.so:rtosc_match
ZynReverb.so:rtosc_match_full_path
ZynReverb.so:rtosc_match_options
ZynReverb.so:rtosc_match_partial
ZynReverb.so:rtosc_match_path
ZynReverb.so:rtosc_matchable_path
ZynReverb.so:rtosc_message
ZynReverb.so:rtosc_message_length
ZynReverb.so:rtosc_message_ring_length
ZynReverb.so:rtosc_narguments
ZynReverb.so:rtosc_params_from_arg_val
ZynReverb.so:rtosc_print_arg_val
ZynReverb.so:rtosc_print_arg_vals
ZynReverb.so:rtosc_print_message
ZynReverb.so:rtosc_scan_arg_val
ZynReverb.so:rtosc_scan_arg_vals
ZynReverb.so:rtosc_scan_message
ZynReverb.so:rtosc_secfracs2float
ZynReverb.so:rtosc_secfracs_from_arg_val
ZynReverb.so:rtosc_skip_next_printed_arg
ZynReverb.so:rtosc_subpath_pat_type
ZynReverb.so:rtosc_time_t_from_arg_val
ZynReverb.so:rtosc_type
ZynReverb.so:rtosc_v2argvals
ZynReverb.so:rtosc_valid_message_p
ZynReverb.so:rtosc_vmessage
ZynReverb.so:tlsf_add_pool
ZynReverb.so:tlsf_align_size
ZynReverb.so:tlsf_alloc_overhead
ZynReverb.so:tlsf_block_size
ZynReverb.so:tlsf_block_size_max
ZynReverb.so:tlsf_block_size_min
ZynReverb.so:tlsf_check
ZynReverb.so:tlsf_check_pool
ZynReverb.so:tlsf_create
ZynReverb.so:tlsf_create_with_pool
ZynReverb.so:tlsf_destroy
ZynReverb.so:tlsf_free
ZynReverb.so:tlsf_get_pool
ZynReverb.so:tlsf_malloc
ZynReverb.so:tlsf_memalign
ZynReverb.so:tlsf_pool_overhead
ZynReverb.so:tlsf_realloc
ZynReverb.so:tlsf_remove_pool
ZynReverb.so:tlsf_size
ZynReverb.so:tlsf_walk_pool
ZynReverb.so:types_match
zynaddsubfx:_IO_stdin_used
zynaddsubfx:_Z11InitWinMidii
zynaddsubfx:_Z11exitprogramRKN3zyn6ConfigE
zynaddsubfx:_Z11initprogramN3zyn7SYNTH_TEPNS_6ConfigEi
zynaddsubfx:_Z12sigterm_exiti
zynaddsubfx:_Z14fetch_osc_paneP9Fl_Widget
zynaddsubfx:_Z15port_is_enabledPKN5rtosc4PortEPcmRKNS_5PortsEPvbPFvS2_PKcS9_S6_S7_S7_ES7_
zynaddsubfx:_Z19kb_shortcut_handleri
zynaddsubfx:_Z20metaiterator_advanceRPKcS1_
zynaddsubfx:_Z21set_module_parametersP9Fl_Widget
zynaddsubfx:_Z7do_hashRKSt6vectorINSt7__cxx1112basic_stringIcSt11char_traitsIcESaIcEEESaIS5_EERKS_IiSaIiEE
zynaddsubfx:_Z7killMapiRN5rtosc17MidiMapperStorageE
zynaddsubfx:_ZN10EnvelopeUI11cb_addpointEP11PointButtonPv
zynaddsubfx:_ZN10EnvelopeUI11cb_freeeditEP16EnvelopeFreeEditPv
zynaddsubfx:_ZN10EnvelopeUI14cb_deletepointEP11PointButtonPv
zynaddsubfx:_ZN10EnvelopeUI15cb_freemodehackEP12Fl_Osc_CheckPv
zynaddsubfx:_ZN10EnvelopeUI15make_ASR_windowEv
zynaddsubfx:_ZN10EnvelopeUI15refresh_displayEv
zynaddsubfx:_ZN10EnvelopeUI16cb_freeeditsmallEP16EnvelopeFreeEditPv
zynaddsubfx:_ZN10EnvelopeUI16disable_freemodeEv
zynaddsubfx:_ZN10EnvelopeUI16make_ADSR_windowEv
zynaddsubfx:_ZN10EnvelopeUI16make_free_windowEv
zynaddsubfx:_ZN10EnvelopeUI16open_as_freemodeEv
zynaddsubfx:_ZN10EnvelopeUI17cb_sustaincounterEP14Fl_Osc_CounterPv
zynaddsubfx:_ZN10EnvelopeUI17make_ASRbw_windowEv
zynaddsubfx:_ZN10EnvelopeUI22make_ADSRfilter_windowEv
zynaddsubfx:_ZN10EnvelopeUI25make_freemode_edit_windowEv
zynaddsubfx:_ZN10EnvelopeUI4cb_CEP9Fl_ButtonPv
zynaddsubfx:_ZN10EnvelopeUI4cb_EEP13Fl_Osc_ButtonPv
zynaddsubfx:_ZN10EnvelopeUI4cb_PEP9Fl_ButtonPv
zynaddsubfx:_ZN10EnvelopeUI4initEiP16Fl_Osc_InterfaceNSt7__cxx1112basic_stringIcSt11char_traitsIcESaIcEEES7_
zynaddsubfx:_ZN10EnvelopeUI5cb_C1EP9Fl_ButtonPv
zynaddsubfx:_ZN10EnvelopeUI5cb_C2EP9Fl_ButtonPv
zynaddsubfx:_ZN10EnvelopeUI5cb_C3EP9Fl_ButtonPv
zynaddsubfx:_ZN10EnvelopeUI5cb_C4EP9Fl_ButtonPv
zynaddsubfx:_ZN10EnvelopeUI5cb_C5EP9Fl_ButtonPv
zynaddsubfx:_ZN10EnvelopeUI5cb_E1EP13Fl_Osc_ButtonPv
zynaddsubfx:_ZN10EnvelopeUI5cb_E2EP13Fl_Osc_ButtonPv
zynaddsubfx:_ZN10EnvelopeUI5cb_E3EP13Fl_Osc_ButtonPv
zynaddsubfx:_ZN10EnvelopeUI5cb_E4EP13Fl_Osc_ButtonPv
zynaddsubfx:_ZN10EnvelopeUI5cb_P1EP9Fl_ButtonPv
zynaddsubfx:_ZN10EnvelopeUI5cb_P2EP9Fl_ButtonPv
zynaddsubfx:_ZN10EnvelopeUI5cb_P3EP9Fl_ButtonPv
zynaddsubfx:_ZN10EnvelopeUI5cb_P4EP9Fl_ButtonPv
zynaddsubfx:_ZN10EnvelopeUI5cb_P5EP9Fl_ButtonPv
zynaddsubfx:_ZN10EnvelopeUI6rebaseENSt7__cxx1112basic_stringIcSt11char_traitsIcESaIcEEE
zynaddsubfx:_ZN10EnvelopeUI7refreshEv
zynaddsubfx:_ZN10EnvelopeUI8cb_CloseEP9Fl_ButtonPv
zynaddsubfx:_ZN10EnvelopeUI8cb_e1adtEP11Fl_Osc_DialPv
zynaddsubfx:_ZN10EnvelopeUI8cb_e1ddtEP11Fl_Osc_DialPv
zynaddsubfx:_ZN10EnvelopeUI8cb_e1rdtEP11Fl_Osc_DialPv
zynaddsubfx:_ZN10EnvelopeUI8cb_e2adtEP11Fl_Osc_DialPv
zynaddsubfx:_ZN10EnvelopeUI8cb_e2rdtEP11Fl_Osc_DialPv
zynaddsubfx:_ZN10EnvelopeUI8cb_e3adtEP11Fl_Osc_DialPv
zynaddsubfx:_ZN10EnvelopeUI8cb_e3ddtEP11Fl_Osc_DialPv
zynaddsubfx:_ZN10EnvelopeUI8cb_e3rdtEP11Fl_Osc_DialPv
zynaddsubfx:_ZN10EnvelopeUI8cb_e4adtEP11Fl_Osc_DialPv
zynaddsubfx:_ZN10EnvelopeUI8cb_e4rdtEP11Fl_Osc_DialPv
zynaddsubfx:_ZN10EnvelopeUI9cb_CancelEP13Fl_Osc_ButtonPv
zynaddsubfx:_ZN10EnvelopeUI9cb_e1svalEP11Fl_Osc_DialPv
zynaddsubfx:_ZN10EnvelopeUI9cb_e2avalEP11Fl_Osc_DialPv
zynaddsubfx:_ZN10EnvelopeUI9cb_e2rvalEP11Fl_Osc_DialPv
zynaddsubfx:_ZN10EnvelopeUI9cb_e3avalEP11Fl_Osc_DialPv
zynaddsubfx:_ZN10EnvelopeUI9cb_e3dvalEP11Fl_Osc_DialPv
zynaddsubfx:_ZN10EnvelopeUI9cb_e3rvalEP11Fl_Osc_DialPv
zynaddsubfx:_ZN10EnvelopeUI9cb_e4avalEP11Fl_Osc_DialPv
zynaddsubfx:_ZN10EnvelopeUI9cb_e4rvalEP11Fl_Osc_DialPv
zynaddsubfx:_ZN10EnvelopeUIC1EiiiiPKc
zynaddsubfx:_ZN10EnvelopeUIC2EiiiiPKc
zynaddsubfx:_ZN10EnvelopeUID0Ev
zynaddsubfx:_ZN10EnvelopeUID1Ev
zynaddsubfx:_ZN10EnvelopeUID2Ev
zynaddsubfx:_ZN10Fl_EQGraph14draw_freq_lineEfi
zynaddsubfx:_ZN10Fl_EQGraph4drawEv
zynaddsubfx:_ZN10Fl_EQGraph6updateEv
zynaddsubfx:_ZN10Fl_EQGraph7OSC_rawEPKc
zynaddsubfx:_ZN10Fl_EQGraphC1EiiiiPKc
zynaddsubfx:_ZN10Fl_EQGraphC2EiiiiPKc
zynaddsubfx:_ZN10Fl_EQGraphD0Ev
zynaddsubfx:_ZN10Fl_EQGraphD1Ev
zynaddsubfx:_ZN10Fl_EQGraphD2Ev
zynaddsubfx:_ZN10NSM_Client12command_openEPKcS1_S1_PPc
zynaddsubfx:_ZN10NSM_Client12command_saveEPPc
zynaddsubfx:_ZN10NSM_Client14command_activeEb
zynaddsubfx:_ZN10NSM_ClientC1EPN3zyn10MiddleWareE
zynaddsubfx:_ZN10NSM_ClientC2EPN3zyn10MiddleWareE
zynaddsubfx:_ZN10PresetsUI_7refreshEv
zynaddsubfx:_ZN10PresetsUI_D0Ev
zynaddsubfx:_ZN10PresetsUI_D1Ev
zynaddsubfx:_ZN10PresetsUI_D2Ev
zynaddsubfx:_ZN10SysEffSend4initEii
zynaddsubfx:_ZN10SysEffSendC1EiiiiPKc
zynaddsubfx:_ZN10SysEffSendC2EiiiiPKc
zynaddsubfx:_ZN10SysEffSendD0Ev
zynaddsubfx:_ZN10SysEffSendD1Ev
zynaddsubfx:_ZN10SysEffSendD2Ev
zynaddsubfx:_ZN11Fl_Osc_Dial2cbEv
zynaddsubfx:_ZN11Fl_Osc_Dial4initENSt7__cxx1112basic_stringIcSt11char_traitsIcESaIcEEE
zynaddsubfx:_ZN11Fl_Osc_Dial6handleEi
zynaddsubfx:_ZN11Fl_Osc_Dial6rebaseENSt7__cxx1112basic_stringIcSt11char_traitsIcESaIcEEE
zynaddsubfx:_ZN11Fl_Osc_Dial6updateEv
zynaddsubfx:_ZN11Fl_Osc_Dial8alt_initENSt7__cxx1112basic_stringIcSt11char_traitsIcESaIcEEES5_
zynaddsubfx:_ZN11Fl_Osc_Dial8callbackEPFvP9Fl_WidgetPvES2_
zynaddsubfx:_ZN11Fl_Osc_Dial9OSC_valueEc
zynaddsubfx:_ZN11Fl_Osc_Dial9OSC_valueEf
zynaddsubfx:_ZN11Fl_Osc_Dial9OSC_valueEi
zynaddsubfx:_ZN11Fl_Osc_Dial9mark_deadEv
zynaddsubfx:_ZN11Fl_Osc_DialC1EiiiiPKc
zynaddsubfx:_ZN11Fl_Osc_DialC2EiiiiPKc
zynaddsubfx:_ZN11Fl_Osc_DialD0Ev
zynaddsubfx:_ZN11Fl_Osc_DialD1Ev
zynaddsubfx:_ZN11Fl_Osc_DialD2Ev
zynaddsubfx:_ZN11Fl_Osc_PaneC1Ev
zynaddsubfx:_ZN11Fl_Osc_PaneC2Ev
zynaddsubfx:_ZN11OscilEditor10cb_adhrparEP14Fl_Osc_TSliderPv
zynaddsubfx:_ZN11OscilEditor10cb_adhrpowEP11Fl_Osc_DialPv
zynaddsubfx:_ZN11OscilEditor10cb_magtypeEP13Fl_Osc_ChoicePv
zynaddsubfx:_ZN11OscilEditor10cb_modpar1EP11Fl_Osc_DialPv
zynaddsubfx:_ZN11OscilEditor10cb_modpar2EP11Fl_Osc_DialPv
zynaddsubfx:_ZN11OscilEditor10cb_modpar3EP11Fl_Osc_DialPv
zynaddsubfx:_ZN11OscilEditor10cb_modtypeEP13Fl_Osc_ChoicePv
zynaddsubfx:_ZN11OscilEditor10cb_sadjparEP11Fl_Osc_DialPv
zynaddsubfx:_ZN11OscilEditor11cb_adhrtypeEP13Fl_Osc_ChoicePv
zynaddsubfx:_ZN11OscilEditor11cb_sabuttonEP13Fl_Osc_ChoicePv
zynaddsubfx:_ZN11OscilEditor11make_windowEv
zynaddsubfx:_ZN11OscilEditor11menu_bftypeE
zynaddsubfx:_ZN11OscilEditor11redrawoscilEv
zynaddsubfx:_ZN11OscilEditor12cb_bfmodpar1EP11Fl_Osc_DialPv
zynaddsubfx:_ZN11OscilEditor12cb_bfmodpar2EP11Fl_Osc_DialPv
zynaddsubfx:_ZN11OscilEditor12cb_bfmodpar3EP11Fl_Osc_DialPv
zynaddsubfx:_ZN11OscilEditor12cb_bfmodtypeEP13Fl_Osc_ChoicePv
zynaddsubfx:_ZN11OscilEditor12cb_fltbuttonEP13Fl_Osc_ChoicePv
zynaddsubfx:_ZN11OscilEditor12cb_wshbuttonEP13Fl_Osc_ChoicePv
zynaddsubfx:_ZN11OscilEditor12menu_magtypeE
zynaddsubfx:_ZN11OscilEditor12menu_modtypeE
zynaddsubfx:_ZN11OscilEditor13cb_filterprefEP15Fl_Check_ButtonPv
zynaddsubfx:_ZN11OscilEditor13menu_adhrtypeE
zynaddsubfx:_ZN11OscilEditor13menu_hrndtypeE
zynaddsubfx:_ZN11OscilEditor13menu_sabuttonE
zynaddsubfx:_ZN11OscilEditor14cb_applybuttonEP9Fl_ButtonPv
zynaddsubfx:_ZN11OscilEditor14menu_bfmodtypeE
zynaddsubfx:_ZN11OscilEditor14menu_fltbuttonE
zynaddsubfx:_ZN11OscilEditor14menu_wshbuttonE
zynaddsubfx:_ZN11OscilEditor14setbfmodstatusEi
zynaddsubfx:_ZN11OscilEditor15cb_filtervalue1EP11Fl_Osc_DialPv
zynaddsubfx:_ZN11OscilEditor15cb_filtervalue2EP11Fl_Osc_DialPv
zynaddsubfx:_ZN11OscilEditor19cb_harmonicshiftpreEP12Fl_Osc_CheckPv
zynaddsubfx:_ZN11OscilEditor23cb_harmonicshiftcounterEP14Fl_Osc_CounterPv
zynaddsubfx:_ZN11OscilEditor4cb_CEP9Fl_ButtonPv
zynaddsubfx:_ZN11OscilEditor4cb_PEP9Fl_ButtonPv
zynaddsubfx:_ZN11OscilEditor4cb_REP9Fl_ButtonPv
zynaddsubfx:_ZN11OscilEditor6cb_UseEP9Fl_ButtonPv
zynaddsubfx:_ZN11OscilEditor7cb_SineEP9Fl_ButtonPv
zynaddsubfx:_ZN11OscilEditor7refreshEv
zynaddsubfx:_ZN11OscilEditor8cb_ClearEP9Fl_ButtonPv
zynaddsubfx:_ZN11OscilEditor8cb_CloseEP9Fl_ButtonPv
zynaddsubfx:_ZN11OscilEditor8cb_bfparEP11Fl_Osc_DialPv
zynaddsubfx:_ZN11OscilEditor9cb_adhrbfEP11Fl_Osc_DialPv
zynaddsubfx:_ZN11OscilEditor9cb_bftypeEP12OGWaveChoicePv
zynaddsubfx:_ZN11OscilEditor9cb_wshparEP11Fl_Osc_DialPv
zynaddsubfx:_ZN11OscilEditorC1EbNSt7__cxx1112basic_stringIcSt11char_traitsIcESaIcEEEP16Fl_Osc_Interface
zynaddsubfx:_ZN11OscilEditorC2EbNSt7__cxx1112basic_stringIcSt11char_traitsIcESaIcEEEP16Fl_Osc_Interface
zynaddsubfx:_ZN11OscilEditorD0Ev
zynaddsubfx:_ZN11OscilEditorD1Ev
zynaddsubfx:_ZN11OscilEditorD2Ev
zynaddsubfx:_ZN11PartKitItem10cb_adcheckEP12Fl_Osc_CheckPv
zynaddsubfx:_ZN11PartKitItem11cb_padcheckEP12Fl_Osc_CheckPv
zynaddsubfx:_ZN11PartKitItem11cb_subcheckEP12Fl_Osc_CheckPv
zynaddsubfx:_ZN11PartKitItem11make_windowEv
zynaddsubfx:_ZN11PartKitItem14cb_labelbuttonEP12Fl_Osc_InputPv
zynaddsubfx:_ZN11PartKitItem15cb_adeditbuttonEP9Fl_ButtonPv
zynaddsubfx:_ZN11PartKitItem15cb_enabledcheckEP12Fl_Osc_CheckPv
zynaddsubfx:_ZN11PartKitItem16cb_padeditbuttonEP9Fl_ButtonPv
zynaddsubfx:_ZN11PartKitItem16cb_subeditbuttonEP9Fl_ButtonPv
zynaddsubfx:_ZN11PartKitItem4cb_MEP13Fl_Osc_ButtonPv
zynaddsubfx:_ZN11PartKitItem4cb_REP9Fl_ButtonPv
zynaddsubfx:_ZN11PartKitItem4cb_mEP13Fl_Osc_ButtonPv
zynaddsubfx:_ZN11PartKitItem4initEiP6PartUI
zynaddsubfx:_ZN11PartKitItem7refreshEv
zynaddsubfx:_ZN11PartKitItemC1EiiiiPKc
zynaddsubfx:_ZN11PartKitItemC2EiiiiPKc
zynaddsubfx:_ZN11PartKitItemD0Ev
zynaddsubfx:_ZN11PartKitItemD1Ev
zynaddsubfx:_ZN11PartKitItemD2Ev
zynaddsubfx:_ZN11PhaseSlider2cbEv
zynaddsubfx:_ZN11PhaseSlider9OSC_valueEi
zynaddsubfx:_ZN11PhaseSlider9set_scopeEP15Fl_Oscilloscope
zynaddsubfx:_ZN11PhaseSliderC1EiiiiPKc
zynaddsubfx:_ZN11PhaseSliderC2EiiiiPKc
zynaddsubfx:_ZN11PointButton4initENSt7__cxx1112basic_stringIcSt11char_traitsIcESaIcEEE
zynaddsubfx:_ZN11PointButton6rebaseENSt7__cxx1112basic_stringIcSt11char_traitsIcESaIcEEE
zynaddsubfx:_ZN11PointButtonC1EiiiiPKc
zynaddsubfx:_ZN11PointButtonC2EiiiiPKc
zynaddsubfx:_ZN11ResonanceUI10cb_InterpPEP13Fl_Osc_ButtonPv
zynaddsubfx:_ZN11ResonanceUI11make_windowEP16Fl_Osc_InterfaceNSt7__cxx1112basic_stringIcSt11char_traitsIcESaIcEEE
zynaddsubfx:_ZN11ResonanceUI11setcbwidgetEP9Fl_WidgetS1_
zynaddsubfx:_ZN11ResonanceUI13cb_centerfreqEP13Fl_Osc_SliderPv
zynaddsubfx:_ZN11ResonanceUI14cb_applybuttonEP9Fl_ButtonPv
zynaddsubfx:_ZN11ResonanceUI14cb_octavesfreqEP13Fl_Osc_SliderPv
zynaddsubfx:_ZN11ResonanceUI15cb_centerfreqvoEP13Fl_Osc_OutputPv
zynaddsubfx:_ZN11ResonanceUI16cb_octavesfreqvoEP13Fl_Osc_OutputPv
zynaddsubfx:_ZN11ResonanceUI18redrawPADnoteApplyEv
zynaddsubfx:_ZN11ResonanceUI4cb_CEP9Fl_ButtonPv
zynaddsubfx:_ZN11ResonanceUI4cb_PEP9Fl_ButtonPv
zynaddsubfx:_ZN11ResonanceUI7cb_RND1EP13Fl_Osc_ButtonPv
zynaddsubfx:_ZN11ResonanceUI7cb_RND2EP13Fl_Osc_ButtonPv
zynaddsubfx:_ZN11ResonanceUI7cb_RND3EP13Fl_Osc_ButtonPv
zynaddsubfx:_ZN11ResonanceUI7cb_ZeroEP13Fl_Osc_ButtonPv
zynaddsubfx:_ZN11ResonanceUI7refreshEv
zynaddsubfx:_ZN11ResonanceUI8cb_CloseEP9Fl_ButtonPv
zynaddsubfx:_ZN11ResonanceUI8cb_maxdbEP13Fl_Osc_SliderPv
zynaddsubfx:_ZN11ResonanceUI9cb_SmoothEP13Fl_Osc_ButtonPv
zynaddsubfx:_ZN11ResonanceUIC1EP16Fl_Osc_InterfaceNSt7__cxx1112basic_stringIcSt11char_traitsIcESaIcEEE
zynaddsubfx:_ZN11ResonanceUIC2EP16Fl_Osc_InterfaceNSt7__cxx1112basic_stringIcSt11char_traitsIcESaIcEEE
zynaddsubfx:_ZN11ResonanceUID0Ev
zynaddsubfx:_ZN11ResonanceUID1Ev
zynaddsubfx:_ZN11ResonanceUID2Ev
zynaddsubfx:_ZN11SimpleEffUI10menu_revp1E
zynaddsubfx:_ZN11SimpleEffUI11menu_distp1E
zynaddsubfx:_ZN11SimpleEffUI11menu_echop1E
zynaddsubfx:_ZN11SimpleEffUI11menu_sympp1E
zynaddsubfx:_ZN11SimpleEffUI12cb_freqdial1EP11Fl_Osc_DialPv
zynaddsubfx:_ZN11SimpleEffUI12cb_gaindial1EP11Fl_Osc_DialPv
zynaddsubfx:_ZN11SimpleEffUI12menu_distp51E
zynaddsubfx:_ZN11SimpleEffUI13menu_chorusp1E
zynaddsubfx:_ZN11SimpleEffUI13menu_phaserp1E
zynaddsubfx:_ZN11SimpleEffUI14cb_typechoice1EP13Fl_Osc_ChoicePv
zynaddsubfx:_ZN11SimpleEffUI14make_eq_windowEv
zynaddsubfx:_ZN11SimpleEffUI15cb_bandcounter1EP10Fl_CounterPv
zynaddsubfx:_ZN11SimpleEffUI16make_echo_windowEv
zynaddsubfx:_ZN11SimpleEffUI16make_null_windowEv
zynaddsubfx:_ZN11SimpleEffUI16menu_typechoice1E
zynaddsubfx:_ZN11SimpleEffUI17cb_stagescounter1EP14Fl_Osc_CounterPv
zynaddsubfx:_ZN11SimpleEffUI18make_chorus_windowEv
zynaddsubfx:_ZN11SimpleEffUI18make_phaser_windowEv
zynaddsubfx:_ZN11SimpleEffUI18make_reverb_windowEv
zynaddsubfx:_ZN11SimpleEffUI20make_alienwah_windowEv
zynaddsubfx:_ZN11SimpleEffUI22make_distortion_windowEv
zynaddsubfx:_ZN11SimpleEffUI23make_sympathetic_windowEv
zynaddsubfx:_ZN11SimpleEffUI25make_dynamicfilter_windowEv
zynaddsubfx:_ZN11SimpleEffUI4initEb
zynaddsubfx:_ZN11SimpleEffUI7refreshEv
zynaddsubfx:_ZN11SimpleEffUI9cb_qdial1EP11Fl_Osc_DialPv
zynaddsubfx:_ZN11SimpleEffUI9menu_awp1E
zynaddsubfx:_ZN11SimpleEffUI9menu_dfp1E
zynaddsubfx:_ZN11SimpleEffUIC1EiiiiPKc
zynaddsubfx:_ZN11SimpleEffUIC2EiiiiPKc
zynaddsubfx:_ZN11SimpleEffUID0Ev
zynaddsubfx:_ZN11SimpleEffUID1Ev
zynaddsubfx:_ZN11SimpleEffUID2Ev
zynaddsubfx:_ZN11VirKeyboard10cb_partrcvEP9Fl_ChoicePv
zynaddsubfx:_ZN11VirKeyboard11make_windowEv
zynaddsubfx:_ZN11VirKeyboard13cb_ControllerEP9Fl_ChoicePv
zynaddsubfx:_ZN11VirKeyboard14releaseallkeysEv
zynaddsubfx:_ZN11VirKeyboard15menu_ControllerE
zynaddsubfx:_ZN11VirKeyboard19cb_pitchwheelrollerEP9Fl_RollerPv
zynaddsubfx:_ZN11VirKeyboard20cb_virkeyboardwindowEP16Fl_Double_WindowPv
zynaddsubfx:_ZN11VirKeyboard4cb_REP9Fl_ButtonPv
zynaddsubfx:_ZN11VirKeyboard4showEv
zynaddsubfx:_ZN11VirKeyboard6cb_OctEP10Fl_CounterPv
zynaddsubfx:_ZN11VirKeyboard6cb_VelEP15Fl_Value_SliderPv
zynaddsubfx:_ZN11VirKeyboard7cb_CvalEP15Fl_Value_SliderPv
zynaddsubfx:_ZN11VirKeyboard7cb_VrndEP11WidgetPDialPv
zynaddsubfx:_ZN11VirKeyboard7cb_qwerEP10Fl_CounterPv
zynaddsubfx:_ZN11VirKeyboard7cb_zxcvEP10Fl_CounterPv
zynaddsubfx:_ZN11VirKeyboard8cb_CloseEP9Fl_ButtonPv
zynaddsubfx:_ZN11VirKeyboardC1EP16Fl_Osc_InterfaceNSt7__cxx1112basic_stringIcSt11char_traitsIcESaIcEEE
zynaddsubfx:_ZN11VirKeyboardC2EP16Fl_Osc_InterfaceNSt7__cxx1112basic_stringIcSt11char_traitsIcESaIcEEE
zynaddsubfx:_ZN11VirKeyboardD1Ev
zynaddsubfx:_ZN11VirKeyboardD2Ev
zynaddsubfx:_ZN11WidgetPDial10pdialcolorEiii
zynaddsubfx:_ZN11WidgetPDial12set_roundingEj
zynaddsubfx:_ZN11WidgetPDial13set_transformEPFffE
zynaddsubfx:_ZN11WidgetPDial4drawEv
zynaddsubfx:_ZN11WidgetPDial6getPosEv
zynaddsubfx:_ZN11WidgetPDial6handleEi
zynaddsubfx:_ZN11WidgetPDial7tooltipEPKc
zynaddsubfx:_ZN11WidgetPDial8resetPosEv
zynaddsubfx:_ZN11WidgetPDialC1EiiiiPKc
zynaddsubfx:_ZN11WidgetPDialC2EiiiiPKc
zynaddsubfx:_ZN11WidgetPDialD0Ev
zynaddsubfx:_ZN11WidgetPDialD1Ev
zynaddsubfx:_ZN11WidgetPDialD2Ev
zynaddsubfx:_ZN12Fl_Osc_Check2cbEv
zynaddsubfx:_ZN12Fl_Osc_Check3_cbEP9Fl_WidgetPv
zynaddsubfx:_ZN12Fl_Osc_Check4initENSt7__cxx1112basic_stringIcSt11char_traitsIcESaIcEEEc
zynaddsubfx:_ZN12Fl_Osc_Check8callbackEPFvP9Fl_WidgetPvES2_
zynaddsubfx:_ZN12Fl_Osc_Check9OSC_valueEb
zynaddsubfx:_ZN12Fl_Osc_CheckC1EiiiiPKc
zynaddsubfx:_ZN12Fl_Osc_CheckC2EiiiiPKc
zynaddsubfx:_ZN12Fl_Osc_CheckD0Ev
zynaddsubfx:_ZN12Fl_Osc_CheckD1Ev
zynaddsubfx:_ZN12Fl_Osc_CheckD2Ev
zynaddsubfx:_ZN12Fl_Osc_DialF2cbEv
zynaddsubfx:_ZN12Fl_Osc_DialF4initEPKc
zynaddsubfx:_ZN12Fl_Osc_DialF6handleEi
zynaddsubfx:_ZN12Fl_Osc_DialF6updateEv
zynaddsubfx:_ZN12Fl_Osc_DialF8callbackEPFvP9Fl_WidgetPvES2_
zynaddsubfx:_ZN12Fl_Osc_DialF9OSC_valueEf
zynaddsubfx:_ZN12Fl_Osc_DialFC1EiiiiPKc
zynaddsubfx:_ZN12Fl_Osc_DialFC2EiiiiPKc
zynaddsubfx:_ZN12Fl_Osc_DialFD0Ev
zynaddsubfx:_ZN12Fl_Osc_DialFD1Ev
zynaddsubfx:_ZN12Fl_Osc_DialFD2Ev
zynaddsubfx:_ZN12Fl_Osc_Group5reextENSt7__cxx1112basic_stringIcSt11char_traitsIcESaIcEEE
zynaddsubfx:_ZN12Fl_Osc_Group6rebaseENSt7__cxx1112basic_stringIcSt11char_traitsIcESaIcEEE
zynaddsubfx:_ZN12Fl_Osc_GroupC1EiiiiPKc
zynaddsubfx:_ZN12Fl_Osc_GroupC2EiiiiPKc
zynaddsubfx:_ZN12Fl_Osc_Input4initEPKc
zynaddsubfx:_ZN12Fl_Osc_Input9OSC_valueEPKc
zynaddsubfx:_ZN12Fl_Osc_InputC1EiiiiPKc
zynaddsubfx:_ZN12Fl_Osc_InputC2EiiiiPKc
zynaddsubfx:_ZN12Fl_Osc_InputD0Ev
zynaddsubfx:_ZN12Fl_Osc_InputD1Ev
zynaddsubfx:_ZN12Fl_Osc_InputD2Ev
zynaddsubfx:_ZN12Fl_Osc_Value2cbEv
zynaddsubfx:_ZN12Fl_Osc_Value4initEPKc
zynaddsubfx:_ZN12Fl_Osc_Value9OSC_valueEf
zynaddsubfx:_ZN12Fl_Osc_ValueC1EiiiiPKc
zynaddsubfx:_ZN12Fl_Osc_ValueC2EiiiiPKc
zynaddsubfx:_ZN12Fl_Osc_ValueD0Ev
zynaddsubfx:_ZN12Fl_Osc_ValueD1Ev
zynaddsubfx:_ZN12Fl_Osc_ValueD2Ev
zynaddsubfx:_ZN12MicrotonalUI10cb_Import1EP9Fl_ButtonPv
zynaddsubfx:_ZN12MicrotonalUI11make_windowEP16Fl_Osc_InterfaceNSt7__cxx1112basic_stringIcSt11char_traitsIcESaIcEEE
zynaddsubfx:_ZN12MicrotonalUI14cb_applybuttonEP9Fl_ButtonPv
zynaddsubfx:_ZN12MicrotonalUI15cb_anotecounterEP14Fl_Osc_CounterPv
zynaddsubfx:_ZN12MicrotonalUI18updateMappingInputEv
zynaddsubfx:_ZN12MicrotonalUI18updateTuningsInputEv
zynaddsubfx:_ZN12MicrotonalUI23cb_mappingenabledbuttonEP12Fl_Osc_CheckPv
zynaddsubfx:_ZN12MicrotonalUI4showEv
zynaddsubfx:_ZN12MicrotonalUI5applyEv
zynaddsubfx:_ZN12MicrotonalUI8cb_CloseEP9Fl_ButtonPv
zynaddsubfx:_ZN12MicrotonalUI9cb_EnableEP12Fl_Osc_CheckPv
zynaddsubfx:_ZN12MicrotonalUI9cb_ImportEP9Fl_ButtonPv
zynaddsubfx:_ZN12MicrotonalUI9cb_InvertEP12Fl_Osc_CheckPv
zynaddsubfx:_ZN12MicrotonalUIC1EP16Fl_Osc_InterfaceNSt7__cxx1112basic_stringIcSt11char_traitsIcESaIcEEE
zynaddsubfx:_ZN12MicrotonalUIC2EP16Fl_Osc_InterfaceNSt7__cxx1112basic_stringIcSt11char_traitsIcESaIcEEE
zynaddsubfx:_ZN12MicrotonalUID1Ev
zynaddsubfx:_ZN12MicrotonalUID2Ev
zynaddsubfx:_ZN12OGWaveChoice2cbEv
zynaddsubfx:_ZN12OGWaveChoice9OSC_valueEi
zynaddsubfx:_ZN12OGWaveChoiceC1EiiiiPKc
zynaddsubfx:_ZN12OGWaveChoiceC2EiiiiPKc
zynaddsubfx:_ZN13Fl_Osc_Button6rebaseENSt7__cxx1112basic_stringIcSt11char_traitsIcESaIcEEE
zynaddsubfx:_ZN13Fl_Osc_Button9OSC_valueEb
zynaddsubfx:_ZN13Fl_Osc_ButtonC1EiiiiPKc
zynaddsubfx:_ZN13Fl_Osc_ButtonC2EiiiiPKc
zynaddsubfx:_ZN13Fl_Osc_ButtonD0Ev
zynaddsubfx:_ZN13Fl_Osc_ButtonD1Ev
zynaddsubfx:_ZN13Fl_Osc_ButtonD2Ev
zynaddsubfx:_ZN13Fl_Osc_Choice2cbEv
zynaddsubfx:_ZN13Fl_Osc_Choice4initENSt7__cxx1112basic_stringIcSt11char_traitsIcESaIcEEEi
zynaddsubfx:_ZN13Fl_Osc_Choice6updateEv
zynaddsubfx:_ZN13Fl_Osc_Choice8callbackEPFvP9Fl_WidgetPvES2_
zynaddsubfx:_ZN13Fl_Osc_Choice9OSC_valueEc
zynaddsubfx:_ZN13Fl_Osc_Choice9OSC_valueEi
zynaddsubfx:_ZN13Fl_Osc_ChoiceC1EiiiiPKc
zynaddsubfx:_ZN13Fl_Osc_ChoiceC2EiiiiPKc
zynaddsubfx:_ZN13Fl_Osc_ChoiceD0Ev
zynaddsubfx:_ZN13Fl_Osc_ChoiceD1Ev
zynaddsubfx:_ZN13Fl_Osc_ChoiceD2Ev
zynaddsubfx:_ZN13Fl_Osc_Output2cbEv
zynaddsubfx:_ZN13Fl_Osc_Output4initEPKc
zynaddsubfx:_ZN13Fl_Osc_Output6updateEv
zynaddsubfx:_ZN13Fl_Osc_Output8callbackEPFvP9Fl_WidgetPvES2_
zynaddsubfx:_ZN13Fl_Osc_Output9OSC_valueEc
zynaddsubfx:_ZN13Fl_Osc_Output9OSC_valueEf
zynaddsubfx:_ZN13Fl_Osc_OutputC1EiiiiPKc
zynaddsubfx:_ZN13Fl_Osc_OutputC2EiiiiPKc
zynaddsubfx:_ZN13Fl_Osc_Slider2cbEv
zynaddsubfx:_ZN13Fl_Osc_Slider3_cbEP9Fl_WidgetPv
zynaddsubfx:_ZN13Fl_Osc_Slider4initENSt7__cxx1112basic_stringIcSt11char_traitsIcESaIcEEEc
zynaddsubfx:_ZN13Fl_Osc_Slider6handleEi
zynaddsubfx:_ZN13Fl_Osc_Slider6handleEiiiii
zynaddsubfx:_ZN13Fl_Osc_Slider6updateEv
zynaddsubfx:_ZN13Fl_Osc_Slider8callbackEPFvP9Fl_WidgetPvES2_
zynaddsubfx:_ZN13Fl_Osc_Slider9OSC_valueEc
zynaddsubfx:_ZN13Fl_Osc_Slider9OSC_valueEf
zynaddsubfx:_ZN13Fl_Osc_Slider9OSC_valueEi
zynaddsubfx:_ZN13Fl_Osc_SliderC1EiiiiPKc
zynaddsubfx:_ZN13Fl_Osc_SliderC2EiiiiPKc
zynaddsubfx:_ZN13Fl_Osc_SliderD0Ev
zynaddsubfx:_ZN13Fl_Osc_SliderD1Ev
zynaddsubfx:_ZN13Fl_Osc_SliderD2Ev
zynaddsubfx:_ZN13Fl_Osc_Widget11oscRegisterEPKc
zynaddsubfx:_ZN13Fl_Osc_Widget14fetch_osc_paneEP9Fl_Widget
zynaddsubfx:_ZN13Fl_Osc_Widget6rebaseENSt7__cxx1112basic_stringIcSt11char_traitsIcESaIcEEE
zynaddsubfx:_ZN13Fl_Osc_Widget6updateEv
zynaddsubfx:_ZN13Fl_Osc_Widget7OSC_rawEPKc
zynaddsubfx:_ZN13Fl_Osc_Widget7oscMoveENSt7__cxx1112basic_stringIcSt11char_traitsIcESaIcEEE
zynaddsubfx:_ZN13Fl_Osc_Widget7oscMoveENSt7__cxx1112basic_stringIcSt11char_traitsIcESaIcEEES5_
zynaddsubfx:_ZN13Fl_Osc_Widget8oscWriteENSt7__cxx1112basic_stringIcSt11char_traitsIcESaIcEEE
zynaddsubfx:_ZN13Fl_Osc_Widget8oscWriteENSt7__cxx1112basic_stringIcSt11char_traitsIcESaIcEEEPKcz
zynaddsubfx:_ZN13Fl_Osc_Widget9OSC_valueEPKc
zynaddsubfx:_ZN13Fl_Osc_Widget9OSC_valueEPKcS1_
zynaddsubfx:_ZN13Fl_Osc_Widget9OSC_valueEb
zynaddsubfx:_ZN13Fl_Osc_Widget9OSC_valueEbPKc
zynaddsubfx:_ZN13Fl_Osc_Widget9OSC_valueEc
zynaddsubfx:_ZN13Fl_Osc_Widget9OSC_valueEcPKc
zynaddsubfx:_ZN13Fl_Osc_Widget9OSC_valueEf
zynaddsubfx:_ZN13Fl_Osc_Widget9OSC_valueEfPKc
zynaddsubfx:_ZN13Fl_Osc_Widget9OSC_valueEi
zynaddsubfx:_ZN13Fl_Osc_Widget9OSC_valueEiPKc
zynaddsubfx:_ZN13Fl_Osc_Widget9OSC_valueEjPv
zynaddsubfx:_ZN13Fl_Osc_Widget9OSC_valueEjPvPKc
zynaddsubfx:_ZN13Fl_Osc_WidgetC1ENSt7__cxx1112basic_stringIcSt11char_traitsIcESaIcEEEP16Fl_Osc_Interface
zynaddsubfx:_ZN13Fl_Osc_WidgetC1EP9Fl_Widget
zynaddsubfx:_ZN13Fl_Osc_WidgetC1Ev
zynaddsubfx:_ZN13Fl_Osc_WidgetC2ENSt7__cxx1112basic_stringIcSt11char_traitsIcESaIcEEEP16Fl_Osc_Interface
zynaddsubfx:_ZN13Fl_Osc_WidgetC2EP9Fl_Widget
zynaddsubfx:_ZN13Fl_Osc_WidgetC2Ev
zynaddsubfx:_ZN13Fl_Osc_WidgetD0Ev
zynaddsubfx:_ZN13Fl_Osc_WidgetD1Ev
zynaddsubfx:_ZN13Fl_Osc_WidgetD2Ev
zynaddsubfx:_ZN13Fl_Osc_Window12update_titleEv
zynaddsubfx:_ZN13Fl_Osc_Window4initEP16Fl_Osc_InterfaceNSt7__cxx1112basic_stringIcSt11char_traitsIcESaIcEEE
zynaddsubfx:_ZN13Fl_Osc_Window6rebaseENSt7__cxx1112basic_stringIcSt11char_traitsIcESaIcEEE
zynaddsubfx:_ZN13Fl_Osc_Window6updateEv
zynaddsubfx:_ZN13Fl_Osc_WindowC1EiiPKc
zynaddsubfx:_ZN13Fl_Osc_WindowC2EiiPKc
zynaddsubfx:_ZN13Fl_Osc_WindowD0Ev
zynaddsubfx:_ZN13Fl_Osc_WindowD1Ev
zynaddsubfx:_ZN13Fl_Osc_WindowD2Ev
zynaddsubfx:_ZN13Oscilharmonic11make_windowEv
zynaddsubfx:_ZN13Oscilharmonic4initEiP8Fl_GroupNSt7__cxx1112basic_stringIcSt11char_traitsIcESaIcEEEP16Fl_Osc_Interface
zynaddsubfx:_ZN13Oscilharmonic6cb_magEP8OGSliderPv
zynaddsubfx:_ZN13Oscilharmonic7refreshEv
zynaddsubfx:_ZN13Oscilharmonic8cb_phaseEP8OGSliderPv
zynaddsubfx:_ZN13OscilharmonicC1EiiiiPKc
zynaddsubfx:_ZN13OscilharmonicC2EiiiiPKc
zynaddsubfx:_ZN13OscilharmonicD0Ev
zynaddsubfx:_ZN13OscilharmonicD1Ev
zynaddsubfx:_ZN13OscilharmonicD2Ev
zynaddsubfx:_ZN13Panellistitem11cb_partnameEP14PartNameButtonPv
zynaddsubfx:_ZN13Panellistitem11make_windowEv
zynaddsubfx:_ZN13Panellistitem14cb_partenabledEP12Fl_Osc_CheckPv
zynaddsubfx:_ZN13Panellistitem4initEiP6BankUIP6PartUI
zynaddsubfx:_ZN13Panellistitem7cb_editEP9Fl_ButtonPv
zynaddsubfx:_ZN13Panellistitem7refreshEv
zynaddsubfx:_ZN13PanellistitemC1EiiiiPKc
zynaddsubfx:_ZN13PanellistitemC2EiiiiPKc
zynaddsubfx:_ZN13PanellistitemD0Ev
zynaddsubfx:_ZN13PanellistitemD1Ev
zynaddsubfx:_ZN13PanellistitemD2Ev
zynaddsubfx:_ZN14Fl_Osc_Counter2cbEv
zynaddsubfx:_ZN14Fl_Osc_Counter4initEPKcci
zynaddsubfx:_ZN14Fl_Osc_Counter6updateEv
zynaddsubfx:_ZN14Fl_Osc_Counter8callbackEPFvP9Fl_WidgetPvES2_
zynaddsubfx:_ZN14Fl_Osc_Counter9OSC_valueEc
zynaddsubfx:_ZN14Fl_Osc_Counter9OSC_valueEi
zynaddsubfx:_ZN14Fl_Osc_CounterC1EiiiiPKc
zynaddsubfx:_ZN14Fl_Osc_CounterC2EiiiiPKc
zynaddsubfx:_ZN14Fl_Osc_TSlider12set_roundingEj
zynaddsubfx:_ZN14Fl_Osc_TSlider13set_transformEPFffE
zynaddsubfx:_ZN14Fl_Osc_TSlider6handleEi
zynaddsubfx:_ZN14Fl_Osc_TSliderC1EiiiiPKc
zynaddsubfx:_ZN14Fl_Osc_TSliderC2EiiiiPKc
zynaddsubfx:_ZN14Fl_Osc_TSliderD0Ev
zynaddsubfx:_ZN14Fl_Osc_TSliderD1Ev
zynaddsubfx:_ZN14Fl_Osc_TSliderD2Ev
zynaddsubfx:_ZN14Fl_Osc_VSlider4drawEv
zynaddsubfx:_ZN14Fl_Osc_VSlider4initENSt7__cxx1112basic_stringIcSt11char_traitsIcESaIcEEEc
zynaddsubfx:_ZN14Fl_Osc_VSlider6handleEi
zynaddsubfx:_ZN14Fl_Osc_VSliderC1EiiiiPKc
zynaddsubfx:_ZN14Fl_Osc_VSliderC2EiiiiPKc
zynaddsubfx:_ZN14Fl_Osc_VSliderD0Ev
zynaddsubfx:_ZN14Fl_Osc_VSliderD1Ev
zynaddsubfx:_ZN14Fl_Osc_VSliderD2Ev
zynaddsubfx:_ZN14PartNameButton9OSC_valueEPKc
zynaddsubfx:_ZN14PartNameButtonC1EiiiiPKc
zynaddsubfx:_ZN14PartNameButtonC2EiiiiPKc
zynaddsubfx:_ZN14PartSysEffSend11make_windowEv
zynaddsubfx:_ZN14PartSysEffSend4initEii
zynaddsubfx:_ZN14PartSysEffSend6rebaseEi
zynaddsubfx:_ZN14PartSysEffSendC1EiiiiPKc
zynaddsubfx:_ZN14PartSysEffSendC2EiiiiPKc
zynaddsubfx:_ZN14PartSysEffSendD0Ev
zynaddsubfx:_ZN14PartSysEffSendD1Ev
zynaddsubfx:_ZN14PartSysEffSendD2Ev
zynaddsubfx:_ZN15ADvoicelistitem11make_windowEv
zynaddsubfx:_ZN15ADvoicelistitem11refreshlistEv
zynaddsubfx:_ZN15ADvoicelistitem14cb_voicedetuneEP13Fl_Osc_SliderPv
zynaddsubfx:_ZN15ADvoicelistitem15cb_voiceenabledEP12Fl_Osc_CheckPv
zynaddsubfx:_ZN15ADvoicelistitem4initEiNSt7__cxx1112basic_stringIcSt11char_traitsIcESaIcEEEP16Fl_Osc_Interface
zynaddsubfx:_ZN15ADvoicelistitem7cb_editEP9Fl_ButtonPv
zynaddsubfx:_ZN15ADvoicelistitemC1EiiiiPKc
zynaddsubfx:_ZN15ADvoicelistitemC2EiiiiPKc
zynaddsubfx:_ZN15ADvoicelistitemD0Ev
zynaddsubfx:_ZN15ADvoicelistitemD1Ev
zynaddsubfx:_ZN15ADvoicelistitemD2Ev
zynaddsubfx:_ZN15Fl_Osc_ListView4initEPKc
zynaddsubfx:_ZN15Fl_Osc_ListView6appendENSt7__cxx1112basic_stringIcSt11char_traitsIcESaIcEEE
zynaddsubfx:_ZN15Fl_Osc_ListView6doMoveEii
zynaddsubfx:_ZN15Fl_Osc_ListView6insertENSt7__cxx1112basic_stringIcSt11char_traitsIcESaIcEEEi
zynaddsubfx:_ZN15Fl_Osc_ListView6updateEv
zynaddsubfx:_ZN15Fl_Osc_ListView8doRemoveEi
zynaddsubfx:_ZN15Fl_Osc_ListView8doUpdateESt6vectorINSt7__cxx1112basic_stringIcSt11char_traitsIcESaIcEEESaIS6_EE
zynaddsubfx:_ZN15Fl_Osc_ListViewC1EiiiiPKc
zynaddsubfx:_ZN15Fl_Osc_ListViewC2EiiiiPKc
zynaddsubfx:_ZN15Fl_Osc_ListViewD0Ev
zynaddsubfx:_ZN15Fl_Osc_ListViewD1Ev
zynaddsubfx:_ZN15Fl_Osc_ListViewD2Ev
zynaddsubfx:_ZN15SUBnoteharmonic11make_windowEv
zynaddsubfx:_ZN15SUBnoteharmonic4initEi
zynaddsubfx:_ZN15SUBnoteharmonic7refreshEv
zynaddsubfx:_ZN15SUBnoteharmonicC1EiiiiPKc
zynaddsubfx:_ZN15SUBnoteharmonicC2EiiiiPKc
zynaddsubfx:_ZN15SUBnoteharmonicD0Ev
zynaddsubfx:_ZN15SUBnoteharmonicD1Ev
zynaddsubfx:_ZN15SUBnoteharmonicD2Ev
zynaddsubfx:_ZN16BankViewControls4modeEi
zynaddsubfx:_ZN16BankViewControlsC1EiiiiPKc
zynaddsubfx:_ZN16BankViewControlsC2EiiiiPKc
zynaddsubfx:_ZN16EnvelopeFreeEdit4drawEv
zynaddsubfx:_ZN16EnvelopeFreeEdit4initEv
zynaddsubfx:_ZN16EnvelopeFreeEdit6handleEi
zynaddsubfx:_ZN16EnvelopeFreeEdit6rebaseENSt7__cxx1112basic_stringIcSt11char_traitsIcESaIcEEE
zynaddsubfx:_ZN16EnvelopeFreeEdit6updateEv
zynaddsubfx:_ZN16EnvelopeFreeEdit7OSC_rawEPKc
zynaddsubfx:_ZN16EnvelopeFreeEdit7setpairEP6Fl_Box
zynaddsubfx:_ZN16EnvelopeFreeEditC1EiiiiPKc
zynaddsubfx:_ZN16EnvelopeFreeEditC2EiiiiPKc
zynaddsubfx:_ZN18Fl_Resonance_Graph11setcbwidgetEP9Fl_WidgetS1_
zynaddsubfx:_ZN18Fl_Resonance_Graph14draw_freq_lineEfi
zynaddsubfx:_ZN18Fl_Resonance_Graph4drawEv
zynaddsubfx:_ZN18Fl_Resonance_Graph4initEP15Fl_Value_OutputS1_
zynaddsubfx:_ZN18Fl_Resonance_Graph6handleEi
zynaddsubfx:_ZN18Fl_Resonance_Graph6updateEv
zynaddsubfx:_ZN18Fl_Resonance_Graph7OSC_rawEPKc
zynaddsubfx:_ZN18Fl_Resonance_Graph8setPointEii
zynaddsubfx:_ZN18Fl_Resonance_GraphC1EiiiiPKc
zynaddsubfx:_ZN18Fl_Resonance_GraphC2EiiiiPKc
zynaddsubfx:_ZN18Fl_Resonance_GraphD0Ev
zynaddsubfx:_ZN18Fl_Resonance_GraphD1Ev
zynaddsubfx:_ZN18Fl_Resonance_GraphD2Ev
zynaddsubfx:_ZN18FormantFilterGraph10getfreqposEf
zynaddsubfx:_ZN18FormantFilterGraph11getformantqEh
zynaddsubfx:_ZN18FormantFilterGraph13getcenterfreqEv
zynaddsubfx:_ZN18FormantFilterGraph13getformantampEh
zynaddsubfx:_ZN18FormantFilterGraph14draw_freq_lineEfi
zynaddsubfx:_ZN18FormantFilterGraph14formantfilterHEiiPf
zynaddsubfx:_ZN18FormantFilterGraph14getformantfreqEh
zynaddsubfx:_ZN18FormantFilterGraph14getoctavesfreqEv
zynaddsubfx:_ZN18FormantFilterGraph4drawEv
zynaddsubfx:_ZN18FormantFilterGraph4getqEv
zynaddsubfx:_ZN18FormantFilterGraph4initEPiS0_
zynaddsubfx:_ZN18FormantFilterGraph6rebaseENSt7__cxx1112basic_stringIcSt11char_traitsIcESaIcEEE
zynaddsubfx:_ZN18FormantFilterGraph6updateEv
zynaddsubfx:_ZN18FormantFilterGraph7getgainEv
zynaddsubfx:_ZN18FormantFilterGraph8getfreqxEf
zynaddsubfx:_ZN18FormantFilterGraph9OSC_valueEiPKc
zynaddsubfx:_ZN18FormantFilterGraph9OSC_valueEjPv
zynaddsubfx:_ZN18FormantFilterGraphC1EiiiiPKc
zynaddsubfx:_ZN18FormantFilterGraphC2EiiiiPKc
zynaddsubfx:_ZN18FormantFilterGraphD0Ev
zynaddsubfx:_ZN18FormantFilterGraphD1Ev
zynaddsubfx:_ZN18FormantFilterGraphD2Ev
zynaddsubfx:_ZN20Fl_Osc_Numeric_Input16numeric_callbackEP9Fl_Widget
zynaddsubfx:_ZN20Fl_Osc_Numeric_Input4initEPKc
zynaddsubfx:_ZN20Fl_Osc_Numeric_Input9OSC_valueEf
zynaddsubfx:_ZN20Fl_Osc_Numeric_Input9OSC_valueEi
zynaddsubfx:_ZN20Fl_Osc_Numeric_InputC1EiiiiPKc
zynaddsubfx:_ZN20Fl_Osc_Numeric_InputC2EiiiiPKc
zynaddsubfx:_ZN20Fl_Osc_Numeric_InputD0Ev
zynaddsubfx:_ZN20Fl_Osc_Numeric_InputD1Ev
zynaddsubfx:_ZN20Fl_Osc_Numeric_InputD2Ev
zynaddsubfx:_ZN22Value_Smoothing_Filter11sample_rateEm
zynaddsubfx:_ZN22Value_Smoothing_Filter5applyEPfmf
zynaddsubfx:_ZN3GUI15genOscInterfaceEPN3zyn10MiddleWareE
zynaddsubfx:_ZN3GUI6tickUiEPv
zynaddsubfx:_ZN3GUI7raiseUiEPvPKc
zynaddsubfx:_ZN3GUI7raiseUiEPvPKcS2_z
zynaddsubfx:_ZN3GUI8createUiEP16Fl_Osc_InterfacePv
zynaddsubfx:_ZN3GUI9destroyUiEPv
zynaddsubfx:_ZN3NSM6Client11init_threadEPKc
zynaddsubfx:_ZN3NSM6Client13osc_broadcastEPKcS2_PP6lo_argiPvS6_
zynaddsubfx:_ZN3NSM6Client18osc_announce_replyEPKcS2_PP6lo_argiPvS6_
zynaddsubfx:_ZN3NSM6Client21osc_session_is_loadedEPKcS2_PP6lo_argiPvS6_
zynaddsubfx:_ZN3NSM6Client4initEPKc
zynaddsubfx:_ZN3NSM6Client4stopEv
zynaddsubfx:_ZN3NSM6Client5checkEi
zynaddsubfx:_ZN3NSM6Client5startEv
zynaddsubfx:_ZN3NSM6Client7messageEiPKc
zynaddsubfx:_ZN3NSM6Client8announceEPKcS2_S2_
zynaddsubfx:_ZN3NSM6Client8is_cleanEv
zynaddsubfx:_ZN3NSM6Client8is_dirtyEv
zynaddsubfx:_ZN3NSM6Client8osc_openEPKcS2_PP6lo_argiPvS6_
zynaddsubfx:_ZN3NSM6Client8osc_saveEPKcS2_PP6lo_argiPvS6_
zynaddsubfx:_ZN3NSM6Client8progressEf
zynaddsubfx:_ZN3NSM6Client9broadcastEPv
zynaddsubfx:_ZN3NSM6Client9osc_errorEPKcS2_PP6lo_argiPvS6_
zynaddsubfx:_ZN3NSM6ClientC1Ev
zynaddsubfx:_ZN3NSM6ClientC2Ev
zynaddsubfx:_ZN3NSM6ClientD0Ev
zynaddsubfx:_ZN3NSM6ClientD1Ev
zynaddsubfx:_ZN3NSM6ClientD2Ev
zynaddsubfx:_ZN3zyn10AlsaEngine10MidiThreadEv
zynaddsubfx:_ZN3zyn10AlsaEngine10interleaveERKNS_6StereoIPfEE
zynaddsubfx:_ZN3zyn10AlsaEngine10setAudioEnEb
zynaddsubfx:_ZN3zyn10AlsaEngine11AudioThreadEv
zynaddsubfx:_ZN3zyn10AlsaEngine11_MidiThreadEPv
zynaddsubfx:_ZN3zyn10AlsaEngine12_AudioThreadEPv
zynaddsubfx:_ZN3zyn10AlsaEngine12processAudioEv
zynaddsubfx:_ZN3zyn10AlsaEngine4StopEv
zynaddsubfx:_ZN3zyn10AlsaEngine5StartEv
zynaddsubfx:_ZN3zyn10AlsaEngine8openMidiEv
zynaddsubfx:_ZN3zyn10AlsaEngine8stopMidiEv
zynaddsubfx:_ZN3zyn10AlsaEngine9openAudioEv
zynaddsubfx:_ZN3zyn10AlsaEngine9setMidiEnEb
zynaddsubfx:_ZN3zyn10AlsaEngine9stopAudioEv
zynaddsubfx:_ZN3zyn10AlsaEngineC1ERKNS_7SYNTH_TE
zynaddsubfx:_ZN3zyn10AlsaEngineC2ERKNS_7SYNTH_TE
zynaddsubfx:_ZN3zyn10AlsaEngineD0Ev
zynaddsubfx:_ZN3zyn10AlsaEngineD1Ev
zynaddsubfx:_ZN3zyn10AlsaEngineD2Ev
zynaddsubfx:_ZN3zyn10CombFilter13setfreq_and_qEff
zynaddsubfx:_ZN3zyn10CombFilter4setqEf
zynaddsubfx:_ZN3zyn10CombFilter7setfreqEf
zynaddsubfx:_ZN3zyn10CombFilter7setgainEf
zynaddsubfx:_ZN3zyn10CombFilter7settypeEh
zynaddsubfx:_ZN3zyn10CombFilter9filteroutEPf
zynaddsubfx:_ZN3zyn10CombFilterC1EPNS_9AllocatorEhffji
zynaddsubfx:_ZN3zyn10CombFilterC2EPNS_9AllocatorEhffji
zynaddsubfx:_ZN3zyn10CombFilterD0Ev
zynaddsubfx:_ZN3zyn10CombFilterD1Ev
zynaddsubfx:_ZN3zyn10CombFilterD2Ev
zynaddsubfx:_ZN3zyn10Controller10getfromXMLERNS_10XMLwrapperE
zynaddsubfx:_ZN3zyn10Controller10setfilterqEi
zynaddsubfx:_ZN3zyn10Controller10setfilterqEv
zynaddsubfx:_ZN3zyn10Controller10setpanningEi
zynaddsubfx:_ZN3zyn10Controller10setpanningEv
zynaddsubfx:_ZN3zyn10Controller10setsustainEi
zynaddsubfx:_ZN3zyn10Controller10setsustainEv
zynaddsubfx:_ZN3zyn10Controller11setmodwheelEi
zynaddsubfx:_ZN3zyn10Controller11setmodwheelEv
zynaddsubfx:_ZN3zyn10Controller12setbandwidthEi
zynaddsubfx:_ZN3zyn10Controller12setbandwidthEv
zynaddsubfx:_ZN3zyn10Controller13setexpressionEi
zynaddsubfx:_ZN3zyn10Controller13setexpressionEv
zynaddsubfx:_ZN3zyn10Controller13setpitchwheelEi
zynaddsubfx:_ZN3zyn10Controller13setpitchwheelEv
zynaddsubfx:_ZN3zyn10Controller13setportamentoEi
zynaddsubfx:_ZN3zyn10Controller14setresonancebwEi
zynaddsubfx:_ZN3zyn10Controller14setresonancebwEv
zynaddsubfx:_ZN3zyn10Controller15setfiltercutoffEi
zynaddsubfx:_ZN3zyn10Controller15setfiltercutoffEv
zynaddsubfx:_ZN3zyn10Controller18setparameternumberEji
zynaddsubfx:_ZN3zyn10Controller18setresonancecenterEi
zynaddsubfx:_ZN3zyn10Controller18setresonancecenterEv
zynaddsubfx:_ZN3zyn10Controller5portsE
zynaddsubfx:_ZN3zyn10Controller7add2XMLERNS_10XMLwrapperE
zynaddsubfx:_ZN3zyn10Controller7getnrpnEPiS1_S1_S1_
zynaddsubfx:_ZN3zyn10Controller8defaultsEv
zynaddsubfx:_ZN3zyn10Controller8resetallEv
zynaddsubfx:_ZN3zyn10Controller8setfmampEi
zynaddsubfx:_ZN3zyn10Controller8setfmampEv
zynaddsubfx:_ZN3zyn10Controller9setvolumeEi
zynaddsubfx:_ZN3zyn10Controller9setvolumeEv
zynaddsubfx:_ZN3zyn10ControllerC1ERKNS_7SYNTH_TEPKNS_7AbsTimeE
zynaddsubfx:_ZN3zyn10ControllerC2ERKNS_7SYNTH_TEPKNS_7AbsTimeE
zynaddsubfx:_ZN3zyn10Distortion12applyfiltersEPfS1_
zynaddsubfx:_ZN3zyn10Distortion12getpresetparEhj
zynaddsubfx:_ZN3zyn10Distortion3outERKNS_6StereoIPfEE
zynaddsubfx:_ZN3zyn10Distortion5portsE
zynaddsubfx:_ZN3zyn10Distortion6sethpfEh
zynaddsubfx:_ZN3zyn10Distortion6setlpfEh
zynaddsubfx:_ZN3zyn10Distortion7cleanupEv
zynaddsubfx:_ZN3zyn10Distortion9changeparEih
zynaddsubfx:_ZN3zyn10Distortion9setpresetEh
zynaddsubfx:_ZN3zyn10Distortion9setvolumeEh
zynaddsubfx:_ZN3zyn10DistortionC1ENS_12EffectParamsE
zynaddsubfx:_ZN3zyn10DistortionC2ENS_12EffectParamsE
zynaddsubfx:_ZN3zyn10DistortionD0Ev
zynaddsubfx:_ZN3zyn10DistortionD1Ev
zynaddsubfx:_ZN3zyn10DistortionD2Ev
zynaddsubfx:_ZN3zyn10DummyAllocE
zynaddsubfx:_ZN3zyn10FFTwrapperC1Ei
zynaddsubfx:_ZN3zyn10FFTwrapperC2Ei
zynaddsubfx:_ZN3zyn10FFTwrapperD1Ev
zynaddsubfx:_ZN3zyn10FFTwrapperD2Ev
zynaddsubfx:_ZN3zyn10JackEngine10clientNameB5cxx11Ev
zynaddsubfx:_ZN3zyn10JackEngine10handleMidiEm
zynaddsubfx:_ZN3zyn10JackEngine10setAudioEnEb
zynaddsubfx:_ZN3zyn10JackEngine11connectJackEv
zynaddsubfx:_ZN3zyn10JackEngine12processAudioEj
zynaddsubfx:_ZN3zyn10JackEngine13_infoCallbackEPKc
zynaddsubfx:_ZN3zyn10JackEngine13_xrunCallbackEPv
zynaddsubfx:_ZN3zyn10JackEngine13connectServerENSt7__cxx1112basic_stringIcSt11char_traitsIcESaIcEEE
zynaddsubfx:_ZN3zyn10JackEngine14_errorCallbackEPKc
zynaddsubfx:_ZN3zyn10JackEngine14disconnectJackEv
zynaddsubfx:_ZN3zyn10JackEngine15processCallbackEj
zynaddsubfx:_ZN3zyn10JackEngine16_processCallbackEjPv
zynaddsubfx:_ZN3zyn10JackEngine18bufferSizeCallbackEj
zynaddsubfx:_ZN3zyn10JackEngine19_bufferSizeCallbackEjPv
zynaddsubfx:_ZN3zyn10JackEngine4StopEv
zynaddsubfx:_ZN3zyn10JackEngine5StartEv
zynaddsubfx:_ZN3zyn10JackEngine8clientIdEv
zynaddsubfx:_ZN3zyn10JackEngine8openMidiEv
zynaddsubfx:_ZN3zyn10JackEngine8stopMidiEv
zynaddsubfx:_ZN3zyn10JackEngine9openAudioEv
zynaddsubfx:_ZN3zyn10JackEngine9setMidiEnEb
zynaddsubfx:_ZN3zyn10JackEngine9stopAudioEv
zynaddsubfx:_ZN3zyn10JackEngineC1ERKNS_7SYNTH_TE
zynaddsubfx:_ZN3zyn10JackEngineC2ERKNS_7SYNTH_TE
zynaddsubfx:_ZN3zyn10Microtonal10getfromXMLERNS_10XMLwrapperE
zynaddsubfx:_ZN3zyn10Microtonal12tuningtolineEiPci
zynaddsubfx:_ZN3zyn10Microtonal13linetotuningsERNS_12OctaveTuningEPKc
zynaddsubfx:_ZN3zyn10Microtonal13texttomappingEPKc
zynaddsubfx:_ZN3zyn10Microtonal13texttotuningsEPKc
zynaddsubfx:_ZN3zyn10Microtonal5applyEv
zynaddsubfx:_ZN3zyn10Microtonal5portsE
zynaddsubfx:_ZN3zyn10Microtonal7loadXMLEPKc
zynaddsubfx:_ZN3zyn10Microtonal7loadkbmERNS_7KbmInfoEPKc
zynaddsubfx:_ZN3zyn10Microtonal7loadsclERNS_7SclInfoEPKc
zynaddsubfx:_ZN3zyn10Microtonal8defaultsEv
zynaddsubfx:_ZN3zyn10Microtonal8loadlineEP8_IO_FILEPc
zynaddsubfx:_ZN3zyn10MicrotonalC1ERKi
zynaddsubfx:_ZN3zyn10MicrotonalC2ERKi
zynaddsubfx:_ZN3zyn10MicrotonalD1Ev
zynaddsubfx:_ZN3zyn10MicrotonalD2Ev
zynaddsubfx:_ZN3zyn10MiddleWare10spawnUiApiEv
zynaddsubfx:_ZN3zyn10MiddleWare11getAllPortsEv
zynaddsubfx:_ZN3zyn10MiddleWare11spawnMasterEv
zynaddsubfx:_ZN3zyn10MiddleWare11transmitMsgEPKc
zynaddsubfx:_ZN3zyn10MiddleWare11transmitMsgEPKcS2_z
zynaddsubfx:_ZN3zyn10MiddleWare12doReadOnlyOpESt8functionIFvvEE
zynaddsubfx:_ZN3zyn10MiddleWare12switchMasterEPNS_6MasterE
zynaddsubfx:_ZN3zyn10MiddleWare13setUiCallbackEPFvPvPKcES1_
zynaddsubfx:_ZN3zyn10MiddleWare14enableAutoSaveEi
zynaddsubfx:_ZN3zyn10MiddleWare14pendingSetBankEi
zynaddsubfx:_ZN3zyn10MiddleWare14removeAutoSaveEv
zynaddsubfx:_ZN3zyn10MiddleWare14transmitMsgGuiEPKc
zynaddsubfx:_ZN3zyn10MiddleWare14transmitMsgGuiEPKcS2_z
zynaddsubfx:_ZN3zyn10MiddleWare14transmitMsg_vaEPKcS2_P13__va_list_tag
zynaddsubfx:_ZN3zyn10MiddleWare15getPresetsStoreEv
zynaddsubfx:_ZN3zyn10MiddleWare15messageAnywhereEPKcS2_z
zynaddsubfx:_ZN3zyn10MiddleWare15setIdleCallbackEPFvPvES1_
zynaddsubfx:_ZN3zyn10MiddleWare15updateResourcesEPNS_6MasterE
zynaddsubfx:_ZN3zyn10MiddleWare17pendingSetProgramEii
zynaddsubfx:_ZN3zyn10MiddleWare17transmitMsgGui_vaEPKcS2_P13__va_list_tag
zynaddsubfx:_ZN3zyn10MiddleWare27discardAllbToUButHandleFreeEv
zynaddsubfx:_ZN3zyn10MiddleWare4tickEv
zynaddsubfx:_ZN3zyn10MiddleWare9activeUrlENSt7__cxx1112basic_stringIcSt11char_traitsIcESaIcEEE
zynaddsubfx:_ZN3zyn10MiddleWareC1ENS_7SYNTH_TEPNS_6ConfigEi
zynaddsubfx:_ZN3zyn10MiddleWareC2ENS_7SYNTH_TEPNS_6ConfigEi
zynaddsubfx:_ZN3zyn10MiddleWareD1Ev
zynaddsubfx:_ZN3zyn10MiddleWareD2Ev
zynaddsubfx:_ZN3zyn10MoogFilter13setfreq_and_qEff
zynaddsubfx:_ZN3zyn10MoogFilter4setqEf
zynaddsubfx:_ZN3zyn10MoogFilter7setfreqEf
zynaddsubfx:_ZN3zyn10MoogFilter7setgainEf
zynaddsubfx:_ZN3zyn10MoogFilter7settypeEh
zynaddsubfx:_ZN3zyn10MoogFilter9filteroutEPf
zynaddsubfx:_ZN3zyn10MoogFilterC1Ehffji
zynaddsubfx:_ZN3zyn10MoogFilterC2Ehffji
zynaddsubfx:_ZN3zyn10MoogFilterD0Ev
zynaddsubfx:_ZN3zyn10MoogFilterD1Ev
zynaddsubfx:_ZN3zyn10MoogFilterD2Ev
zynaddsubfx:_ZN3zyn10MultiQueueC1Ev
zynaddsubfx:_ZN3zyn10MultiQueueC2Ev
zynaddsubfx:_ZN3zyn10MultiQueueD1Ev
zynaddsubfx:_ZN3zyn10MultiQueueD2Ev
zynaddsubfx:_ZN3zyn10Portamento4initERKNS_10ControllerERKNS_7SYNTH_TEbfff
zynaddsubfx:_ZN3zyn10Portamento6updateEv
zynaddsubfx:_ZN3zyn10PortamentoC1ERKNS_10ControllerERKNS_7SYNTH_TEbfff
zynaddsubfx:_ZN3zyn10PortamentoC2ERKNS_10ControllerERKNS_7SYNTH_TEbfff
zynaddsubfx:_ZN3zyn10WatchPoint8is_emptyEv
zynaddsubfx:_ZN3zyn10WatchPoint9is_activeEv
zynaddsubfx:_ZN3zyn10WatchPointC1EPNS_12WatchManagerEPKcS4_
zynaddsubfx:_ZN3zyn10WatchPointC2EPNS_12WatchManagerEPKcS4_
zynaddsubfx:_ZN3zyn10XMLwrapper10addparboolERKNSt7__cxx1112basic_stringIcSt11char_traitsIcESaIcEEEi
zynaddsubfx:_ZN3zyn10XMLwrapper10addparrealERKNSt7__cxx1112basic_stringIcSt11char_traitsIcESaIcEEEf
zynaddsubfx:_ZN3zyn10XMLwrapper10exitbranchEv
zynaddsubfx:_ZN3zyn10XMLwrapper10putXMLdataEPKc
zynaddsubfx:_ZN3zyn10XMLwrapper11beginbranchERKNSt7__cxx1112basic_stringIcSt11char_traitsIcESaIcEEE
zynaddsubfx:_ZN3zyn10XMLwrapper11beginbranchERKNSt7__cxx1112basic_stringIcSt11char_traitsIcESaIcEEEi
zynaddsubfx:_ZN3zyn10XMLwrapper11enterbranchERKNSt7__cxx1112basic_stringIcSt11char_traitsIcESaIcEEE
zynaddsubfx:_ZN3zyn10XMLwrapper11enterbranchERKNSt7__cxx1112basic_stringIcSt11char_traitsIcESaIcEEEi
zynaddsubfx:_ZN3zyn10XMLwrapper11loadXMLfileERKNSt7__cxx1112basic_stringIcSt11char_traitsIcESaIcEEE
zynaddsubfx:_ZN3zyn10XMLwrapper11setPadSynthEb
zynaddsubfx:_ZN3zyn10XMLwrapper3addERKNS_7XmlNodeE
zynaddsubfx:_ZN3zyn10XMLwrapper6addparERKNSt7__cxx1112basic_stringIcSt11char_traitsIcESaIcEEEi
zynaddsubfx:_ZN3zyn10XMLwrapper7cleanupEv
zynaddsubfx:_ZN3zyn10XMLwrapper9addparstrERKNSt7__cxx1112basic_stringIcSt11char_traitsIcESaIcEEES8_
zynaddsubfx:_ZN3zyn10XMLwrapper9endbranchEv
zynaddsubfx:_ZN3zyn10XMLwrapperC1Ev
zynaddsubfx:_ZN3zyn10XMLwrapperC2Ev
zynaddsubfx:_ZN3zyn10XMLwrapperD1Ev
zynaddsubfx:_ZN3zyn10XMLwrapperD2Ev
zynaddsubfx:_ZN3zyn10deallocateEPKcPv
zynaddsubfx:_ZN3zyn10fileexistsEPKc
zynaddsubfx:_ZN3zyn10getUrlTypeENSt7__cxx1112basic_stringIcSt11char_traitsIcESaIcEEE
zynaddsubfx:_ZN3zyn10idsFromMsgEPKcPiS2_S2_Pb
zynaddsubfx:_ZN3zyn10presetCopyERNS_10MiddleWareENSt7__cxx1112basic_stringIcSt11char_traitsIcESaIcEEES7_
zynaddsubfx:_ZN3zyn10prng_stateE
zynaddsubfx:_ZN3zyn11FFT_cleanupEv
zynaddsubfx:_ZN3zyn11Sympathetic12applyfiltersEPfS1_
zynaddsubfx:_ZN3zyn11Sympathetic12getpresetparEhj
zynaddsubfx:_ZN3zyn11Sympathetic14calcFreqsPianoEv
zynaddsubfx:_ZN3zyn11Sympathetic15calcFreqsGuitarEv
zynaddsubfx:_ZN3zyn11Sympathetic16calcFreqsGenericEv
zynaddsubfx:_ZN3zyn11Sympathetic3outERKNS_6StereoIPfEE
zynaddsubfx:_ZN3zyn11Sympathetic5portsE
zynaddsubfx:_ZN3zyn11Sympathetic6sethpfEh
zynaddsubfx:_ZN3zyn11Sympathetic6setlpfEh
zynaddsubfx:_ZN3zyn11Sympathetic7cleanupEv
zynaddsubfx:_ZN3zyn11Sympathetic9calcFreqsEv
zynaddsubfx:_ZN3zyn11Sympathetic9changeparEih
zynaddsubfx:_ZN3zyn11Sympathetic9setpresetEh
zynaddsubfx:_ZN3zyn11Sympathetic9setvolumeEh
zynaddsubfx:_ZN3zyn11SympatheticC1ENS_12EffectParamsE
zynaddsubfx:_ZN3zyn11SympatheticC2ENS_12EffectParamsE
zynaddsubfx:_ZN3zyn11SympatheticD0Ev
zynaddsubfx:_ZN3zyn11SympatheticD1Ev
zynaddsubfx:_ZN3zyn11SympatheticD2Ev
zynaddsubfx:_ZN3zyn11doClassCopyENSt7__cxx1112basic_stringIcSt11char_traitsIcESaIcEEERNS_10MiddleWareES5_S5_
zynaddsubfx:_ZN3zyn11fast_strcpyEPcPKcm
zynaddsubfx:_ZN3zyn11interpolateEPKfmf
zynaddsubfx:_ZN3zyn11presetPasteERNS_10MiddleWareENSt7__cxx1112basic_stringIcSt11char_traitsIcESaIcEEES7_
zynaddsubfx:_ZN3zyn11rtosc_splatEPKcSt3setINSt7__cxx1112basic_stringIcSt11char_traitsIcESaIcEEESt4lessIS8_ESaIS8_EE
zynaddsubfx:_ZN3zyn12AnalogFilter12computeCoeffEiffiffRi
zynaddsubfx:_ZN3zyn12AnalogFilter13setfreq_and_qEff
zynaddsubfx:_ZN3zyn12AnalogFilter15singlefilteroutEPfRNS0_6fstageEfj
zynaddsubfx:_ZN3zyn12AnalogFilter18computefiltercoefsEff
zynaddsubfx:_ZN3zyn12AnalogFilter1HEf
zynaddsubfx:_ZN3zyn12AnalogFilter4setqEf
zynaddsubfx:_ZN3zyn12AnalogFilter7cleanupEv
zynaddsubfx:_ZN3zyn12AnalogFilter7setfreqEf
zynaddsubfx:_ZN3zyn12AnalogFilter7setgainEf
zynaddsubfx:_ZN3zyn12AnalogFilter7settypeEi
zynaddsubfx:_ZN3zyn12AnalogFilter9filteroutEPf
zynaddsubfx:_ZN3zyn12AnalogFilter9setstagesEi
zynaddsubfx:_ZN3zyn12AnalogFilterC1Ehffhji
zynaddsubfx:_ZN3zyn12AnalogFilterC2Ehffhji
zynaddsubfx:_ZN3zyn12AnalogFilterD0Ev
zynaddsubfx:_ZN3zyn12AnalogFilterD1Ev
zynaddsubfx:_ZN3zyn12AnalogFilterD2Ev
zynaddsubfx:_ZN3zyn12EffectParamsC1ERNS_9AllocatorEbPfS3_hjiPNS_12FilterParamsEb
zynaddsubfx:_ZN3zyn12EffectParamsC2ERNS_9AllocatorEbPfS3_hjiPNS_12FilterParamsEb
zynaddsubfx:_ZN3zyn12FilterParams10getfromXMLERNS_10XMLwrapperE
zynaddsubfx:_ZN3zyn12FilterParams10pasteArrayERS0_i
zynaddsubfx:_ZN3zyn12FilterParams14add2XMLsectionERNS_10XMLwrapperEi
zynaddsubfx:_ZN3zyn12FilterParams14baseqFromOldPqEi
zynaddsubfx:_ZN3zyn12FilterParams16gainFromOldPgainEi
zynaddsubfx:_ZN3zyn12FilterParams17getfromXMLsectionERNS_10XMLwrapperEi
zynaddsubfx:_ZN3zyn12FilterParams19basefreqFromOldPreqEi
zynaddsubfx:_ZN3zyn12FilterParams19getfromFilterParamsEPKS0_
zynaddsubfx:_ZN3zyn12FilterParams5pasteERS0_
zynaddsubfx:_ZN3zyn12FilterParams5portsE
zynaddsubfx:_ZN3zyn12FilterParams5setupEv
zynaddsubfx:_ZN3zyn12FilterParams7add2XMLERNS_10XMLwrapperE
zynaddsubfx:_ZN3zyn12FilterParams8defaultsEi
zynaddsubfx:_ZN3zyn12FilterParams8defaultsEv
zynaddsubfx:_ZN3zyn12FilterParams9updateLocEi
zynaddsubfx:_ZN3zyn12FilterParams9updateLocEii
zynaddsubfx:_ZN3zyn12FilterParamsC1EPKNS_7AbsTimeE
zynaddsubfx:_ZN3zyn12FilterParamsC1EhhhiPKNS_7AbsTimeE
zynaddsubfx:_ZN3zyn12FilterParamsC1EiPKNS_7AbsTimeE
zynaddsubfx:_ZN3zyn12FilterParamsC2EPKNS_7AbsTimeE
zynaddsubfx:_ZN3zyn12FilterParamsC2EhhhiPKNS_7AbsTimeE
zynaddsubfx:_ZN3zyn12FilterParamsC2EiPKNS_7AbsTimeE
zynaddsubfx:_ZN3zyn12FilterParamsD0Ev
zynaddsubfx:_ZN3zyn12FilterParamsD1Ev
zynaddsubfx:_ZN3zyn12FilterParamsD2Ev
zynaddsubfx:_ZN3zyn12PexitprogramE
zynaddsubfx:_ZN3zyn12PresetsArray13setpresettypeEPKc
zynaddsubfx:_ZN3zyn12PresetsArray4copyERNS_12PresetsStoreEPKc
zynaddsubfx:_ZN3zyn12PresetsArray4copyERNS_12PresetsStoreEiPKc
zynaddsubfx:_ZN3zyn12PresetsArrayC1Ev
zynaddsubfx:_ZN3zyn12PresetsArrayC2Ev
zynaddsubfx:_ZN3zyn12PresetsArrayD0Ev
zynaddsubfx:_ZN3zyn12PresetsArrayD1Ev
zynaddsubfx:_ZN3zyn12PresetsArrayD2Ev
zynaddsubfx:_ZN3zyn12PresetsStore10copypresetERNS_10XMLwrapperEPcNSt7__cxx1112basic_stringIcSt11char_traitsIcESaIcEEE
zynaddsubfx:_ZN3zyn12PresetsStore11pastepresetERNS_10XMLwrapperEj
zynaddsubfx:_ZN3zyn12PresetsStore12clearpresetsEv
zynaddsubfx:_ZN3zyn12PresetsStore12deletepresetENSt7__cxx1112basic_stringIcSt11char_traitsIcESaIcEEE
zynaddsubfx:_ZN3zyn12PresetsStore12deletepresetEj
zynaddsubfx:_ZN3zyn12PresetsStore13copyclipboardERNS_10XMLwrapperEPc
zynaddsubfx:_ZN3zyn12PresetsStore14pasteclipboardERNS_10XMLwrapperE
zynaddsubfx:_ZN3zyn12PresetsStore14scanforpresetsEv
zynaddsubfx:_ZN3zyn12PresetsStore18checkclipboardtypeEPKc
zynaddsubfx:_ZN3zyn12PresetsStoreC1ERKNS_6ConfigE
zynaddsubfx:_ZN3zyn12PresetsStoreC2ERKNS_6ConfigE
zynaddsubfx:_ZN3zyn12PresetsStoreD1Ev
zynaddsubfx:_ZN3zyn12PresetsStoreD2Ev
zynaddsubfx:_ZN3zyn12WatchManager13trigger_otherEi
zynaddsubfx:_ZN3zyn12WatchManager4tickEv
zynaddsubfx:_ZN3zyn12WatchManager7satisfyEPKcPfi
zynaddsubfx:_ZN3zyn12WatchManager7satisfyEPKcf
zynaddsubfx:_ZN3zyn12WatchManager9add_watchEPKc
zynaddsubfx:_ZN3zyn12WatchManager9del_watchEPKc
zynaddsubfx:_ZN3zyn12WatchManagerC1EPN5rtosc10ThreadLinkE
zynaddsubfx:_ZN3zyn12WatchManagerC2EPN5rtosc10ThreadLinkE
zynaddsubfx:_ZN3zyn12basefunc_sawEff
zynaddsubfx:_ZN3zyn12basefunc_sqrEff
zynaddsubfx:_ZN3zyn12cinterpolateEPKfmf
zynaddsubfx:_ZN3zyn12doClassPasteENSt7__cxx1112basic_stringIcSt11char_traitsIcESaIcEEES5_RNS_10MiddleWareES5_RNS_10XMLwrapperE
zynaddsubfx:_ZN3zyn12polyblampresEfff
zynaddsubfx:_ZN3zyn12presetDeleteEi
zynaddsubfx:_ZN3zyn12presetRescanEv
zynaddsubfx:_ZN3zyn12preset_portsE
zynaddsubfx:_ZN3zyn12rmsNormalizeEPSt7complexIfEi
zynaddsubfx:_ZN3zyn12set_realtimeEv
zynaddsubfx:_ZN3zyn13DynamicFilter12getpresetparEhj
zynaddsubfx:_ZN3zyn13DynamicFilter12reinitfilterEv
zynaddsubfx:_ZN3zyn13DynamicFilter15setfilterpresetEh
zynaddsubfx:_ZN3zyn13DynamicFilter3outERKNS_6StereoIPfEE
zynaddsubfx:_ZN3zyn13DynamicFilter5portsE
zynaddsubfx:_ZN3zyn13DynamicFilter7cleanupEv
zynaddsubfx:_ZN3zyn13DynamicFilter8setdepthEh
zynaddsubfx:_ZN3zyn13DynamicFilter9changeparEih
zynaddsubfx:_ZN3zyn13DynamicFilter9setampsnsEh
zynaddsubfx:_ZN3zyn13DynamicFilter9setpresetEhb
zynaddsubfx:_ZN3zyn13DynamicFilter9setvolumeEh
zynaddsubfx:_ZN3zyn13DynamicFilterC1ENS_12EffectParamsE
zynaddsubfx:_ZN3zyn13DynamicFilterC2ENS_12EffectParamsE
zynaddsubfx:_ZN3zyn13DynamicFilterD0Ev
zynaddsubfx:_ZN3zyn13DynamicFilterD1Ev
zynaddsubfx:_ZN3zyn13DynamicFilterD2Ev
zynaddsubfx:_ZN3zyn13FormantFilter13setfreq_and_qEff
zynaddsubfx:_ZN3zyn13FormantFilter4setqEf
zynaddsubfx:_ZN3zyn13FormantFilter6setposEf
zynaddsubfx:_ZN3zyn13FormantFilter7cleanupEv
zynaddsubfx:_ZN3zyn13FormantFilter7setfreqEf
zynaddsubfx:_ZN3zyn13FormantFilter7setgainEf
zynaddsubfx:_ZN3zyn13FormantFilter9filteroutEPf
zynaddsubfx:_ZN3zyn13FormantFilterC1EPKNS_12FilterParamsEPNS_9AllocatorEji
zynaddsubfx:_ZN3zyn13FormantFilterC2EPKNS_12FilterParamsEPNS_9AllocatorEji
zynaddsubfx:_ZN3zyn13FormantFilterD0Ev
zynaddsubfx:_ZN3zyn13FormantFilterD1Ev
zynaddsubfx:_ZN3zyn13FormantFilterD2Ev
zynaddsubfx:_ZN3zyn13LockFreeQueue4readEv
zynaddsubfx:_ZN3zyn13LockFreeQueue5writeEPNS_13QueueListItemE
zynaddsubfx:_ZN3zyn13LockFreeQueueC1EPNS_13QueueListItemEi
zynaddsubfx:_ZN3zyn13LockFreeQueueC2EPNS_13QueueListItemEi
zynaddsubfx:_ZN3zyn13LockFreeQueueD1Ev
zynaddsubfx:_ZN3zyn13LockFreeQueueD2Ev
zynaddsubfx:_ZN3zyn13QueueListItemC1Ev
zynaddsubfx:_ZN3zyn13QueueListItemC2Ev
zynaddsubfx:_ZN3zyn13ScratchStringC1EPKc
zynaddsubfx:_ZN3zyn13ScratchStringC1Eh
zynaddsubfx:_ZN3zyn13ScratchStringC1Ei
zynaddsubfx:_ZN3zyn13ScratchStringC1Ev
zynaddsubfx:_ZN3zyn13ScratchStringC2EPKc
zynaddsubfx:_ZN3zyn13ScratchStringC2Eh
zynaddsubfx:_ZN3zyn13ScratchStringC2Ei
zynaddsubfx:_ZN3zyn13ScratchStringC2Ev
zynaddsubfx:_ZN3zyn13ScratchStringplES0_
zynaddsubfx:_ZN3zyn13VecWatchPointC1EPNS_12WatchManagerEPKcS4_
zynaddsubfx:_ZN3zyn13VecWatchPointC2EPNS_12WatchManagerEPKcS4_
zynaddsubfx:_ZN3zyn13loadMidiLearnERNS_10XMLwrapperERN5rtosc13MidiMappernRTE
zynaddsubfx:_ZN3zyn13osc_low_shelfEjff
zynaddsubfx:_ZN3zyn13saveMidiLearnERNS_10XMLwrapperERKN5rtosc13MidiMappernRTE
zynaddsubfx:_ZN3zyn13waveShapeSmpsEiPfhhhh
zynaddsubfx:_ZN3zyn14AllocatorClass11dealloc_memEPv
zynaddsubfx:_ZN3zyn14AllocatorClass9addMemoryEPvm
zynaddsubfx:_ZN3zyn14AllocatorClass9alloc_memEm
zynaddsubfx:_ZN3zyn14CombFilterBank10setStringsEjf
zynaddsubfx:_ZN3zyn14CombFilterBank9filteroutEPf
zynaddsubfx:_ZN3zyn14CombFilterBankC1EPNS_9AllocatorEjif
zynaddsubfx:_ZN3zyn14CombFilterBankC2EPNS_9AllocatorEjif
zynaddsubfx:_ZN3zyn14CombFilterBankD1Ev
zynaddsubfx:_ZN3zyn14CombFilterBankD2Ev
zynaddsubfx:_ZN3zyn14EnvelopeParams10ASRinit_bwEcfcf
zynaddsubfx:_ZN3zyn14EnvelopeParams10env_dB2rapEf
zynaddsubfx:_ZN3zyn14EnvelopeParams10env_rap2dBEf
zynaddsubfx:_ZN3zyn14EnvelopeParams10getfromXMLERNS_10XMLwrapperE
zynaddsubfx:_ZN3zyn14EnvelopeParams11ADSRinit_dBEffcf
zynaddsubfx:_ZN3zyn14EnvelopeParams13converttofreeEv
zynaddsubfx:_ZN3zyn14EnvelopeParams14store2defaultsEv
zynaddsubfx:_ZN3zyn14EnvelopeParams15ADSRinit_filterEcfcffc
zynaddsubfx:_ZN3zyn14EnvelopeParams4initEi
zynaddsubfx:_ZN3zyn14EnvelopeParams5pasteERKS0_
zynaddsubfx:_ZN3zyn14EnvelopeParams5portsE
zynaddsubfx:_ZN3zyn14EnvelopeParams7ASRinitEcfcf
zynaddsubfx:_ZN3zyn14EnvelopeParams7add2XMLERNS_10XMLwrapperE
zynaddsubfx:_ZN3zyn14EnvelopeParams8ADSRinitEffcf
zynaddsubfx:_ZN3zyn14EnvelopeParams8defaultsEv
zynaddsubfx:_ZN3zyn14EnvelopeParamsC1EhhPKNS_7AbsTimeE
zynaddsubfx:_ZN3zyn14EnvelopeParamsC2EhhPKNS_7AbsTimeE
zynaddsubfx:_ZN3zyn14EnvelopeParamsD0Ev
zynaddsubfx:_ZN3zyn14EnvelopeParamsD1Ev
zynaddsubfx:_ZN3zyn14EnvelopeParamsD2Ev
zynaddsubfx:_ZN3zyn14MiddleWareImpl10bToUhandleEPKc
zynaddsubfx:_ZN3zyn14MiddleWareImpl12doReadOnlyOpESt8functionIFvvEE
zynaddsubfx:_ZN3zyn14MiddleWareImpl12sendToRemoteEPKcNSt7__cxx1112basic_stringIcSt11char_traitsIcESaIcEEE
zynaddsubfx:_ZN3zyn14MiddleWareImpl17broadcastToRemoteEPKc
zynaddsubfx:_ZN3zyn14MiddleWareImpl18doReadOnlyOpNormalESt8functionIFvvEEb
zynaddsubfx:_ZN3zyn14MiddleWareImpl18doReadOnlyOpPluginESt8functionIFvvEE
zynaddsubfx:_ZN3zyn14MiddleWareImpl21recreateMinimalMasterEv
zynaddsubfx:_ZN3zyn14MiddleWareImpl27discardAllbToUButHandleFreeEv
zynaddsubfx:_ZN3zyn14MiddleWareImpl5writeEPKcS2_P13__va_list_tag
zynaddsubfx:_ZN3zyn14MiddleWareImpl5writeEPKcS2_z
zynaddsubfx:_ZN3zyn14MiddleWareImpl9handleMsgEPKcb
zynaddsubfx:_ZN3zyn14MiddleWareImpl9heartBeatEPNS_6MasterE
zynaddsubfx:_ZN3zyn14MiddleWareImpl9kitEnableEPKc
zynaddsubfx:_ZN3zyn14MiddleWareImpl9kitEnableEiii
zynaddsubfx:_ZN3zyn14MiddleWareImplC1EPNS_10MiddleWareENS_7SYNTH_TEPNS_6ConfigEi
zynaddsubfx:_ZN3zyn14MiddleWareImplC2EPNS_10MiddleWareENS_7SYNTH_TEPNS_6ConfigEi
zynaddsubfx:_ZN3zyn14MiddleWareImplD1Ev
zynaddsubfx:_ZN3zyn14MiddleWareImplD2Ev
zynaddsubfx:_ZN3zyn14OssMultiEngine10setAudioEnEb
zynaddsubfx:_ZN3zyn14OssMultiEngine13audioThreadCbEv
zynaddsubfx:_ZN3zyn14OssMultiEngine14_audioThreadCbEPv
zynaddsubfx:_ZN3zyn14OssMultiEngine4StopEv
zynaddsubfx:_ZN3zyn14OssMultiEngine5StartEv
zynaddsubfx:_ZN3zyn14OssMultiEngine9openAudioEv
zynaddsubfx:_ZN3zyn14OssMultiEngine9stopAudioEv
zynaddsubfx:_ZN3zyn14OssMultiEngineC1ERKNS_7SYNTH_TERKNS_10oss_devs_tE
zynaddsubfx:_ZN3zyn14OssMultiEngineC2ERKNS_7SYNTH_TERKNS_10oss_devs_tE
zynaddsubfx:_ZN3zyn14OssMultiEngineD0Ev
zynaddsubfx:_ZN3zyn14OssMultiEngineD1Ev
zynaddsubfx:_ZN3zyn14OssMultiEngineD2Ev
zynaddsubfx:_ZN3zyn14basefunc_chirpEff
zynaddsubfx:_ZN3zyn14basefunc_diodeEff
zynaddsubfx:_ZN3zyn14basefunc_gaussEff
zynaddsubfx:_ZN3zyn14basefunc_powerEff
zynaddsubfx:_ZN3zyn14basefunc_pulseEff
zynaddsubfx:_ZN3zyn14basefunc_spikeEff
zynaddsubfx:_ZN3zyn14ctorAllocFreqsEPNS_10FFTwrapperEi
zynaddsubfx:_ZN3zyn15FloatWatchPointC1EPNS_12WatchManagerEPKcS4_
zynaddsubfx:_ZN3zyn15FloatWatchPointC2EPNS_12WatchManagerEPKcS4_
zynaddsubfx:_ZN3zyn15JackMultiEngine10setAudioEnEb
zynaddsubfx:_ZN3zyn15JackMultiEngine12processAudioEj
zynaddsubfx:_ZN3zyn15JackMultiEngine16_processCallbackEjPv
zynaddsubfx:_ZN3zyn15JackMultiEngine4StopEv
zynaddsubfx:_ZN3zyn15JackMultiEngine5StartEv
zynaddsubfx:_ZN3zyn15JackMultiEngineC1ERKNS_7SYNTH_TE
zynaddsubfx:_ZN3zyn15JackMultiEngineC2ERKNS_7SYNTH_TE
zynaddsubfx:_ZN3zyn15JackMultiEngineD0Ev
zynaddsubfx:_ZN3zyn15JackMultiEngineD1Ev
zynaddsubfx:_ZN3zyn15JackMultiEngineD2Ev
zynaddsubfx:_ZN3zyn15OscilGenBuffers8defaultsEv
zynaddsubfx:_ZN3zyn15OscilGenBuffersC1ENS_22OscilGenBuffersCreatorE
zynaddsubfx:_ZN3zyn15OscilGenBuffersC2ENS_22OscilGenBuffersCreatorE
zynaddsubfx:_ZN3zyn15OscilGenBuffersD1Ev
zynaddsubfx:_ZN3zyn15OscilGenBuffersD2Ev
zynaddsubfx:_ZN3zyn15basefunc_circleEff
zynaddsubfx:_ZN3zyn15getBaseFunctionEh
zynaddsubfx:_ZN3zyn15mxmlFindElementEPK12_mxml_node_sS2_PKcS4_S4_i
zynaddsubfx:_ZN3zyn15preparePadSynthENSt7__cxx1112basic_stringIcSt11char_traitsIcESaIcEEEPNS_17PADnoteParametersERN5rtosc6RtDataE
zynaddsubfx:_ZN3zyn15presetCopyArrayERNS_10MiddleWareENSt7__cxx1112basic_stringIcSt11char_traitsIcESaIcEEEiS7_
zynaddsubfx:_ZN3zyn16ADnoteParameters10getfromXMLERNS_10XMLwrapperE
zynaddsubfx:_ZN3zyn16ADnoteParameters10pasteArrayERS0_i
zynaddsubfx:_ZN3zyn16ADnoteParameters11EnableVoiceERKNS_7SYNTH_TEiPKNS_7AbsTimeE
zynaddsubfx:_ZN3zyn16ADnoteParameters14add2XMLsectionERNS_10XMLwrapperEi
zynaddsubfx:_ZN3zyn16ADnoteParameters17getfromXMLsectionERNS_10XMLwrapperEi
zynaddsubfx:_ZN3zyn16ADnoteParameters5pasteERS0_
zynaddsubfx:_ZN3zyn16ADnoteParameters5portsE
zynaddsubfx:_ZN3zyn16ADnoteParameters7add2XMLERNS_10XMLwrapperE
zynaddsubfx:_ZN3zyn16ADnoteParameters8defaultsEi
zynaddsubfx:_ZN3zyn16ADnoteParameters8defaultsEv
zynaddsubfx:_ZN3zyn16ADnoteParameters9KillVoiceEi
zynaddsubfx:_ZN3zyn16ADnoteParametersC1ERKNS_7SYNTH_TEPNS_10FFTwrapperEPKNS_7AbsTimeE
zynaddsubfx:_ZN3zyn16ADnoteParametersC2ERKNS_7SYNTH_TEPNS_10FFTwrapperEPKNS_7AbsTimeE
zynaddsubfx:_ZN3zyn16ADnoteParametersD0Ev
zynaddsubfx:_ZN3zyn16ADnoteParametersD1Ev
zynaddsubfx:_ZN3zyn16ADnoteParametersD2Ev
zynaddsubfx:_ZN3zyn16ADnoteVoiceParam10getfromXMLERNS_10XMLwrapperEj
zynaddsubfx:_ZN3zyn16ADnoteVoiceParam4killEv
zynaddsubfx:_ZN3zyn16ADnoteVoiceParam5pasteERS0_
zynaddsubfx:_ZN3zyn16ADnoteVoiceParam5portsE
zynaddsubfx:_ZN3zyn16ADnoteVoiceParam6enableERKNS_7SYNTH_TEPNS_10FFTwrapperEPKNS_9ResonanceEPKNS_7AbsTimeE
zynaddsubfx:_ZN3zyn16ADnoteVoiceParam7add2XMLERNS_10XMLwrapperEb
zynaddsubfx:_ZN3zyn16ADnoteVoiceParam8defaultsEv
zynaddsubfx:_ZN3zyn16CallbackRepeater4tickEv
zynaddsubfx:_ZN3zyn16CallbackRepeaterC1EiSt8functionIFvvEE
zynaddsubfx:_ZN3zyn16CallbackRepeaterC2EiSt8functionIFvvEE
zynaddsubfx:_ZN3zyn16basefunc_abssineEff
zynaddsubfx:_ZN3zyn16buildVoiceParMsgB5cxx11EPKiS1_S1_PKb
zynaddsubfx:_ZN3zyn16connectMidiLearnEiibNSt7__cxx1112basic_stringIcSt11char_traitsIcESaIcEEERN5rtosc13MidiMappernRTE
zynaddsubfx:_ZN3zyn16ctorAllocSamplesEPNS_10FFTwrapperEi
zynaddsubfx:_ZN3zyn16doClassArrayCopyENSt7__cxx1112basic_stringIcSt11char_traitsIcESaIcEEEiRNS_10MiddleWareES5_S5_
zynaddsubfx:_ZN3zyn16getUrlPresetTypeENSt7__cxx1112basic_stringIcSt11char_traitsIcESaIcEEERNS_10MiddleWareE
zynaddsubfx:_ZN3zyn16legalizeFilenameENSt7__cxx1112basic_stringIcSt11char_traitsIcESaIcEEE
zynaddsubfx:_ZN3zyn16presetPasteArrayERNS_10MiddleWareENSt7__cxx1112basic_stringIcSt11char_traitsIcESaIcEEEiS7_
zynaddsubfx:_ZN3zyn16trimLeadingWhiteEPKc
zynaddsubfx:_ZN3zyn17ADnoteGlobalParam10getfromXMLERNS_10XMLwrapperE
zynaddsubfx:_ZN3zyn17ADnoteGlobalParam5pasteERS0_
zynaddsubfx:_ZN3zyn17ADnoteGlobalParam5portsE
zynaddsubfx:_ZN3zyn17ADnoteGlobalParam7add2XMLERNS_10XMLwrapperE
zynaddsubfx:_ZN3zyn17ADnoteGlobalParam8defaultsEv
zynaddsubfx:_ZN3zyn17ADnoteGlobalParamC1EPKNS_7AbsTimeE
zynaddsubfx:_ZN3zyn17ADnoteGlobalParamC2EPKNS_7AbsTimeE
zynaddsubfx:_ZN3zyn17ADnoteGlobalParamD1Ev
zynaddsubfx:_ZN3zyn17ADnoteGlobalParamD2Ev
zynaddsubfx:_ZN3zyn17PADnoteParameters10export2wavENSt7__cxx1112basic_stringIcSt11char_traitsIcESaIcEEE
zynaddsubfx:_ZN3zyn17PADnoteParameters10getfromXMLERNS_10XMLwrapperE
zynaddsubfx:_ZN3zyn17PADnoteParameters10getprofileEPfi
zynaddsubfx:_ZN3zyn17PADnoteParameters12deletesampleEi
zynaddsubfx:_ZN3zyn17PADnoteParameters13deletesamplesEv
zynaddsubfx:_ZN3zyn17PADnoteParameters13setPbandwidthEi
zynaddsubfx:_ZN3zyn17PADnoteParameters14realtime_portsE
zynaddsubfx:_ZN3zyn17PADnoteParameters15applyparametersESt8functionIFbvEEj
zynaddsubfx:_ZN3zyn17PADnoteParameters15applyparametersEv
zynaddsubfx:_ZN3zyn17PADnoteParameters15sampleGeneratorESt8functionIFviONS0_6SampleEEES1_IFbvEEj
zynaddsubfx:_ZN3zyn17PADnoteParameters18non_realtime_portsE
zynaddsubfx:_ZN3zyn17PADnoteParameters5pasteERS0_
zynaddsubfx:_ZN3zyn17PADnoteParameters5portsE
zynaddsubfx:_ZN3zyn17PADnoteParameters7add2XMLERNS_10XMLwrapperE
zynaddsubfx:_ZN3zyn17PADnoteParameters7pasteRTERS0_
zynaddsubfx:_ZN3zyn17PADnoteParameters8defaultsEv
zynaddsubfx:_ZN3zyn17PADnoteParametersC1ERKNS_7SYNTH_TEPNS_10FFTwrapperEPKNS_7AbsTimeE
zynaddsubfx:_ZN3zyn17PADnoteParametersC2ERKNS_7SYNTH_TEPNS_10FFTwrapperEPKNS_7AbsTimeE
zynaddsubfx:_ZN3zyn17PADnoteParametersD0Ev
zynaddsubfx:_ZN3zyn17PADnoteParametersD1Ev
zynaddsubfx:_ZN3zyn17PADnoteParametersD2Ev
zynaddsubfx:_ZN3zyn17SUBnoteParameters10getfromXMLERNS_10XMLwrapperE
zynaddsubfx:_ZN3zyn17SUBnoteParameters16convertBandwidthEiifii
zynaddsubfx:_ZN3zyn17SUBnoteParameters18convertHarmonicMagEii
zynaddsubfx:_ZN3zyn17SUBnoteParameters26updateFrequencyMultipliersEv
zynaddsubfx:_ZN3zyn17SUBnoteParameters5pasteERS0_
zynaddsubfx:_ZN3zyn17SUBnoteParameters5portsE
zynaddsubfx:_ZN3zyn17SUBnoteParameters7add2XMLERNS_10XMLwrapperE
zynaddsubfx:_ZN3zyn17SUBnoteParameters8defaultsEv
zynaddsubfx:_ZN3zyn17SUBnoteParametersC1EPKNS_7AbsTimeE
zynaddsubfx:_ZN3zyn17SUBnoteParametersC2EPKNS_7AbsTimeE
zynaddsubfx:_ZN3zyn17SUBnoteParametersD0Ev
zynaddsubfx:_ZN3zyn17SUBnoteParametersD1Ev
zynaddsubfx:_ZN3zyn17SUBnoteParametersD2Ev
zynaddsubfx:_ZN3zyn17basefunc_triangleEff
zynaddsubfx:_ZN3zyn17doClassArrayPasteENSt7__cxx1112basic_stringIcSt11char_traitsIcESaIcEEES5_iRNS_10MiddleWareES5_RNS_10XMLwrapperE
zynaddsubfx:_ZN3zyn17real_preset_portsE
zynaddsubfx:_ZN3zyn18PortamentoRealtimeC1EPvRNS_9AllocatorESt8functionIFvPS0_EERKNS_10PortamentoE
zynaddsubfx:_ZN3zyn18PortamentoRealtimeC2EPvRNS_9AllocatorESt8functionIFvPS0_EERKNS_10PortamentoE
zynaddsubfx:_ZN3zyn18PortamentoRealtimeD1Ev
zynaddsubfx:_ZN3zyn18PortamentoRealtimeD2Ev
zynaddsubfx:_ZN3zyn18basefunc_chebyshevEff
zynaddsubfx:_ZN3zyn18basefunc_pulsesineEff
zynaddsubfx:_ZN3zyn18gcc_10_1_0_is_dumbERKSt6vectorINSt7__cxx1112basic_stringIcSt11char_traitsIcESaIcEEESaIS6_EEiPcP11rtosc_arg_t
zynaddsubfx:_ZN3zyn18mxmlElementGetAttrEPK12_mxml_node_sPKc
zynaddsubfx:_ZN3zyn19FORCE_BANK_DIR_FILEE
zynaddsubfx:_ZN3zyn19basefunc_powersinusEff
zynaddsubfx:_ZN3zyn19os_guess_pid_lengthEv
zynaddsubfx:_ZN3zyn19platform_strcasestrEPKcS1_
zynaddsubfx:_ZN3zyn19presetClipboardTypeB5cxx11Ev
zynaddsubfx:_ZN3zyn20basefunc_stretchsineEff
zynaddsubfx:_ZN3zyn23basefunc_absstretchsineEff
zynaddsubfx:_ZN3zyn23os_pid_as_padded_stringB5cxx11Ev
zynaddsubfx:_ZN3zyn24presetCheckClipboardTypeEv
zynaddsubfx:_ZN3zyn2EQ12getpresetparEhj
zynaddsubfx:_ZN3zyn2EQ15getfreqresponseEf
zynaddsubfx:_ZN3zyn2EQ3outERKNS_6StereoIPfEE
zynaddsubfx:_ZN3zyn2EQ5portsE
zynaddsubfx:_ZN3zyn2EQ7cleanupEv
zynaddsubfx:_ZN3zyn2EQ9changeparEih
zynaddsubfx:_ZN3zyn2EQ9setpresetEh
zynaddsubfx:_ZN3zyn2EQ9setvolumeEh
zynaddsubfx:_ZN3zyn2EQC1ENS_12EffectParamsE
zynaddsubfx:_ZN3zyn2EQC2ENS_12EffectParamsE
zynaddsubfx:_ZN3zyn2EQD0Ev
zynaddsubfx:_ZN3zyn2EQD1Ev
zynaddsubfx:_ZN3zyn2EQD2Ev
zynaddsubfx:_ZN3zyn2inE
zynaddsubfx:_ZN3zyn30XMLwrapper_whitespace_callbackEP12_mxml_node_si
zynaddsubfx:_ZN3zyn3LFO10releasekeyEv
zynaddsubfx:_ZN3zyn3LFO10updateParsEv
zynaddsubfx:_ZN3zyn3LFO18computeNextFreqRndEv
zynaddsubfx:_ZN3zyn3LFO6biquadEf
zynaddsubfx:_ZN3zyn3LFO6lfooutEv
zynaddsubfx:_ZN3zyn3LFO7baseOutEcf
zynaddsubfx:_ZN3zyn3LFO9amplfooutEv
zynaddsubfx:_ZN3zyn3LFOC1ERKNS_9LFOParamsEfRKNS_7AbsTimeEPNS_12WatchManagerEPKc
zynaddsubfx:_ZN3zyn3LFOC2ERKNS_9LFOParamsEfRKNS_7AbsTimeEPNS_12WatchManagerEPKc
zynaddsubfx:_ZN3zyn3LFOD1Ev
zynaddsubfx:_ZN3zyn3LFOD2Ev
zynaddsubfx:_ZN3zyn3Nio10getPostfixB5cxx11Ev
zynaddsubfx:_ZN3zyn3Nio10getSourcesB5cxx11Ev
zynaddsubfx:_ZN3zyn3Nio10masterSwapEPNS_6MasterE
zynaddsubfx:_ZN3zyn3Nio10setPostfixENSt7__cxx1112basic_stringIcSt11char_traitsIcESaIcEEE
zynaddsubfx:_ZN3zyn3Nio11autoConnectE
zynaddsubfx:_ZN3zyn3Nio11defaultSinkB5cxx11E
zynaddsubfx:_ZN3zyn3Nio13defaultSourceB5cxx11E
zynaddsubfx:_ZN3zyn3Nio14setDefaultSinkENSt7__cxx1112basic_stringIcSt11char_traitsIcESaIcEEE
zynaddsubfx:_ZN3zyn3Nio15pidInClientNameE
zynaddsubfx:_ZN3zyn3Nio16setDefaultSourceENSt7__cxx1112basic_stringIcSt11char_traitsIcESaIcEEE
zynaddsubfx:_ZN3zyn3Nio18getAudioCompressorEv
zynaddsubfx:_ZN3zyn3Nio18setAudioCompressorEb
zynaddsubfx:_ZN3zyn3Nio19preferredSampleRateERj
zynaddsubfx:_ZN3zyn3Nio4initERKNS_7SYNTH_TERKNS_10oss_devs_tEPNS_6MasterE
zynaddsubfx:_ZN3zyn3Nio4stopEv
zynaddsubfx:_ZN3zyn3Nio5portsE
zynaddsubfx:_ZN3zyn3Nio5startEv
zynaddsubfx:_ZN3zyn3Nio7getSinkB5cxx11Ev
zynaddsubfx:_ZN3zyn3Nio7setSinkENSt7__cxx1112basic_stringIcSt11char_traitsIcESaIcEEE
zynaddsubfx:_ZN3zyn3Nio7waveEndEv
zynaddsubfx:_ZN3zyn3Nio7waveNewEPNS_7WavFileE
zynaddsubfx:_ZN3zyn3Nio8getSinksB5cxx11Ev
zynaddsubfx:_ZN3zyn3Nio8waveStopEv
zynaddsubfx:_ZN3zyn3Nio9getSourceB5cxx11Ev
zynaddsubfx:_ZN3zyn3Nio9setSourceENSt7__cxx1112basic_stringIcSt11char_traitsIcESaIcEEE
zynaddsubfx:_ZN3zyn3Nio9waveStartEv
zynaddsubfx:_ZN3zyn3engE
zynaddsubfx:_ZN3zyn3outE
zynaddsubfx:_ZN3zyn4Bank10savetoslotEjPNS_4PartE
zynaddsubfx:_ZN3zyn4Bank11scanrootdirENSt7__cxx1112basic_stringIcSt11char_traitsIcESaIcEEE
zynaddsubfx:_ZN3zyn4Bank12loadfromslotEjPNS_4PartE
zynaddsubfx:_ZN3zyn4Bank13expanddirnameERNSt7__cxx1112basic_stringIcSt11char_traitsIcESaIcEEE
zynaddsubfx:_ZN3zyn4Bank14deletefrombankEi
zynaddsubfx:_ZN3zyn4Bank14rescanforbanksEv
zynaddsubfx:_ZN3zyn4Bank15getnamenumberedB5cxx11Ej
zynaddsubfx:_ZN3zyn4Bank5blistENSt7__cxx1112basic_stringIcSt11char_traitsIcESaIcEEE
zynaddsubfx:_ZN3zyn4Bank5ins_tC1Ev
zynaddsubfx:_ZN3zyn4Bank5ins_tC2Ev
zynaddsubfx:_ZN3zyn4Bank6lockedEv
zynaddsubfx:_ZN3zyn4Bank6setLsbEh
zynaddsubfx:_ZN3zyn4Bank6setMsbEh
zynaddsubfx:_ZN3zyn4Bank7getnameB5cxx11Ej
zynaddsubfx:_ZN3zyn4Bank7newbankENSt7__cxx1112basic_stringIcSt11char_traitsIcESaIcEEE
zynaddsubfx:_ZN3zyn4Bank7setnameEjRKNSt7__cxx1112basic_stringIcSt11char_traitsIcESaIcEEEi
zynaddsubfx:_ZN3zyn4Bank8loadbankENSt7__cxx1112basic_stringIcSt11char_traitsIcESaIcEEE
zynaddsubfx:_ZN3zyn4Bank8swapslotEjj
zynaddsubfx:_ZN3zyn4Bank9addtobankEiNSt7__cxx1112basic_stringIcSt11char_traitsIcESaIcEEES6_
zynaddsubfx:_ZN3zyn4Bank9clearbankEv
zynaddsubfx:_ZN3zyn4Bank9clearslotEj
zynaddsubfx:_ZN3zyn4Bank9emptyslotEj
zynaddsubfx:_ZN3zyn4BankC1EPNS_6ConfigE
zynaddsubfx:_ZN3zyn4BankC2EPNS_6ConfigE
zynaddsubfx:_ZN3zyn4BankD1Ev
zynaddsubfx:_ZN3zyn4BankD2Ev
zynaddsubfx:_ZN3zyn4Echo10initdelaysEv
zynaddsubfx:_ZN3zyn4Echo10setlrdelayEh
zynaddsubfx:_ZN3zyn4Echo12getpresetparEhj
zynaddsubfx:_ZN3zyn4Echo3outERKNS_6StereoIPfEE
zynaddsubfx:_ZN3zyn4Echo5portsE
zynaddsubfx:_ZN3zyn4Echo5setfbEh
zynaddsubfx:_ZN3zyn4Echo7cleanupEv
zynaddsubfx:_ZN3zyn4Echo8setdelayEh
zynaddsubfx:_ZN3zyn4Echo9changeparEih
zynaddsubfx:_ZN3zyn4Echo9sethidampEh
zynaddsubfx:_ZN3zyn4Echo9setpresetEh
zynaddsubfx:_ZN3zyn4Echo9setvolumeEh
zynaddsubfx:_ZN3zyn4EchoC1ENS_12EffectParamsE
zynaddsubfx:_ZN3zyn4EchoC2ENS_12EffectParamsE
zynaddsubfx:_ZN3zyn4EchoD0Ev
zynaddsubfx:_ZN3zyn4EchoD1Ev
zynaddsubfx:_ZN3zyn4EchoD2Ev
zynaddsubfx:_ZN3zyn4Part10getfromXMLERNS_10XMLwrapperE
zynaddsubfx:_ZN3zyn4Part10monomemPopEh
zynaddsubfx:_ZN3zyn4Part11AllNotesOffEv
zynaddsubfx:_ZN3zyn4Part11monomemPushEh
zynaddsubfx:_ZN3zyn4Part11setPpanningEc
zynaddsubfx:_ZN3zyn4Part11setVolumedBEf
zynaddsubfx:_ZN3zyn4Part11setkeylimitEh
zynaddsubfx:_ZN3zyn4Part12limit_voicesEi
zynaddsubfx:_ZN3zyn4Part12monomemClearEv
zynaddsubfx:_ZN3zyn4Part13MonoMemRenoteEv
zynaddsubfx:_ZN3zyn4Part13SetControllerEjhfi
zynaddsubfx:_ZN3zyn4Part13SetControllerEji
zynaddsubfx:_ZN3zyn4Part13initialize_rtEv
zynaddsubfx:_ZN3zyn4Part13setvoicelimitEh
zynaddsubfx:_ZN3zyn4Part13verifyKeyModeEv
zynaddsubfx:_ZN3zyn4Part13volume127TodBEh
zynaddsubfx:_ZN3zyn4Part14NoteOnInternalEhhf
zynaddsubfx:_ZN3zyn4Part14ReleaseAllKeysEv
zynaddsubfx:_ZN3zyn4Part15ComputePartSmpsEv
zynaddsubfx:_ZN3zyn4Part15applyparametersESt8functionIFbvEE
zynaddsubfx:_ZN3zyn4Part15applyparametersEv
zynaddsubfx:_ZN3zyn4Part15getNoteLog2FreqEiRf
zynaddsubfx:_ZN3zyn4Part16setkititemstatusEjb
zynaddsubfx:_ZN3zyn4Part17add2XMLinstrumentERNS_10XMLwrapperE
zynaddsubfx:_ZN3zyn4Part17loadXMLinstrumentEPKc
zynaddsubfx:_ZN3zyn4Part18defaultsinstrumentEv
zynaddsubfx:_ZN3zyn4Part20PolyphonicAftertouchEhh
zynaddsubfx:_ZN3zyn4Part20ReleaseSustainedKeysEv
zynaddsubfx:_ZN3zyn4Part20getfromXMLinstrumentERNS_10XMLwrapperE
zynaddsubfx:_ZN3zyn4Part3Kit5portsE
zynaddsubfx:_ZN3zyn4Part3KitC1Ev
zynaddsubfx:_ZN3zyn4Part3KitC2Ev
zynaddsubfx:_ZN3zyn4Part5portsE
zynaddsubfx:_ZN3zyn4Part7NoteOffEh
zynaddsubfx:_ZN3zyn4Part7add2XMLERNS_10XMLwrapperE
zynaddsubfx:_ZN3zyn4Part7cleanupEb
zynaddsubfx:_ZN3zyn4Part7kill_rtEv
zynaddsubfx:_ZN3zyn4Part7saveXMLEPKc
zynaddsubfx:_ZN3zyn4Part8defaultsEv
zynaddsubfx:_ZN3zyn4PartC1ERNS_9AllocatorERKNS_7SYNTH_TERKNS_7AbsTimeERKiSA_PNS_10MicrotonalEPNS_10FFTwrapperEPNS_12WatchManagerEPKc
zynaddsubfx:_ZN3zyn4PartC2ERNS_9AllocatorERKNS_7SYNTH_TERKNS_7AbsTimeERKiSA_PNS_10MicrotonalEPNS_10FFTwrapperEPNS_12WatchManagerEPKc
zynaddsubfx:_ZN3zyn4PartD1Ev
zynaddsubfx:_ZN3zyn4PartD2Ev
zynaddsubfx:_ZN3zyn4VelFEfh
zynaddsubfx:_ZN3zyn4dataEPNS_6next_tE
zynaddsubfx:_ZN3zyn5InMgr11getInstanceEv
zynaddsubfx:_ZN3zyn5InMgr5flushEjj
zynaddsubfx:_ZN3zyn5InMgr5getInENSt7__cxx1112basic_stringIcSt11char_traitsIcESaIcEEE
zynaddsubfx:_ZN3zyn5InMgr8putEventENS_9MidiEventE
zynaddsubfx:_ZN3zyn5InMgr9setMasterEPNS_6MasterE
zynaddsubfx:_ZN3zyn5InMgr9setSourceENSt7__cxx1112basic_stringIcSt11char_traitsIcESaIcEEE
zynaddsubfx:_ZN3zyn5InMgrC1Ev
zynaddsubfx:_ZN3zyn5InMgrC2Ev
zynaddsubfx:_ZN3zyn5InMgrD1Ev
zynaddsubfx:_ZN3zyn5InMgrD2Ev
zynaddsubfx:_ZN3zyn5osc_sEjff
zynaddsubfx:_ZN3zyn5sfindENSt7__cxx1112basic_stringIcSt11char_traitsIcESaIcEEES5_
zynaddsubfx:_ZN3zyn5xml_kE
zynaddsubfx:_ZN3zyn6ADnote10legatonoteERKNS_12LegatoParamsE
zynaddsubfx:_ZN3zyn6ADnote10releasekeyEv
zynaddsubfx:_ZN3zyn6ADnote10setupVoiceEi
zynaddsubfx:_ZN3zyn6ADnote11cloneLegatoEv
zynaddsubfx:_ZN3zyn6ADnote13setupVoiceModEib
zynaddsubfx:_ZN3zyn6ADnote14initparametersEPNS_12WatchManagerEPKc
zynaddsubfx:_ZN3zyn6ADnote16setupVoiceDetuneEi
zynaddsubfx:_ZN3zyn6ADnote16setupVoiceUnisonEi
zynaddsubfx:_ZN3zyn6ADnote23compute_unison_freq_rapEi
zynaddsubfx:_ZN3zyn6ADnote24computecurrentparametersEv
zynaddsubfx:_ZN3zyn6ADnote5Voice10releasekeyEv
zynaddsubfx:_ZN3zyn6ADnote5Voice4killERNS_9AllocatorERKNS_7SYNTH_TE
zynaddsubfx:_ZN3zyn6ADnote6Global14initparametersERKNS_17ADnoteGlobalParamERKNS_7SYNTH_TERKNS_7AbsTimeERNS_9AllocatorEffbPNS_12WatchManagerEPKc
zynaddsubfx:_ZN3zyn6ADnote6Global4killERNS_9AllocatorE
zynaddsubfx:_ZN3zyn6ADnote6entombEv
zynaddsubfx:_ZN3zyn6ADnote7noteoutEPfS1_
zynaddsubfx:_ZN3zyn6ADnote7setfreqEif
zynaddsubfx:_ZN3zyn6ADnote8KillNoteEv
zynaddsubfx:_ZN3zyn6ADnote9KillVoiceEi
zynaddsubfx:_ZN3zyn6ADnote9setfreqFMEif
zynaddsubfx:_ZN3zyn6ADnoteC1EPNS_16ADnoteParametersERKNS_11SynthParamsEPNS_12WatchManagerEPKc
zynaddsubfx:_ZN3zyn6ADnoteC2EPNS_16ADnoteParametersERKNS_11SynthParamsEPNS_12WatchManagerEPKc
zynaddsubfx:_ZN3zyn6ADnoteD0Ev
zynaddsubfx:_ZN3zyn6ADnoteD1Ev
zynaddsubfx:_ZN3zyn6ADnoteD2Ev
zynaddsubfx:_ZN3zyn6BankDb10addBankDirENSt7__cxx1112basic_stringIcSt11char_traitsIcESaIcEEE
zynaddsubfx:_ZN3zyn6BankDb5clearEv
zynaddsubfx:_ZN3zyn6BankDb9scanBanksEv
zynaddsubfx:_ZN3zyn6Chorus12getpresetparEhj
zynaddsubfx:_ZN3zyn6Chorus3outERKNS_6StereoIPfEE
zynaddsubfx:_ZN3zyn6Chorus5portsE
zynaddsubfx:_ZN3zyn6Chorus5setfbEh
zynaddsubfx:_ZN3zyn6Chorus7cleanupEv
zynaddsubfx:_ZN3zyn6Chorus8getdelayEf
zynaddsubfx:_ZN3zyn6Chorus8setdelayEh
zynaddsubfx:_ZN3zyn6Chorus8setdepthEh
zynaddsubfx:_ZN3zyn6Chorus9changeparEih
zynaddsubfx:_ZN3zyn6Chorus9setpresetEh
zynaddsubfx:_ZN3zyn6Chorus9setvolumeEh
zynaddsubfx:_ZN3zyn6ChorusC1ENS_12EffectParamsE
zynaddsubfx:_ZN3zyn6ChorusC2ENS_12EffectParamsE
zynaddsubfx:_ZN3zyn6ChorusD0Ev
zynaddsubfx:_ZN3zyn6ChorusD1Ev
zynaddsubfx:_ZN3zyn6ChorusD2Ev
zynaddsubfx:_ZN3zyn6Config10readConfigEPKc
zynaddsubfx:_ZN3zyn6Config19clearpresetsdirlistEv
zynaddsubfx:_ZN3zyn6Config20clearbankrootdirlistEv
zynaddsubfx:_ZN3zyn6Config4initEv
zynaddsubfx:_ZN3zyn6Config5portsE
zynaddsubfx:_ZN3zyn6ConfigC1Ev
zynaddsubfx:_ZN3zyn6ConfigC2Ev
zynaddsubfx:_ZN3zyn6ConfigD1Ev
zynaddsubfx:_ZN3zyn6ConfigD2Ev
zynaddsubfx:_ZN3zyn6Effect10setlrcrossEc
zynaddsubfx:_ZN3zyn6Effect10setpanningEc
zynaddsubfx:_ZN3zyn6Effect3outEPfS1_
zynaddsubfx:_ZN3zyn6Effect9crossoverERfS1_f
zynaddsubfx:_ZN3zyn6EffectC1ENS_12EffectParamsE
zynaddsubfx:_ZN3zyn6EffectC2ENS_12EffectParamsE
zynaddsubfx:_ZN3zyn6EngineC1Ev
zynaddsubfx:_ZN3zyn6EngineC2Ev
zynaddsubfx:_ZN3zyn6EngineD0Ev
zynaddsubfx:_ZN3zyn6EngineD1Ev
zynaddsubfx:_ZN3zyn6EngineD2Ev
zynaddsubfx:_ZN3zyn6Filter11getrealfreqEf
zynaddsubfx:_ZN3zyn6Filter8generateERNS_9AllocatorEPKNS_12FilterParamsEji
zynaddsubfx:_ZN3zyn6FilterC1Eji
zynaddsubfx:_ZN3zyn6FilterC2Eji
zynaddsubfx:_ZN3zyn6Master10getXMLDataEv
zynaddsubfx:_ZN3zyn6Master10getalldataEPPc
zynaddsubfx:_ZN3zyn6Master10getfromXMLERNS_10XMLwrapperE
zynaddsubfx:_ZN3zyn6Master10putalldataEPKc
zynaddsubfx:_ZN3zyn6Master12setPkeyshiftEc
zynaddsubfx:_ZN3zyn6Master12vuresetpeaksEv
zynaddsubfx:_ZN3zyn6Master13applyOscEventEPKcPfS3_bbRNS_7DataObjEiPS0_
zynaddsubfx:_ZN3zyn6Master13applyOscEventEPKcPfS3_bbi
zynaddsubfx:_ZN3zyn6Master13applyOscEventEPKcbi
zynaddsubfx:_ZN3zyn6Master13initialize_rtEv
zynaddsubfx:_ZN3zyn6Master13setControllerEcihf
zynaddsubfx:_ZN3zyn6Master13setControllerEcii
zynaddsubfx:_ZN3zyn6Master13setPsysefxvolEiic
zynaddsubfx:_ZN3zyn6Master14copyMasterCbToEPS0_
zynaddsubfx:_ZN3zyn6Master14loadAutomationERNS_10XMLwrapperERN5rtosc13AutomationMgrE
zynaddsubfx:_ZN3zyn6Master14loadOSCFromStrEPKcPN5rtosc21savefile_dispatcher_tE
zynaddsubfx:_ZN3zyn6Master14saveAutomationERNS_10XMLwrapperERKN5rtosc13AutomationMgrE
zynaddsubfx:_ZN3zyn6Master14setPsysefxsendEiic
zynaddsubfx:_ZN3zyn6Master15applyparametersEv
zynaddsubfx:_ZN3zyn6Master16volume127ToFloatEh
zynaddsubfx:_ZN3zyn6Master18GetAudioOutSamplesEmjPfS1_
zynaddsubfx:_ZN3zyn6Master18setAudioCompressorEb
zynaddsubfx:_ZN3zyn6Master20polyphonicAftertouchEchc
zynaddsubfx:_ZN3zyn6Master24setMasterChangedCallbackEPFvPvPS0_ES1_
zynaddsubfx:_ZN3zyn6Master5portsE
zynaddsubfx:_ZN3zyn6Master6ShutUpEv
zynaddsubfx:_ZN3zyn6Master6noteOnEchcf
zynaddsubfx:_ZN3zyn6Master6runOSCEPfS1_bPS0_
zynaddsubfx:_ZN3zyn6Master7add2XMLERNS_10XMLwrapperE
zynaddsubfx:_ZN3zyn6Master7loadOSCEPKcPN5rtosc21savefile_dispatcher_tE
zynaddsubfx:_ZN3zyn6Master7loadXMLEPKc
zynaddsubfx:_ZN3zyn6Master7noteOffEch
zynaddsubfx:_ZN3zyn6Master7saveOSCENSt7__cxx1112basic_stringIcSt11char_traitsIcESaIcEEERSt3setIS6_St4lessIS6_ESaIS6_EE
zynaddsubfx:_ZN3zyn6Master7saveXMLEPKc
zynaddsubfx:_ZN3zyn6Master8AudioOutEPfS1_
zynaddsubfx:_ZN3zyn6Master8defaultsEv
zynaddsubfx:_ZN3zyn6Master8vuUpdateEPKfS2_
zynaddsubfx:_ZN3zyn6Master9partonoffEii
zynaddsubfx:_ZN3zyn6MasterC1ERKNS_7SYNTH_TEPNS_6ConfigE
zynaddsubfx:_ZN3zyn6MasterC2ERKNS_7SYNTH_TEPNS_6ConfigE
zynaddsubfx:_ZN3zyn6MasterD1Ev
zynaddsubfx:_ZN3zyn6MasterD2Ev
zynaddsubfx:_ZN3zyn6MidiIn11midiProcessEhhh
zynaddsubfx:_ZN3zyn6MidiIn9midiSysExEh
zynaddsubfx:_ZN3zyn6MidiInC1Ev
zynaddsubfx:_ZN3zyn6MidiInC2Ev
zynaddsubfx:_ZN3zyn6OutMgr10refillSmpsEj
zynaddsubfx:_ZN3zyn6OutMgr11getInstanceEPKNS_7SYNTH_TE
zynaddsubfx:_ZN3zyn6OutMgr15applyOscEventRtEPKc
zynaddsubfx:_ZN3zyn6OutMgr15removeStaleSmpsEv
zynaddsubfx:_ZN3zyn6OutMgr18getAudioCompressorEv
zynaddsubfx:_ZN3zyn6OutMgr18setAudioCompressorEb
zynaddsubfx:_ZN3zyn6OutMgr4tickEj
zynaddsubfx:_ZN3zyn6OutMgr6getOutENSt7__cxx1112basic_stringIcSt11char_traitsIcESaIcEEE
zynaddsubfx:_ZN3zyn6OutMgr7addSmpsEPfS1_
zynaddsubfx:_ZN3zyn6OutMgr7setSinkENSt7__cxx1112basic_stringIcSt11char_traitsIcESaIcEEE
zynaddsubfx:_ZN3zyn6OutMgr9setMasterEPNS_6MasterE
zynaddsubfx:_ZN3zyn6OutMgrC1EPKNS_7SYNTH_TE
zynaddsubfx:_ZN3zyn6OutMgrC2EPKNS_7SYNTH_TE
zynaddsubfx:_ZN3zyn6OutMgrD1Ev
zynaddsubfx:_ZN3zyn6OutMgrD2Ev
zynaddsubfx:_ZN3zyn6Phaser10applyPhaseEffPf
zynaddsubfx:_ZN3zyn6Phaser10applyPhaseEfffRfPfS2_
zynaddsubfx:_ZN3zyn6Phaser11AnalogPhaseERKNS_6StereoIPfEE
zynaddsubfx:_ZN3zyn6Phaser11normalPhaseERKNS_6StereoIPfEE
zynaddsubfx:_ZN3zyn6Phaser12analog_setupEv
zynaddsubfx:_ZN3zyn6Phaser12getpresetparEhj
zynaddsubfx:_ZN3zyn6Phaser13setdistortionEh
zynaddsubfx:_ZN3zyn6Phaser3outERKNS_6StereoIPfEE
zynaddsubfx:_ZN3zyn6Phaser5portsE
zynaddsubfx:_ZN3zyn6Phaser5setfbEh
zynaddsubfx:_ZN3zyn6Phaser7cleanupEv
zynaddsubfx:_ZN3zyn6Phaser8setdepthEh
zynaddsubfx:_ZN3zyn6Phaser8setphaseEh
zynaddsubfx:_ZN3zyn6Phaser8setwidthEh
zynaddsubfx:_ZN3zyn6Phaser9changeparEih
zynaddsubfx:_ZN3zyn6Phaser9setoffsetEh
zynaddsubfx:_ZN3zyn6Phaser9setpresetEh
zynaddsubfx:_ZN3zyn6Phaser9setstagesEh
zynaddsubfx:_ZN3zyn6Phaser9setvolumeEh
zynaddsubfx:_ZN3zyn6PhaserC1ENS_12EffectParamsE
zynaddsubfx:_ZN3zyn6PhaserC2ENS_12EffectParamsE
zynaddsubfx:_ZN3zyn6PhaserD0Ev
zynaddsubfx:_ZN3zyn6PhaserD1Ev
zynaddsubfx:_ZN3zyn6PhaserD2Ev
zynaddsubfx:_ZN3zyn6Reverb11processmonoEiPfS1_
zynaddsubfx:_ZN3zyn6Reverb11setidelayfbEh
zynaddsubfx:_ZN3zyn6Reverb11setlohidampEh
zynaddsubfx:_ZN3zyn6Reverb11setroomsizeEh
zynaddsubfx:_ZN3zyn6Reverb12getpresetparEhj
zynaddsubfx:_ZN3zyn6Reverb12setbandwidthEh
zynaddsubfx:_ZN3zyn6Reverb3outERKNS_6StereoIPfEE
zynaddsubfx:_ZN3zyn6Reverb5portsE
zynaddsubfx:_ZN3zyn6Reverb6sethpfEh
zynaddsubfx:_ZN3zyn6Reverb6setlpfEh
zynaddsubfx:_ZN3zyn6Reverb7cleanupEv
zynaddsubfx:_ZN3zyn6Reverb7settimeEh
zynaddsubfx:_ZN3zyn6Reverb7settypeEh
zynaddsubfx:_ZN3zyn6Reverb9changeparEih
zynaddsubfx:_ZN3zyn6Reverb9setidelayEh
zynaddsubfx:_ZN3zyn6Reverb9setpresetEh
zynaddsubfx:_ZN3zyn6Reverb9setvolumeEh
zynaddsubfx:_ZN3zyn6ReverbC1ENS_12EffectParamsE
zynaddsubfx:_ZN3zyn6ReverbC2ENS_12EffectParamsE
zynaddsubfx:_ZN3zyn6ReverbD0Ev
zynaddsubfx:_ZN3zyn6ReverbD1Ev
zynaddsubfx:_ZN3zyn6ReverbD2Ev
zynaddsubfx:_ZN3zyn6Unison12setBandwidthEf
zynaddsubfx:_ZN3zyn6Unison16setBaseFrequencyEf
zynaddsubfx:_ZN3zyn6Unison16updateParametersEv
zynaddsubfx:_ZN3zyn6Unison16updateUnisonDataEv
zynaddsubfx:_ZN3zyn6Unison7processEiPfS1_
zynaddsubfx:_ZN3zyn6Unison7setSizeEi
zynaddsubfx:_ZN3zyn6UnisonC1EPNS_9AllocatorEiff
zynaddsubfx:_ZN3zyn6UnisonC2EPNS_9AllocatorEiff
zynaddsubfx:_ZN3zyn6UnisonD1Ev
zynaddsubfx:_ZN3zyn6UnisonD2Ev
zynaddsubfx:_ZN3zyn6msg_idE
zynaddsubfx:_ZN3zyn6osc_lpEjff
zynaddsubfx:_ZN3zyn6vuDataC1Ev
zynaddsubfx:_ZN3zyn6vuDataC2Ev
zynaddsubfx:_ZN3zyn7PADnote10legatonoteERKNS_12LegatoParamsE
zynaddsubfx:_ZN3zyn7PADnote10releasekeyEv
zynaddsubfx:_ZN3zyn7PADnote11cloneLegatoEv
zynaddsubfx:_ZN3zyn7PADnote13Compute_CubicEPfS1_if
zynaddsubfx:_ZN3zyn7PADnote14Compute_LinearEPfS1_if
zynaddsubfx:_ZN3zyn7PADnote24computecurrentparametersEv
zynaddsubfx:_ZN3zyn7PADnote5setupEfPNS_10PortamentoEfbPNS_12WatchManagerEPKc
zynaddsubfx:_ZN3zyn7PADnote6entombEv
zynaddsubfx:_ZN3zyn7PADnote7noteoutEPfS1_
zynaddsubfx:_ZN3zyn7PADnoteC1EPKNS_17PADnoteParametersERKNS_11SynthParamsERKiPNS_12WatchManagerEPKc
zynaddsubfx:_ZN3zyn7PADnoteC2EPKNS_17PADnoteParametersERKNS_11SynthParamsERKiPNS_12WatchManagerEPKc
zynaddsubfx:_ZN3zyn7PADnoteD0Ev
zynaddsubfx:_ZN3zyn7PADnoteD1Ev
zynaddsubfx:_ZN3zyn7PADnoteD2Ev
zynaddsubfx:_ZN3zyn7Presets12deletepresetERNS_12PresetsStoreEi
zynaddsubfx:_ZN3zyn7Presets13setpresettypeEPKc
zynaddsubfx:_ZN3zyn7Presets18checkclipboardtypeERNS_12PresetsStoreE
zynaddsubfx:_ZN3zyn7Presets4copyERNS_12PresetsStoreEPKc
zynaddsubfx:_ZN3zyn7PresetsC1Ev
zynaddsubfx:_ZN3zyn7PresetsC2Ev
zynaddsubfx:_ZN3zyn7PresetsD0Ev
zynaddsubfx:_ZN3zyn7PresetsD1Ev
zynaddsubfx:_ZN3zyn7PresetsD2Ev
zynaddsubfx:_ZN3zyn7SUBnote10chanOutputEPfPNS0_8bpfilterEi
zynaddsubfx:_ZN3zyn7SUBnote10initfilterERNS0_8bpfilterEffffb
zynaddsubfx:_ZN3zyn7SUBnote10legatonoteERKNS_12LegatoParamsE
zynaddsubfx:_ZN3zyn7SUBnote10releasekeyEv
zynaddsubfx:_ZN3zyn7SUBnote11cloneLegatoEv
zynaddsubfx:_ZN3zyn7SUBnote12setupFiltersEfPib
zynaddsubfx:_ZN3zyn7SUBnote14computerolloffEf
zynaddsubfx:_ZN3zyn7SUBnote14initparametersEfPNS_12WatchManagerEPKc
zynaddsubfx:_ZN3zyn7SUBnote18computefiltercoefsERNS0_8bpfilterEfff
zynaddsubfx:_ZN3zyn7SUBnote21computeallfiltercoefsEPNS0_8bpfilterEfff
zynaddsubfx:_ZN3zyn7SUBnote24computecurrentparametersEv
zynaddsubfx:_ZN3zyn7SUBnote5setupEfPNS_10PortamentoEfbPNS_12WatchManagerEPKc
zynaddsubfx:_ZN3zyn7SUBnote6entombEv
zynaddsubfx:_ZN3zyn7SUBnote7noteoutEPfS1_
zynaddsubfx:_ZN3zyn7SUBnote8KillNoteEv
zynaddsubfx:_ZN3zyn7SUBnoteC1EPKNS_17SUBnoteParametersERKNS_11SynthParamsEPNS_12WatchManagerEPKc
zynaddsubfx:_ZN3zyn7SUBnoteC2EPKNS_17SUBnoteParametersERKNS_11SynthParamsEPNS_12WatchManagerEPKc
zynaddsubfx:_ZN3zyn7SUBnoteD0Ev
zynaddsubfx:_ZN3zyn7SUBnoteD1Ev
zynaddsubfx:_ZN3zyn7SUBnoteD2Ev
zynaddsubfx:_ZN3zyn7SYNTH_T5aliasEb
zynaddsubfx:_ZN3zyn7SYNTH_T9numRandomEv
zynaddsubfx:_ZN3zyn7WavFile16writeMonoSamplesEiPs
zynaddsubfx:_ZN3zyn7WavFile18writeStereoSamplesEiPs
zynaddsubfx:_ZN3zyn7WavFileC1ENSt7__cxx1112basic_stringIcSt11char_traitsIcESaIcEEEii
zynaddsubfx:_ZN3zyn7WavFileC2ENSt7__cxx1112basic_stringIcSt11char_traitsIcESaIcEEEii
zynaddsubfx:_ZN3zyn7WavFileD1Ev
zynaddsubfx:_ZN3zyn7WavFileD2Ev
zynaddsubfx:_ZN3zyn7XmlNode3hasENSt7__cxx1112basic_stringIcSt11char_traitsIcESaIcEEE
zynaddsubfx:_ZN3zyn7XmlNodeC1ENSt7__cxx1112basic_stringIcSt11char_traitsIcESaIcEEE
zynaddsubfx:_ZN3zyn7XmlNodeC2ENSt7__cxx1112basic_stringIcSt11char_traitsIcESaIcEEE
zynaddsubfx:_ZN3zyn7XmlNodeixENSt7__cxx1112basic_stringIcSt11char_traitsIcESaIcEEE
zynaddsubfx:_ZN3zyn7captureINSt7__cxx1112basic_stringIcSt11char_traitsIcESaIcEEEEET_PNS_6MasterES6_
zynaddsubfx:_ZN3zyn7captureIPvEET_PNS_6MasterENSt7__cxx1112basic_stringIcSt11char_traitsIcESaIcEEE
zynaddsubfx:_ZN3zyn7floatEqEff
zynaddsubfx:_ZN3zyn7osc_bp1Ejff
zynaddsubfx:_ZN3zyn7osc_bp2Ejff
zynaddsubfx:_ZN3zyn7osc_bs1Ejff
zynaddsubfx:_ZN3zyn7osc_bs2Ejff
zynaddsubfx:_ZN3zyn7osc_cosEjff
zynaddsubfx:_ZN3zyn7osc_hp1Ejff
zynaddsubfx:_ZN3zyn7osc_hp2Ejff
zynaddsubfx:_ZN3zyn7osc_lp2Ejff
zynaddsubfx:_ZN3zyn7osc_sinEjff
zynaddsubfx:_ZN3zyn7postfixB5cxx11E
zynaddsubfx:_ZN3zyn7verboseE
zynaddsubfx:_ZN3zyn8Alienwah12getpresetparEhj
zynaddsubfx:_ZN3zyn8Alienwah3outERKNS_6StereoIPfEE
zynaddsubfx:_ZN3zyn8Alienwah5portsE
zynaddsubfx:_ZN3zyn8Alienwah5setfbEh
zynaddsubfx:_ZN3zyn8Alienwah7cleanupEv
zynaddsubfx:_ZN3zyn8Alienwah8setdelayEh
zynaddsubfx:_ZN3zyn8Alienwah8setdepthEh
zynaddsubfx:_ZN3zyn8Alienwah8setphaseEh
zynaddsubfx:_ZN3zyn8Alienwah9changeparEih
zynaddsubfx:_ZN3zyn8Alienwah9setpresetEh
zynaddsubfx:_ZN3zyn8Alienwah9setvolumeEh
zynaddsubfx:_ZN3zyn8AlienwahC1ENS_12EffectParamsE
zynaddsubfx:_ZN3zyn8AlienwahC2ENS_12EffectParamsE
zynaddsubfx:_ZN3zyn8AlienwahD0Ev
zynaddsubfx:_ZN3zyn8AlienwahD1Ev
zynaddsubfx:_ZN3zyn8AlienwahD2Ev
zynaddsubfx:_ZN3zyn8AudioOut13getSampleRateEv
zynaddsubfx:_ZN3zyn8AudioOut13setBufferSizeEi
zynaddsubfx:_ZN3zyn8AudioOut13setSamplerateEi
zynaddsubfx:_ZN3zyn8AudioOut7getNextEv
zynaddsubfx:_ZN3zyn8AudioOutC1ERKNS_7SYNTH_TE
zynaddsubfx:_ZN3zyn8AudioOutC2ERKNS_7SYNTH_TE
zynaddsubfx:_ZN3zyn8AudioOutD0Ev
zynaddsubfx:_ZN3zyn8AudioOutD1Ev
zynaddsubfx:_ZN3zyn8AudioOutD2Ev
zynaddsubfx:_ZN3zyn8Envelope10releasekeyEv
zynaddsubfx:_ZN3zyn8Envelope11forceFinishEv
zynaddsubfx:_ZN3zyn8Envelope5watchEff
zynaddsubfx:_ZN3zyn8Envelope6envoutEb
zynaddsubfx:_ZN3zyn8Envelope9envout_dBEv
zynaddsubfx:_ZN3zyn8EnvelopeC1ERNS_14EnvelopeParamsEffPNS_12WatchManagerEPKc
zynaddsubfx:_ZN3zyn8EnvelopeC2ERNS_14EnvelopeParamsEffPNS_12WatchManagerEPKc
zynaddsubfx:_ZN3zyn8EnvelopeD1Ev
zynaddsubfx:_ZN3zyn8EnvelopeD2Ev
zynaddsubfx:_ZN3zyn8NotePool10activeDescEv
zynaddsubfx:_ZN3zyn8NotePool10insertNoteEhhNS0_15SynthDescriptorEPNS_18PortamentoRealtimeEb
zynaddsubfx:_ZN3zyn8NotePool10limitVoiceEi
zynaddsubfx:_ZN3zyn8NotePool11activeNotesERNS0_14NoteDescriptorE
zynaddsubfx:_ZN3zyn8NotePool11applyLegatoEhRKNS_12LegatoParamsEPNS_18PortamentoRealtimeE
zynaddsubfx:_ZN3zyn8NotePool12killAllNotesEv
zynaddsubfx:_ZN3zyn8NotePool14NoteDescriptor17makeUnsustainableEv
zynaddsubfx:_ZN3zyn8NotePool14NoteDescriptor9doSustainEv
zynaddsubfx:_ZN3zyn8NotePool14NoteDescriptor9setStatusEh
zynaddsubfx:_ZN3zyn8NotePool14NoteDescriptoreqES1_
zynaddsubfx:_ZN3zyn8NotePool14releaseLatchedEv
zynaddsubfx:_ZN3zyn8NotePool15enforceKeyLimitEi
zynaddsubfx:_ZN3zyn8NotePool15upgradeToLegatoEv
zynaddsubfx:_ZN3zyn8NotePool16insertLegatoNoteENS0_14NoteDescriptorENS0_15SynthDescriptorE
zynaddsubfx:_ZN3zyn8NotePool17enforceVoiceLimitEii
zynaddsubfx:_ZN3zyn8NotePool17makeUnsustainableEh
zynaddsubfx:_ZN3zyn8NotePool19releasePlayingNotesEv
zynaddsubfx:_ZN3zyn8NotePool22releaseSustainingNotesEv
zynaddsubfx:_ZN3zyn8NotePool4dumpEv
zynaddsubfx:_ZN3zyn8NotePool4killERNS0_14NoteDescriptorE
zynaddsubfx:_ZN3zyn8NotePool4killERNS0_15SynthDescriptorE
zynaddsubfx:_ZN3zyn8NotePool5latchERNS0_14NoteDescriptorE
zynaddsubfx:_ZN3zyn8NotePool6entombERNS0_14NoteDescriptorE
zynaddsubfx:_ZN3zyn8NotePool7cleanupEv
zynaddsubfx:_ZN3zyn8NotePool7releaseERNS0_14NoteDescriptorE
zynaddsubfx:_ZN3zyn8NotePool8killNoteEh
zynaddsubfx:_ZN3zyn8NotePoolC1Ev
zynaddsubfx:_ZN3zyn8NotePoolC2Ev
zynaddsubfx:_ZN3zyn8OscilGen10getfromXMLERNS_10XMLwrapperE
zynaddsubfx:_ZN3zyn8OscilGen11getspectrumEiPfi
zynaddsubfx:_ZN3zyn8OscilGen11newrandseedEj
zynaddsubfx:_ZN3zyn8OscilGen12convert2sineEv
zynaddsubfx:_ZN3zyn8OscilGen14realtime_portsE
zynaddsubfx:_ZN3zyn8OscilGen18non_realtime_portsE
zynaddsubfx:_ZN3zyn8OscilGen22getcurrentbasefunctionENS_15FFTsampleBufferE
zynaddsubfx:_ZN3zyn8OscilGen5pasteERS0_
zynaddsubfx:_ZN3zyn8OscilGen5portsE
zynaddsubfx:_ZN3zyn8OscilGen7add2XMLERNS_10XMLwrapperE
zynaddsubfx:_ZN3zyn8OscilGen8defaultsEv
zynaddsubfx:_ZN3zyn8OscilGen9useasbaseEv
zynaddsubfx:_ZN3zyn8OscilGenC1ERKNS_7SYNTH_TEPNS_10FFTwrapperEPKNS_9ResonanceE
zynaddsubfx:_ZN3zyn8OscilGenC2ERKNS_7SYNTH_TEPNS_10FFTwrapperEPKNS_9ResonanceE
zynaddsubfx:_ZN3zyn8PaEngine10setAudioEnEb
zynaddsubfx:_ZN3zyn8PaEngine4StopEv
zynaddsubfx:_ZN3zyn8PaEngine5StartEv
zynaddsubfx:_ZN3zyn8PaEngine7processEPfm
zynaddsubfx:_ZN3zyn8PaEngine9PAprocessEPKvPvmPK24PaStreamCallbackTimeInfomS3_
zynaddsubfx:_ZN3zyn8PaEngineC1ERKNS_7SYNTH_TE
zynaddsubfx:_ZN3zyn8PaEngineC2ERKNS_7SYNTH_TE
zynaddsubfx:_ZN3zyn8PaEngineD0Ev
zynaddsubfx:_ZN3zyn8PaEngineD1Ev
zynaddsubfx:_ZN3zyn8PaEngineD2Ev
zynaddsubfx:_ZN3zyn8Recorder10triggernowEv
zynaddsubfx:_ZN3zyn8Recorder11preparefileENSt7__cxx1112basic_stringIcSt11char_traitsIcESaIcEEEi
zynaddsubfx:_ZN3zyn8Recorder4stopEv
zynaddsubfx:_ZN3zyn8Recorder5pauseEv
zynaddsubfx:_ZN3zyn8Recorder5portsE
zynaddsubfx:_ZN3zyn8Recorder5startEv
zynaddsubfx:_ZN3zyn8Recorder9recordingEv
zynaddsubfx:_ZN3zyn8RecorderC1ERKNS_7SYNTH_TE
zynaddsubfx:_ZN3zyn8RecorderC2ERKNS_7SYNTH_TE
zynaddsubfx:_ZN3zyn8RecorderD1Ev
zynaddsubfx:_ZN3zyn8RecorderD2Ev
zynaddsubfx:_ZN3zyn8SVFilter13setfreq_and_qEff
zynaddsubfx:_ZN3zyn8SVFilter15computeResponseEiffiff
zynaddsubfx:_ZN3zyn8SVFilter15singlefilteroutEPfRNS0_6fstageERNS0_10parametersEi
zynaddsubfx:_ZN3zyn8SVFilter18computefiltercoefsEv
zynaddsubfx:_ZN3zyn8SVFilter19getfilteroutfortypeERNS0_6fstageE
zynaddsubfx:_ZN3zyn8SVFilter4setqEf
zynaddsubfx:_ZN3zyn8SVFilter7cleanupEv
zynaddsubfx:_ZN3zyn8SVFilter7setfreqEf
zynaddsubfx:_ZN3zyn8SVFilter7setgainEf
zynaddsubfx:_ZN3zyn8SVFilter7settypeEi
zynaddsubfx:_ZN3zyn8SVFilter8responseC1Effffff
zynaddsubfx:_ZN3zyn8SVFilter8responseC2Effffff
zynaddsubfx:_ZN3zyn8SVFilter9filteroutEPf
zynaddsubfx:_ZN3zyn8SVFilter9setstagesEi
zynaddsubfx:_ZN3zyn8SVFilterC1Ehffhji
zynaddsubfx:_ZN3zyn8SVFilterC2Ehffhji
zynaddsubfx:_ZN3zyn8SVFilterD0Ev
zynaddsubfx:_ZN3zyn8SVFilterD1Ev
zynaddsubfx:_ZN3zyn8SVFilterD2Ev
zynaddsubfx:_ZN3zyn8isPluginE
zynaddsubfx:_ZN3zyn8loadfileENSt7__cxx1112basic_stringIcSt11char_traitsIcESaIcEEE
zynaddsubfx:_ZN3zyn8osc_hp1bEjff
zynaddsubfx:_ZN3zyn8osc_lpskEjff
zynaddsubfx:_ZN3zyn9Allocator14endTransactionEv
zynaddsubfx:_ZN3zyn9Allocator16beginTransactionEv
zynaddsubfx:_ZN3zyn9Allocator19rollbackTransactionEv
zynaddsubfx:_ZN3zyn9AllocatorC1Ev
zynaddsubfx:_ZN3zyn9AllocatorC2Ev
zynaddsubfx:_ZN3zyn9AllocatorD0Ev
zynaddsubfx:_ZN3zyn9AllocatorD1Ev
zynaddsubfx:_ZN3zyn9AllocatorD2Ev
zynaddsubfx:_ZN3zyn9BankEntryC1Ev
zynaddsubfx:_ZN3zyn9BankEntryC2Ev
zynaddsubfx:_ZN3zyn9EffectLFO11getlfoshapeEf
zynaddsubfx:_ZN3zyn9EffectLFO12effectlfooutEPfS1_
zynaddsubfx:_ZN3zyn9EffectLFO12updateparamsEv
zynaddsubfx:_ZN3zyn9EffectLFOC1Eff
zynaddsubfx:_ZN3zyn9EffectLFOC2Eff
zynaddsubfx:_ZN3zyn9EffectLFOD1Ev
zynaddsubfx:_ZN3zyn9EffectLFOD2Ev
zynaddsubfx:_ZN3zyn9EffectMgr10getfromXMLERNS_10XMLwrapperE
zynaddsubfx:_ZN3zyn9EffectMgr10setdryonlyEb
zynaddsubfx:_ZN3zyn9EffectMgr12changeeffectEi
zynaddsubfx:_ZN3zyn9EffectMgr12changepresetEh
zynaddsubfx:_ZN3zyn9EffectMgr14changeeffectrtEib
zynaddsubfx:_ZN3zyn9EffectMgr14changepresetrtEhb
zynaddsubfx:_ZN3zyn9EffectMgr14geteffectparrtEi
zynaddsubfx:_ZN3zyn9EffectMgr14seteffectparrtEih
zynaddsubfx:_ZN3zyn9EffectMgr15sysefxgetvolumeEv
zynaddsubfx:_ZN3zyn9EffectMgr16changesettingsrtEPKs
zynaddsubfx:_ZN3zyn9EffectMgr17getEQfreqresponseEf
zynaddsubfx:_ZN3zyn9EffectMgr3outEPfS1_
zynaddsubfx:_ZN3zyn9EffectMgr4initEv
zynaddsubfx:_ZN3zyn9EffectMgr4killEv
zynaddsubfx:_ZN3zyn9EffectMgr5pasteERS0_
zynaddsubfx:_ZN3zyn9EffectMgr5portsE
zynaddsubfx:_ZN3zyn9EffectMgr7add2XMLERNS_10XMLwrapperE
zynaddsubfx:_ZN3zyn9EffectMgr7cleanupEv
zynaddsubfx:_ZN3zyn9EffectMgr8defaultsEv
zynaddsubfx:_ZN3zyn9EffectMgr9geteffectEv
zynaddsubfx:_ZN3zyn9EffectMgr9getpresetEv
zynaddsubfx:_ZN3zyn9EffectMgrC1ERNS_9AllocatorERKNS_7SYNTH_TEbPKNS_7AbsTimeE
zynaddsubfx:_ZN3zyn9EffectMgrC2ERNS_9AllocatorERKNS_7SYNTH_TEbPKNS_7AbsTimeE
zynaddsubfx:_ZN3zyn9EffectMgrD0Ev
zynaddsubfx:_ZN3zyn9EffectMgrD1Ev
zynaddsubfx:_ZN3zyn9EffectMgrD2Ev
zynaddsubfx:_ZN3zyn9EngineMgr11getInstanceEPKNS_7SYNTH_TEPKNS_10oss_devs_tE
zynaddsubfx:_ZN3zyn9EngineMgr12setInDefaultENSt7__cxx1112basic_stringIcSt11char_traitsIcESaIcEEE
zynaddsubfx:_ZN3zyn9EngineMgr13setOutDefaultENSt7__cxx1112basic_stringIcSt11char_traitsIcESaIcEEE
zynaddsubfx:_ZN3zyn9EngineMgr4stopEv
zynaddsubfx:_ZN3zyn9EngineMgr5startEv
zynaddsubfx:_ZN3zyn9EngineMgr6getEngENSt7__cxx1112basic_stringIcSt11char_traitsIcESaIcEEE
zynaddsubfx:_ZN3zyn9EngineMgrC1EPKNS_7SYNTH_TERKNS_10oss_devs_tE
zynaddsubfx:_ZN3zyn9EngineMgrC2EPKNS_7SYNTH_TERKNS_10oss_devs_tE
zynaddsubfx:_ZN3zyn9EngineMgrD1Ev
zynaddsubfx:_ZN3zyn9EngineMgrD2Ev
zynaddsubfx:_ZN3zyn9LFOParams10getfromXMLERNS_10XMLwrapperE
zynaddsubfx:_ZN3zyn9LFOParams5pasteERS0_
zynaddsubfx:_ZN3zyn9LFOParams5portsE
zynaddsubfx:_ZN3zyn9LFOParams5setupEv
zynaddsubfx:_ZN3zyn9LFOParams7add2XMLERNS_10XMLwrapperE
zynaddsubfx:_ZN3zyn9LFOParams8defaultsEv
zynaddsubfx:_ZN3zyn9LFOParamsC1EPKNS_7AbsTimeE
zynaddsubfx:_ZN3zyn9LFOParamsC1EfcccccfffciPKNS_7AbsTimeE
zynaddsubfx:_ZN3zyn9LFOParamsC1EiPKNS_7AbsTimeE
zynaddsubfx:_ZN3zyn9LFOParamsC2EPKNS_7AbsTimeE
zynaddsubfx:_ZN3zyn9LFOParamsC2EfcccccfffciPKNS_7AbsTimeE
zynaddsubfx:_ZN3zyn9LFOParamsC2EiPKNS_7AbsTimeE
zynaddsubfx:_ZN3zyn9LFOParamsD0Ev
zynaddsubfx:_ZN3zyn9LFOParamsD1Ev
zynaddsubfx:_ZN3zyn9LFOParamsD2Ev
zynaddsubfx:_ZN3zyn9MemLocker4lockEv
zynaddsubfx:_ZN3zyn9MemLocker6unlockEv
zynaddsubfx:_ZN3zyn9MidiEventC1Ev
zynaddsubfx:_ZN3zyn9MidiEventC2Ev
zynaddsubfx:_ZN3zyn9ModFilter11paramUpdateERPNS_6FilterE
zynaddsubfx:_ZN3zyn9ModFilter11updateSenseEfhh
zynaddsubfx:_ZN3zyn9ModFilter13anParamUpdateERNS_12AnalogFilterE
zynaddsubfx:_ZN3zyn9ModFilter13cbParamUpdateERNS_10CombFilterE
zynaddsubfx:_ZN3zyn9ModFilter13mgParamUpdateERNS_10MoogFilterE
zynaddsubfx:_ZN3zyn9ModFilter13svParamUpdateERNS_8SVFilterE
zynaddsubfx:_ZN3zyn9ModFilter14updateNoteFreqEf
zynaddsubfx:_ZN3zyn9ModFilter6addModERNS_3LFOE
zynaddsubfx:_ZN3zyn9ModFilter6addModERNS_8EnvelopeE
zynaddsubfx:_ZN3zyn9ModFilter6filterEPfS1_
zynaddsubfx:_ZN3zyn9ModFilter6updateEff
zynaddsubfx:_ZN3zyn9ModFilterC1ERKNS_12FilterParamsERKNS_7SYNTH_TERKNS_7AbsTimeERNS_9AllocatorEbf
zynaddsubfx:_ZN3zyn9ModFilterC2ERKNS_12FilterParamsERKNS_7SYNTH_TERKNS_7AbsTimeERNS_9AllocatorEbf
zynaddsubfx:_ZN3zyn9ModFilterD1Ev
zynaddsubfx:_ZN3zyn9ModFilterD2Ev
zynaddsubfx:_ZN3zyn9NulEngine10setAudioEnEb
zynaddsubfx:_ZN3zyn9NulEngine11AudioThreadEv
zynaddsubfx:_ZN3zyn9NulEngine12_AudioThreadEPv
zynaddsubfx:_ZN3zyn9NulEngine4StopEv
zynaddsubfx:_ZN3zyn9NulEngine5StartEv
zynaddsubfx:_ZN3zyn9NulEngineC1ERKNS_7SYNTH_TE
zynaddsubfx:_ZN3zyn9NulEngineC2ERKNS_7SYNTH_TE
zynaddsubfx:_ZN3zyn9NulEngineD0Ev
zynaddsubfx:_ZN3zyn9NulEngineD1Ev
zynaddsubfx:_ZN3zyn9NulEngineD2Ev
zynaddsubfx:_ZN3zyn9OssEngine10setAudioEnEb
zynaddsubfx:_ZN3zyn9OssEngine12midiThreadCbEv
zynaddsubfx:_ZN3zyn9OssEngine13_midiThreadCbEPv
zynaddsubfx:_ZN3zyn9OssEngine13audioThreadCbEv
zynaddsubfx:_ZN3zyn9OssEngine14_audioThreadCbEPv
zynaddsubfx:_ZN3zyn9OssEngine4StopEv
zynaddsubfx:_ZN3zyn9OssEngine5StartEv
zynaddsubfx:_ZN3zyn9OssEngine8openMidiEv
zynaddsubfx:_ZN3zyn9OssEngine8stopMidiEv
zynaddsubfx:_ZN3zyn9OssEngine9openAudioEv
zynaddsubfx:_ZN3zyn9OssEngine9setMidiEnEb
zynaddsubfx:_ZN3zyn9OssEngine9stopAudioEv
zynaddsubfx:_ZN3zyn9OssEngineC1ERKNS_7SYNTH_TERKNS_10oss_devs_tE
zynaddsubfx:_ZN3zyn9OssEngineC2ERKNS_7SYNTH_TERKNS_10oss_devs_tE
zynaddsubfx:_ZN3zyn9OssEngineD0Ev
zynaddsubfx:_ZN3zyn9OssEngineD1Ev
zynaddsubfx:_ZN3zyn9OssEngineD2Ev
zynaddsubfx:_ZN3zyn9Resonance10getfromXMLERNS_10XMLwrapperE
zynaddsubfx:_ZN3zyn9Resonance14sendcontrollerENS_15MidiControllersEf
zynaddsubfx:_ZN3zyn9Resonance16interpolatepeaksEi
zynaddsubfx:_ZN3zyn9Resonance4zeroEv
zynaddsubfx:_ZN3zyn9Resonance5pasteERS0_
zynaddsubfx:_ZN3zyn9Resonance5portsE
zynaddsubfx:_ZN3zyn9Resonance6smoothEv
zynaddsubfx:_ZN3zyn9Resonance7add2XMLERNS_10XMLwrapperE
zynaddsubfx:_ZN3zyn9Resonance8defaultsEv
zynaddsubfx:_ZN3zyn9Resonance8setpointEih
zynaddsubfx:_ZN3zyn9Resonance9randomizeEi
zynaddsubfx:_ZN3zyn9ResonanceC1Ev
zynaddsubfx:_ZN3zyn9ResonanceC2Ev
zynaddsubfx:_ZN3zyn9ResonanceD0Ev
zynaddsubfx:_ZN3zyn9ResonanceD1Ev
zynaddsubfx:_ZN3zyn9ResonanceD2Ev
zynaddsubfx:_ZN3zyn9SynthNote11setVelocityEf
zynaddsubfx:_ZN3zyn9SynthNote13getRandomUintEv
zynaddsubfx:_ZN3zyn9SynthNote14getRandomFloatEv
zynaddsubfx:_ZN3zyn9SynthNote15setFilterCutoffEf
zynaddsubfx:_ZN3zyn9SynthNote22getFilterCutoffRelFreqEv
zynaddsubfx:_ZN3zyn9SynthNote6Legato5applyERS0_PfS3_
zynaddsubfx:_ZN3zyn9SynthNote6Legato6updateERKNS_12LegatoParamsE
zynaddsubfx:_ZN3zyn9SynthNote6LegatoC1ERKNS_7SYNTH_TEfPNS_10PortamentoEfbj
zynaddsubfx:_ZN3zyn9SynthNote6LegatoC2ERKNS_7SYNTH_TEfPNS_10PortamentoEfbj
zynaddsubfx:_ZN3zyn9SynthNote8setPitchEf
zynaddsubfx:_ZN3zyn9SynthNoteC1ERKNS_11SynthParamsE
zynaddsubfx:_ZN3zyn9SynthNoteC2ERKNS_11SynthParamsE
zynaddsubfx:_ZN3zyn9WavEngine11AudioThreadEv
zynaddsubfx:_ZN3zyn9WavEngine11destroyFileEv
zynaddsubfx:_ZN3zyn9WavEngine12_AudioThreadEPv
zynaddsubfx:_ZN3zyn9WavEngine4StopEv
zynaddsubfx:_ZN3zyn9WavEngine4pushENS_6StereoIPfEEm
zynaddsubfx:_ZN3zyn9WavEngine5StartEv
zynaddsubfx:_ZN3zyn9WavEngine7newFileEPNS_7WavFileE
zynaddsubfx:_ZN3zyn9WavEngine9openAudioEv
zynaddsubfx:_ZN3zyn9WavEngineC1ERKNS_7SYNTH_TE
zynaddsubfx:_ZN3zyn9WavEngineC2ERKNS_7SYNTH_TE
zynaddsubfx:_ZN3zyn9WavEngineD0Ev
zynaddsubfx:_ZN3zyn9WavEngineD1Ev
zynaddsubfx:_ZN3zyn9WavEngineD2Ev
zynaddsubfx:_ZN3zyn9bankPortsE
zynaddsubfx:_ZN3zyn9dump_jsonERSoRKN5rtosc5PortsE
zynaddsubfx:_ZN3zyn9getFilterEh
zynaddsubfx:_ZN3zyn9getStatusEi
zynaddsubfx:_ZN3zyn9getdetuneEhtt
zynaddsubfx:_ZN3zyn9invSignalEPfm
zynaddsubfx:_ZN3zyn9normalizeEPSt7complexIfEi
zynaddsubfx:_ZN3zyn9os_usleepEl
zynaddsubfx:_ZN3zynlsERSoRKNS_12version_typeE
zynaddsubfx:_ZN3zynlsERSoRKNS_9MidiEventE
zynaddsubfx:_ZN3zynmlEfSt7complexIfE
zynaddsubfx:_ZN5EffUI10menu_distpE
zynaddsubfx:_ZN5EffUI10menu_echopE
zynaddsubfx:_ZN5EffUI10menu_symppE
zynaddsubfx:_ZN5EffUI11cb_freqdialEP11Fl_Osc_DialPv
zynaddsubfx:_ZN5EffUI11cb_gaindialEP11Fl_Osc_DialPv
zynaddsubfx:_ZN5EffUI11menu_distp5E
zynaddsubfx:_ZN5EffUI11menu_revp10E
zynaddsubfx:_ZN5EffUI12menu_choruspE
zynaddsubfx:_ZN5EffUI12menu_phaserpE
zynaddsubfx:_ZN5EffUI13cb_typechoiceEP13Fl_Osc_ChoicePv
zynaddsubfx:_ZN5EffUI13menu_chorusp4E
zynaddsubfx:_ZN5EffUI13menu_phaserp4E
zynaddsubfx:_ZN5EffUI14cb_bandcounterEP10Fl_CounterPv
zynaddsubfx:_ZN5EffUI14make_eq_windowEv
zynaddsubfx:_ZN5EffUI15menu_typechoiceE
zynaddsubfx:_ZN5EffUI16cb_stagescounterEP14Fl_Osc_CounterPv
zynaddsubfx:_ZN5EffUI16make_echo_windowEv
zynaddsubfx:_ZN5EffUI16make_null_windowEv
zynaddsubfx:_ZN5EffUI18make_chorus_windowEv
zynaddsubfx:_ZN5EffUI18make_filter_windowEv
zynaddsubfx:_ZN5EffUI18make_phaser_windowEv
zynaddsubfx:_ZN5EffUI18make_reverb_windowEv
zynaddsubfx:_ZN5EffUI20make_alienwah_windowEv
zynaddsubfx:_ZN5EffUI22make_distortion_windowEv
zynaddsubfx:_ZN5EffUI23make_sympathetic_windowEv
zynaddsubfx:_ZN5EffUI25make_dynamicfilter_windowEv
zynaddsubfx:_ZN5EffUI4initEb
zynaddsubfx:_ZN5EffUI7cb_eqp0EP11Fl_Osc_DialPv
zynaddsubfx:_ZN5EffUI7refreshEv
zynaddsubfx:_ZN5EffUI8cb_CloseEP9Fl_ButtonPv
zynaddsubfx:_ZN5EffUI8cb_qdialEP11Fl_Osc_DialPv
zynaddsubfx:_ZN5EffUI8menu_awpE
zynaddsubfx:_ZN5EffUI8menu_dfpE
zynaddsubfx:_ZN5EffUI9cb_FilterEP9Fl_ButtonPv
zynaddsubfx:_ZN5EffUI9cb_revp10EP13Fl_Osc_ChoicePv
zynaddsubfx:_ZN5EffUI9menu_awp4E
zynaddsubfx:_ZN5EffUI9menu_dfp4E
zynaddsubfx:_ZN5EffUI9menu_revpE
zynaddsubfx:_ZN5EffUIC1EiiiiPKc
zynaddsubfx:_ZN5EffUIC2EiiiiPKc
zynaddsubfx:_ZN5EffUID0Ev
zynaddsubfx:_ZN5EffUID1Ev
zynaddsubfx:_ZN5EffUID2Ev
zynaddsubfx:_ZN5LFOUI11make_windowEv
zynaddsubfx:_ZN5LFOUI12menu_LFOtypeE
zynaddsubfx:_ZN5LFOUI4cb_CEP9Fl_ButtonPv
zynaddsubfx:_ZN5LFOUI4cb_PEP9Fl_ButtonPv
zynaddsubfx:_ZN5LFOUI4initEP16Fl_Osc_InterfaceNSt7__cxx1112basic_stringIcSt11char_traitsIcESaIcEEES7_
zynaddsubfx:_ZN5LFOUI7refreshEv
zynaddsubfx:_ZN5LFOUIC1EiiiiPKc
zynaddsubfx:_ZN5LFOUIC2EiiiiPKc
zynaddsubfx:_ZN5LFOUID0Ev
zynaddsubfx:_ZN5LFOUID1Ev
zynaddsubfx:_ZN5LFOUID2Ev
zynaddsubfx:_ZN5NioUI12midiCallbackEP9Fl_Widget
zynaddsubfx:_ZN5NioUI13audioCallbackEP9Fl_Widget
zynaddsubfx:_ZN5NioUI7refreshEv
zynaddsubfx:_ZN5NioUIC1EP16Fl_Osc_Interface
zynaddsubfx:_ZN5NioUIC2EP16Fl_Osc_Interface
zynaddsubfx:_ZN5NioUID0Ev
zynaddsubfx:_ZN5NioUID1Ev
zynaddsubfx:_ZN5NioUID2Ev
zynaddsubfx:_ZN5rtosc10ClonePortsC1ERKNS_5PortsESt16initializer_listINS_9ClonePortEE
zynaddsubfx:_ZN5rtosc10ClonePortsC2ERKNS_5PortsESt16initializer_listINS_9ClonePortEE
zynaddsubfx:_ZN5rtosc10MergePortsC1ESt16initializer_listIPKNS_5PortsEE
zynaddsubfx:_ZN5rtosc10MergePortsC2ESt16initializer_listIPKNS_5PortsEE
zynaddsubfx:_ZN5rtosc10ThreadLink10writeArrayEPKcS2_PK11rtosc_arg_t
zynaddsubfx:_ZN5rtosc10ThreadLink14read_lookaheadEv
zynaddsubfx:_ZN5rtosc10ThreadLink4readEb
zynaddsubfx:_ZN5rtosc10ThreadLink4readEv
zynaddsubfx:_ZN5rtosc10ThreadLink5writeEPKcS2_z
zynaddsubfx:_ZN5rtosc10ThreadLink6bufferEv
zynaddsubfx:_ZN5rtosc10ThreadLink9raw_writeEPKc
zynaddsubfx:_ZN5rtosc10ThreadLinkC1Emm
zynaddsubfx:_ZN5rtosc10ThreadLinkC2Emm
zynaddsubfx:_ZN5rtosc10ThreadLinkD1Ev
zynaddsubfx:_ZN5rtosc10ThreadLinkD2Ev
zynaddsubfx:_ZN5rtosc10walk_portsEPKNS_5PortsEPcmPvPFvPKNS_4PortEPKcS9_RS1_S4_S4_EbS4_b
zynaddsubfx:_ZN5rtosc11UndoHistory11recordEventEPKc
zynaddsubfx:_ZN5rtosc11UndoHistory11seekHistoryEi
zynaddsubfx:_ZN5rtosc11UndoHistory11setCallbackESt8functionIFvPKcEE
zynaddsubfx:_ZN5rtosc11UndoHistoryC1Ev
zynaddsubfx:_ZN5rtosc11UndoHistoryC2Ev
zynaddsubfx:_ZN5rtosc11UndoHistoryD1Ev
zynaddsubfx:_ZN5rtosc11UndoHistoryD2Ev
zynaddsubfx:_ZN5rtosc11path_searchERKNS_5PortsEPKcS4_PcmP11rtosc_arg_tmNS_16path_search_optsEb
zynaddsubfx:_ZN5rtosc11path_searchERKNS_5PortsEPKcmPcmNS_16path_search_optsEb
zynaddsubfx:_ZN5rtosc12MidiMapperRT12addWatchPortEv
zynaddsubfx:_ZN5rtosc12MidiMapperRT12setBackendCbESt8functionIFvPKcEE
zynaddsubfx:_ZN5rtosc12MidiMapperRT13setFrontendCbESt8functionIFvPKcEE
zynaddsubfx:_ZN5rtosc12MidiMapperRT15removeWatchPortEv
zynaddsubfx:_ZN5rtosc12MidiMapperRT5portsE
zynaddsubfx:_ZN5rtosc12MidiMapperRT8addWatchEv
zynaddsubfx:_ZN5rtosc12MidiMapperRT8bindPortEv
zynaddsubfx:_ZN5rtosc12MidiMapperRT8handleCCEiicb
zynaddsubfx:_ZN5rtosc12MidiMapperRT8remWatchEv
zynaddsubfx:_ZN5rtosc12MidiMapperRTC1Ev
zynaddsubfx:_ZN5rtosc12MidiMapperRTC2Ev
zynaddsubfx:_ZN5rtosc12map_arg_valsEP15rtosc_arg_val_tmNS_4Port13MetaContainerE
zynaddsubfx:_ZN5rtosc12save_to_fileERKNS_5PortsEPvPKc13rtosc_versionRSt3setINSt7__cxx1112basic_stringIcSt11char_traitsIcESaIcEEESt4lessISD_ESaISD_EERKSt6vectorISD_SG_ESD_
zynaddsubfx:_ZN5rtosc13AutomationMgr10handleMidiEiii
zynaddsubfx:_ZN5rtosc13AutomationMgr10setSlotSubEiif
zynaddsubfx:_ZN5rtosc13AutomationMgr11simpleSlopeEiiff
zynaddsubfx:_ZN5rtosc13AutomationMgr12clearSlotSubEii
zynaddsubfx:_ZN5rtosc13AutomationMgr12set_instanceEPv
zynaddsubfx:_ZN5rtosc13AutomationMgr13createBindingEiPKcb
zynaddsubfx:_ZN5rtosc13AutomationMgr13updateMappingEii
zynaddsubfx:_ZN5rtosc13AutomationMgr14getSlotSubGainEii
zynaddsubfx:_ZN5rtosc13AutomationMgr14setSlotSubGainEiif
zynaddsubfx:_ZN5rtosc13AutomationMgr14setSlotSubPathEiiPKc
zynaddsubfx:_ZN5rtosc13AutomationMgr16getSlotSubOffsetEii
zynaddsubfx:_ZN5rtosc13AutomationMgr16setSlotSubOffsetEiif
zynaddsubfx:_ZN5rtosc13AutomationMgr18setparameternumberEji
zynaddsubfx:_ZN5rtosc13AutomationMgr7getNameEi
zynaddsubfx:_ZN5rtosc13AutomationMgr7getSlotEi
zynaddsubfx:_ZN5rtosc13AutomationMgr7getnrpnEPiS1_S1_S1_
zynaddsubfx:_ZN5rtosc13AutomationMgr7setNameEiPKc
zynaddsubfx:_ZN5rtosc13AutomationMgr7setSlotEif
zynaddsubfx:_ZN5rtosc13AutomationMgr9clearSlotEi
zynaddsubfx:_ZN5rtosc13AutomationMgr9set_portsERKNS_5PortsE
zynaddsubfx:_ZN5rtosc13AutomationMgrC1Eiii
zynaddsubfx:_ZN5rtosc13AutomationMgrC2Eiii
zynaddsubfx:_ZN5rtosc13AutomationMgrD1Ev
zynaddsubfx:_ZN5rtosc13AutomationMgrD2Ev
zynaddsubfx:_ZN5rtosc13MidiMappernRT10apply_highEii
zynaddsubfx:_ZN5rtosc13MidiMappernRT10apply_midiEii
zynaddsubfx:_ZN5rtosc13MidiMappernRT10delMappingEibPKc
zynaddsubfx:_ZN5rtosc13MidiMappernRT10hasPendingENSt7__cxx1112basic_stringIcSt11char_traitsIcESaIcEEE
zynaddsubfx:_ZN5rtosc13MidiMappernRT12addNewMapperEiRKNS_4PortENSt7__cxx1112basic_stringIcSt11char_traitsIcESaIcEEE
zynaddsubfx:_ZN5rtosc13MidiMappernRT12getBijectionENSt7__cxx1112basic_stringIcSt11char_traitsIcESaIcEEE
zynaddsubfx:_ZN5rtosc13MidiMappernRT13addFineMapperEiRKNS_4PortENSt7__cxx1112basic_stringIcSt11char_traitsIcESaIcEEE
zynaddsubfx:_ZN5rtosc13MidiMappernRT14hasFinePendingENSt7__cxx1112basic_stringIcSt11char_traitsIcESaIcEEE
zynaddsubfx:_ZN5rtosc13MidiMappernRT14replaceMappingEibPKc
zynaddsubfx:_ZN5rtosc13MidiMappernRT15getMappedStringENSt7__cxx1112basic_stringIcSt11char_traitsIcESaIcEEE
zynaddsubfx:_ZN5rtosc13MidiMappernRT16hasCoarsePendingENSt7__cxx1112basic_stringIcSt11char_traitsIcESaIcEEE
zynaddsubfx:_ZN5rtosc13MidiMappernRT20generateNewBijectionERKNS_4PortENSt7__cxx1112basic_stringIcSt11char_traitsIcESaIcEEE
zynaddsubfx:_ZN5rtosc13MidiMappernRT21getMidiMappingStringsB5cxx11Ev
zynaddsubfx:_ZN5rtosc13MidiMappernRT3hasENSt7__cxx1112basic_stringIcSt11char_traitsIcESaIcEEE
zynaddsubfx:_ZN5rtosc13MidiMappernRT3mapEPKcb
zynaddsubfx:_ZN5rtosc13MidiMappernRT5clearEv
zynaddsubfx:_ZN5rtosc13MidiMappernRT5snoopEPKc
zynaddsubfx:_ZN5rtosc13MidiMappernRT5unMapEPKcb
zynaddsubfx:_ZN5rtosc13MidiMappernRT7getFineENSt7__cxx1112basic_stringIcSt11char_traitsIcESaIcEEE
zynaddsubfx:_ZN5rtosc13MidiMappernRT7hasFineENSt7__cxx1112basic_stringIcSt11char_traitsIcESaIcEEE
zynaddsubfx:_ZN5rtosc13MidiMappernRT9apply_lowEii
zynaddsubfx:_ZN5rtosc13MidiMappernRT9getBoundsEPKc
zynaddsubfx:_ZN5rtosc13MidiMappernRT9getCoarseENSt7__cxx1112basic_stringIcSt11char_traitsIcESaIcEEE
zynaddsubfx:_ZN5rtosc13MidiMappernRT9hasCoarseENSt7__cxx1112basic_stringIcSt11char_traitsIcESaIcEEE
zynaddsubfx:_ZN5rtosc13MidiMappernRT9setBoundsEPKcff
zynaddsubfx:_ZN5rtosc13MidiMappernRT9useFreeIDEi
zynaddsubfx:_ZN5rtosc13MidiMappernRTC1Ev
zynaddsubfx:_ZN5rtosc13MidiMappernRTC2Ev
zynaddsubfx:_ZN5rtosc14getUndoAddressEPKc
zynaddsubfx:_ZN5rtosc14load_from_fileEPKcRKNS_5PortsEPvS1_13rtosc_versionPNS_21savefile_dispatcher_tE
zynaddsubfx:_ZN5rtosc15UndoHistoryImpl10mergeEventElPKcPcm
zynaddsubfx:_ZN5rtosc15UndoHistoryImpl5clearEv
zynaddsubfx:_ZN5rtosc15UndoHistoryImpl6replayEPKc
zynaddsubfx:_ZN5rtosc15UndoHistoryImpl6rewindEPKc
zynaddsubfx:_ZN5rtosc17MidiMapperStorage11cloneValuesERKS0_
zynaddsubfx:_ZN5rtosc17MidiMapperStorage5cloneEv
zynaddsubfx:_ZN5rtosc17MidiMapperStorage8handleCCEiiSt8functionIFvPKcEE
zynaddsubfx:_ZN5rtosc17enum_key_from_msgENS_4Port13MetaContainerEPKc
zynaddsubfx:_ZN5rtosc17first_equal_indexEPK15rtosc_arg_val_tPS0_mm
zynaddsubfx:_ZN5rtosc17get_default_valueEPKcRKNS_5PortsEPvPKNS_4PortEii
zynaddsubfx:_ZN5rtosc17get_default_valueEPKcS1_RKNS_5PortsEPvPKNS_4PortEimP15rtosc_arg_val_tPcm
zynaddsubfx:_ZN5rtosc18get_changed_valuesERKNS_5PortsEPvRSt3setINSt7__cxx1112basic_stringIcSt11char_traitsIcESaIcEEESt4lessISA_ESaISA_EERKSt6vectorISA_SD_E
zynaddsubfx:_ZN5rtosc18rtosc_arg_val_sizeEc
zynaddsubfx:_ZN5rtosc21canonicalize_arg_valsEP15rtosc_arg_val_tmPKcNS_4Port13MetaContainerE
zynaddsubfx:_ZN5rtosc21savefile_dispatcher_t11do_dispatchEPKc
zynaddsubfx:_ZN5rtosc21savefile_dispatcher_t11on_dispatchEmPcmmP15rtosc_arg_val_t
zynaddsubfx:_ZN5rtosc21savefile_dispatcher_t16default_responseEm
zynaddsubfx:_ZN5rtosc25dispatch_printed_messagesEPKcRKNS_5PortsEPvPNS_21savefile_dispatcher_tE
zynaddsubfx:_ZN5rtosc4Port12MetaIteratorC1EPKc
zynaddsubfx:_ZN5rtosc4Port12MetaIteratorC2EPKc
zynaddsubfx:_ZN5rtosc4Port12MetaIteratorppEv
zynaddsubfx:_ZN5rtosc4Port13MetaContainerC1EPKc
zynaddsubfx:_ZN5rtosc4Port13MetaContainerC2EPKc
zynaddsubfx:_ZN5rtosc5Ports12collapsePathEPc
zynaddsubfx:_ZN5rtosc5Ports12refreshMagicEv
zynaddsubfx:_ZN5rtosc5PortsC1ESt16initializer_listINS_4PortEE
zynaddsubfx:_ZN5rtosc5PortsC2ESt16initializer_listINS_4PortEE
zynaddsubfx:_ZN5rtosc5PortsD1Ev
zynaddsubfx:_ZN5rtosc5PortsD2Ev
zynaddsubfx:_ZN5rtosc6RtData10chainArrayEPKcS2_P11rtosc_arg_t
zynaddsubfx:_ZN5rtosc6RtData10push_indexEi
zynaddsubfx:_ZN5rtosc6RtData10replyArrayEPKcS2_P11rtosc_arg_t
zynaddsubfx:_ZN5rtosc6RtData14broadcastArrayEPKcS2_P11rtosc_arg_t
zynaddsubfx:_ZN5rtosc6RtData5chainEPKc
zynaddsubfx:_ZN5rtosc6RtData5chainEPKcS2_z
zynaddsubfx:_ZN5rtosc6RtData5replyEPKc
zynaddsubfx:_ZN5rtosc6RtData5replyEPKcS2_z
zynaddsubfx:_ZN5rtosc6RtData7forwardEPKc
zynaddsubfx:_ZN5rtosc6RtData9broadcastEPKc
zynaddsubfx:_ZN5rtosc6RtData9broadcastEPKcS2_z
zynaddsubfx:_ZN5rtosc6RtData9pop_indexEv
zynaddsubfx:_ZN5rtosc6RtDataC1Ev
zynaddsubfx:_ZN5rtosc6RtDataC2Ev
zynaddsubfx:_ZN5rtosc7helpers22get_value_from_runtimeEPvRKNS_4PortEmPcPKcmmP15rtosc_arg_val_tPSt6vectorISA_IcSaIcEESaISC_EE
zynaddsubfx:_ZN5rtosc7helpers22get_value_from_runtimeEPvRKNS_5PortsEmPcS5_mi
zynaddsubfx:_ZN5rtosc8enum_keyENS_4Port13MetaContainerEPKc
zynaddsubfx:_ZN5rtosc9scan_depsERKNSt7__cxx1112basic_stringIcSt11char_traitsIcESaIcEEES5_RKNS_5PortsERKSt3mapIS5_PNS_9message_tESt4lessIS5_ESaISt4pairIS6_SD_EEERKSt6vectorISC_SaISC_EE
zynaddsubfx:_ZN5rtosclsERSoRNS_15OscDocFormatterE
zynaddsubfx:_ZN6BankUI10cb_RefreshEP9Fl_ButtonPv
zynaddsubfx:_ZN6BankUI11cb_banklistEP8BankListPv
zynaddsubfx:_ZN6BankUI11make_windowEv
zynaddsubfx:_ZN6BankUI13update_searchENSt7__cxx1112basic_stringIcSt11char_traitsIcESaIcEEE
zynaddsubfx:_ZN6BankUI16rescan_for_banksEv
zynaddsubfx:_ZN6BankUI17refreshmainwindowEv
zynaddsubfx:_ZN6BankUI4hideEv
zynaddsubfx:_ZN6BankUI4initEP11Fl_Valuator
zynaddsubfx:_ZN6BankUI4showEv
zynaddsubfx:_ZN6BankUI6cb_NewEP9Fl_ButtonPv
zynaddsubfx:_ZN6BankUI7processEv
zynaddsubfx:_ZN6BankUI8cb_CloseEP9Fl_ButtonPv
zynaddsubfx:_ZN6BankUI9cb_SearchEP8Fl_InputPv
zynaddsubfx:_ZN6BankUIC1EPiP16Fl_Osc_Interface
zynaddsubfx:_ZN6BankUIC2EPiP16Fl_Osc_Interface
zynaddsubfx:_ZN6BankUID0Ev
zynaddsubfx:_ZN6BankUID1Ev
zynaddsubfx:_ZN6BankUID2Ev
zynaddsubfx:_ZN6PartUI10cb_EffectsEP9Fl_ButtonPv
zynaddsubfx:_ZN6PartUI10cb_SustainEP12Fl_Osc_CheckPv
zynaddsubfx:_ZN6PartUI10cb_benddirEP15Fl_Check_ButtonPv
zynaddsubfx:_ZN6PartUI11cb_CommentsEP9Fl_ButtonPv
zynaddsubfx:_ZN6PartUI11cb_Effects1EP9Fl_ButtonPv
zynaddsubfx:_ZN6PartUI11cb_bendspltEP12Fl_Osc_CheckPv
zynaddsubfx:_ZN6PartUI11make_windowEv
zynaddsubfx:_ZN6PartUI12cb_Comments1EP12Fl_Osc_InputPv
zynaddsubfx:_ZN6PartUI13cb_insefftypeEP13Fl_Osc_ChoicePv
zynaddsubfx:_ZN6PartUI14cb_ControllersEP9Fl_ButtonPv
zynaddsubfx:_ZN6PartUI14cb_maxkcounterEP14Fl_Osc_CounterPv
zynaddsubfx:_ZN6PartUI14cb_minkcounterEP14Fl_Osc_CounterPv
zynaddsubfx:_ZN6PartUI14cleanuplastkitEi
zynaddsubfx:_ZN6PartUI14showparametersEii
zynaddsubfx:_ZN6PartUI15cb_sendtochoiceEP13Fl_Osc_ChoicePv
zynaddsubfx:_ZN6PartUI15menu_insefftypeE
zynaddsubfx:_ZN6PartUI15showvoiceparamsEib
zynaddsubfx:_ZN6PartUI16cb_adeditbutton1EP9Fl_ButtonPv
zynaddsubfx:_ZN6PartUI17cb_padeditbutton1EP9Fl_ButtonPv
zynaddsubfx:_ZN6PartUI17cb_subeditbutton1EP9Fl_ButtonPv
zynaddsubfx:_ZN6PartUI17menu_sendtochoiceE
zynaddsubfx:_ZN6PartUI18cb_inseffnocounterEP10Fl_CounterPv
zynaddsubfx:_ZN6PartUI19cb_partenablebuttonEP12Fl_Osc_CheckPv
zynaddsubfx:_ZN6PartUI20cb_adsynenabledcheckEP12Fl_Osc_CheckPv
zynaddsubfx:_ZN6PartUI21cb_padsynenabledcheckEP12Fl_Osc_CheckPv
zynaddsubfx:_ZN6PartUI21cb_subsynenabledcheckEP12Fl_Osc_CheckPv
zynaddsubfx:_ZN6PartUI4cb_CEP9Fl_ButtonPv
zynaddsubfx:_ZN6PartUI4cb_PEP9Fl_ButtonPv
zynaddsubfx:_ZN6PartUI4initENSt7__cxx1112basic_stringIcSt11char_traitsIcESaIcEEEiP6BankUIS5_P16Fl_Osc_Interface
zynaddsubfx:_ZN6PartUI5cb_M1EP13Fl_Osc_ButtonPv
zynaddsubfx:_ZN6PartUI5cb_R1EP13Fl_Osc_ButtonPv
zynaddsubfx:_ZN6PartUI5cb_m1EP13Fl_Osc_ButtonPv
zynaddsubfx:_ZN6PartUI6cb_KitEP9Fl_ButtonPv
zynaddsubfx:_ZN6PartUI6rebaseENSt7__cxx1112basic_stringIcSt11char_traitsIcESaIcEEE
zynaddsubfx:_ZN6PartUI7cb_EditEP9Fl_ButtonPv
zynaddsubfx:_ZN6PartUI7cb_ModeEP13Fl_Osc_ChoicePv
zynaddsubfx:_ZN6PartUI8cb_CloseEP9Fl_ButtonPv
zynaddsubfx:_ZN6PartUI8cb_GrandEP14PartNameButtonPv
zynaddsubfx:_ZN6PartUI8cb_ResetEP13Fl_Osc_ButtonPv
zynaddsubfx:_ZN6PartUI9cb_AuthorEP12Fl_Osc_InputPv
zynaddsubfx:_ZN6PartUI9cb_Close1EP9Fl_ButtonPv
zynaddsubfx:_ZN6PartUI9cb_Close2EP9Fl_ButtonPv
zynaddsubfx:_ZN6PartUI9cb_Close3EP9Fl_ButtonPv
zynaddsubfx:_ZN6PartUI9cb_ProprtEP12Fl_Osc_CheckPv
zynaddsubfx:_ZN6PartUI9menu_ModeE
zynaddsubfx:_ZN6PartUI9menu_TypeE
zynaddsubfx:_ZN6PartUIC1EiiiiPKc
zynaddsubfx:_ZN6PartUIC2EiiiiPKc
zynaddsubfx:_ZN6PartUID0Ev
zynaddsubfx:_ZN6PartUID1Ev
zynaddsubfx:_ZN6PartUID2Ev
zynaddsubfx:_ZN6TipWin12set_roundingEj
zynaddsubfx:_ZN6TipWin4drawEv
zynaddsubfx:_ZN6TipWin6redrawEv
zynaddsubfx:_ZN6TipWin7setTextEPKc
zynaddsubfx:_ZN6TipWin8showTextEv
zynaddsubfx:_ZN6TipWin9showValueEf
zynaddsubfx:_ZN6TipWinC1Ev
zynaddsubfx:_ZN6TipWinC2Ev
zynaddsubfx:_ZN7VirKeys10releasekeyEii
zynaddsubfx:_ZN7VirKeys14releaseallkeysEi
zynaddsubfx:_ZN7VirKeys4drawEv
zynaddsubfx:_ZN7VirKeys4initEP16Fl_Osc_InterfaceNSt7__cxx1112basic_stringIcSt11char_traitsIcESaIcEEE
zynaddsubfx:_ZN7VirKeys6handleEi
zynaddsubfx:_ZN7VirKeys8presskeyEiii
zynaddsubfx:_ZN7VirKeys9OSC_valueEi
zynaddsubfx:_ZN7VirKeysC1EiiiiPKc
zynaddsubfx:_ZN7VirKeysC2EiiiiPKc
zynaddsubfx:_ZN7uiPorts5portsE
zynaddsubfx:_ZN8ADnoteUI11make_windowEv
zynaddsubfx:_ZN8ADnoteUI12cb_ResonanceEP9Fl_ButtonPv
zynaddsubfx:_ZN8ADnoteUI13cb_detunetypeEP13Fl_Osc_ChoicePv
zynaddsubfx:_ZN8ADnoteUI22cb_currentvoicecounterEP10Fl_CounterPv
zynaddsubfx:_ZN8ADnoteUI4cb_CEP9Fl_ButtonPv
zynaddsubfx:_ZN8ADnoteUI4cb_PEP9Fl_ButtonPv
zynaddsubfx:_ZN8ADnoteUI5cb_C1EP9Fl_ButtonPv
zynaddsubfx:_ZN8ADnoteUI5cb_P1EP9Fl_ButtonPv
zynaddsubfx:_ZN8ADnoteUI7cb_EditEP9Fl_ButtonPv
zynaddsubfx:_ZN8ADnoteUI7cb_ShowEP9Fl_ButtonPv
zynaddsubfx:_ZN8ADnoteUI7refreshEv
zynaddsubfx:_ZN8ADnoteUI8cb_CloseEP9Fl_ButtonPv
zynaddsubfx:_ZN8ADnoteUI8cb_Show1EP9Fl_ButtonPv
zynaddsubfx:_ZN8ADnoteUI8cb_Show2EP9Fl_ButtonPv
zynaddsubfx:_ZN8ADnoteUI8cb_Show3EP9Fl_ButtonPv
zynaddsubfx:_ZN8ADnoteUI8cb_relBWEP11Fl_Osc_DialPv
zynaddsubfx:_ZN8ADnoteUI9cb_Close1EP9Fl_ButtonPv
zynaddsubfx:_ZN8ADnoteUI9cb_Close2EP9Fl_ButtonPv
zynaddsubfx:_ZN8ADnoteUI9cb_detuneEP13Fl_Osc_SliderPv
zynaddsubfx:_ZN8ADnoteUIC1ENSt7__cxx1112basic_stringIcSt11char_traitsIcESaIcEEEP16Fl_Osc_Interface
zynaddsubfx:_ZN8ADnoteUIC2ENSt7__cxx1112basic_stringIcSt11char_traitsIcESaIcEEEP16Fl_Osc_Interface
zynaddsubfx:_ZN8ADnoteUID0Ev
zynaddsubfx:_ZN8ADnoteUID1Ev
zynaddsubfx:_ZN8ADnoteUID2Ev
zynaddsubfx:_ZN8BankList4initENSt7__cxx1112basic_stringIcSt11char_traitsIcESaIcEEE
zynaddsubfx:_ZN8BankList7OSC_rawEPKc
zynaddsubfx:_ZN8BankListC1EiiiiPKc
zynaddsubfx:_ZN8BankListC2EiiiiPKc
zynaddsubfx:_ZN8BankSlot4initEiP8BankView
zynaddsubfx:_ZN8BankSlot6handleEi
zynaddsubfx:_ZN8BankSlot6updateEPKcS1_
zynaddsubfx:_ZN8BankSlotC1EiiiiPKc
zynaddsubfx:_ZN8BankSlotC2EiiiiPKc
zynaddsubfx:_ZN8BankView4initEP16Fl_Osc_InterfaceP16BankViewControlsPi
zynaddsubfx:_ZN8BankView5cbwigEP9Fl_Widget
zynaddsubfx:_ZN8BankView5reactEii
zynaddsubfx:_ZN8BankView7OSC_rawEPKc
zynaddsubfx:_ZN8BankView7refreshEv
zynaddsubfx:_ZN8BankViewC1EiiiiPKc
zynaddsubfx:_ZN8BankViewC2EiiiiPKc
zynaddsubfx:_ZN8BankViewD0Ev
zynaddsubfx:_ZN8BankViewD1Ev
zynaddsubfx:_ZN8BankViewD2Ev
zynaddsubfx:_ZN8ConfigUI11make_windowEv
zynaddsubfx:_ZN8ConfigUI12menu_VirtualE
zynaddsubfx:_ZN8ConfigUI13menu_PADsynthE
zynaddsubfx:_ZN8ConfigUI14cb_rootsbrowseEP15Fl_Osc_ListViewPv
zynaddsubfx:_ZN8ConfigUI15cb_configwindowEP13Fl_Osc_WindowPv
zynaddsubfx:_ZN8ConfigUI15cb_presetbrowseEP15Fl_Osc_ListViewPv
zynaddsubfx:_ZN8ConfigUI19cb_oscilsize_widgetEP9Fl_ChoicePv
zynaddsubfx:_ZN8ConfigUI21cb_removepresetbuttonEP9Fl_ButtonPv
zynaddsubfx:_ZN8ConfigUI21menu_oscilsize_widgetE
zynaddsubfx:_ZN8ConfigUI22activatebutton_rootdirEb
zynaddsubfx:_ZN8ConfigUI22cb_removerootdirbuttonEP9Fl_ButtonPv
zynaddsubfx:_ZN8ConfigUI24activatebutton_presetdirEb
zynaddsubfx:_ZN8ConfigUI26cb_makedefaultpresetbuttonEP9Fl_ButtonPv
zynaddsubfx:_ZN8ConfigUI27cb_makedefaultrootdirbuttonEP9Fl_ButtonPv
zynaddsubfx:_ZN8ConfigUI4showEv
zynaddsubfx:_ZN8ConfigUI6cb_AddEP9Fl_ButtonPv
zynaddsubfx:_ZN8ConfigUI7cb_Add1EP9Fl_ButtonPv
zynaddsubfx:_ZN8ConfigUI8cb_CloseEP9Fl_ButtonPv
zynaddsubfx:_ZN8ConfigUIC1EP16Fl_Osc_Interface
zynaddsubfx:_ZN8ConfigUIC2EP16Fl_Osc_Interface
zynaddsubfx:_ZN8FilterUI10cb_FormantEP10Fl_CounterPv
zynaddsubfx:_ZN8FilterUI10cb_octknobEP13Fl_Osc_SliderPv
zynaddsubfx:_ZN8FilterUI11cb_gaindialEP11Fl_Osc_DialPv
zynaddsubfx:_ZN8FilterUI11make_windowEv
zynaddsubfx:_ZN8FilterUI12cb_stcounterEP13Fl_Osc_ChoicePv
zynaddsubfx:_ZN8FilterUI13cb_editbuttonEP9Fl_ButtonPv
zynaddsubfx:_ZN8FilterUI13cb_filtertypeEP13Fl_Osc_ChoicePv
zynaddsubfx:_ZN8FilterUI14cb_numformantsEP14Fl_Osc_CounterPv
zynaddsubfx:_ZN8FilterUI14switchcategoryEi
zynaddsubfx:_ZN8FilterUI15cb_centerfreqvoEP13Fl_Osc_OutputPv
zynaddsubfx:_ZN8FilterUI15cb_sequencesizeEP14Fl_Osc_CounterPv
zynaddsubfx:_ZN8FilterUI15menu_filtertypeE
zynaddsubfx:_ZN8FilterUI16cb_octavesfreqvoEP13Fl_Osc_OutputPv
zynaddsubfx:_ZN8FilterUI16cb_vowel_counterEP14Fl_Osc_CounterPv
zynaddsubfx:_ZN8FilterUI17cb_formant_q_dialEP11Fl_Osc_DialPv
zynaddsubfx:_ZN8FilterUI19cb_formant_amp_dialEP11Fl_Osc_DialPv
zynaddsubfx:_ZN8FilterUI19make_formant_windowEv
zynaddsubfx:_ZN8FilterUI20cb_formant_freq_dialEP11Fl_Osc_DialPv
zynaddsubfx:_ZN8FilterUI21update_formant_windowEv
zynaddsubfx:_ZN8FilterUI22use_for_dynamic_filterEv
zynaddsubfx:_ZN8FilterUI23menu_svfiltertypechoiceE
zynaddsubfx:_ZN8FilterUI25menu_moogfiltertypechoiceE
zynaddsubfx:_ZN8FilterUI27menu_analogfiltertypechoiceE
zynaddsubfx:_ZN8FilterUI4cb_CEP9Fl_ButtonPv
zynaddsubfx:_ZN8FilterUI4cb_PEP9Fl_ButtonPv
zynaddsubfx:_ZN8FilterUI4cb_SEP10Fl_CounterPv
zynaddsubfx:_ZN8FilterUI4initENSt7__cxx1112basic_stringIcSt11char_traitsIcESaIcEEEP16Fl_Osc_InterfaceS5_S5_
zynaddsubfx:_ZN8FilterUI5cb_C1EP9Fl_ButtonPv
zynaddsubfx:_ZN8FilterUI5cb_P1EP9Fl_ButtonPv
zynaddsubfx:_ZN8FilterUI5cb_P2EP9Fl_ButtonPv
zynaddsubfx:_ZN8FilterUI6rebaseENSt7__cxx1112basic_stringIcSt11char_traitsIcESaIcEEE
zynaddsubfx:_ZN8FilterUI7refreshEv
zynaddsubfx:_ZN8FilterUI8cb_CloseEP9Fl_ButtonPv
zynaddsubfx:_ZN8FilterUI8cb_VowelEP10Fl_CounterPv
zynaddsubfx:_ZN8FilterUI8cb_qdialEP11Fl_Osc_DialPv
zynaddsubfx:_ZN8FilterUI9cb_cfknobEP13Fl_Osc_SliderPv
zynaddsubfx:_ZN8FilterUIC1EiiiiPKc
zynaddsubfx:_ZN8FilterUIC2EiiiiPKc
zynaddsubfx:_ZN8FilterUID0Ev
zynaddsubfx:_ZN8FilterUID1Ev
zynaddsubfx:_ZN8FilterUID2Ev
zynaddsubfx:_ZN8MasterUI10cb_RefreshEP9Fl_ButtonPv
zynaddsubfx:_ZN8MasterUI10cb_Revert1EP8Fl_Menu_Pv
zynaddsubfx:_ZN8MasterUI10cb_Switch1EP8Fl_Menu_Pv
zynaddsubfx:_ZN8MasterUI10cb_VirtualEP8Fl_Menu_Pv
zynaddsubfx:_ZN8MasterUI10cb_partrcvEP13Fl_Osc_ChoicePv
zynaddsubfx:_ZN8MasterUI10recordmenuE
zynaddsubfx:_ZN8MasterUI11cb_AdvancedEP9Fl_ButtonPv
zynaddsubfx:_ZN8MasterUI11cb_BeginnerEP9Fl_ButtonPv
zynaddsubfx:_ZN8MasterUI11cb_SettingsEP8Fl_Menu_Pv
zynaddsubfx:_ZN8MasterUI11make_windowEv
zynaddsubfx:_ZN8MasterUI11updatepanelEv
zynaddsubfx:_ZN8MasterUI12cb_CopyrightEP8Fl_Menu_Pv
zynaddsubfx:_ZN8MasterUI12cb_Settings1EP8Fl_Menu_Pv
zynaddsubfx:_ZN8MasterUI12cb_partname1EP14PartNameButtonPv
zynaddsubfx:_ZN8MasterUI12setfilelabelEPKc
zynaddsubfx:_ZN8MasterUI13cb_Copyright1EP8Fl_Menu_Pv
zynaddsubfx:_ZN8MasterUI13cb_inseffpartEP13Fl_Osc_ChoicePv
zynaddsubfx:_ZN8MasterUI13cb_insefftypeEP13Fl_Osc_ChoicePv
zynaddsubfx:_ZN8MasterUI13cb_stopbuttonEP13Fl_Osc_ButtonPv
zynaddsubfx:_ZN8MasterUI13cb_sysefftypeEP13Fl_Osc_ChoicePv
zynaddsubfx:_ZN8MasterUI13do_new_masterEv
zynaddsubfx:_ZN8MasterUI13simplerefreshEv
zynaddsubfx:_ZN8MasterUI14cb_pausebuttonEP13Fl_Osc_ButtonPv
zynaddsubfx:_ZN8MasterUI14do_load_masterEPKc
zynaddsubfx:_ZN8MasterUI14do_save_masterEPKc
zynaddsubfx:_ZN8MasterUI15cb_masterwindowEP13Fl_Osc_WindowPv
zynaddsubfx:_ZN8MasterUI15cb_npartcounterEP10Fl_CounterPv
zynaddsubfx:_ZN8MasterUI15cb_partenabled1EP12Fl_Osc_CheckPv
zynaddsubfx:_ZN8MasterUI15cb_recordbuttonEP13Fl_Osc_ButtonPv
zynaddsubfx:_ZN8MasterUI15menu_insefftypeE
zynaddsubfx:_ZN8MasterUI15menu_mastermenuE
zynaddsubfx:_ZN8MasterUI15menu_sysefftypeE
zynaddsubfx:_ZN8MasterUI16updatesendwindowEv
zynaddsubfx:_ZN8MasterUI17cb_selectuiwindowEP13Fl_Osc_WindowPv
zynaddsubfx:_ZN8MasterUI17do_revert_changesEv
zynaddsubfx:_ZN8MasterUI17refresh_master_uiEv
zynaddsubfx:_ZN8MasterUI18cb_inseffnocounterEP10Fl_CounterPv
zynaddsubfx:_ZN8MasterUI18cb_syseffnocounterEP10Fl_CounterPv
zynaddsubfx:_ZN8MasterUI19cb_simpleinseffpartEP9Fl_ChoicePv
zynaddsubfx:_ZN8MasterUI19cb_simpleinsefftypeEP13Fl_Osc_ChoicePv
zynaddsubfx:_ZN8MasterUI19cb_simplesysefftypeEP13Fl_Osc_ChoicePv
zynaddsubfx:_ZN8MasterUI20cb_simplemaxkcounterEP14Fl_Osc_CounterPv
zynaddsubfx:_ZN8MasterUI20cb_simpleminkcounterEP14Fl_Osc_CounterPv
zynaddsubfx:_ZN8MasterUI21cb_simplemasterwindowEP13Fl_Osc_WindowPv
zynaddsubfx:_ZN8MasterUI21cb_simplenpartcounterEP10Fl_CounterPv
zynaddsubfx:_ZN8MasterUI21menu_simpleinsefftypeE
zynaddsubfx:_ZN8MasterUI21menu_simplemastermenuE
zynaddsubfx:_ZN8MasterUI21menu_simplesysefftypeE
zynaddsubfx:_ZN8MasterUI24cb_simpleinseffnocounterEP10Fl_CounterPv
zynaddsubfx:_ZN8MasterUI24cb_simplesyseffnocounterEP10Fl_CounterPv
zynaddsubfx:_ZN8MasterUI27do_new_master_unconditionalEv
zynaddsubfx:_ZN8MasterUI28do_load_master_unconditionalEPKcS1_
zynaddsubfx:_ZN8MasterUI31do_revert_changes_unconditionalEv
zynaddsubfx:_ZN8MasterUI4cb_CEP9Fl_ButtonPv
zynaddsubfx:_ZN8MasterUI4cb_EEP8Fl_Menu_Pv
zynaddsubfx:_ZN8MasterUI4cb_MEP13Fl_Osc_ButtonPv
zynaddsubfx:_ZN8MasterUI4cb_NEP8Fl_Menu_Pv
zynaddsubfx:_ZN8MasterUI4cb_PEP9Fl_ButtonPv
zynaddsubfx:_ZN8MasterUI4cb_REP9Fl_ButtonPv
zynaddsubfx:_ZN8MasterUI4cb_mEP13Fl_Osc_ButtonPv
zynaddsubfx:_ZN8MasterUI5cb_C1EP9Fl_ButtonPv
zynaddsubfx:_ZN8MasterUI5cb_E1EP8Fl_Menu_Pv
zynaddsubfx:_ZN8MasterUI5cb_P1EP9Fl_ButtonPv
zynaddsubfx:_ZN8MasterUI5cb_P2EP9Fl_ButtonPv
zynaddsubfx:_ZN8MasterUI5cb_P3EP9Fl_ButtonPv
zynaddsubfx:_ZN8MasterUI5cb_vKEP9Fl_ButtonPv
zynaddsubfx:_ZN8MasterUI5closeEv
zynaddsubfx:_ZN8MasterUI6cb_NewEP8Fl_Menu_Pv
zynaddsubfx:_ZN8MasterUI6showUIEi
zynaddsubfx:_ZN8MasterUI7cb_KeybEP10Fl_CounterPv
zynaddsubfx:_ZN8MasterUI7cb_LoadEP8Fl_Menu_Pv
zynaddsubfx:_ZN8MasterUI7cb_New1EP8Fl_Menu_Pv
zynaddsubfx:_ZN8MasterUI7cb_OpenEP8Fl_Menu_Pv
zynaddsubfx:_ZN8MasterUI7cb_SaveEP8Fl_Menu_Pv
zynaddsubfx:_ZN8MasterUI7cb_SendEP9Fl_ButtonPv
zynaddsubfx:_ZN8MasterUI7cb_ShowEP8Fl_Menu_Pv
zynaddsubfx:_ZN8MasterUI7cb_StopEP13Fl_Osc_ButtonPv
zynaddsubfx:_ZN8MasterUI8cb_ClearEP8Fl_Menu_Pv
zynaddsubfx:_ZN8MasterUI8cb_CloseEP9Fl_ButtonPv
zynaddsubfx:_ZN8MasterUI8cb_Load1EP8Fl_Menu_Pv
zynaddsubfx:_ZN8MasterUI8cb_Open1EP8Fl_Menu_Pv
zynaddsubfx:_ZN8MasterUI8cb_Open2EP8Fl_Menu_Pv
zynaddsubfx:_ZN8MasterUI8cb_Open3EP8Fl_Menu_Pv
zynaddsubfx:_ZN8MasterUI8cb_PanelEP9Fl_ButtonPv
zynaddsubfx:_ZN8MasterUI8cb_PanicEP13Fl_Osc_ButtonPv
zynaddsubfx:_ZN8MasterUI8cb_ResetEP9Fl_ButtonPv
zynaddsubfx:_ZN8MasterUI8cb_Save1EP8Fl_Menu_Pv
zynaddsubfx:_ZN8MasterUI8cb_Save2EP8Fl_Menu_Pv
zynaddsubfx:_ZN8MasterUI8cb_Save3EP8Fl_Menu_Pv
zynaddsubfx:_ZN8MasterUI8cb_Save4EP8Fl_Menu_Pv
zynaddsubfx:_ZN8MasterUI8cb_Send1EP9Fl_ButtonPv
zynaddsubfx:_ZN8MasterUI8cb_Show1EP8Fl_Menu_Pv
zynaddsubfx:_ZN8MasterUI8cb_Show2EP8Fl_Menu_Pv
zynaddsubfx:_ZN8MasterUI9cb_ChooseEP8Fl_Menu_Pv
zynaddsubfx:_ZN8MasterUI9cb_Clear1EP8Fl_Menu_Pv
zynaddsubfx:_ZN8MasterUI9cb_Close1EP9Fl_ButtonPv
zynaddsubfx:_ZN8MasterUI9cb_Close2EP9Fl_ButtonPv
zynaddsubfx:_ZN8MasterUI9cb_Reset1EP9Fl_ButtonPv
zynaddsubfx:_ZN8MasterUI9cb_RevertEP8Fl_Menu_Pv
zynaddsubfx:_ZN8MasterUI9cb_ScalesEP9Fl_ButtonPv
zynaddsubfx:_ZN8MasterUI9cb_SwitchEP8Fl_Menu_Pv
zynaddsubfx:_ZN8MasterUIC1EPiP16Fl_Osc_Interface
zynaddsubfx:_ZN8MasterUIC2EPiP16Fl_Osc_Interface
zynaddsubfx:_ZN8MasterUID1Ev
zynaddsubfx:_ZN8MasterUID2Ev
zynaddsubfx:_ZN8OGSlider2cbEv
zynaddsubfx:_ZN8OGSlider6updateEv
zynaddsubfx:_ZN8OGSlider9OSC_valueEc
zynaddsubfx:_ZN8OGSlider9OSC_valueEi
zynaddsubfx:_ZN8OGSliderC1EiiiiPKc
zynaddsubfx:_ZN8OGSliderC2EiiiiPKc
zynaddsubfx:_ZN9ADvoiceUI10cb_Detune1EP13Fl_Osc_ChoicePv
zynaddsubfx:_ZN9ADvoiceUI11cb_extoscilEP13Fl_Osc_ChoicePv
zynaddsubfx:_ZN9ADvoiceUI11cb_mod_typeEP13Fl_Osc_ChoicePv
zynaddsubfx:_ZN9ADvoiceUI11make_windowEv
zynaddsubfx:_ZN9ADvoiceUI12cb_FrequencyEP13Fl_Osc_SliderPv
zynaddsubfx:_ZN9ADvoiceUI12change_voiceEi
zynaddsubfx:_ZN9ADvoiceUI13cb_extFMoscilEP13Fl_Osc_ChoicePv
zynaddsubfx:_ZN9ADvoiceUI13menu_mod_typeE
zynaddsubfx:_ZN9ADvoiceUI16cb_voiceonbuttonEP12Fl_Osc_CheckPv
zynaddsubfx:_ZN9ADvoiceUI22cb_changeFMoscilbuttonEP9Fl_ButtonPv
zynaddsubfx:_ZN9ADvoiceUI25cb_changevoiceoscilbuttonEP9Fl_ButtonPv
zynaddsubfx:_ZN9ADvoiceUI3cb_EP13Fl_Osc_SliderPv
zynaddsubfx:_ZN9ADvoiceUI4cb_1EP13Fl_Osc_SliderPv
zynaddsubfx:_ZN9ADvoiceUI4cb_2EP13Fl_Osc_ChoicePv
zynaddsubfx:_ZN9ADvoiceUI4initEiNSt7__cxx1112basic_stringIcSt11char_traitsIcESaIcEEEP16Fl_Osc_Interface
zynaddsubfx:_ZN9ADvoiceUI5cb_OnEP12Fl_Osc_CheckPv
zynaddsubfx:_ZN9ADvoiceUI5menu_E
zynaddsubfx:_ZN9ADvoiceUI6cb_On1EP12Fl_Osc_CheckPv
zynaddsubfx:_ZN9ADvoiceUI6cb_On2EP12Fl_Osc_CheckPv
zynaddsubfx:_ZN9ADvoiceUI6cb_On3EP12Fl_Osc_CheckPv
zynaddsubfx:_ZN9ADvoiceUI6cb_On4EP12Fl_Osc_CheckPv
zynaddsubfx:_ZN9ADvoiceUI6cb_On5EP12Fl_Osc_CheckPv
zynaddsubfx:_ZN9ADvoiceUI6cb_On6EP12Fl_Osc_CheckPv
zynaddsubfx:_ZN9ADvoiceUI6cb_On7EP12Fl_Osc_CheckPv
zynaddsubfx:_ZN9ADvoiceUI6cb_On8EP12Fl_Osc_CheckPv
zynaddsubfx:_ZN9ADvoiceUI8cb_440HzEP12Fl_Osc_CheckPv
zynaddsubfx:_ZN9ADvoiceUI9cb_440Hz1EP12Fl_Osc_CheckPv
zynaddsubfx:_ZN9ADvoiceUI9cb_DetuneEP13Fl_Osc_ChoicePv
zynaddsubfx:_ZN9ADvoiceUI9cb_extModEP13Fl_Osc_ChoicePv
zynaddsubfx:_ZN9ADvoiceUIC1EiiiiPKc
zynaddsubfx:_ZN9ADvoiceUIC2EiiiiPKc
zynaddsubfx:_ZN9ADvoiceUID0Ev
zynaddsubfx:_ZN9ADvoiceUID1Ev
zynaddsubfx:_ZN9ADvoiceUID2Ev
zynaddsubfx:_ZN9PADnoteUI10cb_bwscaleEP13Fl_Osc_ChoicePv
zynaddsubfx:_ZN9PADnoteUI10cb_hpmfreqEP11Fl_Osc_DialPv
zynaddsubfx:_ZN9PADnoteUI10cb_hpmpar1EP11Fl_Osc_DialPv
zynaddsubfx:_ZN9PADnoteUI10cb_hpwidthEP11Fl_Osc_DialPv
zynaddsubfx:_ZN9PADnoteUI10cb_qsmpoctEP13Fl_Osc_ChoicePv
zynaddsubfx:_ZN9PADnoteUI11cb_cbwidgetEP6Fl_BoxPv
zynaddsubfx:_ZN9PADnoteUI11make_windowEv
zynaddsubfx:_ZN9PADnoteUI12cb_ResonanceEP9Fl_ButtonPv
zynaddsubfx:_ZN9PADnoteUI12cb_hpampmodeEP13Fl_Osc_ChoicePv
zynaddsubfx:_ZN9PADnoteUI12cb_hpamppar1EP11Fl_Osc_DialPv
zynaddsubfx:_ZN9PADnoteUI12cb_hpamppar2EP11Fl_Osc_DialPv
zynaddsubfx:_ZN9PADnoteUI12cb_hpamptypeEP13Fl_Osc_ChoicePv
zynaddsubfx:_ZN9PADnoteUI12cb_hponehalfEP13Fl_Osc_ChoicePv
zynaddsubfx:_ZN9PADnoteUI12cb_hrpospar1EP11Fl_Osc_DialPv
zynaddsubfx:_ZN9PADnoteUI12cb_hrpospar2EP11Fl_Osc_DialPv
zynaddsubfx:_ZN9PADnoteUI12cb_hrpospar3EP11Fl_Osc_DialPv
zynaddsubfx:_ZN9PADnoteUI12cb_hrpostypeEP13Fl_Osc_ChoicePv
zynaddsubfx:_ZN9PADnoteUI12cb_qbasenoteEP13Fl_Osc_ChoicePv
zynaddsubfx:_ZN9PADnoteUI12menu_bwscaleE
zynaddsubfx:_ZN9PADnoteUI12menu_qsmpoctE
zynaddsubfx:_ZN9PADnoteUI13cb_detunetypeEP13Fl_Osc_ChoicePv
zynaddsubfx:_ZN9PADnoteUI13cb_hpbasepar1EP11Fl_Osc_DialPv
zynaddsubfx:_ZN9PADnoteUI13cb_hpbasetypeEP13Fl_Osc_ChoicePv
zynaddsubfx:_ZN9PADnoteUI13cb_hpfreqmultEP11Fl_Osc_DialPv
zynaddsubfx:_ZN9PADnoteUI14cb_applybuttonEP9Fl_ButtonPv
zynaddsubfx:_ZN9PADnoteUI14cb_hpautoscaleEP12Fl_Osc_CheckPv
zynaddsubfx:_ZN9PADnoteUI14cb_qsamplesizeEP13Fl_Osc_ChoicePv
zynaddsubfx:_ZN9PADnoteUI14menu_hpampmodeE
zynaddsubfx:_ZN9PADnoteUI14menu_hpamptypeE
zynaddsubfx:_ZN9PADnoteUI14menu_hponehalfE
zynaddsubfx:_ZN9PADnoteUI14menu_hrpostypeE
zynaddsubfx:_ZN9PADnoteUI14menu_qbasenoteE
zynaddsubfx:_ZN9PADnoteUI15cb_spectrummodeEP13Fl_Osc_ChoicePv
zynaddsubfx:_ZN9PADnoteUI15menu_hpbasetypeE
zynaddsubfx:_ZN9PADnoteUI16menu_qsamplesizeE
zynaddsubfx:_ZN9PADnoteUI17menu_spectrummodeE
zynaddsubfx:_ZN9PADnoteUI3cb_EP7Fl_TabsPv
zynaddsubfx:_ZN9PADnoteUI4cb_CEP9Fl_ButtonPv
zynaddsubfx:_ZN9PADnoteUI4cb_PEP9Fl_ButtonPv
zynaddsubfx:_ZN9PADnoteUI7cb_qoctEP13Fl_Osc_ChoicePv
zynaddsubfx:_ZN9PADnoteUI7refreshEv
zynaddsubfx:_ZN9PADnoteUI8cb_CloseEP9Fl_ButtonPv
zynaddsubfx:_ZN9PADnoteUI8cb_hz440EP12Fl_Osc_CheckPv
zynaddsubfx:_ZN9PADnoteUI9cb_ChangeEP9Fl_ButtonPv
zynaddsubfx:_ZN9PADnoteUI9cb_bwdialEP11Fl_Osc_DialPv
zynaddsubfx:_ZN9PADnoteUI9cb_detuneEP13Fl_Osc_SliderPv
zynaddsubfx:_ZN9PADnoteUI9cb_exportEP13Fl_Osc_ButtonPv
zynaddsubfx:_ZN9PADnoteUI9cb_stereoEP12Fl_Osc_CheckPv
zynaddsubfx:_ZN9PADnoteUI9menu_qoctE
zynaddsubfx:_ZN9PADnoteUIC1ENSt7__cxx1112basic_stringIcSt11char_traitsIcESaIcEEEP16Fl_Osc_Interface
zynaddsubfx:_ZN9PADnoteUIC2ENSt7__cxx1112basic_stringIcSt11char_traitsIcESaIcEEEP16Fl_Osc_Interface
zynaddsubfx:_ZN9PADnoteUID0Ev
zynaddsubfx:_ZN9PADnoteUID1Ev
zynaddsubfx:_ZN9PADnoteUID2Ev
zynaddsubfx:_ZN9PresetsUI10cb_Cancel1EP9Fl_ButtonPv
zynaddsubfx:_ZN9PresetsUI11make_windowEv
zynaddsubfx:_ZN9PresetsUI13cb_copybrowseEP10Fl_BrowserPv
zynaddsubfx:_ZN9PresetsUI13cb_copybuttonEP9Fl_ButtonPv
zynaddsubfx:_ZN9PresetsUI13cb_presetnameEP8Fl_InputPv
zynaddsubfx:_ZN9PresetsUI14cb_copypbuttonEP9Fl_ButtonPv
zynaddsubfx:_ZN9PresetsUI14cb_pastebrowseEP10Fl_BrowserPv
zynaddsubfx:_ZN9PresetsUI14cb_pastebuttonEP9Fl_ButtonPv
zynaddsubfx:_ZN9PresetsUI15cb_pastepbuttonEP9Fl_ButtonPv
zynaddsubfx:_ZN9PresetsUI16cb_deletepbuttonEP9Fl_ButtonPv
zynaddsubfx:_ZN9PresetsUI4copyENSt7__cxx1112basic_stringIcSt11char_traitsIcESaIcEEE
zynaddsubfx:_ZN9PresetsUI4copyENSt7__cxx1112basic_stringIcSt11char_traitsIcESaIcEEEi
zynaddsubfx:_ZN9PresetsUI5pasteENSt7__cxx1112basic_stringIcSt11char_traitsIcESaIcEEEP10PresetsUI_
zynaddsubfx:_ZN9PresetsUI5pasteENSt7__cxx1112basic_stringIcSt11char_traitsIcESaIcEEEP10PresetsUI_i
zynaddsubfx:_ZN9PresetsUI6rescanENSt7__cxx1112basic_stringIcSt11char_traitsIcESaIcEEE
zynaddsubfx:_ZN9PresetsUI9cb_CancelEP9Fl_ButtonPv
zynaddsubfx:_ZN9PresetsUIC1EP16Fl_Osc_Interface
zynaddsubfx:_ZN9PresetsUIC2EP16Fl_Osc_Interface
zynaddsubfx:_ZN9PresetsUID1Ev
zynaddsubfx:_ZN9PresetsUID2Ev
zynaddsubfx:_ZN9SUBSlider2cbEv
zynaddsubfx:_ZN9SUBSlider9OSC_valueEi
zynaddsubfx:_ZN9SUBSliderC1EiiiiPKc
zynaddsubfx:_ZN9SUBSliderC2EiiiiPKc
zynaddsubfx:_ZN9SUBnoteUI10cb_filtereEP12Fl_Osc_CheckPv
zynaddsubfx:_ZN9SUBnoteUI10menu_startE
zynaddsubfx:_ZN9SUBnoteUI11make_windowEv
zynaddsubfx:_ZN9SUBnoteUI12menu_magtypeE
zynaddsubfx:_ZN9SUBnoteUI13cb_detunetypeEP13Fl_Osc_ChoicePv
zynaddsubfx:_ZN9SUBnoteUI15menu_spreadtypeE
zynaddsubfx:_ZN9SUBnoteUI4cb_CEP9Fl_ButtonPv
zynaddsubfx:_ZN9SUBnoteUI4cb_PEP9Fl_ButtonPv
zynaddsubfx:_ZN9SUBnoteUI7cb_bweeEP12Fl_Osc_CheckPv
zynaddsubfx:_ZN9SUBnoteUI7refreshEv
zynaddsubfx:_ZN9SUBnoteUI8cb_ClearEP13Fl_Osc_ButtonPv
zynaddsubfx:_ZN9SUBnoteUI8cb_CloseEP9Fl_ButtonPv
zynaddsubfx:_ZN9SUBnoteUI8cb_hz440EP12Fl_Osc_CheckPv
zynaddsubfx:_ZN9SUBnoteUI9cb_detuneEP13Fl_Osc_SliderPv
zynaddsubfx:_ZN9SUBnoteUI9cb_freqeeEP12Fl_Osc_CheckPv
zynaddsubfx:_ZN9SUBnoteUIC1EP16Fl_Osc_InterfaceNSt7__cxx1112basic_stringIcSt11char_traitsIcESaIcEEE
zynaddsubfx:_ZN9SUBnoteUIC2EP16Fl_Osc_InterfaceNSt7__cxx1112basic_stringIcSt11char_traitsIcESaIcEEE
zynaddsubfx:_ZN9SUBnoteUID0Ev
zynaddsubfx:_ZN9SUBnoteUID1Ev
zynaddsubfx:_ZN9SUBnoteUID2Ev
zynaddsubfx:_ZNK10Fl_EQGraph10getfreqposEf
zynaddsubfx:_ZNK10Fl_EQGraph11getresponseEif
zynaddsubfx:_ZNK10Fl_EQGraph8getfreqxEf
zynaddsubfx:_ZNK12Fl_Osc_Group3locB5cxx11Ev
zynaddsubfx:_ZNK13Fl_Osc_Output8newvalueEv
zynaddsubfx:_ZNK13Fl_Osc_Window3locB5cxx11Ev
zynaddsubfx:_ZNK15Fl_Osc_ListView10sendUpdateEv
zynaddsubfx:_ZNK16BankViewControls4modeEv
zynaddsubfx:_ZNK16EnvelopeFreeEdit10getnearestEii
zynaddsubfx:_ZNK16EnvelopeFreeEdit5getdtEi
zynaddsubfx:_ZNK16EnvelopeFreeEdit9getpointxEi
zynaddsubfx:_ZNK16EnvelopeFreeEdit9getpointyEi
zynaddsubfx:_ZNK18Fl_Resonance_Graph10getfreqposEf
zynaddsubfx:_ZNK18Fl_Resonance_Graph13getcenterfreqEv
zynaddsubfx:_ZNK18Fl_Resonance_Graph14getoctavesfreqEv
zynaddsubfx:_ZNK18Fl_Resonance_Graph8getfreqxEf
zynaddsubfx:_ZNK3zyn10AlsaEngine10getAudioEnEv
zynaddsubfx:_ZNK3zyn10AlsaEngine9getMidiEnEv
zynaddsubfx:_ZNK3zyn10Distortion6getparEi
zynaddsubfx:_ZNK3zyn10FFTwrapper10freqs2smpsENS_13FFTfreqBufferENS_15FFTsampleBufferES1_
zynaddsubfx:_ZNK3zyn10FFTwrapper10smps2freqsENS_15FFTsampleBufferENS_13FFTfreqBufferES1_
zynaddsubfx:_ZNK3zyn10FFTwrapper24freqs2smps_noconst_inputENS_13FFTfreqBufferENS_15FFTsampleBufferE
zynaddsubfx:_ZNK3zyn10FFTwrapper24smps2freqs_noconst_inputENS_15FFTsampleBufferENS_13FFTfreqBufferE
zynaddsubfx:_ZNK3zyn10JackEngine10getAudioEnEv
zynaddsubfx:_ZNK3zyn10JackEngine9getMidiEnEv
zynaddsubfx:_ZNK3zyn10Microtonal11getnotefreqEfi
zynaddsubfx:_ZNK3zyn10Microtonal13getoctavesizeEv
zynaddsubfx:_ZNK3zyn10Microtonal19updatenotefreq_log2ERfi
zynaddsubfx:_ZNK3zyn10Microtonal7add2XMLERNS_10XMLwrapperE
zynaddsubfx:_ZNK3zyn10Microtonal7saveXMLEPKc
zynaddsubfx:_ZNK3zyn10MicrotonaleqERKS0_
zynaddsubfx:_ZNK3zyn10MicrotonalneERKS0_
zynaddsubfx:_ZNK3zyn10MiddleWare13checkAutoSaveEv
zynaddsubfx:_ZNK3zyn10MiddleWare13getServerPortEv
zynaddsubfx:_ZNK3zyn10MiddleWare14getProgramNameB5cxx11Ei
zynaddsubfx:_ZNK3zyn10MiddleWare15getPresetsStoreEv
zynaddsubfx:_ZNK3zyn10MiddleWare16getServerAddressEv
zynaddsubfx:_ZNK3zyn10MiddleWare8getSynthEv
zynaddsubfx:_ZNK3zyn10MiddleWare9activeUrlB5cxx11Ev
zynaddsubfx:_ZNK3zyn10XMLwrapper10doloadfileERKNSt7__cxx1112basic_stringIcSt11char_traitsIcESaIcEEE
zynaddsubfx:_ZNK3zyn10XMLwrapper10dosavefileEPKciS2_
zynaddsubfx:_ZNK3zyn10XMLwrapper10getXMLdataEv
zynaddsubfx:_ZNK3zyn10XMLwrapper10getparboolERKNSt7__cxx1112basic_stringIcSt11char_traitsIcESaIcEEEi
zynaddsubfx:_ZNK3zyn10XMLwrapper10getparrealEPKcf
zynaddsubfx:_ZNK3zyn10XMLwrapper10getparrealEPKcfff
zynaddsubfx:_ZNK3zyn10XMLwrapper10hasparrealEPKc
zynaddsubfx:_ZNK3zyn10XMLwrapper11getbranchidEii
zynaddsubfx:_ZNK3zyn10XMLwrapper11hasPadSynthEv
zynaddsubfx:_ZNK3zyn10XMLwrapper11saveXMLfileERKNSt7__cxx1112basic_stringIcSt11char_traitsIcESaIcEEEi
zynaddsubfx:_ZNK3zyn10XMLwrapper6getparERKNSt7__cxx1112basic_stringIcSt11char_traitsIcESaIcEEEiii
zynaddsubfx:_ZNK3zyn10XMLwrapper9addparamsEPKcjz
zynaddsubfx:_ZNK3zyn10XMLwrapper9getBranchEv
zynaddsubfx:_ZNK3zyn10XMLwrapper9getpar127ERKNSt7__cxx1112basic_stringIcSt11char_traitsIcESaIcEEEi
zynaddsubfx:_ZNK3zyn10XMLwrapper9getparstrERKNSt7__cxx1112basic_stringIcSt11char_traitsIcESaIcEEEPci
zynaddsubfx:_ZNK3zyn10XMLwrapper9getparstrERKNSt7__cxx1112basic_stringIcSt11char_traitsIcESaIcEEES8_
zynaddsubfx:_ZNK3zyn11Sympathetic6getparEi
zynaddsubfx:_ZNK3zyn12FilterParams10getfreqposEf
zynaddsubfx:_ZNK3zyn12FilterParams11getformantqEh
zynaddsubfx:_ZNK3zyn12FilterParams13getcenterfreqEv
zynaddsubfx:_ZNK3zyn12FilterParams13getformantampEh
zynaddsubfx:_ZNK3zyn12FilterParams14getformantfreqEh
zynaddsubfx:_ZNK3zyn12FilterParams14getoctavesfreqEv
zynaddsubfx:_ZNK3zyn12FilterParams15getfreqtrackingEf
zynaddsubfx:_ZNK3zyn12FilterParams4getqEv
zynaddsubfx:_ZNK3zyn12FilterParams7getfreqEv
zynaddsubfx:_ZNK3zyn12FilterParams7getgainEv
zynaddsubfx:_ZNK3zyn12FilterParams8getfreqxEf
zynaddsubfx:_ZNK3zyn12PresetsStore12presetstructltERKS1_
zynaddsubfx:_ZNK3zyn12WatchManager14trigger_activeEPKc
zynaddsubfx:_ZNK3zyn12WatchManager6activeEPKc
zynaddsubfx:_ZNK3zyn12WatchManager7samplesEPKc
zynaddsubfx:_ZNK3zyn13DynamicFilter6getparEi
zynaddsubfx:_ZNK3zyn14AllocatorClass9lowMemoryEjm
zynaddsubfx:_ZNK3zyn14EnvelopeParams5getdtEc
zynaddsubfx:_ZNK3zyn14OssMultiEngine10getAudioEnEv
zynaddsubfx:_ZNK3zyn15JackMultiEngine10getAudioEnEv
zynaddsubfx:_ZNK3zyn16ADnoteParameters28getBandwidthDetuneMultiplierEv
zynaddsubfx:_ZNK3zyn16ADnoteParameters29getUnisonFrequencySpreadCentsEi
zynaddsubfx:_ZNK3zyn16ADnoteVoiceParam29getUnisonFrequencySpreadCentsEv
zynaddsubfx:_ZNK3zyn17PADnoteParameters27generatespectrum_otherModesEPfif
zynaddsubfx:_ZNK3zyn17PADnoteParameters30generatespectrum_bandwidthModeEPfifPKfif
zynaddsubfx:_ZNK3zyn17PADnoteParameters6getNhrEi
zynaddsubfx:_ZNK3zyn17SUBnoteParameters15activeHarmonicsEPiRi
zynaddsubfx:_ZNK3zyn2EQ6getparEi
zynaddsubfx:_ZNK3zyn2EQ9getFilterEPfS1_
zynaddsubfx:_ZNK3zyn4Bank10bankstructltERKS1_
zynaddsubfx:_ZNK3zyn4Bank18normalizedirsuffixERNSt7__cxx1112basic_stringIcSt11char_traitsIcESaIcEEE
zynaddsubfx:_ZNK3zyn4Bank6searchENSt7__cxx1112basic_stringIcSt11char_traitsIcESaIcEEE
zynaddsubfx:_ZNK3zyn4Echo6getparEi
zynaddsubfx:_ZNK3zyn4Part11cloneTraitsERS0_
zynaddsubfx:_ZNK3zyn4Part11getVelocityEhhh
zynaddsubfx:_ZNK3zyn4Part11monomemBackEv
zynaddsubfx:_ZNK3zyn4Part12monomemEmptyEv
zynaddsubfx:_ZNK3zyn4Part3Kit6activeEv
zynaddsubfx:_ZNK3zyn4Part3Kit6sendtoEv
zynaddsubfx:_ZNK3zyn4Part3Kit9validNoteEc
zynaddsubfx:_ZNK3zyn5InMgr5emptyEv
zynaddsubfx:_ZNK3zyn5InMgr9getSourceB5cxx11Ev
zynaddsubfx:_ZNK3zyn6ADnote8finishedEv
zynaddsubfx:_ZNK3zyn6BankDb10processXizENSt7__cxx1112basic_stringIcSt11char_traitsIcESaIcEEES6_RSt3mapIS6_NS_9BankEntryESt4lessIS6_ESaISt4pairIKS6_S8_EEE
zynaddsubfx:_ZNK3zyn6BankDb6searchENSt7__cxx1112basic_stringIcSt11char_traitsIcESaIcEEE
zynaddsubfx:_ZNK3zyn6Chorus6getparEi
zynaddsubfx:_ZNK3zyn6Config10saveConfigEPKc
zynaddsubfx:_ZNK3zyn6Config17getConfigFileNameEPci
zynaddsubfx:_ZNK3zyn6Config4saveEv
zynaddsubfx:_ZNK3zyn6Master11hasMasterCbEv
zynaddsubfx:_ZNK3zyn6OutMgr7getSinkB5cxx11Ev
zynaddsubfx:_ZNK3zyn6OutMgr9getDriverB5cxx11Ev
zynaddsubfx:_ZNK3zyn6Phaser6getparEi
zynaddsubfx:_ZNK3zyn6Reverb6getparEi
zynaddsubfx:_ZNK3zyn7PADnote8finishedEv
zynaddsubfx:_ZNK3zyn7SUBnote8finishedEv
zynaddsubfx:_ZNK3zyn7WavFile4goodEv
zynaddsubfx:_ZNK3zyn8Alienwah6getparEi
zynaddsubfx:_ZNK3zyn8Envelope8finishedEv
zynaddsubfx:_ZNK3zyn8NotePool10activeDescEv
zynaddsubfx:_ZNK3zyn8NotePool12usedNoteDescEv
zynaddsubfx:_ZNK3zyn8NotePool13usedSynthDescEv
zynaddsubfx:_ZNK3zyn8NotePool14NoteDescriptor10canSustainEv
zynaddsubfx:_ZNK3zyn8NotePool14NoteDescriptor3offEv
zynaddsubfx:_ZNK3zyn8NotePool14NoteDescriptor5dyingEv
zynaddsubfx:_ZNK3zyn8NotePool14NoteDescriptor7latchedEv
zynaddsubfx:_ZNK3zyn8NotePool14NoteDescriptor7playingEv
zynaddsubfx:_ZNK3zyn8NotePool14NoteDescriptor8entombedEv
zynaddsubfx:_ZNK3zyn8NotePool14NoteDescriptor8releasedEv
zynaddsubfx:_ZNK3zyn8NotePool14NoteDescriptor9sustainedEv
zynaddsubfx:_ZNK3zyn8NotePool15getRunningNotesEv
zynaddsubfx:_ZNK3zyn8NotePool16getRunningVoicesEv
zynaddsubfx:_ZNK3zyn8NotePool17existsRunningNoteEv
zynaddsubfx:_ZNK3zyn8NotePool4fullEv
zynaddsubfx:_ZNK3zyn8NotePool9synthFullEi
zynaddsubfx:_ZNK3zyn8OscilGen10modulationERNS_15OscilGenBuffersENS_13FFTfreqBufferE
zynaddsubfx:_ZNK3zyn8OscilGen11needPrepareERNS_15OscilGenBuffersE
zynaddsubfx:_ZNK3zyn8OscilGen11oscilfilterEPSt7complexIfE
zynaddsubfx:_ZNK3zyn8OscilGen14shiftharmonicsEPSt7complexIfE
zynaddsubfx:_ZNK3zyn8OscilGen14spectrumadjustEPSt7complexIfE
zynaddsubfx:_ZNK3zyn8OscilGen15getbasefunctionERNS_15OscilGenBuffersENS_15FFTsampleBufferE
zynaddsubfx:_ZNK3zyn8OscilGen16adaptiveharmonicEPSt7complexIfEf
zynaddsubfx:_ZNK3zyn8OscilGen18changebasefunctionERNS_15OscilGenBuffersE
zynaddsubfx:_ZNK3zyn8OscilGen21createOscilGenBuffersEv
zynaddsubfx:_ZNK3zyn8OscilGen27adaptiveharmonicpostprocessEPSt7complexIfEi
zynaddsubfx:_ZNK3zyn8OscilGen3getERNS_15OscilGenBuffersEPffi
zynaddsubfx:_ZNK3zyn8OscilGen7prepareERNS_15OscilGenBuffersE
zynaddsubfx:_ZNK3zyn8OscilGen7prepareERNS_15OscilGenBuffersENS_13FFTfreqBufferE
zynaddsubfx:_ZNK3zyn8OscilGen8userfuncERNS_15OscilGenBuffersEf
zynaddsubfx:_ZNK3zyn8OscilGen9waveshapeERNS_15OscilGenBuffersENS_13FFTfreqBufferE
zynaddsubfx:_ZNK3zyn8PaEngine10getAudioEnEv
zynaddsubfx:_ZNK3zyn9Allocator12totalAllocedEv
zynaddsubfx:_ZNK3zyn9Allocator7memFreeEPv
zynaddsubfx:_ZNK3zyn9Allocator8memPoolsEv
zynaddsubfx:_ZNK3zyn9Allocator9freePoolsEv
zynaddsubfx:_ZNK3zyn9BankEntry5matchENSt7__cxx1112basic_stringIcSt11char_traitsIcESaIcEEE
zynaddsubfx:_ZNK3zyn9BankEntryltERKS0_
zynaddsubfx:_ZNK3zyn9NulEngine10getAudioEnEv
zynaddsubfx:_ZNK3zyn9OssEngine10getAudioEnEv
zynaddsubfx:_ZNK3zyn9OssEngine9getMidiEnEv
zynaddsubfx:_ZNK3zyn9Resonance10getfreqposEf
zynaddsubfx:_ZNK3zyn9Resonance13getcenterfreqEv
zynaddsubfx:_ZNK3zyn9Resonance14getoctavesfreqEv
zynaddsubfx:_ZNK3zyn9Resonance15getfreqresponseEf
zynaddsubfx:_ZNK3zyn9Resonance8applyresEiPSt7complexIfEf
zynaddsubfx:_ZNK3zyn9Resonance8getfreqxEf
zynaddsubfx:_ZNK5rtosc10ThreadLink11buffer_sizeEv
zynaddsubfx:_ZNK5rtosc10ThreadLink16hasNextLookaheadEv
zynaddsubfx:_ZNK5rtosc10ThreadLink4peakEv
zynaddsubfx:_ZNK5rtosc10ThreadLink7hasNextEb
zynaddsubfx:_ZNK5rtosc10ThreadLink7hasNextEv
zynaddsubfx:_ZNK5rtosc11UndoHistory10getHistoryEi
zynaddsubfx:_ZNK5rtosc11UndoHistory11showHistoryEv
zynaddsubfx:_ZNK5rtosc11UndoHistory4sizeEv
zynaddsubfx:_ZNK5rtosc11UndoHistory6getPosEv
zynaddsubfx:_ZNK5rtosc13AutomationMgr9free_slotEv
zynaddsubfx:_ZNK5rtosc13MidiBijectionclEf
zynaddsubfx:_ZNK5rtosc13MidiBijectionclEi
zynaddsubfx:_ZNK5rtosc4Port12MetaIteratorcvbEv
zynaddsubfx:_ZNK5rtosc4Port13MetaContainer3endEv
zynaddsubfx:_ZNK5rtosc4Port13MetaContainer4findEPKc
zynaddsubfx:_ZNK5rtosc4Port13MetaContainer5beginEv
zynaddsubfx:_ZNK5rtosc4Port13MetaContainer6lengthEv
zynaddsubfx:_ZNK5rtosc4Port13MetaContainerixEPKc
zynaddsubfx:_ZNK5rtosc5Ports7aproposEPKc
zynaddsubfx:_ZNK5rtosc5Ports8dispatchEPKcRNS_6RtDataEb
zynaddsubfx:_ZNK5rtosc5PortsixEPKc
zynaddsubfx:_ZNK6TipWin6getStrEv
zynaddsubfx:_ZNK8BankSlot4nameEv
zynaddsubfx:_ZNK8BankSlot5emptyEv
zynaddsubfx:_ZNK8BankSlot8filenameEv
zynaddsubfx:_ZThn120_N10Fl_EQGraph6updateEv
zynaddsubfx:_ZThn120_N10Fl_EQGraph7OSC_rawEPKc
zynaddsubfx:_ZThn120_N10Fl_EQGraphD0Ev
zynaddsubfx:_ZThn120_N10Fl_EQGraphD1Ev
zynaddsubfx:_ZThn120_N16EnvelopeFreeEdit6rebaseENSt7__cxx1112basic_stringIcSt11char_traitsIcESaIcEEE
zynaddsubfx:_ZThn120_N16EnvelopeFreeEdit6updateEv
zynaddsubfx:_ZThn120_N16EnvelopeFreeEdit7OSC_rawEPKc
zynaddsubfx:_ZThn120_N18Fl_Resonance_Graph6updateEv
zynaddsubfx:_ZThn120_N18Fl_Resonance_Graph7OSC_rawEPKc
zynaddsubfx:_ZThn120_N18Fl_Resonance_GraphD0Ev
zynaddsubfx:_ZThn120_N18Fl_Resonance_GraphD1Ev
zynaddsubfx:_ZThn120_N18FormantFilterGraph6rebaseENSt7__cxx1112basic_stringIcSt11char_traitsIcESaIcEEE
zynaddsubfx:_ZThn120_N18FormantFilterGraph6updateEv
zynaddsubfx:_ZThn120_N18FormantFilterGraph9OSC_valueEiPKc
zynaddsubfx:_ZThn120_N18FormantFilterGraph9OSC_valueEjPv
zynaddsubfx:_ZThn120_N18FormantFilterGraphD0Ev
zynaddsubfx:_ZThn120_N18FormantFilterGraphD1Ev
zynaddsubfx:_ZThn120_N7VirKeys9OSC_valueEi
zynaddsubfx:_ZThn128_N11PointButton6rebaseENSt7__cxx1112basic_stringIcSt11char_traitsIcESaIcEEE
zynaddsubfx:_ZThn128_N12Fl_Osc_Check9OSC_valueEb
zynaddsubfx:_ZThn128_N12Fl_Osc_CheckD0Ev
zynaddsubfx:_ZThn128_N12Fl_Osc_CheckD1Ev
zynaddsubfx:_ZThn128_N13Fl_Osc_Button6rebaseENSt7__cxx1112basic_stringIcSt11char_traitsIcESaIcEEE
zynaddsubfx:_ZThn128_N13Fl_Osc_Button9OSC_valueEb
zynaddsubfx:_ZThn128_N13Fl_Osc_ButtonD0Ev
zynaddsubfx:_ZThn128_N13Fl_Osc_ButtonD1Ev
zynaddsubfx:_ZThn128_N14PartNameButton9OSC_valueEPKc
zynaddsubfx:_ZThn168_N12OGWaveChoice9OSC_valueEi
zynaddsubfx:_ZThn168_N13Fl_Osc_Choice6updateEv
zynaddsubfx:_ZThn168_N13Fl_Osc_Choice9OSC_valueEc
zynaddsubfx:_ZThn168_N13Fl_Osc_Choice9OSC_valueEi
zynaddsubfx:_ZThn168_N13Fl_Osc_ChoiceD0Ev
zynaddsubfx:_ZThn168_N13Fl_Osc_ChoiceD1Ev
zynaddsubfx:_ZThn168_N8BankList7OSC_rawEPKc
zynaddsubfx:_ZThn168_N8BankView7OSC_rawEPKc
zynaddsubfx:_ZThn168_N8BankViewD0Ev
zynaddsubfx:_ZThn168_N8BankViewD1Ev
zynaddsubfx:_ZThn176_N11PhaseSlider9OSC_valueEi
zynaddsubfx:_ZThn176_N13Fl_Osc_Slider6updateEv
zynaddsubfx:_ZThn176_N13Fl_Osc_Slider9OSC_valueEc
zynaddsubfx:_ZThn176_N13Fl_Osc_Slider9OSC_valueEf
zynaddsubfx:_ZThn176_N13Fl_Osc_Slider9OSC_valueEi
zynaddsubfx:_ZThn176_N13Fl_Osc_SliderD0Ev
zynaddsubfx:_ZThn176_N13Fl_Osc_SliderD1Ev
zynaddsubfx:_ZThn176_N14Fl_Osc_TSliderD0Ev
zynaddsubfx:_ZThn176_N14Fl_Osc_TSliderD1Ev
zynaddsubfx:_ZThn176_N14Fl_Osc_VSliderD0Ev
zynaddsubfx:_ZThn176_N14Fl_Osc_VSliderD1Ev
zynaddsubfx:_ZThn176_N8OGSlider6updateEv
zynaddsubfx:_ZThn176_N8OGSlider9OSC_valueEc
zynaddsubfx:_ZThn176_N8OGSlider9OSC_valueEi
zynaddsubfx:_ZThn176_N9SUBSlider9OSC_valueEi
zynaddsubfx:_ZThn184_N13Fl_Osc_Output6updateEv
zynaddsubfx:_ZThn184_N13Fl_Osc_Output9OSC_valueEc
zynaddsubfx:_ZThn184_N13Fl_Osc_Output9OSC_valueEf
zynaddsubfx:_ZThn192_N14Fl_Osc_Counter6updateEv
zynaddsubfx:_ZThn192_N14Fl_Osc_Counter9OSC_valueEc
zynaddsubfx:_ZThn192_N14Fl_Osc_Counter9OSC_valueEi
zynaddsubfx:_ZThn216_N10SysEffSendD0Ev
zynaddsubfx:_ZThn216_N10SysEffSendD1Ev
zynaddsubfx:_ZThn216_N11Fl_Osc_Dial6rebaseENSt7__cxx1112basic_stringIcSt11char_traitsIcESaIcEEE
zynaddsubfx:_ZThn216_N11Fl_Osc_Dial6updateEv
zynaddsubfx:_ZThn216_N11Fl_Osc_Dial9OSC_valueEc
zynaddsubfx:_ZThn216_N11Fl_Osc_Dial9OSC_valueEf
zynaddsubfx:_ZThn216_N11Fl_Osc_Dial9OSC_valueEi
zynaddsubfx:_ZThn216_N11Fl_Osc_DialD0Ev
zynaddsubfx:_ZThn216_N11Fl_Osc_DialD1Ev
zynaddsubfx:_ZThn216_N12Fl_Osc_DialF6updateEv
zynaddsubfx:_ZThn216_N12Fl_Osc_DialF9OSC_valueEf
zynaddsubfx:_ZThn216_N12Fl_Osc_DialFD0Ev
zynaddsubfx:_ZThn216_N12Fl_Osc_DialFD1Ev
zynaddsubfx:_ZThn224_N12Fl_Osc_Input9OSC_valueEPKc
zynaddsubfx:_ZThn224_N12Fl_Osc_InputD0Ev
zynaddsubfx:_ZThn224_N12Fl_Osc_InputD1Ev
zynaddsubfx:_ZThn224_N20Fl_Osc_Numeric_Input9OSC_valueEf
zynaddsubfx:_ZThn224_N20Fl_Osc_Numeric_Input9OSC_valueEi
zynaddsubfx:_ZThn224_N20Fl_Osc_Numeric_InputD0Ev
zynaddsubfx:_ZThn224_N20Fl_Osc_Numeric_InputD1Ev
zynaddsubfx:_ZThn248_N10EnvelopeUI7refreshEv
zynaddsubfx:_ZThn248_N10EnvelopeUID0Ev
zynaddsubfx:_ZThn248_N10EnvelopeUID1Ev
zynaddsubfx:_ZThn248_N11SimpleEffUI7refreshEv
zynaddsubfx:_ZThn248_N11SimpleEffUID0Ev
zynaddsubfx:_ZThn248_N11SimpleEffUID1Ev
zynaddsubfx:_ZThn248_N5EffUI7refreshEv
zynaddsubfx:_ZThn248_N5EffUID0Ev
zynaddsubfx:_ZThn248_N5EffUID1Ev
zynaddsubfx:_ZThn248_N5LFOUI7refreshEv
zynaddsubfx:_ZThn248_N5LFOUID0Ev
zynaddsubfx:_ZThn248_N5LFOUID1Ev
zynaddsubfx:_ZThn248_N8FilterUI7refreshEv
zynaddsubfx:_ZThn248_N8FilterUID0Ev
zynaddsubfx:_ZThn248_N8FilterUID1Ev
zynaddsubfx:_ZThn272_N13Fl_Osc_Window6rebaseENSt7__cxx1112basic_stringIcSt11char_traitsIcESaIcEEE
zynaddsubfx:_ZThn272_NK13Fl_Osc_Window3locB5cxx11Ev
zynaddsubfx:_ZThn32_N3zyn10AlsaEngine9setMidiEnEb
zynaddsubfx:_ZThn32_N3zyn10AlsaEngineD0Ev
zynaddsubfx:_ZThn32_N3zyn10AlsaEngineD1Ev
zynaddsubfx:_ZThn32_N3zyn10JackEngine9setMidiEnEb
zynaddsubfx:_ZThn32_N3zyn9NulEngineD0Ev
zynaddsubfx:_ZThn32_N3zyn9NulEngineD1Ev
zynaddsubfx:_ZThn32_N3zyn9OssEngine9setMidiEnEb
zynaddsubfx:_ZThn32_N3zyn9OssEngineD0Ev
zynaddsubfx:_ZThn32_N3zyn9OssEngineD1Ev
zynaddsubfx:_ZThn32_NK3zyn10AlsaEngine9getMidiEnEv
zynaddsubfx:_ZThn32_NK3zyn10JackEngine9getMidiEnEv
zynaddsubfx:_ZThn32_NK3zyn9OssEngine9getMidiEnEv
zynaddsubfx:_ZThn400_N12Fl_Osc_Value9OSC_valueEf
zynaddsubfx:_ZThn400_N12Fl_Osc_ValueD0Ev
zynaddsubfx:_ZThn400_N12Fl_Osc_ValueD1Ev
zynaddsubfx:_ZThn48_N10EnvelopeUID0Ev
zynaddsubfx:_ZThn48_N10EnvelopeUID1Ev
zynaddsubfx:_ZThn48_N11PartKitItemD0Ev
zynaddsubfx:_ZThn48_N11PartKitItemD1Ev
zynaddsubfx:_ZThn48_N11SimpleEffUID0Ev
zynaddsubfx:_ZThn48_N11SimpleEffUID1Ev
zynaddsubfx:_ZThn48_N13PanellistitemD0Ev
zynaddsubfx:_ZThn48_N13PanellistitemD1Ev
zynaddsubfx:_ZThn48_N15ADvoicelistitemD0Ev
zynaddsubfx:_ZThn48_N15ADvoicelistitemD1Ev
zynaddsubfx:_ZThn48_N15SUBnoteharmonicD0Ev
zynaddsubfx:_ZThn48_N15SUBnoteharmonicD1Ev
zynaddsubfx:_ZThn48_N5EffUID0Ev
zynaddsubfx:_ZThn48_N5EffUID1Ev
zynaddsubfx:_ZThn48_N5LFOUID0Ev
zynaddsubfx:_ZThn48_N5LFOUID1Ev
zynaddsubfx:_ZThn48_N6PartUID0Ev
zynaddsubfx:_ZThn48_N6PartUID1Ev
zynaddsubfx:_ZThn48_N8FilterUID0Ev
zynaddsubfx:_ZThn48_N8FilterUID1Ev
zynaddsubfx:_ZThn680_N15Fl_Osc_ListView6updateEv
zynaddsubfx:_ZThn680_N15Fl_Osc_ListViewD0Ev
zynaddsubfx:_ZThn680_N15Fl_Osc_ListViewD1Ev
zynaddsubfx:_ZTv0_n24_N3zyn10AlsaEngineD0Ev
zynaddsubfx:_ZTv0_n24_N3zyn10AlsaEngineD1Ev
zynaddsubfx:_ZTv0_n24_N3zyn14OssMultiEngineD0Ev
zynaddsubfx:_ZTv0_n24_N3zyn14OssMultiEngineD1Ev
zynaddsubfx:_ZTv0_n24_N3zyn15JackMultiEngineD0Ev
zynaddsubfx:_ZTv0_n24_N3zyn15JackMultiEngineD1Ev
zynaddsubfx:_ZTv0_n24_N3zyn8AudioOutD0Ev
zynaddsubfx:_ZTv0_n24_N3zyn8AudioOutD1Ev
zynaddsubfx:_ZTv0_n24_N3zyn8PaEngineD0Ev
zynaddsubfx:_ZTv0_n24_N3zyn8PaEngineD1Ev
zynaddsubfx:_ZTv0_n24_N3zyn9NulEngineD0Ev
zynaddsubfx:_ZTv0_n24_N3zyn9NulEngineD1Ev
zynaddsubfx:_ZTv0_n24_N3zyn9OssEngineD0Ev
zynaddsubfx:_ZTv0_n24_N3zyn9OssEngineD1Ev
zynaddsubfx:_ZTv0_n24_N3zyn9WavEngineD0Ev
zynaddsubfx:_ZTv0_n24_N3zyn9WavEngineD1Ev
zynaddsubfx:_ZTv0_n32_N3zyn10AlsaEngine5StartEv
zynaddsubfx:_ZTv0_n32_N3zyn10JackEngine5StartEv
zynaddsubfx:_ZTv0_n32_N3zyn14OssMultiEngine5StartEv
zynaddsubfx:_ZTv0_n32_N3zyn15JackMultiEngine5StartEv
zynaddsubfx:_ZTv0_n32_N3zyn8PaEngine5StartEv
zynaddsubfx:_ZTv0_n32_N3zyn9NulEngine5StartEv
zynaddsubfx:_ZTv0_n32_N3zyn9OssEngine5StartEv
zynaddsubfx:_ZTv0_n32_N3zyn9WavEngine5StartEv
zynaddsubfx:_ZTv0_n40_N3zyn10AlsaEngine4StopEv
zynaddsubfx:_ZTv0_n40_N3zyn10JackEngine4StopEv
zynaddsubfx:_ZTv0_n40_N3zyn14OssMultiEngine4StopEv
zynaddsubfx:_ZTv0_n40_N3zyn15JackMultiEngine4StopEv
zynaddsubfx:_ZTv0_n40_N3zyn8PaEngine4StopEv
zynaddsubfx:_ZTv0_n40_N3zyn9NulEngine4StopEv
zynaddsubfx:_ZTv0_n40_N3zyn9OssEngine4StopEv
zynaddsubfx:_ZTv0_n40_N3zyn9WavEngine4StopEv
zynaddsubfx:__bss_start
zynaddsubfx:__data_start
zynaddsubfx:_edata
zynaddsubfx:_end
zynaddsubfx:_start
zynaddsubfx:advance_path
zynaddsubfx:arraytypes_match
zynaddsubfx:chunk_path
zynaddsubfx:compr
zynaddsubfx:delta_from_arg_vals
zynaddsubfx:fast_strcpy
zynaddsubfx:get_default_cmp_options
zynaddsubfx:gui
zynaddsubfx:instance_name
zynaddsubfx:main
zynaddsubfx:master
zynaddsubfx:middleware
zynaddsubfx:nsm
zynaddsubfx:parse_identifier
zynaddsubfx:presetsui
zynaddsubfx:range_min
zynaddsubfx:rtosc_amessage
zynaddsubfx:rtosc_arg_arr_len
zynaddsubfx:rtosc_arg_arr_len_set
zynaddsubfx:rtosc_arg_arr_type
zynaddsubfx:rtosc_arg_arr_type_set
zynaddsubfx:rtosc_arg_rep_has_delta
zynaddsubfx:rtosc_arg_rep_has_delta_set
zynaddsubfx:rtosc_arg_rep_num
zynaddsubfx:rtosc_arg_rep_num_set
zynaddsubfx:rtosc_arg_val_add
zynaddsubfx:rtosc_arg_val_current_time
zynaddsubfx:rtosc_arg_val_div
zynaddsubfx:rtosc_arg_val_from_double
zynaddsubfx:rtosc_arg_val_from_int
zynaddsubfx:rtosc_arg_val_from_params
zynaddsubfx:rtosc_arg_val_from_time_t
zynaddsubfx:rtosc_arg_val_immediatelly
zynaddsubfx:rtosc_arg_val_is_immediatelly
zynaddsubfx:rtosc_arg_val_itr_get
zynaddsubfx:rtosc_arg_val_itr_init
zynaddsubfx:rtosc_arg_val_itr_next
zynaddsubfx:rtosc_arg_val_mult
zynaddsubfx:rtosc_arg_val_negate
zynaddsubfx:rtosc_arg_val_null
zynaddsubfx:rtosc_arg_val_range_arg
zynaddsubfx:rtosc_arg_val_round
zynaddsubfx:rtosc_arg_val_sub
zynaddsubfx:rtosc_arg_val_to_int
zynaddsubfx:rtosc_arg_vals_cmp
zynaddsubfx:rtosc_arg_vals_cmp_has_next
zynaddsubfx:rtosc_arg_vals_cmp_single
zynaddsubfx:rtosc_arg_vals_eq
zynaddsubfx:rtosc_arg_vals_eq_after_abort
zynaddsubfx:rtosc_arg_vals_eq_single
zynaddsubfx:rtosc_argument
zynaddsubfx:rtosc_argument_string
zynaddsubfx:rtosc_av_arr_len
zynaddsubfx:rtosc_av_arr_len_set
zynaddsubfx:rtosc_av_arr_type
zynaddsubfx:rtosc_av_arr_type_set
zynaddsubfx:rtosc_av_rep_has_delta
zynaddsubfx:rtosc_av_rep_has_delta_set
zynaddsubfx:rtosc_av_rep_num
zynaddsubfx:rtosc_av_rep_num_set
zynaddsubfx:rtosc_bundle
zynaddsubfx:rtosc_bundle_elements
zynaddsubfx:rtosc_bundle_fetch
zynaddsubfx:rtosc_bundle_p
zynaddsubfx:rtosc_bundle_size
zynaddsubfx:rtosc_bundle_timetag
zynaddsubfx:rtosc_count_printed_arg_vals
zynaddsubfx:rtosc_count_printed_arg_vals_of_msg
zynaddsubfx:rtosc_current_version
zynaddsubfx:rtosc_float2secfracs
zynaddsubfx:rtosc_itr_begin
zynaddsubfx:rtosc_itr_end
zynaddsubfx:rtosc_itr_next
zynaddsubfx:rtosc_match
zynaddsubfx:rtosc_match_full_path
zynaddsubfx:rtosc_match_options
zynaddsubfx:rtosc_match_partial
zynaddsubfx:rtosc_match_path
zynaddsubfx:rtosc_matchable_path
zynaddsubfx:rtosc_message
zynaddsubfx:rtosc_message_length
zynaddsubfx:rtosc_message_ring_length
zynaddsubfx:rtosc_narguments
zynaddsubfx:rtosc_params_from_arg_val
zynaddsubfx:rtosc_print_arg_val
zynaddsubfx:rtosc_print_arg_vals
zynaddsubfx:rtosc_print_message
zynaddsubfx:rtosc_scan_arg_val
zynaddsubfx:rtosc_scan_arg_vals
zynaddsubfx:rtosc_scan_message
zynaddsubfx:rtosc_secfracs2float
zynaddsubfx:rtosc_secfracs_from_arg_val
zynaddsubfx:rtosc_skip_next_printed_arg
zynaddsubfx:rtosc_subpath_pat_type
zynaddsubfx:rtosc_time_t_from_arg_val
zynaddsubfx:rtosc_type
zynaddsubfx:rtosc_v2argvals
zynaddsubfx:rtosc_valid_message_p
zynaddsubfx:rtosc_version_cmp
zynaddsubfx:rtosc_version_print_to_12byte_str
zynaddsubfx:rtosc_vmessage
zynaddsubfx:swaplr
zynaddsubfx:tlsf_add_pool
zynaddsubfx:tlsf_align_size
zynaddsubfx:tlsf_alloc_overhead
zynaddsubfx:tlsf_block_size
zynaddsubfx:tlsf_block_size_max
zynaddsubfx:tlsf_block_size_min
zynaddsubfx:tlsf_check
zynaddsubfx:tlsf_check_pool
zynaddsubfx:tlsf_create
zynaddsubfx:tlsf_create_with_pool
zynaddsubfx:tlsf_destroy
zynaddsubfx:tlsf_free
zynaddsubfx:tlsf_get_pool
zynaddsubfx:tlsf_malloc
zynaddsubfx:tlsf_memalign
zynaddsubfx:tlsf_pool_overhead
zynaddsubfx:tlsf_realloc
zynaddsubfx:tlsf_remove_pool
zynaddsubfx:tlsf_size
zynaddsubfx:tlsf_walk_pool
zynaddsubfx:types_match
zynaddsubfx:ui
zynaddsubfx-ext-gui:Pexitprogram
zynaddsubfx-ext-gui:_IO_stdin_used
zynaddsubfx-ext-gui:_Z11exitprogramv
zynaddsubfx-ext-gui:_Z14fetch_osc_paneP9Fl_Widget
zynaddsubfx-ext-gui:_Z15port_is_enabledPKN5rtosc4PortEPcmRKNS_5PortsEPvbPFvS2_PKcS9_S6_S7_S7_ES7_
zynaddsubfx-ext-gui:_Z19kb_shortcut_handleri
zynaddsubfx-ext-gui:_Z20metaiterator_advanceRPKcS1_
zynaddsubfx-ext-gui:_Z21set_module_parametersP9Fl_Widget
zynaddsubfx-ext-gui:_Z7do_hashRKSt6vectorINSt7__cxx1112basic_stringIcSt11char_traitsIcESaIcEEESaIS5_EERKS_IiSaIiEE
zynaddsubfx-ext-gui:_Z8watch_lov
zynaddsubfx-ext-gui:_Z9sendtourlB5cxx11
zynaddsubfx-ext-gui:_ZN10EnvelopeUI11cb_addpointEP11PointButtonPv
zynaddsubfx-ext-gui:_ZN10EnvelopeUI11cb_freeeditEP16EnvelopeFreeEditPv
zynaddsubfx-ext-gui:_ZN10EnvelopeUI14cb_deletepointEP11PointButtonPv
zynaddsubfx-ext-gui:_ZN10EnvelopeUI15cb_freemodehackEP12Fl_Osc_CheckPv
zynaddsubfx-ext-gui:_ZN10EnvelopeUI15make_ASR_windowEv
zynaddsubfx-ext-gui:_ZN10EnvelopeUI15refresh_displayEv
zynaddsubfx-ext-gui:_ZN10EnvelopeUI16cb_freeeditsmallEP16EnvelopeFreeEditPv
zynaddsubfx-ext-gui:_ZN10EnvelopeUI16disable_freemodeEv
zynaddsubfx-ext-gui:_ZN10EnvelopeUI16make_ADSR_windowEv
zynaddsubfx-ext-gui:_ZN10EnvelopeUI16make_free_windowEv
zynaddsubfx-ext-gui:_ZN10EnvelopeUI16open_as_freemodeEv
zynaddsubfx-ext-gui:_ZN10EnvelopeUI17cb_sustaincounterEP14Fl_Osc_CounterPv
zynaddsubfx-ext-gui:_ZN10EnvelopeUI17make_ASRbw_windowEv
zynaddsubfx-ext-gui:_ZN10EnvelopeUI22make_ADSRfilter_windowEv
zynaddsubfx-ext-gui:_ZN10EnvelopeUI25make_freemode_edit_windowEv
zynaddsubfx-ext-gui:_ZN10EnvelopeUI4cb_CEP9Fl_ButtonPv
zynaddsubfx-ext-gui:_ZN10EnvelopeUI4cb_EEP13Fl_Osc_ButtonPv
zynaddsubfx-ext-gui:_ZN10EnvelopeUI4cb_PEP9Fl_ButtonPv
zynaddsubfx-ext-gui:_ZN10EnvelopeUI4initEiP16Fl_Osc_InterfaceNSt7__cxx1112basic_stringIcSt11char_traitsIcESaIcEEES7_
zynaddsubfx-ext-gui:_ZN10EnvelopeUI5cb_C1EP9Fl_ButtonPv
zynaddsubfx-ext-gui:_ZN10EnvelopeUI5cb_C2EP9Fl_ButtonPv
zynaddsubfx-ext-gui:_ZN10EnvelopeUI5cb_C3EP9Fl_ButtonPv
zynaddsubfx-ext-gui:_ZN10EnvelopeUI5cb_C4EP9Fl_ButtonPv
zynaddsubfx-ext-gui:_ZN10EnvelopeUI5cb_C5EP9Fl_ButtonPv
zynaddsubfx-ext-gui:_ZN10EnvelopeUI5cb_E1EP13Fl_Osc_ButtonPv
zynaddsubfx-ext-gui:_ZN10EnvelopeUI5cb_E2EP13Fl_Osc_ButtonPv
zynaddsubfx-ext-gui:_ZN10EnvelopeUI5cb_E3EP13Fl_Osc_ButtonPv
zynaddsubfx-ext-gui:_ZN10EnvelopeUI5cb_E4EP13Fl_Osc_ButtonPv
zynaddsubfx-ext-gui:_ZN10EnvelopeUI5cb_P1EP9Fl_ButtonPv
zynaddsubfx-ext-gui:_ZN10EnvelopeUI5cb_P2EP9Fl_ButtonPv
zynaddsubfx-ext-gui:_ZN10EnvelopeUI5cb_P3EP9Fl_ButtonPv
zynaddsubfx-ext-gui:_ZN10EnvelopeUI5cb_P4EP9Fl_ButtonPv
zynaddsubfx-ext-gui:_ZN10EnvelopeUI5cb_P5EP9Fl_ButtonPv
zynaddsubfx-ext-gui:_ZN10EnvelopeUI6rebaseENSt7__cxx1112basic_stringIcSt11char_traitsIcESaIcEEE
zynaddsubfx-ext-gui:_ZN10EnvelopeUI7refreshEv
zynaddsubfx-ext-gui:_ZN10EnvelopeUI8cb_CloseEP9Fl_ButtonPv
zynaddsubfx-ext-gui:_ZN10EnvelopeUI8cb_e1adtEP11Fl_Osc_DialPv
zynaddsubfx-ext-gui:_ZN10EnvelopeUI8cb_e1ddtEP11Fl_Osc_DialPv
zynaddsubfx-ext-gui:_ZN10EnvelopeUI8cb_e1rdtEP11Fl_Osc_DialPv
zynaddsubfx-ext-gui:_ZN10EnvelopeUI8cb_e2adtEP11Fl_Osc_DialPv
zynaddsubfx-ext-gui:_ZN10EnvelopeUI8cb_e2rdtEP11Fl_Osc_DialPv
zynaddsubfx-ext-gui:_ZN10EnvelopeUI8cb_e3adtEP11Fl_Osc_DialPv
zynaddsubfx-ext-gui:_ZN10EnvelopeUI8cb_e3ddtEP11Fl_Osc_DialPv
zynaddsubfx-ext-gui:_ZN10EnvelopeUI8cb_e3rdtEP11Fl_Osc_DialPv
zynaddsubfx-ext-gui:_ZN10EnvelopeUI8cb_e4adtEP11Fl_Osc_DialPv
zynaddsubfx-ext-gui:_ZN10EnvelopeUI8cb_e4rdtEP11Fl_Osc_DialPv
zynaddsubfx-ext-gui:_ZN10EnvelopeUI9cb_CancelEP13Fl_Osc_ButtonPv
zynaddsubfx-ext-gui:_ZN10EnvelopeUI9cb_e1svalEP11Fl_Osc_DialPv
zynaddsubfx-ext-gui:_ZN10EnvelopeUI9cb_e2avalEP11Fl_Osc_DialPv
zynaddsubfx-ext-gui:_ZN10EnvelopeUI9cb_e2rvalEP11Fl_Osc_DialPv
zynaddsubfx-ext-gui:_ZN10EnvelopeUI9cb_e3avalEP11Fl_Osc_DialPv
zynaddsubfx-ext-gui:_ZN10EnvelopeUI9cb_e3dvalEP11Fl_Osc_DialPv
zynaddsubfx-ext-gui:_ZN10EnvelopeUI9cb_e3rvalEP11Fl_Osc_DialPv
zynaddsubfx-ext-gui:_ZN10EnvelopeUI9cb_e4avalEP11Fl_Osc_DialPv
zynaddsubfx-ext-gui:_ZN10EnvelopeUI9cb_e4rvalEP11Fl_Osc_DialPv
zynaddsubfx-ext-gui:_ZN10EnvelopeUIC1EiiiiPKc
zynaddsubfx-ext-gui:_ZN10EnvelopeUIC2EiiiiPKc
zynaddsubfx-ext-gui:_ZN10EnvelopeUID0Ev
zynaddsubfx-ext-gui:_ZN10EnvelopeUID1Ev
zynaddsubfx-ext-gui:_ZN10EnvelopeUID2Ev
zynaddsubfx-ext-gui:_ZN10Fl_EQGraph14draw_freq_lineEfi
zynaddsubfx-ext-gui:_ZN10Fl_EQGraph4drawEv
zynaddsubfx-ext-gui:_ZN10Fl_EQGraph6updateEv
zynaddsubfx-ext-gui:_ZN10Fl_EQGraph7OSC_rawEPKc
zynaddsubfx-ext-gui:_ZN10Fl_EQGraphC1EiiiiPKc
zynaddsubfx-ext-gui:_ZN10Fl_EQGraphC2EiiiiPKc
zynaddsubfx-ext-gui:_ZN10Fl_EQGraphD0Ev
zynaddsubfx-ext-gui:_ZN10Fl_EQGraphD1Ev
zynaddsubfx-ext-gui:_ZN10Fl_EQGraphD2Ev
zynaddsubfx-ext-gui:_ZN10PresetsUI_7refreshEv
zynaddsubfx-ext-gui:_ZN10PresetsUI_D0Ev
zynaddsubfx-ext-gui:_ZN10PresetsUI_D1Ev
zynaddsubfx-ext-gui:_ZN10PresetsUI_D2Ev
zynaddsubfx-ext-gui:_ZN10SysEffSend4initEii
zynaddsubfx-ext-gui:_ZN10SysEffSendC1EiiiiPKc
zynaddsubfx-ext-gui:_ZN10SysEffSendC2EiiiiPKc
zynaddsubfx-ext-gui:_ZN10SysEffSendD0Ev
zynaddsubfx-ext-gui:_ZN10SysEffSendD1Ev
zynaddsubfx-ext-gui:_ZN10SysEffSendD2Ev
zynaddsubfx-ext-gui:_ZN11Fl_Osc_Dial2cbEv
zynaddsubfx-ext-gui:_ZN11Fl_Osc_Dial4initENSt7__cxx1112basic_stringIcSt11char_traitsIcESaIcEEE
zynaddsubfx-ext-gui:_ZN11Fl_Osc_Dial6handleEi
zynaddsubfx-ext-gui:_ZN11Fl_Osc_Dial6rebaseENSt7__cxx1112basic_stringIcSt11char_traitsIcESaIcEEE
zynaddsubfx-ext-gui:_ZN11Fl_Osc_Dial6updateEv
zynaddsubfx-ext-gui:_ZN11Fl_Osc_Dial8alt_initENSt7__cxx1112basic_stringIcSt11char_traitsIcESaIcEEES5_
zynaddsubfx-ext-gui:_ZN11Fl_Osc_Dial8callbackEPFvP9Fl_WidgetPvES2_
zynaddsubfx-ext-gui:_ZN11Fl_Osc_Dial9OSC_valueEc
zynaddsubfx-ext-gui:_ZN11Fl_Osc_Dial9OSC_valueEf
zynaddsubfx-ext-gui:_ZN11Fl_Osc_Dial9OSC_valueEi
zynaddsubfx-ext-gui:_ZN11Fl_Osc_Dial9mark_deadEv
zynaddsubfx-ext-gui:_ZN11Fl_Osc_DialC1EiiiiPKc
zynaddsubfx-ext-gui:_ZN11Fl_Osc_DialC2EiiiiPKc
zynaddsubfx-ext-gui:_ZN11Fl_Osc_DialD0Ev
zynaddsubfx-ext-gui:_ZN11Fl_Osc_DialD1Ev
zynaddsubfx-ext-gui:_ZN11Fl_Osc_DialD2Ev
zynaddsubfx-ext-gui:_ZN11Fl_Osc_PaneC1Ev
zynaddsubfx-ext-gui:_ZN11Fl_Osc_PaneC2Ev
zynaddsubfx-ext-gui:_ZN11OscilEditor10cb_adhrparEP14Fl_Osc_TSliderPv
zynaddsubfx-ext-gui:_ZN11OscilEditor10cb_adhrpowEP11Fl_Osc_DialPv
zynaddsubfx-ext-gui:_ZN11OscilEditor10cb_magtypeEP13Fl_Osc_ChoicePv
zynaddsubfx-ext-gui:_ZN11OscilEditor10cb_modpar1EP11Fl_Osc_DialPv
zynaddsubfx-ext-gui:_ZN11OscilEditor10cb_modpar2EP11Fl_Osc_DialPv
zynaddsubfx-ext-gui:_ZN11OscilEditor10cb_modpar3EP11Fl_Osc_DialPv
zynaddsubfx-ext-gui:_ZN11OscilEditor10cb_modtypeEP13Fl_Osc_ChoicePv
zynaddsubfx-ext-gui:_ZN11OscilEditor10cb_sadjparEP11Fl_Osc_DialPv
zynaddsubfx-ext-gui:_ZN11OscilEditor11cb_adhrtypeEP13Fl_Osc_ChoicePv
zynaddsubfx-ext-gui:_ZN11OscilEditor11cb_sabuttonEP13Fl_Osc_ChoicePv
zynaddsubfx-ext-gui:_ZN11OscilEditor11make_windowEv
zynaddsubfx-ext-gui:_ZN11OscilEditor11menu_bftypeE
zynaddsubfx-ext-gui:_ZN11OscilEditor11redrawoscilEv
zynaddsubfx-ext-gui:_ZN11OscilEditor12cb_bfmodpar1EP11Fl_Osc_DialPv
zynaddsubfx-ext-gui:_ZN11OscilEditor12cb_bfmodpar2EP11Fl_Osc_DialPv
zynaddsubfx-ext-gui:_ZN11OscilEditor12cb_bfmodpar3EP11Fl_Osc_DialPv
zynaddsubfx-ext-gui:_ZN11OscilEditor12cb_bfmodtypeEP13Fl_Osc_ChoicePv
zynaddsubfx-ext-gui:_ZN11OscilEditor12cb_fltbuttonEP13Fl_Osc_ChoicePv
zynaddsubfx-ext-gui:_ZN11OscilEditor12cb_wshbuttonEP13Fl_Osc_ChoicePv
zynaddsubfx-ext-gui:_ZN11OscilEditor12menu_magtypeE
zynaddsubfx-ext-gui:_ZN11OscilEditor12menu_modtypeE
zynaddsubfx-ext-gui:_ZN11OscilEditor13cb_filterprefEP15Fl_Check_ButtonPv
zynaddsubfx-ext-gui:_ZN11OscilEditor13menu_adhrtypeE
zynaddsubfx-ext-gui:_ZN11OscilEditor13menu_hrndtypeE
zynaddsubfx-ext-gui:_ZN11OscilEditor13menu_sabuttonE
zynaddsubfx-ext-gui:_ZN11OscilEditor14cb_applybuttonEP9Fl_ButtonPv
zynaddsubfx-ext-gui:_ZN11OscilEditor14menu_bfmodtypeE
zynaddsubfx-ext-gui:_ZN11OscilEditor14menu_fltbuttonE
zynaddsubfx-ext-gui:_ZN11OscilEditor14menu_wshbuttonE
zynaddsubfx-ext-gui:_ZN11OscilEditor14setbfmodstatusEi
zynaddsubfx-ext-gui:_ZN11OscilEditor15cb_filtervalue1EP11Fl_Osc_DialPv
zynaddsubfx-ext-gui:_ZN11OscilEditor15cb_filtervalue2EP11Fl_Osc_DialPv
zynaddsubfx-ext-gui:_ZN11OscilEditor19cb_harmonicshiftpreEP12Fl_Osc_CheckPv
zynaddsubfx-ext-gui:_ZN11OscilEditor23cb_harmonicshiftcounterEP14Fl_Osc_CounterPv
zynaddsubfx-ext-gui:_ZN11OscilEditor4cb_CEP9Fl_ButtonPv
zynaddsubfx-ext-gui:_ZN11OscilEditor4cb_PEP9Fl_ButtonPv
zynaddsubfx-ext-gui:_ZN11OscilEditor4cb_REP9Fl_ButtonPv
zynaddsubfx-ext-gui:_ZN11OscilEditor6cb_UseEP9Fl_ButtonPv
zynaddsubfx-ext-gui:_ZN11OscilEditor7cb_SineEP9Fl_ButtonPv
zynaddsubfx-ext-gui:_ZN11OscilEditor7refreshEv
zynaddsubfx-ext-gui:_ZN11OscilEditor8cb_ClearEP9Fl_ButtonPv
zynaddsubfx-ext-gui:_ZN11OscilEditor8cb_CloseEP9Fl_ButtonPv
zynaddsubfx-ext-gui:_ZN11OscilEditor8cb_bfparEP11Fl_Osc_DialPv
zynaddsubfx-ext-gui:_ZN11OscilEditor9cb_adhrbfEP11Fl_Osc_DialPv
zynaddsubfx-ext-gui:_ZN11OscilEditor9cb_bftypeEP12OGWaveChoicePv
zynaddsubfx-ext-gui:_ZN11OscilEditor9cb_wshparEP11Fl_Osc_DialPv
zynaddsubfx-ext-gui:_ZN11OscilEditorC1EbNSt7__cxx1112basic_stringIcSt11char_traitsIcESaIcEEEP16Fl_Osc_Interface
zynaddsubfx-ext-gui:_ZN11OscilEditorC2EbNSt7__cxx1112basic_stringIcSt11char_traitsIcESaIcEEEP16Fl_Osc_Interface
zynaddsubfx-ext-gui:_ZN11OscilEditorD0Ev
zynaddsubfx-ext-gui:_ZN11OscilEditorD1Ev
zynaddsubfx-ext-gui:_ZN11OscilEditorD2Ev
zynaddsubfx-ext-gui:_ZN11PartKitItem10cb_adcheckEP12Fl_Osc_CheckPv
zynaddsubfx-ext-gui:_ZN11PartKitItem11cb_padcheckEP12Fl_Osc_CheckPv
zynaddsubfx-ext-gui:_ZN11PartKitItem11cb_subcheckEP12Fl_Osc_CheckPv
zynaddsubfx-ext-gui:_ZN11PartKitItem11make_windowEv
zynaddsubfx-ext-gui:_ZN11PartKitItem14cb_labelbuttonEP12Fl_Osc_InputPv
zynaddsubfx-ext-gui:_ZN11PartKitItem15cb_adeditbuttonEP9Fl_ButtonPv
zynaddsubfx-ext-gui:_ZN11PartKitItem15cb_enabledcheckEP12Fl_Osc_CheckPv
zynaddsubfx-ext-gui:_ZN11PartKitItem16cb_padeditbuttonEP9Fl_ButtonPv
zynaddsubfx-ext-gui:_ZN11PartKitItem16cb_subeditbuttonEP9Fl_ButtonPv
zynaddsubfx-ext-gui:_ZN11PartKitItem4cb_MEP13Fl_Osc_ButtonPv
zynaddsubfx-ext-gui:_ZN11PartKitItem4cb_REP9Fl_ButtonPv
zynaddsubfx-ext-gui:_ZN11PartKitItem4cb_mEP13Fl_Osc_ButtonPv
zynaddsubfx-ext-gui:_ZN11PartKitItem4initEiP6PartUI
zynaddsubfx-ext-gui:_ZN11PartKitItem7refreshEv
zynaddsubfx-ext-gui:_ZN11PartKitItemC1EiiiiPKc
zynaddsubfx-ext-gui:_ZN11PartKitItemC2EiiiiPKc
zynaddsubfx-ext-gui:_ZN11PartKitItemD0Ev
zynaddsubfx-ext-gui:_ZN11PartKitItemD1Ev
zynaddsubfx-ext-gui:_ZN11PartKitItemD2Ev
zynaddsubfx-ext-gui:_ZN11PhaseSlider2cbEv
zynaddsubfx-ext-gui:_ZN11PhaseSlider9OSC_valueEi
zynaddsubfx-ext-gui:_ZN11PhaseSlider9set_scopeEP15Fl_Oscilloscope
zynaddsubfx-ext-gui:_ZN11PhaseSliderC1EiiiiPKc
zynaddsubfx-ext-gui:_ZN11PhaseSliderC2EiiiiPKc
zynaddsubfx-ext-gui:_ZN11PointButton4initENSt7__cxx1112basic_stringIcSt11char_traitsIcESaIcEEE
zynaddsubfx-ext-gui:_ZN11PointButton6rebaseENSt7__cxx1112basic_stringIcSt11char_traitsIcESaIcEEE
zynaddsubfx-ext-gui:_ZN11PointButtonC1EiiiiPKc
zynaddsubfx-ext-gui:_ZN11PointButtonC2EiiiiPKc
zynaddsubfx-ext-gui:_ZN11ResonanceUI10cb_InterpPEP13Fl_Osc_ButtonPv
zynaddsubfx-ext-gui:_ZN11ResonanceUI11make_windowEP16Fl_Osc_InterfaceNSt7__cxx1112basic_stringIcSt11char_traitsIcESaIcEEE
zynaddsubfx-ext-gui:_ZN11ResonanceUI11setcbwidgetEP9Fl_WidgetS1_
zynaddsubfx-ext-gui:_ZN11ResonanceUI13cb_centerfreqEP13Fl_Osc_SliderPv
zynaddsubfx-ext-gui:_ZN11ResonanceUI14cb_applybuttonEP9Fl_ButtonPv
zynaddsubfx-ext-gui:_ZN11ResonanceUI14cb_octavesfreqEP13Fl_Osc_SliderPv
zynaddsubfx-ext-gui:_ZN11ResonanceUI15cb_centerfreqvoEP13Fl_Osc_OutputPv
zynaddsubfx-ext-gui:_ZN11ResonanceUI16cb_octavesfreqvoEP13Fl_Osc_OutputPv
zynaddsubfx-ext-gui:_ZN11ResonanceUI18redrawPADnoteApplyEv
zynaddsubfx-ext-gui:_ZN11ResonanceUI4cb_CEP9Fl_ButtonPv
zynaddsubfx-ext-gui:_ZN11ResonanceUI4cb_PEP9Fl_ButtonPv
zynaddsubfx-ext-gui:_ZN11ResonanceUI7cb_RND1EP13Fl_Osc_ButtonPv
zynaddsubfx-ext-gui:_ZN11ResonanceUI7cb_RND2EP13Fl_Osc_ButtonPv
zynaddsubfx-ext-gui:_ZN11ResonanceUI7cb_RND3EP13Fl_Osc_ButtonPv
zynaddsubfx-ext-gui:_ZN11ResonanceUI7cb_ZeroEP13Fl_Osc_ButtonPv
zynaddsubfx-ext-gui:_ZN11ResonanceUI7refreshEv
zynaddsubfx-ext-gui:_ZN11ResonanceUI8cb_CloseEP9Fl_ButtonPv
zynaddsubfx-ext-gui:_ZN11ResonanceUI8cb_maxdbEP13Fl_Osc_SliderPv
zynaddsubfx-ext-gui:_ZN11ResonanceUI9cb_SmoothEP13Fl_Osc_ButtonPv
zynaddsubfx-ext-gui:_ZN11ResonanceUIC1EP16Fl_Osc_InterfaceNSt7__cxx1112basic_stringIcSt11char_traitsIcESaIcEEE
zynaddsubfx-ext-gui:_ZN11ResonanceUIC2EP16Fl_Osc_InterfaceNSt7__cxx1112basic_stringIcSt11char_traitsIcESaIcEEE
zynaddsubfx-ext-gui:_ZN11ResonanceUID0Ev
zynaddsubfx-ext-gui:_ZN11ResonanceUID1Ev
zynaddsubfx-ext-gui:_ZN11ResonanceUID2Ev
zynaddsubfx-ext-gui:_ZN11SimpleEffUI10menu_revp1E
zynaddsubfx-ext-gui:_ZN11SimpleEffUI11menu_distp1E
zynaddsubfx-ext-gui:_ZN11SimpleEffUI11menu_echop1E
zynaddsubfx-ext-gui:_ZN11SimpleEffUI11menu_sympp1E
zynaddsubfx-ext-gui:_ZN11SimpleEffUI12cb_freqdial1EP11Fl_Osc_DialPv
zynaddsubfx-ext-gui:_ZN11SimpleEffUI12cb_gaindial1EP11Fl_Osc_DialPv
zynaddsubfx-ext-gui:_ZN11SimpleEffUI12menu_distp51E
zynaddsubfx-ext-gui:_ZN11SimpleEffUI13menu_chorusp1E
zynaddsubfx-ext-gui:_ZN11SimpleEffUI13menu_phaserp1E
zynaddsubfx-ext-gui:_ZN11SimpleEffUI14cb_typechoice1EP13Fl_Osc_ChoicePv
zynaddsubfx-ext-gui:_ZN11SimpleEffUI14make_eq_windowEv
zynaddsubfx-ext-gui:_ZN11SimpleEffUI15cb_bandcounter1EP10Fl_CounterPv
zynaddsubfx-ext-gui:_ZN11SimpleEffUI16make_echo_windowEv
zynaddsubfx-ext-gui:_ZN11SimpleEffUI16make_null_windowEv
zynaddsubfx-ext-gui:_ZN11SimpleEffUI16menu_typechoice1E
zynaddsubfx-ext-gui:_ZN11SimpleEffUI17cb_stagescounter1EP14Fl_Osc_CounterPv
zynaddsubfx-ext-gui:_ZN11SimpleEffUI18make_chorus_windowEv
zynaddsubfx-ext-gui:_ZN11SimpleEffUI18make_phaser_windowEv
zynaddsubfx-ext-gui:_ZN11SimpleEffUI18make_reverb_windowEv
zynaddsubfx-ext-gui:_ZN11SimpleEffUI20make_alienwah_windowEv
zynaddsubfx-ext-gui:_ZN11SimpleEffUI22make_distortion_windowEv
zynaddsubfx-ext-gui:_ZN11SimpleEffUI23make_sympathetic_windowEv
zynaddsubfx-ext-gui:_ZN11SimpleEffUI25make_dynamicfilter_windowEv
zynaddsubfx-ext-gui:_ZN11SimpleEffUI4initEb
zynaddsubfx-ext-gui:_ZN11SimpleEffUI7refreshEv
zynaddsubfx-ext-gui:_ZN11SimpleEffUI9cb_qdial1EP11Fl_Osc_DialPv
zynaddsubfx-ext-gui:_ZN11SimpleEffUI9menu_awp1E
zynaddsubfx-ext-gui:_ZN11SimpleEffUI9menu_dfp1E
zynaddsubfx-ext-gui:_ZN11SimpleEffUIC1EiiiiPKc
zynaddsubfx-ext-gui:_ZN11SimpleEffUIC2EiiiiPKc
zynaddsubfx-ext-gui:_ZN11SimpleEffUID0Ev
zynaddsubfx-ext-gui:_ZN11SimpleEffUID1Ev
zynaddsubfx-ext-gui:_ZN11SimpleEffUID2Ev
zynaddsubfx-ext-gui:_ZN11VirKeyboard10cb_partrcvEP9Fl_ChoicePv
zynaddsubfx-ext-gui:_ZN11VirKeyboard11make_windowEv
zynaddsubfx-ext-gui:_ZN11VirKeyboard13cb_ControllerEP9Fl_ChoicePv
zynaddsubfx-ext-gui:_ZN11VirKeyboard14releaseallkeysEv
zynaddsubfx-ext-gui:_ZN11VirKeyboard15menu_ControllerE
zynaddsubfx-ext-gui:_ZN11VirKeyboard19cb_pitchwheelrollerEP9Fl_RollerPv
zynaddsubfx-ext-gui:_ZN11VirKeyboard20cb_virkeyboardwindowEP16Fl_Double_WindowPv
zynaddsubfx-ext-gui:_ZN11VirKeyboard4cb_REP9Fl_ButtonPv
zynaddsubfx-ext-gui:_ZN11VirKeyboard4showEv
zynaddsubfx-ext-gui:_ZN11VirKeyboard6cb_OctEP10Fl_CounterPv
zynaddsubfx-ext-gui:_ZN11VirKeyboard6cb_VelEP15Fl_Value_SliderPv
zynaddsubfx-ext-gui:_ZN11VirKeyboard7cb_CvalEP15Fl_Value_SliderPv
zynaddsubfx-ext-gui:_ZN11VirKeyboard7cb_VrndEP11WidgetPDialPv
zynaddsubfx-ext-gui:_ZN11VirKeyboard7cb_qwerEP10Fl_CounterPv
zynaddsubfx-ext-gui:_ZN11VirKeyboard7cb_zxcvEP10Fl_CounterPv
zynaddsubfx-ext-gui:_ZN11VirKeyboard8cb_CloseEP9Fl_ButtonPv
zynaddsubfx-ext-gui:_ZN11VirKeyboardC1EP16Fl_Osc_InterfaceNSt7__cxx1112basic_stringIcSt11char_traitsIcESaIcEEE
zynaddsubfx-ext-gui:_ZN11VirKeyboardC2EP16Fl_Osc_InterfaceNSt7__cxx1112basic_stringIcSt11char_traitsIcESaIcEEE
zynaddsubfx-ext-gui:_ZN11VirKeyboardD1Ev
zynaddsubfx-ext-gui:_ZN11VirKeyboardD2Ev
zynaddsubfx-ext-gui:_ZN11WidgetPDial10pdialcolorEiii
zynaddsubfx-ext-gui:_ZN11WidgetPDial12set_roundingEj
zynaddsubfx-ext-gui:_ZN11WidgetPDial13set_transformEPFffE
zynaddsubfx-ext-gui:_ZN11WidgetPDial4drawEv
zynaddsubfx-ext-gui:_ZN11WidgetPDial6getPosEv
zynaddsubfx-ext-gui:_ZN11WidgetPDial6handleEi
zynaddsubfx-ext-gui:_ZN11WidgetPDial7tooltipEPKc
zynaddsubfx-ext-gui:_ZN11WidgetPDial8resetPosEv
zynaddsubfx-ext-gui:_ZN11WidgetPDialC1EiiiiPKc
zynaddsubfx-ext-gui:_ZN11WidgetPDialC2EiiiiPKc
zynaddsubfx-ext-gui:_ZN11WidgetPDialD0Ev
zynaddsubfx-ext-gui:_ZN11WidgetPDialD1Ev
zynaddsubfx-ext-gui:_ZN11WidgetPDialD2Ev
zynaddsubfx-ext-gui:_ZN12Fl_Osc_Check2cbEv
zynaddsubfx-ext-gui:_ZN12Fl_Osc_Check3_cbEP9Fl_WidgetPv
zynaddsubfx-ext-gui:_ZN12Fl_Osc_Check4initENSt7__cxx1112basic_stringIcSt11char_traitsIcESaIcEEEc
zynaddsubfx-ext-gui:_ZN12Fl_Osc_Check8callbackEPFvP9Fl_WidgetPvES2_
zynaddsubfx-ext-gui:_ZN12Fl_Osc_Check9OSC_valueEb
zynaddsubfx-ext-gui:_ZN12Fl_Osc_CheckC1EiiiiPKc
zynaddsubfx-ext-gui:_ZN12Fl_Osc_CheckC2EiiiiPKc
zynaddsubfx-ext-gui:_ZN12Fl_Osc_CheckD0Ev
zynaddsubfx-ext-gui:_ZN12Fl_Osc_CheckD1Ev
zynaddsubfx-ext-gui:_ZN12Fl_Osc_CheckD2Ev
zynaddsubfx-ext-gui:_ZN12Fl_Osc_DialF2cbEv
zynaddsubfx-ext-gui:_ZN12Fl_Osc_DialF4initEPKc
zynaddsubfx-ext-gui:_ZN12Fl_Osc_DialF6handleEi
zynaddsubfx-ext-gui:_ZN12Fl_Osc_DialF6updateEv
zynaddsubfx-ext-gui:_ZN12Fl_Osc_DialF8callbackEPFvP9Fl_WidgetPvES2_
zynaddsubfx-ext-gui:_ZN12Fl_Osc_DialF9OSC_valueEf
zynaddsubfx-ext-gui:_ZN12Fl_Osc_DialFC1EiiiiPKc
zynaddsubfx-ext-gui:_ZN12Fl_Osc_DialFC2EiiiiPKc
zynaddsubfx-ext-gui:_ZN12Fl_Osc_DialFD0Ev
zynaddsubfx-ext-gui:_ZN12Fl_Osc_DialFD1Ev
zynaddsubfx-ext-gui:_ZN12Fl_Osc_DialFD2Ev
zynaddsubfx-ext-gui:_ZN12Fl_Osc_Group5reextENSt7__cxx1112basic_stringIcSt11char_traitsIcESaIcEEE
zynaddsubfx-ext-gui:_ZN12Fl_Osc_Group6rebaseENSt7__cxx1112basic_stringIcSt11char_traitsIcESaIcEEE
zynaddsubfx-ext-gui:_ZN12Fl_Osc_GroupC1EiiiiPKc
zynaddsubfx-ext-gui:_ZN12Fl_Osc_GroupC2EiiiiPKc
zynaddsubfx-ext-gui:_ZN12Fl_Osc_Input4initEPKc
zynaddsubfx-ext-gui:_ZN12Fl_Osc_Input9OSC_valueEPKc
zynaddsubfx-ext-gui:_ZN12Fl_Osc_InputC1EiiiiPKc
zynaddsubfx-ext-gui:_ZN12Fl_Osc_InputC2EiiiiPKc
zynaddsubfx-ext-gui:_ZN12Fl_Osc_InputD0Ev
zynaddsubfx-ext-gui:_ZN12Fl_Osc_InputD1Ev
zynaddsubfx-ext-gui:_ZN12Fl_Osc_InputD2Ev
zynaddsubfx-ext-gui:_ZN12Fl_Osc_Value2cbEv
zynaddsubfx-ext-gui:_ZN12Fl_Osc_Value4initEPKc
zynaddsubfx-ext-gui:_ZN12Fl_Osc_Value9OSC_valueEf
zynaddsubfx-ext-gui:_ZN12Fl_Osc_ValueC1EiiiiPKc
zynaddsubfx-ext-gui:_ZN12Fl_Osc_ValueC2EiiiiPKc
zynaddsubfx-ext-gui:_ZN12Fl_Osc_ValueD0Ev
zynaddsubfx-ext-gui:_ZN12Fl_Osc_ValueD1Ev
zynaddsubfx-ext-gui:_ZN12Fl_Osc_ValueD2Ev
zynaddsubfx-ext-gui:_ZN12MicrotonalUI10cb_Import1EP9Fl_ButtonPv
zynaddsubfx-ext-gui:_ZN12MicrotonalUI11make_windowEP16Fl_Osc_InterfaceNSt7__cxx1112basic_stringIcSt11char_traitsIcESaIcEEE
zynaddsubfx-ext-gui:_ZN12MicrotonalUI14cb_applybuttonEP9Fl_ButtonPv
zynaddsubfx-ext-gui:_ZN12MicrotonalUI15cb_anotecounterEP14Fl_Osc_CounterPv
zynaddsubfx-ext-gui:_ZN12MicrotonalUI18updateMappingInputEv
zynaddsubfx-ext-gui:_ZN12MicrotonalUI18updateTuningsInputEv
zynaddsubfx-ext-gui:_ZN12MicrotonalUI23cb_mappingenabledbuttonEP12Fl_Osc_CheckPv
zynaddsubfx-ext-gui:_ZN12MicrotonalUI4showEv
zynaddsubfx-ext-gui:_ZN12MicrotonalUI5applyEv
zynaddsubfx-ext-gui:_ZN12MicrotonalUI8cb_CloseEP9Fl_ButtonPv
zynaddsubfx-ext-gui:_ZN12MicrotonalUI9cb_EnableEP12Fl_Osc_CheckPv
zynaddsubfx-ext-gui:_ZN12MicrotonalUI9cb_ImportEP9Fl_ButtonPv
zynaddsubfx-ext-gui:_ZN12MicrotonalUI9cb_InvertEP12Fl_Osc_CheckPv
zynaddsubfx-ext-gui:_ZN12MicrotonalUIC1EP16Fl_Osc_InterfaceNSt7__cxx1112basic_stringIcSt11char_traitsIcESaIcEEE
zynaddsubfx-ext-gui:_ZN12MicrotonalUIC2EP16Fl_Osc_InterfaceNSt7__cxx1112basic_stringIcSt11char_traitsIcESaIcEEE
zynaddsubfx-ext-gui:_ZN12MicrotonalUID1Ev
zynaddsubfx-ext-gui:_ZN12MicrotonalUID2Ev
zynaddsubfx-ext-gui:_ZN12OGWaveChoice2cbEv
zynaddsubfx-ext-gui:_ZN12OGWaveChoice9OSC_valueEi
zynaddsubfx-ext-gui:_ZN12OGWaveChoiceC1EiiiiPKc
zynaddsubfx-ext-gui:_ZN12OGWaveChoiceC2EiiiiPKc
zynaddsubfx-ext-gui:_ZN13Fl_Osc_Button6rebaseENSt7__cxx1112basic_stringIcSt11char_traitsIcESaIcEEE
zynaddsubfx-ext-gui:_ZN13Fl_Osc_Button9OSC_valueEb
zynaddsubfx-ext-gui:_ZN13Fl_Osc_ButtonC1EiiiiPKc
zynaddsubfx-ext-gui:_ZN13Fl_Osc_ButtonC2EiiiiPKc
zynaddsubfx-ext-gui:_ZN13Fl_Osc_ButtonD0Ev
zynaddsubfx-ext-gui:_ZN13Fl_Osc_ButtonD1Ev
zynaddsubfx-ext-gui:_ZN13Fl_Osc_ButtonD2Ev
zynaddsubfx-ext-gui:_ZN13Fl_Osc_Choice2cbEv
zynaddsubfx-ext-gui:_ZN13Fl_Osc_Choice4initENSt7__cxx1112basic_stringIcSt11char_traitsIcESaIcEEEi
zynaddsubfx-ext-gui:_ZN13Fl_Osc_Choice6updateEv
zynaddsubfx-ext-gui:_ZN13Fl_Osc_Choice8callbackEPFvP9Fl_WidgetPvES2_
zynaddsubfx-ext-gui:_ZN13Fl_Osc_Choice9OSC_valueEc
zynaddsubfx-ext-gui:_ZN13Fl_Osc_Choice9OSC_valueEi
zynaddsubfx-ext-gui:_ZN13Fl_Osc_ChoiceC1EiiiiPKc
zynaddsubfx-ext-gui:_ZN13Fl_Osc_ChoiceC2EiiiiPKc
zynaddsubfx-ext-gui:_ZN13Fl_Osc_ChoiceD0Ev
zynaddsubfx-ext-gui:_ZN13Fl_Osc_ChoiceD1Ev
zynaddsubfx-ext-gui:_ZN13Fl_Osc_ChoiceD2Ev
zynaddsubfx-ext-gui:_ZN13Fl_Osc_Output2cbEv
zynaddsubfx-ext-gui:_ZN13Fl_Osc_Output4initEPKc
zynaddsubfx-ext-gui:_ZN13Fl_Osc_Output6updateEv
zynaddsubfx-ext-gui:_ZN13Fl_Osc_Output8callbackEPFvP9Fl_WidgetPvES2_
zynaddsubfx-ext-gui:_ZN13Fl_Osc_Output9OSC_valueEc
zynaddsubfx-ext-gui:_ZN13Fl_Osc_Output9OSC_valueEf
zynaddsubfx-ext-gui:_ZN13Fl_Osc_OutputC1EiiiiPKc
zynaddsubfx-ext-gui:_ZN13Fl_Osc_OutputC2EiiiiPKc
zynaddsubfx-ext-gui:_ZN13Fl_Osc_Slider2cbEv
zynaddsubfx-ext-gui:_ZN13Fl_Osc_Slider3_cbEP9Fl_WidgetPv
zynaddsubfx-ext-gui:_ZN13Fl_Osc_Slider4initENSt7__cxx1112basic_stringIcSt11char_traitsIcESaIcEEEc
zynaddsubfx-ext-gui:_ZN13Fl_Osc_Slider6handleEi
zynaddsubfx-ext-gui:_ZN13Fl_Osc_Slider6handleEiiiii
zynaddsubfx-ext-gui:_ZN13Fl_Osc_Slider6updateEv
zynaddsubfx-ext-gui:_ZN13Fl_Osc_Slider8callbackEPFvP9Fl_WidgetPvES2_
zynaddsubfx-ext-gui:_ZN13Fl_Osc_Slider9OSC_valueEc
zynaddsubfx-ext-gui:_ZN13Fl_Osc_Slider9OSC_valueEf
zynaddsubfx-ext-gui:_ZN13Fl_Osc_Slider9OSC_valueEi
zynaddsubfx-ext-gui:_ZN13Fl_Osc_SliderC1EiiiiPKc
zynaddsubfx-ext-gui:_ZN13Fl_Osc_SliderC2EiiiiPKc
zynaddsubfx-ext-gui:_ZN13Fl_Osc_SliderD0Ev
zynaddsubfx-ext-gui:_ZN13Fl_Osc_SliderD1Ev
zynaddsubfx-ext-gui:_ZN13Fl_Osc_SliderD2Ev
zynaddsubfx-ext-gui:_ZN13Fl_Osc_Widget11oscRegisterEPKc
zynaddsubfx-ext-gui:_ZN13Fl_Osc_Widget14fetch_osc_paneEP9Fl_Widget
zynaddsubfx-ext-gui:_ZN13Fl_Osc_Widget6rebaseENSt7__cxx1112basic_stringIcSt11char_traitsIcESaIcEEE
zynaddsubfx-ext-gui:_ZN13Fl_Osc_Widget6updateEv
zynaddsubfx-ext-gui:_ZN13Fl_Osc_Widget7OSC_rawEPKc
zynaddsubfx-ext-gui:_ZN13Fl_Osc_Widget7oscMoveENSt7__cxx1112basic_stringIcSt11char_traitsIcESaIcEEE
zynaddsubfx-ext-gui:_ZN13Fl_Osc_Widget7oscMoveENSt7__cxx1112basic_stringIcSt11char_traitsIcESaIcEEES5_
zynaddsubfx-ext-gui:_ZN13Fl_Osc_Widget8oscWriteENSt7__cxx1112basic_stringIcSt11char_traitsIcESaIcEEE
zynaddsubfx-ext-gui:_ZN13Fl_Osc_Widget8oscWriteENSt7__cxx1112basic_stringIcSt11char_traitsIcESaIcEEEPKcz
zynaddsubfx-ext-gui:_ZN13Fl_Osc_Widget9OSC_valueEPKc
zynaddsubfx-ext-gui:_ZN13Fl_Osc_Widget9OSC_valueEPKcS1_
zynaddsubfx-ext-gui:_ZN13Fl_Osc_Widget9OSC_valueEb
zynaddsubfx-ext-gui:_ZN13Fl_Osc_Widget9OSC_valueEbPKc
zynaddsubfx-ext-gui:_ZN13Fl_Osc_Widget9OSC_valueEc
zynaddsubfx-ext-gui:_ZN13Fl_Osc_Widget9OSC_valueEcPKc
zynaddsubfx-ext-gui:_ZN13Fl_Osc_Widget9OSC_valueEf
zynaddsubfx-ext-gui:_ZN13Fl_Osc_Widget9OSC_valueEfPKc
zynaddsubfx-ext-gui:_ZN13Fl_Osc_Widget9OSC_valueEi
zynaddsubfx-ext-gui:_ZN13Fl_Osc_Widget9OSC_valueEiPKc
zynaddsubfx-ext-gui:_ZN13Fl_Osc_Widget9OSC_valueEjPv
zynaddsubfx-ext-gui:_ZN13Fl_Osc_Widget9OSC_valueEjPvPKc
zynaddsubfx-ext-gui:_ZN13Fl_Osc_WidgetC1ENSt7__cxx1112basic_stringIcSt11char_traitsIcESaIcEEEP16Fl_Osc_Interface
zynaddsubfx-ext-gui:_ZN13Fl_Osc_WidgetC1EP9Fl_Widget
zynaddsubfx-ext-gui:_ZN13Fl_Osc_WidgetC1Ev
zynaddsubfx-ext-gui:_ZN13Fl_Osc_WidgetC2ENSt7__cxx1112basic_stringIcSt11char_traitsIcESaIcEEEP16Fl_Osc_Interface
zynaddsubfx-ext-gui:_ZN13Fl_Osc_WidgetC2EP9Fl_Widget
zynaddsubfx-ext-gui:_ZN13Fl_Osc_WidgetC2Ev
zynaddsubfx-ext-gui:_ZN13Fl_Osc_WidgetD0Ev
zynaddsubfx-ext-gui:_ZN13Fl_Osc_WidgetD1Ev
zynaddsubfx-ext-gui:_ZN13Fl_Osc_WidgetD2Ev
zynaddsubfx-ext-gui:_ZN13Fl_Osc_Window12update_titleEv
zynaddsubfx-ext-gui:_ZN13Fl_Osc_Window4initEP16Fl_Osc_InterfaceNSt7__cxx1112basic_stringIcSt11char_traitsIcESaIcEEE
zynaddsubfx-ext-gui:_ZN13Fl_Osc_Window6rebaseENSt7__cxx1112basic_stringIcSt11char_traitsIcESaIcEEE
zynaddsubfx-ext-gui:_ZN13Fl_Osc_Window6updateEv
zynaddsubfx-ext-gui:_ZN13Fl_Osc_WindowC1EiiPKc
zynaddsubfx-ext-gui:_ZN13Fl_Osc_WindowC2EiiPKc
zynaddsubfx-ext-gui:_ZN13Fl_Osc_WindowD0Ev
zynaddsubfx-ext-gui:_ZN13Fl_Osc_WindowD1Ev
zynaddsubfx-ext-gui:_ZN13Fl_Osc_WindowD2Ev
zynaddsubfx-ext-gui:_ZN13Oscilharmonic11make_windowEv
zynaddsubfx-ext-gui:_ZN13Oscilharmonic4initEiP8Fl_GroupNSt7__cxx1112basic_stringIcSt11char_traitsIcESaIcEEEP16Fl_Osc_Interface
zynaddsubfx-ext-gui:_ZN13Oscilharmonic6cb_magEP8OGSliderPv
zynaddsubfx-ext-gui:_ZN13Oscilharmonic7refreshEv
zynaddsubfx-ext-gui:_ZN13Oscilharmonic8cb_phaseEP8OGSliderPv
zynaddsubfx-ext-gui:_ZN13OscilharmonicC1EiiiiPKc
zynaddsubfx-ext-gui:_ZN13OscilharmonicC2EiiiiPKc
zynaddsubfx-ext-gui:_ZN13OscilharmonicD0Ev
zynaddsubfx-ext-gui:_ZN13OscilharmonicD1Ev
zynaddsubfx-ext-gui:_ZN13OscilharmonicD2Ev
zynaddsubfx-ext-gui:_ZN13Panellistitem11cb_partnameEP14PartNameButtonPv
zynaddsubfx-ext-gui:_ZN13Panellistitem11make_windowEv
zynaddsubfx-ext-gui:_ZN13Panellistitem14cb_partenabledEP12Fl_Osc_CheckPv
zynaddsubfx-ext-gui:_ZN13Panellistitem4initEiP6BankUIP6PartUI
zynaddsubfx-ext-gui:_ZN13Panellistitem7cb_editEP9Fl_ButtonPv
zynaddsubfx-ext-gui:_ZN13Panellistitem7refreshEv
zynaddsubfx-ext-gui:_ZN13PanellistitemC1EiiiiPKc
zynaddsubfx-ext-gui:_ZN13PanellistitemC2EiiiiPKc
zynaddsubfx-ext-gui:_ZN13PanellistitemD0Ev
zynaddsubfx-ext-gui:_ZN13PanellistitemD1Ev
zynaddsubfx-ext-gui:_ZN13PanellistitemD2Ev
zynaddsubfx-ext-gui:_ZN14Fl_Osc_Counter2cbEv
zynaddsubfx-ext-gui:_ZN14Fl_Osc_Counter4initEPKcci
zynaddsubfx-ext-gui:_ZN14Fl_Osc_Counter6updateEv
zynaddsubfx-ext-gui:_ZN14Fl_Osc_Counter8callbackEPFvP9Fl_WidgetPvES2_
zynaddsubfx-ext-gui:_ZN14Fl_Osc_Counter9OSC_valueEc
zynaddsubfx-ext-gui:_ZN14Fl_Osc_Counter9OSC_valueEi
zynaddsubfx-ext-gui:_ZN14Fl_Osc_CounterC1EiiiiPKc
zynaddsubfx-ext-gui:_ZN14Fl_Osc_CounterC2EiiiiPKc
zynaddsubfx-ext-gui:_ZN14Fl_Osc_TSlider12set_roundingEj
zynaddsubfx-ext-gui:_ZN14Fl_Osc_TSlider13set_transformEPFffE
zynaddsubfx-ext-gui:_ZN14Fl_Osc_TSlider6handleEi
zynaddsubfx-ext-gui:_ZN14Fl_Osc_TSliderC1EiiiiPKc
zynaddsubfx-ext-gui:_ZN14Fl_Osc_TSliderC2EiiiiPKc
zynaddsubfx-ext-gui:_ZN14Fl_Osc_TSliderD0Ev
zynaddsubfx-ext-gui:_ZN14Fl_Osc_TSliderD1Ev
zynaddsubfx-ext-gui:_ZN14Fl_Osc_TSliderD2Ev
zynaddsubfx-ext-gui:_ZN14Fl_Osc_VSlider4drawEv
zynaddsubfx-ext-gui:_ZN14Fl_Osc_VSlider4initENSt7__cxx1112basic_stringIcSt11char_traitsIcESaIcEEEc
zynaddsubfx-ext-gui:_ZN14Fl_Osc_VSlider6handleEi
zynaddsubfx-ext-gui:_ZN14Fl_Osc_VSliderC1EiiiiPKc
zynaddsubfx-ext-gui:_ZN14Fl_Osc_VSliderC2EiiiiPKc
zynaddsubfx-ext-gui:_ZN14Fl_Osc_VSliderD0Ev
zynaddsubfx-ext-gui:_ZN14Fl_Osc_VSliderD1Ev
zynaddsubfx-ext-gui:_ZN14Fl_Osc_VSliderD2Ev
zynaddsubfx-ext-gui:_ZN14PartNameButton9OSC_valueEPKc
zynaddsubfx-ext-gui:_ZN14PartNameButtonC1EiiiiPKc
zynaddsubfx-ext-gui:_ZN14PartNameButtonC2EiiiiPKc
zynaddsubfx-ext-gui:_ZN14PartSysEffSend11make_windowEv
zynaddsubfx-ext-gui:_ZN14PartSysEffSend4initEii
zynaddsubfx-ext-gui:_ZN14PartSysEffSend6rebaseEi
zynaddsubfx-ext-gui:_ZN14PartSysEffSendC1EiiiiPKc
zynaddsubfx-ext-gui:_ZN14PartSysEffSendC2EiiiiPKc
zynaddsubfx-ext-gui:_ZN14PartSysEffSendD0Ev
zynaddsubfx-ext-gui:_ZN14PartSysEffSendD1Ev
zynaddsubfx-ext-gui:_ZN14PartSysEffSendD2Ev
zynaddsubfx-ext-gui:_ZN15ADvoicelistitem11make_windowEv
zynaddsubfx-ext-gui:_ZN15ADvoicelistitem11refreshlistEv
zynaddsubfx-ext-gui:_ZN15ADvoicelistitem14cb_voicedetuneEP13Fl_Osc_SliderPv
zynaddsubfx-ext-gui:_ZN15ADvoicelistitem15cb_voiceenabledEP12Fl_Osc_CheckPv
zynaddsubfx-ext-gui:_ZN15ADvoicelistitem4initEiNSt7__cxx1112basic_stringIcSt11char_traitsIcESaIcEEEP16Fl_Osc_Interface
zynaddsubfx-ext-gui:_ZN15ADvoicelistitem7cb_editEP9Fl_ButtonPv
zynaddsubfx-ext-gui:_ZN15ADvoicelistitemC1EiiiiPKc
zynaddsubfx-ext-gui:_ZN15ADvoicelistitemC2EiiiiPKc
zynaddsubfx-ext-gui:_ZN15ADvoicelistitemD0Ev
zynaddsubfx-ext-gui:_ZN15ADvoicelistitemD1Ev
zynaddsubfx-ext-gui:_ZN15ADvoicelistitemD2Ev
zynaddsubfx-ext-gui:_ZN15Fl_Osc_ListView4initEPKc
zynaddsubfx-ext-gui:_ZN15Fl_Osc_ListView6appendENSt7__cxx1112basic_stringIcSt11char_traitsIcESaIcEEE
zynaddsubfx-ext-gui:_ZN15Fl_Osc_ListView6doMoveEii
zynaddsubfx-ext-gui:_ZN15Fl_Osc_ListView6insertENSt7__cxx1112basic_stringIcSt11char_traitsIcESaIcEEEi
zynaddsubfx-ext-gui:_ZN15Fl_Osc_ListView6updateEv
zynaddsubfx-ext-gui:_ZN15Fl_Osc_ListView8doRemoveEi
zynaddsubfx-ext-gui:_ZN15Fl_Osc_ListView8doUpdateESt6vectorINSt7__cxx1112basic_stringIcSt11char_traitsIcESaIcEEESaIS6_EE
zynaddsubfx-ext-gui:_ZN15Fl_Osc_ListViewC1EiiiiPKc
zynaddsubfx-ext-gui:_ZN15Fl_Osc_ListViewC2EiiiiPKc
zynaddsubfx-ext-gui:_ZN15Fl_Osc_ListViewD0Ev
zynaddsubfx-ext-gui:_ZN15Fl_Osc_ListViewD1Ev
zynaddsubfx-ext-gui:_ZN15Fl_Osc_ListViewD2Ev
zynaddsubfx-ext-gui:_ZN15SUBnoteharmonic11make_windowEv
zynaddsubfx-ext-gui:_ZN15SUBnoteharmonic4initEi
zynaddsubfx-ext-gui:_ZN15SUBnoteharmonic7refreshEv
zynaddsubfx-ext-gui:_ZN15SUBnoteharmonicC1EiiiiPKc
zynaddsubfx-ext-gui:_ZN15SUBnoteharmonicC2EiiiiPKc
zynaddsubfx-ext-gui:_ZN15SUBnoteharmonicD0Ev
zynaddsubfx-ext-gui:_ZN15SUBnoteharmonicD1Ev
zynaddsubfx-ext-gui:_ZN15SUBnoteharmonicD2Ev
zynaddsubfx-ext-gui:_ZN16BankViewControls4modeEi
zynaddsubfx-ext-gui:_ZN16BankViewControlsC1EiiiiPKc
zynaddsubfx-ext-gui:_ZN16BankViewControlsC2EiiiiPKc
zynaddsubfx-ext-gui:_ZN16EnvelopeFreeEdit4drawEv
zynaddsubfx-ext-gui:_ZN16EnvelopeFreeEdit4initEv
zynaddsubfx-ext-gui:_ZN16EnvelopeFreeEdit6handleEi
zynaddsubfx-ext-gui:_ZN16EnvelopeFreeEdit6rebaseENSt7__cxx1112basic_stringIcSt11char_traitsIcESaIcEEE
zynaddsubfx-ext-gui:_ZN16EnvelopeFreeEdit6updateEv
zynaddsubfx-ext-gui:_ZN16EnvelopeFreeEdit7OSC_rawEPKc
zynaddsubfx-ext-gui:_ZN16EnvelopeFreeEdit7setpairEP6Fl_Box
zynaddsubfx-ext-gui:_ZN16EnvelopeFreeEditC1EiiiiPKc
zynaddsubfx-ext-gui:_ZN16EnvelopeFreeEditC2EiiiiPKc
zynaddsubfx-ext-gui:_ZN18Fl_Resonance_Graph11setcbwidgetEP9Fl_WidgetS1_
zynaddsubfx-ext-gui:_ZN18Fl_Resonance_Graph14draw_freq_lineEfi
zynaddsubfx-ext-gui:_ZN18Fl_Resonance_Graph4drawEv
zynaddsubfx-ext-gui:_ZN18Fl_Resonance_Graph4initEP15Fl_Value_OutputS1_
zynaddsubfx-ext-gui:_ZN18Fl_Resonance_Graph6handleEi
zynaddsubfx-ext-gui:_ZN18Fl_Resonance_Graph6updateEv
zynaddsubfx-ext-gui:_ZN18Fl_Resonance_Graph7OSC_rawEPKc
zynaddsubfx-ext-gui:_ZN18Fl_Resonance_Graph8setPointEii
zynaddsubfx-ext-gui:_ZN18Fl_Resonance_GraphC1EiiiiPKc
zynaddsubfx-ext-gui:_ZN18Fl_Resonance_GraphC2EiiiiPKc
zynaddsubfx-ext-gui:_ZN18Fl_Resonance_GraphD0Ev
zynaddsubfx-ext-gui:_ZN18Fl_Resonance_GraphD1Ev
zynaddsubfx-ext-gui:_ZN18Fl_Resonance_GraphD2Ev
zynaddsubfx-ext-gui:_ZN18FormantFilterGraph10getfreqposEf
zynaddsubfx-ext-gui:_ZN18FormantFilterGraph11getformantqEh
zynaddsubfx-ext-gui:_ZN18FormantFilterGraph13getcenterfreqEv
zynaddsubfx-ext-gui:_ZN18FormantFilterGraph13getformantampEh
zynaddsubfx-ext-gui:_ZN18FormantFilterGraph14draw_freq_lineEfi
zynaddsubfx-ext-gui:_ZN18FormantFilterGraph14formantfilterHEiiPf
zynaddsubfx-ext-gui:_ZN18FormantFilterGraph14getformantfreqEh
zynaddsubfx-ext-gui:_ZN18FormantFilterGraph14getoctavesfreqEv
zynaddsubfx-ext-gui:_ZN18FormantFilterGraph4drawEv
zynaddsubfx-ext-gui:_ZN18FormantFilterGraph4getqEv
zynaddsubfx-ext-gui:_ZN18FormantFilterGraph4initEPiS0_
zynaddsubfx-ext-gui:_ZN18FormantFilterGraph6rebaseENSt7__cxx1112basic_stringIcSt11char_traitsIcESaIcEEE
zynaddsubfx-ext-gui:_ZN18FormantFilterGraph6updateEv
zynaddsubfx-ext-gui:_ZN18FormantFilterGraph7getgainEv
zynaddsubfx-ext-gui:_ZN18FormantFilterGraph8getfreqxEf
zynaddsubfx-ext-gui:_ZN18FormantFilterGraph9OSC_valueEiPKc
zynaddsubfx-ext-gui:_ZN18FormantFilterGraph9OSC_valueEjPv
zynaddsubfx-ext-gui:_ZN18FormantFilterGraphC1EiiiiPKc
zynaddsubfx-ext-gui:_ZN18FormantFilterGraphC2EiiiiPKc
zynaddsubfx-ext-gui:_ZN18FormantFilterGraphD0Ev
zynaddsubfx-ext-gui:_ZN18FormantFilterGraphD1Ev
zynaddsubfx-ext-gui:_ZN18FormantFilterGraphD2Ev
zynaddsubfx-ext-gui:_ZN20Fl_Osc_Numeric_Input16numeric_callbackEP9Fl_Widget
zynaddsubfx-ext-gui:_ZN20Fl_Osc_Numeric_Input4initEPKc
zynaddsubfx-ext-gui:_ZN20Fl_Osc_Numeric_Input9OSC_valueEf
zynaddsubfx-ext-gui:_ZN20Fl_Osc_Numeric_Input9OSC_valueEi
zynaddsubfx-ext-gui:_ZN20Fl_Osc_Numeric_InputC1EiiiiPKc
zynaddsubfx-ext-gui:_ZN20Fl_Osc_Numeric_InputC2EiiiiPKc
zynaddsubfx-ext-gui:_ZN20Fl_Osc_Numeric_InputD0Ev
zynaddsubfx-ext-gui:_ZN20Fl_Osc_Numeric_InputD1Ev
zynaddsubfx-ext-gui:_ZN20Fl_Osc_Numeric_InputD2Ev
zynaddsubfx-ext-gui:_ZN3GUI15genOscInterfaceEPN3zyn10MiddleWareE
zynaddsubfx-ext-gui:_ZN3GUI6tickUiEPv
zynaddsubfx-ext-gui:_ZN3GUI7raiseUiEPvPKc
zynaddsubfx-ext-gui:_ZN3GUI7raiseUiEPvPKcS2_z
zynaddsubfx-ext-gui:_ZN3GUI8createUiEP16Fl_Osc_InterfacePv
zynaddsubfx-ext-gui:_ZN3GUI9destroyUiEPv
zynaddsubfx-ext-gui:_ZN3zyn10fileexistsEPKc
zynaddsubfx-ext-gui:_ZN3zyn8isPluginE
zynaddsubfx-ext-gui:_ZN5EffUI10menu_distpE
zynaddsubfx-ext-gui:_ZN5EffUI10menu_echopE
zynaddsubfx-ext-gui:_ZN5EffUI10menu_symppE
zynaddsubfx-ext-gui:_ZN5EffUI11cb_freqdialEP11Fl_Osc_DialPv
zynaddsubfx-ext-gui:_ZN5EffUI11cb_gaindialEP11Fl_Osc_DialPv
zynaddsubfx-ext-gui:_ZN5EffUI11menu_distp5E
zynaddsubfx-ext-gui:_ZN5EffUI11menu_revp10E
zynaddsubfx-ext-gui:_ZN5EffUI12menu_choruspE
zynaddsubfx-ext-gui:_ZN5EffUI12menu_phaserpE
zynaddsubfx-ext-gui:_ZN5EffUI13cb_typechoiceEP13Fl_Osc_ChoicePv
zynaddsubfx-ext-gui:_ZN5EffUI13menu_chorusp4E
zynaddsubfx-ext-gui:_ZN5EffUI13menu_phaserp4E
zynaddsubfx-ext-gui:_ZN5EffUI14cb_bandcounterEP10Fl_CounterPv
zynaddsubfx-ext-gui:_ZN5EffUI14make_eq_windowEv
zynaddsubfx-ext-gui:_ZN5EffUI15menu_typechoiceE
zynaddsubfx-ext-gui:_ZN5EffUI16cb_stagescounterEP14Fl_Osc_CounterPv
zynaddsubfx-ext-gui:_ZN5EffUI16make_echo_windowEv
zynaddsubfx-ext-gui:_ZN5EffUI16make_null_windowEv
zynaddsubfx-ext-gui:_ZN5EffUI18make_chorus_windowEv
zynaddsubfx-ext-gui:_ZN5EffUI18make_filter_windowEv
zynaddsubfx-ext-gui:_ZN5EffUI18make_phaser_windowEv
zynaddsubfx-ext-gui:_ZN5EffUI18make_reverb_windowEv
zynaddsubfx-ext-gui:_ZN5EffUI20make_alienwah_windowEv
zynaddsubfx-ext-gui:_ZN5EffUI22make_distortion_windowEv
zynaddsubfx-ext-gui:_ZN5EffUI23make_sympathetic_windowEv
zynaddsubfx-ext-gui:_ZN5EffUI25make_dynamicfilter_windowEv
zynaddsubfx-ext-gui:_ZN5EffUI4initEb
zynaddsubfx-ext-gui:_ZN5EffUI7cb_eqp0EP11Fl_Osc_DialPv
zynaddsubfx-ext-gui:_ZN5EffUI7refreshEv
zynaddsubfx-ext-gui:_ZN5EffUI8cb_CloseEP9Fl_ButtonPv
zynaddsubfx-ext-gui:_ZN5EffUI8cb_qdialEP11Fl_Osc_DialPv
zynaddsubfx-ext-gui:_ZN5EffUI8menu_awpE
zynaddsubfx-ext-gui:_ZN5EffUI8menu_dfpE
zynaddsubfx-ext-gui:_ZN5EffUI9cb_FilterEP9Fl_ButtonPv
zynaddsubfx-ext-gui:_ZN5EffUI9cb_revp10EP13Fl_Osc_ChoicePv
zynaddsubfx-ext-gui:_ZN5EffUI9menu_awp4E
zynaddsubfx-ext-gui:_ZN5EffUI9menu_dfp4E
zynaddsubfx-ext-gui:_ZN5EffUI9menu_revpE
zynaddsubfx-ext-gui:_ZN5EffUIC1EiiiiPKc
zynaddsubfx-ext-gui:_ZN5EffUIC2EiiiiPKc
zynaddsubfx-ext-gui:_ZN5EffUID0Ev
zynaddsubfx-ext-gui:_ZN5EffUID1Ev
zynaddsubfx-ext-gui:_ZN5EffUID2Ev
zynaddsubfx-ext-gui:_ZN5LFOUI11make_windowEv
zynaddsubfx-ext-gui:_ZN5LFOUI12menu_LFOtypeE
zynaddsubfx-ext-gui:_ZN5LFOUI4cb_CEP9Fl_ButtonPv
zynaddsubfx-ext-gui:_ZN5LFOUI4cb_PEP9Fl_ButtonPv
zynaddsubfx-ext-gui:_ZN5LFOUI4initEP16Fl_Osc_InterfaceNSt7__cxx1112basic_stringIcSt11char_traitsIcESaIcEEES7_
zynaddsubfx-ext-gui:_ZN5LFOUI7refreshEv
zynaddsubfx-ext-gui:_ZN5LFOUIC1EiiiiPKc
zynaddsubfx-ext-gui:_ZN5LFOUIC2EiiiiPKc
zynaddsubfx-ext-gui:_ZN5LFOUID0Ev
zynaddsubfx-ext-gui:_ZN5LFOUID1Ev
zynaddsubfx-ext-gui:_ZN5LFOUID2Ev
zynaddsubfx-ext-gui:_ZN5NioUI12midiCallbackEP9Fl_Widget
zynaddsubfx-ext-gui:_ZN5NioUI13audioCallbackEP9Fl_Widget
zynaddsubfx-ext-gui:_ZN5NioUI7refreshEv
zynaddsubfx-ext-gui:_ZN5NioUIC1EP16Fl_Osc_Interface
zynaddsubfx-ext-gui:_ZN5NioUIC2EP16Fl_Osc_Interface
zynaddsubfx-ext-gui:_ZN5NioUID0Ev
zynaddsubfx-ext-gui:_ZN5NioUID1Ev
zynaddsubfx-ext-gui:_ZN5NioUID2Ev
zynaddsubfx-ext-gui:_ZN5rtosc10ClonePortsC1ERKNS_5PortsESt16initializer_listINS_9ClonePortEE
zynaddsubfx-ext-gui:_ZN5rtosc10ClonePortsC2ERKNS_5PortsESt16initializer_listINS_9ClonePortEE
zynaddsubfx-ext-gui:_ZN5rtosc10MergePortsC1ESt16initializer_listIPKNS_5PortsEE
zynaddsubfx-ext-gui:_ZN5rtosc10MergePortsC2ESt16initializer_listIPKNS_5PortsEE
zynaddsubfx-ext-gui:_ZN5rtosc10ThreadLink10writeArrayEPKcS2_PK11rtosc_arg_t
zynaddsubfx-ext-gui:_ZN5rtosc10ThreadLink14read_lookaheadEv
zynaddsubfx-ext-gui:_ZN5rtosc10ThreadLink4readEb
zynaddsubfx-ext-gui:_ZN5rtosc10ThreadLink4readEv
zynaddsubfx-ext-gui:_ZN5rtosc10ThreadLink5writeEPKcS2_z
zynaddsubfx-ext-gui:_ZN5rtosc10ThreadLink6bufferEv
zynaddsubfx-ext-gui:_ZN5rtosc10ThreadLink9raw_writeEPKc
zynaddsubfx-ext-gui:_ZN5rtosc10ThreadLinkC1Emm
zynaddsubfx-ext-gui:_ZN5rtosc10ThreadLinkC2Emm
zynaddsubfx-ext-gui:_ZN5rtosc10ThreadLinkD1Ev
zynaddsubfx-ext-gui:_ZN5rtosc10ThreadLinkD2Ev
zynaddsubfx-ext-gui:_ZN5rtosc10walk_portsEPKNS_5PortsEPcmPvPFvPKNS_4PortEPKcS9_RS1_S4_S4_EbS4_b
zynaddsubfx-ext-gui:_ZN5rtosc11path_searchERKNS_5PortsEPKcS4_PcmP11rtosc_arg_tmNS_16path_search_optsEb
zynaddsubfx-ext-gui:_ZN5rtosc11path_searchERKNS_5PortsEPKcmPcmNS_16path_search_optsEb
zynaddsubfx-ext-gui:_ZN5rtosc12map_arg_valsEP15rtosc_arg_val_tmNS_4Port13MetaContainerE
zynaddsubfx-ext-gui:_ZN5rtosc17enum_key_from_msgENS_4Port13MetaContainerEPKc
zynaddsubfx-ext-gui:_ZN5rtosc21canonicalize_arg_valsEP15rtosc_arg_val_tmPKcNS_4Port13MetaContainerE
zynaddsubfx-ext-gui:_ZN5rtosc4Port12MetaIteratorC1EPKc
zynaddsubfx-ext-gui:_ZN5rtosc4Port12MetaIteratorC2EPKc
zynaddsubfx-ext-gui:_ZN5rtosc4Port12MetaIteratorppEv
zynaddsubfx-ext-gui:_ZN5rtosc4Port13MetaContainerC1EPKc
zynaddsubfx-ext-gui:_ZN5rtosc4Port13MetaContainerC2EPKc
zynaddsubfx-ext-gui:_ZN5rtosc5Ports12collapsePathEPc
zynaddsubfx-ext-gui:_ZN5rtosc5Ports12refreshMagicEv
zynaddsubfx-ext-gui:_ZN5rtosc5PortsC1ESt16initializer_listINS_4PortEE
zynaddsubfx-ext-gui:_ZN5rtosc5PortsC2ESt16initializer_listINS_4PortEE
zynaddsubfx-ext-gui:_ZN5rtosc5PortsD1Ev
zynaddsubfx-ext-gui:_ZN5rtosc5PortsD2Ev
zynaddsubfx-ext-gui:_ZN5rtosc6RtData10chainArrayEPKcS2_P11rtosc_arg_t
zynaddsubfx-ext-gui:_ZN5rtosc6RtData10push_indexEi
zynaddsubfx-ext-gui:_ZN5rtosc6RtData10replyArrayEPKcS2_P11rtosc_arg_t
zynaddsubfx-ext-gui:_ZN5rtosc6RtData14broadcastArrayEPKcS2_P11rtosc_arg_t
zynaddsubfx-ext-gui:_ZN5rtosc6RtData5chainEPKc
zynaddsubfx-ext-gui:_ZN5rtosc6RtData5chainEPKcS2_z
zynaddsubfx-ext-gui:_ZN5rtosc6RtData5replyEPKc
zynaddsubfx-ext-gui:_ZN5rtosc6RtData5replyEPKcS2_z
zynaddsubfx-ext-gui:_ZN5rtosc6RtData7forwardEPKc
zynaddsubfx-ext-gui:_ZN5rtosc6RtData9broadcastEPKc
zynaddsubfx-ext-gui:_ZN5rtosc6RtData9broadcastEPKcS2_z
zynaddsubfx-ext-gui:_ZN5rtosc6RtData9pop_indexEv
zynaddsubfx-ext-gui:_ZN5rtosc6RtDataC1Ev
zynaddsubfx-ext-gui:_ZN5rtosc6RtDataC2Ev
zynaddsubfx-ext-gui:_ZN5rtosc7helpers22get_value_from_runtimeEPvRKNS_4PortEmPcPKcmmP15rtosc_arg_val_tPSt6vectorISA_IcSaIcEESaISC_EE
zynaddsubfx-ext-gui:_ZN5rtosc7helpers22get_value_from_runtimeEPvRKNS_5PortsEmPcS5_mi
zynaddsubfx-ext-gui:_ZN5rtosc8enum_keyENS_4Port13MetaContainerEPKc
zynaddsubfx-ext-gui:_ZN5rtosclsERSoRNS_15OscDocFormatterE
zynaddsubfx-ext-gui:_ZN6BankUI10cb_RefreshEP9Fl_ButtonPv
zynaddsubfx-ext-gui:_ZN6BankUI11cb_banklistEP8BankListPv
zynaddsubfx-ext-gui:_ZN6BankUI11make_windowEv
zynaddsubfx-ext-gui:_ZN6BankUI13update_searchENSt7__cxx1112basic_stringIcSt11char_traitsIcESaIcEEE
zynaddsubfx-ext-gui:_ZN6BankUI16rescan_for_banksEv
zynaddsubfx-ext-gui:_ZN6BankUI17refreshmainwindowEv
zynaddsubfx-ext-gui:_ZN6BankUI4hideEv
zynaddsubfx-ext-gui:_ZN6BankUI4initEP11Fl_Valuator
zynaddsubfx-ext-gui:_ZN6BankUI4showEv
zynaddsubfx-ext-gui:_ZN6BankUI6cb_NewEP9Fl_ButtonPv
zynaddsubfx-ext-gui:_ZN6BankUI7processEv
zynaddsubfx-ext-gui:_ZN6BankUI8cb_CloseEP9Fl_ButtonPv
zynaddsubfx-ext-gui:_ZN6BankUI9cb_SearchEP8Fl_InputPv
zynaddsubfx-ext-gui:_ZN6BankUIC1EPiP16Fl_Osc_Interface
zynaddsubfx-ext-gui:_ZN6BankUIC2EPiP16Fl_Osc_Interface
zynaddsubfx-ext-gui:_ZN6BankUID0Ev
zynaddsubfx-ext-gui:_ZN6BankUID1Ev
zynaddsubfx-ext-gui:_ZN6BankUID2Ev
zynaddsubfx-ext-gui:_ZN6PartUI10cb_EffectsEP9Fl_ButtonPv
zynaddsubfx-ext-gui:_ZN6PartUI10cb_SustainEP12Fl_Osc_CheckPv
zynaddsubfx-ext-gui:_ZN6PartUI10cb_benddirEP15Fl_Check_ButtonPv
zynaddsubfx-ext-gui:_ZN6PartUI11cb_CommentsEP9Fl_ButtonPv
zynaddsubfx-ext-gui:_ZN6PartUI11cb_Effects1EP9Fl_ButtonPv
zynaddsubfx-ext-gui:_ZN6PartUI11cb_bendspltEP12Fl_Osc_CheckPv
zynaddsubfx-ext-gui:_ZN6PartUI11make_windowEv
zynaddsubfx-ext-gui:_ZN6PartUI12cb_Comments1EP12Fl_Osc_InputPv
zynaddsubfx-ext-gui:_ZN6PartUI13cb_insefftypeEP13Fl_Osc_ChoicePv
zynaddsubfx-ext-gui:_ZN6PartUI14cb_ControllersEP9Fl_ButtonPv
zynaddsubfx-ext-gui:_ZN6PartUI14cb_maxkcounterEP14Fl_Osc_CounterPv
zynaddsubfx-ext-gui:_ZN6PartUI14cb_minkcounterEP14Fl_Osc_CounterPv
zynaddsubfx-ext-gui:_ZN6PartUI14cleanuplastkitEi
zynaddsubfx-ext-gui:_ZN6PartUI14showparametersEii
zynaddsubfx-ext-gui:_ZN6PartUI15cb_sendtochoiceEP13Fl_Osc_ChoicePv
zynaddsubfx-ext-gui:_ZN6PartUI15menu_insefftypeE
zynaddsubfx-ext-gui:_ZN6PartUI15showvoiceparamsEib
zynaddsubfx-ext-gui:_ZN6PartUI16cb_adeditbutton1EP9Fl_ButtonPv
zynaddsubfx-ext-gui:_ZN6PartUI17cb_padeditbutton1EP9Fl_ButtonPv
zynaddsubfx-ext-gui:_ZN6PartUI17cb_subeditbutton1EP9Fl_ButtonPv
zynaddsubfx-ext-gui:_ZN6PartUI17menu_sendtochoiceE
zynaddsubfx-ext-gui:_ZN6PartUI18cb_inseffnocounterEP10Fl_CounterPv
zynaddsubfx-ext-gui:_ZN6PartUI19cb_partenablebuttonEP12Fl_Osc_CheckPv
zynaddsubfx-ext-gui:_ZN6PartUI20cb_adsynenabledcheckEP12Fl_Osc_CheckPv
zynaddsubfx-ext-gui:_ZN6PartUI21cb_padsynenabledcheckEP12Fl_Osc_CheckPv
zynaddsubfx-ext-gui:_ZN6PartUI21cb_subsynenabledcheckEP12Fl_Osc_CheckPv
zynaddsubfx-ext-gui:_ZN6PartUI4cb_CEP9Fl_ButtonPv
zynaddsubfx-ext-gui:_ZN6PartUI4cb_PEP9Fl_ButtonPv
zynaddsubfx-ext-gui:_ZN6PartUI4initENSt7__cxx1112basic_stringIcSt11char_traitsIcESaIcEEEiP6BankUIS5_P16Fl_Osc_Interface
zynaddsubfx-ext-gui:_ZN6PartUI5cb_M1EP13Fl_Osc_ButtonPv
zynaddsubfx-ext-gui:_ZN6PartUI5cb_R1EP13Fl_Osc_ButtonPv
zynaddsubfx-ext-gui:_ZN6PartUI5cb_m1EP13Fl_Osc_ButtonPv
zynaddsubfx-ext-gui:_ZN6PartUI6cb_KitEP9Fl_ButtonPv
zynaddsubfx-ext-gui:_ZN6PartUI6rebaseENSt7__cxx1112basic_stringIcSt11char_traitsIcESaIcEEE
zynaddsubfx-ext-gui:_ZN6PartUI7cb_EditEP9Fl_ButtonPv
zynaddsubfx-ext-gui:_ZN6PartUI7cb_ModeEP13Fl_Osc_ChoicePv
zynaddsubfx-ext-gui:_ZN6PartUI8cb_CloseEP9Fl_ButtonPv
zynaddsubfx-ext-gui:_ZN6PartUI8cb_GrandEP14PartNameButtonPv
zynaddsubfx-ext-gui:_ZN6PartUI8cb_ResetEP13Fl_Osc_ButtonPv
zynaddsubfx-ext-gui:_ZN6PartUI9cb_AuthorEP12Fl_Osc_InputPv
zynaddsubfx-ext-gui:_ZN6PartUI9cb_Close1EP9Fl_ButtonPv
zynaddsubfx-ext-gui:_ZN6PartUI9cb_Close2EP9Fl_ButtonPv
zynaddsubfx-ext-gui:_ZN6PartUI9cb_Close3EP9Fl_ButtonPv
zynaddsubfx-ext-gui:_ZN6PartUI9cb_ProprtEP12Fl_Osc_CheckPv
zynaddsubfx-ext-gui:_ZN6PartUI9menu_ModeE
zynaddsubfx-ext-gui:_ZN6PartUI9menu_TypeE
zynaddsubfx-ext-gui:_ZN6PartUIC1EiiiiPKc
zynaddsubfx-ext-gui:_ZN6PartUIC2EiiiiPKc
zynaddsubfx-ext-gui:_ZN6PartUID0Ev
zynaddsubfx-ext-gui:_ZN6PartUID1Ev
zynaddsubfx-ext-gui:_ZN6PartUID2Ev
zynaddsubfx-ext-gui:_ZN6TipWin12set_roundingEj
zynaddsubfx-ext-gui:_ZN6TipWin4drawEv
zynaddsubfx-ext-gui:_ZN6TipWin6redrawEv
zynaddsubfx-ext-gui:_ZN6TipWin7setTextEPKc
zynaddsubfx-ext-gui:_ZN6TipWin8showTextEv
zynaddsubfx-ext-gui:_ZN6TipWin9showValueEf
zynaddsubfx-ext-gui:_ZN6TipWinC1Ev
zynaddsubfx-ext-gui:_ZN6TipWinC2Ev
zynaddsubfx-ext-gui:_ZN7VirKeys10releasekeyEii
zynaddsubfx-ext-gui:_ZN7VirKeys14releaseallkeysEi
zynaddsubfx-ext-gui:_ZN7VirKeys4drawEv
zynaddsubfx-ext-gui:_ZN7VirKeys4initEP16Fl_Osc_InterfaceNSt7__cxx1112basic_stringIcSt11char_traitsIcESaIcEEE
zynaddsubfx-ext-gui:_ZN7VirKeys6handleEi
zynaddsubfx-ext-gui:_ZN7VirKeys8presskeyEiii
zynaddsubfx-ext-gui:_ZN7VirKeys9OSC_valueEi
zynaddsubfx-ext-gui:_ZN7VirKeysC1EiiiiPKc
zynaddsubfx-ext-gui:_ZN7VirKeysC2EiiiiPKc
zynaddsubfx-ext-gui:_ZN7uiPorts5portsE
zynaddsubfx-ext-gui:_ZN8ADnoteUI11make_windowEv
zynaddsubfx-ext-gui:_ZN8ADnoteUI12cb_ResonanceEP9Fl_ButtonPv
zynaddsubfx-ext-gui:_ZN8ADnoteUI13cb_detunetypeEP13Fl_Osc_ChoicePv
zynaddsubfx-ext-gui:_ZN8ADnoteUI22cb_currentvoicecounterEP10Fl_CounterPv
zynaddsubfx-ext-gui:_ZN8ADnoteUI4cb_CEP9Fl_ButtonPv
zynaddsubfx-ext-gui:_ZN8ADnoteUI4cb_PEP9Fl_ButtonPv
zynaddsubfx-ext-gui:_ZN8ADnoteUI5cb_C1EP9Fl_ButtonPv
zynaddsubfx-ext-gui:_ZN8ADnoteUI5cb_P1EP9Fl_ButtonPv
zynaddsubfx-ext-gui:_ZN8ADnoteUI7cb_EditEP9Fl_ButtonPv
zynaddsubfx-ext-gui:_ZN8ADnoteUI7cb_ShowEP9Fl_ButtonPv
zynaddsubfx-ext-gui:_ZN8ADnoteUI7refreshEv
zynaddsubfx-ext-gui:_ZN8ADnoteUI8cb_CloseEP9Fl_ButtonPv
zynaddsubfx-ext-gui:_ZN8ADnoteUI8cb_Show1EP9Fl_ButtonPv
zynaddsubfx-ext-gui:_ZN8ADnoteUI8cb_Show2EP9Fl_ButtonPv
zynaddsubfx-ext-gui:_ZN8ADnoteUI8cb_Show3EP9Fl_ButtonPv
zynaddsubfx-ext-gui:_ZN8ADnoteUI8cb_relBWEP11Fl_Osc_DialPv
zynaddsubfx-ext-gui:_ZN8ADnoteUI9cb_Close1EP9Fl_ButtonPv
zynaddsubfx-ext-gui:_ZN8ADnoteUI9cb_Close2EP9Fl_ButtonPv
zynaddsubfx-ext-gui:_ZN8ADnoteUI9cb_detuneEP13Fl_Osc_SliderPv
zynaddsubfx-ext-gui:_ZN8ADnoteUIC1ENSt7__cxx1112basic_stringIcSt11char_traitsIcESaIcEEEP16Fl_Osc_Interface
zynaddsubfx-ext-gui:_ZN8ADnoteUIC2ENSt7__cxx1112basic_stringIcSt11char_traitsIcESaIcEEEP16Fl_Osc_Interface
zynaddsubfx-ext-gui:_ZN8ADnoteUID0Ev
zynaddsubfx-ext-gui:_ZN8ADnoteUID1Ev
zynaddsubfx-ext-gui:_ZN8ADnoteUID2Ev
zynaddsubfx-ext-gui:_ZN8BankList4initENSt7__cxx1112basic_stringIcSt11char_traitsIcESaIcEEE
zynaddsubfx-ext-gui:_ZN8BankList7OSC_rawEPKc
zynaddsubfx-ext-gui:_ZN8BankListC1EiiiiPKc
zynaddsubfx-ext-gui:_ZN8BankListC2EiiiiPKc
zynaddsubfx-ext-gui:_ZN8BankSlot4initEiP8BankView
zynaddsubfx-ext-gui:_ZN8BankSlot6handleEi
zynaddsubfx-ext-gui:_ZN8BankSlot6updateEPKcS1_
zynaddsubfx-ext-gui:_ZN8BankSlotC1EiiiiPKc
zynaddsubfx-ext-gui:_ZN8BankSlotC2EiiiiPKc
zynaddsubfx-ext-gui:_ZN8BankView4initEP16Fl_Osc_InterfaceP16BankViewControlsPi
zynaddsubfx-ext-gui:_ZN8BankView5cbwigEP9Fl_Widget
zynaddsubfx-ext-gui:_ZN8BankView5reactEii
zynaddsubfx-ext-gui:_ZN8BankView7OSC_rawEPKc
zynaddsubfx-ext-gui:_ZN8BankView7refreshEv
zynaddsubfx-ext-gui:_ZN8BankViewC1EiiiiPKc
zynaddsubfx-ext-gui:_ZN8BankViewC2EiiiiPKc
zynaddsubfx-ext-gui:_ZN8BankViewD0Ev
zynaddsubfx-ext-gui:_ZN8BankViewD1Ev
zynaddsubfx-ext-gui:_ZN8BankViewD2Ev
zynaddsubfx-ext-gui:_ZN8ConfigUI11make_windowEv
zynaddsubfx-ext-gui:_ZN8ConfigUI12menu_VirtualE
zynaddsubfx-ext-gui:_ZN8ConfigUI13menu_PADsynthE
zynaddsubfx-ext-gui:_ZN8ConfigUI14cb_rootsbrowseEP15Fl_Osc_ListViewPv
zynaddsubfx-ext-gui:_ZN8ConfigUI15cb_configwindowEP13Fl_Osc_WindowPv
zynaddsubfx-ext-gui:_ZN8ConfigUI15cb_presetbrowseEP15Fl_Osc_ListViewPv
zynaddsubfx-ext-gui:_ZN8ConfigUI19cb_oscilsize_widgetEP9Fl_ChoicePv
zynaddsubfx-ext-gui:_ZN8ConfigUI21cb_removepresetbuttonEP9Fl_ButtonPv
zynaddsubfx-ext-gui:_ZN8ConfigUI21menu_oscilsize_widgetE
zynaddsubfx-ext-gui:_ZN8ConfigUI22activatebutton_rootdirEb
zynaddsubfx-ext-gui:_ZN8ConfigUI22cb_removerootdirbuttonEP9Fl_ButtonPv
zynaddsubfx-ext-gui:_ZN8ConfigUI24activatebutton_presetdirEb
zynaddsubfx-ext-gui:_ZN8ConfigUI26cb_makedefaultpresetbuttonEP9Fl_ButtonPv
zynaddsubfx-ext-gui:_ZN8ConfigUI27cb_makedefaultrootdirbuttonEP9Fl_ButtonPv
zynaddsubfx-ext-gui:_ZN8ConfigUI4showEv
zynaddsubfx-ext-gui:_ZN8ConfigUI6cb_AddEP9Fl_ButtonPv
zynaddsubfx-ext-gui:_ZN8ConfigUI7cb_Add1EP9Fl_ButtonPv
zynaddsubfx-ext-gui:_ZN8ConfigUI8cb_CloseEP9Fl_ButtonPv
zynaddsubfx-ext-gui:_ZN8ConfigUIC1EP16Fl_Osc_Interface
zynaddsubfx-ext-gui:_ZN8ConfigUIC2EP16Fl_Osc_Interface
zynaddsubfx-ext-gui:_ZN8FilterUI10cb_FormantEP10Fl_CounterPv
zynaddsubfx-ext-gui:_ZN8FilterUI10cb_octknobEP13Fl_Osc_SliderPv
zynaddsubfx-ext-gui:_ZN8FilterUI11cb_gaindialEP11Fl_Osc_DialPv
zynaddsubfx-ext-gui:_ZN8FilterUI11make_windowEv
zynaddsubfx-ext-gui:_ZN8FilterUI12cb_stcounterEP13Fl_Osc_ChoicePv
zynaddsubfx-ext-gui:_ZN8FilterUI13cb_editbuttonEP9Fl_ButtonPv
zynaddsubfx-ext-gui:_ZN8FilterUI13cb_filtertypeEP13Fl_Osc_ChoicePv
zynaddsubfx-ext-gui:_ZN8FilterUI14cb_numformantsEP14Fl_Osc_CounterPv
zynaddsubfx-ext-gui:_ZN8FilterUI14switchcategoryEi
zynaddsubfx-ext-gui:_ZN8FilterUI15cb_centerfreqvoEP13Fl_Osc_OutputPv
zynaddsubfx-ext-gui:_ZN8FilterUI15cb_sequencesizeEP14Fl_Osc_CounterPv
zynaddsubfx-ext-gui:_ZN8FilterUI15menu_filtertypeE
zynaddsubfx-ext-gui:_ZN8FilterUI16cb_octavesfreqvoEP13Fl_Osc_OutputPv
zynaddsubfx-ext-gui:_ZN8FilterUI16cb_vowel_counterEP14Fl_Osc_CounterPv
zynaddsubfx-ext-gui:_ZN8FilterUI17cb_formant_q_dialEP11Fl_Osc_DialPv
zynaddsubfx-ext-gui:_ZN8FilterUI19cb_formant_amp_dialEP11Fl_Osc_DialPv
zynaddsubfx-ext-gui:_ZN8FilterUI19make_formant_windowEv
zynaddsubfx-ext-gui:_ZN8FilterUI20cb_formant_freq_dialEP11Fl_Osc_DialPv
zynaddsubfx-ext-gui:_ZN8FilterUI21update_formant_windowEv
zynaddsubfx-ext-gui:_ZN8FilterUI22use_for_dynamic_filterEv
zynaddsubfx-ext-gui:_ZN8FilterUI23menu_svfiltertypechoiceE
zynaddsubfx-ext-gui:_ZN8FilterUI25menu_moogfiltertypechoiceE
zynaddsubfx-ext-gui:_ZN8FilterUI27menu_analogfiltertypechoiceE
zynaddsubfx-ext-gui:_ZN8FilterUI4cb_CEP9Fl_ButtonPv
zynaddsubfx-ext-gui:_ZN8FilterUI4cb_PEP9Fl_ButtonPv
zynaddsubfx-ext-gui:_ZN8FilterUI4cb_SEP10Fl_CounterPv
zynaddsubfx-ext-gui:_ZN8FilterUI4initENSt7__cxx1112basic_stringIcSt11char_traitsIcESaIcEEEP16Fl_Osc_InterfaceS5_S5_
zynaddsubfx-ext-gui:_ZN8FilterUI5cb_C1EP9Fl_ButtonPv
zynaddsubfx-ext-gui:_ZN8FilterUI5cb_P1EP9Fl_ButtonPv
zynaddsubfx-ext-gui:_ZN8FilterUI5cb_P2EP9Fl_ButtonPv
zynaddsubfx-ext-gui:_ZN8FilterUI6rebaseENSt7__cxx1112basic_stringIcSt11char_traitsIcESaIcEEE
zynaddsubfx-ext-gui:_ZN8FilterUI7refreshEv
zynaddsubfx-ext-gui:_ZN8FilterUI8cb_CloseEP9Fl_ButtonPv
zynaddsubfx-ext-gui:_ZN8FilterUI8cb_VowelEP10Fl_CounterPv
zynaddsubfx-ext-gui:_ZN8FilterUI8cb_qdialEP11Fl_Osc_DialPv
zynaddsubfx-ext-gui:_ZN8FilterUI9cb_cfknobEP13Fl_Osc_SliderPv
zynaddsubfx-ext-gui:_ZN8FilterUIC1EiiiiPKc
zynaddsubfx-ext-gui:_ZN8FilterUIC2EiiiiPKc
zynaddsubfx-ext-gui:_ZN8FilterUID0Ev
zynaddsubfx-ext-gui:_ZN8FilterUID1Ev
zynaddsubfx-ext-gui:_ZN8FilterUID2Ev
zynaddsubfx-ext-gui:_ZN8MasterUI10cb_RefreshEP9Fl_ButtonPv
zynaddsubfx-ext-gui:_ZN8MasterUI10cb_Revert1EP8Fl_Menu_Pv
zynaddsubfx-ext-gui:_ZN8MasterUI10cb_Switch1EP8Fl_Menu_Pv
zynaddsubfx-ext-gui:_ZN8MasterUI10cb_VirtualEP8Fl_Menu_Pv
zynaddsubfx-ext-gui:_ZN8MasterUI10cb_partrcvEP13Fl_Osc_ChoicePv
zynaddsubfx-ext-gui:_ZN8MasterUI10recordmenuE
zynaddsubfx-ext-gui:_ZN8MasterUI11cb_AdvancedEP9Fl_ButtonPv
zynaddsubfx-ext-gui:_ZN8MasterUI11cb_BeginnerEP9Fl_ButtonPv
zynaddsubfx-ext-gui:_ZN8MasterUI11cb_SettingsEP8Fl_Menu_Pv
zynaddsubfx-ext-gui:_ZN8MasterUI11make_windowEv
zynaddsubfx-ext-gui:_ZN8MasterUI11updatepanelEv
zynaddsubfx-ext-gui:_ZN8MasterUI12cb_CopyrightEP8Fl_Menu_Pv
zynaddsubfx-ext-gui:_ZN8MasterUI12cb_Settings1EP8Fl_Menu_Pv
zynaddsubfx-ext-gui:_ZN8MasterUI12cb_partname1EP14PartNameButtonPv
zynaddsubfx-ext-gui:_ZN8MasterUI12setfilelabelEPKc
zynaddsubfx-ext-gui:_ZN8MasterUI13cb_Copyright1EP8Fl_Menu_Pv
zynaddsubfx-ext-gui:_ZN8MasterUI13cb_inseffpartEP13Fl_Osc_ChoicePv
zynaddsubfx-ext-gui:_ZN8MasterUI13cb_insefftypeEP13Fl_Osc_ChoicePv
zynaddsubfx-ext-gui:_ZN8MasterUI13cb_stopbuttonEP13Fl_Osc_ButtonPv
zynaddsubfx-ext-gui:_ZN8MasterUI13cb_sysefftypeEP13Fl_Osc_ChoicePv
zynaddsubfx-ext-gui:_ZN8MasterUI13do_new_masterEv
zynaddsubfx-ext-gui:_ZN8MasterUI13simplerefreshEv
zynaddsubfx-ext-gui:_ZN8MasterUI14cb_pausebuttonEP13Fl_Osc_ButtonPv
zynaddsubfx-ext-gui:_ZN8MasterUI14do_load_masterEPKc
zynaddsubfx-ext-gui:_ZN8MasterUI14do_save_masterEPKc
zynaddsubfx-ext-gui:_ZN8MasterUI15cb_masterwindowEP13Fl_Osc_WindowPv
zynaddsubfx-ext-gui:_ZN8MasterUI15cb_npartcounterEP10Fl_CounterPv
zynaddsubfx-ext-gui:_ZN8MasterUI15cb_partenabled1EP12Fl_Osc_CheckPv
zynaddsubfx-ext-gui:_ZN8MasterUI15cb_recordbuttonEP13Fl_Osc_ButtonPv
zynaddsubfx-ext-gui:_ZN8MasterUI15menu_insefftypeE
zynaddsubfx-ext-gui:_ZN8MasterUI15menu_mastermenuE
zynaddsubfx-ext-gui:_ZN8MasterUI15menu_sysefftypeE
zynaddsubfx-ext-gui:_ZN8MasterUI16updatesendwindowEv
zynaddsubfx-ext-gui:_ZN8MasterUI17cb_selectuiwindowEP13Fl_Osc_WindowPv
zynaddsubfx-ext-gui:_ZN8MasterUI17do_revert_changesEv
zynaddsubfx-ext-gui:_ZN8MasterUI17refresh_master_uiEv
zynaddsubfx-ext-gui:_ZN8MasterUI18cb_inseffnocounterEP10Fl_CounterPv
zynaddsubfx-ext-gui:_ZN8MasterUI18cb_syseffnocounterEP10Fl_CounterPv
zynaddsubfx-ext-gui:_ZN8MasterUI19cb_simpleinseffpartEP9Fl_ChoicePv
zynaddsubfx-ext-gui:_ZN8MasterUI19cb_simpleinsefftypeEP13Fl_Osc_ChoicePv
zynaddsubfx-ext-gui:_ZN8MasterUI19cb_simplesysefftypeEP13Fl_Osc_ChoicePv
zynaddsubfx-ext-gui:_ZN8MasterUI20cb_simplemaxkcounterEP14Fl_Osc_CounterPv
zynaddsubfx-ext-gui:_ZN8MasterUI20cb_simpleminkcounterEP14Fl_Osc_CounterPv
zynaddsubfx-ext-gui:_ZN8MasterUI21cb_simplemasterwindowEP13Fl_Osc_WindowPv
zynaddsubfx-ext-gui:_ZN8MasterUI21cb_simplenpartcounterEP10Fl_CounterPv
zynaddsubfx-ext-gui:_ZN8MasterUI21menu_simpleinsefftypeE
zynaddsubfx-ext-gui:_ZN8MasterUI21menu_simplemastermenuE
zynaddsubfx-ext-gui:_ZN8MasterUI21menu_simplesysefftypeE
zynaddsubfx-ext-gui:_ZN8MasterUI24cb_simpleinseffnocounterEP10Fl_CounterPv
zynaddsubfx-ext-gui:_ZN8MasterUI24cb_simplesyseffnocounterEP10Fl_CounterPv
zynaddsubfx-ext-gui:_ZN8MasterUI27do_new_master_unconditionalEv
zynaddsubfx-ext-gui:_ZN8MasterUI28do_load_master_unconditionalEPKcS1_
zynaddsubfx-ext-gui:_ZN8MasterUI31do_revert_changes_unconditionalEv
zynaddsubfx-ext-gui:_ZN8MasterUI4cb_CEP9Fl_ButtonPv
zynaddsubfx-ext-gui:_ZN8MasterUI4cb_EEP8Fl_Menu_Pv
zynaddsubfx-ext-gui:_ZN8MasterUI4cb_MEP13Fl_Osc_ButtonPv
zynaddsubfx-ext-gui:_ZN8MasterUI4cb_NEP8Fl_Menu_Pv
zynaddsubfx-ext-gui:_ZN8MasterUI4cb_PEP9Fl_ButtonPv
zynaddsubfx-ext-gui:_ZN8MasterUI4cb_REP9Fl_ButtonPv
zynaddsubfx-ext-gui:_ZN8MasterUI4cb_mEP13Fl_Osc_ButtonPv
zynaddsubfx-ext-gui:_ZN8MasterUI5cb_C1EP9Fl_ButtonPv
zynaddsubfx-ext-gui:_ZN8MasterUI5cb_E1EP8Fl_Menu_Pv
zynaddsubfx-ext-gui:_ZN8MasterUI5cb_P1EP9Fl_ButtonPv
zynaddsubfx-ext-gui:_ZN8MasterUI5cb_P2EP9Fl_ButtonPv
zynaddsubfx-ext-gui:_ZN8MasterUI5cb_P3EP9Fl_ButtonPv
zynaddsubfx-ext-gui:_ZN8MasterUI5cb_vKEP9Fl_ButtonPv
zynaddsubfx-ext-gui:_ZN8MasterUI5closeEv
zynaddsubfx-ext-gui:_ZN8MasterUI6cb_NewEP8Fl_Menu_Pv
zynaddsubfx-ext-gui:_ZN8MasterUI6showUIEi
zynaddsubfx-ext-gui:_ZN8MasterUI7cb_KeybEP10Fl_CounterPv
zynaddsubfx-ext-gui:_ZN8MasterUI7cb_LoadEP8Fl_Menu_Pv
zynaddsubfx-ext-gui:_ZN8MasterUI7cb_New1EP8Fl_Menu_Pv
zynaddsubfx-ext-gui:_ZN8MasterUI7cb_OpenEP8Fl_Menu_Pv
zynaddsubfx-ext-gui:_ZN8MasterUI7cb_SaveEP8Fl_Menu_Pv
zynaddsubfx-ext-gui:_ZN8MasterUI7cb_SendEP9Fl_ButtonPv
zynaddsubfx-ext-gui:_ZN8MasterUI7cb_ShowEP8Fl_Menu_Pv
zynaddsubfx-ext-gui:_ZN8MasterUI7cb_StopEP13Fl_Osc_ButtonPv
zynaddsubfx-ext-gui:_ZN8MasterUI8cb_ClearEP8Fl_Menu_Pv
zynaddsubfx-ext-gui:_ZN8MasterUI8cb_CloseEP9Fl_ButtonPv
zynaddsubfx-ext-gui:_ZN8MasterUI8cb_Load1EP8Fl_Menu_Pv
zynaddsubfx-ext-gui:_ZN8MasterUI8cb_Open1EP8Fl_Menu_Pv
zynaddsubfx-ext-gui:_ZN8MasterUI8cb_Open2EP8Fl_Menu_Pv
zynaddsubfx-ext-gui:_ZN8MasterUI8cb_Open3EP8Fl_Menu_Pv
zynaddsubfx-ext-gui:_ZN8MasterUI8cb_PanelEP9Fl_ButtonPv
zynaddsubfx-ext-gui:_ZN8MasterUI8cb_PanicEP13Fl_Osc_ButtonPv
zynaddsubfx-ext-gui:_ZN8MasterUI8cb_ResetEP9Fl_ButtonPv
zynaddsubfx-ext-gui:_ZN8MasterUI8cb_Save1EP8Fl_Menu_Pv
zynaddsubfx-ext-gui:_ZN8MasterUI8cb_Save2EP8Fl_Menu_Pv
zynaddsubfx-ext-gui:_ZN8MasterUI8cb_Save3EP8Fl_Menu_Pv
zynaddsubfx-ext-gui:_ZN8MasterUI8cb_Save4EP8Fl_Menu_Pv
zynaddsubfx-ext-gui:_ZN8MasterUI8cb_Send1EP9Fl_ButtonPv
zynaddsubfx-ext-gui:_ZN8MasterUI8cb_Show1EP8Fl_Menu_Pv
zynaddsubfx-ext-gui:_ZN8MasterUI8cb_Show2EP8Fl_Menu_Pv
zynaddsubfx-ext-gui:_ZN8MasterUI9cb_ChooseEP8Fl_Menu_Pv
zynaddsubfx-ext-gui:_ZN8MasterUI9cb_Clear1EP8Fl_Menu_Pv
zynaddsubfx-ext-gui:_ZN8MasterUI9cb_Close1EP9Fl_ButtonPv
zynaddsubfx-ext-gui:_ZN8MasterUI9cb_Close2EP9Fl_ButtonPv
zynaddsubfx-ext-gui:_ZN8MasterUI9cb_Reset1EP9Fl_ButtonPv
zynaddsubfx-ext-gui:_ZN8MasterUI9cb_RevertEP8Fl_Menu_Pv
zynaddsubfx-ext-gui:_ZN8MasterUI9cb_ScalesEP9Fl_ButtonPv
zynaddsubfx-ext-gui:_ZN8MasterUI9cb_SwitchEP8Fl_Menu_Pv
zynaddsubfx-ext-gui:_ZN8MasterUIC1EPiP16Fl_Osc_Interface
zynaddsubfx-ext-gui:_ZN8MasterUIC2EPiP16Fl_Osc_Interface
zynaddsubfx-ext-gui:_ZN8MasterUID1Ev
zynaddsubfx-ext-gui:_ZN8MasterUID2Ev
zynaddsubfx-ext-gui:_ZN8OGSlider2cbEv
zynaddsubfx-ext-gui:_ZN8OGSlider6updateEv
zynaddsubfx-ext-gui:_ZN8OGSlider9OSC_valueEc
zynaddsubfx-ext-gui:_ZN8OGSlider9OSC_valueEi
zynaddsubfx-ext-gui:_ZN8OGSliderC1EiiiiPKc
zynaddsubfx-ext-gui:_ZN8OGSliderC2EiiiiPKc
zynaddsubfx-ext-gui:_ZN9ADvoiceUI10cb_Detune1EP13Fl_Osc_ChoicePv
zynaddsubfx-ext-gui:_ZN9ADvoiceUI11cb_extoscilEP13Fl_Osc_ChoicePv
zynaddsubfx-ext-gui:_ZN9ADvoiceUI11cb_mod_typeEP13Fl_Osc_ChoicePv
zynaddsubfx-ext-gui:_ZN9ADvoiceUI11make_windowEv
zynaddsubfx-ext-gui:_ZN9ADvoiceUI12cb_FrequencyEP13Fl_Osc_SliderPv
zynaddsubfx-ext-gui:_ZN9ADvoiceUI12change_voiceEi
zynaddsubfx-ext-gui:_ZN9ADvoiceUI13cb_extFMoscilEP13Fl_Osc_ChoicePv
zynaddsubfx-ext-gui:_ZN9ADvoiceUI13menu_mod_typeE
zynaddsubfx-ext-gui:_ZN9ADvoiceUI16cb_voiceonbuttonEP12Fl_Osc_CheckPv
zynaddsubfx-ext-gui:_ZN9ADvoiceUI22cb_changeFMoscilbuttonEP9Fl_ButtonPv
zynaddsubfx-ext-gui:_ZN9ADvoiceUI25cb_changevoiceoscilbuttonEP9Fl_ButtonPv
zynaddsubfx-ext-gui:_ZN9ADvoiceUI3cb_EP13Fl_Osc_SliderPv
zynaddsubfx-ext-gui:_ZN9ADvoiceUI4cb_1EP13Fl_Osc_SliderPv
zynaddsubfx-ext-gui:_ZN9ADvoiceUI4cb_2EP13Fl_Osc_ChoicePv
zynaddsubfx-ext-gui:_ZN9ADvoiceUI4initEiNSt7__cxx1112basic_stringIcSt11char_traitsIcESaIcEEEP16Fl_Osc_Interface
zynaddsubfx-ext-gui:_ZN9ADvoiceUI5cb_OnEP12Fl_Osc_CheckPv
zynaddsubfx-ext-gui:_ZN9ADvoiceUI5menu_E
zynaddsubfx-ext-gui:_ZN9ADvoiceUI6cb_On1EP12Fl_Osc_CheckPv
zynaddsubfx-ext-gui:_ZN9ADvoiceUI6cb_On2EP12Fl_Osc_CheckPv
zynaddsubfx-ext-gui:_ZN9ADvoiceUI6cb_On3EP12Fl_Osc_CheckPv
zynaddsubfx-ext-gui:_ZN9ADvoiceUI6cb_On4EP12Fl_Osc_CheckPv
zynaddsubfx-ext-gui:_ZN9ADvoiceUI6cb_On5EP12Fl_Osc_CheckPv
zynaddsubfx-ext-gui:_ZN9ADvoiceUI6cb_On6EP12Fl_Osc_CheckPv
zynaddsubfx-ext-gui:_ZN9ADvoiceUI6cb_On7EP12Fl_Osc_CheckPv
zynaddsubfx-ext-gui:_ZN9ADvoiceUI6cb_On8EP12Fl_Osc_CheckPv
zynaddsubfx-ext-gui:_ZN9ADvoiceUI8cb_440HzEP12Fl_Osc_CheckPv
zynaddsubfx-ext-gui:_ZN9ADvoiceUI9cb_440Hz1EP12Fl_Osc_CheckPv
zynaddsubfx-ext-gui:_ZN9ADvoiceUI9cb_DetuneEP13Fl_Osc_ChoicePv
zynaddsubfx-ext-gui:_ZN9ADvoiceUI9cb_extModEP13Fl_Osc_ChoicePv
zynaddsubfx-ext-gui:_ZN9ADvoiceUIC1EiiiiPKc
zynaddsubfx-ext-gui:_ZN9ADvoiceUIC2EiiiiPKc
zynaddsubfx-ext-gui:_ZN9ADvoiceUID0Ev
zynaddsubfx-ext-gui:_ZN9ADvoiceUID1Ev
zynaddsubfx-ext-gui:_ZN9ADvoiceUID2Ev
zynaddsubfx-ext-gui:_ZN9PADnoteUI10cb_bwscaleEP13Fl_Osc_ChoicePv
zynaddsubfx-ext-gui:_ZN9PADnoteUI10cb_hpmfreqEP11Fl_Osc_DialPv
zynaddsubfx-ext-gui:_ZN9PADnoteUI10cb_hpmpar1EP11Fl_Osc_DialPv
zynaddsubfx-ext-gui:_ZN9PADnoteUI10cb_hpwidthEP11Fl_Osc_DialPv
zynaddsubfx-ext-gui:_ZN9PADnoteUI10cb_qsmpoctEP13Fl_Osc_ChoicePv
zynaddsubfx-ext-gui:_ZN9PADnoteUI11cb_cbwidgetEP6Fl_BoxPv
zynaddsubfx-ext-gui:_ZN9PADnoteUI11make_windowEv
zynaddsubfx-ext-gui:_ZN9PADnoteUI12cb_ResonanceEP9Fl_ButtonPv
zynaddsubfx-ext-gui:_ZN9PADnoteUI12cb_hpampmodeEP13Fl_Osc_ChoicePv
zynaddsubfx-ext-gui:_ZN9PADnoteUI12cb_hpamppar1EP11Fl_Osc_DialPv
zynaddsubfx-ext-gui:_ZN9PADnoteUI12cb_hpamppar2EP11Fl_Osc_DialPv
zynaddsubfx-ext-gui:_ZN9PADnoteUI12cb_hpamptypeEP13Fl_Osc_ChoicePv
zynaddsubfx-ext-gui:_ZN9PADnoteUI12cb_hponehalfEP13Fl_Osc_ChoicePv
zynaddsubfx-ext-gui:_ZN9PADnoteUI12cb_hrpospar1EP11Fl_Osc_DialPv
zynaddsubfx-ext-gui:_ZN9PADnoteUI12cb_hrpospar2EP11Fl_Osc_DialPv
zynaddsubfx-ext-gui:_ZN9PADnoteUI12cb_hrpospar3EP11Fl_Osc_DialPv
zynaddsubfx-ext-gui:_ZN9PADnoteUI12cb_hrpostypeEP13Fl_Osc_ChoicePv
zynaddsubfx-ext-gui:_ZN9PADnoteUI12cb_qbasenoteEP13Fl_Osc_ChoicePv
zynaddsubfx-ext-gui:_ZN9PADnoteUI12menu_bwscaleE
zynaddsubfx-ext-gui:_ZN9PADnoteUI12menu_qsmpoctE
zynaddsubfx-ext-gui:_ZN9PADnoteUI13cb_detunetypeEP13Fl_Osc_ChoicePv
zynaddsubfx-ext-gui:_ZN9PADnoteUI13cb_hpbasepar1EP11Fl_Osc_DialPv
zynaddsubfx-ext-gui:_ZN9PADnoteUI13cb_hpbasetypeEP13Fl_Osc_ChoicePv
zynaddsubfx-ext-gui:_ZN9PADnoteUI13cb_hpfreqmultEP11Fl_Osc_DialPv
zynaddsubfx-ext-gui:_ZN9PADnoteUI14cb_applybuttonEP9Fl_ButtonPv
zynaddsubfx-ext-gui:_ZN9PADnoteUI14cb_hpautoscaleEP12Fl_Osc_CheckPv
zynaddsubfx-ext-gui:_ZN9PADnoteUI14cb_qsamplesizeEP13Fl_Osc_ChoicePv
zynaddsubfx-ext-gui:_ZN9PADnoteUI14menu_hpampmodeE
zynaddsubfx-ext-gui:_ZN9PADnoteUI14menu_hpamptypeE
zynaddsubfx-ext-gui:_ZN9PADnoteUI14menu_hponehalfE
zynaddsubfx-ext-gui:_ZN9PADnoteUI14menu_hrpostypeE
zynaddsubfx-ext-gui:_ZN9PADnoteUI14menu_qbasenoteE
zynaddsubfx-ext-gui:_ZN9PADnoteUI15cb_spectrummodeEP13Fl_Osc_ChoicePv
zynaddsubfx-ext-gui:_ZN9PADnoteUI15menu_hpbasetypeE
zynaddsubfx-ext-gui:_ZN9PADnoteUI16menu_qsamplesizeE
zynaddsubfx-ext-gui:_ZN9PADnoteUI17menu_spectrummodeE
zynaddsubfx-ext-gui:_ZN9PADnoteUI3cb_EP7Fl_TabsPv
zynaddsubfx-ext-gui:_ZN9PADnoteUI4cb_CEP9Fl_ButtonPv
zynaddsubfx-ext-gui:_ZN9PADnoteUI4cb_PEP9Fl_ButtonPv
zynaddsubfx-ext-gui:_ZN9PADnoteUI7cb_qoctEP13Fl_Osc_ChoicePv
zynaddsubfx-ext-gui:_ZN9PADnoteUI7refreshEv
zynaddsubfx-ext-gui:_ZN9PADnoteUI8cb_CloseEP9Fl_ButtonPv
zynaddsubfx-ext-gui:_ZN9PADnoteUI8cb_hz440EP12Fl_Osc_CheckPv
zynaddsubfx-ext-gui:_ZN9PADnoteUI9cb_ChangeEP9Fl_ButtonPv
zynaddsubfx-ext-gui:_ZN9PADnoteUI9cb_bwdialEP11Fl_Osc_DialPv
zynaddsubfx-ext-gui:_ZN9PADnoteUI9cb_detuneEP13Fl_Osc_SliderPv
zynaddsubfx-ext-gui:_ZN9PADnoteUI9cb_exportEP13Fl_Osc_ButtonPv
zynaddsubfx-ext-gui:_ZN9PADnoteUI9cb_stereoEP12Fl_Osc_CheckPv
zynaddsubfx-ext-gui:_ZN9PADnoteUI9menu_qoctE
zynaddsubfx-ext-gui:_ZN9PADnoteUIC1ENSt7__cxx1112basic_stringIcSt11char_traitsIcESaIcEEEP16Fl_Osc_Interface
zynaddsubfx-ext-gui:_ZN9PADnoteUIC2ENSt7__cxx1112basic_stringIcSt11char_traitsIcESaIcEEEP16Fl_Osc_Interface
zynaddsubfx-ext-gui:_ZN9PADnoteUID0Ev
zynaddsubfx-ext-gui:_ZN9PADnoteUID1Ev
zynaddsubfx-ext-gui:_ZN9PADnoteUID2Ev
zynaddsubfx-ext-gui:_ZN9PresetsUI10cb_Cancel1EP9Fl_ButtonPv
zynaddsubfx-ext-gui:_ZN9PresetsUI11make_windowEv
zynaddsubfx-ext-gui:_ZN9PresetsUI13cb_copybrowseEP10Fl_BrowserPv
zynaddsubfx-ext-gui:_ZN9PresetsUI13cb_copybuttonEP9Fl_ButtonPv
zynaddsubfx-ext-gui:_ZN9PresetsUI13cb_presetnameEP8Fl_InputPv
zynaddsubfx-ext-gui:_ZN9PresetsUI14cb_copypbuttonEP9Fl_ButtonPv
zynaddsubfx-ext-gui:_ZN9PresetsUI14cb_pastebrowseEP10Fl_BrowserPv
zynaddsubfx-ext-gui:_ZN9PresetsUI14cb_pastebuttonEP9Fl_ButtonPv
zynaddsubfx-ext-gui:_ZN9PresetsUI15cb_pastepbuttonEP9Fl_ButtonPv
zynaddsubfx-ext-gui:_ZN9PresetsUI16cb_deletepbuttonEP9Fl_ButtonPv
zynaddsubfx-ext-gui:_ZN9PresetsUI4copyENSt7__cxx1112basic_stringIcSt11char_traitsIcESaIcEEE
zynaddsubfx-ext-gui:_ZN9PresetsUI4copyENSt7__cxx1112basic_stringIcSt11char_traitsIcESaIcEEEi
zynaddsubfx-ext-gui:_ZN9PresetsUI5pasteENSt7__cxx1112basic_stringIcSt11char_traitsIcESaIcEEEP10PresetsUI_
zynaddsubfx-ext-gui:_ZN9PresetsUI5pasteENSt7__cxx1112basic_stringIcSt11char_traitsIcESaIcEEEP10PresetsUI_i
zynaddsubfx-ext-gui:_ZN9PresetsUI6rescanENSt7__cxx1112basic_stringIcSt11char_traitsIcESaIcEEE
zynaddsubfx-ext-gui:_ZN9PresetsUI9cb_CancelEP9Fl_ButtonPv
zynaddsubfx-ext-gui:_ZN9PresetsUIC1EP16Fl_Osc_Interface
zynaddsubfx-ext-gui:_ZN9PresetsUIC2EP16Fl_Osc_Interface
zynaddsubfx-ext-gui:_ZN9PresetsUID1Ev
zynaddsubfx-ext-gui:_ZN9PresetsUID2Ev
zynaddsubfx-ext-gui:_ZN9SUBSlider2cbEv
zynaddsubfx-ext-gui:_ZN9SUBSlider9OSC_valueEi
zynaddsubfx-ext-gui:_ZN9SUBSliderC1EiiiiPKc
zynaddsubfx-ext-gui:_ZN9SUBSliderC2EiiiiPKc
zynaddsubfx-ext-gui:_ZN9SUBnoteUI10cb_filtereEP12Fl_Osc_CheckPv
zynaddsubfx-ext-gui:_ZN9SUBnoteUI10menu_startE
zynaddsubfx-ext-gui:_ZN9SUBnoteUI11make_windowEv
zynaddsubfx-ext-gui:_ZN9SUBnoteUI12menu_magtypeE
zynaddsubfx-ext-gui:_ZN9SUBnoteUI13cb_detunetypeEP13Fl_Osc_ChoicePv
zynaddsubfx-ext-gui:_ZN9SUBnoteUI15menu_spreadtypeE
zynaddsubfx-ext-gui:_ZN9SUBnoteUI4cb_CEP9Fl_ButtonPv
zynaddsubfx-ext-gui:_ZN9SUBnoteUI4cb_PEP9Fl_ButtonPv
zynaddsubfx-ext-gui:_ZN9SUBnoteUI7cb_bweeEP12Fl_Osc_CheckPv
zynaddsubfx-ext-gui:_ZN9SUBnoteUI7refreshEv
zynaddsubfx-ext-gui:_ZN9SUBnoteUI8cb_ClearEP13Fl_Osc_ButtonPv
zynaddsubfx-ext-gui:_ZN9SUBnoteUI8cb_CloseEP9Fl_ButtonPv
zynaddsubfx-ext-gui:_ZN9SUBnoteUI8cb_hz440EP12Fl_Osc_CheckPv
zynaddsubfx-ext-gui:_ZN9SUBnoteUI9cb_detuneEP13Fl_Osc_SliderPv
zynaddsubfx-ext-gui:_ZN9SUBnoteUI9cb_freqeeEP12Fl_Osc_CheckPv
zynaddsubfx-ext-gui:_ZN9SUBnoteUIC1EP16Fl_Osc_InterfaceNSt7__cxx1112basic_stringIcSt11char_traitsIcESaIcEEE
zynaddsubfx-ext-gui:_ZN9SUBnoteUIC2EP16Fl_Osc_InterfaceNSt7__cxx1112basic_stringIcSt11char_traitsIcESaIcEEE
zynaddsubfx-ext-gui:_ZN9SUBnoteUID0Ev
zynaddsubfx-ext-gui:_ZN9SUBnoteUID1Ev
zynaddsubfx-ext-gui:_ZN9SUBnoteUID2Ev
zynaddsubfx-ext-gui:_ZNK10Fl_EQGraph10getfreqposEf
zynaddsubfx-ext-gui:_ZNK10Fl_EQGraph11getresponseEif
zynaddsubfx-ext-gui:_ZNK10Fl_EQGraph8getfreqxEf
zynaddsubfx-ext-gui:_ZNK12Fl_Osc_Group3locB5cxx11Ev
zynaddsubfx-ext-gui:_ZNK13Fl_Osc_Output8newvalueEv
zynaddsubfx-ext-gui:_ZNK13Fl_Osc_Window3locB5cxx11Ev
zynaddsubfx-ext-gui:_ZNK15Fl_Osc_ListView10sendUpdateEv
zynaddsubfx-ext-gui:_ZNK16BankViewControls4modeEv
zynaddsubfx-ext-gui:_ZNK16EnvelopeFreeEdit10getnearestEii
zynaddsubfx-ext-gui:_ZNK16EnvelopeFreeEdit5getdtEi
zynaddsubfx-ext-gui:_ZNK16EnvelopeFreeEdit9getpointxEi
zynaddsubfx-ext-gui:_ZNK16EnvelopeFreeEdit9getpointyEi
zynaddsubfx-ext-gui:_ZNK18Fl_Resonance_Graph10getfreqposEf
zynaddsubfx-ext-gui:_ZNK18Fl_Resonance_Graph13getcenterfreqEv
zynaddsubfx-ext-gui:_ZNK18Fl_Resonance_Graph14getoctavesfreqEv
zynaddsubfx-ext-gui:_ZNK18Fl_Resonance_Graph8getfreqxEf
zynaddsubfx-ext-gui:_ZNK5rtosc10ThreadLink11buffer_sizeEv
zynaddsubfx-ext-gui:_ZNK5rtosc10ThreadLink16hasNextLookaheadEv
zynaddsubfx-ext-gui:_ZNK5rtosc10ThreadLink4peakEv
zynaddsubfx-ext-gui:_ZNK5rtosc10ThreadLink7hasNextEb
zynaddsubfx-ext-gui:_ZNK5rtosc10ThreadLink7hasNextEv
zynaddsubfx-ext-gui:_ZNK5rtosc4Port12MetaIteratorcvbEv
zynaddsubfx-ext-gui:_ZNK5rtosc4Port13MetaContainer3endEv
zynaddsubfx-ext-gui:_ZNK5rtosc4Port13MetaContainer4findEPKc
zynaddsubfx-ext-gui:_ZNK5rtosc4Port13MetaContainer5beginEv
zynaddsubfx-ext-gui:_ZNK5rtosc4Port13MetaContainer6lengthEv
zynaddsubfx-ext-gui:_ZNK5rtosc4Port13MetaContainerixEPKc
zynaddsubfx-ext-gui:_ZNK5rtosc5Ports7aproposEPKc
zynaddsubfx-ext-gui:_ZNK5rtosc5Ports8dispatchEPKcRNS_6RtDataEb
zynaddsubfx-ext-gui:_ZNK5rtosc5PortsixEPKc
zynaddsubfx-ext-gui:_ZNK6TipWin6getStrEv
zynaddsubfx-ext-gui:_ZNK8BankSlot4nameEv
zynaddsubfx-ext-gui:_ZNK8BankSlot5emptyEv
zynaddsubfx-ext-gui:_ZNK8BankSlot8filenameEv
zynaddsubfx-ext-gui:_ZThn120_N10Fl_EQGraph6updateEv
zynaddsubfx-ext-gui:_ZThn120_N10Fl_EQGraph7OSC_rawEPKc
zynaddsubfx-ext-gui:_ZThn120_N10Fl_EQGraphD0Ev
zynaddsubfx-ext-gui:_ZThn120_N10Fl_EQGraphD1Ev
zynaddsubfx-ext-gui:_ZThn120_N16EnvelopeFreeEdit6rebaseENSt7__cxx1112basic_stringIcSt11char_traitsIcESaIcEEE
zynaddsubfx-ext-gui:_ZThn120_N16EnvelopeFreeEdit6updateEv
zynaddsubfx-ext-gui:_ZThn120_N16EnvelopeFreeEdit7OSC_rawEPKc
zynaddsubfx-ext-gui:_ZThn120_N18Fl_Resonance_Graph6updateEv
zynaddsubfx-ext-gui:_ZThn120_N18Fl_Resonance_Graph7OSC_rawEPKc
zynaddsubfx-ext-gui:_ZThn120_N18Fl_Resonance_GraphD0Ev
zynaddsubfx-ext-gui:_ZThn120_N18Fl_Resonance_GraphD1Ev
zynaddsubfx-ext-gui:_ZThn120_N18FormantFilterGraph6rebaseENSt7__cxx1112basic_stringIcSt11char_traitsIcESaIcEEE
zynaddsubfx-ext-gui:_ZThn120_N18FormantFilterGraph6updateEv
zynaddsubfx-ext-gui:_ZThn120_N18FormantFilterGraph9OSC_valueEiPKc
zynaddsubfx-ext-gui:_ZThn120_N18FormantFilterGraph9OSC_valueEjPv
zynaddsubfx-ext-gui:_ZThn120_N18FormantFilterGraphD0Ev
zynaddsubfx-ext-gui:_ZThn120_N18FormantFilterGraphD1Ev
zynaddsubfx-ext-gui:_ZThn120_N7VirKeys9OSC_valueEi
zynaddsubfx-ext-gui:_ZThn128_N11PointButton6rebaseENSt7__cxx1112basic_stringIcSt11char_traitsIcESaIcEEE
zynaddsubfx-ext-gui:_ZThn128_N12Fl_Osc_Check9OSC_valueEb
zynaddsubfx-ext-gui:_ZThn128_N12Fl_Osc_CheckD0Ev
zynaddsubfx-ext-gui:_ZThn128_N12Fl_Osc_CheckD1Ev
zynaddsubfx-ext-gui:_ZThn128_N13Fl_Osc_Button6rebaseENSt7__cxx1112basic_stringIcSt11char_traitsIcESaIcEEE
zynaddsubfx-ext-gui:_ZThn128_N13Fl_Osc_Button9OSC_valueEb
zynaddsubfx-ext-gui:_ZThn128_N13Fl_Osc_ButtonD0Ev
zynaddsubfx-ext-gui:_ZThn128_N13Fl_Osc_ButtonD1Ev
zynaddsubfx-ext-gui:_ZThn128_N14PartNameButton9OSC_valueEPKc
zynaddsubfx-ext-gui:_ZThn168_N12OGWaveChoice9OSC_valueEi
zynaddsubfx-ext-gui:_ZThn168_N13Fl_Osc_Choice6updateEv
zynaddsubfx-ext-gui:_ZThn168_N13Fl_Osc_Choice9OSC_valueEc
zynaddsubfx-ext-gui:_ZThn168_N13Fl_Osc_Choice9OSC_valueEi
zynaddsubfx-ext-gui:_ZThn168_N13Fl_Osc_ChoiceD0Ev
zynaddsubfx-ext-gui:_ZThn168_N13Fl_Osc_ChoiceD1Ev
zynaddsubfx-ext-gui:_ZThn168_N8BankList7OSC_rawEPKc
zynaddsubfx-ext-gui:_ZThn168_N8BankView7OSC_rawEPKc
zynaddsubfx-ext-gui:_ZThn168_N8BankViewD0Ev
zynaddsubfx-ext-gui:_ZThn168_N8BankViewD1Ev
zynaddsubfx-ext-gui:_ZThn176_N11PhaseSlider9OSC_valueEi
zynaddsubfx-ext-gui:_ZThn176_N13Fl_Osc_Slider6updateEv
zynaddsubfx-ext-gui:_ZThn176_N13Fl_Osc_Slider9OSC_valueEc
zynaddsubfx-ext-gui:_ZThn176_N13Fl_Osc_Slider9OSC_valueEf
zynaddsubfx-ext-gui:_ZThn176_N13Fl_Osc_Slider9OSC_valueEi
zynaddsubfx-ext-gui:_ZThn176_N13Fl_Osc_SliderD0Ev
zynaddsubfx-ext-gui:_ZThn176_N13Fl_Osc_SliderD1Ev
zynaddsubfx-ext-gui:_ZThn176_N14Fl_Osc_TSliderD0Ev
zynaddsubfx-ext-gui:_ZThn176_N14Fl_Osc_TSliderD1Ev
zynaddsubfx-ext-gui:_ZThn176_N14Fl_Osc_VSliderD0Ev
zynaddsubfx-ext-gui:_ZThn176_N14Fl_Osc_VSliderD1Ev
zynaddsubfx-ext-gui:_ZThn176_N8OGSlider6updateEv
zynaddsubfx-ext-gui:_ZThn176_N8OGSlider9OSC_valueEc
zynaddsubfx-ext-gui:_ZThn176_N8OGSlider9OSC_valueEi
zynaddsubfx-ext-gui:_ZThn176_N9SUBSlider9OSC_valueEi
zynaddsubfx-ext-gui:_ZThn184_N13Fl_Osc_Output6updateEv
zynaddsubfx-ext-gui:_ZThn184_N13Fl_Osc_Output9OSC_valueEc
zynaddsubfx-ext-gui:_ZThn184_N13Fl_Osc_Output9OSC_valueEf
zynaddsubfx-ext-gui:_ZThn192_N14Fl_Osc_Counter6updateEv
zynaddsubfx-ext-gui:_ZThn192_N14Fl_Osc_Counter9OSC_valueEc
zynaddsubfx-ext-gui:_ZThn192_N14Fl_Osc_Counter9OSC_valueEi
zynaddsubfx-ext-gui:_ZThn216_N10SysEffSendD0Ev
zynaddsubfx-ext-gui:_ZThn216_N10SysEffSendD1Ev
zynaddsubfx-ext-gui:_ZThn216_N11Fl_Osc_Dial6rebaseENSt7__cxx1112basic_stringIcSt11char_traitsIcESaIcEEE
zynaddsubfx-ext-gui:_ZThn216_N11Fl_Osc_Dial6updateEv
zynaddsubfx-ext-gui:_ZThn216_N11Fl_Osc_Dial9OSC_valueEc
zynaddsubfx-ext-gui:_ZThn216_N11Fl_Osc_Dial9OSC_valueEf
zynaddsubfx-ext-gui:_ZThn216_N11Fl_Osc_Dial9OSC_valueEi
zynaddsubfx-ext-gui:_ZThn216_N11Fl_Osc_DialD0Ev
zynaddsubfx-ext-gui:_ZThn216_N11Fl_Osc_DialD1Ev
zynaddsubfx-ext-gui:_ZThn216_N12Fl_Osc_DialF6updateEv
zynaddsubfx-ext-gui:_ZThn216_N12Fl_Osc_DialF9OSC_valueEf
zynaddsubfx-ext-gui:_ZThn216_N12Fl_Osc_DialFD0Ev
zynaddsubfx-ext-gui:_ZThn216_N12Fl_Osc_DialFD1Ev
zynaddsubfx-ext-gui:_ZThn224_N12Fl_Osc_Input9OSC_valueEPKc
zynaddsubfx-ext-gui:_ZThn224_N12Fl_Osc_InputD0Ev
zynaddsubfx-ext-gui:_ZThn224_N12Fl_Osc_InputD1Ev
zynaddsubfx-ext-gui:_ZThn224_N20Fl_Osc_Numeric_Input9OSC_valueEf
zynaddsubfx-ext-gui:_ZThn224_N20Fl_Osc_Numeric_Input9OSC_valueEi
zynaddsubfx-ext-gui:_ZThn224_N20Fl_Osc_Numeric_InputD0Ev
zynaddsubfx-ext-gui:_ZThn224_N20Fl_Osc_Numeric_InputD1Ev
zynaddsubfx-ext-gui:_ZThn248_N10EnvelopeUI7refreshEv
zynaddsubfx-ext-gui:_ZThn248_N10EnvelopeUID0Ev
zynaddsubfx-ext-gui:_ZThn248_N10EnvelopeUID1Ev
zynaddsubfx-ext-gui:_ZThn248_N11SimpleEffUI7refreshEv
zynaddsubfx-ext-gui:_ZThn248_N11SimpleEffUID0Ev
zynaddsubfx-ext-gui:_ZThn248_N11SimpleEffUID1Ev
zynaddsubfx-ext-gui:_ZThn248_N5EffUI7refreshEv
zynaddsubfx-ext-gui:_ZThn248_N5EffUID0Ev
zynaddsubfx-ext-gui:_ZThn248_N5EffUID1Ev
zynaddsubfx-ext-gui:_ZThn248_N5LFOUI7refreshEv
zynaddsubfx-ext-gui:_ZThn248_N5LFOUID0Ev
zynaddsubfx-ext-gui:_ZThn248_N5LFOUID1Ev
zynaddsubfx-ext-gui:_ZThn248_N8FilterUI7refreshEv
zynaddsubfx-ext-gui:_ZThn248_N8FilterUID0Ev
zynaddsubfx-ext-gui:_ZThn248_N8FilterUID1Ev
zynaddsubfx-ext-gui:_ZThn272_N13Fl_Osc_Window6rebaseENSt7__cxx1112basic_stringIcSt11char_traitsIcESaIcEEE
zynaddsubfx-ext-gui:_ZThn272_NK13Fl_Osc_Window3locB5cxx11Ev
zynaddsubfx-ext-gui:_ZThn400_N12Fl_Osc_Value9OSC_valueEf
zynaddsubfx-ext-gui:_ZThn400_N12Fl_Osc_ValueD0Ev
zynaddsubfx-ext-gui:_ZThn400_N12Fl_Osc_ValueD1Ev
zynaddsubfx-ext-gui:_ZThn48_N10EnvelopeUID0Ev
zynaddsubfx-ext-gui:_ZThn48_N10EnvelopeUID1Ev
zynaddsubfx-ext-gui:_ZThn48_N11PartKitItemD0Ev
zynaddsubfx-ext-gui:_ZThn48_N11PartKitItemD1Ev
zynaddsubfx-ext-gui:_ZThn48_N11SimpleEffUID0Ev
zynaddsubfx-ext-gui:_ZThn48_N11SimpleEffUID1Ev
zynaddsubfx-ext-gui:_ZThn48_N13PanellistitemD0Ev
zynaddsubfx-ext-gui:_ZThn48_N13PanellistitemD1Ev
zynaddsubfx-ext-gui:_ZThn48_N15ADvoicelistitemD0Ev
zynaddsubfx-ext-gui:_ZThn48_N15ADvoicelistitemD1Ev
zynaddsubfx-ext-gui:_ZThn48_N15SUBnoteharmonicD0Ev
zynaddsubfx-ext-gui:_ZThn48_N15SUBnoteharmonicD1Ev
zynaddsubfx-ext-gui:_ZThn48_N5EffUID0Ev
zynaddsubfx-ext-gui:_ZThn48_N5EffUID1Ev
zynaddsubfx-ext-gui:_ZThn48_N5LFOUID0Ev
zynaddsubfx-ext-gui:_ZThn48_N5LFOUID1Ev
zynaddsubfx-ext-gui:_ZThn48_N6PartUID0Ev
zynaddsubfx-ext-gui:_ZThn48_N6PartUID1Ev
zynaddsubfx-ext-gui:_ZThn48_N8FilterUID0Ev
zynaddsubfx-ext-gui:_ZThn48_N8FilterUID1Ev
zynaddsubfx-ext-gui:_ZThn680_N15Fl_Osc_ListView6updateEv
zynaddsubfx-ext-gui:_ZThn680_N15Fl_Osc_ListViewD0Ev
zynaddsubfx-ext-gui:_ZThn680_N15Fl_Osc_ListViewD1Ev
zynaddsubfx-ext-gui:__bss_start
zynaddsubfx-ext-gui:__data_start
zynaddsubfx-ext-gui:_edata
zynaddsubfx-ext-gui:_end
zynaddsubfx-ext-gui:_start
zynaddsubfx-ext-gui:advance_path
zynaddsubfx-ext-gui:arraytypes_match
zynaddsubfx-ext-gui:chunk_path
zynaddsubfx-ext-gui:delta_from_arg_vals
zynaddsubfx-ext-gui:embedId
zynaddsubfx-ext-gui:fast_strcpy
zynaddsubfx-ext-gui:get_default_cmp_options
zynaddsubfx-ext-gui:gui
zynaddsubfx-ext-gui:help_message
zynaddsubfx-ext-gui:lo_buffer
zynaddsubfx-ext-gui:main
zynaddsubfx-ext-gui:nsm
zynaddsubfx-ext-gui:parse_identifier
zynaddsubfx-ext-gui:presetsui
zynaddsubfx-ext-gui:range_min
zynaddsubfx-ext-gui:rtosc_amessage
zynaddsubfx-ext-gui:rtosc_arg_arr_len
zynaddsubfx-ext-gui:rtosc_arg_arr_len_set
zynaddsubfx-ext-gui:rtosc_arg_arr_type
zynaddsubfx-ext-gui:rtosc_arg_arr_type_set
zynaddsubfx-ext-gui:rtosc_arg_rep_has_delta
zynaddsubfx-ext-gui:rtosc_arg_rep_has_delta_set
zynaddsubfx-ext-gui:rtosc_arg_rep_num
zynaddsubfx-ext-gui:rtosc_arg_rep_num_set
zynaddsubfx-ext-gui:rtosc_arg_val_add
zynaddsubfx-ext-gui:rtosc_arg_val_current_time
zynaddsubfx-ext-gui:rtosc_arg_val_div
zynaddsubfx-ext-gui:rtosc_arg_val_from_double
zynaddsubfx-ext-gui:rtosc_arg_val_from_int
zynaddsubfx-ext-gui:rtosc_arg_val_from_params
zynaddsubfx-ext-gui:rtosc_arg_val_from_time_t
zynaddsubfx-ext-gui:rtosc_arg_val_immediatelly
zynaddsubfx-ext-gui:rtosc_arg_val_is_immediatelly
zynaddsubfx-ext-gui:rtosc_arg_val_itr_get
zynaddsubfx-ext-gui:rtosc_arg_val_itr_init
zynaddsubfx-ext-gui:rtosc_arg_val_itr_next
zynaddsubfx-ext-gui:rtosc_arg_val_mult
zynaddsubfx-ext-gui:rtosc_arg_val_negate
zynaddsubfx-ext-gui:rtosc_arg_val_null
zynaddsubfx-ext-gui:rtosc_arg_val_range_arg
zynaddsubfx-ext-gui:rtosc_arg_val_round
zynaddsubfx-ext-gui:rtosc_arg_val_sub
zynaddsubfx-ext-gui:rtosc_arg_val_to_int
zynaddsubfx-ext-gui:rtosc_arg_vals_cmp
zynaddsubfx-ext-gui:rtosc_arg_vals_cmp_has_next
zynaddsubfx-ext-gui:rtosc_arg_vals_cmp_single
zynaddsubfx-ext-gui:rtosc_arg_vals_eq
zynaddsubfx-ext-gui:rtosc_arg_vals_eq_after_abort
zynaddsubfx-ext-gui:rtosc_arg_vals_eq_single
zynaddsubfx-ext-gui:rtosc_argument
zynaddsubfx-ext-gui:rtosc_argument_string
zynaddsubfx-ext-gui:rtosc_av_arr_len
zynaddsubfx-ext-gui:rtosc_av_arr_len_set
zynaddsubfx-ext-gui:rtosc_av_arr_type
zynaddsubfx-ext-gui:rtosc_av_arr_type_set
zynaddsubfx-ext-gui:rtosc_av_rep_has_delta
zynaddsubfx-ext-gui:rtosc_av_rep_has_delta_set
zynaddsubfx-ext-gui:rtosc_av_rep_num
zynaddsubfx-ext-gui:rtosc_av_rep_num_set
zynaddsubfx-ext-gui:rtosc_bundle
zynaddsubfx-ext-gui:rtosc_bundle_elements
zynaddsubfx-ext-gui:rtosc_bundle_fetch
zynaddsubfx-ext-gui:rtosc_bundle_p
zynaddsubfx-ext-gui:rtosc_bundle_size
zynaddsubfx-ext-gui:rtosc_bundle_timetag
zynaddsubfx-ext-gui:rtosc_count_printed_arg_vals
zynaddsubfx-ext-gui:rtosc_count_printed_arg_vals_of_msg
zynaddsubfx-ext-gui:rtosc_float2secfracs
zynaddsubfx-ext-gui:rtosc_itr_begin
zynaddsubfx-ext-gui:rtosc_itr_end
zynaddsubfx-ext-gui:rtosc_itr_next
zynaddsubfx-ext-gui:rtosc_match
zynaddsubfx-ext-gui:rtosc_match_full_path
zynaddsubfx-ext-gui:rtosc_match_options
zynaddsubfx-ext-gui:rtosc_match_partial
zynaddsubfx-ext-gui:rtosc_match_path
zynaddsubfx-ext-gui:rtosc_matchable_path
zynaddsubfx-ext-gui:rtosc_message
zynaddsubfx-ext-gui:rtosc_message_length
zynaddsubfx-ext-gui:rtosc_message_ring_length
zynaddsubfx-ext-gui:rtosc_narguments
zynaddsubfx-ext-gui:rtosc_params_from_arg_val
zynaddsubfx-ext-gui:rtosc_print_arg_val
zynaddsubfx-ext-gui:rtosc_print_arg_vals
zynaddsubfx-ext-gui:rtosc_print_message
zynaddsubfx-ext-gui:rtosc_scan_arg_val
zynaddsubfx-ext-gui:rtosc_scan_arg_vals
zynaddsubfx-ext-gui:rtosc_scan_message
zynaddsubfx-ext-gui:rtosc_secfracs2float
zynaddsubfx-ext-gui:rtosc_secfracs_from_arg_val
zynaddsubfx-ext-gui:rtosc_skip_next_printed_arg
zynaddsubfx-ext-gui:rtosc_subpath_pat_type
zynaddsubfx-ext-gui:rtosc_time_t_from_arg_val
zynaddsubfx-ext-gui:rtosc_type
zynaddsubfx-ext-gui:rtosc_v2argvals
zynaddsubfx-ext-gui:rtosc_valid_message_p
zynaddsubfx-ext-gui:rtosc_vmessage
zynaddsubfx-ext-gui:server
zynaddsubfx-ext-gui:types_match
zynaddsubfx-ext-gui:ui
