libgst1394.so:gst_plugin_1394_get_desc
libgst1394.so:gst_plugin_1394_register
libgstaasink.so:gst_plugin_aasink_get_desc
libgstaasink.so:gst_plugin_aasink_register
libgstadaptivedemux2.so:gst_plugin_adaptivedemux2_get_desc
libgstadaptivedemux2.so:gst_plugin_adaptivedemux2_register
libgstalaw.so:gst_plugin_alaw_get_desc
libgstalaw.so:gst_plugin_alaw_register
libgstalpha.so:gst_plugin_alpha_get_desc
libgstalpha.so:gst_plugin_alpha_register
libgstalphacolor.so:gst_plugin_alphacolor_get_desc
libgstalphacolor.so:gst_plugin_alphacolor_register
libgstapetag.so:gst_plugin_apetag_get_desc
libgstapetag.so:gst_plugin_apetag_register
libgstaudiofx.so:gst_plugin_audiofx_get_desc
libgstaudiofx.so:gst_plugin_audiofx_register
libgstaudioparsers.so:gst_plugin_audioparsers_get_desc
libgstaudioparsers.so:gst_plugin_audioparsers_register
libgstauparse.so:gst_plugin_auparse_get_desc
libgstauparse.so:gst_plugin_auparse_register
libgstautodetect.so:gst_plugin_autodetect_get_desc
libgstautodetect.so:gst_plugin_autodetect_register
libgstavi.so:gst_plugin_avi_get_desc
libgstavi.so:gst_plugin_avi_register
libgstcacasink.so:gst_plugin_cacasink_get_desc
libgstcacasink.so:gst_plugin_cacasink_register
libgstcairo.so:gst_plugin_cairo_get_desc
libgstcairo.so:gst_plugin_cairo_register
libgstcutter.so:gst_plugin_cutter_get_desc
libgstcutter.so:gst_plugin_cutter_register
libgstdebug.so:gst_plugin_debug_get_desc
libgstdebug.so:gst_plugin_debug_register
libgstdeinterlace.so:gst_plugin_deinterlace_get_desc
libgstdeinterlace.so:gst_plugin_deinterlace_register
libgstdtmf.so:gst_plugin_dtmf_get_desc
libgstdtmf.so:gst_plugin_dtmf_register
libgstdv.so:gst_plugin_dv_get_desc
libgstdv.so:gst_plugin_dv_register
libgsteffectv.so:gst_plugin_effectv_get_desc
libgsteffectv.so:gst_plugin_effectv_register
libgstequalizer.so:gst_plugin_equalizer_get_desc
libgstequalizer.so:gst_plugin_equalizer_register
libgstflac.so:gst_plugin_flac_get_desc
libgstflac.so:gst_plugin_flac_register
libgstflv.so:gst_plugin_flv_get_desc
libgstflv.so:gst_plugin_flv_register
libgstflxdec.so:gst_plugin_flxdec_get_desc
libgstflxdec.so:gst_plugin_flxdec_register
libgstgdkpixbuf.so:gst_plugin_gdkpixbuf_get_desc
libgstgdkpixbuf.so:gst_plugin_gdkpixbuf_register
libgstgoom.so:gst_plugin_goom_get_desc
libgstgoom.so:gst_plugin_goom_register
libgstgoom2k1.so:gst_plugin_goom2k1_get_desc
libgstgoom2k1.so:gst_plugin_goom2k1_register
libgstgtk.so:gst_plugin_gtk_get_desc
libgstgtk.so:gst_plugin_gtk_register
libgsticydemux.so:gst_plugin_icydemux_get_desc
libgsticydemux.so:gst_plugin_icydemux_register
libgstid3demux.so:gst_plugin_id3demux_get_desc
libgstid3demux.so:gst_plugin_id3demux_register
libgstimagefreeze.so:gst_plugin_imagefreeze_get_desc
libgstimagefreeze.so:gst_plugin_imagefreeze_register
libgstinterleave.so:gst_plugin_interleave_get_desc
libgstinterleave.so:gst_plugin_interleave_register
libgstisomp4.so:gst_plugin_isomp4_get_desc
libgstisomp4.so:gst_plugin_isomp4_register
libgstjack.so:gst_plugin_jack_get_desc
libgstjack.so:gst_plugin_jack_register
libgstjpeg.so:gst_plugin_jpeg_get_desc
libgstjpeg.so:gst_plugin_jpeg_register
libgstlame.so:gst_plugin_lame_get_desc
libgstlame.so:gst_plugin_lame_register
libgstlevel.so:gst_plugin_level_get_desc
libgstlevel.so:gst_plugin_level_register
libgstmatroska.so:gst_plugin_matroska_get_desc
libgstmatroska.so:gst_plugin_matroska_register
libgstmonoscope.so:gst_plugin_monoscope_get_desc
libgstmonoscope.so:gst_plugin_monoscope_register
libgstmpg123.so:gst_plugin_mpg123_get_desc
libgstmpg123.so:gst_plugin_mpg123_register
libgstmulaw.so:gst_plugin_mulaw_get_desc
libgstmulaw.so:gst_plugin_mulaw_register
libgstmultifile.so:gst_plugin_multifile_get_desc
libgstmultifile.so:gst_plugin_multifile_register
libgstmultipart.so:gst_plugin_multipart_get_desc
libgstmultipart.so:gst_plugin_multipart_register
libgstnavigationtest.so:gst_plugin_navigationtest_get_desc
libgstnavigationtest.so:gst_plugin_navigationtest_register
libgstoss4.so:gst_plugin_oss4_get_desc
libgstoss4.so:gst_plugin_oss4_register
libgstossaudio.so:gst_plugin_ossaudio_get_desc
libgstossaudio.so:gst_plugin_ossaudio_register
libgstpng.so:gst_plugin_png_get_desc
libgstpng.so:gst_plugin_png_register
libgstpulseaudio.so:gst_plugin_pulseaudio_get_desc
libgstpulseaudio.so:gst_plugin_pulseaudio_register
libgstqml6.so:_Z24qInitResources_resourcesv
libgstqml6.so:_Z27qCleanupResources_resourcesv
libgstqml6.so:_Z44qt_opengl_native_context_from_gst_gl_contextP13_GstGLContext
libgstqml6.so:_ZN11Qt6GLWindow11getGeometryEPiS0_
libgstqml6.so:_ZN11Qt6GLWindow11qt_metacallEN11QMetaObject4CallEiPPv
libgstqml6.so:_ZN11Qt6GLWindow11qt_metacastEPKc
libgstqml6.so:_ZN11Qt6GLWindow13afterFrameEndEv
libgstqml6.so:_ZN11Qt6GLWindow15beforeRenderingEv
libgstqml6.so:_ZN11Qt6GLWindow16staticMetaObjectE
libgstqml6.so:_ZN11Qt6GLWindow23onSceneGraphInitializedEv
libgstqml6.so:_ZN11Qt6GLWindow23onSceneGraphInvalidatedEv
libgstqml6.so:_ZN11Qt6GLWindowC1EP7QWindowP12QQuickWindow
libgstqml6.so:_ZN11Qt6GLWindowC2EP7QWindowP12QQuickWindow
libgstqml6.so:_ZN11Qt6GLWindowD0Ev
libgstqml6.so:_ZN11Qt6GLWindowD1Ev
libgstqml6.so:_ZN11Qt6GLWindowD2Ev
libgstqml6.so:_ZN13GstQSGTextureC1EP11QRhiTexture
libgstqml6.so:_ZN13GstQSGTextureC2EP11QRhiTexture
libgstqml6.so:_ZN13GstQSGTextureD0Ev
libgstqml6.so:_ZN13GstQSGTextureD1Ev
libgstqml6.so:_ZN13GstQSGTextureD2Ev
libgstqml6.so:_ZN14GstQSGMaterial12setFilteringEN10QSGTexture9FilteringE
libgstqml6.so:_ZN14GstQSGMaterial14compatibleWithEP13_GstVideoInfo
libgstqml6.so:_ZN14GstQSGMaterial14new_for_formatE14GstVideoFormat
libgstqml6.so:_ZN14GstQSGMaterial4bindEP20GstQSGMaterialShaderP4QRhiP23QRhiResourceUpdateBatchj14GstVideoFormat
libgstqml6.so:_ZN14GstQSGMaterial7setCapsEP8_GstCaps
libgstqml6.so:_ZN14GstQSGMaterial9getBufferEPb
libgstqml6.so:_ZN14GstQSGMaterial9setBufferEP10_GstBuffer
libgstqml6.so:_ZN14GstQSGMaterialC2Ev
libgstqml6.so:_ZN14GstQSGMaterialD0Ev
libgstqml6.so:_ZN14GstQSGMaterialD1Ev
libgstqml6.so:_ZN14GstQSGMaterialD2Ev
libgstqml6.so:_ZN14Qt6GLVideoItem10touchEventEP11QTouchEvent
libgstqml6.so:_ZN14Qt6GLVideoItem10wheelEventEP11QWheelEvent
libgstqml6.so:_ZN14Qt6GLVideoItem11qt_metacallEN11QMetaObject4CallEiPPv
libgstqml6.so:_ZN14Qt6GLVideoItem11qt_metacastEPKc
libgstqml6.so:_ZN14Qt6GLVideoItem14hoverMoveEventEP11QHoverEvent
libgstqml6.so:_ZN14Qt6GLVideoItem14sendMouseEventEP11QMouseEventi
libgstqml6.so:_ZN14Qt6GLVideoItem15hoverEnterEventEP11QHoverEvent
libgstqml6.so:_ZN14Qt6GLVideoItem15hoverLeaveEventEP11QHoverEvent
libgstqml6.so:_ZN14Qt6GLVideoItem15itemInitializedEv
libgstqml6.so:_ZN14Qt6GLVideoItem15mousePressEventEP11QMouseEvent
libgstqml6.so:_ZN14Qt6GLVideoItem15updatePaintNodeEP7QSGNodePN10QQuickItem19UpdatePaintNodeDataE
libgstqml6.so:_ZN14Qt6GLVideoItem16releaseResourcesEv
libgstqml6.so:_ZN14Qt6GLVideoItem16staticMetaObjectE
libgstqml6.so:_ZN14Qt6GLVideoItem17mouseReleaseEventEP11QMouseEvent
libgstqml6.so:_ZN14Qt6GLVideoItem19getForceAspectRatioEv
libgstqml6.so:_ZN14Qt6GLVideoItem19handleWindowChangedEP12QQuickWindow
libgstqml6.so:_ZN14Qt6GLVideoItem19setForceAspectRatioEb
libgstqml6.so:_ZN14Qt6GLVideoItem20mapPointToStreamSizeE7QPointF
libgstqml6.so:_ZN14Qt6GLVideoItem22itemInitializedChangedEv
libgstqml6.so:_ZN14Qt6GLVideoItem23forceAspectRatioChangedEb
libgstqml6.so:_ZN14Qt6GLVideoItem23onSceneGraphInitializedEv
libgstqml6.so:_ZN14Qt6GLVideoItem23onSceneGraphInvalidatedEv
libgstqml6.so:_ZN14Qt6GLVideoItem24fitStreamToAllocatedSizeEP18_GstVideoRectangle
libgstqml6.so:_ZN14Qt6GLVideoItem6getDAREPiS0_
libgstqml6.so:_ZN14Qt6GLVideoItem6setDAREii
libgstqml6.so:_ZN14Qt6GLVideoItemC1Ev
libgstqml6.so:_ZN14Qt6GLVideoItemC2Ev
libgstqml6.so:_ZN14Qt6GLVideoItemD0Ev
libgstqml6.so:_ZN14Qt6GLVideoItemD1Ev
libgstqml6.so:_ZN14Qt6GLVideoItemD2Ev
libgstqml6.so:_ZN18CreateSurfaceEvent15customEventTypeE
libgstqml6.so:_ZN19CreateSurfaceWorker11qt_metacallEN11QMetaObject4CallEiPPv
libgstqml6.so:_ZN19CreateSurfaceWorker11qt_metacastEPKc
libgstqml6.so:_ZN19CreateSurfaceWorker16staticMetaObjectE
libgstqml6.so:_ZN19CreateSurfaceWorker5eventEP6QEvent
libgstqml6.so:_ZN19CreateSurfaceWorkerC1EP16SharedRenderData
libgstqml6.so:_ZN19CreateSurfaceWorkerC2EP16SharedRenderData
libgstqml6.so:_ZN19CreateSurfaceWorkerD0Ev
libgstqml6.so:_ZN19CreateSurfaceWorkerD1Ev
libgstqml6.so:_ZN19CreateSurfaceWorkerD2Ev
libgstqml6.so:_ZN19GstQt6QuickRenderer11qt_metacallEN11QMetaObject4CallEiPPv
libgstqml6.so:_ZN19GstQt6QuickRenderer11qt_metacastEPKc
libgstqml6.so:_ZN19GstQt6QuickRenderer11renderGstGLEv
libgstqml6.so:_ZN19GstQt6QuickRenderer11setQmlSceneEPKcPP7_GError
libgstqml6.so:_ZN19GstQt6QuickRenderer11stopAfterGLEv
libgstqml6.so:_ZN19GstQt6QuickRenderer11updateSizesEv
libgstqml6.so:_ZN19GstQt6QuickRenderer13initializeQmlEv
libgstqml6.so:_ZN19GstQt6QuickRenderer14generateOutputEm
libgstqml6.so:_ZN19GstQt6QuickRenderer15activateContextEv
libgstqml6.so:_ZN19GstQt6QuickRenderer15initializeGstGLEv
libgstqml6.so:_ZN19GstQt6QuickRenderer16staticMetaObjectE
libgstqml6.so:_ZN19GstQt6QuickRenderer17deactivateContextEv
libgstqml6.so:_ZN19GstQt6QuickRenderer4initEP13_GstGLContextPP7_GError
libgstqml6.so:_ZN19GstQt6QuickRenderer6stopGLEv
libgstqml6.so:_ZN19GstQt6QuickRenderer7cleanupEv
libgstqml6.so:_ZN19GstQt6QuickRenderer7setSizeEii
libgstqml6.so:_ZN19GstQt6QuickRendererC1Ev
libgstqml6.so:_ZN19GstQt6QuickRendererC2Ev
libgstqml6.so:_ZN19GstQt6QuickRendererD0Ev
libgstqml6.so:_ZN19GstQt6QuickRendererD1Ev
libgstqml6.so:_ZN19GstQt6QuickRendererD2Ev
libgstqml6.so:_ZN20GstQSGMaterialShader17updateUniformDataERN17QSGMaterialShader11RenderStateEP11QSGMaterialS4_
libgstqml6.so:_ZN20GstQSGMaterialShader18updateSampledImageERN17QSGMaterialShader11RenderStateEiPP10QSGTextureP11QSGMaterialS7_
libgstqml6.so:_ZN20GstQSGMaterialShaderC1E14GstVideoFormat
libgstqml6.so:_ZN20GstQSGMaterialShaderC2E14GstVideoFormat
libgstqml6.so:_ZN20GstQSGMaterialShaderD0Ev
libgstqml6.so:_ZN20GstQSGMaterialShaderD1Ev
libgstqml6.so:_ZN20GstQSGMaterialShaderD2Ev
libgstqml6.so:_ZN20GstQt6BackingSurface7setSizeEii
libgstqml6.so:_ZN20GstQt6BackingSurfaceC1Ev
libgstqml6.so:_ZN20GstQt6BackingSurfaceC2Ev
libgstqml6.so:_ZN20GstQt6BackingSurfaceD0Ev
libgstqml6.so:_ZN20GstQt6BackingSurfaceD1Ev
libgstqml6.so:_ZN20GstQt6BackingSurfaceD2Ev
libgstqml6.so:_ZN21GstQt6AnimationDriver11setNextTimeEx
libgstqml6.so:_ZN21GstQt6AnimationDriver7advanceEv
libgstqml6.so:_ZN21GstQt6AnimationDriverC1Ev
libgstqml6.so:_ZN21GstQt6AnimationDriverC2Ev
libgstqml6.so:_ZN23Qt6GLVideoItemInterface10getContextEv
libgstqml6.so:_ZN23Qt6GLVideoItemInterface10getDisplayEv
libgstqml6.so:_ZN23Qt6GLVideoItemInterface10initWinSysEv
libgstqml6.so:_ZN23Qt6GLVideoItemInterface11qt_metacallEN11QMetaObject4CallEiPPv
libgstqml6.so:_ZN23Qt6GLVideoItemInterface11qt_metacastEPKc
libgstqml6.so:_ZN23Qt6GLVideoItemInterface12getQtContextEv
libgstqml6.so:_ZN23Qt6GLVideoItemInterface13invalidateRefEv
libgstqml6.so:_ZN23Qt6GLVideoItemInterface16staticMetaObjectE
libgstqml6.so:_ZN23Qt6GLVideoItemInterface19getForceAspectRatioEv
libgstqml6.so:_ZN23Qt6GLVideoItemInterface19setForceAspectRatioEb
libgstqml6.so:_ZN23Qt6GLVideoItemInterface6getDAREPiS0_
libgstqml6.so:_ZN23Qt6GLVideoItemInterface6setDAREii
libgstqml6.so:_ZN23Qt6GLVideoItemInterface7setCapsEP8_GstCaps
libgstqml6.so:_ZN23Qt6GLVideoItemInterface7setSinkEP11_GstElement
libgstqml6.so:_ZN23Qt6GLVideoItemInterface9setBufferEP10_GstBuffer
libgstqml6.so:_ZN27GstQSGMaterial_RGBA_SWIZZLEC1Ev
libgstqml6.so:_ZN27GstQSGMaterial_RGBA_SWIZZLEC2Ev
libgstqml6.so:_ZN27GstQSGMaterial_RGBA_SWIZZLED0Ev
libgstqml6.so:_ZN27GstQSGMaterial_RGBA_SWIZZLED1Ev
libgstqml6.so:_ZN27GstQSGMaterial_RGBA_SWIZZLED2Ev
libgstqml6.so:_ZN28GstQSGMaterial_YUV_TRIPLANARC1Ev
libgstqml6.so:_ZN28GstQSGMaterial_YUV_TRIPLANARC2Ev
libgstqml6.so:_ZN28GstQSGMaterial_YUV_TRIPLANARD0Ev
libgstqml6.so:_ZN28GstQSGMaterial_YUV_TRIPLANARD1Ev
libgstqml6.so:_ZN28GstQSGMaterial_YUV_TRIPLANARD2Ev
libgstqml6.so:_ZNK11Qt6GLWindow10metaObjectEv
libgstqml6.so:_ZNK13GstQSGTexture10rhiTextureEv
libgstqml6.so:_ZNK13GstQSGTexture11textureSizeEv
libgstqml6.so:_ZNK13GstQSGTexture13comparisonKeyEv
libgstqml6.so:_ZNK13GstQSGTexture15hasAlphaChannelEv
libgstqml6.so:_ZNK14GstQSGMaterial12createShaderEN20QSGRendererInterface10RenderModeE
libgstqml6.so:_ZNK14Qt6GLVideoItem10metaObjectEv
libgstqml6.so:_ZNK19CreateSurfaceWorker10metaObjectEv
libgstqml6.so:_ZNK19GstQt6QuickRenderer10metaObjectEv
libgstqml6.so:_ZNK19GstQt6QuickRenderer8rootItemEv
libgstqml6.so:_ZNK20GstQt6BackingSurface4sizeEv
libgstqml6.so:_ZNK21GstQt6AnimationDriver7elapsedEv
libgstqml6.so:_ZNK23Qt6GLVideoItemInterface10metaObjectEv
libgstqml6.so:_ZTI11Qt6GLWindow
libgstqml6.so:_ZTI13GstQSGTexture
libgstqml6.so:_ZTI14GstQSGMaterial
libgstqml6.so:_ZTI14Qt6GLVideoItem
libgstqml6.so:_ZTI19CreateSurfaceWorker
libgstqml6.so:_ZTI19GstQt6QuickRenderer
libgstqml6.so:_ZTI20GstQSGMaterialShader
libgstqml6.so:_ZTI20GstQt6BackingSurface
libgstqml6.so:_ZTI21GstQt6AnimationDriver
libgstqml6.so:_ZTI23Qt6GLVideoItemInterface
libgstqml6.so:_ZTI27GstQSGMaterial_RGBA_SWIZZLE
libgstqml6.so:_ZTI28GstQSGMaterial_YUV_TRIPLANAR
libgstqml6.so:_ZTS11Qt6GLWindow
libgstqml6.so:_ZTS13GstQSGTexture
libgstqml6.so:_ZTS14GstQSGMaterial
libgstqml6.so:_ZTS14Qt6GLVideoItem
libgstqml6.so:_ZTS19CreateSurfaceWorker
libgstqml6.so:_ZTS19GstQt6QuickRenderer
libgstqml6.so:_ZTS20GstQSGMaterialShader
libgstqml6.so:_ZTS20GstQt6BackingSurface
libgstqml6.so:_ZTS21GstQt6AnimationDriver
libgstqml6.so:_ZTS23Qt6GLVideoItemInterface
libgstqml6.so:_ZTS27GstQSGMaterial_RGBA_SWIZZLE
libgstqml6.so:_ZTS28GstQSGMaterial_YUV_TRIPLANAR
libgstqml6.so:_ZTV11Qt6GLWindow
libgstqml6.so:_ZTV13GstQSGTexture
libgstqml6.so:_ZTV14GstQSGMaterial
libgstqml6.so:_ZTV14Qt6GLVideoItem
libgstqml6.so:_ZTV19CreateSurfaceWorker
libgstqml6.so:_ZTV19GstQt6QuickRenderer
libgstqml6.so:_ZTV20GstQSGMaterialShader
libgstqml6.so:_ZTV20GstQt6BackingSurface
libgstqml6.so:_ZTV21GstQt6AnimationDriver
libgstqml6.so:_ZTV23Qt6GLVideoItemInterface
libgstqml6.so:_ZTV27GstQSGMaterial_RGBA_SWIZZLE
libgstqml6.so:_ZTV28GstQSGMaterial_YUV_TRIPLANAR
libgstqml6.so:_ZThn16_N11Qt6GLWindowD0Ev
libgstqml6.so:_ZThn16_N11Qt6GLWindowD1Ev
libgstqml6.so:_ZThn16_N14Qt6GLVideoItemD0Ev
libgstqml6.so:_ZThn16_N14Qt6GLVideoItemD1Ev
libgstqml6.so:_ZThn16_N20GstQt6BackingSurfaceD0Ev
libgstqml6.so:_ZThn16_N20GstQt6BackingSurfaceD1Ev
libgstqml6.so:_ZThn16_NK20GstQt6BackingSurface4sizeEv
libgstqml6.so:gst_debug_qml6_gl_mixer
libgstqml6.so:gst_debug_qml6_gl_overlay
libgstqml6.so:gst_debug_qml6_gl_sink
libgstqml6.so:gst_debug_qml6_gl_src
libgstqml6.so:gst_element_register_qml6glmixer
libgstqml6.so:gst_element_register_qml6gloverlay
libgstqml6.so:gst_element_register_qml6glsink
libgstqml6.so:gst_element_register_qml6glsrc
libgstqml6.so:gst_plugin_qml6_get_desc
libgstqml6.so:gst_plugin_qml6_register
libgstqml6.so:gst_qml6_get_gl_display
libgstqml6.so:gst_qml6_get_gl_wrapcontext
libgstqml6.so:gst_qml6_gl_mixer_get_type
libgstqml6.so:gst_qml6_gl_mixer_pad_get_type
libgstqml6.so:gst_qml6_gl_overlay_get_type
libgstqml6.so:gst_qml6_gl_sink_get_type
libgstqml6.so:gst_qml6_gl_src_get_type
libgstqml6.so:qt6_element_init
libgstqml6.so:qt6_gl_window_get_context
libgstqml6.so:qt6_gl_window_get_display
libgstqml6.so:qt6_gl_window_get_qt_context
libgstqml6.so:qt6_gl_window_is_scenegraph_initialized
libgstqml6.so:qt6_gl_window_set_context
libgstqml6.so:qt6_gl_window_take_buffer
libgstqml6.so:qt6_gl_window_unlock
libgstqml6.so:qt6_gl_window_unlock_stop
libgstqml6.so:qt6_gl_window_use_default_fbo
libgstqmlgl.so:_Z44qt_opengl_native_context_from_gst_gl_contextP13_GstGLContext
libgstqmlgl.so:_ZN10QtGLWindow11aboutToQuitEv
libgstqmlgl.so:_ZN10QtGLWindow11getGeometryEPiS0_
libgstqmlgl.so:_ZN10QtGLWindow11qt_metacallEN11QMetaObject4CallEiPPv
libgstqmlgl.so:_ZN10QtGLWindow11qt_metacastEPKc
libgstqmlgl.so:_ZN10QtGLWindow14afterRenderingEv
libgstqmlgl.so:_ZN10QtGLWindow15beforeRenderingEv
libgstqmlgl.so:_ZN10QtGLWindow16staticMetaObjectE
libgstqmlgl.so:_ZN10QtGLWindow23onSceneGraphInitializedEv
libgstqmlgl.so:_ZN10QtGLWindow23onSceneGraphInvalidatedEv
libgstqmlgl.so:_ZN10QtGLWindowC1EP7QWindowP12QQuickWindow
libgstqmlgl.so:_ZN10QtGLWindowC2EP7QWindowP12QQuickWindow
libgstqmlgl.so:_ZN10QtGLWindowD0Ev
libgstqmlgl.so:_ZN10QtGLWindowD1Ev
libgstqmlgl.so:_ZN10QtGLWindowD2Ev
libgstqmlgl.so:_ZN13QtGLVideoItem10touchEventEP11QTouchEvent
libgstqmlgl.so:_ZN13QtGLVideoItem10wheelEventEP11QWheelEvent
libgstqmlgl.so:_ZN13QtGLVideoItem11qt_metacallEN11QMetaObject4CallEiPPv
libgstqmlgl.so:_ZN13QtGLVideoItem11qt_metacastEPKc
libgstqmlgl.so:_ZN13QtGLVideoItem14hoverMoveEventEP11QHoverEvent
libgstqmlgl.so:_ZN13QtGLVideoItem14sendMouseEventEP11QMouseEventi
libgstqmlgl.so:_ZN13QtGLVideoItem15hoverEnterEventEP11QHoverEvent
libgstqmlgl.so:_ZN13QtGLVideoItem15hoverLeaveEventEP11QHoverEvent
libgstqmlgl.so:_ZN13QtGLVideoItem15itemInitializedEv
libgstqmlgl.so:_ZN13QtGLVideoItem15mousePressEventEP11QMouseEvent
libgstqmlgl.so:_ZN13QtGLVideoItem15updatePaintNodeEP7QSGNodePN10QQuickItem19UpdatePaintNodeDataE
libgstqmlgl.so:_ZN13QtGLVideoItem16staticMetaObjectE
libgstqmlgl.so:_ZN13QtGLVideoItem17mouseReleaseEventEP11QMouseEvent
libgstqmlgl.so:_ZN13QtGLVideoItem19getForceAspectRatioEv
libgstqmlgl.so:_ZN13QtGLVideoItem19handleWindowChangedEP12QQuickWindow
libgstqmlgl.so:_ZN13QtGLVideoItem19setForceAspectRatioEb
libgstqmlgl.so:_ZN13QtGLVideoItem20mapPointToStreamSizeE7QPointF
libgstqmlgl.so:_ZN13QtGLVideoItem22itemInitializedChangedEv
libgstqmlgl.so:_ZN13QtGLVideoItem23forceAspectRatioChangedEb
libgstqmlgl.so:_ZN13QtGLVideoItem23onSceneGraphInitializedEv
libgstqmlgl.so:_ZN13QtGLVideoItem23onSceneGraphInvalidatedEv
libgstqmlgl.so:_ZN13QtGLVideoItem24fitStreamToAllocatedSizeEP18_GstVideoRectangle
libgstqmlgl.so:_ZN13QtGLVideoItem6getDAREPiS0_
libgstqmlgl.so:_ZN13QtGLVideoItem6setDAREii
libgstqmlgl.so:_ZN13QtGLVideoItemC1Ev
libgstqmlgl.so:_ZN13QtGLVideoItemC2Ev
libgstqmlgl.so:_ZN13QtGLVideoItemD0Ev
libgstqmlgl.so:_ZN13QtGLVideoItemD1Ev
libgstqmlgl.so:_ZN13QtGLVideoItemD2Ev
libgstqmlgl.so:_ZN14GstQSGMaterial14compatibleWithEP13_GstVideoInfo
libgstqmlgl.so:_ZN14GstQSGMaterial14initYuvShadersEP20GstQSGMaterialShaderPK19GstVideoColorimetry
libgstqmlgl.so:_ZN14GstQSGMaterial14new_for_formatE14GstVideoFormat
libgstqmlgl.so:_ZN14GstQSGMaterial4bindEP20GstQSGMaterialShader14GstVideoFormat
libgstqmlgl.so:_ZN14GstQSGMaterial7setCapsEP8_GstCaps
libgstqmlgl.so:_ZN14GstQSGMaterial9getBufferEPi
libgstqmlgl.so:_ZN14GstQSGMaterial9setBufferEP10_GstBuffer
libgstqmlgl.so:_ZN14GstQSGMaterialC2Ev
libgstqmlgl.so:_ZN14GstQSGMaterialD0Ev
libgstqmlgl.so:_ZN14GstQSGMaterialD1Ev
libgstqmlgl.so:_ZN14GstQSGMaterialD2Ev
libgstqmlgl.so:_ZN16GstQuickRenderer11qt_metacallEN11QMetaObject4CallEiPPv
libgstqmlgl.so:_ZN16GstQuickRenderer11qt_metacastEPKc
libgstqmlgl.so:_ZN16GstQuickRenderer11renderGstGLEv
libgstqmlgl.so:_ZN16GstQuickRenderer11setQmlSceneEPKcPP7_GError
libgstqmlgl.so:_ZN16GstQuickRenderer11updateSizesEv
libgstqmlgl.so:_ZN16GstQuickRenderer13initializeQmlEv
libgstqmlgl.so:_ZN16GstQuickRenderer14generateOutputEm
libgstqmlgl.so:_ZN16GstQuickRenderer15activateContextEv
libgstqmlgl.so:_ZN16GstQuickRenderer15initializeGstGLEv
libgstqmlgl.so:_ZN16GstQuickRenderer16staticMetaObjectE
libgstqmlgl.so:_ZN16GstQuickRenderer17deactivateContextEv
libgstqmlgl.so:_ZN16GstQuickRenderer4initEP13_GstGLContextPP7_GError
libgstqmlgl.so:_ZN16GstQuickRenderer6stopGLEv
libgstqmlgl.so:_ZN16GstQuickRenderer7cleanupEv
libgstqmlgl.so:_ZN16GstQuickRenderer7setSizeEii
libgstqmlgl.so:_ZN16GstQuickRenderer9ensureFboEv
libgstqmlgl.so:_ZN16GstQuickRendererC1Ev
libgstqmlgl.so:_ZN16GstQuickRendererC2Ev
libgstqmlgl.so:_ZN16GstQuickRendererD0Ev
libgstqmlgl.so:_ZN16GstQuickRendererD1Ev
libgstqmlgl.so:_ZN16GstQuickRendererD2Ev
libgstqmlgl.so:_ZN17GstBackingSurface7setSizeEii
libgstqmlgl.so:_ZN17GstBackingSurfaceC1Ev
libgstqmlgl.so:_ZN17GstBackingSurfaceC2Ev
libgstqmlgl.so:_ZN17GstBackingSurfaceD0Ev
libgstqmlgl.so:_ZN17GstBackingSurfaceD1Ev
libgstqmlgl.so:_ZN17GstBackingSurfaceD2Ev
libgstqmlgl.so:_ZN18CreateSurfaceEvent15customEventTypeE
libgstqmlgl.so:_ZN18GstAnimationDriver11setNextTimeEx
libgstqmlgl.so:_ZN18GstAnimationDriver7advanceEv
libgstqmlgl.so:_ZN18GstAnimationDriverC1Ev
libgstqmlgl.so:_ZN18GstAnimationDriverC2Ev
libgstqmlgl.so:_ZN19CreateSurfaceWorker11qt_metacallEN11QMetaObject4CallEiPPv
libgstqmlgl.so:_ZN19CreateSurfaceWorker11qt_metacastEPKc
libgstqmlgl.so:_ZN19CreateSurfaceWorker16staticMetaObjectE
libgstqmlgl.so:_ZN19CreateSurfaceWorker5eventEP6QEvent
libgstqmlgl.so:_ZN19CreateSurfaceWorkerC1EP16SharedRenderData
libgstqmlgl.so:_ZN19CreateSurfaceWorkerC2EP16SharedRenderData
libgstqmlgl.so:_ZN19CreateSurfaceWorkerD0Ev
libgstqmlgl.so:_ZN19CreateSurfaceWorkerD1Ev
libgstqmlgl.so:_ZN19CreateSurfaceWorkerD2Ev
libgstqmlgl.so:_ZN19GstQSGMaterial_RGBAC1Ev
libgstqmlgl.so:_ZN19GstQSGMaterial_RGBAC2Ev
libgstqmlgl.so:_ZN19GstQSGMaterial_RGBAD0Ev
libgstqmlgl.so:_ZN19GstQSGMaterial_RGBAD1Ev
libgstqmlgl.so:_ZN19GstQSGMaterial_RGBAD2Ev
libgstqmlgl.so:_ZN20GstQSGMaterialShaderC1E14GstVideoFormatPcS1_
libgstqmlgl.so:_ZN20GstQSGMaterialShaderC2E14GstVideoFormatPcS1_
libgstqmlgl.so:_ZN20GstQSGMaterialShaderD0Ev
libgstqmlgl.so:_ZN20GstQSGMaterialShaderD1Ev
libgstqmlgl.so:_ZN20GstQSGMaterialShaderD2Ev
libgstqmlgl.so:_ZN22QtGLVideoItemInterface10getContextEv
libgstqmlgl.so:_ZN22QtGLVideoItemInterface10getDisplayEv
libgstqmlgl.so:_ZN22QtGLVideoItemInterface10initWinSysEv
libgstqmlgl.so:_ZN22QtGLVideoItemInterface11qt_metacallEN11QMetaObject4CallEiPPv
libgstqmlgl.so:_ZN22QtGLVideoItemInterface11qt_metacastEPKc
libgstqmlgl.so:_ZN22QtGLVideoItemInterface12getQtContextEv
libgstqmlgl.so:_ZN22QtGLVideoItemInterface13invalidateRefEv
libgstqmlgl.so:_ZN22QtGLVideoItemInterface16staticMetaObjectE
libgstqmlgl.so:_ZN22QtGLVideoItemInterface19getForceAspectRatioEv
libgstqmlgl.so:_ZN22QtGLVideoItemInterface19setForceAspectRatioEb
libgstqmlgl.so:_ZN22QtGLVideoItemInterface6getDAREPiS0_
libgstqmlgl.so:_ZN22QtGLVideoItemInterface6setDAREii
libgstqmlgl.so:_ZN22QtGLVideoItemInterface7setCapsEP8_GstCaps
libgstqmlgl.so:_ZN22QtGLVideoItemInterface7setSinkEP11_GstElement
libgstqmlgl.so:_ZN22QtGLVideoItemInterface9setBufferEP10_GstBuffer
libgstqmlgl.so:_ZN27GstQSGMaterial_RGBA_SWIZZLEC1Ev
libgstqmlgl.so:_ZN27GstQSGMaterial_RGBA_SWIZZLEC2Ev
libgstqmlgl.so:_ZN27GstQSGMaterial_RGBA_SWIZZLED0Ev
libgstqmlgl.so:_ZN27GstQSGMaterial_RGBA_SWIZZLED1Ev
libgstqmlgl.so:_ZN27GstQSGMaterial_RGBA_SWIZZLED2Ev
libgstqmlgl.so:_ZN28GstQSGMaterial_YUV_TRIPLANARC1Ev
libgstqmlgl.so:_ZN28GstQSGMaterial_YUV_TRIPLANARC2Ev
libgstqmlgl.so:_ZN28GstQSGMaterial_YUV_TRIPLANARD0Ev
libgstqmlgl.so:_ZN28GstQSGMaterial_YUV_TRIPLANARD1Ev
libgstqmlgl.so:_ZN28GstQSGMaterial_YUV_TRIPLANARD2Ev
libgstqmlgl.so:_ZNK10QtGLWindow10metaObjectEv
libgstqmlgl.so:_ZNK13QtGLVideoItem10metaObjectEv
libgstqmlgl.so:_ZNK14GstQSGMaterial12createShaderEv
libgstqmlgl.so:_ZNK16GstQuickRenderer10metaObjectEv
libgstqmlgl.so:_ZNK16GstQuickRenderer8rootItemEv
libgstqmlgl.so:_ZNK17GstBackingSurface4sizeEv
libgstqmlgl.so:_ZNK18GstAnimationDriver7elapsedEv
libgstqmlgl.so:_ZNK19CreateSurfaceWorker10metaObjectEv
libgstqmlgl.so:_ZNK20GstQSGMaterialShader12vertexShaderEv
libgstqmlgl.so:_ZNK20GstQSGMaterialShader14fragmentShaderEv
libgstqmlgl.so:_ZNK22QtGLVideoItemInterface10metaObjectEv
libgstqmlgl.so:_ZTI10QtGLWindow
libgstqmlgl.so:_ZTI13QtGLVideoItem
libgstqmlgl.so:_ZTI14GstQSGMaterial
libgstqmlgl.so:_ZTI16GstQuickRenderer
libgstqmlgl.so:_ZTI17GstBackingSurface
libgstqmlgl.so:_ZTI18GstAnimationDriver
libgstqmlgl.so:_ZTI19CreateSurfaceWorker
libgstqmlgl.so:_ZTI19GstQSGMaterial_RGBA
libgstqmlgl.so:_ZTI20GstQSGMaterialShader
libgstqmlgl.so:_ZTI22QtGLVideoItemInterface
libgstqmlgl.so:_ZTI27GstQSGMaterial_RGBA_SWIZZLE
libgstqmlgl.so:_ZTI28GstQSGMaterial_YUV_TRIPLANAR
libgstqmlgl.so:_ZTS10QtGLWindow
libgstqmlgl.so:_ZTS13QtGLVideoItem
libgstqmlgl.so:_ZTS14GstQSGMaterial
libgstqmlgl.so:_ZTS16GstQuickRenderer
libgstqmlgl.so:_ZTS17GstBackingSurface
libgstqmlgl.so:_ZTS18GstAnimationDriver
libgstqmlgl.so:_ZTS19CreateSurfaceWorker
libgstqmlgl.so:_ZTS19GstQSGMaterial_RGBA
libgstqmlgl.so:_ZTS20GstQSGMaterialShader
libgstqmlgl.so:_ZTS22QtGLVideoItemInterface
libgstqmlgl.so:_ZTS27GstQSGMaterial_RGBA_SWIZZLE
libgstqmlgl.so:_ZTS28GstQSGMaterial_YUV_TRIPLANAR
libgstqmlgl.so:_ZTV10QtGLWindow
libgstqmlgl.so:_ZTV13QtGLVideoItem
libgstqmlgl.so:_ZTV14GstQSGMaterial
libgstqmlgl.so:_ZTV16GstQuickRenderer
libgstqmlgl.so:_ZTV17GstBackingSurface
libgstqmlgl.so:_ZTV18GstAnimationDriver
libgstqmlgl.so:_ZTV19CreateSurfaceWorker
libgstqmlgl.so:_ZTV19GstQSGMaterial_RGBA
libgstqmlgl.so:_ZTV20GstQSGMaterialShader
libgstqmlgl.so:_ZTV22QtGLVideoItemInterface
libgstqmlgl.so:_ZTV27GstQSGMaterial_RGBA_SWIZZLE
libgstqmlgl.so:_ZTV28GstQSGMaterial_YUV_TRIPLANAR
libgstqmlgl.so:_ZThn16_N10QtGLWindowD0Ev
libgstqmlgl.so:_ZThn16_N10QtGLWindowD1Ev
libgstqmlgl.so:_ZThn16_N13QtGLVideoItemD0Ev
libgstqmlgl.so:_ZThn16_N13QtGLVideoItemD1Ev
libgstqmlgl.so:_ZThn16_N17GstBackingSurfaceD0Ev
libgstqmlgl.so:_ZThn16_N17GstBackingSurfaceD1Ev
libgstqmlgl.so:_ZThn16_NK17GstBackingSurface4sizeEv
libgstqmlgl.so:gst_debug_qt_gl_overlay
libgstqmlgl.so:gst_debug_qt_gl_sink
libgstqmlgl.so:gst_debug_qt_gl_src
libgstqmlgl.so:gst_element_register_qmlgloverlay
libgstqmlgl.so:gst_element_register_qmlglsink
libgstqmlgl.so:gst_element_register_qmlglsrc
libgstqmlgl.so:gst_plugin_qmlgl_get_desc
libgstqmlgl.so:gst_plugin_qmlgl_register
libgstqmlgl.so:gst_qt_get_gl_display
libgstqmlgl.so:gst_qt_get_gl_wrapcontext
libgstqmlgl.so:gst_qt_overlay_get_type
libgstqmlgl.so:gst_qt_sink_get_type
libgstqmlgl.so:gst_qt_src_get_type
libgstqmlgl.so:qt5_element_init
libgstqmlgl.so:qt_window_get_context
libgstqmlgl.so:qt_window_get_display
libgstqmlgl.so:qt_window_get_qt_context
libgstqmlgl.so:qt_window_is_scenegraph_initialized
libgstqmlgl.so:qt_window_set_buffer
libgstqmlgl.so:qt_window_set_caps
libgstqmlgl.so:qt_window_set_context
libgstqmlgl.so:qt_window_stop
libgstqmlgl.so:qt_window_use_default_fbo
libgstreplaygain.so:gst_plugin_replaygain_get_desc
libgstreplaygain.so:gst_plugin_replaygain_register
libgstrtp.so:gst_plugin_rtp_get_desc
libgstrtp.so:gst_plugin_rtp_register
libgstrtpmanager.so:gst_plugin_rtpmanager_get_desc
libgstrtpmanager.so:gst_plugin_rtpmanager_register
libgstrtsp.so:gst_plugin_rtsp_get_desc
libgstrtsp.so:gst_plugin_rtsp_register
libgstshapewipe.so:gst_plugin_shapewipe_get_desc
libgstshapewipe.so:gst_plugin_shapewipe_register
libgstshout2.so:gst_plugin_shout2_get_desc
libgstshout2.so:gst_plugin_shout2_register
libgstsmpte.so:gst_plugin_smpte_get_desc
libgstsmpte.so:gst_plugin_smpte_register
libgstsoup.so:gst_plugin_soup_get_desc
libgstsoup.so:gst_plugin_soup_register
libgstspectrum.so:gst_plugin_spectrum_get_desc
libgstspectrum.so:gst_plugin_spectrum_register
libgstspeex.so:gst_plugin_speex_get_desc
libgstspeex.so:gst_plugin_speex_register
libgsttaglib.so:gst_plugin_taglib_get_desc
libgsttaglib.so:gst_plugin_taglib_register
libgsttwolame.so:gst_plugin_twolame_get_desc
libgsttwolame.so:gst_plugin_twolame_register
libgstudp.so:gst_plugin_udp_get_desc
libgstudp.so:gst_plugin_udp_register
libgstvideo4linux2.so:gst_plugin_video4linux2_get_desc
libgstvideo4linux2.so:gst_plugin_video4linux2_register
libgstvideobox.so:gst_plugin_videobox_get_desc
libgstvideobox.so:gst_plugin_videobox_register
libgstvideocrop.so:gst_plugin_videocrop_get_desc
libgstvideocrop.so:gst_plugin_videocrop_register
libgstvideofilter.so:gst_plugin_videofilter_get_desc
libgstvideofilter.so:gst_plugin_videofilter_register
libgstvideomixer.so:gst_plugin_videomixer_get_desc
libgstvideomixer.so:gst_plugin_videomixer_register
libgstvpx.so:gst_plugin_vpx_get_desc
libgstvpx.so:gst_plugin_vpx_register
libgstwavenc.so:gst_plugin_wavenc_get_desc
libgstwavenc.so:gst_plugin_wavenc_register
libgstwavpack.so:gst_plugin_wavpack_get_desc
libgstwavpack.so:gst_plugin_wavpack_register
libgstwavparse.so:gst_plugin_wavparse_get_desc
libgstwavparse.so:gst_plugin_wavparse_register
libgstximagesrc.so:gst_plugin_ximagesrc_get_desc
libgstximagesrc.so:gst_plugin_ximagesrc_register
libgstxingmux.so:gst_plugin_xingmux_get_desc
libgstxingmux.so:gst_plugin_xingmux_register
libgsty4menc.so:gst_plugin_y4menc_get_desc
libgsty4menc.so:gst_plugin_y4menc_register
