cmdtocanonij2:__bss_start
cmdtocanonij2:_edata
cmdtocanonij2:_end
cmdtocanonij2:stderr
cmdtocanonij3:stderr
cnijbe2:stderr
cnijbe2:stdin
cnijlgmon3:__bss_start
cnijlgmon3:_edata
cnijlgmon3:_end
cnijlgmon3:stderr
cnijlgmon3:stdin
cnijlgmon3:stdout
libcnbpcnclapicom2.so:
libcnbpcnclapicom2.so:ATELIER_PRINTER_LIST
libcnbpcnclapicom2.so:ATELIER_REQUEST_VERSION_INFO_LIST
libcnbpcnclapicom2.so:BJNP_PRINTER_LIST_14AUTUMN
libcnbpcnclapicom2.so:BJVS4sToString
libcnbpcnclapicom2.so:BJVSCatString
libcnbpcnclapicom2.so:BJVSCheckEndian
libcnbpcnclapicom2.so:BJVSCompData
libcnbpcnclapicom2.so:BJVSCompDataX
libcnbpcnclapicom2.so:BJVSCompString
libcnbpcnclapicom2.so:BJVSCopyData
libcnbpcnclapicom2.so:BJVSCopyDataX
libcnbpcnclapicom2.so:BJVSCopyString
libcnbpcnclapicom2.so:BJVSDisposeHNDL
libcnbpcnclapicom2.so:BJVSDisposePTR
libcnbpcnclapicom2.so:BJVSDisposePTRX
libcnbpcnclapicom2.so:BJVSForwardSearchByte
libcnbpcnclapicom2.so:BJVSForwardSearchData
libcnbpcnclapicom2.so:BJVSGetLenOfString
libcnbpcnclapicom2.so:BJVSGetSystemInfo
libcnbpcnclapicom2.so:BJVSLockHNDL
libcnbpcnclapicom2.so:BJVSNewHNDL
libcnbpcnclapicom2.so:BJVSNewPTR
libcnbpcnclapicom2.so:BJVSNewPTRX
libcnbpcnclapicom2.so:BJVSReverseSearchByte
libcnbpcnclapicom2.so:BJVSReverseSearchData
libcnbpcnclapicom2.so:BJVSSetData
libcnbpcnclapicom2.so:BJVSSetDataX
libcnbpcnclapicom2.so:BJVSStringTo4s
libcnbpcnclapicom2.so:BJVSSwapData
libcnbpcnclapicom2.so:BJVSUnlockHNDL
libcnbpcnclapicom2.so:CLSS_AutoMakeOtherPrintSettings
libcnbpcnclapicom2.so:CLSS_AutoMakePrintSettings
libcnbpcnclapicom2.so:CLSS_DICNUM_BORDERLESS
libcnbpcnclapicom2.so:CLSS_DICNUM_COLORMODE
libcnbpcnclapicom2.so:CLSS_DICNUM_DATAFORMAT
libcnbpcnclapicom2.so:CLSS_DICNUM_DEVICE_SIDE_GUIDE
libcnbpcnclapicom2.so:CLSS_DICNUM_DUPLEXPRINT
libcnbpcnclapicom2.so:CLSS_DICNUM_HOST_ENVIRONMENT
libcnbpcnclapicom2.so:CLSS_DICNUM_IJOPERATION
libcnbpcnclapicom2.so:CLSS_DICNUM_INKGROUP
libcnbpcnclapicom2.so:CLSS_DICNUM_INPUTBIN
libcnbpcnclapicom2.so:CLSS_DICNUM_JOBPROGRESS
libcnbpcnclapicom2.so:CLSS_DICNUM_MACADDRESS_SORT
libcnbpcnclapicom2.so:CLSS_DICNUM_MISMATCH_MODE
libcnbpcnclapicom2.so:CLSS_DICNUM_NEXTPAGE
libcnbpcnclapicom2.so:CLSS_DICNUM_OPERATION
libcnbpcnclapicom2.so:CLSS_DICNUM_PANEL_PAPERTYPE
libcnbpcnclapicom2.so:CLSS_DICNUM_PAPERSIZE
libcnbpcnclapicom2.so:CLSS_DICNUM_PAPERTYPE
libcnbpcnclapicom2.so:CLSS_DICNUM_PLI_AGR
libcnbpcnclapicom2.so:CLSS_DICNUM_PRINT_PREPARATION
libcnbpcnclapicom2.so:CLSS_DICNUM_REMOTEUI_GUIDE
libcnbpcnclapicom2.so:CLSS_DICNUM_REMOTEUI_PAGELINK
libcnbpcnclapicom2.so:CLSS_DICNUM_REMOTEUI_PAGELINK_TYPEA
libcnbpcnclapicom2.so:CLSS_DICNUM_RESDETAIL
libcnbpcnclapicom2.so:CLSS_DICNUM_RESPONSE
libcnbpcnclapicom2.so:CLSS_DICNUM_STAPLESIDE
libcnbpcnclapicom2.so:CLSS_DICNUM_STATE
libcnbpcnclapicom2.so:CLSS_DICNUM_STATUS
libcnbpcnclapicom2.so:CLSS_DICNUM_STATUSDETAIL
libcnbpcnclapicom2.so:CLSS_DICNUM_SUBMODEL
libcnbpcnclapicom2.so:CLSS_DICNUM_TCA
libcnbpcnclapicom2.so:CLSS_GetAtelierRequestVersionInfo
libcnbpcnclapicom2.so:CLSS_GetCommandOperationPair
libcnbpcnclapicom2.so:CLSS_GetOperationPair
libcnbpcnclapicom2.so:CLSS_GetPaperOutwardSize
libcnbpcnclapicom2.so:CLSS_GetParsePossibleMedia
libcnbpcnclapicom2.so:CLSS_GetParsePossibleMediaNum
libcnbpcnclapicom2.so:CLSS_GetParsePossibleSize
libcnbpcnclapicom2.so:CLSS_GetParsePossibleSizeNum
libcnbpcnclapicom2.so:CLSS_GetProtocol
libcnbpcnclapicom2.so:CLSS_HasIVEC
libcnbpcnclapicom2.so:CLSS_HasPLI
libcnbpcnclapicom2.so:CLSS_IsDiscLabelPrintSettings
libcnbpcnclapicom2.so:CLSS_IsSupportAtelier
libcnbpcnclapicom2.so:CLSS_IsSupportBJNP_From14Autumn
libcnbpcnclapicom2.so:CLSS_IsSupportMinP
libcnbpcnclapicom2.so:CLSS_MakeCommand_AutoRegistration
libcnbpcnclapicom2.so:CLSS_MakeCommand_CancelJob
libcnbpcnclapicom2.so:CLSS_MakeCommand_Cleaning
libcnbpcnclapicom2.so:CLSS_MakeCommand_EndJob
libcnbpcnclapicom2.so:CLSS_MakeCommand_FRomUpMode
libcnbpcnclapicom2.so:CLSS_MakeCommand_GetCapability
libcnbpcnclapicom2.so:CLSS_MakeCommand_GetConfiguration
libcnbpcnclapicom2.so:CLSS_MakeCommand_GetJobIDList
libcnbpcnclapicom2.so:CLSS_MakeCommand_GetStatusDevice
libcnbpcnclapicom2.so:CLSS_MakeCommand_GetStatusMaintenance
libcnbpcnclapicom2.so:CLSS_MakeCommand_GetStatusPrint
libcnbpcnclapicom2.so:CLSS_MakeCommand_Handoveroff
libcnbpcnclapicom2.so:CLSS_MakeCommand_ModeShift
libcnbpcnclapicom2.so:CLSS_MakeCommand_PowerOff
libcnbpcnclapicom2.so:CLSS_MakeCommand_SendDataJPEG
libcnbpcnclapicom2.so:CLSS_MakeCommand_SendDataJPEGPAGE
libcnbpcnclapicom2.so:CLSS_MakeCommand_SendDataPWGRaster
libcnbpcnclapicom2.so:CLSS_MakeCommand_SendDataRAW
libcnbpcnclapicom2.so:CLSS_MakeCommand_SetConfigurationDevice
libcnbpcnclapicom2.so:CLSS_MakeCommand_SetConfigurationNS
libcnbpcnclapicom2.so:CLSS_MakeCommand_SetJobConfiguration
libcnbpcnclapicom2.so:CLSS_MakeCommand_SetJobConfiguration_Maintenance
libcnbpcnclapicom2.so:CLSS_MakeCommand_SetPageConfiguration
libcnbpcnclapicom2.so:CLSS_MakeCommand_SetPageConfiguration2
libcnbpcnclapicom2.so:CLSS_MakeCommand_SetTime
libcnbpcnclapicom2.so:CLSS_MakeCommand_StartJob
libcnbpcnclapicom2.so:CLSS_MakeCommand_StartJob2
libcnbpcnclapicom2.so:CLSS_MakeCommand_StartJob3
libcnbpcnclapicom2.so:CLSS_MakeCommand_TestPrint
libcnbpcnclapicom2.so:CLSS_NUM_PAPERSIZE
libcnbpcnclapicom2.so:CLSS_NUM_PAPERSIZE2
libcnbpcnclapicom2.so:CLSS_NUM_PAPERTYPE
libcnbpcnclapicom2.so:CLSS_NUM_PAPERTYPE_DISC_LABEL_PRINT
libcnbpcnclapicom2.so:CLSS_NUM_SERVICETYPE_LIST
libcnbpcnclapicom2.so:CLSS_ParseCapabilityResponseMaintenance_DateTime
libcnbpcnclapicom2.so:CLSS_ParseCapabilityResponseMaintenance_HostEnvironment
libcnbpcnclapicom2.so:CLSS_ParseCapabilityResponsePrint_DVD_DeviceSideGuide
libcnbpcnclapicom2.so:CLSS_ParseCapabilityResponsePrint_DateTime
libcnbpcnclapicom2.so:CLSS_ParseCapabilityResponsePrint_FormatType
libcnbpcnclapicom2.so:CLSS_ParseCapabilityResponsePrint_HostEnvironment
libcnbpcnclapicom2.so:CLSS_ParseCapabilityResponsePrint_IsDiscLabelPrint
libcnbpcnclapicom2.so:CLSS_ParseCapabilityResponsePrint_JobQueue
libcnbpcnclapicom2.so:CLSS_ParseCapabilityResponsePrint_MediaMap
libcnbpcnclapicom2.so:CLSS_ParseCapabilityResponsePrint_MediaType
libcnbpcnclapicom2.so:CLSS_ParseCapabilityResponsePrint_MismatchMode
libcnbpcnclapicom2.so:CLSS_ParseCapabilityResponsePrint_NextPage
libcnbpcnclapicom2.so:CLSS_ParseCapabilityResponsePrint_PaperSize
libcnbpcnclapicom2.so:CLSS_ParseCapabilityResponsePrint_Pixels
libcnbpcnclapicom2.so:CLSS_ParseCapabilityResponsePrint_PrintPreparation
libcnbpcnclapicom2.so:CLSS_ParseJobIDListResponse
libcnbpcnclapicom2.so:CLSS_ParseResponseCommon
libcnbpcnclapicom2.so:CLSS_ParseStatusResponseMaintenance
libcnbpcnclapicom2.so:CLSS_ParseStatusResponsePrint
libcnbpcnclapicom2.so:CLSS_ParseStatusResponsePrint2
libcnbpcnclapicom2.so:CLSS_initPrintSettings
libcnbpcnclapicom2.so:CNCL_DecodeFromString
libcnbpcnclapicom2.so:CNCL_EncodeToString
libcnbpcnclapicom2.so:CNCL_GetInfoResponse
libcnbpcnclapicom2.so:CNCL_GetPrintCommand
libcnbpcnclapicom2.so:CNCL_GetProtocol
libcnbpcnclapicom2.so:CNCL_GetSendDataPWGRasterCommand
libcnbpcnclapicom2.so:CNCL_GetSetConfigurationCommand
libcnbpcnclapicom2.so:CNCL_GetSetPageConfigurationCommand
libcnbpcnclapicom2.so:CNCL_GetStatus
libcnbpcnclapicom2.so:CNCL_GetStatus2
libcnbpcnclapicom2.so:CNCL_GetStatus_Maintenance
libcnbpcnclapicom2.so:CNCL_GetStringWithTagFromFile
libcnbpcnclapicom2.so:CNCL_MakeBJLSetTimeJob
libcnbpcnclapicom2.so:CNCL_MakeCommand_AutoAlignment
libcnbpcnclapicom2.so:CNCL_MakeCommand_CancelJob
libcnbpcnclapicom2.so:CNCL_MakeCommand_CancelJob_Maintenance
libcnbpcnclapicom2.so:CNCL_MakeCommand_Cleaning
libcnbpcnclapicom2.so:CNCL_MakeCommand_EndJob_Maintenance
libcnbpcnclapicom2.so:CNCL_MakeCommand_GetStatusMaintenance
libcnbpcnclapicom2.so:CNCL_MakeCommand_GetStatusPrint
libcnbpcnclapicom2.so:CNCL_MakeCommand_SetJobConfiguration
libcnbpcnclapicom2.so:CNCL_MakeCommand_SetJobConfiguration_Maintenance
libcnbpcnclapicom2.so:CNCL_MakeCommand_StartJob3
libcnbpcnclapicom2.so:CNCL_MakeCommand_StartJob3_Maintenance
libcnbpcnclapicom2.so:CNCL_MakeCommand_TestPrint
libcnbpcnclapicom2.so:CNCL_MakeGetCapabilityCommand
libcnbpcnclapicom2.so:CNCL_ParseCapabilityResponseMaintenance_DateTime
libcnbpcnclapicom2.so:CNCL_ParseCapabilityResponseMaintenance_HostEnv
libcnbpcnclapicom2.so:CNCL_ParseCapabilityResponsePrint_DateTime
libcnbpcnclapicom2.so:CNCL_ParseCapabilityResponsePrint_HostEnv
libcnbpcnclapicom2.so:CNCL_ParseCapabilityResponsePrint_MismatchMode
libcnbpcnclapicom2.so:CheckJobID
libcnbpcnclapicom2.so:CheckOpeAndRes
libcnbpcnclapicom2.so:ClComXmlRequestParameter
libcnbpcnclapicom2.so:ClComXmlRequestParameterList
libcnbpcnclapicom2.so:ClComXmlRequestParameterListFree
libcnbpcnclapicom2.so:ClXmlAddPath
libcnbpcnclapicom2.so:ClXmlCheckElement
libcnbpcnclapicom2.so:ClXmlCheckEmptyTagSpec
libcnbpcnclapicom2.so:ClXmlChkTargetPathOnly
libcnbpcnclapicom2.so:ClXmlChkTargetPathRequestAttValue
libcnbpcnclapicom2.so:ClXmlClearPath
libcnbpcnclapicom2.so:ClXmlCompare_AttValue
libcnbpcnclapicom2.so:ClXmlCompare_Attribute
libcnbpcnclapicom2.so:ClXmlCompare_Tag
libcnbpcnclapicom2.so:ClXmlCompare_Uri
libcnbpcnclapicom2.so:ClXmlExpandEmptyElement
libcnbpcnclapicom2.so:ClXmlExtractAttribute
libcnbpcnclapicom2.so:ClXmlFirstElementLengthOfPath
libcnbpcnclapicom2.so:ClXmlInitializeNameSpaceTable
libcnbpcnclapicom2.so:ClXmlInitializeParserData
libcnbpcnclapicom2.so:ClXmlIsKnownNicknameNs
libcnbpcnclapicom2.so:ClXmlMemAlloc
libcnbpcnclapicom2.so:ClXmlMemFree
libcnbpcnclapicom2.so:ClXmlPare_AttValue
libcnbpcnclapicom2.so:ClXmlParse
libcnbpcnclapicom2.so:ClXmlPickupNamespace
libcnbpcnclapicom2.so:ClXmlPrsEndElement
libcnbpcnclapicom2.so:ClXmlPrsParameter
libcnbpcnclapicom2.so:ClXmlPrsStartElement
libcnbpcnclapicom2.so:ClXmlRemovePath
libcnbpcnclapicom2.so:ClXmlReplaceParameter
libcnbpcnclapicom2.so:ClXmlRequestParameter
libcnbpcnclapicom2.so:ClXmlRequestParameterList
libcnbpcnclapicom2.so:ClXmlRequestParameterListFree
libcnbpcnclapicom2.so:ClXmlSearchStartPoint
libcnbpcnclapicom2.so:ClXmlSplit_Element
libcnbpcnclapicom2.so:ClXmlSplit_QName
libcnbpcnclapicom2.so:ClXmlStoreAttValue
libcnbpcnclapicom2.so:ClXmlStoreParserData
libcnbpcnclapicom2.so:ClXmlStoreValue
libcnbpcnclapicom2.so:ClXmlStoreValuePathCompare
libcnbpcnclapicom2.so:ClXmlUnInitializeNameSpaceTable
libcnbpcnclapicom2.so:ClXmlUnInitializeParserData
libcnbpcnclapicom2.so:ClXmlWrite
libcnbpcnclapicom2.so:ClearCL_XML
libcnbpcnclapicom2.so:ClearCL_XML2
libcnbpcnclapicom2.so:GetCanonID
libcnbpcnclapicom2.so:GetValue
libcnbpcnclapicom2.so:GetXmlDataByKey
libcnbpcnclapicom2.so:GetXmlDataByKeyList
libcnbpcnclapicom2.so:Get_ItemSet
libcnbpcnclapicom2.so:Get_ItemSetByReq
libcnbpcnclapicom2.so:Get_ItemSetList
libcnbpcnclapicom2.so:Get_NeedBufferSize
libcnbpcnclapicom2.so:Get_NeedBufferSize2
libcnbpcnclapicom2.so:IVEC_DEVICEID
libcnbpcnclapicom2.so:MINP_PRINTER_LIST
libcnbpcnclapicom2.so:PLI_DEVICEID
libcnbpcnclapicom2.so:PROTOCOL_DEVICEID_NEW
libcnbpcnclapicom2.so:PROTOCOL_DEVICEID_OLD
libcnbpcnclapicom2.so:ReleaseItemSetList
libcnbpcnclapicom2.so:ReplaceXmlDataByKey
libcnbpcnclapicom2.so:SetCL_XML
libcnbpcnclapicom2.so:SetCL_XML2
libcnbpcnclapicom2.so:SetStringValue
libcnbpcnclapicom2.so:UnnecessaryCertification
libcnbpcnclapicom2.so:__bss_start
libcnbpcnclapicom2.so:_edata
libcnbpcnclapicom2.so:_end
libcnbpcnclapicom2.so:_fini
libcnbpcnclapicom2.so:_init
libcnbpcnclapicom2.so:bjvs_copyright
libcnbpcnclapicom2.so:bjvs_version
libcnbpcnclapicom2.so:checkSuport
libcnbpcnclapicom2.so:clNsTable
libcnbpcnclapicom2.so:clss_Sprintf
libcnbpcnclapicom2.so:getOperation_ServiceType
libcnbpcnclapicom2.so:getToken
libcnbpcnclapicom2.so:getTokenTotal
libcnbpcnclapicom2.so:glb_IJOperationInfoTbl
libcnbpcnclapicom2.so:glb_NameSpace
libcnbpcnclapicom2.so:glb_NameSpacePrefix
libcnbpcnclapicom2.so:glb_OperationInfoTbl
libcnbpcnclapicom2.so:glb_PaperOutwardSizeTbl
libcnbpcnclapicom2.so:glb_clssdicBorderlessTbl
libcnbpcnclapicom2.so:glb_clssdicColormodeTbl
libcnbpcnclapicom2.so:glb_clssdicDataFormatTbl
libcnbpcnclapicom2.so:glb_clssdicDeviceSideGuideTbl
libcnbpcnclapicom2.so:glb_clssdicDuplexPrintTbl
libcnbpcnclapicom2.so:glb_clssdicHostEnvironmentTbl
libcnbpcnclapicom2.so:glb_clssdicIJOperationTbl
libcnbpcnclapicom2.so:glb_clssdicInkgroupTbl
libcnbpcnclapicom2.so:glb_clssdicInputbinTbl
libcnbpcnclapicom2.so:glb_clssdicJobProgressTbl
libcnbpcnclapicom2.so:glb_clssdicMacAddressSortTbl
libcnbpcnclapicom2.so:glb_clssdicMismatchModeTbl
libcnbpcnclapicom2.so:glb_clssdicNextpageTbl
libcnbpcnclapicom2.so:glb_clssdicOperationTbl
libcnbpcnclapicom2.so:glb_clssdicPLIagreementTbl
libcnbpcnclapicom2.so:glb_clssdicPanelMedia
libcnbpcnclapicom2.so:glb_clssdicPaperSizeTbl
libcnbpcnclapicom2.so:glb_clssdicPaperTypeDiscLabelPrintTbl
libcnbpcnclapicom2.so:glb_clssdicPaperTypeTbl
libcnbpcnclapicom2.so:glb_clssdicPrintPreparationTbl
libcnbpcnclapicom2.so:glb_clssdicRemoteUIGuideTbl
libcnbpcnclapicom2.so:glb_clssdicRemoteUIpagelinkTbl
libcnbpcnclapicom2.so:glb_clssdicRemoteUIpagelinkTypeATbl
libcnbpcnclapicom2.so:glb_clssdicResponseDetailTbl
libcnbpcnclapicom2.so:glb_clssdicResponseTbl
libcnbpcnclapicom2.so:glb_clssdicServiceTypeTbl
libcnbpcnclapicom2.so:glb_clssdicStapleSideTbl
libcnbpcnclapicom2.so:glb_clssdicStateTbl
libcnbpcnclapicom2.so:glb_clssdicStatusDetailTbl
libcnbpcnclapicom2.so:glb_clssdicStatusTbl
libcnbpcnclapicom2.so:glb_clssdicSubModel
libcnbpcnclapicom2.so:glb_clssdicTCATbl
libcnbpcnclapicom2.so:glb_supportedPaperSizeTbl
libcnbpcnclapicom2.so:glb_supportedPaperTypeTbl
libcnbpcnclapicom2.so:noSupportWebManual
libcnbpcnclapicom2.so:parseCommonStatusResponse
libcnbpcnclapicom2.so:searchString
libcnbpcnclapicom2.so:supportNetworkSetting
libcnbpnet20.so:
libcnbpnet20.so:CNNET2_CancelSearch
libcnbpnet20.so:CNNET2_CreateInstance
libcnbpnet20.so:CNNET2_DestroyInstance
libcnbpnet20.so:CNNET2_EnumSearchInfo
libcnbpnet20.so:CNNET2_OptSetting
libcnbpnet20.so:CNNET2_Search
libcnbpnet20.so:CNNET2_SearchByIpv6
libcnbpnet20.so:_ZN10CBerFolder10ReplaceBerEPK12CAbstractBerS2_
libcnbpnet20.so:_ZN10CBerFolder12ClearBerListEv
libcnbpnet20.so:_ZN10CBerFolder12UpdateLengthEv
libcnbpnet20.so:_ZN10CBerFolder4CopyERKS_
libcnbpnet20.so:_ZN10CBerFolder6AddBerEP12CAbstractBer
libcnbpnet20.so:_ZN10CBerFolder7SetDataEPKcj
libcnbpnet20.so:_ZN10CBerFolderC1ERKS_
libcnbpnet20.so:_ZN10CBerFolderC1Ev
libcnbpnet20.so:_ZN10CBerFolderC2ERKS_
libcnbpnet20.so:_ZN10CBerFolderC2Ev
libcnbpnet20.so:_ZN10CBerFolderD0Ev
libcnbpnet20.so:_ZN10CBerFolderD1Ev
libcnbpnet20.so:_ZN10CBerFolderD2Ev
libcnbpnet20.so:_ZN10CBerFolderaSERKS_
libcnbpnet20.so:_ZN11CAbstractIp14SetRecvAddrStrERKSs
libcnbpnet20.so:_ZN11CAbstractIpC1EiiiiiiRKSsS1_i
libcnbpnet20.so:_ZN11CAbstractIpC2EiiiiiiRKSsS1_i
libcnbpnet20.so:_ZN11CAbstractIpD0Ev
libcnbpnet20.so:_ZN11CAbstractIpD1Ev
libcnbpnet20.so:_ZN11CAbstractIpD2Ev
libcnbpnet20.so:_ZN11CSearchComm11OpenAndSendERKSt4listISsSaISsEE
libcnbpnet20.so:_ZN11CSearchComm11SetCommand_E16NWU_SNMP_COMMAND
libcnbpnet20.so:_ZN11CSearchComm17SetCommunityName_Ev
libcnbpnet20.so:_ZN11CSearchComm4RecvERK20tagSearchPrinterInfo
libcnbpnet20.so:_ZN11CSearchComm5CloseEv
libcnbpnet20.so:_ZN11CSearchComm7AddOid_ERKSsciPKc
libcnbpnet20.so:_ZN11CSearchCommC1EbRKSsiS1_jj
libcnbpnet20.so:_ZN11CSearchCommC2EbRKSsiS1_jj
libcnbpnet20.so:_ZN11CSearchCommD1Ev
libcnbpnet20.so:_ZN11CSearchCommD2Ev
libcnbpnet20.so:_ZN11CWrapThread10WaitThreadEv
libcnbpnet20.so:_ZN11CWrapThread7ExecuteEv
libcnbpnet20.so:_ZN11CWrapThreadC1EPFPvS0_E
libcnbpnet20.so:_ZN11CWrapThreadC2EPFPvS0_E
libcnbpnet20.so:_ZN11CWrapThreadD0Ev
libcnbpnet20.so:_ZN11CWrapThreadD1Ev
libcnbpnet20.so:_ZN11CWrapThreadD2Ev
libcnbpnet20.so:_ZN12CAbstractBer13SetLengthDataEPKcRj
libcnbpnet20.so:_ZN12CAbstractBer9SetLengthEj
libcnbpnet20.so:_ZN12CAbstractBer9SetSyntaxEc
libcnbpnet20.so:_ZN12CAbstractBerC1Ev
libcnbpnet20.so:_ZN12CAbstractBerC2Ev
libcnbpnet20.so:_ZN12CAbstractBerD0Ev
libcnbpnet20.so:_ZN12CAbstractBerD1Ev
libcnbpnet20.so:_ZN12CAbstractBerD2Ev
libcnbpnet20.so:_ZN12CSearchByNic12SearchThreadEPv
libcnbpnet20.so:_ZN12CSearchByNic16BeginWakeupTreadEv
libcnbpnet20.so:_ZN12CSearchByNic16WaitWakeupThreadEv
libcnbpnet20.so:_ZN12CSearchByNic21BeginSearchByTtlTreadEv
libcnbpnet20.so:_ZN12CSearchByNic21WaitSearchByTtlThreadEv
libcnbpnet20.so:_ZN12CSearchByNic27ExecuteSearchByTtlTreadOnceEv
libcnbpnet20.so:_ZN12CSearchByNicC1EbRKSsiS1_R22CInterfaceSearchParams
libcnbpnet20.so:_ZN12CSearchByNicC2EbRKSsiS1_R22CInterfaceSearchParams
libcnbpnet20.so:_ZN12CSearchByNicD0Ev
libcnbpnet20.so:_ZN12CSearchByNicD1Ev
libcnbpnet20.so:_ZN12CSearchByNicD2Ev
libcnbpnet20.so:_ZN12CSearchByTtl12SearchThreadEPv
libcnbpnet20.so:_ZN12CSearchByTtl18SearchBySetAddressEv
libcnbpnet20.so:_ZN12CSearchByTtl22AddHitPrinterByUnicastERK20tagSearchPrinterInfo
libcnbpnet20.so:_ZN12CSearchByTtl24AddHitOverRouterPrintersERKSt4listI20tagSearchPrinterInfoSaIS1_EE
libcnbpnet20.so:_ZN12CSearchByTtl25BeginSearchByUnicastTreadERK20tagSearchPrinterInfo
libcnbpnet20.so:_ZN12CSearchByTtl25WaitSearchByUnicastThreadEv
libcnbpnet20.so:_ZN12CSearchByTtlC1EbRKSsiS1_jPKS_R22CInterfaceSearchParams
libcnbpnet20.so:_ZN12CSearchByTtlC2EbRKSsiS1_jPKS_R22CInterfaceSearchParams
libcnbpnet20.so:_ZN12CSearchByTtlD0Ev
libcnbpnet20.so:_ZN12CSearchByTtlD1Ev
libcnbpnet20.so:_ZN12CSearchByTtlD2Ev
libcnbpnet20.so:_ZN13CAbstractSnmp10SetCommandE16NWU_SNMP_COMMAND
libcnbpnet20.so:_ZN13CAbstractSnmp12SetRequestIDEi
libcnbpnet20.so:_ZN13CAbstractSnmp13SetErrorIndexEi
libcnbpnet20.so:_ZN13CAbstractSnmp14SetErrorStatusEi
libcnbpnet20.so:_ZN13CAbstractSnmp16SetOidValueByIntEici
libcnbpnet20.so:_ZN13CAbstractSnmp19SetOidValueByStringEicRKSs
libcnbpnet20.so:_ZN13CAbstractSnmp6AddOidERKSsciPKc
libcnbpnet20.so:_ZN13CAbstractSnmpC1Ev
libcnbpnet20.so:_ZN13CAbstractSnmpC2Ev
libcnbpnet20.so:_ZN13CAbstractSnmpD0Ev
libcnbpnet20.so:_ZN13CAbstractSnmpD1Ev
libcnbpnet20.so:_ZN13CAbstractSnmpD2Ev
libcnbpnet20.so:_ZN14CNicsForSearch10UpdateNicsEb
libcnbpnet20.so:_ZN14CNicsForSearchC1Ev
libcnbpnet20.so:_ZN14CNicsForSearchC2Ev
libcnbpnet20.so:_ZN14CNicsForSearchD1Ev
libcnbpnet20.so:_ZN14CNicsForSearchD2Ev
libcnbpnet20.so:_ZN14CSearchManager13SetSendWakeupEb
libcnbpnet20.so:_ZN14CSearchManager14EnumSearchInfoEP20tagSearchPrinterInfoRj
libcnbpnet20.so:_ZN14CSearchManager14HasPrinterInfoERK20tagSearchPrinterInfo
libcnbpnet20.so:_ZN14CSearchManager16ClearPrinterListEv
libcnbpnet20.so:_ZN14CSearchManager16NotifyHitPrinterERK20tagSearchPrinterInfo
libcnbpnet20.so:_ZN14CSearchManager21BeginSearchByNicTreadEbRKSsiS1_
libcnbpnet20.so:_ZN14CSearchManager21WaitSearchByNicThreadEv
libcnbpnet20.so:_ZN14CSearchManager22SetDiscoverPacketCountEj
libcnbpnet20.so:_ZN14CSearchManager23SetIncludeNotGetUnicastEb
libcnbpnet20.so:_ZN14CSearchManager24SetCommTimeoutRetryCountEj
libcnbpnet20.so:_ZN14CSearchManager24SetGetPrinterInfoTimeoutEj
libcnbpnet20.so:_ZN14CSearchManager24SetUnicastThreadMaxCountEj
libcnbpnet20.so:_ZN14CSearchManager25BeginCallbackManagerTreadEPFvPvPK20tagSearchPrinterInfoES0_
libcnbpnet20.so:_ZN14CSearchManager25SetDiscoverPrinterTimeoutEj
libcnbpnet20.so:_ZN14CSearchManager25WaitCallbackManagerThreadEv
libcnbpnet20.so:_ZN14CSearchManager26SetWakeupPollingWaitMillisEj
libcnbpnet20.so:_ZN14CSearchManager27SetDiscoverPacketWaitMillisEj
libcnbpnet20.so:_ZN14CSearchManager29SetCommTimeoutRetryWaitMillisEj
libcnbpnet20.so:_ZN14CSearchManager6CancelEv
libcnbpnet20.so:_ZN14CSearchManager6SearchEbRKSsPFvPvPK20tagSearchPrinterInfoES2_
libcnbpnet20.so:_ZN14CSearchManager6SetTTLEj
libcnbpnet20.so:_ZN14CSearchManagerC1Ev
libcnbpnet20.so:_ZN14CSearchManagerC2Ev
libcnbpnet20.so:_ZN14CSearchManagerD1Ev
libcnbpnet20.so:_ZN14CSearchManagerD2Ev
libcnbpnet20.so:_ZN14CSnmpBerFolderC1Ev
libcnbpnet20.so:_ZN14CSnmpBerFolderC2Ev
libcnbpnet20.so:_ZN14CSnmpBerFolderD0Ev
libcnbpnet20.so:_ZN14CSnmpBerFolderD1Ev
libcnbpnet20.so:_ZN14CSnmpBerFolderD2Ev
libcnbpnet20.so:_ZN14CThreadControl20wait_thread_resourceEv
libcnbpnet20.so:_ZN14CThreadControl23release_thread_resourceEv
libcnbpnet20.so:_ZN14CThreadControlC1Ei
libcnbpnet20.so:_ZN14CThreadControlC2Ei
libcnbpnet20.so:_ZN14CThreadControlD1Ev
libcnbpnet20.so:_ZN14CThreadControlD2Ev
libcnbpnet20.so:_ZN15CAbstractSocket10OpenSocketEv
libcnbpnet20.so:_ZN15CAbstractSocket11CloseSocketEv
libcnbpnet20.so:_ZN15CAbstractSocket14DeleteRecvDataEv
libcnbpnet20.so:_ZN15CAbstractSocket4OpenEv
libcnbpnet20.so:_ZN15CAbstractSocket5CloseEv
libcnbpnet20.so:_ZN15CAbstractSocket6SelectEv
libcnbpnet20.so:_ZN15CAbstractSocketC1ER11CAbstractIpii
libcnbpnet20.so:_ZN15CAbstractSocketC2ER11CAbstractIpii
libcnbpnet20.so:_ZN15CAbstractSocketD0Ev
libcnbpnet20.so:_ZN15CAbstractSocketD1Ev
libcnbpnet20.so:_ZN15CAbstractSocketD2Ev
libcnbpnet20.so:_ZN16CCallbackManager13ExecuteThreadEPv
libcnbpnet20.so:_ZN16CCallbackManager3EndEv
libcnbpnet20.so:_ZN16CCallbackManager4PushEPK20tagSearchPrinterInfo
libcnbpnet20.so:_ZN16CCallbackManagerC1EPFvPvPK20tagSearchPrinterInfoES0_
libcnbpnet20.so:_ZN16CCallbackManagerC2EPFvPvPK20tagSearchPrinterInfoES0_
libcnbpnet20.so:_ZN16CCallbackManagerD0Ev
libcnbpnet20.so:_ZN16CCallbackManagerD1Ev
libcnbpnet20.so:_ZN16CCallbackManagerD2Ev
libcnbpnet20.so:_ZN16CSearchByUnicast12CommSnmpOnceERKSt4listISsSaISsEER20tagSearchPrinterInfo
libcnbpnet20.so:_ZN16CSearchByUnicast12SearchThreadEPv
libcnbpnet20.so:_ZN16CSearchByUnicast8CommSnmpERKSt4listISsSaISsEER20tagSearchPrinterInfo
libcnbpnet20.so:_ZN16CSearchByUnicastC1EbRKSsiS1_bP14CThreadControlRK20tagSearchPrinterInfoR22CInterfaceSearchParams
libcnbpnet20.so:_ZN16CSearchByUnicastC2EbRKSsiS1_bP14CThreadControlRK20tagSearchPrinterInfoR22CInterfaceSearchParams
libcnbpnet20.so:_ZN16CSearchByUnicastD0Ev
libcnbpnet20.so:_ZN16CSearchByUnicastD1Ev
libcnbpnet20.so:_ZN16CSearchByUnicastD2Ev
libcnbpnet20.so:_ZN16CSearchException11WhatErrCodeEv
libcnbpnet20.so:_ZN16CSearchExceptionC1E18CNWNSCH_ERROR_CODE
libcnbpnet20.so:_ZN16CSearchExceptionC2E18CNWNSCH_ERROR_CODE
libcnbpnet20.so:_ZN16CSearchExceptionD0Ev
libcnbpnet20.so:_ZN16CSearchExceptionD1Ev
libcnbpnet20.so:_ZN16CSearchExceptionD2Ev
libcnbpnet20.so:_ZN4CBer10ClearValueEv
libcnbpnet20.so:_ZN4CBer13SetValueByIntEci
libcnbpnet20.so:_ZN4CBer16SetValueByStringEcRKSs
libcnbpnet20.so:_ZN4CBer4CopyERKS_
libcnbpnet20.so:_ZN4CBer7SetDataEPKcj
libcnbpnet20.so:_ZN4CBer8SetValueEciPKc
libcnbpnet20.so:_ZN4CBerC1ERKS_
libcnbpnet20.so:_ZN4CBerC1Ev
libcnbpnet20.so:_ZN4CBerC2ERKS_
libcnbpnet20.so:_ZN4CBerC2Ev
libcnbpnet20.so:_ZN4CBerD0Ev
libcnbpnet20.so:_ZN4CBerD1Ev
libcnbpnet20.so:_ZN4CBerD2Ev
libcnbpnet20.so:_ZN4CBeraSERKS_
libcnbpnet20.so:_ZN4CUdp4RecvEPcRj
libcnbpnet20.so:_ZN4CUdp4SendEPKcj
libcnbpnet20.so:_ZN4CUdpC1ER11CAbstractIpi
libcnbpnet20.so:_ZN4CUdpC2ER11CAbstractIpi
libcnbpnet20.so:_ZN4CUdpD0Ev
libcnbpnet20.so:_ZN4CUdpD1Ev
libcnbpnet20.so:_ZN4CUdpD2Ev
libcnbpnet20.so:_ZN5CIpv411SetHostAddrERKSs
libcnbpnet20.so:_ZN5CIpv411SetSendAddrERKSsi
libcnbpnet20.so:_ZN5CIpv415GetHostSockAddrEv
libcnbpnet20.so:_ZN5CIpv415GetRecvSockAddrEv
libcnbpnet20.so:_ZN5CIpv415GetSendSockAddrEv
libcnbpnet20.so:_ZN5CIpv4C1EiRKSsS1_i
libcnbpnet20.so:_ZN5CIpv4C2EiRKSsS1_i
libcnbpnet20.so:_ZN5CIpv4D0Ev
libcnbpnet20.so:_ZN5CIpv4D1Ev
libcnbpnet20.so:_ZN5CIpv4D2Ev
libcnbpnet20.so:_ZN5CIpv611SetHostAddrERKSs
libcnbpnet20.so:_ZN5CIpv611SetSendAddrERKSsi
libcnbpnet20.so:_ZN5CIpv615GetHostSockAddrEv
libcnbpnet20.so:_ZN5CIpv615GetRecvSockAddrEv
libcnbpnet20.so:_ZN5CIpv615GetSendSockAddrEv
libcnbpnet20.so:_ZN5CIpv6C1EiRKSsS1_ii
libcnbpnet20.so:_ZN5CIpv6C2EiRKSsS1_ii
libcnbpnet20.so:_ZN5CIpv6D0Ev
libcnbpnet20.so:_ZN5CIpv6D1Ev
libcnbpnet20.so:_ZN5CIpv6D2Ev
libcnbpnet20.so:_ZN5CNic_11GetNicIndexEi
libcnbpnet20.so:_ZN5CNic_8GetCountEv
libcnbpnet20.so:_ZN5CNic_9SearchNICEv
libcnbpnet20.so:_ZN5CNic_C1Ev
libcnbpnet20.so:_ZN5CNic_C2Ev
libcnbpnet20.so:_ZN5CNic_D1Ev
libcnbpnet20.so:_ZN5CNic_D2Ev
libcnbpnet20.so:_ZN7CSnmpV110InitializeEv
libcnbpnet20.so:_ZN7CSnmpV116SetCommunityNameERKSs
libcnbpnet20.so:_ZN7CSnmpV1C1Ev
libcnbpnet20.so:_ZN7CSnmpV1C2Ev
libcnbpnet20.so:_ZN7CSnmpV1D0Ev
libcnbpnet20.so:_ZN7CSnmpV1D1Ev
libcnbpnet20.so:_ZN7CSnmpV1D2Ev
libcnbpnet20.so:_ZN7CWakeup13ExecuteThreadEPv
libcnbpnet20.so:_ZN7CWakeup3EndEv
libcnbpnet20.so:_ZN7CWakeupC1EbRKSsiS1_jR22CInterfaceSearchParams
libcnbpnet20.so:_ZN7CWakeupC2EbRKSsiS1_jR22CInterfaceSearchParams
libcnbpnet20.so:_ZN7CWakeupD0Ev
libcnbpnet20.so:_ZN7CWakeupD1Ev
libcnbpnet20.so:_ZN7CWakeupD2Ev
libcnbpnet20.so:_ZNK10CBerFolder11GetBerCountEv
libcnbpnet20.so:_ZNK10CBerFolder15CreateBerFolderEv
libcnbpnet20.so:_ZNK10CBerFolder17IsCreateBerFolderEPKcj
libcnbpnet20.so:_ZNK10CBerFolder19deleteCAbstractBer_EP12CAbstractBer
libcnbpnet20.so:_ZNK10CBerFolder6GetBerEi
libcnbpnet20.so:_ZNK10CBerFolder7GetDataEPcRj
libcnbpnet20.so:_ZNK10CBerFolder9CreateBerEv
libcnbpnet20.so:_ZNK10CBerFolder9memcpy_s_EPvmPKvm
libcnbpnet20.so:_ZNK11CAbstractIp13GetIpProtocolEv
libcnbpnet20.so:_ZNK11CAbstractIp14GetHostAddrStrEv
libcnbpnet20.so:_ZNK11CAbstractIp14GetRecvAddrStrEv
libcnbpnet20.so:_ZNK11CAbstractIp14GetSendAddrStrEv
libcnbpnet20.so:_ZNK11CAbstractIp16GetTimeoutMillisEv
libcnbpnet20.so:_ZNK11CAbstractIp20GetMulticastIfOptionEv
libcnbpnet20.so:_ZNK11CAbstractIp22GetMulticastHopsOptionEv
libcnbpnet20.so:_ZNK11CAbstractIp22GetMulticastLoopOptionEv
libcnbpnet20.so:_ZNK11CAbstractIp5GetAfEv
libcnbpnet20.so:_ZNK11CSearchComm12GetOidCount_Ev
libcnbpnet20.so:_ZNK11CSearchComm14GetErrorIndex_Ev
libcnbpnet20.so:_ZNK11CSearchComm15ByteToHexStringEPKci
libcnbpnet20.so:_ZNK11CSearchComm15GetErrorStatus_Ev
libcnbpnet20.so:_ZNK11CSearchComm15GetOidValueBer_Ei
libcnbpnet20.so:_ZNK11CSearchComm17UpdatePrinterInfoERK20tagSearchPrinterInfo
libcnbpnet20.so:_ZNK11CSearchComm9memcpy_s_EPvmPKvm
libcnbpnet20.so:_ZNK12CAbstractBer11GetDataSizeEv
libcnbpnet20.so:_ZNK12CAbstractBer13GetLengthDataEPcRj
libcnbpnet20.so:_ZNK12CAbstractBer17GetLengthDataSizeEv
libcnbpnet20.so:_ZNK12CAbstractBer19GetIntValueDataSizeEj
libcnbpnet20.so:_ZNK12CAbstractBer9GetLengthEv
libcnbpnet20.so:_ZNK12CAbstractBer9GetSyntaxEv
libcnbpnet20.so:_ZNK12CAbstractBer9memcpy_s_EPvmPKvm
libcnbpnet20.so:_ZNK12CSearchByNic17CreateWakeupTreadERKSs
libcnbpnet20.so:_ZNK12CSearchByNic22CreateSearchByTtlTreadEjPK12CSearchByTtl
libcnbpnet20.so:_ZNK12CSearchByTtl26CreateSearchByUnicastTreadERK20tagSearchPrinterInfo
libcnbpnet20.so:_ZNK13CAbstractSnmp10GetCommandEv
libcnbpnet20.so:_ZNK13CAbstractSnmp10GetOidListEv
libcnbpnet20.so:_ZNK13CAbstractSnmp11GetOidCountEv
libcnbpnet20.so:_ZNK13CAbstractSnmp11deleteCBer_EP4CBer
libcnbpnet20.so:_ZNK13CAbstractSnmp12GetOidStringEi
libcnbpnet20.so:_ZNK13CAbstractSnmp12GetRequestIDEv
libcnbpnet20.so:_ZNK13CAbstractSnmp13GetErrorIndexEv
libcnbpnet20.so:_ZNK13CAbstractSnmp14GetErrorStatusEv
libcnbpnet20.so:_ZNK13CAbstractSnmp14GetOidValueBerEi
libcnbpnet20.so:_ZNK13CAbstractSnmp14SeparateStringERKSsS1_RSt4listISsSaISsEE
libcnbpnet20.so:_ZNK13CAbstractSnmp15CreateBerFolderEv
libcnbpnet20.so:_ZNK13CAbstractSnmp17IsCreateBerFolderEPKcj
libcnbpnet20.so:_ZNK13CAbstractSnmp17deleteCBerFolder_EP10CBerFolder
libcnbpnet20.so:_ZNK13CAbstractSnmp8_itoa_s_EiPcmi
libcnbpnet20.so:_ZNK14CNicsForSearch11GetNicIndexEi
libcnbpnet20.so:_ZNK14CNicsForSearch14GetIpv4AddressEi
libcnbpnet20.so:_ZNK14CNicsForSearch14GetIpv6AddressEi
libcnbpnet20.so:_ZNK14CSearchManager11CmpIpAddessERKSsS1_
libcnbpnet20.so:_ZNK14CSearchManager17CreateSearchByNicEbRKSsiS1_
libcnbpnet20.so:_ZNK14CSearchManager19UpdateNicsOfManagerER14CNicsForSearchb
libcnbpnet20.so:_ZNK14CSearchManager21CreateCallbackManagerEPFvPvPK20tagSearchPrinterInfoES0_
libcnbpnet20.so:_ZNK14CSearchManager23CreateSearchPrinterInfoEv
libcnbpnet20.so:_ZNK14CSearchManager23DeleteSearchPrinterInfoEP20tagSearchPrinterInfo
libcnbpnet20.so:_ZNK14CSearchManager9memcpy_s_EPvmPKvm
libcnbpnet20.so:_ZNK14CSnmpBerFolder15CreateBerFolderEv
libcnbpnet20.so:_ZNK14CSnmpBerFolder17IsCreateBerFolderEPKcj
libcnbpnet20.so:_ZNK15CAbstractSocket10GetErrCodeEv
libcnbpnet20.so:_ZNK15CAbstractSocket11GetRecvDataEv
libcnbpnet20.so:_ZNK15CAbstractSocket12deleteChars_EPc
libcnbpnet20.so:_ZNK15CAbstractSocket15GetRecvDataSizeEv
libcnbpnet20.so:_ZNK15CAbstractSocket7select_EP6fd_setP7timeval
libcnbpnet20.so:_ZNK15CAbstractSocket9memcpy_s_EPvmPKvm
libcnbpnet20.so:_ZNK15CAbstractSocket9newChars_Em
libcnbpnet20.so:_ZNK4CBer12deleteChars_EPc
libcnbpnet20.so:_ZNK4CBer13GetValueToIntEv
libcnbpnet20.so:_ZNK4CBer16GetValueToStringEv
libcnbpnet20.so:_ZNK4CBer7GetDataEPcRj
libcnbpnet20.so:_ZNK4CBer8GetValueEv
libcnbpnet20.so:_ZNK4CBer9memcpy_s_EPvmPKvm
libcnbpnet20.so:_ZNK4CBer9newChars_Em
libcnbpnet20.so:_ZNK4CUdp11setsockopt_EiPKci
libcnbpnet20.so:_ZNK4CUdp12getnameinfo_EPK8sockaddrjPcm
libcnbpnet20.so:_ZNK4CUdp15EnableBroadcastEv
libcnbpnet20.so:_ZNK4CUdp16EnableMultidcastEv
libcnbpnet20.so:_ZNK4CUdp5bind_Ev
libcnbpnet20.so:_ZNK4CUdp7sendto_EPKci
libcnbpnet20.so:_ZNK4CUdp9recvfrom_EPcmP8sockaddrPj
libcnbpnet20.so:_ZNK5CIpv419GetHostSockAddrSizeEv
libcnbpnet20.so:_ZNK5CIpv419GetMulticastIfParamEv
libcnbpnet20.so:_ZNK5CIpv419GetRecvSockAddrSizeEv
libcnbpnet20.so:_ZNK5CIpv419GetSendSockAddrSizeEv
libcnbpnet20.so:_ZNK5CIpv49IsAddressERKSs
libcnbpnet20.so:_ZNK5CIpv612getaddrinfo_EPKcS1_PK8addrinfoPPS2_
libcnbpnet20.so:_ZNK5CIpv619GetHostSockAddrSizeEv
libcnbpnet20.so:_ZNK5CIpv619GetMulticastIfParamEv
libcnbpnet20.so:_ZNK5CIpv619GetRecvSockAddrSizeEv
libcnbpnet20.so:_ZNK5CIpv619GetSendSockAddrSizeEv
libcnbpnet20.so:_ZNK5CIpv68_itoa_s_EiPcmi
libcnbpnet20.so:_ZNK5CIpv69IsAddressERKSs
libcnbpnet20.so:_ZNK5CIpv69memcpy_s_EPvmPKvm
libcnbpnet20.so:_ZNK5CNic_11GetIpV6AddrEi
libcnbpnet20.so:_ZNK5CNic_9GetIpAddrEi
libcnbpnet20.so:_ZNK7CSnmpV116GetCommunityNameEv
libcnbpnet20.so:_ZNK7CSnmpV16GetPduEv
libcnbpnet20.so:__bss_start
libcnbpnet20.so:_edata
libcnbpnet20.so:_end
libcnbpnet20.so:_fini
libcnbpnet20.so:_init
libcnbpnet30.so:
libcnbpnet30.so:CNNET3_Close
libcnbpnet30.so:CNNET3_Open
libcnbpnet30.so:CNNET3_Read
libcnbpnet30.so:CNNET3_Send
libcnbpnet30.so:CNNET3_SetCommandType
libcnbpnet30.so:CNNET3_SetEventBufferSize
libcnbpnet30.so:CNNET3_SetEventType
libcnbpnet30.so:CNNET3_SetIF
libcnbpnet30.so:CNNET3_SetIP
libcnbpnet30.so:CNNET3_SetMasterPortOption
libcnbpnet30.so:CNNET3_SetTimeout
libcnbpnet30.so:CNNET3_SetURL
libcnbpnet30.so:CNNET3_Write
libcnbpnet30.so:_ZN11cnmpu2_http10WriteStartEPhmi
libcnbpnet30.so:_ZN11cnmpu2_http10setTimeoutEij
libcnbpnet30.so:_ZN11cnmpu2_http12ReadContinueEPhPmPi
libcnbpnet30.so:_ZN11cnmpu2_http12setEventTypeEi
libcnbpnet30.so:_ZN11cnmpu2_http13ReadEventDataEPhPmPi
libcnbpnet30.so:_ZN11cnmpu2_http13WriteContinueEPhmi
libcnbpnet30.so:_ZN11cnmpu2_http14setCommandTypeEi
libcnbpnet30.so:_ZN11cnmpu2_http15ChunkedDataReadEPhPmPi
libcnbpnet30.so:_ZN11cnmpu2_http16GetCNMHTTPStatusEPi
libcnbpnet30.so:_ZN11cnmpu2_http16SetCNMHTTPStatusEi
libcnbpnet30.so:_ZN11cnmpu2_http18setEventBufferSizeEj
libcnbpnet30.so:_ZN11cnmpu2_http19setMasterPortOptionEi
libcnbpnet30.so:_ZN11cnmpu2_http33RecieveAndAnalyzePostResponseDataEv
libcnbpnet30.so:_ZN11cnmpu2_http4ReadEPhPmPi
libcnbpnet30.so:_ZN11cnmpu2_http4SendEPhmPm
libcnbpnet30.so:_ZN11cnmpu2_http5WriteEPhmi
libcnbpnet30.so:_ZN11cnmpu2_http5setIPEPKc
libcnbpnet30.so:_ZN11cnmpu2_http6setUrlEPKc
libcnbpnet30.so:_ZN11cnmpu2_http9ReadStartEPhPmPi
libcnbpnet30.so:_ZN11cnmpu2_http9setisIpv4Eb
libcnbpnet30.so:_ZN11cnmpu2_httpC1Ev
libcnbpnet30.so:_ZN11cnmpu2_httpC2Ev
libcnbpnet30.so:_ZN11cnmpu2_httpD0Ev
libcnbpnet30.so:_ZN11cnmpu2_httpD1Ev
libcnbpnet30.so:_ZN11cnmpu2_httpD2Ev
libcnbpnet30.so:_ZN13CHTTPSendData10setReqTypeEPc
libcnbpnet30.so:_ZN13CHTTPSendData11setBodyDataEPcib
libcnbpnet30.so:_ZN13CHTTPSendData12MakeSendDataEPPcPi
libcnbpnet30.so:_ZN13CHTTPSendData12setEventTypeEPc
libcnbpnet30.so:_ZN13CHTTPSendData12setipAddressEPc
libcnbpnet30.so:_ZN13CHTTPSendData13setMasterPortEPc
libcnbpnet30.so:_ZN13CHTTPSendData14setCommandTypeEPc
libcnbpnet30.so:_ZN13CHTTPSendData16MakeHeadSendDataEPPcPi
libcnbpnet30.so:_ZN13CHTTPSendData16setserverTimeoutEi
libcnbpnet30.so:_ZN13CHTTPSendData19MakeNotHeadSendDataEPPcPi
libcnbpnet30.so:_ZN13CHTTPSendData6setUrlEPc
libcnbpnet30.so:_ZN13CHTTPSendData9setisHeadEb
libcnbpnet30.so:_ZN13CHTTPSendDataC1Ev
libcnbpnet30.so:_ZN13CHTTPSendDataC2Ev
libcnbpnet30.so:_ZN13CHTTPSendDataD1Ev
libcnbpnet30.so:_ZN13CHTTPSendDataD2Ev
libcnbpnet30.so:_ZN15Cnmpu2_port910010setTimeoutEij
libcnbpnet30.so:_ZN15Cnmpu2_port910012setEventTypeEi
libcnbpnet30.so:_ZN15Cnmpu2_port910014setCommandTypeEi
libcnbpnet30.so:_ZN15Cnmpu2_port910018setEventBufferSizeEj
libcnbpnet30.so:_ZN15Cnmpu2_port910019setMasterPortOptionEi
libcnbpnet30.so:_ZN15Cnmpu2_port91004ReadEPhPmPi
libcnbpnet30.so:_ZN15Cnmpu2_port91004SendEPhmPm
libcnbpnet30.so:_ZN15Cnmpu2_port91005WriteEPhmi
libcnbpnet30.so:_ZN15Cnmpu2_port91005setIPEPKc
libcnbpnet30.so:_ZN15Cnmpu2_port91006setUrlEPKc
libcnbpnet30.so:_ZN15Cnmpu2_port91009setisIpv4Eb
libcnbpnet30.so:_ZN15Cnmpu2_port9100C1Ev
libcnbpnet30.so:_ZN15Cnmpu2_port9100C2Ev
libcnbpnet30.so:_ZN15Cnmpu2_port9100D0Ev
libcnbpnet30.so:_ZN15Cnmpu2_port9100D1Ev
libcnbpnet30.so:_ZN15Cnmpu2_port9100D2Ev
libcnbpnet30.so:_ZN17CSocketController11setProtocolEi
libcnbpnet30.so:_ZN17CSocketController12CreateSocketEv
libcnbpnet30.so:_ZN17CSocketController12setIPAddressEPc
libcnbpnet30.so:_ZN17CSocketController18setSendRecvTimeOutEj
libcnbpnet30.so:_ZN17CSocketController22CreateSocketAndConnectEv
libcnbpnet30.so:_ZN17CSocketController5CloseEv
libcnbpnet30.so:_ZN17CSocketController8RecvDataEPci
libcnbpnet30.so:_ZN17CSocketController8SendDataEPci
libcnbpnet30.so:_ZN17CSocketControllerC1Ev
libcnbpnet30.so:_ZN17CSocketControllerC2Ev
libcnbpnet30.so:_ZN17CSocketControllerD1Ev
libcnbpnet30.so:_ZN17CSocketControllerD2Ev
libcnbpnet30.so:_ZN19CHTTPResponseHeader10appendDataEPci
libcnbpnet30.so:_ZN19CHTTPResponseHeader12getisChunkedEv
libcnbpnet30.so:_ZN19CHTTPResponseHeader14getHeaderValueEPKcPc
libcnbpnet30.so:_ZN19CHTTPResponseHeader15getResponseCodeEPc
libcnbpnet30.so:_ZN19CHTTPResponseHeader16getContentlengthEv
libcnbpnet30.so:_ZN19CHTTPResponseHeader16isHeaderCompleteEv
libcnbpnet30.so:_ZN19CHTTPResponseHeader25getisIncludeContentLengthEv
libcnbpnet30.so:_ZN19CHTTPResponseHeader6upDateEv
libcnbpnet30.so:_ZN19CHTTPResponseHeaderC1Ev
libcnbpnet30.so:_ZN19CHTTPResponseHeaderC2Ev
libcnbpnet30.so:_ZN19CHTTPResponseHeaderD1Ev
libcnbpnet30.so:_ZN19CHTTPResponseHeaderD2Ev
libcnbpnet30.so:_ZN20CRecievedChunkedData10appendDataEPci
libcnbpnet30.so:_ZN20CRecievedChunkedData14getChunkLengthEPiS0_
libcnbpnet30.so:_ZN20CRecievedChunkedData17isLastChunkedDataEv
libcnbpnet30.so:_ZN20CRecievedChunkedData19appendAndResizeDataEPci
libcnbpnet30.so:_ZN20CRecievedChunkedData21getChunkWholeBodyDataEPc
libcnbpnet30.so:_ZN20CRecievedChunkedData23isLength_Field_CompleteEv
libcnbpnet30.so:_ZN20CRecievedChunkedData27getChunkWholeBodyDataLengthEPi
libcnbpnet30.so:_ZN20CRecievedChunkedDataC1Ei
libcnbpnet30.so:_ZN20CRecievedChunkedDataC1Ev
libcnbpnet30.so:_ZN20CRecievedChunkedDataC2Ei
libcnbpnet30.so:_ZN20CRecievedChunkedDataC2Ev
libcnbpnet30.so:_ZN20CRecievedChunkedDataD1Ev
libcnbpnet30.so:_ZN20CRecievedChunkedDataD2Ev
libcnbpnet30.so:_ZN20Cnmpu2_base_protocolD0Ev
libcnbpnet30.so:_ZN20Cnmpu2_base_protocolD1Ev
libcnbpnet30.so:_ZN20Cnmpu2_base_protocolD2Ev
libcnbpnet30.so:_ZN6CNMPU213isIPv4AddressEPKc
libcnbpnet30.so:_ZN6CNMPU213isIPv6AddressEPKc
libcnbpnet30.so:_ZN6CNMPU213pu2setTimeoutEij
libcnbpnet30.so:_ZN6CNMPU215pu2SetEventTypeEi
libcnbpnet30.so:_ZN6CNMPU217SetDefaultTimeoutEv
libcnbpnet30.so:_ZN6CNMPU217pu2SetCommandTypeEi
libcnbpnet30.so:_ZN6CNMPU221pu2SetEventBufferSizeEj
libcnbpnet30.so:_ZN6CNMPU222CreateProtocolInstanceEv
libcnbpnet30.so:_ZN6CNMPU222pu2setMasterPortOptionEi
libcnbpnet30.so:_ZN6CNMPU27pu2ReadEPhPmPi
libcnbpnet30.so:_ZN6CNMPU27pu2SendEPhmPm
libcnbpnet30.so:_ZN6CNMPU28pu2WriteEPhmi
libcnbpnet30.so:_ZN6CNMPU28pu2setIFEi
libcnbpnet30.so:_ZN6CNMPU28pu2setIPEPKc
libcnbpnet30.so:_ZN6CNMPU29pu2setUrlEPKc
libcnbpnet30.so:_ZN6CNMPU2C1Ev
libcnbpnet30.so:_ZN6CNMPU2C2Ev
libcnbpnet30.so:_ZN6CNMPU2D1Ev
libcnbpnet30.so:_ZN6CNMPU2D2Ev
libcnbpnet30.so:__bss_start
libcnbpnet30.so:_edata
libcnbpnet30.so:_end
libcnbpnet30.so:_fini
libcnbpnet30.so:_init
libcnnet2.so:
libcnnet2.so:CNNL_Abort
libcnnet2.so:CNNL_CheckPrint
libcnnet2.so:CNNL_CheckVersion
libcnnet2.so:CNNL_Close
libcnnet2.so:CNNL_Config
libcnnet2.so:CNNL_DataRead
libcnnet2.so:CNNL_DataWrite
libcnnet2.so:CNNL_EndPrint
libcnnet2.so:CNNL_GetCommandType
libcnnet2.so:CNNL_GetDeviceID
libcnnet2.so:CNNL_GetExtensionSupport
libcnnet2.so:CNNL_GetIPAddress
libcnnet2.so:CNNL_GetIPAddressEx
libcnnet2.so:CNNL_GetMaxDataSize
libcnnet2.so:CNNL_GetModelName
libcnnet2.so:CNNL_GetNICInfo
libcnnet2.so:CNNL_GetSessionInfo
libcnnet2.so:CNNL_GetTimeout
libcnnet2.so:CNNL_Init
libcnnet2.so:CNNL_Open
libcnnet2.so:CNNL_OpenEx
libcnnet2.so:CNNL_SearchPrinters
libcnnet2.so:CNNL_SearchPrintersEx
libcnnet2.so:CNNL_SessionEnd
libcnnet2.so:CNNL_SessionStart
libcnnet2.so:CNNL_SetTimeout
libcnnet2.so:CNNL_SoftReset
libcnnet2.so:CNNL_StartPrint
libcnnet2.so:CNNL_Terminate
libcnnet2.so:VERS_1.0
rastertocanonij:stderr
tocanonij:optarg
tocanonij:optopt
tocanonij:stderr
tocnpwg:optarg
tocnpwg:optopt
tocnpwg:stderr
