UNKNOWN:_ZTIN6SignOn21AbstractCryptoManagerE
UNKNOWN:_ZTIN6SignOn21AbstractKeyAuthorizerE
UNKNOWN:_ZTIN6SignOn22AbstractSecretsStorageE
UNKNOWN:_ZTV19AuthPluginInterface
libQt5Core.so.5:_Z21qRegisterResourceDataiPKhS0_S0_
libQt5Core.so.5:_Z22qInstallMessageHandlerPFv9QtMsgTypeRK18QMessageLogContextRK7QStringE
libQt5Core.so.5:_Z23qUnregisterResourceDataiPKhS0_S0_
libQt5Core.so.5:_Z26qt_QMetaEnum_debugOperatorR6QDebugiPK11QMetaObjectPKc
libQt5Core.so.5:_Z5qHashRK10QByteArrayj
libQt5Core.so.5:_Z5qHashRK7QStringj
libQt5Core.so.5:_Z7qgetenvPKc
libQt5Core.so.5:_Z7qstrcmpPKcS0_
libQt5Core.so.5:_ZN10QArrayData10deallocateEPS_mm
libQt5Core.so.5:_ZN10QArrayData11shared_nullE
libQt5Core.so.5:_ZN10QArrayData8allocateEmmm6QFlagsINS_16AllocationOptionEE
libQt5Core.so.5:_ZN10QByteArray11reallocDataEj6QFlagsIN10QArrayData16AllocationOptionEE
libQt5Core.so.5:_ZN10QByteArray5clearEv
libQt5Core.so.5:_ZN10QByteArray6appendEPKc
libQt5Core.so.5:_ZN10QByteArray6appendEPKci
libQt5Core.so.5:_ZN10QByteArray6appendERKS_
libQt5Core.so.5:_ZN10QByteArray6appendEc
libQt5Core.so.5:_ZN10QByteArrayaSERKS_
libQt5Core.so.5:_ZN10QEventLoop4execE6QFlagsINS_17ProcessEventsFlagEE
libQt5Core.so.5:_ZN10QEventLoop4quitEv
libQt5Core.so.5:_ZN10QEventLoopC1EP7QObject
libQt5Core.so.5:_ZN10QEventLoopD1Ev
libQt5Core.so.5:_ZN11QDataStream11resetStatusEv
libQt5Core.so.5:_ZN11QDataStream9setStatusENS_6StatusE
libQt5Core.so.5:_ZN11QDataStreamC1EP10QByteArray6QFlagsIN9QIODevice12OpenModeFlagEE
libQt5Core.so.5:_ZN11QDataStreamC1EP9QIODevice
libQt5Core.so.5:_ZN11QDataStreamC1ERK10QByteArray
libQt5Core.so.5:_ZN11QDataStreamD1Ev
libQt5Core.so.5:_ZN11QDataStreamlsEi
libQt5Core.so.5:_ZN11QDataStreamrsERi
libQt5Core.so.5:_ZN11QFileDevice5flushEv
libQt5Core.so.5:_ZN11QMetaObject10ConnectionD1Ev
libQt5Core.so.5:_ZN11QMetaObject12invokeMethodEP7QObjectPKcN2Qt14ConnectionTypeE22QGenericReturnArgument16QGenericArgumentS7_S7_S7_S7_S7_S7_S7_S7_S7_
libQt5Core.so.5:_ZN11QMetaObject14normalizedTypeEPKc
libQt5Core.so.5:_ZN11QMetaObject8activateEP7QObjectPKS_iPPv
libQt5Core.so.5:_ZN11QTextStreamC1EP7QString6QFlagsIN9QIODevice12OpenModeFlagEE
libQt5Core.so.5:_ZN11QTextStreamD1Ev
libQt5Core.so.5:_ZN11QTextStreamlsE13QLatin1String
libQt5Core.so.5:_ZN11QTextStreamlsEPKc
libQt5Core.so.5:_ZN11QTextStreamlsEPKv
libQt5Core.so.5:_ZN11QTextStreamlsERK7QString
libQt5Core.so.5:_ZN11QTextStreamlsEc
libQt5Core.so.5:_ZN11QTextStreamlsEi
libQt5Core.so.5:_ZN11QTextStreamlsEj
libQt5Core.so.5:_ZN12QMapDataBase10createDataEv
libQt5Core.so.5:_ZN12QMapDataBase10createNodeEiiP12QMapNodeBaseb
libQt5Core.so.5:_ZN12QMapDataBase11shared_nullE
libQt5Core.so.5:_ZN12QMapDataBase18recalcMostLeftNodeEv
libQt5Core.so.5:_ZN12QMapDataBase20freeNodeAndRebalanceEP12QMapNodeBase
libQt5Core.so.5:_ZN12QMapDataBase8freeDataEPS_
libQt5Core.so.5:_ZN12QMapDataBase8freeTreeEP12QMapNodeBasei
libQt5Core.so.5:_ZN13QPluginLoader6unloadEv
libQt5Core.so.5:_ZN13QPluginLoader8instanceEv
libQt5Core.so.5:_ZN13QPluginLoaderC1ERK7QStringP7QObject
libQt5Core.so.5:_ZN13QPluginLoaderD1Ev
libQt5Core.so.5:_ZN14QStandardPaths16writableLocationENS_16StandardLocationE
libQt5Core.so.5:_ZN15QSocketNotifier10setEnabledEb
libQt5Core.so.5:_ZN15QSocketNotifierC1ExNS_4TypeEP7QObject
libQt5Core.so.5:_ZN15QtSharedPointer20ExternalRefCountData9getAndRefEPK7QObject
libQt5Core.so.5:_ZN16QCoreApplication4execEv
libQt5Core.so.5:_ZN16QCoreApplication4selfE
libQt5Core.so.5:_ZN16QCoreApplication9argumentsEv
libQt5Core.so.5:_ZN16QCoreApplication9postEventEP7QObjectP6QEventi
libQt5Core.so.5:_ZN16QCoreApplicationC1ERiPPci
libQt5Core.so.5:_ZN16QCoreApplicationD1Ev
libQt5Core.so.5:_ZN19QProcessEnvironment17systemEnvironmentEv
libQt5Core.so.5:_ZN19QProcessEnvironment6insertERK7QStringS2_
libQt5Core.so.5:_ZN19QProcessEnvironmentD1Ev
libQt5Core.so.5:_ZN20QAssociativeIterable14const_iteratorD1Ev
libQt5Core.so.5:_ZN20QAssociativeIterable14const_iteratorppEv
libQt5Core.so.5:_ZN20QAssociativeIterableC1EN17QtMetaTypePrivate24QAssociativeIterableImplE
libQt5Core.so.5:_ZN4QDir8homePathEv
libQt5Core.so.5:_ZN4QDir9cleanPathERK7QString
libQt5Core.so.5:_ZN4QDir9separatorEv
libQt5Core.so.5:_ZN4QDirC1ERK7QString
libQt5Core.so.5:_ZN4QDirD1Ev
libQt5Core.so.5:_ZN5QFile14setPermissionsE6QFlagsIN11QFileDevice10PermissionEE
libQt5Core.so.5:_ZN5QFile4openEi6QFlagsIN9QIODevice12OpenModeFlagEES0_IN11QFileDevice14FileHandleFlagEE
libQt5Core.so.5:_ZN5QFile6existsERK7QString
libQt5Core.so.5:_ZN5QFile6removeERK7QString
libQt5Core.so.5:_ZN5QFileC1ERK7QString
libQt5Core.so.5:_ZN5QFileC1Ev
libQt5Core.so.5:_ZN5QFileD1Ev
libQt5Core.so.5:_ZN6QDebug12putByteArrayEPKcmNS_13Latin1ContentE
libQt5Core.so.5:_ZN6QDebug9putStringEPK5QCharm
libQt5Core.so.5:_ZN6QDebugD1Ev
libQt5Core.so.5:_ZN6QEventC2ENS_4TypeE
libQt5Core.so.5:_ZN6QEventD2Ev
libQt5Core.so.5:_ZN6QMutex4lockEv
libQt5Core.so.5:_ZN6QMutex6unlockEv
libQt5Core.so.5:_ZN6QMutexD1Ev
libQt5Core.so.5:_ZN6QTimer10singleShotEiPK7QObjectPKc
libQt5Core.so.5:_ZN6QTimer11setIntervalEi
libQt5Core.so.5:_ZN6QTimer4stopEv
libQt5Core.so.5:_ZN6QTimer5startEv
libQt5Core.so.5:_ZN6QTimerC1EP7QObject
libQt5Core.so.5:_ZN6QTimerD1Ev
libQt5Core.so.5:_ZN7QBuffer4openE6QFlagsIN9QIODevice12OpenModeFlagEE
libQt5Core.so.5:_ZN7QBuffer5closeEv
libQt5Core.so.5:_ZN7QBufferC1EP10QByteArrayP7QObject
libQt5Core.so.5:_ZN7QBufferC1EP7QObject
libQt5Core.so.5:_ZN7QBufferD1Ev
libQt5Core.so.5:_ZN7QObject10childEventEP11QChildEvent
libQt5Core.so.5:_ZN7QObject10disconnectEPKS_PKcS1_S3_
libQt5Core.so.5:_ZN7QObject10timerEventEP11QTimerEvent
libQt5Core.so.5:_ZN7QObject11customEventEP6QEvent
libQt5Core.so.5:_ZN7QObject11deleteLaterEv
libQt5Core.so.5:_ZN7QObject11eventFilterEPS_P6QEvent
libQt5Core.so.5:_ZN7QObject11qt_metacallEN11QMetaObject4CallEiPPv
libQt5Core.so.5:_ZN7QObject11qt_metacastEPKc
libQt5Core.so.5:_ZN7QObject11setPropertyEPKcRK8QVariant
libQt5Core.so.5:_ZN7QObject12blockSignalsEb
libQt5Core.so.5:_ZN7QObject13connectNotifyERK11QMetaMethod
libQt5Core.so.5:_ZN7QObject13setObjectNameERK7QString
libQt5Core.so.5:_ZN7QObject16disconnectNotifyERK11QMetaMethod
libQt5Core.so.5:_ZN7QObject16staticMetaObjectE
libQt5Core.so.5:_ZN7QObject5eventEP6QEvent
libQt5Core.so.5:_ZN7QObject7connectEPKS_PKcS1_S3_N2Qt14ConnectionTypeE
libQt5Core.so.5:_ZN7QObject9destroyedEPS_
libQt5Core.so.5:_ZN7QObject9setParentEPS_
libQt5Core.so.5:_ZN7QObjectC2EPS_
libQt5Core.so.5:_ZN7QObjectD2Ev
libQt5Core.so.5:_ZN7QString11reallocDataEjb
libQt5Core.so.5:_ZN7QString13toUtf8_helperERKS_
libQt5Core.so.5:_ZN7QString14compare_helperEPK5QChariPKciN2Qt15CaseSensitivityE
libQt5Core.so.5:_ZN7QString15fromUtf8_helperEPKci
libQt5Core.so.5:_ZN7QString16fromAscii_helperEPKci
libQt5Core.so.5:_ZN7QString17fromLatin1_helperEPKci
libQt5Core.so.5:_ZN7QString18toLocal8Bit_helperEPK5QChari
libQt5Core.so.5:_ZN7QString23toLatin1_helper_inplaceERS_
libQt5Core.so.5:_ZN7QString6appendERKS_
libQt5Core.so.5:_ZN7QString6numberEii
libQt5Core.so.5:_ZN7QString6numberEji
libQt5Core.so.5:_ZN7QString7replaceEiiRKS_
libQt5Core.so.5:_ZN7QStringC1E5QChar
libQt5Core.so.5:_ZN7QStringaSE13QLatin1String
libQt5Core.so.5:_ZN7QStringaSERKS_
libQt5Core.so.5:_ZN8QLibrary4loadEv
libQt5Core.so.5:_ZN8QLibrary7resolveEPKc
libQt5Core.so.5:_ZN8QLibraryC1ERK7QStringP7QObject
libQt5Core.so.5:_ZN8QLibraryD1Ev
libQt5Core.so.5:_ZN8QProcess11qt_metacallEN11QMetaObject4CallEiPPv
libQt5Core.so.5:_ZN8QProcess11qt_metacastEPKc
libQt5Core.so.5:_ZN8QProcess14waitForStartedEi
libQt5Core.so.5:_ZN8QProcess15waitForFinishedEi
libQt5Core.so.5:_ZN8QProcess16staticMetaObjectE
libQt5Core.so.5:_ZN8QProcess16waitForReadyReadEi
libQt5Core.so.5:_ZN8QProcess17closeWriteChannelEv
libQt5Core.so.5:_ZN8QProcess17setupChildProcessEv
libQt5Core.so.5:_ZN8QProcess19waitForBytesWrittenEi
libQt5Core.so.5:_ZN8QProcess20readAllStandardErrorEv
libQt5Core.so.5:_ZN8QProcess21readAllStandardOutputEv
libQt5Core.so.5:_ZN8QProcess21setProcessEnvironmentERK19QProcessEnvironment
libQt5Core.so.5:_ZN8QProcess4killEv
libQt5Core.so.5:_ZN8QProcess4openE6QFlagsIN9QIODevice12OpenModeFlagEE
libQt5Core.so.5:_ZN8QProcess5closeEv
libQt5Core.so.5:_ZN8QProcess5startERK7QStringRK11QStringList6QFlagsIN9QIODevice12OpenModeFlagEE
libQt5Core.so.5:_ZN8QProcess7executeERK7QString
libQt5Core.so.5:_ZN8QProcess8readDataEPcx
libQt5Core.so.5:_ZN8QProcess9writeDataEPKcx
libQt5Core.so.5:_ZN8QProcessC2EP7QObject
libQt5Core.so.5:_ZN8QProcessD2Ev
libQt5Core.so.5:_ZN8QVariantC1E13QLatin1String
libQt5Core.so.5:_ZN8QVariantC1EPKc
libQt5Core.so.5:_ZN8QVariantC1ERK10QByteArray
libQt5Core.so.5:_ZN8QVariantC1ERK11QStringList
libQt5Core.so.5:_ZN8QVariantC1ERK4QMapI7QStringS_E
libQt5Core.so.5:_ZN8QVariantC1ERK7QString
libQt5Core.so.5:_ZN8QVariantC1ERKS_
libQt5Core.so.5:_ZN8QVariantC1Eb
libQt5Core.so.5:_ZN8QVariantC1Ei
libQt5Core.so.5:_ZN8QVariantC1EiPKvj
libQt5Core.so.5:_ZN8QVariantC1Ej
libQt5Core.so.5:_ZN8QVariantD1Ev
libQt5Core.so.5:_ZN8QVariantaSERKS_
libQt5Core.so.5:_ZN9QFileInfoC1ERK7QString
libQt5Core.so.5:_ZN9QFileInfoD1Ev
libQt5Core.so.5:_ZN9QHashData11free_helperEPFvPNS_4NodeEE
libQt5Core.so.5:_ZN9QHashData11shared_nullE
libQt5Core.so.5:_ZN9QHashData12allocateNodeEi
libQt5Core.so.5:_ZN9QHashData13detach_helperEPFvPNS_4NodeEPvEPFvS1_Eii
libQt5Core.so.5:_ZN9QHashData6rehashEi
libQt5Core.so.5:_ZN9QHashData8freeNodeEPv
libQt5Core.so.5:_ZN9QHashData8nextNodeEPNS_4NodeE
libQt5Core.so.5:_ZN9QIODevice12readLineDataEPcx
libQt5Core.so.5:_ZN9QIODevice4readEx
libQt5Core.so.5:_ZN9QIODevice4seekEx
libQt5Core.so.5:_ZN9QIODevice5resetEv
libQt5Core.so.5:_ZN9QIODevice5writeEPKcx
libQt5Core.so.5:_ZN9QListData11detach_growEPii
libQt5Core.so.5:_ZN9QListData11shared_nullE
libQt5Core.so.5:_ZN9QListData5eraseEPPv
libQt5Core.so.5:_ZN9QListData6appendERKS_
libQt5Core.so.5:_ZN9QListData6appendEv
libQt5Core.so.5:_ZN9QListData6detachEi
libQt5Core.so.5:_ZN9QListData6removeEi
libQt5Core.so.5:_ZN9QListData7disposeEPNS_4DataE
libQt5Core.so.5:_ZN9QListData7reallocEi
libQt5Core.so.5:_ZN9QMetaType22registerNormalizedTypeERK10QByteArrayPFvPvEPFS3_S3_PKvEi6QFlagsINS_8TypeFlagEEPK11QMetaObject
libQt5Core.so.5:_ZN9QMetaType25registerConverterFunctionEPKN9QtPrivate25AbstractConverterFunctionEii
libQt5Core.so.5:_ZN9QMetaType25registerNormalizedTypedefERK10QByteArrayi
libQt5Core.so.5:_ZN9QMetaType27unregisterConverterFunctionEii
libQt5Core.so.5:_ZN9QMetaType30hasRegisteredConverterFunctionEii
libQt5Core.so.5:_ZN9QMetaType8typeNameEi
libQt5Core.so.5:_ZN9QSettings10beginGroupERK7QString
libQt5Core.so.5:_ZN9QSettings7setPathENS_6FormatENS_5ScopeERK7QString
libQt5Core.so.5:_ZN9QSettings8endGroupEv
libQt5Core.so.5:_ZN9QSettingsC1ERK7QStringS2_P7QObject
libQt5Core.so.5:_ZN9QSettingsD1Ev
libQt5Core.so.5:_ZN9QtPrivate16QStringList_joinERK11QStringList13QLatin1String
libQt5Core.so.5:_ZN9QtPrivate20QStringList_containsEPK11QStringList13QLatin1StringN2Qt15CaseSensitivityE
libQt5Core.so.5:_ZN9QtPrivate20QStringList_containsEPK11QStringListRK7QStringN2Qt15CaseSensitivityE
libQt5Core.so.5:_ZNK10QByteArray5toIntEPbi
libQt5Core.so.5:_ZNK10QByteArray6isNullEv
libQt5Core.so.5:_ZNK10QByteArray8endsWithEc
libQt5Core.so.5:_ZNK10QEventLoop9isRunningEv
libQt5Core.so.5:_ZNK11QDataStream6statusEv
libQt5Core.so.5:_ZNK11QMetaObject4castEP7QObject
libQt5Core.so.5:_ZNK11QMetaObject9classNameEv
libQt5Core.so.5:_ZNK11QObjectData17dynamicMetaObjectEv
libQt5Core.so.5:_ZNK12QMapNodeBase12previousNodeEv
libQt5Core.so.5:_ZNK12QMapNodeBase8nextNodeEv
libQt5Core.so.5:_ZNK13QPluginLoader11errorStringEv
libQt5Core.so.5:_ZNK14QMessageLogger5debugEv
libQt5Core.so.5:_ZNK14QMessageLogger5fatalEPKcz
libQt5Core.so.5:_ZNK14QMessageLogger7warningEPKcz
libQt5Core.so.5:_ZNK14QMessageLogger7warningEv
libQt5Core.so.5:_ZNK14QMessageLogger8criticalEPKcz
libQt5Core.so.5:_ZNK14QMessageLogger8criticalEv
libQt5Core.so.5:_ZNK19QProcessEnvironment5valueERK7QStringS2_
libQt5Core.so.5:_ZNK19QProcessEnvironment8containsERK7QString
libQt5Core.so.5:_ZNK20QAssociativeIterable14const_iterator3keyEv
libQt5Core.so.5:_ZNK20QAssociativeIterable14const_iterator5valueEv
libQt5Core.so.5:_ZNK20QAssociativeIterable14const_iteratorneERKS0_
libQt5Core.so.5:_ZNK20QAssociativeIterable3endEv
libQt5Core.so.5:_ZNK20QAssociativeIterable5beginEv
libQt5Core.so.5:_ZNK4QDir4pathEv
libQt5Core.so.5:_ZNK4QDir6existsEv
libQt5Core.so.5:_ZNK4QDir6mkpathERK7QString
libQt5Core.so.5:_ZNK4QDir8filePathERK7QString
libQt5Core.so.5:_ZNK4QDir9entryListERK11QStringList6QFlagsINS_6FilterEES3_INS_8SortFlagEE
libQt5Core.so.5:_ZNK5QFile11permissionsEv
libQt5Core.so.5:_ZNK7QBuffer4dataEv
libQt5Core.so.5:_ZNK7QBuffer5atEndEv
libQt5Core.so.5:_ZNK7QObject10metaObjectEv
libQt5Core.so.5:_ZNK7QObject10objectNameEv
libQt5Core.so.5:_ZNK7QObject6senderEv
libQt5Core.so.5:_ZNK7QObject8propertyEPKc
libQt5Core.so.5:_ZNK7QString10startsWithE13QLatin1StringN2Qt15CaseSensitivityE
libQt5Core.so.5:_ZNK7QString10startsWithE5QCharN2Qt15CaseSensitivityE
libQt5Core.so.5:_ZNK7QString3argERKS_i5QChar
libQt5Core.so.5:_ZNK7QString3argExii5QChar
libQt5Core.so.5:_ZNK7QString3argEyii5QChar
libQt5Core.so.5:_ZNK7QString3midEii
libQt5Core.so.5:_ZNK7QString5splitE5QCharNS_13SplitBehaviorEN2Qt15CaseSensitivityE
libQt5Core.so.5:_ZNK7QString5toIntEPbi
libQt5Core.so.5:_ZNK7QString7indexOfE13QLatin1StringiN2Qt15CaseSensitivityE
libQt5Core.so.5:_ZNK7QString7sectionERKS_ii6QFlagsINS_11SectionFlagEE
libQt5Core.so.5:_ZNK7QStringeqE13QLatin1String
libQt5Core.so.5:_ZNK8QLibrary11errorStringEv
libQt5Core.so.5:_ZNK8QProcess11canReadLineEv
libQt5Core.so.5:_ZNK8QProcess12bytesToWriteEv
libQt5Core.so.5:_ZNK8QProcess12isSequentialEv
libQt5Core.so.5:_ZNK8QProcess14bytesAvailableEv
libQt5Core.so.5:_ZNK8QProcess3pidEv
libQt5Core.so.5:_ZNK8QProcess5atEndEv
libQt5Core.so.5:_ZNK8QProcess5stateEv
libQt5Core.so.5:_ZNK8QVariant11toByteArrayEv
libQt5Core.so.5:_ZNK8QVariant12toStringListEv
libQt5Core.so.5:_ZNK8QVariant3cmpERKS_
libQt5Core.so.5:_ZNK8QVariant5toIntEPb
libQt5Core.so.5:_ZNK8QVariant6isNullEv
libQt5Core.so.5:_ZNK8QVariant6toBoolEv
libQt5Core.so.5:_ZNK8QVariant6toListEv
libQt5Core.so.5:_ZNK8QVariant6toUIntEPb
libQt5Core.so.5:_ZNK8QVariant7convertEiPv
libQt5Core.so.5:_ZNK8QVariant8toStringEv
libQt5Core.so.5:_ZNK8QVariant8typeNameEv
libQt5Core.so.5:_ZNK8QVariant8userTypeEv
libQt5Core.so.5:_ZNK8QVariant9constDataEv
libQt5Core.so.5:_ZNK9QFileInfo11absoluteDirEv
libQt5Core.so.5:_ZNK9QFileInfo3dirEv
libQt5Core.so.5:_ZNK9QFileInfo6existsEv
libQt5Core.so.5:_ZNK9QIODevice20isTransactionStartedEv
libQt5Core.so.5:_ZNK9QIODevice3posEv
libQt5Core.so.5:_ZNK9QIODevice4sizeEv
libQt5Core.so.5:_ZNK9QSettings5valueERK7QStringRK8QVariant
libQt5Core.so.5:_ZNK9QSettings9childKeysEv
libQt5Core.so.5:_ZTI6QEvent
libQt5Core.so.5:_ZTI7QObject
libQt5Core.so.5:_ZTI8QProcess
libQt5Core.so.5:_ZeqRK7QStringS1_
libQt5Core.so.5:_Zls6QDebugPK7QObject
libQt5Core.so.5:_Zls6QDebugRK4QDir
libQt5Core.so.5:_Zls6QDebugRK8QVariant
libQt5Core.so.5:_ZlsR11QDataStreamRK10QByteArray
libQt5Core.so.5:_ZlsR11QDataStreamRK7QString
libQt5Core.so.5:_ZlsR11QDataStreamRK8QVariant
libQt5Core.so.5:_ZltRK7QStringS1_
libQt5Core.so.5:_ZrsR11QDataStreamR10QByteArray
libQt5Core.so.5:_ZrsR11QDataStreamR7QString
libQt5Core.so.5:_ZrsR11QDataStreamR8QVariant
libQt5Core.so.5:qt_version_tag
libQt5DBus.so.5:_ZN10QDBusError11errorStringENS_9ErrorTypeE
libQt5DBus.so.5:_ZN10QDBusError16staticMetaObjectE
libQt5DBus.so.5:_ZN10QDBusErrorC1ERKS_
libQt5DBus.so.5:_ZN10QDBusErrorC1Ev
libQt5DBus.so.5:_ZN10QDBusErroraSERKS_
libQt5DBus.so.5:_ZN12QDBusContextC2Ev
libQt5DBus.so.5:_ZN12QDBusContextD1Ev
libQt5DBus.so.5:_ZN12QDBusContextD2Ev
libQt5DBus.so.5:_ZN12QDBusMessage12setArgumentsERK5QListI8QVariantE
libQt5DBus.so.5:_ZN12QDBusMessage16createMethodCallERK7QStringS2_S2_S2_
libQt5DBus.so.5:_ZN12QDBusMessageC1ERKS_
libQt5DBus.so.5:_ZN12QDBusMessageC1Ev
libQt5DBus.so.5:_ZN12QDBusMessageD1Ev
libQt5DBus.so.5:_ZN12QDBusMessageaSERKS_
libQt5DBus.so.5:_ZN12QDBusMessagelsERK8QVariant
libQt5DBus.so.5:_ZN13QDBusArgument10beginArrayEi
libQt5DBus.so.5:_ZN13QDBusArgument11endMapEntryEv
libQt5DBus.so.5:_ZN13QDBusArgument12endStructureEv
libQt5DBus.so.5:_ZN13QDBusArgument13beginMapEntryEv
libQt5DBus.so.5:_ZN13QDBusArgument14beginStructureEv
libQt5DBus.so.5:_ZN13QDBusArgument6endMapEv
libQt5DBus.so.5:_ZN13QDBusArgument8beginMapEii
libQt5DBus.so.5:_ZN13QDBusArgument8endArrayEv
libQt5DBus.so.5:_ZN13QDBusArgumentC1ERKS_
libQt5DBus.so.5:_ZN13QDBusArgumentC1Ev
libQt5DBus.so.5:_ZN13QDBusArgumentD1Ev
libQt5DBus.so.5:_ZN13QDBusArgumentlsERK11QStringList
libQt5DBus.so.5:_ZN13QDBusArgumentlsERK12QDBusVariant
libQt5DBus.so.5:_ZN13QDBusArgumentlsERK7QString
libQt5DBus.so.5:_ZN13QDBusMetaType25registerMarshallOperatorsEiPFvR13QDBusArgumentPKvEPFvRKS0_PvE
libQt5DBus.so.5:_ZN15QDBusConnection10sessionBusEv
libQt5DBus.so.5:_ZN15QDBusConnection13connectToPeerERK7QStringS2_
libQt5DBus.so.5:_ZN15QDBusConnection14registerObjectERK7QStringP7QObject6QFlagsINS_14RegisterOptionEE
libQt5DBus.so.5:_ZN15QDBusConnection15registerServiceERK7QString
libQt5DBus.so.5:_ZN15QDBusConnection16unregisterObjectERK7QStringNS_14UnregisterModeE
libQt5DBus.so.5:_ZN15QDBusConnection17unregisterServiceERK7QString
libQt5DBus.so.5:_ZN15QDBusConnection7connectERK7QStringS2_S2_S2_P7QObjectPKc
libQt5DBus.so.5:_ZN15QDBusConnectionC1ERK7QString
libQt5DBus.so.5:_ZN15QDBusConnectionC1ERKS_
libQt5DBus.so.5:_ZN15QDBusConnectionD1Ev
libQt5DBus.so.5:_ZN15QDBusConnectionaSERKS_
libQt5DBus.so.5:_ZN15QDBusObjectPath7doCheckEv
libQt5DBus.so.5:_ZN16QDBusPendingCallD1Ev
libQt5DBus.so.5:_ZN20QDBusAbstractAdaptor11qt_metacallEN11QMetaObject4CallEiPPv
libQt5DBus.so.5:_ZN20QDBusAbstractAdaptor11qt_metacastEPKc
libQt5DBus.so.5:_ZN20QDBusAbstractAdaptor16staticMetaObjectE
libQt5DBus.so.5:_ZN20QDBusAbstractAdaptor19setAutoRelaySignalsEb
libQt5DBus.so.5:_ZN20QDBusAbstractAdaptorC2EP7QObject
libQt5DBus.so.5:_ZN20QDBusAbstractAdaptorD2Ev
libQt5DBus.so.5:_ZN21QDBusPendingReplyData12setMetaTypesEiPKi
libQt5DBus.so.5:_ZN21QDBusPendingReplyData6assignERK16QDBusPendingCall
libQt5DBus.so.5:_ZN21QDBusPendingReplyDataC2Ev
libQt5DBus.so.5:_ZN21QDBusPendingReplyDataD2Ev
libQt5DBus.so.5:_ZN22QDBusAbstractInterface10setTimeoutEi
libQt5DBus.so.5:_ZN22QDBusAbstractInterface11doAsyncCallERK7QStringPK8QVariantm
libQt5DBus.so.5:_ZN22QDBusAbstractInterface11qt_metacallEN11QMetaObject4CallEiPPv
libQt5DBus.so.5:_ZN22QDBusAbstractInterface11qt_metacastEPKc
libQt5DBus.so.5:_ZN22QDBusAbstractInterface13connectNotifyERK11QMetaMethod
libQt5DBus.so.5:_ZN22QDBusAbstractInterface16disconnectNotifyERK11QMetaMethod
libQt5DBus.so.5:_ZN22QDBusAbstractInterface16staticMetaObjectE
libQt5DBus.so.5:_ZN22QDBusAbstractInterface20callWithArgumentListEN5QDBus8CallModeERK7QStringRK5QListI8QVariantE
libQt5DBus.so.5:_ZN22QDBusAbstractInterface25asyncCallWithArgumentListERK7QStringRK5QListI8QVariantE
libQt5DBus.so.5:_ZN22QDBusAbstractInterfaceC2ERK7QStringS2_PKcRK15QDBusConnectionP7QObject
libQt5DBus.so.5:_ZN22QDBusAbstractInterfaceD2Ev
libQt5DBus.so.5:_ZN23QDBusPendingCallWatcher11qt_metacallEN11QMetaObject4CallEiPPv
libQt5DBus.so.5:_ZN23QDBusPendingCallWatcher11qt_metacastEPKc
libQt5DBus.so.5:_ZN23QDBusPendingCallWatcher16staticMetaObjectE
libQt5DBus.so.5:_ZN23QDBusPendingCallWatcherC1ERK16QDBusPendingCallP7QObject
libQt5DBus.so.5:_ZN23QDBusPendingCallWatcherC2ERK16QDBusPendingCallP7QObject
libQt5DBus.so.5:_ZN23QDBusPendingCallWatcherD2Ev
libQt5DBus.so.5:_ZNK10QDBusError4nameEv
libQt5DBus.so.5:_ZNK10QDBusError4typeEv
libQt5DBus.so.5:_ZNK10QDBusError7messageEv
libQt5DBus.so.5:_ZNK12QDBusContext10connectionEv
libQt5DBus.so.5:_ZNK12QDBusContext14sendErrorReplyERK7QStringS2_
libQt5DBus.so.5:_ZNK12QDBusContext15setDelayedReplyEb
libQt5DBus.so.5:_ZNK12QDBusContext7messageEv
libQt5DBus.so.5:_ZNK12QDBusMessage11createReplyERK5QListI8QVariantE
libQt5DBus.so.5:_ZNK12QDBusMessage15setDelayedReplyEb
libQt5DBus.so.5:_ZNK12QDBusMessage16createErrorReplyE7QStringRKS0_
libQt5DBus.so.5:_ZNK12QDBusMessage6memberEv
libQt5DBus.so.5:_ZNK12QDBusMessage7serviceEv
libQt5DBus.so.5:_ZNK12QDBusMessage9argumentsEv
libQt5DBus.so.5:_ZNK13QDBusArgument10beginArrayEv
libQt5DBus.so.5:_ZNK13QDBusArgument11currentTypeEv
libQt5DBus.so.5:_ZNK13QDBusArgument11endMapEntryEv
libQt5DBus.so.5:_ZNK13QDBusArgument12endStructureEv
libQt5DBus.so.5:_ZNK13QDBusArgument13beginMapEntryEv
libQt5DBus.so.5:_ZNK13QDBusArgument14beginStructureEv
libQt5DBus.so.5:_ZNK13QDBusArgument16currentSignatureEv
libQt5DBus.so.5:_ZNK13QDBusArgument5atEndEv
libQt5DBus.so.5:_ZNK13QDBusArgument6endMapEv
libQt5DBus.so.5:_ZNK13QDBusArgument8beginMapEv
libQt5DBus.so.5:_ZNK13QDBusArgument8endArrayEv
libQt5DBus.so.5:_ZNK13QDBusArgumentrsER11QStringList
libQt5DBus.so.5:_ZNK13QDBusArgumentrsER15QDBusObjectPath
libQt5DBus.so.5:_ZNK13QDBusArgumentrsER7QString
libQt5DBus.so.5:_ZNK13QDBusArgumentrsERb
libQt5DBus.so.5:_ZNK13QDBusArgumentrsERj
libQt5DBus.so.5:_ZNK15QDBusConnection11isConnectedEv
libQt5DBus.so.5:_ZNK15QDBusConnection18objectRegisteredAtERK7QString
libQt5DBus.so.5:_ZNK15QDBusConnection4nameEv
libQt5DBus.so.5:_ZNK15QDBusConnection4sendERK12QDBusMessage
libQt5DBus.so.5:_ZNK15QDBusConnection9asyncCallERK12QDBusMessagei
libQt5DBus.so.5:_ZNK15QDBusConnection9interfaceEv
libQt5DBus.so.5:_ZNK15QDBusConnection9lastErrorEv
libQt5DBus.so.5:_ZNK16QDBusPendingCall10isFinishedEv
libQt5DBus.so.5:_ZNK16QDBusPendingCall5errorEv
libQt5DBus.so.5:_ZNK16QDBusPendingCall5replyEv
libQt5DBus.so.5:_ZNK16QDBusPendingCall7isErrorEv
libQt5DBus.so.5:_ZNK21QDBusPendingReplyData10argumentAtEi
libQt5DBus.so.5:_ZNK22QDBusAbstractInterface10connectionEv
libQt5DBus.so.5:_ZNK22QDBusAbstractInterface10metaObjectEv
libQt5DBus.so.5:_ZNK22QDBusAbstractInterface4pathEv
libQt5DBus.so.5:_ZNK22QDBusAbstractInterface7serviceEv
libQt5DBus.so.5:_ZNK22QDBusAbstractInterface9interfaceEv
libQt5DBus.so.5:_ZNK24QDBusConnectionInterface10servicePidERK7QString
libQt5DBus.so.5:_ZTI20QDBusAbstractAdaptor
libQt5DBus.so.5:_ZTI22QDBusAbstractInterface
libQt5DBus.so.5:_ZTI23QDBusPendingCallWatcher
libQt5DBus.so.5:_Zls6QDebugRK10QDBusError
libQt5DBus.so.5:_ZrsRK13QDBusArgumentR8QVariant
libQt5Gui.so.5:_ZN6QImageC1ERK7QStringPKc
libQt5Gui.so.5:_ZN6QImageD1Ev
libQt5Gui.so.5:_ZNK6QImage4saveEP9QIODevicePKci
libQt5Sql.so.5:_ZN12QSqlDatabase11addDatabaseERK7QStringS2_
libQt5Sql.so.5:_ZN12QSqlDatabase11transactionEv
libQt5Sql.so.5:_ZN12QSqlDatabase14removeDatabaseERK7QString
libQt5Sql.so.5:_ZN12QSqlDatabase15setDatabaseNameERK7QString
libQt5Sql.so.5:_ZN12QSqlDatabase4openEv
libQt5Sql.so.5:_ZN12QSqlDatabase5closeEv
libQt5Sql.so.5:_ZN12QSqlDatabase6commitEv
libQt5Sql.so.5:_ZN12QSqlDatabase7driversEv
libQt5Sql.so.5:_ZN12QSqlDatabase8rollbackEv
libQt5Sql.so.5:_ZN12QSqlDatabaseC1ERKS_
libQt5Sql.so.5:_ZN12QSqlDatabaseD1Ev
libQt5Sql.so.5:_ZN12QSqlDatabaseaSERKS_
libQt5Sql.so.5:_ZN9QSqlErrorD1Ev
libQt5Sql.so.5:_ZN9QSqlQuery4execEv
libQt5Sql.so.5:_ZN9QSqlQuery4nextEv
libQt5Sql.so.5:_ZN9QSqlQuery5clearEv
libQt5Sql.so.5:_ZN9QSqlQuery5firstEv
libQt5Sql.so.5:_ZN9QSqlQuery7prepareERK7QString
libQt5Sql.so.5:_ZN9QSqlQuery9bindValueERK7QStringRK8QVariant6QFlagsIN4QSql13ParamTypeFlagEE
libQt5Sql.so.5:_ZN9QSqlQueryC1E12QSqlDatabase
libQt5Sql.so.5:_ZN9QSqlQueryC1ERK7QString12QSqlDatabase
libQt5Sql.so.5:_ZN9QSqlQueryC1ERKS_
libQt5Sql.so.5:_ZN9QSqlQueryD1Ev
libQt5Sql.so.5:_ZN9QSqlQueryaSERKS_
libQt5Sql.so.5:_ZNK12QSqlDatabase12databaseNameEv
libQt5Sql.so.5:_ZNK12QSqlDatabase14connectionNameEv
libQt5Sql.so.5:_ZNK12QSqlDatabase6tablesEN4QSql9TableTypeE
libQt5Sql.so.5:_ZNK12QSqlDatabase9lastErrorEv
libQt5Sql.so.5:_ZNK9QSqlError10driverTextEv
libQt5Sql.so.5:_ZNK9QSqlError12databaseTextEv
libQt5Sql.so.5:_ZNK9QSqlError4textEv
libQt5Sql.so.5:_ZNK9QSqlError4typeEv
libQt5Sql.so.5:_ZNK9QSqlError6numberEv
libQt5Sql.so.5:_ZNK9QSqlError7isValidEv
libQt5Sql.so.5:_ZNK9QSqlQuery12lastInsertIdEv
libQt5Sql.so.5:_ZNK9QSqlQuery5valueEi
libQt5Sql.so.5:_ZNK9QSqlQuery9lastErrorEv
libQt5Sql.so.5:_ZNK9QSqlQuery9lastQueryEv
libc.so.6:__cxa_atexit
libc.so.6:__libc_start_main
libc.so.6:__stack_chk_fail
libc.so.6:__syslog_chk
libc.so.6:__xstat
libc.so.6:chown
libc.so.6:clock_gettime
libc.so.6:closelog
libc.so.6:exit
libc.so.6:fcntl
libc.so.6:fflush
libc.so.6:fileno
libc.so.6:fwrite
libc.so.6:memcmp
libc.so.6:memcpy
libc.so.6:openlog
libc.so.6:sigemptyset
libc.so.6:socketpair
libc.so.6:stdin
libc.so.6:stdout
libc.so.6:strcmp
libc.so.6:strlen
libc.so.6:umask
libc.so.6:usleep
libpthread.so.0:__errno_location
libpthread.so.0:close
libpthread.so.0:read
libpthread.so.0:sigaction
libpthread.so.0:write
libstdc++.so.6:_ZNSt8ios_base4InitC1Ev
libstdc++.so.6:_ZNSt8ios_base4InitD1Ev
libstdc++.so.6:_ZTVN10__cxxabiv117__class_type_infoE
libstdc++.so.6:_ZTVN10__cxxabiv120__si_class_type_infoE
libstdc++.so.6:_ZTVN10__cxxabiv121__vmi_class_type_infoE
libstdc++.so.6:_ZdlPv
libstdc++.so.6:_Znwm
libstdc++.so.6:__cxa_guard_acquire
libstdc++.so.6:__cxa_guard_release
libstdc++.so.6:__cxa_pure_virtual
