kplotting6widgets.so:qt_plugin_instance
kplotting6widgets.so:qt_plugin_query_metadata_v2
libKF6Plotting.so.6:_ZN10KPlotPoint11setBarWidthEd
libKF6Plotting.so.6:_ZN10KPlotPoint11setPositionERK7QPointF
libKF6Plotting.so.6:_ZN10KPlotPoint4setXEd
libKF6Plotting.so.6:_ZN10KPlotPoint4setYEd
libKF6Plotting.so.6:_ZN10KPlotPoint8setLabelERK7QString
libKF6Plotting.so.6:_ZN10KPlotPointC1ERK7QPointFRK7QStringd
libKF6Plotting.so.6:_ZN10KPlotPointC1EddRK7QStringd
libKF6Plotting.so.6:_ZN10KPlotPointC1Ev
libKF6Plotting.so.6:_ZN10KPlotPointC2ERK7QPointFRK7QStringd
libKF6Plotting.so.6:_ZN10KPlotPointC2EddRK7QStringd
libKF6Plotting.so.6:_ZN10KPlotPointC2Ev
libKF6Plotting.so.6:_ZN10KPlotPointD1Ev
libKF6Plotting.so.6:_ZN10KPlotPointD2Ev
libKF6Plotting.so.6:_ZN11KPlotObject10setLinePenERK4QPen
libKF6Plotting.so.6:_ZN11KPlotObject11clearPointsEv
libKF6Plotting.so.6:_ZN11KPlotObject11removePointEi
libKF6Plotting.so.6:_ZN11KPlotObject11setBarBrushERK6QBrush
libKF6Plotting.so.6:_ZN11KPlotObject11setLabelPenERK4QPen
libKF6Plotting.so.6:_ZN11KPlotObject11setShowBarsEb
libKF6Plotting.so.6:_ZN11KPlotObject12setShowLinesEb
libKF6Plotting.so.6:_ZN11KPlotObject13setPointStyleENS_10PointStyleE
libKF6Plotting.so.6:_ZN11KPlotObject13setShowPointsEb
libKF6Plotting.so.6:_ZN11KPlotObject4drawEP8QPainterP11KPlotWidget
libKF6Plotting.so.6:_ZN11KPlotObject6setPenERK4QPen
libKF6Plotting.so.6:_ZN11KPlotObject7setSizeEd
libKF6Plotting.so.6:_ZN11KPlotObject8addPointEP10KPlotPoint
libKF6Plotting.so.6:_ZN11KPlotObject8addPointERK7QPointFRK7QStringd
libKF6Plotting.so.6:_ZN11KPlotObject8addPointEddRK7QStringd
libKF6Plotting.so.6:_ZN11KPlotObject8setBrushERK6QBrush
libKF6Plotting.so.6:_ZN11KPlotObject9setBarPenERK4QPen
libKF6Plotting.so.6:_ZN11KPlotObjectC1ERK6QColorNS_8PlotTypeEdNS_10PointStyleE
libKF6Plotting.so.6:_ZN11KPlotObjectC2ERK6QColorNS_8PlotTypeEdNS_10PointStyleE
libKF6Plotting.so.6:_ZN11KPlotObjectD1Ev
libKF6Plotting.so.6:_ZN11KPlotObjectD2Ev
libKF6Plotting.so.6:_ZN11KPlotWidget10paintEventEP11QPaintEvent
libKF6Plotting.so.6:_ZN11KPlotWidget10placeLabelEP8QPainterP10KPlotPoint
libKF6Plotting.so.6:_ZN11KPlotWidget10setPixRectEv
libKF6Plotting.so.6:_ZN11KPlotWidget11qt_metacallEN11QMetaObject4CallEiPPv
libKF6Plotting.so.6:_ZN11KPlotWidget11qt_metacastEPKc
libKF6Plotting.so.6:_ZN11KPlotWidget11resizeEventEP12QResizeEvent
libKF6Plotting.so.6:_ZN11KPlotWidget11setShowGridEb
libKF6Plotting.so.6:_ZN11KPlotWidget12setGridColorERK6QColor
libKF6Plotting.so.6:_ZN11KPlotWidget13addPlotObjectEP11KPlotObject
libKF6Plotting.so.6:_ZN11KPlotWidget13maskAlongLineERK7QPointFS2_f
libKF6Plotting.so.6:_ZN11KPlotWidget13resetPlotMaskEv
libKF6Plotting.so.6:_ZN11KPlotWidget13setTopPaddingEi
libKF6Plotting.so.6:_ZN11KPlotWidget14addPlotObjectsERK5QListIP11KPlotObjectE
libKF6Plotting.so.6:_ZN11KPlotWidget14setLeftPaddingEi
libKF6Plotting.so.6:_ZN11KPlotWidget15setAntialiasingEb
libKF6Plotting.so.6:_ZN11KPlotWidget15setRightPaddingEi
libKF6Plotting.so.6:_ZN11KPlotWidget16setBottomPaddingEi
libKF6Plotting.so.6:_ZN11KPlotWidget16staticMetaObjectE
libKF6Plotting.so.6:_ZN11KPlotWidget17replacePlotObjectEiP11KPlotObject
libKF6Plotting.so.6:_ZN11KPlotWidget18setBackgroundColorERK6QColor
libKF6Plotting.so.6:_ZN11KPlotWidget18setDefaultPaddingsEv
libKF6Plotting.so.6:_ZN11KPlotWidget18setForegroundColorERK6QColor
libKF6Plotting.so.6:_ZN11KPlotWidget18setSecondaryLimitsEdddd
libKF6Plotting.so.6:_ZN11KPlotWidget20clearSecondaryLimitsEv
libKF6Plotting.so.6:_ZN11KPlotWidget20removeAllPlotObjectsEv
libKF6Plotting.so.6:_ZN11KPlotWidget21setObjectToolTipShownEb
libKF6Plotting.so.6:_ZN11KPlotWidget24setAutoDeletePlotObjectsEb
libKF6Plotting.so.6:_ZN11KPlotWidget4axisENS_4AxisE
libKF6Plotting.so.6:_ZN11KPlotWidget5eventEP6QEvent
libKF6Plotting.so.6:_ZN11KPlotWidget8drawAxesEP8QPainter
libKF6Plotting.so.6:_ZN11KPlotWidget8maskRectERK6QRectFf
libKF6Plotting.so.6:_ZN11KPlotWidget9resetPlotEv
libKF6Plotting.so.6:_ZN11KPlotWidget9setLimitsEdddd
libKF6Plotting.so.6:_ZN11KPlotWidgetC1EP7QWidget
libKF6Plotting.so.6:_ZN11KPlotWidgetC2EP7QWidget
libKF6Plotting.so.6:_ZN11KPlotWidgetD0Ev
libKF6Plotting.so.6:_ZN11KPlotWidgetD1Ev
libKF6Plotting.so.6:_ZN11KPlotWidgetD2Ev
libKF6Plotting.so.6:_ZN9KPlotAxis10setVisibleEb
libKF6Plotting.so.6:_ZN9KPlotAxis12setTickMarksEdd
libKF6Plotting.so.6:_ZN9KPlotAxis18setTickLabelFormatEcii
libKF6Plotting.so.6:_ZN9KPlotAxis18setTickLabelsShownEb
libKF6Plotting.so.6:_ZN9KPlotAxis8setLabelERK7QString
libKF6Plotting.so.6:_ZN9KPlotAxisC1ERK7QString
libKF6Plotting.so.6:_ZN9KPlotAxisC2ERK7QString
libKF6Plotting.so.6:_ZN9KPlotAxisD1Ev
libKF6Plotting.so.6:_ZN9KPlotAxisD2Ev
libKF6Plotting.so.6:_ZNK10KPlotPoint1xEv
libKF6Plotting.so.6:_ZNK10KPlotPoint1yEv
libKF6Plotting.so.6:_ZNK10KPlotPoint5labelEv
libKF6Plotting.so.6:_ZNK10KPlotPoint8barWidthEv
libKF6Plotting.so.6:_ZNK10KPlotPoint8positionEv
libKF6Plotting.so.6:_ZNK11KPlotObject10pointStyleEv
libKF6Plotting.so.6:_ZNK11KPlotObject3penEv
libKF6Plotting.so.6:_ZNK11KPlotObject4sizeEv
libKF6Plotting.so.6:_ZNK11KPlotObject5brushEv
libKF6Plotting.so.6:_ZNK11KPlotObject6barPenEv
libKF6Plotting.so.6:_ZNK11KPlotObject6pointsEv
libKF6Plotting.so.6:_ZNK11KPlotObject7linePenEv
libKF6Plotting.so.6:_ZNK11KPlotObject8barBrushEv
libKF6Plotting.so.6:_ZNK11KPlotObject8labelPenEv
libKF6Plotting.so.6:_ZNK11KPlotObject9plotTypesEv
libKF6Plotting.so.6:_ZNK11KPlotWidget10metaObjectEv
libKF6Plotting.so.6:_ZNK11KPlotWidget10topPaddingEv
libKF6Plotting.so.6:_ZNK11KPlotWidget11isGridShownEv
libKF6Plotting.so.6:_ZNK11KPlotWidget11leftPaddingEv
libKF6Plotting.so.6:_ZNK11KPlotWidget11mapToWidgetERK7QPointF
libKF6Plotting.so.6:_ZNK11KPlotWidget11plotObjectsEv
libKF6Plotting.so.6:_ZNK11KPlotWidget12antialiasingEv
libKF6Plotting.so.6:_ZNK11KPlotWidget12rightPaddingEv
libKF6Plotting.so.6:_ZNK11KPlotWidget13bottomPaddingEv
libKF6Plotting.so.6:_ZNK11KPlotWidget15backgroundColorEv
libKF6Plotting.so.6:_ZNK11KPlotWidget15foregroundColorEv
libKF6Plotting.so.6:_ZNK11KPlotWidget15minimumSizeHintEv
libKF6Plotting.so.6:_ZNK11KPlotWidget16pointsUnderPointERK6QPoint
libKF6Plotting.so.6:_ZNK11KPlotWidget17secondaryDataRectEv
libKF6Plotting.so.6:_ZNK11KPlotWidget20isObjectToolTipShownEv
libKF6Plotting.so.6:_ZNK11KPlotWidget4axisENS_4AxisE
libKF6Plotting.so.6:_ZNK11KPlotWidget7pixRectEv
libKF6Plotting.so.6:_ZNK11KPlotWidget8dataRectEv
libKF6Plotting.so.6:_ZNK11KPlotWidget8sizeHintEv
libKF6Plotting.so.6:_ZNK11KPlotWidget9gridColorEv
libKF6Plotting.so.6:_ZNK9KPlotAxis14majorTickMarksEv
libKF6Plotting.so.6:_ZNK9KPlotAxis14minorTickMarksEv
libKF6Plotting.so.6:_ZNK9KPlotAxis14tickLabelWidthEv
libKF6Plotting.so.6:_ZNK9KPlotAxis15tickLabelFormatEv
libKF6Plotting.so.6:_ZNK9KPlotAxis18areTickLabelsShownEv
libKF6Plotting.so.6:_ZNK9KPlotAxis18tickLabelPrecisionEv
libKF6Plotting.so.6:_ZNK9KPlotAxis5labelEv
libKF6Plotting.so.6:_ZNK9KPlotAxis9isVisibleEv
libKF6Plotting.so.6:_ZNK9KPlotAxis9tickLabelEd
libKF6Plotting.so.6:_ZTI11KPlotWidget
libKF6Plotting.so.6:_ZTS11KPlotWidget
libKF6Plotting.so.6:_ZTV11KPlotWidget
libKF6Plotting.so.6:_ZThn16_N11KPlotWidgetD0Ev
libKF6Plotting.so.6:_ZThn16_N11KPlotWidgetD1Ev
