libc.so.6:__cxa_atexit
libc.so.6:__libc_single_threaded
libc.so.6:__libc_start_main
libc.so.6:__stack_chk_fail
libc.so.6:fwrite
libc.so.6:getenv
libc.so.6:memchr
libc.so.6:memcmp
libc.so.6:memcpy
libc.so.6:memmove
libc.so.6:memset
libc.so.6:pthread_mutex_lock
libc.so.6:pthread_mutex_unlock
libc.so.6:setenv
libc.so.6:stderr
libc.so.6:stdout
libc.so.6:strlen
libc.so.6:toupper
libgcc_s.so.1:_Unwind_Resume
libgcc_s.so.1:__gttf2
libgcc_s.so.1:__udivti3
libgcc_s.so.1:__unordtf2
libhyprtoolkit.so.4:_ZN11Hyprtoolkit10CHyprColorC1Em
libhyprtoolkit.so.4:_ZN11Hyprtoolkit12CDynamicSizeC1ENS0_11eSizingTypeES1_RKN9Hyprutils4Math8Vector2DE
libhyprtoolkit.so.4:_ZN11Hyprtoolkit12CNullBuilder4sizeEONS_12CDynamicSizeE
libhyprtoolkit.so.4:_ZN11Hyprtoolkit12CNullBuilder5beginEv
libhyprtoolkit.so.4:_ZN11Hyprtoolkit12CNullBuilder8commenceEv
libhyprtoolkit.so.4:_ZN11Hyprtoolkit12CTextBuilder4sizeEONS_12CDynamicSizeE
libhyprtoolkit.so.4:_ZN11Hyprtoolkit12CTextBuilder4textEONSt7__cxx1112basic_stringIcSt11char_traitsIcESaIcEEE
libhyprtoolkit.so.4:_ZN11Hyprtoolkit12CTextBuilder5alignENS_14eFontAlignmentE
libhyprtoolkit.so.4:_ZN11Hyprtoolkit12CTextBuilder5asyncEb
libhyprtoolkit.so.4:_ZN11Hyprtoolkit12CTextBuilder5beginEv
libhyprtoolkit.so.4:_ZN11Hyprtoolkit12CTextBuilder5colorEOSt8functionIFNS_10CHyprColorEvEE
libhyprtoolkit.so.4:_ZN11Hyprtoolkit12CTextBuilder8commenceEv
libhyprtoolkit.so.4:_ZN11Hyprtoolkit12CTextBuilder8fontSizeEONS_9CFontSizeE
libhyprtoolkit.so.4:_ZN11Hyprtoolkit12CTextElement7rebuildEv
libhyprtoolkit.so.4:_ZN11Hyprtoolkit14CButtonBuilder11onMainClickEOSt8functionIFvN9Hyprutils6Memory14CSharedPointerINS_14CButtonElementEEEEE
libhyprtoolkit.so.4:_ZN11Hyprtoolkit14CButtonBuilder4sizeEONS_12CDynamicSizeE
libhyprtoolkit.so.4:_ZN11Hyprtoolkit14CButtonBuilder5beginEv
libhyprtoolkit.so.4:_ZN11Hyprtoolkit14CButtonBuilder5labelEONSt7__cxx1112basic_stringIcSt11char_traitsIcESaIcEEE
libhyprtoolkit.so.4:_ZN11Hyprtoolkit14CButtonBuilder8commenceEv
libhyprtoolkit.so.4:_ZN11Hyprtoolkit14CButtonElement7rebuildEv
libhyprtoolkit.so.4:_ZN11Hyprtoolkit14CWindowBuilder13preferredSizeERKN9Hyprutils4Math8Vector2DE
libhyprtoolkit.so.4:_ZN11Hyprtoolkit14CWindowBuilder5beginEv
libhyprtoolkit.so.4:_ZN11Hyprtoolkit14CWindowBuilder7maxSizeERKN9Hyprutils4Math8Vector2DE
libhyprtoolkit.so.4:_ZN11Hyprtoolkit14CWindowBuilder7minSizeERKN9Hyprutils4Math8Vector2DE
libhyprtoolkit.so.4:_ZN11Hyprtoolkit14CWindowBuilder8appClassEONSt7__cxx1112basic_stringIcSt11char_traitsIcESaIcEEE
libhyprtoolkit.so.4:_ZN11Hyprtoolkit14CWindowBuilder8appTitleEONSt7__cxx1112basic_stringIcSt11char_traitsIcESaIcEEE
libhyprtoolkit.so.4:_ZN11Hyprtoolkit14CWindowBuilder8commenceEv
libhyprtoolkit.so.4:_ZN11Hyprtoolkit15CTextboxBuilder11placeholderEONSt7__cxx1112basic_stringIcSt11char_traitsIcESaIcEEE
libhyprtoolkit.so.4:_ZN11Hyprtoolkit15CTextboxBuilder4sizeEONS_12CDynamicSizeE
libhyprtoolkit.so.4:_ZN11Hyprtoolkit15CTextboxBuilder5beginEv
libhyprtoolkit.so.4:_ZN11Hyprtoolkit15CTextboxBuilder8commenceEv
libhyprtoolkit.so.4:_ZN11Hyprtoolkit15CTextboxBuilder9multilineEb
libhyprtoolkit.so.4:_ZN11Hyprtoolkit15CTextboxElement11currentTextEv
libhyprtoolkit.so.4:_ZN11Hyprtoolkit15CTextboxElement5focusEb
libhyprtoolkit.so.4:_ZN11Hyprtoolkit16CComboboxBuilder4sizeEONS_12CDynamicSizeE
libhyprtoolkit.so.4:_ZN11Hyprtoolkit16CComboboxBuilder5beginEv
libhyprtoolkit.so.4:_ZN11Hyprtoolkit16CComboboxBuilder5itemsEOSt6vectorINSt7__cxx1112basic_stringIcSt11char_traitsIcESaIcEEESaIS7_EE
libhyprtoolkit.so.4:_ZN11Hyprtoolkit16CComboboxBuilder8commenceEv
libhyprtoolkit.so.4:_ZN11Hyprtoolkit16CComboboxBuilder9onChangedEOSt8functionIFvN9Hyprutils6Memory14CSharedPointerINS_16CComboboxElementEEEmEE
libhyprtoolkit.so.4:_ZN11Hyprtoolkit17CRectangleBuilder11borderColorEOSt8functionIFNS_10CHyprColorEvEE
libhyprtoolkit.so.4:_ZN11Hyprtoolkit17CRectangleBuilder15borderThicknessEi
libhyprtoolkit.so.4:_ZN11Hyprtoolkit17CRectangleBuilder4sizeEONS_12CDynamicSizeE
libhyprtoolkit.so.4:_ZN11Hyprtoolkit17CRectangleBuilder5beginEv
libhyprtoolkit.so.4:_ZN11Hyprtoolkit17CRectangleBuilder5colorEOSt8functionIFNS_10CHyprColorEvEE
libhyprtoolkit.so.4:_ZN11Hyprtoolkit17CRectangleBuilder8commenceEv
libhyprtoolkit.so.4:_ZN11Hyprtoolkit17CRectangleBuilder8roundingEi
libhyprtoolkit.so.4:_ZN11Hyprtoolkit17CRowLayoutBuilder3gapEm
libhyprtoolkit.so.4:_ZN11Hyprtoolkit17CRowLayoutBuilder4sizeEONS_12CDynamicSizeE
libhyprtoolkit.so.4:_ZN11Hyprtoolkit17CRowLayoutBuilder5beginEv
libhyprtoolkit.so.4:_ZN11Hyprtoolkit17CRowLayoutBuilder8commenceEv
libhyprtoolkit.so.4:_ZN11Hyprtoolkit20CColumnLayoutBuilder3gapEm
libhyprtoolkit.so.4:_ZN11Hyprtoolkit20CColumnLayoutBuilder4sizeEONS_12CDynamicSizeE
libhyprtoolkit.so.4:_ZN11Hyprtoolkit20CColumnLayoutBuilder5beginEv
libhyprtoolkit.so.4:_ZN11Hyprtoolkit20CColumnLayoutBuilder8commenceEv
libhyprtoolkit.so.4:_ZN11Hyprtoolkit20CColumnLayoutElement7rebuildEv
libhyprtoolkit.so.4:_ZN11Hyprtoolkit8IBackend6createEv
libhyprtoolkit.so.4:_ZN11Hyprtoolkit9CFontSize6ptSizeEv
libhyprtoolkit.so.4:_ZN11Hyprtoolkit9CFontSizeC1ENS0_11eSizingBaseEf
libhyprtoolkit.so.4:_ZNK11Hyprtoolkit10CHyprColor6darkenEf
libhyprtoolkit.so.4:_ZNK11Hyprtoolkit10CHyprColor8brightenEf
libhyprutils.so.9:_ZN9Hyprutils2OS8CProcess3pidEv
libhyprutils.so.9:_ZN9Hyprutils2OS8CProcess8runAsyncEv
libhyprutils.so.9:_ZN9Hyprutils2OS8CProcessC1ERKNSt7__cxx1112basic_stringIcSt11char_traitsIcESaIcEEERKSt6vectorIS7_SaIS7_EE
libhyprutils.so.9:_ZN9Hyprutils2OS8CProcessD1Ev
libhyprutils.so.9:_ZN9Hyprutils6Signal11CSignalBase30registerStaticListenerInternalESt8functionIFvPvEE
libhyprutils.so.9:_ZN9Hyprutils6String13CConstVarListC1ERKNSt7__cxx1112basic_stringIcSt11char_traitsIcESaIcEEEmcb
libhyprutils.so.9:_ZN9Hyprutils6String15replaceInStringERNSt7__cxx1112basic_stringIcSt11char_traitsIcESaIcEEERKS6_S9_
libhyprutils.so.9:_ZN9Hyprutils6String4trimERKNSt7__cxx1112basic_stringIcSt11char_traitsIcESaIcEEE
libhyprutils.so.9:_ZN9Hyprutils6String8CVarListC1ERKNSt7__cxx1112basic_stringIcSt11char_traitsIcESaIcEEEmcb
libhyprutils.so.9:_ZN9Hyprutils6String9CVarList2C1EONSt7__cxx1112basic_stringIcSt11char_traitsIcESaIcEEEmcbb
libm.so.6:frexp
libm.so.6:frexpf
libm.so.6:frexpl
libstdc++.so.6:_ZNKSt10filesystem7__cxx1118directory_iteratordeEv
libstdc++.so.6:_ZNKSt10filesystem7__cxx114path12has_filenameEv
libstdc++.so.6:_ZNKSt10filesystem7__cxx114path5_List13_Impl_deleterclEPNS2_5_ImplE
libstdc++.so.6:_ZNKSt10filesystem7__cxx114path5_List3endEv
libstdc++.so.6:_ZNKSt10filesystem7__cxx114path7compareERKS1_
libstdc++.so.6:_ZNKSt13runtime_error4whatEv
libstdc++.so.6:_ZNKSt6locale2id5_M_idEv
libstdc++.so.6:_ZNKSt6locale4nameB5cxx11Ev
libstdc++.so.6:_ZNKSt6localeeqERKS_
libstdc++.so.6:_ZNSt10filesystem6statusERKNS_7__cxx114pathERSt10error_code
libstdc++.so.6:_ZNSt10filesystem7__cxx1118directory_iteratorC1ERKNS0_4pathENS_17directory_optionsEPSt10error_code
libstdc++.so.6:_ZNSt10filesystem7__cxx1118directory_iteratorppEv
libstdc++.so.6:_ZNSt10filesystem7__cxx114path14_M_split_cmptsEv
libstdc++.so.6:_ZNSt10filesystem7__cxx114path5_ListC1ERKS2_
libstdc++.so.6:_ZNSt10filesystem7__cxx114path5_ListC1Ev
libstdc++.so.6:_ZNSt10filesystem7__cxx114pathdVERKS1_
libstdc++.so.6:_ZNSt10filesystem9canonicalERKNS_7__cxx114pathERSt10error_code
libstdc++.so.6:_ZNSt12__basic_fileIcED1Ev
libstdc++.so.6:_ZNSt13basic_filebufIcSt11char_traitsIcEE4openEPKcSt13_Ios_Openmode
libstdc++.so.6:_ZNSt13basic_filebufIcSt11char_traitsIcEE5closeEv
libstdc++.so.6:_ZNSt13basic_filebufIcSt11char_traitsIcEEC1Ev
libstdc++.so.6:_ZNSt13basic_filebufIcSt11char_traitsIcEED1Ev
libstdc++.so.6:_ZNSt13runtime_errorC2EPKc
libstdc++.so.6:_ZNSt13runtime_errorD2Ev
libstdc++.so.6:_ZNSt14basic_ifstreamIcSt11char_traitsIcEED1Ev
libstdc++.so.6:_ZNSt14basic_ofstreamIcSt11char_traitsIcEED1Ev
libstdc++.so.6:_ZNSt3_V215system_categoryEv
libstdc++.so.6:_ZNSt6locale7classicEv
libstdc++.so.6:_ZNSt6localeC1ERKS_
libstdc++.so.6:_ZNSt6localeC1Ev
libstdc++.so.6:_ZNSt6localeD1Ev
libstdc++.so.6:_ZNSt7__cxx1112basic_stringIcSt11char_traitsIcESaIcEE15_M_replace_coldEPcmPKcmm
libstdc++.so.6:_ZNSt7__cxx118numpunctIcE2idE
libstdc++.so.6:_ZNSt8ios_baseC2Ev
libstdc++.so.6:_ZNSt8ios_baseD2Ev
libstdc++.so.6:_ZNSt9basic_iosIcSt11char_traitsIcEE4initEPSt15basic_streambufIcS1_E
libstdc++.so.6:_ZNSt9basic_iosIcSt11char_traitsIcEE5clearESt12_Ios_Iostate
libstdc++.so.6:_ZSt16__ostream_insertIcSt11char_traitsIcEERSt13basic_ostreamIT_T0_ES6_PKS3_l
libstdc++.so.6:_ZSt16__throw_bad_castv
libstdc++.so.6:_ZSt19__throw_logic_errorPKc
libstdc++.so.6:_ZSt20__throw_length_errorPKc
libstdc++.so.6:_ZSt20__throw_system_errori
libstdc++.so.6:_ZSt24__throw_out_of_range_fmtPKcz
libstdc++.so.6:_ZSt25__throw_bad_function_callv
libstdc++.so.6:_ZSt8to_charsPcS_DF128_
libstdc++.so.6:_ZSt8to_charsPcS_DF128_St12chars_format
libstdc++.so.6:_ZSt8to_charsPcS_DF128_St12chars_formati
libstdc++.so.6:_ZSt8to_charsPcS_d
libstdc++.so.6:_ZSt8to_charsPcS_dSt12chars_format
libstdc++.so.6:_ZSt8to_charsPcS_dSt12chars_formati
libstdc++.so.6:_ZSt8to_charsPcS_e
libstdc++.so.6:_ZSt8to_charsPcS_eSt12chars_format
libstdc++.so.6:_ZSt8to_charsPcS_eSt12chars_formati
libstdc++.so.6:_ZSt8to_charsPcS_f
libstdc++.so.6:_ZSt8to_charsPcS_fSt12chars_format
libstdc++.so.6:_ZSt8to_charsPcS_fSt12chars_formati
libstdc++.so.6:_ZTISt13runtime_error
libstdc++.so.6:_ZTTSt14basic_ifstreamIcSt11char_traitsIcEE
libstdc++.so.6:_ZTTSt14basic_ofstreamIcSt11char_traitsIcEE
libstdc++.so.6:_ZTVN10__cxxabiv117__class_type_infoE
libstdc++.so.6:_ZTVN10__cxxabiv120__si_class_type_infoE
libstdc++.so.6:_ZTVSt13basic_filebufIcSt11char_traitsIcEE
libstdc++.so.6:_ZTVSt14basic_ifstreamIcSt11char_traitsIcEE
libstdc++.so.6:_ZTVSt14basic_ofstreamIcSt11char_traitsIcEE
libstdc++.so.6:_ZTVSt15basic_streambufIcSt11char_traitsIcEE
libstdc++.so.6:_ZTVSt9basic_iosIcSt11char_traitsIcEE
libstdc++.so.6:_ZdlPvm
libstdc++.so.6:_Znwm
libstdc++.so.6:__cxa_allocate_exception
libstdc++.so.6:__cxa_begin_catch
libstdc++.so.6:__cxa_end_catch
libstdc++.so.6:__cxa_free_exception
libstdc++.so.6:__cxa_guard_abort
libstdc++.so.6:__cxa_guard_acquire
libstdc++.so.6:__cxa_guard_release
libstdc++.so.6:__cxa_throw
libstdc++.so.6:__gxx_personality_v0
