libconfig++.so.11:_ZN9libconfig14ParseExceptionC1EPKciS2_
libconfig++.so.11:_ZN9libconfig14ParseExceptionC1ERKS0_
libconfig++.so.11:_ZN9libconfig14ParseExceptionC2EPKciS2_
libconfig++.so.11:_ZN9libconfig14ParseExceptionC2ERKS0_
libconfig++.so.11:_ZN9libconfig14ParseExceptionD0Ev
libconfig++.so.11:_ZN9libconfig14ParseExceptionD1Ev
libconfig++.so.11:_ZN9libconfig14ParseExceptionD2Ev
libconfig++.so.11:_ZN9libconfig15SettingIteratorC1ERKS0_
libconfig++.so.11:_ZN9libconfig15SettingIteratorC1ERNS_7SettingEb
libconfig++.so.11:_ZN9libconfig15SettingIteratorC2ERKS0_
libconfig++.so.11:_ZN9libconfig15SettingIteratorC2ERNS_7SettingEb
libconfig++.so.11:_ZN9libconfig15SettingIteratoraSERKS0_
libconfig++.so.11:_ZN9libconfig15SettingIteratormIEi
libconfig++.so.11:_ZN9libconfig15SettingIteratormmEi
libconfig++.so.11:_ZN9libconfig15SettingIteratormmEv
libconfig++.so.11:_ZN9libconfig15SettingIteratorpLEi
libconfig++.so.11:_ZN9libconfig15SettingIteratorppEi
libconfig++.so.11:_ZN9libconfig15SettingIteratorppEv
libconfig++.so.11:_ZN9libconfig16SettingExceptionC1EPKc
libconfig++.so.11:_ZN9libconfig16SettingExceptionC1ERKNS_7SettingE
libconfig++.so.11:_ZN9libconfig16SettingExceptionC1ERKNS_7SettingEPKc
libconfig++.so.11:_ZN9libconfig16SettingExceptionC1ERKNS_7SettingEi
libconfig++.so.11:_ZN9libconfig16SettingExceptionC1ERKS0_
libconfig++.so.11:_ZN9libconfig16SettingExceptionC2EPKc
libconfig++.so.11:_ZN9libconfig16SettingExceptionC2ERKNS_7SettingE
libconfig++.so.11:_ZN9libconfig16SettingExceptionC2ERKNS_7SettingEPKc
libconfig++.so.11:_ZN9libconfig16SettingExceptionC2ERKNS_7SettingEi
libconfig++.so.11:_ZN9libconfig16SettingExceptionC2ERKS0_
libconfig++.so.11:_ZN9libconfig16SettingExceptionD0Ev
libconfig++.so.11:_ZN9libconfig16SettingExceptionD1Ev
libconfig++.so.11:_ZN9libconfig16SettingExceptionD2Ev
libconfig++.so.11:_ZN9libconfig16SettingExceptionaSERKS0_
libconfig++.so.11:_ZN9libconfig20SettingConstIteratorC1ERKNS_7SettingEb
libconfig++.so.11:_ZN9libconfig20SettingConstIteratorC1ERKS0_
libconfig++.so.11:_ZN9libconfig20SettingConstIteratorC2ERKNS_7SettingEb
libconfig++.so.11:_ZN9libconfig20SettingConstIteratorC2ERKS0_
libconfig++.so.11:_ZN9libconfig20SettingConstIteratoraSERKS0_
libconfig++.so.11:_ZN9libconfig20SettingConstIteratormIEi
libconfig++.so.11:_ZN9libconfig20SettingConstIteratormmEi
libconfig++.so.11:_ZN9libconfig20SettingConstIteratormmEv
libconfig++.so.11:_ZN9libconfig20SettingConstIteratorpLEi
libconfig++.so.11:_ZN9libconfig20SettingConstIteratorppEi
libconfig++.so.11:_ZN9libconfig20SettingConstIteratorppEv
libconfig++.so.11:_ZN9libconfig20SettingNameExceptionC1ERKNS_7SettingEPKc
libconfig++.so.11:_ZN9libconfig20SettingNameExceptionC2ERKNS_7SettingEPKc
libconfig++.so.11:_ZN9libconfig20SettingTypeExceptionC1ERKNS_7SettingE
libconfig++.so.11:_ZN9libconfig20SettingTypeExceptionC1ERKNS_7SettingEPKc
libconfig++.so.11:_ZN9libconfig20SettingTypeExceptionC1ERKNS_7SettingEi
libconfig++.so.11:_ZN9libconfig20SettingTypeExceptionC2ERKNS_7SettingE
libconfig++.so.11:_ZN9libconfig20SettingTypeExceptionC2ERKNS_7SettingEPKc
libconfig++.so.11:_ZN9libconfig20SettingTypeExceptionC2ERKNS_7SettingEi
libconfig++.so.11:_ZN9libconfig24SettingNotFoundExceptionC1EPKc
libconfig++.so.11:_ZN9libconfig24SettingNotFoundExceptionC1ERKNS_7SettingEPKc
libconfig++.so.11:_ZN9libconfig24SettingNotFoundExceptionC1ERKNS_7SettingEi
libconfig++.so.11:_ZN9libconfig24SettingNotFoundExceptionC2EPKc
libconfig++.so.11:_ZN9libconfig24SettingNotFoundExceptionC2ERKNS_7SettingEPKc
libconfig++.so.11:_ZN9libconfig24SettingNotFoundExceptionC2ERKNS_7SettingEi
libconfig++.so.11:_ZN9libconfig6Config10readStringEPKc
libconfig++.so.11:_ZN9libconfig6Config10setOptionsEi
libconfig++.so.11:_ZN9libconfig6Config11setTabWidthEt
libconfig++.so.11:_ZN9libconfig6Config13setIncludeDirEPKc
libconfig++.so.11:_ZN9libconfig6Config16ConfigDestructorEPv
libconfig++.so.11:_ZN9libconfig6Config16setDefaultFormatENS_7Setting6FormatE
libconfig++.so.11:_ZN9libconfig6Config17setFloatPrecisionEt
libconfig++.so.11:_ZN9libconfig6Config19evaluateIncludePathEPKcPS2_
libconfig++.so.11:_ZN9libconfig6Config4readEP8_IO_FILE
libconfig++.so.11:_ZN9libconfig6Config5clearEv
libconfig++.so.11:_ZN9libconfig6Config8readFileEPKc
libconfig++.so.11:_ZN9libconfig6Config9setOptionENS0_6OptionEb
libconfig++.so.11:_ZN9libconfig6Config9writeFileEPKc
libconfig++.so.11:_ZN9libconfig6ConfigC1Ev
libconfig++.so.11:_ZN9libconfig6ConfigC2Ev
libconfig++.so.11:_ZN9libconfig6ConfigD0Ev
libconfig++.so.11:_ZN9libconfig6ConfigD1Ev
libconfig++.so.11:_ZN9libconfig6ConfigD2Ev
libconfig++.so.11:_ZN9libconfig7Setting11wrapSettingEP16config_setting_t
libconfig++.so.11:_ZN9libconfig7Setting3addENS0_4TypeE
libconfig++.so.11:_ZN9libconfig7Setting3addEPKcNS0_4TypeE
libconfig++.so.11:_ZN9libconfig7Setting3endEv
libconfig++.so.11:_ZN9libconfig7Setting5beginEv
libconfig++.so.11:_ZN9libconfig7Setting6removeEPKc
libconfig++.so.11:_ZN9libconfig7Setting6removeEj
libconfig++.so.11:_ZN9libconfig7Setting9getParentEv
libconfig++.so.11:_ZN9libconfig7Setting9setFormatENS0_6FormatE
libconfig++.so.11:_ZN9libconfig7SettingC1EP16config_setting_t
libconfig++.so.11:_ZN9libconfig7SettingC2EP16config_setting_t
libconfig++.so.11:_ZN9libconfig7SettingD0Ev
libconfig++.so.11:_ZN9libconfig7SettingD1Ev
libconfig++.so.11:_ZN9libconfig7SettingD2Ev
libconfig++.so.11:_ZN9libconfig7SettingaSEPKc
libconfig++.so.11:_ZN9libconfig7SettingaSERKNSt7__cxx1112basic_stringIcSt11char_traitsIcESaIcEEE
libconfig++.so.11:_ZN9libconfig7SettingaSERKd
libconfig++.so.11:_ZN9libconfig7SettingaSERKx
libconfig++.so.11:_ZN9libconfig7SettingaSEb
libconfig++.so.11:_ZN9libconfig7SettingaSEf
libconfig++.so.11:_ZN9libconfig7SettingaSEi
libconfig++.so.11:_ZN9libconfig7SettingaSEl
libconfig++.so.11:_ZN9libconfigplEiRNS_15SettingIteratorE
libconfig++.so.11:_ZN9libconfigplEiRNS_20SettingConstIteratorE
libconfig++.so.11:_ZNK9libconfig14ParseException4whatEv
libconfig++.so.11:_ZNK9libconfig15FileIOException4whatEv
libconfig++.so.11:_ZNK9libconfig15SettingIteratormiERKS0_
libconfig++.so.11:_ZNK9libconfig15SettingIteratormiEi
libconfig++.so.11:_ZNK9libconfig15SettingIteratorplEi
libconfig++.so.11:_ZNK9libconfig16SettingException4whatEv
libconfig++.so.11:_ZNK9libconfig16SettingException7getPathEv
libconfig++.so.11:_ZNK9libconfig20SettingConstIteratormiERKS0_
libconfig++.so.11:_ZNK9libconfig20SettingConstIteratormiEi
libconfig++.so.11:_ZNK9libconfig20SettingConstIteratorplEi
libconfig++.so.11:_ZNK9libconfig20SettingNameException4whatEv
libconfig++.so.11:_ZNK9libconfig20SettingTypeException4whatEv
libconfig++.so.11:_ZNK9libconfig24SettingNotFoundException4whatEv
libconfig++.so.11:_ZNK9libconfig6Config10getOptionsEv
libconfig++.so.11:_ZNK9libconfig6Config11getTabWidthEv
libconfig++.so.11:_ZNK9libconfig6Config11handleErrorEv
libconfig++.so.11:_ZNK9libconfig6Config11lookupValueEPKcRNSt7__cxx1112basic_stringIcSt11char_traitsIcESaIcEEE
libconfig++.so.11:_ZNK9libconfig6Config11lookupValueEPKcRS2_
libconfig++.so.11:_ZNK9libconfig6Config11lookupValueEPKcRb
libconfig++.so.11:_ZNK9libconfig6Config11lookupValueEPKcRd
libconfig++.so.11:_ZNK9libconfig6Config11lookupValueEPKcRf
libconfig++.so.11:_ZNK9libconfig6Config11lookupValueEPKcRi
libconfig++.so.11:_ZNK9libconfig6Config11lookupValueEPKcRj
libconfig++.so.11:_ZNK9libconfig6Config11lookupValueEPKcRx
libconfig++.so.11:_ZNK9libconfig6Config11lookupValueEPKcRy
libconfig++.so.11:_ZNK9libconfig6Config13getIncludeDirEv
libconfig++.so.11:_ZNK9libconfig6Config17getFloatPrecisionEv
libconfig++.so.11:_ZNK9libconfig6Config5writeEP8_IO_FILE
libconfig++.so.11:_ZNK9libconfig6Config6existsEPKc
libconfig++.so.11:_ZNK9libconfig6Config6lookupEPKc
libconfig++.so.11:_ZNK9libconfig6Config7getRootEv
libconfig++.so.11:_ZNK9libconfig6Config9getOptionENS0_6OptionE
libconfig++.so.11:_ZNK9libconfig7Setting10assertTypeENS0_4TypeE
libconfig++.so.11:_ZNK9libconfig7Setting11lookupValueEPKcRNSt7__cxx1112basic_stringIcSt11char_traitsIcESaIcEEE
libconfig++.so.11:_ZNK9libconfig7Setting11lookupValueEPKcRS2_
libconfig++.so.11:_ZNK9libconfig7Setting11lookupValueEPKcRb
libconfig++.so.11:_ZNK9libconfig7Setting11lookupValueEPKcRd
libconfig++.so.11:_ZNK9libconfig7Setting11lookupValueEPKcRf
libconfig++.so.11:_ZNK9libconfig7Setting11lookupValueEPKcRi
libconfig++.so.11:_ZNK9libconfig7Setting11lookupValueEPKcRj
libconfig++.so.11:_ZNK9libconfig7Setting11lookupValueEPKcRx
libconfig++.so.11:_ZNK9libconfig7Setting11lookupValueEPKcRy
libconfig++.so.11:_ZNK9libconfig7Setting13getSourceFileEv
libconfig++.so.11:_ZNK9libconfig7Setting13getSourceLineEv
libconfig++.so.11:_ZNK9libconfig7Setting3endEv
libconfig++.so.11:_ZNK9libconfig7Setting5beginEv
libconfig++.so.11:_ZNK9libconfig7Setting6existsEPKc
libconfig++.so.11:_ZNK9libconfig7Setting6isRootEv
libconfig++.so.11:_ZNK9libconfig7Setting6lookupEPKc
libconfig++.so.11:_ZNK9libconfig7Setting7getNameEv
libconfig++.so.11:_ZNK9libconfig7Setting7getPathB5cxx11Ev
libconfig++.so.11:_ZNK9libconfig7Setting8getIndexEv
libconfig++.so.11:_ZNK9libconfig7Setting9getLengthEv
libconfig++.so.11:_ZNK9libconfig7Setting9getParentEv
libconfig++.so.11:_ZNK9libconfig7SettingcvNSt7__cxx1112basic_stringIcSt11char_traitsIcESaIcEEEB5cxx11Ev
libconfig++.so.11:_ZNK9libconfig7SettingcvNSt7__cxx1112basic_stringIcSt11char_traitsIcESaIcEEEEv
libconfig++.so.11:_ZNK9libconfig7SettingcvPKcEv
libconfig++.so.11:_ZNK9libconfig7SettingcvbEv
libconfig++.so.11:_ZNK9libconfig7SettingcvdEv
libconfig++.so.11:_ZNK9libconfig7SettingcvfEv
libconfig++.so.11:_ZNK9libconfig7SettingcviEv
libconfig++.so.11:_ZNK9libconfig7SettingcvjEv
libconfig++.so.11:_ZNK9libconfig7SettingcvlEv
libconfig++.so.11:_ZNK9libconfig7SettingcvmEv
libconfig++.so.11:_ZNK9libconfig7SettingcvxEv
libconfig++.so.11:_ZNK9libconfig7SettingcvyEv
libconfig++.so.11:_ZNK9libconfig7SettingixEPKc
libconfig++.so.11:_ZNK9libconfig7SettingixEi
libconfig++.so.11:__bss_start
libconfig++.so.11:__delete_vec
libconfig++.so.11:_edata
libconfig++.so.11:_end
libconfig++.so.11:_fini
libconfig++.so.11:_init
libconfig++.so.11:config_clear
libconfig++.so.11:config_default_include_func
libconfig++.so.11:config_destroy
libconfig++.so.11:config_get_float_precision
libconfig++.so.11:config_get_option
libconfig++.so.11:config_get_options
libconfig++.so.11:config_get_tab_width
libconfig++.so.11:config_init
libconfig++.so.11:config_lookup
libconfig++.so.11:config_lookup_bool
libconfig++.so.11:config_lookup_float
libconfig++.so.11:config_lookup_int
libconfig++.so.11:config_lookup_int64
libconfig++.so.11:config_lookup_string
libconfig++.so.11:config_read
libconfig++.so.11:config_read_file
libconfig++.so.11:config_read_string
libconfig++.so.11:config_set_destructor
libconfig++.so.11:config_set_float_precision
libconfig++.so.11:config_set_hook
libconfig++.so.11:config_set_include_dir
libconfig++.so.11:config_set_include_func
libconfig++.so.11:config_set_option
libconfig++.so.11:config_set_options
libconfig++.so.11:config_set_tab_width
libconfig++.so.11:config_setting_add
libconfig++.so.11:config_setting_get_bool
libconfig++.so.11:config_setting_get_bool_elem
libconfig++.so.11:config_setting_get_elem
libconfig++.so.11:config_setting_get_float
libconfig++.so.11:config_setting_get_float_elem
libconfig++.so.11:config_setting_get_format
libconfig++.so.11:config_setting_get_int
libconfig++.so.11:config_setting_get_int64
libconfig++.so.11:config_setting_get_int64_elem
libconfig++.so.11:config_setting_get_int_elem
libconfig++.so.11:config_setting_get_member
libconfig++.so.11:config_setting_get_string
libconfig++.so.11:config_setting_get_string_elem
libconfig++.so.11:config_setting_index
libconfig++.so.11:config_setting_is_aggregate
libconfig++.so.11:config_setting_is_scalar
libconfig++.so.11:config_setting_length
libconfig++.so.11:config_setting_lookup
libconfig++.so.11:config_setting_lookup_bool
libconfig++.so.11:config_setting_lookup_float
libconfig++.so.11:config_setting_lookup_int
libconfig++.so.11:config_setting_lookup_int64
libconfig++.so.11:config_setting_lookup_string
libconfig++.so.11:config_setting_remove
libconfig++.so.11:config_setting_remove_elem
libconfig++.so.11:config_setting_set_bool
libconfig++.so.11:config_setting_set_bool_elem
libconfig++.so.11:config_setting_set_float
libconfig++.so.11:config_setting_set_float_elem
libconfig++.so.11:config_setting_set_format
libconfig++.so.11:config_setting_set_hook
libconfig++.so.11:config_setting_set_int
libconfig++.so.11:config_setting_set_int64
libconfig++.so.11:config_setting_set_int64_elem
libconfig++.so.11:config_setting_set_int_elem
libconfig++.so.11:config_setting_set_string
libconfig++.so.11:config_setting_set_string_elem
libconfig++.so.11:config_write
libconfig++.so.11:config_write_file
libconfig++.so.11:format_double
libconfig++.so.11:libconfig_yy_create_buffer
libconfig++.so.11:libconfig_yy_delete_buffer
libconfig++.so.11:libconfig_yy_flush_buffer
libconfig++.so.11:libconfig_yy_scan_buffer
libconfig++.so.11:libconfig_yy_scan_bytes
libconfig++.so.11:libconfig_yy_scan_string
libconfig++.so.11:libconfig_yy_switch_to_buffer
libconfig++.so.11:libconfig_yyalloc
libconfig++.so.11:libconfig_yyerror
libconfig++.so.11:libconfig_yyfree
libconfig++.so.11:libconfig_yyget_column
libconfig++.so.11:libconfig_yyget_debug
libconfig++.so.11:libconfig_yyget_extra
libconfig++.so.11:libconfig_yyget_in
libconfig++.so.11:libconfig_yyget_leng
libconfig++.so.11:libconfig_yyget_lineno
libconfig++.so.11:libconfig_yyget_lval
libconfig++.so.11:libconfig_yyget_out
libconfig++.so.11:libconfig_yyget_text
libconfig++.so.11:libconfig_yylex
libconfig++.so.11:libconfig_yylex_destroy
libconfig++.so.11:libconfig_yylex_init
libconfig++.so.11:libconfig_yylex_init_extra
libconfig++.so.11:libconfig_yyparse
libconfig++.so.11:libconfig_yypop_buffer_state
libconfig++.so.11:libconfig_yypush_buffer_state
libconfig++.so.11:libconfig_yyrealloc
libconfig++.so.11:libconfig_yyrestart
libconfig++.so.11:libconfig_yyset_column
libconfig++.so.11:libconfig_yyset_debug
libconfig++.so.11:libconfig_yyset_extra
libconfig++.so.11:libconfig_yyset_in
libconfig++.so.11:libconfig_yyset_lineno
libconfig++.so.11:libconfig_yyset_lval
libconfig++.so.11:libconfig_yyset_out
libconfig++.so.11:parse_hex64
libconfig++.so.11:parse_integer
libconfig++.so.11:scanctx_cleanup
libconfig++.so.11:scanctx_current_filename
libconfig++.so.11:scanctx_init
libconfig++.so.11:scanctx_next_include_file
libconfig++.so.11:scanctx_pop_include
libconfig++.so.11:scanctx_push_include
libconfig++.so.11:scanctx_take_string
libconfig++.so.11:strbuf_append_char
libconfig++.so.11:strbuf_append_string
libconfig++.so.11:strbuf_ensure_capacity
libconfig++.so.11:strbuf_release
libconfig++.so.11:strvec_append
libconfig++.so.11:strvec_release
libconfig.so.11:__bss_start
libconfig.so.11:__delete_vec
libconfig.so.11:_edata
libconfig.so.11:_end
libconfig.so.11:_fini
libconfig.so.11:_init
libconfig.so.11:config_clear
libconfig.so.11:config_default_include_func
libconfig.so.11:config_destroy
libconfig.so.11:config_get_float_precision
libconfig.so.11:config_get_option
libconfig.so.11:config_get_options
libconfig.so.11:config_get_tab_width
libconfig.so.11:config_init
libconfig.so.11:config_lookup
libconfig.so.11:config_lookup_bool
libconfig.so.11:config_lookup_float
libconfig.so.11:config_lookup_int
libconfig.so.11:config_lookup_int64
libconfig.so.11:config_lookup_string
libconfig.so.11:config_read
libconfig.so.11:config_read_file
libconfig.so.11:config_read_string
libconfig.so.11:config_set_destructor
libconfig.so.11:config_set_float_precision
libconfig.so.11:config_set_hook
libconfig.so.11:config_set_include_dir
libconfig.so.11:config_set_include_func
libconfig.so.11:config_set_option
libconfig.so.11:config_set_options
libconfig.so.11:config_set_tab_width
libconfig.so.11:config_setting_add
libconfig.so.11:config_setting_get_bool
libconfig.so.11:config_setting_get_bool_elem
libconfig.so.11:config_setting_get_elem
libconfig.so.11:config_setting_get_float
libconfig.so.11:config_setting_get_float_elem
libconfig.so.11:config_setting_get_format
libconfig.so.11:config_setting_get_int
libconfig.so.11:config_setting_get_int64
libconfig.so.11:config_setting_get_int64_elem
libconfig.so.11:config_setting_get_int_elem
libconfig.so.11:config_setting_get_member
libconfig.so.11:config_setting_get_string
libconfig.so.11:config_setting_get_string_elem
libconfig.so.11:config_setting_index
libconfig.so.11:config_setting_is_aggregate
libconfig.so.11:config_setting_is_scalar
libconfig.so.11:config_setting_length
libconfig.so.11:config_setting_lookup
libconfig.so.11:config_setting_lookup_bool
libconfig.so.11:config_setting_lookup_float
libconfig.so.11:config_setting_lookup_int
libconfig.so.11:config_setting_lookup_int64
libconfig.so.11:config_setting_lookup_string
libconfig.so.11:config_setting_remove
libconfig.so.11:config_setting_remove_elem
libconfig.so.11:config_setting_set_bool
libconfig.so.11:config_setting_set_bool_elem
libconfig.so.11:config_setting_set_float
libconfig.so.11:config_setting_set_float_elem
libconfig.so.11:config_setting_set_format
libconfig.so.11:config_setting_set_hook
libconfig.so.11:config_setting_set_int
libconfig.so.11:config_setting_set_int64
libconfig.so.11:config_setting_set_int64_elem
libconfig.so.11:config_setting_set_int_elem
libconfig.so.11:config_setting_set_string
libconfig.so.11:config_setting_set_string_elem
libconfig.so.11:config_write
libconfig.so.11:config_write_file
libconfig.so.11:format_double
libconfig.so.11:libconfig_yy_create_buffer
libconfig.so.11:libconfig_yy_delete_buffer
libconfig.so.11:libconfig_yy_flush_buffer
libconfig.so.11:libconfig_yy_scan_buffer
libconfig.so.11:libconfig_yy_scan_bytes
libconfig.so.11:libconfig_yy_scan_string
libconfig.so.11:libconfig_yy_switch_to_buffer
libconfig.so.11:libconfig_yyalloc
libconfig.so.11:libconfig_yyerror
libconfig.so.11:libconfig_yyfree
libconfig.so.11:libconfig_yyget_column
libconfig.so.11:libconfig_yyget_debug
libconfig.so.11:libconfig_yyget_extra
libconfig.so.11:libconfig_yyget_in
libconfig.so.11:libconfig_yyget_leng
libconfig.so.11:libconfig_yyget_lineno
libconfig.so.11:libconfig_yyget_lval
libconfig.so.11:libconfig_yyget_out
libconfig.so.11:libconfig_yyget_text
libconfig.so.11:libconfig_yylex
libconfig.so.11:libconfig_yylex_destroy
libconfig.so.11:libconfig_yylex_init
libconfig.so.11:libconfig_yylex_init_extra
libconfig.so.11:libconfig_yyparse
libconfig.so.11:libconfig_yypop_buffer_state
libconfig.so.11:libconfig_yypush_buffer_state
libconfig.so.11:libconfig_yyrealloc
libconfig.so.11:libconfig_yyrestart
libconfig.so.11:libconfig_yyset_column
libconfig.so.11:libconfig_yyset_debug
libconfig.so.11:libconfig_yyset_extra
libconfig.so.11:libconfig_yyset_in
libconfig.so.11:libconfig_yyset_lineno
libconfig.so.11:libconfig_yyset_lval
libconfig.so.11:libconfig_yyset_out
libconfig.so.11:parse_hex64
libconfig.so.11:parse_integer
libconfig.so.11:scanctx_cleanup
libconfig.so.11:scanctx_current_filename
libconfig.so.11:scanctx_init
libconfig.so.11:scanctx_next_include_file
libconfig.so.11:scanctx_pop_include
libconfig.so.11:scanctx_push_include
libconfig.so.11:scanctx_take_string
libconfig.so.11:strbuf_append_char
libconfig.so.11:strbuf_append_string
libconfig.so.11:strbuf_ensure_capacity
libconfig.so.11:strbuf_release
libconfig.so.11:strvec_append
libconfig.so.11:strvec_release
