libcupsfilters.so.2:Floyd16x16
libcupsfilters.so.2:Floyd4x4
libcupsfilters.so.2:Floyd8x8
libcupsfilters.so.2:_Z13getParametersP16cf_filter_data_siP13cups_option_sR31_cfPDFToPDFProcessingParametersP14pdftopdf_doc_t
libcupsfilters.so.2:_Z15copy_fd_to_tempiP14pdftopdf_doc_t
libcupsfilters.so.2:_Z16BookletMode_dump23pdftopdf_booklet_mode_eP14pdftopdf_doc_t
libcupsfilters.so.2:_Z18_cfPDFToPDFMakeBoxdddd
libcupsfilters.so.2:_Z18_cfProcessPDFToPDFR20_cfPDFToPDFProcessorR31_cfPDFToPDFProcessingParametersP14pdftopdf_doc_t
libcupsfilters.so.2:_Z19_cfPDFToPDFMakePageR4QPDFRKSt3mapINSt7__cxx1112basic_stringIcSt11char_traitsIcESaIcEEE16QPDFObjectHandleSt4lessIS7_ESaISt4pairIKS7_S8_EEES8_RSC_
libcupsfilters.so.2:_Z20_cfPDFToPDFGetArtBox16QPDFObjectHandle
libcupsfilters.so.2:_Z20_cfPDFToPDFGetRotate16QPDFObjectHandle
libcupsfilters.so.2:_Z21_cfPDFToPDFGetCropBox16QPDFObjectHandle
libcupsfilters.so.2:_Z21_cfPDFToPDFGetTrimBox16QPDFObjectHandle
libcupsfilters.so.2:_Z21_cfPDFToPDFMakeRotate19pdftopdf_rotation_e
libcupsfilters.so.2:_Z22_cfPDFToPDFGetBleedBox16QPDFObjectHandle
libcupsfilters.so.2:_Z22_cfPDFToPDFGetMediaBox16QPDFObjectHandle
libcupsfilters.so.2:_Z22_cfPDFToPDFGetUserUnit16QPDFObjectHandle
libcupsfilters.so.2:_Z22_cfPDFToPDFMakeXObjectP4QPDF16QPDFObjectHandle
libcupsfilters.so.2:_Z23_cfPDFToPDFGetBoxAsRect16QPDFObjectHandle
libcupsfilters.so.2:_Z23_cfPDFToPDFGetRectAsBoxRK19_cfPDFToPDFPageRect
libcupsfilters.so.2:_Z23_cfPDFToPDFPositionDump19pdftopdf_position_e15pdftopdf_axis_eP14pdftopdf_doc_t
libcupsfilters.so.2:_Z23_cfPDFToPDFPositionDump19pdftopdf_position_eP14pdftopdf_doc_t
libcupsfilters.so.2:_Z23_cfPDFToPDFRotationDump19pdftopdf_rotation_eP14pdftopdf_doc_t
libcupsfilters.so.2:_Z24_cfPDFToPDFAddDefaultRGBR4QPDF16QPDFObjectHandle
libcupsfilters.so.2:_Z24_cfPDFToPDFSetDefaultICCR4QPDFPKc
libcupsfilters.so.2:_Z25_cfPDFToPDFBookletShuffleii
libcupsfilters.so.2:_Z25_cfPDFToPDFBorderTypeDump22pdftopdf_border_type_eP14pdftopdf_doc_t
libcupsfilters.so.2:_Z25_cfPDFToPDFParseNupLayoutPKcR24_cfPDFToPDFNupParameters
libcupsfilters.so.2:_Z26_cfPDFToPDFAddOutputIntentR4QPDFPKc
libcupsfilters.so.2:_Z26_cfPDFToPDFHasOutputIntentR4QPDF
libcupsfilters.so.2:_Z8is_emptyP8_IO_FILE
libcupsfilters.so.2:_Z9calculateiP13cups_option_sR31_cfPDFToPDFProcessingParametersPc
libcupsfilters.so.2:_ZN17_cfPDFToPDFMatrix11rotate_moveE19pdftopdf_rotation_edd
libcupsfilters.so.2:_ZN17_cfPDFToPDFMatrix5scaleEdd
libcupsfilters.so.2:_ZN17_cfPDFToPDFMatrix6rotateE19pdftopdf_rotation_e
libcupsfilters.so.2:_ZN17_cfPDFToPDFMatrix6rotateEd
libcupsfilters.so.2:_ZN17_cfPDFToPDFMatrix9translateEdd
libcupsfilters.so.2:_ZN17_cfPDFToPDFMatrixC1E16QPDFObjectHandle
libcupsfilters.so.2:_ZN17_cfPDFToPDFMatrixC1Ev
libcupsfilters.so.2:_ZN17_cfPDFToPDFMatrixC2E16QPDFObjectHandle
libcupsfilters.so.2:_ZN17_cfPDFToPDFMatrixC2Ev
libcupsfilters.so.2:_ZN17_cfPDFToPDFMatrixmLERKS_
libcupsfilters.so.2:_ZN18_cfPDFToPDFFactory9processorEv
libcupsfilters.so.2:_ZN19_cfPDFToPDFNupState5resetEv
libcupsfilters.so.2:_ZN19_cfPDFToPDFNupState9mext_pageEffR22_cfPDFToPDFNupPageEdit
libcupsfilters.so.2:_ZN19_cfPDFToPDFNupStateC1ERK24_cfPDFToPDFNupParameters
libcupsfilters.so.2:_ZN19_cfPDFToPDFNupStateC2ERK24_cfPDFToPDFNupParameters
libcupsfilters.so.2:_ZN19_cfPDFToPDFPageRect11rotate_moveE19pdftopdf_rotation_eff
libcupsfilters.so.2:_ZN19_cfPDFToPDFPageRect3setERKS_
libcupsfilters.so.2:_ZN19_cfPDFToPDFPageRect5scaleEf
libcupsfilters.so.2:_ZN19_cfPDFToPDFPageRect9translateEff
libcupsfilters.so.2:_ZN22_cfPDFToPDFIntervalSet3addEii
libcupsfilters.so.2:_ZN22_cfPDFToPDFIntervalSet4nposE
libcupsfilters.so.2:_ZN22_cfPDFToPDFIntervalSet5clearEv
libcupsfilters.so.2:_ZN22_cfPDFToPDFIntervalSet6finishEv
libcupsfilters.so.2:_ZN24_cfPDFToPDFNupParameters6presetEiRS_
libcupsfilters.so.2:_ZN24_cfPDFToPDFNupParameters8possibleEi
libcupsfilters.so.2:_ZN24_cfPDFToPDFQPDFProcessor10close_fileEv
libcupsfilters.so.2:_ZN24_cfPDFToPDFQPDFProcessor12set_commentsERKSt6vectorINSt7__cxx1112basic_stringIcSt11char_traitsIcESaIcEEESaIS6_EE
libcupsfilters.so.2:_ZN24_cfPDFToPDFQPDFProcessor13emit_filenameEPKcP14pdftopdf_doc_t
libcupsfilters.so.2:_ZN24_cfPDFToPDFQPDFProcessor13has_acro_formEv
libcupsfilters.so.2:_ZN24_cfPDFToPDFQPDFProcessor13load_filenameEPKcP14pdftopdf_doc_ti
libcupsfilters.so.2:_ZN24_cfPDFToPDFQPDFProcessor15auto_rotate_allEb19pdftopdf_rotation_e
libcupsfilters.so.2:_ZN24_cfPDFToPDFQPDFProcessor23check_print_permissionsEP14pdftopdf_doc_t
libcupsfilters.so.2:_ZN24_cfPDFToPDFQPDFProcessor5startEi
libcupsfilters.so.2:_ZN24_cfPDFToPDFQPDFProcessor6add_cmEPKcS1_
libcupsfilters.so.2:_ZN24_cfPDFToPDFQPDFProcessor8add_pageESt10shared_ptrI21_cfPDFToPDFPageHandleEb
libcupsfilters.so.2:_ZN24_cfPDFToPDFQPDFProcessor8multiplyEib
libcupsfilters.so.2:_ZN24_cfPDFToPDFQPDFProcessor8new_pageEffP14pdftopdf_doc_t
libcupsfilters.so.2:_ZN24_cfPDFToPDFQPDFProcessor9emit_fileEP8_IO_FILEP14pdftopdf_doc_t24pdftopdf_arg_ownership_e
libcupsfilters.so.2:_ZN24_cfPDFToPDFQPDFProcessor9get_pagesEP14pdftopdf_doc_t
libcupsfilters.so.2:_ZN24_cfPDFToPDFQPDFProcessor9load_fileEP8_IO_FILEP14pdftopdf_doc_t24pdftopdf_arg_ownership_ei
libcupsfilters.so.2:_ZN25_cfPDFToPDFQPDFPageHandle11add_subpageERKSt10shared_ptrI21_cfPDFToPDFPageHandleEfffPK19_cfPDFToPDFPageRect
libcupsfilters.so.2:_ZN25_cfPDFToPDFQPDFPageHandle12is_landscapeE19pdftopdf_rotation_e
libcupsfilters.so.2:_ZN25_cfPDFToPDFQPDFPageHandle15add_border_rectERK19_cfPDFToPDFPageRect22pdftopdf_border_type_ef
libcupsfilters.so.2:_ZN25_cfPDFToPDFQPDFPageHandle3getEv
libcupsfilters.so.2:_ZN25_cfPDFToPDFQPDFPageHandle4cropERK19_cfPDFToPDFPageRect19pdftopdf_rotation_eS3_19pdftopdf_position_eS4_bbP14pdftopdf_doc_t
libcupsfilters.so.2:_ZN25_cfPDFToPDFQPDFPageHandle5debugERK19_cfPDFToPDFPageRectff
libcupsfilters.so.2:_ZN25_cfPDFToPDFQPDFPageHandle6mirrorEv
libcupsfilters.so.2:_ZN25_cfPDFToPDFQPDFPageHandle6rotateE19pdftopdf_rotation_e
libcupsfilters.so.2:_ZN25_cfPDFToPDFQPDFPageHandle9add_labelERK19_cfPDFToPDFPageRectNSt7__cxx1112basic_stringIcSt11char_traitsIcESaIcEEE
libcupsfilters.so.2:_ZN25_cfPDFToPDFQPDFPageHandleC1E16QPDFObjectHandlei
libcupsfilters.so.2:_ZN25_cfPDFToPDFQPDFPageHandleC1EP4QPDFff
libcupsfilters.so.2:_ZN25_cfPDFToPDFQPDFPageHandleC2E16QPDFObjectHandlei
libcupsfilters.so.2:_ZN25_cfPDFToPDFQPDFPageHandleC2EP4QPDFff
libcupsfilters.so.2:_ZN28CombineFromContents_Provider17provideStreamDataEiiP8Pipeline
libcupsfilters.so.2:_ZN28CombineFromContents_ProviderC1ERKSt6vectorI16QPDFObjectHandleSaIS1_EE
libcupsfilters.so.2:_ZN28CombineFromContents_ProviderC2ERKSt6vectorI16QPDFObjectHandleSaIS1_EE
libcupsfilters.so.2:_ZNK17_cfPDFToPDFMatrix10get_stringB5cxx11Ev
libcupsfilters.so.2:_ZNK17_cfPDFToPDFMatrix3getEv
libcupsfilters.so.2:_ZNK19_cfPDFToPDFNupState13convert_orderEi
libcupsfilters.so.2:_ZNK19_cfPDFToPDFNupState14calculate_editEiiR22_cfPDFToPDFNupPageEdit
libcupsfilters.so.2:_ZNK19_cfPDFToPDFPageRect4dumpEP14pdftopdf_doc_t
libcupsfilters.so.2:_ZNK22_cfPDFToPDFIntervalSet4dumpEP14pdftopdf_doc_t
libcupsfilters.so.2:_ZNK22_cfPDFToPDFIntervalSet4nextEi
libcupsfilters.so.2:_ZNK22_cfPDFToPDFIntervalSet5uniteERSt4pairIiiERKS1_
libcupsfilters.so.2:_ZNK22_cfPDFToPDFIntervalSet8containsEi
libcupsfilters.so.2:_ZNK22_cfPDFToPDFIntervalSet9intersectERKSt4pairIiiES3_
libcupsfilters.so.2:_ZNK22_cfPDFToPDFNupPageEdit4dumpEP14pdftopdf_doc_t
libcupsfilters.so.2:_ZNK24_cfPDFToPDFNupParameters4dumpEP14pdftopdf_doc_t
libcupsfilters.so.2:_ZNK25_cfPDFToPDFQPDFPageHandle11is_existingEv
libcupsfilters.so.2:_ZNK25_cfPDFToPDFQPDFPageHandle8get_rectEv
libcupsfilters.so.2:_ZNK31_cfPDFToPDFProcessingParameters4dumpEP14pdftopdf_doc_t
libcupsfilters.so.2:_ZNK31_cfPDFToPDFProcessingParameters9have_pageEi
libcupsfilters.so.2:_ZNK31_cfPDFToPDFProcessingParameters9with_pageEi
libcupsfilters.so.2:_ZTI24_cfPDFToPDFQPDFProcessor
libcupsfilters.so.2:_ZTI25_cfPDFToPDFQPDFPageHandle
libcupsfilters.so.2:_ZTI28CombineFromContents_Provider
libcupsfilters.so.2:_ZTS24_cfPDFToPDFQPDFProcessor
libcupsfilters.so.2:_ZTS25_cfPDFToPDFQPDFPageHandle
libcupsfilters.so.2:_ZTS28CombineFromContents_Provider
libcupsfilters.so.2:_ZTV24_cfPDFToPDFQPDFProcessor
libcupsfilters.so.2:_ZTV25_cfPDFToPDFQPDFPageHandle
libcupsfilters.so.2:_ZTV28CombineFromContents_Provider
libcupsfilters.so.2:_ZdaPv
libcupsfilters.so.2:_ZdlPv
libcupsfilters.so.2:_Zmi19pdftopdf_rotation_eS_
libcupsfilters.so.2:_Znam
libcupsfilters.so.2:_Zng19pdftopdf_rotation_e
libcupsfilters.so.2:_Znwm
libcupsfilters.so.2:_Zpl19pdftopdf_rotation_eS_
libcupsfilters.so.2:__cfFontEmbedDynEnsure
libcupsfilters.so.2:__cfFontEmbedDynFree
libcupsfilters.so.2:__cfFontEmbedDynInit
libcupsfilters.so.2:__cfFontEmbedDynPrintF
libcupsfilters.so.2:__cfFontEmbedEmbOTFGetFontName
libcupsfilters.so.2:__cfFontEmbedEmbOTFGetPDFCIDWidths
libcupsfilters.so.2:__cfFontEmbedEmbOTFGetPDFFontDescr
libcupsfilters.so.2:__cfFontEmbedEmbOTFGetPDFWidths
libcupsfilters.so.2:__cfFontEmbedEmbOTFGetRights
libcupsfilters.so.2:__cfFontEmbedEmbOTFPS
libcupsfilters.so.2:__cfFontEmbedEmbPDFFWCIDWidths
libcupsfilters.so.2:__cfFontEmbedEmbPDFFWNew
libcupsfilters.so.2:__cfFontEmbedFrequentAdd
libcupsfilters.so.2:__cfFontEmbedFrequentGet
libcupsfilters.so.2:__cfFontEmbedFrequentNew
libcupsfilters.so.2:__cfFontEmbedOTFActionCopy
libcupsfilters.so.2:__cfFontEmbedOTFActionCopyHead
libcupsfilters.so.2:__cfFontEmbedOTFActionReplace
libcupsfilters.so.2:__cfFontEmbedOTFFindTable
libcupsfilters.so.2:__cfFontEmbedOTFIntersectTables
libcupsfilters.so.2:__cfFontEmbedOTFLoadGlyf
libcupsfilters.so.2:__cfFontEmbedOTFLoadMore
libcupsfilters.so.2:__cfFontEmbedOTFWriteSFNT
libcupsfilters.so.2:_cfFontEmbedEmbClose
libcupsfilters.so.2:_cfFontEmbedEmbEmbed
libcupsfilters.so.2:_cfFontEmbedEmbNew
libcupsfilters.so.2:_cfFontEmbedEmbPDFFontDescr
libcupsfilters.so.2:_cfFontEmbedEmbPDFFontWidths
libcupsfilters.so.2:_cfFontEmbedEmbPDFGetFontFileKey
libcupsfilters.so.2:_cfFontEmbedEmbPDFGetFontFileSubType
libcupsfilters.so.2:_cfFontEmbedEmbPDFGetFontSubType
libcupsfilters.so.2:_cfFontEmbedEmbPDFSimpleCIDFont
libcupsfilters.so.2:_cfFontEmbedEmbPDFSimpleFont
libcupsfilters.so.2:_cfFontEmbedEmbPDFSimpleFontDescr
libcupsfilters.so.2:_cfFontEmbedEmbPDFSimpleStdFont
libcupsfilters.so.2:_cfFontEmbedFontFileClose
libcupsfilters.so.2:_cfFontEmbedFontFileOpenSFNT
libcupsfilters.so.2:_cfFontEmbedFontFileOpenStd
libcupsfilters.so.2:_cfFontEmbedOTFCFFExtract
libcupsfilters.so.2:_cfFontEmbedOTFClose
libcupsfilters.so.2:_cfFontEmbedOTFFromUnicode
libcupsfilters.so.2:_cfFontEmbedOTFGetGlyph
libcupsfilters.so.2:_cfFontEmbedOTFGetName
libcupsfilters.so.2:_cfFontEmbedOTFGetTable
libcupsfilters.so.2:_cfFontEmbedOTFGetWidth
libcupsfilters.so.2:_cfFontEmbedOTFLoad
libcupsfilters.so.2:_cfFontEmbedOTFSubSet
libcupsfilters.so.2:_cfFontEmbedOTFSubSetCFF
libcupsfilters.so.2:_cfFontEmbedOTFTTCExtract
libcupsfilters.so.2:_cfImagePutCol
libcupsfilters.so.2:_cfImagePutRow
libcupsfilters.so.2:_cfImageReadEXIF
libcupsfilters.so.2:_cfImageReadJPEG
libcupsfilters.so.2:_cfImageReadPNG
libcupsfilters.so.2:_cfImageReadTIFF
libcupsfilters.so.2:_cfImageZoomDelete
libcupsfilters.so.2:_cfImageZoomFill
libcupsfilters.so.2:_cfImageZoomNew
libcupsfilters.so.2:_cfPDFOutAddKeyValue
libcupsfilters.so.2:_cfPDFOutAddPage
libcupsfilters.so.2:_cfPDFOutAddXRef
libcupsfilters.so.2:_cfPDFOutBeginPDF
libcupsfilters.so.2:_cfPDFOutFinishPDF
libcupsfilters.so.2:_cfPDFOutFree
libcupsfilters.so.2:_cfPDFOutNew
libcupsfilters.so.2:_cfPDFOutPrintF
libcupsfilters.so.2:_cfPDFOutToPDFDate
libcupsfilters.so.2:_cfPDFOutWriteFont
libcupsfilters.so.2:_cfPDFOutputHexString
libcupsfilters.so.2:_cfPDFOutputString
libcupsfilters.so.2:_cf_debug_printf
libcupsfilters.so.2:_cf_debug_puts
libcupsfilters.so.2:adobergb_gamma
libcupsfilters.so.2:adobergb_matrix
libcupsfilters.so.2:adobergb_wp
libcupsfilters.so.2:aglfn13
libcupsfilters.so.2:blackpoint_default
libcupsfilters.so.2:cfCMYKDelete
libcupsfilters.so.2:cfCMYKDoBlack
libcupsfilters.so.2:cfCMYKDoCMYK
libcupsfilters.so.2:cfCMYKDoGray
libcupsfilters.so.2:cfCMYKDoRGB
libcupsfilters.so.2:cfCMYKNew
libcupsfilters.so.2:cfCMYKSetBlack
libcupsfilters.so.2:cfCMYKSetCurve
libcupsfilters.so.2:cfCMYKSetGamma
libcupsfilters.so.2:cfCMYKSetInkLimit
libcupsfilters.so.2:cfCMYKSetLtDk
libcupsfilters.so.2:cfCUPSIsCanceledFunc
libcupsfilters.so.2:cfCUPSLogFunc
libcupsfilters.so.2:cfCatalogAddChoice
libcupsfilters.so.2:cfCatalogAddOption
libcupsfilters.so.2:cfCatalogFind
libcupsfilters.so.2:cfCatalogFindChoice
libcupsfilters.so.2:cfCatalogFindOption
libcupsfilters.so.2:cfCatalogFreeChoiceStrings
libcupsfilters.so.2:cfCatalogFreeOptionStrings
libcupsfilters.so.2:cfCatalogLoad
libcupsfilters.so.2:cfCatalogLookUpChoice
libcupsfilters.so.2:cfCatalogLookUpOption
libcupsfilters.so.2:cfCatalogOptionArrayNew
libcupsfilters.so.2:cfCatalogSearchDir
libcupsfilters.so.2:cfCatalogSearchDirLang
libcupsfilters.so.2:cfCatalogSearchDirLocale
libcupsfilters.so.2:cfCheckBytes
libcupsfilters.so.2:cfCheckDriverlessSupport
libcupsfilters.so.2:cfCheckValue
libcupsfilters.so.2:cfCmBlackPointDefault
libcupsfilters.so.2:cfCmGammaAdobeRGB
libcupsfilters.so.2:cfCmGammaSGray
libcupsfilters.so.2:cfCmGetCupsColorCalibrateMode
libcupsfilters.so.2:cfCmGetPrinterIccProfile
libcupsfilters.so.2:cfCmIsPrinterCmDisabled
libcupsfilters.so.2:cfCmMatrixAdobeRGB
libcupsfilters.so.2:cfCmWhitePointAdobeRGB
libcupsfilters.so.2:cfCmWhitePointSGray
libcupsfilters.so.2:cfColordGetInhibitForDeviceID
libcupsfilters.so.2:cfColordGetProfileForDeviceID
libcupsfilters.so.2:cfColordGetQualifier
libcupsfilters.so.2:cfCompareResolutions
libcupsfilters.so.2:cfConvertBits
libcupsfilters.so.2:cfCopyResolution
libcupsfilters.so.2:cfDitherDelete
libcupsfilters.so.2:cfDitherLine
libcupsfilters.so.2:cfDitherNew
libcupsfilters.so.2:cfFilterAddEnvVar
libcupsfilters.so.2:cfFilterBannerToPDF
libcupsfilters.so.2:cfFilterChain
libcupsfilters.so.2:cfFilterCloseBackAndSidePipes
libcupsfilters.so.2:cfFilterDataAddExt
libcupsfilters.so.2:cfFilterDataGetExt
libcupsfilters.so.2:cfFilterDataRemoveExt
libcupsfilters.so.2:cfFilterExternal
libcupsfilters.so.2:cfFilterGetEnvVar
libcupsfilters.so.2:cfFilterGhostscript
libcupsfilters.so.2:cfFilterImageToPDF
libcupsfilters.so.2:cfFilterImageToRaster
libcupsfilters.so.2:cfFilterMuPDFToPWG
libcupsfilters.so.2:cfFilterOpenBackAndSidePipes
libcupsfilters.so.2:cfFilterPCLmToRaster
libcupsfilters.so.2:cfFilterPClose
libcupsfilters.so.2:cfFilterPDFToPDF
libcupsfilters.so.2:cfFilterPDFToRaster
libcupsfilters.so.2:cfFilterPOpen
libcupsfilters.so.2:cfFilterPWGToPDF
libcupsfilters.so.2:cfFilterPWGToRaster
libcupsfilters.so.2:cfFilterRasterToPWG
libcupsfilters.so.2:cfFilterTee
libcupsfilters.so.2:cfFilterTextToPDF
libcupsfilters.so.2:cfFilterTextToText
libcupsfilters.so.2:cfFilterUniversal
libcupsfilters.so.2:cfFreeResolution
libcupsfilters.so.2:cfGenerateSizes
libcupsfilters.so.2:cfGetBackSideOrientation
libcupsfilters.so.2:cfGetPageDimensions
libcupsfilters.so.2:cfGetPrintRenderIntent
libcupsfilters.so.2:cfGetPrinterAttributes
libcupsfilters.so.2:cfGetPrinterAttributes2
libcupsfilters.so.2:cfGetPrinterAttributes3
libcupsfilters.so.2:cfGetPrinterAttributes4
libcupsfilters.so.2:cfGetPrinterAttributes5
libcupsfilters.so.2:cfGetURI
libcupsfilters.so.2:cfIEEE1284GetDeviceID
libcupsfilters.so.2:cfIEEE1284GetMakeModel
libcupsfilters.so.2:cfIEEE1284GetValues
libcupsfilters.so.2:cfIEEE1284NormalizeMakeModel
libcupsfilters.so.2:cfIPPAttrEnumValForPrinter
libcupsfilters.so.2:cfIPPAttrIntValForPrinter
libcupsfilters.so.2:cfIPPAttrResolutionForPrinter
libcupsfilters.so.2:cfIPPAttrToResolutionArray
libcupsfilters.so.2:cfIPPResToResolution
libcupsfilters.so.2:cfIPPReverseOutput
libcupsfilters.so.2:cfImageCMYKToBlack
libcupsfilters.so.2:cfImageCMYKToCMY
libcupsfilters.so.2:cfImageCMYKToCMYK
libcupsfilters.so.2:cfImageCMYKToRGB
libcupsfilters.so.2:cfImageCMYKToWhite
libcupsfilters.so.2:cfImageClose
libcupsfilters.so.2:cfImageCrop
libcupsfilters.so.2:cfImageGetCol
libcupsfilters.so.2:cfImageGetColorSpace
libcupsfilters.so.2:cfImageGetDepth
libcupsfilters.so.2:cfImageGetHeight
libcupsfilters.so.2:cfImageGetRow
libcupsfilters.so.2:cfImageGetWidth
libcupsfilters.so.2:cfImageGetXPPI
libcupsfilters.so.2:cfImageGetYPPI
libcupsfilters.so.2:cfImageLut
libcupsfilters.so.2:cfImageOpen
libcupsfilters.so.2:cfImageOpenFP
libcupsfilters.so.2:cfImageRGBAdjust
libcupsfilters.so.2:cfImageRGBToBlack
libcupsfilters.so.2:cfImageRGBToCMY
libcupsfilters.so.2:cfImageRGBToCMYK
libcupsfilters.so.2:cfImageRGBToRGB
libcupsfilters.so.2:cfImageRGBToWhite
libcupsfilters.so.2:cfImageSetMaxTiles
libcupsfilters.so.2:cfImageSetProfile
libcupsfilters.so.2:cfImageSetRasterColorSpace
libcupsfilters.so.2:cfImageWhiteToBlack
libcupsfilters.so.2:cfImageWhiteToCMY
libcupsfilters.so.2:cfImageWhiteToCMYK
libcupsfilters.so.2:cfImageWhiteToRGB
libcupsfilters.so.2:cfImageWhiteToWhite
libcupsfilters.so.2:cfJoinJobOptionsAndAttrs
libcupsfilters.so.2:cfJoinResolutionArrays
libcupsfilters.so.2:cfLutDelete
libcupsfilters.so.2:cfLutNew
libcupsfilters.so.2:cfNewResolution
libcupsfilters.so.2:cfNewResolutionArray
libcupsfilters.so.2:cfOneBitLine
libcupsfilters.so.2:cfOneBitToGrayLine
libcupsfilters.so.2:cfPDFAddType1Font
libcupsfilters.so.2:cfPDFDuplicatePage
libcupsfilters.so.2:cfPDFFillForm
libcupsfilters.so.2:cfPDFFree
libcupsfilters.so.2:cfPDFLoadTemplate
libcupsfilters.so.2:cfPDFPages
libcupsfilters.so.2:cfPDFPagesFP
libcupsfilters.so.2:cfPDFPrependStream
libcupsfilters.so.2:cfPDFResizePage
libcupsfilters.so.2:cfPDFWrite
libcupsfilters.so.2:cfPackHorizontal
libcupsfilters.so.2:cfPackHorizontal2
libcupsfilters.so.2:cfPackHorizontalBit
libcupsfilters.so.2:cfPackVertical
libcupsfilters.so.2:cfRGB8toKCMYcm
libcupsfilters.so.2:cfRGBDelete
libcupsfilters.so.2:cfRGBDoGray
libcupsfilters.so.2:cfRGBDoRGB
libcupsfilters.so.2:cfRGBNew
libcupsfilters.so.2:cfRasterColorSpaceString
libcupsfilters.so.2:cfRasterPrepareHeader
libcupsfilters.so.2:cfRasterSetColorSpace
libcupsfilters.so.2:cfResolveURI
libcupsfilters.so.2:cfResolveURI2
libcupsfilters.so.2:cfReverseOneBitLine
libcupsfilters.so.2:cfReverseOneBitLineSwap
libcupsfilters.so.2:cfSetPageDimensionsToDefault
libcupsfilters.so.2:cfStrFormatd
libcupsfilters.so.2:cfWritePixel
libcupsfilters.so.2:cf_get_printer_attributes_log
libcupsfilters.so.2:cf_scmy_lut
libcupsfilters.so.2:cf_srgb_lut
libcupsfilters.so.2:dither1
libcupsfilters.so.2:dither2
libcupsfilters.so.2:dither4
libcupsfilters.so.2:main
libcupsfilters.so.2:remove_white_space
libcupsfilters.so.2:revTable
libcupsfilters.so.2:run_test
libcupsfilters.so.2:sgray_gamma
libcupsfilters.so.2:sgray_wp
libcupsfilters.so.2:test_wrapper
