libKPim5Mime.so.5:_ZN5KMime10foldHeaderERK10QByteArray
libKPim5Mime.so.5:_ZN5KMime11NewsArticle10followUpToEb
libKPim5Mime.so.5:_ZN5KMime11NewsArticle10newsgroupsEb
libKPim5Mime.so.5:_ZN5KMime11NewsArticle10supersedesEb
libKPim5Mime.so.5:_ZN5KMime11NewsArticle12mailCopiesToEb
libKPim5Mime.so.5:_ZN5KMime11NewsArticle15assembleHeadersEv
libKPim5Mime.so.5:_ZN5KMime11NewsArticle5linesEb
libKPim5Mime.so.5:_ZN5KMime11NewsArticle7controlEb
libKPim5Mime.so.5:_ZN5KMime11NewsArticleC1Ev
libKPim5Mime.so.5:_ZN5KMime11NewsArticleC2Ev
libKPim5Mime.so.5:_ZN5KMime11NewsArticleD0Ev
libKPim5Mime.so.5:_ZN5KMime11NewsArticleD1Ev
libKPim5Mime.so.5:_ZN5KMime11NewsArticleD2Ev
libKPim5Mime.so.5:_ZN5KMime11isEncryptedEPNS_7MessageE
libKPim5Mime.so.5:_ZN5KMime12ContentIndex2upEv
libKPim5Mime.so.5:_ZN5KMime12ContentIndex3popEv
libKPim5Mime.so.5:_ZN5KMime12ContentIndex4pushEj
libKPim5Mime.so.5:_ZN5KMime12ContentIndexC1ERK7QString
libKPim5Mime.so.5:_ZN5KMime12ContentIndexC1ERKS0_
libKPim5Mime.so.5:_ZN5KMime12ContentIndexC1Ev
libKPim5Mime.so.5:_ZN5KMime12ContentIndexC2ERK7QString
libKPim5Mime.so.5:_ZN5KMime12ContentIndexC2ERKS0_
libKPim5Mime.so.5:_ZN5KMime12ContentIndexC2Ev
libKPim5Mime.so.5:_ZN5KMime12ContentIndexD1Ev
libKPim5Mime.so.5:_ZN5KMime12ContentIndexD2Ev
libKPim5Mime.so.5:_ZN5KMime12ContentIndexaSERKS0_
libKPim5Mime.so.5:_ZN5KMime12isAttachmentEPNS_7ContentE
libKPim5Mime.so.5:_ZN5KMime12isCryptoPartEPNS_7ContentE
libKPim5Mime.so.5:_ZN5KMime12isInvitationEPNS_7ContentE
libKPim5Mime.so.5:_ZN5KMime12removeQuotesER10QByteArray
libKPim5Mime.so.5:_ZN5KMime12removeQuotesER7QString
libKPim5Mime.so.5:_ZN5KMime12unfoldHeaderEPKcm
libKPim5Mime.so.5:_ZN5KMime12unfoldHeaderERK10QByteArray
libKPim5Mime.so.5:_ZN5KMime13DateFormatter10formatDateENS0_10FormatTypeElRK7QStringb
libKPim5Mime.so.5:_ZN5KMime13DateFormatter15setCustomFormatERK7QString
libKPim5Mime.so.5:_ZN5KMime13DateFormatter17formatCurrentDateENS0_10FormatTypeERK7QStringb
libKPim5Mime.so.5:_ZN5KMime13DateFormatter9setFormatENS0_10FormatTypeE
libKPim5Mime.so.5:_ZN5KMime13DateFormatterC1ENS0_10FormatTypeE
libKPim5Mime.so.5:_ZN5KMime13DateFormatterC2ENS0_10FormatTypeE
libKPim5Mime.so.5:_ZN5KMime13DateFormatterD1Ev
libKPim5Mime.so.5:_ZN5KMime13DateFormatterD2Ev
libKPim5Mime.so.5:_ZN5KMime13HeaderParsing10parseGroupERPKcS2_RNS_5Types7AddressEb
libKPim5Mime.so.5:_ZN5KMime13HeaderParsing10parseTokenERPKcS2_R10QByteArray6QFlagsINS0_14ParseTokenFlagEE
libKPim5Mime.so.5:_ZN5KMime13HeaderParsing10parseTokenERPKcS2_R5QPairIS2_iE6QFlagsINS0_14ParseTokenFlagEE
libKPim5Mime.so.5:_ZN5KMime13HeaderParsing11parseDigitsERPKcS2_Ri
libKPim5Mime.so.5:_ZN5KMime13HeaderParsing11parseDomainERPKcS2_R7QStringb
libKPim5Mime.so.5:_ZN5KMime13HeaderParsing11parsePhraseERPKcS2_R7QStringb
libKPim5Mime.so.5:_ZN5KMime13HeaderParsing12parseAddressERPKcS2_RNS_5Types7AddressEb
libKPim5Mime.so.5:_ZN5KMime13HeaderParsing12parseCommentERPKcS2_R7QStringbb
libKPim5Mime.so.5:_ZN5KMime13HeaderParsing12parseDotAtomERPKcS2_R10QByteArrayb
libKPim5Mime.so.5:_ZN5KMime13HeaderParsing12parseMailboxERPKcS2_RNS_5Types7MailboxEb
libKPim5Mime.so.5:_ZN5KMime13HeaderParsing13parseAddrSpecERPKcS2_RNS_5Types8AddrSpecEb
libKPim5Mime.so.5:_ZN5KMime13HeaderParsing13parseDateTimeERPKcS2_R9QDateTimeb
libKPim5Mime.so.5:_ZN5KMime13HeaderParsing13parseObsRouteERPKcS2_R11QStringListbb
libKPim5Mime.so.5:_ZN5KMime13HeaderParsing14parseAngleAddrERPKcS2_RNS_5Types8AddrSpecEb
libKPim5Mime.so.5:_ZN5KMime13HeaderParsing16parseAddressListERPKcS2_R7QVectorINS_5Types7AddressEEb
libKPim5Mime.so.5:_ZN5KMime13HeaderParsing16parseEncodedWordERPKcS2_R7QStringR10QByteArrayS7_RKS6_b
libKPim5Mime.so.5:_ZN5KMime13HeaderParsing18extractFirstHeaderER10QByteArray
libKPim5Mime.so.5:_ZN5KMime13HeaderParsing18parseParameterListERPKcS2_R4QMapI7QStringS5_Eb
libKPim5Mime.so.5:_ZN5KMime13HeaderParsing20extractHeaderAndBodyERK10QByteArrayRS1_S4_
libKPim5Mime.so.5:_ZN5KMime13HeaderParsing24parseGenericQuotedStringERPKcS2_R7QStringbcc
libKPim5Mime.so.5:_ZN5KMime13HeaderParsing29parseParameterListWithCharsetERPKcS2_R4QMapI7QStringS5_ER10QByteArrayb
libKPim5Mime.so.5:_ZN5KMime13HeaderParsing7eatCFWSERPKcS2_b
libKPim5Mime.so.5:_ZN5KMime13HeaderParsing9parseAtomERPKcS2_R10QByteArrayb
libKPim5Mime.so.5:_ZN5KMime13HeaderParsing9parseAtomERPKcS2_R5QPairIS2_iEb
libKPim5Mime.so.5:_ZN5KMime13HeaderParsing9parseTimeERPKcS2_RiS4_S4_RlRbb
libKPim5Mime.so.5:_ZN5KMime13extractHeaderERK10QByteArrayS2_
libKPim5Mime.so.5:_ZN5KMime13hasAttachmentEPNS_7ContentE
libKPim5Mime.so.5:_ZN5KMime13hasInvitationEPNS_7ContentE
libKPim5Mime.so.5:_ZN5KMime15nameForEncodingENS_7Headers15contentEncodingE
libKPim5Mime.so.5:_ZN5KMime16balanceBidiStateERK7QString
libKPim5Mime.so.5:_ZN5KMime16encodingsForDataERK10QByteArray
libKPim5Mime.so.5:_ZN5KMime17multiPartBoundaryEv
libKPim5Mime.so.5:_ZN5KMime22removeBidiControlCharsERK7QString
libKPim5Mime.so.5:_ZN5KMime28useOutlookAttachmentEncodingEv
libKPim5Mime.so.5:_ZN5KMime31setUseOutlookAttachmentEncodingEb
libKPim5Mime.so.5:_ZN5KMime3MDN14descriptionForENS0_15DispositionTypeERK7QVectorINS0_19DispositionModifierEE
libKPim5Mime.so.5:_ZN5KMime3MDN34dispositionNotificationBodyContentERK7QStringRK10QByteArrayS6_NS0_15DispositionTypeENS0_10ActionModeENS0_11SendingModeERK7QVectorINS0_19DispositionModifierEES3_
libKPim5Mime.so.5:_ZN5KMime5Types7Mailbox10setAddressERK10QByteArray
libKPim5Mime.so.5:_ZN5KMime5Types7Mailbox10setAddressERKNS0_8AddrSpecE
libKPim5Mime.so.5:_ZN5KMime5Types7Mailbox14from7BitStringERK10QByteArray
libKPim5Mime.so.5:_ZN5KMime5Types7Mailbox15setNameFrom7BitERK10QByteArrayS4_
libKPim5Mime.so.5:_ZN5KMime5Types7Mailbox17fromUnicodeStringERK7QString
libKPim5Mime.so.5:_ZN5KMime5Types7Mailbox18listFrom7BitStringERK10QByteArray
libKPim5Mime.so.5:_ZN5KMime5Types7Mailbox19listToUnicodeStringERK7QVectorIS1_E
libKPim5Mime.so.5:_ZN5KMime5Types7Mailbox21listFromUnicodeStringERK7QString
libKPim5Mime.so.5:_ZN5KMime5Types7Mailbox7setNameERK7QString
libKPim5Mime.so.5:_ZN5KMime5qHashERKNS_12ContentIndexE
libKPim5Mime.so.5:_ZN5KMime6CRtoLFEPKc
libKPim5Mime.so.5:_ZN5KMime6CRtoLFERK10QByteArray
libKPim5Mime.so.5:_ZN5KMime7Content10addContentEPS0_b
libKPim5Mime.so.5:_ZN5KMime7Content10setContentERK10QByteArray
libKPim5Mime.so.5:_ZN5KMime7Content11attachmentsEv
libKPim5Mime.so.5:_ZN5KMime7Content11contentTypeEb
libKPim5Mime.so.5:_ZN5KMime7Content11decodedTextEbb
libKPim5Mime.so.5:_ZN5KMime7Content11encodedBodyEv
libKPim5Mime.so.5:_ZN5KMime7Content11setEpilogueERK10QByteArray
libKPim5Mime.so.5:_ZN5KMime7Content11setPreambleERK10QByteArray
libKPim5Mime.so.5:_ZN5KMime7Content11textContentEv
libKPim5Mime.so.5:_ZN5KMime7Content12appendHeaderEPNS_7Headers4BaseE
libKPim5Mime.so.5:_ZN5KMime7Content12removeHeaderEPKc
libKPim5Mime.so.5:_ZN5KMime7Content13clearContentsEb
libKPim5Mime.so.5:_ZN5KMime7Content13removeContentEPS0_b
libKPim5Mime.so.5:_ZN5KMime7Content14changeEncodingENS_7Headers15contentEncodingE
libKPim5Mime.so.5:_ZN5KMime7Content14decodedContentEv
libKPim5Mime.so.5:_ZN5KMime7Content14defaultCharsetEv
libKPim5Mime.so.5:_ZN5KMime7Content14encodedContentEb
libKPim5Mime.so.5:_ZN5KMime7Content14replaceContentEPS0_S1_
libKPim5Mime.so.5:_ZN5KMime7Content15assembleHeadersEv
libKPim5Mime.so.5:_ZN5KMime7Content15contentLocationEb
libKPim5Mime.so.5:_ZN5KMime7Content17fromUnicodeStringERK7QString
libKPim5Mime.so.5:_ZN5KMime7Content18contentDescriptionEb
libKPim5Mime.so.5:_ZN5KMime7Content18contentDispositionEb
libKPim5Mime.so.5:_ZN5KMime7Content23contentTransferEncodingEb
libKPim5Mime.so.5:_ZN5KMime7Content4sizeEv
libKPim5Mime.so.5:_ZN5KMime7Content5clearEv
libKPim5Mime.so.5:_ZN5KMime7Content5parseEv
libKPim5Mime.so.5:_ZN5KMime7Content7setBodyERK10QByteArray
libKPim5Mime.so.5:_ZN5KMime7Content7setHeadERK10QByteArray
libKPim5Mime.so.5:_ZN5KMime7Content8assembleEv
libKPim5Mime.so.5:_ZN5KMime7Content9contentIDEb
libKPim5Mime.so.5:_ZN5KMime7Content9setFrozenEb
libKPim5Mime.so.5:_ZN5KMime7Content9setHeaderEPNS_7Headers4BaseE
libKPim5Mime.so.5:_ZN5KMime7Content9setParentEPS0_
libKPim5Mime.so.5:_ZN5KMime7ContentC1EPS0_
libKPim5Mime.so.5:_ZN5KMime7ContentC2EPS0_
libKPim5Mime.so.5:_ZN5KMime7ContentD0Ev
libKPim5Mime.so.5:_ZN5KMime7ContentD1Ev
libKPim5Mime.so.5:_ZN5KMime7ContentD2Ev
libKPim5Mime.so.5:_ZN5KMime7Headers10FollowUpTo10staticTypeEv
libKPim5Mime.so.5:_ZN5KMime7Headers10FollowUpToC1Ev
libKPim5Mime.so.5:_ZN5KMime7Headers10FollowUpToC2Ev
libKPim5Mime.so.5:_ZN5KMime7Headers10FollowUpToD0Ev
libKPim5Mime.so.5:_ZN5KMime7Headers10FollowUpToD1Ev
libKPim5Mime.so.5:_ZN5KMime7Headers10FollowUpToD2Ev
libKPim5Mime.so.5:_ZN5KMime7Headers10Newsgroups10staticTypeEv
libKPim5Mime.so.5:_ZN5KMime7Headers10Newsgroups17fromUnicodeStringERK7QStringRK10QByteArray
libKPim5Mime.so.5:_ZN5KMime7Headers10Newsgroups5clearEv
libKPim5Mime.so.5:_ZN5KMime7Headers10Newsgroups5parseERPKcS3_b
libKPim5Mime.so.5:_ZN5KMime7Headers10Newsgroups9setGroupsERK7QVectorI10QByteArrayE
libKPim5Mime.so.5:_ZN5KMime7Headers10NewsgroupsC1Ev
libKPim5Mime.so.5:_ZN5KMime7Headers10NewsgroupsC2Ev
libKPim5Mime.so.5:_ZN5KMime7Headers10NewsgroupsD0Ev
libKPim5Mime.so.5:_ZN5KMime7Headers10NewsgroupsD1Ev
libKPim5Mime.so.5:_ZN5KMime7Headers10NewsgroupsD2Ev
libKPim5Mime.so.5:_ZN5KMime7Headers10References10staticTypeEv
libKPim5Mime.so.5:_ZN5KMime7Headers10ReferencesC1Ev
libKPim5Mime.so.5:_ZN5KMime7Headers10ReferencesC2Ev
libKPim5Mime.so.5:_ZN5KMime7Headers10ReferencesD0Ev
libKPim5Mime.so.5:_ZN5KMime7Headers10ReferencesD1Ev
libKPim5Mime.so.5:_ZN5KMime7Headers10ReferencesD2Ev
libKPim5Mime.so.5:_ZN5KMime7Headers10ReturnPath10staticTypeEv
libKPim5Mime.so.5:_ZN5KMime7Headers10ReturnPath5clearEv
libKPim5Mime.so.5:_ZN5KMime7Headers10ReturnPath5parseERPKcS3_b
libKPim5Mime.so.5:_ZN5KMime7Headers10ReturnPathC1Ev
libKPim5Mime.so.5:_ZN5KMime7Headers10ReturnPathC2Ev
libKPim5Mime.so.5:_ZN5KMime7Headers10ReturnPathD0Ev
libKPim5Mime.so.5:_ZN5KMime7Headers10ReturnPathD1Ev
libKPim5Mime.so.5:_ZN5KMime7Headers10ReturnPathD2Ev
libKPim5Mime.so.5:_ZN5KMime7Headers10Supersedes10staticTypeEv
libKPim5Mime.so.5:_ZN5KMime7Headers10SupersedesC1Ev
libKPim5Mime.so.5:_ZN5KMime7Headers10SupersedesC2Ev
libKPim5Mime.so.5:_ZN5KMime7Headers10SupersedesD0Ev
libKPim5Mime.so.5:_ZN5KMime7Headers10SupersedesD1Ev
libKPim5Mime.so.5:_ZN5KMime7Headers10SupersedesD2Ev
libKPim5Mime.so.5:_ZN5KMime7Headers11ContentType10setCharsetERK10QByteArray
libKPim5Mime.so.5:_ZN5KMime7Headers11ContentType10staticTypeEv
libKPim5Mime.so.5:_ZN5KMime7Headers11ContentType11setBoundaryERK10QByteArray
libKPim5Mime.so.5:_ZN5KMime7Headers11ContentType11setCategoryENS0_15contentCategoryE
libKPim5Mime.so.5:_ZN5KMime7Headers11ContentType11setMimeTypeERK10QByteArray
libKPim5Mime.so.5:_ZN5KMime7Headers11ContentType16setPartialParamsEii
libKPim5Mime.so.5:_ZN5KMime7Headers11ContentType5clearEv
libKPim5Mime.so.5:_ZN5KMime7Headers11ContentType5parseERPKcS3_b
libKPim5Mime.so.5:_ZN5KMime7Headers11ContentType5setIdERK10QByteArray
libKPim5Mime.so.5:_ZN5KMime7Headers11ContentType7setNameERK7QStringRK10QByteArray
libKPim5Mime.so.5:_ZN5KMime7Headers11ContentTypeC1Ev
libKPim5Mime.so.5:_ZN5KMime7Headers11ContentTypeC2Ev
libKPim5Mime.so.5:_ZN5KMime7Headers11ContentTypeD0Ev
libKPim5Mime.so.5:_ZN5KMime7Headers11ContentTypeD1Ev
libKPim5Mime.so.5:_ZN5KMime7Headers11ContentTypeD2Ev
libKPim5Mime.so.5:_ZN5KMime7Headers11MIMEVersion10staticTypeEv
libKPim5Mime.so.5:_ZN5KMime7Headers11MIMEVersionC1Ev
libKPim5Mime.so.5:_ZN5KMime7Headers11MIMEVersionC2Ev
libKPim5Mime.so.5:_ZN5KMime7Headers11MIMEVersionD0Ev
libKPim5Mime.so.5:_ZN5KMime7Headers11MIMEVersionD1Ev
libKPim5Mime.so.5:_ZN5KMime7Headers11MIMEVersionD2Ev
libKPim5Mime.so.5:_ZN5KMime7Headers12MailCopiesTo10staticTypeEv
libKPim5Mime.so.5:_ZN5KMime7Headers12MailCopiesTo12setNeverCopyEv
libKPim5Mime.so.5:_ZN5KMime7Headers12MailCopiesTo13setAlwaysCopyEv
libKPim5Mime.so.5:_ZN5KMime7Headers12MailCopiesTo5clearEv
libKPim5Mime.so.5:_ZN5KMime7Headers12MailCopiesTo5parseERPKcS3_b
libKPim5Mime.so.5:_ZN5KMime7Headers12MailCopiesToC1Ev
libKPim5Mime.so.5:_ZN5KMime7Headers12MailCopiesToC2Ev
libKPim5Mime.so.5:_ZN5KMime7Headers12MailCopiesToD0Ev
libKPim5Mime.so.5:_ZN5KMime7Headers12MailCopiesToD1Ev
libKPim5Mime.so.5:_ZN5KMime7Headers12MailCopiesToD2Ev
libKPim5Mime.so.5:_ZN5KMime7Headers12Organization10staticTypeEv
libKPim5Mime.so.5:_ZN5KMime7Headers12OrganizationC1Ev
libKPim5Mime.so.5:_ZN5KMime7Headers12OrganizationC2Ev
libKPim5Mime.so.5:_ZN5KMime7Headers12OrganizationD0Ev
libKPim5Mime.so.5:_ZN5KMime7Headers12OrganizationD1Ev
libKPim5Mime.so.5:_ZN5KMime7Headers12OrganizationD2Ev
libKPim5Mime.so.5:_ZN5KMime7Headers12createHeaderERK10QByteArray
libKPim5Mime.so.5:_ZN5KMime7Headers15ContentLocation10staticTypeEv
libKPim5Mime.so.5:_ZN5KMime7Headers15ContentLocationC1Ev
libKPim5Mime.so.5:_ZN5KMime7Headers15ContentLocationC2Ev
libKPim5Mime.so.5:_ZN5KMime7Headers15ContentLocationD0Ev
libKPim5Mime.so.5:_ZN5KMime7Headers15ContentLocationD1Ev
libKPim5Mime.so.5:_ZN5KMime7Headers15ContentLocationD2Ev
libKPim5Mime.so.5:_ZN5KMime7Headers18ContentDescription10staticTypeEv
libKPim5Mime.so.5:_ZN5KMime7Headers18ContentDescriptionC1Ev
libKPim5Mime.so.5:_ZN5KMime7Headers18ContentDescriptionC2Ev
libKPim5Mime.so.5:_ZN5KMime7Headers18ContentDescriptionD0Ev
libKPim5Mime.so.5:_ZN5KMime7Headers18ContentDescriptionD1Ev
libKPim5Mime.so.5:_ZN5KMime7Headers18ContentDescriptionD2Ev
libKPim5Mime.so.5:_ZN5KMime7Headers18ContentDisposition10staticTypeEv
libKPim5Mime.so.5:_ZN5KMime7Headers18ContentDisposition11setFilenameERK7QString
libKPim5Mime.so.5:_ZN5KMime7Headers18ContentDisposition14setDispositionENS0_18contentDispositionE
libKPim5Mime.so.5:_ZN5KMime7Headers18ContentDisposition5clearEv
libKPim5Mime.so.5:_ZN5KMime7Headers18ContentDisposition5parseERPKcS3_b
libKPim5Mime.so.5:_ZN5KMime7Headers18ContentDispositionC1Ev
libKPim5Mime.so.5:_ZN5KMime7Headers18ContentDispositionC2Ev
libKPim5Mime.so.5:_ZN5KMime7Headers18ContentDispositionD0Ev
libKPim5Mime.so.5:_ZN5KMime7Headers18ContentDispositionD1Ev
libKPim5Mime.so.5:_ZN5KMime7Headers18ContentDispositionD2Ev
libKPim5Mime.so.5:_ZN5KMime7Headers23ContentTransferEncoding10setDecodedEb
libKPim5Mime.so.5:_ZN5KMime7Headers23ContentTransferEncoding10staticTypeEv
libKPim5Mime.so.5:_ZN5KMime7Headers23ContentTransferEncoding11setEncodingENS0_15contentEncodingE
libKPim5Mime.so.5:_ZN5KMime7Headers23ContentTransferEncoding5clearEv
libKPim5Mime.so.5:_ZN5KMime7Headers23ContentTransferEncoding5parseERPKcS3_b
libKPim5Mime.so.5:_ZN5KMime7Headers23ContentTransferEncodingC1Ev
libKPim5Mime.so.5:_ZN5KMime7Headers23ContentTransferEncodingC2Ev
libKPim5Mime.so.5:_ZN5KMime7Headers23ContentTransferEncodingD0Ev
libKPim5Mime.so.5:_ZN5KMime7Headers23ContentTransferEncodingD1Ev
libKPim5Mime.so.5:_ZN5KMime7Headers23ContentTransferEncodingD2Ev
libKPim5Mime.so.5:_ZN5KMime7Headers2Cc10staticTypeEv
libKPim5Mime.so.5:_ZN5KMime7Headers2CcC1Ev
libKPim5Mime.so.5:_ZN5KMime7Headers2CcC2Ev
libKPim5Mime.so.5:_ZN5KMime7Headers2CcD0Ev
libKPim5Mime.so.5:_ZN5KMime7Headers2CcD1Ev
libKPim5Mime.so.5:_ZN5KMime7Headers2CcD2Ev
libKPim5Mime.so.5:_ZN5KMime7Headers2To10staticTypeEv
libKPim5Mime.so.5:_ZN5KMime7Headers2ToC1Ev
libKPim5Mime.so.5:_ZN5KMime7Headers2ToC2Ev
libKPim5Mime.so.5:_ZN5KMime7Headers2ToD0Ev
libKPim5Mime.so.5:_ZN5KMime7Headers2ToD1Ev
libKPim5Mime.so.5:_ZN5KMime7Headers2ToD2Ev
libKPim5Mime.so.5:_ZN5KMime7Headers3Bcc10staticTypeEv
libKPim5Mime.so.5:_ZN5KMime7Headers3BccC1Ev
libKPim5Mime.so.5:_ZN5KMime7Headers3BccC2Ev
libKPim5Mime.so.5:_ZN5KMime7Headers3BccD0Ev
libKPim5Mime.so.5:_ZN5KMime7Headers3BccD1Ev
libKPim5Mime.so.5:_ZN5KMime7Headers3BccD2Ev
libKPim5Mime.so.5:_ZN5KMime7Headers4Base14from7BitStringEPKcm
libKPim5Mime.so.5:_ZN5KMime7Headers4Base17setRFC2047CharsetERK10QByteArray
libKPim5Mime.so.5:_ZN5KMime7Headers4BaseC1EPNS0_11BasePrivateE
libKPim5Mime.so.5:_ZN5KMime7Headers4BaseC1Ev
libKPim5Mime.so.5:_ZN5KMime7Headers4BaseC2EPNS0_11BasePrivateE
libKPim5Mime.so.5:_ZN5KMime7Headers4BaseC2Ev
libKPim5Mime.so.5:_ZN5KMime7Headers4BaseD0Ev
libKPim5Mime.so.5:_ZN5KMime7Headers4BaseD1Ev
libKPim5Mime.so.5:_ZN5KMime7Headers4BaseD2Ev
libKPim5Mime.so.5:_ZN5KMime7Headers4Date10staticTypeEv
libKPim5Mime.so.5:_ZN5KMime7Headers4Date11setDateTimeERK9QDateTime
libKPim5Mime.so.5:_ZN5KMime7Headers4Date5clearEv
libKPim5Mime.so.5:_ZN5KMime7Headers4Date5parseERPKcS3_b
libKPim5Mime.so.5:_ZN5KMime7Headers4DateC1Ev
libKPim5Mime.so.5:_ZN5KMime7Headers4DateC2Ev
libKPim5Mime.so.5:_ZN5KMime7Headers4DateD0Ev
libKPim5Mime.so.5:_ZN5KMime7Headers4DateD1Ev
libKPim5Mime.so.5:_ZN5KMime7Headers4DateD2Ev
libKPim5Mime.so.5:_ZN5KMime7Headers4From10staticTypeEv
libKPim5Mime.so.5:_ZN5KMime7Headers4FromC1Ev
libKPim5Mime.so.5:_ZN5KMime7Headers4FromC2Ev
libKPim5Mime.so.5:_ZN5KMime7Headers4FromD0Ev
libKPim5Mime.so.5:_ZN5KMime7Headers4FromD1Ev
libKPim5Mime.so.5:_ZN5KMime7Headers4FromD2Ev
libKPim5Mime.so.5:_ZN5KMime7Headers5Lines10staticTypeEv
libKPim5Mime.so.5:_ZN5KMime7Headers5Lines16setNumberOfLinesEi
libKPim5Mime.so.5:_ZN5KMime7Headers5Lines5clearEv
libKPim5Mime.so.5:_ZN5KMime7Headers5Lines5parseERPKcS3_b
libKPim5Mime.so.5:_ZN5KMime7Headers5LinesC1Ev
libKPim5Mime.so.5:_ZN5KMime7Headers5LinesC2Ev
libKPim5Mime.so.5:_ZN5KMime7Headers5LinesD0Ev
libKPim5Mime.so.5:_ZN5KMime7Headers5LinesD1Ev
libKPim5Mime.so.5:_ZN5KMime7Headers5LinesD2Ev
libKPim5Mime.so.5:_ZN5KMime7Headers6Sender10staticTypeEv
libKPim5Mime.so.5:_ZN5KMime7Headers6SenderC1Ev
libKPim5Mime.so.5:_ZN5KMime7Headers6SenderC2Ev
libKPim5Mime.so.5:_ZN5KMime7Headers6SenderD0Ev
libKPim5Mime.so.5:_ZN5KMime7Headers6SenderD1Ev
libKPim5Mime.so.5:_ZN5KMime7Headers6SenderD2Ev
libKPim5Mime.so.5:_ZN5KMime7Headers7Control10staticTypeEv
libKPim5Mime.so.5:_ZN5KMime7Headers7Control5clearEv
libKPim5Mime.so.5:_ZN5KMime7Headers7Control5parseERPKcS3_b
libKPim5Mime.so.5:_ZN5KMime7Headers7Control9setCancelERK10QByteArray
libKPim5Mime.so.5:_ZN5KMime7Headers7ControlC1Ev
libKPim5Mime.so.5:_ZN5KMime7Headers7ControlC2Ev
libKPim5Mime.so.5:_ZN5KMime7Headers7ControlD0Ev
libKPim5Mime.so.5:_ZN5KMime7Headers7ControlD1Ev
libKPim5Mime.so.5:_ZN5KMime7Headers7ControlD2Ev
libKPim5Mime.so.5:_ZN5KMime7Headers7Generic5clearEv
libKPim5Mime.so.5:_ZN5KMime7Headers7Generic7setTypeEPKci
libKPim5Mime.so.5:_ZN5KMime7Headers7GenericC1EPKci
libKPim5Mime.so.5:_ZN5KMime7Headers7GenericC1Ev
libKPim5Mime.so.5:_ZN5KMime7Headers7GenericC2EPKci
libKPim5Mime.so.5:_ZN5KMime7Headers7GenericC2Ev
libKPim5Mime.so.5:_ZN5KMime7Headers7GenericD0Ev
libKPim5Mime.so.5:_ZN5KMime7Headers7GenericD1Ev
libKPim5Mime.so.5:_ZN5KMime7Headers7GenericD2Ev
libKPim5Mime.so.5:_ZN5KMime7Headers7ReplyTo10staticTypeEv
libKPim5Mime.so.5:_ZN5KMime7Headers7ReplyToC1Ev
libKPim5Mime.so.5:_ZN5KMime7Headers7ReplyToC2Ev
libKPim5Mime.so.5:_ZN5KMime7Headers7ReplyToD0Ev
libKPim5Mime.so.5:_ZN5KMime7Headers7ReplyToD1Ev
libKPim5Mime.so.5:_ZN5KMime7Headers7ReplyToD2Ev
libKPim5Mime.so.5:_ZN5KMime7Headers7Subject10staticTypeEv
libKPim5Mime.so.5:_ZN5KMime7Headers7SubjectC1Ev
libKPim5Mime.so.5:_ZN5KMime7Headers7SubjectC2Ev
libKPim5Mime.so.5:_ZN5KMime7Headers7SubjectD0Ev
libKPim5Mime.so.5:_ZN5KMime7Headers7SubjectD1Ev
libKPim5Mime.so.5:_ZN5KMime7Headers7SubjectD2Ev
libKPim5Mime.so.5:_ZN5KMime7Headers8Generics10PhraseList5clearEv
libKPim5Mime.so.5:_ZN5KMime7Headers8Generics10PhraseList5parseERPKcS4_b
libKPim5Mime.so.5:_ZN5KMime7Headers8Generics10PhraseListC1Ev
libKPim5Mime.so.5:_ZN5KMime7Headers8Generics10PhraseListC2Ev
libKPim5Mime.so.5:_ZN5KMime7Headers8Generics10PhraseListD0Ev
libKPim5Mime.so.5:_ZN5KMime7Headers8Generics10PhraseListD1Ev
libKPim5Mime.so.5:_ZN5KMime7Headers8Generics10PhraseListD2Ev
libKPim5Mime.so.5:_ZN5KMime7Headers8Generics10Structured14from7BitStringEPKcm
libKPim5Mime.so.5:_ZN5KMime7Headers8Generics10Structured14from7BitStringERK10QByteArray
libKPim5Mime.so.5:_ZN5KMime7Headers8Generics10Structured17fromUnicodeStringERK7QStringRK10QByteArray
libKPim5Mime.so.5:_ZN5KMime7Headers8Generics10StructuredC1EPNS1_17StructuredPrivateE
libKPim5Mime.so.5:_ZN5KMime7Headers8Generics10StructuredC1Ev
libKPim5Mime.so.5:_ZN5KMime7Headers8Generics10StructuredC2EPNS1_17StructuredPrivateE
libKPim5Mime.so.5:_ZN5KMime7Headers8Generics10StructuredC2Ev
libKPim5Mime.so.5:_ZN5KMime7Headers8Generics10StructuredD0Ev
libKPim5Mime.so.5:_ZN5KMime7Headers8Generics10StructuredD1Ev
libKPim5Mime.so.5:_ZN5KMime7Headers8Generics10StructuredD2Ev
libKPim5Mime.so.5:_ZN5KMime7Headers8Generics11AddressList10addAddressERK10QByteArrayRK7QString
libKPim5Mime.so.5:_ZN5KMime7Headers8Generics11AddressList10addAddressERKNS_5Types7MailboxE
libKPim5Mime.so.5:_ZN5KMime7Headers8Generics11AddressList17fromUnicodeStringERK7QStringRK10QByteArray
libKPim5Mime.so.5:_ZN5KMime7Headers8Generics11AddressList5clearEv
libKPim5Mime.so.5:_ZN5KMime7Headers8Generics11AddressList5parseERPKcS4_b
libKPim5Mime.so.5:_ZN5KMime7Headers8Generics11AddressListC1EPNS1_18AddressListPrivateE
libKPim5Mime.so.5:_ZN5KMime7Headers8Generics11AddressListC1Ev
libKPim5Mime.so.5:_ZN5KMime7Headers8Generics11AddressListC2EPNS1_18AddressListPrivateE
libKPim5Mime.so.5:_ZN5KMime7Headers8Generics11AddressListC2Ev
libKPim5Mime.so.5:_ZN5KMime7Headers8Generics11AddressListD0Ev
libKPim5Mime.so.5:_ZN5KMime7Headers8Generics11AddressListD1Ev
libKPim5Mime.so.5:_ZN5KMime7Headers8Generics11AddressListD2Ev
libKPim5Mime.so.5:_ZN5KMime7Headers8Generics11MailboxList10addAddressERK10QByteArrayRK7QString
libKPim5Mime.so.5:_ZN5KMime7Headers8Generics11MailboxList10addAddressERKNS_5Types7MailboxE
libKPim5Mime.so.5:_ZN5KMime7Headers8Generics11MailboxList17fromUnicodeStringERK7QStringRK10QByteArray
libKPim5Mime.so.5:_ZN5KMime7Headers8Generics11MailboxList5clearEv
libKPim5Mime.so.5:_ZN5KMime7Headers8Generics11MailboxList5parseERPKcS4_b
libKPim5Mime.so.5:_ZN5KMime7Headers8Generics11MailboxListC1EPNS1_18MailboxListPrivateE
libKPim5Mime.so.5:_ZN5KMime7Headers8Generics11MailboxListC1Ev
libKPim5Mime.so.5:_ZN5KMime7Headers8Generics11MailboxListC2EPNS1_18MailboxListPrivateE
libKPim5Mime.so.5:_ZN5KMime7Headers8Generics11MailboxListC2Ev
libKPim5Mime.so.5:_ZN5KMime7Headers8Generics11MailboxListD0Ev
libKPim5Mime.so.5:_ZN5KMime7Headers8Generics11MailboxListD1Ev
libKPim5Mime.so.5:_ZN5KMime7Headers8Generics11MailboxListD2Ev
libKPim5Mime.so.5:_ZN5KMime7Headers8Generics11SingleIdent13setIdentifierERK10QByteArray
libKPim5Mime.so.5:_ZN5KMime7Headers8Generics11SingleIdent5parseERPKcS4_b
libKPim5Mime.so.5:_ZN5KMime7Headers8Generics11SingleIdentC1EPNS1_18SingleIdentPrivateE
libKPim5Mime.so.5:_ZN5KMime7Headers8Generics11SingleIdentC1Ev
libKPim5Mime.so.5:_ZN5KMime7Headers8Generics11SingleIdentC2EPNS1_18SingleIdentPrivateE
libKPim5Mime.so.5:_ZN5KMime7Headers8Generics11SingleIdentC2Ev
libKPim5Mime.so.5:_ZN5KMime7Headers8Generics11SingleIdentD0Ev
libKPim5Mime.so.5:_ZN5KMime7Headers8Generics11SingleIdentD1Ev
libKPim5Mime.so.5:_ZN5KMime7Headers8Generics11SingleIdentD2Ev
libKPim5Mime.so.5:_ZN5KMime7Headers8Generics12Parametrized12setParameterERK7QStringS5_
libKPim5Mime.so.5:_ZN5KMime7Headers8Generics12Parametrized5clearEv
libKPim5Mime.so.5:_ZN5KMime7Headers8Generics12Parametrized5parseERPKcS4_b
libKPim5Mime.so.5:_ZN5KMime7Headers8Generics12ParametrizedC1EPNS1_19ParametrizedPrivateE
libKPim5Mime.so.5:_ZN5KMime7Headers8Generics12ParametrizedC1Ev
libKPim5Mime.so.5:_ZN5KMime7Headers8Generics12ParametrizedC2EPNS1_19ParametrizedPrivateE
libKPim5Mime.so.5:_ZN5KMime7Headers8Generics12ParametrizedC2Ev
libKPim5Mime.so.5:_ZN5KMime7Headers8Generics12ParametrizedD0Ev
libKPim5Mime.so.5:_ZN5KMime7Headers8Generics12ParametrizedD1Ev
libKPim5Mime.so.5:_ZN5KMime7Headers8Generics12ParametrizedD2Ev
libKPim5Mime.so.5:_ZN5KMime7Headers8Generics12Unstructured14from7BitStringERK10QByteArray
libKPim5Mime.so.5:_ZN5KMime7Headers8Generics12Unstructured17fromUnicodeStringERK7QStringRK10QByteArray
libKPim5Mime.so.5:_ZN5KMime7Headers8Generics12Unstructured5clearEv
libKPim5Mime.so.5:_ZN5KMime7Headers8Generics12UnstructuredC1EPNS1_19UnstructuredPrivateE
libKPim5Mime.so.5:_ZN5KMime7Headers8Generics12UnstructuredC1Ev
libKPim5Mime.so.5:_ZN5KMime7Headers8Generics12UnstructuredC2EPNS1_19UnstructuredPrivateE
libKPim5Mime.so.5:_ZN5KMime7Headers8Generics12UnstructuredC2Ev
libKPim5Mime.so.5:_ZN5KMime7Headers8Generics12UnstructuredD0Ev
libKPim5Mime.so.5:_ZN5KMime7Headers8Generics12UnstructuredD1Ev
libKPim5Mime.so.5:_ZN5KMime7Headers8Generics12UnstructuredD2Ev
libKPim5Mime.so.5:_ZN5KMime7Headers8Generics13SingleMailbox5parseERPKcS4_b
libKPim5Mime.so.5:_ZN5KMime7Headers8Generics13SingleMailboxC1Ev
libKPim5Mime.so.5:_ZN5KMime7Headers8Generics13SingleMailboxC2Ev
libKPim5Mime.so.5:_ZN5KMime7Headers8Generics13SingleMailboxD0Ev
libKPim5Mime.so.5:_ZN5KMime7Headers8Generics13SingleMailboxD1Ev
libKPim5Mime.so.5:_ZN5KMime7Headers8Generics13SingleMailboxD2Ev
libKPim5Mime.so.5:_ZN5KMime7Headers8Generics5Ident16appendIdentifierERK10QByteArray
libKPim5Mime.so.5:_ZN5KMime7Headers8Generics5Ident5clearEv
libKPim5Mime.so.5:_ZN5KMime7Headers8Generics5Ident5parseERPKcS4_b
libKPim5Mime.so.5:_ZN5KMime7Headers8Generics5Ident9fromIdentEPKS2_
libKPim5Mime.so.5:_ZN5KMime7Headers8Generics5IdentC1EPNS1_12IdentPrivateE
libKPim5Mime.so.5:_ZN5KMime7Headers8Generics5IdentC1Ev
libKPim5Mime.so.5:_ZN5KMime7Headers8Generics5IdentC2EPNS1_12IdentPrivateE
libKPim5Mime.so.5:_ZN5KMime7Headers8Generics5IdentC2Ev
libKPim5Mime.so.5:_ZN5KMime7Headers8Generics5IdentD0Ev
libKPim5Mime.so.5:_ZN5KMime7Headers8Generics5IdentD1Ev
libKPim5Mime.so.5:_ZN5KMime7Headers8Generics5IdentD2Ev
libKPim5Mime.so.5:_ZN5KMime7Headers8Generics5Token5clearEv
libKPim5Mime.so.5:_ZN5KMime7Headers8Generics5Token5parseERPKcS4_b
libKPim5Mime.so.5:_ZN5KMime7Headers8Generics5Token8setTokenERK10QByteArray
libKPim5Mime.so.5:_ZN5KMime7Headers8Generics5TokenC1EPNS1_12TokenPrivateE
libKPim5Mime.so.5:_ZN5KMime7Headers8Generics5TokenC1Ev
libKPim5Mime.so.5:_ZN5KMime7Headers8Generics5TokenC2EPNS1_12TokenPrivateE
libKPim5Mime.so.5:_ZN5KMime7Headers8Generics5TokenC2Ev
libKPim5Mime.so.5:_ZN5KMime7Headers8Generics5TokenD0Ev
libKPim5Mime.so.5:_ZN5KMime7Headers8Generics5TokenD1Ev
libKPim5Mime.so.5:_ZN5KMime7Headers8Generics5TokenD2Ev
libKPim5Mime.so.5:_ZN5KMime7Headers8Generics7AddressC1EPNS1_14AddressPrivateE
libKPim5Mime.so.5:_ZN5KMime7Headers8Generics7AddressC1Ev
libKPim5Mime.so.5:_ZN5KMime7Headers8Generics7AddressC2EPNS1_14AddressPrivateE
libKPim5Mime.so.5:_ZN5KMime7Headers8Generics7AddressC2Ev
libKPim5Mime.so.5:_ZN5KMime7Headers8Generics7AddressD0Ev
libKPim5Mime.so.5:_ZN5KMime7Headers8Generics7AddressD1Ev
libKPim5Mime.so.5:_ZN5KMime7Headers8Generics7AddressD2Ev
libKPim5Mime.so.5:_ZN5KMime7Headers8Generics7DotAtom5clearEv
libKPim5Mime.so.5:_ZN5KMime7Headers8Generics7DotAtom5parseERPKcS4_b
libKPim5Mime.so.5:_ZN5KMime7Headers8Generics7DotAtomC1Ev
libKPim5Mime.so.5:_ZN5KMime7Headers8Generics7DotAtomC2Ev
libKPim5Mime.so.5:_ZN5KMime7Headers8Generics7DotAtomD0Ev
libKPim5Mime.so.5:_ZN5KMime7Headers8Generics7DotAtomD1Ev
libKPim5Mime.so.5:_ZN5KMime7Headers8Generics7DotAtomD2Ev
libKPim5Mime.so.5:_ZN5KMime7Headers8Keywords10staticTypeEv
libKPim5Mime.so.5:_ZN5KMime7Headers8KeywordsC1Ev
libKPim5Mime.so.5:_ZN5KMime7Headers8KeywordsC2Ev
libKPim5Mime.so.5:_ZN5KMime7Headers8KeywordsD0Ev
libKPim5Mime.so.5:_ZN5KMime7Headers8KeywordsD1Ev
libKPim5Mime.so.5:_ZN5KMime7Headers8KeywordsD2Ev
libKPim5Mime.so.5:_ZN5KMime7Headers9ContentID10staticTypeEv
libKPim5Mime.so.5:_ZN5KMime7Headers9ContentID5parseERPKcS3_b
libKPim5Mime.so.5:_ZN5KMime7Headers9ContentIDC1EPNS0_16ContentIDPrivateE
libKPim5Mime.so.5:_ZN5KMime7Headers9ContentIDC1Ev
libKPim5Mime.so.5:_ZN5KMime7Headers9ContentIDC2EPNS0_16ContentIDPrivateE
libKPim5Mime.so.5:_ZN5KMime7Headers9ContentIDC2Ev
libKPim5Mime.so.5:_ZN5KMime7Headers9ContentIDD0Ev
libKPim5Mime.so.5:_ZN5KMime7Headers9ContentIDD1Ev
libKPim5Mime.so.5:_ZN5KMime7Headers9ContentIDD2Ev
libKPim5Mime.so.5:_ZN5KMime7Headers9InReplyTo10staticTypeEv
libKPim5Mime.so.5:_ZN5KMime7Headers9InReplyToC1Ev
libKPim5Mime.so.5:_ZN5KMime7Headers9InReplyToC2Ev
libKPim5Mime.so.5:_ZN5KMime7Headers9InReplyToD0Ev
libKPim5Mime.so.5:_ZN5KMime7Headers9InReplyToD1Ev
libKPim5Mime.so.5:_ZN5KMime7Headers9InReplyToD2Ev
libKPim5Mime.so.5:_ZN5KMime7Headers9MessageID10staticTypeEv
libKPim5Mime.so.5:_ZN5KMime7Headers9MessageID8generateERK10QByteArray
libKPim5Mime.so.5:_ZN5KMime7Headers9MessageIDC1Ev
libKPim5Mime.so.5:_ZN5KMime7Headers9MessageIDC2Ev
libKPim5Mime.so.5:_ZN5KMime7Headers9MessageIDD0Ev
libKPim5Mime.so.5:_ZN5KMime7Headers9MessageIDD1Ev
libKPim5Mime.so.5:_ZN5KMime7Headers9MessageIDD2Ev
libKPim5Mime.so.5:_ZN5KMime7Headers9UserAgent10staticTypeEv
libKPim5Mime.so.5:_ZN5KMime7Headers9UserAgentC1Ev
libKPim5Mime.so.5:_ZN5KMime7Headers9UserAgentC2Ev
libKPim5Mime.so.5:_ZN5KMime7Headers9UserAgentD0Ev
libKPim5Mime.so.5:_ZN5KMime7Headers9UserAgentD1Ev
libKPim5Mime.so.5:_ZN5KMime7Headers9UserAgentD2Ev
libKPim5Mime.so.5:_ZN5KMime7Message10referencesEb
libKPim5Mime.so.5:_ZN5KMime7Message12mainBodyPartERK10QByteArray
libKPim5Mime.so.5:_ZN5KMime7Message12organizationEb
libKPim5Mime.so.5:_ZN5KMime7Message15assembleHeadersEv
libKPim5Mime.so.5:_ZN5KMime7Message2ccEb
libKPim5Mime.so.5:_ZN5KMime7Message2toEb
libKPim5Mime.so.5:_ZN5KMime7Message3bccEb
libKPim5Mime.so.5:_ZN5KMime7Message4dateEb
libKPim5Mime.so.5:_ZN5KMime7Message4fromEb
libKPim5Mime.so.5:_ZN5KMime7Message6senderEb
libKPim5Mime.so.5:_ZN5KMime7Message7replyToEb
libKPim5Mime.so.5:_ZN5KMime7Message7subjectEb
libKPim5Mime.so.5:_ZN5KMime7Message8mimeTypeEv
libKPim5Mime.so.5:_ZN5KMime7Message9inReplyToEb
libKPim5Mime.so.5:_ZN5KMime7Message9messageIDEb
libKPim5Mime.so.5:_ZN5KMime7Message9userAgentEb
libKPim5Mime.so.5:_ZN5KMime7MessageC1Ev
libKPim5Mime.so.5:_ZN5KMime7MessageC2Ev
libKPim5Mime.so.5:_ZN5KMime7MessageD0Ev
libKPim5Mime.so.5:_ZN5KMime7MessageD1Ev
libKPim5Mime.so.5:_ZN5KMime7MessageD2Ev
libKPim5Mime.so.5:_ZN5KMime8CRLFtoLFEPKc
libKPim5Mime.so.5:_ZN5KMime8CRLFtoLFERK10QByteArray
libKPim5Mime.so.5:_ZN5KMime8LFtoCRLFERK10QByteArray
libKPim5Mime.so.5:_ZN5KMime8isSignedEPNS_7MessageE
libKPim5Mime.so.5:_ZN5KMime9addQuotesER10QByteArrayb
libKPim5Mime.so.5:_ZN5KMime9addQuotesER7QStringb
libKPim5Mime.so.5:_ZN5KMime9isUsAsciiERK7QString
libKPim5Mime.so.5:_ZNK5KMime12ContentIndex7isValidEv
libKPim5Mime.so.5:_ZNK5KMime12ContentIndex8toStringEv
libKPim5Mime.so.5:_ZNK5KMime12ContentIndexeqERKS0_
libKPim5Mime.so.5:_ZNK5KMime12ContentIndexneERKS0_
libKPim5Mime.so.5:_ZNK5KMime13DateFormatter10dateStringERK9QDateTimeRK7QStringb
libKPim5Mime.so.5:_ZNK5KMime13DateFormatter10dateStringElRK7QStringb
libKPim5Mime.so.5:_ZNK5KMime13DateFormatter12customFormatEv
libKPim5Mime.so.5:_ZNK5KMime13DateFormatter6formatEv
libKPim5Mime.so.5:_ZNK5KMime5Types7Mailbox10hasAddressEv
libKPim5Mime.so.5:_ZNK5KMime5Types7Mailbox12as7BitStringERK10QByteArray
libKPim5Mime.so.5:_ZNK5KMime5Types7Mailbox13prettyAddressENS1_7QuotingE
libKPim5Mime.so.5:_ZNK5KMime5Types7Mailbox4nameEv
libKPim5Mime.so.5:_ZNK5KMime5Types7Mailbox7addressEv
libKPim5Mime.so.5:_ZNK5KMime5Types7Mailbox7hasNameEv
libKPim5Mime.so.5:_ZNK5KMime5Types7Mailbox8addrSpecEv
libKPim5Mime.so.5:_ZNK5KMime5Types8AddrSpec14asPrettyStringEv
libKPim5Mime.so.5:_ZNK5KMime5Types8AddrSpec7isEmptyEv
libKPim5Mime.so.5:_ZNK5KMime5Types8AddrSpec8asStringEv
libKPim5Mime.so.5:_ZNK5KMime7Content10hasContentEv
libKPim5Mime.so.5:_ZNK5KMime7Content10isTopLevelEv
libKPim5Mime.so.5:_ZNK5KMime7Content11storageSizeEv
libKPim5Mime.so.5:_ZNK5KMime7Content12headerByTypeEPKc
libKPim5Mime.so.5:_ZNK5KMime7Content13bodyAsMessageEv
libKPim5Mime.so.5:_ZNK5KMime7Content13bodyIsMessageEv
libKPim5Mime.so.5:_ZNK5KMime7Content13headersByTypeEPKc
libKPim5Mime.so.5:_ZNK5KMime7Content15indexForContentEPS0_
libKPim5Mime.so.5:_ZNK5KMime7Content4bodyEv
libKPim5Mime.so.5:_ZNK5KMime7Content4headEv
libKPim5Mime.so.5:_ZNK5KMime7Content5indexEv
libKPim5Mime.so.5:_ZNK5KMime7Content6parentEv
libKPim5Mime.so.5:_ZNK5KMime7Content7contentERKNS_12ContentIndexE
libKPim5Mime.so.5:_ZNK5KMime7Content7headersEv
libKPim5Mime.so.5:_ZNK5KMime7Content8contentsEv
libKPim5Mime.so.5:_ZNK5KMime7Content8epilogueEv
libKPim5Mime.so.5:_ZNK5KMime7Content8isFrozenEv
libKPim5Mime.so.5:_ZNK5KMime7Content8preambleEv
libKPim5Mime.so.5:_ZNK5KMime7Content8topLevelEv
libKPim5Mime.so.5:_ZNK5KMime7Content9hasHeaderEPKc
libKPim5Mime.so.5:_ZNK5KMime7Content9lineCountEv
libKPim5Mime.so.5:_ZNK5KMime7Headers10FollowUpTo4typeEv
libKPim5Mime.so.5:_ZNK5KMime7Headers10Newsgroups12as7BitStringEb
libKPim5Mime.so.5:_ZNK5KMime7Headers10Newsgroups13isCrosspostedEv
libKPim5Mime.so.5:_ZNK5KMime7Headers10Newsgroups15asUnicodeStringEv
libKPim5Mime.so.5:_ZNK5KMime7Headers10Newsgroups4typeEv
libKPim5Mime.so.5:_ZNK5KMime7Headers10Newsgroups6groupsEv
libKPim5Mime.so.5:_ZNK5KMime7Headers10Newsgroups7isEmptyEv
libKPim5Mime.so.5:_ZNK5KMime7Headers10References4typeEv
libKPim5Mime.so.5:_ZNK5KMime7Headers10ReturnPath12as7BitStringEb
libKPim5Mime.so.5:_ZNK5KMime7Headers10ReturnPath4typeEv
libKPim5Mime.so.5:_ZNK5KMime7Headers10ReturnPath7isEmptyEv
libKPim5Mime.so.5:_ZNK5KMime7Headers10Supersedes4typeEv
libKPim5Mime.so.5:_ZNK5KMime7Headers11ContentType10isHTMLTextEv
libKPim5Mime.so.5:_ZNK5KMime7Headers11ContentType10isMimeTypeEPKc
libKPim5Mime.so.5:_ZNK5KMime7Headers11ContentType11isMediatypeEPKc
libKPim5Mime.so.5:_ZNK5KMime7Headers11ContentType11isMultipartEv
libKPim5Mime.so.5:_ZNK5KMime7Headers11ContentType11isPlainTextEv
libKPim5Mime.so.5:_ZNK5KMime7Headers11ContentType12as7BitStringEb
libKPim5Mime.so.5:_ZNK5KMime7Headers11ContentType12partialCountEv
libKPim5Mime.so.5:_ZNK5KMime7Headers11ContentType13partialNumberEv
libKPim5Mime.so.5:_ZNK5KMime7Headers11ContentType2idEv
libKPim5Mime.so.5:_ZNK5KMime7Headers11ContentType4nameEv
libKPim5Mime.so.5:_ZNK5KMime7Headers11ContentType4typeEv
libKPim5Mime.so.5:_ZNK5KMime7Headers11ContentType6isTextEv
libKPim5Mime.so.5:_ZNK5KMime7Headers11ContentType7charsetEv
libKPim5Mime.so.5:_ZNK5KMime7Headers11ContentType7isEmptyEv
libKPim5Mime.so.5:_ZNK5KMime7Headers11ContentType7isImageEv
libKPim5Mime.so.5:_ZNK5KMime7Headers11ContentType7subTypeEv
libKPim5Mime.so.5:_ZNK5KMime7Headers11ContentType8boundaryEv
libKPim5Mime.so.5:_ZNK5KMime7Headers11ContentType8categoryEv
libKPim5Mime.so.5:_ZNK5KMime7Headers11ContentType8mimeTypeEv
libKPim5Mime.so.5:_ZNK5KMime7Headers11ContentType9isPartialEv
libKPim5Mime.so.5:_ZNK5KMime7Headers11ContentType9isSubtypeEPKc
libKPim5Mime.so.5:_ZNK5KMime7Headers11ContentType9mediaTypeEv
libKPim5Mime.so.5:_ZNK5KMime7Headers11MIMEVersion4typeEv
libKPim5Mime.so.5:_ZNK5KMime7Headers12MailCopiesTo10alwaysCopyEv
libKPim5Mime.so.5:_ZNK5KMime7Headers12MailCopiesTo12as7BitStringEb
libKPim5Mime.so.5:_ZNK5KMime7Headers12MailCopiesTo15asUnicodeStringEv
libKPim5Mime.so.5:_ZNK5KMime7Headers12MailCopiesTo4typeEv
libKPim5Mime.so.5:_ZNK5KMime7Headers12MailCopiesTo7isEmptyEv
libKPim5Mime.so.5:_ZNK5KMime7Headers12MailCopiesTo9neverCopyEv
libKPim5Mime.so.5:_ZNK5KMime7Headers12Organization4typeEv
libKPim5Mime.so.5:_ZNK5KMime7Headers15ContentLocation4typeEv
libKPim5Mime.so.5:_ZNK5KMime7Headers18ContentDescription4typeEv
libKPim5Mime.so.5:_ZNK5KMime7Headers18ContentDisposition11dispositionEv
libKPim5Mime.so.5:_ZNK5KMime7Headers18ContentDisposition12as7BitStringEb
libKPim5Mime.so.5:_ZNK5KMime7Headers18ContentDisposition4typeEv
libKPim5Mime.so.5:_ZNK5KMime7Headers18ContentDisposition7isEmptyEv
libKPim5Mime.so.5:_ZNK5KMime7Headers18ContentDisposition8filenameEv
libKPim5Mime.so.5:_ZNK5KMime7Headers23ContentTransferEncoding12needToEncodeEv
libKPim5Mime.so.5:_ZNK5KMime7Headers23ContentTransferEncoding4typeEv
libKPim5Mime.so.5:_ZNK5KMime7Headers23ContentTransferEncoding8encodingEv
libKPim5Mime.so.5:_ZNK5KMime7Headers23ContentTransferEncoding9isDecodedEv
libKPim5Mime.so.5:_ZNK5KMime7Headers2Cc4typeEv
libKPim5Mime.so.5:_ZNK5KMime7Headers2To4typeEv
libKPim5Mime.so.5:_ZNK5KMime7Headers3Bcc4typeEv
libKPim5Mime.so.5:_ZNK5KMime7Headers4Base12isMimeHeaderEv
libKPim5Mime.so.5:_ZNK5KMime7Headers4Base14rfc2047CharsetEv
libKPim5Mime.so.5:_ZNK5KMime7Headers4Base2isEPKc
libKPim5Mime.so.5:_ZNK5KMime7Headers4Base4typeEv
libKPim5Mime.so.5:_ZNK5KMime7Headers4Base9typeIntroEv
libKPim5Mime.so.5:_ZNK5KMime7Headers4Date12as7BitStringEb
libKPim5Mime.so.5:_ZNK5KMime7Headers4Date4typeEv
libKPim5Mime.so.5:_ZNK5KMime7Headers4Date7isEmptyEv
libKPim5Mime.so.5:_ZNK5KMime7Headers4Date8dateTimeEv
libKPim5Mime.so.5:_ZNK5KMime7Headers4Date9ageInDaysEv
libKPim5Mime.so.5:_ZNK5KMime7Headers4From4typeEv
libKPim5Mime.so.5:_ZNK5KMime7Headers5Lines12as7BitStringEb
libKPim5Mime.so.5:_ZNK5KMime7Headers5Lines13numberOfLinesEv
libKPim5Mime.so.5:_ZNK5KMime7Headers5Lines15asUnicodeStringEv
libKPim5Mime.so.5:_ZNK5KMime7Headers5Lines4typeEv
libKPim5Mime.so.5:_ZNK5KMime7Headers5Lines7isEmptyEv
libKPim5Mime.so.5:_ZNK5KMime7Headers6Sender4typeEv
libKPim5Mime.so.5:_ZNK5KMime7Headers7Control11controlTypeEv
libKPim5Mime.so.5:_ZNK5KMime7Headers7Control12as7BitStringEb
libKPim5Mime.so.5:_ZNK5KMime7Headers7Control4typeEv
libKPim5Mime.so.5:_ZNK5KMime7Headers7Control7isEmptyEv
libKPim5Mime.so.5:_ZNK5KMime7Headers7Control8isCancelEv
libKPim5Mime.so.5:_ZNK5KMime7Headers7Control9parameterEv
libKPim5Mime.so.5:_ZNK5KMime7Headers7Generic4typeEv
libKPim5Mime.so.5:_ZNK5KMime7Headers7Generic7isEmptyEv
libKPim5Mime.so.5:_ZNK5KMime7Headers7ReplyTo4typeEv
libKPim5Mime.so.5:_ZNK5KMime7Headers7Subject4typeEv
libKPim5Mime.so.5:_ZNK5KMime7Headers8Generics10PhraseList12as7BitStringEb
libKPim5Mime.so.5:_ZNK5KMime7Headers8Generics10PhraseList15asUnicodeStringEv
libKPim5Mime.so.5:_ZNK5KMime7Headers8Generics10PhraseList7isEmptyEv
libKPim5Mime.so.5:_ZNK5KMime7Headers8Generics10PhraseList7phrasesEv
libKPim5Mime.so.5:_ZNK5KMime7Headers8Generics10Structured15asUnicodeStringEv
libKPim5Mime.so.5:_ZNK5KMime7Headers8Generics11AddressList12as7BitStringEb
libKPim5Mime.so.5:_ZNK5KMime7Headers8Generics11AddressList12displayNamesEv
libKPim5Mime.so.5:_ZNK5KMime7Headers8Generics11AddressList13displayStringEv
libKPim5Mime.so.5:_ZNK5KMime7Headers8Generics11AddressList15asUnicodeStringEv
libKPim5Mime.so.5:_ZNK5KMime7Headers8Generics11AddressList7isEmptyEv
libKPim5Mime.so.5:_ZNK5KMime7Headers8Generics11AddressList9addressesEv
libKPim5Mime.so.5:_ZNK5KMime7Headers8Generics11AddressList9mailboxesEv
libKPim5Mime.so.5:_ZNK5KMime7Headers8Generics11MailboxList12as7BitStringEb
libKPim5Mime.so.5:_ZNK5KMime7Headers8Generics11MailboxList12displayNamesEv
libKPim5Mime.so.5:_ZNK5KMime7Headers8Generics11MailboxList13displayStringEv
libKPim5Mime.so.5:_ZNK5KMime7Headers8Generics11MailboxList15asUnicodeStringEv
libKPim5Mime.so.5:_ZNK5KMime7Headers8Generics11MailboxList7isEmptyEv
libKPim5Mime.so.5:_ZNK5KMime7Headers8Generics11MailboxList9addressesEv
libKPim5Mime.so.5:_ZNK5KMime7Headers8Generics11MailboxList9mailboxesEv
libKPim5Mime.so.5:_ZNK5KMime7Headers8Generics11SingleIdent10identifierEv
libKPim5Mime.so.5:_ZNK5KMime7Headers8Generics12Parametrized12as7BitStringEb
libKPim5Mime.so.5:_ZNK5KMime7Headers8Generics12Parametrized12hasParameterERK7QString
libKPim5Mime.so.5:_ZNK5KMime7Headers8Generics12Parametrized7isEmptyEv
libKPim5Mime.so.5:_ZNK5KMime7Headers8Generics12Parametrized9parameterERK7QString
libKPim5Mime.so.5:_ZNK5KMime7Headers8Generics12Unstructured12as7BitStringEb
libKPim5Mime.so.5:_ZNK5KMime7Headers8Generics12Unstructured15asUnicodeStringEv
libKPim5Mime.so.5:_ZNK5KMime7Headers8Generics12Unstructured7isEmptyEv
libKPim5Mime.so.5:_ZNK5KMime7Headers8Generics5Ident11identifiersEv
libKPim5Mime.so.5:_ZNK5KMime7Headers8Generics5Ident12as7BitStringEb
libKPim5Mime.so.5:_ZNK5KMime7Headers8Generics5Ident7isEmptyEv
libKPim5Mime.so.5:_ZNK5KMime7Headers8Generics5Token12as7BitStringEb
libKPim5Mime.so.5:_ZNK5KMime7Headers8Generics5Token5tokenEv
libKPim5Mime.so.5:_ZNK5KMime7Headers8Generics5Token7isEmptyEv
libKPim5Mime.so.5:_ZNK5KMime7Headers8Generics7DotAtom12as7BitStringEb
libKPim5Mime.so.5:_ZNK5KMime7Headers8Generics7DotAtom15asUnicodeStringEv
libKPim5Mime.so.5:_ZNK5KMime7Headers8Generics7DotAtom7isEmptyEv
libKPim5Mime.so.5:_ZNK5KMime7Headers8Keywords4typeEv
libKPim5Mime.so.5:_ZNK5KMime7Headers9ContentID4typeEv
libKPim5Mime.so.5:_ZNK5KMime7Headers9InReplyTo4typeEv
libKPim5Mime.so.5:_ZNK5KMime7Headers9MessageID4typeEv
libKPim5Mime.so.5:_ZNK5KMime7Headers9UserAgent4typeEv
