libcollada-dom2.5-dp.so.0:DAEInstanceCount
libcollada-dom2.5-dp.so.0:_Z10checkedRefPK16daeRefCountedObj
libcollada-dom2.5-dp.so.0:_Z11getDomAnyIDR3DAE
libcollada-dom2.5-dp.so.0:_Z14checkedReleasePK16daeRefCountedObj
libcollada-dom2.5-dp.so.0:_Z14copyElementAny11daeSmartRefI10daeElementEPS0_
libcollada-dom2.5-dp.so.0:_Z14daeErrorStringi
libcollada-dom2.5-dp.so.0:_Z14getDomSourceIDR3DAE
libcollada-dom2.5-dp.so.0:_Z15getDomCOLLADAIDPKc
libcollada-dom2.5-dp.so.0:_Z17initializeDomMetaR3DAEPKc
libcollada-dom2.5-dp.so.0:_Z18GetCOLLADA_VERSIONPKc
libcollada-dom2.5-dp.so.0:_Z18registerElementAnyR3DAE
libcollada-dom2.5-dp.so.0:_Z19GetColladaTypeCountPKc
libcollada-dom2.5-dp.so.0:_Z20GetCOLLADA_NAMESPACEPKc
libcollada-dom2.5-dp.so.0:_Z22getDomSourceFloatArrayP10daeElement
libcollada-dom2.5-dp.so.0:_Z25COLLADA_ELEMENT_TECHNIQUER3DAE
libcollada-dom2.5-dp.so.0:_Z32COLLADA_ELEMENT_TECHNIQUE_COMMONR3DAE
libcollada-dom2.5-dp.so.0:_ZN10daeElement11getAncestorEPKc
libcollada-dom2.5-dp.so.0:_ZN10daeElement11getAncestorERKNS_12matchElementE
libcollada-dom2.5-dp.so.0:_ZN10daeElement11getCharDataB5cxx11Ev
libcollada-dom2.5-dp.so.0:_ZN10daeElement11getCharDataERNSt7__cxx1112basic_stringIcSt11char_traitsIcESaIcEEE
libcollada-dom2.5-dp.so.0:_ZN10daeElement11getChildrenER9daeTArrayI11daeSmartRefIS_EE
libcollada-dom2.5-dp.so.0:_ZN10daeElement11getChildrenEv
libcollada-dom2.5-dp.so.0:_ZN10daeElement11getUserDataEv
libcollada-dom2.5-dp.so.0:_ZN10daeElement11hasCharDataEv
libcollada-dom2.5-dp.so.0:_ZN10daeElement11setCharDataERKNSt7__cxx1112basic_stringIcSt11char_traitsIcESaIcEEE
libcollada-dom2.5-dp.so.0:_ZN10daeElement11setDocumentEP11daeDocumentb
libcollada-dom2.5-dp.so.0:_ZN10daeElement11setUserDataEPv
libcollada-dom2.5-dp.so.0:_ZN10daeElement12getAttributeB5cxx11EPKc
libcollada-dom2.5-dp.so.0:_ZN10daeElement12getAttributeB5cxx11Em
libcollada-dom2.5-dp.so.0:_ZN10daeElement12getAttributeEPKcRNSt7__cxx1112basic_stringIcSt11char_traitsIcESaIcEEE
libcollada-dom2.5-dp.so.0:_ZN10daeElement12getAttributeEmRNSt7__cxx1112basic_stringIcSt11char_traitsIcESaIcEEE
libcollada-dom2.5-dp.so.0:_ZN10daeElement12hasAttributeEPKc
libcollada-dom2.5-dp.so.0:_ZN10daeElement12placeElementEPS_
libcollada-dom2.5-dp.so.0:_ZN10daeElement12setAttributeEPKcS1_
libcollada-dom2.5-dp.so.0:_ZN10daeElement12setAttributeEmPKc
libcollada-dom2.5-dp.so.0:_ZN10daeElement13compareResult6formatB5cxx11Ev
libcollada-dom2.5-dp.so.0:_ZN10daeElement13compareResultC1Ev
libcollada-dom2.5-dp.so.0:_ZN10daeElement13compareResultC2Ev
libcollada-dom2.5-dp.so.0:_ZN10daeElement13createElementEPKc
libcollada-dom2.5-dp.so.0:_ZN10daeElement13getAttributesER9daeTArrayINS_4attrEE
libcollada-dom2.5-dp.so.0:_ZN10daeElement13getAttributesEv
libcollada-dom2.5-dp.so.0:_ZN10daeElement13getDescendantEPKc
libcollada-dom2.5-dp.so.0:_ZN10daeElement13getDescendantERKNS_12matchElementE
libcollada-dom2.5-dp.so.0:_ZN10daeElement14createAndPlaceEPKc
libcollada-dom2.5-dp.so.0:_ZN10daeElement14isAttributeSetEPKc
libcollada-dom2.5-dp.so.0:_ZN10daeElement14placeElementAtEiPS_
libcollada-dom2.5-dp.so.0:_ZN10daeElement14setElementNameEPKc
libcollada-dom2.5-dp.so.0:_ZN10daeElement15findLastIndexOfEPKc
libcollada-dom2.5-dp.so.0:_ZN10daeElement15getValuePointerEv
libcollada-dom2.5-dp.so.0:_ZN10daeElement16createAndPlaceAtEiPKc
libcollada-dom2.5-dp.so.0:_ZN10daeElement16getAttributeNameB5cxx11Em
libcollada-dom2.5-dp.so.0:_ZN10daeElement17deleteCMDataArrayER9daeTArrayIPS0_IcEE
libcollada-dom2.5-dp.so.0:_ZN10daeElement17getAttributeCountEv
libcollada-dom2.5-dp.so.0:_ZN10daeElement17getAttributeValueEPKc
libcollada-dom2.5-dp.so.0:_ZN10daeElement17getCharDataObjectEv
libcollada-dom2.5-dp.so.0:_ZN10daeElement17placeElementAfterEPS_S0_
libcollada-dom2.5-dp.so.0:_ZN10daeElement18getAttributeObjectEPKc
libcollada-dom2.5-dp.so.0:_ZN10daeElement18getAttributeObjectEm
libcollada-dom2.5-dp.so.0:_ZN10daeElement18placeElementBeforeEPS_S0_
libcollada-dom2.5-dp.so.0:_ZN10daeElement18removeChildElementEPS_
libcollada-dom2.5-dp.so.0:_ZN10daeElement21compareWithFullResultERS_S0_
libcollada-dom2.5-dp.so.0:_ZN10daeElement3addEPKci
libcollada-dom2.5-dp.so.0:_ZN10daeElement3addEPS_i
libcollada-dom2.5-dp.so.0:_ZN10daeElement4attrC1ERKNSt7__cxx1112basic_stringIcSt11char_traitsIcESaIcEEES8_
libcollada-dom2.5-dp.so.0:_ZN10daeElement4attrC1Ev
libcollada-dom2.5-dp.so.0:_ZN10daeElement4attrC2ERKNSt7__cxx1112basic_stringIcSt11char_traitsIcESaIcEEES8_
libcollada-dom2.5-dp.so.0:_ZN10daeElement4attrC2Ev
libcollada-dom2.5-dp.so.0:_ZN10daeElement4initEv
libcollada-dom2.5-dp.so.0:_ZN10daeElement5cloneEPKcS1_
libcollada-dom2.5-dp.so.0:_ZN10daeElement5setupEP14daeMetaElement
libcollada-dom2.5-dp.so.0:_ZN10daeElement6getDAEEv
libcollada-dom2.5-dp.so.0:_ZN10daeElement7compareERS_S0_
libcollada-dom2.5-dp.so.0:_ZN10daeElement8addAfterEPS_S0_
libcollada-dom2.5-dp.so.0:_ZN10daeElement8getChildEPKc
libcollada-dom2.5-dp.so.0:_ZN10daeElement8getChildERKNS_12matchElementE
libcollada-dom2.5-dp.so.0:_ZN10daeElement8hasValueEv
libcollada-dom2.5-dp.so.0:_ZN10daeElement9addBeforeEPS_S0_
libcollada-dom2.5-dp.so.0:_ZN10daeElement9getParentEv
libcollada-dom2.5-dp.so.0:_ZN10daeElement9matchNameC1EPKc
libcollada-dom2.5-dp.so.0:_ZN10daeElement9matchNameC2EPKc
libcollada-dom2.5-dp.so.0:_ZN10daeElement9matchTypeC1Ei
libcollada-dom2.5-dp.so.0:_ZN10daeElement9matchTypeC2Ei
libcollada-dom2.5-dp.so.0:_ZN10daeElement9simpleAddEPKci
libcollada-dom2.5-dp.so.0:_ZN10daeElementC1ER3DAE
libcollada-dom2.5-dp.so.0:_ZN10daeElementC1Ev
libcollada-dom2.5-dp.so.0:_ZN10daeElementC2ER3DAE
libcollada-dom2.5-dp.so.0:_ZN10daeElementC2Ev
libcollada-dom2.5-dp.so.0:_ZN10daeElementD0Ev
libcollada-dom2.5-dp.so.0:_ZN10daeElementD1Ev
libcollada-dom2.5-dp.so.0:_ZN10daeElementD2Ev
libcollada-dom2.5-dp.so.0:_ZN10daeIntType11createArrayEv
libcollada-dom2.5-dp.so.0:_ZN10daeIntType14memoryToStringEPcRNSt7__cxx1119basic_ostringstreamIcSt11char_traitsIcESaIcEEE
libcollada-dom2.5-dp.so.0:_ZN10daeIntType4copyEPcS0_
libcollada-dom2.5-dp.so.0:_ZN10daeIntType6createEv
libcollada-dom2.5-dp.so.0:_ZN10daeIntType7destroyEPc
libcollada-dom2.5-dp.so.0:_ZN10daeIntTypeC1ER3DAE
libcollada-dom2.5-dp.so.0:_ZN10daeIntTypeC2ER3DAE
libcollada-dom2.5-dp.so.0:_ZN10daeMetaAny11getChildrenEP10daeElementR9daeTArrayI11daeSmartRefIS0_EE
libcollada-dom2.5-dp.so.0:_ZN10daeMetaAny12placeElementEP10daeElementS1_RjiS1_S1_
libcollada-dom2.5-dp.so.0:_ZN10daeMetaAny13removeElementEP10daeElementS1_
libcollada-dom2.5-dp.so.0:_ZN10daeMetaAny9findChildEPKc
libcollada-dom2.5-dp.so.0:_ZN10daeMetaAnyC1EP14daeMetaElementP15daeMetaCMPolicyjii
libcollada-dom2.5-dp.so.0:_ZN10daeMetaAnyC2EP14daeMetaElementP15daeMetaCMPolicyjii
libcollada-dom2.5-dp.so.0:_ZN10daeMetaAnyD0Ev
libcollada-dom2.5-dp.so.0:_ZN10daeMetaAnyD1Ev
libcollada-dom2.5-dp.so.0:_ZN10daeMetaAnyD2Ev
libcollada-dom2.5-dp.so.0:_ZN11daeBoolType11createArrayEv
libcollada-dom2.5-dp.so.0:_ZN11daeBoolType14memoryToStringEPcRNSt7__cxx1119basic_ostringstreamIcSt11char_traitsIcESaIcEEE
libcollada-dom2.5-dp.so.0:_ZN11daeBoolType14stringToMemoryEPcS0_
libcollada-dom2.5-dp.so.0:_ZN11daeBoolType4copyEPcS0_
libcollada-dom2.5-dp.so.0:_ZN11daeBoolType6createEv
libcollada-dom2.5-dp.so.0:_ZN11daeBoolType7destroyEPc
libcollada-dom2.5-dp.so.0:_ZN11daeBoolTypeC1ER3DAE
libcollada-dom2.5-dp.so.0:_ZN11daeBoolTypeC2ER3DAE
libcollada-dom2.5-dp.so.0:_ZN11daeDatabase10typeLookupEiP11daeDocument
libcollada-dom2.5-dp.so.0:_ZN11daeDatabase6getDAEEv
libcollada-dom2.5-dp.so.0:_ZN11daeDatabase6getDocEj
libcollada-dom2.5-dp.so.0:_ZN11daeDatabase8idLookupERKNSt7__cxx1112basic_stringIcSt11char_traitsIcESaIcEEEP11daeDocument
libcollada-dom2.5-dp.so.0:_ZN11daeDatabase9sidLookupERKNSt7__cxx1112basic_stringIcSt11char_traitsIcESaIcEEEP11daeDocument
libcollada-dom2.5-dp.so.0:_ZN11daeDatabaseC1ER3DAE
libcollada-dom2.5-dp.so.0:_ZN11daeDatabaseC2ER3DAE
libcollada-dom2.5-dp.so.0:_ZN11daeDocument11getDatabaseEv
libcollada-dom2.5-dp.so.0:_ZN11daeDocument13insertElementE11daeSmartRefI10daeElementE
libcollada-dom2.5-dp.so.0:_ZN11daeDocument13removeElementE11daeSmartRefI10daeElementE
libcollada-dom2.5-dp.so.0:_ZN11daeDocument15changeElementIDE11daeSmartRefI10daeElementEPKc
libcollada-dom2.5-dp.so.0:_ZN11daeDocument16changeElementSIDE11daeSmartRefI10daeElementEPKc
libcollada-dom2.5-dp.so.0:_ZN11daeDocument6getDAEEv
libcollada-dom2.5-dp.so.0:_ZN11daeDocumentC1ER3DAEbRKNSt7__cxx1112basic_stringIcSt11char_traitsIcESaIcEEE
libcollada-dom2.5-dp.so.0:_ZN11daeDocumentC2ER3DAEbRKNSt7__cxx1112basic_stringIcSt11char_traitsIcESaIcEEE
libcollada-dom2.5-dp.so.0:_ZN11daeDocumentD1Ev
libcollada-dom2.5-dp.so.0:_ZN11daeDocumentD2Ev
libcollada-dom2.5-dp.so.0:_ZN11daeEnumType11createArrayEv
libcollada-dom2.5-dp.so.0:_ZN11daeEnumType14memoryToStringEPcRNSt7__cxx1119basic_ostringstreamIcSt11char_traitsIcESaIcEEE
libcollada-dom2.5-dp.so.0:_ZN11daeEnumType14stringToMemoryEPcS0_
libcollada-dom2.5-dp.so.0:_ZN11daeEnumType4copyEPcS0_
libcollada-dom2.5-dp.so.0:_ZN11daeEnumType6createEv
libcollada-dom2.5-dp.so.0:_ZN11daeEnumType7destroyEPc
libcollada-dom2.5-dp.so.0:_ZN11daeEnumTypeC1ER3DAE
libcollada-dom2.5-dp.so.0:_ZN11daeEnumTypeC2ER3DAE
libcollada-dom2.5-dp.so.0:_ZN11daeEnumTypeD0Ev
libcollada-dom2.5-dp.so.0:_ZN11daeEnumTypeD1Ev
libcollada-dom2.5-dp.so.0:_ZN11daeEnumTypeD2Ev
libcollada-dom2.5-dp.so.0:_ZN11daeLongType11createArrayEv
libcollada-dom2.5-dp.so.0:_ZN11daeLongType14memoryToStringEPcRNSt7__cxx1119basic_ostringstreamIcSt11char_traitsIcESaIcEEE
libcollada-dom2.5-dp.so.0:_ZN11daeLongType4copyEPcS0_
libcollada-dom2.5-dp.so.0:_ZN11daeLongType6createEv
libcollada-dom2.5-dp.so.0:_ZN11daeLongType7destroyEPc
libcollada-dom2.5-dp.so.0:_ZN11daeLongTypeC1ER3DAE
libcollada-dom2.5-dp.so.0:_ZN11daeLongTypeC2ER3DAE
libcollada-dom2.5-dp.so.0:_ZN11daeUIntType11createArrayEv
libcollada-dom2.5-dp.so.0:_ZN11daeUIntType14memoryToStringEPcRNSt7__cxx1119basic_ostringstreamIcSt11char_traitsIcESaIcEEE
libcollada-dom2.5-dp.so.0:_ZN11daeUIntType4copyEPcS0_
libcollada-dom2.5-dp.so.0:_ZN11daeUIntType6createEv
libcollada-dom2.5-dp.so.0:_ZN11daeUIntType7destroyEPc
libcollada-dom2.5-dp.so.0:_ZN11daeUIntTypeC1ER3DAE
libcollada-dom2.5-dp.so.0:_ZN11daeUIntTypeC2ER3DAE
libcollada-dom2.5-dp.so.0:_ZN12daeFloatType11createArrayEv
libcollada-dom2.5-dp.so.0:_ZN12daeFloatType14memoryToStringEPcRNSt7__cxx1119basic_ostringstreamIcSt11char_traitsIcESaIcEEE
libcollada-dom2.5-dp.so.0:_ZN12daeFloatType14stringToMemoryEPcS0_
libcollada-dom2.5-dp.so.0:_ZN12daeFloatType4copyEPcS0_
libcollada-dom2.5-dp.so.0:_ZN12daeFloatType6createEv
libcollada-dom2.5-dp.so.0:_ZN12daeFloatType7destroyEPc
libcollada-dom2.5-dp.so.0:_ZN12daeFloatTypeC1ER3DAE
libcollada-dom2.5-dp.so.0:_ZN12daeFloatTypeC2ER3DAE
libcollada-dom2.5-dp.so.0:_ZN12daeMetaGroup11getChildrenEP10daeElementR9daeTArrayI11daeSmartRefIS0_EE
libcollada-dom2.5-dp.so.0:_ZN12daeMetaGroup12placeElementEP10daeElementS1_RjiS1_S1_
libcollada-dom2.5-dp.so.0:_ZN12daeMetaGroup13removeElementEP10daeElementS1_
libcollada-dom2.5-dp.so.0:_ZN12daeMetaGroup9findChildEPKc
libcollada-dom2.5-dp.so.0:_ZN12daeMetaGroupC1EP23daeMetaElementAttributeP14daeMetaElementP15daeMetaCMPolicyjii
libcollada-dom2.5-dp.so.0:_ZN12daeMetaGroupC2EP23daeMetaElementAttributeP14daeMetaElementP15daeMetaCMPolicyjii
libcollada-dom2.5-dp.so.0:_ZN12daeMetaGroupD0Ev
libcollada-dom2.5-dp.so.0:_ZN12daeMetaGroupD1Ev
libcollada-dom2.5-dp.so.0:_ZN12daeMetaGroupD2Ev
libcollada-dom2.5-dp.so.0:_ZN12daeShortType11createArrayEv
libcollada-dom2.5-dp.so.0:_ZN12daeShortType14memoryToStringEPcRNSt7__cxx1119basic_ostringstreamIcSt11char_traitsIcESaIcEEE
libcollada-dom2.5-dp.so.0:_ZN12daeShortType4copyEPcS0_
libcollada-dom2.5-dp.so.0:_ZN12daeShortType6createEv
libcollada-dom2.5-dp.so.0:_ZN12daeShortType7destroyEPc
libcollada-dom2.5-dp.so.0:_ZN12daeShortTypeC1ER3DAE
libcollada-dom2.5-dp.so.0:_ZN12daeShortTypeC2ER3DAE
libcollada-dom2.5-dp.so.0:_ZN12daeStringRef12_stringTableEv
libcollada-dom2.5-dp.so.0:_ZN12daeStringRef18releaseStringTableEv
libcollada-dom2.5-dp.so.0:_ZN12daeStringRef3setEPKc
libcollada-dom2.5-dp.so.0:_ZN12daeStringRefC1EPKc
libcollada-dom2.5-dp.so.0:_ZN12daeStringRefC2EPKc
libcollada-dom2.5-dp.so.0:_ZN12daeStringRefaSEPKc
libcollada-dom2.5-dp.so.0:_ZN12daeTokenType11createArrayEv
libcollada-dom2.5-dp.so.0:_ZN12daeTokenType14stringToMemoryEPcS0_
libcollada-dom2.5-dp.so.0:_ZN12daeTokenType4copyEPcS0_
libcollada-dom2.5-dp.so.0:_ZN12daeTokenType6createEv
libcollada-dom2.5-dp.so.0:_ZN12daeTokenType7destroyEPc
libcollada-dom2.5-dp.so.0:_ZN12daeTokenTypeC1ER3DAE
libcollada-dom2.5-dp.so.0:_ZN12daeTokenTypeC2ER3DAE
libcollada-dom2.5-dp.so.0:_ZN12daeULongType11createArrayEv
libcollada-dom2.5-dp.so.0:_ZN12daeULongType14memoryToStringEPcRNSt7__cxx1119basic_ostringstreamIcSt11char_traitsIcESaIcEEE
libcollada-dom2.5-dp.so.0:_ZN12daeULongType4copyEPcS0_
libcollada-dom2.5-dp.so.0:_ZN12daeULongType6createEv
libcollada-dom2.5-dp.so.0:_ZN12daeULongType7destroyEPc
libcollada-dom2.5-dp.so.0:_ZN12daeULongTypeC1ER3DAE
libcollada-dom2.5-dp.so.0:_ZN12daeULongTypeC2ER3DAE
libcollada-dom2.5-dp.so.0:_ZN12stdErrPlugin11handleErrorEPKc
libcollada-dom2.5-dp.so.0:_ZN12stdErrPlugin13handleWarningEPKc
libcollada-dom2.5-dp.so.0:_ZN12stdErrPluginC1Ev
libcollada-dom2.5-dp.so.0:_ZN12stdErrPluginC2Ev
libcollada-dom2.5-dp.so.0:_ZN12stdErrPluginD0Ev
libcollada-dom2.5-dp.so.0:_ZN12stdErrPluginD1Ev
libcollada-dom2.5-dp.so.0:_ZN12stdErrPluginD2Ev
libcollada-dom2.5-dp.so.0:_ZN13ColladaDOM14110domCOLLADA15registerElementER3DAE
libcollada-dom2.5-dp.so.0:_ZN13ColladaDOM14110domCOLLADA6createER3DAE
libcollada-dom2.5-dp.so.0:_ZN13ColladaDOM14110domCOLLADA8domScene15registerElementER3DAE
libcollada-dom2.5-dp.so.0:_ZN13ColladaDOM14110domCOLLADA8domScene6createER3DAE
libcollada-dom2.5-dp.so.0:_ZN13ColladaDOM14110domCapsule15registerElementER3DAE
libcollada-dom2.5-dp.so.0:_ZN13ColladaDOM14110domCapsule6createER3DAE
libcollada-dom2.5-dp.so.0:_ZN13ColladaDOM14110domCapsule9domHeight15registerElementER3DAE
libcollada-dom2.5-dp.so.0:_ZN13ColladaDOM14110domCapsule9domHeight6createER3DAE
libcollada-dom2.5-dp.so.0:_ZN13ColladaDOM14110domCapsule9domRadius15registerElementER3DAE
libcollada-dom2.5-dp.so.0:_ZN13ColladaDOM14110domCapsule9domRadius6createER3DAE
libcollada-dom2.5-dp.so.0:_ZN13ColladaDOM14110domChannel15registerElementER3DAE
libcollada-dom2.5-dp.so.0:_ZN13ColladaDOM14110domChannel6createER3DAE
libcollada-dom2.5-dp.so.0:_ZN13ColladaDOM14110domSampler15registerElementER3DAE
libcollada-dom2.5-dp.so.0:_ZN13ColladaDOM14110domSampler6createER3DAE
libcollada-dom2.5-dp.so.0:_ZN13ColladaDOM14110domTrifans15registerElementER3DAE
libcollada-dom2.5-dp.so.0:_ZN13ColladaDOM14110domTrifans6createER3DAE
libcollada-dom2.5-dp.so.0:_ZN13ColladaDOM14111domAccessor15registerElementER3DAE
libcollada-dom2.5-dp.so.0:_ZN13ColladaDOM14111domAccessor6createER3DAE
libcollada-dom2.5-dp.so.0:_ZN13ColladaDOM14111domCylinder15registerElementER3DAE
libcollada-dom2.5-dp.so.0:_ZN13ColladaDOM14111domCylinder6createER3DAE
libcollada-dom2.5-dp.so.0:_ZN13ColladaDOM14111domCylinder9domHeight15registerElementER3DAE
libcollada-dom2.5-dp.so.0:_ZN13ColladaDOM14111domCylinder9domHeight6createER3DAE
libcollada-dom2.5-dp.so.0:_ZN13ColladaDOM14111domCylinder9domRadius15registerElementER3DAE
libcollada-dom2.5-dp.so.0:_ZN13ColladaDOM14111domCylinder9domRadius6createER3DAE
libcollada-dom2.5-dp.so.0:_ZN13ColladaDOM14111domGeometry15registerElementER3DAE
libcollada-dom2.5-dp.so.0:_ZN13ColladaDOM14111domGeometry6createER3DAE
libcollada-dom2.5-dp.so.0:_ZN13ColladaDOM14111domMaterial15registerElementER3DAE
libcollada-dom2.5-dp.so.0:_ZN13ColladaDOM14111domMaterial6createER3DAE
libcollada-dom2.5-dp.so.0:_ZN13ColladaDOM14111domPolygons15registerElementER3DAE
libcollada-dom2.5-dp.so.0:_ZN13ColladaDOM14111domPolygons5domPh15registerElementER3DAE
libcollada-dom2.5-dp.so.0:_ZN13ColladaDOM14111domPolygons5domPh4domH15registerElementER3DAE
libcollada-dom2.5-dp.so.0:_ZN13ColladaDOM14111domPolygons5domPh4domH6createER3DAE
libcollada-dom2.5-dp.so.0:_ZN13ColladaDOM14111domPolygons5domPh6createER3DAE
libcollada-dom2.5-dp.so.0:_ZN13ColladaDOM14111domPolygons6createER3DAE
libcollada-dom2.5-dp.so.0:_ZN13ColladaDOM14111domPolylist15registerElementER3DAE
libcollada-dom2.5-dp.so.0:_ZN13ColladaDOM14111domPolylist6createER3DAE
libcollada-dom2.5-dp.so.0:_ZN13ColladaDOM14111domPolylist9domVcount15registerElementER3DAE
libcollada-dom2.5-dp.so.0:_ZN13ColladaDOM14111domPolylist9domVcount6createER3DAE
libcollada-dom2.5-dp.so.0:_ZN13ColladaDOM14111domVertices15registerElementER3DAE
libcollada-dom2.5-dp.so.0:_ZN13ColladaDOM14111domVertices6createER3DAE
libcollada-dom2.5-dp.so.0:_ZN13ColladaDOM14112domAnimation15registerElementER3DAE
libcollada-dom2.5-dp.so.0:_ZN13ColladaDOM14112domAnimation6createER3DAE
libcollada-dom2.5-dp.so.0:_ZN13ColladaDOM14112domInt_array15registerElementER3DAE
libcollada-dom2.5-dp.so.0:_ZN13ColladaDOM14112domInt_array6createER3DAE
libcollada-dom2.5-dp.so.0:_ZN13ColladaDOM14112domTechnique15registerElementER3DAE
libcollada-dom2.5-dp.so.0:_ZN13ColladaDOM14112domTechnique6createER3DAE
libcollada-dom2.5-dp.so.0:_ZN13ColladaDOM14112domTranslate15registerElementER3DAE
libcollada-dom2.5-dp.so.0:_ZN13ColladaDOM14112domTranslate6createER3DAE
libcollada-dom2.5-dp.so.0:_ZN13ColladaDOM14112domTriangles15registerElementER3DAE
libcollada-dom2.5-dp.so.0:_ZN13ColladaDOM14112domTriangles6createER3DAE
libcollada-dom2.5-dp.so.0:_ZN13ColladaDOM14112domTristrips15registerElementER3DAE
libcollada-dom2.5-dp.so.0:_ZN13ColladaDOM14112domTristrips6createER3DAE
libcollada-dom2.5-dp.so.0:_ZN13ColladaDOM14113domBool_array15registerElementER3DAE
libcollada-dom2.5-dp.so.0:_ZN13ColladaDOM14113domBool_array6createER3DAE
libcollada-dom2.5-dp.so.0:_ZN13ColladaDOM14113domController15registerElementER3DAE
libcollada-dom2.5-dp.so.0:_ZN13ColladaDOM14113domController6createER3DAE
libcollada-dom2.5-dp.so.0:_ZN13ColladaDOM14113domInputLocal15registerElementER3DAE
libcollada-dom2.5-dp.so.0:_ZN13ColladaDOM14113domInputLocal6createER3DAE
libcollada-dom2.5-dp.so.0:_ZN13ColladaDOM14113domLinestrips15registerElementER3DAE
libcollada-dom2.5-dp.so.0:_ZN13ColladaDOM14113domLinestrips6createER3DAE
libcollada-dom2.5-dp.so.0:_ZN13ColladaDOM14113domName_array15registerElementER3DAE
libcollada-dom2.5-dp.so.0:_ZN13ColladaDOM14113domName_array6createER3DAE
libcollada-dom2.5-dp.so.0:_ZN13ColladaDOM14113domProfile_CG12domTechnique15registerElementER3DAE
libcollada-dom2.5-dp.so.0:_ZN13ColladaDOM14113domProfile_CG12domTechnique6createER3DAE
libcollada-dom2.5-dp.so.0:_ZN13ColladaDOM14113domProfile_CG12domTechnique7domPass15registerElementER3DAE
libcollada-dom2.5-dp.so.0:_ZN13ColladaDOM14113domProfile_CG12domTechnique7domPass6createER3DAE
libcollada-dom2.5-dp.so.0:_ZN13ColladaDOM14113domProfile_CG12domTechnique7domPass7domDraw15registerElementER3DAE
libcollada-dom2.5-dp.so.0:_ZN13ColladaDOM14113domProfile_CG12domTechnique7domPass7domDraw6createER3DAE
libcollada-dom2.5-dp.so.0:_ZN13ColladaDOM14113domProfile_CG12domTechnique7domPass9domShader15registerElementER3DAE
libcollada-dom2.5-dp.so.0:_ZN13ColladaDOM14113domProfile_CG12domTechnique7domPass9domShader18domCompiler_target15registerElementER3DAE
libcollada-dom2.5-dp.so.0:_ZN13ColladaDOM14113domProfile_CG12domTechnique7domPass9domShader18domCompiler_target6createER3DAE
libcollada-dom2.5-dp.so.0:_ZN13ColladaDOM14113domProfile_CG12domTechnique7domPass9domShader19domCompiler_options15registerElementER3DAE
libcollada-dom2.5-dp.so.0:_ZN13ColladaDOM14113domProfile_CG12domTechnique7domPass9domShader19domCompiler_options6createER3DAE
libcollada-dom2.5-dp.so.0:_ZN13ColladaDOM14113domProfile_CG12domTechnique7domPass9domShader6createER3DAE
libcollada-dom2.5-dp.so.0:_ZN13ColladaDOM14113domProfile_CG12domTechnique7domPass9domShader7domBind15registerElementER3DAE
libcollada-dom2.5-dp.so.0:_ZN13ColladaDOM14113domProfile_CG12domTechnique7domPass9domShader7domBind6createER3DAE
libcollada-dom2.5-dp.so.0:_ZN13ColladaDOM14113domProfile_CG12domTechnique7domPass9domShader7domBind8domParam15registerElementER3DAE
libcollada-dom2.5-dp.so.0:_ZN13ColladaDOM14113domProfile_CG12domTechnique7domPass9domShader7domBind8domParam6createER3DAE
libcollada-dom2.5-dp.so.0:_ZN13ColladaDOM14113domProfile_CG12domTechnique7domPass9domShader7domName15registerElementER3DAE
libcollada-dom2.5-dp.so.0:_ZN13ColladaDOM14113domProfile_CG12domTechnique7domPass9domShader7domName6createER3DAE
libcollada-dom2.5-dp.so.0:_ZN13ColladaDOM14113domProfile_CG15registerElementER3DAE
libcollada-dom2.5-dp.so.0:_ZN13ColladaDOM14113domProfile_CG6createER3DAE
libcollada-dom2.5-dp.so.0:_ZN13ColladaDOM14113domRigid_body15registerElementER3DAE
libcollada-dom2.5-dp.so.0:_ZN13ColladaDOM14113domRigid_body19domTechnique_common10domDynamic15registerElementER3DAE
libcollada-dom2.5-dp.so.0:_ZN13ColladaDOM14113domRigid_body19domTechnique_common10domDynamic6createER3DAE
libcollada-dom2.5-dp.so.0:_ZN13ColladaDOM14113domRigid_body19domTechnique_common13domMass_frame15registerElementER3DAE
libcollada-dom2.5-dp.so.0:_ZN13ColladaDOM14113domRigid_body19domTechnique_common13domMass_frame6createER3DAE
libcollada-dom2.5-dp.so.0:_ZN13ColladaDOM14113domRigid_body19domTechnique_common15registerElementER3DAE
libcollada-dom2.5-dp.so.0:_ZN13ColladaDOM14113domRigid_body19domTechnique_common6createER3DAE
libcollada-dom2.5-dp.so.0:_ZN13ColladaDOM14113domRigid_body19domTechnique_common8domShape15registerElementER3DAE
libcollada-dom2.5-dp.so.0:_ZN13ColladaDOM14113domRigid_body19domTechnique_common8domShape6createER3DAE
libcollada-dom2.5-dp.so.0:_ZN13ColladaDOM14113domRigid_body19domTechnique_common8domShape9domHollow15registerElementER3DAE
libcollada-dom2.5-dp.so.0:_ZN13ColladaDOM14113domRigid_body19domTechnique_common8domShape9domHollow6createER3DAE
libcollada-dom2.5-dp.so.0:_ZN13ColladaDOM14113domRigid_body6createER3DAE
libcollada-dom2.5-dp.so.0:_ZN13ColladaDOM14114COLLADA_TYPE_HE
libcollada-dom2.5-dp.so.0:_ZN13ColladaDOM14114COLLADA_TYPE_PE
libcollada-dom2.5-dp.so.0:_ZN13ColladaDOM14114COLLADA_TYPE_VE
libcollada-dom2.5-dp.so.0:_ZN13ColladaDOM14114domCg_newparam15registerElementER3DAE
libcollada-dom2.5-dp.so.0:_ZN13ColladaDOM14114domCg_newparam6createER3DAE
libcollada-dom2.5-dp.so.0:_ZN13ColladaDOM14114domCg_setparam15registerElementER3DAE
libcollada-dom2.5-dp.so.0:_ZN13ColladaDOM14114domCg_setparam6createER3DAE
libcollada-dom2.5-dp.so.0:_ZN13ColladaDOM14114domConvex_mesh15registerElementER3DAE
libcollada-dom2.5-dp.so.0:_ZN13ColladaDOM14114domConvex_mesh6createER3DAE
libcollada-dom2.5-dp.so.0:_ZN13ColladaDOM14114domFloat_array15registerElementER3DAE
libcollada-dom2.5-dp.so.0:_ZN13ColladaDOM14114domFloat_array6createER3DAE
libcollada-dom2.5-dp.so.0:_ZN13ColladaDOM14114domForce_field15registerElementER3DAE
libcollada-dom2.5-dp.so.0:_ZN13ColladaDOM14114domForce_field6createER3DAE
libcollada-dom2.5-dp.so.0:_ZN13ColladaDOM14114domIDREF_array15registerElementER3DAE
libcollada-dom2.5-dp.so.0:_ZN13ColladaDOM14114domIDREF_array6createER3DAE
libcollada-dom2.5-dp.so.0:_ZN13ColladaDOM14115COLLADA_TYPE_PHE
libcollada-dom2.5-dp.so.0:_ZN13ColladaDOM14115COLLADA_VERSIONE
libcollada-dom2.5-dp.so.0:_ZN13ColladaDOM14115domCg_sampler1D15registerElementER3DAE
libcollada-dom2.5-dp.so.0:_ZN13ColladaDOM14115domCg_sampler1D6createER3DAE
libcollada-dom2.5-dp.so.0:_ZN13ColladaDOM14115domCg_sampler2D15registerElementER3DAE
libcollada-dom2.5-dp.so.0:_ZN13ColladaDOM14115domCg_sampler2D6createER3DAE
libcollada-dom2.5-dp.so.0:_ZN13ColladaDOM14115domCg_sampler3D15registerElementER3DAE
libcollada-dom2.5-dp.so.0:_ZN13ColladaDOM14115domCg_sampler3D6createER3DAE
libcollada-dom2.5-dp.so.0:_ZN13ColladaDOM14115domGl_sampler1D15registerElementER3DAE
libcollada-dom2.5-dp.so.0:_ZN13ColladaDOM14115domGl_sampler1D6createER3DAE
libcollada-dom2.5-dp.so.0:_ZN13ColladaDOM14115domGl_sampler2D15registerElementER3DAE
libcollada-dom2.5-dp.so.0:_ZN13ColladaDOM14115domGl_sampler2D6createER3DAE
libcollada-dom2.5-dp.so.0:_ZN13ColladaDOM14115domGl_sampler3D15registerElementER3DAE
libcollada-dom2.5-dp.so.0:_ZN13ColladaDOM14115domGl_sampler3D6createER3DAE
libcollada-dom2.5-dp.so.0:_ZN13ColladaDOM14115domProfile_GLES12domTechnique11domSetparam15registerElementER3DAE
libcollada-dom2.5-dp.so.0:_ZN13ColladaDOM14115domProfile_GLES12domTechnique11domSetparam6createER3DAE
libcollada-dom2.5-dp.so.0:_ZN13ColladaDOM14115domProfile_GLES12domTechnique15registerElementER3DAE
libcollada-dom2.5-dp.so.0:_ZN13ColladaDOM14115domProfile_GLES12domTechnique6createER3DAE
libcollada-dom2.5-dp.so.0:_ZN13ColladaDOM14115domProfile_GLES12domTechnique7domPass14domColor_clear15registerElementER3DAE
libcollada-dom2.5-dp.so.0:_ZN13ColladaDOM14115domProfile_GLES12domTechnique7domPass14domColor_clear6createER3DAE
libcollada-dom2.5-dp.so.0:_ZN13ColladaDOM14115domProfile_GLES12domTechnique7domPass14domDepth_clear15registerElementER3DAE
libcollada-dom2.5-dp.so.0:_ZN13ColladaDOM14115domProfile_GLES12domTechnique7domPass14domDepth_clear6createER3DAE
libcollada-dom2.5-dp.so.0:_ZN13ColladaDOM14115domProfile_GLES12domTechnique7domPass15domColor_target15registerElementER3DAE
libcollada-dom2.5-dp.so.0:_ZN13ColladaDOM14115domProfile_GLES12domTechnique7domPass15domColor_target6createER3DAE
libcollada-dom2.5-dp.so.0:_ZN13ColladaDOM14115domProfile_GLES12domTechnique7domPass15domDepth_target15registerElementER3DAE
libcollada-dom2.5-dp.so.0:_ZN13ColladaDOM14115domProfile_GLES12domTechnique7domPass15domDepth_target6createER3DAE
libcollada-dom2.5-dp.so.0:_ZN13ColladaDOM14115domProfile_GLES12domTechnique7domPass15registerElementER3DAE
libcollada-dom2.5-dp.so.0:_ZN13ColladaDOM14115domProfile_GLES12domTechnique7domPass16domStencil_clear15registerElementER3DAE
libcollada-dom2.5-dp.so.0:_ZN13ColladaDOM14115domProfile_GLES12domTechnique7domPass16domStencil_clear6createER3DAE
libcollada-dom2.5-dp.so.0:_ZN13ColladaDOM14115domProfile_GLES12domTechnique7domPass17domStencil_target15registerElementER3DAE
libcollada-dom2.5-dp.so.0:_ZN13ColladaDOM14115domProfile_GLES12domTechnique7domPass17domStencil_target6createER3DAE
libcollada-dom2.5-dp.so.0:_ZN13ColladaDOM14115domProfile_GLES12domTechnique7domPass6createER3DAE
libcollada-dom2.5-dp.so.0:_ZN13ColladaDOM14115domProfile_GLES12domTechnique7domPass7domDraw15registerElementER3DAE
libcollada-dom2.5-dp.so.0:_ZN13ColladaDOM14115domProfile_GLES12domTechnique7domPass7domDraw6createER3DAE
libcollada-dom2.5-dp.so.0:_ZN13ColladaDOM14115domProfile_GLES15registerElementER3DAE
libcollada-dom2.5-dp.so.0:_ZN13ColladaDOM14115domProfile_GLES6createER3DAE
libcollada-dom2.5-dp.so.0:_ZN13ColladaDOM14115domProfile_GLSL12domTechnique15registerElementER3DAE
libcollada-dom2.5-dp.so.0:_ZN13ColladaDOM14115domProfile_GLSL12domTechnique6createER3DAE
libcollada-dom2.5-dp.so.0:_ZN13ColladaDOM14115domProfile_GLSL12domTechnique7domPass15registerElementER3DAE
libcollada-dom2.5-dp.so.0:_ZN13ColladaDOM14115domProfile_GLSL12domTechnique7domPass6createER3DAE
libcollada-dom2.5-dp.so.0:_ZN13ColladaDOM14115domProfile_GLSL12domTechnique7domPass7domDraw15registerElementER3DAE
libcollada-dom2.5-dp.so.0:_ZN13ColladaDOM14115domProfile_GLSL12domTechnique7domPass7domDraw6createER3DAE
libcollada-dom2.5-dp.so.0:_ZN13ColladaDOM14115domProfile_GLSL12domTechnique7domPass9domShader15registerElementER3DAE
libcollada-dom2.5-dp.so.0:_ZN13ColladaDOM14115domProfile_GLSL12domTechnique7domPass9domShader18domCompiler_target15registerElementER3DAE
libcollada-dom2.5-dp.so.0:_ZN13ColladaDOM14115domProfile_GLSL12domTechnique7domPass9domShader18domCompiler_target6createER3DAE
libcollada-dom2.5-dp.so.0:_ZN13ColladaDOM14115domProfile_GLSL12domTechnique7domPass9domShader19domCompiler_options15registerElementER3DAE
libcollada-dom2.5-dp.so.0:_ZN13ColladaDOM14115domProfile_GLSL12domTechnique7domPass9domShader19domCompiler_options6createER3DAE
libcollada-dom2.5-dp.so.0:_ZN13ColladaDOM14115domProfile_GLSL12domTechnique7domPass9domShader6createER3DAE
libcollada-dom2.5-dp.so.0:_ZN13ColladaDOM14115domProfile_GLSL12domTechnique7domPass9domShader7domBind15registerElementER3DAE
libcollada-dom2.5-dp.so.0:_ZN13ColladaDOM14115domProfile_GLSL12domTechnique7domPass9domShader7domBind6createER3DAE
libcollada-dom2.5-dp.so.0:_ZN13ColladaDOM14115domProfile_GLSL12domTechnique7domPass9domShader7domBind8domParam15registerElementER3DAE
libcollada-dom2.5-dp.so.0:_ZN13ColladaDOM14115domProfile_GLSL12domTechnique7domPass9domShader7domBind8domParam6createER3DAE
libcollada-dom2.5-dp.so.0:_ZN13ColladaDOM14115domProfile_GLSL12domTechnique7domPass9domShader7domName15registerElementER3DAE
libcollada-dom2.5-dp.so.0:_ZN13ColladaDOM14115domProfile_GLSL12domTechnique7domPass9domShader7domName6createER3DAE
libcollada-dom2.5-dp.so.0:_ZN13ColladaDOM14115domProfile_GLSL15registerElementER3DAE
libcollada-dom2.5-dp.so.0:_ZN13ColladaDOM14115domProfile_GLSL6createER3DAE
libcollada-dom2.5-dp.so.0:_ZN13ColladaDOM14115domVisual_scene15registerElementER3DAE
libcollada-dom2.5-dp.so.0:_ZN13ColladaDOM14115domVisual_scene17domEvaluate_scene15registerElementER3DAE
libcollada-dom2.5-dp.so.0:_ZN13ColladaDOM14115domVisual_scene17domEvaluate_scene6createER3DAE
libcollada-dom2.5-dp.so.0:_ZN13ColladaDOM14115domVisual_scene17domEvaluate_scene9domRender15registerElementER3DAE
libcollada-dom2.5-dp.so.0:_ZN13ColladaDOM14115domVisual_scene17domEvaluate_scene9domRender6createER3DAE
libcollada-dom2.5-dp.so.0:_ZN13ColladaDOM14115domVisual_scene17domEvaluate_scene9domRender8domLayer15registerElementER3DAE
libcollada-dom2.5-dp.so.0:_ZN13ColladaDOM14115domVisual_scene17domEvaluate_scene9domRender8domLayer6createER3DAE
libcollada-dom2.5-dp.so.0:_ZN13ColladaDOM14115domVisual_scene6createER3DAE
libcollada-dom2.5-dp.so.0:_ZN13ColladaDOM14116COLLADA_TYPE_ALLE
libcollada-dom2.5-dp.so.0:_ZN13ColladaDOM14116COLLADA_TYPE_BOXE
libcollada-dom2.5-dp.so.0:_ZN13ColladaDOM14116COLLADA_TYPE_INTE
libcollada-dom2.5-dp.so.0:_ZN13ColladaDOM14116COLLADA_TYPE_REFE
libcollada-dom2.5-dp.so.0:_ZN13ColladaDOM14116COLLADA_TYPE_RGBE
libcollada-dom2.5-dp.so.0:_ZN13ColladaDOM14116COLLADA_TYPE_SRCE
libcollada-dom2.5-dp.so.0:_ZN13ColladaDOM14116colladaTypeCountEv
libcollada-dom2.5-dp.so.0:_ZN13ColladaDOM14116domBind_material15registerElementER3DAE
libcollada-dom2.5-dp.so.0:_ZN13ColladaDOM14116domBind_material19domTechnique_common15registerElementER3DAE
libcollada-dom2.5-dp.so.0:_ZN13ColladaDOM14116domBind_material19domTechnique_common6createER3DAE
libcollada-dom2.5-dp.so.0:_ZN13ColladaDOM14116domBind_material6createER3DAE
libcollada-dom2.5-dp.so.0:_ZN13ColladaDOM14116domCg_param_type10domBool1x115registerElementER3DAE
libcollada-dom2.5-dp.so.0:_ZN13ColladaDOM14116domCg_param_type10domBool1x16createER3DAE
libcollada-dom2.5-dp.so.0:_ZN13ColladaDOM14116domCg_param_type10domBool1x215registerElementER3DAE
libcollada-dom2.5-dp.so.0:_ZN13ColladaDOM14116domCg_param_type10domBool1x26createER3DAE
libcollada-dom2.5-dp.so.0:_ZN13ColladaDOM14116domCg_param_type10domBool1x315registerElementER3DAE
libcollada-dom2.5-dp.so.0:_ZN13ColladaDOM14116domCg_param_type10domBool1x36createER3DAE
libcollada-dom2.5-dp.so.0:_ZN13ColladaDOM14116domCg_param_type10domBool1x415registerElementER3DAE
libcollada-dom2.5-dp.so.0:_ZN13ColladaDOM14116domCg_param_type10domBool1x46createER3DAE
libcollada-dom2.5-dp.so.0:_ZN13ColladaDOM14116domCg_param_type10domBool2x115registerElementER3DAE
libcollada-dom2.5-dp.so.0:_ZN13ColladaDOM14116domCg_param_type10domBool2x16createER3DAE
libcollada-dom2.5-dp.so.0:_ZN13ColladaDOM14116domCg_param_type10domBool2x215registerElementER3DAE
libcollada-dom2.5-dp.so.0:_ZN13ColladaDOM14116domCg_param_type10domBool2x26createER3DAE
libcollada-dom2.5-dp.so.0:_ZN13ColladaDOM14116domCg_param_type10domBool2x315registerElementER3DAE
libcollada-dom2.5-dp.so.0:_ZN13ColladaDOM14116domCg_param_type10domBool2x36createER3DAE
libcollada-dom2.5-dp.so.0:_ZN13ColladaDOM14116domCg_param_type10domBool2x415registerElementER3DAE
libcollada-dom2.5-dp.so.0:_ZN13ColladaDOM14116domCg_param_type10domBool2x46createER3DAE
libcollada-dom2.5-dp.so.0:_ZN13ColladaDOM14116domCg_param_type10domBool3x115registerElementER3DAE
libcollada-dom2.5-dp.so.0:_ZN13ColladaDOM14116domCg_param_type10domBool3x16createER3DAE
libcollada-dom2.5-dp.so.0:_ZN13ColladaDOM14116domCg_param_type10domBool3x215registerElementER3DAE
libcollada-dom2.5-dp.so.0:_ZN13ColladaDOM14116domCg_param_type10domBool3x26createER3DAE
libcollada-dom2.5-dp.so.0:_ZN13ColladaDOM14116domCg_param_type10domBool3x315registerElementER3DAE
libcollada-dom2.5-dp.so.0:_ZN13ColladaDOM14116domCg_param_type10domBool3x36createER3DAE
libcollada-dom2.5-dp.so.0:_ZN13ColladaDOM14116domCg_param_type10domBool3x415registerElementER3DAE
libcollada-dom2.5-dp.so.0:_ZN13ColladaDOM14116domCg_param_type10domBool3x46createER3DAE
libcollada-dom2.5-dp.so.0:_ZN13ColladaDOM14116domCg_param_type10domBool4x115registerElementER3DAE
libcollada-dom2.5-dp.so.0:_ZN13ColladaDOM14116domCg_param_type10domBool4x16createER3DAE
libcollada-dom2.5-dp.so.0:_ZN13ColladaDOM14116domCg_param_type10domBool4x215registerElementER3DAE
libcollada-dom2.5-dp.so.0:_ZN13ColladaDOM14116domCg_param_type10domBool4x26createER3DAE
libcollada-dom2.5-dp.so.0:_ZN13ColladaDOM14116domCg_param_type10domBool4x315registerElementER3DAE
libcollada-dom2.5-dp.so.0:_ZN13ColladaDOM14116domCg_param_type10domBool4x36createER3DAE
libcollada-dom2.5-dp.so.0:_ZN13ColladaDOM14116domCg_param_type10domBool4x415registerElementER3DAE
libcollada-dom2.5-dp.so.0:_ZN13ColladaDOM14116domCg_param_type10domBool4x46createER3DAE
libcollada-dom2.5-dp.so.0:_ZN13ColladaDOM14116domCg_param_type10domHalf1x115registerElementER3DAE
libcollada-dom2.5-dp.so.0:_ZN13ColladaDOM14116domCg_param_type10domHalf1x16createER3DAE
libcollada-dom2.5-dp.so.0:_ZN13ColladaDOM14116domCg_param_type10domHalf1x215registerElementER3DAE
libcollada-dom2.5-dp.so.0:_ZN13ColladaDOM14116domCg_param_type10domHalf1x26createER3DAE
libcollada-dom2.5-dp.so.0:_ZN13ColladaDOM14116domCg_param_type10domHalf1x315registerElementER3DAE
libcollada-dom2.5-dp.so.0:_ZN13ColladaDOM14116domCg_param_type10domHalf1x36createER3DAE
libcollada-dom2.5-dp.so.0:_ZN13ColladaDOM14116domCg_param_type10domHalf1x415registerElementER3DAE
libcollada-dom2.5-dp.so.0:_ZN13ColladaDOM14116domCg_param_type10domHalf1x46createER3DAE
libcollada-dom2.5-dp.so.0:_ZN13ColladaDOM14116domCg_param_type10domHalf2x115registerElementER3DAE
libcollada-dom2.5-dp.so.0:_ZN13ColladaDOM14116domCg_param_type10domHalf2x16createER3DAE
libcollada-dom2.5-dp.so.0:_ZN13ColladaDOM14116domCg_param_type10domHalf2x215registerElementER3DAE
libcollada-dom2.5-dp.so.0:_ZN13ColladaDOM14116domCg_param_type10domHalf2x26createER3DAE
libcollada-dom2.5-dp.so.0:_ZN13ColladaDOM14116domCg_param_type10domHalf2x315registerElementER3DAE
libcollada-dom2.5-dp.so.0:_ZN13ColladaDOM14116domCg_param_type10domHalf2x36createER3DAE
libcollada-dom2.5-dp.so.0:_ZN13ColladaDOM14116domCg_param_type10domHalf2x415registerElementER3DAE
libcollada-dom2.5-dp.so.0:_ZN13ColladaDOM14116domCg_param_type10domHalf2x46createER3DAE
libcollada-dom2.5-dp.so.0:_ZN13ColladaDOM14116domCg_param_type10domHalf3x115registerElementER3DAE
libcollada-dom2.5-dp.so.0:_ZN13ColladaDOM14116domCg_param_type10domHalf3x16createER3DAE
libcollada-dom2.5-dp.so.0:_ZN13ColladaDOM14116domCg_param_type10domHalf3x215registerElementER3DAE
libcollada-dom2.5-dp.so.0:_ZN13ColladaDOM14116domCg_param_type10domHalf3x26createER3DAE
libcollada-dom2.5-dp.so.0:_ZN13ColladaDOM14116domCg_param_type10domHalf3x315registerElementER3DAE
libcollada-dom2.5-dp.so.0:_ZN13ColladaDOM14116domCg_param_type10domHalf3x36createER3DAE
libcollada-dom2.5-dp.so.0:_ZN13ColladaDOM14116domCg_param_type10domHalf3x415registerElementER3DAE
libcollada-dom2.5-dp.so.0:_ZN13ColladaDOM14116domCg_param_type10domHalf3x46createER3DAE
libcollada-dom2.5-dp.so.0:_ZN13ColladaDOM14116domCg_param_type10domHalf4x115registerElementER3DAE
libcollada-dom2.5-dp.so.0:_ZN13ColladaDOM14116domCg_param_type10domHalf4x16createER3DAE
libcollada-dom2.5-dp.so.0:_ZN13ColladaDOM14116domCg_param_type10domHalf4x215registerElementER3DAE
libcollada-dom2.5-dp.so.0:_ZN13ColladaDOM14116domCg_param_type10domHalf4x26createER3DAE
libcollada-dom2.5-dp.so.0:_ZN13ColladaDOM14116domCg_param_type10domHalf4x315registerElementER3DAE
libcollada-dom2.5-dp.so.0:_ZN13ColladaDOM14116domCg_param_type10domHalf4x36createER3DAE
libcollada-dom2.5-dp.so.0:_ZN13ColladaDOM14116domCg_param_type10domHalf4x415registerElementER3DAE
libcollada-dom2.5-dp.so.0:_ZN13ColladaDOM14116domCg_param_type10domHalf4x46createER3DAE
libcollada-dom2.5-dp.so.0:_ZN13ColladaDOM14116domCg_param_type11domFixed1x115registerElementER3DAE
libcollada-dom2.5-dp.so.0:_ZN13ColladaDOM14116domCg_param_type11domFixed1x16createER3DAE
libcollada-dom2.5-dp.so.0:_ZN13ColladaDOM14116domCg_param_type11domFixed1x215registerElementER3DAE
libcollada-dom2.5-dp.so.0:_ZN13ColladaDOM14116domCg_param_type11domFixed1x26createER3DAE
libcollada-dom2.5-dp.so.0:_ZN13ColladaDOM14116domCg_param_type11domFixed1x315registerElementER3DAE
libcollada-dom2.5-dp.so.0:_ZN13ColladaDOM14116domCg_param_type11domFixed1x36createER3DAE
libcollada-dom2.5-dp.so.0:_ZN13ColladaDOM14116domCg_param_type11domFixed1x415registerElementER3DAE
libcollada-dom2.5-dp.so.0:_ZN13ColladaDOM14116domCg_param_type11domFixed1x46createER3DAE
libcollada-dom2.5-dp.so.0:_ZN13ColladaDOM14116domCg_param_type11domFixed2x115registerElementER3DAE
libcollada-dom2.5-dp.so.0:_ZN13ColladaDOM14116domCg_param_type11domFixed2x16createER3DAE
libcollada-dom2.5-dp.so.0:_ZN13ColladaDOM14116domCg_param_type11domFixed2x215registerElementER3DAE
libcollada-dom2.5-dp.so.0:_ZN13ColladaDOM14116domCg_param_type11domFixed2x26createER3DAE
libcollada-dom2.5-dp.so.0:_ZN13ColladaDOM14116domCg_param_type11domFixed2x315registerElementER3DAE
libcollada-dom2.5-dp.so.0:_ZN13ColladaDOM14116domCg_param_type11domFixed2x36createER3DAE
libcollada-dom2.5-dp.so.0:_ZN13ColladaDOM14116domCg_param_type11domFixed2x415registerElementER3DAE
libcollada-dom2.5-dp.so.0:_ZN13ColladaDOM14116domCg_param_type11domFixed2x46createER3DAE
libcollada-dom2.5-dp.so.0:_ZN13ColladaDOM14116domCg_param_type11domFixed3x115registerElementER3DAE
libcollada-dom2.5-dp.so.0:_ZN13ColladaDOM14116domCg_param_type11domFixed3x16createER3DAE
libcollada-dom2.5-dp.so.0:_ZN13ColladaDOM14116domCg_param_type11domFixed3x215registerElementER3DAE
libcollada-dom2.5-dp.so.0:_ZN13ColladaDOM14116domCg_param_type11domFixed3x26createER3DAE
libcollada-dom2.5-dp.so.0:_ZN13ColladaDOM14116domCg_param_type11domFixed3x315registerElementER3DAE
libcollada-dom2.5-dp.so.0:_ZN13ColladaDOM14116domCg_param_type11domFixed3x36createER3DAE
libcollada-dom2.5-dp.so.0:_ZN13ColladaDOM14116domCg_param_type11domFixed3x415registerElementER3DAE
libcollada-dom2.5-dp.so.0:_ZN13ColladaDOM14116domCg_param_type11domFixed3x46createER3DAE
libcollada-dom2.5-dp.so.0:_ZN13ColladaDOM14116domCg_param_type11domFixed4x115registerElementER3DAE
libcollada-dom2.5-dp.so.0:_ZN13ColladaDOM14116domCg_param_type11domFixed4x16createER3DAE
libcollada-dom2.5-dp.so.0:_ZN13ColladaDOM14116domCg_param_type11domFixed4x215registerElementER3DAE
libcollada-dom2.5-dp.so.0:_ZN13ColladaDOM14116domCg_param_type11domFixed4x26createER3DAE
libcollada-dom2.5-dp.so.0:_ZN13ColladaDOM14116domCg_param_type11domFixed4x315registerElementER3DAE
libcollada-dom2.5-dp.so.0:_ZN13ColladaDOM14116domCg_param_type11domFixed4x36createER3DAE
libcollada-dom2.5-dp.so.0:_ZN13ColladaDOM14116domCg_param_type11domFixed4x415registerElementER3DAE
libcollada-dom2.5-dp.so.0:_ZN13ColladaDOM14116domCg_param_type11domFixed4x46createER3DAE
libcollada-dom2.5-dp.so.0:_ZN13ColladaDOM14116domCg_param_type11domFloat1x115registerElementER3DAE
libcollada-dom2.5-dp.so.0:_ZN13ColladaDOM14116domCg_param_type11domFloat1x16createER3DAE
libcollada-dom2.5-dp.so.0:_ZN13ColladaDOM14116domCg_param_type11domFloat1x215registerElementER3DAE
libcollada-dom2.5-dp.so.0:_ZN13ColladaDOM14116domCg_param_type11domFloat1x26createER3DAE
libcollada-dom2.5-dp.so.0:_ZN13ColladaDOM14116domCg_param_type11domFloat1x315registerElementER3DAE
libcollada-dom2.5-dp.so.0:_ZN13ColladaDOM14116domCg_param_type11domFloat1x36createER3DAE
libcollada-dom2.5-dp.so.0:_ZN13ColladaDOM14116domCg_param_type11domFloat1x415registerElementER3DAE
libcollada-dom2.5-dp.so.0:_ZN13ColladaDOM14116domCg_param_type11domFloat1x46createER3DAE
libcollada-dom2.5-dp.so.0:_ZN13ColladaDOM14116domCg_param_type11domFloat2x115registerElementER3DAE
libcollada-dom2.5-dp.so.0:_ZN13ColladaDOM14116domCg_param_type11domFloat2x16createER3DAE
libcollada-dom2.5-dp.so.0:_ZN13ColladaDOM14116domCg_param_type11domFloat2x215registerElementER3DAE
libcollada-dom2.5-dp.so.0:_ZN13ColladaDOM14116domCg_param_type11domFloat2x26createER3DAE
libcollada-dom2.5-dp.so.0:_ZN13ColladaDOM14116domCg_param_type11domFloat2x315registerElementER3DAE
libcollada-dom2.5-dp.so.0:_ZN13ColladaDOM14116domCg_param_type11domFloat2x36createER3DAE
libcollada-dom2.5-dp.so.0:_ZN13ColladaDOM14116domCg_param_type11domFloat2x415registerElementER3DAE
libcollada-dom2.5-dp.so.0:_ZN13ColladaDOM14116domCg_param_type11domFloat2x46createER3DAE
libcollada-dom2.5-dp.so.0:_ZN13ColladaDOM14116domCg_param_type11domFloat3x115registerElementER3DAE
libcollada-dom2.5-dp.so.0:_ZN13ColladaDOM14116domCg_param_type11domFloat3x16createER3DAE
libcollada-dom2.5-dp.so.0:_ZN13ColladaDOM14116domCg_param_type11domFloat3x215registerElementER3DAE
libcollada-dom2.5-dp.so.0:_ZN13ColladaDOM14116domCg_param_type11domFloat3x26createER3DAE
libcollada-dom2.5-dp.so.0:_ZN13ColladaDOM14116domCg_param_type11domFloat3x315registerElementER3DAE
libcollada-dom2.5-dp.so.0:_ZN13ColladaDOM14116domCg_param_type11domFloat3x36createER3DAE
libcollada-dom2.5-dp.so.0:_ZN13ColladaDOM14116domCg_param_type11domFloat3x415registerElementER3DAE
libcollada-dom2.5-dp.so.0:_ZN13ColladaDOM14116domCg_param_type11domFloat3x46createER3DAE
libcollada-dom2.5-dp.so.0:_ZN13ColladaDOM14116domCg_param_type11domFloat4x115registerElementER3DAE
libcollada-dom2.5-dp.so.0:_ZN13ColladaDOM14116domCg_param_type11domFloat4x16createER3DAE
libcollada-dom2.5-dp.so.0:_ZN13ColladaDOM14116domCg_param_type11domFloat4x215registerElementER3DAE
libcollada-dom2.5-dp.so.0:_ZN13ColladaDOM14116domCg_param_type11domFloat4x26createER3DAE
libcollada-dom2.5-dp.so.0:_ZN13ColladaDOM14116domCg_param_type11domFloat4x315registerElementER3DAE
libcollada-dom2.5-dp.so.0:_ZN13ColladaDOM14116domCg_param_type11domFloat4x36createER3DAE
libcollada-dom2.5-dp.so.0:_ZN13ColladaDOM14116domCg_param_type11domFloat4x415registerElementER3DAE
libcollada-dom2.5-dp.so.0:_ZN13ColladaDOM14116domCg_param_type11domFloat4x46createER3DAE
libcollada-dom2.5-dp.so.0:_ZN13ColladaDOM14116domCg_param_type15registerElementER3DAE
libcollada-dom2.5-dp.so.0:_ZN13ColladaDOM14116domCg_param_type6createER3DAE
libcollada-dom2.5-dp.so.0:_ZN13ColladaDOM14116domCg_param_type6domInt15registerElementER3DAE
libcollada-dom2.5-dp.so.0:_ZN13ColladaDOM14116domCg_param_type6domInt6createER3DAE
libcollada-dom2.5-dp.so.0:_ZN13ColladaDOM14116domCg_param_type7domBool15registerElementER3DAE
libcollada-dom2.5-dp.so.0:_ZN13ColladaDOM14116domCg_param_type7domBool6createER3DAE
libcollada-dom2.5-dp.so.0:_ZN13ColladaDOM14116domCg_param_type7domEnum15registerElementER3DAE
libcollada-dom2.5-dp.so.0:_ZN13ColladaDOM14116domCg_param_type7domEnum6createER3DAE
libcollada-dom2.5-dp.so.0:_ZN13ColladaDOM14116domCg_param_type7domHalf15registerElementER3DAE
libcollada-dom2.5-dp.so.0:_ZN13ColladaDOM14116domCg_param_type7domHalf6createER3DAE
libcollada-dom2.5-dp.so.0:_ZN13ColladaDOM14116domCg_param_type7domInt115registerElementER3DAE
libcollada-dom2.5-dp.so.0:_ZN13ColladaDOM14116domCg_param_type7domInt16createER3DAE
libcollada-dom2.5-dp.so.0:_ZN13ColladaDOM14116domCg_param_type7domInt215registerElementER3DAE
libcollada-dom2.5-dp.so.0:_ZN13ColladaDOM14116domCg_param_type7domInt26createER3DAE
libcollada-dom2.5-dp.so.0:_ZN13ColladaDOM14116domCg_param_type7domInt315registerElementER3DAE
libcollada-dom2.5-dp.so.0:_ZN13ColladaDOM14116domCg_param_type7domInt36createER3DAE
libcollada-dom2.5-dp.so.0:_ZN13ColladaDOM14116domCg_param_type7domInt415registerElementER3DAE
libcollada-dom2.5-dp.so.0:_ZN13ColladaDOM14116domCg_param_type7domInt46createER3DAE
libcollada-dom2.5-dp.so.0:_ZN13ColladaDOM14116domCg_param_type8domBool115registerElementER3DAE
libcollada-dom2.5-dp.so.0:_ZN13ColladaDOM14116domCg_param_type8domBool16createER3DAE
libcollada-dom2.5-dp.so.0:_ZN13ColladaDOM14116domCg_param_type8domBool215registerElementER3DAE
libcollada-dom2.5-dp.so.0:_ZN13ColladaDOM14116domCg_param_type8domBool26createER3DAE
libcollada-dom2.5-dp.so.0:_ZN13ColladaDOM14116domCg_param_type8domBool315registerElementER3DAE
libcollada-dom2.5-dp.so.0:_ZN13ColladaDOM14116domCg_param_type8domBool36createER3DAE
libcollada-dom2.5-dp.so.0:_ZN13ColladaDOM14116domCg_param_type8domBool415registerElementER3DAE
libcollada-dom2.5-dp.so.0:_ZN13ColladaDOM14116domCg_param_type8domBool46createER3DAE
libcollada-dom2.5-dp.so.0:_ZN13ColladaDOM14116domCg_param_type8domFixed15registerElementER3DAE
libcollada-dom2.5-dp.so.0:_ZN13ColladaDOM14116domCg_param_type8domFixed6createER3DAE
libcollada-dom2.5-dp.so.0:_ZN13ColladaDOM14116domCg_param_type8domFloat15registerElementER3DAE
libcollada-dom2.5-dp.so.0:_ZN13ColladaDOM14116domCg_param_type8domFloat6createER3DAE
libcollada-dom2.5-dp.so.0:_ZN13ColladaDOM14116domCg_param_type8domHalf115registerElementER3DAE
libcollada-dom2.5-dp.so.0:_ZN13ColladaDOM14116domCg_param_type8domHalf16createER3DAE
libcollada-dom2.5-dp.so.0:_ZN13ColladaDOM14116domCg_param_type8domHalf215registerElementER3DAE
libcollada-dom2.5-dp.so.0:_ZN13ColladaDOM14116domCg_param_type8domHalf26createER3DAE
libcollada-dom2.5-dp.so.0:_ZN13ColladaDOM14116domCg_param_type8domHalf315registerElementER3DAE
libcollada-dom2.5-dp.so.0:_ZN13ColladaDOM14116domCg_param_type8domHalf36createER3DAE
libcollada-dom2.5-dp.so.0:_ZN13ColladaDOM14116domCg_param_type8domHalf415registerElementER3DAE
libcollada-dom2.5-dp.so.0:_ZN13ColladaDOM14116domCg_param_type8domHalf46createER3DAE
libcollada-dom2.5-dp.so.0:_ZN13ColladaDOM14116domCg_param_type9domFixed115registerElementER3DAE
libcollada-dom2.5-dp.so.0:_ZN13ColladaDOM14116domCg_param_type9domFixed16createER3DAE
libcollada-dom2.5-dp.so.0:_ZN13ColladaDOM14116domCg_param_type9domFixed215registerElementER3DAE
libcollada-dom2.5-dp.so.0:_ZN13ColladaDOM14116domCg_param_type9domFixed26createER3DAE
libcollada-dom2.5-dp.so.0:_ZN13ColladaDOM14116domCg_param_type9domFixed315registerElementER3DAE
libcollada-dom2.5-dp.so.0:_ZN13ColladaDOM14116domCg_param_type9domFixed36createER3DAE
libcollada-dom2.5-dp.so.0:_ZN13ColladaDOM14116domCg_param_type9domFixed415registerElementER3DAE
libcollada-dom2.5-dp.so.0:_ZN13ColladaDOM14116domCg_param_type9domFixed46createER3DAE
libcollada-dom2.5-dp.so.0:_ZN13ColladaDOM14116domCg_param_type9domFloat115registerElementER3DAE
libcollada-dom2.5-dp.so.0:_ZN13ColladaDOM14116domCg_param_type9domFloat16createER3DAE
libcollada-dom2.5-dp.so.0:_ZN13ColladaDOM14116domCg_param_type9domFloat215registerElementER3DAE
libcollada-dom2.5-dp.so.0:_ZN13ColladaDOM14116domCg_param_type9domFloat26createER3DAE
libcollada-dom2.5-dp.so.0:_ZN13ColladaDOM14116domCg_param_type9domFloat315registerElementER3DAE
libcollada-dom2.5-dp.so.0:_ZN13ColladaDOM14116domCg_param_type9domFloat36createER3DAE
libcollada-dom2.5-dp.so.0:_ZN13ColladaDOM14116domCg_param_type9domFloat415registerElementER3DAE
libcollada-dom2.5-dp.so.0:_ZN13ColladaDOM14116domCg_param_type9domFloat46createER3DAE
libcollada-dom2.5-dp.so.0:_ZN13ColladaDOM14116domCg_param_type9domInt1x115registerElementER3DAE
libcollada-dom2.5-dp.so.0:_ZN13ColladaDOM14116domCg_param_type9domInt1x16createER3DAE
libcollada-dom2.5-dp.so.0:_ZN13ColladaDOM14116domCg_param_type9domInt1x215registerElementER3DAE
libcollada-dom2.5-dp.so.0:_ZN13ColladaDOM14116domCg_param_type9domInt1x26createER3DAE
libcollada-dom2.5-dp.so.0:_ZN13ColladaDOM14116domCg_param_type9domInt1x315registerElementER3DAE
libcollada-dom2.5-dp.so.0:_ZN13ColladaDOM14116domCg_param_type9domInt1x36createER3DAE
libcollada-dom2.5-dp.so.0:_ZN13ColladaDOM14116domCg_param_type9domInt1x415registerElementER3DAE
libcollada-dom2.5-dp.so.0:_ZN13ColladaDOM14116domCg_param_type9domInt1x46createER3DAE
libcollada-dom2.5-dp.so.0:_ZN13ColladaDOM14116domCg_param_type9domInt2x115registerElementER3DAE
libcollada-dom2.5-dp.so.0:_ZN13ColladaDOM14116domCg_param_type9domInt2x16createER3DAE
libcollada-dom2.5-dp.so.0:_ZN13ColladaDOM14116domCg_param_type9domInt2x215registerElementER3DAE
libcollada-dom2.5-dp.so.0:_ZN13ColladaDOM14116domCg_param_type9domInt2x26createER3DAE
libcollada-dom2.5-dp.so.0:_ZN13ColladaDOM14116domCg_param_type9domInt2x315registerElementER3DAE
libcollada-dom2.5-dp.so.0:_ZN13ColladaDOM14116domCg_param_type9domInt2x36createER3DAE
libcollada-dom2.5-dp.so.0:_ZN13ColladaDOM14116domCg_param_type9domInt2x415registerElementER3DAE
libcollada-dom2.5-dp.so.0:_ZN13ColladaDOM14116domCg_param_type9domInt2x46createER3DAE
libcollada-dom2.5-dp.so.0:_ZN13ColladaDOM14116domCg_param_type9domInt3x115registerElementER3DAE
libcollada-dom2.5-dp.so.0:_ZN13ColladaDOM14116domCg_param_type9domInt3x16createER3DAE
libcollada-dom2.5-dp.so.0:_ZN13ColladaDOM14116domCg_param_type9domInt3x215registerElementER3DAE
libcollada-dom2.5-dp.so.0:_ZN13ColladaDOM14116domCg_param_type9domInt3x26createER3DAE
libcollada-dom2.5-dp.so.0:_ZN13ColladaDOM14116domCg_param_type9domInt3x315registerElementER3DAE
libcollada-dom2.5-dp.so.0:_ZN13ColladaDOM14116domCg_param_type9domInt3x36createER3DAE
libcollada-dom2.5-dp.so.0:_ZN13ColladaDOM14116domCg_param_type9domInt3x415registerElementER3DAE
libcollada-dom2.5-dp.so.0:_ZN13ColladaDOM14116domCg_param_type9domInt3x46createER3DAE
libcollada-dom2.5-dp.so.0:_ZN13ColladaDOM14116domCg_param_type9domInt4x115registerElementER3DAE
libcollada-dom2.5-dp.so.0:_ZN13ColladaDOM14116domCg_param_type9domInt4x16createER3DAE
libcollada-dom2.5-dp.so.0:_ZN13ColladaDOM14116domCg_param_type9domInt4x215registerElementER3DAE
libcollada-dom2.5-dp.so.0:_ZN13ColladaDOM14116domCg_param_type9domInt4x26createER3DAE
libcollada-dom2.5-dp.so.0:_ZN13ColladaDOM14116domCg_param_type9domInt4x315registerElementER3DAE
libcollada-dom2.5-dp.so.0:_ZN13ColladaDOM14116domCg_param_type9domInt4x36createER3DAE
libcollada-dom2.5-dp.so.0:_ZN13ColladaDOM14116domCg_param_type9domInt4x415registerElementER3DAE
libcollada-dom2.5-dp.so.0:_ZN13ColladaDOM14116domCg_param_type9domInt4x46createER3DAE
libcollada-dom2.5-dp.so.0:_ZN13ColladaDOM14116domCg_param_type9domString15registerElementER3DAE
libcollada-dom2.5-dp.so.0:_ZN13ColladaDOM14116domCg_param_type9domString6createER3DAE
libcollada-dom2.5-dp.so.0:_ZN13ColladaDOM14116domGles_newparam15registerElementER3DAE
libcollada-dom2.5-dp.so.0:_ZN13ColladaDOM14116domGles_newparam6createER3DAE
libcollada-dom2.5-dp.so.0:_ZN13ColladaDOM14116domGlsl_newparam15registerElementER3DAE
libcollada-dom2.5-dp.so.0:_ZN13ColladaDOM14116domGlsl_newparam6createER3DAE
libcollada-dom2.5-dp.so.0:_ZN13ColladaDOM14116domGlsl_setparam15registerElementER3DAE
libcollada-dom2.5-dp.so.0:_ZN13ColladaDOM14116domGlsl_setparam6createER3DAE
libcollada-dom2.5-dp.so.0:_ZN13ColladaDOM14116domInstance_node15registerElementER3DAE
libcollada-dom2.5-dp.so.0:_ZN13ColladaDOM14116domInstance_node6createER3DAE
libcollada-dom2.5-dp.so.0:_ZN13ColladaDOM14116domLibrary_nodes15registerElementER3DAE
libcollada-dom2.5-dp.so.0:_ZN13ColladaDOM14116domLibrary_nodes6createER3DAE
libcollada-dom2.5-dp.so.0:_ZN13ColladaDOM14116domPhysics_model15registerElementER3DAE
libcollada-dom2.5-dp.so.0:_ZN13ColladaDOM14116domPhysics_model6createER3DAE
libcollada-dom2.5-dp.so.0:_ZN13ColladaDOM14116domPhysics_scene15registerElementER3DAE
libcollada-dom2.5-dp.so.0:_ZN13ColladaDOM14116domPhysics_scene19domTechnique_common15registerElementER3DAE
libcollada-dom2.5-dp.so.0:_ZN13ColladaDOM14116domPhysics_scene19domTechnique_common6createER3DAE
libcollada-dom2.5-dp.so.0:_ZN13ColladaDOM14116domPhysics_scene6createER3DAE
libcollada-dom2.5-dp.so.0:_ZN13ColladaDOM14116registerDomTypesER3DAE
libcollada-dom2.5-dp.so.0:_ZN13ColladaDOM14117COLLADA_ELEMENT_HE
libcollada-dom2.5-dp.so.0:_ZN13ColladaDOM14117COLLADA_ELEMENT_PE
libcollada-dom2.5-dp.so.0:_ZN13ColladaDOM14117COLLADA_ELEMENT_VE
libcollada-dom2.5-dp.so.0:_ZN13ColladaDOM14117COLLADA_NAMESPACEE
libcollada-dom2.5-dp.so.0:_ZN13ColladaDOM14117COLLADA_TYPE_BACKE
libcollada-dom2.5-dp.so.0:_ZN13ColladaDOM14117COLLADA_TYPE_BINDE
libcollada-dom2.5-dp.so.0:_ZN13ColladaDOM14117COLLADA_TYPE_BOOLE
libcollada-dom2.5-dp.so.0:_ZN13ColladaDOM14117COLLADA_TYPE_DATAE
libcollada-dom2.5-dp.so.0:_ZN13ColladaDOM14117COLLADA_TYPE_DESTE
libcollada-dom2.5-dp.so.0:_ZN13ColladaDOM14117COLLADA_TYPE_DRAWE
libcollada-dom2.5-dp.so.0:_ZN13ColladaDOM14117COLLADA_TYPE_ENUME
libcollada-dom2.5-dp.so.0:_ZN13ColladaDOM14117COLLADA_TYPE_FACEE
libcollada-dom2.5-dp.so.0:_ZN13ColladaDOM14117COLLADA_TYPE_FAILE
libcollada-dom2.5-dp.so.0:_ZN13ColladaDOM14117COLLADA_TYPE_FUNCE
libcollada-dom2.5-dp.so.0:_ZN13ColladaDOM14117COLLADA_TYPE_HALFE
libcollada-dom2.5-dp.so.0:_ZN13ColladaDOM14117COLLADA_TYPE_INT1E
libcollada-dom2.5-dp.so.0:_ZN13ColladaDOM14117COLLADA_TYPE_INT2E
libcollada-dom2.5-dp.so.0:_ZN13ColladaDOM14117COLLADA_TYPE_INT3E
libcollada-dom2.5-dp.so.0:_ZN13ColladaDOM14117COLLADA_TYPE_INT4E
libcollada-dom2.5-dp.so.0:_ZN13ColladaDOM14117COLLADA_TYPE_MASKE
libcollada-dom2.5-dp.so.0:_ZN13ColladaDOM14117COLLADA_TYPE_MESHE
libcollada-dom2.5-dp.so.0:_ZN13ColladaDOM14117COLLADA_TYPE_MODEE
libcollada-dom2.5-dp.so.0:_ZN13ColladaDOM14117COLLADA_TYPE_NAMEE
libcollada-dom2.5-dp.so.0:_ZN13ColladaDOM14117COLLADA_TYPE_NODEE
libcollada-dom2.5-dp.so.0:_ZN13ColladaDOM14117COLLADA_TYPE_PASSE
libcollada-dom2.5-dp.so.0:_ZN13ColladaDOM14117COLLADA_TYPE_SIZEE
libcollada-dom2.5-dp.so.0:_ZN13ColladaDOM14117COLLADA_TYPE_SKEWE
libcollada-dom2.5-dp.so.0:_ZN13ColladaDOM14117COLLADA_TYPE_SKINE
libcollada-dom2.5-dp.so.0:_ZN13ColladaDOM14117COLLADA_TYPE_SPOTE
libcollada-dom2.5-dp.so.0:_ZN13ColladaDOM14117COLLADA_TYPE_UNITE
libcollada-dom2.5-dp.so.0:_ZN13ColladaDOM14117domAnimation_clip15registerElementER3DAE
libcollada-dom2.5-dp.so.0:_ZN13ColladaDOM14117domAnimation_clip6createER3DAE
libcollada-dom2.5-dp.so.0:_ZN13ColladaDOM14117domCg_samplerCUBE15registerElementER3DAE
libcollada-dom2.5-dp.so.0:_ZN13ColladaDOM14117domCg_samplerCUBE6createER3DAE
libcollada-dom2.5-dp.so.0:_ZN13ColladaDOM14117domCg_samplerRECT15registerElementER3DAE
libcollada-dom2.5-dp.so.0:_ZN13ColladaDOM14117domCg_samplerRECT6createER3DAE
libcollada-dom2.5-dp.so.0:_ZN13ColladaDOM14117domGl_samplerCUBE15registerElementER3DAE
libcollada-dom2.5-dp.so.0:_ZN13ColladaDOM14117domGl_samplerCUBE6createER3DAE
libcollada-dom2.5-dp.so.0:_ZN13ColladaDOM14117domGl_samplerRECT15registerElementER3DAE
libcollada-dom2.5-dp.so.0:_ZN13ColladaDOM14117domGl_samplerRECT6createER3DAE
libcollada-dom2.5-dp.so.0:_ZN13ColladaDOM14117domInstance_light15registerElementER3DAE
libcollada-dom2.5-dp.so.0:_ZN13ColladaDOM14117domInstance_light6createER3DAE
libcollada-dom2.5-dp.so.0:_ZN13ColladaDOM14117domLibrary_images15registerElementER3DAE
libcollada-dom2.5-dp.so.0:_ZN13ColladaDOM14117domLibrary_images6createER3DAE
libcollada-dom2.5-dp.so.0:_ZN13ColladaDOM14117domLibrary_lights15registerElementER3DAE
libcollada-dom2.5-dp.so.0:_ZN13ColladaDOM14117domLibrary_lights6createER3DAE
libcollada-dom2.5-dp.so.0:_ZN13ColladaDOM14117domProfile_COMMON12domTechnique10domLambert15registerElementER3DAE
libcollada-dom2.5-dp.so.0:_ZN13ColladaDOM14117domProfile_COMMON12domTechnique10domLambert6createER3DAE
libcollada-dom2.5-dp.so.0:_ZN13ColladaDOM14117domProfile_COMMON12domTechnique11domConstant15registerElementER3DAE
libcollada-dom2.5-dp.so.0:_ZN13ColladaDOM14117domProfile_COMMON12domTechnique11domConstant6createER3DAE
libcollada-dom2.5-dp.so.0:_ZN13ColladaDOM14117domProfile_COMMON12domTechnique15registerElementER3DAE
libcollada-dom2.5-dp.so.0:_ZN13ColladaDOM14117domProfile_COMMON12domTechnique6createER3DAE
libcollada-dom2.5-dp.so.0:_ZN13ColladaDOM14117domProfile_COMMON12domTechnique8domBlinn15registerElementER3DAE
libcollada-dom2.5-dp.so.0:_ZN13ColladaDOM14117domProfile_COMMON12domTechnique8domBlinn6createER3DAE
libcollada-dom2.5-dp.so.0:_ZN13ColladaDOM14117domProfile_COMMON12domTechnique8domPhong15registerElementER3DAE
libcollada-dom2.5-dp.so.0:_ZN13ColladaDOM14117domProfile_COMMON12domTechnique8domPhong6createER3DAE
libcollada-dom2.5-dp.so.0:_ZN13ColladaDOM14117domProfile_COMMON15registerElementER3DAE
libcollada-dom2.5-dp.so.0:_ZN13ColladaDOM14117domProfile_COMMON6createER3DAE
libcollada-dom2.5-dp.so.0:_ZN13ColladaDOM14118COLLADA_ELEMENT_PHE
libcollada-dom2.5-dp.so.0:_ZN13ColladaDOM14118COLLADA_TYPE_ALPHAE
libcollada-dom2.5-dp.so.0:_ZN13ColladaDOM14118COLLADA_TYPE_ASSETE
libcollada-dom2.5-dp.so.0:_ZN13ColladaDOM14118COLLADA_TYPE_BLINNE
libcollada-dom2.5-dp.so.0:_ZN13ColladaDOM14118COLLADA_TYPE_BOOL1E
libcollada-dom2.5-dp.so.0:_ZN13ColladaDOM14118COLLADA_TYPE_BOOL2E
libcollada-dom2.5-dp.so.0:_ZN13ColladaDOM14118COLLADA_TYPE_BOOL3E
libcollada-dom2.5-dp.so.0:_ZN13ColladaDOM14118COLLADA_TYPE_BOOL4E
libcollada-dom2.5-dp.so.0:_ZN13ColladaDOM14118COLLADA_TYPE_COLORE
libcollada-dom2.5-dp.so.0:_ZN13ColladaDOM14118COLLADA_TYPE_EXTRAE
libcollada-dom2.5-dp.so.0:_ZN13ColladaDOM14118COLLADA_TYPE_FIXEDE
libcollada-dom2.5-dp.so.0:_ZN13ColladaDOM14118COLLADA_TYPE_FLOATE
libcollada-dom2.5-dp.so.0:_ZN13ColladaDOM14118COLLADA_TYPE_FRONTE
libcollada-dom2.5-dp.so.0:_ZN13ColladaDOM14118COLLADA_TYPE_HALF1E
libcollada-dom2.5-dp.so.0:_ZN13ColladaDOM14118COLLADA_TYPE_HALF2E
libcollada-dom2.5-dp.so.0:_ZN13ColladaDOM14118COLLADA_TYPE_HALF3E
libcollada-dom2.5-dp.so.0:_ZN13ColladaDOM14118COLLADA_TYPE_HALF4E
libcollada-dom2.5-dp.so.0:_ZN13ColladaDOM14118COLLADA_TYPE_IMAGEE
libcollada-dom2.5-dp.so.0:_ZN13ColladaDOM14118COLLADA_TYPE_LAYERE
libcollada-dom2.5-dp.so.0:_ZN13ColladaDOM14118COLLADA_TYPE_LIGHTE
libcollada-dom2.5-dp.so.0:_ZN13ColladaDOM14118COLLADA_TYPE_LINESE
libcollada-dom2.5-dp.so.0:_ZN13ColladaDOM14118COLLADA_TYPE_MORPHE
libcollada-dom2.5-dp.so.0:_ZN13ColladaDOM14118COLLADA_TYPE_ORDERE
libcollada-dom2.5-dp.so.0:_ZN13ColladaDOM14118COLLADA_TYPE_PARAME
libcollada-dom2.5-dp.so.0:_ZN13ColladaDOM14118COLLADA_TYPE_PHONGE
libcollada-dom2.5-dp.so.0:_ZN13ColladaDOM14118COLLADA_TYPE_PLANEE
libcollada-dom2.5-dp.so.0:_ZN13ColladaDOM14118COLLADA_TYPE_POINTE
libcollada-dom2.5-dp.so.0:_ZN13ColladaDOM14118COLLADA_TYPE_RANGEE
libcollada-dom2.5-dp.so.0:_ZN13ColladaDOM14118COLLADA_TYPE_SCALEE
libcollada-dom2.5-dp.so.0:_ZN13ColladaDOM14118COLLADA_TYPE_SCENEE
libcollada-dom2.5-dp.so.0:_ZN13ColladaDOM14118COLLADA_TYPE_SHAPEE
libcollada-dom2.5-dp.so.0:_ZN13ColladaDOM14118COLLADA_TYPE_TITLEE
libcollada-dom2.5-dp.so.0:_ZN13ColladaDOM14118COLLADA_TYPE_VALUEE
libcollada-dom2.5-dp.so.0:_ZN13ColladaDOM14118COLLADA_TYPE_ZFAILE
libcollada-dom2.5-dp.so.0:_ZN13ColladaDOM14118COLLADA_TYPE_ZPASSE
libcollada-dom2.5-dp.so.0:_ZN13ColladaDOM14118domCg_samplerDEPTH15registerElementER3DAE
libcollada-dom2.5-dp.so.0:_ZN13ColladaDOM14118domCg_samplerDEPTH6createER3DAE
libcollada-dom2.5-dp.so.0:_ZN13ColladaDOM14118domCg_setuser_type15registerElementER3DAE
libcollada-dom2.5-dp.so.0:_ZN13ColladaDOM14118domCg_setuser_type6createER3DAE
libcollada-dom2.5-dp.so.0:_ZN13ColladaDOM14118domCg_surface_type15registerElementER3DAE
libcollada-dom2.5-dp.so.0:_ZN13ColladaDOM14118domCg_surface_type6createER3DAE
libcollada-dom2.5-dp.so.0:_ZN13ColladaDOM14118domFx_code_profile15registerElementER3DAE
libcollada-dom2.5-dp.so.0:_ZN13ColladaDOM14118domFx_code_profile6createER3DAE
libcollada-dom2.5-dp.so.0:_ZN13ColladaDOM14118domGl_samplerDEPTH15registerElementER3DAE
libcollada-dom2.5-dp.so.0:_ZN13ColladaDOM14118domGl_samplerDEPTH6createER3DAE
libcollada-dom2.5-dp.so.0:_ZN13ColladaDOM14118domGlsl_param_type11domFloat2x215registerElementER3DAE
libcollada-dom2.5-dp.so.0:_ZN13ColladaDOM14118domGlsl_param_type11domFloat2x26createER3DAE
libcollada-dom2.5-dp.so.0:_ZN13ColladaDOM14118domGlsl_param_type11domFloat3x315registerElementER3DAE
libcollada-dom2.5-dp.so.0:_ZN13ColladaDOM14118domGlsl_param_type11domFloat3x36createER3DAE
libcollada-dom2.5-dp.so.0:_ZN13ColladaDOM14118domGlsl_param_type11domFloat4x415registerElementER3DAE
libcollada-dom2.5-dp.so.0:_ZN13ColladaDOM14118domGlsl_param_type11domFloat4x46createER3DAE
libcollada-dom2.5-dp.so.0:_ZN13ColladaDOM14118domGlsl_param_type15registerElementER3DAE
libcollada-dom2.5-dp.so.0:_ZN13ColladaDOM14118domGlsl_param_type6createER3DAE
libcollada-dom2.5-dp.so.0:_ZN13ColladaDOM14118domGlsl_param_type6domInt15registerElementER3DAE
libcollada-dom2.5-dp.so.0:_ZN13ColladaDOM14118domGlsl_param_type6domInt6createER3DAE
libcollada-dom2.5-dp.so.0:_ZN13ColladaDOM14118domGlsl_param_type7domBool15registerElementER3DAE
libcollada-dom2.5-dp.so.0:_ZN13ColladaDOM14118domGlsl_param_type7domBool6createER3DAE
libcollada-dom2.5-dp.so.0:_ZN13ColladaDOM14118domGlsl_param_type7domEnum15registerElementER3DAE
libcollada-dom2.5-dp.so.0:_ZN13ColladaDOM14118domGlsl_param_type7domEnum6createER3DAE
libcollada-dom2.5-dp.so.0:_ZN13ColladaDOM14118domGlsl_param_type7domInt215registerElementER3DAE
libcollada-dom2.5-dp.so.0:_ZN13ColladaDOM14118domGlsl_param_type7domInt26createER3DAE
libcollada-dom2.5-dp.so.0:_ZN13ColladaDOM14118domGlsl_param_type7domInt315registerElementER3DAE
libcollada-dom2.5-dp.so.0:_ZN13ColladaDOM14118domGlsl_param_type7domInt36createER3DAE
libcollada-dom2.5-dp.so.0:_ZN13ColladaDOM14118domGlsl_param_type7domInt415registerElementER3DAE
libcollada-dom2.5-dp.so.0:_ZN13ColladaDOM14118domGlsl_param_type7domInt46createER3DAE
libcollada-dom2.5-dp.so.0:_ZN13ColladaDOM14118domGlsl_param_type8domBool215registerElementER3DAE
libcollada-dom2.5-dp.so.0:_ZN13ColladaDOM14118domGlsl_param_type8domBool26createER3DAE
libcollada-dom2.5-dp.so.0:_ZN13ColladaDOM14118domGlsl_param_type8domBool315registerElementER3DAE
libcollada-dom2.5-dp.so.0:_ZN13ColladaDOM14118domGlsl_param_type8domBool36createER3DAE
libcollada-dom2.5-dp.so.0:_ZN13ColladaDOM14118domGlsl_param_type8domBool415registerElementER3DAE
libcollada-dom2.5-dp.so.0:_ZN13ColladaDOM14118domGlsl_param_type8domBool46createER3DAE
libcollada-dom2.5-dp.so.0:_ZN13ColladaDOM14118domGlsl_param_type8domFloat15registerElementER3DAE
libcollada-dom2.5-dp.so.0:_ZN13ColladaDOM14118domGlsl_param_type8domFloat6createER3DAE
libcollada-dom2.5-dp.so.0:_ZN13ColladaDOM14118domGlsl_param_type9domFloat215registerElementER3DAE
libcollada-dom2.5-dp.so.0:_ZN13ColladaDOM14118domGlsl_param_type9domFloat26createER3DAE
libcollada-dom2.5-dp.so.0:_ZN13ColladaDOM14118domGlsl_param_type9domFloat315registerElementER3DAE
libcollada-dom2.5-dp.so.0:_ZN13ColladaDOM14118domGlsl_param_type9domFloat36createER3DAE
libcollada-dom2.5-dp.so.0:_ZN13ColladaDOM14118domGlsl_param_type9domFloat415registerElementER3DAE
libcollada-dom2.5-dp.so.0:_ZN13ColladaDOM14118domGlsl_param_type9domFloat46createER3DAE
libcollada-dom2.5-dp.so.0:_ZN13ColladaDOM14118domInstance_camera15registerElementER3DAE
libcollada-dom2.5-dp.so.0:_ZN13ColladaDOM14118domInstance_camera6createER3DAE
libcollada-dom2.5-dp.so.0:_ZN13ColladaDOM14118domInstance_effect11domSetparam15registerElementER3DAE
libcollada-dom2.5-dp.so.0:_ZN13ColladaDOM14118domInstance_effect11domSetparam6createER3DAE
libcollada-dom2.5-dp.so.0:_ZN13ColladaDOM14118domInstance_effect15registerElementER3DAE
libcollada-dom2.5-dp.so.0:_ZN13ColladaDOM14118domInstance_effect17domTechnique_hint15registerElementER3DAE
libcollada-dom2.5-dp.so.0:_ZN13ColladaDOM14118domInstance_effect17domTechnique_hint6createER3DAE
libcollada-dom2.5-dp.so.0:_ZN13ColladaDOM14118domInstance_effect6createER3DAE
libcollada-dom2.5-dp.so.0:_ZN13ColladaDOM14118domLibrary_cameras15registerElementER3DAE
libcollada-dom2.5-dp.so.0:_ZN13ColladaDOM14118domLibrary_cameras6createER3DAE
libcollada-dom2.5-dp.so.0:_ZN13ColladaDOM14118domLibrary_effects15registerElementER3DAE
libcollada-dom2.5-dp.so.0:_ZN13ColladaDOM14118domLibrary_effects6createER3DAE
libcollada-dom2.5-dp.so.0:_ZN13ColladaDOM14118domTapered_capsule10domRadius115registerElementER3DAE
libcollada-dom2.5-dp.so.0:_ZN13ColladaDOM14118domTapered_capsule10domRadius16createER3DAE
libcollada-dom2.5-dp.so.0:_ZN13ColladaDOM14118domTapered_capsule10domRadius215registerElementER3DAE
libcollada-dom2.5-dp.so.0:_ZN13ColladaDOM14118domTapered_capsule10domRadius26createER3DAE
libcollada-dom2.5-dp.so.0:_ZN13ColladaDOM14118domTapered_capsule15registerElementER3DAE
libcollada-dom2.5-dp.so.0:_ZN13ColladaDOM14118domTapered_capsule6createER3DAE
libcollada-dom2.5-dp.so.0:_ZN13ColladaDOM14118domTapered_capsule9domHeight15registerElementER3DAE
libcollada-dom2.5-dp.so.0:_ZN13ColladaDOM14118domTapered_capsule9domHeight6createER3DAE
libcollada-dom2.5-dp.so.0:_ZN13ColladaDOM14118domTargetableFloat15registerElementER3DAE
libcollada-dom2.5-dp.so.0:_ZN13ColladaDOM14118domTargetableFloat6createER3DAE
libcollada-dom2.5-dp.so.0:_ZN13ColladaDOM14119COLLADA_ELEMENT_ALLE
libcollada-dom2.5-dp.so.0:_ZN13ColladaDOM14119COLLADA_ELEMENT_BOXE
libcollada-dom2.5-dp.so.0:_ZN13ColladaDOM14119COLLADA_ELEMENT_INTE
libcollada-dom2.5-dp.so.0:_ZN13ColladaDOM14119COLLADA_ELEMENT_MAXE
libcollada-dom2.5-dp.so.0:_ZN13ColladaDOM14119COLLADA_ELEMENT_MINE
libcollada-dom2.5-dp.so.0:_ZN13ColladaDOM14119COLLADA_ELEMENT_REFE
libcollada-dom2.5-dp.so.0:_ZN13ColladaDOM14119COLLADA_ELEMENT_RGBE
libcollada-dom2.5-dp.so.0:_ZN13ColladaDOM14119COLLADA_ELEMENT_SRCE
libcollada-dom2.5-dp.so.0:_ZN13ColladaDOM14119COLLADA_ELEMENT_rgbE
libcollada-dom2.5-dp.so.0:_ZN13ColladaDOM14119COLLADA_TYPE_AUTHORE
libcollada-dom2.5-dp.so.0:_ZN13ColladaDOM14119COLLADA_TYPE_CAMERAE
libcollada-dom2.5-dp.so.0:_ZN13ColladaDOM14119COLLADA_TYPE_EFFECTE
libcollada-dom2.5-dp.so.0:_ZN13ColladaDOM14119COLLADA_TYPE_FIXED1E
libcollada-dom2.5-dp.so.0:_ZN13ColladaDOM14119COLLADA_TYPE_FIXED2E
libcollada-dom2.5-dp.so.0:_ZN13ColladaDOM14119COLLADA_TYPE_FIXED3E
libcollada-dom2.5-dp.so.0:_ZN13ColladaDOM14119COLLADA_TYPE_FIXED4E
libcollada-dom2.5-dp.so.0:_ZN13ColladaDOM14119COLLADA_TYPE_FLOAT1E
libcollada-dom2.5-dp.so.0:_ZN13ColladaDOM14119COLLADA_TYPE_FLOAT2E
libcollada-dom2.5-dp.so.0:_ZN13ColladaDOM14119COLLADA_TYPE_FLOAT3E
libcollada-dom2.5-dp.so.0:_ZN13ColladaDOM14119COLLADA_TYPE_FLOAT4E
libcollada-dom2.5-dp.so.0:_ZN13ColladaDOM14119COLLADA_TYPE_FORMATE
libcollada-dom2.5-dp.so.0:_ZN13ColladaDOM14119COLLADA_TYPE_HEIGHTE
libcollada-dom2.5-dp.so.0:_ZN13ColladaDOM14119COLLADA_TYPE_HOLLOWE
libcollada-dom2.5-dp.so.0:_ZN13ColladaDOM14119COLLADA_TYPE_IMAGERE
libcollada-dom2.5-dp.so.0:_ZN13ColladaDOM14119COLLADA_TYPE_INT1X1E
libcollada-dom2.5-dp.so.0:_ZN13ColladaDOM14119COLLADA_TYPE_INT1X2E
libcollada-dom2.5-dp.so.0:_ZN13ColladaDOM14119COLLADA_TYPE_INT1X3E
libcollada-dom2.5-dp.so.0:_ZN13ColladaDOM14119COLLADA_TYPE_INT1X4E
libcollada-dom2.5-dp.so.0:_ZN13ColladaDOM14119COLLADA_TYPE_INT2X1E
libcollada-dom2.5-dp.so.0:_ZN13ColladaDOM14119COLLADA_TYPE_INT2X2E
libcollada-dom2.5-dp.so.0:_ZN13ColladaDOM14119COLLADA_TYPE_INT2X3E
libcollada-dom2.5-dp.so.0:_ZN13ColladaDOM14119COLLADA_TYPE_INT2X4E
libcollada-dom2.5-dp.so.0:_ZN13ColladaDOM14119COLLADA_TYPE_INT3X1E
libcollada-dom2.5-dp.so.0:_ZN13ColladaDOM14119COLLADA_TYPE_INT3X2E
libcollada-dom2.5-dp.so.0:_ZN13ColladaDOM14119COLLADA_TYPE_INT3X3E
libcollada-dom2.5-dp.so.0:_ZN13ColladaDOM14119COLLADA_TYPE_INT3X4E
libcollada-dom2.5-dp.so.0:_ZN13ColladaDOM14119COLLADA_TYPE_INT4X1E
libcollada-dom2.5-dp.so.0:_ZN13ColladaDOM14119COLLADA_TYPE_INT4X2E
libcollada-dom2.5-dp.so.0:_ZN13ColladaDOM14119COLLADA_TYPE_INT4X3E
libcollada-dom2.5-dp.so.0:_ZN13ColladaDOM14119COLLADA_TYPE_INT4X4E
libcollada-dom2.5-dp.so.0:_ZN13ColladaDOM14119COLLADA_TYPE_JOINTSE
libcollada-dom2.5-dp.so.0:_ZN13ColladaDOM14119COLLADA_TYPE_LIMITSE
libcollada-dom2.5-dp.so.0:_ZN13ColladaDOM14119COLLADA_TYPE_LINEARE
libcollada-dom2.5-dp.so.0:_ZN13ColladaDOM14119COLLADA_TYPE_LOOKATE
libcollada-dom2.5-dp.so.0:_ZN13ColladaDOM14119COLLADA_TYPE_MATRIXE
libcollada-dom2.5-dp.so.0:_ZN13ColladaDOM14119COLLADA_TYPE_OPTICSE
libcollada-dom2.5-dp.so.0:_ZN13ColladaDOM14119COLLADA_TYPE_OPTIONE
libcollada-dom2.5-dp.so.0:_ZN13ColladaDOM14119COLLADA_TYPE_RADIUSE
libcollada-dom2.5-dp.so.0:_ZN13ColladaDOM14119COLLADA_TYPE_RENDERE
libcollada-dom2.5-dp.so.0:_ZN13ColladaDOM14119COLLADA_TYPE_ROTATEE
libcollada-dom2.5-dp.so.0:_ZN13ColladaDOM14119COLLADA_TYPE_SHADERE
libcollada-dom2.5-dp.so.0:_ZN13ColladaDOM14119COLLADA_TYPE_SOURCEE
libcollada-dom2.5-dp.so.0:_ZN13ColladaDOM14119COLLADA_TYPE_SPHEREE
libcollada-dom2.5-dp.so.0:_ZN13ColladaDOM14119COLLADA_TYPE_SPLINEE
libcollada-dom2.5-dp.so.0:_ZN13ColladaDOM14119COLLADA_TYPE_SPRINGE
libcollada-dom2.5-dp.so.0:_ZN13ColladaDOM14119COLLADA_TYPE_STRINGE
libcollada-dom2.5-dp.so.0:_ZN13ColladaDOM14119COLLADA_TYPE_VCOUNTE
libcollada-dom2.5-dp.so.0:_ZN13ColladaDOM14119COLLADA_TYPE_WRAP_PE
libcollada-dom2.5-dp.so.0:_ZN13ColladaDOM14119COLLADA_TYPE_WRAP_SE
libcollada-dom2.5-dp.so.0:_ZN13ColladaDOM14119COLLADA_TYPE_WRAP_TE
libcollada-dom2.5-dp.so.0:_ZN13ColladaDOM14119domCg_connect_param15registerElementER3DAE
libcollada-dom2.5-dp.so.0:_ZN13ColladaDOM14119domCg_connect_param6createER3DAE
libcollada-dom2.5-dp.so.0:_ZN13ColladaDOM14119domCg_newarray_type15registerElementER3DAE
libcollada-dom2.5-dp.so.0:_ZN13ColladaDOM14119domCg_newarray_type6createER3DAE
libcollada-dom2.5-dp.so.0:_ZN13ColladaDOM14119domCg_setarray_type15registerElementER3DAE
libcollada-dom2.5-dp.so.0:_ZN13ColladaDOM14119domCg_setarray_type6createER3DAE
libcollada-dom2.5-dp.so.0:_ZN13ColladaDOM14119domGl_hook_abstract15registerElementER3DAE
libcollada-dom2.5-dp.so.0:_ZN13ColladaDOM14119domGl_hook_abstract6createER3DAE
libcollada-dom2.5-dp.so.0:_ZN13ColladaDOM14119domInputLocalOffset15registerElementER3DAE
libcollada-dom2.5-dp.so.0:_ZN13ColladaDOM14119domInputLocalOffset6createER3DAE
libcollada-dom2.5-dp.so.0:_ZN13ColladaDOM14119domPhysics_material15registerElementER3DAE
libcollada-dom2.5-dp.so.0:_ZN13ColladaDOM14119domPhysics_material19domTechnique_common15registerElementER3DAE
libcollada-dom2.5-dp.so.0:_ZN13ColladaDOM14119domPhysics_material19domTechnique_common6createER3DAE
libcollada-dom2.5-dp.so.0:_ZN13ColladaDOM14119domPhysics_material6createER3DAE
libcollada-dom2.5-dp.so.0:_ZN13ColladaDOM14119domRigid_constraint13domAttachment15registerElementER3DAE
libcollada-dom2.5-dp.so.0:_ZN13ColladaDOM14119domRigid_constraint13domAttachment6createER3DAE
libcollada-dom2.5-dp.so.0:_ZN13ColladaDOM14119domRigid_constraint15registerElementER3DAE
libcollada-dom2.5-dp.so.0:_ZN13ColladaDOM14119domRigid_constraint17domRef_attachment15registerElementER3DAE
libcollada-dom2.5-dp.so.0:_ZN13ColladaDOM14119domRigid_constraint17domRef_attachment6createER3DAE
libcollada-dom2.5-dp.so.0:_ZN13ColladaDOM14119domRigid_constraint19domTechnique_common10domEnabled15registerElementER3DAE
libcollada-dom2.5-dp.so.0:_ZN13ColladaDOM14119domRigid_constraint19domTechnique_common10domEnabled6createER3DAE
libcollada-dom2.5-dp.so.0:_ZN13ColladaDOM14119domRigid_constraint19domTechnique_common15registerElementER3DAE
libcollada-dom2.5-dp.so.0:_ZN13ColladaDOM14119domRigid_constraint19domTechnique_common17domInterpenetrate15registerElementER3DAE
libcollada-dom2.5-dp.so.0:_ZN13ColladaDOM14119domRigid_constraint19domTechnique_common17domInterpenetrate6createER3DAE
libcollada-dom2.5-dp.so.0:_ZN13ColladaDOM14119domRigid_constraint19domTechnique_common6createER3DAE
libcollada-dom2.5-dp.so.0:_ZN13ColladaDOM14119domRigid_constraint19domTechnique_common9domLimits15registerElementER3DAE
libcollada-dom2.5-dp.so.0:_ZN13ColladaDOM14119domRigid_constraint19domTechnique_common9domLimits23domSwing_cone_and_twist15registerElementER3DAE
libcollada-dom2.5-dp.so.0:_ZN13ColladaDOM14119domRigid_constraint19domTechnique_common9domLimits23domSwing_cone_and_twist6createER3DAE
libcollada-dom2.5-dp.so.0:_ZN13ColladaDOM14119domRigid_constraint19domTechnique_common9domLimits6createER3DAE
libcollada-dom2.5-dp.so.0:_ZN13ColladaDOM14119domRigid_constraint19domTechnique_common9domLimits9domLinear15registerElementER3DAE
libcollada-dom2.5-dp.so.0:_ZN13ColladaDOM14119domRigid_constraint19domTechnique_common9domLimits9domLinear6createER3DAE
libcollada-dom2.5-dp.so.0:_ZN13ColladaDOM14119domRigid_constraint19domTechnique_common9domSpring10domAngular15registerElementER3DAE
libcollada-dom2.5-dp.so.0:_ZN13ColladaDOM14119domRigid_constraint19domTechnique_common9domSpring10domAngular6createER3DAE
libcollada-dom2.5-dp.so.0:_ZN13ColladaDOM14119domRigid_constraint19domTechnique_common9domSpring15registerElementER3DAE
libcollada-dom2.5-dp.so.0:_ZN13ColladaDOM14119domRigid_constraint19domTechnique_common9domSpring6createER3DAE
libcollada-dom2.5-dp.so.0:_ZN13ColladaDOM14119domRigid_constraint19domTechnique_common9domSpring9domLinear15registerElementER3DAE
libcollada-dom2.5-dp.so.0:_ZN13ColladaDOM14119domRigid_constraint19domTechnique_common9domSpring9domLinear6createER3DAE
libcollada-dom2.5-dp.so.0:_ZN13ColladaDOM14119domRigid_constraint6createER3DAE
libcollada-dom2.5-dp.so.0:_ZN13ColladaDOM14119domTapered_cylinder10domRadius115registerElementER3DAE
libcollada-dom2.5-dp.so.0:_ZN13ColladaDOM14119domTapered_cylinder10domRadius16createER3DAE
libcollada-dom2.5-dp.so.0:_ZN13ColladaDOM14119domTapered_cylinder10domRadius215registerElementER3DAE
libcollada-dom2.5-dp.so.0:_ZN13ColladaDOM14119domTapered_cylinder10domRadius26createER3DAE
libcollada-dom2.5-dp.so.0:_ZN13ColladaDOM14119domTapered_cylinder15registerElementER3DAE
libcollada-dom2.5-dp.so.0:_ZN13ColladaDOM14119domTapered_cylinder6createER3DAE
libcollada-dom2.5-dp.so.0:_ZN13ColladaDOM14119domTapered_cylinder9domHeight15registerElementER3DAE
libcollada-dom2.5-dp.so.0:_ZN13ColladaDOM14119domTapered_cylinder9domHeight6createER3DAE
libcollada-dom2.5-dp.so.0:_ZN13ColladaDOM14119domTargetableFloat315registerElementER3DAE
libcollada-dom2.5-dp.so.0:_ZN13ColladaDOM14119domTargetableFloat36createER3DAE
libcollada-dom2.5-dp.so.0:_ZN13ColladaDOM14119registerDomElementsER3DAE
libcollada-dom2.5-dp.so.0:_ZN13ColladaDOM14120COLLADA_ELEMENT_BACKE
libcollada-dom2.5-dp.so.0:_ZN13ColladaDOM14120COLLADA_ELEMENT_BINDE
libcollada-dom2.5-dp.so.0:_ZN13ColladaDOM14120COLLADA_ELEMENT_BOOLE
libcollada-dom2.5-dp.so.0:_ZN13ColladaDOM14120COLLADA_ELEMENT_CODEE
libcollada-dom2.5-dp.so.0:_ZN13ColladaDOM14120COLLADA_ELEMENT_DATAE
libcollada-dom2.5-dp.so.0:_ZN13ColladaDOM14120COLLADA_ELEMENT_DESTE
libcollada-dom2.5-dp.so.0:_ZN13ColladaDOM14120COLLADA_ELEMENT_DRAWE
libcollada-dom2.5-dp.so.0:_ZN13ColladaDOM14120COLLADA_ELEMENT_ENUME
libcollada-dom2.5-dp.so.0:_ZN13ColladaDOM14120COLLADA_ELEMENT_FACEE
libcollada-dom2.5-dp.so.0:_ZN13ColladaDOM14120COLLADA_ELEMENT_FAILE
libcollada-dom2.5-dp.so.0:_ZN13ColladaDOM14120COLLADA_ELEMENT_FUNCE
libcollada-dom2.5-dp.so.0:_ZN13ColladaDOM14120COLLADA_ELEMENT_HALFE
libcollada-dom2.5-dp.so.0:_ZN13ColladaDOM14120COLLADA_ELEMENT_INT1E
libcollada-dom2.5-dp.so.0:_ZN13ColladaDOM14120COLLADA_ELEMENT_INT2E
libcollada-dom2.5-dp.so.0:_ZN13ColladaDOM14120COLLADA_ELEMENT_INT3E
libcollada-dom2.5-dp.so.0:_ZN13ColladaDOM14120COLLADA_ELEMENT_INT4E
libcollada-dom2.5-dp.so.0:_ZN13ColladaDOM14120COLLADA_ELEMENT_MASKE
libcollada-dom2.5-dp.so.0:_ZN13ColladaDOM14120COLLADA_ELEMENT_MASSE
libcollada-dom2.5-dp.so.0:_ZN13ColladaDOM14120COLLADA_ELEMENT_MESHE
libcollada-dom2.5-dp.so.0:_ZN13ColladaDOM14120COLLADA_ELEMENT_MODEE
libcollada-dom2.5-dp.so.0:_ZN13ColladaDOM14120COLLADA_ELEMENT_NAMEE
libcollada-dom2.5-dp.so.0:_ZN13ColladaDOM14120COLLADA_ELEMENT_NODEE
libcollada-dom2.5-dp.so.0:_ZN13ColladaDOM14120COLLADA_ELEMENT_PASSE
libcollada-dom2.5-dp.so.0:_ZN13ColladaDOM14120COLLADA_ELEMENT_SIZEE
libcollada-dom2.5-dp.so.0:_ZN13ColladaDOM14120COLLADA_ELEMENT_SKEWE
libcollada-dom2.5-dp.so.0:_ZN13ColladaDOM14120COLLADA_ELEMENT_SKINE
libcollada-dom2.5-dp.so.0:_ZN13ColladaDOM14120COLLADA_ELEMENT_SPOTE
libcollada-dom2.5-dp.so.0:_ZN13ColladaDOM14120COLLADA_ELEMENT_UNITE
libcollada-dom2.5-dp.so.0:_ZN13ColladaDOM14120COLLADA_ELEMENT_XFOVE
libcollada-dom2.5-dp.so.0:_ZN13ColladaDOM14120COLLADA_ELEMENT_XMAGE
libcollada-dom2.5-dp.so.0:_ZN13ColladaDOM14120COLLADA_ELEMENT_YFOVE
libcollada-dom2.5-dp.so.0:_ZN13ColladaDOM14120COLLADA_ELEMENT_YMAGE
libcollada-dom2.5-dp.so.0:_ZN13ColladaDOM14120COLLADA_ELEMENT_ZFARE
libcollada-dom2.5-dp.so.0:_ZN13ColladaDOM14120COLLADA_TYPE_AMBIENTE
libcollada-dom2.5-dp.so.0:_ZN13ColladaDOM14120COLLADA_TYPE_ANGULARE
libcollada-dom2.5-dp.so.0:_ZN13ColladaDOM14120COLLADA_TYPE_BOOL1X1E
libcollada-dom2.5-dp.so.0:_ZN13ColladaDOM14120COLLADA_TYPE_BOOL1X2E
libcollada-dom2.5-dp.so.0:_ZN13ColladaDOM14120COLLADA_TYPE_BOOL1X3E
libcollada-dom2.5-dp.so.0:_ZN13ColladaDOM14120COLLADA_TYPE_BOOL1X4E
libcollada-dom2.5-dp.so.0:_ZN13ColladaDOM14120COLLADA_TYPE_BOOL2X1E
libcollada-dom2.5-dp.so.0:_ZN13ColladaDOM14120COLLADA_TYPE_BOOL2X2E
libcollada-dom2.5-dp.so.0:_ZN13ColladaDOM14120COLLADA_TYPE_BOOL2X3E
libcollada-dom2.5-dp.so.0:_ZN13ColladaDOM14120COLLADA_TYPE_BOOL2X4E
libcollada-dom2.5-dp.so.0:_ZN13ColladaDOM14120COLLADA_TYPE_BOOL3X1E
libcollada-dom2.5-dp.so.0:_ZN13ColladaDOM14120COLLADA_TYPE_BOOL3X2E
libcollada-dom2.5-dp.so.0:_ZN13ColladaDOM14120COLLADA_TYPE_BOOL3X3E
libcollada-dom2.5-dp.so.0:_ZN13ColladaDOM14120COLLADA_TYPE_BOOL3X4E
libcollada-dom2.5-dp.so.0:_ZN13ColladaDOM14120COLLADA_TYPE_BOOL4X1E
libcollada-dom2.5-dp.so.0:_ZN13ColladaDOM14120COLLADA_TYPE_BOOL4X2E
libcollada-dom2.5-dp.so.0:_ZN13ColladaDOM14120COLLADA_TYPE_BOOL4X3E
libcollada-dom2.5-dp.so.0:_ZN13ColladaDOM14120COLLADA_TYPE_BOOL4X4E
libcollada-dom2.5-dp.so.0:_ZN13ColladaDOM14120COLLADA_TYPE_CAPSULEE
libcollada-dom2.5-dp.so.0:_ZN13ColladaDOM14120COLLADA_TYPE_CHANNELE
libcollada-dom2.5-dp.so.0:_ZN13ColladaDOM14120COLLADA_TYPE_COLLADAE
libcollada-dom2.5-dp.so.0:_ZN13ColladaDOM14120COLLADA_TYPE_CREATEDE
libcollada-dom2.5-dp.so.0:_ZN13ColladaDOM14120COLLADA_TYPE_DYNAMICE
libcollada-dom2.5-dp.so.0:_ZN13ColladaDOM14120COLLADA_TYPE_ENABLEDE
libcollada-dom2.5-dp.so.0:_ZN13ColladaDOM14120COLLADA_TYPE_FOG_ENDE
libcollada-dom2.5-dp.so.0:_ZN13ColladaDOM14120COLLADA_TYPE_HALF1X1E
libcollada-dom2.5-dp.so.0:_ZN13ColladaDOM14120COLLADA_TYPE_HALF1X2E
libcollada-dom2.5-dp.so.0:_ZN13ColladaDOM14120COLLADA_TYPE_HALF1X3E
libcollada-dom2.5-dp.so.0:_ZN13ColladaDOM14120COLLADA_TYPE_HALF1X4E
libcollada-dom2.5-dp.so.0:_ZN13ColladaDOM14120COLLADA_TYPE_HALF2X1E
libcollada-dom2.5-dp.so.0:_ZN13ColladaDOM14120COLLADA_TYPE_HALF2X2E
libcollada-dom2.5-dp.so.0:_ZN13ColladaDOM14120COLLADA_TYPE_HALF2X3E
libcollada-dom2.5-dp.so.0:_ZN13ColladaDOM14120COLLADA_TYPE_HALF2X4E
libcollada-dom2.5-dp.so.0:_ZN13ColladaDOM14120COLLADA_TYPE_HALF3X1E
libcollada-dom2.5-dp.so.0:_ZN13ColladaDOM14120COLLADA_TYPE_HALF3X2E
libcollada-dom2.5-dp.so.0:_ZN13ColladaDOM14120COLLADA_TYPE_HALF3X3E
libcollada-dom2.5-dp.so.0:_ZN13ColladaDOM14120COLLADA_TYPE_HALF3X4E
libcollada-dom2.5-dp.so.0:_ZN13ColladaDOM14120COLLADA_TYPE_HALF4X1E
libcollada-dom2.5-dp.so.0:_ZN13ColladaDOM14120COLLADA_TYPE_HALF4X2E
libcollada-dom2.5-dp.so.0:_ZN13ColladaDOM14120COLLADA_TYPE_HALF4X3E
libcollada-dom2.5-dp.so.0:_ZN13ColladaDOM14120COLLADA_TYPE_HALF4X4E
libcollada-dom2.5-dp.so.0:_ZN13ColladaDOM14120COLLADA_TYPE_LAMBERTE
libcollada-dom2.5-dp.so.0:_ZN13ColladaDOM14120COLLADA_TYPE_PRIMARYE
libcollada-dom2.5-dp.so.0:_ZN13ColladaDOM14120COLLADA_TYPE_RADIUS1E
libcollada-dom2.5-dp.so.0:_ZN13ColladaDOM14120COLLADA_TYPE_RADIUS2E
libcollada-dom2.5-dp.so.0:_ZN13ColladaDOM14120COLLADA_TYPE_SAMPLERE
libcollada-dom2.5-dp.so.0:_ZN13ColladaDOM14120COLLADA_TYPE_SCISSORE
libcollada-dom2.5-dp.so.0:_ZN13ColladaDOM14120COLLADA_TYPE_SRC_RGBE
libcollada-dom2.5-dp.so.0:_ZN13ColladaDOM14120COLLADA_TYPE_SUBJECTE
libcollada-dom2.5-dp.so.0:_ZN13ColladaDOM14120COLLADA_TYPE_SURFACEE
libcollada-dom2.5-dp.so.0:_ZN13ColladaDOM14120COLLADA_TYPE_TARGETSE
libcollada-dom2.5-dp.so.0:_ZN13ColladaDOM14120COLLADA_TYPE_TEXTUREE
libcollada-dom2.5-dp.so.0:_ZN13ColladaDOM14120COLLADA_TYPE_TRIFANSE
libcollada-dom2.5-dp.so.0:_ZN13ColladaDOM14120COLLADA_TYPE_UP_AXISE
libcollada-dom2.5-dp.so.0:_ZN13ColladaDOM14120domFx_include_common15registerElementER3DAE
libcollada-dom2.5-dp.so.0:_ZN13ColladaDOM14120domFx_include_common6createER3DAE
libcollada-dom2.5-dp.so.0:_ZN13ColladaDOM14120domFx_surface_common15registerElementER3DAE
libcollada-dom2.5-dp.so.0:_ZN13ColladaDOM14120domFx_surface_common6createER3DAE
libcollada-dom2.5-dp.so.0:_ZN13ColladaDOM14120domGles_texture_unit15registerElementER3DAE
libcollada-dom2.5-dp.so.0:_ZN13ColladaDOM14120domGles_texture_unit6createER3DAE
libcollada-dom2.5-dp.so.0:_ZN13ColladaDOM14120domGlsl_surface_type15registerElementER3DAE
libcollada-dom2.5-dp.so.0:_ZN13ColladaDOM14120domGlsl_surface_type6createER3DAE
libcollada-dom2.5-dp.so.0:_ZN13ColladaDOM14120domInstanceWithExtra15registerElementER3DAE
libcollada-dom2.5-dp.so.0:_ZN13ColladaDOM14120domInstanceWithExtra6createER3DAE
libcollada-dom2.5-dp.so.0:_ZN13ColladaDOM14120domInstance_geometry15registerElementER3DAE
libcollada-dom2.5-dp.so.0:_ZN13ColladaDOM14120domInstance_geometry6createER3DAE
libcollada-dom2.5-dp.so.0:_ZN13ColladaDOM14120domInstance_material15registerElementER3DAE
libcollada-dom2.5-dp.so.0:_ZN13ColladaDOM14120domInstance_material20domBind_vertex_input15registerElementER3DAE
libcollada-dom2.5-dp.so.0:_ZN13ColladaDOM14120domInstance_material20domBind_vertex_input6createER3DAE
libcollada-dom2.5-dp.so.0:_ZN13ColladaDOM14120domInstance_material6createER3DAE
libcollada-dom2.5-dp.so.0:_ZN13ColladaDOM14120domInstance_material7domBind15registerElementER3DAE
libcollada-dom2.5-dp.so.0:_ZN13ColladaDOM14120domInstance_material7domBind6createER3DAE
libcollada-dom2.5-dp.so.0:_ZN13ColladaDOM14120domLibrary_materials15registerElementER3DAE
libcollada-dom2.5-dp.so.0:_ZN13ColladaDOM14120domLibrary_materials6createER3DAE
libcollada-dom2.5-dp.so.0:_ZN13ColladaDOM14121COLLADA_ELEMENT_ALPHAE
libcollada-dom2.5-dp.so.0:_ZN13ColladaDOM14121COLLADA_ELEMENT_ARRAYE
libcollada-dom2.5-dp.so.0:_ZN13ColladaDOM14121COLLADA_ELEMENT_ASSETE
libcollada-dom2.5-dp.so.0:_ZN13ColladaDOM14121COLLADA_ELEMENT_BLINNE
libcollada-dom2.5-dp.so.0:_ZN13ColladaDOM14121COLLADA_ELEMENT_BOOL1E
libcollada-dom2.5-dp.so.0:_ZN13ColladaDOM14121COLLADA_ELEMENT_BOOL2E
libcollada-dom2.5-dp.so.0:_ZN13ColladaDOM14121COLLADA_ELEMENT_BOOL3E
libcollada-dom2.5-dp.so.0:_ZN13ColladaDOM14121COLLADA_ELEMENT_BOOL4E
libcollada-dom2.5-dp.so.0:_ZN13ColladaDOM14121COLLADA_ELEMENT_COLORE
libcollada-dom2.5-dp.so.0:_ZN13ColladaDOM14121COLLADA_ELEMENT_EXTRAE
libcollada-dom2.5-dp.so.0:_ZN13ColladaDOM14121COLLADA_ELEMENT_FIXEDE
libcollada-dom2.5-dp.so.0:_ZN13ColladaDOM14121COLLADA_ELEMENT_FLOATE
libcollada-dom2.5-dp.so.0:_ZN13ColladaDOM14121COLLADA_ELEMENT_FRONTE
libcollada-dom2.5-dp.so.0:_ZN13ColladaDOM14121COLLADA_ELEMENT_HALF1E
libcollada-dom2.5-dp.so.0:_ZN13ColladaDOM14121COLLADA_ELEMENT_HALF2E
libcollada-dom2.5-dp.so.0:_ZN13ColladaDOM14121COLLADA_ELEMENT_HALF3E
libcollada-dom2.5-dp.so.0:_ZN13ColladaDOM14121COLLADA_ELEMENT_HALF4E
libcollada-dom2.5-dp.so.0:_ZN13ColladaDOM14121COLLADA_ELEMENT_IMAGEE
libcollada-dom2.5-dp.so.0:_ZN13ColladaDOM14121COLLADA_ELEMENT_INPUTE
libcollada-dom2.5-dp.so.0:_ZN13ColladaDOM14121COLLADA_ELEMENT_LAYERE
libcollada-dom2.5-dp.so.0:_ZN13ColladaDOM14121COLLADA_ELEMENT_LIGHTE
libcollada-dom2.5-dp.so.0:_ZN13ColladaDOM14121COLLADA_ELEMENT_LINESE
libcollada-dom2.5-dp.so.0:_ZN13ColladaDOM14121COLLADA_ELEMENT_MORPHE
libcollada-dom2.5-dp.so.0:_ZN13ColladaDOM14121COLLADA_ELEMENT_ORDERE
libcollada-dom2.5-dp.so.0:_ZN13ColladaDOM14121COLLADA_ELEMENT_PARAME
libcollada-dom2.5-dp.so.0:_ZN13ColladaDOM14121COLLADA_ELEMENT_PHONGE
libcollada-dom2.5-dp.so.0:_ZN13ColladaDOM14121COLLADA_ELEMENT_PLANEE
libcollada-dom2.5-dp.so.0:_ZN13ColladaDOM14121COLLADA_ELEMENT_POINTE
libcollada-dom2.5-dp.so.0:_ZN13ColladaDOM14121COLLADA_ELEMENT_RANGEE
libcollada-dom2.5-dp.so.0:_ZN13ColladaDOM14121COLLADA_ELEMENT_SCALEE
libcollada-dom2.5-dp.so.0:_ZN13ColladaDOM14121COLLADA_ELEMENT_SCENEE
libcollada-dom2.5-dp.so.0:_ZN13ColladaDOM14121COLLADA_ELEMENT_SHAPEE
libcollada-dom2.5-dp.so.0:_ZN13ColladaDOM14121COLLADA_ELEMENT_TITLEE
libcollada-dom2.5-dp.so.0:_ZN13ColladaDOM14121COLLADA_ELEMENT_VALUEE
libcollada-dom2.5-dp.so.0:_ZN13ColladaDOM14121COLLADA_ELEMENT_ZFAILE
libcollada-dom2.5-dp.so.0:_ZN13ColladaDOM14121COLLADA_ELEMENT_ZNEARE
libcollada-dom2.5-dp.so.0:_ZN13ColladaDOM14121COLLADA_ELEMENT_ZPASSE
libcollada-dom2.5-dp.so.0:_ZN13ColladaDOM14121COLLADA_TYPE_ACCESSORE
libcollada-dom2.5-dp.so.0:_ZN13ColladaDOM14121COLLADA_TYPE_CHANNELSE
libcollada-dom2.5-dp.so.0:_ZN13ColladaDOM14121COLLADA_TYPE_COMMENTSE
libcollada-dom2.5-dp.so.0:_ZN13ColladaDOM14121COLLADA_TYPE_CONSTANTE
libcollada-dom2.5-dp.so.0:_ZN13ColladaDOM14121COLLADA_TYPE_CYLINDERE
libcollada-dom2.5-dp.so.0:_ZN13ColladaDOM14121COLLADA_TYPE_DEST_RGBE
libcollada-dom2.5-dp.so.0:_ZN13ColladaDOM14121COLLADA_TYPE_EQUATIONE
libcollada-dom2.5-dp.so.0:_ZN13ColladaDOM14121COLLADA_TYPE_FIXED1X1E
libcollada-dom2.5-dp.so.0:_ZN13ColladaDOM14121COLLADA_TYPE_FIXED1X2E
libcollada-dom2.5-dp.so.0:_ZN13ColladaDOM14121COLLADA_TYPE_FIXED1X3E
libcollada-dom2.5-dp.so.0:_ZN13ColladaDOM14121COLLADA_TYPE_FIXED1X4E
libcollada-dom2.5-dp.so.0:_ZN13ColladaDOM14121COLLADA_TYPE_FIXED2X1E
libcollada-dom2.5-dp.so.0:_ZN13ColladaDOM14121COLLADA_TYPE_FIXED2X2E
libcollada-dom2.5-dp.so.0:_ZN13ColladaDOM14121COLLADA_TYPE_FIXED2X3E
libcollada-dom2.5-dp.so.0:_ZN13ColladaDOM14121COLLADA_TYPE_FIXED2X4E
libcollada-dom2.5-dp.so.0:_ZN13ColladaDOM14121COLLADA_TYPE_FIXED3X1E
libcollada-dom2.5-dp.so.0:_ZN13ColladaDOM14121COLLADA_TYPE_FIXED3X2E
libcollada-dom2.5-dp.so.0:_ZN13ColladaDOM14121COLLADA_TYPE_FIXED3X3E
libcollada-dom2.5-dp.so.0:_ZN13ColladaDOM14121COLLADA_TYPE_FIXED3X4E
libcollada-dom2.5-dp.so.0:_ZN13ColladaDOM14121COLLADA_TYPE_FIXED4X1E
libcollada-dom2.5-dp.so.0:_ZN13ColladaDOM14121COLLADA_TYPE_FIXED4X2E
libcollada-dom2.5-dp.so.0:_ZN13ColladaDOM14121COLLADA_TYPE_FIXED4X3E
libcollada-dom2.5-dp.so.0:_ZN13ColladaDOM14121COLLADA_TYPE_FIXED4X4E
libcollada-dom2.5-dp.so.0:_ZN13ColladaDOM14121COLLADA_TYPE_FLOAT1X1E
libcollada-dom2.5-dp.so.0:_ZN13ColladaDOM14121COLLADA_TYPE_FLOAT1X2E
libcollada-dom2.5-dp.so.0:_ZN13ColladaDOM14121COLLADA_TYPE_FLOAT1X3E
libcollada-dom2.5-dp.so.0:_ZN13ColladaDOM14121COLLADA_TYPE_FLOAT1X4E
libcollada-dom2.5-dp.so.0:_ZN13ColladaDOM14121COLLADA_TYPE_FLOAT2X1E
libcollada-dom2.5-dp.so.0:_ZN13ColladaDOM14121COLLADA_TYPE_FLOAT2X2E
libcollada-dom2.5-dp.so.0:_ZN13ColladaDOM14121COLLADA_TYPE_FLOAT2X3E
libcollada-dom2.5-dp.so.0:_ZN13ColladaDOM14121COLLADA_TYPE_FLOAT2X4E
libcollada-dom2.5-dp.so.0:_ZN13ColladaDOM14121COLLADA_TYPE_FLOAT3X1E
libcollada-dom2.5-dp.so.0:_ZN13ColladaDOM14121COLLADA_TYPE_FLOAT3X2E
libcollada-dom2.5-dp.so.0:_ZN13ColladaDOM14121COLLADA_TYPE_FLOAT3X3E
libcollada-dom2.5-dp.so.0:_ZN13ColladaDOM14121COLLADA_TYPE_FLOAT3X4E
libcollada-dom2.5-dp.so.0:_ZN13ColladaDOM14121COLLADA_TYPE_FLOAT4X1E
libcollada-dom2.5-dp.so.0:_ZN13ColladaDOM14121COLLADA_TYPE_FLOAT4X2E
libcollada-dom2.5-dp.so.0:_ZN13ColladaDOM14121COLLADA_TYPE_FLOAT4X3E
libcollada-dom2.5-dp.so.0:_ZN13ColladaDOM14121COLLADA_TYPE_FLOAT4X4E
libcollada-dom2.5-dp.so.0:_ZN13ColladaDOM14121COLLADA_TYPE_FOG_MODEE
libcollada-dom2.5-dp.so.0:_ZN13ColladaDOM14121COLLADA_TYPE_GEOMETRYE
libcollada-dom2.5-dp.so.0:_ZN13ColladaDOM14121COLLADA_TYPE_KEYWORDSE
libcollada-dom2.5-dp.so.0:_ZN13ColladaDOM14121COLLADA_TYPE_LOGIC_OPE
libcollada-dom2.5-dp.so.0:_ZN13ColladaDOM14121COLLADA_TYPE_MATERIALE
libcollada-dom2.5-dp.so.0:_ZN13ColladaDOM14121COLLADA_TYPE_MODIFIEDE
libcollada-dom2.5-dp.so.0:_ZN13ColladaDOM14121COLLADA_TYPE_MODIFIERE
libcollada-dom2.5-dp.so.0:_ZN13ColladaDOM14121COLLADA_TYPE_POLYGONSE
libcollada-dom2.5-dp.so.0:_ZN13ColladaDOM14121COLLADA_TYPE_POLYLISTE
libcollada-dom2.5-dp.so.0:_ZN13ColladaDOM14121COLLADA_TYPE_REVISIONE
libcollada-dom2.5-dp.so.0:_ZN13ColladaDOM14121COLLADA_TYPE_SEMANTICE
libcollada-dom2.5-dp.so.0:_ZN13ColladaDOM14121COLLADA_TYPE_SETPARAME
libcollada-dom2.5-dp.so.0:_ZN13ColladaDOM14121COLLADA_TYPE_SKELETONE
libcollada-dom2.5-dp.so.0:_ZN13ColladaDOM14121COLLADA_TYPE_TEXCOORDE
libcollada-dom2.5-dp.so.0:_ZN13ColladaDOM14121COLLADA_TYPE_VELOCITYE
libcollada-dom2.5-dp.so.0:_ZN13ColladaDOM14121COLLADA_TYPE_VERTICESE
libcollada-dom2.5-dp.so.0:_ZN13ColladaDOM14121domCg_setparam_simple15registerElementER3DAE
libcollada-dom2.5-dp.so.0:_ZN13ColladaDOM14121domCg_setparam_simple6createER3DAE
libcollada-dom2.5-dp.so.0:_ZN13ColladaDOM14121domFx_annotate_common15registerElementER3DAE
libcollada-dom2.5-dp.so.0:_ZN13ColladaDOM14121domFx_annotate_common6createER3DAE
libcollada-dom2.5-dp.so.0:_ZN13ColladaDOM14121domFx_newparam_common15registerElementER3DAE
libcollada-dom2.5-dp.so.0:_ZN13ColladaDOM14121domFx_newparam_common6createER3DAE
libcollada-dom2.5-dp.so.0:_ZN13ColladaDOM14121domGles_sampler_state15registerElementER3DAE
libcollada-dom2.5-dp.so.0:_ZN13ColladaDOM14121domGles_sampler_state6createER3DAE
libcollada-dom2.5-dp.so.0:_ZN13ColladaDOM14121domGlsl_newarray_type15registerElementER3DAE
libcollada-dom2.5-dp.so.0:_ZN13ColladaDOM14121domGlsl_newarray_type6createER3DAE
libcollada-dom2.5-dp.so.0:_ZN13ColladaDOM14121domGlsl_setarray_type15registerElementER3DAE
libcollada-dom2.5-dp.so.0:_ZN13ColladaDOM14121domGlsl_setarray_type6createER3DAE
libcollada-dom2.5-dp.so.0:_ZN13ColladaDOM14121domLibrary_animations15registerElementER3DAE
libcollada-dom2.5-dp.so.0:_ZN13ColladaDOM14121domLibrary_animations6createER3DAE
libcollada-dom2.5-dp.so.0:_ZN13ColladaDOM14121domLibrary_geometries15registerElementER3DAE
libcollada-dom2.5-dp.so.0:_ZN13ColladaDOM14121domLibrary_geometries6createER3DAE
libcollada-dom2.5-dp.so.0:_ZN13ColladaDOM14122COLLADA_ELEMENT_AUTHORE
libcollada-dom2.5-dp.so.0:_ZN13ColladaDOM14122COLLADA_ELEMENT_CAMERAE
libcollada-dom2.5-dp.so.0:_ZN13ColladaDOM14122COLLADA_ELEMENT_EFFECTE
libcollada-dom2.5-dp.so.0:_ZN13ColladaDOM14122COLLADA_ELEMENT_FIXED1E
libcollada-dom2.5-dp.so.0:_ZN13ColladaDOM14122COLLADA_ELEMENT_FIXED2E
libcollada-dom2.5-dp.so.0:_ZN13ColladaDOM14122COLLADA_ELEMENT_FIXED3E
libcollada-dom2.5-dp.so.0:_ZN13ColladaDOM14122COLLADA_ELEMENT_FIXED4E
libcollada-dom2.5-dp.so.0:_ZN13ColladaDOM14122COLLADA_ELEMENT_FLOAT1E
libcollada-dom2.5-dp.so.0:_ZN13ColladaDOM14122COLLADA_ELEMENT_FLOAT2E
libcollada-dom2.5-dp.so.0:_ZN13ColladaDOM14122COLLADA_ELEMENT_FLOAT3E
libcollada-dom2.5-dp.so.0:_ZN13ColladaDOM14122COLLADA_ELEMENT_FLOAT4E
libcollada-dom2.5-dp.so.0:_ZN13ColladaDOM14122COLLADA_ELEMENT_FORMATE
libcollada-dom2.5-dp.so.0:_ZN13ColladaDOM14122COLLADA_ELEMENT_HEIGHTE
libcollada-dom2.5-dp.so.0:_ZN13ColladaDOM14122COLLADA_ELEMENT_HOLLOWE
libcollada-dom2.5-dp.so.0:_ZN13ColladaDOM14122COLLADA_ELEMENT_IMAGERE
libcollada-dom2.5-dp.so.0:_ZN13ColladaDOM14122COLLADA_ELEMENT_INT1X1E
libcollada-dom2.5-dp.so.0:_ZN13ColladaDOM14122COLLADA_ELEMENT_INT1X2E
libcollada-dom2.5-dp.so.0:_ZN13ColladaDOM14122COLLADA_ELEMENT_INT1X3E
libcollada-dom2.5-dp.so.0:_ZN13ColladaDOM14122COLLADA_ELEMENT_INT1X4E
libcollada-dom2.5-dp.so.0:_ZN13ColladaDOM14122COLLADA_ELEMENT_INT2X1E
libcollada-dom2.5-dp.so.0:_ZN13ColladaDOM14122COLLADA_ELEMENT_INT2X2E
libcollada-dom2.5-dp.so.0:_ZN13ColladaDOM14122COLLADA_ELEMENT_INT2X3E
libcollada-dom2.5-dp.so.0:_ZN13ColladaDOM14122COLLADA_ELEMENT_INT2X4E
libcollada-dom2.5-dp.so.0:_ZN13ColladaDOM14122COLLADA_ELEMENT_INT3X1E
libcollada-dom2.5-dp.so.0:_ZN13ColladaDOM14122COLLADA_ELEMENT_INT3X2E
libcollada-dom2.5-dp.so.0:_ZN13ColladaDOM14122COLLADA_ELEMENT_INT3X3E
libcollada-dom2.5-dp.so.0:_ZN13ColladaDOM14122COLLADA_ELEMENT_INT3X4E
libcollada-dom2.5-dp.so.0:_ZN13ColladaDOM14122COLLADA_ELEMENT_INT4X1E
libcollada-dom2.5-dp.so.0:_ZN13ColladaDOM14122COLLADA_ELEMENT_INT4X2E
libcollada-dom2.5-dp.so.0:_ZN13ColladaDOM14122COLLADA_ELEMENT_INT4X3E
libcollada-dom2.5-dp.so.0:_ZN13ColladaDOM14122COLLADA_ELEMENT_INT4X4E
libcollada-dom2.5-dp.so.0:_ZN13ColladaDOM14122COLLADA_ELEMENT_JOINTSE
libcollada-dom2.5-dp.so.0:_ZN13ColladaDOM14122COLLADA_ELEMENT_LIMITSE
libcollada-dom2.5-dp.so.0:_ZN13ColladaDOM14122COLLADA_ELEMENT_LINEARE
libcollada-dom2.5-dp.so.0:_ZN13ColladaDOM14122COLLADA_ELEMENT_LOOKATE
libcollada-dom2.5-dp.so.0:_ZN13ColladaDOM14122COLLADA_ELEMENT_MATRIXE
libcollada-dom2.5-dp.so.0:_ZN13ColladaDOM14122COLLADA_ELEMENT_OPTICSE
libcollada-dom2.5-dp.so.0:_ZN13ColladaDOM14122COLLADA_ELEMENT_OPTIONE
libcollada-dom2.5-dp.so.0:_ZN13ColladaDOM14122COLLADA_ELEMENT_RADIUSE
libcollada-dom2.5-dp.so.0:_ZN13ColladaDOM14122COLLADA_ELEMENT_RENDERE
libcollada-dom2.5-dp.so.0:_ZN13ColladaDOM14122COLLADA_ELEMENT_ROTATEE
libcollada-dom2.5-dp.so.0:_ZN13ColladaDOM14122COLLADA_ELEMENT_SHADERE
libcollada-dom2.5-dp.so.0:_ZN13ColladaDOM14122COLLADA_ELEMENT_SOURCEE
libcollada-dom2.5-dp.so.0:_ZN13ColladaDOM14122COLLADA_ELEMENT_SPHEREE
libcollada-dom2.5-dp.so.0:_ZN13ColladaDOM14122COLLADA_ELEMENT_SPLINEE
libcollada-dom2.5-dp.so.0:_ZN13ColladaDOM14122COLLADA_ELEMENT_SPRINGE
libcollada-dom2.5-dp.so.0:_ZN13ColladaDOM14122COLLADA_ELEMENT_STRINGE
libcollada-dom2.5-dp.so.0:_ZN13ColladaDOM14122COLLADA_ELEMENT_TEXENVE
libcollada-dom2.5-dp.so.0:_ZN13ColladaDOM14122COLLADA_ELEMENT_VCOUNTE
libcollada-dom2.5-dp.so.0:_ZN13ColladaDOM14122COLLADA_ELEMENT_WRAP_PE
libcollada-dom2.5-dp.so.0:_ZN13ColladaDOM14122COLLADA_ELEMENT_WRAP_SE
libcollada-dom2.5-dp.so.0:_ZN13ColladaDOM14122COLLADA_ELEMENT_WRAP_TE
libcollada-dom2.5-dp.so.0:_ZN13ColladaDOM14122COLLADA_TYPE_ANIMATIONE
libcollada-dom2.5-dp.so.0:_ZN13ColladaDOM14122COLLADA_TYPE_COPYRIGHTE
libcollada-dom2.5-dp.so.0:_ZN13ColladaDOM14122COLLADA_TYPE_CULL_FACEE
libcollada-dom2.5-dp.so.0:_ZN13ColladaDOM14122COLLADA_TYPE_ELLIPSOIDE
libcollada-dom2.5-dp.so.0:_ZN13ColladaDOM14122COLLADA_TYPE_FOG_COLORE
libcollada-dom2.5-dp.so.0:_ZN13ColladaDOM14122COLLADA_TYPE_FOG_STARTE
libcollada-dom2.5-dp.so.0:_ZN13ColladaDOM14122COLLADA_TYPE_GENERATORE
libcollada-dom2.5-dp.so.0:_ZN13ColladaDOM14122COLLADA_TYPE_INIT_FROME
libcollada-dom2.5-dp.so.0:_ZN13ColladaDOM14122COLLADA_TYPE_INT_ARRAYE
libcollada-dom2.5-dp.so.0:_ZN13ColladaDOM14122COLLADA_TYPE_MAGFILTERE
libcollada-dom2.5-dp.so.0:_ZN13ColladaDOM14122COLLADA_TYPE_MINFILTERE
libcollada-dom2.5-dp.so.0:_ZN13ColladaDOM14122COLLADA_TYPE_MIPFILTERE
libcollada-dom2.5-dp.so.0:_ZN13ColladaDOM14122COLLADA_TYPE_PRECISIONE
libcollada-dom2.5-dp.so.0:_ZN13ColladaDOM14122COLLADA_TYPE_SRC_ALPHAE
libcollada-dom2.5-dp.so.0:_ZN13ColladaDOM14122COLLADA_TYPE_TECHNIQUEE
libcollada-dom2.5-dp.so.0:_ZN13ColladaDOM14122COLLADA_TYPE_TEXTURE1DE
libcollada-dom2.5-dp.so.0:_ZN13ColladaDOM14122COLLADA_TYPE_TEXTURE2DE
libcollada-dom2.5-dp.so.0:_ZN13ColladaDOM14122COLLADA_TYPE_TEXTURE3DE
libcollada-dom2.5-dp.so.0:_ZN13ColladaDOM14122COLLADA_TYPE_TRANSLATEE
libcollada-dom2.5-dp.so.0:_ZN13ColladaDOM14122COLLADA_TYPE_TRIANGLESE
libcollada-dom2.5-dp.so.0:_ZN13ColladaDOM14122COLLADA_TYPE_TRISTRIPSE
libcollada-dom2.5-dp.so.0:_ZN13ColladaDOM14122COMMON_PROFILE_PARAM_AE
libcollada-dom2.5-dp.so.0:_ZN13ColladaDOM14122COMMON_PROFILE_PARAM_BE
libcollada-dom2.5-dp.so.0:_ZN13ColladaDOM14122COMMON_PROFILE_PARAM_GE
libcollada-dom2.5-dp.so.0:_ZN13ColladaDOM14122COMMON_PROFILE_PARAM_PE
libcollada-dom2.5-dp.so.0:_ZN13ColladaDOM14122COMMON_PROFILE_PARAM_QE
libcollada-dom2.5-dp.so.0:_ZN13ColladaDOM14122COMMON_PROFILE_PARAM_RE
libcollada-dom2.5-dp.so.0:_ZN13ColladaDOM14122COMMON_PROFILE_PARAM_SE
libcollada-dom2.5-dp.so.0:_ZN13ColladaDOM14122COMMON_PROFILE_PARAM_TE
libcollada-dom2.5-dp.so.0:_ZN13ColladaDOM14122COMMON_PROFILE_PARAM_UE
libcollada-dom2.5-dp.so.0:_ZN13ColladaDOM14122COMMON_PROFILE_PARAM_VE
libcollada-dom2.5-dp.so.0:_ZN13ColladaDOM14122COMMON_PROFILE_PARAM_WE
libcollada-dom2.5-dp.so.0:_ZN13ColladaDOM14122COMMON_PROFILE_PARAM_XE
libcollada-dom2.5-dp.so.0:_ZN13ColladaDOM14122COMMON_PROFILE_PARAM_YE
libcollada-dom2.5-dp.so.0:_ZN13ColladaDOM14122COMMON_PROFILE_PARAM_ZE
libcollada-dom2.5-dp.so.0:_ZN13ColladaDOM14122domFx_profile_abstract15registerElementER3DAE
libcollada-dom2.5-dp.so.0:_ZN13ColladaDOM14122domFx_profile_abstract6createER3DAE
libcollada-dom2.5-dp.so.0:_ZN13ColladaDOM14122domFx_sampler1D_common15registerElementER3DAE
libcollada-dom2.5-dp.so.0:_ZN13ColladaDOM14122domFx_sampler1D_common6createER3DAE
libcollada-dom2.5-dp.so.0:_ZN13ColladaDOM14122domFx_sampler2D_common15registerElementER3DAE
libcollada-dom2.5-dp.so.0:_ZN13ColladaDOM14122domFx_sampler2D_common6createER3DAE
libcollada-dom2.5-dp.so.0:_ZN13ColladaDOM14122domFx_sampler3D_common15registerElementER3DAE
libcollada-dom2.5-dp.so.0:_ZN13ColladaDOM14122domFx_sampler3D_common6createER3DAE
libcollada-dom2.5-dp.so.0:_ZN13ColladaDOM14122domInstance_controller11domSkeleton15registerElementER3DAE
libcollada-dom2.5-dp.so.0:_ZN13ColladaDOM14122domInstance_controller11domSkeleton6createER3DAE
libcollada-dom2.5-dp.so.0:_ZN13ColladaDOM14122domInstance_controller15registerElementER3DAE
libcollada-dom2.5-dp.so.0:_ZN13ColladaDOM14122domInstance_controller6createER3DAE
libcollada-dom2.5-dp.so.0:_ZN13ColladaDOM14122domInstance_rigid_body15registerElementER3DAE
libcollada-dom2.5-dp.so.0:_ZN13ColladaDOM14122domInstance_rigid_body19domTechnique_common10domDynamic15registerElementER3DAE
libcollada-dom2.5-dp.so.0:_ZN13ColladaDOM14122domInstance_rigid_body19domTechnique_common10domDynamic6createER3DAE
libcollada-dom2.5-dp.so.0:_ZN13ColladaDOM14122domInstance_rigid_body19domTechnique_common11domVelocity15registerElementER3DAE
libcollada-dom2.5-dp.so.0:_ZN13ColladaDOM14122domInstance_rigid_body19domTechnique_common11domVelocity6createER3DAE
libcollada-dom2.5-dp.so.0:_ZN13ColladaDOM14122domInstance_rigid_body19domTechnique_common13domMass_frame15registerElementER3DAE
libcollada-dom2.5-dp.so.0:_ZN13ColladaDOM14122domInstance_rigid_body19domTechnique_common13domMass_frame6createER3DAE
libcollada-dom2.5-dp.so.0:_ZN13ColladaDOM14122domInstance_rigid_body19domTechnique_common15registerElementER3DAE
libcollada-dom2.5-dp.so.0:_ZN13ColladaDOM14122domInstance_rigid_body19domTechnique_common19domAngular_velocity15registerElementER3DAE
libcollada-dom2.5-dp.so.0:_ZN13ColladaDOM14122domInstance_rigid_body19domTechnique_common19domAngular_velocity6createER3DAE
libcollada-dom2.5-dp.so.0:_ZN13ColladaDOM14122domInstance_rigid_body19domTechnique_common6createER3DAE
libcollada-dom2.5-dp.so.0:_ZN13ColladaDOM14122domInstance_rigid_body19domTechnique_common8domShape15registerElementER3DAE
libcollada-dom2.5-dp.so.0:_ZN13ColladaDOM14122domInstance_rigid_body19domTechnique_common8domShape6createER3DAE
libcollada-dom2.5-dp.so.0:_ZN13ColladaDOM14122domInstance_rigid_body19domTechnique_common8domShape9domHollow15registerElementER3DAE
libcollada-dom2.5-dp.so.0:_ZN13ColladaDOM14122domInstance_rigid_body19domTechnique_common8domShape9domHollow6createER3DAE
libcollada-dom2.5-dp.so.0:_ZN13ColladaDOM14122domInstance_rigid_body6createER3DAE
libcollada-dom2.5-dp.so.0:_ZN13ColladaDOM14122domLibrary_controllers15registerElementER3DAE
libcollada-dom2.5-dp.so.0:_ZN13ColladaDOM14122domLibrary_controllers6createER3DAE
libcollada-dom2.5-dp.so.0:_ZN13ColladaDOM14123COLLADA_ELEMENT_AMBIENTE
libcollada-dom2.5-dp.so.0:_ZN13ColladaDOM14123COLLADA_ELEMENT_ANGULARE
libcollada-dom2.5-dp.so.0:_ZN13ColladaDOM14123COLLADA_ELEMENT_BOOL1X1E
libcollada-dom2.5-dp.so.0:_ZN13ColladaDOM14123COLLADA_ELEMENT_BOOL1X2E
libcollada-dom2.5-dp.so.0:_ZN13ColladaDOM14123COLLADA_ELEMENT_BOOL1X3E
libcollada-dom2.5-dp.so.0:_ZN13ColladaDOM14123COLLADA_ELEMENT_BOOL1X4E
libcollada-dom2.5-dp.so.0:_ZN13ColladaDOM14123COLLADA_ELEMENT_BOOL2X1E
libcollada-dom2.5-dp.so.0:_ZN13ColladaDOM14123COLLADA_ELEMENT_BOOL2X2E
libcollada-dom2.5-dp.so.0:_ZN13ColladaDOM14123COLLADA_ELEMENT_BOOL2X3E
libcollada-dom2.5-dp.so.0:_ZN13ColladaDOM14123COLLADA_ELEMENT_BOOL2X4E
libcollada-dom2.5-dp.so.0:_ZN13ColladaDOM14123COLLADA_ELEMENT_BOOL3X1E
libcollada-dom2.5-dp.so.0:_ZN13ColladaDOM14123COLLADA_ELEMENT_BOOL3X2E
libcollada-dom2.5-dp.so.0:_ZN13ColladaDOM14123COLLADA_ELEMENT_BOOL3X3E
libcollada-dom2.5-dp.so.0:_ZN13ColladaDOM14123COLLADA_ELEMENT_BOOL3X4E
libcollada-dom2.5-dp.so.0:_ZN13ColladaDOM14123COLLADA_ELEMENT_BOOL4X1E
libcollada-dom2.5-dp.so.0:_ZN13ColladaDOM14123COLLADA_ELEMENT_BOOL4X2E
libcollada-dom2.5-dp.so.0:_ZN13ColladaDOM14123COLLADA_ELEMENT_BOOL4X3E
libcollada-dom2.5-dp.so.0:_ZN13ColladaDOM14123COLLADA_ELEMENT_BOOL4X4E
libcollada-dom2.5-dp.so.0:_ZN13ColladaDOM14123COLLADA_ELEMENT_CAPSULEE
libcollada-dom2.5-dp.so.0:_ZN13ColladaDOM14123COLLADA_ELEMENT_CHANNELE
libcollada-dom2.5-dp.so.0:_ZN13ColladaDOM14123COLLADA_ELEMENT_COLLADAE
libcollada-dom2.5-dp.so.0:_ZN13ColladaDOM14123COLLADA_ELEMENT_CREATEDE
libcollada-dom2.5-dp.so.0:_ZN13ColladaDOM14123COLLADA_ELEMENT_DAMPINGE
libcollada-dom2.5-dp.so.0:_ZN13ColladaDOM14123COLLADA_ELEMENT_DENSITYE
libcollada-dom2.5-dp.so.0:_ZN13ColladaDOM14123COLLADA_ELEMENT_DIFFUSEE
libcollada-dom2.5-dp.so.0:_ZN13ColladaDOM14123COLLADA_ELEMENT_DYNAMICE
libcollada-dom2.5-dp.so.0:_ZN13ColladaDOM14123COLLADA_ELEMENT_ENABLEDE
libcollada-dom2.5-dp.so.0:_ZN13ColladaDOM14123COLLADA_ELEMENT_FOG_ENDE
libcollada-dom2.5-dp.so.0:_ZN13ColladaDOM14123COLLADA_ELEMENT_GRAVITYE
libcollada-dom2.5-dp.so.0:_ZN13ColladaDOM14123COLLADA_ELEMENT_HALF1X1E
libcollada-dom2.5-dp.so.0:_ZN13ColladaDOM14123COLLADA_ELEMENT_HALF1X2E
libcollada-dom2.5-dp.so.0:_ZN13ColladaDOM14123COLLADA_ELEMENT_HALF1X3E
libcollada-dom2.5-dp.so.0:_ZN13ColladaDOM14123COLLADA_ELEMENT_HALF1X4E
libcollada-dom2.5-dp.so.0:_ZN13ColladaDOM14123COLLADA_ELEMENT_HALF2X1E
libcollada-dom2.5-dp.so.0:_ZN13ColladaDOM14123COLLADA_ELEMENT_HALF2X2E
libcollada-dom2.5-dp.so.0:_ZN13ColladaDOM14123COLLADA_ELEMENT_HALF2X3E
libcollada-dom2.5-dp.so.0:_ZN13ColladaDOM14123COLLADA_ELEMENT_HALF2X4E
libcollada-dom2.5-dp.so.0:_ZN13ColladaDOM14123COLLADA_ELEMENT_HALF3X1E
libcollada-dom2.5-dp.so.0:_ZN13ColladaDOM14123COLLADA_ELEMENT_HALF3X2E
libcollada-dom2.5-dp.so.0:_ZN13ColladaDOM14123COLLADA_ELEMENT_HALF3X3E
libcollada-dom2.5-dp.so.0:_ZN13ColladaDOM14123COLLADA_ELEMENT_HALF3X4E
libcollada-dom2.5-dp.so.0:_ZN13ColladaDOM14123COLLADA_ELEMENT_HALF4X1E
libcollada-dom2.5-dp.so.0:_ZN13ColladaDOM14123COLLADA_ELEMENT_HALF4X2E
libcollada-dom2.5-dp.so.0:_ZN13ColladaDOM14123COLLADA_ELEMENT_HALF4X3E
libcollada-dom2.5-dp.so.0:_ZN13ColladaDOM14123COLLADA_ELEMENT_HALF4X4E
libcollada-dom2.5-dp.so.0:_ZN13ColladaDOM14123COLLADA_ELEMENT_INCLUDEE
libcollada-dom2.5-dp.so.0:_ZN13ColladaDOM14123COLLADA_ELEMENT_INERTIAE
libcollada-dom2.5-dp.so.0:_ZN13ColladaDOM14123COLLADA_ELEMENT_LAMBERTE
libcollada-dom2.5-dp.so.0:_ZN13ColladaDOM14123COLLADA_ELEMENT_PRIMARYE
libcollada-dom2.5-dp.so.0:_ZN13ColladaDOM14123COLLADA_ELEMENT_RADIUS1E
libcollada-dom2.5-dp.so.0:_ZN13ColladaDOM14123COLLADA_ELEMENT_RADIUS2E
libcollada-dom2.5-dp.so.0:_ZN13ColladaDOM14123COLLADA_ELEMENT_SAMPLERE
libcollada-dom2.5-dp.so.0:_ZN13ColladaDOM14123COLLADA_ELEMENT_SCISSORE
libcollada-dom2.5-dp.so.0:_ZN13ColladaDOM14123COLLADA_ELEMENT_SRC_RGBE
libcollada-dom2.5-dp.so.0:_ZN13ColladaDOM14123COLLADA_ELEMENT_SUBJECTE
libcollada-dom2.5-dp.so.0:_ZN13ColladaDOM14123COLLADA_ELEMENT_SURFACEE
libcollada-dom2.5-dp.so.0:_ZN13ColladaDOM14123COLLADA_ELEMENT_TARGETSE
libcollada-dom2.5-dp.so.0:_ZN13ColladaDOM14123COLLADA_ELEMENT_TEXTUREE
libcollada-dom2.5-dp.so.0:_ZN13ColladaDOM14123COLLADA_ELEMENT_TRIFANSE
libcollada-dom2.5-dp.so.0:_ZN13ColladaDOM14123COLLADA_ELEMENT_UP_AXISE
libcollada-dom2.5-dp.so.0:_ZN13ColladaDOM14123COLLADA_TYPE_ALPHA_FUNCE
libcollada-dom2.5-dp.so.0:_ZN13ColladaDOM14123COLLADA_TYPE_ATTACHMENTE
libcollada-dom2.5-dp.so.0:_ZN13ColladaDOM14123COLLADA_TYPE_BLEND_FUNCE
libcollada-dom2.5-dp.so.0:_ZN13ColladaDOM14123COLLADA_TYPE_BOOL_ARRAYE
libcollada-dom2.5-dp.so.0:_ZN13ColladaDOM14123COLLADA_TYPE_CLIP_PLANEE
libcollada-dom2.5-dp.so.0:_ZN13ColladaDOM14123COLLADA_TYPE_COLOR_MASKE
libcollada-dom2.5-dp.so.0:_ZN13ColladaDOM14123COLLADA_TYPE_CONTROLLERE
libcollada-dom2.5-dp.so.0:_ZN13ColladaDOM14123COLLADA_TYPE_DEPTH_FUNCE
libcollada-dom2.5-dp.so.0:_ZN13ColladaDOM14123COLLADA_TYPE_DEPTH_MASKE
libcollada-dom2.5-dp.so.0:_ZN13ColladaDOM14123COLLADA_TYPE_DEST_ALPHAE
libcollada-dom2.5-dp.so.0:_ZN13ColladaDOM14123COLLADA_TYPE_FOG_ENABLEE
libcollada-dom2.5-dp.so.0:_ZN13ColladaDOM14123COLLADA_TYPE_FRONT_FACEE
libcollada-dom2.5-dp.so.0:_ZN13ColladaDOM14123COLLADA_TYPE_INPUTLOCALE
libcollada-dom2.5-dp.so.0:_ZN13ColladaDOM14123COLLADA_TYPE_LINESTRIPSE
libcollada-dom2.5-dp.so.0:_ZN13ColladaDOM14123COLLADA_TYPE_LINE_WIDTHE
libcollada-dom2.5-dp.so.0:_ZN13ColladaDOM14123COLLADA_TYPE_MASS_FRAMEE
libcollada-dom2.5-dp.so.0:_ZN13ColladaDOM14123COLLADA_TYPE_MIP_LEVELSE
libcollada-dom2.5-dp.so.0:_ZN13ColladaDOM14123COLLADA_TYPE_NAME_ARRAYE
libcollada-dom2.5-dp.so.0:_ZN13ColladaDOM14123COLLADA_TYPE_POINT_SIZEE
libcollada-dom2.5-dp.so.0:_ZN13ColladaDOM14123COLLADA_TYPE_PROFILE_CGE
libcollada-dom2.5-dp.so.0:_ZN13ColladaDOM14123COLLADA_TYPE_RIGID_BODYE
libcollada-dom2.5-dp.so.0:_ZN13ColladaDOM14123COLLADA_TYPE_STENCIL_OPE
libcollada-dom2.5-dp.so.0:_ZN13ColladaDOM14123COMMON_PROFILE_INPUT_UVE
libcollada-dom2.5-dp.so.0:_ZN13ColladaDOM14123domCommon_newparam_type15registerElementER3DAE
libcollada-dom2.5-dp.so.0:_ZN13ColladaDOM14123domCommon_newparam_type6createER3DAE
libcollada-dom2.5-dp.so.0:_ZN13ColladaDOM14123domFx_basic_type_common11domFloat1x115registerElementER3DAE
libcollada-dom2.5-dp.so.0:_ZN13ColladaDOM14123domFx_basic_type_common11domFloat1x16createER3DAE
libcollada-dom2.5-dp.so.0:_ZN13ColladaDOM14123domFx_basic_type_common11domFloat1x215registerElementER3DAE
libcollada-dom2.5-dp.so.0:_ZN13ColladaDOM14123domFx_basic_type_common11domFloat1x26createER3DAE
libcollada-dom2.5-dp.so.0:_ZN13ColladaDOM14123domFx_basic_type_common11domFloat1x315registerElementER3DAE
libcollada-dom2.5-dp.so.0:_ZN13ColladaDOM14123domFx_basic_type_common11domFloat1x36createER3DAE
libcollada-dom2.5-dp.so.0:_ZN13ColladaDOM14123domFx_basic_type_common11domFloat1x415registerElementER3DAE
libcollada-dom2.5-dp.so.0:_ZN13ColladaDOM14123domFx_basic_type_common11domFloat1x46createER3DAE
libcollada-dom2.5-dp.so.0:_ZN13ColladaDOM14123domFx_basic_type_common11domFloat2x115registerElementER3DAE
libcollada-dom2.5-dp.so.0:_ZN13ColladaDOM14123domFx_basic_type_common11domFloat2x16createER3DAE
libcollada-dom2.5-dp.so.0:_ZN13ColladaDOM14123domFx_basic_type_common11domFloat2x215registerElementER3DAE
libcollada-dom2.5-dp.so.0:_ZN13ColladaDOM14123domFx_basic_type_common11domFloat2x26createER3DAE
libcollada-dom2.5-dp.so.0:_ZN13ColladaDOM14123domFx_basic_type_common11domFloat2x315registerElementER3DAE
libcollada-dom2.5-dp.so.0:_ZN13ColladaDOM14123domFx_basic_type_common11domFloat2x36createER3DAE
libcollada-dom2.5-dp.so.0:_ZN13ColladaDOM14123domFx_basic_type_common11domFloat2x415registerElementER3DAE
libcollada-dom2.5-dp.so.0:_ZN13ColladaDOM14123domFx_basic_type_common11domFloat2x46createER3DAE
libcollada-dom2.5-dp.so.0:_ZN13ColladaDOM14123domFx_basic_type_common11domFloat3x115registerElementER3DAE
libcollada-dom2.5-dp.so.0:_ZN13ColladaDOM14123domFx_basic_type_common11domFloat3x16createER3DAE
libcollada-dom2.5-dp.so.0:_ZN13ColladaDOM14123domFx_basic_type_common11domFloat3x215registerElementER3DAE
libcollada-dom2.5-dp.so.0:_ZN13ColladaDOM14123domFx_basic_type_common11domFloat3x26createER3DAE
libcollada-dom2.5-dp.so.0:_ZN13ColladaDOM14123domFx_basic_type_common11domFloat3x315registerElementER3DAE
libcollada-dom2.5-dp.so.0:_ZN13ColladaDOM14123domFx_basic_type_common11domFloat3x36createER3DAE
libcollada-dom2.5-dp.so.0:_ZN13ColladaDOM14123domFx_basic_type_common11domFloat3x415registerElementER3DAE
libcollada-dom2.5-dp.so.0:_ZN13ColladaDOM14123domFx_basic_type_common11domFloat3x46createER3DAE
libcollada-dom2.5-dp.so.0:_ZN13ColladaDOM14123domFx_basic_type_common11domFloat4x115registerElementER3DAE
libcollada-dom2.5-dp.so.0:_ZN13ColladaDOM14123domFx_basic_type_common11domFloat4x16createER3DAE
libcollada-dom2.5-dp.so.0:_ZN13ColladaDOM14123domFx_basic_type_common11domFloat4x215registerElementER3DAE
libcollada-dom2.5-dp.so.0:_ZN13ColladaDOM14123domFx_basic_type_common11domFloat4x26createER3DAE
libcollada-dom2.5-dp.so.0:_ZN13ColladaDOM14123domFx_basic_type_common11domFloat4x315registerElementER3DAE
libcollada-dom2.5-dp.so.0:_ZN13ColladaDOM14123domFx_basic_type_common11domFloat4x36createER3DAE
libcollada-dom2.5-dp.so.0:_ZN13ColladaDOM14123domFx_basic_type_common11domFloat4x415registerElementER3DAE
libcollada-dom2.5-dp.so.0:_ZN13ColladaDOM14123domFx_basic_type_common11domFloat4x46createER3DAE
libcollada-dom2.5-dp.so.0:_ZN13ColladaDOM14123domFx_basic_type_common15registerElementER3DAE
libcollada-dom2.5-dp.so.0:_ZN13ColladaDOM14123domFx_basic_type_common6createER3DAE
libcollada-dom2.5-dp.so.0:_ZN13ColladaDOM14123domFx_basic_type_common6domInt15registerElementER3DAE
libcollada-dom2.5-dp.so.0:_ZN13ColladaDOM14123domFx_basic_type_common6domInt6createER3DAE
libcollada-dom2.5-dp.so.0:_ZN13ColladaDOM14123domFx_basic_type_common7domBool15registerElementER3DAE
libcollada-dom2.5-dp.so.0:_ZN13ColladaDOM14123domFx_basic_type_common7domBool6createER3DAE
libcollada-dom2.5-dp.so.0:_ZN13ColladaDOM14123domFx_basic_type_common7domEnum15registerElementER3DAE
libcollada-dom2.5-dp.so.0:_ZN13ColladaDOM14123domFx_basic_type_common7domEnum6createER3DAE
libcollada-dom2.5-dp.so.0:_ZN13ColladaDOM14123domFx_basic_type_common7domInt215registerElementER3DAE
libcollada-dom2.5-dp.so.0:_ZN13ColladaDOM14123domFx_basic_type_common7domInt26createER3DAE
libcollada-dom2.5-dp.so.0:_ZN13ColladaDOM14123domFx_basic_type_common7domInt315registerElementER3DAE
libcollada-dom2.5-dp.so.0:_ZN13ColladaDOM14123domFx_basic_type_common7domInt36createER3DAE
libcollada-dom2.5-dp.so.0:_ZN13ColladaDOM14123domFx_basic_type_common7domInt415registerElementER3DAE
libcollada-dom2.5-dp.so.0:_ZN13ColladaDOM14123domFx_basic_type_common7domInt46createER3DAE
libcollada-dom2.5-dp.so.0:_ZN13ColladaDOM14123domFx_basic_type_common8domBool215registerElementER3DAE
libcollada-dom2.5-dp.so.0:_ZN13ColladaDOM14123domFx_basic_type_common8domBool26createER3DAE
libcollada-dom2.5-dp.so.0:_ZN13ColladaDOM14123domFx_basic_type_common8domBool315registerElementER3DAE
libcollada-dom2.5-dp.so.0:_ZN13ColladaDOM14123domFx_basic_type_common8domBool36createER3DAE
libcollada-dom2.5-dp.so.0:_ZN13ColladaDOM14123domFx_basic_type_common8domBool415registerElementER3DAE
libcollada-dom2.5-dp.so.0:_ZN13ColladaDOM14123domFx_basic_type_common8domBool46createER3DAE
libcollada-dom2.5-dp.so.0:_ZN13ColladaDOM14123domFx_basic_type_common8domFloat15registerElementER3DAE
libcollada-dom2.5-dp.so.0:_ZN13ColladaDOM14123domFx_basic_type_common8domFloat6createER3DAE
libcollada-dom2.5-dp.so.0:_ZN13ColladaDOM14123domFx_basic_type_common9domFloat215registerElementER3DAE
libcollada-dom2.5-dp.so.0:_ZN13ColladaDOM14123domFx_basic_type_common9domFloat26createER3DAE
libcollada-dom2.5-dp.so.0:_ZN13ColladaDOM14123domFx_basic_type_common9domFloat315registerElementER3DAE
libcollada-dom2.5-dp.so.0:_ZN13ColladaDOM14123domFx_basic_type_common9domFloat36createER3DAE
libcollada-dom2.5-dp.so.0:_ZN13ColladaDOM14123domFx_basic_type_common9domFloat415registerElementER3DAE
libcollada-dom2.5-dp.so.0:_ZN13ColladaDOM14123domFx_basic_type_common9domFloat46createER3DAE
libcollada-dom2.5-dp.so.0:_ZN13ColladaDOM14123domFx_clearcolor_common15registerElementER3DAE
libcollada-dom2.5-dp.so.0:_ZN13ColladaDOM14123domFx_clearcolor_common6createER3DAE
libcollada-dom2.5-dp.so.0:_ZN13ColladaDOM14123domFx_cleardepth_common15registerElementER3DAE
libcollada-dom2.5-dp.so.0:_ZN13ColladaDOM14123domFx_cleardepth_common6createER3DAE
libcollada-dom2.5-dp.so.0:_ZN13ColladaDOM14123domGl_pipeline_settings10domFog_end15registerElementER3DAE
libcollada-dom2.5-dp.so.0:_ZN13ColladaDOM14123domGl_pipeline_settings10domFog_end6createER3DAE
libcollada-dom2.5-dp.so.0:_ZN13ColladaDOM14123domGl_pipeline_settings10domScissor15registerElementER3DAE
libcollada-dom2.5-dp.so.0:_ZN13ColladaDOM14123domGl_pipeline_settings10domScissor6createER3DAE
libcollada-dom2.5-dp.so.0:_ZN13ColladaDOM14123domGl_pipeline_settings11domFog_mode15registerElementER3DAE
libcollada-dom2.5-dp.so.0:_ZN13ColladaDOM14123domGl_pipeline_settings11domFog_mode6createER3DAE
libcollada-dom2.5-dp.so.0:_ZN13ColladaDOM14123domGl_pipeline_settings11domLogic_op15registerElementER3DAE
libcollada-dom2.5-dp.so.0:_ZN13ColladaDOM14123domGl_pipeline_settings11domLogic_op6createER3DAE
libcollada-dom2.5-dp.so.0:_ZN13ColladaDOM14123domGl_pipeline_settings12domCull_face15registerElementER3DAE
libcollada-dom2.5-dp.so.0:_ZN13ColladaDOM14123domGl_pipeline_settings12domCull_face6createER3DAE
libcollada-dom2.5-dp.so.0:_ZN13ColladaDOM14123domGl_pipeline_settings12domFog_color15registerElementER3DAE
libcollada-dom2.5-dp.so.0:_ZN13ColladaDOM14123domGl_pipeline_settings12domFog_color6createER3DAE
libcollada-dom2.5-dp.so.0:_ZN13ColladaDOM14123domGl_pipeline_settings12domFog_start15registerElementER3DAE
libcollada-dom2.5-dp.so.0:_ZN13ColladaDOM14123domGl_pipeline_settings12domFog_start6createER3DAE
libcollada-dom2.5-dp.so.0:_ZN13ColladaDOM14123domGl_pipeline_settings12domTexture1D15registerElementER3DAE
libcollada-dom2.5-dp.so.0:_ZN13ColladaDOM14123domGl_pipeline_settings12domTexture1D6createER3DAE
libcollada-dom2.5-dp.so.0:_ZN13ColladaDOM14123domGl_pipeline_settings12domTexture1D8domParam15registerElementER3DAE
libcollada-dom2.5-dp.so.0:_ZN13ColladaDOM14123domGl_pipeline_settings12domTexture1D8domParam6createER3DAE
libcollada-dom2.5-dp.so.0:_ZN13ColladaDOM14123domGl_pipeline_settings12domTexture2D15registerElementER3DAE
libcollada-dom2.5-dp.so.0:_ZN13ColladaDOM14123domGl_pipeline_settings12domTexture2D6createER3DAE
libcollada-dom2.5-dp.so.0:_ZN13ColladaDOM14123domGl_pipeline_settings12domTexture2D8domParam15registerElementER3DAE
libcollada-dom2.5-dp.so.0:_ZN13ColladaDOM14123domGl_pipeline_settings12domTexture2D8domParam6createER3DAE
libcollada-dom2.5-dp.so.0:_ZN13ColladaDOM14123domGl_pipeline_settings12domTexture3D15registerElementER3DAE
libcollada-dom2.5-dp.so.0:_ZN13ColladaDOM14123domGl_pipeline_settings12domTexture3D6createER3DAE
libcollada-dom2.5-dp.so.0:_ZN13ColladaDOM14123domGl_pipeline_settings12domTexture3D8domParam15registerElementER3DAE
libcollada-dom2.5-dp.so.0:_ZN13ColladaDOM14123domGl_pipeline_settings12domTexture3D8domParam6createER3DAE
libcollada-dom2.5-dp.so.0:_ZN13ColladaDOM14123domGl_pipeline_settings13domAlpha_func15registerElementER3DAE
libcollada-dom2.5-dp.so.0:_ZN13ColladaDOM14123domGl_pipeline_settings13domAlpha_func6createER3DAE
libcollada-dom2.5-dp.so.0:_ZN13ColladaDOM14123domGl_pipeline_settings13domAlpha_func7domFunc15registerElementER3DAE
libcollada-dom2.5-dp.so.0:_ZN13ColladaDOM14123domGl_pipeline_settings13domAlpha_func7domFunc6createER3DAE
libcollada-dom2.5-dp.so.0:_ZN13ColladaDOM14123domGl_pipeline_settings13domAlpha_func8domValue15registerElementER3DAE
libcollada-dom2.5-dp.so.0:_ZN13ColladaDOM14123domGl_pipeline_settings13domAlpha_func8domValue6createER3DAE
libcollada-dom2.5-dp.so.0:_ZN13ColladaDOM14123domGl_pipeline_settings13domBlend_func15registerElementER3DAE
libcollada-dom2.5-dp.so.0:_ZN13ColladaDOM14123domGl_pipeline_settings13domBlend_func6createER3DAE
libcollada-dom2.5-dp.so.0:_ZN13ColladaDOM14123domGl_pipeline_settings13domBlend_func6domSrc15registerElementER3DAE
libcollada-dom2.5-dp.so.0:_ZN13ColladaDOM14123domGl_pipeline_settings13domBlend_func6domSrc6createER3DAE
libcollada-dom2.5-dp.so.0:_ZN13ColladaDOM14123domGl_pipeline_settings13domBlend_func7domDest15registerElementER3DAE
libcollada-dom2.5-dp.so.0:_ZN13ColladaDOM14123domGl_pipeline_settings13domBlend_func7domDest6createER3DAE
libcollada-dom2.5-dp.so.0:_ZN13ColladaDOM14123domGl_pipeline_settings13domClip_plane15registerElementER3DAE
libcollada-dom2.5-dp.so.0:_ZN13ColladaDOM14123domGl_pipeline_settings13domClip_plane6createER3DAE
libcollada-dom2.5-dp.so.0:_ZN13ColladaDOM14123domGl_pipeline_settings13domColor_mask15registerElementER3DAE
libcollada-dom2.5-dp.so.0:_ZN13ColladaDOM14123domGl_pipeline_settings13domColor_mask6createER3DAE
libcollada-dom2.5-dp.so.0:_ZN13ColladaDOM14123domGl_pipeline_settings13domDepth_func15registerElementER3DAE
libcollada-dom2.5-dp.so.0:_ZN13ColladaDOM14123domGl_pipeline_settings13domDepth_func6createER3DAE
libcollada-dom2.5-dp.so.0:_ZN13ColladaDOM14123domGl_pipeline_settings13domDepth_mask15registerElementER3DAE
libcollada-dom2.5-dp.so.0:_ZN13ColladaDOM14123domGl_pipeline_settings13domDepth_mask6createER3DAE
libcollada-dom2.5-dp.so.0:_ZN13ColladaDOM14123domGl_pipeline_settings13domFog_enable15registerElementER3DAE
libcollada-dom2.5-dp.so.0:_ZN13ColladaDOM14123domGl_pipeline_settings13domFog_enable6createER3DAE
libcollada-dom2.5-dp.so.0:_ZN13ColladaDOM14123domGl_pipeline_settings13domFront_face15registerElementER3DAE
libcollada-dom2.5-dp.so.0:_ZN13ColladaDOM14123domGl_pipeline_settings13domFront_face6createER3DAE
libcollada-dom2.5-dp.so.0:_ZN13ColladaDOM14123domGl_pipeline_settings13domLine_width15registerElementER3DAE
libcollada-dom2.5-dp.so.0:_ZN13ColladaDOM14123domGl_pipeline_settings13domLine_width6createER3DAE
libcollada-dom2.5-dp.so.0:_ZN13ColladaDOM14123domGl_pipeline_settings13domPoint_size15registerElementER3DAE
libcollada-dom2.5-dp.so.0:_ZN13ColladaDOM14123domGl_pipeline_settings13domPoint_size6createER3DAE
libcollada-dom2.5-dp.so.0:_ZN13ColladaDOM14123domGl_pipeline_settings13domStencil_op15registerElementER3DAE
libcollada-dom2.5-dp.so.0:_ZN13ColladaDOM14123domGl_pipeline_settings13domStencil_op6createER3DAE
libcollada-dom2.5-dp.so.0:_ZN13ColladaDOM14123domGl_pipeline_settings13domStencil_op7domFail15registerElementER3DAE
libcollada-dom2.5-dp.so.0:_ZN13ColladaDOM14123domGl_pipeline_settings13domStencil_op7domFail6createER3DAE
libcollada-dom2.5-dp.so.0:_ZN13ColladaDOM14123domGl_pipeline_settings13domStencil_op8domZfail15registerElementER3DAE
libcollada-dom2.5-dp.so.0:_ZN13ColladaDOM14123domGl_pipeline_settings13domStencil_op8domZfail6createER3DAE
libcollada-dom2.5-dp.so.0:_ZN13ColladaDOM14123domGl_pipeline_settings13domStencil_op8domZpass15registerElementER3DAE
libcollada-dom2.5-dp.so.0:_ZN13ColladaDOM14123domGl_pipeline_settings13domStencil_op8domZpass6createER3DAE
libcollada-dom2.5-dp.so.0:_ZN13ColladaDOM14123domGl_pipeline_settings14domBlend_color15registerElementER3DAE
libcollada-dom2.5-dp.so.0:_ZN13ColladaDOM14123domGl_pipeline_settings14domBlend_color6createER3DAE
libcollada-dom2.5-dp.so.0:_ZN13ColladaDOM14123domGl_pipeline_settings14domClear_color15registerElementER3DAE
libcollada-dom2.5-dp.so.0:_ZN13ColladaDOM14123domGl_pipeline_settings14domClear_color6createER3DAE
libcollada-dom2.5-dp.so.0:_ZN13ColladaDOM14123domGl_pipeline_settings14domClear_depth15registerElementER3DAE
libcollada-dom2.5-dp.so.0:_ZN13ColladaDOM14123domGl_pipeline_settings14domClear_depth6createER3DAE
libcollada-dom2.5-dp.so.0:_ZN13ColladaDOM14123domGl_pipeline_settings14domDepth_range15registerElementER3DAE
libcollada-dom2.5-dp.so.0:_ZN13ColladaDOM14123domGl_pipeline_settings14domDepth_range6createER3DAE
libcollada-dom2.5-dp.so.0:_ZN13ColladaDOM14123domGl_pipeline_settings14domFog_density15registerElementER3DAE
libcollada-dom2.5-dp.so.0:_ZN13ColladaDOM14123domGl_pipeline_settings14domFog_density6createER3DAE
libcollada-dom2.5-dp.so.0:_ZN13ColladaDOM14123domGl_pipeline_settings14domShade_model15registerElementER3DAE
libcollada-dom2.5-dp.so.0:_ZN13ColladaDOM14123domGl_pipeline_settings14domShade_model6createER3DAE
libcollada-dom2.5-dp.so.0:_ZN13ColladaDOM14123domGl_pipeline_settings14domTextureCUBE15registerElementER3DAE
libcollada-dom2.5-dp.so.0:_ZN13ColladaDOM14123domGl_pipeline_settings14domTextureCUBE6createER3DAE
libcollada-dom2.5-dp.so.0:_ZN13ColladaDOM14123domGl_pipeline_settings14domTextureCUBE8domParam15registerElementER3DAE
libcollada-dom2.5-dp.so.0:_ZN13ColladaDOM14123domGl_pipeline_settings14domTextureCUBE8domParam6createER3DAE
libcollada-dom2.5-dp.so.0:_ZN13ColladaDOM14123domGl_pipeline_settings14domTextureRECT15registerElementER3DAE
libcollada-dom2.5-dp.so.0:_ZN13ColladaDOM14123domGl_pipeline_settings14domTextureRECT6createER3DAE
libcollada-dom2.5-dp.so.0:_ZN13ColladaDOM14123domGl_pipeline_settings14domTextureRECT8domParam15registerElementER3DAE
libcollada-dom2.5-dp.so.0:_ZN13ColladaDOM14123domGl_pipeline_settings14domTextureRECT8domParam6createER3DAE
libcollada-dom2.5-dp.so.0:_ZN13ColladaDOM14123domGl_pipeline_settings15domBlend_enable15registerElementER3DAE
libcollada-dom2.5-dp.so.0:_ZN13ColladaDOM14123domGl_pipeline_settings15domBlend_enable6createER3DAE
libcollada-dom2.5-dp.so.0:_ZN13ColladaDOM14123domGl_pipeline_settings15domDepth_bounds15registerElementER3DAE
libcollada-dom2.5-dp.so.0:_ZN13ColladaDOM14123domGl_pipeline_settings15domDepth_bounds6createER3DAE
libcollada-dom2.5-dp.so.0:_ZN13ColladaDOM14123domGl_pipeline_settings15domLight_enable15registerElementER3DAE
libcollada-dom2.5-dp.so.0:_ZN13ColladaDOM14123domGl_pipeline_settings15domLight_enable6createER3DAE
libcollada-dom2.5-dp.so.0:_ZN13ColladaDOM14123domGl_pipeline_settings15domLine_stipple15registerElementER3DAE
libcollada-dom2.5-dp.so.0:_ZN13ColladaDOM14123domGl_pipeline_settings15domLine_stipple6createER3DAE
libcollada-dom2.5-dp.so.0:_ZN13ColladaDOM14123domGl_pipeline_settings15domPolygon_mode15registerElementER3DAE
libcollada-dom2.5-dp.so.0:_ZN13ColladaDOM14123domGl_pipeline_settings15domPolygon_mode6createER3DAE
libcollada-dom2.5-dp.so.0:_ZN13ColladaDOM14123domGl_pipeline_settings15domPolygon_mode7domFace15registerElementER3DAE
libcollada-dom2.5-dp.so.0:_ZN13ColladaDOM14123domGl_pipeline_settings15domPolygon_mode7domFace6createER3DAE
libcollada-dom2.5-dp.so.0:_ZN13ColladaDOM14123domGl_pipeline_settings15domPolygon_mode7domMode15registerElementER3DAE
libcollada-dom2.5-dp.so.0:_ZN13ColladaDOM14123domGl_pipeline_settings15domPolygon_mode7domMode6createER3DAE
libcollada-dom2.5-dp.so.0:_ZN13ColladaDOM14123domGl_pipeline_settings15domStencil_func15registerElementER3DAE
libcollada-dom2.5-dp.so.0:_ZN13ColladaDOM14123domGl_pipeline_settings15domStencil_func6createER3DAE
libcollada-dom2.5-dp.so.0:_ZN13ColladaDOM14123domGl_pipeline_settings15domStencil_func6domRef15registerElementER3DAE
libcollada-dom2.5-dp.so.0:_ZN13ColladaDOM14123domGl_pipeline_settings15domStencil_func6domRef6createER3DAE
libcollada-dom2.5-dp.so.0:_ZN13ColladaDOM14123domGl_pipeline_settings15domStencil_func7domFunc15registerElementER3DAE
libcollada-dom2.5-dp.so.0:_ZN13ColladaDOM14123domGl_pipeline_settings15domStencil_func7domFunc6createER3DAE
libcollada-dom2.5-dp.so.0:_ZN13ColladaDOM14123domGl_pipeline_settings15domStencil_func7domMask15registerElementER3DAE
libcollada-dom2.5-dp.so.0:_ZN13ColladaDOM14123domGl_pipeline_settings15domStencil_func7domMask6createER3DAE
libcollada-dom2.5-dp.so.0:_ZN13ColladaDOM14123domGl_pipeline_settings15domStencil_mask15registerElementER3DAE
libcollada-dom2.5-dp.so.0:_ZN13ColladaDOM14123domGl_pipeline_settings15domStencil_mask6createER3DAE
libcollada-dom2.5-dp.so.0:_ZN13ColladaDOM14123domGl_pipeline_settings15domTextureDEPTH15registerElementER3DAE
libcollada-dom2.5-dp.so.0:_ZN13ColladaDOM14123domGl_pipeline_settings15domTextureDEPTH6createER3DAE
libcollada-dom2.5-dp.so.0:_ZN13ColladaDOM14123domGl_pipeline_settings15domTextureDEPTH8domParam15registerElementER3DAE
libcollada-dom2.5-dp.so.0:_ZN13ColladaDOM14123domGl_pipeline_settings15domTextureDEPTH8domParam6createER3DAE
libcollada-dom2.5-dp.so.0:_ZN13ColladaDOM14123domGl_pipeline_settings15registerElementER3DAE
libcollada-dom2.5-dp.so.0:_ZN13ColladaDOM14123domGl_pipeline_settings16domClear_stencil15registerElementER3DAE
libcollada-dom2.5-dp.so.0:_ZN13ColladaDOM14123domGl_pipeline_settings16domClear_stencil6createER3DAE
libcollada-dom2.5-dp.so.0:_ZN13ColladaDOM14123domGl_pipeline_settings16domDither_enable15registerElementER3DAE
libcollada-dom2.5-dp.so.0:_ZN13ColladaDOM14123domGl_pipeline_settings16domDither_enable6createER3DAE
libcollada-dom2.5-dp.so.0:_ZN13ColladaDOM14123domGl_pipeline_settings16domFog_coord_src15registerElementER3DAE
libcollada-dom2.5-dp.so.0:_ZN13ColladaDOM14123domGl_pipeline_settings16domFog_coord_src6createER3DAE
libcollada-dom2.5-dp.so.0:_ZN13ColladaDOM14123domGl_pipeline_settings16domLight_ambient15registerElementER3DAE
libcollada-dom2.5-dp.so.0:_ZN13ColladaDOM14123domGl_pipeline_settings16domLight_ambient6createER3DAE
libcollada-dom2.5-dp.so.0:_ZN13ColladaDOM14123domGl_pipeline_settings16domLight_diffuse15registerElementER3DAE
libcollada-dom2.5-dp.so.0:_ZN13ColladaDOM14123domGl_pipeline_settings16domLight_diffuse6createER3DAE
libcollada-dom2.5-dp.so.0:_ZN13ColladaDOM14123domGl_pipeline_settings17domBlend_equation15registerElementER3DAE
libcollada-dom2.5-dp.so.0:_ZN13ColladaDOM14123domGl_pipeline_settings17domBlend_equation6createER3DAE
libcollada-dom2.5-dp.so.0:_ZN13ColladaDOM14123domGl_pipeline_settings17domColor_material15registerElementER3DAE
libcollada-dom2.5-dp.so.0:_ZN13ColladaDOM14123domGl_pipeline_settings17domColor_material6createER3DAE
libcollada-dom2.5-dp.so.0:_ZN13ColladaDOM14123domGl_pipeline_settings17domColor_material7domFace15registerElementER3DAE
libcollada-dom2.5-dp.so.0:_ZN13ColladaDOM14123domGl_pipeline_settings17domColor_material7domFace6createER3DAE
libcollada-dom2.5-dp.so.0:_ZN13ColladaDOM14123domGl_pipeline_settings17domColor_material7domMode15registerElementER3DAE
libcollada-dom2.5-dp.so.0:_ZN13ColladaDOM14123domGl_pipeline_settings17domColor_material7domMode6createER3DAE
libcollada-dom2.5-dp.so.0:_ZN13ColladaDOM14123domGl_pipeline_settings17domLight_position15registerElementER3DAE
libcollada-dom2.5-dp.so.0:_ZN13ColladaDOM14123domGl_pipeline_settings17domLight_position6createER3DAE
libcollada-dom2.5-dp.so.0:_ZN13ColladaDOM14123domGl_pipeline_settings17domLight_specular15registerElementER3DAE
libcollada-dom2.5-dp.so.0:_ZN13ColladaDOM14123domGl_pipeline_settings17domLight_specular6createER3DAE
libcollada-dom2.5-dp.so.0:_ZN13ColladaDOM14123domGl_pipeline_settings17domPoint_size_max15registerElementER3DAE
libcollada-dom2.5-dp.so.0:_ZN13ColladaDOM14123domGl_pipeline_settings17domPoint_size_max6createER3DAE
libcollada-dom2.5-dp.so.0:_ZN13ColladaDOM14123domGl_pipeline_settings17domPoint_size_min15registerElementER3DAE
libcollada-dom2.5-dp.so.0:_ZN13ColladaDOM14123domGl_pipeline_settings17domPoint_size_min6createER3DAE
libcollada-dom2.5-dp.so.0:_ZN13ColladaDOM14123domGl_pipeline_settings17domPolygon_offset15registerElementER3DAE
libcollada-dom2.5-dp.so.0:_ZN13ColladaDOM14123domGl_pipeline_settings17domPolygon_offset6createER3DAE
libcollada-dom2.5-dp.so.0:_ZN13ColladaDOM14123domGl_pipeline_settings18domLighting_enable15registerElementER3DAE
libcollada-dom2.5-dp.so.0:_ZN13ColladaDOM14123domGl_pipeline_settings18domLighting_enable6createER3DAE
libcollada-dom2.5-dp.so.0:_ZN13ColladaDOM14123domGl_pipeline_settings18domLogic_op_enable15registerElementER3DAE
libcollada-dom2.5-dp.so.0:_ZN13ColladaDOM14123domGl_pipeline_settings18domLogic_op_enable6createER3DAE
libcollada-dom2.5-dp.so.0:_ZN13ColladaDOM14123domGl_pipeline_settings19domCull_face_enable15registerElementER3DAE
libcollada-dom2.5-dp.so.0:_ZN13ColladaDOM14123domGl_pipeline_settings19domCull_face_enable6createER3DAE
libcollada-dom2.5-dp.so.0:_ZN13ColladaDOM14123domGl_pipeline_settings19domMaterial_ambient15registerElementER3DAE
libcollada-dom2.5-dp.so.0:_ZN13ColladaDOM14123domGl_pipeline_settings19domMaterial_ambient6createER3DAE
libcollada-dom2.5-dp.so.0:_ZN13ColladaDOM14123domGl_pipeline_settings19domMaterial_diffuse15registerElementER3DAE
libcollada-dom2.5-dp.so.0:_ZN13ColladaDOM14123domGl_pipeline_settings19domMaterial_diffuse6createER3DAE
libcollada-dom2.5-dp.so.0:_ZN13ColladaDOM14123domGl_pipeline_settings19domNormalize_enable15registerElementER3DAE
libcollada-dom2.5-dp.so.0:_ZN13ColladaDOM14123domGl_pipeline_settings19domNormalize_enable6createER3DAE
libcollada-dom2.5-dp.so.0:_ZN13ColladaDOM14123domGl_pipeline_settings19domTexture1D_enable15registerElementER3DAE
libcollada-dom2.5-dp.so.0:_ZN13ColladaDOM14123domGl_pipeline_settings19domTexture1D_enable6createER3DAE
libcollada-dom2.5-dp.so.0:_ZN13ColladaDOM14123domGl_pipeline_settings19domTexture2D_enable15registerElementER3DAE
libcollada-dom2.5-dp.so.0:_ZN13ColladaDOM14123domGl_pipeline_settings19domTexture2D_enable6createER3DAE
libcollada-dom2.5-dp.so.0:_ZN13ColladaDOM14123domGl_pipeline_settings19domTexture3D_enable15registerElementER3DAE
libcollada-dom2.5-dp.so.0:_ZN13ColladaDOM14123domGl_pipeline_settings19domTexture3D_enable6createER3DAE
libcollada-dom2.5-dp.so.0:_ZN13ColladaDOM14123domGl_pipeline_settings19domTexture_env_mode15registerElementER3DAE
libcollada-dom2.5-dp.so.0:_ZN13ColladaDOM14123domGl_pipeline_settings19domTexture_env_mode6createER3DAE
libcollada-dom2.5-dp.so.0:_ZN13ColladaDOM14123domGl_pipeline_settings20domAlpha_test_enable15registerElementER3DAE
libcollada-dom2.5-dp.so.0:_ZN13ColladaDOM14123domGl_pipeline_settings20domAlpha_test_enable6createER3DAE
libcollada-dom2.5-dp.so.0:_ZN13ColladaDOM14123domGl_pipeline_settings20domClip_plane_enable15registerElementER3DAE
libcollada-dom2.5-dp.so.0:_ZN13ColladaDOM14123domGl_pipeline_settings20domClip_plane_enable6createER3DAE
libcollada-dom2.5-dp.so.0:_ZN13ColladaDOM14123domGl_pipeline_settings20domDepth_test_enable15registerElementER3DAE
libcollada-dom2.5-dp.so.0:_ZN13ColladaDOM14123domGl_pipeline_settings20domDepth_test_enable6createER3DAE
libcollada-dom2.5-dp.so.0:_ZN13ColladaDOM14123domGl_pipeline_settings20domLight_spot_cutoff15registerElementER3DAE
libcollada-dom2.5-dp.so.0:_ZN13ColladaDOM14123domGl_pipeline_settings20domLight_spot_cutoff6createER3DAE
libcollada-dom2.5-dp.so.0:_ZN13ColladaDOM14123domGl_pipeline_settings20domMaterial_emission15registerElementER3DAE
libcollada-dom2.5-dp.so.0:_ZN13ColladaDOM14123domGl_pipeline_settings20domMaterial_emission6createER3DAE
libcollada-dom2.5-dp.so.0:_ZN13ColladaDOM14123domGl_pipeline_settings20domMaterial_specular15registerElementER3DAE
libcollada-dom2.5-dp.so.0:_ZN13ColladaDOM14123domGl_pipeline_settings20domMaterial_specular6createER3DAE
libcollada-dom2.5-dp.so.0:_ZN13ColladaDOM14123domGl_pipeline_settings20domModel_view_matrix15registerElementER3DAE
libcollada-dom2.5-dp.so.0:_ZN13ColladaDOM14123domGl_pipeline_settings20domModel_view_matrix6createER3DAE
libcollada-dom2.5-dp.so.0:_ZN13ColladaDOM14123domGl_pipeline_settings20domProjection_matrix15registerElementER3DAE
libcollada-dom2.5-dp.so.0:_ZN13ColladaDOM14123domGl_pipeline_settings20domProjection_matrix6createER3DAE
libcollada-dom2.5-dp.so.0:_ZN13ColladaDOM14123domGl_pipeline_settings20domTexture_env_color15registerElementER3DAE
libcollada-dom2.5-dp.so.0:_ZN13ColladaDOM14123domGl_pipeline_settings20domTexture_env_color6createER3DAE
libcollada-dom2.5-dp.so.0:_ZN13ColladaDOM14123domGl_pipeline_settings21domAuto_normal_enable15registerElementER3DAE
libcollada-dom2.5-dp.so.0:_ZN13ColladaDOM14123domGl_pipeline_settings21domAuto_normal_enable6createER3DAE
libcollada-dom2.5-dp.so.0:_ZN13ColladaDOM14123domGl_pipeline_settings21domDepth_clamp_enable15registerElementER3DAE
libcollada-dom2.5-dp.so.0:_ZN13ColladaDOM14123domGl_pipeline_settings21domDepth_clamp_enable6createER3DAE
libcollada-dom2.5-dp.so.0:_ZN13ColladaDOM14123domGl_pipeline_settings21domLine_smooth_enable15registerElementER3DAE
libcollada-dom2.5-dp.so.0:_ZN13ColladaDOM14123domGl_pipeline_settings21domLine_smooth_enable6createER3DAE
libcollada-dom2.5-dp.so.0:_ZN13ColladaDOM14123domGl_pipeline_settings21domMaterial_shininess15registerElementER3DAE
libcollada-dom2.5-dp.so.0:_ZN13ColladaDOM14123domGl_pipeline_settings21domMaterial_shininess6createER3DAE
libcollada-dom2.5-dp.so.0:_ZN13ColladaDOM14123domGl_pipeline_settings21domMultisample_enable15registerElementER3DAE
libcollada-dom2.5-dp.so.0:_ZN13ColladaDOM14123domGl_pipeline_settings21domMultisample_enable6createER3DAE
libcollada-dom2.5-dp.so.0:_ZN13ColladaDOM14123domGl_pipeline_settings21domTextureCUBE_enable15registerElementER3DAE
libcollada-dom2.5-dp.so.0:_ZN13ColladaDOM14123domGl_pipeline_settings21domTextureCUBE_enable6createER3DAE
libcollada-dom2.5-dp.so.0:_ZN13ColladaDOM14123domGl_pipeline_settings21domTextureRECT_enable15registerElementER3DAE
libcollada-dom2.5-dp.so.0:_ZN13ColladaDOM14123domGl_pipeline_settings21domTextureRECT_enable6createER3DAE
libcollada-dom2.5-dp.so.0:_ZN13ColladaDOM14123domGl_pipeline_settings22domBlend_func_separate10domSrc_rgb15registerElementER3DAE
libcollada-dom2.5-dp.so.0:_ZN13ColladaDOM14123domGl_pipeline_settings22domBlend_func_separate10domSrc_rgb6createER3DAE
libcollada-dom2.5-dp.so.0:_ZN13ColladaDOM14123domGl_pipeline_settings22domBlend_func_separate11domDest_rgb15registerElementER3DAE
libcollada-dom2.5-dp.so.0:_ZN13ColladaDOM14123domGl_pipeline_settings22domBlend_func_separate11domDest_rgb6createER3DAE
libcollada-dom2.5-dp.so.0:_ZN13ColladaDOM14123domGl_pipeline_settings22domBlend_func_separate12domSrc_alpha15registerElementER3DAE
libcollada-dom2.5-dp.so.0:_ZN13ColladaDOM14123domGl_pipeline_settings22domBlend_func_separate12domSrc_alpha6createER3DAE
libcollada-dom2.5-dp.so.0:_ZN13ColladaDOM14123domGl_pipeline_settings22domBlend_func_separate13domDest_alpha15registerElementER3DAE
libcollada-dom2.5-dp.so.0:_ZN13ColladaDOM14123domGl_pipeline_settings22domBlend_func_separate13domDest_alpha6createER3DAE
libcollada-dom2.5-dp.so.0:_ZN13ColladaDOM14123domGl_pipeline_settings22domBlend_func_separate15registerElementER3DAE
libcollada-dom2.5-dp.so.0:_ZN13ColladaDOM14123domGl_pipeline_settings22domBlend_func_separate6createER3DAE
libcollada-dom2.5-dp.so.0:_ZN13ColladaDOM14123domGl_pipeline_settings22domDepth_bounds_enable15registerElementER3DAE
libcollada-dom2.5-dp.so.0:_ZN13ColladaDOM14123domGl_pipeline_settings22domDepth_bounds_enable6createER3DAE
libcollada-dom2.5-dp.so.0:_ZN13ColladaDOM14123domGl_pipeline_settings22domLight_model_ambient15registerElementER3DAE
libcollada-dom2.5-dp.so.0:_ZN13ColladaDOM14123domGl_pipeline_settings22domLight_model_ambient6createER3DAE
libcollada-dom2.5-dp.so.0:_ZN13ColladaDOM14123domGl_pipeline_settings22domLight_spot_exponent15registerElementER3DAE
libcollada-dom2.5-dp.so.0:_ZN13ColladaDOM14123domGl_pipeline_settings22domLight_spot_exponent6createER3DAE
libcollada-dom2.5-dp.so.0:_ZN13ColladaDOM14123domGl_pipeline_settings22domLine_stipple_enable15registerElementER3DAE
libcollada-dom2.5-dp.so.0:_ZN13ColladaDOM14123domGl_pipeline_settings22domLine_stipple_enable6createER3DAE
libcollada-dom2.5-dp.so.0:_ZN13ColladaDOM14123domGl_pipeline_settings22domPoint_smooth_enable15registerElementER3DAE
libcollada-dom2.5-dp.so.0:_ZN13ColladaDOM14123domGl_pipeline_settings22domPoint_smooth_enable6createER3DAE
libcollada-dom2.5-dp.so.0:_ZN13ColladaDOM14123domGl_pipeline_settings22domScissor_test_enable15registerElementER3DAE
libcollada-dom2.5-dp.so.0:_ZN13ColladaDOM14123domGl_pipeline_settings22domScissor_test_enable6createER3DAE
libcollada-dom2.5-dp.so.0:_ZN13ColladaDOM14123domGl_pipeline_settings22domStencil_op_separate15registerElementER3DAE
libcollada-dom2.5-dp.so.0:_ZN13ColladaDOM14123domGl_pipeline_settings22domStencil_op_separate6createER3DAE
libcollada-dom2.5-dp.so.0:_ZN13ColladaDOM14123domGl_pipeline_settings22domStencil_op_separate7domFace15registerElementER3DAE
libcollada-dom2.5-dp.so.0:_ZN13ColladaDOM14123domGl_pipeline_settings22domStencil_op_separate7domFace6createER3DAE
libcollada-dom2.5-dp.so.0:_ZN13ColladaDOM14123domGl_pipeline_settings22domStencil_op_separate7domFail15registerElementER3DAE
libcollada-dom2.5-dp.so.0:_ZN13ColladaDOM14123domGl_pipeline_settings22domStencil_op_separate7domFail6createER3DAE
libcollada-dom2.5-dp.so.0:_ZN13ColladaDOM14123domGl_pipeline_settings22domStencil_op_separate8domZfail15registerElementER3DAE
libcollada-dom2.5-dp.so.0:_ZN13ColladaDOM14123domGl_pipeline_settings22domStencil_op_separate8domZfail6createER3DAE
libcollada-dom2.5-dp.so.0:_ZN13ColladaDOM14123domGl_pipeline_settings22domStencil_op_separate8domZpass15registerElementER3DAE
libcollada-dom2.5-dp.so.0:_ZN13ColladaDOM14123domGl_pipeline_settings22domStencil_op_separate8domZpass6createER3DAE
libcollada-dom2.5-dp.so.0:_ZN13ColladaDOM14123domGl_pipeline_settings22domStencil_test_enable15registerElementER3DAE
libcollada-dom2.5-dp.so.0:_ZN13ColladaDOM14123domGl_pipeline_settings22domStencil_test_enable6createER3DAE
libcollada-dom2.5-dp.so.0:_ZN13ColladaDOM14123domGl_pipeline_settings22domTextureDEPTH_enable15registerElementER3DAE
libcollada-dom2.5-dp.so.0:_ZN13ColladaDOM14123domGl_pipeline_settings22domTextureDEPTH_enable6createER3DAE
libcollada-dom2.5-dp.so.0:_ZN13ColladaDOM14123domGl_pipeline_settings23domLight_spot_direction15registerElementER3DAE
libcollada-dom2.5-dp.so.0:_ZN13ColladaDOM14123domGl_pipeline_settings23domLight_spot_direction6createER3DAE
libcollada-dom2.5-dp.so.0:_ZN13ColladaDOM14123domGl_pipeline_settings24domColor_logic_op_enable15registerElementER3DAE
libcollada-dom2.5-dp.so.0:_ZN13ColladaDOM14123domGl_pipeline_settings24domColor_logic_op_enable6createER3DAE
libcollada-dom2.5-dp.so.0:_ZN13ColladaDOM14123domGl_pipeline_settings24domColor_material_enable15registerElementER3DAE
libcollada-dom2.5-dp.so.0:_ZN13ColladaDOM14123domGl_pipeline_settings24domColor_material_enable6createER3DAE
libcollada-dom2.5-dp.so.0:_ZN13ColladaDOM14123domGl_pipeline_settings24domPolygon_smooth_enable15registerElementER3DAE
libcollada-dom2.5-dp.so.0:_ZN13ColladaDOM14123domGl_pipeline_settings24domPolygon_smooth_enable6createER3DAE
libcollada-dom2.5-dp.so.0:_ZN13ColladaDOM14123domGl_pipeline_settings24domRescale_normal_enable15registerElementER3DAE
libcollada-dom2.5-dp.so.0:_ZN13ColladaDOM14123domGl_pipeline_settings24domRescale_normal_enable6createER3DAE
libcollada-dom2.5-dp.so.0:_ZN13ColladaDOM14123domGl_pipeline_settings24domStencil_func_separate15registerElementER3DAE
libcollada-dom2.5-dp.so.0:_ZN13ColladaDOM14123domGl_pipeline_settings24domStencil_func_separate6createER3DAE
libcollada-dom2.5-dp.so.0:_ZN13ColladaDOM14123domGl_pipeline_settings24domStencil_func_separate6domRef15registerElementER3DAE
libcollada-dom2.5-dp.so.0:_ZN13ColladaDOM14123domGl_pipeline_settings24domStencil_func_separate6domRef6createER3DAE
libcollada-dom2.5-dp.so.0:_ZN13ColladaDOM14123domGl_pipeline_settings24domStencil_func_separate7domBack15registerElementER3DAE
libcollada-dom2.5-dp.so.0:_ZN13ColladaDOM14123domGl_pipeline_settings24domStencil_func_separate7domBack6createER3DAE
libcollada-dom2.5-dp.so.0:_ZN13ColladaDOM14123domGl_pipeline_settings24domStencil_func_separate7domMask15registerElementER3DAE
libcollada-dom2.5-dp.so.0:_ZN13ColladaDOM14123domGl_pipeline_settings24domStencil_func_separate7domMask6createER3DAE
libcollada-dom2.5-dp.so.0:_ZN13ColladaDOM14123domGl_pipeline_settings24domStencil_func_separate8domFront15registerElementER3DAE
libcollada-dom2.5-dp.so.0:_ZN13ColladaDOM14123domGl_pipeline_settings24domStencil_func_separate8domFront6createER3DAE
libcollada-dom2.5-dp.so.0:_ZN13ColladaDOM14123domGl_pipeline_settings24domStencil_mask_separate15registerElementER3DAE
libcollada-dom2.5-dp.so.0:_ZN13ColladaDOM14123domGl_pipeline_settings24domStencil_mask_separate6createER3DAE
libcollada-dom2.5-dp.so.0:_ZN13ColladaDOM14123domGl_pipeline_settings24domStencil_mask_separate7domFace15registerElementER3DAE
libcollada-dom2.5-dp.so.0:_ZN13ColladaDOM14123domGl_pipeline_settings24domStencil_mask_separate7domFace6createER3DAE
libcollada-dom2.5-dp.so.0:_ZN13ColladaDOM14123domGl_pipeline_settings24domStencil_mask_separate7domMask15registerElementER3DAE
libcollada-dom2.5-dp.so.0:_ZN13ColladaDOM14123domGl_pipeline_settings24domStencil_mask_separate7domMask6createER3DAE
libcollada-dom2.5-dp.so.0:_ZN13ColladaDOM14123domGl_pipeline_settings25domPolygon_stipple_enable15registerElementER3DAE
libcollada-dom2.5-dp.so.0:_ZN13ColladaDOM14123domGl_pipeline_settings25domPolygon_stipple_enable6createER3DAE
libcollada-dom2.5-dp.so.0:_ZN13ColladaDOM14123domGl_pipeline_settings25domSample_coverage_enable15registerElementER3DAE
libcollada-dom2.5-dp.so.0:_ZN13ColladaDOM14123domGl_pipeline_settings25domSample_coverage_enable6createER3DAE
libcollada-dom2.5-dp.so.0:_ZN13ColladaDOM14123domGl_pipeline_settings26domBlend_equation_separate15registerElementER3DAE
libcollada-dom2.5-dp.so.0:_ZN13ColladaDOM14123domGl_pipeline_settings26domBlend_equation_separate6createER3DAE
libcollada-dom2.5-dp.so.0:_ZN13ColladaDOM14123domGl_pipeline_settings26domBlend_equation_separate6domRgb15registerElementER3DAE
libcollada-dom2.5-dp.so.0:_ZN13ColladaDOM14123domGl_pipeline_settings26domBlend_equation_separate6domRgb6createER3DAE
libcollada-dom2.5-dp.so.0:_ZN13ColladaDOM14123domGl_pipeline_settings26domBlend_equation_separate8domAlpha15registerElementER3DAE
libcollada-dom2.5-dp.so.0:_ZN13ColladaDOM14123domGl_pipeline_settings26domBlend_equation_separate8domAlpha6createER3DAE
libcollada-dom2.5-dp.so.0:_ZN13ColladaDOM14123domGl_pipeline_settings27domLight_linear_attenuation15registerElementER3DAE
libcollada-dom2.5-dp.so.0:_ZN13ColladaDOM14123domGl_pipeline_settings27domLight_linear_attenuation6createER3DAE
libcollada-dom2.5-dp.so.0:_ZN13ColladaDOM14123domGl_pipeline_settings28domLight_model_color_control15registerElementER3DAE
libcollada-dom2.5-dp.so.0:_ZN13ColladaDOM14123domGl_pipeline_settings28domLight_model_color_control6createER3DAE
libcollada-dom2.5-dp.so.0:_ZN13ColladaDOM14123domGl_pipeline_settings28domPoint_fade_threshold_size15registerElementER3DAE
libcollada-dom2.5-dp.so.0:_ZN13ColladaDOM14123domGl_pipeline_settings28domPoint_fade_threshold_size6createER3DAE
libcollada-dom2.5-dp.so.0:_ZN13ColladaDOM14123domGl_pipeline_settings29domLight_constant_attenuation15registerElementER3DAE
libcollada-dom2.5-dp.so.0:_ZN13ColladaDOM14123domGl_pipeline_settings29domLight_constant_attenuation6createER3DAE
libcollada-dom2.5-dp.so.0:_ZN13ColladaDOM14123domGl_pipeline_settings29domPoint_distance_attenuation15registerElementER3DAE
libcollada-dom2.5-dp.so.0:_ZN13ColladaDOM14123domGl_pipeline_settings29domPoint_distance_attenuation6createER3DAE
libcollada-dom2.5-dp.so.0:_ZN13ColladaDOM14123domGl_pipeline_settings29domPolygon_offset_fill_enable15registerElementER3DAE
libcollada-dom2.5-dp.so.0:_ZN13ColladaDOM14123domGl_pipeline_settings29domPolygon_offset_fill_enable6createER3DAE
libcollada-dom2.5-dp.so.0:_ZN13ColladaDOM14123domGl_pipeline_settings29domPolygon_offset_line_enable15registerElementER3DAE
libcollada-dom2.5-dp.so.0:_ZN13ColladaDOM14123domGl_pipeline_settings29domPolygon_offset_line_enable6createER3DAE
libcollada-dom2.5-dp.so.0:_ZN13ColladaDOM14123domGl_pipeline_settings29domSample_alpha_to_one_enable15registerElementER3DAE
libcollada-dom2.5-dp.so.0:_ZN13ColladaDOM14123domGl_pipeline_settings29domSample_alpha_to_one_enable6createER3DAE
libcollada-dom2.5-dp.so.0:_ZN13ColladaDOM14123domGl_pipeline_settings30domLight_model_two_side_enable15registerElementER3DAE
libcollada-dom2.5-dp.so.0:_ZN13ColladaDOM14123domGl_pipeline_settings30domLight_model_two_side_enable6createER3DAE
libcollada-dom2.5-dp.so.0:_ZN13ColladaDOM14123domGl_pipeline_settings30domLight_quadratic_attenuation15registerElementER3DAE
libcollada-dom2.5-dp.so.0:_ZN13ColladaDOM14123domGl_pipeline_settings30domLight_quadratic_attenuation6createER3DAE
libcollada-dom2.5-dp.so.0:_ZN13ColladaDOM14123domGl_pipeline_settings30domPolygon_offset_point_enable15registerElementER3DAE
libcollada-dom2.5-dp.so.0:_ZN13ColladaDOM14123domGl_pipeline_settings30domPolygon_offset_point_enable6createER3DAE
libcollada-dom2.5-dp.so.0:_ZN13ColladaDOM14123domGl_pipeline_settings34domLight_model_local_viewer_enable15registerElementER3DAE
libcollada-dom2.5-dp.so.0:_ZN13ColladaDOM14123domGl_pipeline_settings34domLight_model_local_viewer_enable6createER3DAE
libcollada-dom2.5-dp.so.0:_ZN13ColladaDOM14123domGl_pipeline_settings34domSample_alpha_to_coverage_enable15registerElementER3DAE
libcollada-dom2.5-dp.so.0:_ZN13ColladaDOM14123domGl_pipeline_settings34domSample_alpha_to_coverage_enable6createER3DAE
libcollada-dom2.5-dp.so.0:_ZN13ColladaDOM14123domGl_pipeline_settings6createER3DAE
libcollada-dom2.5-dp.so.0:_ZN13ColladaDOM14123domGlsl_setparam_simple15registerElementER3DAE
libcollada-dom2.5-dp.so.0:_ZN13ColladaDOM14123domGlsl_setparam_simple6createER3DAE
libcollada-dom2.5-dp.so.0:_ZN13ColladaDOM14123domInstance_force_field15registerElementER3DAE
libcollada-dom2.5-dp.so.0:_ZN13ColladaDOM14123domInstance_force_field6createER3DAE
libcollada-dom2.5-dp.so.0:_ZN13ColladaDOM14123domLibrary_force_fields15registerElementER3DAE
libcollada-dom2.5-dp.so.0:_ZN13ColladaDOM14123domLibrary_force_fields6createER3DAE
libcollada-dom2.5-dp.so.0:_ZN13ColladaDOM14124COLLADA_ELEMENT_ACCESSORE
libcollada-dom2.5-dp.so.0:_ZN13ColladaDOM14124COLLADA_ELEMENT_ANNOTATEE
libcollada-dom2.5-dp.so.0:_ZN13ColladaDOM14124COLLADA_ELEMENT_ARGUMENTE
libcollada-dom2.5-dp.so.0:_ZN13ColladaDOM14124COLLADA_ELEMENT_CHANNELSE
libcollada-dom2.5-dp.so.0:_ZN13ColladaDOM14124COLLADA_ELEMENT_COMMENTSE
libcollada-dom2.5-dp.so.0:_ZN13ColladaDOM14124COLLADA_ELEMENT_CONSTANTE
libcollada-dom2.5-dp.so.0:_ZN13ColladaDOM14124COLLADA_ELEMENT_CYLINDERE
libcollada-dom2.5-dp.so.0:_ZN13ColladaDOM14124COLLADA_ELEMENT_DEST_RGBE
libcollada-dom2.5-dp.so.0:_ZN13ColladaDOM14124COLLADA_ELEMENT_EMISSIONE
libcollada-dom2.5-dp.so.0:_ZN13ColladaDOM14124COLLADA_ELEMENT_EQUATIONE
libcollada-dom2.5-dp.so.0:_ZN13ColladaDOM14124COLLADA_ELEMENT_FIXED1X1E
libcollada-dom2.5-dp.so.0:_ZN13ColladaDOM14124COLLADA_ELEMENT_FIXED1X2E
libcollada-dom2.5-dp.so.0:_ZN13ColladaDOM14124COLLADA_ELEMENT_FIXED1X3E
libcollada-dom2.5-dp.so.0:_ZN13ColladaDOM14124COLLADA_ELEMENT_FIXED1X4E
libcollada-dom2.5-dp.so.0:_ZN13ColladaDOM14124COLLADA_ELEMENT_FIXED2X1E
libcollada-dom2.5-dp.so.0:_ZN13ColladaDOM14124COLLADA_ELEMENT_FIXED2X2E
libcollada-dom2.5-dp.so.0:_ZN13ColladaDOM14124COLLADA_ELEMENT_FIXED2X3E
libcollada-dom2.5-dp.so.0:_ZN13ColladaDOM14124COLLADA_ELEMENT_FIXED2X4E
libcollada-dom2.5-dp.so.0:_ZN13ColladaDOM14124COLLADA_ELEMENT_FIXED3X1E
libcollada-dom2.5-dp.so.0:_ZN13ColladaDOM14124COLLADA_ELEMENT_FIXED3X2E
libcollada-dom2.5-dp.so.0:_ZN13ColladaDOM14124COLLADA_ELEMENT_FIXED3X3E
libcollada-dom2.5-dp.so.0:_ZN13ColladaDOM14124COLLADA_ELEMENT_FIXED3X4E
libcollada-dom2.5-dp.so.0:_ZN13ColladaDOM14124COLLADA_ELEMENT_FIXED4X1E
libcollada-dom2.5-dp.so.0:_ZN13ColladaDOM14124COLLADA_ELEMENT_FIXED4X2E
libcollada-dom2.5-dp.so.0:_ZN13ColladaDOM14124COLLADA_ELEMENT_FIXED4X3E
libcollada-dom2.5-dp.so.0:_ZN13ColladaDOM14124COLLADA_ELEMENT_FIXED4X4E
libcollada-dom2.5-dp.so.0:_ZN13ColladaDOM14124COLLADA_ELEMENT_FLOAT1X1E
libcollada-dom2.5-dp.so.0:_ZN13ColladaDOM14124COLLADA_ELEMENT_FLOAT1X2E
libcollada-dom2.5-dp.so.0:_ZN13ColladaDOM14124COLLADA_ELEMENT_FLOAT1X3E
libcollada-dom2.5-dp.so.0:_ZN13ColladaDOM14124COLLADA_ELEMENT_FLOAT1X4E
libcollada-dom2.5-dp.so.0:_ZN13ColladaDOM14124COLLADA_ELEMENT_FLOAT2X1E
libcollada-dom2.5-dp.so.0:_ZN13ColladaDOM14124COLLADA_ELEMENT_FLOAT2X2E
libcollada-dom2.5-dp.so.0:_ZN13ColladaDOM14124COLLADA_ELEMENT_FLOAT2X3E
libcollada-dom2.5-dp.so.0:_ZN13ColladaDOM14124COLLADA_ELEMENT_FLOAT2X4E
libcollada-dom2.5-dp.so.0:_ZN13ColladaDOM14124COLLADA_ELEMENT_FLOAT3X1E
libcollada-dom2.5-dp.so.0:_ZN13ColladaDOM14124COLLADA_ELEMENT_FLOAT3X2E
libcollada-dom2.5-dp.so.0:_ZN13ColladaDOM14124COLLADA_ELEMENT_FLOAT3X3E
libcollada-dom2.5-dp.so.0:_ZN13ColladaDOM14124COLLADA_ELEMENT_FLOAT3X4E
libcollada-dom2.5-dp.so.0:_ZN13ColladaDOM14124COLLADA_ELEMENT_FLOAT4X1E
libcollada-dom2.5-dp.so.0:_ZN13ColladaDOM14124COLLADA_ELEMENT_FLOAT4X2E
libcollada-dom2.5-dp.so.0:_ZN13ColladaDOM14124COLLADA_ELEMENT_FLOAT4X3E
libcollada-dom2.5-dp.so.0:_ZN13ColladaDOM14124COLLADA_ELEMENT_FLOAT4X4E
libcollada-dom2.5-dp.so.0:_ZN13ColladaDOM14124COLLADA_ELEMENT_FOG_MODEE
libcollada-dom2.5-dp.so.0:_ZN13ColladaDOM14124COLLADA_ELEMENT_GEOMETRYE
libcollada-dom2.5-dp.so.0:_ZN13ColladaDOM14124COLLADA_ELEMENT_KEYWORDSE
libcollada-dom2.5-dp.so.0:_ZN13ColladaDOM14124COLLADA_ELEMENT_LOGIC_OPE
libcollada-dom2.5-dp.so.0:_ZN13ColladaDOM14124COLLADA_ELEMENT_MATERIALE
libcollada-dom2.5-dp.so.0:_ZN13ColladaDOM14124COLLADA_ELEMENT_MODIFIEDE
libcollada-dom2.5-dp.so.0:_ZN13ColladaDOM14124COLLADA_ELEMENT_MODIFIERE
libcollada-dom2.5-dp.so.0:_ZN13ColladaDOM14124COLLADA_ELEMENT_NEWPARAME
libcollada-dom2.5-dp.so.0:_ZN13ColladaDOM14124COLLADA_ELEMENT_POLYGONSE
libcollada-dom2.5-dp.so.0:_ZN13ColladaDOM14124COLLADA_ELEMENT_POLYLISTE
libcollada-dom2.5-dp.so.0:_ZN13ColladaDOM14124COLLADA_ELEMENT_REVISIONE
libcollada-dom2.5-dp.so.0:_ZN13ColladaDOM14124COLLADA_ELEMENT_SEMANTICE
libcollada-dom2.5-dp.so.0:_ZN13ColladaDOM14124COLLADA_ELEMENT_SETPARAME
libcollada-dom2.5-dp.so.0:_ZN13ColladaDOM14124COLLADA_ELEMENT_SKELETONE
libcollada-dom2.5-dp.so.0:_ZN13ColladaDOM14124COLLADA_ELEMENT_SPECULARE
libcollada-dom2.5-dp.so.0:_ZN13ColladaDOM14124COLLADA_ELEMENT_TEXCOORDE
libcollada-dom2.5-dp.so.0:_ZN13ColladaDOM14124COLLADA_ELEMENT_USERTYPEE
libcollada-dom2.5-dp.so.0:_ZN13ColladaDOM14124COLLADA_ELEMENT_VELOCITYE
libcollada-dom2.5-dp.so.0:_ZN13ColladaDOM14124COLLADA_ELEMENT_VERTICESE
libcollada-dom2.5-dp.so.0:_ZN13ColladaDOM14124COLLADA_TYPE_BLEND_COLORE
libcollada-dom2.5-dp.so.0:_ZN13ColladaDOM14124COLLADA_TYPE_CG_NEWPARAME
libcollada-dom2.5-dp.so.0:_ZN13ColladaDOM14124COLLADA_TYPE_CG_SETPARAME
libcollada-dom2.5-dp.so.0:_ZN13ColladaDOM14124COLLADA_TYPE_CLEAR_COLORE
libcollada-dom2.5-dp.so.0:_ZN13ColladaDOM14124COLLADA_TYPE_CLEAR_DEPTHE
libcollada-dom2.5-dp.so.0:_ZN13ColladaDOM14124COLLADA_TYPE_COLOR_CLEARE
libcollada-dom2.5-dp.so.0:_ZN13ColladaDOM14124COLLADA_TYPE_CONTRIBUTORE
libcollada-dom2.5-dp.so.0:_ZN13ColladaDOM14124COLLADA_TYPE_CONVEX_MESHE
libcollada-dom2.5-dp.so.0:_ZN13ColladaDOM14124COLLADA_TYPE_DEPTH_CLEARE
libcollada-dom2.5-dp.so.0:_ZN13ColladaDOM14124COLLADA_TYPE_DEPTH_RANGEE
libcollada-dom2.5-dp.so.0:_ZN13ColladaDOM14124COLLADA_TYPE_DIRECTIONALE
libcollada-dom2.5-dp.so.0:_ZN13ColladaDOM14124COLLADA_TYPE_FLOAT_ARRAYE
libcollada-dom2.5-dp.so.0:_ZN13ColladaDOM14124COLLADA_TYPE_FOG_DENSITYE
libcollada-dom2.5-dp.so.0:_ZN13ColladaDOM14124COLLADA_TYPE_FORCE_FIELDE
libcollada-dom2.5-dp.so.0:_ZN13ColladaDOM14124COLLADA_TYPE_IDREF_ARRAYE
libcollada-dom2.5-dp.so.0:_ZN13ColladaDOM14124COLLADA_TYPE_INPUTGLOBALE
libcollada-dom2.5-dp.so.0:_ZN13ColladaDOM14124COLLADA_TYPE_MIPMAP_BIASE
libcollada-dom2.5-dp.so.0:_ZN13ColladaDOM14124COLLADA_TYPE_PERSPECTIVEE
libcollada-dom2.5-dp.so.0:_ZN13ColladaDOM14124COLLADA_TYPE_SHADE_MODELE
libcollada-dom2.5-dp.so.0:_ZN13ColladaDOM14124COLLADA_TYPE_SOURCE_DATAE
libcollada-dom2.5-dp.so.0:_ZN13ColladaDOM14124COLLADA_TYPE_TEXTURECUBEE
libcollada-dom2.5-dp.so.0:_ZN13ColladaDOM14124COLLADA_TYPE_TEXTURERECTE
libcollada-dom2.5-dp.so.0:_ZN13ColladaDOM14124domFx_colortarget_common15registerElementER3DAE
libcollada-dom2.5-dp.so.0:_ZN13ColladaDOM14124domFx_colortarget_common6createER3DAE
libcollada-dom2.5-dp.so.0:_ZN13ColladaDOM14124domFx_depthtarget_common15registerElementER3DAE
libcollada-dom2.5-dp.so.0:_ZN13ColladaDOM14124domFx_depthtarget_common6createER3DAE
libcollada-dom2.5-dp.so.0:_ZN13ColladaDOM14124domFx_samplerCUBE_common15registerElementER3DAE
libcollada-dom2.5-dp.so.0:_ZN13ColladaDOM14124domFx_samplerCUBE_common6createER3DAE
libcollada-dom2.5-dp.so.0:_ZN13ColladaDOM14124domFx_samplerRECT_common15registerElementER3DAE
libcollada-dom2.5-dp.so.0:_ZN13ColladaDOM14124domFx_samplerRECT_common6createER3DAE
libcollada-dom2.5-dp.so.0:_ZN13ColladaDOM14124domGles_texture_pipeline15registerElementER3DAE
libcollada-dom2.5-dp.so.0:_ZN13ColladaDOM14124domGles_texture_pipeline6createER3DAE
libcollada-dom2.5-dp.so.0:_ZN13ColladaDOM14124domLibrary_visual_scenes15registerElementER3DAE
libcollada-dom2.5-dp.so.0:_ZN13ColladaDOM14124domLibrary_visual_scenes6createER3DAE
libcollada-dom2.5-dp.so.0:_ZN13ColladaDOM14125COLLADA_ELEMENT_ANIMATIONE
libcollada-dom2.5-dp.so.0:_ZN13ColladaDOM14125COLLADA_ELEMENT_COPYRIGHTE
libcollada-dom2.5-dp.so.0:_ZN13ColladaDOM14125COLLADA_ELEMENT_CULL_FACEE
libcollada-dom2.5-dp.so.0:_ZN13ColladaDOM14125COLLADA_ELEMENT_FOG_COLORE
libcollada-dom2.5-dp.so.0:_ZN13ColladaDOM14125COLLADA_ELEMENT_FOG_STARTE
libcollada-dom2.5-dp.so.0:_ZN13ColladaDOM14125COLLADA_ELEMENT_GENERATORE
libcollada-dom2.5-dp.so.0:_ZN13ColladaDOM14125COLLADA_ELEMENT_INIT_CUBEE
libcollada-dom2.5-dp.so.0:_ZN13ColladaDOM14125COLLADA_ELEMENT_INIT_FROME
libcollada-dom2.5-dp.so.0:_ZN13ColladaDOM14125COLLADA_ELEMENT_INT_ARRAYE
libcollada-dom2.5-dp.so.0:_ZN13ColladaDOM14125COLLADA_ELEMENT_MAGFILTERE
libcollada-dom2.5-dp.so.0:_ZN13ColladaDOM14125COLLADA_ELEMENT_MINFILTERE
libcollada-dom2.5-dp.so.0:_ZN13ColladaDOM14125COLLADA_ELEMENT_MIPFILTERE
libcollada-dom2.5-dp.so.0:_ZN13ColladaDOM14125COLLADA_ELEMENT_PRECISIONE
libcollada-dom2.5-dp.so.0:_ZN13ColladaDOM14125COLLADA_ELEMENT_SAMPLER1DE
libcollada-dom2.5-dp.so.0:_ZN13ColladaDOM14125COLLADA_ELEMENT_SAMPLER2DE
libcollada-dom2.5-dp.so.0:_ZN13ColladaDOM14125COLLADA_ELEMENT_SAMPLER3DE
libcollada-dom2.5-dp.so.0:_ZN13ColladaDOM14125COLLADA_ELEMENT_SHININESSE
libcollada-dom2.5-dp.so.0:_ZN13ColladaDOM14125COLLADA_ELEMENT_SRC_ALPHAE
libcollada-dom2.5-dp.so.0:_ZN13ColladaDOM14125COLLADA_ELEMENT_STIFFNESSE
libcollada-dom2.5-dp.so.0:_ZN13ColladaDOM14125COLLADA_ELEMENT_TECHNIQUEE
libcollada-dom2.5-dp.so.0:_ZN13ColladaDOM14125COLLADA_ELEMENT_TEXTURE1DE
libcollada-dom2.5-dp.so.0:_ZN13ColladaDOM14125COLLADA_ELEMENT_TEXTURE2DE
libcollada-dom2.5-dp.so.0:_ZN13ColladaDOM14125COLLADA_ELEMENT_TEXTURE3DE
libcollada-dom2.5-dp.so.0:_ZN13ColladaDOM14125COLLADA_ELEMENT_TIME_STEPE
libcollada-dom2.5-dp.so.0:_ZN13ColladaDOM14125COLLADA_ELEMENT_TRANSLATEE
libcollada-dom2.5-dp.so.0:_ZN13ColladaDOM14125COLLADA_ELEMENT_TRIANGLESE
libcollada-dom2.5-dp.so.0:_ZN13ColladaDOM14125COLLADA_ELEMENT_TRISTRIPSE
libcollada-dom2.5-dp.so.0:_ZN13ColladaDOM14125COLLADA_TYPE_BLEND_ENABLEE
libcollada-dom2.5-dp.so.0:_ZN13ColladaDOM14125COLLADA_TYPE_BORDER_COLORE
libcollada-dom2.5-dp.so.0:_ZN13ColladaDOM14125COLLADA_TYPE_CG_SAMPLER1DE
libcollada-dom2.5-dp.so.0:_ZN13ColladaDOM14125COLLADA_TYPE_CG_SAMPLER2DE
libcollada-dom2.5-dp.so.0:_ZN13ColladaDOM14125COLLADA_TYPE_CG_SAMPLER3DE
libcollada-dom2.5-dp.so.0:_ZN13ColladaDOM14125COLLADA_TYPE_COLOR_TARGETE
libcollada-dom2.5-dp.so.0:_ZN13ColladaDOM14125COLLADA_TYPE_DEPTH_BOUNDSE
libcollada-dom2.5-dp.so.0:_ZN13ColladaDOM14125COLLADA_TYPE_DEPTH_TARGETE
libcollada-dom2.5-dp.so.0:_ZN13ColladaDOM14125COLLADA_TYPE_GL_SAMPLER1DE
libcollada-dom2.5-dp.so.0:_ZN13ColladaDOM14125COLLADA_TYPE_GL_SAMPLER2DE
libcollada-dom2.5-dp.so.0:_ZN13ColladaDOM14125COLLADA_TYPE_GL_SAMPLER3DE
libcollada-dom2.5-dp.so.0:_ZN13ColladaDOM14125COLLADA_TYPE_HALF_EXTENTSE
libcollada-dom2.5-dp.so.0:_ZN13ColladaDOM14125COLLADA_TYPE_INIT_AS_NULLE
libcollada-dom2.5-dp.so.0:_ZN13ColladaDOM14125COLLADA_TYPE_LIGHT_ENABLEE
libcollada-dom2.5-dp.so.0:_ZN13ColladaDOM14125COLLADA_TYPE_LINE_STIPPLEE
libcollada-dom2.5-dp.so.0:_ZN13ColladaDOM14125COLLADA_TYPE_ORTHOGRAPHICE
libcollada-dom2.5-dp.so.0:_ZN13ColladaDOM14125COLLADA_TYPE_POLYGON_MODEE
libcollada-dom2.5-dp.so.0:_ZN13ColladaDOM14125COLLADA_TYPE_PROFILE_GLESE
libcollada-dom2.5-dp.so.0:_ZN13ColladaDOM14125COLLADA_TYPE_PROFILE_GLSLE
libcollada-dom2.5-dp.so.0:_ZN13ColladaDOM14125COLLADA_TYPE_STENCIL_FUNCE
libcollada-dom2.5-dp.so.0:_ZN13ColladaDOM14125COLLADA_TYPE_STENCIL_MASKE
libcollada-dom2.5-dp.so.0:_ZN13ColladaDOM14125COLLADA_TYPE_TEXTUREDEPTHE
libcollada-dom2.5-dp.so.0:_ZN13ColladaDOM14125COLLADA_TYPE_VISUAL_SCENEE
libcollada-dom2.5-dp.so.0:_ZN13ColladaDOM14125COMMON_PROFILE_PARAM_TIMEE
libcollada-dom2.5-dp.so.0:_ZN13ColladaDOM14125domFx_clearstencil_common15registerElementER3DAE
libcollada-dom2.5-dp.so.0:_ZN13ColladaDOM14125domFx_clearstencil_common6createER3DAE
libcollada-dom2.5-dp.so.0:_ZN13ColladaDOM14125domFx_samplerDEPTH_common15registerElementER3DAE
libcollada-dom2.5-dp.so.0:_ZN13ColladaDOM14125domFx_samplerDEPTH_common6createER3DAE
libcollada-dom2.5-dp.so.0:_ZN13ColladaDOM14125domFx_surface_init_common15domInit_as_null15registerElementER3DAE
libcollada-dom2.5-dp.so.0:_ZN13ColladaDOM14125domFx_surface_init_common15domInit_as_null6createER3DAE
libcollada-dom2.5-dp.so.0:_ZN13ColladaDOM14125domFx_surface_init_common15registerElementER3DAE
libcollada-dom2.5-dp.so.0:_ZN13ColladaDOM14125domFx_surface_init_common17domInit_as_target15registerElementER3DAE
libcollada-dom2.5-dp.so.0:_ZN13ColladaDOM14125domFx_surface_init_common17domInit_as_target6createER3DAE
libcollada-dom2.5-dp.so.0:_ZN13ColladaDOM14125domFx_surface_init_common6createER3DAE
libcollada-dom2.5-dp.so.0:_ZN13ColladaDOM14125domGles_basic_type_common11domFloat1x115registerElementER3DAE
libcollada-dom2.5-dp.so.0:_ZN13ColladaDOM14125domGles_basic_type_common11domFloat1x16createER3DAE
libcollada-dom2.5-dp.so.0:_ZN13ColladaDOM14125domGles_basic_type_common11domFloat1x215registerElementER3DAE
libcollada-dom2.5-dp.so.0:_ZN13ColladaDOM14125domGles_basic_type_common11domFloat1x26createER3DAE
libcollada-dom2.5-dp.so.0:_ZN13ColladaDOM14125domGles_basic_type_common11domFloat1x315registerElementER3DAE
libcollada-dom2.5-dp.so.0:_ZN13ColladaDOM14125domGles_basic_type_common11domFloat1x36createER3DAE
libcollada-dom2.5-dp.so.0:_ZN13ColladaDOM14125domGles_basic_type_common11domFloat1x415registerElementER3DAE
libcollada-dom2.5-dp.so.0:_ZN13ColladaDOM14125domGles_basic_type_common11domFloat1x46createER3DAE
libcollada-dom2.5-dp.so.0:_ZN13ColladaDOM14125domGles_basic_type_common11domFloat2x115registerElementER3DAE
libcollada-dom2.5-dp.so.0:_ZN13ColladaDOM14125domGles_basic_type_common11domFloat2x16createER3DAE
libcollada-dom2.5-dp.so.0:_ZN13ColladaDOM14125domGles_basic_type_common11domFloat2x215registerElementER3DAE
libcollada-dom2.5-dp.so.0:_ZN13ColladaDOM14125domGles_basic_type_common11domFloat2x26createER3DAE
libcollada-dom2.5-dp.so.0:_ZN13ColladaDOM14125domGles_basic_type_common11domFloat2x315registerElementER3DAE
libcollada-dom2.5-dp.so.0:_ZN13ColladaDOM14125domGles_basic_type_common11domFloat2x36createER3DAE
libcollada-dom2.5-dp.so.0:_ZN13ColladaDOM14125domGles_basic_type_common11domFloat2x415registerElementER3DAE
libcollada-dom2.5-dp.so.0:_ZN13ColladaDOM14125domGles_basic_type_common11domFloat2x46createER3DAE
libcollada-dom2.5-dp.so.0:_ZN13ColladaDOM14125domGles_basic_type_common11domFloat3x115registerElementER3DAE
libcollada-dom2.5-dp.so.0:_ZN13ColladaDOM14125domGles_basic_type_common11domFloat3x16createER3DAE
libcollada-dom2.5-dp.so.0:_ZN13ColladaDOM14125domGles_basic_type_common11domFloat3x215registerElementER3DAE
libcollada-dom2.5-dp.so.0:_ZN13ColladaDOM14125domGles_basic_type_common11domFloat3x26createER3DAE
libcollada-dom2.5-dp.so.0:_ZN13ColladaDOM14125domGles_basic_type_common11domFloat3x315registerElementER3DAE
libcollada-dom2.5-dp.so.0:_ZN13ColladaDOM14125domGles_basic_type_common11domFloat3x36createER3DAE
libcollada-dom2.5-dp.so.0:_ZN13ColladaDOM14125domGles_basic_type_common11domFloat3x415registerElementER3DAE
libcollada-dom2.5-dp.so.0:_ZN13ColladaDOM14125domGles_basic_type_common11domFloat3x46createER3DAE
libcollada-dom2.5-dp.so.0:_ZN13ColladaDOM14125domGles_basic_type_common11domFloat4x115registerElementER3DAE
libcollada-dom2.5-dp.so.0:_ZN13ColladaDOM14125domGles_basic_type_common11domFloat4x16createER3DAE
libcollada-dom2.5-dp.so.0:_ZN13ColladaDOM14125domGles_basic_type_common11domFloat4x215registerElementER3DAE
libcollada-dom2.5-dp.so.0:_ZN13ColladaDOM14125domGles_basic_type_common11domFloat4x26createER3DAE
libcollada-dom2.5-dp.so.0:_ZN13ColladaDOM14125domGles_basic_type_common11domFloat4x315registerElementER3DAE
libcollada-dom2.5-dp.so.0:_ZN13ColladaDOM14125domGles_basic_type_common11domFloat4x36createER3DAE
libcollada-dom2.5-dp.so.0:_ZN13ColladaDOM14125domGles_basic_type_common11domFloat4x415registerElementER3DAE
libcollada-dom2.5-dp.so.0:_ZN13ColladaDOM14125domGles_basic_type_common11domFloat4x46createER3DAE
libcollada-dom2.5-dp.so.0:_ZN13ColladaDOM14125domGles_basic_type_common15registerElementER3DAE
libcollada-dom2.5-dp.so.0:_ZN13ColladaDOM14125domGles_basic_type_common6createER3DAE
libcollada-dom2.5-dp.so.0:_ZN13ColladaDOM14125domGles_basic_type_common6domInt15registerElementER3DAE
libcollada-dom2.5-dp.so.0:_ZN13ColladaDOM14125domGles_basic_type_common6domInt6createER3DAE
libcollada-dom2.5-dp.so.0:_ZN13ColladaDOM14125domGles_basic_type_common7domBool15registerElementER3DAE
libcollada-dom2.5-dp.so.0:_ZN13ColladaDOM14125domGles_basic_type_common7domBool6createER3DAE
libcollada-dom2.5-dp.so.0:_ZN13ColladaDOM14125domGles_basic_type_common7domEnum15registerElementER3DAE
libcollada-dom2.5-dp.so.0:_ZN13ColladaDOM14125domGles_basic_type_common7domEnum6createER3DAE
libcollada-dom2.5-dp.so.0:_ZN13ColladaDOM14125domGles_basic_type_common7domInt215registerElementER3DAE
libcollada-dom2.5-dp.so.0:_ZN13ColladaDOM14125domGles_basic_type_common7domInt26createER3DAE
libcollada-dom2.5-dp.so.0:_ZN13ColladaDOM14125domGles_basic_type_common7domInt315registerElementER3DAE
libcollada-dom2.5-dp.so.0:_ZN13ColladaDOM14125domGles_basic_type_common7domInt36createER3DAE
libcollada-dom2.5-dp.so.0:_ZN13ColladaDOM14125domGles_basic_type_common7domInt415registerElementER3DAE
libcollada-dom2.5-dp.so.0:_ZN13ColladaDOM14125domGles_basic_type_common7domInt46createER3DAE
libcollada-dom2.5-dp.so.0:_ZN13ColladaDOM14125domGles_basic_type_common8domBool215registerElementER3DAE
libcollada-dom2.5-dp.so.0:_ZN13ColladaDOM14125domGles_basic_type_common8domBool26createER3DAE
libcollada-dom2.5-dp.so.0:_ZN13ColladaDOM14125domGles_basic_type_common8domBool315registerElementER3DAE
libcollada-dom2.5-dp.so.0:_ZN13ColladaDOM14125domGles_basic_type_common8domBool36createER3DAE
libcollada-dom2.5-dp.so.0:_ZN13ColladaDOM14125domGles_basic_type_common8domBool415registerElementER3DAE
libcollada-dom2.5-dp.so.0:_ZN13ColladaDOM14125domGles_basic_type_common8domBool46createER3DAE
libcollada-dom2.5-dp.so.0:_ZN13ColladaDOM14125domGles_basic_type_common8domFloat15registerElementER3DAE
libcollada-dom2.5-dp.so.0:_ZN13ColladaDOM14125domGles_basic_type_common8domFloat6createER3DAE
libcollada-dom2.5-dp.so.0:_ZN13ColladaDOM14125domGles_basic_type_common9domFloat215registerElementER3DAE
libcollada-dom2.5-dp.so.0:_ZN13ColladaDOM14125domGles_basic_type_common9domFloat26createER3DAE
libcollada-dom2.5-dp.so.0:_ZN13ColladaDOM14125domGles_basic_type_common9domFloat315registerElementER3DAE
libcollada-dom2.5-dp.so.0:_ZN13ColladaDOM14125domGles_basic_type_common9domFloat36createER3DAE
libcollada-dom2.5-dp.so.0:_ZN13ColladaDOM14125domGles_basic_type_common9domFloat415registerElementER3DAE
libcollada-dom2.5-dp.so.0:_ZN13ColladaDOM14125domGles_basic_type_common9domFloat46createER3DAE
libcollada-dom2.5-dp.so.0:_ZN13ColladaDOM14125domGles_pipeline_settings10domFog_end15registerElementER3DAE
libcollada-dom2.5-dp.so.0:_ZN13ColladaDOM14125domGles_pipeline_settings10domFog_end6createER3DAE
libcollada-dom2.5-dp.so.0:_ZN13ColladaDOM14125domGles_pipeline_settings10domScissor15registerElementER3DAE
libcollada-dom2.5-dp.so.0:_ZN13ColladaDOM14125domGles_pipeline_settings10domScissor6createER3DAE
libcollada-dom2.5-dp.so.0:_ZN13ColladaDOM14125domGles_pipeline_settings11domFog_mode15registerElementER3DAE
libcollada-dom2.5-dp.so.0:_ZN13ColladaDOM14125domGles_pipeline_settings11domFog_mode6createER3DAE
libcollada-dom2.5-dp.so.0:_ZN13ColladaDOM14125domGles_pipeline_settings11domLogic_op15registerElementER3DAE
libcollada-dom2.5-dp.so.0:_ZN13ColladaDOM14125domGles_pipeline_settings11domLogic_op6createER3DAE
libcollada-dom2.5-dp.so.0:_ZN13ColladaDOM14125domGles_pipeline_settings12domCull_face15registerElementER3DAE
libcollada-dom2.5-dp.so.0:_ZN13ColladaDOM14125domGles_pipeline_settings12domCull_face6createER3DAE
libcollada-dom2.5-dp.so.0:_ZN13ColladaDOM14125domGles_pipeline_settings12domFog_color15registerElementER3DAE
libcollada-dom2.5-dp.so.0:_ZN13ColladaDOM14125domGles_pipeline_settings12domFog_color6createER3DAE
libcollada-dom2.5-dp.so.0:_ZN13ColladaDOM14125domGles_pipeline_settings12domFog_start15registerElementER3DAE
libcollada-dom2.5-dp.so.0:_ZN13ColladaDOM14125domGles_pipeline_settings12domFog_start6createER3DAE
libcollada-dom2.5-dp.so.0:_ZN13ColladaDOM14125domGles_pipeline_settings13domAlpha_func15registerElementER3DAE
libcollada-dom2.5-dp.so.0:_ZN13ColladaDOM14125domGles_pipeline_settings13domAlpha_func6createER3DAE
libcollada-dom2.5-dp.so.0:_ZN13ColladaDOM14125domGles_pipeline_settings13domAlpha_func7domFunc15registerElementER3DAE
libcollada-dom2.5-dp.so.0:_ZN13ColladaDOM14125domGles_pipeline_settings13domAlpha_func7domFunc6createER3DAE
libcollada-dom2.5-dp.so.0:_ZN13ColladaDOM14125domGles_pipeline_settings13domAlpha_func8domValue15registerElementER3DAE
libcollada-dom2.5-dp.so.0:_ZN13ColladaDOM14125domGles_pipeline_settings13domAlpha_func8domValue6createER3DAE
libcollada-dom2.5-dp.so.0:_ZN13ColladaDOM14125domGles_pipeline_settings13domBlend_func15registerElementER3DAE
libcollada-dom2.5-dp.so.0:_ZN13ColladaDOM14125domGles_pipeline_settings13domBlend_func6createER3DAE
libcollada-dom2.5-dp.so.0:_ZN13ColladaDOM14125domGles_pipeline_settings13domBlend_func6domSrc15registerElementER3DAE
libcollada-dom2.5-dp.so.0:_ZN13ColladaDOM14125domGles_pipeline_settings13domBlend_func6domSrc6createER3DAE
libcollada-dom2.5-dp.so.0:_ZN13ColladaDOM14125domGles_pipeline_settings13domBlend_func7domDest15registerElementER3DAE
libcollada-dom2.5-dp.so.0:_ZN13ColladaDOM14125domGles_pipeline_settings13domBlend_func7domDest6createER3DAE
libcollada-dom2.5-dp.so.0:_ZN13ColladaDOM14125domGles_pipeline_settings13domClip_plane15registerElementER3DAE
libcollada-dom2.5-dp.so.0:_ZN13ColladaDOM14125domGles_pipeline_settings13domClip_plane6createER3DAE
libcollada-dom2.5-dp.so.0:_ZN13ColladaDOM14125domGles_pipeline_settings13domColor_mask15registerElementER3DAE
libcollada-dom2.5-dp.so.0:_ZN13ColladaDOM14125domGles_pipeline_settings13domColor_mask6createER3DAE
libcollada-dom2.5-dp.so.0:_ZN13ColladaDOM14125domGles_pipeline_settings13domDepth_func15registerElementER3DAE
libcollada-dom2.5-dp.so.0:_ZN13ColladaDOM14125domGles_pipeline_settings13domDepth_func6createER3DAE
libcollada-dom2.5-dp.so.0:_ZN13ColladaDOM14125domGles_pipeline_settings13domDepth_mask15registerElementER3DAE
libcollada-dom2.5-dp.so.0:_ZN13ColladaDOM14125domGles_pipeline_settings13domDepth_mask6createER3DAE
libcollada-dom2.5-dp.so.0:_ZN13ColladaDOM14125domGles_pipeline_settings13domFog_enable15registerElementER3DAE
libcollada-dom2.5-dp.so.0:_ZN13ColladaDOM14125domGles_pipeline_settings13domFog_enable6createER3DAE
libcollada-dom2.5-dp.so.0:_ZN13ColladaDOM14125domGles_pipeline_settings13domFront_face15registerElementER3DAE
libcollada-dom2.5-dp.so.0:_ZN13ColladaDOM14125domGles_pipeline_settings13domFront_face6createER3DAE
libcollada-dom2.5-dp.so.0:_ZN13ColladaDOM14125domGles_pipeline_settings13domLine_width15registerElementER3DAE
libcollada-dom2.5-dp.so.0:_ZN13ColladaDOM14125domGles_pipeline_settings13domLine_width6createER3DAE
libcollada-dom2.5-dp.so.0:_ZN13ColladaDOM14125domGles_pipeline_settings13domPoint_size15registerElementER3DAE
libcollada-dom2.5-dp.so.0:_ZN13ColladaDOM14125domGles_pipeline_settings13domPoint_size6createER3DAE
libcollada-dom2.5-dp.so.0:_ZN13ColladaDOM14125domGles_pipeline_settings13domStencil_op15registerElementER3DAE
libcollada-dom2.5-dp.so.0:_ZN13ColladaDOM14125domGles_pipeline_settings13domStencil_op6createER3DAE
libcollada-dom2.5-dp.so.0:_ZN13ColladaDOM14125domGles_pipeline_settings13domStencil_op7domFail15registerElementER3DAE
libcollada-dom2.5-dp.so.0:_ZN13ColladaDOM14125domGles_pipeline_settings13domStencil_op7domFail6createER3DAE
libcollada-dom2.5-dp.so.0:_ZN13ColladaDOM14125domGles_pipeline_settings13domStencil_op8domZfail15registerElementER3DAE
libcollada-dom2.5-dp.so.0:_ZN13ColladaDOM14125domGles_pipeline_settings13domStencil_op8domZfail6createER3DAE
libcollada-dom2.5-dp.so.0:_ZN13ColladaDOM14125domGles_pipeline_settings13domStencil_op8domZpass15registerElementER3DAE
libcollada-dom2.5-dp.so.0:_ZN13ColladaDOM14125domGles_pipeline_settings13domStencil_op8domZpass6createER3DAE
libcollada-dom2.5-dp.so.0:_ZN13ColladaDOM14125domGles_pipeline_settings14domClear_color15registerElementER3DAE
libcollada-dom2.5-dp.so.0:_ZN13ColladaDOM14125domGles_pipeline_settings14domClear_color6createER3DAE
libcollada-dom2.5-dp.so.0:_ZN13ColladaDOM14125domGles_pipeline_settings14domClear_depth15registerElementER3DAE
libcollada-dom2.5-dp.so.0:_ZN13ColladaDOM14125domGles_pipeline_settings14domClear_depth6createER3DAE
libcollada-dom2.5-dp.so.0:_ZN13ColladaDOM14125domGles_pipeline_settings14domDepth_range15registerElementER3DAE
libcollada-dom2.5-dp.so.0:_ZN13ColladaDOM14125domGles_pipeline_settings14domDepth_range6createER3DAE
libcollada-dom2.5-dp.so.0:_ZN13ColladaDOM14125domGles_pipeline_settings14domFog_density15registerElementER3DAE
libcollada-dom2.5-dp.so.0:_ZN13ColladaDOM14125domGles_pipeline_settings14domFog_density6createER3DAE
libcollada-dom2.5-dp.so.0:_ZN13ColladaDOM14125domGles_pipeline_settings14domShade_model15registerElementER3DAE
libcollada-dom2.5-dp.so.0:_ZN13ColladaDOM14125domGles_pipeline_settings14domShade_model6createER3DAE
libcollada-dom2.5-dp.so.0:_ZN13ColladaDOM14125domGles_pipeline_settings15domBlend_enable15registerElementER3DAE
libcollada-dom2.5-dp.so.0:_ZN13ColladaDOM14125domGles_pipeline_settings15domBlend_enable6createER3DAE
libcollada-dom2.5-dp.so.0:_ZN13ColladaDOM14125domGles_pipeline_settings15domLight_enable15registerElementER3DAE
libcollada-dom2.5-dp.so.0:_ZN13ColladaDOM14125domGles_pipeline_settings15domLight_enable6createER3DAE
libcollada-dom2.5-dp.so.0:_ZN13ColladaDOM14125domGles_pipeline_settings15domStencil_func15registerElementER3DAE
libcollada-dom2.5-dp.so.0:_ZN13ColladaDOM14125domGles_pipeline_settings15domStencil_func6createER3DAE
libcollada-dom2.5-dp.so.0:_ZN13ColladaDOM14125domGles_pipeline_settings15domStencil_func6domRef15registerElementER3DAE
libcollada-dom2.5-dp.so.0:_ZN13ColladaDOM14125domGles_pipeline_settings15domStencil_func6domRef6createER3DAE
libcollada-dom2.5-dp.so.0:_ZN13ColladaDOM14125domGles_pipeline_settings15domStencil_func7domFunc15registerElementER3DAE
libcollada-dom2.5-dp.so.0:_ZN13ColladaDOM14125domGles_pipeline_settings15domStencil_func7domFunc6createER3DAE
libcollada-dom2.5-dp.so.0:_ZN13ColladaDOM14125domGles_pipeline_settings15domStencil_func7domMask15registerElementER3DAE
libcollada-dom2.5-dp.so.0:_ZN13ColladaDOM14125domGles_pipeline_settings15domStencil_func7domMask6createER3DAE
libcollada-dom2.5-dp.so.0:_ZN13ColladaDOM14125domGles_pipeline_settings15domStencil_mask15registerElementER3DAE
libcollada-dom2.5-dp.so.0:_ZN13ColladaDOM14125domGles_pipeline_settings15domStencil_mask6createER3DAE
libcollada-dom2.5-dp.so.0:_ZN13ColladaDOM14125domGles_pipeline_settings15registerElementER3DAE
libcollada-dom2.5-dp.so.0:_ZN13ColladaDOM14125domGles_pipeline_settings16domClear_stencil15registerElementER3DAE
libcollada-dom2.5-dp.so.0:_ZN13ColladaDOM14125domGles_pipeline_settings16domClear_stencil6createER3DAE
libcollada-dom2.5-dp.so.0:_ZN13ColladaDOM14125domGles_pipeline_settings16domDither_enable15registerElementER3DAE
libcollada-dom2.5-dp.so.0:_ZN13ColladaDOM14125domGles_pipeline_settings16domDither_enable6createER3DAE
libcollada-dom2.5-dp.so.0:_ZN13ColladaDOM14125domGles_pipeline_settings16domLight_ambient15registerElementER3DAE
libcollada-dom2.5-dp.so.0:_ZN13ColladaDOM14125domGles_pipeline_settings16domLight_ambient6createER3DAE
libcollada-dom2.5-dp.so.0:_ZN13ColladaDOM14125domGles_pipeline_settings16domLight_diffuse15registerElementER3DAE
libcollada-dom2.5-dp.so.0:_ZN13ColladaDOM14125domGles_pipeline_settings16domLight_diffuse6createER3DAE
libcollada-dom2.5-dp.so.0:_ZN13ColladaDOM14125domGles_pipeline_settings17domLight_position15registerElementER3DAE
libcollada-dom2.5-dp.so.0:_ZN13ColladaDOM14125domGles_pipeline_settings17domLight_position6createER3DAE
libcollada-dom2.5-dp.so.0:_ZN13ColladaDOM14125domGles_pipeline_settings17domLight_specular15registerElementER3DAE
libcollada-dom2.5-dp.so.0:_ZN13ColladaDOM14125domGles_pipeline_settings17domLight_specular6createER3DAE
libcollada-dom2.5-dp.so.0:_ZN13ColladaDOM14125domGles_pipeline_settings17domPoint_size_max15registerElementER3DAE
libcollada-dom2.5-dp.so.0:_ZN13ColladaDOM14125domGles_pipeline_settings17domPoint_size_max6createER3DAE
libcollada-dom2.5-dp.so.0:_ZN13ColladaDOM14125domGles_pipeline_settings17domPoint_size_min15registerElementER3DAE
libcollada-dom2.5-dp.so.0:_ZN13ColladaDOM14125domGles_pipeline_settings17domPoint_size_min6createER3DAE
libcollada-dom2.5-dp.so.0:_ZN13ColladaDOM14125domGles_pipeline_settings17domPolygon_offset15registerElementER3DAE
libcollada-dom2.5-dp.so.0:_ZN13ColladaDOM14125domGles_pipeline_settings17domPolygon_offset6createER3DAE
libcollada-dom2.5-dp.so.0:_ZN13ColladaDOM14125domGles_pipeline_settings18domLighting_enable15registerElementER3DAE
libcollada-dom2.5-dp.so.0:_ZN13ColladaDOM14125domGles_pipeline_settings18domLighting_enable6createER3DAE
libcollada-dom2.5-dp.so.0:_ZN13ColladaDOM14125domGles_pipeline_settings19domCull_face_enable15registerElementER3DAE
libcollada-dom2.5-dp.so.0:_ZN13ColladaDOM14125domGles_pipeline_settings19domCull_face_enable6createER3DAE
libcollada-dom2.5-dp.so.0:_ZN13ColladaDOM14125domGles_pipeline_settings19domMaterial_ambient15registerElementER3DAE
libcollada-dom2.5-dp.so.0:_ZN13ColladaDOM14125domGles_pipeline_settings19domMaterial_ambient6createER3DAE
libcollada-dom2.5-dp.so.0:_ZN13ColladaDOM14125domGles_pipeline_settings19domMaterial_diffuse15registerElementER3DAE
libcollada-dom2.5-dp.so.0:_ZN13ColladaDOM14125domGles_pipeline_settings19domMaterial_diffuse6createER3DAE
libcollada-dom2.5-dp.so.0:_ZN13ColladaDOM14125domGles_pipeline_settings19domNormalize_enable15registerElementER3DAE
libcollada-dom2.5-dp.so.0:_ZN13ColladaDOM14125domGles_pipeline_settings19domNormalize_enable6createER3DAE
libcollada-dom2.5-dp.so.0:_ZN13ColladaDOM14125domGles_pipeline_settings19domTexture_pipeline15registerElementER3DAE
libcollada-dom2.5-dp.so.0:_ZN13ColladaDOM14125domGles_pipeline_settings19domTexture_pipeline6createER3DAE
libcollada-dom2.5-dp.so.0:_ZN13ColladaDOM14125domGles_pipeline_settings20domAlpha_test_enable15registerElementER3DAE
libcollada-dom2.5-dp.so.0:_ZN13ColladaDOM14125domGles_pipeline_settings20domAlpha_test_enable6createER3DAE
libcollada-dom2.5-dp.so.0:_ZN13ColladaDOM14125domGles_pipeline_settings20domClip_plane_enable15registerElementER3DAE
libcollada-dom2.5-dp.so.0:_ZN13ColladaDOM14125domGles_pipeline_settings20domClip_plane_enable6createER3DAE
libcollada-dom2.5-dp.so.0:_ZN13ColladaDOM14125domGles_pipeline_settings20domDepth_test_enable15registerElementER3DAE
libcollada-dom2.5-dp.so.0:_ZN13ColladaDOM14125domGles_pipeline_settings20domDepth_test_enable6createER3DAE
libcollada-dom2.5-dp.so.0:_ZN13ColladaDOM14125domGles_pipeline_settings20domLight_spot_cutoff15registerElementER3DAE
libcollada-dom2.5-dp.so.0:_ZN13ColladaDOM14125domGles_pipeline_settings20domLight_spot_cutoff6createER3DAE
libcollada-dom2.5-dp.so.0:_ZN13ColladaDOM14125domGles_pipeline_settings20domMaterial_emission15registerElementER3DAE
libcollada-dom2.5-dp.so.0:_ZN13ColladaDOM14125domGles_pipeline_settings20domMaterial_emission6createER3DAE
libcollada-dom2.5-dp.so.0:_ZN13ColladaDOM14125domGles_pipeline_settings20domMaterial_specular15registerElementER3DAE
libcollada-dom2.5-dp.so.0:_ZN13ColladaDOM14125domGles_pipeline_settings20domMaterial_specular6createER3DAE
libcollada-dom2.5-dp.so.0:_ZN13ColladaDOM14125domGles_pipeline_settings20domModel_view_matrix15registerElementER3DAE
libcollada-dom2.5-dp.so.0:_ZN13ColladaDOM14125domGles_pipeline_settings20domModel_view_matrix6createER3DAE
libcollada-dom2.5-dp.so.0:_ZN13ColladaDOM14125domGles_pipeline_settings20domProjection_matrix15registerElementER3DAE
libcollada-dom2.5-dp.so.0:_ZN13ColladaDOM14125domGles_pipeline_settings20domProjection_matrix6createER3DAE
libcollada-dom2.5-dp.so.0:_ZN13ColladaDOM14125domGles_pipeline_settings21domLine_smooth_enable15registerElementER3DAE
libcollada-dom2.5-dp.so.0:_ZN13ColladaDOM14125domGles_pipeline_settings21domLine_smooth_enable6createER3DAE
libcollada-dom2.5-dp.so.0:_ZN13ColladaDOM14125domGles_pipeline_settings21domMaterial_shininess15registerElementER3DAE
libcollada-dom2.5-dp.so.0:_ZN13ColladaDOM14125domGles_pipeline_settings21domMaterial_shininess6createER3DAE
libcollada-dom2.5-dp.so.0:_ZN13ColladaDOM14125domGles_pipeline_settings21domMultisample_enable15registerElementER3DAE
libcollada-dom2.5-dp.so.0:_ZN13ColladaDOM14125domGles_pipeline_settings21domMultisample_enable6createER3DAE
libcollada-dom2.5-dp.so.0:_ZN13ColladaDOM14125domGles_pipeline_settings22domLight_model_ambient15registerElementER3DAE
libcollada-dom2.5-dp.so.0:_ZN13ColladaDOM14125domGles_pipeline_settings22domLight_model_ambient6createER3DAE
libcollada-dom2.5-dp.so.0:_ZN13ColladaDOM14125domGles_pipeline_settings22domLight_spot_exponent15registerElementER3DAE
libcollada-dom2.5-dp.so.0:_ZN13ColladaDOM14125domGles_pipeline_settings22domLight_spot_exponent6createER3DAE
libcollada-dom2.5-dp.so.0:_ZN13ColladaDOM14125domGles_pipeline_settings22domPoint_smooth_enable15registerElementER3DAE
libcollada-dom2.5-dp.so.0:_ZN13ColladaDOM14125domGles_pipeline_settings22domPoint_smooth_enable6createER3DAE
libcollada-dom2.5-dp.so.0:_ZN13ColladaDOM14125domGles_pipeline_settings22domScissor_test_enable15registerElementER3DAE
libcollada-dom2.5-dp.so.0:_ZN13ColladaDOM14125domGles_pipeline_settings22domScissor_test_enable6createER3DAE
libcollada-dom2.5-dp.so.0:_ZN13ColladaDOM14125domGles_pipeline_settings22domStencil_test_enable15registerElementER3DAE
libcollada-dom2.5-dp.so.0:_ZN13ColladaDOM14125domGles_pipeline_settings22domStencil_test_enable6createER3DAE
libcollada-dom2.5-dp.so.0:_ZN13ColladaDOM14125domGles_pipeline_settings23domLight_spot_direction15registerElementER3DAE
libcollada-dom2.5-dp.so.0:_ZN13ColladaDOM14125domGles_pipeline_settings23domLight_spot_direction6createER3DAE
libcollada-dom2.5-dp.so.0:_ZN13ColladaDOM14125domGles_pipeline_settings24domColor_logic_op_enable15registerElementER3DAE
libcollada-dom2.5-dp.so.0:_ZN13ColladaDOM14125domGles_pipeline_settings24domColor_logic_op_enable6createER3DAE
libcollada-dom2.5-dp.so.0:_ZN13ColladaDOM14125domGles_pipeline_settings24domColor_material_enable15registerElementER3DAE
libcollada-dom2.5-dp.so.0:_ZN13ColladaDOM14125domGles_pipeline_settings24domColor_material_enable6createER3DAE
libcollada-dom2.5-dp.so.0:_ZN13ColladaDOM14125domGles_pipeline_settings24domRescale_normal_enable15registerElementER3DAE
libcollada-dom2.5-dp.so.0:_ZN13ColladaDOM14125domGles_pipeline_settings24domRescale_normal_enable6createER3DAE
libcollada-dom2.5-dp.so.0:_ZN13ColladaDOM14125domGles_pipeline_settings25domSample_coverage_enable15registerElementER3DAE
libcollada-dom2.5-dp.so.0:_ZN13ColladaDOM14125domGles_pipeline_settings25domSample_coverage_enable6createER3DAE
libcollada-dom2.5-dp.so.0:_ZN13ColladaDOM14125domGles_pipeline_settings26domTexture_pipeline_enable15registerElementER3DAE
libcollada-dom2.5-dp.so.0:_ZN13ColladaDOM14125domGles_pipeline_settings26domTexture_pipeline_enable6createER3DAE
libcollada-dom2.5-dp.so.0:_ZN13ColladaDOM14125domGles_pipeline_settings28domLight_linear_attenutation15registerElementER3DAE
libcollada-dom2.5-dp.so.0:_ZN13ColladaDOM14125domGles_pipeline_settings28domLight_linear_attenutation6createER3DAE
libcollada-dom2.5-dp.so.0:_ZN13ColladaDOM14125domGles_pipeline_settings28domPoint_fade_threshold_size15registerElementER3DAE
libcollada-dom2.5-dp.so.0:_ZN13ColladaDOM14125domGles_pipeline_settings28domPoint_fade_threshold_size6createER3DAE
libcollada-dom2.5-dp.so.0:_ZN13ColladaDOM14125domGles_pipeline_settings29domLight_constant_attenuation15registerElementER3DAE
libcollada-dom2.5-dp.so.0:_ZN13ColladaDOM14125domGles_pipeline_settings29domLight_constant_attenuation6createER3DAE
libcollada-dom2.5-dp.so.0:_ZN13ColladaDOM14125domGles_pipeline_settings29domPoint_distance_attenuation15registerElementER3DAE
libcollada-dom2.5-dp.so.0:_ZN13ColladaDOM14125domGles_pipeline_settings29domPoint_distance_attenuation6createER3DAE
libcollada-dom2.5-dp.so.0:_ZN13ColladaDOM14125domGles_pipeline_settings29domPolygon_offset_fill_enable15registerElementER3DAE
libcollada-dom2.5-dp.so.0:_ZN13ColladaDOM14125domGles_pipeline_settings29domPolygon_offset_fill_enable6createER3DAE
libcollada-dom2.5-dp.so.0:_ZN13ColladaDOM14125domGles_pipeline_settings29domSample_alpha_to_one_enable15registerElementER3DAE
libcollada-dom2.5-dp.so.0:_ZN13ColladaDOM14125domGles_pipeline_settings29domSample_alpha_to_one_enable6createER3DAE
libcollada-dom2.5-dp.so.0:_ZN13ColladaDOM14125domGles_pipeline_settings30domLight_model_two_side_enable15registerElementER3DAE
libcollada-dom2.5-dp.so.0:_ZN13ColladaDOM14125domGles_pipeline_settings30domLight_model_two_side_enable6createER3DAE
libcollada-dom2.5-dp.so.0:_ZN13ColladaDOM14125domGles_pipeline_settings30domLight_quadratic_attenuation15registerElementER3DAE
libcollada-dom2.5-dp.so.0:_ZN13ColladaDOM14125domGles_pipeline_settings30domLight_quadratic_attenuation6createER3DAE
libcollada-dom2.5-dp.so.0:_ZN13ColladaDOM14125domGles_pipeline_settings34domSample_alpha_to_coverage_enable15registerElementER3DAE
libcollada-dom2.5-dp.so.0:_ZN13ColladaDOM14125domGles_pipeline_settings34domSample_alpha_to_coverage_enable6createER3DAE
libcollada-dom2.5-dp.so.0:_ZN13ColladaDOM14125domGles_pipeline_settings6createER3DAE
libcollada-dom2.5-dp.so.0:_ZN13ColladaDOM14125domInstance_physics_model15registerElementER3DAE
libcollada-dom2.5-dp.so.0:_ZN13ColladaDOM14125domInstance_physics_model6createER3DAE
libcollada-dom2.5-dp.so.0:_ZN13ColladaDOM14125domLibrary_physics_models15registerElementER3DAE
libcollada-dom2.5-dp.so.0:_ZN13ColladaDOM14125domLibrary_physics_models6createER3DAE
libcollada-dom2.5-dp.so.0:_ZN13ColladaDOM14125domLibrary_physics_scenes15registerElementER3DAE
libcollada-dom2.5-dp.so.0:_ZN13ColladaDOM14125domLibrary_physics_scenes6createER3DAE
libcollada-dom2.5-dp.so.0:_ZN13ColladaDOM14126COLLADA_ELEMENT_ALPHA_FUNCE
libcollada-dom2.5-dp.so.0:_ZN13ColladaDOM14126COLLADA_ELEMENT_ATTACHMENTE
libcollada-dom2.5-dp.so.0:_ZN13ColladaDOM14126COLLADA_ELEMENT_BLEND_FUNCE
libcollada-dom2.5-dp.so.0:_ZN13ColladaDOM14126COLLADA_ELEMENT_BOOL_ARRAYE
libcollada-dom2.5-dp.so.0:_ZN13ColladaDOM14126COLLADA_ELEMENT_CLIP_PLANEE
libcollada-dom2.5-dp.so.0:_ZN13ColladaDOM14126COLLADA_ELEMENT_COLOR_MASKE
libcollada-dom2.5-dp.so.0:_ZN13ColladaDOM14126COLLADA_ELEMENT_CONTROLLERE
libcollada-dom2.5-dp.so.0:_ZN13ColladaDOM14126COLLADA_ELEMENT_DEPTH_FUNCE
libcollada-dom2.5-dp.so.0:_ZN13ColladaDOM14126COLLADA_ELEMENT_DEPTH_MASKE
libcollada-dom2.5-dp.so.0:_ZN13ColladaDOM14126COLLADA_ELEMENT_DEST_ALPHAE
libcollada-dom2.5-dp.so.0:_ZN13ColladaDOM14126COLLADA_ELEMENT_FOG_ENABLEE
libcollada-dom2.5-dp.so.0:_ZN13ColladaDOM14126COLLADA_ELEMENT_FRONT_FACEE
libcollada-dom2.5-dp.so.0:_ZN13ColladaDOM14126COLLADA_ELEMENT_LINESTRIPSE
libcollada-dom2.5-dp.so.0:_ZN13ColladaDOM14126COLLADA_ELEMENT_LINE_WIDTHE
libcollada-dom2.5-dp.so.0:_ZN13ColladaDOM14126COLLADA_ELEMENT_MASS_FRAMEE
libcollada-dom2.5-dp.so.0:_ZN13ColladaDOM14126COLLADA_ELEMENT_MIP_LEVELSE
libcollada-dom2.5-dp.so.0:_ZN13ColladaDOM14126COLLADA_ELEMENT_NAME_ARRAYE
libcollada-dom2.5-dp.so.0:_ZN13ColladaDOM14126COLLADA_ELEMENT_POINT_SIZEE
libcollada-dom2.5-dp.so.0:_ZN13ColladaDOM14126COLLADA_ELEMENT_PROFILE_CGE
libcollada-dom2.5-dp.so.0:_ZN13ColladaDOM14126COLLADA_ELEMENT_REFLECTIVEE
libcollada-dom2.5-dp.so.0:_ZN13ColladaDOM14126COLLADA_ELEMENT_RIGID_BODYE
libcollada-dom2.5-dp.so.0:_ZN13ColladaDOM14126COLLADA_ELEMENT_STENCIL_OPE
libcollada-dom2.5-dp.so.0:_ZN13ColladaDOM14126COLLADA_TYPE_BIND_MATERIALE
libcollada-dom2.5-dp.so.0:_ZN13ColladaDOM14126COLLADA_TYPE_CG_PARAM_TYPEE
libcollada-dom2.5-dp.so.0:_ZN13ColladaDOM14126COLLADA_TYPE_CLEAR_STENCILE
libcollada-dom2.5-dp.so.0:_ZN13ColladaDOM14126COLLADA_TYPE_DITHER_ENABLEE
libcollada-dom2.5-dp.so.0:_ZN13ColladaDOM14126COLLADA_TYPE_FOG_COORD_SRCE
libcollada-dom2.5-dp.so.0:_ZN13ColladaDOM14126COLLADA_TYPE_GLES_NEWPARAME
libcollada-dom2.5-dp.so.0:_ZN13ColladaDOM14126COLLADA_TYPE_GLSL_NEWPARAME
libcollada-dom2.5-dp.so.0:_ZN13ColladaDOM14126COLLADA_TYPE_GLSL_SETPARAME
libcollada-dom2.5-dp.so.0:_ZN13ColladaDOM14126COLLADA_TYPE_INSTANCE_NODEE
libcollada-dom2.5-dp.so.0:_ZN13ColladaDOM14126COLLADA_TYPE_LIBRARY_NODESE
libcollada-dom2.5-dp.so.0:_ZN13ColladaDOM14126COLLADA_TYPE_LIGHT_AMBIENTE
libcollada-dom2.5-dp.so.0:_ZN13ColladaDOM14126COLLADA_TYPE_LIGHT_DIFFUSEE
libcollada-dom2.5-dp.so.0:_ZN13ColladaDOM14126COLLADA_TYPE_PHYSICS_MODELE
libcollada-dom2.5-dp.so.0:_ZN13ColladaDOM14126COLLADA_TYPE_PHYSICS_SCENEE
libcollada-dom2.5-dp.so.0:_ZN13ColladaDOM14126COLLADA_TYPE_SAMPLER_STATEE
libcollada-dom2.5-dp.so.0:_ZN13ColladaDOM14126COLLADA_TYPE_STENCIL_CLEARE
libcollada-dom2.5-dp.so.0:_ZN13ColladaDOM14126COMMON_PROFILE_INPUT_COLORE
libcollada-dom2.5-dp.so.0:_ZN13ColladaDOM14126COMMON_PROFILE_INPUT_IMAGEE
libcollada-dom2.5-dp.so.0:_ZN13ColladaDOM14126COMMON_PROFILE_INPUT_INPUTE
libcollada-dom2.5-dp.so.0:_ZN13ColladaDOM14126COMMON_PROFILE_INPUT_JOINTE
libcollada-dom2.5-dp.so.0:_ZN13ColladaDOM14126COMMON_PROFILE_PARAM_ANGLEE
libcollada-dom2.5-dp.so.0:_ZN13ColladaDOM14126domCg_newparam_complexType11domModifier15registerElementER3DAE
libcollada-dom2.5-dp.so.0:_ZN13ColladaDOM14126domCg_newparam_complexType11domModifier6createER3DAE
libcollada-dom2.5-dp.so.0:_ZN13ColladaDOM14126domCg_newparam_complexType11domSemantic15registerElementER3DAE
libcollada-dom2.5-dp.so.0:_ZN13ColladaDOM14126domCg_newparam_complexType11domSemantic6createER3DAE
libcollada-dom2.5-dp.so.0:_ZN13ColladaDOM14126domCommon_transparent_type15registerElementER3DAE
libcollada-dom2.5-dp.so.0:_ZN13ColladaDOM14126domCommon_transparent_type6createER3DAE
libcollada-dom2.5-dp.so.0:_ZN13ColladaDOM14126domFx_annotate_type_common11domFloat2x215registerElementER3DAE
libcollada-dom2.5-dp.so.0:_ZN13ColladaDOM14126domFx_annotate_type_common11domFloat2x26createER3DAE
libcollada-dom2.5-dp.so.0:_ZN13ColladaDOM14126domFx_annotate_type_common11domFloat3x315registerElementER3DAE
libcollada-dom2.5-dp.so.0:_ZN13ColladaDOM14126domFx_annotate_type_common11domFloat3x36createER3DAE
libcollada-dom2.5-dp.so.0:_ZN13ColladaDOM14126domFx_annotate_type_common11domFloat4x415registerElementER3DAE
libcollada-dom2.5-dp.so.0:_ZN13ColladaDOM14126domFx_annotate_type_common11domFloat4x46createER3DAE
libcollada-dom2.5-dp.so.0:_ZN13ColladaDOM14126domFx_annotate_type_common15registerElementER3DAE
libcollada-dom2.5-dp.so.0:_ZN13ColladaDOM14126domFx_annotate_type_common6createER3DAE
libcollada-dom2.5-dp.so.0:_ZN13ColladaDOM14126domFx_annotate_type_common6domInt15registerElementER3DAE
libcollada-dom2.5-dp.so.0:_ZN13ColladaDOM14126domFx_annotate_type_common6domInt6createER3DAE
libcollada-dom2.5-dp.so.0:_ZN13ColladaDOM14126domFx_annotate_type_common7domBool15registerElementER3DAE
libcollada-dom2.5-dp.so.0:_ZN13ColladaDOM14126domFx_annotate_type_common7domBool6createER3DAE
libcollada-dom2.5-dp.so.0:_ZN13ColladaDOM14126domFx_annotate_type_common7domInt215registerElementER3DAE
libcollada-dom2.5-dp.so.0:_ZN13ColladaDOM14126domFx_annotate_type_common7domInt26createER3DAE
libcollada-dom2.5-dp.so.0:_ZN13ColladaDOM14126domFx_annotate_type_common7domInt315registerElementER3DAE
libcollada-dom2.5-dp.so.0:_ZN13ColladaDOM14126domFx_annotate_type_common7domInt36createER3DAE
libcollada-dom2.5-dp.so.0:_ZN13ColladaDOM14126domFx_annotate_type_common7domInt415registerElementER3DAE
libcollada-dom2.5-dp.so.0:_ZN13ColladaDOM14126domFx_annotate_type_common7domInt46createER3DAE
libcollada-dom2.5-dp.so.0:_ZN13ColladaDOM14126domFx_annotate_type_common8domBool215registerElementER3DAE
libcollada-dom2.5-dp.so.0:_ZN13ColladaDOM14126domFx_annotate_type_common8domBool26createER3DAE
libcollada-dom2.5-dp.so.0:_ZN13ColladaDOM14126domFx_annotate_type_common8domBool315registerElementER3DAE
libcollada-dom2.5-dp.so.0:_ZN13ColladaDOM14126domFx_annotate_type_common8domBool36createER3DAE
libcollada-dom2.5-dp.so.0:_ZN13ColladaDOM14126domFx_annotate_type_common8domBool415registerElementER3DAE
libcollada-dom2.5-dp.so.0:_ZN13ColladaDOM14126domFx_annotate_type_common8domBool46createER3DAE
libcollada-dom2.5-dp.so.0:_ZN13ColladaDOM14126domFx_annotate_type_common8domFloat15registerElementER3DAE
libcollada-dom2.5-dp.so.0:_ZN13ColladaDOM14126domFx_annotate_type_common8domFloat6createER3DAE
libcollada-dom2.5-dp.so.0:_ZN13ColladaDOM14126domFx_annotate_type_common9domFloat215registerElementER3DAE
libcollada-dom2.5-dp.so.0:_ZN13ColladaDOM14126domFx_annotate_type_common9domFloat26createER3DAE
libcollada-dom2.5-dp.so.0:_ZN13ColladaDOM14126domFx_annotate_type_common9domFloat315registerElementER3DAE
libcollada-dom2.5-dp.so.0:_ZN13ColladaDOM14126domFx_annotate_type_common9domFloat36createER3DAE
libcollada-dom2.5-dp.so.0:_ZN13ColladaDOM14126domFx_annotate_type_common9domFloat415registerElementER3DAE
libcollada-dom2.5-dp.so.0:_ZN13ColladaDOM14126domFx_annotate_type_common9domFloat46createER3DAE
libcollada-dom2.5-dp.so.0:_ZN13ColladaDOM14126domFx_annotate_type_common9domString15registerElementER3DAE
libcollada-dom2.5-dp.so.0:_ZN13ColladaDOM14126domFx_annotate_type_common9domString6createER3DAE
libcollada-dom2.5-dp.so.0:_ZN13ColladaDOM14126domFx_stenciltarget_common15registerElementER3DAE
libcollada-dom2.5-dp.so.0:_ZN13ColladaDOM14126domFx_stenciltarget_common6createER3DAE
libcollada-dom2.5-dp.so.0:_ZN13ColladaDOM14126domLibrary_animation_clips15registerElementER3DAE
libcollada-dom2.5-dp.so.0:_ZN13ColladaDOM14126domLibrary_animation_clips6createER3DAE
libcollada-dom2.5-dp.so.0:_ZN13ColladaDOM14127COLLADA_ELEMENT_BLEND_COLORE
libcollada-dom2.5-dp.so.0:_ZN13ColladaDOM14127COLLADA_ELEMENT_CLEAR_COLORE
libcollada-dom2.5-dp.so.0:_ZN13ColladaDOM14127COLLADA_ELEMENT_CLEAR_DEPTHE
libcollada-dom2.5-dp.so.0:_ZN13ColladaDOM14127COLLADA_ELEMENT_COLOR_CLEARE
libcollada-dom2.5-dp.so.0:_ZN13ColladaDOM14127COLLADA_ELEMENT_CONTRIBUTORE
libcollada-dom2.5-dp.so.0:_ZN13ColladaDOM14127COLLADA_ELEMENT_CONVEX_MESHE
libcollada-dom2.5-dp.so.0:_ZN13ColladaDOM14127COLLADA_ELEMENT_DEPTH_CLEARE
libcollada-dom2.5-dp.so.0:_ZN13ColladaDOM14127COLLADA_ELEMENT_DEPTH_RANGEE
libcollada-dom2.5-dp.so.0:_ZN13ColladaDOM14127COLLADA_ELEMENT_DIRECTIONALE
libcollada-dom2.5-dp.so.0:_ZN13ColladaDOM14127COLLADA_ELEMENT_FLOAT_ARRAYE
libcollada-dom2.5-dp.so.0:_ZN13ColladaDOM14127COLLADA_ELEMENT_FOG_DENSITYE
libcollada-dom2.5-dp.so.0:_ZN13ColladaDOM14127COLLADA_ELEMENT_FORCE_FIELDE
libcollada-dom2.5-dp.so.0:_ZN13ColladaDOM14127COLLADA_ELEMENT_FORMAT_HINTE
libcollada-dom2.5-dp.so.0:_ZN13ColladaDOM14127COLLADA_ELEMENT_IDREF_ARRAYE
libcollada-dom2.5-dp.so.0:_ZN13ColladaDOM14127COLLADA_ELEMENT_INIT_PLANARE
libcollada-dom2.5-dp.so.0:_ZN13ColladaDOM14127COLLADA_ELEMENT_INIT_VOLUMEE
libcollada-dom2.5-dp.so.0:_ZN13ColladaDOM14127COLLADA_ELEMENT_MIPMAP_BIASE
libcollada-dom2.5-dp.so.0:_ZN13ColladaDOM14127COLLADA_ELEMENT_PERSPECTIVEE
libcollada-dom2.5-dp.so.0:_ZN13ColladaDOM14127COLLADA_ELEMENT_RESTITUTIONE
libcollada-dom2.5-dp.so.0:_ZN13ColladaDOM14127COLLADA_ELEMENT_SAMPLERCUBEE
libcollada-dom2.5-dp.so.0:_ZN13ColladaDOM14127COLLADA_ELEMENT_SAMPLERRECTE
libcollada-dom2.5-dp.so.0:_ZN13ColladaDOM14127COLLADA_ELEMENT_SHADE_MODELE
libcollada-dom2.5-dp.so.0:_ZN13ColladaDOM14127COLLADA_ELEMENT_SOURCE_DATAE
libcollada-dom2.5-dp.so.0:_ZN13ColladaDOM14127COLLADA_ELEMENT_TEXCOMBINERE
libcollada-dom2.5-dp.so.0:_ZN13ColladaDOM14127COLLADA_ELEMENT_TEXTURECUBEE
libcollada-dom2.5-dp.so.0:_ZN13ColladaDOM14127COLLADA_ELEMENT_TEXTURERECTE
libcollada-dom2.5-dp.so.0:_ZN13ColladaDOM14127COLLADA_ELEMENT_TRANSPARENTE
libcollada-dom2.5-dp.so.0:_ZN13ColladaDOM14127COLLADA_TYPE_ANIMATION_CLIPE
libcollada-dom2.5-dp.so.0:_ZN13ColladaDOM14127COLLADA_TYPE_AUTHORING_TOOLE
libcollada-dom2.5-dp.so.0:_ZN13ColladaDOM14127COLLADA_TYPE_BLEND_EQUATIONE
libcollada-dom2.5-dp.so.0:_ZN13ColladaDOM14127COLLADA_TYPE_CG_SAMPLERCUBEE
libcollada-dom2.5-dp.so.0:_ZN13ColladaDOM14127COLLADA_TYPE_CG_SAMPLERRECTE
libcollada-dom2.5-dp.so.0:_ZN13ColladaDOM14127COLLADA_TYPE_COLOR_MATERIALE
libcollada-dom2.5-dp.so.0:_ZN13ColladaDOM14127COLLADA_TYPE_EVALUATE_SCENEE
libcollada-dom2.5-dp.so.0:_ZN13ColladaDOM14127COLLADA_TYPE_GL_SAMPLERCUBEE
libcollada-dom2.5-dp.so.0:_ZN13ColladaDOM14127COLLADA_TYPE_GL_SAMPLERRECTE
libcollada-dom2.5-dp.so.0:_ZN13ColladaDOM14127COLLADA_TYPE_INIT_AS_TARGETE
libcollada-dom2.5-dp.so.0:_ZN13ColladaDOM14127COLLADA_TYPE_INSTANCE_LIGHTE
libcollada-dom2.5-dp.so.0:_ZN13ColladaDOM14127COLLADA_TYPE_INTERPENETRATEE
libcollada-dom2.5-dp.so.0:_ZN13ColladaDOM14127COLLADA_TYPE_LIBRARY_IMAGESE
libcollada-dom2.5-dp.so.0:_ZN13ColladaDOM14127COLLADA_TYPE_LIBRARY_LIGHTSE
libcollada-dom2.5-dp.so.0:_ZN13ColladaDOM14127COLLADA_TYPE_LIGHT_POSITIONE
libcollada-dom2.5-dp.so.0:_ZN13ColladaDOM14127COLLADA_TYPE_LIGHT_SPECULARE
libcollada-dom2.5-dp.so.0:_ZN13ColladaDOM14127COLLADA_TYPE_POINT_SIZE_MAXE
libcollada-dom2.5-dp.so.0:_ZN13ColladaDOM14127COLLADA_TYPE_POINT_SIZE_MINE
libcollada-dom2.5-dp.so.0:_ZN13ColladaDOM14127COLLADA_TYPE_POLYGON_OFFSETE
libcollada-dom2.5-dp.so.0:_ZN13ColladaDOM14127COLLADA_TYPE_PROFILE_COMMONE
libcollada-dom2.5-dp.so.0:_ZN13ColladaDOM14127COLLADA_TYPE_REF_ATTACHMENTE
libcollada-dom2.5-dp.so.0:_ZN13ColladaDOM14127COLLADA_TYPE_STENCIL_TARGETE
libcollada-dom2.5-dp.so.0:_ZN13ColladaDOM14127COLLADA_TYPE_TECHNIQUE_HINTE
libcollada-dom2.5-dp.so.0:_ZN13ColladaDOM14127COLLADA_TYPE_VERTEX_WEIGHTSE
libcollada-dom2.5-dp.so.0:_ZN13ColladaDOM14127COLLADA_TYPE_VIEWPORT_RATIOE
libcollada-dom2.5-dp.so.0:_ZN13ColladaDOM14127COMMON_PROFILE_INPUT_NORMALE
libcollada-dom2.5-dp.so.0:_ZN13ColladaDOM14127COMMON_PROFILE_INPUT_OUTPUTE
libcollada-dom2.5-dp.so.0:_ZN13ColladaDOM14127COMMON_PROFILE_INPUT_VERTEXE
libcollada-dom2.5-dp.so.0:_ZN13ColladaDOM14127COMMON_PROFILE_INPUT_WEIGHTE
libcollada-dom2.5-dp.so.0:_ZN13ColladaDOM14127domGles_texenv_command_type15registerElementER3DAE
libcollada-dom2.5-dp.so.0:_ZN13ColladaDOM14127domGles_texenv_command_type6createER3DAE
libcollada-dom2.5-dp.so.0:_ZN13ColladaDOM14128COLLADA_ELEMENT_ASPECT_RATIOE
libcollada-dom2.5-dp.so.0:_ZN13ColladaDOM14128COLLADA_ELEMENT_BLEND_ENABLEE
libcollada-dom2.5-dp.so.0:_ZN13ColladaDOM14128COLLADA_ELEMENT_BORDER_COLORE
libcollada-dom2.5-dp.so.0:_ZN13ColladaDOM14128COLLADA_ELEMENT_COLOR_TARGETE
libcollada-dom2.5-dp.so.0:_ZN13ColladaDOM14128COLLADA_ELEMENT_DEPTH_BOUNDSE
libcollada-dom2.5-dp.so.0:_ZN13ColladaDOM14128COLLADA_ELEMENT_DEPTH_TARGETE
libcollada-dom2.5-dp.so.0:_ZN13ColladaDOM14128COLLADA_ELEMENT_HALF_EXTENTSE
libcollada-dom2.5-dp.so.0:_ZN13ColladaDOM14128COLLADA_ELEMENT_INIT_AS_NULLE
libcollada-dom2.5-dp.so.0:_ZN13ColladaDOM14128COLLADA_ELEMENT_LIGHT_ENABLEE
libcollada-dom2.5-dp.so.0:_ZN13ColladaDOM14128COLLADA_ELEMENT_LINE_STIPPLEE
libcollada-dom2.5-dp.so.0:_ZN13ColladaDOM14128COLLADA_ELEMENT_ORTHOGRAPHICE
libcollada-dom2.5-dp.so.0:_ZN13ColladaDOM14128COLLADA_ELEMENT_POLYGON_MODEE
libcollada-dom2.5-dp.so.0:_ZN13ColladaDOM14128COLLADA_ELEMENT_PROFILE_GLESE
libcollada-dom2.5-dp.so.0:_ZN13ColladaDOM14128COLLADA_ELEMENT_PROFILE_GLSLE
libcollada-dom2.5-dp.so.0:_ZN13ColladaDOM14128COLLADA_ELEMENT_REFLECTIVITYE
libcollada-dom2.5-dp.so.0:_ZN13ColladaDOM14128COLLADA_ELEMENT_SAMPLERDEPTHE
libcollada-dom2.5-dp.so.0:_ZN13ColladaDOM14128COLLADA_ELEMENT_STENCIL_FUNCE
libcollada-dom2.5-dp.so.0:_ZN13ColladaDOM14128COLLADA_ELEMENT_STENCIL_MASKE
libcollada-dom2.5-dp.so.0:_ZN13ColladaDOM14128COLLADA_ELEMENT_TARGET_VALUEE
libcollada-dom2.5-dp.so.0:_ZN13ColladaDOM14128COLLADA_ELEMENT_TEXTUREDEPTHE
libcollada-dom2.5-dp.so.0:_ZN13ColladaDOM14128COLLADA_ELEMENT_TEXTURE_UNITE
libcollada-dom2.5-dp.so.0:_ZN13ColladaDOM14128COLLADA_ELEMENT_TRANSPARENCYE
libcollada-dom2.5-dp.so.0:_ZN13ColladaDOM14128COLLADA_ELEMENT_VISUAL_SCENEE
libcollada-dom2.5-dp.so.0:_ZN13ColladaDOM14128COLLADA_TYPE_CG_SAMPLERDEPTHE
libcollada-dom2.5-dp.so.0:_ZN13ColladaDOM14128COLLADA_TYPE_CG_SETUSER_TYPEE
libcollada-dom2.5-dp.so.0:_ZN13ColladaDOM14128COLLADA_TYPE_CG_SURFACE_TYPEE
libcollada-dom2.5-dp.so.0:_ZN13ColladaDOM14128COLLADA_TYPE_COMPILER_TARGETE
libcollada-dom2.5-dp.so.0:_ZN13ColladaDOM14128COLLADA_TYPE_FX_CODE_PROFILEE
libcollada-dom2.5-dp.so.0:_ZN13ColladaDOM14128COLLADA_TYPE_GLSL_PARAM_TYPEE
libcollada-dom2.5-dp.so.0:_ZN13ColladaDOM14128COLLADA_TYPE_GL_SAMPLERDEPTHE
libcollada-dom2.5-dp.so.0:_ZN13ColladaDOM14128COLLADA_TYPE_INSTANCE_CAMERAE
libcollada-dom2.5-dp.so.0:_ZN13ColladaDOM14128COLLADA_TYPE_INSTANCE_EFFECTE
libcollada-dom2.5-dp.so.0:_ZN13ColladaDOM14128COLLADA_TYPE_LIBRARY_CAMERASE
libcollada-dom2.5-dp.so.0:_ZN13ColladaDOM14128COLLADA_TYPE_LIBRARY_EFFECTSE
libcollada-dom2.5-dp.so.0:_ZN13ColladaDOM14128COLLADA_TYPE_LIGHTING_ENABLEE
libcollada-dom2.5-dp.so.0:_ZN13ColladaDOM14128COLLADA_TYPE_LOGIC_OP_ENABLEE
libcollada-dom2.5-dp.so.0:_ZN13ColladaDOM14128COLLADA_TYPE_MIPMAP_GENERATEE
libcollada-dom2.5-dp.so.0:_ZN13ColladaDOM14128COLLADA_TYPE_MIPMAP_MAXLEVELE
libcollada-dom2.5-dp.so.0:_ZN13ColladaDOM14128COLLADA_TYPE_TAPERED_CAPSULEE
libcollada-dom2.5-dp.so.0:_ZN13ColladaDOM14128COLLADA_TYPE_TARGETABLEFLOATE
libcollada-dom2.5-dp.so.0:_ZN13ColladaDOM14128COMMON_PROFILE_INPUT_TANGENTE
libcollada-dom2.5-dp.so.0:_ZN13ColladaDOM14128domGles_newparam_complexType11domModifier15registerElementER3DAE
libcollada-dom2.5-dp.so.0:_ZN13ColladaDOM14128domGles_newparam_complexType11domModifier6createER3DAE
libcollada-dom2.5-dp.so.0:_ZN13ColladaDOM14128domGles_newparam_complexType11domSemantic15registerElementER3DAE
libcollada-dom2.5-dp.so.0:_ZN13ColladaDOM14128domGles_newparam_complexType11domSemantic6createER3DAE
libcollada-dom2.5-dp.so.0:_ZN13ColladaDOM14128domGlsl_newparam_complexType11domModifier15registerElementER3DAE
libcollada-dom2.5-dp.so.0:_ZN13ColladaDOM14128domGlsl_newparam_complexType11domModifier6createER3DAE
libcollada-dom2.5-dp.so.0:_ZN13ColladaDOM14128domGlsl_newparam_complexType11domSemantic15registerElementER3DAE
libcollada-dom2.5-dp.so.0:_ZN13ColladaDOM14128domGlsl_newparam_complexType11domSemantic6createER3DAE
libcollada-dom2.5-dp.so.0:_ZN13ColladaDOM14128domInstance_physics_material15registerElementER3DAE
libcollada-dom2.5-dp.so.0:_ZN13ColladaDOM14128domInstance_physics_material6createER3DAE
libcollada-dom2.5-dp.so.0:_ZN13ColladaDOM14128domInstance_rigid_constraint15registerElementER3DAE
libcollada-dom2.5-dp.so.0:_ZN13ColladaDOM14128domInstance_rigid_constraint6createER3DAE
libcollada-dom2.5-dp.so.0:_ZN13ColladaDOM14128domLibrary_physics_materials15registerElementER3DAE
libcollada-dom2.5-dp.so.0:_ZN13ColladaDOM14128domLibrary_physics_materials6createER3DAE
libcollada-dom2.5-dp.so.0:_ZN13ColladaDOM14129COLLADA_ELEMENT_BIND_MATERIALE
libcollada-dom2.5-dp.so.0:_ZN13ColladaDOM14129COLLADA_ELEMENT_CG_PARAM_TYPEE
libcollada-dom2.5-dp.so.0:_ZN13ColladaDOM14129COLLADA_ELEMENT_CLEAR_STENCILE
libcollada-dom2.5-dp.so.0:_ZN13ColladaDOM14129COLLADA_ELEMENT_CONNECT_PARAME
libcollada-dom2.5-dp.so.0:_ZN13ColladaDOM14129COLLADA_ELEMENT_DITHER_ENABLEE
libcollada-dom2.5-dp.so.0:_ZN13ColladaDOM14129COLLADA_ELEMENT_FALLOFF_ANGLEE
libcollada-dom2.5-dp.so.0:_ZN13ColladaDOM14129COLLADA_ELEMENT_FOG_COORD_SRCE
libcollada-dom2.5-dp.so.0:_ZN13ColladaDOM14129COLLADA_ELEMENT_INSTANCE_NODEE
libcollada-dom2.5-dp.so.0:_ZN13ColladaDOM14129COLLADA_ELEMENT_LIBRARY_NODESE
libcollada-dom2.5-dp.so.0:_ZN13ColladaDOM14129COLLADA_ELEMENT_LIGHT_AMBIENTE
libcollada-dom2.5-dp.so.0:_ZN13ColladaDOM14129COLLADA_ELEMENT_LIGHT_DIFFUSEE
libcollada-dom2.5-dp.so.0:_ZN13ColladaDOM14129COLLADA_ELEMENT_PHYSICS_MODELE
libcollada-dom2.5-dp.so.0:_ZN13ColladaDOM14129COLLADA_ELEMENT_PHYSICS_SCENEE
libcollada-dom2.5-dp.so.0:_ZN13ColladaDOM14129COLLADA_ELEMENT_SAMPLER_STATEE
libcollada-dom2.5-dp.so.0:_ZN13ColladaDOM14129COLLADA_ELEMENT_STENCIL_CLEARE
libcollada-dom2.5-dp.so.0:_ZN13ColladaDOM14129COLLADA_TYPE_ANGULAR_VELOCITYE
libcollada-dom2.5-dp.so.0:_ZN13ColladaDOM14129COLLADA_TYPE_CG_CONNECT_PARAME
libcollada-dom2.5-dp.so.0:_ZN13ColladaDOM14129COLLADA_TYPE_CG_NEWARRAY_TYPEE
libcollada-dom2.5-dp.so.0:_ZN13ColladaDOM14129COLLADA_TYPE_CG_SETARRAY_TYPEE
libcollada-dom2.5-dp.so.0:_ZN13ColladaDOM14129COLLADA_TYPE_COMPILER_OPTIONSE
libcollada-dom2.5-dp.so.0:_ZN13ColladaDOM14129COLLADA_TYPE_CONTROL_VERTICESE
libcollada-dom2.5-dp.so.0:_ZN13ColladaDOM14129COLLADA_TYPE_CULL_FACE_ENABLEE
libcollada-dom2.5-dp.so.0:_ZN13ColladaDOM14129COLLADA_TYPE_GL_HOOK_ABSTRACTE
libcollada-dom2.5-dp.so.0:_ZN13ColladaDOM14129COLLADA_TYPE_INPUTLOCALOFFSETE
libcollada-dom2.5-dp.so.0:_ZN13ColladaDOM14129COLLADA_TYPE_MATERIAL_AMBIENTE
libcollada-dom2.5-dp.so.0:_ZN13ColladaDOM14129COLLADA_TYPE_MATERIAL_DIFFUSEE
libcollada-dom2.5-dp.so.0:_ZN13ColladaDOM14129COLLADA_TYPE_NORMALIZE_ENABLEE
libcollada-dom2.5-dp.so.0:_ZN13ColladaDOM14129COLLADA_TYPE_PHYSICS_MATERIALE
libcollada-dom2.5-dp.so.0:_ZN13ColladaDOM14129COLLADA_TYPE_RIGID_CONSTRAINTE
libcollada-dom2.5-dp.so.0:_ZN13ColladaDOM14129COLLADA_TYPE_TAPERED_CYLINDERE
libcollada-dom2.5-dp.so.0:_ZN13ColladaDOM14129COLLADA_TYPE_TARGETABLEFLOAT3E
libcollada-dom2.5-dp.so.0:_ZN13ColladaDOM14129COLLADA_TYPE_TECHNIQUE_COMMONE
libcollada-dom2.5-dp.so.0:_ZN13ColladaDOM14129COLLADA_TYPE_TEXTURE1D_ENABLEE
libcollada-dom2.5-dp.so.0:_ZN13ColladaDOM14129COLLADA_TYPE_TEXTURE2D_ENABLEE
libcollada-dom2.5-dp.so.0:_ZN13ColladaDOM14129COLLADA_TYPE_TEXTURE3D_ENABLEE
libcollada-dom2.5-dp.so.0:_ZN13ColladaDOM14129COLLADA_TYPE_TEXTURE_ENV_MODEE
libcollada-dom2.5-dp.so.0:_ZN13ColladaDOM14129COLLADA_TYPE_TEXTURE_PIPELINEE
libcollada-dom2.5-dp.so.0:_ZN13ColladaDOM14129COMMON_PROFILE_INPUT_BINORMALE
libcollada-dom2.5-dp.so.0:_ZN13ColladaDOM14129COMMON_PROFILE_INPUT_POSITIONE
libcollada-dom2.5-dp.so.0:_ZN13ColladaDOM14129COMMON_PROFILE_INPUT_TEXCOORDE
libcollada-dom2.5-dp.so.0:_ZN13ColladaDOM14129domCommon_float_or_param_type15registerElementER3DAE
libcollada-dom2.5-dp.so.0:_ZN13ColladaDOM14129domCommon_float_or_param_type6createER3DAE
libcollada-dom2.5-dp.so.0:_ZN13ColladaDOM14129domGles_texture_constant_type15registerElementER3DAE
libcollada-dom2.5-dp.so.0:_ZN13ColladaDOM14129domGles_texture_constant_type6createER3DAE
libcollada-dom2.5-dp.so.0:_ZN13ColladaDOM14130COLLADA_ELEMENT_ANIMATION_CLIPE
libcollada-dom2.5-dp.so.0:_ZN13ColladaDOM14130COLLADA_ELEMENT_AUTHORING_TOOLE
libcollada-dom2.5-dp.so.0:_ZN13ColladaDOM14130COLLADA_ELEMENT_BLEND_EQUATIONE
libcollada-dom2.5-dp.so.0:_ZN13ColladaDOM14130COLLADA_ELEMENT_COLOR_MATERIALE
libcollada-dom2.5-dp.so.0:_ZN13ColladaDOM14130COLLADA_ELEMENT_EVALUATE_SCENEE
libcollada-dom2.5-dp.so.0:_ZN13ColladaDOM14130COLLADA_ELEMENT_INIT_AS_TARGETE
libcollada-dom2.5-dp.so.0:_ZN13ColladaDOM14130COLLADA_ELEMENT_INSTANCE_LIGHTE
libcollada-dom2.5-dp.so.0:_ZN13ColladaDOM14130COLLADA_ELEMENT_INTERPENETRATEE
libcollada-dom2.5-dp.so.0:_ZN13ColladaDOM14130COLLADA_ELEMENT_LIBRARY_IMAGESE
libcollada-dom2.5-dp.so.0:_ZN13ColladaDOM14130COLLADA_ELEMENT_LIBRARY_LIGHTSE
libcollada-dom2.5-dp.so.0:_ZN13ColladaDOM14130COLLADA_ELEMENT_LIGHT_POSITIONE
libcollada-dom2.5-dp.so.0:_ZN13ColladaDOM14130COLLADA_ELEMENT_LIGHT_SPECULARE
libcollada-dom2.5-dp.so.0:_ZN13ColladaDOM14130COLLADA_ELEMENT_POINT_SIZE_MAXE
libcollada-dom2.5-dp.so.0:_ZN13ColladaDOM14130COLLADA_ELEMENT_POINT_SIZE_MINE
libcollada-dom2.5-dp.so.0:_ZN13ColladaDOM14130COLLADA_ELEMENT_POLYGON_OFFSETE
libcollada-dom2.5-dp.so.0:_ZN13ColladaDOM14130COLLADA_ELEMENT_PROFILE_COMMONE
libcollada-dom2.5-dp.so.0:_ZN13ColladaDOM14130COLLADA_ELEMENT_REF_ATTACHMENTE
libcollada-dom2.5-dp.so.0:_ZN13ColladaDOM14130COLLADA_ELEMENT_STENCIL_TARGETE
libcollada-dom2.5-dp.so.0:_ZN13ColladaDOM14130COLLADA_ELEMENT_TECHNIQUE_HINTE
libcollada-dom2.5-dp.so.0:_ZN13ColladaDOM14130COLLADA_ELEMENT_VERTEX_WEIGHTSE
libcollada-dom2.5-dp.so.0:_ZN13ColladaDOM14130COLLADA_ELEMENT_VIEWPORT_RATIOE
libcollada-dom2.5-dp.so.0:_ZN13ColladaDOM14130COLLADA_TYPE_ALPHA_TEST_ENABLEE
libcollada-dom2.5-dp.so.0:_ZN13ColladaDOM14130COLLADA_TYPE_BIND_SHAPE_MATRIXE
libcollada-dom2.5-dp.so.0:_ZN13ColladaDOM14130COLLADA_TYPE_BIND_VERTEX_INPUTE
libcollada-dom2.5-dp.so.0:_ZN13ColladaDOM14130COLLADA_TYPE_CLIP_PLANE_ENABLEE
libcollada-dom2.5-dp.so.0:_ZN13ColladaDOM14130COLLADA_TYPE_DEPTH_TEST_ENABLEE
libcollada-dom2.5-dp.so.0:_ZN13ColladaDOM14130COLLADA_TYPE_FX_INCLUDE_COMMONE
libcollada-dom2.5-dp.so.0:_ZN13ColladaDOM14130COLLADA_TYPE_FX_SURFACE_COMMONE
libcollada-dom2.5-dp.so.0:_ZN13ColladaDOM14130COLLADA_TYPE_GLES_TEXTURE_UNITE
libcollada-dom2.5-dp.so.0:_ZN13ColladaDOM14130COLLADA_TYPE_GLSL_SURFACE_TYPEE
libcollada-dom2.5-dp.so.0:_ZN13ColladaDOM14130COLLADA_TYPE_INSTANCEWITHEXTRAE
libcollada-dom2.5-dp.so.0:_ZN13ColladaDOM14130COLLADA_TYPE_INSTANCE_GEOMETRYE
libcollada-dom2.5-dp.so.0:_ZN13ColladaDOM14130COLLADA_TYPE_INSTANCE_MATERIALE
libcollada-dom2.5-dp.so.0:_ZN13ColladaDOM14130COLLADA_TYPE_LIBRARY_MATERIALSE
libcollada-dom2.5-dp.so.0:_ZN13ColladaDOM14130COLLADA_TYPE_LIGHT_SPOT_CUTOFFE
libcollada-dom2.5-dp.so.0:_ZN13ColladaDOM14130COLLADA_TYPE_MATERIAL_EMISSIONE
libcollada-dom2.5-dp.so.0:_ZN13ColladaDOM14130COLLADA_TYPE_MATERIAL_SPECULARE
libcollada-dom2.5-dp.so.0:_ZN13ColladaDOM14130COLLADA_TYPE_MODEL_VIEW_MATRIXE
libcollada-dom2.5-dp.so.0:_ZN13ColladaDOM14130COLLADA_TYPE_PROJECTION_MATRIXE
libcollada-dom2.5-dp.so.0:_ZN13ColladaDOM14130COLLADA_TYPE_TEXTURE_ENV_COLORE
libcollada-dom2.5-dp.so.0:_ZN13ColladaDOM14130domCg_surface_type_complexType12domGenerator15registerElementER3DAE
libcollada-dom2.5-dp.so.0:_ZN13ColladaDOM14130domCg_surface_type_complexType12domGenerator6createER3DAE
libcollada-dom2.5-dp.so.0:_ZN13ColladaDOM14130domCg_surface_type_complexType12domGenerator7domName15registerElementER3DAE
libcollada-dom2.5-dp.so.0:_ZN13ColladaDOM14130domCg_surface_type_complexType12domGenerator7domName6createER3DAE
libcollada-dom2.5-dp.so.0:_ZN13ColladaDOM14130domFx_surface_init_cube_common15registerElementER3DAE
libcollada-dom2.5-dp.so.0:_ZN13ColladaDOM14130domFx_surface_init_cube_common6createER3DAE
libcollada-dom2.5-dp.so.0:_ZN13ColladaDOM14130domFx_surface_init_from_common15registerElementER3DAE
libcollada-dom2.5-dp.so.0:_ZN13ColladaDOM14130domFx_surface_init_from_common6createER3DAE
libcollada-dom2.5-dp.so.0:_ZN13ColladaDOM14131COLLADA_ELEMENT_COMPILER_TARGETE
libcollada-dom2.5-dp.so.0:_ZN13ColladaDOM14131COLLADA_ELEMENT_GLSL_PARAM_TYPEE
libcollada-dom2.5-dp.so.0:_ZN13ColladaDOM14131COLLADA_ELEMENT_INSTANCE_CAMERAE
libcollada-dom2.5-dp.so.0:_ZN13ColladaDOM14131COLLADA_ELEMENT_INSTANCE_EFFECTE
libcollada-dom2.5-dp.so.0:_ZN13ColladaDOM14131COLLADA_ELEMENT_LIBRARY_CAMERASE
libcollada-dom2.5-dp.so.0:_ZN13ColladaDOM14131COLLADA_ELEMENT_LIBRARY_EFFECTSE
libcollada-dom2.5-dp.so.0:_ZN13ColladaDOM14131COLLADA_ELEMENT_LIGHTING_ENABLEE
libcollada-dom2.5-dp.so.0:_ZN13ColladaDOM14131COLLADA_ELEMENT_LOGIC_OP_ENABLEE
libcollada-dom2.5-dp.so.0:_ZN13ColladaDOM14131COLLADA_ELEMENT_MIPMAP_GENERATEE
libcollada-dom2.5-dp.so.0:_ZN13ColladaDOM14131COLLADA_ELEMENT_MIPMAP_MAXLEVELE
libcollada-dom2.5-dp.so.0:_ZN13ColladaDOM14131COLLADA_ELEMENT_STATIC_FRICTIONE
libcollada-dom2.5-dp.so.0:_ZN13ColladaDOM14131COLLADA_ELEMENT_TAPERED_CAPSULEE
libcollada-dom2.5-dp.so.0:_ZN13ColladaDOM14131COLLADA_TYPE_AUTO_NORMAL_ENABLEE
libcollada-dom2.5-dp.so.0:_ZN13ColladaDOM14131COLLADA_TYPE_CG_SETPARAM_SIMPLEE
libcollada-dom2.5-dp.so.0:_ZN13ColladaDOM14131COLLADA_TYPE_DEPTH_CLAMP_ENABLEE
libcollada-dom2.5-dp.so.0:_ZN13ColladaDOM14131COLLADA_TYPE_FX_ANNOTATE_COMMONE
libcollada-dom2.5-dp.so.0:_ZN13ColladaDOM14131COLLADA_TYPE_FX_NEWPARAM_COMMONE
libcollada-dom2.5-dp.so.0:_ZN13ColladaDOM14131COLLADA_TYPE_GLES_SAMPLER_STATEE
libcollada-dom2.5-dp.so.0:_ZN13ColladaDOM14131COLLADA_TYPE_GLSL_NEWARRAY_TYPEE
libcollada-dom2.5-dp.so.0:_ZN13ColladaDOM14131COLLADA_TYPE_GLSL_SETARRAY_TYPEE
libcollada-dom2.5-dp.so.0:_ZN13ColladaDOM14131COLLADA_TYPE_LIBRARY_ANIMATIONSE
libcollada-dom2.5-dp.so.0:_ZN13ColladaDOM14131COLLADA_TYPE_LIBRARY_GEOMETRIESE
libcollada-dom2.5-dp.so.0:_ZN13ColladaDOM14131COLLADA_TYPE_LINE_SMOOTH_ENABLEE
libcollada-dom2.5-dp.so.0:_ZN13ColladaDOM14131COLLADA_TYPE_MATERIAL_SHININESSE
libcollada-dom2.5-dp.so.0:_ZN13ColladaDOM14131COLLADA_TYPE_MULTISAMPLE_ENABLEE
libcollada-dom2.5-dp.so.0:_ZN13ColladaDOM14131COLLADA_TYPE_TEXTURECUBE_ENABLEE
libcollada-dom2.5-dp.so.0:_ZN13ColladaDOM14131COLLADA_TYPE_TEXTURERECT_ENABLEE
libcollada-dom2.5-dp.so.0:_ZN13ColladaDOM14131COMMON_PROFILE_INPUT_CONTINUITYE
libcollada-dom2.5-dp.so.0:_ZN13ColladaDOM14131COMMON_PROFILE_INPUT_IN_TANGENTE
libcollada-dom2.5-dp.so.0:_ZN13ColladaDOM14131COMMON_PROFILE_INPUT_TEXTANGENTE
libcollada-dom2.5-dp.so.0:_ZN13ColladaDOM14131domCommon_color_or_texture_type15registerElementER3DAE
libcollada-dom2.5-dp.so.0:_ZN13ColladaDOM14131domCommon_color_or_texture_type6createER3DAE
libcollada-dom2.5-dp.so.0:_ZN13ColladaDOM14132COLLADA_ELEMENT_ANGULAR_VELOCITYE
libcollada-dom2.5-dp.so.0:_ZN13ColladaDOM14132COLLADA_ELEMENT_COMPILER_OPTIONSE
libcollada-dom2.5-dp.so.0:_ZN13ColladaDOM14132COLLADA_ELEMENT_CONTROL_VERTICESE
libcollada-dom2.5-dp.so.0:_ZN13ColladaDOM14132COLLADA_ELEMENT_CULL_FACE_ENABLEE
libcollada-dom2.5-dp.so.0:_ZN13ColladaDOM14132COLLADA_ELEMENT_DYNAMIC_FRICTIONE
libcollada-dom2.5-dp.so.0:_ZN13ColladaDOM14132COLLADA_ELEMENT_FALLOFF_EXPONENTE
libcollada-dom2.5-dp.so.0:_ZN13ColladaDOM14132COLLADA_ELEMENT_GL_HOOK_ABSTRACTE
libcollada-dom2.5-dp.so.0:_ZN13ColladaDOM14132COLLADA_ELEMENT_MATERIAL_AMBIENTE
libcollada-dom2.5-dp.so.0:_ZN13ColladaDOM14132COLLADA_ELEMENT_MATERIAL_DIFFUSEE
libcollada-dom2.5-dp.so.0:_ZN13ColladaDOM14132COLLADA_ELEMENT_NORMALIZE_ENABLEE
libcollada-dom2.5-dp.so.0:_ZN13ColladaDOM14132COLLADA_ELEMENT_PHYSICS_MATERIALE
libcollada-dom2.5-dp.so.0:_ZN13ColladaDOM14132COLLADA_ELEMENT_RIGID_CONSTRAINTE
libcollada-dom2.5-dp.so.0:_ZN13ColladaDOM14132COLLADA_ELEMENT_TAPERED_CYLINDERE
libcollada-dom2.5-dp.so.0:_ZN13ColladaDOM14132COLLADA_ELEMENT_TECHNIQUE_COMMONE
libcollada-dom2.5-dp.so.0:_ZN13ColladaDOM14132COLLADA_ELEMENT_TEXTURE1D_ENABLEE
libcollada-dom2.5-dp.so.0:_ZN13ColladaDOM14132COLLADA_ELEMENT_TEXTURE2D_ENABLEE
libcollada-dom2.5-dp.so.0:_ZN13ColladaDOM14132COLLADA_ELEMENT_TEXTURE3D_ENABLEE
libcollada-dom2.5-dp.so.0:_ZN13ColladaDOM14132COLLADA_ELEMENT_TEXTURE_ENV_MODEE
libcollada-dom2.5-dp.so.0:_ZN13ColladaDOM14132COLLADA_ELEMENT_TEXTURE_PIPELINEE
libcollada-dom2.5-dp.so.0:_ZN13ColladaDOM14132COLLADA_TYPE_BLEND_FUNC_SEPARATEE
libcollada-dom2.5-dp.so.0:_ZN13ColladaDOM14132COLLADA_TYPE_DEPTH_BOUNDS_ENABLEE
libcollada-dom2.5-dp.so.0:_ZN13ColladaDOM14132COLLADA_TYPE_FX_PROFILE_ABSTRACTE
libcollada-dom2.5-dp.so.0:_ZN13ColladaDOM14132COLLADA_TYPE_FX_SAMPLER1D_COMMONE
libcollada-dom2.5-dp.so.0:_ZN13ColladaDOM14132COLLADA_TYPE_FX_SAMPLER2D_COMMONE
libcollada-dom2.5-dp.so.0:_ZN13ColladaDOM14132COLLADA_TYPE_FX_SAMPLER3D_COMMONE
libcollada-dom2.5-dp.so.0:_ZN13ColladaDOM14132COLLADA_TYPE_INSTANCE_CONTROLLERE
libcollada-dom2.5-dp.so.0:_ZN13ColladaDOM14132COLLADA_TYPE_INSTANCE_RIGID_BODYE
libcollada-dom2.5-dp.so.0:_ZN13ColladaDOM14132COLLADA_TYPE_LIBRARY_CONTROLLERSE
libcollada-dom2.5-dp.so.0:_ZN13ColladaDOM14132COLLADA_TYPE_LIGHT_MODEL_AMBIENTE
libcollada-dom2.5-dp.so.0:_ZN13ColladaDOM14132COLLADA_TYPE_LIGHT_SPOT_EXPONENTE
libcollada-dom2.5-dp.so.0:_ZN13ColladaDOM14132COLLADA_TYPE_LINE_STIPPLE_ENABLEE
libcollada-dom2.5-dp.so.0:_ZN13ColladaDOM14132COLLADA_TYPE_POINT_SMOOTH_ENABLEE
libcollada-dom2.5-dp.so.0:_ZN13ColladaDOM14132COLLADA_TYPE_SCISSOR_TEST_ENABLEE
libcollada-dom2.5-dp.so.0:_ZN13ColladaDOM14132COLLADA_TYPE_STENCIL_OP_SEPARATEE
libcollada-dom2.5-dp.so.0:_ZN13ColladaDOM14132COLLADA_TYPE_STENCIL_TEST_ENABLEE
libcollada-dom2.5-dp.so.0:_ZN13ColladaDOM14132COLLADA_TYPE_TEXTUREDEPTH_ENABLEE
libcollada-dom2.5-dp.so.0:_ZN13ColladaDOM14132COMMON_PROFILE_INPUT_OUT_TANGENTE
libcollada-dom2.5-dp.so.0:_ZN13ColladaDOM14132COMMON_PROFILE_INPUT_TEXBINORMALE
libcollada-dom2.5-dp.so.0:_ZN13ColladaDOM14132domFx_surface_common_complexType13domMip_levels15registerElementER3DAE
libcollada-dom2.5-dp.so.0:_ZN13ColladaDOM14132domFx_surface_common_complexType13domMip_levels6createER3DAE
libcollada-dom2.5-dp.so.0:_ZN13ColladaDOM14132domFx_surface_common_complexType17domViewport_ratio15registerElementER3DAE
libcollada-dom2.5-dp.so.0:_ZN13ColladaDOM14132domFx_surface_common_complexType17domViewport_ratio6createER3DAE
libcollada-dom2.5-dp.so.0:_ZN13ColladaDOM14132domFx_surface_common_complexType18domMipmap_generate15registerElementER3DAE
libcollada-dom2.5-dp.so.0:_ZN13ColladaDOM14132domFx_surface_common_complexType18domMipmap_generate6createER3DAE
libcollada-dom2.5-dp.so.0:_ZN13ColladaDOM14132domFx_surface_common_complexType7domSize15registerElementER3DAE
libcollada-dom2.5-dp.so.0:_ZN13ColladaDOM14132domFx_surface_common_complexType7domSize6createER3DAE
libcollada-dom2.5-dp.so.0:_ZN13ColladaDOM14132domFx_surface_common_complexType9domFormat15registerElementER3DAE
libcollada-dom2.5-dp.so.0:_ZN13ColladaDOM14132domFx_surface_common_complexType9domFormat6createER3DAE
libcollada-dom2.5-dp.so.0:_ZN13ColladaDOM14132domFx_surface_format_hint_common15registerElementER3DAE
libcollada-dom2.5-dp.so.0:_ZN13ColladaDOM14132domFx_surface_format_hint_common6createER3DAE
libcollada-dom2.5-dp.so.0:_ZN13ColladaDOM14132domFx_surface_init_planar_common15registerElementER3DAE
libcollada-dom2.5-dp.so.0:_ZN13ColladaDOM14132domFx_surface_init_planar_common6createER3DAE
libcollada-dom2.5-dp.so.0:_ZN13ColladaDOM14132domFx_surface_init_volume_common15registerElementER3DAE
libcollada-dom2.5-dp.so.0:_ZN13ColladaDOM14132domFx_surface_init_volume_common6createER3DAE
libcollada-dom2.5-dp.so.0:_ZN13ColladaDOM14132domGles_texcombiner_command_type15registerElementER3DAE
libcollada-dom2.5-dp.so.0:_ZN13ColladaDOM14132domGles_texcombiner_command_type6createER3DAE
libcollada-dom2.5-dp.so.0:_ZN13ColladaDOM14132domGles_texture_unit_complexType10domSurface15registerElementER3DAE
libcollada-dom2.5-dp.so.0:_ZN13ColladaDOM14132domGles_texture_unit_complexType10domSurface6createER3DAE
libcollada-dom2.5-dp.so.0:_ZN13ColladaDOM14132domGles_texture_unit_complexType11domTexcoord15registerElementER3DAE
libcollada-dom2.5-dp.so.0:_ZN13ColladaDOM14132domGles_texture_unit_complexType11domTexcoord6createER3DAE
libcollada-dom2.5-dp.so.0:_ZN13ColladaDOM14132domGles_texture_unit_complexType16domSampler_state15registerElementER3DAE
libcollada-dom2.5-dp.so.0:_ZN13ColladaDOM14132domGles_texture_unit_complexType16domSampler_state6createER3DAE
libcollada-dom2.5-dp.so.0:_ZN13ColladaDOM14132domGlsl_surface_type_complexType12domGenerator15registerElementER3DAE
libcollada-dom2.5-dp.so.0:_ZN13ColladaDOM14132domGlsl_surface_type_complexType12domGenerator6createER3DAE
libcollada-dom2.5-dp.so.0:_ZN13ColladaDOM14132domGlsl_surface_type_complexType12domGenerator7domName15registerElementER3DAE
libcollada-dom2.5-dp.so.0:_ZN13ColladaDOM14132domGlsl_surface_type_complexType12domGenerator7domName6createER3DAE
libcollada-dom2.5-dp.so.0:_ZN13ColladaDOM14133COLLADA_ELEMENT_ALPHA_TEST_ENABLEE
libcollada-dom2.5-dp.so.0:_ZN13ColladaDOM14133COLLADA_ELEMENT_BIND_SHAPE_MATRIXE
libcollada-dom2.5-dp.so.0:_ZN13ColladaDOM14133COLLADA_ELEMENT_BIND_VERTEX_INPUTE
libcollada-dom2.5-dp.so.0:_ZN13ColladaDOM14133COLLADA_ELEMENT_CLIP_PLANE_ENABLEE
libcollada-dom2.5-dp.so.0:_ZN13ColladaDOM14133COLLADA_ELEMENT_DEPTH_TEST_ENABLEE
libcollada-dom2.5-dp.so.0:_ZN13ColladaDOM14133COLLADA_ELEMENT_INSTANCE_GEOMETRYE
libcollada-dom2.5-dp.so.0:_ZN13ColladaDOM14133COLLADA_ELEMENT_INSTANCE_MATERIALE
libcollada-dom2.5-dp.so.0:_ZN13ColladaDOM14133COLLADA_ELEMENT_LIBRARY_MATERIALSE
libcollada-dom2.5-dp.so.0:_ZN13ColladaDOM14133COLLADA_ELEMENT_LIGHT_SPOT_CUTOFFE
libcollada-dom2.5-dp.so.0:_ZN13ColladaDOM14133COLLADA_ELEMENT_MATERIAL_EMISSIONE
libcollada-dom2.5-dp.so.0:_ZN13ColladaDOM14133COLLADA_ELEMENT_MATERIAL_SPECULARE
libcollada-dom2.5-dp.so.0:_ZN13ColladaDOM14133COLLADA_ELEMENT_MODEL_VIEW_MATRIXE
libcollada-dom2.5-dp.so.0:_ZN13ColladaDOM14133COLLADA_ELEMENT_PROJECTION_MATRIXE
libcollada-dom2.5-dp.so.0:_ZN13ColladaDOM14133COLLADA_ELEMENT_TEXTURE_ENV_COLORE
libcollada-dom2.5-dp.so.0:_ZN13ColladaDOM14133COLLADA_TYPE_COMMON_NEWPARAM_TYPEE
libcollada-dom2.5-dp.so.0:_ZN13ColladaDOM14133COLLADA_TYPE_FX_BASIC_TYPE_COMMONE
libcollada-dom2.5-dp.so.0:_ZN13ColladaDOM14133COLLADA_TYPE_FX_CLEARCOLOR_COMMONE
libcollada-dom2.5-dp.so.0:_ZN13ColladaDOM14133COLLADA_TYPE_FX_CLEARDEPTH_COMMONE
libcollada-dom2.5-dp.so.0:_ZN13ColladaDOM14133COLLADA_TYPE_GLSL_SETPARAM_SIMPLEE
libcollada-dom2.5-dp.so.0:_ZN13ColladaDOM14133COLLADA_TYPE_GL_PIPELINE_SETTINGSE
libcollada-dom2.5-dp.so.0:_ZN13ColladaDOM14133COLLADA_TYPE_INSTANCE_FORCE_FIELDE
libcollada-dom2.5-dp.so.0:_ZN13ColladaDOM14133COLLADA_TYPE_LIBRARY_FORCE_FIELDSE
libcollada-dom2.5-dp.so.0:_ZN13ColladaDOM14133COLLADA_TYPE_LIGHT_SPOT_DIRECTIONE
libcollada-dom2.5-dp.so.0:_ZN13ColladaDOM14133COLLADA_TYPE_SWING_CONE_AND_TWISTE
libcollada-dom2.5-dp.so.0:_ZN13ColladaDOM14133COMMON_PROFILE_INPUT_LINEAR_STEPSE
libcollada-dom2.5-dp.so.0:_ZN13ColladaDOM14133COMMON_PROFILE_INPUT_MORPH_TARGETE
libcollada-dom2.5-dp.so.0:_ZN13ColladaDOM14133COMMON_PROFILE_INPUT_MORPH_WEIGHTE
libcollada-dom2.5-dp.so.0:_ZN13ColladaDOM14133COMMON_PROFILE_PARAM_DOUBLE_SIDEDE
libcollada-dom2.5-dp.so.0:_ZN13ColladaDOM14133domFx_newparam_common_complexType11domModifier15registerElementER3DAE
libcollada-dom2.5-dp.so.0:_ZN13ColladaDOM14133domFx_newparam_common_complexType11domModifier6createER3DAE
libcollada-dom2.5-dp.so.0:_ZN13ColladaDOM14133domFx_newparam_common_complexType11domSemantic15registerElementER3DAE
libcollada-dom2.5-dp.so.0:_ZN13ColladaDOM14133domFx_newparam_common_complexType11domSemantic6createER3DAE
libcollada-dom2.5-dp.so.0:_ZN13ColladaDOM14133domGles_sampler_state_complexType12domMagfilter15registerElementER3DAE
libcollada-dom2.5-dp.so.0:_ZN13ColladaDOM14133domGles_sampler_state_complexType12domMagfilter6createER3DAE
libcollada-dom2.5-dp.so.0:_ZN13ColladaDOM14133domGles_sampler_state_complexType12domMinfilter15registerElementER3DAE
libcollada-dom2.5-dp.so.0:_ZN13ColladaDOM14133domGles_sampler_state_complexType12domMinfilter6createER3DAE
libcollada-dom2.5-dp.so.0:_ZN13ColladaDOM14133domGles_sampler_state_complexType12domMipfilter15registerElementER3DAE
libcollada-dom2.5-dp.so.0:_ZN13ColladaDOM14133domGles_sampler_state_complexType12domMipfilter6createER3DAE
libcollada-dom2.5-dp.so.0:_ZN13ColladaDOM14133domGles_sampler_state_complexType14domMipmap_bias15registerElementER3DAE
libcollada-dom2.5-dp.so.0:_ZN13ColladaDOM14133domGles_sampler_state_complexType14domMipmap_bias6createER3DAE
libcollada-dom2.5-dp.so.0:_ZN13ColladaDOM14133domGles_sampler_state_complexType18domMipmap_maxlevel15registerElementER3DAE
libcollada-dom2.5-dp.so.0:_ZN13ColladaDOM14133domGles_sampler_state_complexType18domMipmap_maxlevel6createER3DAE
libcollada-dom2.5-dp.so.0:_ZN13ColladaDOM14133domGles_sampler_state_complexType9domWrap_s15registerElementER3DAE
libcollada-dom2.5-dp.so.0:_ZN13ColladaDOM14133domGles_sampler_state_complexType9domWrap_s6createER3DAE
libcollada-dom2.5-dp.so.0:_ZN13ColladaDOM14133domGles_sampler_state_complexType9domWrap_t15registerElementER3DAE
libcollada-dom2.5-dp.so.0:_ZN13ColladaDOM14133domGles_sampler_state_complexType9domWrap_t6createER3DAE
libcollada-dom2.5-dp.so.0:_ZN13ColladaDOM14134COLLADA_ELEMENT_AUTO_NORMAL_ENABLEE
libcollada-dom2.5-dp.so.0:_ZN13ColladaDOM14134COLLADA_ELEMENT_DEPTH_CLAMP_ENABLEE
libcollada-dom2.5-dp.so.0:_ZN13ColladaDOM14134COLLADA_ELEMENT_INSTANCE_ANIMATIONE
libcollada-dom2.5-dp.so.0:_ZN13ColladaDOM14134COLLADA_ELEMENT_LIBRARY_ANIMATIONSE
libcollada-dom2.5-dp.so.0:_ZN13ColladaDOM14134COLLADA_ELEMENT_LIBRARY_GEOMETRIESE
libcollada-dom2.5-dp.so.0:_ZN13ColladaDOM14134COLLADA_ELEMENT_LINEAR_ATTENUATIONE
libcollada-dom2.5-dp.so.0:_ZN13ColladaDOM14134COLLADA_ELEMENT_LINE_SMOOTH_ENABLEE
libcollada-dom2.5-dp.so.0:_ZN13ColladaDOM14134COLLADA_ELEMENT_MATERIAL_SHININESSE
libcollada-dom2.5-dp.so.0:_ZN13ColladaDOM14134COLLADA_ELEMENT_MULTISAMPLE_ENABLEE
libcollada-dom2.5-dp.so.0:_ZN13ColladaDOM14134COLLADA_ELEMENT_TEXTURECUBE_ENABLEE
libcollada-dom2.5-dp.so.0:_ZN13ColladaDOM14134COLLADA_ELEMENT_TEXTURERECT_ENABLEE
libcollada-dom2.5-dp.so.0:_ZN13ColladaDOM14134COLLADA_TYPE_COLOR_LOGIC_OP_ENABLEE
libcollada-dom2.5-dp.so.0:_ZN13ColladaDOM14134COLLADA_TYPE_COLOR_MATERIAL_ENABLEE
libcollada-dom2.5-dp.so.0:_ZN13ColladaDOM14134COLLADA_TYPE_FX_COLORTARGET_COMMONE
libcollada-dom2.5-dp.so.0:_ZN13ColladaDOM14134COLLADA_TYPE_FX_DEPTHTARGET_COMMONE
libcollada-dom2.5-dp.so.0:_ZN13ColladaDOM14134COLLADA_TYPE_FX_SAMPLERCUBE_COMMONE
libcollada-dom2.5-dp.so.0:_ZN13ColladaDOM14134COLLADA_TYPE_FX_SAMPLERRECT_COMMONE
libcollada-dom2.5-dp.so.0:_ZN13ColladaDOM14134COLLADA_TYPE_GLES_TEXTURE_PIPELINEE
libcollada-dom2.5-dp.so.0:_ZN13ColladaDOM14134COLLADA_TYPE_LIBRARY_VISUAL_SCENESE
libcollada-dom2.5-dp.so.0:_ZN13ColladaDOM14134COLLADA_TYPE_POLYGON_SMOOTH_ENABLEE
libcollada-dom2.5-dp.so.0:_ZN13ColladaDOM14134COLLADA_TYPE_RESCALE_NORMAL_ENABLEE
libcollada-dom2.5-dp.so.0:_ZN13ColladaDOM14134COLLADA_TYPE_STENCIL_FUNC_SEPARATEE
libcollada-dom2.5-dp.so.0:_ZN13ColladaDOM14134COLLADA_TYPE_STENCIL_MASK_SEPARATEE
libcollada-dom2.5-dp.so.0:_ZN13ColladaDOM14134COMMON_PROFILE_INPUT_INTERPOLATIONE
libcollada-dom2.5-dp.so.0:_ZN13ColladaDOM14134domFx_sampler1D_common_complexType12domMagfilter15registerElementER3DAE
libcollada-dom2.5-dp.so.0:_ZN13ColladaDOM14134domFx_sampler1D_common_complexType12domMagfilter6createER3DAE
libcollada-dom2.5-dp.so.0:_ZN13ColladaDOM14134domFx_sampler1D_common_complexType12domMinfilter15registerElementER3DAE
libcollada-dom2.5-dp.so.0:_ZN13ColladaDOM14134domFx_sampler1D_common_complexType12domMinfilter6createER3DAE
libcollada-dom2.5-dp.so.0:_ZN13ColladaDOM14134domFx_sampler1D_common_complexType12domMipfilter15registerElementER3DAE
libcollada-dom2.5-dp.so.0:_ZN13ColladaDOM14134domFx_sampler1D_common_complexType12domMipfilter6createER3DAE
libcollada-dom2.5-dp.so.0:_ZN13ColladaDOM14134domFx_sampler1D_common_complexType14domMipmap_bias15registerElementER3DAE
libcollada-dom2.5-dp.so.0:_ZN13ColladaDOM14134domFx_sampler1D_common_complexType14domMipmap_bias6createER3DAE
libcollada-dom2.5-dp.so.0:_ZN13ColladaDOM14134domFx_sampler1D_common_complexType15domBorder_color15registerElementER3DAE
libcollada-dom2.5-dp.so.0:_ZN13ColladaDOM14134domFx_sampler1D_common_complexType15domBorder_color6createER3DAE
libcollada-dom2.5-dp.so.0:_ZN13ColladaDOM14134domFx_sampler1D_common_complexType18domMipmap_maxlevel15registerElementER3DAE
libcollada-dom2.5-dp.so.0:_ZN13ColladaDOM14134domFx_sampler1D_common_complexType18domMipmap_maxlevel6createER3DAE
libcollada-dom2.5-dp.so.0:_ZN13ColladaDOM14134domFx_sampler1D_common_complexType9domSource15registerElementER3DAE
libcollada-dom2.5-dp.so.0:_ZN13ColladaDOM14134domFx_sampler1D_common_complexType9domSource6createER3DAE
libcollada-dom2.5-dp.so.0:_ZN13ColladaDOM14134domFx_sampler1D_common_complexType9domWrap_s15registerElementER3DAE
libcollada-dom2.5-dp.so.0:_ZN13ColladaDOM14134domFx_sampler1D_common_complexType9domWrap_s6createER3DAE
libcollada-dom2.5-dp.so.0:_ZN13ColladaDOM14134domFx_sampler2D_common_complexType12domMagfilter15registerElementER3DAE
libcollada-dom2.5-dp.so.0:_ZN13ColladaDOM14134domFx_sampler2D_common_complexType12domMagfilter6createER3DAE
libcollada-dom2.5-dp.so.0:_ZN13ColladaDOM14134domFx_sampler2D_common_complexType12domMinfilter15registerElementER3DAE
libcollada-dom2.5-dp.so.0:_ZN13ColladaDOM14134domFx_sampler2D_common_complexType12domMinfilter6createER3DAE
libcollada-dom2.5-dp.so.0:_ZN13ColladaDOM14134domFx_sampler2D_common_complexType12domMipfilter15registerElementER3DAE
libcollada-dom2.5-dp.so.0:_ZN13ColladaDOM14134domFx_sampler2D_common_complexType12domMipfilter6createER3DAE
libcollada-dom2.5-dp.so.0:_ZN13ColladaDOM14134domFx_sampler2D_common_complexType14domMipmap_bias15registerElementER3DAE
libcollada-dom2.5-dp.so.0:_ZN13ColladaDOM14134domFx_sampler2D_common_complexType14domMipmap_bias6createER3DAE
libcollada-dom2.5-dp.so.0:_ZN13ColladaDOM14134domFx_sampler2D_common_complexType15domBorder_color15registerElementER3DAE
libcollada-dom2.5-dp.so.0:_ZN13ColladaDOM14134domFx_sampler2D_common_complexType15domBorder_color6createER3DAE
libcollada-dom2.5-dp.so.0:_ZN13ColladaDOM14134domFx_sampler2D_common_complexType18domMipmap_maxlevel15registerElementER3DAE
libcollada-dom2.5-dp.so.0:_ZN13ColladaDOM14134domFx_sampler2D_common_complexType18domMipmap_maxlevel6createER3DAE
libcollada-dom2.5-dp.so.0:_ZN13ColladaDOM14134domFx_sampler2D_common_complexType9domSource15registerElementER3DAE
libcollada-dom2.5-dp.so.0:_ZN13ColladaDOM14134domFx_sampler2D_common_complexType9domSource6createER3DAE
libcollada-dom2.5-dp.so.0:_ZN13ColladaDOM14134domFx_sampler2D_common_complexType9domWrap_s15registerElementER3DAE
libcollada-dom2.5-dp.so.0:_ZN13ColladaDOM14134domFx_sampler2D_common_complexType9domWrap_s6createER3DAE
libcollada-dom2.5-dp.so.0:_ZN13ColladaDOM14134domFx_sampler2D_common_complexType9domWrap_t15registerElementER3DAE
libcollada-dom2.5-dp.so.0:_ZN13ColladaDOM14134domFx_sampler2D_common_complexType9domWrap_t6createER3DAE
libcollada-dom2.5-dp.so.0:_ZN13ColladaDOM14134domFx_sampler3D_common_complexType12domMagfilter15registerElementER3DAE
libcollada-dom2.5-dp.so.0:_ZN13ColladaDOM14134domFx_sampler3D_common_complexType12domMagfilter6createER3DAE
libcollada-dom2.5-dp.so.0:_ZN13ColladaDOM14134domFx_sampler3D_common_complexType12domMinfilter15registerElementER3DAE
libcollada-dom2.5-dp.so.0:_ZN13ColladaDOM14134domFx_sampler3D_common_complexType12domMinfilter6createER3DAE
libcollada-dom2.5-dp.so.0:_ZN13ColladaDOM14134domFx_sampler3D_common_complexType12domMipfilter15registerElementER3DAE
libcollada-dom2.5-dp.so.0:_ZN13ColladaDOM14134domFx_sampler3D_common_complexType12domMipfilter6createER3DAE
libcollada-dom2.5-dp.so.0:_ZN13ColladaDOM14134domFx_sampler3D_common_complexType14domMipmap_bias15registerElementER3DAE
libcollada-dom2.5-dp.so.0:_ZN13ColladaDOM14134domFx_sampler3D_common_complexType14domMipmap_bias6createER3DAE
libcollada-dom2.5-dp.so.0:_ZN13ColladaDOM14134domFx_sampler3D_common_complexType15domBorder_color15registerElementER3DAE
libcollada-dom2.5-dp.so.0:_ZN13ColladaDOM14134domFx_sampler3D_common_complexType15domBorder_color6createER3DAE
libcollada-dom2.5-dp.so.0:_ZN13ColladaDOM14134domFx_sampler3D_common_complexType18domMipmap_maxlevel15registerElementER3DAE
libcollada-dom2.5-dp.so.0:_ZN13ColladaDOM14134domFx_sampler3D_common_complexType18domMipmap_maxlevel6createER3DAE
libcollada-dom2.5-dp.so.0:_ZN13ColladaDOM14134domFx_sampler3D_common_complexType9domSource15registerElementER3DAE
libcollada-dom2.5-dp.so.0:_ZN13ColladaDOM14134domFx_sampler3D_common_complexType9domSource6createER3DAE
libcollada-dom2.5-dp.so.0:_ZN13ColladaDOM14134domFx_sampler3D_common_complexType9domWrap_p15registerElementER3DAE
libcollada-dom2.5-dp.so.0:_ZN13ColladaDOM14134domFx_sampler3D_common_complexType9domWrap_p6createER3DAE
libcollada-dom2.5-dp.so.0:_ZN13ColladaDOM14134domFx_sampler3D_common_complexType9domWrap_s15registerElementER3DAE
libcollada-dom2.5-dp.so.0:_ZN13ColladaDOM14134domFx_sampler3D_common_complexType9domWrap_s6createER3DAE
libcollada-dom2.5-dp.so.0:_ZN13ColladaDOM14134domFx_sampler3D_common_complexType9domWrap_t15registerElementER3DAE
libcollada-dom2.5-dp.so.0:_ZN13ColladaDOM14134domFx_sampler3D_common_complexType9domWrap_t6createER3DAE
libcollada-dom2.5-dp.so.0:_ZN13ColladaDOM14135COLLADA_ELEMENT_BLEND_FUNC_SEPARATEE
libcollada-dom2.5-dp.so.0:_ZN13ColladaDOM14135COLLADA_ELEMENT_DEPTH_BOUNDS_ENABLEE
libcollada-dom2.5-dp.so.0:_ZN13ColladaDOM14135COLLADA_ELEMENT_FX_PROFILE_ABSTRACTE
libcollada-dom2.5-dp.so.0:_ZN13ColladaDOM14135COLLADA_ELEMENT_INDEX_OF_REFRACTIONE
libcollada-dom2.5-dp.so.0:_ZN13ColladaDOM14135COLLADA_ELEMENT_INSTANCE_CONTROLLERE
libcollada-dom2.5-dp.so.0:_ZN13ColladaDOM14135COLLADA_ELEMENT_INSTANCE_RIGID_BODYE
libcollada-dom2.5-dp.so.0:_ZN13ColladaDOM14135COLLADA_ELEMENT_LIBRARY_CONTROLLERSE
libcollada-dom2.5-dp.so.0:_ZN13ColladaDOM14135COLLADA_ELEMENT_LIGHT_MODEL_AMBIENTE
libcollada-dom2.5-dp.so.0:_ZN13ColladaDOM14135COLLADA_ELEMENT_LIGHT_SPOT_EXPONENTE
libcollada-dom2.5-dp.so.0:_ZN13ColladaDOM14135COLLADA_ELEMENT_LINE_STIPPLE_ENABLEE
libcollada-dom2.5-dp.so.0:_ZN13ColladaDOM14135COLLADA_ELEMENT_POINT_SMOOTH_ENABLEE
libcollada-dom2.5-dp.so.0:_ZN13ColladaDOM14135COLLADA_ELEMENT_SCISSOR_TEST_ENABLEE
libcollada-dom2.5-dp.so.0:_ZN13ColladaDOM14135COLLADA_ELEMENT_STENCIL_OP_SEPARATEE
libcollada-dom2.5-dp.so.0:_ZN13ColladaDOM14135COLLADA_ELEMENT_STENCIL_TEST_ENABLEE
libcollada-dom2.5-dp.so.0:_ZN13ColladaDOM14135COLLADA_ELEMENT_TEXTUREDEPTH_ENABLEE
libcollada-dom2.5-dp.so.0:_ZN13ColladaDOM14135COLLADA_TYPE_FX_CLEARSTENCIL_COMMONE
libcollada-dom2.5-dp.so.0:_ZN13ColladaDOM14135COLLADA_TYPE_FX_SAMPLERDEPTH_COMMONE
libcollada-dom2.5-dp.so.0:_ZN13ColladaDOM14135COLLADA_TYPE_FX_SURFACE_INIT_COMMONE
libcollada-dom2.5-dp.so.0:_ZN13ColladaDOM14135COLLADA_TYPE_GLES_BASIC_TYPE_COMMONE
libcollada-dom2.5-dp.so.0:_ZN13ColladaDOM14135COLLADA_TYPE_GLES_PIPELINE_SETTINGSE
libcollada-dom2.5-dp.so.0:_ZN13ColladaDOM14135COLLADA_TYPE_INSTANCE_PHYSICS_MODELE
libcollada-dom2.5-dp.so.0:_ZN13ColladaDOM14135COLLADA_TYPE_LIBRARY_PHYSICS_MODELSE
libcollada-dom2.5-dp.so.0:_ZN13ColladaDOM14135COLLADA_TYPE_LIBRARY_PHYSICS_SCENESE
libcollada-dom2.5-dp.so.0:_ZN13ColladaDOM14135COLLADA_TYPE_POLYGON_STIPPLE_ENABLEE
libcollada-dom2.5-dp.so.0:_ZN13ColladaDOM14135COLLADA_TYPE_SAMPLE_COVERAGE_ENABLEE
libcollada-dom2.5-dp.so.0:_ZN13ColladaDOM14135domCommon_newparam_type_complexType11domSemantic15registerElementER3DAE
libcollada-dom2.5-dp.so.0:_ZN13ColladaDOM14135domCommon_newparam_type_complexType11domSemantic6createER3DAE
libcollada-dom2.5-dp.so.0:_ZN13ColladaDOM14135domCommon_newparam_type_complexType8domFloat15registerElementER3DAE
libcollada-dom2.5-dp.so.0:_ZN13ColladaDOM14135domCommon_newparam_type_complexType8domFloat6createER3DAE
libcollada-dom2.5-dp.so.0:_ZN13ColladaDOM14135domCommon_newparam_type_complexType9domFloat215registerElementER3DAE
libcollada-dom2.5-dp.so.0:_ZN13ColladaDOM14135domCommon_newparam_type_complexType9domFloat26createER3DAE
libcollada-dom2.5-dp.so.0:_ZN13ColladaDOM14135domCommon_newparam_type_complexType9domFloat315registerElementER3DAE
libcollada-dom2.5-dp.so.0:_ZN13ColladaDOM14135domCommon_newparam_type_complexType9domFloat36createER3DAE
libcollada-dom2.5-dp.so.0:_ZN13ColladaDOM14135domCommon_newparam_type_complexType9domFloat415registerElementER3DAE
libcollada-dom2.5-dp.so.0:_ZN13ColladaDOM14135domCommon_newparam_type_complexType9domFloat46createER3DAE
libcollada-dom2.5-dp.so.0:_ZN13ColladaDOM14135domGles_texcombiner_commandRGB_type15registerElementER3DAE
libcollada-dom2.5-dp.so.0:_ZN13ColladaDOM14135domGles_texcombiner_commandRGB_type6createER3DAE
libcollada-dom2.5-dp.so.0:_ZN13ColladaDOM14136COLLADA_ELEMENT_CONSTANT_ATTENUATIONE
libcollada-dom2.5-dp.so.0:_ZN13ColladaDOM14136COLLADA_ELEMENT_FX_BASIC_TYPE_COMMONE
libcollada-dom2.5-dp.so.0:_ZN13ColladaDOM14136COLLADA_ELEMENT_GL_PIPELINE_SETTINGSE
libcollada-dom2.5-dp.so.0:_ZN13ColladaDOM14136COLLADA_ELEMENT_INSTANCE_FORCE_FIELDE
libcollada-dom2.5-dp.so.0:_ZN13ColladaDOM14136COLLADA_ELEMENT_LIBRARY_FORCE_FIELDSE
libcollada-dom2.5-dp.so.0:_ZN13ColladaDOM14136COLLADA_ELEMENT_LIGHT_SPOT_DIRECTIONE
libcollada-dom2.5-dp.so.0:_ZN13ColladaDOM14136COLLADA_ELEMENT_SWING_CONE_AND_TWISTE
libcollada-dom2.5-dp.so.0:_ZN13ColladaDOM14136COLLADA_TYPE_BLEND_EQUATION_SEPARATEE
libcollada-dom2.5-dp.so.0:_ZN13ColladaDOM14136COLLADA_TYPE_COMMON_TRANSPARENT_TYPEE
libcollada-dom2.5-dp.so.0:_ZN13ColladaDOM14136COLLADA_TYPE_FX_ANNOTATE_TYPE_COMMONE
libcollada-dom2.5-dp.so.0:_ZN13ColladaDOM14136COLLADA_TYPE_FX_STENCILTARGET_COMMONE
libcollada-dom2.5-dp.so.0:_ZN13ColladaDOM14136COLLADA_TYPE_LIBRARY_ANIMATION_CLIPSE
libcollada-dom2.5-dp.so.0:_ZN13ColladaDOM14136COLLADA_TYPE_TEXTURE_PIPELINE_ENABLEE
libcollada-dom2.5-dp.so.0:_ZN13ColladaDOM14136COMMON_PROFILE_INPUT_INV_BIND_MATRIXE
libcollada-dom2.5-dp.so.0:_ZN13ColladaDOM14136domFx_samplerCUBE_common_complexType12domMagfilter15registerElementER3DAE
libcollada-dom2.5-dp.so.0:_ZN13ColladaDOM14136domFx_samplerCUBE_common_complexType12domMagfilter6createER3DAE
libcollada-dom2.5-dp.so.0:_ZN13ColladaDOM14136domFx_samplerCUBE_common_complexType12domMinfilter15registerElementER3DAE
libcollada-dom2.5-dp.so.0:_ZN13ColladaDOM14136domFx_samplerCUBE_common_complexType12domMinfilter6createER3DAE
libcollada-dom2.5-dp.so.0:_ZN13ColladaDOM14136domFx_samplerCUBE_common_complexType12domMipfilter15registerElementER3DAE
libcollada-dom2.5-dp.so.0:_ZN13ColladaDOM14136domFx_samplerCUBE_common_complexType12domMipfilter6createER3DAE
libcollada-dom2.5-dp.so.0:_ZN13ColladaDOM14136domFx_samplerCUBE_common_complexType14domMipmap_bias15registerElementER3DAE
libcollada-dom2.5-dp.so.0:_ZN13ColladaDOM14136domFx_samplerCUBE_common_complexType14domMipmap_bias6createER3DAE
libcollada-dom2.5-dp.so.0:_ZN13ColladaDOM14136domFx_samplerCUBE_common_complexType15domBorder_color15registerElementER3DAE
libcollada-dom2.5-dp.so.0:_ZN13ColladaDOM14136domFx_samplerCUBE_common_complexType15domBorder_color6createER3DAE
libcollada-dom2.5-dp.so.0:_ZN13ColladaDOM14136domFx_samplerCUBE_common_complexType18domMipmap_maxlevel15registerElementER3DAE
libcollada-dom2.5-dp.so.0:_ZN13ColladaDOM14136domFx_samplerCUBE_common_complexType18domMipmap_maxlevel6createER3DAE
libcollada-dom2.5-dp.so.0:_ZN13ColladaDOM14136domFx_samplerCUBE_common_complexType9domSource15registerElementER3DAE
libcollada-dom2.5-dp.so.0:_ZN13ColladaDOM14136domFx_samplerCUBE_common_complexType9domSource6createER3DAE
libcollada-dom2.5-dp.so.0:_ZN13ColladaDOM14136domFx_samplerCUBE_common_complexType9domWrap_p15registerElementER3DAE
libcollada-dom2.5-dp.so.0:_ZN13ColladaDOM14136domFx_samplerCUBE_common_complexType9domWrap_p6createER3DAE
libcollada-dom2.5-dp.so.0:_ZN13ColladaDOM14136domFx_samplerCUBE_common_complexType9domWrap_s15registerElementER3DAE
libcollada-dom2.5-dp.so.0:_ZN13ColladaDOM14136domFx_samplerCUBE_common_complexType9domWrap_s6createER3DAE
libcollada-dom2.5-dp.so.0:_ZN13ColladaDOM14136domFx_samplerCUBE_common_complexType9domWrap_t15registerElementER3DAE
libcollada-dom2.5-dp.so.0:_ZN13ColladaDOM14136domFx_samplerCUBE_common_complexType9domWrap_t6createER3DAE
libcollada-dom2.5-dp.so.0:_ZN13ColladaDOM14136domFx_samplerRECT_common_complexType12domMagfilter15registerElementER3DAE
libcollada-dom2.5-dp.so.0:_ZN13ColladaDOM14136domFx_samplerRECT_common_complexType12domMagfilter6createER3DAE
libcollada-dom2.5-dp.so.0:_ZN13ColladaDOM14136domFx_samplerRECT_common_complexType12domMinfilter15registerElementER3DAE
libcollada-dom2.5-dp.so.0:_ZN13ColladaDOM14136domFx_samplerRECT_common_complexType12domMinfilter6createER3DAE
libcollada-dom2.5-dp.so.0:_ZN13ColladaDOM14136domFx_samplerRECT_common_complexType12domMipfilter15registerElementER3DAE
libcollada-dom2.5-dp.so.0:_ZN13ColladaDOM14136domFx_samplerRECT_common_complexType12domMipfilter6createER3DAE
libcollada-dom2.5-dp.so.0:_ZN13ColladaDOM14136domFx_samplerRECT_common_complexType14domMipmap_bias15registerElementER3DAE
libcollada-dom2.5-dp.so.0:_ZN13ColladaDOM14136domFx_samplerRECT_common_complexType14domMipmap_bias6createER3DAE
libcollada-dom2.5-dp.so.0:_ZN13ColladaDOM14136domFx_samplerRECT_common_complexType15domBorder_color15registerElementER3DAE
libcollada-dom2.5-dp.so.0:_ZN13ColladaDOM14136domFx_samplerRECT_common_complexType15domBorder_color6createER3DAE
libcollada-dom2.5-dp.so.0:_ZN13ColladaDOM14136domFx_samplerRECT_common_complexType18domMipmap_maxlevel15registerElementER3DAE
libcollada-dom2.5-dp.so.0:_ZN13ColladaDOM14136domFx_samplerRECT_common_complexType18domMipmap_maxlevel6createER3DAE
libcollada-dom2.5-dp.so.0:_ZN13ColladaDOM14136domFx_samplerRECT_common_complexType9domSource15registerElementER3DAE
libcollada-dom2.5-dp.so.0:_ZN13ColladaDOM14136domFx_samplerRECT_common_complexType9domSource6createER3DAE
libcollada-dom2.5-dp.so.0:_ZN13ColladaDOM14136domFx_samplerRECT_common_complexType9domWrap_s15registerElementER3DAE
libcollada-dom2.5-dp.so.0:_ZN13ColladaDOM14136domFx_samplerRECT_common_complexType9domWrap_s6createER3DAE
libcollada-dom2.5-dp.so.0:_ZN13ColladaDOM14136domFx_samplerRECT_common_complexType9domWrap_t15registerElementER3DAE
libcollada-dom2.5-dp.so.0:_ZN13ColladaDOM14136domFx_samplerRECT_common_complexType9domWrap_t6createER3DAE
libcollada-dom2.5-dp.so.0:_ZN13ColladaDOM14136domGles_texcombiner_argumentRGB_type15registerElementER3DAE
libcollada-dom2.5-dp.so.0:_ZN13ColladaDOM14136domGles_texcombiner_argumentRGB_type6createER3DAE
libcollada-dom2.5-dp.so.0:_ZN13ColladaDOM14137COLLADA_ELEMENT_COLOR_LOGIC_OP_ENABLEE
libcollada-dom2.5-dp.so.0:_ZN13ColladaDOM14137COLLADA_ELEMENT_COLOR_MATERIAL_ENABLEE
libcollada-dom2.5-dp.so.0:_ZN13ColladaDOM14137COLLADA_ELEMENT_INSTANCE_VISUAL_SCENEE
libcollada-dom2.5-dp.so.0:_ZN13ColladaDOM14137COLLADA_ELEMENT_LIBRARY_VISUAL_SCENESE
libcollada-dom2.5-dp.so.0:_ZN13ColladaDOM14137COLLADA_ELEMENT_POLYGON_SMOOTH_ENABLEE
libcollada-dom2.5-dp.so.0:_ZN13ColladaDOM14137COLLADA_ELEMENT_QUADRATIC_ATTENUATIONE
libcollada-dom2.5-dp.so.0:_ZN13ColladaDOM14137COLLADA_ELEMENT_RESCALE_NORMAL_ENABLEE
libcollada-dom2.5-dp.so.0:_ZN13ColladaDOM14137COLLADA_ELEMENT_STENCIL_FUNC_SEPARATEE
libcollada-dom2.5-dp.so.0:_ZN13ColladaDOM14137COLLADA_ELEMENT_STENCIL_MASK_SEPARATEE
libcollada-dom2.5-dp.so.0:_ZN13ColladaDOM14137COLLADA_TYPE_GLES_TEXENV_COMMAND_TYPEE
libcollada-dom2.5-dp.so.0:_ZN13ColladaDOM14137COLLADA_TYPE_LIGHT_LINEAR_ATTENUATIONE
libcollada-dom2.5-dp.so.0:_ZN13ColladaDOM14137domFx_samplerDEPTH_common_complexType12domMagfilter15registerElementER3DAE
libcollada-dom2.5-dp.so.0:_ZN13ColladaDOM14137domFx_samplerDEPTH_common_complexType12domMagfilter6createER3DAE
libcollada-dom2.5-dp.so.0:_ZN13ColladaDOM14137domFx_samplerDEPTH_common_complexType12domMinfilter15registerElementER3DAE
libcollada-dom2.5-dp.so.0:_ZN13ColladaDOM14137domFx_samplerDEPTH_common_complexType12domMinfilter6createER3DAE
libcollada-dom2.5-dp.so.0:_ZN13ColladaDOM14137domFx_samplerDEPTH_common_complexType9domSource15registerElementER3DAE
libcollada-dom2.5-dp.so.0:_ZN13ColladaDOM14137domFx_samplerDEPTH_common_complexType9domSource6createER3DAE
libcollada-dom2.5-dp.so.0:_ZN13ColladaDOM14137domFx_samplerDEPTH_common_complexType9domWrap_s15registerElementER3DAE
libcollada-dom2.5-dp.so.0:_ZN13ColladaDOM14137domFx_samplerDEPTH_common_complexType9domWrap_s6createER3DAE
libcollada-dom2.5-dp.so.0:_ZN13ColladaDOM14137domFx_samplerDEPTH_common_complexType9domWrap_t15registerElementER3DAE
libcollada-dom2.5-dp.so.0:_ZN13ColladaDOM14137domFx_samplerDEPTH_common_complexType9domWrap_t6createER3DAE
libcollada-dom2.5-dp.so.0:_ZN13ColladaDOM14137domGles_texcombiner_commandAlpha_type15registerElementER3DAE
libcollada-dom2.5-dp.so.0:_ZN13ColladaDOM14137domGles_texcombiner_commandAlpha_type6createER3DAE
libcollada-dom2.5-dp.so.0:_ZN13ColladaDOM14138COLLADA_ELEMENT_FX_SURFACE_INIT_COMMONE
libcollada-dom2.5-dp.so.0:_ZN13ColladaDOM14138COLLADA_ELEMENT_GLES_BASIC_TYPE_COMMONE
libcollada-dom2.5-dp.so.0:_ZN13ColladaDOM14138COLLADA_ELEMENT_GLES_PIPELINE_SETTINGSE
libcollada-dom2.5-dp.so.0:_ZN13ColladaDOM14138COLLADA_ELEMENT_INSTANCE_PHYSICS_MODELE
libcollada-dom2.5-dp.so.0:_ZN13ColladaDOM14138COLLADA_ELEMENT_INSTANCE_PHYSICS_SCENEE
libcollada-dom2.5-dp.so.0:_ZN13ColladaDOM14138COLLADA_ELEMENT_LIBRARY_PHYSICS_MODELSE
libcollada-dom2.5-dp.so.0:_ZN13ColladaDOM14138COLLADA_ELEMENT_LIBRARY_PHYSICS_SCENESE
libcollada-dom2.5-dp.so.0:_ZN13ColladaDOM14138COLLADA_ELEMENT_POLYGON_STIPPLE_ENABLEE
libcollada-dom2.5-dp.so.0:_ZN13ColladaDOM14138COLLADA_ELEMENT_SAMPLE_COVERAGE_ENABLEE
libcollada-dom2.5-dp.so.0:_ZN13ColladaDOM14138COLLADA_TYPE_INSTANCE_PHYSICS_MATERIALE
libcollada-dom2.5-dp.so.0:_ZN13ColladaDOM14138COLLADA_TYPE_INSTANCE_RIGID_CONSTRAINTE
libcollada-dom2.5-dp.so.0:_ZN13ColladaDOM14138COLLADA_TYPE_LIBRARY_PHYSICS_MATERIALSE
libcollada-dom2.5-dp.so.0:_ZN13ColladaDOM14138COLLADA_TYPE_LIGHT_LINEAR_ATTENUTATIONE
libcollada-dom2.5-dp.so.0:_ZN13ColladaDOM14138COLLADA_TYPE_LIGHT_MODEL_COLOR_CONTROLE
libcollada-dom2.5-dp.so.0:_ZN13ColladaDOM14138COLLADA_TYPE_POINT_FADE_THRESHOLD_SIZEE
libcollada-dom2.5-dp.so.0:_ZN13ColladaDOM14138domGles_texcombiner_argumentAlpha_type15registerElementER3DAE
libcollada-dom2.5-dp.so.0:_ZN13ColladaDOM14138domGles_texcombiner_argumentAlpha_type6createER3DAE
libcollada-dom2.5-dp.so.0:_ZN13ColladaDOM14139COLLADA_ELEMENT_BLEND_EQUATION_SEPARATEE
libcollada-dom2.5-dp.so.0:_ZN13ColladaDOM14139COLLADA_ELEMENT_FX_ANNOTATE_TYPE_COMMONE
libcollada-dom2.5-dp.so.0:_ZN13ColladaDOM14139COLLADA_ELEMENT_LIBRARY_ANIMATION_CLIPSE
libcollada-dom2.5-dp.so.0:_ZN13ColladaDOM14139COLLADA_ELEMENT_TEXTURE_PIPELINE_ENABLEE
libcollada-dom2.5-dp.so.0:_ZN13ColladaDOM14139COLLADA_TYPE_COMMON_FLOAT_OR_PARAM_TYPEE
libcollada-dom2.5-dp.so.0:_ZN13ColladaDOM14139COLLADA_TYPE_GLES_TEXTURE_CONSTANT_TYPEE
libcollada-dom2.5-dp.so.0:_ZN13ColladaDOM14139COLLADA_TYPE_LIGHT_CONSTANT_ATTENUATIONE
libcollada-dom2.5-dp.so.0:_ZN13ColladaDOM14139COLLADA_TYPE_POINT_DISTANCE_ATTENUATIONE
libcollada-dom2.5-dp.so.0:_ZN13ColladaDOM14139COLLADA_TYPE_POLYGON_OFFSET_FILL_ENABLEE
libcollada-dom2.5-dp.so.0:_ZN13ColladaDOM14139COLLADA_TYPE_POLYGON_OFFSET_LINE_ENABLEE
libcollada-dom2.5-dp.so.0:_ZN13ColladaDOM14139COLLADA_TYPE_SAMPLE_ALPHA_TO_ONE_ENABLEE
libcollada-dom2.5-dp.so.0:_ZN13ColladaDOM14140COLLADA_ELEMENT_LIGHT_LINEAR_ATTENUATIONE
libcollada-dom2.5-dp.so.0:_ZN13ColladaDOM14140COLLADA_TYPE_FX_SURFACE_INIT_CUBE_COMMONE
libcollada-dom2.5-dp.so.0:_ZN13ColladaDOM14140COLLADA_TYPE_FX_SURFACE_INIT_FROM_COMMONE
libcollada-dom2.5-dp.so.0:_ZN13ColladaDOM14140COLLADA_TYPE_LIGHT_MODEL_TWO_SIDE_ENABLEE
libcollada-dom2.5-dp.so.0:_ZN13ColladaDOM14140COLLADA_TYPE_LIGHT_QUADRATIC_ATTENUATIONE
libcollada-dom2.5-dp.so.0:_ZN13ColladaDOM14140COLLADA_TYPE_POLYGON_OFFSET_POINT_ENABLEE
libcollada-dom2.5-dp.so.0:_ZN13ColladaDOM14141COLLADA_ELEMENT_INSTANCE_PHYSICS_MATERIALE
libcollada-dom2.5-dp.so.0:_ZN13ColladaDOM14141COLLADA_ELEMENT_INSTANCE_RIGID_CONSTRAINTE
libcollada-dom2.5-dp.so.0:_ZN13ColladaDOM14141COLLADA_ELEMENT_LIBRARY_PHYSICS_MATERIALSE
libcollada-dom2.5-dp.so.0:_ZN13ColladaDOM14141COLLADA_ELEMENT_LIGHT_LINEAR_ATTENUTATIONE
libcollada-dom2.5-dp.so.0:_ZN13ColladaDOM14141COLLADA_ELEMENT_LIGHT_MODEL_COLOR_CONTROLE
libcollada-dom2.5-dp.so.0:_ZN13ColladaDOM14141COLLADA_ELEMENT_POINT_FADE_THRESHOLD_SIZEE
libcollada-dom2.5-dp.so.0:_ZN13ColladaDOM14141COLLADA_TYPE_COMMON_COLOR_OR_TEXTURE_TYPEE
libcollada-dom2.5-dp.so.0:_ZN13ColladaDOM14141domCommon_float_or_param_type_complexType8domFloat15registerElementER3DAE
libcollada-dom2.5-dp.so.0:_ZN13ColladaDOM14141domCommon_float_or_param_type_complexType8domFloat6createER3DAE
libcollada-dom2.5-dp.so.0:_ZN13ColladaDOM14141domCommon_float_or_param_type_complexType8domParam15registerElementER3DAE
libcollada-dom2.5-dp.so.0:_ZN13ColladaDOM14141domCommon_float_or_param_type_complexType8domParam6createER3DAE
libcollada-dom2.5-dp.so.0:_ZN13ColladaDOM14142COLLADA_ELEMENT_LIGHT_CONSTANT_ATTENUATIONE
libcollada-dom2.5-dp.so.0:_ZN13ColladaDOM14142COLLADA_ELEMENT_POINT_DISTANCE_ATTENUATIONE
libcollada-dom2.5-dp.so.0:_ZN13ColladaDOM14142COLLADA_ELEMENT_POLYGON_OFFSET_FILL_ENABLEE
libcollada-dom2.5-dp.so.0:_ZN13ColladaDOM14142COLLADA_ELEMENT_POLYGON_OFFSET_LINE_ENABLEE
libcollada-dom2.5-dp.so.0:_ZN13ColladaDOM14142COLLADA_ELEMENT_SAMPLE_ALPHA_TO_ONE_ENABLEE
libcollada-dom2.5-dp.so.0:_ZN13ColladaDOM14142COLLADA_TYPE_FX_SURFACE_FORMAT_HINT_COMMONE
libcollada-dom2.5-dp.so.0:_ZN13ColladaDOM14142COLLADA_TYPE_FX_SURFACE_INIT_PLANAR_COMMONE
libcollada-dom2.5-dp.so.0:_ZN13ColladaDOM14142COLLADA_TYPE_FX_SURFACE_INIT_VOLUME_COMMONE
libcollada-dom2.5-dp.so.0:_ZN13ColladaDOM14142COLLADA_TYPE_GLES_TEXCOMBINER_COMMAND_TYPEE
libcollada-dom2.5-dp.so.0:_ZN13ColladaDOM14142domFx_surface_init_cube_common_complexType10domPrimary15registerElementER3DAE
libcollada-dom2.5-dp.so.0:_ZN13ColladaDOM14142domFx_surface_init_cube_common_complexType10domPrimary6createER3DAE
libcollada-dom2.5-dp.so.0:_ZN13ColladaDOM14142domFx_surface_init_cube_common_complexType10domPrimary8domOrder15registerElementER3DAE
libcollada-dom2.5-dp.so.0:_ZN13ColladaDOM14142domFx_surface_init_cube_common_complexType10domPrimary8domOrder6createER3DAE
libcollada-dom2.5-dp.so.0:_ZN13ColladaDOM14142domFx_surface_init_cube_common_complexType6domAll15registerElementER3DAE
libcollada-dom2.5-dp.so.0:_ZN13ColladaDOM14142domFx_surface_init_cube_common_complexType6domAll6createER3DAE
libcollada-dom2.5-dp.so.0:_ZN13ColladaDOM14142domFx_surface_init_cube_common_complexType7domFace15registerElementER3DAE
libcollada-dom2.5-dp.so.0:_ZN13ColladaDOM14142domFx_surface_init_cube_common_complexType7domFace6createER3DAE
libcollada-dom2.5-dp.so.0:_ZN13ColladaDOM14143COLLADA_ELEMENT_LIGHT_MODEL_TWO_SIDE_ENABLEE
libcollada-dom2.5-dp.so.0:_ZN13ColladaDOM14143COLLADA_ELEMENT_LIGHT_QUADRATIC_ATTENUATIONE
libcollada-dom2.5-dp.so.0:_ZN13ColladaDOM14143COLLADA_ELEMENT_POLYGON_OFFSET_POINT_ENABLEE
libcollada-dom2.5-dp.so.0:_ZN13ColladaDOM14143domCommon_color_or_texture_type_complexType10domTexture15registerElementER3DAE
libcollada-dom2.5-dp.so.0:_ZN13ColladaDOM14143domCommon_color_or_texture_type_complexType10domTexture6createER3DAE
libcollada-dom2.5-dp.so.0:_ZN13ColladaDOM14143domCommon_color_or_texture_type_complexType8domColor15registerElementER3DAE
libcollada-dom2.5-dp.so.0:_ZN13ColladaDOM14143domCommon_color_or_texture_type_complexType8domColor6createER3DAE
libcollada-dom2.5-dp.so.0:_ZN13ColladaDOM14143domCommon_color_or_texture_type_complexType8domParam15registerElementER3DAE
libcollada-dom2.5-dp.so.0:_ZN13ColladaDOM14143domCommon_color_or_texture_type_complexType8domParam6createER3DAE
libcollada-dom2.5-dp.so.0:_ZN13ColladaDOM14144COLLADA_TYPE_LIGHT_MODEL_LOCAL_VIEWER_ENABLEE
libcollada-dom2.5-dp.so.0:_ZN13ColladaDOM14144COLLADA_TYPE_SAMPLE_ALPHA_TO_COVERAGE_ENABLEE
libcollada-dom2.5-dp.so.0:_ZN13ColladaDOM14144domFx_surface_format_hint_common_complexType11domChannels15registerElementER3DAE
libcollada-dom2.5-dp.so.0:_ZN13ColladaDOM14144domFx_surface_format_hint_common_complexType11domChannels6createER3DAE
libcollada-dom2.5-dp.so.0:_ZN13ColladaDOM14144domFx_surface_format_hint_common_complexType12domPrecision15registerElementER3DAE
libcollada-dom2.5-dp.so.0:_ZN13ColladaDOM14144domFx_surface_format_hint_common_complexType12domPrecision6createER3DAE
libcollada-dom2.5-dp.so.0:_ZN13ColladaDOM14144domFx_surface_format_hint_common_complexType8domRange15registerElementER3DAE
libcollada-dom2.5-dp.so.0:_ZN13ColladaDOM14144domFx_surface_format_hint_common_complexType8domRange6createER3DAE
libcollada-dom2.5-dp.so.0:_ZN13ColladaDOM14144domFx_surface_format_hint_common_complexType9domOption15registerElementER3DAE
libcollada-dom2.5-dp.so.0:_ZN13ColladaDOM14144domFx_surface_format_hint_common_complexType9domOption6createER3DAE
libcollada-dom2.5-dp.so.0:_ZN13ColladaDOM14144domFx_surface_init_planar_common_complexType6domAll15registerElementER3DAE
libcollada-dom2.5-dp.so.0:_ZN13ColladaDOM14144domFx_surface_init_planar_common_complexType6domAll6createER3DAE
libcollada-dom2.5-dp.so.0:_ZN13ColladaDOM14144domFx_surface_init_volume_common_complexType10domPrimary15registerElementER3DAE
libcollada-dom2.5-dp.so.0:_ZN13ColladaDOM14144domFx_surface_init_volume_common_complexType10domPrimary6createER3DAE
libcollada-dom2.5-dp.so.0:_ZN13ColladaDOM14144domFx_surface_init_volume_common_complexType6domAll15registerElementER3DAE
libcollada-dom2.5-dp.so.0:_ZN13ColladaDOM14144domFx_surface_init_volume_common_complexType6domAll6createER3DAE
libcollada-dom2.5-dp.so.0:_ZN13ColladaDOM14145COLLADA_TYPE_GLES_TEXCOMBINER_COMMANDRGB_TYPEE
libcollada-dom2.5-dp.so.0:_ZN13ColladaDOM14146COLLADA_TYPE_GLES_TEXCOMBINER_ARGUMENTRGB_TYPEE
libcollada-dom2.5-dp.so.0:_ZN13ColladaDOM14147COLLADA_ELEMENT_LIGHT_MODEL_LOCAL_VIEWER_ENABLEE
libcollada-dom2.5-dp.so.0:_ZN13ColladaDOM14147COLLADA_ELEMENT_SAMPLE_ALPHA_TO_COVERAGE_ENABLEE
libcollada-dom2.5-dp.so.0:_ZN13ColladaDOM14147COLLADA_TYPE_GLES_TEXCOMBINER_COMMANDALPHA_TYPEE
libcollada-dom2.5-dp.so.0:_ZN13ColladaDOM14148COLLADA_TYPE_GLES_TEXCOMBINER_ARGUMENTALPHA_TYPEE
libcollada-dom2.5-dp.so.0:_ZN13ColladaDOM1414domP15registerElementER3DAE
libcollada-dom2.5-dp.so.0:_ZN13ColladaDOM1414domP6createER3DAE
libcollada-dom2.5-dp.so.0:_ZN13ColladaDOM1416domAny12setAttributeEPKcS2_
libcollada-dom2.5-dp.so.0:_ZN13ColladaDOM1416domAny15registerElementER3DAE
libcollada-dom2.5-dp.so.0:_ZN13ColladaDOM1416domAny6createER3DAE
libcollada-dom2.5-dp.so.0:_ZN13ColladaDOM1416domAnyD0Ev
libcollada-dom2.5-dp.so.0:_ZN13ColladaDOM1416domAnyD1Ev
libcollada-dom2.5-dp.so.0:_ZN13ColladaDOM1416domAnyD2Ev
libcollada-dom2.5-dp.so.0:_ZN13ColladaDOM1416domBox15domHalf_extents15registerElementER3DAE
libcollada-dom2.5-dp.so.0:_ZN13ColladaDOM1416domBox15domHalf_extents6createER3DAE
libcollada-dom2.5-dp.so.0:_ZN13ColladaDOM1416domBox15registerElementER3DAE
libcollada-dom2.5-dp.so.0:_ZN13ColladaDOM1416domBox6createER3DAE
libcollada-dom2.5-dp.so.0:_ZN13ColladaDOM1417domMesh15registerElementER3DAE
libcollada-dom2.5-dp.so.0:_ZN13ColladaDOM1417domMesh6createER3DAE
libcollada-dom2.5-dp.so.0:_ZN13ColladaDOM1417domNode15registerElementER3DAE
libcollada-dom2.5-dp.so.0:_ZN13ColladaDOM1417domNode6createER3DAE
libcollada-dom2.5-dp.so.0:_ZN13ColladaDOM1417domSkew15registerElementER3DAE
libcollada-dom2.5-dp.so.0:_ZN13ColladaDOM1417domSkew6createER3DAE
libcollada-dom2.5-dp.so.0:_ZN13ColladaDOM1417domSkin15registerElementER3DAE
libcollada-dom2.5-dp.so.0:_ZN13ColladaDOM1417domSkin17domVertex_weights15registerElementER3DAE
libcollada-dom2.5-dp.so.0:_ZN13ColladaDOM1417domSkin17domVertex_weights4domV15registerElementER3DAE
libcollada-dom2.5-dp.so.0:_ZN13ColladaDOM1417domSkin17domVertex_weights4domV6createER3DAE
libcollada-dom2.5-dp.so.0:_ZN13ColladaDOM1417domSkin17domVertex_weights6createER3DAE
libcollada-dom2.5-dp.so.0:_ZN13ColladaDOM1417domSkin17domVertex_weights9domVcount15registerElementER3DAE
libcollada-dom2.5-dp.so.0:_ZN13ColladaDOM1417domSkin17domVertex_weights9domVcount6createER3DAE
libcollada-dom2.5-dp.so.0:_ZN13ColladaDOM1417domSkin20domBind_shape_matrix15registerElementER3DAE
libcollada-dom2.5-dp.so.0:_ZN13ColladaDOM1417domSkin20domBind_shape_matrix6createER3DAE
libcollada-dom2.5-dp.so.0:_ZN13ColladaDOM1417domSkin6createER3DAE
libcollada-dom2.5-dp.so.0:_ZN13ColladaDOM1417domSkin9domJoints15registerElementER3DAE
libcollada-dom2.5-dp.so.0:_ZN13ColladaDOM1417domSkin9domJoints6createER3DAE
libcollada-dom2.5-dp.so.0:_ZN13ColladaDOM1418domAsset10domCreated15registerElementER3DAE
libcollada-dom2.5-dp.so.0:_ZN13ColladaDOM1418domAsset10domCreated6createER3DAE
libcollada-dom2.5-dp.so.0:_ZN13ColladaDOM1418domAsset10domSubject15registerElementER3DAE
libcollada-dom2.5-dp.so.0:_ZN13ColladaDOM1418domAsset10domSubject6createER3DAE
libcollada-dom2.5-dp.so.0:_ZN13ColladaDOM1418domAsset10domUp_axis15registerElementER3DAE
libcollada-dom2.5-dp.so.0:_ZN13ColladaDOM1418domAsset10domUp_axis6createER3DAE
libcollada-dom2.5-dp.so.0:_ZN13ColladaDOM1418domAsset11domKeywords15registerElementER3DAE
libcollada-dom2.5-dp.so.0:_ZN13ColladaDOM1418domAsset11domKeywords6createER3DAE
libcollada-dom2.5-dp.so.0:_ZN13ColladaDOM1418domAsset11domModified15registerElementER3DAE
libcollada-dom2.5-dp.so.0:_ZN13ColladaDOM1418domAsset11domModified6createER3DAE
libcollada-dom2.5-dp.so.0:_ZN13ColladaDOM1418domAsset11domRevision15registerElementER3DAE
libcollada-dom2.5-dp.so.0:_ZN13ColladaDOM1418domAsset11domRevision6createER3DAE
libcollada-dom2.5-dp.so.0:_ZN13ColladaDOM1418domAsset14domContributor11domComments15registerElementER3DAE
libcollada-dom2.5-dp.so.0:_ZN13ColladaDOM1418domAsset14domContributor11domComments6createER3DAE
libcollada-dom2.5-dp.so.0:_ZN13ColladaDOM1418domAsset14domContributor12domCopyright15registerElementER3DAE
libcollada-dom2.5-dp.so.0:_ZN13ColladaDOM1418domAsset14domContributor12domCopyright6createER3DAE
libcollada-dom2.5-dp.so.0:_ZN13ColladaDOM1418domAsset14domContributor14domSource_data15registerElementER3DAE
libcollada-dom2.5-dp.so.0:_ZN13ColladaDOM1418domAsset14domContributor14domSource_data6createER3DAE
libcollada-dom2.5-dp.so.0:_ZN13ColladaDOM1418domAsset14domContributor15registerElementER3DAE
libcollada-dom2.5-dp.so.0:_ZN13ColladaDOM1418domAsset14domContributor17domAuthoring_tool15registerElementER3DAE
libcollada-dom2.5-dp.so.0:_ZN13ColladaDOM1418domAsset14domContributor17domAuthoring_tool6createER3DAE
libcollada-dom2.5-dp.so.0:_ZN13ColladaDOM1418domAsset14domContributor6createER3DAE
libcollada-dom2.5-dp.so.0:_ZN13ColladaDOM1418domAsset14domContributor9domAuthor15registerElementER3DAE
libcollada-dom2.5-dp.so.0:_ZN13ColladaDOM1418domAsset14domContributor9domAuthor6createER3DAE
libcollada-dom2.5-dp.so.0:_ZN13ColladaDOM1418domAsset15registerElementER3DAE
libcollada-dom2.5-dp.so.0:_ZN13ColladaDOM1418domAsset6createER3DAE
libcollada-dom2.5-dp.so.0:_ZN13ColladaDOM1418domAsset7domUnit15registerElementER3DAE
libcollada-dom2.5-dp.so.0:_ZN13ColladaDOM1418domAsset7domUnit6createER3DAE
libcollada-dom2.5-dp.so.0:_ZN13ColladaDOM1418domAsset8domTitle15registerElementER3DAE
libcollada-dom2.5-dp.so.0:_ZN13ColladaDOM1418domAsset8domTitle6createER3DAE
libcollada-dom2.5-dp.so.0:_ZN13ColladaDOM1418domExtra15registerElementER3DAE
libcollada-dom2.5-dp.so.0:_ZN13ColladaDOM1418domExtra6createER3DAE
libcollada-dom2.5-dp.so.0:_ZN13ColladaDOM1418domImage12domInit_from15registerElementER3DAE
libcollada-dom2.5-dp.so.0:_ZN13ColladaDOM1418domImage12domInit_from6createER3DAE
libcollada-dom2.5-dp.so.0:_ZN13ColladaDOM1418domImage15registerElementER3DAE
libcollada-dom2.5-dp.so.0:_ZN13ColladaDOM1418domImage6createER3DAE
libcollada-dom2.5-dp.so.0:_ZN13ColladaDOM1418domImage7domData15registerElementER3DAE
libcollada-dom2.5-dp.so.0:_ZN13ColladaDOM1418domImage7domData6createER3DAE
libcollada-dom2.5-dp.so.0:_ZN13ColladaDOM1418domLight15registerElementER3DAE
libcollada-dom2.5-dp.so.0:_ZN13ColladaDOM1418domLight19domTechnique_common10domAmbient15registerElementER3DAE
libcollada-dom2.5-dp.so.0:_ZN13ColladaDOM1418domLight19domTechnique_common10domAmbient6createER3DAE
libcollada-dom2.5-dp.so.0:_ZN13ColladaDOM1418domLight19domTechnique_common14domDirectional15registerElementER3DAE
libcollada-dom2.5-dp.so.0:_ZN13ColladaDOM1418domLight19domTechnique_common14domDirectional6createER3DAE
libcollada-dom2.5-dp.so.0:_ZN13ColladaDOM1418domLight19domTechnique_common15registerElementER3DAE
libcollada-dom2.5-dp.so.0:_ZN13ColladaDOM1418domLight19domTechnique_common6createER3DAE
libcollada-dom2.5-dp.so.0:_ZN13ColladaDOM1418domLight19domTechnique_common7domSpot15registerElementER3DAE
libcollada-dom2.5-dp.so.0:_ZN13ColladaDOM1418domLight19domTechnique_common7domSpot6createER3DAE
libcollada-dom2.5-dp.so.0:_ZN13ColladaDOM1418domLight19domTechnique_common8domPoint15registerElementER3DAE
libcollada-dom2.5-dp.so.0:_ZN13ColladaDOM1418domLight19domTechnique_common8domPoint6createER3DAE
libcollada-dom2.5-dp.so.0:_ZN13ColladaDOM1418domLight6createER3DAE
libcollada-dom2.5-dp.so.0:_ZN13ColladaDOM1418domLines15registerElementER3DAE
libcollada-dom2.5-dp.so.0:_ZN13ColladaDOM1418domLines6createER3DAE
libcollada-dom2.5-dp.so.0:_ZN13ColladaDOM1418domMorph10domTargets15registerElementER3DAE
libcollada-dom2.5-dp.so.0:_ZN13ColladaDOM1418domMorph10domTargets6createER3DAE
libcollada-dom2.5-dp.so.0:_ZN13ColladaDOM1418domMorph15registerElementER3DAE
libcollada-dom2.5-dp.so.0:_ZN13ColladaDOM1418domMorph6createER3DAE
libcollada-dom2.5-dp.so.0:_ZN13ColladaDOM1418domParam15registerElementER3DAE
libcollada-dom2.5-dp.so.0:_ZN13ColladaDOM1418domParam6createER3DAE
libcollada-dom2.5-dp.so.0:_ZN13ColladaDOM1418domPlane11domEquation15registerElementER3DAE
libcollada-dom2.5-dp.so.0:_ZN13ColladaDOM1418domPlane11domEquation6createER3DAE
libcollada-dom2.5-dp.so.0:_ZN13ColladaDOM1418domPlane15registerElementER3DAE
libcollada-dom2.5-dp.so.0:_ZN13ColladaDOM1418domPlane6createER3DAE
libcollada-dom2.5-dp.so.0:_ZN13ColladaDOM1418domScale15registerElementER3DAE
libcollada-dom2.5-dp.so.0:_ZN13ColladaDOM1418domScale6createER3DAE
libcollada-dom2.5-dp.so.0:_ZN13ColladaDOM1419domCamera15registerElementER3DAE
libcollada-dom2.5-dp.so.0:_ZN13ColladaDOM1419domCamera6createER3DAE
libcollada-dom2.5-dp.so.0:_ZN13ColladaDOM1419domCamera9domImager15registerElementER3DAE
libcollada-dom2.5-dp.so.0:_ZN13ColladaDOM1419domCamera9domImager6createER3DAE
libcollada-dom2.5-dp.so.0:_ZN13ColladaDOM1419domCamera9domOptics15registerElementER3DAE
libcollada-dom2.5-dp.so.0:_ZN13ColladaDOM1419domCamera9domOptics19domTechnique_common14domPerspective15registerElementER3DAE
libcollada-dom2.5-dp.so.0:_ZN13ColladaDOM1419domCamera9domOptics19domTechnique_common14domPerspective6createER3DAE
libcollada-dom2.5-dp.so.0:_ZN13ColladaDOM1419domCamera9domOptics19domTechnique_common15domOrthographic15registerElementER3DAE
libcollada-dom2.5-dp.so.0:_ZN13ColladaDOM1419domCamera9domOptics19domTechnique_common15domOrthographic6createER3DAE
libcollada-dom2.5-dp.so.0:_ZN13ColladaDOM1419domCamera9domOptics19domTechnique_common15registerElementER3DAE
libcollada-dom2.5-dp.so.0:_ZN13ColladaDOM1419domCamera9domOptics19domTechnique_common6createER3DAE
libcollada-dom2.5-dp.so.0:_ZN13ColladaDOM1419domCamera9domOptics6createER3DAE
libcollada-dom2.5-dp.so.0:_ZN13ColladaDOM1419domEffect15registerElementER3DAE
libcollada-dom2.5-dp.so.0:_ZN13ColladaDOM1419domEffect6createER3DAE
libcollada-dom2.5-dp.so.0:_ZN13ColladaDOM1419domLookat15registerElementER3DAE
libcollada-dom2.5-dp.so.0:_ZN13ColladaDOM1419domLookat6createER3DAE
libcollada-dom2.5-dp.so.0:_ZN13ColladaDOM1419domMatrix15registerElementER3DAE
libcollada-dom2.5-dp.so.0:_ZN13ColladaDOM1419domMatrix6createER3DAE
libcollada-dom2.5-dp.so.0:_ZN13ColladaDOM1419domRotate15registerElementER3DAE
libcollada-dom2.5-dp.so.0:_ZN13ColladaDOM1419domRotate6createER3DAE
libcollada-dom2.5-dp.so.0:_ZN13ColladaDOM1419domSource15registerElementER3DAE
libcollada-dom2.5-dp.so.0:_ZN13ColladaDOM1419domSource19domTechnique_common15registerElementER3DAE
libcollada-dom2.5-dp.so.0:_ZN13ColladaDOM1419domSource19domTechnique_common6createER3DAE
libcollada-dom2.5-dp.so.0:_ZN13ColladaDOM1419domSource6createER3DAE
libcollada-dom2.5-dp.so.0:_ZN13ColladaDOM1419domSphere15registerElementER3DAE
libcollada-dom2.5-dp.so.0:_ZN13ColladaDOM1419domSphere6createER3DAE
libcollada-dom2.5-dp.so.0:_ZN13ColladaDOM1419domSphere9domRadius15registerElementER3DAE
libcollada-dom2.5-dp.so.0:_ZN13ColladaDOM1419domSphere9domRadius6createER3DAE
libcollada-dom2.5-dp.so.0:_ZN13ColladaDOM1419domSpline15registerElementER3DAE
libcollada-dom2.5-dp.so.0:_ZN13ColladaDOM1419domSpline19domControl_vertices15registerElementER3DAE
libcollada-dom2.5-dp.so.0:_ZN13ColladaDOM1419domSpline19domControl_vertices6createER3DAE
libcollada-dom2.5-dp.so.0:_ZN13ColladaDOM1419domSpline6createER3DAE
libcollada-dom2.5-dp.so.0:_ZN13ColladaDOM15010domCOLLADA15registerElementER3DAE
libcollada-dom2.5-dp.so.0:_ZN13ColladaDOM15010domCOLLADA6createER3DAE
libcollada-dom2.5-dp.so.0:_ZN13ColladaDOM15010domCOLLADA8domScene15registerElementER3DAE
libcollada-dom2.5-dp.so.0:_ZN13ColladaDOM15010domCOLLADA8domScene6createER3DAE
libcollada-dom2.5-dp.so.0:_ZN13ColladaDOM15010domCapsule15registerElementER3DAE
libcollada-dom2.5-dp.so.0:_ZN13ColladaDOM15010domCapsule6createER3DAE
libcollada-dom2.5-dp.so.0:_ZN13ColladaDOM15010domCapsule9domHeight15registerElementER3DAE
libcollada-dom2.5-dp.so.0:_ZN13ColladaDOM15010domCapsule9domHeight6createER3DAE
libcollada-dom2.5-dp.so.0:_ZN13ColladaDOM15010domCapsule9domRadius15registerElementER3DAE
libcollada-dom2.5-dp.so.0:_ZN13ColladaDOM15010domCapsule9domRadius6createER3DAE
libcollada-dom2.5-dp.so.0:_ZN13ColladaDOM15010domCg_pass10domProgram15registerElementER3DAE
libcollada-dom2.5-dp.so.0:_ZN13ColladaDOM15010domCg_pass10domProgram6createER3DAE
libcollada-dom2.5-dp.so.0:_ZN13ColladaDOM15010domCg_pass10domProgram9domShader10domSources15registerElementER3DAE
libcollada-dom2.5-dp.so.0:_ZN13ColladaDOM15010domCg_pass10domProgram9domShader10domSources6createER3DAE
libcollada-dom2.5-dp.so.0:_ZN13ColladaDOM15010domCg_pass10domProgram9domShader15domBind_uniform15registerElementER3DAE
libcollada-dom2.5-dp.so.0:_ZN13ColladaDOM15010domCg_pass10domProgram9domShader15domBind_uniform6createER3DAE
libcollada-dom2.5-dp.so.0:_ZN13ColladaDOM15010domCg_pass10domProgram9domShader15domBind_uniform8domParam15registerElementER3DAE
libcollada-dom2.5-dp.so.0:_ZN13ColladaDOM15010domCg_pass10domProgram9domShader15domBind_uniform8domParam6createER3DAE
libcollada-dom2.5-dp.so.0:_ZN13ColladaDOM15010domCg_pass10domProgram9domShader15registerElementER3DAE
libcollada-dom2.5-dp.so.0:_ZN13ColladaDOM15010domCg_pass10domProgram9domShader6createER3DAE
libcollada-dom2.5-dp.so.0:_ZN13ColladaDOM15010domCg_pass11domEvaluate15registerElementER3DAE
libcollada-dom2.5-dp.so.0:_ZN13ColladaDOM15010domCg_pass11domEvaluate6createER3DAE
libcollada-dom2.5-dp.so.0:_ZN13ColladaDOM15010domCg_pass11domEvaluate7domDraw15registerElementER3DAE
libcollada-dom2.5-dp.so.0:_ZN13ColladaDOM15010domCg_pass11domEvaluate7domDraw6createER3DAE
libcollada-dom2.5-dp.so.0:_ZN13ColladaDOM15010domCg_pass15registerElementER3DAE
libcollada-dom2.5-dp.so.0:_ZN13ColladaDOM15010domCg_pass6createER3DAE
libcollada-dom2.5-dp.so.0:_ZN13ColladaDOM15010domCg_pass9domStates15registerElementER3DAE
libcollada-dom2.5-dp.so.0:_ZN13ColladaDOM15010domCg_pass9domStates6createER3DAE
libcollada-dom2.5-dp.so.0:_ZN13ColladaDOM15010domCg_user15registerElementER3DAE
libcollada-dom2.5-dp.so.0:_ZN13ColladaDOM15010domCg_user6createER3DAE
libcollada-dom2.5-dp.so.0:_ZN13ColladaDOM15010domChannel15registerElementER3DAE
libcollada-dom2.5-dp.so.0:_ZN13ColladaDOM15010domChannel6createER3DAE
libcollada-dom2.5-dp.so.0:_ZN13ColladaDOM15010domEllipse15registerElementER3DAE
libcollada-dom2.5-dp.so.0:_ZN13ColladaDOM15010domEllipse6createER3DAE
libcollada-dom2.5-dp.so.0:_ZN13ColladaDOM15010domEllipse9domRadius15registerElementER3DAE
libcollada-dom2.5-dp.so.0:_ZN13ColladaDOM15010domEllipse9domRadius6createER3DAE
libcollada-dom2.5-dp.so.0:_ZN13ColladaDOM15010domFormula15registerElementER3DAE
libcollada-dom2.5-dp.so.0:_ZN13ColladaDOM15010domFormula6createER3DAE
libcollada-dom2.5-dp.so.0:_ZN13ColladaDOM15010domFx_code15registerElementER3DAE
libcollada-dom2.5-dp.so.0:_ZN13ColladaDOM15010domFx_code6createER3DAE
libcollada-dom2.5-dp.so.0:_ZN13ColladaDOM15010domPcurves15registerElementER3DAE
libcollada-dom2.5-dp.so.0:_ZN13ColladaDOM15010domPcurves6createER3DAE
libcollada-dom2.5-dp.so.0:_ZN13ColladaDOM15010domPcurves9domVcount15registerElementER3DAE
libcollada-dom2.5-dp.so.0:_ZN13ColladaDOM15010domPcurves9domVcount6createER3DAE
libcollada-dom2.5-dp.so.0:_ZN13ColladaDOM15010domSampler15registerElementER3DAE
libcollada-dom2.5-dp.so.0:_ZN13ColladaDOM15010domSampler6createER3DAE
libcollada-dom2.5-dp.so.0:_ZN13ColladaDOM15010domSurface11domCylinder15registerElementER3DAE
libcollada-dom2.5-dp.so.0:_ZN13ColladaDOM15010domSurface11domCylinder6createER3DAE
libcollada-dom2.5-dp.so.0:_ZN13ColladaDOM15010domSurface11domCylinder9domRadius15registerElementER3DAE
libcollada-dom2.5-dp.so.0:_ZN13ColladaDOM15010domSurface11domCylinder9domRadius6createER3DAE
libcollada-dom2.5-dp.so.0:_ZN13ColladaDOM15010domSurface15registerElementER3DAE
libcollada-dom2.5-dp.so.0:_ZN13ColladaDOM15010domSurface6createER3DAE
libcollada-dom2.5-dp.so.0:_ZN13ColladaDOM15010domTrifans15registerElementER3DAE
libcollada-dom2.5-dp.so.0:_ZN13ColladaDOM15010domTrifans6createER3DAE
libcollada-dom2.5-dp.so.0:_ZN13ColladaDOM15011domAccessor15registerElementER3DAE
libcollada-dom2.5-dp.so.0:_ZN13ColladaDOM15011domAccessor6createER3DAE
libcollada-dom2.5-dp.so.0:_ZN13ColladaDOM15011domCg_array15registerElementER3DAE
libcollada-dom2.5-dp.so.0:_ZN13ColladaDOM15011domCg_array6createER3DAE
libcollada-dom2.5-dp.so.0:_ZN13ColladaDOM15011domCg_param10domBool2x115registerElementER3DAE
libcollada-dom2.5-dp.so.0:_ZN13ColladaDOM15011domCg_param10domBool2x16createER3DAE
libcollada-dom2.5-dp.so.0:_ZN13ColladaDOM15011domCg_param10domBool2x215registerElementER3DAE
libcollada-dom2.5-dp.so.0:_ZN13ColladaDOM15011domCg_param10domBool2x26createER3DAE
libcollada-dom2.5-dp.so.0:_ZN13ColladaDOM15011domCg_param10domBool2x315registerElementER3DAE
libcollada-dom2.5-dp.so.0:_ZN13ColladaDOM15011domCg_param10domBool2x36createER3DAE
libcollada-dom2.5-dp.so.0:_ZN13ColladaDOM15011domCg_param10domBool2x415registerElementER3DAE
libcollada-dom2.5-dp.so.0:_ZN13ColladaDOM15011domCg_param10domBool2x46createER3DAE
libcollada-dom2.5-dp.so.0:_ZN13ColladaDOM15011domCg_param10domBool3x115registerElementER3DAE
libcollada-dom2.5-dp.so.0:_ZN13ColladaDOM15011domCg_param10domBool3x16createER3DAE
libcollada-dom2.5-dp.so.0:_ZN13ColladaDOM15011domCg_param10domBool3x215registerElementER3DAE
libcollada-dom2.5-dp.so.0:_ZN13ColladaDOM15011domCg_param10domBool3x26createER3DAE
libcollada-dom2.5-dp.so.0:_ZN13ColladaDOM15011domCg_param10domBool3x315registerElementER3DAE
libcollada-dom2.5-dp.so.0:_ZN13ColladaDOM15011domCg_param10domBool3x36createER3DAE
libcollada-dom2.5-dp.so.0:_ZN13ColladaDOM15011domCg_param10domBool3x415registerElementER3DAE
libcollada-dom2.5-dp.so.0:_ZN13ColladaDOM15011domCg_param10domBool3x46createER3DAE
libcollada-dom2.5-dp.so.0:_ZN13ColladaDOM15011domCg_param10domBool4x115registerElementER3DAE
libcollada-dom2.5-dp.so.0:_ZN13ColladaDOM15011domCg_param10domBool4x16createER3DAE
libcollada-dom2.5-dp.so.0:_ZN13ColladaDOM15011domCg_param10domBool4x215registerElementER3DAE
libcollada-dom2.5-dp.so.0:_ZN13ColladaDOM15011domCg_param10domBool4x26createER3DAE
libcollada-dom2.5-dp.so.0:_ZN13ColladaDOM15011domCg_param10domBool4x315registerElementER3DAE
libcollada-dom2.5-dp.so.0:_ZN13ColladaDOM15011domCg_param10domBool4x36createER3DAE
libcollada-dom2.5-dp.so.0:_ZN13ColladaDOM15011domCg_param10domBool4x415registerElementER3DAE
libcollada-dom2.5-dp.so.0:_ZN13ColladaDOM15011domCg_param10domBool4x46createER3DAE
libcollada-dom2.5-dp.so.0:_ZN13ColladaDOM15011domCg_param10domHalf2x115registerElementER3DAE
libcollada-dom2.5-dp.so.0:_ZN13ColladaDOM15011domCg_param10domHalf2x16createER3DAE
libcollada-dom2.5-dp.so.0:_ZN13ColladaDOM15011domCg_param10domHalf2x215registerElementER3DAE
libcollada-dom2.5-dp.so.0:_ZN13ColladaDOM15011domCg_param10domHalf2x26createER3DAE
libcollada-dom2.5-dp.so.0:_ZN13ColladaDOM15011domCg_param10domHalf2x315registerElementER3DAE
libcollada-dom2.5-dp.so.0:_ZN13ColladaDOM15011domCg_param10domHalf2x36createER3DAE
libcollada-dom2.5-dp.so.0:_ZN13ColladaDOM15011domCg_param10domHalf2x415registerElementER3DAE
libcollada-dom2.5-dp.so.0:_ZN13ColladaDOM15011domCg_param10domHalf2x46createER3DAE
libcollada-dom2.5-dp.so.0:_ZN13ColladaDOM15011domCg_param10domHalf3x115registerElementER3DAE
libcollada-dom2.5-dp.so.0:_ZN13ColladaDOM15011domCg_param10domHalf3x16createER3DAE
libcollada-dom2.5-dp.so.0:_ZN13ColladaDOM15011domCg_param10domHalf3x215registerElementER3DAE
libcollada-dom2.5-dp.so.0:_ZN13ColladaDOM15011domCg_param10domHalf3x26createER3DAE
libcollada-dom2.5-dp.so.0:_ZN13ColladaDOM15011domCg_param10domHalf3x315registerElementER3DAE
libcollada-dom2.5-dp.so.0:_ZN13ColladaDOM15011domCg_param10domHalf3x36createER3DAE
libcollada-dom2.5-dp.so.0:_ZN13ColladaDOM15011domCg_param10domHalf3x415registerElementER3DAE
libcollada-dom2.5-dp.so.0:_ZN13ColladaDOM15011domCg_param10domHalf3x46createER3DAE
libcollada-dom2.5-dp.so.0:_ZN13ColladaDOM15011domCg_param10domHalf4x115registerElementER3DAE
libcollada-dom2.5-dp.so.0:_ZN13ColladaDOM15011domCg_param10domHalf4x16createER3DAE
libcollada-dom2.5-dp.so.0:_ZN13ColladaDOM15011domCg_param10domHalf4x215registerElementER3DAE
libcollada-dom2.5-dp.so.0:_ZN13ColladaDOM15011domCg_param10domHalf4x26createER3DAE
libcollada-dom2.5-dp.so.0:_ZN13ColladaDOM15011domCg_param10domHalf4x315registerElementER3DAE
libcollada-dom2.5-dp.so.0:_ZN13ColladaDOM15011domCg_param10domHalf4x36createER3DAE
libcollada-dom2.5-dp.so.0:_ZN13ColladaDOM15011domCg_param10domHalf4x415registerElementER3DAE
libcollada-dom2.5-dp.so.0:_ZN13ColladaDOM15011domCg_param10domHalf4x46createER3DAE
libcollada-dom2.5-dp.so.0:_ZN13ColladaDOM15011domCg_param11domFixed2x115registerElementER3DAE
libcollada-dom2.5-dp.so.0:_ZN13ColladaDOM15011domCg_param11domFixed2x16createER3DAE
libcollada-dom2.5-dp.so.0:_ZN13ColladaDOM15011domCg_param11domFixed2x215registerElementER3DAE
libcollada-dom2.5-dp.so.0:_ZN13ColladaDOM15011domCg_param11domFixed2x26createER3DAE
libcollada-dom2.5-dp.so.0:_ZN13ColladaDOM15011domCg_param11domFixed2x315registerElementER3DAE
libcollada-dom2.5-dp.so.0:_ZN13ColladaDOM15011domCg_param11domFixed2x36createER3DAE
libcollada-dom2.5-dp.so.0:_ZN13ColladaDOM15011domCg_param11domFixed2x415registerElementER3DAE
libcollada-dom2.5-dp.so.0:_ZN13ColladaDOM15011domCg_param11domFixed2x46createER3DAE
libcollada-dom2.5-dp.so.0:_ZN13ColladaDOM15011domCg_param11domFixed3x115registerElementER3DAE
libcollada-dom2.5-dp.so.0:_ZN13ColladaDOM15011domCg_param11domFixed3x16createER3DAE
libcollada-dom2.5-dp.so.0:_ZN13ColladaDOM15011domCg_param11domFixed3x215registerElementER3DAE
libcollada-dom2.5-dp.so.0:_ZN13ColladaDOM15011domCg_param11domFixed3x26createER3DAE
libcollada-dom2.5-dp.so.0:_ZN13ColladaDOM15011domCg_param11domFixed3x315registerElementER3DAE
libcollada-dom2.5-dp.so.0:_ZN13ColladaDOM15011domCg_param11domFixed3x36createER3DAE
libcollada-dom2.5-dp.so.0:_ZN13ColladaDOM15011domCg_param11domFixed3x415registerElementER3DAE
libcollada-dom2.5-dp.so.0:_ZN13ColladaDOM15011domCg_param11domFixed3x46createER3DAE
libcollada-dom2.5-dp.so.0:_ZN13ColladaDOM15011domCg_param11domFixed4x115registerElementER3DAE
libcollada-dom2.5-dp.so.0:_ZN13ColladaDOM15011domCg_param11domFixed4x16createER3DAE
libcollada-dom2.5-dp.so.0:_ZN13ColladaDOM15011domCg_param11domFixed4x215registerElementER3DAE
libcollada-dom2.5-dp.so.0:_ZN13ColladaDOM15011domCg_param11domFixed4x26createER3DAE
libcollada-dom2.5-dp.so.0:_ZN13ColladaDOM15011domCg_param11domFixed4x315registerElementER3DAE
libcollada-dom2.5-dp.so.0:_ZN13ColladaDOM15011domCg_param11domFixed4x36createER3DAE
libcollada-dom2.5-dp.so.0:_ZN13ColladaDOM15011domCg_param11domFixed4x415registerElementER3DAE
libcollada-dom2.5-dp.so.0:_ZN13ColladaDOM15011domCg_param11domFixed4x46createER3DAE
libcollada-dom2.5-dp.so.0:_ZN13ColladaDOM15011domCg_param11domFloat2x115registerElementER3DAE
libcollada-dom2.5-dp.so.0:_ZN13ColladaDOM15011domCg_param11domFloat2x16createER3DAE
libcollada-dom2.5-dp.so.0:_ZN13ColladaDOM15011domCg_param11domFloat2x215registerElementER3DAE
libcollada-dom2.5-dp.so.0:_ZN13ColladaDOM15011domCg_param11domFloat2x26createER3DAE
libcollada-dom2.5-dp.so.0:_ZN13ColladaDOM15011domCg_param11domFloat2x315registerElementER3DAE
libcollada-dom2.5-dp.so.0:_ZN13ColladaDOM15011domCg_param11domFloat2x36createER3DAE
libcollada-dom2.5-dp.so.0:_ZN13ColladaDOM15011domCg_param11domFloat2x415registerElementER3DAE
libcollada-dom2.5-dp.so.0:_ZN13ColladaDOM15011domCg_param11domFloat2x46createER3DAE
libcollada-dom2.5-dp.so.0:_ZN13ColladaDOM15011domCg_param11domFloat3x115registerElementER3DAE
libcollada-dom2.5-dp.so.0:_ZN13ColladaDOM15011domCg_param11domFloat3x16createER3DAE
libcollada-dom2.5-dp.so.0:_ZN13ColladaDOM15011domCg_param11domFloat3x215registerElementER3DAE
libcollada-dom2.5-dp.so.0:_ZN13ColladaDOM15011domCg_param11domFloat3x26createER3DAE
libcollada-dom2.5-dp.so.0:_ZN13ColladaDOM15011domCg_param11domFloat3x315registerElementER3DAE
libcollada-dom2.5-dp.so.0:_ZN13ColladaDOM15011domCg_param11domFloat3x36createER3DAE
libcollada-dom2.5-dp.so.0:_ZN13ColladaDOM15011domCg_param11domFloat3x415registerElementER3DAE
libcollada-dom2.5-dp.so.0:_ZN13ColladaDOM15011domCg_param11domFloat3x46createER3DAE
libcollada-dom2.5-dp.so.0:_ZN13ColladaDOM15011domCg_param11domFloat4x115registerElementER3DAE
libcollada-dom2.5-dp.so.0:_ZN13ColladaDOM15011domCg_param11domFloat4x16createER3DAE
libcollada-dom2.5-dp.so.0:_ZN13ColladaDOM15011domCg_param11domFloat4x215registerElementER3DAE
libcollada-dom2.5-dp.so.0:_ZN13ColladaDOM15011domCg_param11domFloat4x26createER3DAE
libcollada-dom2.5-dp.so.0:_ZN13ColladaDOM15011domCg_param11domFloat4x315registerElementER3DAE
libcollada-dom2.5-dp.so.0:_ZN13ColladaDOM15011domCg_param11domFloat4x36createER3DAE
libcollada-dom2.5-dp.so.0:_ZN13ColladaDOM15011domCg_param11domFloat4x415registerElementER3DAE
libcollada-dom2.5-dp.so.0:_ZN13ColladaDOM15011domCg_param11domFloat4x46createER3DAE
libcollada-dom2.5-dp.so.0:_ZN13ColladaDOM15011domCg_param15registerElementER3DAE
libcollada-dom2.5-dp.so.0:_ZN13ColladaDOM15011domCg_param6createER3DAE
libcollada-dom2.5-dp.so.0:_ZN13ColladaDOM15011domCg_param6domInt15registerElementER3DAE
libcollada-dom2.5-dp.so.0:_ZN13ColladaDOM15011domCg_param6domInt6createER3DAE
libcollada-dom2.5-dp.so.0:_ZN13ColladaDOM15011domCg_param7domBool15registerElementER3DAE
libcollada-dom2.5-dp.so.0:_ZN13ColladaDOM15011domCg_param7domBool6createER3DAE
libcollada-dom2.5-dp.so.0:_ZN13ColladaDOM15011domCg_param7domEnum15registerElementER3DAE
libcollada-dom2.5-dp.so.0:_ZN13ColladaDOM15011domCg_param7domEnum6createER3DAE
libcollada-dom2.5-dp.so.0:_ZN13ColladaDOM15011domCg_param7domHalf15registerElementER3DAE
libcollada-dom2.5-dp.so.0:_ZN13ColladaDOM15011domCg_param7domHalf6createER3DAE
libcollada-dom2.5-dp.so.0:_ZN13ColladaDOM15011domCg_param7domInt215registerElementER3DAE
libcollada-dom2.5-dp.so.0:_ZN13ColladaDOM15011domCg_param7domInt26createER3DAE
libcollada-dom2.5-dp.so.0:_ZN13ColladaDOM15011domCg_param7domInt315registerElementER3DAE
libcollada-dom2.5-dp.so.0:_ZN13ColladaDOM15011domCg_param7domInt36createER3DAE
libcollada-dom2.5-dp.so.0:_ZN13ColladaDOM15011domCg_param7domInt415registerElementER3DAE
libcollada-dom2.5-dp.so.0:_ZN13ColladaDOM15011domCg_param7domInt46createER3DAE
libcollada-dom2.5-dp.so.0:_ZN13ColladaDOM15011domCg_param8domBool215registerElementER3DAE
libcollada-dom2.5-dp.so.0:_ZN13ColladaDOM15011domCg_param8domBool26createER3DAE
libcollada-dom2.5-dp.so.0:_ZN13ColladaDOM15011domCg_param8domBool315registerElementER3DAE
libcollada-dom2.5-dp.so.0:_ZN13ColladaDOM15011domCg_param8domBool36createER3DAE
libcollada-dom2.5-dp.so.0:_ZN13ColladaDOM15011domCg_param8domBool415registerElementER3DAE
libcollada-dom2.5-dp.so.0:_ZN13ColladaDOM15011domCg_param8domBool46createER3DAE
libcollada-dom2.5-dp.so.0:_ZN13ColladaDOM15011domCg_param8domFixed15registerElementER3DAE
libcollada-dom2.5-dp.so.0:_ZN13ColladaDOM15011domCg_param8domFixed6createER3DAE
libcollada-dom2.5-dp.so.0:_ZN13ColladaDOM15011domCg_param8domFloat15registerElementER3DAE
libcollada-dom2.5-dp.so.0:_ZN13ColladaDOM15011domCg_param8domFloat6createER3DAE
libcollada-dom2.5-dp.so.0:_ZN13ColladaDOM15011domCg_param8domHalf215registerElementER3DAE
libcollada-dom2.5-dp.so.0:_ZN13ColladaDOM15011domCg_param8domHalf26createER3DAE
libcollada-dom2.5-dp.so.0:_ZN13ColladaDOM15011domCg_param8domHalf315registerElementER3DAE
libcollada-dom2.5-dp.so.0:_ZN13ColladaDOM15011domCg_param8domHalf36createER3DAE
libcollada-dom2.5-dp.so.0:_ZN13ColladaDOM15011domCg_param8domHalf415registerElementER3DAE
libcollada-dom2.5-dp.so.0:_ZN13ColladaDOM15011domCg_param8domHalf46createER3DAE
libcollada-dom2.5-dp.so.0:_ZN13ColladaDOM15011domCg_param9domFixed215registerElementER3DAE
libcollada-dom2.5-dp.so.0:_ZN13ColladaDOM15011domCg_param9domFixed26createER3DAE
libcollada-dom2.5-dp.so.0:_ZN13ColladaDOM15011domCg_param9domFixed315registerElementER3DAE
libcollada-dom2.5-dp.so.0:_ZN13ColladaDOM15011domCg_param9domFixed36createER3DAE
libcollada-dom2.5-dp.so.0:_ZN13ColladaDOM15011domCg_param9domFixed415registerElementER3DAE
libcollada-dom2.5-dp.so.0:_ZN13ColladaDOM15011domCg_param9domFixed46createER3DAE
libcollada-dom2.5-dp.so.0:_ZN13ColladaDOM15011domCg_param9domFloat215registerElementER3DAE
libcollada-dom2.5-dp.so.0:_ZN13ColladaDOM15011domCg_param9domFloat26createER3DAE
libcollada-dom2.5-dp.so.0:_ZN13ColladaDOM15011domCg_param9domFloat315registerElementER3DAE
libcollada-dom2.5-dp.so.0:_ZN13ColladaDOM15011domCg_param9domFloat36createER3DAE
libcollada-dom2.5-dp.so.0:_ZN13ColladaDOM15011domCg_param9domFloat415registerElementER3DAE
libcollada-dom2.5-dp.so.0:_ZN13ColladaDOM15011domCg_param9domFloat46createER3DAE
libcollada-dom2.5-dp.so.0:_ZN13ColladaDOM15011domCg_param9domInt2x115registerElementER3DAE
libcollada-dom2.5-dp.so.0:_ZN13ColladaDOM15011domCg_param9domInt2x16createER3DAE
libcollada-dom2.5-dp.so.0:_ZN13ColladaDOM15011domCg_param9domInt2x215registerElementER3DAE
libcollada-dom2.5-dp.so.0:_ZN13ColladaDOM15011domCg_param9domInt2x26createER3DAE
libcollada-dom2.5-dp.so.0:_ZN13ColladaDOM15011domCg_param9domInt2x315registerElementER3DAE
libcollada-dom2.5-dp.so.0:_ZN13ColladaDOM15011domCg_param9domInt2x36createER3DAE
libcollada-dom2.5-dp.so.0:_ZN13ColladaDOM15011domCg_param9domInt2x415registerElementER3DAE
libcollada-dom2.5-dp.so.0:_ZN13ColladaDOM15011domCg_param9domInt2x46createER3DAE
libcollada-dom2.5-dp.so.0:_ZN13ColladaDOM15011domCg_param9domInt3x115registerElementER3DAE
libcollada-dom2.5-dp.so.0:_ZN13ColladaDOM15011domCg_param9domInt3x16createER3DAE
libcollada-dom2.5-dp.so.0:_ZN13ColladaDOM15011domCg_param9domInt3x215registerElementER3DAE
libcollada-dom2.5-dp.so.0:_ZN13ColladaDOM15011domCg_param9domInt3x26createER3DAE
libcollada-dom2.5-dp.so.0:_ZN13ColladaDOM15011domCg_param9domInt3x315registerElementER3DAE
libcollada-dom2.5-dp.so.0:_ZN13ColladaDOM15011domCg_param9domInt3x36createER3DAE
libcollada-dom2.5-dp.so.0:_ZN13ColladaDOM15011domCg_param9domInt3x415registerElementER3DAE
libcollada-dom2.5-dp.so.0:_ZN13ColladaDOM15011domCg_param9domInt3x46createER3DAE
libcollada-dom2.5-dp.so.0:_ZN13ColladaDOM15011domCg_param9domInt4x115registerElementER3DAE
libcollada-dom2.5-dp.so.0:_ZN13ColladaDOM15011domCg_param9domInt4x16createER3DAE
libcollada-dom2.5-dp.so.0:_ZN13ColladaDOM15011domCg_param9domInt4x215registerElementER3DAE
libcollada-dom2.5-dp.so.0:_ZN13ColladaDOM15011domCg_param9domInt4x26createER3DAE
libcollada-dom2.5-dp.so.0:_ZN13ColladaDOM15011domCg_param9domInt4x315registerElementER3DAE
libcollada-dom2.5-dp.so.0:_ZN13ColladaDOM15011domCg_param9domInt4x36createER3DAE
libcollada-dom2.5-dp.so.0:_ZN13ColladaDOM15011domCg_param9domInt4x415registerElementER3DAE
libcollada-dom2.5-dp.so.0:_ZN13ColladaDOM15011domCg_param9domInt4x46createER3DAE
libcollada-dom2.5-dp.so.0:_ZN13ColladaDOM15011domCg_param9domString15registerElementER3DAE
libcollada-dom2.5-dp.so.0:_ZN13ColladaDOM15011domCg_param9domString6createER3DAE
libcollada-dom2.5-dp.so.0:_ZN13ColladaDOM15011domCylinder15registerElementER3DAE
libcollada-dom2.5-dp.so.0:_ZN13ColladaDOM15011domCylinder6createER3DAE
libcollada-dom2.5-dp.so.0:_ZN13ColladaDOM15011domCylinder9domHeight15registerElementER3DAE
libcollada-dom2.5-dp.so.0:_ZN13ColladaDOM15011domCylinder9domHeight6createER3DAE
libcollada-dom2.5-dp.so.0:_ZN13ColladaDOM15011domCylinder9domRadius15registerElementER3DAE
libcollada-dom2.5-dp.so.0:_ZN13ColladaDOM15011domCylinder9domRadius6createER3DAE
libcollada-dom2.5-dp.so.0:_ZN13ColladaDOM15011domGeometry15registerElementER3DAE
libcollada-dom2.5-dp.so.0:_ZN13ColladaDOM15011domGeometry6createER3DAE
libcollada-dom2.5-dp.so.0:_ZN13ColladaDOM15011domMaterial15registerElementER3DAE
libcollada-dom2.5-dp.so.0:_ZN13ColladaDOM15011domMaterial6createER3DAE
libcollada-dom2.5-dp.so.0:_ZN13ColladaDOM15011domParabola15registerElementER3DAE
libcollada-dom2.5-dp.so.0:_ZN13ColladaDOM15011domParabola6createER3DAE
libcollada-dom2.5-dp.so.0:_ZN13ColladaDOM15011domParabola8domFocal15registerElementER3DAE
libcollada-dom2.5-dp.so.0:_ZN13ColladaDOM15011domParabola8domFocal6createER3DAE
libcollada-dom2.5-dp.so.0:_ZN13ColladaDOM15011domPolygons15registerElementER3DAE
libcollada-dom2.5-dp.so.0:_ZN13ColladaDOM15011domPolygons5domPh15registerElementER3DAE
libcollada-dom2.5-dp.so.0:_ZN13ColladaDOM15011domPolygons5domPh4domH15registerElementER3DAE
libcollada-dom2.5-dp.so.0:_ZN13ColladaDOM15011domPolygons5domPh4domH6createER3DAE
libcollada-dom2.5-dp.so.0:_ZN13ColladaDOM15011domPolygons5domPh6createER3DAE
libcollada-dom2.5-dp.so.0:_ZN13ColladaDOM15011domPolygons6createER3DAE
libcollada-dom2.5-dp.so.0:_ZN13ColladaDOM15011domPolylist15registerElementER3DAE
libcollada-dom2.5-dp.so.0:_ZN13ColladaDOM15011domPolylist6createER3DAE
libcollada-dom2.5-dp.so.0:_ZN13ColladaDOM15011domPolylist9domVcount15registerElementER3DAE
libcollada-dom2.5-dp.so.0:_ZN13ColladaDOM15011domPolylist9domVcount6createER3DAE
libcollada-dom2.5-dp.so.0:_ZN13ColladaDOM15011domSurfaces15registerElementER3DAE
libcollada-dom2.5-dp.so.0:_ZN13ColladaDOM15011domSurfaces6createER3DAE
libcollada-dom2.5-dp.so.0:_ZN13ColladaDOM15011domVertices15registerElementER3DAE
libcollada-dom2.5-dp.so.0:_ZN13ColladaDOM15011domVertices6createER3DAE
libcollada-dom2.5-dp.so.0:_ZN13ColladaDOM15012domAnimation15registerElementER3DAE
libcollada-dom2.5-dp.so.0:_ZN13ColladaDOM15012domAnimation6createER3DAE
libcollada-dom2.5-dp.so.0:_ZN13ColladaDOM15012domFx_target15registerElementER3DAE
libcollada-dom2.5-dp.so.0:_ZN13ColladaDOM15012domFx_target6createER3DAE
libcollada-dom2.5-dp.so.0:_ZN13ColladaDOM15012domFx_target9domBinary15registerElementER3DAE
libcollada-dom2.5-dp.so.0:_ZN13ColladaDOM15012domFx_target9domBinary6createER3DAE
libcollada-dom2.5-dp.so.0:_ZN13ColladaDOM15012domFx_target9domBinary6domHex15registerElementER3DAE
libcollada-dom2.5-dp.so.0:_ZN13ColladaDOM15012domFx_target9domBinary6domHex6createER3DAE
libcollada-dom2.5-dp.so.0:_ZN13ColladaDOM15012domFx_target9domBinary6domRef15registerElementER3DAE
libcollada-dom2.5-dp.so.0:_ZN13ColladaDOM15012domFx_target9domBinary6domRef6createER3DAE
libcollada-dom2.5-dp.so.0:_ZN13ColladaDOM15012domHyperbola15registerElementER3DAE
libcollada-dom2.5-dp.so.0:_ZN13ColladaDOM15012domHyperbola6createER3DAE
libcollada-dom2.5-dp.so.0:_ZN13ColladaDOM15012domHyperbola9domRadius15registerElementER3DAE
libcollada-dom2.5-dp.so.0:_ZN13ColladaDOM15012domHyperbola9domRadius6createER3DAE
libcollada-dom2.5-dp.so.0:_ZN13ColladaDOM15012domInt_array15registerElementER3DAE
libcollada-dom2.5-dp.so.0:_ZN13ColladaDOM15012domInt_array6createER3DAE
libcollada-dom2.5-dp.so.0:_ZN13ColladaDOM15012domTechnique15registerElementER3DAE
libcollada-dom2.5-dp.so.0:_ZN13ColladaDOM15012domTechnique6createER3DAE
libcollada-dom2.5-dp.so.0:_ZN13ColladaDOM15012domTranslate15registerElementER3DAE
libcollada-dom2.5-dp.so.0:_ZN13ColladaDOM15012domTranslate6createER3DAE
libcollada-dom2.5-dp.so.0:_ZN13ColladaDOM15012domTriangles15registerElementER3DAE
libcollada-dom2.5-dp.so.0:_ZN13ColladaDOM15012domTriangles6createER3DAE
libcollada-dom2.5-dp.so.0:_ZN13ColladaDOM15012domTristrips15registerElementER3DAE
libcollada-dom2.5-dp.so.0:_ZN13ColladaDOM15012domTristrips6createER3DAE
libcollada-dom2.5-dp.so.0:_ZN13ColladaDOM15013domBool_array15registerElementER3DAE
libcollada-dom2.5-dp.so.0:_ZN13ColladaDOM15013domBool_array6createER3DAE
libcollada-dom2.5-dp.so.0:_ZN13ColladaDOM15013domController15registerElementER3DAE
libcollada-dom2.5-dp.so.0:_ZN13ColladaDOM15013domController6createER3DAE
libcollada-dom2.5-dp.so.0:_ZN13ColladaDOM15013domFx_include15registerElementER3DAE
libcollada-dom2.5-dp.so.0:_ZN13ColladaDOM15013domFx_include6createER3DAE
libcollada-dom2.5-dp.so.0:_ZN13ColladaDOM15013domFx_profile15registerElementER3DAE
libcollada-dom2.5-dp.so.0:_ZN13ColladaDOM15013domFx_profile6createER3DAE
libcollada-dom2.5-dp.so.0:_ZN13ColladaDOM15013domFx_sources15registerElementER3DAE
libcollada-dom2.5-dp.so.0:_ZN13ColladaDOM15013domFx_sources6createER3DAE
libcollada-dom2.5-dp.so.0:_ZN13ColladaDOM15013domFx_sources9domImport15registerElementER3DAE
libcollada-dom2.5-dp.so.0:_ZN13ColladaDOM15013domFx_sources9domImport6createER3DAE
libcollada-dom2.5-dp.so.0:_ZN13ColladaDOM15013domFx_sources9domInline15registerElementER3DAE
libcollada-dom2.5-dp.so.0:_ZN13ColladaDOM15013domFx_sources9domInline6createER3DAE
libcollada-dom2.5-dp.so.0:_ZN13ColladaDOM15013domGles2_pass11domEvaluate15registerElementER3DAE
libcollada-dom2.5-dp.so.0:_ZN13ColladaDOM15013domGles2_pass11domEvaluate6createER3DAE
libcollada-dom2.5-dp.so.0:_ZN13ColladaDOM15013domGles2_pass11domEvaluate7domDraw15registerElementER3DAE
libcollada-dom2.5-dp.so.0:_ZN13ColladaDOM15013domGles2_pass11domEvaluate7domDraw6createER3DAE
libcollada-dom2.5-dp.so.0:_ZN13ColladaDOM15013domGles2_pass15registerElementER3DAE
libcollada-dom2.5-dp.so.0:_ZN13ColladaDOM15013domGles2_pass6createER3DAE
libcollada-dom2.5-dp.so.0:_ZN13ColladaDOM15013domGles2_pass9domStates15registerElementER3DAE
libcollada-dom2.5-dp.so.0:_ZN13ColladaDOM15013domGles2_pass9domStates6createER3DAE
libcollada-dom2.5-dp.so.0:_ZN13ColladaDOM15013domGles_param11domFloat1x115registerElementER3DAE
libcollada-dom2.5-dp.so.0:_ZN13ColladaDOM15013domGles_param11domFloat1x16createER3DAE
libcollada-dom2.5-dp.so.0:_ZN13ColladaDOM15013domGles_param11domFloat1x215registerElementER3DAE
libcollada-dom2.5-dp.so.0:_ZN13ColladaDOM15013domGles_param11domFloat1x26createER3DAE
libcollada-dom2.5-dp.so.0:_ZN13ColladaDOM15013domGles_param11domFloat1x315registerElementER3DAE
libcollada-dom2.5-dp.so.0:_ZN13ColladaDOM15013domGles_param11domFloat1x36createER3DAE
libcollada-dom2.5-dp.so.0:_ZN13ColladaDOM15013domGles_param11domFloat1x415registerElementER3DAE
libcollada-dom2.5-dp.so.0:_ZN13ColladaDOM15013domGles_param11domFloat1x46createER3DAE
libcollada-dom2.5-dp.so.0:_ZN13ColladaDOM15013domGles_param11domFloat2x115registerElementER3DAE
libcollada-dom2.5-dp.so.0:_ZN13ColladaDOM15013domGles_param11domFloat2x16createER3DAE
libcollada-dom2.5-dp.so.0:_ZN13ColladaDOM15013domGles_param11domFloat2x215registerElementER3DAE
libcollada-dom2.5-dp.so.0:_ZN13ColladaDOM15013domGles_param11domFloat2x26createER3DAE
libcollada-dom2.5-dp.so.0:_ZN13ColladaDOM15013domGles_param11domFloat2x315registerElementER3DAE
libcollada-dom2.5-dp.so.0:_ZN13ColladaDOM15013domGles_param11domFloat2x36createER3DAE
libcollada-dom2.5-dp.so.0:_ZN13ColladaDOM15013domGles_param11domFloat2x415registerElementER3DAE
libcollada-dom2.5-dp.so.0:_ZN13ColladaDOM15013domGles_param11domFloat2x46createER3DAE
libcollada-dom2.5-dp.so.0:_ZN13ColladaDOM15013domGles_param11domFloat3x115registerElementER3DAE
libcollada-dom2.5-dp.so.0:_ZN13ColladaDOM15013domGles_param11domFloat3x16createER3DAE
libcollada-dom2.5-dp.so.0:_ZN13ColladaDOM15013domGles_param11domFloat3x215registerElementER3DAE
libcollada-dom2.5-dp.so.0:_ZN13ColladaDOM15013domGles_param11domFloat3x26createER3DAE
libcollada-dom2.5-dp.so.0:_ZN13ColladaDOM15013domGles_param11domFloat3x315registerElementER3DAE
libcollada-dom2.5-dp.so.0:_ZN13ColladaDOM15013domGles_param11domFloat3x36createER3DAE
libcollada-dom2.5-dp.so.0:_ZN13ColladaDOM15013domGles_param11domFloat3x415registerElementER3DAE
libcollada-dom2.5-dp.so.0:_ZN13ColladaDOM15013domGles_param11domFloat3x46createER3DAE
libcollada-dom2.5-dp.so.0:_ZN13ColladaDOM15013domGles_param11domFloat4x115registerElementER3DAE
libcollada-dom2.5-dp.so.0:_ZN13ColladaDOM15013domGles_param11domFloat4x16createER3DAE
libcollada-dom2.5-dp.so.0:_ZN13ColladaDOM15013domGles_param11domFloat4x215registerElementER3DAE
libcollada-dom2.5-dp.so.0:_ZN13ColladaDOM15013domGles_param11domFloat4x26createER3DAE
libcollada-dom2.5-dp.so.0:_ZN13ColladaDOM15013domGles_param11domFloat4x315registerElementER3DAE
libcollada-dom2.5-dp.so.0:_ZN13ColladaDOM15013domGles_param11domFloat4x36createER3DAE
libcollada-dom2.5-dp.so.0:_ZN13ColladaDOM15013domGles_param11domFloat4x415registerElementER3DAE
libcollada-dom2.5-dp.so.0:_ZN13ColladaDOM15013domGles_param11domFloat4x46createER3DAE
libcollada-dom2.5-dp.so.0:_ZN13ColladaDOM15013domGles_param15registerElementER3DAE
libcollada-dom2.5-dp.so.0:_ZN13ColladaDOM15013domGles_param6createER3DAE
libcollada-dom2.5-dp.so.0:_ZN13ColladaDOM15013domGles_param6domInt15registerElementER3DAE
libcollada-dom2.5-dp.so.0:_ZN13ColladaDOM15013domGles_param6domInt6createER3DAE
libcollada-dom2.5-dp.so.0:_ZN13ColladaDOM15013domGles_param7domBool15registerElementER3DAE
libcollada-dom2.5-dp.so.0:_ZN13ColladaDOM15013domGles_param7domBool6createER3DAE
libcollada-dom2.5-dp.so.0:_ZN13ColladaDOM15013domGles_param7domEnum15registerElementER3DAE
libcollada-dom2.5-dp.so.0:_ZN13ColladaDOM15013domGles_param7domEnum6createER3DAE
libcollada-dom2.5-dp.so.0:_ZN13ColladaDOM15013domGles_param7domInt215registerElementER3DAE
libcollada-dom2.5-dp.so.0:_ZN13ColladaDOM15013domGles_param7domInt26createER3DAE
libcollada-dom2.5-dp.so.0:_ZN13ColladaDOM15013domGles_param7domInt315registerElementER3DAE
libcollada-dom2.5-dp.so.0:_ZN13ColladaDOM15013domGles_param7domInt36createER3DAE
libcollada-dom2.5-dp.so.0:_ZN13ColladaDOM15013domGles_param7domInt415registerElementER3DAE
libcollada-dom2.5-dp.so.0:_ZN13ColladaDOM15013domGles_param7domInt46createER3DAE
libcollada-dom2.5-dp.so.0:_ZN13ColladaDOM15013domGles_param8domBool215registerElementER3DAE
libcollada-dom2.5-dp.so.0:_ZN13ColladaDOM15013domGles_param8domBool26createER3DAE
libcollada-dom2.5-dp.so.0:_ZN13ColladaDOM15013domGles_param8domBool315registerElementER3DAE
libcollada-dom2.5-dp.so.0:_ZN13ColladaDOM15013domGles_param8domBool36createER3DAE
libcollada-dom2.5-dp.so.0:_ZN13ColladaDOM15013domGles_param8domBool415registerElementER3DAE
libcollada-dom2.5-dp.so.0:_ZN13ColladaDOM15013domGles_param8domBool46createER3DAE
libcollada-dom2.5-dp.so.0:_ZN13ColladaDOM15013domGles_param8domFloat15registerElementER3DAE
libcollada-dom2.5-dp.so.0:_ZN13ColladaDOM15013domGles_param8domFloat6createER3DAE
libcollada-dom2.5-dp.so.0:_ZN13ColladaDOM15013domGles_param9domFloat215registerElementER3DAE
libcollada-dom2.5-dp.so.0:_ZN13ColladaDOM15013domGles_param9domFloat26createER3DAE
libcollada-dom2.5-dp.so.0:_ZN13ColladaDOM15013domGles_param9domFloat315registerElementER3DAE
libcollada-dom2.5-dp.so.0:_ZN13ColladaDOM15013domGles_param9domFloat36createER3DAE
libcollada-dom2.5-dp.so.0:_ZN13ColladaDOM15013domGles_param9domFloat415registerElementER3DAE
libcollada-dom2.5-dp.so.0:_ZN13ColladaDOM15013domGles_param9domFloat46createER3DAE
libcollada-dom2.5-dp.so.0:_ZN13ColladaDOM15013domGlsl_array15registerElementER3DAE
libcollada-dom2.5-dp.so.0:_ZN13ColladaDOM15013domGlsl_array6createER3DAE
libcollada-dom2.5-dp.so.0:_ZN13ColladaDOM15013domGlsl_value11domFloat2x215registerElementER3DAE
libcollada-dom2.5-dp.so.0:_ZN13ColladaDOM15013domGlsl_value11domFloat2x26createER3DAE
libcollada-dom2.5-dp.so.0:_ZN13ColladaDOM15013domGlsl_value11domFloat3x315registerElementER3DAE
libcollada-dom2.5-dp.so.0:_ZN13ColladaDOM15013domGlsl_value11domFloat3x36createER3DAE
libcollada-dom2.5-dp.so.0:_ZN13ColladaDOM15013domGlsl_value11domFloat4x415registerElementER3DAE
libcollada-dom2.5-dp.so.0:_ZN13ColladaDOM15013domGlsl_value11domFloat4x46createER3DAE
libcollada-dom2.5-dp.so.0:_ZN13ColladaDOM15013domGlsl_value15registerElementER3DAE
libcollada-dom2.5-dp.so.0:_ZN13ColladaDOM15013domGlsl_value6createER3DAE
libcollada-dom2.5-dp.so.0:_ZN13ColladaDOM15013domGlsl_value6domInt15registerElementER3DAE
libcollada-dom2.5-dp.so.0:_ZN13ColladaDOM15013domGlsl_value6domInt6createER3DAE
libcollada-dom2.5-dp.so.0:_ZN13ColladaDOM15013domGlsl_value7domBool15registerElementER3DAE
libcollada-dom2.5-dp.so.0:_ZN13ColladaDOM15013domGlsl_value7domBool6createER3DAE
libcollada-dom2.5-dp.so.0:_ZN13ColladaDOM15013domGlsl_value7domEnum15registerElementER3DAE
libcollada-dom2.5-dp.so.0:_ZN13ColladaDOM15013domGlsl_value7domEnum6createER3DAE
libcollada-dom2.5-dp.so.0:_ZN13ColladaDOM15013domGlsl_value7domInt215registerElementER3DAE
libcollada-dom2.5-dp.so.0:_ZN13ColladaDOM15013domGlsl_value7domInt26createER3DAE
libcollada-dom2.5-dp.so.0:_ZN13ColladaDOM15013domGlsl_value7domInt315registerElementER3DAE
libcollada-dom2.5-dp.so.0:_ZN13ColladaDOM15013domGlsl_value7domInt36createER3DAE
libcollada-dom2.5-dp.so.0:_ZN13ColladaDOM15013domGlsl_value7domInt415registerElementER3DAE
libcollada-dom2.5-dp.so.0:_ZN13ColladaDOM15013domGlsl_value7domInt46createER3DAE
libcollada-dom2.5-dp.so.0:_ZN13ColladaDOM15013domGlsl_value8domBool215registerElementER3DAE
libcollada-dom2.5-dp.so.0:_ZN13ColladaDOM15013domGlsl_value8domBool26createER3DAE
libcollada-dom2.5-dp.so.0:_ZN13ColladaDOM15013domGlsl_value8domBool315registerElementER3DAE
libcollada-dom2.5-dp.so.0:_ZN13ColladaDOM15013domGlsl_value8domBool36createER3DAE
libcollada-dom2.5-dp.so.0:_ZN13ColladaDOM15013domGlsl_value8domBool415registerElementER3DAE
libcollada-dom2.5-dp.so.0:_ZN13ColladaDOM15013domGlsl_value8domBool46createER3DAE
libcollada-dom2.5-dp.so.0:_ZN13ColladaDOM15013domGlsl_value8domFloat15registerElementER3DAE
libcollada-dom2.5-dp.so.0:_ZN13ColladaDOM15013domGlsl_value8domFloat6createER3DAE
libcollada-dom2.5-dp.so.0:_ZN13ColladaDOM15013domGlsl_value9domFloat215registerElementER3DAE
libcollada-dom2.5-dp.so.0:_ZN13ColladaDOM15013domGlsl_value9domFloat26createER3DAE
libcollada-dom2.5-dp.so.0:_ZN13ColladaDOM15013domGlsl_value9domFloat315registerElementER3DAE
libcollada-dom2.5-dp.so.0:_ZN13ColladaDOM15013domGlsl_value9domFloat36createER3DAE
libcollada-dom2.5-dp.so.0:_ZN13ColladaDOM15013domGlsl_value9domFloat415registerElementER3DAE
libcollada-dom2.5-dp.so.0:_ZN13ColladaDOM15013domGlsl_value9domFloat46createER3DAE
libcollada-dom2.5-dp.so.0:_ZN13ColladaDOM15013domImage_mips15registerElementER3DAE
libcollada-dom2.5-dp.so.0:_ZN13ColladaDOM15013domImage_mips6createER3DAE
libcollada-dom2.5-dp.so.0:_ZN13ColladaDOM15013domKinematics15registerElementER3DAE
libcollada-dom2.5-dp.so.0:_ZN13ColladaDOM15013domKinematics6createER3DAE
libcollada-dom2.5-dp.so.0:_ZN13ColladaDOM15013domLinestrips15registerElementER3DAE
libcollada-dom2.5-dp.so.0:_ZN13ColladaDOM15013domLinestrips6createER3DAE
libcollada-dom2.5-dp.so.0:_ZN13ColladaDOM15013domName_array15registerElementER3DAE
libcollada-dom2.5-dp.so.0:_ZN13ColladaDOM15013domName_array6createER3DAE
libcollada-dom2.5-dp.so.0:_ZN13ColladaDOM15013domProfile_cg12domTechnique15registerElementER3DAE
libcollada-dom2.5-dp.so.0:_ZN13ColladaDOM15013domProfile_cg12domTechnique6createER3DAE
libcollada-dom2.5-dp.so.0:_ZN13ColladaDOM15013domProfile_cg15registerElementER3DAE
libcollada-dom2.5-dp.so.0:_ZN13ColladaDOM15013domProfile_cg6createER3DAE
libcollada-dom2.5-dp.so.0:_ZN13ColladaDOM15013domRigid_body15registerElementER3DAE
libcollada-dom2.5-dp.so.0:_ZN13ColladaDOM15013domRigid_body19domTechnique_common10domDynamic15registerElementER3DAE
libcollada-dom2.5-dp.so.0:_ZN13ColladaDOM15013domRigid_body19domTechnique_common10domDynamic6createER3DAE
libcollada-dom2.5-dp.so.0:_ZN13ColladaDOM15013domRigid_body19domTechnique_common13domMass_frame15registerElementER3DAE
libcollada-dom2.5-dp.so.0:_ZN13ColladaDOM15013domRigid_body19domTechnique_common13domMass_frame6createER3DAE
libcollada-dom2.5-dp.so.0:_ZN13ColladaDOM15013domRigid_body19domTechnique_common15registerElementER3DAE
libcollada-dom2.5-dp.so.0:_ZN13ColladaDOM15013domRigid_body19domTechnique_common6createER3DAE
libcollada-dom2.5-dp.so.0:_ZN13ColladaDOM15013domRigid_body19domTechnique_common8domShape15registerElementER3DAE
libcollada-dom2.5-dp.so.0:_ZN13ColladaDOM15013domRigid_body19domTechnique_common8domShape6createER3DAE
libcollada-dom2.5-dp.so.0:_ZN13ColladaDOM15013domRigid_body19domTechnique_common8domShape9domHollow15registerElementER3DAE
libcollada-dom2.5-dp.so.0:_ZN13ColladaDOM15013domRigid_body19domTechnique_common8domShape9domHollow6createER3DAE
libcollada-dom2.5-dp.so.0:_ZN13ColladaDOM15013domRigid_body6createER3DAE
libcollada-dom2.5-dp.so.0:_ZN13ColladaDOM15014COLLADA_TYPE_HE
libcollada-dom2.5-dp.so.0:_ZN13ColladaDOM15014COLLADA_TYPE_PE
libcollada-dom2.5-dp.so.0:_ZN13ColladaDOM15014COLLADA_TYPE_VE
libcollada-dom2.5-dp.so.0:_ZN13ColladaDOM15014domCg_newparam11domModifier15registerElementER3DAE
libcollada-dom2.5-dp.so.0:_ZN13ColladaDOM15014domCg_newparam11domModifier6createER3DAE
libcollada-dom2.5-dp.so.0:_ZN13ColladaDOM15014domCg_newparam11domSemantic15registerElementER3DAE
libcollada-dom2.5-dp.so.0:_ZN13ColladaDOM15014domCg_newparam11domSemantic6createER3DAE
libcollada-dom2.5-dp.so.0:_ZN13ColladaDOM15014domCg_newparam15registerElementER3DAE
libcollada-dom2.5-dp.so.0:_ZN13ColladaDOM15014domCg_newparam6createER3DAE
libcollada-dom2.5-dp.so.0:_ZN13ColladaDOM15014domCg_setparam15registerElementER3DAE
libcollada-dom2.5-dp.so.0:_ZN13ColladaDOM15014domCg_setparam6createER3DAE
libcollada-dom2.5-dp.so.0:_ZN13ColladaDOM15014domConvex_mesh15registerElementER3DAE
libcollada-dom2.5-dp.so.0:_ZN13ColladaDOM15014domConvex_mesh6createER3DAE
libcollada-dom2.5-dp.so.0:_ZN13ColladaDOM15014domFloat_array15registerElementER3DAE
libcollada-dom2.5-dp.so.0:_ZN13ColladaDOM15014domFloat_array6createER3DAE
libcollada-dom2.5-dp.so.0:_ZN13ColladaDOM15014domForce_field15registerElementER3DAE
libcollada-dom2.5-dp.so.0:_ZN13ColladaDOM15014domForce_field6createER3DAE
libcollada-dom2.5-dp.so.0:_ZN13ColladaDOM15014domFx_annotate11domFloat2x215registerElementER3DAE
libcollada-dom2.5-dp.so.0:_ZN13ColladaDOM15014domFx_annotate11domFloat2x26createER3DAE
libcollada-dom2.5-dp.so.0:_ZN13ColladaDOM15014domFx_annotate11domFloat3x315registerElementER3DAE
libcollada-dom2.5-dp.so.0:_ZN13ColladaDOM15014domFx_annotate11domFloat3x36createER3DAE
libcollada-dom2.5-dp.so.0:_ZN13ColladaDOM15014domFx_annotate11domFloat4x415registerElementER3DAE
libcollada-dom2.5-dp.so.0:_ZN13ColladaDOM15014domFx_annotate11domFloat4x46createER3DAE
libcollada-dom2.5-dp.so.0:_ZN13ColladaDOM15014domFx_annotate15registerElementER3DAE
libcollada-dom2.5-dp.so.0:_ZN13ColladaDOM15014domFx_annotate6createER3DAE
libcollada-dom2.5-dp.so.0:_ZN13ColladaDOM15014domFx_annotate6domInt15registerElementER3DAE
libcollada-dom2.5-dp.so.0:_ZN13ColladaDOM15014domFx_annotate6domInt6createER3DAE
libcollada-dom2.5-dp.so.0:_ZN13ColladaDOM15014domFx_annotate7domBool15registerElementER3DAE
libcollada-dom2.5-dp.so.0:_ZN13ColladaDOM15014domFx_annotate7domBool6createER3DAE
libcollada-dom2.5-dp.so.0:_ZN13ColladaDOM15014domFx_annotate7domInt215registerElementER3DAE
libcollada-dom2.5-dp.so.0:_ZN13ColladaDOM15014domFx_annotate7domInt26createER3DAE
libcollada-dom2.5-dp.so.0:_ZN13ColladaDOM15014domFx_annotate7domInt315registerElementER3DAE
libcollada-dom2.5-dp.so.0:_ZN13ColladaDOM15014domFx_annotate7domInt36createER3DAE
libcollada-dom2.5-dp.so.0:_ZN13ColladaDOM15014domFx_annotate7domInt415registerElementER3DAE
libcollada-dom2.5-dp.so.0:_ZN13ColladaDOM15014domFx_annotate7domInt46createER3DAE
libcollada-dom2.5-dp.so.0:_ZN13ColladaDOM15014domFx_annotate8domBool215registerElementER3DAE
libcollada-dom2.5-dp.so.0:_ZN13ColladaDOM15014domFx_annotate8domBool26createER3DAE
libcollada-dom2.5-dp.so.0:_ZN13ColladaDOM15014domFx_annotate8domBool315registerElementER3DAE
libcollada-dom2.5-dp.so.0:_ZN13ColladaDOM15014domFx_annotate8domBool36createER3DAE
libcollada-dom2.5-dp.so.0:_ZN13ColladaDOM15014domFx_annotate8domBool415registerElementER3DAE
libcollada-dom2.5-dp.so.0:_ZN13ColladaDOM15014domFx_annotate8domBool46createER3DAE
libcollada-dom2.5-dp.so.0:_ZN13ColladaDOM15014domFx_annotate8domFloat15registerElementER3DAE
libcollada-dom2.5-dp.so.0:_ZN13ColladaDOM15014domFx_annotate8domFloat6createER3DAE
libcollada-dom2.5-dp.so.0:_ZN13ColladaDOM15014domFx_annotate9domFloat215registerElementER3DAE
libcollada-dom2.5-dp.so.0:_ZN13ColladaDOM15014domFx_annotate9domFloat26createER3DAE
libcollada-dom2.5-dp.so.0:_ZN13ColladaDOM15014domFx_annotate9domFloat315registerElementER3DAE
libcollada-dom2.5-dp.so.0:_ZN13ColladaDOM15014domFx_annotate9domFloat36createER3DAE
libcollada-dom2.5-dp.so.0:_ZN13ColladaDOM15014domFx_annotate9domFloat415registerElementER3DAE
libcollada-dom2.5-dp.so.0:_ZN13ColladaDOM15014domFx_annotate9domFloat46createER3DAE
libcollada-dom2.5-dp.so.0:_ZN13ColladaDOM15014domFx_annotate9domString15registerElementER3DAE
libcollada-dom2.5-dp.so.0:_ZN13ColladaDOM15014domFx_annotate9domString6createER3DAE
libcollada-dom2.5-dp.so.0:_ZN13ColladaDOM15014domFx_newparam11domFloat2x115registerElementER3DAE
libcollada-dom2.5-dp.so.0:_ZN13ColladaDOM15014domFx_newparam11domFloat2x16createER3DAE
libcollada-dom2.5-dp.so.0:_ZN13ColladaDOM15014domFx_newparam11domFloat2x215registerElementER3DAE
libcollada-dom2.5-dp.so.0:_ZN13ColladaDOM15014domFx_newparam11domFloat2x26createER3DAE
libcollada-dom2.5-dp.so.0:_ZN13ColladaDOM15014domFx_newparam11domFloat2x315registerElementER3DAE
libcollada-dom2.5-dp.so.0:_ZN13ColladaDOM15014domFx_newparam11domFloat2x36createER3DAE
libcollada-dom2.5-dp.so.0:_ZN13ColladaDOM15014domFx_newparam11domFloat2x415registerElementER3DAE
libcollada-dom2.5-dp.so.0:_ZN13ColladaDOM15014domFx_newparam11domFloat2x46createER3DAE
libcollada-dom2.5-dp.so.0:_ZN13ColladaDOM15014domFx_newparam11domFloat3x115registerElementER3DAE
libcollada-dom2.5-dp.so.0:_ZN13ColladaDOM15014domFx_newparam11domFloat3x16createER3DAE
libcollada-dom2.5-dp.so.0:_ZN13ColladaDOM15014domFx_newparam11domFloat3x215registerElementER3DAE
libcollada-dom2.5-dp.so.0:_ZN13ColladaDOM15014domFx_newparam11domFloat3x26createER3DAE
libcollada-dom2.5-dp.so.0:_ZN13ColladaDOM15014domFx_newparam11domFloat3x315registerElementER3DAE
libcollada-dom2.5-dp.so.0:_ZN13ColladaDOM15014domFx_newparam11domFloat3x36createER3DAE
libcollada-dom2.5-dp.so.0:_ZN13ColladaDOM15014domFx_newparam11domFloat3x415registerElementER3DAE
libcollada-dom2.5-dp.so.0:_ZN13ColladaDOM15014domFx_newparam11domFloat3x46createER3DAE
libcollada-dom2.5-dp.so.0:_ZN13ColladaDOM15014domFx_newparam11domFloat4x115registerElementER3DAE
libcollada-dom2.5-dp.so.0:_ZN13ColladaDOM15014domFx_newparam11domFloat4x16createER3DAE
libcollada-dom2.5-dp.so.0:_ZN13ColladaDOM15014domFx_newparam11domFloat4x215registerElementER3DAE
libcollada-dom2.5-dp.so.0:_ZN13ColladaDOM15014domFx_newparam11domFloat4x26createER3DAE
libcollada-dom2.5-dp.so.0:_ZN13ColladaDOM15014domFx_newparam11domFloat4x315registerElementER3DAE
libcollada-dom2.5-dp.so.0:_ZN13ColladaDOM15014domFx_newparam11domFloat4x36createER3DAE
libcollada-dom2.5-dp.so.0:_ZN13ColladaDOM15014domFx_newparam11domFloat4x415registerElementER3DAE
libcollada-dom2.5-dp.so.0:_ZN13ColladaDOM15014domFx_newparam11domFloat4x46createER3DAE
libcollada-dom2.5-dp.so.0:_ZN13ColladaDOM15014domFx_newparam15registerElementER3DAE
libcollada-dom2.5-dp.so.0:_ZN13ColladaDOM15014domFx_newparam6createER3DAE
libcollada-dom2.5-dp.so.0:_ZN13ColladaDOM15014domFx_newparam6domInt15registerElementER3DAE
libcollada-dom2.5-dp.so.0:_ZN13ColladaDOM15014domFx_newparam6domInt6createER3DAE
libcollada-dom2.5-dp.so.0:_ZN13ColladaDOM15014domFx_newparam7domBool15registerElementER3DAE
libcollada-dom2.5-dp.so.0:_ZN13ColladaDOM15014domFx_newparam7domBool6createER3DAE
libcollada-dom2.5-dp.so.0:_ZN13ColladaDOM15014domFx_newparam7domEnum15registerElementER3DAE
libcollada-dom2.5-dp.so.0:_ZN13ColladaDOM15014domFx_newparam7domEnum6createER3DAE
libcollada-dom2.5-dp.so.0:_ZN13ColladaDOM15014domFx_newparam7domInt215registerElementER3DAE
libcollada-dom2.5-dp.so.0:_ZN13ColladaDOM15014domFx_newparam7domInt26createER3DAE
libcollada-dom2.5-dp.so.0:_ZN13ColladaDOM15014domFx_newparam7domInt315registerElementER3DAE
libcollada-dom2.5-dp.so.0:_ZN13ColladaDOM15014domFx_newparam7domInt36createER3DAE
libcollada-dom2.5-dp.so.0:_ZN13ColladaDOM15014domFx_newparam7domInt415registerElementER3DAE
libcollada-dom2.5-dp.so.0:_ZN13ColladaDOM15014domFx_newparam7domInt46createER3DAE
libcollada-dom2.5-dp.so.0:_ZN13ColladaDOM15014domFx_newparam8domBool215registerElementER3DAE
libcollada-dom2.5-dp.so.0:_ZN13ColladaDOM15014domFx_newparam8domBool26createER3DAE
libcollada-dom2.5-dp.so.0:_ZN13ColladaDOM15014domFx_newparam8domBool315registerElementER3DAE
libcollada-dom2.5-dp.so.0:_ZN13ColladaDOM15014domFx_newparam8domBool36createER3DAE
libcollada-dom2.5-dp.so.0:_ZN13ColladaDOM15014domFx_newparam8domBool415registerElementER3DAE
libcollada-dom2.5-dp.so.0:_ZN13ColladaDOM15014domFx_newparam8domBool46createER3DAE
libcollada-dom2.5-dp.so.0:_ZN13ColladaDOM15014domFx_newparam8domFloat15registerElementER3DAE
libcollada-dom2.5-dp.so.0:_ZN13ColladaDOM15014domFx_newparam8domFloat6createER3DAE
libcollada-dom2.5-dp.so.0:_ZN13ColladaDOM15014domFx_newparam9domFloat215registerElementER3DAE
libcollada-dom2.5-dp.so.0:_ZN13ColladaDOM15014domFx_newparam9domFloat26createER3DAE
libcollada-dom2.5-dp.so.0:_ZN13ColladaDOM15014domFx_newparam9domFloat315registerElementER3DAE
libcollada-dom2.5-dp.so.0:_ZN13ColladaDOM15014domFx_newparam9domFloat36createER3DAE
libcollada-dom2.5-dp.so.0:_ZN13ColladaDOM15014domFx_newparam9domFloat415registerElementER3DAE
libcollada-dom2.5-dp.so.0:_ZN13ColladaDOM15014domFx_newparam9domFloat46createER3DAE
libcollada-dom2.5-dp.so.0:_ZN13ColladaDOM15014domFx_setparam11domFloat2x115registerElementER3DAE
libcollada-dom2.5-dp.so.0:_ZN13ColladaDOM15014domFx_setparam11domFloat2x16createER3DAE
libcollada-dom2.5-dp.so.0:_ZN13ColladaDOM15014domFx_setparam11domFloat2x215registerElementER3DAE
libcollada-dom2.5-dp.so.0:_ZN13ColladaDOM15014domFx_setparam11domFloat2x26createER3DAE
libcollada-dom2.5-dp.so.0:_ZN13ColladaDOM15014domFx_setparam11domFloat2x315registerElementER3DAE
libcollada-dom2.5-dp.so.0:_ZN13ColladaDOM15014domFx_setparam11domFloat2x36createER3DAE
libcollada-dom2.5-dp.so.0:_ZN13ColladaDOM15014domFx_setparam11domFloat2x415registerElementER3DAE
libcollada-dom2.5-dp.so.0:_ZN13ColladaDOM15014domFx_setparam11domFloat2x46createER3DAE
libcollada-dom2.5-dp.so.0:_ZN13ColladaDOM15014domFx_setparam11domFloat3x115registerElementER3DAE
libcollada-dom2.5-dp.so.0:_ZN13ColladaDOM15014domFx_setparam11domFloat3x16createER3DAE
libcollada-dom2.5-dp.so.0:_ZN13ColladaDOM15014domFx_setparam11domFloat3x215registerElementER3DAE
libcollada-dom2.5-dp.so.0:_ZN13ColladaDOM15014domFx_setparam11domFloat3x26createER3DAE
libcollada-dom2.5-dp.so.0:_ZN13ColladaDOM15014domFx_setparam11domFloat3x315registerElementER3DAE
libcollada-dom2.5-dp.so.0:_ZN13ColladaDOM15014domFx_setparam11domFloat3x36createER3DAE
libcollada-dom2.5-dp.so.0:_ZN13ColladaDOM15014domFx_setparam11domFloat3x415registerElementER3DAE
libcollada-dom2.5-dp.so.0:_ZN13ColladaDOM15014domFx_setparam11domFloat3x46createER3DAE
libcollada-dom2.5-dp.so.0:_ZN13ColladaDOM15014domFx_setparam11domFloat4x115registerElementER3DAE
libcollada-dom2.5-dp.so.0:_ZN13ColladaDOM15014domFx_setparam11domFloat4x16createER3DAE
libcollada-dom2.5-dp.so.0:_ZN13ColladaDOM15014domFx_setparam11domFloat4x215registerElementER3DAE
libcollada-dom2.5-dp.so.0:_ZN13ColladaDOM15014domFx_setparam11domFloat4x26createER3DAE
libcollada-dom2.5-dp.so.0:_ZN13ColladaDOM15014domFx_setparam11domFloat4x315registerElementER3DAE
libcollada-dom2.5-dp.so.0:_ZN13ColladaDOM15014domFx_setparam11domFloat4x36createER3DAE
libcollada-dom2.5-dp.so.0:_ZN13ColladaDOM15014domFx_setparam11domFloat4x415registerElementER3DAE
libcollada-dom2.5-dp.so.0:_ZN13ColladaDOM15014domFx_setparam11domFloat4x46createER3DAE
libcollada-dom2.5-dp.so.0:_ZN13ColladaDOM15014domFx_setparam15registerElementER3DAE
libcollada-dom2.5-dp.so.0:_ZN13ColladaDOM15014domFx_setparam17domSampler_states15registerElementER3DAE
libcollada-dom2.5-dp.so.0:_ZN13ColladaDOM15014domFx_setparam17domSampler_states6createER3DAE
libcollada-dom2.5-dp.so.0:_ZN13ColladaDOM15014domFx_setparam6createER3DAE
libcollada-dom2.5-dp.so.0:_ZN13ColladaDOM15014domFx_setparam6domInt15registerElementER3DAE
libcollada-dom2.5-dp.so.0:_ZN13ColladaDOM15014domFx_setparam6domInt6createER3DAE
libcollada-dom2.5-dp.so.0:_ZN13ColladaDOM15014domFx_setparam7domBool15registerElementER3DAE
libcollada-dom2.5-dp.so.0:_ZN13ColladaDOM15014domFx_setparam7domBool6createER3DAE
libcollada-dom2.5-dp.so.0:_ZN13ColladaDOM15014domFx_setparam7domEnum15registerElementER3DAE
libcollada-dom2.5-dp.so.0:_ZN13ColladaDOM15014domFx_setparam7domEnum6createER3DAE
libcollada-dom2.5-dp.so.0:_ZN13ColladaDOM15014domFx_setparam7domInt215registerElementER3DAE
libcollada-dom2.5-dp.so.0:_ZN13ColladaDOM15014domFx_setparam7domInt26createER3DAE
libcollada-dom2.5-dp.so.0:_ZN13ColladaDOM15014domFx_setparam7domInt315registerElementER3DAE
libcollada-dom2.5-dp.so.0:_ZN13ColladaDOM15014domFx_setparam7domInt36createER3DAE
libcollada-dom2.5-dp.so.0:_ZN13ColladaDOM15014domFx_setparam7domInt415registerElementER3DAE
libcollada-dom2.5-dp.so.0:_ZN13ColladaDOM15014domFx_setparam7domInt46createER3DAE
libcollada-dom2.5-dp.so.0:_ZN13ColladaDOM15014domFx_setparam8domBool215registerElementER3DAE
libcollada-dom2.5-dp.so.0:_ZN13ColladaDOM15014domFx_setparam8domBool26createER3DAE
libcollada-dom2.5-dp.so.0:_ZN13ColladaDOM15014domFx_setparam8domBool315registerElementER3DAE
libcollada-dom2.5-dp.so.0:_ZN13ColladaDOM15014domFx_setparam8domBool36createER3DAE
libcollada-dom2.5-dp.so.0:_ZN13ColladaDOM15014domFx_setparam8domBool415registerElementER3DAE
libcollada-dom2.5-dp.so.0:_ZN13ColladaDOM15014domFx_setparam8domBool46createER3DAE
libcollada-dom2.5-dp.so.0:_ZN13ColladaDOM15014domFx_setparam8domFloat15registerElementER3DAE
libcollada-dom2.5-dp.so.0:_ZN13ColladaDOM15014domFx_setparam8domFloat6createER3DAE
libcollada-dom2.5-dp.so.0:_ZN13ColladaDOM15014domFx_setparam9domFloat215registerElementER3DAE
libcollada-dom2.5-dp.so.0:_ZN13ColladaDOM15014domFx_setparam9domFloat26createER3DAE
libcollada-dom2.5-dp.so.0:_ZN13ColladaDOM15014domFx_setparam9domFloat315registerElementER3DAE
libcollada-dom2.5-dp.so.0:_ZN13ColladaDOM15014domFx_setparam9domFloat36createER3DAE
libcollada-dom2.5-dp.so.0:_ZN13ColladaDOM15014domFx_setparam9domFloat415registerElementER3DAE
libcollada-dom2.5-dp.so.0:_ZN13ColladaDOM15014domFx_setparam9domFloat46createER3DAE
libcollada-dom2.5-dp.so.0:_ZN13ColladaDOM15014domGles2_value11domUsertype11domSetparam15registerElementER3DAE
libcollada-dom2.5-dp.so.0:_ZN13ColladaDOM15014domGles2_value11domUsertype11domSetparam6createER3DAE
libcollada-dom2.5-dp.so.0:_ZN13ColladaDOM15014domGles2_value11domUsertype15registerElementER3DAE
libcollada-dom2.5-dp.so.0:_ZN13ColladaDOM15014domGles2_value11domUsertype6createER3DAE
libcollada-dom2.5-dp.so.0:_ZN13ColladaDOM15014domGles2_value15registerElementER3DAE
libcollada-dom2.5-dp.so.0:_ZN13ColladaDOM15014domGles2_value6createER3DAE
libcollada-dom2.5-dp.so.0:_ZN13ColladaDOM15014domGles2_value6domInt15registerElementER3DAE
libcollada-dom2.5-dp.so.0:_ZN13ColladaDOM15014domGles2_value6domInt6createER3DAE
libcollada-dom2.5-dp.so.0:_ZN13ColladaDOM15014domGles2_value7domBool15registerElementER3DAE
libcollada-dom2.5-dp.so.0:_ZN13ColladaDOM15014domGles2_value7domBool6createER3DAE
libcollada-dom2.5-dp.so.0:_ZN13ColladaDOM15014domGles2_value7domEnum15registerElementER3DAE
libcollada-dom2.5-dp.so.0:_ZN13ColladaDOM15014domGles2_value7domEnum6createER3DAE
libcollada-dom2.5-dp.so.0:_ZN13ColladaDOM15014domGles2_value7domMat215registerElementER3DAE
libcollada-dom2.5-dp.so.0:_ZN13ColladaDOM15014domGles2_value7domMat26createER3DAE
libcollada-dom2.5-dp.so.0:_ZN13ColladaDOM15014domGles2_value7domMat315registerElementER3DAE
libcollada-dom2.5-dp.so.0:_ZN13ColladaDOM15014domGles2_value7domMat36createER3DAE
libcollada-dom2.5-dp.so.0:_ZN13ColladaDOM15014domGles2_value7domMat415registerElementER3DAE
libcollada-dom2.5-dp.so.0:_ZN13ColladaDOM15014domGles2_value7domMat46createER3DAE
libcollada-dom2.5-dp.so.0:_ZN13ColladaDOM15014domGles2_value7domVec215registerElementER3DAE
libcollada-dom2.5-dp.so.0:_ZN13ColladaDOM15014domGles2_value7domVec26createER3DAE
libcollada-dom2.5-dp.so.0:_ZN13ColladaDOM15014domGles2_value7domVec315registerElementER3DAE
libcollada-dom2.5-dp.so.0:_ZN13ColladaDOM15014domGles2_value7domVec36createER3DAE
libcollada-dom2.5-dp.so.0:_ZN13ColladaDOM15014domGles2_value7domVec415registerElementER3DAE
libcollada-dom2.5-dp.so.0:_ZN13ColladaDOM15014domGles2_value7domVec46createER3DAE
libcollada-dom2.5-dp.so.0:_ZN13ColladaDOM15014domGles2_value8domArray15registerElementER3DAE
libcollada-dom2.5-dp.so.0:_ZN13ColladaDOM15014domGles2_value8domArray6createER3DAE
libcollada-dom2.5-dp.so.0:_ZN13ColladaDOM15014domGles2_value8domBvec215registerElementER3DAE
libcollada-dom2.5-dp.so.0:_ZN13ColladaDOM15014domGles2_value8domBvec26createER3DAE
libcollada-dom2.5-dp.so.0:_ZN13ColladaDOM15014domGles2_value8domBvec315registerElementER3DAE
libcollada-dom2.5-dp.so.0:_ZN13ColladaDOM15014domGles2_value8domBvec36createER3DAE
libcollada-dom2.5-dp.so.0:_ZN13ColladaDOM15014domGles2_value8domBvec415registerElementER3DAE
libcollada-dom2.5-dp.so.0:_ZN13ColladaDOM15014domGles2_value8domBvec46createER3DAE
libcollada-dom2.5-dp.so.0:_ZN13ColladaDOM15014domGles2_value8domFloat15registerElementER3DAE
libcollada-dom2.5-dp.so.0:_ZN13ColladaDOM15014domGles2_value8domFloat6createER3DAE
libcollada-dom2.5-dp.so.0:_ZN13ColladaDOM15014domGles2_value8domIvec215registerElementER3DAE
libcollada-dom2.5-dp.so.0:_ZN13ColladaDOM15014domGles2_value8domIvec26createER3DAE
libcollada-dom2.5-dp.so.0:_ZN13ColladaDOM15014domGles2_value8domIvec315registerElementER3DAE
libcollada-dom2.5-dp.so.0:_ZN13ColladaDOM15014domGles2_value8domIvec36createER3DAE
libcollada-dom2.5-dp.so.0:_ZN13ColladaDOM15014domGles2_value8domIvec415registerElementER3DAE
libcollada-dom2.5-dp.so.0:_ZN13ColladaDOM15014domGles2_value8domIvec46createER3DAE
libcollada-dom2.5-dp.so.0:_ZN13ColladaDOM15014domGlsl_shader15registerElementER3DAE
libcollada-dom2.5-dp.so.0:_ZN13ColladaDOM15014domGlsl_shader6createER3DAE
libcollada-dom2.5-dp.so.0:_ZN13ColladaDOM15014domIdref_array15registerElementER3DAE
libcollada-dom2.5-dp.so.0:_ZN13ColladaDOM15014domIdref_array6createER3DAE
libcollada-dom2.5-dp.so.0:_ZN13ColladaDOM15014domInput_local15registerElementER3DAE
libcollada-dom2.5-dp.so.0:_ZN13ColladaDOM15014domInput_local6createER3DAE
libcollada-dom2.5-dp.so.0:_ZN13ColladaDOM15014domToken_array15registerElementER3DAE
libcollada-dom2.5-dp.so.0:_ZN13ColladaDOM15014domToken_array6createER3DAE
libcollada-dom2.5-dp.so.0:_ZN13ColladaDOM15015COLLADA_TYPE_PHE
libcollada-dom2.5-dp.so.0:_ZN13ColladaDOM15015COLLADA_VERSIONE
libcollada-dom2.5-dp.so.0:_ZN13ColladaDOM15015domCommon_param15registerElementER3DAE
libcollada-dom2.5-dp.so.0:_ZN13ColladaDOM15015domCommon_param6createER3DAE
libcollada-dom2.5-dp.so.0:_ZN13ColladaDOM15015domFx_sampler1D15registerElementER3DAE
libcollada-dom2.5-dp.so.0:_ZN13ColladaDOM15015domFx_sampler1D6createER3DAE
libcollada-dom2.5-dp.so.0:_ZN13ColladaDOM15015domFx_sampler2D15registerElementER3DAE
libcollada-dom2.5-dp.so.0:_ZN13ColladaDOM15015domFx_sampler2D6createER3DAE
libcollada-dom2.5-dp.so.0:_ZN13ColladaDOM15015domFx_sampler3D15registerElementER3DAE
libcollada-dom2.5-dp.so.0:_ZN13ColladaDOM15015domFx_sampler3D6createER3DAE
libcollada-dom2.5-dp.so.0:_ZN13ColladaDOM15015domGles2_shader10domSources15registerElementER3DAE
libcollada-dom2.5-dp.so.0:_ZN13ColladaDOM15015domGles2_shader10domSources6createER3DAE
libcollada-dom2.5-dp.so.0:_ZN13ColladaDOM15015domGles2_shader15registerElementER3DAE
libcollada-dom2.5-dp.so.0:_ZN13ColladaDOM15015domGles2_shader6createER3DAE
libcollada-dom2.5-dp.so.0:_ZN13ColladaDOM15015domGles_sampler11domTexcoord15registerElementER3DAE
libcollada-dom2.5-dp.so.0:_ZN13ColladaDOM15015domGles_sampler11domTexcoord6createER3DAE
libcollada-dom2.5-dp.so.0:_ZN13ColladaDOM15015domGles_sampler15registerElementER3DAE
libcollada-dom2.5-dp.so.0:_ZN13ColladaDOM15015domGles_sampler6createER3DAE
libcollada-dom2.5-dp.so.0:_ZN13ColladaDOM15015domGlsl_program15domBind_uniform15registerElementER3DAE
libcollada-dom2.5-dp.so.0:_ZN13ColladaDOM15015domGlsl_program15domBind_uniform6createER3DAE
libcollada-dom2.5-dp.so.0:_ZN13ColladaDOM15015domGlsl_program15domBind_uniform8domParam15registerElementER3DAE
libcollada-dom2.5-dp.so.0:_ZN13ColladaDOM15015domGlsl_program15domBind_uniform8domParam6createER3DAE
libcollada-dom2.5-dp.so.0:_ZN13ColladaDOM15015domGlsl_program15registerElementER3DAE
libcollada-dom2.5-dp.so.0:_ZN13ColladaDOM15015domGlsl_program17domBind_attribute11domSemantic15registerElementER3DAE
libcollada-dom2.5-dp.so.0:_ZN13ColladaDOM15015domGlsl_program17domBind_attribute11domSemantic6createER3DAE
libcollada-dom2.5-dp.so.0:_ZN13ColladaDOM15015domGlsl_program17domBind_attribute15registerElementER3DAE
libcollada-dom2.5-dp.so.0:_ZN13ColladaDOM15015domGlsl_program17domBind_attribute6createER3DAE
libcollada-dom2.5-dp.so.0:_ZN13ColladaDOM15015domGlsl_program6createER3DAE
libcollada-dom2.5-dp.so.0:_ZN13ColladaDOM15015domImage_source15registerElementER3DAE
libcollada-dom2.5-dp.so.0:_ZN13ColladaDOM15015domImage_source6createER3DAE
libcollada-dom2.5-dp.so.0:_ZN13ColladaDOM15015domImage_source6domHex15registerElementER3DAE
libcollada-dom2.5-dp.so.0:_ZN13ColladaDOM15015domImage_source6domHex6createER3DAE
libcollada-dom2.5-dp.so.0:_ZN13ColladaDOM15015domImage_source6domRef15registerElementER3DAE
libcollada-dom2.5-dp.so.0:_ZN13ColladaDOM15015domImage_source6domRef6createER3DAE
libcollada-dom2.5-dp.so.0:_ZN13ColladaDOM15015domJoint_limits15registerElementER3DAE
libcollada-dom2.5-dp.so.0:_ZN13ColladaDOM15015domJoint_limits6createER3DAE
libcollada-dom2.5-dp.so.0:_ZN13ColladaDOM15015domProfile_gles12domTechnique15registerElementER3DAE
libcollada-dom2.5-dp.so.0:_ZN13ColladaDOM15015domProfile_gles12domTechnique6createER3DAE
libcollada-dom2.5-dp.so.0:_ZN13ColladaDOM15015domProfile_gles12domTechnique7domPass11domEvaluate15registerElementER3DAE
libcollada-dom2.5-dp.so.0:_ZN13ColladaDOM15015domProfile_gles12domTechnique7domPass11domEvaluate6createER3DAE
libcollada-dom2.5-dp.so.0:_ZN13ColladaDOM15015domProfile_gles12domTechnique7domPass11domEvaluate7domDraw15registerElementER3DAE
libcollada-dom2.5-dp.so.0:_ZN13ColladaDOM15015domProfile_gles12domTechnique7domPass11domEvaluate7domDraw6createER3DAE
libcollada-dom2.5-dp.so.0:_ZN13ColladaDOM15015domProfile_gles12domTechnique7domPass15registerElementER3DAE
libcollada-dom2.5-dp.so.0:_ZN13ColladaDOM15015domProfile_gles12domTechnique7domPass6createER3DAE
libcollada-dom2.5-dp.so.0:_ZN13ColladaDOM15015domProfile_gles12domTechnique7domPass9domStates15registerElementER3DAE
libcollada-dom2.5-dp.so.0:_ZN13ColladaDOM15015domProfile_gles12domTechnique7domPass9domStates6createER3DAE
libcollada-dom2.5-dp.so.0:_ZN13ColladaDOM15015domProfile_gles15registerElementER3DAE
libcollada-dom2.5-dp.so.0:_ZN13ColladaDOM15015domProfile_gles6createER3DAE
libcollada-dom2.5-dp.so.0:_ZN13ColladaDOM15015domProfile_glsl12domTechnique15registerElementER3DAE
libcollada-dom2.5-dp.so.0:_ZN13ColladaDOM15015domProfile_glsl12domTechnique6createER3DAE
libcollada-dom2.5-dp.so.0:_ZN13ColladaDOM15015domProfile_glsl12domTechnique7domPass11domEvaluate15registerElementER3DAE
libcollada-dom2.5-dp.so.0:_ZN13ColladaDOM15015domProfile_glsl12domTechnique7domPass11domEvaluate6createER3DAE
libcollada-dom2.5-dp.so.0:_ZN13ColladaDOM15015domProfile_glsl12domTechnique7domPass11domEvaluate7domDraw15registerElementER3DAE
libcollada-dom2.5-dp.so.0:_ZN13ColladaDOM15015domProfile_glsl12domTechnique7domPass11domEvaluate7domDraw6createER3DAE
libcollada-dom2.5-dp.so.0:_ZN13ColladaDOM15015domProfile_glsl12domTechnique7domPass15registerElementER3DAE
libcollada-dom2.5-dp.so.0:_ZN13ColladaDOM15015domProfile_glsl12domTechnique7domPass6createER3DAE
libcollada-dom2.5-dp.so.0:_ZN13ColladaDOM15015domProfile_glsl12domTechnique7domPass9domStates15registerElementER3DAE
libcollada-dom2.5-dp.so.0:_ZN13ColladaDOM15015domProfile_glsl12domTechnique7domPass9domStates6createER3DAE
libcollada-dom2.5-dp.so.0:_ZN13ColladaDOM15015domProfile_glsl15registerElementER3DAE
libcollada-dom2.5-dp.so.0:_ZN13ColladaDOM15015domProfile_glsl6createER3DAE
libcollada-dom2.5-dp.so.0:_ZN13ColladaDOM15015domSidref_array15registerElementER3DAE
libcollada-dom2.5-dp.so.0:_ZN13ColladaDOM15015domSidref_array6createER3DAE
libcollada-dom2.5-dp.so.0:_ZN13ColladaDOM15015domVisual_scene15registerElementER3DAE
libcollada-dom2.5-dp.so.0:_ZN13ColladaDOM15015domVisual_scene17domEvaluate_scene15registerElementER3DAE
libcollada-dom2.5-dp.so.0:_ZN13ColladaDOM15015domVisual_scene17domEvaluate_scene6createER3DAE
libcollada-dom2.5-dp.so.0:_ZN13ColladaDOM15015domVisual_scene17domEvaluate_scene9domRender15registerElementER3DAE
libcollada-dom2.5-dp.so.0:_ZN13ColladaDOM15015domVisual_scene17domEvaluate_scene9domRender20domInstance_material15registerElementER3DAE
libcollada-dom2.5-dp.so.0:_ZN13ColladaDOM15015domVisual_scene17domEvaluate_scene9domRender20domInstance_material21domTechnique_override15registerElementER3DAE
libcollada-dom2.5-dp.so.0:_ZN13ColladaDOM15015domVisual_scene17domEvaluate_scene9domRender20domInstance_material21domTechnique_override6createER3DAE
libcollada-dom2.5-dp.so.0:_ZN13ColladaDOM15015domVisual_scene17domEvaluate_scene9domRender20domInstance_material6createER3DAE
libcollada-dom2.5-dp.so.0:_ZN13ColladaDOM15015domVisual_scene17domEvaluate_scene9domRender20domInstance_material7domBind15registerElementER3DAE
libcollada-dom2.5-dp.so.0:_ZN13ColladaDOM15015domVisual_scene17domEvaluate_scene9domRender20domInstance_material7domBind6createER3DAE
libcollada-dom2.5-dp.so.0:_ZN13ColladaDOM15015domVisual_scene17domEvaluate_scene9domRender6createER3DAE
libcollada-dom2.5-dp.so.0:_ZN13ColladaDOM15015domVisual_scene17domEvaluate_scene9domRender8domLayer15registerElementER3DAE
libcollada-dom2.5-dp.so.0:_ZN13ColladaDOM15015domVisual_scene17domEvaluate_scene9domRender8domLayer6createER3DAE
libcollada-dom2.5-dp.so.0:_ZN13ColladaDOM15015domVisual_scene6createER3DAE
libcollada-dom2.5-dp.so.0:_ZN13ColladaDOM15016COLLADA_TYPE_BOXE
libcollada-dom2.5-dp.so.0:_ZN13ColladaDOM15016COLLADA_TYPE_HEXE
libcollada-dom2.5-dp.so.0:_ZN13ColladaDOM15016COLLADA_TYPE_INTE
libcollada-dom2.5-dp.so.0:_ZN13ColladaDOM15016COLLADA_TYPE_REFE
libcollada-dom2.5-dp.so.0:_ZN13ColladaDOM15016COLLADA_TYPE_RGBE
libcollada-dom2.5-dp.so.0:_ZN13ColladaDOM15016COLLADA_TYPE_SRCE
libcollada-dom2.5-dp.so.0:_ZN13ColladaDOM15016colladaTypeCountEv
libcollada-dom2.5-dp.so.0:_ZN13ColladaDOM15016domBind_material15registerElementER3DAE
libcollada-dom2.5-dp.so.0:_ZN13ColladaDOM15016domBind_material19domTechnique_common15registerElementER3DAE
libcollada-dom2.5-dp.so.0:_ZN13ColladaDOM15016domBind_material19domTechnique_common6createER3DAE
libcollada-dom2.5-dp.so.0:_ZN13ColladaDOM15016domBind_material6createER3DAE
libcollada-dom2.5-dp.so.0:_ZN13ColladaDOM15016domFx_clearcolor15registerElementER3DAE
libcollada-dom2.5-dp.so.0:_ZN13ColladaDOM15016domFx_clearcolor6createER3DAE
libcollada-dom2.5-dp.so.0:_ZN13ColladaDOM15016domFx_cleardepth15registerElementER3DAE
libcollada-dom2.5-dp.so.0:_ZN13ColladaDOM15016domFx_cleardepth6createER3DAE
libcollada-dom2.5-dp.so.0:_ZN13ColladaDOM15016domGles2_program15domBind_uniform15registerElementER3DAE
libcollada-dom2.5-dp.so.0:_ZN13ColladaDOM15016domGles2_program15domBind_uniform6createER3DAE
libcollada-dom2.5-dp.so.0:_ZN13ColladaDOM15016domGles2_program15domBind_uniform8domParam15registerElementER3DAE
libcollada-dom2.5-dp.so.0:_ZN13ColladaDOM15016domGles2_program15domBind_uniform8domParam6createER3DAE
libcollada-dom2.5-dp.so.0:_ZN13ColladaDOM15016domGles2_program15registerElementER3DAE
libcollada-dom2.5-dp.so.0:_ZN13ColladaDOM15016domGles2_program17domBind_attribute11domSemantic15registerElementER3DAE
libcollada-dom2.5-dp.so.0:_ZN13ColladaDOM15016domGles2_program17domBind_attribute11domSemantic6createER3DAE
libcollada-dom2.5-dp.so.0:_ZN13ColladaDOM15016domGles2_program17domBind_attribute15registerElementER3DAE
libcollada-dom2.5-dp.so.0:_ZN13ColladaDOM15016domGles2_program17domBind_attribute6createER3DAE
libcollada-dom2.5-dp.so.0:_ZN13ColladaDOM15016domGles2_program6createER3DAE
libcollada-dom2.5-dp.so.0:_ZN13ColladaDOM15016domGles_newparam11domModifier15registerElementER3DAE
libcollada-dom2.5-dp.so.0:_ZN13ColladaDOM15016domGles_newparam11domModifier6createER3DAE
libcollada-dom2.5-dp.so.0:_ZN13ColladaDOM15016domGles_newparam11domSemantic15registerElementER3DAE
libcollada-dom2.5-dp.so.0:_ZN13ColladaDOM15016domGles_newparam11domSemantic6createER3DAE
libcollada-dom2.5-dp.so.0:_ZN13ColladaDOM15016domGles_newparam15registerElementER3DAE
libcollada-dom2.5-dp.so.0:_ZN13ColladaDOM15016domGles_newparam6createER3DAE
libcollada-dom2.5-dp.so.0:_ZN13ColladaDOM15016domGlsl_newparam11domModifier15registerElementER3DAE
libcollada-dom2.5-dp.so.0:_ZN13ColladaDOM15016domGlsl_newparam11domModifier6createER3DAE
libcollada-dom2.5-dp.so.0:_ZN13ColladaDOM15016domGlsl_newparam11domSemantic15registerElementER3DAE
libcollada-dom2.5-dp.so.0:_ZN13ColladaDOM15016domGlsl_newparam11domSemantic6createER3DAE
libcollada-dom2.5-dp.so.0:_ZN13ColladaDOM15016domGlsl_newparam15registerElementER3DAE
libcollada-dom2.5-dp.so.0:_ZN13ColladaDOM15016domGlsl_newparam6createER3DAE
libcollada-dom2.5-dp.so.0:_ZN13ColladaDOM15016domInstance_node15registerElementER3DAE
libcollada-dom2.5-dp.so.0:_ZN13ColladaDOM15016domInstance_node6createER3DAE
libcollada-dom2.5-dp.so.0:_ZN13ColladaDOM15016domLibrary_nodes15registerElementER3DAE
libcollada-dom2.5-dp.so.0:_ZN13ColladaDOM15016domLibrary_nodes6createER3DAE
libcollada-dom2.5-dp.so.0:_ZN13ColladaDOM15016domNurbs_surface15registerElementER3DAE
libcollada-dom2.5-dp.so.0:_ZN13ColladaDOM15016domNurbs_surface19domControl_vertices15registerElementER3DAE
libcollada-dom2.5-dp.so.0:_ZN13ColladaDOM15016domNurbs_surface19domControl_vertices6createER3DAE
libcollada-dom2.5-dp.so.0:_ZN13ColladaDOM15016domNurbs_surface6createER3DAE
libcollada-dom2.5-dp.so.0:_ZN13ColladaDOM15016domPhysics_model15registerElementER3DAE
libcollada-dom2.5-dp.so.0:_ZN13ColladaDOM15016domPhysics_model6createER3DAE
libcollada-dom2.5-dp.so.0:_ZN13ColladaDOM15016domPhysics_scene15registerElementER3DAE
libcollada-dom2.5-dp.so.0:_ZN13ColladaDOM15016domPhysics_scene19domTechnique_common15registerElementER3DAE
libcollada-dom2.5-dp.so.0:_ZN13ColladaDOM15016domPhysics_scene19domTechnique_common6createER3DAE
libcollada-dom2.5-dp.so.0:_ZN13ColladaDOM15016domPhysics_scene6createER3DAE
libcollada-dom2.5-dp.so.0:_ZN13ColladaDOM15016domProfile_gles211domNewparam15registerElementER3DAE
libcollada-dom2.5-dp.so.0:_ZN13ColladaDOM15016domProfile_gles211domNewparam6createER3DAE
libcollada-dom2.5-dp.so.0:_ZN13ColladaDOM15016domProfile_gles212domTechnique15registerElementER3DAE
libcollada-dom2.5-dp.so.0:_ZN13ColladaDOM15016domProfile_gles212domTechnique6createER3DAE
libcollada-dom2.5-dp.so.0:_ZN13ColladaDOM15016domProfile_gles215registerElementER3DAE
libcollada-dom2.5-dp.so.0:_ZN13ColladaDOM15016domProfile_gles26createER3DAE
libcollada-dom2.5-dp.so.0:_ZN13ColladaDOM15016domSwept_surface12domDirection15registerElementER3DAE
libcollada-dom2.5-dp.so.0:_ZN13ColladaDOM15016domSwept_surface12domDirection6createER3DAE
libcollada-dom2.5-dp.so.0:_ZN13ColladaDOM15016domSwept_surface15registerElementER3DAE
libcollada-dom2.5-dp.so.0:_ZN13ColladaDOM15016domSwept_surface6createER3DAE
libcollada-dom2.5-dp.so.0:_ZN13ColladaDOM15016domSwept_surface7domAxis15registerElementER3DAE
libcollada-dom2.5-dp.so.0:_ZN13ColladaDOM15016domSwept_surface7domAxis6createER3DAE
libcollada-dom2.5-dp.so.0:_ZN13ColladaDOM15016domSwept_surface9domOrigin15registerElementER3DAE
libcollada-dom2.5-dp.so.0:_ZN13ColladaDOM15016domSwept_surface9domOrigin6createER3DAE
libcollada-dom2.5-dp.so.0:_ZN13ColladaDOM15016registerDomTypesER3DAE
libcollada-dom2.5-dp.so.0:_ZN13ColladaDOM15017COLLADA_ELEMENT_HE
libcollada-dom2.5-dp.so.0:_ZN13ColladaDOM15017COLLADA_ELEMENT_PE
libcollada-dom2.5-dp.so.0:_ZN13ColladaDOM15017COLLADA_ELEMENT_VE
libcollada-dom2.5-dp.so.0:_ZN13ColladaDOM15017COLLADA_NAMESPACEE
libcollada-dom2.5-dp.so.0:_ZN13ColladaDOM15017COLLADA_TYPE_AXISE
libcollada-dom2.5-dp.so.0:_ZN13ColladaDOM15017COLLADA_TYPE_BACKE
libcollada-dom2.5-dp.so.0:_ZN13ColladaDOM15017COLLADA_TYPE_BINDE
libcollada-dom2.5-dp.so.0:_ZN13ColladaDOM15017COLLADA_TYPE_BOOLE
libcollada-dom2.5-dp.so.0:_ZN13ColladaDOM15017COLLADA_TYPE_BREPE
libcollada-dom2.5-dp.so.0:_ZN13ColladaDOM15017COLLADA_TYPE_CONEE
libcollada-dom2.5-dp.so.0:_ZN13ColladaDOM15017COLLADA_TYPE_DESTE
libcollada-dom2.5-dp.so.0:_ZN13ColladaDOM15017COLLADA_TYPE_DRAWE
libcollada-dom2.5-dp.so.0:_ZN13ColladaDOM15017COLLADA_TYPE_ENUME
libcollada-dom2.5-dp.so.0:_ZN13ColladaDOM15017COLLADA_TYPE_FACEE
libcollada-dom2.5-dp.so.0:_ZN13ColladaDOM15017COLLADA_TYPE_FAILE
libcollada-dom2.5-dp.so.0:_ZN13ColladaDOM15017COLLADA_TYPE_FUNCE
libcollada-dom2.5-dp.so.0:_ZN13ColladaDOM15017COLLADA_TYPE_HALFE
libcollada-dom2.5-dp.so.0:_ZN13ColladaDOM15017COLLADA_TYPE_HINTE
libcollada-dom2.5-dp.so.0:_ZN13ColladaDOM15017COLLADA_TYPE_INT2E
libcollada-dom2.5-dp.so.0:_ZN13ColladaDOM15017COLLADA_TYPE_INT3E
libcollada-dom2.5-dp.so.0:_ZN13ColladaDOM15017COLLADA_TYPE_INT4E
libcollada-dom2.5-dp.so.0:_ZN13ColladaDOM15017COLLADA_TYPE_LINEE
libcollada-dom2.5-dp.so.0:_ZN13ColladaDOM15017COLLADA_TYPE_LINKE
libcollada-dom2.5-dp.so.0:_ZN13ColladaDOM15017COLLADA_TYPE_MASKE
libcollada-dom2.5-dp.so.0:_ZN13ColladaDOM15017COLLADA_TYPE_MAT2E
libcollada-dom2.5-dp.so.0:_ZN13ColladaDOM15017COLLADA_TYPE_MAT3E
libcollada-dom2.5-dp.so.0:_ZN13ColladaDOM15017COLLADA_TYPE_MAT4E
libcollada-dom2.5-dp.so.0:_ZN13ColladaDOM15017COLLADA_TYPE_MESHE
libcollada-dom2.5-dp.so.0:_ZN13ColladaDOM15017COLLADA_TYPE_MODEE
libcollada-dom2.5-dp.so.0:_ZN13ColladaDOM15017COLLADA_TYPE_NODEE
libcollada-dom2.5-dp.so.0:_ZN13ColladaDOM15017COLLADA_TYPE_PASSE
libcollada-dom2.5-dp.so.0:_ZN13ColladaDOM15017COLLADA_TYPE_SIZEE
libcollada-dom2.5-dp.so.0:_ZN13ColladaDOM15017COLLADA_TYPE_SKEWE
libcollada-dom2.5-dp.so.0:_ZN13ColladaDOM15017COLLADA_TYPE_SKINE
libcollada-dom2.5-dp.so.0:_ZN13ColladaDOM15017COLLADA_TYPE_SPOTE
libcollada-dom2.5-dp.so.0:_ZN13ColladaDOM15017COLLADA_TYPE_UNITE
libcollada-dom2.5-dp.so.0:_ZN13ColladaDOM15017COLLADA_TYPE_VEC2E
libcollada-dom2.5-dp.so.0:_ZN13ColladaDOM15017COLLADA_TYPE_VEC3E
libcollada-dom2.5-dp.so.0:_ZN13ColladaDOM15017COLLADA_TYPE_VEC4E
libcollada-dom2.5-dp.so.0:_ZN13ColladaDOM15017domAnimation_clip15registerElementER3DAE
libcollada-dom2.5-dp.so.0:_ZN13ColladaDOM15017domAnimation_clip6createER3DAE
libcollada-dom2.5-dp.so.0:_ZN13ColladaDOM15017domFx_colortarget15registerElementER3DAE
libcollada-dom2.5-dp.so.0:_ZN13ColladaDOM15017domFx_colortarget6createER3DAE
libcollada-dom2.5-dp.so.0:_ZN13ColladaDOM15017domFx_depthtarget15registerElementER3DAE
libcollada-dom2.5-dp.so.0:_ZN13ColladaDOM15017domFx_depthtarget6createER3DAE
libcollada-dom2.5-dp.so.0:_ZN13ColladaDOM15017domFx_samplerCUBE15registerElementER3DAE
libcollada-dom2.5-dp.so.0:_ZN13ColladaDOM15017domFx_samplerCUBE6createER3DAE
libcollada-dom2.5-dp.so.0:_ZN13ColladaDOM15017domFx_samplerRECT15registerElementER3DAE
libcollada-dom2.5-dp.so.0:_ZN13ColladaDOM15017domFx_samplerRECT6createER3DAE
libcollada-dom2.5-dp.so.0:_ZN13ColladaDOM15017domGles2_newparam11domModifier15registerElementER3DAE
libcollada-dom2.5-dp.so.0:_ZN13ColladaDOM15017domGles2_newparam11domModifier6createER3DAE
libcollada-dom2.5-dp.so.0:_ZN13ColladaDOM15017domGles2_newparam11domSemantic15registerElementER3DAE
libcollada-dom2.5-dp.so.0:_ZN13ColladaDOM15017domGles2_newparam11domSemantic6createER3DAE
libcollada-dom2.5-dp.so.0:_ZN13ColladaDOM15017domGles2_newparam15registerElementER3DAE
libcollada-dom2.5-dp.so.0:_ZN13ColladaDOM15017domGles2_newparam6createER3DAE
libcollada-dom2.5-dp.so.0:_ZN13ColladaDOM15017domInstance_image15registerElementER3DAE
libcollada-dom2.5-dp.so.0:_ZN13ColladaDOM15017domInstance_image6createER3DAE
libcollada-dom2.5-dp.so.0:_ZN13ColladaDOM15017domInstance_joint15registerElementER3DAE
libcollada-dom2.5-dp.so.0:_ZN13ColladaDOM15017domInstance_joint6createER3DAE
libcollada-dom2.5-dp.so.0:_ZN13ColladaDOM15017domInstance_light15registerElementER3DAE
libcollada-dom2.5-dp.so.0:_ZN13ColladaDOM15017domInstance_light6createER3DAE
libcollada-dom2.5-dp.so.0:_ZN13ColladaDOM15017domLibrary_images15registerElementER3DAE
libcollada-dom2.5-dp.so.0:_ZN13ColladaDOM15017domLibrary_images6createER3DAE
libcollada-dom2.5-dp.so.0:_ZN13ColladaDOM15017domLibrary_joints15registerElementER3DAE
libcollada-dom2.5-dp.so.0:_ZN13ColladaDOM15017domLibrary_joints6createER3DAE
libcollada-dom2.5-dp.so.0:_ZN13ColladaDOM15017domLibrary_lights15registerElementER3DAE
libcollada-dom2.5-dp.so.0:_ZN13ColladaDOM15017domLibrary_lights6createER3DAE
libcollada-dom2.5-dp.so.0:_ZN13ColladaDOM15017domProfile_bridge15registerElementER3DAE
libcollada-dom2.5-dp.so.0:_ZN13ColladaDOM15017domProfile_bridge6createER3DAE
libcollada-dom2.5-dp.so.0:_ZN13ColladaDOM15017domProfile_common12domTechnique10domLambert15registerElementER3DAE
libcollada-dom2.5-dp.so.0:_ZN13ColladaDOM15017domProfile_common12domTechnique10domLambert6createER3DAE
libcollada-dom2.5-dp.so.0:_ZN13ColladaDOM15017domProfile_common12domTechnique11domConstant15registerElementER3DAE
libcollada-dom2.5-dp.so.0:_ZN13ColladaDOM15017domProfile_common12domTechnique11domConstant6createER3DAE
libcollada-dom2.5-dp.so.0:_ZN13ColladaDOM15017domProfile_common12domTechnique15registerElementER3DAE
libcollada-dom2.5-dp.so.0:_ZN13ColladaDOM15017domProfile_common12domTechnique6createER3DAE
libcollada-dom2.5-dp.so.0:_ZN13ColladaDOM15017domProfile_common12domTechnique8domBlinn15registerElementER3DAE
libcollada-dom2.5-dp.so.0:_ZN13ColladaDOM15017domProfile_common12domTechnique8domBlinn6createER3DAE
libcollada-dom2.5-dp.so.0:_ZN13ColladaDOM15017domProfile_common12domTechnique8domPhong15registerElementER3DAE
libcollada-dom2.5-dp.so.0:_ZN13ColladaDOM15017domProfile_common12domTechnique8domPhong6createER3DAE
libcollada-dom2.5-dp.so.0:_ZN13ColladaDOM15017domProfile_common15registerElementER3DAE
libcollada-dom2.5-dp.so.0:_ZN13ColladaDOM15017domProfile_common6createER3DAE
libcollada-dom2.5-dp.so.0:_ZN13ColladaDOM15017domSurface_curves15registerElementER3DAE
libcollada-dom2.5-dp.so.0:_ZN13ColladaDOM15017domSurface_curves6createER3DAE
libcollada-dom2.5-dp.so.0:_ZN13ColladaDOM15018COLLADA_ELEMENT_PHE
libcollada-dom2.5-dp.so.0:_ZN13ColladaDOM15018COLLADA_TYPE_ALPHAE
libcollada-dom2.5-dp.so.0:_ZN13ColladaDOM15018COLLADA_TYPE_ANGLEE
libcollada-dom2.5-dp.so.0:_ZN13ColladaDOM15018COLLADA_TYPE_ARRAYE
libcollada-dom2.5-dp.so.0:_ZN13ColladaDOM15018COLLADA_TYPE_ASSETE
libcollada-dom2.5-dp.so.0:_ZN13ColladaDOM15018COLLADA_TYPE_BLINNE
libcollada-dom2.5-dp.so.0:_ZN13ColladaDOM15018COLLADA_TYPE_BOOL2E
libcollada-dom2.5-dp.so.0:_ZN13ColladaDOM15018COLLADA_TYPE_BOOL3E
libcollada-dom2.5-dp.so.0:_ZN13ColladaDOM15018COLLADA_TYPE_BOOL4E
libcollada-dom2.5-dp.so.0:_ZN13ColladaDOM15018COLLADA_TYPE_BVEC2E
libcollada-dom2.5-dp.so.0:_ZN13ColladaDOM15018COLLADA_TYPE_BVEC3E
libcollada-dom2.5-dp.so.0:_ZN13ColladaDOM15018COLLADA_TYPE_BVEC4E
libcollada-dom2.5-dp.so.0:_ZN13ColladaDOM15018COLLADA_TYPE_COLORE
libcollada-dom2.5-dp.so.0:_ZN13ColladaDOM15018COLLADA_TYPE_CURVEE
libcollada-dom2.5-dp.so.0:_ZN13ColladaDOM15018COLLADA_TYPE_EDGESE
libcollada-dom2.5-dp.so.0:_ZN13ColladaDOM15018COLLADA_TYPE_EXACTE
libcollada-dom2.5-dp.so.0:_ZN13ColladaDOM15018COLLADA_TYPE_EXTRAE
libcollada-dom2.5-dp.so.0:_ZN13ColladaDOM15018COLLADA_TYPE_FACESE
libcollada-dom2.5-dp.so.0:_ZN13ColladaDOM15018COLLADA_TYPE_FIXEDE
libcollada-dom2.5-dp.so.0:_ZN13ColladaDOM15018COLLADA_TYPE_FLOATE
libcollada-dom2.5-dp.so.0:_ZN13ColladaDOM15018COLLADA_TYPE_FOCALE
libcollada-dom2.5-dp.so.0:_ZN13ColladaDOM15018COLLADA_TYPE_FRONTE
libcollada-dom2.5-dp.so.0:_ZN13ColladaDOM15018COLLADA_TYPE_HALF2E
libcollada-dom2.5-dp.so.0:_ZN13ColladaDOM15018COLLADA_TYPE_HALF3E
libcollada-dom2.5-dp.so.0:_ZN13ColladaDOM15018COLLADA_TYPE_HALF4E
libcollada-dom2.5-dp.so.0:_ZN13ColladaDOM15018COLLADA_TYPE_IMAGEE
libcollada-dom2.5-dp.so.0:_ZN13ColladaDOM15018COLLADA_TYPE_IVEC2E
libcollada-dom2.5-dp.so.0:_ZN13ColladaDOM15018COLLADA_TYPE_IVEC3E
libcollada-dom2.5-dp.so.0:_ZN13ColladaDOM15018COLLADA_TYPE_IVEC4E
libcollada-dom2.5-dp.so.0:_ZN13ColladaDOM15018COLLADA_TYPE_JOINTE
libcollada-dom2.5-dp.so.0:_ZN13ColladaDOM15018COLLADA_TYPE_LAYERE
libcollada-dom2.5-dp.so.0:_ZN13ColladaDOM15018COLLADA_TYPE_LIGHTE
libcollada-dom2.5-dp.so.0:_ZN13ColladaDOM15018COLLADA_TYPE_LINESE
libcollada-dom2.5-dp.so.0:_ZN13ColladaDOM15018COLLADA_TYPE_MORPHE
libcollada-dom2.5-dp.so.0:_ZN13ColladaDOM15018COLLADA_TYPE_NURBSE
libcollada-dom2.5-dp.so.0:_ZN13ColladaDOM15018COLLADA_TYPE_PARAME
libcollada-dom2.5-dp.so.0:_ZN13ColladaDOM15018COLLADA_TYPE_PHONGE
libcollada-dom2.5-dp.so.0:_ZN13ColladaDOM15018COLLADA_TYPE_PLANEE
libcollada-dom2.5-dp.so.0:_ZN13ColladaDOM15018COLLADA_TYPE_POINTE
libcollada-dom2.5-dp.so.0:_ZN13ColladaDOM15018COLLADA_TYPE_SCALEE
libcollada-dom2.5-dp.so.0:_ZN13ColladaDOM15018COLLADA_TYPE_SCENEE
libcollada-dom2.5-dp.so.0:_ZN13ColladaDOM15018COLLADA_TYPE_SHAPEE
libcollada-dom2.5-dp.so.0:_ZN13ColladaDOM15018COLLADA_TYPE_TITLEE
libcollada-dom2.5-dp.so.0:_ZN13ColladaDOM15018COLLADA_TYPE_TORUSE
libcollada-dom2.5-dp.so.0:_ZN13ColladaDOM15018COLLADA_TYPE_VALUEE
libcollada-dom2.5-dp.so.0:_ZN13ColladaDOM15018COLLADA_TYPE_WIRESE
libcollada-dom2.5-dp.so.0:_ZN13ColladaDOM15018COLLADA_TYPE_ZFAILE
libcollada-dom2.5-dp.so.0:_ZN13ColladaDOM15018COLLADA_TYPE_ZPASSE
libcollada-dom2.5-dp.so.0:_ZN13ColladaDOM15018domAxis_constraint15registerElementER3DAE
libcollada-dom2.5-dp.so.0:_ZN13ColladaDOM15018domAxis_constraint6createER3DAE
libcollada-dom2.5-dp.so.0:_ZN13ColladaDOM15018domBind_joint_axis15registerElementER3DAE
libcollada-dom2.5-dp.so.0:_ZN13ColladaDOM15018domBind_joint_axis6createER3DAE
libcollada-dom2.5-dp.so.0:_ZN13ColladaDOM15018domFx_clearstencil15registerElementER3DAE
libcollada-dom2.5-dp.so.0:_ZN13ColladaDOM15018domFx_clearstencil6createER3DAE
libcollada-dom2.5-dp.so.0:_ZN13ColladaDOM15018domFx_rendertarget15registerElementER3DAE
libcollada-dom2.5-dp.so.0:_ZN13ColladaDOM15018domFx_rendertarget6createER3DAE
libcollada-dom2.5-dp.so.0:_ZN13ColladaDOM15018domFx_rendertarget8domParam15registerElementER3DAE
libcollada-dom2.5-dp.so.0:_ZN13ColladaDOM15018domFx_rendertarget8domParam6createER3DAE
libcollada-dom2.5-dp.so.0:_ZN13ColladaDOM15018domFx_samplerDEPTH15registerElementER3DAE
libcollada-dom2.5-dp.so.0:_ZN13ColladaDOM15018domFx_samplerDEPTH6createER3DAE
libcollada-dom2.5-dp.so.0:_ZN13ColladaDOM15018domInstance_camera15registerElementER3DAE
libcollada-dom2.5-dp.so.0:_ZN13ColladaDOM15018domInstance_camera6createER3DAE
libcollada-dom2.5-dp.so.0:_ZN13ColladaDOM15018domInstance_effect11domSetparam15registerElementER3DAE
libcollada-dom2.5-dp.so.0:_ZN13ColladaDOM15018domInstance_effect11domSetparam6createER3DAE
libcollada-dom2.5-dp.so.0:_ZN13ColladaDOM15018domInstance_effect15registerElementER3DAE
libcollada-dom2.5-dp.so.0:_ZN13ColladaDOM15018domInstance_effect17domTechnique_hint15registerElementER3DAE
libcollada-dom2.5-dp.so.0:_ZN13ColladaDOM15018domInstance_effect17domTechnique_hint6createER3DAE
libcollada-dom2.5-dp.so.0:_ZN13ColladaDOM15018domInstance_effect6createER3DAE
libcollada-dom2.5-dp.so.0:_ZN13ColladaDOM15018domKinematics_bind15registerElementER3DAE
libcollada-dom2.5-dp.so.0:_ZN13ColladaDOM15018domKinematics_bind6createER3DAE
libcollada-dom2.5-dp.so.0:_ZN13ColladaDOM15018domKinematics_bind6domInt15registerElementER3DAE
libcollada-dom2.5-dp.so.0:_ZN13ColladaDOM15018domKinematics_bind6domInt6createER3DAE
libcollada-dom2.5-dp.so.0:_ZN13ColladaDOM15018domKinematics_bind7domBool15registerElementER3DAE
libcollada-dom2.5-dp.so.0:_ZN13ColladaDOM15018domKinematics_bind7domBool6createER3DAE
libcollada-dom2.5-dp.so.0:_ZN13ColladaDOM15018domKinematics_bind8domFloat15registerElementER3DAE
libcollada-dom2.5-dp.so.0:_ZN13ColladaDOM15018domKinematics_bind8domFloat6createER3DAE
libcollada-dom2.5-dp.so.0:_ZN13ColladaDOM15018domKinematics_bind9domSIDREF15registerElementER3DAE
libcollada-dom2.5-dp.so.0:_ZN13ColladaDOM15018domKinematics_bind9domSIDREF6createER3DAE
libcollada-dom2.5-dp.so.0:_ZN13ColladaDOM15018domLibrary_cameras15registerElementER3DAE
libcollada-dom2.5-dp.so.0:_ZN13ColladaDOM15018domLibrary_cameras6createER3DAE
libcollada-dom2.5-dp.so.0:_ZN13ColladaDOM15018domLibrary_effects15registerElementER3DAE
libcollada-dom2.5-dp.so.0:_ZN13ColladaDOM15018domLibrary_effects6createER3DAE
libcollada-dom2.5-dp.so.0:_ZN13ColladaDOM15019COLLADA_ELEMENT_BOXE
libcollada-dom2.5-dp.so.0:_ZN13ColladaDOM15019COLLADA_ELEMENT_HEXE
libcollada-dom2.5-dp.so.0:_ZN13ColladaDOM15019COLLADA_ELEMENT_INTE
libcollada-dom2.5-dp.so.0:_ZN13ColladaDOM15019COLLADA_ELEMENT_MAXE
libcollada-dom2.5-dp.so.0:_ZN13ColladaDOM15019COLLADA_ELEMENT_MINE
libcollada-dom2.5-dp.so.0:_ZN13ColladaDOM15019COLLADA_ELEMENT_REFE
libcollada-dom2.5-dp.so.0:_ZN13ColladaDOM15019COLLADA_ELEMENT_RGBE
libcollada-dom2.5-dp.so.0:_ZN13ColladaDOM15019COLLADA_ELEMENT_SRCE
libcollada-dom2.5-dp.so.0:_ZN13ColladaDOM15019COLLADA_ELEMENT_rgbE
libcollada-dom2.5-dp.so.0:_ZN13ColladaDOM15019COLLADA_TYPE_AUTHORE
libcollada-dom2.5-dp.so.0:_ZN13ColladaDOM15019COLLADA_TYPE_BINARYE
libcollada-dom2.5-dp.so.0:_ZN13ColladaDOM15019COLLADA_TYPE_CAMERAE
libcollada-dom2.5-dp.so.0:_ZN13ColladaDOM15019COLLADA_TYPE_CIRCLEE
libcollada-dom2.5-dp.so.0:_ZN13ColladaDOM15019COLLADA_TYPE_CURVESE
libcollada-dom2.5-dp.so.0:_ZN13ColladaDOM15019COLLADA_TYPE_EFFECTE
libcollada-dom2.5-dp.so.0:_ZN13ColladaDOM15019COLLADA_TYPE_FIXED2E
libcollada-dom2.5-dp.so.0:_ZN13ColladaDOM15019COLLADA_TYPE_FIXED3E
libcollada-dom2.5-dp.so.0:_ZN13ColladaDOM15019COLLADA_TYPE_FIXED4E
libcollada-dom2.5-dp.so.0:_ZN13ColladaDOM15019COLLADA_TYPE_FLOAT2E
libcollada-dom2.5-dp.so.0:_ZN13ColladaDOM15019COLLADA_TYPE_FLOAT3E
libcollada-dom2.5-dp.so.0:_ZN13ColladaDOM15019COLLADA_TYPE_FLOAT4E
libcollada-dom2.5-dp.so.0:_ZN13ColladaDOM15019COLLADA_TYPE_FORMATE
libcollada-dom2.5-dp.so.0:_ZN13ColladaDOM15019COLLADA_TYPE_HEIGHTE
libcollada-dom2.5-dp.so.0:_ZN13ColladaDOM15019COLLADA_TYPE_HOLLOWE
libcollada-dom2.5-dp.so.0:_ZN13ColladaDOM15019COLLADA_TYPE_IMAGERE
libcollada-dom2.5-dp.so.0:_ZN13ColladaDOM15019COLLADA_TYPE_IMPORTE
libcollada-dom2.5-dp.so.0:_ZN13ColladaDOM15019COLLADA_TYPE_INLINEE
libcollada-dom2.5-dp.so.0:_ZN13ColladaDOM15019COLLADA_TYPE_INT2X1E
libcollada-dom2.5-dp.so.0:_ZN13ColladaDOM15019COLLADA_TYPE_INT2X2E
libcollada-dom2.5-dp.so.0:_ZN13ColladaDOM15019COLLADA_TYPE_INT2X3E
libcollada-dom2.5-dp.so.0:_ZN13ColladaDOM15019COLLADA_TYPE_INT2X4E
libcollada-dom2.5-dp.so.0:_ZN13ColladaDOM15019COLLADA_TYPE_INT3X1E
libcollada-dom2.5-dp.so.0:_ZN13ColladaDOM15019COLLADA_TYPE_INT3X2E
libcollada-dom2.5-dp.so.0:_ZN13ColladaDOM15019COLLADA_TYPE_INT3X3E
libcollada-dom2.5-dp.so.0:_ZN13ColladaDOM15019COLLADA_TYPE_INT3X4E
libcollada-dom2.5-dp.so.0:_ZN13ColladaDOM15019COLLADA_TYPE_INT4X1E
libcollada-dom2.5-dp.so.0:_ZN13ColladaDOM15019COLLADA_TYPE_INT4X2E
libcollada-dom2.5-dp.so.0:_ZN13ColladaDOM15019COLLADA_TYPE_INT4X3E
libcollada-dom2.5-dp.so.0:_ZN13ColladaDOM15019COLLADA_TYPE_INT4X4E
libcollada-dom2.5-dp.so.0:_ZN13ColladaDOM15019COLLADA_TYPE_INVERTE
libcollada-dom2.5-dp.so.0:_ZN13ColladaDOM15019COLLADA_TYPE_JOINTSE
libcollada-dom2.5-dp.so.0:_ZN13ColladaDOM15019COLLADA_TYPE_LIMITSE
libcollada-dom2.5-dp.so.0:_ZN13ColladaDOM15019COLLADA_TYPE_LINEARE
libcollada-dom2.5-dp.so.0:_ZN13ColladaDOM15019COLLADA_TYPE_LOOKATE
libcollada-dom2.5-dp.so.0:_ZN13ColladaDOM15019COLLADA_TYPE_MATRIXE
libcollada-dom2.5-dp.so.0:_ZN13ColladaDOM15019COLLADA_TYPE_MINMAXE
libcollada-dom2.5-dp.so.0:_ZN13ColladaDOM15019COLLADA_TYPE_MOTIONE
libcollada-dom2.5-dp.so.0:_ZN13ColladaDOM15019COLLADA_TYPE_OPTICSE
libcollada-dom2.5-dp.so.0:_ZN13ColladaDOM15019COLLADA_TYPE_ORIENTE
libcollada-dom2.5-dp.so.0:_ZN13ColladaDOM15019COLLADA_TYPE_ORIGINE
libcollada-dom2.5-dp.so.0:_ZN13ColladaDOM15019COLLADA_TYPE_RADIUSE
libcollada-dom2.5-dp.so.0:_ZN13ColladaDOM15019COLLADA_TYPE_RENDERE
libcollada-dom2.5-dp.so.0:_ZN13ColladaDOM15019COLLADA_TYPE_ROTATEE
libcollada-dom2.5-dp.so.0:_ZN13ColladaDOM15019COLLADA_TYPE_SHADERE
libcollada-dom2.5-dp.so.0:_ZN13ColladaDOM15019COLLADA_TYPE_SHELLSE
libcollada-dom2.5-dp.so.0:_ZN13ColladaDOM15019COLLADA_TYPE_SIDREFE
libcollada-dom2.5-dp.so.0:_ZN13ColladaDOM15019COLLADA_TYPE_SOLIDSE
libcollada-dom2.5-dp.so.0:_ZN13ColladaDOM15019COLLADA_TYPE_SOURCEE
libcollada-dom2.5-dp.so.0:_ZN13ColladaDOM15019COLLADA_TYPE_SPHEREE
libcollada-dom2.5-dp.so.0:_ZN13ColladaDOM15019COLLADA_TYPE_SPLINEE
libcollada-dom2.5-dp.so.0:_ZN13ColladaDOM15019COLLADA_TYPE_SPRINGE
libcollada-dom2.5-dp.so.0:_ZN13ColladaDOM15019COLLADA_TYPE_STATESE
libcollada-dom2.5-dp.so.0:_ZN13ColladaDOM15019COLLADA_TYPE_STRINGE
libcollada-dom2.5-dp.so.0:_ZN13ColladaDOM15019COLLADA_TYPE_VCOUNTE
libcollada-dom2.5-dp.so.0:_ZN13ColladaDOM15019COLLADA_TYPE_WRAP_PE
libcollada-dom2.5-dp.so.0:_ZN13ColladaDOM15019COLLADA_TYPE_WRAP_SE
libcollada-dom2.5-dp.so.0:_ZN13ColladaDOM15019COLLADA_TYPE_WRAP_TE
libcollada-dom2.5-dp.so.0:_ZN13ColladaDOM15019domFormula_newparam15registerElementER3DAE
libcollada-dom2.5-dp.so.0:_ZN13ColladaDOM15019domFormula_newparam6createER3DAE
libcollada-dom2.5-dp.so.0:_ZN13ColladaDOM15019domFormula_newparam6domInt15registerElementER3DAE
libcollada-dom2.5-dp.so.0:_ZN13ColladaDOM15019domFormula_newparam6domInt6createER3DAE
libcollada-dom2.5-dp.so.0:_ZN13ColladaDOM15019domFormula_newparam7domBool15registerElementER3DAE
libcollada-dom2.5-dp.so.0:_ZN13ColladaDOM15019domFormula_newparam7domBool6createER3DAE
libcollada-dom2.5-dp.so.0:_ZN13ColladaDOM15019domFormula_newparam8domFloat15registerElementER3DAE
libcollada-dom2.5-dp.so.0:_ZN13ColladaDOM15019domFormula_newparam8domFloat6createER3DAE
libcollada-dom2.5-dp.so.0:_ZN13ColladaDOM15019domFormula_newparam9domSIDREF15registerElementER3DAE
libcollada-dom2.5-dp.so.0:_ZN13ColladaDOM15019domFormula_newparam9domSIDREF6createER3DAE
libcollada-dom2.5-dp.so.0:_ZN13ColladaDOM15019domFormula_setparam15registerElementER3DAE
libcollada-dom2.5-dp.so.0:_ZN13ColladaDOM15019domFormula_setparam6createER3DAE
libcollada-dom2.5-dp.so.0:_ZN13ColladaDOM15019domFormula_setparam6domInt15registerElementER3DAE
libcollada-dom2.5-dp.so.0:_ZN13ColladaDOM15019domFormula_setparam6domInt6createER3DAE
libcollada-dom2.5-dp.so.0:_ZN13ColladaDOM15019domFormula_setparam7domBool15registerElementER3DAE
libcollada-dom2.5-dp.so.0:_ZN13ColladaDOM15019domFormula_setparam7domBool6createER3DAE
libcollada-dom2.5-dp.so.0:_ZN13ColladaDOM15019domFormula_setparam8domFloat15registerElementER3DAE
libcollada-dom2.5-dp.so.0:_ZN13ColladaDOM15019domFormula_setparam8domFloat6createER3DAE
libcollada-dom2.5-dp.so.0:_ZN13ColladaDOM15019domFormula_setparam9domSIDREF15registerElementER3DAE
libcollada-dom2.5-dp.so.0:_ZN13ColladaDOM15019domFormula_setparam9domSIDREF6createER3DAE
libcollada-dom2.5-dp.so.0:_ZN13ColladaDOM15019domFx_stenciltarget15registerElementER3DAE
libcollada-dom2.5-dp.so.0:_ZN13ColladaDOM15019domFx_stenciltarget6createER3DAE
libcollada-dom2.5-dp.so.0:_ZN13ColladaDOM15019domInstance_formula15registerElementER3DAE
libcollada-dom2.5-dp.so.0:_ZN13ColladaDOM15019domInstance_formula6createER3DAE
libcollada-dom2.5-dp.so.0:_ZN13ColladaDOM15019domKinematics_frame15registerElementER3DAE
libcollada-dom2.5-dp.so.0:_ZN13ColladaDOM15019domKinematics_frame6createER3DAE
libcollada-dom2.5-dp.so.0:_ZN13ColladaDOM15019domKinematics_index15registerElementER3DAE
libcollada-dom2.5-dp.so.0:_ZN13ColladaDOM15019domKinematics_index6createER3DAE
libcollada-dom2.5-dp.so.0:_ZN13ColladaDOM15019domKinematics_model15registerElementER3DAE
libcollada-dom2.5-dp.so.0:_ZN13ColladaDOM15019domKinematics_model6createER3DAE
libcollada-dom2.5-dp.so.0:_ZN13ColladaDOM15019domKinematics_param15registerElementER3DAE
libcollada-dom2.5-dp.so.0:_ZN13ColladaDOM15019domKinematics_param6createER3DAE
libcollada-dom2.5-dp.so.0:_ZN13ColladaDOM15019domKinematics_scene15registerElementER3DAE
libcollada-dom2.5-dp.so.0:_ZN13ColladaDOM15019domKinematics_scene6createER3DAE
libcollada-dom2.5-dp.so.0:_ZN13ColladaDOM15019domLibrary_formulas15registerElementER3DAE
libcollada-dom2.5-dp.so.0:_ZN13ColladaDOM15019domLibrary_formulas6createER3DAE
libcollada-dom2.5-dp.so.0:_ZN13ColladaDOM15019domMotion_axis_info15registerElementER3DAE
libcollada-dom2.5-dp.so.0:_ZN13ColladaDOM15019domMotion_axis_info6createER3DAE
libcollada-dom2.5-dp.so.0:_ZN13ColladaDOM15019domMotion_technique15registerElementER3DAE
libcollada-dom2.5-dp.so.0:_ZN13ColladaDOM15019domMotion_technique6createER3DAE
libcollada-dom2.5-dp.so.0:_ZN13ColladaDOM15019domPhysics_material15registerElementER3DAE
libcollada-dom2.5-dp.so.0:_ZN13ColladaDOM15019domPhysics_material19domTechnique_common15registerElementER3DAE
libcollada-dom2.5-dp.so.0:_ZN13ColladaDOM15019domPhysics_material19domTechnique_common6createER3DAE
libcollada-dom2.5-dp.so.0:_ZN13ColladaDOM15019domPhysics_material6createER3DAE
libcollada-dom2.5-dp.so.0:_ZN13ColladaDOM15019domRigid_constraint13domAttachment15registerElementER3DAE
libcollada-dom2.5-dp.so.0:_ZN13ColladaDOM15019domRigid_constraint13domAttachment6createER3DAE
libcollada-dom2.5-dp.so.0:_ZN13ColladaDOM15019domRigid_constraint15registerElementER3DAE
libcollada-dom2.5-dp.so.0:_ZN13ColladaDOM15019domRigid_constraint17domRef_attachment15registerElementER3DAE
libcollada-dom2.5-dp.so.0:_ZN13ColladaDOM15019domRigid_constraint17domRef_attachment6createER3DAE
libcollada-dom2.5-dp.so.0:_ZN13ColladaDOM15019domRigid_constraint19domTechnique_common10domEnabled15registerElementER3DAE
libcollada-dom2.5-dp.so.0:_ZN13ColladaDOM15019domRigid_constraint19domTechnique_common10domEnabled6createER3DAE
libcollada-dom2.5-dp.so.0:_ZN13ColladaDOM15019domRigid_constraint19domTechnique_common15registerElementER3DAE
libcollada-dom2.5-dp.so.0:_ZN13ColladaDOM15019domRigid_constraint19domTechnique_common17domInterpenetrate15registerElementER3DAE
libcollada-dom2.5-dp.so.0:_ZN13ColladaDOM15019domRigid_constraint19domTechnique_common17domInterpenetrate6createER3DAE
libcollada-dom2.5-dp.so.0:_ZN13ColladaDOM15019domRigid_constraint19domTechnique_common6createER3DAE
libcollada-dom2.5-dp.so.0:_ZN13ColladaDOM15019domRigid_constraint19domTechnique_common9domLimits15registerElementER3DAE
libcollada-dom2.5-dp.so.0:_ZN13ColladaDOM15019domRigid_constraint19domTechnique_common9domLimits23domSwing_cone_and_twist15registerElementER3DAE
libcollada-dom2.5-dp.so.0:_ZN13ColladaDOM15019domRigid_constraint19domTechnique_common9domLimits23domSwing_cone_and_twist6createER3DAE
libcollada-dom2.5-dp.so.0:_ZN13ColladaDOM15019domRigid_constraint19domTechnique_common9domLimits6createER3DAE
libcollada-dom2.5-dp.so.0:_ZN13ColladaDOM15019domRigid_constraint19domTechnique_common9domLimits9domLinear15registerElementER3DAE
libcollada-dom2.5-dp.so.0:_ZN13ColladaDOM15019domRigid_constraint19domTechnique_common9domLimits9domLinear6createER3DAE
libcollada-dom2.5-dp.so.0:_ZN13ColladaDOM15019domRigid_constraint19domTechnique_common9domSpring10domAngular15registerElementER3DAE
libcollada-dom2.5-dp.so.0:_ZN13ColladaDOM15019domRigid_constraint19domTechnique_common9domSpring10domAngular6createER3DAE
libcollada-dom2.5-dp.so.0:_ZN13ColladaDOM15019domRigid_constraint19domTechnique_common9domSpring15registerElementER3DAE
libcollada-dom2.5-dp.so.0:_ZN13ColladaDOM15019domRigid_constraint19domTechnique_common9domSpring6createER3DAE
libcollada-dom2.5-dp.so.0:_ZN13ColladaDOM15019domRigid_constraint19domTechnique_common9domSpring9domLinear15registerElementER3DAE
libcollada-dom2.5-dp.so.0:_ZN13ColladaDOM15019domRigid_constraint19domTechnique_common9domSpring9domLinear6createER3DAE
libcollada-dom2.5-dp.so.0:_ZN13ColladaDOM15019domRigid_constraint6createER3DAE
libcollada-dom2.5-dp.so.0:_ZN13ColladaDOM15019domTargetable_float15registerElementER3DAE
libcollada-dom2.5-dp.so.0:_ZN13ColladaDOM15019domTargetable_float6createER3DAE
libcollada-dom2.5-dp.so.0:_ZN13ColladaDOM15019registerDomElementsER3DAE
libcollada-dom2.5-dp.so.0:_ZN13ColladaDOM15020COLLADA_ELEMENT_AXISE
libcollada-dom2.5-dp.so.0:_ZN13ColladaDOM15020COLLADA_ELEMENT_BACKE
libcollada-dom2.5-dp.so.0:_ZN13ColladaDOM15020COLLADA_ELEMENT_BINDE
libcollada-dom2.5-dp.so.0:_ZN13ColladaDOM15020COLLADA_ELEMENT_BOOLE
libcollada-dom2.5-dp.so.0:_ZN13ColladaDOM15020COLLADA_ELEMENT_BREPE
libcollada-dom2.5-dp.so.0:_ZN13ColladaDOM15020COLLADA_ELEMENT_CODEE
libcollada-dom2.5-dp.so.0:_ZN13ColladaDOM15020COLLADA_ELEMENT_CONEE
libcollada-dom2.5-dp.so.0:_ZN13ColladaDOM15020COLLADA_ELEMENT_DESTE
libcollada-dom2.5-dp.so.0:_ZN13ColladaDOM15020COLLADA_ELEMENT_DRAWE
libcollada-dom2.5-dp.so.0:_ZN13ColladaDOM15020COLLADA_ELEMENT_ENUME
libcollada-dom2.5-dp.so.0:_ZN13ColladaDOM15020COLLADA_ELEMENT_FACEE
libcollada-dom2.5-dp.so.0:_ZN13ColladaDOM15020COLLADA_ELEMENT_FAILE
libcollada-dom2.5-dp.so.0:_ZN13ColladaDOM15020COLLADA_ELEMENT_FUNCE
libcollada-dom2.5-dp.so.0:_ZN13ColladaDOM15020COLLADA_ELEMENT_HALFE
libcollada-dom2.5-dp.so.0:_ZN13ColladaDOM15020COLLADA_ELEMENT_HINTE
libcollada-dom2.5-dp.so.0:_ZN13ColladaDOM15020COLLADA_ELEMENT_INT2E
libcollada-dom2.5-dp.so.0:_ZN13ColladaDOM15020COLLADA_ELEMENT_INT3E
libcollada-dom2.5-dp.so.0:_ZN13ColladaDOM15020COLLADA_ELEMENT_INT4E
libcollada-dom2.5-dp.so.0:_ZN13ColladaDOM15020COLLADA_ELEMENT_JERKE
libcollada-dom2.5-dp.so.0:_ZN13ColladaDOM15020COLLADA_ELEMENT_LINEE
libcollada-dom2.5-dp.so.0:_ZN13ColladaDOM15020COLLADA_ELEMENT_LINKE
libcollada-dom2.5-dp.so.0:_ZN13ColladaDOM15020COLLADA_ELEMENT_MASKE
libcollada-dom2.5-dp.so.0:_ZN13ColladaDOM15020COLLADA_ELEMENT_MASSE
libcollada-dom2.5-dp.so.0:_ZN13ColladaDOM15020COLLADA_ELEMENT_MAT2E
libcollada-dom2.5-dp.so.0:_ZN13ColladaDOM15020COLLADA_ELEMENT_MAT3E
libcollada-dom2.5-dp.so.0:_ZN13ColladaDOM15020COLLADA_ELEMENT_MAT4E
libcollada-dom2.5-dp.so.0:_ZN13ColladaDOM15020COLLADA_ELEMENT_MESHE
libcollada-dom2.5-dp.so.0:_ZN13ColladaDOM15020COLLADA_ELEMENT_MIPSE
libcollada-dom2.5-dp.so.0:_ZN13ColladaDOM15020COLLADA_ELEMENT_MODEE
libcollada-dom2.5-dp.so.0:_ZN13ColladaDOM15020COLLADA_ELEMENT_NODEE
libcollada-dom2.5-dp.so.0:_ZN13ColladaDOM15020COLLADA_ELEMENT_PASSE
libcollada-dom2.5-dp.so.0:_ZN13ColladaDOM15020COLLADA_ELEMENT_SIZEE
libcollada-dom2.5-dp.so.0:_ZN13ColladaDOM15020COLLADA_ELEMENT_SKEWE
libcollada-dom2.5-dp.so.0:_ZN13ColladaDOM15020COLLADA_ELEMENT_SKINE
libcollada-dom2.5-dp.so.0:_ZN13ColladaDOM15020COLLADA_ELEMENT_SPOTE
libcollada-dom2.5-dp.so.0:_ZN13ColladaDOM15020COLLADA_ELEMENT_UNITE
libcollada-dom2.5-dp.so.0:_ZN13ColladaDOM15020COLLADA_ELEMENT_VEC2E
libcollada-dom2.5-dp.so.0:_ZN13ColladaDOM15020COLLADA_ELEMENT_VEC3E
libcollada-dom2.5-dp.so.0:_ZN13ColladaDOM15020COLLADA_ELEMENT_VEC4E
libcollada-dom2.5-dp.so.0:_ZN13ColladaDOM15020COLLADA_ELEMENT_XFOVE
libcollada-dom2.5-dp.so.0:_ZN13ColladaDOM15020COLLADA_ELEMENT_XMAGE
libcollada-dom2.5-dp.so.0:_ZN13ColladaDOM15020COLLADA_ELEMENT_YFOVE
libcollada-dom2.5-dp.so.0:_ZN13ColladaDOM15020COLLADA_ELEMENT_YMAGE
libcollada-dom2.5-dp.so.0:_ZN13ColladaDOM15020COLLADA_ELEMENT_ZFARE
libcollada-dom2.5-dp.so.0:_ZN13ColladaDOM15020COLLADA_TYPE_AMBIENTE
libcollada-dom2.5-dp.so.0:_ZN13ColladaDOM15020COLLADA_TYPE_ANGULARE
libcollada-dom2.5-dp.so.0:_ZN13ColladaDOM15020COLLADA_TYPE_BOOL2X1E
libcollada-dom2.5-dp.so.0:_ZN13ColladaDOM15020COLLADA_TYPE_BOOL2X2E
libcollada-dom2.5-dp.so.0:_ZN13ColladaDOM15020COLLADA_TYPE_BOOL2X3E
libcollada-dom2.5-dp.so.0:_ZN13ColladaDOM15020COLLADA_TYPE_BOOL2X4E
libcollada-dom2.5-dp.so.0:_ZN13ColladaDOM15020COLLADA_TYPE_BOOL3X1E
libcollada-dom2.5-dp.so.0:_ZN13ColladaDOM15020COLLADA_TYPE_BOOL3X2E
libcollada-dom2.5-dp.so.0:_ZN13ColladaDOM15020COLLADA_TYPE_BOOL3X3E
libcollada-dom2.5-dp.so.0:_ZN13ColladaDOM15020COLLADA_TYPE_BOOL3X4E
libcollada-dom2.5-dp.so.0:_ZN13ColladaDOM15020COLLADA_TYPE_BOOL4X1E
libcollada-dom2.5-dp.so.0:_ZN13ColladaDOM15020COLLADA_TYPE_BOOL4X2E
libcollada-dom2.5-dp.so.0:_ZN13ColladaDOM15020COLLADA_TYPE_BOOL4X3E
libcollada-dom2.5-dp.so.0:_ZN13ColladaDOM15020COLLADA_TYPE_BOOL4X4E
libcollada-dom2.5-dp.so.0:_ZN13ColladaDOM15020COLLADA_TYPE_CAPSULEE
libcollada-dom2.5-dp.so.0:_ZN13ColladaDOM15020COLLADA_TYPE_CG_PASSE
libcollada-dom2.5-dp.so.0:_ZN13ColladaDOM15020COLLADA_TYPE_CG_USERE
libcollada-dom2.5-dp.so.0:_ZN13ColladaDOM15020COLLADA_TYPE_CHANNELE
libcollada-dom2.5-dp.so.0:_ZN13ColladaDOM15020COLLADA_TYPE_COLLADAE
libcollada-dom2.5-dp.so.0:_ZN13ColladaDOM15020COLLADA_TYPE_CREATEDE
libcollada-dom2.5-dp.so.0:_ZN13ColladaDOM15020COLLADA_TYPE_DYNAMICE
libcollada-dom2.5-dp.so.0:_ZN13ColladaDOM15020COLLADA_TYPE_ELLIPSEE
libcollada-dom2.5-dp.so.0:_ZN13ColladaDOM15020COLLADA_TYPE_ENABLEDE
libcollada-dom2.5-dp.so.0:_ZN13ColladaDOM15020COLLADA_TYPE_FOG_ENDE
libcollada-dom2.5-dp.so.0:_ZN13ColladaDOM15020COLLADA_TYPE_FORMULAE
libcollada-dom2.5-dp.so.0:_ZN13ColladaDOM15020COLLADA_TYPE_FX_CODEE
libcollada-dom2.5-dp.so.0:_ZN13ColladaDOM15020COLLADA_TYPE_HALF2X1E
libcollada-dom2.5-dp.so.0:_ZN13ColladaDOM15020COLLADA_TYPE_HALF2X2E
libcollada-dom2.5-dp.so.0:_ZN13ColladaDOM15020COLLADA_TYPE_HALF2X3E
libcollada-dom2.5-dp.so.0:_ZN13ColladaDOM15020COLLADA_TYPE_HALF2X4E
libcollada-dom2.5-dp.so.0:_ZN13ColladaDOM15020COLLADA_TYPE_HALF3X1E
libcollada-dom2.5-dp.so.0:_ZN13ColladaDOM15020COLLADA_TYPE_HALF3X2E
libcollada-dom2.5-dp.so.0:_ZN13ColladaDOM15020COLLADA_TYPE_HALF3X3E
libcollada-dom2.5-dp.so.0:_ZN13ColladaDOM15020COLLADA_TYPE_HALF3X4E
libcollada-dom2.5-dp.so.0:_ZN13ColladaDOM15020COLLADA_TYPE_HALF4X1E
libcollada-dom2.5-dp.so.0:_ZN13ColladaDOM15020COLLADA_TYPE_HALF4X2E
libcollada-dom2.5-dp.so.0:_ZN13ColladaDOM15020COLLADA_TYPE_HALF4X3E
libcollada-dom2.5-dp.so.0:_ZN13ColladaDOM15020COLLADA_TYPE_HALF4X4E
libcollada-dom2.5-dp.so.0:_ZN13ColladaDOM15020COLLADA_TYPE_LAMBERTE
libcollada-dom2.5-dp.so.0:_ZN13ColladaDOM15020COLLADA_TYPE_PCURVESE
libcollada-dom2.5-dp.so.0:_ZN13ColladaDOM15020COLLADA_TYPE_PROGRAME
libcollada-dom2.5-dp.so.0:_ZN13ColladaDOM15020COLLADA_TYPE_SAMPLERE
libcollada-dom2.5-dp.so.0:_ZN13ColladaDOM15020COLLADA_TYPE_SCISSORE
libcollada-dom2.5-dp.so.0:_ZN13ColladaDOM15020COLLADA_TYPE_SOURCESE
libcollada-dom2.5-dp.so.0:_ZN13ColladaDOM15020COLLADA_TYPE_SRC_RGBE
libcollada-dom2.5-dp.so.0:_ZN13ColladaDOM15020COLLADA_TYPE_SUBJECTE
libcollada-dom2.5-dp.so.0:_ZN13ColladaDOM15020COLLADA_TYPE_SURFACEE
libcollada-dom2.5-dp.so.0:_ZN13ColladaDOM15020COLLADA_TYPE_TARGETSE
libcollada-dom2.5-dp.so.0:_ZN13ColladaDOM15020COLLADA_TYPE_TEXTUREE
libcollada-dom2.5-dp.so.0:_ZN13ColladaDOM15020COLLADA_TYPE_TRIFANSE
libcollada-dom2.5-dp.so.0:_ZN13ColladaDOM15020COLLADA_TYPE_UP_AXISE
libcollada-dom2.5-dp.so.0:_ZN13ColladaDOM15020domFormula_technique15registerElementER3DAE
libcollada-dom2.5-dp.so.0:_ZN13ColladaDOM15020domFormula_technique6createER3DAE
libcollada-dom2.5-dp.so.0:_ZN13ColladaDOM15020domFx_sampler_states11domMip_bias15registerElementER3DAE
libcollada-dom2.5-dp.so.0:_ZN13ColladaDOM15020domFx_sampler_states11domMip_bias6createER3DAE
libcollada-dom2.5-dp.so.0:_ZN13ColladaDOM15020domFx_sampler_states12domMagfilter15registerElementER3DAE
libcollada-dom2.5-dp.so.0:_ZN13ColladaDOM15020domFx_sampler_states12domMagfilter6createER3DAE
libcollada-dom2.5-dp.so.0:_ZN13ColladaDOM15020domFx_sampler_states12domMinfilter15registerElementER3DAE
libcollada-dom2.5-dp.so.0:_ZN13ColladaDOM15020domFx_sampler_states12domMinfilter6createER3DAE
libcollada-dom2.5-dp.so.0:_ZN13ColladaDOM15020domFx_sampler_states12domMipfilter15registerElementER3DAE
libcollada-dom2.5-dp.so.0:_ZN13ColladaDOM15020domFx_sampler_states12domMipfilter6createER3DAE
libcollada-dom2.5-dp.so.0:_ZN13ColladaDOM15020domFx_sampler_states15domBorder_color15registerElementER3DAE
libcollada-dom2.5-dp.so.0:_ZN13ColladaDOM15020domFx_sampler_states15domBorder_color6createER3DAE
libcollada-dom2.5-dp.so.0:_ZN13ColladaDOM15020domFx_sampler_states15registerElementER3DAE
libcollada-dom2.5-dp.so.0:_ZN13ColladaDOM15020domFx_sampler_states16domMip_max_level15registerElementER3DAE
libcollada-dom2.5-dp.so.0:_ZN13ColladaDOM15020domFx_sampler_states16domMip_max_level6createER3DAE
libcollada-dom2.5-dp.so.0:_ZN13ColladaDOM15020domFx_sampler_states16domMip_min_level15registerElementER3DAE
libcollada-dom2.5-dp.so.0:_ZN13ColladaDOM15020domFx_sampler_states16domMip_min_level6createER3DAE
libcollada-dom2.5-dp.so.0:_ZN13ColladaDOM15020domFx_sampler_states17domMax_anisotropy15registerElementER3DAE
libcollada-dom2.5-dp.so.0:_ZN13ColladaDOM15020domFx_sampler_states17domMax_anisotropy6createER3DAE
libcollada-dom2.5-dp.so.0:_ZN13ColladaDOM15020domFx_sampler_states6createER3DAE
libcollada-dom2.5-dp.so.0:_ZN13ColladaDOM15020domFx_sampler_states9domWrap_p15registerElementER3DAE
libcollada-dom2.5-dp.so.0:_ZN13ColladaDOM15020domFx_sampler_states9domWrap_p6createER3DAE
libcollada-dom2.5-dp.so.0:_ZN13ColladaDOM15020domFx_sampler_states9domWrap_s15registerElementER3DAE
libcollada-dom2.5-dp.so.0:_ZN13ColladaDOM15020domFx_sampler_states9domWrap_s6createER3DAE
libcollada-dom2.5-dp.so.0:_ZN13ColladaDOM15020domFx_sampler_states9domWrap_t15registerElementER3DAE
libcollada-dom2.5-dp.so.0:_ZN13ColladaDOM15020domFx_sampler_states9domWrap_t6createER3DAE
libcollada-dom2.5-dp.so.0:_ZN13ColladaDOM15020domInstance_geometry15registerElementER3DAE
libcollada-dom2.5-dp.so.0:_ZN13ColladaDOM15020domInstance_geometry6createER3DAE
libcollada-dom2.5-dp.so.0:_ZN13ColladaDOM15020domInstance_material15registerElementER3DAE
libcollada-dom2.5-dp.so.0:_ZN13ColladaDOM15020domInstance_material20domBind_vertex_input15registerElementER3DAE
libcollada-dom2.5-dp.so.0:_ZN13ColladaDOM15020domInstance_material20domBind_vertex_input6createER3DAE
libcollada-dom2.5-dp.so.0:_ZN13ColladaDOM15020domInstance_material6createER3DAE
libcollada-dom2.5-dp.so.0:_ZN13ColladaDOM15020domInstance_material7domBind15registerElementER3DAE
libcollada-dom2.5-dp.so.0:_ZN13ColladaDOM15020domInstance_material7domBind6createER3DAE
libcollada-dom2.5-dp.so.0:_ZN13ColladaDOM15020domKinematics_limits15registerElementER3DAE
libcollada-dom2.5-dp.so.0:_ZN13ColladaDOM15020domKinematics_limits6createER3DAE
libcollada-dom2.5-dp.so.0:_ZN13ColladaDOM15020domLibrary_materials15registerElementER3DAE
libcollada-dom2.5-dp.so.0:_ZN13ColladaDOM15020domLibrary_materials6createER3DAE
libcollada-dom2.5-dp.so.0:_ZN13ColladaDOM15020domTargetable_float315registerElementER3DAE
libcollada-dom2.5-dp.so.0:_ZN13ColladaDOM15020domTargetable_float36createER3DAE
libcollada-dom2.5-dp.so.0:_ZN13ColladaDOM15021COLLADA_ELEMENT_ALPHAE
libcollada-dom2.5-dp.so.0:_ZN13ColladaDOM15021COLLADA_ELEMENT_ANGLEE
libcollada-dom2.5-dp.so.0:_ZN13ColladaDOM15021COLLADA_ELEMENT_ARRAYE
libcollada-dom2.5-dp.so.0:_ZN13ColladaDOM15021COLLADA_ELEMENT_ASSETE
libcollada-dom2.5-dp.so.0:_ZN13ColladaDOM15021COLLADA_ELEMENT_BLINNE
libcollada-dom2.5-dp.so.0:_ZN13ColladaDOM15021COLLADA_ELEMENT_BOOL2E
libcollada-dom2.5-dp.so.0:_ZN13ColladaDOM15021COLLADA_ELEMENT_BOOL3E
libcollada-dom2.5-dp.so.0:_ZN13ColladaDOM15021COLLADA_ELEMENT_BOOL4E
libcollada-dom2.5-dp.so.0:_ZN13ColladaDOM15021COLLADA_ELEMENT_BVEC2E
libcollada-dom2.5-dp.so.0:_ZN13ColladaDOM15021COLLADA_ELEMENT_BVEC3E
libcollada-dom2.5-dp.so.0:_ZN13ColladaDOM15021COLLADA_ELEMENT_BVEC4E
libcollada-dom2.5-dp.so.0:_ZN13ColladaDOM15021COLLADA_ELEMENT_COLORE
libcollada-dom2.5-dp.so.0:_ZN13ColladaDOM15021COLLADA_ELEMENT_CURVEE
libcollada-dom2.5-dp.so.0:_ZN13ColladaDOM15021COLLADA_ELEMENT_EDGESE
libcollada-dom2.5-dp.so.0:_ZN13ColladaDOM15021COLLADA_ELEMENT_EXACTE
libcollada-dom2.5-dp.so.0:_ZN13ColladaDOM15021COLLADA_ELEMENT_EXTRAE
libcollada-dom2.5-dp.so.0:_ZN13ColladaDOM15021COLLADA_ELEMENT_FACESE
libcollada-dom2.5-dp.so.0:_ZN13ColladaDOM15021COLLADA_ELEMENT_FIXEDE
libcollada-dom2.5-dp.so.0:_ZN13ColladaDOM15021COLLADA_ELEMENT_FLOATE
libcollada-dom2.5-dp.so.0:_ZN13ColladaDOM15021COLLADA_ELEMENT_FOCALE
libcollada-dom2.5-dp.so.0:_ZN13ColladaDOM15021COLLADA_ELEMENT_FRONTE
libcollada-dom2.5-dp.so.0:_ZN13ColladaDOM15021COLLADA_ELEMENT_HALF2E
libcollada-dom2.5-dp.so.0:_ZN13ColladaDOM15021COLLADA_ELEMENT_HALF3E
libcollada-dom2.5-dp.so.0:_ZN13ColladaDOM15021COLLADA_ELEMENT_HALF4E
libcollada-dom2.5-dp.so.0:_ZN13ColladaDOM15021COLLADA_ELEMENT_IMAGEE
libcollada-dom2.5-dp.so.0:_ZN13ColladaDOM15021COLLADA_ELEMENT_INDEXE
libcollada-dom2.5-dp.so.0:_ZN13ColladaDOM15021COLLADA_ELEMENT_INPUTE
libcollada-dom2.5-dp.so.0:_ZN13ColladaDOM15021COLLADA_ELEMENT_IVEC2E
libcollada-dom2.5-dp.so.0:_ZN13ColladaDOM15021COLLADA_ELEMENT_IVEC3E
libcollada-dom2.5-dp.so.0:_ZN13ColladaDOM15021COLLADA_ELEMENT_IVEC4E
libcollada-dom2.5-dp.so.0:_ZN13ColladaDOM15021COLLADA_ELEMENT_JOINTE
libcollada-dom2.5-dp.so.0:_ZN13ColladaDOM15021COLLADA_ELEMENT_LAYERE
libcollada-dom2.5-dp.so.0:_ZN13ColladaDOM15021COLLADA_ELEMENT_LIGHTE
libcollada-dom2.5-dp.so.0:_ZN13ColladaDOM15021COLLADA_ELEMENT_LINESE
libcollada-dom2.5-dp.so.0:_ZN13ColladaDOM15021COLLADA_ELEMENT_MORPHE
libcollada-dom2.5-dp.so.0:_ZN13ColladaDOM15021COLLADA_ELEMENT_NURBSE
libcollada-dom2.5-dp.so.0:_ZN13ColladaDOM15021COLLADA_ELEMENT_PARAME
libcollada-dom2.5-dp.so.0:_ZN13ColladaDOM15021COLLADA_ELEMENT_PHONGE
libcollada-dom2.5-dp.so.0:_ZN13ColladaDOM15021COLLADA_ELEMENT_PLANEE
libcollada-dom2.5-dp.so.0:_ZN13ColladaDOM15021COLLADA_ELEMENT_POINTE
libcollada-dom2.5-dp.so.0:_ZN13ColladaDOM15021COLLADA_ELEMENT_SCALEE
libcollada-dom2.5-dp.so.0:_ZN13ColladaDOM15021COLLADA_ELEMENT_SCENEE
libcollada-dom2.5-dp.so.0:_ZN13ColladaDOM15021COLLADA_ELEMENT_SHAPEE
libcollada-dom2.5-dp.so.0:_ZN13ColladaDOM15021COLLADA_ELEMENT_SPEEDE
libcollada-dom2.5-dp.so.0:_ZN13ColladaDOM15021COLLADA_ELEMENT_TITLEE
libcollada-dom2.5-dp.so.0:_ZN13ColladaDOM15021COLLADA_ELEMENT_TORUSE
libcollada-dom2.5-dp.so.0:_ZN13ColladaDOM15021COLLADA_ELEMENT_VALUEE
libcollada-dom2.5-dp.so.0:_ZN13ColladaDOM15021COLLADA_ELEMENT_WIRESE
libcollada-dom2.5-dp.so.0:_ZN13ColladaDOM15021COLLADA_ELEMENT_ZFAILE
libcollada-dom2.5-dp.so.0:_ZN13ColladaDOM15021COLLADA_ELEMENT_ZNEARE
libcollada-dom2.5-dp.so.0:_ZN13ColladaDOM15021COLLADA_ELEMENT_ZPASSE
libcollada-dom2.5-dp.so.0:_ZN13ColladaDOM15021COLLADA_TYPE_ACCESSORE
libcollada-dom2.5-dp.so.0:_ZN13ColladaDOM15021COLLADA_TYPE_ALTITUDEE
libcollada-dom2.5-dp.so.0:_ZN13ColladaDOM15021COLLADA_TYPE_CG_ARRAYE
libcollada-dom2.5-dp.so.0:_ZN13ColladaDOM15021COLLADA_TYPE_CG_PARAME
libcollada-dom2.5-dp.so.0:_ZN13ColladaDOM15021COLLADA_TYPE_COMMENTSE
libcollada-dom2.5-dp.so.0:_ZN13ColladaDOM15021COLLADA_TYPE_CONSTANTE
libcollada-dom2.5-dp.so.0:_ZN13ColladaDOM15021COLLADA_TYPE_COVERAGEE
libcollada-dom2.5-dp.so.0:_ZN13ColladaDOM15021COLLADA_TYPE_CYLINDERE
libcollada-dom2.5-dp.so.0:_ZN13ColladaDOM15021COLLADA_TYPE_DEST_RGBE
libcollada-dom2.5-dp.so.0:_ZN13ColladaDOM15021COLLADA_TYPE_EQUATIONE
libcollada-dom2.5-dp.so.0:_ZN13ColladaDOM15021COLLADA_TYPE_EVALUATEE
libcollada-dom2.5-dp.so.0:_ZN13ColladaDOM15021COLLADA_TYPE_FIXED2X1E
libcollada-dom2.5-dp.so.0:_ZN13ColladaDOM15021COLLADA_TYPE_FIXED2X2E
libcollada-dom2.5-dp.so.0:_ZN13ColladaDOM15021COLLADA_TYPE_FIXED2X3E
libcollada-dom2.5-dp.so.0:_ZN13ColladaDOM15021COLLADA_TYPE_FIXED2X4E
libcollada-dom2.5-dp.so.0:_ZN13ColladaDOM15021COLLADA_TYPE_FIXED3X1E
libcollada-dom2.5-dp.so.0:_ZN13ColladaDOM15021COLLADA_TYPE_FIXED3X2E
libcollada-dom2.5-dp.so.0:_ZN13ColladaDOM15021COLLADA_TYPE_FIXED3X3E
libcollada-dom2.5-dp.so.0:_ZN13ColladaDOM15021COLLADA_TYPE_FIXED3X4E
libcollada-dom2.5-dp.so.0:_ZN13ColladaDOM15021COLLADA_TYPE_FIXED4X1E
libcollada-dom2.5-dp.so.0:_ZN13ColladaDOM15021COLLADA_TYPE_FIXED4X2E
libcollada-dom2.5-dp.so.0:_ZN13ColladaDOM15021COLLADA_TYPE_FIXED4X3E
libcollada-dom2.5-dp.so.0:_ZN13ColladaDOM15021COLLADA_TYPE_FIXED4X4E
libcollada-dom2.5-dp.so.0:_ZN13ColladaDOM15021COLLADA_TYPE_FLOAT1X1E
libcollada-dom2.5-dp.so.0:_ZN13ColladaDOM15021COLLADA_TYPE_FLOAT1X2E
libcollada-dom2.5-dp.so.0:_ZN13ColladaDOM15021COLLADA_TYPE_FLOAT1X3E
libcollada-dom2.5-dp.so.0:_ZN13ColladaDOM15021COLLADA_TYPE_FLOAT1X4E
libcollada-dom2.5-dp.so.0:_ZN13ColladaDOM15021COLLADA_TYPE_FLOAT2X1E
libcollada-dom2.5-dp.so.0:_ZN13ColladaDOM15021COLLADA_TYPE_FLOAT2X2E
libcollada-dom2.5-dp.so.0:_ZN13ColladaDOM15021COLLADA_TYPE_FLOAT2X3E
libcollada-dom2.5-dp.so.0:_ZN13ColladaDOM15021COLLADA_TYPE_FLOAT2X4E
libcollada-dom2.5-dp.so.0:_ZN13ColladaDOM15021COLLADA_TYPE_FLOAT3X1E
libcollada-dom2.5-dp.so.0:_ZN13ColladaDOM15021COLLADA_TYPE_FLOAT3X2E
libcollada-dom2.5-dp.so.0:_ZN13ColladaDOM15021COLLADA_TYPE_FLOAT3X3E
libcollada-dom2.5-dp.so.0:_ZN13ColladaDOM15021COLLADA_TYPE_FLOAT3X4E
libcollada-dom2.5-dp.so.0:_ZN13ColladaDOM15021COLLADA_TYPE_FLOAT4X1E
libcollada-dom2.5-dp.so.0:_ZN13ColladaDOM15021COLLADA_TYPE_FLOAT4X2E
libcollada-dom2.5-dp.so.0:_ZN13ColladaDOM15021COLLADA_TYPE_FLOAT4X3E
libcollada-dom2.5-dp.so.0:_ZN13ColladaDOM15021COLLADA_TYPE_FLOAT4X4E
libcollada-dom2.5-dp.so.0:_ZN13ColladaDOM15021COLLADA_TYPE_FOG_MODEE
libcollada-dom2.5-dp.so.0:_ZN13ColladaDOM15021COLLADA_TYPE_GEOMETRYE
libcollada-dom2.5-dp.so.0:_ZN13ColladaDOM15021COLLADA_TYPE_KEYWORDSE
libcollada-dom2.5-dp.so.0:_ZN13ColladaDOM15021COLLADA_TYPE_LATITUDEE
libcollada-dom2.5-dp.so.0:_ZN13ColladaDOM15021COLLADA_TYPE_LOGIC_OPE
libcollada-dom2.5-dp.so.0:_ZN13ColladaDOM15021COLLADA_TYPE_MATERIALE
libcollada-dom2.5-dp.so.0:_ZN13ColladaDOM15021COLLADA_TYPE_MIP_BIASE
libcollada-dom2.5-dp.so.0:_ZN13ColladaDOM15021COLLADA_TYPE_MODIFIEDE
libcollada-dom2.5-dp.so.0:_ZN13ColladaDOM15021COLLADA_TYPE_MODIFIERE
libcollada-dom2.5-dp.so.0:_ZN13ColladaDOM15021COLLADA_TYPE_NEWPARAME
libcollada-dom2.5-dp.so.0:_ZN13ColladaDOM15021COLLADA_TYPE_PARABOLAE
libcollada-dom2.5-dp.so.0:_ZN13ColladaDOM15021COLLADA_TYPE_POLYGONSE
libcollada-dom2.5-dp.so.0:_ZN13ColladaDOM15021COLLADA_TYPE_POLYLISTE
libcollada-dom2.5-dp.so.0:_ZN13ColladaDOM15021COLLADA_TYPE_REVISIONE
libcollada-dom2.5-dp.so.0:_ZN13ColladaDOM15021COLLADA_TYPE_SEMANTICE
libcollada-dom2.5-dp.so.0:_ZN13ColladaDOM15021COLLADA_TYPE_SETPARAME
libcollada-dom2.5-dp.so.0:_ZN13ColladaDOM15021COLLADA_TYPE_SKELETONE
libcollada-dom2.5-dp.so.0:_ZN13ColladaDOM15021COLLADA_TYPE_SURFACESE
libcollada-dom2.5-dp.so.0:_ZN13ColladaDOM15021COLLADA_TYPE_TEXCOORDE
libcollada-dom2.5-dp.so.0:_ZN13ColladaDOM15021COLLADA_TYPE_USERTYPEE
libcollada-dom2.5-dp.so.0:_ZN13ColladaDOM15021COLLADA_TYPE_VELOCITYE
libcollada-dom2.5-dp.so.0:_ZN13ColladaDOM15021COLLADA_TYPE_VERTICESE
libcollada-dom2.5-dp.so.0:_ZN13ColladaDOM15021domArticulated_system15registerElementER3DAE
libcollada-dom2.5-dp.so.0:_ZN13ColladaDOM15021domArticulated_system6createER3DAE
libcollada-dom2.5-dp.so.0:_ZN13ColladaDOM15021domFx_common_newparam11domSemantic15registerElementER3DAE
libcollada-dom2.5-dp.so.0:_ZN13ColladaDOM15021domFx_common_newparam11domSemantic6createER3DAE
libcollada-dom2.5-dp.so.0:_ZN13ColladaDOM15021domFx_common_newparam15registerElementER3DAE
libcollada-dom2.5-dp.so.0:_ZN13ColladaDOM15021domFx_common_newparam6createER3DAE
libcollada-dom2.5-dp.so.0:_ZN13ColladaDOM15021domFx_common_newparam8domFloat15registerElementER3DAE
libcollada-dom2.5-dp.so.0:_ZN13ColladaDOM15021domFx_common_newparam8domFloat6createER3DAE
libcollada-dom2.5-dp.so.0:_ZN13ColladaDOM15021domFx_common_newparam9domFloat215registerElementER3DAE
libcollada-dom2.5-dp.so.0:_ZN13ColladaDOM15021domFx_common_newparam9domFloat26createER3DAE
libcollada-dom2.5-dp.so.0:_ZN13ColladaDOM15021domFx_common_newparam9domFloat315registerElementER3DAE
libcollada-dom2.5-dp.so.0:_ZN13ColladaDOM15021domFx_common_newparam9domFloat36createER3DAE
libcollada-dom2.5-dp.so.0:_ZN13ColladaDOM15021domFx_common_newparam9domFloat415registerElementER3DAE
libcollada-dom2.5-dp.so.0:_ZN13ColladaDOM15021domFx_common_newparam9domFloat46createER3DAE
libcollada-dom2.5-dp.so.0:_ZN13ColladaDOM15021domInput_local_offset15registerElementER3DAE
libcollada-dom2.5-dp.so.0:_ZN13ColladaDOM15021domInput_local_offset6createER3DAE
libcollada-dom2.5-dp.so.0:_ZN13ColladaDOM15021domLibrary_animations15registerElementER3DAE
libcollada-dom2.5-dp.so.0:_ZN13ColladaDOM15021domLibrary_animations6createER3DAE
libcollada-dom2.5-dp.so.0:_ZN13ColladaDOM15021domLibrary_geometries15registerElementER3DAE
libcollada-dom2.5-dp.so.0:_ZN13ColladaDOM15021domLibrary_geometries6createER3DAE
libcollada-dom2.5-dp.so.0:_ZN13ColladaDOM15022COLLADA_ELEMENT_ACTIVEE
libcollada-dom2.5-dp.so.0:_ZN13ColladaDOM15022COLLADA_ELEMENT_AUTHORE
libcollada-dom2.5-dp.so.0:_ZN13ColladaDOM15022COLLADA_ELEMENT_BINARYE
libcollada-dom2.5-dp.so.0:_ZN13ColladaDOM15022COLLADA_ELEMENT_CAMERAE
libcollada-dom2.5-dp.so.0:_ZN13ColladaDOM15022COLLADA_ELEMENT_CIRCLEE
libcollada-dom2.5-dp.so.0:_ZN13ColladaDOM15022COLLADA_ELEMENT_CURVESE
libcollada-dom2.5-dp.so.0:_ZN13ColladaDOM15022COLLADA_ELEMENT_EFFECTE
libcollada-dom2.5-dp.so.0:_ZN13ColladaDOM15022COLLADA_ELEMENT_FIXED2E
libcollada-dom2.5-dp.so.0:_ZN13ColladaDOM15022COLLADA_ELEMENT_FIXED3E
libcollada-dom2.5-dp.so.0:_ZN13ColladaDOM15022COLLADA_ELEMENT_FIXED4E
libcollada-dom2.5-dp.so.0:_ZN13ColladaDOM15022COLLADA_ELEMENT_FLOAT2E
libcollada-dom2.5-dp.so.0:_ZN13ColladaDOM15022COLLADA_ELEMENT_FLOAT3E
libcollada-dom2.5-dp.so.0:_ZN13ColladaDOM15022COLLADA_ELEMENT_FLOAT4E
libcollada-dom2.5-dp.so.0:_ZN13ColladaDOM15022COLLADA_ELEMENT_FORMATE
libcollada-dom2.5-dp.so.0:_ZN13ColladaDOM15022COLLADA_ELEMENT_HEIGHTE
libcollada-dom2.5-dp.so.0:_ZN13ColladaDOM15022COLLADA_ELEMENT_HOLLOWE
libcollada-dom2.5-dp.so.0:_ZN13ColladaDOM15022COLLADA_ELEMENT_IMAGERE
libcollada-dom2.5-dp.so.0:_ZN13ColladaDOM15022COLLADA_ELEMENT_IMPORTE
libcollada-dom2.5-dp.so.0:_ZN13ColladaDOM15022COLLADA_ELEMENT_INLINEE
libcollada-dom2.5-dp.so.0:_ZN13ColladaDOM15022COLLADA_ELEMENT_INT2X1E
libcollada-dom2.5-dp.so.0:_ZN13ColladaDOM15022COLLADA_ELEMENT_INT2X2E
libcollada-dom2.5-dp.so.0:_ZN13ColladaDOM15022COLLADA_ELEMENT_INT2X3E
libcollada-dom2.5-dp.so.0:_ZN13ColladaDOM15022COLLADA_ELEMENT_INT2X4E
libcollada-dom2.5-dp.so.0:_ZN13ColladaDOM15022COLLADA_ELEMENT_INT3X1E
libcollada-dom2.5-dp.so.0:_ZN13ColladaDOM15022COLLADA_ELEMENT_INT3X2E
libcollada-dom2.5-dp.so.0:_ZN13ColladaDOM15022COLLADA_ELEMENT_INT3X3E
libcollada-dom2.5-dp.so.0:_ZN13ColladaDOM15022COLLADA_ELEMENT_INT3X4E
libcollada-dom2.5-dp.so.0:_ZN13ColladaDOM15022COLLADA_ELEMENT_INT4X1E
libcollada-dom2.5-dp.so.0:_ZN13ColladaDOM15022COLLADA_ELEMENT_INT4X2E
libcollada-dom2.5-dp.so.0:_ZN13ColladaDOM15022COLLADA_ELEMENT_INT4X3E
libcollada-dom2.5-dp.so.0:_ZN13ColladaDOM15022COLLADA_ELEMENT_INT4X4E
libcollada-dom2.5-dp.so.0:_ZN13ColladaDOM15022COLLADA_ELEMENT_INVERTE
libcollada-dom2.5-dp.so.0:_ZN13ColladaDOM15022COLLADA_ELEMENT_JOINTSE
libcollada-dom2.5-dp.so.0:_ZN13ColladaDOM15022COLLADA_ELEMENT_LIMITSE
libcollada-dom2.5-dp.so.0:_ZN13ColladaDOM15022COLLADA_ELEMENT_LINEARE
libcollada-dom2.5-dp.so.0:_ZN13ColladaDOM15022COLLADA_ELEMENT_LINKERE
libcollada-dom2.5-dp.so.0:_ZN13ColladaDOM15022COLLADA_ELEMENT_LOCKEDE
libcollada-dom2.5-dp.so.0:_ZN13ColladaDOM15022COLLADA_ELEMENT_LOOKATE
libcollada-dom2.5-dp.so.0:_ZN13ColladaDOM15022COLLADA_ELEMENT_MATRIXE
libcollada-dom2.5-dp.so.0:_ZN13ColladaDOM15022COLLADA_ELEMENT_MOTIONE
libcollada-dom2.5-dp.so.0:_ZN13ColladaDOM15022COLLADA_ELEMENT_OPTICSE
libcollada-dom2.5-dp.so.0:_ZN13ColladaDOM15022COLLADA_ELEMENT_ORIENTE
libcollada-dom2.5-dp.so.0:_ZN13ColladaDOM15022COLLADA_ELEMENT_ORIGINE
libcollada-dom2.5-dp.so.0:_ZN13ColladaDOM15022COLLADA_ELEMENT_RADIUSE
libcollada-dom2.5-dp.so.0:_ZN13ColladaDOM15022COLLADA_ELEMENT_RENDERE
libcollada-dom2.5-dp.so.0:_ZN13ColladaDOM15022COLLADA_ELEMENT_ROTATEE
libcollada-dom2.5-dp.so.0:_ZN13ColladaDOM15022COLLADA_ELEMENT_SHADERE
libcollada-dom2.5-dp.so.0:_ZN13ColladaDOM15022COLLADA_ELEMENT_SHELLSE
libcollada-dom2.5-dp.so.0:_ZN13ColladaDOM15022COLLADA_ELEMENT_SIDREFE
libcollada-dom2.5-dp.so.0:_ZN13ColladaDOM15022COLLADA_ELEMENT_SOLIDSE
libcollada-dom2.5-dp.so.0:_ZN13ColladaDOM15022COLLADA_ELEMENT_SOURCEE
libcollada-dom2.5-dp.so.0:_ZN13ColladaDOM15022COLLADA_ELEMENT_SPHEREE
libcollada-dom2.5-dp.so.0:_ZN13ColladaDOM15022COLLADA_ELEMENT_SPLINEE
libcollada-dom2.5-dp.so.0:_ZN13ColladaDOM15022COLLADA_ELEMENT_SPRINGE
libcollada-dom2.5-dp.so.0:_ZN13ColladaDOM15022COLLADA_ELEMENT_STATESE
libcollada-dom2.5-dp.so.0:_ZN13ColladaDOM15022COLLADA_ELEMENT_STRINGE
libcollada-dom2.5-dp.so.0:_ZN13ColladaDOM15022COLLADA_ELEMENT_TARGETE
libcollada-dom2.5-dp.so.0:_ZN13ColladaDOM15022COLLADA_ELEMENT_TEXENVE
libcollada-dom2.5-dp.so.0:_ZN13ColladaDOM15022COLLADA_ELEMENT_VCOUNTE
libcollada-dom2.5-dp.so.0:_ZN13ColladaDOM15022COLLADA_ELEMENT_WRAP_PE
libcollada-dom2.5-dp.so.0:_ZN13ColladaDOM15022COLLADA_ELEMENT_WRAP_SE
libcollada-dom2.5-dp.so.0:_ZN13ColladaDOM15022COLLADA_ELEMENT_WRAP_TE
libcollada-dom2.5-dp.so.0:_ZN13ColladaDOM15022COLLADA_TYPE_ANIMATIONE
libcollada-dom2.5-dp.so.0:_ZN13ColladaDOM15022COLLADA_TYPE_COPYRIGHTE
libcollada-dom2.5-dp.so.0:_ZN13ColladaDOM15022COLLADA_TYPE_CREATE_2DE
libcollada-dom2.5-dp.so.0:_ZN13ColladaDOM15022COLLADA_TYPE_CREATE_3DE
libcollada-dom2.5-dp.so.0:_ZN13ColladaDOM15022COLLADA_TYPE_CULL_FACEE
libcollada-dom2.5-dp.so.0:_ZN13ColladaDOM15022COLLADA_TYPE_DIRECTIONE
libcollada-dom2.5-dp.so.0:_ZN13ColladaDOM15022COLLADA_TYPE_ELLIPSOIDE
libcollada-dom2.5-dp.so.0:_ZN13ColladaDOM15022COLLADA_TYPE_FOG_COLORE
libcollada-dom2.5-dp.so.0:_ZN13ColladaDOM15022COLLADA_TYPE_FOG_STARTE
libcollada-dom2.5-dp.so.0:_ZN13ColladaDOM15022COLLADA_TYPE_FX_TARGETE
libcollada-dom2.5-dp.so.0:_ZN13ColladaDOM15022COLLADA_TYPE_HYPERBOLAE
libcollada-dom2.5-dp.so.0:_ZN13ColladaDOM15022COLLADA_TYPE_INIT_FROME
libcollada-dom2.5-dp.so.0:_ZN13ColladaDOM15022COLLADA_TYPE_INT_ARRAYE
libcollada-dom2.5-dp.so.0:_ZN13ColladaDOM15022COLLADA_TYPE_LONGITUDEE
libcollada-dom2.5-dp.so.0:_ZN13ColladaDOM15022COLLADA_TYPE_MAGFILTERE
libcollada-dom2.5-dp.so.0:_ZN13ColladaDOM15022COLLADA_TYPE_MINFILTERE
libcollada-dom2.5-dp.so.0:_ZN13ColladaDOM15022COLLADA_TYPE_MIPFILTERE
libcollada-dom2.5-dp.so.0:_ZN13ColladaDOM15022COLLADA_TYPE_SRC_ALPHAE
libcollada-dom2.5-dp.so.0:_ZN13ColladaDOM15022COLLADA_TYPE_TECHNIQUEE
libcollada-dom2.5-dp.so.0:_ZN13ColladaDOM15022COLLADA_TYPE_TEXTURE1DE
libcollada-dom2.5-dp.so.0:_ZN13ColladaDOM15022COLLADA_TYPE_TEXTURE2DE
libcollada-dom2.5-dp.so.0:_ZN13ColladaDOM15022COLLADA_TYPE_TEXTURE3DE
libcollada-dom2.5-dp.so.0:_ZN13ColladaDOM15022COLLADA_TYPE_TRANSLATEE
libcollada-dom2.5-dp.so.0:_ZN13ColladaDOM15022COLLADA_TYPE_TRIANGLESE
libcollada-dom2.5-dp.so.0:_ZN13ColladaDOM15022COLLADA_TYPE_TRISTRIPSE
libcollada-dom2.5-dp.so.0:_ZN13ColladaDOM15022COMMON_PROFILE_PARAM_AE
libcollada-dom2.5-dp.so.0:_ZN13ColladaDOM15022COMMON_PROFILE_PARAM_BE
libcollada-dom2.5-dp.so.0:_ZN13ColladaDOM15022COMMON_PROFILE_PARAM_GE
libcollada-dom2.5-dp.so.0:_ZN13ColladaDOM15022COMMON_PROFILE_PARAM_PE
libcollada-dom2.5-dp.so.0:_ZN13ColladaDOM15022COMMON_PROFILE_PARAM_QE
libcollada-dom2.5-dp.so.0:_ZN13ColladaDOM15022COMMON_PROFILE_PARAM_RE
libcollada-dom2.5-dp.so.0:_ZN13ColladaDOM15022COMMON_PROFILE_PARAM_SE
libcollada-dom2.5-dp.so.0:_ZN13ColladaDOM15022COMMON_PROFILE_PARAM_TE
libcollada-dom2.5-dp.so.0:_ZN13ColladaDOM15022COMMON_PROFILE_PARAM_UE
libcollada-dom2.5-dp.so.0:_ZN13ColladaDOM15022COMMON_PROFILE_PARAM_VE
libcollada-dom2.5-dp.so.0:_ZN13ColladaDOM15022COMMON_PROFILE_PARAM_WE
libcollada-dom2.5-dp.so.0:_ZN13ColladaDOM15022COMMON_PROFILE_PARAM_XE
libcollada-dom2.5-dp.so.0:_ZN13ColladaDOM15022COMMON_PROFILE_PARAM_YE
libcollada-dom2.5-dp.so.0:_ZN13ColladaDOM15022COMMON_PROFILE_PARAM_ZE
libcollada-dom2.5-dp.so.0:_ZN13ColladaDOM15022domCommon_int_or_param15registerElementER3DAE
libcollada-dom2.5-dp.so.0:_ZN13ColladaDOM15022domCommon_int_or_param6createER3DAE
libcollada-dom2.5-dp.so.0:_ZN13ColladaDOM15022domCommon_int_or_param6domInt15registerElementER3DAE
libcollada-dom2.5-dp.so.0:_ZN13ColladaDOM15022domCommon_int_or_param6domInt6createER3DAE
libcollada-dom2.5-dp.so.0:_ZN13ColladaDOM15022domGles_sampler_states11domMip_bias15registerElementER3DAE
libcollada-dom2.5-dp.so.0:_ZN13ColladaDOM15022domGles_sampler_states11domMip_bias6createER3DAE
libcollada-dom2.5-dp.so.0:_ZN13ColladaDOM15022domGles_sampler_states12domMagfilter15registerElementER3DAE
libcollada-dom2.5-dp.so.0:_ZN13ColladaDOM15022domGles_sampler_states12domMagfilter6createER3DAE
libcollada-dom2.5-dp.so.0:_ZN13ColladaDOM15022domGles_sampler_states12domMinfilter15registerElementER3DAE
libcollada-dom2.5-dp.so.0:_ZN13ColladaDOM15022domGles_sampler_states12domMinfilter6createER3DAE
libcollada-dom2.5-dp.so.0:_ZN13ColladaDOM15022domGles_sampler_states12domMipfilter15registerElementER3DAE
libcollada-dom2.5-dp.so.0:_ZN13ColladaDOM15022domGles_sampler_states12domMipfilter6createER3DAE
libcollada-dom2.5-dp.so.0:_ZN13ColladaDOM15022domGles_sampler_states15registerElementER3DAE
libcollada-dom2.5-dp.so.0:_ZN13ColladaDOM15022domGles_sampler_states16domMip_max_level15registerElementER3DAE
libcollada-dom2.5-dp.so.0:_ZN13ColladaDOM15022domGles_sampler_states16domMip_max_level6createER3DAE
libcollada-dom2.5-dp.so.0:_ZN13ColladaDOM15022domGles_sampler_states6createER3DAE
libcollada-dom2.5-dp.so.0:_ZN13ColladaDOM15022domGles_sampler_states9domWrap_s15registerElementER3DAE
libcollada-dom2.5-dp.so.0:_ZN13ColladaDOM15022domGles_sampler_states9domWrap_s6createER3DAE
libcollada-dom2.5-dp.so.0:_ZN13ColladaDOM15022domGles_sampler_states9domWrap_t15registerElementER3DAE
libcollada-dom2.5-dp.so.0:_ZN13ColladaDOM15022domGles_sampler_states9domWrap_t6createER3DAE
libcollada-dom2.5-dp.so.0:_ZN13ColladaDOM15022domGles_texenv_command15registerElementER3DAE
libcollada-dom2.5-dp.so.0:_ZN13ColladaDOM15022domGles_texenv_command6createER3DAE
libcollada-dom2.5-dp.so.0:_ZN13ColladaDOM15022domInstance_controller11domSkeleton15registerElementER3DAE
libcollada-dom2.5-dp.so.0:_ZN13ColladaDOM15022domInstance_controller11domSkeleton6createER3DAE
libcollada-dom2.5-dp.so.0:_ZN13ColladaDOM15022domInstance_controller15registerElementER3DAE
libcollada-dom2.5-dp.so.0:_ZN13ColladaDOM15022domInstance_controller6createER3DAE
libcollada-dom2.5-dp.so.0:_ZN13ColladaDOM15022domInstance_rigid_body15registerElementER3DAE
libcollada-dom2.5-dp.so.0:_ZN13ColladaDOM15022domInstance_rigid_body19domTechnique_common10domDynamic15registerElementER3DAE
libcollada-dom2.5-dp.so.0:_ZN13ColladaDOM15022domInstance_rigid_body19domTechnique_common10domDynamic6createER3DAE
libcollada-dom2.5-dp.so.0:_ZN13ColladaDOM15022domInstance_rigid_body19domTechnique_common11domVelocity15registerElementER3DAE
libcollada-dom2.5-dp.so.0:_ZN13ColladaDOM15022domInstance_rigid_body19domTechnique_common11domVelocity6createER3DAE
libcollada-dom2.5-dp.so.0:_ZN13ColladaDOM15022domInstance_rigid_body19domTechnique_common13domMass_frame15registerElementER3DAE
libcollada-dom2.5-dp.so.0:_ZN13ColladaDOM15022domInstance_rigid_body19domTechnique_common13domMass_frame6createER3DAE
libcollada-dom2.5-dp.so.0:_ZN13ColladaDOM15022domInstance_rigid_body19domTechnique_common15registerElementER3DAE
libcollada-dom2.5-dp.so.0:_ZN13ColladaDOM15022domInstance_rigid_body19domTechnique_common19domAngular_velocity15registerElementER3DAE
libcollada-dom2.5-dp.so.0:_ZN13ColladaDOM15022domInstance_rigid_body19domTechnique_common19domAngular_velocity6createER3DAE
libcollada-dom2.5-dp.so.0:_ZN13ColladaDOM15022domInstance_rigid_body19domTechnique_common6createER3DAE
libcollada-dom2.5-dp.so.0:_ZN13ColladaDOM15022domInstance_rigid_body19domTechnique_common8domShape15registerElementER3DAE
libcollada-dom2.5-dp.so.0:_ZN13ColladaDOM15022domInstance_rigid_body19domTechnique_common8domShape6createER3DAE
libcollada-dom2.5-dp.so.0:_ZN13ColladaDOM15022domInstance_rigid_body19domTechnique_common8domShape9domHollow15registerElementER3DAE
libcollada-dom2.5-dp.so.0:_ZN13ColladaDOM15022domInstance_rigid_body19domTechnique_common8domShape9domHollow6createER3DAE
libcollada-dom2.5-dp.so.0:_ZN13ColladaDOM15022domInstance_rigid_body6createER3DAE
libcollada-dom2.5-dp.so.0:_ZN13ColladaDOM15022domInstance_with_extra15registerElementER3DAE
libcollada-dom2.5-dp.so.0:_ZN13ColladaDOM15022domInstance_with_extra6createER3DAE
libcollada-dom2.5-dp.so.0:_ZN13ColladaDOM15022domKinematics_newparam15registerElementER3DAE
libcollada-dom2.5-dp.so.0:_ZN13ColladaDOM15022domKinematics_newparam6createER3DAE
libcollada-dom2.5-dp.so.0:_ZN13ColladaDOM15022domKinematics_newparam6domInt15registerElementER3DAE
libcollada-dom2.5-dp.so.0:_ZN13ColladaDOM15022domKinematics_newparam6domInt6createER3DAE
libcollada-dom2.5-dp.so.0:_ZN13ColladaDOM15022domKinematics_newparam7domBool15registerElementER3DAE
libcollada-dom2.5-dp.so.0:_ZN13ColladaDOM15022domKinematics_newparam7domBool6createER3DAE
libcollada-dom2.5-dp.so.0:_ZN13ColladaDOM15022domKinematics_newparam8domFloat15registerElementER3DAE
libcollada-dom2.5-dp.so.0:_ZN13ColladaDOM15022domKinematics_newparam8domFloat6createER3DAE
libcollada-dom2.5-dp.so.0:_ZN13ColladaDOM15022domKinematics_newparam9domSIDREF15registerElementER3DAE
libcollada-dom2.5-dp.so.0:_ZN13ColladaDOM15022domKinematics_newparam9domSIDREF6createER3DAE
libcollada-dom2.5-dp.so.0:_ZN13ColladaDOM15022domKinematics_setparam15registerElementER3DAE
libcollada-dom2.5-dp.so.0:_ZN13ColladaDOM15022domKinematics_setparam6createER3DAE
libcollada-dom2.5-dp.so.0:_ZN13ColladaDOM15022domKinematics_setparam6domInt15registerElementER3DAE
libcollada-dom2.5-dp.so.0:_ZN13ColladaDOM15022domKinematics_setparam6domInt6createER3DAE
libcollada-dom2.5-dp.so.0:_ZN13ColladaDOM15022domKinematics_setparam7domBool15registerElementER3DAE
libcollada-dom2.5-dp.so.0:_ZN13ColladaDOM15022domKinematics_setparam7domBool6createER3DAE
libcollada-dom2.5-dp.so.0:_ZN13ColladaDOM15022domKinematics_setparam8domFloat15registerElementER3DAE
libcollada-dom2.5-dp.so.0:_ZN13ColladaDOM15022domKinematics_setparam8domFloat6createER3DAE
libcollada-dom2.5-dp.so.0:_ZN13ColladaDOM15022domKinematics_setparam9domSIDREF15registerElementER3DAE
libcollada-dom2.5-dp.so.0:_ZN13ColladaDOM15022domKinematics_setparam9domSIDREF6createER3DAE
libcollada-dom2.5-dp.so.0:_ZN13ColladaDOM15022domLibrary_controllers15registerElementER3DAE
libcollada-dom2.5-dp.so.0:_ZN13ColladaDOM15022domLibrary_controllers6createER3DAE
libcollada-dom2.5-dp.so.0:_ZN13ColladaDOM15023COLLADA_ELEMENT_AMBIENTE
libcollada-dom2.5-dp.so.0:_ZN13ColladaDOM15023COLLADA_ELEMENT_ANGULARE
libcollada-dom2.5-dp.so.0:_ZN13ColladaDOM15023COLLADA_ELEMENT_BOOL2X1E
libcollada-dom2.5-dp.so.0:_ZN13ColladaDOM15023COLLADA_ELEMENT_BOOL2X2E
libcollada-dom2.5-dp.so.0:_ZN13ColladaDOM15023COLLADA_ELEMENT_BOOL2X3E
libcollada-dom2.5-dp.so.0:_ZN13ColladaDOM15023COLLADA_ELEMENT_BOOL2X4E
libcollada-dom2.5-dp.so.0:_ZN13ColladaDOM15023COLLADA_ELEMENT_BOOL3X1E
libcollada-dom2.5-dp.so.0:_ZN13ColladaDOM15023COLLADA_ELEMENT_BOOL3X2E
libcollada-dom2.5-dp.so.0:_ZN13ColladaDOM15023COLLADA_ELEMENT_BOOL3X3E
libcollada-dom2.5-dp.so.0:_ZN13ColladaDOM15023COLLADA_ELEMENT_BOOL3X4E
libcollada-dom2.5-dp.so.0:_ZN13ColladaDOM15023COLLADA_ELEMENT_BOOL4X1E
libcollada-dom2.5-dp.so.0:_ZN13ColladaDOM15023COLLADA_ELEMENT_BOOL4X2E
libcollada-dom2.5-dp.so.0:_ZN13ColladaDOM15023COLLADA_ELEMENT_BOOL4X3E
libcollada-dom2.5-dp.so.0:_ZN13ColladaDOM15023COLLADA_ELEMENT_BOOL4X4E
libcollada-dom2.5-dp.so.0:_ZN13ColladaDOM15023COLLADA_ELEMENT_CAPSULEE
libcollada-dom2.5-dp.so.0:_ZN13ColladaDOM15023COLLADA_ELEMENT_CHANNELE
libcollada-dom2.5-dp.so.0:_ZN13ColladaDOM15023COLLADA_ELEMENT_COLLADAE
libcollada-dom2.5-dp.so.0:_ZN13ColladaDOM15023COLLADA_ELEMENT_CREATEDE
libcollada-dom2.5-dp.so.0:_ZN13ColladaDOM15023COLLADA_ELEMENT_DAMPINGE
libcollada-dom2.5-dp.so.0:_ZN13ColladaDOM15023COLLADA_ELEMENT_DENSITYE
libcollada-dom2.5-dp.so.0:_ZN13ColladaDOM15023COLLADA_ELEMENT_DIFFUSEE
libcollada-dom2.5-dp.so.0:_ZN13ColladaDOM15023COLLADA_ELEMENT_DYNAMICE
libcollada-dom2.5-dp.so.0:_ZN13ColladaDOM15023COLLADA_ELEMENT_ELLIPSEE
libcollada-dom2.5-dp.so.0:_ZN13ColladaDOM15023COLLADA_ELEMENT_ENABLEDE
libcollada-dom2.5-dp.so.0:_ZN13ColladaDOM15023COLLADA_ELEMENT_FOG_ENDE
libcollada-dom2.5-dp.so.0:_ZN13ColladaDOM15023COLLADA_ELEMENT_FORMULAE
libcollada-dom2.5-dp.so.0:_ZN13ColladaDOM15023COLLADA_ELEMENT_GRAVITYE
libcollada-dom2.5-dp.so.0:_ZN13ColladaDOM15023COLLADA_ELEMENT_HALF2X1E
libcollada-dom2.5-dp.so.0:_ZN13ColladaDOM15023COLLADA_ELEMENT_HALF2X2E
libcollada-dom2.5-dp.so.0:_ZN13ColladaDOM15023COLLADA_ELEMENT_HALF2X3E
libcollada-dom2.5-dp.so.0:_ZN13ColladaDOM15023COLLADA_ELEMENT_HALF2X4E
libcollada-dom2.5-dp.so.0:_ZN13ColladaDOM15023COLLADA_ELEMENT_HALF3X1E
libcollada-dom2.5-dp.so.0:_ZN13ColladaDOM15023COLLADA_ELEMENT_HALF3X2E
libcollada-dom2.5-dp.so.0:_ZN13ColladaDOM15023COLLADA_ELEMENT_HALF3X3E
libcollada-dom2.5-dp.so.0:_ZN13ColladaDOM15023COLLADA_ELEMENT_HALF3X4E
libcollada-dom2.5-dp.so.0:_ZN13ColladaDOM15023COLLADA_ELEMENT_HALF4X1E
libcollada-dom2.5-dp.so.0:_ZN13ColladaDOM15023COLLADA_ELEMENT_HALF4X2E
libcollada-dom2.5-dp.so.0:_ZN13ColladaDOM15023COLLADA_ELEMENT_HALF4X3E
libcollada-dom2.5-dp.so.0:_ZN13ColladaDOM15023COLLADA_ELEMENT_HALF4X4E
libcollada-dom2.5-dp.so.0:_ZN13ColladaDOM15023COLLADA_ELEMENT_INCLUDEE
libcollada-dom2.5-dp.so.0:_ZN13ColladaDOM15023COLLADA_ELEMENT_INERTIAE
libcollada-dom2.5-dp.so.0:_ZN13ColladaDOM15023COLLADA_ELEMENT_LAMBERTE
libcollada-dom2.5-dp.so.0:_ZN13ColladaDOM15023COLLADA_ELEMENT_PCURVESE
libcollada-dom2.5-dp.so.0:_ZN13ColladaDOM15023COLLADA_ELEMENT_PROGRAME
libcollada-dom2.5-dp.so.0:_ZN13ColladaDOM15023COLLADA_ELEMENT_SAMPLERE
libcollada-dom2.5-dp.so.0:_ZN13ColladaDOM15023COLLADA_ELEMENT_SCISSORE
libcollada-dom2.5-dp.so.0:_ZN13ColladaDOM15023COLLADA_ELEMENT_SOURCESE
libcollada-dom2.5-dp.so.0:_ZN13ColladaDOM15023COLLADA_ELEMENT_SRC_RGBE
libcollada-dom2.5-dp.so.0:_ZN13ColladaDOM15023COLLADA_ELEMENT_SUBJECTE
libcollada-dom2.5-dp.so.0:_ZN13ColladaDOM15023COLLADA_ELEMENT_SURFACEE
libcollada-dom2.5-dp.so.0:_ZN13ColladaDOM15023COLLADA_ELEMENT_TARGETSE
libcollada-dom2.5-dp.so.0:_ZN13ColladaDOM15023COLLADA_ELEMENT_TEXTUREE
libcollada-dom2.5-dp.so.0:_ZN13ColladaDOM15023COLLADA_ELEMENT_TRIFANSE
libcollada-dom2.5-dp.so.0:_ZN13ColladaDOM15023COLLADA_ELEMENT_UP_AXISE
libcollada-dom2.5-dp.so.0:_ZN13ColladaDOM15023COLLADA_TYPE_ALPHA_FUNCE
libcollada-dom2.5-dp.so.0:_ZN13ColladaDOM15023COLLADA_TYPE_ATTACHMENTE
libcollada-dom2.5-dp.so.0:_ZN13ColladaDOM15023COLLADA_TYPE_BLEND_FUNCE
libcollada-dom2.5-dp.so.0:_ZN13ColladaDOM15023COLLADA_TYPE_BOOL_ARRAYE
libcollada-dom2.5-dp.so.0:_ZN13ColladaDOM15023COLLADA_TYPE_CLIP_PLANEE
libcollada-dom2.5-dp.so.0:_ZN13ColladaDOM15023COLLADA_TYPE_COLOR_MASKE
libcollada-dom2.5-dp.so.0:_ZN13ColladaDOM15023COLLADA_TYPE_CONTROLLERE
libcollada-dom2.5-dp.so.0:_ZN13ColladaDOM15023COLLADA_TYPE_DEPTH_FUNCE
libcollada-dom2.5-dp.so.0:_ZN13ColladaDOM15023COLLADA_TYPE_DEPTH_MASKE
libcollada-dom2.5-dp.so.0:_ZN13ColladaDOM15023COLLADA_TYPE_DEST_ALPHAE
libcollada-dom2.5-dp.so.0:_ZN13ColladaDOM15023COLLADA_TYPE_FOG_ENABLEE
libcollada-dom2.5-dp.so.0:_ZN13ColladaDOM15023COLLADA_TYPE_FRONT_FACEE
libcollada-dom2.5-dp.so.0:_ZN13ColladaDOM15023COLLADA_TYPE_FX_INCLUDEE
libcollada-dom2.5-dp.so.0:_ZN13ColladaDOM15023COLLADA_TYPE_FX_PROFILEE
libcollada-dom2.5-dp.so.0:_ZN13ColladaDOM15023COLLADA_TYPE_FX_SAMPLERE
libcollada-dom2.5-dp.so.0:_ZN13ColladaDOM15023COLLADA_TYPE_FX_SOURCESE
libcollada-dom2.5-dp.so.0:_ZN13ColladaDOM15023COLLADA_TYPE_GLES2_PASSE
libcollada-dom2.5-dp.so.0:_ZN13ColladaDOM15023COLLADA_TYPE_GLES_PARAME
libcollada-dom2.5-dp.so.0:_ZN13ColladaDOM15023COLLADA_TYPE_GLSL_ARRAYE
libcollada-dom2.5-dp.so.0:_ZN13ColladaDOM15023COLLADA_TYPE_GLSL_VALUEE
libcollada-dom2.5-dp.so.0:_ZN13ColladaDOM15023COLLADA_TYPE_IMAGE_MIPSE
libcollada-dom2.5-dp.so.0:_ZN13ColladaDOM15023COLLADA_TYPE_KINEMATICSE
libcollada-dom2.5-dp.so.0:_ZN13ColladaDOM15023COLLADA_TYPE_LIMITS_SUBE
libcollada-dom2.5-dp.so.0:_ZN13ColladaDOM15023COLLADA_TYPE_LINESTRIPSE
libcollada-dom2.5-dp.so.0:_ZN13ColladaDOM15023COLLADA_TYPE_LINE_WIDTHE
libcollada-dom2.5-dp.so.0:_ZN13ColladaDOM15023COLLADA_TYPE_MASS_FRAMEE
libcollada-dom2.5-dp.so.0:_ZN13ColladaDOM15023COLLADA_TYPE_NAME_ARRAYE
libcollada-dom2.5-dp.so.0:_ZN13ColladaDOM15023COLLADA_TYPE_POINT_SIZEE
libcollada-dom2.5-dp.so.0:_ZN13ColladaDOM15023COLLADA_TYPE_PROFILE_CGE
libcollada-dom2.5-dp.so.0:_ZN13ColladaDOM15023COLLADA_TYPE_RENDERABLEE
libcollada-dom2.5-dp.so.0:_ZN13ColladaDOM15023COLLADA_TYPE_RIGID_BODYE
libcollada-dom2.5-dp.so.0:_ZN13ColladaDOM15023COLLADA_TYPE_SIZE_EXACTE
libcollada-dom2.5-dp.so.0:_ZN13ColladaDOM15023COLLADA_TYPE_SIZE_RATIOE
libcollada-dom2.5-dp.so.0:_ZN13ColladaDOM15023COLLADA_TYPE_STENCIL_OPE
libcollada-dom2.5-dp.so.0:_ZN13ColladaDOM15023COMMON_PROFILE_INPUT_UVE
libcollada-dom2.5-dp.so.0:_ZN13ColladaDOM15023domCommon_bool_or_param15registerElementER3DAE
libcollada-dom2.5-dp.so.0:_ZN13ColladaDOM15023domCommon_bool_or_param6createER3DAE
libcollada-dom2.5-dp.so.0:_ZN13ColladaDOM15023domCommon_bool_or_param7domBool15registerElementER3DAE
libcollada-dom2.5-dp.so.0:_ZN13ColladaDOM15023domCommon_bool_or_param7domBool6createER3DAE
libcollada-dom2.5-dp.so.0:_ZN13ColladaDOM15023domGl_pipeline_settings10domFog_end15registerElementER3DAE
libcollada-dom2.5-dp.so.0:_ZN13ColladaDOM15023domGl_pipeline_settings10domFog_end6createER3DAE
libcollada-dom2.5-dp.so.0:_ZN13ColladaDOM15023domGl_pipeline_settings10domScissor15registerElementER3DAE
libcollada-dom2.5-dp.so.0:_ZN13ColladaDOM15023domGl_pipeline_settings10domScissor6createER3DAE
libcollada-dom2.5-dp.so.0:_ZN13ColladaDOM15023domGl_pipeline_settings11domFog_mode15registerElementER3DAE
libcollada-dom2.5-dp.so.0:_ZN13ColladaDOM15023domGl_pipeline_settings11domFog_mode6createER3DAE
libcollada-dom2.5-dp.so.0:_ZN13ColladaDOM15023domGl_pipeline_settings11domLogic_op15registerElementER3DAE
libcollada-dom2.5-dp.so.0:_ZN13ColladaDOM15023domGl_pipeline_settings11domLogic_op6createER3DAE
libcollada-dom2.5-dp.so.0:_ZN13ColladaDOM15023domGl_pipeline_settings12domCull_face15registerElementER3DAE
libcollada-dom2.5-dp.so.0:_ZN13ColladaDOM15023domGl_pipeline_settings12domCull_face6createER3DAE
libcollada-dom2.5-dp.so.0:_ZN13ColladaDOM15023domGl_pipeline_settings12domFog_color15registerElementER3DAE
libcollada-dom2.5-dp.so.0:_ZN13ColladaDOM15023domGl_pipeline_settings12domFog_color6createER3DAE
libcollada-dom2.5-dp.so.0:_ZN13ColladaDOM15023domGl_pipeline_settings12domFog_start15registerElementER3DAE
libcollada-dom2.5-dp.so.0:_ZN13ColladaDOM15023domGl_pipeline_settings12domFog_start6createER3DAE
libcollada-dom2.5-dp.so.0:_ZN13ColladaDOM15023domGl_pipeline_settings12domTexture1D15registerElementER3DAE
libcollada-dom2.5-dp.so.0:_ZN13ColladaDOM15023domGl_pipeline_settings12domTexture1D6createER3DAE
libcollada-dom2.5-dp.so.0:_ZN13ColladaDOM15023domGl_pipeline_settings12domTexture1D8domParam15registerElementER3DAE
libcollada-dom2.5-dp.so.0:_ZN13ColladaDOM15023domGl_pipeline_settings12domTexture1D8domParam6createER3DAE
libcollada-dom2.5-dp.so.0:_ZN13ColladaDOM15023domGl_pipeline_settings12domTexture2D15registerElementER3DAE
libcollada-dom2.5-dp.so.0:_ZN13ColladaDOM15023domGl_pipeline_settings12domTexture2D6createER3DAE
libcollada-dom2.5-dp.so.0:_ZN13ColladaDOM15023domGl_pipeline_settings12domTexture2D8domParam15registerElementER3DAE
libcollada-dom2.5-dp.so.0:_ZN13ColladaDOM15023domGl_pipeline_settings12domTexture2D8domParam6createER3DAE
libcollada-dom2.5-dp.so.0:_ZN13ColladaDOM15023domGl_pipeline_settings12domTexture3D15registerElementER3DAE
libcollada-dom2.5-dp.so.0:_ZN13ColladaDOM15023domGl_pipeline_settings12domTexture3D6createER3DAE
libcollada-dom2.5-dp.so.0:_ZN13ColladaDOM15023domGl_pipeline_settings12domTexture3D8domParam15registerElementER3DAE
libcollada-dom2.5-dp.so.0:_ZN13ColladaDOM15023domGl_pipeline_settings12domTexture3D8domParam6createER3DAE
libcollada-dom2.5-dp.so.0:_ZN13ColladaDOM15023domGl_pipeline_settings13domAlpha_func15registerElementER3DAE
libcollada-dom2.5-dp.so.0:_ZN13ColladaDOM15023domGl_pipeline_settings13domAlpha_func6createER3DAE
libcollada-dom2.5-dp.so.0:_ZN13ColladaDOM15023domGl_pipeline_settings13domAlpha_func7domFunc15registerElementER3DAE
libcollada-dom2.5-dp.so.0:_ZN13ColladaDOM15023domGl_pipeline_settings13domAlpha_func7domFunc6createER3DAE
libcollada-dom2.5-dp.so.0:_ZN13ColladaDOM15023domGl_pipeline_settings13domAlpha_func8domValue15registerElementER3DAE
libcollada-dom2.5-dp.so.0:_ZN13ColladaDOM15023domGl_pipeline_settings13domAlpha_func8domValue6createER3DAE
libcollada-dom2.5-dp.so.0:_ZN13ColladaDOM15023domGl_pipeline_settings13domBlend_func15registerElementER3DAE
libcollada-dom2.5-dp.so.0:_ZN13ColladaDOM15023domGl_pipeline_settings13domBlend_func6createER3DAE
libcollada-dom2.5-dp.so.0:_ZN13ColladaDOM15023domGl_pipeline_settings13domBlend_func6domSrc15registerElementER3DAE
libcollada-dom2.5-dp.so.0:_ZN13ColladaDOM15023domGl_pipeline_settings13domBlend_func6domSrc6createER3DAE
libcollada-dom2.5-dp.so.0:_ZN13ColladaDOM15023domGl_pipeline_settings13domBlend_func7domDest15registerElementER3DAE
libcollada-dom2.5-dp.so.0:_ZN13ColladaDOM15023domGl_pipeline_settings13domBlend_func7domDest6createER3DAE
libcollada-dom2.5-dp.so.0:_ZN13ColladaDOM15023domGl_pipeline_settings13domClip_plane15registerElementER3DAE
libcollada-dom2.5-dp.so.0:_ZN13ColladaDOM15023domGl_pipeline_settings13domClip_plane6createER3DAE
libcollada-dom2.5-dp.so.0:_ZN13ColladaDOM15023domGl_pipeline_settings13domColor_mask15registerElementER3DAE
libcollada-dom2.5-dp.so.0:_ZN13ColladaDOM15023domGl_pipeline_settings13domColor_mask6createER3DAE
libcollada-dom2.5-dp.so.0:_ZN13ColladaDOM15023domGl_pipeline_settings13domDepth_func15registerElementER3DAE
libcollada-dom2.5-dp.so.0:_ZN13ColladaDOM15023domGl_pipeline_settings13domDepth_func6createER3DAE
libcollada-dom2.5-dp.so.0:_ZN13ColladaDOM15023domGl_pipeline_settings13domDepth_mask15registerElementER3DAE
libcollada-dom2.5-dp.so.0:_ZN13ColladaDOM15023domGl_pipeline_settings13domDepth_mask6createER3DAE
libcollada-dom2.5-dp.so.0:_ZN13ColladaDOM15023domGl_pipeline_settings13domFog_enable15registerElementER3DAE
libcollada-dom2.5-dp.so.0:_ZN13ColladaDOM15023domGl_pipeline_settings13domFog_enable6createER3DAE
libcollada-dom2.5-dp.so.0:_ZN13ColladaDOM15023domGl_pipeline_settings13domFront_face15registerElementER3DAE
libcollada-dom2.5-dp.so.0:_ZN13ColladaDOM15023domGl_pipeline_settings13domFront_face6createER3DAE
libcollada-dom2.5-dp.so.0:_ZN13ColladaDOM15023domGl_pipeline_settings13domLine_width15registerElementER3DAE
libcollada-dom2.5-dp.so.0:_ZN13ColladaDOM15023domGl_pipeline_settings13domLine_width6createER3DAE
libcollada-dom2.5-dp.so.0:_ZN13ColladaDOM15023domGl_pipeline_settings13domPoint_size15registerElementER3DAE
libcollada-dom2.5-dp.so.0:_ZN13ColladaDOM15023domGl_pipeline_settings13domPoint_size6createER3DAE
libcollada-dom2.5-dp.so.0:_ZN13ColladaDOM15023domGl_pipeline_settings13domStencil_op15registerElementER3DAE
libcollada-dom2.5-dp.so.0:_ZN13ColladaDOM15023domGl_pipeline_settings13domStencil_op6createER3DAE
libcollada-dom2.5-dp.so.0:_ZN13ColladaDOM15023domGl_pipeline_settings13domStencil_op7domFail15registerElementER3DAE
libcollada-dom2.5-dp.so.0:_ZN13ColladaDOM15023domGl_pipeline_settings13domStencil_op7domFail6createER3DAE
libcollada-dom2.5-dp.so.0:_ZN13ColladaDOM15023domGl_pipeline_settings13domStencil_op8domZfail15registerElementER3DAE
libcollada-dom2.5-dp.so.0:_ZN13ColladaDOM15023domGl_pipeline_settings13domStencil_op8domZfail6createER3DAE
libcollada-dom2.5-dp.so.0:_ZN13ColladaDOM15023domGl_pipeline_settings13domStencil_op8domZpass15registerElementER3DAE
libcollada-dom2.5-dp.so.0:_ZN13ColladaDOM15023domGl_pipeline_settings13domStencil_op8domZpass6createER3DAE
libcollada-dom2.5-dp.so.0:_ZN13ColladaDOM15023domGl_pipeline_settings14domBlend_color15registerElementER3DAE
libcollada-dom2.5-dp.so.0:_ZN13ColladaDOM15023domGl_pipeline_settings14domBlend_color6createER3DAE
libcollada-dom2.5-dp.so.0:_ZN13ColladaDOM15023domGl_pipeline_settings14domDepth_range15registerElementER3DAE
libcollada-dom2.5-dp.so.0:_ZN13ColladaDOM15023domGl_pipeline_settings14domDepth_range6createER3DAE
libcollada-dom2.5-dp.so.0:_ZN13ColladaDOM15023domGl_pipeline_settings14domFog_density15registerElementER3DAE
libcollada-dom2.5-dp.so.0:_ZN13ColladaDOM15023domGl_pipeline_settings14domFog_density6createER3DAE
libcollada-dom2.5-dp.so.0:_ZN13ColladaDOM15023domGl_pipeline_settings14domShade_model15registerElementER3DAE
libcollada-dom2.5-dp.so.0:_ZN13ColladaDOM15023domGl_pipeline_settings14domShade_model6createER3DAE
libcollada-dom2.5-dp.so.0:_ZN13ColladaDOM15023domGl_pipeline_settings14domTextureCUBE15registerElementER3DAE
libcollada-dom2.5-dp.so.0:_ZN13ColladaDOM15023domGl_pipeline_settings14domTextureCUBE6createER3DAE
libcollada-dom2.5-dp.so.0:_ZN13ColladaDOM15023domGl_pipeline_settings14domTextureCUBE8domParam15registerElementER3DAE
libcollada-dom2.5-dp.so.0:_ZN13ColladaDOM15023domGl_pipeline_settings14domTextureCUBE8domParam6createER3DAE
libcollada-dom2.5-dp.so.0:_ZN13ColladaDOM15023domGl_pipeline_settings14domTextureRECT15registerElementER3DAE
libcollada-dom2.5-dp.so.0:_ZN13ColladaDOM15023domGl_pipeline_settings14domTextureRECT6createER3DAE
libcollada-dom2.5-dp.so.0:_ZN13ColladaDOM15023domGl_pipeline_settings14domTextureRECT8domParam15registerElementER3DAE
libcollada-dom2.5-dp.so.0:_ZN13ColladaDOM15023domGl_pipeline_settings14domTextureRECT8domParam6createER3DAE
libcollada-dom2.5-dp.so.0:_ZN13ColladaDOM15023domGl_pipeline_settings15domBlend_enable15registerElementER3DAE
libcollada-dom2.5-dp.so.0:_ZN13ColladaDOM15023domGl_pipeline_settings15domBlend_enable6createER3DAE
libcollada-dom2.5-dp.so.0:_ZN13ColladaDOM15023domGl_pipeline_settings15domDepth_bounds15registerElementER3DAE
libcollada-dom2.5-dp.so.0:_ZN13ColladaDOM15023domGl_pipeline_settings15domDepth_bounds6createER3DAE
libcollada-dom2.5-dp.so.0:_ZN13ColladaDOM15023domGl_pipeline_settings15domLight_enable15registerElementER3DAE
libcollada-dom2.5-dp.so.0:_ZN13ColladaDOM15023domGl_pipeline_settings15domLight_enable6createER3DAE
libcollada-dom2.5-dp.so.0:_ZN13ColladaDOM15023domGl_pipeline_settings15domLine_stipple15registerElementER3DAE
libcollada-dom2.5-dp.so.0:_ZN13ColladaDOM15023domGl_pipeline_settings15domLine_stipple6createER3DAE
libcollada-dom2.5-dp.so.0:_ZN13ColladaDOM15023domGl_pipeline_settings15domPolygon_mode15registerElementER3DAE
libcollada-dom2.5-dp.so.0:_ZN13ColladaDOM15023domGl_pipeline_settings15domPolygon_mode6createER3DAE
libcollada-dom2.5-dp.so.0:_ZN13ColladaDOM15023domGl_pipeline_settings15domPolygon_mode7domFace15registerElementER3DAE
libcollada-dom2.5-dp.so.0:_ZN13ColladaDOM15023domGl_pipeline_settings15domPolygon_mode7domFace6createER3DAE
libcollada-dom2.5-dp.so.0:_ZN13ColladaDOM15023domGl_pipeline_settings15domPolygon_mode7domMode15registerElementER3DAE
libcollada-dom2.5-dp.so.0:_ZN13ColladaDOM15023domGl_pipeline_settings15domPolygon_mode7domMode6createER3DAE
libcollada-dom2.5-dp.so.0:_ZN13ColladaDOM15023domGl_pipeline_settings15domStencil_func15registerElementER3DAE
libcollada-dom2.5-dp.so.0:_ZN13ColladaDOM15023domGl_pipeline_settings15domStencil_func6createER3DAE
libcollada-dom2.5-dp.so.0:_ZN13ColladaDOM15023domGl_pipeline_settings15domStencil_func6domRef15registerElementER3DAE
libcollada-dom2.5-dp.so.0:_ZN13ColladaDOM15023domGl_pipeline_settings15domStencil_func6domRef6createER3DAE
libcollada-dom2.5-dp.so.0:_ZN13ColladaDOM15023domGl_pipeline_settings15domStencil_func7domFunc15registerElementER3DAE
libcollada-dom2.5-dp.so.0:_ZN13ColladaDOM15023domGl_pipeline_settings15domStencil_func7domFunc6createER3DAE
libcollada-dom2.5-dp.so.0:_ZN13ColladaDOM15023domGl_pipeline_settings15domStencil_func7domMask15registerElementER3DAE
libcollada-dom2.5-dp.so.0:_ZN13ColladaDOM15023domGl_pipeline_settings15domStencil_func7domMask6createER3DAE
libcollada-dom2.5-dp.so.0:_ZN13ColladaDOM15023domGl_pipeline_settings15domStencil_mask15registerElementER3DAE
libcollada-dom2.5-dp.so.0:_ZN13ColladaDOM15023domGl_pipeline_settings15domStencil_mask6createER3DAE
libcollada-dom2.5-dp.so.0:_ZN13ColladaDOM15023domGl_pipeline_settings15domTextureDEPTH15registerElementER3DAE
libcollada-dom2.5-dp.so.0:_ZN13ColladaDOM15023domGl_pipeline_settings15domTextureDEPTH6createER3DAE
libcollada-dom2.5-dp.so.0:_ZN13ColladaDOM15023domGl_pipeline_settings15domTextureDEPTH8domParam15registerElementER3DAE
libcollada-dom2.5-dp.so.0:_ZN13ColladaDOM15023domGl_pipeline_settings15domTextureDEPTH8domParam6createER3DAE
libcollada-dom2.5-dp.so.0:_ZN13ColladaDOM15023domGl_pipeline_settings15registerElementER3DAE
libcollada-dom2.5-dp.so.0:_ZN13ColladaDOM15023domGl_pipeline_settings16domDither_enable15registerElementER3DAE
libcollada-dom2.5-dp.so.0:_ZN13ColladaDOM15023domGl_pipeline_settings16domDither_enable6createER3DAE
libcollada-dom2.5-dp.so.0:_ZN13ColladaDOM15023domGl_pipeline_settings16domFog_coord_src15registerElementER3DAE
libcollada-dom2.5-dp.so.0:_ZN13ColladaDOM15023domGl_pipeline_settings16domFog_coord_src6createER3DAE
libcollada-dom2.5-dp.so.0:_ZN13ColladaDOM15023domGl_pipeline_settings16domLight_ambient15registerElementER3DAE
libcollada-dom2.5-dp.so.0:_ZN13ColladaDOM15023domGl_pipeline_settings16domLight_ambient6createER3DAE
libcollada-dom2.5-dp.so.0:_ZN13ColladaDOM15023domGl_pipeline_settings16domLight_diffuse15registerElementER3DAE
libcollada-dom2.5-dp.so.0:_ZN13ColladaDOM15023domGl_pipeline_settings16domLight_diffuse6createER3DAE
libcollada-dom2.5-dp.so.0:_ZN13ColladaDOM15023domGl_pipeline_settings17domBlend_equation15registerElementER3DAE
libcollada-dom2.5-dp.so.0:_ZN13ColladaDOM15023domGl_pipeline_settings17domBlend_equation6createER3DAE
libcollada-dom2.5-dp.so.0:_ZN13ColladaDOM15023domGl_pipeline_settings17domColor_material15registerElementER3DAE
libcollada-dom2.5-dp.so.0:_ZN13ColladaDOM15023domGl_pipeline_settings17domColor_material6createER3DAE
libcollada-dom2.5-dp.so.0:_ZN13ColladaDOM15023domGl_pipeline_settings17domColor_material7domFace15registerElementER3DAE
libcollada-dom2.5-dp.so.0:_ZN13ColladaDOM15023domGl_pipeline_settings17domColor_material7domFace6createER3DAE
libcollada-dom2.5-dp.so.0:_ZN13ColladaDOM15023domGl_pipeline_settings17domColor_material7domMode15registerElementER3DAE
libcollada-dom2.5-dp.so.0:_ZN13ColladaDOM15023domGl_pipeline_settings17domColor_material7domMode6createER3DAE
libcollada-dom2.5-dp.so.0:_ZN13ColladaDOM15023domGl_pipeline_settings17domLight_position15registerElementER3DAE
libcollada-dom2.5-dp.so.0:_ZN13ColladaDOM15023domGl_pipeline_settings17domLight_position6createER3DAE
libcollada-dom2.5-dp.so.0:_ZN13ColladaDOM15023domGl_pipeline_settings17domLight_specular15registerElementER3DAE
libcollada-dom2.5-dp.so.0:_ZN13ColladaDOM15023domGl_pipeline_settings17domLight_specular6createER3DAE
libcollada-dom2.5-dp.so.0:_ZN13ColladaDOM15023domGl_pipeline_settings17domPoint_size_max15registerElementER3DAE
libcollada-dom2.5-dp.so.0:_ZN13ColladaDOM15023domGl_pipeline_settings17domPoint_size_max6createER3DAE
libcollada-dom2.5-dp.so.0:_ZN13ColladaDOM15023domGl_pipeline_settings17domPoint_size_min15registerElementER3DAE
libcollada-dom2.5-dp.so.0:_ZN13ColladaDOM15023domGl_pipeline_settings17domPoint_size_min6createER3DAE
libcollada-dom2.5-dp.so.0:_ZN13ColladaDOM15023domGl_pipeline_settings17domPolygon_offset15registerElementER3DAE
libcollada-dom2.5-dp.so.0:_ZN13ColladaDOM15023domGl_pipeline_settings17domPolygon_offset6createER3DAE
libcollada-dom2.5-dp.so.0:_ZN13ColladaDOM15023domGl_pipeline_settings18domLighting_enable15registerElementER3DAE
libcollada-dom2.5-dp.so.0:_ZN13ColladaDOM15023domGl_pipeline_settings18domLighting_enable6createER3DAE
libcollada-dom2.5-dp.so.0:_ZN13ColladaDOM15023domGl_pipeline_settings18domLogic_op_enable15registerElementER3DAE
libcollada-dom2.5-dp.so.0:_ZN13ColladaDOM15023domGl_pipeline_settings18domLogic_op_enable6createER3DAE
libcollada-dom2.5-dp.so.0:_ZN13ColladaDOM15023domGl_pipeline_settings19domCull_face_enable15registerElementER3DAE
libcollada-dom2.5-dp.so.0:_ZN13ColladaDOM15023domGl_pipeline_settings19domCull_face_enable6createER3DAE
libcollada-dom2.5-dp.so.0:_ZN13ColladaDOM15023domGl_pipeline_settings19domMaterial_ambient15registerElementER3DAE
libcollada-dom2.5-dp.so.0:_ZN13ColladaDOM15023domGl_pipeline_settings19domMaterial_ambient6createER3DAE
libcollada-dom2.5-dp.so.0:_ZN13ColladaDOM15023domGl_pipeline_settings19domMaterial_diffuse15registerElementER3DAE
libcollada-dom2.5-dp.so.0:_ZN13ColladaDOM15023domGl_pipeline_settings19domMaterial_diffuse6createER3DAE
libcollada-dom2.5-dp.so.0:_ZN13ColladaDOM15023domGl_pipeline_settings19domNormalize_enable15registerElementER3DAE
libcollada-dom2.5-dp.so.0:_ZN13ColladaDOM15023domGl_pipeline_settings19domNormalize_enable6createER3DAE
libcollada-dom2.5-dp.so.0:_ZN13ColladaDOM15023domGl_pipeline_settings19domTexture1D_enable15registerElementER3DAE
libcollada-dom2.5-dp.so.0:_ZN13ColladaDOM15023domGl_pipeline_settings19domTexture1D_enable6createER3DAE
libcollada-dom2.5-dp.so.0:_ZN13ColladaDOM15023domGl_pipeline_settings19domTexture2D_enable15registerElementER3DAE
libcollada-dom2.5-dp.so.0:_ZN13ColladaDOM15023domGl_pipeline_settings19domTexture2D_enable6createER3DAE
libcollada-dom2.5-dp.so.0:_ZN13ColladaDOM15023domGl_pipeline_settings19domTexture3D_enable15registerElementER3DAE
libcollada-dom2.5-dp.so.0:_ZN13ColladaDOM15023domGl_pipeline_settings19domTexture3D_enable6createER3DAE
libcollada-dom2.5-dp.so.0:_ZN13ColladaDOM15023domGl_pipeline_settings19domTexture_env_mode15registerElementER3DAE
libcollada-dom2.5-dp.so.0:_ZN13ColladaDOM15023domGl_pipeline_settings19domTexture_env_mode6createER3DAE
libcollada-dom2.5-dp.so.0:_ZN13ColladaDOM15023domGl_pipeline_settings20domAlpha_test_enable15registerElementER3DAE
libcollada-dom2.5-dp.so.0:_ZN13ColladaDOM15023domGl_pipeline_settings20domAlpha_test_enable6createER3DAE
libcollada-dom2.5-dp.so.0:_ZN13ColladaDOM15023domGl_pipeline_settings20domClip_plane_enable15registerElementER3DAE
libcollada-dom2.5-dp.so.0:_ZN13ColladaDOM15023domGl_pipeline_settings20domClip_plane_enable6createER3DAE
libcollada-dom2.5-dp.so.0:_ZN13ColladaDOM15023domGl_pipeline_settings20domDepth_test_enable15registerElementER3DAE
libcollada-dom2.5-dp.so.0:_ZN13ColladaDOM15023domGl_pipeline_settings20domDepth_test_enable6createER3DAE
libcollada-dom2.5-dp.so.0:_ZN13ColladaDOM15023domGl_pipeline_settings20domLight_spot_cutoff15registerElementER3DAE
libcollada-dom2.5-dp.so.0:_ZN13ColladaDOM15023domGl_pipeline_settings20domLight_spot_cutoff6createER3DAE
libcollada-dom2.5-dp.so.0:_ZN13ColladaDOM15023domGl_pipeline_settings20domMaterial_emission15registerElementER3DAE
libcollada-dom2.5-dp.so.0:_ZN13ColladaDOM15023domGl_pipeline_settings20domMaterial_emission6createER3DAE
libcollada-dom2.5-dp.so.0:_ZN13ColladaDOM15023domGl_pipeline_settings20domMaterial_specular15registerElementER3DAE
libcollada-dom2.5-dp.so.0:_ZN13ColladaDOM15023domGl_pipeline_settings20domMaterial_specular6createER3DAE
libcollada-dom2.5-dp.so.0:_ZN13ColladaDOM15023domGl_pipeline_settings20domModel_view_matrix15registerElementER3DAE
libcollada-dom2.5-dp.so.0:_ZN13ColladaDOM15023domGl_pipeline_settings20domModel_view_matrix6createER3DAE
libcollada-dom2.5-dp.so.0:_ZN13ColladaDOM15023domGl_pipeline_settings20domProjection_matrix15registerElementER3DAE
libcollada-dom2.5-dp.so.0:_ZN13ColladaDOM15023domGl_pipeline_settings20domProjection_matrix6createER3DAE
libcollada-dom2.5-dp.so.0:_ZN13ColladaDOM15023domGl_pipeline_settings20domTexture_env_color15registerElementER3DAE
libcollada-dom2.5-dp.so.0:_ZN13ColladaDOM15023domGl_pipeline_settings20domTexture_env_color6createER3DAE
libcollada-dom2.5-dp.so.0:_ZN13ColladaDOM15023domGl_pipeline_settings21domDepth_clamp_enable15registerElementER3DAE
libcollada-dom2.5-dp.so.0:_ZN13ColladaDOM15023domGl_pipeline_settings21domDepth_clamp_enable6createER3DAE
libcollada-dom2.5-dp.so.0:_ZN13ColladaDOM15023domGl_pipeline_settings21domLine_smooth_enable15registerElementER3DAE
libcollada-dom2.5-dp.so.0:_ZN13ColladaDOM15023domGl_pipeline_settings21domLine_smooth_enable6createER3DAE
libcollada-dom2.5-dp.so.0:_ZN13ColladaDOM15023domGl_pipeline_settings21domMaterial_shininess15registerElementER3DAE
libcollada-dom2.5-dp.so.0:_ZN13ColladaDOM15023domGl_pipeline_settings21domMaterial_shininess6createER3DAE
libcollada-dom2.5-dp.so.0:_ZN13ColladaDOM15023domGl_pipeline_settings21domMultisample_enable15registerElementER3DAE
libcollada-dom2.5-dp.so.0:_ZN13ColladaDOM15023domGl_pipeline_settings21domMultisample_enable6createER3DAE
libcollada-dom2.5-dp.so.0:_ZN13ColladaDOM15023domGl_pipeline_settings21domTextureCUBE_enable15registerElementER3DAE
libcollada-dom2.5-dp.so.0:_ZN13ColladaDOM15023domGl_pipeline_settings21domTextureCUBE_enable6createER3DAE
libcollada-dom2.5-dp.so.0:_ZN13ColladaDOM15023domGl_pipeline_settings21domTextureRECT_enable15registerElementER3DAE
libcollada-dom2.5-dp.so.0:_ZN13ColladaDOM15023domGl_pipeline_settings21domTextureRECT_enable6createER3DAE
libcollada-dom2.5-dp.so.0:_ZN13ColladaDOM15023domGl_pipeline_settings22domBlend_func_separate10domSrc_rgb15registerElementER3DAE
libcollada-dom2.5-dp.so.0:_ZN13ColladaDOM15023domGl_pipeline_settings22domBlend_func_separate10domSrc_rgb6createER3DAE
libcollada-dom2.5-dp.so.0:_ZN13ColladaDOM15023domGl_pipeline_settings22domBlend_func_separate11domDest_rgb15registerElementER3DAE
libcollada-dom2.5-dp.so.0:_ZN13ColladaDOM15023domGl_pipeline_settings22domBlend_func_separate11domDest_rgb6createER3DAE
libcollada-dom2.5-dp.so.0:_ZN13ColladaDOM15023domGl_pipeline_settings22domBlend_func_separate12domSrc_alpha15registerElementER3DAE
libcollada-dom2.5-dp.so.0:_ZN13ColladaDOM15023domGl_pipeline_settings22domBlend_func_separate12domSrc_alpha6createER3DAE
libcollada-dom2.5-dp.so.0:_ZN13ColladaDOM15023domGl_pipeline_settings22domBlend_func_separate13domDest_alpha15registerElementER3DAE
libcollada-dom2.5-dp.so.0:_ZN13ColladaDOM15023domGl_pipeline_settings22domBlend_func_separate13domDest_alpha6createER3DAE
libcollada-dom2.5-dp.so.0:_ZN13ColladaDOM15023domGl_pipeline_settings22domBlend_func_separate15registerElementER3DAE
libcollada-dom2.5-dp.so.0:_ZN13ColladaDOM15023domGl_pipeline_settings22domBlend_func_separate6createER3DAE
libcollada-dom2.5-dp.so.0:_ZN13ColladaDOM15023domGl_pipeline_settings22domDepth_bounds_enable15registerElementER3DAE
libcollada-dom2.5-dp.so.0:_ZN13ColladaDOM15023domGl_pipeline_settings22domDepth_bounds_enable6createER3DAE
libcollada-dom2.5-dp.so.0:_ZN13ColladaDOM15023domGl_pipeline_settings22domLight_model_ambient15registerElementER3DAE
libcollada-dom2.5-dp.so.0:_ZN13ColladaDOM15023domGl_pipeline_settings22domLight_model_ambient6createER3DAE
libcollada-dom2.5-dp.so.0:_ZN13ColladaDOM15023domGl_pipeline_settings22domLight_spot_exponent15registerElementER3DAE
libcollada-dom2.5-dp.so.0:_ZN13ColladaDOM15023domGl_pipeline_settings22domLight_spot_exponent6createER3DAE
libcollada-dom2.5-dp.so.0:_ZN13ColladaDOM15023domGl_pipeline_settings22domLine_stipple_enable15registerElementER3DAE
libcollada-dom2.5-dp.so.0:_ZN13ColladaDOM15023domGl_pipeline_settings22domLine_stipple_enable6createER3DAE
libcollada-dom2.5-dp.so.0:_ZN13ColladaDOM15023domGl_pipeline_settings22domPoint_smooth_enable15registerElementER3DAE
libcollada-dom2.5-dp.so.0:_ZN13ColladaDOM15023domGl_pipeline_settings22domPoint_smooth_enable6createER3DAE
libcollada-dom2.5-dp.so.0:_ZN13ColladaDOM15023domGl_pipeline_settings22domScissor_test_enable15registerElementER3DAE
libcollada-dom2.5-dp.so.0:_ZN13ColladaDOM15023domGl_pipeline_settings22domScissor_test_enable6createER3DAE
libcollada-dom2.5-dp.so.0:_ZN13ColladaDOM15023domGl_pipeline_settings22domStencil_op_separate15registerElementER3DAE
libcollada-dom2.5-dp.so.0:_ZN13ColladaDOM15023domGl_pipeline_settings22domStencil_op_separate6createER3DAE
libcollada-dom2.5-dp.so.0:_ZN13ColladaDOM15023domGl_pipeline_settings22domStencil_op_separate7domFace15registerElementER3DAE
libcollada-dom2.5-dp.so.0:_ZN13ColladaDOM15023domGl_pipeline_settings22domStencil_op_separate7domFace6createER3DAE
libcollada-dom2.5-dp.so.0:_ZN13ColladaDOM15023domGl_pipeline_settings22domStencil_op_separate7domFail15registerElementER3DAE
libcollada-dom2.5-dp.so.0:_ZN13ColladaDOM15023domGl_pipeline_settings22domStencil_op_separate7domFail6createER3DAE
libcollada-dom2.5-dp.so.0:_ZN13ColladaDOM15023domGl_pipeline_settings22domStencil_op_separate8domZfail15registerElementER3DAE
libcollada-dom2.5-dp.so.0:_ZN13ColladaDOM15023domGl_pipeline_settings22domStencil_op_separate8domZfail6createER3DAE
libcollada-dom2.5-dp.so.0:_ZN13ColladaDOM15023domGl_pipeline_settings22domStencil_op_separate8domZpass15registerElementER3DAE
libcollada-dom2.5-dp.so.0:_ZN13ColladaDOM15023domGl_pipeline_settings22domStencil_op_separate8domZpass6createER3DAE
libcollada-dom2.5-dp.so.0:_ZN13ColladaDOM15023domGl_pipeline_settings22domStencil_test_enable15registerElementER3DAE
libcollada-dom2.5-dp.so.0:_ZN13ColladaDOM15023domGl_pipeline_settings22domStencil_test_enable6createER3DAE
libcollada-dom2.5-dp.so.0:_ZN13ColladaDOM15023domGl_pipeline_settings22domTextureDEPTH_enable15registerElementER3DAE
libcollada-dom2.5-dp.so.0:_ZN13ColladaDOM15023domGl_pipeline_settings22domTextureDEPTH_enable6createER3DAE
libcollada-dom2.5-dp.so.0:_ZN13ColladaDOM15023domGl_pipeline_settings23domLight_spot_direction15registerElementER3DAE
libcollada-dom2.5-dp.so.0:_ZN13ColladaDOM15023domGl_pipeline_settings23domLight_spot_direction6createER3DAE
libcollada-dom2.5-dp.so.0:_ZN13ColladaDOM15023domGl_pipeline_settings24domColor_logic_op_enable15registerElementER3DAE
libcollada-dom2.5-dp.so.0:_ZN13ColladaDOM15023domGl_pipeline_settings24domColor_logic_op_enable6createER3DAE
libcollada-dom2.5-dp.so.0:_ZN13ColladaDOM15023domGl_pipeline_settings24domColor_material_enable15registerElementER3DAE
libcollada-dom2.5-dp.so.0:_ZN13ColladaDOM15023domGl_pipeline_settings24domColor_material_enable6createER3DAE
libcollada-dom2.5-dp.so.0:_ZN13ColladaDOM15023domGl_pipeline_settings24domPolygon_smooth_enable15registerElementER3DAE
libcollada-dom2.5-dp.so.0:_ZN13ColladaDOM15023domGl_pipeline_settings24domPolygon_smooth_enable6createER3DAE
libcollada-dom2.5-dp.so.0:_ZN13ColladaDOM15023domGl_pipeline_settings24domRescale_normal_enable15registerElementER3DAE
libcollada-dom2.5-dp.so.0:_ZN13ColladaDOM15023domGl_pipeline_settings24domRescale_normal_enable6createER3DAE
libcollada-dom2.5-dp.so.0:_ZN13ColladaDOM15023domGl_pipeline_settings24domStencil_func_separate15registerElementER3DAE
libcollada-dom2.5-dp.so.0:_ZN13ColladaDOM15023domGl_pipeline_settings24domStencil_func_separate6createER3DAE
libcollada-dom2.5-dp.so.0:_ZN13ColladaDOM15023domGl_pipeline_settings24domStencil_func_separate6domRef15registerElementER3DAE
libcollada-dom2.5-dp.so.0:_ZN13ColladaDOM15023domGl_pipeline_settings24domStencil_func_separate6domRef6createER3DAE
libcollada-dom2.5-dp.so.0:_ZN13ColladaDOM15023domGl_pipeline_settings24domStencil_func_separate7domBack15registerElementER3DAE
libcollada-dom2.5-dp.so.0:_ZN13ColladaDOM15023domGl_pipeline_settings24domStencil_func_separate7domBack6createER3DAE
libcollada-dom2.5-dp.so.0:_ZN13ColladaDOM15023domGl_pipeline_settings24domStencil_func_separate7domMask15registerElementER3DAE
libcollada-dom2.5-dp.so.0:_ZN13ColladaDOM15023domGl_pipeline_settings24domStencil_func_separate7domMask6createER3DAE
libcollada-dom2.5-dp.so.0:_ZN13ColladaDOM15023domGl_pipeline_settings24domStencil_func_separate8domFront15registerElementER3DAE
libcollada-dom2.5-dp.so.0:_ZN13ColladaDOM15023domGl_pipeline_settings24domStencil_func_separate8domFront6createER3DAE
libcollada-dom2.5-dp.so.0:_ZN13ColladaDOM15023domGl_pipeline_settings24domStencil_mask_separate15registerElementER3DAE
libcollada-dom2.5-dp.so.0:_ZN13ColladaDOM15023domGl_pipeline_settings24domStencil_mask_separate6createER3DAE
libcollada-dom2.5-dp.so.0:_ZN13ColladaDOM15023domGl_pipeline_settings24domStencil_mask_separate7domFace15registerElementER3DAE
libcollada-dom2.5-dp.so.0:_ZN13ColladaDOM15023domGl_pipeline_settings24domStencil_mask_separate7domFace6createER3DAE
libcollada-dom2.5-dp.so.0:_ZN13ColladaDOM15023domGl_pipeline_settings24domStencil_mask_separate7domMask15registerElementER3DAE
libcollada-dom2.5-dp.so.0:_ZN13ColladaDOM15023domGl_pipeline_settings24domStencil_mask_separate7domMask6createER3DAE
libcollada-dom2.5-dp.so.0:_ZN13ColladaDOM15023domGl_pipeline_settings25domPolygon_stipple_enable15registerElementER3DAE
libcollada-dom2.5-dp.so.0:_ZN13ColladaDOM15023domGl_pipeline_settings25domPolygon_stipple_enable6createER3DAE
libcollada-dom2.5-dp.so.0:_ZN13ColladaDOM15023domGl_pipeline_settings25domSample_coverage_enable15registerElementER3DAE
libcollada-dom2.5-dp.so.0:_ZN13ColladaDOM15023domGl_pipeline_settings25domSample_coverage_enable6createER3DAE
libcollada-dom2.5-dp.so.0:_ZN13ColladaDOM15023domGl_pipeline_settings26domBlend_equation_separate15registerElementER3DAE
libcollada-dom2.5-dp.so.0:_ZN13ColladaDOM15023domGl_pipeline_settings26domBlend_equation_separate6createER3DAE
libcollada-dom2.5-dp.so.0:_ZN13ColladaDOM15023domGl_pipeline_settings26domBlend_equation_separate6domRgb15registerElementER3DAE
libcollada-dom2.5-dp.so.0:_ZN13ColladaDOM15023domGl_pipeline_settings26domBlend_equation_separate6domRgb6createER3DAE
libcollada-dom2.5-dp.so.0:_ZN13ColladaDOM15023domGl_pipeline_settings26domBlend_equation_separate8domAlpha15registerElementER3DAE
libcollada-dom2.5-dp.so.0:_ZN13ColladaDOM15023domGl_pipeline_settings26domBlend_equation_separate8domAlpha6createER3DAE
libcollada-dom2.5-dp.so.0:_ZN13ColladaDOM15023domGl_pipeline_settings27domLight_linear_attenuation15registerElementER3DAE
libcollada-dom2.5-dp.so.0:_ZN13ColladaDOM15023domGl_pipeline_settings27domLight_linear_attenuation6createER3DAE
libcollada-dom2.5-dp.so.0:_ZN13ColladaDOM15023domGl_pipeline_settings28domLight_model_color_control15registerElementER3DAE
libcollada-dom2.5-dp.so.0:_ZN13ColladaDOM15023domGl_pipeline_settings28domLight_model_color_control6createER3DAE
libcollada-dom2.5-dp.so.0:_ZN13ColladaDOM15023domGl_pipeline_settings28domPoint_fade_threshold_size15registerElementER3DAE
libcollada-dom2.5-dp.so.0:_ZN13ColladaDOM15023domGl_pipeline_settings28domPoint_fade_threshold_size6createER3DAE
libcollada-dom2.5-dp.so.0:_ZN13ColladaDOM15023domGl_pipeline_settings29domLight_constant_attenuation15registerElementER3DAE
libcollada-dom2.5-dp.so.0:_ZN13ColladaDOM15023domGl_pipeline_settings29domLight_constant_attenuation6createER3DAE
libcollada-dom2.5-dp.so.0:_ZN13ColladaDOM15023domGl_pipeline_settings29domPoint_distance_attenuation15registerElementER3DAE
libcollada-dom2.5-dp.so.0:_ZN13ColladaDOM15023domGl_pipeline_settings29domPoint_distance_attenuation6createER3DAE
libcollada-dom2.5-dp.so.0:_ZN13ColladaDOM15023domGl_pipeline_settings29domPolygon_offset_fill_enable15registerElementER3DAE
libcollada-dom2.5-dp.so.0:_ZN13ColladaDOM15023domGl_pipeline_settings29domPolygon_offset_fill_enable6createER3DAE
libcollada-dom2.5-dp.so.0:_ZN13ColladaDOM15023domGl_pipeline_settings29domPolygon_offset_line_enable15registerElementER3DAE
libcollada-dom2.5-dp.so.0:_ZN13ColladaDOM15023domGl_pipeline_settings29domPolygon_offset_line_enable6createER3DAE
libcollada-dom2.5-dp.so.0:_ZN13ColladaDOM15023domGl_pipeline_settings29domSample_alpha_to_one_enable15registerElementER3DAE
libcollada-dom2.5-dp.so.0:_ZN13ColladaDOM15023domGl_pipeline_settings29domSample_alpha_to_one_enable6createER3DAE
libcollada-dom2.5-dp.so.0:_ZN13ColladaDOM15023domGl_pipeline_settings30domLight_model_two_side_enable15registerElementER3DAE
libcollada-dom2.5-dp.so.0:_ZN13ColladaDOM15023domGl_pipeline_settings30domLight_model_two_side_enable6createER3DAE
libcollada-dom2.5-dp.so.0:_ZN13ColladaDOM15023domGl_pipeline_settings30domLight_quadratic_attenuation15registerElementER3DAE
libcollada-dom2.5-dp.so.0:_ZN13ColladaDOM15023domGl_pipeline_settings30domLight_quadratic_attenuation6createER3DAE
libcollada-dom2.5-dp.so.0:_ZN13ColladaDOM15023domGl_pipeline_settings30domPolygon_offset_point_enable15registerElementER3DAE
libcollada-dom2.5-dp.so.0:_ZN13ColladaDOM15023domGl_pipeline_settings30domPolygon_offset_point_enable6createER3DAE
libcollada-dom2.5-dp.so.0:_ZN13ColladaDOM15023domGl_pipeline_settings34domLight_model_local_viewer_enable15registerElementER3DAE
libcollada-dom2.5-dp.so.0:_ZN13ColladaDOM15023domGl_pipeline_settings34domLight_model_local_viewer_enable6createER3DAE
libcollada-dom2.5-dp.so.0:_ZN13ColladaDOM15023domGl_pipeline_settings34domSample_alpha_to_coverage_enable15registerElementER3DAE
libcollada-dom2.5-dp.so.0:_ZN13ColladaDOM15023domGl_pipeline_settings34domSample_alpha_to_coverage_enable6createER3DAE
libcollada-dom2.5-dp.so.0:_ZN13ColladaDOM15023domGl_pipeline_settings6createER3DAE
libcollada-dom2.5-dp.so.0:_ZN13ColladaDOM15023domInstance_force_field15registerElementER3DAE
libcollada-dom2.5-dp.so.0:_ZN13ColladaDOM15023domInstance_force_field6createER3DAE
libcollada-dom2.5-dp.so.0:_ZN13ColladaDOM15023domKinematics_axis_info15registerElementER3DAE
libcollada-dom2.5-dp.so.0:_ZN13ColladaDOM15023domKinematics_axis_info6createER3DAE
libcollada-dom2.5-dp.so.0:_ZN13ColladaDOM15023domKinematics_technique15registerElementER3DAE
libcollada-dom2.5-dp.so.0:_ZN13ColladaDOM15023domKinematics_technique6createER3DAE
libcollada-dom2.5-dp.so.0:_ZN13ColladaDOM15023domLibrary_force_fields15registerElementER3DAE
libcollada-dom2.5-dp.so.0:_ZN13ColladaDOM15023domLibrary_force_fields6createER3DAE
libcollada-dom2.5-dp.so.0:_ZN13ColladaDOM15023domMotion_effector_info15registerElementER3DAE
libcollada-dom2.5-dp.so.0:_ZN13ColladaDOM15023domMotion_effector_info6createER3DAE
libcollada-dom2.5-dp.so.0:_ZN13ColladaDOM15024COLLADA_ELEMENT_ACCESSORE
libcollada-dom2.5-dp.so.0:_ZN13ColladaDOM15024COLLADA_ELEMENT_ALTITUDEE
libcollada-dom2.5-dp.so.0:_ZN13ColladaDOM15024COLLADA_ELEMENT_ANNOTATEE
libcollada-dom2.5-dp.so.0:_ZN13ColladaDOM15024COLLADA_ELEMENT_ARGUMENTE
libcollada-dom2.5-dp.so.0:_ZN13ColladaDOM15024COLLADA_ELEMENT_CG_PARAME
libcollada-dom2.5-dp.so.0:_ZN13ColladaDOM15024COLLADA_ELEMENT_COMMENTSE
libcollada-dom2.5-dp.so.0:_ZN13ColladaDOM15024COLLADA_ELEMENT_COMPILERE
libcollada-dom2.5-dp.so.0:_ZN13ColladaDOM15024COLLADA_ELEMENT_CONSTANTE
libcollada-dom2.5-dp.so.0:_ZN13ColladaDOM15024COLLADA_ELEMENT_COVERAGEE
libcollada-dom2.5-dp.so.0:_ZN13ColladaDOM15024COLLADA_ELEMENT_CYLINDERE
libcollada-dom2.5-dp.so.0:_ZN13ColladaDOM15024COLLADA_ELEMENT_DEST_RGBE
libcollada-dom2.5-dp.so.0:_ZN13ColladaDOM15024COLLADA_ELEMENT_EMISSIONE
libcollada-dom2.5-dp.so.0:_ZN13ColladaDOM15024COLLADA_ELEMENT_EQUATIONE
libcollada-dom2.5-dp.so.0:_ZN13ColladaDOM15024COLLADA_ELEMENT_EVALUATEE
libcollada-dom2.5-dp.so.0:_ZN13ColladaDOM15024COLLADA_ELEMENT_FIXED2X1E
libcollada-dom2.5-dp.so.0:_ZN13ColladaDOM15024COLLADA_ELEMENT_FIXED2X2E
libcollada-dom2.5-dp.so.0:_ZN13ColladaDOM15024COLLADA_ELEMENT_FIXED2X3E
libcollada-dom2.5-dp.so.0:_ZN13ColladaDOM15024COLLADA_ELEMENT_FIXED2X4E
libcollada-dom2.5-dp.so.0:_ZN13ColladaDOM15024COLLADA_ELEMENT_FIXED3X1E
libcollada-dom2.5-dp.so.0:_ZN13ColladaDOM15024COLLADA_ELEMENT_FIXED3X2E
libcollada-dom2.5-dp.so.0:_ZN13ColladaDOM15024COLLADA_ELEMENT_FIXED3X3E
libcollada-dom2.5-dp.so.0:_ZN13ColladaDOM15024COLLADA_ELEMENT_FIXED3X4E
libcollada-dom2.5-dp.so.0:_ZN13ColladaDOM15024COLLADA_ELEMENT_FIXED4X1E
libcollada-dom2.5-dp.so.0:_ZN13ColladaDOM15024COLLADA_ELEMENT_FIXED4X2E
libcollada-dom2.5-dp.so.0:_ZN13ColladaDOM15024COLLADA_ELEMENT_FIXED4X3E
libcollada-dom2.5-dp.so.0:_ZN13ColladaDOM15024COLLADA_ELEMENT_FIXED4X4E
libcollada-dom2.5-dp.so.0:_ZN13ColladaDOM15024COLLADA_ELEMENT_FLOAT1X1E
libcollada-dom2.5-dp.so.0:_ZN13ColladaDOM15024COLLADA_ELEMENT_FLOAT1X2E
libcollada-dom2.5-dp.so.0:_ZN13ColladaDOM15024COLLADA_ELEMENT_FLOAT1X3E
libcollada-dom2.5-dp.so.0:_ZN13ColladaDOM15024COLLADA_ELEMENT_FLOAT1X4E
libcollada-dom2.5-dp.so.0:_ZN13ColladaDOM15024COLLADA_ELEMENT_FLOAT2X1E
libcollada-dom2.5-dp.so.0:_ZN13ColladaDOM15024COLLADA_ELEMENT_FLOAT2X2E
libcollada-dom2.5-dp.so.0:_ZN13ColladaDOM15024COLLADA_ELEMENT_FLOAT2X3E
libcollada-dom2.5-dp.so.0:_ZN13ColladaDOM15024COLLADA_ELEMENT_FLOAT2X4E
libcollada-dom2.5-dp.so.0:_ZN13ColladaDOM15024COLLADA_ELEMENT_FLOAT3X1E
libcollada-dom2.5-dp.so.0:_ZN13ColladaDOM15024COLLADA_ELEMENT_FLOAT3X2E
libcollada-dom2.5-dp.so.0:_ZN13ColladaDOM15024COLLADA_ELEMENT_FLOAT3X3E
libcollada-dom2.5-dp.so.0:_ZN13ColladaDOM15024COLLADA_ELEMENT_FLOAT3X4E
libcollada-dom2.5-dp.so.0:_ZN13ColladaDOM15024COLLADA_ELEMENT_FLOAT4X1E
libcollada-dom2.5-dp.so.0:_ZN13ColladaDOM15024COLLADA_ELEMENT_FLOAT4X2E
libcollada-dom2.5-dp.so.0:_ZN13ColladaDOM15024COLLADA_ELEMENT_FLOAT4X3E
libcollada-dom2.5-dp.so.0:_ZN13ColladaDOM15024COLLADA_ELEMENT_FLOAT4X4E
libcollada-dom2.5-dp.so.0:_ZN13ColladaDOM15024COLLADA_ELEMENT_FOG_MODEE
libcollada-dom2.5-dp.so.0:_ZN13ColladaDOM15024COLLADA_ELEMENT_GEOMETRYE
libcollada-dom2.5-dp.so.0:_ZN13ColladaDOM15024COLLADA_ELEMENT_KEYWORDSE
libcollada-dom2.5-dp.so.0:_ZN13ColladaDOM15024COLLADA_ELEMENT_LATITUDEE
libcollada-dom2.5-dp.so.0:_ZN13ColladaDOM15024COLLADA_ELEMENT_LOGIC_OPE
libcollada-dom2.5-dp.so.0:_ZN13ColladaDOM15024COLLADA_ELEMENT_MATERIALE
libcollada-dom2.5-dp.so.0:_ZN13ColladaDOM15024COLLADA_ELEMENT_MIP_BIASE
libcollada-dom2.5-dp.so.0:_ZN13ColladaDOM15024COLLADA_ELEMENT_MODIFIEDE
libcollada-dom2.5-dp.so.0:_ZN13ColladaDOM15024COLLADA_ELEMENT_MODIFIERE
libcollada-dom2.5-dp.so.0:_ZN13ColladaDOM15024COLLADA_ELEMENT_NEWPARAME
libcollada-dom2.5-dp.so.0:_ZN13ColladaDOM15024COLLADA_ELEMENT_PARABOLAE
libcollada-dom2.5-dp.so.0:_ZN13ColladaDOM15024COLLADA_ELEMENT_POLYGONSE
libcollada-dom2.5-dp.so.0:_ZN13ColladaDOM15024COLLADA_ELEMENT_POLYLISTE
libcollada-dom2.5-dp.so.0:_ZN13ColladaDOM15024COLLADA_ELEMENT_REVISIONE
libcollada-dom2.5-dp.so.0:_ZN13ColladaDOM15024COLLADA_ELEMENT_REVOLUTEE
libcollada-dom2.5-dp.so.0:_ZN13ColladaDOM15024COLLADA_ELEMENT_SEMANTICE
libcollada-dom2.5-dp.so.0:_ZN13ColladaDOM15024COLLADA_ELEMENT_SETPARAME
libcollada-dom2.5-dp.so.0:_ZN13ColladaDOM15024COLLADA_ELEMENT_SKELETONE
libcollada-dom2.5-dp.so.0:_ZN13ColladaDOM15024COLLADA_ELEMENT_SPECULARE
libcollada-dom2.5-dp.so.0:_ZN13ColladaDOM15024COLLADA_ELEMENT_SURFACESE
libcollada-dom2.5-dp.so.0:_ZN13ColladaDOM15024COLLADA_ELEMENT_TEXCOORDE
libcollada-dom2.5-dp.so.0:_ZN13ColladaDOM15024COLLADA_ELEMENT_USERTYPEE
libcollada-dom2.5-dp.so.0:_ZN13ColladaDOM15024COLLADA_ELEMENT_VELOCITYE
libcollada-dom2.5-dp.so.0:_ZN13ColladaDOM15024COLLADA_ELEMENT_VERTICESE
libcollada-dom2.5-dp.so.0:_ZN13ColladaDOM15024COLLADA_TYPE_BLEND_COLORE
libcollada-dom2.5-dp.so.0:_ZN13ColladaDOM15024COLLADA_TYPE_CG_NEWPARAME
libcollada-dom2.5-dp.so.0:_ZN13ColladaDOM15024COLLADA_TYPE_CG_SETPARAME
libcollada-dom2.5-dp.so.0:_ZN13ColladaDOM15024COLLADA_TYPE_CONTRIBUTORE
libcollada-dom2.5-dp.so.0:_ZN13ColladaDOM15024COLLADA_TYPE_CONVEX_MESHE
libcollada-dom2.5-dp.so.0:_ZN13ColladaDOM15024COLLADA_TYPE_CREATE_CUBEE
libcollada-dom2.5-dp.so.0:_ZN13ColladaDOM15024COLLADA_TYPE_DEPTH_RANGEE
libcollada-dom2.5-dp.so.0:_ZN13ColladaDOM15024COLLADA_TYPE_DIRECTIONALE
libcollada-dom2.5-dp.so.0:_ZN13ColladaDOM15024COLLADA_TYPE_FLOAT_ARRAYE
libcollada-dom2.5-dp.so.0:_ZN13ColladaDOM15024COLLADA_TYPE_FOG_DENSITYE
libcollada-dom2.5-dp.so.0:_ZN13ColladaDOM15024COLLADA_TYPE_FORCE_FIELDE
libcollada-dom2.5-dp.so.0:_ZN13ColladaDOM15024COLLADA_TYPE_FX_ANNOTATEE
libcollada-dom2.5-dp.so.0:_ZN13ColladaDOM15024COLLADA_TYPE_FX_NEWPARAME
libcollada-dom2.5-dp.so.0:_ZN13ColladaDOM15024COLLADA_TYPE_FX_SETPARAME
libcollada-dom2.5-dp.so.0:_ZN13ColladaDOM15024COLLADA_TYPE_GLES2_VALUEE
libcollada-dom2.5-dp.so.0:_ZN13ColladaDOM15024COLLADA_TYPE_GLSL_SHADERE
libcollada-dom2.5-dp.so.0:_ZN13ColladaDOM15024COLLADA_TYPE_IDREF_ARRAYE
libcollada-dom2.5-dp.so.0:_ZN13ColladaDOM15024COLLADA_TYPE_INPUT_LOCALE
libcollada-dom2.5-dp.so.0:_ZN13ColladaDOM15024COLLADA_TYPE_PERSPECTIVEE
libcollada-dom2.5-dp.so.0:_ZN13ColladaDOM15024COLLADA_TYPE_SHADE_MODELE
libcollada-dom2.5-dp.so.0:_ZN13ColladaDOM15024COLLADA_TYPE_SOURCE_DATAE
libcollada-dom2.5-dp.so.0:_ZN13ColladaDOM15024COLLADA_TYPE_TEXTURECUBEE
libcollada-dom2.5-dp.so.0:_ZN13ColladaDOM15024COLLADA_TYPE_TEXTURERECTE
libcollada-dom2.5-dp.so.0:_ZN13ColladaDOM15024COLLADA_TYPE_TOKEN_ARRAYE
libcollada-dom2.5-dp.so.0:_ZN13ColladaDOM15024domBind_kinematics_model15registerElementER3DAE
libcollada-dom2.5-dp.so.0:_ZN13ColladaDOM15024domBind_kinematics_model6createER3DAE
libcollada-dom2.5-dp.so.0:_ZN13ColladaDOM15024domCommon_float_or_param15registerElementER3DAE
libcollada-dom2.5-dp.so.0:_ZN13ColladaDOM15024domCommon_float_or_param6createER3DAE
libcollada-dom2.5-dp.so.0:_ZN13ColladaDOM15024domCommon_float_or_param8domFloat15registerElementER3DAE
libcollada-dom2.5-dp.so.0:_ZN13ColladaDOM15024domCommon_float_or_param8domFloat6createER3DAE
libcollada-dom2.5-dp.so.0:_ZN13ColladaDOM15024domFx_common_transparent15registerElementER3DAE
libcollada-dom2.5-dp.so.0:_ZN13ColladaDOM15024domFx_common_transparent6createER3DAE
libcollada-dom2.5-dp.so.0:_ZN13ColladaDOM15024domGles_texture_constant15registerElementER3DAE
libcollada-dom2.5-dp.so.0:_ZN13ColladaDOM15024domGles_texture_constant6createER3DAE
libcollada-dom2.5-dp.so.0:_ZN13ColladaDOM15024domGles_texture_pipeline15registerElementER3DAE
libcollada-dom2.5-dp.so.0:_ZN13ColladaDOM15024domGles_texture_pipeline6createER3DAE
libcollada-dom2.5-dp.so.0:_ZN13ColladaDOM15024domLibrary_visual_scenes15registerElementER3DAE
libcollada-dom2.5-dp.so.0:_ZN13ColladaDOM15024domLibrary_visual_scenes6createER3DAE
libcollada-dom2.5-dp.so.0:_ZN13ColladaDOM15025COLLADA_ELEMENT_ANIMATIONE
libcollada-dom2.5-dp.so.0:_ZN13ColladaDOM15025COLLADA_ELEMENT_AXIS_INFOE
libcollada-dom2.5-dp.so.0:_ZN13ColladaDOM15025COLLADA_ELEMENT_COPYRIGHTE
libcollada-dom2.5-dp.so.0:_ZN13ColladaDOM15025COLLADA_ELEMENT_CREATE_2DE
libcollada-dom2.5-dp.so.0:_ZN13ColladaDOM15025COLLADA_ELEMENT_CREATE_3DE
libcollada-dom2.5-dp.so.0:_ZN13ColladaDOM15025COLLADA_ELEMENT_CULL_FACEE
libcollada-dom2.5-dp.so.0:_ZN13ColladaDOM15025COLLADA_ELEMENT_DIRECTIONE
libcollada-dom2.5-dp.so.0:_ZN13ColladaDOM15025COLLADA_ELEMENT_FOG_COLORE
libcollada-dom2.5-dp.so.0:_ZN13ColladaDOM15025COLLADA_ELEMENT_FOG_STARTE
libcollada-dom2.5-dp.so.0:_ZN13ColladaDOM15025COLLADA_ELEMENT_FRAME_TCPE
libcollada-dom2.5-dp.so.0:_ZN13ColladaDOM15025COLLADA_ELEMENT_FRAME_TIPE
libcollada-dom2.5-dp.so.0:_ZN13ColladaDOM15025COLLADA_ELEMENT_HYPERBOLAE
libcollada-dom2.5-dp.so.0:_ZN13ColladaDOM15025COLLADA_ELEMENT_INIT_FROME
libcollada-dom2.5-dp.so.0:_ZN13ColladaDOM15025COLLADA_ELEMENT_INT_ARRAYE
libcollada-dom2.5-dp.so.0:_ZN13ColladaDOM15025COLLADA_ELEMENT_LONGITUDEE
libcollada-dom2.5-dp.so.0:_ZN13ColladaDOM15025COLLADA_ELEMENT_MAGFILTERE
libcollada-dom2.5-dp.so.0:_ZN13ColladaDOM15025COLLADA_ELEMENT_MINFILTERE
libcollada-dom2.5-dp.so.0:_ZN13ColladaDOM15025COLLADA_ELEMENT_MIPFILTERE
libcollada-dom2.5-dp.so.0:_ZN13ColladaDOM15025COLLADA_ELEMENT_PRISMATICE
libcollada-dom2.5-dp.so.0:_ZN13ColladaDOM15025COLLADA_ELEMENT_SAMPLER1DE
libcollada-dom2.5-dp.so.0:_ZN13ColladaDOM15025COLLADA_ELEMENT_SAMPLER2DE
libcollada-dom2.5-dp.so.0:_ZN13ColladaDOM15025COLLADA_ELEMENT_SAMPLER3DE
libcollada-dom2.5-dp.so.0:_ZN13ColladaDOM15025COLLADA_ELEMENT_SHININESSE
libcollada-dom2.5-dp.so.0:_ZN13ColladaDOM15025COLLADA_ELEMENT_SRC_ALPHAE
libcollada-dom2.5-dp.so.0:_ZN13ColladaDOM15025COLLADA_ELEMENT_STIFFNESSE
libcollada-dom2.5-dp.so.0:_ZN13ColladaDOM15025COLLADA_ELEMENT_TECHNIQUEE
libcollada-dom2.5-dp.so.0:_ZN13ColladaDOM15025COLLADA_ELEMENT_TEXTURE1DE
libcollada-dom2.5-dp.so.0:_ZN13ColladaDOM15025COLLADA_ELEMENT_TEXTURE2DE
libcollada-dom2.5-dp.so.0:_ZN13ColladaDOM15025COLLADA_ELEMENT_TEXTURE3DE
libcollada-dom2.5-dp.so.0:_ZN13ColladaDOM15025COLLADA_ELEMENT_TIME_STEPE
libcollada-dom2.5-dp.so.0:_ZN13ColladaDOM15025COLLADA_ELEMENT_TRANSLATEE
libcollada-dom2.5-dp.so.0:_ZN13ColladaDOM15025COLLADA_ELEMENT_TRIANGLESE
libcollada-dom2.5-dp.so.0:_ZN13ColladaDOM15025COLLADA_ELEMENT_TRISTRIPSE
libcollada-dom2.5-dp.so.0:_ZN13ColladaDOM15025COLLADA_TYPE_AUTHOR_EMAILE
libcollada-dom2.5-dp.so.0:_ZN13ColladaDOM15025COLLADA_TYPE_BIND_UNIFORME
libcollada-dom2.5-dp.so.0:_ZN13ColladaDOM15025COLLADA_TYPE_BLEND_ENABLEE
libcollada-dom2.5-dp.so.0:_ZN13ColladaDOM15025COLLADA_TYPE_BORDER_COLORE
libcollada-dom2.5-dp.so.0:_ZN13ColladaDOM15025COLLADA_TYPE_COMMON_PARAME
libcollada-dom2.5-dp.so.0:_ZN13ColladaDOM15025COLLADA_TYPE_DEPTH_BOUNDSE
libcollada-dom2.5-dp.so.0:_ZN13ColladaDOM15025COLLADA_TYPE_FX_SAMPLER1DE
libcollada-dom2.5-dp.so.0:_ZN13ColladaDOM15025COLLADA_TYPE_FX_SAMPLER2DE
libcollada-dom2.5-dp.so.0:_ZN13ColladaDOM15025COLLADA_TYPE_FX_SAMPLER3DE
libcollada-dom2.5-dp.so.0:_ZN13ColladaDOM15025COLLADA_TYPE_GLES2_SHADERE
libcollada-dom2.5-dp.so.0:_ZN13ColladaDOM15025COLLADA_TYPE_GLES_SAMPLERE
libcollada-dom2.5-dp.so.0:_ZN13ColladaDOM15025COLLADA_TYPE_GLSL_PROGRAME
libcollada-dom2.5-dp.so.0:_ZN13ColladaDOM15025COLLADA_TYPE_HALF_EXTENTSE
libcollada-dom2.5-dp.so.0:_ZN13ColladaDOM15025COLLADA_TYPE_IMAGE_SOURCEE
libcollada-dom2.5-dp.so.0:_ZN13ColladaDOM15025COLLADA_TYPE_INPUT_GLOBALE
libcollada-dom2.5-dp.so.0:_ZN13ColladaDOM15025COLLADA_TYPE_JOINT_LIMITSE
libcollada-dom2.5-dp.so.0:_ZN13ColladaDOM15025COLLADA_TYPE_LIGHT_ENABLEE
libcollada-dom2.5-dp.so.0:_ZN13ColladaDOM15025COLLADA_TYPE_LINE_STIPPLEE
libcollada-dom2.5-dp.so.0:_ZN13ColladaDOM15025COLLADA_TYPE_ORTHOGRAPHICE
libcollada-dom2.5-dp.so.0:_ZN13ColladaDOM15025COLLADA_TYPE_POLYGON_MODEE
libcollada-dom2.5-dp.so.0:_ZN13ColladaDOM15025COLLADA_TYPE_PROFILE_GLESE
libcollada-dom2.5-dp.so.0:_ZN13ColladaDOM15025COLLADA_TYPE_PROFILE_GLSLE
libcollada-dom2.5-dp.so.0:_ZN13ColladaDOM15025COLLADA_TYPE_SIDREF_ARRAYE
libcollada-dom2.5-dp.so.0:_ZN13ColladaDOM15025COLLADA_TYPE_STENCIL_FUNCE
libcollada-dom2.5-dp.so.0:_ZN13ColladaDOM15025COLLADA_TYPE_STENCIL_MASKE
libcollada-dom2.5-dp.so.0:_ZN13ColladaDOM15025COLLADA_TYPE_TEXTUREDEPTHE
libcollada-dom2.5-dp.so.0:_ZN13ColladaDOM15025COLLADA_TYPE_UNNORMALIZEDE
libcollada-dom2.5-dp.so.0:_ZN13ColladaDOM15025COLLADA_TYPE_VISUAL_SCENEE
libcollada-dom2.5-dp.so.0:_ZN13ColladaDOM15025COMMON_PROFILE_PARAM_TIMEE
libcollada-dom2.5-dp.so.0:_ZN13ColladaDOM15025domCommon_float2_or_param15registerElementER3DAE
libcollada-dom2.5-dp.so.0:_ZN13ColladaDOM15025domCommon_float2_or_param6createER3DAE
libcollada-dom2.5-dp.so.0:_ZN13ColladaDOM15025domCommon_float2_or_param9domFloat215registerElementER3DAE
libcollada-dom2.5-dp.so.0:_ZN13ColladaDOM15025domCommon_float2_or_param9domFloat26createER3DAE
libcollada-dom2.5-dp.so.0:_ZN13ColladaDOM15025domCommon_sidref_or_param15registerElementER3DAE
libcollada-dom2.5-dp.so.0:_ZN13ColladaDOM15025domCommon_sidref_or_param6createER3DAE
libcollada-dom2.5-dp.so.0:_ZN13ColladaDOM15025domCommon_sidref_or_param9domSIDREF15registerElementER3DAE
libcollada-dom2.5-dp.so.0:_ZN13ColladaDOM15025domCommon_sidref_or_param9domSIDREF6createER3DAE
libcollada-dom2.5-dp.so.0:_ZN13ColladaDOM15025domGles_pipeline_settings10domFog_end15registerElementER3DAE
libcollada-dom2.5-dp.so.0:_ZN13ColladaDOM15025domGles_pipeline_settings10domFog_end6createER3DAE
libcollada-dom2.5-dp.so.0:_ZN13ColladaDOM15025domGles_pipeline_settings10domScissor15registerElementER3DAE
libcollada-dom2.5-dp.so.0:_ZN13ColladaDOM15025domGles_pipeline_settings10domScissor6createER3DAE
libcollada-dom2.5-dp.so.0:_ZN13ColladaDOM15025domGles_pipeline_settings11domFog_mode15registerElementER3DAE
libcollada-dom2.5-dp.so.0:_ZN13ColladaDOM15025domGles_pipeline_settings11domFog_mode6createER3DAE
libcollada-dom2.5-dp.so.0:_ZN13ColladaDOM15025domGles_pipeline_settings11domLogic_op15registerElementER3DAE
libcollada-dom2.5-dp.so.0:_ZN13ColladaDOM15025domGles_pipeline_settings11domLogic_op6createER3DAE
libcollada-dom2.5-dp.so.0:_ZN13ColladaDOM15025domGles_pipeline_settings12domCull_face15registerElementER3DAE
libcollada-dom2.5-dp.so.0:_ZN13ColladaDOM15025domGles_pipeline_settings12domCull_face6createER3DAE
libcollada-dom2.5-dp.so.0:_ZN13ColladaDOM15025domGles_pipeline_settings12domFog_color15registerElementER3DAE
libcollada-dom2.5-dp.so.0:_ZN13ColladaDOM15025domGles_pipeline_settings12domFog_color6createER3DAE
libcollada-dom2.5-dp.so.0:_ZN13ColladaDOM15025domGles_pipeline_settings12domFog_start15registerElementER3DAE
libcollada-dom2.5-dp.so.0:_ZN13ColladaDOM15025domGles_pipeline_settings12domFog_start6createER3DAE
libcollada-dom2.5-dp.so.0:_ZN13ColladaDOM15025domGles_pipeline_settings13domAlpha_func15registerElementER3DAE
libcollada-dom2.5-dp.so.0:_ZN13ColladaDOM15025domGles_pipeline_settings13domAlpha_func6createER3DAE
libcollada-dom2.5-dp.so.0:_ZN13ColladaDOM15025domGles_pipeline_settings13domAlpha_func7domFunc15registerElementER3DAE
libcollada-dom2.5-dp.so.0:_ZN13ColladaDOM15025domGles_pipeline_settings13domAlpha_func7domFunc6createER3DAE
libcollada-dom2.5-dp.so.0:_ZN13ColladaDOM15025domGles_pipeline_settings13domAlpha_func8domValue15registerElementER3DAE
libcollada-dom2.5-dp.so.0:_ZN13ColladaDOM15025domGles_pipeline_settings13domAlpha_func8domValue6createER3DAE
libcollada-dom2.5-dp.so.0:_ZN13ColladaDOM15025domGles_pipeline_settings13domBlend_func15registerElementER3DAE
libcollada-dom2.5-dp.so.0:_ZN13ColladaDOM15025domGles_pipeline_settings13domBlend_func6createER3DAE
libcollada-dom2.5-dp.so.0:_ZN13ColladaDOM15025domGles_pipeline_settings13domBlend_func6domSrc15registerElementER3DAE
libcollada-dom2.5-dp.so.0:_ZN13ColladaDOM15025domGles_pipeline_settings13domBlend_func6domSrc6createER3DAE
libcollada-dom2.5-dp.so.0:_ZN13ColladaDOM15025domGles_pipeline_settings13domBlend_func7domDest15registerElementER3DAE
libcollada-dom2.5-dp.so.0:_ZN13ColladaDOM15025domGles_pipeline_settings13domBlend_func7domDest6createER3DAE
libcollada-dom2.5-dp.so.0:_ZN13ColladaDOM15025domGles_pipeline_settings13domClip_plane15registerElementER3DAE
libcollada-dom2.5-dp.so.0:_ZN13ColladaDOM15025domGles_pipeline_settings13domClip_plane6createER3DAE
libcollada-dom2.5-dp.so.0:_ZN13ColladaDOM15025domGles_pipeline_settings13domColor_mask15registerElementER3DAE
libcollada-dom2.5-dp.so.0:_ZN13ColladaDOM15025domGles_pipeline_settings13domColor_mask6createER3DAE
libcollada-dom2.5-dp.so.0:_ZN13ColladaDOM15025domGles_pipeline_settings13domDepth_func15registerElementER3DAE
libcollada-dom2.5-dp.so.0:_ZN13ColladaDOM15025domGles_pipeline_settings13domDepth_func6createER3DAE
libcollada-dom2.5-dp.so.0:_ZN13ColladaDOM15025domGles_pipeline_settings13domDepth_mask15registerElementER3DAE
libcollada-dom2.5-dp.so.0:_ZN13ColladaDOM15025domGles_pipeline_settings13domDepth_mask6createER3DAE
libcollada-dom2.5-dp.so.0:_ZN13ColladaDOM15025domGles_pipeline_settings13domFog_enable15registerElementER3DAE
libcollada-dom2.5-dp.so.0:_ZN13ColladaDOM15025domGles_pipeline_settings13domFog_enable6createER3DAE
libcollada-dom2.5-dp.so.0:_ZN13ColladaDOM15025domGles_pipeline_settings13domFront_face15registerElementER3DAE
libcollada-dom2.5-dp.so.0:_ZN13ColladaDOM15025domGles_pipeline_settings13domFront_face6createER3DAE
libcollada-dom2.5-dp.so.0:_ZN13ColladaDOM15025domGles_pipeline_settings13domLine_width15registerElementER3DAE
libcollada-dom2.5-dp.so.0:_ZN13ColladaDOM15025domGles_pipeline_settings13domLine_width6createER3DAE
libcollada-dom2.5-dp.so.0:_ZN13ColladaDOM15025domGles_pipeline_settings13domPoint_size15registerElementER3DAE
libcollada-dom2.5-dp.so.0:_ZN13ColladaDOM15025domGles_pipeline_settings13domPoint_size6createER3DAE
libcollada-dom2.5-dp.so.0:_ZN13ColladaDOM15025domGles_pipeline_settings13domStencil_op15registerElementER3DAE
libcollada-dom2.5-dp.so.0:_ZN13ColladaDOM15025domGles_pipeline_settings13domStencil_op6createER3DAE
libcollada-dom2.5-dp.so.0:_ZN13ColladaDOM15025domGles_pipeline_settings13domStencil_op7domFail15registerElementER3DAE
libcollada-dom2.5-dp.so.0:_ZN13ColladaDOM15025domGles_pipeline_settings13domStencil_op7domFail6createER3DAE
libcollada-dom2.5-dp.so.0:_ZN13ColladaDOM15025domGles_pipeline_settings13domStencil_op8domZfail15registerElementER3DAE
libcollada-dom2.5-dp.so.0:_ZN13ColladaDOM15025domGles_pipeline_settings13domStencil_op8domZfail6createER3DAE
libcollada-dom2.5-dp.so.0:_ZN13ColladaDOM15025domGles_pipeline_settings13domStencil_op8domZpass15registerElementER3DAE
libcollada-dom2.5-dp.so.0:_ZN13ColladaDOM15025domGles_pipeline_settings13domStencil_op8domZpass6createER3DAE
libcollada-dom2.5-dp.so.0:_ZN13ColladaDOM15025domGles_pipeline_settings14domDepth_range15registerElementER3DAE
libcollada-dom2.5-dp.so.0:_ZN13ColladaDOM15025domGles_pipeline_settings14domDepth_range6createER3DAE
libcollada-dom2.5-dp.so.0:_ZN13ColladaDOM15025domGles_pipeline_settings14domFog_density15registerElementER3DAE
libcollada-dom2.5-dp.so.0:_ZN13ColladaDOM15025domGles_pipeline_settings14domFog_density6createER3DAE
libcollada-dom2.5-dp.so.0:_ZN13ColladaDOM15025domGles_pipeline_settings14domShade_model15registerElementER3DAE
libcollada-dom2.5-dp.so.0:_ZN13ColladaDOM15025domGles_pipeline_settings14domShade_model6createER3DAE
libcollada-dom2.5-dp.so.0:_ZN13ColladaDOM15025domGles_pipeline_settings15domBlend_enable15registerElementER3DAE
libcollada-dom2.5-dp.so.0:_ZN13ColladaDOM15025domGles_pipeline_settings15domBlend_enable6createER3DAE
libcollada-dom2.5-dp.so.0:_ZN13ColladaDOM15025domGles_pipeline_settings15domLight_enable15registerElementER3DAE
libcollada-dom2.5-dp.so.0:_ZN13ColladaDOM15025domGles_pipeline_settings15domLight_enable6createER3DAE
libcollada-dom2.5-dp.so.0:_ZN13ColladaDOM15025domGles_pipeline_settings15domStencil_func15registerElementER3DAE
libcollada-dom2.5-dp.so.0:_ZN13ColladaDOM15025domGles_pipeline_settings15domStencil_func6createER3DAE
libcollada-dom2.5-dp.so.0:_ZN13ColladaDOM15025domGles_pipeline_settings15domStencil_func6domRef15registerElementER3DAE
libcollada-dom2.5-dp.so.0:_ZN13ColladaDOM15025domGles_pipeline_settings15domStencil_func6domRef6createER3DAE
libcollada-dom2.5-dp.so.0:_ZN13ColladaDOM15025domGles_pipeline_settings15domStencil_func7domFunc15registerElementER3DAE
libcollada-dom2.5-dp.so.0:_ZN13ColladaDOM15025domGles_pipeline_settings15domStencil_func7domFunc6createER3DAE
libcollada-dom2.5-dp.so.0:_ZN13ColladaDOM15025domGles_pipeline_settings15domStencil_func7domMask15registerElementER3DAE
libcollada-dom2.5-dp.so.0:_ZN13ColladaDOM15025domGles_pipeline_settings15domStencil_func7domMask6createER3DAE
libcollada-dom2.5-dp.so.0:_ZN13ColladaDOM15025domGles_pipeline_settings15domStencil_mask15registerElementER3DAE
libcollada-dom2.5-dp.so.0:_ZN13ColladaDOM15025domGles_pipeline_settings15domStencil_mask6createER3DAE
libcollada-dom2.5-dp.so.0:_ZN13ColladaDOM15025domGles_pipeline_settings15registerElementER3DAE
libcollada-dom2.5-dp.so.0:_ZN13ColladaDOM15025domGles_pipeline_settings16domDither_enable15registerElementER3DAE
libcollada-dom2.5-dp.so.0:_ZN13ColladaDOM15025domGles_pipeline_settings16domDither_enable6createER3DAE
libcollada-dom2.5-dp.so.0:_ZN13ColladaDOM15025domGles_pipeline_settings16domLight_ambient15registerElementER3DAE
libcollada-dom2.5-dp.so.0:_ZN13ColladaDOM15025domGles_pipeline_settings16domLight_ambient6createER3DAE
libcollada-dom2.5-dp.so.0:_ZN13ColladaDOM15025domGles_pipeline_settings16domLight_diffuse15registerElementER3DAE
libcollada-dom2.5-dp.so.0:_ZN13ColladaDOM15025domGles_pipeline_settings16domLight_diffuse6createER3DAE
libcollada-dom2.5-dp.so.0:_ZN13ColladaDOM15025domGles_pipeline_settings17domLight_position15registerElementER3DAE
libcollada-dom2.5-dp.so.0:_ZN13ColladaDOM15025domGles_pipeline_settings17domLight_position6createER3DAE
libcollada-dom2.5-dp.so.0:_ZN13ColladaDOM15025domGles_pipeline_settings17domLight_specular15registerElementER3DAE
libcollada-dom2.5-dp.so.0:_ZN13ColladaDOM15025domGles_pipeline_settings17domLight_specular6createER3DAE
libcollada-dom2.5-dp.so.0:_ZN13ColladaDOM15025domGles_pipeline_settings17domPoint_size_max15registerElementER3DAE
libcollada-dom2.5-dp.so.0:_ZN13ColladaDOM15025domGles_pipeline_settings17domPoint_size_max6createER3DAE
libcollada-dom2.5-dp.so.0:_ZN13ColladaDOM15025domGles_pipeline_settings17domPoint_size_min15registerElementER3DAE
libcollada-dom2.5-dp.so.0:_ZN13ColladaDOM15025domGles_pipeline_settings17domPoint_size_min6createER3DAE
libcollada-dom2.5-dp.so.0:_ZN13ColladaDOM15025domGles_pipeline_settings17domPolygon_offset15registerElementER3DAE
libcollada-dom2.5-dp.so.0:_ZN13ColladaDOM15025domGles_pipeline_settings17domPolygon_offset6createER3DAE
libcollada-dom2.5-dp.so.0:_ZN13ColladaDOM15025domGles_pipeline_settings18domLighting_enable15registerElementER3DAE
libcollada-dom2.5-dp.so.0:_ZN13ColladaDOM15025domGles_pipeline_settings18domLighting_enable6createER3DAE
libcollada-dom2.5-dp.so.0:_ZN13ColladaDOM15025domGles_pipeline_settings19domCull_face_enable15registerElementER3DAE
libcollada-dom2.5-dp.so.0:_ZN13ColladaDOM15025domGles_pipeline_settings19domCull_face_enable6createER3DAE
libcollada-dom2.5-dp.so.0:_ZN13ColladaDOM15025domGles_pipeline_settings19domMaterial_ambient15registerElementER3DAE
libcollada-dom2.5-dp.so.0:_ZN13ColladaDOM15025domGles_pipeline_settings19domMaterial_ambient6createER3DAE
libcollada-dom2.5-dp.so.0:_ZN13ColladaDOM15025domGles_pipeline_settings19domMaterial_diffuse15registerElementER3DAE
libcollada-dom2.5-dp.so.0:_ZN13ColladaDOM15025domGles_pipeline_settings19domMaterial_diffuse6createER3DAE
libcollada-dom2.5-dp.so.0:_ZN13ColladaDOM15025domGles_pipeline_settings19domNormalize_enable15registerElementER3DAE
libcollada-dom2.5-dp.so.0:_ZN13ColladaDOM15025domGles_pipeline_settings19domNormalize_enable6createER3DAE
libcollada-dom2.5-dp.so.0:_ZN13ColladaDOM15025domGles_pipeline_settings19domTexture_pipeline15registerElementER3DAE
libcollada-dom2.5-dp.so.0:_ZN13ColladaDOM15025domGles_pipeline_settings19domTexture_pipeline6createER3DAE
libcollada-dom2.5-dp.so.0:_ZN13ColladaDOM15025domGles_pipeline_settings20domAlpha_test_enable15registerElementER3DAE
libcollada-dom2.5-dp.so.0:_ZN13ColladaDOM15025domGles_pipeline_settings20domAlpha_test_enable6createER3DAE
libcollada-dom2.5-dp.so.0:_ZN13ColladaDOM15025domGles_pipeline_settings20domClip_plane_enable15registerElementER3DAE
libcollada-dom2.5-dp.so.0:_ZN13ColladaDOM15025domGles_pipeline_settings20domClip_plane_enable6createER3DAE
libcollada-dom2.5-dp.so.0:_ZN13ColladaDOM15025domGles_pipeline_settings20domDepth_test_enable15registerElementER3DAE
libcollada-dom2.5-dp.so.0:_ZN13ColladaDOM15025domGles_pipeline_settings20domDepth_test_enable6createER3DAE
libcollada-dom2.5-dp.so.0:_ZN13ColladaDOM15025domGles_pipeline_settings20domLight_spot_cutoff15registerElementER3DAE
libcollada-dom2.5-dp.so.0:_ZN13ColladaDOM15025domGles_pipeline_settings20domLight_spot_cutoff6createER3DAE
libcollada-dom2.5-dp.so.0:_ZN13ColladaDOM15025domGles_pipeline_settings20domMaterial_emission15registerElementER3DAE
libcollada-dom2.5-dp.so.0:_ZN13ColladaDOM15025domGles_pipeline_settings20domMaterial_emission6createER3DAE
libcollada-dom2.5-dp.so.0:_ZN13ColladaDOM15025domGles_pipeline_settings20domMaterial_specular15registerElementER3DAE
libcollada-dom2.5-dp.so.0:_ZN13ColladaDOM15025domGles_pipeline_settings20domMaterial_specular6createER3DAE
libcollada-dom2.5-dp.so.0:_ZN13ColladaDOM15025domGles_pipeline_settings20domModel_view_matrix15registerElementER3DAE
libcollada-dom2.5-dp.so.0:_ZN13ColladaDOM15025domGles_pipeline_settings20domModel_view_matrix6createER3DAE
libcollada-dom2.5-dp.so.0:_ZN13ColladaDOM15025domGles_pipeline_settings20domProjection_matrix15registerElementER3DAE
libcollada-dom2.5-dp.so.0:_ZN13ColladaDOM15025domGles_pipeline_settings20domProjection_matrix6createER3DAE
libcollada-dom2.5-dp.so.0:_ZN13ColladaDOM15025domGles_pipeline_settings21domLine_smooth_enable15registerElementER3DAE
libcollada-dom2.5-dp.so.0:_ZN13ColladaDOM15025domGles_pipeline_settings21domLine_smooth_enable6createER3DAE
libcollada-dom2.5-dp.so.0:_ZN13ColladaDOM15025domGles_pipeline_settings21domMaterial_shininess15registerElementER3DAE
libcollada-dom2.5-dp.so.0:_ZN13ColladaDOM15025domGles_pipeline_settings21domMaterial_shininess6createER3DAE
libcollada-dom2.5-dp.so.0:_ZN13ColladaDOM15025domGles_pipeline_settings21domMultisample_enable15registerElementER3DAE
libcollada-dom2.5-dp.so.0:_ZN13ColladaDOM15025domGles_pipeline_settings21domMultisample_enable6createER3DAE
libcollada-dom2.5-dp.so.0:_ZN13ColladaDOM15025domGles_pipeline_settings22domLight_model_ambient15registerElementER3DAE
libcollada-dom2.5-dp.so.0:_ZN13ColladaDOM15025domGles_pipeline_settings22domLight_model_ambient6createER3DAE
libcollada-dom2.5-dp.so.0:_ZN13ColladaDOM15025domGles_pipeline_settings22domLight_spot_exponent15registerElementER3DAE
libcollada-dom2.5-dp.so.0:_ZN13ColladaDOM15025domGles_pipeline_settings22domLight_spot_exponent6createER3DAE
libcollada-dom2.5-dp.so.0:_ZN13ColladaDOM15025domGles_pipeline_settings22domPoint_smooth_enable15registerElementER3DAE
libcollada-dom2.5-dp.so.0:_ZN13ColladaDOM15025domGles_pipeline_settings22domPoint_smooth_enable6createER3DAE
libcollada-dom2.5-dp.so.0:_ZN13ColladaDOM15025domGles_pipeline_settings22domScissor_test_enable15registerElementER3DAE
libcollada-dom2.5-dp.so.0:_ZN13ColladaDOM15025domGles_pipeline_settings22domScissor_test_enable6createER3DAE
libcollada-dom2.5-dp.so.0:_ZN13ColladaDOM15025domGles_pipeline_settings22domStencil_test_enable15registerElementER3DAE
libcollada-dom2.5-dp.so.0:_ZN13ColladaDOM15025domGles_pipeline_settings22domStencil_test_enable6createER3DAE
libcollada-dom2.5-dp.so.0:_ZN13ColladaDOM15025domGles_pipeline_settings23domLight_spot_direction15registerElementER3DAE
libcollada-dom2.5-dp.so.0:_ZN13ColladaDOM15025domGles_pipeline_settings23domLight_spot_direction6createER3DAE
libcollada-dom2.5-dp.so.0:_ZN13ColladaDOM15025domGles_pipeline_settings24domColor_logic_op_enable15registerElementER3DAE
libcollada-dom2.5-dp.so.0:_ZN13ColladaDOM15025domGles_pipeline_settings24domColor_logic_op_enable6createER3DAE
libcollada-dom2.5-dp.so.0:_ZN13ColladaDOM15025domGles_pipeline_settings24domColor_material_enable15registerElementER3DAE
libcollada-dom2.5-dp.so.0:_ZN13ColladaDOM15025domGles_pipeline_settings24domColor_material_enable6createER3DAE
libcollada-dom2.5-dp.so.0:_ZN13ColladaDOM15025domGles_pipeline_settings24domRescale_normal_enable15registerElementER3DAE
libcollada-dom2.5-dp.so.0:_ZN13ColladaDOM15025domGles_pipeline_settings24domRescale_normal_enable6createER3DAE
libcollada-dom2.5-dp.so.0:_ZN13ColladaDOM15025domGles_pipeline_settings25domSample_coverage_enable15registerElementER3DAE
libcollada-dom2.5-dp.so.0:_ZN13ColladaDOM15025domGles_pipeline_settings25domSample_coverage_enable6createER3DAE
libcollada-dom2.5-dp.so.0:_ZN13ColladaDOM15025domGles_pipeline_settings27domLight_linear_attenuation15registerElementER3DAE
libcollada-dom2.5-dp.so.0:_ZN13ColladaDOM15025domGles_pipeline_settings27domLight_linear_attenuation6createER3DAE
libcollada-dom2.5-dp.so.0:_ZN13ColladaDOM15025domGles_pipeline_settings28domPoint_fade_threshold_size15registerElementER3DAE
libcollada-dom2.5-dp.so.0:_ZN13ColladaDOM15025domGles_pipeline_settings28domPoint_fade_threshold_size6createER3DAE
libcollada-dom2.5-dp.so.0:_ZN13ColladaDOM15025domGles_pipeline_settings29domLight_constant_attenuation15registerElementER3DAE
libcollada-dom2.5-dp.so.0:_ZN13ColladaDOM15025domGles_pipeline_settings29domLight_constant_attenuation6createER3DAE
libcollada-dom2.5-dp.so.0:_ZN13ColladaDOM15025domGles_pipeline_settings29domPoint_distance_attenuation15registerElementER3DAE
libcollada-dom2.5-dp.so.0:_ZN13ColladaDOM15025domGles_pipeline_settings29domPoint_distance_attenuation6createER3DAE
libcollada-dom2.5-dp.so.0:_ZN13ColladaDOM15025domGles_pipeline_settings29domPolygon_offset_fill_enable15registerElementER3DAE
libcollada-dom2.5-dp.so.0:_ZN13ColladaDOM15025domGles_pipeline_settings29domPolygon_offset_fill_enable6createER3DAE
libcollada-dom2.5-dp.so.0:_ZN13ColladaDOM15025domGles_pipeline_settings29domSample_alpha_to_one_enable15registerElementER3DAE
libcollada-dom2.5-dp.so.0:_ZN13ColladaDOM15025domGles_pipeline_settings29domSample_alpha_to_one_enable6createER3DAE
libcollada-dom2.5-dp.so.0:_ZN13ColladaDOM15025domGles_pipeline_settings30domLight_model_two_side_enable15registerElementER3DAE
libcollada-dom2.5-dp.so.0:_ZN13ColladaDOM15025domGles_pipeline_settings30domLight_model_two_side_enable6createER3DAE
libcollada-dom2.5-dp.so.0:_ZN13ColladaDOM15025domGles_pipeline_settings30domLight_quadratic_attenuation15registerElementER3DAE
libcollada-dom2.5-dp.so.0:_ZN13ColladaDOM15025domGles_pipeline_settings30domLight_quadratic_attenuation6createER3DAE
libcollada-dom2.5-dp.so.0:_ZN13ColladaDOM15025domGles_pipeline_settings34domSample_alpha_to_coverage_enable15registerElementER3DAE
libcollada-dom2.5-dp.so.0:_ZN13ColladaDOM15025domGles_pipeline_settings34domSample_alpha_to_coverage_enable6createER3DAE
libcollada-dom2.5-dp.so.0:_ZN13ColladaDOM15025domGles_pipeline_settings6createER3DAE
libcollada-dom2.5-dp.so.0:_ZN13ColladaDOM15025domInstance_physics_model15registerElementER3DAE
libcollada-dom2.5-dp.so.0:_ZN13ColladaDOM15025domInstance_physics_model6createER3DAE
libcollada-dom2.5-dp.so.0:_ZN13ColladaDOM15025domLibrary_physics_models15registerElementER3DAE
libcollada-dom2.5-dp.so.0:_ZN13ColladaDOM15025domLibrary_physics_models6createER3DAE
libcollada-dom2.5-dp.so.0:_ZN13ColladaDOM15025domLibrary_physics_scenes15registerElementER3DAE
libcollada-dom2.5-dp.so.0:_ZN13ColladaDOM15025domLibrary_physics_scenes6createER3DAE
libcollada-dom2.5-dp.so.0:_ZN13ColladaDOM15026COLLADA_ELEMENT_ALPHA_FUNCE
libcollada-dom2.5-dp.so.0:_ZN13ColladaDOM15026COLLADA_ELEMENT_ATTACHMENTE
libcollada-dom2.5-dp.so.0:_ZN13ColladaDOM15026COLLADA_ELEMENT_BLEND_FUNCE
libcollada-dom2.5-dp.so.0:_ZN13ColladaDOM15026COLLADA_ELEMENT_BOOL_ARRAYE
libcollada-dom2.5-dp.so.0:_ZN13ColladaDOM15026COLLADA_ELEMENT_CLIP_PLANEE
libcollada-dom2.5-dp.so.0:_ZN13ColladaDOM15026COLLADA_ELEMENT_COLOR_MASKE
libcollada-dom2.5-dp.so.0:_ZN13ColladaDOM15026COLLADA_ELEMENT_CONTROLLERE
libcollada-dom2.5-dp.so.0:_ZN13ColladaDOM15026COLLADA_ELEMENT_DEPTH_FUNCE
libcollada-dom2.5-dp.so.0:_ZN13ColladaDOM15026COLLADA_ELEMENT_DEPTH_MASKE
libcollada-dom2.5-dp.so.0:_ZN13ColladaDOM15026COLLADA_ELEMENT_DEST_ALPHAE
libcollada-dom2.5-dp.so.0:_ZN13ColladaDOM15026COLLADA_ELEMENT_FOG_ENABLEE
libcollada-dom2.5-dp.so.0:_ZN13ColladaDOM15026COLLADA_ELEMENT_FRONT_FACEE
libcollada-dom2.5-dp.so.0:_ZN13ColladaDOM15026COLLADA_ELEMENT_FX_PROFILEE
libcollada-dom2.5-dp.so.0:_ZN13ColladaDOM15026COLLADA_ELEMENT_GLES_PARAME
libcollada-dom2.5-dp.so.0:_ZN13ColladaDOM15026COLLADA_ELEMENT_GLSL_VALUEE
libcollada-dom2.5-dp.so.0:_ZN13ColladaDOM15026COLLADA_ELEMENT_KINEMATICSE
libcollada-dom2.5-dp.so.0:_ZN13ColladaDOM15026COLLADA_ELEMENT_LINESTRIPSE
libcollada-dom2.5-dp.so.0:_ZN13ColladaDOM15026COLLADA_ELEMENT_LINE_WIDTHE
libcollada-dom2.5-dp.so.0:_ZN13ColladaDOM15026COLLADA_ELEMENT_MASS_FRAMEE
libcollada-dom2.5-dp.so.0:_ZN13ColladaDOM15026COLLADA_ELEMENT_NAME_ARRAYE
libcollada-dom2.5-dp.so.0:_ZN13ColladaDOM15026COLLADA_ELEMENT_POINT_SIZEE
libcollada-dom2.5-dp.so.0:_ZN13ColladaDOM15026COLLADA_ELEMENT_PROFILE_CGE
libcollada-dom2.5-dp.so.0:_ZN13ColladaDOM15026COLLADA_ELEMENT_REFLECTIVEE
libcollada-dom2.5-dp.so.0:_ZN13ColladaDOM15026COLLADA_ELEMENT_RENDERABLEE
libcollada-dom2.5-dp.so.0:_ZN13ColladaDOM15026COLLADA_ELEMENT_RIGID_BODYE
libcollada-dom2.5-dp.so.0:_ZN13ColladaDOM15026COLLADA_ELEMENT_SIZE_EXACTE
libcollada-dom2.5-dp.so.0:_ZN13ColladaDOM15026COLLADA_ELEMENT_SIZE_RATIOE
libcollada-dom2.5-dp.so.0:_ZN13ColladaDOM15026COLLADA_ELEMENT_STENCIL_OPE
libcollada-dom2.5-dp.so.0:_ZN13ColladaDOM15026COLLADA_TYPE_BIND_MATERIALE
libcollada-dom2.5-dp.so.0:_ZN13ColladaDOM15026COLLADA_TYPE_DITHER_ENABLEE
libcollada-dom2.5-dp.so.0:_ZN13ColladaDOM15026COLLADA_TYPE_FOG_COORD_SRCE
libcollada-dom2.5-dp.so.0:_ZN13ColladaDOM15026COLLADA_TYPE_FX_CLEARCOLORE
libcollada-dom2.5-dp.so.0:_ZN13ColladaDOM15026COLLADA_TYPE_FX_CLEARDEPTHE
libcollada-dom2.5-dp.so.0:_ZN13ColladaDOM15026COLLADA_TYPE_GLES2_PROGRAME
libcollada-dom2.5-dp.so.0:_ZN13ColladaDOM15026COLLADA_TYPE_GLES_NEWPARAME
libcollada-dom2.5-dp.so.0:_ZN13ColladaDOM15026COLLADA_TYPE_GLSL_NEWPARAME
libcollada-dom2.5-dp.so.0:_ZN13ColladaDOM15026COLLADA_TYPE_INSTANCE_NODEE
libcollada-dom2.5-dp.so.0:_ZN13ColladaDOM15026COLLADA_TYPE_LIBRARY_NODESE
libcollada-dom2.5-dp.so.0:_ZN13ColladaDOM15026COLLADA_TYPE_LIGHT_AMBIENTE
libcollada-dom2.5-dp.so.0:_ZN13ColladaDOM15026COLLADA_TYPE_LIGHT_DIFFUSEE
libcollada-dom2.5-dp.so.0:_ZN13ColladaDOM15026COLLADA_TYPE_MIP_MAX_LEVELE
libcollada-dom2.5-dp.so.0:_ZN13ColladaDOM15026COLLADA_TYPE_MIP_MIN_LEVELE
libcollada-dom2.5-dp.so.0:_ZN13ColladaDOM15026COLLADA_TYPE_NURBS_SURFACEE
libcollada-dom2.5-dp.so.0:_ZN13ColladaDOM15026COLLADA_TYPE_PHYSICS_MODELE
libcollada-dom2.5-dp.so.0:_ZN13ColladaDOM15026COLLADA_TYPE_PHYSICS_SCENEE
libcollada-dom2.5-dp.so.0:_ZN13ColladaDOM15026COLLADA_TYPE_PROFILE_GLES2E
libcollada-dom2.5-dp.so.0:_ZN13ColladaDOM15026COLLADA_TYPE_SWEPT_SURFACEE
libcollada-dom2.5-dp.so.0:_ZN13ColladaDOM15026COMMON_PROFILE_INPUT_COLORE
libcollada-dom2.5-dp.so.0:_ZN13ColladaDOM15026COMMON_PROFILE_INPUT_IMAGEE
libcollada-dom2.5-dp.so.0:_ZN13ColladaDOM15026COMMON_PROFILE_INPUT_INPUTE
libcollada-dom2.5-dp.so.0:_ZN13ColladaDOM15026COMMON_PROFILE_INPUT_JOINTE
libcollada-dom2.5-dp.so.0:_ZN13ColladaDOM15026COMMON_PROFILE_PARAM_ANGLEE
libcollada-dom2.5-dp.so.0:_ZN13ColladaDOM15026domGles2_pipeline_settings10domScissor15registerElementER3DAE
libcollada-dom2.5-dp.so.0:_ZN13ColladaDOM15026domGles2_pipeline_settings10domScissor6createER3DAE
libcollada-dom2.5-dp.so.0:_ZN13ColladaDOM15026domGles2_pipeline_settings12domCull_face15registerElementER3DAE
libcollada-dom2.5-dp.so.0:_ZN13ColladaDOM15026domGles2_pipeline_settings12domCull_face6createER3DAE
libcollada-dom2.5-dp.so.0:_ZN13ColladaDOM15026domGles2_pipeline_settings13domBlend_func15registerElementER3DAE
libcollada-dom2.5-dp.so.0:_ZN13ColladaDOM15026domGles2_pipeline_settings13domBlend_func6createER3DAE
libcollada-dom2.5-dp.so.0:_ZN13ColladaDOM15026domGles2_pipeline_settings13domBlend_func6domSrc15registerElementER3DAE
libcollada-dom2.5-dp.so.0:_ZN13ColladaDOM15026domGles2_pipeline_settings13domBlend_func6domSrc6createER3DAE
libcollada-dom2.5-dp.so.0:_ZN13ColladaDOM15026domGles2_pipeline_settings13domBlend_func7domDest15registerElementER3DAE
libcollada-dom2.5-dp.so.0:_ZN13ColladaDOM15026domGles2_pipeline_settings13domBlend_func7domDest6createER3DAE
libcollada-dom2.5-dp.so.0:_ZN13ColladaDOM15026domGles2_pipeline_settings13domColor_mask15registerElementER3DAE
libcollada-dom2.5-dp.so.0:_ZN13ColladaDOM15026domGles2_pipeline_settings13domColor_mask6createER3DAE
libcollada-dom2.5-dp.so.0:_ZN13ColladaDOM15026domGles2_pipeline_settings13domDepth_func15registerElementER3DAE
libcollada-dom2.5-dp.so.0:_ZN13ColladaDOM15026domGles2_pipeline_settings13domDepth_func6createER3DAE
libcollada-dom2.5-dp.so.0:_ZN13ColladaDOM15026domGles2_pipeline_settings13domDepth_mask15registerElementER3DAE
libcollada-dom2.5-dp.so.0:_ZN13ColladaDOM15026domGles2_pipeline_settings13domDepth_mask6createER3DAE
libcollada-dom2.5-dp.so.0:_ZN13ColladaDOM15026domGles2_pipeline_settings13domFront_face15registerElementER3DAE
libcollada-dom2.5-dp.so.0:_ZN13ColladaDOM15026domGles2_pipeline_settings13domFront_face6createER3DAE
libcollada-dom2.5-dp.so.0:_ZN13ColladaDOM15026domGles2_pipeline_settings13domLine_width15registerElementER3DAE
libcollada-dom2.5-dp.so.0:_ZN13ColladaDOM15026domGles2_pipeline_settings13domLine_width6createER3DAE
libcollada-dom2.5-dp.so.0:_ZN13ColladaDOM15026domGles2_pipeline_settings13domPoint_size15registerElementER3DAE
libcollada-dom2.5-dp.so.0:_ZN13ColladaDOM15026domGles2_pipeline_settings13domPoint_size6createER3DAE
libcollada-dom2.5-dp.so.0:_ZN13ColladaDOM15026domGles2_pipeline_settings13domStencil_op15registerElementER3DAE
libcollada-dom2.5-dp.so.0:_ZN13ColladaDOM15026domGles2_pipeline_settings13domStencil_op6createER3DAE
libcollada-dom2.5-dp.so.0:_ZN13ColladaDOM15026domGles2_pipeline_settings13domStencil_op7domFail15registerElementER3DAE
libcollada-dom2.5-dp.so.0:_ZN13ColladaDOM15026domGles2_pipeline_settings13domStencil_op7domFail6createER3DAE
libcollada-dom2.5-dp.so.0:_ZN13ColladaDOM15026domGles2_pipeline_settings13domStencil_op8domZfail15registerElementER3DAE
libcollada-dom2.5-dp.so.0:_ZN13ColladaDOM15026domGles2_pipeline_settings13domStencil_op8domZfail6createER3DAE
libcollada-dom2.5-dp.so.0:_ZN13ColladaDOM15026domGles2_pipeline_settings13domStencil_op8domZpass15registerElementER3DAE
libcollada-dom2.5-dp.so.0:_ZN13ColladaDOM15026domGles2_pipeline_settings13domStencil_op8domZpass6createER3DAE
libcollada-dom2.5-dp.so.0:_ZN13ColladaDOM15026domGles2_pipeline_settings14domBlend_color15registerElementER3DAE
libcollada-dom2.5-dp.so.0:_ZN13ColladaDOM15026domGles2_pipeline_settings14domBlend_color6createER3DAE
libcollada-dom2.5-dp.so.0:_ZN13ColladaDOM15026domGles2_pipeline_settings14domDepth_range15registerElementER3DAE
libcollada-dom2.5-dp.so.0:_ZN13ColladaDOM15026domGles2_pipeline_settings14domDepth_range6createER3DAE
libcollada-dom2.5-dp.so.0:_ZN13ColladaDOM15026domGles2_pipeline_settings15domBlend_enable15registerElementER3DAE
libcollada-dom2.5-dp.so.0:_ZN13ColladaDOM15026domGles2_pipeline_settings15domBlend_enable6createER3DAE
libcollada-dom2.5-dp.so.0:_ZN13ColladaDOM15026domGles2_pipeline_settings15domStencil_func15registerElementER3DAE
libcollada-dom2.5-dp.so.0:_ZN13ColladaDOM15026domGles2_pipeline_settings15domStencil_func6createER3DAE
libcollada-dom2.5-dp.so.0:_ZN13ColladaDOM15026domGles2_pipeline_settings15domStencil_func6domRef15registerElementER3DAE
libcollada-dom2.5-dp.so.0:_ZN13ColladaDOM15026domGles2_pipeline_settings15domStencil_func6domRef6createER3DAE
libcollada-dom2.5-dp.so.0:_ZN13ColladaDOM15026domGles2_pipeline_settings15domStencil_func7domFunc15registerElementER3DAE
libcollada-dom2.5-dp.so.0:_ZN13ColladaDOM15026domGles2_pipeline_settings15domStencil_func7domFunc6createER3DAE
libcollada-dom2.5-dp.so.0:_ZN13ColladaDOM15026domGles2_pipeline_settings15domStencil_func7domMask15registerElementER3DAE
libcollada-dom2.5-dp.so.0:_ZN13ColladaDOM15026domGles2_pipeline_settings15domStencil_func7domMask6createER3DAE
libcollada-dom2.5-dp.so.0:_ZN13ColladaDOM15026domGles2_pipeline_settings15domStencil_mask15registerElementER3DAE
libcollada-dom2.5-dp.so.0:_ZN13ColladaDOM15026domGles2_pipeline_settings15domStencil_mask6createER3DAE
libcollada-dom2.5-dp.so.0:_ZN13ColladaDOM15026domGles2_pipeline_settings15registerElementER3DAE
libcollada-dom2.5-dp.so.0:_ZN13ColladaDOM15026domGles2_pipeline_settings16domDither_enable15registerElementER3DAE
libcollada-dom2.5-dp.so.0:_ZN13ColladaDOM15026domGles2_pipeline_settings16domDither_enable6createER3DAE
libcollada-dom2.5-dp.so.0:_ZN13ColladaDOM15026domGles2_pipeline_settings17domBlend_equation15registerElementER3DAE
libcollada-dom2.5-dp.so.0:_ZN13ColladaDOM15026domGles2_pipeline_settings17domBlend_equation6createER3DAE
libcollada-dom2.5-dp.so.0:_ZN13ColladaDOM15026domGles2_pipeline_settings17domPolygon_offset15registerElementER3DAE
libcollada-dom2.5-dp.so.0:_ZN13ColladaDOM15026domGles2_pipeline_settings17domPolygon_offset6createER3DAE
libcollada-dom2.5-dp.so.0:_ZN13ColladaDOM15026domGles2_pipeline_settings18domSample_coverage15registerElementER3DAE
libcollada-dom2.5-dp.so.0:_ZN13ColladaDOM15026domGles2_pipeline_settings18domSample_coverage6createER3DAE
libcollada-dom2.5-dp.so.0:_ZN13ColladaDOM15026domGles2_pipeline_settings18domSample_coverage8domValue15registerElementER3DAE
libcollada-dom2.5-dp.so.0:_ZN13ColladaDOM15026domGles2_pipeline_settings18domSample_coverage8domValue6createER3DAE
libcollada-dom2.5-dp.so.0:_ZN13ColladaDOM15026domGles2_pipeline_settings18domSample_coverage9domInvert15registerElementER3DAE
libcollada-dom2.5-dp.so.0:_ZN13ColladaDOM15026domGles2_pipeline_settings18domSample_coverage9domInvert6createER3DAE
libcollada-dom2.5-dp.so.0:_ZN13ColladaDOM15026domGles2_pipeline_settings19domCull_face_enable15registerElementER3DAE
libcollada-dom2.5-dp.so.0:_ZN13ColladaDOM15026domGles2_pipeline_settings19domCull_face_enable6createER3DAE
libcollada-dom2.5-dp.so.0:_ZN13ColladaDOM15026domGles2_pipeline_settings20domDepth_test_enable15registerElementER3DAE
libcollada-dom2.5-dp.so.0:_ZN13ColladaDOM15026domGles2_pipeline_settings20domDepth_test_enable6createER3DAE
libcollada-dom2.5-dp.so.0:_ZN13ColladaDOM15026domGles2_pipeline_settings20domPoint_size_enable15registerElementER3DAE
libcollada-dom2.5-dp.so.0:_ZN13ColladaDOM15026domGles2_pipeline_settings20domPoint_size_enable6createER3DAE
libcollada-dom2.5-dp.so.0:_ZN13ColladaDOM15026domGles2_pipeline_settings22domBlend_func_separate10domSrc_rgb15registerElementER3DAE
libcollada-dom2.5-dp.so.0:_ZN13ColladaDOM15026domGles2_pipeline_settings22domBlend_func_separate10domSrc_rgb6createER3DAE
libcollada-dom2.5-dp.so.0:_ZN13ColladaDOM15026domGles2_pipeline_settings22domBlend_func_separate11domDest_rgb15registerElementER3DAE
libcollada-dom2.5-dp.so.0:_ZN13ColladaDOM15026domGles2_pipeline_settings22domBlend_func_separate11domDest_rgb6createER3DAE
libcollada-dom2.5-dp.so.0:_ZN13ColladaDOM15026domGles2_pipeline_settings22domBlend_func_separate12domSrc_alpha15registerElementER3DAE
libcollada-dom2.5-dp.so.0:_ZN13ColladaDOM15026domGles2_pipeline_settings22domBlend_func_separate12domSrc_alpha6createER3DAE
libcollada-dom2.5-dp.so.0:_ZN13ColladaDOM15026domGles2_pipeline_settings22domBlend_func_separate13domDest_alpha15registerElementER3DAE
libcollada-dom2.5-dp.so.0:_ZN13ColladaDOM15026domGles2_pipeline_settings22domBlend_func_separate13domDest_alpha6createER3DAE
libcollada-dom2.5-dp.so.0:_ZN13ColladaDOM15026domGles2_pipeline_settings22domBlend_func_separate15registerElementER3DAE
libcollada-dom2.5-dp.so.0:_ZN13ColladaDOM15026domGles2_pipeline_settings22domBlend_func_separate6createER3DAE
libcollada-dom2.5-dp.so.0:_ZN13ColladaDOM15026domGles2_pipeline_settings22domScissor_test_enable15registerElementER3DAE
libcollada-dom2.5-dp.so.0:_ZN13ColladaDOM15026domGles2_pipeline_settings22domScissor_test_enable6createER3DAE
libcollada-dom2.5-dp.so.0:_ZN13ColladaDOM15026domGles2_pipeline_settings22domStencil_op_separate15registerElementER3DAE
libcollada-dom2.5-dp.so.0:_ZN13ColladaDOM15026domGles2_pipeline_settings22domStencil_op_separate6createER3DAE
libcollada-dom2.5-dp.so.0:_ZN13ColladaDOM15026domGles2_pipeline_settings22domStencil_op_separate7domFace15registerElementER3DAE
libcollada-dom2.5-dp.so.0:_ZN13ColladaDOM15026domGles2_pipeline_settings22domStencil_op_separate7domFace6createER3DAE
libcollada-dom2.5-dp.so.0:_ZN13ColladaDOM15026domGles2_pipeline_settings22domStencil_op_separate7domFail15registerElementER3DAE
libcollada-dom2.5-dp.so.0:_ZN13ColladaDOM15026domGles2_pipeline_settings22domStencil_op_separate7domFail6createER3DAE
libcollada-dom2.5-dp.so.0:_ZN13ColladaDOM15026domGles2_pipeline_settings22domStencil_op_separate8domZfail15registerElementER3DAE
libcollada-dom2.5-dp.so.0:_ZN13ColladaDOM15026domGles2_pipeline_settings22domStencil_op_separate8domZfail6createER3DAE
libcollada-dom2.5-dp.so.0:_ZN13ColladaDOM15026domGles2_pipeline_settings22domStencil_op_separate8domZpass15registerElementER3DAE
libcollada-dom2.5-dp.so.0:_ZN13ColladaDOM15026domGles2_pipeline_settings22domStencil_op_separate8domZpass6createER3DAE
libcollada-dom2.5-dp.so.0:_ZN13ColladaDOM15026domGles2_pipeline_settings22domStencil_test_enable15registerElementER3DAE
libcollada-dom2.5-dp.so.0:_ZN13ColladaDOM15026domGles2_pipeline_settings22domStencil_test_enable6createER3DAE
libcollada-dom2.5-dp.so.0:_ZN13ColladaDOM15026domGles2_pipeline_settings24domStencil_func_separate15registerElementER3DAE
libcollada-dom2.5-dp.so.0:_ZN13ColladaDOM15026domGles2_pipeline_settings24domStencil_func_separate6createER3DAE
libcollada-dom2.5-dp.so.0:_ZN13ColladaDOM15026domGles2_pipeline_settings24domStencil_func_separate6domRef15registerElementER3DAE
libcollada-dom2.5-dp.so.0:_ZN13ColladaDOM15026domGles2_pipeline_settings24domStencil_func_separate6domRef6createER3DAE
libcollada-dom2.5-dp.so.0:_ZN13ColladaDOM15026domGles2_pipeline_settings24domStencil_func_separate7domBack15registerElementER3DAE
libcollada-dom2.5-dp.so.0:_ZN13ColladaDOM15026domGles2_pipeline_settings24domStencil_func_separate7domBack6createER3DAE
libcollada-dom2.5-dp.so.0:_ZN13ColladaDOM15026domGles2_pipeline_settings24domStencil_func_separate7domMask15registerElementER3DAE
libcollada-dom2.5-dp.so.0:_ZN13ColladaDOM15026domGles2_pipeline_settings24domStencil_func_separate7domMask6createER3DAE
libcollada-dom2.5-dp.so.0:_ZN13ColladaDOM15026domGles2_pipeline_settings24domStencil_func_separate8domFront15registerElementER3DAE
libcollada-dom2.5-dp.so.0:_ZN13ColladaDOM15026domGles2_pipeline_settings24domStencil_func_separate8domFront6createER3DAE
libcollada-dom2.5-dp.so.0:_ZN13ColladaDOM15026domGles2_pipeline_settings24domStencil_mask_separate15registerElementER3DAE
libcollada-dom2.5-dp.so.0:_ZN13ColladaDOM15026domGles2_pipeline_settings24domStencil_mask_separate6createER3DAE
libcollada-dom2.5-dp.so.0:_ZN13ColladaDOM15026domGles2_pipeline_settings24domStencil_mask_separate7domFace15registerElementER3DAE
libcollada-dom2.5-dp.so.0:_ZN13ColladaDOM15026domGles2_pipeline_settings24domStencil_mask_separate7domFace6createER3DAE
libcollada-dom2.5-dp.so.0:_ZN13ColladaDOM15026domGles2_pipeline_settings24domStencil_mask_separate7domMask15registerElementER3DAE
libcollada-dom2.5-dp.so.0:_ZN13ColladaDOM15026domGles2_pipeline_settings24domStencil_mask_separate7domMask6createER3DAE
libcollada-dom2.5-dp.so.0:_ZN13ColladaDOM15026domGles2_pipeline_settings25domSample_coverage_enable15registerElementER3DAE
libcollada-dom2.5-dp.so.0:_ZN13ColladaDOM15026domGles2_pipeline_settings25domSample_coverage_enable6createER3DAE
libcollada-dom2.5-dp.so.0:_ZN13ColladaDOM15026domGles2_pipeline_settings26domBlend_equation_separate15registerElementER3DAE
libcollada-dom2.5-dp.so.0:_ZN13ColladaDOM15026domGles2_pipeline_settings26domBlend_equation_separate6createER3DAE
libcollada-dom2.5-dp.so.0:_ZN13ColladaDOM15026domGles2_pipeline_settings26domBlend_equation_separate6domRgb15registerElementER3DAE
libcollada-dom2.5-dp.so.0:_ZN13ColladaDOM15026domGles2_pipeline_settings26domBlend_equation_separate6domRgb6createER3DAE
libcollada-dom2.5-dp.so.0:_ZN13ColladaDOM15026domGles2_pipeline_settings26domBlend_equation_separate8domAlpha15registerElementER3DAE
libcollada-dom2.5-dp.so.0:_ZN13ColladaDOM15026domGles2_pipeline_settings26domBlend_equation_separate8domAlpha6createER3DAE
libcollada-dom2.5-dp.so.0:_ZN13ColladaDOM15026domGles2_pipeline_settings29domPolygon_offset_fill_enable15registerElementER3DAE
libcollada-dom2.5-dp.so.0:_ZN13ColladaDOM15026domGles2_pipeline_settings29domPolygon_offset_fill_enable6createER3DAE
libcollada-dom2.5-dp.so.0:_ZN13ColladaDOM15026domGles2_pipeline_settings34domSample_alpha_to_coverage_enable15registerElementER3DAE
libcollada-dom2.5-dp.so.0:_ZN13ColladaDOM15026domGles2_pipeline_settings34domSample_alpha_to_coverage_enable6createER3DAE
libcollada-dom2.5-dp.so.0:_ZN13ColladaDOM15026domGles2_pipeline_settings6createER3DAE
libcollada-dom2.5-dp.so.0:_ZN13ColladaDOM15026domLibrary_animation_clips15registerElementER3DAE
libcollada-dom2.5-dp.so.0:_ZN13ColladaDOM15026domLibrary_animation_clips6createER3DAE
libcollada-dom2.5-dp.so.0:_ZN13ColladaDOM15027COLLADA_ELEMENT_BLEND_COLORE
libcollada-dom2.5-dp.so.0:_ZN13ColladaDOM15027COLLADA_ELEMENT_COLOR_CLEARE
libcollada-dom2.5-dp.so.0:_ZN13ColladaDOM15027COLLADA_ELEMENT_CONTRIBUTORE
libcollada-dom2.5-dp.so.0:_ZN13ColladaDOM15027COLLADA_ELEMENT_CONVEX_MESHE
libcollada-dom2.5-dp.so.0:_ZN13ColladaDOM15027COLLADA_ELEMENT_CREATE_CUBEE
libcollada-dom2.5-dp.so.0:_ZN13ColladaDOM15027COLLADA_ELEMENT_DEPTH_CLEARE
libcollada-dom2.5-dp.so.0:_ZN13ColladaDOM15027COLLADA_ELEMENT_DEPTH_RANGEE
libcollada-dom2.5-dp.so.0:_ZN13ColladaDOM15027COLLADA_ELEMENT_DIRECTIONALE
libcollada-dom2.5-dp.so.0:_ZN13ColladaDOM15027COLLADA_ELEMENT_FLOAT_ARRAYE
libcollada-dom2.5-dp.so.0:_ZN13ColladaDOM15027COLLADA_ELEMENT_FOG_DENSITYE
libcollada-dom2.5-dp.so.0:_ZN13ColladaDOM15027COLLADA_ELEMENT_FORCE_FIELDE
libcollada-dom2.5-dp.so.0:_ZN13ColladaDOM15027COLLADA_ELEMENT_FX_SETPARAME
libcollada-dom2.5-dp.so.0:_ZN13ColladaDOM15027COLLADA_ELEMENT_GLES2_VALUEE
libcollada-dom2.5-dp.so.0:_ZN13ColladaDOM15027COLLADA_ELEMENT_IDREF_ARRAYE
libcollada-dom2.5-dp.so.0:_ZN13ColladaDOM15027COLLADA_ELEMENT_PERSPECTIVEE
libcollada-dom2.5-dp.so.0:_ZN13ColladaDOM15027COLLADA_ELEMENT_RESTITUTIONE
libcollada-dom2.5-dp.so.0:_ZN13ColladaDOM15027COLLADA_ELEMENT_SAMPLERCUBEE
libcollada-dom2.5-dp.so.0:_ZN13ColladaDOM15027COLLADA_ELEMENT_SAMPLERRECTE
libcollada-dom2.5-dp.so.0:_ZN13ColladaDOM15027COLLADA_ELEMENT_SHADE_MODELE
libcollada-dom2.5-dp.so.0:_ZN13ColladaDOM15027COLLADA_ELEMENT_SOURCE_DATAE
libcollada-dom2.5-dp.so.0:_ZN13ColladaDOM15027COLLADA_ELEMENT_TEXCOMBINERE
libcollada-dom2.5-dp.so.0:_ZN13ColladaDOM15027COLLADA_ELEMENT_TEXTURECUBEE
libcollada-dom2.5-dp.so.0:_ZN13ColladaDOM15027COLLADA_ELEMENT_TEXTURERECTE
libcollada-dom2.5-dp.so.0:_ZN13ColladaDOM15027COLLADA_ELEMENT_TOKEN_ARRAYE
libcollada-dom2.5-dp.so.0:_ZN13ColladaDOM15027COLLADA_ELEMENT_TRANSPARENTE
libcollada-dom2.5-dp.so.0:_ZN13ColladaDOM15027COLLADA_TYPE_ANIMATION_CLIPE
libcollada-dom2.5-dp.so.0:_ZN13ColladaDOM15027COLLADA_TYPE_ATTACHMENT_ENDE
libcollada-dom2.5-dp.so.0:_ZN13ColladaDOM15027COLLADA_TYPE_AUTHORING_TOOLE
libcollada-dom2.5-dp.so.0:_ZN13ColladaDOM15027COLLADA_TYPE_AUTHOR_WEBSITEE
libcollada-dom2.5-dp.so.0:_ZN13ColladaDOM15027COLLADA_TYPE_BIND_ATTRIBUTEE
libcollada-dom2.5-dp.so.0:_ZN13ColladaDOM15027COLLADA_TYPE_BLEND_EQUATIONE
libcollada-dom2.5-dp.so.0:_ZN13ColladaDOM15027COLLADA_TYPE_COLOR_MATERIALE
libcollada-dom2.5-dp.so.0:_ZN13ColladaDOM15027COLLADA_TYPE_EVALUATE_SCENEE
libcollada-dom2.5-dp.so.0:_ZN13ColladaDOM15027COLLADA_TYPE_FX_COLORTARGETE
libcollada-dom2.5-dp.so.0:_ZN13ColladaDOM15027COLLADA_TYPE_FX_DEPTHTARGETE
libcollada-dom2.5-dp.so.0:_ZN13ColladaDOM15027COLLADA_TYPE_FX_SAMPLERCUBEE
libcollada-dom2.5-dp.so.0:_ZN13ColladaDOM15027COLLADA_TYPE_FX_SAMPLERRECTE
libcollada-dom2.5-dp.so.0:_ZN13ColladaDOM15027COLLADA_TYPE_GLES2_NEWPARAME
libcollada-dom2.5-dp.so.0:_ZN13ColladaDOM15027COLLADA_TYPE_INSTANCE_IMAGEE
libcollada-dom2.5-dp.so.0:_ZN13ColladaDOM15027COLLADA_TYPE_INSTANCE_JOINTE
libcollada-dom2.5-dp.so.0:_ZN13ColladaDOM15027COLLADA_TYPE_INSTANCE_LIGHTE
libcollada-dom2.5-dp.so.0:_ZN13ColladaDOM15027COLLADA_TYPE_INTERPENETRATEE
libcollada-dom2.5-dp.so.0:_ZN13ColladaDOM15027COLLADA_TYPE_LIBRARY_IMAGESE
libcollada-dom2.5-dp.so.0:_ZN13ColladaDOM15027COLLADA_TYPE_LIBRARY_JOINTSE
libcollada-dom2.5-dp.so.0:_ZN13ColladaDOM15027COLLADA_TYPE_LIBRARY_LIGHTSE
libcollada-dom2.5-dp.so.0:_ZN13ColladaDOM15027COLLADA_TYPE_LIGHT_POSITIONE
libcollada-dom2.5-dp.so.0:_ZN13ColladaDOM15027COLLADA_TYPE_LIGHT_SPECULARE
libcollada-dom2.5-dp.so.0:_ZN13ColladaDOM15027COLLADA_TYPE_MAX_ANISOTROPYE
libcollada-dom2.5-dp.so.0:_ZN13ColladaDOM15027COLLADA_TYPE_POINT_SIZE_MAXE
libcollada-dom2.5-dp.so.0:_ZN13ColladaDOM15027COLLADA_TYPE_POINT_SIZE_MINE
libcollada-dom2.5-dp.so.0:_ZN13ColladaDOM15027COLLADA_TYPE_POLYGON_OFFSETE
libcollada-dom2.5-dp.so.0:_ZN13ColladaDOM15027COLLADA_TYPE_PROFILE_BRIDGEE
libcollada-dom2.5-dp.so.0:_ZN13ColladaDOM15027COLLADA_TYPE_PROFILE_COMMONE
libcollada-dom2.5-dp.so.0:_ZN13ColladaDOM15027COLLADA_TYPE_REF_ATTACHMENTE
libcollada-dom2.5-dp.so.0:_ZN13ColladaDOM15027COLLADA_TYPE_SAMPLER_STATESE
libcollada-dom2.5-dp.so.0:_ZN13ColladaDOM15027COLLADA_TYPE_SURFACE_CURVESE
libcollada-dom2.5-dp.so.0:_ZN13ColladaDOM15027COLLADA_TYPE_TECHNIQUE_HINTE
libcollada-dom2.5-dp.so.0:_ZN13ColladaDOM15027COLLADA_TYPE_VERTEX_WEIGHTSE
libcollada-dom2.5-dp.so.0:_ZN13ColladaDOM15027COMMON_PROFILE_INPUT_NORMALE
libcollada-dom2.5-dp.so.0:_ZN13ColladaDOM15027COMMON_PROFILE_INPUT_OUTPUTE
libcollada-dom2.5-dp.so.0:_ZN13ColladaDOM15027COMMON_PROFILE_INPUT_VERTEXE
libcollada-dom2.5-dp.so.0:_ZN13ColladaDOM15027COMMON_PROFILE_INPUT_WEIGHTE
libcollada-dom2.5-dp.so.0:_ZN13ColladaDOM15027domFx_common_float_or_param15registerElementER3DAE
libcollada-dom2.5-dp.so.0:_ZN13ColladaDOM15027domFx_common_float_or_param6createER3DAE
libcollada-dom2.5-dp.so.0:_ZN13ColladaDOM15027domFx_common_float_or_param8domFloat15registerElementER3DAE
libcollada-dom2.5-dp.so.0:_ZN13ColladaDOM15027domFx_common_float_or_param8domFloat6createER3DAE
libcollada-dom2.5-dp.so.0:_ZN13ColladaDOM15027domFx_common_float_or_param8domParam15registerElementER3DAE
libcollada-dom2.5-dp.so.0:_ZN13ColladaDOM15027domFx_common_float_or_param8domParam6createER3DAE
libcollada-dom2.5-dp.so.0:_ZN13ColladaDOM15027domGles_texcombiner_command15registerElementER3DAE
libcollada-dom2.5-dp.so.0:_ZN13ColladaDOM15027domGles_texcombiner_command6createER3DAE
libcollada-dom2.5-dp.so.0:_ZN13ColladaDOM15027domKinematics_connect_param15registerElementER3DAE
libcollada-dom2.5-dp.so.0:_ZN13ColladaDOM15027domKinematics_connect_param6createER3DAE
libcollada-dom2.5-dp.so.0:_ZN13ColladaDOM15028COLLADA_ELEMENT_ACCELERATIONE
libcollada-dom2.5-dp.so.0:_ZN13ColladaDOM15028COLLADA_ELEMENT_ASPECT_RATIOE
libcollada-dom2.5-dp.so.0:_ZN13ColladaDOM15028COLLADA_ELEMENT_AUTHOR_EMAILE
libcollada-dom2.5-dp.so.0:_ZN13ColladaDOM15028COLLADA_ELEMENT_BIND_UNIFORME
libcollada-dom2.5-dp.so.0:_ZN13ColladaDOM15028COLLADA_ELEMENT_BLEND_ENABLEE
libcollada-dom2.5-dp.so.0:_ZN13ColladaDOM15028COLLADA_ELEMENT_BORDER_COLORE
libcollada-dom2.5-dp.so.0:_ZN13ColladaDOM15028COLLADA_ELEMENT_COLOR_TARGETE
libcollada-dom2.5-dp.so.0:_ZN13ColladaDOM15028COLLADA_ELEMENT_DECELERATIONE
libcollada-dom2.5-dp.so.0:_ZN13ColladaDOM15028COLLADA_ELEMENT_DEPTH_BOUNDSE
libcollada-dom2.5-dp.so.0:_ZN13ColladaDOM15028COLLADA_ELEMENT_DEPTH_TARGETE
libcollada-dom2.5-dp.so.0:_ZN13ColladaDOM15028COLLADA_ELEMENT_FRAME_OBJECTE
libcollada-dom2.5-dp.so.0:_ZN13ColladaDOM15028COLLADA_ELEMENT_FRAME_ORIGINE
libcollada-dom2.5-dp.so.0:_ZN13ColladaDOM15028COLLADA_ELEMENT_HALF_EXTENTSE
libcollada-dom2.5-dp.so.0:_ZN13ColladaDOM15028COLLADA_ELEMENT_LIGHT_ENABLEE
libcollada-dom2.5-dp.so.0:_ZN13ColladaDOM15028COLLADA_ELEMENT_LINE_STIPPLEE
libcollada-dom2.5-dp.so.0:_ZN13ColladaDOM15028COLLADA_ELEMENT_ORTHOGRAPHICE
libcollada-dom2.5-dp.so.0:_ZN13ColladaDOM15028COLLADA_ELEMENT_POLYGON_MODEE
libcollada-dom2.5-dp.so.0:_ZN13ColladaDOM15028COLLADA_ELEMENT_PROFILE_GLESE
libcollada-dom2.5-dp.so.0:_ZN13ColladaDOM15028COLLADA_ELEMENT_PROFILE_GLSLE
libcollada-dom2.5-dp.so.0:_ZN13ColladaDOM15028COLLADA_ELEMENT_REFLECTIVITYE
libcollada-dom2.5-dp.so.0:_ZN13ColladaDOM15028COLLADA_ELEMENT_SAMPLERDEPTHE
libcollada-dom2.5-dp.so.0:_ZN13ColladaDOM15028COLLADA_ELEMENT_SIDREF_ARRAYE
libcollada-dom2.5-dp.so.0:_ZN13ColladaDOM15028COLLADA_ELEMENT_STENCIL_FUNCE
libcollada-dom2.5-dp.so.0:_ZN13ColladaDOM15028COLLADA_ELEMENT_STENCIL_MASKE
libcollada-dom2.5-dp.so.0:_ZN13ColladaDOM15028COLLADA_ELEMENT_TARGET_VALUEE
libcollada-dom2.5-dp.so.0:_ZN13ColladaDOM15028COLLADA_ELEMENT_TEXTUREDEPTHE
libcollada-dom2.5-dp.so.0:_ZN13ColladaDOM15028COLLADA_ELEMENT_TRANSPARENCYE
libcollada-dom2.5-dp.so.0:_ZN13ColladaDOM15028COLLADA_ELEMENT_UNNORMALIZEDE
libcollada-dom2.5-dp.so.0:_ZN13ColladaDOM15028COLLADA_ELEMENT_VISUAL_SCENEE
libcollada-dom2.5-dp.so.0:_ZN13ColladaDOM15028COLLADA_TYPE_ATTACHMENT_FULLE
libcollada-dom2.5-dp.so.0:_ZN13ColladaDOM15028COLLADA_TYPE_AXIS_CONSTRAINTE
libcollada-dom2.5-dp.so.0:_ZN13ColladaDOM15028COLLADA_TYPE_BIND_JOINT_AXISE
libcollada-dom2.5-dp.so.0:_ZN13ColladaDOM15028COLLADA_TYPE_FX_CLEARSTENCILE
libcollada-dom2.5-dp.so.0:_ZN13ColladaDOM15028COLLADA_TYPE_FX_RENDERTARGETE
libcollada-dom2.5-dp.so.0:_ZN13ColladaDOM15028COLLADA_TYPE_FX_SAMPLERDEPTHE
libcollada-dom2.5-dp.so.0:_ZN13ColladaDOM15028COLLADA_TYPE_INSTANCE_CAMERAE
libcollada-dom2.5-dp.so.0:_ZN13ColladaDOM15028COLLADA_TYPE_INSTANCE_EFFECTE
libcollada-dom2.5-dp.so.0:_ZN13ColladaDOM15028COLLADA_TYPE_KINEMATICS_BINDE
libcollada-dom2.5-dp.so.0:_ZN13ColladaDOM15028COLLADA_TYPE_LIBRARY_CAMERASE
libcollada-dom2.5-dp.so.0:_ZN13ColladaDOM15028COLLADA_TYPE_LIBRARY_EFFECTSE
libcollada-dom2.5-dp.so.0:_ZN13ColladaDOM15028COLLADA_TYPE_LIGHTING_ENABLEE
libcollada-dom2.5-dp.so.0:_ZN13ColladaDOM15028COLLADA_TYPE_LOGIC_OP_ENABLEE
libcollada-dom2.5-dp.so.0:_ZN13ColladaDOM15028COLLADA_TYPE_SAMPLE_COVERAGEE
libcollada-dom2.5-dp.so.0:_ZN13ColladaDOM15028COMMON_PROFILE_INPUT_TANGENTE
libcollada-dom2.5-dp.so.0:_ZN13ColladaDOM15028domInstance_kinematics_model15registerElementER3DAE
libcollada-dom2.5-dp.so.0:_ZN13ColladaDOM15028domInstance_kinematics_model6createER3DAE
libcollada-dom2.5-dp.so.0:_ZN13ColladaDOM15028domInstance_kinematics_scene15registerElementER3DAE
libcollada-dom2.5-dp.so.0:_ZN13ColladaDOM15028domInstance_kinematics_scene6createER3DAE
libcollada-dom2.5-dp.so.0:_ZN13ColladaDOM15028domInstance_physics_material15registerElementER3DAE
libcollada-dom2.5-dp.so.0:_ZN13ColladaDOM15028domInstance_physics_material6createER3DAE
libcollada-dom2.5-dp.so.0:_ZN13ColladaDOM15028domInstance_rigid_constraint15registerElementER3DAE
libcollada-dom2.5-dp.so.0:_ZN13ColladaDOM15028domInstance_rigid_constraint6createER3DAE
libcollada-dom2.5-dp.so.0:_ZN13ColladaDOM15028domLibrary_kinematics_models15registerElementER3DAE
libcollada-dom2.5-dp.so.0:_ZN13ColladaDOM15028domLibrary_kinematics_models6createER3DAE
libcollada-dom2.5-dp.so.0:_ZN13ColladaDOM15028domLibrary_kinematics_scenes15registerElementER3DAE
libcollada-dom2.5-dp.so.0:_ZN13ColladaDOM15028domLibrary_kinematics_scenes6createER3DAE
libcollada-dom2.5-dp.so.0:_ZN13ColladaDOM15028domLibrary_physics_materials15registerElementER3DAE
libcollada-dom2.5-dp.so.0:_ZN13ColladaDOM15028domLibrary_physics_materials6createER3DAE
libcollada-dom2.5-dp.so.0:_ZN13ColladaDOM15029COLLADA_ELEMENT_BIND_MATERIALE
libcollada-dom2.5-dp.so.0:_ZN13ColladaDOM15029COLLADA_ELEMENT_CONNECT_PARAME
libcollada-dom2.5-dp.so.0:_ZN13ColladaDOM15029COLLADA_ELEMENT_DITHER_ENABLEE
libcollada-dom2.5-dp.so.0:_ZN13ColladaDOM15029COLLADA_ELEMENT_EFFECTOR_INFOE
libcollada-dom2.5-dp.so.0:_ZN13ColladaDOM15029COLLADA_ELEMENT_FALLOFF_ANGLEE
libcollada-dom2.5-dp.so.0:_ZN13ColladaDOM15029COLLADA_ELEMENT_FOG_COORD_SRCE
libcollada-dom2.5-dp.so.0:_ZN13ColladaDOM15029COLLADA_ELEMENT_INSTANCE_NODEE
libcollada-dom2.5-dp.so.0:_ZN13ColladaDOM15029COLLADA_ELEMENT_LIBRARY_NODESE
libcollada-dom2.5-dp.so.0:_ZN13ColladaDOM15029COLLADA_ELEMENT_LIGHT_AMBIENTE
libcollada-dom2.5-dp.so.0:_ZN13ColladaDOM15029COLLADA_ELEMENT_LIGHT_DIFFUSEE
libcollada-dom2.5-dp.so.0:_ZN13ColladaDOM15029COLLADA_ELEMENT_MIP_MAX_LEVELE
libcollada-dom2.5-dp.so.0:_ZN13ColladaDOM15029COLLADA_ELEMENT_MIP_MIN_LEVELE
libcollada-dom2.5-dp.so.0:_ZN13ColladaDOM15029COLLADA_ELEMENT_NURBS_SURFACEE
libcollada-dom2.5-dp.so.0:_ZN13ColladaDOM15029COLLADA_ELEMENT_PHYSICS_MODELE
libcollada-dom2.5-dp.so.0:_ZN13ColladaDOM15029COLLADA_ELEMENT_PHYSICS_SCENEE
libcollada-dom2.5-dp.so.0:_ZN13ColladaDOM15029COLLADA_ELEMENT_PROFILE_GLES2E
libcollada-dom2.5-dp.so.0:_ZN13ColladaDOM15029COLLADA_ELEMENT_SAMPLER_IMAGEE
libcollada-dom2.5-dp.so.0:_ZN13ColladaDOM15029COLLADA_ELEMENT_STENCIL_CLEARE
libcollada-dom2.5-dp.so.0:_ZN13ColladaDOM15029COLLADA_ELEMENT_SWEPT_SURFACEE
libcollada-dom2.5-dp.so.0:_ZN13ColladaDOM15029COLLADA_TYPE_ANGULAR_VELOCITYE
libcollada-dom2.5-dp.so.0:_ZN13ColladaDOM15029COLLADA_TYPE_ATTACHMENT_STARTE
libcollada-dom2.5-dp.so.0:_ZN13ColladaDOM15029COLLADA_TYPE_CONTROL_VERTICESE
libcollada-dom2.5-dp.so.0:_ZN13ColladaDOM15029COLLADA_TYPE_CULL_FACE_ENABLEE
libcollada-dom2.5-dp.so.0:_ZN13ColladaDOM15029COLLADA_TYPE_FORMULA_NEWPARAME
libcollada-dom2.5-dp.so.0:_ZN13ColladaDOM15029COLLADA_TYPE_FORMULA_SETPARAME
libcollada-dom2.5-dp.so.0:_ZN13ColladaDOM15029COLLADA_TYPE_FX_STENCILTARGETE
libcollada-dom2.5-dp.so.0:_ZN13ColladaDOM15029COLLADA_TYPE_INSTANCE_FORMULAE
libcollada-dom2.5-dp.so.0:_ZN13ColladaDOM15029COLLADA_TYPE_KINEMATICS_FRAMEE
libcollada-dom2.5-dp.so.0:_ZN13ColladaDOM15029COLLADA_TYPE_KINEMATICS_INDEXE
libcollada-dom2.5-dp.so.0:_ZN13ColladaDOM15029COLLADA_TYPE_KINEMATICS_MODELE
libcollada-dom2.5-dp.so.0:_ZN13ColladaDOM15029COLLADA_TYPE_KINEMATICS_PARAME
libcollada-dom2.5-dp.so.0:_ZN13ColladaDOM15029COLLADA_TYPE_KINEMATICS_SCENEE
libcollada-dom2.5-dp.so.0:_ZN13ColladaDOM15029COLLADA_TYPE_LIBRARY_FORMULASE
libcollada-dom2.5-dp.so.0:_ZN13ColladaDOM15029COLLADA_TYPE_MATERIAL_AMBIENTE
libcollada-dom2.5-dp.so.0:_ZN13ColladaDOM15029COLLADA_TYPE_MATERIAL_DIFFUSEE
libcollada-dom2.5-dp.so.0:_ZN13ColladaDOM15029COLLADA_TYPE_MOTION_AXIS_INFOE
libcollada-dom2.5-dp.so.0:_ZN13ColladaDOM15029COLLADA_TYPE_MOTION_TECHNIQUEE
libcollada-dom2.5-dp.so.0:_ZN13ColladaDOM15029COLLADA_TYPE_NORMALIZE_ENABLEE
libcollada-dom2.5-dp.so.0:_ZN13ColladaDOM15029COLLADA_TYPE_PHYSICS_MATERIALE
libcollada-dom2.5-dp.so.0:_ZN13ColladaDOM15029COLLADA_TYPE_RIGID_CONSTRAINTE
libcollada-dom2.5-dp.so.0:_ZN13ColladaDOM15029COLLADA_TYPE_TARGETABLE_FLOATE
libcollada-dom2.5-dp.so.0:_ZN13ColladaDOM15029COLLADA_TYPE_TECHNIQUE_COMMONE
libcollada-dom2.5-dp.so.0:_ZN13ColladaDOM15029COLLADA_TYPE_TEXTURE1D_ENABLEE
libcollada-dom2.5-dp.so.0:_ZN13ColladaDOM15029COLLADA_TYPE_TEXTURE2D_ENABLEE
libcollada-dom2.5-dp.so.0:_ZN13ColladaDOM15029COLLADA_TYPE_TEXTURE3D_ENABLEE
libcollada-dom2.5-dp.so.0:_ZN13ColladaDOM15029COLLADA_TYPE_TEXTURE_ENV_MODEE
libcollada-dom2.5-dp.so.0:_ZN13ColladaDOM15029COLLADA_TYPE_TEXTURE_PIPELINEE
libcollada-dom2.5-dp.so.0:_ZN13ColladaDOM15029COMMON_PROFILE_INPUT_BINORMALE
libcollada-dom2.5-dp.so.0:_ZN13ColladaDOM15029COMMON_PROFILE_INPUT_POSITIONE
libcollada-dom2.5-dp.so.0:_ZN13ColladaDOM15029COMMON_PROFILE_INPUT_TEXCOORDE
libcollada-dom2.5-dp.so.0:_ZN13ColladaDOM15029domFx_common_color_or_texture10domTexture15registerElementER3DAE
libcollada-dom2.5-dp.so.0:_ZN13ColladaDOM15029domFx_common_color_or_texture10domTexture6createER3DAE
libcollada-dom2.5-dp.so.0:_ZN13ColladaDOM15029domFx_common_color_or_texture15registerElementER3DAE
libcollada-dom2.5-dp.so.0:_ZN13ColladaDOM15029domFx_common_color_or_texture6createER3DAE
libcollada-dom2.5-dp.so.0:_ZN13ColladaDOM15029domFx_common_color_or_texture8domColor15registerElementER3DAE
libcollada-dom2.5-dp.so.0:_ZN13ColladaDOM15029domFx_common_color_or_texture8domColor6createER3DAE
libcollada-dom2.5-dp.so.0:_ZN13ColladaDOM15029domFx_common_color_or_texture8domParam15registerElementER3DAE
libcollada-dom2.5-dp.so.0:_ZN13ColladaDOM15029domFx_common_color_or_texture8domParam6createER3DAE
libcollada-dom2.5-dp.so.0:_ZN13ColladaDOM15029domKinematics_model_technique15registerElementER3DAE
libcollada-dom2.5-dp.so.0:_ZN13ColladaDOM15029domKinematics_model_technique6createER3DAE
libcollada-dom2.5-dp.so.0:_ZN13ColladaDOM15030COLLADA_ELEMENT_ANIMATION_CLIPE
libcollada-dom2.5-dp.so.0:_ZN13ColladaDOM15030COLLADA_ELEMENT_ATTACHMENT_ENDE
libcollada-dom2.5-dp.so.0:_ZN13ColladaDOM15030COLLADA_ELEMENT_AUTHORING_TOOLE
libcollada-dom2.5-dp.so.0:_ZN13ColladaDOM15030COLLADA_ELEMENT_AUTHOR_WEBSITEE
libcollada-dom2.5-dp.so.0:_ZN13ColladaDOM15030COLLADA_ELEMENT_BIND_ATTRIBUTEE
libcollada-dom2.5-dp.so.0:_ZN13ColladaDOM15030COLLADA_ELEMENT_BLEND_EQUATIONE
libcollada-dom2.5-dp.so.0:_ZN13ColladaDOM15030COLLADA_ELEMENT_COLOR_MATERIALE
libcollada-dom2.5-dp.so.0:_ZN13ColladaDOM15030COLLADA_ELEMENT_EVALUATE_SCENEE
libcollada-dom2.5-dp.so.0:_ZN13ColladaDOM15030COLLADA_ELEMENT_INSTANCE_IMAGEE
libcollada-dom2.5-dp.so.0:_ZN13ColladaDOM15030COLLADA_ELEMENT_INSTANCE_JOINTE
libcollada-dom2.5-dp.so.0:_ZN13ColladaDOM15030COLLADA_ELEMENT_INSTANCE_LIGHTE
libcollada-dom2.5-dp.so.0:_ZN13ColladaDOM15030COLLADA_ELEMENT_INTERPENETRATEE
libcollada-dom2.5-dp.so.0:_ZN13ColladaDOM15030COLLADA_ELEMENT_LIBRARY_IMAGESE
libcollada-dom2.5-dp.so.0:_ZN13ColladaDOM15030COLLADA_ELEMENT_LIBRARY_JOINTSE
libcollada-dom2.5-dp.so.0:_ZN13ColladaDOM15030COLLADA_ELEMENT_LIBRARY_LIGHTSE
libcollada-dom2.5-dp.so.0:_ZN13ColladaDOM15030COLLADA_ELEMENT_LIGHT_POSITIONE
libcollada-dom2.5-dp.so.0:_ZN13ColladaDOM15030COLLADA_ELEMENT_LIGHT_SPECULARE
libcollada-dom2.5-dp.so.0:_ZN13ColladaDOM15030COLLADA_ELEMENT_MAX_ANISOTROPYE
libcollada-dom2.5-dp.so.0:_ZN13ColladaDOM15030COLLADA_ELEMENT_POINT_SIZE_MAXE
libcollada-dom2.5-dp.so.0:_ZN13ColladaDOM15030COLLADA_ELEMENT_POINT_SIZE_MINE
libcollada-dom2.5-dp.so.0:_ZN13ColladaDOM15030COLLADA_ELEMENT_POLYGON_OFFSETE
libcollada-dom2.5-dp.so.0:_ZN13ColladaDOM15030COLLADA_ELEMENT_PROFILE_BRIDGEE
libcollada-dom2.5-dp.so.0:_ZN13ColladaDOM15030COLLADA_ELEMENT_PROFILE_COMMONE
libcollada-dom2.5-dp.so.0:_ZN13ColladaDOM15030COLLADA_ELEMENT_REF_ATTACHMENTE
libcollada-dom2.5-dp.so.0:_ZN13ColladaDOM15030COLLADA_ELEMENT_SAMPLER_STATESE
libcollada-dom2.5-dp.so.0:_ZN13ColladaDOM15030COLLADA_ELEMENT_STENCIL_TARGETE
libcollada-dom2.5-dp.so.0:_ZN13ColladaDOM15030COLLADA_ELEMENT_SURFACE_CURVESE
libcollada-dom2.5-dp.so.0:_ZN13ColladaDOM15030COLLADA_ELEMENT_TECHNIQUE_HINTE
libcollada-dom2.5-dp.so.0:_ZN13ColladaDOM15030COLLADA_ELEMENT_VERTEX_WEIGHTSE
libcollada-dom2.5-dp.so.0:_ZN13ColladaDOM15030COLLADA_TYPE_ALPHA_TEST_ENABLEE
libcollada-dom2.5-dp.so.0:_ZN13ColladaDOM15030COLLADA_TYPE_BIND_SHAPE_MATRIXE
libcollada-dom2.5-dp.so.0:_ZN13ColladaDOM15030COLLADA_TYPE_BIND_VERTEX_INPUTE
libcollada-dom2.5-dp.so.0:_ZN13ColladaDOM15030COLLADA_TYPE_CLIP_PLANE_ENABLEE
libcollada-dom2.5-dp.so.0:_ZN13ColladaDOM15030COLLADA_TYPE_DEPTH_TEST_ENABLEE
libcollada-dom2.5-dp.so.0:_ZN13ColladaDOM15030COLLADA_TYPE_FORMULA_TECHNIQUEE
libcollada-dom2.5-dp.so.0:_ZN13ColladaDOM15030COLLADA_TYPE_FX_SAMPLER_STATESE
libcollada-dom2.5-dp.so.0:_ZN13ColladaDOM15030COLLADA_TYPE_INSTANCE_GEOMETRYE
libcollada-dom2.5-dp.so.0:_ZN13ColladaDOM15030COLLADA_TYPE_INSTANCE_MATERIALE
libcollada-dom2.5-dp.so.0:_ZN13ColladaDOM15030COLLADA_TYPE_KINEMATICS_LIMITSE
libcollada-dom2.5-dp.so.0:_ZN13ColladaDOM15030COLLADA_TYPE_LIBRARY_MATERIALSE
libcollada-dom2.5-dp.so.0:_ZN13ColladaDOM15030COLLADA_TYPE_LIGHT_SPOT_CUTOFFE
libcollada-dom2.5-dp.so.0:_ZN13ColladaDOM15030COLLADA_TYPE_MATERIAL_EMISSIONE
libcollada-dom2.5-dp.so.0:_ZN13ColladaDOM15030COLLADA_TYPE_MATERIAL_SPECULARE
libcollada-dom2.5-dp.so.0:_ZN13ColladaDOM15030COLLADA_TYPE_MODEL_VIEW_MATRIXE
libcollada-dom2.5-dp.so.0:_ZN13ColladaDOM15030COLLADA_TYPE_POINT_SIZE_ENABLEE
libcollada-dom2.5-dp.so.0:_ZN13ColladaDOM15030COLLADA_TYPE_PROJECTION_MATRIXE
libcollada-dom2.5-dp.so.0:_ZN13ColladaDOM15030COLLADA_TYPE_TARGETABLE_FLOAT3E
libcollada-dom2.5-dp.so.0:_ZN13ColladaDOM15030COLLADA_TYPE_TARGETABLE_FLOAT4E
libcollada-dom2.5-dp.so.0:_ZN13ColladaDOM15030COLLADA_TYPE_TEXTURE_ENV_COLORE
libcollada-dom2.5-dp.so.0:_ZN13ColladaDOM15030domInstance_articulated_system15registerElementER3DAE
libcollada-dom2.5-dp.so.0:_ZN13ColladaDOM15030domInstance_articulated_system6createER3DAE
libcollada-dom2.5-dp.so.0:_ZN13ColladaDOM15030domLibrary_articulated_systems15registerElementER3DAE
libcollada-dom2.5-dp.so.0:_ZN13ColladaDOM15030domLibrary_articulated_systems6createER3DAE
libcollada-dom2.5-dp.so.0:_ZN13ColladaDOM15031COLLADA_ELEMENT_ATTACHMENT_FULLE
libcollada-dom2.5-dp.so.0:_ZN13ColladaDOM15031COLLADA_ELEMENT_BIND_JOINT_AXISE
libcollada-dom2.5-dp.so.0:_ZN13ColladaDOM15031COLLADA_ELEMENT_INSTANCE_CAMERAE
libcollada-dom2.5-dp.so.0:_ZN13ColladaDOM15031COLLADA_ELEMENT_INSTANCE_EFFECTE
libcollada-dom2.5-dp.so.0:_ZN13ColladaDOM15031COLLADA_ELEMENT_LIBRARY_CAMERASE
libcollada-dom2.5-dp.so.0:_ZN13ColladaDOM15031COLLADA_ELEMENT_LIBRARY_EFFECTSE
libcollada-dom2.5-dp.so.0:_ZN13ColladaDOM15031COLLADA_ELEMENT_LIGHTING_ENABLEE
libcollada-dom2.5-dp.so.0:_ZN13ColladaDOM15031COLLADA_ELEMENT_LOGIC_OP_ENABLEE
libcollada-dom2.5-dp.so.0:_ZN13ColladaDOM15031COLLADA_ELEMENT_SAMPLE_COVERAGEE
libcollada-dom2.5-dp.so.0:_ZN13ColladaDOM15031COLLADA_ELEMENT_STATIC_FRICTIONE
libcollada-dom2.5-dp.so.0:_ZN13ColladaDOM15031COLLADA_TYPE_ARTICULATED_SYSTEME
libcollada-dom2.5-dp.so.0:_ZN13ColladaDOM15031COLLADA_TYPE_DEPTH_CLAMP_ENABLEE
libcollada-dom2.5-dp.so.0:_ZN13ColladaDOM15031COLLADA_TYPE_FX_COMMON_NEWPARAME
libcollada-dom2.5-dp.so.0:_ZN13ColladaDOM15031COLLADA_TYPE_INPUT_LOCAL_OFFSETE
libcollada-dom2.5-dp.so.0:_ZN13ColladaDOM15031COLLADA_TYPE_LIBRARY_ANIMATIONSE
libcollada-dom2.5-dp.so.0:_ZN13ColladaDOM15031COLLADA_TYPE_LIBRARY_GEOMETRIESE
libcollada-dom2.5-dp.so.0:_ZN13ColladaDOM15031COLLADA_TYPE_LINE_SMOOTH_ENABLEE
libcollada-dom2.5-dp.so.0:_ZN13ColladaDOM15031COLLADA_TYPE_MATERIAL_SHININESSE
libcollada-dom2.5-dp.so.0:_ZN13ColladaDOM15031COLLADA_TYPE_MULTISAMPLE_ENABLEE
libcollada-dom2.5-dp.so.0:_ZN13ColladaDOM15031COLLADA_TYPE_TECHNIQUE_OVERRIDEE
libcollada-dom2.5-dp.so.0:_ZN13ColladaDOM15031COLLADA_TYPE_TEXTURECUBE_ENABLEE
libcollada-dom2.5-dp.so.0:_ZN13ColladaDOM15031COLLADA_TYPE_TEXTURERECT_ENABLEE
libcollada-dom2.5-dp.so.0:_ZN13ColladaDOM15031COMMON_PROFILE_INPUT_CONTINUITYE
libcollada-dom2.5-dp.so.0:_ZN13ColladaDOM15031COMMON_PROFILE_INPUT_IN_TANGENTE
libcollada-dom2.5-dp.so.0:_ZN13ColladaDOM15031COMMON_PROFILE_INPUT_TEXTANGENTE
libcollada-dom2.5-dp.so.0:_ZN13ColladaDOM15031domGles_texcombiner_command_rgb15registerElementER3DAE
libcollada-dom2.5-dp.so.0:_ZN13ColladaDOM15031domGles_texcombiner_command_rgb6createER3DAE
libcollada-dom2.5-dp.so.0:_ZN13ColladaDOM15032COLLADA_ELEMENT_ANGULAR_VELOCITYE
libcollada-dom2.5-dp.so.0:_ZN13ColladaDOM15032COLLADA_ELEMENT_ATTACHMENT_STARTE
libcollada-dom2.5-dp.so.0:_ZN13ColladaDOM15032COLLADA_ELEMENT_CONTROL_VERTICESE
libcollada-dom2.5-dp.so.0:_ZN13ColladaDOM15032COLLADA_ELEMENT_CULL_FACE_ENABLEE
libcollada-dom2.5-dp.so.0:_ZN13ColladaDOM15032COLLADA_ELEMENT_DYNAMIC_FRICTIONE
libcollada-dom2.5-dp.so.0:_ZN13ColladaDOM15032COLLADA_ELEMENT_FALLOFF_EXPONENTE
libcollada-dom2.5-dp.so.0:_ZN13ColladaDOM15032COLLADA_ELEMENT_INSTANCE_FORMULAE
libcollada-dom2.5-dp.so.0:_ZN13ColladaDOM15032COLLADA_ELEMENT_KINEMATICS_MODELE
libcollada-dom2.5-dp.so.0:_ZN13ColladaDOM15032COLLADA_ELEMENT_KINEMATICS_SCENEE
libcollada-dom2.5-dp.so.0:_ZN13ColladaDOM15032COLLADA_ELEMENT_LIBRARY_FORMULASE
libcollada-dom2.5-dp.so.0:_ZN13ColladaDOM15032COLLADA_ELEMENT_MATERIAL_AMBIENTE
libcollada-dom2.5-dp.so.0:_ZN13ColladaDOM15032COLLADA_ELEMENT_MATERIAL_DIFFUSEE
libcollada-dom2.5-dp.so.0:_ZN13ColladaDOM15032COLLADA_ELEMENT_NORMALIZE_ENABLEE
libcollada-dom2.5-dp.so.0:_ZN13ColladaDOM15032COLLADA_ELEMENT_PHYSICS_MATERIALE
libcollada-dom2.5-dp.so.0:_ZN13ColladaDOM15032COLLADA_ELEMENT_RIGID_CONSTRAINTE
libcollada-dom2.5-dp.so.0:_ZN13ColladaDOM15032COLLADA_ELEMENT_TECHNIQUE_COMMONE
libcollada-dom2.5-dp.so.0:_ZN13ColladaDOM15032COLLADA_ELEMENT_TEXTURE1D_ENABLEE
libcollada-dom2.5-dp.so.0:_ZN13ColladaDOM15032COLLADA_ELEMENT_TEXTURE2D_ENABLEE
libcollada-dom2.5-dp.so.0:_ZN13ColladaDOM15032COLLADA_ELEMENT_TEXTURE3D_ENABLEE
libcollada-dom2.5-dp.so.0:_ZN13ColladaDOM15032COLLADA_ELEMENT_TEXTURE_ENV_MODEE
libcollada-dom2.5-dp.so.0:_ZN13ColladaDOM15032COLLADA_ELEMENT_TEXTURE_PIPELINEE
libcollada-dom2.5-dp.so.0:_ZN13ColladaDOM15032COLLADA_TYPE_BLEND_FUNC_SEPARATEE
libcollada-dom2.5-dp.so.0:_ZN13ColladaDOM15032COLLADA_TYPE_COMMON_INT_OR_PARAME
libcollada-dom2.5-dp.so.0:_ZN13ColladaDOM15032COLLADA_TYPE_DEPTH_BOUNDS_ENABLEE
libcollada-dom2.5-dp.so.0:_ZN13ColladaDOM15032COLLADA_TYPE_GEOGRAPHIC_LOCATIONE
libcollada-dom2.5-dp.so.0:_ZN13ColladaDOM15032COLLADA_TYPE_GLES_SAMPLER_STATESE
libcollada-dom2.5-dp.so.0:_ZN13ColladaDOM15032COLLADA_TYPE_GLES_TEXENV_COMMANDE
libcollada-dom2.5-dp.so.0:_ZN13ColladaDOM15032COLLADA_TYPE_INSTANCE_CONTROLLERE
libcollada-dom2.5-dp.so.0:_ZN13ColladaDOM15032COLLADA_TYPE_INSTANCE_RIGID_BODYE
libcollada-dom2.5-dp.so.0:_ZN13ColladaDOM15032COLLADA_TYPE_INSTANCE_WITH_EXTRAE
libcollada-dom2.5-dp.so.0:_ZN13ColladaDOM15032COLLADA_TYPE_KINEMATICS_NEWPARAME
libcollada-dom2.5-dp.so.0:_ZN13ColladaDOM15032COLLADA_TYPE_KINEMATICS_SETPARAME
libcollada-dom2.5-dp.so.0:_ZN13ColladaDOM15032COLLADA_TYPE_LIBRARY_CONTROLLERSE
libcollada-dom2.5-dp.so.0:_ZN13ColladaDOM15032COLLADA_TYPE_LIGHT_MODEL_AMBIENTE
libcollada-dom2.5-dp.so.0:_ZN13ColladaDOM15032COLLADA_TYPE_LIGHT_SPOT_EXPONENTE
libcollada-dom2.5-dp.so.0:_ZN13ColladaDOM15032COLLADA_TYPE_LINE_STIPPLE_ENABLEE
libcollada-dom2.5-dp.so.0:_ZN13ColladaDOM15032COLLADA_TYPE_POINT_SMOOTH_ENABLEE
libcollada-dom2.5-dp.so.0:_ZN13ColladaDOM15032COLLADA_TYPE_SCISSOR_TEST_ENABLEE
libcollada-dom2.5-dp.so.0:_ZN13ColladaDOM15032COLLADA_TYPE_STENCIL_OP_SEPARATEE
libcollada-dom2.5-dp.so.0:_ZN13ColladaDOM15032COLLADA_TYPE_STENCIL_TEST_ENABLEE
libcollada-dom2.5-dp.so.0:_ZN13ColladaDOM15032COLLADA_TYPE_TEXTUREDEPTH_ENABLEE
libcollada-dom2.5-dp.so.0:_ZN13ColladaDOM15032COMMON_PROFILE_INPUT_OUT_TANGENTE
libcollada-dom2.5-dp.so.0:_ZN13ColladaDOM15032COMMON_PROFILE_INPUT_TEXBINORMALE
libcollada-dom2.5-dp.so.0:_ZN13ColladaDOM15032domGles_texcombiner_argument_rgb15registerElementER3DAE
libcollada-dom2.5-dp.so.0:_ZN13ColladaDOM15032domGles_texcombiner_argument_rgb6createER3DAE
libcollada-dom2.5-dp.so.0:_ZN13ColladaDOM15033COLLADA_ELEMENT_ALPHA_TEST_ENABLEE
libcollada-dom2.5-dp.so.0:_ZN13ColladaDOM15033COLLADA_ELEMENT_BIND_SHAPE_MATRIXE
libcollada-dom2.5-dp.so.0:_ZN13ColladaDOM15033COLLADA_ELEMENT_BIND_VERTEX_INPUTE
libcollada-dom2.5-dp.so.0:_ZN13ColladaDOM15033COLLADA_ELEMENT_CLIP_PLANE_ENABLEE
libcollada-dom2.5-dp.so.0:_ZN13ColladaDOM15033COLLADA_ELEMENT_DEPTH_TEST_ENABLEE
libcollada-dom2.5-dp.so.0:_ZN13ColladaDOM15033COLLADA_ELEMENT_FX_SAMPLER_STATESE
libcollada-dom2.5-dp.so.0:_ZN13ColladaDOM15033COLLADA_ELEMENT_INSTANCE_GEOMETRYE
libcollada-dom2.5-dp.so.0:_ZN13ColladaDOM15033COLLADA_ELEMENT_INSTANCE_MATERIALE
libcollada-dom2.5-dp.so.0:_ZN13ColladaDOM15033COLLADA_ELEMENT_LIBRARY_MATERIALSE
libcollada-dom2.5-dp.so.0:_ZN13ColladaDOM15033COLLADA_ELEMENT_LIGHT_SPOT_CUTOFFE
libcollada-dom2.5-dp.so.0:_ZN13ColladaDOM15033COLLADA_ELEMENT_MATERIAL_EMISSIONE
libcollada-dom2.5-dp.so.0:_ZN13ColladaDOM15033COLLADA_ELEMENT_MATERIAL_SPECULARE
libcollada-dom2.5-dp.so.0:_ZN13ColladaDOM15033COLLADA_ELEMENT_MODEL_VIEW_MATRIXE
libcollada-dom2.5-dp.so.0:_ZN13ColladaDOM15033COLLADA_ELEMENT_POINT_SIZE_ENABLEE
libcollada-dom2.5-dp.so.0:_ZN13ColladaDOM15033COLLADA_ELEMENT_PROJECTION_MATRIXE
libcollada-dom2.5-dp.so.0:_ZN13ColladaDOM15033COLLADA_ELEMENT_TEXTURE_ENV_COLORE
libcollada-dom2.5-dp.so.0:_ZN13ColladaDOM15033COLLADA_TYPE_COMMON_BOOL_OR_PARAME
libcollada-dom2.5-dp.so.0:_ZN13ColladaDOM15033COLLADA_TYPE_GL_PIPELINE_SETTINGSE
libcollada-dom2.5-dp.so.0:_ZN13ColladaDOM15033COLLADA_TYPE_INSTANCE_FORCE_FIELDE
libcollada-dom2.5-dp.so.0:_ZN13ColladaDOM15033COLLADA_TYPE_KINEMATICS_AXIS_INFOE
libcollada-dom2.5-dp.so.0:_ZN13ColladaDOM15033COLLADA_TYPE_KINEMATICS_TECHNIQUEE
libcollada-dom2.5-dp.so.0:_ZN13ColladaDOM15033COLLADA_TYPE_LIBRARY_FORCE_FIELDSE
libcollada-dom2.5-dp.so.0:_ZN13ColladaDOM15033COLLADA_TYPE_LIGHT_SPOT_DIRECTIONE
libcollada-dom2.5-dp.so.0:_ZN13ColladaDOM15033COLLADA_TYPE_MOTION_EFFECTOR_INFOE
libcollada-dom2.5-dp.so.0:_ZN13ColladaDOM15033COLLADA_TYPE_SWING_CONE_AND_TWISTE
libcollada-dom2.5-dp.so.0:_ZN13ColladaDOM15033COMMON_PROFILE_INPUT_LINEAR_STEPSE
libcollada-dom2.5-dp.so.0:_ZN13ColladaDOM15033COMMON_PROFILE_INPUT_MORPH_TARGETE
libcollada-dom2.5-dp.so.0:_ZN13ColladaDOM15033COMMON_PROFILE_INPUT_MORPH_WEIGHTE
libcollada-dom2.5-dp.so.0:_ZN13ColladaDOM15033COMMON_PROFILE_PARAM_DOUBLE_SIDEDE
libcollada-dom2.5-dp.so.0:_ZN13ColladaDOM15033domGles_texcombiner_command_alpha15registerElementER3DAE
libcollada-dom2.5-dp.so.0:_ZN13ColladaDOM15033domGles_texcombiner_command_alpha6createER3DAE
libcollada-dom2.5-dp.so.0:_ZN13ColladaDOM15034COLLADA_ELEMENT_ARTICULATED_SYSTEME
libcollada-dom2.5-dp.so.0:_ZN13ColladaDOM15034COLLADA_ELEMENT_DEPTH_CLAMP_ENABLEE
libcollada-dom2.5-dp.so.0:_ZN13ColladaDOM15034COLLADA_ELEMENT_INSTANCE_ANIMATIONE
libcollada-dom2.5-dp.so.0:_ZN13ColladaDOM15034COLLADA_ELEMENT_LIBRARY_ANIMATIONSE
libcollada-dom2.5-dp.so.0:_ZN13ColladaDOM15034COLLADA_ELEMENT_LIBRARY_GEOMETRIESE
libcollada-dom2.5-dp.so.0:_ZN13ColladaDOM15034COLLADA_ELEMENT_LINEAR_ATTENUATIONE
libcollada-dom2.5-dp.so.0:_ZN13ColladaDOM15034COLLADA_ELEMENT_LINE_SMOOTH_ENABLEE
libcollada-dom2.5-dp.so.0:_ZN13ColladaDOM15034COLLADA_ELEMENT_MATERIAL_SHININESSE
libcollada-dom2.5-dp.so.0:_ZN13ColladaDOM15034COLLADA_ELEMENT_MULTISAMPLE_ENABLEE
libcollada-dom2.5-dp.so.0:_ZN13ColladaDOM15034COLLADA_ELEMENT_TECHNIQUE_OVERRIDEE
libcollada-dom2.5-dp.so.0:_ZN13ColladaDOM15034COLLADA_ELEMENT_TEXTURECUBE_ENABLEE
libcollada-dom2.5-dp.so.0:_ZN13ColladaDOM15034COLLADA_ELEMENT_TEXTURERECT_ENABLEE
libcollada-dom2.5-dp.so.0:_ZN13ColladaDOM15034COLLADA_TYPE_BIND_KINEMATICS_MODELE
libcollada-dom2.5-dp.so.0:_ZN13ColladaDOM15034COLLADA_TYPE_COLOR_LOGIC_OP_ENABLEE
libcollada-dom2.5-dp.so.0:_ZN13ColladaDOM15034COLLADA_TYPE_COLOR_MATERIAL_ENABLEE
libcollada-dom2.5-dp.so.0:_ZN13ColladaDOM15034COLLADA_TYPE_COMMON_FLOAT_OR_PARAME
libcollada-dom2.5-dp.so.0:_ZN13ColladaDOM15034COLLADA_TYPE_FX_COMMON_TRANSPARENTE
libcollada-dom2.5-dp.so.0:_ZN13ColladaDOM15034COLLADA_TYPE_GLES_TEXTURE_CONSTANTE
libcollada-dom2.5-dp.so.0:_ZN13ColladaDOM15034COLLADA_TYPE_GLES_TEXTURE_PIPELINEE
libcollada-dom2.5-dp.so.0:_ZN13ColladaDOM15034COLLADA_TYPE_LIBRARY_VISUAL_SCENESE
libcollada-dom2.5-dp.so.0:_ZN13ColladaDOM15034COLLADA_TYPE_POLYGON_SMOOTH_ENABLEE
libcollada-dom2.5-dp.so.0:_ZN13ColladaDOM15034COLLADA_TYPE_RESCALE_NORMAL_ENABLEE
libcollada-dom2.5-dp.so.0:_ZN13ColladaDOM15034COLLADA_TYPE_STENCIL_FUNC_SEPARATEE
libcollada-dom2.5-dp.so.0:_ZN13ColladaDOM15034COLLADA_TYPE_STENCIL_MASK_SEPARATEE
libcollada-dom2.5-dp.so.0:_ZN13ColladaDOM15034COMMON_PROFILE_INPUT_INTERPOLATIONE
libcollada-dom2.5-dp.so.0:_ZN13ColladaDOM15034domGles_texcombiner_argument_alpha15registerElementER3DAE
libcollada-dom2.5-dp.so.0:_ZN13ColladaDOM15034domGles_texcombiner_argument_alpha6createER3DAE
libcollada-dom2.5-dp.so.0:_ZN13ColladaDOM15035COLLADA_ELEMENT_BLEND_FUNC_SEPARATEE
libcollada-dom2.5-dp.so.0:_ZN13ColladaDOM15035COLLADA_ELEMENT_DEPTH_BOUNDS_ENABLEE
libcollada-dom2.5-dp.so.0:_ZN13ColladaDOM15035COLLADA_ELEMENT_GEOGRAPHIC_LOCATIONE
libcollada-dom2.5-dp.so.0:_ZN13ColladaDOM15035COLLADA_ELEMENT_GLES_SAMPLER_STATESE
libcollada-dom2.5-dp.so.0:_ZN13ColladaDOM15035COLLADA_ELEMENT_INDEX_OF_REFRACTIONE
libcollada-dom2.5-dp.so.0:_ZN13ColladaDOM15035COLLADA_ELEMENT_INSTANCE_CONTROLLERE
libcollada-dom2.5-dp.so.0:_ZN13ColladaDOM15035COLLADA_ELEMENT_INSTANCE_RIGID_BODYE
libcollada-dom2.5-dp.so.0:_ZN13ColladaDOM15035COLLADA_ELEMENT_LIBRARY_CONTROLLERSE
libcollada-dom2.5-dp.so.0:_ZN13ColladaDOM15035COLLADA_ELEMENT_LIGHT_MODEL_AMBIENTE
libcollada-dom2.5-dp.so.0:_ZN13ColladaDOM15035COLLADA_ELEMENT_LIGHT_SPOT_EXPONENTE
libcollada-dom2.5-dp.so.0:_ZN13ColladaDOM15035COLLADA_ELEMENT_LINE_STIPPLE_ENABLEE
libcollada-dom2.5-dp.so.0:_ZN13ColladaDOM15035COLLADA_ELEMENT_POINT_SMOOTH_ENABLEE
libcollada-dom2.5-dp.so.0:_ZN13ColladaDOM15035COLLADA_ELEMENT_SCISSOR_TEST_ENABLEE
libcollada-dom2.5-dp.so.0:_ZN13ColladaDOM15035COLLADA_ELEMENT_STENCIL_OP_SEPARATEE
libcollada-dom2.5-dp.so.0:_ZN13ColladaDOM15035COLLADA_ELEMENT_STENCIL_TEST_ENABLEE
libcollada-dom2.5-dp.so.0:_ZN13ColladaDOM15035COLLADA_ELEMENT_TEXTUREDEPTH_ENABLEE
libcollada-dom2.5-dp.so.0:_ZN13ColladaDOM15035COLLADA_TYPE_COMMON_FLOAT2_OR_PARAME
libcollada-dom2.5-dp.so.0:_ZN13ColladaDOM15035COLLADA_TYPE_COMMON_SIDREF_OR_PARAME
libcollada-dom2.5-dp.so.0:_ZN13ColladaDOM15035COLLADA_TYPE_GLES_PIPELINE_SETTINGSE
libcollada-dom2.5-dp.so.0:_ZN13ColladaDOM15035COLLADA_TYPE_INSTANCE_PHYSICS_MODELE
libcollada-dom2.5-dp.so.0:_ZN13ColladaDOM15035COLLADA_TYPE_LIBRARY_PHYSICS_MODELSE
libcollada-dom2.5-dp.so.0:_ZN13ColladaDOM15035COLLADA_TYPE_LIBRARY_PHYSICS_SCENESE
libcollada-dom2.5-dp.so.0:_ZN13ColladaDOM15035COLLADA_TYPE_POLYGON_STIPPLE_ENABLEE
libcollada-dom2.5-dp.so.0:_ZN13ColladaDOM15035COLLADA_TYPE_SAMPLE_COVERAGE_ENABLEE
