libopencc.so.2:_Z11ConvertDictRKNSt7__cxx1112basic_stringIcSt11char_traitsIcESaIcEEESt10shared_ptrIN6opencc4DictEE
libopencc.so.2:_Z14LoadDictionaryRKNSt7__cxx1112basic_stringIcSt11char_traitsIcESaIcEEES6_
libopencc.so.2:_Z20opencc_open_internalPKc
libopencc.so.2:_ZN6opencc10BinaryDict11NewFromFileEP8_IO_FILE
libopencc.so.2:_ZN6opencc13PhraseExtract11SelectWordsEv
libopencc.so.2:_ZN6opencc13PhraseExtract15ExtractPrefixesEv
libopencc.so.2:_ZN6opencc13PhraseExtract15ExtractSuffixesEv
libopencc.so.2:_ZN6opencc13PhraseExtract18CalculateCohesionsEv
libopencc.so.2:_ZN6opencc13PhraseExtract18CalculateFrequencyEv
libopencc.so.2:_ZN6opencc13PhraseExtract21ExtractWordCandidatesEv
libopencc.so.2:_ZN6opencc13PhraseExtract22CalculatePrefixEntropyEv
libopencc.so.2:_ZN6opencc13PhraseExtract22CalculateSuffixEntropyEv
libopencc.so.2:_ZN6opencc13PhraseExtract27DefaultPreCalculationFilterERKS0_RKNS_19UTF8StringSliceBaseIhEE
libopencc.so.2:_ZN6opencc13PhraseExtract28DefaultPostCalculationFilterERKS0_RKNS_19UTF8StringSliceBaseIhEE
libopencc.so.2:_ZN6opencc13PhraseExtract5ResetEv
libopencc.so.2:_ZN6opencc13PhraseExtractC1Ev
libopencc.so.2:_ZN6opencc13PhraseExtractC2Ev
libopencc.so.2:_ZN6opencc13PhraseExtractD0Ev
libopencc.so.2:_ZN6opencc13PhraseExtractD1Ev
libopencc.so.2:_ZN6opencc13PhraseExtractD2Ev
libopencc.so.2:_ZN6opencc15ConversionChainC1ENSt7__cxx114listISt10shared_ptrINS_10ConversionEESaIS5_EEE
libopencc.so.2:_ZN6opencc15ConversionChainC2ENSt7__cxx114listISt10shared_ptrINS_10ConversionEESaIS5_EEE
libopencc.so.2:_ZN6opencc15SimpleConverterC1ERKNSt7__cxx1112basic_stringIcSt11char_traitsIcESaIcEEE
libopencc.so.2:_ZN6opencc15SimpleConverterC2ERKNSt7__cxx1112basic_stringIcSt11char_traitsIcESaIcEEE
libopencc.so.2:_ZN6opencc15SimpleConverterD1Ev
libopencc.so.2:_ZN6opencc15SimpleConverterD2Ev
libopencc.so.2:_ZN6opencc17ConvertDictionaryENSt7__cxx1112basic_stringIcSt11char_traitsIcESaIcEEES5_S5_S5_
libopencc.so.2:_ZN6opencc6Config11NewFromFileERKNSt7__cxx1112basic_stringIcSt11char_traitsIcESaIcEEE
libopencc.so.2:_ZN6opencc6Config13NewFromStringERKNSt7__cxx1112basic_stringIcSt11char_traitsIcESaIcEEES8_
libopencc.so.2:_ZN6opencc6ConfigC1Ev
libopencc.so.2:_ZN6opencc6ConfigC2Ev
libopencc.so.2:_ZN6opencc6ConfigD0Ev
libopencc.so.2:_ZN6opencc6ConfigD1Ev
libopencc.so.2:_ZN6opencc6ConfigD2Ev
libopencc.so.2:_ZN6opencc8TextDict11NewFromDictERKNS_4DictE
libopencc.so.2:_ZN6opencc8TextDict11NewFromFileEP8_IO_FILE
libopencc.so.2:_ZN6opencc8TextDict17NewFromSortedFileEP8_IO_FILE
libopencc.so.2:_ZN6opencc8TextDictC1ERKSt10shared_ptrINS_7LexiconEE
libopencc.so.2:_ZN6opencc8TextDictC2ERKSt10shared_ptrINS_7LexiconEE
libopencc.so.2:_ZN6opencc8TextDictD0Ev
libopencc.so.2:_ZN6opencc8TextDictD1Ev
libopencc.so.2:_ZN6opencc8TextDictD2Ev
libopencc.so.2:_ZN6opencc8UTF8Util11SkipUtf8BomEP8_IO_FILE
libopencc.so.2:_ZN6opencc8internal19ContainsPunctuationERKNS_19UTF8StringSliceBaseIhEE
libopencc.so.2:_ZN6opencc9DartsDict11NewFromDictERKNS_4DictE
libopencc.so.2:_ZN6opencc9DartsDict11NewFromFileEP8_IO_FILE
libopencc.so.2:_ZN6opencc9DartsDictC1Ev
libopencc.so.2:_ZN6opencc9DartsDictC2Ev
libopencc.so.2:_ZN6opencc9DartsDictD0Ev
libopencc.so.2:_ZN6opencc9DartsDictD1Ev
libopencc.so.2:_ZN6opencc9DartsDictD2Ev
libopencc.so.2:_ZN6opencc9DictGroup11NewFromDictERKNS_4DictE
libopencc.so.2:_ZN6opencc9DictGroupC1ERKNSt7__cxx114listISt10shared_ptrINS_4DictEESaIS5_EEE
libopencc.so.2:_ZN6opencc9DictGroupC2ERKNSt7__cxx114listISt10shared_ptrINS_4DictEESaIS5_EEE
libopencc.so.2:_ZN6opencc9DictGroupD0Ev
libopencc.so.2:_ZN6opencc9DictGroupD1Ev
libopencc.so.2:_ZN6opencc9DictGroupD2Ev
libopencc.so.2:_ZNK6opencc10BinaryDict12KeyMaxLengthEv
libopencc.so.2:_ZNK6opencc10BinaryDict15ConstructBufferERNSt7__cxx1112basic_stringIcSt11char_traitsIcESaIcEEERSt6vectorImSaImEERmS7_SB_SC_
libopencc.so.2:_ZNK6opencc10BinaryDict15SerializeToFileEP8_IO_FILE
libopencc.so.2:_ZNK6opencc10Conversion7ConvertB5cxx11EPKc
libopencc.so.2:_ZNK6opencc10Conversion7ConvertERKNSt7__cxx1112basic_stringIcSt11char_traitsIcESaIcEEE
libopencc.so.2:_ZNK6opencc10Conversion7ConvertERKSt10shared_ptrINS_8SegmentsEE
libopencc.so.2:_ZNK6opencc13PhraseExtract11ProbabilityERKNS_19UTF8StringSliceBaseIhEE
libopencc.so.2:_ZNK6opencc13PhraseExtract13PrefixEntropyERKNS_19UTF8StringSliceBaseIhEE
libopencc.so.2:_ZNK6opencc13PhraseExtract13SuffixEntropyERKNS_19UTF8StringSliceBaseIhEE
libopencc.so.2:_ZNK6opencc13PhraseExtract14LogProbabilityERKNS_19UTF8StringSliceBaseIhEE
libopencc.so.2:_ZNK6opencc13PhraseExtract16CalculateEntropyERKSt13unordered_mapINS_19UTF8StringSliceBaseIhEEmNS3_6HasherESt8equal_toIS3_ESaISt4pairIKS3_mEEE
libopencc.so.2:_ZNK6opencc13PhraseExtract17CalculateCohesionERKNS_19UTF8StringSliceBaseIhEE
libopencc.so.2:_ZNK6opencc13PhraseExtract3PMIERKNS_19UTF8StringSliceBaseIhEES4_S4_
libopencc.so.2:_ZNK6opencc13PhraseExtract6SignalERKNS_19UTF8StringSliceBaseIhEE
libopencc.so.2:_ZNK6opencc13PhraseExtract7EntropyERKNS_19UTF8StringSliceBaseIhEE
libopencc.so.2:_ZNK6opencc13PhraseExtract8CohesionERKNS_19UTF8StringSliceBaseIhEE
libopencc.so.2:_ZNK6opencc13PhraseExtract9FrequencyERKNS_19UTF8StringSliceBaseIhEE
libopencc.so.2:_ZNK6opencc15ConversionChain7ConvertERKSt10shared_ptrINS_8SegmentsEE
libopencc.so.2:_ZNK6opencc15SimpleConverter7ConvertB5cxx11EPKc
libopencc.so.2:_ZNK6opencc15SimpleConverter7ConvertB5cxx11EPKcm
libopencc.so.2:_ZNK6opencc15SimpleConverter7ConvertEPKcPc
libopencc.so.2:_ZNK6opencc15SimpleConverter7ConvertEPKcmPc
libopencc.so.2:_ZNK6opencc15SimpleConverter7ConvertERKNSt7__cxx1112basic_stringIcSt11char_traitsIcESaIcEEE
libopencc.so.2:_ZNK6opencc19MultiValueDictEntry8ToStringB5cxx11Ev
libopencc.so.2:_ZNK6opencc20MaxMatchSegmentation7SegmentERKNSt7__cxx1112basic_stringIcSt11char_traitsIcESaIcEEE
libopencc.so.2:_ZNK6opencc4Dict11MatchPrefixEPKc
libopencc.so.2:_ZNK6opencc4Dict16MatchAllPrefixesEPKc
libopencc.so.2:_ZNK6opencc8TextDict10GetLexiconEv
libopencc.so.2:_ZNK6opencc8TextDict12KeyMaxLengthEv
libopencc.so.2:_ZNK6opencc8TextDict15SerializeToFileEP8_IO_FILE
libopencc.so.2:_ZNK6opencc8TextDict5MatchEPKc
libopencc.so.2:_ZNK6opencc9Converter7ConvertEPKcPc
libopencc.so.2:_ZNK6opencc9Converter7ConvertERKNSt7__cxx1112basic_stringIcSt11char_traitsIcESaIcEEE
libopencc.so.2:_ZNK6opencc9DartsDict10GetLexiconEv
libopencc.so.2:_ZNK6opencc9DartsDict11MatchPrefixEPKc
libopencc.so.2:_ZNK6opencc9DartsDict12KeyMaxLengthEv
libopencc.so.2:_ZNK6opencc9DartsDict15SerializeToFileEP8_IO_FILE
libopencc.so.2:_ZNK6opencc9DartsDict5MatchEPKc
libopencc.so.2:_ZNK6opencc9DictGroup10GetLexiconEv
libopencc.so.2:_ZNK6opencc9DictGroup11MatchPrefixEPKc
libopencc.so.2:_ZNK6opencc9DictGroup12KeyMaxLengthEv
libopencc.so.2:_ZNK6opencc9DictGroup16MatchAllPrefixesEPKc
libopencc.so.2:_ZNK6opencc9DictGroup5MatchEPKc
libopencc.so.2:_ZThn8_NK6opencc8TextDict15SerializeToFileEP8_IO_FILE
libopencc.so.2:_ZThn8_NK6opencc9DartsDict15SerializeToFileEP8_IO_FILE
libopencc.so.2:__bss_start
libopencc.so.2:_edata
libopencc.so.2:_end
libopencc.so.2:_fini
libopencc.so.2:_init
libopencc.so.2:opencc_close
libopencc.so.2:opencc_convert_utf8
libopencc.so.2:opencc_convert_utf8_free
libopencc.so.2:opencc_convert_utf8_to_buffer
libopencc.so.2:opencc_error
libopencc.so.2:opencc_open
