libqtutilities.so.6:_ZN11QtUtilities10IconButton10fromActionEP7QActionm
libqtutilities.so.6:_ZN11QtUtilities10IconButton10paintEventEP11QPaintEvent
libqtutilities.so.6:_ZN11QtUtilities10IconButton11qt_metacallEN11QMetaObject4CallEiPPv
libqtutilities.so.6:_ZN11QtUtilities10IconButton11qt_metacastEPKc
libqtutilities.so.6:_ZN11QtUtilities10IconButton13keyPressEventEP9QKeyEvent
libqtutilities.so.6:_ZN11QtUtilities10IconButton15keyReleaseEventEP9QKeyEvent
libqtutilities.so.6:_ZN11QtUtilities10IconButton16staticMetaObjectE
libqtutilities.so.6:_ZN11QtUtilities10IconButton20assignDataFromActionEPK7QAction
libqtutilities.so.6:_ZN11QtUtilities10IconButton33assignDataFromActionChangedSignalEv
libqtutilities.so.6:_ZN11QtUtilities10IconButtonC1EP7QWidget
libqtutilities.so.6:_ZN11QtUtilities10IconButtonC2EP7QWidget
libqtutilities.so.6:_ZN11QtUtilities10IconButtonD0Ev
libqtutilities.so.6:_ZN11QtUtilities10IconButtonD1Ev
libqtutilities.so.6:_ZN11QtUtilities10IconButtonD2Ev
libqtutilities.so.6:_ZN11QtUtilities10OptionPage6widgetEv
libqtutilities.so.6:_ZN11QtUtilities10OptionPage7matchesERK7QString
libqtutilities.so.6:_ZN11QtUtilities10OptionPageC2EP7QWidget
libqtutilities.so.6:_ZN11QtUtilities10OptionPageD0Ev
libqtutilities.so.6:_ZN11QtUtilities10OptionPageD1Ev
libqtutilities.so.6:_ZN11QtUtilities10OptionPageD2Ev
libqtutilities.so.6:_ZN11QtUtilities10QtSettings13isPaletteDarkEv
libqtutilities.so.6:_ZN11QtUtilities10QtSettings14disableNoticesEv
libqtutilities.so.6:_ZN11QtUtilities10QtSettings17setRetranslatableEb
libqtutilities.so.6:_ZN11QtUtilities10QtSettings23reapplyDefaultIconThemeEb
libqtutilities.so.6:_ZN11QtUtilities10QtSettings36reevaluatePaletteAndDefaultIconThemeEv
libqtutilities.so.6:_ZN11QtUtilities10QtSettings5applyEv
libqtutilities.so.6:_ZN11QtUtilities10QtSettings7restoreER9QSettings
libqtutilities.so.6:_ZN11QtUtilities10QtSettings8categoryEv
libqtutilities.so.6:_ZN11QtUtilities10QtSettingsC1Ev
libqtutilities.so.6:_ZN11QtUtilities10QtSettingsC2Ev
libqtutilities.so.6:_ZN11QtUtilities10QtSettingsD1Ev
libqtutilities.so.6:_ZN11QtUtilities10QtSettingsD2Ev
libqtutilities.so.6:_ZN11QtUtilities10RoleEditor11qt_metacallEN11QMetaObject4CallEiPPv
libqtutilities.so.6:_ZN11QtUtilities10RoleEditor11qt_metacastEPKc
libqtutilities.so.6:_ZN11QtUtilities10RoleEditor16staticMetaObjectE
libqtutilities.so.6:_ZN11QtUtilities10RoleEditor17emitResetPropertyEv
libqtutilities.so.6:_ZN11QtUtilities10RoleEditor7changedEP7QWidget
libqtutilities.so.6:_ZN11QtUtilities10RoleEditor8setLabelERK7QString
libqtutilities.so.6:_ZN11QtUtilities10RoleEditor9setEditedEb
libqtutilities.so.6:_ZN11QtUtilities10RoleEditorC1EP7QWidget
libqtutilities.so.6:_ZN11QtUtilities10RoleEditorC2EP7QWidget
libqtutilities.so.6:_ZN11QtUtilities11AboutDialog11qt_metacallEN11QMetaObject4CallEiPPv
libqtutilities.so.6:_ZN11QtUtilities11AboutDialog11qt_metacastEPKc
libqtutilities.so.6:_ZN11QtUtilities11AboutDialog13linkActivatedERK7QString
libqtutilities.so.6:_ZN11QtUtilities11AboutDialog16staticMetaObjectE
libqtutilities.so.6:_ZN11QtUtilities11AboutDialog21retranslationRequiredEv
libqtutilities.so.6:_ZN11QtUtilities11AboutDialog5eventEP6QEvent
libqtutilities.so.6:_ZN11QtUtilities11AboutDialogC1EP7QWidgetRK7QStringS5_RK6QImage
libqtutilities.so.6:_ZN11QtUtilities11AboutDialogC1EP7QWidgetRK7QStringS5_S5_RKSt6vectorIPKcSaIS8_EES5_S5_RK6QImage
libqtutilities.so.6:_ZN11QtUtilities11AboutDialogC1EP7QWidgetRK7QStringS5_S5_S5_S5_RK6QImage
libqtutilities.so.6:_ZN11QtUtilities11AboutDialogC2EP7QWidgetRK7QStringS5_RK6QImage
libqtutilities.so.6:_ZN11QtUtilities11AboutDialogC2EP7QWidgetRK7QStringS5_S5_RKSt6vectorIPKcSaIS8_EES5_S5_RK6QImage
libqtutilities.so.6:_ZN11QtUtilities11AboutDialogC2EP7QWidgetRK7QStringS5_S5_S5_S5_RK6QImage
libqtutilities.so.6:_ZN11QtUtilities11AboutDialogD0Ev
libqtutilities.so.6:_ZN11QtUtilities11AboutDialogD1Ev
libqtutilities.so.6:_ZN11QtUtilities11AboutDialogD2Ev
libqtutilities.so.6:_ZN11QtUtilities11BrushEditor11qt_metacallEN11QMetaObject4CallEiPPv
libqtutilities.so.6:_ZN11QtUtilities11BrushEditor11qt_metacastEPKc
libqtutilities.so.6:_ZN11QtUtilities11BrushEditor12brushChangedEv
libqtutilities.so.6:_ZN11QtUtilities11BrushEditor16staticMetaObjectE
libqtutilities.so.6:_ZN11QtUtilities11BrushEditor7changedEP7QWidget
libqtutilities.so.6:_ZN11QtUtilities11BrushEditor8setBrushERK6QBrush
libqtutilities.so.6:_ZN11QtUtilities11BrushEditorC1EP7QWidget
libqtutilities.so.6:_ZN11QtUtilities11BrushEditorC2EP7QWidget
libqtutilities.so.6:_ZN11QtUtilities11ColorButton10paintEventEP11QPaintEvent
libqtutilities.so.6:_ZN11QtUtilities11ColorButton11qt_metacallEN11QMetaObject4CallEiPPv
libqtutilities.so.6:_ZN11QtUtilities11ColorButton11qt_metacastEPKc
libqtutilities.so.6:_ZN11QtUtilities11ColorButton12colorChangedERK6QColor
libqtutilities.so.6:_ZN11QtUtilities11ColorButton14dragEnterEventEP15QDragEnterEvent
libqtutilities.so.6:_ZN11QtUtilities11ColorButton14dragLeaveEventEP15QDragLeaveEvent
libqtutilities.so.6:_ZN11QtUtilities11ColorButton14mouseMoveEventEP11QMouseEvent
libqtutilities.so.6:_ZN11QtUtilities11ColorButton15mousePressEventEP11QMouseEvent
libqtutilities.so.6:_ZN11QtUtilities11ColorButton16staticMetaObjectE
libqtutilities.so.6:_ZN11QtUtilities11ColorButton22setBackgroundCheckeredEb
libqtutilities.so.6:_ZN11QtUtilities11ColorButton8setColorERK6QColor
libqtutilities.so.6:_ZN11QtUtilities11ColorButton9dropEventEP10QDropEvent
libqtutilities.so.6:_ZN11QtUtilities11ColorButtonC1EP7QWidget
libqtutilities.so.6:_ZN11QtUtilities11ColorButtonC2EP7QWidget
libqtutilities.so.6:_ZN11QtUtilities11ColorButtonD0Ev
libqtutilities.so.6:_ZN11QtUtilities11ColorButtonD1Ev
libqtutilities.so.6:_ZN11QtUtilities11ColorButtonD2Ev
libqtutilities.so.6:_ZN11QtUtilities11dialogStyleEv
libqtutilities.so.6:_ZN11QtUtilities11getSettingsERK7QStringS2_
libqtutilities.so.6:_ZN11QtUtilities11makeHeadingEP7QWidget
libqtutilities.so.6:_ZN11QtUtilities11updateStyleEP7QWidget
libqtutilities.so.6:_ZN11QtUtilities12ClearSpinBox11qt_metacallEN11QMetaObject4CallEiPPv
libqtutilities.so.6:_ZN11QtUtilities12ClearSpinBox11qt_metacastEPKc
libqtutilities.so.6:_ZN11QtUtilities12ClearSpinBox16staticMetaObjectE
libqtutilities.so.6:_ZN11QtUtilities12ClearSpinBox18handleValueChangedEi
libqtutilities.so.6:_ZN11QtUtilities12ClearSpinBox24handleClearButtonClickedEv
libqtutilities.so.6:_ZN11QtUtilities12ClearSpinBox25handleCustomLayoutCreatedEv
libqtutilities.so.6:_ZN11QtUtilities12ClearSpinBoxC1EP7QWidget
libqtutilities.so.6:_ZN11QtUtilities12ClearSpinBoxC2EP7QWidget
libqtutilities.so.6:_ZN11QtUtilities12ClearSpinBoxD0Ev
libqtutilities.so.6:_ZN11QtUtilities12ClearSpinBoxD1Ev
libqtutilities.so.6:_ZN11QtUtilities12ClearSpinBoxD2Ev
libqtutilities.so.6:_ZN11QtUtilities12PaletteModel10setPaletteERK8QPaletteS3_
libqtutilities.so.6:_ZN11QtUtilities12PaletteModel11qt_metacallEN11QMetaObject4CallEiPPv
libqtutilities.so.6:_ZN11QtUtilities12PaletteModel11qt_metacastEPKc
libqtutilities.so.6:_ZN11QtUtilities12PaletteModel14paletteChangedERK8QPalette
libqtutilities.so.6:_ZN11QtUtilities12PaletteModel16staticMetaObjectE
libqtutilities.so.6:_ZN11QtUtilities12PaletteModel7setDataERK11QModelIndexRK8QVarianti
libqtutilities.so.6:_ZN11QtUtilities12PaletteModelC1EP7QObject
libqtutilities.so.6:_ZN11QtUtilities12PaletteModelC2EP7QObject
libqtutilities.so.6:_ZN11QtUtilities12UpdateDialog11qt_metacallEN11QMetaObject4CallEiPPv
libqtutilities.so.6:_ZN11QtUtilities12UpdateDialog11qt_metacastEPKc
libqtutilities.so.6:_ZN11QtUtilities12UpdateDialog16staticMetaObjectE
libqtutilities.so.6:_ZN11QtUtilities12UpdateDialog4pageEv
libqtutilities.so.6:_ZN11QtUtilities12UpdateDialogC1EP7QWidget
libqtutilities.so.6:_ZN11QtUtilities12UpdateDialogC2EP7QWidget
libqtutilities.so.6:_ZN11QtUtilities12UpdateDialogD0Ev
libqtutilities.so.6:_ZN11QtUtilities12UpdateDialogD1Ev
libqtutilities.so.6:_ZN11QtUtilities12UpdateDialogD2Ev
libqtutilities.so.6:_ZN11QtUtilities12centerWidgetEP7QWidgetPKS0_PK6QPoint
libqtutilities.so.6:_ZN11QtUtilities12cornerWidgetEP7QWidgetPK6QPoint
libqtutilities.so.6:_ZN11QtUtilities13ButtonOverlay12buttonLayoutEv
libqtutilities.so.6:_ZN11QtUtilities13ButtonOverlay15addCustomActionEP7QAction
libqtutilities.so.6:_ZN11QtUtilities13ButtonOverlay15addCustomButtonEP7QWidget
libqtutilities.so.6:_ZN11QtUtilities13ButtonOverlay16enableInfoButtonERK7QPixmapRK7QString
libqtutilities.so.6:_ZN11QtUtilities13ButtonOverlay17disableInfoButtonEv
libqtutilities.so.6:_ZN11QtUtilities13ButtonOverlay18insertCustomActionEiP7QAction
libqtutilities.so.6:_ZN11QtUtilities13ButtonOverlay18insertCustomButtonEiP7QWidget
libqtutilities.so.6:_ZN11QtUtilities13ButtonOverlay18removeCustomActionEP7QAction
libqtutilities.so.6:_ZN11QtUtilities13ButtonOverlay18removeCustomButtonEP7QWidget
libqtutilities.so.6:_ZN11QtUtilities13ButtonOverlay21setClearButtonEnabledEb
libqtutilities.so.6:_ZN11QtUtilities13ButtonOverlay24handleClearButtonClickedEv
libqtutilities.so.6:_ZN11QtUtilities13ButtonOverlay25handleCustomLayoutCreatedEv
libqtutilities.so.6:_ZN11QtUtilities13ButtonOverlay27fallbackToUsingCustomLayoutEv
libqtutilities.so.6:_ZN11QtUtilities13ButtonOverlay27updateClearButtonVisibilityEb
libqtutilities.so.6:_ZN11QtUtilities13ButtonOverlay48setContentsMarginsFromEditFieldRectAndFrameWidthERK5QRectii
libqtutilities.so.6:_ZN11QtUtilities13ButtonOverlay8showInfoEv
libqtutilities.so.6:_ZN11QtUtilities13ButtonOverlayC1EP7QWidget
libqtutilities.so.6:_ZN11QtUtilities13ButtonOverlayC1EP7QWidgetP9QLineEdit
libqtutilities.so.6:_ZN11QtUtilities13ButtonOverlayC2EP7QWidget
libqtutilities.so.6:_ZN11QtUtilities13ButtonOverlayC2EP7QWidgetP9QLineEdit
libqtutilities.so.6:_ZN11QtUtilities13ButtonOverlayD0Ev
libqtutilities.so.6:_ZN11QtUtilities13ButtonOverlayD1Ev
libqtutilities.so.6:_ZN11QtUtilities13ButtonOverlayD2Ev
libqtutilities.so.6:_ZN11QtUtilities13ClearComboBox11qt_metacallEN11QMetaObject4CallEiPPv
libqtutilities.so.6:_ZN11QtUtilities13ClearComboBox11qt_metacastEPKc
libqtutilities.so.6:_ZN11QtUtilities13ClearComboBox16staticMetaObjectE
libqtutilities.so.6:_ZN11QtUtilities13ClearComboBox17handleTextChangedERK7QString
libqtutilities.so.6:_ZN11QtUtilities13ClearComboBox24handleClearButtonClickedEv
libqtutilities.so.6:_ZN11QtUtilities13ClearComboBox25handleCustomLayoutCreatedEv
libqtutilities.so.6:_ZN11QtUtilities13ClearComboBoxC1EP7QWidget
libqtutilities.so.6:_ZN11QtUtilities13ClearComboBoxC2EP7QWidget
libqtutilities.so.6:_ZN11QtUtilities13ClearComboBoxD0Ev
libqtutilities.so.6:_ZN11QtUtilities13ClearComboBoxD1Ev
libqtutilities.so.6:_ZN11QtUtilities13ClearComboBoxD2Ev
libqtutilities.so.6:_ZN11QtUtilities13ClearLineEdit11qt_metacallEN11QMetaObject4CallEiPPv
libqtutilities.so.6:_ZN11QtUtilities13ClearLineEdit11qt_metacastEPKc
libqtutilities.so.6:_ZN11QtUtilities13ClearLineEdit16staticMetaObjectE
libqtutilities.so.6:_ZN11QtUtilities13ClearLineEdit17handleTextChangedERK7QString
libqtutilities.so.6:_ZN11QtUtilities13ClearLineEdit24handleClearButtonClickedEv
libqtutilities.so.6:_ZN11QtUtilities13ClearLineEdit25handleCustomLayoutCreatedEv
libqtutilities.so.6:_ZN11QtUtilities13ClearLineEditC1EP7QWidget
libqtutilities.so.6:_ZN11QtUtilities13ClearLineEditC2EP7QWidget
libqtutilities.so.6:_ZN11QtUtilities13ClearLineEditD0Ev
libqtutilities.so.6:_ZN11QtUtilities13ClearLineEditD1Ev
libqtutilities.so.6:_ZN11QtUtilities13ClearLineEditD2Ev
libqtutilities.so.6:_ZN11QtUtilities13ColorDelegate11qt_metacallEN11QMetaObject4CallEiPPv
libqtutilities.so.6:_ZN11QtUtilities13ColorDelegate11qt_metacastEPKc
libqtutilities.so.6:_ZN11QtUtilities13ColorDelegate16staticMetaObjectE
libqtutilities.so.6:_ZN11QtUtilities13ColorDelegateC1EP7QObject
libqtutilities.so.6:_ZN11QtUtilities13ColorDelegateC2EP7QObject
libqtutilities.so.6:_ZN11QtUtilities13PaletteEditor10getPaletteEP7QWidgetRK8QPaletteS5_Pi
libqtutilities.so.6:_ZN11QtUtilities13PaletteEditor10setPaletteERK8QPalette
libqtutilities.so.6:_ZN11QtUtilities13PaletteEditor10setPaletteERK8QPaletteS3_
libqtutilities.so.6:_ZN11QtUtilities13PaletteEditor11qt_metacallEN11QMetaObject4CallEiPPv
libqtutilities.so.6:_ZN11QtUtilities13PaletteEditor11qt_metacastEPKc
libqtutilities.so.6:_ZN11QtUtilities13PaletteEditor12buildPaletteEv
libqtutilities.so.6:_ZN11QtUtilities13PaletteEditor14paletteChangedERK8QPalette
libqtutilities.so.6:_ZN11QtUtilities13PaletteEditor16staticMetaObjectE
libqtutilities.so.6:_ZN11QtUtilities13PaletteEditor18updateStyledButtonEv
libqtutilities.so.6:_ZN11QtUtilities13PaletteEditor25handleComputeRadioClickedEv
libqtutilities.so.6:_ZN11QtUtilities13PaletteEditor25handleDetailsRadioClickedEv
libqtutilities.so.6:_ZN11QtUtilities13PaletteEditor4loadEv
libqtutilities.so.6:_ZN11QtUtilities13PaletteEditor4saveEv
libqtutilities.so.6:_ZN11QtUtilities13PaletteEditor5eventEP6QEvent
libqtutilities.so.6:_ZN11QtUtilities13PaletteEditorC1EP7QWidget
libqtutilities.so.6:_ZN11QtUtilities13PaletteEditorC2EP7QWidget
libqtutilities.so.6:_ZN11QtUtilities13PaletteEditorD0Ev
libqtutilities.so.6:_ZN11QtUtilities13PaletteEditorD1Ev
libqtutilities.so.6:_ZN11QtUtilities13PaletteEditorD2Ev
libqtutilities.so.6:_ZN11QtUtilities13PathSelection11eventFilterEP7QObjectP6QEvent
libqtutilities.so.6:_ZN11QtUtilities13PathSelection11qt_metacallEN11QMetaObject4CallEiPPv
libqtutilities.so.6:_ZN11QtUtilities13PathSelection11qt_metacastEPKc
libqtutilities.so.6:_ZN11QtUtilities13PathSelection11s_completerE
libqtutilities.so.6:_ZN11QtUtilities13PathSelection14showFileDialogEv
libqtutilities.so.6:_ZN11QtUtilities13PathSelection16staticMetaObjectE
libqtutilities.so.6:_ZN11QtUtilities13PathSelection5eventEP6QEvent
libqtutilities.so.6:_ZN11QtUtilities13PathSelection8setTextsEv
libqtutilities.so.6:_ZN11QtUtilities13PathSelectionC1EP7QWidget
libqtutilities.so.6:_ZN11QtUtilities13PathSelectionC2EP7QWidget
libqtutilities.so.6:_ZN11QtUtilities13UpdateHandler11qt_metacallEN11QMetaObject4CallEiPPv
libqtutilities.so.6:_ZN11QtUtilities13UpdateHandler11qt_metacastEPKc
libqtutilities.so.6:_ZN11QtUtilities13UpdateHandler13applySettingsEv
libqtutilities.so.6:_ZN11QtUtilities13UpdateHandler13performUpdateEv
libqtutilities.so.6:_ZN11QtUtilities13UpdateHandler14s_mainInstanceE
libqtutilities.so.6:_ZN11QtUtilities13UpdateHandler16setCheckIntervalENS0_13CheckIntervalE
libqtutilities.so.6:_ZN11QtUtilities13UpdateHandler16staticMetaObjectE
libqtutilities.so.6:_ZN11QtUtilities13UpdateHandler17saveNotifierStateEv
libqtutilities.so.6:_ZN11QtUtilities13UpdateHandler21handleUpdateCheckDoneEv
libqtutilities.so.6:_ZN11QtUtilities13UpdateHandler31setConsideringSeparateSignatureEb
libqtutilities.so.6:_ZN11QtUtilities13UpdateHandler7updaterEv
libqtutilities.so.6:_ZN11QtUtilities13UpdateHandler8notifierEv
libqtutilities.so.6:_ZN11QtUtilities13UpdateHandlerC1EP9QSettingsP21QNetworkAccessManagerP7QObject
libqtutilities.so.6:_ZN11QtUtilities13UpdateHandlerC1ERK7QStringS3_P9QSettingsP21QNetworkAccessManagerP7QObject
libqtutilities.so.6:_ZN11QtUtilities13UpdateHandlerC2EP9QSettingsP21QNetworkAccessManagerP7QObject
libqtutilities.so.6:_ZN11QtUtilities13UpdateHandlerC2ERK7QStringS3_P9QSettingsP21QNetworkAccessManagerP7QObject
libqtutilities.so.6:_ZN11QtUtilities13UpdateHandlerD0Ev
libqtutilities.so.6:_ZN11QtUtilities13UpdateHandlerD1Ev
libqtutilities.so.6:_ZN11QtUtilities13UpdateHandlerD2Ev
libqtutilities.so.6:_ZN11QtUtilities13isPaletteDarkERK8QPalette
libqtutilities.so.6:_ZN11QtUtilities14ChecklistModel10insertRowsEiiRK11QModelIndex
libqtutilities.so.6:_ZN11QtUtilities14ChecklistModel10removeRowsEiiRK11QModelIndex
libqtutilities.so.6:_ZN11QtUtilities14ChecklistModel10setCheckedEiN2Qt10CheckStateE
libqtutilities.so.6:_ZN11QtUtilities14ChecklistModel11qt_metacallEN11QMetaObject4CallEiPPv
libqtutilities.so.6:_ZN11QtUtilities14ChecklistModel11qt_metacastEPKc
libqtutilities.so.6:_ZN11QtUtilities14ChecklistModel11setItemDataERK11QModelIndexRK4QMapIi8QVariantE
libqtutilities.so.6:_ZN11QtUtilities14ChecklistModel16applyVariantListERK5QListI8QVariantE
libqtutilities.so.6:_ZN11QtUtilities14ChecklistModel16staticMetaObjectE
libqtutilities.so.6:_ZN11QtUtilities14ChecklistModel7restoreER9QSettingsRK7QString
libqtutilities.so.6:_ZN11QtUtilities14ChecklistModel7setDataERK11QModelIndexRK8QVarianti
libqtutilities.so.6:_ZN11QtUtilities14ChecklistModel8setItemsERK5QListINS_13ChecklistItemEE
libqtutilities.so.6:_ZN11QtUtilities14ChecklistModelC1EP7QObject
libqtutilities.so.6:_ZN11QtUtilities14ChecklistModelC2EP7QObject
libqtutilities.so.6:_ZN11QtUtilities14OptionCategory11assignPagesERK5QListIPNS_10OptionPageEE
libqtutilities.so.6:_ZN11QtUtilities14OptionCategory11iconChangedERK5QIcon
libqtutilities.so.6:_ZN11QtUtilities14OptionCategory11qt_metacallEN11QMetaObject4CallEiPPv
libqtutilities.so.6:_ZN11QtUtilities14OptionCategory11qt_metacastEPKc
libqtutilities.so.6:_ZN11QtUtilities14OptionCategory12pagesChangedERK5QListIPNS_10OptionPageEE
libqtutilities.so.6:_ZN11QtUtilities14OptionCategory13applyAllPagesEv
libqtutilities.so.6:_ZN11QtUtilities14OptionCategory13resetAllPagesEv
libqtutilities.so.6:_ZN11QtUtilities14OptionCategory16staticMetaObjectE
libqtutilities.so.6:_ZN11QtUtilities14OptionCategory18displayNameChangedERK7QString
libqtutilities.so.6:_ZN11QtUtilities14OptionCategory19retranslateAllPagesEv
libqtutilities.so.6:_ZN11QtUtilities14OptionCategoryC1EP7QObject
libqtutilities.so.6:_ZN11QtUtilities14OptionCategoryC2EP7QObject
libqtutilities.so.6:_ZN11QtUtilities14OptionCategoryD0Ev
libqtutilities.so.6:_ZN11QtUtilities14OptionCategoryD1Ev
libqtutilities.so.6:_ZN11QtUtilities14OptionCategoryD2Ev
libqtutilities.so.6:_ZN11QtUtilities14RestartHandler14requestRestartEv
libqtutilities.so.6:_ZN11QtUtilities14RestartHandler25respawnIfRestartRequestedEv
libqtutilities.so.6:_ZN11QtUtilities14SettingsDialog10selectPageEii
libqtutilities.so.6:_ZN11QtUtilities14SettingsDialog11qt_metacallEN11QMetaObject4CallEiPPv
libqtutilities.so.6:_ZN11QtUtilities14SettingsDialog11qt_metacastEPKc
libqtutilities.so.6:_ZN11QtUtilities14SettingsDialog12showCategoryEPNS_14OptionCategoryE
libqtutilities.so.6:_ZN11QtUtilities14SettingsDialog15setCornerWidgetEP7QWidgetN2Qt6CornerE
libqtutilities.so.6:_ZN11QtUtilities14SettingsDialog15updateTabWidgetEv
libqtutilities.so.6:_ZN11QtUtilities14SettingsDialog16addHeadingWidgetEP7QWidget
libqtutilities.so.6:_ZN11QtUtilities14SettingsDialog16staticMetaObjectE
libqtutilities.so.6:_ZN11QtUtilities14SettingsDialog17setSingleCategoryEPNS_14OptionCategoryE
libqtutilities.so.6:_ZN11QtUtilities14SettingsDialog17translateCategoryEPNS_14OptionCategoryERKSt8functionIF7QStringvEE
libqtutilities.so.6:_ZN11QtUtilities14SettingsDialog20retranslateTabWidgetEv
libqtutilities.so.6:_ZN11QtUtilities14SettingsDialog21retranslationRequiredEv
libqtutilities.so.6:_ZN11QtUtilities14SettingsDialog22currentCategoryChangedERK11QModelIndex
libqtutilities.so.6:_ZN11QtUtilities14SettingsDialog22setTabBarAlwaysVisibleEb
libqtutilities.so.6:_ZN11QtUtilities14SettingsDialog5applyEv
libqtutilities.so.6:_ZN11QtUtilities14SettingsDialog5eventEP6QEvent
libqtutilities.so.6:_ZN11QtUtilities14SettingsDialog5resetEv
libqtutilities.so.6:_ZN11QtUtilities14SettingsDialog7appliedEv
libqtutilities.so.6:_ZN11QtUtilities14SettingsDialog8resettedEv
libqtutilities.so.6:_ZN11QtUtilities14SettingsDialog9showEventEP10QShowEvent
libqtutilities.so.6:_ZN11QtUtilities14SettingsDialogC1EP7QWidget
libqtutilities.so.6:_ZN11QtUtilities14SettingsDialogC2EP7QWidget
libqtutilities.so.6:_ZN11QtUtilities14SettingsDialogD0Ev
libqtutilities.so.6:_ZN11QtUtilities14SettingsDialogD1Ev
libqtutilities.so.6:_ZN11QtUtilities14SettingsDialogD2Ev
libqtutilities.so.6:_ZN11QtUtilities14UpdateNotifier11qt_metacallEN11QMetaObject4CallEiPPv
libqtutilities.so.6:_ZN11QtUtilities14UpdateNotifier11qt_metacastEPKc
libqtutilities.so.6:_ZN11QtUtilities14UpdateNotifier11readReleaseEv
libqtutilities.so.6:_ZN11QtUtilities14UpdateNotifier12queryReleaseERK4QUrlbb
libqtutilities.so.6:_ZN11QtUtilities14UpdateNotifier12readReleasesEv
libqtutilities.so.6:_ZN11QtUtilities14UpdateNotifier13processAssetsERK10QJsonArraybb
libqtutilities.so.6:_ZN11QtUtilities14UpdateNotifier14checkForUpdateEv
libqtutilities.so.6:_ZN11QtUtilities14UpdateNotifier15resetUpdateInfoEv
libqtutilities.so.6:_ZN11QtUtilities14UpdateNotifier15updateAvailableERK7QStringS3_
libqtutilities.so.6:_ZN11QtUtilities14UpdateNotifier16checkedForUpdateEv
libqtutilities.so.6:_ZN11QtUtilities14UpdateNotifier16staticMetaObjectE
libqtutilities.so.6:_ZN11QtUtilities14UpdateNotifier17inProgressChangedEb
libqtutilities.so.6:_ZN11QtUtilities14UpdateNotifier20supplyNewReleaseDataERK10QByteArray
libqtutilities.so.6:_ZN11QtUtilities14UpdateNotifier23setNetworkAccessManagerEP21QNetworkAccessManager
libqtutilities.so.6:_ZN11QtUtilities14UpdateNotifier4saveEP9QSettings
libqtutilities.so.6:_ZN11QtUtilities14UpdateNotifier7restoreEP9QSettings
libqtutilities.so.6:_ZN11QtUtilities14UpdateNotifier8setErrorERK7QStringP13QNetworkReply
libqtutilities.so.6:_ZN11QtUtilities14UpdateNotifier8setErrorERK7QStringRK15QJsonParseErrorRK10QByteArray
libqtutilities.so.6:_ZN11QtUtilities14UpdateNotifier8setFlagsENS_16UpdateCheckFlagsE
libqtutilities.so.6:_ZN11QtUtilities14UpdateNotifierC1EP7QObject
libqtutilities.so.6:_ZN11QtUtilities14UpdateNotifierC2EP7QObject
libqtutilities.so.6:_ZN11QtUtilities14UpdateNotifierD0Ev
libqtutilities.so.6:_ZN11QtUtilities14UpdateNotifierD1Ev
libqtutilities.so.6:_ZN11QtUtilities14UpdateNotifierD2Ev
libqtutilities.so.6:_ZN11QtUtilities15QtEnvOptionPage11setupWidgetEv
libqtutilities.so.6:_ZN11QtUtilities15QtEnvOptionPage5applyEv
libqtutilities.so.6:_ZN11QtUtilities15QtEnvOptionPage5resetEv
libqtutilities.so.6:_ZN11QtUtilities15QtEnvOptionPageC1ERNS_14QtSettingsDataEP7QWidget
libqtutilities.so.6:_ZN11QtUtilities15QtEnvOptionPageC2ERNS_14QtSettingsDataEP7QWidget
libqtutilities.so.6:_ZN11QtUtilities15QtEnvOptionPageD0Ev
libqtutilities.so.6:_ZN11QtUtilities15QtEnvOptionPageD1Ev
libqtutilities.so.6:_ZN11QtUtilities15QtEnvOptionPageD2Ev
libqtutilities.so.6:_ZN11QtUtilities16DBusNotification11isAvailableEv
libqtutilities.so.6:_ZN11QtUtilities16DBusNotification11qt_metacallEN11QMetaObject4CallEiPPv
libqtutilities.so.6:_ZN11QtUtilities16DBusNotification11qt_metacastEPKc
libqtutilities.so.6:_ZN11QtUtilities16DBusNotification13actionInvokedERK7QString
libqtutilities.so.6:_ZN11QtUtilities16DBusNotification13initInterfaceEv
libqtutilities.so.6:_ZN11QtUtilities16DBusNotification15s_dbusInterfaceE
libqtutilities.so.6:_ZN11QtUtilities16DBusNotification16staticMetaObjectE
libqtutilities.so.6:_ZN11QtUtilities16DBusNotification17queryCapabilitiesERKSt8functionIFvONS0_12CapabilitiesEEE
libqtutilities.so.6:_ZN11QtUtilities16DBusNotification18handleNotifyResultEP23QDBusPendingCallWatcher
libqtutilities.so.6:_ZN11QtUtilities16DBusNotification19handleActionInvokedEjRK7QString
libqtutilities.so.6:_ZN11QtUtilities16DBusNotification20deleteOnCloseOrErrorEv
libqtutilities.so.6:_ZN11QtUtilities16DBusNotification24handleNotificationClosedEjj
libqtutilities.so.6:_ZN11QtUtilities16DBusNotification4hideEv
libqtutilities.so.6:_ZN11QtUtilities16DBusNotification4showERK7QString
libqtutilities.so.6:_ZN11QtUtilities16DBusNotification4showEv
libqtutilities.so.6:_ZN11QtUtilities16DBusNotification5errorEv
libqtutilities.so.6:_ZN11QtUtilities16DBusNotification5shownEv
libqtutilities.so.6:_ZN11QtUtilities16DBusNotification6closedENS_23NotificationCloseReasonE
libqtutilities.so.6:_ZN11QtUtilities16DBusNotification6updateERK7QString
libqtutilities.so.6:_ZN11QtUtilities16DBusNotification7setIconENS_16NotificationIconE
libqtutilities.so.6:_ZN11QtUtilities16DBusNotification8setImageERK6QImage
libqtutilities.so.6:_ZN11QtUtilities16DBusNotificationC1ERK7QStringNS_16NotificationIconEiP7QObject
libqtutilities.so.6:_ZN11QtUtilities16DBusNotificationC1ERK7QStringS3_iP7QObject
libqtutilities.so.6:_ZN11QtUtilities16DBusNotificationC2ERK7QStringNS_16NotificationIconEiP7QObject
libqtutilities.so.6:_ZN11QtUtilities16DBusNotificationC2ERK7QStringS3_iP7QObject
libqtutilities.so.6:_ZN11QtUtilities16DBusNotificationD0Ev
libqtutilities.so.6:_ZN11QtUtilities16DBusNotificationD1Ev
libqtutilities.so.6:_ZN11QtUtilities16DBusNotificationD2Ev
libqtutilities.so.6:_ZN11QtUtilities16OptionPageWidget11qt_metacallEN11QMetaObject4CallEiPPv
libqtutilities.so.6:_ZN11QtUtilities16OptionPageWidget11qt_metacastEPKc
libqtutilities.so.6:_ZN11QtUtilities16OptionPageWidget14paletteChangedEv
libqtutilities.so.6:_ZN11QtUtilities16OptionPageWidget16staticMetaObjectE
libqtutilities.so.6:_ZN11QtUtilities16OptionPageWidget21retranslationRequiredEv
libqtutilities.so.6:_ZN11QtUtilities16OptionPageWidget5eventEP6QEvent
libqtutilities.so.6:_ZN11QtUtilities16TranslationFiles21clearTranslationFilesEv
libqtutilities.so.6:_ZN11QtUtilities16TranslationFiles21loadQtTranslationFileESt16initializer_listI7QStringE
libqtutilities.so.6:_ZN11QtUtilities16TranslationFiles21loadQtTranslationFileESt16initializer_listI7QStringERKS2_
libqtutilities.so.6:_ZN11QtUtilities16TranslationFiles29additionalTranslationFilePathEv
libqtutilities.so.6:_ZN11QtUtilities16TranslationFiles30loadApplicationTranslationFileERK7QStringRKSt16initializer_listIS1_E
libqtutilities.so.6:_ZN11QtUtilities16TranslationFiles30loadApplicationTranslationFileERK7QStringRKSt16initializer_listIS1_ES3_
libqtutilities.so.6:_ZN11QtUtilities16TranslationFiles30loadApplicationTranslationFileERK7QStringS3_
libqtutilities.so.6:_ZN11QtUtilities16TranslationFiles30loadApplicationTranslationFileERK7QStringS3_S3_
libqtutilities.so.6:_ZN11QtUtilities16UpdateOptionPage11setupWidgetEv
libqtutilities.so.6:_ZN11QtUtilities16UpdateOptionPage17setRestartHandlerEOSt8functionIFvvEE
libqtutilities.so.6:_ZN11QtUtilities16UpdateOptionPage19updateLatestVersionEb
libqtutilities.so.6:_ZN11QtUtilities16UpdateOptionPage5applyEv
libqtutilities.so.6:_ZN11QtUtilities16UpdateOptionPage5resetEv
libqtutilities.so.6:_ZN11QtUtilities16UpdateOptionPageC1EPNS_13UpdateHandlerEP7QWidget
libqtutilities.so.6:_ZN11QtUtilities16UpdateOptionPageC2EPNS_13UpdateHandlerEP7QWidget
libqtutilities.so.6:_ZN11QtUtilities16UpdateOptionPageD0Ev
libqtutilities.so.6:_ZN11QtUtilities16UpdateOptionPageD1Ev
libqtutilities.so.6:_ZN11QtUtilities16UpdateOptionPageD2Ev
libqtutilities.so.6:_ZN11QtUtilities17RecentMenuManager11qt_metacallEN11QMetaObject4CallEiPPv
libqtutilities.so.6:_ZN11QtUtilities17RecentMenuManager11qt_metacastEPKc
libqtutilities.so.6:_ZN11QtUtilities17RecentMenuManager12clearEntriesEv
libqtutilities.so.6:_ZN11QtUtilities17RecentMenuManager12fileSelectedERK7QString
libqtutilities.so.6:_ZN11QtUtilities17RecentMenuManager16staticMetaObjectE
libqtutilities.so.6:_ZN11QtUtilities17RecentMenuManager21handleActionTriggeredEv
libqtutilities.so.6:_ZN11QtUtilities17RecentMenuManager4saveEv
libqtutilities.so.6:_ZN11QtUtilities17RecentMenuManager7restoreERK5QListI7QStringE
libqtutilities.so.6:_ZN11QtUtilities17RecentMenuManager8addEntryERK7QString
libqtutilities.so.6:_ZN11QtUtilities17RecentMenuManagerC1EP5QMenuP7QObject
libqtutilities.so.6:_ZN11QtUtilities17RecentMenuManagerC2EP5QMenuP7QObject
libqtutilities.so.6:_ZN11QtUtilities17isDarkModeEnabledEv
libqtutilities.so.6:_ZN11QtUtilities17onDarkModeChangedEOSt8functionIFvbEEP7QObjectb
libqtutilities.so.6:_ZN11QtUtilities18ClearPlainTextEdit11qt_metacallEN11QMetaObject4CallEiPPv
libqtutilities.so.6:_ZN11QtUtilities18ClearPlainTextEdit11qt_metacastEPKc
libqtutilities.so.6:_ZN11QtUtilities18ClearPlainTextEdit12handleScrollEv
libqtutilities.so.6:_ZN11QtUtilities18ClearPlainTextEdit16staticMetaObjectE
libqtutilities.so.6:_ZN11QtUtilities18ClearPlainTextEdit17handleTextChangedEv
libqtutilities.so.6:_ZN11QtUtilities18ClearPlainTextEdit24handleClearButtonClickedEv
libqtutilities.so.6:_ZN11QtUtilities18ClearPlainTextEdit25handleCustomLayoutCreatedEv
libqtutilities.so.6:_ZN11QtUtilities18ClearPlainTextEditC1EP7QWidget
libqtutilities.so.6:_ZN11QtUtilities18ClearPlainTextEditC2EP7QWidget
libqtutilities.so.6:_ZN11QtUtilities18ClearPlainTextEditD0Ev
libqtutilities.so.6:_ZN11QtUtilities18ClearPlainTextEditD1Ev
libqtutilities.so.6:_ZN11QtUtilities18ClearPlainTextEditD2Ev
libqtutilities.so.6:_ZN11QtUtilities18openLocalFileOrDirERK7QString
libqtutilities.so.6:_ZN11QtUtilities19EnterPasswordDialog11eventFilterEP7QObjectP6QEvent
libqtutilities.so.6:_ZN11QtUtilities19EnterPasswordDialog11qt_metacallEN11QMetaObject4CallEiPPv
libqtutilities.so.6:_ZN11QtUtilities19EnterPasswordDialog11qt_metacastEPKc
libqtutilities.so.6:_ZN11QtUtilities19EnterPasswordDialog14setDescriptionERK7QString
libqtutilities.so.6:_ZN11QtUtilities19EnterPasswordDialog14setInstructionERK7QString
libqtutilities.so.6:_ZN11QtUtilities19EnterPasswordDialog16staticMetaObjectE
libqtutilities.so.6:_ZN11QtUtilities19EnterPasswordDialog17isCapslockPressedEv
libqtutilities.so.6:_ZN11QtUtilities19EnterPasswordDialog18updateShowPasswordEv
libqtutilities.so.6:_ZN11QtUtilities19EnterPasswordDialog19setPasswordRequiredEb
libqtutilities.so.6:_ZN11QtUtilities19EnterPasswordDialog20setPromptForUserNameEb
libqtutilities.so.6:_ZN11QtUtilities19EnterPasswordDialog23setVerificationRequiredEb
libqtutilities.so.6:_ZN11QtUtilities19EnterPasswordDialog5eventEP6QEvent
libqtutilities.so.6:_ZN11QtUtilities19EnterPasswordDialog7confirmEv
libqtutilities.so.6:_ZN11QtUtilities19EnterPasswordDialogC1EP7QWidget
libqtutilities.so.6:_ZN11QtUtilities19EnterPasswordDialogC2EP7QWidget
libqtutilities.so.6:_ZN11QtUtilities19EnterPasswordDialogD0Ev
libqtutilities.so.6:_ZN11QtUtilities19EnterPasswordDialogD1Ev
libqtutilities.so.6:_ZN11QtUtilities19EnterPasswordDialogD2Ev
libqtutilities.so.6:_ZN11QtUtilities19OptionCategoryModel11qt_metacallEN11QMetaObject4CallEiPPv
libqtutilities.so.6:_ZN11QtUtilities19OptionCategoryModel11qt_metacastEPKc
libqtutilities.so.6:_ZN11QtUtilities19OptionCategoryModel13setCategoriesERK5QListIPNS_14OptionCategoryEE
libqtutilities.so.6:_ZN11QtUtilities19OptionCategoryModel16staticMetaObjectE
libqtutilities.so.6:_ZN11QtUtilities19OptionCategoryModel19categoryChangedIconEv
libqtutilities.so.6:_ZN11QtUtilities19OptionCategoryModel19categoryChangedNameEv
libqtutilities.so.6:_ZN11QtUtilities19OptionCategoryModelC1EP7QObject
libqtutilities.so.6:_ZN11QtUtilities19OptionCategoryModelC1ERK5QListIPNS_14OptionCategoryEEP7QObject
libqtutilities.so.6:_ZN11QtUtilities19OptionCategoryModelC2EP7QObject
libqtutilities.so.6:_ZN11QtUtilities19OptionCategoryModelC2ERK5QListIPNS_14OptionCategoryEEP7QObject
libqtutilities.so.6:_ZN11QtUtilities19OptionCategoryModelD0Ev
libqtutilities.so.6:_ZN11QtUtilities19OptionCategoryModelD1Ev
libqtutilities.so.6:_ZN11QtUtilities19OptionCategoryModelD2Ev
libqtutilities.so.6:_ZN11QtUtilities19generateWindowTitleENS_14DocumentStatusERK7QString
libqtutilities.so.6:_ZN11QtUtilities20ApplicationInstances10hasCoreAppEv
libqtutilities.so.6:_ZN11QtUtilities20ApplicationInstances13hasWidgetsAppEv
libqtutilities.so.6:_ZN11QtUtilities20ApplicationInstances9hasGuiAppEv
libqtutilities.so.6:_ZN11QtUtilities20QtLanguageOptionPage11setupWidgetEv
libqtutilities.so.6:_ZN11QtUtilities20QtLanguageOptionPage5applyEv
libqtutilities.so.6:_ZN11QtUtilities20QtLanguageOptionPage5resetEv
libqtutilities.so.6:_ZN11QtUtilities20QtLanguageOptionPageC1ERNS_14QtSettingsDataEP7QWidget
libqtutilities.so.6:_ZN11QtUtilities20QtLanguageOptionPageC2ERNS_14QtSettingsDataEP7QWidget
libqtutilities.so.6:_ZN11QtUtilities20QtLanguageOptionPageD0Ev
libqtutilities.so.6:_ZN11QtUtilities20QtLanguageOptionPageD1Ev
libqtutilities.so.6:_ZN11QtUtilities20QtLanguageOptionPageD2Ev
libqtutilities.so.6:_ZN11QtUtilities20QtUtilitiesResources4initEv
libqtutilities.so.6:_ZN11QtUtilities20QtUtilitiesResources7cleanupEv
libqtutilities.so.6:_ZN11QtUtilities21dialogStyleForPaletteERK8QPalette
libqtutilities.so.6:_ZN11QtUtilities22QtAppearanceOptionPage11setupWidgetEv
libqtutilities.so.6:_ZN11QtUtilities22QtAppearanceOptionPage5applyEv
libqtutilities.so.6:_ZN11QtUtilities22QtAppearanceOptionPage5resetEv
libqtutilities.so.6:_ZN11QtUtilities22QtAppearanceOptionPageC1ERNS_14QtSettingsDataEP7QWidget
libqtutilities.so.6:_ZN11QtUtilities22QtAppearanceOptionPageC2ERNS_14QtSettingsDataEP7QWidget
libqtutilities.so.6:_ZN11QtUtilities22QtAppearanceOptionPageD0Ev
libqtutilities.so.6:_ZN11QtUtilities22QtAppearanceOptionPageD1Ev
libqtutilities.so.6:_ZN11QtUtilities22QtAppearanceOptionPageD2Ev
libqtutilities.so.6:_ZN11QtUtilities23errorMessageForSettingsERK9QSettings
libqtutilities.so.6:_ZN11QtUtilities23loadSettingsWithLoggingER9QSettings
libqtutilities.so.6:_ZN11QtUtilities23saveSettingsWithLoggingER9QSettings
libqtutilities.so.6:_ZN11QtUtilities27VerificationErrorMessageBox11qt_metacallEN11QMetaObject4CallEiPPv
libqtutilities.so.6:_ZN11QtUtilities27VerificationErrorMessageBox11qt_metacastEPKc
libqtutilities.so.6:_ZN11QtUtilities27VerificationErrorMessageBox12execForErrorER7QStringRKS1_
libqtutilities.so.6:_ZN11QtUtilities27VerificationErrorMessageBox12openForErrorERK7QStringS3_
libqtutilities.so.6:_ZN11QtUtilities27VerificationErrorMessageBox16staticMetaObjectE
libqtutilities.so.6:_ZN11QtUtilities27VerificationErrorMessageBoxC1Ev
libqtutilities.so.6:_ZN11QtUtilities27VerificationErrorMessageBoxC2Ev
libqtutilities.so.6:_ZN11QtUtilities27VerificationErrorMessageBoxD0Ev
libqtutilities.so.6:_ZN11QtUtilities27VerificationErrorMessageBoxD1Ev
libqtutilities.so.6:_ZN11QtUtilities27VerificationErrorMessageBoxD2Ev
libqtutilities.so.6:_ZN11QtUtilities27deletePipelineCacheIfNeededEv
libqtutilities.so.6:_ZN11QtUtilities28centerWidgetAvoidingOverflowEP7QWidgetPKS0_PK6QPoint
libqtutilities.so.6:_ZN11QtUtilities30availableScreenGeometryAtPointERK6QPoint
libqtutilities.so.6:_ZN11QtUtilities34setupCommonQtApplicationAttributesEv
libqtutilities.so.6:_ZN11QtUtilities7Updater11abortUpdateEv
libqtutilities.so.6:_ZN11QtUtilities7Updater11qt_metacallEN11QMetaObject4CallEiPPv
libqtutilities.so.6:_ZN11QtUtilities7Updater11qt_metacastEPKc
libqtutilities.so.6:_ZN11QtUtilities7Updater11setVerifierEOSt8functionIF7QStringRKNS0_6UpdateEEE
libqtutilities.so.6:_ZN11QtUtilities7Updater12updateFailedERK7QString
libqtutilities.so.6:_ZN11QtUtilities7Updater12updateStoredEv
libqtutilities.so.6:_ZN11QtUtilities7Updater13performUpdateERK7QStringS3_
libqtutilities.so.6:_ZN11QtUtilities7Updater13readSignatureEv
libqtutilities.so.6:_ZN11QtUtilities7Updater13startDownloadERK7QStringS3_
libqtutilities.so.6:_ZN11QtUtilities7Updater14concludeUpdateEv
libqtutilities.so.6:_ZN11QtUtilities7Updater15storeExecutableEv
libqtutilities.so.6:_ZN11QtUtilities7Updater16staticMetaObjectE
libqtutilities.so.6:_ZN11QtUtilities7Updater17inProgressChangedEb
libqtutilities.so.6:_ZN11QtUtilities7Updater19updateStatusChangedERK7QString
libqtutilities.so.6:_ZN11QtUtilities7Updater22handleDownloadFinishedEv
libqtutilities.so.6:_ZN11QtUtilities7Updater23setNetworkAccessManagerEP21QNetworkAccessManager
libqtutilities.so.6:_ZN11QtUtilities7Updater23updatePercentageChangedExx
libqtutilities.so.6:_ZN11QtUtilities7Updater8setErrorERK7QString
libqtutilities.so.6:_ZN11QtUtilities7UpdaterC1ERK7QStringP7QObject
libqtutilities.so.6:_ZN11QtUtilities7UpdaterC1ERK7QStringS3_P7QObject
libqtutilities.so.6:_ZN11QtUtilities7UpdaterC2ERK7QStringP7QObject
libqtutilities.so.6:_ZN11QtUtilities7UpdaterC2ERK7QStringS3_P7QObject
libqtutilities.so.6:_ZN11QtUtilities7UpdaterD0Ev
libqtutilities.so.6:_ZN11QtUtilities7UpdaterD1Ev
libqtutilities.so.6:_ZN11QtUtilities7UpdaterD2Ev
libqtutilities.so.6:_ZN12CppUtilities17QtConfigArgumentsC1Ev
libqtutilities.so.6:_ZN12CppUtilities17QtConfigArgumentsC2Ev
libqtutilities.so.6:_ZNK11QtUtilities10IconButton10metaObjectEv
libqtutilities.so.6:_ZNK11QtUtilities10IconButton8sizeHintEv
libqtutilities.so.6:_ZNK11QtUtilities10QtSettings13hasCustomFontEv
libqtutilities.so.6:_ZNK11QtUtilities10QtSettings16hasLocaleChangedEv
libqtutilities.so.6:_ZNK11QtUtilities10QtSettings4saveER9QSettings
libqtutilities.so.6:_ZNK11QtUtilities10QtSettingscvRNS_14QtSettingsDataEEv
libqtutilities.so.6:_ZNK11QtUtilities10RoleEditor10metaObjectEv
libqtutilities.so.6:_ZNK11QtUtilities10RoleEditor6editedEv
libqtutilities.so.6:_ZNK11QtUtilities11AboutDialog10metaObjectEv
libqtutilities.so.6:_ZNK11QtUtilities11BrushEditor10metaObjectEv
libqtutilities.so.6:_ZNK11QtUtilities11BrushEditor5brushEv
libqtutilities.so.6:_ZNK11QtUtilities11BrushEditor7changedEv
libqtutilities.so.6:_ZNK11QtUtilities11ColorButton10metaObjectEv
libqtutilities.so.6:_ZNK11QtUtilities11ColorButton21isBackgroundCheckeredEv
libqtutilities.so.6:_ZNK11QtUtilities11ColorButton5colorEv
libqtutilities.so.6:_ZNK11QtUtilities12ClearSpinBox10metaObjectEv
libqtutilities.so.6:_ZNK11QtUtilities12ClearSpinBox13textFromValueEi
libqtutilities.so.6:_ZNK11QtUtilities12ClearSpinBox13valueFromTextERK7QString
libqtutilities.so.6:_ZNK11QtUtilities12ClearSpinBox9isClearedEv
libqtutilities.so.6:_ZNK11QtUtilities12PaletteModel10getPaletteEv
libqtutilities.so.6:_ZNK11QtUtilities12PaletteModel10headerDataEiN2Qt11OrientationEi
libqtutilities.so.6:_ZNK11QtUtilities12PaletteModel10metaObjectEv
libqtutilities.so.6:_ZNK11QtUtilities12PaletteModel11columnCountERK11QModelIndex
libqtutilities.so.6:_ZNK11QtUtilities12PaletteModel13columnToGroupEi
libqtutilities.so.6:_ZNK11QtUtilities12PaletteModel13groupToColumnEN8QPalette10ColorGroupE
libqtutilities.so.6:_ZNK11QtUtilities12PaletteModel4dataERK11QModelIndexi
libqtutilities.so.6:_ZNK11QtUtilities12PaletteModel5flagsERK11QModelIndex
libqtutilities.so.6:_ZNK11QtUtilities12PaletteModel8rowCountERK11QModelIndex
libqtutilities.so.6:_ZNK11QtUtilities12UpdateDialog10metaObjectEv
libqtutilities.so.6:_ZNK11QtUtilities12UpdateDialog4pageEv
libqtutilities.so.6:_ZNK11QtUtilities13ButtonOverlay17lineEditForWidgetEv
libqtutilities.so.6:_ZNK11QtUtilities13ButtonOverlay19isInfoButtonEnabledEv
libqtutilities.so.6:_ZNK11QtUtilities13ButtonOverlay19isUsingCustomLayoutEv
libqtutilities.so.6:_ZNK11QtUtilities13ButtonOverlay20isClearButtonEnabledEv
libqtutilities.so.6:_ZNK11QtUtilities13ButtonOverlay9isClearedEv
libqtutilities.so.6:_ZNK11QtUtilities13ClearComboBox10metaObjectEv
libqtutilities.so.6:_ZNK11QtUtilities13ClearComboBox9isClearedEv
libqtutilities.so.6:_ZNK11QtUtilities13ClearLineEdit10metaObjectEv
libqtutilities.so.6:_ZNK11QtUtilities13ClearLineEdit9isClearedEv
libqtutilities.so.6:_ZNK11QtUtilities13ColorDelegate10metaObjectEv
libqtutilities.so.6:_ZNK11QtUtilities13ColorDelegate12createEditorEP7QWidgetRK20QStyleOptionViewItemRK11QModelIndex
libqtutilities.so.6:_ZNK11QtUtilities13ColorDelegate12setModelDataEP7QWidgetP18QAbstractItemModelRK11QModelIndex
libqtutilities.so.6:_ZNK11QtUtilities13ColorDelegate13setEditorDataEP7QWidgetRK11QModelIndex
libqtutilities.so.6:_ZNK11QtUtilities13ColorDelegate20updateEditorGeometryEP7QWidgetRK20QStyleOptionViewItemRK11QModelIndex
libqtutilities.so.6:_ZNK11QtUtilities13ColorDelegate5paintEP8QPainterRK20QStyleOptionViewItemRK11QModelIndex
libqtutilities.so.6:_ZNK11QtUtilities13ColorDelegate8sizeHintERK20QStyleOptionViewItemRK11QModelIndex
libqtutilities.so.6:_ZNK11QtUtilities13PaletteEditor10metaObjectEv
libqtutilities.so.6:_ZNK11QtUtilities13PaletteEditor7paletteEv
libqtutilities.so.6:_ZNK11QtUtilities13PathSelection10metaObjectEv
libqtutilities.so.6:_ZNK11QtUtilities13UpdateHandler10metaObjectEv
libqtutilities.so.6:_ZNK11QtUtilities13UpdateHandler13checkIntervalEv
libqtutilities.so.6:_ZNK11QtUtilities13UpdateHandler30isConsideringSeparateSignatureEv
libqtutilities.so.6:_ZNK11QtUtilities13UpdateHandler8preCheckEv
libqtutilities.so.6:_ZNK11QtUtilities14ChecklistModel10labelForIdERK8QVariant
libqtutilities.so.6:_ZNK11QtUtilities14ChecklistModel10metaObjectEv
libqtutilities.so.6:_ZNK11QtUtilities14ChecklistModel13toVariantListEv
libqtutilities.so.6:_ZNK11QtUtilities14ChecklistModel20supportedDropActionsEv
libqtutilities.so.6:_ZNK11QtUtilities14ChecklistModel4dataERK11QModelIndexi
libqtutilities.so.6:_ZNK11QtUtilities14ChecklistModel4saveER9QSettingsRK7QString
libqtutilities.so.6:_ZNK11QtUtilities14ChecklistModel5flagsERK11QModelIndex
libqtutilities.so.6:_ZNK11QtUtilities14ChecklistModel8itemDataERK11QModelIndex
libqtutilities.so.6:_ZNK11QtUtilities14ChecklistModel8rowCountERK11QModelIndex
libqtutilities.so.6:_ZNK11QtUtilities14OptionCategory10metaObjectEv
libqtutilities.so.6:_ZNK11QtUtilities14OptionCategory7matchesERK7QString
libqtutilities.so.6:_ZNK11QtUtilities14SettingsDialog10metaObjectEv
libqtutilities.so.6:_ZNK11QtUtilities14SettingsDialog12cornerWidgetEN2Qt6CornerE
libqtutilities.so.6:_ZNK11QtUtilities14SettingsDialog4pageEii
libqtutilities.so.6:_ZNK11QtUtilities14SettingsDialog8categoryEi
libqtutilities.so.6:_ZNK11QtUtilities14UpdateNotifier10metaObjectEv
libqtutilities.so.6:_ZNK11QtUtilities14UpdateNotifier10newVersionEv
libqtutilities.so.6:_ZNK11QtUtilities14UpdateNotifier11downloadUrlEv
libqtutilities.so.6:_ZNK11QtUtilities14UpdateNotifier11isSupportedEv
libqtutilities.so.6:_ZNK11QtUtilities14UpdateNotifier12isInProgressEv
libqtutilities.so.6:_ZNK11QtUtilities14UpdateNotifier12lastCheckNowEv
libqtutilities.so.6:_ZNK11QtUtilities14UpdateNotifier12releaseNotesEv
libqtutilities.so.6:_ZNK11QtUtilities14UpdateNotifier12signatureUrlEv
libqtutilities.so.6:_ZNK11QtUtilities14UpdateNotifier13latestVersionEv
libqtutilities.so.6:_ZNK11QtUtilities14UpdateNotifier14additionalInfoEv
libqtutilities.so.6:_ZNK11QtUtilities14UpdateNotifier14executableNameEv
libqtutilities.so.6:_ZNK11QtUtilities14UpdateNotifier17isUpdateAvailableEv
libqtutilities.so.6:_ZNK11QtUtilities14UpdateNotifier26previousVersionDownloadUrlEv
libqtutilities.so.6:_ZNK11QtUtilities14UpdateNotifier27previousVersionSignatureUrlEv
libqtutilities.so.6:_ZNK11QtUtilities14UpdateNotifier5errorEv
libqtutilities.so.6:_ZNK11QtUtilities14UpdateNotifier5flagsEv
libqtutilities.so.6:_ZNK11QtUtilities14UpdateNotifier6statusEv
libqtutilities.so.6:_ZNK11QtUtilities14UpdateNotifier9lastCheckEv
libqtutilities.so.6:_ZNK11QtUtilities16DBusNotification10metaObjectEv
libqtutilities.so.6:_ZNK11QtUtilities16DBusNotification5imageEv
libqtutilities.so.6:_ZNK11QtUtilities16DBusNotification9isPendingEv
libqtutilities.so.6:_ZNK11QtUtilities16OptionPageWidget10metaObjectEv
libqtutilities.so.6:_ZNK11QtUtilities17RecentMenuManager10metaObjectEv
libqtutilities.so.6:_ZNK11QtUtilities18ClearPlainTextEdit10metaObjectEv
libqtutilities.so.6:_ZNK11QtUtilities18ClearPlainTextEdit9isClearedEv
libqtutilities.so.6:_ZNK11QtUtilities19EnterPasswordDialog10metaObjectEv
libqtutilities.so.6:_ZNK11QtUtilities19EnterPasswordDialog11descriptionEv
libqtutilities.so.6:_ZNK11QtUtilities19EnterPasswordDialog16promtForUserNameEv
libqtutilities.so.6:_ZNK11QtUtilities19EnterPasswordDialog18isPasswordRequiredEv
libqtutilities.so.6:_ZNK11QtUtilities19EnterPasswordDialog22isVerificationRequiredEv
libqtutilities.so.6:_ZNK11QtUtilities19OptionCategoryModel10metaObjectEv
libqtutilities.so.6:_ZNK11QtUtilities19OptionCategoryModel4dataERK11QModelIndexi
libqtutilities.so.6:_ZNK11QtUtilities19OptionCategoryModel8rowCountERK11QModelIndex
libqtutilities.so.6:_ZNK11QtUtilities27VerificationErrorMessageBox10metaObjectEv
libqtutilities.so.6:_ZNK11QtUtilities7Updater10metaObjectEv
libqtutilities.so.6:_ZNK11QtUtilities7Updater10storedPathEv
libqtutilities.so.6:_ZNK11QtUtilities7Updater12isInProgressEv
libqtutilities.so.6:_ZNK11QtUtilities7Updater13overallStatusEv
libqtutilities.so.6:_ZNK11QtUtilities7Updater13statusMessageEv
libqtutilities.so.6:_ZNK11QtUtilities7Updater5errorEv
libqtutilities.so.6:_ZNK12CppUtilities17QtConfigArguments13applySettingsEb
libqtutilities.so.6:_ZTIN11QtUtilities10IconButtonE
libqtutilities.so.6:_ZTIN11QtUtilities10OptionPageE
libqtutilities.so.6:_ZTIN11QtUtilities10RoleEditorE
libqtutilities.so.6:_ZTIN11QtUtilities11AboutDialogE
libqtutilities.so.6:_ZTIN11QtUtilities11BrushEditorE
libqtutilities.so.6:_ZTIN11QtUtilities11ColorButtonE
libqtutilities.so.6:_ZTIN11QtUtilities12ClearSpinBoxE
libqtutilities.so.6:_ZTIN11QtUtilities12PaletteModelE
libqtutilities.so.6:_ZTIN11QtUtilities12UpdateDialogE
libqtutilities.so.6:_ZTIN11QtUtilities13ButtonOverlayE
libqtutilities.so.6:_ZTIN11QtUtilities13ClearComboBoxE
libqtutilities.so.6:_ZTIN11QtUtilities13ClearLineEditE
libqtutilities.so.6:_ZTIN11QtUtilities13ColorDelegateE
libqtutilities.so.6:_ZTIN11QtUtilities13PaletteEditorE
libqtutilities.so.6:_ZTIN11QtUtilities13PathSelectionE
libqtutilities.so.6:_ZTIN11QtUtilities13UpdateHandlerE
libqtutilities.so.6:_ZTIN11QtUtilities14ChecklistModelE
libqtutilities.so.6:_ZTIN11QtUtilities14OptionCategoryE
libqtutilities.so.6:_ZTIN11QtUtilities14SettingsDialogE
libqtutilities.so.6:_ZTIN11QtUtilities14UpdateNotifierE
libqtutilities.so.6:_ZTIN11QtUtilities15QtEnvOptionPageE
libqtutilities.so.6:_ZTIN11QtUtilities16DBusNotificationE
libqtutilities.so.6:_ZTIN11QtUtilities16OptionPageWidgetE
libqtutilities.so.6:_ZTIN11QtUtilities16UpdateOptionPageE
libqtutilities.so.6:_ZTIN11QtUtilities17RecentMenuManagerE
libqtutilities.so.6:_ZTIN11QtUtilities18ClearPlainTextEditE
libqtutilities.so.6:_ZTIN11QtUtilities19EnterPasswordDialogE
libqtutilities.so.6:_ZTIN11QtUtilities19OptionCategoryModelE
libqtutilities.so.6:_ZTIN11QtUtilities20QtLanguageOptionPageE
libqtutilities.so.6:_ZTIN11QtUtilities22QtAppearanceOptionPageE
libqtutilities.so.6:_ZTIN11QtUtilities27VerificationErrorMessageBoxE
libqtutilities.so.6:_ZTIN11QtUtilities7UpdaterE
libqtutilities.so.6:_ZTSN11QtUtilities10IconButtonE
libqtutilities.so.6:_ZTSN11QtUtilities10OptionPageE
libqtutilities.so.6:_ZTSN11QtUtilities10RoleEditorE
libqtutilities.so.6:_ZTSN11QtUtilities11AboutDialogE
libqtutilities.so.6:_ZTSN11QtUtilities11BrushEditorE
libqtutilities.so.6:_ZTSN11QtUtilities11ColorButtonE
libqtutilities.so.6:_ZTSN11QtUtilities12ClearSpinBoxE
libqtutilities.so.6:_ZTSN11QtUtilities12PaletteModelE
libqtutilities.so.6:_ZTSN11QtUtilities12UpdateDialogE
libqtutilities.so.6:_ZTSN11QtUtilities13ButtonOverlayE
libqtutilities.so.6:_ZTSN11QtUtilities13ClearComboBoxE
libqtutilities.so.6:_ZTSN11QtUtilities13ClearLineEditE
libqtutilities.so.6:_ZTSN11QtUtilities13ColorDelegateE
libqtutilities.so.6:_ZTSN11QtUtilities13PaletteEditorE
libqtutilities.so.6:_ZTSN11QtUtilities13PathSelectionE
libqtutilities.so.6:_ZTSN11QtUtilities13UpdateHandlerE
libqtutilities.so.6:_ZTSN11QtUtilities14ChecklistModelE
libqtutilities.so.6:_ZTSN11QtUtilities14OptionCategoryE
libqtutilities.so.6:_ZTSN11QtUtilities14SettingsDialogE
libqtutilities.so.6:_ZTSN11QtUtilities14UpdateNotifierE
libqtutilities.so.6:_ZTSN11QtUtilities15QtEnvOptionPageE
libqtutilities.so.6:_ZTSN11QtUtilities16DBusNotificationE
libqtutilities.so.6:_ZTSN11QtUtilities16OptionPageWidgetE
libqtutilities.so.6:_ZTSN11QtUtilities16UpdateOptionPageE
libqtutilities.so.6:_ZTSN11QtUtilities17RecentMenuManagerE
libqtutilities.so.6:_ZTSN11QtUtilities18ClearPlainTextEditE
libqtutilities.so.6:_ZTSN11QtUtilities19EnterPasswordDialogE
libqtutilities.so.6:_ZTSN11QtUtilities19OptionCategoryModelE
libqtutilities.so.6:_ZTSN11QtUtilities20QtLanguageOptionPageE
libqtutilities.so.6:_ZTSN11QtUtilities22QtAppearanceOptionPageE
libqtutilities.so.6:_ZTSN11QtUtilities27VerificationErrorMessageBoxE
libqtutilities.so.6:_ZTSN11QtUtilities7UpdaterE
libqtutilities.so.6:_ZTVN11QtUtilities10IconButtonE
libqtutilities.so.6:_ZTVN11QtUtilities10OptionPageE
libqtutilities.so.6:_ZTVN11QtUtilities10RoleEditorE
libqtutilities.so.6:_ZTVN11QtUtilities11AboutDialogE
libqtutilities.so.6:_ZTVN11QtUtilities11BrushEditorE
libqtutilities.so.6:_ZTVN11QtUtilities11ColorButtonE
libqtutilities.so.6:_ZTVN11QtUtilities12ClearSpinBoxE
libqtutilities.so.6:_ZTVN11QtUtilities12PaletteModelE
libqtutilities.so.6:_ZTVN11QtUtilities12UpdateDialogE
libqtutilities.so.6:_ZTVN11QtUtilities13ButtonOverlayE
libqtutilities.so.6:_ZTVN11QtUtilities13ClearComboBoxE
libqtutilities.so.6:_ZTVN11QtUtilities13ClearLineEditE
libqtutilities.so.6:_ZTVN11QtUtilities13ColorDelegateE
libqtutilities.so.6:_ZTVN11QtUtilities13PaletteEditorE
libqtutilities.so.6:_ZTVN11QtUtilities13PathSelectionE
libqtutilities.so.6:_ZTVN11QtUtilities13UpdateHandlerE
libqtutilities.so.6:_ZTVN11QtUtilities14ChecklistModelE
libqtutilities.so.6:_ZTVN11QtUtilities14OptionCategoryE
libqtutilities.so.6:_ZTVN11QtUtilities14SettingsDialogE
libqtutilities.so.6:_ZTVN11QtUtilities14UpdateNotifierE
libqtutilities.so.6:_ZTVN11QtUtilities15QtEnvOptionPageE
libqtutilities.so.6:_ZTVN11QtUtilities16DBusNotificationE
libqtutilities.so.6:_ZTVN11QtUtilities16OptionPageWidgetE
libqtutilities.so.6:_ZTVN11QtUtilities16UpdateOptionPageE
libqtutilities.so.6:_ZTVN11QtUtilities17RecentMenuManagerE
libqtutilities.so.6:_ZTVN11QtUtilities18ClearPlainTextEditE
libqtutilities.so.6:_ZTVN11QtUtilities19EnterPasswordDialogE
libqtutilities.so.6:_ZTVN11QtUtilities19OptionCategoryModelE
libqtutilities.so.6:_ZTVN11QtUtilities20QtLanguageOptionPageE
libqtutilities.so.6:_ZTVN11QtUtilities22QtAppearanceOptionPageE
libqtutilities.so.6:_ZTVN11QtUtilities27VerificationErrorMessageBoxE
libqtutilities.so.6:_ZTVN11QtUtilities7UpdaterE
libqtutilities.so.6:_ZThn16_N11QtUtilities10IconButtonD0Ev
libqtutilities.so.6:_ZThn16_N11QtUtilities10IconButtonD1Ev
libqtutilities.so.6:_ZThn16_N11QtUtilities11AboutDialogD0Ev
libqtutilities.so.6:_ZThn16_N11QtUtilities11AboutDialogD1Ev
libqtutilities.so.6:_ZThn16_N11QtUtilities11ColorButtonD0Ev
libqtutilities.so.6:_ZThn16_N11QtUtilities11ColorButtonD1Ev
libqtutilities.so.6:_ZThn16_N11QtUtilities12ClearSpinBoxD0Ev
libqtutilities.so.6:_ZThn16_N11QtUtilities12ClearSpinBoxD1Ev
libqtutilities.so.6:_ZThn16_N11QtUtilities12UpdateDialogD0Ev
libqtutilities.so.6:_ZThn16_N11QtUtilities12UpdateDialogD1Ev
libqtutilities.so.6:_ZThn16_N11QtUtilities13ClearComboBoxD0Ev
libqtutilities.so.6:_ZThn16_N11QtUtilities13ClearComboBoxD1Ev
libqtutilities.so.6:_ZThn16_N11QtUtilities13ClearLineEditD0Ev
libqtutilities.so.6:_ZThn16_N11QtUtilities13ClearLineEditD1Ev
libqtutilities.so.6:_ZThn16_N11QtUtilities13PaletteEditorD0Ev
libqtutilities.so.6:_ZThn16_N11QtUtilities13PaletteEditorD1Ev
libqtutilities.so.6:_ZThn16_N11QtUtilities14SettingsDialogD0Ev
libqtutilities.so.6:_ZThn16_N11QtUtilities14SettingsDialogD1Ev
libqtutilities.so.6:_ZThn16_N11QtUtilities18ClearPlainTextEditD0Ev
libqtutilities.so.6:_ZThn16_N11QtUtilities18ClearPlainTextEditD1Ev
libqtutilities.so.6:_ZThn16_N11QtUtilities19EnterPasswordDialogD0Ev
libqtutilities.so.6:_ZThn16_N11QtUtilities19EnterPasswordDialogD1Ev
libqtutilities.so.6:_ZThn16_N11QtUtilities27VerificationErrorMessageBoxD0Ev
libqtutilities.so.6:_ZThn16_N11QtUtilities27VerificationErrorMessageBoxD1Ev
libqtutilities.so.6:_ZThn40_N11QtUtilities12ClearSpinBox24handleClearButtonClickedEv
libqtutilities.so.6:_ZThn40_N11QtUtilities12ClearSpinBox25handleCustomLayoutCreatedEv
libqtutilities.so.6:_ZThn40_N11QtUtilities12ClearSpinBoxD0Ev
libqtutilities.so.6:_ZThn40_N11QtUtilities12ClearSpinBoxD1Ev
libqtutilities.so.6:_ZThn40_N11QtUtilities13ClearComboBox24handleClearButtonClickedEv
libqtutilities.so.6:_ZThn40_N11QtUtilities13ClearComboBox25handleCustomLayoutCreatedEv
libqtutilities.so.6:_ZThn40_N11QtUtilities13ClearComboBoxD0Ev
libqtutilities.so.6:_ZThn40_N11QtUtilities13ClearComboBoxD1Ev
libqtutilities.so.6:_ZThn40_N11QtUtilities13ClearLineEdit24handleClearButtonClickedEv
libqtutilities.so.6:_ZThn40_N11QtUtilities13ClearLineEdit25handleCustomLayoutCreatedEv
libqtutilities.so.6:_ZThn40_N11QtUtilities13ClearLineEditD0Ev
libqtutilities.so.6:_ZThn40_N11QtUtilities13ClearLineEditD1Ev
libqtutilities.so.6:_ZThn40_N11QtUtilities18ClearPlainTextEdit24handleClearButtonClickedEv
libqtutilities.so.6:_ZThn40_N11QtUtilities18ClearPlainTextEdit25handleCustomLayoutCreatedEv
libqtutilities.so.6:_ZThn40_N11QtUtilities18ClearPlainTextEditD0Ev
libqtutilities.so.6:_ZThn40_N11QtUtilities18ClearPlainTextEditD1Ev
libqtutilities.so.6:_ZThn40_NK11QtUtilities12ClearSpinBox9isClearedEv
libqtutilities.so.6:_ZThn40_NK11QtUtilities13ClearComboBox9isClearedEv
libqtutilities.so.6:_ZThn40_NK11QtUtilities13ClearLineEdit9isClearedEv
libqtutilities.so.6:_ZThn40_NK11QtUtilities18ClearPlainTextEdit9isClearedEv
