UNKNOWN:_ZTIN4Glib10ObjectBaseE
UNKNOWN:_ZTIN4Glib5ErrorE
UNKNOWN:_ZTIN4Glib6ObjectE
libc.so.6:__stack_chk_fail
libgcc_s.so.1:_Unwind_Resume
libglib-2.0.so.0:g_free
libglib-2.0.so.0:g_list_free
libglibmm-2.4.so.1:_ZN4Glib10ObjectBase10set_manageEv
libglibmm-2.4.so.1:_ZN4Glib10ObjectBase15destroy_notify_Ev
libglibmm-2.4.so.1:_ZN4Glib10ObjectBase20_get_current_wrapperEP8_GObject
libglibmm-2.4.so.1:_ZN4Glib10ObjectBaseC2EPKc
libglibmm-2.4.so.1:_ZN4Glib10ObjectBaseC2Ev
libglibmm-2.4.so.1:_ZN4Glib10ObjectBaseD2Ev
libglibmm-2.4.so.1:_ZN4Glib12Object_Class19class_init_functionEPvS1_
libglibmm-2.4.so.1:_ZN4Glib13wrap_registerEmPFPNS_10ObjectBaseEP8_GObjectE
libglibmm-2.4.so.1:_ZN4Glib15ConstructParamsC1ERKNS_5ClassE
libglibmm-2.4.so.1:_ZN4Glib15ConstructParamsD1Ev
libglibmm-2.4.so.1:_ZN4Glib17SignalProxyNormalC2EPNS_10ObjectBaseEPKNS_15SignalProxyInfoE
libglibmm-2.4.so.1:_ZN4Glib18PropertyProxy_BaseC2EPNS_10ObjectBaseEPKc
libglibmm-2.4.so.1:_ZN4Glib25exception_handlers_invokeEv
libglibmm-2.4.so.1:_ZN4Glib4initEv
libglibmm-2.4.so.1:_ZN4Glib5Class21register_derived_typeEm
libglibmm-2.4.so.1:_ZN4Glib5Error15register_domainEjPFvP7_GErrorE
libglibmm-2.4.so.1:_ZN4Glib5Error15throw_exceptionEP7_GError
libglibmm-2.4.so.1:_ZN4Glib5ErrorC2EP7_GErrorb
libglibmm-2.4.so.1:_ZN4Glib5ErrorC2EjiRKNS_7ustringE
libglibmm-2.4.so.1:_ZN4Glib5ErrorD2Ev
libglibmm-2.4.so.1:_ZN4Glib6ObjectC2EOS0_
libglibmm-2.4.so.1:_ZN4Glib6ObjectC2EP8_GObject
libglibmm-2.4.so.1:_ZN4Glib6ObjectC2ERKNS_15ConstructParamsE
libglibmm-2.4.so.1:_ZN4Glib6ObjectD2Ev
libglibmm-2.4.so.1:_ZN4Glib6ObjectaSEOS0_
libglibmm-2.4.so.1:_ZN4Glib7ustringC1EOS0_
libglibmm-2.4.so.1:_ZN4Glib7ustringC1EPKc
libglibmm-2.4.so.1:_ZN4Glib7ustringC1Ev
libglibmm-2.4.so.1:_ZN4Glib7ustringD1Ev
libglibmm-2.4.so.1:_ZN4Glib9wrap_autoEP8_GObjectb
libglibmm-2.4.so.1:_ZNK4Glib10ObjectBase11is_derived_Ev
libglibmm-2.4.so.1:_ZNK4Glib10ObjectBase11unreferenceEv
libglibmm-2.4.so.1:_ZNK4Glib10ObjectBase9referenceEv
libglibmm-2.4.so.1:_ZNK4Glib5Error4codeEv
libglibmm-2.4.so.1:_ZNK4Glib5Error4whatEv
libglibmm-2.4.so.1:_ZNK4Glib7ustring5c_strEv
libgobject-2.0.so.0:g_object_is_floating
libgobject-2.0.so.0:g_object_ref_sink
libgobject-2.0.so.0:g_type_class_peek_parent
libgtkmm-3.0.so.1:_ZN4Glib4wrapEP10_GtkWidgetb
libgtkspell3-3.so.0:gtk_spell_checker_add_to_dictionary
libgtkspell3-3.so.0:gtk_spell_checker_attach
libgtkspell3-3.so.0:gtk_spell_checker_check_word
libgtkspell3-3.so.0:gtk_spell_checker_decode_language_code
libgtkspell3-3.so.0:gtk_spell_checker_detach
libgtkspell3-3.so.0:gtk_spell_checker_get_from_text_view
libgtkspell3-3.so.0:gtk_spell_checker_get_language
libgtkspell3-3.so.0:gtk_spell_checker_get_language_list
libgtkspell3-3.so.0:gtk_spell_checker_get_suggestions
libgtkspell3-3.so.0:gtk_spell_checker_get_suggestions_menu
libgtkspell3-3.so.0:gtk_spell_checker_get_type
libgtkspell3-3.so.0:gtk_spell_checker_ignore_word
libgtkspell3-3.so.0:gtk_spell_checker_recheck_all
libgtkspell3-3.so.0:gtk_spell_checker_set_language
libgtkspell3-3.so.0:gtk_spell_error_get_type
libgtkspell3-3.so.0:gtk_spell_error_quark
libsigc-2.0.so.0:_ZN4sigc9trackableC2Ev
libsigc-2.0.so.0:_ZN4sigc9trackableD2Ev
libstdc++.so.6:_ZSt20__throw_length_errorPKc
libstdc++.so.6:_ZTVN10__cxxabiv120__si_class_type_infoE
libstdc++.so.6:_ZdlPvm
libstdc++.so.6:_Znwm
libstdc++.so.6:__cxa_allocate_exception
libstdc++.so.6:__cxa_begin_catch
libstdc++.so.6:__cxa_end_catch
libstdc++.so.6:__cxa_free_exception
libstdc++.so.6:__cxa_rethrow
libstdc++.so.6:__cxa_throw
libstdc++.so.6:__dynamic_cast
libstdc++.so.6:__gxx_personality_v0
