libsyncthingconnector.so.33:_ZN4Data12SyncthingDir12assignStatusERK7QStringyN12CppUtilities8DateTimeE
libsyncthingconnector.so.33:_ZN4Data12SyncthingDir13assignDirTypeERK7QString
libsyncthingconnector.so.33:_ZN4Data12SyncthingDir20finalizeStatusUpdateENS_18SyncthingDirStatusEyN12CppUtilities8DateTimeE
libsyncthingconnector.so.33:_ZN4Data12SyncthingDir32checkWhetherStatusUpdateRelevantEyN12CppUtilities8DateTimeE
libsyncthingconnector.so.33:_ZN4Data12statusStringENS_18SyncthingDirStatusE
libsyncthingconnector.so.33:_ZN4Data13dirTypeStringENS_16SyncthingDirTypeE
libsyncthingconnector.so.33:_ZN4Data13trafficStringEmd
libsyncthingconnector.so.33:_ZN4Data15SyncthingConfig16locateConfigFileERK7QString
libsyncthingconnector.so.33:_ZN4Data15SyncthingConfig16locateConfigFileEv
libsyncthingconnector.so.33:_ZN4Data15SyncthingConfig22locateHttpsCertificateEv
libsyncthingconnector.so.33:_ZN4Data15SyncthingConfig7restoreERK7QStringb
libsyncthingconnector.so.33:_ZN4Data15substituteTildeERK7QStringS2_S2_
libsyncthingconnector.so.33:_ZN4Data16SyncthingProcess11confirmKillEv
libsyncthingconnector.so.33:_ZN4Data16SyncthingProcess11handleErrorEiRK7QStringb
libsyncthingconnector.so.33:_ZN4Data16SyncthingProcess11qt_metacallEN11QMetaObject4CallEiPPv
libsyncthingconnector.so.33:_ZN4Data16SyncthingProcess11qt_metacastEPKc
libsyncthingconnector.so.33:_ZN4Data16SyncthingProcess11reportErrorEN8QProcess12ProcessErrorERK7QString
libsyncthingconnector.so.33:_ZN4Data16SyncthingProcess12bufferOutputEv
libsyncthingconnector.so.33:_ZN4Data16SyncthingProcess12stateChangedEN8QProcess12ProcessStateE
libsyncthingconnector.so.33:_ZN4Data16SyncthingProcess13errorOccurredEN8QProcess12ProcessErrorE
libsyncthingconnector.so.33:_ZN4Data16SyncthingProcess13handleStartedEv
libsyncthingconnector.so.33:_ZN4Data16SyncthingProcess13killSyncthingEv
libsyncthingconnector.so.33:_ZN4Data16SyncthingProcess13killToRestartEv
libsyncthingconnector.so.33:_ZN4Data16SyncthingProcess13stopSyncthingEPNS_19SyncthingConnectionE
libsyncthingconnector.so.33:_ZN4Data16SyncthingProcess14handleFinishedEiN8QProcess10ExitStatusE
libsyncthingconnector.so.33:_ZN4Data16SyncthingProcess14s_mainInstanceE
libsyncthingconnector.so.33:_ZN4Data16SyncthingProcess14splitArgumentsERK7QString
libsyncthingconnector.so.33:_ZN4Data16SyncthingProcess14startSyncthingERK7QStringRK5QListIS1_E
libsyncthingconnector.so.33:_ZN4Data16SyncthingProcess15waitForFinishedEi
libsyncthingconnector.so.33:_ZN4Data16SyncthingProcess16restartSyncthingERK7QStringRK5QListIS1_EPNS_19SyncthingConnectionE
libsyncthingconnector.so.33:_ZN4Data16SyncthingProcess16staticMetaObjectE
libsyncthingconnector.so.33:_ZN4Data16SyncthingProcess16waitForReadyReadEi
libsyncthingconnector.so.33:_ZN4Data16SyncthingProcess17nativeEventFilterERK10QByteArrayPvPx
libsyncthingconnector.so.33:_ZN4Data16SyncthingProcess23handleLeftoverProcessesEv
libsyncthingconnector.so.33:_ZN4Data16SyncthingProcess4killEv
libsyncthingconnector.so.33:_ZN4Data16SyncthingProcess5closeEv
libsyncthingconnector.so.33:_ZN4Data16SyncthingProcess5startERK5QListI7QStringES5_6QFlagsIN13QIODeviceBase12OpenModeFlagEE
libsyncthingconnector.so.33:_ZN4Data16SyncthingProcess5startERK7QStringRK5QListIS1_E6QFlagsIN13QIODeviceBase12OpenModeFlagEE
libsyncthingconnector.so.33:_ZN4Data16SyncthingProcess7startedEv
libsyncthingconnector.so.33:_ZN4Data16SyncthingProcess8finishedEiN8QProcess10ExitStatusE
libsyncthingconnector.so.33:_ZN4Data16SyncthingProcess8readDataEPcx
libsyncthingconnector.so.33:_ZN4Data16SyncthingProcess9terminateEv
libsyncthingconnector.so.33:_ZN4Data16SyncthingProcess9writeDataEPKcx
libsyncthingconnector.so.33:_ZN4Data16SyncthingProcessC1EP7QObject
libsyncthingconnector.so.33:_ZN4Data16SyncthingProcessC2EP7QObject
libsyncthingconnector.so.33:_ZN4Data16SyncthingProcessD0Ev
libsyncthingconnector.so.33:_ZN4Data16SyncthingProcessD1Ev
libsyncthingconnector.so.33:_ZN4Data16SyncthingProcessD2Ev
libsyncthingconnector.so.33:_ZN4Data16SyncthingService10setEnabledEb
libsyncthingconnector.so.33:_ZN4Data16SyncthingService10setRunningEb
libsyncthingconnector.so.33:_ZN4Data16SyncthingService11handleErrorEPKcP23QDBusPendingCallWatcherb
libsyncthingconnector.so.33:_ZN4Data16SyncthingService11qt_metacallEN11QMetaObject4CallEiPPv
libsyncthingconnector.so.33:_ZN4Data16SyncthingService11qt_metacastEPKc
libsyncthingconnector.so.33:_ZN4Data16SyncthingService11setUnitNameERK7QString
libsyncthingconnector.so.33:_ZN4Data16SyncthingService12s_lastWakeUpE
libsyncthingconnector.so.33:_ZN4Data16SyncthingService12scopeChangedENS_12SystemdScopeE
libsyncthingconnector.so.33:_ZN4Data16SyncthingService12stateChangedERK7QStringS3_N12CppUtilities8DateTimeE
libsyncthingconnector.so.33:_ZN4Data16SyncthingService13clearUnitDataEv
libsyncthingconnector.so.33:_ZN4Data16SyncthingService13errorOccurredERK7QStringS3_S3_
libsyncthingconnector.so.33:_ZN4Data16SyncthingService13handleUnitGetEP23QDBusPendingCallWatcher
libsyncthingconnector.so.33:_ZN4Data16SyncthingService13setPropertiesEbRK7QStringS3_S3_S3_
libsyncthingconnector.so.33:_ZN4Data16SyncthingService14enabledChangedEb
libsyncthingconnector.so.33:_ZN4Data16SyncthingService14runningChangedEb
libsyncthingconnector.so.33:_ZN4Data16SyncthingService14s_loginManagerE
libsyncthingconnector.so.33:_ZN4Data16SyncthingService14s_mainInstanceE
libsyncthingconnector.so.33:_ZN4Data16SyncthingService15handleReloadingEb
libsyncthingconnector.so.33:_ZN4Data16SyncthingService15handleUnitAddedERK7QStringRK15QDBusObjectPath
libsyncthingconnector.so.33:_ZN4Data16SyncthingService15s_fallingAsleepE
libsyncthingconnector.so.33:_ZN4Data16SyncthingService15subStateChangedERK7QString
libsyncthingconnector.so.33:_ZN4Data16SyncthingService15unitNameChangedERK7QString
libsyncthingconnector.so.33:_ZN4Data16SyncthingService16staticMetaObjectE
libsyncthingconnector.so.33:_ZN4Data16SyncthingService17concludeAsyncCallEP23QDBusPendingCallWatcherb
libsyncthingconnector.so.33:_ZN4Data16SyncthingService17handleUnitRemovedERK7QStringRK15QDBusObjectPath
libsyncthingconnector.so.33:_ZN4Data16SyncthingService18activeStateChangedERK7QString
libsyncthingconnector.so.33:_ZN4Data16SyncthingService18descriptionChangedERK7QString
libsyncthingconnector.so.33:_ZN4Data16SyncthingService18reloadAllUnitFilesEv
libsyncthingconnector.so.33:_ZN4Data16SyncthingService19setScopeAndUnitNameENS_12SystemdScopeERK7QString
libsyncthingconnector.so.33:_ZN4Data16SyncthingService20registerErrorHandlerERK16QDBusPendingCallPKcbb
libsyncthingconnector.so.33:_ZN4Data16SyncthingService20unitAvailableChangedEb
libsyncthingconnector.so.33:_ZN4Data16SyncthingService20unitFileStateChangedERK7QString
libsyncthingconnector.so.33:_ZN4Data16SyncthingService21clearSystemdInterfaceEv
libsyncthingconnector.so.33:_ZN4Data16SyncthingService21handlePrepareForSleepEb
libsyncthingconnector.so.33:_ZN4Data16SyncthingService21handlePropertyChangedER7QStringMS0_FvRKS1_ES4_RK4QMapIS1_8QVariantERK5QListIS1_E
libsyncthingconnector.so.33:_ZN4Data16SyncthingService21handlePropertyChangedERN12CppUtilities8DateTimeERK7QStringRK4QMapIS4_8QVariantERK5QListIS4_E
libsyncthingconnector.so.33:_ZN4Data16SyncthingService21setupSystemdInterfaceEv
libsyncthingconnector.so.33:_ZN4Data16SyncthingService22handleGetUnitFileStateEP23QDBusPendingCallWatcher
libsyncthingconnector.so.33:_ZN4Data16SyncthingService22s_systemdUserInterfaceE
libsyncthingconnector.so.33:_ZN4Data16SyncthingService23handlePropertiesChangedERK7QStringRK4QMapIS1_8QVariantERK5QListIS1_E
libsyncthingconnector.so.33:_ZN4Data16SyncthingService23systemdAvailableChangedEb
libsyncthingconnector.so.33:_ZN4Data16SyncthingService24s_systemdSystemInterfaceE
libsyncthingconnector.so.33:_ZN4Data16SyncthingService26stopDueToMeteredConnectionEv
libsyncthingconnector.so.33:_ZN4Data16SyncthingService27setNetworkConnectionMeteredESt8optionalIbE
libsyncthingconnector.so.33:_ZN4Data16SyncthingService29queryUnitFromSystemdInterfaceEv
libsyncthingconnector.so.33:_ZN4Data16SyncthingService30handleServiceRegisteredChangedERK7QString
libsyncthingconnector.so.33:_ZN4Data16SyncthingService30setStoppingOnMeteredConnectionEb
libsyncthingconnector.so.33:_ZN4Data16SyncthingService30setupFreedesktopLoginInterfaceEv
libsyncthingconnector.so.33:_ZN4Data16SyncthingService31networkConnectionMeteredChangedESt8optionalIbE
libsyncthingconnector.so.33:_ZN4Data16SyncthingService7setUnitERK15QDBusObjectPath
libsyncthingconnector.so.33:_ZN4Data16SyncthingService8setScopeENS_12SystemdScopeE
libsyncthingconnector.so.33:_ZN4Data16SyncthingServiceC1ENS_12SystemdScopeEP7QObject
libsyncthingconnector.so.33:_ZN4Data16SyncthingServiceC2ENS_12SystemdScopeEP7QObject
libsyncthingconnector.so.33:_ZN4Data16setDevicesPausedER11QJsonObjectRK5QListI7QStringEb
libsyncthingconnector.so.33:_ZN4Data17SyncthingNotifier11qt_metacallEN11QMetaObject4CallEiPPv
libsyncthingconnector.so.33:_ZN4Data17SyncthingNotifier11qt_metacastEPKc
libsyncthingconnector.so.33:_ZN4Data17SyncthingNotifier12disconnectedEv
libsyncthingconnector.so.33:_ZN4Data17SyncthingNotifier12syncCompleteERK7QString
libsyncthingconnector.so.33:_ZN4Data17SyncthingNotifier13statusChangedENS_15SyncthingStatusES1_
libsyncthingconnector.so.33:_ZN4Data17SyncthingNotifier16emitSyncCompleteEN12CppUtilities8DateTimeERKNS_12SyncthingDirEiPKNS_12SyncthingDevE
libsyncthingconnector.so.33:_ZN4Data17SyncthingNotifier16staticMetaObjectE
libsyncthingconnector.so.33:_ZN4Data17SyncthingNotifier17handleNewDevEventEN12CppUtilities8DateTimeERK7QStringS5_
libsyncthingconnector.so.33:_ZN4Data17SyncthingNotifier17handleNewDirEventEN12CppUtilities8DateTimeERK7QStringPKNS_12SyncthingDevES5_S5_
libsyncthingconnector.so.33:_ZN4Data17SyncthingNotifier21syncthingProcessErrorERK7QStringS3_
libsyncthingconnector.so.33:_ZN4Data17SyncthingNotifier24handleStatusChangedEventENS_15SyncthingStatusE
libsyncthingconnector.so.33:_ZN4Data17SyncthingNotifier27handleSyncthingProcessErrorEN8QProcess12ProcessErrorE
libsyncthingconnector.so.33:_ZN4Data17SyncthingNotifier28emitConnectedAndDisconnectedENS_15SyncthingStatusE
libsyncthingconnector.so.33:_ZN4Data17SyncthingNotifier3logERK7QString
libsyncthingconnector.so.33:_ZN4Data17SyncthingNotifier6newDirERK7QStringS3_S3_S3_
libsyncthingconnector.so.33:_ZN4Data17SyncthingNotifier9connectedEv
libsyncthingconnector.so.33:_ZN4Data17SyncthingNotifier9newDeviceERK7QStringS3_
libsyncthingconnector.so.33:_ZN4Data17SyncthingNotifierC1ERKNS_19SyncthingConnectionEP7QObject
libsyncthingconnector.so.33:_ZN4Data17SyncthingNotifierC2ERKNS_19SyncthingConnectionEP7QObject
libsyncthingconnector.so.33:_ZN4Data18syncCompleteStringERKSt6vectorIPKNS_12SyncthingDirESaIS3_EEPKNS_12SyncthingDevE
libsyncthingconnector.so.33:_ZN4Data19SyncthingCompletion16staticMetaObjectE
libsyncthingconnector.so.33:_ZN4Data19SyncthingConnection10addDevInfoERSt6vectorINS_12SyncthingDevESaIS2_EERK7QString
libsyncthingconnector.so.33:_ZN4Data19SyncthingConnection10addDirInfoERSt6vectorINS_12SyncthingDirESaIS2_EERK7QString
libsyncthingconnector.so.33:_ZN4Data19SyncthingConnection10disconnectEv
libsyncthingconnector.so.33:_ZN4Data19SyncthingConnection10newDevicesERKSt6vectorINS_12SyncthingDevESaIS2_EE
libsyncthingconnector.so.33:_ZN4Data19SyncthingConnection10readBrowseERK7QStringiOSt8functionIFvOSt6vectorISt10unique_ptrINS_13SyncthingItemESt14default_deleteIS7_EESaISA_EEOS1_EE
libsyncthingconnector.so.33:_ZN4Data19SyncthingConnection10readConfigEv
libsyncthingconnector.so.33:_ZN4Data19SyncthingConnection10readErrorsEv
libsyncthingconnector.so.33:_ZN4Data19SyncthingConnection10readEventsEv
libsyncthingconnector.so.33:_ZN4Data19SyncthingConnection10readQrCodeEv
libsyncthingconnector.so.33:_ZN4Data19SyncthingConnection10readRescanEv
libsyncthingconnector.so.33:_ZN4Data19SyncthingConnection10readRevertEv
libsyncthingconnector.so.33:_ZN4Data19SyncthingConnection10readStatusEv
libsyncthingconnector.so.33:_ZN4Data19SyncthingConnection10requestLogEv
libsyncthingconnector.so.33:_ZN4Data19SyncthingConnection10setIgnoresERK7QStringRKNS_16SyncthingIgnoresEOSt8functionIFvOS1_EE
libsyncthingconnector.so.33:_ZN4Data19SyncthingConnection10statusTextENS_15SyncthingStatusE
libsyncthingconnector.so.33:_ZN4Data19SyncthingConnection11fileChangedERKNS_12SyncthingDirEiRKNS_19SyncthingFileChangeE
libsyncthingconnector.so.33:_ZN4Data19SyncthingConnection11findDevInfoERK7QStringRi
libsyncthingconnector.so.33:_ZN4Data19SyncthingConnection11findDirInfoE13QLatin1StringRK11QJsonObjectPi
libsyncthingconnector.so.33:_ZN4Data19SyncthingConnection11findDirInfoERK7QStringRi
libsyncthingconnector.so.33:_ZN4Data19SyncthingConnection11handleReplyEP13QNetworkReplybb
libsyncthingconnector.so.33:_ZN4Data19SyncthingConnection11myIdChangedERK7QString
libsyncthingconnector.so.33:_ZN4Data19SyncthingConnection11pauseDeviceERK5QListI7QStringE
libsyncthingconnector.so.33:_ZN4Data19SyncthingConnection11qt_metacallEN11QMetaObject4CallEiPPv
libsyncthingconnector.so.33:_ZN4Data19SyncthingConnection11qt_metacastEPKc
libsyncthingconnector.so.33:_ZN4Data19SyncthingConnection11readIgnoresERK7QStringOSt8functionIFvONS_16SyncthingIgnoresEOS1_EE
libsyncthingconnector.so.33:_ZN4Data19SyncthingConnection11readRestartEv
libsyncthingconnector.so.33:_ZN4Data19SyncthingConnection11readSuspendEv
libsyncthingconnector.so.33:_ZN4Data19SyncthingConnection11readVersionEv
libsyncthingconnector.so.33:_ZN4Data19SyncthingConnection11requestDataERK7QStringRK9QUrlQuerybb
libsyncthingconnector.so.33:_ZN4Data19SyncthingConnection12connectLaterEi
libsyncthingconnector.so.33:_ZN4Data19SyncthingConnection12dirCompletedEN12CppUtilities8DateTimeERKNS_12SyncthingDirEiPKNS_12SyncthingDevE
libsyncthingconnector.so.33:_ZN4Data19SyncthingConnection12logAvailableERKSt6vectorINS_17SyncthingLogEntryESaIS2_EE
libsyncthingconnector.so.33:_ZN4Data19SyncthingConnection12pauseAllDevsEv
libsyncthingconnector.so.33:_ZN4Data19SyncthingConnection12pauseAllDirsEv
libsyncthingconnector.so.33:_ZN4Data19SyncthingConnection12prepareReplyER5QListIP13QNetworkReplyEbb
libsyncthingconnector.so.33:_ZN4Data19SyncthingConnection12prepareReplyERP13QNetworkReplybb
libsyncthingconnector.so.33:_ZN4Data19SyncthingConnection12prepareReplyEbb
libsyncthingconnector.so.33:_ZN4Data19SyncthingConnection12readDirEventEyN12CppUtilities8DateTimeERK7QStringRK11QJsonObject
libsyncthingconnector.so.33:_ZN4Data19SyncthingConnection12readJsonDataEOSt8functionIFvO13QJsonDocumentO7QStringEE
libsyncthingconnector.so.33:_ZN4Data19SyncthingConnection12readOverrideEv
libsyncthingconnector.so.33:_ZN4Data19SyncthingConnection12readShutdownEv
libsyncthingconnector.so.33:_ZN4Data19SyncthingConnection12resumeDeviceERK5QListI7QStringE
libsyncthingconnector.so.33:_ZN4Data19SyncthingConnection12tildeChangedERK7QString
libsyncthingconnector.so.33:_ZN4Data19SyncthingConnection13applySettingsERNS_27SyncthingConnectionSettingsE
libsyncthingconnector.so.33:_ZN4Data19SyncthingConnection13autoReconnectEv
libsyncthingconnector.so.33:_ZN4Data19SyncthingConnection13errorsClearedEv
libsyncthingconnector.so.33:_ZN4Data19SyncthingConnection13postRawConfigERK10QByteArray
libsyncthingconnector.so.33:_ZN4Data19SyncthingConnection13readDirStatusEv
libsyncthingconnector.so.33:_ZN4Data19SyncthingConnection13requestConfigEv
libsyncthingconnector.so.33:_ZN4Data19SyncthingConnection13requestErrorsEv
libsyncthingconnector.so.33:_ZN4Data19SyncthingConnection13requestEventsEv
libsyncthingconnector.so.33:_ZN4Data19SyncthingConnection13requestQrCodeERK7QString
libsyncthingconnector.so.33:_ZN4Data19SyncthingConnection13requestRevertERK7QString
libsyncthingconnector.so.33:_ZN4Data19SyncthingConnection13requestStatusEv
libsyncthingconnector.so.33:_ZN4Data19SyncthingConnection13rescanAllDirsEv
libsyncthingconnector.so.33:_ZN4Data19SyncthingConnection13resumeAllDevsEv
libsyncthingconnector.so.33:_ZN4Data19SyncthingConnection13resumeAllDirsEv
libsyncthingconnector.so.33:_ZN4Data19SyncthingConnection13statusChangedENS_15SyncthingStatusE
libsyncthingconnector.so.33:_ZN4Data19SyncthingConnection14SuspendedItems20locatePersistentFileERK7QString
libsyncthingconnector.so.33:_ZN4Data19SyncthingConnection14SuspendedItems4saveEv
libsyncthingconnector.so.33:_ZN4Data19SyncthingConnection14SuspendedItems5clearEv
libsyncthingconnector.so.33:_ZN4Data19SyncthingConnection14SuspendedItems7restoreERK7QString
libsyncthingconnector.so.33:_ZN4Data19SyncthingConnection14applyRawConfigEv
libsyncthingconnector.so.33:_ZN4Data19SyncthingConnection14disablePollingEv
libsyncthingconnector.so.33:_ZN4Data19SyncthingConnection14parseTimeStampERK10QJsonValueRK7QStringN12CppUtilities8DateTimeEb
libsyncthingconnector.so.33:_ZN4Data19SyncthingConnection14prepareRequestERK4QUrlb
libsyncthingconnector.so.33:_ZN4Data19SyncthingConnection14prepareRequestERK7QStringRK9QUrlQuerybb
libsyncthingconnector.so.33:_ZN4Data19SyncthingConnection14readCompletionEv
libsyncthingconnector.so.33:_ZN4Data19SyncthingConnection14readDirSummaryEyN12CppUtilities8DateTimeERK11QJsonObjectRNS_12SyncthingDirEi
libsyncthingconnector.so.33:_ZN4Data19SyncthingConnection14readDiskEventsEv
libsyncthingconnector.so.33:_ZN4Data19SyncthingConnection14readPostConfigEOSt8functionIFvO7QStringEE
libsyncthingconnector.so.33:_ZN4Data19SyncthingConnection14readSetIgnoresERK7QStringOSt8functionIFvOS1_EE
libsyncthingconnector.so.33:_ZN4Data19SyncthingConnection14reconnectLaterEi
libsyncthingconnector.so.33:_ZN4Data19SyncthingConnection14requestVersionEv
libsyncthingconnector.so.33:_ZN4Data19SyncthingConnection14trafficChangedEmm
libsyncthingconnector.so.33:_ZN4Data19SyncthingConnection15beforeNewErrorsERKSt6vectorINS_14SyncthingErrorESaIS2_EES6_
libsyncthingconnector.so.33:_ZN4Data19SyncthingConnection15emitMyIdChangedERK7QString
libsyncthingconnector.so.33:_ZN4Data19SyncthingConnection15handleSslErrorsERK5QListI9QSslErrorE
libsyncthingconnector.so.33:_ZN4Data19SyncthingConnection15hasStateChangedEv
libsyncthingconnector.so.33:_ZN4Data19SyncthingConnection15newDevAvailableEN12CppUtilities8DateTimeERK7QStringS5_
libsyncthingconnector.so.33:_ZN4Data19SyncthingConnection15newDirAvailableEN12CppUtilities8DateTimeERK7QStringPKNS_12SyncthingDevES5_S5_
libsyncthingconnector.so.33:_ZN4Data19SyncthingConnection15newNotificationEN12CppUtilities8DateTimeERK7QString
libsyncthingconnector.so.33:_ZN4Data19SyncthingConnection15qrCodeAvailableERK7QStringRK10QByteArray
libsyncthingconnector.so.33:_ZN4Data19SyncthingConnection15readChangeEventEN12CppUtilities8DateTimeERK7QStringRK11QJsonObject
libsyncthingconnector.so.33:_ZN4Data19SyncthingConnection15readConnectionsEv
libsyncthingconnector.so.33:_ZN4Data19SyncthingConnection15readDevRejectedEN12CppUtilities8DateTimeERK7QStringRK11QJsonObject
libsyncthingconnector.so.33:_ZN4Data19SyncthingConnection15readDeviceEventEyN12CppUtilities8DateTimeERK7QStringRK11QJsonObject
libsyncthingconnector.so.33:_ZN4Data19SyncthingConnection15readDirRejectedEN12CppUtilities8DateTimeERK7QStringRK11QJsonObject
libsyncthingconnector.so.33:_ZN4Data19SyncthingConnection15requestJsonDataERK10QByteArrayRK7QStringRK9QUrlQueryS3_OSt8functionIFvO13QJsonDocumentOS4_EEbb
libsyncthingconnector.so.33:_ZN4Data19SyncthingConnection15requestOverrideERK7QString
libsyncthingconnector.so.33:_ZN4Data19SyncthingConnection15rescanTriggeredERK7QString
libsyncthingconnector.so.33:_ZN4Data19SyncthingConnection15revertTriggeredERK7QString
libsyncthingconnector.so.33:_ZN4Data19SyncthingConnection15setLoggingFlagsENS_31SyncthingConnectionLoggingFlagsE
libsyncthingconnector.so.33:_ZN4Data19SyncthingConnection15setPollingFlagsENS0_12PollingFlagsE
libsyncthingconnector.so.33:_ZN4Data19SyncthingConnection15suspendOrResumeEb
libsyncthingconnector.so.33:_ZN4Data19SyncthingConnection16abortAllRequestsEv
libsyncthingconnector.so.33:_ZN4Data19SyncthingConnection16configDirChangedERK7QString
libsyncthingconnector.so.33:_ZN4Data19SyncthingConnection16devStatusChangedERKNS_12SyncthingDevEi
libsyncthingconnector.so.33:_ZN4Data19SyncthingConnection16dirStatusChangedERKNS_12SyncthingDirEi
libsyncthingconnector.so.33:_ZN4Data19SyncthingConnection16emitTildeChangedERK7QStringS3_
libsyncthingconnector.so.33:_ZN4Data19SyncthingConnection16newConfigAppliedEv
libsyncthingconnector.so.33:_ZN4Data19SyncthingConnection16pauseDirectoriesERK5QListI7QStringE
libsyncthingconnector.so.33:_ZN4Data19SyncthingConnection16readFolderErrorsEyN12CppUtilities8DateTimeERK11QJsonObjectRNS_12SyncthingDirEi
libsyncthingconnector.so.33:_ZN4Data19SyncthingConnection16readItemFinishedEyN12CppUtilities8DateTimeERK11QJsonObject
libsyncthingconnector.so.33:_ZN4Data19SyncthingConnection16requestDirStatusERK7QString
libsyncthingconnector.so.33:_ZN4Data19SyncthingConnection16restartTriggeredEv
libsyncthingconnector.so.33:_ZN4Data19SyncthingConnection16staticMetaObjectE
libsyncthingconnector.so.33:_ZN4Data19SyncthingConnection17findDevInfoByNameERK7QStringRi
libsyncthingconnector.so.33:_ZN4Data19SyncthingConnection17findDirInfoByPathERK7QStringRS1_Ri
libsyncthingconnector.so.33:_ZN4Data19SyncthingConnection17handleRedirectionERK4QUrl
libsyncthingconnector.so.33:_ZN4Data19SyncthingConnection17overrideTriggeredERK7QString
libsyncthingconnector.so.33:_ZN4Data19SyncthingConnection17pauseResumeDeviceERK5QListI7QStringEbb
libsyncthingconnector.so.33:_ZN4Data19SyncthingConnection17readDirPullErrorsEv
libsyncthingconnector.so.33:_ZN4Data19SyncthingConnection17readDirStatisticsEv
libsyncthingconnector.so.33:_ZN4Data19SyncthingConnection17readStartingEventERK11QJsonObject
libsyncthingconnector.so.33:_ZN4Data19SyncthingConnection17recalculateStatusEv
libsyncthingconnector.so.33:_ZN4Data19SyncthingConnection17requestCompletionERK7QStringS3_
libsyncthingconnector.so.33:_ZN4Data19SyncthingConnection17requestDiskEventsEi
libsyncthingconnector.so.33:_ZN4Data19SyncthingConnection17resumeDirectoriesERK5QListI7QStringE
libsyncthingconnector.so.33:_ZN4Data19SyncthingConnection17sendCustomRequestERK10QByteArrayRK4QUrlRK4QMapIS1_S1_EP9QIODevice
libsyncthingconnector.so.33:_ZN4Data19SyncthingConnection17shutdownTriggeredEv
libsyncthingconnector.so.33:_ZN4Data19SyncthingConnection18allEventsProcessedEv
libsyncthingconnector.so.33:_ZN4Data19SyncthingConnection18concludeConnectionENS0_19StatusRecomputationE
libsyncthingconnector.so.33:_ZN4Data19SyncthingConnection18continueConnectingEv
libsyncthingconnector.so.33:_ZN4Data19SyncthingConnection18newConfigTriggeredEv
libsyncthingconnector.so.33:_ZN4Data19SyncthingConnection18readClearingErrorsEv
libsyncthingconnector.so.33:_ZN4Data19SyncthingConnection18readDevPauseResumeEv
libsyncthingconnector.so.33:_ZN4Data19SyncthingConnection18readDirPauseResumeEv
libsyncthingconnector.so.33:_ZN4Data19SyncthingConnection18requestConnectionsEv
libsyncthingconnector.so.33:_ZN4Data19SyncthingConnection19syncthingUrlChangedERK7QString
libsyncthingconnector.so.33:_ZN4Data19SyncthingConnection20continueReconnectingEv
libsyncthingconnector.so.33:_ZN4Data19SyncthingConnection20devCompletionChangedEv
libsyncthingconnector.so.33:_ZN4Data19SyncthingConnection20devicePauseTriggeredERK5QListI7QStringE
libsyncthingconnector.so.33:_ZN4Data19SyncthingConnection20dirStatisticsChangedEv
libsyncthingconnector.so.33:_ZN4Data19SyncthingConnection20pauseResumeDirectoryERK5QListI7QStringEb
libsyncthingconnector.so.33:_ZN4Data19SyncthingConnection20readDeviceStatisticsEv
libsyncthingconnector.so.33:_ZN4Data19SyncthingConnection20readFolderCompletionEyN12CppUtilities8DateTimeERK11QJsonObjectRK7QStringPNS_12SyncthingDevEiS8_PNS_12SyncthingDirEi
libsyncthingconnector.so.33:_ZN4Data19SyncthingConnection20readFolderCompletionEyN12CppUtilities8DateTimeERK11QJsonObjectRK7QStringPNS_12SyncthingDirEi
libsyncthingconnector.so.33:_ZN4Data19SyncthingConnection20requestDirPullErrorsERK7QStringii
libsyncthingconnector.so.33:_ZN4Data19SyncthingConnection20requestDirStatisticsEv
libsyncthingconnector.so.33:_ZN4Data19SyncthingConnection21deviceResumeTriggeredERK5QListI7QStringE
libsyncthingconnector.so.33:_ZN4Data19SyncthingConnection21downloadSupportBundleEv
libsyncthingconnector.so.33:_ZN4Data19SyncthingConnection21requestClearingErrorsEv
libsyncthingconnector.so.33:_ZN4Data19SyncthingConnection22readRemoteIndexUpdatedEyRK11QJsonObject
libsyncthingconnector.so.33:_ZN4Data19SyncthingConnection22readStatusChangedEventEyN12CppUtilities8DateTimeERK11QJsonObject
libsyncthingconnector.so.33:_ZN4Data19SyncthingConnection22requestConfigAndStatusEv
libsyncthingconnector.so.33:_ZN4Data19SyncthingConnection22setForceSuspendEnabledEbb
libsyncthingconnector.so.33:_ZN4Data19SyncthingConnection23directoryPauseTriggeredERK5QListI7QStringE
libsyncthingconnector.so.33:_ZN4Data19SyncthingConnection23downloadProgressChangedEv
libsyncthingconnector.so.33:_ZN4Data19SyncthingConnection23handleMeteredConnectionEv
libsyncthingconnector.so.33:_ZN4Data19SyncthingConnection23hasOutOfSyncDirsChangedEv
libsyncthingconnector.so.33:_ZN4Data19SyncthingConnection23postConfigFromByteArrayERK10QByteArrayOSt8functionIFvO7QStringEE
libsyncthingconnector.so.33:_ZN4Data19SyncthingConnection23readEventsFromJsonArrayERK10QJsonArrayRy
libsyncthingconnector.so.33:_ZN4Data19SyncthingConnection23requestDeviceStatisticsEv
libsyncthingconnector.so.33:_ZN4Data19SyncthingConnection24directoryResumeTriggeredERK5QListI7QStringE
libsyncthingconnector.so.33:_ZN4Data19SyncthingConnection24postConfigFromJsonObjectERK11QJsonObjectOSt8functionIFvO7QStringEE
libsyncthingconnector.so.33:_ZN4Data19SyncthingConnection25loadSelfSignedCertificateERK4QUrl
libsyncthingconnector.so.33:_ZN4Data19SyncthingConnection25readDownloadProgressEventERK11QJsonObject
libsyncthingconnector.so.33:_ZN4Data19SyncthingConnection25readLocalFolderCompletionEyN12CppUtilities8DateTimeERK11QJsonObjectRNS_12SyncthingDirEi
libsyncthingconnector.so.33:_ZN4Data19SyncthingConnection26clearSelfSignedCertificateEv
libsyncthingconnector.so.33:_ZN4Data19SyncthingConnection26handleFatalConnectionErrorEv
libsyncthingconnector.so.33:_ZN4Data19SyncthingConnection26invalidateHasOutOfSyncDirsEv
libsyncthingconnector.so.33:_ZN4Data19SyncthingConnection26readRemoteFolderCompletionEN12CppUtilities8DateTimeERK11QJsonObjectRK7QStringPNS_12SyncthingDevEiS8_PNS_12SyncthingDirEi
libsyncthingconnector.so.33:_ZN4Data19SyncthingConnection26readRemoteFolderCompletionERKNS_19SyncthingCompletionERK7QStringPNS_12SyncthingDevEiS6_PNS_12SyncthingDirEi
libsyncthingconnector.so.33:_ZN4Data19SyncthingConnection27suspensionOrResumeTriggeredEb
libsyncthingconnector.so.33:_ZN4Data19SyncthingConnection28autoReconnectIntervalChangedEi
libsyncthingconnector.so.33:_ZN4Data19SyncthingConnection28checkConnectionConfigurationEv
libsyncthingconnector.so.33:_ZN4Data19SyncthingConnection28findDirInfoConsideringLabelsERK7QStringRi
libsyncthingconnector.so.33:_ZN4Data19SyncthingConnection29setPausingOnMeteredConnectionEbb
libsyncthingconnector.so.33:_ZN4Data19SyncthingConnection30concludeReadingConfigAndStatusEv
libsyncthingconnector.so.33:_ZN4Data19SyncthingConnection31handleAdditionalRequestCanceledEv
libsyncthingconnector.so.33:_ZN4Data19SyncthingConnection5errorERK7QStringNS_22SyncthingErrorCategoryEiRK15QNetworkRequestRK10QByteArray
libsyncthingconnector.so.33:_ZN4Data19SyncthingConnection6browseERK7QStringS3_iOSt8functionIFvOSt6vectorISt10unique_ptrINS_13SyncthingItemESt14default_deleteIS7_EESaISA_EEOS1_EE
libsyncthingconnector.so.33:_ZN4Data19SyncthingConnection6rescanERK7QStringS3_
libsyncthingconnector.so.33:_ZN4Data19SyncthingConnection7connectERNS_27SyncthingConnectionSettingsE
libsyncthingconnector.so.33:_ZN4Data19SyncthingConnection7connectEv
libsyncthingconnector.so.33:_ZN4Data19SyncthingConnection7ignoresERK7QStringOSt8functionIFvONS_16SyncthingIgnoresEOS1_EE
libsyncthingconnector.so.33:_ZN4Data19SyncthingConnection7newDirsERKSt6vectorINS_12SyncthingDirESaIS2_EE
libsyncthingconnector.so.33:_ZN4Data19SyncthingConnection7readLogEv
libsyncthingconnector.so.33:_ZN4Data19SyncthingConnection7restartEv
libsyncthingconnector.so.33:_ZN4Data19SyncthingConnection8postDataERK7QStringRK9QUrlQueryRK10QByteArray
libsyncthingconnector.so.33:_ZN4Data19SyncthingConnection8readDevsERK10QJsonArray
libsyncthingconnector.so.33:_ZN4Data19SyncthingConnection8readDirsERK10QJsonArray
libsyncthingconnector.so.33:_ZN4Data19SyncthingConnection8sendDataERK10QByteArrayRK7QStringRK9QUrlQueryS3_
libsyncthingconnector.so.33:_ZN4Data19SyncthingConnection8shutdownEv
libsyncthingconnector.so.33:_ZN4Data19SyncthingConnection9emitErrorERK7QStringNS_22SyncthingErrorCategoryEP13QNetworkReplyRK10QByteArray
libsyncthingconnector.so.33:_ZN4Data19SyncthingConnection9emitErrorERK7QStringP13QNetworkReplyRK10QByteArray
libsyncthingconnector.so.33:_ZN4Data19SyncthingConnection9emitErrorERK7QStringRK15QJsonParseErrorP13QNetworkReplyRK10QByteArray
libsyncthingconnector.so.33:_ZN4Data19SyncthingConnection9newConfigERK11QJsonObject
libsyncthingconnector.so.33:_ZN4Data19SyncthingConnection9newErrorsERKSt6vectorINS_14SyncthingErrorESaIS2_EE
libsyncthingconnector.so.33:_ZN4Data19SyncthingConnection9newEventsERK10QJsonArray
libsyncthingconnector.so.33:_ZN4Data19SyncthingConnection9reconnectERNS_27SyncthingConnectionSettingsE
libsyncthingconnector.so.33:_ZN4Data19SyncthingConnection9reconnectEv
libsyncthingconnector.so.33:_ZN4Data19SyncthingConnection9setStatusENS_15SyncthingStatusE
libsyncthingconnector.so.33:_ZN4Data19SyncthingConnectionC1ERK7QStringRK10QByteArrayNS_31SyncthingConnectionLoggingFlagsEP7QObject
libsyncthingconnector.so.33:_ZN4Data19SyncthingConnectionC2ERK7QStringRK10QByteArrayNS_31SyncthingConnectionLoggingFlagsEP7QObject
libsyncthingconnector.so.33:_ZN4Data19SyncthingConnectionD0Ev
libsyncthingconnector.so.33:_ZN4Data19SyncthingConnectionD1Ev
libsyncthingconnector.so.33:_ZN4Data19SyncthingConnectionD2Ev
libsyncthingconnector.so.33:_ZN4Data19SyncthingStatistics16staticMetaObjectE
libsyncthingconnector.so.33:_ZN4Data19SyncthingStatisticspLERKS0_
libsyncthingconnector.so.33:_ZN4Data20networkAccessManagerEv
libsyncthingconnector.so.33:_ZN4Data20rescanIntervalStringEib
libsyncthingconnector.so.33:_ZN4Data20setDirectoriesPausedER11QJsonObjectRK5QListI7QStringEb
libsyncthingconnector.so.33:_ZN4Data21directoryStatusStringERKNS_19SyncthingStatisticsE
libsyncthingconnector.so.33:_ZN4Data22SyncthingIgnorePattern7forPathERK7QStringbbb
libsyncthingconnector.so.33:_ZN4Data22SyncthingIgnorePatternC1EO7QString
libsyncthingconnector.so.33:_ZN4Data22SyncthingIgnorePatternC1EOS0_
libsyncthingconnector.so.33:_ZN4Data22SyncthingIgnorePatternC2EO7QString
libsyncthingconnector.so.33:_ZN4Data22SyncthingIgnorePatternC2EOS0_
libsyncthingconnector.so.33:_ZN4Data22SyncthingIgnorePatternD1Ev
libsyncthingconnector.so.33:_ZN4Data22SyncthingIgnorePatternD2Ev
libsyncthingconnector.so.33:_ZN4Data27SyncthingConnectionSettings11storeToJsonER11QJsonObject
libsyncthingconnector.so.33:_ZN4Data27SyncthingConnectionSettings12loadFromJsonERK11QJsonObject
libsyncthingconnector.so.33:_ZN4Data27SyncthingConnectionSettings13loadHttpsCertEv
libsyncthingconnector.so.33:_ZN4Data27SyncthingConnectionSettings16compileSslErrorsERK15QSslCertificate
libsyncthingconnector.so.33:_ZN4Data29SyncthingItemDownloadProgressC1ERK7QStringS3_RK11QJsonObject
libsyncthingconnector.so.33:_ZN4Data29SyncthingItemDownloadProgressC2ERK7QStringS3_RK11QJsonObject
libsyncthingconnector.so.33:_ZN4Data29SyncthingOverallDirStatistics16staticMetaObjectE
libsyncthingconnector.so.33:_ZN4Data29SyncthingOverallDirStatisticsC1ERKSt6vectorINS_12SyncthingDirESaIS2_EE
libsyncthingconnector.so.33:_ZN4Data29SyncthingOverallDirStatisticsC2ERKSt6vectorINS_12SyncthingDirESaIS2_EE
libsyncthingconnector.so.33:_ZN4Data39loadNetworkInformationBackendForMeteredEb
libsyncthingconnector.so.33:_ZN4Data7isLocalERK7QString
libsyncthingconnector.so.33:_ZN4Data7isLocalERK7QStringRK12QHostAddress
libsyncthingconnector.so.33:_ZN4Data9agoStringEN12CppUtilities8DateTimeE
libsyncthingconnector.so.33:_ZNK4Data12SyncthingDev12statusStringEv
libsyncthingconnector.so.33:_ZNK4Data12SyncthingDir12statusStringEv
libsyncthingconnector.so.33:_ZNK4Data12SyncthingDir18areRemotesUpToDateEv
libsyncthingconnector.so.33:_ZNK4Data12SyncthingDir24pathWithoutTrailingSlashEv
libsyncthingconnector.so.33:_ZNK4Data15SyncthingConfig12syncthingUrlEv
libsyncthingconnector.so.33:_ZNK4Data15SyncthingConfig20syncthingConnectInfoEv
libsyncthingconnector.so.33:_ZNK4Data16SyncthingProcess10metaObjectEv
libsyncthingconnector.so.33:_ZNK4Data16SyncthingProcess14bytesAvailableEv
libsyncthingconnector.so.33:_ZNK4Data16SyncthingProcess5stateEv
libsyncthingconnector.so.33:_ZNK4Data16SyncthingProcess7programEv
libsyncthingconnector.so.33:_ZNK4Data16SyncthingProcess8exitCodeEv
libsyncthingconnector.so.33:_ZNK4Data16SyncthingProcess9argumentsEv
libsyncthingconnector.so.33:_ZNK4Data16SyncthingProcess9processIdEv
libsyncthingconnector.so.33:_ZNK4Data16SyncthingService10metaObjectEv
libsyncthingconnector.so.33:_ZNK4Data16SyncthingService11displayNameEv
libsyncthingconnector.so.33:_ZNK4Data16SyncthingService15isUnitAvailableEv
libsyncthingconnector.so.33:_ZNK4Data16SyncthingService18isSystemdAvailableEv
libsyncthingconnector.so.33:_ZNK4Data17SyncthingNotifier10metaObjectEv
libsyncthingconnector.so.33:_ZNK4Data17SyncthingNotifier20isDisconnectRelevantEv
libsyncthingconnector.so.33:_ZNK4Data19SyncthingConnection10configPathEv
libsyncthingconnector.so.33:_ZNK4Data19SyncthingConnection10metaObjectEv
libsyncthingconnector.so.33:_ZNK4Data19SyncthingConnection12directoryIdsEv
libsyncthingconnector.so.33:_ZNK4Data19SyncthingConnection14deviceNameOrIdERK7QString
libsyncthingconnector.so.33:_ZNK4Data19SyncthingConnection15substituteTildeERK7QString
libsyncthingconnector.so.33:_ZNK4Data19SyncthingConnection16changeConfigVerbEv
libsyncthingconnector.so.33:_ZNK4Data19SyncthingConnection16connectedDevicesEv
libsyncthingconnector.so.33:_ZNK4Data19SyncthingConnection16folderErrorsPathEv
libsyncthingconnector.so.33:_ZNK4Data19SyncthingConnection16hasOutOfSyncDirsEv
libsyncthingconnector.so.33:_ZNK4Data19SyncthingConnection18isGuiRequiringAuthEv
libsyncthingconnector.so.33:_ZNK4Data19SyncthingConnection22makeUrlWithCredentialsEv
libsyncthingconnector.so.33:_ZNK4Data19SyncthingConnection30computeOverallRemoteCompletionEv
libsyncthingconnector.so.33:_ZNK4Data19SyncthingConnection7isLocalEv
libsyncthingconnector.so.33:_ZNK4Data19SyncthingConnection8fullPathERK7QStringS3_
libsyncthingconnector.so.33:_ZNK4Data19SyncthingConnection9deviceIdsEv
libsyncthingconnector.so.33:_ZNK4Data19SyncthingStatistics13bytesAsStringEv
libsyncthingconnector.so.33:_ZNK4Data22SyncthingIgnorePattern7matchesERK7QString5QChar
libsyncthingconnector.so.33:_ZTIN4Data16SyncthingProcessE
libsyncthingconnector.so.33:_ZTIN4Data16SyncthingServiceE
libsyncthingconnector.so.33:_ZTIN4Data17SyncthingNotifierE
libsyncthingconnector.so.33:_ZTIN4Data19SyncthingConnectionE
libsyncthingconnector.so.33:_ZTSN4Data16SyncthingProcessE
libsyncthingconnector.so.33:_ZTSN4Data16SyncthingServiceE
libsyncthingconnector.so.33:_ZTSN4Data17SyncthingNotifierE
libsyncthingconnector.so.33:_ZTSN4Data19SyncthingConnectionE
libsyncthingconnector.so.33:_ZTVN4Data16SyncthingProcessE
libsyncthingconnector.so.33:_ZTVN4Data16SyncthingServiceE
libsyncthingconnector.so.33:_ZTVN4Data17SyncthingNotifierE
libsyncthingconnector.so.33:_ZTVN4Data19SyncthingConnectionE
libsyncthingconnector.so.33:_ZThn16_N4Data16SyncthingProcess17nativeEventFilterERK10QByteArrayPvPx
libsyncthingconnector.so.33:_ZThn16_N4Data16SyncthingProcessD0Ev
libsyncthingconnector.so.33:_ZThn16_N4Data16SyncthingProcessD1Ev
libsyncthingfileitemaction.so:qt_plugin_instance
libsyncthingfileitemaction.so:qt_plugin_query_metadata_v2
libsyncthingmodel.so.33:_ZN4Data11IconManager10setPaletteERK8QPalette
libsyncthingmodel.so.33:_ZN4Data11IconManager11qt_metacallEN11QMetaObject4CallEiPPv
libsyncthingmodel.so.33:_ZN4Data11IconManager11qt_metacastEPKc
libsyncthingmodel.so.33:_ZN4Data11IconManager13applySettingsEPKNS_18StatusIconSettingsES3_bb
libsyncthingmodel.so.33:_ZN4Data11IconManager16staticMetaObjectE
libsyncthingmodel.so.33:_ZN4Data11IconManager18statusIconsChangedERKNS_11StatusIconsES3_
libsyncthingmodel.so.33:_ZN4Data11IconManager23forkAwesomeIconsChangedERKNS_16ForkAwesomeIconsE
libsyncthingmodel.so.33:_ZN4Data11IconManager8instanceEPK8QPalette
libsyncthingmodel.so.33:_ZN4Data11IconManagerC1EPK8QPalette
libsyncthingmodel.so.33:_ZN4Data11IconManagerC2EPK8QPalette
libsyncthingmodel.so.33:_ZN4Data11StatusIconsC1ERKNS_18StatusIconSettingsE
libsyncthingmodel.so.33:_ZN4Data11StatusIconsC2ERKNS_18StatusIconSettingsE
libsyncthingmodel.so.33:_ZN4Data14SyncthingModel11qt_metacallEN11QMetaObject4CallEiPPv
libsyncthingmodel.so.33:_ZN4Data14SyncthingModel11qt_metacastEPKc
libsyncthingmodel.so.33:_ZN4Data14SyncthingModel15setBrightColorsEb
libsyncthingmodel.so.33:_ZN4Data14SyncthingModel16staticMetaObjectE
libsyncthingmodel.so.33:_ZN4Data14SyncthingModel19setSingleColumnModeEb
libsyncthingmodel.so.33:_ZN4Data14SyncthingModel21invalidateAllIndiciesERK5QListIiERK11QModelIndex
libsyncthingmodel.so.33:_ZN4Data14SyncthingModel21invalidateAllIndiciesERK5QListIiEiRK11QModelIndex
libsyncthingmodel.so.33:_ZN4Data14SyncthingModel23handleConfigInvalidatedEv
libsyncthingmodel.so.33:_ZN4Data14SyncthingModel24handleNewConfigAvailableEv
libsyncthingmodel.so.33:_ZN4Data14SyncthingModel24handleStatusIconsChangedEv
libsyncthingmodel.so.33:_ZN4Data14SyncthingModel24invalidateNestedIndiciesERK5QListIiE
libsyncthingmodel.so.33:_ZN4Data14SyncthingModel25handleBrightColorsChangedEv
libsyncthingmodel.so.33:_ZN4Data14SyncthingModel26invalidateTopLevelIndiciesERK5QListIiE
libsyncthingmodel.so.33:_ZN4Data14SyncthingModel29handleForkAwesomeIconsChangedEv
libsyncthingmodel.so.33:_ZN4Data14SyncthingModelC2ERNS_19SyncthingConnectionEP7QObject
libsyncthingmodel.so.33:_ZN4Data14makeSdCardIconERKNS_18StatusIconColorSetE
libsyncthingmodel.so.33:_ZN4Data14renderSvgImageERK10QByteArrayRK5QSizei
libsyncthingmodel.so.33:_ZN4Data14renderSvgImageERK7QStringRK5QSizei
libsyncthingmodel.so.33:_ZN4Data16ForkAwesomeIconsC1ERN13QtForkAwesome8RendererERK6QColorRK5QSize
libsyncthingmodel.so.33:_ZN4Data16ForkAwesomeIconsC2ERN13QtForkAwesome8RendererERK6QColorRK5QSize
libsyncthingmodel.so.33:_ZN4Data16RejectableAction11qt_metacallEN11QMetaObject4CallEiPPv
libsyncthingmodel.so.33:_ZN4Data16RejectableAction11qt_metacastEPKc
libsyncthingmodel.so.33:_ZN4Data16RejectableAction16staticMetaObjectE
libsyncthingmodel.so.33:_ZN4Data16aboutDialogImageEv
libsyncthingmodel.so.33:_ZN4Data17makeSyncthingIconERKNS_18StatusIconColorSetENS_12StatusEmblemENS_21StatusIconStrokeWidthE
libsyncthingmodel.so.33:_ZN4Data18StatusIconSettings10forPaletteERK8QPaletteRKS0_
libsyncthingmodel.so.33:_ZN4Data18StatusIconSettings12colorMappingEv
libsyncthingmodel.so.33:_ZN4Data18StatusIconSettingsC1ENS0_11BrightThemeE
libsyncthingmodel.so.33:_ZN4Data18StatusIconSettingsC1ENS0_9DarkThemeE
libsyncthingmodel.so.33:_ZN4Data18StatusIconSettingsC1ERK7QString
libsyncthingmodel.so.33:_ZN4Data18StatusIconSettingsC1Ev
libsyncthingmodel.so.33:_ZN4Data18StatusIconSettingsC2ENS0_11BrightThemeE
libsyncthingmodel.so.33:_ZN4Data18StatusIconSettingsC2ENS0_9DarkThemeE
libsyncthingmodel.so.33:_ZN4Data18StatusIconSettingsC2ERK7QString
libsyncthingmodel.so.33:_ZN4Data18StatusIconSettingsC2Ev
libsyncthingmodel.so.33:_ZN4Data18SyncthingFileModel11QueryResultaSEONS_19SyncthingConnection11QueryResultE
libsyncthingmodel.so.33:_ZN4Data18SyncthingFileModel11qt_metacallEN11QMetaObject4CallEiPPv
libsyncthingmodel.so.33:_ZN4Data18SyncthingFileModel11qt_metacastEPKc
libsyncthingmodel.so.33:_ZN4Data18SyncthingFileModel12notificationERK7QStringS3_S3_
libsyncthingmodel.so.33:_ZN4Data18SyncthingFileModel12queryIgnoresEv
libsyncthingmodel.so.33:_ZN4Data18SyncthingFileModel13setCheckStateERK11QModelIndexN2Qt10CheckStateEb
libsyncthingmodel.so.33:_ZN4Data18SyncthingFileModel13triggerActionERK7QStringRK11QModelIndex
libsyncthingmodel.so.33:_ZN4Data18SyncthingFileModel15fetchQueueEmptyEv
libsyncthingmodel.so.33:_ZN4Data18SyncthingFileModel16insertLocalItemsERK11QModelIndexRSt3mapI7QStringNS0_9LocalItemESt4lessIS5_ESaISt4pairIKS5_S6_EEE
libsyncthingmodel.so.33:_ZN4Data18SyncthingFileModel16lookupDirLocallyERK4QDirRSt3mapI7QStringNS0_9LocalItemESt4lessIS5_ESaISt4pairIKS5_S6_EEEi
libsyncthingmodel.so.33:_ZN4Data18SyncthingFileModel16selectionActionsEv
libsyncthingmodel.so.33:_ZN4Data18SyncthingFileModel16staticMetaObjectE
libsyncthingmodel.so.33:_ZN4Data18SyncthingFileModel17processFetchQueueERK7QString
libsyncthingmodel.so.33:_ZN4Data18SyncthingFileModel18editLocalDeletionsERK4QSetI7QStringE
libsyncthingmodel.so.33:_ZN4Data18SyncthingFileModel19ignoreSelectedItemsEbb
libsyncthingmodel.so.33:_ZN4Data18SyncthingFileModel23actionNeedsConfirmationEP7QActionRK7QStringS5_RK4QSetIS3_E
libsyncthingmodel.so.33:_ZN4Data18SyncthingFileModel23concludeApplyingChangesERK5QListI7QStringES5_
libsyncthingmodel.so.33:_ZN4Data18SyncthingFileModel23handleConfigInvalidatedEv
libsyncthingmodel.so.33:_ZN4Data18SyncthingFileModel23hasStagedChangesChangedEb
libsyncthingmodel.so.33:_ZN4Data18SyncthingFileModel23selectionActionsChangedEv
libsyncthingmodel.so.33:_ZN4Data18SyncthingFileModel23setSelectionModeEnabledEb
libsyncthingmodel.so.33:_ZN4Data18SyncthingFileModel24computeIgnorePatternDiffEv
libsyncthingmodel.so.33:_ZN4Data18SyncthingFileModel24handleNewConfigAvailableEv
libsyncthingmodel.so.33:_ZN4Data18SyncthingFileModel25handleBrightColorsChangedEv
libsyncthingmodel.so.33:_ZN4Data18SyncthingFileModel25handleLocalLookupFinishedEv
libsyncthingmodel.so.33:_ZN4Data18SyncthingFileModel26editIgnorePatternsManuallyERK7QString
libsyncthingmodel.so.33:_ZN4Data18SyncthingFileModel27resetMatchingIgnorePatternsEv
libsyncthingmodel.so.33:_ZN4Data18SyncthingFileModel27selectionModeEnabledChangedEb
libsyncthingmodel.so.33:_ZN4Data18SyncthingFileModel29handleForkAwesomeIconsChangedEv
libsyncthingmodel.so.33:_ZN4Data18SyncthingFileModel33editLocalDeletionsFromVariantListERK5QListI8QVariantE
libsyncthingmodel.so.33:_ZN4Data18SyncthingFileModel38markItemsFromDatabaseAsLocallyExistingERSt6vectorISt10unique_ptrINS_13SyncthingItemESt14default_deleteIS3_EESaIS6_EERSt3mapI7QStringNS0_9LocalItemESt4lessISB_ESaISt4pairIKSB_SC_EEE
libsyncthingmodel.so.33:_ZN4Data18SyncthingFileModel7setDataERK11QModelIndexRK8QVarianti
libsyncthingmodel.so.33:_ZN4Data18SyncthingFileModel9fetchMoreERK11QModelIndex
libsyncthingmodel.so.33:_ZN4Data18SyncthingFileModelC1ERNS_19SyncthingConnectionERKNS_12SyncthingDirEP7QObject
libsyncthingmodel.so.33:_ZN4Data18SyncthingFileModelC2ERNS_19SyncthingConnectionERKNS_12SyncthingDirEP7QObject
libsyncthingmodel.so.33:_ZN4Data18SyncthingFileModelD0Ev
libsyncthingmodel.so.33:_ZN4Data18SyncthingFileModelD1Ev
libsyncthingmodel.so.33:_ZN4Data18SyncthingFileModelD2Ev
libsyncthingmodel.so.33:_ZN4Data19SyncthingErrorModel11qt_metacallEN11QMetaObject4CallEiPPv
libsyncthingmodel.so.33:_ZN4Data19SyncthingErrorModel11qt_metacastEPKc
libsyncthingmodel.so.33:_ZN4Data19SyncthingErrorModel15handleNewErrorsERKSt6vectorINS_14SyncthingErrorESaIS2_EE
libsyncthingmodel.so.33:_ZN4Data19SyncthingErrorModel16staticMetaObjectE
libsyncthingmodel.so.33:_ZN4Data19SyncthingErrorModel20requestResizeColumnsEv
libsyncthingmodel.so.33:_ZN4Data19SyncthingErrorModel21handleBeforeNewErrorsERKSt6vectorINS_14SyncthingErrorESaIS2_EES6_
libsyncthingmodel.so.33:_ZN4Data19SyncthingErrorModel23handleConfigInvalidatedEv
libsyncthingmodel.so.33:_ZN4Data19SyncthingErrorModel24handleNewConfigAvailableEv
libsyncthingmodel.so.33:_ZN4Data19SyncthingErrorModel29handleForkAwesomeIconsChangedEv
libsyncthingmodel.so.33:_ZN4Data19SyncthingErrorModel7setDataERK11QModelIndexRK8QVarianti
libsyncthingmodel.so.33:_ZN4Data19SyncthingErrorModelC1ERNS_19SyncthingConnectionEP7QObject
libsyncthingmodel.so.33:_ZN4Data19SyncthingErrorModelC2ERNS_19SyncthingConnectionEP7QObject
libsyncthingmodel.so.33:_ZN4Data20SyncthingDeviceModel11qt_metacallEN11QMetaObject4CallEiPPv
libsyncthingmodel.so.33:_ZN4Data20SyncthingDeviceModel11qt_metacastEPKc
libsyncthingmodel.so.33:_ZN4Data20SyncthingDeviceModel14updateRowCountEv
libsyncthingmodel.so.33:_ZN4Data20SyncthingDeviceModel16devStatusChangedERKNS_12SyncthingDevEi
libsyncthingmodel.so.33:_ZN4Data20SyncthingDeviceModel16staticMetaObjectE
libsyncthingmodel.so.33:_ZN4Data20SyncthingDeviceModel23handleConfigInvalidatedEv
libsyncthingmodel.so.33:_ZN4Data20SyncthingDeviceModel24handleNewConfigAvailableEv
libsyncthingmodel.so.33:_ZN4Data20SyncthingDeviceModel24handleStatusIconsChangedEv
libsyncthingmodel.so.33:_ZN4Data20SyncthingDeviceModel29handleForkAwesomeIconsChangedEv
libsyncthingmodel.so.33:_ZN4Data20SyncthingDeviceModel7setDataERK11QModelIndexRK8QVarianti
libsyncthingmodel.so.33:_ZN4Data20SyncthingDeviceModelC1ERNS_19SyncthingConnectionEP7QObject
libsyncthingmodel.so.33:_ZN4Data20SyncthingDeviceModelC2ERNS_19SyncthingConnectionEP7QObject
libsyncthingmodel.so.33:_ZN4Data22SyncthingDownloadModel10PendingDirC1EPKNS_12SyncthingDirEj
libsyncthingmodel.so.33:_ZN4Data22SyncthingDownloadModel10PendingDirC2EPKNS_12SyncthingDirEj
libsyncthingmodel.so.33:_ZN4Data22SyncthingDownloadModel11qt_metacallEN11QMetaObject4CallEiPPv
libsyncthingmodel.so.33:_ZN4Data22SyncthingDownloadModel11qt_metacastEPKc
libsyncthingmodel.so.33:_ZN4Data22SyncthingDownloadModel16staticMetaObjectE
libsyncthingmodel.so.33:_ZN4Data22SyncthingDownloadModel23downloadProgressChangedEv
libsyncthingmodel.so.33:_ZN4Data22SyncthingDownloadModel23handleConfigInvalidatedEv
libsyncthingmodel.so.33:_ZN4Data22SyncthingDownloadModel23pendingDownloadsChangedEj
libsyncthingmodel.so.33:_ZN4Data22SyncthingDownloadModel24handleNewConfigAvailableEv
libsyncthingmodel.so.33:_ZN4Data22SyncthingDownloadModel7setDataERK11QModelIndexRK8QVarianti
libsyncthingmodel.so.33:_ZN4Data22SyncthingDownloadModelC1ERNS_19SyncthingConnectionEP7QObject
libsyncthingmodel.so.33:_ZN4Data22SyncthingDownloadModelC2ERNS_19SyncthingConnectionEP7QObject
libsyncthingmodel.so.33:_ZN4Data22aboutDialogAttributionEv
libsyncthingmodel.so.33:_ZN4Data23SyncthingDirectoryModel11qt_metacallEN11QMetaObject4CallEiPPv
libsyncthingmodel.so.33:_ZN4Data23SyncthingDirectoryModel11qt_metacastEPKc
libsyncthingmodel.so.33:_ZN4Data23SyncthingDirectoryModel14setSdCardPathsERK5QListI7QStringE
libsyncthingmodel.so.33:_ZN4Data23SyncthingDirectoryModel14updateRowCountEv
libsyncthingmodel.so.33:_ZN4Data23SyncthingDirectoryModel16dirStatusChangedERKNS_12SyncthingDirEi
libsyncthingmodel.so.33:_ZN4Data23SyncthingDirectoryModel16staticMetaObjectE
libsyncthingmodel.so.33:_ZN4Data23SyncthingDirectoryModel23handleConfigInvalidatedEv
libsyncthingmodel.so.33:_ZN4Data23SyncthingDirectoryModel24handleNewConfigAvailableEv
libsyncthingmodel.so.33:_ZN4Data23SyncthingDirectoryModel24handleStatusIconsChangedEv
libsyncthingmodel.so.33:_ZN4Data23SyncthingDirectoryModel29handleForkAwesomeIconsChangedEv
libsyncthingmodel.so.33:_ZN4Data23SyncthingDirectoryModel7setDataERK11QModelIndexRK8QVarianti
libsyncthingmodel.so.33:_ZN4Data23SyncthingDirectoryModelC1ERNS_19SyncthingConnectionEP7QObject
libsyncthingmodel.so.33:_ZN4Data23SyncthingDirectoryModelC2ERNS_19SyncthingConnectionEP7QObject
libsyncthingmodel.so.33:_ZN4Data24SyncthingSortFilterModel11qt_metacallEN11QMetaObject4CallEiPPv
libsyncthingmodel.so.33:_ZN4Data24SyncthingSortFilterModel11qt_metacastEPKc
libsyncthingmodel.so.33:_ZN4Data24SyncthingSortFilterModel16staticMetaObjectE
libsyncthingmodel.so.33:_ZN4Data27SyncthingRecentChangesModel10setMaxRowsEi
libsyncthingmodel.so.33:_ZN4Data27SyncthingRecentChangesModel11fileChangedERKNS_12SyncthingDirEiRKNS_19SyncthingFileChangeE
libsyncthingmodel.so.33:_ZN4Data27SyncthingRecentChangesModel11qt_metacallEN11QMetaObject4CallEiPPv
libsyncthingmodel.so.33:_ZN4Data27SyncthingRecentChangesModel11qt_metacastEPKc
libsyncthingmodel.so.33:_ZN4Data27SyncthingRecentChangesModel16staticMetaObjectE
libsyncthingmodel.so.33:_ZN4Data27SyncthingRecentChangesModel17ensureWithinLimitEv
libsyncthingmodel.so.33:_ZN4Data27SyncthingRecentChangesModel19handleStatusChangedENS_15SyncthingStatusE
libsyncthingmodel.so.33:_ZN4Data27SyncthingRecentChangesModel23handleConfigInvalidatedEv
libsyncthingmodel.so.33:_ZN4Data27SyncthingRecentChangesModel24handleNewConfigAvailableEv
libsyncthingmodel.so.33:_ZN4Data27SyncthingRecentChangesModel29handleForkAwesomeIconsChangedEv
libsyncthingmodel.so.33:_ZN4Data27SyncthingRecentChangesModel7setDataERK11QModelIndexRK8QVarianti
libsyncthingmodel.so.33:_ZN4Data27SyncthingRecentChangesModelC1ERNS_19SyncthingConnectionEiP7QObject
libsyncthingmodel.so.33:_ZN4Data27SyncthingRecentChangesModelC2ERNS_19SyncthingConnectionEiP7QObject
libsyncthingmodel.so.33:_ZN4Data28setForkAwesomeThemeOverridesEv
libsyncthingmodel.so.33:_ZN4Data29SyncthingStatusComputionModel11qt_metacallEN11QMetaObject4CallEiPPv
libsyncthingmodel.so.33:_ZN4Data29SyncthingStatusComputionModel11qt_metacastEPKc
libsyncthingmodel.so.33:_ZN4Data29SyncthingStatusComputionModel16staticMetaObjectE
libsyncthingmodel.so.33:_ZN4Data29SyncthingStatusComputionModel23setStatusComputionFlagsENS_29SyncthingStatusComputionFlagsE
libsyncthingmodel.so.33:_ZN4Data29SyncthingStatusComputionModelC1EP7QObject
libsyncthingmodel.so.33:_ZN4Data29SyncthingStatusComputionModelC2EP7QObject
libsyncthingmodel.so.33:_ZN4Data29SyncthingStatusSelectionModel11qt_metacallEN11QMetaObject4CallEiPPv
libsyncthingmodel.so.33:_ZN4Data29SyncthingStatusSelectionModel11qt_metacastEPKc
libsyncthingmodel.so.33:_ZN4Data29SyncthingStatusSelectionModel16staticMetaObjectE
libsyncthingmodel.so.33:_ZN4Data29SyncthingStatusSelectionModelC1EP7QObject
libsyncthingmodel.so.33:_ZN4Data29SyncthingStatusSelectionModelC2EP7QObject
libsyncthingmodel.so.33:_ZNK4Data11IconManager10metaObjectEv
libsyncthingmodel.so.33:_ZNK4Data11IconManager21renderForkAwesomeIconEN13QtForkAwesome4IconEP8QPainterRK5QRect
libsyncthingmodel.so.33:_ZNK4Data14SyncthingModel10colorRolesEv
libsyncthingmodel.so.33:_ZNK4Data14SyncthingModel10metaObjectEv
libsyncthingmodel.so.33:_ZNK4Data14SyncthingModel11columnCountERK11QModelIndex
libsyncthingmodel.so.33:_ZNK4Data16RejectableAction10metaObjectEv
libsyncthingmodel.so.33:_ZNK4Data18StatusIconSettings8toStringEv
libsyncthingmodel.so.33:_ZNK4Data18SyncthingFileModel10headerDataEiN2Qt11OrientationEi
libsyncthingmodel.so.33:_ZNK4Data18SyncthingFileModel10metaObjectEv
libsyncthingmodel.so.33:_ZNK4Data18SyncthingFileModel11columnCountERK11QModelIndex
libsyncthingmodel.so.33:_ZNK4Data18SyncthingFileModel12canFetchMoreERK11QModelIndex
libsyncthingmodel.so.33:_ZNK4Data18SyncthingFileModel16availabilityNoteEPKNS_13SyncthingItemE
libsyncthingmodel.so.33:_ZNK4Data18SyncthingFileModel24computeNewIgnorePatternsEv
libsyncthingmodel.so.33:_ZNK4Data18SyncthingFileModel30matchItemAgainstIgnorePatternsERNS_13SyncthingItemE
libsyncthingmodel.so.33:_ZNK4Data18SyncthingFileModel4dataERK11QModelIndexi
libsyncthingmodel.so.33:_ZNK4Data18SyncthingFileModel4pathERK11QModelIndex
libsyncthingmodel.so.33:_ZNK4Data18SyncthingFileModel5flagsERK11QModelIndex
libsyncthingmodel.so.33:_ZNK4Data18SyncthingFileModel5indexERK7QString
libsyncthingmodel.so.33:_ZNK4Data18SyncthingFileModel5indexEiiRK11QModelIndex
libsyncthingmodel.so.33:_ZNK4Data18SyncthingFileModel6parentERK11QModelIndex
libsyncthingmodel.so.33:_ZNK4Data18SyncthingFileModel8rowCountERK11QModelIndex
libsyncthingmodel.so.33:_ZNK4Data18SyncthingFileModel9roleNamesEv
libsyncthingmodel.so.33:_ZNK4Data19SyncthingErrorModel10colorRolesEv
libsyncthingmodel.so.33:_ZNK4Data19SyncthingErrorModel10headerDataEiN2Qt11OrientationEi
libsyncthingmodel.so.33:_ZNK4Data19SyncthingErrorModel10metaObjectEv
libsyncthingmodel.so.33:_ZNK4Data19SyncthingErrorModel11columnCountERK11QModelIndex
libsyncthingmodel.so.33:_ZNK4Data19SyncthingErrorModel4dataERK11QModelIndexi
libsyncthingmodel.so.33:_ZNK4Data19SyncthingErrorModel5indexEiiRK11QModelIndex
libsyncthingmodel.so.33:_ZNK4Data19SyncthingErrorModel6parentERK11QModelIndex
libsyncthingmodel.so.33:_ZNK4Data19SyncthingErrorModel8rowCountERK11QModelIndex
libsyncthingmodel.so.33:_ZNK4Data19SyncthingErrorModel9roleNamesEv
libsyncthingmodel.so.33:_ZNK4Data20SyncthingDeviceModel10colorRolesEv
libsyncthingmodel.so.33:_ZNK4Data20SyncthingDeviceModel10headerDataEiN2Qt11OrientationEi
libsyncthingmodel.so.33:_ZNK4Data20SyncthingDeviceModel10metaObjectEv
libsyncthingmodel.so.33:_ZNK4Data20SyncthingDeviceModel14devStatusColorERKNS_12SyncthingDevE
libsyncthingmodel.so.33:_ZNK4Data20SyncthingDeviceModel4dataERK11QModelIndexi
libsyncthingmodel.so.33:_ZNK4Data20SyncthingDeviceModel5indexEiiRK11QModelIndex
libsyncthingmodel.so.33:_ZNK4Data20SyncthingDeviceModel6parentERK11QModelIndex
libsyncthingmodel.so.33:_ZNK4Data20SyncthingDeviceModel7devInfoERK11QModelIndex
libsyncthingmodel.so.33:_ZNK4Data20SyncthingDeviceModel8rowCountERK11QModelIndex
libsyncthingmodel.so.33:_ZNK4Data20SyncthingDeviceModel9roleNamesEv
libsyncthingmodel.so.33:_ZNK4Data22SyncthingDownloadModel10PendingDireqEPKNS_12SyncthingDirE
libsyncthingmodel.so.33:_ZNK4Data22SyncthingDownloadModel10headerDataEiN2Qt11OrientationEi
libsyncthingmodel.so.33:_ZNK4Data22SyncthingDownloadModel10metaObjectEv
libsyncthingmodel.so.33:_ZNK4Data22SyncthingDownloadModel12progressInfoERK11QModelIndex
libsyncthingmodel.so.33:_ZNK4Data22SyncthingDownloadModel4dataERK11QModelIndexi
libsyncthingmodel.so.33:_ZNK4Data22SyncthingDownloadModel5indexEiiRK11QModelIndex
libsyncthingmodel.so.33:_ZNK4Data22SyncthingDownloadModel6parentERK11QModelIndex
libsyncthingmodel.so.33:_ZNK4Data22SyncthingDownloadModel7dirInfoERK11QModelIndex
libsyncthingmodel.so.33:_ZNK4Data22SyncthingDownloadModel8rowCountERK11QModelIndex
libsyncthingmodel.so.33:_ZNK4Data22SyncthingDownloadModel9roleNamesEv
libsyncthingmodel.so.33:_ZNK4Data23SyncthingDirectoryModel10colorRolesEv
libsyncthingmodel.so.33:_ZNK4Data23SyncthingDirectoryModel10headerDataEiN2Qt11OrientationEi
libsyncthingmodel.so.33:_ZNK4Data23SyncthingDirectoryModel10metaObjectEv
libsyncthingmodel.so.33:_ZNK4Data23SyncthingDirectoryModel14dirStatusColorERKNS_12SyncthingDirE
libsyncthingmodel.so.33:_ZNK4Data23SyncthingDirectoryModel4dataERK11QModelIndexi
libsyncthingmodel.so.33:_ZNK4Data23SyncthingDirectoryModel5indexEiiRK11QModelIndex
libsyncthingmodel.so.33:_ZNK4Data23SyncthingDirectoryModel6parentERK11QModelIndex
libsyncthingmodel.so.33:_ZNK4Data23SyncthingDirectoryModel7dirInfoERK11QModelIndex
libsyncthingmodel.so.33:_ZNK4Data23SyncthingDirectoryModel8rowCountERK11QModelIndex
libsyncthingmodel.so.33:_ZNK4Data23SyncthingDirectoryModel9roleNamesEv
libsyncthingmodel.so.33:_ZNK4Data24SyncthingSortFilterModel10metaObjectEv
libsyncthingmodel.so.33:_ZNK4Data24SyncthingSortFilterModel16filterAcceptsRowEiRK11QModelIndex
libsyncthingmodel.so.33:_ZNK4Data24SyncthingSortFilterModel8lessThanERK11QModelIndexS3_
libsyncthingmodel.so.33:_ZNK4Data27SyncthingRecentChangesModel10colorRolesEv
libsyncthingmodel.so.33:_ZNK4Data27SyncthingRecentChangesModel10headerDataEiN2Qt11OrientationEi
libsyncthingmodel.so.33:_ZNK4Data27SyncthingRecentChangesModel10metaObjectEv
libsyncthingmodel.so.33:_ZNK4Data27SyncthingRecentChangesModel11columnCountERK11QModelIndex
libsyncthingmodel.so.33:_ZNK4Data27SyncthingRecentChangesModel4dataERK11QModelIndexi
libsyncthingmodel.so.33:_ZNK4Data27SyncthingRecentChangesModel5indexEiiRK11QModelIndex
libsyncthingmodel.so.33:_ZNK4Data27SyncthingRecentChangesModel6parentERK11QModelIndex
libsyncthingmodel.so.33:_ZNK4Data27SyncthingRecentChangesModel8rowCountERK11QModelIndex
libsyncthingmodel.so.33:_ZNK4Data27SyncthingRecentChangesModel9roleNamesEv
libsyncthingmodel.so.33:_ZNK4Data29SyncthingStatusComputionModel10labelForIdERK8QVariant
libsyncthingmodel.so.33:_ZNK4Data29SyncthingStatusComputionModel10metaObjectEv
libsyncthingmodel.so.33:_ZNK4Data29SyncthingStatusComputionModel20statusComputionFlagsEv
libsyncthingmodel.so.33:_ZNK4Data29SyncthingStatusSelectionModel10labelForIdERK8QVariant
libsyncthingmodel.so.33:_ZNK4Data29SyncthingStatusSelectionModel10metaObjectEv
libsyncthingmodel.so.33:_ZTIN4Data11IconManagerE
libsyncthingmodel.so.33:_ZTIN4Data14SyncthingModelE
libsyncthingmodel.so.33:_ZTIN4Data16RejectableActionE
libsyncthingmodel.so.33:_ZTIN4Data18SyncthingFileModelE
libsyncthingmodel.so.33:_ZTIN4Data19SyncthingErrorModelE
libsyncthingmodel.so.33:_ZTIN4Data20SyncthingDeviceModelE
libsyncthingmodel.so.33:_ZTIN4Data22SyncthingDownloadModelE
libsyncthingmodel.so.33:_ZTIN4Data23SyncthingDirectoryModelE
libsyncthingmodel.so.33:_ZTIN4Data24SyncthingSortFilterModelE
libsyncthingmodel.so.33:_ZTIN4Data27SyncthingRecentChangesModelE
libsyncthingmodel.so.33:_ZTIN4Data29SyncthingStatusComputionModelE
libsyncthingmodel.so.33:_ZTIN4Data29SyncthingStatusSelectionModelE
libsyncthingmodel.so.33:_ZTSN4Data11IconManagerE
libsyncthingmodel.so.33:_ZTSN4Data14SyncthingModelE
libsyncthingmodel.so.33:_ZTSN4Data16RejectableActionE
libsyncthingmodel.so.33:_ZTSN4Data18SyncthingFileModelE
libsyncthingmodel.so.33:_ZTSN4Data19SyncthingErrorModelE
libsyncthingmodel.so.33:_ZTSN4Data20SyncthingDeviceModelE
libsyncthingmodel.so.33:_ZTSN4Data22SyncthingDownloadModelE
libsyncthingmodel.so.33:_ZTSN4Data23SyncthingDirectoryModelE
libsyncthingmodel.so.33:_ZTSN4Data24SyncthingSortFilterModelE
libsyncthingmodel.so.33:_ZTSN4Data27SyncthingRecentChangesModelE
libsyncthingmodel.so.33:_ZTSN4Data29SyncthingStatusComputionModelE
libsyncthingmodel.so.33:_ZTSN4Data29SyncthingStatusSelectionModelE
libsyncthingmodel.so.33:_ZTVN4Data11IconManagerE
libsyncthingmodel.so.33:_ZTVN4Data14SyncthingModelE
libsyncthingmodel.so.33:_ZTVN4Data16RejectableActionE
libsyncthingmodel.so.33:_ZTVN4Data18SyncthingFileModelE
libsyncthingmodel.so.33:_ZTVN4Data19SyncthingErrorModelE
libsyncthingmodel.so.33:_ZTVN4Data20SyncthingDeviceModelE
libsyncthingmodel.so.33:_ZTVN4Data22SyncthingDownloadModelE
libsyncthingmodel.so.33:_ZTVN4Data23SyncthingDirectoryModelE
libsyncthingmodel.so.33:_ZTVN4Data24SyncthingSortFilterModelE
libsyncthingmodel.so.33:_ZTVN4Data27SyncthingRecentChangesModelE
libsyncthingmodel.so.33:_ZTVN4Data29SyncthingStatusComputionModelE
libsyncthingmodel.so.33:_ZTVN4Data29SyncthingStatusSelectionModelE
libsyncthingwidgets.so.33:_ZN4Data17SyncthingLauncher10exitLoggedESt17basic_string_viewIcSt11char_traitsIcEE
libsyncthingwidgets.so.33:_ZN4Data17SyncthingLauncher10resetStateEv
libsyncthingwidgets.so.33:_ZN4Data17SyncthingLauncher10setRunningEbRK7QStringRK5QListIS1_E
libsyncthingwidgets.so.33:_ZN4Data17SyncthingLauncher11confirmKillEv
libsyncthingwidgets.so.33:_ZN4Data17SyncthingLauncher11qt_metacallEN11QMetaObject4CallEiPPv
libsyncthingwidgets.so.33:_ZN4Data17SyncthingLauncher11qt_metacastEPKc
libsyncthingwidgets.so.33:_ZN4Data17SyncthingLauncher13errorOccurredEN8QProcess12ProcessErrorE
libsyncthingwidgets.so.33:_ZN4Data17SyncthingLauncher13guiUrlChangedERK4QUrl
libsyncthingwidgets.so.33:_ZN4Data17SyncthingLauncher14runningChangedEb
libsyncthingwidgets.so.33:_ZN4Data17SyncthingLauncher14s_mainInstanceE
libsyncthingwidgets.so.33:_ZN4Data17SyncthingLauncher15outputAvailableERK10QByteArray
libsyncthingwidgets.so.33:_ZN4Data17SyncthingLauncher15startingChangedEv
libsyncthingwidgets.so.33:_ZN4Data17SyncthingLauncher16staticMetaObjectE
libsyncthingwidgets.so.33:_ZN4Data17SyncthingLauncher16stopLibSyncthingEv
libsyncthingwidgets.so.33:_ZN4Data17SyncthingLauncher17setEmittingOutputEb
libsyncthingwidgets.so.33:_ZN4Data17SyncthingLauncher20tearDownLibSyncthingEv
libsyncthingwidgets.so.33:_ZN4Data17SyncthingLauncher21handleOutputAvailableEiRK10QByteArray
libsyncthingwidgets.so.33:_ZN4Data17SyncthingLauncher21handleProcessFinishedEiN8QProcess10ExitStatusE
libsyncthingwidgets.so.33:_ZN4Data17SyncthingLauncher22handleProcessReadyReadEv
libsyncthingwidgets.so.33:_ZN4Data17SyncthingLauncher23isLibSyncthingAvailableEv
libsyncthingwidgets.so.33:_ZN4Data17SyncthingLauncher23libSyncthingVersionInfoEv
libsyncthingwidgets.so.33:_ZN4Data17SyncthingLauncher25handleProcessStateChangedEN8QProcess12ProcessStateE
libsyncthingwidgets.so.33:_ZN4Data17SyncthingLauncher27setNetworkConnectionMeteredESt8optionalIbE
libsyncthingwidgets.so.33:_ZN4Data17SyncthingLauncher28showLibSyncthingNotSupportedEO10QByteArray
libsyncthingwidgets.so.33:_ZN4Data17SyncthingLauncher30setStoppingOnMeteredConnectionEb
libsyncthingwidgets.so.33:_ZN4Data17SyncthingLauncher31networkConnectionMeteredChangedESt8optionalIbE
libsyncthingwidgets.so.33:_ZN4Data17SyncthingLauncher31terminateDueToMeteredConnectionEv
libsyncthingwidgets.so.33:_ZN4Data17SyncthingLauncher43shouldBeRunningAccordingToRuntimeConditionsEb
libsyncthingwidgets.so.33:_ZN4Data17SyncthingLauncher4killEv
libsyncthingwidgets.so.33:_ZN4Data17SyncthingLauncher6exitedEiN8QProcess10ExitStatusE
libsyncthingwidgets.so.33:_ZN4Data17SyncthingLauncher6launchERK7QStringRK5QListIS1_E
libsyncthingwidgets.so.33:_ZN4Data17SyncthingLauncher6launchERKN8Settings8LauncherE
libsyncthingwidgets.so.33:_ZN4Data17SyncthingLauncher9terminateEPNS_19SyncthingConnectionE
libsyncthingwidgets.so.33:_ZN4Data17SyncthingLauncherC1EP7QObject
libsyncthingwidgets.so.33:_ZN4Data17SyncthingLauncherC2EP7QObject
libsyncthingwidgets.so.33:_ZN4Data17SyncthingLauncherD0Ev
libsyncthingwidgets.so.33:_ZN4Data17SyncthingLauncherD1Ev
libsyncthingwidgets.so.33:_ZN4Data17SyncthingLauncherD2Ev
libsyncthingwidgets.so.33:_ZN5QtGui10StatusInfo22updateConnectedDevicesERKN4Data19SyncthingConnectionE
libsyncthingwidgets.so.33:_ZN5QtGui10StatusInfo22updateConnectionStatusERKN4Data19SyncthingConnectionERK7QString
libsyncthingwidgets.so.33:_ZN5QtGui10StatusInfo29recomputeAdditionalStatusTextEv
libsyncthingwidgets.so.33:_ZN5QtGui10StatusInfoC1Ebb
libsyncthingwidgets.so.33:_ZN5QtGui10StatusInfoC2Ebb
libsyncthingwidgets.so.33:_ZN5QtGui13InternalError10isRelevantERKN4Data19SyncthingConnectionENS1_22SyncthingErrorCategoryERK7QStringibb
libsyncthingwidgets.so.33:_ZN5QtGui13InternalError16staticMetaObjectE
libsyncthingwidgets.so.33:_ZN5QtGui13WebViewDialog10closeEventEP11QCloseEvent
libsyncthingwidgets.so.33:_ZN5QtGui13WebViewDialog11eventFilterEP7QObjectP6QEvent
libsyncthingwidgets.so.33:_ZN5QtGui13WebViewDialog11qt_metacallEN11QMetaObject4CallEiPPv
libsyncthingwidgets.so.33:_ZN5QtGui13WebViewDialog11qt_metacastEPKc
libsyncthingwidgets.so.33:_ZN5QtGui13WebViewDialog13applySettingsERKN4Data27SyncthingConnectionSettingsEbPNS1_19SyncthingConnectionE
libsyncthingwidgets.so.33:_ZN5QtGui13WebViewDialog13keyPressEventEP9QKeyEvent
libsyncthingwidgets.so.33:_ZN5QtGui13WebViewDialog16staticMetaObjectE
libsyncthingwidgets.so.33:_ZN5QtGui13WebViewDialog23closeUnlessModalVisibleEv
libsyncthingwidgets.so.33:_ZN5QtGui13WebViewDialogC1EP7QWidget
libsyncthingwidgets.so.33:_ZN5QtGui13WebViewDialogC2EP7QWidget
libsyncthingwidgets.so.33:_ZN5QtGui13WebViewDialogD0Ev
libsyncthingwidgets.so.33:_ZN5QtGui13WebViewDialogD1Ev
libsyncthingwidgets.so.33:_ZN5QtGui13WebViewDialogD2Ev
libsyncthingwidgets.so.33:_ZN5QtGui14SettingsDialog11qt_metacallEN11QMetaObject4CallEiPPv
libsyncthingwidgets.so.33:_ZN5QtGui14SettingsDialog11qt_metacastEPKc
libsyncthingwidgets.so.33:_ZN5QtGui14SettingsDialog15wizardRequestedEv
libsyncthingwidgets.so.33:_ZN5QtGui14SettingsDialog16s_restartHandlerE
libsyncthingwidgets.so.33:_ZN5QtGui14SettingsDialog16staticMetaObjectE
libsyncthingwidgets.so.33:_ZN5QtGui14SettingsDialog20hideConnectionStatusEv
libsyncthingwidgets.so.33:_ZN5QtGui14SettingsDialog20selectUpdateSettingsEv
libsyncthingwidgets.so.33:_ZN5QtGui14SettingsDialog22selectLauncherSettingsEv
libsyncthingwidgets.so.33:_ZN5QtGui14SettingsDialog24resetPositioningSettingsEv
libsyncthingwidgets.so.33:_ZN5QtGui14SettingsDialog25respawnIfRestartRequestedEv
libsyncthingwidgets.so.33:_ZN5QtGui14SettingsDialog4initEv
libsyncthingwidgets.so.33:_ZN5QtGui14SettingsDialogC1EP7QWidget
libsyncthingwidgets.so.33:_ZN5QtGui14SettingsDialogC1EPN4Data19SyncthingConnectionEP7QWidget
libsyncthingwidgets.so.33:_ZN5QtGui14SettingsDialogC1ERK5QListIPN11QtUtilities14OptionCategoryEEP7QWidget
libsyncthingwidgets.so.33:_ZN5QtGui14SettingsDialogC2EP7QWidget
libsyncthingwidgets.so.33:_ZN5QtGui14SettingsDialogC2EPN4Data19SyncthingConnectionEP7QWidget
libsyncthingwidgets.so.33:_ZN5QtGui14SettingsDialogC2ERK5QListIPN11QtUtilities14OptionCategoryEEP7QWidget
libsyncthingwidgets.so.33:_ZN5QtGui14SettingsDialogD0Ev
libsyncthingwidgets.so.33:_ZN5QtGui14SettingsDialogD1Ev
libsyncthingwidgets.so.33:_ZN5QtGui14SettingsDialogD2Ev
libsyncthingwidgets.so.33:_ZN5QtGui14SetupDetection11qt_metacallEN11QMetaObject4CallEiPPv
libsyncthingwidgets.so.33:_ZN5QtGui14SetupDetection11qt_metacastEPKc
libsyncthingwidgets.so.33:_ZN5QtGui14SetupDetection13handleTimeoutEv
libsyncthingwidgets.so.33:_ZN5QtGui14SetupDetection13restoreConfigEv
libsyncthingwidgets.so.33:_ZN5QtGui14SetupDetection14determinePathsEv
libsyncthingwidgets.so.33:_ZN5QtGui14SetupDetection14initConnectionEv
libsyncthingwidgets.so.33:_ZN5QtGui14SetupDetection16staticMetaObjectE
libsyncthingwidgets.so.33:_ZN5QtGui14SetupDetection18handleLauncherExitEiN8QProcess10ExitStatusE
libsyncthingwidgets.so.33:_ZN5QtGui14SetupDetection19handleLauncherErrorEN8QProcess12ProcessErrorE
libsyncthingwidgets.so.33:_ZN5QtGui14SetupDetection20handleLauncherOutputERK10QByteArray
libsyncthingwidgets.so.33:_ZN5QtGui14SetupDetection21handleConnectionErrorERK7QString
libsyncthingwidgets.so.33:_ZN5QtGui14SetupDetection4doneEv
libsyncthingwidgets.so.33:_ZN5QtGui14SetupDetection5resetEv
libsyncthingwidgets.so.33:_ZN5QtGui14SetupDetection9checkDoneEv
libsyncthingwidgets.so.33:_ZN5QtGui14SetupDetection9startTestEv
libsyncthingwidgets.so.33:_ZN5QtGui14SetupDetectionC1EP7QObject
libsyncthingwidgets.so.33:_ZN5QtGui14SetupDetectionC2EP7QObject
libsyncthingwidgets.so.33:_ZN5QtGui14TextViewDialog10closeEventEP11QCloseEvent
libsyncthingwidgets.so.33:_ZN5QtGui14TextViewDialog11qt_metacallEN11QMetaObject4CallEiPPv
libsyncthingwidgets.so.33:_ZN5QtGui14TextViewDialog11qt_metacastEPKc
libsyncthingwidgets.so.33:_ZN5QtGui14TextViewDialog13forLogEntriesERKSt6vectorIN4Data17SyncthingLogEntryESaIS3_EERK7QString
libsyncthingwidgets.so.33:_ZN5QtGui14TextViewDialog13forLogEntriesERN4Data19SyncthingConnectionEP7QObject
libsyncthingwidgets.so.33:_ZN5QtGui14TextViewDialog13keyPressEventEP9QKeyEvent
libsyncthingwidgets.so.33:_ZN5QtGui14TextViewDialog14showLogEntriesERKSt6vectorIN4Data17SyncthingLogEntryESaIS3_EE
libsyncthingwidgets.so.33:_ZN5QtGui14TextViewDialog16staticMetaObjectE
libsyncthingwidgets.so.33:_ZN5QtGui14TextViewDialog4saveEv
libsyncthingwidgets.so.33:_ZN5QtGui14TextViewDialog6reloadEv
libsyncthingwidgets.so.33:_ZN5QtGui14TextViewDialogC1ERK7QStringP7QWidget
libsyncthingwidgets.so.33:_ZN5QtGui14TextViewDialogC2ERK7QStringP7QWidget
libsyncthingwidgets.so.33:_ZN5QtGui15ApplyWizardPage11qt_metacallEN11QMetaObject4CallEiPPv
libsyncthingwidgets.so.33:_ZN5QtGui15ApplyWizardPage11qt_metacastEPKc
libsyncthingwidgets.so.33:_ZN5QtGui15ApplyWizardPage12validatePageEv
libsyncthingwidgets.so.33:_ZN5QtGui15ApplyWizardPage14initializePageEv
libsyncthingwidgets.so.33:_ZN5QtGui15ApplyWizardPage16staticMetaObjectE
libsyncthingwidgets.so.33:_ZN5QtGui15ApplyWizardPageC1EP7QWidget
libsyncthingwidgets.so.33:_ZN5QtGui15ApplyWizardPageC2EP7QWidget
libsyncthingwidgets.so.33:_ZN5QtGui15ApplyWizardPageD0Ev
libsyncthingwidgets.so.33:_ZN5QtGui15ApplyWizardPageD1Ev
libsyncthingwidgets.so.33:_ZN5QtGui15ApplyWizardPageD2Ev
libsyncthingwidgets.so.33:_ZN5QtGui15DiffHighlighter11qt_metacallEN11QMetaObject4CallEiPPv
libsyncthingwidgets.so.33:_ZN5QtGui15DiffHighlighter11qt_metacastEPKc
libsyncthingwidgets.so.33:_ZN5QtGui15DiffHighlighter14highlightBlockERK7QString
libsyncthingwidgets.so.33:_ZN5QtGui15DiffHighlighter16staticMetaObjectE
libsyncthingwidgets.so.33:_ZN5QtGui15DiffHighlighterC1EP13QTextDocument
libsyncthingwidgets.so.33:_ZN5QtGui15DiffHighlighterC2EP13QTextDocument
libsyncthingwidgets.so.33:_ZN5QtGui15FinalWizardPage11qt_metacallEN11QMetaObject4CallEiPPv
libsyncthingwidgets.so.33:_ZN5QtGui15FinalWizardPage11qt_metacastEPKc
libsyncthingwidgets.so.33:_ZN5QtGui15FinalWizardPage11showResultsEv
libsyncthingwidgets.so.33:_ZN5QtGui15FinalWizardPage12validatePageEv
libsyncthingwidgets.so.33:_ZN5QtGui15FinalWizardPage14initializePageEv
libsyncthingwidgets.so.33:_ZN5QtGui15FinalWizardPage16staticMetaObjectE
libsyncthingwidgets.so.33:_ZN5QtGui15FinalWizardPage19handleLinkActivatedERK7QString
libsyncthingwidgets.so.33:_ZN5QtGui15FinalWizardPageC1EP7QWidget
libsyncthingwidgets.so.33:_ZN5QtGui15FinalWizardPageC2EP7QWidget
libsyncthingwidgets.so.33:_ZN5QtGui15FinalWizardPageD0Ev
libsyncthingwidgets.so.33:_ZN5QtGui15FinalWizardPageD1Ev
libsyncthingwidgets.so.33:_ZN5QtGui15FinalWizardPageD2Ev
libsyncthingwidgets.so.33:_ZN5QtGui15IconsOptionPage11setupWidgetEv
libsyncthingwidgets.so.33:_ZN5QtGui15IconsOptionPage5applyEv
libsyncthingwidgets.so.33:_ZN5QtGui15IconsOptionPage5resetEv
libsyncthingwidgets.so.33:_ZN5QtGui15IconsOptionPage6updateEb
libsyncthingwidgets.so.33:_ZN5QtGui15IconsOptionPageC1ENS0_7ContextEP7QWidget
libsyncthingwidgets.so.33:_ZN5QtGui15IconsOptionPageC2ENS0_7ContextEP7QWidget
libsyncthingwidgets.so.33:_ZN5QtGui15IconsOptionPageD0Ev
libsyncthingwidgets.so.33:_ZN5QtGui15IconsOptionPageD1Ev
libsyncthingwidgets.so.33:_ZN5QtGui15IconsOptionPageD2Ev
libsyncthingwidgets.so.33:_ZN5QtGui15SyncthingKiller11qt_metacallEN11QMetaObject4CallEiPPv
libsyncthingwidgets.so.33:_ZN5QtGui15SyncthingKiller11qt_metacastEPKc
libsyncthingwidgets.so.33:_ZN5QtGui15SyncthingKiller15waitForFinishedEv
libsyncthingwidgets.so.33:_ZN5QtGui15SyncthingKiller16staticMetaObjectE
libsyncthingwidgets.so.33:_ZN5QtGui15SyncthingKiller7ignoredEv
libsyncthingwidgets.so.33:_ZN5QtGui15SyncthingKillerC1EOSt6vectorINS_21ProcessWithConnectionESaIS2_EE
libsyncthingwidgets.so.33:_ZN5QtGui15SyncthingKillerC2EOSt6vectorINS_21ProcessWithConnectionESaIS2_EE
libsyncthingwidgets.so.33:_ZN5QtGui16documentationUrlEv
libsyncthingwidgets.so.33:_ZN5QtGui16setAutostartPathERK7QString
libsyncthingwidgets.so.33:_ZN5QtGui17SystemdOptionPage11setupWidgetEv
libsyncthingwidgets.so.33:_ZN5QtGui17SystemdOptionPage12updateColorsEv
libsyncthingwidgets.so.33:_ZN5QtGui17SystemdOptionPage18updateEnabledColorEv
libsyncthingwidgets.so.33:_ZN5QtGui17SystemdOptionPage18updateRunningColorEv
libsyncthingwidgets.so.33:_ZN5QtGui17SystemdOptionPage19handleStatusChangedERK7QStringS3_N12CppUtilities8DateTimeE
libsyncthingwidgets.so.33:_ZN5QtGui17SystemdOptionPage20handleEnabledChangedERK7QString
libsyncthingwidgets.so.33:_ZN5QtGui17SystemdOptionPage23handleSystemUnitChangedEv
libsyncthingwidgets.so.33:_ZN5QtGui17SystemdOptionPage24handleDescriptionChangedERK7QString
libsyncthingwidgets.so.33:_ZN5QtGui17SystemdOptionPage5applyEv
libsyncthingwidgets.so.33:_ZN5QtGui17SystemdOptionPage5resetEv
libsyncthingwidgets.so.33:_ZN5QtGui17SystemdOptionPageC1EP7QWidget
libsyncthingwidgets.so.33:_ZN5QtGui17SystemdOptionPageC2EP7QWidget
libsyncthingwidgets.so.33:_ZN5QtGui17SystemdOptionPageD0Ev
libsyncthingwidgets.so.33:_ZN5QtGui17SystemdOptionPageD1Ev
libsyncthingwidgets.so.33:_ZN5QtGui17SystemdOptionPageD2Ev
libsyncthingwidgets.so.33:_ZN5QtGui17WelcomeWizardPage11qt_metacallEN11QMetaObject4CallEiPPv
libsyncthingwidgets.so.33:_ZN5QtGui17WelcomeWizardPage11qt_metacastEPKc
libsyncthingwidgets.so.33:_ZN5QtGui17WelcomeWizardPage16staticMetaObjectE
libsyncthingwidgets.so.33:_ZN5QtGui17WelcomeWizardPageC1EP7QWidget
libsyncthingwidgets.so.33:_ZN5QtGui17WelcomeWizardPageC2EP7QWidget
libsyncthingwidgets.so.33:_ZN5QtGui17ownDeviceIdDialogERN4Data19SyncthingConnectionE
libsyncthingwidgets.so.33:_ZN5QtGui17ownDeviceIdWidgetERN4Data19SyncthingConnectionEiP7QWidget
libsyncthingwidgets.so.33:_ZN5QtGui18DBusStatusNotifier11qt_metacallEN11QMetaObject4CallEiPPv
libsyncthingwidgets.so.33:_ZN5QtGui18DBusStatusNotifier11qt_metacastEPKc
libsyncthingwidgets.so.33:_ZN5QtGui18DBusStatusNotifier14webUiRequestedEv
libsyncthingwidgets.so.33:_ZN5QtGui18DBusStatusNotifier16connectRequestedEv
libsyncthingwidgets.so.33:_ZN5QtGui18DBusStatusNotifier16staticMetaObjectE
libsyncthingwidgets.so.33:_ZN5QtGui18DBusStatusNotifier21errorDetailsRequestedEv
libsyncthingwidgets.so.33:_ZN5QtGui18DBusStatusNotifier23updateSettingsRequestedEv
libsyncthingwidgets.so.33:_ZN5QtGui18DBusStatusNotifier26showNotificationsRequestedEv
libsyncthingwidgets.so.33:_ZN5QtGui18DBusStatusNotifier29dismissNotificationsRequestedEv
libsyncthingwidgets.so.33:_ZN5QtGui18DBusStatusNotifier33handleSyncthingNotificationActionERK7QString
libsyncthingwidgets.so.33:_ZN5QtGui18DBusStatusNotifier8setIconsERKN4Data11StatusIconsES4_
libsyncthingwidgets.so.33:_ZN5QtGui18DBusStatusNotifierC1EP7QObject
libsyncthingwidgets.so.33:_ZN5QtGui18DBusStatusNotifierC2EP7QObject
libsyncthingwidgets.so.33:_ZN5QtGui18LauncherOptionPage11qt_metacallEN11QMetaObject4CallEiPPv
libsyncthingwidgets.so.33:_ZN5QtGui18LauncherOptionPage11qt_metacastEPKc
libsyncthingwidgets.so.33:_ZN5QtGui18LauncherOptionPage11setupWidgetEv
libsyncthingwidgets.so.33:_ZN5QtGui18LauncherOptionPage16staticMetaObjectE
libsyncthingwidgets.so.33:_ZN5QtGui18LauncherOptionPage20handleSyncthingErrorEN8QProcess12ProcessErrorE
libsyncthingwidgets.so.33:_ZN5QtGui18LauncherOptionPage21handleSyncthingExitedEiN8QProcess10ExitStatusE
libsyncthingwidgets.so.33:_ZN5QtGui18LauncherOptionPage23handleSyncthingLaunchedEb
libsyncthingwidgets.so.33:_ZN5QtGui18LauncherOptionPage23restoreDefaultArgumentsEv
libsyncthingwidgets.so.33:_ZN5QtGui18LauncherOptionPage24handleSyncthingReadyReadEv
libsyncthingwidgets.so.33:_ZN5QtGui18LauncherOptionPage30handleSyncthingOutputAvailableERK10QByteArray
libsyncthingwidgets.so.33:_ZN5QtGui18LauncherOptionPage4stopEv
libsyncthingwidgets.so.33:_ZN5QtGui18LauncherOptionPage5applyEv
libsyncthingwidgets.so.33:_ZN5QtGui18LauncherOptionPage5resetEv
libsyncthingwidgets.so.33:_ZN5QtGui18LauncherOptionPage6launchEv
libsyncthingwidgets.so.33:_ZN5QtGui18LauncherOptionPageC1EP7QWidget
libsyncthingwidgets.so.33:_ZN5QtGui18LauncherOptionPageC1ERK7QStringS3_S3_P7QWidget
libsyncthingwidgets.so.33:_ZN5QtGui18LauncherOptionPageC2EP7QWidget
libsyncthingwidgets.so.33:_ZN5QtGui18LauncherOptionPageC2ERK7QStringS3_S3_P7QWidget
libsyncthingwidgets.so.33:_ZN5QtGui18LauncherOptionPageD0Ev
libsyncthingwidgets.so.33:_ZN5QtGui18LauncherOptionPageD1Ev
libsyncthingwidgets.so.33:_ZN5QtGui18LauncherOptionPageD2Ev
libsyncthingwidgets.so.33:_ZN5QtGui18isAutostartEnabledEv
libsyncthingwidgets.so.33:_ZN5QtGui19AutostartOptionPage11setupWidgetEv
libsyncthingwidgets.so.33:_ZN5QtGui19AutostartOptionPage5applyEv
libsyncthingwidgets.so.33:_ZN5QtGui19AutostartOptionPage5resetEv
libsyncthingwidgets.so.33:_ZN5QtGui19AutostartOptionPageC1EP7QWidget
libsyncthingwidgets.so.33:_ZN5QtGui19AutostartOptionPageC2EP7QWidget
libsyncthingwidgets.so.33:_ZN5QtGui19AutostartOptionPageD0Ev
libsyncthingwidgets.so.33:_ZN5QtGui19AutostartOptionPageD1Ev
libsyncthingwidgets.so.33:_ZN5QtGui19AutostartOptionPageD2Ev
libsyncthingwidgets.so.33:_ZN5QtGui19AutostartWizardPage11cleanupPageEv
libsyncthingwidgets.so.33:_ZN5QtGui19AutostartWizardPage11qt_metacallEN11QMetaObject4CallEiPPv
libsyncthingwidgets.so.33:_ZN5QtGui19AutostartWizardPage11qt_metacastEPKc
libsyncthingwidgets.so.33:_ZN5QtGui19AutostartWizardPage12validatePageEv
libsyncthingwidgets.so.33:_ZN5QtGui19AutostartWizardPage14initializePageEv
libsyncthingwidgets.so.33:_ZN5QtGui19AutostartWizardPage16staticMetaObjectE
libsyncthingwidgets.so.33:_ZN5QtGui19AutostartWizardPage17autostartSelectedEbb
libsyncthingwidgets.so.33:_ZN5QtGui19AutostartWizardPageC1EP7QWidget
libsyncthingwidgets.so.33:_ZN5QtGui19AutostartWizardPageC2EP7QWidget
libsyncthingwidgets.so.33:_ZN5QtGui19AutostartWizardPageD0Ev
libsyncthingwidgets.so.33:_ZN5QtGui19AutostartWizardPageD1Ev
libsyncthingwidgets.so.33:_ZN5QtGui19AutostartWizardPageD2Ev
libsyncthingwidgets.so.33:_ZN5QtGui19DetectionWizardPage11cleanupPageEv
libsyncthingwidgets.so.33:_ZN5QtGui19DetectionWizardPage11qt_metacallEN11QMetaObject4CallEiPPv
libsyncthingwidgets.so.33:_ZN5QtGui19DetectionWizardPage11qt_metacastEPKc
libsyncthingwidgets.so.33:_ZN5QtGui19DetectionWizardPage12tryToConnectEv
libsyncthingwidgets.so.33:_ZN5QtGui19DetectionWizardPage14continueIfDoneEv
libsyncthingwidgets.so.33:_ZN5QtGui19DetectionWizardPage14initializePageEv
libsyncthingwidgets.so.33:_ZN5QtGui19DetectionWizardPage16staticMetaObjectE
libsyncthingwidgets.so.33:_ZN5QtGui19DetectionWizardPage20showCheckAgainButtonEv
libsyncthingwidgets.so.33:_ZN5QtGui19DetectionWizardPage7refreshEv
libsyncthingwidgets.so.33:_ZN5QtGui19DetectionWizardPageC1EP7QWidget
libsyncthingwidgets.so.33:_ZN5QtGui19DetectionWizardPageC2EP7QWidget
libsyncthingwidgets.so.33:_ZN5QtGui19setAutostartEnabledEbb
libsyncthingwidgets.so.33:_ZN5QtGui20AppearanceOptionPage23comboBoxIndexToTabIndexEi
libsyncthingwidgets.so.33:_ZN5QtGui20AppearanceOptionPage23tabIndexToComboBoxIndexEi
libsyncthingwidgets.so.33:_ZN5QtGui20AppearanceOptionPage24resetPositioningSettingsEv
libsyncthingwidgets.so.33:_ZN5QtGui20AppearanceOptionPage5applyEv
libsyncthingwidgets.so.33:_ZN5QtGui20AppearanceOptionPage5resetEv
libsyncthingwidgets.so.33:_ZN5QtGui20AppearanceOptionPageC1EP7QWidget
libsyncthingwidgets.so.33:_ZN5QtGui20AppearanceOptionPageC2EP7QWidget
libsyncthingwidgets.so.33:_ZN5QtGui20AppearanceOptionPageD0Ev
libsyncthingwidgets.so.33:_ZN5QtGui20AppearanceOptionPageD1Ev
libsyncthingwidgets.so.33:_ZN5QtGui20AppearanceOptionPageD2Ev
libsyncthingwidgets.so.33:_ZN5QtGui20ConnectionOptionPage11setupWidgetEv
libsyncthingwidgets.so.33:_ZN5QtGui20ConnectionOptionPage12addNewConfigEv
libsyncthingwidgets.so.33:_ZN5QtGui20ConnectionOptionPage15setCurrentIndexEi
libsyncthingwidgets.so.33:_ZN5QtGui20ConnectionOptionPage17applyAndReconnectEv
libsyncthingwidgets.so.33:_ZN5QtGui20ConnectionOptionPage20cacheCurrentSettingsEb
libsyncthingwidgets.so.33:_ZN5QtGui20ConnectionOptionPage20hideConnectionStatusEv
libsyncthingwidgets.so.33:_ZN5QtGui20ConnectionOptionPage20insertFromConfigFileEb
libsyncthingwidgets.so.33:_ZN5QtGui20ConnectionOptionPage20moveSelectedConfigUpEv
libsyncthingwidgets.so.33:_ZN5QtGui20ConnectionOptionPage20removeSelectedConfigEv
libsyncthingwidgets.so.33:_ZN5QtGui20ConnectionOptionPage21saveCurrentConfigNameERK7QString
libsyncthingwidgets.so.33:_ZN5QtGui20ConnectionOptionPage22moveSelectedConfigDownEv
libsyncthingwidgets.so.33:_ZN5QtGui20ConnectionOptionPage22showConnectionSettingsEi
libsyncthingwidgets.so.33:_ZN5QtGui20ConnectionOptionPage22toggleAdvancedSettingsEb
libsyncthingwidgets.so.33:_ZN5QtGui20ConnectionOptionPage22updateConnectionStatusEv
libsyncthingwidgets.so.33:_ZN5QtGui20ConnectionOptionPage5applyEv
libsyncthingwidgets.so.33:_ZN5QtGui20ConnectionOptionPage5resetEv
libsyncthingwidgets.so.33:_ZN5QtGui20ConnectionOptionPageC1EPN4Data19SyncthingConnectionEP7QWidget
libsyncthingwidgets.so.33:_ZN5QtGui20ConnectionOptionPageC2EPN4Data19SyncthingConnectionEP7QWidget
libsyncthingwidgets.so.33:_ZN5QtGui20ConnectionOptionPageD0Ev
libsyncthingwidgets.so.33:_ZN5QtGui20ConnectionOptionPageD1Ev
libsyncthingwidgets.so.33:_ZN5QtGui20ConnectionOptionPageD2Ev
libsyncthingwidgets.so.33:_ZN5QtGui20InternalErrorsDialog10s_instanceE
libsyncthingwidgets.so.33:_ZN5QtGui20InternalErrorsDialog11clearErrorsEv
libsyncthingwidgets.so.33:_ZN5QtGui20InternalErrorsDialog11qt_metacallEN11QMetaObject4CallEiPPv
libsyncthingwidgets.so.33:_ZN5QtGui20InternalErrorsDialog11qt_metacastEPKc
libsyncthingwidgets.so.33:_ZN5QtGui20InternalErrorsDialog13errorsClearedEv
libsyncthingwidgets.so.33:_ZN5QtGui20InternalErrorsDialog16internalAddErrorERKNS_13InternalErrorE
libsyncthingwidgets.so.33:_ZN5QtGui20InternalErrorsDialog16s_internalErrorsE
libsyncthingwidgets.so.33:_ZN5QtGui20InternalErrorsDialog16staticMetaObjectE
libsyncthingwidgets.so.33:_ZN5QtGui20InternalErrorsDialog17updateStatusLabelEv
libsyncthingwidgets.so.33:_ZN5QtGui20InternalErrorsDialog8addErrorEONS_13InternalErrorE
libsyncthingwidgets.so.33:_ZN5QtGui20InternalErrorsDialog8addErrorERK7QStringRK4QUrlRK10QByteArray
libsyncthingwidgets.so.33:_ZN5QtGui20InternalErrorsDialogC1Ev
libsyncthingwidgets.so.33:_ZN5QtGui20InternalErrorsDialogC2Ev
libsyncthingwidgets.so.33:_ZN5QtGui20InternalErrorsDialogD0Ev
libsyncthingwidgets.so.33:_ZN5QtGui20InternalErrorsDialogD1Ev
libsyncthingwidgets.so.33:_ZN5QtGui20InternalErrorsDialogD2Ev
libsyncthingwidgets.so.33:_ZN5QtGui20MainConfigWizardPage11cleanupPageEv
libsyncthingwidgets.so.33:_ZN5QtGui20MainConfigWizardPage11qt_metacallEN11QMetaObject4CallEiPPv
libsyncthingwidgets.so.33:_ZN5QtGui20MainConfigWizardPage11qt_metacastEPKc
libsyncthingwidgets.so.33:_ZN5QtGui20MainConfigWizardPage12validatePageEv
libsyncthingwidgets.so.33:_ZN5QtGui20MainConfigWizardPage14initializePageEv
libsyncthingwidgets.so.33:_ZN5QtGui20MainConfigWizardPage16staticMetaObjectE
libsyncthingwidgets.so.33:_ZN5QtGui20MainConfigWizardPage21configurationSelectedENS_17MainConfigurationENS_18ExtraConfigurationE
libsyncthingwidgets.so.33:_ZN5QtGui20MainConfigWizardPage22handleSelectionChangedEv
libsyncthingwidgets.so.33:_ZN5QtGui20MainConfigWizardPage5retryEv
libsyncthingwidgets.so.33:_ZN5QtGui20MainConfigWizardPageC1EP7QWidget
libsyncthingwidgets.so.33:_ZN5QtGui20MainConfigWizardPageC2EP7QWidget
libsyncthingwidgets.so.33:_ZN5QtGui20MainConfigWizardPageD0Ev
libsyncthingwidgets.so.33:_ZN5QtGui20MainConfigWizardPageD1Ev
libsyncthingwidgets.so.33:_ZN5QtGui20MainConfigWizardPageD2Ev
libsyncthingwidgets.so.33:_ZN5QtGui20ignorePatternsDialogERN4Data19SyncthingConnectionERKNS0_12SyncthingDirEP7QWidget
libsyncthingwidgets.so.33:_ZN5QtGui21DirectoryErrorsDialog11qt_metacallEN11QMetaObject4CallEiPPv
libsyncthingwidgets.so.33:_ZN5QtGui21DirectoryErrorsDialog11qt_metacastEPKc
libsyncthingwidgets.so.33:_ZN5QtGui21DirectoryErrorsDialog12updateErrorsERKN4Data12SyncthingDirE
libsyncthingwidgets.so.33:_ZN5QtGui21DirectoryErrorsDialog13handleNewDirsEv
libsyncthingwidgets.so.33:_ZN5QtGui21DirectoryErrorsDialog16staticMetaObjectE
libsyncthingwidgets.so.33:_ZN5QtGui21DirectoryErrorsDialog18removeNonEmptyDirsEv
libsyncthingwidgets.so.33:_ZN5QtGui21DirectoryErrorsDialog22handleDirStatusChangedERKN4Data12SyncthingDirE
libsyncthingwidgets.so.33:_ZN5QtGui21DirectoryErrorsDialogC1ERKN4Data19SyncthingConnectionERKNS1_12SyncthingDirEP7QWidget
libsyncthingwidgets.so.33:_ZN5QtGui21DirectoryErrorsDialogC2ERKN4Data19SyncthingConnectionERKNS1_12SyncthingDirEP7QWidget
libsyncthingwidgets.so.33:_ZN5QtGui21DirectoryErrorsDialogD0Ev
libsyncthingwidgets.so.33:_ZN5QtGui21DirectoryErrorsDialogD1Ev
libsyncthingwidgets.so.33:_ZN5QtGui21DirectoryErrorsDialogD2Ev
libsyncthingwidgets.so.33:_ZN5QtGui21supposedAutostartPathEv
libsyncthingwidgets.so.33:_ZN5QtGui23NotificationsOptionPage11setupWidgetEv
libsyncthingwidgets.so.33:_ZN5QtGui23NotificationsOptionPage5applyEv
libsyncthingwidgets.so.33:_ZN5QtGui23NotificationsOptionPage5resetEv
libsyncthingwidgets.so.33:_ZN5QtGui23NotificationsOptionPageC1ENS_7GuiTypeEP7QWidget
libsyncthingwidgets.so.33:_ZN5QtGui23NotificationsOptionPageC2ENS_7GuiTypeEP7QWidget
libsyncthingwidgets.so.33:_ZN5QtGui23NotificationsOptionPageD0Ev
libsyncthingwidgets.so.33:_ZN5QtGui23NotificationsOptionPageD1Ev
libsyncthingwidgets.so.33:_ZN5QtGui23NotificationsOptionPageD2Ev
libsyncthingwidgets.so.33:_ZN5QtGui23browseRemoteFilesDialogERN4Data19SyncthingConnectionERKNS0_12SyncthingDirEP7QWidget
libsyncthingwidgets.so.33:_ZN5QtGui23configuredAutostartPathEv
libsyncthingwidgets.so.33:_ZN5QtGui24BuiltinWebViewOptionPage5applyEv
libsyncthingwidgets.so.33:_ZN5QtGui24BuiltinWebViewOptionPage5resetEv
libsyncthingwidgets.so.33:_ZN5QtGui24BuiltinWebViewOptionPageC1EP7QWidget
libsyncthingwidgets.so.33:_ZN5QtGui24BuiltinWebViewOptionPageC2EP7QWidget
libsyncthingwidgets.so.33:_ZN5QtGui24BuiltinWebViewOptionPageD0Ev
libsyncthingwidgets.so.33:_ZN5QtGui24BuiltinWebViewOptionPageD1Ev
libsyncthingwidgets.so.33:_ZN5QtGui24BuiltinWebViewOptionPageD2Ev
libsyncthingwidgets.so.33:_ZN5QtGui24GeneralWebViewOptionPage11setupWidgetEv
libsyncthingwidgets.so.33:_ZN5QtGui24GeneralWebViewOptionPage23showCustomCommandPromptEv
libsyncthingwidgets.so.33:_ZN5QtGui24GeneralWebViewOptionPage5applyEv
libsyncthingwidgets.so.33:_ZN5QtGui24GeneralWebViewOptionPage5resetEv
libsyncthingwidgets.so.33:_ZN5QtGui24GeneralWebViewOptionPageC1EP7QWidget
libsyncthingwidgets.so.33:_ZN5QtGui24GeneralWebViewOptionPageC2EP7QWidget
libsyncthingwidgets.so.33:_ZN5QtGui24GeneralWebViewOptionPageD0Ev
libsyncthingwidgets.so.33:_ZN5QtGui24GeneralWebViewOptionPageD1Ev
libsyncthingwidgets.so.33:_ZN5QtGui24GeneralWebViewOptionPageD2Ev
libsyncthingwidgets.so.33:_ZN5QtGui24errorNotificationsDialogERN4Data19SyncthingConnectionEP7QWidget
libsyncthingwidgets.so.33:_ZN5QtGui29handleRelevantControlsChangedEbiRN4Data19SyncthingConnectionE
libsyncthingwidgets.so.33:_ZN5QtGui6Wizard10s_instanceE
libsyncthingwidgets.so.33:_ZN5QtGui6Wizard11qt_metacallEN11QMetaObject4CallEiPPv
libsyncthingwidgets.so.33:_ZN5QtGui6Wizard11qt_metacastEPKc
libsyncthingwidgets.so.33:_ZN5QtGui6Wizard13configAppliedEv
libsyncthingwidgets.so.33:_ZN5QtGui6Wizard14changeSettingsEv
libsyncthingwidgets.so.33:_ZN5QtGui6Wizard14setupDetectionEv
libsyncthingwidgets.so.33:_ZN5QtGui6Wizard15settingsChangedEv
libsyncthingwidgets.so.33:_ZN5QtGui6Wizard16staticMetaObjectE
libsyncthingwidgets.so.33:_ZN5QtGui6Wizard22openSyncthingRequestedEv
libsyncthingwidgets.so.33:_ZN5QtGui6Wizard22pollForSyncthingConfigEv
libsyncthingwidgets.so.33:_ZN5QtGui6Wizard23handleAutostartSelectedEbb
libsyncthingwidgets.so.33:_ZN5QtGui6Wizard23settingsDialogRequestedEv
libsyncthingwidgets.so.33:_ZN5QtGui6Wizard26handleConfigurationAppliedERK7QStringPN4Data19SyncthingConnectionE
libsyncthingwidgets.so.33:_ZN5QtGui6Wizard27handleConfigurationSelectedENS_17MainConfigurationENS_18ExtraConfigurationE
libsyncthingwidgets.so.33:_ZN5QtGui6Wizard29openLauncherSettingsRequestedEv
libsyncthingwidgets.so.33:_ZN5QtGui6Wizard29showDetailsFromSetupDetectionEv
libsyncthingwidgets.so.33:_ZN5QtGui6Wizard8instanceEv
libsyncthingwidgets.so.33:_ZN5QtGui6WizardC1EP7QWidget6QFlagsIN2Qt10WindowTypeEE
libsyncthingwidgets.so.33:_ZN5QtGui6WizardC2EP7QWidget6QFlagsIN2Qt10WindowTypeEE
libsyncthingwidgets.so.33:_ZN5QtGui6WizardD0Ev
libsyncthingwidgets.so.33:_ZN5QtGui6WizardD1Ev
libsyncthingwidgets.so.33:_ZN5QtGui6WizardD2Ev
libsyncthingwidgets.so.33:_ZN5QtGui7WebPage10isSamePageERK4QUrlS3_
libsyncthingwidgets.so.33:_ZN5QtGui7WebPage11qt_metacallEN11QMetaObject4CallEiPPv
libsyncthingwidgets.so.33:_ZN5QtGui7WebPage11qt_metacastEPKc
libsyncthingwidgets.so.33:_ZN5QtGui7WebPage12createWindowEN14QWebEnginePage13WebWindowTypeE
libsyncthingwidgets.so.33:_ZN5QtGui7WebPage15styleScrollBarsEb
libsyncthingwidgets.so.33:_ZN5QtGui7WebPage16injectJavaScriptERK7QString
libsyncthingwidgets.so.33:_ZN5QtGui7WebPage16insertStyleSheetERK7QStringS3_b
libsyncthingwidgets.so.33:_ZN5QtGui7WebPage16staticMetaObjectE
libsyncthingwidgets.so.33:_ZN5QtGui7WebPage17injectJavaScriptsEb
libsyncthingwidgets.so.33:_ZN5QtGui7WebPage17supplyCredentialsEP13QNetworkReplyP14QAuthenticator
libsyncthingwidgets.so.33:_ZN5QtGui7WebPage17supplyCredentialsEP14QAuthenticator
libsyncthingwidgets.so.33:_ZN5QtGui7WebPage17supplyCredentialsERK4QUrlP14QAuthenticator
libsyncthingwidgets.so.33:_ZN5QtGui7WebPage22handleCertificateErrorE26QWebEngineCertificateError
libsyncthingwidgets.so.33:_ZN5QtGui7WebPage23acceptNavigationRequestERK4QUrlN14QWebEnginePage14NavigationTypeEb
libsyncthingwidgets.so.33:_ZN5QtGui7WebPage23handleNavigationRequestERK4QUrlS3_
libsyncthingwidgets.so.33:_ZN5QtGui7WebPage23showFolderPathSelectionERK7QString
libsyncthingwidgets.so.33:_ZN5QtGui7WebPage24javaScriptConsoleMessageEN14QWebEnginePage29JavaScriptConsoleMessageLevelERK7QStringiS5_
libsyncthingwidgets.so.33:_ZN5QtGui7WebPage31processJavaScriptConsoleMessageERK7QString
libsyncthingwidgets.so.33:_ZN5QtGui7WebPage34delegateNewWindowToExternalBrowserERK4QUrl
libsyncthingwidgets.so.33:_ZN5QtGui7WebPageC1EP17QWebEngineProfilePNS_13WebViewDialogEP14QWebEngineView
libsyncthingwidgets.so.33:_ZN5QtGui7WebPageC2EP17QWebEngineProfilePNS_13WebViewDialogEP14QWebEngineView
libsyncthingwidgets.so.33:_ZN5QtGui9readmeUrlEv
libsyncthingwidgets.so.33:_ZN5QtGui9showWebUIERK7QStringPKN4Data27SyncthingConnectionSettingsEPNS_13WebViewDialogEP7QWidgetPNS3_19SyncthingConnectionE
libsyncthingwidgets.so.33:_ZN8Settings10Connection19addConfigFromWizardERKN4Data15SyncthingConfigE
libsyncthingwidgets.so.33:_ZN8Settings4saveEv
libsyncthingwidgets.so.33:_ZN8Settings6valuesEv
libsyncthingwidgets.so.33:_ZN8Settings7restoreEv
libsyncthingwidgets.so.33:_ZN8Settings8Launcher11toolProcessERK7QString
libsyncthingwidgets.so.33:_ZN8Settings8Launcher12allProcessesEv
libsyncthingwidgets.so.33:_ZN8Settings8Launcher21connectionForLauncherEPN4Data17SyncthingLauncherE
libsyncthingwidgets.so.33:_ZN8Settings8Launcher9terminateEv
libsyncthingwidgets.so.33:_ZN8Settings8settingsEv
libsyncthingwidgets.so.33:_ZNK4Data17SyncthingLauncher10metaObjectEv
libsyncthingwidgets.so.33:_ZNK4Data17SyncthingLauncher13meteredStatusEv
libsyncthingwidgets.so.33:_ZNK4Data17SyncthingLauncher13overallStatusEv
libsyncthingwidgets.so.33:_ZNK4Data17SyncthingLauncher13runningStatusEv
libsyncthingwidgets.so.33:_ZNK5QtGui13WebViewDialog10metaObjectEv
libsyncthingwidgets.so.33:_ZNK5QtGui14SettingsDialog10metaObjectEv
libsyncthingwidgets.so.33:_ZNK5QtGui14SetupDetection10metaObjectEv
libsyncthingwidgets.so.33:_ZNK5QtGui14SetupDetection6isDoneEv
libsyncthingwidgets.so.33:_ZNK5QtGui14SetupDetection9hasConfigEv
libsyncthingwidgets.so.33:_ZNK5QtGui14TextViewDialog10metaObjectEv
libsyncthingwidgets.so.33:_ZNK5QtGui15ApplyWizardPage10isCompleteEv
libsyncthingwidgets.so.33:_ZNK5QtGui15ApplyWizardPage10metaObjectEv
libsyncthingwidgets.so.33:_ZNK5QtGui15DiffHighlighter10metaObjectEv
libsyncthingwidgets.so.33:_ZNK5QtGui15FinalWizardPage10isCompleteEv
libsyncthingwidgets.so.33:_ZNK5QtGui15FinalWizardPage10metaObjectEv
libsyncthingwidgets.so.33:_ZNK5QtGui15SyncthingKiller10metaObjectEv
libsyncthingwidgets.so.33:_ZNK5QtGui15SyncthingKiller11confirmKillEv
libsyncthingwidgets.so.33:_ZNK5QtGui17WelcomeWizardPage10isCompleteEv
libsyncthingwidgets.so.33:_ZNK5QtGui17WelcomeWizardPage10metaObjectEv
libsyncthingwidgets.so.33:_ZNK5QtGui18DBusStatusNotifier10metaObjectEv
libsyncthingwidgets.so.33:_ZNK5QtGui18LauncherOptionPage10metaObjectEv
libsyncthingwidgets.so.33:_ZNK5QtGui18LauncherOptionPage9isRunningEv
libsyncthingwidgets.so.33:_ZNK5QtGui19AutostartWizardPage10isCompleteEv
libsyncthingwidgets.so.33:_ZNK5QtGui19AutostartWizardPage10metaObjectEv
libsyncthingwidgets.so.33:_ZNK5QtGui19DetectionWizardPage10isCompleteEv
libsyncthingwidgets.so.33:_ZNK5QtGui19DetectionWizardPage10metaObjectEv
libsyncthingwidgets.so.33:_ZNK5QtGui20InternalErrorsDialog10metaObjectEv
libsyncthingwidgets.so.33:_ZNK5QtGui20MainConfigWizardPage10isCompleteEv
libsyncthingwidgets.so.33:_ZNK5QtGui20MainConfigWizardPage10metaObjectEv
libsyncthingwidgets.so.33:_ZNK5QtGui21DirectoryErrorsDialog10metaObjectEv
libsyncthingwidgets.so.33:_ZNK5QtGui6Wizard10metaObjectEv
libsyncthingwidgets.so.33:_ZNK5QtGui6Wizard21hintAboutSyncthingLogEv
libsyncthingwidgets.so.33:_ZNK5QtGui7WebPage10metaObjectEv
libsyncthingwidgets.so.33:_ZNK5QtGui7WebPage25canIgnoreCertificateErrorERK26QWebEngineCertificateError
libsyncthingwidgets.so.33:_ZNK8Settings10Appearance11Positioning13positionToUseEv
libsyncthingwidgets.so.33:_ZNK8Settings7Systemd12setupServiceERN4Data16SyncthingServiceE
libsyncthingwidgets.so.33:_ZNK8Settings7Systemd5applyERN4Data19SyncthingConnectionEPKNS1_27SyncthingConnectionSettingsEb
libsyncthingwidgets.so.33:_ZNK8Settings7Systemd6statusERN4Data19SyncthingConnectionE
libsyncthingwidgets.so.33:_ZNK8Settings8Launcher5applyERN4Data19SyncthingConnectionEPKNS1_27SyncthingConnectionSettingsEb
libsyncthingwidgets.so.33:_ZNK8Settings8Launcher6statusERN4Data19SyncthingConnectionE
libsyncthingwidgets.so.33:_ZNK8Settings8Launcher9autostartEv
libsyncthingwidgets.so.33:_ZNK8Settings8Settings5applyERN4Data17SyncthingNotifierE
libsyncthingwidgets.so.33:_ZTIN4Data17SyncthingLauncherE
libsyncthingwidgets.so.33:_ZTIN5QtGui13WebViewDialogE
libsyncthingwidgets.so.33:_ZTIN5QtGui14SettingsDialogE
libsyncthingwidgets.so.33:_ZTIN5QtGui14SetupDetectionE
libsyncthingwidgets.so.33:_ZTIN5QtGui14TextViewDialogE
libsyncthingwidgets.so.33:_ZTIN5QtGui15ApplyWizardPageE
libsyncthingwidgets.so.33:_ZTIN5QtGui15DiffHighlighterE
libsyncthingwidgets.so.33:_ZTIN5QtGui15FinalWizardPageE
libsyncthingwidgets.so.33:_ZTIN5QtGui15IconsOptionPageE
libsyncthingwidgets.so.33:_ZTIN5QtGui15SyncthingKillerE
libsyncthingwidgets.so.33:_ZTIN5QtGui17SystemdOptionPageE
libsyncthingwidgets.so.33:_ZTIN5QtGui17WelcomeWizardPageE
libsyncthingwidgets.so.33:_ZTIN5QtGui18DBusStatusNotifierE
libsyncthingwidgets.so.33:_ZTIN5QtGui18LauncherOptionPageE
libsyncthingwidgets.so.33:_ZTIN5QtGui19AutostartOptionPageE
libsyncthingwidgets.so.33:_ZTIN5QtGui19AutostartWizardPageE
libsyncthingwidgets.so.33:_ZTIN5QtGui19DetectionWizardPageE
libsyncthingwidgets.so.33:_ZTIN5QtGui20AppearanceOptionPageE
libsyncthingwidgets.so.33:_ZTIN5QtGui20ConnectionOptionPageE
libsyncthingwidgets.so.33:_ZTIN5QtGui20InternalErrorsDialogE
libsyncthingwidgets.so.33:_ZTIN5QtGui20MainConfigWizardPageE
libsyncthingwidgets.so.33:_ZTIN5QtGui21DirectoryErrorsDialogE
libsyncthingwidgets.so.33:_ZTIN5QtGui23NotificationsOptionPageE
libsyncthingwidgets.so.33:_ZTIN5QtGui24BuiltinWebViewOptionPageE
libsyncthingwidgets.so.33:_ZTIN5QtGui24GeneralWebViewOptionPageE
libsyncthingwidgets.so.33:_ZTIN5QtGui6WizardE
libsyncthingwidgets.so.33:_ZTIN5QtGui7WebPageE
libsyncthingwidgets.so.33:_ZTSN4Data17SyncthingLauncherE
libsyncthingwidgets.so.33:_ZTSN5QtGui13WebViewDialogE
libsyncthingwidgets.so.33:_ZTSN5QtGui14SettingsDialogE
libsyncthingwidgets.so.33:_ZTSN5QtGui14SetupDetectionE
libsyncthingwidgets.so.33:_ZTSN5QtGui14TextViewDialogE
libsyncthingwidgets.so.33:_ZTSN5QtGui15ApplyWizardPageE
libsyncthingwidgets.so.33:_ZTSN5QtGui15DiffHighlighterE
libsyncthingwidgets.so.33:_ZTSN5QtGui15FinalWizardPageE
libsyncthingwidgets.so.33:_ZTSN5QtGui15IconsOptionPageE
libsyncthingwidgets.so.33:_ZTSN5QtGui15SyncthingKillerE
libsyncthingwidgets.so.33:_ZTSN5QtGui17SystemdOptionPageE
libsyncthingwidgets.so.33:_ZTSN5QtGui17WelcomeWizardPageE
libsyncthingwidgets.so.33:_ZTSN5QtGui18DBusStatusNotifierE
libsyncthingwidgets.so.33:_ZTSN5QtGui18LauncherOptionPageE
libsyncthingwidgets.so.33:_ZTSN5QtGui19AutostartOptionPageE
libsyncthingwidgets.so.33:_ZTSN5QtGui19AutostartWizardPageE
libsyncthingwidgets.so.33:_ZTSN5QtGui19DetectionWizardPageE
libsyncthingwidgets.so.33:_ZTSN5QtGui20AppearanceOptionPageE
libsyncthingwidgets.so.33:_ZTSN5QtGui20ConnectionOptionPageE
libsyncthingwidgets.so.33:_ZTSN5QtGui20InternalErrorsDialogE
libsyncthingwidgets.so.33:_ZTSN5QtGui20MainConfigWizardPageE
libsyncthingwidgets.so.33:_ZTSN5QtGui21DirectoryErrorsDialogE
libsyncthingwidgets.so.33:_ZTSN5QtGui23NotificationsOptionPageE
libsyncthingwidgets.so.33:_ZTSN5QtGui24BuiltinWebViewOptionPageE
libsyncthingwidgets.so.33:_ZTSN5QtGui24GeneralWebViewOptionPageE
libsyncthingwidgets.so.33:_ZTSN5QtGui6WizardE
libsyncthingwidgets.so.33:_ZTSN5QtGui7WebPageE
libsyncthingwidgets.so.33:_ZTVN4Data17SyncthingLauncherE
libsyncthingwidgets.so.33:_ZTVN5QtGui13WebViewDialogE
libsyncthingwidgets.so.33:_ZTVN5QtGui14SettingsDialogE
libsyncthingwidgets.so.33:_ZTVN5QtGui14SetupDetectionE
libsyncthingwidgets.so.33:_ZTVN5QtGui14TextViewDialogE
libsyncthingwidgets.so.33:_ZTVN5QtGui15ApplyWizardPageE
libsyncthingwidgets.so.33:_ZTVN5QtGui15DiffHighlighterE
libsyncthingwidgets.so.33:_ZTVN5QtGui15FinalWizardPageE
libsyncthingwidgets.so.33:_ZTVN5QtGui15IconsOptionPageE
libsyncthingwidgets.so.33:_ZTVN5QtGui15SyncthingKillerE
libsyncthingwidgets.so.33:_ZTVN5QtGui17SystemdOptionPageE
libsyncthingwidgets.so.33:_ZTVN5QtGui17WelcomeWizardPageE
libsyncthingwidgets.so.33:_ZTVN5QtGui18DBusStatusNotifierE
libsyncthingwidgets.so.33:_ZTVN5QtGui18LauncherOptionPageE
libsyncthingwidgets.so.33:_ZTVN5QtGui19AutostartOptionPageE
libsyncthingwidgets.so.33:_ZTVN5QtGui19AutostartWizardPageE
libsyncthingwidgets.so.33:_ZTVN5QtGui19DetectionWizardPageE
libsyncthingwidgets.so.33:_ZTVN5QtGui20AppearanceOptionPageE
libsyncthingwidgets.so.33:_ZTVN5QtGui20ConnectionOptionPageE
libsyncthingwidgets.so.33:_ZTVN5QtGui20InternalErrorsDialogE
libsyncthingwidgets.so.33:_ZTVN5QtGui20MainConfigWizardPageE
libsyncthingwidgets.so.33:_ZTVN5QtGui21DirectoryErrorsDialogE
libsyncthingwidgets.so.33:_ZTVN5QtGui23NotificationsOptionPageE
libsyncthingwidgets.so.33:_ZTVN5QtGui24BuiltinWebViewOptionPageE
libsyncthingwidgets.so.33:_ZTVN5QtGui24GeneralWebViewOptionPageE
libsyncthingwidgets.so.33:_ZTVN5QtGui6WizardE
libsyncthingwidgets.so.33:_ZTVN5QtGui7WebPageE
libsyncthingwidgets.so.33:_ZThn16_N5QtGui13WebViewDialogD0Ev
libsyncthingwidgets.so.33:_ZThn16_N5QtGui13WebViewDialogD1Ev
libsyncthingwidgets.so.33:_ZThn16_N5QtGui14SettingsDialogD0Ev
libsyncthingwidgets.so.33:_ZThn16_N5QtGui14SettingsDialogD1Ev
libsyncthingwidgets.so.33:_ZThn16_N5QtGui15ApplyWizardPageD0Ev
libsyncthingwidgets.so.33:_ZThn16_N5QtGui15ApplyWizardPageD1Ev
libsyncthingwidgets.so.33:_ZThn16_N5QtGui15FinalWizardPageD0Ev
libsyncthingwidgets.so.33:_ZThn16_N5QtGui15FinalWizardPageD1Ev
libsyncthingwidgets.so.33:_ZThn16_N5QtGui18LauncherOptionPage11setupWidgetEv
libsyncthingwidgets.so.33:_ZThn16_N5QtGui18LauncherOptionPage5applyEv
libsyncthingwidgets.so.33:_ZThn16_N5QtGui18LauncherOptionPage5resetEv
libsyncthingwidgets.so.33:_ZThn16_N5QtGui18LauncherOptionPageD0Ev
libsyncthingwidgets.so.33:_ZThn16_N5QtGui18LauncherOptionPageD1Ev
libsyncthingwidgets.so.33:_ZThn16_N5QtGui19AutostartWizardPageD0Ev
libsyncthingwidgets.so.33:_ZThn16_N5QtGui19AutostartWizardPageD1Ev
libsyncthingwidgets.so.33:_ZThn16_N5QtGui20InternalErrorsDialogD0Ev
libsyncthingwidgets.so.33:_ZThn16_N5QtGui20InternalErrorsDialogD1Ev
libsyncthingwidgets.so.33:_ZThn16_N5QtGui20MainConfigWizardPageD0Ev
libsyncthingwidgets.so.33:_ZThn16_N5QtGui20MainConfigWizardPageD1Ev
libsyncthingwidgets.so.33:_ZThn16_N5QtGui21DirectoryErrorsDialogD0Ev
libsyncthingwidgets.so.33:_ZThn16_N5QtGui21DirectoryErrorsDialogD1Ev
libsyncthingwidgets.so.33:_ZThn16_N5QtGui6WizardD0Ev
libsyncthingwidgets.so.33:_ZThn16_N5QtGui6WizardD1Ev
martchus.syncthingplasmoid.so:_ZN8Plasmoid18ShortcutOptionPage11setupWidgetEv
martchus.syncthingplasmoid.so:_ZN8Plasmoid18ShortcutOptionPage5applyEv
martchus.syncthingplasmoid.so:_ZN8Plasmoid18ShortcutOptionPage5resetEv
martchus.syncthingplasmoid.so:_ZN8Plasmoid18ShortcutOptionPageC1ERNS_15SyncthingAppletEP7QWidget
martchus.syncthingplasmoid.so:_ZN8Plasmoid18ShortcutOptionPageC2ERNS_15SyncthingAppletEP7QWidget
martchus.syncthingplasmoid.so:_ZN8Plasmoid18ShortcutOptionPageD0Ev
martchus.syncthingplasmoid.so:_ZN8Plasmoid18ShortcutOptionPageD1Ev
martchus.syncthingplasmoid.so:_ZN8Plasmoid18ShortcutOptionPageD2Ev
martchus.syncthingplasmoid.so:_ZN8Plasmoid20AppearanceOptionPage11setupWidgetEv
martchus.syncthingplasmoid.so:_ZN8Plasmoid20AppearanceOptionPage5applyEv
martchus.syncthingplasmoid.so:_ZN8Plasmoid20AppearanceOptionPage5resetEv
martchus.syncthingplasmoid.so:_ZN8Plasmoid20AppearanceOptionPageC1ERNS_15SyncthingAppletEP7QWidget
martchus.syncthingplasmoid.so:_ZN8Plasmoid20AppearanceOptionPageC2ERNS_15SyncthingAppletEP7QWidget
martchus.syncthingplasmoid.so:_ZN8Plasmoid20AppearanceOptionPageD0Ev
martchus.syncthingplasmoid.so:_ZN8Plasmoid20AppearanceOptionPageD1Ev
martchus.syncthingplasmoid.so:_ZN8Plasmoid20AppearanceOptionPageD2Ev
martchus.syncthingplasmoid.so:_ZTIN8Plasmoid18ShortcutOptionPageE
martchus.syncthingplasmoid.so:_ZTIN8Plasmoid20AppearanceOptionPageE
martchus.syncthingplasmoid.so:_ZTSN8Plasmoid18ShortcutOptionPageE
martchus.syncthingplasmoid.so:_ZTSN8Plasmoid20AppearanceOptionPageE
martchus.syncthingplasmoid.so:_ZTVN8Plasmoid18ShortcutOptionPageE
martchus.syncthingplasmoid.so:_ZTVN8Plasmoid20AppearanceOptionPageE
martchus.syncthingplasmoid.so:qt_plugin_instance
martchus.syncthingplasmoid.so:qt_plugin_query_metadata_v2
