libKF5Notifications.so.5:_ZN12KNotifyImage7toImageEv
libKF5Notifications.so.5:_ZN13KNotification10addContextERK5QPairI7QStringS1_E
libKF5Notifications.so.5:_ZN13KNotification10addContextERK7QStringS2_
libKF5Notifications.so.5:_ZN13KNotification10setActionsERK11QStringList
libKF5Notifications.so.5:_ZN13KNotification10setUrgencyENS_7UrgencyE
libKF5Notifications.so.5:_ZN13KNotification11eventFilterEP7QObjectP6QEvent
libKF5Notifications.so.5:_ZN13KNotification11qt_metacallEN11QMetaObject4CallEiPPv
libKF5Notifications.so.5:_ZN13KNotification11qt_metacastEPKc
libKF5Notifications.so.5:_ZN13KNotification11raiseWidgetEv
libKF5Notifications.so.5:_ZN13KNotification11setContextsERK5QListI5QPairI7QStringS2_EE
libKF5Notifications.so.5:_ZN13KNotification11setIconNameERK7QString
libKF5Notifications.so.5:_ZN13KNotification14setReplyActionESt10unique_ptrI24KNotificationReplyActionSt14default_deleteIS1_EE
libKF5Notifications.so.5:_ZN13KNotification16action1ActivatedEv
libKF5Notifications.so.5:_ZN13KNotification16action2ActivatedEv
libKF5Notifications.so.5:_ZN13KNotification16action3ActivatedEv
libKF5Notifications.so.5:_ZN13KNotification16defaultActivatedEv
libKF5Notifications.so.5:_ZN13KNotification16setComponentNameERK7QString
libKF5Notifications.so.5:_ZN13KNotification16setDefaultActionERK7QString
libKF5Notifications.so.5:_ZN13KNotification16staticMetaObjectE
libKF5Notifications.so.5:_ZN13KNotification22standardEventToEventIdENS_13StandardEventE
libKF5Notifications.so.5:_ZN13KNotification23standardEventToIconNameENS_13StandardEventE
libKF5Notifications.so.5:_ZN13KNotification2idEv
libKF5Notifications.so.5:_ZN13KNotification3refEv
libKF5Notifications.so.5:_ZN13KNotification4beepERK7QStringP7QWidget
libKF5Notifications.so.5:_ZN13KNotification5closeEv
libKF5Notifications.so.5:_ZN13KNotification5derefEv
libKF5Notifications.so.5:_ZN13KNotification5eventENS_13StandardEventERK7QStringRK7QPixmapP7QWidgetRK6QFlagsINS_16NotificationFlagEE
libKF5Notifications.so.5:_ZN13KNotification5eventENS_13StandardEventERK7QStringS3_P7QWidgetRK6QFlagsINS_16NotificationFlagEE
libKF5Notifications.so.5:_ZN13KNotification5eventENS_13StandardEventERK7QStringS3_RK7QPixmapP7QWidgetRK6QFlagsINS_16NotificationFlagEE
libKF5Notifications.so.5:_ZN13KNotification5eventENS_13StandardEventERK7QStringS3_S3_P7QWidgetRK6QFlagsINS_16NotificationFlagEE
libKF5Notifications.so.5:_ZN13KNotification5eventERK7QStringS2_RK7QPixmapP7QWidgetRK6QFlagsINS_16NotificationFlagEES2_
libKF5Notifications.so.5:_ZN13KNotification5eventERK7QStringS2_S2_RK7QPixmapP7QWidgetRK6QFlagsINS_16NotificationFlagEES2_
libKF5Notifications.so.5:_ZN13KNotification5eventERK7QStringS2_S2_S2_P7QWidgetRK6QFlagsINS_16NotificationFlagEES2_
libKF5Notifications.so.5:_ZN13KNotification6closedEv
libKF5Notifications.so.5:_ZN13KNotification6updateEv
libKF5Notifications.so.5:_ZN13KNotification7ignoredEv
libKF5Notifications.so.5:_ZN13KNotification7setHintERK7QStringRK8QVariant
libKF5Notifications.so.5:_ZN13KNotification7setTextERK7QString
libKF5Notifications.so.5:_ZN13KNotification7setUrlsERK5QListI4QUrlE
libKF5Notifications.so.5:_ZN13KNotification8activateEj
libKF5Notifications.so.5:_ZN13KNotification8setFlagsERK6QFlagsINS_16NotificationFlagEE
libKF5Notifications.so.5:_ZN13KNotification8setTitleERK7QString
libKF5Notifications.so.5:_ZN13KNotification9activatedEj
libKF5Notifications.so.5:_ZN13KNotification9activatedEv
libKF5Notifications.so.5:_ZN13KNotification9sendEventEv
libKF5Notifications.so.5:_ZN13KNotification9setPixmapERK7QPixmap
libKF5Notifications.so.5:_ZN13KNotification9setWidgetEP7QWidget
libKF5Notifications.so.5:_ZN13KNotificationC1ERK7QStringP7QWidgetRK6QFlagsINS_16NotificationFlagEE
libKF5Notifications.so.5:_ZN13KNotificationC1ERK7QStringRK6QFlagsINS_16NotificationFlagEEP7QObject
libKF5Notifications.so.5:_ZN13KNotificationC2ERK7QStringP7QWidgetRK6QFlagsINS_16NotificationFlagEE
libKF5Notifications.so.5:_ZN13KNotificationC2ERK7QStringRK6QFlagsINS_16NotificationFlagEEP7QObject
libKF5Notifications.so.5:_ZN13KNotificationD0Ev
libKF5Notifications.so.5:_ZN13KNotificationD1Ev
libKF5Notifications.so.5:_ZN13KNotificationD2Ev
libKF5Notifications.so.5:_ZN13KNotifyConfig20reparseConfigurationEv
libKF5Notifications.so.5:_ZN13KNotifyConfig26reparseSingleConfigurationERK7QString
libKF5Notifications.so.5:_ZN13KNotifyConfig9readEntryERK7QStringb
libKF5Notifications.so.5:_ZN13KNotifyConfigC1ERK7QStringRK5QListI5QPairIS0_S0_EES2_
libKF5Notifications.so.5:_ZN13KNotifyConfigC2ERK7QStringRK5QListI5QPairIS0_S0_EES2_
libKF5Notifications.so.5:_ZN13KNotifyConfigD1Ev
libKF5Notifications.so.5:_ZN13KNotifyConfigD2Ev
libKF5Notifications.so.5:_ZN13KPassivePopup10paintEventEP11QPaintEvent
libKF5Notifications.so.5:_ZN13KPassivePopup10setTimeoutEi
libKF5Notifications.so.5:_ZN13KPassivePopup10setVisibleEb
libKF5Notifications.so.5:_ZN13KPassivePopup11qt_metacallEN11QMetaObject4CallEiPPv
libKF5Notifications.so.5:_ZN13KPassivePopup11qt_metacastEPKc
libKF5Notifications.so.5:_ZN13KPassivePopup12positionSelfEv
libKF5Notifications.so.5:_ZN13KPassivePopup12standardViewERK7QStringS2_RK7QPixmapP7QWidget
libKF5Notifications.so.5:_ZN13KPassivePopup13setAutoDeleteEb
libKF5Notifications.so.5:_ZN13KPassivePopup13setPopupStyleEi
libKF5Notifications.so.5:_ZN13KPassivePopup16staticMetaObjectE
libKF5Notifications.so.5:_ZN13KPassivePopup17mouseReleaseEventEP11QMouseEvent
libKF5Notifications.so.5:_ZN13KPassivePopup4showERK6QPoint
libKF5Notifications.so.5:_ZN13KPassivePopup7clickedERK6QPoint
libKF5Notifications.so.5:_ZN13KPassivePopup7clickedEv
libKF5Notifications.so.5:_ZN13KPassivePopup7messageERK7QStringP15QSystemTrayIcon
libKF5Notifications.so.5:_ZN13KPassivePopup7messageERK7QStringP7QWidgetRK6QPoint
libKF5Notifications.so.5:_ZN13KPassivePopup7messageERK7QStringS2_P15QSystemTrayIcon
libKF5Notifications.so.5:_ZN13KPassivePopup7messageERK7QStringS2_P7QWidgetRK6QPoint
libKF5Notifications.so.5:_ZN13KPassivePopup7messageERK7QStringS2_RK7QPixmapP15QSystemTrayIconi
libKF5Notifications.so.5:_ZN13KPassivePopup7messageERK7QStringS2_RK7QPixmapP7QWidgetiRK6QPoint
libKF5Notifications.so.5:_ZN13KPassivePopup7messageERK7QStringS2_RK7QPixmapyiRK6QPoint
libKF5Notifications.so.5:_ZN13KPassivePopup7messageEiRK7QStringP15QSystemTrayIcon
libKF5Notifications.so.5:_ZN13KPassivePopup7messageEiRK7QStringP7QWidgetRK6QPoint
libKF5Notifications.so.5:_ZN13KPassivePopup7messageEiRK7QStringS2_P15QSystemTrayIcon
libKF5Notifications.so.5:_ZN13KPassivePopup7messageEiRK7QStringS2_P7QWidgetRK6QPoint
libKF5Notifications.so.5:_ZN13KPassivePopup7messageEiRK7QStringS2_RK7QPixmapP15QSystemTrayIconi
libKF5Notifications.so.5:_ZN13KPassivePopup7messageEiRK7QStringS2_RK7QPixmapP7QWidgetiRK6QPoint
libKF5Notifications.so.5:_ZN13KPassivePopup7messageEiRK7QStringS2_RK7QPixmapyiRK6QPoint
libKF5Notifications.so.5:_ZN13KPassivePopup7setViewEP7QWidget
libKF5Notifications.so.5:_ZN13KPassivePopup7setViewERK7QStringS2_
libKF5Notifications.so.5:_ZN13KPassivePopup7setViewERK7QStringS2_RK7QPixmap
libKF5Notifications.so.5:_ZN13KPassivePopup8moveNearERK5QRect
libKF5Notifications.so.5:_ZN13KPassivePopup9hideEventEP10QHideEvent
libKF5Notifications.so.5:_ZN13KPassivePopup9setAnchorERK6QPoint
libKF5Notifications.so.5:_ZN13KPassivePopupC1EP7QWidget6QFlagsIN2Qt10WindowTypeEE
libKF5Notifications.so.5:_ZN13KPassivePopupC1Ey
libKF5Notifications.so.5:_ZN13KPassivePopupC2EP7QWidget6QFlagsIN2Qt10WindowTypeEE
libKF5Notifications.so.5:_ZN13KPassivePopupC2Ey
libKF5Notifications.so.5:_ZN13KPassivePopupD0Ev
libKF5Notifications.so.5:_ZN13KPassivePopupD1Ev
libKF5Notifications.so.5:_ZN13KPassivePopupD2Ev
libKF5Notifications.so.5:_ZN19KNotificationPlugin11qt_metacallEN11QMetaObject4CallEiPPv
libKF5Notifications.so.5:_ZN19KNotificationPlugin11qt_metacastEPKc
libKF5Notifications.so.5:_ZN19KNotificationPlugin13actionInvokedEii
libKF5Notifications.so.5:_ZN19KNotificationPlugin16staticMetaObjectE
libKF5Notifications.so.5:_ZN19KNotificationPlugin5closeEP13KNotification
libKF5Notifications.so.5:_ZN19KNotificationPlugin6finishEP13KNotification
libKF5Notifications.so.5:_ZN19KNotificationPlugin6updateEP13KNotificationP13KNotifyConfig
libKF5Notifications.so.5:_ZN19KNotificationPlugin7repliedEiRK7QString
libKF5Notifications.so.5:_ZN19KNotificationPlugin8finishedEP13KNotification
libKF5Notifications.so.5:_ZN19KNotificationPluginC1EP7QObjectRK5QListI8QVariantE
libKF5Notifications.so.5:_ZN19KNotificationPluginC2EP7QObjectRK5QListI8QVariantE
libKF5Notifications.so.5:_ZN19KNotificationPluginD0Ev
libKF5Notifications.so.5:_ZN19KNotificationPluginD1Ev
libKF5Notifications.so.5:_ZN19KNotificationPluginD2Ev
libKF5Notifications.so.5:_ZN19KStatusNotifierItem10setToolTipERK5QIconRK7QStringS5_
libKF5Notifications.so.5:_ZN19KStatusNotifierItem10setToolTipERK7QStringS2_S2_
libKF5Notifications.so.5:_ZN19KStatusNotifierItem11eventFilterEP7QObjectP6QEvent
libKF5Notifications.so.5:_ZN19KStatusNotifierItem11qt_metacallEN11QMetaObject4CallEiPPv
libKF5Notifications.so.5:_ZN19KStatusNotifierItem11qt_metacastEPKc
libKF5Notifications.so.5:_ZN19KStatusNotifierItem11setCategoryENS_12ItemCategoryE
libKF5Notifications.so.5:_ZN19KStatusNotifierItem11showMessageERK7QStringS2_S2_i
libKF5Notifications.so.5:_ZN19KStatusNotifierItem12removeActionERK7QString
libKF5Notifications.so.5:_ZN19KStatusNotifierItem13setIconByNameERK7QString
libKF5Notifications.so.5:_ZN19KStatusNotifierItem14setContextMenuEP5QMenu
libKF5Notifications.so.5:_ZN19KStatusNotifierItem15scrollRequestedEiN2Qt11OrientationE
libKF5Notifications.so.5:_ZN19KStatusNotifierItem15setIconByPixmapERK5QIcon
libKF5Notifications.so.5:_ZN19KStatusNotifierItem15setToolTipTitleERK7QString
libKF5Notifications.so.5:_ZN19KStatusNotifierItem16staticMetaObjectE
libKF5Notifications.so.5:_ZN19KStatusNotifierItem17activateRequestedEbRK6QPoint
libKF5Notifications.so.5:_ZN19KStatusNotifierItem18setToolTipSubTitleERK7QString
libKF5Notifications.so.5:_ZN19KStatusNotifierItem19setAssociatedWidgetEP7QWidget
libKF5Notifications.so.5:_ZN19KStatusNotifierItem20setOverlayIconByNameERK7QString
libKF5Notifications.so.5:_ZN19KStatusNotifierItem20setToolTipIconByNameERK7QString
libKF5Notifications.so.5:_ZN19KStatusNotifierItem22setAttentionIconByNameERK7QString
libKF5Notifications.so.5:_ZN19KStatusNotifierItem22setOverlayIconByPixmapERK5QIcon
libKF5Notifications.so.5:_ZN19KStatusNotifierItem22setToolTipIconByPixmapERK5QIcon
libKF5Notifications.so.5:_ZN19KStatusNotifierItem23setAttentionMovieByNameERK7QString
libKF5Notifications.so.5:_ZN19KStatusNotifierItem24setAttentionIconByPixmapERK5QIcon
libKF5Notifications.so.5:_ZN19KStatusNotifierItem25setStandardActionsEnabledEb
libKF5Notifications.so.5:_ZN19KStatusNotifierItem26secondaryActivateRequestedERK6QPoint
libKF5Notifications.so.5:_ZN19KStatusNotifierItem8activateERK6QPoint
libKF5Notifications.so.5:_ZN19KStatusNotifierItem8setTitleERK7QString
libKF5Notifications.so.5:_ZN19KStatusNotifierItem9addActionERK7QStringP7QAction
libKF5Notifications.so.5:_ZN19KStatusNotifierItem9setStatusENS_10ItemStatusE
libKF5Notifications.so.5:_ZN19KStatusNotifierItemC1EP7QObject
libKF5Notifications.so.5:_ZN19KStatusNotifierItemC1ERK7QStringP7QObject
libKF5Notifications.so.5:_ZN19KStatusNotifierItemC2EP7QObject
libKF5Notifications.so.5:_ZN19KStatusNotifierItemC2ERK7QStringP7QObject
libKF5Notifications.so.5:_ZN19KStatusNotifierItemD0Ev
libKF5Notifications.so.5:_ZN19KStatusNotifierItemD1Ev
libKF5Notifications.so.5:_ZN19KStatusNotifierItemD2Ev
libKF5Notifications.so.5:_ZN24KNotificationReplyAction11qt_metacallEN11QMetaObject4CallEiPPv
libKF5Notifications.so.5:_ZN24KNotificationReplyAction11qt_metacastEPKc
libKF5Notifications.so.5:_ZN24KNotificationReplyAction16staticMetaObjectE
libKF5Notifications.so.5:_ZN24KNotificationReplyAction18setPlaceholderTextERK7QString
libKF5Notifications.so.5:_ZN24KNotificationReplyAction19setFallbackBehaviorENS_16FallbackBehaviorE
libKF5Notifications.so.5:_ZN24KNotificationReplyAction19setSubmitButtonTextERK7QString
libKF5Notifications.so.5:_ZN24KNotificationReplyAction23setSubmitButtonIconNameERK7QString
libKF5Notifications.so.5:_ZN24KNotificationReplyAction7repliedERK7QString
libKF5Notifications.so.5:_ZN24KNotificationReplyAction8setLabelERK7QString
libKF5Notifications.so.5:_ZN24KNotificationReplyAction9activatedEv
libKF5Notifications.so.5:_ZN24KNotificationReplyActionC1ERK7QString
libKF5Notifications.so.5:_ZN24KNotificationReplyActionC2ERK7QString
libKF5Notifications.so.5:_ZN24KNotificationReplyActionD0Ev
libKF5Notifications.so.5:_ZN24KNotificationReplyActionD1Ev
libKF5Notifications.so.5:_ZN24KNotificationReplyActionD2Ev
libKF5Notifications.so.5:_ZN25KNotificationRestrictions11qt_metacallEN11QMetaObject4CallEiPPv
libKF5Notifications.so.5:_ZN25KNotificationRestrictions11qt_metacastEPKc
libKF5Notifications.so.5:_ZN25KNotificationRestrictions16staticMetaObjectE
libKF5Notifications.so.5:_ZN25KNotificationRestrictionsC1E6QFlagsINS_7ServiceEEP7QObject
libKF5Notifications.so.5:_ZN25KNotificationRestrictionsC1E6QFlagsINS_7ServiceEERK7QStringP7QObject
libKF5Notifications.so.5:_ZN25KNotificationRestrictionsC2E6QFlagsINS_7ServiceEEP7QObject
libKF5Notifications.so.5:_ZN25KNotificationRestrictionsC2E6QFlagsINS_7ServiceEERK7QStringP7QObject
libKF5Notifications.so.5:_ZN25KNotificationRestrictionsD0Ev
libKF5Notifications.so.5:_ZN25KNotificationRestrictionsD1Ev
libKF5Notifications.so.5:_ZN25KNotificationRestrictionsD2Ev
libKF5Notifications.so.5:_ZN26KNotificationJobUiDelegate11qt_metacallEN11QMetaObject4CallEiPPv
libKF5Notifications.so.5:_ZN26KNotificationJobUiDelegate11qt_metacastEPKc
libKF5Notifications.so.5:_ZN26KNotificationJobUiDelegate11slotWarningEP4KJobRK7QStringS4_
libKF5Notifications.so.5:_ZN26KNotificationJobUiDelegate16showErrorMessageEv
libKF5Notifications.so.5:_ZN26KNotificationJobUiDelegate16staticMetaObjectE
libKF5Notifications.so.5:_ZN26KNotificationJobUiDelegate6setJobEP4KJob
libKF5Notifications.so.5:_ZN26KNotificationJobUiDelegateC1E6QFlagsIN14KJobUiDelegate4FlagEE
libKF5Notifications.so.5:_ZN26KNotificationJobUiDelegateC1Ev
libKF5Notifications.so.5:_ZN26KNotificationJobUiDelegateC2E6QFlagsIN14KJobUiDelegate4FlagEE
libKF5Notifications.so.5:_ZN26KNotificationJobUiDelegateC2Ev
libKF5Notifications.so.5:_ZN26KNotificationJobUiDelegateD0Ev
libKF5Notifications.so.5:_ZN26KNotificationJobUiDelegateD1Ev
libKF5Notifications.so.5:_ZN26KNotificationJobUiDelegateD2Ev
libKF5Notifications.so.5:_ZNK13KNotification10metaObjectEv
libKF5Notifications.so.5:_ZNK13KNotification11replyActionEv
libKF5Notifications.so.5:_ZNK13KNotification13defaultActionEv
libKF5Notifications.so.5:_ZNK13KNotification4textEv
libKF5Notifications.so.5:_ZNK13KNotification4urlsEv
libKF5Notifications.so.5:_ZNK13KNotification5flagsEv
libKF5Notifications.so.5:_ZNK13KNotification5hintsEv
libKF5Notifications.so.5:_ZNK13KNotification5titleEv
libKF5Notifications.so.5:_ZNK13KNotification6pixmapEv
libKF5Notifications.so.5:_ZNK13KNotification6widgetEv
libKF5Notifications.so.5:_ZNK13KNotification7actionsEv
libKF5Notifications.so.5:_ZNK13KNotification7appNameEv
libKF5Notifications.so.5:_ZNK13KNotification7eventIdEv
libKF5Notifications.so.5:_ZNK13KNotification7urgencyEv
libKF5Notifications.so.5:_ZNK13KNotification8contextsEv
libKF5Notifications.so.5:_ZNK13KNotification8iconNameEv
libKF5Notifications.so.5:_ZNK13KNotifyConfig4copyEv
libKF5Notifications.so.5:_ZNK13KPassivePopup10autoDeleteEv
libKF5Notifications.so.5:_ZNK13KPassivePopup10metaObjectEv
libKF5Notifications.so.5:_ZNK13KPassivePopup15defaultLocationEv
libKF5Notifications.so.5:_ZNK13KPassivePopup4viewEv
libKF5Notifications.so.5:_ZNK13KPassivePopup6anchorEv
libKF5Notifications.so.5:_ZNK13KPassivePopup7timeoutEv
libKF5Notifications.so.5:_ZNK19KNotificationPlugin10metaObjectEv
libKF5Notifications.so.5:_ZNK19KStatusNotifierItem10iconPixmapEv
libKF5Notifications.so.5:_ZNK19KStatusNotifierItem10metaObjectEv
libKF5Notifications.so.5:_ZNK19KStatusNotifierItem11contextMenuEv
libKF5Notifications.so.5:_ZNK19KStatusNotifierItem12toolTipTitleEv
libKF5Notifications.so.5:_ZNK19KStatusNotifierItem13providedTokenEv
libKF5Notifications.so.5:_ZNK19KStatusNotifierItem15overlayIconNameEv
libKF5Notifications.so.5:_ZNK19KStatusNotifierItem15toolTipIconNameEv
libKF5Notifications.so.5:_ZNK19KStatusNotifierItem15toolTipSubTitleEv
libKF5Notifications.so.5:_ZNK19KStatusNotifierItem16actionCollectionEv
libKF5Notifications.so.5:_ZNK19KStatusNotifierItem16associatedWidgetEv
libKF5Notifications.so.5:_ZNK19KStatusNotifierItem17attentionIconNameEv
libKF5Notifications.so.5:_ZNK19KStatusNotifierItem17overlayIconPixmapEv
libKF5Notifications.so.5:_ZNK19KStatusNotifierItem17toolTipIconPixmapEv
libKF5Notifications.so.5:_ZNK19KStatusNotifierItem18attentionMovieNameEv
libKF5Notifications.so.5:_ZNK19KStatusNotifierItem19attentionIconPixmapEv
libKF5Notifications.so.5:_ZNK19KStatusNotifierItem22standardActionsEnabledEv
libKF5Notifications.so.5:_ZNK19KStatusNotifierItem2idEv
libKF5Notifications.so.5:_ZNK19KStatusNotifierItem5titleEv
libKF5Notifications.so.5:_ZNK19KStatusNotifierItem6actionERK7QString
libKF5Notifications.so.5:_ZNK19KStatusNotifierItem6statusEv
libKF5Notifications.so.5:_ZNK19KStatusNotifierItem8categoryEv
libKF5Notifications.so.5:_ZNK19KStatusNotifierItem8iconNameEv
libKF5Notifications.so.5:_ZNK24KNotificationReplyAction10metaObjectEv
libKF5Notifications.so.5:_ZNK24KNotificationReplyAction15placeholderTextEv
libKF5Notifications.so.5:_ZNK24KNotificationReplyAction16fallbackBehaviorEv
libKF5Notifications.so.5:_ZNK24KNotificationReplyAction16submitButtonTextEv
libKF5Notifications.so.5:_ZNK24KNotificationReplyAction20submitButtonIconNameEv
libKF5Notifications.so.5:_ZNK24KNotificationReplyAction5labelEv
libKF5Notifications.so.5:_ZNK25KNotificationRestrictions10metaObjectEv
libKF5Notifications.so.5:_ZNK26KNotificationJobUiDelegate10metaObjectEv
libKF5Notifications.so.5:_ZTI13KNotification
libKF5Notifications.so.5:_ZTI13KPassivePopup
libKF5Notifications.so.5:_ZTI19KNotificationPlugin
libKF5Notifications.so.5:_ZTI19KStatusNotifierItem
libKF5Notifications.so.5:_ZTI24KNotificationReplyAction
libKF5Notifications.so.5:_ZTI25KNotificationRestrictions
libKF5Notifications.so.5:_ZTI26KNotificationJobUiDelegate
libKF5Notifications.so.5:_ZTS13KNotification
libKF5Notifications.so.5:_ZTS13KPassivePopup
libKF5Notifications.so.5:_ZTS19KNotificationPlugin
libKF5Notifications.so.5:_ZTS19KStatusNotifierItem
libKF5Notifications.so.5:_ZTS24KNotificationReplyAction
libKF5Notifications.so.5:_ZTS25KNotificationRestrictions
libKF5Notifications.so.5:_ZTS26KNotificationJobUiDelegate
libKF5Notifications.so.5:_ZTV13KNotification
libKF5Notifications.so.5:_ZTV13KPassivePopup
libKF5Notifications.so.5:_ZTV19KNotificationPlugin
libKF5Notifications.so.5:_ZTV19KStatusNotifierItem
libKF5Notifications.so.5:_ZTV24KNotificationReplyAction
libKF5Notifications.so.5:_ZTV25KNotificationRestrictions
libKF5Notifications.so.5:_ZTV26KNotificationJobUiDelegate
libKF5Notifications.so.5:_ZThn16_N13KPassivePopupD0Ev
libKF5Notifications.so.5:_ZThn16_N13KPassivePopupD1Ev
libKF5Notifications.so.5:__bss_start
libKF5Notifications.so.5:_edata
libKF5Notifications.so.5:_end
