libodfgen-0.1.so.1:_ZN12OdgGenerator10closeGroupEv
libodfgen-0.1.so.1:_ZN12OdgGenerator10insertTextERKN10librevenge10RVNGStringE
libodfgen-0.1.so.1:_ZN12OdgGenerator10startLayerERKN10librevenge16RVNGPropertyListE
libodfgen-0.1.so.1:_ZN12OdgGenerator11drawEllipseERKN10librevenge16RVNGPropertyListE
libodfgen-0.1.so.1:_ZN12OdgGenerator11drawPolygonERKN10librevenge16RVNGPropertyListE
libodfgen-0.1.so.1:_ZN12OdgGenerator11endDocumentEv
libodfgen-0.1.so.1:_ZN12OdgGenerator11insertFieldERKN10librevenge16RVNGPropertyListE
libodfgen-0.1.so.1:_ZN12OdgGenerator11insertSpaceEv
libodfgen-0.1.so.1:_ZN12OdgGenerator12drawPolylineERKN10librevenge16RVNGPropertyListE
libodfgen-0.1.so.1:_ZN12OdgGenerator12openTableRowERKN10librevenge16RVNGPropertyListE
libodfgen-0.1.so.1:_ZN12OdgGenerator13closeTableRowEv
libodfgen-0.1.so.1:_ZN12OdgGenerator13drawConnectorERKN10librevenge16RVNGPropertyListE
libodfgen-0.1.so.1:_ZN12OdgGenerator13drawRectangleERKN10librevenge16RVNGPropertyListE
libodfgen-0.1.so.1:_ZN12OdgGenerator13endMasterPageEv
libodfgen-0.1.so.1:_ZN12OdgGenerator13endTextObjectEv
libodfgen-0.1.so.1:_ZN12OdgGenerator13initStateWithERK12OdfGenerator
libodfgen-0.1.so.1:_ZN12OdgGenerator13openParagraphERKN10librevenge16RVNGPropertyListE
libodfgen-0.1.so.1:_ZN12OdgGenerator13openTableCellERKN10librevenge16RVNGPropertyListE
libodfgen-0.1.so.1:_ZN12OdgGenerator13startDocumentERKN10librevenge16RVNGPropertyListE
libodfgen-0.1.so.1:_ZN12OdgGenerator14closeParagraphEv
libodfgen-0.1.so.1:_ZN12OdgGenerator14closeTableCellEv
libodfgen-0.1.so.1:_ZN12OdgGenerator14endTableObjectEv
libodfgen-0.1.so.1:_ZN12OdgGenerator15insertLineBreakEv
libodfgen-0.1.so.1:_ZN12OdgGenerator15openListElementERKN10librevenge16RVNGPropertyListE
libodfgen-0.1.so.1:_ZN12OdgGenerator15startMasterPageERKN10librevenge16RVNGPropertyListE
libodfgen-0.1.so.1:_ZN12OdgGenerator15startTextObjectERKN10librevenge16RVNGPropertyListE
libodfgen-0.1.so.1:_ZN12OdgGenerator16closeListElementEv
libodfgen-0.1.so.1:_ZN12OdgGenerator16getObjectContentERKN10librevenge10RVNGStringEP18OdfDocumentHandler
libodfgen-0.1.so.1:_ZN12OdgGenerator16startTableObjectERKN10librevenge16RVNGPropertyListE
libodfgen-0.1.so.1:_ZN12OdgGenerator17drawGraphicObjectERKN10librevenge16RVNGPropertyListE
libodfgen-0.1.so.1:_ZN12OdgGenerator18addDocumentHandlerEP18OdfDocumentHandler13OdfStreamType
libodfgen-0.1.so.1:_ZN12OdgGenerator18defineEmbeddedFontERKN10librevenge16RVNGPropertyListE
libodfgen-0.1.so.1:_ZN12OdgGenerator19endEmbeddedGraphicsEv
libodfgen-0.1.so.1:_ZN12OdgGenerator19setDocumentMetaDataERKN10librevenge16RVNGPropertyListE
libodfgen-0.1.so.1:_ZN12OdgGenerator20defineCharacterStyleERKN10librevenge16RVNGPropertyListE
libodfgen-0.1.so.1:_ZN12OdgGenerator20defineParagraphStyleERKN10librevenge16RVNGPropertyListE
libodfgen-0.1.so.1:_ZN12OdgGenerator20openOrderedListLevelERKN10librevenge16RVNGPropertyListE
libodfgen-0.1.so.1:_ZN12OdgGenerator21closeOrderedListLevelEv
libodfgen-0.1.so.1:_ZN12OdgGenerator21startEmbeddedGraphicsERKN10librevenge16RVNGPropertyListE
libodfgen-0.1.so.1:_ZN12OdgGenerator22insertCoveredTableCellERKN10librevenge16RVNGPropertyListE
libodfgen-0.1.so.1:_ZN12OdgGenerator22openUnorderedListLevelERKN10librevenge16RVNGPropertyListE
libodfgen-0.1.so.1:_ZN12OdgGenerator23closeUnorderedListLevelEv
libodfgen-0.1.so.1:_ZN12OdgGenerator28registerEmbeddedImageHandlerERKN10librevenge10RVNGStringEPFbRKNS0_14RVNGBinaryDataERS4_E
libodfgen-0.1.so.1:_ZN12OdgGenerator29registerEmbeddedObjectHandlerERKN10librevenge10RVNGStringEPFbRKNS0_14RVNGBinaryDataEP18OdfDocumentHandler13OdfStreamTypeE
libodfgen-0.1.so.1:_ZN12OdgGenerator7endPageEv
libodfgen-0.1.so.1:_ZN12OdgGenerator8drawPathERKN10librevenge16RVNGPropertyListE
libodfgen-0.1.so.1:_ZN12OdgGenerator8endLayerEv
libodfgen-0.1.so.1:_ZN12OdgGenerator8openLinkERKN10librevenge16RVNGPropertyListE
libodfgen-0.1.so.1:_ZN12OdgGenerator8openSpanERKN10librevenge16RVNGPropertyListE
libodfgen-0.1.so.1:_ZN12OdgGenerator8setStyleERKN10librevenge16RVNGPropertyListE
libodfgen-0.1.so.1:_ZN12OdgGenerator9closeLinkEv
libodfgen-0.1.so.1:_ZN12OdgGenerator9closeSpanEv
libodfgen-0.1.so.1:_ZN12OdgGenerator9insertTabEv
libodfgen-0.1.so.1:_ZN12OdgGenerator9openGroupERKN10librevenge16RVNGPropertyListE
libodfgen-0.1.so.1:_ZN12OdgGenerator9startPageERKN10librevenge16RVNGPropertyListE
libodfgen-0.1.so.1:_ZN12OdgGeneratorC1Ev
libodfgen-0.1.so.1:_ZN12OdgGeneratorC2Ev
libodfgen-0.1.so.1:_ZN12OdgGeneratorD0Ev
libodfgen-0.1.so.1:_ZN12OdgGeneratorD1Ev
libodfgen-0.1.so.1:_ZN12OdgGeneratorD2Ev
libodfgen-0.1.so.1:_ZN12OdpGenerator10closeChartEv
libodfgen-0.1.so.1:_ZN12OdpGenerator10closeGroupEv
libodfgen-0.1.so.1:_ZN12OdpGenerator10endCommentEv
libodfgen-0.1.so.1:_ZN12OdpGenerator10insertTextERKN10librevenge10RVNGStringE
libodfgen-0.1.so.1:_ZN12OdpGenerator10startLayerERKN10librevenge16RVNGPropertyListE
libodfgen-0.1.so.1:_ZN12OdpGenerator10startNotesERKN10librevenge16RVNGPropertyListE
libodfgen-0.1.so.1:_ZN12OdpGenerator10startSlideERKN10librevenge16RVNGPropertyListE
libodfgen-0.1.so.1:_ZN12OdpGenerator11drawEllipseERKN10librevenge16RVNGPropertyListE
libodfgen-0.1.so.1:_ZN12OdpGenerator11drawPolygonERKN10librevenge16RVNGPropertyListE
libodfgen-0.1.so.1:_ZN12OdpGenerator11endDocumentEv
libodfgen-0.1.so.1:_ZN12OdpGenerator11insertFieldERKN10librevenge16RVNGPropertyListE
libodfgen-0.1.so.1:_ZN12OdpGenerator11insertSpaceEv
libodfgen-0.1.so.1:_ZN12OdpGenerator12drawPolylineERKN10librevenge16RVNGPropertyListE
libodfgen-0.1.so.1:_ZN12OdpGenerator12insertEffectERKN10librevenge16RVNGPropertyListE
libodfgen-0.1.so.1:_ZN12OdpGenerator12openTableRowERKN10librevenge16RVNGPropertyListE
libodfgen-0.1.so.1:_ZN12OdpGenerator12startCommentERKN10librevenge16RVNGPropertyListE
libodfgen-0.1.so.1:_ZN12OdpGenerator13closeTableRowEv
libodfgen-0.1.so.1:_ZN12OdpGenerator13drawConnectorERKN10librevenge16RVNGPropertyListE
libodfgen-0.1.so.1:_ZN12OdpGenerator13drawRectangleERKN10librevenge16RVNGPropertyListE
libodfgen-0.1.so.1:_ZN12OdpGenerator13endTextObjectEv
libodfgen-0.1.so.1:_ZN12OdpGenerator13initStateWithERK12OdfGenerator
libodfgen-0.1.so.1:_ZN12OdpGenerator13openParagraphERKN10librevenge16RVNGPropertyListE
libodfgen-0.1.so.1:_ZN12OdpGenerator13openTableCellERKN10librevenge16RVNGPropertyListE
libodfgen-0.1.so.1:_ZN12OdpGenerator13startDocumentERKN10librevenge16RVNGPropertyListE
libodfgen-0.1.so.1:_ZN12OdpGenerator14closeParagraphEv
libodfgen-0.1.so.1:_ZN12OdpGenerator14closeTableCellEv
libodfgen-0.1.so.1:_ZN12OdpGenerator14endMasterSlideEv
libodfgen-0.1.so.1:_ZN12OdpGenerator14endTableObjectEv
libodfgen-0.1.so.1:_ZN12OdpGenerator15insertAnimationERKN10librevenge16RVNGPropertyListE
libodfgen-0.1.so.1:_ZN12OdpGenerator15insertChartAxisERKN10librevenge16RVNGPropertyListE
libodfgen-0.1.so.1:_ZN12OdpGenerator15insertLineBreakEv
libodfgen-0.1.so.1:_ZN12OdpGenerator15openChartSeriesERKN10librevenge16RVNGPropertyListE
libodfgen-0.1.so.1:_ZN12OdpGenerator15openListElementERKN10librevenge16RVNGPropertyListE
libodfgen-0.1.so.1:_ZN12OdpGenerator15startTextObjectERKN10librevenge16RVNGPropertyListE
libodfgen-0.1.so.1:_ZN12OdpGenerator16closeChartSeriesEv
libodfgen-0.1.so.1:_ZN12OdpGenerator16closeListElementEv
libodfgen-0.1.so.1:_ZN12OdpGenerator16defineChartStyleERKN10librevenge16RVNGPropertyListE
libodfgen-0.1.so.1:_ZN12OdpGenerator16getObjectContentERKN10librevenge10RVNGStringEP18OdfDocumentHandler
libodfgen-0.1.so.1:_ZN12OdpGenerator16startMasterSlideERKN10librevenge16RVNGPropertyListE
libodfgen-0.1.so.1:_ZN12OdpGenerator16startTableObjectERKN10librevenge16RVNGPropertyListE
libodfgen-0.1.so.1:_ZN12OdpGenerator17drawGraphicObjectERKN10librevenge16RVNGPropertyListE
libodfgen-0.1.so.1:_ZN12OdpGenerator17openChartPlotAreaERKN10librevenge16RVNGPropertyListE
libodfgen-0.1.so.1:_ZN12OdpGenerator18addDocumentHandlerEP18OdfDocumentHandler13OdfStreamType
libodfgen-0.1.so.1:_ZN12OdpGenerator18closeChartPlotAreaEv
libodfgen-0.1.so.1:_ZN12OdpGenerator18defineEmbeddedFontERKN10librevenge16RVNGPropertyListE
libodfgen-0.1.so.1:_ZN12OdpGenerator18openAnimationGroupERKN10librevenge16RVNGPropertyListE
libodfgen-0.1.so.1:_ZN12OdpGenerator18setSlideTransitionERKN10librevenge16RVNGPropertyListE
libodfgen-0.1.so.1:_ZN12OdpGenerator19closeAnimationGroupEv
libodfgen-0.1.so.1:_ZN12OdpGenerator19endEmbeddedGraphicsEv
libodfgen-0.1.so.1:_ZN12OdpGenerator19openChartTextObjectERKN10librevenge16RVNGPropertyListE
libodfgen-0.1.so.1:_ZN12OdpGenerator19setDocumentMetaDataERKN10librevenge16RVNGPropertyListE
libodfgen-0.1.so.1:_ZN12OdpGenerator20closeChartTextObjectEv
libodfgen-0.1.so.1:_ZN12OdpGenerator20defineCharacterStyleERKN10librevenge16RVNGPropertyListE
libodfgen-0.1.so.1:_ZN12OdpGenerator20defineParagraphStyleERKN10librevenge16RVNGPropertyListE
libodfgen-0.1.so.1:_ZN12OdpGenerator20insertColorAnimationERKN10librevenge16RVNGPropertyListE
libodfgen-0.1.so.1:_ZN12OdpGenerator20openOrderedListLevelERKN10librevenge16RVNGPropertyListE
libodfgen-0.1.so.1:_ZN12OdpGenerator21closeOrderedListLevelEv
libodfgen-0.1.so.1:_ZN12OdpGenerator21insertMotionAnimationERKN10librevenge16RVNGPropertyListE
libodfgen-0.1.so.1:_ZN12OdpGenerator21openAnimationSequenceERKN10librevenge16RVNGPropertyListE
libodfgen-0.1.so.1:_ZN12OdpGenerator21startEmbeddedGraphicsERKN10librevenge16RVNGPropertyListE
libodfgen-0.1.so.1:_ZN12OdpGenerator22closeAnimationSequenceEv
libodfgen-0.1.so.1:_ZN12OdpGenerator22insertCoveredTableCellERKN10librevenge16RVNGPropertyListE
libodfgen-0.1.so.1:_ZN12OdpGenerator22openAnimationIterationERKN10librevenge16RVNGPropertyListE
libodfgen-0.1.so.1:_ZN12OdpGenerator22openUnorderedListLevelERKN10librevenge16RVNGPropertyListE
libodfgen-0.1.so.1:_ZN12OdpGenerator23closeAnimationIterationEv
libodfgen-0.1.so.1:_ZN12OdpGenerator23closeUnorderedListLevelEv
libodfgen-0.1.so.1:_ZN12OdpGenerator28registerEmbeddedImageHandlerERKN10librevenge10RVNGStringEPFbRKNS0_14RVNGBinaryDataERS4_E
libodfgen-0.1.so.1:_ZN12OdpGenerator29registerEmbeddedObjectHandlerERKN10librevenge10RVNGStringEPFbRKNS0_14RVNGBinaryDataEP18OdfDocumentHandler13OdfStreamTypeE
libodfgen-0.1.so.1:_ZN12OdpGenerator8drawPathERKN10librevenge16RVNGPropertyListE
libodfgen-0.1.so.1:_ZN12OdpGenerator8endLayerEv
libodfgen-0.1.so.1:_ZN12OdpGenerator8endNotesEv
libodfgen-0.1.so.1:_ZN12OdpGenerator8endSlideEv
libodfgen-0.1.so.1:_ZN12OdpGenerator8openLinkERKN10librevenge16RVNGPropertyListE
libodfgen-0.1.so.1:_ZN12OdpGenerator8openSpanERKN10librevenge16RVNGPropertyListE
libodfgen-0.1.so.1:_ZN12OdpGenerator8setStyleERKN10librevenge16RVNGPropertyListE
libodfgen-0.1.so.1:_ZN12OdpGenerator9closeLinkEv
libodfgen-0.1.so.1:_ZN12OdpGenerator9closeSpanEv
libodfgen-0.1.so.1:_ZN12OdpGenerator9insertTabEv
libodfgen-0.1.so.1:_ZN12OdpGenerator9openChartERKN10librevenge16RVNGPropertyListE
libodfgen-0.1.so.1:_ZN12OdpGenerator9openGroupERKN10librevenge16RVNGPropertyListE
libodfgen-0.1.so.1:_ZN12OdpGeneratorC1Ev
libodfgen-0.1.so.1:_ZN12OdpGeneratorC2Ev
libodfgen-0.1.so.1:_ZN12OdpGeneratorD0Ev
libodfgen-0.1.so.1:_ZN12OdpGeneratorD1Ev
libodfgen-0.1.so.1:_ZN12OdpGeneratorD2Ev
libodfgen-0.1.so.1:_ZN12OdsGenerator10closeChartEv
libodfgen-0.1.so.1:_ZN12OdsGenerator10closeFrameEv
libodfgen-0.1.so.1:_ZN12OdsGenerator10closeGroupEv
libodfgen-0.1.so.1:_ZN12OdsGenerator10closeSheetEv
libodfgen-0.1.so.1:_ZN12OdsGenerator10closeTableEv
libodfgen-0.1.so.1:_ZN12OdsGenerator10insertTextERKN10librevenge10RVNGStringE
libodfgen-0.1.so.1:_ZN12OdsGenerator10openFooterERKN10librevenge16RVNGPropertyListE
libodfgen-0.1.so.1:_ZN12OdsGenerator10openHeaderERKN10librevenge16RVNGPropertyListE
libodfgen-0.1.so.1:_ZN12OdsGenerator11closeFooterEv
libodfgen-0.1.so.1:_ZN12OdsGenerator11closeHeaderEv
libodfgen-0.1.so.1:_ZN12OdsGenerator11drawEllipseERKN10librevenge16RVNGPropertyListE
libodfgen-0.1.so.1:_ZN12OdsGenerator11drawPolygonERKN10librevenge16RVNGPropertyListE
libodfgen-0.1.so.1:_ZN12OdsGenerator11endDocumentEv
libodfgen-0.1.so.1:_ZN12OdsGenerator11insertFieldERKN10librevenge16RVNGPropertyListE
libodfgen-0.1.so.1:_ZN12OdsGenerator11insertSpaceEv
libodfgen-0.1.so.1:_ZN12OdsGenerator11openCommentERKN10librevenge16RVNGPropertyListE
libodfgen-0.1.so.1:_ZN12OdsGenerator11openSectionERKN10librevenge16RVNGPropertyListE
libodfgen-0.1.so.1:_ZN12OdsGenerator11openTextBoxERKN10librevenge16RVNGPropertyListE
libodfgen-0.1.so.1:_ZN12OdsGenerator12closeCommentEv
libodfgen-0.1.so.1:_ZN12OdsGenerator12closeSectionEv
libodfgen-0.1.so.1:_ZN12OdsGenerator12closeTextBoxEv
libodfgen-0.1.so.1:_ZN12OdsGenerator12drawPolylineERKN10librevenge16RVNGPropertyListE
libodfgen-0.1.so.1:_ZN12OdsGenerator12openFootnoteERKN10librevenge16RVNGPropertyListE
libodfgen-0.1.so.1:_ZN12OdsGenerator12openPageSpanERKN10librevenge16RVNGPropertyListE
libodfgen-0.1.so.1:_ZN12OdsGenerator12openSheetRowERKN10librevenge16RVNGPropertyListE
libodfgen-0.1.so.1:_ZN12OdsGenerator12openTableRowERKN10librevenge16RVNGPropertyListE
libodfgen-0.1.so.1:_ZN12OdsGenerator13closeFootnoteEv
libodfgen-0.1.so.1:_ZN12OdsGenerator13closePageSpanEv
libodfgen-0.1.so.1:_ZN12OdsGenerator13closeSheetRowEv
libodfgen-0.1.so.1:_ZN12OdsGenerator13closeTableRowEv
libodfgen-0.1.so.1:_ZN12OdsGenerator13drawConnectorERKN10librevenge16RVNGPropertyListE
libodfgen-0.1.so.1:_ZN12OdsGenerator13drawRectangleERKN10librevenge16RVNGPropertyListE
libodfgen-0.1.so.1:_ZN12OdsGenerator13initStateWithERK12OdfGenerator
libodfgen-0.1.so.1:_ZN12OdsGenerator13openParagraphERKN10librevenge16RVNGPropertyListE
libodfgen-0.1.so.1:_ZN12OdsGenerator13openSheetCellERKN10librevenge16RVNGPropertyListE
libodfgen-0.1.so.1:_ZN12OdsGenerator13openTableCellERKN10librevenge16RVNGPropertyListE
libodfgen-0.1.so.1:_ZN12OdsGenerator13startDocumentERKN10librevenge16RVNGPropertyListE
libodfgen-0.1.so.1:_ZN12OdsGenerator14closeParagraphEv
libodfgen-0.1.so.1:_ZN12OdsGenerator14closeSheetCellEv
libodfgen-0.1.so.1:_ZN12OdsGenerator14closeTableCellEv
libodfgen-0.1.so.1:_ZN12OdsGenerator14insertEquationERKN10librevenge16RVNGPropertyListE
libodfgen-0.1.so.1:_ZN12OdsGenerator14openChartSerieERKN10librevenge16RVNGPropertyListE
libodfgen-0.1.so.1:_ZN12OdsGenerator15closeChartSerieEv
libodfgen-0.1.so.1:_ZN12OdsGenerator15insertChartAxisERKN10librevenge16RVNGPropertyListE
libodfgen-0.1.so.1:_ZN12OdsGenerator15insertLineBreakEv
libodfgen-0.1.so.1:_ZN12OdsGenerator15openListElementERKN10librevenge16RVNGPropertyListE
libodfgen-0.1.so.1:_ZN12OdsGenerator16closeListElementEv
libodfgen-0.1.so.1:_ZN12OdsGenerator16defineChartStyleERKN10librevenge16RVNGPropertyListE
libodfgen-0.1.so.1:_ZN12OdsGenerator16getObjectContentERKN10librevenge10RVNGStringEP18OdfDocumentHandler
libodfgen-0.1.so.1:_ZN12OdsGenerator17openChartPlotAreaERKN10librevenge16RVNGPropertyListE
libodfgen-0.1.so.1:_ZN12OdsGenerator18addDocumentHandlerEP18OdfDocumentHandler13OdfStreamType
libodfgen-0.1.so.1:_ZN12OdsGenerator18closeChartPlotAreaEv
libodfgen-0.1.so.1:_ZN12OdsGenerator18defineEmbeddedFontERKN10librevenge16RVNGPropertyListE
libodfgen-0.1.so.1:_ZN12OdsGenerator18defineGraphicStyleERKN10librevenge16RVNGPropertyListE
libodfgen-0.1.so.1:_ZN12OdsGenerator18insertBinaryObjectERKN10librevenge16RVNGPropertyListE
libodfgen-0.1.so.1:_ZN12OdsGenerator19openChartTextObjectERKN10librevenge16RVNGPropertyListE
libodfgen-0.1.so.1:_ZN12OdsGenerator19setDocumentMetaDataERKN10librevenge16RVNGPropertyListE
libodfgen-0.1.so.1:_ZN12OdsGenerator20closeChartTextObjectEv
libodfgen-0.1.so.1:_ZN12OdsGenerator20defineCharacterStyleERKN10librevenge16RVNGPropertyListE
libodfgen-0.1.so.1:_ZN12OdsGenerator20defineParagraphStyleERKN10librevenge16RVNGPropertyListE
libodfgen-0.1.so.1:_ZN12OdsGenerator20openOrderedListLevelERKN10librevenge16RVNGPropertyListE
libodfgen-0.1.so.1:_ZN12OdsGenerator21closeOrderedListLevelEv
libodfgen-0.1.so.1:_ZN12OdsGenerator22insertCoveredTableCellERKN10librevenge16RVNGPropertyListE
libodfgen-0.1.so.1:_ZN12OdsGenerator22openUnorderedListLevelERKN10librevenge16RVNGPropertyListE
libodfgen-0.1.so.1:_ZN12OdsGenerator23closeUnorderedListLevelEv
libodfgen-0.1.so.1:_ZN12OdsGenerator25defineSheetNumberingStyleERKN10librevenge16RVNGPropertyListE
libodfgen-0.1.so.1:_ZN12OdsGenerator28registerEmbeddedImageHandlerERKN10librevenge10RVNGStringEPFbRKNS0_14RVNGBinaryDataERS4_E
libodfgen-0.1.so.1:_ZN12OdsGenerator29registerEmbeddedObjectHandlerERKN10librevenge10RVNGStringEPFbRKNS0_14RVNGBinaryDataEP18OdfDocumentHandler13OdfStreamTypeE
libodfgen-0.1.so.1:_ZN12OdsGenerator8drawPathERKN10librevenge16RVNGPropertyListE
libodfgen-0.1.so.1:_ZN12OdsGenerator8openLinkERKN10librevenge16RVNGPropertyListE
libodfgen-0.1.so.1:_ZN12OdsGenerator8openSpanERKN10librevenge16RVNGPropertyListE
libodfgen-0.1.so.1:_ZN12OdsGenerator9closeLinkEv
libodfgen-0.1.so.1:_ZN12OdsGenerator9closeSpanEv
libodfgen-0.1.so.1:_ZN12OdsGenerator9insertTabEv
libodfgen-0.1.so.1:_ZN12OdsGenerator9openChartERKN10librevenge16RVNGPropertyListE
libodfgen-0.1.so.1:_ZN12OdsGenerator9openFrameERKN10librevenge16RVNGPropertyListE
libodfgen-0.1.so.1:_ZN12OdsGenerator9openGroupERKN10librevenge16RVNGPropertyListE
libodfgen-0.1.so.1:_ZN12OdsGenerator9openSheetERKN10librevenge16RVNGPropertyListE
libodfgen-0.1.so.1:_ZN12OdsGenerator9openTableERKN10librevenge16RVNGPropertyListE
libodfgen-0.1.so.1:_ZN12OdsGeneratorC1Ev
libodfgen-0.1.so.1:_ZN12OdsGeneratorC2Ev
libodfgen-0.1.so.1:_ZN12OdsGeneratorD0Ev
libodfgen-0.1.so.1:_ZN12OdsGeneratorD1Ev
libodfgen-0.1.so.1:_ZN12OdsGeneratorD2Ev
libodfgen-0.1.so.1:_ZN12OdtGenerator10closeFrameEv
libodfgen-0.1.so.1:_ZN12OdtGenerator10closeGroupEv
libodfgen-0.1.so.1:_ZN12OdtGenerator10closeTableEv
libodfgen-0.1.so.1:_ZN12OdtGenerator10insertTextERKN10librevenge10RVNGStringE
libodfgen-0.1.so.1:_ZN12OdtGenerator10openFooterERKN10librevenge16RVNGPropertyListE
libodfgen-0.1.so.1:_ZN12OdtGenerator10openHeaderERKN10librevenge16RVNGPropertyListE
libodfgen-0.1.so.1:_ZN12OdtGenerator11closeFooterEv
libodfgen-0.1.so.1:_ZN12OdtGenerator11closeHeaderEv
libodfgen-0.1.so.1:_ZN12OdtGenerator11drawEllipseERKN10librevenge16RVNGPropertyListE
libodfgen-0.1.so.1:_ZN12OdtGenerator11drawPolygonERKN10librevenge16RVNGPropertyListE
libodfgen-0.1.so.1:_ZN12OdtGenerator11endDocumentEv
libodfgen-0.1.so.1:_ZN12OdtGenerator11insertFieldERKN10librevenge16RVNGPropertyListE
libodfgen-0.1.so.1:_ZN12OdtGenerator11insertSpaceEv
libodfgen-0.1.so.1:_ZN12OdtGenerator11openCommentERKN10librevenge16RVNGPropertyListE
libodfgen-0.1.so.1:_ZN12OdtGenerator11openEndnoteERKN10librevenge16RVNGPropertyListE
libodfgen-0.1.so.1:_ZN12OdtGenerator11openSectionERKN10librevenge16RVNGPropertyListE
libodfgen-0.1.so.1:_ZN12OdtGenerator11openTextBoxERKN10librevenge16RVNGPropertyListE
libodfgen-0.1.so.1:_ZN12OdtGenerator12closeCommentEv
libodfgen-0.1.so.1:_ZN12OdtGenerator12closeEndnoteEv
libodfgen-0.1.so.1:_ZN12OdtGenerator12closeSectionEv
libodfgen-0.1.so.1:_ZN12OdtGenerator12closeTextBoxEv
libodfgen-0.1.so.1:_ZN12OdtGenerator12drawPolylineERKN10librevenge16RVNGPropertyListE
libodfgen-0.1.so.1:_ZN12OdtGenerator12openFootnoteERKN10librevenge16RVNGPropertyListE
libodfgen-0.1.so.1:_ZN12OdtGenerator12openPageSpanERKN10librevenge16RVNGPropertyListE
libodfgen-0.1.so.1:_ZN12OdtGenerator12openTableRowERKN10librevenge16RVNGPropertyListE
libodfgen-0.1.so.1:_ZN12OdtGenerator13closeFootnoteEv
libodfgen-0.1.so.1:_ZN12OdtGenerator13closePageSpanEv
libodfgen-0.1.so.1:_ZN12OdtGenerator13closeTableRowEv
libodfgen-0.1.so.1:_ZN12OdtGenerator13drawConnectorERKN10librevenge16RVNGPropertyListE
libodfgen-0.1.so.1:_ZN12OdtGenerator13drawRectangleERKN10librevenge16RVNGPropertyListE
libodfgen-0.1.so.1:_ZN12OdtGenerator13initStateWithERK12OdfGenerator
libodfgen-0.1.so.1:_ZN12OdtGenerator13openParagraphERKN10librevenge16RVNGPropertyListE
libodfgen-0.1.so.1:_ZN12OdtGenerator13openTableCellERKN10librevenge16RVNGPropertyListE
libodfgen-0.1.so.1:_ZN12OdtGenerator13startDocumentERKN10librevenge16RVNGPropertyListE
libodfgen-0.1.so.1:_ZN12OdtGenerator14closeParagraphEv
libodfgen-0.1.so.1:_ZN12OdtGenerator14closeTableCellEv
libodfgen-0.1.so.1:_ZN12OdtGenerator14insertEquationERKN10librevenge16RVNGPropertyListE
libodfgen-0.1.so.1:_ZN12OdtGenerator15definePageStyleERKN10librevenge16RVNGPropertyListE
libodfgen-0.1.so.1:_ZN12OdtGenerator15insertLineBreakEv
libodfgen-0.1.so.1:_ZN12OdtGenerator15openListElementERKN10librevenge16RVNGPropertyListE
libodfgen-0.1.so.1:_ZN12OdtGenerator16closeListElementEv
libodfgen-0.1.so.1:_ZN12OdtGenerator16getObjectContentERKN10librevenge10RVNGStringEP18OdfDocumentHandler
libodfgen-0.1.so.1:_ZN12OdtGenerator18addDocumentHandlerEP18OdfDocumentHandler13OdfStreamType
libodfgen-0.1.so.1:_ZN12OdtGenerator18defineEmbeddedFontERKN10librevenge16RVNGPropertyListE
libodfgen-0.1.so.1:_ZN12OdtGenerator18defineGraphicStyleERKN10librevenge16RVNGPropertyListE
libodfgen-0.1.so.1:_ZN12OdtGenerator18defineSectionStyleERKN10librevenge16RVNGPropertyListE
libodfgen-0.1.so.1:_ZN12OdtGenerator18insertBinaryObjectERKN10librevenge16RVNGPropertyListE
libodfgen-0.1.so.1:_ZN12OdtGenerator19setDocumentMetaDataERKN10librevenge16RVNGPropertyListE
libodfgen-0.1.so.1:_ZN12OdtGenerator20defineCharacterStyleERKN10librevenge16RVNGPropertyListE
libodfgen-0.1.so.1:_ZN12OdtGenerator20defineParagraphStyleERKN10librevenge16RVNGPropertyListE
libodfgen-0.1.so.1:_ZN12OdtGenerator20openOrderedListLevelERKN10librevenge16RVNGPropertyListE
libodfgen-0.1.so.1:_ZN12OdtGenerator21closeOrderedListLevelEv
libodfgen-0.1.so.1:_ZN12OdtGenerator22insertCoveredTableCellERKN10librevenge16RVNGPropertyListE
libodfgen-0.1.so.1:_ZN12OdtGenerator22openUnorderedListLevelERKN10librevenge16RVNGPropertyListE
libodfgen-0.1.so.1:_ZN12OdtGenerator23closeUnorderedListLevelEv
libodfgen-0.1.so.1:_ZN12OdtGenerator28registerEmbeddedImageHandlerERKN10librevenge10RVNGStringEPFbRKNS0_14RVNGBinaryDataERS4_E
libodfgen-0.1.so.1:_ZN12OdtGenerator29registerEmbeddedObjectHandlerERKN10librevenge10RVNGStringEPFbRKNS0_14RVNGBinaryDataEP18OdfDocumentHandler13OdfStreamTypeE
libodfgen-0.1.so.1:_ZN12OdtGenerator8drawPathERKN10librevenge16RVNGPropertyListE
libodfgen-0.1.so.1:_ZN12OdtGenerator8openLinkERKN10librevenge16RVNGPropertyListE
libodfgen-0.1.so.1:_ZN12OdtGenerator8openSpanERKN10librevenge16RVNGPropertyListE
libodfgen-0.1.so.1:_ZN12OdtGenerator9closeLinkEv
libodfgen-0.1.so.1:_ZN12OdtGenerator9closeSpanEv
libodfgen-0.1.so.1:_ZN12OdtGenerator9insertTabEv
libodfgen-0.1.so.1:_ZN12OdtGenerator9openFrameERKN10librevenge16RVNGPropertyListE
libodfgen-0.1.so.1:_ZN12OdtGenerator9openGroupERKN10librevenge16RVNGPropertyListE
libodfgen-0.1.so.1:_ZN12OdtGenerator9openTableERKN10librevenge16RVNGPropertyListE
libodfgen-0.1.so.1:_ZN12OdtGeneratorC1Ev
libodfgen-0.1.so.1:_ZN12OdtGeneratorC2Ev
libodfgen-0.1.so.1:_ZN12OdtGeneratorD0Ev
libodfgen-0.1.so.1:_ZN12OdtGeneratorD1Ev
libodfgen-0.1.so.1:_ZN12OdtGeneratorD2Ev
libodfgen-0.1.so.1:_ZNK12OdgGenerator14getObjectNamesEv
libodfgen-0.1.so.1:_ZNK12OdpGenerator14getObjectNamesEv
libodfgen-0.1.so.1:_ZNK12OdsGenerator14getObjectNamesEv
libodfgen-0.1.so.1:_ZNK12OdtGenerator14getObjectNamesEv
