akregator_config_advanced.so:qt_plugin_instance
akregator_config_advanced.so:qt_plugin_query_metadata_v2
akregator_config_appearance.so:qt_plugin_instance
akregator_config_appearance.so:qt_plugin_query_metadata_v2
akregator_config_archive.so:qt_plugin_instance
akregator_config_archive.so:qt_plugin_query_metadata_v2
akregator_config_browser.so:qt_plugin_instance
akregator_config_browser.so:qt_plugin_query_metadata_v2
akregator_config_general.so:qt_plugin_instance
akregator_config_general.so:qt_plugin_query_metadata_v2
akregator_config_plugins.so:qt_plugin_instance
akregator_config_plugins.so:qt_plugin_query_metadata_v2
akregator_config_security.so:qt_plugin_instance
akregator_config_security.so:qt_plugin_query_metadata_v2
akregator_config_userfeedback.so:qt_plugin_instance
akregator_config_userfeedback.so:qt_plugin_query_metadata_v2
akregatorpart.so:_ZN9Akregator10MainWidget11qt_metacallEN11QMetaObject4CallEiPPv
akregatorpart.so:_ZN9Akregator10MainWidget11qt_metacastEPKc
akregatorpart.so:_ZN9Akregator10MainWidget11sendArticleERK10QByteArrayRK7QStringb
akregatorpart.so:_ZN9Akregator10MainWidget11sendArticleEb
akregatorpart.so:_ZN9Akregator10MainWidget11setFeedListERK14QSharedPointerINS_8FeedListEE
akregatorpart.so:_ZN9Akregator10MainWidget11slotFeedAddEv
akregatorpart.so:_ZN9Akregator10MainWidget12connectFrameEPNS_14WebEngineFrameE
akregatorpart.so:_ZN9Akregator10MainWidget12saveSettingsEv
akregatorpart.so:_ZN9Akregator10MainWidget12slotSendFileEv
akregatorpart.so:_ZN9Akregator10MainWidget12slotSendLinkEv
akregatorpart.so:_ZN9Akregator10MainWidget14addFeedToGroupERK7QStringS3_
akregatorpart.so:_ZN9Akregator10MainWidget14feedListToOPMLEv
akregatorpart.so:_ZN9Akregator10MainWidget14importFeedListERK12QDomDocument
akregatorpart.so:_ZN9Akregator10MainWidget14readPropertiesERK12KConfigGroup
akregatorpart.so:_ZN9Akregator10MainWidget14savePropertiesER12KConfigGroup
akregatorpart.so:_ZN9Akregator10MainWidget14slotFeedModifyEv
akregatorpart.so:_ZN9Akregator10MainWidget14slotFeedRemoveEv
akregatorpart.so:_ZN9Akregator10MainWidget14slotNormalViewEv
akregatorpart.so:_ZN9Akregator10MainWidget14slotOnShutdownEv
akregatorpart.so:_ZN9Akregator10MainWidget15slotMarkAllReadEv
akregatorpart.so:_ZN9Akregator10MainWidget16slotCombinedViewEv
akregatorpart.so:_ZN9Akregator10MainWidget16slotFeedAddGroupEv
akregatorpart.so:_ZN9Akregator10MainWidget16slotNodeSelectedEPNS_8TreeNodeE
akregatorpart.so:_ZN9Akregator10MainWidget16slotOpenHomepageEv
akregatorpart.so:_ZN9Akregator10MainWidget16staticMetaObjectE
akregatorpart.so:_ZN9Akregator10MainWidget17slotArticleActionENS_22ArticleViewerWebEngine13ArticleActionERK7QStringS5_
akregatorpart.so:_ZN9Akregator10MainWidget17slotArticleDeleteEv
akregatorpart.so:_ZN9Akregator10MainWidget17slotFetchAllFeedsEv
akregatorpart.so:_ZN9Akregator10MainWidget17slotFramesChangedEv
akregatorpart.so:_ZN9Akregator10MainWidget17slotReloadAllTabsEv
akregatorpart.so:_ZN9Akregator10MainWidget18currentArticleInfoER7QStringS2_
akregatorpart.so:_ZN9Akregator10MainWidget18slotSetTotalUnreadEv
akregatorpart.so:_ZN9Akregator10MainWidget18slotWidescreenViewEv
akregatorpart.so:_ZN9Akregator10MainWidget19cleanUpDownloadFileEv
akregatorpart.so:_ZN9Akregator10MainWidget19slotArticleSelectedERKNS_7ArticleE
akregatorpart.so:_ZN9Akregator10MainWidget19slotCopyLinkAddressEv
akregatorpart.so:_ZN9Akregator10MainWidget19slotFetchingStartedEv
akregatorpart.so:_ZN9Akregator10MainWidget19slotFetchingStoppedEv
akregatorpart.so:_ZN9Akregator10MainWidget19slotRequestNewFrameERi
akregatorpart.so:_ZN9Akregator10MainWidget19slotSettingsChangedEv
akregatorpart.so:_ZN9Akregator10MainWidget20openSelectedArticlesEb
akregatorpart.so:_ZN9Akregator10MainWidget20slotFetchCurrentFeedEv
akregatorpart.so:_ZN9Akregator10MainWidget20slotFocusQuickSearchEv
akregatorpart.so:_ZN9Akregator10MainWidget20slotMarkAllFeedsReadEv
akregatorpart.so:_ZN9Akregator10MainWidget20slotSetFocusToViewerEv
akregatorpart.so:_ZN9Akregator10MainWidget21confirmMarkFeedAsReadEbb
akregatorpart.so:_ZN9Akregator10MainWidget21deleteExpiredArticlesERK14QSharedPointerINS_8FeedListEE
akregatorpart.so:_ZN9Akregator10MainWidget21slotDoIntervalFetchesEv
akregatorpart.so:_ZN9Akregator10MainWidget21slotMoveCurrentNodeUpEv
akregatorpart.so:_ZN9Akregator10MainWidget21slotNextUnreadArticleEv
akregatorpart.so:_ZN9Akregator10MainWidget21slotPrevUnreadArticleEv
akregatorpart.so:_ZN9Akregator10MainWidget22signalArticlesSelectedERK5QListINS_7ArticleEE
akregatorpart.so:_ZN9Akregator10MainWidget22slotMouseButtonPressedEiRK4QUrl
akregatorpart.so:_ZN9Akregator10MainWidget23ensureArticleTabVisibleEv
akregatorpart.so:_ZN9Akregator10MainWidget23slotCurrentFrameChangedEi
akregatorpart.so:_ZN9Akregator10MainWidget23slotMoveCurrentNodeDownEv
akregatorpart.so:_ZN9Akregator10MainWidget23slotMoveCurrentNodeLeftEv
akregatorpart.so:_ZN9Akregator10MainWidget24signalUnreadCountChangedEi
akregatorpart.so:_ZN9Akregator10MainWidget24slotMoveCurrentNodeRightEv
akregatorpart.so:_ZN9Akregator10MainWidget24slotNetworkStatusChangedEb
akregatorpart.so:_ZN9Akregator10MainWidget24slotOpenArticleInBrowserERKNS_7ArticleE
akregatorpart.so:_ZN9Akregator10MainWidget24slotOpenSelectedArticlesEv
akregatorpart.so:_ZN9Akregator10MainWidget24slotShowStatusBarMessageERK7QString
akregatorpart.so:_ZN9Akregator10MainWidget25slotArticleToggleKeepFlagEb
akregatorpart.so:_ZN9Akregator10MainWidget25slotDeleteExpiredArticlesEv
akregatorpart.so:_ZN9Akregator10MainWidget25slotSetSelectedArticleNewEv
akregatorpart.so:_ZN9Akregator10MainWidget25slotToggleShowQuickFilterEv
akregatorpart.so:_ZN9Akregator10MainWidget25updateQuickSearchLineTextEv
akregatorpart.so:_ZN9Akregator10MainWidget26slotSetSelectedArticleReadEv
akregatorpart.so:_ZN9Akregator10MainWidget28slotSetSelectedArticleUnreadEv
akregatorpart.so:_ZN9Akregator10MainWidget32slotSetCurrentArticleReadDelayedEv
akregatorpart.so:_ZN9Akregator10MainWidget33slotOpenSelectedArticlesInBrowserEv
akregatorpart.so:_ZN9Akregator10MainWidget36slotOpenSelectedArticlesInBackgroundEv
akregatorpart.so:_ZN9Akregator10MainWidget7addFeedERK7QStringPNS_8TreeNodeEPNS_6FolderEb
akregatorpart.so:_ZN9Akregator10MainWidgetC1EPNS_4PartEP7QWidgetPNS_17ActionManagerImplERK7QString
akregatorpart.so:_ZN9Akregator10MainWidgetC2EPNS_4PartEP7QWidgetPNS_17ActionManagerImplERK7QString
akregatorpart.so:_ZN9Akregator10MainWidgetD0Ev
akregatorpart.so:_ZN9Akregator10MainWidgetD1Ev
akregatorpart.so:_ZN9Akregator10MainWidgetD2Ev
akregatorpart.so:_ZN9Akregator12ArticleModel11qt_metacallEN11QMetaObject4CallEiPPv
akregatorpart.so:_ZN9Akregator12ArticleModel11qt_metacastEPKc
akregatorpart.so:_ZN9Akregator12ArticleModel13articlesAddedEPNS_8TreeNodeERK5QListINS_7ArticleEE
akregatorpart.so:_ZN9Akregator12ArticleModel15articlesRemovedEPNS_8TreeNodeERK5QListINS_7ArticleEE
akregatorpart.so:_ZN9Akregator12ArticleModel15articlesUpdatedEPNS_8TreeNodeERK5QListINS_7ArticleEE
akregatorpart.so:_ZN9Akregator12ArticleModel16staticMetaObjectE
akregatorpart.so:_ZN9Akregator12ArticleModel5clearEv
akregatorpart.so:_ZN9Akregator12ArticleModelC1ERK5QListINS_7ArticleEEP7QObject
akregatorpart.so:_ZN9Akregator12ArticleModelC2ERK5QListINS_7ArticleEEP7QObject
akregatorpart.so:_ZN9Akregator12ArticleModelD0Ev
akregatorpart.so:_ZN9Akregator12ArticleModelD1Ev
akregatorpart.so:_ZN9Akregator12ArticleModelD2Ev
akregatorpart.so:_ZN9Akregator15ArticleListView10paintEventEP11QPaintEvent
akregatorpart.so:_ZN9Akregator15ArticleListView10setFiltersERKSt6vectorI14QSharedPointerIKNS_7Filters15AbstractMatcherEESaIS6_EE
akregatorpart.so:_ZN9Akregator15ArticleListView11qt_metacallEN11QMetaObject4CallEiPPv
akregatorpart.so:_ZN9Akregator15ArticleListView11qt_metacastEPKc
akregatorpart.so:_ZN9Akregator15ArticleListView11selectIndexERK11QModelIndex
akregatorpart.so:_ZN9Akregator15ArticleListView11setFeedModeEv
akregatorpart.so:_ZN9Akregator15ArticleListView12setGroupModeEv
akregatorpart.so:_ZN9Akregator15ArticleListView14showHeaderMenuERK6QPoint
akregatorpart.so:_ZN9Akregator15ArticleListView15mousePressEventEP11QMouseEvent
akregatorpart.so:_ZN9Akregator15ArticleListView15setArticleModelEPNS_12ArticleModelE
akregatorpart.so:_ZN9Akregator15ArticleListView15slotNextArticleEv
akregatorpart.so:_ZN9Akregator15ArticleListView16contextMenuEventEP17QContextMenuEvent
akregatorpart.so:_ZN9Akregator15ArticleListView16setIsAggregationEb
akregatorpart.so:_ZN9Akregator15ArticleListView16staticMetaObjectE
akregatorpart.so:_ZN9Akregator15ArticleListView17forceFilterUpdateEv
akregatorpart.so:_ZN9Akregator15ArticleListView18loadHeaderSettingsEv
akregatorpart.so:_ZN9Akregator15ArticleListView18restoreHeaderStateEv
akregatorpart.so:_ZN9Akregator15ArticleListView18saveHeaderSettingsEv
akregatorpart.so:_ZN9Akregator15ArticleListView19slotPreviousArticleEv
akregatorpart.so:_ZN9Akregator15ArticleListView21generalPaletteChangedEv
akregatorpart.so:_ZN9Akregator15ArticleListView21setScrollBarPositionsERK6QPoint
akregatorpart.so:_ZN9Akregator15ArticleListView21slotNextUnreadArticleEv
akregatorpart.so:_ZN9Akregator15ArticleListView21userActionTakingPlaceEv
akregatorpart.so:_ZN9Akregator15ArticleListView24signalMouseButtonPressedEiRK4QUrl
akregatorpart.so:_ZN9Akregator15ArticleListView24startResizingTitleColumnEv
akregatorpart.so:_ZN9Akregator15ArticleListView25finishResizingTitleColumnEv
akregatorpart.so:_ZN9Akregator15ArticleListView25slotPreviousUnreadArticleEv
akregatorpart.so:_ZN9Akregator15ArticleListView8itemViewEv
akregatorpart.so:_ZN9Akregator15ArticleListView8setModelEP18QAbstractItemModel
akregatorpart.so:_ZN9Akregator15ArticleListView9slotClearEv
akregatorpart.so:_ZN9Akregator15ArticleListViewC1EP7QWidget
akregatorpart.so:_ZN9Akregator15ArticleListViewC2EP7QWidget
akregatorpart.so:_ZN9Akregator15ArticleListViewD0Ev
akregatorpart.so:_ZN9Akregator15ArticleListViewD1Ev
akregatorpart.so:_ZN9Akregator15ArticleListViewD2Ev
akregatorpart.so:_ZN9Akregator21SubscriptionListModel10fetchErrorEPNS_4FeedE
akregatorpart.so:_ZN9Akregator21SubscriptionListModel11qt_metacallEN11QMetaObject4CallEiPPv
akregatorpart.so:_ZN9Akregator21SubscriptionListModel11qt_metacastEPKc
akregatorpart.so:_ZN9Akregator21SubscriptionListModel12dropMimeDataEPK9QMimeDataN2Qt10DropActionEiiRK11QModelIndex
akregatorpart.so:_ZN9Akregator21SubscriptionListModel12fetchAbortedEPNS_4FeedE
akregatorpart.so:_ZN9Akregator21SubscriptionListModel12fetchStartedEPNS_4FeedE
akregatorpart.so:_ZN9Akregator21SubscriptionListModel16staticMetaObjectE
akregatorpart.so:_ZN9Akregator21SubscriptionListModel17subscriptionAddedEPNS_8TreeNodeE
akregatorpart.so:_ZN9Akregator21SubscriptionListModel19subscriptionChangedEPNS_8TreeNodeE
akregatorpart.so:_ZN9Akregator21SubscriptionListModel19subscriptionRemovedEPNS_8TreeNodeE
akregatorpart.so:_ZN9Akregator21SubscriptionListModel25aboutToRemoveSubscriptionEPNS_8TreeNodeE
akregatorpart.so:_ZN9Akregator21SubscriptionListModel7fetchedEPNS_4FeedE
akregatorpart.so:_ZN9Akregator21SubscriptionListModel7setDataERK11QModelIndexRK8QVarianti
akregatorpart.so:_ZN9Akregator21SubscriptionListModelC1ERK14QSharedPointerIKNS_8FeedListEEP7QObject
akregatorpart.so:_ZN9Akregator21SubscriptionListModelC2ERK14QSharedPointerIKNS_8FeedListEEP7QObject
akregatorpart.so:_ZN9Akregator22FolderExpansionHandler11qt_metacallEN11QMetaObject4CallEiPPv
akregatorpart.so:_ZN9Akregator22FolderExpansionHandler11qt_metacastEPKc
akregatorpart.so:_ZN9Akregator22FolderExpansionHandler11setExpandedERK11QModelIndexb
akregatorpart.so:_ZN9Akregator22FolderExpansionHandler11setFeedListERK14QSharedPointerINS_8FeedListEE
akregatorpart.so:_ZN9Akregator22FolderExpansionHandler12itemExpandedERK11QModelIndex
akregatorpart.so:_ZN9Akregator22FolderExpansionHandler13itemCollapsedERK11QModelIndex
akregatorpart.so:_ZN9Akregator22FolderExpansionHandler16staticMetaObjectE
akregatorpart.so:_ZN9Akregator22FolderExpansionHandler8setModelEP18QAbstractItemModel
akregatorpart.so:_ZN9Akregator22FolderExpansionHandlerC1EP7QObject
akregatorpart.so:_ZN9Akregator22FolderExpansionHandlerC2EP7QObject
akregatorpart.so:_ZN9Akregator22SortColorizeProxyModel10setFiltersERKSt6vectorI14QSharedPointerIKNS_7Filters15AbstractMatcherEESaIS6_EE
akregatorpart.so:_ZN9Akregator22SortColorizeProxyModel11qt_metacallEN11QMetaObject4CallEiPPv
akregatorpart.so:_ZN9Akregator22SortColorizeProxyModel11qt_metacastEPKc
akregatorpart.so:_ZN9Akregator22SortColorizeProxyModel16staticMetaObjectE
akregatorpart.so:_ZN9Akregator22SortColorizeProxyModelC1EP7QObject
akregatorpart.so:_ZN9Akregator22SortColorizeProxyModelC2EP7QObject
akregatorpart.so:_ZN9Akregator23FilterDeletedProxyModel11qt_metacallEN11QMetaObject4CallEiPPv
akregatorpart.so:_ZN9Akregator23FilterDeletedProxyModel11qt_metacastEPKc
akregatorpart.so:_ZN9Akregator23FilterDeletedProxyModel16staticMetaObjectE
akregatorpart.so:_ZN9Akregator23FilterDeletedProxyModelC1EP7QObject
akregatorpart.so:_ZN9Akregator23FilterDeletedProxyModelC2EP7QObject
akregatorpart.so:_ZN9Akregator7Filters14ArticleMatcher10readConfigEP12KConfigGroup
akregatorpart.so:_ZN9Akregator7Filters14ArticleMatcher19associationToStringENS1_11AssociationE
akregatorpart.so:_ZN9Akregator7Filters14ArticleMatcher19stringToAssociationERK7QString
akregatorpart.so:_ZN9Akregator7Filters14ArticleMatcherC1ERK5QListINS0_9CriterionEENS1_11AssociationE
akregatorpart.so:_ZN9Akregator7Filters14ArticleMatcherC1Ev
akregatorpart.so:_ZN9Akregator7Filters14ArticleMatcherC2ERK5QListINS0_9CriterionEENS1_11AssociationE
akregatorpart.so:_ZN9Akregator7Filters14ArticleMatcherC2Ev
akregatorpart.so:_ZN9Akregator7Filters14ArticleMatcherD0Ev
akregatorpart.so:_ZN9Akregator7Filters14ArticleMatcherD1Ev
akregatorpart.so:_ZN9Akregator7Filters14ArticleMatcherD2Ev
akregatorpart.so:_ZN9Akregator7Filters15AbstractMatcherC2Ev
akregatorpart.so:_ZN9Akregator7Filters15AbstractMatcherD0Ev
akregatorpart.so:_ZN9Akregator7Filters15AbstractMatcherD1Ev
akregatorpart.so:_ZN9Akregator7Filters15AbstractMatcherD2Ev
akregatorpart.so:_ZN9Akregator7Filters9Criterion10readConfigEP12KConfigGroup
akregatorpart.so:_ZN9Akregator7Filters9Criterion15stringToSubjectERK7QString
akregatorpart.so:_ZN9Akregator7Filters9Criterion15subjectToStringENS1_7SubjectE
akregatorpart.so:_ZN9Akregator7Filters9Criterion17predicateToStringENS1_9PredicateE
akregatorpart.so:_ZN9Akregator7Filters9Criterion17stringToPredicateERK7QString
akregatorpart.so:_ZN9Akregator7Filters9CriterionC1ENS1_7SubjectENS1_9PredicateERK8QVariant
akregatorpart.so:_ZN9Akregator7Filters9CriterionC1Ev
akregatorpart.so:_ZN9Akregator7Filters9CriterionC2ENS1_7SubjectENS1_9PredicateERK8QVariant
akregatorpart.so:_ZN9Akregator7Filters9CriterionC2Ev
akregatorpart.so:_ZNK9Akregator10MainWidget10metaObjectEv
akregatorpart.so:_ZNK9Akregator10MainWidget18isNetworkAvailableEv
akregatorpart.so:_ZNK9Akregator12ArticleModel10headerDataEiN2Qt11OrientationEi
akregatorpart.so:_ZNK9Akregator12ArticleModel10metaObjectEv
akregatorpart.so:_ZNK9Akregator12ArticleModel10rowMatchesEiRK14QSharedPointerIKNS_7Filters15AbstractMatcherEE
akregatorpart.so:_ZNK9Akregator12ArticleModel11columnCountERK11QModelIndex
akregatorpart.so:_ZNK9Akregator12ArticleModel4dataERK11QModelIndexi
akregatorpart.so:_ZNK9Akregator12ArticleModel5flagsERK11QModelIndex
akregatorpart.so:_ZNK9Akregator12ArticleModel7articleEi
akregatorpart.so:_ZNK9Akregator12ArticleModel8mimeDataERK5QListI11QModelIndexE
akregatorpart.so:_ZNK9Akregator12ArticleModel8rowCountERK11QModelIndex
akregatorpart.so:_ZNK9Akregator12ArticleModel9mimeTypesEv
akregatorpart.so:_ZNK9Akregator15ArticleListView10metaObjectEv
akregatorpart.so:_ZNK9Akregator15ArticleListView18scrollBarPositionsEv
akregatorpart.so:_ZNK9Akregator15ArticleListView21articleSelectionModelEv
akregatorpart.so:_ZNK9Akregator15ArticleListView8itemViewEv
akregatorpart.so:_ZNK9Akregator21SubscriptionListModel10headerDataEiN2Qt11OrientationEi
akregatorpart.so:_ZNK9Akregator21SubscriptionListModel10metaObjectEv
akregatorpart.so:_ZNK9Akregator21SubscriptionListModel11columnCountERK11QModelIndex
akregatorpart.so:_ZNK9Akregator21SubscriptionListModel12indexForNodeEPKNS_8TreeNodeE
akregatorpart.so:_ZNK9Akregator21SubscriptionListModel4dataERK11QModelIndexi
akregatorpart.so:_ZNK9Akregator21SubscriptionListModel5flagsERK11QModelIndex
akregatorpart.so:_ZNK9Akregator21SubscriptionListModel5indexEiiRK11QModelIndex
akregatorpart.so:_ZNK9Akregator21SubscriptionListModel6parentERK11QModelIndex
akregatorpart.so:_ZNK9Akregator21SubscriptionListModel8mimeDataERK5QListI11QModelIndexE
akregatorpart.so:_ZNK9Akregator21SubscriptionListModel8rowCountERK11QModelIndex
akregatorpart.so:_ZNK9Akregator21SubscriptionListModel9mimeTypesEv
akregatorpart.so:_ZNK9Akregator22FolderExpansionHandler10metaObjectEv
akregatorpart.so:_ZNK9Akregator22SortColorizeProxyModel10metaObjectEv
akregatorpart.so:_ZNK9Akregator22SortColorizeProxyModel16filterAcceptsRowEiRK11QModelIndex
akregatorpart.so:_ZNK9Akregator22SortColorizeProxyModel4dataERK11QModelIndexi
akregatorpart.so:_ZNK9Akregator23FilterDeletedProxyModel10metaObjectEv
akregatorpart.so:_ZNK9Akregator23FilterDeletedProxyModel16filterAcceptsRowEiRK11QModelIndex
akregatorpart.so:_ZNK9Akregator7Filters14ArticleMatcher11writeConfigEP12KConfigGroup
akregatorpart.so:_ZNK9Akregator7Filters14ArticleMatcher16allCriteriaMatchERKNS_7ArticleE
akregatorpart.so:_ZNK9Akregator7Filters14ArticleMatcher19anyCriterionMatchesERKNS_7ArticleE
akregatorpart.so:_ZNK9Akregator7Filters14ArticleMatcher7matchesERKNS_7ArticleE
akregatorpart.so:_ZNK9Akregator7Filters14ArticleMatchereqERKNS0_15AbstractMatcherE
akregatorpart.so:_ZNK9Akregator7Filters14ArticleMatcherneERKNS0_15AbstractMatcherE
akregatorpart.so:_ZNK9Akregator7Filters9Criterion11satisfiedByERKNS_7ArticleE
akregatorpart.so:_ZNK9Akregator7Filters9Criterion11writeConfigEP12KConfigGroup
akregatorpart.so:_ZNK9Akregator7Filters9Criterion6objectEv
akregatorpart.so:_ZNK9Akregator7Filters9Criterion7subjectEv
akregatorpart.so:_ZNK9Akregator7Filters9Criterion9predicateEv
akregatorpart.so:_ZTIN9Akregator10MainWidgetE
akregatorpart.so:_ZTIN9Akregator12ArticleModelE
akregatorpart.so:_ZTIN9Akregator15ArticleListViewE
akregatorpart.so:_ZTIN9Akregator21SubscriptionListModelE
akregatorpart.so:_ZTIN9Akregator22FolderExpansionHandlerE
akregatorpart.so:_ZTIN9Akregator22SortColorizeProxyModelE
akregatorpart.so:_ZTIN9Akregator23FilterDeletedProxyModelE
akregatorpart.so:_ZTIN9Akregator7Filters14ArticleMatcherE
akregatorpart.so:_ZTIN9Akregator7Filters15AbstractMatcherE
akregatorpart.so:_ZTIN9Akregator7Filters9CriterionE
akregatorpart.so:_ZTSN9Akregator10MainWidgetE
akregatorpart.so:_ZTSN9Akregator12ArticleModelE
akregatorpart.so:_ZTSN9Akregator15ArticleListViewE
akregatorpart.so:_ZTSN9Akregator21SubscriptionListModelE
akregatorpart.so:_ZTSN9Akregator22FolderExpansionHandlerE
akregatorpart.so:_ZTSN9Akregator22SortColorizeProxyModelE
akregatorpart.so:_ZTSN9Akregator23FilterDeletedProxyModelE
akregatorpart.so:_ZTSN9Akregator7Filters14ArticleMatcherE
akregatorpart.so:_ZTSN9Akregator7Filters15AbstractMatcherE
akregatorpart.so:_ZTSN9Akregator7Filters9CriterionE
akregatorpart.so:_ZTVN9Akregator10MainWidgetE
akregatorpart.so:_ZTVN9Akregator12ArticleModelE
akregatorpart.so:_ZTVN9Akregator15ArticleListViewE
akregatorpart.so:_ZTVN9Akregator21SubscriptionListModelE
akregatorpart.so:_ZTVN9Akregator22FolderExpansionHandlerE
akregatorpart.so:_ZTVN9Akregator22SortColorizeProxyModelE
akregatorpart.so:_ZTVN9Akregator23FilterDeletedProxyModelE
akregatorpart.so:_ZTVN9Akregator7Filters14ArticleMatcherE
akregatorpart.so:_ZTVN9Akregator7Filters15AbstractMatcherE
akregatorpart.so:_ZTVN9Akregator7Filters9CriterionE
akregatorpart.so:_ZThn16_N9Akregator10MainWidgetD0Ev
akregatorpart.so:_ZThn16_N9Akregator10MainWidgetD1Ev
akregatorpart.so:_ZThn16_N9Akregator15ArticleListViewD0Ev
akregatorpart.so:_ZThn16_N9Akregator15ArticleListViewD1Ev
akregatorpart.so:_ZThn40_N9Akregator15ArticleListView10setFiltersERKSt6vectorI14QSharedPointerIKNS_7Filters15AbstractMatcherEESaIS6_EE
akregatorpart.so:_ZThn40_N9Akregator15ArticleListView15setArticleModelEPNS_12ArticleModelE
akregatorpart.so:_ZThn40_N9Akregator15ArticleListView16setIsAggregationEb
akregatorpart.so:_ZThn40_N9Akregator15ArticleListView17forceFilterUpdateEv
akregatorpart.so:_ZThn40_N9Akregator15ArticleListView21setScrollBarPositionsERK6QPoint
akregatorpart.so:_ZThn40_N9Akregator15ArticleListView8itemViewEv
akregatorpart.so:_ZThn40_N9Akregator15ArticleListViewD0Ev
akregatorpart.so:_ZThn40_N9Akregator15ArticleListViewD1Ev
akregatorpart.so:_ZThn40_NK9Akregator15ArticleListView18scrollBarPositionsEv
akregatorpart.so:_ZThn40_NK9Akregator15ArticleListView21articleSelectionModelEv
akregatorpart.so:_ZThn40_NK9Akregator15ArticleListView8itemViewEv
akregatorpart.so:qt_plugin_instance
akregatorpart.so:qt_plugin_query_metadata_v2
kontact_akregatorplugin.so:qt_plugin_instance
kontact_akregatorplugin.so:qt_plugin_query_metadata_v2
libakregatorinterfaces.so.6:_ZN9Akregator19UserFeedBackManager11qt_metacallEN11QMetaObject4CallEiPPv
libakregatorinterfaces.so.6:_ZN9Akregator19UserFeedBackManager11qt_metacastEPKc
libakregatorinterfaces.so.6:_ZN9Akregator19UserFeedBackManager16staticMetaObjectE
libakregatorinterfaces.so.6:_ZN9Akregator19UserFeedBackManager4selfEv
libakregatorinterfaces.so.6:_ZN9Akregator19UserFeedBackManagerC1EP7QObject
libakregatorinterfaces.so.6:_ZN9Akregator19UserFeedBackManagerC2EP7QObject
libakregatorinterfaces.so.6:_ZN9Akregator27FeedListManagementInterface10m_instanceE
libakregatorinterfaces.so.6:_ZN9Akregator27FeedListManagementInterface11setInstanceEPS0_
libakregatorinterfaces.so.6:_ZN9Akregator27FeedListManagementInterface8instanceEv
libakregatorinterfaces.so.6:_ZN9Akregator27FeedListManagementInterfaceD0Ev
libakregatorinterfaces.so.6:_ZN9Akregator27FeedListManagementInterfaceD1Ev
libakregatorinterfaces.so.6:_ZN9Akregator27FeedListManagementInterfaceD2Ev
libakregatorinterfaces.so.6:_ZN9Akregator29AkregatorUserFeedbackProvider11qt_metacallEN11QMetaObject4CallEiPPv
libakregatorinterfaces.so.6:_ZN9Akregator29AkregatorUserFeedbackProvider11qt_metacastEPKc
libakregatorinterfaces.so.6:_ZN9Akregator29AkregatorUserFeedbackProvider16staticMetaObjectE
libakregatorinterfaces.so.6:_ZN9Akregator29AkregatorUserFeedbackProviderC1EP7QObject
libakregatorinterfaces.so.6:_ZN9Akregator29AkregatorUserFeedbackProviderC2EP7QObject
libakregatorinterfaces.so.6:_ZN9Akregator29AkregatorUserFeedbackProviderD0Ev
libakregatorinterfaces.so.6:_ZN9Akregator29AkregatorUserFeedbackProviderD1Ev
libakregatorinterfaces.so.6:_ZN9Akregator29AkregatorUserFeedbackProviderD2Ev
libakregatorinterfaces.so.6:_ZN9Akregator7Command11qt_metacallEN11QMetaObject4CallEiPPv
libakregatorinterfaces.so.6:_ZN9Akregator7Command11qt_metacastEPKc
libakregatorinterfaces.so.6:_ZN9Akregator7Command15setParentWidgetEP7QWidget
libakregatorinterfaces.so.6:_ZN9Akregator7Command15waitForFinishedEv
libakregatorinterfaces.so.6:_ZN9Akregator7Command16staticMetaObjectE
libakregatorinterfaces.so.6:_ZN9Akregator7Command4doneEv
libakregatorinterfaces.so.6:_ZN9Akregator7Command5abortEv
libakregatorinterfaces.so.6:_ZN9Akregator7Command5startEv
libakregatorinterfaces.so.6:_ZN9Akregator7Command7startedEv
libakregatorinterfaces.so.6:_ZN9Akregator7Command8finishedEv
libakregatorinterfaces.so.6:_ZN9Akregator7Command8progressEiRK7QString
libakregatorinterfaces.so.6:_ZN9Akregator7CommandC2EP7QObject
libakregatorinterfaces.so.6:_ZN9Akregator7CommandD0Ev
libakregatorinterfaces.so.6:_ZN9Akregator7CommandD1Ev
libakregatorinterfaces.so.6:_ZN9Akregator7CommandD2Ev
libakregatorinterfaces.so.6:_ZN9Akregator8Settings4selfEv
libakregatorinterfaces.so.6:_ZN9Akregator8SettingsC1Ev
libakregatorinterfaces.so.6:_ZN9Akregator8SettingsC2Ev
libakregatorinterfaces.so.6:_ZN9Akregator8SettingsD0Ev
libakregatorinterfaces.so.6:_ZN9Akregator8SettingsD1Ev
libakregatorinterfaces.so.6:_ZN9Akregator8SettingsD2Ev
libakregatorinterfaces.so.6:_ZNK9Akregator19UserFeedBackManager10metaObjectEv
libakregatorinterfaces.so.6:_ZNK9Akregator19UserFeedBackManager20userFeedbackProviderEv
libakregatorinterfaces.so.6:_ZNK9Akregator29AkregatorUserFeedbackProvider10metaObjectEv
libakregatorinterfaces.so.6:_ZNK9Akregator7Command10metaObjectEv
libakregatorinterfaces.so.6:_ZNK9Akregator7Command12parentWidgetEv
libakregatorinterfaces.so.6:_ZTIN9Akregator19UserFeedBackManagerE
libakregatorinterfaces.so.6:_ZTIN9Akregator27FeedListManagementInterfaceE
libakregatorinterfaces.so.6:_ZTIN9Akregator29AkregatorUserFeedbackProviderE
libakregatorinterfaces.so.6:_ZTIN9Akregator7CommandE
libakregatorinterfaces.so.6:_ZTIN9Akregator8SettingsE
libakregatorinterfaces.so.6:_ZTSN9Akregator19UserFeedBackManagerE
libakregatorinterfaces.so.6:_ZTSN9Akregator27FeedListManagementInterfaceE
libakregatorinterfaces.so.6:_ZTSN9Akregator29AkregatorUserFeedbackProviderE
libakregatorinterfaces.so.6:_ZTSN9Akregator7CommandE
libakregatorinterfaces.so.6:_ZTSN9Akregator8SettingsE
libakregatorinterfaces.so.6:_ZTVN9Akregator19UserFeedBackManagerE
libakregatorinterfaces.so.6:_ZTVN9Akregator27FeedListManagementInterfaceE
libakregatorinterfaces.so.6:_ZTVN9Akregator29AkregatorUserFeedbackProviderE
libakregatorinterfaces.so.6:_ZTVN9Akregator7CommandE
libakregatorinterfaces.so.6:_ZTVN9Akregator8SettingsE
libakregatorprivate.so.6:_ZN19UnityServiceManager11qt_metacallEN11QMetaObject4CallEiPPv
libakregatorprivate.so.6:_ZN19UnityServiceManager11qt_metacastEPKc
libakregatorprivate.so.6:_ZN19UnityServiceManager11updateCountEv
libakregatorprivate.so.6:_ZN19UnityServiceManager13slotSetUnreadEi
libakregatorprivate.so.6:_ZN19UnityServiceManager16staticMetaObjectE
libakregatorprivate.so.6:_ZN19UnityServiceManager8instanceEv
libakregatorprivate.so.6:_ZN19UnityServiceManager9initUnityEv
libakregatorprivate.so.6:_ZN19UnityServiceManager9mInstanceE
libakregatorprivate.so.6:_ZN19UnityServiceManagerC1EP7QObject
libakregatorprivate.so.6:_ZN19UnityServiceManagerC2EP7QObject
libakregatorprivate.so.6:_ZN19UnityServiceManagerD0Ev
libakregatorprivate.so.6:_ZN19UnityServiceManagerD1Ev
libakregatorprivate.so.6:_ZN19UnityServiceManagerD2Ev
libakregatorprivate.so.6:_ZN9Akregator10FetchQueue10fetchErrorEPNS_4FeedE
libakregatorprivate.so.6:_ZN9Akregator10FetchQueue11qt_metacallEN11QMetaObject4CallEiPPv
libakregatorprivate.so.6:_ZN9Akregator10FetchQueue11qt_metacastEPKc
libakregatorprivate.so.6:_ZN9Akregator10FetchQueue13connectToFeedEPNS_4FeedE
libakregatorprivate.so.6:_ZN9Akregator10FetchQueue13fetchNextFeedEv
libakregatorprivate.so.6:_ZN9Akregator10FetchQueue13signalStartedEv
libakregatorprivate.so.6:_ZN9Akregator10FetchQueue13signalStoppedEv
libakregatorprivate.so.6:_ZN9Akregator10FetchQueue14slotFetchErrorEPNS_4FeedE
libakregatorprivate.so.6:_ZN9Akregator10FetchQueue15slotFeedFetchedEPNS_4FeedE
libakregatorprivate.so.6:_ZN9Akregator10FetchQueue16slotFetchAbortedEPNS_4FeedE
libakregatorprivate.so.6:_ZN9Akregator10FetchQueue16staticMetaObjectE
libakregatorprivate.so.6:_ZN9Akregator10FetchQueue17slotNodeDestroyedEPNS_8TreeNodeE
libakregatorprivate.so.6:_ZN9Akregator10FetchQueue18disconnectFromFeedEPNS_4FeedE
libakregatorprivate.so.6:_ZN9Akregator10FetchQueue7addFeedEPNS_4FeedE
libakregatorprivate.so.6:_ZN9Akregator10FetchQueue7fetchedEPNS_4FeedE
libakregatorprivate.so.6:_ZN9Akregator10FetchQueue8feedDoneEPNS_4FeedE
libakregatorprivate.so.6:_ZN9Akregator10FetchQueue9slotAbortEv
libakregatorprivate.so.6:_ZN9Akregator10FetchQueueC1EP7QObject
libakregatorprivate.so.6:_ZN9Akregator10FetchQueueC2EP7QObject
libakregatorprivate.so.6:_ZN9Akregator10FetchQueueD0Ev
libakregatorprivate.so.6:_ZN9Akregator10FetchQueueD1Ev
libakregatorprivate.so.6:_ZN9Akregator10FetchQueueD2Ev
libakregatorprivate.so.6:_ZN9Akregator12CompositeJob11qt_metacallEN11QMetaObject4CallEiPPv
libakregatorprivate.so.6:_ZN9Akregator12CompositeJob11qt_metacastEPKc
libakregatorprivate.so.6:_ZN9Akregator12CompositeJob16staticMetaObjectE
libakregatorprivate.so.6:_ZN9Akregator12CompositeJob5startEv
libakregatorprivate.so.6:_ZN9Akregator12CompositeJob9addSubjobEP4KJob
libakregatorprivate.so.6:_ZN9Akregator12CompositeJobC1EP7QObject
libakregatorprivate.so.6:_ZN9Akregator12CompositeJobC2EP7QObject
libakregatorprivate.so.6:_ZN9Akregator12FrameManager11qt_metacallEN11QMetaObject4CallEiPPv
libakregatorprivate.so.6:_ZN9Akregator12FrameManager11qt_metacastEPKc
libakregatorprivate.so.6:_ZN9Akregator12FrameManager12slotAddFrameEPNS_5FrameE
libakregatorprivate.so.6:_ZN9Akregator12FrameManager12slotSetTitleEPNS_5FrameERK7QString
libakregatorprivate.so.6:_ZN9Akregator12FrameManager13signalStartedEv
libakregatorprivate.so.6:_ZN9Akregator12FrameManager14savePropertiesER12KConfigGroup
libakregatorprivate.so.6:_ZN9Akregator12FrameManager14signalCanceledERK7QString
libakregatorprivate.so.6:_ZN9Akregator12FrameManager14slotSetCaptionEPNS_5FrameERK7QString
libakregatorprivate.so.6:_ZN9Akregator12FrameManager14slotSetStartedEPNS_5FrameE
libakregatorprivate.so.6:_ZN9Akregator12FrameManager15signalCompletedEv
libakregatorprivate.so.6:_ZN9Akregator12FrameManager15slotChangeFrameEi
libakregatorprivate.so.6:_ZN9Akregator12FrameManager15slotRemoveFrameEi
libakregatorprivate.so.6:_ZN9Akregator12FrameManager15slotSetCanceledEPNS_5FrameERK7QString
libakregatorprivate.so.6:_ZN9Akregator12FrameManager15slotSetProgressEPNS_5FrameEi
libakregatorprivate.so.6:_ZN9Akregator12FrameManager16signalFrameAddedEPNS_5FrameE
libakregatorprivate.so.6:_ZN9Akregator12FrameManager16signalStatusTextERK7QString
libakregatorprivate.so.6:_ZN9Akregator12FrameManager16slotSetCompletedEPNS_5FrameE
libakregatorprivate.so.6:_ZN9Akregator12FrameManager16staticMetaObjectE
libakregatorprivate.so.6:_ZN9Akregator12FrameManager17signalIconChangedERK5QIcon
libakregatorprivate.so.6:_ZN9Akregator12FrameManager17signalSelectFrameEi
libakregatorprivate.so.6:_ZN9Akregator12FrameManager17slotSetStatusTextEPNS_5FrameERK7QString
libakregatorprivate.so.6:_ZN9Akregator12FrameManager18signalFrameRemovedEi
libakregatorprivate.so.6:_ZN9Akregator12FrameManager18signalTitleChangedERK7QString
libakregatorprivate.so.6:_ZN9Akregator12FrameManager18slotOpenUrlRequestERNS_14OpenUrlRequestEb
libakregatorprivate.so.6:_ZN9Akregator12FrameManager20signalCaptionChangedERK7QString
libakregatorprivate.so.6:_ZN9Akregator12FrameManager21openInExternalBrowserERKNS_14OpenUrlRequestE
libakregatorprivate.so.6:_ZN9Akregator12FrameManager21signalLoadingProgressEi
libakregatorprivate.so.6:_ZN9Akregator12FrameManager21signalRequestNewFrameERi
libakregatorprivate.so.6:_ZN9Akregator12FrameManager25signalCurrentFrameChangedEPNS_5FrameES2_
libakregatorprivate.so.6:_ZN9Akregator12FrameManager7openUrlERNS_14OpenUrlRequestE
libakregatorprivate.so.6:_ZN9Akregator12FrameManagerC1EP7QObject
libakregatorprivate.so.6:_ZN9Akregator12FrameManagerC2EP7QObject
libakregatorprivate.so.6:_ZN9Akregator12FrameManagerD0Ev
libakregatorprivate.so.6:_ZN9Akregator12FrameManagerD1Ev
libakregatorprivate.so.6:_ZN9Akregator12FrameManagerD2Ev
libakregatorprivate.so.6:_ZN9Akregator13ActionManager11getInstanceEv
libakregatorprivate.so.6:_ZN9Akregator13ActionManager11qt_metacallEN11QMetaObject4CallEiPPv
libakregatorprivate.so.6:_ZN9Akregator13ActionManager11qt_metacastEPKc
libakregatorprivate.so.6:_ZN9Akregator13ActionManager11setInstanceEPS0_
libakregatorprivate.so.6:_ZN9Akregator13ActionManager16staticMetaObjectE
libakregatorprivate.so.6:_ZN9Akregator13ActionManager6m_selfE
libakregatorprivate.so.6:_ZN9Akregator13ActionManagerC2EP7QObject
libakregatorprivate.so.6:_ZN9Akregator13ActionManagerD0Ev
libakregatorprivate.so.6:_ZN9Akregator13ActionManagerD1Ev
libakregatorprivate.so.6:_ZN9Akregator13ActionManagerD2Ev
libakregatorprivate.so.6:_ZN9Akregator14ArticleListJob11qt_metacallEN11QMetaObject4CallEiPPv
libakregatorprivate.so.6:_ZN9Akregator14ArticleListJob11qt_metacastEPKc
libakregatorprivate.so.6:_ZN9Akregator14ArticleListJob16staticMetaObjectE
libakregatorprivate.so.6:_ZN9Akregator14ArticleListJob5startEv
libakregatorprivate.so.6:_ZN9Akregator14ArticleListJob6doListEv
libakregatorprivate.so.6:_ZN9Akregator14ArticleListJobC1EPNS_8TreeNodeE
libakregatorprivate.so.6:_ZN9Akregator14ArticleListJobC2EPNS_8TreeNodeE
libakregatorprivate.so.6:_ZN9Akregator14OpenUrlRequest10setFrameIdEi
libakregatorprivate.so.6:_ZN9Akregator14OpenUrlRequest10setOptionsENS0_7OptionsE
libakregatorprivate.so.6:_ZN9Akregator14OpenUrlRequest13setWasHandledEb
libakregatorprivate.so.6:_ZN9Akregator14OpenUrlRequest19setOpenInBackgroundEb
libakregatorprivate.so.6:_ZN9Akregator14OpenUrlRequest6setUrlERK4QUrl
libakregatorprivate.so.6:_ZN9Akregator14OpenUrlRequestC1ERK4QUrl
libakregatorprivate.so.6:_ZN9Akregator14OpenUrlRequestC2ERK4QUrl
libakregatorprivate.so.6:_ZN9Akregator14WebEngineFrame10loadConfigERK12KConfigGroupRK7QString
libakregatorprivate.so.6:_ZN9Akregator14WebEngineFrame10saveConfigER12KConfigGroupRK7QString
libakregatorprivate.so.6:_ZN9Akregator14WebEngineFrame10slotReloadEv
libakregatorprivate.so.6:_ZN9Akregator14WebEngineFrame11qt_metacallEN11QMetaObject4CallEiPPv
libakregatorprivate.so.6:_ZN9Akregator14WebEngineFrame11qt_metacastEPKc
libakregatorprivate.so.6:_ZN9Akregator14WebEngineFrame15slotCopyInFrameEi
libakregatorprivate.so.6:_ZN9Akregator14WebEngineFrame15slotLoadStartedEv
libakregatorprivate.so.6:_ZN9Akregator14WebEngineFrame16slotLoadFinishedEv
libakregatorprivate.so.6:_ZN9Akregator14WebEngineFrame16slotPrintInFrameEi
libakregatorprivate.so.6:_ZN9Akregator14WebEngineFrame16slotTitleChangedERK7QString
libakregatorprivate.so.6:_ZN9Akregator14WebEngineFrame16staticMetaObjectE
libakregatorprivate.so.6:_ZN9Akregator14WebEngineFrame17signalIconChangedEPNS_5FrameERK5QIcon
libakregatorprivate.so.6:_ZN9Akregator14WebEngineFrame19slotFindTextInFrameEi
libakregatorprivate.so.6:_ZN9Akregator14WebEngineFrame19slotProgressChangedEi
libakregatorprivate.so.6:_ZN9Akregator14WebEngineFrame21slotCopyLinkAsInFrameEi
libakregatorprivate.so.6:_ZN9Akregator14WebEngineFrame21slotSaveLinkAsInFrameEi
libakregatorprivate.so.6:_ZN9Akregator14WebEngineFrame21slotZoomChangeInFrameEid
libakregatorprivate.so.6:_ZN9Akregator14WebEngineFrame23slotPrintPreviewInFrameEi
libakregatorprivate.so.6:_ZN9Akregator14WebEngineFrame23slotTextToSpeechInFrameEi
libakregatorprivate.so.6:_ZN9Akregator14WebEngineFrame26slotSaveImageOnDiskInFrameEi
libakregatorprivate.so.6:_ZN9Akregator14WebEngineFrame28slotCopyImageLocationInFrameEi
libakregatorprivate.so.6:_ZN9Akregator14WebEngineFrame28webPageMutedOrAudibleChangedEPNS_5FrameEbb
libakregatorprivate.so.6:_ZN9Akregator14WebEngineFrame32slotWebPageMutedOrAudibleChangedEbb
libakregatorprivate.so.6:_ZN9Akregator14WebEngineFrame7loadUrlERK4QUrl
libakregatorprivate.so.6:_ZN9Akregator14WebEngineFrame7openUrlERKNS_14OpenUrlRequestE
libakregatorprivate.so.6:_ZN9Akregator14WebEngineFrame8slotMuteEib
libakregatorprivate.so.6:_ZN9Akregator14WebEngineFrame8slotStopEv
libakregatorprivate.so.6:_ZN9Akregator14WebEngineFrameC1EP17KActionCollectionP7QWidget
libakregatorprivate.so.6:_ZN9Akregator14WebEngineFrameC2EP17KActionCollectionP7QWidget
libakregatorprivate.so.6:_ZN9Akregator14WebEngineFrameD0Ev
libakregatorprivate.so.6:_ZN9Akregator14WebEngineFrameD1Ev
libakregatorprivate.so.6:_ZN9Akregator14WebEngineFrameD2Ev
libakregatorprivate.so.6:_ZN9Akregator15TreeNodeVisitor5visitEPNS_8TreeNodeE
libakregatorprivate.so.6:_ZN9Akregator16ArticleDeleteJob11qt_metacallEN11QMetaObject4CallEiPPv
libakregatorprivate.so.6:_ZN9Akregator16ArticleDeleteJob11qt_metacastEPKc
libakregatorprivate.so.6:_ZN9Akregator16ArticleDeleteJob15appendArticleIdERKNS_9ArticleIdE
libakregatorprivate.so.6:_ZN9Akregator16ArticleDeleteJob16appendArticleIdsERK5QListINS_9ArticleIdEE
libakregatorprivate.so.6:_ZN9Akregator16ArticleDeleteJob16staticMetaObjectE
libakregatorprivate.so.6:_ZN9Akregator16ArticleDeleteJob5startEv
libakregatorprivate.so.6:_ZN9Akregator16ArticleDeleteJob7doStartEv
libakregatorprivate.so.6:_ZN9Akregator16ArticleDeleteJobC1EP7QObject
libakregatorprivate.so.6:_ZN9Akregator16ArticleDeleteJobC2EP7QObject
libakregatorprivate.so.6:_ZN9Akregator16ArticleModifyJob11qt_metacallEN11QMetaObject4CallEiPPv
libakregatorprivate.so.6:_ZN9Akregator16ArticleModifyJob11qt_metacastEPKc
libakregatorprivate.so.6:_ZN9Akregator16ArticleModifyJob16staticMetaObjectE
libakregatorprivate.so.6:_ZN9Akregator16ArticleModifyJob5startEv
libakregatorprivate.so.6:_ZN9Akregator16ArticleModifyJob7doStartEv
libakregatorprivate.so.6:_ZN9Akregator16ArticleModifyJob7setKeepERKNS_9ArticleIdEb
libakregatorprivate.so.6:_ZN9Akregator16ArticleModifyJob9setStatusERKNS_9ArticleIdEi
libakregatorprivate.so.6:_ZN9Akregator16ArticleModifyJobC1EP7QObject
libakregatorprivate.so.6:_ZN9Akregator16ArticleModifyJobC2EP7QObject
libakregatorprivate.so.6:_ZN9Akregator18DownloadArticleJob11qt_metacallEN11QMetaObject4CallEiPPv
libakregatorprivate.so.6:_ZN9Akregator18DownloadArticleJob11qt_metacastEPKc
libakregatorprivate.so.6:_ZN9Akregator18DownloadArticleJob13setArticleUrlERK4QUrl
libakregatorprivate.so.6:_ZN9Akregator18DownloadArticleJob14sendAttachmentEv
libakregatorprivate.so.6:_ZN9Akregator18DownloadArticleJob16staticMetaObjectE
libakregatorprivate.so.6:_ZN9Akregator18DownloadArticleJob17slotUrlSaveResultEP4KJob
libakregatorprivate.so.6:_ZN9Akregator18DownloadArticleJob25forceCleanupTemporaryFileEv
libakregatorprivate.so.6:_ZN9Akregator18DownloadArticleJob5startEv
libakregatorprivate.so.6:_ZN9Akregator18DownloadArticleJob7setTextERK7QString
libakregatorprivate.so.6:_ZN9Akregator18DownloadArticleJob8setTitleERK7QString
libakregatorprivate.so.6:_ZN9Akregator18DownloadArticleJobC1EP7QObject
libakregatorprivate.so.6:_ZN9Akregator18DownloadArticleJobC2EP7QObject
libakregatorprivate.so.6:_ZN9Akregator18DownloadArticleJobD0Ev
libakregatorprivate.so.6:_ZN9Akregator18DownloadArticleJobD1Ev
libakregatorprivate.so.6:_ZN9Akregator18DownloadArticleJobD2Ev
libakregatorprivate.so.6:_ZN9Akregator19ArticleViewerWidget10endWritingEv
libakregatorprivate.so.6:_ZN9Akregator19ArticleViewerWidget10setFiltersERKSt6vectorI14QSharedPointerIKNS_7Filters15AbstractMatcherEESaIS6_EE
libakregatorprivate.so.6:_ZN9Akregator19ArticleViewerWidget11qt_metacallEN11QMetaObject4CallEiPPv
libakregatorprivate.so.6:_ZN9Akregator19ArticleViewerWidget11qt_metacastEPKc
libakregatorprivate.so.6:_ZN9Akregator19ArticleViewerWidget11showArticleERKNS_7ArticleE
libakregatorprivate.so.6:_ZN9Akregator19ArticleViewerWidget12beginWritingEv
libakregatorprivate.so.6:_ZN9Akregator19ArticleViewerWidget13connectToNodeEPNS_8TreeNodeE
libakregatorprivate.so.6:_ZN9Akregator19ArticleViewerWidget13keyPressEventEP9QKeyEvent
libakregatorprivate.so.6:_ZN9Akregator19ArticleViewerWidget13renderContentERK7QString
libakregatorprivate.so.6:_ZN9Akregator19ArticleViewerWidget15slotShowSummaryEPNS_8TreeNodeE
libakregatorprivate.so.6:_ZN9Akregator19ArticleViewerWidget16displayAboutPageEv
libakregatorprivate.so.6:_ZN9Akregator19ArticleViewerWidget16selectionChangedEv
libakregatorprivate.so.6:_ZN9Akregator19ArticleViewerWidget16slotPrintPreviewEv
libakregatorprivate.so.6:_ZN9Akregator19ArticleViewerWidget16staticMetaObjectE
libakregatorprivate.so.6:_ZN9Akregator19ArticleViewerWidget17slotArticlesAddedEPNS_8TreeNodeERK5QListINS_7ArticleEE
libakregatorprivate.so.6:_ZN9Akregator19ArticleViewerWidget18disconnectFromNodeEPNS_8TreeNodeE
libakregatorprivate.so.6:_ZN9Akregator19ArticleViewerWidget18slotArticlesListedEP4KJob
libakregatorprivate.so.6:_ZN9Akregator19ArticleViewerWidget19normalViewFormatterEv
libakregatorprivate.so.6:_ZN9Akregator19ArticleViewerWidget19slotArticlesRemovedEPNS_8TreeNodeERK5QListINS_7ArticleEE
libakregatorprivate.so.6:_ZN9Akregator19ArticleViewerWidget19slotArticlesUpdatedEPNS_8TreeNodeERK5QListINS_7ArticleEE
libakregatorprivate.so.6:_ZN9Akregator19ArticleViewerWidget20showStatusBarMessageERK7QString
libakregatorprivate.so.6:_ZN9Akregator19ArticleViewerWidget20signalOpenUrlRequestERNS_14OpenUrlRequestE
libakregatorprivate.so.6:_ZN9Akregator19ArticleViewerWidget20slotSelectionChangedEv
libakregatorprivate.so.6:_ZN9Akregator19ArticleViewerWidget21combinedViewFormatterEv
libakregatorprivate.so.6:_ZN9Akregator19ArticleViewerWidget21slotZoomChangeInFrameEd
libakregatorprivate.so.6:_ZN9Akregator19ArticleViewerWidget22slotUpdateCombinedViewEv
libakregatorprivate.so.6:_ZN9Akregator19ArticleViewerWidget24setArticleActionsEnabledEb
libakregatorprivate.so.6:_ZN9Akregator19ArticleViewerWidget24updateAfterConfigChangedEv
libakregatorprivate.so.6:_ZN9Akregator19ArticleViewerWidget6reloadEv
libakregatorprivate.so.6:_ZN9Akregator19ArticleViewerWidget7openUrlERK4QUrl
libakregatorprivate.so.6:_ZN9Akregator19ArticleViewerWidget8showNodeEPNS_8TreeNodeE
libakregatorprivate.so.6:_ZN9Akregator19ArticleViewerWidget8slotCopyEv
libakregatorprivate.so.6:_ZN9Akregator19ArticleViewerWidget9slotClearEv
libakregatorprivate.so.6:_ZN9Akregator19ArticleViewerWidget9slotPrintEv
libakregatorprivate.so.6:_ZN9Akregator19ArticleViewerWidgetC1ERK7QStringP17KActionCollectionP7QWidget
libakregatorprivate.so.6:_ZN9Akregator19ArticleViewerWidgetC2ERK7QStringP17KActionCollectionP7QWidget
libakregatorprivate.so.6:_ZN9Akregator19ArticleViewerWidgetD0Ev
libakregatorprivate.so.6:_ZN9Akregator19ArticleViewerWidgetD1Ev
libakregatorprivate.so.6:_ZN9Akregator19ArticleViewerWidgetD2Ev
libakregatorprivate.so.6:_ZN9Akregator19DownloadFeedIconJob11qt_metacallEN11QMetaObject4CallEiPPv
libakregatorprivate.so.6:_ZN9Akregator19DownloadFeedIconJob11qt_metacastEPKc
libakregatorprivate.so.6:_ZN9Akregator19DownloadFeedIconJob14setFeedIconUrlERK4QUrl
libakregatorprivate.so.6:_ZN9Akregator19DownloadFeedIconJob16staticMetaObjectE
libakregatorprivate.so.6:_ZN9Akregator19DownloadFeedIconJob18setDownloadFaviconEb
libakregatorprivate.so.6:_ZN9Akregator19DownloadFeedIconJob5startEv
libakregatorprivate.so.6:_ZN9Akregator19DownloadFeedIconJob6resultERK7QString
libakregatorprivate.so.6:_ZN9Akregator19DownloadFeedIconJobC1EP7QObject
libakregatorprivate.so.6:_ZN9Akregator19DownloadFeedIconJobC2EP7QObject
libakregatorprivate.so.6:_ZN9Akregator19DownloadFeedIconJobD0Ev
libakregatorprivate.so.6:_ZN9Akregator19DownloadFeedIconJobD1Ev
libakregatorprivate.so.6:_ZN9Akregator19DownloadFeedIconJobD2Ev
libakregatorprivate.so.6:_ZN9Akregator19MoveSubscriptionJob11qt_metacallEN11QMetaObject4CallEiPPv
libakregatorprivate.so.6:_ZN9Akregator19MoveSubscriptionJob11qt_metacastEPKc
libakregatorprivate.so.6:_ZN9Akregator19MoveSubscriptionJob14setDestinationEjj
libakregatorprivate.so.6:_ZN9Akregator19MoveSubscriptionJob16staticMetaObjectE
libakregatorprivate.so.6:_ZN9Akregator19MoveSubscriptionJob17setSubscriptionIdEj
libakregatorprivate.so.6:_ZN9Akregator19MoveSubscriptionJob5startEv
libakregatorprivate.so.6:_ZN9Akregator19MoveSubscriptionJob6doMoveEv
libakregatorprivate.so.6:_ZN9Akregator19MoveSubscriptionJobC1EP7QObject
libakregatorprivate.so.6:_ZN9Akregator19MoveSubscriptionJobC2EP7QObject
libakregatorprivate.so.6:_ZN9Akregator19NotificationManager11qt_metacallEN11QMetaObject4CallEiPPv
libakregatorprivate.so.6:_ZN9Akregator19NotificationManager11qt_metacastEPKc
libakregatorprivate.so.6:_ZN9Akregator19NotificationManager15slotNotifyFeedsERK5QListI7QStringE
libakregatorprivate.so.6:_ZN9Akregator19NotificationManager16staticMetaObjectE
libakregatorprivate.so.6:_ZN9Akregator19NotificationManager17slotIntervalCheckEv
libakregatorprivate.so.6:_ZN9Akregator19NotificationManager17slotNotifyArticleERKNS_7ArticleE
libakregatorprivate.so.6:_ZN9Akregator19NotificationManager4selfEv
libakregatorprivate.so.6:_ZN9Akregator19NotificationManager6m_selfE
libakregatorprivate.so.6:_ZN9Akregator19NotificationManager8doNotifyEv
libakregatorprivate.so.6:_ZN9Akregator19NotificationManager9setWidgetEP7QWidgetRK7QString
libakregatorprivate.so.6:_ZN9Akregator19NotificationManagerC1EP7QObject
libakregatorprivate.so.6:_ZN9Akregator19NotificationManagerC2EP7QObject
libakregatorprivate.so.6:_ZN9Akregator19NotificationManagerD0Ev
libakregatorprivate.so.6:_ZN9Akregator19NotificationManagerD1Ev
libakregatorprivate.so.6:_ZN9Akregator19NotificationManagerD2Ev
libakregatorprivate.so.6:_ZN9Akregator21DeleteSubscriptionJob11qt_metacallEN11QMetaObject4CallEiPPv
libakregatorprivate.so.6:_ZN9Akregator21DeleteSubscriptionJob11qt_metacastEPKc
libakregatorprivate.so.6:_ZN9Akregator21DeleteSubscriptionJob16staticMetaObjectE
libakregatorprivate.so.6:_ZN9Akregator21DeleteSubscriptionJob17setSubscriptionIdEj
libakregatorprivate.so.6:_ZN9Akregator21DeleteSubscriptionJob5startEv
libakregatorprivate.so.6:_ZN9Akregator21DeleteSubscriptionJob8doDeleteEv
libakregatorprivate.so.6:_ZN9Akregator21DeleteSubscriptionJobC1EP7QObject
libakregatorprivate.so.6:_ZN9Akregator21DeleteSubscriptionJobC2EP7QObject
libakregatorprivate.so.6:_ZN9Akregator21RenameSubscriptionJob11qt_metacallEN11QMetaObject4CallEiPPv
libakregatorprivate.so.6:_ZN9Akregator21RenameSubscriptionJob11qt_metacastEPKc
libakregatorprivate.so.6:_ZN9Akregator21RenameSubscriptionJob16staticMetaObjectE
libakregatorprivate.so.6:_ZN9Akregator21RenameSubscriptionJob17setSubscriptionIdEj
libakregatorprivate.so.6:_ZN9Akregator21RenameSubscriptionJob5startEv
libakregatorprivate.so.6:_ZN9Akregator21RenameSubscriptionJob7setNameERK7QString
libakregatorprivate.so.6:_ZN9Akregator21RenameSubscriptionJob8doRenameEv
libakregatorprivate.so.6:_ZN9Akregator21RenameSubscriptionJobC1EP7QObject
libakregatorprivate.so.6:_ZN9Akregator21RenameSubscriptionJobC2EP7QObject
libakregatorprivate.so.6:_ZN9Akregator22ArticleViewerWebEngine11openSafeUrlERK4QUrl
libakregatorprivate.so.6:_ZN9Akregator22ArticleViewerWebEngine11qt_metacallEN11QMetaObject4CallEiPPv
libakregatorprivate.so.6:_ZN9Akregator22ArticleViewerWebEngine11qt_metacastEPKc
libakregatorprivate.so.6:_ZN9Akregator22ArticleViewerWebEngine11resizeEventEP12QResizeEvent
libakregatorprivate.so.6:_ZN9Akregator22ArticleViewerWebEngine12textToSpeechEv
libakregatorprivate.so.6:_ZN9Akregator22ArticleViewerWebEngine13articleActionENS0_13ArticleActionERK7QStringS4_
libakregatorprivate.so.6:_ZN9Akregator22ArticleViewerWebEngine13showAboutPageEv
libakregatorprivate.so.6:_ZN9Akregator22ArticleViewerWebEngine13trackingFoundERKN15WebEngineViewer27BlockTrackingUrlInterceptor16TrackerBlackListE
libakregatorprivate.so.6:_ZN9Akregator22ArticleViewerWebEngine14findTextInHtmlEv
libakregatorprivate.so.6:_ZN9Akregator22ArticleViewerWebEngine14slotSaveLinkAsEv
libakregatorprivate.so.6:_ZN9Akregator22ArticleViewerWebEngine14updateSecurityEv
libakregatorprivate.so.6:_ZN9Akregator22ArticleViewerWebEngine15showContextMenuERK6QPoint
libakregatorprivate.so.6:_ZN9Akregator22ArticleViewerWebEngine15slotLinkClickedERK4QUrl
libakregatorprivate.so.6:_ZN9Akregator22ArticleViewerWebEngine15slotLinkHoveredERK7QString
libakregatorprivate.so.6:_ZN9Akregator22ArticleViewerWebEngine15slotLoadStartedEv
libakregatorprivate.so.6:_ZN9Akregator22ArticleViewerWebEngine16contextMenuEventEP17QContextMenuEvent
libakregatorprivate.so.6:_ZN9Akregator22ArticleViewerWebEngine16paintAboutScreenERK7QStringRK5QHashIS1_8QVariantE
libakregatorprivate.so.6:_ZN9Akregator22ArticleViewerWebEngine16printPreviewPageEP8QPrinter
libakregatorprivate.so.6:_ZN9Akregator22ArticleViewerWebEngine16setArticleActionENS0_13ArticleActionERK7QStringS4_
libakregatorprivate.so.6:_ZN9Akregator22ArticleViewerWebEngine16slotLoadFinishedEv
libakregatorprivate.so.6:_ZN9Akregator22ArticleViewerWebEngine16staticMetaObjectE
libakregatorprivate.so.6:_ZN9Akregator22ArticleViewerWebEngine17forwardWheelEventEP11QWheelEvent
libakregatorprivate.so.6:_ZN9Akregator22ArticleViewerWebEngine18displayContextMenuERK6QPoint
libakregatorprivate.so.6:_ZN9Akregator22ArticleViewerWebEngine18slotActivatePluginEPN13MessageViewer21ViewerPluginInterfaceE
libakregatorprivate.so.6:_ZN9Akregator22ArticleViewerWebEngine18slotWebHitFinishedERKN15WebEngineViewer16WebHitTestResultE
libakregatorprivate.so.6:_ZN9Akregator22ArticleViewerWebEngine19disableIntroductionEv
libakregatorprivate.so.6:_ZN9Akregator22ArticleViewerWebEngine19slotCopyLinkAddressEv
libakregatorprivate.so.6:_ZN9Akregator22ArticleViewerWebEngine19slotShowContextMenuERK6QPoint
libakregatorprivate.so.6:_ZN9Akregator22ArticleViewerWebEngine20forwardKeyPressEventEP9QKeyEvent
libakregatorprivate.so.6:_ZN9Akregator22ArticleViewerWebEngine20showStatusBarMessageERK7QString
libakregatorprivate.so.6:_ZN9Akregator22ArticleViewerWebEngine20signalOpenUrlRequestERNS_14OpenUrlRequestE
libakregatorprivate.so.6:_ZN9Akregator22ArticleViewerWebEngine21slotOpenLinkInBrowserEv
libakregatorprivate.so.6:_ZN9Akregator22ArticleViewerWebEngine22forwardKeyReleaseEventEP9QKeyEvent
libakregatorprivate.so.6:_ZN9Akregator22ArticleViewerWebEngine22restoreCurrentPositionEv
libakregatorprivate.so.6:_ZN9Akregator22ArticleViewerWebEngine22slotCheckedUrlFinishedERK4QUrlN15WebEngineViewer20CheckPhishingUrlUtil9UrlStatusE
libakregatorprivate.so.6:_ZN9Akregator22ArticleViewerWebEngine22slotServiceUrlSelectedEN9PimCommon22ShareServiceUrlManager11ServiceTypeE
libakregatorprivate.so.6:_ZN9Akregator22ArticleViewerWebEngine22viewerPluginActionListE6QFlagsIN13MessageViewer21ViewerPluginInterface19SpecificFeatureTypeEE
libakregatorprivate.so.6:_ZN9Akregator22ArticleViewerWebEngine24forwardMouseReleaseEventEP11QMouseEvent
libakregatorprivate.so.6:_ZN9Akregator22ArticleViewerWebEngine24urlIsAMalwareButContinueEv
libakregatorprivate.so.6:_ZN9Akregator22ArticleViewerWebEngine26slotSaveImageOnDiskInFrameEv
libakregatorprivate.so.6:_ZN9Akregator22ArticleViewerWebEngine27slotOpenLinkInBackgroundTabEv
libakregatorprivate.so.6:_ZN9Akregator22ArticleViewerWebEngine27slotOpenLinkInForegroundTabEv
libakregatorprivate.so.6:_ZN9Akregator22ArticleViewerWebEngine28slotCopyImageLocationInFrameEv
libakregatorprivate.so.6:_ZN9Akregator22ArticleViewerWebEngine28webPageMutedOrAudibleChangedEbb
libakregatorprivate.so.6:_ZN9Akregator22ArticleViewerWebEngine29createViewerPluginToolManagerEP17KActionCollectionP7QWidget
libakregatorprivate.so.6:_ZN9Akregator22ArticleViewerWebEngine32slotWebPageMutedOrAudibleChangedEv
libakregatorprivate.so.6:_ZN9Akregator22ArticleViewerWebEngine8slotCopyEv
libakregatorprivate.so.6:_ZN9Akregator22ArticleViewerWebEngine8slotMuteEb
libakregatorprivate.so.6:_ZN9Akregator22ArticleViewerWebEngineC1EP17KActionCollectionP7QWidget
libakregatorprivate.so.6:_ZN9Akregator22ArticleViewerWebEngineC2EP17KActionCollectionP7QWidget
libakregatorprivate.so.6:_ZN9Akregator22ArticleViewerWebEngineD0Ev
libakregatorprivate.so.6:_ZN9Akregator22ArticleViewerWebEngineD1Ev
libakregatorprivate.so.6:_ZN9Akregator22ArticleViewerWebEngineD2Ev
libakregatorprivate.so.6:_ZN9Akregator22FeedListManagementImpl10removeFeedERK7QStringS3_
libakregatorprivate.so.6:_ZN9Akregator22FeedListManagementImpl11setFeedListERK14QSharedPointerINS_8FeedListEE
libakregatorprivate.so.6:_ZN9Akregator22FeedListManagementImpl7addFeedERK7QStringS3_
libakregatorprivate.so.6:_ZN9Akregator22FeedListManagementImplC1ERK14QSharedPointerINS_8FeedListEE
libakregatorprivate.so.6:_ZN9Akregator22FeedListManagementImplC2ERK14QSharedPointerINS_8FeedListEE
libakregatorprivate.so.6:_ZN9Akregator26ArticleHtmlWebEngineWriter10setBaseUrlERK4QUrl
libakregatorprivate.so.6:_ZN9Akregator26ArticleHtmlWebEngineWriter11qt_metacallEN11QMetaObject4CallEiPPv
libakregatorprivate.so.6:_ZN9Akregator26ArticleHtmlWebEngineWriter11qt_metacastEPKc
libakregatorprivate.so.6:_ZN9Akregator26ArticleHtmlWebEngineWriter16staticMetaObjectE
libakregatorprivate.so.6:_ZN9Akregator26ArticleHtmlWebEngineWriter3endEv
libakregatorprivate.so.6:_ZN9Akregator26ArticleHtmlWebEngineWriter5beginEv
libakregatorprivate.so.6:_ZN9Akregator26ArticleHtmlWebEngineWriter5flushEv
libakregatorprivate.so.6:_ZN9Akregator26ArticleHtmlWebEngineWriter5queueERK7QString
libakregatorprivate.so.6:_ZN9Akregator26ArticleHtmlWebEngineWriter5resetEv
libakregatorprivate.so.6:_ZN9Akregator26ArticleHtmlWebEngineWriter8finishedEv
libakregatorprivate.so.6:_ZN9Akregator26ArticleHtmlWebEngineWriterC1EPNS_22ArticleViewerWebEngineEP7QObject
libakregatorprivate.so.6:_ZN9Akregator26ArticleHtmlWebEngineWriterC2EPNS_22ArticleViewerWebEngineEP7QObject
libakregatorprivate.so.6:_ZN9Akregator26ArticleHtmlWebEngineWriterD0Ev
libakregatorprivate.so.6:_ZN9Akregator26ArticleHtmlWebEngineWriterD1Ev
libakregatorprivate.so.6:_ZN9Akregator26ArticleHtmlWebEngineWriterD2Ev
libakregatorprivate.so.6:_ZN9Akregator26DefaultNormalViewFormatterC1ERK7QStringP12QPaintDevice
libakregatorprivate.so.6:_ZN9Akregator26DefaultNormalViewFormatterC2ERK7QStringP12QPaintDevice
libakregatorprivate.so.6:_ZN9Akregator26DefaultNormalViewFormatterD0Ev
libakregatorprivate.so.6:_ZN9Akregator26DefaultNormalViewFormatterD1Ev
libakregatorprivate.so.6:_ZN9Akregator26DefaultNormalViewFormatterD2Ev
libakregatorprivate.so.6:_ZN9Akregator26URLHandlerWebEngineManager11qt_metacallEN11QMetaObject4CallEiPPv
libakregatorprivate.so.6:_ZN9Akregator26URLHandlerWebEngineManager11qt_metacastEPKc
libakregatorprivate.so.6:_ZN9Akregator26URLHandlerWebEngineManager15registerHandlerEPKNS_19URLHandlerWebEngineE
libakregatorprivate.so.6:_ZN9Akregator26URLHandlerWebEngineManager16staticMetaObjectE
libakregatorprivate.so.6:_ZN9Akregator26URLHandlerWebEngineManager17unregisterHandlerEPKNS_19URLHandlerWebEngineE
libakregatorprivate.so.6:_ZN9Akregator26URLHandlerWebEngineManager4selfE
libakregatorprivate.so.6:_ZN9Akregator26URLHandlerWebEngineManager8instanceEv
libakregatorprivate.so.6:_ZN9Akregator26URLHandlerWebEngineManagerC1EP7QObject
libakregatorprivate.so.6:_ZN9Akregator26URLHandlerWebEngineManagerC2EP7QObject
libakregatorprivate.so.6:_ZN9Akregator26URLHandlerWebEngineManagerD0Ev
libakregatorprivate.so.6:_ZN9Akregator26URLHandlerWebEngineManagerD1Ev
libakregatorprivate.so.6:_ZN9Akregator26URLHandlerWebEngineManagerD2Ev
libakregatorprivate.so.6:_ZN9Akregator28DefaultCombinedViewFormatterC1ERK7QStringP12QPaintDevice
libakregatorprivate.so.6:_ZN9Akregator28DefaultCombinedViewFormatterC2ERK7QStringP12QPaintDevice
libakregatorprivate.so.6:_ZN9Akregator28DefaultCombinedViewFormatterD0Ev
libakregatorprivate.so.6:_ZN9Akregator28DefaultCombinedViewFormatterD1Ev
libakregatorprivate.so.6:_ZN9Akregator28DefaultCombinedViewFormatterD2Ev
libakregatorprivate.so.6:_ZN9Akregator28createOpenLinkInNewTabActionERK4QUrlP7QObject
libakregatorprivate.so.6:_ZN9Akregator30ArticleViewerWebEngineWidgetNg11qt_metacallEN11QMetaObject4CallEiPPv
libakregatorprivate.so.6:_ZN9Akregator30ArticleViewerWebEngineWidgetNg11qt_metacastEPKc
libakregatorprivate.so.6:_ZN9Akregator30ArticleViewerWebEngineWidgetNg13slotSpeakTextEv
libakregatorprivate.so.6:_ZN9Akregator30ArticleViewerWebEngineWidgetNg16initializeLayoutEP17KActionCollection
libakregatorprivate.so.6:_ZN9Akregator30ArticleViewerWebEngineWidgetNg16slotPrintPreviewEv
libakregatorprivate.so.6:_ZN9Akregator30ArticleViewerWebEngineWidgetNg16staticMetaObjectE
libakregatorprivate.so.6:_ZN9Akregator30ArticleViewerWebEngineWidgetNg17slotOpenInBrowserEv
libakregatorprivate.so.6:_ZN9Akregator30ArticleViewerWebEngineWidgetNg19saveCurrentPositionEv
libakregatorprivate.so.6:_ZN9Akregator30ArticleViewerWebEngineWidgetNg24slotExportHtmlPageFailedEv
libakregatorprivate.so.6:_ZN9Akregator30ArticleViewerWebEngineWidgetNg25slotExportHtmlPageSuccessERK7QString
libakregatorprivate.so.6:_ZN9Akregator30ArticleViewerWebEngineWidgetNg8slotFindEv
libakregatorprivate.so.6:_ZN9Akregator30ArticleViewerWebEngineWidgetNg9slotPrintEv
libakregatorprivate.so.6:_ZN9Akregator30ArticleViewerWebEngineWidgetNgC1EP17KActionCollectionP7QWidget
libakregatorprivate.so.6:_ZN9Akregator30ArticleViewerWebEngineWidgetNgC1EPNS_22ArticleViewerWebEngineEP17KActionCollectionP7QWidget
libakregatorprivate.so.6:_ZN9Akregator30ArticleViewerWebEngineWidgetNgC2EP17KActionCollectionP7QWidget
libakregatorprivate.so.6:_ZN9Akregator30ArticleViewerWebEngineWidgetNgC2EPNS_22ArticleViewerWebEngineEP17KActionCollectionP7QWidget
libakregatorprivate.so.6:_ZN9Akregator30ArticleViewerWebEngineWidgetNgD0Ev
libakregatorprivate.so.6:_ZN9Akregator30ArticleViewerWebEngineWidgetNgD1Ev
libakregatorprivate.so.6:_ZN9Akregator30ArticleViewerWebEngineWidgetNgD2Ev
libakregatorprivate.so.6:_ZN9Akregator37createOpenLinkInExternalBrowserActionERK4QUrlP7QObject
libakregatorprivate.so.6:_ZN9Akregator4Feed10fetchErrorEPS0_
libakregatorprivate.so.6:_ZN9Akregator4Feed10setCommentERK7QString
libakregatorprivate.so.6:_ZN9Akregator4Feed10setFaviconERK5QIcon
libakregatorprivate.so.6:_ZN9Akregator4Feed10setHtmlUrlERK7QString
libakregatorprivate.so.6:_ZN9Akregator4Feed11loadFaviconERK7QStringb
libakregatorprivate.so.6:_ZN9Akregator4Feed11qt_metacallEN11QMetaObject4CallEiPPv
libakregatorprivate.so.6:_ZN9Akregator4Feed11qt_metacastEPKc
libakregatorprivate.so.6:_ZN9Akregator4Feed11setLogoInfoERKNS0_9ImageInfoE
libakregatorprivate.so.6:_ZN9Akregator4Feed12fetchAbortedEPS0_
libakregatorprivate.so.6:_ZN9Akregator4Feed12fetchStartedEPS0_
libakregatorprivate.so.6:_ZN9Akregator4Feed12loadArticlesEv
libakregatorprivate.so.6:_ZN9Akregator4Feed12setCopyrightERK7QString
libakregatorprivate.so.6:_ZN9Akregator4Feed13appendArticleERKNS_7ArticleE
libakregatorprivate.so.6:_ZN9Akregator4Feed14appendArticlesERK14QSharedPointerIN11Syndication4FeedEE
libakregatorprivate.so.6:_ZN9Akregator4Feed14fetchCompletedEPN11Syndication6LoaderE14QSharedPointerINS1_4FeedEENS1_9ErrorCodeE
libakregatorprivate.so.6:_ZN9Akregator4Feed14fetchDiscoveryEPS0_
libakregatorprivate.so.6:_ZN9Akregator4Feed14setArchiveModeENS0_11ArchiveModeE
libakregatorprivate.so.6:_ZN9Akregator4Feed14setDescriptionERK7QString
libakregatorprivate.so.6:_ZN9Akregator4Feed14setFaviconInfoERKNS0_9ImageInfoE
libakregatorprivate.so.6:_ZN9Akregator4Feed14slotAbortFetchEv
libakregatorprivate.so.6:_ZN9Akregator4Feed16markAsFetchedNowEv
libakregatorprivate.so.6:_ZN9Akregator4Feed16setFetchIntervalEi
libakregatorprivate.so.6:_ZN9Akregator4Feed16setMaxArticleAgeEi
libakregatorprivate.so.6:_ZN9Akregator4Feed16staticMetaObjectE
libakregatorprivate.so.6:_ZN9Akregator4Feed17recalcUnreadCountEv
libakregatorprivate.so.6:_ZN9Akregator4Feed17setArticleChangedERNS_7ArticleEib
libakregatorprivate.so.6:_ZN9Akregator4Feed17setArticleDeletedERNS_7ArticleE
libakregatorprivate.so.6:_ZN9Akregator4Feed18setUseNotificationEb
libakregatorprivate.so.6:_ZN9Akregator4Feed19archiveModeToStringENS0_11ArchiveModeE
libakregatorprivate.so.6:_ZN9Akregator4Feed19createMarkAsReadJobEv
libakregatorprivate.so.6:_ZN9Akregator4Feed19setFaviconLocalPathERK7QString
libakregatorprivate.so.6:_ZN9Akregator4Feed19setMaxArticleNumberEi
libakregatorprivate.so.6:_ZN9Akregator4Feed19slotAddToFetchQueueEPNS_10FetchQueueEb
libakregatorprivate.so.6:_ZN9Akregator4Feed19stringToArchiveModeERK7QString
libakregatorprivate.so.6:_ZN9Akregator4Feed20setLoadLinkedWebsiteEb
libakregatorprivate.so.6:_ZN9Akregator4Feed21deleteExpiredArticlesEPNS_16ArticleDeleteJobE
libakregatorprivate.so.6:_ZN9Akregator4Feed21doArticleNotificationEv
libakregatorprivate.so.6:_ZN9Akregator4Feed23slotAddFeedIconListenerEv
libakregatorprivate.so.6:_ZN9Akregator4Feed24setMarkImmediatelyAsReadEb
libakregatorprivate.so.6:_ZN9Akregator4Feed25enforceLimitArticleNumberEv
libakregatorprivate.so.6:_ZN9Akregator4Feed29setCustomFetchIntervalEnabledEb
libakregatorprivate.so.6:_ZN9Akregator4Feed4nextEv
libakregatorprivate.so.6:_ZN9Akregator4Feed5feedsEv
libakregatorprivate.so.6:_ZN9Akregator4Feed5fetchEb
libakregatorprivate.so.6:_ZN9Akregator4Feed6acceptEPNS_15TreeNodeVisitorE
libakregatorprivate.so.6:_ZN9Akregator4Feed7fetchedEPS0_
libakregatorprivate.so.6:_ZN9Akregator4Feed7foldersEv
libakregatorprivate.so.6:_ZN9Akregator4Feed7storageEv
libakregatorprivate.so.6:_ZN9Akregator4Feed8articlesEv
libakregatorprivate.so.6:_ZN9Akregator4Feed8fromOPMLERK11QDomElementPNS_7Backend7StorageE
libakregatorprivate.so.6:_ZN9Akregator4Feed8tryFetchEv
libakregatorprivate.so.6:_ZN9Akregator4Feed9setUnreadEi
libakregatorprivate.so.6:_ZN9Akregator4Feed9setXmlUrlERK7QString
libakregatorprivate.so.6:_ZN9Akregator4FeedC1EPNS_7Backend7StorageE
libakregatorprivate.so.6:_ZN9Akregator4FeedC2EPNS_7Backend7StorageE
libakregatorprivate.so.6:_ZN9Akregator4FeedD0Ev
libakregatorprivate.so.6:_ZN9Akregator4FeedD1Ev
libakregatorprivate.so.6:_ZN9Akregator4FeedD2Ev
libakregatorprivate.so.6:_ZN9Akregator5Frame11m_idCounterE
libakregatorprivate.so.6:_ZN9Akregator5Frame11qt_metacallEN11QMetaObject4CallEiPPv
libakregatorprivate.so.6:_ZN9Akregator5Frame11qt_metacastEPKc
libakregatorprivate.so.6:_ZN9Akregator5Frame12setRemovableEb
libakregatorprivate.so.6:_ZN9Akregator5Frame12slotSetStateENS0_5StateE
libakregatorprivate.so.6:_ZN9Akregator5Frame12slotSetTitleERK7QString
libakregatorprivate.so.6:_ZN9Akregator5Frame13signalStartedEPS0_
libakregatorprivate.so.6:_ZN9Akregator5Frame14signalCanceledEPS0_RK7QString
libakregatorprivate.so.6:_ZN9Akregator5Frame14slotSetCaptionERK7QString
libakregatorprivate.so.6:_ZN9Akregator5Frame14slotSetStartedEv
libakregatorprivate.so.6:_ZN9Akregator5Frame15signalCompletedEPS0_
libakregatorprivate.so.6:_ZN9Akregator5Frame15slotSetCanceledERK7QString
libakregatorprivate.so.6:_ZN9Akregator5Frame15slotSetProgressEi
libakregatorprivate.so.6:_ZN9Akregator5Frame16signalStatusTextEPS0_RK7QString
libakregatorprivate.so.6:_ZN9Akregator5Frame16slotSetCompletedEv
libakregatorprivate.so.6:_ZN9Akregator5Frame16staticMetaObjectE
libakregatorprivate.so.6:_ZN9Akregator5Frame17slotSetStatusTextERK7QString
libakregatorprivate.so.6:_ZN9Akregator5Frame18signalTitleChangedEPS0_RK7QString
libakregatorprivate.so.6:_ZN9Akregator5Frame20showStatusBarMessageERK7QString
libakregatorprivate.so.6:_ZN9Akregator5Frame20signalCaptionChangedEPS0_RK7QString
libakregatorprivate.so.6:_ZN9Akregator5Frame20signalOpenUrlRequestERNS_14OpenUrlRequestE
libakregatorprivate.so.6:_ZN9Akregator5Frame21signalLoadingProgressEPS0_i
libakregatorprivate.so.6:_ZN9Akregator5Frame7setIconERK5QIcon
libakregatorprivate.so.6:_ZN9Akregator5Frame8slotStopEv
libakregatorprivate.so.6:_ZN9Akregator5FrameC2EP7QWidget
libakregatorprivate.so.6:_ZN9Akregator5FrameD0Ev
libakregatorprivate.so.6:_ZN9Akregator5FrameD1Ev
libakregatorprivate.so.6:_ZN9Akregator5FrameD2Ev
libakregatorprivate.so.6:_ZN9Akregator5Utils15convertHtmlTagsERK7QString
libakregatorprivate.so.6:_ZN9Akregator5Utils8calcHashERK7QString
libakregatorprivate.so.6:_ZN9Akregator5Utils9stripTagsE7QString
libakregatorprivate.so.6:_ZN9Akregator6Folder10firstChildEv
libakregatorprivate.so.6:_ZN9Akregator6Folder11appendChildEPNS_8TreeNodeE
libakregatorprivate.so.6:_ZN9Akregator6Folder11insertChildEPNS_8TreeNodeES2_
libakregatorprivate.so.6:_ZN9Akregator6Folder11insertChildEiPNS_8TreeNodeE
libakregatorprivate.so.6:_ZN9Akregator6Folder11qt_metacallEN11QMetaObject4CallEiPPv
libakregatorprivate.so.6:_ZN9Akregator6Folder11qt_metacastEPKc
libakregatorprivate.so.6:_ZN9Akregator6Folder11removeChildEPNS_8TreeNodeE
libakregatorprivate.so.6:_ZN9Akregator6Folder12prependChildEPNS_8TreeNodeE
libakregatorprivate.so.6:_ZN9Akregator6Folder13connectToNodeEPNS_8TreeNodeE
libakregatorprivate.so.6:_ZN9Akregator6Folder13namedChildrenERK7QString
libakregatorprivate.so.6:_ZN9Akregator6Folder16signalChildAddedEPNS_8TreeNodeE
libakregatorprivate.so.6:_ZN9Akregator6Folder16slotChildChangedEPNS_8TreeNodeE
libakregatorprivate.so.6:_ZN9Akregator6Folder16staticMetaObjectE
libakregatorprivate.so.6:_ZN9Akregator6Folder18disconnectFromNodeEPNS_8TreeNodeE
libakregatorprivate.so.6:_ZN9Akregator6Folder18signalChildRemovedEPS0_PNS_8TreeNodeE
libakregatorprivate.so.6:_ZN9Akregator6Folder18slotChildDestroyedEPNS_8TreeNodeE
libakregatorprivate.so.6:_ZN9Akregator6Folder19createMarkAsReadJobEv
libakregatorprivate.so.6:_ZN9Akregator6Folder19slotAddToFetchQueueEPNS_10FetchQueueEb
libakregatorprivate.so.6:_ZN9Akregator6Folder21doArticleNotificationEv
libakregatorprivate.so.6:_ZN9Akregator6Folder24signalAboutToRemoveChildEPNS_8TreeNodeE
libakregatorprivate.so.6:_ZN9Akregator6Folder4nextEv
libakregatorprivate.so.6:_ZN9Akregator6Folder5feedsEv
libakregatorprivate.so.6:_ZN9Akregator6Folder6acceptEPNS_15TreeNodeVisitorE
libakregatorprivate.so.6:_ZN9Akregator6Folder7childAtEi
libakregatorprivate.so.6:_ZN9Akregator6Folder7foldersEv
libakregatorprivate.so.6:_ZN9Akregator6Folder7setOpenEb
libakregatorprivate.so.6:_ZN9Akregator6Folder8articlesEv
libakregatorprivate.so.6:_ZN9Akregator6Folder8childrenEv
libakregatorprivate.so.6:_ZN9Akregator6Folder8fromOPMLERK11QDomElement
libakregatorprivate.so.6:_ZN9Akregator6Folder9lastChildEv
libakregatorprivate.so.6:_ZN9Akregator6FolderC1ERK7QString
libakregatorprivate.so.6:_ZN9Akregator6FolderC2ERK7QString
libakregatorprivate.so.6:_ZN9Akregator6FolderD0Ev
libakregatorprivate.so.6:_ZN9Akregator6FolderD1Ev
libakregatorprivate.so.6:_ZN9Akregator6FolderD2Ev
libakregatorprivate.so.6:_ZN9Akregator6Kernel10setStorageEPNS_7Backend7StorageE
libakregatorprivate.so.6:_ZN9Akregator6Kernel11setFeedListERK14QSharedPointerINS_8FeedListEE
libakregatorprivate.so.6:_ZN9Akregator6Kernel4selfEv
libakregatorprivate.so.6:_ZN9Akregator6Kernel6m_selfE
libakregatorprivate.so.6:_ZN9Akregator6Kernel7storageEv
libakregatorprivate.so.6:_ZN9Akregator6KernelC1Ev
libakregatorprivate.so.6:_ZN9Akregator6KernelC2Ev
libakregatorprivate.so.6:_ZN9Akregator6KernelD1Ev
libakregatorprivate.so.6:_ZN9Akregator6KernelD2Ev
libakregatorprivate.so.6:_ZN9Akregator7Article10setDeletedEv
libakregatorprivate.so.6:_ZN9Akregator7Article13offsetPubDateEi
libakregatorprivate.so.6:_ZN9Akregator7Article7PrivateC1ERK14QSharedPointerIN11Syndication4ItemEEPNS_4FeedEPNS_7Backend11FeedStorageE
libakregatorprivate.so.6:_ZN9Akregator7Article7PrivateC1ERK7QStringPNS_4FeedEPNS_7Backend11FeedStorageE
libakregatorprivate.so.6:_ZN9Akregator7Article7PrivateC1Ev
libakregatorprivate.so.6:_ZN9Akregator7Article7PrivateC2ERK14QSharedPointerIN11Syndication4ItemEEPNS_4FeedEPNS_7Backend11FeedStorageE
libakregatorprivate.so.6:_ZN9Akregator7Article7PrivateC2ERK7QStringPNS_4FeedEPNS_7Backend11FeedStorageE
libakregatorprivate.so.6:_ZN9Akregator7Article7PrivateC2Ev
libakregatorprivate.so.6:_ZN9Akregator7Article7setKeepEb
libakregatorprivate.so.6:_ZN9Akregator7Article9setStatusEi
libakregatorprivate.so.6:_ZN9Akregator7ArticleC1ERK14QSharedPointerIN11Syndication4ItemEEPNS_4FeedE
libakregatorprivate.so.6:_ZN9Akregator7ArticleC1ERK14QSharedPointerIN11Syndication4ItemEEPNS_7Backend11FeedStorageE
libakregatorprivate.so.6:_ZN9Akregator7ArticleC1ERK7QStringPNS_4FeedEPNS_7Backend11FeedStorageE
libakregatorprivate.so.6:_ZN9Akregator7ArticleC1ERKS0_
libakregatorprivate.so.6:_ZN9Akregator7ArticleC1Ev
libakregatorprivate.so.6:_ZN9Akregator7ArticleC2ERK14QSharedPointerIN11Syndication4ItemEEPNS_4FeedE
libakregatorprivate.so.6:_ZN9Akregator7ArticleC2ERK14QSharedPointerIN11Syndication4ItemEEPNS_7Backend11FeedStorageE
libakregatorprivate.so.6:_ZN9Akregator7ArticleC2ERK7QStringPNS_4FeedEPNS_7Backend11FeedStorageE
libakregatorprivate.so.6:_ZN9Akregator7ArticleC2ERKS0_
libakregatorprivate.so.6:_ZN9Akregator7ArticleC2Ev
libakregatorprivate.so.6:_ZN9Akregator7ArticleD1Ev
libakregatorprivate.so.6:_ZN9Akregator7ArticleD2Ev
libakregatorprivate.so.6:_ZN9Akregator7ArticleaSERKS0_
libakregatorprivate.so.6:_ZN9Akregator7Backend11FeedStorage10setContentERK7QStringS4_
libakregatorprivate.so.6:_ZN9Akregator7Backend11FeedStorage10setDeletedERK7QString
libakregatorprivate.so.6:_ZN9Akregator7Backend11FeedStorage10setPubDateERK7QStringRK9QDateTime
libakregatorprivate.so.6:_ZN9Akregator7Backend11FeedStorage12setAuthorUriERK7QStringS4_
libakregatorprivate.so.6:_ZN9Akregator7Backend11FeedStorage12setEnclosureERK7QStringS4_S4_i
libakregatorprivate.so.6:_ZN9Akregator7Backend11FeedStorage12setLastFetchERK9QDateTime
libakregatorprivate.so.6:_ZN9Akregator7Backend11FeedStorage13deleteArticleERK7QString
libakregatorprivate.so.6:_ZN9Akregator7Backend11FeedStorage13setAuthorNameERK7QStringS4_
libakregatorprivate.so.6:_ZN9Akregator7Backend11FeedStorage13setCategoriesERK7QStringRK5QListIS2_E
libakregatorprivate.so.6:_ZN9Akregator7Backend11FeedStorage13setGuidIsHashERK7QStringb
libakregatorprivate.so.6:_ZN9Akregator7Backend11FeedStorage13setTotalCountEi
libakregatorprivate.so.6:_ZN9Akregator7Backend11FeedStorage14setAuthorEMailERK7QStringS4_
libakregatorprivate.so.6:_ZN9Akregator7Backend11FeedStorage14setDescriptionERK7QStringS4_
libakregatorprivate.so.6:_ZN9Akregator7Backend11FeedStorage15removeEnclosureERK7QString
libakregatorprivate.so.6:_ZN9Akregator7Backend11FeedStorage18setGuidIsPermaLinkERK7QStringb
libakregatorprivate.so.6:_ZN9Akregator7Backend11FeedStorage5closeEv
libakregatorprivate.so.6:_ZN9Akregator7Backend11FeedStorage6commitEv
libakregatorprivate.so.6:_ZN9Akregator7Backend11FeedStorage7setHashERK7QStringj
libakregatorprivate.so.6:_ZN9Akregator7Backend11FeedStorage7setLinkERK7QStringS4_
libakregatorprivate.so.6:_ZN9Akregator7Backend11FeedStorage8addEntryERK7QString
libakregatorprivate.so.6:_ZN9Akregator7Backend11FeedStorage8rollbackEv
libakregatorprivate.so.6:_ZN9Akregator7Backend11FeedStorage8setTitleERK7QStringS4_
libakregatorprivate.so.6:_ZN9Akregator7Backend11FeedStorage9markDirtyEv
libakregatorprivate.so.6:_ZN9Akregator7Backend11FeedStorage9setStatusERK7QStringi
libakregatorprivate.so.6:_ZN9Akregator7Backend11FeedStorage9setUnreadEi
libakregatorprivate.so.6:_ZN9Akregator7Backend11FeedStorageC1ERK7QStringPNS0_7StorageE
libakregatorprivate.so.6:_ZN9Akregator7Backend11FeedStorageC2ERK7QStringPNS0_7StorageE
libakregatorprivate.so.6:_ZN9Akregator7Backend11FeedStorageD0Ev
libakregatorprivate.so.6:_ZN9Akregator7Backend11FeedStorageD1Ev
libakregatorprivate.so.6:_ZN9Akregator7Backend11FeedStorageD2Ev
libakregatorprivate.so.6:_ZN9Akregator7Backend7Storage10archiveForERK7QString
libakregatorprivate.so.6:_ZN9Akregator7Backend7Storage10slotCommitEv
libakregatorprivate.so.6:_ZN9Akregator7Backend7Storage11qt_metacallEN11QMetaObject4CallEiPPv
libakregatorprivate.so.6:_ZN9Akregator7Backend7Storage11qt_metacastEPKc
libakregatorprivate.so.6:_ZN9Akregator7Backend7Storage12setUnreadForERK7QStringi
libakregatorprivate.so.6:_ZN9Akregator7Backend7Storage13storeFeedListERK7QString
libakregatorprivate.so.6:_ZN9Akregator7Backend7Storage14StoragePrivate17createFeedStorageERK7QString
libakregatorprivate.so.6:_ZN9Akregator7Backend7Storage14setArchivePathERK7QString
libakregatorprivate.so.6:_ZN9Akregator7Backend7Storage15setLastFetchForERK7QStringRK9QDateTime
libakregatorprivate.so.6:_ZN9Akregator7Backend7Storage16setTotalCountForERK7QStringi
libakregatorprivate.so.6:_ZN9Akregator7Backend7Storage16staticMetaObjectE
libakregatorprivate.so.6:_ZN9Akregator7Backend7Storage18defaultArchivePathEv
libakregatorprivate.so.6:_ZN9Akregator7Backend7Storage4openEb
libakregatorprivate.so.6:_ZN9Akregator7Backend7Storage5closeEv
libakregatorprivate.so.6:_ZN9Akregator7Backend7Storage6commitEv
libakregatorprivate.so.6:_ZN9Akregator7Backend7Storage8rollbackEv
libakregatorprivate.so.6:_ZN9Akregator7Backend7Storage9markDirtyEv
libakregatorprivate.so.6:_ZN9Akregator7Backend7StorageC1Ev
libakregatorprivate.so.6:_ZN9Akregator7Backend7StorageC2Ev
libakregatorprivate.so.6:_ZN9Akregator7Backend7StorageD0Ev
libakregatorprivate.so.6:_ZN9Akregator7Backend7StorageD1Ev
libakregatorprivate.so.6:_ZN9Akregator7Backend7StorageD2Ev
libakregatorprivate.so.6:_ZN9Akregator8FeedList10fetchErrorEPNS_4FeedE
libakregatorprivate.so.6:_ZN9Akregator8FeedList10removeNodeEPNS_8TreeNodeE
libakregatorprivate.so.6:_ZN9Akregator8FeedList11findByTitleERK7QString
libakregatorprivate.so.6:_ZN9Akregator8FeedList11qt_metacallEN11QMetaObject4CallEiPPv
libakregatorprivate.so.6:_ZN9Akregator8FeedList11qt_metacastEPKc
libakregatorprivate.so.6:_ZN9Akregator8FeedList11setRootNodeEPNS_6FolderE
libakregatorprivate.so.6:_ZN9Akregator8FeedList12fetchAbortedEPNS_4FeedE
libakregatorprivate.so.6:_ZN9Akregator8FeedList12fetchStartedEPNS_4FeedE
libakregatorprivate.so.6:_ZN9Akregator8FeedList12readFromOpmlERK12QDomDocument
libakregatorprivate.so.6:_ZN9Akregator8FeedList13slotNodeAddedEPNS_8TreeNodeE
libakregatorprivate.so.6:_ZN9Akregator8FeedList14allFeedsFolderEv
libakregatorprivate.so.6:_ZN9Akregator8FeedList14fetchDiscoveryEPNS_4FeedE
libakregatorprivate.so.6:_ZN9Akregator8FeedList15addToFetchQueueEPNS_10FetchQueueEb
libakregatorprivate.so.6:_ZN9Akregator8FeedList15parseChildNodesER8QDomNodePNS_6FolderE
libakregatorprivate.so.6:_ZN9Akregator8FeedList15rootNodeChangedEv
libakregatorprivate.so.6:_ZN9Akregator8FeedList15signalDestroyedEPS0_
libakregatorprivate.so.6:_ZN9Akregator8FeedList15signalNodeAddedEPNS_8TreeNodeE
libakregatorprivate.so.6:_ZN9Akregator8FeedList15slotNodeRemovedEPNS_6FolderEPNS_8TreeNodeE
libakregatorprivate.so.6:_ZN9Akregator8FeedList16staticMetaObjectE
libakregatorprivate.so.6:_ZN9Akregator8FeedList17signalNodeChangedEPNS_8TreeNodeE
libakregatorprivate.so.6:_ZN9Akregator8FeedList17signalNodeRemovedEPNS_8TreeNodeE
libakregatorprivate.so.6:_ZN9Akregator8FeedList17slotNodeDestroyedEPNS_8TreeNodeE
libakregatorprivate.so.6:_ZN9Akregator8FeedList18unreadCountChangedEi
libakregatorprivate.so.6:_ZN9Akregator8FeedList19createMarkAsReadJobEv
libakregatorprivate.so.6:_ZN9Akregator8FeedList23signalAboutToRemoveNodeEPNS_8TreeNodeE
libakregatorprivate.so.6:_ZN9Akregator8FeedList5feedsEv
libakregatorprivate.so.6:_ZN9Akregator8FeedList6appendEPS0_PNS_6FolderEPNS_8TreeNodeE
libakregatorprivate.so.6:_ZN9Akregator8FeedList7addNodeEPNS_8TreeNodeEb
libakregatorprivate.so.6:_ZN9Akregator8FeedList7fetchedEPNS_4FeedE
libakregatorprivate.so.6:_ZN9Akregator8FeedList7foldersEv
libakregatorprivate.so.6:_ZN9Akregator8FeedList8findByIDEj
libakregatorprivate.so.6:_ZN9Akregator8FeedList9findByURLERK7QString
libakregatorprivate.so.6:_ZN9Akregator8FeedListC1EPNS_7Backend7StorageE
libakregatorprivate.so.6:_ZN9Akregator8FeedListC2EPNS_7Backend7StorageE
libakregatorprivate.so.6:_ZN9Akregator8FeedListD0Ev
libakregatorprivate.so.6:_ZN9Akregator8FeedListD1Ev
libakregatorprivate.so.6:_ZN9Akregator8FeedListD2Ev
libakregatorprivate.so.6:_ZN9Akregator8TrayIcon10m_instanceE
libakregatorprivate.so.6:_ZN9Akregator8TrayIcon10setEnabledEb
libakregatorprivate.so.6:_ZN9Akregator8TrayIcon11getInstanceEv
libakregatorprivate.so.6:_ZN9Akregator8TrayIcon11qt_metacallEN11QMetaObject4CallEiPPv
libakregatorprivate.so.6:_ZN9Akregator8TrayIcon11qt_metacastEPKc
libakregatorprivate.so.6:_ZN9Akregator8TrayIcon11setInstanceEPS0_
libakregatorprivate.so.6:_ZN9Akregator8TrayIcon13slotSetUnreadEi
libakregatorprivate.so.6:_ZN9Akregator8TrayIcon15settingsChangedEv
libakregatorprivate.so.6:_ZN9Akregator8TrayIcon16staticMetaObjectE
libakregatorprivate.so.6:_ZN9Akregator8TrayIconC1EP7QObject
libakregatorprivate.so.6:_ZN9Akregator8TrayIconC2EP7QObject
libakregatorprivate.so.6:_ZN9Akregator8TrayIconD0Ev
libakregatorprivate.so.6:_ZN9Akregator8TrayIconD1Ev
libakregatorprivate.so.6:_ZN9Akregator8TrayIconD2Ev
libakregatorprivate.so.6:_ZN9Akregator8TreeNode11nextSiblingEv
libakregatorprivate.so.6:_ZN9Akregator8TreeNode11prevSiblingEv
libakregatorprivate.so.6:_ZN9Akregator8TreeNode11qt_metacallEN11QMetaObject4CallEiPPv
libakregatorprivate.so.6:_ZN9Akregator8TreeNode11qt_metacastEPKc
libakregatorprivate.so.6:_ZN9Akregator8TreeNode12nodeModifiedEv
libakregatorprivate.so.6:_ZN9Akregator8TreeNode13createListJobEv
libakregatorprivate.so.6:_ZN9Akregator8TreeNode13signalChangedEPS0_
libakregatorprivate.so.6:_ZN9Akregator8TreeNode15signalDestroyedEPS0_
libakregatorprivate.so.6:_ZN9Akregator8TreeNode16articlesModifiedEv
libakregatorprivate.so.6:_ZN9Akregator8TreeNode16staticMetaObjectE
libakregatorprivate.so.6:_ZN9Akregator8TreeNode19emitSignalDestroyedEv
libakregatorprivate.so.6:_ZN9Akregator8TreeNode19setNotificationModeEb
libakregatorprivate.so.6:_ZN9Akregator8TreeNode19signalArticlesAddedEPS0_RK5QListINS_7ArticleEE
libakregatorprivate.so.6:_ZN9Akregator8TreeNode21doArticleNotificationEv
libakregatorprivate.so.6:_ZN9Akregator8TreeNode21signalArticlesRemovedEPS0_RK5QListINS_7ArticleEE
libakregatorprivate.so.6:_ZN9Akregator8TreeNode21signalArticlesUpdatedEPS0_RK5QListINS_7ArticleEE
libakregatorprivate.so.6:_ZN9Akregator8TreeNode29setListViewScrollBarPositionsERK6QPoint
libakregatorprivate.so.6:_ZN9Akregator8TreeNode5setIdEj
libakregatorprivate.so.6:_ZN9Akregator8TreeNode6parentEv
libakregatorprivate.so.6:_ZN9Akregator8TreeNode7childAtEi
libakregatorprivate.so.6:_ZN9Akregator8TreeNode8childrenEv
libakregatorprivate.so.6:_ZN9Akregator8TreeNode8setTitleERK7QString
libakregatorprivate.so.6:_ZN9Akregator8TreeNode9setParentEPNS_6FolderE
libakregatorprivate.so.6:_ZN9Akregator8TreeNodeC2Ev
libakregatorprivate.so.6:_ZN9Akregator8TreeNodeD0Ev
libakregatorprivate.so.6:_ZN9Akregator8TreeNodeD1Ev
libakregatorprivate.so.6:_ZN9Akregator8TreeNodeD2Ev
libakregatorprivate.so.6:_ZN9Akregator9AboutDataC1Ev
libakregatorprivate.so.6:_ZN9Akregator9AboutDataC2Ev
libakregatorprivate.so.6:_ZN9Akregator9AboutDataD1Ev
libakregatorprivate.so.6:_ZN9Akregator9AboutDataD2Ev
libakregatorprivate.so.6:_ZN9Akregator9MainFrame11qt_metacallEN11QMetaObject4CallEiPPv
libakregatorprivate.so.6:_ZN9Akregator9MainFrame11qt_metacastEPKc
libakregatorprivate.so.6:_ZN9Akregator9MainFrame15slotCopyInFrameEi
libakregatorprivate.so.6:_ZN9Akregator9MainFrame16setArticleViewerEPNS_19ArticleViewerWidgetE
libakregatorprivate.so.6:_ZN9Akregator9MainFrame16slotPrintInFrameEi
libakregatorprivate.so.6:_ZN9Akregator9MainFrame16staticMetaObjectE
libakregatorprivate.so.6:_ZN9Akregator9MainFrame19slotFindTextInFrameEi
libakregatorprivate.so.6:_ZN9Akregator9MainFrame21slotCopyLinkAsInFrameEi
libakregatorprivate.so.6:_ZN9Akregator9MainFrame21slotSaveLinkAsInFrameEi
libakregatorprivate.so.6:_ZN9Akregator9MainFrame21slotZoomChangeInFrameEid
libakregatorprivate.so.6:_ZN9Akregator9MainFrame23slotPrintPreviewInFrameEi
libakregatorprivate.so.6:_ZN9Akregator9MainFrame23slotTextToSpeechInFrameEi
libakregatorprivate.so.6:_ZN9Akregator9MainFrame26slotSaveImageOnDiskInFrameEi
libakregatorprivate.so.6:_ZN9Akregator9MainFrame28slotCopyImageLocationInFrameEi
libakregatorprivate.so.6:_ZN9Akregator9MainFrame8slotMuteEib
libakregatorprivate.so.6:_ZN9Akregator9MainFrameC1EP7QWidgetS2_
libakregatorprivate.so.6:_ZN9Akregator9MainFrameC2EP7QWidgetS2_
libakregatorprivate.so.6:_ZN9Akregator9MainFrameD0Ev
libakregatorprivate.so.6:_ZN9Akregator9MainFrameD1Ev
libakregatorprivate.so.6:_ZN9Akregator9MainFrameD2Ev
libakregatorprivate.so.6:_ZNK19UnityServiceManager10metaObjectEv
libakregatorprivate.so.6:_ZNK9Akregator10FetchQueue10metaObjectEv
libakregatorprivate.so.6:_ZNK9Akregator10FetchQueue7isEmptyEv
libakregatorprivate.so.6:_ZNK9Akregator12CompositeJob10metaObjectEv
libakregatorprivate.so.6:_ZNK9Akregator12FrameManager10metaObjectEv
libakregatorprivate.so.6:_ZNK9Akregator12FrameManager12currentFrameEv
libakregatorprivate.so.6:_ZNK9Akregator12FrameManager13findFrameByIdEi
libakregatorprivate.so.6:_ZNK9Akregator13ActionManager10metaObjectEv
libakregatorprivate.so.6:_ZNK9Akregator14ArticleListJob10metaObjectEv
libakregatorprivate.so.6:_ZNK9Akregator14ArticleListJob4nodeEv
libakregatorprivate.so.6:_ZNK9Akregator14ArticleListJob8articlesEv
libakregatorprivate.so.6:_ZNK9Akregator14OpenUrlRequest10wasHandledEv
libakregatorprivate.so.6:_ZNK9Akregator14OpenUrlRequest16openInBackgroundEv
libakregatorprivate.so.6:_ZNK9Akregator14OpenUrlRequest3urlEv
libakregatorprivate.so.6:_ZNK9Akregator14OpenUrlRequest7frameIdEv
libakregatorprivate.so.6:_ZNK9Akregator14OpenUrlRequest7optionsEv
libakregatorprivate.so.6:_ZNK9Akregator14OpenUrlRequest9debugInfoEv
libakregatorprivate.so.6:_ZNK9Akregator14WebEngineFrame10metaObjectEv
libakregatorprivate.so.6:_ZNK9Akregator14WebEngineFrame10zoomFactorEv
libakregatorprivate.so.6:_ZNK9Akregator14WebEngineFrame3urlEv
libakregatorprivate.so.6:_ZNK9Akregator16ArticleDeleteJob10metaObjectEv
libakregatorprivate.so.6:_ZNK9Akregator16ArticleModifyJob10metaObjectEv
libakregatorprivate.so.6:_ZNK9Akregator18DownloadArticleJob10metaObjectEv
libakregatorprivate.so.6:_ZNK9Akregator19ArticleViewerWidget10metaObjectEv
libakregatorprivate.so.6:_ZNK9Akregator19ArticleViewerWidget10zoomFactorEv
libakregatorprivate.so.6:_ZNK9Akregator19ArticleViewerWidget21articleViewerWidgetNgEv
libakregatorprivate.so.6:_ZNK9Akregator19ArticleViewerWidget8sizeHintEv
libakregatorprivate.so.6:_ZNK9Akregator19DownloadFeedIconJob10metaObjectEv
libakregatorprivate.so.6:_ZNK9Akregator19DownloadFeedIconJob11feedIconUrlEv
libakregatorprivate.so.6:_ZNK9Akregator19DownloadFeedIconJob15downloadFaviconEv
libakregatorprivate.so.6:_ZNK9Akregator19DownloadFeedIconJob8canStartEv
libakregatorprivate.so.6:_ZNK9Akregator19MoveSubscriptionJob10metaObjectEv
libakregatorprivate.so.6:_ZNK9Akregator19NotificationManager10metaObjectEv
libakregatorprivate.so.6:_ZNK9Akregator21DeleteSubscriptionJob10metaObjectEv
libakregatorprivate.so.6:_ZNK9Akregator21RenameSubscriptionJob10metaObjectEv
libakregatorprivate.so.6:_ZNK9Akregator22ArticleViewerWebEngine10metaObjectEv
libakregatorprivate.so.6:_ZNK9Akregator22ArticleViewerWebEngine16introductionDataEv
libakregatorprivate.so.6:_ZNK9Akregator22FeedListManagementImpl10categoriesEv
libakregatorprivate.so.6:_ZNK9Akregator22FeedListManagementImpl15getCategoryNameERK7QString
libakregatorprivate.so.6:_ZNK9Akregator22FeedListManagementImpl5feedsERK7QString
libakregatorprivate.so.6:_ZNK9Akregator26ArticleHtmlWebEngineWriter10metaObjectEv
libakregatorprivate.so.6:_ZNK9Akregator26DefaultNormalViewFormatter13formatSummaryEPNS_8TreeNodeE
libakregatorprivate.so.6:_ZNK9Akregator26DefaultNormalViewFormatter14formatArticlesERK5QListINS_7ArticleEENS_16ArticleFormatter10IconOptionE
libakregatorprivate.so.6:_ZNK9Akregator26URLHandlerWebEngineManager10metaObjectEv
libakregatorprivate.so.6:_ZNK9Akregator26URLHandlerWebEngineManager11handleClickERK4QUrlPNS_22ArticleViewerWebEngineE
libakregatorprivate.so.6:_ZNK9Akregator26URLHandlerWebEngineManager16statusBarMessageERK4QUrlPNS_22ArticleViewerWebEngineE
libakregatorprivate.so.6:_ZNK9Akregator26URLHandlerWebEngineManager24handleContextMenuRequestERK4QUrlRK6QPointPNS_22ArticleViewerWebEngineE
libakregatorprivate.so.6:_ZNK9Akregator28DefaultCombinedViewFormatter13formatSummaryEPNS_8TreeNodeE
libakregatorprivate.so.6:_ZNK9Akregator28DefaultCombinedViewFormatter14formatArticlesERK5QListINS_7ArticleEENS_16ArticleFormatter10IconOptionE
libakregatorprivate.so.6:_ZNK9Akregator30ArticleViewerWebEngineWidgetNg10metaObjectEv
libakregatorprivate.so.6:_ZNK9Akregator30ArticleViewerWebEngineWidgetNg15articleViewerNgEv
libakregatorprivate.so.6:_ZNK9Akregator4Feed10isFetchingEv
libakregatorprivate.so.6:_ZNK9Akregator4Feed10metaObjectEv
libakregatorprivate.so.6:_ZNK9Akregator4Feed10totalCountEv
libakregatorprivate.so.6:_ZNK9Akregator4Feed11archiveModeEv
libakregatorprivate.so.6:_ZNK9Akregator4Feed11descriptionEv
libakregatorprivate.so.6:_ZNK9Akregator4Feed11faviconInfoEv
libakregatorprivate.so.6:_ZNK9Akregator4Feed11findArticleERK7QString
libakregatorprivate.so.6:_ZNK9Akregator4Feed13fetchIntervalEv
libakregatorprivate.so.6:_ZNK9Akregator4Feed13maxArticleAgeEv
libakregatorprivate.so.6:_ZNK9Akregator4Feed14fetchErrorCodeEv
libakregatorprivate.so.6:_ZNK9Akregator4Feed15useNotificationEv
libakregatorprivate.so.6:_ZNK9Akregator4Feed15usesExpiryByAgeEv
libakregatorprivate.so.6:_ZNK9Akregator4Feed16isArticlesLoadedEv
libakregatorprivate.so.6:_ZNK9Akregator4Feed16maxArticleNumberEv
libakregatorprivate.so.6:_ZNK9Akregator4Feed17loadLinkedWebsiteEv
libakregatorprivate.so.6:_ZNK9Akregator4Feed18fetchErrorOccurredEv
libakregatorprivate.so.6:_ZNK9Akregator4Feed21markImmediatelyAsReadEv
libakregatorprivate.so.6:_ZNK9Akregator4Feed22useCustomFetchIntervalEv
libakregatorprivate.so.6:_ZNK9Akregator4Feed4iconEv
libakregatorprivate.so.6:_ZNK9Akregator4Feed4nextEv
libakregatorprivate.so.6:_ZNK9Akregator4Feed5feedsEv
libakregatorprivate.so.6:_ZNK9Akregator4Feed6toOPMLE11QDomElement12QDomDocument
libakregatorprivate.so.6:_ZNK9Akregator4Feed6unreadEv
libakregatorprivate.so.6:_ZNK9Akregator4Feed6xmlUrlEv
libakregatorprivate.so.6:_ZNK9Akregator4Feed7commentEv
libakregatorprivate.so.6:_ZNK9Akregator4Feed7foldersEv
libakregatorprivate.so.6:_ZNK9Akregator4Feed7htmlUrlEv
libakregatorprivate.so.6:_ZNK9Akregator4Feed8logoInfoEv
libakregatorprivate.so.6:_ZNK9Akregator4Feed9ImageInfoeqERKS1_
libakregatorprivate.so.6:_ZNK9Akregator4Feed9ImageInfoneERKS1_
libakregatorprivate.so.6:_ZNK9Akregator4Feed9copyrightEv
libakregatorprivate.so.6:_ZNK9Akregator4Feed9isExpiredERKNS_7ArticleE
libakregatorprivate.so.6:_ZNK9Akregator5Frame10metaObjectEv
libakregatorprivate.so.6:_ZNK9Akregator5Frame10statusTextEv
libakregatorprivate.so.6:_ZNK9Akregator5Frame11isRemovableEv
libakregatorprivate.so.6:_ZNK9Akregator5Frame2idEv
libakregatorprivate.so.6:_ZNK9Akregator5Frame4iconEv
libakregatorprivate.so.6:_ZNK9Akregator5Frame5stateEv
libakregatorprivate.so.6:_ZNK9Akregator5Frame5titleEv
libakregatorprivate.so.6:_ZNK9Akregator5Frame7captionEv
libakregatorprivate.so.6:_ZNK9Akregator5Frame8progressEv
libakregatorprivate.so.6:_ZNK9Akregator5Frame9isLoadingEv
libakregatorprivate.so.6:_ZNK9Akregator6Folder10firstChildEv
libakregatorprivate.so.6:_ZNK9Akregator6Folder10metaObjectEv
libakregatorprivate.so.6:_ZNK9Akregator6Folder10totalCountEv
libakregatorprivate.so.6:_ZNK9Akregator6Folder13namedChildrenERK7QString
libakregatorprivate.so.6:_ZNK9Akregator6Folder15subtreeContainsEPKNS_8TreeNodeE
libakregatorprivate.so.6:_ZNK9Akregator6Folder17updateUnreadCountEv
libakregatorprivate.so.6:_ZNK9Akregator6Folder4iconEv
libakregatorprivate.so.6:_ZNK9Akregator6Folder4nextEv
libakregatorprivate.so.6:_ZNK9Akregator6Folder5feedsEv
libakregatorprivate.so.6:_ZNK9Akregator6Folder6isOpenEv
libakregatorprivate.so.6:_ZNK9Akregator6Folder6toOPMLE11QDomElement12QDomDocument
libakregatorprivate.so.6:_ZNK9Akregator6Folder6unreadEv
libakregatorprivate.so.6:_ZNK9Akregator6Folder7childAtEi
libakregatorprivate.so.6:_ZNK9Akregator6Folder7foldersEv
libakregatorprivate.so.6:_ZNK9Akregator6Folder7indexOfEPKNS_8TreeNodeE
libakregatorprivate.so.6:_ZNK9Akregator6Folder8childrenEv
libakregatorprivate.so.6:_ZNK9Akregator6Folder9lastChildEv
libakregatorprivate.so.6:_ZNK9Akregator6Kernel10fetchQueueEv
libakregatorprivate.so.6:_ZNK9Akregator6Kernel12frameManagerEv
libakregatorprivate.so.6:_ZNK9Akregator6Kernel8feedListEv
libakregatorprivate.so.6:_ZNK9Akregator7Article10authorNameEv
libakregatorprivate.so.6:_ZNK9Akregator7Article10guidIsHashEv
libakregatorprivate.so.6:_ZNK9Akregator7Article11authorEMailEv
libakregatorprivate.so.6:_ZNK9Akregator7Article11authorShortEv
libakregatorprivate.so.6:_ZNK9Akregator7Article11descriptionEv
libakregatorprivate.so.6:_ZNK9Akregator7Article12authorAsHtmlEv
libakregatorprivate.so.6:_ZNK9Akregator7Article15guidIsPermaLinkEv
libakregatorprivate.so.6:_ZNK9Akregator7Article4feedEv
libakregatorprivate.so.6:_ZNK9Akregator7Article4guidEv
libakregatorprivate.so.6:_ZNK9Akregator7Article4hashEv
libakregatorprivate.so.6:_ZNK9Akregator7Article4keepEv
libakregatorprivate.so.6:_ZNK9Akregator7Article4linkEv
libakregatorprivate.so.6:_ZNK9Akregator7Article5titleEv
libakregatorprivate.so.6:_ZNK9Akregator7Article6isNullEv
libakregatorprivate.so.6:_ZNK9Akregator7Article6statusEv
libakregatorprivate.so.6:_ZNK9Akregator7Article7contentENS0_13ContentOptionE
libakregatorprivate.so.6:_ZNK9Akregator7Article7pubDateEv
libakregatorprivate.so.6:_ZNK9Akregator7Article9authorUriEv
libakregatorprivate.so.6:_ZNK9Akregator7Article9enclosureEv
libakregatorprivate.so.6:_ZNK9Akregator7Article9isDeletedEv
libakregatorprivate.so.6:_ZNK9Akregator7ArticleeqERKS0_
libakregatorprivate.so.6:_ZNK9Akregator7ArticlegeERKS0_
libakregatorprivate.so.6:_ZNK9Akregator7ArticlegtERKS0_
libakregatorprivate.so.6:_ZNK9Akregator7ArticleleERKS0_
libakregatorprivate.so.6:_ZNK9Akregator7ArticleltERKS0_
libakregatorprivate.so.6:_ZNK9Akregator7ArticleneERKS0_
libakregatorprivate.so.6:_ZNK9Akregator7Backend11FeedStorage10authorNameERK7QString
libakregatorprivate.so.6:_ZNK9Akregator7Backend11FeedStorage10categoriesERK7QString
libakregatorprivate.so.6:_ZNK9Akregator7Backend11FeedStorage10guidIsHashERK7QString
libakregatorprivate.so.6:_ZNK9Akregator7Backend11FeedStorage10totalCountEv
libakregatorprivate.so.6:_ZNK9Akregator7Backend11FeedStorage11authorEMailERK7QString
libakregatorprivate.so.6:_ZNK9Akregator7Backend11FeedStorage11descriptionERK7QString
libakregatorprivate.so.6:_ZNK9Akregator7Backend11FeedStorage11findArticleERK7QString
libakregatorprivate.so.6:_ZNK9Akregator7Backend11FeedStorage15guidIsPermaLinkERK7QString
libakregatorprivate.so.6:_ZNK9Akregator7Backend11FeedStorage4hashERK7QString
libakregatorprivate.so.6:_ZNK9Akregator7Backend11FeedStorage4linkERK7QString
libakregatorprivate.so.6:_ZNK9Akregator7Backend11FeedStorage5titleERK7QString
libakregatorprivate.so.6:_ZNK9Akregator7Backend11FeedStorage6statusERK7QString
libakregatorprivate.so.6:_ZNK9Akregator7Backend11FeedStorage6unreadEv
libakregatorprivate.so.6:_ZNK9Akregator7Backend11FeedStorage7articleERK7QStringRjRS2_RiR9QDateTime
libakregatorprivate.so.6:_ZNK9Akregator7Backend11FeedStorage7contentERK7QString
libakregatorprivate.so.6:_ZNK9Akregator7Backend11FeedStorage7pubDateERK7QString
libakregatorprivate.so.6:_ZNK9Akregator7Backend11FeedStorage8articlesEv
libakregatorprivate.so.6:_ZNK9Akregator7Backend11FeedStorage8containsERK7QString
libakregatorprivate.so.6:_ZNK9Akregator7Backend11FeedStorage9authorUriERK7QString
libakregatorprivate.so.6:_ZNK9Akregator7Backend11FeedStorage9enclosureERK7QStringRbRS2_S6_Ri
libakregatorprivate.so.6:_ZNK9Akregator7Backend11FeedStorage9lastFetchEv
libakregatorprivate.so.6:_ZNK9Akregator7Backend7Storage10archiveForERK7QString
libakregatorprivate.so.6:_ZNK9Akregator7Backend7Storage10autoCommitEv
libakregatorprivate.so.6:_ZNK9Akregator7Backend7Storage10metaObjectEv
libakregatorprivate.so.6:_ZNK9Akregator7Backend7Storage11archivePathEv
libakregatorprivate.so.6:_ZNK9Akregator7Backend7Storage12lastFetchForERK7QString
libakregatorprivate.so.6:_ZNK9Akregator7Backend7Storage13totalCountForERK7QString
libakregatorprivate.so.6:_ZNK9Akregator7Backend7Storage15restoreFeedListEv
libakregatorprivate.so.6:_ZNK9Akregator7Backend7Storage5feedsEv
libakregatorprivate.so.6:_ZNK9Akregator7Backend7Storage9unreadForERK7QString
libakregatorprivate.so.6:_ZNK9Akregator8FeedList10generateIDEv
libakregatorprivate.so.6:_ZNK9Akregator8FeedList10metaObjectEv
libakregatorprivate.so.6:_ZNK9Akregator8FeedList11findArticleERK7QStringS3_
libakregatorprivate.so.6:_ZNK9Akregator8FeedList11findByTitleERK7QString
libakregatorprivate.so.6:_ZNK9Akregator8FeedList14allFeedsFolderEv
libakregatorprivate.so.6:_ZNK9Akregator8FeedList5feedsEv
libakregatorprivate.so.6:_ZNK9Akregator8FeedList6toOpmlEv
libakregatorprivate.so.6:_ZNK9Akregator8FeedList6unreadEv
libakregatorprivate.so.6:_ZNK9Akregator8FeedList7feedIdsEv
libakregatorprivate.so.6:_ZNK9Akregator8FeedList7foldersEv
libakregatorprivate.so.6:_ZNK9Akregator8FeedList7isEmptyEv
libakregatorprivate.so.6:_ZNK9Akregator8FeedList8findByIDEj
libakregatorprivate.so.6:_ZNK9Akregator8FeedList9findByURLERK7QString
libakregatorprivate.so.6:_ZNK9Akregator8TrayIcon10metaObjectEv
libakregatorprivate.so.6:_ZNK9Akregator8TrayIcon9isEnabledEv
libakregatorprivate.so.6:_ZNK9Akregator8TreeNode10metaObjectEv
libakregatorprivate.so.6:_ZNK9Akregator8TreeNode11nextSiblingEv
libakregatorprivate.so.6:_ZNK9Akregator8TreeNode11prevSiblingEv
libakregatorprivate.so.6:_ZNK9Akregator8TreeNode26listViewScrollBarPositionsEv
libakregatorprivate.so.6:_ZNK9Akregator8TreeNode2idEv
libakregatorprivate.so.6:_ZNK9Akregator8TreeNode5titleEv
libakregatorprivate.so.6:_ZNK9Akregator8TreeNode6parentEv
libakregatorprivate.so.6:_ZNK9Akregator8TreeNode7childAtEi
libakregatorprivate.so.6:_ZNK9Akregator8TreeNode8childrenEv
libakregatorprivate.so.6:_ZNK9Akregator9MainFrame10metaObjectEv
libakregatorprivate.so.6:_ZNK9Akregator9MainFrame10zoomFactorEv
libakregatorprivate.so.6:_ZNK9Akregator9MainFrame3urlEv
libakregatorprivate.so.6:_ZTI19UnityServiceManager
libakregatorprivate.so.6:_ZTIN9Akregator10FetchQueueE
libakregatorprivate.so.6:_ZTIN9Akregator12CompositeJobE
libakregatorprivate.so.6:_ZTIN9Akregator12FrameManagerE
libakregatorprivate.so.6:_ZTIN9Akregator13ActionManagerE
libakregatorprivate.so.6:_ZTIN9Akregator14ArticleListJobE
libakregatorprivate.so.6:_ZTIN9Akregator14WebEngineFrameE
libakregatorprivate.so.6:_ZTIN9Akregator15TreeNodeVisitorE
libakregatorprivate.so.6:_ZTIN9Akregator16ArticleDeleteJobE
libakregatorprivate.so.6:_ZTIN9Akregator16ArticleModifyJobE
libakregatorprivate.so.6:_ZTIN9Akregator18DownloadArticleJobE
libakregatorprivate.so.6:_ZTIN9Akregator19ArticleViewerWidgetE
libakregatorprivate.so.6:_ZTIN9Akregator19DownloadFeedIconJobE
libakregatorprivate.so.6:_ZTIN9Akregator19MoveSubscriptionJobE
libakregatorprivate.so.6:_ZTIN9Akregator19NotificationManagerE
libakregatorprivate.so.6:_ZTIN9Akregator21DeleteSubscriptionJobE
libakregatorprivate.so.6:_ZTIN9Akregator21RenameSubscriptionJobE
libakregatorprivate.so.6:_ZTIN9Akregator22ArticleViewerWebEngineE
libakregatorprivate.so.6:_ZTIN9Akregator22FeedListManagementImplE
libakregatorprivate.so.6:_ZTIN9Akregator26ArticleHtmlWebEngineWriterE
libakregatorprivate.so.6:_ZTIN9Akregator26DefaultNormalViewFormatterE
libakregatorprivate.so.6:_ZTIN9Akregator26URLHandlerWebEngineManagerE
libakregatorprivate.so.6:_ZTIN9Akregator28DefaultCombinedViewFormatterE
libakregatorprivate.so.6:_ZTIN9Akregator30ArticleViewerWebEngineWidgetNgE
libakregatorprivate.so.6:_ZTIN9Akregator4FeedE
libakregatorprivate.so.6:_ZTIN9Akregator5FrameE
libakregatorprivate.so.6:_ZTIN9Akregator6FolderE
libakregatorprivate.so.6:_ZTIN9Akregator7Backend11FeedStorageE
libakregatorprivate.so.6:_ZTIN9Akregator7Backend7StorageE
libakregatorprivate.so.6:_ZTIN9Akregator8FeedListE
libakregatorprivate.so.6:_ZTIN9Akregator8TrayIconE
libakregatorprivate.so.6:_ZTIN9Akregator8TreeNodeE
libakregatorprivate.so.6:_ZTIN9Akregator9MainFrameE
libakregatorprivate.so.6:_ZTS19UnityServiceManager
libakregatorprivate.so.6:_ZTSN9Akregator10FetchQueueE
libakregatorprivate.so.6:_ZTSN9Akregator12CompositeJobE
libakregatorprivate.so.6:_ZTSN9Akregator12FrameManagerE
libakregatorprivate.so.6:_ZTSN9Akregator13ActionManagerE
libakregatorprivate.so.6:_ZTSN9Akregator14ArticleListJobE
libakregatorprivate.so.6:_ZTSN9Akregator14WebEngineFrameE
libakregatorprivate.so.6:_ZTSN9Akregator15TreeNodeVisitorE
libakregatorprivate.so.6:_ZTSN9Akregator16ArticleDeleteJobE
libakregatorprivate.so.6:_ZTSN9Akregator16ArticleModifyJobE
libakregatorprivate.so.6:_ZTSN9Akregator18DownloadArticleJobE
libakregatorprivate.so.6:_ZTSN9Akregator19ArticleViewerWidgetE
libakregatorprivate.so.6:_ZTSN9Akregator19DownloadFeedIconJobE
libakregatorprivate.so.6:_ZTSN9Akregator19MoveSubscriptionJobE
libakregatorprivate.so.6:_ZTSN9Akregator19NotificationManagerE
libakregatorprivate.so.6:_ZTSN9Akregator21DeleteSubscriptionJobE
libakregatorprivate.so.6:_ZTSN9Akregator21RenameSubscriptionJobE
libakregatorprivate.so.6:_ZTSN9Akregator22ArticleViewerWebEngineE
libakregatorprivate.so.6:_ZTSN9Akregator22FeedListManagementImplE
libakregatorprivate.so.6:_ZTSN9Akregator26ArticleHtmlWebEngineWriterE
libakregatorprivate.so.6:_ZTSN9Akregator26DefaultNormalViewFormatterE
libakregatorprivate.so.6:_ZTSN9Akregator26URLHandlerWebEngineManagerE
libakregatorprivate.so.6:_ZTSN9Akregator28DefaultCombinedViewFormatterE
libakregatorprivate.so.6:_ZTSN9Akregator30ArticleViewerWebEngineWidgetNgE
libakregatorprivate.so.6:_ZTSN9Akregator4FeedE
libakregatorprivate.so.6:_ZTSN9Akregator5FrameE
libakregatorprivate.so.6:_ZTSN9Akregator6FolderE
libakregatorprivate.so.6:_ZTSN9Akregator7Backend11FeedStorageE
libakregatorprivate.so.6:_ZTSN9Akregator7Backend7StorageE
libakregatorprivate.so.6:_ZTSN9Akregator8FeedListE
libakregatorprivate.so.6:_ZTSN9Akregator8TrayIconE
libakregatorprivate.so.6:_ZTSN9Akregator8TreeNodeE
libakregatorprivate.so.6:_ZTSN9Akregator9MainFrameE
libakregatorprivate.so.6:_ZTV19UnityServiceManager
libakregatorprivate.so.6:_ZTVN9Akregator10FetchQueueE
libakregatorprivate.so.6:_ZTVN9Akregator12CompositeJobE
libakregatorprivate.so.6:_ZTVN9Akregator12FrameManagerE
libakregatorprivate.so.6:_ZTVN9Akregator13ActionManagerE
libakregatorprivate.so.6:_ZTVN9Akregator14ArticleListJobE
libakregatorprivate.so.6:_ZTVN9Akregator14WebEngineFrameE
libakregatorprivate.so.6:_ZTVN9Akregator15TreeNodeVisitorE
libakregatorprivate.so.6:_ZTVN9Akregator16ArticleDeleteJobE
libakregatorprivate.so.6:_ZTVN9Akregator16ArticleModifyJobE
libakregatorprivate.so.6:_ZTVN9Akregator18DownloadArticleJobE
libakregatorprivate.so.6:_ZTVN9Akregator19ArticleViewerWidgetE
libakregatorprivate.so.6:_ZTVN9Akregator19DownloadFeedIconJobE
libakregatorprivate.so.6:_ZTVN9Akregator19MoveSubscriptionJobE
libakregatorprivate.so.6:_ZTVN9Akregator19NotificationManagerE
libakregatorprivate.so.6:_ZTVN9Akregator21DeleteSubscriptionJobE
libakregatorprivate.so.6:_ZTVN9Akregator21RenameSubscriptionJobE
libakregatorprivate.so.6:_ZTVN9Akregator22ArticleViewerWebEngineE
libakregatorprivate.so.6:_ZTVN9Akregator22FeedListManagementImplE
libakregatorprivate.so.6:_ZTVN9Akregator26ArticleHtmlWebEngineWriterE
libakregatorprivate.so.6:_ZTVN9Akregator26DefaultNormalViewFormatterE
libakregatorprivate.so.6:_ZTVN9Akregator26URLHandlerWebEngineManagerE
libakregatorprivate.so.6:_ZTVN9Akregator28DefaultCombinedViewFormatterE
libakregatorprivate.so.6:_ZTVN9Akregator30ArticleViewerWebEngineWidgetNgE
libakregatorprivate.so.6:_ZTVN9Akregator4FeedE
libakregatorprivate.so.6:_ZTVN9Akregator5FrameE
libakregatorprivate.so.6:_ZTVN9Akregator6FolderE
libakregatorprivate.so.6:_ZTVN9Akregator7Backend11FeedStorageE
libakregatorprivate.so.6:_ZTVN9Akregator7Backend7StorageE
libakregatorprivate.so.6:_ZTVN9Akregator8FeedListE
libakregatorprivate.so.6:_ZTVN9Akregator8TrayIconE
libakregatorprivate.so.6:_ZTVN9Akregator8TreeNodeE
libakregatorprivate.so.6:_ZTVN9Akregator9MainFrameE
libakregatorprivate.so.6:_ZThn16_N9Akregator14WebEngineFrameD0Ev
libakregatorprivate.so.6:_ZThn16_N9Akregator14WebEngineFrameD1Ev
libakregatorprivate.so.6:_ZThn16_N9Akregator19ArticleViewerWidgetD0Ev
libakregatorprivate.so.6:_ZThn16_N9Akregator19ArticleViewerWidgetD1Ev
libakregatorprivate.so.6:_ZThn16_N9Akregator22ArticleViewerWebEngineD0Ev
libakregatorprivate.so.6:_ZThn16_N9Akregator22ArticleViewerWebEngineD1Ev
libakregatorprivate.so.6:_ZThn16_N9Akregator30ArticleViewerWebEngineWidgetNgD0Ev
libakregatorprivate.so.6:_ZThn16_N9Akregator30ArticleViewerWebEngineWidgetNgD1Ev
libakregatorprivate.so.6:_ZThn16_N9Akregator5FrameD0Ev
libakregatorprivate.so.6:_ZThn16_N9Akregator5FrameD1Ev
libakregatorprivate.so.6:_ZThn16_N9Akregator9MainFrameD0Ev
libakregatorprivate.so.6:_ZThn16_N9Akregator9MainFrameD1Ev
