libTECkit.so.2:TECkit_ConvertBuffer
libTECkit.so.2:TECkit_ConvertBufferOpt
libTECkit.so.2:TECkit_CreateConverter
libTECkit.so.2:TECkit_DisposeConverter
libTECkit.so.2:TECkit_Flush
libTECkit.so.2:TECkit_FlushOpt
libTECkit.so.2:TECkit_GetConverterFlags
libTECkit.so.2:TECkit_GetConverterName
libTECkit.so.2:TECkit_GetMappingFlags
libTECkit.so.2:TECkit_GetMappingName
libTECkit.so.2:TECkit_GetVersion
libTECkit.so.2:TECkit_ResetConverter
libTECkit.so.2:_ZN10Normalizer10appendCharEj
libTECkit.so.2:_ZN10Normalizer10growOutBufEv
libTECkit.so.2:_ZN10Normalizer10insertCharEji
libTECkit.so.2:_ZN10Normalizer12decomposeOneERj
libTECkit.so.2:_ZN10Normalizer12generateCharEj
libTECkit.so.2:_ZN10Normalizer5ResetEv
libTECkit.so.2:_ZN10Normalizer7composeEv
libTECkit.so.2:_ZN10Normalizer7getCharEv
libTECkit.so.2:_ZN10Normalizer7processEv
libTECkit.so.2:_ZN10Normalizer9decomposeEj
libTECkit.so.2:_ZN10NormalizerC1Eb
libTECkit.so.2:_ZN10NormalizerC2Eb
libTECkit.so.2:_ZN10NormalizerD0Ev
libTECkit.so.2:_ZN10NormalizerD1Ev
libTECkit.so.2:_ZN10NormalizerD2Ev
libTECkit.so.2:_ZN4Pass10outputCharEj
libTECkit.so.2:_ZN4Pass12advanceInputEj
libTECkit.so.2:_ZN4Pass5ResetEv
libTECkit.so.2:_ZN4Pass5matchEiii
libTECkit.so.2:_ZN4Pass7getCharEv
libTECkit.so.2:_ZN4Pass9DoMappingEv
libTECkit.so.2:_ZN4Pass9inputCharEl
libTECkit.so.2:_ZN4PassC1EPK11TableHeaderP9Converter
libTECkit.so.2:_ZN4PassC2EPK11TableHeaderP9Converter
libTECkit.so.2:_ZN4PassD0Ev
libTECkit.so.2:_ZN4PassD1Ev
libTECkit.so.2:_ZN4PassD2Ev
libTECkit.so.2:_ZN5StageC1Ev
libTECkit.so.2:_ZN5StageC2Ev
libTECkit.so.2:_ZN5StageD0Ev
libTECkit.so.2:_ZN5StageD1Ev
libTECkit.so.2:_ZN5StageD2Ev
libTECkit.so.2:_ZN9Converter10_getCharFnEv
libTECkit.so.2:_ZN9Converter16ConvertBufferOptEPKhjPjPhjS2_jS2_
libTECkit.so.2:_ZN9Converter17_savePendingBytesEv
libTECkit.so.2:_ZN9Converter22_getCharWithSavedBytesEv
libTECkit.so.2:_ZN9Converter5ResetEv
libTECkit.so.2:_ZN9Converter7getCharEv
libTECkit.so.2:_ZN9Converter8ValidateEPKS_
libTECkit.so.2:_ZN9ConverterC1EPKhjbtt
libTECkit.so.2:_ZN9ConverterC2EPKhjbtt
libTECkit.so.2:_ZN9ConverterD0Ev
libTECkit.so.2:_ZN9ConverterD1Ev
libTECkit.so.2:_ZN9ConverterD2Ev
libTECkit.so.2:_ZNK4Pass10classMatchEjj
libTECkit.so.2:_ZNK4Pass14lookaheadCountEv
libTECkit.so.2:_ZNK4Pass14repClassMemberEjj
libTECkit.so.2:_ZNK5Stage14lookaheadCountEv
libTECkit.so.2:_ZNK9Converter10GetNamePtrEtRPKhRj
libTECkit.so.2:_ZNK9Converter8GetFlagsERjS0_
libTECkit.so.2:_ZNK9Converter9IsForwardEv
libTECkit_Compiler.so.2:TECkit_Compile
libTECkit_Compiler.so.2:TECkit_CompileOpt
libTECkit_Compiler.so.2:TECkit_DisposeCompiled
libTECkit_Compiler.so.2:TECkit_GetCompilerVersion
libTECkit_Compiler.so.2:TECkit_GetTECkitName
libTECkit_Compiler.so.2:TECkit_GetUnicodeName
libTECkit_Compiler.so.2:TECkit_GetUnicodeValue
libTECkit_Compiler.so.2:_ZN8Compiler10FinishPassEv
libTECkit_Compiler.so.2:_ZN8Compiler10SkipSpacesEv
libTECkit_Compiler.so.2:_ZN8Compiler10buildTableERSt6vectorINS_4RuleESaIS1_EEbbRNSt7__cxx1112basic_stringIcSt11char_traitsIcESaIcEEE
libTECkit_Compiler.so.2:_ZN8Compiler10calcMaxLenEN9__gnu_cxx17__normal_iteratorIPNS_4ItemESt6vectorIS2_SaIS2_EEEES7_
libTECkit_Compiler.so.2:_ZN8Compiler10classIndexEjRKSt6vectorIjSaIjEE
libTECkit_Compiler.so.2:_ZN8Compiler11AppendClassERKNSt7__cxx1112basic_stringIcSt11char_traitsIcESaIcEEEb
libTECkit_Compiler.so.2:_ZN8Compiler11ExpectTokenENS_9tokenTypeEPKc
libTECkit_Compiler.so.2:_ZN8Compiler11ruleKeyCompERKNS_4RuleES2_
libTECkit_Compiler.so.2:_ZN8Compiler12AppendToRuleERKNS_4ItemE
libTECkit_Compiler.so.2:_ZN8Compiler12GetNextTokenEv
libTECkit_Compiler.so.2:_ZN8Compiler12addToCharMapEjt
libTECkit_Compiler.so.2:_ZN8Compiler12getContextIDB5cxx11ERKSt6vectorINS_4ItemESaIS1_EEb
libTECkit_Compiler.so.2:_ZN8Compiler13AppendLiteralEjb
libTECkit_Compiler.so.2:_ZN8Compiler13AppendSpecialEhb
libTECkit_Compiler.so.2:_ZN8Compiler13appendToTableERNSt7__cxx1112basic_stringIcSt11char_traitsIcESaIcEEEPKcj
libTECkit_Compiler.so.2:_ZN8Compiler13calcMaxOutLenERNS_4RuleE
libTECkit_Compiler.so.2:_ZN8Compiler14ReadNameStringEt
libTECkit_Compiler.so.2:_ZN8Compiler14associateItemsERSt6vectorINS_4RuleESaIS1_EEbb
libTECkit_Compiler.so.2:_ZN8Compiler14reverseContextERKSt6vectorINS_4ItemESaIS1_EE
libTECkit_Compiler.so.2:_ZN8Compiler15appendMatchElemERNSt7__cxx1112basic_stringIcSt11char_traitsIcESaIcEEERNS_4ItemEjRSt6vectorINS_8MatClassESaISA_EE
libTECkit_Compiler.so.2:_ZN8Compiler16StartDefaultPassEv
libTECkit_Compiler.so.2:_ZN8Compiler16findInitialItemsERKNS_4RuleEN9__gnu_cxx17__normal_iteratorIPKNS_4ItemESt6vectorIS5_SaIS5_EEEESB_RSA_
libTECkit_Compiler.so.2:_ZN8Compiler16findInitialItemsERKNS_4RuleERSt6vectorINS_4ItemESaIS4_EE
libTECkit_Compiler.so.2:_ZN8Compiler16isSingleCharRuleERKNS_4RuleE
libTECkit_Compiler.so.2:_ZN8Compiler16setGroupPointersEN9__gnu_cxx17__normal_iteratorIPNS_4ItemESt6vectorIS2_SaIS2_EEEES7_ib
libTECkit_Compiler.so.2:_ZN8Compiler16setGroupPointersERSt6vectorINS_4RuleESaIS1_EE
libTECkit_Compiler.so.2:_ZN8Compiler17appendReplaceElemERNSt7__cxx1112basic_stringIcSt11char_traitsIcESaIcEEERNS_4ItemERSt6vectorIS7_SaIS7_EERS9_INS_8RepClassESaISD_EE
libTECkit_Compiler.so.2:_ZN8Compiler19DetachCompiledTableEv
libTECkit_Compiler.so.2:_ZN8Compiler4Pass5clearEv
libTECkit_Compiler.so.2:_ZN8Compiler4Pass9setLineNoEj
libTECkit_Compiler.so.2:_ZN8Compiler5ErrorEPKcS1_j
libTECkit_Compiler.so.2:_ZN8Compiler5alignERNSt7__cxx1112basic_stringIcSt11char_traitsIcESaIcEEEm
libTECkit_Compiler.so.2:_ZN8Compiler6asUTF8ENSt7__cxx1112basic_stringIjSt11char_traitsIjESaIjEEE
libTECkit_Compiler.so.2:_ZN8Compiler6xmlOutEPKc
libTECkit_Compiler.so.2:_ZN8Compiler6xmlOutERKNSt7__cxx1112basic_stringIcSt11char_traitsIcESaIcEEE
libTECkit_Compiler.so.2:_ZN8Compiler6xmlOutEc
libTECkit_Compiler.so.2:_ZN8Compiler7findTagERKNSt7__cxx1112basic_stringIcSt11char_traitsIcESaIcEEERKSt6vectorINS_4ItemESaIS9_EE
libTECkit_Compiler.so.2:_ZN8Compiler7getCharEv
libTECkit_Compiler.so.2:_ZN8Compiler8CurrRule5clearEv
libTECkit_Compiler.so.2:_ZN8Compiler8CurrRule9setLineNoEj
libTECkit_Compiler.so.2:_ZN8Compiler8IDlookupEPKcj
libTECkit_Compiler.so.2:_ZN8Compiler8keywordsE
libTECkit_Compiler.so.2:_ZN8Compiler9AppendUSVEjb
libTECkit_Compiler.so.2:_ZN8Compiler9AssignTagERKNSt7__cxx1112basic_stringIcSt11char_traitsIcESaIcEEE
libTECkit_Compiler.so.2:_ZN8Compiler9BuildVars5clearEv
libTECkit_Compiler.so.2:_ZN8Compiler9SetMinMaxEjj
libTECkit_Compiler.so.2:_ZN8Compiler9charLimitEv
libTECkit_Compiler.so.2:_ZN8Compiler9sortRulesERSt6vectorINS_4RuleESaIS1_EE
libTECkit_Compiler.so.2:_ZN8Compiler9tagExistsEbRKNSt7__cxx1112basic_stringIcSt11char_traitsIcESaIcEEE
libTECkit_Compiler.so.2:_ZN8Compiler9ungetCharEj
libTECkit_Compiler.so.2:_ZN8Compiler9xmlStringB5cxx11EN9__gnu_cxx17__normal_iteratorIPKNS_4ItemESt6vectorIS2_SaIS2_EEEES8_b
libTECkit_Compiler.so.2:_ZN8CompilerC1EPKcjcbbPFvPvPcS3_jES2_
libTECkit_Compiler.so.2:_ZN8CompilerC2EPKcjcbbPFvPvPcS3_jES2_
libTECkit_Compiler.so.2:_ZN8CompilerD1Ev
libTECkit_Compiler.so.2:_ZN8CompilerD2Ev
libTECkit_Compiler.so.2:_ZNK8Compiler16GetCompiledTableERPhRj
libTECkit_Compiler.so.2:gUnicodeNames
