chrome-sandbox:_IO_stdin_used
chrome-sandbox:__data_start
chrome-sandbox:__libc_csu_fini
chrome-sandbox:__libc_csu_init
chrome-sandbox:_start
chrome_crashpad_handler:CrashpadHandlerMain
chrome_crashpad_handler:_IO_stdin_used
chrome_crashpad_handler:_ZN100_$LT$alloc..ffi..c_str..CString$u20$as$u20$core..convert..From$LT$$RF$core..ffi..c_str..CStr$GT$$GT$4from17h035cec13a55a1ab0E
chrome_crashpad_handler:_ZN101_$LT$core..char..CaseMappingIter$u20$as$u20$core..iter..traits..double_ended..DoubleEndedIterator$GT$15advance_back_by17h8372fa7e4b32760fE
chrome_crashpad_handler:_ZN101_$LT$core..char..CaseMappingIter$u20$as$u20$core..iter..traits..double_ended..DoubleEndedIterator$GT$9next_back17hbfcf0b418de67781E
chrome_crashpad_handler:_ZN101_$LT$std..os..unix..net..addr..SocketAddr$u20$as$u20$std..os..net..linux_ext..addr..SocketAddrExt$GT$16as_abstract_name17h712f09f6a6e76b9bE
chrome_crashpad_handler:_ZN101_$LT$std..sys..pal..unix..args..Args$u20$as$u20$core..iter..traits..exact_size..ExactSizeIterator$GT$3len17hef5028e2385e73faE
chrome_crashpad_handler:_ZN102_$LT$std..panicking..begin_panic_handler..FormatStringPayload$u20$as$u20$core..panic..PanicPayload$GT$3get17h88289cae4749735eE
chrome_crashpad_handler:_ZN102_$LT$std..panicking..begin_panic_handler..FormatStringPayload$u20$as$u20$core..panic..PanicPayload$GT$8take_box17hf6a85482975616dfE
chrome_crashpad_handler:_ZN103_$LT$object..read..archive..ArchiveSymbolIterator$u20$as$u20$core..iter..traits..iterator..Iterator$GT$4next17ha4971dea1e6a215aE
chrome_crashpad_handler:_ZN104_$LT$std..io..error..Error$u20$as$u20$core..convert..From$LT$alloc..collections..TryReserveError$GT$$GT$4from17hc2f7c9d77e6c9942E
chrome_crashpad_handler:_ZN104_$LT$std..os..unix..net..ancillary..ScmCredentials$u20$as$u20$core..iter..traits..iterator..Iterator$GT$4next17h2e0cf94b92a63385E
chrome_crashpad_handler:_ZN104_$LT$std..sys_common..net..LookupHost$u20$as$u20$core..convert..TryFrom$LT$$LP$$RF$str$C$u16$RP$$GT$$GT$8try_from17h889e615e76ab7d5fE
chrome_crashpad_handler:_ZN105_$LT$core..slice..ascii..EscapeAscii$u20$as$u20$core..iter..traits..double_ended..DoubleEndedIterator$GT$9next_back17h6a3b7d4284222571E
chrome_crashpad_handler:_ZN105_$LT$dyn$u20$core..any..Any$u2b$core..marker..Send$u2b$core..marker..Sync$u20$as$u20$core..fmt..Debug$GT$3fmt17h5de58a0b997c1f2fE
chrome_crashpad_handler:_ZN105_$LT$std..os..unix..net..stream..UnixStream$u20$as$u20$std..os..net..linux_ext..socket..UnixSocketExt$GT$12set_passcred17h99bd639879adb300E
chrome_crashpad_handler:_ZN105_$LT$std..os..unix..net..stream..UnixStream$u20$as$u20$std..os..net..linux_ext..socket..UnixSocketExt$GT$8passcred17ha1052dad11f9bbaaE
chrome_crashpad_handler:_ZN105_$LT$std..sys..pal..unix..args..Args$u20$as$u20$core..iter..traits..double_ended..DoubleEndedIterator$GT$9next_back17h66e2b4fd7c29b3f5E
chrome_crashpad_handler:_ZN106_$LT$$LT$std..path..Iter$u20$as$u20$core..fmt..Debug$GT$..fmt..DebugHelper$u20$as$u20$core..fmt..Debug$GT$3fmt17heb2a1e0187988b3eE
chrome_crashpad_handler:_ZN106_$LT$alloc..boxed..Box$LT$dyn$u20$core..error..Error$GT$$u20$as$u20$core..convert..From$LT$$RF$str$GT$$GT$4from17h54d459f8a727c548E
chrome_crashpad_handler:_ZN107_$LT$object..read..pe..relocation..RelocationIterator$u20$as$u20$core..iter..traits..iterator..Iterator$GT$4next17hf18cee275736ddefE
chrome_crashpad_handler:_ZN107_$LT$serde_json_lenient..value..ser..SerializeTupleVariant$u20$as$u20$serde..ser..SerializeTupleVariant$GT$3end17hd2b49a5fdc6ee82dE
chrome_crashpad_handler:_ZN109_$LT$serde_json_lenient..value..ser..SerializeStructVariant$u20$as$u20$serde..ser..SerializeStructVariant$GT$3end17h20e08e1fea6b7482E
chrome_crashpad_handler:_ZN109_$LT$std..os..unix..net..datagram..UnixDatagram$u20$as$u20$std..os..net..linux_ext..socket..UnixSocketExt$GT$12set_passcred17h4729d1e6163d87e3E
chrome_crashpad_handler:_ZN109_$LT$std..os..unix..net..datagram..UnixDatagram$u20$as$u20$std..os..net..linux_ext..socket..UnixSocketExt$GT$8passcred17hc676607e0e7de25bE
chrome_crashpad_handler:_ZN111_$LT$std..io..buffered..bufwriter..BufWriter$LT$W$GT$..flush_buf..BufGuard$u20$as$u20$core..ops..drop..Drop$GT$4drop17h0e36dc08b3a057f0E
chrome_crashpad_handler:_ZN112_$LT$$LT$std..path..Components$u20$as$u20$core..fmt..Debug$GT$..fmt..DebugHelper$u20$as$u20$core..fmt..Debug$GT$3fmt17h5639e3c5447b6d8bE
chrome_crashpad_handler:_ZN114_$LT$std..backtrace_rs..symbolize..gimli..parse_running_mmaps..MapsEntry$u20$as$u20$core..str..traits..FromStr$GT$8from_str17hc6dc9d578eb7c760E
chrome_crashpad_handler:_ZN116_$LT$core..net..ip_addr..Ipv4Addr$u20$as$u20$core..ops..bit..BitOrAssign$LT$$RF$core..net..ip_addr..Ipv4Addr$GT$$GT$12bitor_assign17h55013b5a7d0bfa7fE
chrome_crashpad_handler:_ZN116_$LT$core..net..ip_addr..Ipv6Addr$u20$as$u20$core..ops..bit..BitOrAssign$LT$$RF$core..net..ip_addr..Ipv6Addr$GT$$GT$12bitor_assign17he8405334b313dd23E
chrome_crashpad_handler:_ZN116_$LT$std..sys..pal..unix..process..process_common..CommandArgs$u20$as$u20$core..iter..traits..iterator..Iterator$GT$4next17hb8fa4ff40204d299E
chrome_crashpad_handler:_ZN116_$LT$std..sys..pal..unix..process..process_common..CommandArgs$u20$as$u20$core..iter..traits..iterator..Iterator$GT$9size_hint17h22440c85aac86bf3E
chrome_crashpad_handler:_ZN117_$LT$core..net..ip_addr..Ipv4Addr$u20$as$u20$core..ops..bit..BitAndAssign$LT$$RF$core..net..ip_addr..Ipv4Addr$GT$$GT$13bitand_assign17hcd5343c1477e2982E
chrome_crashpad_handler:_ZN117_$LT$core..net..ip_addr..Ipv6Addr$u20$as$u20$core..ops..bit..BitAndAssign$LT$$RF$core..net..ip_addr..Ipv6Addr$GT$$GT$13bitand_assign17h21d1e7466b31c98aE
chrome_crashpad_handler:_ZN118_$LT$std..thread..thread_name_string..ThreadNameString$u20$as$u20$core..convert..From$LT$alloc..string..String$GT$$GT$4from17h1f11e280cc0a63c8E
chrome_crashpad_handler:_ZN11miniz_oxide6shared14update_adler3217h3fc9b4c88ff9e033E
chrome_crashpad_handler:_ZN11miniz_oxide7inflate4core10decompress17hc01995314f1ed6dfE
chrome_crashpad_handler:_ZN11miniz_oxide7inflate6stream7inflate17h7005183c4423cb07E
chrome_crashpad_handler:_ZN120_$LT$alloc..boxed..Box$LT$dyn$u20$core..error..Error$GT$$u20$as$u20$core..convert..From$LT$alloc..string..String$GT$$GT$4from17h513d0156c297c3a2E
chrome_crashpad_handler:_ZN126_$LT$std..process..Child$u20$as$u20$std..sys_common..IntoInner$LT$std..sys..pal..unix..process..process_inner..Process$GT$$GT$10into_inner17h5728141a9959e3deE
chrome_crashpad_handler:_ZN127_$LT$$LT$serde_json_lenient..value..Value$u20$as$u20$core..fmt..Display$GT$..fmt..WriterFormatter$u20$as$u20$std..io..Write$GT$5write17ha0c3fa8b705f84a5E
chrome_crashpad_handler:_ZN127_$LT$std..sys..pal..unix..process..process_common..CommandArgs$u20$as$u20$core..iter..traits..exact_size..ExactSizeIterator$GT$3len17h213340147f45e9f7E
chrome_crashpad_handler:_ZN127_$LT$third_uparty_srust_sserde_ujson_ulenient_sv0_u2_swrapper_cwrapper..visitor..ValueVisitor$u20$as$u20$serde..de..Visitor$GT$9expecting17hd6176b15c4f16be5E
chrome_crashpad_handler:_ZN128_$LT$$LT$serde..de..WithDecimalPoint$u20$as$u20$core..fmt..Display$GT$..fmt..LookForDecimalPoint$u20$as$u20$core..fmt..Write$GT$10write_char17hf3bf62990d963b56E
chrome_crashpad_handler:_ZN128_$LT$$LT$serde..de..WithDecimalPoint$u20$as$u20$core..fmt..Display$GT$..fmt..LookForDecimalPoint$u20$as$u20$core..fmt..Write$GT$9write_str17h1eb6a9b671152eafE
chrome_crashpad_handler:_ZN128_$LT$alloc..boxed..Box$LT$dyn$u20$core..error..Error$GT$$u20$as$u20$core..convert..From$LT$alloc..borrow..Cow$LT$str$GT$$GT$$GT$4from17h5af12b491295f242E
chrome_crashpad_handler:_ZN133_$LT$serde_json_lenient..read..SubstitutingStrUtfOutputStrategy$u20$as$u20$serde_json_lenient..read..UtfOutputStrategy$LT$str$GT$$GT$14extend_scratch17h866a7c1dbc3fbb17E
chrome_crashpad_handler:_ZN137_$LT$$LT$serde..de..impls..OsStringKind$u20$as$u20$serde..de..Deserialize$GT$..deserialize..KindVisitor$u20$as$u20$serde..de..Visitor$GT$9expecting17h9b10e8200b7821efE
chrome_crashpad_handler:_ZN138_$LT$$LT$serde..de..impls..range..Field$u20$as$u20$serde..de..Deserialize$GT$..deserialize..FieldVisitor$u20$as$u20$serde..de..Visitor$GT$9expecting17h228a6e604e5054f9E
chrome_crashpad_handler:_ZN141_$LT$$LT$serde..de..impls..range_to..Field$u20$as$u20$serde..de..Deserialize$GT$..deserialize..FieldVisitor$u20$as$u20$serde..de..Visitor$GT$9expecting17h8f2b2bb793eb5510E
chrome_crashpad_handler:_ZN142_$LT$serde..de..impls..$LT$impl$u20$serde..de..Deserialize$u20$for$u20$i8$GT$..deserialize..PrimitiveVisitor$u20$as$u20$serde..de..Visitor$GT$9expecting17h8986733b6928206aE
chrome_crashpad_handler:_ZN142_$LT$serde..de..impls..$LT$impl$u20$serde..de..Deserialize$u20$for$u20$u8$GT$..deserialize..PrimitiveVisitor$u20$as$u20$serde..de..Visitor$GT$9expecting17h45241bf83b083c68E
chrome_crashpad_handler:_ZN143_$LT$$LT$serde..de..impls..range_from..Field$u20$as$u20$serde..de..Deserialize$GT$..deserialize..FieldVisitor$u20$as$u20$serde..de..Visitor$GT$9expecting17h38aa2404bb90ec4dE
chrome_crashpad_handler:_ZN143_$LT$$LT$serde_json_lenient..number..Number$u20$as$u20$serde..de..Deserialize$GT$..deserialize..NumberVisitor$u20$as$u20$serde..de..Visitor$GT$9expecting17h501c43857fcc1901E
chrome_crashpad_handler:_ZN143_$LT$serde..de..impls..$LT$impl$u20$serde..de..Deserialize$u20$for$u20$f32$GT$..deserialize..PrimitiveVisitor$u20$as$u20$serde..de..Visitor$GT$9expecting17h68fab7f09dcc6d30E
chrome_crashpad_handler:_ZN143_$LT$serde..de..impls..$LT$impl$u20$serde..de..Deserialize$u20$for$u20$f64$GT$..deserialize..PrimitiveVisitor$u20$as$u20$serde..de..Visitor$GT$9expecting17h8ddf692476f77de0E
chrome_crashpad_handler:_ZN143_$LT$serde..de..impls..$LT$impl$u20$serde..de..Deserialize$u20$for$u20$i16$GT$..deserialize..PrimitiveVisitor$u20$as$u20$serde..de..Visitor$GT$9expecting17h4a2b1337a290e4f0E
chrome_crashpad_handler:_ZN143_$LT$serde..de..impls..$LT$impl$u20$serde..de..Deserialize$u20$for$u20$i32$GT$..deserialize..PrimitiveVisitor$u20$as$u20$serde..de..Visitor$GT$9expecting17heade418a2bf1315eE
chrome_crashpad_handler:_ZN143_$LT$serde..de..impls..$LT$impl$u20$serde..de..Deserialize$u20$for$u20$i64$GT$..deserialize..PrimitiveVisitor$u20$as$u20$serde..de..Visitor$GT$9expecting17ha96f6c70a4f46ee2E
chrome_crashpad_handler:_ZN143_$LT$serde..de..impls..$LT$impl$u20$serde..de..Deserialize$u20$for$u20$u16$GT$..deserialize..PrimitiveVisitor$u20$as$u20$serde..de..Visitor$GT$9expecting17hdcfd5fc26d9666b0E
chrome_crashpad_handler:_ZN143_$LT$serde..de..impls..$LT$impl$u20$serde..de..Deserialize$u20$for$u20$u32$GT$..deserialize..PrimitiveVisitor$u20$as$u20$serde..de..Visitor$GT$9expecting17h7422922f60240b78E
chrome_crashpad_handler:_ZN143_$LT$serde..de..impls..$LT$impl$u20$serde..de..Deserialize$u20$for$u20$u64$GT$..deserialize..PrimitiveVisitor$u20$as$u20$serde..de..Visitor$GT$9expecting17hc6139f4bb434cbe2E
chrome_crashpad_handler:_ZN144_$LT$serde..de..impls..$LT$impl$u20$serde..de..Deserialize$u20$for$u20$i128$GT$..deserialize..PrimitiveVisitor$u20$as$u20$serde..de..Visitor$GT$9expecting17hf37ff4ee6578c945E
chrome_crashpad_handler:_ZN144_$LT$serde..de..impls..$LT$impl$u20$serde..de..Deserialize$u20$for$u20$u128$GT$..deserialize..PrimitiveVisitor$u20$as$u20$serde..de..Visitor$GT$9expecting17h1549d6b88c15f2c9E
chrome_crashpad_handler:_ZN145_$LT$serde..de..impls..$LT$impl$u20$serde..de..Deserialize$u20$for$u20$isize$GT$..deserialize..PrimitiveVisitor$u20$as$u20$serde..de..Visitor$GT$9expecting17h9e0c92875d5ecfa3E
chrome_crashpad_handler:_ZN145_$LT$serde..de..impls..$LT$impl$u20$serde..de..Deserialize$u20$for$u20$usize$GT$..deserialize..PrimitiveVisitor$u20$as$u20$serde..de..Visitor$GT$9expecting17h8a461f778b61d099E
chrome_crashpad_handler:_ZN14rustc_demangle12try_demangle17h4572809d4c0c193aE
chrome_crashpad_handler:_ZN14rustc_demangle8demangle17hbe5001986cef55e7E
chrome_crashpad_handler:_ZN159_$LT$serde..de..impls..$LT$impl$u20$serde..de..Deserialize$u20$for$u20$core..time..Duration$GT$..deserialize..DurationVisitor$u20$as$u20$serde..de..Visitor$GT$9expecting17h97d98b4d366e9d49E
chrome_crashpad_handler:_ZN160_$LT$serde..de..impls..$LT$impl$u20$serde..de..Deserialize$u20$for$u20$std..time..SystemTime$GT$..deserialize..DurationVisitor$u20$as$u20$serde..de..Visitor$GT$9expecting17hff945ed62c555984E
chrome_crashpad_handler:_ZN161_$LT$serde..de..impls..$LT$impl$u20$serde..de..Deserialize$u20$for$u20$core..net..ip_addr..IpAddr$GT$..deserialize..EnumVisitor$u20$as$u20$serde..de..Visitor$GT$9expecting17h44bf75a9abc78f33E
chrome_crashpad_handler:_ZN169_$LT$serde..de..impls..$LT$impl$u20$serde..de..Deserialize$u20$for$u20$core..net..socket_addr..SocketAddr$GT$..deserialize..EnumVisitor$u20$as$u20$serde..de..Visitor$GT$9expecting17h135c537bdcf861f1E
chrome_crashpad_handler:_ZN174_$LT$alloc..boxed..Box$LT$dyn$u20$core..error..Error$u2b$core..marker..Send$u2b$core..marker..Sync$GT$$u20$as$u20$core..convert..From$LT$alloc..borrow..Cow$LT$str$GT$$GT$$GT$4from17h112d2a1137021625E
chrome_crashpad_handler:_ZN175_$LT$serde..de..impls..$LT$impl$u20$serde..de..Deserialize$u20$for$u20$core..num..nonzero..NonZero$LT$i8$GT$$GT$..deserialize..NonZeroVisitor$u20$as$u20$serde..de..Visitor$GT$9expecting17h24a19c54ea04a869E
chrome_crashpad_handler:_ZN175_$LT$serde..de..impls..$LT$impl$u20$serde..de..Deserialize$u20$for$u20$core..num..nonzero..NonZero$LT$u8$GT$$GT$..deserialize..NonZeroVisitor$u20$as$u20$serde..de..Visitor$GT$9expecting17h4de4a6f5aa588b6dE
chrome_crashpad_handler:_ZN176_$LT$serde..de..impls..$LT$impl$u20$serde..de..Deserialize$u20$for$u20$core..num..nonzero..NonZero$LT$i16$GT$$GT$..deserialize..NonZeroVisitor$u20$as$u20$serde..de..Visitor$GT$9expecting17h060f1bbf25faba91E
chrome_crashpad_handler:_ZN176_$LT$serde..de..impls..$LT$impl$u20$serde..de..Deserialize$u20$for$u20$core..num..nonzero..NonZero$LT$i32$GT$$GT$..deserialize..NonZeroVisitor$u20$as$u20$serde..de..Visitor$GT$9expecting17hab6b0eab8ed6dc1cE
chrome_crashpad_handler:_ZN176_$LT$serde..de..impls..$LT$impl$u20$serde..de..Deserialize$u20$for$u20$core..num..nonzero..NonZero$LT$i64$GT$$GT$..deserialize..NonZeroVisitor$u20$as$u20$serde..de..Visitor$GT$9expecting17h0e66c52751512a6eE
chrome_crashpad_handler:_ZN176_$LT$serde..de..impls..$LT$impl$u20$serde..de..Deserialize$u20$for$u20$core..num..nonzero..NonZero$LT$u16$GT$$GT$..deserialize..NonZeroVisitor$u20$as$u20$serde..de..Visitor$GT$9expecting17h4edbc4a9ed438c97E
chrome_crashpad_handler:_ZN176_$LT$serde..de..impls..$LT$impl$u20$serde..de..Deserialize$u20$for$u20$core..num..nonzero..NonZero$LT$u32$GT$$GT$..deserialize..NonZeroVisitor$u20$as$u20$serde..de..Visitor$GT$9expecting17hbaee08c7aa87f82bE
chrome_crashpad_handler:_ZN176_$LT$serde..de..impls..$LT$impl$u20$serde..de..Deserialize$u20$for$u20$core..num..nonzero..NonZero$LT$u64$GT$$GT$..deserialize..NonZeroVisitor$u20$as$u20$serde..de..Visitor$GT$9expecting17h4d2dfd04ad4d303fE
chrome_crashpad_handler:_ZN177_$LT$serde..de..impls..$LT$impl$u20$serde..de..Deserialize$u20$for$u20$core..num..nonzero..NonZero$LT$i128$GT$$GT$..deserialize..NonZeroVisitor$u20$as$u20$serde..de..Visitor$GT$9expecting17he38e9365bd7e4888E
chrome_crashpad_handler:_ZN177_$LT$serde..de..impls..$LT$impl$u20$serde..de..Deserialize$u20$for$u20$core..num..nonzero..NonZero$LT$u128$GT$$GT$..deserialize..NonZeroVisitor$u20$as$u20$serde..de..Visitor$GT$9expecting17h4106fef3a3ac83d3E
chrome_crashpad_handler:_ZN178_$LT$serde..de..impls..$LT$impl$u20$serde..de..Deserialize$u20$for$u20$core..num..nonzero..NonZero$LT$isize$GT$$GT$..deserialize..NonZeroVisitor$u20$as$u20$serde..de..Visitor$GT$9expecting17h4b4aaca2d583688aE
chrome_crashpad_handler:_ZN178_$LT$serde..de..impls..$LT$impl$u20$serde..de..Deserialize$u20$for$u20$core..num..nonzero..NonZero$LT$usize$GT$$GT$..deserialize..NonZeroVisitor$u20$as$u20$serde..de..Visitor$GT$9expecting17h9774d43f870f1a83E
chrome_crashpad_handler:_ZN181_$LT$serde_json_lenient..value..de..$LT$impl$u20$serde..de..Deserialize$u20$for$u20$serde_json_lenient..value..Value$GT$..deserialize..ValueVisitor$u20$as$u20$serde..de..Visitor$GT$9expecting17h24e433f22f764898E
chrome_crashpad_handler:_ZN184_$LT$serde..de..impls..$LT$impl$u20$serde..de..Deserialize$u20$for$u20$core..num..saturating..Saturating$LT$i8$GT$$GT$..deserialize..SaturatingVisitor$u20$as$u20$serde..de..Visitor$GT$9expecting17h1451ed52de76fb91E
chrome_crashpad_handler:_ZN184_$LT$serde..de..impls..$LT$impl$u20$serde..de..Deserialize$u20$for$u20$core..num..saturating..Saturating$LT$u8$GT$$GT$..deserialize..SaturatingVisitor$u20$as$u20$serde..de..Visitor$GT$9expecting17hbedcfbbf12c993c4E
chrome_crashpad_handler:_ZN185_$LT$serde..de..impls..$LT$impl$u20$serde..de..Deserialize$u20$for$u20$core..num..saturating..Saturating$LT$i16$GT$$GT$..deserialize..SaturatingVisitor$u20$as$u20$serde..de..Visitor$GT$9expecting17h7fcbe668139e4e56E
chrome_crashpad_handler:_ZN185_$LT$serde..de..impls..$LT$impl$u20$serde..de..Deserialize$u20$for$u20$core..num..saturating..Saturating$LT$i32$GT$$GT$..deserialize..SaturatingVisitor$u20$as$u20$serde..de..Visitor$GT$9expecting17h94d709e4d276251dE
chrome_crashpad_handler:_ZN185_$LT$serde..de..impls..$LT$impl$u20$serde..de..Deserialize$u20$for$u20$core..num..saturating..Saturating$LT$i64$GT$$GT$..deserialize..SaturatingVisitor$u20$as$u20$serde..de..Visitor$GT$9expecting17h111869d2095a8629E
chrome_crashpad_handler:_ZN185_$LT$serde..de..impls..$LT$impl$u20$serde..de..Deserialize$u20$for$u20$core..num..saturating..Saturating$LT$u16$GT$$GT$..deserialize..SaturatingVisitor$u20$as$u20$serde..de..Visitor$GT$9expecting17hea2b45fbdd85fa6fE
chrome_crashpad_handler:_ZN185_$LT$serde..de..impls..$LT$impl$u20$serde..de..Deserialize$u20$for$u20$core..num..saturating..Saturating$LT$u32$GT$$GT$..deserialize..SaturatingVisitor$u20$as$u20$serde..de..Visitor$GT$9expecting17hd399cf8e4cd9cd7fE
chrome_crashpad_handler:_ZN185_$LT$serde..de..impls..$LT$impl$u20$serde..de..Deserialize$u20$for$u20$core..num..saturating..Saturating$LT$u64$GT$$GT$..deserialize..SaturatingVisitor$u20$as$u20$serde..de..Visitor$GT$9expecting17h2812c6de1486d562E
chrome_crashpad_handler:_ZN186_$LT$serde..de..impls..$LT$impl$u20$serde..de..Deserialize$u20$for$u20$core..num..saturating..Saturating$LT$i128$GT$$GT$..deserialize..SaturatingVisitor$u20$as$u20$serde..de..Visitor$GT$9expecting17hda2dec04d6e6f423E
chrome_crashpad_handler:_ZN186_$LT$serde..de..impls..$LT$impl$u20$serde..de..Deserialize$u20$for$u20$core..num..saturating..Saturating$LT$u128$GT$$GT$..deserialize..SaturatingVisitor$u20$as$u20$serde..de..Visitor$GT$9expecting17h0ea3a50ba4130431E
chrome_crashpad_handler:_ZN186_$LT$std..sys..pal..unix..process..process_inner..$LT$impl$u20$std..sys..pal..unix..process..process_common..Command$GT$..posix_spawn..PosixSpawnattr$u20$as$u20$core..ops..drop..Drop$GT$4drop17h86f733fda039145fE
chrome_crashpad_handler:_ZN187_$LT$serde..de..impls..$LT$impl$u20$serde..de..Deserialize$u20$for$u20$core..num..saturating..Saturating$LT$isize$GT$$GT$..deserialize..SaturatingVisitor$u20$as$u20$serde..de..Visitor$GT$9expecting17hc6f8004ca7f8a463E
chrome_crashpad_handler:_ZN187_$LT$serde..de..impls..$LT$impl$u20$serde..de..Deserialize$u20$for$u20$core..num..saturating..Saturating$LT$usize$GT$$GT$..deserialize..SaturatingVisitor$u20$as$u20$serde..de..Visitor$GT$9expecting17h960f8151b632e73bE
chrome_crashpad_handler:_ZN18serde_json_lenient2de12ParserNumber12invalid_type17h6c467c7036a94cafE
chrome_crashpad_handler:_ZN18serde_json_lenient2de91_$LT$impl$u20$core..str..traits..FromStr$u20$for$u20$serde_json_lenient..number..Number$GT$8from_str17ha1089c6290074819E
chrome_crashpad_handler:_ZN18serde_json_lenient3map5Entry3key17h32db5f9c4f4c895aE
chrome_crashpad_handler:_ZN18serde_json_lenient3map5Entry9or_insert17ha7d0d0842cc55de0E
chrome_crashpad_handler:_ZN18serde_json_lenient3ser20key_must_be_a_string17hf65c9b9873a06a95E
chrome_crashpad_handler:_ZN18serde_json_lenient3ser24float_key_must_be_finite17hba21ebf11ccb86f6E
chrome_crashpad_handler:_ZN18serde_json_lenient3ser6ESCAPE17h546ae916a88ce6dfE
chrome_crashpad_handler:_ZN18serde_json_lenient3ser9Formatter17write_char_escape10HEX_DIGITS17h5d36d293753edae2E
chrome_crashpad_handler:_ZN18serde_json_lenient4read12parse_escape16encode_surrogate17hbb04df6290e76f78E
chrome_crashpad_handler:_ZN18serde_json_lenient4read14decode_hex_val17h3bc66cf9e90cc17fE
chrome_crashpad_handler:_ZN18serde_json_lenient4read32SubstitutingStrUtfOutputStrategy23convert_from_utf8_lossy17h83b9fd7cd51cee11E
chrome_crashpad_handler:_ZN18serde_json_lenient5error10make_error17had69887d323edc15E
chrome_crashpad_handler:_ZN18serde_json_lenient5error111_$LT$impl$u20$core..convert..From$LT$serde_json_lenient..error..Error$GT$$u20$for$u20$std..io..error..Error$GT$4from17hc6303b8f8999fbc6E
chrome_crashpad_handler:_ZN18serde_json_lenient5error5Error13io_error_kind17hebb3f7ff2c72ab77E
chrome_crashpad_handler:_ZN18serde_json_lenient5error5Error2io17hc49c19a07515c189E
chrome_crashpad_handler:_ZN18serde_json_lenient5error5Error6syntax17h3bba58893e345b3fE
chrome_crashpad_handler:_ZN18serde_json_lenient5value10partial_eq100_$LT$impl$u20$core..cmp..PartialEq$LT$isize$GT$$u20$for$u20$$RF$serde_json_lenient..value..Value$GT$2eq17hf764b9364c2ab763E
chrome_crashpad_handler:_ZN18serde_json_lenient5value10partial_eq100_$LT$impl$u20$core..cmp..PartialEq$LT$usize$GT$$u20$for$u20$$RF$serde_json_lenient..value..Value$GT$2eq17hb36d4669272dfe69E
chrome_crashpad_handler:_ZN18serde_json_lenient5value10partial_eq105_$LT$impl$u20$core..cmp..PartialEq$LT$i8$GT$$u20$for$u20$$RF$mut$u20$serde_json_lenient..value..Value$GT$2eq17h182fc93fe51519b3E
chrome_crashpad_handler:_ZN18serde_json_lenient5value10partial_eq105_$LT$impl$u20$core..cmp..PartialEq$LT$u8$GT$$u20$for$u20$$RF$mut$u20$serde_json_lenient..value..Value$GT$2eq17h96a752ff8d4de62dE
chrome_crashpad_handler:_ZN18serde_json_lenient5value10partial_eq106_$LT$impl$u20$core..cmp..PartialEq$LT$f64$GT$$u20$for$u20$$RF$mut$u20$serde_json_lenient..value..Value$GT$2eq17haa4d62ed06d17d10E
chrome_crashpad_handler:_ZN18serde_json_lenient5value10partial_eq106_$LT$impl$u20$core..cmp..PartialEq$LT$i16$GT$$u20$for$u20$$RF$mut$u20$serde_json_lenient..value..Value$GT$2eq17h5453dbac289aced9E
chrome_crashpad_handler:_ZN18serde_json_lenient5value10partial_eq106_$LT$impl$u20$core..cmp..PartialEq$LT$i32$GT$$u20$for$u20$$RF$mut$u20$serde_json_lenient..value..Value$GT$2eq17haf5ce34156608772E
chrome_crashpad_handler:_ZN18serde_json_lenient5value10partial_eq106_$LT$impl$u20$core..cmp..PartialEq$LT$i64$GT$$u20$for$u20$$RF$mut$u20$serde_json_lenient..value..Value$GT$2eq17h1d2626127c1b6af0E
chrome_crashpad_handler:_ZN18serde_json_lenient5value10partial_eq106_$LT$impl$u20$core..cmp..PartialEq$LT$u16$GT$$u20$for$u20$$RF$mut$u20$serde_json_lenient..value..Value$GT$2eq17hdf799a78a252cfafE
chrome_crashpad_handler:_ZN18serde_json_lenient5value10partial_eq106_$LT$impl$u20$core..cmp..PartialEq$LT$u32$GT$$u20$for$u20$$RF$mut$u20$serde_json_lenient..value..Value$GT$2eq17h2f30c30e36953e78E
chrome_crashpad_handler:_ZN18serde_json_lenient5value10partial_eq106_$LT$impl$u20$core..cmp..PartialEq$LT$u64$GT$$u20$for$u20$$RF$mut$u20$serde_json_lenient..value..Value$GT$2eq17hef0398964deab60fE
chrome_crashpad_handler:_ZN18serde_json_lenient5value10partial_eq108_$LT$impl$u20$core..cmp..PartialEq$LT$isize$GT$$u20$for$u20$$RF$mut$u20$serde_json_lenient..value..Value$GT$2eq17hf04727fba717cab9E
chrome_crashpad_handler:_ZN18serde_json_lenient5value10partial_eq108_$LT$impl$u20$core..cmp..PartialEq$LT$usize$GT$$u20$for$u20$$RF$mut$u20$serde_json_lenient..value..Value$GT$2eq17h7637d693df5d2bccE
chrome_crashpad_handler:_ZN18serde_json_lenient5value10partial_eq112_$LT$impl$u20$core..cmp..PartialEq$LT$alloc..string..String$GT$$u20$for$u20$serde_json_lenient..value..Value$GT$2eq17h148be69332152eb0E
chrome_crashpad_handler:_ZN18serde_json_lenient5value10partial_eq112_$LT$impl$u20$core..cmp..PartialEq$LT$serde_json_lenient..value..Value$GT$$u20$for$u20$alloc..string..String$GT$2eq17h37e5b69dfd315b55E
chrome_crashpad_handler:_ZN18serde_json_lenient5value10partial_eq93_$LT$impl$u20$core..cmp..PartialEq$LT$i8$GT$$u20$for$u20$serde_json_lenient..value..Value$GT$2eq17h0f9486a801223b78E
chrome_crashpad_handler:_ZN18serde_json_lenient5value10partial_eq93_$LT$impl$u20$core..cmp..PartialEq$LT$serde_json_lenient..value..Value$GT$$u20$for$u20$i8$GT$2eq17hd04f4d3bf688d8c0E
chrome_crashpad_handler:_ZN18serde_json_lenient5value10partial_eq93_$LT$impl$u20$core..cmp..PartialEq$LT$serde_json_lenient..value..Value$GT$$u20$for$u20$u8$GT$2eq17h0702047b66cd6403E
chrome_crashpad_handler:_ZN18serde_json_lenient5value10partial_eq93_$LT$impl$u20$core..cmp..PartialEq$LT$u8$GT$$u20$for$u20$serde_json_lenient..value..Value$GT$2eq17h28ea30f4448b6dacE
chrome_crashpad_handler:_ZN18serde_json_lenient5value10partial_eq94_$LT$impl$u20$core..cmp..PartialEq$LT$f64$GT$$u20$for$u20$serde_json_lenient..value..Value$GT$2eq17h0d5a1b47935cb83fE
chrome_crashpad_handler:_ZN18serde_json_lenient5value10partial_eq94_$LT$impl$u20$core..cmp..PartialEq$LT$i16$GT$$u20$for$u20$serde_json_lenient..value..Value$GT$2eq17h959191f6d0da22d9E
chrome_crashpad_handler:_ZN18serde_json_lenient5value10partial_eq94_$LT$impl$u20$core..cmp..PartialEq$LT$i32$GT$$u20$for$u20$serde_json_lenient..value..Value$GT$2eq17h04c7ed43704e9035E
chrome_crashpad_handler:_ZN18serde_json_lenient5value10partial_eq94_$LT$impl$u20$core..cmp..PartialEq$LT$i64$GT$$u20$for$u20$serde_json_lenient..value..Value$GT$2eq17hc3dbfbc0e803bb67E
chrome_crashpad_handler:_ZN18serde_json_lenient5value10partial_eq94_$LT$impl$u20$core..cmp..PartialEq$LT$serde_json_lenient..value..Value$GT$$u20$for$u20$f64$GT$2eq17h8a8804f52bc9d1c6E
chrome_crashpad_handler:_ZN18serde_json_lenient5value10partial_eq94_$LT$impl$u20$core..cmp..PartialEq$LT$serde_json_lenient..value..Value$GT$$u20$for$u20$i16$GT$2eq17hae5f00f4571180b2E
chrome_crashpad_handler:_ZN18serde_json_lenient5value10partial_eq94_$LT$impl$u20$core..cmp..PartialEq$LT$serde_json_lenient..value..Value$GT$$u20$for$u20$i32$GT$2eq17h3ff3b375985eb6ddE
chrome_crashpad_handler:_ZN18serde_json_lenient5value10partial_eq94_$LT$impl$u20$core..cmp..PartialEq$LT$serde_json_lenient..value..Value$GT$$u20$for$u20$i64$GT$2eq17h865477f85ff2426bE
chrome_crashpad_handler:_ZN18serde_json_lenient5value10partial_eq94_$LT$impl$u20$core..cmp..PartialEq$LT$serde_json_lenient..value..Value$GT$$u20$for$u20$str$GT$2eq17h93e1b4cd67669285E
chrome_crashpad_handler:_ZN18serde_json_lenient5value10partial_eq94_$LT$impl$u20$core..cmp..PartialEq$LT$serde_json_lenient..value..Value$GT$$u20$for$u20$u16$GT$2eq17hb2e58c511c90d36aE
chrome_crashpad_handler:_ZN18serde_json_lenient5value10partial_eq94_$LT$impl$u20$core..cmp..PartialEq$LT$serde_json_lenient..value..Value$GT$$u20$for$u20$u32$GT$2eq17hc04855b234de5b3bE
chrome_crashpad_handler:_ZN18serde_json_lenient5value10partial_eq94_$LT$impl$u20$core..cmp..PartialEq$LT$serde_json_lenient..value..Value$GT$$u20$for$u20$u64$GT$2eq17h93c37005d9507eaaE
chrome_crashpad_handler:_ZN18serde_json_lenient5value10partial_eq94_$LT$impl$u20$core..cmp..PartialEq$LT$str$GT$$u20$for$u20$serde_json_lenient..value..Value$GT$2eq17h436b2f724d61eff6E
chrome_crashpad_handler:_ZN18serde_json_lenient5value10partial_eq94_$LT$impl$u20$core..cmp..PartialEq$LT$u16$GT$$u20$for$u20$serde_json_lenient..value..Value$GT$2eq17h3bd83673397c2cd4E
chrome_crashpad_handler:_ZN18serde_json_lenient5value10partial_eq94_$LT$impl$u20$core..cmp..PartialEq$LT$u32$GT$$u20$for$u20$serde_json_lenient..value..Value$GT$2eq17h47952588e1c85017E
chrome_crashpad_handler:_ZN18serde_json_lenient5value10partial_eq94_$LT$impl$u20$core..cmp..PartialEq$LT$u64$GT$$u20$for$u20$serde_json_lenient..value..Value$GT$2eq17h3f0633ba753de181E
chrome_crashpad_handler:_ZN18serde_json_lenient5value10partial_eq96_$LT$impl$u20$core..cmp..PartialEq$LT$isize$GT$$u20$for$u20$serde_json_lenient..value..Value$GT$2eq17hcd131e149a9555a0E
chrome_crashpad_handler:_ZN18serde_json_lenient5value10partial_eq96_$LT$impl$u20$core..cmp..PartialEq$LT$serde_json_lenient..value..Value$GT$$u20$for$u20$isize$GT$2eq17h118c232cb0f68436E
chrome_crashpad_handler:_ZN18serde_json_lenient5value10partial_eq96_$LT$impl$u20$core..cmp..PartialEq$LT$serde_json_lenient..value..Value$GT$$u20$for$u20$usize$GT$2eq17h7773c79d6ffe49d9E
chrome_crashpad_handler:_ZN18serde_json_lenient5value10partial_eq96_$LT$impl$u20$core..cmp..PartialEq$LT$usize$GT$$u20$for$u20$serde_json_lenient..value..Value$GT$2eq17h529be80603626740E
chrome_crashpad_handler:_ZN18serde_json_lenient5value10partial_eq97_$LT$impl$u20$core..cmp..PartialEq$LT$i8$GT$$u20$for$u20$$RF$serde_json_lenient..value..Value$GT$2eq17hf6a7e33f46c32991E
chrome_crashpad_handler:_ZN18serde_json_lenient5value10partial_eq97_$LT$impl$u20$core..cmp..PartialEq$LT$u8$GT$$u20$for$u20$$RF$serde_json_lenient..value..Value$GT$2eq17h474ac0ef99a76067E
chrome_crashpad_handler:_ZN18serde_json_lenient5value10partial_eq98_$LT$impl$u20$core..cmp..PartialEq$LT$$RF$str$GT$$u20$for$u20$serde_json_lenient..value..Value$GT$2eq17h14b325f97fb5681eE
chrome_crashpad_handler:_ZN18serde_json_lenient5value10partial_eq98_$LT$impl$u20$core..cmp..PartialEq$LT$f64$GT$$u20$for$u20$$RF$serde_json_lenient..value..Value$GT$2eq17h1a7ed26c3e4738c1E
chrome_crashpad_handler:_ZN18serde_json_lenient5value10partial_eq98_$LT$impl$u20$core..cmp..PartialEq$LT$i16$GT$$u20$for$u20$$RF$serde_json_lenient..value..Value$GT$2eq17h420b401f9ecce139E
chrome_crashpad_handler:_ZN18serde_json_lenient5value10partial_eq98_$LT$impl$u20$core..cmp..PartialEq$LT$i32$GT$$u20$for$u20$$RF$serde_json_lenient..value..Value$GT$2eq17h08bcfcfdb03b20c9E
chrome_crashpad_handler:_ZN18serde_json_lenient5value10partial_eq98_$LT$impl$u20$core..cmp..PartialEq$LT$i64$GT$$u20$for$u20$$RF$serde_json_lenient..value..Value$GT$2eq17hd54e77957b09e899E
chrome_crashpad_handler:_ZN18serde_json_lenient5value10partial_eq98_$LT$impl$u20$core..cmp..PartialEq$LT$serde_json_lenient..value..Value$GT$$u20$for$u20$$RF$str$GT$2eq17h788cc3d0623c9e2fE
chrome_crashpad_handler:_ZN18serde_json_lenient5value10partial_eq98_$LT$impl$u20$core..cmp..PartialEq$LT$u16$GT$$u20$for$u20$$RF$serde_json_lenient..value..Value$GT$2eq17ha4eef41d5aa37cf0E
chrome_crashpad_handler:_ZN18serde_json_lenient5value10partial_eq98_$LT$impl$u20$core..cmp..PartialEq$LT$u32$GT$$u20$for$u20$$RF$serde_json_lenient..value..Value$GT$2eq17h32ff6bf300e8d677E
chrome_crashpad_handler:_ZN18serde_json_lenient5value10partial_eq98_$LT$impl$u20$core..cmp..PartialEq$LT$u64$GT$$u20$for$u20$$RF$serde_json_lenient..value..Value$GT$2eq17hdd431edd35a9dce7E
chrome_crashpad_handler:_ZN18serde_json_lenient5value2de15MapDeserializer3new17h4d0d2aaa2c1f081aE
chrome_crashpad_handler:_ZN18serde_json_lenient5value2de15SeqDeserializer3new17hb51f073b7feb780aE
chrome_crashpad_handler:_ZN18serde_json_lenient5value2de50_$LT$impl$u20$serde_json_lenient..value..Value$GT$10unexpected17hf042fc70b3b441aaE
chrome_crashpad_handler:_ZN18serde_json_lenient5value2de89_$LT$impl$u20$core..str..traits..FromStr$u20$for$u20$serde_json_lenient..value..Value$GT$8from_str17h780470e4f0457d04E
chrome_crashpad_handler:_ZN18serde_json_lenient5value3ser20key_must_be_a_string17h2bf2ab614313da61E
chrome_crashpad_handler:_ZN18serde_json_lenient5value4from119_$LT$impl$u20$core..convert..From$LT$alloc..borrow..Cow$LT$str$GT$$GT$$u20$for$u20$serde_json_lenient..value..Value$GT$4from17h83366b83e4e82815E
chrome_crashpad_handler:_ZN18serde_json_lenient5value4from93_$LT$impl$u20$core..convert..From$LT$f32$GT$$u20$for$u20$serde_json_lenient..value..Value$GT$4from17h222f53ffdb83aba3E
chrome_crashpad_handler:_ZN18serde_json_lenient5value4from93_$LT$impl$u20$core..convert..From$LT$f64$GT$$u20$for$u20$serde_json_lenient..value..Value$GT$4from17h9ba6850f7cbec7adE
chrome_crashpad_handler:_ZN18serde_json_lenient5value4from97_$LT$impl$u20$core..convert..From$LT$$RF$str$GT$$u20$for$u20$serde_json_lenient..value..Value$GT$4from17hedfb2b30f009aa52E
chrome_crashpad_handler:_ZN18serde_json_lenient5value5Value11pointer_mut17h7eefae24dd6b4510E
chrome_crashpad_handler:_ZN18serde_json_lenient5value5Value7pointer17h42f436fed9f99d9fE
chrome_crashpad_handler:_ZN18serde_json_lenient5value5index95_$LT$impl$u20$core..ops..index..Index$LT$I$GT$$u20$for$u20$serde_json_lenient..value..Value$GT$5index4NULL17hbde733161960d65dE
chrome_crashpad_handler:_ZN18serde_json_lenient7lexical4math5small9imul_pow517h3ad5ad39006f9651E
chrome_crashpad_handler:_ZN18serde_json_lenient7lexical5float13ExtendedFloat3mul17h2cd6037fbd217c69E
chrome_crashpad_handler:_ZN193_$LT$std..process..Child$u20$as$u20$std..sys_common..FromInner$LT$$LP$std..sys..pal..unix..process..process_inner..Process$C$std..sys..pal..unix..process..process_common..StdioPipes$RP$$GT$$GT$10from_inner17hdb65080882f36709E
chrome_crashpad_handler:_ZN193_$LT$std..sys..pal..unix..process..process_inner..$LT$impl$u20$std..sys..pal..unix..process..process_common..Command$GT$..posix_spawn..PosixSpawnFileActions$u20$as$u20$core..ops..drop..Drop$GT$4drop17haec390ef0cb7c2a6E
chrome_crashpad_handler:_ZN195_$LT$$LT$serde_json_lenient..map..Map$LT$alloc..string..String$C$serde_json_lenient..value..Value$GT$$u20$as$u20$serde..de..Deserialize$GT$..deserialize..Visitor$u20$as$u20$serde..de..Visitor$GT$9expecting17hd9e730074d2f3096E
chrome_crashpad_handler:_ZN218_$LT$$LT$serde..de..impls..$LT$impl$u20$serde..de..Deserialize$u20$for$u20$core..time..Duration$GT$..deserialize..Field$u20$as$u20$serde..de..Deserialize$GT$..deserialize..FieldVisitor$u20$as$u20$serde..de..Visitor$GT$9expecting17hf413c49de3a013c3E
chrome_crashpad_handler:_ZN219_$LT$$LT$serde..de..impls..$LT$impl$u20$serde..de..Deserialize$u20$for$u20$std..time..SystemTime$GT$..deserialize..Field$u20$as$u20$serde..de..Deserialize$GT$..deserialize..FieldVisitor$u20$as$u20$serde..de..Visitor$GT$9expecting17ha93a9f77727735c2E
chrome_crashpad_handler:_ZN221_$LT$$LT$alloc..boxed..Box$LT$dyn$u20$core..error..Error$u2b$core..marker..Send$u2b$core..marker..Sync$GT$$u20$as$u20$core..convert..From$LT$alloc..string..String$GT$$GT$..from..StringError$u20$as$u20$core..fmt..Debug$GT$3fmt17h712464cf74277fe7E
chrome_crashpad_handler:_ZN223_$LT$$LT$alloc..boxed..Box$LT$dyn$u20$core..error..Error$u2b$core..marker..Send$u2b$core..marker..Sync$GT$$u20$as$u20$core..convert..From$LT$alloc..string..String$GT$$GT$..from..StringError$u20$as$u20$core..error..Error$GT$11description17h0980c0239d8b55b1E
chrome_crashpad_handler:_ZN223_$LT$$LT$alloc..boxed..Box$LT$dyn$u20$core..error..Error$u2b$core..marker..Send$u2b$core..marker..Sync$GT$$u20$as$u20$core..convert..From$LT$alloc..string..String$GT$$GT$..from..StringError$u20$as$u20$core..fmt..Display$GT$3fmt17h7d1adc80d58c9339E
chrome_crashpad_handler:_ZN228_$LT$$LT$serde..de..impls..$LT$impl$u20$serde..de..Deserialize$u20$for$u20$core..net..ip_addr..IpAddr$GT$..deserialize..IpAddrKind$u20$as$u20$serde..de..Deserialize$GT$..deserialize..KindVisitor$u20$as$u20$serde..de..Visitor$GT$9expecting17h244ae89adf29366dE
chrome_crashpad_handler:_ZN230_$LT$$LT$serde..de..impls..$LT$impl$u20$serde..de..Deserialize$u20$for$u20$core..ops..range..Bound$LT$T$GT$$GT$..deserialize..Field$u20$as$u20$serde..de..Deserialize$GT$..deserialize..FieldVisitor$u20$as$u20$serde..de..Visitor$GT$9expecting17hd989456aa9959519E
chrome_crashpad_handler:_ZN231_$LT$$LT$serde..de..impls..$LT$impl$u20$serde..de..Deserialize$u20$for$u20$core..result..Result$LT$T$C$E$GT$$GT$..deserialize..Field$u20$as$u20$serde..de..Deserialize$GT$..deserialize..FieldVisitor$u20$as$u20$serde..de..Visitor$GT$9expecting17h24530113027fccf2E
chrome_crashpad_handler:_ZN240_$LT$$LT$serde..de..impls..$LT$impl$u20$serde..de..Deserialize$u20$for$u20$core..net..socket_addr..SocketAddr$GT$..deserialize..SocketAddrKind$u20$as$u20$serde..de..Deserialize$GT$..deserialize..KindVisitor$u20$as$u20$serde..de..Visitor$GT$9expecting17h6ce8921725f41d5fE
chrome_crashpad_handler:_ZN3cxx6result10to_c_error17h123b89b60fb50176E
chrome_crashpad_handler:_ZN3cxx6string101_$LT$impl$u20$std..io..Write$u20$for$u20$core..pin..Pin$LT$$RF$mut$u20$cxx..string..CxxString$GT$$GT$5write17h3e714a2c69cd0708E
chrome_crashpad_handler:_ZN3cxx6string103_$LT$impl$u20$core..fmt..Write$u20$for$u20$core..pin..Pin$LT$$RF$mut$u20$cxx..string..CxxString$GT$$GT$9write_str17hfeaded709387350bE
chrome_crashpad_handler:_ZN3cxx6string84_$LT$impl$u20$core..cmp..PartialEq$LT$cxx..string..CxxString$GT$$u20$for$u20$str$GT$2eq17h95f8e0454db419e2E
chrome_crashpad_handler:_ZN3cxx6string9CxxString10push_bytes17h459b2e4c2955fbc3E
chrome_crashpad_handler:_ZN3cxx6string9CxxString15to_string_lossy17hf6e1db87525c1383E
chrome_crashpad_handler:_ZN3cxx6string9CxxString3len17hf5610052b6cf5348E
chrome_crashpad_handler:_ZN3cxx6string9CxxString5clear17h3644f21f050acefdE
chrome_crashpad_handler:_ZN3cxx6string9CxxString6as_ptr17h11fa606a37610d7dE
chrome_crashpad_handler:_ZN3cxx6string9CxxString6to_str17ha675c404436051f4E
chrome_crashpad_handler:_ZN3cxx6string9CxxString7reserve17h232f59dccadf20ceE
chrome_crashpad_handler:_ZN3cxx6string9CxxString8as_bytes17h987c8fbf6b8e16d9E
chrome_crashpad_handler:_ZN3cxx6string9CxxString8is_empty17h500463825494c39cE
chrome_crashpad_handler:_ZN3cxx6string9CxxString8push_str17h6d30b5ad8bba43faE
chrome_crashpad_handler:_ZN3ryu6pretty8format3217h2bf51cd659f559b1E
chrome_crashpad_handler:_ZN3ryu6pretty8format6417had4a0b58baa0d79bE
chrome_crashpad_handler:_ZN3std10sys_common2fs6exists17haa7a9881d393b26cE
chrome_crashpad_handler:_ZN3std10sys_common3net11TcpListener4bind17hcc01a69cd0f229fdE
chrome_crashpad_handler:_ZN3std10sys_common3net154_$LT$impl$u20$std..sys_common..IntoInner$LT$$LP$std..sys_common..net..SocketAddrCRepr$C$u32$RP$$GT$$u20$for$u20$$RF$core..net..socket_addr..SocketAddr$GT$10into_inner17h967eb3243be71faeE
chrome_crashpad_handler:_ZN3std10sys_common3net9TcpStream7connect17h3db9168f2b925b72E
chrome_crashpad_handler:_ZN3std10sys_common3net9UdpSocket4bind17h29d35e0319afe8fdE
chrome_crashpad_handler:_ZN3std10sys_common3net9UdpSocket7connect17h83a9b6fa31cc652eE
chrome_crashpad_handler:_ZN3std10sys_common3net9UdpSocket7send_to17h9e52db839c181975E
chrome_crashpad_handler:_ZN3std10sys_common4wtf816slice_error_fail17hc0ac0b20036cf6f4E
chrome_crashpad_handler:_ZN3std10sys_common4wtf87Wtf8Buf25push_code_point_unchecked17h467cb7714a70c320E
chrome_crashpad_handler:_ZN3std10sys_common7process10CommandEnv3set17h1ba72391ed8a2f7aE
chrome_crashpad_handler:_ZN3std10sys_common7process10CommandEnv6remove17hfa1d3f4e512a8437E
chrome_crashpad_handler:_ZN3std12backtrace_rs9symbolize5gimli7resolve17h155188a04d84ef24E
chrome_crashpad_handler:_ZN3std12backtrace_rs9symbolize6Symbol12filename_raw17h0ebae0faa1e5ea38E
chrome_crashpad_handler:_ZN3std12backtrace_rs9symbolize6Symbol4name17h3dd74638a192bd13E
chrome_crashpad_handler:_ZN3std2fs10DirBuilder7_create17h989db88383660139E
chrome_crashpad_handler:_ZN3std2fs11OpenOptions5_open17h0dcea4c29550638fE
chrome_crashpad_handler:_ZN3std2fs14read_to_string5inner17he67c6671fbd388c1E
chrome_crashpad_handler:_ZN3std2fs4File15set_permissions17hae32cb7290da9305E
chrome_crashpad_handler:_ZN3std2fs4File7set_len17h7c693d3a7ef5c931E
chrome_crashpad_handler:_ZN3std2fs4File8metadata17h1fb538639a7bf867E
chrome_crashpad_handler:_ZN3std2fs4File8sync_all17h3e2447b6db120a86E
chrome_crashpad_handler:_ZN3std2fs4File9set_times17h0681e77077e1663bE
chrome_crashpad_handler:_ZN3std2fs4File9sync_data17h460b7df9881681b8E
chrome_crashpad_handler:_ZN3std2fs4File9try_clone17h03aa854cd0d0f401E
chrome_crashpad_handler:_ZN3std2fs4read5inner17hb0b87b3a9edfa55cE
chrome_crashpad_handler:_ZN3std2fs5write5inner17h50593a1ee6bb7154E
chrome_crashpad_handler:_ZN3std2fs81_$LT$impl$u20$std..io..Read$u20$for$u20$alloc..sync..Arc$LT$std..fs..File$GT$$GT$11read_to_end17hb2b8aa489a870f11E
chrome_crashpad_handler:_ZN3std2fs81_$LT$impl$u20$std..io..Read$u20$for$u20$alloc..sync..Arc$LT$std..fs..File$GT$$GT$13read_vectored17h6b148cd6b349e2e5E
chrome_crashpad_handler:_ZN3std2fs81_$LT$impl$u20$std..io..Read$u20$for$u20$alloc..sync..Arc$LT$std..fs..File$GT$$GT$14read_to_string17h5b922512ce6a5f5eE
chrome_crashpad_handler:_ZN3std2fs81_$LT$impl$u20$std..io..Read$u20$for$u20$alloc..sync..Arc$LT$std..fs..File$GT$$GT$4read17h4c984477e0b3aaacE
chrome_crashpad_handler:_ZN3std2fs81_$LT$impl$u20$std..io..Read$u20$for$u20$alloc..sync..Arc$LT$std..fs..File$GT$$GT$8read_buf17h77f55c78d7a57bc5E
chrome_crashpad_handler:_ZN3std2fs81_$LT$impl$u20$std..io..Seek$u20$for$u20$alloc..sync..Arc$LT$std..fs..File$GT$$GT$4seek17h469e6aa5e4a90b01E
chrome_crashpad_handler:_ZN3std2fs82_$LT$impl$u20$std..io..Write$u20$for$u20$alloc..sync..Arc$LT$std..fs..File$GT$$GT$14write_vectored17h4a339923ff6649c1E
chrome_crashpad_handler:_ZN3std2fs82_$LT$impl$u20$std..io..Write$u20$for$u20$alloc..sync..Arc$LT$std..fs..File$GT$$GT$5write17h0b2022045807ec47E
chrome_crashpad_handler:_ZN3std2fs8DirEntry4path17he0bf0808be489d4aE
chrome_crashpad_handler:_ZN3std2fs8DirEntry8metadata17h2824f8eba829801cE
chrome_crashpad_handler:_ZN3std2fs8DirEntry9file_name17h1f5d86164de54cb5E
chrome_crashpad_handler:_ZN3std2fs8DirEntry9file_type17h12747bb8d801dffbE
chrome_crashpad_handler:_ZN3std2fs8Metadata7created17h9f412f2b0fe43bc0E
chrome_crashpad_handler:_ZN3std2fs8Metadata8accessed17hb0320472e91ed6daE
chrome_crashpad_handler:_ZN3std2fs8Metadata8modified17h0c01ac0d7a8b984cE
chrome_crashpad_handler:_ZN3std2io5error14repr_bitpacked4Repr3new17he83398be32c9bf81E
chrome_crashpad_handler:_ZN3std2io5error5Error4_new17h87d7ac255ca3746bE
chrome_crashpad_handler:_ZN3std2io5error83_$LT$impl$u20$core..fmt..Debug$u20$for$u20$std..io..error..repr_bitpacked..Repr$GT$3fmt17hbda38da4d3bf9b21E
chrome_crashpad_handler:_ZN3std2io5impls83_$LT$impl$u20$std..io..Write$u20$for$u20$core..io..borrowed_buf..BorrowedCursor$GT$5write17h5358c84d93500efeE
chrome_crashpad_handler:_ZN3std2io5stdio18set_output_capture17h0e33b0b7fc2c0a4cE
chrome_crashpad_handler:_ZN3std2io5stdio22try_set_output_capture17hca4b028084c33ca2E
chrome_crashpad_handler:_ZN3std2io5stdio23attempt_print_to_stderr17hde03ee4628de5591E
chrome_crashpad_handler:_ZN3std2io5stdio5Stdin4lock17h9e10c854409f222cE
chrome_crashpad_handler:_ZN3std2io5stdio5Stdin5lines17hac515a306ead1279E
chrome_crashpad_handler:_ZN3std2io5stdio5Stdin9read_line17h06469cd6c6b6cae4E
chrome_crashpad_handler:_ZN3std2io5stdio5stdin17ha14493f750f7caddE
chrome_crashpad_handler:_ZN3std2io5stdio6Stderr4lock17ha43efeda13a7b925E
chrome_crashpad_handler:_ZN3std2io5stdio6Stdout4lock17ha1ff818f08b6cbdeE
chrome_crashpad_handler:_ZN3std2io5stdio6_print17h0f2b50a8e3a68a32E
chrome_crashpad_handler:_ZN3std2io5stdio6stderr8INSTANCE17h54b0458bb90ea593E
chrome_crashpad_handler:_ZN3std2io5stdio6stdout17hb6f477274f12fdf3E
chrome_crashpad_handler:_ZN3std2io5stdio7_eprint17h773564ac0f4210dcE
chrome_crashpad_handler:_ZN3std2io8buffered9bufreader6buffer6Buffer9backshift17h557e67d7e1b9e8e1E
chrome_crashpad_handler:_ZN3std2io8buffered9bufwriter18BufWriter$LT$W$GT$9flush_buf8BufGuard7consume17h037ed0eedfb2c365E
chrome_crashpad_handler:_ZN3std2io8buffered9bufwriter18BufWriter$LT$W$GT$9flush_buf8BufGuard9remaining17h7b927fe1dcaa6ddbE
chrome_crashpad_handler:_ZN3std2os2fd5owned10BorrowedFd18try_clone_to_owned17h68683853606a5903E
chrome_crashpad_handler:_ZN3std2os2fd5owned7OwnedFd9try_clone17h7e10042e783aa36fE
chrome_crashpad_handler:_ZN3std2os4unix3net4addr10SocketAddr10from_parts17h7b7de5971932d91bE
chrome_crashpad_handler:_ZN3std2os4unix3net4addr10SocketAddr10is_unnamed17h2ac1d971e2c2aabaE
chrome_crashpad_handler:_ZN3std2os4unix3net4addr10SocketAddr11as_pathname17h957304910994cd0fE
chrome_crashpad_handler:_ZN3std2os4unix3net4addr11sockaddr_un17h242890e14b970b41E
chrome_crashpad_handler:_ZN3std2os4unix3net4addr15sun_path_offset17h41cfd13d52bbd39cE
chrome_crashpad_handler:_ZN3std2os4unix3net6stream10UnixStream10local_addr17hc221d11284edc692E
chrome_crashpad_handler:_ZN3std2os4unix3net6stream10UnixStream10take_error17h996e2bf018093db2E
chrome_crashpad_handler:_ZN3std2os4unix3net6stream10UnixStream12connect_addr17h18a99df05910911dE
chrome_crashpad_handler:_ZN3std2os4unix3net6stream10UnixStream12read_timeout17h21225f31cdab5385E
chrome_crashpad_handler:_ZN3std2os4unix3net6stream10UnixStream13write_timeout17hcf989ffc6fbf31c1E
chrome_crashpad_handler:_ZN3std2os4unix3net6stream10UnixStream15set_nonblocking17h34017e623f2b46a5E
chrome_crashpad_handler:_ZN3std2os4unix3net6stream10UnixStream16set_read_timeout17h899d12b55269edb0E
chrome_crashpad_handler:_ZN3std2os4unix3net6stream10UnixStream17set_write_timeout17h42a94469163df9daE
chrome_crashpad_handler:_ZN3std2os4unix3net6stream10UnixStream28recv_vectored_with_ancillary17hce1a26240be26cccE
chrome_crashpad_handler:_ZN3std2os4unix3net6stream10UnixStream28send_vectored_with_ancillary17h686822f55ccbb7b3E
chrome_crashpad_handler:_ZN3std2os4unix3net6stream10UnixStream4pair17h850fa6819b0c53f2E
chrome_crashpad_handler:_ZN3std2os4unix3net6stream10UnixStream4peek17hc3347495354ae2d8E
chrome_crashpad_handler:_ZN3std2os4unix3net6stream10UnixStream8set_mark17h1b6e956a240fa25eE
chrome_crashpad_handler:_ZN3std2os4unix3net6stream10UnixStream8shutdown17he2120365319a507cE
chrome_crashpad_handler:_ZN3std2os4unix3net6stream10UnixStream9peer_addr17hc86f1bbdea71dc7eE
chrome_crashpad_handler:_ZN3std2os4unix3net6stream10UnixStream9peer_cred17h0951e53d4ab15594E
chrome_crashpad_handler:_ZN3std2os4unix3net6stream10UnixStream9try_clone17h3859eefc28a9ade5E
chrome_crashpad_handler:_ZN3std2os4unix3net8datagram12UnixDatagram10local_addr17h7e173052a5096a6cE
chrome_crashpad_handler:_ZN3std2os4unix3net8datagram12UnixDatagram10take_error17h47d667cce71df771E
chrome_crashpad_handler:_ZN3std2os4unix3net8datagram12UnixDatagram12connect_addr17hbc24515ec2f18543E
chrome_crashpad_handler:_ZN3std2os4unix3net8datagram12UnixDatagram12read_timeout17h50ef849b8feaf29bE
chrome_crashpad_handler:_ZN3std2os4unix3net8datagram12UnixDatagram12send_to_addr17h24c7e97a42a3fc55E
chrome_crashpad_handler:_ZN3std2os4unix3net8datagram12UnixDatagram13write_timeout17h217ccf1b693fc444E
chrome_crashpad_handler:_ZN3std2os4unix3net8datagram12UnixDatagram15set_nonblocking17hcddee690a22afbbbE
chrome_crashpad_handler:_ZN3std2os4unix3net8datagram12UnixDatagram16set_read_timeout17h1bd8b13182c8c3e8E
chrome_crashpad_handler:_ZN3std2os4unix3net8datagram12UnixDatagram17set_write_timeout17h082f24b96ec6380bE
chrome_crashpad_handler:_ZN3std2os4unix3net8datagram12UnixDatagram28recv_vectored_with_ancillary17ha61edf0fc8d66e5dE
chrome_crashpad_handler:_ZN3std2os4unix3net8datagram12UnixDatagram28send_vectored_with_ancillary17h2e0447c743cf5aebE
chrome_crashpad_handler:_ZN3std2os4unix3net8datagram12UnixDatagram33recv_vectored_with_ancillary_from17h95f5d2015eb4ec7bE
chrome_crashpad_handler:_ZN3std2os4unix3net8datagram12UnixDatagram4pair17h30bd990b9f968794E
chrome_crashpad_handler:_ZN3std2os4unix3net8datagram12UnixDatagram4peek17ha76908ad06dbaa0bE
chrome_crashpad_handler:_ZN3std2os4unix3net8datagram12UnixDatagram4recv17h6e5fb753045e18d4E
chrome_crashpad_handler:_ZN3std2os4unix3net8datagram12UnixDatagram4send17h148a3be76340182cE
chrome_crashpad_handler:_ZN3std2os4unix3net8datagram12UnixDatagram7unbound17h49a0f86dda4f5748E
chrome_crashpad_handler:_ZN3std2os4unix3net8datagram12UnixDatagram8set_mark17h9aa9ea75d9dce2bbE
chrome_crashpad_handler:_ZN3std2os4unix3net8datagram12UnixDatagram8shutdown17hb2bc8c28d7434085E
chrome_crashpad_handler:_ZN3std2os4unix3net8datagram12UnixDatagram9bind_addr17h794d97be7317da28E
chrome_crashpad_handler:_ZN3std2os4unix3net8datagram12UnixDatagram9peek_from17h6790dd12eee48ecbE
chrome_crashpad_handler:_ZN3std2os4unix3net8datagram12UnixDatagram9peer_addr17hddcff612bde76246E
chrome_crashpad_handler:_ZN3std2os4unix3net8datagram12UnixDatagram9recv_from17h6cbae77e604d1199E
chrome_crashpad_handler:_ZN3std2os4unix3net8datagram12UnixDatagram9try_clone17hdc8c8cc079936c48E
chrome_crashpad_handler:_ZN3std2os4unix3net8listener12UnixListener10local_addr17hba664e3bd33c2764E
chrome_crashpad_handler:_ZN3std2os4unix3net8listener12UnixListener10take_error17h488744ebe3dcd06bE
chrome_crashpad_handler:_ZN3std2os4unix3net8listener12UnixListener15set_nonblocking17h44b8b7d6030442eeE
chrome_crashpad_handler:_ZN3std2os4unix3net8listener12UnixListener6accept17h5b794b0eecf6c569E
chrome_crashpad_handler:_ZN3std2os4unix3net8listener12UnixListener9bind_addr17hb0c7b82555105669E
chrome_crashpad_handler:_ZN3std2os4unix3net8listener12UnixListener9try_clone17h22a97f0739396946E
chrome_crashpad_handler:_ZN3std2os4unix3net9ancillary15SocketAncillary7add_fds17h8bffababefbfc6fbE
chrome_crashpad_handler:_ZN3std2os4unix3net9ancillary15SocketAncillary8messages17h87d8fe7077b0dadfE
chrome_crashpad_handler:_ZN3std2os4unix3net9ancillary15SocketAncillary9add_creds17h842a48481dde2b07E
chrome_crashpad_handler:_ZN3std2os4unix3net9ancillary31send_vectored_with_ancillary_to17h05fbd895f415a4f3E
chrome_crashpad_handler:_ZN3std2os4unix7process9parent_id17h07a4e20d5a861bc5E
chrome_crashpad_handler:_ZN3std2os5linux7process5PidFd4kill17h6e68fcc9f87e7a24E
chrome_crashpad_handler:_ZN3std2os5linux7process5PidFd4wait17h186f79b8e149327cE
chrome_crashpad_handler:_ZN3std2os5linux7process5PidFd8try_wait17he8d715b6d74d404aE
chrome_crashpad_handler:_ZN3std2rt19lang_start_internal17h1635932aa7fe7a71E
chrome_crashpad_handler:_ZN3std3env11current_dir17h224b1af3507c05f2E
chrome_crashpad_handler:_ZN3std3env11current_exe17h3dbf2f9f45fe655eE
chrome_crashpad_handler:_ZN3std3env4_var17h7fb92754a07b4f83E
chrome_crashpad_handler:_ZN3std3env4args17hbbb7aece4f46997dE
chrome_crashpad_handler:_ZN3std3env4vars17hd735bbbf3ba97934E
chrome_crashpad_handler:_ZN3std3env7_var_os17h316fee2a1e477f34E
chrome_crashpad_handler:_ZN3std3env7args_os17h8b7398ada3bec471E
chrome_crashpad_handler:_ZN3std3env7vars_os17h6ac784fbcb0b0684E
chrome_crashpad_handler:_ZN3std3env8home_dir17hf31db627c34a2f64E
chrome_crashpad_handler:_ZN3std3env8temp_dir17h30c04338621f1a27E
chrome_crashpad_handler:_ZN3std3ffi6os_str5OsStr14into_os_string17hc384cfd82e053d51E
chrome_crashpad_handler:_ZN3std3ffi6os_str5OsStr18to_ascii_lowercase17h8a809c2dd9630b49E
chrome_crashpad_handler:_ZN3std3ffi6os_str5OsStr18to_ascii_uppercase17hc58c6da5f1345f0aE
chrome_crashpad_handler:_ZN3std3ffi6os_str8OsString17into_boxed_os_str17h7a6076ac97909204E
chrome_crashpad_handler:_ZN3std3ffi6os_str95_$LT$impl$u20$core..convert..TryFrom$LT$$RF$std..ffi..os_str..OsStr$GT$$u20$for$u20$$RF$str$GT$8try_from17haaa3e083dfdca378E
chrome_crashpad_handler:_ZN3std3net11socket_addr136_$LT$impl$u20$std..sys_common..FromInner$LT$libc..unix..linux_like..sockaddr_in$GT$$u20$for$u20$core..net..socket_addr..SocketAddrV4$GT$10from_inner17h14931c9d6669fe85E
chrome_crashpad_handler:_ZN3std3net11socket_addr136_$LT$impl$u20$std..sys_common..IntoInner$LT$libc..unix..linux_like..sockaddr_in$GT$$u20$for$u20$core..net..socket_addr..SocketAddrV4$GT$10into_inner17hd83e20a2b0933b07E
chrome_crashpad_handler:_ZN3std3net11socket_addr137_$LT$impl$u20$std..sys_common..FromInner$LT$libc..unix..linux_like..sockaddr_in6$GT$$u20$for$u20$core..net..socket_addr..SocketAddrV6$GT$10from_inner17h3889af810b397369E
chrome_crashpad_handler:_ZN3std3net11socket_addr137_$LT$impl$u20$std..sys_common..IntoInner$LT$libc..unix..linux_like..sockaddr_in6$GT$$u20$for$u20$core..net..socket_addr..SocketAddrV6$GT$10into_inner17h27a75787c86442a9E
chrome_crashpad_handler:_ZN3std3net3tcp11TcpListener10local_addr17h26dfb9e572454fe6E
chrome_crashpad_handler:_ZN3std3net3tcp11TcpListener10take_error17h0e012829839f82f8E
chrome_crashpad_handler:_ZN3std3net3tcp11TcpListener11set_only_v617h9b40afe1f97854ecE
chrome_crashpad_handler:_ZN3std3net3tcp11TcpListener15set_nonblocking17ha5fa0fc1106c6bd9E
chrome_crashpad_handler:_ZN3std3net3tcp11TcpListener3ttl17h7d8d8d1ac88b92fdE
chrome_crashpad_handler:_ZN3std3net3tcp11TcpListener6accept17hc3b2f64cbc2705b3E
chrome_crashpad_handler:_ZN3std3net3tcp11TcpListener7only_v617h7b4904367e0c66f7E
chrome_crashpad_handler:_ZN3std3net3tcp11TcpListener7set_ttl17he9e0311b843cda1cE
chrome_crashpad_handler:_ZN3std3net3tcp11TcpListener9try_clone17h35a2cc49db7a6b7cE
chrome_crashpad_handler:_ZN3std3net3tcp9TcpStream10local_addr17h936463d22a06bb9bE
chrome_crashpad_handler:_ZN3std3net3tcp9TcpStream10set_linger17h8344f8d4f8213d56E
chrome_crashpad_handler:_ZN3std3net3tcp9TcpStream10take_error17h33ad1389323027feE
chrome_crashpad_handler:_ZN3std3net3tcp9TcpStream11set_nodelay17h1d7a4a9c7aaaf917E
chrome_crashpad_handler:_ZN3std3net3tcp9TcpStream12read_timeout17h7adcaa01450627e1E
chrome_crashpad_handler:_ZN3std3net3tcp9TcpStream13write_timeout17h858840b0e318db54E
chrome_crashpad_handler:_ZN3std3net3tcp9TcpStream15connect_timeout17h7720d053bbf1a44dE
chrome_crashpad_handler:_ZN3std3net3tcp9TcpStream15set_nonblocking17h44ceae59c163d589E
chrome_crashpad_handler:_ZN3std3net3tcp9TcpStream16set_read_timeout17heac87f4cbd00ce49E
chrome_crashpad_handler:_ZN3std3net3tcp9TcpStream17set_write_timeout17h4fa6e1db9285f5a4E
chrome_crashpad_handler:_ZN3std3net3tcp9TcpStream3ttl17h2574ffd81ebaa4dcE
chrome_crashpad_handler:_ZN3std3net3tcp9TcpStream4peek17hfe27d1843a3c7c73E
chrome_crashpad_handler:_ZN3std3net3tcp9TcpStream6linger17h538cd624f07b9e6cE
chrome_crashpad_handler:_ZN3std3net3tcp9TcpStream7nodelay17h2ea409cc4e51cbe1E
chrome_crashpad_handler:_ZN3std3net3tcp9TcpStream7set_ttl17h8f679ca7a500ed1cE
chrome_crashpad_handler:_ZN3std3net3tcp9TcpStream8shutdown17h4a43c60a157bf58cE
chrome_crashpad_handler:_ZN3std3net3tcp9TcpStream9peer_addr17h1fd11b7b48156c7eE
chrome_crashpad_handler:_ZN3std3net3tcp9TcpStream9try_clone17h6cd2bce493e8d8f9E
chrome_crashpad_handler:_ZN3std3net3udp9UdpSocket10local_addr17h477e6e66b0d9f2ebE
chrome_crashpad_handler:_ZN3std3net3udp9UdpSocket10take_error17h1c7f329ecc128f5dE
chrome_crashpad_handler:_ZN3std3net3udp9UdpSocket12read_timeout17hb6143abd0056ff2bE
chrome_crashpad_handler:_ZN3std3net3udp9UdpSocket13set_broadcast17h1b696357655d7c94E
chrome_crashpad_handler:_ZN3std3net3udp9UdpSocket13write_timeout17h06bf1b973c19f4faE
chrome_crashpad_handler:_ZN3std3net3udp9UdpSocket15set_nonblocking17hf29ec5e9e56125adE
chrome_crashpad_handler:_ZN3std3net3udp9UdpSocket16multicast_ttl_v417hcd109200b3970159E
chrome_crashpad_handler:_ZN3std3net3udp9UdpSocket16set_read_timeout17h8eea63e0acaa3070E
chrome_crashpad_handler:_ZN3std3net3udp9UdpSocket17join_multicast_v417h84491a3bad45057bE
chrome_crashpad_handler:_ZN3std3net3udp9UdpSocket17join_multicast_v617h05c3d2d751fb2b66E
chrome_crashpad_handler:_ZN3std3net3udp9UdpSocket17multicast_loop_v417hdddb5b58880f2276E
chrome_crashpad_handler:_ZN3std3net3udp9UdpSocket17multicast_loop_v617h65397f6d0a86da11E
chrome_crashpad_handler:_ZN3std3net3udp9UdpSocket17set_write_timeout17h43b834ac190a19d4E
chrome_crashpad_handler:_ZN3std3net3udp9UdpSocket18leave_multicast_v417hd7212f259125db97E
chrome_crashpad_handler:_ZN3std3net3udp9UdpSocket18leave_multicast_v617h9452c108625a11ffE
chrome_crashpad_handler:_ZN3std3net3udp9UdpSocket20set_multicast_ttl_v417hb08c145a5c5d9752E
chrome_crashpad_handler:_ZN3std3net3udp9UdpSocket21set_multicast_loop_v417ha05c040bd77780f1E
chrome_crashpad_handler:_ZN3std3net3udp9UdpSocket21set_multicast_loop_v617h54ae23f23d67f900E
chrome_crashpad_handler:_ZN3std3net3udp9UdpSocket3ttl17h2f6c6d82e9139162E
chrome_crashpad_handler:_ZN3std3net3udp9UdpSocket4peek17h9931f8e04d56c402E
chrome_crashpad_handler:_ZN3std3net3udp9UdpSocket4recv17h1ac537d429e0c065E
chrome_crashpad_handler:_ZN3std3net3udp9UdpSocket4send17h3b2110bade77a72aE
chrome_crashpad_handler:_ZN3std3net3udp9UdpSocket7set_ttl17h73f1ec1f3b69e47fE
chrome_crashpad_handler:_ZN3std3net3udp9UdpSocket9broadcast17h63a39294c5d8a1e6E
chrome_crashpad_handler:_ZN3std3net3udp9UdpSocket9peek_from17h6800a3c924f077c1E
chrome_crashpad_handler:_ZN3std3net3udp9UdpSocket9peer_addr17hb4baf0140e3f9245E
chrome_crashpad_handler:_ZN3std3net3udp9UdpSocket9recv_from17he36776c358b839ddE
chrome_crashpad_handler:_ZN3std3net3udp9UdpSocket9try_clone17h766c3a4758120603E
chrome_crashpad_handler:_ZN3std3sys12thread_local11destructors10linux_like8register17h0c1ffee37d341a4aE
chrome_crashpad_handler:_ZN3std3sys14anonymous_pipe4unix76_$LT$impl$u20$std..os..fd..owned..AsFd$u20$for$u20$std..pipe..PipeReader$GT$5as_fd17h0bac123e4b93ddbfE
chrome_crashpad_handler:_ZN3std3sys14anonymous_pipe4unix76_$LT$impl$u20$std..os..fd..owned..AsFd$u20$for$u20$std..pipe..PipeWriter$GT$5as_fd17h073efd8d1141d07eE
chrome_crashpad_handler:_ZN3std3sys14anonymous_pipe4unix79_$LT$impl$u20$std..os..fd..raw..FromRawFd$u20$for$u20$std..pipe..PipeReader$GT$11from_raw_fd17hd02fb6ee302b5c14E
chrome_crashpad_handler:_ZN3std3sys14anonymous_pipe4unix79_$LT$impl$u20$std..os..fd..raw..FromRawFd$u20$for$u20$std..pipe..PipeWriter$GT$11from_raw_fd17h0c45bf0448636312E
chrome_crashpad_handler:_ZN3std3sys3pal4unix11kernel_copy15sendfile_splice17h5b16a2fcf041d9e9E
chrome_crashpad_handler:_ZN3std3sys3pal4unix11kernel_copy18copy_regular_files17h6a1157cc1b2aeb50E
chrome_crashpad_handler:_ZN3std3sys3pal4unix14abort_internal17he80235442c8a1793E
chrome_crashpad_handler:_ZN3std3sys3pal4unix2fd8FileDesc11read_to_end17h1fc5528c6fef63c2E
chrome_crashpad_handler:_ZN3std3sys3pal4unix2fd8FileDesc11set_cloexec17ha8e26bd73ecd7230E
chrome_crashpad_handler:_ZN3std3sys3pal4unix2fd8FileDesc13read_vectored17h06b7e814f43bfd5bE
chrome_crashpad_handler:_ZN3std3sys3pal4unix2fd8FileDesc14write_vectored17hd3baaae33b2e8999E
chrome_crashpad_handler:_ZN3std3sys3pal4unix2fd8FileDesc15set_nonblocking17h6cccf87f9d6693e5E
chrome_crashpad_handler:_ZN3std3sys3pal4unix2fd8FileDesc16read_vectored_at17h33246db5f2b1f2fbE
chrome_crashpad_handler:_ZN3std3sys3pal4unix2fd8FileDesc17write_vectored_at17hf2ec56a927286b31E
chrome_crashpad_handler:_ZN3std3sys3pal4unix2fd8FileDesc4read17h814bc9867e9f1c69E
chrome_crashpad_handler:_ZN3std3sys3pal4unix2fd8FileDesc5write17h0982d8401c014f5cE
chrome_crashpad_handler:_ZN3std3sys3pal4unix2fd8FileDesc7read_at17h5925d3b56079906fE
chrome_crashpad_handler:_ZN3std3sys3pal4unix2fd8FileDesc8read_buf17hb164b9b4df4130acE
chrome_crashpad_handler:_ZN3std3sys3pal4unix2fd8FileDesc8write_at17hf10382d14ead490cE
chrome_crashpad_handler:_ZN3std3sys3pal4unix2fs12canonicalize17ha9ef482d65c110c3E
chrome_crashpad_handler:_ZN3std3sys3pal4unix2fs15remove_dir_impl14remove_dir_all17ha9f89ea93d0ccab8E
chrome_crashpad_handler:_ZN3std3sys3pal4unix2fs4File13read_vectored17h0ac612633ec48028E
chrome_crashpad_handler:_ZN3std3sys3pal4unix2fs4File4read17h23ff8a14b11f26b1E
chrome_crashpad_handler:_ZN3std3sys3pal4unix2fs4File8read_buf17h79bc207182a74ce0E
chrome_crashpad_handler:_ZN3std3sys3pal4unix2fs4copy17h405607bca3ab1647E
chrome_crashpad_handler:_ZN3std3sys3pal4unix2fs4link17h3f59ea2601053ee1E
chrome_crashpad_handler:_ZN3std3sys3pal4unix2fs4stat17h163642db577b2b9cE
chrome_crashpad_handler:_ZN3std3sys3pal4unix2fs5chown17hdb5a0757cd47c453E
chrome_crashpad_handler:_ZN3std3sys3pal4unix2fs5lstat17h5e1b106ae8fb544dE
chrome_crashpad_handler:_ZN3std3sys3pal4unix2fs5rmdir17h064ce36a179c22d1E
chrome_crashpad_handler:_ZN3std3sys3pal4unix2fs6chroot17h9605c34088d49b78E
chrome_crashpad_handler:_ZN3std3sys3pal4unix2fs6fchown17hf0bd5fca340ee5e1E
chrome_crashpad_handler:_ZN3std3sys3pal4unix2fs6lchown17he6d20856df091514E
chrome_crashpad_handler:_ZN3std3sys3pal4unix2fs6rename17hdca267006cd821d7E
chrome_crashpad_handler:_ZN3std3sys3pal4unix2fs6unlink17hcaeb62509b72126eE
chrome_crashpad_handler:_ZN3std3sys3pal4unix2fs7readdir17h8462625a03b9e499E
chrome_crashpad_handler:_ZN3std3sys3pal4unix2fs7symlink17h92b220797c6cf48dE
chrome_crashpad_handler:_ZN3std3sys3pal4unix2fs8readlink17hcebf9bb940268ad4E
chrome_crashpad_handler:_ZN3std3sys3pal4unix2fs8set_perm17h7ac33e7f0a781155E
chrome_crashpad_handler:_ZN3std3sys3pal4unix2os11split_paths13bytes_to_path17h815ed26ab07af730E
chrome_crashpad_handler:_ZN3std3sys3pal4unix2os5chdir17h5f63542c2cd677a3E
chrome_crashpad_handler:_ZN3std3sys3pal4unix2os5errno17hfa70809b365c2db3E
chrome_crashpad_handler:_ZN3std3sys3pal4unix2os6setenv17h36e9ba05f9ad0adfE
chrome_crashpad_handler:_ZN3std3sys3pal4unix2os8unsetenv17h70fea14d025e38a7E
chrome_crashpad_handler:_ZN3std3sys3pal4unix3net6Socket7new_raw17h1cc6dd58afa136ecE
chrome_crashpad_handler:_ZN3std3sys3pal4unix4args3imp15ARGV_INIT_ARRAY12init_wrapper17h82d28bd1025d9b5cE
chrome_crashpad_handler:_ZN3std3sys3pal4unix4args3imp15ARGV_INIT_ARRAY17hfea06293b79f214dE
chrome_crashpad_handler:_ZN3std3sys3pal4unix4pipe9anon_pipe17h2eeb0aac7e3d42d7E
chrome_crashpad_handler:_ZN3std3sys3pal4unix4rand19hashmap_random_keys17h5a686e7937edc8dfE
chrome_crashpad_handler:_ZN3std3sys3pal4unix5futex10futex_wake17h441fe8702aab5010E
chrome_crashpad_handler:_ZN3std3sys3pal4unix6thread6Thread3new17h004b2899f7b59432E
chrome_crashpad_handler:_ZN3std3sys3pal4unix6thread6Thread4join17h3dc4f4b41569b7cbE
chrome_crashpad_handler:_ZN3std3sys3pal4unix6thread6Thread8set_name17h124c9d685b641979E
chrome_crashpad_handler:_ZN3std3sys3pal4unix7process13process_inner15linux_child_ext83_$LT$impl$u20$std..os..linux..process..ChildExt$u20$for$u20$std..process..Child$GT$10into_pidfd17hc28453011bfec817E
chrome_crashpad_handler:_ZN3std3sys3pal4unix7process13process_inner15linux_child_ext83_$LT$impl$u20$std..os..linux..process..ChildExt$u20$for$u20$std..process..Child$GT$5pidfd17hb90a5f40ac347eaaE
chrome_crashpad_handler:_ZN3std3sys3pal4unix7process14process_common7Command3arg17h27bdca8cf7b33850E
chrome_crashpad_handler:_ZN3std3sys3pal4unix7process14process_common7Command3cwd17h5da896dea3d3f66aE
chrome_crashpad_handler:_ZN3std3sys3pal4unix7process14process_common7Command3new17hc4f8ae4dcedd381dE
chrome_crashpad_handler:_ZN3std3sys3pal4unix7process14process_common7Command5stdin17hd1804cdbb5bcec24E
chrome_crashpad_handler:_ZN3std3sys3pal4unix7process14process_common7Command6stderr17h47e081200342ff77E
chrome_crashpad_handler:_ZN3std3sys3pal4unix7process14process_common7Command6stdout17h285eb42bad21cf2fE
chrome_crashpad_handler:_ZN3std3sys3pal4unix7process14process_common7Command8pre_exec17hc0750eb782550474E
chrome_crashpad_handler:_ZN3std3sys3pal4unix7process14process_common7Command9set_arg_017haf6ccf3b0a139805E
chrome_crashpad_handler:_ZN3std3sys4path4unix8absolute17hacb14e4b7be5575fE
chrome_crashpad_handler:_ZN3std3sys4sync4once5futex4Once4call17hbea2e6464de92428E
chrome_crashpad_handler:_ZN3std3sys4sync5mutex5futex5Mutex14lock_contended17h9ac70678de70d996E
chrome_crashpad_handler:_ZN3std3sys4sync5mutex5futex5Mutex4wake17h2340c0d8b0816d7aE
chrome_crashpad_handler:_ZN3std3sys4sync6rwlock5futex6RwLock14read_contended17hd4f2a3dc8361a627E
chrome_crashpad_handler:_ZN3std3sys4sync6rwlock5futex6RwLock15write_contended17hbfe4a1c8596d1c6aE
chrome_crashpad_handler:_ZN3std3sys4sync6rwlock5futex6RwLock22wake_writer_or_readers17hb731f13488686c8eE
chrome_crashpad_handler:_ZN3std3sys4sync7condvar5futex7Condvar12wait_timeout17h6194b6beec32479bE
chrome_crashpad_handler:_ZN3std3sys4sync7condvar5futex7Condvar4wait17h96512d0404e465e1E
chrome_crashpad_handler:_ZN3std3sys5alloc16realloc_fallback17h2fbdac7a8041f03fE
chrome_crashpad_handler:_ZN3std3sys6os_str5bytes3Buf10push_slice17h3b5b08f75961b179E
chrome_crashpad_handler:_ZN3std3sys6os_str5bytes3Buf11into_string17h74f780a2b8a23413E
chrome_crashpad_handler:_ZN3std3sys6os_str5bytes5Slice10clone_into17hab831e7f978e5b57E
chrome_crashpad_handler:_ZN3std3sys6os_str5bytes5Slice15to_string_lossy17ha6871478c558ac47E
chrome_crashpad_handler:_ZN3std3sys6os_str5bytes5Slice21check_public_boundary9slow_path17haef3944f16f98e2cE
chrome_crashpad_handler:_ZN3std3sys6os_str5bytes5Slice6to_str17h6a5f14cab56a3b3aE
chrome_crashpad_handler:_ZN3std3sys6os_str5bytes5Slice8to_owned17h0f4f2b5507324c05E
chrome_crashpad_handler:_ZN3std3sys6os_str5bytes5Slice9empty_box17h8433cb3eb7311018E
chrome_crashpad_handler:_ZN3std3sys9backtrace4lock17h607401381725b3b6E
chrome_crashpad_handler:_ZN3std4hash6random11RandomState3new4KEYS29_$u7b$$u7b$constant$u7d$$u7d$28_$u7b$$u7b$closure$u7d$$u7d$3VAL17h4242d8c948175c2fE
chrome_crashpad_handler:_ZN3std4path10Components7as_path17haf4cd9bf3cb38a69E
chrome_crashpad_handler:_ZN3std4path117_$LT$impl$u20$core..convert..From$LT$$RF$std..path..Path$GT$$u20$for$u20$alloc..boxed..Box$LT$std..path..Path$GT$$GT$4from17h60d5ebf1e2a421eeE
chrome_crashpad_handler:_ZN3std4path18compare_components17h80de4949578b5862E
chrome_crashpad_handler:_ZN3std4path4Path10_ends_with17h39778b1b0c5e287eE
chrome_crashpad_handler:_ZN3std4path4Path10components17he65d4646130e7b90E
chrome_crashpad_handler:_ZN3std4path4Path10is_symlink17hf83a33c8d11b8a4dE
chrome_crashpad_handler:_ZN3std4path4Path11file_prefix17h347ca060349f4383E
chrome_crashpad_handler:_ZN3std4path4Path11is_absolute17hbdff196e3f59169cE
chrome_crashpad_handler:_ZN3std4path4Path11to_path_buf17hcf64546e17226c65E
chrome_crashpad_handler:_ZN3std4path4Path12_starts_with17h4844439e07246fecE
chrome_crashpad_handler:_ZN3std4path4Path13_strip_prefix17hb2f5848a087029bcE
chrome_crashpad_handler:_ZN3std4path4Path13into_path_buf17h7d3535e486d86665E
chrome_crashpad_handler:_ZN3std4path4Path15_with_extension17h87f9385ff49657d9E
chrome_crashpad_handler:_ZN3std4path4Path15_with_file_name17hebd5171ead8a1a14E
chrome_crashpad_handler:_ZN3std4path4Path5_join17h6033582aed3bb86aE
chrome_crashpad_handler:_ZN3std4path4Path6is_dir17h3baf19203392abedE
chrome_crashpad_handler:_ZN3std4path4Path6parent17heeeff376854f7b6aE
chrome_crashpad_handler:_ZN3std4path4Path7is_file17h2f9665cbc813d546E
chrome_crashpad_handler:_ZN3std4path4Path9extension17hbda0f72d44049280E
chrome_crashpad_handler:_ZN3std4path4Path9file_name17h3617af3f9b3ad505E
chrome_crashpad_handler:_ZN3std4path4Path9file_stem17h61f80194f8d01312E
chrome_crashpad_handler:_ZN3std4path7PathBuf14_add_extension17haa5e61ca99ca60a8E
chrome_crashpad_handler:_ZN3std4path7PathBuf14_set_extension17hed4c4bb0644cc5d3E
chrome_crashpad_handler:_ZN3std4path7PathBuf14_set_file_name17h8b32b69a5d78e6efE
chrome_crashpad_handler:_ZN3std4path7PathBuf3pop17h2b6bbd87970c8b32E
chrome_crashpad_handler:_ZN3std4path7PathBuf5_push17h599a35c58b25e5e1E
chrome_crashpad_handler:_ZN3std4pipe10PipeReader9try_clone17hc82d8cad34888c3dE
chrome_crashpad_handler:_ZN3std4pipe10PipeWriter9try_clone17h33eb5b3bcfbf0a4fE
chrome_crashpad_handler:_ZN3std4sync4mpmc5waker17current_thread_id5DUMMY29_$u7b$$u7b$constant$u7d$$u7d$28_$u7b$$u7b$closure$u7d$$u7d$3VAL17h6163a708b86a882dE
chrome_crashpad_handler:_ZN3std4sync4mpmc7context7Context3new17ha56a871d8cfcfa4aE
chrome_crashpad_handler:_ZN3std4sync4mpmc7context7Context4with7CONTEXT29_$u7b$$u7b$constant$u7d$$u7d$28_$u7b$$u7b$closure$u7d$$u7d$3VAL17he08e97e43ecba8d0E
chrome_crashpad_handler:_ZN3std4sync4once4Once10wait_force17h27ac828c88fee2a9E
chrome_crashpad_handler:_ZN3std4sync4once4Once4wait17h17b0eb17beede7b2E
chrome_crashpad_handler:_ZN3std4sync7barrier7Barrier4wait17hd73760034272ca89E
chrome_crashpad_handler:_ZN3std4sync7condvar7Condvar10notify_all17h0c35107b9ad2b3d4E
chrome_crashpad_handler:_ZN3std4sync7condvar7Condvar10notify_one17hddad4c2bca6d7834E
chrome_crashpad_handler:_ZN3std4time10SystemTime11checked_add17hc1ca643706599904E
chrome_crashpad_handler:_ZN3std4time10SystemTime11checked_sub17h85d7c310a6a53ea5E
chrome_crashpad_handler:_ZN3std4time10SystemTime14duration_since17h0f4f0ad924a5bb4fE
chrome_crashpad_handler:_ZN3std4time10SystemTime3now17h38364c6c574db1caE
chrome_crashpad_handler:_ZN3std4time10SystemTime7elapsed17h2e15749eaf1f96daE
chrome_crashpad_handler:_ZN3std4time7Instant11checked_add17ha6575932884a7992E
chrome_crashpad_handler:_ZN3std4time7Instant11checked_sub17h181feb761d014cbdE
chrome_crashpad_handler:_ZN3std4time7Instant14duration_since17h533219f63c7fe879E
chrome_crashpad_handler:_ZN3std4time7Instant22checked_duration_since17h7192a8220b4dfd59E
chrome_crashpad_handler:_ZN3std4time7Instant25saturating_duration_since17ha12239647f9178bbE
chrome_crashpad_handler:_ZN3std4time7Instant3now17h0a3411160aebf700E
chrome_crashpad_handler:_ZN3std4time7Instant7elapsed17h44454a017c2cddaaE
chrome_crashpad_handler:_ZN3std5alloc20set_alloc_error_hook17ha99d87ba7c8a0b0dE
chrome_crashpad_handler:_ZN3std5alloc21take_alloc_error_hook17ha16f40c193c75304E
chrome_crashpad_handler:_ZN3std5alloc8rust_oom17h50702cb48eae1ed0E
chrome_crashpad_handler:_ZN3std5panic13resume_unwind17he6134dc747b23ac2E
chrome_crashpad_handler:_ZN3std5panic19get_backtrace_style17hb0ca17cde1ccdae6E
chrome_crashpad_handler:_ZN3std5panic19set_backtrace_style17h9163de0c2cd0f2a8E
chrome_crashpad_handler:_ZN3std6thread10CURRENT_ID29_$u7b$$u7b$constant$u7d$$u7d$28_$u7b$$u7b$closure$u7d$$u7d$3VAL17hdaa594945494d2dfE
chrome_crashpad_handler:_ZN3std6thread11set_current17hc9779cdbd8315ec3E
chrome_crashpad_handler:_ZN3std6thread11sleep_until17hbaf24e105a114c99E
chrome_crashpad_handler:_ZN3std6thread12park_timeout17hccd697ff73b3dea9E
chrome_crashpad_handler:_ZN3std6thread15park_timeout_ms17h1541d871a401abf8E
chrome_crashpad_handler:_ZN3std6thread21available_parallelism17ha6593438f20d3013E
chrome_crashpad_handler:_ZN3std6thread4park17h074d9721f2e9da38E
chrome_crashpad_handler:_ZN3std6thread5sleep17h4748d82338dc88f8E
chrome_crashpad_handler:_ZN3std6thread6Thread11new_unnamed17h56f8381fa09062d8E
chrome_crashpad_handler:_ZN3std6thread6Thread3new17h9547f993037c99daE
chrome_crashpad_handler:_ZN3std6thread6Thread4name17hd8b2b118c77fe61fE
chrome_crashpad_handler:_ZN3std6thread6scoped9ScopeData29decrement_num_running_threads17h6d76ff54b8eea811E
chrome_crashpad_handler:_ZN3std6thread6scoped9ScopeData29increment_num_running_threads17h9d88348b1599ce40E
chrome_crashpad_handler:_ZN3std6thread7Builder16spawn_unchecked_28_$u7b$$u7b$closure$u7d$$u7d$3MIN17h08d61e7f386bd48eE
chrome_crashpad_handler:_ZN3std6thread7Builder4name17h21c7dfa33561bcc2E
chrome_crashpad_handler:_ZN3std6thread7current17h685a2ffd7e885515E
chrome_crashpad_handler:_ZN3std6thread8sleep_ms17h5e94ffeaee2fa885E
chrome_crashpad_handler:_ZN3std6thread9yield_now17h7e60ea06ce620b7cE
chrome_crashpad_handler:_ZN3std7process10ExitStatus7exit_ok17h65bdae34c719bdffE
chrome_crashpad_handler:_ZN3std7process15ExitStatusError12code_nonzero17h4e136b413fb6934aE
chrome_crashpad_handler:_ZN3std7process15ExitStatusError4code17hf870adb40113fb36E
chrome_crashpad_handler:_ZN3std7process2id17h0897a77ca0f68bf3E
chrome_crashpad_handler:_ZN3std7process4exit17h0de32b3b35c3ee36E
chrome_crashpad_handler:_ZN3std7process5Child16wait_with_output17h9b0a9d36f0282a82E
chrome_crashpad_handler:_ZN3std7process5Child4kill17h26a8f5ea1a18fb1bE
chrome_crashpad_handler:_ZN3std7process5Child4wait17he10f87b35c19cd60E
chrome_crashpad_handler:_ZN3std7process5Child8try_wait17hd3fcb5ceeb5f74c8E
chrome_crashpad_handler:_ZN3std7process5abort17h309a19cc53e61d66E
chrome_crashpad_handler:_ZN3std7process7Command11get_program17h771c5af6efbbdd5bE
chrome_crashpad_handler:_ZN3std7process7Command15get_current_dir17h00f66c1b5c5c1935E
chrome_crashpad_handler:_ZN3std7process7Command5spawn17ha5965ccedd251e04E
chrome_crashpad_handler:_ZN3std7process7Command6output17ha7cfa5bb7f2de242E
chrome_crashpad_handler:_ZN3std7process7Command6status17h3684b2f4546d4456E
chrome_crashpad_handler:_ZN3std7process7Command8get_args17h49f7da2f4c4d07a2E
chrome_crashpad_handler:_ZN3std7process7Command9env_clear17h556cef787b63b121E
chrome_crashpad_handler:_ZN3std7process8ExitCode12exit_process17hccf5635245c4d373E
chrome_crashpad_handler:_ZN3std9backtrace9Backtrace13force_capture17h0a22d31f44834831E
chrome_crashpad_handler:_ZN3std9backtrace9Backtrace6frames17h55304d2be4ddacebE
chrome_crashpad_handler:_ZN3std9backtrace9Backtrace7capture17hd0007bc240722072E
chrome_crashpad_handler:_ZN3std9panicking12default_hook17h1c96a708355fbd3bE
chrome_crashpad_handler:_ZN3std9panicking14payload_as_str17h260a4584cbef53f4E
chrome_crashpad_handler:_ZN3std9panicking20rust_panic_with_hook17hb9b74c8effcc62a3E
chrome_crashpad_handler:_ZN3std9panicking4HOOK17h9af40767d4e94a66E
chrome_crashpad_handler:_ZN3std9panicking8set_hook17h65a45e421740329bE
chrome_crashpad_handler:_ZN3std9panicking9take_hook17hb9e8f529115c68a4E
chrome_crashpad_handler:_ZN40_$LT$str$u20$as$u20$core..fmt..Debug$GT$3fmt17hb881679d033141aeE
chrome_crashpad_handler:_ZN41_$LT$char$u20$as$u20$core..fmt..Debug$GT$3fmt17hf308553661475cacE
chrome_crashpad_handler:_ZN42_$LT$str$u20$as$u20$core..fmt..Display$GT$3fmt17hc0f80ed4601acbeeE
chrome_crashpad_handler:_ZN43_$LT$bool$u20$as$u20$core..fmt..Display$GT$3fmt17hb528ea71ba6bc1edE
chrome_crashpad_handler:_ZN43_$LT$char$u20$as$u20$core..fmt..Display$GT$3fmt17hbe5bf4cc88a3674cE
chrome_crashpad_handler:_ZN47_$LT$$RF$str$u20$as$u20$serde..de..Expected$GT$3fmt17hc204e1bee3ac4c62E
chrome_crashpad_handler:_ZN47_$LT$std..fs..File$u20$as$u20$std..io..Read$GT$11read_to_end17h3039f3c2d3245b7dE
chrome_crashpad_handler:_ZN47_$LT$std..fs..File$u20$as$u20$std..io..Read$GT$13read_vectored17h0d6a2b3baa764270E
chrome_crashpad_handler:_ZN47_$LT$std..fs..File$u20$as$u20$std..io..Read$GT$14read_to_string17h51a0abd98cfe6791E
chrome_crashpad_handler:_ZN47_$LT$std..fs..File$u20$as$u20$std..io..Read$GT$4read17h7db16cbcae96939eE
chrome_crashpad_handler:_ZN47_$LT$std..fs..File$u20$as$u20$std..io..Read$GT$8read_buf17h33ea555eaf8d3671E
chrome_crashpad_handler:_ZN47_$LT$std..fs..File$u20$as$u20$std..io..Seek$GT$4seek17hf144ea8ebc9f7500E
chrome_crashpad_handler:_ZN48_$LT$std..fs..File$u20$as$u20$std..io..Write$GT$14write_vectored17hb41f2737c1c452b2E
chrome_crashpad_handler:_ZN48_$LT$std..fs..File$u20$as$u20$std..io..Write$GT$5write17h52f50f47d950c209E
chrome_crashpad_handler:_ZN49_$LT$u8$u20$as$u20$core..num..bignum..FullOps$GT$12full_div_rem17hcaa072e277a8c0d4E
chrome_crashpad_handler:_ZN49_$LT$u8$u20$as$u20$core..num..bignum..FullOps$GT$12full_mul_add17h448c625ef7ab5d43E
chrome_crashpad_handler:_ZN4core3ffi5c_str4CStr19from_bytes_with_nul17hb6cc157a554ef16bE
chrome_crashpad_handler:_ZN4core3ffi5c_str4CStr20from_bytes_until_nul17hf6c229857e629d9eE
chrome_crashpad_handler:_ZN4core3ffi5c_str4CStr29from_bytes_with_nul_unchecked10const_impl17hab9eda269592dc8fE
chrome_crashpad_handler:_ZN4core3ffi5c_str4CStr6to_str17h646308ea24712b02E
chrome_crashpad_handler:_ZN4core3ffi5c_str6strlen9strlen_ct17h3db602ee7d796105E
chrome_crashpad_handler:_ZN4core3fmt17pointer_fmt_inner17h604a21609cda5449E
chrome_crashpad_handler:_ZN4core3fmt3num3imp51_$LT$impl$u20$core..fmt..Display$u20$for$u20$i8$GT$3fmt17h62c068789b44e29eE
chrome_crashpad_handler:_ZN4core3fmt3num3imp51_$LT$impl$u20$core..fmt..Display$u20$for$u20$u8$GT$3fmt17hff342a7d51709fb1E
chrome_crashpad_handler:_ZN4core3fmt3num3imp52_$LT$impl$u20$core..fmt..Display$u20$for$u20$i16$GT$3fmt17hee3f2952eae1a0fbE
chrome_crashpad_handler:_ZN4core3fmt3num3imp52_$LT$impl$u20$core..fmt..Display$u20$for$u20$i32$GT$3fmt17h88e00c5b0f6d4e35E
chrome_crashpad_handler:_ZN4core3fmt3num3imp52_$LT$impl$u20$core..fmt..Display$u20$for$u20$i64$GT$3fmt17hdf1e6425979c7248E
chrome_crashpad_handler:_ZN4core3fmt3num3imp52_$LT$impl$u20$core..fmt..Display$u20$for$u20$u16$GT$3fmt17h04c3f61a125d4dc5E
chrome_crashpad_handler:_ZN4core3fmt3num3imp52_$LT$impl$u20$core..fmt..Display$u20$for$u20$u32$GT$3fmt17hc3241b8f61003876E
chrome_crashpad_handler:_ZN4core3fmt3num3imp52_$LT$impl$u20$core..fmt..Display$u20$for$u20$u64$GT$3fmt17he8e06a85d5bd798dE
chrome_crashpad_handler:_ZN4core3fmt3num3imp52_$LT$impl$u20$core..fmt..LowerExp$u20$for$u20$i8$GT$3fmt17hdab13bea9f9319ddE
chrome_crashpad_handler:_ZN4core3fmt3num3imp52_$LT$impl$u20$core..fmt..LowerExp$u20$for$u20$u8$GT$3fmt17hc057b929d138f69eE
chrome_crashpad_handler:_ZN4core3fmt3num3imp52_$LT$impl$u20$core..fmt..UpperExp$u20$for$u20$i8$GT$3fmt17h034bae14930a21e1E
chrome_crashpad_handler:_ZN4core3fmt3num3imp52_$LT$impl$u20$core..fmt..UpperExp$u20$for$u20$u8$GT$3fmt17h6885a1fda7986b3eE
chrome_crashpad_handler:_ZN4core3fmt3num3imp53_$LT$impl$u20$core..fmt..LowerExp$u20$for$u20$i16$GT$3fmt17ha1dbb5df84571559E
chrome_crashpad_handler:_ZN4core3fmt3num3imp53_$LT$impl$u20$core..fmt..LowerExp$u20$for$u20$i32$GT$3fmt17h16124fac3e2881b7E
chrome_crashpad_handler:_ZN4core3fmt3num3imp53_$LT$impl$u20$core..fmt..LowerExp$u20$for$u20$i64$GT$3fmt17h1096de2a4a758e9eE
chrome_crashpad_handler:_ZN4core3fmt3num3imp53_$LT$impl$u20$core..fmt..LowerExp$u20$for$u20$u16$GT$3fmt17h7153e636f7f36057E
chrome_crashpad_handler:_ZN4core3fmt3num3imp53_$LT$impl$u20$core..fmt..LowerExp$u20$for$u20$u32$GT$3fmt17h59fce93b49c31c4eE
chrome_crashpad_handler:_ZN4core3fmt3num3imp53_$LT$impl$u20$core..fmt..LowerExp$u20$for$u20$u64$GT$3fmt17h20dfac060987782eE
chrome_crashpad_handler:_ZN4core3fmt3num3imp53_$LT$impl$u20$core..fmt..UpperExp$u20$for$u20$i16$GT$3fmt17h44abd5a36ee394a4E
chrome_crashpad_handler:_ZN4core3fmt3num3imp53_$LT$impl$u20$core..fmt..UpperExp$u20$for$u20$i32$GT$3fmt17h68580c1218e8e78dE
chrome_crashpad_handler:_ZN4core3fmt3num3imp53_$LT$impl$u20$core..fmt..UpperExp$u20$for$u20$i64$GT$3fmt17hfa14c3c0fe6b7025E
chrome_crashpad_handler:_ZN4core3fmt3num3imp53_$LT$impl$u20$core..fmt..UpperExp$u20$for$u20$u16$GT$3fmt17h30d9547cea767bbdE
chrome_crashpad_handler:_ZN4core3fmt3num3imp53_$LT$impl$u20$core..fmt..UpperExp$u20$for$u20$u32$GT$3fmt17h720244768b3a1cdcE
chrome_crashpad_handler:_ZN4core3fmt3num3imp53_$LT$impl$u20$core..fmt..UpperExp$u20$for$u20$u64$GT$3fmt17h1e00786f4256f842E
chrome_crashpad_handler:_ZN4core3fmt3num3imp54_$LT$impl$u20$core..fmt..Display$u20$for$u20$isize$GT$3fmt17ha91aaac8ddd24b08E
chrome_crashpad_handler:_ZN4core3fmt3num3imp54_$LT$impl$u20$core..fmt..Display$u20$for$u20$usize$GT$3fmt17h6b434e7a27cdedbdE
chrome_crashpad_handler:_ZN4core3fmt3num3imp55_$LT$impl$u20$core..fmt..LowerExp$u20$for$u20$isize$GT$3fmt17hea5ae4758d6b99abE
chrome_crashpad_handler:_ZN4core3fmt3num3imp55_$LT$impl$u20$core..fmt..LowerExp$u20$for$u20$usize$GT$3fmt17h737e4d707a4b7220E
chrome_crashpad_handler:_ZN4core3fmt3num3imp55_$LT$impl$u20$core..fmt..UpperExp$u20$for$u20$isize$GT$3fmt17h293c8d14ae2f8683E
chrome_crashpad_handler:_ZN4core3fmt3num3imp55_$LT$impl$u20$core..fmt..UpperExp$u20$for$u20$usize$GT$3fmt17h9b652f57e8ea4254E
chrome_crashpad_handler:_ZN4core3fmt3num49_$LT$impl$u20$core..fmt..Octal$u20$for$u20$i8$GT$3fmt17h2dfe3856b1c95fefE
chrome_crashpad_handler:_ZN4core3fmt3num49_$LT$impl$u20$core..fmt..Octal$u20$for$u20$u8$GT$3fmt17ha9bbd8ac9ac7c412E
chrome_crashpad_handler:_ZN4core3fmt3num50_$LT$impl$u20$core..fmt..Binary$u20$for$u20$i8$GT$3fmt17haa81a1b4a479f7f5E
chrome_crashpad_handler:_ZN4core3fmt3num50_$LT$impl$u20$core..fmt..Binary$u20$for$u20$u8$GT$3fmt17h5c8a9ff881490aafE
chrome_crashpad_handler:_ZN4core3fmt3num50_$LT$impl$u20$core..fmt..Octal$u20$for$u20$i16$GT$3fmt17h6a73d9820912ea1eE
chrome_crashpad_handler:_ZN4core3fmt3num50_$LT$impl$u20$core..fmt..Octal$u20$for$u20$i32$GT$3fmt17h4a4d58c613c585a1E
chrome_crashpad_handler:_ZN4core3fmt3num50_$LT$impl$u20$core..fmt..Octal$u20$for$u20$i64$GT$3fmt17h17e14eda56430d49E
chrome_crashpad_handler:_ZN4core3fmt3num50_$LT$impl$u20$core..fmt..Octal$u20$for$u20$u16$GT$3fmt17h8b1f9c990afc7837E
chrome_crashpad_handler:_ZN4core3fmt3num50_$LT$impl$u20$core..fmt..Octal$u20$for$u20$u32$GT$3fmt17h597e825ee585bae7E
chrome_crashpad_handler:_ZN4core3fmt3num50_$LT$impl$u20$core..fmt..Octal$u20$for$u20$u64$GT$3fmt17h8b3f4b01d5b136b8E
chrome_crashpad_handler:_ZN4core3fmt3num51_$LT$impl$u20$core..fmt..Binary$u20$for$u20$i16$GT$3fmt17h853ca5465dde5e50E
chrome_crashpad_handler:_ZN4core3fmt3num51_$LT$impl$u20$core..fmt..Binary$u20$for$u20$i32$GT$3fmt17he57e92fce9e6e329E
chrome_crashpad_handler:_ZN4core3fmt3num51_$LT$impl$u20$core..fmt..Binary$u20$for$u20$i64$GT$3fmt17h4ebe0a16f5560d6dE
chrome_crashpad_handler:_ZN4core3fmt3num51_$LT$impl$u20$core..fmt..Binary$u20$for$u20$u16$GT$3fmt17hf00b63fcd98feea0E
chrome_crashpad_handler:_ZN4core3fmt3num51_$LT$impl$u20$core..fmt..Binary$u20$for$u20$u32$GT$3fmt17hc221f0cbe18f75dbE
chrome_crashpad_handler:_ZN4core3fmt3num51_$LT$impl$u20$core..fmt..Binary$u20$for$u20$u64$GT$3fmt17hbfe62f730699f900E
chrome_crashpad_handler:_ZN4core3fmt3num51_$LT$impl$u20$core..fmt..Octal$u20$for$u20$i128$GT$3fmt17h1c70808fe802de87E
chrome_crashpad_handler:_ZN4core3fmt3num51_$LT$impl$u20$core..fmt..Octal$u20$for$u20$u128$GT$3fmt17h624a88d1ccf6a6e6E
chrome_crashpad_handler:_ZN4core3fmt3num52_$LT$impl$u20$core..fmt..Binary$u20$for$u20$i128$GT$3fmt17he9d5ef1b4d8a73baE
chrome_crashpad_handler:_ZN4core3fmt3num52_$LT$impl$u20$core..fmt..Binary$u20$for$u20$u128$GT$3fmt17h99630d12cce9ca68E
chrome_crashpad_handler:_ZN4core3fmt3num52_$LT$impl$u20$core..fmt..LowerHex$u20$for$u20$i8$GT$3fmt17hcf891c9de4ae6da2E
chrome_crashpad_handler:_ZN4core3fmt3num52_$LT$impl$u20$core..fmt..LowerHex$u20$for$u20$u8$GT$3fmt17h63a6f85d7994aceeE
chrome_crashpad_handler:_ZN4core3fmt3num52_$LT$impl$u20$core..fmt..Octal$u20$for$u20$isize$GT$3fmt17h7505df2ea99d10b5E
chrome_crashpad_handler:_ZN4core3fmt3num52_$LT$impl$u20$core..fmt..Octal$u20$for$u20$usize$GT$3fmt17h364b5cf3dd8a71c1E
chrome_crashpad_handler:_ZN4core3fmt3num52_$LT$impl$u20$core..fmt..UpperHex$u20$for$u20$i8$GT$3fmt17h751a23dd78a87449E
chrome_crashpad_handler:_ZN4core3fmt3num52_$LT$impl$u20$core..fmt..UpperHex$u20$for$u20$u8$GT$3fmt17h6bc3a9b377a1e564E
chrome_crashpad_handler:_ZN4core3fmt3num53_$LT$impl$u20$core..fmt..Binary$u20$for$u20$isize$GT$3fmt17hfa6328b8b55097a4E
chrome_crashpad_handler:_ZN4core3fmt3num53_$LT$impl$u20$core..fmt..Binary$u20$for$u20$usize$GT$3fmt17hbfdc9ea24e903cefE
chrome_crashpad_handler:_ZN4core3fmt3num53_$LT$impl$u20$core..fmt..Display$u20$for$u20$i128$GT$3fmt17h9d1d9c8befb631eeE
chrome_crashpad_handler:_ZN4core3fmt3num53_$LT$impl$u20$core..fmt..Display$u20$for$u20$u128$GT$3fmt17hacbba36b580a3ce7E
chrome_crashpad_handler:_ZN4core3fmt3num53_$LT$impl$u20$core..fmt..LowerHex$u20$for$u20$i16$GT$3fmt17hb418ae9f0638357bE
chrome_crashpad_handler:_ZN4core3fmt3num53_$LT$impl$u20$core..fmt..LowerHex$u20$for$u20$i32$GT$3fmt17h6efb96b66a3fc170E
chrome_crashpad_handler:_ZN4core3fmt3num53_$LT$impl$u20$core..fmt..LowerHex$u20$for$u20$i64$GT$3fmt17hd9c3b10e3081c238E
chrome_crashpad_handler:_ZN4core3fmt3num53_$LT$impl$u20$core..fmt..LowerHex$u20$for$u20$u16$GT$3fmt17ha4d8d64afbd1c2feE
chrome_crashpad_handler:_ZN4core3fmt3num53_$LT$impl$u20$core..fmt..LowerHex$u20$for$u20$u32$GT$3fmt17h67376f2238804df9E
chrome_crashpad_handler:_ZN4core3fmt3num53_$LT$impl$u20$core..fmt..LowerHex$u20$for$u20$u64$GT$3fmt17hcb807d5ee3195bbbE
chrome_crashpad_handler:_ZN4core3fmt3num53_$LT$impl$u20$core..fmt..UpperHex$u20$for$u20$i16$GT$3fmt17hf3fdc9038f592ddeE
chrome_crashpad_handler:_ZN4core3fmt3num53_$LT$impl$u20$core..fmt..UpperHex$u20$for$u20$i32$GT$3fmt17ha5efa16d1032ff56E
chrome_crashpad_handler:_ZN4core3fmt3num53_$LT$impl$u20$core..fmt..UpperHex$u20$for$u20$i64$GT$3fmt17h4e16e3e63365e0beE
chrome_crashpad_handler:_ZN4core3fmt3num53_$LT$impl$u20$core..fmt..UpperHex$u20$for$u20$u16$GT$3fmt17h2929c33a2590ba03E
chrome_crashpad_handler:_ZN4core3fmt3num53_$LT$impl$u20$core..fmt..UpperHex$u20$for$u20$u32$GT$3fmt17haa45a75c35d52c30E
chrome_crashpad_handler:_ZN4core3fmt3num53_$LT$impl$u20$core..fmt..UpperHex$u20$for$u20$u64$GT$3fmt17hfe180d76bbc4e336E
chrome_crashpad_handler:_ZN4core3fmt3num54_$LT$impl$u20$core..fmt..LowerExp$u20$for$u20$i128$GT$3fmt17h6ab5d746c194c9c5E
chrome_crashpad_handler:_ZN4core3fmt3num54_$LT$impl$u20$core..fmt..LowerExp$u20$for$u20$u128$GT$3fmt17hd2baf0e362414452E
chrome_crashpad_handler:_ZN4core3fmt3num54_$LT$impl$u20$core..fmt..LowerHex$u20$for$u20$i128$GT$3fmt17hf936334e20bf98d9E
chrome_crashpad_handler:_ZN4core3fmt3num54_$LT$impl$u20$core..fmt..LowerHex$u20$for$u20$u128$GT$3fmt17h7c18252b59afb55dE
chrome_crashpad_handler:_ZN4core3fmt3num54_$LT$impl$u20$core..fmt..UpperExp$u20$for$u20$i128$GT$3fmt17h8247002107646708E
chrome_crashpad_handler:_ZN4core3fmt3num54_$LT$impl$u20$core..fmt..UpperExp$u20$for$u20$u128$GT$3fmt17hd857a12186ce7a6dE
chrome_crashpad_handler:_ZN4core3fmt3num54_$LT$impl$u20$core..fmt..UpperHex$u20$for$u20$i128$GT$3fmt17h800e1bd4a7b02933E
chrome_crashpad_handler:_ZN4core3fmt3num54_$LT$impl$u20$core..fmt..UpperHex$u20$for$u20$u128$GT$3fmt17h827b1894502ecde4E
chrome_crashpad_handler:_ZN4core3fmt3num55_$LT$impl$u20$core..fmt..LowerHex$u20$for$u20$isize$GT$3fmt17h476521613d7eea6dE
chrome_crashpad_handler:_ZN4core3fmt3num55_$LT$impl$u20$core..fmt..LowerHex$u20$for$u20$usize$GT$3fmt17h761ceaf305736a91E
chrome_crashpad_handler:_ZN4core3fmt3num55_$LT$impl$u20$core..fmt..UpperHex$u20$for$u20$isize$GT$3fmt17ha64b3212c52a0739E
chrome_crashpad_handler:_ZN4core3fmt3num55_$LT$impl$u20$core..fmt..UpperHex$u20$for$u20$usize$GT$3fmt17hc78fb462263fc200E
chrome_crashpad_handler:_ZN4core3fmt5float50_$LT$impl$u20$core..fmt..Debug$u20$for$u20$f32$GT$3fmt17hfc8bd6cb352b2651E
chrome_crashpad_handler:_ZN4core3fmt5float50_$LT$impl$u20$core..fmt..Debug$u20$for$u20$f64$GT$3fmt17hcea40c922b5b21b6E
chrome_crashpad_handler:_ZN4core3fmt5float52_$LT$impl$u20$core..fmt..Display$u20$for$u20$f32$GT$3fmt17h2f532eba968d8707E
chrome_crashpad_handler:_ZN4core3fmt5float52_$LT$impl$u20$core..fmt..Display$u20$for$u20$f64$GT$3fmt17hc1ad1d2de11d963bE
chrome_crashpad_handler:_ZN4core3fmt5float53_$LT$impl$u20$core..fmt..LowerExp$u20$for$u20$f32$GT$3fmt17h622f849e5c233818E
chrome_crashpad_handler:_ZN4core3fmt5float53_$LT$impl$u20$core..fmt..LowerExp$u20$for$u20$f64$GT$3fmt17hd2824acc99502307E
chrome_crashpad_handler:_ZN4core3fmt5float53_$LT$impl$u20$core..fmt..UpperExp$u20$for$u20$f32$GT$3fmt17h97d6fd07ff1b41c1E
chrome_crashpad_handler:_ZN4core3fmt5float53_$LT$impl$u20$core..fmt..UpperExp$u20$for$u20$f64$GT$3fmt17h0cc787ae2ea409c9E
chrome_crashpad_handler:_ZN4core3fmt5write17h244a7918b1bcddf5E
chrome_crashpad_handler:_ZN4core3fmt8builders10DebugTuple21finish_non_exhaustive17h168c4e2b99b315f0E
chrome_crashpad_handler:_ZN4core3fmt8builders10DebugTuple5field17hc7128ea8a0f9e374E
chrome_crashpad_handler:_ZN4core3fmt8builders10DebugTuple6finish17h0b4df3e3b4fd7938E
chrome_crashpad_handler:_ZN4core3fmt8builders10PadAdapter4wrap17he9a25702baaa1ff9E
chrome_crashpad_handler:_ZN4core3fmt8builders11DebugStruct21finish_non_exhaustive17h844196b40de829bfE
chrome_crashpad_handler:_ZN4core3fmt8builders11DebugStruct5field17he3245fa3cdd34fe6E
chrome_crashpad_handler:_ZN4core3fmt8builders11DebugStruct6finish17ha9d007d438afa9f5E
chrome_crashpad_handler:_ZN4core3fmt8builders8DebugMap21finish_non_exhaustive17hf7cad662e5439940E
chrome_crashpad_handler:_ZN4core3fmt8builders8DebugMap3key17hbeb6cb6f97acb556E
chrome_crashpad_handler:_ZN4core3fmt8builders8DebugMap5entry17ha540e94119362125E
chrome_crashpad_handler:_ZN4core3fmt8builders8DebugMap5value17h89a7ac08facc8b10E
chrome_crashpad_handler:_ZN4core3fmt8builders8DebugMap6finish17h01da2f5b2bce6f75E
chrome_crashpad_handler:_ZN4core3fmt8builders8DebugSet21finish_non_exhaustive17h949c2068016a14b8E
chrome_crashpad_handler:_ZN4core3fmt8builders8DebugSet5entry17hd2a4cf3961d2a806E
chrome_crashpad_handler:_ZN4core3fmt8builders8DebugSet6finish17h63a77bf2e9dfb9c8E
chrome_crashpad_handler:_ZN4core3fmt8builders9DebugList21finish_non_exhaustive17h9e4af7c80153d1dfE
chrome_crashpad_handler:_ZN4core3fmt8builders9DebugList5entry17h1bf76efdb9975509E
chrome_crashpad_handler:_ZN4core3fmt8builders9DebugList6finish17hedaa44e214c2d7eaE
chrome_crashpad_handler:_ZN4core3fmt9Formatter10debug_list17h577e2b7929c0621bE
chrome_crashpad_handler:_ZN4core3fmt9Formatter11debug_tuple17h695ce08b71390b9bE
chrome_crashpad_handler:_ZN4core3fmt9Formatter12debug_struct17he2f82dbe2d00dd5eE
chrome_crashpad_handler:_ZN4core3fmt9Formatter12pad_integral17hf5ca63689744b68eE
chrome_crashpad_handler:_ZN4core3fmt9Formatter25debug_tuple_field1_finish17h045fe4b92f085dc9E
chrome_crashpad_handler:_ZN4core3fmt9Formatter25debug_tuple_field2_finish17hbf6ef1e483e9b8c9E
chrome_crashpad_handler:_ZN4core3fmt9Formatter25debug_tuple_field3_finish17h403b7d6adbdd3780E
chrome_crashpad_handler:_ZN4core3fmt9Formatter25debug_tuple_field4_finish17h622e9171b90901f3E
chrome_crashpad_handler:_ZN4core3fmt9Formatter25debug_tuple_field5_finish17h61698b5ce0e868ebE
chrome_crashpad_handler:_ZN4core3fmt9Formatter25debug_tuple_fields_finish17h22adf9604bedefd6E
chrome_crashpad_handler:_ZN4core3fmt9Formatter26debug_struct_field1_finish17h78c980221e19345dE
chrome_crashpad_handler:_ZN4core3fmt9Formatter26debug_struct_field2_finish17h2ddb444a1d297763E
chrome_crashpad_handler:_ZN4core3fmt9Formatter26debug_struct_field3_finish17h28d75d500147cb5aE
chrome_crashpad_handler:_ZN4core3fmt9Formatter26debug_struct_field4_finish17h339eb9bbc163c59aE
chrome_crashpad_handler:_ZN4core3fmt9Formatter26debug_struct_field5_finish17hfe5213a09f9070b1E
chrome_crashpad_handler:_ZN4core3fmt9Formatter26debug_struct_fields_finish17hcd217d40f8266eb5E
chrome_crashpad_handler:_ZN4core3fmt9Formatter3pad17h52a0843d9cd4ad70E
chrome_crashpad_handler:_ZN4core3fmt9Formatter9debug_map17h1c392421c9053eeaE
chrome_crashpad_handler:_ZN4core3fmt9Formatter9debug_set17hba1d5897c6fbe4c6E
chrome_crashpad_handler:_ZN4core3fmt9Formatter9write_str17hfe6908c7eb09e4a5E
chrome_crashpad_handler:_ZN4core3net6parser44_$LT$impl$u20$core..net..ip_addr..IpAddr$GT$11parse_ascii17h545aa9555b90ab4cE
chrome_crashpad_handler:_ZN4core3net6parser46_$LT$impl$u20$core..net..ip_addr..Ipv4Addr$GT$11parse_ascii17hc59b1eabe29fc5b1E
chrome_crashpad_handler:_ZN4core3net6parser46_$LT$impl$u20$core..net..ip_addr..Ipv6Addr$GT$11parse_ascii17h3f2be7a30f5310e1E
chrome_crashpad_handler:_ZN4core3net6parser52_$LT$impl$u20$core..net..socket_addr..SocketAddr$GT$11parse_ascii17h1d1e18e7670c6ecfE
chrome_crashpad_handler:_ZN4core3net6parser54_$LT$impl$u20$core..net..socket_addr..SocketAddrV4$GT$11parse_ascii17h8740197dd6b10f58E
chrome_crashpad_handler:_ZN4core3net6parser54_$LT$impl$u20$core..net..socket_addr..SocketAddrV6$GT$11parse_ascii17h66d34a9e77cca785E
chrome_crashpad_handler:_ZN4core3net6parser83_$LT$impl$u20$core..str..traits..FromStr$u20$for$u20$core..net..ip_addr..IpAddr$GT$8from_str17hef78a9df71c4dec3E
chrome_crashpad_handler:_ZN4core3net6parser85_$LT$impl$u20$core..str..traits..FromStr$u20$for$u20$core..net..ip_addr..Ipv4Addr$GT$8from_str17h6f3fe185d3d6f9cdE
chrome_crashpad_handler:_ZN4core3net6parser85_$LT$impl$u20$core..str..traits..FromStr$u20$for$u20$core..net..ip_addr..Ipv6Addr$GT$8from_str17h7e20bf2c292f9f7eE
chrome_crashpad_handler:_ZN4core3net6parser91_$LT$impl$u20$core..str..traits..FromStr$u20$for$u20$core..net..socket_addr..SocketAddr$GT$8from_str17h84fde370c63e5e1eE
chrome_crashpad_handler:_ZN4core3net6parser93_$LT$impl$u20$core..str..traits..FromStr$u20$for$u20$core..net..socket_addr..SocketAddrV4$GT$8from_str17hfb880560f6046eabE
chrome_crashpad_handler:_ZN4core3net6parser93_$LT$impl$u20$core..str..traits..FromStr$u20$for$u20$core..net..socket_addr..SocketAddrV6$GT$8from_str17h955754badec140fdE
chrome_crashpad_handler:_ZN4core3num14overflow_panic3add17h7644f0b5f8a4ef4bE
chrome_crashpad_handler:_ZN4core3num14overflow_panic3div17h11e32a0396e1908aE
chrome_crashpad_handler:_ZN4core3num14overflow_panic3mul17h73e6a62ca2755f30E
chrome_crashpad_handler:_ZN4core3num14overflow_panic3neg17ha7c2fecedf6f38c2E
chrome_crashpad_handler:_ZN4core3num14overflow_panic3rem17h9f7fe6b0d9785c71E
chrome_crashpad_handler:_ZN4core3num14overflow_panic3shl17h2152135646c9d9a5E
chrome_crashpad_handler:_ZN4core3num14overflow_panic3shr17hdb84405e840a92d5E
chrome_crashpad_handler:_ZN4core3num14overflow_panic3sub17hca2d7606081a569dE
chrome_crashpad_handler:_ZN4core3num20_$LT$impl$u20$i8$GT$14from_str_radix17h4b41525226da5831E
chrome_crashpad_handler:_ZN4core3num20_$LT$impl$u20$u8$GT$14from_str_radix17hef567f94967c52faE
chrome_crashpad_handler:_ZN4core3num21_$LT$impl$u20$i16$GT$14from_str_radix17hfc367e0d89c432e2E
chrome_crashpad_handler:_ZN4core3num21_$LT$impl$u20$i32$GT$14from_str_radix17hb996349f5d412475E
chrome_crashpad_handler:_ZN4core3num21_$LT$impl$u20$i64$GT$14from_str_radix17h32cb1bd74d108811E
chrome_crashpad_handler:_ZN4core3num21_$LT$impl$u20$u16$GT$14from_str_radix17he57949869d24ff31E
chrome_crashpad_handler:_ZN4core3num21_$LT$impl$u20$u32$GT$14from_str_radix17ha6bdcdd15ba1ec5cE
chrome_crashpad_handler:_ZN4core3num21_$LT$impl$u20$u64$GT$14from_str_radix17h2bb37248ce0b7cd3E
chrome_crashpad_handler:_ZN4core3num22_$LT$impl$u20$i128$GT$14from_str_radix17h5da6e11d6d6ce062E
chrome_crashpad_handler:_ZN4core3num22_$LT$impl$u20$u128$GT$14from_str_radix17hb0ee94c8d86071f6E
chrome_crashpad_handler:_ZN4core3num23_$LT$impl$u20$isize$GT$14from_str_radix17h95a981cb1c2e2e9aE
chrome_crashpad_handler:_ZN4core3num23_$LT$impl$u20$usize$GT$14from_str_radix17hc7be90b7e85b1282E
chrome_crashpad_handler:_ZN4core3num23from_str_radix_panic_ct17h7f6487478ff82b99E
chrome_crashpad_handler:_ZN4core3num23from_str_radix_panic_rt17h16d63e5fe61d432aE
chrome_crashpad_handler:_ZN4core3num3fmt4Part5write17h6964a456d00d62f9E
chrome_crashpad_handler:_ZN4core3num3fmt9Formatted3len17h015ef453e8a362b8E
chrome_crashpad_handler:_ZN4core3num3fmt9Formatted5write17h5df4c3238ed1936aE
chrome_crashpad_handler:_ZN4core3num59_$LT$impl$u20$core..str..traits..FromStr$u20$for$u20$i8$GT$8from_str17hb59af90fb0991caaE
chrome_crashpad_handler:_ZN4core3num59_$LT$impl$u20$core..str..traits..FromStr$u20$for$u20$u8$GT$8from_str17h845a1368cd8543bfE
chrome_crashpad_handler:_ZN4core3num60_$LT$impl$u20$core..str..traits..FromStr$u20$for$u20$i16$GT$8from_str17hcf61ba49f6377382E
chrome_crashpad_handler:_ZN4core3num60_$LT$impl$u20$core..str..traits..FromStr$u20$for$u20$i32$GT$8from_str17h67f4e3f671255bb7E
chrome_crashpad_handler:_ZN4core3num60_$LT$impl$u20$core..str..traits..FromStr$u20$for$u20$i64$GT$8from_str17haebdbdb2fccbb1edE
chrome_crashpad_handler:_ZN4core3num60_$LT$impl$u20$core..str..traits..FromStr$u20$for$u20$u16$GT$8from_str17haac6941a7acf0f61E
chrome_crashpad_handler:_ZN4core3num60_$LT$impl$u20$core..str..traits..FromStr$u20$for$u20$u32$GT$8from_str17h2b4f103bb1c2a075E
chrome_crashpad_handler:_ZN4core3num60_$LT$impl$u20$core..str..traits..FromStr$u20$for$u20$u64$GT$8from_str17hd69a563f32f0ac83E
chrome_crashpad_handler:_ZN4core3num61_$LT$impl$u20$core..str..traits..FromStr$u20$for$u20$i128$GT$8from_str17h5185c9cfa290bf79E
chrome_crashpad_handler:_ZN4core3num61_$LT$impl$u20$core..str..traits..FromStr$u20$for$u20$u128$GT$8from_str17h194b4115b32b6659E
chrome_crashpad_handler:_ZN4core3num62_$LT$impl$u20$core..str..traits..FromStr$u20$for$u20$isize$GT$8from_str17hc6fb2f0fc6400811E
chrome_crashpad_handler:_ZN4core3num62_$LT$impl$u20$core..str..traits..FromStr$u20$for$u20$usize$GT$8from_str17h05277efb8c8ba8c2E
chrome_crashpad_handler:_ZN4core3num6bignum5tests6Big8x310bit_length17h474dc6c99d2ffaacE
chrome_crashpad_handler:_ZN4core3num6bignum5tests6Big8x310mul_digits17hef4e81b9bb6cfde5E
chrome_crashpad_handler:_ZN4core3num6bignum5tests6Big8x313div_rem_small17hb3f3e6879b0921baE
chrome_crashpad_handler:_ZN4core3num6bignum5tests6Big8x33add17h07701d3eba06aa00E
chrome_crashpad_handler:_ZN4core3num6bignum5tests6Big8x33sub17ha761836dec5d375fE
chrome_crashpad_handler:_ZN4core3num6bignum5tests6Big8x36digits17hf7798eccdd5014caE
chrome_crashpad_handler:_ZN4core3num6bignum5tests6Big8x37div_rem17h7c2b309db4b792f6E
chrome_crashpad_handler:_ZN4core3num6bignum5tests6Big8x37get_bit17h0f41682b5b84a9e4E
chrome_crashpad_handler:_ZN4core3num6bignum5tests6Big8x37is_zero17h57bebb55af961125E
chrome_crashpad_handler:_ZN4core3num6bignum5tests6Big8x38from_u6417h4b45e7cd6aafb8c1E
chrome_crashpad_handler:_ZN4core3num6bignum5tests6Big8x38mul_pow217h2705be3c312222faE
chrome_crashpad_handler:_ZN4core3num6bignum5tests6Big8x38mul_pow517h2a632750a750f6c0E
chrome_crashpad_handler:_ZN4core3num6bignum5tests6Big8x39add_small17hd1b7fc92dc43ee24E
chrome_crashpad_handler:_ZN4core3num6bignum5tests6Big8x39mul_small17h5019f768fccc710bE
chrome_crashpad_handler:_ZN4core3num6bignum8Big32x4010bit_length17haba8cab142ae89caE
chrome_crashpad_handler:_ZN4core3num6bignum8Big32x4010mul_digits17h36413c25a321b569E
chrome_crashpad_handler:_ZN4core3num6bignum8Big32x4013div_rem_small17h6e25dfa7bf8e550dE
chrome_crashpad_handler:_ZN4core3num6bignum8Big32x403add17h30cc4286a7a610bfE
chrome_crashpad_handler:_ZN4core3num6bignum8Big32x403sub17h3108299bb10b1935E
chrome_crashpad_handler:_ZN4core3num6bignum8Big32x406digits17h3680feafd36c170bE
chrome_crashpad_handler:_ZN4core3num6bignum8Big32x407div_rem17h3a2b5ed030611158E
chrome_crashpad_handler:_ZN4core3num6bignum8Big32x407get_bit17h295d4ef2a8eb1c2aE
chrome_crashpad_handler:_ZN4core3num6bignum8Big32x407is_zero17hd844b165965868bcE
chrome_crashpad_handler:_ZN4core3num6bignum8Big32x408from_u6417hc81a42440867a84fE
chrome_crashpad_handler:_ZN4core3num6bignum8Big32x408mul_pow217hed39622c08c9f7f4E
chrome_crashpad_handler:_ZN4core3num6bignum8Big32x408mul_pow517h726f12d0a26c2bffE
chrome_crashpad_handler:_ZN4core3num6bignum8Big32x409add_small17h679c1a81fa47055dE
chrome_crashpad_handler:_ZN4core3num6bignum8Big32x409mul_small17h9254e7b100ce60fcE
chrome_crashpad_handler:_ZN4core3num7dec2flt5parse12parse_number17h2346c7e3f55e3e76E
chrome_crashpad_handler:_ZN4core3num7dec2flt60_$LT$impl$u20$core..str..traits..FromStr$u20$for$u20$f32$GT$8from_str17h9271e8512a3cf038E
chrome_crashpad_handler:_ZN4core3num7dec2flt60_$LT$impl$u20$core..str..traits..FromStr$u20$for$u20$f64$GT$8from_str17hc5bab41b8baf546cE
chrome_crashpad_handler:_ZN4core3num7dec2flt6lemire22compute_product_approx17h2aadaec3be86bddcE
chrome_crashpad_handler:_ZN4core3num7dec2flt7decimal13parse_decimal17h5c163e31ed659c83E
chrome_crashpad_handler:_ZN4core3num7dec2flt7decimal7Decimal10left_shift17h46e482381275c56eE
chrome_crashpad_handler:_ZN4core3num7dec2flt7decimal7Decimal11right_shift17h021ca92089c9c022E
chrome_crashpad_handler:_ZN4core3num7dec2flt7decimal7Decimal5round17h6f5cfe61d7d00d4aE
chrome_crashpad_handler:_ZN4core3num7flt2dec17digits_to_dec_str17hcf6791797b2efee8E
chrome_crashpad_handler:_ZN4core3num7flt2dec17digits_to_exp_str17h4331aa0387dac657E
chrome_crashpad_handler:_ZN4core3num7flt2dec20estimate_max_buf_len17h3edc2f8ecd19e1a2E
chrome_crashpad_handler:_ZN4core3num7flt2dec8round_up17h3f6205d18dde7349E
chrome_crashpad_handler:_ZN4core3num7flt2dec8strategy5grisu12CACHED_POW1017h59b47ea130fe5745E
chrome_crashpad_handler:_ZN4core3num7flt2dec8strategy5grisu12cached_power17hd1cf3ffc1d3dbcc6E
chrome_crashpad_handler:_ZN4core3num7flt2dec8strategy5grisu12format_exact17h491a4ddcfe6352c4E
chrome_crashpad_handler:_ZN4core3num7flt2dec8strategy5grisu15format_shortest17h1801ad0d65c107d3E
chrome_crashpad_handler:_ZN4core3num7flt2dec8strategy5grisu16format_exact_opt17hcaced98c90e34537E
chrome_crashpad_handler:_ZN4core3num7flt2dec8strategy5grisu19format_shortest_opt17h02b2fa4a2a847a58E
chrome_crashpad_handler:_ZN4core3num7flt2dec8strategy6dragon12format_exact17heb5b9d6b01adb364E
chrome_crashpad_handler:_ZN4core3num7flt2dec8strategy6dragon15format_shortest17h9d6748bc0cd0eeb6E
chrome_crashpad_handler:_ZN4core3num7flt2dec8strategy6dragon9mul_pow1017h7077d8bf167fee9dE
chrome_crashpad_handler:_ZN4core3num7flt2dec9estimator23estimate_scaling_factor17h8e311783c541c6cfE
chrome_crashpad_handler:_ZN4core3num8int_sqrt27panic_for_negative_argument17hac2c97c7178bc501E
chrome_crashpad_handler:_ZN4core3num9diy_float2Fp12normalize_to17hef6568d0f8e8a557E
chrome_crashpad_handler:_ZN4core3num9diy_float2Fp3mul17h2a7241734cdf6142E
chrome_crashpad_handler:_ZN4core3num9diy_float2Fp9normalize17h0538e095a15f9a81E
chrome_crashpad_handler:_ZN4core3num9int_log1030panic_for_nonpositive_argument17h718a4e836ecccb56E
chrome_crashpad_handler:_ZN4core3str16slice_error_fail17h1cab30ac4b13c655E
chrome_crashpad_handler:_ZN4core3str19slice_error_fail_ct17ha078fa45915afed7E
chrome_crashpad_handler:_ZN4core3str21_$LT$impl$u20$str$GT$12escape_debug17h75f4e1b3d4965f1dE
chrome_crashpad_handler:_ZN4core3str21_$LT$impl$u20$str$GT$12substr_range17h2685cc52c5e018e0E
chrome_crashpad_handler:_ZN4core3str21_$LT$impl$u20$str$GT$22split_at_mut_unchecked17h6f428e38362cbddbE
chrome_crashpad_handler:_ZN4core3str5count14do_count_chars17ha907769384f68f3bE
chrome_crashpad_handler:_ZN4core3str5count23char_count_general_case17h7cc33fd9bd5a3a80E
chrome_crashpad_handler:_ZN4core3str6traits23str_index_overflow_fail17h1dd6cbb98a9e2a4eE
chrome_crashpad_handler:_ZN4core3str7pattern11StrSearcher3new17h454762a19d234458E
chrome_crashpad_handler:_ZN4core3str8converts13from_utf8_mut17h2485ca98bfae265dE
chrome_crashpad_handler:_ZN4core3str8converts9from_utf817hb27e94918e4f2da8E
chrome_crashpad_handler:_ZN4core4cell22panic_already_borrowed17h019b1171ac78ea37E
chrome_crashpad_handler:_ZN4core4cell30panic_already_mutably_borrowed17hcc55d7962c3be7cfE
chrome_crashpad_handler:_ZN4core5alloc6layout6Layout19is_size_align_valid17hc963c97e1d0377c0E
chrome_crashpad_handler:_ZN4core5ascii14escape_default17h98b48f41e84f368cE
chrome_crashpad_handler:_ZN4core5slice29_$LT$impl$u20$$u5b$T$u5d$$GT$16align_to_offsets3gcd17he7390e21e3d03351E
chrome_crashpad_handler:_ZN4core5slice4sort6stable5drift11sqrt_approx17hc14d4560c4446273E
chrome_crashpad_handler:_ZN4core5slice5index10into_range17h14a8f5bb23bdceb5E
chrome_crashpad_handler:_ZN4core5slice5index16into_slice_range17hd4509b6af2a37dd1E
chrome_crashpad_handler:_ZN4core5slice5index20into_range_unchecked17h1608a16c2cab0deaE
chrome_crashpad_handler:_ZN4core5slice6memchr14memchr_aligned17h1c979aa1f4458c4fE
chrome_crashpad_handler:_ZN4core5slice6memchr7memrchr17h25cd26b56370c523E
chrome_crashpad_handler:_ZN4core7unicode12unicode_data10alphabetic6lookup17h559eb468301580bcE
chrome_crashpad_handler:_ZN4core7unicode12unicode_data11conversions8to_lower17h8392c8cfaec2522aE
chrome_crashpad_handler:_ZN4core7unicode12unicode_data11conversions8to_upper17h7edd276a2ab0e782E
chrome_crashpad_handler:_ZN4core7unicode12unicode_data11white_space14WHITESPACE_MAP17h9665ad2713de15beE
chrome_crashpad_handler:_ZN4core7unicode12unicode_data14case_ignorable6lookup17hf94690255cb5f562E
chrome_crashpad_handler:_ZN4core7unicode12unicode_data15grapheme_extend11lookup_slow17h03b68f7ed9d3a2a9E
chrome_crashpad_handler:_ZN4core7unicode12unicode_data1n6lookup17hc2afbbae3b0e2249E
chrome_crashpad_handler:_ZN4core7unicode12unicode_data2cc6lookup17h40a2700b6f5bfc09E
chrome_crashpad_handler:_ZN4core7unicode12unicode_data5cased6lookup17ha6d552021fbbfdffE
chrome_crashpad_handler:_ZN4core7unicode12unicode_data9lowercase6lookup17h196be49632af13dbE
chrome_crashpad_handler:_ZN4core7unicode12unicode_data9uppercase6lookup17hf2eb040efb0d2721E
chrome_crashpad_handler:_ZN4core7unicode9printable12is_printable17h7107ace3a9890f72E
chrome_crashpad_handler:_ZN4core9core_arch3x864avx219_mm256_bslli_epi1284mask17h3f4d12eaf6751337E
chrome_crashpad_handler:_ZN4core9core_arch3x864sse219_mm_slli_si128_impl4mask17h1ab5ff6ae6f1125bE
chrome_crashpad_handler:_ZN4core9core_arch3x864sse219_mm_srli_si128_impl4mask17haab94e7503249211E
chrome_crashpad_handler:_ZN4core9core_arch3x865ssse315_mm_alignr_epi84mask17h0838432a528f7517E
chrome_crashpad_handler:_ZN4core9core_arch3x868avx512bw19_mm512_bslli_epi1284mask17h5ae3f67c2cfd67feE
chrome_crashpad_handler:_ZN4core9panicking15const_panic_fmt17he849b9f2bd91b7a6E
chrome_crashpad_handler:_ZN50_$LT$std..fs..File$u20$as$u20$core..fmt..Debug$GT$3fmt17h370feb7e76d47e4eE
chrome_crashpad_handler:_ZN50_$LT$u16$u20$as$u20$core..num..bignum..FullOps$GT$12full_div_rem17hf3f1b80cfdec9f8cE
chrome_crashpad_handler:_ZN50_$LT$u16$u20$as$u20$core..num..bignum..FullOps$GT$12full_mul_add17h85a73884e64fe208E
chrome_crashpad_handler:_ZN50_$LT$u32$u20$as$u20$core..num..bignum..FullOps$GT$12full_div_rem17h7a1af727b1f9df23E
chrome_crashpad_handler:_ZN50_$LT$u32$u20$as$u20$core..num..bignum..FullOps$GT$12full_mul_add17h13a44412a78f3daeE
chrome_crashpad_handler:_ZN51_$LT$$RF$std..fs..File$u20$as$u20$std..io..Read$GT$11read_to_end17h7d4b3aff7fbb5b96E
chrome_crashpad_handler:_ZN51_$LT$$RF$std..fs..File$u20$as$u20$std..io..Read$GT$14read_to_string17h038499e6c5903fa6E
chrome_crashpad_handler:_ZN51_$LT$$RF$std..fs..File$u20$as$u20$std..io..Seek$GT$4seek17h607758b895906825E
chrome_crashpad_handler:_ZN51_$LT$i8$u20$as$u20$cxx..weak_ptr..WeakPtrTarget$GT$10__typename17h12aefc936928326fE
chrome_crashpad_handler:_ZN51_$LT$i8$u20$as$u20$cxx..weak_ptr..WeakPtrTarget$GT$11__downgrade17he988077dfca947e3E
chrome_crashpad_handler:_ZN51_$LT$i8$u20$as$u20$cxx..weak_ptr..WeakPtrTarget$GT$6__drop17ha834147351416848E
chrome_crashpad_handler:_ZN51_$LT$i8$u20$as$u20$cxx..weak_ptr..WeakPtrTarget$GT$6__null17h50fa39cb740f890aE
chrome_crashpad_handler:_ZN51_$LT$i8$u20$as$u20$cxx..weak_ptr..WeakPtrTarget$GT$7__clone17hef28cf164e5f93d3E
chrome_crashpad_handler:_ZN51_$LT$i8$u20$as$u20$cxx..weak_ptr..WeakPtrTarget$GT$9__upgrade17he75c24997ed4b898E
chrome_crashpad_handler:_ZN51_$LT$std..env..Args$u20$as$u20$core..fmt..Debug$GT$3fmt17hb30c3b3acd5d40a5E
chrome_crashpad_handler:_ZN51_$LT$std..env..Vars$u20$as$u20$core..fmt..Debug$GT$3fmt17hc57985483fc46a7dE
chrome_crashpad_handler:_ZN51_$LT$u8$u20$as$u20$cxx..weak_ptr..WeakPtrTarget$GT$10__typename17he2e108c652ac6f73E
chrome_crashpad_handler:_ZN51_$LT$u8$u20$as$u20$cxx..weak_ptr..WeakPtrTarget$GT$11__downgrade17h5b130166afcf12deE
chrome_crashpad_handler:_ZN51_$LT$u8$u20$as$u20$cxx..weak_ptr..WeakPtrTarget$GT$6__drop17h9e0998f88344995cE
chrome_crashpad_handler:_ZN51_$LT$u8$u20$as$u20$cxx..weak_ptr..WeakPtrTarget$GT$6__null17h479390ca65bd2e49E
chrome_crashpad_handler:_ZN51_$LT$u8$u20$as$u20$cxx..weak_ptr..WeakPtrTarget$GT$7__clone17h3cffd95b5e57e063E
chrome_crashpad_handler:_ZN51_$LT$u8$u20$as$u20$cxx..weak_ptr..WeakPtrTarget$GT$9__upgrade17h80b8f174ce59678bE
chrome_crashpad_handler:_ZN52_$LT$$RF$std..fs..File$u20$as$u20$std..io..Write$GT$14write_vectored17h1fc86935f501ac0fE
chrome_crashpad_handler:_ZN52_$LT$$RF$std..fs..File$u20$as$u20$std..io..Write$GT$5write17ha02d968340bb9a23E
chrome_crashpad_handler:_ZN52_$LT$f32$u20$as$u20$cxx..weak_ptr..WeakPtrTarget$GT$10__typename17h7598793a98e57296E
chrome_crashpad_handler:_ZN52_$LT$f32$u20$as$u20$cxx..weak_ptr..WeakPtrTarget$GT$11__downgrade17h2d660cfecf36c644E
chrome_crashpad_handler:_ZN52_$LT$f32$u20$as$u20$cxx..weak_ptr..WeakPtrTarget$GT$6__drop17h12892ed3654bfeb4E
chrome_crashpad_handler:_ZN52_$LT$f32$u20$as$u20$cxx..weak_ptr..WeakPtrTarget$GT$6__null17h46dd75f108c02f8cE
chrome_crashpad_handler:_ZN52_$LT$f32$u20$as$u20$cxx..weak_ptr..WeakPtrTarget$GT$7__clone17h50184770bec7b29bE
chrome_crashpad_handler:_ZN52_$LT$f32$u20$as$u20$cxx..weak_ptr..WeakPtrTarget$GT$9__upgrade17h5a8d478c8a1bd321E
chrome_crashpad_handler:_ZN52_$LT$f64$u20$as$u20$cxx..weak_ptr..WeakPtrTarget$GT$10__typename17h08c99e8318bd15e9E
chrome_crashpad_handler:_ZN52_$LT$f64$u20$as$u20$cxx..weak_ptr..WeakPtrTarget$GT$11__downgrade17h61572e3152b11c1eE
chrome_crashpad_handler:_ZN52_$LT$f64$u20$as$u20$cxx..weak_ptr..WeakPtrTarget$GT$6__drop17hd3de00ec3eac90f8E
chrome_crashpad_handler:_ZN52_$LT$f64$u20$as$u20$cxx..weak_ptr..WeakPtrTarget$GT$6__null17h8c1a651e9e8c6e84E
chrome_crashpad_handler:_ZN52_$LT$f64$u20$as$u20$cxx..weak_ptr..WeakPtrTarget$GT$7__clone17h4d3836ad4dddfe4aE
chrome_crashpad_handler:_ZN52_$LT$f64$u20$as$u20$cxx..weak_ptr..WeakPtrTarget$GT$9__upgrade17h239723cded48c764E
chrome_crashpad_handler:_ZN52_$LT$i16$u20$as$u20$cxx..weak_ptr..WeakPtrTarget$GT$10__typename17h620f26ddacb7f8d3E
chrome_crashpad_handler:_ZN52_$LT$i16$u20$as$u20$cxx..weak_ptr..WeakPtrTarget$GT$11__downgrade17h2232ce0b2194e5dcE
chrome_crashpad_handler:_ZN52_$LT$i16$u20$as$u20$cxx..weak_ptr..WeakPtrTarget$GT$6__drop17he6cb9b4aef626c7bE
chrome_crashpad_handler:_ZN52_$LT$i16$u20$as$u20$cxx..weak_ptr..WeakPtrTarget$GT$6__null17hf5c79df95c5f302bE
chrome_crashpad_handler:_ZN52_$LT$i16$u20$as$u20$cxx..weak_ptr..WeakPtrTarget$GT$7__clone17haa34000abc826accE
chrome_crashpad_handler:_ZN52_$LT$i16$u20$as$u20$cxx..weak_ptr..WeakPtrTarget$GT$9__upgrade17h034c3d00fa79ee1eE
chrome_crashpad_handler:_ZN52_$LT$i32$u20$as$u20$cxx..weak_ptr..WeakPtrTarget$GT$10__typename17h2815cb76472b26cbE
chrome_crashpad_handler:_ZN52_$LT$i32$u20$as$u20$cxx..weak_ptr..WeakPtrTarget$GT$11__downgrade17h5b15ee83dc3e9b53E
chrome_crashpad_handler:_ZN52_$LT$i32$u20$as$u20$cxx..weak_ptr..WeakPtrTarget$GT$6__drop17h97e05508a6b3fdfaE
chrome_crashpad_handler:_ZN52_$LT$i32$u20$as$u20$cxx..weak_ptr..WeakPtrTarget$GT$6__null17hfc06123d2d13e92eE
chrome_crashpad_handler:_ZN52_$LT$i32$u20$as$u20$cxx..weak_ptr..WeakPtrTarget$GT$7__clone17h2bb20ed393ae1edfE
chrome_crashpad_handler:_ZN52_$LT$i32$u20$as$u20$cxx..weak_ptr..WeakPtrTarget$GT$9__upgrade17hee88801cdfc274e1E
chrome_crashpad_handler:_ZN52_$LT$i64$u20$as$u20$cxx..weak_ptr..WeakPtrTarget$GT$10__typename17h9f673c6328125db3E
chrome_crashpad_handler:_ZN52_$LT$i64$u20$as$u20$cxx..weak_ptr..WeakPtrTarget$GT$11__downgrade17h5dff79f6013f0b17E
chrome_crashpad_handler:_ZN52_$LT$i64$u20$as$u20$cxx..weak_ptr..WeakPtrTarget$GT$6__drop17h9b500d59900e6ed3E
chrome_crashpad_handler:_ZN52_$LT$i64$u20$as$u20$cxx..weak_ptr..WeakPtrTarget$GT$6__null17h15fae5c1b203a464E
chrome_crashpad_handler:_ZN52_$LT$i64$u20$as$u20$cxx..weak_ptr..WeakPtrTarget$GT$7__clone17hc39a3a32e668cd49E
chrome_crashpad_handler:_ZN52_$LT$i64$u20$as$u20$cxx..weak_ptr..WeakPtrTarget$GT$9__upgrade17h0019608e89fe0dd6E
chrome_crashpad_handler:_ZN52_$LT$std..path..Iter$u20$as$u20$core..fmt..Debug$GT$3fmt17h9635463e778c528eE
chrome_crashpad_handler:_ZN52_$LT$std..path..Path$u20$as$u20$core..fmt..Debug$GT$3fmt17h35c5dba14a001120E
chrome_crashpad_handler:_ZN52_$LT$u16$u20$as$u20$cxx..weak_ptr..WeakPtrTarget$GT$10__typename17hfe10e13a869d2901E
chrome_crashpad_handler:_ZN52_$LT$u16$u20$as$u20$cxx..weak_ptr..WeakPtrTarget$GT$11__downgrade17he4deafb76003d16aE
chrome_crashpad_handler:_ZN52_$LT$u16$u20$as$u20$cxx..weak_ptr..WeakPtrTarget$GT$6__drop17h677a7145167feaf5E
chrome_crashpad_handler:_ZN52_$LT$u16$u20$as$u20$cxx..weak_ptr..WeakPtrTarget$GT$6__null17h84575565ac5a5be0E
chrome_crashpad_handler:_ZN52_$LT$u16$u20$as$u20$cxx..weak_ptr..WeakPtrTarget$GT$7__clone17h819c32d92fe95ae4E
chrome_crashpad_handler:_ZN52_$LT$u16$u20$as$u20$cxx..weak_ptr..WeakPtrTarget$GT$9__upgrade17ha8b945ba98dca7e8E
chrome_crashpad_handler:_ZN52_$LT$u32$u20$as$u20$cxx..weak_ptr..WeakPtrTarget$GT$10__typename17h3a32987ddfb93628E
chrome_crashpad_handler:_ZN52_$LT$u32$u20$as$u20$cxx..weak_ptr..WeakPtrTarget$GT$11__downgrade17h40aad5d1c1112c9fE
chrome_crashpad_handler:_ZN52_$LT$u32$u20$as$u20$cxx..weak_ptr..WeakPtrTarget$GT$6__drop17h549e51f749d0ab94E
chrome_crashpad_handler:_ZN52_$LT$u32$u20$as$u20$cxx..weak_ptr..WeakPtrTarget$GT$6__null17h5df2834ef5930265E
chrome_crashpad_handler:_ZN52_$LT$u32$u20$as$u20$cxx..weak_ptr..WeakPtrTarget$GT$7__clone17hdd012d3b9a6208c4E
chrome_crashpad_handler:_ZN52_$LT$u32$u20$as$u20$cxx..weak_ptr..WeakPtrTarget$GT$9__upgrade17h6536281a0cf8abe7E
chrome_crashpad_handler:_ZN52_$LT$u64$u20$as$u20$cxx..weak_ptr..WeakPtrTarget$GT$10__typename17hb6cefff12cbee858E
chrome_crashpad_handler:_ZN52_$LT$u64$u20$as$u20$cxx..weak_ptr..WeakPtrTarget$GT$11__downgrade17h6d52f7b58e537061E
chrome_crashpad_handler:_ZN52_$LT$u64$u20$as$u20$cxx..weak_ptr..WeakPtrTarget$GT$6__drop17h52cb495fe52eb373E
chrome_crashpad_handler:_ZN52_$LT$u64$u20$as$u20$cxx..weak_ptr..WeakPtrTarget$GT$6__null17hcc1f8b1e417f507eE
chrome_crashpad_handler:_ZN52_$LT$u64$u20$as$u20$cxx..weak_ptr..WeakPtrTarget$GT$7__clone17h85e0731a5d5827d2E
chrome_crashpad_handler:_ZN52_$LT$u64$u20$as$u20$cxx..weak_ptr..WeakPtrTarget$GT$9__upgrade17heebbd12c090b543cE
chrome_crashpad_handler:_ZN53_$LT$adler..Adler32$u20$as$u20$core..hash..Hasher$GT$5write17h31da76b36902be92E
chrome_crashpad_handler:_ZN53_$LT$bool$u20$as$u20$cxx..weak_ptr..WeakPtrTarget$GT$10__typename17he9922710cbe41b45E
chrome_crashpad_handler:_ZN53_$LT$bool$u20$as$u20$cxx..weak_ptr..WeakPtrTarget$GT$11__downgrade17ha94f9179877487faE
chrome_crashpad_handler:_ZN53_$LT$bool$u20$as$u20$cxx..weak_ptr..WeakPtrTarget$GT$6__drop17h167793aef4c28ad0E
chrome_crashpad_handler:_ZN53_$LT$bool$u20$as$u20$cxx..weak_ptr..WeakPtrTarget$GT$6__null17h4cd39825f5f10ad3E
chrome_crashpad_handler:_ZN53_$LT$bool$u20$as$u20$cxx..weak_ptr..WeakPtrTarget$GT$7__clone17he89c679f38621961E
chrome_crashpad_handler:_ZN53_$LT$bool$u20$as$u20$cxx..weak_ptr..WeakPtrTarget$GT$9__upgrade17h028fab87611024e9E
chrome_crashpad_handler:_ZN53_$LT$i8$u20$as$u20$cxx..cxx_vector..VectorElement$GT$10__pop_back17h73e002b3f12706acE
chrome_crashpad_handler:_ZN53_$LT$i8$u20$as$u20$cxx..cxx_vector..VectorElement$GT$10__typename17h7100ce06e03fa5e8E
chrome_crashpad_handler:_ZN53_$LT$i8$u20$as$u20$cxx..cxx_vector..VectorElement$GT$11__push_back17hdb2da293182b8a58E
chrome_crashpad_handler:_ZN53_$LT$i8$u20$as$u20$cxx..cxx_vector..VectorElement$GT$12__vector_new17h7b7424bff62a454bE
chrome_crashpad_handler:_ZN53_$LT$i8$u20$as$u20$cxx..cxx_vector..VectorElement$GT$13__vector_size17hea58c79510f76b64E
chrome_crashpad_handler:_ZN53_$LT$i8$u20$as$u20$cxx..cxx_vector..VectorElement$GT$15__get_unchecked17h08f5dc75f3b7bfa4E
chrome_crashpad_handler:_ZN53_$LT$i8$u20$as$u20$cxx..cxx_vector..VectorElement$GT$16__unique_ptr_get17h794021f93a11014bE
chrome_crashpad_handler:_ZN53_$LT$i8$u20$as$u20$cxx..cxx_vector..VectorElement$GT$16__unique_ptr_raw17h599549b0b5acb22eE
chrome_crashpad_handler:_ZN53_$LT$i8$u20$as$u20$cxx..cxx_vector..VectorElement$GT$17__unique_ptr_drop17h9bd28b0144b71e1fE
chrome_crashpad_handler:_ZN53_$LT$i8$u20$as$u20$cxx..cxx_vector..VectorElement$GT$17__unique_ptr_null17h3709d9e1c53c669aE
chrome_crashpad_handler:_ZN53_$LT$i8$u20$as$u20$cxx..cxx_vector..VectorElement$GT$20__unique_ptr_release17hf5adb8d023c24597E
chrome_crashpad_handler:_ZN53_$LT$std..env..ArgsOs$u20$as$u20$core..fmt..Debug$GT$3fmt17h978ddf0b21f9b1b6E
chrome_crashpad_handler:_ZN53_$LT$std..env..VarsOs$u20$as$u20$core..fmt..Debug$GT$3fmt17hfc0598809647d3e0E
chrome_crashpad_handler:_ZN53_$LT$std..io..IoSlice$u20$as$u20$core..fmt..Debug$GT$3fmt17hbd0af0ccabd42f38E
chrome_crashpad_handler:_ZN53_$LT$u8$u20$as$u20$cxx..cxx_vector..VectorElement$GT$10__pop_back17hbd0aaae2327a9817E
chrome_crashpad_handler:_ZN53_$LT$u8$u20$as$u20$cxx..cxx_vector..VectorElement$GT$10__typename17h8d018bcae1a99f4fE
chrome_crashpad_handler:_ZN53_$LT$u8$u20$as$u20$cxx..cxx_vector..VectorElement$GT$11__push_back17h6fc86445e62c72c3E
chrome_crashpad_handler:_ZN53_$LT$u8$u20$as$u20$cxx..cxx_vector..VectorElement$GT$12__vector_new17h8290c7ef5be12fe9E
chrome_crashpad_handler:_ZN53_$LT$u8$u20$as$u20$cxx..cxx_vector..VectorElement$GT$13__vector_size17h00752c9b7b0013f1E
chrome_crashpad_handler:_ZN53_$LT$u8$u20$as$u20$cxx..cxx_vector..VectorElement$GT$15__get_unchecked17h7842c5ee7e566402E
chrome_crashpad_handler:_ZN53_$LT$u8$u20$as$u20$cxx..cxx_vector..VectorElement$GT$16__unique_ptr_get17h12d333eece3ec6e9E
chrome_crashpad_handler:_ZN53_$LT$u8$u20$as$u20$cxx..cxx_vector..VectorElement$GT$16__unique_ptr_raw17hd8554b1190d973dbE
chrome_crashpad_handler:_ZN53_$LT$u8$u20$as$u20$cxx..cxx_vector..VectorElement$GT$17__unique_ptr_drop17hfff547c84c0686aeE
chrome_crashpad_handler:_ZN53_$LT$u8$u20$as$u20$cxx..cxx_vector..VectorElement$GT$17__unique_ptr_null17ha277cbfd5bb3d41bE
chrome_crashpad_handler:_ZN53_$LT$u8$u20$as$u20$cxx..cxx_vector..VectorElement$GT$20__unique_ptr_release17ha4f8220c9f66bbacE
chrome_crashpad_handler:_ZN54_$LT$core..any..TypeId$u20$as$u20$core..fmt..Debug$GT$3fmt17h146447f1ae6de4a0E
chrome_crashpad_handler:_ZN54_$LT$core..ffi..c_void$u20$as$u20$core..fmt..Debug$GT$3fmt17h93f2e3f3723be3adE
chrome_crashpad_handler:_ZN54_$LT$f32$u20$as$u20$cxx..cxx_vector..VectorElement$GT$10__pop_back17h7cac4e1bc23dd940E
chrome_crashpad_handler:_ZN54_$LT$f32$u20$as$u20$cxx..cxx_vector..VectorElement$GT$10__typename17h35c879d650c28de4E
chrome_crashpad_handler:_ZN54_$LT$f32$u20$as$u20$cxx..cxx_vector..VectorElement$GT$11__push_back17haf585ad7ecded997E
chrome_crashpad_handler:_ZN54_$LT$f32$u20$as$u20$cxx..cxx_vector..VectorElement$GT$12__vector_new17hf79fbd7c5a75c14fE
chrome_crashpad_handler:_ZN54_$LT$f32$u20$as$u20$cxx..cxx_vector..VectorElement$GT$13__vector_size17h66b336e591444d62E
chrome_crashpad_handler:_ZN54_$LT$f32$u20$as$u20$cxx..cxx_vector..VectorElement$GT$15__get_unchecked17h558f57091d5a7075E
chrome_crashpad_handler:_ZN54_$LT$f32$u20$as$u20$cxx..cxx_vector..VectorElement$GT$16__unique_ptr_get17h3f8654bfb545ecb5E
chrome_crashpad_handler:_ZN54_$LT$f32$u20$as$u20$cxx..cxx_vector..VectorElement$GT$16__unique_ptr_raw17h6b748bda29746075E
chrome_crashpad_handler:_ZN54_$LT$f32$u20$as$u20$cxx..cxx_vector..VectorElement$GT$17__unique_ptr_drop17h2480dfdbe55b7e77E
chrome_crashpad_handler:_ZN54_$LT$f32$u20$as$u20$cxx..cxx_vector..VectorElement$GT$17__unique_ptr_null17h9b8bae340ade5181E
chrome_crashpad_handler:_ZN54_$LT$f32$u20$as$u20$cxx..cxx_vector..VectorElement$GT$20__unique_ptr_release17h0337423588b92045E
chrome_crashpad_handler:_ZN54_$LT$f64$u20$as$u20$cxx..cxx_vector..VectorElement$GT$10__pop_back17hd0293e00674d6d7dE
chrome_crashpad_handler:_ZN54_$LT$f64$u20$as$u20$cxx..cxx_vector..VectorElement$GT$10__typename17h25fb3dc51bc1fccfE
chrome_crashpad_handler:_ZN54_$LT$f64$u20$as$u20$cxx..cxx_vector..VectorElement$GT$11__push_back17h2a2bb55647d3c66fE
chrome_crashpad_handler:_ZN54_$LT$f64$u20$as$u20$cxx..cxx_vector..VectorElement$GT$12__vector_new17h8256d726f617bfb9E
chrome_crashpad_handler:_ZN54_$LT$f64$u20$as$u20$cxx..cxx_vector..VectorElement$GT$13__vector_size17h4d8c5db7047e25c3E
chrome_crashpad_handler:_ZN54_$LT$f64$u20$as$u20$cxx..cxx_vector..VectorElement$GT$15__get_unchecked17h412536f02570de2fE
chrome_crashpad_handler:_ZN54_$LT$f64$u20$as$u20$cxx..cxx_vector..VectorElement$GT$16__unique_ptr_get17hfd448a01715c388dE
chrome_crashpad_handler:_ZN54_$LT$f64$u20$as$u20$cxx..cxx_vector..VectorElement$GT$16__unique_ptr_raw17hd1c390b276893433E
chrome_crashpad_handler:_ZN54_$LT$f64$u20$as$u20$cxx..cxx_vector..VectorElement$GT$17__unique_ptr_drop17h7218cbe99ceeaa02E
chrome_crashpad_handler:_ZN54_$LT$f64$u20$as$u20$cxx..cxx_vector..VectorElement$GT$17__unique_ptr_null17h8f11f6680a8c6abaE
chrome_crashpad_handler:_ZN54_$LT$f64$u20$as$u20$cxx..cxx_vector..VectorElement$GT$20__unique_ptr_release17hb7371a2301babfd1E
chrome_crashpad_handler:_ZN54_$LT$i16$u20$as$u20$cxx..cxx_vector..VectorElement$GT$10__pop_back17h83587ec3bab34ac1E
chrome_crashpad_handler:_ZN54_$LT$i16$u20$as$u20$cxx..cxx_vector..VectorElement$GT$10__typename17hf0aa706311234e89E
chrome_crashpad_handler:_ZN54_$LT$i16$u20$as$u20$cxx..cxx_vector..VectorElement$GT$11__push_back17h2e91cdd8dcaf3edfE
chrome_crashpad_handler:_ZN54_$LT$i16$u20$as$u20$cxx..cxx_vector..VectorElement$GT$12__vector_new17hf004e7173e81eaa3E
chrome_crashpad_handler:_ZN54_$LT$i16$u20$as$u20$cxx..cxx_vector..VectorElement$GT$13__vector_size17hcc883ab5738dd9c3E
chrome_crashpad_handler:_ZN54_$LT$i16$u20$as$u20$cxx..cxx_vector..VectorElement$GT$15__get_unchecked17he23a3a9a2864c3e8E
chrome_crashpad_handler:_ZN54_$LT$i16$u20$as$u20$cxx..cxx_vector..VectorElement$GT$16__unique_ptr_get17hdc1297babf5cdacfE
chrome_crashpad_handler:_ZN54_$LT$i16$u20$as$u20$cxx..cxx_vector..VectorElement$GT$16__unique_ptr_raw17hc0df179bb41b7ae6E
chrome_crashpad_handler:_ZN54_$LT$i16$u20$as$u20$cxx..cxx_vector..VectorElement$GT$17__unique_ptr_drop17h75f66c588dd069b9E
chrome_crashpad_handler:_ZN54_$LT$i16$u20$as$u20$cxx..cxx_vector..VectorElement$GT$17__unique_ptr_null17h10b026dcd73c5ea2E
chrome_crashpad_handler:_ZN54_$LT$i16$u20$as$u20$cxx..cxx_vector..VectorElement$GT$20__unique_ptr_release17hdcaf30454ea27c57E
chrome_crashpad_handler:_ZN54_$LT$i32$u20$as$u20$cxx..cxx_vector..VectorElement$GT$10__pop_back17h13d7760ded5c4cb4E
chrome_crashpad_handler:_ZN54_$LT$i32$u20$as$u20$cxx..cxx_vector..VectorElement$GT$10__typename17h34b7c5984c41f343E
chrome_crashpad_handler:_ZN54_$LT$i32$u20$as$u20$cxx..cxx_vector..VectorElement$GT$11__push_back17h236d8c143e4683d4E
chrome_crashpad_handler:_ZN54_$LT$i32$u20$as$u20$cxx..cxx_vector..VectorElement$GT$12__vector_new17h13c22d6b3cc83c6fE
chrome_crashpad_handler:_ZN54_$LT$i32$u20$as$u20$cxx..cxx_vector..VectorElement$GT$13__vector_size17hb99039549315c94cE
chrome_crashpad_handler:_ZN54_$LT$i32$u20$as$u20$cxx..cxx_vector..VectorElement$GT$15__get_unchecked17hfab4759a6d0ddf69E
chrome_crashpad_handler:_ZN54_$LT$i32$u20$as$u20$cxx..cxx_vector..VectorElement$GT$16__unique_ptr_get17h675bfb766c5e3209E
chrome_crashpad_handler:_ZN54_$LT$i32$u20$as$u20$cxx..cxx_vector..VectorElement$GT$16__unique_ptr_raw17h6991e69399119058E
chrome_crashpad_handler:_ZN54_$LT$i32$u20$as$u20$cxx..cxx_vector..VectorElement$GT$17__unique_ptr_drop17h2e10f22a5c1322cbE
chrome_crashpad_handler:_ZN54_$LT$i32$u20$as$u20$cxx..cxx_vector..VectorElement$GT$17__unique_ptr_null17h3ebe5a45743d0da1E
chrome_crashpad_handler:_ZN54_$LT$i32$u20$as$u20$cxx..cxx_vector..VectorElement$GT$20__unique_ptr_release17h92dd24b296a4108eE
chrome_crashpad_handler:_ZN54_$LT$i64$u20$as$u20$cxx..cxx_vector..VectorElement$GT$10__pop_back17h9febb629437b7658E
chrome_crashpad_handler:_ZN54_$LT$i64$u20$as$u20$cxx..cxx_vector..VectorElement$GT$10__typename17h709c4983ef4339c1E
chrome_crashpad_handler:_ZN54_$LT$i64$u20$as$u20$cxx..cxx_vector..VectorElement$GT$11__push_back17h0d26805e21637719E
chrome_crashpad_handler:_ZN54_$LT$i64$u20$as$u20$cxx..cxx_vector..VectorElement$GT$12__vector_new17hd83c871bf34bfcadE
chrome_crashpad_handler:_ZN54_$LT$i64$u20$as$u20$cxx..cxx_vector..VectorElement$GT$13__vector_size17h05a21c7c1bbde4c1E
chrome_crashpad_handler:_ZN54_$LT$i64$u20$as$u20$cxx..cxx_vector..VectorElement$GT$15__get_unchecked17h66963b8893519025E
chrome_crashpad_handler:_ZN54_$LT$i64$u20$as$u20$cxx..cxx_vector..VectorElement$GT$16__unique_ptr_get17h931ea9e6c63b1096E
chrome_crashpad_handler:_ZN54_$LT$i64$u20$as$u20$cxx..cxx_vector..VectorElement$GT$16__unique_ptr_raw17h62ee1bced144f7d2E
chrome_crashpad_handler:_ZN54_$LT$i64$u20$as$u20$cxx..cxx_vector..VectorElement$GT$17__unique_ptr_drop17hee4c749f058a53d1E
chrome_crashpad_handler:_ZN54_$LT$i64$u20$as$u20$cxx..cxx_vector..VectorElement$GT$17__unique_ptr_null17h5189932f8cce8a0fE
chrome_crashpad_handler:_ZN54_$LT$i64$u20$as$u20$cxx..cxx_vector..VectorElement$GT$20__unique_ptr_release17he78f099dabba0e06E
chrome_crashpad_handler:_ZN54_$LT$isize$u20$as$u20$cxx..weak_ptr..WeakPtrTarget$GT$10__typename17h7ecf182c4390acbdE
chrome_crashpad_handler:_ZN54_$LT$isize$u20$as$u20$cxx..weak_ptr..WeakPtrTarget$GT$11__downgrade17h42f552f2729095c7E
chrome_crashpad_handler:_ZN54_$LT$isize$u20$as$u20$cxx..weak_ptr..WeakPtrTarget$GT$6__drop17h3a975c2c3060a83aE
chrome_crashpad_handler:_ZN54_$LT$isize$u20$as$u20$cxx..weak_ptr..WeakPtrTarget$GT$6__null17hd56b7937282555c9E
chrome_crashpad_handler:_ZN54_$LT$isize$u20$as$u20$cxx..weak_ptr..WeakPtrTarget$GT$7__clone17h6fa629299d15e1f9E
chrome_crashpad_handler:_ZN54_$LT$isize$u20$as$u20$cxx..weak_ptr..WeakPtrTarget$GT$9__upgrade17hfa0ed0a0b01e87cdE
chrome_crashpad_handler:_ZN54_$LT$std..fs..DirEntry$u20$as$u20$core..fmt..Debug$GT$3fmt17hb327677b39f790f5E
chrome_crashpad_handler:_ZN54_$LT$std..fs..FileType$u20$as$u20$core..fmt..Debug$GT$3fmt17hc2fc26ca864c4988E
chrome_crashpad_handler:_ZN54_$LT$std..fs..Metadata$u20$as$u20$core..fmt..Debug$GT$3fmt17hfc9bee4c8994f1adE
chrome_crashpad_handler:_ZN54_$LT$u16$u20$as$u20$cxx..cxx_vector..VectorElement$GT$10__pop_back17heceb230e72729cefE
chrome_crashpad_handler:_ZN54_$LT$u16$u20$as$u20$cxx..cxx_vector..VectorElement$GT$10__typename17h01a3545410fb3313E
chrome_crashpad_handler:_ZN54_$LT$u16$u20$as$u20$cxx..cxx_vector..VectorElement$GT$11__push_back17h57d2f95c14e55007E
chrome_crashpad_handler:_ZN54_$LT$u16$u20$as$u20$cxx..cxx_vector..VectorElement$GT$12__vector_new17h0234922554151c89E
chrome_crashpad_handler:_ZN54_$LT$u16$u20$as$u20$cxx..cxx_vector..VectorElement$GT$13__vector_size17ha1b2a5027add89a3E
chrome_crashpad_handler:_ZN54_$LT$u16$u20$as$u20$cxx..cxx_vector..VectorElement$GT$15__get_unchecked17h4befd7638de4dd8aE
chrome_crashpad_handler:_ZN54_$LT$u16$u20$as$u20$cxx..cxx_vector..VectorElement$GT$16__unique_ptr_get17h0c9d0b19b9ead27fE
chrome_crashpad_handler:_ZN54_$LT$u16$u20$as$u20$cxx..cxx_vector..VectorElement$GT$16__unique_ptr_raw17h61279d445edf4cd1E
chrome_crashpad_handler:_ZN54_$LT$u16$u20$as$u20$cxx..cxx_vector..VectorElement$GT$17__unique_ptr_drop17ha1cb15df951ecea0E
chrome_crashpad_handler:_ZN54_$LT$u16$u20$as$u20$cxx..cxx_vector..VectorElement$GT$17__unique_ptr_null17h8fbe78622f352b9eE
chrome_crashpad_handler:_ZN54_$LT$u16$u20$as$u20$cxx..cxx_vector..VectorElement$GT$20__unique_ptr_release17h22ab5ee6774a6369E
chrome_crashpad_handler:_ZN54_$LT$u32$u20$as$u20$cxx..cxx_vector..VectorElement$GT$10__pop_back17h1ba7ec1e4ff14c2fE
chrome_crashpad_handler:_ZN54_$LT$u32$u20$as$u20$cxx..cxx_vector..VectorElement$GT$10__typename17hc2503b091849a4d6E
chrome_crashpad_handler:_ZN54_$LT$u32$u20$as$u20$cxx..cxx_vector..VectorElement$GT$11__push_back17h323cfaafdd310abdE
chrome_crashpad_handler:_ZN54_$LT$u32$u20$as$u20$cxx..cxx_vector..VectorElement$GT$12__vector_new17h720e2fc159ce954bE
chrome_crashpad_handler:_ZN54_$LT$u32$u20$as$u20$cxx..cxx_vector..VectorElement$GT$13__vector_size17h0edee11598c5fdb7E
chrome_crashpad_handler:_ZN54_$LT$u32$u20$as$u20$cxx..cxx_vector..VectorElement$GT$15__get_unchecked17ha34dd12603c6b8fbE
chrome_crashpad_handler:_ZN54_$LT$u32$u20$as$u20$cxx..cxx_vector..VectorElement$GT$16__unique_ptr_get17h1d33526027103a34E
chrome_crashpad_handler:_ZN54_$LT$u32$u20$as$u20$cxx..cxx_vector..VectorElement$GT$16__unique_ptr_raw17hca10c7652b996f0bE
chrome_crashpad_handler:_ZN54_$LT$u32$u20$as$u20$cxx..cxx_vector..VectorElement$GT$17__unique_ptr_drop17h1cc2f7e9e04c0d62E
chrome_crashpad_handler:_ZN54_$LT$u32$u20$as$u20$cxx..cxx_vector..VectorElement$GT$17__unique_ptr_null17h9de398d5d9b841a5E
chrome_crashpad_handler:_ZN54_$LT$u32$u20$as$u20$cxx..cxx_vector..VectorElement$GT$20__unique_ptr_release17h7c15d8cc11bf7b18E
chrome_crashpad_handler:_ZN54_$LT$u64$u20$as$u20$cxx..cxx_vector..VectorElement$GT$10__pop_back17hde0d090bc50d5f03E
chrome_crashpad_handler:_ZN54_$LT$u64$u20$as$u20$cxx..cxx_vector..VectorElement$GT$10__typename17h2d6577476846965aE
chrome_crashpad_handler:_ZN54_$LT$u64$u20$as$u20$cxx..cxx_vector..VectorElement$GT$11__push_back17hf312b679d162951fE
chrome_crashpad_handler:_ZN54_$LT$u64$u20$as$u20$cxx..cxx_vector..VectorElement$GT$12__vector_new17h5a1712fe131f240aE
chrome_crashpad_handler:_ZN54_$LT$u64$u20$as$u20$cxx..cxx_vector..VectorElement$GT$13__vector_size17hae18f608cc539edfE
chrome_crashpad_handler:_ZN54_$LT$u64$u20$as$u20$cxx..cxx_vector..VectorElement$GT$15__get_unchecked17h5b89beeddd98424eE
chrome_crashpad_handler:_ZN54_$LT$u64$u20$as$u20$cxx..cxx_vector..VectorElement$GT$16__unique_ptr_get17h76bd07a34916880dE
chrome_crashpad_handler:_ZN54_$LT$u64$u20$as$u20$cxx..cxx_vector..VectorElement$GT$16__unique_ptr_raw17h94df0a4d6491706dE
chrome_crashpad_handler:_ZN54_$LT$u64$u20$as$u20$cxx..cxx_vector..VectorElement$GT$17__unique_ptr_drop17h23f4a261a947f5c4E
chrome_crashpad_handler:_ZN54_$LT$u64$u20$as$u20$cxx..cxx_vector..VectorElement$GT$17__unique_ptr_null17hbc2d20c1bc843b02E
chrome_crashpad_handler:_ZN54_$LT$u64$u20$as$u20$cxx..cxx_vector..VectorElement$GT$20__unique_ptr_release17h55439a90b1538733E
chrome_crashpad_handler:_ZN54_$LT$usize$u20$as$u20$cxx..weak_ptr..WeakPtrTarget$GT$10__typename17h8d0ea7c969042050E
chrome_crashpad_handler:_ZN54_$LT$usize$u20$as$u20$cxx..weak_ptr..WeakPtrTarget$GT$11__downgrade17h7b360aaedcea6b6eE
chrome_crashpad_handler:_ZN54_$LT$usize$u20$as$u20$cxx..weak_ptr..WeakPtrTarget$GT$6__drop17h0259de0e4c268f1cE
chrome_crashpad_handler:_ZN54_$LT$usize$u20$as$u20$cxx..weak_ptr..WeakPtrTarget$GT$6__null17hf651cc3ee0baeaaaE
chrome_crashpad_handler:_ZN54_$LT$usize$u20$as$u20$cxx..weak_ptr..WeakPtrTarget$GT$7__clone17h4f8b727f7ba8fcc3E
chrome_crashpad_handler:_ZN54_$LT$usize$u20$as$u20$cxx..weak_ptr..WeakPtrTarget$GT$9__upgrade17hb118ee74524e264aE
chrome_crashpad_handler:_ZN55_$LT$core..fmt..Error$u20$as$u20$core..fmt..Display$GT$3fmt17h5cb597ad665c10ffE
chrome_crashpad_handler:_ZN55_$LT$i8$u20$as$u20$cxx..shared_ptr..SharedPtrTarget$GT$10__typename17h504a35b376270ba1E
chrome_crashpad_handler:_ZN55_$LT$i8$u20$as$u20$cxx..shared_ptr..SharedPtrTarget$GT$5__get17h9a5a815d6793dc90E
chrome_crashpad_handler:_ZN55_$LT$i8$u20$as$u20$cxx..shared_ptr..SharedPtrTarget$GT$5__new17hdc8a907f81ff4945E
chrome_crashpad_handler:_ZN55_$LT$i8$u20$as$u20$cxx..shared_ptr..SharedPtrTarget$GT$6__drop17h2688b319d3a809e3E
chrome_crashpad_handler:_ZN55_$LT$i8$u20$as$u20$cxx..shared_ptr..SharedPtrTarget$GT$6__null17h79f46aa78c658b59E
chrome_crashpad_handler:_ZN55_$LT$i8$u20$as$u20$cxx..shared_ptr..SharedPtrTarget$GT$7__clone17he58e9e963a648636E
chrome_crashpad_handler:_ZN55_$LT$serde..de..OneOf$u20$as$u20$core..fmt..Display$GT$3fmt17h6305583eedc50f8eE
chrome_crashpad_handler:_ZN55_$LT$serde..format..Buf$u20$as$u20$core..fmt..Write$GT$9write_str17h73732f0ab63ec613E
chrome_crashpad_handler:_ZN55_$LT$std..io..stdio..Stdin$u20$as$u20$std..io..Read$GT$10read_exact17hda240eccf6eb8baaE
chrome_crashpad_handler:_ZN55_$LT$std..io..stdio..Stdin$u20$as$u20$std..io..Read$GT$11read_to_end17he2c470fd80b8ea25E
chrome_crashpad_handler:_ZN55_$LT$std..io..stdio..Stdin$u20$as$u20$std..io..Read$GT$13read_vectored17h6d6edd2009f82499E
chrome_crashpad_handler:_ZN55_$LT$std..io..stdio..Stdin$u20$as$u20$std..io..Read$GT$14read_buf_exact17hb110c92dd8b8a2a9E
chrome_crashpad_handler:_ZN55_$LT$std..io..stdio..Stdin$u20$as$u20$std..io..Read$GT$14read_to_string17he16a176e6ab595ddE
chrome_crashpad_handler:_ZN55_$LT$std..io..stdio..Stdin$u20$as$u20$std..io..Read$GT$4read17h73342eb8114d0433E
chrome_crashpad_handler:_ZN55_$LT$std..io..stdio..Stdin$u20$as$u20$std..io..Read$GT$8read_buf17hc23e9800dd1ea0d5E
chrome_crashpad_handler:_ZN55_$LT$std..io..util..Repeat$u20$as$u20$std..io..Read$GT$11read_to_end17h5cf29d35575f7e31E
chrome_crashpad_handler:_ZN55_$LT$std..io..util..Repeat$u20$as$u20$std..io..Read$GT$14read_to_string17hf56e5d5b2efc76efE
chrome_crashpad_handler:_ZN55_$LT$std..io..util..Repeat$u20$as$u20$std..io..Read$GT$8read_buf17h4942219e3e834b05E
chrome_crashpad_handler:_ZN55_$LT$std..path..Display$u20$as$u20$core..fmt..Debug$GT$3fmt17hdf082f2df579f1e4E
chrome_crashpad_handler:_ZN55_$LT$std..path..PathBuf$u20$as$u20$core..fmt..Debug$GT$3fmt17h3216001602f73666E
chrome_crashpad_handler:_ZN55_$LT$std..pipe..PipeReader$u20$as$u20$std..io..Read$GT$11read_to_end17hf23baf2454a23ea8E
chrome_crashpad_handler:_ZN55_$LT$std..pipe..PipeReader$u20$as$u20$std..io..Read$GT$13read_vectored17h8f2c9b08a253be3bE
chrome_crashpad_handler:_ZN55_$LT$std..pipe..PipeReader$u20$as$u20$std..io..Read$GT$4read17h2dbec51168766310E
chrome_crashpad_handler:_ZN55_$LT$std..pipe..PipeReader$u20$as$u20$std..io..Read$GT$8read_buf17h898b2b8217131f70E
chrome_crashpad_handler:_ZN55_$LT$std..time..Instant$u20$as$u20$core..fmt..Debug$GT$3fmt17h599ff520358f344aE
chrome_crashpad_handler:_ZN55_$LT$u8$u20$as$u20$cxx..shared_ptr..SharedPtrTarget$GT$10__typename17habdc42982d0e9aeaE
chrome_crashpad_handler:_ZN55_$LT$u8$u20$as$u20$cxx..shared_ptr..SharedPtrTarget$GT$5__get17h30fb4ea5df2aeecbE
chrome_crashpad_handler:_ZN55_$LT$u8$u20$as$u20$cxx..shared_ptr..SharedPtrTarget$GT$5__new17h0e31d2a0a101a067E
chrome_crashpad_handler:_ZN55_$LT$u8$u20$as$u20$cxx..shared_ptr..SharedPtrTarget$GT$6__drop17h90a2b3187fe01459E
chrome_crashpad_handler:_ZN55_$LT$u8$u20$as$u20$cxx..shared_ptr..SharedPtrTarget$GT$6__null17hee3e12063700693aE
chrome_crashpad_handler:_ZN55_$LT$u8$u20$as$u20$cxx..shared_ptr..SharedPtrTarget$GT$7__clone17h3641055081c3b986E
chrome_crashpad_handler:_ZN56_$LT$f32$u20$as$u20$cxx..shared_ptr..SharedPtrTarget$GT$10__typename17h3f590bd257181fd0E
chrome_crashpad_handler:_ZN56_$LT$f32$u20$as$u20$cxx..shared_ptr..SharedPtrTarget$GT$5__get17h8b93d70321a64933E
chrome_crashpad_handler:_ZN56_$LT$f32$u20$as$u20$cxx..shared_ptr..SharedPtrTarget$GT$5__new17ha65dda23666a9ba3E
chrome_crashpad_handler:_ZN56_$LT$f32$u20$as$u20$cxx..shared_ptr..SharedPtrTarget$GT$6__drop17hea52d52ce741d412E
chrome_crashpad_handler:_ZN56_$LT$f32$u20$as$u20$cxx..shared_ptr..SharedPtrTarget$GT$6__null17h7f01efa93f0e5f85E
chrome_crashpad_handler:_ZN56_$LT$f32$u20$as$u20$cxx..shared_ptr..SharedPtrTarget$GT$7__clone17h3a1fc8fe91653fdcE
chrome_crashpad_handler:_ZN56_$LT$f64$u20$as$u20$cxx..shared_ptr..SharedPtrTarget$GT$10__typename17h87cb28a10cfb2440E
chrome_crashpad_handler:_ZN56_$LT$f64$u20$as$u20$cxx..shared_ptr..SharedPtrTarget$GT$5__get17h2013238fb6613504E
chrome_crashpad_handler:_ZN56_$LT$f64$u20$as$u20$cxx..shared_ptr..SharedPtrTarget$GT$5__new17hbc4b8aaa2d522d73E
chrome_crashpad_handler:_ZN56_$LT$f64$u20$as$u20$cxx..shared_ptr..SharedPtrTarget$GT$6__drop17hb53c703da3c00c90E
chrome_crashpad_handler:_ZN56_$LT$f64$u20$as$u20$cxx..shared_ptr..SharedPtrTarget$GT$6__null17h0e629b69366b4364E
chrome_crashpad_handler:_ZN56_$LT$f64$u20$as$u20$cxx..shared_ptr..SharedPtrTarget$GT$7__clone17h13954992ef715da4E
chrome_crashpad_handler:_ZN56_$LT$i16$u20$as$u20$cxx..shared_ptr..SharedPtrTarget$GT$10__typename17h90de0292d8d1bedaE
chrome_crashpad_handler:_ZN56_$LT$i16$u20$as$u20$cxx..shared_ptr..SharedPtrTarget$GT$5__get17he3ee15d9cf505286E
chrome_crashpad_handler:_ZN56_$LT$i16$u20$as$u20$cxx..shared_ptr..SharedPtrTarget$GT$5__new17ha8d064cf42b3c9c2E
chrome_crashpad_handler:_ZN56_$LT$i16$u20$as$u20$cxx..shared_ptr..SharedPtrTarget$GT$6__drop17h85d785a325a300d8E
chrome_crashpad_handler:_ZN56_$LT$i16$u20$as$u20$cxx..shared_ptr..SharedPtrTarget$GT$6__null17h9bdd79cccb426e38E
chrome_crashpad_handler:_ZN56_$LT$i16$u20$as$u20$cxx..shared_ptr..SharedPtrTarget$GT$7__clone17hf04b98ecb72713d0E
chrome_crashpad_handler:_ZN56_$LT$i32$u20$as$u20$cxx..shared_ptr..SharedPtrTarget$GT$10__typename17h3c6362a70dffa144E
chrome_crashpad_handler:_ZN56_$LT$i32$u20$as$u20$cxx..shared_ptr..SharedPtrTarget$GT$5__get17h3b2587943a16b83eE
chrome_crashpad_handler:_ZN56_$LT$i32$u20$as$u20$cxx..shared_ptr..SharedPtrTarget$GT$5__new17hdfbef4e866e99c31E
chrome_crashpad_handler:_ZN56_$LT$i32$u20$as$u20$cxx..shared_ptr..SharedPtrTarget$GT$6__drop17h57172a1bbd4a8233E
chrome_crashpad_handler:_ZN56_$LT$i32$u20$as$u20$cxx..shared_ptr..SharedPtrTarget$GT$6__null17hef168da11906f0c0E
chrome_crashpad_handler:_ZN56_$LT$i32$u20$as$u20$cxx..shared_ptr..SharedPtrTarget$GT$7__clone17h37fef2c93f4b1e14E
chrome_crashpad_handler:_ZN56_$LT$i64$u20$as$u20$cxx..shared_ptr..SharedPtrTarget$GT$10__typename17h5468543bc74af3e2E
chrome_crashpad_handler:_ZN56_$LT$i64$u20$as$u20$cxx..shared_ptr..SharedPtrTarget$GT$5__get17h9231c36b83f5b6efE
chrome_crashpad_handler:_ZN56_$LT$i64$u20$as$u20$cxx..shared_ptr..SharedPtrTarget$GT$5__new17h77fbd4d67bb0b964E
chrome_crashpad_handler:_ZN56_$LT$i64$u20$as$u20$cxx..shared_ptr..SharedPtrTarget$GT$6__drop17h7805d1f41425a6aeE
chrome_crashpad_handler:_ZN56_$LT$i64$u20$as$u20$cxx..shared_ptr..SharedPtrTarget$GT$6__null17h8a9115d631b96611E
chrome_crashpad_handler:_ZN56_$LT$i64$u20$as$u20$cxx..shared_ptr..SharedPtrTarget$GT$7__clone17he40e59a48209a14cE
chrome_crashpad_handler:_ZN56_$LT$isize$u20$as$u20$cxx..cxx_vector..VectorElement$GT$10__pop_back17h6bdb9c60f1d86bb3E
chrome_crashpad_handler:_ZN56_$LT$isize$u20$as$u20$cxx..cxx_vector..VectorElement$GT$10__typename17h7f67a628497244a1E
chrome_crashpad_handler:_ZN56_$LT$isize$u20$as$u20$cxx..cxx_vector..VectorElement$GT$11__push_back17h18297be9e0c1fdc8E
chrome_crashpad_handler:_ZN56_$LT$isize$u20$as$u20$cxx..cxx_vector..VectorElement$GT$12__vector_new17hb41bf3c50a273809E
chrome_crashpad_handler:_ZN56_$LT$isize$u20$as$u20$cxx..cxx_vector..VectorElement$GT$13__vector_size17hd02aeb9c4d27ef81E
chrome_crashpad_handler:_ZN56_$LT$isize$u20$as$u20$cxx..cxx_vector..VectorElement$GT$15__get_unchecked17h0b04fb20b60798dcE
chrome_crashpad_handler:_ZN56_$LT$isize$u20$as$u20$cxx..cxx_vector..VectorElement$GT$16__unique_ptr_get17hb1a6f36d1e68c8e8E
chrome_crashpad_handler:_ZN56_$LT$isize$u20$as$u20$cxx..cxx_vector..VectorElement$GT$16__unique_ptr_raw17h7c2fbf1337a27bf0E
chrome_crashpad_handler:_ZN56_$LT$isize$u20$as$u20$cxx..cxx_vector..VectorElement$GT$17__unique_ptr_drop17h0eac1b1e2e549570E
chrome_crashpad_handler:_ZN56_$LT$isize$u20$as$u20$cxx..cxx_vector..VectorElement$GT$17__unique_ptr_null17hc942d6d94dc422baE
chrome_crashpad_handler:_ZN56_$LT$isize$u20$as$u20$cxx..cxx_vector..VectorElement$GT$20__unique_ptr_release17h1ff4ddc7ec84a91eE
chrome_crashpad_handler:_ZN56_$LT$std..io..IoSliceMut$u20$as$u20$core..fmt..Debug$GT$3fmt17he87be4a12ab7771fE
chrome_crashpad_handler:_ZN56_$LT$std..pipe..PipeWriter$u20$as$u20$std..io..Write$GT$14write_vectored17h44fcb2315aceffb2E
chrome_crashpad_handler:_ZN56_$LT$std..pipe..PipeWriter$u20$as$u20$std..io..Write$GT$5write17h722dec58067b94f3E
chrome_crashpad_handler:_ZN56_$LT$std..process..Child$u20$as$u20$core..fmt..Debug$GT$3fmt17h87d737efe7b1cd4cE
chrome_crashpad_handler:_ZN56_$LT$std..process..Stdio$u20$as$u20$core..fmt..Debug$GT$3fmt17hdfa6b62b9ad90367E
chrome_crashpad_handler:_ZN56_$LT$std..thread..Thread$u20$as$u20$core..fmt..Debug$GT$3fmt17h33308509dd3278daE
chrome_crashpad_handler:_ZN56_$LT$u16$u20$as$u20$cxx..shared_ptr..SharedPtrTarget$GT$10__typename17h9aff8b82f6f7afa3E
chrome_crashpad_handler:_ZN56_$LT$u16$u20$as$u20$cxx..shared_ptr..SharedPtrTarget$GT$5__get17h0bb2f6960ad4b997E
chrome_crashpad_handler:_ZN56_$LT$u16$u20$as$u20$cxx..shared_ptr..SharedPtrTarget$GT$5__new17h9fe1d5761e7cf4c2E
chrome_crashpad_handler:_ZN56_$LT$u16$u20$as$u20$cxx..shared_ptr..SharedPtrTarget$GT$6__drop17h47ce709469a3522cE
chrome_crashpad_handler:_ZN56_$LT$u16$u20$as$u20$cxx..shared_ptr..SharedPtrTarget$GT$6__null17hc918c95bd3947a08E
chrome_crashpad_handler:_ZN56_$LT$u16$u20$as$u20$cxx..shared_ptr..SharedPtrTarget$GT$7__clone17hc5b3b1b6c61e2382E
chrome_crashpad_handler:_ZN56_$LT$u32$u20$as$u20$cxx..shared_ptr..SharedPtrTarget$GT$10__typename17hf0e14b673a6016ebE
chrome_crashpad_handler:_ZN56_$LT$u32$u20$as$u20$cxx..shared_ptr..SharedPtrTarget$GT$5__get17hd1c54840f0e073acE
chrome_crashpad_handler:_ZN56_$LT$u32$u20$as$u20$cxx..shared_ptr..SharedPtrTarget$GT$5__new17h08c55d89b1a54b58E
chrome_crashpad_handler:_ZN56_$LT$u32$u20$as$u20$cxx..shared_ptr..SharedPtrTarget$GT$6__drop17h7cea2d567c0bcd4aE
chrome_crashpad_handler:_ZN56_$LT$u32$u20$as$u20$cxx..shared_ptr..SharedPtrTarget$GT$6__null17h8318bc1c1f04978fE
chrome_crashpad_handler:_ZN56_$LT$u32$u20$as$u20$cxx..shared_ptr..SharedPtrTarget$GT$7__clone17h3a674eb67d85d2a8E
chrome_crashpad_handler:_ZN56_$LT$u64$u20$as$u20$cxx..shared_ptr..SharedPtrTarget$GT$10__typename17h79f6c7942af28a54E
chrome_crashpad_handler:_ZN56_$LT$u64$u20$as$u20$cxx..shared_ptr..SharedPtrTarget$GT$5__get17hde0d8f38e160453bE
chrome_crashpad_handler:_ZN56_$LT$u64$u20$as$u20$cxx..shared_ptr..SharedPtrTarget$GT$5__new17h5e5e4be01d12403aE
chrome_crashpad_handler:_ZN56_$LT$u64$u20$as$u20$cxx..shared_ptr..SharedPtrTarget$GT$6__drop17h2f1c0e4e4ec8a461E
chrome_crashpad_handler:_ZN56_$LT$u64$u20$as$u20$cxx..shared_ptr..SharedPtrTarget$GT$6__null17ha595e3db673078b0E
chrome_crashpad_handler:_ZN56_$LT$u64$u20$as$u20$cxx..shared_ptr..SharedPtrTarget$GT$7__clone17ha89511927cae8c71E
chrome_crashpad_handler:_ZN56_$LT$usize$u20$as$u20$cxx..cxx_vector..VectorElement$GT$10__pop_back17h49f9bbaac6fdd5d9E
chrome_crashpad_handler:_ZN56_$LT$usize$u20$as$u20$cxx..cxx_vector..VectorElement$GT$10__typename17h6945da3a4ed0af11E
chrome_crashpad_handler:_ZN56_$LT$usize$u20$as$u20$cxx..cxx_vector..VectorElement$GT$11__push_back17h12e03561c672a6deE
chrome_crashpad_handler:_ZN56_$LT$usize$u20$as$u20$cxx..cxx_vector..VectorElement$GT$12__vector_new17h75f8d22ac06e4632E
chrome_crashpad_handler:_ZN56_$LT$usize$u20$as$u20$cxx..cxx_vector..VectorElement$GT$13__vector_size17hd23db2e33e368616E
chrome_crashpad_handler:_ZN56_$LT$usize$u20$as$u20$cxx..cxx_vector..VectorElement$GT$15__get_unchecked17h373d76d2ed96c0d9E
chrome_crashpad_handler:_ZN56_$LT$usize$u20$as$u20$cxx..cxx_vector..VectorElement$GT$16__unique_ptr_get17hfbf02b7d34a4b48eE
chrome_crashpad_handler:_ZN56_$LT$usize$u20$as$u20$cxx..cxx_vector..VectorElement$GT$16__unique_ptr_raw17hc55cfcc05960aa88E
chrome_crashpad_handler:_ZN56_$LT$usize$u20$as$u20$cxx..cxx_vector..VectorElement$GT$17__unique_ptr_drop17hc0255ff973faf0a8E
chrome_crashpad_handler:_ZN56_$LT$usize$u20$as$u20$cxx..cxx_vector..VectorElement$GT$17__unique_ptr_null17h212015e0191df46eE
chrome_crashpad_handler:_ZN56_$LT$usize$u20$as$u20$cxx..cxx_vector..VectorElement$GT$20__unique_ptr_release17h820bf01e6fbdc8abE
chrome_crashpad_handler:_ZN57_$LT$alloc..string..Drain$u20$as$u20$core..fmt..Debug$GT$3fmt17hbd033ed1391fbd83E
chrome_crashpad_handler:_ZN57_$LT$bool$u20$as$u20$cxx..shared_ptr..SharedPtrTarget$GT$10__typename17hee583505dd982517E
chrome_crashpad_handler:_ZN57_$LT$bool$u20$as$u20$cxx..shared_ptr..SharedPtrTarget$GT$5__get17h9e52d7db7d655ac5E
chrome_crashpad_handler:_ZN57_$LT$bool$u20$as$u20$cxx..shared_ptr..SharedPtrTarget$GT$5__new17h9709b10ba569a831E
chrome_crashpad_handler:_ZN57_$LT$bool$u20$as$u20$cxx..shared_ptr..SharedPtrTarget$GT$6__drop17hf722014b98b73eccE
chrome_crashpad_handler:_ZN57_$LT$bool$u20$as$u20$cxx..shared_ptr..SharedPtrTarget$GT$6__null17h3dc752a2f24cd87fE
chrome_crashpad_handler:_ZN57_$LT$bool$u20$as$u20$cxx..shared_ptr..SharedPtrTarget$GT$7__clone17h2001cc4a9c1e442cE
chrome_crashpad_handler:_ZN57_$LT$core..error..Request$u20$as$u20$core..fmt..Debug$GT$3fmt17h4c155ccd3e049727E
chrome_crashpad_handler:_ZN57_$LT$core..fmt..Arguments$u20$as$u20$core..fmt..Debug$GT$3fmt17h651efb08b19cd0a2E
chrome_crashpad_handler:_ZN57_$LT$core..fmt..Formatter$u20$as$u20$core..fmt..Write$GT$10write_char17hf4827b8f4d7c9681E
chrome_crashpad_handler:_ZN57_$LT$core..fmt..Formatter$u20$as$u20$core..fmt..Write$GT$9write_str17h32dc305bfd370488E
chrome_crashpad_handler:_ZN57_$LT$core..time..Duration$u20$as$u20$core..fmt..Debug$GT$3fmt17hf53fbbc47225edc8E
chrome_crashpad_handler:_ZN57_$LT$cxx..string..CxxString$u20$as$u20$core..cmp..Ord$GT$3cmp17ha543452c92826439E
chrome_crashpad_handler:_ZN57_$LT$std..env..SplitPaths$u20$as$u20$core..fmt..Debug$GT$3fmt17h094187ff8c99df6cE
chrome_crashpad_handler:_ZN57_$LT$std..env..VarError$u20$as$u20$core..fmt..Display$GT$3fmt17h917696b6af9d2807E
chrome_crashpad_handler:_ZN57_$LT$std..io..stdio..Stderr$u20$as$u20$std..io..Write$GT$14write_vectored17hc1eb22966ba849c5E
chrome_crashpad_handler:_ZN57_$LT$std..io..stdio..Stderr$u20$as$u20$std..io..Write$GT$18write_all_vectored17h6b5eaacdb207a870E
chrome_crashpad_handler:_ZN57_$LT$std..io..stdio..Stderr$u20$as$u20$std..io..Write$GT$5flush17hedb368cb190d8329E
chrome_crashpad_handler:_ZN57_$LT$std..io..stdio..Stderr$u20$as$u20$std..io..Write$GT$5write17h17e6a8e91185b825E
chrome_crashpad_handler:_ZN57_$LT$std..io..stdio..Stderr$u20$as$u20$std..io..Write$GT$9write_all17h24fae7dd4510948cE
chrome_crashpad_handler:_ZN57_$LT$std..io..stdio..Stderr$u20$as$u20$std..io..Write$GT$9write_fmt17h55784ce741745329E
chrome_crashpad_handler:_ZN57_$LT$std..io..stdio..Stdout$u20$as$u20$std..io..Write$GT$14write_vectored17h319bc25ddd04a2eaE
chrome_crashpad_handler:_ZN57_$LT$std..io..stdio..Stdout$u20$as$u20$std..io..Write$GT$18write_all_vectored17h84c9d782fb8013d4E
chrome_crashpad_handler:_ZN57_$LT$std..io..stdio..Stdout$u20$as$u20$std..io..Write$GT$5flush17haf4a0200b5ded284E
chrome_crashpad_handler:_ZN57_$LT$std..io..stdio..Stdout$u20$as$u20$std..io..Write$GT$5write17h36c8dbb95e583189E
chrome_crashpad_handler:_ZN57_$LT$std..io..stdio..Stdout$u20$as$u20$std..io..Write$GT$9write_all17hcf0681aeeb6dc067E
chrome_crashpad_handler:_ZN57_$LT$std..io..stdio..Stdout$u20$as$u20$std..io..Write$GT$9write_fmt17h9fee76799aa3dc07E
chrome_crashpad_handler:_ZN57_$LT$std..path..Display$u20$as$u20$core..fmt..Display$GT$3fmt17h78d3d244c6096b2cE
chrome_crashpad_handler:_ZN57_$LT$std..process..Output$u20$as$u20$core..fmt..Debug$GT$3fmt17habf5ed1f226f4371E
chrome_crashpad_handler:_ZN58_$LT$isize$u20$as$u20$cxx..shared_ptr..SharedPtrTarget$GT$10__typename17he51365225256181aE
chrome_crashpad_handler:_ZN58_$LT$isize$u20$as$u20$cxx..shared_ptr..SharedPtrTarget$GT$5__get17h0e05b8219eb86421E
chrome_crashpad_handler:_ZN58_$LT$isize$u20$as$u20$cxx..shared_ptr..SharedPtrTarget$GT$5__new17h5a91cfcf3cfb2103E
chrome_crashpad_handler:_ZN58_$LT$isize$u20$as$u20$cxx..shared_ptr..SharedPtrTarget$GT$6__drop17h14e815d4e17e6b22E
chrome_crashpad_handler:_ZN58_$LT$isize$u20$as$u20$cxx..shared_ptr..SharedPtrTarget$GT$6__null17h67a461ea8a2da2b7E
chrome_crashpad_handler:_ZN58_$LT$isize$u20$as$u20$cxx..shared_ptr..SharedPtrTarget$GT$7__clone17hcf78d6740383f97bE
chrome_crashpad_handler:_ZN58_$LT$std..io..error..Error$u20$as$u20$core..fmt..Debug$GT$3fmt17h98bec5b4fa31b63fE
chrome_crashpad_handler:_ZN58_$LT$std..io..stdio..Stdin$u20$as$u20$core..fmt..Debug$GT$3fmt17h7d2046e19efbe012E
chrome_crashpad_handler:_ZN58_$LT$std..io..stdio..StdinRaw$u20$as$u20$std..io..Read$GT$11read_to_end17h870cb9e570709869E
chrome_crashpad_handler:_ZN58_$LT$std..io..stdio..StdinRaw$u20$as$u20$std..io..Read$GT$13read_vectored17h34b4e45f1b8c6257E
chrome_crashpad_handler:_ZN58_$LT$std..io..stdio..StdinRaw$u20$as$u20$std..io..Read$GT$14read_to_string17h3fd46d0caed391a7E
chrome_crashpad_handler:_ZN58_$LT$std..io..stdio..StdinRaw$u20$as$u20$std..io..Read$GT$4read17he3c4d9774d0f42d7E
chrome_crashpad_handler:_ZN58_$LT$std..io..stdio..StdinRaw$u20$as$u20$std..io..Read$GT$8read_buf17h3bb952a091415edfE
chrome_crashpad_handler:_ZN58_$LT$std..io..util..Repeat$u20$as$u20$core..fmt..Debug$GT$3fmt17h24e55877fd7619f7E
chrome_crashpad_handler:_ZN58_$LT$std..net..tcp..TcpStream$u20$as$u20$std..io..Read$GT$13read_vectored17he933e630d5997b24E
chrome_crashpad_handler:_ZN58_$LT$std..net..tcp..TcpStream$u20$as$u20$std..io..Read$GT$4read17h523c8aee2fb3c868E
chrome_crashpad_handler:_ZN58_$LT$std..net..tcp..TcpStream$u20$as$u20$std..io..Read$GT$8read_buf17hb5c4c7b47ac567c8E
chrome_crashpad_handler:_ZN58_$LT$std..path..Components$u20$as$u20$core..fmt..Debug$GT$3fmt17h8241a208a7582beeE
chrome_crashpad_handler:_ZN58_$LT$std..process..Command$u20$as$u20$core..fmt..Debug$GT$3fmt17hde79507c2006dddbE
chrome_crashpad_handler:_ZN58_$LT$std..sync..once..Once$u20$as$u20$core..fmt..Debug$GT$3fmt17h4b7938425930355cE
chrome_crashpad_handler:_ZN58_$LT$std..time..SystemTime$u20$as$u20$core..fmt..Debug$GT$3fmt17h0d1ecc718a8c0a45E
chrome_crashpad_handler:_ZN58_$LT$usize$u20$as$u20$cxx..shared_ptr..SharedPtrTarget$GT$10__typename17hdf30a7fda55ba6a4E
chrome_crashpad_handler:_ZN58_$LT$usize$u20$as$u20$cxx..shared_ptr..SharedPtrTarget$GT$5__get17hbddc550d2b43768fE
chrome_crashpad_handler:_ZN58_$LT$usize$u20$as$u20$cxx..shared_ptr..SharedPtrTarget$GT$5__new17hdfb926a5eb566dc1E
chrome_crashpad_handler:_ZN58_$LT$usize$u20$as$u20$cxx..shared_ptr..SharedPtrTarget$GT$6__drop17h461a73fc7141c815E
chrome_crashpad_handler:_ZN58_$LT$usize$u20$as$u20$cxx..shared_ptr..SharedPtrTarget$GT$6__null17he9dba6afe4e7579aE
chrome_crashpad_handler:_ZN58_$LT$usize$u20$as$u20$cxx..shared_ptr..SharedPtrTarget$GT$7__clone17hd20c9cffaa195456E
chrome_crashpad_handler:_ZN59_$LT$$RF$std..io..stdio..Stdin$u20$as$u20$std..io..Read$GT$10read_exact17h40d8a63b68d275edE
chrome_crashpad_handler:_ZN59_$LT$$RF$std..io..stdio..Stdin$u20$as$u20$std..io..Read$GT$11read_to_end17hbbbd6175f908ee6eE
chrome_crashpad_handler:_ZN59_$LT$$RF$std..io..stdio..Stdin$u20$as$u20$std..io..Read$GT$13read_vectored17h9a49896799726632E
chrome_crashpad_handler:_ZN59_$LT$$RF$std..io..stdio..Stdin$u20$as$u20$std..io..Read$GT$14read_buf_exact17h9e7a4101de658adfE
chrome_crashpad_handler:_ZN59_$LT$$RF$std..io..stdio..Stdin$u20$as$u20$std..io..Read$GT$14read_to_string17hfd695377b4bc600fE
chrome_crashpad_handler:_ZN59_$LT$$RF$std..io..stdio..Stdin$u20$as$u20$std..io..Read$GT$4read17ha5efd1238c2ce7f2E
chrome_crashpad_handler:_ZN59_$LT$$RF$std..io..stdio..Stdin$u20$as$u20$std..io..Read$GT$8read_buf17h3af7f0420d440963E
chrome_crashpad_handler:_ZN59_$LT$$RF$std..pipe..PipeReader$u20$as$u20$std..io..Read$GT$11read_to_end17h080005abfc2b19caE
chrome_crashpad_handler:_ZN59_$LT$$RF$std..pipe..PipeReader$u20$as$u20$std..io..Read$GT$13read_vectored17h89e93037e8ed36deE
chrome_crashpad_handler:_ZN59_$LT$$RF$std..pipe..PipeReader$u20$as$u20$std..io..Read$GT$4read17h208b5d9d3ffde9a6E
chrome_crashpad_handler:_ZN59_$LT$$RF$std..pipe..PipeReader$u20$as$u20$std..io..Read$GT$8read_buf17hd848d7c886d77ee7E
chrome_crashpad_handler:_ZN59_$LT$core..ffi..c_str..CStr$u20$as$u20$core..fmt..Debug$GT$3fmt17h2ee5b73eda5d7181E
chrome_crashpad_handler:_ZN59_$LT$core..fmt..Arguments$u20$as$u20$core..fmt..Display$GT$3fmt17h397941cfe19adf2fE
chrome_crashpad_handler:_ZN59_$LT$core..str..iter..Chars$u20$as$u20$core..fmt..Debug$GT$3fmt17hc22ec4cbe9447912E
chrome_crashpad_handler:_ZN59_$LT$cxx..string..CxxString$u20$as$u20$core..fmt..Debug$GT$3fmt17hfc184ed19f05ad41E
chrome_crashpad_handler:_ZN59_$LT$dyn$u20$core..any..Any$u20$as$u20$core..fmt..Debug$GT$3fmt17h3bfff4d6022d7f31E
chrome_crashpad_handler:_ZN59_$LT$f32$u20$as$u20$core..num..dec2flt..float..RawFloat$GT$14integer_decode17h8e33949ae260b0c6E
chrome_crashpad_handler:_ZN59_$LT$f32$u20$as$u20$core..num..dec2flt..float..RawFloat$GT$15pow10_fast_path17h49694b53d0e2f262E
chrome_crashpad_handler:_ZN59_$LT$f64$u20$as$u20$core..num..dec2flt..float..RawFloat$GT$14integer_decode17hed42ba236acf79e6E
chrome_crashpad_handler:_ZN59_$LT$f64$u20$as$u20$core..num..dec2flt..float..RawFloat$GT$15pow10_fast_path17ha65e78c3aeec91e8E
chrome_crashpad_handler:_ZN59_$LT$std..io..stdio..Stderr$u20$as$u20$core..fmt..Debug$GT$3fmt17hda313df606b5620bE
chrome_crashpad_handler:_ZN59_$LT$std..io..stdio..StdinLock$u20$as$u20$std..io..Read$GT$10read_exact17h93df16a8d3af4593E
chrome_crashpad_handler:_ZN59_$LT$std..io..stdio..StdinLock$u20$as$u20$std..io..Read$GT$11read_to_end17h584084d7222766afE
chrome_crashpad_handler:_ZN59_$LT$std..io..stdio..StdinLock$u20$as$u20$std..io..Read$GT$13read_vectored17hff54436e048f03e6E
chrome_crashpad_handler:_ZN59_$LT$std..io..stdio..StdinLock$u20$as$u20$std..io..Read$GT$14read_buf_exact17hf880b138b1fde39eE
chrome_crashpad_handler:_ZN59_$LT$std..io..stdio..StdinLock$u20$as$u20$std..io..Read$GT$14read_to_string17h86fb6241456074fcE
chrome_crashpad_handler:_ZN59_$LT$std..io..stdio..StdinLock$u20$as$u20$std..io..Read$GT$4read17h2002f4c40f002851E
chrome_crashpad_handler:_ZN59_$LT$std..io..stdio..StdinLock$u20$as$u20$std..io..Read$GT$8read_buf17h2abe8ff05b56890aE
chrome_crashpad_handler:_ZN59_$LT$std..io..stdio..Stdout$u20$as$u20$core..fmt..Debug$GT$3fmt17h4c12f5c8a321ad15E
chrome_crashpad_handler:_ZN59_$LT$std..net..tcp..TcpStream$u20$as$u20$std..io..Write$GT$14write_vectored17h2be4c49578de1bedE
chrome_crashpad_handler:_ZN59_$LT$std..net..tcp..TcpStream$u20$as$u20$std..io..Write$GT$5write17hc9c3a1395efc32a1E
chrome_crashpad_handler:_ZN59_$LT$std..process..ChildStderr$u20$as$u20$std..io..Read$GT$11read_to_end17hac5961557258f2eeE
chrome_crashpad_handler:_ZN59_$LT$std..process..ChildStderr$u20$as$u20$std..io..Read$GT$13read_vectored17h35a3ff7c5a48d5afE
chrome_crashpad_handler:_ZN59_$LT$std..process..ChildStderr$u20$as$u20$std..io..Read$GT$4read17h9222ebe7ca0e6d6eE
chrome_crashpad_handler:_ZN59_$LT$std..process..ChildStderr$u20$as$u20$std..io..Read$GT$8read_buf17h4bd6aeb37398f43dE
chrome_crashpad_handler:_ZN59_$LT$std..process..ChildStdin$u20$as$u20$std..io..Write$GT$14write_vectored17h2b7c056ba9b2d5f5E
chrome_crashpad_handler:_ZN59_$LT$std..process..ChildStdin$u20$as$u20$std..io..Write$GT$5write17h6ed2a050a201b151E
chrome_crashpad_handler:_ZN59_$LT$std..process..ChildStdout$u20$as$u20$std..io..Read$GT$11read_to_end17hd0b71a7d1bb3e8a1E
chrome_crashpad_handler:_ZN59_$LT$std..process..ChildStdout$u20$as$u20$std..io..Read$GT$13read_vectored17ha2126f7a531462bfE
chrome_crashpad_handler:_ZN59_$LT$std..process..ChildStdout$u20$as$u20$std..io..Read$GT$4read17he456602e2cd214deE
chrome_crashpad_handler:_ZN59_$LT$std..process..ChildStdout$u20$as$u20$std..io..Read$GT$8read_buf17h4bf30d792d777fafE
chrome_crashpad_handler:_ZN5adler13adler32_slice17hbf8d884e631cfaeaE
chrome_crashpad_handler:_ZN5adler7Adler3211write_slice17h74d7bb095a0effe5E
chrome_crashpad_handler:_ZN5alloc11collections5btree4node10splitpoint17h6f5d54dce59d0905E
chrome_crashpad_handler:_ZN5alloc2rc29rcbox_layout_for_value_layout17h4bb6c9401f9e62daE
chrome_crashpad_handler:_ZN5alloc3ffi5c_str100_$LT$impl$u20$core..default..Default$u20$for$u20$alloc..boxed..Box$LT$core..ffi..c_str..CStr$GT$$GT$7default17h862fc3f62a07a4d2E
chrome_crashpad_handler:_ZN5alloc3ffi5c_str131_$LT$impl$u20$core..convert..From$LT$$RF$core..ffi..c_str..CStr$GT$$u20$for$u20$alloc..boxed..Box$LT$core..ffi..c_str..CStr$GT$$GT$4from17h01cdda710ae9ade2E
chrome_crashpad_handler:_ZN5alloc3ffi5c_str19FromVecWithNulError8as_bytes17h1cbf45c661ac8a87E
chrome_crashpad_handler:_ZN5alloc3ffi5c_str40_$LT$impl$u20$core..ffi..c_str..CStr$GT$13into_c_string17hedcd384ba130ca80E
chrome_crashpad_handler:_ZN5alloc3ffi5c_str40_$LT$impl$u20$core..ffi..c_str..CStr$GT$15to_string_lossy17h9c89906ef529b28eE
chrome_crashpad_handler:_ZN5alloc3ffi5c_str75_$LT$impl$u20$alloc..borrow..ToOwned$u20$for$u20$core..ffi..c_str..CStr$GT$10clone_into17hb18d10dc16c6fa3cE
chrome_crashpad_handler:_ZN5alloc3ffi5c_str75_$LT$impl$u20$alloc..borrow..ToOwned$u20$for$u20$core..ffi..c_str..CStr$GT$8to_owned17h3f2407e81f17c4eaE
chrome_crashpad_handler:_ZN5alloc3ffi5c_str7CString10into_bytes17hb918dbffa2dec120E
chrome_crashpad_handler:_ZN5alloc3ffi5c_str7CString11into_string17h26d77227c805f1beE
chrome_crashpad_handler:_ZN5alloc3ffi5c_str7CString16into_boxed_c_str17hea0ebe1f3a90e9f6E
chrome_crashpad_handler:_ZN5alloc3ffi5c_str7CString17from_vec_with_nul17h0dece8a8ed21b00aE
chrome_crashpad_handler:_ZN5alloc3ffi5c_str7CString18from_vec_unchecked17h10335a019c23203bE
chrome_crashpad_handler:_ZN5alloc3ffi5c_str7CString19_from_vec_unchecked17hd304477f84f7a340E
chrome_crashpad_handler:_ZN5alloc3ffi5c_str7CString19into_bytes_with_nul17hdfa900f9307b8027E
chrome_crashpad_handler:_ZN5alloc3ffi5c_str7CString27from_vec_with_nul_unchecked17heda814a6b16117ceE
chrome_crashpad_handler:_ZN5alloc3ffi5c_str7CString8from_raw17hf8f459d8198507f3E
chrome_crashpad_handler:_ZN5alloc3fmt6format12format_inner17h08a4b8171211e41aE
chrome_crashpad_handler:_ZN5alloc3str21_$LT$impl$u20$str$GT$12to_lowercase17h67013af76916a4fbE
chrome_crashpad_handler:_ZN5alloc3str21_$LT$impl$u20$str$GT$12to_uppercase17h51c4e891bcb940e9E
chrome_crashpad_handler:_ZN5alloc3str21_$LT$impl$u20$str$GT$6repeat17hacb6dc7527597deaE
chrome_crashpad_handler:_ZN5alloc3vec16Vec$LT$T$C$A$GT$11swap_remove13assert_failed17hb93b8d05cc9c3bf0E
chrome_crashpad_handler:_ZN5alloc3vec16Vec$LT$T$C$A$GT$6insert13assert_failed17hed1ac98c7f9da08aE
chrome_crashpad_handler:_ZN5alloc3vec16Vec$LT$T$C$A$GT$6remove13assert_failed17h94dee9fec156fd2cE
chrome_crashpad_handler:_ZN5alloc3vec16Vec$LT$T$C$A$GT$9split_off13assert_failed17h4e10a93f3531c032E
chrome_crashpad_handler:_ZN5alloc4sync18STATIC_INNER_SLICE17h7b14f1415bb26143E
chrome_crashpad_handler:_ZN5alloc4sync32arcinner_layout_for_value_layout17hcfbb1a1a61779755E
chrome_crashpad_handler:_ZN5alloc5alloc18handle_alloc_error17h168c172b1fe5c70aE
chrome_crashpad_handler:_ZN5alloc5alloc18handle_alloc_error8ct_error17h836f3d36e7f01b19E
chrome_crashpad_handler:_ZN5alloc6string107_$LT$impl$u20$core..convert..From$LT$alloc..string..String$GT$$u20$for$u20$alloc..boxed..Box$LT$str$GT$$GT$4from17hfbcf721215fd233cE
chrome_crashpad_handler:_ZN5alloc6string13FromUtf8Error8as_bytes17h1a1738888a6a588dE
chrome_crashpad_handler:_ZN5alloc6string5Drain6as_str17h0fa6bdd6e719d07bE
chrome_crashpad_handler:_ZN5alloc6string6String10from_utf1617h246a80cea444d8fbE
chrome_crashpad_handler:_ZN5alloc6string6String11try_reserve17hb54b3a95da208d6eE
chrome_crashpad_handler:_ZN5alloc6string6String12from_utf16be17hb238d4cde9c301deE
chrome_crashpad_handler:_ZN5alloc6string6String12from_utf16le17hc4f3dbaabd695d0eE
chrome_crashpad_handler:_ZN5alloc6string6String12insert_bytes17h8be9307690e7df0eE
chrome_crashpad_handler:_ZN5alloc6string6String14into_raw_parts17h8103c9ea76522925E
chrome_crashpad_handler:_ZN5alloc6string6String15from_utf8_lossy17h26acf6dfa5a56290E
chrome_crashpad_handler:_ZN5alloc6string6String17try_reserve_exact17h207d6d64a73627f6E
chrome_crashpad_handler:_ZN5alloc6string6String18from_utf16be_lossy17hb035c7a9344523e7E
chrome_crashpad_handler:_ZN5alloc6string6String18from_utf16le_lossy17h0b4e3c7ae91324a8E
chrome_crashpad_handler:_ZN5alloc7raw_vec12handle_error17h576d1395847abc3aE
chrome_crashpad_handler:_ZN5gimli4arch3Arm13register_name17heb89f3928996d0b9E
chrome_crashpad_handler:_ZN5gimli4arch3Arm16name_to_register17h7fc2835edaea54f5E
chrome_crashpad_handler:_ZN5gimli4arch3X8616name_to_register17hf7a237fff0e30920E
chrome_crashpad_handler:_ZN5gimli4arch4MIPS13register_name17he2a04c5ba846964fE
chrome_crashpad_handler:_ZN5gimli4arch4MIPS16name_to_register17hee3b06366d6ea7bcE
chrome_crashpad_handler:_ZN5gimli4arch5RiscV13register_name17h7d8e83a623c1575fE
chrome_crashpad_handler:_ZN5gimli4arch5RiscV16name_to_register17h733f665d4868044fE
chrome_crashpad_handler:_ZN5gimli4arch6X86_6413register_name17hed7528fc304f0ad2E
chrome_crashpad_handler:_ZN5gimli4arch6X86_6416name_to_register17hb4e5e84338c465c7E
chrome_crashpad_handler:_ZN5gimli4arch7AArch6413register_name17hfb797592de8ec52dE
chrome_crashpad_handler:_ZN5gimli4arch7AArch6416name_to_register17hd17a13392cf18e74E
chrome_crashpad_handler:_ZN5gimli4arch9LoongArch13register_name17h9e797451790f9d0eE
chrome_crashpad_handler:_ZN5gimli4arch9LoongArch16name_to_register17hb7994e82cd32794dE
chrome_crashpad_handler:_ZN5gimli4arch9PowerPc6413register_name17hb655b72c915417dbE
chrome_crashpad_handler:_ZN5gimli4arch9PowerPc6416name_to_register17h9a68b6d15725f38cE
chrome_crashpad_handler:_ZN5gimli4read4line7LineRow18apply_line_advance17hc497b792517e0f10E
chrome_crashpad_handler:_ZN5gimli4read5Error11description17h078538ef8ad30bfaE
chrome_crashpad_handler:_ZN5gimli4read5value5Value11reinterpret17h1b140df909aa33c2E
chrome_crashpad_handler:_ZN5gimli4read5value5Value2eq17h77065cb9100275e5E
chrome_crashpad_handler:_ZN5gimli4read5value5Value2ge17he326bc27dc6b21bbE
chrome_crashpad_handler:_ZN5gimli4read5value5Value2gt17hee2c43ea2bc857efE
chrome_crashpad_handler:_ZN5gimli4read5value5Value2le17h4dc9fdec4121715cE
chrome_crashpad_handler:_ZN5gimli4read5value5Value2lt17h3c2459a0ead012dfE
chrome_crashpad_handler:_ZN5gimli4read5value5Value2ne17h24f201de02eea49bE
chrome_crashpad_handler:_ZN5gimli4read5value5Value2or17hd1767b836e5abc66E
chrome_crashpad_handler:_ZN5gimli4read5value5Value3abs17h728b1da98f70a5e7E
chrome_crashpad_handler:_ZN5gimli4read5value5Value3and17hd6f272a1c58e88c3E
chrome_crashpad_handler:_ZN5gimli4read5value5Value3div17h0d1d10f6242b2f3cE
chrome_crashpad_handler:_ZN5gimli4read5value5Value3neg17hb7c3f081092d653bE
chrome_crashpad_handler:_ZN5gimli4read5value5Value3not17h3403f12fecf69f2aE
chrome_crashpad_handler:_ZN5gimli4read5value5Value3rem17h779958ac13537f03E
chrome_crashpad_handler:_ZN5gimli4read5value5Value3shl17hfd532bfc1b9101bfE
chrome_crashpad_handler:_ZN5gimli4read5value5Value3shr17h4507932820e558e2E
chrome_crashpad_handler:_ZN5gimli4read5value5Value3xor17h7e8795ec9c3cb5d1E
chrome_crashpad_handler:_ZN5gimli4read5value5Value4shra17ha27e0ddf5b3855beE
chrome_crashpad_handler:_ZN5gimli4read5value5Value7convert17h6ebcde446e1e9159E
chrome_crashpad_handler:_ZN5gimli4read5value9ValueType8bit_size17hc33d74ffb1e39a88E
chrome_crashpad_handler:_ZN5gimli4read6abbrev10Attributes4push17h170a8f18f03d376aE
chrome_crashpad_handler:_ZN5gimli4read6abbrev12Abbreviation3new17h28567f7d91753084E
chrome_crashpad_handler:_ZN5gimli4read6abbrev13Abbreviations6insert17h2d683329dc195386E
chrome_crashpad_handler:_ZN5gimli9constants4DwAt13static_string17hed22afc28830ff43E
chrome_crashpad_handler:_ZN5gimli9constants4DwOp13static_string17h00515413af78a412E
chrome_crashpad_handler:_ZN5gimli9constants5DwTag13static_string17hb40687a176d3a24aE
chrome_crashpad_handler:_ZN5gimli9constants6DwForm13static_string17hd563d8402d43bef6E
chrome_crashpad_handler:_ZN5gimli9constants6DwLang13static_string17h789145d48548fd2eE
chrome_crashpad_handler:_ZN5serde2de5impls14OSSTR_VARIANTS17hfa1aed5be4b0f3baE
chrome_crashpad_handler:_ZN5serde2de5impls73_$LT$impl$u20$serde..de..Deserialize$u20$for$u20$core..time..Duration$GT$11deserialize14check_overflow13NANOS_PER_SEC17h2f884fd81578c81eE
chrome_crashpad_handler:_ZN5serde2de5impls74_$LT$impl$u20$serde..de..Deserialize$u20$for$u20$std..time..SystemTime$GT$11deserialize14check_overflow13NANOS_PER_SEC17h3a7989300f517a57E
chrome_crashpad_handler:_ZN5serde2de5impls79_$LT$impl$u20$serde..de..Deserialize$u20$for$u20$core..net..ip_addr..IpAddr$GT$11deserialize8VARIANTS17h606d6d1c2baf9867E
chrome_crashpad_handler:_ZN5serde2de5impls87_$LT$impl$u20$serde..de..Deserialize$u20$for$u20$core..net..socket_addr..SocketAddr$GT$11deserialize8VARIANTS17h462a8b4b8261400eE
chrome_crashpad_handler:_ZN5serde3ser3fmt85_$LT$impl$u20$serde..ser..Serializer$u20$for$u20$$RF$mut$u20$core..fmt..Formatter$GT$12serialize_i817hc45500035229185aE
chrome_crashpad_handler:_ZN5serde3ser3fmt85_$LT$impl$u20$serde..ser..Serializer$u20$for$u20$$RF$mut$u20$core..fmt..Formatter$GT$12serialize_u817h86d6d69dd0bd7483E
chrome_crashpad_handler:_ZN5serde3ser3fmt85_$LT$impl$u20$serde..ser..Serializer$u20$for$u20$$RF$mut$u20$core..fmt..Formatter$GT$13serialize_f3217h7686e36444a7276bE
chrome_crashpad_handler:_ZN5serde3ser3fmt85_$LT$impl$u20$serde..ser..Serializer$u20$for$u20$$RF$mut$u20$core..fmt..Formatter$GT$13serialize_f6417h0dba1a4062edf127E
chrome_crashpad_handler:_ZN5serde3ser3fmt85_$LT$impl$u20$serde..ser..Serializer$u20$for$u20$$RF$mut$u20$core..fmt..Formatter$GT$13serialize_i1617h2efb225593e61955E
chrome_crashpad_handler:_ZN5serde3ser3fmt85_$LT$impl$u20$serde..ser..Serializer$u20$for$u20$$RF$mut$u20$core..fmt..Formatter$GT$13serialize_i3217hd2593a9c85108d76E
chrome_crashpad_handler:_ZN5serde3ser3fmt85_$LT$impl$u20$serde..ser..Serializer$u20$for$u20$$RF$mut$u20$core..fmt..Formatter$GT$13serialize_i6417h59c5b197f166fb36E
chrome_crashpad_handler:_ZN5serde3ser3fmt85_$LT$impl$u20$serde..ser..Serializer$u20$for$u20$$RF$mut$u20$core..fmt..Formatter$GT$13serialize_str17h9145707b37dfe730E
chrome_crashpad_handler:_ZN5serde3ser3fmt85_$LT$impl$u20$serde..ser..Serializer$u20$for$u20$$RF$mut$u20$core..fmt..Formatter$GT$13serialize_u1617h9763915fbc943d8fE
chrome_crashpad_handler:_ZN5serde3ser3fmt85_$LT$impl$u20$serde..ser..Serializer$u20$for$u20$$RF$mut$u20$core..fmt..Formatter$GT$13serialize_u3217hc7a25cb9ee2bd862E
chrome_crashpad_handler:_ZN5serde3ser3fmt85_$LT$impl$u20$serde..ser..Serializer$u20$for$u20$$RF$mut$u20$core..fmt..Formatter$GT$13serialize_u6417h8ae2bebd8fb3bff6E
chrome_crashpad_handler:_ZN5serde3ser3fmt85_$LT$impl$u20$serde..ser..Serializer$u20$for$u20$$RF$mut$u20$core..fmt..Formatter$GT$14serialize_bool17h3844e8091ed1c826E
chrome_crashpad_handler:_ZN5serde3ser3fmt85_$LT$impl$u20$serde..ser..Serializer$u20$for$u20$$RF$mut$u20$core..fmt..Formatter$GT$14serialize_char17hc1bf90b41538eb62E
chrome_crashpad_handler:_ZN5serde3ser3fmt85_$LT$impl$u20$serde..ser..Serializer$u20$for$u20$$RF$mut$u20$core..fmt..Formatter$GT$14serialize_i12817ha1106e070b7f39d9E
chrome_crashpad_handler:_ZN5serde3ser3fmt85_$LT$impl$u20$serde..ser..Serializer$u20$for$u20$$RF$mut$u20$core..fmt..Formatter$GT$14serialize_u12817h5b60a60bfea9b960E
chrome_crashpad_handler:_ZN5serde3ser3fmt85_$LT$impl$u20$serde..ser..Serializer$u20$for$u20$$RF$mut$u20$core..fmt..Formatter$GT$21serialize_unit_struct17h2651418f66ce4351E
chrome_crashpad_handler:_ZN5serde3ser3fmt85_$LT$impl$u20$serde..ser..Serializer$u20$for$u20$$RF$mut$u20$core..fmt..Formatter$GT$22serialize_unit_variant17hb75ba6b0daa9786fE
chrome_crashpad_handler:_ZN5serde6format3Buf6as_str17he8655d128f953ed0E
chrome_crashpad_handler:_ZN5serde9__private2de19flat_map_take_entry17h9d95e8db0f58cf6dE
chrome_crashpad_handler:_ZN5serde9__private2de7content7Content6as_str17h025ca56e8af12feaE
chrome_crashpad_handler:_ZN5serde9__private6string15from_utf8_lossy17ha07a8e74d766898bE
chrome_crashpad_handler:_ZN60_$LT$$RF$std..pipe..PipeWriter$u20$as$u20$std..io..Write$GT$14write_vectored17h19a2ef9ee2bd72ddE
chrome_crashpad_handler:_ZN60_$LT$$RF$std..pipe..PipeWriter$u20$as$u20$std..io..Write$GT$5write17h94d1a7f70bf4c761E
chrome_crashpad_handler:_ZN60_$LT$alloc..string..String$u20$as$u20$core..clone..Clone$GT$10clone_from17h5aca913dd962e066E
chrome_crashpad_handler:_ZN60_$LT$alloc..string..String$u20$as$u20$core..clone..Clone$GT$5clone17ha2e7c92951de9820E
chrome_crashpad_handler:_ZN60_$LT$core..cell..BorrowError$u20$as$u20$core..fmt..Debug$GT$3fmt17h8786672122bc0c56E
chrome_crashpad_handler:_ZN60_$LT$core..str..lossy..Debug$u20$as$u20$core..fmt..Debug$GT$3fmt17ha2931ca51799fefbE
chrome_crashpad_handler:_ZN60_$LT$core..task..wake..Waker$u20$as$u20$core..fmt..Debug$GT$3fmt17hdd1de10fd4934a72E
chrome_crashpad_handler:_ZN60_$LT$cxx..unwind..Guard$u20$as$u20$core..ops..drop..Drop$GT$4drop17he68f6824dfd72b8cE
chrome_crashpad_handler:_ZN60_$LT$serde..de..Unexpected$u20$as$u20$core..fmt..Display$GT$3fmt17ha7c63017cab09006E
chrome_crashpad_handler:_ZN60_$LT$serde..de..value..Error$u20$as$u20$core..fmt..Debug$GT$3fmt17hb0b77b89bbcfb4c1E
chrome_crashpad_handler:_ZN60_$LT$std..ffi..os_str..OsStr$u20$as$u20$core..fmt..Debug$GT$3fmt17hdf077337652ff753E
chrome_crashpad_handler:_ZN60_$LT$std..fs..File$u20$as$u20$std..os..unix..fs..FileExt$GT$16read_vectored_at17h31a1f0c17fd0ab1aE
chrome_crashpad_handler:_ZN60_$LT$std..fs..File$u20$as$u20$std..os..unix..fs..FileExt$GT$17write_vectored_at17h6042080150b544d3E
chrome_crashpad_handler:_ZN60_$LT$std..fs..File$u20$as$u20$std..os..unix..fs..FileExt$GT$7read_at17h759054a6345198ebE
chrome_crashpad_handler:_ZN60_$LT$std..fs..File$u20$as$u20$std..os..unix..fs..FileExt$GT$8write_at17h18dd3e39f63d4829E
chrome_crashpad_handler:_ZN60_$LT$std..io..error..Error$u20$as$u20$core..error..Error$GT$11description17h67102c4527e791adE
chrome_crashpad_handler:_ZN60_$LT$std..io..error..Error$u20$as$u20$core..error..Error$GT$5cause17h730fcdb8184aaaa8E
chrome_crashpad_handler:_ZN60_$LT$std..io..error..Error$u20$as$u20$core..error..Error$GT$6source17h5470d05d358f63abE
chrome_crashpad_handler:_ZN60_$LT$std..io..error..Error$u20$as$u20$core..fmt..Display$GT$3fmt17he2e2f58ef2d1f0eaE
chrome_crashpad_handler:_ZN60_$LT$std..io..stdio..StderrRaw$u20$as$u20$std..io..Write$GT$14write_vectored17hd68429647c4190d4E
chrome_crashpad_handler:_ZN60_$LT$std..io..stdio..StderrRaw$u20$as$u20$std..io..Write$GT$18write_all_vectored17h9fb9819c6a5180f4E
chrome_crashpad_handler:_ZN60_$LT$std..io..stdio..StderrRaw$u20$as$u20$std..io..Write$GT$5flush17h768916ab802022c1E
chrome_crashpad_handler:_ZN60_$LT$std..io..stdio..StderrRaw$u20$as$u20$std..io..Write$GT$5write17h8866fb8275995960E
chrome_crashpad_handler:_ZN60_$LT$std..io..stdio..StderrRaw$u20$as$u20$std..io..Write$GT$9write_all17ha5a0e028b7be88d4E
chrome_crashpad_handler:_ZN60_$LT$std..io..stdio..StderrRaw$u20$as$u20$std..io..Write$GT$9write_fmt17h22472363ce37fcd2E
chrome_crashpad_handler:_ZN60_$LT$std..io..stdio..StdoutRaw$u20$as$u20$std..io..Write$GT$14write_vectored17hd311d4998b7fc74bE
chrome_crashpad_handler:_ZN60_$LT$std..io..stdio..StdoutRaw$u20$as$u20$std..io..Write$GT$18write_all_vectored17h23e187d48b046aacE
chrome_crashpad_handler:_ZN60_$LT$std..io..stdio..StdoutRaw$u20$as$u20$std..io..Write$GT$5flush17hf9705e1230548962E
chrome_crashpad_handler:_ZN60_$LT$std..io..stdio..StdoutRaw$u20$as$u20$std..io..Write$GT$5write17h4b26eac9bd9187d4E
chrome_crashpad_handler:_ZN60_$LT$std..io..stdio..StdoutRaw$u20$as$u20$std..io..Write$GT$9write_all17hb57aefe5202df4d9E
chrome_crashpad_handler:_ZN60_$LT$std..io..stdio..StdoutRaw$u20$as$u20$std..io..Write$GT$9write_fmt17h161de762f71aa684E
chrome_crashpad_handler:_ZN60_$LT$std..time..Instant$u20$as$u20$core..ops..arith..Sub$GT$3sub17h4465be866cf7e883E
chrome_crashpad_handler:_ZN60_$LT$str$u20$as$u20$std..net..socket_addr..ToSocketAddrs$GT$15to_socket_addrs17h87ed3c1ea8c03a69E
chrome_crashpad_handler:_ZN61_$LT$$RF$std..io..stdio..Stderr$u20$as$u20$std..io..Write$GT$14write_vectored17h98878a756ac1b589E
chrome_crashpad_handler:_ZN61_$LT$$RF$std..io..stdio..Stderr$u20$as$u20$std..io..Write$GT$18write_all_vectored17hc6e34b84a2e8d3a6E
chrome_crashpad_handler:_ZN61_$LT$$RF$std..io..stdio..Stderr$u20$as$u20$std..io..Write$GT$5flush17h88d6a8b7daeebb36E
chrome_crashpad_handler:_ZN61_$LT$$RF$std..io..stdio..Stderr$u20$as$u20$std..io..Write$GT$5write17h13d87d48bd14347aE
chrome_crashpad_handler:_ZN61_$LT$$RF$std..io..stdio..Stderr$u20$as$u20$std..io..Write$GT$9write_all17h17f1651fad5195dcE
chrome_crashpad_handler:_ZN61_$LT$$RF$std..io..stdio..Stderr$u20$as$u20$std..io..Write$GT$9write_fmt17hfd530805b4772e3eE
chrome_crashpad_handler:_ZN61_$LT$$RF$std..io..stdio..Stdout$u20$as$u20$std..io..Write$GT$14write_vectored17h1fa1c6d179b973ccE
chrome_crashpad_handler:_ZN61_$LT$$RF$std..io..stdio..Stdout$u20$as$u20$std..io..Write$GT$18write_all_vectored17hd2f924871bbfadfdE
chrome_crashpad_handler:_ZN61_$LT$$RF$std..io..stdio..Stdout$u20$as$u20$std..io..Write$GT$5flush17h4dd7c30ec0f9fedaE
chrome_crashpad_handler:_ZN61_$LT$$RF$std..io..stdio..Stdout$u20$as$u20$std..io..Write$GT$5write17h5c8cdc1a55361e59E
chrome_crashpad_handler:_ZN61_$LT$$RF$std..io..stdio..Stdout$u20$as$u20$std..io..Write$GT$9write_all17hd250e449e560c964E
chrome_crashpad_handler:_ZN61_$LT$$RF$std..io..stdio..Stdout$u20$as$u20$std..io..Write$GT$9write_fmt17h3d975f4f4674f3c1E
chrome_crashpad_handler:_ZN61_$LT$cxx..string..CxxString$u20$as$u20$core..fmt..Display$GT$3fmt17hd71489b4f303a62aE
chrome_crashpad_handler:_ZN61_$LT$gimli..constants..DwAt$u20$as$u20$core..fmt..Display$GT$3fmt17h25ac17058df5851aE
chrome_crashpad_handler:_ZN61_$LT$gimli..constants..DwCc$u20$as$u20$core..fmt..Display$GT$3fmt17hea4d40962cff6012E
chrome_crashpad_handler:_ZN61_$LT$gimli..constants..DwDs$u20$as$u20$core..fmt..Display$GT$3fmt17h2363a231ea3ff77cE
chrome_crashpad_handler:_ZN61_$LT$gimli..constants..DwId$u20$as$u20$core..fmt..Display$GT$3fmt17h1efb2376cbc4adbaE
chrome_crashpad_handler:_ZN61_$LT$gimli..constants..DwOp$u20$as$u20$core..fmt..Display$GT$3fmt17h571c4b1cbffd58a6E
chrome_crashpad_handler:_ZN61_$LT$gimli..constants..DwUt$u20$as$u20$core..fmt..Display$GT$3fmt17h6a20da44794abd07E
chrome_crashpad_handler:_ZN61_$LT$rustc_demangle..Demangle$u20$as$u20$core..fmt..Debug$GT$3fmt17h76dd06a7c323cffbE
chrome_crashpad_handler:_ZN61_$LT$std..io..stdio..StderrLock$u20$as$u20$std..io..Write$GT$14write_vectored17hfea9b1a51c7b060fE
chrome_crashpad_handler:_ZN61_$LT$std..io..stdio..StderrLock$u20$as$u20$std..io..Write$GT$18write_all_vectored17hbf2f31313cdf94ebE
chrome_crashpad_handler:_ZN61_$LT$std..io..stdio..StderrLock$u20$as$u20$std..io..Write$GT$5flush17h913e9fe56ba8013dE
chrome_crashpad_handler:_ZN61_$LT$std..io..stdio..StderrLock$u20$as$u20$std..io..Write$GT$5write17haa90c42173829ec3E
chrome_crashpad_handler:_ZN61_$LT$std..io..stdio..StderrLock$u20$as$u20$std..io..Write$GT$9write_all17h448aafac07867db6E
chrome_crashpad_handler:_ZN61_$LT$std..io..stdio..StdoutLock$u20$as$u20$std..io..Write$GT$14write_vectored17h7557b4a7ef5d65e0E
chrome_crashpad_handler:_ZN61_$LT$std..io..stdio..StdoutLock$u20$as$u20$std..io..Write$GT$18write_all_vectored17h6b5338f74557de79E
chrome_crashpad_handler:_ZN61_$LT$std..io..stdio..StdoutLock$u20$as$u20$std..io..Write$GT$5flush17h881f59faf650febcE
chrome_crashpad_handler:_ZN61_$LT$std..io..stdio..StdoutLock$u20$as$u20$std..io..Write$GT$5write17heedf1e61a9111fa5E
chrome_crashpad_handler:_ZN61_$LT$std..io..stdio..StdoutLock$u20$as$u20$std..io..Write$GT$9write_all17h0e5a6296b1e3fb5eE
chrome_crashpad_handler:_ZN61_$LT$std..net..tcp..TcpStream$u20$as$u20$core..fmt..Debug$GT$3fmt17hed707f7a8c181c88E
chrome_crashpad_handler:_ZN61_$LT$std..net..udp..UdpSocket$u20$as$u20$core..fmt..Debug$GT$3fmt17h5d562e1283c4370bE
chrome_crashpad_handler:_ZN61_$LT$std..process..ChildStdin$u20$as$u20$core..fmt..Debug$GT$3fmt17h93355c63306e5213E
chrome_crashpad_handler:_ZN62_$LT$$RF$std..net..tcp..TcpStream$u20$as$u20$std..io..Read$GT$13read_vectored17hec236d52fe7a93dbE
chrome_crashpad_handler:_ZN62_$LT$$RF$std..net..tcp..TcpStream$u20$as$u20$std..io..Read$GT$4read17h4fc6dc86c1dfdd92E
chrome_crashpad_handler:_ZN62_$LT$$RF$std..net..tcp..TcpStream$u20$as$u20$std..io..Read$GT$8read_buf17hc519322e34fc9c73E
chrome_crashpad_handler:_ZN62_$LT$alloc..string..Drain$u20$as$u20$core..ops..drop..Drop$GT$4drop17h245a3c578ac25276E
chrome_crashpad_handler:_ZN62_$LT$core..alloc..AllocError$u20$as$u20$core..fmt..Display$GT$3fmt17he5653023ba2ebdf1E
chrome_crashpad_handler:_ZN62_$LT$core..cell..BorrowError$u20$as$u20$core..fmt..Display$GT$3fmt17h08fb9aab5653b8b0E
chrome_crashpad_handler:_ZN62_$LT$core..char..EscapeDebug$u20$as$u20$core..fmt..Display$GT$3fmt17hb7b005731851a638E
chrome_crashpad_handler:_ZN62_$LT$core..char..ToLowercase$u20$as$u20$core..fmt..Display$GT$3fmt17heebc0f1cc6cdde0eE
chrome_crashpad_handler:_ZN62_$LT$core..char..ToUppercase$u20$as$u20$core..fmt..Display$GT$3fmt17hf630d721be6e291bE
chrome_crashpad_handler:_ZN62_$LT$core..num..bignum..Big32x40$u20$as$u20$core..cmp..Ord$GT$3cmp17h955c084504460c26E
chrome_crashpad_handler:_ZN62_$LT$core..task..wake..Context$u20$as$u20$core..fmt..Debug$GT$3fmt17h97a2c98abfff6c80E
chrome_crashpad_handler:_ZN62_$LT$gimli..constants..DwAte$u20$as$u20$core..fmt..Display$GT$3fmt17h84f37e2630cae689E
chrome_crashpad_handler:_ZN62_$LT$gimli..constants..DwCfa$u20$as$u20$core..fmt..Display$GT$3fmt17heb71571cfdf482a3E
chrome_crashpad_handler:_ZN62_$LT$gimli..constants..DwDsc$u20$as$u20$core..fmt..Display$GT$3fmt17h9e89af72b1f638cfE
chrome_crashpad_handler:_ZN62_$LT$gimli..constants..DwEnd$u20$as$u20$core..fmt..Display$GT$3fmt17h922e6be77d518ed2E
chrome_crashpad_handler:_ZN62_$LT$gimli..constants..DwIdx$u20$as$u20$core..fmt..Display$GT$3fmt17hf52841b81efa0d91E
chrome_crashpad_handler:_ZN62_$LT$gimli..constants..DwInl$u20$as$u20$core..fmt..Display$GT$3fmt17h3eb6d484e63d1c15E
chrome_crashpad_handler:_ZN62_$LT$gimli..constants..DwLle$u20$as$u20$core..fmt..Display$GT$3fmt17hb378f6d2abf95754E
chrome_crashpad_handler:_ZN62_$LT$gimli..constants..DwLne$u20$as$u20$core..fmt..Display$GT$3fmt17hb1e2e150323be628E
chrome_crashpad_handler:_ZN62_$LT$gimli..constants..DwLns$u20$as$u20$core..fmt..Display$GT$3fmt17h518ac1399c741d4aE
chrome_crashpad_handler:_ZN62_$LT$gimli..constants..DwOrd$u20$as$u20$core..fmt..Display$GT$3fmt17hbb52e1143bf86351E
chrome_crashpad_handler:_ZN62_$LT$gimli..constants..DwRle$u20$as$u20$core..fmt..Display$GT$3fmt17he30a2d62ed13c4ecE
chrome_crashpad_handler:_ZN62_$LT$gimli..constants..DwTag$u20$as$u20$core..fmt..Display$GT$3fmt17h73f0c72547533b7eE
chrome_crashpad_handler:_ZN62_$LT$gimli..constants..DwVis$u20$as$u20$core..fmt..Display$GT$3fmt17hdfbe710c3142ffe8E
chrome_crashpad_handler:_ZN62_$LT$object..read..util..Bytes$u20$as$u20$core..fmt..Debug$GT$3fmt17hb3a3cb402736b6c2E
chrome_crashpad_handler:_ZN62_$LT$serde..de..value..Error$u20$as$u20$core..fmt..Display$GT$3fmt17hc35925b2179d226eE
chrome_crashpad_handler:_ZN62_$LT$std..backtrace..Backtrace$u20$as$u20$core..fmt..Debug$GT$3fmt17h13bdc3be633155b5E
chrome_crashpad_handler:_ZN62_$LT$std..ffi..os_str..Display$u20$as$u20$core..fmt..Debug$GT$3fmt17h1c5e1793b8e17bb5E
chrome_crashpad_handler:_ZN62_$LT$std..io..stdio..StdinLock$u20$as$u20$core..fmt..Debug$GT$3fmt17h7bf57064b657a895E
chrome_crashpad_handler:_ZN62_$LT$std..io..stdio..StdinLock$u20$as$u20$std..io..BufRead$GT$10read_until17h41fe624281bf706bE
chrome_crashpad_handler:_ZN62_$LT$std..io..stdio..StdinLock$u20$as$u20$std..io..BufRead$GT$7consume17hc48c52a9c78c9cc9E
chrome_crashpad_handler:_ZN62_$LT$std..io..stdio..StdinLock$u20$as$u20$std..io..BufRead$GT$8fill_buf17h82e287ad17830632E
chrome_crashpad_handler:_ZN62_$LT$std..io..stdio..StdinLock$u20$as$u20$std..io..BufRead$GT$9read_line17h79a15bd31a718134E
chrome_crashpad_handler:_ZN62_$LT$std..process..ChildStderr$u20$as$u20$core..fmt..Debug$GT$3fmt17h18c20b6571c4b01bE
chrome_crashpad_handler:_ZN62_$LT$std..process..ChildStdout$u20$as$u20$core..fmt..Debug$GT$3fmt17hdad04afca8e275f6E
chrome_crashpad_handler:_ZN63_$LT$$RF$std..net..tcp..TcpStream$u20$as$u20$std..io..Write$GT$14write_vectored17h136285166b2d35b1E
chrome_crashpad_handler:_ZN63_$LT$$RF$std..net..tcp..TcpStream$u20$as$u20$std..io..Write$GT$5write17h9a3adf166e961969E
chrome_crashpad_handler:_ZN63_$LT$$RF$std..process..ChildStdin$u20$as$u20$std..io..Write$GT$14write_vectored17h743c6852b1c108edE
chrome_crashpad_handler:_ZN63_$LT$$RF$std..process..ChildStdin$u20$as$u20$std..io..Write$GT$5write17h8f2d3e8671534854E
chrome_crashpad_handler:_ZN63_$LT$alloc..ffi..c_str..CString$u20$as$u20$core..fmt..Debug$GT$3fmt17h64eab36ed75406e8E
chrome_crashpad_handler:_ZN63_$LT$core..ascii..EscapeDefault$u20$as$u20$core..fmt..Debug$GT$3fmt17hbda6f8af1ffa7f31E
chrome_crashpad_handler:_ZN63_$LT$core..cell..BorrowMutError$u20$as$u20$core..fmt..Debug$GT$3fmt17h493d5f0d91451292E
chrome_crashpad_handler:_ZN63_$LT$core..net..ip_addr..IpAddr$u20$as$u20$core..fmt..Debug$GT$3fmt17h33a6f60dd2d0161dE
chrome_crashpad_handler:_ZN63_$LT$cxx..string..CxxString$u20$as$u20$core..cmp..PartialEq$GT$2eq17hba51d31335d2c9dcE
chrome_crashpad_handler:_ZN63_$LT$gimli..constants..DwAddr$u20$as$u20$core..fmt..Display$GT$3fmt17ha4250f283fb1ec3eE
chrome_crashpad_handler:_ZN63_$LT$gimli..constants..DwEhPe$u20$as$u20$core..fmt..Display$GT$3fmt17h4036eb72c0d37fd3E
chrome_crashpad_handler:_ZN63_$LT$gimli..constants..DwForm$u20$as$u20$core..fmt..Display$GT$3fmt17h78865232c7242e52E
chrome_crashpad_handler:_ZN63_$LT$gimli..constants..DwLang$u20$as$u20$core..fmt..Display$GT$3fmt17h3966b489a085e0b7E
chrome_crashpad_handler:_ZN63_$LT$gimli..constants..DwLnct$u20$as$u20$core..fmt..Display$GT$3fmt17hfc0c4986987aa321E
chrome_crashpad_handler:_ZN63_$LT$gimli..constants..DwSect$u20$as$u20$core..fmt..Display$GT$3fmt17hef7d621f3e1c5ac8E
chrome_crashpad_handler:_ZN63_$LT$rustc_demangle..Demangle$u20$as$u20$core..fmt..Display$GT$3fmt17h63c473faf6837939E
chrome_crashpad_handler:_ZN63_$LT$std..env..JoinPathsError$u20$as$u20$core..fmt..Display$GT$3fmt17hfb40731bb8ff8638E
chrome_crashpad_handler:_ZN63_$LT$std..ffi..os_str..OsString$u20$as$u20$core..fmt..Debug$GT$3fmt17h047a28d6a5160f73E
chrome_crashpad_handler:_ZN63_$LT$std..ffi..os_str..OsString$u20$as$u20$core..fmt..Write$GT$9write_str17haaadb1fcd96a7133E
chrome_crashpad_handler:_ZN63_$LT$std..io..stdio..StderrLock$u20$as$u20$core..fmt..Debug$GT$3fmt17had302e70de74b92dE
chrome_crashpad_handler:_ZN63_$LT$std..io..stdio..StdoutLock$u20$as$u20$core..fmt..Debug$GT$3fmt17h4468c8c84c64e535E
chrome_crashpad_handler:_ZN63_$LT$std..net..tcp..TcpListener$u20$as$u20$core..fmt..Debug$GT$3fmt17h059429a220f5560eE
chrome_crashpad_handler:_ZN63_$LT$std..process..ExitStatus$u20$as$u20$core..fmt..Display$GT$3fmt17h10a4b62616c603f9E
chrome_crashpad_handler:_ZN63_$LT$std..sync..once..OnceState$u20$as$u20$core..fmt..Debug$GT$3fmt17hcfb07cc32c498e14E
chrome_crashpad_handler:_ZN63_$LT$std..thread..scoped..Scope$u20$as$u20$core..fmt..Debug$GT$3fmt17h54b4149071cf2856E
chrome_crashpad_handler:_ZN63_$LT$str$u20$as$u20$serde_json_lenient..value..index..Index$GT$10index_into17hd917897f3db07fdeE
chrome_crashpad_handler:_ZN63_$LT$str$u20$as$u20$serde_json_lenient..value..index..Index$GT$14index_into_mut17hdff2d6e0a6480909E
chrome_crashpad_handler:_ZN63_$LT$str$u20$as$u20$serde_json_lenient..value..index..Index$GT$15index_or_insert17he1066b68474bcc80E
chrome_crashpad_handler:_ZN64_$LT$core..char..EscapeDefault$u20$as$u20$core..fmt..Display$GT$3fmt17hbe7afa1cd19dbf66E
chrome_crashpad_handler:_ZN64_$LT$core..char..EscapeUnicode$u20$as$u20$core..fmt..Display$GT$3fmt17h1ceb3181378657f5E
chrome_crashpad_handler:_ZN64_$LT$core..num..bignum..Big32x40$u20$as$u20$core..fmt..Debug$GT$3fmt17h8188fa2f747f3e96E
chrome_crashpad_handler:_ZN64_$LT$core..ops..range..RangeFull$u20$as$u20$core..fmt..Debug$GT$3fmt17h3d39434789832c8aE
chrome_crashpad_handler:_ZN64_$LT$cxx..exception..Exception$u20$as$u20$core..fmt..Display$GT$3fmt17h2f83681858b6c6c8E
chrome_crashpad_handler:_ZN64_$LT$cxx..string..CxxString$u20$as$u20$core..cmp..PartialOrd$GT$11partial_cmp17hbe00557b4b78c53cE
chrome_crashpad_handler:_ZN64_$LT$gimli..constants..DwMacro$u20$as$u20$core..fmt..Display$GT$3fmt17h4548069aaeed3ca1E
chrome_crashpad_handler:_ZN64_$LT$object..read..SymbolIndex$u20$as$u20$core..fmt..Display$GT$3fmt17hd5d913ac9b0e81cbE
chrome_crashpad_handler:_ZN64_$LT$rustc_demangle..v0..Ident$u20$as$u20$core..fmt..Display$GT$3fmt17h84d52cad3f3852bcE
chrome_crashpad_handler:_ZN64_$LT$std..backtrace..Backtrace$u20$as$u20$core..fmt..Display$GT$3fmt17hd64a6fe38ed618a8E
chrome_crashpad_handler:_ZN64_$LT$std..backtrace..BytesOrWide$u20$as$u20$core..fmt..Debug$GT$3fmt17h877b0e1922c67266E
chrome_crashpad_handler:_ZN64_$LT$std..ffi..os_str..Display$u20$as$u20$core..fmt..Display$GT$3fmt17hc2c956bd704af22fE
chrome_crashpad_handler:_ZN64_$LT$std..io..error..ErrorKind$u20$as$u20$core..fmt..Display$GT$3fmt17he73da2bb70d2f7b5E
chrome_crashpad_handler:_ZN64_$LT$std..os..fd..owned..OwnedFd$u20$as$u20$core..fmt..Debug$GT$3fmt17h1159ca700da27372E
chrome_crashpad_handler:_ZN64_$LT$std..panic..PanicHookInfo$u20$as$u20$core..fmt..Display$GT$3fmt17h09a6b3f5c484c678E
chrome_crashpad_handler:_ZN64_$LT$std..sync..barrier..Barrier$u20$as$u20$core..fmt..Debug$GT$3fmt17h56273d6e52378d68E
chrome_crashpad_handler:_ZN64_$LT$std..sync..condvar..Condvar$u20$as$u20$core..fmt..Debug$GT$3fmt17h2c6399260a6c3d4fE
chrome_crashpad_handler:_ZN64_$LT$std..sys_common..wtf8..Wtf8$u20$as$u20$core..fmt..Debug$GT$3fmt17hc55739a8ba77ba7bE
chrome_crashpad_handler:_ZN65_$LT$core..ascii..EscapeDefault$u20$as$u20$core..fmt..Display$GT$3fmt17h9b48cff28c386af1E
chrome_crashpad_handler:_ZN65_$LT$core..cell..BorrowMutError$u20$as$u20$core..fmt..Display$GT$3fmt17h7b04eb838e30d2a7E
chrome_crashpad_handler:_ZN65_$LT$core..net..ip_addr..IpAddr$u20$as$u20$core..fmt..Display$GT$3fmt17hf5660ad15165239bE
chrome_crashpad_handler:_ZN65_$LT$core..net..ip_addr..Ipv4Addr$u20$as$u20$core..fmt..Debug$GT$3fmt17h58be7847b89529f8E
chrome_crashpad_handler:_ZN65_$LT$core..net..ip_addr..Ipv6Addr$u20$as$u20$core..fmt..Debug$GT$3fmt17hd0252ff9680c704bE
chrome_crashpad_handler:_ZN65_$LT$core..str..iter..EncodeUtf16$u20$as$u20$core..fmt..Debug$GT$3fmt17hec1428365e319ddcE
chrome_crashpad_handler:_ZN65_$LT$core..str..lossy..Utf8Chunks$u20$as$u20$core..fmt..Debug$GT$3fmt17h3f9cedab943cc465E
chrome_crashpad_handler:_ZN65_$LT$core..sync..atomic..AtomicI8$u20$as$u20$core..fmt..Debug$GT$3fmt17h03e38234d8ab117bE
chrome_crashpad_handler:_ZN65_$LT$core..sync..atomic..AtomicU8$u20$as$u20$core..fmt..Debug$GT$3fmt17h5140d9962e3a297aE
chrome_crashpad_handler:_ZN65_$LT$core..task..wake..LocalWaker$u20$as$u20$core..fmt..Debug$GT$3fmt17h556123df4385f489E
chrome_crashpad_handler:_ZN65_$LT$gimli..constants..DwAccess$u20$as$u20$core..fmt..Display$GT$3fmt17hc0c8f0a1b9499edeE
chrome_crashpad_handler:_ZN65_$LT$gimli..constants..DwSectV2$u20$as$u20$core..fmt..Display$GT$3fmt17h3979a36a40c19b3bE
chrome_crashpad_handler:_ZN65_$LT$object..read..SectionIndex$u20$as$u20$core..fmt..Display$GT$3fmt17hc4d6dbb1c68988caE
chrome_crashpad_handler:_ZN65_$LT$object..read..util..DebugLen$u20$as$u20$core..fmt..Debug$GT$3fmt17h1a33739f513d4a03E
chrome_crashpad_handler:_ZN65_$LT$std..sync..mpsc..RecvError$u20$as$u20$core..fmt..Display$GT$3fmt17h70c56de90ce5c8e7E
chrome_crashpad_handler:_ZN65_$LT$std..sys..os_str..bytes..Buf$u20$as$u20$core..fmt..Debug$GT$3fmt17h45d5224fa8030f56E
chrome_crashpad_handler:_ZN65_$LT$std..sys..pal..unix..os..Env$u20$as$u20$core..fmt..Debug$GT$3fmt17h956b18c6f6b1c37aE
chrome_crashpad_handler:_ZN65_$LT$std..thread..PanicGuard$u20$as$u20$core..ops..drop..Drop$GT$4drop17h1f988e844e4fed13E
chrome_crashpad_handler:_ZN65_$LT$std..time..SystemTimeError$u20$as$u20$core..fmt..Display$GT$3fmt17h6678c77593303c11E
chrome_crashpad_handler:_ZN65_$LT$usize$u20$as$u20$serde_json_lenient..value..index..Index$GT$15index_or_insert17h792d3d4f924b77d4E
chrome_crashpad_handler:_ZN65third_uparty_srust_sserde_ujson_ulenient_sv0_u2_swrapper_cwrapper11decode_json17h56cf488700174268E
chrome_crashpad_handler:_ZN65third_uparty_srust_sserde_ujson_ulenient_sv0_u2_swrapper_cwrapper3ffi9Functions12dict_set_f6417h6c1a485b2a75f841E
chrome_crashpad_handler:_ZN65third_uparty_srust_sserde_ujson_ulenient_sv0_u2_swrapper_cwrapper3ffi9Functions12dict_set_i3217he5809bf0e26e3981E
chrome_crashpad_handler:_ZN65third_uparty_srust_sserde_ujson_ulenient_sv0_u2_swrapper_cwrapper3ffi9Functions12dict_set_str17h0291de06692585d3E
chrome_crashpad_handler:_ZN65third_uparty_srust_sserde_ujson_ulenient_sv0_u2_swrapper_cwrapper3ffi9Functions13dict_set_bool17h0e1a05dba234f0c6E
chrome_crashpad_handler:_ZN65third_uparty_srust_sserde_ujson_ulenient_sv0_u2_swrapper_cwrapper3ffi9Functions13dict_set_dict17hae0473815d72c9b3E
chrome_crashpad_handler:_ZN65third_uparty_srust_sserde_ujson_ulenient_sv0_u2_swrapper_cwrapper3ffi9Functions13dict_set_list17h1b3a2e329ae4580dE
chrome_crashpad_handler:_ZN65third_uparty_srust_sserde_ujson_ulenient_sv0_u2_swrapper_cwrapper3ffi9Functions13dict_set_none17h6658a79bcb8ef9ffE
chrome_crashpad_handler:_ZN65third_uparty_srust_sserde_ujson_ulenient_sv0_u2_swrapper_cwrapper3ffi9Functions15list_append_f6417he915929b60319da0E
chrome_crashpad_handler:_ZN65third_uparty_srust_sserde_ujson_ulenient_sv0_u2_swrapper_cwrapper3ffi9Functions15list_append_i3217had9b002f0e72af3aE
chrome_crashpad_handler:_ZN65third_uparty_srust_sserde_ujson_ulenient_sv0_u2_swrapper_cwrapper3ffi9Functions15list_append_str17hbb76ffa213270ea5E
chrome_crashpad_handler:_ZN65third_uparty_srust_sserde_ujson_ulenient_sv0_u2_swrapper_cwrapper3ffi9Functions16list_append_bool17h1e30e7467d147df5E
chrome_crashpad_handler:_ZN65third_uparty_srust_sserde_ujson_ulenient_sv0_u2_swrapper_cwrapper3ffi9Functions16list_append_dict17h96be5c35d64d8f40E
chrome_crashpad_handler:_ZN65third_uparty_srust_sserde_ujson_ulenient_sv0_u2_swrapper_cwrapper3ffi9Functions16list_append_list17h714e4650cb99fe8fE
chrome_crashpad_handler:_ZN65third_uparty_srust_sserde_ujson_ulenient_sv0_u2_swrapper_cwrapper3ffi9Functions16list_append_none17h3f205818df9e1bc2E
chrome_crashpad_handler:_ZN66_$LT$adler..algo..U32X4$u20$as$u20$core..ops..arith..AddAssign$GT$10add_assign17h3be09526f778d6e9E
chrome_crashpad_handler:_ZN66_$LT$alloc..ffi..c_str..NulError$u20$as$u20$core..fmt..Display$GT$3fmt17ha94a446e2188ceb8E
chrome_crashpad_handler:_ZN66_$LT$core..str..error..Utf8Error$u20$as$u20$core..fmt..Display$GT$3fmt17h5408aa6a80eca3e4E
chrome_crashpad_handler:_ZN66_$LT$core..sync..atomic..AtomicI16$u20$as$u20$core..fmt..Debug$GT$3fmt17hc86a153e893389dfE
chrome_crashpad_handler:_ZN66_$LT$core..sync..atomic..AtomicI32$u20$as$u20$core..fmt..Debug$GT$3fmt17h48760a9f4c2c0499E
chrome_crashpad_handler:_ZN66_$LT$core..sync..atomic..AtomicI64$u20$as$u20$core..fmt..Debug$GT$3fmt17he468da677c6a1b87E
chrome_crashpad_handler:_ZN66_$LT$core..sync..atomic..AtomicU16$u20$as$u20$core..fmt..Debug$GT$3fmt17h1115b42b8f27925fE
chrome_crashpad_handler:_ZN66_$LT$core..sync..atomic..AtomicU32$u20$as$u20$core..fmt..Debug$GT$3fmt17h91889199b0e3d26bE
chrome_crashpad_handler:_ZN66_$LT$core..sync..atomic..AtomicU64$u20$as$u20$core..fmt..Debug$GT$3fmt17h4755e4753f41e980E
chrome_crashpad_handler:_ZN66_$LT$cxx..string..StackString$u20$as$u20$core..ops..drop..Drop$GT$4drop17hf2ae86f8b8e5ce5fE
chrome_crashpad_handler:_ZN66_$LT$dyn$u20$serde..de..Expected$u20$as$u20$core..fmt..Display$GT$3fmt17h6ca9e6db240b7e0eE
chrome_crashpad_handler:_ZN66_$LT$object..read..util..DebugByte$u20$as$u20$core..fmt..Debug$GT$3fmt17h10911b4fd0148fe1E
chrome_crashpad_handler:_ZN66_$LT$serde..de..WithDecimalPoint$u20$as$u20$core..fmt..Display$GT$3fmt17h8c435beb7d96814dE
chrome_crashpad_handler:_ZN66_$LT$std..path..StripPrefixError$u20$as$u20$core..fmt..Display$GT$3fmt17h99f2a56e2c5d3f70E
chrome_crashpad_handler:_ZN66_$LT$std..sys..pal..unix..fs..File$u20$as$u20$core..fmt..Debug$GT$3fmt17h368b095625e1a0faE
chrome_crashpad_handler:_ZN66_$LT$std..sys..pal..unix..fs..Mode$u20$as$u20$core..fmt..Debug$GT$3fmt17h1feed57538d50322E
chrome_crashpad_handler:_ZN66_$LT$std..sys_common..wtf8..Wtf8$u20$as$u20$core..fmt..Display$GT$3fmt17h36afdf741c81c4b4E
chrome_crashpad_handler:_ZN67_$LT$alloc..boxed..Box$LT$str$GT$$u20$as$u20$core..clone..Clone$GT$5clone17hd831cccf6a625bf8E
chrome_crashpad_handler:_ZN67_$LT$alloc..string..FromUtf8Error$u20$as$u20$core..fmt..Display$GT$3fmt17h91289a58b091a7f4E
chrome_crashpad_handler:_ZN67_$LT$core..char..TryFromCharError$u20$as$u20$core..fmt..Display$GT$3fmt17hf9b271512be3e11cE
chrome_crashpad_handler:_ZN67_$LT$core..net..ip_addr..Ipv4Addr$u20$as$u20$core..fmt..Display$GT$3fmt17hf611ada091e8f386E
chrome_crashpad_handler:_ZN67_$LT$core..net..ip_addr..Ipv6Addr$u20$as$u20$core..fmt..Display$GT$3fmt17h20527e863a5da3f9E
chrome_crashpad_handler:_ZN67_$LT$core..num..bignum..tests..Big8x3$u20$as$u20$core..cmp..Ord$GT$3cmp17h9c2e9eca4f1a50b0E
chrome_crashpad_handler:_ZN67_$LT$core..str..iter..EscapeDebug$u20$as$u20$core..fmt..Display$GT$3fmt17h676b6a30b5a8a6feE
chrome_crashpad_handler:_ZN67_$LT$core..sync..atomic..AtomicBool$u20$as$u20$core..fmt..Debug$GT$3fmt17ha8b7c94f5394cac1E
chrome_crashpad_handler:_ZN67_$LT$gimli..constants..DwChildren$u20$as$u20$core..fmt..Display$GT$3fmt17h853b439828f1da00E
chrome_crashpad_handler:_ZN67_$LT$object..read..util..ByteString$u20$as$u20$core..fmt..Debug$GT$3fmt17ha17891ed984cffd2E
chrome_crashpad_handler:_ZN67_$LT$rustc_demangle..v0..Demangle$u20$as$u20$core..fmt..Display$GT$3fmt17hb76ad57359165d0aE
chrome_crashpad_handler:_ZN67_$LT$serde..__private..doc..Error$u20$as$u20$core..error..Error$GT$11description17hd67786e9d9d684d4E
chrome_crashpad_handler:_ZN67_$LT$serde..__private..doc..Error$u20$as$u20$core..fmt..Display$GT$3fmt17hee9edb8fd1c0ae2eE
chrome_crashpad_handler:_ZN67_$LT$serde..de..impls..StrVisitor$u20$as$u20$serde..de..Visitor$GT$9expecting17h0dbe7550245d61d4E
chrome_crashpad_handler:_ZN67_$LT$std..backtrace..BacktraceFrame$u20$as$u20$core..fmt..Debug$GT$3fmt17h47d10e804b1e3018E
chrome_crashpad_handler:_ZN67_$LT$std..hash..random..RandomState$u20$as$u20$core..fmt..Debug$GT$3fmt17h34c8295d266c552aE
chrome_crashpad_handler:_ZN67_$LT$std..os..fd..owned..BorrowedFd$u20$as$u20$core..fmt..Debug$GT$3fmt17h072f180b695708e2E
chrome_crashpad_handler:_ZN67_$LT$std..sys..os_str..bytes..Buf$u20$as$u20$core..fmt..Display$GT$3fmt17h41fbb965a2f4c189E
chrome_crashpad_handler:_ZN67_$LT$std..sys..os_str..bytes..Slice$u20$as$u20$core..fmt..Debug$GT$3fmt17h386f8f0edb7e2eaeE
chrome_crashpad_handler:_ZN67_$LT$std..sys..pal..unix..stdio..Stdin$u20$as$u20$std..io..Read$GT$13read_vectored17h7ce9cd9baa4feb1cE
chrome_crashpad_handler:_ZN67_$LT$std..sys..pal..unix..stdio..Stdin$u20$as$u20$std..io..Read$GT$4read17h89c146c7182c72adE
chrome_crashpad_handler:_ZN67_$LT$std..sys..pal..unix..stdio..Stdin$u20$as$u20$std..io..Read$GT$8read_buf17ha4ed0b9969736e97E
chrome_crashpad_handler:_ZN68_$LT$$RF$$u5b$u8$u5d$$u20$as$u20$object..read..read_ref..ReadRef$GT$19read_bytes_at_until17h1a8cf213e2fe6af0E
chrome_crashpad_handler:_ZN68_$LT$alloc..string..FromUtf16Error$u20$as$u20$core..fmt..Display$GT$3fmt17h418b6a8b50030827E
chrome_crashpad_handler:_ZN68_$LT$core..fmt..builders..PadAdapter$u20$as$u20$core..fmt..Write$GT$10write_char17he5109aacc5fce23cE
chrome_crashpad_handler:_ZN68_$LT$core..fmt..builders..PadAdapter$u20$as$u20$core..fmt..Write$GT$9write_str17h4b53c5780840631eE
chrome_crashpad_handler:_ZN68_$LT$core..num..bignum..Big32x40$u20$as$u20$core..cmp..PartialEq$GT$2eq17h8957cb7d9f2114d0E
chrome_crashpad_handler:_ZN68_$LT$core..ptr..alignment..Alignment$u20$as$u20$core..fmt..Debug$GT$3fmt17hc6b16fe404e88cb8E
chrome_crashpad_handler:_ZN68_$LT$core..slice..ascii..EscapeAscii$u20$as$u20$core..fmt..Debug$GT$3fmt17h13d613d92b0a89d8E
chrome_crashpad_handler:_ZN68_$LT$core..sync..atomic..AtomicIsize$u20$as$u20$core..fmt..Debug$GT$3fmt17h54f15cca4d199e12E
chrome_crashpad_handler:_ZN68_$LT$core..sync..atomic..AtomicUsize$u20$as$u20$core..fmt..Debug$GT$3fmt17h129a2317750c3ea1E
chrome_crashpad_handler:_ZN68_$LT$gimli..constants..DwDefaulted$u20$as$u20$core..fmt..Display$GT$3fmt17hc542f4ee2b0d8b7bE
chrome_crashpad_handler:_ZN68_$LT$gimli..read..abbrev..Attributes$u20$as$u20$core..fmt..Debug$GT$3fmt17h224ccc17ca58a2a7E
chrome_crashpad_handler:_ZN68_$LT$rustc_demangle..DemangleStyle$u20$as$u20$core..fmt..Display$GT$3fmt17h08eef2c986f27378E
chrome_crashpad_handler:_ZN68_$LT$serde..de..impls..BoolVisitor$u20$as$u20$serde..de..Visitor$GT$9expecting17hb2ac7f9c772f29cbE
chrome_crashpad_handler:_ZN68_$LT$serde..de..impls..CharVisitor$u20$as$u20$serde..de..Visitor$GT$9expecting17h188568065a2896eaE
chrome_crashpad_handler:_ZN68_$LT$serde..de..impls..PathVisitor$u20$as$u20$serde..de..Visitor$GT$9expecting17hbc1d9a3dd4f0ab5eE
chrome_crashpad_handler:_ZN68_$LT$serde..de..impls..UnitVisitor$u20$as$u20$serde..de..Visitor$GT$9expecting17h53a73b8c7d0c2758E
chrome_crashpad_handler:_ZN68_$LT$std..backtrace..BacktraceSymbol$u20$as$u20$core..fmt..Debug$GT$3fmt17h25150c4eb4ff293bE
chrome_crashpad_handler:_ZN68_$LT$std..process..ExitStatusError$u20$as$u20$core..fmt..Display$GT$3fmt17h22a440e036a74e53E
chrome_crashpad_handler:_ZN68_$LT$std..sync..mpsc..TryRecvError$u20$as$u20$core..fmt..Display$GT$3fmt17h81091cff782b33dfE
chrome_crashpad_handler:_ZN68_$LT$std..sys..pal..unix..args..Args$u20$as$u20$core..fmt..Debug$GT$3fmt17h8433112487ac570fE
chrome_crashpad_handler:_ZN68_$LT$std..sys_common..net..TcpStream$u20$as$u20$core..fmt..Debug$GT$3fmt17h7d638671a42a033dE
chrome_crashpad_handler:_ZN68_$LT$std..sys_common..net..UdpSocket$u20$as$u20$core..fmt..Debug$GT$3fmt17h76f92027818de624E
chrome_crashpad_handler:_ZN68_$LT$std..thread..local..AccessError$u20$as$u20$core..fmt..Debug$GT$3fmt17h3af1fe699166bae8E
chrome_crashpad_handler:_ZN69_$LT$alloc..ffi..c_str..CString$u20$as$u20$core..default..Default$GT$7default17ha39db000c2b1b8e8E
chrome_crashpad_handler:_ZN69_$LT$core..ffi..c_str..CStr$u20$as$u20$core..clone..CloneToUninit$GT$15clone_to_uninit17h03c2ce78add43b5fE
chrome_crashpad_handler:_ZN69_$LT$core..num..bignum..Big32x40$u20$as$u20$core..cmp..PartialOrd$GT$11partial_cmp17hcc7eb3103728a694E
chrome_crashpad_handler:_ZN69_$LT$core..num..bignum..tests..Big8x3$u20$as$u20$core..fmt..Debug$GT$3fmt17hd8fb34dba14f95dbE
chrome_crashpad_handler:_ZN69_$LT$core..str..iter..EscapeDefault$u20$as$u20$core..fmt..Display$GT$3fmt17h36911f45e91101f2E
chrome_crashpad_handler:_ZN69_$LT$core..str..iter..EscapeUnicode$u20$as$u20$core..fmt..Display$GT$3fmt17h9767ba0dde0dc777E
chrome_crashpad_handler:_ZN69_$LT$gimli..constants..DwVirtuality$u20$as$u20$core..fmt..Display$GT$3fmt17hf74b20c2bc525a36E
chrome_crashpad_handler:_ZN69_$LT$object..read..pe..export..Export$u20$as$u20$core..fmt..Debug$GT$3fmt17hb6d290dd105eb1baE
chrome_crashpad_handler:_ZN69_$LT$serde..de..impls..BytesVisitor$u20$as$u20$serde..de..Visitor$GT$9expecting17h6e1122eaee409a99E
chrome_crashpad_handler:_ZN69_$LT$serde_json_lenient..error..Error$u20$as$u20$core..fmt..Debug$GT$3fmt17heca40665d54f13e3E
chrome_crashpad_handler:_ZN69_$LT$serde_json_lenient..error..Error$u20$as$u20$serde..de..Error$GT$12invalid_type17hc9966dd72fe5538cE
chrome_crashpad_handler:_ZN69_$LT$serde_json_lenient..error..Error$u20$as$u20$serde..de..Error$GT$13invalid_value17hba4e47a66d2d5501E
chrome_crashpad_handler:_ZN69_$LT$serde_json_lenient..value..Value$u20$as$u20$core..fmt..Debug$GT$3fmt17h6c511a67f6b83939E
chrome_crashpad_handler:_ZN69_$LT$std..fs..DirEntry$u20$as$u20$std..os..unix..fs..DirEntryExt2$GT$13file_name_ref17ha3754fc96b1c2b4fE
chrome_crashpad_handler:_ZN69_$LT$std..sync..mpmc..zero..ZeroToken$u20$as$u20$core..fmt..Debug$GT$3fmt17h663b73f747339c50E
chrome_crashpad_handler:_ZN69_$LT$std..sys..os_str..bytes..Slice$u20$as$u20$core..fmt..Display$GT$3fmt17h0181ba6f8d3e3748E
chrome_crashpad_handler:_ZN69_$LT$std..sys..pal..unix..fs..ReadDir$u20$as$u20$core..fmt..Debug$GT$3fmt17h43d2f8d58dc1f040E
chrome_crashpad_handler:_ZN69_$LT$std..sys..pal..unix..stdio..Stderr$u20$as$u20$std..io..Write$GT$14write_vectored17h91712ede4ed4ffa0E
chrome_crashpad_handler:_ZN69_$LT$std..sys..pal..unix..stdio..Stderr$u20$as$u20$std..io..Write$GT$5write17hf3d9b75b2c876037E
chrome_crashpad_handler:_ZN69_$LT$std..sys..pal..unix..stdio..Stdout$u20$as$u20$std..io..Write$GT$14write_vectored17hb7cd7ce11d67ffb0E
chrome_crashpad_handler:_ZN69_$LT$std..sys..pal..unix..stdio..Stdout$u20$as$u20$std..io..Write$GT$5write17h7e1d3f3bddd23582E
chrome_crashpad_handler:_ZN6memchr6memchr8fallback6memchr17h34b97dc0773a7d0dE
chrome_crashpad_handler:_ZN6memchr6memchr8fallback7memchr217h49b365d6b9823384E
chrome_crashpad_handler:_ZN6memchr6memchr8fallback7memchr317h22a4fbb6989dcd05E
chrome_crashpad_handler:_ZN6memchr6memchr8fallback7memrchr17h60e0707c2cf2232bE
chrome_crashpad_handler:_ZN6memchr6memchr8fallback8memrchr217h880634b1643f28a8E
chrome_crashpad_handler:_ZN6memchr6memchr8fallback8memrchr317h4c3de6b77b9c3702E
chrome_crashpad_handler:_ZN6memchr6memmem11SearcherRev3new17h941ce3b4173dfa64E
chrome_crashpad_handler:_ZN6memchr6memmem6Finder4find17h1d9f6b9a906ce4a9E
chrome_crashpad_handler:_ZN6memchr6memmem8Searcher3new17h03fd5f8bf919831eE
chrome_crashpad_handler:_ZN6memchr6memmem9rabinkarp10rfind_with17he327090c6b6e6f1dE
chrome_crashpad_handler:_ZN6memchr6memmem9rabinkarp4find17h2b23d075ba69e77aE
chrome_crashpad_handler:_ZN6memchr6memmem9rabinkarp5rfind17h240e586296398c8bE
chrome_crashpad_handler:_ZN6object3elf4hash17h0700a0019e1bb41dE
chrome_crashpad_handler:_ZN6object3elf8gnu_hash17h3645fae54f130973E
chrome_crashpad_handler:_ZN6object4read13RelocationMap8relocate17ha57acb90c8eb7a26E
chrome_crashpad_handler:_ZN6object4read2pe10relocation23RelocationBlockIterator4next17h89e7fe89bd1ce1ceE
chrome_crashpad_handler:_ZN6object4read2pe14data_directory15DataDirectories3get17h3e2df741940dbbe9E
chrome_crashpad_handler:_ZN6object4read2pe14data_directory15DataDirectories5parse17h49c8693f60702e5cE
chrome_crashpad_handler:_ZN6object4read2pe14data_directory48_$LT$impl$u20$object..pe..ImageDataDirectory$GT$10file_range17haa6be0d03518d6f7E
chrome_crashpad_handler:_ZN6object4read2pe4rich6memmem17hc8e1b3ef46e66eb1E
chrome_crashpad_handler:_ZN6object4read2pe6export11ExportTable14forward_string17h0837d84a4a1571cbE
chrome_crashpad_handler:_ZN6object4read2pe6export11ExportTable15parse_directory17h0fc83d3f6af307cbE
chrome_crashpad_handler:_ZN6object4read2pe6export11ExportTable15target_by_index17h67f9ce173bc124beE
chrome_crashpad_handler:_ZN6object4read2pe6export11ExportTable17name_from_pointer17h0b49b3eb99546475E
chrome_crashpad_handler:_ZN6object4read2pe6export11ExportTable17target_by_ordinal17h4bd105e62f9c5acbE
chrome_crashpad_handler:_ZN6object4read2pe6export11ExportTable18address_by_ordinal17hbe37ed974f122055E
chrome_crashpad_handler:_ZN6object4read2pe6export11ExportTable19target_from_address17hd485ed2dee7f7ddfE
chrome_crashpad_handler:_ZN6object4read2pe6export11ExportTable5parse17h76d04173dced4de8E
chrome_crashpad_handler:_ZN6object4read2pe6export11ExportTable7exports17h36dc99a66e481c5bE
chrome_crashpad_handler:_ZN6object4read2pe6export11ExportTable9name_iter17h8b58689b81b09b24E
chrome_crashpad_handler:_ZN6object4read2pe6import11ImportTable4name17h9046055e04f93689E
chrome_crashpad_handler:_ZN6object4read2pe6import11ImportTable9hint_name17h00ae12993e766b65E
chrome_crashpad_handler:_ZN6object4read2pe6import20DelayLoadImportTable4name17hdedc592afad221f6E
chrome_crashpad_handler:_ZN6object4read2pe6import20DelayLoadImportTable9hint_name17h7e24bc4d97dc5b32E
chrome_crashpad_handler:_ZN6object4read2pe6import24ImportDescriptorIterator4next17h5bdf1e445e1a1666E
chrome_crashpad_handler:_ZN6object4read2pe6import27DelayLoadDescriptorIterator4next17ha646c9a39ba0812dE
chrome_crashpad_handler:_ZN6object4read2pe7section48_$LT$impl$u20$object..pe..ImageSectionHeader$GT$13pe_file_range17h9996ffe112b7a37cE
chrome_crashpad_handler:_ZN6object4read2pe7section48_$LT$impl$u20$object..pe..ImageSectionHeader$GT$16pe_file_range_at17h69597df30fab18beE
chrome_crashpad_handler:_ZN6object4read2pe7section59_$LT$impl$u20$object..read..coff..section..SectionTable$GT$16pe_file_range_at17h096d8d3b5c90cad8E
chrome_crashpad_handler:_ZN6object4read2pe7section59_$LT$impl$u20$object..read..coff..section..SectionTable$GT$18section_containing17h71d9cdea7cb421a8E
chrome_crashpad_handler:_ZN6object4read2pe8resource12ResourceName15to_string_lossy17hc3404ede218149dcE
chrome_crashpad_handler:_ZN6object4read2pe8resource12ResourceName4data17ha0f9deb4d50aac28E
chrome_crashpad_handler:_ZN6object4read2pe8resource12ResourceName8raw_data17hc8604521bb28e511E
chrome_crashpad_handler:_ZN6object4read2pe8resource17ResourceDirectory4root17hb2b240d624fb54b3E
chrome_crashpad_handler:_ZN6object4read2pe8resource57_$LT$impl$u20$object..pe..ImageResourceDirectoryEntry$GT$4data17h7444b7ef47c69dbbE
chrome_crashpad_handler:_ZN6object4read3elf10attributes15AttributeReader11read_string17h0d1545a97dff5974E
chrome_crashpad_handler:_ZN6object4read3elf10attributes15AttributeReader12read_integer17h0e94900b46b17f17E
chrome_crashpad_handler:_ZN6object4read3elf10attributes15AttributeReader8read_tag17h81bfeedd039cc264E
chrome_crashpad_handler:_ZN6object4read3elf10attributes22AttributeIndexIterator4next17h2f543f4580568d76E
chrome_crashpad_handler:_ZN6object4read3elf10relocation18RelocationSections3get17h7efe22652ea937f2E
chrome_crashpad_handler:_ZN6object4read4coff6import10ImportFile5parse12strip_prefix17hd65c7a5cf3d05fb2E
chrome_crashpad_handler:_ZN6object4read4coff7section12SectionTable23max_section_file_offset17h32ef58d555063856E
chrome_crashpad_handler:_ZN6object4read4coff7section48_$LT$impl$u20$object..pe..ImageSectionHeader$GT$11name_offset17h6494b92f8e224808E
chrome_crashpad_handler:_ZN6object4read4coff7section48_$LT$impl$u20$object..pe..ImageSectionHeader$GT$8raw_name17h304ddaa3c2d6e97fE
chrome_crashpad_handler:_ZN6object4read4util5Bytes12read_sleb12817h60116e48681d6b2dE
chrome_crashpad_handler:_ZN6object4read4util5Bytes12read_uleb12817h284ca5c052d505d6E
chrome_crashpad_handler:_ZN6object4read7archive16parse_u64_digits17h6a89cea2a512345bE
chrome_crashpad_handler:_ZN6object4read7archive24parse_sysv_extended_name17h3e1c691d85ac2743E
chrome_crashpad_handler:_ZN6object4read9ObjectMap3get17hab19b3445aece334E
chrome_crashpad_handler:_ZN70_$LT$core..fmt..num..Octal$u20$as$u20$core..fmt..num..GenericRadix$GT$5digit17hebe2e62fa4aa2857E
chrome_crashpad_handler:_ZN70_$LT$core..num..error..ParseIntError$u20$as$u20$core..fmt..Display$GT$3fmt17h79d4e07af649cb8dE
chrome_crashpad_handler:_ZN70_$LT$core..slice..ascii..EscapeAscii$u20$as$u20$core..fmt..Display$GT$3fmt17h3aa9364ae803d65cE
chrome_crashpad_handler:_ZN70_$LT$cxx..rust_string..RustString$u20$as$u20$core..ops..drop..Drop$GT$4drop17h946ba5876b6235c0E
chrome_crashpad_handler:_ZN70_$LT$serde..de..impls..StringVisitor$u20$as$u20$serde..de..Visitor$GT$9expecting17ha5f402298f67e6caE
chrome_crashpad_handler:_ZN70_$LT$std..sys..pal..unix..fs..Dir$u20$as$u20$core..ops..drop..Drop$GT$4drop17hfb9c56d8e8fb8d7aE
chrome_crashpad_handler:_ZN70_$LT$std..sys..pal..unix..fs..FileType$u20$as$u20$core..fmt..Debug$GT$3fmt17h19f46c34d3dbc1dfE
chrome_crashpad_handler:_ZN70_$LT$std..sys_common..net..TcpListener$u20$as$u20$core..fmt..Debug$GT$3fmt17h6d80eb1d7e268a7fE
chrome_crashpad_handler:_ZN70_$LT$std..thread..local..AccessError$u20$as$u20$core..fmt..Display$GT$3fmt17h1db0883391607bd2E
chrome_crashpad_handler:_ZN71_$LT$$RF$std..sys..pal..unix..fd..FileDesc$u20$as$u20$std..io..Read$GT$13read_vectored17h3f71732b11e0170cE
chrome_crashpad_handler:_ZN71_$LT$$RF$std..sys..pal..unix..fd..FileDesc$u20$as$u20$std..io..Read$GT$4read17h6053386a12e2348eE
chrome_crashpad_handler:_ZN71_$LT$$RF$std..sys..pal..unix..fd..FileDesc$u20$as$u20$std..io..Read$GT$8read_buf17h3c32861311217a42E
chrome_crashpad_handler:_ZN71_$LT$core..alloc..layout..LayoutError$u20$as$u20$core..fmt..Display$GT$3fmt17hc9525feebfc178c5E
chrome_crashpad_handler:_ZN71_$LT$core..ascii..ascii_char..AsciiChar$u20$as$u20$core..fmt..Debug$GT$3fmt17h6357a9a4b7cd4df1E
chrome_crashpad_handler:_ZN71_$LT$core..fmt..num..Binary$u20$as$u20$core..fmt..num..GenericRadix$GT$5digit17h656a3ea8970a46c0E
chrome_crashpad_handler:_ZN71_$LT$core..net..socket_addr..SocketAddr$u20$as$u20$core..fmt..Debug$GT$3fmt17h440b6bc2561f4475E
chrome_crashpad_handler:_ZN71_$LT$core..str..error..ParseBoolError$u20$as$u20$core..fmt..Display$GT$3fmt17h096c6206de15dd85E
chrome_crashpad_handler:_ZN71_$LT$cxx..string..CxxString$u20$as$u20$cxx..weak_ptr..WeakPtrTarget$GT$10__typename17h5ad46a5f39e6a9e3E
chrome_crashpad_handler:_ZN71_$LT$cxx..string..CxxString$u20$as$u20$cxx..weak_ptr..WeakPtrTarget$GT$11__downgrade17he2e06d1d064393dbE
chrome_crashpad_handler:_ZN71_$LT$cxx..string..CxxString$u20$as$u20$cxx..weak_ptr..WeakPtrTarget$GT$6__drop17h0be6b8e7161e02d5E
chrome_crashpad_handler:_ZN71_$LT$cxx..string..CxxString$u20$as$u20$cxx..weak_ptr..WeakPtrTarget$GT$6__null17hf2ed5302093d0e2bE
chrome_crashpad_handler:_ZN71_$LT$cxx..string..CxxString$u20$as$u20$cxx..weak_ptr..WeakPtrTarget$GT$7__clone17h4e8d00542d28d91cE
chrome_crashpad_handler:_ZN71_$LT$cxx..string..CxxString$u20$as$u20$cxx..weak_ptr..WeakPtrTarget$GT$9__upgrade17h2d71efe74a6bad2aE
chrome_crashpad_handler:_ZN71_$LT$rustc_demangle..legacy..Demangle$u20$as$u20$core..fmt..Display$GT$3fmt17h54b35a73a96ac60aE
chrome_crashpad_handler:_ZN71_$LT$serde..de..impls..CStringVisitor$u20$as$u20$serde..de..Visitor$GT$9expecting17h3c7b7fcbd8d6e754E
chrome_crashpad_handler:_ZN71_$LT$serde..de..impls..PathBufVisitor$u20$as$u20$serde..de..Visitor$GT$9expecting17h497b4c474f3c15e7E
chrome_crashpad_handler:_ZN71_$LT$serde..de..value..ExpectedInMap$u20$as$u20$serde..de..Expected$GT$3fmt17hb3ded70e898bff36E
chrome_crashpad_handler:_ZN71_$LT$serde..de..value..ExpectedInSeq$u20$as$u20$serde..de..Expected$GT$3fmt17ha863ed669073ac63E
chrome_crashpad_handler:_ZN71_$LT$serde_json_lenient..error..Error$u20$as$u20$core..error..Error$GT$6source17h98941b687b13f960E
chrome_crashpad_handler:_ZN71_$LT$serde_json_lenient..error..Error$u20$as$u20$core..fmt..Display$GT$3fmt17h4197264ece34236cE
chrome_crashpad_handler:_ZN71_$LT$serde_json_lenient..number..Number$u20$as$u20$core..fmt..Debug$GT$3fmt17h6f037e92fd7d2c72E
chrome_crashpad_handler:_ZN71_$LT$serde_json_lenient..value..Value$u20$as$u20$core..fmt..Display$GT$3fmt17hce0e75bccb1d8038E
chrome_crashpad_handler:_ZN71_$LT$std..sys..pal..unix..time..Instant$u20$as$u20$core..fmt..Debug$GT$3fmt17hcb2732d253bf42ddE
chrome_crashpad_handler:_ZN72_$LT$$RF$str$u20$as$u20$alloc..ffi..c_str..CString..new..SpecNewImpl$GT$13spec_new_impl17hf63cb95ab7b41602E
chrome_crashpad_handler:_ZN72_$LT$alloc..string..Drain$u20$as$u20$core..convert..AsRef$LT$str$GT$$GT$6as_ref17h711579fe886d6cf2E
chrome_crashpad_handler:_ZN72_$LT$core..io..borrowed_buf..BorrowedBuf$u20$as$u20$core..fmt..Debug$GT$3fmt17h01ca26230f7359ddE
chrome_crashpad_handler:_ZN72_$LT$core..net..parser..AddrParseError$u20$as$u20$core..fmt..Display$GT$3fmt17h6974e9d5ef2930f9E
chrome_crashpad_handler:_ZN72_$LT$core..num..error..TryFromIntError$u20$as$u20$core..fmt..Display$GT$3fmt17hf6e7341147a35c2dE
chrome_crashpad_handler:_ZN72_$LT$core..time..TryFromFloatSecsError$u20$as$u20$core..fmt..Display$GT$3fmt17h9f5044a10075d470E
chrome_crashpad_handler:_ZN72_$LT$gimli..read..abbrev..Attributes$u20$as$u20$core..cmp..PartialEq$GT$2eq17he27f40be98c70d22E
chrome_crashpad_handler:_ZN72_$LT$gimli..read..endian_slice..DebugLen$u20$as$u20$core..fmt..Debug$GT$3fmt17h3a5665f6fb052c38E
chrome_crashpad_handler:_ZN72_$LT$serde..de..impls..OsStringVisitor$u20$as$u20$serde..de..Visitor$GT$9expecting17hfd2c9543eedaa9d8E
chrome_crashpad_handler:_ZN72_$LT$std..backtrace_rs..backtrace..Frame$u20$as$u20$core..fmt..Debug$GT$3fmt17h7c74aaa4270e6e15E
chrome_crashpad_handler:_ZN72_$LT$std..os..unix..net..stream..UnixStream$u20$as$u20$std..io..Read$GT$13read_vectored17h0785359e2904dbbaE
chrome_crashpad_handler:_ZN72_$LT$std..os..unix..net..stream..UnixStream$u20$as$u20$std..io..Read$GT$4read17h3fc10eb72ce12d23E
chrome_crashpad_handler:_ZN72_$LT$std..os..unix..net..stream..UnixStream$u20$as$u20$std..io..Read$GT$8read_buf17h0d83685fd2deaee5E
chrome_crashpad_handler:_ZN72_$LT$std..sync..mpsc..RecvTimeoutError$u20$as$u20$core..fmt..Display$GT$3fmt17h1e8c87e5a01092a1E
chrome_crashpad_handler:_ZN72_$LT$std..sys..pal..unix..fs..DirBuilder$u20$as$u20$core..fmt..Debug$GT$3fmt17h344e1ebeeb33f0c6E
chrome_crashpad_handler:_ZN73_$LT$$RF$alloc..string..String$u20$as$u20$core..str..pattern..Pattern$GT$13into_searcher17h84de7752d032e620E
chrome_crashpad_handler:_ZN73_$LT$alloc..ffi..c_str..IntoStringError$u20$as$u20$core..fmt..Display$GT$3fmt17h4ff3331ef4d7101aE
chrome_crashpad_handler:_ZN73_$LT$core..ascii..ascii_char..AsciiChar$u20$as$u20$core..fmt..Display$GT$3fmt17hec3778e563a69e4aE
chrome_crashpad_handler:_ZN73_$LT$core..fmt..num..LowerHex$u20$as$u20$core..fmt..num..GenericRadix$GT$5digit17h96efccb780e089acE
chrome_crashpad_handler:_ZN73_$LT$core..fmt..num..UpperHex$u20$as$u20$core..fmt..num..GenericRadix$GT$5digit17haff606bce7ef9c36E
chrome_crashpad_handler:_ZN73_$LT$core..net..socket_addr..SocketAddr$u20$as$u20$core..fmt..Display$GT$3fmt17heb60b5cf03fe3577E
chrome_crashpad_handler:_ZN73_$LT$core..net..socket_addr..SocketAddrV4$u20$as$u20$core..fmt..Debug$GT$3fmt17h81adfc48991fd823E
chrome_crashpad_handler:_ZN73_$LT$core..net..socket_addr..SocketAddrV6$u20$as$u20$core..fmt..Debug$GT$3fmt17he3447bd6a6577674E
chrome_crashpad_handler:_ZN73_$LT$core..num..bignum..tests..Big8x3$u20$as$u20$core..cmp..PartialEq$GT$2eq17h26702fa4d02add4bE
chrome_crashpad_handler:_ZN73_$LT$core..panic..panic_info..PanicInfo$u20$as$u20$core..fmt..Display$GT$3fmt17h596dd1b5a575eae0E
chrome_crashpad_handler:_ZN73_$LT$cxx..string..CxxString$u20$as$u20$cxx..cxx_vector..VectorElement$GT$10__typename17h4ed12a50bddb30ccE
chrome_crashpad_handler:_ZN73_$LT$cxx..string..CxxString$u20$as$u20$cxx..cxx_vector..VectorElement$GT$12__vector_new17h412434f4ea137110E
chrome_crashpad_handler:_ZN73_$LT$cxx..string..CxxString$u20$as$u20$cxx..cxx_vector..VectorElement$GT$13__vector_size17h3ccc73483518801eE
chrome_crashpad_handler:_ZN73_$LT$cxx..string..CxxString$u20$as$u20$cxx..cxx_vector..VectorElement$GT$15__get_unchecked17h4210ca87263ec8caE
chrome_crashpad_handler:_ZN73_$LT$cxx..string..CxxString$u20$as$u20$cxx..cxx_vector..VectorElement$GT$16__unique_ptr_get17h8222f62ba654fdd6E
chrome_crashpad_handler:_ZN73_$LT$cxx..string..CxxString$u20$as$u20$cxx..cxx_vector..VectorElement$GT$16__unique_ptr_raw17h6a079ab5c5b2d0f2E
chrome_crashpad_handler:_ZN73_$LT$cxx..string..CxxString$u20$as$u20$cxx..cxx_vector..VectorElement$GT$17__unique_ptr_drop17h7dfa85511c1f7061E
chrome_crashpad_handler:_ZN73_$LT$cxx..string..CxxString$u20$as$u20$cxx..cxx_vector..VectorElement$GT$17__unique_ptr_null17h9d257f184a870e0fE
chrome_crashpad_handler:_ZN73_$LT$cxx..string..CxxString$u20$as$u20$cxx..cxx_vector..VectorElement$GT$20__unique_ptr_release17ha3d9488edefb53e5E
chrome_crashpad_handler:_ZN73_$LT$gimli..read..endian_slice..DebugByte$u20$as$u20$core..fmt..Debug$GT$3fmt17hf353f01e5d9fe087E
chrome_crashpad_handler:_ZN73_$LT$serde..__private..ser..Unsupported$u20$as$u20$core..fmt..Display$GT$3fmt17h0fe1d345f5231ebcE
chrome_crashpad_handler:_ZN73_$LT$serde..de..ignored_any..IgnoredAny$u20$as$u20$serde..de..Visitor$GT$9expecting17hc4d98f21d1a10365E
chrome_crashpad_handler:_ZN73_$LT$serde_json_lenient..number..Number$u20$as$u20$core..fmt..Display$GT$3fmt17ha67f43efc106269aE
chrome_crashpad_handler:_ZN73_$LT$std..backtrace_rs..symbolize..Symbol$u20$as$u20$core..fmt..Debug$GT$3fmt17h35fc1d6237d6812bE
chrome_crashpad_handler:_ZN73_$LT$std..env..Args$u20$as$u20$core..iter..traits..iterator..Iterator$GT$4next17h45e3ba7561221895E
chrome_crashpad_handler:_ZN73_$LT$std..env..Args$u20$as$u20$core..iter..traits..iterator..Iterator$GT$9size_hint17h866b23f737486d1eE
chrome_crashpad_handler:_ZN73_$LT$std..env..Vars$u20$as$u20$core..iter..traits..iterator..Iterator$GT$4next17h0246a2682dcdc10eE
chrome_crashpad_handler:_ZN73_$LT$std..env..Vars$u20$as$u20$core..iter..traits..iterator..Iterator$GT$9size_hint17h4ce0fecb9a8edabbE
chrome_crashpad_handler:_ZN73_$LT$std..os..unix..net..addr..SocketAddr$u20$as$u20$core..fmt..Debug$GT$3fmt17hbdcbdaf5d8d0fbe7E
chrome_crashpad_handler:_ZN73_$LT$std..os..unix..net..stream..UnixStream$u20$as$u20$std..io..Write$GT$14write_vectored17h6c3f9c991b4ccc51E
chrome_crashpad_handler:_ZN73_$LT$std..os..unix..net..stream..UnixStream$u20$as$u20$std..io..Write$GT$5write17h7e3b78533b91e6c8E
chrome_crashpad_handler:_ZN73_$LT$std..sys..pal..unix..fs..OpenOptions$u20$as$u20$core..fmt..Debug$GT$3fmt17h50e8c8754786246cE
chrome_crashpad_handler:_ZN73_$LT$std..sys..pal..unix..os..EnvStrDebug$u20$as$u20$core..fmt..Debug$GT$3fmt17h206fb30cedb58a77E
chrome_crashpad_handler:_ZN73_$LT$std..sys_common..process..CommandEnv$u20$as$u20$core..fmt..Debug$GT$3fmt17h3b6ae7c992e0b71cE
chrome_crashpad_handler:_ZN74_$LT$alloc..collections..TryReserveError$u20$as$u20$core..fmt..Display$GT$3fmt17h05843f2484446d72E
chrome_crashpad_handler:_ZN74_$LT$core..char..convert..ParseCharError$u20$as$u20$core..fmt..Display$GT$3fmt17h96a50f53441a5b48E
chrome_crashpad_handler:_ZN74_$LT$core..num..bignum..tests..Big8x3$u20$as$u20$core..cmp..PartialOrd$GT$11partial_cmp17h18b70fc87401cdfcE
chrome_crashpad_handler:_ZN74_$LT$core..num..dec2flt..ParseFloatError$u20$as$u20$core..fmt..Display$GT$3fmt17h694bfd9f8751e0e3E
chrome_crashpad_handler:_ZN74_$LT$cxx..string..CxxString$u20$as$u20$core..cmp..PartialEq$LT$str$GT$$GT$2eq17hc3221bac64534787E
chrome_crashpad_handler:_ZN74_$LT$gimli..read..endian_slice..DebugBytes$u20$as$u20$core..fmt..Debug$GT$3fmt17hb7af2f05508bac51E
chrome_crashpad_handler:_ZN74_$LT$std..sync..barrier..BarrierWaitResult$u20$as$u20$core..fmt..Debug$GT$3fmt17h25a1eb841ed00b53E
chrome_crashpad_handler:_ZN74_$LT$std..sys..pal..unix..time..SystemTime$u20$as$u20$core..fmt..Debug$GT$3fmt17h0f20fdc90a8babd8E
chrome_crashpad_handler:_ZN74_$LT$std..sys_common..net..LookupHost$u20$as$u20$core..ops..drop..Drop$GT$4drop17ha749668ce92cbd2fE
chrome_crashpad_handler:_ZN74_$LT$std..sys_common..wtf8..Wtf8Buf$u20$as$u20$core..ops..deref..Deref$GT$5deref17h2452bf34092fab57E
chrome_crashpad_handler:_ZN75_$LT$core..char..decode..DecodeUtf16Error$u20$as$u20$core..fmt..Display$GT$3fmt17h0c9fef85867d03c6E
chrome_crashpad_handler:_ZN75_$LT$core..net..socket_addr..SocketAddrV4$u20$as$u20$core..fmt..Display$GT$3fmt17h306c712ba72b5cceE
chrome_crashpad_handler:_ZN75_$LT$core..net..socket_addr..SocketAddrV6$u20$as$u20$core..fmt..Display$GT$3fmt17h35a0e43335452041E
chrome_crashpad_handler:_ZN75_$LT$cxx..string..CxxString$u20$as$u20$cxx..shared_ptr..SharedPtrTarget$GT$10__typename17h3f7f1c315a2f49ceE
chrome_crashpad_handler:_ZN75_$LT$cxx..string..CxxString$u20$as$u20$cxx..shared_ptr..SharedPtrTarget$GT$5__get17he5c3b6e4bfcce9fcE
chrome_crashpad_handler:_ZN75_$LT$cxx..string..CxxString$u20$as$u20$cxx..shared_ptr..SharedPtrTarget$GT$5__new17h239fc9f0f90b2587E
chrome_crashpad_handler:_ZN75_$LT$cxx..string..CxxString$u20$as$u20$cxx..shared_ptr..SharedPtrTarget$GT$6__drop17h6a42c198a245aef8E
chrome_crashpad_handler:_ZN75_$LT$cxx..string..CxxString$u20$as$u20$cxx..shared_ptr..SharedPtrTarget$GT$6__null17h302e672717ece480E
chrome_crashpad_handler:_ZN75_$LT$cxx..string..CxxString$u20$as$u20$cxx..shared_ptr..SharedPtrTarget$GT$7__clone17h7c4dbd9b2f54faacE
chrome_crashpad_handler:_ZN75_$LT$cxx..string..CxxString$u20$as$u20$cxx..unique_ptr..UniquePtrTarget$GT$10__typename17h1b2552fd33cd352bE
chrome_crashpad_handler:_ZN75_$LT$cxx..string..CxxString$u20$as$u20$cxx..unique_ptr..UniquePtrTarget$GT$5__get17hf9a44944f8d843fcE
chrome_crashpad_handler:_ZN75_$LT$cxx..string..CxxString$u20$as$u20$cxx..unique_ptr..UniquePtrTarget$GT$5__raw17hb4e26ec4905c5c31E
chrome_crashpad_handler:_ZN75_$LT$cxx..string..CxxString$u20$as$u20$cxx..unique_ptr..UniquePtrTarget$GT$6__drop17hce3e6bda5e651da6E
chrome_crashpad_handler:_ZN75_$LT$cxx..string..CxxString$u20$as$u20$cxx..unique_ptr..UniquePtrTarget$GT$6__null17hd8120fbaf6838b52E
chrome_crashpad_handler:_ZN75_$LT$cxx..string..CxxString$u20$as$u20$cxx..unique_ptr..UniquePtrTarget$GT$9__release17h2e32250b535cb758E
chrome_crashpad_handler:_ZN75_$LT$gimli..read..abbrev..Attributes$u20$as$u20$core..ops..deref..Deref$GT$5deref17hfee623cda3667b1cE
chrome_crashpad_handler:_ZN75_$LT$memchr..memmem..prefilter..PrefilterFn$u20$as$u20$core..fmt..Debug$GT$3fmt17ha415603f26723147E
chrome_crashpad_handler:_ZN75_$LT$object..read..pe..export..ExportTarget$u20$as$u20$core..fmt..Debug$GT$3fmt17ha788013b99131f0dE
chrome_crashpad_handler:_ZN75_$LT$serde_json_lenient..error..ErrorCode$u20$as$u20$core..fmt..Display$GT$3fmt17hecbbc7eba9f79a62E
chrome_crashpad_handler:_ZN75_$LT$serde_json_lenient..error..ErrorImpl$u20$as$u20$core..fmt..Display$GT$3fmt17h30048aaa13da89f3E
chrome_crashpad_handler:_ZN75_$LT$std..env..ArgsOs$u20$as$u20$core..iter..traits..iterator..Iterator$GT$4next17ha1fd7a229149528aE
chrome_crashpad_handler:_ZN75_$LT$std..env..ArgsOs$u20$as$u20$core..iter..traits..iterator..Iterator$GT$9size_hint17hbe7226b8bf86e75bE
chrome_crashpad_handler:_ZN75_$LT$std..env..VarsOs$u20$as$u20$core..iter..traits..iterator..Iterator$GT$4next17he1b9af7f85a0fa18E
chrome_crashpad_handler:_ZN75_$LT$std..env..VarsOs$u20$as$u20$core..iter..traits..iterator..Iterator$GT$9size_hint17hdfec0f34398da92fE
chrome_crashpad_handler:_ZN75_$LT$std..fs..ReadDir$u20$as$u20$core..iter..traits..iterator..Iterator$GT$4next17h084579fa38c2b977E
chrome_crashpad_handler:_ZN75_$LT$std..os..linux..process..PidFd$u20$as$u20$std..os..fd..owned..AsFd$GT$5as_fd17h8fa162b67516d904E
chrome_crashpad_handler:_ZN75_$LT$std..os..unix..net..stream..UnixStream$u20$as$u20$core..fmt..Debug$GT$3fmt17h1f7e33bf32c9e27bE
chrome_crashpad_handler:_ZN76_$LT$$RF$std..os..unix..net..stream..UnixStream$u20$as$u20$std..io..Read$GT$13read_vectored17h8fba2d1190f069c9E
chrome_crashpad_handler:_ZN76_$LT$$RF$std..os..unix..net..stream..UnixStream$u20$as$u20$std..io..Read$GT$4read17hfe87dacbac5a6b2eE
chrome_crashpad_handler:_ZN76_$LT$$RF$std..os..unix..net..stream..UnixStream$u20$as$u20$std..io..Read$GT$8read_buf17h8b7b5aa661e57c12E
chrome_crashpad_handler:_ZN76_$LT$core..char..convert..CharTryFromError$u20$as$u20$core..fmt..Display$GT$3fmt17h7c16eb6d018b3916E
chrome_crashpad_handler:_ZN76_$LT$core..mem..transmutability..Assume$u20$as$u20$core..ops..arith..Sub$GT$3sub17h8a019008ce6e082dE
chrome_crashpad_handler:_ZN76_$LT$core..net..ip_addr..Ipv4Addr$u20$as$u20$core..ops..bit..BitOrAssign$GT$12bitor_assign17he2c6a6b90e06242dE
chrome_crashpad_handler:_ZN76_$LT$core..net..ip_addr..Ipv6Addr$u20$as$u20$core..ops..bit..BitOrAssign$GT$12bitor_assign17h3fe33df20ead4b14E
chrome_crashpad_handler:_ZN76_$LT$std..fs..File$u20$as$u20$std..sys..pal..unix..kernel_copy..CopyRead$GT$10properties17ha0cb659aaa1d5f64E
chrome_crashpad_handler:_ZN76_$LT$std..process..Command$u20$as$u20$std..os..unix..process..CommandExt$GT$4exec17h0f3deda845249b7bE
chrome_crashpad_handler:_ZN76_$LT$std..process..Command$u20$as$u20$std..os..unix..process..CommandExt$GT$6groups17h5a837e2e1bc0fa00E
chrome_crashpad_handler:_ZN77_$LT$$RF$std..os..unix..net..stream..UnixStream$u20$as$u20$std..io..Write$GT$14write_vectored17h0212794f4e3b005aE
chrome_crashpad_handler:_ZN77_$LT$$RF$std..os..unix..net..stream..UnixStream$u20$as$u20$std..io..Write$GT$5write17hd31ec97d44aa8d78E
chrome_crashpad_handler:_ZN77_$LT$adler..algo..U32X4$u20$as$u20$core..ops..arith..MulAssign$LT$u32$GT$$GT$10mul_assign17hbe68550cd5ecee6eE
chrome_crashpad_handler:_ZN77_$LT$adler..algo..U32X4$u20$as$u20$core..ops..arith..RemAssign$LT$u32$GT$$GT$10rem_assign17hbbedfc246ba96dd3E
chrome_crashpad_handler:_ZN77_$LT$alloc..borrow..Cow$LT$str$GT$$u20$as$u20$core..ops..arith..AddAssign$GT$10add_assign17hc54b82b1a70c0c8cE
chrome_crashpad_handler:_ZN77_$LT$alloc..ffi..c_str..FromVecWithNulError$u20$as$u20$core..fmt..Display$GT$3fmt17h745e8b1c20f4e44fE
chrome_crashpad_handler:_ZN77_$LT$core..net..ip_addr..Ipv4Addr$u20$as$u20$core..ops..bit..BitAndAssign$GT$13bitand_assign17h466c7c6475964e5cE
chrome_crashpad_handler:_ZN77_$LT$core..net..ip_addr..Ipv6Addr$u20$as$u20$core..ops..bit..BitAndAssign$GT$13bitand_assign17h6192ceced911a358E
chrome_crashpad_handler:_ZN77_$LT$object..xcoff..Rel32$u20$as$u20$object..read..xcoff..relocation..Rel$GT$7r_vaddr17h5e26c5a6d96ea241E
chrome_crashpad_handler:_ZN77_$LT$object..xcoff..Rel32$u20$as$u20$object..read..xcoff..relocation..Rel$GT$8r_symndx17h4384ca893055a7baE
chrome_crashpad_handler:_ZN77_$LT$object..xcoff..Rel64$u20$as$u20$object..read..xcoff..relocation..Rel$GT$7r_vaddr17h4bd7f6aa34f70fe4E
chrome_crashpad_handler:_ZN77_$LT$object..xcoff..Rel64$u20$as$u20$object..read..xcoff..relocation..Rel$GT$8r_symndx17h15bcedea5913c438E
chrome_crashpad_handler:_ZN77_$LT$serde..de..impls..StringInPlaceVisitor$u20$as$u20$serde..de..Visitor$GT$9expecting17h51ce44fd72be73fbE
chrome_crashpad_handler:_ZN77_$LT$serde_json_lenient..value..index..Type$u20$as$u20$core..fmt..Display$GT$3fmt17hcd88cbd05128287dE
chrome_crashpad_handler:_ZN77_$LT$std..backtrace_rs..symbolize..SymbolName$u20$as$u20$core..fmt..Debug$GT$3fmt17h14fb71a28c4d82c6E
chrome_crashpad_handler:_ZN77_$LT$std..fs..File$u20$as$u20$std..sys..pal..unix..kernel_copy..CopyWrite$GT$10properties17h47152594cef0bf25E
chrome_crashpad_handler:_ZN77_$LT$std..sys..pal..unix..fs..File$u20$as$u20$std..os..fd..raw..FromRawFd$GT$11from_raw_fd17ha1ef7b38b561b4c3E
chrome_crashpad_handler:_ZN77_$LT$std..sys..pal..unix..fs..FilePermissions$u20$as$u20$core..fmt..Debug$GT$3fmt17h585b7b628e622a4dE
chrome_crashpad_handler:_ZN77_$LT$std..sys..pal..unix..net..Socket$u20$as$u20$std..os..fd..owned..AsFd$GT$5as_fd17hc01930a8849ccd80E
chrome_crashpad_handler:_ZN77_$LT$std..sys..pal..unix..thread..Thread$u20$as$u20$core..ops..drop..Drop$GT$4drop17hc723b9f3fe727996E
chrome_crashpad_handler:_ZN77_$LT$std..sys_common..wtf8..Wtf8Buf$u20$as$u20$core..ops..deref..DerefMut$GT$9deref_mut17hbd20a6a5eda2ff47E
chrome_crashpad_handler:_ZN78_$LT$$LP$$RF$str$C$u16$RP$$u20$as$u20$std..net..socket_addr..ToSocketAddrs$GT$15to_socket_addrs17h2691790fe92c60b2E
chrome_crashpad_handler:_ZN78_$LT$alloc..string..String$u20$as$u20$std..net..socket_addr..ToSocketAddrs$GT$15to_socket_addrs17h95dcf0c8647787d0E
chrome_crashpad_handler:_ZN78_$LT$core..error..Source$u20$as$u20$core..iter..traits..iterator..Iterator$GT$4next17hdb29119b4d168c9fE
chrome_crashpad_handler:_ZN78_$LT$core..ffi..c_str..FromBytesWithNulError$u20$as$u20$core..fmt..Display$GT$3fmt17h189c15f82e32b2fcE
chrome_crashpad_handler:_ZN78_$LT$object..macho..FatArch32$u20$as$u20$object..read..macho..fat..FatArch$GT$10cpusubtype17he6cecbb5a1d5e9b7E
chrome_crashpad_handler:_ZN78_$LT$object..macho..FatArch32$u20$as$u20$object..read..macho..fat..FatArch$GT$4size17h1cab9bb55a927896E
chrome_crashpad_handler:_ZN78_$LT$object..macho..FatArch32$u20$as$u20$object..read..macho..fat..FatArch$GT$5align17he6d2864a56d431d3E
chrome_crashpad_handler:_ZN78_$LT$object..macho..FatArch32$u20$as$u20$object..read..macho..fat..FatArch$GT$6offset17h30e97041ad78d940E
chrome_crashpad_handler:_ZN78_$LT$object..macho..FatArch32$u20$as$u20$object..read..macho..fat..FatArch$GT$7cputype17h1693bfb04b9ab367E
chrome_crashpad_handler:_ZN78_$LT$object..macho..FatArch64$u20$as$u20$object..read..macho..fat..FatArch$GT$10cpusubtype17h34aea79bef93d388E
chrome_crashpad_handler:_ZN78_$LT$object..macho..FatArch64$u20$as$u20$object..read..macho..fat..FatArch$GT$4size17h484f5e8ea3eb32e1E
chrome_crashpad_handler:_ZN78_$LT$object..macho..FatArch64$u20$as$u20$object..read..macho..fat..FatArch$GT$5align17h068683858ca66f8bE
chrome_crashpad_handler:_ZN78_$LT$object..macho..FatArch64$u20$as$u20$object..read..macho..fat..FatArch$GT$6offset17hbe606fd02f717931E
chrome_crashpad_handler:_ZN78_$LT$object..macho..FatArch64$u20$as$u20$object..read..macho..fat..FatArch$GT$7cputype17h2804a1cb5e6d90c5E
chrome_crashpad_handler:_ZN78_$LT$std..os..linux..process..PidFd$u20$as$u20$std..os..fd..raw..FromRawFd$GT$11from_raw_fd17h6c6b319c542c2e9bE
chrome_crashpad_handler:_ZN78_$LT$std..sys..pal..unix..fd..FileDesc$u20$as$u20$std..os..fd..owned..AsFd$GT$5as_fd17hca3b048a9e6d756fE
chrome_crashpad_handler:_ZN78_$LT$std..sys..pal..unix..os..JoinPathsError$u20$as$u20$core..fmt..Display$GT$3fmt17h4e2ff91db85d6048E
chrome_crashpad_handler:_ZN79_$LT$alloc..string..Drain$u20$as$u20$core..iter..traits..iterator..Iterator$GT$9size_hint17h4bad03f056c5ec24E
chrome_crashpad_handler:_ZN79_$LT$alloc..vec..Vec$LT$u8$GT$$u20$as$u20$std..io..copy..BufferedWriterSpec$GT$11buffer_size17h80f9073e4e7a3a4cE
chrome_crashpad_handler:_ZN79_$LT$core..ffi..c_str..FromBytesUntilNulError$u20$as$u20$core..fmt..Display$GT$3fmt17h887ca14547e8a4bdE
chrome_crashpad_handler:_ZN79_$LT$object..xcoff..Symbol32$u20$as$u20$object..read..xcoff..symbol..Symbol$GT$11name_offset17h724d2c92f13ba0e7E
chrome_crashpad_handler:_ZN79_$LT$object..xcoff..Symbol32$u20$as$u20$object..read..xcoff..symbol..Symbol$GT$6n_type17hd650c11dd522bcb2E
chrome_crashpad_handler:_ZN79_$LT$object..xcoff..Symbol32$u20$as$u20$object..read..xcoff..symbol..Symbol$GT$7n_scnum17h63b206b7a7e57611E
chrome_crashpad_handler:_ZN79_$LT$object..xcoff..Symbol32$u20$as$u20$object..read..xcoff..symbol..Symbol$GT$7n_value17hcb10c46d1e5cd845E
chrome_crashpad_handler:_ZN79_$LT$object..xcoff..Symbol64$u20$as$u20$object..read..xcoff..symbol..Symbol$GT$11name_offset17h3f53610b45bf0268E
chrome_crashpad_handler:_ZN79_$LT$object..xcoff..Symbol64$u20$as$u20$object..read..xcoff..symbol..Symbol$GT$6n_type17hc2625a8e9bf592f5E
chrome_crashpad_handler:_ZN79_$LT$object..xcoff..Symbol64$u20$as$u20$object..read..xcoff..symbol..Symbol$GT$7n_scnum17h4a4481ef9b793d31E
chrome_crashpad_handler:_ZN79_$LT$object..xcoff..Symbol64$u20$as$u20$object..read..xcoff..symbol..Symbol$GT$7n_value17hbd0b9e686cfd12d1E
chrome_crashpad_handler:_ZN79_$LT$std..backtrace_rs..symbolize..SymbolName$u20$as$u20$core..fmt..Display$GT$3fmt17h0a0ac95b628989d4E
chrome_crashpad_handler:_ZN79_$LT$std..env..SplitPaths$u20$as$u20$core..iter..traits..iterator..Iterator$GT$4next17h900a675253475fb7E
chrome_crashpad_handler:_ZN79_$LT$std..env..SplitPaths$u20$as$u20$core..iter..traits..iterator..Iterator$GT$9size_hint17h0e9cc4ac63e3f879E
chrome_crashpad_handler:_ZN79_$LT$std..os..unix..net..datagram..UnixDatagram$u20$as$u20$core..fmt..Debug$GT$3fmt17he12abe79a1d3a46bE
chrome_crashpad_handler:_ZN79_$LT$std..os..unix..net..listener..UnixListener$u20$as$u20$core..fmt..Debug$GT$3fmt17h34a2769978a5e6f1E
chrome_crashpad_handler:_ZN80_$LT$$RF$std..fs..File$u20$as$u20$std..sys..pal..unix..kernel_copy..CopyRead$GT$10properties17h6face45382093d35E
chrome_crashpad_handler:_ZN80_$LT$alloc..vec..Vec$LT$u8$GT$$u20$as$u20$core..convert..From$LT$$RF$str$GT$$GT$4from17h8b16851c0dd08697E
chrome_crashpad_handler:_ZN80_$LT$serde_json_lenient..error..JsonUnexpected$u20$as$u20$core..fmt..Display$GT$3fmt17hf6652192eec82919E
chrome_crashpad_handler:_ZN80_$LT$std..path..Components$u20$as$u20$core..iter..traits..iterator..Iterator$GT$4next17h3df85385147fca03E
chrome_crashpad_handler:_ZN80_$LT$std..sys..pal..unix..net..Socket$u20$as$u20$std..os..fd..raw..FromRawFd$GT$11from_raw_fd17h6373a410ce510128E
chrome_crashpad_handler:_ZN80_$LT$std..sys..pal..unix..pipe..AnonPipe$u20$as$u20$std..os..fd..owned..AsFd$GT$5as_fd17h6018566131aca48bE
chrome_crashpad_handler:_ZN81_$LT$$RF$$u5b$u8$u5d$$u20$as$u20$alloc..ffi..c_str..CString..new..SpecNewImpl$GT$13spec_new_impl17hb0a236e847d0e68bE
chrome_crashpad_handler:_ZN81_$LT$$RF$std..fs..File$u20$as$u20$std..sys..pal..unix..kernel_copy..CopyWrite$GT$10properties17h95f124e0ebb7a126E
chrome_crashpad_handler:_ZN81_$LT$alloc..string..Drain$u20$as$u20$core..convert..AsRef$LT$$u5b$u8$u5d$$GT$$GT$6as_ref17h06fbb36ca58a27eeE
chrome_crashpad_handler:_ZN81_$LT$alloc..string..String$u20$as$u20$serde_json_lenient..value..index..Index$GT$10index_into17hdfcc2a11123e49dbE
chrome_crashpad_handler:_ZN81_$LT$alloc..string..String$u20$as$u20$serde_json_lenient..value..index..Index$GT$14index_into_mut17hfb5113eb791c4301E
chrome_crashpad_handler:_ZN81_$LT$alloc..string..String$u20$as$u20$serde_json_lenient..value..index..Index$GT$15index_or_insert17ha054e63c672ea1e1E
chrome_crashpad_handler:_ZN81_$LT$std..io..buffered..bufwriter..WriterPanicked$u20$as$u20$core..fmt..Debug$GT$3fmt17h47da89ad9aeb0fb9E
chrome_crashpad_handler:_ZN81_$LT$std..sys..pal..unix..fd..FileDesc$u20$as$u20$std..os..fd..raw..FromRawFd$GT$11from_raw_fd17hc1cc6b28c1acb7f5E
chrome_crashpad_handler:_ZN82_$LT$core..char..ToLowercase$u20$as$u20$core..iter..traits..iterator..Iterator$GT$10advance_by17h6d907b89a5d86b58E
chrome_crashpad_handler:_ZN82_$LT$core..char..ToLowercase$u20$as$u20$core..iter..traits..iterator..Iterator$GT$4last17h6056a832065ad72dE
chrome_crashpad_handler:_ZN82_$LT$core..char..ToLowercase$u20$as$u20$core..iter..traits..iterator..Iterator$GT$4next17h7a32ec6c88d33562E
chrome_crashpad_handler:_ZN82_$LT$core..char..ToLowercase$u20$as$u20$core..iter..traits..iterator..Iterator$GT$5count17h5c53551b9b7afee1E
chrome_crashpad_handler:_ZN82_$LT$core..char..ToLowercase$u20$as$u20$core..iter..traits..iterator..Iterator$GT$9size_hint17ha6a1e906728b0894E
chrome_crashpad_handler:_ZN82_$LT$core..char..ToUppercase$u20$as$u20$core..iter..traits..iterator..Iterator$GT$10advance_by17he202959991245497E
chrome_crashpad_handler:_ZN82_$LT$core..char..ToUppercase$u20$as$u20$core..iter..traits..iterator..Iterator$GT$4last17h9e0fce884f46f036E
chrome_crashpad_handler:_ZN82_$LT$core..char..ToUppercase$u20$as$u20$core..iter..traits..iterator..Iterator$GT$4next17heca78cd3d153e513E
chrome_crashpad_handler:_ZN82_$LT$core..char..ToUppercase$u20$as$u20$core..iter..traits..iterator..Iterator$GT$5count17h6d15495ffb1e982aE
chrome_crashpad_handler:_ZN82_$LT$core..char..ToUppercase$u20$as$u20$core..iter..traits..iterator..Iterator$GT$9size_hint17h1b993234df751bd3E
chrome_crashpad_handler:_ZN82_$LT$dyn$u20$core..any..Any$u2b$core..marker..Send$u20$as$u20$core..fmt..Debug$GT$3fmt17h082b9c3fa93df99fE
chrome_crashpad_handler:_ZN82_$LT$std..net..tcp..Incoming$u20$as$u20$core..iter..traits..iterator..Iterator$GT$4next17h09dc14324c3293d5E
chrome_crashpad_handler:_ZN82_$LT$std..process..ExitStatus$u20$as$u20$std..os..unix..process..ExitStatusExt$GT$11core_dumped17ha5bc99d9531bc9feE
chrome_crashpad_handler:_ZN82_$LT$std..process..ExitStatus$u20$as$u20$std..os..unix..process..ExitStatusExt$GT$6signal17h49e7977b47b62b59E
chrome_crashpad_handler:_ZN83_$LT$memchr..memmem..FindIter$u20$as$u20$core..iter..traits..iterator..Iterator$GT$4next17hfda49d68c3875384E
chrome_crashpad_handler:_ZN83_$LT$object..xcoff..AuxHeader32$u20$as$u20$object..read..xcoff..file..AuxHeader$GT$10o_algndata17h46f0f82d3b721a3dE
chrome_crashpad_handler:_ZN83_$LT$object..xcoff..AuxHeader32$u20$as$u20$object..read..xcoff..file..AuxHeader$GT$10o_algntext17haddcb06b12d8104cE
chrome_crashpad_handler:_ZN83_$LT$object..xcoff..AuxHeader32$u20$as$u20$object..read..xcoff..file..AuxHeader$GT$10o_debugger17h5c38c845b71579abE
chrome_crashpad_handler:_ZN83_$LT$object..xcoff..AuxHeader32$u20$as$u20$object..read..xcoff..file..AuxHeader$GT$10o_maxstack17h3191749e740d38b5E
chrome_crashpad_handler:_ZN83_$LT$object..xcoff..AuxHeader32$u20$as$u20$object..read..xcoff..file..AuxHeader$GT$10o_snloader17haf5eb22c7dc5d982E
chrome_crashpad_handler:_ZN83_$LT$object..xcoff..AuxHeader32$u20$as$u20$object..read..xcoff..file..AuxHeader$GT$12o_data_start17hf774dcf6e5f12e90E
chrome_crashpad_handler:_ZN83_$LT$object..xcoff..AuxHeader32$u20$as$u20$object..read..xcoff..file..AuxHeader$GT$12o_text_start17h71c08a3f728e6c68E
chrome_crashpad_handler:_ZN83_$LT$object..xcoff..AuxHeader32$u20$as$u20$object..read..xcoff..file..AuxHeader$GT$5o_toc17h74f2854d296e71bfE
chrome_crashpad_handler:_ZN83_$LT$object..xcoff..AuxHeader32$u20$as$u20$object..read..xcoff..file..AuxHeader$GT$7o_bsize17h86f0db6e0b94ec50E
chrome_crashpad_handler:_ZN83_$LT$object..xcoff..AuxHeader32$u20$as$u20$object..read..xcoff..file..AuxHeader$GT$7o_dsize17hfc059b30f91a279dE
chrome_crashpad_handler:_ZN83_$LT$object..xcoff..AuxHeader32$u20$as$u20$object..read..xcoff..file..AuxHeader$GT$7o_entry17h977aa8dda0c328b3E
chrome_crashpad_handler:_ZN83_$LT$object..xcoff..AuxHeader32$u20$as$u20$object..read..xcoff..file..AuxHeader$GT$7o_mflag17ha7a07839b01265cdE
chrome_crashpad_handler:_ZN83_$LT$object..xcoff..AuxHeader32$u20$as$u20$object..read..xcoff..file..AuxHeader$GT$7o_snbss17h8559923e0b41b5ffE
chrome_crashpad_handler:_ZN83_$LT$object..xcoff..AuxHeader32$u20$as$u20$object..read..xcoff..file..AuxHeader$GT$7o_sntoc17h94cb3a3a0add6fe6E
chrome_crashpad_handler:_ZN83_$LT$object..xcoff..AuxHeader32$u20$as$u20$object..read..xcoff..file..AuxHeader$GT$7o_tsize17h27776602b9d4aeb1E
chrome_crashpad_handler:_ZN83_$LT$object..xcoff..AuxHeader32$u20$as$u20$object..read..xcoff..file..AuxHeader$GT$8o_sndata17ha3c8461cc97359deE
chrome_crashpad_handler:_ZN83_$LT$object..xcoff..AuxHeader32$u20$as$u20$object..read..xcoff..file..AuxHeader$GT$8o_sntbss17h66da770900c040e3E
chrome_crashpad_handler:_ZN83_$LT$object..xcoff..AuxHeader32$u20$as$u20$object..read..xcoff..file..AuxHeader$GT$8o_sntext17h6fa9de3882d6c8e7E
chrome_crashpad_handler:_ZN83_$LT$object..xcoff..AuxHeader32$u20$as$u20$object..read..xcoff..file..AuxHeader$GT$8o_vstamp17h669a085970ad3f4bE
chrome_crashpad_handler:_ZN83_$LT$object..xcoff..AuxHeader32$u20$as$u20$object..read..xcoff..file..AuxHeader$GT$9o_maxdata17h0a7b4fc779a55647E
chrome_crashpad_handler:_ZN83_$LT$object..xcoff..AuxHeader32$u20$as$u20$object..read..xcoff..file..AuxHeader$GT$9o_modtype17h497c104b65cab3b7E
chrome_crashpad_handler:_ZN83_$LT$object..xcoff..AuxHeader32$u20$as$u20$object..read..xcoff..file..AuxHeader$GT$9o_snentry17he844dfea7631a9b3E
chrome_crashpad_handler:_ZN83_$LT$object..xcoff..AuxHeader32$u20$as$u20$object..read..xcoff..file..AuxHeader$GT$9o_sntdata17haba56774d5f9f57aE
chrome_crashpad_handler:_ZN83_$LT$object..xcoff..AuxHeader64$u20$as$u20$object..read..xcoff..file..AuxHeader$GT$10o_algndata17h6b0cd5ccdd5625ddE
chrome_crashpad_handler:_ZN83_$LT$object..xcoff..AuxHeader64$u20$as$u20$object..read..xcoff..file..AuxHeader$GT$10o_algntext17h10ffdeb4ad7ac674E
chrome_crashpad_handler:_ZN83_$LT$object..xcoff..AuxHeader64$u20$as$u20$object..read..xcoff..file..AuxHeader$GT$10o_debugger17h81dd78285e523c2fE
chrome_crashpad_handler:_ZN83_$LT$object..xcoff..AuxHeader64$u20$as$u20$object..read..xcoff..file..AuxHeader$GT$10o_maxstack17h729f534e3a5da940E
chrome_crashpad_handler:_ZN83_$LT$object..xcoff..AuxHeader64$u20$as$u20$object..read..xcoff..file..AuxHeader$GT$10o_snloader17h55b6cc5bd8b0a890E
chrome_crashpad_handler:_ZN83_$LT$object..xcoff..AuxHeader64$u20$as$u20$object..read..xcoff..file..AuxHeader$GT$10o_x64flags17hf3c9cc39af7ff471E
chrome_crashpad_handler:_ZN83_$LT$object..xcoff..AuxHeader64$u20$as$u20$object..read..xcoff..file..AuxHeader$GT$12o_data_start17haa0a337e4aea121aE
chrome_crashpad_handler:_ZN83_$LT$object..xcoff..AuxHeader64$u20$as$u20$object..read..xcoff..file..AuxHeader$GT$12o_text_start17hc876121415d402d2E
chrome_crashpad_handler:_ZN83_$LT$object..xcoff..AuxHeader64$u20$as$u20$object..read..xcoff..file..AuxHeader$GT$5o_toc17haa5e4ce3ea57f9ceE
chrome_crashpad_handler:_ZN83_$LT$object..xcoff..AuxHeader64$u20$as$u20$object..read..xcoff..file..AuxHeader$GT$7o_bsize17h62b6669778939173E
chrome_crashpad_handler:_ZN83_$LT$object..xcoff..AuxHeader64$u20$as$u20$object..read..xcoff..file..AuxHeader$GT$7o_dsize17hbfd1acfef882bd3eE
chrome_crashpad_handler:_ZN83_$LT$object..xcoff..AuxHeader64$u20$as$u20$object..read..xcoff..file..AuxHeader$GT$7o_entry17hbfc99276049c85e8E
chrome_crashpad_handler:_ZN83_$LT$object..xcoff..AuxHeader64$u20$as$u20$object..read..xcoff..file..AuxHeader$GT$7o_mflag17h2530c987af8bd1c7E
chrome_crashpad_handler:_ZN83_$LT$object..xcoff..AuxHeader64$u20$as$u20$object..read..xcoff..file..AuxHeader$GT$7o_snbss17h5567fe57d8dc8a24E
chrome_crashpad_handler:_ZN83_$LT$object..xcoff..AuxHeader64$u20$as$u20$object..read..xcoff..file..AuxHeader$GT$7o_sntoc17h7ff03cde93a1b535E
chrome_crashpad_handler:_ZN83_$LT$object..xcoff..AuxHeader64$u20$as$u20$object..read..xcoff..file..AuxHeader$GT$7o_tsize17he9f2f56661a059ebE
chrome_crashpad_handler:_ZN83_$LT$object..xcoff..AuxHeader64$u20$as$u20$object..read..xcoff..file..AuxHeader$GT$8o_sndata17h2cd602bc8d056ff6E
chrome_crashpad_handler:_ZN83_$LT$object..xcoff..AuxHeader64$u20$as$u20$object..read..xcoff..file..AuxHeader$GT$8o_sntbss17h0cbd9383b182e2efE
chrome_crashpad_handler:_ZN83_$LT$object..xcoff..AuxHeader64$u20$as$u20$object..read..xcoff..file..AuxHeader$GT$8o_sntext17h6a377f3d30ac6310E
chrome_crashpad_handler:_ZN83_$LT$object..xcoff..AuxHeader64$u20$as$u20$object..read..xcoff..file..AuxHeader$GT$8o_vstamp17hc8db4e27cb7a1f9dE
chrome_crashpad_handler:_ZN83_$LT$object..xcoff..AuxHeader64$u20$as$u20$object..read..xcoff..file..AuxHeader$GT$9o_maxdata17hc4a510b8771d694bE
chrome_crashpad_handler:_ZN83_$LT$object..xcoff..AuxHeader64$u20$as$u20$object..read..xcoff..file..AuxHeader$GT$9o_modtype17h193daee3004ef195E
chrome_crashpad_handler:_ZN83_$LT$object..xcoff..AuxHeader64$u20$as$u20$object..read..xcoff..file..AuxHeader$GT$9o_snentry17hfbd6a8d676aa3bf8E
chrome_crashpad_handler:_ZN83_$LT$object..xcoff..AuxHeader64$u20$as$u20$object..read..xcoff..file..AuxHeader$GT$9o_sntdata17heb473a39009ae71cE
chrome_crashpad_handler:_ZN83_$LT$object..xcoff..CsectAux32$u20$as$u20$object..read..xcoff..symbol..CsectAux$GT$10x_parmhash17h94d8a6c8b371813dE
chrome_crashpad_handler:_ZN83_$LT$object..xcoff..CsectAux32$u20$as$u20$object..read..xcoff..symbol..CsectAux$GT$6x_stab17h7b4a9df74852e7a1E
chrome_crashpad_handler:_ZN83_$LT$object..xcoff..CsectAux32$u20$as$u20$object..read..xcoff..symbol..CsectAux$GT$8x_scnlen17h2cfb75ac1592eee3E
chrome_crashpad_handler:_ZN83_$LT$object..xcoff..CsectAux32$u20$as$u20$object..read..xcoff..symbol..CsectAux$GT$8x_snhash17h8b6f80995212198cE
chrome_crashpad_handler:_ZN83_$LT$object..xcoff..CsectAux32$u20$as$u20$object..read..xcoff..symbol..CsectAux$GT$8x_snstab17h135fbc1a5bba0d25E
chrome_crashpad_handler:_ZN83_$LT$object..xcoff..CsectAux64$u20$as$u20$object..read..xcoff..symbol..CsectAux$GT$10x_parmhash17h389f69de70f72fa2E
chrome_crashpad_handler:_ZN83_$LT$object..xcoff..CsectAux64$u20$as$u20$object..read..xcoff..symbol..CsectAux$GT$8x_scnlen17h50995133dc9acc98E
chrome_crashpad_handler:_ZN83_$LT$object..xcoff..CsectAux64$u20$as$u20$object..read..xcoff..symbol..CsectAux$GT$8x_snhash17had8847bf62691914E
chrome_crashpad_handler:_ZN83_$LT$serde_json_lenient..value..de..KeyClassifier$u20$as$u20$serde..de..Visitor$GT$9expecting17h5a18d6ab1e27bbc3E
chrome_crashpad_handler:_ZN83_$LT$std..io..buffered..bufwriter..WriterPanicked$u20$as$u20$core..fmt..Display$GT$3fmt17h93b0f041efa8ea7fE
chrome_crashpad_handler:_ZN83_$LT$std..sys..pal..unix..pipe..AnonPipe$u20$as$u20$std..os..fd..raw..FromRawFd$GT$11from_raw_fd17h95538d049ff90d38E
chrome_crashpad_handler:_ZN84_$LT$core..num..nonzero..NonZero$LT$i8$GT$$u20$as$u20$core..str..traits..FromStr$GT$8from_str17h5f6cb3d902770605E
chrome_crashpad_handler:_ZN84_$LT$core..num..nonzero..NonZero$LT$u8$GT$$u20$as$u20$core..str..traits..FromStr$GT$8from_str17h2ae0d698958f5f4eE
chrome_crashpad_handler:_ZN84_$LT$core..panicking..assert_matches_failed..Pattern$u20$as$u20$core..fmt..Debug$GT$3fmt17h38a03d0c89b7dfc8E
chrome_crashpad_handler:_ZN84_$LT$serde..__private..de..content..ContentVisitor$u20$as$u20$serde..de..Visitor$GT$9expecting17h81908a063b56f89cE
chrome_crashpad_handler:_ZN84_$LT$serde_json_lenient..read..StrRead$u20$as$u20$serde_json_lenient..read..Read$GT$10ignore_str17h3789689960c498deE
chrome_crashpad_handler:_ZN84_$LT$serde_json_lenient..read..StrRead$u20$as$u20$serde_json_lenient..read..Read$GT$13parse_str_raw17h458a7d4291b5edabE
chrome_crashpad_handler:_ZN84_$LT$serde_json_lenient..read..StrRead$u20$as$u20$serde_json_lenient..read..Read$GT$13peek_position17hc7800996e5e3d6a8E
chrome_crashpad_handler:_ZN84_$LT$serde_json_lenient..read..StrRead$u20$as$u20$serde_json_lenient..read..Read$GT$17decode_hex_escape17h5fdba90f56e740ceE
chrome_crashpad_handler:_ZN84_$LT$serde_json_lenient..read..StrRead$u20$as$u20$serde_json_lenient..read..Read$GT$8position17he1324c8e649230f5E
chrome_crashpad_handler:_ZN84_$LT$serde_json_lenient..read..StrRead$u20$as$u20$serde_json_lenient..read..Read$GT$9parse_str17h5133f576e8eb0485E
chrome_crashpad_handler:_ZN84_$LT$std..env..Args$u20$as$u20$core..iter..traits..exact_size..ExactSizeIterator$GT$3len17hf5f9eb6347993bc7E
chrome_crashpad_handler:_ZN84_$LT$std..env..Args$u20$as$u20$core..iter..traits..exact_size..ExactSizeIterator$GT$8is_empty17hed8fafc43879aa15E
chrome_crashpad_handler:_ZN84_$LT$std..process..CommandArgs$u20$as$u20$core..iter..traits..iterator..Iterator$GT$4next17h8ad357bdbd0d6b31E
chrome_crashpad_handler:_ZN84_$LT$std..process..CommandArgs$u20$as$u20$core..iter..traits..iterator..Iterator$GT$9size_hint17h7b8faca1b6dcaebdE
chrome_crashpad_handler:_ZN85_$LT$alloc..string..String..retain..SetLenOnDrop$u20$as$u20$core..ops..drop..Drop$GT$4drop17h1149055d24aa223cE
chrome_crashpad_handler:_ZN85_$LT$core..num..nonzero..NonZero$LT$i16$GT$$u20$as$u20$core..str..traits..FromStr$GT$8from_str17hedbc12d9589d6fb3E
chrome_crashpad_handler:_ZN85_$LT$core..num..nonzero..NonZero$LT$i32$GT$$u20$as$u20$core..str..traits..FromStr$GT$8from_str17h043ecdb6cebf5d86E
chrome_crashpad_handler:_ZN85_$LT$core..num..nonzero..NonZero$LT$i64$GT$$u20$as$u20$core..str..traits..FromStr$GT$8from_str17hf9e390a1d4f586c4E
chrome_crashpad_handler:_ZN85_$LT$core..num..nonzero..NonZero$LT$u16$GT$$u20$as$u20$core..str..traits..FromStr$GT$8from_str17hd96e4d33d23c60acE
chrome_crashpad_handler:_ZN85_$LT$core..num..nonzero..NonZero$LT$u32$GT$$u20$as$u20$core..str..traits..FromStr$GT$8from_str17h3f7f83765360939dE
chrome_crashpad_handler:_ZN85_$LT$core..num..nonzero..NonZero$LT$u64$GT$$u20$as$u20$core..str..traits..FromStr$GT$8from_str17h934382d8b61d7386E
chrome_crashpad_handler:_ZN85_$LT$object..xcoff..FileHeader32$u20$as$u20$object..read..xcoff..file..FileHeader$GT$7f_flags17h85865f2d2436953fE
chrome_crashpad_handler:_ZN85_$LT$object..xcoff..FileHeader32$u20$as$u20$object..read..xcoff..file..FileHeader$GT$7f_magic17h5943d44381eb68cbE
chrome_crashpad_handler:_ZN85_$LT$object..xcoff..FileHeader32$u20$as$u20$object..read..xcoff..file..FileHeader$GT$7f_nscns17hb373098459f131d5E
chrome_crashpad_handler:_ZN85_$LT$object..xcoff..FileHeader32$u20$as$u20$object..read..xcoff..file..FileHeader$GT$7f_nsyms17h23e5e6da59c43247E
chrome_crashpad_handler:_ZN85_$LT$object..xcoff..FileHeader32$u20$as$u20$object..read..xcoff..file..FileHeader$GT$8f_opthdr17h06ba40c9a141058cE
chrome_crashpad_handler:_ZN85_$LT$object..xcoff..FileHeader32$u20$as$u20$object..read..xcoff..file..FileHeader$GT$8f_symptr17hab1de0e748d9fc81E
chrome_crashpad_handler:_ZN85_$LT$object..xcoff..FileHeader32$u20$as$u20$object..read..xcoff..file..FileHeader$GT$8f_timdat17h017595fabe137bafE
chrome_crashpad_handler:_ZN85_$LT$object..xcoff..FileHeader64$u20$as$u20$object..read..xcoff..file..FileHeader$GT$7f_flags17h1043f95f987f78c1E
chrome_crashpad_handler:_ZN85_$LT$object..xcoff..FileHeader64$u20$as$u20$object..read..xcoff..file..FileHeader$GT$7f_magic17hdbbd19944299ed50E
chrome_crashpad_handler:_ZN85_$LT$object..xcoff..FileHeader64$u20$as$u20$object..read..xcoff..file..FileHeader$GT$7f_nscns17h38f9adfd2d1f548dE
chrome_crashpad_handler:_ZN85_$LT$object..xcoff..FileHeader64$u20$as$u20$object..read..xcoff..file..FileHeader$GT$7f_nsyms17h4abb4cae63203386E
chrome_crashpad_handler:_ZN85_$LT$object..xcoff..FileHeader64$u20$as$u20$object..read..xcoff..file..FileHeader$GT$8f_opthdr17hb40cf10727fd52f9E
chrome_crashpad_handler:_ZN85_$LT$object..xcoff..FileHeader64$u20$as$u20$object..read..xcoff..file..FileHeader$GT$8f_symptr17hfdb92c9618886811E
chrome_crashpad_handler:_ZN85_$LT$object..xcoff..FileHeader64$u20$as$u20$object..read..xcoff..file..FileHeader$GT$8f_timdat17hd8f139cf74f4520dE
chrome_crashpad_handler:_ZN85_$LT$serde_json_lenient..value..ser..Serializer$u20$as$u20$serde..ser..Serializer$GT$13serialize_seq17h1ba0d9fe1c36c9dfE
chrome_crashpad_handler:_ZN85_$LT$serde_json_lenient..value..ser..Serializer$u20$as$u20$serde..ser..Serializer$GT$14serialize_i12817h7a59f3fee923ba24E
chrome_crashpad_handler:_ZN85_$LT$serde_json_lenient..value..ser..Serializer$u20$as$u20$serde..ser..Serializer$GT$14serialize_u12817hd779f95e58de2555E
chrome_crashpad_handler:_ZN85_$LT$serde_json_lenient..value..ser..Serializer$u20$as$u20$serde..ser..Serializer$GT$15serialize_bytes17h6c1e578f5e952760E
chrome_crashpad_handler:_ZN85_$LT$serde_json_lenient..value..ser..Serializer$u20$as$u20$serde..ser..Serializer$GT$15serialize_tuple17hf883e0a9e16d0e3aE
chrome_crashpad_handler:_ZN85_$LT$serde_json_lenient..value..ser..Serializer$u20$as$u20$serde..ser..Serializer$GT$22serialize_tuple_struct17h662862e5b00855f0E
chrome_crashpad_handler:_ZN85_$LT$serde_json_lenient..value..ser..Serializer$u20$as$u20$serde..ser..Serializer$GT$23serialize_tuple_variant17hf8b7f9717100f6c0E
chrome_crashpad_handler:_ZN85_$LT$serde_json_lenient..value..ser..Serializer$u20$as$u20$serde..ser..Serializer$GT$24serialize_struct_variant17h5907629b24010b31E
chrome_crashpad_handler:_ZN85_$LT$std..backtrace_rs..backtrace..libunwind..Frame$u20$as$u20$core..clone..Clone$GT$5clone17ha3b9d64a9bc57660E
chrome_crashpad_handler:_ZN85_$LT$std..backtrace_rs..print..BacktraceFrameFmt$u20$as$u20$core..ops..drop..Drop$GT$4drop17h4ae230eb37f157e2E
chrome_crashpad_handler:_ZN86_$LT$core..char..CaseMappingIter$u20$as$u20$core..iter..traits..iterator..Iterator$GT$10advance_by17h03648613c6e8e858E
chrome_crashpad_handler:_ZN86_$LT$core..char..CaseMappingIter$u20$as$u20$core..iter..traits..iterator..Iterator$GT$4last17h370e14ddc2d89bf1E
chrome_crashpad_handler:_ZN86_$LT$core..char..CaseMappingIter$u20$as$u20$core..iter..traits..iterator..Iterator$GT$4next17h44db498a4da678bdE
chrome_crashpad_handler:_ZN86_$LT$core..char..CaseMappingIter$u20$as$u20$core..iter..traits..iterator..Iterator$GT$5count17h2359a66efb01e02dE
chrome_crashpad_handler:_ZN86_$LT$core..char..CaseMappingIter$u20$as$u20$core..iter..traits..iterator..Iterator$GT$9size_hint17h6573d2312dc0a96dE
chrome_crashpad_handler:_ZN86_$LT$core..num..nonzero..NonZero$LT$i128$GT$$u20$as$u20$core..str..traits..FromStr$GT$8from_str17h1ef977af174ce27eE
chrome_crashpad_handler:_ZN86_$LT$core..num..nonzero..NonZero$LT$u128$GT$$u20$as$u20$core..str..traits..FromStr$GT$8from_str17h3e1a4437686e93a5E
chrome_crashpad_handler:_ZN86_$LT$memchr..memmem..FindRevIter$u20$as$u20$core..iter..traits..iterator..Iterator$GT$4next17h805642304e48161dE
chrome_crashpad_handler:_ZN86_$LT$serde_json_lenient..lexical..bignum..Bigint$u20$as$u20$core..default..Default$GT$7default17h79fb808da94c790eE
chrome_crashpad_handler:_ZN86_$LT$serde_json_lenient..read..SliceRead$u20$as$u20$serde_json_lenient..read..Read$GT$10ignore_str17h0f74d8ea7e16917cE
chrome_crashpad_handler:_ZN86_$LT$serde_json_lenient..read..SliceRead$u20$as$u20$serde_json_lenient..read..Read$GT$13parse_str_raw17h976f2605ba2991b8E
chrome_crashpad_handler:_ZN86_$LT$serde_json_lenient..read..SliceRead$u20$as$u20$serde_json_lenient..read..Read$GT$13peek_position17he1f5faa8552dfb23E
chrome_crashpad_handler:_ZN86_$LT$serde_json_lenient..read..SliceRead$u20$as$u20$serde_json_lenient..read..Read$GT$17decode_hex_escape17h80da93081c499945E
chrome_crashpad_handler:_ZN86_$LT$serde_json_lenient..read..SliceRead$u20$as$u20$serde_json_lenient..read..Read$GT$8position17h2c0fb796ebda9a67E
chrome_crashpad_handler:_ZN86_$LT$serde_json_lenient..read..SliceRead$u20$as$u20$serde_json_lenient..read..Read$GT$9parse_str17hb8e4f8a92ba4d766E
chrome_crashpad_handler:_ZN86_$LT$std..env..ArgsOs$u20$as$u20$core..iter..traits..exact_size..ExactSizeIterator$GT$3len17hcfc00b6e1020dd60E
chrome_crashpad_handler:_ZN86_$LT$std..env..ArgsOs$u20$as$u20$core..iter..traits..exact_size..ExactSizeIterator$GT$8is_empty17hf7ee8e58515075cfE
chrome_crashpad_handler:_ZN86_$LT$std..net..tcp..IntoIncoming$u20$as$u20$core..iter..traits..iterator..Iterator$GT$4next17he1ecbcb1732d4202E
chrome_crashpad_handler:_ZN86_$LT$std..sys..pal..unix..stack_overflow..Handler$u20$as$u20$core..ops..drop..Drop$GT$4drop17h858d9ab2de6b8427E
chrome_crashpad_handler:_ZN86_$LT$std..sys..sync..once..futex..CompletionGuard$u20$as$u20$core..ops..drop..Drop$GT$4drop17ha2b4a91af2fb6911E
chrome_crashpad_handler:_ZN87_$LT$core..num..nonzero..NonZero$LT$isize$GT$$u20$as$u20$core..str..traits..FromStr$GT$8from_str17h51f2617d58b489e5E
chrome_crashpad_handler:_ZN87_$LT$core..num..nonzero..NonZero$LT$usize$GT$$u20$as$u20$core..str..traits..FromStr$GT$8from_str17h0f547284032c8692E
chrome_crashpad_handler:_ZN87_$LT$core..str..lossy..Utf8Chunks$u20$as$u20$core..iter..traits..iterator..Iterator$GT$4next17h26e698fdebcbaca0E
chrome_crashpad_handler:_ZN87_$LT$serde_json_lenient..value..de..SeqDeserializer$u20$as$u20$serde..de..SeqAccess$GT$9size_hint17h209b712d0315c569E
chrome_crashpad_handler:_ZN87_$LT$std..backtrace_rs..backtrace..libunwind..Bomb$u20$as$u20$core..ops..drop..Drop$GT$4drop17h13996d1390112eb5E
chrome_crashpad_handler:_ZN87_$LT$std..net..tcp..TcpStream$u20$as$u20$std..os..net..linux_ext..tcp..TcpStreamExt$GT$11deferaccept17hfc6fc96102c73318E
chrome_crashpad_handler:_ZN87_$LT$std..net..tcp..TcpStream$u20$as$u20$std..os..net..linux_ext..tcp..TcpStreamExt$GT$12set_quickack17hfe473f41bdc4369fE
chrome_crashpad_handler:_ZN87_$LT$std..net..tcp..TcpStream$u20$as$u20$std..os..net..linux_ext..tcp..TcpStreamExt$GT$15set_deferaccept17h04b3a25518c9216fE
chrome_crashpad_handler:_ZN87_$LT$std..net..tcp..TcpStream$u20$as$u20$std..os..net..linux_ext..tcp..TcpStreamExt$GT$8quickack17heb3ef0d5acbc84aeE
chrome_crashpad_handler:_ZN87_$LT$std..process..ExitStatusError$u20$as$u20$std..os..unix..process..ExitStatusExt$GT$11core_dumped17h8021f7d96e342515E
chrome_crashpad_handler:_ZN87_$LT$std..process..ExitStatusError$u20$as$u20$std..os..unix..process..ExitStatusExt$GT$6signal17h54da520830d02a7cE
chrome_crashpad_handler:_ZN87_$LT$std..process..ExitStatusError$u20$as$u20$std..os..unix..process..ExitStatusExt$GT$8from_raw17h93d140cc176b4ba9E
chrome_crashpad_handler:_ZN87_$LT$std..sys..pal..unix..os..Env$u20$as$u20$core..iter..traits..iterator..Iterator$GT$4next17h85106f166ca70fa5E
chrome_crashpad_handler:_ZN87_$LT$std..sys..pal..unix..os..Env$u20$as$u20$core..iter..traits..iterator..Iterator$GT$9size_hint17h7699d5f031c45a2cE
chrome_crashpad_handler:_ZN88_$LT$alloc..collections..btree..map..UnorderedKeyError$u20$as$u20$core..fmt..Display$GT$3fmt17h5039bfe30e88b91cE
chrome_crashpad_handler:_ZN88_$LT$std..env..Args$u20$as$u20$core..iter..traits..double_ended..DoubleEndedIterator$GT$9next_back17hd2a530caee9e42f7E
chrome_crashpad_handler:_ZN88_$LT$std..io..stdio..StdinLock$u20$as$u20$std..sys..pal..unix..kernel_copy..CopyRead$GT$10properties17h0b40841167345161E
chrome_crashpad_handler:_ZN88_$LT$std..sys..pal..unix..linux..pidfd..PidFd$u20$as$u20$std..os..fd..raw..FromRawFd$GT$11from_raw_fd17ha53dab8c2ddb5e09E
chrome_crashpad_handler:_ZN88_$LT$std..time..Instant$u20$as$u20$core..ops..arith..Add$LT$core..time..Duration$GT$$GT$3add17h669e0ea6fffffa15E
chrome_crashpad_handler:_ZN88_$LT$std..time..Instant$u20$as$u20$core..ops..arith..Sub$LT$core..time..Duration$GT$$GT$3sub17hb9d2d39e2cda504aE
chrome_crashpad_handler:_ZN89_$LT$$RF$mut$u20$$u5b$u8$u5d$$u20$as$u20$alloc..ffi..c_str..CString..new..SpecNewImpl$GT$13spec_new_impl17h45dc075dbf2c0520E
chrome_crashpad_handler:_ZN89_$LT$serde..__private..de..content..TagOrContentVisitor$u20$as$u20$serde..de..Visitor$GT$9expecting17hf88bc3207d30cef3E
chrome_crashpad_handler:_ZN89_$LT$serde..__private..de..content..UntaggedUnitVisitor$u20$as$u20$serde..de..Visitor$GT$9expecting17hbf3a36b0d66921a9E
chrome_crashpad_handler:_ZN89_$LT$serde_json_lenient..value..ser..SerializeMap$u20$as$u20$serde..ser..SerializeMap$GT$3end17h92d0489c37c0ab30E
chrome_crashpad_handler:_ZN89_$LT$std..backtrace_rs..symbolize..gimli..mmap..Mmap$u20$as$u20$core..ops..drop..Drop$GT$4drop17hed944334916fc181E
chrome_crashpad_handler:_ZN89_$LT$std..panicking..rust_panic_without_hook..RewrapBox$u20$as$u20$core..fmt..Display$GT$3fmt17h4cc5e9c5321ee121E
chrome_crashpad_handler:_ZN90_$LT$serde..__private..de..borrow_cow_str..CowStrVisitor$u20$as$u20$serde..de..Visitor$GT$9expecting17hac5b727b6abb0158E
chrome_crashpad_handler:_ZN90_$LT$serde_json_lenient..value..de..SeqRefDeserializer$u20$as$u20$serde..de..SeqAccess$GT$9size_hint17haabee7b4a79dae3eE
chrome_crashpad_handler:_ZN90_$LT$std..env..ArgsOs$u20$as$u20$core..iter..traits..double_ended..DoubleEndedIterator$GT$9next_back17h74f00ee54ca18ad1E
chrome_crashpad_handler:_ZN90_$LT$std..io..stdio..StderrLock$u20$as$u20$std..sys..pal..unix..kernel_copy..CopyWrite$GT$10properties17h74c711d1cbf05f1aE
chrome_crashpad_handler:_ZN90_$LT$std..io..stdio..StdoutLock$u20$as$u20$std..sys..pal..unix..kernel_copy..CopyWrite$GT$10properties17hf0af54a7e176894bE
chrome_crashpad_handler:_ZN90_$LT$std..sys..pal..unix..args..Args$u20$as$u20$core..iter..traits..iterator..Iterator$GT$4next17h36798e10ffe73aefE
chrome_crashpad_handler:_ZN90_$LT$std..sys..pal..unix..args..Args$u20$as$u20$core..iter..traits..iterator..Iterator$GT$9size_hint17he78f13ba5a5b761dE
chrome_crashpad_handler:_ZN90_$LT$std..sys..pal..unix..process..process_common..Command$u20$as$u20$core..fmt..Debug$GT$3fmt17hea42a45dca529a52E
chrome_crashpad_handler:_ZN90_$LT$std..sys_common..net..LookupHost$u20$as$u20$core..convert..TryFrom$LT$$RF$str$GT$$GT$8try_from17h7736ba6ea9bf4e19E
chrome_crashpad_handler:_ZN91_$LT$addr2line..LocationRangeUnitIter$u20$as$u20$core..iter..traits..iterator..Iterator$GT$4next17ha505a9175794b26dE
chrome_crashpad_handler:_ZN91_$LT$serde_json_lenient..value..ser..MapKeySerializer$u20$as$u20$serde..ser..Serializer$GT$12serialize_i817h70828c171191c9b8E
chrome_crashpad_handler:_ZN91_$LT$serde_json_lenient..value..ser..MapKeySerializer$u20$as$u20$serde..ser..Serializer$GT$12serialize_u817hf7242db764250a25E
chrome_crashpad_handler:_ZN91_$LT$serde_json_lenient..value..ser..MapKeySerializer$u20$as$u20$serde..ser..Serializer$GT$13serialize_f3217h0087c4ab0ea2b5e3E
chrome_crashpad_handler:_ZN91_$LT$serde_json_lenient..value..ser..MapKeySerializer$u20$as$u20$serde..ser..Serializer$GT$13serialize_f6417h60ddc9e144f816f9E
chrome_crashpad_handler:_ZN91_$LT$serde_json_lenient..value..ser..MapKeySerializer$u20$as$u20$serde..ser..Serializer$GT$13serialize_i1617h3053ec633b790a01E
chrome_crashpad_handler:_ZN91_$LT$serde_json_lenient..value..ser..MapKeySerializer$u20$as$u20$serde..ser..Serializer$GT$13serialize_i3217h090e995a676661edE
chrome_crashpad_handler:_ZN91_$LT$serde_json_lenient..value..ser..MapKeySerializer$u20$as$u20$serde..ser..Serializer$GT$13serialize_i6417hfbfa551c08d3ee97E
chrome_crashpad_handler:_ZN91_$LT$serde_json_lenient..value..ser..MapKeySerializer$u20$as$u20$serde..ser..Serializer$GT$13serialize_map17h196184672c14daf2E
chrome_crashpad_handler:_ZN91_$LT$serde_json_lenient..value..ser..MapKeySerializer$u20$as$u20$serde..ser..Serializer$GT$13serialize_seq17hc986a9922ca36cafE
chrome_crashpad_handler:_ZN91_$LT$serde_json_lenient..value..ser..MapKeySerializer$u20$as$u20$serde..ser..Serializer$GT$13serialize_u1617h0b65e78590cc6e77E
chrome_crashpad_handler:_ZN91_$LT$serde_json_lenient..value..ser..MapKeySerializer$u20$as$u20$serde..ser..Serializer$GT$13serialize_u3217ha2f6072700afd468E
chrome_crashpad_handler:_ZN91_$LT$serde_json_lenient..value..ser..MapKeySerializer$u20$as$u20$serde..ser..Serializer$GT$13serialize_u6417heecbd6128f44370cE
chrome_crashpad_handler:_ZN91_$LT$serde_json_lenient..value..ser..MapKeySerializer$u20$as$u20$serde..ser..Serializer$GT$14serialize_bool17h3e3e10354c423df3E
chrome_crashpad_handler:_ZN91_$LT$serde_json_lenient..value..ser..MapKeySerializer$u20$as$u20$serde..ser..Serializer$GT$14serialize_none17h0098b8e0bfd97730E
chrome_crashpad_handler:_ZN91_$LT$serde_json_lenient..value..ser..MapKeySerializer$u20$as$u20$serde..ser..Serializer$GT$14serialize_unit17h557ce9f8372376e8E
chrome_crashpad_handler:_ZN91_$LT$serde_json_lenient..value..ser..MapKeySerializer$u20$as$u20$serde..ser..Serializer$GT$15serialize_bytes17h452b3c9f4f1ce2dcE
chrome_crashpad_handler:_ZN91_$LT$serde_json_lenient..value..ser..MapKeySerializer$u20$as$u20$serde..ser..Serializer$GT$15serialize_tuple17h4d3433de97a9e6c7E
chrome_crashpad_handler:_ZN91_$LT$serde_json_lenient..value..ser..MapKeySerializer$u20$as$u20$serde..ser..Serializer$GT$16serialize_struct17hd4a43a1a8fcad05cE
chrome_crashpad_handler:_ZN91_$LT$serde_json_lenient..value..ser..MapKeySerializer$u20$as$u20$serde..ser..Serializer$GT$21serialize_unit_struct17h33e0a0cf224d0518E
chrome_crashpad_handler:_ZN91_$LT$serde_json_lenient..value..ser..MapKeySerializer$u20$as$u20$serde..ser..Serializer$GT$22serialize_tuple_struct17hdb7569a5e6bb4aa4E
chrome_crashpad_handler:_ZN91_$LT$serde_json_lenient..value..ser..MapKeySerializer$u20$as$u20$serde..ser..Serializer$GT$23serialize_tuple_variant17hf6761f6f1291d91cE
chrome_crashpad_handler:_ZN91_$LT$serde_json_lenient..value..ser..MapKeySerializer$u20$as$u20$serde..ser..Serializer$GT$24serialize_struct_variant17hf87cfd2bfae2b6feE
chrome_crashpad_handler:_ZN91_$LT$std..backtrace_rs..symbolize..gimli..mmap..Mmap$u20$as$u20$core..ops..deref..Deref$GT$5deref17h32a4b3dc8cbf4d50E
chrome_crashpad_handler:_ZN91_$LT$std..sys..pal..unix..fs..ReadDir$u20$as$u20$core..iter..traits..iterator..Iterator$GT$4next17ha950a5b6a1b2dfe6E
chrome_crashpad_handler:_ZN91_$LT$std..sys..pal..unix..process..process_common..ExitCode$u20$as$u20$core..fmt..Debug$GT$3fmt17hd0aa47d7e516745dE
chrome_crashpad_handler:_ZN91_$LT$std..sys_common..net..LookupHost$u20$as$u20$core..iter..traits..iterator..Iterator$GT$4next17h1184c8b378f081e4E
chrome_crashpad_handler:_ZN91_$LT$std..sys_common..wstr..WStrUnits$u20$as$u20$core..iter..traits..iterator..Iterator$GT$4next17h5d6f0b0f9537019bE
chrome_crashpad_handler:_ZN91_$LT$std..time..SystemTime$u20$as$u20$core..ops..arith..Add$LT$core..time..Duration$GT$$GT$3add17h4bf91af3fe1a4c92E
chrome_crashpad_handler:_ZN91_$LT$std..time..SystemTime$u20$as$u20$core..ops..arith..Sub$LT$core..time..Duration$GT$$GT$3sub17hb87b06559dcfc3d7E
chrome_crashpad_handler:_ZN92_$LT$$LP$alloc..string..String$C$u16$RP$$u20$as$u20$std..net..socket_addr..ToSocketAddrs$GT$15to_socket_addrs17hadf5cdd2c40855cbE
chrome_crashpad_handler:_ZN92_$LT$alloc..borrow..Cow$LT$str$GT$$u20$as$u20$core..ops..arith..AddAssign$LT$$RF$str$GT$$GT$10add_assign17h4781f6cc7cc26ebbE
chrome_crashpad_handler:_ZN92_$LT$serde_json_lenient..value..ser..SerializeMap$u20$as$u20$serde..ser..SerializeStruct$GT$3end17h44c16dc57ed9621dE
chrome_crashpad_handler:_ZN92_$LT$std..panicking..begin_panic_handler..StaticStrPayload$u20$as$u20$core..fmt..Display$GT$3fmt17hb75792966cd02b88E
chrome_crashpad_handler:_ZN92_$LT$std..sys..pal..unix..process..process_inner..ExitStatus$u20$as$u20$core..fmt..Debug$GT$3fmt17h74b2c66dce95f7ddE
chrome_crashpad_handler:_ZN93_$LT$alloc..collections..btree..mem..replace..PanicGuard$u20$as$u20$core..ops..drop..Drop$GT$4drop17h55d2d92a90cd6e52E
chrome_crashpad_handler:_ZN93_$LT$core..char..EscapeDebug$u20$as$u20$core..iter..traits..exact_size..ExactSizeIterator$GT$3len17h4629c3884b8f9c1eE
chrome_crashpad_handler:_ZN93_$LT$core..char..ToLowercase$u20$as$u20$core..iter..traits..exact_size..ExactSizeIterator$GT$3len17h3c92afd0802eb9ffE
chrome_crashpad_handler:_ZN93_$LT$core..char..ToLowercase$u20$as$u20$core..iter..traits..exact_size..ExactSizeIterator$GT$8is_empty17h1c6b2c762d0ae82cE
chrome_crashpad_handler:_ZN93_$LT$core..char..ToUppercase$u20$as$u20$core..iter..traits..exact_size..ExactSizeIterator$GT$3len17hadfb861b14630336E
chrome_crashpad_handler:_ZN93_$LT$core..char..ToUppercase$u20$as$u20$core..iter..traits..exact_size..ExactSizeIterator$GT$8is_empty17h9acfa520f80d18ebE
chrome_crashpad_handler:_ZN94_$LT$object..xcoff..SectionHeader32$u20$as$u20$object..read..xcoff..section..SectionHeader$GT$6s_size17h1ae6258f352e1613E
chrome_crashpad_handler:_ZN94_$LT$object..xcoff..SectionHeader32$u20$as$u20$object..read..xcoff..section..SectionHeader$GT$7s_flags17hc11346f5d8e69636E
chrome_crashpad_handler:_ZN94_$LT$object..xcoff..SectionHeader32$u20$as$u20$object..read..xcoff..section..SectionHeader$GT$7s_nlnno17h9ac3bba4e0aa005aE
chrome_crashpad_handler:_ZN94_$LT$object..xcoff..SectionHeader32$u20$as$u20$object..read..xcoff..section..SectionHeader$GT$7s_paddr17hfaa920a7e6f9bf15E
chrome_crashpad_handler:_ZN94_$LT$object..xcoff..SectionHeader32$u20$as$u20$object..read..xcoff..section..SectionHeader$GT$7s_vaddr17h3c8c2a72fd154bb7E
chrome_crashpad_handler:_ZN94_$LT$object..xcoff..SectionHeader32$u20$as$u20$object..read..xcoff..section..SectionHeader$GT$8s_nreloc17h17689c9eac6e00dfE
chrome_crashpad_handler:_ZN94_$LT$object..xcoff..SectionHeader32$u20$as$u20$object..read..xcoff..section..SectionHeader$GT$8s_relptr17he21ff23e68c31a80E
chrome_crashpad_handler:_ZN94_$LT$object..xcoff..SectionHeader32$u20$as$u20$object..read..xcoff..section..SectionHeader$GT$8s_scnptr17hf51957dbfbefa977E
chrome_crashpad_handler:_ZN94_$LT$object..xcoff..SectionHeader32$u20$as$u20$object..read..xcoff..section..SectionHeader$GT$9s_lnnoptr17h5d41a405ad7a416fE
chrome_crashpad_handler:_ZN94_$LT$object..xcoff..SectionHeader64$u20$as$u20$object..read..xcoff..section..SectionHeader$GT$6s_size17h9583e42df0c6952bE
chrome_crashpad_handler:_ZN94_$LT$object..xcoff..SectionHeader64$u20$as$u20$object..read..xcoff..section..SectionHeader$GT$7s_flags17h405722cc2b3f3594E
chrome_crashpad_handler:_ZN94_$LT$object..xcoff..SectionHeader64$u20$as$u20$object..read..xcoff..section..SectionHeader$GT$7s_nlnno17hc013ca2fe25f4e8fE
chrome_crashpad_handler:_ZN94_$LT$object..xcoff..SectionHeader64$u20$as$u20$object..read..xcoff..section..SectionHeader$GT$7s_paddr17ha077e7281b50f9d4E
chrome_crashpad_handler:_ZN94_$LT$object..xcoff..SectionHeader64$u20$as$u20$object..read..xcoff..section..SectionHeader$GT$7s_vaddr17hea6620e4ec0e10d9E
chrome_crashpad_handler:_ZN94_$LT$object..xcoff..SectionHeader64$u20$as$u20$object..read..xcoff..section..SectionHeader$GT$8s_nreloc17hca4b54ca63adc44aE
chrome_crashpad_handler:_ZN94_$LT$object..xcoff..SectionHeader64$u20$as$u20$object..read..xcoff..section..SectionHeader$GT$8s_relptr17h888a04eaed004be5E
chrome_crashpad_handler:_ZN94_$LT$object..xcoff..SectionHeader64$u20$as$u20$object..read..xcoff..section..SectionHeader$GT$8s_scnptr17h948617282634ecc0E
chrome_crashpad_handler:_ZN94_$LT$object..xcoff..SectionHeader64$u20$as$u20$object..read..xcoff..section..SectionHeader$GT$9s_lnnoptr17h49c04e6f663ef96bE
chrome_crashpad_handler:_ZN94_$LT$serde..__private..de..borrow_cow_bytes..CowBytesVisitor$u20$as$u20$serde..de..Visitor$GT$9expecting17hfdb0136faa414a24E
chrome_crashpad_handler:_ZN94_$LT$serde..__private..de..content..TagOrContentFieldVisitor$u20$as$u20$serde..de..Visitor$GT$9expecting17h3334cbde769c11d1E
chrome_crashpad_handler:_ZN94_$LT$std..sys..pal..unix..os..SplitPaths$u20$as$u20$core..iter..traits..iterator..Iterator$GT$4next17h4ed0081ef2ad710bE
chrome_crashpad_handler:_ZN94_$LT$std..sys..pal..unix..os..SplitPaths$u20$as$u20$core..iter..traits..iterator..Iterator$GT$9size_hint17h5befd0db1f7ec11bE
chrome_crashpad_handler:_ZN94_$LT$std..sys..pal..unix..process..process_common..CommandArgs$u20$as$u20$core..fmt..Debug$GT$3fmt17h0806e16a6a8b86f1E
chrome_crashpad_handler:_ZN94_$LT$std..sys..pal..unix..process..process_inner..ExitStatus$u20$as$u20$core..fmt..Display$GT$3fmt17h973108e3e7fae139E
chrome_crashpad_handler:_ZN94_$LT$std..time..Instant$u20$as$u20$core..ops..arith..AddAssign$LT$core..time..Duration$GT$$GT$10add_assign17h359496f315c726ceE
chrome_crashpad_handler:_ZN94_$LT$std..time..Instant$u20$as$u20$core..ops..arith..SubAssign$LT$core..time..Duration$GT$$GT$10sub_assign17h317b7a48151e9167E
chrome_crashpad_handler:_ZN95_$LT$serde_json_lenient..value..de..VariantDeserializer$u20$as$u20$serde..de..VariantAccess$GT$12unit_variant17h8ad309d76cc3cc8cE
chrome_crashpad_handler:_ZN95_$LT$std..panicking..begin_panic_handler..FormatStringPayload$u20$as$u20$core..fmt..Display$GT$3fmt17h048ba39419038ddcE
chrome_crashpad_handler:_ZN95_$LT$std..path..Components$u20$as$u20$core..iter..traits..double_ended..DoubleEndedIterator$GT$9next_back17hd8a0a6292090266aE
chrome_crashpad_handler:_ZN95_$LT$std..process..CommandArgs$u20$as$u20$core..iter..traits..exact_size..ExactSizeIterator$GT$3len17hf470b00304b7542bE
chrome_crashpad_handler:_ZN96_$LT$std..io..error..Error$u20$as$u20$core..convert..From$LT$alloc..ffi..c_str..NulError$GT$$GT$4from17h120c9ba9bfd23f42E
chrome_crashpad_handler:_ZN96_$LT$std..panicking..rust_panic_without_hook..RewrapBox$u20$as$u20$core..panic..PanicPayload$GT$8take_box17h09a2a208c0b08eb5E
chrome_crashpad_handler:_ZN96_$LT$std..sys_common..process..CommandEnvs$u20$as$u20$core..iter..traits..iterator..Iterator$GT$4next17ha2138459a352f791E
chrome_crashpad_handler:_ZN97_$LT$alloc..string..String$u20$as$u20$core..convert..From$LT$alloc..boxed..Box$LT$str$GT$$GT$$GT$4from17hd0e6e0d57a7c5f30E
chrome_crashpad_handler:_ZN97_$LT$core..char..CaseMappingIter$u20$as$u20$core..iter..traits..exact_size..ExactSizeIterator$GT$3len17h66043940eede62c9E
chrome_crashpad_handler:_ZN97_$LT$core..char..CaseMappingIter$u20$as$u20$core..iter..traits..exact_size..ExactSizeIterator$GT$8is_empty17ha690b0ddfc97a340E
chrome_crashpad_handler:_ZN97_$LT$core..char..ToLowercase$u20$as$u20$core..iter..traits..double_ended..DoubleEndedIterator$GT$15advance_back_by17h3a51d28444763f0fE
chrome_crashpad_handler:_ZN97_$LT$core..char..ToLowercase$u20$as$u20$core..iter..traits..double_ended..DoubleEndedIterator$GT$9next_back17h19252c6735412b06E
chrome_crashpad_handler:_ZN97_$LT$core..char..ToUppercase$u20$as$u20$core..iter..traits..double_ended..DoubleEndedIterator$GT$15advance_back_by17h81859f0399ea83b3E
chrome_crashpad_handler:_ZN97_$LT$core..char..ToUppercase$u20$as$u20$core..iter..traits..double_ended..DoubleEndedIterator$GT$9next_back17h6a3babbf692a88b4E
chrome_crashpad_handler:_ZN97_$LT$serde..__private..de..content..InternallyTaggedUnitVisitor$u20$as$u20$serde..de..Visitor$GT$9expecting17hb967ee9627097d1cE
chrome_crashpad_handler:_ZN97_$LT$serde..__private..de..content..TagContentOtherFieldVisitor$u20$as$u20$serde..de..Visitor$GT$9expecting17hab2c361ffc2d272eE
chrome_crashpad_handler:_ZN97_$LT$std..os..unix..net..listener..Incoming$u20$as$u20$core..iter..traits..iterator..Iterator$GT$4next17h2533f9d56c0b85e0E
chrome_crashpad_handler:_ZN97_$LT$std..sys..pal..unix..process..process_inner..ExitStatusError$u20$as$u20$core..fmt..Debug$GT$3fmt17hc6ab7ccabb54f241E
chrome_crashpad_handler:_ZN97_$LT$std..time..SystemTime$u20$as$u20$core..ops..arith..AddAssign$LT$core..time..Duration$GT$$GT$10add_assign17hd1a727827f76ce37E
chrome_crashpad_handler:_ZN97_$LT$std..time..SystemTime$u20$as$u20$core..ops..arith..SubAssign$LT$core..time..Duration$GT$$GT$10sub_assign17h70f81cf6ede9f100E
chrome_crashpad_handler:_ZN98_$LT$alloc..string..String$u20$as$u20$core..convert..From$LT$alloc..borrow..Cow$LT$str$GT$$GT$$GT$4from17h43164afe95831740E
chrome_crashpad_handler:_ZN98_$LT$serde_json_lenient..value..de..VariantRefDeserializer$u20$as$u20$serde..de..VariantAccess$GT$12unit_variant17h4d11d398aedbfba9E
chrome_crashpad_handler:_ZN98_$LT$std..os..unix..net..ancillary..Messages$u20$as$u20$core..iter..traits..iterator..Iterator$GT$4next17h538a991655410d4aE
chrome_crashpad_handler:_ZN98_$LT$std..sys..backtrace..BacktraceLock..print..DisplayBacktrace$u20$as$u20$core..fmt..Display$GT$3fmt17hc2d28577987808dbE
chrome_crashpad_handler:_ZN99_$LT$std..os..unix..net..ancillary..ScmRights$u20$as$u20$core..iter..traits..iterator..Iterator$GT$4next17hf44adaeaa06d3fffE
chrome_crashpad_handler:_ZN99_$LT$std..panicking..begin_panic_handler..StaticStrPayload$u20$as$u20$core..panic..PanicPayload$GT$8take_box17ha739915ea4c56facE
chrome_crashpad_handler:_ZN9addr2line13demangle_auto17h1a8b25f0d83dc351E
chrome_crashpad_handler:_ZN9addr2line9path_push17h821549b5da904750E
chrome_crashpad_handler:_ZdaPv
chrome_crashpad_handler:_ZdaPvRKSt9nothrow_t
chrome_crashpad_handler:_ZdaPvSt11align_val_t
chrome_crashpad_handler:_ZdaPvSt11align_val_tRKSt9nothrow_t
chrome_crashpad_handler:_ZdaPvm
chrome_crashpad_handler:_ZdaPvmSt11align_val_t
chrome_crashpad_handler:_ZdlPv
chrome_crashpad_handler:_ZdlPvRKSt9nothrow_t
chrome_crashpad_handler:_ZdlPvSt11align_val_t
chrome_crashpad_handler:_ZdlPvSt11align_val_tRKSt9nothrow_t
chrome_crashpad_handler:_ZdlPvm
chrome_crashpad_handler:_ZdlPvmSt11align_val_t
chrome_crashpad_handler:_Znam
chrome_crashpad_handler:_ZnamRKSt9nothrow_t
chrome_crashpad_handler:_ZnamSt11align_val_t
chrome_crashpad_handler:_ZnamSt11align_val_tRKSt9nothrow_t
chrome_crashpad_handler:_Znwm
chrome_crashpad_handler:_ZnwmRKSt9nothrow_t
chrome_crashpad_handler:_ZnwmSt11align_val_t
chrome_crashpad_handler:_ZnwmSt11align_val_tRKSt9nothrow_t
chrome_crashpad_handler:__data_start
chrome_crashpad_handler:__free_hook
chrome_crashpad_handler:__libc_calloc
chrome_crashpad_handler:__libc_cfree
chrome_crashpad_handler:__libc_csu_fini
chrome_crashpad_handler:__libc_csu_init
chrome_crashpad_handler:__libc_free
chrome_crashpad_handler:__libc_malloc
chrome_crashpad_handler:__libc_memalign
chrome_crashpad_handler:__libc_pvalloc
chrome_crashpad_handler:__libc_realloc
chrome_crashpad_handler:__libc_valloc
chrome_crashpad_handler:__malloc_hook
chrome_crashpad_handler:__memalign_hook
chrome_crashpad_handler:__posix_memalign
chrome_crashpad_handler:__rdl_alloc
chrome_crashpad_handler:__rdl_alloc_zeroed
chrome_crashpad_handler:__rdl_dealloc
chrome_crashpad_handler:__rdl_oom
chrome_crashpad_handler:__rdl_realloc
chrome_crashpad_handler:__realloc_hook
chrome_crashpad_handler:__rg_oom
chrome_crashpad_handler:__rust_drop_panic
chrome_crashpad_handler:__rust_foreign_exception
chrome_crashpad_handler:_start
chrome_crashpad_handler:aligned_alloc
chrome_crashpad_handler:calloc
chrome_crashpad_handler:cfree
chrome_crashpad_handler:close
chrome_crashpad_handler:cxxbridge1$exception
chrome_crashpad_handler:cxxbridge1$rust_vec$bool$capacity
chrome_crashpad_handler:cxxbridge1$rust_vec$bool$data
chrome_crashpad_handler:cxxbridge1$rust_vec$bool$drop
chrome_crashpad_handler:cxxbridge1$rust_vec$bool$len
chrome_crashpad_handler:cxxbridge1$rust_vec$bool$new
chrome_crashpad_handler:cxxbridge1$rust_vec$bool$reserve_total
chrome_crashpad_handler:cxxbridge1$rust_vec$bool$set_len
chrome_crashpad_handler:cxxbridge1$rust_vec$bool$truncate
chrome_crashpad_handler:cxxbridge1$rust_vec$char$capacity
chrome_crashpad_handler:cxxbridge1$rust_vec$char$data
chrome_crashpad_handler:cxxbridge1$rust_vec$char$drop
chrome_crashpad_handler:cxxbridge1$rust_vec$char$len
chrome_crashpad_handler:cxxbridge1$rust_vec$char$new
chrome_crashpad_handler:cxxbridge1$rust_vec$char$reserve_total
chrome_crashpad_handler:cxxbridge1$rust_vec$char$set_len
chrome_crashpad_handler:cxxbridge1$rust_vec$char$truncate
chrome_crashpad_handler:cxxbridge1$rust_vec$f32$capacity
chrome_crashpad_handler:cxxbridge1$rust_vec$f32$data
chrome_crashpad_handler:cxxbridge1$rust_vec$f32$drop
chrome_crashpad_handler:cxxbridge1$rust_vec$f32$len
chrome_crashpad_handler:cxxbridge1$rust_vec$f32$new
chrome_crashpad_handler:cxxbridge1$rust_vec$f32$reserve_total
chrome_crashpad_handler:cxxbridge1$rust_vec$f32$set_len
chrome_crashpad_handler:cxxbridge1$rust_vec$f32$truncate
chrome_crashpad_handler:cxxbridge1$rust_vec$f64$capacity
chrome_crashpad_handler:cxxbridge1$rust_vec$f64$data
chrome_crashpad_handler:cxxbridge1$rust_vec$f64$drop
chrome_crashpad_handler:cxxbridge1$rust_vec$f64$len
chrome_crashpad_handler:cxxbridge1$rust_vec$f64$new
chrome_crashpad_handler:cxxbridge1$rust_vec$f64$reserve_total
chrome_crashpad_handler:cxxbridge1$rust_vec$f64$set_len
chrome_crashpad_handler:cxxbridge1$rust_vec$f64$truncate
chrome_crashpad_handler:cxxbridge1$rust_vec$i16$capacity
chrome_crashpad_handler:cxxbridge1$rust_vec$i16$data
chrome_crashpad_handler:cxxbridge1$rust_vec$i16$drop
chrome_crashpad_handler:cxxbridge1$rust_vec$i16$len
chrome_crashpad_handler:cxxbridge1$rust_vec$i16$new
chrome_crashpad_handler:cxxbridge1$rust_vec$i16$reserve_total
chrome_crashpad_handler:cxxbridge1$rust_vec$i16$set_len
chrome_crashpad_handler:cxxbridge1$rust_vec$i16$truncate
chrome_crashpad_handler:cxxbridge1$rust_vec$i32$capacity
chrome_crashpad_handler:cxxbridge1$rust_vec$i32$data
chrome_crashpad_handler:cxxbridge1$rust_vec$i32$drop
chrome_crashpad_handler:cxxbridge1$rust_vec$i32$len
chrome_crashpad_handler:cxxbridge1$rust_vec$i32$new
chrome_crashpad_handler:cxxbridge1$rust_vec$i32$reserve_total
chrome_crashpad_handler:cxxbridge1$rust_vec$i32$set_len
chrome_crashpad_handler:cxxbridge1$rust_vec$i32$truncate
chrome_crashpad_handler:cxxbridge1$rust_vec$i64$capacity
chrome_crashpad_handler:cxxbridge1$rust_vec$i64$data
chrome_crashpad_handler:cxxbridge1$rust_vec$i64$drop
chrome_crashpad_handler:cxxbridge1$rust_vec$i64$len
chrome_crashpad_handler:cxxbridge1$rust_vec$i64$new
chrome_crashpad_handler:cxxbridge1$rust_vec$i64$reserve_total
chrome_crashpad_handler:cxxbridge1$rust_vec$i64$set_len
chrome_crashpad_handler:cxxbridge1$rust_vec$i64$truncate
chrome_crashpad_handler:cxxbridge1$rust_vec$i8$capacity
chrome_crashpad_handler:cxxbridge1$rust_vec$i8$data
chrome_crashpad_handler:cxxbridge1$rust_vec$i8$drop
chrome_crashpad_handler:cxxbridge1$rust_vec$i8$len
chrome_crashpad_handler:cxxbridge1$rust_vec$i8$new
chrome_crashpad_handler:cxxbridge1$rust_vec$i8$reserve_total
chrome_crashpad_handler:cxxbridge1$rust_vec$i8$set_len
chrome_crashpad_handler:cxxbridge1$rust_vec$i8$truncate
chrome_crashpad_handler:cxxbridge1$rust_vec$isize$capacity
chrome_crashpad_handler:cxxbridge1$rust_vec$isize$data
chrome_crashpad_handler:cxxbridge1$rust_vec$isize$drop
chrome_crashpad_handler:cxxbridge1$rust_vec$isize$len
chrome_crashpad_handler:cxxbridge1$rust_vec$isize$new
chrome_crashpad_handler:cxxbridge1$rust_vec$isize$reserve_total
chrome_crashpad_handler:cxxbridge1$rust_vec$isize$set_len
chrome_crashpad_handler:cxxbridge1$rust_vec$isize$truncate
chrome_crashpad_handler:cxxbridge1$rust_vec$str$capacity
chrome_crashpad_handler:cxxbridge1$rust_vec$str$data
chrome_crashpad_handler:cxxbridge1$rust_vec$str$drop
chrome_crashpad_handler:cxxbridge1$rust_vec$str$len
chrome_crashpad_handler:cxxbridge1$rust_vec$str$new
chrome_crashpad_handler:cxxbridge1$rust_vec$str$reserve_total
chrome_crashpad_handler:cxxbridge1$rust_vec$str$set_len
chrome_crashpad_handler:cxxbridge1$rust_vec$str$truncate
chrome_crashpad_handler:cxxbridge1$rust_vec$string$capacity
chrome_crashpad_handler:cxxbridge1$rust_vec$string$data
chrome_crashpad_handler:cxxbridge1$rust_vec$string$drop
chrome_crashpad_handler:cxxbridge1$rust_vec$string$len
chrome_crashpad_handler:cxxbridge1$rust_vec$string$new
chrome_crashpad_handler:cxxbridge1$rust_vec$string$reserve_total
chrome_crashpad_handler:cxxbridge1$rust_vec$string$set_len
chrome_crashpad_handler:cxxbridge1$rust_vec$string$truncate
chrome_crashpad_handler:cxxbridge1$rust_vec$u16$capacity
chrome_crashpad_handler:cxxbridge1$rust_vec$u16$data
chrome_crashpad_handler:cxxbridge1$rust_vec$u16$drop
chrome_crashpad_handler:cxxbridge1$rust_vec$u16$len
chrome_crashpad_handler:cxxbridge1$rust_vec$u16$new
chrome_crashpad_handler:cxxbridge1$rust_vec$u16$reserve_total
chrome_crashpad_handler:cxxbridge1$rust_vec$u16$set_len
chrome_crashpad_handler:cxxbridge1$rust_vec$u16$truncate
chrome_crashpad_handler:cxxbridge1$rust_vec$u32$capacity
chrome_crashpad_handler:cxxbridge1$rust_vec$u32$data
chrome_crashpad_handler:cxxbridge1$rust_vec$u32$drop
chrome_crashpad_handler:cxxbridge1$rust_vec$u32$len
chrome_crashpad_handler:cxxbridge1$rust_vec$u32$new
chrome_crashpad_handler:cxxbridge1$rust_vec$u32$reserve_total
chrome_crashpad_handler:cxxbridge1$rust_vec$u32$set_len
chrome_crashpad_handler:cxxbridge1$rust_vec$u32$truncate
chrome_crashpad_handler:cxxbridge1$rust_vec$u64$capacity
chrome_crashpad_handler:cxxbridge1$rust_vec$u64$data
chrome_crashpad_handler:cxxbridge1$rust_vec$u64$drop
chrome_crashpad_handler:cxxbridge1$rust_vec$u64$len
chrome_crashpad_handler:cxxbridge1$rust_vec$u64$new
chrome_crashpad_handler:cxxbridge1$rust_vec$u64$reserve_total
chrome_crashpad_handler:cxxbridge1$rust_vec$u64$set_len
chrome_crashpad_handler:cxxbridge1$rust_vec$u64$truncate
chrome_crashpad_handler:cxxbridge1$rust_vec$u8$capacity
chrome_crashpad_handler:cxxbridge1$rust_vec$u8$data
chrome_crashpad_handler:cxxbridge1$rust_vec$u8$drop
chrome_crashpad_handler:cxxbridge1$rust_vec$u8$len
chrome_crashpad_handler:cxxbridge1$rust_vec$u8$new
chrome_crashpad_handler:cxxbridge1$rust_vec$u8$reserve_total
chrome_crashpad_handler:cxxbridge1$rust_vec$u8$set_len
chrome_crashpad_handler:cxxbridge1$rust_vec$u8$truncate
chrome_crashpad_handler:cxxbridge1$rust_vec$usize$capacity
chrome_crashpad_handler:cxxbridge1$rust_vec$usize$data
chrome_crashpad_handler:cxxbridge1$rust_vec$usize$drop
chrome_crashpad_handler:cxxbridge1$rust_vec$usize$len
chrome_crashpad_handler:cxxbridge1$rust_vec$usize$new
chrome_crashpad_handler:cxxbridge1$rust_vec$usize$reserve_total
chrome_crashpad_handler:cxxbridge1$rust_vec$usize$set_len
chrome_crashpad_handler:cxxbridge1$rust_vec$usize$truncate
chrome_crashpad_handler:cxxbridge1$slice$len
chrome_crashpad_handler:cxxbridge1$slice$new
chrome_crashpad_handler:cxxbridge1$slice$ptr
chrome_crashpad_handler:cxxbridge1$str$from
chrome_crashpad_handler:cxxbridge1$str$len
chrome_crashpad_handler:cxxbridge1$str$new
chrome_crashpad_handler:cxxbridge1$str$ptr
chrome_crashpad_handler:cxxbridge1$str$ref
chrome_crashpad_handler:cxxbridge1$string$capacity
chrome_crashpad_handler:cxxbridge1$string$clone
chrome_crashpad_handler:cxxbridge1$string$drop
chrome_crashpad_handler:cxxbridge1$string$from_utf16
chrome_crashpad_handler:cxxbridge1$string$from_utf16_lossy
chrome_crashpad_handler:cxxbridge1$string$from_utf8
chrome_crashpad_handler:cxxbridge1$string$from_utf8_lossy
chrome_crashpad_handler:cxxbridge1$string$len
chrome_crashpad_handler:cxxbridge1$string$new
chrome_crashpad_handler:cxxbridge1$string$ptr
chrome_crashpad_handler:cxxbridge1$string$reserve_additional
chrome_crashpad_handler:cxxbridge1$string$reserve_total
chrome_crashpad_handler:free
chrome_crashpad_handler:mallinfo
chrome_crashpad_handler:malloc
chrome_crashpad_handler:malloc_size
chrome_crashpad_handler:malloc_stats
chrome_crashpad_handler:malloc_usable_size
chrome_crashpad_handler:mallopt
chrome_crashpad_handler:memalign
chrome_crashpad_handler:posix_memalign
chrome_crashpad_handler:pvalloc
chrome_crashpad_handler:realloc
chrome_crashpad_handler:rust_begin_unwind
chrome_crashpad_handler:rust_eh_personality
chrome_crashpad_handler:rust_panic
chrome_crashpad_handler:serde_json_lenient$cxxbridge1$decode_json
chrome_crashpad_handler:valloc
libEGL.so:eglAcquireExternalContextANGLE
libEGL.so:eglBindAPI
libEGL.so:eglBindTexImage
libEGL.so:eglChooseConfig
libEGL.so:eglClientWaitSync
libEGL.so:eglClientWaitSyncKHR
libEGL.so:eglCopyBuffers
libEGL.so:eglCopyMetalSharedEventANGLE
libEGL.so:eglCreateContext
libEGL.so:eglCreateDeviceANGLE
libEGL.so:eglCreateImage
libEGL.so:eglCreateImageKHR
libEGL.so:eglCreateNativeClientBufferANDROID
libEGL.so:eglCreatePbufferFromClientBuffer
libEGL.so:eglCreatePbufferSurface
libEGL.so:eglCreatePixmapSurface
libEGL.so:eglCreatePlatformPixmapSurface
libEGL.so:eglCreatePlatformPixmapSurfaceEXT
libEGL.so:eglCreatePlatformWindowSurface
libEGL.so:eglCreatePlatformWindowSurfaceEXT
libEGL.so:eglCreateStreamKHR
libEGL.so:eglCreateStreamProducerD3DTextureANGLE
libEGL.so:eglCreateSync
libEGL.so:eglCreateSyncKHR
libEGL.so:eglCreateWindowSurface
libEGL.so:eglDebugMessageControlKHR
libEGL.so:eglDestroyContext
libEGL.so:eglDestroyImage
libEGL.so:eglDestroyImageKHR
libEGL.so:eglDestroyStreamKHR
libEGL.so:eglDestroySurface
libEGL.so:eglDestroySync
libEGL.so:eglDestroySyncKHR
libEGL.so:eglDupNativeFenceFDANDROID
libEGL.so:eglExportVkImageANGLE
libEGL.so:eglForceGPUSwitchANGLE
libEGL.so:eglGetCompositorTimingANDROID
libEGL.so:eglGetCompositorTimingSupportedANDROID
libEGL.so:eglGetConfigAttrib
libEGL.so:eglGetConfigs
libEGL.so:eglGetCurrentContext
libEGL.so:eglGetCurrentDisplay
libEGL.so:eglGetCurrentSurface
libEGL.so:eglGetDisplay
libEGL.so:eglGetError
libEGL.so:eglGetFrameTimestampSupportedANDROID
libEGL.so:eglGetFrameTimestampsANDROID
libEGL.so:eglGetMscRateANGLE
libEGL.so:eglGetNativeClientBufferANDROID
libEGL.so:eglGetNextFrameIdANDROID
libEGL.so:eglGetPlatformDisplay
libEGL.so:eglGetPlatformDisplayEXT
libEGL.so:eglGetProcAddress
libEGL.so:eglGetSyncAttrib
libEGL.so:eglGetSyncAttribKHR
libEGL.so:eglGetSyncValuesCHROMIUM
libEGL.so:eglHandleGPUSwitchANGLE
libEGL.so:eglInitialize
libEGL.so:eglLabelObjectKHR
libEGL.so:eglLockSurfaceKHR
libEGL.so:eglMakeCurrent
libEGL.so:eglPostSubBufferNV
libEGL.so:eglPrepareSwapBuffersANGLE
libEGL.so:eglPresentationTimeANDROID
libEGL.so:eglProgramCacheGetAttribANGLE
libEGL.so:eglProgramCachePopulateANGLE
libEGL.so:eglProgramCacheQueryANGLE
libEGL.so:eglProgramCacheResizeANGLE
libEGL.so:eglQueryAPI
libEGL.so:eglQueryContext
libEGL.so:eglQueryDebugKHR
libEGL.so:eglQueryDeviceAttribEXT
libEGL.so:eglQueryDeviceStringEXT
libEGL.so:eglQueryDisplayAttribANGLE
libEGL.so:eglQueryDisplayAttribEXT
libEGL.so:eglQueryDmaBufFormatsEXT
libEGL.so:eglQueryDmaBufModifiersEXT
libEGL.so:eglQueryStreamKHR
libEGL.so:eglQueryStreamu64KHR
libEGL.so:eglQueryString
libEGL.so:eglQueryStringiANGLE
libEGL.so:eglQuerySurface
libEGL.so:eglQuerySurface64KHR
libEGL.so:eglQuerySurfacePointerANGLE
libEGL.so:eglReacquireHighPowerGPUANGLE
libEGL.so:eglReleaseDeviceANGLE
libEGL.so:eglReleaseExternalContextANGLE
libEGL.so:eglReleaseHighPowerGPUANGLE
libEGL.so:eglReleaseTexImage
libEGL.so:eglReleaseThread
libEGL.so:eglSetBlobCacheFuncsANDROID
libEGL.so:eglSetDamageRegionKHR
libEGL.so:eglSetValidationEnabledANGLE
libEGL.so:eglSignalSyncKHR
libEGL.so:eglStreamAttribKHR
libEGL.so:eglStreamConsumerAcquireKHR
libEGL.so:eglStreamConsumerGLTextureExternalAttribsNV
libEGL.so:eglStreamConsumerGLTextureExternalKHR
libEGL.so:eglStreamConsumerReleaseKHR
libEGL.so:eglStreamPostD3DTextureANGLE
libEGL.so:eglSurfaceAttrib
libEGL.so:eglSwapBuffers
libEGL.so:eglSwapBuffersWithDamageKHR
libEGL.so:eglSwapBuffersWithFrameTokenANGLE
libEGL.so:eglSwapInterval
libEGL.so:eglTerminate
libEGL.so:eglUnlockSurfaceKHR
libEGL.so:eglWaitClient
libEGL.so:eglWaitGL
libEGL.so:eglWaitNative
libEGL.so:eglWaitSync
libEGL.so:eglWaitSyncKHR
libEGL.so:eglWaitUntilWorkScheduledANGLE
libGLESv2.so:EGL_AcquireExternalContextANGLE
libGLESv2.so:EGL_BindAPI
libGLESv2.so:EGL_BindTexImage
libGLESv2.so:EGL_ChooseConfig
libGLESv2.so:EGL_ClientWaitSync
libGLESv2.so:EGL_ClientWaitSyncKHR
libGLESv2.so:EGL_CopyBuffers
libGLESv2.so:EGL_CopyMetalSharedEventANGLE
libGLESv2.so:EGL_CreateContext
libGLESv2.so:EGL_CreateDeviceANGLE
libGLESv2.so:EGL_CreateImage
libGLESv2.so:EGL_CreateImageKHR
libGLESv2.so:EGL_CreateNativeClientBufferANDROID
libGLESv2.so:EGL_CreatePbufferFromClientBuffer
libGLESv2.so:EGL_CreatePbufferSurface
libGLESv2.so:EGL_CreatePixmapSurface
libGLESv2.so:EGL_CreatePlatformPixmapSurface
libGLESv2.so:EGL_CreatePlatformPixmapSurfaceEXT
libGLESv2.so:EGL_CreatePlatformWindowSurface
libGLESv2.so:EGL_CreatePlatformWindowSurfaceEXT
libGLESv2.so:EGL_CreateStreamKHR
libGLESv2.so:EGL_CreateStreamProducerD3DTextureANGLE
libGLESv2.so:EGL_CreateSync
libGLESv2.so:EGL_CreateSyncKHR
libGLESv2.so:EGL_CreateWindowSurface
libGLESv2.so:EGL_DebugMessageControlKHR
libGLESv2.so:EGL_DestroyContext
libGLESv2.so:EGL_DestroyImage
libGLESv2.so:EGL_DestroyImageKHR
libGLESv2.so:EGL_DestroyStreamKHR
libGLESv2.so:EGL_DestroySurface
libGLESv2.so:EGL_DestroySync
libGLESv2.so:EGL_DestroySyncKHR
libGLESv2.so:EGL_DupNativeFenceFDANDROID
libGLESv2.so:EGL_ExportVkImageANGLE
libGLESv2.so:EGL_ForceGPUSwitchANGLE
libGLESv2.so:EGL_GetCompositorTimingANDROID
libGLESv2.so:EGL_GetCompositorTimingSupportedANDROID
libGLESv2.so:EGL_GetConfigAttrib
libGLESv2.so:EGL_GetConfigs
libGLESv2.so:EGL_GetCurrentContext
libGLESv2.so:EGL_GetCurrentDisplay
libGLESv2.so:EGL_GetCurrentSurface
libGLESv2.so:EGL_GetDisplay
libGLESv2.so:EGL_GetError
libGLESv2.so:EGL_GetFrameTimestampSupportedANDROID
libGLESv2.so:EGL_GetFrameTimestampsANDROID
libGLESv2.so:EGL_GetMscRateANGLE
libGLESv2.so:EGL_GetNativeClientBufferANDROID
libGLESv2.so:EGL_GetNextFrameIdANDROID
libGLESv2.so:EGL_GetPlatformDisplay
libGLESv2.so:EGL_GetPlatformDisplayEXT
libGLESv2.so:EGL_GetProcAddress
libGLESv2.so:EGL_GetSyncAttrib
libGLESv2.so:EGL_GetSyncAttribKHR
libGLESv2.so:EGL_GetSyncValuesCHROMIUM
libGLESv2.so:EGL_HandleGPUSwitchANGLE
libGLESv2.so:EGL_Initialize
libGLESv2.so:EGL_LabelObjectKHR
libGLESv2.so:EGL_LockSurfaceKHR
libGLESv2.so:EGL_MakeCurrent
libGLESv2.so:EGL_PostSubBufferNV
libGLESv2.so:EGL_PrepareSwapBuffersANGLE
libGLESv2.so:EGL_PresentationTimeANDROID
libGLESv2.so:EGL_ProgramCacheGetAttribANGLE
libGLESv2.so:EGL_ProgramCachePopulateANGLE
libGLESv2.so:EGL_ProgramCacheQueryANGLE
libGLESv2.so:EGL_ProgramCacheResizeANGLE
libGLESv2.so:EGL_QueryAPI
libGLESv2.so:EGL_QueryContext
libGLESv2.so:EGL_QueryDebugKHR
libGLESv2.so:EGL_QueryDeviceAttribEXT
libGLESv2.so:EGL_QueryDeviceStringEXT
libGLESv2.so:EGL_QueryDisplayAttribANGLE
libGLESv2.so:EGL_QueryDisplayAttribEXT
libGLESv2.so:EGL_QueryDmaBufFormatsEXT
libGLESv2.so:EGL_QueryDmaBufModifiersEXT
libGLESv2.so:EGL_QueryStreamKHR
libGLESv2.so:EGL_QueryStreamu64KHR
libGLESv2.so:EGL_QueryString
libGLESv2.so:EGL_QueryStringiANGLE
libGLESv2.so:EGL_QuerySurface
libGLESv2.so:EGL_QuerySurface64KHR
libGLESv2.so:EGL_QuerySurfacePointerANGLE
libGLESv2.so:EGL_ReacquireHighPowerGPUANGLE
libGLESv2.so:EGL_ReleaseDeviceANGLE
libGLESv2.so:EGL_ReleaseExternalContextANGLE
libGLESv2.so:EGL_ReleaseHighPowerGPUANGLE
libGLESv2.so:EGL_ReleaseTexImage
libGLESv2.so:EGL_ReleaseThread
libGLESv2.so:EGL_SetBlobCacheFuncsANDROID
libGLESv2.so:EGL_SetDamageRegionKHR
libGLESv2.so:EGL_SetValidationEnabledANGLE
libGLESv2.so:EGL_SignalSyncKHR
libGLESv2.so:EGL_StreamAttribKHR
libGLESv2.so:EGL_StreamConsumerAcquireKHR
libGLESv2.so:EGL_StreamConsumerGLTextureExternalAttribsNV
libGLESv2.so:EGL_StreamConsumerGLTextureExternalKHR
libGLESv2.so:EGL_StreamConsumerReleaseKHR
libGLESv2.so:EGL_StreamPostD3DTextureANGLE
libGLESv2.so:EGL_SurfaceAttrib
libGLESv2.so:EGL_SwapBuffers
libGLESv2.so:EGL_SwapBuffersWithDamageKHR
libGLESv2.so:EGL_SwapBuffersWithFrameTokenANGLE
libGLESv2.so:EGL_SwapInterval
libGLESv2.so:EGL_Terminate
libGLESv2.so:EGL_UnlockSurfaceKHR
libGLESv2.so:EGL_WaitClient
libGLESv2.so:EGL_WaitGL
libGLESv2.so:EGL_WaitNative
libGLESv2.so:EGL_WaitSync
libGLESv2.so:EGL_WaitSyncKHR
libGLESv2.so:EGL_WaitUntilWorkScheduledANGLE
libGLESv2.so:GL_AcquireTexturesANGLE
libGLESv2.so:GL_ActiveShaderProgram
libGLESv2.so:GL_ActiveShaderProgramEXT
libGLESv2.so:GL_ActiveTexture
libGLESv2.so:GL_AlphaFunc
libGLESv2.so:GL_AlphaFuncx
libGLESv2.so:GL_AttachShader
libGLESv2.so:GL_BeginPerfMonitorAMD
libGLESv2.so:GL_BeginPixelLocalStorageANGLE
libGLESv2.so:GL_BeginQuery
libGLESv2.so:GL_BeginQueryEXT
libGLESv2.so:GL_BeginTransformFeedback
libGLESv2.so:GL_BindAttribLocation
libGLESv2.so:GL_BindBuffer
libGLESv2.so:GL_BindBufferBase
libGLESv2.so:GL_BindBufferRange
libGLESv2.so:GL_BindFragDataLocationEXT
libGLESv2.so:GL_BindFragDataLocationIndexedEXT
libGLESv2.so:GL_BindFramebuffer
libGLESv2.so:GL_BindFramebufferOES
libGLESv2.so:GL_BindImageTexture
libGLESv2.so:GL_BindProgramPipeline
libGLESv2.so:GL_BindProgramPipelineEXT
libGLESv2.so:GL_BindRenderbuffer
libGLESv2.so:GL_BindRenderbufferOES
libGLESv2.so:GL_BindSampler
libGLESv2.so:GL_BindTexture
libGLESv2.so:GL_BindTransformFeedback
libGLESv2.so:GL_BindUniformLocationCHROMIUM
libGLESv2.so:GL_BindVertexArray
libGLESv2.so:GL_BindVertexArrayOES
libGLESv2.so:GL_BindVertexBuffer
libGLESv2.so:GL_BlendBarrier
libGLESv2.so:GL_BlendBarrierKHR
libGLESv2.so:GL_BlendColor
libGLESv2.so:GL_BlendEquation
libGLESv2.so:GL_BlendEquationSeparate
libGLESv2.so:GL_BlendEquationSeparatei
libGLESv2.so:GL_BlendEquationSeparateiEXT
libGLESv2.so:GL_BlendEquationSeparateiOES
libGLESv2.so:GL_BlendEquationi
libGLESv2.so:GL_BlendEquationiEXT
libGLESv2.so:GL_BlendEquationiOES
libGLESv2.so:GL_BlendFunc
libGLESv2.so:GL_BlendFuncSeparate
libGLESv2.so:GL_BlendFuncSeparatei
libGLESv2.so:GL_BlendFuncSeparateiEXT
libGLESv2.so:GL_BlendFuncSeparateiOES
libGLESv2.so:GL_BlendFunci
libGLESv2.so:GL_BlendFunciEXT
libGLESv2.so:GL_BlendFunciOES
libGLESv2.so:GL_BlitFramebuffer
libGLESv2.so:GL_BlitFramebufferANGLE
libGLESv2.so:GL_BlitFramebufferNV
libGLESv2.so:GL_BufferData
libGLESv2.so:GL_BufferStorageEXT
libGLESv2.so:GL_BufferStorageExternalEXT
libGLESv2.so:GL_BufferStorageMemEXT
libGLESv2.so:GL_BufferSubData
libGLESv2.so:GL_CheckFramebufferStatus
libGLESv2.so:GL_CheckFramebufferStatusOES
libGLESv2.so:GL_Clear
libGLESv2.so:GL_ClearBufferfi
libGLESv2.so:GL_ClearBufferfv
libGLESv2.so:GL_ClearBufferiv
libGLESv2.so:GL_ClearBufferuiv
libGLESv2.so:GL_ClearColor
libGLESv2.so:GL_ClearColorx
libGLESv2.so:GL_ClearDepthf
libGLESv2.so:GL_ClearDepthx
libGLESv2.so:GL_ClearStencil
libGLESv2.so:GL_ClearTexImageEXT
libGLESv2.so:GL_ClearTexSubImageEXT
libGLESv2.so:GL_ClientActiveTexture
libGLESv2.so:GL_ClientWaitSync
libGLESv2.so:GL_ClipControlEXT
libGLESv2.so:GL_ClipPlanef
libGLESv2.so:GL_ClipPlanex
libGLESv2.so:GL_Color4f
libGLESv2.so:GL_Color4ub
libGLESv2.so:GL_Color4x
libGLESv2.so:GL_ColorMask
libGLESv2.so:GL_ColorMaski
libGLESv2.so:GL_ColorMaskiEXT
libGLESv2.so:GL_ColorMaskiOES
libGLESv2.so:GL_ColorPointer
libGLESv2.so:GL_CompileShader
libGLESv2.so:GL_CompressedCopyTextureCHROMIUM
libGLESv2.so:GL_CompressedTexImage2D
libGLESv2.so:GL_CompressedTexImage2DRobustANGLE
libGLESv2.so:GL_CompressedTexImage3D
libGLESv2.so:GL_CompressedTexImage3DOES
libGLESv2.so:GL_CompressedTexImage3DRobustANGLE
libGLESv2.so:GL_CompressedTexSubImage2D
libGLESv2.so:GL_CompressedTexSubImage2DRobustANGLE
libGLESv2.so:GL_CompressedTexSubImage3D
libGLESv2.so:GL_CompressedTexSubImage3DOES
libGLESv2.so:GL_CompressedTexSubImage3DRobustANGLE
libGLESv2.so:GL_CopyBufferSubData
libGLESv2.so:GL_CopyImageSubData
libGLESv2.so:GL_CopyImageSubDataEXT
libGLESv2.so:GL_CopyImageSubDataOES
libGLESv2.so:GL_CopySubTexture3DANGLE
libGLESv2.so:GL_CopySubTextureCHROMIUM
libGLESv2.so:GL_CopyTexImage2D
libGLESv2.so:GL_CopyTexSubImage2D
libGLESv2.so:GL_CopyTexSubImage3D
libGLESv2.so:GL_CopyTexSubImage3DOES
libGLESv2.so:GL_CopyTexture3DANGLE
libGLESv2.so:GL_CopyTextureCHROMIUM
libGLESv2.so:GL_CoverageModulationCHROMIUM
libGLESv2.so:GL_CreateMemoryObjectsEXT
libGLESv2.so:GL_CreateProgram
libGLESv2.so:GL_CreateShader
libGLESv2.so:GL_CreateShaderProgramv
libGLESv2.so:GL_CreateShaderProgramvEXT
libGLESv2.so:GL_CullFace
libGLESv2.so:GL_CurrentPaletteMatrixOES
libGLESv2.so:GL_DebugMessageCallback
libGLESv2.so:GL_DebugMessageCallbackKHR
libGLESv2.so:GL_DebugMessageControl
libGLESv2.so:GL_DebugMessageControlKHR
libGLESv2.so:GL_DebugMessageInsert
libGLESv2.so:GL_DebugMessageInsertKHR
libGLESv2.so:GL_DeleteBuffers
libGLESv2.so:GL_DeleteFencesNV
libGLESv2.so:GL_DeleteFramebuffers
libGLESv2.so:GL_DeleteFramebuffersOES
libGLESv2.so:GL_DeleteMemoryObjectsEXT
libGLESv2.so:GL_DeletePerfMonitorsAMD
libGLESv2.so:GL_DeleteProgram
libGLESv2.so:GL_DeleteProgramPipelines
libGLESv2.so:GL_DeleteProgramPipelinesEXT
libGLESv2.so:GL_DeleteQueries
libGLESv2.so:GL_DeleteQueriesEXT
libGLESv2.so:GL_DeleteRenderbuffers
libGLESv2.so:GL_DeleteRenderbuffersOES
libGLESv2.so:GL_DeleteSamplers
libGLESv2.so:GL_DeleteSemaphoresEXT
libGLESv2.so:GL_DeleteShader
libGLESv2.so:GL_DeleteSync
libGLESv2.so:GL_DeleteTextures
libGLESv2.so:GL_DeleteTransformFeedbacks
libGLESv2.so:GL_DeleteVertexArrays
libGLESv2.so:GL_DeleteVertexArraysOES
libGLESv2.so:GL_DepthFunc
libGLESv2.so:GL_DepthMask
libGLESv2.so:GL_DepthRangef
libGLESv2.so:GL_DepthRangex
libGLESv2.so:GL_DetachShader
libGLESv2.so:GL_Disable
libGLESv2.so:GL_DisableClientState
libGLESv2.so:GL_DisableExtensionANGLE
libGLESv2.so:GL_DisableVertexAttribArray
libGLESv2.so:GL_Disablei
libGLESv2.so:GL_DisableiEXT
libGLESv2.so:GL_DisableiOES
libGLESv2.so:GL_DiscardFramebufferEXT
libGLESv2.so:GL_DispatchCompute
libGLESv2.so:GL_DispatchComputeIndirect
libGLESv2.so:GL_DrawArrays
libGLESv2.so:GL_DrawArraysIndirect
libGLESv2.so:GL_DrawArraysInstanced
libGLESv2.so:GL_DrawArraysInstancedANGLE
libGLESv2.so:GL_DrawArraysInstancedBaseInstanceANGLE
libGLESv2.so:GL_DrawArraysInstancedBaseInstanceEXT
libGLESv2.so:GL_DrawArraysInstancedEXT
libGLESv2.so:GL_DrawBuffers
libGLESv2.so:GL_DrawBuffersEXT
libGLESv2.so:GL_DrawElements
libGLESv2.so:GL_DrawElementsBaseVertex
libGLESv2.so:GL_DrawElementsBaseVertexEXT
libGLESv2.so:GL_DrawElementsBaseVertexOES
libGLESv2.so:GL_DrawElementsIndirect
libGLESv2.so:GL_DrawElementsInstanced
libGLESv2.so:GL_DrawElementsInstancedANGLE
libGLESv2.so:GL_DrawElementsInstancedBaseInstanceEXT
libGLESv2.so:GL_DrawElementsInstancedBaseVertex
libGLESv2.so:GL_DrawElementsInstancedBaseVertexBaseInstanceANGLE
libGLESv2.so:GL_DrawElementsInstancedBaseVertexBaseInstanceEXT
libGLESv2.so:GL_DrawElementsInstancedBaseVertexEXT
libGLESv2.so:GL_DrawElementsInstancedBaseVertexOES
libGLESv2.so:GL_DrawElementsInstancedEXT
libGLESv2.so:GL_DrawRangeElements
libGLESv2.so:GL_DrawRangeElementsBaseVertex
libGLESv2.so:GL_DrawRangeElementsBaseVertexEXT
libGLESv2.so:GL_DrawRangeElementsBaseVertexOES
libGLESv2.so:GL_DrawTexfOES
libGLESv2.so:GL_DrawTexfvOES
libGLESv2.so:GL_DrawTexiOES
libGLESv2.so:GL_DrawTexivOES
libGLESv2.so:GL_DrawTexsOES
libGLESv2.so:GL_DrawTexsvOES
libGLESv2.so:GL_DrawTexxOES
libGLESv2.so:GL_DrawTexxvOES
libGLESv2.so:GL_EGLImageTargetRenderbufferStorageOES
libGLESv2.so:GL_EGLImageTargetTexStorageEXT
libGLESv2.so:GL_EGLImageTargetTexture2DOES
libGLESv2.so:GL_EGLImageTargetTextureStorageEXT
libGLESv2.so:GL_Enable
libGLESv2.so:GL_EnableClientState
libGLESv2.so:GL_EnableVertexAttribArray
libGLESv2.so:GL_Enablei
libGLESv2.so:GL_EnableiEXT
libGLESv2.so:GL_EnableiOES
libGLESv2.so:GL_EndPerfMonitorAMD
libGLESv2.so:GL_EndPixelLocalStorageANGLE
libGLESv2.so:GL_EndQuery
libGLESv2.so:GL_EndQueryEXT
libGLESv2.so:GL_EndTilingQCOM
libGLESv2.so:GL_EndTransformFeedback
libGLESv2.so:GL_FenceSync
libGLESv2.so:GL_Finish
libGLESv2.so:GL_FinishFenceNV
libGLESv2.so:GL_Flush
libGLESv2.so:GL_FlushMappedBufferRange
libGLESv2.so:GL_FlushMappedBufferRangeEXT
libGLESv2.so:GL_Fogf
libGLESv2.so:GL_Fogfv
libGLESv2.so:GL_Fogx
libGLESv2.so:GL_Fogxv
libGLESv2.so:GL_FramebufferFetchBarrierEXT
libGLESv2.so:GL_FramebufferFoveationConfigQCOM
libGLESv2.so:GL_FramebufferFoveationParametersQCOM
libGLESv2.so:GL_FramebufferMemorylessPixelLocalStorageANGLE
libGLESv2.so:GL_FramebufferParameteri
libGLESv2.so:GL_FramebufferParameteriMESA
libGLESv2.so:GL_FramebufferPixelLocalClearValuefvANGLE
libGLESv2.so:GL_FramebufferPixelLocalClearValueivANGLE
libGLESv2.so:GL_FramebufferPixelLocalClearValueuivANGLE
libGLESv2.so:GL_FramebufferPixelLocalStorageInterruptANGLE
libGLESv2.so:GL_FramebufferPixelLocalStorageRestoreANGLE
libGLESv2.so:GL_FramebufferRenderbuffer
libGLESv2.so:GL_FramebufferRenderbufferOES
libGLESv2.so:GL_FramebufferTexture
libGLESv2.so:GL_FramebufferTexture2D
libGLESv2.so:GL_FramebufferTexture2DMultisampleEXT
libGLESv2.so:GL_FramebufferTexture2DOES
libGLESv2.so:GL_FramebufferTexture3DOES
libGLESv2.so:GL_FramebufferTextureEXT
libGLESv2.so:GL_FramebufferTextureLayer
libGLESv2.so:GL_FramebufferTextureMultiviewOVR
libGLESv2.so:GL_FramebufferTextureOES
libGLESv2.so:GL_FramebufferTexturePixelLocalStorageANGLE
libGLESv2.so:GL_FrontFace
libGLESv2.so:GL_Frustumf
libGLESv2.so:GL_Frustumx
libGLESv2.so:GL_GenBuffers
libGLESv2.so:GL_GenFencesNV
libGLESv2.so:GL_GenFramebuffers
libGLESv2.so:GL_GenFramebuffersOES
libGLESv2.so:GL_GenPerfMonitorsAMD
libGLESv2.so:GL_GenProgramPipelines
libGLESv2.so:GL_GenProgramPipelinesEXT
libGLESv2.so:GL_GenQueries
libGLESv2.so:GL_GenQueriesEXT
libGLESv2.so:GL_GenRenderbuffers
libGLESv2.so:GL_GenRenderbuffersOES
libGLESv2.so:GL_GenSamplers
libGLESv2.so:GL_GenSemaphoresEXT
libGLESv2.so:GL_GenTextures
libGLESv2.so:GL_GenTransformFeedbacks
libGLESv2.so:GL_GenVertexArrays
libGLESv2.so:GL_GenVertexArraysOES
libGLESv2.so:GL_GenerateMipmap
libGLESv2.so:GL_GenerateMipmapOES
libGLESv2.so:GL_GetActiveAttrib
libGLESv2.so:GL_GetActiveUniform
libGLESv2.so:GL_GetActiveUniformBlockName
libGLESv2.so:GL_GetActiveUniformBlockiv
libGLESv2.so:GL_GetActiveUniformBlockivRobustANGLE
libGLESv2.so:GL_GetActiveUniformsiv
libGLESv2.so:GL_GetAttachedShaders
libGLESv2.so:GL_GetAttribLocation
libGLESv2.so:GL_GetBooleani_v
libGLESv2.so:GL_GetBooleani_vRobustANGLE
libGLESv2.so:GL_GetBooleanv
libGLESv2.so:GL_GetBooleanvRobustANGLE
libGLESv2.so:GL_GetBufferParameteri64v
libGLESv2.so:GL_GetBufferParameteri64vRobustANGLE
libGLESv2.so:GL_GetBufferParameteriv
libGLESv2.so:GL_GetBufferParameterivRobustANGLE
libGLESv2.so:GL_GetBufferPointerv
libGLESv2.so:GL_GetBufferPointervOES
libGLESv2.so:GL_GetBufferPointervRobustANGLE
libGLESv2.so:GL_GetClipPlanef
libGLESv2.so:GL_GetClipPlanex
libGLESv2.so:GL_GetCompressedTexImageANGLE
libGLESv2.so:GL_GetDebugMessageLog
libGLESv2.so:GL_GetDebugMessageLogKHR
libGLESv2.so:GL_GetError
libGLESv2.so:GL_GetFenceivNV
libGLESv2.so:GL_GetFixedv
libGLESv2.so:GL_GetFloatv
libGLESv2.so:GL_GetFloatvRobustANGLE
libGLESv2.so:GL_GetFragDataIndexEXT
libGLESv2.so:GL_GetFragDataLocation
libGLESv2.so:GL_GetFramebufferAttachmentParameteriv
libGLESv2.so:GL_GetFramebufferAttachmentParameterivOES
libGLESv2.so:GL_GetFramebufferAttachmentParameterivRobustANGLE
libGLESv2.so:GL_GetFramebufferParameteriv
libGLESv2.so:GL_GetFramebufferParameterivMESA
libGLESv2.so:GL_GetFramebufferParameterivRobustANGLE
libGLESv2.so:GL_GetFramebufferPixelLocalStorageParameterfvANGLE
libGLESv2.so:GL_GetFramebufferPixelLocalStorageParameterfvRobustANGLE
libGLESv2.so:GL_GetFramebufferPixelLocalStorageParameterivANGLE
libGLESv2.so:GL_GetFramebufferPixelLocalStorageParameterivRobustANGLE
libGLESv2.so:GL_GetGraphicsResetStatus
libGLESv2.so:GL_GetGraphicsResetStatusEXT
libGLESv2.so:GL_GetGraphicsResetStatusKHR
libGLESv2.so:GL_GetInteger64i_v
libGLESv2.so:GL_GetInteger64i_vRobustANGLE
libGLESv2.so:GL_GetInteger64v
libGLESv2.so:GL_GetInteger64vEXT
libGLESv2.so:GL_GetInteger64vRobustANGLE
libGLESv2.so:GL_GetIntegeri_v
libGLESv2.so:GL_GetIntegeri_vRobustANGLE
libGLESv2.so:GL_GetIntegerv
libGLESv2.so:GL_GetIntegervRobustANGLE
libGLESv2.so:GL_GetInternalformativ
libGLESv2.so:GL_GetInternalformativRobustANGLE
libGLESv2.so:GL_GetLightfv
libGLESv2.so:GL_GetLightxv
libGLESv2.so:GL_GetMaterialfv
libGLESv2.so:GL_GetMaterialxv
libGLESv2.so:GL_GetMemoryObjectParameterivEXT
libGLESv2.so:GL_GetMultisamplefv
libGLESv2.so:GL_GetMultisamplefvANGLE
libGLESv2.so:GL_GetMultisamplefvRobustANGLE
libGLESv2.so:GL_GetObjectLabel
libGLESv2.so:GL_GetObjectLabelEXT
libGLESv2.so:GL_GetObjectLabelKHR
libGLESv2.so:GL_GetObjectPtrLabel
libGLESv2.so:GL_GetObjectPtrLabelKHR
libGLESv2.so:GL_GetPerfMonitorCounterDataAMD
libGLESv2.so:GL_GetPerfMonitorCounterInfoAMD
libGLESv2.so:GL_GetPerfMonitorCounterStringAMD
libGLESv2.so:GL_GetPerfMonitorCountersAMD
libGLESv2.so:GL_GetPerfMonitorGroupStringAMD
libGLESv2.so:GL_GetPerfMonitorGroupsAMD
libGLESv2.so:GL_GetPointerv
libGLESv2.so:GL_GetPointervKHR
libGLESv2.so:GL_GetPointervRobustANGLERobustANGLE
libGLESv2.so:GL_GetProgramBinary
libGLESv2.so:GL_GetProgramBinaryOES
libGLESv2.so:GL_GetProgramInfoLog
libGLESv2.so:GL_GetProgramInterfaceiv
libGLESv2.so:GL_GetProgramInterfaceivRobustANGLE
libGLESv2.so:GL_GetProgramPipelineInfoLog
libGLESv2.so:GL_GetProgramPipelineInfoLogEXT
libGLESv2.so:GL_GetProgramPipelineiv
libGLESv2.so:GL_GetProgramPipelineivEXT
libGLESv2.so:GL_GetProgramResourceIndex
libGLESv2.so:GL_GetProgramResourceLocation
libGLESv2.so:GL_GetProgramResourceLocationIndexEXT
libGLESv2.so:GL_GetProgramResourceName
libGLESv2.so:GL_GetProgramResourceiv
libGLESv2.so:GL_GetProgramiv
libGLESv2.so:GL_GetProgramivRobustANGLE
libGLESv2.so:GL_GetQueryObjecti64vEXT
libGLESv2.so:GL_GetQueryObjecti64vRobustANGLE
libGLESv2.so:GL_GetQueryObjectivEXT
libGLESv2.so:GL_GetQueryObjectivRobustANGLE
libGLESv2.so:GL_GetQueryObjectui64vEXT
libGLESv2.so:GL_GetQueryObjectui64vRobustANGLE
libGLESv2.so:GL_GetQueryObjectuiv
libGLESv2.so:GL_GetQueryObjectuivEXT
libGLESv2.so:GL_GetQueryObjectuivRobustANGLE
libGLESv2.so:GL_GetQueryiv
libGLESv2.so:GL_GetQueryivEXT
libGLESv2.so:GL_GetQueryivRobustANGLE
libGLESv2.so:GL_GetRenderbufferImageANGLE
libGLESv2.so:GL_GetRenderbufferParameteriv
libGLESv2.so:GL_GetRenderbufferParameterivOES
libGLESv2.so:GL_GetRenderbufferParameterivRobustANGLE
libGLESv2.so:GL_GetSamplerParameterIiv
libGLESv2.so:GL_GetSamplerParameterIivEXT
libGLESv2.so:GL_GetSamplerParameterIivOES
libGLESv2.so:GL_GetSamplerParameterIivRobustANGLE
libGLESv2.so:GL_GetSamplerParameterIuiv
libGLESv2.so:GL_GetSamplerParameterIuivEXT
libGLESv2.so:GL_GetSamplerParameterIuivOES
libGLESv2.so:GL_GetSamplerParameterIuivRobustANGLE
libGLESv2.so:GL_GetSamplerParameterfv
libGLESv2.so:GL_GetSamplerParameterfvRobustANGLE
libGLESv2.so:GL_GetSamplerParameteriv
libGLESv2.so:GL_GetSamplerParameterivRobustANGLE
libGLESv2.so:GL_GetSemaphoreParameterui64vEXT
libGLESv2.so:GL_GetShaderInfoLog
libGLESv2.so:GL_GetShaderPrecisionFormat
libGLESv2.so:GL_GetShaderSource
libGLESv2.so:GL_GetShaderiv
libGLESv2.so:GL_GetShaderivRobustANGLE
libGLESv2.so:GL_GetString
libGLESv2.so:GL_GetStringi
libGLESv2.so:GL_GetSynciv
libGLESv2.so:GL_GetTexEnvfv
libGLESv2.so:GL_GetTexEnviv
libGLESv2.so:GL_GetTexEnvxv
libGLESv2.so:GL_GetTexGenfvOES
libGLESv2.so:GL_GetTexGenivOES
libGLESv2.so:GL_GetTexGenxvOES
libGLESv2.so:GL_GetTexImageANGLE
libGLESv2.so:GL_GetTexLevelParameterfv
libGLESv2.so:GL_GetTexLevelParameterfvANGLE
libGLESv2.so:GL_GetTexLevelParameterfvRobustANGLE
libGLESv2.so:GL_GetTexLevelParameteriv
libGLESv2.so:GL_GetTexLevelParameterivANGLE
libGLESv2.so:GL_GetTexLevelParameterivRobustANGLE
libGLESv2.so:GL_GetTexParameterIiv
libGLESv2.so:GL_GetTexParameterIivEXT
libGLESv2.so:GL_GetTexParameterIivOES
libGLESv2.so:GL_GetTexParameterIivRobustANGLE
libGLESv2.so:GL_GetTexParameterIuiv
libGLESv2.so:GL_GetTexParameterIuivEXT
libGLESv2.so:GL_GetTexParameterIuivOES
libGLESv2.so:GL_GetTexParameterIuivRobustANGLE
libGLESv2.so:GL_GetTexParameterfv
libGLESv2.so:GL_GetTexParameterfvRobustANGLE
libGLESv2.so:GL_GetTexParameteriv
libGLESv2.so:GL_GetTexParameterivRobustANGLE
libGLESv2.so:GL_GetTexParameterxv
libGLESv2.so:GL_GetTransformFeedbackVarying
libGLESv2.so:GL_GetTranslatedShaderSourceANGLE
libGLESv2.so:GL_GetUniformBlockIndex
libGLESv2.so:GL_GetUniformIndices
libGLESv2.so:GL_GetUniformLocation
libGLESv2.so:GL_GetUniformfv
libGLESv2.so:GL_GetUniformfvRobustANGLE
libGLESv2.so:GL_GetUniformiv
libGLESv2.so:GL_GetUniformivRobustANGLE
libGLESv2.so:GL_GetUniformuiv
libGLESv2.so:GL_GetUniformuivRobustANGLE
libGLESv2.so:GL_GetUnsignedBytei_vEXT
libGLESv2.so:GL_GetUnsignedBytevEXT
libGLESv2.so:GL_GetVertexAttribIiv
libGLESv2.so:GL_GetVertexAttribIivRobustANGLE
libGLESv2.so:GL_GetVertexAttribIuiv
libGLESv2.so:GL_GetVertexAttribIuivRobustANGLE
libGLESv2.so:GL_GetVertexAttribPointerv
libGLESv2.so:GL_GetVertexAttribPointervRobustANGLE
libGLESv2.so:GL_GetVertexAttribfv
libGLESv2.so:GL_GetVertexAttribfvRobustANGLE
libGLESv2.so:GL_GetVertexAttribiv
libGLESv2.so:GL_GetVertexAttribivRobustANGLE
libGLESv2.so:GL_GetnUniformfv
libGLESv2.so:GL_GetnUniformfvEXT
libGLESv2.so:GL_GetnUniformfvKHR
libGLESv2.so:GL_GetnUniformfvRobustANGLE
libGLESv2.so:GL_GetnUniformiv
libGLESv2.so:GL_GetnUniformivEXT
libGLESv2.so:GL_GetnUniformivKHR
libGLESv2.so:GL_GetnUniformivRobustANGLE
libGLESv2.so:GL_GetnUniformuiv
libGLESv2.so:GL_GetnUniformuivKHR
libGLESv2.so:GL_GetnUniformuivRobustANGLE
libGLESv2.so:GL_Hint
libGLESv2.so:GL_ImportMemoryFdEXT
libGLESv2.so:GL_ImportMemoryZirconHandleANGLE
libGLESv2.so:GL_ImportSemaphoreFdEXT
libGLESv2.so:GL_ImportSemaphoreZirconHandleANGLE
libGLESv2.so:GL_InsertEventMarkerEXT
libGLESv2.so:GL_InvalidateFramebuffer
libGLESv2.so:GL_InvalidateSubFramebuffer
libGLESv2.so:GL_InvalidateTextureANGLE
libGLESv2.so:GL_IsBuffer
libGLESv2.so:GL_IsEnabled
libGLESv2.so:GL_IsEnabledi
libGLESv2.so:GL_IsEnablediEXT
libGLESv2.so:GL_IsEnablediOES
libGLESv2.so:GL_IsFenceNV
libGLESv2.so:GL_IsFramebuffer
libGLESv2.so:GL_IsFramebufferOES
libGLESv2.so:GL_IsMemoryObjectEXT
libGLESv2.so:GL_IsProgram
libGLESv2.so:GL_IsProgramPipeline
libGLESv2.so:GL_IsProgramPipelineEXT
libGLESv2.so:GL_IsQuery
libGLESv2.so:GL_IsQueryEXT
libGLESv2.so:GL_IsRenderbuffer
libGLESv2.so:GL_IsRenderbufferOES
libGLESv2.so:GL_IsSampler
libGLESv2.so:GL_IsSemaphoreEXT
libGLESv2.so:GL_IsShader
libGLESv2.so:GL_IsSync
libGLESv2.so:GL_IsTexture
libGLESv2.so:GL_IsTransformFeedback
libGLESv2.so:GL_IsVertexArray
libGLESv2.so:GL_IsVertexArrayOES
libGLESv2.so:GL_LabelObjectEXT
libGLESv2.so:GL_LightModelf
libGLESv2.so:GL_LightModelfv
libGLESv2.so:GL_LightModelx
libGLESv2.so:GL_LightModelxv
libGLESv2.so:GL_Lightf
libGLESv2.so:GL_Lightfv
libGLESv2.so:GL_Lightx
libGLESv2.so:GL_Lightxv
libGLESv2.so:GL_LineWidth
libGLESv2.so:GL_LineWidthx
libGLESv2.so:GL_LinkProgram
libGLESv2.so:GL_LoadIdentity
libGLESv2.so:GL_LoadMatrixf
libGLESv2.so:GL_LoadMatrixx
libGLESv2.so:GL_LoadPaletteFromModelViewMatrixOES
libGLESv2.so:GL_LogicOp
libGLESv2.so:GL_LogicOpANGLE
libGLESv2.so:GL_LoseContextCHROMIUM
libGLESv2.so:GL_MapBufferOES
libGLESv2.so:GL_MapBufferRange
libGLESv2.so:GL_MapBufferRangeEXT
libGLESv2.so:GL_Materialf
libGLESv2.so:GL_Materialfv
libGLESv2.so:GL_Materialx
libGLESv2.so:GL_Materialxv
libGLESv2.so:GL_MatrixIndexPointerOES
libGLESv2.so:GL_MatrixMode
libGLESv2.so:GL_MaxShaderCompilerThreadsKHR
libGLESv2.so:GL_MemoryBarrier
libGLESv2.so:GL_MemoryBarrierByRegion
libGLESv2.so:GL_MemoryObjectParameterivEXT
libGLESv2.so:GL_MinSampleShading
libGLESv2.so:GL_MinSampleShadingOES
libGLESv2.so:GL_MultMatrixf
libGLESv2.so:GL_MultMatrixx
libGLESv2.so:GL_MultiDrawArraysANGLE
libGLESv2.so:GL_MultiDrawArraysIndirectEXT
libGLESv2.so:GL_MultiDrawArraysInstancedANGLE
libGLESv2.so:GL_MultiDrawArraysInstancedBaseInstanceANGLE
libGLESv2.so:GL_MultiDrawElementsANGLE
libGLESv2.so:GL_MultiDrawElementsBaseVertexEXT
libGLESv2.so:GL_MultiDrawElementsIndirectEXT
libGLESv2.so:GL_MultiDrawElementsInstancedANGLE
libGLESv2.so:GL_MultiDrawElementsInstancedBaseVertexBaseInstanceANGLE
libGLESv2.so:GL_MultiTexCoord4f
libGLESv2.so:GL_MultiTexCoord4x
libGLESv2.so:GL_NamedBufferStorageExternalEXT
libGLESv2.so:GL_Normal3f
libGLESv2.so:GL_Normal3x
libGLESv2.so:GL_NormalPointer
libGLESv2.so:GL_ObjectLabel
libGLESv2.so:GL_ObjectLabelKHR
libGLESv2.so:GL_ObjectPtrLabel
libGLESv2.so:GL_ObjectPtrLabelKHR
libGLESv2.so:GL_Orthof
libGLESv2.so:GL_Orthox
libGLESv2.so:GL_PatchParameteri
libGLESv2.so:GL_PatchParameteriEXT
libGLESv2.so:GL_PatchParameteriOES
libGLESv2.so:GL_PauseTransformFeedback
libGLESv2.so:GL_PixelLocalStorageBarrierANGLE
libGLESv2.so:GL_PixelStorei
libGLESv2.so:GL_PointParameterf
libGLESv2.so:GL_PointParameterfv
libGLESv2.so:GL_PointParameterx
libGLESv2.so:GL_PointParameterxv
libGLESv2.so:GL_PointSize
libGLESv2.so:GL_PointSizePointerOES
libGLESv2.so:GL_PointSizex
libGLESv2.so:GL_PolygonModeANGLE
libGLESv2.so:GL_PolygonModeNV
libGLESv2.so:GL_PolygonOffset
libGLESv2.so:GL_PolygonOffsetClampEXT
libGLESv2.so:GL_PolygonOffsetx
libGLESv2.so:GL_PopDebugGroup
libGLESv2.so:GL_PopDebugGroupKHR
libGLESv2.so:GL_PopGroupMarkerEXT
libGLESv2.so:GL_PopMatrix
libGLESv2.so:GL_PrimitiveBoundingBox
libGLESv2.so:GL_PrimitiveBoundingBoxEXT
libGLESv2.so:GL_PrimitiveBoundingBoxOES
libGLESv2.so:GL_ProgramBinary
libGLESv2.so:GL_ProgramBinaryOES
libGLESv2.so:GL_ProgramParameteri
libGLESv2.so:GL_ProgramParameteriEXT
libGLESv2.so:GL_ProgramUniform1f
libGLESv2.so:GL_ProgramUniform1fEXT
libGLESv2.so:GL_ProgramUniform1fv
libGLESv2.so:GL_ProgramUniform1fvEXT
libGLESv2.so:GL_ProgramUniform1i
libGLESv2.so:GL_ProgramUniform1iEXT
libGLESv2.so:GL_ProgramUniform1iv
libGLESv2.so:GL_ProgramUniform1ivEXT
libGLESv2.so:GL_ProgramUniform1ui
libGLESv2.so:GL_ProgramUniform1uiEXT
libGLESv2.so:GL_ProgramUniform1uiv
libGLESv2.so:GL_ProgramUniform1uivEXT
libGLESv2.so:GL_ProgramUniform2f
libGLESv2.so:GL_ProgramUniform2fEXT
libGLESv2.so:GL_ProgramUniform2fv
libGLESv2.so:GL_ProgramUniform2fvEXT
libGLESv2.so:GL_ProgramUniform2i
libGLESv2.so:GL_ProgramUniform2iEXT
libGLESv2.so:GL_ProgramUniform2iv
libGLESv2.so:GL_ProgramUniform2ivEXT
libGLESv2.so:GL_ProgramUniform2ui
libGLESv2.so:GL_ProgramUniform2uiEXT
libGLESv2.so:GL_ProgramUniform2uiv
libGLESv2.so:GL_ProgramUniform2uivEXT
libGLESv2.so:GL_ProgramUniform3f
libGLESv2.so:GL_ProgramUniform3fEXT
libGLESv2.so:GL_ProgramUniform3fv
libGLESv2.so:GL_ProgramUniform3fvEXT
libGLESv2.so:GL_ProgramUniform3i
libGLESv2.so:GL_ProgramUniform3iEXT
libGLESv2.so:GL_ProgramUniform3iv
libGLESv2.so:GL_ProgramUniform3ivEXT
libGLESv2.so:GL_ProgramUniform3ui
libGLESv2.so:GL_ProgramUniform3uiEXT
libGLESv2.so:GL_ProgramUniform3uiv
libGLESv2.so:GL_ProgramUniform3uivEXT
libGLESv2.so:GL_ProgramUniform4f
libGLESv2.so:GL_ProgramUniform4fEXT
libGLESv2.so:GL_ProgramUniform4fv
libGLESv2.so:GL_ProgramUniform4fvEXT
libGLESv2.so:GL_ProgramUniform4i
libGLESv2.so:GL_ProgramUniform4iEXT
libGLESv2.so:GL_ProgramUniform4iv
libGLESv2.so:GL_ProgramUniform4ivEXT
libGLESv2.so:GL_ProgramUniform4ui
libGLESv2.so:GL_ProgramUniform4uiEXT
libGLESv2.so:GL_ProgramUniform4uiv
libGLESv2.so:GL_ProgramUniform4uivEXT
libGLESv2.so:GL_ProgramUniformMatrix2fv
libGLESv2.so:GL_ProgramUniformMatrix2fvEXT
libGLESv2.so:GL_ProgramUniformMatrix2x3fv
libGLESv2.so:GL_ProgramUniformMatrix2x3fvEXT
libGLESv2.so:GL_ProgramUniformMatrix2x4fv
libGLESv2.so:GL_ProgramUniformMatrix2x4fvEXT
libGLESv2.so:GL_ProgramUniformMatrix3fv
libGLESv2.so:GL_ProgramUniformMatrix3fvEXT
libGLESv2.so:GL_ProgramUniformMatrix3x2fv
libGLESv2.so:GL_ProgramUniformMatrix3x2fvEXT
libGLESv2.so:GL_ProgramUniformMatrix3x4fv
libGLESv2.so:GL_ProgramUniformMatrix3x4fvEXT
libGLESv2.so:GL_ProgramUniformMatrix4fv
libGLESv2.so:GL_ProgramUniformMatrix4fvEXT
libGLESv2.so:GL_ProgramUniformMatrix4x2fv
libGLESv2.so:GL_ProgramUniformMatrix4x2fvEXT
libGLESv2.so:GL_ProgramUniformMatrix4x3fv
libGLESv2.so:GL_ProgramUniformMatrix4x3fvEXT
libGLESv2.so:GL_ProvokingVertexANGLE
libGLESv2.so:GL_PushDebugGroup
libGLESv2.so:GL_PushDebugGroupKHR
libGLESv2.so:GL_PushGroupMarkerEXT
libGLESv2.so:GL_PushMatrix
libGLESv2.so:GL_QueryCounterEXT
libGLESv2.so:GL_QueryMatrixxOES
libGLESv2.so:GL_ReadBuffer
libGLESv2.so:GL_ReadPixels
libGLESv2.so:GL_ReadPixelsRobustANGLE
libGLESv2.so:GL_ReadnPixels
libGLESv2.so:GL_ReadnPixelsEXT
libGLESv2.so:GL_ReadnPixelsKHR
libGLESv2.so:GL_ReadnPixelsRobustANGLE
libGLESv2.so:GL_ReleaseShaderCompiler
libGLESv2.so:GL_ReleaseTexturesANGLE
libGLESv2.so:GL_RenderbufferStorage
libGLESv2.so:GL_RenderbufferStorageMultisample
libGLESv2.so:GL_RenderbufferStorageMultisampleANGLE
libGLESv2.so:GL_RenderbufferStorageMultisampleEXT
libGLESv2.so:GL_RenderbufferStorageOES
libGLESv2.so:GL_RequestExtensionANGLE
libGLESv2.so:GL_ResumeTransformFeedback
libGLESv2.so:GL_Rotatef
libGLESv2.so:GL_Rotatex
libGLESv2.so:GL_SampleCoverage
libGLESv2.so:GL_SampleCoveragex
libGLESv2.so:GL_SampleMaski
libGLESv2.so:GL_SampleMaskiANGLE
libGLESv2.so:GL_SamplerParameterIiv
libGLESv2.so:GL_SamplerParameterIivEXT
libGLESv2.so:GL_SamplerParameterIivOES
libGLESv2.so:GL_SamplerParameterIivRobustANGLE
libGLESv2.so:GL_SamplerParameterIuiv
libGLESv2.so:GL_SamplerParameterIuivEXT
libGLESv2.so:GL_SamplerParameterIuivOES
libGLESv2.so:GL_SamplerParameterIuivRobustANGLE
libGLESv2.so:GL_SamplerParameterf
libGLESv2.so:GL_SamplerParameterfv
libGLESv2.so:GL_SamplerParameterfvRobustANGLE
libGLESv2.so:GL_SamplerParameteri
libGLESv2.so:GL_SamplerParameteriv
libGLESv2.so:GL_SamplerParameterivRobustANGLE
libGLESv2.so:GL_Scalef
libGLESv2.so:GL_Scalex
libGLESv2.so:GL_Scissor
libGLESv2.so:GL_SelectPerfMonitorCountersAMD
libGLESv2.so:GL_SemaphoreParameterui64vEXT
libGLESv2.so:GL_SetFenceNV
libGLESv2.so:GL_ShadeModel
libGLESv2.so:GL_ShaderBinary
libGLESv2.so:GL_ShaderSource
libGLESv2.so:GL_ShadingRateQCOM
libGLESv2.so:GL_SignalSemaphoreEXT
libGLESv2.so:GL_StartTilingQCOM
libGLESv2.so:GL_StencilFunc
libGLESv2.so:GL_StencilFuncSeparate
libGLESv2.so:GL_StencilMask
libGLESv2.so:GL_StencilMaskSeparate
libGLESv2.so:GL_StencilOp
libGLESv2.so:GL_StencilOpSeparate
libGLESv2.so:GL_TestFenceNV
libGLESv2.so:GL_TexBuffer
libGLESv2.so:GL_TexBufferEXT
libGLESv2.so:GL_TexBufferOES
libGLESv2.so:GL_TexBufferRange
libGLESv2.so:GL_TexBufferRangeEXT
libGLESv2.so:GL_TexBufferRangeOES
libGLESv2.so:GL_TexCoordPointer
libGLESv2.so:GL_TexEnvf
libGLESv2.so:GL_TexEnvfv
libGLESv2.so:GL_TexEnvi
libGLESv2.so:GL_TexEnviv
libGLESv2.so:GL_TexEnvx
libGLESv2.so:GL_TexEnvxv
libGLESv2.so:GL_TexGenfOES
libGLESv2.so:GL_TexGenfvOES
libGLESv2.so:GL_TexGeniOES
libGLESv2.so:GL_TexGenivOES
libGLESv2.so:GL_TexGenxOES
libGLESv2.so:GL_TexGenxvOES
libGLESv2.so:GL_TexImage2D
libGLESv2.so:GL_TexImage2DExternalANGLE
libGLESv2.so:GL_TexImage2DRobustANGLE
libGLESv2.so:GL_TexImage3D
libGLESv2.so:GL_TexImage3DOES
libGLESv2.so:GL_TexImage3DRobustANGLE
libGLESv2.so:GL_TexParameterIiv
libGLESv2.so:GL_TexParameterIivEXT
libGLESv2.so:GL_TexParameterIivOES
libGLESv2.so:GL_TexParameterIivRobustANGLE
libGLESv2.so:GL_TexParameterIuiv
libGLESv2.so:GL_TexParameterIuivEXT
libGLESv2.so:GL_TexParameterIuivOES
libGLESv2.so:GL_TexParameterIuivRobustANGLE
libGLESv2.so:GL_TexParameterf
libGLESv2.so:GL_TexParameterfv
libGLESv2.so:GL_TexParameterfvRobustANGLE
libGLESv2.so:GL_TexParameteri
libGLESv2.so:GL_TexParameteriv
libGLESv2.so:GL_TexParameterivRobustANGLE
libGLESv2.so:GL_TexParameterx
libGLESv2.so:GL_TexParameterxv
libGLESv2.so:GL_TexStorage1DEXT
libGLESv2.so:GL_TexStorage2D
libGLESv2.so:GL_TexStorage2DEXT
libGLESv2.so:GL_TexStorage2DMultisample
libGLESv2.so:GL_TexStorage2DMultisampleANGLE
libGLESv2.so:GL_TexStorage3D
libGLESv2.so:GL_TexStorage3DEXT
libGLESv2.so:GL_TexStorage3DMultisample
libGLESv2.so:GL_TexStorage3DMultisampleOES
libGLESv2.so:GL_TexStorageMem2DEXT
libGLESv2.so:GL_TexStorageMem2DMultisampleEXT
libGLESv2.so:GL_TexStorageMem3DEXT
libGLESv2.so:GL_TexStorageMem3DMultisampleEXT
libGLESv2.so:GL_TexStorageMemFlags2DANGLE
libGLESv2.so:GL_TexStorageMemFlags2DMultisampleANGLE
libGLESv2.so:GL_TexStorageMemFlags3DANGLE
libGLESv2.so:GL_TexStorageMemFlags3DMultisampleANGLE
libGLESv2.so:GL_TexSubImage2D
libGLESv2.so:GL_TexSubImage2DRobustANGLE
libGLESv2.so:GL_TexSubImage3D
libGLESv2.so:GL_TexSubImage3DOES
libGLESv2.so:GL_TexSubImage3DRobustANGLE
libGLESv2.so:GL_TextureFoveationParametersQCOM
libGLESv2.so:GL_TransformFeedbackVaryings
libGLESv2.so:GL_Translatef
libGLESv2.so:GL_Translatex
libGLESv2.so:GL_Uniform1f
libGLESv2.so:GL_Uniform1fv
libGLESv2.so:GL_Uniform1i
libGLESv2.so:GL_Uniform1iv
libGLESv2.so:GL_Uniform1ui
libGLESv2.so:GL_Uniform1uiv
libGLESv2.so:GL_Uniform2f
libGLESv2.so:GL_Uniform2fv
libGLESv2.so:GL_Uniform2i
libGLESv2.so:GL_Uniform2iv
libGLESv2.so:GL_Uniform2ui
libGLESv2.so:GL_Uniform2uiv
libGLESv2.so:GL_Uniform3f
libGLESv2.so:GL_Uniform3fv
libGLESv2.so:GL_Uniform3i
libGLESv2.so:GL_Uniform3iv
libGLESv2.so:GL_Uniform3ui
libGLESv2.so:GL_Uniform3uiv
libGLESv2.so:GL_Uniform4f
libGLESv2.so:GL_Uniform4fv
libGLESv2.so:GL_Uniform4i
libGLESv2.so:GL_Uniform4iv
libGLESv2.so:GL_Uniform4ui
libGLESv2.so:GL_Uniform4uiv
libGLESv2.so:GL_UniformBlockBinding
libGLESv2.so:GL_UniformMatrix2fv
libGLESv2.so:GL_UniformMatrix2x3fv
libGLESv2.so:GL_UniformMatrix2x4fv
libGLESv2.so:GL_UniformMatrix3fv
libGLESv2.so:GL_UniformMatrix3x2fv
libGLESv2.so:GL_UniformMatrix3x4fv
libGLESv2.so:GL_UniformMatrix4fv
libGLESv2.so:GL_UniformMatrix4x2fv
libGLESv2.so:GL_UniformMatrix4x3fv
libGLESv2.so:GL_UnmapBuffer
libGLESv2.so:GL_UnmapBufferOES
libGLESv2.so:GL_UseProgram
libGLESv2.so:GL_UseProgramStages
libGLESv2.so:GL_UseProgramStagesEXT
libGLESv2.so:GL_ValidateProgram
libGLESv2.so:GL_ValidateProgramPipeline
libGLESv2.so:GL_ValidateProgramPipelineEXT
libGLESv2.so:GL_VertexAttrib1f
libGLESv2.so:GL_VertexAttrib1fv
libGLESv2.so:GL_VertexAttrib2f
libGLESv2.so:GL_VertexAttrib2fv
libGLESv2.so:GL_VertexAttrib3f
libGLESv2.so:GL_VertexAttrib3fv
libGLESv2.so:GL_VertexAttrib4f
libGLESv2.so:GL_VertexAttrib4fv
libGLESv2.so:GL_VertexAttribBinding
libGLESv2.so:GL_VertexAttribDivisor
libGLESv2.so:GL_VertexAttribDivisorANGLE
libGLESv2.so:GL_VertexAttribDivisorEXT
libGLESv2.so:GL_VertexAttribFormat
libGLESv2.so:GL_VertexAttribI4i
libGLESv2.so:GL_VertexAttribI4iv
libGLESv2.so:GL_VertexAttribI4ui
libGLESv2.so:GL_VertexAttribI4uiv
libGLESv2.so:GL_VertexAttribIFormat
libGLESv2.so:GL_VertexAttribIPointer
libGLESv2.so:GL_VertexAttribPointer
libGLESv2.so:GL_VertexBindingDivisor
libGLESv2.so:GL_VertexPointer
libGLESv2.so:GL_Viewport
libGLESv2.so:GL_WaitSemaphoreEXT
libGLESv2.so:GL_WaitSync
libGLESv2.so:GL_WeightPointerOES
libGLESv2.so:__bss_start
libGLESv2.so:_edata
libGLESv2.so:_end
libGLESv2.so:ffi_call
libGLESv2.so:ffi_call_go
libGLESv2.so:ffi_get_struct_offsets
libGLESv2.so:ffi_prep_cif
libGLESv2.so:ffi_prep_cif_var
libGLESv2.so:ffi_prep_closure
libGLESv2.so:ffi_prep_closure_loc
libGLESv2.so:ffi_prep_go_closure
libGLESv2.so:ffi_type_complex_double
libGLESv2.so:ffi_type_complex_float
libGLESv2.so:ffi_type_complex_longdouble
libGLESv2.so:ffi_type_double
libGLESv2.so:ffi_type_float
libGLESv2.so:ffi_type_longdouble
libGLESv2.so:ffi_type_pointer
libGLESv2.so:ffi_type_sint16
libGLESv2.so:ffi_type_sint32
libGLESv2.so:ffi_type_sint64
libGLESv2.so:ffi_type_sint8
libGLESv2.so:ffi_type_uint16
libGLESv2.so:ffi_type_uint32
libGLESv2.so:ffi_type_uint64
libGLESv2.so:ffi_type_uint8
libGLESv2.so:ffi_type_void
libGLESv2.so:glAcquireTexturesANGLE
libGLESv2.so:glActiveShaderProgram
libGLESv2.so:glActiveShaderProgramEXT
libGLESv2.so:glActiveTexture
libGLESv2.so:glAlphaFunc
libGLESv2.so:glAlphaFuncx
libGLESv2.so:glAttachShader
libGLESv2.so:glBeginPerfMonitorAMD
libGLESv2.so:glBeginPixelLocalStorageANGLE
libGLESv2.so:glBeginQuery
libGLESv2.so:glBeginQueryEXT
libGLESv2.so:glBeginTransformFeedback
libGLESv2.so:glBindAttribLocation
libGLESv2.so:glBindBuffer
libGLESv2.so:glBindBufferBase
libGLESv2.so:glBindBufferRange
libGLESv2.so:glBindFragDataLocationEXT
libGLESv2.so:glBindFragDataLocationIndexedEXT
libGLESv2.so:glBindFramebuffer
libGLESv2.so:glBindFramebufferOES
libGLESv2.so:glBindImageTexture
libGLESv2.so:glBindProgramPipeline
libGLESv2.so:glBindProgramPipelineEXT
libGLESv2.so:glBindRenderbuffer
libGLESv2.so:glBindRenderbufferOES
libGLESv2.so:glBindSampler
libGLESv2.so:glBindTexture
libGLESv2.so:glBindTransformFeedback
libGLESv2.so:glBindUniformLocationCHROMIUM
libGLESv2.so:glBindVertexArray
libGLESv2.so:glBindVertexArrayOES
libGLESv2.so:glBindVertexBuffer
libGLESv2.so:glBlendBarrier
libGLESv2.so:glBlendBarrierKHR
libGLESv2.so:glBlendColor
libGLESv2.so:glBlendEquation
libGLESv2.so:glBlendEquationSeparate
libGLESv2.so:glBlendEquationSeparatei
libGLESv2.so:glBlendEquationSeparateiEXT
libGLESv2.so:glBlendEquationSeparateiOES
libGLESv2.so:glBlendEquationi
libGLESv2.so:glBlendEquationiEXT
libGLESv2.so:glBlendEquationiOES
libGLESv2.so:glBlendFunc
libGLESv2.so:glBlendFuncSeparate
libGLESv2.so:glBlendFuncSeparatei
libGLESv2.so:glBlendFuncSeparateiEXT
libGLESv2.so:glBlendFuncSeparateiOES
libGLESv2.so:glBlendFunci
libGLESv2.so:glBlendFunciEXT
libGLESv2.so:glBlendFunciOES
libGLESv2.so:glBlitFramebuffer
libGLESv2.so:glBlitFramebufferANGLE
libGLESv2.so:glBlitFramebufferNV
libGLESv2.so:glBufferData
libGLESv2.so:glBufferStorageEXT
libGLESv2.so:glBufferStorageExternalEXT
libGLESv2.so:glBufferStorageMemEXT
libGLESv2.so:glBufferSubData
libGLESv2.so:glCheckFramebufferStatus
libGLESv2.so:glCheckFramebufferStatusOES
libGLESv2.so:glClear
libGLESv2.so:glClearBufferfi
libGLESv2.so:glClearBufferfv
libGLESv2.so:glClearBufferiv
libGLESv2.so:glClearBufferuiv
libGLESv2.so:glClearColor
libGLESv2.so:glClearColorx
libGLESv2.so:glClearDepthf
libGLESv2.so:glClearDepthx
libGLESv2.so:glClearStencil
libGLESv2.so:glClearTexImageEXT
libGLESv2.so:glClearTexSubImageEXT
libGLESv2.so:glClientActiveTexture
libGLESv2.so:glClientWaitSync
libGLESv2.so:glClipControlEXT
libGLESv2.so:glClipPlanef
libGLESv2.so:glClipPlanex
libGLESv2.so:glColor4f
libGLESv2.so:glColor4ub
libGLESv2.so:glColor4x
libGLESv2.so:glColorMask
libGLESv2.so:glColorMaski
libGLESv2.so:glColorMaskiEXT
libGLESv2.so:glColorMaskiOES
libGLESv2.so:glColorPointer
libGLESv2.so:glCompileShader
libGLESv2.so:glCompressedCopyTextureCHROMIUM
libGLESv2.so:glCompressedTexImage2D
libGLESv2.so:glCompressedTexImage2DRobustANGLE
libGLESv2.so:glCompressedTexImage3D
libGLESv2.so:glCompressedTexImage3DOES
libGLESv2.so:glCompressedTexImage3DRobustANGLE
libGLESv2.so:glCompressedTexSubImage2D
libGLESv2.so:glCompressedTexSubImage2DRobustANGLE
libGLESv2.so:glCompressedTexSubImage3D
libGLESv2.so:glCompressedTexSubImage3DOES
libGLESv2.so:glCompressedTexSubImage3DRobustANGLE
libGLESv2.so:glCopyBufferSubData
libGLESv2.so:glCopyImageSubData
libGLESv2.so:glCopyImageSubDataEXT
libGLESv2.so:glCopyImageSubDataOES
libGLESv2.so:glCopySubTexture3DANGLE
libGLESv2.so:glCopySubTextureCHROMIUM
libGLESv2.so:glCopyTexImage2D
libGLESv2.so:glCopyTexSubImage2D
libGLESv2.so:glCopyTexSubImage3D
libGLESv2.so:glCopyTexSubImage3DOES
libGLESv2.so:glCopyTexture3DANGLE
libGLESv2.so:glCopyTextureCHROMIUM
libGLESv2.so:glCoverageModulationCHROMIUM
libGLESv2.so:glCreateMemoryObjectsEXT
libGLESv2.so:glCreateProgram
libGLESv2.so:glCreateShader
libGLESv2.so:glCreateShaderProgramv
libGLESv2.so:glCreateShaderProgramvEXT
libGLESv2.so:glCullFace
libGLESv2.so:glCurrentPaletteMatrixOES
libGLESv2.so:glDebugMessageCallback
libGLESv2.so:glDebugMessageCallbackKHR
libGLESv2.so:glDebugMessageControl
libGLESv2.so:glDebugMessageControlKHR
libGLESv2.so:glDebugMessageInsert
libGLESv2.so:glDebugMessageInsertKHR
libGLESv2.so:glDeleteBuffers
libGLESv2.so:glDeleteFencesNV
libGLESv2.so:glDeleteFramebuffers
libGLESv2.so:glDeleteFramebuffersOES
libGLESv2.so:glDeleteMemoryObjectsEXT
libGLESv2.so:glDeletePerfMonitorsAMD
libGLESv2.so:glDeleteProgram
libGLESv2.so:glDeleteProgramPipelines
libGLESv2.so:glDeleteProgramPipelinesEXT
libGLESv2.so:glDeleteQueries
libGLESv2.so:glDeleteQueriesEXT
libGLESv2.so:glDeleteRenderbuffers
libGLESv2.so:glDeleteRenderbuffersOES
libGLESv2.so:glDeleteSamplers
libGLESv2.so:glDeleteSemaphoresEXT
libGLESv2.so:glDeleteShader
libGLESv2.so:glDeleteSync
libGLESv2.so:glDeleteTextures
libGLESv2.so:glDeleteTransformFeedbacks
libGLESv2.so:glDeleteVertexArrays
libGLESv2.so:glDeleteVertexArraysOES
libGLESv2.so:glDepthFunc
libGLESv2.so:glDepthMask
libGLESv2.so:glDepthRangef
libGLESv2.so:glDepthRangex
libGLESv2.so:glDetachShader
libGLESv2.so:glDisable
libGLESv2.so:glDisableClientState
libGLESv2.so:glDisableExtensionANGLE
libGLESv2.so:glDisableVertexAttribArray
libGLESv2.so:glDisablei
libGLESv2.so:glDisableiEXT
libGLESv2.so:glDisableiOES
libGLESv2.so:glDiscardFramebufferEXT
libGLESv2.so:glDispatchCompute
libGLESv2.so:glDispatchComputeIndirect
libGLESv2.so:glDrawArrays
libGLESv2.so:glDrawArraysIndirect
libGLESv2.so:glDrawArraysInstanced
libGLESv2.so:glDrawArraysInstancedANGLE
libGLESv2.so:glDrawArraysInstancedBaseInstanceANGLE
libGLESv2.so:glDrawArraysInstancedBaseInstanceEXT
libGLESv2.so:glDrawArraysInstancedEXT
libGLESv2.so:glDrawBuffers
libGLESv2.so:glDrawBuffersEXT
libGLESv2.so:glDrawElements
libGLESv2.so:glDrawElementsBaseVertex
libGLESv2.so:glDrawElementsBaseVertexEXT
libGLESv2.so:glDrawElementsBaseVertexOES
libGLESv2.so:glDrawElementsIndirect
libGLESv2.so:glDrawElementsInstanced
libGLESv2.so:glDrawElementsInstancedANGLE
libGLESv2.so:glDrawElementsInstancedBaseInstanceEXT
libGLESv2.so:glDrawElementsInstancedBaseVertex
libGLESv2.so:glDrawElementsInstancedBaseVertexBaseInstanceANGLE
libGLESv2.so:glDrawElementsInstancedBaseVertexBaseInstanceEXT
libGLESv2.so:glDrawElementsInstancedBaseVertexEXT
libGLESv2.so:glDrawElementsInstancedBaseVertexOES
libGLESv2.so:glDrawElementsInstancedEXT
libGLESv2.so:glDrawRangeElements
libGLESv2.so:glDrawRangeElementsBaseVertex
libGLESv2.so:glDrawRangeElementsBaseVertexEXT
libGLESv2.so:glDrawRangeElementsBaseVertexOES
libGLESv2.so:glDrawTexfOES
libGLESv2.so:glDrawTexfvOES
libGLESv2.so:glDrawTexiOES
libGLESv2.so:glDrawTexivOES
libGLESv2.so:glDrawTexsOES
libGLESv2.so:glDrawTexsvOES
libGLESv2.so:glDrawTexxOES
libGLESv2.so:glDrawTexxvOES
libGLESv2.so:glEGLImageTargetRenderbufferStorageOES
libGLESv2.so:glEGLImageTargetTexStorageEXT
libGLESv2.so:glEGLImageTargetTexture2DOES
libGLESv2.so:glEGLImageTargetTextureStorageEXT
libGLESv2.so:glEnable
libGLESv2.so:glEnableClientState
libGLESv2.so:glEnableVertexAttribArray
libGLESv2.so:glEnablei
libGLESv2.so:glEnableiEXT
libGLESv2.so:glEnableiOES
libGLESv2.so:glEndPerfMonitorAMD
libGLESv2.so:glEndPixelLocalStorageANGLE
libGLESv2.so:glEndQuery
libGLESv2.so:glEndQueryEXT
libGLESv2.so:glEndTilingQCOM
libGLESv2.so:glEndTransformFeedback
libGLESv2.so:glFenceSync
libGLESv2.so:glFinish
libGLESv2.so:glFinishFenceNV
libGLESv2.so:glFlush
libGLESv2.so:glFlushMappedBufferRange
libGLESv2.so:glFlushMappedBufferRangeEXT
libGLESv2.so:glFogf
libGLESv2.so:glFogfv
libGLESv2.so:glFogx
libGLESv2.so:glFogxv
libGLESv2.so:glFramebufferFetchBarrierEXT
libGLESv2.so:glFramebufferFoveationConfigQCOM
libGLESv2.so:glFramebufferFoveationParametersQCOM
libGLESv2.so:glFramebufferMemorylessPixelLocalStorageANGLE
libGLESv2.so:glFramebufferParameteri
libGLESv2.so:glFramebufferParameteriMESA
libGLESv2.so:glFramebufferPixelLocalClearValuefvANGLE
libGLESv2.so:glFramebufferPixelLocalClearValueivANGLE
libGLESv2.so:glFramebufferPixelLocalClearValueuivANGLE
libGLESv2.so:glFramebufferPixelLocalStorageInterruptANGLE
libGLESv2.so:glFramebufferPixelLocalStorageRestoreANGLE
libGLESv2.so:glFramebufferRenderbuffer
libGLESv2.so:glFramebufferRenderbufferOES
libGLESv2.so:glFramebufferTexture
libGLESv2.so:glFramebufferTexture2D
libGLESv2.so:glFramebufferTexture2DMultisampleEXT
libGLESv2.so:glFramebufferTexture2DOES
libGLESv2.so:glFramebufferTexture3DOES
libGLESv2.so:glFramebufferTextureEXT
libGLESv2.so:glFramebufferTextureLayer
libGLESv2.so:glFramebufferTextureMultiviewOVR
libGLESv2.so:glFramebufferTextureOES
libGLESv2.so:glFramebufferTexturePixelLocalStorageANGLE
libGLESv2.so:glFrontFace
libGLESv2.so:glFrustumf
libGLESv2.so:glFrustumx
libGLESv2.so:glGenBuffers
libGLESv2.so:glGenFencesNV
libGLESv2.so:glGenFramebuffers
libGLESv2.so:glGenFramebuffersOES
libGLESv2.so:glGenPerfMonitorsAMD
libGLESv2.so:glGenProgramPipelines
libGLESv2.so:glGenProgramPipelinesEXT
libGLESv2.so:glGenQueries
libGLESv2.so:glGenQueriesEXT
libGLESv2.so:glGenRenderbuffers
libGLESv2.so:glGenRenderbuffersOES
libGLESv2.so:glGenSamplers
libGLESv2.so:glGenSemaphoresEXT
libGLESv2.so:glGenTextures
libGLESv2.so:glGenTransformFeedbacks
libGLESv2.so:glGenVertexArrays
libGLESv2.so:glGenVertexArraysOES
libGLESv2.so:glGenerateMipmap
libGLESv2.so:glGenerateMipmapOES
libGLESv2.so:glGetActiveAttrib
libGLESv2.so:glGetActiveUniform
libGLESv2.so:glGetActiveUniformBlockName
libGLESv2.so:glGetActiveUniformBlockiv
libGLESv2.so:glGetActiveUniformBlockivRobustANGLE
libGLESv2.so:glGetActiveUniformsiv
libGLESv2.so:glGetAttachedShaders
libGLESv2.so:glGetAttribLocation
libGLESv2.so:glGetBooleani_v
libGLESv2.so:glGetBooleani_vRobustANGLE
libGLESv2.so:glGetBooleanv
libGLESv2.so:glGetBooleanvRobustANGLE
libGLESv2.so:glGetBufferParameteri64v
libGLESv2.so:glGetBufferParameteri64vRobustANGLE
libGLESv2.so:glGetBufferParameteriv
libGLESv2.so:glGetBufferParameterivRobustANGLE
libGLESv2.so:glGetBufferPointerv
libGLESv2.so:glGetBufferPointervOES
libGLESv2.so:glGetBufferPointervRobustANGLE
libGLESv2.so:glGetClipPlanef
libGLESv2.so:glGetClipPlanex
libGLESv2.so:glGetCompressedTexImageANGLE
libGLESv2.so:glGetDebugMessageLog
libGLESv2.so:glGetDebugMessageLogKHR
libGLESv2.so:glGetError
libGLESv2.so:glGetFenceivNV
libGLESv2.so:glGetFixedv
libGLESv2.so:glGetFloatv
libGLESv2.so:glGetFloatvRobustANGLE
libGLESv2.so:glGetFragDataIndexEXT
libGLESv2.so:glGetFragDataLocation
libGLESv2.so:glGetFramebufferAttachmentParameteriv
libGLESv2.so:glGetFramebufferAttachmentParameterivOES
libGLESv2.so:glGetFramebufferAttachmentParameterivRobustANGLE
libGLESv2.so:glGetFramebufferParameteriv
libGLESv2.so:glGetFramebufferParameterivMESA
libGLESv2.so:glGetFramebufferParameterivRobustANGLE
libGLESv2.so:glGetFramebufferPixelLocalStorageParameterfvANGLE
libGLESv2.so:glGetFramebufferPixelLocalStorageParameterfvRobustANGLE
libGLESv2.so:glGetFramebufferPixelLocalStorageParameterivANGLE
libGLESv2.so:glGetFramebufferPixelLocalStorageParameterivRobustANGLE
libGLESv2.so:glGetGraphicsResetStatus
libGLESv2.so:glGetGraphicsResetStatusEXT
libGLESv2.so:glGetGraphicsResetStatusKHR
libGLESv2.so:glGetInteger64i_v
libGLESv2.so:glGetInteger64i_vRobustANGLE
libGLESv2.so:glGetInteger64v
libGLESv2.so:glGetInteger64vEXT
libGLESv2.so:glGetInteger64vRobustANGLE
libGLESv2.so:glGetIntegeri_v
libGLESv2.so:glGetIntegeri_vRobustANGLE
libGLESv2.so:glGetIntegerv
libGLESv2.so:glGetIntegervRobustANGLE
libGLESv2.so:glGetInternalformativ
libGLESv2.so:glGetInternalformativRobustANGLE
libGLESv2.so:glGetLightfv
libGLESv2.so:glGetLightxv
libGLESv2.so:glGetMaterialfv
libGLESv2.so:glGetMaterialxv
libGLESv2.so:glGetMemoryObjectParameterivEXT
libGLESv2.so:glGetMultisamplefv
libGLESv2.so:glGetMultisamplefvANGLE
libGLESv2.so:glGetMultisamplefvRobustANGLE
libGLESv2.so:glGetObjectLabel
libGLESv2.so:glGetObjectLabelEXT
libGLESv2.so:glGetObjectLabelKHR
libGLESv2.so:glGetObjectPtrLabel
libGLESv2.so:glGetObjectPtrLabelKHR
libGLESv2.so:glGetPerfMonitorCounterDataAMD
libGLESv2.so:glGetPerfMonitorCounterInfoAMD
libGLESv2.so:glGetPerfMonitorCounterStringAMD
libGLESv2.so:glGetPerfMonitorCountersAMD
libGLESv2.so:glGetPerfMonitorGroupStringAMD
libGLESv2.so:glGetPerfMonitorGroupsAMD
libGLESv2.so:glGetPointerv
libGLESv2.so:glGetPointervKHR
libGLESv2.so:glGetPointervRobustANGLERobustANGLE
libGLESv2.so:glGetProgramBinary
libGLESv2.so:glGetProgramBinaryOES
libGLESv2.so:glGetProgramInfoLog
libGLESv2.so:glGetProgramInterfaceiv
libGLESv2.so:glGetProgramInterfaceivRobustANGLE
libGLESv2.so:glGetProgramPipelineInfoLog
libGLESv2.so:glGetProgramPipelineInfoLogEXT
libGLESv2.so:glGetProgramPipelineiv
libGLESv2.so:glGetProgramPipelineivEXT
libGLESv2.so:glGetProgramResourceIndex
libGLESv2.so:glGetProgramResourceLocation
libGLESv2.so:glGetProgramResourceLocationIndexEXT
libGLESv2.so:glGetProgramResourceName
libGLESv2.so:glGetProgramResourceiv
libGLESv2.so:glGetProgramiv
libGLESv2.so:glGetProgramivRobustANGLE
libGLESv2.so:glGetQueryObjecti64vEXT
libGLESv2.so:glGetQueryObjecti64vRobustANGLE
libGLESv2.so:glGetQueryObjectivEXT
libGLESv2.so:glGetQueryObjectivRobustANGLE
libGLESv2.so:glGetQueryObjectui64vEXT
libGLESv2.so:glGetQueryObjectui64vRobustANGLE
libGLESv2.so:glGetQueryObjectuiv
libGLESv2.so:glGetQueryObjectuivEXT
libGLESv2.so:glGetQueryObjectuivRobustANGLE
libGLESv2.so:glGetQueryiv
libGLESv2.so:glGetQueryivEXT
libGLESv2.so:glGetQueryivRobustANGLE
libGLESv2.so:glGetRenderbufferImageANGLE
libGLESv2.so:glGetRenderbufferParameteriv
libGLESv2.so:glGetRenderbufferParameterivOES
libGLESv2.so:glGetRenderbufferParameterivRobustANGLE
libGLESv2.so:glGetSamplerParameterIiv
libGLESv2.so:glGetSamplerParameterIivEXT
libGLESv2.so:glGetSamplerParameterIivOES
libGLESv2.so:glGetSamplerParameterIivRobustANGLE
libGLESv2.so:glGetSamplerParameterIuiv
libGLESv2.so:glGetSamplerParameterIuivEXT
libGLESv2.so:glGetSamplerParameterIuivOES
libGLESv2.so:glGetSamplerParameterIuivRobustANGLE
libGLESv2.so:glGetSamplerParameterfv
libGLESv2.so:glGetSamplerParameterfvRobustANGLE
libGLESv2.so:glGetSamplerParameteriv
libGLESv2.so:glGetSamplerParameterivRobustANGLE
libGLESv2.so:glGetSemaphoreParameterui64vEXT
libGLESv2.so:glGetShaderInfoLog
libGLESv2.so:glGetShaderPrecisionFormat
libGLESv2.so:glGetShaderSource
libGLESv2.so:glGetShaderiv
libGLESv2.so:glGetShaderivRobustANGLE
libGLESv2.so:glGetString
libGLESv2.so:glGetStringi
libGLESv2.so:glGetSynciv
libGLESv2.so:glGetTexEnvfv
libGLESv2.so:glGetTexEnviv
libGLESv2.so:glGetTexEnvxv
libGLESv2.so:glGetTexGenfvOES
libGLESv2.so:glGetTexGenivOES
libGLESv2.so:glGetTexGenxvOES
libGLESv2.so:glGetTexImageANGLE
libGLESv2.so:glGetTexLevelParameterfv
libGLESv2.so:glGetTexLevelParameterfvANGLE
libGLESv2.so:glGetTexLevelParameterfvRobustANGLE
libGLESv2.so:glGetTexLevelParameteriv
libGLESv2.so:glGetTexLevelParameterivANGLE
libGLESv2.so:glGetTexLevelParameterivRobustANGLE
libGLESv2.so:glGetTexParameterIiv
libGLESv2.so:glGetTexParameterIivEXT
libGLESv2.so:glGetTexParameterIivOES
libGLESv2.so:glGetTexParameterIivRobustANGLE
libGLESv2.so:glGetTexParameterIuiv
libGLESv2.so:glGetTexParameterIuivEXT
libGLESv2.so:glGetTexParameterIuivOES
libGLESv2.so:glGetTexParameterIuivRobustANGLE
libGLESv2.so:glGetTexParameterfv
libGLESv2.so:glGetTexParameterfvRobustANGLE
libGLESv2.so:glGetTexParameteriv
libGLESv2.so:glGetTexParameterivRobustANGLE
libGLESv2.so:glGetTexParameterxv
libGLESv2.so:glGetTransformFeedbackVarying
libGLESv2.so:glGetTranslatedShaderSourceANGLE
libGLESv2.so:glGetUniformBlockIndex
libGLESv2.so:glGetUniformIndices
libGLESv2.so:glGetUniformLocation
libGLESv2.so:glGetUniformfv
libGLESv2.so:glGetUniformfvRobustANGLE
libGLESv2.so:glGetUniformiv
libGLESv2.so:glGetUniformivRobustANGLE
libGLESv2.so:glGetUniformuiv
libGLESv2.so:glGetUniformuivRobustANGLE
libGLESv2.so:glGetUnsignedBytei_vEXT
libGLESv2.so:glGetUnsignedBytevEXT
libGLESv2.so:glGetVertexAttribIiv
libGLESv2.so:glGetVertexAttribIivRobustANGLE
libGLESv2.so:glGetVertexAttribIuiv
libGLESv2.so:glGetVertexAttribIuivRobustANGLE
libGLESv2.so:glGetVertexAttribPointerv
libGLESv2.so:glGetVertexAttribPointervRobustANGLE
libGLESv2.so:glGetVertexAttribfv
libGLESv2.so:glGetVertexAttribfvRobustANGLE
libGLESv2.so:glGetVertexAttribiv
libGLESv2.so:glGetVertexAttribivRobustANGLE
libGLESv2.so:glGetnUniformfv
libGLESv2.so:glGetnUniformfvEXT
libGLESv2.so:glGetnUniformfvKHR
libGLESv2.so:glGetnUniformfvRobustANGLE
libGLESv2.so:glGetnUniformiv
libGLESv2.so:glGetnUniformivEXT
libGLESv2.so:glGetnUniformivKHR
libGLESv2.so:glGetnUniformivRobustANGLE
libGLESv2.so:glGetnUniformuiv
libGLESv2.so:glGetnUniformuivKHR
libGLESv2.so:glGetnUniformuivRobustANGLE
libGLESv2.so:glHint
libGLESv2.so:glImportMemoryFdEXT
libGLESv2.so:glImportMemoryZirconHandleANGLE
libGLESv2.so:glImportSemaphoreFdEXT
libGLESv2.so:glImportSemaphoreZirconHandleANGLE
libGLESv2.so:glInsertEventMarkerEXT
libGLESv2.so:glInvalidateFramebuffer
libGLESv2.so:glInvalidateSubFramebuffer
libGLESv2.so:glInvalidateTextureANGLE
libGLESv2.so:glIsBuffer
libGLESv2.so:glIsEnabled
libGLESv2.so:glIsEnabledi
libGLESv2.so:glIsEnablediEXT
libGLESv2.so:glIsEnablediOES
libGLESv2.so:glIsFenceNV
libGLESv2.so:glIsFramebuffer
libGLESv2.so:glIsFramebufferOES
libGLESv2.so:glIsMemoryObjectEXT
libGLESv2.so:glIsProgram
libGLESv2.so:glIsProgramPipeline
libGLESv2.so:glIsProgramPipelineEXT
libGLESv2.so:glIsQuery
libGLESv2.so:glIsQueryEXT
libGLESv2.so:glIsRenderbuffer
libGLESv2.so:glIsRenderbufferOES
libGLESv2.so:glIsSampler
libGLESv2.so:glIsSemaphoreEXT
libGLESv2.so:glIsShader
libGLESv2.so:glIsSync
libGLESv2.so:glIsTexture
libGLESv2.so:glIsTransformFeedback
libGLESv2.so:glIsVertexArray
libGLESv2.so:glIsVertexArrayOES
libGLESv2.so:glLabelObjectEXT
libGLESv2.so:glLightModelf
libGLESv2.so:glLightModelfv
libGLESv2.so:glLightModelx
libGLESv2.so:glLightModelxv
libGLESv2.so:glLightf
libGLESv2.so:glLightfv
libGLESv2.so:glLightx
libGLESv2.so:glLightxv
libGLESv2.so:glLineWidth
libGLESv2.so:glLineWidthx
libGLESv2.so:glLinkProgram
libGLESv2.so:glLoadIdentity
libGLESv2.so:glLoadMatrixf
libGLESv2.so:glLoadMatrixx
libGLESv2.so:glLoadPaletteFromModelViewMatrixOES
libGLESv2.so:glLogicOp
libGLESv2.so:glLogicOpANGLE
libGLESv2.so:glLoseContextCHROMIUM
libGLESv2.so:glMapBufferOES
libGLESv2.so:glMapBufferRange
libGLESv2.so:glMapBufferRangeEXT
libGLESv2.so:glMaterialf
libGLESv2.so:glMaterialfv
libGLESv2.so:glMaterialx
libGLESv2.so:glMaterialxv
libGLESv2.so:glMatrixIndexPointerOES
libGLESv2.so:glMatrixMode
libGLESv2.so:glMaxShaderCompilerThreadsKHR
libGLESv2.so:glMemoryBarrier
libGLESv2.so:glMemoryBarrierByRegion
libGLESv2.so:glMemoryObjectParameterivEXT
libGLESv2.so:glMinSampleShading
libGLESv2.so:glMinSampleShadingOES
libGLESv2.so:glMultMatrixf
libGLESv2.so:glMultMatrixx
libGLESv2.so:glMultiDrawArraysANGLE
libGLESv2.so:glMultiDrawArraysIndirectEXT
libGLESv2.so:glMultiDrawArraysInstancedANGLE
libGLESv2.so:glMultiDrawArraysInstancedBaseInstanceANGLE
libGLESv2.so:glMultiDrawElementsANGLE
libGLESv2.so:glMultiDrawElementsBaseVertexEXT
libGLESv2.so:glMultiDrawElementsIndirectEXT
libGLESv2.so:glMultiDrawElementsInstancedANGLE
libGLESv2.so:glMultiDrawElementsInstancedBaseVertexBaseInstanceANGLE
libGLESv2.so:glMultiTexCoord4f
libGLESv2.so:glMultiTexCoord4x
libGLESv2.so:glNamedBufferStorageExternalEXT
libGLESv2.so:glNormal3f
libGLESv2.so:glNormal3x
libGLESv2.so:glNormalPointer
libGLESv2.so:glObjectLabel
libGLESv2.so:glObjectLabelKHR
libGLESv2.so:glObjectPtrLabel
libGLESv2.so:glObjectPtrLabelKHR
libGLESv2.so:glOrthof
libGLESv2.so:glOrthox
libGLESv2.so:glPatchParameteri
libGLESv2.so:glPatchParameteriEXT
libGLESv2.so:glPatchParameteriOES
libGLESv2.so:glPauseTransformFeedback
libGLESv2.so:glPixelLocalStorageBarrierANGLE
libGLESv2.so:glPixelStorei
libGLESv2.so:glPointParameterf
libGLESv2.so:glPointParameterfv
libGLESv2.so:glPointParameterx
libGLESv2.so:glPointParameterxv
libGLESv2.so:glPointSize
libGLESv2.so:glPointSizePointerOES
libGLESv2.so:glPointSizex
libGLESv2.so:glPolygonModeANGLE
libGLESv2.so:glPolygonModeNV
libGLESv2.so:glPolygonOffset
libGLESv2.so:glPolygonOffsetClampEXT
libGLESv2.so:glPolygonOffsetx
libGLESv2.so:glPopDebugGroup
libGLESv2.so:glPopDebugGroupKHR
libGLESv2.so:glPopGroupMarkerEXT
libGLESv2.so:glPopMatrix
libGLESv2.so:glPrimitiveBoundingBox
libGLESv2.so:glPrimitiveBoundingBoxEXT
libGLESv2.so:glPrimitiveBoundingBoxOES
libGLESv2.so:glProgramBinary
libGLESv2.so:glProgramBinaryOES
libGLESv2.so:glProgramParameteri
libGLESv2.so:glProgramParameteriEXT
libGLESv2.so:glProgramUniform1f
libGLESv2.so:glProgramUniform1fEXT
libGLESv2.so:glProgramUniform1fv
libGLESv2.so:glProgramUniform1fvEXT
libGLESv2.so:glProgramUniform1i
libGLESv2.so:glProgramUniform1iEXT
libGLESv2.so:glProgramUniform1iv
libGLESv2.so:glProgramUniform1ivEXT
libGLESv2.so:glProgramUniform1ui
libGLESv2.so:glProgramUniform1uiEXT
libGLESv2.so:glProgramUniform1uiv
libGLESv2.so:glProgramUniform1uivEXT
libGLESv2.so:glProgramUniform2f
libGLESv2.so:glProgramUniform2fEXT
libGLESv2.so:glProgramUniform2fv
libGLESv2.so:glProgramUniform2fvEXT
libGLESv2.so:glProgramUniform2i
libGLESv2.so:glProgramUniform2iEXT
libGLESv2.so:glProgramUniform2iv
libGLESv2.so:glProgramUniform2ivEXT
libGLESv2.so:glProgramUniform2ui
libGLESv2.so:glProgramUniform2uiEXT
libGLESv2.so:glProgramUniform2uiv
libGLESv2.so:glProgramUniform2uivEXT
libGLESv2.so:glProgramUniform3f
libGLESv2.so:glProgramUniform3fEXT
libGLESv2.so:glProgramUniform3fv
libGLESv2.so:glProgramUniform3fvEXT
libGLESv2.so:glProgramUniform3i
libGLESv2.so:glProgramUniform3iEXT
libGLESv2.so:glProgramUniform3iv
libGLESv2.so:glProgramUniform3ivEXT
libGLESv2.so:glProgramUniform3ui
libGLESv2.so:glProgramUniform3uiEXT
libGLESv2.so:glProgramUniform3uiv
libGLESv2.so:glProgramUniform3uivEXT
libGLESv2.so:glProgramUniform4f
libGLESv2.so:glProgramUniform4fEXT
libGLESv2.so:glProgramUniform4fv
libGLESv2.so:glProgramUniform4fvEXT
libGLESv2.so:glProgramUniform4i
libGLESv2.so:glProgramUniform4iEXT
libGLESv2.so:glProgramUniform4iv
libGLESv2.so:glProgramUniform4ivEXT
libGLESv2.so:glProgramUniform4ui
libGLESv2.so:glProgramUniform4uiEXT
libGLESv2.so:glProgramUniform4uiv
libGLESv2.so:glProgramUniform4uivEXT
libGLESv2.so:glProgramUniformMatrix2fv
libGLESv2.so:glProgramUniformMatrix2fvEXT
libGLESv2.so:glProgramUniformMatrix2x3fv
libGLESv2.so:glProgramUniformMatrix2x3fvEXT
libGLESv2.so:glProgramUniformMatrix2x4fv
libGLESv2.so:glProgramUniformMatrix2x4fvEXT
libGLESv2.so:glProgramUniformMatrix3fv
libGLESv2.so:glProgramUniformMatrix3fvEXT
libGLESv2.so:glProgramUniformMatrix3x2fv
libGLESv2.so:glProgramUniformMatrix3x2fvEXT
libGLESv2.so:glProgramUniformMatrix3x4fv
libGLESv2.so:glProgramUniformMatrix3x4fvEXT
libGLESv2.so:glProgramUniformMatrix4fv
libGLESv2.so:glProgramUniformMatrix4fvEXT
libGLESv2.so:glProgramUniformMatrix4x2fv
libGLESv2.so:glProgramUniformMatrix4x2fvEXT
libGLESv2.so:glProgramUniformMatrix4x3fv
libGLESv2.so:glProgramUniformMatrix4x3fvEXT
libGLESv2.so:glProvokingVertexANGLE
libGLESv2.so:glPushDebugGroup
libGLESv2.so:glPushDebugGroupKHR
libGLESv2.so:glPushGroupMarkerEXT
libGLESv2.so:glPushMatrix
libGLESv2.so:glQueryCounterEXT
libGLESv2.so:glQueryMatrixxOES
libGLESv2.so:glReadBuffer
libGLESv2.so:glReadPixels
libGLESv2.so:glReadPixelsRobustANGLE
libGLESv2.so:glReadnPixels
libGLESv2.so:glReadnPixelsEXT
libGLESv2.so:glReadnPixelsKHR
libGLESv2.so:glReadnPixelsRobustANGLE
libGLESv2.so:glReleaseShaderCompiler
libGLESv2.so:glReleaseTexturesANGLE
libGLESv2.so:glRenderbufferStorage
libGLESv2.so:glRenderbufferStorageMultisample
libGLESv2.so:glRenderbufferStorageMultisampleANGLE
libGLESv2.so:glRenderbufferStorageMultisampleEXT
libGLESv2.so:glRenderbufferStorageOES
libGLESv2.so:glRequestExtensionANGLE
libGLESv2.so:glResumeTransformFeedback
libGLESv2.so:glRotatef
libGLESv2.so:glRotatex
libGLESv2.so:glSampleCoverage
libGLESv2.so:glSampleCoveragex
libGLESv2.so:glSampleMaski
libGLESv2.so:glSampleMaskiANGLE
libGLESv2.so:glSamplerParameterIiv
libGLESv2.so:glSamplerParameterIivEXT
libGLESv2.so:glSamplerParameterIivOES
libGLESv2.so:glSamplerParameterIivRobustANGLE
libGLESv2.so:glSamplerParameterIuiv
libGLESv2.so:glSamplerParameterIuivEXT
libGLESv2.so:glSamplerParameterIuivOES
libGLESv2.so:glSamplerParameterIuivRobustANGLE
libGLESv2.so:glSamplerParameterf
libGLESv2.so:glSamplerParameterfv
libGLESv2.so:glSamplerParameterfvRobustANGLE
libGLESv2.so:glSamplerParameteri
libGLESv2.so:glSamplerParameteriv
libGLESv2.so:glSamplerParameterivRobustANGLE
libGLESv2.so:glScalef
libGLESv2.so:glScalex
libGLESv2.so:glScissor
libGLESv2.so:glSelectPerfMonitorCountersAMD
libGLESv2.so:glSemaphoreParameterui64vEXT
libGLESv2.so:glSetFenceNV
libGLESv2.so:glShadeModel
libGLESv2.so:glShaderBinary
libGLESv2.so:glShaderSource
libGLESv2.so:glShadingRateQCOM
libGLESv2.so:glSignalSemaphoreEXT
libGLESv2.so:glStartTilingQCOM
libGLESv2.so:glStencilFunc
libGLESv2.so:glStencilFuncSeparate
libGLESv2.so:glStencilMask
libGLESv2.so:glStencilMaskSeparate
libGLESv2.so:glStencilOp
libGLESv2.so:glStencilOpSeparate
libGLESv2.so:glTestFenceNV
libGLESv2.so:glTexBuffer
libGLESv2.so:glTexBufferEXT
libGLESv2.so:glTexBufferOES
libGLESv2.so:glTexBufferRange
libGLESv2.so:glTexBufferRangeEXT
libGLESv2.so:glTexBufferRangeOES
libGLESv2.so:glTexCoordPointer
libGLESv2.so:glTexEnvf
libGLESv2.so:glTexEnvfv
libGLESv2.so:glTexEnvi
libGLESv2.so:glTexEnviv
libGLESv2.so:glTexEnvx
libGLESv2.so:glTexEnvxv
libGLESv2.so:glTexGenfOES
libGLESv2.so:glTexGenfvOES
libGLESv2.so:glTexGeniOES
libGLESv2.so:glTexGenivOES
libGLESv2.so:glTexGenxOES
libGLESv2.so:glTexGenxvOES
libGLESv2.so:glTexImage2D
libGLESv2.so:glTexImage2DExternalANGLE
libGLESv2.so:glTexImage2DRobustANGLE
libGLESv2.so:glTexImage3D
libGLESv2.so:glTexImage3DOES
libGLESv2.so:glTexImage3DRobustANGLE
libGLESv2.so:glTexParameterIiv
libGLESv2.so:glTexParameterIivEXT
libGLESv2.so:glTexParameterIivOES
libGLESv2.so:glTexParameterIivRobustANGLE
libGLESv2.so:glTexParameterIuiv
libGLESv2.so:glTexParameterIuivEXT
libGLESv2.so:glTexParameterIuivOES
libGLESv2.so:glTexParameterIuivRobustANGLE
libGLESv2.so:glTexParameterf
libGLESv2.so:glTexParameterfv
libGLESv2.so:glTexParameterfvRobustANGLE
libGLESv2.so:glTexParameteri
libGLESv2.so:glTexParameteriv
libGLESv2.so:glTexParameterivRobustANGLE
libGLESv2.so:glTexParameterx
libGLESv2.so:glTexParameterxv
libGLESv2.so:glTexStorage1DEXT
libGLESv2.so:glTexStorage2D
libGLESv2.so:glTexStorage2DEXT
libGLESv2.so:glTexStorage2DMultisample
libGLESv2.so:glTexStorage2DMultisampleANGLE
libGLESv2.so:glTexStorage3D
libGLESv2.so:glTexStorage3DEXT
libGLESv2.so:glTexStorage3DMultisample
libGLESv2.so:glTexStorage3DMultisampleOES
libGLESv2.so:glTexStorageMem2DEXT
libGLESv2.so:glTexStorageMem2DMultisampleEXT
libGLESv2.so:glTexStorageMem3DEXT
libGLESv2.so:glTexStorageMem3DMultisampleEXT
libGLESv2.so:glTexStorageMemFlags2DANGLE
libGLESv2.so:glTexStorageMemFlags2DMultisampleANGLE
libGLESv2.so:glTexStorageMemFlags3DANGLE
libGLESv2.so:glTexStorageMemFlags3DMultisampleANGLE
libGLESv2.so:glTexSubImage2D
libGLESv2.so:glTexSubImage2DRobustANGLE
libGLESv2.so:glTexSubImage3D
libGLESv2.so:glTexSubImage3DOES
libGLESv2.so:glTexSubImage3DRobustANGLE
libGLESv2.so:glTextureFoveationParametersQCOM
libGLESv2.so:glTransformFeedbackVaryings
libGLESv2.so:glTranslatef
libGLESv2.so:glTranslatex
libGLESv2.so:glUniform1f
libGLESv2.so:glUniform1fv
libGLESv2.so:glUniform1i
libGLESv2.so:glUniform1iv
libGLESv2.so:glUniform1ui
libGLESv2.so:glUniform1uiv
libGLESv2.so:glUniform2f
libGLESv2.so:glUniform2fv
libGLESv2.so:glUniform2i
libGLESv2.so:glUniform2iv
libGLESv2.so:glUniform2ui
libGLESv2.so:glUniform2uiv
libGLESv2.so:glUniform3f
libGLESv2.so:glUniform3fv
libGLESv2.so:glUniform3i
libGLESv2.so:glUniform3iv
libGLESv2.so:glUniform3ui
libGLESv2.so:glUniform3uiv
libGLESv2.so:glUniform4f
libGLESv2.so:glUniform4fv
libGLESv2.so:glUniform4i
libGLESv2.so:glUniform4iv
libGLESv2.so:glUniform4ui
libGLESv2.so:glUniform4uiv
libGLESv2.so:glUniformBlockBinding
libGLESv2.so:glUniformMatrix2fv
libGLESv2.so:glUniformMatrix2x3fv
libGLESv2.so:glUniformMatrix2x4fv
libGLESv2.so:glUniformMatrix3fv
libGLESv2.so:glUniformMatrix3x2fv
libGLESv2.so:glUniformMatrix3x4fv
libGLESv2.so:glUniformMatrix4fv
libGLESv2.so:glUniformMatrix4x2fv
libGLESv2.so:glUniformMatrix4x3fv
libGLESv2.so:glUnmapBuffer
libGLESv2.so:glUnmapBufferOES
libGLESv2.so:glUseProgram
libGLESv2.so:glUseProgramStages
libGLESv2.so:glUseProgramStagesEXT
libGLESv2.so:glValidateProgram
libGLESv2.so:glValidateProgramPipeline
libGLESv2.so:glValidateProgramPipelineEXT
libGLESv2.so:glVertexAttrib1f
libGLESv2.so:glVertexAttrib1fv
libGLESv2.so:glVertexAttrib2f
libGLESv2.so:glVertexAttrib2fv
libGLESv2.so:glVertexAttrib3f
libGLESv2.so:glVertexAttrib3fv
libGLESv2.so:glVertexAttrib4f
libGLESv2.so:glVertexAttrib4fv
libGLESv2.so:glVertexAttribBinding
libGLESv2.so:glVertexAttribDivisor
libGLESv2.so:glVertexAttribDivisorANGLE
libGLESv2.so:glVertexAttribDivisorEXT
libGLESv2.so:glVertexAttribFormat
libGLESv2.so:glVertexAttribI4i
libGLESv2.so:glVertexAttribI4iv
libGLESv2.so:glVertexAttribI4ui
libGLESv2.so:glVertexAttribI4uiv
libGLESv2.so:glVertexAttribIFormat
libGLESv2.so:glVertexAttribIPointer
libGLESv2.so:glVertexAttribPointer
libGLESv2.so:glVertexBindingDivisor
libGLESv2.so:glVertexPointer
libGLESv2.so:glViewport
libGLESv2.so:glWaitSemaphoreEXT
libGLESv2.so:glWaitSync
libGLESv2.so:glWeightPointerOES
libffmpeg.so:av_ac3_parse_header
libffmpeg.so:av_add_i
libffmpeg.so:av_add_index_entry
libffmpeg.so:av_add_q
libffmpeg.so:av_add_stable
libffmpeg.so:av_adts_header_parse
libffmpeg.so:av_aes_alloc
libffmpeg.so:av_aes_crypt
libffmpeg.so:av_aes_ctr_alloc
libffmpeg.so:av_aes_ctr_crypt
libffmpeg.so:av_aes_ctr_free
libffmpeg.so:av_aes_ctr_get_iv
libffmpeg.so:av_aes_ctr_increment_iv
libffmpeg.so:av_aes_ctr_init
libffmpeg.so:av_aes_ctr_set_full_iv
libffmpeg.so:av_aes_ctr_set_iv
libffmpeg.so:av_aes_ctr_set_random_iv
libffmpeg.so:av_aes_init
libffmpeg.so:av_aes_size
libffmpeg.so:av_ambient_viewing_environment_alloc
libffmpeg.so:av_ambient_viewing_environment_create_side_data
libffmpeg.so:av_append_packet
libffmpeg.so:av_append_path_component
libffmpeg.so:av_asprintf
libffmpeg.so:av_assert0_fpu
libffmpeg.so:av_base64_decode
libffmpeg.so:av_base64_encode
libffmpeg.so:av_basename
libffmpeg.so:av_bessel_i0
libffmpeg.so:av_bmg_get
libffmpeg.so:av_bprint_append_data
libffmpeg.so:av_bprint_chars
libffmpeg.so:av_bprint_clear
libffmpeg.so:av_bprint_escape
libffmpeg.so:av_bprint_finalize
libffmpeg.so:av_bprint_get_buffer
libffmpeg.so:av_bprint_init
libffmpeg.so:av_bprint_init_for_buffer
libffmpeg.so:av_bprint_strftime
libffmpeg.so:av_bprintf
libffmpeg.so:av_bsf_alloc
libffmpeg.so:av_bsf_flush
libffmpeg.so:av_bsf_free
libffmpeg.so:av_bsf_get_by_name
libffmpeg.so:av_bsf_get_class
libffmpeg.so:av_bsf_get_null_filter
libffmpeg.so:av_bsf_init
libffmpeg.so:av_bsf_iterate
libffmpeg.so:av_bsf_list_alloc
libffmpeg.so:av_bsf_list_append
libffmpeg.so:av_bsf_list_append2
libffmpeg.so:av_bsf_list_finalize
libffmpeg.so:av_bsf_list_free
libffmpeg.so:av_bsf_list_parse_str
libffmpeg.so:av_bsf_receive_packet
libffmpeg.so:av_bsf_send_packet
libffmpeg.so:av_buffer_alloc
libffmpeg.so:av_buffer_allocz
libffmpeg.so:av_buffer_create
libffmpeg.so:av_buffer_default_free
libffmpeg.so:av_buffer_get_opaque
libffmpeg.so:av_buffer_get_ref_count
libffmpeg.so:av_buffer_is_writable
libffmpeg.so:av_buffer_make_writable
libffmpeg.so:av_buffer_pool_buffer_get_opaque
libffmpeg.so:av_buffer_pool_get
libffmpeg.so:av_buffer_pool_init
libffmpeg.so:av_buffer_pool_init2
libffmpeg.so:av_buffer_pool_uninit
libffmpeg.so:av_buffer_realloc
libffmpeg.so:av_buffer_ref
libffmpeg.so:av_buffer_replace
libffmpeg.so:av_buffer_unref
libffmpeg.so:av_calloc
libffmpeg.so:av_camellia_alloc
libffmpeg.so:av_camellia_crypt
libffmpeg.so:av_camellia_init
libffmpeg.so:av_camellia_size
libffmpeg.so:av_channel_description
libffmpeg.so:av_channel_description_bprint
libffmpeg.so:av_channel_from_string
libffmpeg.so:av_channel_layout_channel_from_index
libffmpeg.so:av_channel_layout_channel_from_string
libffmpeg.so:av_channel_layout_check
libffmpeg.so:av_channel_layout_compare
libffmpeg.so:av_channel_layout_copy
libffmpeg.so:av_channel_layout_custom_init
libffmpeg.so:av_channel_layout_default
libffmpeg.so:av_channel_layout_describe
libffmpeg.so:av_channel_layout_describe_bprint
libffmpeg.so:av_channel_layout_from_mask
libffmpeg.so:av_channel_layout_from_string
libffmpeg.so:av_channel_layout_index_from_channel
libffmpeg.so:av_channel_layout_index_from_string
libffmpeg.so:av_channel_layout_retype
libffmpeg.so:av_channel_layout_standard
libffmpeg.so:av_channel_layout_subset
libffmpeg.so:av_channel_layout_uninit
libffmpeg.so:av_channel_name
libffmpeg.so:av_channel_name_bprint
libffmpeg.so:av_chroma_location_enum_to_pos
libffmpeg.so:av_chroma_location_from_name
libffmpeg.so:av_chroma_location_name
libffmpeg.so:av_chroma_location_pos_to_enum
libffmpeg.so:av_cmp_i
libffmpeg.so:av_codec_ffversion
libffmpeg.so:av_codec_get_id
libffmpeg.so:av_codec_get_tag
libffmpeg.so:av_codec_get_tag2
libffmpeg.so:av_codec_is_decoder
libffmpeg.so:av_codec_is_encoder
libffmpeg.so:av_codec_iterate
libffmpeg.so:av_color_primaries_from_name
libffmpeg.so:av_color_primaries_name
libffmpeg.so:av_color_range_from_name
libffmpeg.so:av_color_range_name
libffmpeg.so:av_color_space_from_name
libffmpeg.so:av_color_space_name
libffmpeg.so:av_color_transfer_from_name
libffmpeg.so:av_color_transfer_name
libffmpeg.so:av_compare_mod
libffmpeg.so:av_compare_ts
libffmpeg.so:av_content_light_metadata_alloc
libffmpeg.so:av_content_light_metadata_create_side_data
libffmpeg.so:av_cpb_properties_alloc
libffmpeg.so:av_cpu_count
libffmpeg.so:av_cpu_force_count
libffmpeg.so:av_cpu_max_align
libffmpeg.so:av_crc
libffmpeg.so:av_crc_get_table
libffmpeg.so:av_crc_init
libffmpeg.so:av_csp_approximate_trc_gamma
libffmpeg.so:av_csp_luma_coeffs_from_avcsp
libffmpeg.so:av_csp_primaries_desc_from_id
libffmpeg.so:av_csp_primaries_id_from_desc
libffmpeg.so:av_csp_trc_func_from_id
libffmpeg.so:av_d2q
libffmpeg.so:av_d3d11va_alloc_context
libffmpeg.so:av_dct_calc
libffmpeg.so:av_dct_end
libffmpeg.so:av_dct_init
libffmpeg.so:av_default_get_category
libffmpeg.so:av_default_item_name
libffmpeg.so:av_demuxer_iterate
libffmpeg.so:av_detection_bbox_alloc
libffmpeg.so:av_detection_bbox_create_side_data
libffmpeg.so:av_dict_copy
libffmpeg.so:av_dict_count
libffmpeg.so:av_dict_free
libffmpeg.so:av_dict_get
libffmpeg.so:av_dict_get_string
libffmpeg.so:av_dict_iterate
libffmpeg.so:av_dict_parse_string
libffmpeg.so:av_dict_set
libffmpeg.so:av_dict_set_int
libffmpeg.so:av_dirac_parse_sequence_header
libffmpeg.so:av_dirname
libffmpeg.so:av_display_matrix_flip
libffmpeg.so:av_display_rotation_get
libffmpeg.so:av_display_rotation_set
libffmpeg.so:av_disposition_from_string
libffmpeg.so:av_disposition_to_string
libffmpeg.so:av_div_i
libffmpeg.so:av_div_q
libffmpeg.so:av_dovi_alloc
libffmpeg.so:av_dovi_find_level
libffmpeg.so:av_dovi_metadata_alloc
libffmpeg.so:av_downmix_info_update_side_data
libffmpeg.so:av_dump_format
libffmpeg.so:av_dv_codec_profile
libffmpeg.so:av_dv_codec_profile2
libffmpeg.so:av_dv_frame_profile
libffmpeg.so:av_dynamic_hdr_plus_alloc
libffmpeg.so:av_dynamic_hdr_plus_create_side_data
libffmpeg.so:av_dynamic_hdr_plus_from_t35
libffmpeg.so:av_dynamic_hdr_plus_to_t35
libffmpeg.so:av_dynamic_hdr_vivid_alloc
libffmpeg.so:av_dynamic_hdr_vivid_create_side_data
libffmpeg.so:av_dynarray2_add
libffmpeg.so:av_dynarray_add
libffmpeg.so:av_dynarray_add_nofree
libffmpeg.so:av_encryption_info_add_side_data
libffmpeg.so:av_encryption_info_alloc
libffmpeg.so:av_encryption_info_clone
libffmpeg.so:av_encryption_info_free
libffmpeg.so:av_encryption_info_get_side_data
libffmpeg.so:av_encryption_init_info_add_side_data
libffmpeg.so:av_encryption_init_info_alloc
libffmpeg.so:av_encryption_init_info_free
libffmpeg.so:av_encryption_init_info_get_side_data
libffmpeg.so:av_escape
libffmpeg.so:av_executor_alloc
libffmpeg.so:av_executor_execute
libffmpeg.so:av_executor_free
libffmpeg.so:av_expr_count_func
libffmpeg.so:av_expr_count_vars
libffmpeg.so:av_expr_eval
libffmpeg.so:av_expr_free
libffmpeg.so:av_expr_parse
libffmpeg.so:av_expr_parse_and_eval
libffmpeg.so:av_fast_malloc
libffmpeg.so:av_fast_mallocz
libffmpeg.so:av_fast_padded_malloc
libffmpeg.so:av_fast_padded_mallocz
libffmpeg.so:av_fast_realloc
libffmpeg.so:av_fft_calc
libffmpeg.so:av_fft_end
libffmpeg.so:av_fft_init
libffmpeg.so:av_fft_permute
libffmpeg.so:av_fifo_alloc2
libffmpeg.so:av_fifo_auto_grow_limit
libffmpeg.so:av_fifo_can_read
libffmpeg.so:av_fifo_can_write
libffmpeg.so:av_fifo_drain2
libffmpeg.so:av_fifo_elem_size
libffmpeg.so:av_fifo_freep2
libffmpeg.so:av_fifo_grow2
libffmpeg.so:av_fifo_peek
libffmpeg.so:av_fifo_peek_to_cb
libffmpeg.so:av_fifo_read
libffmpeg.so:av_fifo_read_to_cb
libffmpeg.so:av_fifo_reset2
libffmpeg.so:av_fifo_write
libffmpeg.so:av_fifo_write_from_cb
libffmpeg.so:av_filename_number_test
libffmpeg.so:av_film_grain_params_alloc
libffmpeg.so:av_film_grain_params_create_side_data
libffmpeg.so:av_film_grain_params_select
libffmpeg.so:av_find_best_pix_fmt_of_2
libffmpeg.so:av_find_best_stream
libffmpeg.so:av_find_default_stream_index
libffmpeg.so:av_find_info_tag
libffmpeg.so:av_find_input_format
libffmpeg.so:av_find_nearest_q_idx
libffmpeg.so:av_find_program_from_stream
libffmpeg.so:av_fmt_ctx_get_duration_estimation_method
libffmpeg.so:av_force_cpu_flags
libffmpeg.so:av_format_ffversion
libffmpeg.so:av_format_inject_global_side_data
libffmpeg.so:av_fourcc_make_string
libffmpeg.so:av_frame_alloc
libffmpeg.so:av_frame_apply_cropping
libffmpeg.so:av_frame_clone
libffmpeg.so:av_frame_copy
libffmpeg.so:av_frame_copy_props
libffmpeg.so:av_frame_free
libffmpeg.so:av_frame_get_buffer
libffmpeg.so:av_frame_get_plane_buffer
libffmpeg.so:av_frame_get_side_data
libffmpeg.so:av_frame_is_writable
libffmpeg.so:av_frame_make_writable
libffmpeg.so:av_frame_move_ref
libffmpeg.so:av_frame_new_side_data
libffmpeg.so:av_frame_new_side_data_from_buf
libffmpeg.so:av_frame_ref
libffmpeg.so:av_frame_remove_side_data
libffmpeg.so:av_frame_replace
libffmpeg.so:av_frame_side_data_add
libffmpeg.so:av_frame_side_data_clone
libffmpeg.so:av_frame_side_data_desc
libffmpeg.so:av_frame_side_data_free
libffmpeg.so:av_frame_side_data_get_c
libffmpeg.so:av_frame_side_data_name
libffmpeg.so:av_frame_side_data_new
libffmpeg.so:av_frame_side_data_remove
libffmpeg.so:av_frame_unref
libffmpeg.so:av_free
libffmpeg.so:av_freep
libffmpeg.so:av_gcd
libffmpeg.so:av_gcd_q
libffmpeg.so:av_get_alt_sample_fmt
libffmpeg.so:av_get_audio_frame_duration
libffmpeg.so:av_get_audio_frame_duration2
libffmpeg.so:av_get_bits_per_pixel
libffmpeg.so:av_get_bits_per_sample
libffmpeg.so:av_get_bytes_per_sample
libffmpeg.so:av_get_cpu_flags
libffmpeg.so:av_get_exact_bits_per_sample
libffmpeg.so:av_get_frame_filename
libffmpeg.so:av_get_frame_filename2
libffmpeg.so:av_get_known_color_name
libffmpeg.so:av_get_media_type_string
libffmpeg.so:av_get_output_timestamp
libffmpeg.so:av_get_packed_sample_fmt
libffmpeg.so:av_get_packet
libffmpeg.so:av_get_padded_bits_per_pixel
libffmpeg.so:av_get_pcm_codec
libffmpeg.so:av_get_picture_type_char
libffmpeg.so:av_get_pix_fmt
libffmpeg.so:av_get_pix_fmt_loss
libffmpeg.so:av_get_pix_fmt_name
libffmpeg.so:av_get_pix_fmt_string
libffmpeg.so:av_get_planar_sample_fmt
libffmpeg.so:av_get_profile_name
libffmpeg.so:av_get_random_seed
libffmpeg.so:av_get_sample_fmt
libffmpeg.so:av_get_sample_fmt_name
libffmpeg.so:av_get_sample_fmt_string
libffmpeg.so:av_get_time_base_q
libffmpeg.so:av_get_token
libffmpeg.so:av_gettime
libffmpeg.so:av_gettime_relative
libffmpeg.so:av_gettime_relative_is_monotonic
libffmpeg.so:av_grow_packet
libffmpeg.so:av_guess_codec
libffmpeg.so:av_guess_format
libffmpeg.so:av_guess_frame_rate
libffmpeg.so:av_guess_sample_aspect_ratio
libffmpeg.so:av_hex_dump
libffmpeg.so:av_hex_dump_log
libffmpeg.so:av_hwdevice_ctx_alloc
libffmpeg.so:av_hwdevice_ctx_create
libffmpeg.so:av_hwdevice_ctx_create_derived
libffmpeg.so:av_hwdevice_ctx_create_derived_opts
libffmpeg.so:av_hwdevice_ctx_init
libffmpeg.so:av_hwdevice_find_type_by_name
libffmpeg.so:av_hwdevice_get_hwframe_constraints
libffmpeg.so:av_hwdevice_get_type_name
libffmpeg.so:av_hwdevice_hwconfig_alloc
libffmpeg.so:av_hwdevice_iterate_types
libffmpeg.so:av_hwframe_constraints_free
libffmpeg.so:av_hwframe_ctx_alloc
libffmpeg.so:av_hwframe_ctx_create_derived
libffmpeg.so:av_hwframe_ctx_init
libffmpeg.so:av_hwframe_get_buffer
libffmpeg.so:av_hwframe_map
libffmpeg.so:av_hwframe_transfer_data
libffmpeg.so:av_hwframe_transfer_get_formats
libffmpeg.so:av_i2int
libffmpeg.so:av_iamf_audio_element_add_layer
libffmpeg.so:av_iamf_audio_element_alloc
libffmpeg.so:av_iamf_audio_element_free
libffmpeg.so:av_iamf_audio_element_get_class
libffmpeg.so:av_iamf_mix_presentation_add_submix
libffmpeg.so:av_iamf_mix_presentation_alloc
libffmpeg.so:av_iamf_mix_presentation_free
libffmpeg.so:av_iamf_mix_presentation_get_class
libffmpeg.so:av_iamf_param_definition_alloc
libffmpeg.so:av_iamf_param_definition_get_class
libffmpeg.so:av_iamf_submix_add_element
libffmpeg.so:av_iamf_submix_add_layout
libffmpeg.so:av_image_alloc
libffmpeg.so:av_image_check_sar
libffmpeg.so:av_image_check_size
libffmpeg.so:av_image_check_size2
libffmpeg.so:av_image_copy
libffmpeg.so:av_image_copy_plane
libffmpeg.so:av_image_copy_plane_uc_from
libffmpeg.so:av_image_copy_to_buffer
libffmpeg.so:av_image_copy_uc_from
libffmpeg.so:av_image_fill_arrays
libffmpeg.so:av_image_fill_black
libffmpeg.so:av_image_fill_color
libffmpeg.so:av_image_fill_linesizes
libffmpeg.so:av_image_fill_max_pixsteps
libffmpeg.so:av_image_fill_plane_sizes
libffmpeg.so:av_image_fill_pointers
libffmpeg.so:av_image_get_buffer_size
libffmpeg.so:av_image_get_linesize
libffmpeg.so:av_imdct_calc
libffmpeg.so:av_imdct_half
libffmpeg.so:av_index_search_timestamp
libffmpeg.so:av_init_packet
libffmpeg.so:av_int2i
libffmpeg.so:av_int_list_length_for_size
libffmpeg.so:av_interleaved_write_frame
libffmpeg.so:av_interleaved_write_uncoded_frame
libffmpeg.so:av_jni_get_java_vm
libffmpeg.so:av_jni_set_java_vm
libffmpeg.so:av_lfg_init
libffmpeg.so:av_lfg_init_from_data
libffmpeg.so:av_log2
libffmpeg.so:av_log2_16bit
libffmpeg.so:av_log2_i
libffmpeg.so:av_log_default_callback
libffmpeg.so:av_log_format_line
libffmpeg.so:av_log_format_line2
libffmpeg.so:av_log_get_flags
libffmpeg.so:av_log_get_level
libffmpeg.so:av_log_set_callback
libffmpeg.so:av_log_set_flags
libffmpeg.so:av_log_set_level
libffmpeg.so:av_lzo1x_decode
libffmpeg.so:av_malloc
libffmpeg.so:av_malloc_array
libffmpeg.so:av_mallocz
libffmpeg.so:av_mastering_display_metadata_alloc
libffmpeg.so:av_mastering_display_metadata_alloc_size
libffmpeg.so:av_mastering_display_metadata_create_side_data
libffmpeg.so:av_match_ext
libffmpeg.so:av_match_list
libffmpeg.so:av_match_name
libffmpeg.so:av_max_alloc
libffmpeg.so:av_md5_alloc
libffmpeg.so:av_md5_final
libffmpeg.so:av_md5_init
libffmpeg.so:av_md5_size
libffmpeg.so:av_md5_sum
libffmpeg.so:av_md5_update
libffmpeg.so:av_mdct_calc
libffmpeg.so:av_mdct_end
libffmpeg.so:av_mdct_init
libffmpeg.so:av_mediacodec_alloc_context
libffmpeg.so:av_mediacodec_default_free
libffmpeg.so:av_mediacodec_default_init
libffmpeg.so:av_mediacodec_release_buffer
libffmpeg.so:av_mediacodec_render_buffer_at_time
libffmpeg.so:av_memcpy_backptr
libffmpeg.so:av_memdup
libffmpeg.so:av_mod_i
libffmpeg.so:av_mul_i
libffmpeg.so:av_mul_q
libffmpeg.so:av_muxer_iterate
libffmpeg.so:av_nearer_q
libffmpeg.so:av_new_packet
libffmpeg.so:av_new_program
libffmpeg.so:av_opt_child_class_iterate
libffmpeg.so:av_opt_child_next
libffmpeg.so:av_opt_copy
libffmpeg.so:av_opt_eval_double
libffmpeg.so:av_opt_eval_flags
libffmpeg.so:av_opt_eval_float
libffmpeg.so:av_opt_eval_int
libffmpeg.so:av_opt_eval_int64
libffmpeg.so:av_opt_eval_q
libffmpeg.so:av_opt_eval_uint
libffmpeg.so:av_opt_find
libffmpeg.so:av_opt_find2
libffmpeg.so:av_opt_flag_is_set
libffmpeg.so:av_opt_free
libffmpeg.so:av_opt_freep_ranges
libffmpeg.so:av_opt_get
libffmpeg.so:av_opt_get_chlayout
libffmpeg.so:av_opt_get_dict_val
libffmpeg.so:av_opt_get_double
libffmpeg.so:av_opt_get_image_size
libffmpeg.so:av_opt_get_int
libffmpeg.so:av_opt_get_key_value
libffmpeg.so:av_opt_get_pixel_fmt
libffmpeg.so:av_opt_get_q
libffmpeg.so:av_opt_get_sample_fmt
libffmpeg.so:av_opt_get_video_rate
libffmpeg.so:av_opt_is_set_to_default
libffmpeg.so:av_opt_is_set_to_default_by_name
libffmpeg.so:av_opt_next
libffmpeg.so:av_opt_ptr
libffmpeg.so:av_opt_query_ranges
libffmpeg.so:av_opt_query_ranges_default
libffmpeg.so:av_opt_serialize
libffmpeg.so:av_opt_set
libffmpeg.so:av_opt_set_bin
libffmpeg.so:av_opt_set_chlayout
libffmpeg.so:av_opt_set_defaults
libffmpeg.so:av_opt_set_defaults2
libffmpeg.so:av_opt_set_dict
libffmpeg.so:av_opt_set_dict2
libffmpeg.so:av_opt_set_dict_val
libffmpeg.so:av_opt_set_double
libffmpeg.so:av_opt_set_from_string
libffmpeg.so:av_opt_set_image_size
libffmpeg.so:av_opt_set_int
libffmpeg.so:av_opt_set_pixel_fmt
libffmpeg.so:av_opt_set_q
libffmpeg.so:av_opt_set_sample_fmt
libffmpeg.so:av_opt_set_video_rate
libffmpeg.so:av_opt_show2
libffmpeg.so:av_packet_add_side_data
libffmpeg.so:av_packet_alloc
libffmpeg.so:av_packet_clone
libffmpeg.so:av_packet_copy_props
libffmpeg.so:av_packet_free
libffmpeg.so:av_packet_free_side_data
libffmpeg.so:av_packet_from_data
libffmpeg.so:av_packet_get_side_data
libffmpeg.so:av_packet_make_refcounted
libffmpeg.so:av_packet_make_writable
libffmpeg.so:av_packet_move_ref
libffmpeg.so:av_packet_new_side_data
libffmpeg.so:av_packet_pack_dictionary
libffmpeg.so:av_packet_ref
libffmpeg.so:av_packet_rescale_ts
libffmpeg.so:av_packet_shrink_side_data
libffmpeg.so:av_packet_side_data_add
libffmpeg.so:av_packet_side_data_free
libffmpeg.so:av_packet_side_data_get
libffmpeg.so:av_packet_side_data_name
libffmpeg.so:av_packet_side_data_new
libffmpeg.so:av_packet_side_data_remove
libffmpeg.so:av_packet_unpack_dictionary
libffmpeg.so:av_packet_unref
libffmpeg.so:av_parse_color
libffmpeg.so:av_parse_cpu_caps
libffmpeg.so:av_parse_ratio
libffmpeg.so:av_parse_time
libffmpeg.so:av_parse_video_rate
libffmpeg.so:av_parse_video_size
libffmpeg.so:av_parser_close
libffmpeg.so:av_parser_init
libffmpeg.so:av_parser_iterate
libffmpeg.so:av_parser_parse2
libffmpeg.so:av_pix_fmt_count_planes
libffmpeg.so:av_pix_fmt_desc_get
libffmpeg.so:av_pix_fmt_desc_get_id
libffmpeg.so:av_pix_fmt_desc_next
libffmpeg.so:av_pix_fmt_get_chroma_sub_sample
libffmpeg.so:av_pix_fmt_swap_endianness
libffmpeg.so:av_pixelutils_get_sad_fn
libffmpeg.so:av_pkt_dump2
libffmpeg.so:av_pkt_dump_log2
libffmpeg.so:av_probe_input_buffer
libffmpeg.so:av_probe_input_buffer2
libffmpeg.so:av_probe_input_format
libffmpeg.so:av_probe_input_format2
libffmpeg.so:av_probe_input_format3
libffmpeg.so:av_program_add_stream_index
libffmpeg.so:av_q2intfloat
libffmpeg.so:av_qsv_alloc_context
libffmpeg.so:av_random_bytes
libffmpeg.so:av_rdft_calc
libffmpeg.so:av_rdft_end
libffmpeg.so:av_rdft_init
libffmpeg.so:av_read_frame
libffmpeg.so:av_read_image_line
libffmpeg.so:av_read_image_line2
libffmpeg.so:av_read_pause
libffmpeg.so:av_read_play
libffmpeg.so:av_realloc
libffmpeg.so:av_realloc_array
libffmpeg.so:av_realloc_f
libffmpeg.so:av_reallocp
libffmpeg.so:av_reallocp_array
libffmpeg.so:av_reduce
libffmpeg.so:av_rescale
libffmpeg.so:av_rescale_delta
libffmpeg.so:av_rescale_q
libffmpeg.so:av_rescale_q_rnd
libffmpeg.so:av_rescale_rnd
libffmpeg.so:av_sample_fmt_is_planar
libffmpeg.so:av_samples_alloc
libffmpeg.so:av_samples_alloc_array_and_samples
libffmpeg.so:av_samples_copy
libffmpeg.so:av_samples_fill_arrays
libffmpeg.so:av_samples_get_buffer_size
libffmpeg.so:av_samples_set_silence
libffmpeg.so:av_seek_frame
libffmpeg.so:av_set_options_string
libffmpeg.so:av_sha_alloc
libffmpeg.so:av_sha_final
libffmpeg.so:av_sha_init
libffmpeg.so:av_sha_size
libffmpeg.so:av_sha_update
libffmpeg.so:av_shr_i
libffmpeg.so:av_shrink_packet
libffmpeg.so:av_size_mult
libffmpeg.so:av_small_strptime
libffmpeg.so:av_spherical_alloc
libffmpeg.so:av_spherical_from_name
libffmpeg.so:av_spherical_projection_name
libffmpeg.so:av_spherical_tile_bounds
libffmpeg.so:av_stereo3d_alloc
libffmpeg.so:av_stereo3d_create_side_data
libffmpeg.so:av_stereo3d_from_name
libffmpeg.so:av_stereo3d_type_name
libffmpeg.so:av_strcasecmp
libffmpeg.so:av_strdup
libffmpeg.so:av_stream_add_side_data
libffmpeg.so:av_stream_get_class
libffmpeg.so:av_stream_get_codec_timebase
libffmpeg.so:av_stream_get_first_dts
libffmpeg.so:av_stream_get_parser
libffmpeg.so:av_stream_get_side_data
libffmpeg.so:av_stream_group_get_class
libffmpeg.so:av_stream_new_side_data
libffmpeg.so:av_strerror
libffmpeg.so:av_strireplace
libffmpeg.so:av_stristart
libffmpeg.so:av_stristr
libffmpeg.so:av_strlcat
libffmpeg.so:av_strlcatf
libffmpeg.so:av_strlcpy
libffmpeg.so:av_strncasecmp
libffmpeg.so:av_strndup
libffmpeg.so:av_strnstr
libffmpeg.so:av_strstart
libffmpeg.so:av_strtod
libffmpeg.so:av_strtok
libffmpeg.so:av_sub_i
libffmpeg.so:av_sub_q
libffmpeg.so:av_tea_alloc
libffmpeg.so:av_tea_crypt
libffmpeg.so:av_tea_init
libffmpeg.so:av_tea_size
libffmpeg.so:av_thread_message_flush
libffmpeg.so:av_thread_message_queue_alloc
libffmpeg.so:av_thread_message_queue_free
libffmpeg.so:av_thread_message_queue_nb_elems
libffmpeg.so:av_thread_message_queue_recv
libffmpeg.so:av_thread_message_queue_send
libffmpeg.so:av_thread_message_queue_set_err_recv
libffmpeg.so:av_thread_message_queue_set_err_send
libffmpeg.so:av_thread_message_queue_set_free_func
libffmpeg.so:av_timecode_adjust_ntsc_framenum2
libffmpeg.so:av_timecode_check_frame_rate
libffmpeg.so:av_timecode_get_smpte
libffmpeg.so:av_timecode_get_smpte_from_framenum
libffmpeg.so:av_timecode_init
libffmpeg.so:av_timecode_init_from_components
libffmpeg.so:av_timecode_init_from_string
libffmpeg.so:av_timecode_make_mpeg_tc_string
libffmpeg.so:av_timecode_make_smpte_tc_string
libffmpeg.so:av_timecode_make_smpte_tc_string2
libffmpeg.so:av_timecode_make_string
libffmpeg.so:av_timegm
libffmpeg.so:av_ts_make_time_string2
libffmpeg.so:av_twofish_alloc
libffmpeg.so:av_twofish_crypt
libffmpeg.so:av_twofish_init
libffmpeg.so:av_twofish_size
libffmpeg.so:av_tx_init
libffmpeg.so:av_tx_uninit
libffmpeg.so:av_url_split
libffmpeg.so:av_usleep
libffmpeg.so:av_utf8_decode
libffmpeg.so:av_util_ffversion
libffmpeg.so:av_uuid_parse
libffmpeg.so:av_uuid_parse_range
libffmpeg.so:av_uuid_unparse
libffmpeg.so:av_uuid_urn_parse
libffmpeg.so:av_vbprintf
libffmpeg.so:av_version_info
libffmpeg.so:av_video_enc_params_alloc
libffmpeg.so:av_video_enc_params_create_side_data
libffmpeg.so:av_video_hint_alloc
libffmpeg.so:av_video_hint_create_side_data
libffmpeg.so:av_vk_frame_alloc
libffmpeg.so:av_vkfmt_from_pixfmt
libffmpeg.so:av_vorbis_parse_frame
libffmpeg.so:av_vorbis_parse_frame_flags
libffmpeg.so:av_vorbis_parse_free
libffmpeg.so:av_vorbis_parse_init
libffmpeg.so:av_vorbis_parse_reset
libffmpeg.so:av_write_frame
libffmpeg.so:av_write_image_line
libffmpeg.so:av_write_image_line2
libffmpeg.so:av_write_trailer
libffmpeg.so:av_write_uncoded_frame
libffmpeg.so:av_write_uncoded_frame_query
libffmpeg.so:av_xiphlacing
libffmpeg.so:avcodec_align_dimensions
libffmpeg.so:avcodec_align_dimensions2
libffmpeg.so:avcodec_alloc_context3
libffmpeg.so:avcodec_close
libffmpeg.so:avcodec_configuration
libffmpeg.so:avcodec_dct_alloc
libffmpeg.so:avcodec_dct_get_class
libffmpeg.so:avcodec_dct_init
libffmpeg.so:avcodec_decode_subtitle2
libffmpeg.so:avcodec_default_execute
libffmpeg.so:avcodec_default_execute2
libffmpeg.so:avcodec_default_get_buffer2
libffmpeg.so:avcodec_default_get_encode_buffer
libffmpeg.so:avcodec_default_get_format
libffmpeg.so:avcodec_descriptor_get
libffmpeg.so:avcodec_descriptor_get_by_name
libffmpeg.so:avcodec_descriptor_next
libffmpeg.so:avcodec_encode_subtitle
libffmpeg.so:avcodec_fill_audio_frame
libffmpeg.so:avcodec_find_best_pix_fmt_of_list
libffmpeg.so:avcodec_find_decoder
libffmpeg.so:avcodec_find_decoder_by_name
libffmpeg.so:avcodec_find_encoder
libffmpeg.so:avcodec_find_encoder_by_name
libffmpeg.so:avcodec_flush_buffers
libffmpeg.so:avcodec_free_context
libffmpeg.so:avcodec_get_class
libffmpeg.so:avcodec_get_hw_config
libffmpeg.so:avcodec_get_hw_frames_parameters
libffmpeg.so:avcodec_get_name
libffmpeg.so:avcodec_get_subtitle_rect_class
libffmpeg.so:avcodec_get_type
libffmpeg.so:avcodec_is_open
libffmpeg.so:avcodec_license
libffmpeg.so:avcodec_open2
libffmpeg.so:avcodec_parameters_alloc
libffmpeg.so:avcodec_parameters_copy
libffmpeg.so:avcodec_parameters_free
libffmpeg.so:avcodec_parameters_from_context
libffmpeg.so:avcodec_parameters_to_context
libffmpeg.so:avcodec_pix_fmt_to_codec_tag
libffmpeg.so:avcodec_profile_name
libffmpeg.so:avcodec_receive_frame
libffmpeg.so:avcodec_receive_packet
libffmpeg.so:avcodec_send_frame
libffmpeg.so:avcodec_send_packet
libffmpeg.so:avcodec_string
libffmpeg.so:avcodec_version
libffmpeg.so:avformat_alloc_context
libffmpeg.so:avformat_alloc_output_context2
libffmpeg.so:avformat_close_input
libffmpeg.so:avformat_configuration
libffmpeg.so:avformat_find_stream_info
libffmpeg.so:avformat_flush
libffmpeg.so:avformat_free_context
libffmpeg.so:avformat_get_class
libffmpeg.so:avformat_get_mov_audio_tags
libffmpeg.so:avformat_get_mov_video_tags
libffmpeg.so:avformat_get_riff_audio_tags
libffmpeg.so:avformat_get_riff_video_tags
libffmpeg.so:avformat_index_get_entries_count
libffmpeg.so:avformat_index_get_entry
libffmpeg.so:avformat_index_get_entry_from_timestamp
libffmpeg.so:avformat_init_output
libffmpeg.so:avformat_license
libffmpeg.so:avformat_match_stream_specifier
libffmpeg.so:avformat_network_deinit
libffmpeg.so:avformat_network_init
libffmpeg.so:avformat_new_stream
libffmpeg.so:avformat_open_input
libffmpeg.so:avformat_query_codec
libffmpeg.so:avformat_queue_attached_pictures
libffmpeg.so:avformat_seek_file
libffmpeg.so:avformat_stream_group_add_stream
libffmpeg.so:avformat_stream_group_create
libffmpeg.so:avformat_stream_group_name
libffmpeg.so:avformat_transfer_internal_stream_timing_info
libffmpeg.so:avformat_version
libffmpeg.so:avformat_write_header
libffmpeg.so:avio_accept
libffmpeg.so:avio_alloc_context
libffmpeg.so:avio_check
libffmpeg.so:avio_close
libffmpeg.so:avio_close_dir
libffmpeg.so:avio_close_dyn_buf
libffmpeg.so:avio_closep
libffmpeg.so:avio_context_free
libffmpeg.so:avio_enum_protocols
libffmpeg.so:avio_feof
libffmpeg.so:avio_find_protocol_name
libffmpeg.so:avio_flush
libffmpeg.so:avio_free_directory_entry
libffmpeg.so:avio_get_dyn_buf
libffmpeg.so:avio_get_str
libffmpeg.so:avio_get_str16be
libffmpeg.so:avio_get_str16le
libffmpeg.so:avio_handshake
libffmpeg.so:avio_open
libffmpeg.so:avio_open2
libffmpeg.so:avio_open_dir
libffmpeg.so:avio_open_dyn_buf
libffmpeg.so:avio_pause
libffmpeg.so:avio_print_string_array
libffmpeg.so:avio_printf
libffmpeg.so:avio_protocol_get_class
libffmpeg.so:avio_put_str
libffmpeg.so:avio_put_str16be
libffmpeg.so:avio_put_str16le
libffmpeg.so:avio_r8
libffmpeg.so:avio_rb16
libffmpeg.so:avio_rb24
libffmpeg.so:avio_rb32
libffmpeg.so:avio_rb64
libffmpeg.so:avio_read
libffmpeg.so:avio_read_dir
libffmpeg.so:avio_read_partial
libffmpeg.so:avio_read_to_bprint
libffmpeg.so:avio_rl16
libffmpeg.so:avio_rl24
libffmpeg.so:avio_rl32
libffmpeg.so:avio_rl64
libffmpeg.so:avio_seek
libffmpeg.so:avio_seek_time
libffmpeg.so:avio_size
libffmpeg.so:avio_skip
libffmpeg.so:avio_vprintf
libffmpeg.so:avio_w8
libffmpeg.so:avio_wb16
libffmpeg.so:avio_wb24
libffmpeg.so:avio_wb32
libffmpeg.so:avio_wb64
libffmpeg.so:avio_wl16
libffmpeg.so:avio_wl24
libffmpeg.so:avio_wl32
libffmpeg.so:avio_wl64
libffmpeg.so:avio_write
libffmpeg.so:avio_write_marker
libffmpeg.so:avpriv_ac3_parse_header
libffmpeg.so:avpriv_adts_header_parse
libffmpeg.so:avpriv_alloc_fixed_dsp
libffmpeg.so:avpriv_codec_get_cap_skip_frame_fill_param
libffmpeg.so:avpriv_dict_set_timestamp
libffmpeg.so:avpriv_dv_get_packet
libffmpeg.so:avpriv_dv_init_demux
libffmpeg.so:avpriv_dv_produce_packet
libffmpeg.so:avpriv_find_start_code
libffmpeg.so:avpriv_float_dsp_alloc
libffmpeg.so:avpriv_fopen_utf8
libffmpeg.so:avpriv_get_raw_pix_fmt_tags
libffmpeg.so:avpriv_h264_has_num_reorder_frames
libffmpeg.so:avpriv_mpeg4audio_get_config2
libffmpeg.so:avpriv_mpegaudio_decode_header
libffmpeg.so:avpriv_new_chapter
libffmpeg.so:avpriv_open
libffmpeg.so:avpriv_packet_list_free
libffmpeg.so:avpriv_packet_list_get
libffmpeg.so:avpriv_packet_list_put
libffmpeg.so:avpriv_pix_fmt_find
libffmpeg.so:avpriv_register_devices
libffmpeg.so:avpriv_scalarproduct_float_c
libffmpeg.so:avpriv_set_pts_info
libffmpeg.so:avpriv_set_systematic_pal2
libffmpeg.so:avpriv_slicethread_create
libffmpeg.so:avpriv_slicethread_execute
libffmpeg.so:avpriv_slicethread_free
libffmpeg.so:avpriv_split_xiph_headers
libffmpeg.so:avpriv_stream_set_need_parsing
libffmpeg.so:avpriv_tempfile
libffmpeg.so:avpriv_update_cur_dts
libffmpeg.so:avsubtitle_free
libffmpeg.so:avutil_configuration
libffmpeg.so:avutil_license
libffmpeg.so:avutil_version
libffmpeg.so:ff_aac_ac3_parse
libffmpeg.so:ff_aac_codebook_vector_idx
libffmpeg.so:ff_aac_codebook_vector_vals
libffmpeg.so:ff_aac_codebook_vectors
libffmpeg.so:ff_aac_decode_ics
libffmpeg.so:ff_aac_decode_init
libffmpeg.so:ff_aac_decode_init_float
libffmpeg.so:ff_aac_decoder
libffmpeg.so:ff_aac_demuxer
libffmpeg.so:ff_aac_eld_window_480
libffmpeg.so:ff_aac_eld_window_480_fixed
libffmpeg.so:ff_aac_eld_window_512
libffmpeg.so:ff_aac_eld_window_512_fixed
libffmpeg.so:ff_aac_float_common_init
libffmpeg.so:ff_aac_kbd_long_1024
libffmpeg.so:ff_aac_kbd_short_128
libffmpeg.so:ff_aac_num_swb_1024
libffmpeg.so:ff_aac_num_swb_120
libffmpeg.so:ff_aac_num_swb_128
libffmpeg.so:ff_aac_num_swb_480
libffmpeg.so:ff_aac_num_swb_512
libffmpeg.so:ff_aac_num_swb_960
libffmpeg.so:ff_aac_parser
libffmpeg.so:ff_aac_pow2sf_tab
libffmpeg.so:ff_aac_pow34sf_tab
libffmpeg.so:ff_aac_pred_sfb_max
libffmpeg.so:ff_aac_profiles
libffmpeg.so:ff_aac_scalefactor_bits
libffmpeg.so:ff_aac_scalefactor_code
libffmpeg.so:ff_aac_spectral_bits
libffmpeg.so:ff_aac_spectral_codes
libffmpeg.so:ff_aac_spectral_sizes
libffmpeg.so:ff_ac3_channel_layout_tab
libffmpeg.so:ff_ac3_find_syncword
libffmpeg.so:ff_add_attached_pic
libffmpeg.so:ff_add_index_entry
libffmpeg.so:ff_add_param_change
libffmpeg.so:ff_adts_header_parse
libffmpeg.so:ff_adts_header_parse_buf
libffmpeg.so:ff_alloc_a53_sei
libffmpeg.so:ff_alloc_dir_entry
libffmpeg.so:ff_alloc_extradata
libffmpeg.so:ff_alloc_packet
libffmpeg.so:ff_alloc_timecode_sei
libffmpeg.so:ff_ape_parse_tag
libffmpeg.so:ff_ape_write_tag
libffmpeg.so:ff_arib_caption_profiles
libffmpeg.so:ff_attach_decode_data
libffmpeg.so:ff_av1_profiles
libffmpeg.so:ff_avio_class
libffmpeg.so:ff_bprint_to_codecpar_extradata
libffmpeg.so:ff_bsf_child_class_iterate
libffmpeg.so:ff_bsf_get_packet
libffmpeg.so:ff_bsf_get_packet_ref
libffmpeg.so:ff_buffer_packet
libffmpeg.so:ff_cbrt_tab
libffmpeg.so:ff_cbrt_tableinit
libffmpeg.so:ff_check_interrupt
libffmpeg.so:ff_codec_bmp_tags
libffmpeg.so:ff_codec_bmp_tags_unofficial
libffmpeg.so:ff_codec_close
libffmpeg.so:ff_codec_get_id
libffmpeg.so:ff_codec_get_tag
libffmpeg.so:ff_codec_guid_get_id
libffmpeg.so:ff_codec_movaudio_tags
libffmpeg.so:ff_codec_movdata_tags
libffmpeg.so:ff_codec_movsubtitle_tags
libffmpeg.so:ff_codec_movvideo_tags
libffmpeg.so:ff_codec_wav_guids
libffmpeg.so:ff_codec_wav_tags
libffmpeg.so:ff_combine_frame
libffmpeg.so:ff_configure_buffers_for_index
libffmpeg.so:ff_copy_bits
libffmpeg.so:ff_copy_palette
libffmpeg.so:ff_copy_whiteblacklists
libffmpeg.so:ff_crc04C11DB7_update
libffmpeg.so:ff_crcA001_update
libffmpeg.so:ff_crcEDB88320_update
libffmpeg.so:ff_data_to_hex
libffmpeg.so:ff_dca_profiles
libffmpeg.so:ff_dct32_fixed
libffmpeg.so:ff_dct32_float
libffmpeg.so:ff_decode_content_light_new
libffmpeg.so:ff_decode_content_light_new_ext
libffmpeg.so:ff_decode_flush_buffers
libffmpeg.so:ff_decode_frame_props
libffmpeg.so:ff_decode_frame_props_from_pkt
libffmpeg.so:ff_decode_get_hw_frames_ctx
libffmpeg.so:ff_decode_get_packet
libffmpeg.so:ff_decode_internal_alloc
libffmpeg.so:ff_decode_mastering_display_new
libffmpeg.so:ff_decode_mastering_display_new_ext
libffmpeg.so:ff_decode_preinit
libffmpeg.so:ff_decode_receive_frame
libffmpeg.so:ff_dnxhd_profiles
libffmpeg.so:ff_dv_frame_profile
libffmpeg.so:ff_eac3_profiles
libffmpeg.so:ff_emulated_edge_mc_8
libffmpeg.so:ff_encode_add_cpb_side_data
libffmpeg.so:ff_encode_alloc_frame
libffmpeg.so:ff_encode_encode_cb
libffmpeg.so:ff_encode_flush_buffers
libffmpeg.so:ff_encode_get_frame
libffmpeg.so:ff_encode_internal_alloc
libffmpeg.so:ff_encode_preinit
libffmpeg.so:ff_encode_receive_frame
libffmpeg.so:ff_encode_reordered_opaque
libffmpeg.so:ff_evc_profiles
libffmpeg.so:ff_fetch_timestamp
libffmpeg.so:ff_find_decoder
libffmpeg.so:ff_find_last_ts
libffmpeg.so:ff_find_stream_index
libffmpeg.so:ff_fixed_dsp_init_x86
libffmpeg.so:ff_flac_blocksize_table
libffmpeg.so:ff_flac_codec
libffmpeg.so:ff_flac_decode_frame_header
libffmpeg.so:ff_flac_decoder
libffmpeg.so:ff_flac_demuxer
libffmpeg.so:ff_flac_is_extradata_valid
libffmpeg.so:ff_flac_parse_picture
libffmpeg.so:ff_flac_parse_streaminfo
libffmpeg.so:ff_flac_parser
libffmpeg.so:ff_flac_sample_rate_table
libffmpeg.so:ff_flac_set_channel_layout
libffmpeg.so:ff_flacdsp_init
libffmpeg.so:ff_flacdsp_init_x86
libffmpeg.so:ff_float_dsp_init_x86
libffmpeg.so:ff_flush_packet_queue
libffmpeg.so:ff_format_io_close
libffmpeg.so:ff_format_output_open
libffmpeg.so:ff_format_set_url
libffmpeg.so:ff_format_shift_data
libffmpeg.so:ff_frame_new_side_data
libffmpeg.so:ff_frame_new_side_data_from_buf
libffmpeg.so:ff_frame_new_side_data_from_buf_ext
libffmpeg.so:ff_frame_thread_free
libffmpeg.so:ff_frame_thread_init
libffmpeg.so:ff_free_stream
libffmpeg.so:ff_free_stream_group
libffmpeg.so:ff_gen_search
libffmpeg.so:ff_generate_avci_extradata
libffmpeg.so:ff_get_bmp_header
libffmpeg.so:ff_get_buffer
libffmpeg.so:ff_get_chomp_line
libffmpeg.so:ff_get_coded_side_data
libffmpeg.so:ff_get_cpu_flags_x86
libffmpeg.so:ff_get_cpu_max_align_x86
libffmpeg.so:ff_get_encode_buffer
libffmpeg.so:ff_get_extradata
libffmpeg.so:ff_get_format
libffmpeg.so:ff_get_formatted_ntp_time
libffmpeg.so:ff_get_guid
libffmpeg.so:ff_get_line
libffmpeg.so:ff_get_muxer_ts_offset
libffmpeg.so:ff_get_pcm_codec_id
libffmpeg.so:ff_get_qtpalette
libffmpeg.so:ff_get_wav_header
libffmpeg.so:ff_golomb_vlc_len
libffmpeg.so:ff_guess_coded_bitrate
libffmpeg.so:ff_guess_image2_codec
libffmpeg.so:ff_h2645_decode_common_vui_params
libffmpeg.so:ff_h2645_extract_rbsp
libffmpeg.so:ff_h2645_packet_split
libffmpeg.so:ff_h2645_packet_uninit
libffmpeg.so:ff_h2645_pixel_aspect
libffmpeg.so:ff_h2645_sei_ctx_replace
libffmpeg.so:ff_h2645_sei_message_decode
libffmpeg.so:ff_h2645_sei_reset
libffmpeg.so:ff_h2645_sei_to_context
libffmpeg.so:ff_h2645_sei_to_frame
libffmpeg.so:ff_h264_alloc_tables
libffmpeg.so:ff_h264_b_mb_type_info
libffmpeg.so:ff_h264_b_sub_mb_type_info
libffmpeg.so:ff_h264_build_ref_list
libffmpeg.so:ff_h264_cabac_tables
libffmpeg.so:ff_h264_check_intra4x4_pred_mode
libffmpeg.so:ff_h264_check_intra_pred_mode
libffmpeg.so:ff_h264_chroma422_dc_dequant_idct_10_c
libffmpeg.so:ff_h264_chroma422_dc_dequant_idct_12_c
libffmpeg.so:ff_h264_chroma422_dc_dequant_idct_14_c
libffmpeg.so:ff_h264_chroma422_dc_dequant_idct_8_c
libffmpeg.so:ff_h264_chroma422_dc_dequant_idct_9_c
libffmpeg.so:ff_h264_chroma422_dc_scan
libffmpeg.so:ff_h264_chroma_dc_dequant_idct_10_c
libffmpeg.so:ff_h264_chroma_dc_dequant_idct_12_c
libffmpeg.so:ff_h264_chroma_dc_dequant_idct_14_c
libffmpeg.so:ff_h264_chroma_dc_dequant_idct_8_c
libffmpeg.so:ff_h264_chroma_dc_dequant_idct_9_c
libffmpeg.so:ff_h264_chroma_dc_scan
libffmpeg.so:ff_h264_chroma_qp
libffmpeg.so:ff_h264_decode_extradata
libffmpeg.so:ff_h264_decode_init_vlc
libffmpeg.so:ff_h264_decode_mb_cabac
libffmpeg.so:ff_h264_decode_mb_cavlc
libffmpeg.so:ff_h264_decode_picture_parameter_set
libffmpeg.so:ff_h264_decode_ref_pic_list_reordering
libffmpeg.so:ff_h264_decode_ref_pic_marking
libffmpeg.so:ff_h264_decode_seq_parameter_set
libffmpeg.so:ff_h264_decoder
libffmpeg.so:ff_h264_dequant4_coeff_init
libffmpeg.so:ff_h264_dequant8_coeff_init
libffmpeg.so:ff_h264_dequant8_coeff_init_scan
libffmpeg.so:ff_h264_direct_dist_scale_factor
libffmpeg.so:ff_h264_direct_ref_list_init
libffmpeg.so:ff_h264_draw_horiz_band
libffmpeg.so:ff_h264_execute_decode_slices
libffmpeg.so:ff_h264_execute_ref_pic_marking
libffmpeg.so:ff_h264_field_end
libffmpeg.so:ff_h264_filter_mb
libffmpeg.so:ff_h264_filter_mb_fast
libffmpeg.so:ff_h264_flush_change
libffmpeg.so:ff_h264_free_tables
libffmpeg.so:ff_h264_get_profile
libffmpeg.so:ff_h264_get_slice_type
libffmpeg.so:ff_h264_golomb_to_inter_cbp
libffmpeg.so:ff_h264_golomb_to_intra4x4_cbp
libffmpeg.so:ff_h264_golomb_to_pict_type
libffmpeg.so:ff_h264_hl_decode_mb
libffmpeg.so:ff_h264_i_mb_type_info
libffmpeg.so:ff_h264_idct8_add4_10_c
libffmpeg.so:ff_h264_idct8_add4_12_c
libffmpeg.so:ff_h264_idct8_add4_14_c
libffmpeg.so:ff_h264_idct8_add4_8_c
libffmpeg.so:ff_h264_idct8_add4_9_c
libffmpeg.so:ff_h264_idct8_add_10_c
libffmpeg.so:ff_h264_idct8_add_12_c
libffmpeg.so:ff_h264_idct8_add_14_c
libffmpeg.so:ff_h264_idct8_add_8_c
libffmpeg.so:ff_h264_idct8_add_9_c
libffmpeg.so:ff_h264_idct8_dc_add_10_c
libffmpeg.so:ff_h264_idct8_dc_add_12_c
libffmpeg.so:ff_h264_idct8_dc_add_14_c
libffmpeg.so:ff_h264_idct8_dc_add_8_c
libffmpeg.so:ff_h264_idct8_dc_add_9_c
libffmpeg.so:ff_h264_idct_add16_10_c
libffmpeg.so:ff_h264_idct_add16_12_c
libffmpeg.so:ff_h264_idct_add16_14_c
libffmpeg.so:ff_h264_idct_add16_8_c
libffmpeg.so:ff_h264_idct_add16_9_c
libffmpeg.so:ff_h264_idct_add16intra_10_c
libffmpeg.so:ff_h264_idct_add16intra_12_c
libffmpeg.so:ff_h264_idct_add16intra_14_c
libffmpeg.so:ff_h264_idct_add16intra_8_c
libffmpeg.so:ff_h264_idct_add16intra_9_c
libffmpeg.so:ff_h264_idct_add8_10_c
libffmpeg.so:ff_h264_idct_add8_12_c
libffmpeg.so:ff_h264_idct_add8_14_c
libffmpeg.so:ff_h264_idct_add8_422_10_c
libffmpeg.so:ff_h264_idct_add8_422_12_c
libffmpeg.so:ff_h264_idct_add8_422_14_c
libffmpeg.so:ff_h264_idct_add8_422_8_c
libffmpeg.so:ff_h264_idct_add8_422_9_c
libffmpeg.so:ff_h264_idct_add8_8_c
libffmpeg.so:ff_h264_idct_add8_9_c
libffmpeg.so:ff_h264_idct_add_10_c
libffmpeg.so:ff_h264_idct_add_12_c
libffmpeg.so:ff_h264_idct_add_14_c
libffmpeg.so:ff_h264_idct_add_8_c
libffmpeg.so:ff_h264_idct_add_9_c
libffmpeg.so:ff_h264_idct_dc_add_10_c
libffmpeg.so:ff_h264_idct_dc_add_12_c
libffmpeg.so:ff_h264_idct_dc_add_14_c
libffmpeg.so:ff_h264_idct_dc_add_8_c
libffmpeg.so:ff_h264_idct_dc_add_9_c
libffmpeg.so:ff_h264_init_cabac_states
libffmpeg.so:ff_h264_init_poc
libffmpeg.so:ff_h264_luma_dc_dequant_idct_10_c
libffmpeg.so:ff_h264_luma_dc_dequant_idct_12_c
libffmpeg.so:ff_h264_luma_dc_dequant_idct_14_c
libffmpeg.so:ff_h264_luma_dc_dequant_idct_8_c
libffmpeg.so:ff_h264_luma_dc_dequant_idct_9_c
libffmpeg.so:ff_h264_mb_sizes
libffmpeg.so:ff_h264_p_mb_type_info
libffmpeg.so:ff_h264_p_sub_mb_type_info
libffmpeg.so:ff_h264_parse_ref_count
libffmpeg.so:ff_h264_parser
libffmpeg.so:ff_h264_pred_direct_motion
libffmpeg.so:ff_h264_pred_init
libffmpeg.so:ff_h264_pred_init_x86
libffmpeg.so:ff_h264_pred_weight_table
libffmpeg.so:ff_h264_profiles
libffmpeg.so:ff_h264_ps_uninit
libffmpeg.so:ff_h264_quant_div6
libffmpeg.so:ff_h264_quant_rem6
libffmpeg.so:ff_h264_queue_decode_slice
libffmpeg.so:ff_h264_ref_picture
libffmpeg.so:ff_h264_remove_all_refs
libffmpeg.so:ff_h264_replace_picture
libffmpeg.so:ff_h264_sei_decode
libffmpeg.so:ff_h264_sei_process_picture_timing
libffmpeg.so:ff_h264_sei_stereo_mode
libffmpeg.so:ff_h264_sei_uninit
libffmpeg.so:ff_h264_set_erpic
libffmpeg.so:ff_h264_slice_context_init
libffmpeg.so:ff_h264_unref_picture
libffmpeg.so:ff_h264_update_thread_context
libffmpeg.so:ff_h264_update_thread_context_for_user
libffmpeg.so:ff_h264chroma_init
libffmpeg.so:ff_h264chroma_init_x86
libffmpeg.so:ff_h264dsp_init
libffmpeg.so:ff_h264dsp_init_x86
libffmpeg.so:ff_h264qpel_init
libffmpeg.so:ff_h264qpel_init_x86
libffmpeg.so:ff_h274_apply_film_grain
libffmpeg.so:ff_hevc_profiles
libffmpeg.so:ff_hex_to_data
libffmpeg.so:ff_hwaccel_frame_priv_alloc
libffmpeg.so:ff_hwaccel_uninit
libffmpeg.so:ff_hwframe_map_create
libffmpeg.so:ff_hwframe_map_replace
libffmpeg.so:ff_id3v1_genre_str
libffmpeg.so:ff_id3v1_read
libffmpeg.so:ff_id3v2_34_metadata_conv
libffmpeg.so:ff_id3v2_3_tags
libffmpeg.so:ff_id3v2_4_metadata_conv
libffmpeg.so:ff_id3v2_4_tags
libffmpeg.so:ff_id3v2_free_extra_meta
libffmpeg.so:ff_id3v2_match
libffmpeg.so:ff_id3v2_mime_tags
libffmpeg.so:ff_id3v2_parse_apic
libffmpeg.so:ff_id3v2_parse_chapters
libffmpeg.so:ff_id3v2_parse_priv
libffmpeg.so:ff_id3v2_parse_priv_dict
libffmpeg.so:ff_id3v2_picture_types
libffmpeg.so:ff_id3v2_read
libffmpeg.so:ff_id3v2_read_dict
libffmpeg.so:ff_id3v2_tag_len
libffmpeg.so:ff_id3v2_tags
libffmpeg.so:ff_image_copy_plane_uc_from_x86
libffmpeg.so:ff_img_tags
libffmpeg.so:ff_index_search_timestamp
libffmpeg.so:ff_init_cabac_decoder
libffmpeg.so:ff_init_ff_sine_windows
libffmpeg.so:ff_init_lls_x86
libffmpeg.so:ff_interleave_add_packet
libffmpeg.so:ff_interleave_packet_passthrough
libffmpeg.so:ff_interleave_packet_per_dts
libffmpeg.so:ff_interleaved_dirac_golomb_vlc_code
libffmpeg.so:ff_interleaved_golomb_vlc_len
libffmpeg.so:ff_interleaved_peek
libffmpeg.so:ff_interleaved_se_golomb_vlc_code
libffmpeg.so:ff_interleaved_ue_golomb_vlc_code
libffmpeg.so:ff_inverse
libffmpeg.so:ff_is_http_proto
libffmpeg.so:ff_is_intra_only
libffmpeg.so:ff_isom_parse_dvcc_dvvc
libffmpeg.so:ff_isom_put_dvcc_dvvc
libffmpeg.so:ff_jpeg2000_profiles
libffmpeg.so:ff_k_to_i_20
libffmpeg.so:ff_k_to_i_34
libffmpeg.so:ff_kbd_window_init
libffmpeg.so:ff_kbd_window_init_fixed
libffmpeg.so:ff_libopus_decoder
libffmpeg.so:ff_log2_run
libffmpeg.so:ff_log2_tab
libffmpeg.so:ff_ltp_coef
libffmpeg.so:ff_make_absolute_url
libffmpeg.so:ff_make_absolute_url2
libffmpeg.so:ff_match_2uint16
libffmpeg.so:ff_match_url_ext
libffmpeg.so:ff_matroska_demuxer
libffmpeg.so:ff_matroska_video_stereo_mode
libffmpeg.so:ff_metadata_conv
libffmpeg.so:ff_metadata_conv_ctx
libffmpeg.so:ff_mjpeg_profiles
libffmpeg.so:ff_mkdir_p
libffmpeg.so:ff_mkv_codec_tags
libffmpeg.so:ff_mkv_metadata_conv
libffmpeg.so:ff_mov_demuxer
libffmpeg.so:ff_mov_get_channel_config_from_layout
libffmpeg.so:ff_mov_get_channel_layout_from_config
libffmpeg.so:ff_mov_get_channel_layout_tag
libffmpeg.so:ff_mov_get_channel_positions_from_layout
libffmpeg.so:ff_mov_iso639_to_lang
libffmpeg.so:ff_mov_lang_to_iso639
libffmpeg.so:ff_mov_read_chan
libffmpeg.so:ff_mov_read_chnl
libffmpeg.so:ff_mov_read_esds
libffmpeg.so:ff_mov_read_stsd_entries
libffmpeg.so:ff_mov_track_kind_table
libffmpeg.so:ff_mov_write_chan
libffmpeg.so:ff_mp3_decoder
libffmpeg.so:ff_mp3_demuxer
libffmpeg.so:ff_mp4_obj_type
libffmpeg.so:ff_mp4_parse_es_descr
libffmpeg.so:ff_mp4_read_dec_config_descr
libffmpeg.so:ff_mp4_read_descr
libffmpeg.so:ff_mp4_read_descr_len
libffmpeg.so:ff_mpa_decode_header
libffmpeg.so:ff_mpa_l2_select_table
libffmpeg.so:ff_mpeg12_find_best_frame_rate
libffmpeg.so:ff_mpeg12_frame_rate_tab
libffmpeg.so:ff_mpeg2_video_profiles
libffmpeg.so:ff_mpeg4_video_profiles
libffmpeg.so:ff_mpeg4audio_channels
libffmpeg.so:ff_mpeg4audio_get_config_gb
libffmpeg.so:ff_mpeg4audio_sample_rates
libffmpeg.so:ff_mpegaudio_parser
libffmpeg.so:ff_ntp_time
libffmpeg.so:ff_ogg_demuxer
libffmpeg.so:ff_ogm_audio_codec
libffmpeg.so:ff_ogm_old_codec
libffmpeg.so:ff_ogm_text_codec
libffmpeg.so:ff_ogm_video_codec
libffmpeg.so:ff_old_flac_codec
libffmpeg.so:ff_opus_codec
libffmpeg.so:ff_opus_error_to_averror
libffmpeg.so:ff_opus_parse_extradata
libffmpeg.so:ff_opus_parse_packet
libffmpeg.so:ff_opus_parser
libffmpeg.so:ff_parse_a53_cc
libffmpeg.so:ff_parse_close
libffmpeg.so:ff_parse_creation_time_metadata
libffmpeg.so:ff_parse_key_value
libffmpeg.so:ff_parse_ntp_time
libffmpeg.so:ff_pb_0
libffmpeg.so:ff_pb_1
libffmpeg.so:ff_pb_15
libffmpeg.so:ff_pb_2
libffmpeg.so:ff_pb_3
libffmpeg.so:ff_pb_80
libffmpeg.so:ff_pb_FC
libffmpeg.so:ff_pb_FE
libffmpeg.so:ff_pcm_alaw_decoder
libffmpeg.so:ff_pcm_default_packet_size
libffmpeg.so:ff_pcm_f32le_decoder
libffmpeg.so:ff_pcm_mulaw_decoder
libffmpeg.so:ff_pcm_read_packet
libffmpeg.so:ff_pcm_read_seek
libffmpeg.so:ff_pcm_s16be_decoder
libffmpeg.so:ff_pcm_s16le_decoder
libffmpeg.so:ff_pcm_s24be_decoder
libffmpeg.so:ff_pcm_s24le_decoder
libffmpeg.so:ff_pcm_s32le_decoder
libffmpeg.so:ff_pcm_u8_decoder
libffmpeg.so:ff_pd_1
libffmpeg.so:ff_pd_16
libffmpeg.so:ff_pd_32
libffmpeg.so:ff_pd_65535
libffmpeg.so:ff_pd_8192
libffmpeg.so:ff_progress_frame_await
libffmpeg.so:ff_progress_frame_get_buffer
libffmpeg.so:ff_progress_frame_ref
libffmpeg.so:ff_progress_frame_replace
libffmpeg.so:ff_progress_frame_report
libffmpeg.so:ff_progress_frame_unref
libffmpeg.so:ff_prores_profiles
libffmpeg.so:ff_ps_apply
libffmpeg.so:ff_ps_init
libffmpeg.so:ff_ps_init_common
libffmpeg.so:ff_ps_neg
libffmpeg.so:ff_ps_read_data
libffmpeg.so:ff_psdsp_init
libffmpeg.so:ff_psdsp_init_x86
libffmpeg.so:ff_pthread_free
libffmpeg.so:ff_pthread_init
libffmpeg.so:ff_put_string
libffmpeg.so:ff_pw_1
libffmpeg.so:ff_pw_1019
libffmpeg.so:ff_pw_1023
libffmpeg.so:ff_pw_1024
libffmpeg.so:ff_pw_128
libffmpeg.so:ff_pw_15
libffmpeg.so:ff_pw_16
libffmpeg.so:ff_pw_18
libffmpeg.so:ff_pw_2
libffmpeg.so:ff_pw_20
libffmpeg.so:ff_pw_2048
libffmpeg.so:ff_pw_255
libffmpeg.so:ff_pw_256
libffmpeg.so:ff_pw_3
libffmpeg.so:ff_pw_32
libffmpeg.so:ff_pw_4
libffmpeg.so:ff_pw_4095
libffmpeg.so:ff_pw_4096
libffmpeg.so:ff_pw_42
libffmpeg.so:ff_pw_5
libffmpeg.so:ff_pw_512
libffmpeg.so:ff_pw_53
libffmpeg.so:ff_pw_64
libffmpeg.so:ff_pw_8
libffmpeg.so:ff_pw_8192
libffmpeg.so:ff_pw_9
libffmpeg.so:ff_pw_96
libffmpeg.so:ff_pw_m1
libffmpeg.so:ff_raw_audio_read_header
libffmpeg.so:ff_raw_demuxer_class
libffmpeg.so:ff_raw_read_partial_packet
libffmpeg.so:ff_raw_subtitle_read_header
libffmpeg.so:ff_raw_video_read_header
libffmpeg.so:ff_rawvideo_demuxer_class
libffmpeg.so:ff_read_frame_flush
libffmpeg.so:ff_read_line_to_bprint_overwrite
libffmpeg.so:ff_read_packet
libffmpeg.so:ff_read_riff_info
libffmpeg.so:ff_read_string_to_bprint_overwrite
libffmpeg.so:ff_reduce_index
libffmpeg.so:ff_refstruct_alloc_ext_c
libffmpeg.so:ff_refstruct_exclusive
libffmpeg.so:ff_refstruct_pool_alloc
libffmpeg.so:ff_refstruct_pool_alloc_ext_c
libffmpeg.so:ff_refstruct_pool_get
libffmpeg.so:ff_refstruct_ref
libffmpeg.so:ff_refstruct_ref_c
libffmpeg.so:ff_refstruct_replace
libffmpeg.so:ff_refstruct_unref
libffmpeg.so:ff_reget_buffer
libffmpeg.so:ff_remove_stream
libffmpeg.so:ff_remove_stream_group
libffmpeg.so:ff_rename
libffmpeg.so:ff_replaygain_export
libffmpeg.so:ff_replaygain_export_raw
libffmpeg.so:ff_rescale_interval
libffmpeg.so:ff_reverse
libffmpeg.so:ff_rfps_add_frame
libffmpeg.so:ff_rfps_calculate
libffmpeg.so:ff_riff_info_conv
libffmpeg.so:ff_rm_reorder_sipr_data
libffmpeg.so:ff_sbc_profiles
libffmpeg.so:ff_sbrdsp_init
libffmpeg.so:ff_sbrdsp_init_x86
libffmpeg.so:ff_sd_global_map
libffmpeg.so:ff_se_golomb_vlc_code
libffmpeg.so:ff_seek_frame_binary
libffmpeg.so:ff_set_dimensions
libffmpeg.so:ff_set_sar
libffmpeg.so:ff_side_data_set_encoder_stats
libffmpeg.so:ff_side_data_set_prft
libffmpeg.so:ff_side_data_update_matrix_encoding
libffmpeg.so:ff_sine_1024
libffmpeg.so:ff_sine_128
libffmpeg.so:ff_sine_2048
libffmpeg.so:ff_sine_256
libffmpeg.so:ff_sine_32
libffmpeg.so:ff_sine_4096
libffmpeg.so:ff_sine_512
libffmpeg.so:ff_sine_64
libffmpeg.so:ff_sine_8192
libffmpeg.so:ff_sine_window_init
libffmpeg.so:ff_sine_windows
libffmpeg.so:ff_sipr_subpk_size
libffmpeg.so:ff_skeleton_codec
libffmpeg.so:ff_slice_thread_allocz_entries
libffmpeg.so:ff_slice_thread_execute_with_mainfunc
libffmpeg.so:ff_slice_thread_free
libffmpeg.so:ff_slice_thread_init
libffmpeg.so:ff_slice_thread_init_progress
libffmpeg.so:ff_sqrt_tab
libffmpeg.so:ff_standardize_creation_time
libffmpeg.so:ff_startcode_find_candidate_c
libffmpeg.so:ff_stream_add_bitstream_filter
libffmpeg.so:ff_stream_clone
libffmpeg.so:ff_swb_offset_1024
libffmpeg.so:ff_swb_offset_120
libffmpeg.so:ff_swb_offset_128
libffmpeg.so:ff_swb_offset_480
libffmpeg.so:ff_swb_offset_512
libffmpeg.so:ff_swb_offset_960
libffmpeg.so:ff_theora_codec
libffmpeg.so:ff_thread_await_progress
libffmpeg.so:ff_thread_await_progress2
libffmpeg.so:ff_thread_can_start_frame
libffmpeg.so:ff_thread_decode_frame
libffmpeg.so:ff_thread_finish_setup
libffmpeg.so:ff_thread_flush
libffmpeg.so:ff_thread_free
libffmpeg.so:ff_thread_get_buffer
libffmpeg.so:ff_thread_get_ext_buffer
libffmpeg.so:ff_thread_init
libffmpeg.so:ff_thread_progress_await
libffmpeg.so:ff_thread_progress_destroy
libffmpeg.so:ff_thread_progress_init
libffmpeg.so:ff_thread_progress_report
libffmpeg.so:ff_thread_ref_frame
libffmpeg.so:ff_thread_release_ext_buffer
libffmpeg.so:ff_thread_replace_frame
libffmpeg.so:ff_thread_report_progress
libffmpeg.so:ff_thread_report_progress2
libffmpeg.so:ff_thread_sync_ref
libffmpeg.so:ff_tns_max_bands_1024
libffmpeg.so:ff_tns_max_bands_128
libffmpeg.so:ff_tns_max_bands_480
libffmpeg.so:ff_tns_max_bands_512
libffmpeg.so:ff_tns_tmp2_map
libffmpeg.so:ff_toupper4
libffmpeg.so:ff_truehd_profiles
libffmpeg.so:ff_tx_clear_ctx
libffmpeg.so:ff_tx_codelet_list_float_c
libffmpeg.so:ff_tx_codelet_list_float_x86
libffmpeg.so:ff_tx_decompose_length
libffmpeg.so:ff_tx_gen_compound_mapping
libffmpeg.so:ff_tx_gen_default_map
libffmpeg.so:ff_tx_gen_inplace_map
libffmpeg.so:ff_tx_gen_pfa_input_map
libffmpeg.so:ff_tx_gen_ptwo_revtab
libffmpeg.so:ff_tx_gen_split_radix_parity_revtab
libffmpeg.so:ff_tx_init_subtx
libffmpeg.so:ff_tx_init_tabs_float
libffmpeg.so:ff_tx_mdct_gen_exp_float
libffmpeg.so:ff_tx_tab_1024_float
libffmpeg.so:ff_tx_tab_128_float
libffmpeg.so:ff_tx_tab_131072_float
libffmpeg.so:ff_tx_tab_16384_float
libffmpeg.so:ff_tx_tab_16_float
libffmpeg.so:ff_tx_tab_2048_float
libffmpeg.so:ff_tx_tab_256_float
libffmpeg.so:ff_tx_tab_32768_float
libffmpeg.so:ff_tx_tab_32_float
libffmpeg.so:ff_tx_tab_4096_float
libffmpeg.so:ff_tx_tab_512_float
libffmpeg.so:ff_tx_tab_53_float
libffmpeg.so:ff_tx_tab_64_float
libffmpeg.so:ff_tx_tab_65536_float
libffmpeg.so:ff_tx_tab_7_float
libffmpeg.so:ff_tx_tab_8192_float
libffmpeg.so:ff_tx_tab_8_float
libffmpeg.so:ff_tx_tab_9_float
libffmpeg.so:ff_ue_golomb_len
libffmpeg.so:ff_ue_golomb_vlc_code
libffmpeg.so:ff_url_decompose
libffmpeg.so:ff_url_join
libffmpeg.so:ff_urlcontext_child_class_iterate
libffmpeg.so:ff_vc1_profiles
libffmpeg.so:ff_videodsp_init
libffmpeg.so:ff_videodsp_init_x86
libffmpeg.so:ff_vlc_free
libffmpeg.so:ff_vlc_free_multi
libffmpeg.so:ff_vlc_init_from_lengths
libffmpeg.so:ff_vlc_init_multi_from_lengths
libffmpeg.so:ff_vlc_init_sparse
libffmpeg.so:ff_vlc_init_table_from_lengths
libffmpeg.so:ff_vlc_init_table_sparse
libffmpeg.so:ff_vlc_init_tables_from_lengths
libffmpeg.so:ff_vlc_init_tables_sparse
libffmpeg.so:ff_vorbis_codec
libffmpeg.so:ff_vorbis_comment
libffmpeg.so:ff_vorbis_decoder
libffmpeg.so:ff_vorbis_floor1_render_list
libffmpeg.so:ff_vorbis_len2vlc
libffmpeg.so:ff_vorbis_nth_root
libffmpeg.so:ff_vorbis_parser
libffmpeg.so:ff_vorbis_ready_floor1_list
libffmpeg.so:ff_vorbis_stream_comment
libffmpeg.so:ff_vorbiscomment_length
libffmpeg.so:ff_vorbiscomment_metadata_conv
libffmpeg.so:ff_vorbiscomment_write
libffmpeg.so:ff_vorbisdsp_init
libffmpeg.so:ff_vorbisdsp_init_x86
libffmpeg.so:ff_vp8_codec
libffmpeg.so:ff_vp9_parser
libffmpeg.so:ff_vp9_profiles
libffmpeg.so:ff_vvc_profiles
libffmpeg.so:ff_wav_codec_get_id
libffmpeg.so:ff_wav_codec_tags_list
libffmpeg.so:ff_wav_demuxer
libffmpeg.so:ff_webm_codec_tags
libffmpeg.so:ff_wrap_timestamp
libffmpeg.so:ff_write_chained
libffmpeg.so:ff_zigzag_direct
libffmpeg.so:ff_zigzag_scan
libffmpeg.so:ffio_close_null_buf
libffmpeg.so:ffio_copy_url_options
libffmpeg.so:ffio_ensure_seekback
libffmpeg.so:ffio_fdopen
libffmpeg.so:ffio_fill
libffmpeg.so:ffio_free_dyn_buf
libffmpeg.so:ffio_get_checksum
libffmpeg.so:ffio_geturlcontext
libffmpeg.so:ffio_init_checksum
libffmpeg.so:ffio_init_context
libffmpeg.so:ffio_init_read_context
libffmpeg.so:ffio_init_write_context
libffmpeg.so:ffio_limit
libffmpeg.so:ffio_open_dyn_packet_buf
libffmpeg.so:ffio_open_null_buf
libffmpeg.so:ffio_open_whitelist
libffmpeg.so:ffio_read_indirect
libffmpeg.so:ffio_read_leb
libffmpeg.so:ffio_read_size
libffmpeg.so:ffio_read_varlen
libffmpeg.so:ffio_realloc_buf
libffmpeg.so:ffio_reset_dyn_buf
libffmpeg.so:ffio_rewind_with_probe_data
libffmpeg.so:ffio_write_leb
libffmpeg.so:ffio_write_lines
libffmpeg.so:ffurl_accept
libffmpeg.so:ffurl_alloc
libffmpeg.so:ffurl_close
libffmpeg.so:ffurl_closep
libffmpeg.so:ffurl_connect
libffmpeg.so:ffurl_delete
libffmpeg.so:ffurl_get_file_handle
libffmpeg.so:ffurl_get_multi_file_handle
libffmpeg.so:ffurl_get_protocols
libffmpeg.so:ffurl_get_short_seek
libffmpeg.so:ffurl_handshake
libffmpeg.so:ffurl_move
libffmpeg.so:ffurl_open_whitelist
libffmpeg.so:ffurl_read2
libffmpeg.so:ffurl_read_complete
libffmpeg.so:ffurl_seek2
libffmpeg.so:ffurl_shutdown
libffmpeg.so:ffurl_size
libffmpeg.so:ffurl_write2
libtalpid_openvpn_plugin.so:openvpn_plugin_close_v1
libtalpid_openvpn_plugin.so:openvpn_plugin_func_v3
libtalpid_openvpn_plugin.so:openvpn_plugin_open_v3
libvk_swiftshader.so:vkGetInstanceProcAddr
libvk_swiftshader.so:vk_icdGetInstanceProcAddr
libvk_swiftshader.so:vk_icdGetPhysicalDeviceProcAddr
libvk_swiftshader.so:vk_icdNegotiateLoaderICDInterfaceVersion
libvulkan.so.1:vkAcquireNextImage2KHR
libvulkan.so.1:vkAcquireNextImageKHR
libvulkan.so.1:vkAllocateCommandBuffers
libvulkan.so.1:vkAllocateDescriptorSets
libvulkan.so.1:vkAllocateMemory
libvulkan.so.1:vkBeginCommandBuffer
libvulkan.so.1:vkBindBufferMemory
libvulkan.so.1:vkBindBufferMemory2
libvulkan.so.1:vkBindImageMemory
libvulkan.so.1:vkBindImageMemory2
libvulkan.so.1:vkCmdBeginQuery
libvulkan.so.1:vkCmdBeginRenderPass
libvulkan.so.1:vkCmdBeginRenderPass2
libvulkan.so.1:vkCmdBeginRendering
libvulkan.so.1:vkCmdBindDescriptorSets
libvulkan.so.1:vkCmdBindIndexBuffer
libvulkan.so.1:vkCmdBindPipeline
libvulkan.so.1:vkCmdBindVertexBuffers
libvulkan.so.1:vkCmdBindVertexBuffers2
libvulkan.so.1:vkCmdBlitImage
libvulkan.so.1:vkCmdBlitImage2
libvulkan.so.1:vkCmdClearAttachments
libvulkan.so.1:vkCmdClearColorImage
libvulkan.so.1:vkCmdClearDepthStencilImage
libvulkan.so.1:vkCmdCopyBuffer
libvulkan.so.1:vkCmdCopyBuffer2
libvulkan.so.1:vkCmdCopyBufferToImage
libvulkan.so.1:vkCmdCopyBufferToImage2
libvulkan.so.1:vkCmdCopyImage
libvulkan.so.1:vkCmdCopyImage2
libvulkan.so.1:vkCmdCopyImageToBuffer
libvulkan.so.1:vkCmdCopyImageToBuffer2
libvulkan.so.1:vkCmdCopyQueryPoolResults
libvulkan.so.1:vkCmdDispatch
libvulkan.so.1:vkCmdDispatchBase
libvulkan.so.1:vkCmdDispatchIndirect
libvulkan.so.1:vkCmdDraw
libvulkan.so.1:vkCmdDrawIndexed
libvulkan.so.1:vkCmdDrawIndexedIndirect
libvulkan.so.1:vkCmdDrawIndexedIndirectCount
libvulkan.so.1:vkCmdDrawIndirect
libvulkan.so.1:vkCmdDrawIndirectCount
libvulkan.so.1:vkCmdEndQuery
libvulkan.so.1:vkCmdEndRenderPass
libvulkan.so.1:vkCmdEndRenderPass2
libvulkan.so.1:vkCmdEndRendering
libvulkan.so.1:vkCmdExecuteCommands
libvulkan.so.1:vkCmdFillBuffer
libvulkan.so.1:vkCmdNextSubpass
libvulkan.so.1:vkCmdNextSubpass2
libvulkan.so.1:vkCmdPipelineBarrier
libvulkan.so.1:vkCmdPipelineBarrier2
libvulkan.so.1:vkCmdPushConstants
libvulkan.so.1:vkCmdResetEvent
libvulkan.so.1:vkCmdResetEvent2
libvulkan.so.1:vkCmdResetQueryPool
libvulkan.so.1:vkCmdResolveImage
libvulkan.so.1:vkCmdResolveImage2
libvulkan.so.1:vkCmdSetBlendConstants
libvulkan.so.1:vkCmdSetCullMode
libvulkan.so.1:vkCmdSetDepthBias
libvulkan.so.1:vkCmdSetDepthBiasEnable
libvulkan.so.1:vkCmdSetDepthBounds
libvulkan.so.1:vkCmdSetDepthBoundsTestEnable
libvulkan.so.1:vkCmdSetDepthCompareOp
libvulkan.so.1:vkCmdSetDepthTestEnable
libvulkan.so.1:vkCmdSetDepthWriteEnable
libvulkan.so.1:vkCmdSetDeviceMask
libvulkan.so.1:vkCmdSetEvent
libvulkan.so.1:vkCmdSetEvent2
libvulkan.so.1:vkCmdSetFrontFace
libvulkan.so.1:vkCmdSetLineWidth
libvulkan.so.1:vkCmdSetPrimitiveRestartEnable
libvulkan.so.1:vkCmdSetPrimitiveTopology
libvulkan.so.1:vkCmdSetRasterizerDiscardEnable
libvulkan.so.1:vkCmdSetScissor
libvulkan.so.1:vkCmdSetScissorWithCount
libvulkan.so.1:vkCmdSetStencilCompareMask
libvulkan.so.1:vkCmdSetStencilOp
libvulkan.so.1:vkCmdSetStencilReference
libvulkan.so.1:vkCmdSetStencilTestEnable
libvulkan.so.1:vkCmdSetStencilWriteMask
libvulkan.so.1:vkCmdSetViewport
libvulkan.so.1:vkCmdSetViewportWithCount
libvulkan.so.1:vkCmdUpdateBuffer
libvulkan.so.1:vkCmdWaitEvents
libvulkan.so.1:vkCmdWaitEvents2
libvulkan.so.1:vkCmdWriteTimestamp
libvulkan.so.1:vkCmdWriteTimestamp2
libvulkan.so.1:vkCreateBuffer
libvulkan.so.1:vkCreateBufferView
libvulkan.so.1:vkCreateCommandPool
libvulkan.so.1:vkCreateComputePipelines
libvulkan.so.1:vkCreateDescriptorPool
libvulkan.so.1:vkCreateDescriptorSetLayout
libvulkan.so.1:vkCreateDescriptorUpdateTemplate
libvulkan.so.1:vkCreateDevice
libvulkan.so.1:vkCreateDisplayModeKHR
libvulkan.so.1:vkCreateDisplayPlaneSurfaceKHR
libvulkan.so.1:vkCreateEvent
libvulkan.so.1:vkCreateFence
libvulkan.so.1:vkCreateFramebuffer
libvulkan.so.1:vkCreateGraphicsPipelines
libvulkan.so.1:vkCreateHeadlessSurfaceEXT
libvulkan.so.1:vkCreateImage
libvulkan.so.1:vkCreateImageView
libvulkan.so.1:vkCreateInstance
libvulkan.so.1:vkCreatePipelineCache
libvulkan.so.1:vkCreatePipelineLayout
libvulkan.so.1:vkCreatePrivateDataSlot
libvulkan.so.1:vkCreateQueryPool
libvulkan.so.1:vkCreateRenderPass
libvulkan.so.1:vkCreateRenderPass2
libvulkan.so.1:vkCreateSampler
libvulkan.so.1:vkCreateSamplerYcbcrConversion
libvulkan.so.1:vkCreateSemaphore
libvulkan.so.1:vkCreateShaderModule
libvulkan.so.1:vkCreateSharedSwapchainsKHR
libvulkan.so.1:vkCreateSwapchainKHR
libvulkan.so.1:vkCreateWaylandSurfaceKHR
libvulkan.so.1:vkCreateXcbSurfaceKHR
libvulkan.so.1:vkDestroyBuffer
libvulkan.so.1:vkDestroyBufferView
libvulkan.so.1:vkDestroyCommandPool
libvulkan.so.1:vkDestroyDescriptorPool
libvulkan.so.1:vkDestroyDescriptorSetLayout
libvulkan.so.1:vkDestroyDescriptorUpdateTemplate
libvulkan.so.1:vkDestroyDevice
libvulkan.so.1:vkDestroyEvent
libvulkan.so.1:vkDestroyFence
libvulkan.so.1:vkDestroyFramebuffer
libvulkan.so.1:vkDestroyImage
libvulkan.so.1:vkDestroyImageView
libvulkan.so.1:vkDestroyInstance
libvulkan.so.1:vkDestroyPipeline
libvulkan.so.1:vkDestroyPipelineCache
libvulkan.so.1:vkDestroyPipelineLayout
libvulkan.so.1:vkDestroyPrivateDataSlot
libvulkan.so.1:vkDestroyQueryPool
libvulkan.so.1:vkDestroyRenderPass
libvulkan.so.1:vkDestroySampler
libvulkan.so.1:vkDestroySamplerYcbcrConversion
libvulkan.so.1:vkDestroySemaphore
libvulkan.so.1:vkDestroyShaderModule
libvulkan.so.1:vkDestroySurfaceKHR
libvulkan.so.1:vkDestroySwapchainKHR
libvulkan.so.1:vkDeviceWaitIdle
libvulkan.so.1:vkEndCommandBuffer
libvulkan.so.1:vkEnumerateDeviceExtensionProperties
libvulkan.so.1:vkEnumerateDeviceLayerProperties
libvulkan.so.1:vkEnumerateInstanceExtensionProperties
libvulkan.so.1:vkEnumerateInstanceLayerProperties
libvulkan.so.1:vkEnumerateInstanceVersion
libvulkan.so.1:vkEnumeratePhysicalDeviceGroups
libvulkan.so.1:vkEnumeratePhysicalDevices
libvulkan.so.1:vkFlushMappedMemoryRanges
libvulkan.so.1:vkFreeCommandBuffers
libvulkan.so.1:vkFreeDescriptorSets
libvulkan.so.1:vkFreeMemory
libvulkan.so.1:vkGetBufferDeviceAddress
libvulkan.so.1:vkGetBufferMemoryRequirements
libvulkan.so.1:vkGetBufferMemoryRequirements2
libvulkan.so.1:vkGetBufferOpaqueCaptureAddress
libvulkan.so.1:vkGetDescriptorSetLayoutSupport
libvulkan.so.1:vkGetDeviceBufferMemoryRequirements
libvulkan.so.1:vkGetDeviceGroupPeerMemoryFeatures
libvulkan.so.1:vkGetDeviceGroupPresentCapabilitiesKHR
libvulkan.so.1:vkGetDeviceGroupSurfacePresentModesKHR
libvulkan.so.1:vkGetDeviceImageMemoryRequirements
libvulkan.so.1:vkGetDeviceImageSparseMemoryRequirements
libvulkan.so.1:vkGetDeviceMemoryCommitment
libvulkan.so.1:vkGetDeviceMemoryOpaqueCaptureAddress
libvulkan.so.1:vkGetDeviceProcAddr
libvulkan.so.1:vkGetDeviceQueue
libvulkan.so.1:vkGetDeviceQueue2
libvulkan.so.1:vkGetDisplayModeProperties2KHR
libvulkan.so.1:vkGetDisplayModePropertiesKHR
libvulkan.so.1:vkGetDisplayPlaneCapabilities2KHR
libvulkan.so.1:vkGetDisplayPlaneCapabilitiesKHR
libvulkan.so.1:vkGetDisplayPlaneSupportedDisplaysKHR
libvulkan.so.1:vkGetEventStatus
libvulkan.so.1:vkGetFenceStatus
libvulkan.so.1:vkGetImageMemoryRequirements
libvulkan.so.1:vkGetImageMemoryRequirements2
libvulkan.so.1:vkGetImageSparseMemoryRequirements
libvulkan.so.1:vkGetImageSparseMemoryRequirements2
libvulkan.so.1:vkGetImageSubresourceLayout
libvulkan.so.1:vkGetInstanceProcAddr
libvulkan.so.1:vkGetPhysicalDeviceDisplayPlaneProperties2KHR
libvulkan.so.1:vkGetPhysicalDeviceDisplayPlanePropertiesKHR
libvulkan.so.1:vkGetPhysicalDeviceDisplayProperties2KHR
libvulkan.so.1:vkGetPhysicalDeviceDisplayPropertiesKHR
libvulkan.so.1:vkGetPhysicalDeviceExternalBufferProperties
libvulkan.so.1:vkGetPhysicalDeviceExternalFenceProperties
libvulkan.so.1:vkGetPhysicalDeviceExternalSemaphoreProperties
libvulkan.so.1:vkGetPhysicalDeviceFeatures
libvulkan.so.1:vkGetPhysicalDeviceFeatures2
libvulkan.so.1:vkGetPhysicalDeviceFormatProperties
libvulkan.so.1:vkGetPhysicalDeviceFormatProperties2
libvulkan.so.1:vkGetPhysicalDeviceImageFormatProperties
libvulkan.so.1:vkGetPhysicalDeviceImageFormatProperties2
libvulkan.so.1:vkGetPhysicalDeviceMemoryProperties
libvulkan.so.1:vkGetPhysicalDeviceMemoryProperties2
libvulkan.so.1:vkGetPhysicalDevicePresentRectanglesKHR
libvulkan.so.1:vkGetPhysicalDeviceProperties
libvulkan.so.1:vkGetPhysicalDeviceProperties2
libvulkan.so.1:vkGetPhysicalDeviceQueueFamilyProperties
libvulkan.so.1:vkGetPhysicalDeviceQueueFamilyProperties2
libvulkan.so.1:vkGetPhysicalDeviceSparseImageFormatProperties
libvulkan.so.1:vkGetPhysicalDeviceSparseImageFormatProperties2
libvulkan.so.1:vkGetPhysicalDeviceSurfaceCapabilities2KHR
libvulkan.so.1:vkGetPhysicalDeviceSurfaceCapabilitiesKHR
libvulkan.so.1:vkGetPhysicalDeviceSurfaceFormats2KHR
libvulkan.so.1:vkGetPhysicalDeviceSurfaceFormatsKHR
libvulkan.so.1:vkGetPhysicalDeviceSurfacePresentModesKHR
libvulkan.so.1:vkGetPhysicalDeviceSurfaceSupportKHR
libvulkan.so.1:vkGetPhysicalDeviceToolProperties
libvulkan.so.1:vkGetPhysicalDeviceWaylandPresentationSupportKHR
libvulkan.so.1:vkGetPhysicalDeviceXcbPresentationSupportKHR
libvulkan.so.1:vkGetPipelineCacheData
libvulkan.so.1:vkGetPrivateData
libvulkan.so.1:vkGetQueryPoolResults
libvulkan.so.1:vkGetRenderAreaGranularity
libvulkan.so.1:vkGetSemaphoreCounterValue
libvulkan.so.1:vkGetSwapchainImagesKHR
libvulkan.so.1:vkInvalidateMappedMemoryRanges
libvulkan.so.1:vkMapMemory
libvulkan.so.1:vkMergePipelineCaches
libvulkan.so.1:vkQueueBindSparse
libvulkan.so.1:vkQueuePresentKHR
libvulkan.so.1:vkQueueSubmit
libvulkan.so.1:vkQueueSubmit2
libvulkan.so.1:vkQueueWaitIdle
libvulkan.so.1:vkResetCommandBuffer
libvulkan.so.1:vkResetCommandPool
libvulkan.so.1:vkResetDescriptorPool
libvulkan.so.1:vkResetEvent
libvulkan.so.1:vkResetFences
libvulkan.so.1:vkResetQueryPool
libvulkan.so.1:vkSetEvent
libvulkan.so.1:vkSetPrivateData
libvulkan.so.1:vkSignalSemaphore
libvulkan.so.1:vkTrimCommandPool
libvulkan.so.1:vkUnmapMemory
libvulkan.so.1:vkUpdateDescriptorSetWithTemplate
libvulkan.so.1:vkUpdateDescriptorSets
libvulkan.so.1:vkWaitForFences
libvulkan.so.1:vkWaitSemaphores
mullvad-gui:_IO_stdin_used
mullvad-gui:_ZN100_$LT$$RF$mut$u20$skrifa..instance..Location$u20$as$u20$core..iter..traits..collect..IntoIterator$GT$9into_iter17hba0ab36fc1d2e374E
mullvad-gui:_ZN100_$LT$alloc..ffi..c_str..CString$u20$as$u20$core..convert..From$LT$$RF$core..ffi..c_str..CStr$GT$$GT$4from17h035cec13a55a1ab0E
mullvad-gui:_ZN100_$LT$read_fonts..tables..postscript..FdSelectRange3$u20$as$u20$read_fonts..traversal..SomeRecord$GT$8traverse17h74620fad5aea7903E
mullvad-gui:_ZN100_$LT$read_fonts..tables..postscript..FdSelectRange4$u20$as$u20$read_fonts..traversal..SomeRecord$GT$8traverse17h8a3f7f5befc56fffE
mullvad-gui:_ZN100_$LT$third_uparty_scrabbyavif_ccrabbyavif..codecs..dav1d..Dav1d$u20$as$u20$core..ops..drop..Drop$GT$4drop17h49c787eae6116f2fE
mullvad-gui:_ZN101_$LT$core..char..CaseMappingIter$u20$as$u20$core..iter..traits..double_ended..DoubleEndedIterator$GT$15advance_back_by17h8372fa7e4b32760fE
mullvad-gui:_ZN101_$LT$core..char..CaseMappingIter$u20$as$u20$core..iter..traits..double_ended..DoubleEndedIterator$GT$9next_back17hbfcf0b418de67781E
mullvad-gui:_ZN101_$LT$read_fonts..tables..variations..DeltaSetIndexMap$u20$as$u20$read_fonts..traversal..SomeTable$GT$9get_field17hcab2825feec11c21E
mullvad-gui:_ZN101_$LT$read_fonts..tables..variations..DeltaSetIndexMap$u20$as$u20$read_fonts..traversal..SomeTable$GT$9type_name17h3f931ebb682d90faE
mullvad-gui:_ZN101_$LT$read_fonts..tables..variations..ItemDeltas$u20$as$u20$core..iter..traits..iterator..Iterator$GT$4next17hedcfa617c71866ccE
mullvad-gui:_ZN101_$LT$read_fonts..tables..variations..VariationRegion$u20$as$u20$read_fonts..traversal..SomeRecord$GT$8traverse17h8af2238a25a50d32E
mullvad-gui:_ZN101_$LT$std..os..unix..net..addr..SocketAddr$u20$as$u20$std..os..net..linux_ext..addr..SocketAddrExt$GT$16as_abstract_name17h712f09f6a6e76b9bE
mullvad-gui:_ZN101_$LT$std..sys..pal..unix..args..Args$u20$as$u20$core..iter..traits..exact_size..ExactSizeIterator$GT$3len17hef5028e2385e73faE
mullvad-gui:_ZN102_$LT$read_fonts..collections..int_set..sparse_bit_set..DecodingError$u20$as$u20$core..fmt..Display$GT$3fmt17h5beeee3abc54ecc2E
mullvad-gui:_ZN102_$LT$read_fonts..tables..cmap..NonDefaultUvsIter$u20$as$u20$core..iter..traits..iterator..Iterator$GT$4next17ha1b5db86a099f8b2E
mullvad-gui:_ZN102_$LT$read_fonts..tables..layout..SequenceLookupRecord$u20$as$u20$read_fonts..traversal..SomeRecord$GT$8traverse17h32d4a86737af7a00E
mullvad-gui:_ZN102_$LT$read_fonts..tables..varc..VarcComponentIter$u20$as$u20$core..iter..traits..iterator..Iterator$GT$4next17hd6d09b477b9b79a7E
mullvad-gui:_ZN102_$LT$read_fonts..tables..variations..VariationRegion$u20$as$u20$read_fonts..read..FontReadWithArgs$GT$14read_with_args17ha27a7403931c2a84E
mullvad-gui:_ZN102_$LT$std..panicking..begin_panic_handler..FormatStringPayload$u20$as$u20$core..panic..PanicPayload$GT$3get17h88289cae4749735eE
mullvad-gui:_ZN102_$LT$std..panicking..begin_panic_handler..FormatStringPayload$u20$as$u20$core..panic..PanicPayload$GT$8take_box17hf6a85482975616dfE
mullvad-gui:_ZN103_$LT$object..read..archive..ArchiveSymbolIterator$u20$as$u20$core..iter..traits..iterator..Iterator$GT$4next17ha4971dea1e6a215aE
mullvad-gui:_ZN103_$LT$read_fonts..tables..layout..ChainedSequenceContext$u20$as$u20$read_fonts..traversal..SomeTable$GT$9get_field17heaac163784dbb8c9E
mullvad-gui:_ZN103_$LT$read_fonts..tables..layout..ChainedSequenceContext$u20$as$u20$read_fonts..traversal..SomeTable$GT$9type_name17h16cf988b2f092548E
mullvad-gui:_ZN103_$LT$read_fonts..tables..layout..DeviceOrVariationIndex$u20$as$u20$read_fonts..traversal..SomeTable$GT$9get_field17h8e50e924ab6c33d1E
mullvad-gui:_ZN103_$LT$read_fonts..tables..layout..DeviceOrVariationIndex$u20$as$u20$read_fonts..traversal..SomeTable$GT$9type_name17h785f52c5f8d03590E
mullvad-gui:_ZN103_$LT$read_fonts..tables..variations..DeltaRunIter$u20$as$u20$core..iter..traits..iterator..Iterator$GT$4next17hb96e555e36fbada5E
mullvad-gui:_ZN103_$LT$read_fonts..tables..variations..PointRunIter$u20$as$u20$core..iter..traits..iterator..Iterator$GT$4next17h272f24acfee236deE
mullvad-gui:_ZN104_$LT$read_fonts..tables..layout..FeatureVariationRecord$u20$as$u20$read_fonts..traversal..SomeRecord$GT$8traverse17h4e5117138fdb9aecE
mullvad-gui:_ZN104_$LT$skrifa..outline..glyf..hint..cow_slice..CowSliceSizeMismatchError$u20$as$u20$core..fmt..Display$GT$3fmt17hfd9b967a661c6e67E
mullvad-gui:_ZN104_$LT$std..io..error..Error$u20$as$u20$core..convert..From$LT$alloc..collections..TryReserveError$GT$$GT$4from17hc2f7c9d77e6c9942E
mullvad-gui:_ZN104_$LT$std..os..unix..net..ancillary..ScmCredentials$u20$as$u20$core..iter..traits..iterator..Iterator$GT$4next17h2e0cf94b92a63385E
mullvad-gui:_ZN104_$LT$std..sys_common..net..LookupHost$u20$as$u20$core..convert..TryFrom$LT$$LP$$RF$str$C$u16$RP$$GT$$GT$8try_from17h889e615e76ab7d5fE
mullvad-gui:_ZN105_$LT$core..slice..ascii..EscapeAscii$u20$as$u20$core..iter..traits..double_ended..DoubleEndedIterator$GT$9next_back17h6a3b7d4284222571E
mullvad-gui:_ZN105_$LT$dyn$u20$core..any..Any$u2b$core..marker..Send$u2b$core..marker..Sync$u20$as$u20$core..fmt..Debug$GT$3fmt17h5de58a0b997c1f2fE
mullvad-gui:_ZN105_$LT$read_fonts..tables..gpos..value_record..ValueRecord$u20$as$u20$read_fonts..traversal..SomeRecord$GT$8traverse17h155d2a4f08f17d48E
mullvad-gui:_ZN105_$LT$read_fonts..tables..gsub..SingleSubst$u20$as$u20$read_fonts..tables..gsub..closure..GlyphClosure$GT$20add_reachable_glyphs17ha35cc0a4f213af59E
mullvad-gui:_ZN105_$LT$std..os..unix..net..stream..UnixStream$u20$as$u20$std..os..net..linux_ext..socket..UnixSocketExt$GT$12set_passcred17h99bd639879adb300E
mullvad-gui:_ZN105_$LT$std..os..unix..net..stream..UnixStream$u20$as$u20$std..os..net..linux_ext..socket..UnixSocketExt$GT$8passcred17ha1052dad11f9bbaaE
mullvad-gui:_ZN105_$LT$std..sys..pal..unix..args..Args$u20$as$u20$core..iter..traits..double_ended..DoubleEndedIterator$GT$9next_back17h66e2b4fd7c29b3f5E
mullvad-gui:_ZN106_$LT$$LT$std..path..Iter$u20$as$u20$core..fmt..Debug$GT$..fmt..DebugHelper$u20$as$u20$core..fmt..Debug$GT$3fmt17heb2a1e0187988b3eE
mullvad-gui:_ZN106_$LT$alloc..boxed..Box$LT$dyn$u20$core..error..Error$GT$$u20$as$u20$core..convert..From$LT$$RF$str$GT$$GT$4from17h54d459f8a727c548E
mullvad-gui:_ZN106_$LT$read_fonts..collections..int_set..bitpage..Iter$u20$as$u20$core..iter..traits..iterator..Iterator$GT$4next17hb4297370a1c397faE
mullvad-gui:_ZN106_$LT$read_fonts..tables..gpos..value_record..ValueRecord$u20$as$u20$read_fonts..read..FontReadWithArgs$GT$14read_with_args17h0d64a04a7de03fd6E
mullvad-gui:_ZN107_$LT$object..read..pe..relocation..RelocationIterator$u20$as$u20$core..iter..traits..iterator..Iterator$GT$4next17hf18cee275736ddefE
mullvad-gui:_ZN107_$LT$read_fonts..tables..varc..SparseRegionAxisCoordinates$u20$as$u20$read_fonts..traversal..SomeRecord$GT$8traverse17h1f6face9032c9d92E
mullvad-gui:_ZN107_$LT$read_fonts..tables..variations..RegionAxisCoordinates$u20$as$u20$read_fonts..traversal..SomeRecord$GT$8traverse17hd3affe6696561a72E
mullvad-gui:_ZN107_$LT$serde_json_lenient..value..ser..SerializeTupleVariant$u20$as$u20$serde..ser..SerializeTupleVariant$GT$3end17hd2b49a5fdc6ee82dE
mullvad-gui:_ZN107_$LT$skrifa..instance..LocationRef$u20$as$u20$core..convert..From$LT$$RF$skrifa..instance..Location$GT$$GT$4from17habe5c6f19f815b3fE
mullvad-gui:_ZN107_$LT$third_uparty_scrabbyavif_ccrabbyavif..capi..decoder..avifDecoder$u20$as$u20$core..default..Default$GT$7default17hed66b156c1b1ba8aE
mullvad-gui:_ZN107_$LT$third_uparty_scrabbyavif_ccrabbyavif..capi..gainmap..avifGainMap$u20$as$u20$core..default..Default$GT$7default17h062c8648fd280dd1E
mullvad-gui:_ZN108_$LT$read_fonts..tables..postscript..string..Latin1String$u20$as$u20$core..cmp..PartialEq$LT$$RF$str$GT$$GT$2eq17h6d097d33c4981c4bE
mullvad-gui:_ZN108_$LT$read_fonts..traversal..FieldType$u20$as$u20$core..convert..From$LT$font_types..offset..Offset24$GT$$GT$4from17h7c1048770e8b21e1E
mullvad-gui:_ZN109_$LT$alloc..vec..Vec$LT$skrifa..outline..pen..PathElement$GT$$u20$as$u20$skrifa..outline..pen..OutlinePen$GT$5close17haf5f43e0adfdc1edE
mullvad-gui:_ZN109_$LT$alloc..vec..Vec$LT$skrifa..outline..pen..PathElement$GT$$u20$as$u20$skrifa..outline..pen..OutlinePen$GT$7line_to17h61308706e1b54891E
mullvad-gui:_ZN109_$LT$alloc..vec..Vec$LT$skrifa..outline..pen..PathElement$GT$$u20$as$u20$skrifa..outline..pen..OutlinePen$GT$7move_to17h4739ba9aeabb4b0eE
mullvad-gui:_ZN109_$LT$alloc..vec..Vec$LT$skrifa..outline..pen..PathElement$GT$$u20$as$u20$skrifa..outline..pen..OutlinePen$GT$7quad_to17h3ddfb7ef46e15a54E
mullvad-gui:_ZN109_$LT$alloc..vec..Vec$LT$skrifa..outline..pen..PathElement$GT$$u20$as$u20$skrifa..outline..pen..OutlinePen$GT$8curve_to17ha5b69e36774d3cc8E
mullvad-gui:_ZN109_$LT$read_fonts..traversal..OffsetType$u20$as$u20$core..convert..From$LT$font_types..offset..Offset24$GT$$GT$4from17h797a2ca172404042E
mullvad-gui:_ZN109_$LT$serde_json_lenient..value..ser..SerializeStructVariant$u20$as$u20$serde..ser..SerializeStructVariant$GT$3end17h20e08e1fea6b7482E
mullvad-gui:_ZN109_$LT$std..os..unix..net..datagram..UnixDatagram$u20$as$u20$std..os..net..linux_ext..socket..UnixSocketExt$GT$12set_passcred17h4729d1e6163d87e3E
mullvad-gui:_ZN109_$LT$std..os..unix..net..datagram..UnixDatagram$u20$as$u20$std..os..net..linux_ext..socket..UnixSocketExt$GT$8passcred17hc676607e0e7de25bE
mullvad-gui:_ZN10font_types12longdatetime12LongDateTime11to_be_bytes17hff33fb5e802d3e74E
mullvad-gui:_ZN10font_types3tag3Tag11new_checked17hbd19d781cd4debdbE
mullvad-gui:_ZN10font_types3tag3Tag8from_u3217heaa216b996960219E
mullvad-gui:_ZN10font_types3tag3Tag8validate17h2eed0580ab6ef9f9E
mullvad-gui:_ZN10font_types5fword5FWord11to_be_bytes17h8e3a49cb32b95c21E
mullvad-gui:_ZN10font_types5fword6UfWord11to_be_bytes17h31f8d75c6297b079E
mullvad-gui:_ZN10font_types5int245Int2411to_be_bytes17he01785b81dddaebaE
mullvad-gui:_ZN10font_types5int245Int2413from_be_bytes17h7e953c7606f9711bE
mullvad-gui:_ZN10font_types5int245Int243new17h2d6d3bed6bbcc8f2E
mullvad-gui:_ZN10font_types6uint246Uint2411to_be_bytes17ha320b7547da1136aE
mullvad-gui:_ZN10font_types6uint246Uint2413from_be_bytes17h3a59749ad502c056E
mullvad-gui:_ZN10font_types6uint246Uint243new17ha74933d7eed615d0E
mullvad-gui:_ZN10font_types7name_id6NameId11to_be_bytes17h58305b5e4011aa55E
mullvad-gui:_ZN10font_types7version14Version16Dot163new17hfe5b938319fd3f5bE
mullvad-gui:_ZN10font_types8glyph_id9GlyphId1611to_be_bytes17h182a0b1809cc71d5E
mullvad-gui:_ZN10read_fonts113_$LT$impl$u20$core..fmt..Debug$u20$for$u20$read_fonts..table_ref..TableRef$LT$read_fonts..TTCHeaderMarker$GT$$GT$3fmt17h9efb4a5929df43ebE
mullvad-gui:_ZN10read_fonts118_$LT$impl$u20$core..fmt..Debug$u20$for$u20$read_fonts..table_ref..TableRef$LT$read_fonts..TableDirectoryMarker$GT$$GT$3fmt17h633bf4c09353bdc0E
mullvad-gui:_ZN10read_fonts11TableRecord6length17h2fa9b6987679dc12E
mullvad-gui:_ZN10read_fonts11TableRecord6offset17hcd9786d6c22f090bE
mullvad-gui:_ZN10read_fonts11TableRecord8checksum17h3e8b91c69802350eE
mullvad-gui:_ZN10read_fonts11collections7int_set14sparse_bit_set12BranchFactor15tree_height_for17h90804e1c2581cf5aE
mullvad-gui:_ZN10read_fonts11collections7int_set14sparse_bit_set12BranchFactor8from_val17h5ca1dc8d7111a6c8E
mullvad-gui:_ZN10read_fonts11collections7int_set14sparse_bit_set12create_layer17hc9716e1582458ce2E
mullvad-gui:_ZN10read_fonts11collections7int_set14sparse_bit_set69_$LT$impl$u20$read_fonts..collections..int_set..IntSet$LT$u32$GT$$GT$17to_sparse_bit_set17h34b45dde32956f75E
mullvad-gui:_ZN10read_fonts11collections7int_set14sparse_bit_set69_$LT$impl$u20$read_fonts..collections..int_set..IntSet$LT$u32$GT$$GT$19from_sparse_bit_set17h718f68839fe2cd14E
mullvad-gui:_ZN10read_fonts11collections7int_set14sparse_bit_set69_$LT$impl$u20$read_fonts..collections..int_set..IntSet$LT$u32$GT$$GT$27from_sparse_bit_set_bounded17h3f4410cc1aeb6405E
mullvad-gui:_ZN10read_fonts11collections7int_set17output_bit_stream15OutputBitStream10write_node17h3d88b5ac5a484208E
mullvad-gui:_ZN10read_fonts11collections7int_set17output_bit_stream15OutputBitStream3new17hfd1b84fb8a368b75E
mullvad-gui:_ZN10read_fonts11collections7int_set6bitset13BitSetBuilder6insert17hce61db1dec3541beE
mullvad-gui:_ZN10read_fonts11collections7int_set6bitset6BitSet10iter_after17h838f11bbc800a80cE
mullvad-gui:_ZN10read_fonts11collections7int_set6bitset6BitSet11iter_ranges17h5c0befc26b3663e1E
mullvad-gui:_ZN10read_fonts11collections7int_set6bitset6BitSet12insert_range17he1129089c8519d69E
mullvad-gui:_ZN10read_fonts11collections7int_set6bitset6BitSet12remove_range17hf7cbea310f59ea3cE
mullvad-gui:_ZN10read_fonts11collections7int_set6bitset6BitSet17reversed_subtract17h7ffb097735d354ffE
mullvad-gui:_ZN10read_fonts11collections7int_set6bitset6BitSet20page_index_for_major17hd1ed35e912773d44E
mullvad-gui:_ZN10read_fonts11collections7int_set6bitset6BitSet25ensure_page_for_major_mut17h4759d1ce3f3c9aafE
mullvad-gui:_ZN10read_fonts11collections7int_set6bitset6BitSet3len17h7b5563631eb6fa83E
mullvad-gui:_ZN10read_fonts11collections7int_set6bitset6BitSet5union17h40cdb855d834e622E
mullvad-gui:_ZN10read_fonts11collections7int_set6bitset6BitSet6insert17hee935849098a3f3fE
mullvad-gui:_ZN10read_fonts11collections7int_set6bitset6BitSet6remove17h3a9cdb9041ec58f3E
mullvad-gui:_ZN10read_fonts11collections7int_set6bitset6BitSet8contains17h7a30c72d44fd1f18E
mullvad-gui:_ZN10read_fonts11collections7int_set6bitset6BitSet8subtract17h7be9410fe3051fbdE
mullvad-gui:_ZN10read_fonts11collections7int_set6bitset6BitSet9intersect17h897a98a0b46726d8E
mullvad-gui:_ZN10read_fonts11collections7int_set7bitpage7BitPage10iter_after17h77588c81ed08b18eE
mullvad-gui:_ZN10read_fonts11collections7int_set7bitpage7BitPage16insert_no_return17h26522cd44fafad3dE
mullvad-gui:_ZN10read_fonts11collections7int_set7bitpage7BitPage6remove17haa07891121513724E
mullvad-gui:_ZN10read_fonts11collections7int_set7bitpage7BitPage8is_empty17h5ecc8708cba8a13bE
mullvad-gui:_ZN10read_fonts123_$LT$impl$u20$read_fonts..read..FontRead$u20$for$u20$read_fonts..table_ref..TableRef$LT$read_fonts..TTCHeaderMarker$GT$$GT$4read17h7e7bfb74221a4274E
mullvad-gui:_ZN10read_fonts128_$LT$impl$u20$read_fonts..read..FontRead$u20$for$u20$read_fonts..table_ref..TableRef$LT$read_fonts..TableDirectoryMarker$GT$$GT$4read17h352e2aa985bfbdfbE
mullvad-gui:_ZN10read_fonts129_$LT$impl$u20$read_fonts..traversal..SomeTable$u20$for$u20$read_fonts..table_ref..TableRef$LT$read_fonts..TTCHeaderMarker$GT$$GT$9get_field17hc6b2298e7ef3132eE
mullvad-gui:_ZN10read_fonts12test_helpers8BeBuffer10offset_for17hd95f89517cd2a377E
mullvad-gui:_ZN10read_fonts12test_helpers8BeBuffer3new17h2f77e0c040bc320bE
mullvad-gui:_ZN10read_fonts12test_helpers8BeBuffer8data_for17h9f48139a405cb873E
mullvad-gui:_ZN10read_fonts134_$LT$impl$u20$read_fonts..traversal..SomeTable$u20$for$u20$read_fonts..table_ref..TableRef$LT$read_fonts..TableDirectoryMarker$GT$$GT$9get_field17h9b89e313b15bc78eE
mullvad-gui:_ZN10read_fonts13CollectionRef3get17h0f2e2b00aad14a60E
mullvad-gui:_ZN10read_fonts13CollectionRef3len17h4949c28e573936e5E
mullvad-gui:_ZN10read_fonts13CollectionRef3new17h2fefcd4717f9df55E
mullvad-gui:_ZN10read_fonts13CollectionRef4iter17h0ea25c37f99f4231E
mullvad-gui:_ZN10read_fonts13CollectionRef8is_empty17he6dae4a6ee92d416E
mullvad-gui:_ZN10read_fonts6tables10postscript101_$LT$impl$u20$read_fonts..table_ref..TableRef$LT$read_fonts..tables..postscript..Index1Marker$GT$$GT$4data17hc3178c7a319a7d65E
mullvad-gui:_ZN10read_fonts6tables10postscript101_$LT$impl$u20$read_fonts..table_ref..TableRef$LT$read_fonts..tables..postscript..Index1Marker$GT$$GT$5count17h8119c03e57392192E
mullvad-gui:_ZN10read_fonts6tables10postscript101_$LT$impl$u20$read_fonts..table_ref..TableRef$LT$read_fonts..tables..postscript..Index1Marker$GT$$GT$7offsets17hbb662409c9c6bcdeE
mullvad-gui:_ZN10read_fonts6tables10postscript101_$LT$impl$u20$read_fonts..table_ref..TableRef$LT$read_fonts..tables..postscript..Index1Marker$GT$$GT$8off_size17h3716237cdbe30ee2E
mullvad-gui:_ZN10read_fonts6tables10postscript101_$LT$impl$u20$read_fonts..table_ref..TableRef$LT$read_fonts..tables..postscript..Index2Marker$GT$$GT$4data17hc81b374bf3da1126E
mullvad-gui:_ZN10read_fonts6tables10postscript101_$LT$impl$u20$read_fonts..table_ref..TableRef$LT$read_fonts..tables..postscript..Index2Marker$GT$$GT$5count17h67b7e713710df9d1E
mullvad-gui:_ZN10read_fonts6tables10postscript101_$LT$impl$u20$read_fonts..table_ref..TableRef$LT$read_fonts..tables..postscript..Index2Marker$GT$$GT$7offsets17hbc048bb349d781dcE
mullvad-gui:_ZN10read_fonts6tables10postscript101_$LT$impl$u20$read_fonts..table_ref..TableRef$LT$read_fonts..tables..postscript..Index2Marker$GT$$GT$8off_size17h1dfc1d86b670994cE
mullvad-gui:_ZN10read_fonts6tables10postscript10charstring8Operator4read17h2491ac1ade379dc9E
mullvad-gui:_ZN10read_fonts6tables10postscript110_$LT$impl$u20$read_fonts..table_ref..TableRef$LT$read_fonts..tables..postscript..FdSelectFormat0Marker$GT$$GT$3fds17hffc746bd158bdb23E
mullvad-gui:_ZN10read_fonts6tables10postscript110_$LT$impl$u20$read_fonts..table_ref..TableRef$LT$read_fonts..tables..postscript..FdSelectFormat0Marker$GT$$GT$6format17h54d04f862f6b1f22E
mullvad-gui:_ZN10read_fonts6tables10postscript110_$LT$impl$u20$read_fonts..table_ref..TableRef$LT$read_fonts..tables..postscript..FdSelectFormat3Marker$GT$$GT$6format17hb15a13bb97134452E
mullvad-gui:_ZN10read_fonts6tables10postscript110_$LT$impl$u20$read_fonts..table_ref..TableRef$LT$read_fonts..tables..postscript..FdSelectFormat3Marker$GT$$GT$6ranges17ha514919b17ade752E
mullvad-gui:_ZN10read_fonts6tables10postscript110_$LT$impl$u20$read_fonts..table_ref..TableRef$LT$read_fonts..tables..postscript..FdSelectFormat3Marker$GT$$GT$8n_ranges17ha063ec8637e8a3afE
mullvad-gui:_ZN10read_fonts6tables10postscript110_$LT$impl$u20$read_fonts..table_ref..TableRef$LT$read_fonts..tables..postscript..FdSelectFormat3Marker$GT$$GT$8sentinel17h053e97eca77d2b6bE
mullvad-gui:_ZN10read_fonts6tables10postscript110_$LT$impl$u20$read_fonts..table_ref..TableRef$LT$read_fonts..tables..postscript..FdSelectFormat4Marker$GT$$GT$6format17h1451107ad2cfd439E
mullvad-gui:_ZN10read_fonts6tables10postscript110_$LT$impl$u20$read_fonts..table_ref..TableRef$LT$read_fonts..tables..postscript..FdSelectFormat4Marker$GT$$GT$6ranges17hb2aec7095df2a4ecE
mullvad-gui:_ZN10read_fonts6tables10postscript110_$LT$impl$u20$read_fonts..table_ref..TableRef$LT$read_fonts..tables..postscript..FdSelectFormat4Marker$GT$$GT$8n_ranges17h83aefb74831eac2bE
mullvad-gui:_ZN10read_fonts6tables10postscript110_$LT$impl$u20$read_fonts..table_ref..TableRef$LT$read_fonts..tables..postscript..FdSelectFormat4Marker$GT$$GT$8sentinel17h6dd95aba78bfd04fE
mullvad-gui:_ZN10read_fonts6tables10postscript130_$LT$impl$u20$core..fmt..Debug$u20$for$u20$read_fonts..table_ref..TableRef$LT$read_fonts..tables..postscript..Index1Marker$GT$$GT$3fmt17h066f549d86d4219aE
mullvad-gui:_ZN10read_fonts6tables10postscript130_$LT$impl$u20$core..fmt..Debug$u20$for$u20$read_fonts..table_ref..TableRef$LT$read_fonts..tables..postscript..Index2Marker$GT$$GT$3fmt17hf17e5464bbd267b6E
mullvad-gui:_ZN10read_fonts6tables10postscript139_$LT$impl$u20$core..fmt..Debug$u20$for$u20$read_fonts..table_ref..TableRef$LT$read_fonts..tables..postscript..FdSelectFormat0Marker$GT$$GT$3fmt17hfe844dac4a0776fdE
mullvad-gui:_ZN10read_fonts6tables10postscript139_$LT$impl$u20$core..fmt..Debug$u20$for$u20$read_fonts..table_ref..TableRef$LT$read_fonts..tables..postscript..FdSelectFormat3Marker$GT$$GT$3fmt17hc3e096259b7cf4c2E
mullvad-gui:_ZN10read_fonts6tables10postscript139_$LT$impl$u20$core..fmt..Debug$u20$for$u20$read_fonts..table_ref..TableRef$LT$read_fonts..tables..postscript..FdSelectFormat4Marker$GT$$GT$3fmt17ha096a06a05605451E
mullvad-gui:_ZN10read_fonts6tables10postscript140_$LT$impl$u20$read_fonts..read..FontRead$u20$for$u20$read_fonts..table_ref..TableRef$LT$read_fonts..tables..postscript..Index1Marker$GT$$GT$4read17hb550b64db34e8a98E
mullvad-gui:_ZN10read_fonts6tables10postscript140_$LT$impl$u20$read_fonts..read..FontRead$u20$for$u20$read_fonts..table_ref..TableRef$LT$read_fonts..tables..postscript..Index2Marker$GT$$GT$4read17heb74b7bb22f2d1beE
mullvad-gui:_ZN10read_fonts6tables10postscript146_$LT$impl$u20$read_fonts..traversal..SomeTable$u20$for$u20$read_fonts..table_ref..TableRef$LT$read_fonts..tables..postscript..Index1Marker$GT$$GT$9get_field17h4bb680bd0d57bfd9E
mullvad-gui:_ZN10read_fonts6tables10postscript146_$LT$impl$u20$read_fonts..traversal..SomeTable$u20$for$u20$read_fonts..table_ref..TableRef$LT$read_fonts..tables..postscript..Index2Marker$GT$$GT$9get_field17h6164f7050003cddcE
mullvad-gui:_ZN10read_fonts6tables10postscript149_$LT$impl$u20$read_fonts..read..FontRead$u20$for$u20$read_fonts..table_ref..TableRef$LT$read_fonts..tables..postscript..FdSelectFormat0Marker$GT$$GT$4read17hbaf54eb89850738aE
mullvad-gui:_ZN10read_fonts6tables10postscript149_$LT$impl$u20$read_fonts..read..FontRead$u20$for$u20$read_fonts..table_ref..TableRef$LT$read_fonts..tables..postscript..FdSelectFormat3Marker$GT$$GT$4read17h9b92d362808739cdE
mullvad-gui:_ZN10read_fonts6tables10postscript149_$LT$impl$u20$read_fonts..read..FontRead$u20$for$u20$read_fonts..table_ref..TableRef$LT$read_fonts..tables..postscript..FdSelectFormat4Marker$GT$$GT$4read17h603a6f60570b778fE
mullvad-gui:_ZN10read_fonts6tables10postscript14FdSelectRange35first17h5bec7e7fe9e20c1bE
mullvad-gui:_ZN10read_fonts6tables10postscript14FdSelectRange42fd17h10dfc795d8aff1b7E
mullvad-gui:_ZN10read_fonts6tables10postscript14FdSelectRange45first17h3259b3c7bfff3ba3E
mullvad-gui:_ZN10read_fonts6tables10postscript155_$LT$impl$u20$read_fonts..traversal..SomeTable$u20$for$u20$read_fonts..table_ref..TableRef$LT$read_fonts..tables..postscript..FdSelectFormat0Marker$GT$$GT$9get_field17hc64d49270bba8653E
mullvad-gui:_ZN10read_fonts6tables10postscript155_$LT$impl$u20$read_fonts..traversal..SomeTable$u20$for$u20$read_fonts..table_ref..TableRef$LT$read_fonts..tables..postscript..FdSelectFormat3Marker$GT$$GT$9get_field17h6e398d3f07d31d7bE
mullvad-gui:_ZN10read_fonts6tables10postscript155_$LT$impl$u20$read_fonts..traversal..SomeTable$u20$for$u20$read_fonts..table_ref..TableRef$LT$read_fonts..tables..postscript..FdSelectFormat4Marker$GT$$GT$9get_field17he20642a21afbdd55E
mullvad-gui:_ZN10read_fonts6tables10postscript4dict11parse_entry17hc8e563dd4fcde418E
mullvad-gui:_ZN10read_fonts6tables10postscript4dict11parse_token17h047e496f2d1afe40E
mullvad-gui:_ZN10read_fonts6tables10postscript4dict5Blues6values17hae449fecb0077cddE
mullvad-gui:_ZN10read_fonts6tables10postscript4dict9StemSnaps6values17h67ef312ed495d132E
mullvad-gui:_ZN10read_fonts6tables10postscript4dict9parse_int17hba143687cd87444cE
mullvad-gui:_ZN10read_fonts6tables10postscript5blend10BlendState13region_scalar17h10f1f3dc174712d3E
mullvad-gui:_ZN10read_fonts6tables10postscript5blend10BlendState15set_store_index17hfb1dcc99867326aeE
mullvad-gui:_ZN10read_fonts6tables10postscript5blend10BlendState3new17h54add57dc8ac60a9E
mullvad-gui:_ZN10read_fonts6tables10postscript5blend10BlendState7scalars17h8c0e63138dc26a36E
mullvad-gui:_ZN10read_fonts6tables10postscript5index101_$LT$impl$u20$read_fonts..table_ref..TableRef$LT$read_fonts..tables..postscript..Index1Marker$GT$$GT$10get_offset17hfee1423048c177bbE
mullvad-gui:_ZN10read_fonts6tables10postscript5index101_$LT$impl$u20$read_fonts..table_ref..TableRef$LT$read_fonts..tables..postscript..Index1Marker$GT$$GT$13size_in_bytes17h949f936a981a9c59E
mullvad-gui:_ZN10read_fonts6tables10postscript5index101_$LT$impl$u20$read_fonts..table_ref..TableRef$LT$read_fonts..tables..postscript..Index1Marker$GT$$GT$3get17h1a43a4a5677924b2E
mullvad-gui:_ZN10read_fonts6tables10postscript5index101_$LT$impl$u20$read_fonts..table_ref..TableRef$LT$read_fonts..tables..postscript..Index2Marker$GT$$GT$10get_offset17he65561537e4ea59dE
mullvad-gui:_ZN10read_fonts6tables10postscript5index101_$LT$impl$u20$read_fonts..table_ref..TableRef$LT$read_fonts..tables..postscript..Index2Marker$GT$$GT$13size_in_bytes17hd2fb033f0b2b3f69E
mullvad-gui:_ZN10read_fonts6tables10postscript5index101_$LT$impl$u20$read_fonts..table_ref..TableRef$LT$read_fonts..tables..postscript..Index2Marker$GT$$GT$3get17h5f1a3386e5477db6E
mullvad-gui:_ZN10read_fonts6tables10postscript5index5Index10get_offset17h99b0ccefe158db86E
mullvad-gui:_ZN10read_fonts6tables10postscript5index5Index13size_in_bytes17h525910ce2efdf5dfE
mullvad-gui:_ZN10read_fonts6tables10postscript5index5Index3get17h2144e879fe8e9d15E
mullvad-gui:_ZN10read_fonts6tables10postscript5index5Index3new17hd4b1e2fbe9a48b0cE
mullvad-gui:_ZN10read_fonts6tables10postscript5index5Index5count17h73dc21b54608e645E
mullvad-gui:_ZN10read_fonts6tables10postscript5index5Index9subr_bias17h59af3a15274321e9E
mullvad-gui:_ZN10read_fonts6tables10postscript5stack5Stack11apply_blend17he468dab0bee85c53E
mullvad-gui:_ZN10read_fonts6tables10postscript5stack5Stack12fixed_values17h2e10fbacbb5b2bebE
mullvad-gui:_ZN10read_fonts6tables10postscript5stack5Stack13number_values17hb8ec0328867a7cf7E
mullvad-gui:_ZN10read_fonts6tables10postscript5stack5Stack22apply_delta_prefix_sum17h01c6e3362d695769E
mullvad-gui:_ZN10read_fonts6tables10postscript5stack5Stack7get_i3217h36450126daabd5daE
mullvad-gui:_ZN10read_fonts6tables10postscript5stack5Stack7pop_i3217hde855e38872b68e3E
mullvad-gui:_ZN10read_fonts6tables10postscript5stack5Stack7reverse17h65788e98af41d1deE
mullvad-gui:_ZN10read_fonts6tables10postscript5stack5Stack9get_fixed17h201a76fa15868ef2E
mullvad-gui:_ZN10read_fonts6tables10postscript5stack5Stack9pop_fixed17h5337f4ddc947691eE
mullvad-gui:_ZN10read_fonts6tables10postscript5stack5Stack9push_impl17h00bd667cf4cdbf7aE
mullvad-gui:_ZN10read_fonts6tables10postscript6string8StringId15standard_string17h832c7ad2a78f019eE
mullvad-gui:_ZN10read_fonts6tables10postscript8FdSelect6format17h0f19f7469d863a13E
mullvad-gui:_ZN10read_fonts6tables10postscript9fd_select58_$LT$impl$u20$read_fonts..tables..postscript..FdSelect$GT$10font_index17h5e2ec5b702048708E
mullvad-gui:_ZN10read_fonts6tables10variations112_$LT$impl$u20$read_fonts..table_ref..TableRef$LT$read_fonts..tables..variations..ItemVariationDataMarker$GT$$GT$10delta_sets17h9240124af6fe9120E
mullvad-gui:_ZN10read_fonts6tables10variations112_$LT$impl$u20$read_fonts..table_ref..TableRef$LT$read_fonts..tables..variations..ItemVariationDataMarker$GT$$GT$10item_count17h7d043370827a729cE
mullvad-gui:_ZN10read_fonts6tables10variations112_$LT$impl$u20$read_fonts..table_ref..TableRef$LT$read_fonts..tables..variations..ItemVariationDataMarker$GT$$GT$14region_indexes17h98056a69fd8a498aE
mullvad-gui:_ZN10read_fonts6tables10variations112_$LT$impl$u20$read_fonts..table_ref..TableRef$LT$read_fonts..tables..variations..ItemVariationDataMarker$GT$$GT$16word_delta_count17h5fdbc951948c7fb4E
mullvad-gui:_ZN10read_fonts6tables10variations112_$LT$impl$u20$read_fonts..table_ref..TableRef$LT$read_fonts..tables..variations..ItemVariationDataMarker$GT$$GT$18region_index_count17haf493baede53bba3E
mullvad-gui:_ZN10read_fonts6tables10variations112_$LT$impl$u20$read_fonts..table_ref..TableRef$LT$read_fonts..tables..variations..ItemVariationDataMarker$GT$$GT$9delta_set17hfae949c93ff88008E
mullvad-gui:_ZN10read_fonts6tables10variations113_$LT$impl$u20$read_fonts..table_ref..TableRef$LT$read_fonts..tables..variations..ItemVariationStoreMarker$GT$$GT$13compute_delta17h848893370387507bE
mullvad-gui:_ZN10read_fonts6tables10variations113_$LT$impl$u20$read_fonts..table_ref..TableRef$LT$read_fonts..tables..variations..ItemVariationStoreMarker$GT$$GT$19compute_float_delta17h332b4080a1b8486cE
mullvad-gui:_ZN10read_fonts6tables10variations113_$LT$impl$u20$read_fonts..table_ref..TableRef$LT$read_fonts..tables..variations..ItemVariationStoreMarker$GT$$GT$19item_variation_data17hc9e3d444b5df05a2E
mullvad-gui:_ZN10read_fonts6tables10variations113_$LT$impl$u20$read_fonts..table_ref..TableRef$LT$read_fonts..tables..variations..ItemVariationStoreMarker$GT$$GT$21variation_region_list17hc4e554da73b1d9b1E
mullvad-gui:_ZN10read_fonts6tables10variations113_$LT$impl$u20$read_fonts..table_ref..TableRef$LT$read_fonts..tables..variations..ItemVariationStoreMarker$GT$$GT$25item_variation_data_count17h46a821da90344929E
mullvad-gui:_ZN10read_fonts6tables10variations113_$LT$impl$u20$read_fonts..table_ref..TableRef$LT$read_fonts..tables..variations..ItemVariationStoreMarker$GT$$GT$27item_variation_data_offsets17h1696848d35209e45E
mullvad-gui:_ZN10read_fonts6tables10variations113_$LT$impl$u20$read_fonts..table_ref..TableRef$LT$read_fonts..tables..variations..ItemVariationStoreMarker$GT$$GT$28variation_region_list_offset17h20410ec55e7d7b99E
mullvad-gui:_ZN10read_fonts6tables10variations113_$LT$impl$u20$read_fonts..table_ref..TableRef$LT$read_fonts..tables..variations..ItemVariationStoreMarker$GT$$GT$6format17h137c3d881f6cc122E
mullvad-gui:_ZN10read_fonts6tables10variations114_$LT$impl$u20$read_fonts..table_ref..TableRef$LT$read_fonts..tables..variations..VariationRegionListMarker$GT$$GT$10axis_count17h808c3bbc038744e4E
mullvad-gui:_ZN10read_fonts6tables10variations114_$LT$impl$u20$read_fonts..table_ref..TableRef$LT$read_fonts..tables..variations..VariationRegionListMarker$GT$$GT$12region_count17hdb39fbb5fde469f9E
mullvad-gui:_ZN10read_fonts6tables10variations114_$LT$impl$u20$read_fonts..table_ref..TableRef$LT$read_fonts..tables..variations..VariationRegionListMarker$GT$$GT$17variation_regions17h4569b28292b048a8E
mullvad-gui:_ZN10read_fonts6tables10variations115_$LT$impl$u20$read_fonts..table_ref..TableRef$LT$read_fonts..tables..variations..TupleVariationHeaderMarker$GT$$GT$10peak_tuple17h486f7469e0f50771E
mullvad-gui:_ZN10read_fonts6tables10variations115_$LT$impl$u20$read_fonts..table_ref..TableRef$LT$read_fonts..tables..variations..TupleVariationHeaderMarker$GT$$GT$11tuple_index17h111ea3bc410cdb57E
mullvad-gui:_ZN10read_fonts6tables10variations115_$LT$impl$u20$read_fonts..table_ref..TableRef$LT$read_fonts..tables..variations..TupleVariationHeaderMarker$GT$$GT$19variation_data_size17h2ba0e9fb1cbf7a16E
mullvad-gui:_ZN10read_fonts6tables10variations115_$LT$impl$u20$read_fonts..table_ref..TableRef$LT$read_fonts..tables..variations..TupleVariationHeaderMarker$GT$$GT$22intermediate_end_tuple17hce132529d0a85343E
mullvad-gui:_ZN10read_fonts6tables10variations115_$LT$impl$u20$read_fonts..table_ref..TableRef$LT$read_fonts..tables..variations..TupleVariationHeaderMarker$GT$$GT$24intermediate_start_tuple17h0ff390e71b2ba6c7E
mullvad-gui:_ZN10read_fonts6tables10variations115_$LT$impl$u20$read_fonts..table_ref..TableRef$LT$read_fonts..tables..variations..TupleVariationHeaderMarker$GT$$GT$4read17h2e44e0203bfef9acE
mullvad-gui:_ZN10read_fonts6tables10variations118_$LT$impl$u20$read_fonts..table_ref..TableRef$LT$read_fonts..tables..variations..DeltaSetIndexMapFormat0Marker$GT$$GT$12entry_format17hfb2a9587786df781E
mullvad-gui:_ZN10read_fonts6tables10variations118_$LT$impl$u20$read_fonts..table_ref..TableRef$LT$read_fonts..tables..variations..DeltaSetIndexMapFormat0Marker$GT$$GT$6format17heb5084b7cf55374dE
mullvad-gui:_ZN10read_fonts6tables10variations118_$LT$impl$u20$read_fonts..table_ref..TableRef$LT$read_fonts..tables..variations..DeltaSetIndexMapFormat0Marker$GT$$GT$8map_data17h2b90674e0cc8c665E
mullvad-gui:_ZN10read_fonts6tables10variations118_$LT$impl$u20$read_fonts..table_ref..TableRef$LT$read_fonts..tables..variations..DeltaSetIndexMapFormat0Marker$GT$$GT$9map_count17h9c71aa18bce0a1acE
mullvad-gui:_ZN10read_fonts6tables10variations118_$LT$impl$u20$read_fonts..table_ref..TableRef$LT$read_fonts..tables..variations..DeltaSetIndexMapFormat1Marker$GT$$GT$12entry_format17hcd637650e2d139f2E
mullvad-gui:_ZN10read_fonts6tables10variations118_$LT$impl$u20$read_fonts..table_ref..TableRef$LT$read_fonts..tables..variations..DeltaSetIndexMapFormat1Marker$GT$$GT$6format17h115eb5636e4d5b95E
mullvad-gui:_ZN10read_fonts6tables10variations118_$LT$impl$u20$read_fonts..table_ref..TableRef$LT$read_fonts..tables..variations..DeltaSetIndexMapFormat1Marker$GT$$GT$8map_data17hb5003420f1c99c59E
mullvad-gui:_ZN10read_fonts6tables10variations118_$LT$impl$u20$read_fonts..table_ref..TableRef$LT$read_fonts..tables..variations..DeltaSetIndexMapFormat1Marker$GT$$GT$9map_count17hdcf53bf410ddda0eE
mullvad-gui:_ZN10read_fonts6tables10variations11EntryFormat10entry_size17h543e49ab96ac96bcE
mullvad-gui:_ZN10read_fonts6tables10variations11EntryFormat9bit_count17hd06eb64612cbb6c0E
mullvad-gui:_ZN10read_fonts6tables10variations12PackedDeltas11consume_all17h76d372942f6ba214E
mullvad-gui:_ZN10read_fonts6tables10variations141_$LT$impl$u20$core..fmt..Debug$u20$for$u20$read_fonts..table_ref..TableRef$LT$read_fonts..tables..variations..ItemVariationDataMarker$GT$$GT$3fmt17hc789333349f33d6cE
mullvad-gui:_ZN10read_fonts6tables10variations142_$LT$impl$u20$core..fmt..Debug$u20$for$u20$read_fonts..table_ref..TableRef$LT$read_fonts..tables..variations..ItemVariationStoreMarker$GT$$GT$3fmt17hd97418db90092787E
mullvad-gui:_ZN10read_fonts6tables10variations143_$LT$impl$u20$core..fmt..Debug$u20$for$u20$read_fonts..table_ref..TableRef$LT$read_fonts..tables..variations..VariationRegionListMarker$GT$$GT$3fmt17h59f32a9f965e15a3E
mullvad-gui:_ZN10read_fonts6tables10variations144_$LT$impl$u20$core..fmt..Debug$u20$for$u20$read_fonts..table_ref..TableRef$LT$read_fonts..tables..variations..TupleVariationHeaderMarker$GT$$GT$3fmt17hac68fb20ce34bf7aE
mullvad-gui:_ZN10read_fonts6tables10variations147_$LT$impl$u20$core..fmt..Debug$u20$for$u20$read_fonts..table_ref..TableRef$LT$read_fonts..tables..variations..DeltaSetIndexMapFormat0Marker$GT$$GT$3fmt17h4c6ed1dea52ffb64E
mullvad-gui:_ZN10read_fonts6tables10variations147_$LT$impl$u20$core..fmt..Debug$u20$for$u20$read_fonts..table_ref..TableRef$LT$read_fonts..tables..variations..DeltaSetIndexMapFormat1Marker$GT$$GT$3fmt17h9eaf6141d5f97d0cE
mullvad-gui:_ZN10read_fonts6tables10variations151_$LT$impl$u20$read_fonts..read..FontRead$u20$for$u20$read_fonts..table_ref..TableRef$LT$read_fonts..tables..variations..ItemVariationDataMarker$GT$$GT$4read17h589a071e09050520E
mullvad-gui:_ZN10read_fonts6tables10variations152_$LT$impl$u20$read_fonts..read..FontRead$u20$for$u20$read_fonts..table_ref..TableRef$LT$read_fonts..tables..variations..ItemVariationStoreMarker$GT$$GT$4read17ha0650791210d61ecE
mullvad-gui:_ZN10read_fonts6tables10variations153_$LT$impl$u20$read_fonts..read..FontRead$u20$for$u20$read_fonts..table_ref..TableRef$LT$read_fonts..tables..variations..VariationRegionListMarker$GT$$GT$4read17h3fcd28a50d587d51E
mullvad-gui:_ZN10read_fonts6tables10variations157_$LT$impl$u20$read_fonts..read..FontRead$u20$for$u20$read_fonts..table_ref..TableRef$LT$read_fonts..tables..variations..DeltaSetIndexMapFormat0Marker$GT$$GT$4read17h2f8059171916a666E
mullvad-gui:_ZN10read_fonts6tables10variations157_$LT$impl$u20$read_fonts..read..FontRead$u20$for$u20$read_fonts..table_ref..TableRef$LT$read_fonts..tables..variations..DeltaSetIndexMapFormat1Marker$GT$$GT$4read17hac5951b9080c25edE
mullvad-gui:_ZN10read_fonts6tables10variations157_$LT$impl$u20$read_fonts..traversal..SomeTable$u20$for$u20$read_fonts..table_ref..TableRef$LT$read_fonts..tables..variations..ItemVariationDataMarker$GT$$GT$9get_field17h318b0b01cfd8182bE
mullvad-gui:_ZN10read_fonts6tables10variations158_$LT$impl$u20$read_fonts..traversal..SomeTable$u20$for$u20$read_fonts..table_ref..TableRef$LT$read_fonts..tables..variations..ItemVariationStoreMarker$GT$$GT$9get_field17hff5753b204b64d27E
mullvad-gui:_ZN10read_fonts6tables10variations159_$LT$impl$u20$read_fonts..traversal..SomeTable$u20$for$u20$read_fonts..table_ref..TableRef$LT$read_fonts..tables..variations..VariationRegionListMarker$GT$$GT$9get_field17he298a5c254dcc566E
mullvad-gui:_ZN10read_fonts6tables10variations15VariationRegion14compute_scalar17he435c35db6a7acbbE
mullvad-gui:_ZN10read_fonts6tables10variations15VariationRegion18compute_scalar_f3217h817c0e8f83899838E
mullvad-gui:_ZN10read_fonts6tables10variations15VariationRegion4read17h001bcae200a1bd5cE
mullvad-gui:_ZN10read_fonts6tables10variations160_$LT$impl$u20$read_fonts..traversal..SomeTable$u20$for$u20$read_fonts..table_ref..TableRef$LT$read_fonts..tables..variations..TupleVariationHeaderMarker$GT$$GT$9get_field17h4462698867d1cb13E
mullvad-gui:_ZN10read_fonts6tables10variations162_$LT$impl$u20$read_fonts..read..FontReadWithArgs$u20$for$u20$read_fonts..table_ref..TableRef$LT$read_fonts..tables..variations..TupleVariationHeaderMarker$GT$$GT$14read_with_args17h2202b90532aa3c2bE
mullvad-gui:_ZN10read_fonts6tables10variations163_$LT$impl$u20$read_fonts..traversal..SomeTable$u20$for$u20$read_fonts..table_ref..TableRef$LT$read_fonts..tables..variations..DeltaSetIndexMapFormat0Marker$GT$$GT$9get_field17h835b735073f6c55aE
mullvad-gui:_ZN10read_fonts6tables10variations163_$LT$impl$u20$read_fonts..traversal..SomeTable$u20$for$u20$read_fonts..table_ref..TableRef$LT$read_fonts..tables..variations..DeltaSetIndexMapFormat1Marker$GT$$GT$9get_field17h5ffc35c52b523dfeE
mullvad-gui:_ZN10read_fonts6tables10variations16DeltaSetIndexMap12entry_format17hb81f9c2a7f4c7a73E
mullvad-gui:_ZN10read_fonts6tables10variations16DeltaSetIndexMap3get17hb2f56a5802798233E
mullvad-gui:_ZN10read_fonts6tables10variations16DeltaSetIndexMap6format17h251e0c630c041b63E
mullvad-gui:_ZN10read_fonts6tables10variations16DeltaSetIndexMap8map_data17h103ac561a82a6df6E
mullvad-gui:_ZN10read_fonts6tables10variations18PackedPointNumbers15split_off_front17hca3bc675ae70dbbaE
mullvad-gui:_ZN10read_fonts6tables10variations18PackedPointNumbers4iter17h298895da974fa987E
mullvad-gui:_ZN10read_fonts6tables10variations18PackedPointNumbers5count17h614352585299eb98E
mullvad-gui:_ZN10read_fonts6tables10variations21RegionAxisCoordinates10peak_coord17hef82b93006432a3aE
mullvad-gui:_ZN10read_fonts6tables10variations21RegionAxisCoordinates11start_coord17h54466f3fc6c2eda6E
mullvad-gui:_ZN10read_fonts6tables10variations21RegionAxisCoordinates9end_coord17h602334f1acc2a8fbE
mullvad-gui:_ZN10read_fonts6tables10variations5Tuple3get17h438828765a0b8e47E
mullvad-gui:_ZN10read_fonts6tables10variations5Tuple4read17h7cdec92c2a2975d9E
mullvad-gui:_ZN10read_fonts6tables3aat101_$LT$impl$u20$read_fonts..table_ref..TableRef$LT$read_fonts..tables..aat..ClassSubtableMarker$GT$$GT$11class_array17h6b0182131a2d447dE
mullvad-gui:_ZN10read_fonts6tables3aat101_$LT$impl$u20$read_fonts..table_ref..TableRef$LT$read_fonts..tables..aat..ClassSubtableMarker$GT$$GT$11first_glyph17h327b409b050dc80dE
mullvad-gui:_ZN10read_fonts6tables3aat101_$LT$impl$u20$read_fonts..table_ref..TableRef$LT$read_fonts..tables..aat..ClassSubtableMarker$GT$$GT$8n_glyphs17h338ca793c9f30c68E
mullvad-gui:_ZN10read_fonts6tables3aat10StateTable5class17h0d548ba5a81afe8dE
mullvad-gui:_ZN10read_fonts6tables3aat10StateTable5entry17hcc839d0fc360c6c2E
mullvad-gui:_ZN10read_fonts6tables3aat124_$LT$impl$u20$core..fmt..Debug$u20$for$u20$read_fonts..table_ref..TableRef$LT$read_fonts..tables..aat..Lookup0Marker$GT$$GT$3fmt17h5a64e744d0f7d702E
mullvad-gui:_ZN10read_fonts6tables3aat124_$LT$impl$u20$core..fmt..Debug$u20$for$u20$read_fonts..table_ref..TableRef$LT$read_fonts..tables..aat..Lookup2Marker$GT$$GT$3fmt17hb51176587f61bcbcE
mullvad-gui:_ZN10read_fonts6tables3aat124_$LT$impl$u20$core..fmt..Debug$u20$for$u20$read_fonts..table_ref..TableRef$LT$read_fonts..tables..aat..Lookup4Marker$GT$$GT$3fmt17h0599d4e71f84ab1eE
mullvad-gui:_ZN10read_fonts6tables3aat124_$LT$impl$u20$core..fmt..Debug$u20$for$u20$read_fonts..table_ref..TableRef$LT$read_fonts..tables..aat..Lookup6Marker$GT$$GT$3fmt17hd2e20b26ddf042a4E
mullvad-gui:_ZN10read_fonts6tables3aat124_$LT$impl$u20$core..fmt..Debug$u20$for$u20$read_fonts..table_ref..TableRef$LT$read_fonts..tables..aat..Lookup8Marker$GT$$GT$3fmt17h41363b33951b6604E
mullvad-gui:_ZN10read_fonts6tables3aat125_$LT$impl$u20$core..fmt..Debug$u20$for$u20$read_fonts..table_ref..TableRef$LT$read_fonts..tables..aat..Lookup10Marker$GT$$GT$3fmt17h919a4f3f00e620c9E
mullvad-gui:_ZN10read_fonts6tables3aat125_$LT$impl$u20$core..fmt..Debug$u20$for$u20$read_fonts..table_ref..TableRef$LT$read_fonts..tables..aat..RawBytesMarker$GT$$GT$3fmt17ha104609dde8b8dbcE
mullvad-gui:_ZN10read_fonts6tables3aat125_$LT$impl$u20$core..fmt..Debug$u20$for$u20$read_fonts..table_ref..TableRef$LT$read_fonts..tables..aat..RawWordsMarker$GT$$GT$3fmt17hf8133d168aa443f3E
mullvad-gui:_ZN10read_fonts6tables3aat126_$LT$impl$u20$core..fmt..Debug$u20$for$u20$read_fonts..table_ref..TableRef$LT$read_fonts..tables..aat..StxHeaderMarker$GT$$GT$3fmt17ha3ae5b644b37b337E
mullvad-gui:_ZN10read_fonts6tables3aat128_$LT$impl$u20$core..fmt..Debug$u20$for$u20$read_fonts..table_ref..TableRef$LT$read_fonts..tables..aat..StateHeaderMarker$GT$$GT$3fmt17h68fb46ed5ce2e586E
mullvad-gui:_ZN10read_fonts6tables3aat130_$LT$impl$u20$core..fmt..Debug$u20$for$u20$read_fonts..table_ref..TableRef$LT$read_fonts..tables..aat..ClassSubtableMarker$GT$$GT$3fmt17h7546de8147494acfE
mullvad-gui:_ZN10read_fonts6tables3aat134_$LT$impl$u20$read_fonts..read..FontRead$u20$for$u20$read_fonts..table_ref..TableRef$LT$read_fonts..tables..aat..Lookup0Marker$GT$$GT$4read17h69eaad569d4c4b9aE
mullvad-gui:_ZN10read_fonts6tables3aat134_$LT$impl$u20$read_fonts..read..FontRead$u20$for$u20$read_fonts..table_ref..TableRef$LT$read_fonts..tables..aat..Lookup2Marker$GT$$GT$4read17h247551389b303398E
mullvad-gui:_ZN10read_fonts6tables3aat134_$LT$impl$u20$read_fonts..read..FontRead$u20$for$u20$read_fonts..table_ref..TableRef$LT$read_fonts..tables..aat..Lookup4Marker$GT$$GT$4read17h16e0d00e805f9db6E
mullvad-gui:_ZN10read_fonts6tables3aat134_$LT$impl$u20$read_fonts..read..FontRead$u20$for$u20$read_fonts..table_ref..TableRef$LT$read_fonts..tables..aat..Lookup6Marker$GT$$GT$4read17h890a7eef2f165a1fE
mullvad-gui:_ZN10read_fonts6tables3aat134_$LT$impl$u20$read_fonts..read..FontRead$u20$for$u20$read_fonts..table_ref..TableRef$LT$read_fonts..tables..aat..Lookup8Marker$GT$$GT$4read17h3b109e8d6a689433E
mullvad-gui:_ZN10read_fonts6tables3aat135_$LT$impl$u20$read_fonts..read..FontRead$u20$for$u20$read_fonts..table_ref..TableRef$LT$read_fonts..tables..aat..Lookup10Marker$GT$$GT$4read17h7f3c0c430b26a240E
mullvad-gui:_ZN10read_fonts6tables3aat135_$LT$impl$u20$read_fonts..read..FontRead$u20$for$u20$read_fonts..table_ref..TableRef$LT$read_fonts..tables..aat..RawBytesMarker$GT$$GT$4read17h9d9d7404e8936d67E
mullvad-gui:_ZN10read_fonts6tables3aat135_$LT$impl$u20$read_fonts..read..FontRead$u20$for$u20$read_fonts..table_ref..TableRef$LT$read_fonts..tables..aat..RawWordsMarker$GT$$GT$4read17hd728bc8e91dab454E
mullvad-gui:_ZN10read_fonts6tables3aat136_$LT$impl$u20$read_fonts..read..FontRead$u20$for$u20$read_fonts..table_ref..TableRef$LT$read_fonts..tables..aat..StxHeaderMarker$GT$$GT$4read17h5bd76c165b5c0fc4E
mullvad-gui:_ZN10read_fonts6tables3aat138_$LT$impl$u20$read_fonts..read..FontRead$u20$for$u20$read_fonts..table_ref..TableRef$LT$read_fonts..tables..aat..StateHeaderMarker$GT$$GT$4read17h35f3d75ed8f26308E
mullvad-gui:_ZN10read_fonts6tables3aat140_$LT$impl$u20$read_fonts..read..FontRead$u20$for$u20$read_fonts..table_ref..TableRef$LT$read_fonts..tables..aat..ClassSubtableMarker$GT$$GT$4read17hb3a876c1c3927f29E
mullvad-gui:_ZN10read_fonts6tables3aat140_$LT$impl$u20$read_fonts..traversal..SomeTable$u20$for$u20$read_fonts..table_ref..TableRef$LT$read_fonts..tables..aat..Lookup0Marker$GT$$GT$9get_field17hdf627a005ce58189E
mullvad-gui:_ZN10read_fonts6tables3aat140_$LT$impl$u20$read_fonts..traversal..SomeTable$u20$for$u20$read_fonts..table_ref..TableRef$LT$read_fonts..tables..aat..Lookup2Marker$GT$$GT$9get_field17he551f7c5f1cb260eE
mullvad-gui:_ZN10read_fonts6tables3aat140_$LT$impl$u20$read_fonts..traversal..SomeTable$u20$for$u20$read_fonts..table_ref..TableRef$LT$read_fonts..tables..aat..Lookup4Marker$GT$$GT$9get_field17hdad4efae73433b10E
mullvad-gui:_ZN10read_fonts6tables3aat140_$LT$impl$u20$read_fonts..traversal..SomeTable$u20$for$u20$read_fonts..table_ref..TableRef$LT$read_fonts..tables..aat..Lookup6Marker$GT$$GT$9get_field17hcf5ba0af421b3149E
mullvad-gui:_ZN10read_fonts6tables3aat140_$LT$impl$u20$read_fonts..traversal..SomeTable$u20$for$u20$read_fonts..table_ref..TableRef$LT$read_fonts..tables..aat..Lookup8Marker$GT$$GT$9get_field17h1e80930d17bee608E
mullvad-gui:_ZN10read_fonts6tables3aat141_$LT$impl$u20$read_fonts..traversal..SomeTable$u20$for$u20$read_fonts..table_ref..TableRef$LT$read_fonts..tables..aat..Lookup10Marker$GT$$GT$9get_field17h84b9de1824e799bfE
mullvad-gui:_ZN10read_fonts6tables3aat141_$LT$impl$u20$read_fonts..traversal..SomeTable$u20$for$u20$read_fonts..table_ref..TableRef$LT$read_fonts..tables..aat..RawBytesMarker$GT$$GT$9get_field17h41b7443544f115dbE
mullvad-gui:_ZN10read_fonts6tables3aat141_$LT$impl$u20$read_fonts..traversal..SomeTable$u20$for$u20$read_fonts..table_ref..TableRef$LT$read_fonts..tables..aat..RawWordsMarker$GT$$GT$9get_field17haed96e87a8186135E
mullvad-gui:_ZN10read_fonts6tables3aat142_$LT$impl$u20$read_fonts..traversal..SomeTable$u20$for$u20$read_fonts..table_ref..TableRef$LT$read_fonts..tables..aat..StxHeaderMarker$GT$$GT$9get_field17hbdb683ec6c653861E
mullvad-gui:_ZN10read_fonts6tables3aat144_$LT$impl$u20$read_fonts..traversal..SomeTable$u20$for$u20$read_fonts..table_ref..TableRef$LT$read_fonts..tables..aat..StateHeaderMarker$GT$$GT$9get_field17hb9a4e717ce4d49b0E
mullvad-gui:_ZN10read_fonts6tables3aat146_$LT$impl$u20$read_fonts..traversal..SomeTable$u20$for$u20$read_fonts..table_ref..TableRef$LT$read_fonts..tables..aat..ClassSubtableMarker$GT$$GT$9get_field17haa0e18862af0a836E
mullvad-gui:_ZN10read_fonts6tables3aat14LookupSegment410last_glyph17hc0dcd97306b3135fE
mullvad-gui:_ZN10read_fonts6tables3aat14LookupSegment411first_glyph17h31dd751a248fcbb3E
mullvad-gui:_ZN10read_fonts6tables3aat14LookupSegment412value_offset17h522964838f9c4b51E
mullvad-gui:_ZN10read_fonts6tables3aat6Lookup6format17h182204b4c872c6beE
mullvad-gui:_ZN10read_fonts6tables3aat95_$LT$impl$u20$read_fonts..table_ref..TableRef$LT$read_fonts..tables..aat..Lookup0Marker$GT$$GT$11values_data17h91b76b252d54492aE
mullvad-gui:_ZN10read_fonts6tables3aat95_$LT$impl$u20$read_fonts..table_ref..TableRef$LT$read_fonts..tables..aat..Lookup0Marker$GT$$GT$6format17h7b1f3df117a50428E
mullvad-gui:_ZN10read_fonts6tables3aat95_$LT$impl$u20$read_fonts..table_ref..TableRef$LT$read_fonts..tables..aat..Lookup2Marker$GT$$GT$11range_shift17hd9ba3c7072b302bdE
mullvad-gui:_ZN10read_fonts6tables3aat95_$LT$impl$u20$read_fonts..table_ref..TableRef$LT$read_fonts..tables..aat..Lookup2Marker$GT$$GT$12search_range17hfc9548c3ab0a310aE
mullvad-gui:_ZN10read_fonts6tables3aat95_$LT$impl$u20$read_fonts..table_ref..TableRef$LT$read_fonts..tables..aat..Lookup2Marker$GT$$GT$13segments_data17he1db6b4efbf59e15E
mullvad-gui:_ZN10read_fonts6tables3aat95_$LT$impl$u20$read_fonts..table_ref..TableRef$LT$read_fonts..tables..aat..Lookup2Marker$GT$$GT$14entry_selector17hf03beaf929d1a4a1E
mullvad-gui:_ZN10read_fonts6tables3aat95_$LT$impl$u20$read_fonts..table_ref..TableRef$LT$read_fonts..tables..aat..Lookup2Marker$GT$$GT$6format17h15f8b31fac8b13dbE
mullvad-gui:_ZN10read_fonts6tables3aat95_$LT$impl$u20$read_fonts..table_ref..TableRef$LT$read_fonts..tables..aat..Lookup2Marker$GT$$GT$7n_units17hfe3a554e3b6fc2ebE
mullvad-gui:_ZN10read_fonts6tables3aat95_$LT$impl$u20$read_fonts..table_ref..TableRef$LT$read_fonts..tables..aat..Lookup2Marker$GT$$GT$9unit_size17h3c50040ee7a2ca2cE
mullvad-gui:_ZN10read_fonts6tables3aat95_$LT$impl$u20$read_fonts..table_ref..TableRef$LT$read_fonts..tables..aat..Lookup4Marker$GT$$GT$11range_shift17h3c64634f0cd72a2bE
mullvad-gui:_ZN10read_fonts6tables3aat95_$LT$impl$u20$read_fonts..table_ref..TableRef$LT$read_fonts..tables..aat..Lookup4Marker$GT$$GT$12search_range17h09e163467790363bE
mullvad-gui:_ZN10read_fonts6tables3aat95_$LT$impl$u20$read_fonts..table_ref..TableRef$LT$read_fonts..tables..aat..Lookup4Marker$GT$$GT$14entry_selector17h2cfea392925b5545E
mullvad-gui:_ZN10read_fonts6tables3aat95_$LT$impl$u20$read_fonts..table_ref..TableRef$LT$read_fonts..tables..aat..Lookup4Marker$GT$$GT$6format17h70ce894f557af1deE
mullvad-gui:_ZN10read_fonts6tables3aat95_$LT$impl$u20$read_fonts..table_ref..TableRef$LT$read_fonts..tables..aat..Lookup4Marker$GT$$GT$7n_units17h9654ddc1ee6551c2E
mullvad-gui:_ZN10read_fonts6tables3aat95_$LT$impl$u20$read_fonts..table_ref..TableRef$LT$read_fonts..tables..aat..Lookup4Marker$GT$$GT$8segments17hf433feba5289c7f2E
mullvad-gui:_ZN10read_fonts6tables3aat95_$LT$impl$u20$read_fonts..table_ref..TableRef$LT$read_fonts..tables..aat..Lookup4Marker$GT$$GT$9unit_size17h512613215b82e762E
mullvad-gui:_ZN10read_fonts6tables3aat95_$LT$impl$u20$read_fonts..table_ref..TableRef$LT$read_fonts..tables..aat..Lookup6Marker$GT$$GT$11range_shift17h47f5db90fb8e95c5E
mullvad-gui:_ZN10read_fonts6tables3aat95_$LT$impl$u20$read_fonts..table_ref..TableRef$LT$read_fonts..tables..aat..Lookup6Marker$GT$$GT$12entries_data17h467301244e7c660dE
mullvad-gui:_ZN10read_fonts6tables3aat95_$LT$impl$u20$read_fonts..table_ref..TableRef$LT$read_fonts..tables..aat..Lookup6Marker$GT$$GT$12search_range17h59f337a6a56c3fc9E
mullvad-gui:_ZN10read_fonts6tables3aat95_$LT$impl$u20$read_fonts..table_ref..TableRef$LT$read_fonts..tables..aat..Lookup6Marker$GT$$GT$14entry_selector17haff5da02a27b3215E
mullvad-gui:_ZN10read_fonts6tables3aat95_$LT$impl$u20$read_fonts..table_ref..TableRef$LT$read_fonts..tables..aat..Lookup6Marker$GT$$GT$6format17hc084a5d94107bcccE
mullvad-gui:_ZN10read_fonts6tables3aat95_$LT$impl$u20$read_fonts..table_ref..TableRef$LT$read_fonts..tables..aat..Lookup6Marker$GT$$GT$7n_units17h05b2603bcf6bf04dE
mullvad-gui:_ZN10read_fonts6tables3aat95_$LT$impl$u20$read_fonts..table_ref..TableRef$LT$read_fonts..tables..aat..Lookup6Marker$GT$$GT$9unit_size17h883bcdc7966a9703E
mullvad-gui:_ZN10read_fonts6tables3aat95_$LT$impl$u20$read_fonts..table_ref..TableRef$LT$read_fonts..tables..aat..Lookup8Marker$GT$$GT$11first_glyph17h56e8b6248d38f6cbE
mullvad-gui:_ZN10read_fonts6tables3aat95_$LT$impl$u20$read_fonts..table_ref..TableRef$LT$read_fonts..tables..aat..Lookup8Marker$GT$$GT$11glyph_count17h64db0bb63828134dE
mullvad-gui:_ZN10read_fonts6tables3aat95_$LT$impl$u20$read_fonts..table_ref..TableRef$LT$read_fonts..tables..aat..Lookup8Marker$GT$$GT$11value_array17he60fc4f037ecbb13E
mullvad-gui:_ZN10read_fonts6tables3aat95_$LT$impl$u20$read_fonts..table_ref..TableRef$LT$read_fonts..tables..aat..Lookup8Marker$GT$$GT$6format17h187e8dc15cdb678dE
mullvad-gui:_ZN10read_fonts6tables3aat96_$LT$impl$u20$read_fonts..table_ref..TableRef$LT$read_fonts..tables..aat..Lookup10Marker$GT$$GT$11first_glyph17h3812c013fb9911a3E
mullvad-gui:_ZN10read_fonts6tables3aat96_$LT$impl$u20$read_fonts..table_ref..TableRef$LT$read_fonts..tables..aat..Lookup10Marker$GT$$GT$11glyph_count17hdcf1918c4426c19dE
mullvad-gui:_ZN10read_fonts6tables3aat96_$LT$impl$u20$read_fonts..table_ref..TableRef$LT$read_fonts..tables..aat..Lookup10Marker$GT$$GT$11values_data17hbbed025ea08e66ccE
mullvad-gui:_ZN10read_fonts6tables3aat96_$LT$impl$u20$read_fonts..table_ref..TableRef$LT$read_fonts..tables..aat..Lookup10Marker$GT$$GT$6format17h2acba545c55d9852E
mullvad-gui:_ZN10read_fonts6tables3aat96_$LT$impl$u20$read_fonts..table_ref..TableRef$LT$read_fonts..tables..aat..Lookup10Marker$GT$$GT$9unit_size17h70aad614ce1754e1E
mullvad-gui:_ZN10read_fonts6tables3aat96_$LT$impl$u20$read_fonts..table_ref..TableRef$LT$read_fonts..tables..aat..RawBytesMarker$GT$$GT$4data17h883c7175d3ecfb78E
mullvad-gui:_ZN10read_fonts6tables3aat96_$LT$impl$u20$read_fonts..table_ref..TableRef$LT$read_fonts..tables..aat..RawWordsMarker$GT$$GT$4data17h7b4edd9c5666eb85E
mullvad-gui:_ZN10read_fonts6tables3aat97_$LT$impl$u20$read_fonts..table_ref..TableRef$LT$read_fonts..tables..aat..StxHeaderMarker$GT$$GT$11class_table17h2531afdde91b2126E
mullvad-gui:_ZN10read_fonts6tables3aat97_$LT$impl$u20$read_fonts..table_ref..TableRef$LT$read_fonts..tables..aat..StxHeaderMarker$GT$$GT$11entry_table17hf3e7eb7a829b744fE
mullvad-gui:_ZN10read_fonts6tables3aat97_$LT$impl$u20$read_fonts..table_ref..TableRef$LT$read_fonts..tables..aat..StxHeaderMarker$GT$$GT$11state_array17h069643a7c5a7714bE
mullvad-gui:_ZN10read_fonts6tables3aat97_$LT$impl$u20$read_fonts..table_ref..TableRef$LT$read_fonts..tables..aat..StxHeaderMarker$GT$$GT$18class_table_offset17h7ffa45227e0cbc22E
mullvad-gui:_ZN10read_fonts6tables3aat97_$LT$impl$u20$read_fonts..table_ref..TableRef$LT$read_fonts..tables..aat..StxHeaderMarker$GT$$GT$18entry_table_offset17he4c875246c66689aE
mullvad-gui:_ZN10read_fonts6tables3aat97_$LT$impl$u20$read_fonts..table_ref..TableRef$LT$read_fonts..tables..aat..StxHeaderMarker$GT$$GT$18state_array_offset17hf02f5379bada920aE
mullvad-gui:_ZN10read_fonts6tables3aat97_$LT$impl$u20$read_fonts..table_ref..TableRef$LT$read_fonts..tables..aat..StxHeaderMarker$GT$$GT$9n_classes17hcfdfdba4d7bc2f93E
mullvad-gui:_ZN10read_fonts6tables3aat99_$LT$impl$u20$read_fonts..table_ref..TableRef$LT$read_fonts..tables..aat..StateHeaderMarker$GT$$GT$10state_size17h93c558aad91f6c2fE
mullvad-gui:_ZN10read_fonts6tables3aat99_$LT$impl$u20$read_fonts..table_ref..TableRef$LT$read_fonts..tables..aat..StateHeaderMarker$GT$$GT$11class_table17heb3f4d3bb1266f73E
mullvad-gui:_ZN10read_fonts6tables3aat99_$LT$impl$u20$read_fonts..table_ref..TableRef$LT$read_fonts..tables..aat..StateHeaderMarker$GT$$GT$11entry_table17hc66b73ab36cd010cE
mullvad-gui:_ZN10read_fonts6tables3aat99_$LT$impl$u20$read_fonts..table_ref..TableRef$LT$read_fonts..tables..aat..StateHeaderMarker$GT$$GT$11state_array17hfd3dd1d6535b0de9E
mullvad-gui:_ZN10read_fonts6tables3aat99_$LT$impl$u20$read_fonts..table_ref..TableRef$LT$read_fonts..tables..aat..StateHeaderMarker$GT$$GT$18class_table_offset17h692fd3d3b74ed2c8E
mullvad-gui:_ZN10read_fonts6tables3aat99_$LT$impl$u20$read_fonts..table_ref..TableRef$LT$read_fonts..tables..aat..StateHeaderMarker$GT$$GT$18entry_table_offset17h032a20aac6718858E
mullvad-gui:_ZN10read_fonts6tables3aat99_$LT$impl$u20$read_fonts..table_ref..TableRef$LT$read_fonts..tables..aat..StateHeaderMarker$GT$$GT$18state_array_offset17h2e5389e8aef44605E
mullvad-gui:_ZN10read_fonts6tables3cff126_$LT$impl$u20$core..fmt..Debug$u20$for$u20$read_fonts..table_ref..TableRef$LT$read_fonts..tables..cff..CffHeaderMarker$GT$$GT$3fmt17hc642a08f5ffcf324E
mullvad-gui:_ZN10read_fonts6tables3cff136_$LT$impl$u20$read_fonts..read..FontRead$u20$for$u20$read_fonts..table_ref..TableRef$LT$read_fonts..tables..cff..CffHeaderMarker$GT$$GT$4read17hdda4685ef9b2f25eE
mullvad-gui:_ZN10read_fonts6tables3cff142_$LT$impl$u20$read_fonts..traversal..SomeTable$u20$for$u20$read_fonts..table_ref..TableRef$LT$read_fonts..tables..cff..CffHeaderMarker$GT$$GT$9get_field17h5b318b101ab8064cE
mullvad-gui:_ZN10read_fonts6tables3cff3Cff4name17h0661a460677183c5E
mullvad-gui:_ZN10read_fonts6tables3cff3Cff6string17h95a8a0afa6b314f4E
mullvad-gui:_ZN10read_fonts6tables3cff97_$LT$impl$u20$read_fonts..table_ref..TableRef$LT$read_fonts..tables..cff..CffHeaderMarker$GT$$GT$13trailing_data17hc92d50027837b716E
mullvad-gui:_ZN10read_fonts6tables3cff97_$LT$impl$u20$read_fonts..table_ref..TableRef$LT$read_fonts..tables..cff..CffHeaderMarker$GT$$GT$5major17h914cff955efc92ebE
mullvad-gui:_ZN10read_fonts6tables3cff97_$LT$impl$u20$read_fonts..table_ref..TableRef$LT$read_fonts..tables..cff..CffHeaderMarker$GT$$GT$5minor17hed7984f8bc31bf65E
mullvad-gui:_ZN10read_fonts6tables3cff97_$LT$impl$u20$read_fonts..table_ref..TableRef$LT$read_fonts..tables..cff..CffHeaderMarker$GT$$GT$8_padding17h1e0c39c8a40b5915E
mullvad-gui:_ZN10read_fonts6tables3cff97_$LT$impl$u20$read_fonts..table_ref..TableRef$LT$read_fonts..tables..cff..CffHeaderMarker$GT$$GT$8hdr_size17h7a54f4628b5a0efdE
mullvad-gui:_ZN10read_fonts6tables3cff97_$LT$impl$u20$read_fonts..table_ref..TableRef$LT$read_fonts..tables..cff..CffHeaderMarker$GT$$GT$8off_size17hfa23e30c94643801E
mullvad-gui:_ZN10read_fonts6tables3ift100_$LT$impl$u20$read_fonts..table_ref..TableRef$LT$read_fonts..tables..ift..IdStringDataMarker$GT$$GT$7id_data17h8fa7acc0178daf20E
mullvad-gui:_ZN10read_fonts6tables3ift102_$LT$impl$u20$read_fonts..table_ref..TableRef$LT$read_fonts..tables..ift..MappingEntriesMarker$GT$$GT$10entry_data17h1d2a3b4795fdc652E
mullvad-gui:_ZN10read_fonts6tables3ift103_$LT$impl$u20$read_fonts..table_ref..TableRef$LT$read_fonts..tables..ift..PatchMapFormat1Marker$GT$$GT$11entry_count17h2e9cdbe1eea31233E
mullvad-gui:_ZN10read_fonts6tables3ift103_$LT$impl$u20$read_fonts..table_ref..TableRef$LT$read_fonts..tables..ift..PatchMapFormat1Marker$GT$$GT$11feature_map17h92455ed9c8fb266bE
mullvad-gui:_ZN10read_fonts6tables3ift103_$LT$impl$u20$read_fonts..table_ref..TableRef$LT$read_fonts..tables..ift..PatchMapFormat1Marker$GT$$GT$11glyph_count17hb80e17c6397977daE
mullvad-gui:_ZN10read_fonts6tables3ift103_$LT$impl$u20$read_fonts..table_ref..TableRef$LT$read_fonts..tables..ift..PatchMapFormat1Marker$GT$$GT$12uri_template17h75bb7c35f537f028E
mullvad-gui:_ZN10read_fonts6tables3ift103_$LT$impl$u20$read_fonts..table_ref..TableRef$LT$read_fonts..tables..ift..PatchMapFormat1Marker$GT$$GT$14patch_encoding17h5fdcc945f6074754E
mullvad-gui:_ZN10read_fonts6tables3ift103_$LT$impl$u20$read_fonts..table_ref..TableRef$LT$read_fonts..tables..ift..PatchMapFormat1Marker$GT$$GT$15max_entry_index17h072f7dc09ba0ec64E
mullvad-gui:_ZN10read_fonts6tables3ift103_$LT$impl$u20$read_fonts..table_ref..TableRef$LT$read_fonts..tables..ift..PatchMapFormat1Marker$GT$$GT$16compatibility_id17hb22657389a603512E
mullvad-gui:_ZN10read_fonts6tables3ift103_$LT$impl$u20$read_fonts..table_ref..TableRef$LT$read_fonts..tables..ift..PatchMapFormat1Marker$GT$$GT$16glyph_map_offset17hd9c64ea091ca828bE
mullvad-gui:_ZN10read_fonts6tables3ift103_$LT$impl$u20$read_fonts..table_ref..TableRef$LT$read_fonts..tables..ift..PatchMapFormat1Marker$GT$$GT$16is_entry_applied17hf4ee1016f0cdaea8E
mullvad-gui:_ZN10read_fonts6tables3ift103_$LT$impl$u20$read_fonts..table_ref..TableRef$LT$read_fonts..tables..ift..PatchMapFormat1Marker$GT$$GT$17gid_to_entry_iter17hac656f83a0768da3E
mullvad-gui:_ZN10read_fonts6tables3ift103_$LT$impl$u20$read_fonts..table_ref..TableRef$LT$read_fonts..tables..ift..PatchMapFormat1Marker$GT$$GT$18feature_map_offset17h4bc0cbf00990251aE
mullvad-gui:_ZN10read_fonts6tables3ift103_$LT$impl$u20$read_fonts..table_ref..TableRef$LT$read_fonts..tables..ift..PatchMapFormat1Marker$GT$$GT$19uri_template_length17hb5455862925940b6E
mullvad-gui:_ZN10read_fonts6tables3ift103_$LT$impl$u20$read_fonts..table_ref..TableRef$LT$read_fonts..tables..ift..PatchMapFormat1Marker$GT$$GT$20get_compatibility_id17h9e91b3339f42204cE
mullvad-gui:_ZN10read_fonts6tables3ift103_$LT$impl$u20$read_fonts..table_ref..TableRef$LT$read_fonts..tables..ift..PatchMapFormat1Marker$GT$$GT$22applied_entries_bitmap17hc320f2367d0e6286E
mullvad-gui:_ZN10read_fonts6tables3ift103_$LT$impl$u20$read_fonts..table_ref..TableRef$LT$read_fonts..tables..ift..PatchMapFormat1Marker$GT$$GT$22uri_template_as_string17hf43aa13b6a722777E
mullvad-gui:_ZN10read_fonts6tables3ift103_$LT$impl$u20$read_fonts..table_ref..TableRef$LT$read_fonts..tables..ift..PatchMapFormat1Marker$GT$$GT$25max_glyph_map_entry_index17h438f9b20adeb5d85E
mullvad-gui:_ZN10read_fonts6tables3ift103_$LT$impl$u20$read_fonts..table_ref..TableRef$LT$read_fonts..tables..ift..PatchMapFormat1Marker$GT$$GT$6format17h020c22eaf39f0970E
mullvad-gui:_ZN10read_fonts6tables3ift103_$LT$impl$u20$read_fonts..table_ref..TableRef$LT$read_fonts..tables..ift..PatchMapFormat1Marker$GT$$GT$9glyph_map17h0d4aa1752db7b271E
mullvad-gui:_ZN10read_fonts6tables3ift103_$LT$impl$u20$read_fonts..table_ref..TableRef$LT$read_fonts..tables..ift..PatchMapFormat2Marker$GT$$GT$11entry_count17h828edeb81273a08fE
mullvad-gui:_ZN10read_fonts6tables3ift103_$LT$impl$u20$read_fonts..table_ref..TableRef$LT$read_fonts..tables..ift..PatchMapFormat2Marker$GT$$GT$12uri_template17h8070d01345601a88E
mullvad-gui:_ZN10read_fonts6tables3ift103_$LT$impl$u20$read_fonts..table_ref..TableRef$LT$read_fonts..tables..ift..PatchMapFormat2Marker$GT$$GT$14entries_offset17hc4115e83537edea8E
mullvad-gui:_ZN10read_fonts6tables3ift103_$LT$impl$u20$read_fonts..table_ref..TableRef$LT$read_fonts..tables..ift..PatchMapFormat2Marker$GT$$GT$16compatibility_id17hf4b6392d786b6dc2E
mullvad-gui:_ZN10read_fonts6tables3ift103_$LT$impl$u20$read_fonts..table_ref..TableRef$LT$read_fonts..tables..ift..PatchMapFormat2Marker$GT$$GT$19uri_template_length17h6f46b4ae6a6492c3E
mullvad-gui:_ZN10read_fonts6tables3ift103_$LT$impl$u20$read_fonts..table_ref..TableRef$LT$read_fonts..tables..ift..PatchMapFormat2Marker$GT$$GT$20entry_id_string_data17h02f315b1711485e1E
mullvad-gui:_ZN10read_fonts6tables3ift103_$LT$impl$u20$read_fonts..table_ref..TableRef$LT$read_fonts..tables..ift..PatchMapFormat2Marker$GT$$GT$20get_compatibility_id17h9144c6f9488a0a7bE
mullvad-gui:_ZN10read_fonts6tables3ift103_$LT$impl$u20$read_fonts..table_ref..TableRef$LT$read_fonts..tables..ift..PatchMapFormat2Marker$GT$$GT$22default_patch_encoding17hab7e2457658b434dE
mullvad-gui:_ZN10read_fonts6tables3ift103_$LT$impl$u20$read_fonts..table_ref..TableRef$LT$read_fonts..tables..ift..PatchMapFormat2Marker$GT$$GT$22uri_template_as_string17h4598e5414a5b09abE
mullvad-gui:_ZN10read_fonts6tables3ift103_$LT$impl$u20$read_fonts..table_ref..TableRef$LT$read_fonts..tables..ift..PatchMapFormat2Marker$GT$$GT$27entry_id_string_data_offset17h5ef5af3fde6f4c95E
mullvad-gui:_ZN10read_fonts6tables3ift103_$LT$impl$u20$read_fonts..table_ref..TableRef$LT$read_fonts..tables..ift..PatchMapFormat2Marker$GT$$GT$6format17ha24a31e2eee6a2fcE
mullvad-gui:_ZN10read_fonts6tables3ift103_$LT$impl$u20$read_fonts..table_ref..TableRef$LT$read_fonts..tables..ift..PatchMapFormat2Marker$GT$$GT$7entries17hedef5857985ae8a4E
mullvad-gui:_ZN10read_fonts6tables3ift125_$LT$impl$u20$core..fmt..Debug$u20$for$u20$read_fonts..table_ref..TableRef$LT$read_fonts..tables..ift..GlyphMapMarker$GT$$GT$3fmt17h3785e490ad80449cE
mullvad-gui:_ZN10read_fonts6tables3ift126_$LT$impl$u20$core..fmt..Debug$u20$for$u20$read_fonts..table_ref..TableRef$LT$read_fonts..tables..ift..EntryDataMarker$GT$$GT$3fmt17hf859d1f32aef7257E
mullvad-gui:_ZN10read_fonts6tables3ift127_$LT$impl$u20$core..fmt..Debug$u20$for$u20$read_fonts..table_ref..TableRef$LT$read_fonts..tables..ift..FeatureMapMarker$GT$$GT$3fmt17h2a9feb0ce8482265E
mullvad-gui:_ZN10read_fonts6tables3ift129_$LT$impl$u20$core..fmt..Debug$u20$for$u20$read_fonts..table_ref..TableRef$LT$read_fonts..tables..ift..IdStringDataMarker$GT$$GT$3fmt17hbab6115da0f5889cE
mullvad-gui:_ZN10read_fonts6tables3ift131_$LT$impl$u20$core..fmt..Debug$u20$for$u20$read_fonts..table_ref..TableRef$LT$read_fonts..tables..ift..MappingEntriesMarker$GT$$GT$3fmt17h48c26fa18b43f042E
mullvad-gui:_ZN10read_fonts6tables3ift132_$LT$impl$u20$core..fmt..Debug$u20$for$u20$read_fonts..table_ref..TableRef$LT$read_fonts..tables..ift..PatchMapFormat1Marker$GT$$GT$3fmt17h0d18fd32972bea41E
mullvad-gui:_ZN10read_fonts6tables3ift132_$LT$impl$u20$core..fmt..Debug$u20$for$u20$read_fonts..table_ref..TableRef$LT$read_fonts..tables..ift..PatchMapFormat2Marker$GT$$GT$3fmt17hfc7ad0d60b180a90E
mullvad-gui:_ZN10read_fonts6tables3ift139_$LT$impl$u20$read_fonts..read..FontRead$u20$for$u20$read_fonts..table_ref..TableRef$LT$read_fonts..tables..ift..IdStringDataMarker$GT$$GT$4read17h3e8d72a5c0a52463E
mullvad-gui:_ZN10read_fonts6tables3ift13FeatureRecord4read17h779ba8cfcf2a5002E
mullvad-gui:_ZN10read_fonts6tables3ift141_$LT$impl$u20$read_fonts..read..FontRead$u20$for$u20$read_fonts..table_ref..TableRef$LT$read_fonts..tables..ift..MappingEntriesMarker$GT$$GT$4read17h479b1e4abb396ad6E
mullvad-gui:_ZN10read_fonts6tables3ift141_$LT$impl$u20$read_fonts..traversal..SomeTable$u20$for$u20$read_fonts..table_ref..TableRef$LT$read_fonts..tables..ift..GlyphMapMarker$GT$$GT$9get_field17h09314cea1a3ad5c2E
mullvad-gui:_ZN10read_fonts6tables3ift142_$LT$impl$u20$read_fonts..read..FontRead$u20$for$u20$read_fonts..table_ref..TableRef$LT$read_fonts..tables..ift..PatchMapFormat1Marker$GT$$GT$4read17h7d0d16b0d1384abfE
mullvad-gui:_ZN10read_fonts6tables3ift142_$LT$impl$u20$read_fonts..read..FontRead$u20$for$u20$read_fonts..table_ref..TableRef$LT$read_fonts..tables..ift..PatchMapFormat2Marker$GT$$GT$4read17hdde5716908d7db92E
mullvad-gui:_ZN10read_fonts6tables3ift142_$LT$impl$u20$read_fonts..traversal..SomeTable$u20$for$u20$read_fonts..table_ref..TableRef$LT$read_fonts..tables..ift..EntryDataMarker$GT$$GT$9get_field17h7334f6abfe19341bE
mullvad-gui:_ZN10read_fonts6tables3ift143_$LT$impl$u20$read_fonts..read..FontReadWithArgs$u20$for$u20$read_fonts..table_ref..TableRef$LT$read_fonts..tables..ift..GlyphMapMarker$GT$$GT$14read_with_args17h6c235f79cf93d499E
mullvad-gui:_ZN10read_fonts6tables3ift143_$LT$impl$u20$read_fonts..traversal..SomeTable$u20$for$u20$read_fonts..table_ref..TableRef$LT$read_fonts..tables..ift..FeatureMapMarker$GT$$GT$9get_field17h60d8f09f435e2e80E
mullvad-gui:_ZN10read_fonts6tables3ift144_$LT$impl$u20$read_fonts..read..FontReadWithArgs$u20$for$u20$read_fonts..table_ref..TableRef$LT$read_fonts..tables..ift..EntryDataMarker$GT$$GT$14read_with_args17hbb288181146fa9ffE
mullvad-gui:_ZN10read_fonts6tables3ift145_$LT$impl$u20$read_fonts..read..FontReadWithArgs$u20$for$u20$read_fonts..table_ref..TableRef$LT$read_fonts..tables..ift..FeatureMapMarker$GT$$GT$14read_with_args17hb1dfcea86544e2d0E
mullvad-gui:_ZN10read_fonts6tables3ift145_$LT$impl$u20$read_fonts..traversal..SomeTable$u20$for$u20$read_fonts..table_ref..TableRef$LT$read_fonts..tables..ift..IdStringDataMarker$GT$$GT$9get_field17hce52c55239e5303cE
mullvad-gui:_ZN10read_fonts6tables3ift147_$LT$impl$u20$read_fonts..traversal..SomeTable$u20$for$u20$read_fonts..table_ref..TableRef$LT$read_fonts..tables..ift..MappingEntriesMarker$GT$$GT$9get_field17hec510ba1c2a65aa6E
mullvad-gui:_ZN10read_fonts6tables3ift148_$LT$impl$u20$read_fonts..traversal..SomeTable$u20$for$u20$read_fonts..table_ref..TableRef$LT$read_fonts..tables..ift..PatchMapFormat1Marker$GT$$GT$9get_field17h58339c20d5ee0a06E
mullvad-gui:_ZN10read_fonts6tables3ift148_$LT$impl$u20$read_fonts..traversal..SomeTable$u20$for$u20$read_fonts..table_ref..TableRef$LT$read_fonts..tables..ift..PatchMapFormat2Marker$GT$$GT$9get_field17hb83257dce6d4e4cbE
mullvad-gui:_ZN10read_fonts6tables3ift14EntryMapRecord4read17h890e9fed9a68a548E
mullvad-gui:_ZN10read_fonts6tables3ift18DesignSpaceSegment3end17h42e7c36073ea3904E
mullvad-gui:_ZN10read_fonts6tables3ift18DesignSpaceSegment5start17hf64610c433f523bbE
mullvad-gui:_ZN10read_fonts6tables3ift3Ift12uri_template17h4d0b36cbe933860cE
mullvad-gui:_ZN10read_fonts6tables3ift3Ift16compatibility_id17h4e20d17150652190E
mullvad-gui:_ZN10read_fonts6tables3ift3Ift19uri_template_length17hfa0e1d04a7645d20E
mullvad-gui:_ZN10read_fonts6tables3ift3Ift6format17hb1e85489d1d57fc4E
mullvad-gui:_ZN10read_fonts6tables3ift96_$LT$impl$u20$read_fonts..table_ref..TableRef$LT$read_fonts..tables..ift..GlyphMapMarker$GT$$GT$11entry_index17h65e3bd016029758bE
mullvad-gui:_ZN10read_fonts6tables3ift96_$LT$impl$u20$read_fonts..table_ref..TableRef$LT$read_fonts..tables..ift..GlyphMapMarker$GT$$GT$18first_mapped_glyph17h21e4fc14f8e9ac8fE
mullvad-gui:_ZN10read_fonts6tables3ift96_$LT$impl$u20$read_fonts..table_ref..TableRef$LT$read_fonts..tables..ift..GlyphMapMarker$GT$$GT$4read17h70fb18aff12a835eE
mullvad-gui:_ZN10read_fonts6tables3ift97_$LT$impl$u20$read_fonts..table_ref..TableRef$LT$read_fonts..tables..ift..EntryDataMarker$GT$$GT$10copy_count17h9fe15a697f09a20aE
mullvad-gui:_ZN10read_fonts6tables3ift97_$LT$impl$u20$read_fonts..table_ref..TableRef$LT$read_fonts..tables..ift..EntryDataMarker$GT$$GT$12copy_indices17h2f41915b18fa75d4E
mullvad-gui:_ZN10read_fonts6tables3ift97_$LT$impl$u20$read_fonts..table_ref..TableRef$LT$read_fonts..tables..ift..EntryDataMarker$GT$$GT$12feature_tags17h6ca264420ed7c492E
mullvad-gui:_ZN10read_fonts6tables3ift97_$LT$impl$u20$read_fonts..table_ref..TableRef$LT$read_fonts..tables..ift..EntryDataMarker$GT$$GT$12format_flags17h379385f8ee6826a8E
mullvad-gui:_ZN10read_fonts6tables3ift97_$LT$impl$u20$read_fonts..table_ref..TableRef$LT$read_fonts..tables..ift..EntryDataMarker$GT$$GT$13feature_count17ha9d509047d539673E
mullvad-gui:_ZN10read_fonts6tables3ift97_$LT$impl$u20$read_fonts..table_ref..TableRef$LT$read_fonts..tables..ift..EntryDataMarker$GT$$GT$14codepoint_data17h591d83729f336ba5E
mullvad-gui:_ZN10read_fonts6tables3ift97_$LT$impl$u20$read_fonts..table_ref..TableRef$LT$read_fonts..tables..ift..EntryDataMarker$GT$$GT$14entry_id_delta17h84701dd484088373E
mullvad-gui:_ZN10read_fonts6tables3ift97_$LT$impl$u20$read_fonts..table_ref..TableRef$LT$read_fonts..tables..ift..EntryDataMarker$GT$$GT$14patch_encoding17hee3c96c1b15560d5E
mullvad-gui:_ZN10read_fonts6tables3ift97_$LT$impl$u20$read_fonts..table_ref..TableRef$LT$read_fonts..tables..ift..EntryDataMarker$GT$$GT$18design_space_count17ha3e546b8ad1dfdd2E
mullvad-gui:_ZN10read_fonts6tables3ift97_$LT$impl$u20$read_fonts..table_ref..TableRef$LT$read_fonts..tables..ift..EntryDataMarker$GT$$GT$21design_space_segments17h5d8a6ac3b5bed780E
mullvad-gui:_ZN10read_fonts6tables3ift97_$LT$impl$u20$read_fonts..table_ref..TableRef$LT$read_fonts..tables..ift..EntryDataMarker$GT$$GT$4read17h8e01ac9c86976c73E
mullvad-gui:_ZN10read_fonts6tables3ift98_$LT$impl$u20$read_fonts..table_ref..TableRef$LT$read_fonts..tables..ift..FeatureMapMarker$GT$$GT$13feature_count17h6f71a52431ef7fe5E
mullvad-gui:_ZN10read_fonts6tables3ift98_$LT$impl$u20$read_fonts..table_ref..TableRef$LT$read_fonts..tables..ift..FeatureMapMarker$GT$$GT$14entry_map_data17h421cd1f040a8fce8E
mullvad-gui:_ZN10read_fonts6tables3ift98_$LT$impl$u20$read_fonts..table_ref..TableRef$LT$read_fonts..tables..ift..FeatureMapMarker$GT$$GT$15feature_records17h7159807953be378bE
mullvad-gui:_ZN10read_fonts6tables3ift98_$LT$impl$u20$read_fonts..table_ref..TableRef$LT$read_fonts..tables..ift..FeatureMapMarker$GT$$GT$18entry_records_size17hb52f6086d929e68dE
mullvad-gui:_ZN10read_fonts6tables3ift98_$LT$impl$u20$read_fonts..table_ref..TableRef$LT$read_fonts..tables..ift..FeatureMapMarker$GT$$GT$4read17h6630debbfcdef52fE
mullvad-gui:_ZN10read_fonts6tables3os2120_$LT$impl$u20$core..fmt..Debug$u20$for$u20$read_fonts..table_ref..TableRef$LT$read_fonts..tables..os2..Os2Marker$GT$$GT$3fmt17h5ca76dd598e9511bE
mullvad-gui:_ZN10read_fonts6tables3os2130_$LT$impl$u20$read_fonts..read..FontRead$u20$for$u20$read_fonts..table_ref..TableRef$LT$read_fonts..tables..os2..Os2Marker$GT$$GT$4read17hc16b4bfc381c4448E
mullvad-gui:_ZN10read_fonts6tables3os2136_$LT$impl$u20$read_fonts..traversal..SomeTable$u20$for$u20$read_fonts..table_ref..TableRef$LT$read_fonts..tables..os2..Os2Marker$GT$$GT$9get_field17h9bc23ecf0622f9f8E
mullvad-gui:_ZN10read_fonts6tables3os218OS2_UNICODE_RANGES17he5eaf11d82bbaa73E
mullvad-gui:_ZN10read_fonts6tables3os291_$LT$impl$u20$read_fonts..table_ref..TableRef$LT$read_fonts..tables..os2..Os2Marker$GT$$GT$11ach_vend_id17h496e9650ba97a38fE
mullvad-gui:_ZN10read_fonts6tables3os291_$LT$impl$u20$read_fonts..table_ref..TableRef$LT$read_fonts..tables..os2..Os2Marker$GT$$GT$12fs_selection17h06d7d2797f76d238E
mullvad-gui:_ZN10read_fonts6tables3os291_$LT$impl$u20$read_fonts..table_ref..TableRef$LT$read_fonts..tables..os2..Os2Marker$GT$$GT$12s_cap_height17he47095f1e986480fE
mullvad-gui:_ZN10read_fonts6tables3os291_$LT$impl$u20$read_fonts..table_ref..TableRef$LT$read_fonts..tables..os2..Os2Marker$GT$$GT$13us_break_char17h14ca40784bbe9d5eE
mullvad-gui:_ZN10read_fonts6tables3os291_$LT$impl$u20$read_fonts..table_ref..TableRef$LT$read_fonts..tables..os2..Os2Marker$GT$$GT$13us_win_ascent17hc42575744a1e8432E
mullvad-gui:_ZN10read_fonts6tables3os291_$LT$impl$u20$read_fonts..table_ref..TableRef$LT$read_fonts..tables..os2..Os2Marker$GT$$GT$14s_family_class17h2ef00643588b437aE
mullvad-gui:_ZN10read_fonts6tables3os291_$LT$impl$u20$read_fonts..table_ref..TableRef$LT$read_fonts..tables..os2..Os2Marker$GT$$GT$14us_max_context17hf50c22927b7bbdc1E
mullvad-gui:_ZN10read_fonts6tables3os291_$LT$impl$u20$read_fonts..table_ref..TableRef$LT$read_fonts..tables..os2..Os2Marker$GT$$GT$14us_width_class17h0c707168b6097c9dE
mullvad-gui:_ZN10read_fonts6tables3os291_$LT$impl$u20$read_fonts..table_ref..TableRef$LT$read_fonts..tables..os2..Os2Marker$GT$$GT$14us_win_descent17h4b2c1242fba03607E
mullvad-gui:_ZN10read_fonts6tables3os291_$LT$impl$u20$read_fonts..table_ref..TableRef$LT$read_fonts..tables..os2..Os2Marker$GT$$GT$15s_typo_ascender17h0a911d79eca09d19E
mullvad-gui:_ZN10read_fonts6tables3os291_$LT$impl$u20$read_fonts..table_ref..TableRef$LT$read_fonts..tables..os2..Os2Marker$GT$$GT$15s_typo_line_gap17h6bc3d900b65f93e3E
mullvad-gui:_ZN10read_fonts6tables3os291_$LT$impl$u20$read_fonts..table_ref..TableRef$LT$read_fonts..tables..os2..Os2Marker$GT$$GT$15us_default_char17h80dc61ba3e9d4f00E
mullvad-gui:_ZN10read_fonts6tables3os291_$LT$impl$u20$read_fonts..table_ref..TableRef$LT$read_fonts..tables..os2..Os2Marker$GT$$GT$15us_weight_class17h4ef3d9c0539b7411E
mullvad-gui:_ZN10read_fonts6tables3os291_$LT$impl$u20$read_fonts..table_ref..TableRef$LT$read_fonts..tables..os2..Os2Marker$GT$$GT$16s_typo_descender17h2ee3f39251918b82E
mullvad-gui:_ZN10read_fonts6tables3os291_$LT$impl$u20$read_fonts..table_ref..TableRef$LT$read_fonts..tables..os2..Os2Marker$GT$$GT$16x_avg_char_width17ha46be4cc24558a5dE
mullvad-gui:_ZN10read_fonts6tables3os291_$LT$impl$u20$read_fonts..table_ref..TableRef$LT$read_fonts..tables..os2..Os2Marker$GT$$GT$16y_strikeout_size17ha48ca63925c43c99E
mullvad-gui:_ZN10read_fonts6tables3os291_$LT$impl$u20$read_fonts..table_ref..TableRef$LT$read_fonts..tables..os2..Os2Marker$GT$$GT$18ul_unicode_range_117h0da1f23f1c9d57d4E
mullvad-gui:_ZN10read_fonts6tables3os291_$LT$impl$u20$read_fonts..table_ref..TableRef$LT$read_fonts..tables..os2..Os2Marker$GT$$GT$18ul_unicode_range_217h4bb745f76ce29290E
mullvad-gui:_ZN10read_fonts6tables3os291_$LT$impl$u20$read_fonts..table_ref..TableRef$LT$read_fonts..tables..os2..Os2Marker$GT$$GT$18ul_unicode_range_317h9be89fb162441cbdE
mullvad-gui:_ZN10read_fonts6tables3os291_$LT$impl$u20$read_fonts..table_ref..TableRef$LT$read_fonts..tables..os2..Os2Marker$GT$$GT$18ul_unicode_range_417h780a1bb81f81723dE
mullvad-gui:_ZN10read_fonts6tables3os291_$LT$impl$u20$read_fonts..table_ref..TableRef$LT$read_fonts..tables..os2..Os2Marker$GT$$GT$18us_last_char_index17hd54123a90d2d98c0E
mullvad-gui:_ZN10read_fonts6tables3os291_$LT$impl$u20$read_fonts..table_ref..TableRef$LT$read_fonts..tables..os2..Os2Marker$GT$$GT$18y_subscript_x_size17h4b0ec5888936df08E
mullvad-gui:_ZN10read_fonts6tables3os291_$LT$impl$u20$read_fonts..table_ref..TableRef$LT$read_fonts..tables..os2..Os2Marker$GT$$GT$18y_subscript_y_size17h4bec71885ad994eeE
mullvad-gui:_ZN10read_fonts6tables3os291_$LT$impl$u20$read_fonts..table_ref..TableRef$LT$read_fonts..tables..os2..Os2Marker$GT$$GT$19us_first_char_index17hab2d7e531503f91dE
mullvad-gui:_ZN10read_fonts6tables3os291_$LT$impl$u20$read_fonts..table_ref..TableRef$LT$read_fonts..tables..os2..Os2Marker$GT$$GT$20ul_code_page_range_117h14a4791fdd01ed53E
mullvad-gui:_ZN10read_fonts6tables3os291_$LT$impl$u20$read_fonts..table_ref..TableRef$LT$read_fonts..tables..os2..Os2Marker$GT$$GT$20ul_code_page_range_217hcdf2a9ac10528076E
mullvad-gui:_ZN10read_fonts6tables3os291_$LT$impl$u20$read_fonts..table_ref..TableRef$LT$read_fonts..tables..os2..Os2Marker$GT$$GT$20y_strikeout_position17he72eb04de0c94948E
mullvad-gui:_ZN10read_fonts6tables3os291_$LT$impl$u20$read_fonts..table_ref..TableRef$LT$read_fonts..tables..os2..Os2Marker$GT$$GT$20y_subscript_x_offset17h604d8fb387174507E
mullvad-gui:_ZN10read_fonts6tables3os291_$LT$impl$u20$read_fonts..table_ref..TableRef$LT$read_fonts..tables..os2..Os2Marker$GT$$GT$20y_subscript_y_offset17h2860f6895dfbc921E
mullvad-gui:_ZN10read_fonts6tables3os291_$LT$impl$u20$read_fonts..table_ref..TableRef$LT$read_fonts..tables..os2..Os2Marker$GT$$GT$20y_superscript_x_size17hd8b0bdc401e2745aE
mullvad-gui:_ZN10read_fonts6tables3os291_$LT$impl$u20$read_fonts..table_ref..TableRef$LT$read_fonts..tables..os2..Os2Marker$GT$$GT$20y_superscript_y_size17h27d6542ec226e48aE
mullvad-gui:_ZN10read_fonts6tables3os291_$LT$impl$u20$read_fonts..table_ref..TableRef$LT$read_fonts..tables..os2..Os2Marker$GT$$GT$22y_superscript_x_offset17he3b3a2ce4c35c5d7E
mullvad-gui:_ZN10read_fonts6tables3os291_$LT$impl$u20$read_fonts..table_ref..TableRef$LT$read_fonts..tables..os2..Os2Marker$GT$$GT$22y_superscript_y_offset17hc2a139cbaaa19af8E
mullvad-gui:_ZN10read_fonts6tables3os291_$LT$impl$u20$read_fonts..table_ref..TableRef$LT$read_fonts..tables..os2..Os2Marker$GT$$GT$27us_lower_optical_point_size17h368f6e9e37d3cfe1E
mullvad-gui:_ZN10read_fonts6tables3os291_$LT$impl$u20$read_fonts..table_ref..TableRef$LT$read_fonts..tables..os2..Os2Marker$GT$$GT$27us_upper_optical_point_size17hfb2632a3b1b2d3beE
mullvad-gui:_ZN10read_fonts6tables3os291_$LT$impl$u20$read_fonts..table_ref..TableRef$LT$read_fonts..tables..os2..Os2Marker$GT$$GT$7fs_type17h6dad86693e5ba00fE
mullvad-gui:_ZN10read_fonts6tables3os291_$LT$impl$u20$read_fonts..table_ref..TableRef$LT$read_fonts..tables..os2..Os2Marker$GT$$GT$7version17hd7b3c19a0e8a647cE
mullvad-gui:_ZN10read_fonts6tables3os291_$LT$impl$u20$read_fonts..table_ref..TableRef$LT$read_fonts..tables..os2..Os2Marker$GT$$GT$9panose_1017h79c89f986833bb01E
mullvad-gui:_ZN10read_fonts6tables3os291_$LT$impl$u20$read_fonts..table_ref..TableRef$LT$read_fonts..tables..os2..Os2Marker$GT$$GT$9sx_height17h9a97b30e5c367057E
mullvad-gui:_ZN10read_fonts6tables3svg103_$LT$impl$u20$read_fonts..table_ref..TableRef$LT$read_fonts..tables..svg..SVGDocumentListMarker$GT$$GT$11num_entries17haca608e41e789054E
mullvad-gui:_ZN10read_fonts6tables3svg103_$LT$impl$u20$read_fonts..table_ref..TableRef$LT$read_fonts..tables..svg..SVGDocumentListMarker$GT$$GT$16document_records17hd54026f0d1e7e0b8E
mullvad-gui:_ZN10read_fonts6tables3svg120_$LT$impl$u20$core..fmt..Debug$u20$for$u20$read_fonts..table_ref..TableRef$LT$read_fonts..tables..svg..SvgMarker$GT$$GT$3fmt17hac8bf4e506ee0bfbE
mullvad-gui:_ZN10read_fonts6tables3svg130_$LT$impl$u20$read_fonts..read..FontRead$u20$for$u20$read_fonts..table_ref..TableRef$LT$read_fonts..tables..svg..SvgMarker$GT$$GT$4read17hd54919752089d3caE
mullvad-gui:_ZN10read_fonts6tables3svg132_$LT$impl$u20$core..fmt..Debug$u20$for$u20$read_fonts..table_ref..TableRef$LT$read_fonts..tables..svg..SVGDocumentListMarker$GT$$GT$3fmt17ha5c853068231c824E
mullvad-gui:_ZN10read_fonts6tables3svg136_$LT$impl$u20$read_fonts..traversal..SomeTable$u20$for$u20$read_fonts..table_ref..TableRef$LT$read_fonts..tables..svg..SvgMarker$GT$$GT$9get_field17h83b0f90c2fcf44d2E
mullvad-gui:_ZN10read_fonts6tables3svg142_$LT$impl$u20$read_fonts..read..FontRead$u20$for$u20$read_fonts..table_ref..TableRef$LT$read_fonts..tables..svg..SVGDocumentListMarker$GT$$GT$4read17ha5bc854cf1f8ac29E
mullvad-gui:_ZN10read_fonts6tables3svg148_$LT$impl$u20$read_fonts..traversal..SomeTable$u20$for$u20$read_fonts..table_ref..TableRef$LT$read_fonts..tables..svg..SVGDocumentListMarker$GT$$GT$9get_field17hf00a10e760d1cd4dE
mullvad-gui:_ZN10read_fonts6tables3svg17SVGDocumentRecord12end_glyph_id17h0f20ff6e894c19faE
mullvad-gui:_ZN10read_fonts6tables3svg17SVGDocumentRecord14start_glyph_id17h3905de007a7e007fE
mullvad-gui:_ZN10read_fonts6tables3svg17SVGDocumentRecord14svg_doc_length17ha5b1e6d2901b3d2bE
mullvad-gui:_ZN10read_fonts6tables3svg17SVGDocumentRecord14svg_doc_offset17h5521a57b70478f7eE
mullvad-gui:_ZN10read_fonts6tables3svg91_$LT$impl$u20$read_fonts..table_ref..TableRef$LT$read_fonts..tables..svg..SvgMarker$GT$$GT$10glyph_data17hf4de73e92910808aE
mullvad-gui:_ZN10read_fonts6tables3svg91_$LT$impl$u20$read_fonts..table_ref..TableRef$LT$read_fonts..tables..svg..SvgMarker$GT$$GT$17svg_document_list17hfe74759f45b3b356E
mullvad-gui:_ZN10read_fonts6tables3svg91_$LT$impl$u20$read_fonts..table_ref..TableRef$LT$read_fonts..tables..svg..SvgMarker$GT$$GT$24svg_document_list_offset17h749f2defa2e264d9E
mullvad-gui:_ZN10read_fonts6tables3svg91_$LT$impl$u20$read_fonts..table_ref..TableRef$LT$read_fonts..tables..svg..SvgMarker$GT$$GT$7version17he7e1cb079d8a3481E
mullvad-gui:_ZN10read_fonts6tables4ankr103_$LT$impl$u20$read_fonts..table_ref..TableRef$LT$read_fonts..tables..ankr..GlyphDataEntryMarker$GT$$GT$10num_points17h9e33677a0453e1baE
mullvad-gui:_ZN10read_fonts6tables4ankr103_$LT$impl$u20$read_fonts..table_ref..TableRef$LT$read_fonts..tables..ankr..GlyphDataEntryMarker$GT$$GT$13anchor_points17h1019081469323da7E
mullvad-gui:_ZN10read_fonts6tables4ankr11AnchorPoint1x17h2c0c8e425e4b9072E
mullvad-gui:_ZN10read_fonts6tables4ankr11AnchorPoint1y17hdf74dce34f17f691E
mullvad-gui:_ZN10read_fonts6tables4ankr122_$LT$impl$u20$core..fmt..Debug$u20$for$u20$read_fonts..table_ref..TableRef$LT$read_fonts..tables..ankr..AnkrMarker$GT$$GT$3fmt17h38dc26d2ffb5a55bE
mullvad-gui:_ZN10read_fonts6tables4ankr132_$LT$impl$u20$core..fmt..Debug$u20$for$u20$read_fonts..table_ref..TableRef$LT$read_fonts..tables..ankr..GlyphDataEntryMarker$GT$$GT$3fmt17h067ddbb5aabcb256E
mullvad-gui:_ZN10read_fonts6tables4ankr132_$LT$impl$u20$read_fonts..read..FontRead$u20$for$u20$read_fonts..table_ref..TableRef$LT$read_fonts..tables..ankr..AnkrMarker$GT$$GT$4read17h354b6621044df2f3E
mullvad-gui:_ZN10read_fonts6tables4ankr138_$LT$impl$u20$read_fonts..traversal..SomeTable$u20$for$u20$read_fonts..table_ref..TableRef$LT$read_fonts..tables..ankr..AnkrMarker$GT$$GT$9get_field17ha78a3ff5bd03c1e0E
mullvad-gui:_ZN10read_fonts6tables4ankr142_$LT$impl$u20$read_fonts..read..FontRead$u20$for$u20$read_fonts..table_ref..TableRef$LT$read_fonts..tables..ankr..GlyphDataEntryMarker$GT$$GT$4read17hd6cd016b95139ae8E
mullvad-gui:_ZN10read_fonts6tables4ankr148_$LT$impl$u20$read_fonts..traversal..SomeTable$u20$for$u20$read_fonts..table_ref..TableRef$LT$read_fonts..tables..ankr..GlyphDataEntryMarker$GT$$GT$9get_field17h7ff60459de831819E
mullvad-gui:_ZN10read_fonts6tables4ankr93_$LT$impl$u20$read_fonts..table_ref..TableRef$LT$read_fonts..tables..ankr..AnkrMarker$GT$$GT$12lookup_table17h098744ff66782fb5E
mullvad-gui:_ZN10read_fonts6tables4ankr93_$LT$impl$u20$read_fonts..table_ref..TableRef$LT$read_fonts..tables..ankr..AnkrMarker$GT$$GT$13anchor_points17h4cf23da4f33b6fdbE
mullvad-gui:_ZN10read_fonts6tables4ankr93_$LT$impl$u20$read_fonts..table_ref..TableRef$LT$read_fonts..tables..ankr..AnkrMarker$GT$$GT$19lookup_table_offset17h46e50fa493796d52E
mullvad-gui:_ZN10read_fonts6tables4ankr93_$LT$impl$u20$read_fonts..table_ref..TableRef$LT$read_fonts..tables..ankr..AnkrMarker$GT$$GT$23glyph_data_table_offset17hbbd9c29d027b19c9E
mullvad-gui:_ZN10read_fonts6tables4ankr93_$LT$impl$u20$read_fonts..table_ref..TableRef$LT$read_fonts..tables..ankr..AnkrMarker$GT$$GT$5flags17h651fb1f79e2dd5bbE
mullvad-gui:_ZN10read_fonts6tables4ankr93_$LT$impl$u20$read_fonts..table_ref..TableRef$LT$read_fonts..tables..ankr..AnkrMarker$GT$$GT$7version17ha481b02e282b6cc8E
mullvad-gui:_ZN10read_fonts6tables4avar11SegmentMaps18position_map_count17hb8137629b2b0d437E
mullvad-gui:_ZN10read_fonts6tables4avar11SegmentMaps5apply17hddc75db4c677bf30E
mullvad-gui:_ZN10read_fonts6tables4avar122_$LT$impl$u20$core..fmt..Debug$u20$for$u20$read_fonts..table_ref..TableRef$LT$read_fonts..tables..avar..AvarMarker$GT$$GT$3fmt17h1a5bce775450b442E
mullvad-gui:_ZN10read_fonts6tables4avar12AxisValueMap13to_coordinate17h98c4c7abab5cc614E
mullvad-gui:_ZN10read_fonts6tables4avar12AxisValueMap15from_coordinate17h249fc269f119f0b5E
mullvad-gui:_ZN10read_fonts6tables4avar132_$LT$impl$u20$read_fonts..read..FontRead$u20$for$u20$read_fonts..table_ref..TableRef$LT$read_fonts..tables..avar..AvarMarker$GT$$GT$4read17h5ebcca26c3f12446E
mullvad-gui:_ZN10read_fonts6tables4avar138_$LT$impl$u20$read_fonts..traversal..SomeTable$u20$for$u20$read_fonts..table_ref..TableRef$LT$read_fonts..tables..avar..AvarMarker$GT$$GT$9get_field17h01de0a12166c1817E
mullvad-gui:_ZN10read_fonts6tables4avar93_$LT$impl$u20$read_fonts..table_ref..TableRef$LT$read_fonts..tables..avar..AvarMarker$GT$$GT$10axis_count17h5806f56038dcbd13E
mullvad-gui:_ZN10read_fonts6tables4avar93_$LT$impl$u20$read_fonts..table_ref..TableRef$LT$read_fonts..tables..avar..AvarMarker$GT$$GT$14axis_index_map17he7451733fea7e668E
mullvad-gui:_ZN10read_fonts6tables4avar93_$LT$impl$u20$read_fonts..table_ref..TableRef$LT$read_fonts..tables..avar..AvarMarker$GT$$GT$16var_store_offset17h143f820918135c97E
mullvad-gui:_ZN10read_fonts6tables4avar93_$LT$impl$u20$read_fonts..table_ref..TableRef$LT$read_fonts..tables..avar..AvarMarker$GT$$GT$17axis_segment_maps17he600d5c113c655feE
mullvad-gui:_ZN10read_fonts6tables4avar93_$LT$impl$u20$read_fonts..table_ref..TableRef$LT$read_fonts..tables..avar..AvarMarker$GT$$GT$21axis_index_map_offset17h0b17b224dc7a37e3E
mullvad-gui:_ZN10read_fonts6tables4avar93_$LT$impl$u20$read_fonts..table_ref..TableRef$LT$read_fonts..tables..avar..AvarMarker$GT$$GT$7version17h40d8c00ea61faa69E
mullvad-gui:_ZN10read_fonts6tables4avar93_$LT$impl$u20$read_fonts..table_ref..TableRef$LT$read_fonts..tables..avar..AvarMarker$GT$$GT$9var_store17hafd277d5324c295bE
mullvad-gui:_ZN10read_fonts6tables4base100_$LT$impl$u20$read_fonts..table_ref..TableRef$LT$read_fonts..tables..base..BaseTagListMarker$GT$$GT$13baseline_tags17h61f0cc171370b6d3E
mullvad-gui:_ZN10read_fonts6tables4base100_$LT$impl$u20$read_fonts..table_ref..TableRef$LT$read_fonts..tables..base..BaseTagListMarker$GT$$GT$14base_tag_count17hc51c4c8726dc70ceE
mullvad-gui:_ZN10read_fonts6tables4base103_$LT$impl$u20$read_fonts..table_ref..TableRef$LT$read_fonts..tables..base..BaseScriptListMarker$GT$$GT$17base_script_count17hd4d339924c07d18fE
mullvad-gui:_ZN10read_fonts6tables4base103_$LT$impl$u20$read_fonts..table_ref..TableRef$LT$read_fonts..tables..base..BaseScriptListMarker$GT$$GT$19base_script_records17he4983c45902ac708E
mullvad-gui:_ZN10read_fonts6tables4base105_$LT$impl$u20$read_fonts..table_ref..TableRef$LT$read_fonts..tables..base..BaseCoordFormat1Marker$GT$$GT$10coordinate17h842794284a38b95eE
mullvad-gui:_ZN10read_fonts6tables4base105_$LT$impl$u20$read_fonts..table_ref..TableRef$LT$read_fonts..tables..base..BaseCoordFormat1Marker$GT$$GT$17base_coord_format17h614f885bef56b5bbE
mullvad-gui:_ZN10read_fonts6tables4base105_$LT$impl$u20$read_fonts..table_ref..TableRef$LT$read_fonts..tables..base..BaseCoordFormat2Marker$GT$$GT$10coordinate17h78e7aac5a1ba82e1E
mullvad-gui:_ZN10read_fonts6tables4base105_$LT$impl$u20$read_fonts..table_ref..TableRef$LT$read_fonts..tables..base..BaseCoordFormat2Marker$GT$$GT$15reference_glyph17h74e1c4739ecbc185E
mullvad-gui:_ZN10read_fonts6tables4base105_$LT$impl$u20$read_fonts..table_ref..TableRef$LT$read_fonts..tables..base..BaseCoordFormat2Marker$GT$$GT$16base_coord_point17h1513e7acb1bd6501E
mullvad-gui:_ZN10read_fonts6tables4base105_$LT$impl$u20$read_fonts..table_ref..TableRef$LT$read_fonts..tables..base..BaseCoordFormat2Marker$GT$$GT$17base_coord_format17h0244c5067578c5f4E
mullvad-gui:_ZN10read_fonts6tables4base105_$LT$impl$u20$read_fonts..table_ref..TableRef$LT$read_fonts..tables..base..BaseCoordFormat3Marker$GT$$GT$10coordinate17h143d075a90582739E
mullvad-gui:_ZN10read_fonts6tables4base105_$LT$impl$u20$read_fonts..table_ref..TableRef$LT$read_fonts..tables..base..BaseCoordFormat3Marker$GT$$GT$13device_offset17h6ed4ba2108ef25c8E
mullvad-gui:_ZN10read_fonts6tables4base105_$LT$impl$u20$read_fonts..table_ref..TableRef$LT$read_fonts..tables..base..BaseCoordFormat3Marker$GT$$GT$17base_coord_format17ha9b7f45a00c4ca10E
mullvad-gui:_ZN10read_fonts6tables4base105_$LT$impl$u20$read_fonts..table_ref..TableRef$LT$read_fonts..tables..base..BaseCoordFormat3Marker$GT$$GT$6device17h07593e68318bb1ebE
mullvad-gui:_ZN10read_fonts6tables4base122_$LT$impl$u20$core..fmt..Debug$u20$for$u20$read_fonts..table_ref..TableRef$LT$read_fonts..tables..base..AxisMarker$GT$$GT$3fmt17h33d50ddea1ea11aeE
mullvad-gui:_ZN10read_fonts6tables4base122_$LT$impl$u20$core..fmt..Debug$u20$for$u20$read_fonts..table_ref..TableRef$LT$read_fonts..tables..base..BaseMarker$GT$$GT$3fmt17hb2f0eeab2e8ebb6eE
mullvad-gui:_ZN10read_fonts6tables4base124_$LT$impl$u20$core..fmt..Debug$u20$for$u20$read_fonts..table_ref..TableRef$LT$read_fonts..tables..base..MinMaxMarker$GT$$GT$3fmt17h111562d494336886E
mullvad-gui:_ZN10read_fonts6tables4base128_$LT$impl$u20$core..fmt..Debug$u20$for$u20$read_fonts..table_ref..TableRef$LT$read_fonts..tables..base..BaseScriptMarker$GT$$GT$3fmt17h59bfd341eb577df9E
mullvad-gui:_ZN10read_fonts6tables4base128_$LT$impl$u20$core..fmt..Debug$u20$for$u20$read_fonts..table_ref..TableRef$LT$read_fonts..tables..base..BaseValuesMarker$GT$$GT$3fmt17h73f616cfa1ca3684E
mullvad-gui:_ZN10read_fonts6tables4base129_$LT$impl$u20$core..fmt..Debug$u20$for$u20$read_fonts..table_ref..TableRef$LT$read_fonts..tables..base..BaseTagListMarker$GT$$GT$3fmt17h0233054e86f3c783E
mullvad-gui:_ZN10read_fonts6tables4base132_$LT$impl$u20$core..fmt..Debug$u20$for$u20$read_fonts..table_ref..TableRef$LT$read_fonts..tables..base..BaseScriptListMarker$GT$$GT$3fmt17h73f2a374b012189cE
mullvad-gui:_ZN10read_fonts6tables4base132_$LT$impl$u20$read_fonts..read..FontRead$u20$for$u20$read_fonts..table_ref..TableRef$LT$read_fonts..tables..base..AxisMarker$GT$$GT$4read17h5ebb662cb894257aE
mullvad-gui:_ZN10read_fonts6tables4base132_$LT$impl$u20$read_fonts..read..FontRead$u20$for$u20$read_fonts..table_ref..TableRef$LT$read_fonts..tables..base..BaseMarker$GT$$GT$4read17h42649bca47c19957E
mullvad-gui:_ZN10read_fonts6tables4base134_$LT$impl$u20$core..fmt..Debug$u20$for$u20$read_fonts..table_ref..TableRef$LT$read_fonts..tables..base..BaseCoordFormat1Marker$GT$$GT$3fmt17hf675adbb7a5baae0E
mullvad-gui:_ZN10read_fonts6tables4base134_$LT$impl$u20$core..fmt..Debug$u20$for$u20$read_fonts..table_ref..TableRef$LT$read_fonts..tables..base..BaseCoordFormat2Marker$GT$$GT$3fmt17h0a5ed78b2838bd34E
mullvad-gui:_ZN10read_fonts6tables4base134_$LT$impl$u20$core..fmt..Debug$u20$for$u20$read_fonts..table_ref..TableRef$LT$read_fonts..tables..base..BaseCoordFormat3Marker$GT$$GT$3fmt17h81aeaaf52aea781fE
mullvad-gui:_ZN10read_fonts6tables4base134_$LT$impl$u20$read_fonts..read..FontRead$u20$for$u20$read_fonts..table_ref..TableRef$LT$read_fonts..tables..base..MinMaxMarker$GT$$GT$4read17h7aa859721c435bceE
mullvad-gui:_ZN10read_fonts6tables4base138_$LT$impl$u20$read_fonts..read..FontRead$u20$for$u20$read_fonts..table_ref..TableRef$LT$read_fonts..tables..base..BaseScriptMarker$GT$$GT$4read17h6df14d7c3ed72bc7E
mullvad-gui:_ZN10read_fonts6tables4base138_$LT$impl$u20$read_fonts..read..FontRead$u20$for$u20$read_fonts..table_ref..TableRef$LT$read_fonts..tables..base..BaseValuesMarker$GT$$GT$4read17hbe504a52afcce51dE
mullvad-gui:_ZN10read_fonts6tables4base138_$LT$impl$u20$read_fonts..traversal..SomeTable$u20$for$u20$read_fonts..table_ref..TableRef$LT$read_fonts..tables..base..AxisMarker$GT$$GT$9get_field17hd6d99969677ccd2aE
mullvad-gui:_ZN10read_fonts6tables4base138_$LT$impl$u20$read_fonts..traversal..SomeTable$u20$for$u20$read_fonts..table_ref..TableRef$LT$read_fonts..tables..base..BaseMarker$GT$$GT$9get_field17h6bb9fe461683d70eE
mullvad-gui:_ZN10read_fonts6tables4base139_$LT$impl$u20$read_fonts..read..FontRead$u20$for$u20$read_fonts..table_ref..TableRef$LT$read_fonts..tables..base..BaseTagListMarker$GT$$GT$4read17h55c5d9279ade174aE
mullvad-gui:_ZN10read_fonts6tables4base140_$LT$impl$u20$read_fonts..traversal..SomeTable$u20$for$u20$read_fonts..table_ref..TableRef$LT$read_fonts..tables..base..MinMaxMarker$GT$$GT$9get_field17h4698d6831afc4909E
mullvad-gui:_ZN10read_fonts6tables4base142_$LT$impl$u20$read_fonts..read..FontRead$u20$for$u20$read_fonts..table_ref..TableRef$LT$read_fonts..tables..base..BaseScriptListMarker$GT$$GT$4read17h52bf5c0df8641abdE
mullvad-gui:_ZN10read_fonts6tables4base144_$LT$impl$u20$read_fonts..read..FontRead$u20$for$u20$read_fonts..table_ref..TableRef$LT$read_fonts..tables..base..BaseCoordFormat1Marker$GT$$GT$4read17h02808d4aa7569caaE
mullvad-gui:_ZN10read_fonts6tables4base144_$LT$impl$u20$read_fonts..read..FontRead$u20$for$u20$read_fonts..table_ref..TableRef$LT$read_fonts..tables..base..BaseCoordFormat2Marker$GT$$GT$4read17hdcc45a7dc40ecab0E
mullvad-gui:_ZN10read_fonts6tables4base144_$LT$impl$u20$read_fonts..read..FontRead$u20$for$u20$read_fonts..table_ref..TableRef$LT$read_fonts..tables..base..BaseCoordFormat3Marker$GT$$GT$4read17hc849a97a8ec5f7d7E
mullvad-gui:_ZN10read_fonts6tables4base144_$LT$impl$u20$read_fonts..traversal..SomeTable$u20$for$u20$read_fonts..table_ref..TableRef$LT$read_fonts..tables..base..BaseScriptMarker$GT$$GT$9get_field17hec5bd3784b99e9dcE
mullvad-gui:_ZN10read_fonts6tables4base144_$LT$impl$u20$read_fonts..traversal..SomeTable$u20$for$u20$read_fonts..table_ref..TableRef$LT$read_fonts..tables..base..BaseValuesMarker$GT$$GT$9get_field17hb2059e77b620ddddE
mullvad-gui:_ZN10read_fonts6tables4base145_$LT$impl$u20$read_fonts..traversal..SomeTable$u20$for$u20$read_fonts..table_ref..TableRef$LT$read_fonts..tables..base..BaseTagListMarker$GT$$GT$9get_field17h6b0bef3eaee0e026E
mullvad-gui:_ZN10read_fonts6tables4base148_$LT$impl$u20$read_fonts..traversal..SomeTable$u20$for$u20$read_fonts..table_ref..TableRef$LT$read_fonts..tables..base..BaseScriptListMarker$GT$$GT$9get_field17h902eaa19bc44f4ecE
mullvad-gui:_ZN10read_fonts6tables4base150_$LT$impl$u20$read_fonts..traversal..SomeTable$u20$for$u20$read_fonts..table_ref..TableRef$LT$read_fonts..tables..base..BaseCoordFormat1Marker$GT$$GT$9get_field17hd221b3c5eabe8b8bE
mullvad-gui:_ZN10read_fonts6tables4base150_$LT$impl$u20$read_fonts..traversal..SomeTable$u20$for$u20$read_fonts..table_ref..TableRef$LT$read_fonts..tables..base..BaseCoordFormat2Marker$GT$$GT$9get_field17hcd4ee3479bc57bcfE
mullvad-gui:_ZN10read_fonts6tables4base150_$LT$impl$u20$read_fonts..traversal..SomeTable$u20$for$u20$read_fonts..table_ref..TableRef$LT$read_fonts..tables..base..BaseCoordFormat3Marker$GT$$GT$9get_field17h5d1f33dd5d38a425E
mullvad-gui:_ZN10read_fonts6tables4base16BaseScriptRecord11base_script17hadc9eb18ac5c9a5fE
mullvad-gui:_ZN10read_fonts6tables4base16BaseScriptRecord18base_script_offset17h2a1589c22e8364d7E
mullvad-gui:_ZN10read_fonts6tables4base16FeatMinMaxRecord16max_coord_offset17h58213de6153c5145E
mullvad-gui:_ZN10read_fonts6tables4base16FeatMinMaxRecord16min_coord_offset17hf91f8fd36ae2b2b4E
mullvad-gui:_ZN10read_fonts6tables4base16FeatMinMaxRecord9max_coord17h65d04c292fda92f6E
mullvad-gui:_ZN10read_fonts6tables4base16FeatMinMaxRecord9min_coord17h0b633bae7f3cca04E
mullvad-gui:_ZN10read_fonts6tables4base17BaseLangSysRecord14min_max_offset17h81e3b2feb678bb4bE
mullvad-gui:_ZN10read_fonts6tables4base17BaseLangSysRecord7min_max17ha2c01b8b6431b677E
mullvad-gui:_ZN10read_fonts6tables4base93_$LT$impl$u20$read_fonts..table_ref..TableRef$LT$read_fonts..tables..base..AxisMarker$GT$$GT$13base_tag_list17h189efac2abd7da7eE
mullvad-gui:_ZN10read_fonts6tables4base93_$LT$impl$u20$read_fonts..table_ref..TableRef$LT$read_fonts..tables..base..AxisMarker$GT$$GT$16base_script_list17h69a8a34909bbc434E
mullvad-gui:_ZN10read_fonts6tables4base93_$LT$impl$u20$read_fonts..table_ref..TableRef$LT$read_fonts..tables..base..AxisMarker$GT$$GT$20base_tag_list_offset17h7b0fc2104ae450aaE
mullvad-gui:_ZN10read_fonts6tables4base93_$LT$impl$u20$read_fonts..table_ref..TableRef$LT$read_fonts..tables..base..AxisMarker$GT$$GT$23base_script_list_offset17hc438e26d4618d5bcE
mullvad-gui:_ZN10read_fonts6tables4base93_$LT$impl$u20$read_fonts..table_ref..TableRef$LT$read_fonts..tables..base..BaseMarker$GT$$GT$10horiz_axis17hf01daa71f44c73a5E
