Bqm_AntiVignetting_Plugin.so:__bss_start
Bqm_AntiVignetting_Plugin.so:_edata
Bqm_AntiVignetting_Plugin.so:_end
Bqm_AntiVignetting_Plugin.so:qt_plugin_instance
Bqm_AntiVignetting_Plugin.so:qt_plugin_query_metadata
Bqm_AssignTemplate_Plugin.so:__bss_start
Bqm_AssignTemplate_Plugin.so:_edata
Bqm_AssignTemplate_Plugin.so:_end
Bqm_AssignTemplate_Plugin.so:qt_plugin_instance
Bqm_AssignTemplate_Plugin.so:qt_plugin_query_metadata
Bqm_AutoCorrection_Plugin.so:__bss_start
Bqm_AutoCorrection_Plugin.so:_edata
Bqm_AutoCorrection_Plugin.so:_end
Bqm_AutoCorrection_Plugin.so:qt_plugin_instance
Bqm_AutoCorrection_Plugin.so:qt_plugin_query_metadata
Bqm_BWconvert_Plugin.so:__bss_start
Bqm_BWconvert_Plugin.so:_edata
Bqm_BWconvert_Plugin.so:_end
Bqm_BWconvert_Plugin.so:qt_plugin_instance
Bqm_BWconvert_Plugin.so:qt_plugin_query_metadata
Bqm_BcgCorrection_Plugin.so:__bss_start
Bqm_BcgCorrection_Plugin.so:_edata
Bqm_BcgCorrection_Plugin.so:_end
Bqm_BcgCorrection_Plugin.so:qt_plugin_instance
Bqm_BcgCorrection_Plugin.so:qt_plugin_query_metadata
Bqm_Blur_Plugin.so:__bss_start
Bqm_Blur_Plugin.so:_edata
Bqm_Blur_Plugin.so:_end
Bqm_Blur_Plugin.so:qt_plugin_instance
Bqm_Blur_Plugin.so:qt_plugin_query_metadata
Bqm_Border_Plugin.so:__bss_start
Bqm_Border_Plugin.so:_edata
Bqm_Border_Plugin.so:_end
Bqm_Border_Plugin.so:qt_plugin_instance
Bqm_Border_Plugin.so:qt_plugin_query_metadata
Bqm_ChannelMixer_Plugin.so:__bss_start
Bqm_ChannelMixer_Plugin.so:_edata
Bqm_ChannelMixer_Plugin.so:_end
Bqm_ChannelMixer_Plugin.so:qt_plugin_instance
Bqm_ChannelMixer_Plugin.so:qt_plugin_query_metadata
Bqm_ColorBalance_Plugin.so:__bss_start
Bqm_ColorBalance_Plugin.so:_edata
Bqm_ColorBalance_Plugin.so:_end
Bqm_ColorBalance_Plugin.so:qt_plugin_instance
Bqm_ColorBalance_Plugin.so:qt_plugin_query_metadata
Bqm_ColorFX_Plugin.so:__bss_start
Bqm_ColorFX_Plugin.so:_edata
Bqm_ColorFX_Plugin.so:_end
Bqm_ColorFX_Plugin.so:qt_plugin_instance
Bqm_ColorFX_Plugin.so:qt_plugin_query_metadata
Bqm_Convert16To8_Plugin.so:__bss_start
Bqm_Convert16To8_Plugin.so:_edata
Bqm_Convert16To8_Plugin.so:_end
Bqm_Convert16To8_Plugin.so:qt_plugin_instance
Bqm_Convert16To8_Plugin.so:qt_plugin_query_metadata
Bqm_Convert8To16_Plugin.so:__bss_start
Bqm_Convert8To16_Plugin.so:_edata
Bqm_Convert8To16_Plugin.so:_end
Bqm_Convert8To16_Plugin.so:qt_plugin_instance
Bqm_Convert8To16_Plugin.so:qt_plugin_query_metadata
Bqm_ConvertToDNG_Plugin.so:__bss_start
Bqm_ConvertToDNG_Plugin.so:_edata
Bqm_ConvertToDNG_Plugin.so:_end
Bqm_ConvertToDNG_Plugin.so:qt_plugin_instance
Bqm_ConvertToDNG_Plugin.so:qt_plugin_query_metadata
Bqm_ConvertToJP2lugin_Plugin.so:__bss_start
Bqm_ConvertToJP2lugin_Plugin.so:_edata
Bqm_ConvertToJP2lugin_Plugin.so:_end
Bqm_ConvertToJP2lugin_Plugin.so:qt_plugin_instance
Bqm_ConvertToJP2lugin_Plugin.so:qt_plugin_query_metadata
Bqm_ConvertToJPEG_Plugin.so:__bss_start
Bqm_ConvertToJPEG_Plugin.so:_edata
Bqm_ConvertToJPEG_Plugin.so:_end
Bqm_ConvertToJPEG_Plugin.so:qt_plugin_instance
Bqm_ConvertToJPEG_Plugin.so:qt_plugin_query_metadata
Bqm_ConvertToPGF_Plugin.so:__bss_start
Bqm_ConvertToPGF_Plugin.so:_edata
Bqm_ConvertToPGF_Plugin.so:_end
Bqm_ConvertToPGF_Plugin.so:qt_plugin_instance
Bqm_ConvertToPGF_Plugin.so:qt_plugin_query_metadata
Bqm_ConvertToPNG_Plugin.so:__bss_start
Bqm_ConvertToPNG_Plugin.so:_edata
Bqm_ConvertToPNG_Plugin.so:_end
Bqm_ConvertToPNG_Plugin.so:qt_plugin_instance
Bqm_ConvertToPNG_Plugin.so:qt_plugin_query_metadata
Bqm_ConvertToTIFF_Plugin.so:__bss_start
Bqm_ConvertToTIFF_Plugin.so:_edata
Bqm_ConvertToTIFF_Plugin.so:_end
Bqm_ConvertToTIFF_Plugin.so:qt_plugin_instance
Bqm_ConvertToTIFF_Plugin.so:qt_plugin_query_metadata
Bqm_Crop_Plugin.so:__bss_start
Bqm_Crop_Plugin.so:_edata
Bqm_Crop_Plugin.so:_end
Bqm_Crop_Plugin.so:qt_plugin_instance
Bqm_Crop_Plugin.so:qt_plugin_query_metadata
Bqm_CurvesAdjust_Plugin.so:__bss_start
Bqm_CurvesAdjust_Plugin.so:_edata
Bqm_CurvesAdjust_Plugin.so:_end
Bqm_CurvesAdjust_Plugin.so:qt_plugin_instance
Bqm_CurvesAdjust_Plugin.so:qt_plugin_query_metadata
Bqm_FilmGrain_Plugin.so:__bss_start
Bqm_FilmGrain_Plugin.so:_edata
Bqm_FilmGrain_Plugin.so:_end
Bqm_FilmGrain_Plugin.so:qt_plugin_instance
Bqm_FilmGrain_Plugin.so:qt_plugin_query_metadata
Bqm_Flip_Plugin.so:__bss_start
Bqm_Flip_Plugin.so:_edata
Bqm_Flip_Plugin.so:_end
Bqm_Flip_Plugin.so:qt_plugin_instance
Bqm_Flip_Plugin.so:qt_plugin_query_metadata
Bqm_HotPixels_Plugin.so:__bss_start
Bqm_HotPixels_Plugin.so:_edata
Bqm_HotPixels_Plugin.so:_end
Bqm_HotPixels_Plugin.so:qt_plugin_instance
Bqm_HotPixels_Plugin.so:qt_plugin_query_metadata
Bqm_HslCorrection_Plugin.so:__bss_start
Bqm_HslCorrection_Plugin.so:_edata
Bqm_HslCorrection_Plugin.so:_end
Bqm_HslCorrection_Plugin.so:qt_plugin_instance
Bqm_HslCorrection_Plugin.so:qt_plugin_query_metadata
Bqm_IccConvert_Plugin.so:__bss_start
Bqm_IccConvert_Plugin.so:_edata
Bqm_IccConvert_Plugin.so:_end
Bqm_IccConvert_Plugin.so:qt_plugin_instance
Bqm_IccConvert_Plugin.so:qt_plugin_query_metadata
Bqm_Invert_Plugin.so:__bss_start
Bqm_Invert_Plugin.so:_edata
Bqm_Invert_Plugin.so:_end
Bqm_Invert_Plugin.so:qt_plugin_instance
Bqm_Invert_Plugin.so:qt_plugin_query_metadata
Bqm_LensAutoFix_Plugin.so:__bss_start
Bqm_LensAutoFix_Plugin.so:_edata
Bqm_LensAutoFix_Plugin.so:_end
Bqm_LensAutoFix_Plugin.so:qt_plugin_instance
Bqm_LensAutoFix_Plugin.so:qt_plugin_query_metadata
Bqm_LocalContrast_Plugin.so:__bss_start
Bqm_LocalContrast_Plugin.so:_edata
Bqm_LocalContrast_Plugin.so:_end
Bqm_LocalContrast_Plugin.so:qt_plugin_instance
Bqm_LocalContrast_Plugin.so:qt_plugin_query_metadata
Bqm_NoiseReduction_Plugin.so:__bss_start
Bqm_NoiseReduction_Plugin.so:_edata
Bqm_NoiseReduction_Plugin.so:_end
Bqm_NoiseReduction_Plugin.so:qt_plugin_instance
Bqm_NoiseReduction_Plugin.so:qt_plugin_query_metadata
Bqm_RedEyeCorrection_Plugin.so:__bss_start
Bqm_RedEyeCorrection_Plugin.so:_edata
Bqm_RedEyeCorrection_Plugin.so:_end
Bqm_RedEyeCorrection_Plugin.so:qt_plugin_instance
Bqm_RedEyeCorrection_Plugin.so:qt_plugin_query_metadata
Bqm_RemoveMetadata_Plugin.so:__bss_start
Bqm_RemoveMetadata_Plugin.so:_edata
Bqm_RemoveMetadata_Plugin.so:_end
Bqm_RemoveMetadata_Plugin.so:qt_plugin_instance
Bqm_RemoveMetadata_Plugin.so:qt_plugin_query_metadata
Bqm_Resize_Plugin.so:__bss_start
Bqm_Resize_Plugin.so:_edata
Bqm_Resize_Plugin.so:_end
Bqm_Resize_Plugin.so:qt_plugin_instance
Bqm_Resize_Plugin.so:qt_plugin_query_metadata
Bqm_Restoration_Plugin.so:__bss_start
Bqm_Restoration_Plugin.so:_edata
Bqm_Restoration_Plugin.so:_end
Bqm_Restoration_Plugin.so:qt_plugin_instance
Bqm_Restoration_Plugin.so:qt_plugin_query_metadata
Bqm_Rotate_Plugin.so:__bss_start
Bqm_Rotate_Plugin.so:_edata
Bqm_Rotate_Plugin.so:_end
Bqm_Rotate_Plugin.so:qt_plugin_instance
Bqm_Rotate_Plugin.so:qt_plugin_query_metadata
Bqm_Sharpen_Plugin.so:__bss_start
Bqm_Sharpen_Plugin.so:_edata
Bqm_Sharpen_Plugin.so:_end
Bqm_Sharpen_Plugin.so:qt_plugin_instance
Bqm_Sharpen_Plugin.so:qt_plugin_query_metadata
Bqm_Texture_Plugin.so:__bss_start
Bqm_Texture_Plugin.so:_edata
Bqm_Texture_Plugin.so:_end
Bqm_Texture_Plugin.so:qt_plugin_instance
Bqm_Texture_Plugin.so:qt_plugin_query_metadata
Bqm_TimeAdjust_Plugin.so:__bss_start
Bqm_TimeAdjust_Plugin.so:_edata
Bqm_TimeAdjust_Plugin.so:_end
Bqm_TimeAdjust_Plugin.so:qt_plugin_instance
Bqm_TimeAdjust_Plugin.so:qt_plugin_query_metadata
Bqm_UserScript_Plugin.so:__bss_start
Bqm_UserScript_Plugin.so:_edata
Bqm_UserScript_Plugin.so:_end
Bqm_UserScript_Plugin.so:qt_plugin_instance
Bqm_UserScript_Plugin.so:qt_plugin_query_metadata
Bqm_WaterMark_Plugin.so:__bss_start
Bqm_WaterMark_Plugin.so:_edata
Bqm_WaterMark_Plugin.so:_end
Bqm_WaterMark_Plugin.so:qt_plugin_instance
Bqm_WaterMark_Plugin.so:qt_plugin_query_metadata
Bqm_WhiteBalance_Plugin.so:__bss_start
Bqm_WhiteBalance_Plugin.so:_edata
Bqm_WhiteBalance_Plugin.so:_end
Bqm_WhiteBalance_Plugin.so:qt_plugin_instance
Bqm_WhiteBalance_Plugin.so:qt_plugin_query_metadata
DImg_HEIF_Plugin.so:__bss_start
DImg_HEIF_Plugin.so:_edata
DImg_HEIF_Plugin.so:_end
DImg_HEIF_Plugin.so:qt_plugin_instance
DImg_HEIF_Plugin.so:qt_plugin_query_metadata
DImg_ImageMagick_Plugin.so:__bss_start
DImg_ImageMagick_Plugin.so:_edata
DImg_ImageMagick_Plugin.so:_end
DImg_ImageMagick_Plugin.so:qt_plugin_instance
DImg_ImageMagick_Plugin.so:qt_plugin_query_metadata
DImg_JPEG2000_Plugin.so:__bss_start
DImg_JPEG2000_Plugin.so:_edata
DImg_JPEG2000_Plugin.so:_end
DImg_JPEG2000_Plugin.so:qt_plugin_instance
DImg_JPEG2000_Plugin.so:qt_plugin_query_metadata
DImg_JPEG_Plugin.so:__bss_start
DImg_JPEG_Plugin.so:_edata
DImg_JPEG_Plugin.so:_end
DImg_JPEG_Plugin.so:qt_plugin_instance
DImg_JPEG_Plugin.so:qt_plugin_query_metadata
DImg_PGF_Plugin.so:__bss_start
DImg_PGF_Plugin.so:_edata
DImg_PGF_Plugin.so:_end
DImg_PGF_Plugin.so:qt_plugin_instance
DImg_PGF_Plugin.so:qt_plugin_query_metadata
DImg_PNG_Plugin.so:__bss_start
DImg_PNG_Plugin.so:_edata
DImg_PNG_Plugin.so:_end
DImg_PNG_Plugin.so:qt_plugin_instance
DImg_PNG_Plugin.so:qt_plugin_query_metadata
DImg_QImage_Plugin.so:__bss_start
DImg_QImage_Plugin.so:_edata
DImg_QImage_Plugin.so:_end
DImg_QImage_Plugin.so:qt_plugin_instance
DImg_QImage_Plugin.so:qt_plugin_query_metadata
DImg_RAW_Plugin.so:__bss_start
DImg_RAW_Plugin.so:_edata
DImg_RAW_Plugin.so:_end
DImg_RAW_Plugin.so:qt_plugin_instance
DImg_RAW_Plugin.so:qt_plugin_query_metadata
DImg_TIFF_Plugin.so:__bss_start
DImg_TIFF_Plugin.so:_edata
DImg_TIFF_Plugin.so:_end
DImg_TIFF_Plugin.so:qt_plugin_instance
DImg_TIFF_Plugin.so:qt_plugin_query_metadata
Editor_AdjustCurvesTool_Plugin.so:__bss_start
Editor_AdjustCurvesTool_Plugin.so:_edata
Editor_AdjustCurvesTool_Plugin.so:_end
Editor_AdjustCurvesTool_Plugin.so:qt_plugin_instance
Editor_AdjustCurvesTool_Plugin.so:qt_plugin_query_metadata
Editor_AdjustLevelsTool_Plugin.so:__bss_start
Editor_AdjustLevelsTool_Plugin.so:_edata
Editor_AdjustLevelsTool_Plugin.so:_end
Editor_AdjustLevelsTool_Plugin.so:qt_plugin_instance
Editor_AdjustLevelsTool_Plugin.so:qt_plugin_query_metadata
Editor_AntivignettingTool_Plugin.so:__bss_start
Editor_AntivignettingTool_Plugin.so:_edata
Editor_AntivignettingTool_Plugin.so:_end
Editor_AntivignettingTool_Plugin.so:qt_plugin_instance
Editor_AntivignettingTool_Plugin.so:qt_plugin_query_metadata
Editor_AutoCorrectionTool_Plugin.so:__bss_start
Editor_AutoCorrectionTool_Plugin.so:_edata
Editor_AutoCorrectionTool_Plugin.so:_end
Editor_AutoCorrectionTool_Plugin.so:qt_plugin_instance
Editor_AutoCorrectionTool_Plugin.so:qt_plugin_query_metadata
Editor_AutoCropTool_Plugin.so:__bss_start
Editor_AutoCropTool_Plugin.so:_edata
Editor_AutoCropTool_Plugin.so:_end
Editor_AutoCropTool_Plugin.so:qt_plugin_instance
Editor_AutoCropTool_Plugin.so:qt_plugin_query_metadata
Editor_BWSepiaTool_Plugin.so:__bss_start
Editor_BWSepiaTool_Plugin.so:_edata
Editor_BWSepiaTool_Plugin.so:_end
Editor_BWSepiaTool_Plugin.so:qt_plugin_instance
Editor_BWSepiaTool_Plugin.so:qt_plugin_query_metadata
Editor_BcgTool_Plugin.so:__bss_start
Editor_BcgTool_Plugin.so:_edata
Editor_BcgTool_Plugin.so:_end
Editor_BcgTool_Plugin.so:qt_plugin_instance
Editor_BcgTool_Plugin.so:qt_plugin_query_metadata
Editor_BlurFxTool_Plugin.so:__bss_start
Editor_BlurFxTool_Plugin.so:_edata
Editor_BlurFxTool_Plugin.so:_end
Editor_BlurFxTool_Plugin.so:qt_plugin_instance
Editor_BlurFxTool_Plugin.so:qt_plugin_query_metadata
Editor_BlurTool_Plugin.so:__bss_start
Editor_BlurTool_Plugin.so:_edata
Editor_BlurTool_Plugin.so:_end
Editor_BlurTool_Plugin.so:qt_plugin_instance
Editor_BlurTool_Plugin.so:qt_plugin_query_metadata
Editor_BorderTool_Plugin.so:__bss_start
Editor_BorderTool_Plugin.so:_edata
Editor_BorderTool_Plugin.so:_end
Editor_BorderTool_Plugin.so:qt_plugin_instance
Editor_BorderTool_Plugin.so:qt_plugin_query_metadata
Editor_CBTool_Plugin.so:__bss_start
Editor_CBTool_Plugin.so:_edata
Editor_CBTool_Plugin.so:_end
Editor_CBTool_Plugin.so:qt_plugin_instance
Editor_CBTool_Plugin.so:qt_plugin_query_metadata
Editor_ChannelMixerTool_Plugin.so:__bss_start
Editor_ChannelMixerTool_Plugin.so:_edata
Editor_ChannelMixerTool_Plugin.so:_end
Editor_ChannelMixerTool_Plugin.so:qt_plugin_instance
Editor_ChannelMixerTool_Plugin.so:qt_plugin_query_metadata
Editor_CharcoalTool_Plugin.so:__bss_start
Editor_CharcoalTool_Plugin.so:_edata
Editor_CharcoalTool_Plugin.so:_end
Editor_CharcoalTool_Plugin.so:qt_plugin_instance
Editor_CharcoalTool_Plugin.so:qt_plugin_query_metadata
Editor_ColorFxTool_Plugin.so:__bss_start
Editor_ColorFxTool_Plugin.so:_edata
Editor_ColorFxTool_Plugin.so:_end
Editor_ColorFxTool_Plugin.so:qt_plugin_instance
Editor_ColorFxTool_Plugin.so:qt_plugin_query_metadata
Editor_Convert16To8Tool_Plugin.so:__bss_start
Editor_Convert16To8Tool_Plugin.so:_edata
Editor_Convert16To8Tool_Plugin.so:_end
Editor_Convert16To8Tool_Plugin.so:qt_plugin_instance
Editor_Convert16To8Tool_Plugin.so:qt_plugin_query_metadata
Editor_Convert8To16Tool_Plugin.so:__bss_start
Editor_Convert8To16Tool_Plugin.so:_edata
Editor_Convert8To16Tool_Plugin.so:_end
Editor_Convert8To16Tool_Plugin.so:qt_plugin_instance
Editor_Convert8To16Tool_Plugin.so:qt_plugin_query_metadata
Editor_DistortionFxTool_Plugin.so:__bss_start
Editor_DistortionFxTool_Plugin.so:_edata
Editor_DistortionFxTool_Plugin.so:_end
Editor_DistortionFxTool_Plugin.so:qt_plugin_instance
Editor_DistortionFxTool_Plugin.so:qt_plugin_query_metadata
Editor_EmbossTool_Plugin.so:__bss_start
Editor_EmbossTool_Plugin.so:_edata
Editor_EmbossTool_Plugin.so:_end
Editor_EmbossTool_Plugin.so:qt_plugin_instance
Editor_EmbossTool_Plugin.so:qt_plugin_query_metadata
Editor_FilmGrainTool_Plugin.so:__bss_start
Editor_FilmGrainTool_Plugin.so:_edata
Editor_FilmGrainTool_Plugin.so:_end
Editor_FilmGrainTool_Plugin.so:qt_plugin_instance
Editor_FilmGrainTool_Plugin.so:qt_plugin_query_metadata
Editor_FilmTool_Plugin.so:__bss_start
Editor_FilmTool_Plugin.so:_edata
Editor_FilmTool_Plugin.so:_end
Editor_FilmTool_Plugin.so:qt_plugin_instance
Editor_FilmTool_Plugin.so:qt_plugin_query_metadata
Editor_FreeRotationTool_Plugin.so:__bss_start
Editor_FreeRotationTool_Plugin.so:_edata
Editor_FreeRotationTool_Plugin.so:_end
Editor_FreeRotationTool_Plugin.so:qt_plugin_instance
Editor_FreeRotationTool_Plugin.so:qt_plugin_query_metadata
Editor_HSLTool_Plugin.so:__bss_start
Editor_HSLTool_Plugin.so:_edata
Editor_HSLTool_Plugin.so:_end
Editor_HSLTool_Plugin.so:qt_plugin_instance
Editor_HSLTool_Plugin.so:qt_plugin_query_metadata
Editor_HealingCloneTool_Plugin.so:__bss_start
Editor_HealingCloneTool_Plugin.so:_edata
Editor_HealingCloneTool_Plugin.so:_end
Editor_HealingCloneTool_Plugin.so:qt_plugin_instance
Editor_HealingCloneTool_Plugin.so:qt_plugin_query_metadata
Editor_HotpixelsTool_Plugin.so:__bss_start
Editor_HotpixelsTool_Plugin.so:_edata
Editor_HotpixelsTool_Plugin.so:_end
Editor_HotpixelsTool_Plugin.so:qt_plugin_instance
Editor_HotpixelsTool_Plugin.so:qt_plugin_query_metadata
Editor_InsertTextTool_Plugin.so:__bss_start
Editor_InsertTextTool_Plugin.so:_edata
Editor_InsertTextTool_Plugin.so:_end
Editor_InsertTextTool_Plugin.so:qt_plugin_instance
Editor_InsertTextTool_Plugin.so:qt_plugin_query_metadata
Editor_InvertTool_Plugin.so:__bss_start
Editor_InvertTool_Plugin.so:_edata
Editor_InvertTool_Plugin.so:_end
Editor_InvertTool_Plugin.so:qt_plugin_instance
Editor_InvertTool_Plugin.so:qt_plugin_query_metadata
Editor_LensAutoFixTool_Plugin.so:__bss_start
Editor_LensAutoFixTool_Plugin.so:_edata
Editor_LensAutoFixTool_Plugin.so:_end
Editor_LensAutoFixTool_Plugin.so:qt_plugin_instance
Editor_LensAutoFixTool_Plugin.so:qt_plugin_query_metadata
Editor_LensDistortionTool_Plugin.so:__bss_start
Editor_LensDistortionTool_Plugin.so:_edata
Editor_LensDistortionTool_Plugin.so:_end
Editor_LensDistortionTool_Plugin.so:qt_plugin_instance
Editor_LensDistortionTool_Plugin.so:qt_plugin_query_metadata
Editor_LocalContrastTool_Plugin.so:__bss_start
Editor_LocalContrastTool_Plugin.so:_edata
Editor_LocalContrastTool_Plugin.so:_end
Editor_LocalContrastTool_Plugin.so:qt_plugin_instance
Editor_LocalContrastTool_Plugin.so:qt_plugin_query_metadata
Editor_NoiseReductionTool_Plugin.so:__bss_start
Editor_NoiseReductionTool_Plugin.so:_edata
Editor_NoiseReductionTool_Plugin.so:_end
Editor_NoiseReductionTool_Plugin.so:qt_plugin_instance
Editor_NoiseReductionTool_Plugin.so:qt_plugin_query_metadata
Editor_OilPaintTool_Plugin.so:__bss_start
Editor_OilPaintTool_Plugin.so:_edata
Editor_OilPaintTool_Plugin.so:_end
Editor_OilPaintTool_Plugin.so:qt_plugin_instance
Editor_OilPaintTool_Plugin.so:qt_plugin_query_metadata
Editor_PerspectiveTool_Plugin.so:__bss_start
Editor_PerspectiveTool_Plugin.so:_edata
Editor_PerspectiveTool_Plugin.so:_end
Editor_PerspectiveTool_Plugin.so:qt_plugin_instance
Editor_PerspectiveTool_Plugin.so:qt_plugin_query_metadata
Editor_PrintTool_Plugin.so:__bss_start
Editor_PrintTool_Plugin.so:_edata
Editor_PrintTool_Plugin.so:_end
Editor_PrintTool_Plugin.so:qt_plugin_instance
Editor_PrintTool_Plugin.so:qt_plugin_query_metadata
Editor_ProfileConversionTool_Plugin.so:__bss_start
Editor_ProfileConversionTool_Plugin.so:_edata
Editor_ProfileConversionTool_Plugin.so:_end
Editor_ProfileConversionTool_Plugin.so:qt_plugin_instance
Editor_ProfileConversionTool_Plugin.so:qt_plugin_query_metadata
Editor_RainDropTool_Plugin.so:__bss_start
Editor_RainDropTool_Plugin.so:_edata
Editor_RainDropTool_Plugin.so:_end
Editor_RainDropTool_Plugin.so:qt_plugin_instance
Editor_RainDropTool_Plugin.so:qt_plugin_query_metadata
Editor_RatioCropTool_Plugin.so:__bss_start
Editor_RatioCropTool_Plugin.so:_edata
Editor_RatioCropTool_Plugin.so:_end
Editor_RatioCropTool_Plugin.so:qt_plugin_instance
Editor_RatioCropTool_Plugin.so:qt_plugin_query_metadata
Editor_RedEyeTool_Plugin.so:__bss_start
Editor_RedEyeTool_Plugin.so:_edata
Editor_RedEyeTool_Plugin.so:_end
Editor_RedEyeTool_Plugin.so:qt_plugin_instance
Editor_RedEyeTool_Plugin.so:qt_plugin_query_metadata
Editor_ResizeTool_Plugin.so:__bss_start
Editor_ResizeTool_Plugin.so:_edata
Editor_ResizeTool_Plugin.so:_end
Editor_ResizeTool_Plugin.so:qt_plugin_instance
Editor_ResizeTool_Plugin.so:qt_plugin_query_metadata
Editor_RestorationTool_Plugin.so:__bss_start
Editor_RestorationTool_Plugin.so:_edata
Editor_RestorationTool_Plugin.so:_end
Editor_RestorationTool_Plugin.so:qt_plugin_instance
Editor_RestorationTool_Plugin.so:qt_plugin_query_metadata
Editor_SharpenTool_Plugin.so:__bss_start
Editor_SharpenTool_Plugin.so:_edata
Editor_SharpenTool_Plugin.so:_end
Editor_SharpenTool_Plugin.so:qt_plugin_instance
Editor_SharpenTool_Plugin.so:qt_plugin_query_metadata
Editor_ShearTool_Plugin.so:__bss_start
Editor_ShearTool_Plugin.so:_edata
Editor_ShearTool_Plugin.so:_end
Editor_ShearTool_Plugin.so:qt_plugin_instance
Editor_ShearTool_Plugin.so:qt_plugin_query_metadata
Editor_TextureTool_Plugin.so:__bss_start
Editor_TextureTool_Plugin.so:_edata
Editor_TextureTool_Plugin.so:_end
Editor_TextureTool_Plugin.so:qt_plugin_instance
Editor_TextureTool_Plugin.so:qt_plugin_query_metadata
Editor_WhiteBalanceTool_Plugin.so:__bss_start
Editor_WhiteBalanceTool_Plugin.so:_edata
Editor_WhiteBalanceTool_Plugin.so:_end
Editor_WhiteBalanceTool_Plugin.so:qt_plugin_instance
Editor_WhiteBalanceTool_Plugin.so:qt_plugin_query_metadata
Generic_Box_Plugin.so:__bss_start
Generic_Box_Plugin.so:_edata
Generic_Box_Plugin.so:_end
Generic_Box_Plugin.so:qt_plugin_instance
Generic_Box_Plugin.so:qt_plugin_query_metadata
Generic_Calendar_Plugin.so:__bss_start
Generic_Calendar_Plugin.so:_edata
Generic_Calendar_Plugin.so:_end
Generic_Calendar_Plugin.so:qt_plugin_instance
Generic_Calendar_Plugin.so:qt_plugin_query_metadata
Generic_DNGConverter_Plugin.so:__bss_start
Generic_DNGConverter_Plugin.so:_edata
Generic_DNGConverter_Plugin.so:_end
Generic_DNGConverter_Plugin.so:qt_plugin_instance
Generic_DNGConverter_Plugin.so:qt_plugin_query_metadata
Generic_DigitalScanner_Plugin.so:__bss_start
Generic_DigitalScanner_Plugin.so:_edata
Generic_DigitalScanner_Plugin.so:_end
Generic_DigitalScanner_Plugin.so:qt_plugin_instance
Generic_DigitalScanner_Plugin.so:qt_plugin_query_metadata
Generic_DropBox_Plugin.so:__bss_start
Generic_DropBox_Plugin.so:_edata
Generic_DropBox_Plugin.so:_end
Generic_DropBox_Plugin.so:qt_plugin_instance
Generic_DropBox_Plugin.so:qt_plugin_query_metadata
Generic_ExpoBlending_Plugin.so:__bss_start
Generic_ExpoBlending_Plugin.so:_edata
Generic_ExpoBlending_Plugin.so:_end
Generic_ExpoBlending_Plugin.so:qt_plugin_instance
Generic_ExpoBlending_Plugin.so:qt_plugin_query_metadata
Generic_FileCopy_Plugin.so:__bss_start
Generic_FileCopy_Plugin.so:_edata
Generic_FileCopy_Plugin.so:_end
Generic_FileCopy_Plugin.so:qt_plugin_instance
Generic_FileCopy_Plugin.so:qt_plugin_query_metadata
Generic_FileTransfer_Plugin.so:__bss_start
Generic_FileTransfer_Plugin.so:_edata
Generic_FileTransfer_Plugin.so:_end
Generic_FileTransfer_Plugin.so:qt_plugin_instance
Generic_FileTransfer_Plugin.so:qt_plugin_query_metadata
Generic_Flickr_Plugin.so:__bss_start
Generic_Flickr_Plugin.so:_edata
Generic_Flickr_Plugin.so:_end
Generic_Flickr_Plugin.so:qt_plugin_instance
Generic_Flickr_Plugin.so:qt_plugin_query_metadata
Generic_GLViewer_Plugin.so:__bss_start
Generic_GLViewer_Plugin.so:_edata
Generic_GLViewer_Plugin.so:_end
Generic_GLViewer_Plugin.so:qt_plugin_instance
Generic_GLViewer_Plugin.so:qt_plugin_query_metadata
Generic_GeolocationEdit_Plugin.so:__bss_start
Generic_GeolocationEdit_Plugin.so:_edata
Generic_GeolocationEdit_Plugin.so:_end
Generic_GeolocationEdit_Plugin.so:qt_plugin_instance
Generic_GeolocationEdit_Plugin.so:qt_plugin_query_metadata
Generic_Google_Plugin.so:__bss_start
Generic_Google_Plugin.so:_edata
Generic_Google_Plugin.so:_end
Generic_Google_Plugin.so:qt_plugin_instance
Generic_Google_Plugin.so:qt_plugin_query_metadata
Generic_HtmlGallery_Plugin.so:__bss_start
Generic_HtmlGallery_Plugin.so:_edata
Generic_HtmlGallery_Plugin.so:_end
Generic_HtmlGallery_Plugin.so:qt_plugin_instance
Generic_HtmlGallery_Plugin.so:qt_plugin_query_metadata
Generic_ImageShack_Plugin.so:__bss_start
Generic_ImageShack_Plugin.so:_edata
Generic_ImageShack_Plugin.so:_end
Generic_ImageShack_Plugin.so:qt_plugin_instance
Generic_ImageShack_Plugin.so:qt_plugin_query_metadata
Generic_ImgUr_Plugin.so:__bss_start
Generic_ImgUr_Plugin.so:_edata
Generic_ImgUr_Plugin.so:_end
Generic_ImgUr_Plugin.so:qt_plugin_instance
Generic_ImgUr_Plugin.so:qt_plugin_query_metadata
Generic_JAlbum_Plugin.so:__bss_start
Generic_JAlbum_Plugin.so:_edata
Generic_JAlbum_Plugin.so:_end
Generic_JAlbum_Plugin.so:qt_plugin_instance
Generic_JAlbum_Plugin.so:qt_plugin_query_metadata
Generic_MediaServer_Plugin.so:__bss_start
Generic_MediaServer_Plugin.so:_edata
Generic_MediaServer_Plugin.so:_end
Generic_MediaServer_Plugin.so:qt_plugin_instance
Generic_MediaServer_Plugin.so:qt_plugin_query_metadata
Generic_MediaWiki_Plugin.so:__bss_start
Generic_MediaWiki_Plugin.so:_edata
Generic_MediaWiki_Plugin.so:_end
Generic_MediaWiki_Plugin.so:qt_plugin_instance
Generic_MediaWiki_Plugin.so:qt_plugin_query_metadata
Generic_MetadataEdit_Plugin.so:__bss_start
Generic_MetadataEdit_Plugin.so:_edata
Generic_MetadataEdit_Plugin.so:_end
Generic_MetadataEdit_Plugin.so:qt_plugin_instance
Generic_MetadataEdit_Plugin.so:qt_plugin_query_metadata
Generic_OneDrive_Plugin.so:__bss_start
Generic_OneDrive_Plugin.so:_edata
Generic_OneDrive_Plugin.so:_end
Generic_OneDrive_Plugin.so:qt_plugin_instance
Generic_OneDrive_Plugin.so:qt_plugin_query_metadata
Generic_Panorama_Plugin.so:__bss_start
Generic_Panorama_Plugin.so:_edata
Generic_Panorama_Plugin.so:_end
Generic_Panorama_Plugin.so:qt_plugin_instance
Generic_Panorama_Plugin.so:qt_plugin_query_metadata
Generic_Pinterest_Plugin.so:__bss_start
Generic_Pinterest_Plugin.so:_edata
Generic_Pinterest_Plugin.so:_end
Generic_Pinterest_Plugin.so:qt_plugin_instance
Generic_Pinterest_Plugin.so:qt_plugin_query_metadata
Generic_Piwigo_Plugin.so:__bss_start
Generic_Piwigo_Plugin.so:_edata
Generic_Piwigo_Plugin.so:_end
Generic_Piwigo_Plugin.so:qt_plugin_instance
Generic_Piwigo_Plugin.so:qt_plugin_query_metadata
Generic_Presentation_Plugin.so:__bss_start
Generic_Presentation_Plugin.so:_edata
Generic_Presentation_Plugin.so:_end
Generic_Presentation_Plugin.so:qt_plugin_instance
Generic_Presentation_Plugin.so:qt_plugin_query_metadata
Generic_PrintCreator_Plugin.so:__bss_start
Generic_PrintCreator_Plugin.so:_edata
Generic_PrintCreator_Plugin.so:_end
Generic_PrintCreator_Plugin.so:qt_plugin_instance
Generic_PrintCreator_Plugin.so:qt_plugin_query_metadata
Generic_Rajce_Plugin.so:__bss_start
Generic_Rajce_Plugin.so:_edata
Generic_Rajce_Plugin.so:_end
Generic_Rajce_Plugin.so:qt_plugin_instance
Generic_Rajce_Plugin.so:qt_plugin_query_metadata
Generic_SendByMail_Plugin.so:__bss_start
Generic_SendByMail_Plugin.so:_edata
Generic_SendByMail_Plugin.so:_end
Generic_SendByMail_Plugin.so:qt_plugin_instance
Generic_SendByMail_Plugin.so:qt_plugin_query_metadata
Generic_SlideShow_Plugin.so:__bss_start
Generic_SlideShow_Plugin.so:_edata
Generic_SlideShow_Plugin.so:_end
Generic_SlideShow_Plugin.so:qt_plugin_instance
Generic_SlideShow_Plugin.so:qt_plugin_query_metadata
Generic_SmugMug_Plugin.so:__bss_start
Generic_SmugMug_Plugin.so:_edata
Generic_SmugMug_Plugin.so:_end
Generic_SmugMug_Plugin.so:qt_plugin_instance
Generic_SmugMug_Plugin.so:qt_plugin_query_metadata
Generic_TimeAdjust_Plugin.so:__bss_start
Generic_TimeAdjust_Plugin.so:_edata
Generic_TimeAdjust_Plugin.so:_end
Generic_TimeAdjust_Plugin.so:qt_plugin_instance
Generic_TimeAdjust_Plugin.so:qt_plugin_query_metadata
Generic_Twitter_Plugin.so:__bss_start
Generic_Twitter_Plugin.so:_edata
Generic_Twitter_Plugin.so:_end
Generic_Twitter_Plugin.so:qt_plugin_instance
Generic_Twitter_Plugin.so:qt_plugin_query_metadata
Generic_VKontakte_Plugin.so:__bss_start
Generic_VKontakte_Plugin.so:_edata
Generic_VKontakte_Plugin.so:_end
Generic_VKontakte_Plugin.so:qt_plugin_instance
Generic_VKontakte_Plugin.so:qt_plugin_query_metadata
Generic_Wallpaper_Plugin.so:__bss_start
Generic_Wallpaper_Plugin.so:_edata
Generic_Wallpaper_Plugin.so:_end
Generic_Wallpaper_Plugin.so:qt_plugin_instance
Generic_Wallpaper_Plugin.so:qt_plugin_query_metadata
Generic_YandexFotki_Plugin.so:__bss_start
Generic_YandexFotki_Plugin.so:_edata
Generic_YandexFotki_Plugin.so:_end
Generic_YandexFotki_Plugin.so:qt_plugin_instance
Generic_YandexFotki_Plugin.so:qt_plugin_query_metadata
Generic_iNaturalist_Plugin.so:__bss_start
Generic_iNaturalist_Plugin.so:_edata
Generic_iNaturalist_Plugin.so:_end
Generic_iNaturalist_Plugin.so:qt_plugin_instance
Generic_iNaturalist_Plugin.so:qt_plugin_query_metadata
RawImport_DarkTable_Plugin.so:__bss_start
RawImport_DarkTable_Plugin.so:_edata
RawImport_DarkTable_Plugin.so:_end
RawImport_DarkTable_Plugin.so:qt_plugin_instance
RawImport_DarkTable_Plugin.so:qt_plugin_query_metadata
RawImport_Native_Plugin.so:__bss_start
RawImport_Native_Plugin.so:_edata
RawImport_Native_Plugin.so:_end
RawImport_Native_Plugin.so:qt_plugin_instance
RawImport_Native_Plugin.so:qt_plugin_query_metadata
RawImport_RawTherapee_Plugin.so:__bss_start
RawImport_RawTherapee_Plugin.so:_edata
RawImport_RawTherapee_Plugin.so:_end
RawImport_RawTherapee_Plugin.so:qt_plugin_instance
RawImport_RawTherapee_Plugin.so:qt_plugin_query_metadata
RawImport_UFRaw_Plugin.so:__bss_start
RawImport_UFRaw_Plugin.so:_edata
RawImport_UFRaw_Plugin.so:_end
RawImport_UFRaw_Plugin.so:qt_plugin_instance
RawImport_UFRaw_Plugin.so:qt_plugin_query_metadata
libdigikamcore.so.7.3.0:.gomp_critical_user_dataupdate
libdigikamcore.so.7.3.0:_Z10dkCmsIsTagPv14icTagSignature
libdigikamcore.so.7.3.0:_Z11dkCmsDeltaEP9cmsCIELabS0_
libdigikamcore.so.7.3.0:_Z11dkCmsGetPCSPv
libdigikamcore.so.7.3.0:_Z12dkCmsXYZ2xyYP9cmsCIExyYPK9cmsCIEXYZ
libdigikamcore.so.7.3.0:_Z14dkCmsTakeModelPv
libdigikamcore.so.7.3.0:_Z16DIGIKAM_DIMG_LOGv
libdigikamcore.so.7.3.0:_Z16dkCmsDoTransformPvS_S_j
libdigikamcore.so.7.3.0:_Z16dkCmsErrorActioni
libdigikamcore.so.7.3.0:_Z17DIGIKAM_DBJOB_LOGv
libdigikamcore.so.7.3.0:_Z17DIGIKAM_IOJOB_LOGv
libdigikamcore.so.7.3.0:_Z17DIGIKAM_TESTS_LOGv
libdigikamcore.so.7.3.0:_Z17dkCmsCloseProfilePv
libdigikamcore.so.7.3.0:_Z18DIGIKAM_COREDB_LOGv
libdigikamcore.so.7.3.0:_Z18DIGIKAM_FACEDB_LOGv
libdigikamcore.so.7.3.0:_Z18dkCmsGetColorSpacePv
libdigikamcore.so.7.3.0:_Z18dkCmsSetAlarmCodesiii
libdigikamcore.so.7.3.0:_Z18dkCmsTakeCopyrightPv
libdigikamcore.so.7.3.0:_Z18dkCmsTakeProfileIDPv
libdigikamcore.so.7.3.0:_Z19DIGIKAM_GENERAL_LOGv
libdigikamcore.so.7.3.0:_Z19DIGIKAM_WIDGETS_LOGv
libdigikamcore.so.7.3.0:_Z19dkCmsGetDeviceClassPv
libdigikamcore.so.7.3.0:_Z20DIGIKAM_DATABASE_LOGv
libdigikamcore.so.7.3.0:_Z20DIGIKAM_DBENGINE_LOGv
libdigikamcore.so.7.3.0:_Z20DIGIKAM_DIMG_LOG_PGFv
libdigikamcore.so.7.3.0:_Z20DIGIKAM_DIMG_LOG_PNGv
libdigikamcore.so.7.3.0:_Z20DIGIKAM_DIMG_LOG_PPMv
libdigikamcore.so.7.3.0:_Z20DIGIKAM_DIMG_LOG_RAWv
libdigikamcore.so.7.3.0:_Z20DIGIKAM_GEOIFACE_LOGv
libdigikamcore.so.7.3.0:_Z20DIGIKAM_IMPORTUI_LOGv
libdigikamcore.so.7.3.0:_Z20DIGIKAM_MEDIASRV_LOGv
libdigikamcore.so.7.3.0:_Z20DIGIKAM_SHOWFOTO_LOGv
libdigikamcore.so.7.3.0:_Z20DIGIKAM_THUMBSDB_LOGv
libdigikamcore.so.7.3.0:_Z20dkCmsCreateTransformPvmS_mim
libdigikamcore.so.7.3.0:_Z20dkCmsDeleteTransformPv
libdigikamcore.so.7.3.0:_Z20dkCmsTakeHeaderFlagsPv
libdigikamcore.so.7.3.0:_Z20dkCmsTakeProductDescPv
libdigikamcore.so.7.3.0:_Z20dkCmsTakeProductInfoPv
libdigikamcore.so.7.3.0:_Z20dkCmsTakeProductNamePv
libdigikamcore.so.7.3.0:_Z21DIGIKAM_DIMG_LOG_HEIFv
libdigikamcore.so.7.3.0:_Z21DIGIKAM_DIMG_LOG_JP2Kv
libdigikamcore.so.7.3.0:_Z21DIGIKAM_DIMG_LOG_JPEGv
libdigikamcore.so.7.3.0:_Z21DIGIKAM_DIMG_LOG_TIFFv
libdigikamcore.so.7.3.0:_Z21DIGIKAM_RAWENGINE_LOGv
libdigikamcore.so.7.3.0:_Z21dkCmsCreateXYZProfilev
libdigikamcore.so.7.3.0:_Z21dkCmsFloat2XYZEncodedPtPK9cmsCIEXYZ
libdigikamcore.so.7.3.0:_Z21dkCmsTakeManufacturerPv
libdigikamcore.so.7.3.0:_Z22DIGIKAM_METAENGINE_LOGv
libdigikamcore.so.7.3.0:_Z23DIGIKAM_DIMG_LOG_MAGICKv
libdigikamcore.so.7.3.0:_Z23DIGIKAM_DIMG_LOG_QIMAGEv
libdigikamcore.so.7.3.0:_Z23DIGIKAM_DPLUGIN_BQM_LOGv
libdigikamcore.so.7.3.0:_Z23DIGIKAM_FACESENGINE_LOGv
libdigikamcore.so.7.3.0:_Z23DIGIKAM_WEBSERVICES_LOGv
libdigikamcore.so.7.3.0:_Z23dkCmsAdaptMatrixFromD50P15cmsCIEXYZTRIPLEP9cmsCIExyY
libdigikamcore.so.7.3.0:_Z23dkCmsCreate_sRGBProfilev
libdigikamcore.so.7.3.0:_Z23dkCmsOpenProfileFromMemPvm
libdigikamcore.so.7.3.0:_Z24DIGIKAM_SIMILARITYDB_LOGv
libdigikamcore.so.7.3.0:_Z24dkCmsOpenProfileFromFilePKcS0_
libdigikamcore.so.7.3.0:_Z24dkCmsTakeMediaWhitePointP9cmsCIEXYZPv
libdigikamcore.so.7.3.0:_Z24dkCmsTakeRenderingIntentPv
libdigikamcore.so.7.3.0:_Z25DIGIKAM_MEDIASRV_LOG_INFOv
libdigikamcore.so.7.3.0:_Z25DIGIKAM_MEDIASRV_LOG_WARNv
libdigikamcore.so.7.3.0:_Z25dkCmsGetProfileICCversionPv
libdigikamcore.so.7.3.0:_Z25dkCmsReadICCMatrixRGB2XYZP15cmsCIEXYZTRIPLEPv
libdigikamcore.so.7.3.0:_Z26DIGIKAM_DATABASESERVER_LOGv
libdigikamcore.so.7.3.0:_Z26DIGIKAM_DPLUGIN_EDITOR_LOGv
libdigikamcore.so.7.3.0:_Z26DIGIKAM_MEDIASRV_LOG_DEBUGv
libdigikamcore.so.7.3.0:_Z26DIGIKAM_MEDIASRV_LOG_FATALv
libdigikamcore.so.7.3.0:_Z26digikamSetDebugFilterRulesv
libdigikamcore.so.7.3.0:_Z27DIGIKAM_DPLUGIN_GENERIC_LOGv
libdigikamcore.so.7.3.0:_Z27DIGIKAM_MEDIASRV_LOG_SEVEREv
libdigikamcore.so.7.3.0:_Z28dkCmsCreateProofingTransformPvmS_mS_iim
libdigikamcore.so.7.3.0:_ZN10O0BaseAuth11extraTokensEv
libdigikamcore.so.7.3.0:_ZN10O0BaseAuth11openBrowserERK4QUrl
libdigikamcore.so.7.3.0:_ZN10O0BaseAuth11qt_metacallEN11QMetaObject4CallEiPPv
libdigikamcore.so.7.3.0:_ZN10O0BaseAuth11qt_metacastEPKc
libdigikamcore.so.7.3.0:_ZN10O0BaseAuth11setClientIdERK7QString
libdigikamcore.so.7.3.0:_ZN10O0BaseAuth11tokenSecretEv
libdigikamcore.so.7.3.0:_ZN10O0BaseAuth12clientSecretEv
libdigikamcore.so.7.3.0:_ZN10O0BaseAuth12closeBrowserEv
libdigikamcore.so.7.3.0:_ZN10O0BaseAuth12setLocalPortEi
libdigikamcore.so.7.3.0:_ZN10O0BaseAuth12tokenChangedEv
libdigikamcore.so.7.3.0:_ZN10O0BaseAuth13linkedChangedEv
libdigikamcore.so.7.3.0:_ZN10O0BaseAuth13linkingFailedEv
libdigikamcore.so.7.3.0:_ZN10O0BaseAuth14setExtraTokensE4QMapI7QString8QVariantE
libdigikamcore.so.7.3.0:_ZN10O0BaseAuth14setReplyServerEP13O2ReplyServer
libdigikamcore.so.7.3.0:_ZN10O0BaseAuth14setTokenSecretERK7QString
libdigikamcore.so.7.3.0:_ZN10O0BaseAuth15clientIdChangedEv
libdigikamcore.so.7.3.0:_ZN10O0BaseAuth15setClientSecretERK7QString
libdigikamcore.so.7.3.0:_ZN10O0BaseAuth15setReplyContentERK10QByteArray
libdigikamcore.so.7.3.0:_ZN10O0BaseAuth16linkingSucceededEv
libdigikamcore.so.7.3.0:_ZN10O0BaseAuth16localPortChangedEv
libdigikamcore.so.7.3.0:_ZN10O0BaseAuth16staticMetaObjectE
libdigikamcore.so.7.3.0:_ZN10O0BaseAuth18extraTokensChangedEv
libdigikamcore.so.7.3.0:_ZN10O0BaseAuth18tokenSecretChangedEv
libdigikamcore.so.7.3.0:_ZN10O0BaseAuth19clientSecretChangedEv
libdigikamcore.so.7.3.0:_ZN10O0BaseAuth21createQueryParametersERK5QListI18O0RequestParameterE
libdigikamcore.so.7.3.0:_ZN10O0BaseAuth25useExternalWebInterceptorEv
libdigikamcore.so.7.3.0:_ZN10O0BaseAuth28setUseExternalWebInterceptorEb
libdigikamcore.so.7.3.0:_ZN10O0BaseAuth5tokenEv
libdigikamcore.so.7.3.0:_ZN10O0BaseAuth6linkedEv
libdigikamcore.so.7.3.0:_ZN10O0BaseAuth8clientIdEv
libdigikamcore.so.7.3.0:_ZN10O0BaseAuth8setStoreEP15O0AbstractStore
libdigikamcore.so.7.3.0:_ZN10O0BaseAuth8setTokenERK7QString
libdigikamcore.so.7.3.0:_ZN10O0BaseAuth9localPortEv
libdigikamcore.so.7.3.0:_ZN10O0BaseAuth9setLinkedEb
libdigikamcore.so.7.3.0:_ZN10O0BaseAuthC1EP7QObjectP15O0AbstractStore
libdigikamcore.so.7.3.0:_ZN10O0BaseAuthC2EP7QObjectP15O0AbstractStore
libdigikamcore.so.7.3.0:_ZN10O2Facebook11qt_metacallEN11QMetaObject4CallEiPPv
libdigikamcore.so.7.3.0:_ZN10O2Facebook11qt_metacastEPKc
libdigikamcore.so.7.3.0:_ZN10O2Facebook16staticMetaObjectE
libdigikamcore.so.7.3.0:_ZN10O2Facebook20onTokenReplyFinishedEv
libdigikamcore.so.7.3.0:_ZN10O2Facebook22onVerificationReceivedE4QMapI7QStringS1_E
libdigikamcore.so.7.3.0:_ZN10O2FacebookC1EP7QObject
libdigikamcore.so.7.3.0:_ZN10O2FacebookC2EP7QObject
libdigikamcore.so.7.3.0:_ZN11O1Requestor11qt_metacallEN11QMetaObject4CallEiPPv
libdigikamcore.so.7.3.0:_ZN11O1Requestor11qt_metacastEPKc
libdigikamcore.so.7.3.0:_ZN11O1Requestor16staticMetaObjectE
libdigikamcore.so.7.3.0:_ZN11O1Requestor3getERK15QNetworkRequestRK5QListI18O0RequestParameterE
libdigikamcore.so.7.3.0:_ZN11O1Requestor3putERK15QNetworkRequestRK5QListI18O0RequestParameterERK10QByteArray
libdigikamcore.so.7.3.0:_ZN11O1Requestor4postERK15QNetworkRequestRK5QListI18O0RequestParameterEP14QHttpMultiPart
libdigikamcore.so.7.3.0:_ZN11O1Requestor4postERK15QNetworkRequestRK5QListI18O0RequestParameterERK10QByteArray
libdigikamcore.so.7.3.0:_ZN11O1Requestor5setupERK15QNetworkRequestRK5QListI18O0RequestParameterEN21QNetworkAccessManager9OperationE
libdigikamcore.so.7.3.0:_ZN11O1Requestor8addTimerEP13QNetworkReply
libdigikamcore.so.7.3.0:_ZN11O1RequestorC1EP21QNetworkAccessManagerP2O1P7QObject
libdigikamcore.so.7.3.0:_ZN11O1RequestorC2EP21QNetworkAccessManagerP2O1P7QObject
libdigikamcore.so.7.3.0:_ZN11O2ReplyList15ignoreSslErrorsEv
libdigikamcore.so.7.3.0:_ZN11O2ReplyList18setIgnoreSslErrorsEb
libdigikamcore.so.7.3.0:_ZN11O2ReplyList3addEP13QNetworkReply
libdigikamcore.so.7.3.0:_ZN11O2ReplyList3addEP7O2Reply
libdigikamcore.so.7.3.0:_ZN11O2ReplyList4findEP13QNetworkReply
libdigikamcore.so.7.3.0:_ZN11O2ReplyList6removeEP13QNetworkReply
libdigikamcore.so.7.3.0:_ZN11O2ReplyListD0Ev
libdigikamcore.so.7.3.0:_ZN11O2ReplyListD1Ev
libdigikamcore.so.7.3.0:_ZN11O2ReplyListD2Ev
libdigikamcore.so.7.3.0:_ZN11O2Requestor11qt_metacallEN11QMetaObject4CallEiPPv
libdigikamcore.so.7.3.0:_ZN11O2Requestor11qt_metacastEPKc
libdigikamcore.so.7.3.0:_ZN11O2Requestor13customRequestERK15QNetworkRequestRK10QByteArrayS5_i
libdigikamcore.so.7.3.0:_ZN11O2Requestor14onRequestErrorEN13QNetworkReply12NetworkErrorE
libdigikamcore.so.7.3.0:_ZN11O2Requestor14uploadProgressEixx
libdigikamcore.so.7.3.0:_ZN11O2Requestor16onUploadProgressExx
libdigikamcore.so.7.3.0:_ZN11O2Requestor16staticMetaObjectE
libdigikamcore.so.7.3.0:_ZN11O2Requestor17onRefreshFinishedEN13QNetworkReply12NetworkErrorE
libdigikamcore.so.7.3.0:_ZN11O2Requestor17onRequestFinishedEv
libdigikamcore.so.7.3.0:_ZN11O2Requestor24setAddAccessTokenInQueryEb
libdigikamcore.so.7.3.0:_ZN11O2Requestor3getERK15QNetworkRequesti
libdigikamcore.so.7.3.0:_ZN11O2Requestor3putERK15QNetworkRequestP14QHttpMultiParti
libdigikamcore.so.7.3.0:_ZN11O2Requestor3putERK15QNetworkRequestRK10QByteArrayi
libdigikamcore.so.7.3.0:_ZN11O2Requestor46setAccessTokenInAuthenticationHTTPHeaderFormatERK7QString
libdigikamcore.so.7.3.0:_ZN11O2Requestor4headERK15QNetworkRequesti
libdigikamcore.so.7.3.0:_ZN11O2Requestor4postERK15QNetworkRequestP14QHttpMultiParti
libdigikamcore.so.7.3.0:_ZN11O2Requestor4postERK15QNetworkRequestRK10QByteArrayi
libdigikamcore.so.7.3.0:_ZN11O2Requestor5retryEv
libdigikamcore.so.7.3.0:_ZN11O2Requestor5setupERK15QNetworkRequestN21QNetworkAccessManager9OperationERK10QByteArray
libdigikamcore.so.7.3.0:_ZN11O2Requestor6finishEv
libdigikamcore.so.7.3.0:_ZN11O2Requestor8finishedEiN13QNetworkReply12NetworkErrorE10QByteArray
libdigikamcore.so.7.3.0:_ZN11O2Requestor8finishedEiN13QNetworkReply12NetworkErrorE10QByteArray5QListI5QPairIS2_S2_EE
libdigikamcore.so.7.3.0:_ZN11O2RequestorC1EP21QNetworkAccessManagerP2O2P7QObject
libdigikamcore.so.7.3.0:_ZN11O2RequestorC2EP21QNetworkAccessManagerP2O2P7QObject
libdigikamcore.so.7.3.0:_ZN11O2RequestorD0Ev
libdigikamcore.so.7.3.0:_ZN11O2RequestorD1Ev
libdigikamcore.so.7.3.0:_ZN11O2RequestorD2Ev
libdigikamcore.so.7.3.0:_ZN12O1TimedReply10onFinishedEv
libdigikamcore.so.7.3.0:_ZN12O1TimedReply11qt_metacallEN11QMetaObject4CallEiPPv
libdigikamcore.so.7.3.0:_ZN12O1TimedReply11qt_metacastEPKc
libdigikamcore.so.7.3.0:_ZN12O1TimedReply16staticMetaObjectE
libdigikamcore.so.7.3.0:_ZN12O1TimedReply5errorEN13QNetworkReply12NetworkErrorE
libdigikamcore.so.7.3.0:_ZN12O1TimedReply8finishedEv
libdigikamcore.so.7.3.0:_ZN12O1TimedReply9onTimeoutEv
libdigikamcore.so.7.3.0:_ZN12O1TimedReplyC1EP13QNetworkReplyi
libdigikamcore.so.7.3.0:_ZN12O1TimedReplyC2EP13QNetworkReplyi
libdigikamcore.so.7.3.0:_ZN13O0SimpleCrypt15decryptToStringE10QByteArray
libdigikamcore.so.7.3.0:_ZN13O0SimpleCrypt15decryptToStringERK7QString
libdigikamcore.so.7.3.0:_ZN13O0SimpleCrypt15encryptToStringE10QByteArray
libdigikamcore.so.7.3.0:_ZN13O0SimpleCrypt15encryptToStringERK7QString
libdigikamcore.so.7.3.0:_ZN13O0SimpleCrypt18decryptToByteArrayE10QByteArray
libdigikamcore.so.7.3.0:_ZN13O0SimpleCrypt18decryptToByteArrayERK7QString
libdigikamcore.so.7.3.0:_ZN13O0SimpleCrypt18encryptToByteArrayE10QByteArray
libdigikamcore.so.7.3.0:_ZN13O0SimpleCrypt18encryptToByteArrayERK7QString
libdigikamcore.so.7.3.0:_ZN13O0SimpleCrypt6setKeyEy
libdigikamcore.so.7.3.0:_ZN13O0SimpleCrypt8splitKeyEv
libdigikamcore.so.7.3.0:_ZN13O0SimpleCryptC1Ev
libdigikamcore.so.7.3.0:_ZN13O0SimpleCryptC1Ey
libdigikamcore.so.7.3.0:_ZN13O0SimpleCryptC2Ev
libdigikamcore.so.7.3.0:_ZN13O0SimpleCryptC2Ey
libdigikamcore.so.7.3.0:_ZN13O2ReplyServer10setTimeoutEi
libdigikamcore.so.7.3.0:_ZN13O2ReplyServer11closeServerEP10QTcpSocketb
libdigikamcore.so.7.3.0:_ZN13O2ReplyServer11qt_metacallEN11QMetaObject4CallEiPPv
libdigikamcore.so.7.3.0:_ZN13O2ReplyServer11qt_metacastEPKc
libdigikamcore.so.7.3.0:_ZN13O2ReplyServer11uniqueStateEv
libdigikamcore.so.7.3.0:_ZN13O2ReplyServer12onBytesReadyEv
libdigikamcore.so.7.3.0:_ZN13O2ReplyServer12replyContentEv
libdigikamcore.so.7.3.0:_ZN13O2ReplyServer12serverClosedEb
libdigikamcore.so.7.3.0:_ZN13O2ReplyServer13callbackTriesEv
libdigikamcore.so.7.3.0:_ZN13O2ReplyServer14setUniqueStateERK7QString
libdigikamcore.so.7.3.0:_ZN13O2ReplyServer15setReplyContentERK10QByteArray
libdigikamcore.so.7.3.0:_ZN13O2ReplyServer16parseQueryParamsEP10QByteArray
libdigikamcore.so.7.3.0:_ZN13O2ReplyServer16setCallbackTriesEi
libdigikamcore.so.7.3.0:_ZN13O2ReplyServer16staticMetaObjectE
libdigikamcore.so.7.3.0:_ZN13O2ReplyServer20onIncomingConnectionEv
libdigikamcore.so.7.3.0:_ZN13O2ReplyServer20verificationReceivedE4QMapI7QStringS1_E
libdigikamcore.so.7.3.0:_ZN13O2ReplyServer7timeoutEv
libdigikamcore.so.7.3.0:_ZN13O2ReplyServerC1EP7QObject
libdigikamcore.so.7.3.0:_ZN13O2ReplyServerC2EP7QObject
libdigikamcore.so.7.3.0:_ZN14CPGFFileStream4ReadEPiPv
libdigikamcore.so.7.3.0:_ZN14CPGFFileStream5WriteEPiPv
libdigikamcore.so.7.3.0:_ZN14CPGFFileStream6SetPosEsl
libdigikamcore.so.7.3.0:_ZN15O0SettingsStore11qt_metacallEN11QMetaObject4CallEiPPv
libdigikamcore.so.7.3.0:_ZN15O0SettingsStore11qt_metacastEPKc
libdigikamcore.so.7.3.0:_ZN15O0SettingsStore11setGroupKeyERK7QString
libdigikamcore.so.7.3.0:_ZN15O0SettingsStore15groupKeyChangedEv
libdigikamcore.so.7.3.0:_ZN15O0SettingsStore16staticMetaObjectE
libdigikamcore.so.7.3.0:_ZN15O0SettingsStore5valueERK7QStringS2_
libdigikamcore.so.7.3.0:_ZN15O0SettingsStore8setValueERK7QStringS2_
libdigikamcore.so.7.3.0:_ZN15O0SettingsStoreC1EP9QSettingsRK7QStringP7QObject
libdigikamcore.so.7.3.0:_ZN15O0SettingsStoreC1ERK7QStringP7QObject
libdigikamcore.so.7.3.0:_ZN15O0SettingsStoreC2EP9QSettingsRK7QStringP7QObject
libdigikamcore.so.7.3.0:_ZN15O0SettingsStoreC2ERK7QStringP7QObject
libdigikamcore.so.7.3.0:_ZN16CPGFMemoryStream12ReinitializeEPhm
libdigikamcore.so.7.3.0:_ZN16CPGFMemoryStream4ReadEPiPv
libdigikamcore.so.7.3.0:_ZN16CPGFMemoryStream5WriteEPiPv
libdigikamcore.so.7.3.0:_ZN16CPGFMemoryStream6SetPosEsl
libdigikamcore.so.7.3.0:_ZN16CPGFMemoryStreamC1EPhm
libdigikamcore.so.7.3.0:_ZN16CPGFMemoryStreamC1Em
libdigikamcore.so.7.3.0:_ZN16CPGFMemoryStreamC2EPhm
libdigikamcore.so.7.3.0:_ZN16CPGFMemoryStreamC2Em
libdigikamcore.so.7.3.0:_ZN2O111callbackUrlEv
libdigikamcore.so.7.3.0:_ZN2O111qt_metacallEN11QMetaObject4CallEiPPv
libdigikamcore.so.7.3.0:_ZN2O111qt_metacastEPKc
libdigikamcore.so.7.3.0:_ZN2O112authorizeUrlEv
libdigikamcore.so.7.3.0:_ZN2O112setUserAgentERK10QByteArray
libdigikamcore.so.7.3.0:_ZN2O113encodeHeadersERK5QListI18O0RequestParameterE
libdigikamcore.so.7.3.0:_ZN2O113exchangeTokenEv
libdigikamcore.so.7.3.0:_ZN2O113parseResponseERK10QByteArray
libdigikamcore.so.7.3.0:_ZN2O114accessTokenUrlEv
libdigikamcore.so.7.3.0:_ZN2O114getRequestBaseERK5QListI18O0RequestParameterES4_RK4QUrlN21QNetworkAccessManager9OperationE
libdigikamcore.so.7.3.0:_ZN2O114setCallbackUrlERK7QString
libdigikamcore.so.7.3.0:_ZN2O115decorateRequestER15QNetworkRequestRK5QListI18O0RequestParameterE
libdigikamcore.so.7.3.0:_ZN2O115requestTokenUrlEv
libdigikamcore.so.7.3.0:_ZN2O115setAuthorizeUrlERK4QUrl
libdigikamcore.so.7.3.0:_ZN2O115signatureMethodEv
libdigikamcore.so.7.3.0:_ZN2O116staticMetaObjectE
libdigikamcore.so.7.3.0:_ZN2O117generateSignatureE5QListI18O0RequestParameterERK15QNetworkRequestRKS2_N21QNetworkAccessManager9OperationE
libdigikamcore.so.7.3.0:_ZN2O117requestParametersEv
libdigikamcore.so.7.3.0:_ZN2O117setAccessTokenUrlERK4QUrl
libdigikamcore.so.7.3.0:_ZN2O118setRequestTokenUrlERK4QUrl
libdigikamcore.so.7.3.0:_ZN2O118setSignatureMethodERK7QString
libdigikamcore.so.7.3.0:_ZN2O119authorizeUrlChangedEv
libdigikamcore.so.7.3.0:_ZN2O119onTokenRequestErrorEN13QNetworkReply12NetworkErrorE
libdigikamcore.so.7.3.0:_ZN2O120onTokenExchangeErrorEN13QNetworkReply12NetworkErrorE
libdigikamcore.so.7.3.0:_ZN2O120setRequestParametersERK5QListI18O0RequestParameterE
libdigikamcore.so.7.3.0:_ZN2O121accessTokenUrlChangedEv
libdigikamcore.so.7.3.0:_ZN2O122onTokenRequestFinishedEv
libdigikamcore.so.7.3.0:_ZN2O122onVerificationReceivedE4QMapI7QStringS1_E
libdigikamcore.so.7.3.0:_ZN2O122requestTokenUrlChangedEv
libdigikamcore.so.7.3.0:_ZN2O122signatureMethodChangedEv
libdigikamcore.so.7.3.0:_ZN2O123onTokenExchangeFinishedEv
libdigikamcore.so.7.3.0:_ZN2O124buildAuthorizationHeaderERK5QListI18O0RequestParameterE
libdigikamcore.so.7.3.0:_ZN2O14linkEv
libdigikamcore.so.7.3.0:_ZN2O14signERK5QListI18O0RequestParameterES4_RK4QUrlN21QNetworkAccessManager9OperationERK7QStringSC_
libdigikamcore.so.7.3.0:_ZN2O15nonceEv
libdigikamcore.so.7.3.0:_ZN2O16unlinkEv
libdigikamcore.so.7.3.0:_ZN2O1C1EP7QObjectP21QNetworkAccessManagerP15O0AbstractStore
libdigikamcore.so.7.3.0:_ZN2O1C2EP7QObjectP21QNetworkAccessManagerP15O0AbstractStore
libdigikamcore.so.7.3.0:_ZN2O210requestUrlEv
libdigikamcore.so.7.3.0:_ZN2O210setExpiresEi
libdigikamcore.so.7.3.0:_ZN2O211qt_metacallEN11QMetaObject4CallEiPPv
libdigikamcore.so.7.3.0:_ZN2O211qt_metacastEPKc
libdigikamcore.so.7.3.0:_ZN2O211setPasswordERK7QString
libdigikamcore.so.7.3.0:_ZN2O211setTokenUrlERK7QString
libdigikamcore.so.7.3.0:_ZN2O211setUsernameERK7QString
libdigikamcore.so.7.3.0:_ZN2O212refreshTokenEv
libdigikamcore.so.7.3.0:_ZN2O212scopeChangedEv
libdigikamcore.so.7.3.0:_ZN2O212setGrantFlowENS_9GrantFlowE
libdigikamcore.so.7.3.0:_ZN2O213setRequestUrlERK7QString
libdigikamcore.so.7.3.0:_ZN2O214onRefreshErrorEN13QNetworkReply12NetworkErrorE
libdigikamcore.so.7.3.0:_ZN2O215ignoreSslErrorsEv
libdigikamcore.so.7.3.0:_ZN2O215passwordChangedEv
libdigikamcore.so.7.3.0:_ZN2O215refreshFinishedEN13QNetworkReply12NetworkErrorE
libdigikamcore.so.7.3.0:_ZN2O215refreshTokenUrlEv
libdigikamcore.so.7.3.0:_ZN2O215serverHasClosedEb
libdigikamcore.so.7.3.0:_ZN2O215setRefreshTokenERK7QString
libdigikamcore.so.7.3.0:_ZN2O215tokenUrlChangedEv
libdigikamcore.so.7.3.0:_ZN2O215usernameChangedEv
libdigikamcore.so.7.3.0:_ZN2O216buildRequestBodyERK4QMapI7QStringS1_E
libdigikamcore.so.7.3.0:_ZN2O216grantFlowChangedEv
libdigikamcore.so.7.3.0:_ZN2O216staticMetaObjectE
libdigikamcore.so.7.3.0:_ZN2O217onRefreshFinishedEv
libdigikamcore.so.7.3.0:_ZN2O217onTokenReplyErrorEN13QNetworkReply12NetworkErrorE
libdigikamcore.so.7.3.0:_ZN2O217requestUrlChangedEv
libdigikamcore.so.7.3.0:_ZN2O218extraRequestParamsEv
libdigikamcore.so.7.3.0:_ZN2O218setIgnoreSslErrorsEb
libdigikamcore.so.7.3.0:_ZN2O218setLocalhostPolicyERK7QString
libdigikamcore.so.7.3.0:_ZN2O218setRefreshTokenUrlERK7QString
libdigikamcore.so.7.3.0:_ZN2O220onTokenReplyFinishedEv
libdigikamcore.so.7.3.0:_ZN2O221setExtraRequestParamsERK4QMapI7QString8QVariantE
libdigikamcore.so.7.3.0:_ZN2O222onVerificationReceivedE4QMapI7QStringS1_E
libdigikamcore.so.7.3.0:_ZN2O222refreshTokenUrlChangedEv
libdigikamcore.so.7.3.0:_ZN2O225extraRequestParamsChangedEv
libdigikamcore.so.7.3.0:_ZN2O24codeEv
libdigikamcore.so.7.3.0:_ZN2O24linkEv
libdigikamcore.so.7.3.0:_ZN2O25scopeEv
libdigikamcore.so.7.3.0:_ZN2O26apiKeyEv
libdigikamcore.so.7.3.0:_ZN2O26unlinkEv
libdigikamcore.so.7.3.0:_ZN2O27expiresEv
libdigikamcore.so.7.3.0:_ZN2O27refreshEv
libdigikamcore.so.7.3.0:_ZN2O27setCodeERK7QString
libdigikamcore.so.7.3.0:_ZN2O28passwordEv
libdigikamcore.so.7.3.0:_ZN2O28setScopeERK7QString
libdigikamcore.so.7.3.0:_ZN2O28tokenUrlEv
libdigikamcore.so.7.3.0:_ZN2O28usernameEv
libdigikamcore.so.7.3.0:_ZN2O29grantFlowEv
libdigikamcore.so.7.3.0:_ZN2O29setApiKeyERK7QString
libdigikamcore.so.7.3.0:_ZN2O2C1EP7QObjectP21QNetworkAccessManagerP15O0AbstractStore
libdigikamcore.so.7.3.0:_ZN2O2C2EP7QObjectP21QNetworkAccessManagerP15O0AbstractStore
libdigikamcore.so.7.3.0:_ZN7Digikam10BlurFilter11filterImageEv
libdigikamcore.so.7.3.0:_ZN7Digikam10BlurFilter11qt_metacallEN11QMetaObject4CallEiPPv
libdigikamcore.so.7.3.0:_ZN7Digikam10BlurFilter11qt_metacastEPKc
libdigikamcore.so.7.3.0:_ZN7Digikam10BlurFilter12filterActionEv
libdigikamcore.so.7.3.0:_ZN7Digikam10BlurFilter14readParametersERKNS_12FilterActionE
libdigikamcore.so.7.3.0:_ZN7Digikam10BlurFilter15DisplayableNameEv
libdigikamcore.so.7.3.0:_ZN7Digikam10BlurFilter16staticMetaObjectE
libdigikamcore.so.7.3.0:_ZN7Digikam10BlurFilter17blurMultithreadedEjj
libdigikamcore.so.7.3.0:_ZN7Digikam10BlurFilterC1EP7QObject
libdigikamcore.so.7.3.0:_ZN7Digikam10BlurFilterC1EPNS_18DImgThreadedFilterERKNS_4DImgES5_iii
libdigikamcore.so.7.3.0:_ZN7Digikam10BlurFilterC1EPNS_4DImgEP7QObjecti
libdigikamcore.so.7.3.0:_ZN7Digikam10BlurFilterC2EP7QObject
libdigikamcore.so.7.3.0:_ZN7Digikam10BlurFilterC2EPNS_18DImgThreadedFilterERKNS_4DImgES5_iii
libdigikamcore.so.7.3.0:_ZN7Digikam10BlurFilterC2EPNS_4DImgEP7QObjecti
libdigikamcore.so.7.3.0:_ZN7Digikam10BlurFilterD0Ev
libdigikamcore.so.7.3.0:_ZN7Digikam10BlurFilterD1Ev
libdigikamcore.so.7.3.0:_ZN7Digikam10BlurFilterD2Ev
libdigikamcore.so.7.3.0:_ZN7Digikam10CBSettings11qt_metacallEN11QMetaObject4CallEiPPv
libdigikamcore.so.7.3.0:_ZN7Digikam10CBSettings11qt_metacastEPKc
libdigikamcore.so.7.3.0:_ZN7Digikam10CBSettings11setSettingsERKNS_11CBContainerE
libdigikamcore.so.7.3.0:_ZN7Digikam10CBSettings12readSettingsER12KConfigGroup
libdigikamcore.so.7.3.0:_ZN7Digikam10CBSettings13writeSettingsER12KConfigGroup
libdigikamcore.so.7.3.0:_ZN7Digikam10CBSettings14resetToDefaultEv
libdigikamcore.so.7.3.0:_ZN7Digikam10CBSettings16staticMetaObjectE
libdigikamcore.so.7.3.0:_ZN7Digikam10CBSettings21signalSettingsChangedEv
libdigikamcore.so.7.3.0:_ZN7Digikam10CBSettingsC1EP7QWidget
libdigikamcore.so.7.3.0:_ZN7Digikam10CBSettingsC2EP7QWidget
libdigikamcore.so.7.3.0:_ZN7Digikam10CBSettingsD0Ev
libdigikamcore.so.7.3.0:_ZN7Digikam10CBSettingsD1Ev
libdigikamcore.so.7.3.0:_ZN7Digikam10CBSettingsD2Ev
libdigikamcore.so.7.3.0:_ZN7Digikam10CtrlButton11qt_metacallEN11QMetaObject4CallEiPPv
libdigikamcore.so.7.3.0:_ZN7Digikam10CtrlButton11qt_metacastEPKc
libdigikamcore.so.7.3.0:_ZN7Digikam10CtrlButton16staticMetaObjectE
libdigikamcore.so.7.3.0:_ZN7Digikam10CtrlButtonC1ERK5QIconP7QWidget
libdigikamcore.so.7.3.0:_ZN7Digikam10CtrlButtonC2ERK5QIconP7QWidget
libdigikamcore.so.7.3.0:_ZN7Digikam10CtrlButtonD0Ev
libdigikamcore.so.7.3.0:_ZN7Digikam10CtrlButtonD1Ev
libdigikamcore.so.7.3.0:_ZN7Digikam10CtrlButtonD2Ev
libdigikamcore.so.7.3.0:_ZN7Digikam10DAboutData11qt_metacallEN11QMetaObject4CallEiPPv
libdigikamcore.so.7.3.0:_ZN7Digikam10DAboutData11qt_metacastEPKc
libdigikamcore.so.7.3.0:_ZN7Digikam10DAboutData13digiKamFamilyEv
libdigikamcore.so.7.3.0:_ZN7Digikam10DAboutData13digiKamSloganEv
libdigikamcore.so.7.3.0:_ZN7Digikam10DAboutData13webProjectUrlEv
libdigikamcore.so.7.3.0:_ZN7Digikam10DAboutData16staticMetaObjectE
libdigikamcore.so.7.3.0:_ZN7Digikam10DAboutData19authorsRegistrationER10KAboutData
libdigikamcore.so.7.3.0:_ZN7Digikam10DAboutData21digiKamSloganFormatedEv
libdigikamcore.so.7.3.0:_ZN7Digikam10DAboutData9copyrightEv
libdigikamcore.so.7.3.0:_ZN7Digikam10DAboutDataC1EPNS_13DXmlGuiWindowE
libdigikamcore.so.7.3.0:_ZN7Digikam10DAboutDataC2EPNS_13DXmlGuiWindowE
libdigikamcore.so.7.3.0:_ZN7Digikam10DAboutDataD0Ev
libdigikamcore.so.7.3.0:_ZN7Digikam10DAboutDataD1Ev
libdigikamcore.so.7.3.0:_ZN7Digikam10DAboutDataD2Ev
libdigikamcore.so.7.3.0:_ZN7Digikam10DAlbumInfoC1ERK4QMapI7QString8QVariantE
libdigikamcore.so.7.3.0:_ZN7Digikam10DAlbumInfoC2ERK4QMapI7QString8QVariantE
libdigikamcore.so.7.3.0:_ZN7Digikam10DAlbumInfoD1Ev
libdigikamcore.so.7.3.0:_ZN7Digikam10DAlbumInfoD2Ev
libdigikamcore.so.7.3.0:_ZN7Digikam10DConfigDlg10addSubPageEPNS_17DConfigDlgWdgItemEP7QWidgetRK7QString
libdigikamcore.so.7.3.0:_ZN7Digikam10DConfigDlg10addSubPageEPNS_17DConfigDlgWdgItemES2_
libdigikamcore.so.7.3.0:_ZN7Digikam10DConfigDlg10insertPageEPNS_17DConfigDlgWdgItemEP7QWidgetRK7QString
libdigikamcore.so.7.3.0:_ZN7Digikam10DConfigDlg10insertPageEPNS_17DConfigDlgWdgItemES2_
libdigikamcore.so.7.3.0:_ZN7Digikam10DConfigDlg10pageWidgetEv
libdigikamcore.so.7.3.0:_ZN7Digikam10DConfigDlg10removePageEPNS_17DConfigDlgWdgItemE
libdigikamcore.so.7.3.0:_ZN7Digikam10DConfigDlg11pageRemovedEPNS_17DConfigDlgWdgItemE
libdigikamcore.so.7.3.0:_ZN7Digikam10DConfigDlg11qt_metacallEN11QMetaObject4CallEiPPv
libdigikamcore.so.7.3.0:_ZN7Digikam10DConfigDlg11qt_metacastEPKc
libdigikamcore.so.7.3.0:_ZN7Digikam10DConfigDlg11setFaceTypeENS0_8FaceTypeE
libdigikamcore.so.7.3.0:_ZN7Digikam10DConfigDlg12setButtonBoxEP16QDialogButtonBox
libdigikamcore.so.7.3.0:_ZN7Digikam10DConfigDlg13setPageWidgetEPNS_13DConfigDlgWdgE
libdigikamcore.so.7.3.0:_ZN7Digikam10DConfigDlg14setCurrentPageEPNS_17DConfigDlgWdgItemE
libdigikamcore.so.7.3.0:_ZN7Digikam10DConfigDlg15addActionButtonEP15QAbstractButton
libdigikamcore.so.7.3.0:_ZN7Digikam10DConfigDlg16staticMetaObjectE
libdigikamcore.so.7.3.0:_ZN7Digikam10DConfigDlg18currentPageChangedEPNS_17DConfigDlgWdgItemES2_
libdigikamcore.so.7.3.0:_ZN7Digikam10DConfigDlg18setStandardButtonsE6QFlagsIN16QDialogButtonBox14StandardButtonEE
libdigikamcore.so.7.3.0:_ZN7Digikam10DConfigDlg7addPageEP7QWidgetRK7QString
libdigikamcore.so.7.3.0:_ZN7Digikam10DConfigDlg7addPageEPNS_17DConfigDlgWdgItemE
libdigikamcore.so.7.3.0:_ZN7Digikam10DConfigDlg9buttonBoxEv
libdigikamcore.so.7.3.0:_ZN7Digikam10DConfigDlgC1EP7QWidget6QFlagsIN2Qt10WindowTypeEE
libdigikamcore.so.7.3.0:_ZN7Digikam10DConfigDlgC1EPNS_13DConfigDlgWdgEP7QWidget6QFlagsIN2Qt10WindowTypeEE
libdigikamcore.so.7.3.0:_ZN7Digikam10DConfigDlgC1ERNS_17DConfigDlgPrivateEPNS_13DConfigDlgWdgEP7QWidget6QFlagsIN2Qt10WindowTypeEE
libdigikamcore.so.7.3.0:_ZN7Digikam10DConfigDlgC2EP7QWidget6QFlagsIN2Qt10WindowTypeEE
libdigikamcore.so.7.3.0:_ZN7Digikam10DConfigDlgC2EPNS_13DConfigDlgWdgEP7QWidget6QFlagsIN2Qt10WindowTypeEE
libdigikamcore.so.7.3.0:_ZN7Digikam10DConfigDlgC2ERNS_17DConfigDlgPrivateEPNS_13DConfigDlgWdgEP7QWidget6QFlagsIN2Qt10WindowTypeEE
libdigikamcore.so.7.3.0:_ZN7Digikam10DConfigDlgD0Ev
libdigikamcore.so.7.3.0:_ZN7Digikam10DConfigDlgD1Ev
libdigikamcore.so.7.3.0:_ZN7Digikam10DConfigDlgD2Ev
libdigikamcore.so.7.3.0:_ZN7Digikam10DImgLoader10imageWidthEv
libdigikamcore.so.7.3.0:_ZN7Digikam10DImgLoader11granularityEPNS_18DImgLoaderObserverEif
libdigikamcore.so.7.3.0:_ZN7Digikam10DImgLoader11imageHeightEv
libdigikamcore.so.7.3.0:_ZN7Digikam10DImgLoader12readMetadataERK7QString
libdigikamcore.so.7.3.0:_ZN7Digikam10DImgLoader12saveMetadataERK7QString
libdigikamcore.so.7.3.0:_ZN7Digikam10DImgLoader12setLoadFlagsE6QFlagsINS0_8LoadFlagEE
libdigikamcore.so.7.3.0:_ZN7Digikam10DImgLoader13loadingFailedEv
libdigikamcore.so.7.3.0:_ZN7Digikam10DImgLoader15checkAllocationEx
libdigikamcore.so.7.3.0:_ZN7Digikam10DImgLoader17imageSetAttributeERK7QStringRK8QVariant
libdigikamcore.so.7.3.0:_ZN7Digikam10DImgLoader18imageSetIccProfileERKNS_10IccProfileE
libdigikamcore.so.7.3.0:_ZN7Digikam10DImgLoader19new_failureTolerantEm
libdigikamcore.so.7.3.0:_ZN7Digikam10DImgLoader19new_failureTolerantEyyj
libdigikamcore.so.7.3.0:_ZN7Digikam10DImgLoader20imageSetEmbbededTextERK7QStringS3_
libdigikamcore.so.7.3.0:_ZN7Digikam10DImgLoader25new_short_failureTolerantEm
libdigikamcore.so.7.3.0:_ZN7Digikam10DImgLoader25new_short_failureTolerantEyyj
libdigikamcore.so.7.3.0:_ZN7Digikam10DImgLoader26purgeExifWorkingColorSpaceEv
libdigikamcore.so.7.3.0:_ZN7Digikam10DImgLoader27storeColorProfileInMetadataEv
libdigikamcore.so.7.3.0:_ZN7Digikam10DImgLoader9imageDataEv
libdigikamcore.so.7.3.0:_ZN7Digikam10DImgLoaderC1EPNS_4DImgE
libdigikamcore.so.7.3.0:_ZN7Digikam10DImgLoaderC2EPNS_4DImgE
libdigikamcore.so.7.3.0:_ZN7Digikam10DImgLoaderD0Ev
libdigikamcore.so.7.3.0:_ZN7Digikam10DImgLoaderD1Ev
libdigikamcore.so.7.3.0:_ZN7Digikam10DImgLoaderD2Ev
libdigikamcore.so.7.3.0:_ZN7Digikam10DItemsList10processingERK4QUrl
libdigikamcore.so.7.3.0:_ZN7Digikam10DItemsList11qt_metacallEN11QMetaObject4CallEiPPv
libdigikamcore.so.7.3.0:_ZN7Digikam10DItemsList11qt_metacastEPKc
libdigikamcore.so.7.3.0:_ZN7Digikam10DItemsList11setAllowRAWEb
libdigikamcore.so.7.3.0:_ZN7Digikam10DItemsList11setIconSizeEi
libdigikamcore.so.7.3.0:_ZN7Digikam10DItemsList12slotAddItemsEv
libdigikamcore.so.7.3.0:_ZN7Digikam10DItemsList13cancelProcessEv
libdigikamcore.so.7.3.0:_ZN7Digikam10DItemsList13slotAddImagesERK5QListI4QUrlE
libdigikamcore.so.7.3.0:_ZN7Digikam10DItemsList13slotLoadItemsEv
libdigikamcore.so.7.3.0:_ZN7Digikam10DItemsList13slotSaveItemsEv
libdigikamcore.so.7.3.0:_ZN7Digikam10DItemsList13slotThumbnailERKNS_18LoadingDescriptionERK7QPixmap
libdigikamcore.so.7.3.0:_ZN7Digikam10DItemsList14checkSelectionEv
libdigikamcore.so.7.3.0:_ZN7Digikam10DItemsList14signalAddItemsERK5QListI4QUrlE
libdigikamcore.so.7.3.0:_ZN7Digikam10DItemsList14slotClearItemsEv
libdigikamcore.so.7.3.0:_ZN7Digikam10DItemsList15removeItemByUrlERK4QUrl
libdigikamcore.so.7.3.0:_ZN7Digikam10DItemsList15slotMoveUpItemsEv
libdigikamcore.so.7.3.0:_ZN7Digikam10DItemsList15slotRemoveItemsEv
libdigikamcore.so.7.3.0:_ZN7Digikam10DItemsList15updateThumbnailERK4QUrl
libdigikamcore.so.7.3.0:_ZN7Digikam10DItemsList16signalMoveUpItemEv
libdigikamcore.so.7.3.0:_ZN7Digikam10DItemsList16staticMetaObjectE
libdigikamcore.so.7.3.0:_ZN7Digikam10DItemsList17enableDragAndDropEb
libdigikamcore.so.7.3.0:_ZN7Digikam10DItemsList17setAllowDuplicateEb
libdigikamcore.so.7.3.0:_ZN7Digikam10DItemsList17setControlButtonsE6QFlagsINS0_13ControlButtonEE
libdigikamcore.so.7.3.0:_ZN7Digikam10DItemsList17signalItemClickedEP15QTreeWidgetItem
libdigikamcore.so.7.3.0:_ZN7Digikam10DItemsList17signalXMLSaveItemER16QXmlStreamWriteri
libdigikamcore.so.7.3.0:_ZN7Digikam10DItemsList17slotMoveDownItemsEv
libdigikamcore.so.7.3.0:_ZN7Digikam10DItemsList18signalMoveDownItemEv
libdigikamcore.so.7.3.0:_ZN7Digikam10DItemsList18signalRemovedItemsERK5QListIiE
libdigikamcore.so.7.3.0:_ZN7Digikam10DItemsList20clearProcessedStatusEv
libdigikamcore.so.7.3.0:_ZN7Digikam10DItemsList20enableControlButtonsEb
libdigikamcore.so.7.3.0:_ZN7Digikam10DItemsList20signalFoundRAWImagesEb
libdigikamcore.so.7.3.0:_ZN7Digikam10DItemsList20slotImageListChangedEv
libdigikamcore.so.7.3.0:_ZN7Digikam10DItemsList21slotProgressTimerDoneEv
libdigikamcore.so.7.3.0:_ZN7Digikam10DItemsList22signalImageListChangedEv
libdigikamcore.so.7.3.0:_ZN7Digikam10DItemsList23signalXMLCustomElementsER16QXmlStreamReader
libdigikamcore.so.7.3.0:_ZN7Digikam10DItemsList23signalXMLCustomElementsER16QXmlStreamWriter
libdigikamcore.so.7.3.0:_ZN7Digikam10DItemsList25signalXMLLoadImageElementER16QXmlStreamReader
libdigikamcore.so.7.3.0:_ZN7Digikam10DItemsList26loadImagesFromCurrentAlbumEv
libdigikamcore.so.7.3.0:_ZN7Digikam10DItemsList26setControlButtonsPlacementENS0_22ControlButtonPlacementE
libdigikamcore.so.7.3.0:_ZN7Digikam10DItemsList26signalContextMenuRequestedEv
libdigikamcore.so.7.3.0:_ZN7Digikam10DItemsList30loadImagesFromCurrentSelectionEv
libdigikamcore.so.7.3.0:_ZN7Digikam10DItemsList8setIfaceEPNS_14DInfoInterfaceE
libdigikamcore.so.7.3.0:_ZN7Digikam10DItemsList9processedERK4QUrlb
libdigikamcore.so.7.3.0:_ZN7Digikam10DItemsListC1EP7QWidgeti
libdigikamcore.so.7.3.0:_ZN7Digikam10DItemsListC2EP7QWidgeti
libdigikamcore.so.7.3.0:_ZN7Digikam10DItemsListD0Ev
libdigikamcore.so.7.3.0:_ZN7Digikam10DItemsListD1Ev
libdigikamcore.so.7.3.0:_ZN7Digikam10DItemsListD2Ev
libdigikamcore.so.7.3.0:_ZN7Digikam10DWizardDlg11qt_metacallEN11QMetaObject4CallEiPPv
libdigikamcore.so.7.3.0:_ZN7Digikam10DWizardDlg11qt_metacastEPKc
libdigikamcore.so.7.3.0:_ZN7Digikam10DWizardDlg14saveDialogSizeEv
libdigikamcore.so.7.3.0:_ZN7Digikam10DWizardDlg15slotAboutPluginEv
libdigikamcore.so.7.3.0:_ZN7Digikam10DWizardDlg16staticMetaObjectE
libdigikamcore.so.7.3.0:_ZN7Digikam10DWizardDlg17restoreDialogSizeEv
libdigikamcore.so.7.3.0:_ZN7Digikam10DWizardDlg9setPluginEPNS_7DPluginE
libdigikamcore.so.7.3.0:_ZN7Digikam10DWizardDlgC1EP7QWidgetRK7QString
libdigikamcore.so.7.3.0:_ZN7Digikam10DWizardDlgC2EP7QWidgetRK7QString
libdigikamcore.so.7.3.0:_ZN7Digikam10DWizardDlgD0Ev
libdigikamcore.so.7.3.0:_ZN7Digikam10DWizardDlgD1Ev
libdigikamcore.so.7.3.0:_ZN7Digikam10DWizardDlgD2Ev
libdigikamcore.so.7.3.0:_ZN7Digikam10EditorCore10resetImageEv
libdigikamcore.so.7.3.0:_ZN7Digikam10EditorCore10setUndoImgERKNS_21UndoMetadataContainerERKNS_4DImgE
libdigikamcore.so.7.3.0:_ZN7Digikam10EditorCore11abortSavingEv
libdigikamcore.so.7.3.0:_ZN7Digikam10EditorCore11qt_metacallEN11QMetaObject4CallEiPPv
libdigikamcore.so.7.3.0:_ZN7Digikam10EditorCore11qt_metacastEPKc
libdigikamcore.so.7.3.0:_ZN7Digikam10EditorCore11setModifiedEv
libdigikamcore.so.7.3.0:_ZN7Digikam10EditorCore11slotLoadRawERKNS_18LoadingDescriptionE
libdigikamcore.so.7.3.0:_ZN7Digikam10EditorCore12convertDepthEi
libdigikamcore.so.7.3.0:_ZN7Digikam10EditorCore12setLastSavedERK7QString
libdigikamcore.so.7.3.0:_ZN7Digikam10EditorCore13putIccProfileERKNS_10IccProfileE
libdigikamcore.so.7.3.0:_ZN7Digikam10EditorCore13setExifOrientEb
libdigikamcore.so.7.3.0:_ZN7Digikam10EditorCore14applyTransformERKNS_12IccTransformE
libdigikamcore.so.7.3.0:_ZN7Digikam10EditorCore14setICCSettingsERKNS_20ICCSettingsContainerE
libdigikamcore.so.7.3.0:_ZN7Digikam10EditorCore14signalModifiedEv
libdigikamcore.so.7.3.0:_ZN7Digikam10EditorCore14slotImageSavedERK7QStringb
libdigikamcore.so.7.3.0:_ZN7Digikam10EditorCore15defaultInstanceEv
libdigikamcore.so.7.3.0:_ZN7Digikam10EditorCore15putImgSelectionERK7QStringRKNS_12FilterActionERKNS_4DImgE
libdigikamcore.so.7.3.0:_ZN7Digikam10EditorCore15setSelectedAreaERK5QRect
libdigikamcore.so.7.3.0:_ZN7Digikam10EditorCore15slotImageLoadedERKNS_18LoadingDescriptionERKNS_4DImgE
libdigikamcore.so.7.3.0:_ZN7Digikam10EditorCore16clearUndoManagerEv
libdigikamcore.so.7.3.0:_ZN7Digikam10EditorCore16imageUndoChangedERKNS_21UndoMetadataContainerE
libdigikamcore.so.7.3.0:_ZN7Digikam10EditorCore16rollbackToOriginEv
libdigikamcore.so.7.3.0:_ZN7Digikam10EditorCore16signalImageSavedERK7QStringb
libdigikamcore.so.7.3.0:_ZN7Digikam10EditorCore16staticMetaObjectE
libdigikamcore.so.7.3.0:_ZN7Digikam10EditorCore17m_defaultInstanceE
libdigikamcore.so.7.3.0:_ZN7Digikam10EditorCore17setFileOriginDataERK8QVariant
libdigikamcore.so.7.3.0:_ZN7Digikam10EditorCore17signalImageLoadedERK7QStringb
libdigikamcore.so.7.3.0:_ZN7Digikam10EditorCore17switchToLastSavedERKNS_13DImageHistoryE
libdigikamcore.so.7.3.0:_ZN7Digikam10EditorCore18provideCurrentUuidERK7QString
libdigikamcore.so.7.3.0:_ZN7Digikam10EditorCore18setDefaultInstanceEPS0_
libdigikamcore.so.7.3.0:_ZN7Digikam10EditorCore18setHistoryIsBranchEb
libdigikamcore.so.7.3.0:_ZN7Digikam10EditorCore18slotSavingProgressERK7QStringf
libdigikamcore.so.7.3.0:_ZN7Digikam10EditorCore19setDisplayingWidgetEP7QWidget
libdigikamcore.so.7.3.0:_ZN7Digikam10EditorCore19setExposureSettingsEPNS_25ExposureSettingsContainerE
libdigikamcore.so.7.3.0:_ZN7Digikam10EditorCore19signalSavingStartedERK7QString
libdigikamcore.so.7.3.0:_ZN7Digikam10EditorCore19slotLoadRawFromToolERKNS_18LoadingDescriptionERKNS_4DImgE
libdigikamcore.so.7.3.0:_ZN7Digikam10EditorCore19slotLoadingProgressERKNS_18LoadingDescriptionEf
libdigikamcore.so.7.3.0:_ZN7Digikam10EditorCore20readMetadataFromFileERK7QString
libdigikamcore.so.7.3.0:_ZN7Digikam10EditorCore20setUndoManagerOriginEv
libdigikamcore.so.7.3.0:_ZN7Digikam10EditorCore20signalLoadingStartedERK7QString
libdigikamcore.so.7.3.0:_ZN7Digikam10EditorCore20signalSavingProgressERK7QStringf
libdigikamcore.so.7.3.0:_ZN7Digikam10EditorCore21signalLoadingProgressERK7QStringf
libdigikamcore.so.7.3.0:_ZN7Digikam10EditorCore22setSoftProofingEnabledEb
libdigikamcore.so.7.3.0:_ZN7Digikam10EditorCore22signalUndoStateChangedEv
libdigikamcore.so.7.3.0:_ZN7Digikam10EditorCore23signalFileOriginChangedERK7QString
libdigikamcore.so.7.3.0:_ZN7Digikam10EditorCore25setResolvedInitialHistoryERKNS_13DImageHistoryE
libdigikamcore.so.7.3.0:_ZN7Digikam10EditorCore4cropERK5QRect
libdigikamcore.so.7.3.0:_ZN7Digikam10EditorCore4loadERK7QStringPNS_14IOFileSettingsE
libdigikamcore.so.7.3.0:_ZN7Digikam10EditorCore4redoEv
libdigikamcore.so.7.3.0:_ZN7Digikam10EditorCore4undoEv
libdigikamcore.so.7.3.0:_ZN7Digikam10EditorCore4zoomEd
libdigikamcore.so.7.3.0:_ZN7Digikam10EditorCore6putImgERK7QStringRKNS_12FilterActionERKNS_4DImgE
libdigikamcore.so.7.3.0:_ZN7Digikam10EditorCore6saveAsERK7QStringPNS_14IOFileSettingsEbS3_RKNS_20VersionFileOperationE
libdigikamcore.so.7.3.0:_ZN7Digikam10EditorCore6saveAsERK7QStringPNS_14IOFileSettingsEbS3_S3_
libdigikamcore.so.7.3.0:_ZN7Digikam10EditorCore7restoreEv
libdigikamcore.so.7.3.0:_ZN7Digikam10EditorCore8flipVertEv
libdigikamcore.so.7.3.0:_ZN7Digikam10EditorCore8rotate90Ev
libdigikamcore.so.7.3.0:_ZN7Digikam10EditorCore9flipHorizEv
libdigikamcore.so.7.3.0:_ZN7Digikam10EditorCore9rotate180Ev
libdigikamcore.so.7.3.0:_ZN7Digikam10EditorCore9rotate270Ev
libdigikamcore.so.7.3.0:_ZN7Digikam10EditorCoreC1Ev
libdigikamcore.so.7.3.0:_ZN7Digikam10EditorCoreC2Ev
libdigikamcore.so.7.3.0:_ZN7Digikam10EditorCoreD0Ev
libdigikamcore.so.7.3.0:_ZN7Digikam10EditorCoreD1Ev
libdigikamcore.so.7.3.0:_ZN7Digikam10EditorCoreD2Ev
libdigikamcore.so.7.3.0:_ZN7Digikam10EditorTool10slotCancelEv
libdigikamcore.so.7.3.0:_ZN7Digikam10EditorTool11qt_metacallEN11QMetaObject4CallEiPPv
libdigikamcore.so.7.3.0:_ZN7Digikam10EditorTool11qt_metacastEPKc
libdigikamcore.so.7.3.0:_ZN7Digikam10EditorTool11setToolHelpERK7QString
libdigikamcore.so.7.3.0:_ZN7Digikam10EditorTool11setToolIconERK5QIcon
libdigikamcore.so.7.3.0:_ZN7Digikam10EditorTool11setToolNameERK7QString
libdigikamcore.so.7.3.0:_ZN7Digikam10EditorTool11setToolViewEP7QWidget
libdigikamcore.so.7.3.0:_ZN7Digikam10EditorTool12readSettingsEv
libdigikamcore.so.7.3.0:_ZN7Digikam10EditorTool13cancelClickedEv
libdigikamcore.so.7.3.0:_ZN7Digikam10EditorTool13slotApplyToolEv
libdigikamcore.so.7.3.0:_ZN7Digikam10EditorTool13slotCloseToolEv
libdigikamcore.so.7.3.0:_ZN7Digikam10EditorTool13writeSettingsEv
libdigikamcore.so.7.3.0:_ZN7Digikam10EditorTool14setInitPreviewEb
libdigikamcore.so.7.3.0:_ZN7Digikam10EditorTool14setToolVersionEi
libdigikamcore.so.7.3.0:_ZN7Digikam10EditorTool15setToolCategoryENS_12FilterAction8CategoryE
libdigikamcore.so.7.3.0:_ZN7Digikam10EditorTool15setToolSettingsEPNS_18EditorToolSettingsE
libdigikamcore.so.7.3.0:_ZN7Digikam10EditorTool16staticMetaObjectE
libdigikamcore.so.7.3.0:_ZN7Digikam10EditorTool17slotResetSettingsEv
libdigikamcore.so.7.3.0:_ZN7Digikam10EditorTool18ICCSettingsChangedEv
libdigikamcore.so.7.3.0:_ZN7Digikam10EditorTool18setBackgroundColorERK6QColor
libdigikamcore.so.7.3.0:_ZN7Digikam10EditorTool18setPreviewModeMaskEi
libdigikamcore.so.7.3.0:_ZN7Digikam10EditorTool18setToolInfoMessageERK7QString
libdigikamcore.so.7.3.0:_ZN7Digikam10EditorTool18slotUpdateSpotInfoERKNS_6DColorERK6QPoint
libdigikamcore.so.7.3.0:_ZN7Digikam10EditorTool22slotPreviewModeChangedEv
libdigikamcore.so.7.3.0:_ZN7Digikam10EditorTool23exposureSettingsChangedEv
libdigikamcore.so.7.3.0:_ZN7Digikam10EditorTool4initEv
libdigikamcore.so.7.3.0:_ZN7Digikam10EditorTool6slotOkEv
libdigikamcore.so.7.3.0:_ZN7Digikam10EditorTool7setBusyEb
libdigikamcore.so.7.3.0:_ZN7Digikam10EditorTool8slotInitEv
libdigikamcore.so.7.3.0:_ZN7Digikam10EditorTool9okClickedEv
libdigikamcore.so.7.3.0:_ZN7Digikam10EditorTool9setPluginEPNS_13DPluginEditorE
libdigikamcore.so.7.3.0:_ZN7Digikam10EditorTool9slotTimerEv
libdigikamcore.so.7.3.0:_ZN7Digikam10EditorToolC1EP7QObject
libdigikamcore.so.7.3.0:_ZN7Digikam10EditorToolC2EP7QObject
libdigikamcore.so.7.3.0:_ZN7Digikam10EditorToolD0Ev
libdigikamcore.so.7.3.0:_ZN7Digikam10EditorToolD1Ev
libdigikamcore.so.7.3.0:_ZN7Digikam10EditorToolD2Ev
libdigikamcore.so.7.3.0:_ZN7Digikam10EffectMngr11effectNamesEv
libdigikamcore.so.7.3.0:_ZN7Digikam10EffectMngr12currentFrameERi
libdigikamcore.so.7.3.0:_ZN7Digikam10EffectMngr13setOutputSizeERK5QSize
libdigikamcore.so.7.3.0:_ZN7Digikam10EffectMngr8setImageERK6QImage
libdigikamcore.so.7.3.0:_ZN7Digikam10EffectMngr9setEffectENS0_10EffectTypeE
libdigikamcore.so.7.3.0:_ZN7Digikam10EffectMngr9setFramesEi
libdigikamcore.so.7.3.0:_ZN7Digikam10EffectMngrC1Ev
libdigikamcore.so.7.3.0:_ZN7Digikam10EffectMngrC2Ev
libdigikamcore.so.7.3.0:_ZN7Digikam10EffectMngrD1Ev
libdigikamcore.so.7.3.0:_ZN7Digikam10EffectMngrD2Ev
libdigikamcore.so.7.3.0:_ZN7Digikam10ExifWidget11getTagTitleERK7QString
libdigikamcore.so.7.3.0:_ZN7Digikam10ExifWidget11loadFromURLERK4QUrl
libdigikamcore.so.7.3.0:_ZN7Digikam10ExifWidget11qt_metacallEN11QMetaObject4CallEiPPv
libdigikamcore.so.7.3.0:_ZN7Digikam10ExifWidget11qt_metacastEPKc
libdigikamcore.so.7.3.0:_ZN7Digikam10ExifWidget14decodeMetadataEv
libdigikamcore.so.7.3.0:_ZN7Digikam10ExifWidget16staticMetaObjectE
libdigikamcore.so.7.3.0:_ZN7Digikam10ExifWidget17getTagDescriptionERK7QString
libdigikamcore.so.7.3.0:_ZN7Digikam10ExifWidget22slotSaveMetadataToFileEv
libdigikamcore.so.7.3.0:_ZN7Digikam10ExifWidget9buildViewEv
libdigikamcore.so.7.3.0:_ZN7Digikam10ExifWidgetC1EP7QWidgetRK7QString
libdigikamcore.so.7.3.0:_ZN7Digikam10ExifWidgetC2EP7QWidgetRK7QString
libdigikamcore.so.7.3.0:_ZN7Digikam10ExifWidgetD0Ev
libdigikamcore.so.7.3.0:_ZN7Digikam10ExifWidgetD1Ev
libdigikamcore.so.7.3.0:_ZN7Digikam10ExifWidgetD2Ev
libdigikamcore.so.7.3.0:_ZN7Digikam10FilmFilter11filterImageEv
libdigikamcore.so.7.3.0:_ZN7Digikam10FilmFilter11qt_metacallEN11QMetaObject4CallEiPPv
libdigikamcore.so.7.3.0:_ZN7Digikam10FilmFilter11qt_metacastEPKc
libdigikamcore.so.7.3.0:_ZN7Digikam10FilmFilter12filterActionEv
libdigikamcore.so.7.3.0:_ZN7Digikam10FilmFilter14readParametersERKNS_12FilterActionE
libdigikamcore.so.7.3.0:_ZN7Digikam10FilmFilter15DisplayableNameEv
libdigikamcore.so.7.3.0:_ZN7Digikam10FilmFilter16staticMetaObjectE
libdigikamcore.so.7.3.0:_ZN7Digikam10FilmFilterC1EP7QObject
libdigikamcore.so.7.3.0:_ZN7Digikam10FilmFilterC1EPNS_4DImgEP7QObjectRKNS_13FilmContainerE
libdigikamcore.so.7.3.0:_ZN7Digikam10FilmFilterC2EP7QObject
libdigikamcore.so.7.3.0:_ZN7Digikam10FilmFilterC2EPNS_4DImgEP7QObjectRKNS_13FilmContainerE
libdigikamcore.so.7.3.0:_ZN7Digikam10FilmFilterD0Ev
libdigikamcore.so.7.3.0:_ZN7Digikam10FilmFilterD1Ev
libdigikamcore.so.7.3.0:_ZN7Digikam10FilmFilterD2Ev
libdigikamcore.so.7.3.0:_ZN7Digikam10FrameUtils15makeFramedImageERK7QStringRK5QSize
libdigikamcore.so.7.3.0:_ZN7Digikam10FrameUtils15makeScaledImageER6QImageRK5QSize
libdigikamcore.so.7.3.0:_ZN7Digikam10IccManager11setObserverEPNS_18DImgLoaderObserverE
libdigikamcore.so.7.3.0:_ZN7Digikam10IccManager12getTransformERNS_12IccTransformE6QFlagsINS_20ICCSettingsContainer12BehaviorEnumEERKNS_10IccProfileE
libdigikamcore.so.7.3.0:_ZN7Digikam10IccManager12imageProfileE6QFlagsINS_20ICCSettingsContainer12BehaviorEnumEERKNS_10IccProfileE
libdigikamcore.so.7.3.0:_ZN7Digikam10IccManager13setIccProfileERKNS_10IccProfileE
libdigikamcore.so.7.3.0:_ZN7Digikam10IccManager14displayProfileEP7QWidget
libdigikamcore.so.7.3.0:_ZN7Digikam10IccManager15transformToSRGBER6QImageRKNS_10IccProfileE
libdigikamcore.so.7.3.0:_ZN7Digikam10IccManager15transformToSRGBEv
libdigikamcore.so.7.3.0:_ZN7Digikam10IccManager16displayTransformEP7QWidget
libdigikamcore.so.7.3.0:_ZN7Digikam10IccManager16displayTransformERKNS_10IccProfileE
libdigikamcore.so.7.3.0:_ZN7Digikam10IccManager16transformDefaultEv
libdigikamcore.so.7.3.0:_ZN7Digikam10IccManager18transformForOutputERKNS_10IccProfileE
libdigikamcore.so.7.3.0:_ZN7Digikam10IccManager19transformForDisplayEP7QWidget
libdigikamcore.so.7.3.0:_ZN7Digikam10IccManager19transformForDisplayER6QImageRKNS_10IccProfileE
libdigikamcore.so.7.3.0:_ZN7Digikam10IccManager19transformForDisplayERKNS_10IccProfileE
libdigikamcore.so.7.3.0:_ZN7Digikam10IccManager19transformForDisplayEv
libdigikamcore.so.7.3.0:_ZN7Digikam10IccManager26needsPostLoadingManagementERKNS_4DImgE
libdigikamcore.so.7.3.0:_ZN7Digikam10IccManager28displaySoftProofingTransformERKNS_10IccProfileEP7QWidget
libdigikamcore.so.7.3.0:_ZN7Digikam10IccManager28displaySoftProofingTransformERKNS_10IccProfileES3_
libdigikamcore.so.7.3.0:_ZN7Digikam10IccManager6isSRGBERKNS_4DImgE
libdigikamcore.so.7.3.0:_ZN7Digikam10IccManager9transformE6QFlagsINS_20ICCSettingsContainer12BehaviorEnumEERKNS_10IccProfileE
libdigikamcore.so.7.3.0:_ZN7Digikam10IccManagerC1ERKNS_4DImgERKNS_20ICCSettingsContainerE
libdigikamcore.so.7.3.0:_ZN7Digikam10IccManagerC2ERKNS_4DImgERKNS_20ICCSettingsContainerE
libdigikamcore.so.7.3.0:_ZN7Digikam10IccManagerD1Ev
libdigikamcore.so.7.3.0:_ZN7Digikam10IccManagerD2Ev
libdigikamcore.so.7.3.0:_ZN7Digikam10IccProfile11descriptionEv
libdigikamcore.so.7.3.0:_ZN7Digikam10IccProfile11proPhotoRGBEv
libdigikamcore.so.7.3.0:_ZN7Digikam10IccProfile11writeToFileERK7QString
libdigikamcore.so.7.3.0:_ZN7Digikam10IccProfile12wideGamutRGBEv
libdigikamcore.so.7.3.0:_ZN7Digikam10IccProfile15defaultProfilesEv
libdigikamcore.so.7.3.0:_ZN7Digikam10IccProfile15isSameProfileAsERS0_
libdigikamcore.so.7.3.0:_ZN7Digikam10IccProfile18defaultSearchPathsEv
libdigikamcore.so.7.3.0:_ZN7Digikam10IccProfile24considerOriginalAdobeRGBERK7QString
libdigikamcore.so.7.3.0:_ZN7Digikam10IccProfile4dataEv
libdigikamcore.so.7.3.0:_ZN7Digikam10IccProfile4openEv
libdigikamcore.so.7.3.0:_ZN7Digikam10IccProfile4sRGBEv
libdigikamcore.so.7.3.0:_ZN7Digikam10IccProfile4typeEv
libdigikamcore.so.7.3.0:_ZN7Digikam10IccProfile5closeEv
libdigikamcore.so.7.3.0:_ZN7Digikam10IccProfile8adobeRGBEv
libdigikamcore.so.7.3.0:_ZN7Digikam10IccProfileC1EPKcRK7QString
libdigikamcore.so.7.3.0:_ZN7Digikam10IccProfileC1ERK10QByteArray
libdigikamcore.so.7.3.0:_ZN7Digikam10IccProfileC1ERK7QString
libdigikamcore.so.7.3.0:_ZN7Digikam10IccProfileC1ERKS0_
libdigikamcore.so.7.3.0:_ZN7Digikam10IccProfileC1Ev
libdigikamcore.so.7.3.0:_ZN7Digikam10IccProfileC2EPKcRK7QString
libdigikamcore.so.7.3.0:_ZN7Digikam10IccProfileC2ERK10QByteArray
libdigikamcore.so.7.3.0:_ZN7Digikam10IccProfileC2ERK7QString
libdigikamcore.so.7.3.0:_ZN7Digikam10IccProfileC2ERKS0_
libdigikamcore.so.7.3.0:_ZN7Digikam10IccProfileC2Ev
libdigikamcore.so.7.3.0:_ZN7Digikam10IccProfileD1Ev
libdigikamcore.so.7.3.0:_ZN7Digikam10IccProfileD2Ev
libdigikamcore.so.7.3.0:_ZN7Digikam10IccProfileaSERKS0_
libdigikamcore.so.7.3.0:_ZN7Digikam10ImageIface10setPreviewERKNS_4DImgE
libdigikamcore.so.7.3.0:_ZN7Digikam10ImageIface11setOriginalERK7QStringRKNS_12FilterActionERKNS_4DImgE
libdigikamcore.so.7.3.0:_ZN7Digikam10ImageIface12setSelectionERK7QStringRKNS_12FilterActionERKNS_4DImgE
libdigikamcore.so.7.3.0:_ZN7Digikam10ImageIface14setPreviewTypeENS0_11PreviewTypeE
libdigikamcore.so.7.3.0:_ZN7Digikam10ImageIface16previewReferenceEv
libdigikamcore.so.7.3.0:_ZN7Digikam10ImageIface19setOriginalMetadataERKNS_14MetaEngineDataE
libdigikamcore.so.7.3.0:_ZN7Digikam10ImageIface20setPreviewIccProfileERKNS_10IccProfileE
libdigikamcore.so.7.3.0:_ZN7Digikam10ImageIface21setOriginalIccProfileERKNS_10IccProfileE
libdigikamcore.so.7.3.0:_ZN7Digikam10ImageIface25convertOriginalColorDepthEi
libdigikamcore.so.7.3.0:_ZN7Digikam10ImageIface4cropERK5QRect
libdigikamcore.so.7.3.0:_ZN7Digikam10ImageIface5paintEP12QPaintDeviceRK5QRectP8QPainter
libdigikamcore.so.7.3.0:_ZN7Digikam10ImageIfaceC1ERK5QSize
libdigikamcore.so.7.3.0:_ZN7Digikam10ImageIfaceC2ERK5QSize
libdigikamcore.so.7.3.0:_ZN7Digikam10ImageIfaceD1Ev
libdigikamcore.so.7.3.0:_ZN7Digikam10ImageIfaceD2Ev
libdigikamcore.so.7.3.0:_ZN7Digikam10IptcWidget11getTagTitleERK7QString
libdigikamcore.so.7.3.0:_ZN7Digikam10IptcWidget11loadFromURLERK4QUrl
libdigikamcore.so.7.3.0:_ZN7Digikam10IptcWidget11qt_metacallEN11QMetaObject4CallEiPPv
libdigikamcore.so.7.3.0:_ZN7Digikam10IptcWidget11qt_metacastEPKc
libdigikamcore.so.7.3.0:_ZN7Digikam10IptcWidget14decodeMetadataEv
libdigikamcore.so.7.3.0:_ZN7Digikam10IptcWidget16staticMetaObjectE
libdigikamcore.so.7.3.0:_ZN7Digikam10IptcWidget17getTagDescriptionERK7QString
libdigikamcore.so.7.3.0:_ZN7Digikam10IptcWidget22slotSaveMetadataToFileEv
libdigikamcore.so.7.3.0:_ZN7Digikam10IptcWidget9buildViewEv
libdigikamcore.so.7.3.0:_ZN7Digikam10IptcWidgetC1EP7QWidgetRK7QString
libdigikamcore.so.7.3.0:_ZN7Digikam10IptcWidgetC2EP7QWidgetRK7QString
libdigikamcore.so.7.3.0:_ZN7Digikam10IptcWidgetD0Ev
libdigikamcore.so.7.3.0:_ZN7Digikam10IptcWidgetD1Ev
libdigikamcore.so.7.3.0:_ZN7Digikam10IptcWidgetD2Ev
libdigikamcore.so.7.3.0:_ZN7Digikam10MapBackend11qt_metacallEN11QMetaObject4CallEiPPv
libdigikamcore.so.7.3.0:_ZN7Digikam10MapBackend11qt_metacastEPKc
libdigikamcore.so.7.3.0:_ZN7Digikam10MapBackend16staticMetaObjectE
libdigikamcore.so.7.3.0:_ZN7Digikam10MapBackend17signalZoomChangedERK7QString
libdigikamcore.so.7.3.0:_ZN7Digikam10MapBackend18signalMarkersMovedERK5QListIiE
libdigikamcore.so.7.3.0:_ZN7Digikam10MapBackend19signalClustersMovedERK5QListIiERK5QPairIi11QModelIndexE
libdigikamcore.so.7.3.0:_ZN7Digikam10MapBackend21signalClustersClickedERK5QListIiE
libdigikamcore.so.7.3.0:_ZN7Digikam10MapBackend23slotTrackManagerChangedEv
libdigikamcore.so.7.3.0:_ZN7Digikam10MapBackend25signalBackendReadyChangedERK7QString
libdigikamcore.so.7.3.0:_ZN7Digikam10MapBackend26signalSelectionHasBeenMadeERK5QPairINS_14GeoCoordinatesES2_E
libdigikamcore.so.7.3.0:_ZN7Digikam10MapBackend30slotThumbnailAvailableForIndexERK8QVariantRK7QPixmap
libdigikamcore.so.7.3.0:_ZN7Digikam10MapBackendC1ERK28QExplicitlySharedDataPointerINS_18GeoIfaceSharedDataEEP7QObject
libdigikamcore.so.7.3.0:_ZN7Digikam10MapBackendC2ERK28QExplicitlySharedDataPointerINS_18GeoIfaceSharedDataEEP7QObject
libdigikamcore.so.7.3.0:_ZN7Digikam10MapBackendD0Ev
libdigikamcore.so.7.3.0:_ZN7Digikam10MapBackendD1Ev
libdigikamcore.so.7.3.0:_ZN7Digikam10MapBackendD2Ev
libdigikamcore.so.7.3.0:_ZN7Digikam10MetaEngine10hasSidecarERK7QString
libdigikamcore.so.7.3.0:_ZN7Digikam10MetaEngine10setGPSInfoEPKddd
libdigikamcore.so.7.3.0:_ZN7Digikam10MetaEngine10setGPSInfoEdRK7QStringS3_
libdigikamcore.so.7.3.0:_ZN7Digikam10MetaEngine10setGPSInfoEddd
libdigikamcore.so.7.3.0:_ZN7Digikam10MetaEngine10sidecarUrlERK4QUrl
libdigikamcore.so.7.3.0:_ZN7Digikam10MetaEngine10sidecarUrlERK7QString
libdigikamcore.so.7.3.0:_ZN7Digikam10MetaEngine10supportXmpEv
libdigikamcore.so.7.3.0:_ZN7Digikam10MetaEngine11backendNameENS0_7BackendE
libdigikamcore.so.7.3.0:_ZN7Digikam10MetaEngine11canWriteXmpERK7QString
libdigikamcore.so.7.3.0:_ZN7Digikam10MetaEngine11setFilePathERK7QString
libdigikamcore.so.7.3.0:_ZN7Digikam10MetaEngine11sidecarPathERK7QString
libdigikamcore.so.7.3.0:_ZN7Digikam10MetaEngine11supportBmffEv
libdigikamcore.so.7.3.0:_ZN7Digikam10MetaEngine12Exiv2VersionEv
libdigikamcore.so.7.3.0:_ZN7Digikam10MetaEngine12canWriteExifERK7QString
libdigikamcore.so.7.3.0:_ZN7Digikam10MetaEngine12canWriteIptcERK7QString
libdigikamcore.so.7.3.0:_ZN7Digikam10MetaEngine12loadFromDataERK10QByteArray
libdigikamcore.so.7.3.0:_ZN7Digikam10MetaEngine13removeGPSInfoEv
libdigikamcore.so.7.3.0:_ZN7Digikam10MetaEngine14getXmpTagTitleEPKc
libdigikamcore.so.7.3.0:_ZN7Digikam10MetaEngine15canWriteCommentERK7QString
libdigikamcore.so.7.3.0:_ZN7Digikam10MetaEngine15getExifTagTitleEPKc
libdigikamcore.so.7.3.0:_ZN7Digikam10MetaEngine15getIptcTagTitleEPKc
libdigikamcore.so.7.3.0:_ZN7Digikam10MetaEngine15initializeExiv2Ev
libdigikamcore.so.7.3.0:_ZN7Digikam10MetaEngine16setWriteDngFilesEb
libdigikamcore.so.7.3.0:_ZN7Digikam10MetaEngine16setWriteRawFilesEb
libdigikamcore.so.7.3.0:_ZN7Digikam10MetaEngine17convertToRationalEdPlS1_i
libdigikamcore.so.7.3.0:_ZN7Digikam10MetaEngine17detectLanguageAltERK7QStringRS1_
libdigikamcore.so.7.3.0:_ZN7Digikam10MetaEngine17initializeGPSInfoEv
libdigikamcore.so.7.3.0:_ZN7Digikam10MetaEngine17removeXmpKeywordsERK11QStringList
libdigikamcore.so.7.3.0:_ZN7Digikam10MetaEngine17removeXmpSubjectsERK11QStringList
libdigikamcore.so.7.3.0:_ZN7Digikam10MetaEngine20getXmpTagDescriptionEPKc
libdigikamcore.so.7.3.0:_ZN7Digikam10MetaEngine20registerXmpNameSpaceERK7QStringS3_
libdigikamcore.so.7.3.0:_ZN7Digikam10MetaEngine21getExifTagDescriptionEPKc
libdigikamcore.so.7.3.0:_ZN7Digikam10MetaEngine21getIptcTagDescriptionEPKc
libdigikamcore.so.7.3.0:_ZN7Digikam10MetaEngine22removeXmpSubCategoriesERK11QStringList
libdigikamcore.so.7.3.0:_ZN7Digikam10MetaEngine22setMetadataWritingModeEi
libdigikamcore.so.7.3.0:_ZN7Digikam10MetaEngine22setUpdateFileTimeStampEb
libdigikamcore.so.7.3.0:_ZN7Digikam10MetaEngine22sidecarFilePathForFileERK7QStringb
libdigikamcore.so.7.3.0:_ZN7Digikam10MetaEngine22supportMetadataWritingERK7QString
libdigikamcore.so.7.3.0:_ZN7Digikam10MetaEngine22unregisterXmpNameSpaceERK7QString
libdigikamcore.so.7.3.0:_ZN7Digikam10MetaEngine23loadFromSidecarAndMergeERK7QString
libdigikamcore.so.7.3.0:_ZN7Digikam10MetaEngine24setUseCompatibleFileNameEb
libdigikamcore.so.7.3.0:_ZN7Digikam10MetaEngine24setUseXMPSidecar4ReadingEb
libdigikamcore.so.7.3.0:_ZN7Digikam10MetaEngine26convertDegreeAngleToDoubleEddd
libdigikamcore.so.7.3.0:_ZN7Digikam10MetaEngine28convertToGPSCoordinateStringEbd
libdigikamcore.so.7.3.0:_ZN7Digikam10MetaEngine28convertToGPSCoordinateStringEllllllc
libdigikamcore.so.7.3.0:_ZN7Digikam10MetaEngine29createExifUserStringFromValueEPKcRK8QVariantb
libdigikamcore.so.7.3.0:_ZN7Digikam10MetaEngine30convertFromGPSCoordinateStringERK7QStringPd
libdigikamcore.so.7.3.0:_ZN7Digikam10MetaEngine30convertFromGPSCoordinateStringERK7QStringPlS4_S4_S4_S4_S4_Pc
libdigikamcore.so.7.3.0:_ZN7Digikam10MetaEngine31convertToUserPresentableNumbersERK7QStringPiS4_PdPc
libdigikamcore.so.7.3.0:_ZN7Digikam10MetaEngine31convertToUserPresentableNumbersEbdPiS1_PdPc
libdigikamcore.so.7.3.0:_ZN7Digikam10MetaEngine33convertToRationalSmallDenominatorEdPlS1_
libdigikamcore.so.7.3.0:_ZN7Digikam10MetaEngine4loadERK7QStringPNS0_7BackendE
libdigikamcore.so.7.3.0:_ZN7Digikam10MetaEngine7setDataERKNS_14MetaEngineDataE
libdigikamcore.so.7.3.0:_ZN7Digikam10MetaEngineC1ERK7QString
libdigikamcore.so.7.3.0:_ZN7Digikam10MetaEngineC1ERKNS_14MetaEngineDataE
libdigikamcore.so.7.3.0:_ZN7Digikam10MetaEngineC1ERKS0_
libdigikamcore.so.7.3.0:_ZN7Digikam10MetaEngineC1Ev
libdigikamcore.so.7.3.0:_ZN7Digikam10MetaEngineC2ERK7QString
libdigikamcore.so.7.3.0:_ZN7Digikam10MetaEngineC2ERKNS_14MetaEngineDataE
libdigikamcore.so.7.3.0:_ZN7Digikam10MetaEngineC2ERKS0_
libdigikamcore.so.7.3.0:_ZN7Digikam10MetaEngineC2Ev
libdigikamcore.so.7.3.0:_ZN7Digikam10MetaEngineD0Ev
libdigikamcore.so.7.3.0:_ZN7Digikam10MetaEngineD1Ev
libdigikamcore.so.7.3.0:_ZN7Digikam10MetaEngineD2Ev
libdigikamcore.so.7.3.0:_ZN7Digikam10MetaEngineaSERKS0_
libdigikamcore.so.7.3.0:_ZN7Digikam10NREstimate11qt_metacallEN11QMetaObject4CallEiPPv
libdigikamcore.so.7.3.0:_ZN7Digikam10NREstimate11qt_metacastEPKc
libdigikamcore.so.7.3.0:_ZN7Digikam10NREstimate12startAnalyseEv
libdigikamcore.so.7.3.0:_ZN7Digikam10NREstimate15setLogFilesPathERK7QString
libdigikamcore.so.7.3.0:_ZN7Digikam10NREstimate16staticMetaObjectE
libdigikamcore.so.7.3.0:_ZN7Digikam10NREstimateC1EPNS_4DImgEP7QObject
libdigikamcore.so.7.3.0:_ZN7Digikam10NREstimateC2EPNS_4DImgEP7QObject
libdigikamcore.so.7.3.0:_ZN7Digikam10NREstimateD0Ev
libdigikamcore.so.7.3.0:_ZN7Digikam10NREstimateD1Ev
libdigikamcore.so.7.3.0:_ZN7Digikam10NREstimateD2Ev
libdigikamcore.so.7.3.0:_ZN7Digikam10NRSettings11qt_metacallEN11QMetaObject4CallEiPPv
libdigikamcore.so.7.3.0:_ZN7Digikam10NRSettings11qt_metacastEPKc
libdigikamcore.so.7.3.0:_ZN7Digikam10NRSettings11setSettingsERKNS_11NRContainerE
libdigikamcore.so.7.3.0:_ZN7Digikam10NRSettings12loadSettingsEv
libdigikamcore.so.7.3.0:_ZN7Digikam10NRSettings12readSettingsER12KConfigGroup
libdigikamcore.so.7.3.0:_ZN7Digikam10NRSettings13writeSettingsER12KConfigGroup
libdigikamcore.so.7.3.0:_ZN7Digikam10NRSettings14resetToDefaultEv
libdigikamcore.so.7.3.0:_ZN7Digikam10NRSettings14saveAsSettingsEv
libdigikamcore.so.7.3.0:_ZN7Digikam10NRSettings16setEstimateNoiseEb
libdigikamcore.so.7.3.0:_ZN7Digikam10NRSettings16staticMetaObjectE
libdigikamcore.so.7.3.0:_ZN7Digikam10NRSettings19signalEstimateNoiseEv
libdigikamcore.so.7.3.0:_ZN7Digikam10NRSettings21signalSettingsChangedEv
libdigikamcore.so.7.3.0:_ZN7Digikam10NRSettings21slotDisableParametersEb
libdigikamcore.so.7.3.0:_ZN7Digikam10NRSettingsC1EP7QWidget
libdigikamcore.so.7.3.0:_ZN7Digikam10NRSettingsC2EP7QWidget
libdigikamcore.so.7.3.0:_ZN7Digikam10NRSettingsD0Ev
libdigikamcore.so.7.3.0:_ZN7Digikam10NRSettingsD1Ev
libdigikamcore.so.7.3.0:_ZN7Digikam10NRSettingsD2Ev
libdigikamcore.so.7.3.0:_ZN7Digikam10RGTagModel10addNewDataERK11QStringListS3_
libdigikamcore.so.7.3.0:_ZN7Digikam10RGTagModel10getSpacersEv
libdigikamcore.so.7.3.0:_ZN7Digikam10RGTagModel11qt_metacallEN11QMetaObject4CallEiPPv
libdigikamcore.so.7.3.0:_ZN7Digikam10RGTagModel11qt_metacastEPKc
libdigikamcore.so.7.3.0:_ZN7Digikam10RGTagModel12addSpacerTagERK11QModelIndexRK7QString
libdigikamcore.so.7.3.0:_ZN7Digikam10RGTagModel12readdNewTagsERK5QListIS1_INS_7TagDataEEE
libdigikamcore.so.7.3.0:_ZN7Digikam10RGTagModel13addDataInTreeEPNS_10TreeBranchEiRK11QStringListS5_
libdigikamcore.so.7.3.0:_ZN7Digikam10RGTagModel13getTagAddressEv
libdigikamcore.so.7.3.0:_ZN7Digikam10RGTagModel13setHeaderDataEiN2Qt11OrientationERK8QVarianti
libdigikamcore.so.7.3.0:_ZN7Digikam10RGTagModel13slotRowsMovedEv
libdigikamcore.so.7.3.0:_ZN7Digikam10RGTagModel14slotModelResetEv
libdigikamcore.so.7.3.0:_ZN7Digikam10RGTagModel15addExternalTagsEPNS_10TreeBranchEi
libdigikamcore.so.7.3.0:_ZN7Digikam10RGTagModel15slotRowsRemovedEv
libdigikamcore.so.7.3.0:_ZN7Digikam10RGTagModel16getSpacerAddressEPNS_10TreeBranchE
libdigikamcore.so.7.3.0:_ZN7Digikam10RGTagModel16slotColumnsMovedEv
libdigikamcore.so.7.3.0:_ZN7Digikam10RGTagModel16slotRowsInsertedEv
libdigikamcore.so.7.3.0:_ZN7Digikam10RGTagModel16staticMetaObjectE
libdigikamcore.so.7.3.0:_ZN7Digikam10RGTagModel17slotLayoutChangedEv
libdigikamcore.so.7.3.0:_ZN7Digikam10RGTagModel18addAllSpacersToTagERK11QModelIndexRK11QStringListi
libdigikamcore.so.7.3.0:_ZN7Digikam10RGTagModel18slotColumnsRemovedEv
libdigikamcore.so.7.3.0:_ZN7Digikam10RGTagModel19slotColumnsInsertedEv
libdigikamcore.so.7.3.0:_ZN7Digikam10RGTagModel21slotSourceDataChangedERK11QModelIndexS3_
libdigikamcore.so.7.3.0:_ZN7Digikam10RGTagModel22climbTreeAndGetSpacersEPKNS_10TreeBranchE
libdigikamcore.so.7.3.0:_ZN7Digikam10RGTagModel22slotRowsAboutToBeMovedERK11QModelIndexiiS3_i
libdigikamcore.so.7.3.0:_ZN7Digikam10RGTagModel23slotModelAboutToBeResetEv
libdigikamcore.so.7.3.0:_ZN7Digikam10RGTagModel24slotRowsAboutToBeRemovedERK11QModelIndexii
libdigikamcore.so.7.3.0:_ZN7Digikam10RGTagModel25deleteAllSpacersOrNewTagsERK11QModelIndexNS_4TypeE
libdigikamcore.so.7.3.0:_ZN7Digikam10RGTagModel25slotColumnsAboutToBeMovedERK11QModelIndexiiS3_i
libdigikamcore.so.7.3.0:_ZN7Digikam10RGTagModel25slotRowsAboutToBeInsertedERK11QModelIndexii
libdigikamcore.so.7.3.0:_ZN7Digikam10RGTagModel26slotLayoutAboutToBeChangedEv
libdigikamcore.so.7.3.0:_ZN7Digikam10RGTagModel27slotColumnsAboutToBeRemovedERK11QModelIndexii
libdigikamcore.so.7.3.0:_ZN7Digikam10RGTagModel27slotSourceHeaderDataChangedEN2Qt11OrientationEii
libdigikamcore.so.7.3.0:_ZN7Digikam10RGTagModel28addAllExternalTagsToTreeViewEv
libdigikamcore.so.7.3.0:_ZN7Digikam10RGTagModel28slotColumnsAboutToBeInsertedERK11QModelIndexii
libdigikamcore.so.7.3.0:_ZN7Digikam10RGTagModel29findAndDeleteSpacersOrNewTagsEPNS_10TreeBranchEiNS_4TypeE
libdigikamcore.so.7.3.0:_ZN7Digikam10RGTagModel7setDataERK11QModelIndexRK8QVarianti
libdigikamcore.so.7.3.0:_ZN7Digikam10RGTagModel8readdTagERPNS_10TreeBranchEiRK5QListINS_7TagDataEEi
libdigikamcore.so.7.3.0:_ZN7Digikam10RGTagModel9addNewTagERK11QModelIndexRK7QStringS6_
libdigikamcore.so.7.3.0:_ZN7Digikam10RGTagModel9deleteTagERK11QModelIndex
libdigikamcore.so.7.3.0:_ZN7Digikam10RGTagModelC1EP18QAbstractItemModelP7QObject
libdigikamcore.so.7.3.0:_ZN7Digikam10RGTagModelC2EP18QAbstractItemModelP7QObject
libdigikamcore.so.7.3.0:_ZN7Digikam10RGTagModelD0Ev
libdigikamcore.so.7.3.0:_ZN7Digikam10RGTagModelD1Ev
libdigikamcore.so.7.3.0:_ZN7Digikam10RGTagModelD2Ev
libdigikamcore.so.7.3.0:_ZN7Digikam10RubberItem11qt_metacallEN11QMetaObject4CallEiPPv
libdigikamcore.so.7.3.0:_ZN7Digikam10RubberItem11qt_metacastEPKc
libdigikamcore.so.7.3.0:_ZN7Digikam10RubberItem14mouseMoveEventEP24QGraphicsSceneMouseEvent
libdigikamcore.so.7.3.0:_ZN7Digikam10RubberItem16staticMetaObjectE
libdigikamcore.so.7.3.0:_ZN7Digikam10RubberItem17mouseReleaseEventEP24QGraphicsSceneMouseEvent
libdigikamcore.so.7.3.0:_ZN7Digikam10RubberItem9setCanvasEPNS_6CanvasE
libdigikamcore.so.7.3.0:_ZN7Digikam10RubberItemC1EPNS_16ImagePreviewItemE
libdigikamcore.so.7.3.0:_ZN7Digikam10RubberItemC2EPNS_16ImagePreviewItemE
libdigikamcore.so.7.3.0:_ZN7Digikam10RubberItemD0Ev
libdigikamcore.so.7.3.0:_ZN7Digikam10RubberItemD1Ev
libdigikamcore.so.7.3.0:_ZN7Digikam10RubberItemD2Ev
libdigikamcore.so.7.3.0:_ZN7Digikam10UndoAction11setMetadataERKNS_21UndoMetadataContainerE
libdigikamcore.so.7.3.0:_ZN7Digikam10UndoAction17setFileOriginDataERK8QVariantRKNS_13DImageHistoryE
libdigikamcore.so.7.3.0:_ZN7Digikam10UndoAction8setTitleERK7QString
libdigikamcore.so.7.3.0:_ZN7Digikam10UndoActionC1EPNS_10EditorCoreE
libdigikamcore.so.7.3.0:_ZN7Digikam10UndoActionC2EPNS_10EditorCoreE
libdigikamcore.so.7.3.0:_ZN7Digikam10UndoActionD0Ev
libdigikamcore.so.7.3.0:_ZN7Digikam10UndoActionD1Ev
libdigikamcore.so.7.3.0:_ZN7Digikam10UndoActionD2Ev
libdigikamcore.so.7.3.0:_ZN7Digikam10WBSettings11qt_metacallEN11QMetaObject4CallEiPPv
libdigikamcore.so.7.3.0:_ZN7Digikam10WBSettings11qt_metacastEPKc
libdigikamcore.so.7.3.0:_ZN7Digikam10WBSettings11setSettingsERKNS_11WBContainerE
libdigikamcore.so.7.3.0:_ZN7Digikam10WBSettings12loadSettingsEv
libdigikamcore.so.7.3.0:_ZN7Digikam10WBSettings12readSettingsER12KConfigGroup
libdigikamcore.so.7.3.0:_ZN7Digikam10WBSettings13writeSettingsER12KConfigGroup
libdigikamcore.so.7.3.0:_ZN7Digikam10WBSettings14resetToDefaultEv
libdigikamcore.so.7.3.0:_ZN7Digikam10WBSettings14saveAsSettingsEv
libdigikamcore.so.7.3.0:_ZN7Digikam10WBSettings16staticMetaObjectE
libdigikamcore.so.7.3.0:_ZN7Digikam10WBSettings19showAdvancedButtonsEb
libdigikamcore.so.7.3.0:_ZN7Digikam10WBSettings21signalSettingsChangedEv
libdigikamcore.so.7.3.0:_ZN7Digikam10WBSettings22slotTemperatureChangedEd
libdigikamcore.so.7.3.0:_ZN7Digikam10WBSettings24pickTemperatureIsCheckedEv
libdigikamcore.so.7.3.0:_ZN7Digikam10WBSettings24signalAutoAdjustExposureEv
libdigikamcore.so.7.3.0:_ZN7Digikam10WBSettings25setCheckedPickTemperatureEb
libdigikamcore.so.7.3.0:_ZN7Digikam10WBSettings28slotTemperaturePresetChangedEi
libdigikamcore.so.7.3.0:_ZN7Digikam10WBSettings30signalPickerColorButtonActivedEv
libdigikamcore.so.7.3.0:_ZN7Digikam10WBSettingsC1EP7QWidget
libdigikamcore.so.7.3.0:_ZN7Digikam10WBSettingsC2EP7QWidget
libdigikamcore.so.7.3.0:_ZN7Digikam10WBSettingsD0Ev
libdigikamcore.so.7.3.0:_ZN7Digikam10WBSettingsD1Ev
libdigikamcore.so.7.3.0:_ZN7Digikam10WBSettingsD2Ev
libdigikamcore.so.7.3.0:_ZN7Digikam10WSSettings11qt_metacallEN11QMetaObject4CallEiPPv
libdigikamcore.so.7.3.0:_ZN7Digikam10WSSettings11qt_metacastEPKc
libdigikamcore.so.7.3.0:_ZN7Digikam10WSSettings12allUserNamesERK7QString
libdigikamcore.so.7.3.0:_ZN7Digikam10WSSettings12readSettingsER12KConfigGroup
libdigikamcore.so.7.3.0:_ZN7Digikam10WSSettings13writeSettingsER12KConfigGroup
libdigikamcore.so.7.3.0:_ZN7Digikam10WSSettings15webServiceNamesEv
libdigikamcore.so.7.3.0:_ZN7Digikam10WSSettings16imageFormatNamesEv
libdigikamcore.so.7.3.0:_ZN7Digikam10WSSettings16staticMetaObjectE
libdigikamcore.so.7.3.0:_ZN7Digikam10WSSettingsC1EP7QObject
libdigikamcore.so.7.3.0:_ZN7Digikam10WSSettingsC2EP7QObject
libdigikamcore.so.7.3.0:_ZN7Digikam10WSSettingsD0Ev
libdigikamcore.so.7.3.0:_ZN7Digikam10WSSettingsD1Ev
libdigikamcore.so.7.3.0:_ZN7Digikam10WSSettingsD2Ev
libdigikamcore.so.7.3.0:_ZN7Digikam11BCGSettings11qt_metacallEN11QMetaObject4CallEiPPv
libdigikamcore.so.7.3.0:_ZN7Digikam11BCGSettings11qt_metacastEPKc
libdigikamcore.so.7.3.0:_ZN7Digikam11BCGSettings11setSettingsERKNS_12BCGContainerE
libdigikamcore.so.7.3.0:_ZN7Digikam11BCGSettings12readSettingsER12KConfigGroup
libdigikamcore.so.7.3.0:_ZN7Digikam11BCGSettings13writeSettingsER12KConfigGroup
libdigikamcore.so.7.3.0:_ZN7Digikam11BCGSettings14resetToDefaultEv
libdigikamcore.so.7.3.0:_ZN7Digikam11BCGSettings16staticMetaObjectE
libdigikamcore.so.7.3.0:_ZN7Digikam11BCGSettings21signalSettingsChangedEv
libdigikamcore.so.7.3.0:_ZN7Digikam11BCGSettingsC1EP7QWidget
libdigikamcore.so.7.3.0:_ZN7Digikam11BCGSettingsC2EP7QWidget
libdigikamcore.so.7.3.0:_ZN7Digikam11BCGSettingsD0Ev
libdigikamcore.so.7.3.0:_ZN7Digikam11BCGSettingsD1Ev
libdigikamcore.so.7.3.0:_ZN7Digikam11BCGSettingsD2Ev
libdigikamcore.so.7.3.0:_ZN7Digikam11CaptionsMap12setDatesListERK4QMapI7QStringS2_E
libdigikamcore.so.7.3.0:_ZN7Digikam11CaptionsMap14fromAltLangMapERK4QMapI7QStringS2_E
libdigikamcore.so.7.3.0:_ZN7Digikam11CaptionsMap14setAuthorsListERK4QMapI7QStringS2_ERKS2_
libdigikamcore.so.7.3.0:_ZN7Digikam11CaptionsMap7setDataERK4QMapI7QStringS2_ES5_RKS2_S5_
libdigikamcore.so.7.3.0:_ZN7Digikam11CaptionsMapC1Ev
libdigikamcore.so.7.3.0:_ZN7Digikam11CaptionsMapC2Ev
libdigikamcore.so.7.3.0:_ZN7Digikam11CaptionsMapD1Ev
libdigikamcore.so.7.3.0:_ZN7Digikam11CaptionsMapD2Ev
libdigikamcore.so.7.3.0:_ZN7Digikam11DBusyThread11qt_metacallEN11QMetaObject4CallEiPPv
libdigikamcore.so.7.3.0:_ZN7Digikam11DBusyThread11qt_metacastEPKc
libdigikamcore.so.7.3.0:_ZN7Digikam11DBusyThread14signalCompleteEv
libdigikamcore.so.7.3.0:_ZN7Digikam11DBusyThread16staticMetaObjectE
libdigikamcore.so.7.3.0:_ZN7Digikam11DBusyThreadC1EP7QObject
libdigikamcore.so.7.3.0:_ZN7Digikam11DBusyThreadC2EP7QObject
libdigikamcore.so.7.3.0:_ZN7Digikam11DBusyThreadD0Ev
libdigikamcore.so.7.3.0:_ZN7Digikam11DBusyThreadD1Ev
libdigikamcore.so.7.3.0:_ZN7Digikam11DBusyThreadD2Ev
libdigikamcore.so.7.3.0:_ZN7Digikam11DClickLabel11leftClickedEv
libdigikamcore.so.7.3.0:_ZN7Digikam11DClickLabel11qt_metacallEN11QMetaObject4CallEiPPv
libdigikamcore.so.7.3.0:_ZN7Digikam11DClickLabel11qt_metacastEPKc
libdigikamcore.so.7.3.0:_ZN7Digikam11DClickLabel13keyPressEventEP9QKeyEvent
libdigikamcore.so.7.3.0:_ZN7Digikam11DClickLabel15mousePressEventEP11QMouseEvent
libdigikamcore.so.7.3.0:_ZN7Digikam11DClickLabel16staticMetaObjectE
libdigikamcore.so.7.3.0:_ZN7Digikam11DClickLabel17mouseReleaseEventEP11QMouseEvent
libdigikamcore.so.7.3.0:_ZN7Digikam11DClickLabel9activatedEv
libdigikamcore.so.7.3.0:_ZN7Digikam11DClickLabelC1EP7QWidget
libdigikamcore.so.7.3.0:_ZN7Digikam11DClickLabelC1ERK7QStringP7QWidget
libdigikamcore.so.7.3.0:_ZN7Digikam11DClickLabelC2EP7QWidget
libdigikamcore.so.7.3.0:_ZN7Digikam11DClickLabelC2ERK7QStringP7QWidget
libdigikamcore.so.7.3.0:_ZN7Digikam11DClickLabelD0Ev
libdigikamcore.so.7.3.0:_ZN7Digikam11DClickLabelD1Ev
libdigikamcore.so.7.3.0:_ZN7Digikam11DClickLabelD2Ev
libdigikamcore.so.7.3.0:_ZN7Digikam11DFileDialog11qt_metacallEN11QMetaObject4CallEiPPv
libdigikamcore.so.7.3.0:_ZN7Digikam11DFileDialog11qt_metacastEPKc
libdigikamcore.so.7.3.0:_ZN7Digikam11DFileDialog14getOpenFileUrlEP7QWidgetRK7QStringRK4QUrlS5_PS3_6QFlagsIN11QFileDialog6OptionEERK11QStringList
libdigikamcore.so.7.3.0:_ZN7Digikam11DFileDialog14getSaveFileUrlEP7QWidgetRK7QStringRK4QUrlS5_PS3_6QFlagsIN11QFileDialog6OptionEERK11QStringList
libdigikamcore.so.7.3.0:_ZN7Digikam11DFileDialog15getOpenFileNameEP7QWidgetRK7QStringS5_S5_PS3_6QFlagsIN11QFileDialog6OptionEE
libdigikamcore.so.7.3.0:_ZN7Digikam11DFileDialog15getOpenFileUrlsEP7QWidgetRK7QStringRK4QUrlS5_PS3_6QFlagsIN11QFileDialog6OptionEERK11QStringList
libdigikamcore.so.7.3.0:_ZN7Digikam11DFileDialog15getSaveFileNameEP7QWidgetRK7QStringS5_S5_PS3_6QFlagsIN11QFileDialog6OptionEE
libdigikamcore.so.7.3.0:_ZN7Digikam11DFileDialog16getOpenFileNamesEP7QWidgetRK7QStringS5_S5_PS3_6QFlagsIN11QFileDialog6OptionEE
libdigikamcore.so.7.3.0:_ZN7Digikam11DFileDialog16staticMetaObjectE
libdigikamcore.so.7.3.0:_ZN7Digikam11DFileDialog20getExistingDirectoryEP7QWidgetRK7QStringS5_6QFlagsIN11QFileDialog6OptionEE
libdigikamcore.so.7.3.0:_ZN7Digikam11DFileDialog23getExistingDirectoryUrlEP7QWidgetRK7QStringRK4QUrl6QFlagsIN11QFileDialog6OptionEERK11QStringList
libdigikamcore.so.7.3.0:_ZN7Digikam11DFileDialog25getNativeFileDialogOptionEv
libdigikamcore.so.7.3.0:_ZN7Digikam11DFileDialogC1EP7QWidget6QFlagsIN2Qt10WindowTypeEE
libdigikamcore.so.7.3.0:_ZN7Digikam11DFileDialogC1EP7QWidgetRK7QStringS5_S5_
libdigikamcore.so.7.3.0:_ZN7Digikam11DFileDialogC2EP7QWidget6QFlagsIN2Qt10WindowTypeEE
libdigikamcore.so.7.3.0:_ZN7Digikam11DFileDialogC2EP7QWidgetRK7QStringS5_S5_
libdigikamcore.so.7.3.0:_ZN7Digikam11DFileDialogD0Ev
libdigikamcore.so.7.3.0:_ZN7Digikam11DFileDialogD1Ev
libdigikamcore.so.7.3.0:_ZN7Digikam11DFileDialogD2Ev
libdigikamcore.so.7.3.0:_ZN7Digikam11DFontSelect11qt_metacallEN11QMetaObject4CallEiPPv
libdigikamcore.so.7.3.0:_ZN7Digikam11DFontSelect11qt_metacastEPKc
libdigikamcore.so.7.3.0:_ZN7Digikam11DFontSelect14slotChangeModeEi
libdigikamcore.so.7.3.0:_ZN7Digikam11DFontSelect16staticMetaObjectE
libdigikamcore.so.7.3.0:_ZN7Digikam11DFontSelect17signalFontChangedEv
libdigikamcore.so.7.3.0:_ZN7Digikam11DFontSelect18slotOpenFontDialogEv
libdigikamcore.so.7.3.0:_ZN7Digikam11DFontSelect5eventEP6QEvent
libdigikamcore.so.7.3.0:_ZN7Digikam11DFontSelect7setFontERK5QFont
libdigikamcore.so.7.3.0:_ZN7Digikam11DFontSelect7setModeENS0_8FontModeE
libdigikamcore.so.7.3.0:_ZN7Digikam11DFontSelectC1ERK7QStringP7QWidget
libdigikamcore.so.7.3.0:_ZN7Digikam11DFontSelectC2ERK7QStringP7QWidget
libdigikamcore.so.7.3.0:_ZN7Digikam11DFontSelectD0Ev
libdigikamcore.so.7.3.0:_ZN7Digikam11DFontSelectD1Ev
libdigikamcore.so.7.3.0:_ZN7Digikam11DFontSelectD2Ev
libdigikamcore.so.7.3.0:_ZN7Digikam11DLineWidget11qt_metacallEN11QMetaObject4CallEiPPv
libdigikamcore.so.7.3.0:_ZN7Digikam11DLineWidget11qt_metacastEPKc
libdigikamcore.so.7.3.0:_ZN7Digikam11DLineWidget16staticMetaObjectE
libdigikamcore.so.7.3.0:_ZN7Digikam11DLineWidgetC1EN2Qt11OrientationEP7QWidget
libdigikamcore.so.7.3.0:_ZN7Digikam11DLineWidgetC2EN2Qt11OrientationEP7QWidget
libdigikamcore.so.7.3.0:_ZN7Digikam11DLineWidgetD0Ev
libdigikamcore.so.7.3.0:_ZN7Digikam11DLineWidgetD1Ev
libdigikamcore.so.7.3.0:_ZN7Digikam11DLineWidgetD2Ev
libdigikamcore.so.7.3.0:_ZN7Digikam11DLogoAction11qt_metacallEN11QMetaObject4CallEiPPv
libdigikamcore.so.7.3.0:_ZN7Digikam11DLogoAction11qt_metacastEPKc
libdigikamcore.so.7.3.0:_ZN7Digikam11DLogoAction12createWidgetEP7QWidget
libdigikamcore.so.7.3.0:_ZN7Digikam11DLogoAction12deleteWidgetEP7QWidget
libdigikamcore.so.7.3.0:_ZN7Digikam11DLogoAction16staticMetaObjectE
libdigikamcore.so.7.3.0:_ZN7Digikam11DLogoAction21slotProgressTimerDoneEv
libdigikamcore.so.7.3.0:_ZN7Digikam11DLogoAction4stopEv
libdigikamcore.so.7.3.0:_ZN7Digikam11DLogoAction5startEv
libdigikamcore.so.7.3.0:_ZN7Digikam11DLogoActionC1EP7QObjectb
libdigikamcore.so.7.3.0:_ZN7Digikam11DLogoActionC2EP7QObjectb
libdigikamcore.so.7.3.0:_ZN7Digikam11DLogoActionD0Ev
libdigikamcore.so.7.3.0:_ZN7Digikam11DLogoActionD1Ev
libdigikamcore.so.7.3.0:_ZN7Digikam11DLogoActionD2Ev
libdigikamcore.so.7.3.0:_ZN7Digikam11DMessageBox10createIconEN11QMessageBox4IconE
libdigikamcore.so.7.3.0:_ZN7Digikam11DMessageBox13showYesNoListEN11QMessageBox4IconEP7QWidgetRK7QStringS7_RK11QStringListS7_
libdigikamcore.so.7.3.0:_ZN7Digikam11DMessageBox15showYesNoWidgetEN11QMessageBox4IconEP7QWidgetRK7QStringS7_S4_S7_
libdigikamcore.so.7.3.0:_ZN7Digikam11DMessageBox16createMessageBoxEP7QDialogP16QDialogButtonBoxRK5QIconRK7QStringP7QWidgetSA_Pb
libdigikamcore.so.7.3.0:_ZN7Digikam11DMessageBox16createWidgetListERK11QStringList
libdigikamcore.so.7.3.0:_ZN7Digikam11DMessageBox18showContinueCancelEN11QMessageBox4IconEP7QWidgetRK7QStringS7_S7_
libdigikamcore.so.7.3.0:_ZN7Digikam11DMessageBox19showInformationListEN11QMessageBox4IconEP7QWidgetRK7QStringS7_RK11QStringListS7_
libdigikamcore.so.7.3.0:_ZN7Digikam11DMessageBox21showInformationWidgetEN11QMessageBox4IconEP7QWidgetRK7QStringS7_S4_S7_
libdigikamcore.so.7.3.0:_ZN7Digikam11DMessageBox22showContinueCancelListEN11QMessageBox4IconEP7QWidgetRK7QStringS7_RK11QStringListS7_
libdigikamcore.so.7.3.0:_ZN7Digikam11DMessageBox23readMsgBoxShouldBeShownERK7QString
libdigikamcore.so.7.3.0:_ZN7Digikam11DMessageBox23saveMsgBoxShouldBeShownERK7QStringb
libdigikamcore.so.7.3.0:_ZN7Digikam11DMessageBox24showContinueCancelWidgetEN11QMessageBox4IconEP7QWidgetRK7QStringS7_S4_S7_
libdigikamcore.so.7.3.0:_ZN7Digikam11DMessageBox9showYesNoEN11QMessageBox4IconEP7QWidgetRK7QStringS7_S7_
libdigikamcore.so.7.3.0:_ZN7Digikam11DNGSettings11qt_metacallEN11QMetaObject4CallEiPPv
libdigikamcore.so.7.3.0:_ZN7Digikam11DNGSettings11qt_metacastEPKc
libdigikamcore.so.7.3.0:_ZN7Digikam11DNGSettings14setPreviewModeEi
libdigikamcore.so.7.3.0:_ZN7Digikam11DNGSettings16slotSetupChangedEv
libdigikamcore.so.7.3.0:_ZN7Digikam11DNGSettings16staticMetaObjectE
libdigikamcore.so.7.3.0:_ZN7Digikam11DNGSettings18setDefaultSettingsEv
libdigikamcore.so.7.3.0:_ZN7Digikam11DNGSettings19setCompressLossLessEb
libdigikamcore.so.7.3.0:_ZN7Digikam11DNGSettings19signalSetupExifToolEv
libdigikamcore.so.7.3.0:_ZN7Digikam11DNGSettings21signalSettingsChangedEv
libdigikamcore.so.7.3.0:_ZN7Digikam11DNGSettings24setBackupOriginalRawFileEb
libdigikamcore.so.7.3.0:_ZN7Digikam11DNGSettingsC1EP7QWidget
libdigikamcore.so.7.3.0:_ZN7Digikam11DNGSettingsC2EP7QWidget
libdigikamcore.so.7.3.0:_ZN7Digikam11DNGSettingsD0Ev
libdigikamcore.so.7.3.0:_ZN7Digikam11DNGSettingsD1Ev
libdigikamcore.so.7.3.0:_ZN7Digikam11DNGSettingsD2Ev
libdigikamcore.so.7.3.0:_ZN7Digikam11DPluginDImg11qt_metacallEN11QMetaObject4CallEiPPv
libdigikamcore.so.7.3.0:_ZN7Digikam11DPluginDImg11qt_metacastEPKc
libdigikamcore.so.7.3.0:_ZN7Digikam11DPluginDImg16staticMetaObjectE
libdigikamcore.so.7.3.0:_ZN7Digikam11DPluginDImgC1EP7QObject
libdigikamcore.so.7.3.0:_ZN7Digikam11DPluginDImgC2EP7QObject
libdigikamcore.so.7.3.0:_ZN7Digikam11DPluginDImgD0Ev
libdigikamcore.so.7.3.0:_ZN7Digikam11DPluginDImgD1Ev
libdigikamcore.so.7.3.0:_ZN7Digikam11DPluginDImgD2Ev
libdigikamcore.so.7.3.0:_ZN7Digikam11DRawDecoder11qt_metacallEN11QMetaObject4CallEiPPv
libdigikamcore.so.7.3.0:_ZN7Digikam11DRawDecoder11qt_metacastEPKc
libdigikamcore.so.7.3.0:_ZN7Digikam11DRawDecoder12rawFilesListEv
libdigikamcore.so.7.3.0:_ZN7Digikam11DRawDecoder13librawUseGompEv
libdigikamcore.so.7.3.0:_ZN7Digikam11DRawDecoder13librawVersionEv
libdigikamcore.so.7.3.0:_ZN7Digikam11DRawDecoder13loadFullImageER6QImageRK7QStringRKNS_19DRawDecoderSettingsE
libdigikamcore.so.7.3.0:_ZN7Digikam11DRawDecoder14decodeRAWImageERK7QStringRKNS_19DRawDecoderSettingsER10QByteArrayRiS9_S9_
libdigikamcore.so.7.3.0:_ZN7Digikam11DRawDecoder14extractRAWDataERK7QStringR10QByteArrayRNS_8DRawInfoEj
libdigikamcore.so.7.3.0:_ZN7Digikam11DRawDecoder14loadRawPreviewER6QImageRK7QString
libdigikamcore.so.7.3.0:_ZN7Digikam11DRawDecoder15loadHalfPreviewER10QByteArrayRK7QBuffer
libdigikamcore.so.7.3.0:_ZN7Digikam11DRawDecoder15loadHalfPreviewER10QByteArrayRK7QString
libdigikamcore.so.7.3.0:_ZN7Digikam11DRawDecoder15loadHalfPreviewER6QImageRK7QString
libdigikamcore.so.7.3.0:_ZN7Digikam11DRawDecoder15rawFileIdentifyERNS_8DRawInfoERK7QString
libdigikamcore.so.7.3.0:_ZN7Digikam11DRawDecoder15rawFilesVersionEv
libdigikamcore.so.7.3.0:_ZN7Digikam11DRawDecoder15supportedCameraEv
libdigikamcore.so.7.3.0:_ZN7Digikam11DRawDecoder16staticMetaObjectE
libdigikamcore.so.7.3.0:_ZN7Digikam11DRawDecoder18decodeHalfRAWImageERK7QStringRKNS_19DRawDecoderSettingsER10QByteArrayRiS9_S9_
libdigikamcore.so.7.3.0:_ZN7Digikam11DRawDecoder19loadEmbeddedPreviewER10QByteArrayRK7QBuffer
libdigikamcore.so.7.3.0:_ZN7Digikam11DRawDecoder19loadEmbeddedPreviewER10QByteArrayRK7QString
libdigikamcore.so.7.3.0:_ZN7Digikam11DRawDecoder19loadEmbeddedPreviewER6QImageRK7QString
libdigikamcore.so.7.3.0:_ZN7Digikam11DRawDecoder22setWaitingDataProgressEd
libdigikamcore.so.7.3.0:_ZN7Digikam11DRawDecoder24checkToCancelWaitingDataEv
libdigikamcore.so.7.3.0:_ZN7Digikam11DRawDecoder6cancelEv
libdigikamcore.so.7.3.0:_ZN7Digikam11DRawDecoder8rawFilesEv
libdigikamcore.so.7.3.0:_ZN7Digikam11DRawDecoder9isRawFileERK4QUrl
libdigikamcore.so.7.3.0:_ZN7Digikam11DRawDecoderC1Ev
libdigikamcore.so.7.3.0:_ZN7Digikam11DRawDecoderC2Ev
libdigikamcore.so.7.3.0:_ZN7Digikam11DRawDecoderD0Ev
libdigikamcore.so.7.3.0:_ZN7Digikam11DRawDecoderD1Ev
libdigikamcore.so.7.3.0:_ZN7Digikam11DRawDecoderD2Ev
libdigikamcore.so.7.3.0:_ZN7Digikam11DWizardPage11qt_metacallEN11QMetaObject4CallEiPPv
libdigikamcore.so.7.3.0:_ZN7Digikam11DWizardPage11qt_metacastEPKc
libdigikamcore.so.7.3.0:_ZN7Digikam11DWizardPage11setCompleteEb
libdigikamcore.so.7.3.0:_ZN7Digikam11DWizardPage13setPageWidgetEP7QWidget
libdigikamcore.so.7.3.0:_ZN7Digikam11DWizardPage15setShowLeftViewEb
libdigikamcore.so.7.3.0:_ZN7Digikam11DWizardPage16removePageWidgetEP7QWidget
libdigikamcore.so.7.3.0:_ZN7Digikam11DWizardPage16setLeftBottomPixERK5QIcon
libdigikamcore.so.7.3.0:_ZN7Digikam11DWizardPage16setLeftBottomPixERK7QPixmap
libdigikamcore.so.7.3.0:_ZN7Digikam11DWizardPage16staticMetaObjectE
libdigikamcore.so.7.3.0:_ZN7Digikam11DWizardPageC1EP7QWizardRK7QString
libdigikamcore.so.7.3.0:_ZN7Digikam11DWizardPageC2EP7QWizardRK7QString
libdigikamcore.so.7.3.0:_ZN7Digikam11DWizardPageD0Ev
libdigikamcore.so.7.3.0:_ZN7Digikam11DWizardPageD1Ev
libdigikamcore.so.7.3.0:_ZN7Digikam11DWizardPageD2Ev
libdigikamcore.so.7.3.0:_ZN7Digikam11GPSItemInfo31fromIdCoordinatesRatingDateTimeExRKNS_14GeoCoordinatesEiRK9QDateTime
libdigikamcore.so.7.3.0:_ZN7Digikam11GPSItemInfoC1Ev
libdigikamcore.so.7.3.0:_ZN7Digikam11GPSItemInfoC2Ev
libdigikamcore.so.7.3.0:_ZN7Digikam11GPSItemInfoD1Ev
libdigikamcore.so.7.3.0:_ZN7Digikam11GPSItemInfoD2Ev
libdigikamcore.so.7.3.0:_ZN7Digikam11GPSItemList10wheelEventEP11QWheelEvent
libdigikamcore.so.7.3.0:_ZN7Digikam11GPSItemList11eventFilterEP7QObjectP6QEvent
libdigikamcore.so.7.3.0:_ZN7Digikam11GPSItemList11qt_metacallEN11QMetaObject4CallEiPPv
libdigikamcore.so.7.3.0:_ZN7Digikam11GPSItemList11qt_metacastEPKc
libdigikamcore.so.7.3.0:_ZN7Digikam11GPSItemList14setDragEnabledEb
libdigikamcore.so.7.3.0:_ZN7Digikam11GPSItemList14setEditEnabledEb
libdigikamcore.so.7.3.0:_ZN7Digikam11GPSItemList16setThumbnailSizeEi
libdigikamcore.so.7.3.0:_ZN7Digikam11GPSItemList16staticMetaObjectE
libdigikamcore.so.7.3.0:_ZN7Digikam11GPSItemList18setDragDropHandlerEPNS_23ItemListDragDropHandlerE
libdigikamcore.so.7.3.0:_ZN7Digikam11GPSItemList19saveSettingsToGroupEP12KConfigGroup
libdigikamcore.so.7.3.0:_ZN7Digikam11GPSItemList20signalImageActivatedERK11QModelIndex
libdigikamcore.so.7.3.0:_ZN7Digikam11GPSItemList21readSettingsFromGroupEPK12KConfigGroup
libdigikamcore.so.7.3.0:_ZN7Digikam11GPSItemList22slotThumbnailFromModelERK21QPersistentModelIndexRK7QPixmap
libdigikamcore.so.7.3.0:_ZN7Digikam11GPSItemList24slotUpdateActionsEnabledEv
libdigikamcore.so.7.3.0:_ZN7Digikam11GPSItemList25setModelAndSelectionModelEPNS_12GPSItemModelEP19QItemSelectionModel
libdigikamcore.so.7.3.0:_ZN7Digikam11GPSItemList25slotDecreaseThumbnailSizeEv
libdigikamcore.so.7.3.0:_ZN7Digikam11GPSItemList25slotIncreaseThumbnailSizeEv
libdigikamcore.so.7.3.0:_ZN7Digikam11GPSItemList34slotInternalTreeViewImageActivatedERK11QModelIndexS3_
libdigikamcore.so.7.3.0:_ZN7Digikam11GPSItemList35slotColumnVisibilityActionTriggeredEP7QAction
libdigikamcore.so.7.3.0:_ZN7Digikam11GPSItemList9startDragE6QFlagsIN2Qt10DropActionEE
libdigikamcore.so.7.3.0:_ZN7Digikam11GPSItemListC1EP7QWidget
libdigikamcore.so.7.3.0:_ZN7Digikam11GPSItemListC2EP7QWidget
libdigikamcore.so.7.3.0:_ZN7Digikam11GPSItemListD0Ev
libdigikamcore.so.7.3.0:_ZN7Digikam11GPSItemListD1Ev
libdigikamcore.so.7.3.0:_ZN7Digikam11GPSItemListD2Ev
libdigikamcore.so.7.3.0:_ZN7Digikam11HSLSettings11qt_metacallEN11QMetaObject4CallEiPPv
libdigikamcore.so.7.3.0:_ZN7Digikam11HSLSettings11qt_metacastEPKc
libdigikamcore.so.7.3.0:_ZN7Digikam11HSLSettings11setSettingsERKNS_12HSLContainerE
libdigikamcore.so.7.3.0:_ZN7Digikam11HSLSettings12readSettingsER12KConfigGroup
libdigikamcore.so.7.3.0:_ZN7Digikam11HSLSettings12slotHChangedEd
libdigikamcore.so.7.3.0:_ZN7Digikam11HSLSettings12slotSChangedEd
libdigikamcore.so.7.3.0:_ZN7Digikam11HSLSettings13slotHSChangedEii
libdigikamcore.so.7.3.0:_ZN7Digikam11HSLSettings13writeSettingsER12KConfigGroup
libdigikamcore.so.7.3.0:_ZN7Digikam11HSLSettings14resetToDefaultEv
libdigikamcore.so.7.3.0:_ZN7Digikam11HSLSettings16staticMetaObjectE
libdigikamcore.so.7.3.0:_ZN7Digikam11HSLSettings21signalSettingsChangedEv
libdigikamcore.so.7.3.0:_ZN7Digikam11HSLSettingsC1EP7QWidget
libdigikamcore.so.7.3.0:_ZN7Digikam11HSLSettingsC2EP7QWidget
libdigikamcore.so.7.3.0:_ZN7Digikam11HSLSettingsD0Ev
libdigikamcore.so.7.3.0:_ZN7Digikam11HSLSettingsD1Ev
libdigikamcore.so.7.3.0:_ZN7Digikam11HSLSettingsD2Ev
libdigikamcore.so.7.3.0:_ZN7Digikam11IccSettings10setIccPathERK7QString
libdigikamcore.so.7.3.0:_ZN7Digikam11IccSettings11allProfilesEv
libdigikamcore.so.7.3.0:_ZN7Digikam11IccSettings11qt_metacallEN11QMetaObject4CallEiPPv
libdigikamcore.so.7.3.0:_ZN7Digikam11IccSettings11qt_metacastEPKc
libdigikamcore.so.7.3.0:_ZN7Digikam11IccSettings11setSettingsERKNS_20ICCSettingsContainerE
libdigikamcore.so.7.3.0:_ZN7Digikam11IccSettings13inputProfilesEv
libdigikamcore.so.7.3.0:_ZN7Digikam11IccSettings14monitorProfileEP7QWidget
libdigikamcore.so.7.3.0:_ZN7Digikam11IccSettings14outputProfilesEv
libdigikamcore.so.7.3.0:_ZN7Digikam11IccSettings14readFromConfigEv
libdigikamcore.so.7.3.0:_ZN7Digikam11IccSettings15displayProfilesEv
libdigikamcore.so.7.3.0:_ZN7Digikam11IccSettings16staticMetaObjectE
libdigikamcore.so.7.3.0:_ZN7Digikam11IccSettings17setUseManagedViewEb
libdigikamcore.so.7.3.0:_ZN7Digikam11IccSettings17workspaceProfilesEv
libdigikamcore.so.7.3.0:_ZN7Digikam11IccSettings21setUseManagedPreviewsEb
libdigikamcore.so.7.3.0:_ZN7Digikam11IccSettings21signalSettingsChangedEv
libdigikamcore.so.7.3.0:_ZN7Digikam11IccSettings22profilesForDescriptionERK7QString
libdigikamcore.so.7.3.0:_ZN7Digikam11IccSettings24signalICCSettingsChangedERKNS_20ICCSettingsContainerES3_
libdigikamcore.so.7.3.0:_ZN7Digikam11IccSettings25loadAllProfilesPropertiesEv
libdigikamcore.so.7.3.0:_ZN7Digikam11IccSettings8instanceEv
libdigikamcore.so.7.3.0:_ZN7Digikam11IccSettings8settingsEv
libdigikamcore.so.7.3.0:_ZN7Digikam11IccSettingsC1Ev
libdigikamcore.so.7.3.0:_ZN7Digikam11IccSettingsC2Ev
libdigikamcore.so.7.3.0:_ZN7Digikam11IccSettingsD0Ev
libdigikamcore.so.7.3.0:_ZN7Digikam11IccSettingsD1Ev
libdigikamcore.so.7.3.0:_ZN7Digikam11IccSettingsD2Ev
libdigikamcore.so.7.3.0:_ZN7Digikam11ImageCurves11curvesResetEv
libdigikamcore.so.7.3.0:_ZN7Digikam11ImageCurves12setContainerERKNS_15CurvesContainerE
libdigikamcore.so.7.3.0:_ZN7Digikam11ImageCurves12setCurveTypeENS0_9CurveTypeE
libdigikamcore.so.7.3.0:_ZN7Digikam11ImageCurves12setCurveTypeEiNS0_9CurveTypeE
libdigikamcore.so.7.3.0:_ZN7Digikam11ImageCurves13curvesLutFuncEiif
libdigikamcore.so.7.3.0:_ZN7Digikam11ImageCurves13setCurvePointEiiRK6QPoint
libdigikamcore.so.7.3.0:_ZN7Digikam11ImageCurves13setCurveValueEiii
libdigikamcore.so.7.3.0:_ZN7Digikam11ImageCurves14curvesLutSetupEi
libdigikamcore.so.7.3.0:_ZN7Digikam11ImageCurves14setCurvePointXEiii
libdigikamcore.so.7.3.0:_ZN7Digikam11ImageCurves14setCurvePointYEiii
libdigikamcore.so.7.3.0:_ZN7Digikam11ImageCurves14setCurvePointsEiRK8QPolygon
libdigikamcore.so.7.3.0:_ZN7Digikam11ImageCurves14setCurveValuesEiRK8QPolygon
libdigikamcore.so.7.3.0:_ZN7Digikam11ImageCurves15curvesCRComposeEPA4_dS2_S2_
libdigikamcore.so.7.3.0:_ZN7Digikam11ImageCurves15curvesPlotCurveEiiiii
libdigikamcore.so.7.3.0:_ZN7Digikam11ImageCurves15unsetCurvePointEii
libdigikamcore.so.7.3.0:_ZN7Digikam11ImageCurves16curvesLutProcessEPhS1_ii
libdigikamcore.so.7.3.0:_ZN7Digikam11ImageCurves16getDisabledValueEv
libdigikamcore.so.7.3.0:_ZN7Digikam11ImageCurves18curvesChannelResetEi
libdigikamcore.so.7.3.0:_ZN7Digikam11ImageCurves19fillFromOtherCurvesEPS0_
libdigikamcore.so.7.3.0:_ZN7Digikam11ImageCurves20curvesCalculateCurveEi
libdigikamcore.so.7.3.0:_ZN7Digikam11ImageCurves20setChannelFromBinaryEiRK10QByteArray
libdigikamcore.so.7.3.0:_ZN7Digikam11ImageCurves24curvesCalculateAllCurvesEv
libdigikamcore.so.7.3.0:_ZN7Digikam11ImageCurves28loadCurvesFromGimpCurvesFileERK4QUrl
libdigikamcore.so.7.3.0:_ZN7Digikam11ImageCurvesC1ERKNS_15CurvesContainerE
libdigikamcore.so.7.3.0:_ZN7Digikam11ImageCurvesC1ERKS0_
libdigikamcore.so.7.3.0:_ZN7Digikam11ImageCurvesC1Eb
libdigikamcore.so.7.3.0:_ZN7Digikam11ImageCurvesC2ERKNS_15CurvesContainerE
libdigikamcore.so.7.3.0:_ZN7Digikam11ImageCurvesC2ERKS0_
libdigikamcore.so.7.3.0:_ZN7Digikam11ImageCurvesC2Eb
libdigikamcore.so.7.3.0:_ZN7Digikam11ImageCurvesD1Ev
libdigikamcore.so.7.3.0:_ZN7Digikam11ImageCurvesD2Ev
libdigikamcore.so.7.3.0:_ZN7Digikam11ImageCurvesaSERKS0_
libdigikamcore.so.7.3.0:_ZN7Digikam11ImageDialog11getImageURLEP7QWidgetRK4QUrlRK7QString
libdigikamcore.so.7.3.0:_ZN7Digikam11ImageDialog12getImageURLsEP7QWidgetRK4QUrlRK7QString
libdigikamcore.so.7.3.0:_ZN7Digikam11ImageDialogC1EP7QWidgetRK4QUrlbRK7QString
libdigikamcore.so.7.3.0:_ZN7Digikam11ImageDialogC2EP7QWidgetRK4QUrlbRK7QString
libdigikamcore.so.7.3.0:_ZN7Digikam11ImageDialogD1Ev
libdigikamcore.so.7.3.0:_ZN7Digikam11ImageDialogD2Ev
libdigikamcore.so.7.3.0:_ZN7Digikam11ImageLevels10levelsAutoEPNS_14ImageHistogramE
libdigikamcore.so.7.3.0:_ZN7Digikam11ImageLevels13isSixteenBitsEv
libdigikamcore.so.7.3.0:_ZN7Digikam11ImageLevels13levelsLutFuncEiif
libdigikamcore.so.7.3.0:_ZN7Digikam11ImageLevels14levelsLutSetupEi
libdigikamcore.so.7.3.0:_ZN7Digikam11ImageLevels16levelsLutProcessEPhS1_ii
libdigikamcore.so.7.3.0:_ZN7Digikam11ImageLevels17levelsChannelAutoEPNS_14ImageHistogramEi
libdigikamcore.so.7.3.0:_ZN7Digikam11ImageLevels18getLevelGammaValueEi
libdigikamcore.so.7.3.0:_ZN7Digikam11ImageLevels18levelsChannelResetEi
libdigikamcore.so.7.3.0:_ZN7Digikam11ImageLevels18setLevelGammaValueEid
libdigikamcore.so.7.3.0:_ZN7Digikam11ImageLevels20levelsInputFromColorEiRKNS_6DColorE
libdigikamcore.so.7.3.0:_ZN7Digikam11ImageLevels21getLevelLowInputValueEi
libdigikamcore.so.7.3.0:_ZN7Digikam11ImageLevels21setLevelLowInputValueEii
libdigikamcore.so.7.3.0:_ZN7Digikam11ImageLevels22getLevelHighInputValueEi
libdigikamcore.so.7.3.0:_ZN7Digikam11ImageLevels22getLevelLowOutputValueEi
libdigikamcore.so.7.3.0:_ZN7Digikam11ImageLevels22setLevelHighInputValueEii
libdigikamcore.so.7.3.0:_ZN7Digikam11ImageLevels22setLevelLowOutputValueEii
libdigikamcore.so.7.3.0:_ZN7Digikam11ImageLevels23getLevelHighOutputValueEi
libdigikamcore.so.7.3.0:_ZN7Digikam11ImageLevels23setLevelHighOutputValueEii
libdigikamcore.so.7.3.0:_ZN7Digikam11ImageLevels24levelsCalculateTransfersEv
libdigikamcore.so.7.3.0:_ZN7Digikam11ImageLevels26saveLevelsToGimpLevelsFileERK4QUrl
libdigikamcore.so.7.3.0:_ZN7Digikam11ImageLevels28levelsGrayToneAdjustByColorsEiRKNS_6DColorE
libdigikamcore.so.7.3.0:_ZN7Digikam11ImageLevels28loadLevelsFromGimpLevelsFileERK4QUrl
libdigikamcore.so.7.3.0:_ZN7Digikam11ImageLevels29levelsBlackToneAdjustByColorsEiRKNS_6DColorE
libdigikamcore.so.7.3.0:_ZN7Digikam11ImageLevels29levelsWhiteToneAdjustByColorsEiRKNS_6DColorE
libdigikamcore.so.7.3.0:_ZN7Digikam11ImageLevels5resetEv
libdigikamcore.so.7.3.0:_ZN7Digikam11ImageLevels7isDirtyEv
libdigikamcore.so.7.3.0:_ZN7Digikam11ImageLevelsC1Eb
libdigikamcore.so.7.3.0:_ZN7Digikam11ImageLevelsC2Eb
libdigikamcore.so.7.3.0:_ZN7Digikam11ImageLevelsD1Ev
libdigikamcore.so.7.3.0:_ZN7Digikam11ImageLevelsD2Ev
libdigikamcore.so.7.3.0:_ZN7Digikam11KMemoryInfo11currentInfoEv
libdigikamcore.so.7.3.0:_ZN7Digikam11KMemoryInfo6updateEv
libdigikamcore.so.7.3.0:_ZN7Digikam11KMemoryInfoC1ERKS0_
libdigikamcore.so.7.3.0:_ZN7Digikam11KMemoryInfoC1Ev
libdigikamcore.so.7.3.0:_ZN7Digikam11KMemoryInfoC2ERKS0_
libdigikamcore.so.7.3.0:_ZN7Digikam11KMemoryInfoC2Ev
libdigikamcore.so.7.3.0:_ZN7Digikam11KMemoryInfoD1Ev
libdigikamcore.so.7.3.0:_ZN7Digikam11KMemoryInfoD2Ev
libdigikamcore.so.7.3.0:_ZN7Digikam11KMemoryInfoaSERKS0_
libdigikamcore.so.7.3.0:_ZN7Digikam11LibsInfoDlg11qt_metacallEN11QMetaObject4CallEiPPv
libdigikamcore.so.7.3.0:_ZN7Digikam11LibsInfoDlg11qt_metacastEPKc
libdigikamcore.so.7.3.0:_ZN7Digikam11LibsInfoDlg16staticMetaObjectE
libdigikamcore.so.7.3.0:_ZN7Digikam11LibsInfoDlgC1EP7QWidget
libdigikamcore.so.7.3.0:_ZN7Digikam11LibsInfoDlgC2EP7QWidget
libdigikamcore.so.7.3.0:_ZN7Digikam11LibsInfoDlgD0Ev
libdigikamcore.so.7.3.0:_ZN7Digikam11LibsInfoDlgD1Ev
libdigikamcore.so.7.3.0:_ZN7Digikam11LibsInfoDlgD2Ev
libdigikamcore.so.7.3.0:_ZN7Digikam11MapDragData11qt_metacallEN11QMetaObject4CallEiPPv
libdigikamcore.so.7.3.0:_ZN7Digikam11MapDragData11qt_metacastEPKc
libdigikamcore.so.7.3.0:_ZN7Digikam11MapDragData16staticMetaObjectE
libdigikamcore.so.7.3.0:_ZN7Digikam11MixerFilter11filterImageEv
libdigikamcore.so.7.3.0:_ZN7Digikam11MixerFilter11qt_metacallEN11QMetaObject4CallEiPPv
libdigikamcore.so.7.3.0:_ZN7Digikam11MixerFilter11qt_metacastEPKc
libdigikamcore.so.7.3.0:_ZN7Digikam11MixerFilter12filterActionEv
libdigikamcore.so.7.3.0:_ZN7Digikam11MixerFilter14readParametersERKNS_12FilterActionE
libdigikamcore.so.7.3.0:_ZN7Digikam11MixerFilter15DisplayableNameEv
libdigikamcore.so.7.3.0:_ZN7Digikam11MixerFilter16staticMetaObjectE
libdigikamcore.so.7.3.0:_ZN7Digikam11MixerFilterC1EP7QObject
libdigikamcore.so.7.3.0:_ZN7Digikam11MixerFilterC1EPNS_4DImgEP7QObjectRKNS_14MixerContainerE
libdigikamcore.so.7.3.0:_ZN7Digikam11MixerFilterC2EP7QObject
libdigikamcore.so.7.3.0:_ZN7Digikam11MixerFilterC2EPNS_4DImgEP7QObjectRKNS_14MixerContainerE
libdigikamcore.so.7.3.0:_ZN7Digikam11MixerFilterD0Ev
libdigikamcore.so.7.3.0:_ZN7Digikam11MixerFilterD1Ev
libdigikamcore.so.7.3.0:_ZN7Digikam11MixerFilterD2Ev
libdigikamcore.so.7.3.0:_ZN7Digikam11NRContainerC1Ev
libdigikamcore.so.7.3.0:_ZN7Digikam11NRContainerC2Ev
libdigikamcore.so.7.3.0:_ZN7Digikam11NRContainerD1Ev
libdigikamcore.so.7.3.0:_ZN7Digikam11NRContainerD2Ev
libdigikamcore.so.7.3.0:_ZN7Digikam11PGFSettings11qt_metacallEN11QMetaObject4CallEiPPv
libdigikamcore.so.7.3.0:_ZN7Digikam11PGFSettings11qt_metacastEPKc
libdigikamcore.so.7.3.0:_ZN7Digikam11PGFSettings16staticMetaObjectE
libdigikamcore.so.7.3.0:_ZN7Digikam11PGFSettings19setCompressionValueEi
libdigikamcore.so.7.3.0:_ZN7Digikam11PGFSettings21signalSettingsChangedEv
libdigikamcore.so.7.3.0:_ZN7Digikam11PGFSettings21slotTogglePGFLossLessEb
libdigikamcore.so.7.3.0:_ZN7Digikam11PGFSettings22setLossLessCompressionEb
libdigikamcore.so.7.3.0:_ZN7Digikam11PGFSettingsC1EP7QWidget
libdigikamcore.so.7.3.0:_ZN7Digikam11PGFSettingsC2EP7QWidget
libdigikamcore.so.7.3.0:_ZN7Digikam11PGFSettingsD0Ev
libdigikamcore.so.7.3.0:_ZN7Digikam11PGFSettingsD1Ev
libdigikamcore.so.7.3.0:_ZN7Digikam11PGFSettingsD2Ev
libdigikamcore.so.7.3.0:_ZN7Digikam11PNGSettings11qt_metacallEN11QMetaObject4CallEiPPv
libdigikamcore.so.7.3.0:_ZN7Digikam11PNGSettings11qt_metacastEPKc
libdigikamcore.so.7.3.0:_ZN7Digikam11PNGSettings16staticMetaObjectE
libdigikamcore.so.7.3.0:_ZN7Digikam11PNGSettings19setCompressionValueEi
libdigikamcore.so.7.3.0:_ZN7Digikam11PNGSettings21signalSettingsChangedEv
libdigikamcore.so.7.3.0:_ZN7Digikam11PNGSettings27convertCompressionForLibPngEi
libdigikamcore.so.7.3.0:_ZN7Digikam11PNGSettingsC1EP7QWidget
libdigikamcore.so.7.3.0:_ZN7Digikam11PNGSettingsC2EP7QWidget
libdigikamcore.so.7.3.0:_ZN7Digikam11PNGSettingsD0Ev
libdigikamcore.so.7.3.0:_ZN7Digikam11PNGSettingsD1Ev
libdigikamcore.so.7.3.0:_ZN7Digikam11PNGSettingsD2Ev
libdigikamcore.so.7.3.0:_ZN7Digikam11PreviewList11qt_metacallEN11QMetaObject4CallEiPPv
libdigikamcore.so.7.3.0:_ZN7Digikam11PreviewList11qt_metacastEPKc
libdigikamcore.so.7.3.0:_ZN7Digikam11PreviewList11stopFiltersEv
libdigikamcore.so.7.3.0:_ZN7Digikam11PreviewList12setCurrentIdEi
libdigikamcore.so.7.3.0:_ZN7Digikam11PreviewList12startFiltersEv
libdigikamcore.so.7.3.0:_ZN7Digikam11PreviewList16staticMetaObjectE
libdigikamcore.so.7.3.0:_ZN7Digikam11PreviewList17slotFilterStartedEi
libdigikamcore.so.7.3.0:_ZN7Digikam11PreviewList18slotFilterFinishedEiRK7QPixmap
libdigikamcore.so.7.3.0:_ZN7Digikam11PreviewList21slotProgressTimerDoneEv
libdigikamcore.so.7.3.0:_ZN7Digikam11PreviewList7addItemEPNS_18DImgThreadedFilterERK7QStringi
libdigikamcore.so.7.3.0:_ZN7Digikam11PreviewListC1EP7QWidget
libdigikamcore.so.7.3.0:_ZN7Digikam11PreviewListC2EP7QWidget
libdigikamcore.so.7.3.0:_ZN7Digikam11PreviewListD0Ev
libdigikamcore.so.7.3.0:_ZN7Digikam11PreviewListD1Ev
libdigikamcore.so.7.3.0:_ZN7Digikam11PreviewListD2Ev
libdigikamcore.so.7.3.0:_ZN7Digikam11ShearFilter11filterImageEv
libdigikamcore.so.7.3.0:_ZN7Digikam11ShearFilter11qt_metacallEN11QMetaObject4CallEiPPv
libdigikamcore.so.7.3.0:_ZN7Digikam11ShearFilter11qt_metacastEPKc
libdigikamcore.so.7.3.0:_ZN7Digikam11ShearFilter12filterActionEv
libdigikamcore.so.7.3.0:_ZN7Digikam11ShearFilter14readParametersERKNS_12FilterActionE
libdigikamcore.so.7.3.0:_ZN7Digikam11ShearFilter15DisplayableNameEv
libdigikamcore.so.7.3.0:_ZN7Digikam11ShearFilter16staticMetaObjectE
libdigikamcore.so.7.3.0:_ZN7Digikam11ShearFilterC1EP7QObject
libdigikamcore.so.7.3.0:_ZN7Digikam11ShearFilterC1EPNS_4DImgEP7QObjectffbRK6QColorii
libdigikamcore.so.7.3.0:_ZN7Digikam11ShearFilterC2EP7QObject
libdigikamcore.so.7.3.0:_ZN7Digikam11ShearFilterC2EPNS_4DImgEP7QObjectffbRK6QColorii
libdigikamcore.so.7.3.0:_ZN7Digikam11ShearFilterD0Ev
libdigikamcore.so.7.3.0:_ZN7Digikam11ShearFilterD1Ev
libdigikamcore.so.7.3.0:_ZN7Digikam11ShearFilterD2Ev
libdigikamcore.so.7.3.0:_ZN7Digikam11TileGrouper11qt_metacallEN11QMetaObject4CallEiPPv
libdigikamcore.so.7.3.0:_ZN7Digikam11TileGrouper11qt_metacastEPKc
libdigikamcore.so.7.3.0:_ZN7Digikam11TileGrouper14updateClustersEv
libdigikamcore.so.7.3.0:_ZN7Digikam11TileGrouper16setClustersDirtyEv
libdigikamcore.so.7.3.0:_ZN7Digikam11TileGrouper16staticMetaObjectE
libdigikamcore.so.7.3.0:_ZN7Digikam11TileGrouper17setCurrentBackendEPNS_10MapBackendE
libdigikamcore.so.7.3.0:_ZN7Digikam11TileGrouper19currentBackendReadyEv
libdigikamcore.so.7.3.0:_ZN7Digikam11TileGrouperC1ERK28QExplicitlySharedDataPointerINS_18GeoIfaceSharedDataEEP7QObject
libdigikamcore.so.7.3.0:_ZN7Digikam11TileGrouperC2ERK28QExplicitlySharedDataPointerINS_18GeoIfaceSharedDataEEP7QObject
libdigikamcore.so.7.3.0:_ZN7Digikam11TileGrouperD0Ev
libdigikamcore.so.7.3.0:_ZN7Digikam11TileGrouperD1Ev
libdigikamcore.so.7.3.0:_ZN7Digikam11TileGrouperD2Ev
libdigikamcore.so.7.3.0:_ZN7Digikam11TrackReader10charactersERK7QString
libdigikamcore.so.7.3.0:_ZN7Digikam11TrackReader10endElementERK7QStringS3_S3_
libdigikamcore.so.7.3.0:_ZN7Digikam11TrackReader12startElementERK7QStringS3_S3_RK14QXmlAttributes
libdigikamcore.so.7.3.0:_ZN7Digikam11TrackReader13loadTrackFileERK4QUrl
libdigikamcore.so.7.3.0:_ZN7Digikam11TrackReader18rebuildElementPathEv
libdigikamcore.so.7.3.0:_ZN7Digikam11TrackReader7myQNameERK7QStringS3_
libdigikamcore.so.7.3.0:_ZN7Digikam11TrackReader9ParseTimeE7QString
libdigikamcore.so.7.3.0:_ZN7Digikam11TrackReaderC1EPNS0_15TrackReadResultE
libdigikamcore.so.7.3.0:_ZN7Digikam11TrackReaderC2EPNS0_15TrackReadResultE
libdigikamcore.so.7.3.0:_ZN7Digikam11TrackReaderD0Ev
libdigikamcore.so.7.3.0:_ZN7Digikam11TrackReaderD1Ev
libdigikamcore.so.7.3.0:_ZN7Digikam11TrackReaderD2Ev
libdigikamcore.so.7.3.0:_ZN7Digikam11UndoManager12makeSnapshotEi
libdigikamcore.so.7.3.0:_ZN7Digikam11UndoManager15restoreSnapshotEiRKNS_21UndoMetadataContainerE
libdigikamcore.so.7.3.0:_ZN7Digikam11UndoManager16clearRedoActionsEv
libdigikamcore.so.7.3.0:_ZN7Digikam11UndoManager16clearUndoActionsEv
libdigikamcore.so.7.3.0:_ZN7Digikam11UndoManager16rollbackToOriginEv
libdigikamcore.so.7.3.0:_ZN7Digikam11UndoManager23clearPreviousOriginDataEv
libdigikamcore.so.7.3.0:_ZN7Digikam11UndoManager4redoEv
libdigikamcore.so.7.3.0:_ZN7Digikam11UndoManager4undoEv
libdigikamcore.so.7.3.0:_ZN7Digikam11UndoManager5clearEb
libdigikamcore.so.7.3.0:_ZN7Digikam11UndoManager8redoStepEbb
libdigikamcore.so.7.3.0:_ZN7Digikam11UndoManager8undoStepEbbb
libdigikamcore.so.7.3.0:_ZN7Digikam11UndoManager9addActionEPNS_10UndoActionE
libdigikamcore.so.7.3.0:_ZN7Digikam11UndoManagerC1EPNS_10EditorCoreE
libdigikamcore.so.7.3.0:_ZN7Digikam11UndoManagerC2EPNS_10EditorCoreE
libdigikamcore.so.7.3.0:_ZN7Digikam11UndoManagerD1Ev
libdigikamcore.so.7.3.0:_ZN7Digikam11UndoManagerD2Ev
libdigikamcore.so.7.3.0:_ZN7Digikam11WBContainer16fromFilterActionERKNS_12FilterActionERK7QString
libdigikamcore.so.7.3.0:_ZN7Digikam11WBContainerC1Ev
libdigikamcore.so.7.3.0:_ZN7Digikam11WBContainerC2Ev
libdigikamcore.so.7.3.0:_ZN7Digikam11WSToolUtils12randomStringERKi
libdigikamcore.so.7.3.0:_ZN7Digikam11WSToolUtils16getOauthSettingsEP7QObject
libdigikamcore.so.7.3.0:_ZN7Digikam11WSToolUtils16makeTemporaryDirEPKc
libdigikamcore.so.7.3.0:_ZN7Digikam11WSToolUtils18removeTemporaryDirEPKc
libdigikamcore.so.7.3.0:_ZN7Digikam12AkonadiIface11qt_metacallEN11QMetaObject4CallEiPPv
libdigikamcore.so.7.3.0:_ZN7Digikam12AkonadiIface11qt_metacastEPKc
libdigikamcore.so.7.3.0:_ZN7Digikam12AkonadiIface16staticMetaObjectE
libdigikamcore.so.7.3.0:_ZN7Digikam12AkonadiIface19slotABCSearchResultEP4KJob
libdigikamcore.so.7.3.0:_ZN7Digikam12AkonadiIface20slotABCMenuTriggeredEP7QAction
libdigikamcore.so.7.3.0:_ZN7Digikam12AkonadiIface22signalContactTriggeredERK7QString
libdigikamcore.so.7.3.0:_ZN7Digikam12AkonadiIfaceC1EP5QMenu
libdigikamcore.so.7.3.0:_ZN7Digikam12AkonadiIfaceC2EP5QMenu
libdigikamcore.so.7.3.0:_ZN7Digikam12AkonadiIfaceD0Ev
libdigikamcore.so.7.3.0:_ZN7Digikam12AkonadiIfaceD1Ev
libdigikamcore.so.7.3.0:_ZN7Digikam12AkonadiIfaceD2Ev
libdigikamcore.so.7.3.0:_ZN7Digikam12BCGContainer16fromFilterActionERKNS_12FilterActionERK7QString
libdigikamcore.so.7.3.0:_ZN7Digikam12BCGContainerC1Ev
libdigikamcore.so.7.3.0:_ZN7Digikam12BCGContainerC2Ev
libdigikamcore.so.7.3.0:_ZN7Digikam12BackendOsmRG11backendNameEv
libdigikamcore.so.7.3.0:_ZN7Digikam12BackendOsmRG11qt_metacallEN11QMetaObject4CallEiPPv
libdigikamcore.so.7.3.0:_ZN7Digikam12BackendOsmRG11qt_metacastEPKc
libdigikamcore.so.7.3.0:_ZN7Digikam12BackendOsmRG12slotFinishedEP13QNetworkReply
libdigikamcore.so.7.3.0:_ZN7Digikam12BackendOsmRG13callRGBackendERK5QListINS_6RGInfoEERK7QString
libdigikamcore.so.7.3.0:_ZN7Digikam12BackendOsmRG14cancelRequestsEv
libdigikamcore.so.7.3.0:_ZN7Digikam12BackendOsmRG15getErrorMessageEv
libdigikamcore.so.7.3.0:_ZN7Digikam12BackendOsmRG15makeQMapFromXMLERK7QString
libdigikamcore.so.7.3.0:_ZN7Digikam12BackendOsmRG16staticMetaObjectE
libdigikamcore.so.7.3.0:_ZN7Digikam12BackendOsmRG9nextPhotoEv
libdigikamcore.so.7.3.0:_ZN7Digikam12BackendOsmRGC1EP7QObject
libdigikamcore.so.7.3.0:_ZN7Digikam12BackendOsmRGC2EP7QObject
libdigikamcore.so.7.3.0:_ZN7Digikam12BackendOsmRGD0Ev
libdigikamcore.so.7.3.0:_ZN7Digikam12BackendOsmRGD1Ev
libdigikamcore.so.7.3.0:_ZN7Digikam12BackendOsmRGD2Ev
libdigikamcore.so.7.3.0:_ZN7Digikam12BlurFXFilter10frostGlassEPNS_4DImgES2_i
libdigikamcore.so.7.3.0:_ZN7Digikam12BlurFXFilter10motionBlurEPNS_4DImgES2_id
libdigikamcore.so.7.3.0:_ZN7Digikam12BlurFXFilter10radialBlurEPNS_4DImgES2_iiiRK5QRect
libdigikamcore.so.7.3.0:_ZN7Digikam12BlurFXFilter11RandomColorEPhiibiiiiiRNS_21RandomNumberGeneratorEiS1_PjS4_S4_
libdigikamcore.so.7.3.0:_ZN7Digikam12BlurFXFilter11filterImageEv
libdigikamcore.so.7.3.0:_ZN7Digikam12BlurFXFilter11qt_metacallEN11QMetaObject4CallEiPPv
libdigikamcore.so.7.3.0:_ZN7Digikam12BlurFXFilter11qt_metacastEPKc
libdigikamcore.so.7.3.0:_ZN7Digikam12BlurFXFilter12filterActionEv
libdigikamcore.so.7.3.0:_ZN7Digikam12BlurFXFilter12softenerBlurEPNS_4DImgES2_
libdigikamcore.so.7.3.0:_ZN7Digikam12BlurFXFilter14readParametersERKNS_12FilterActionE
libdigikamcore.so.7.3.0:_ZN7Digikam12BlurFXFilter15DisplayableNameEv
libdigikamcore.so.7.3.0:_ZN7Digikam12BlurFXFilter15MakeConvolutionEPNS_4DImgES2_iPi
libdigikamcore.so.7.3.0:_ZN7Digikam12BlurFXFilter16staticMetaObjectE
libdigikamcore.so.7.3.0:_ZN7Digikam12BlurFXFilter19mosaicMultithreadedERKNS0_4ArgsE
libdigikamcore.so.7.3.0:_ZN7Digikam12BlurFXFilter21zoomBlurMultithreadedERKNS0_4ArgsE
libdigikamcore.so.7.3.0:_ZN7Digikam12BlurFXFilter22focusBlurMultithreadedERKNS0_4ArgsE
libdigikamcore.so.7.3.0:_ZN7Digikam12BlurFXFilter23motionBlurMultithreadedERKNS0_4ArgsE
libdigikamcore.so.7.3.0:_ZN7Digikam12BlurFXFilter23radialBlurMultithreadedERKNS0_4ArgsE
libdigikamcore.so.7.3.0:_ZN7Digikam12BlurFXFilter25softenerBlurMultithreadedERKNS0_4ArgsE
libdigikamcore.so.7.3.0:_ZN7Digikam12BlurFXFilter28shakeBlurStage1MultithreadedERKNS0_4ArgsE
libdigikamcore.so.7.3.0:_ZN7Digikam12BlurFXFilter28shakeBlurStage2MultithreadedERKNS0_4ArgsE
libdigikamcore.so.7.3.0:_ZN7Digikam12BlurFXFilter28smartBlurStage1MultithreadedERKNS0_4ArgsE
libdigikamcore.so.7.3.0:_ZN7Digikam12BlurFXFilter28smartBlurStage2MultithreadedERKNS0_4ArgsE
libdigikamcore.so.7.3.0:_ZN7Digikam12BlurFXFilter34MakeConvolutionStage1MultithreadedERKNS0_4ArgsE
libdigikamcore.so.7.3.0:_ZN7Digikam12BlurFXFilter34MakeConvolutionStage2MultithreadedERKNS0_4ArgsE
libdigikamcore.so.7.3.0:_ZN7Digikam12BlurFXFilter6mosaicEPNS_4DImgES2_ii
libdigikamcore.so.7.3.0:_ZN7Digikam12BlurFXFilter7farBlurEPNS_4DImgES2_i
libdigikamcore.so.7.3.0:_ZN7Digikam12BlurFXFilter8zoomBlurEPNS_4DImgES2_iiiRK5QRect
libdigikamcore.so.7.3.0:_ZN7Digikam12BlurFXFilter9focusBlurEPNS_4DImgES2_iiiibRK5QRect
libdigikamcore.so.7.3.0:_ZN7Digikam12BlurFXFilter9shakeBlurEPNS_4DImgES2_i
libdigikamcore.so.7.3.0:_ZN7Digikam12BlurFXFilter9smartBlurEPNS_4DImgES2_ii
libdigikamcore.so.7.3.0:_ZN7Digikam12BlurFXFilterC1EP7QObject
libdigikamcore.so.7.3.0:_ZN7Digikam12BlurFXFilterC1EPNS_4DImgEP7QObjectiii
libdigikamcore.so.7.3.0:_ZN7Digikam12BlurFXFilterC2EP7QObject
libdigikamcore.so.7.3.0:_ZN7Digikam12BlurFXFilterC2EPNS_4DImgEP7QObjectiii
libdigikamcore.so.7.3.0:_ZN7Digikam12BlurFXFilterD0Ev
libdigikamcore.so.7.3.0:_ZN7Digikam12BlurFXFilterD1Ev
libdigikamcore.so.7.3.0:_ZN7Digikam12BlurFXFilterD2Ev
libdigikamcore.so.7.3.0:_ZN7Digikam12BorderFilter11filterImageEv
libdigikamcore.so.7.3.0:_ZN7Digikam12BorderFilter11qt_metacallEN11QMetaObject4CallEiPPv
libdigikamcore.so.7.3.0:_ZN7Digikam12BorderFilter11qt_metacastEPKc
libdigikamcore.so.7.3.0:_ZN7Digikam12BorderFilter12filterActionEv
libdigikamcore.so.7.3.0:_ZN7Digikam12BorderFilter14readParametersERKNS_12FilterActionE
libdigikamcore.so.7.3.0:_ZN7Digikam12BorderFilter15DisplayableNameEv
libdigikamcore.so.7.3.0:_ZN7Digikam12BorderFilter16staticMetaObjectE
libdigikamcore.so.7.3.0:_ZN7Digikam12BorderFilter5bevelERNS_4DImgES2_RKNS_6DColorES5_i
libdigikamcore.so.7.3.0:_ZN7Digikam12BorderFilter5solidERNS_4DImgES2_RKNS_6DColorEi
libdigikamcore.so.7.3.0:_ZN7Digikam12BorderFilter6bevel2ERNS_4DImgES2_RKNS_6DColorES5_i
libdigikamcore.so.7.3.0:_ZN7Digikam12BorderFilter6niepceERNS_4DImgES2_RKNS_6DColorEiS5_i
libdigikamcore.so.7.3.0:_ZN7Digikam12BorderFilter6solid2ERNS_4DImgES2_RKNS_6DColorEi
libdigikamcore.so.7.3.0:_ZN7Digikam12BorderFilter7niepce2ERNS_4DImgES2_RKNS_6DColorEiS5_i
libdigikamcore.so.7.3.0:_ZN7Digikam12BorderFilter7patternERNS_4DImgES2_iRKNS_6DColorES5_ii
libdigikamcore.so.7.3.0:_ZN7Digikam12BorderFilter8pattern2ERNS_4DImgES2_iRKNS_6DColorES5_ii
libdigikamcore.so.7.3.0:_ZN7Digikam12BorderFilterC1EP7QObject
libdigikamcore.so.7.3.0:_ZN7Digikam12BorderFilterC1EPNS_4DImgEP7QObjectRKNS_15BorderContainerE
libdigikamcore.so.7.3.0:_ZN7Digikam12BorderFilterC2EP7QObject
libdigikamcore.so.7.3.0:_ZN7Digikam12BorderFilterC2EPNS_4DImgEP7QObjectRKNS_15BorderContainerE
libdigikamcore.so.7.3.0:_ZN7Digikam12BorderFilterD0Ev
libdigikamcore.so.7.3.0:_ZN7Digikam12BorderFilterD1Ev
libdigikamcore.so.7.3.0:_ZN7Digikam12BorderFilterD2Ev
libdigikamcore.so.7.3.0:_ZN7Digikam12CurvesFilter11filterImageEv
libdigikamcore.so.7.3.0:_ZN7Digikam12CurvesFilter11qt_metacallEN11QMetaObject4CallEiPPv
libdigikamcore.so.7.3.0:_ZN7Digikam12CurvesFilter11qt_metacastEPKc
libdigikamcore.so.7.3.0:_ZN7Digikam12CurvesFilter12filterActionEv
libdigikamcore.so.7.3.0:_ZN7Digikam12CurvesFilter14readParametersERKNS_12FilterActionE
libdigikamcore.so.7.3.0:_ZN7Digikam12CurvesFilter15DisplayableNameEv
libdigikamcore.so.7.3.0:_ZN7Digikam12CurvesFilter16staticMetaObjectE
libdigikamcore.so.7.3.0:_ZN7Digikam12CurvesFilterC1EP7QObject
libdigikamcore.so.7.3.0:_ZN7Digikam12CurvesFilterC1EPNS_4DImgEP7QObjectRKNS_15CurvesContainerE
libdigikamcore.so.7.3.0:_ZN7Digikam12CurvesFilterC1ERKNS_15CurvesContainerEPNS_18DImgThreadedFilterERKNS_4DImgERS6_ii
libdigikamcore.so.7.3.0:_ZN7Digikam12CurvesFilterC2EP7QObject
libdigikamcore.so.7.3.0:_ZN7Digikam12CurvesFilterC2EPNS_4DImgEP7QObjectRKNS_15CurvesContainerE
libdigikamcore.so.7.3.0:_ZN7Digikam12CurvesFilterC2ERKNS_15CurvesContainerEPNS_18DImgThreadedFilterERKNS_4DImgERS6_ii
libdigikamcore.so.7.3.0:_ZN7Digikam12CurvesFilterD0Ev
libdigikamcore.so.7.3.0:_ZN7Digikam12CurvesFilterD1Ev
libdigikamcore.so.7.3.0:_ZN7Digikam12CurvesFilterD2Ev
libdigikamcore.so.7.3.0:_ZN7Digikam12CurvesWidget10leaveEventEP6QEvent
libdigikamcore.so.7.3.0:_ZN7Digikam12CurvesWidget10paintEventEP11QPaintEvent
libdigikamcore.so.7.3.0:_ZN7Digikam12CurvesWidget10updateDataERKNS_4DImgE
libdigikamcore.so.7.3.0:_ZN7Digikam12CurvesWidget11qt_metacallEN11QMetaObject4CallEiPPv
libdigikamcore.so.7.3.0:_ZN7Digikam12CurvesWidget11qt_metacastEPKc
libdigikamcore.so.7.3.0:_ZN7Digikam12CurvesWidget12restoreCurveER12KConfigGroupRK7QString
libdigikamcore.so.7.3.0:_ZN7Digikam12CurvesWidget12setScaleTypeENS_14HistogramScaleE
libdigikamcore.so.7.3.0:_ZN7Digikam12CurvesWidget13setCurveGuideERKNS_6DColorE
libdigikamcore.so.7.3.0:_ZN7Digikam12CurvesWidget14mouseMoveEventEP11QMouseEvent
libdigikamcore.so.7.3.0:_ZN7Digikam12CurvesWidget14setChannelTypeENS_11ChannelTypeE
libdigikamcore.so.7.3.0:_ZN7Digikam12CurvesWidget14setDataLoadingEv
libdigikamcore.so.7.3.0:_ZN7Digikam12CurvesWidget15mousePressEventEP11QMouseEvent
libdigikamcore.so.7.3.0:_ZN7Digikam12CurvesWidget16curveTypeChangedEv
libdigikamcore.so.7.3.0:_ZN7Digikam12CurvesWidget16setLoadingFailedEv
libdigikamcore.so.7.3.0:_ZN7Digikam12CurvesWidget16signalMouseMovedEii
libdigikamcore.so.7.3.0:_ZN7Digikam12CurvesWidget16staticMetaObjectE
libdigikamcore.so.7.3.0:_ZN7Digikam12CurvesWidget17mouseReleaseEventEP11QMouseEvent
libdigikamcore.so.7.3.0:_ZN7Digikam12CurvesWidget19signalCurvesChangedEv
libdigikamcore.so.7.3.0:_ZN7Digikam12CurvesWidget21slotProgressTimerDoneEv
libdigikamcore.so.7.3.0:_ZN7Digikam12CurvesWidget22slotCalculationStartedEv
libdigikamcore.so.7.3.0:_ZN7Digikam12CurvesWidget23slotCalculationFinishedEb
libdigikamcore.so.7.3.0:_ZN7Digikam12CurvesWidget24stopHistogramComputationEv
libdigikamcore.so.7.3.0:_ZN7Digikam12CurvesWidget30signalHistogramComputationDoneEv
libdigikamcore.so.7.3.0:_ZN7Digikam12CurvesWidget32signalHistogramComputationFailedEv
libdigikamcore.so.7.3.0:_ZN7Digikam12CurvesWidget5resetEv
libdigikamcore.so.7.3.0:_ZN7Digikam12CurvesWidget5setupEiib
libdigikamcore.so.7.3.0:_ZN7Digikam12CurvesWidget7resetUIEv
libdigikamcore.so.7.3.0:_ZN7Digikam12CurvesWidget9saveCurveER12KConfigGroupRK7QString
libdigikamcore.so.7.3.0:_ZN7Digikam12CurvesWidgetC1EiiP7QWidgetb
libdigikamcore.so.7.3.0:_ZN7Digikam12CurvesWidgetC2EiiP7QWidgetb
libdigikamcore.so.7.3.0:_ZN7Digikam12CurvesWidgetD0Ev
libdigikamcore.so.7.3.0:_ZN7Digikam12CurvesWidgetD1Ev
libdigikamcore.so.7.3.0:_ZN7Digikam12CurvesWidgetD2Ev
libdigikamcore.so.7.3.0:_ZN7Digikam12DActiveLabel10updateDataERK4QUrlRK6QImage
libdigikamcore.so.7.3.0:_ZN7Digikam12DActiveLabel11qt_metacallEN11QMetaObject4CallEiPPv
libdigikamcore.so.7.3.0:_ZN7Digikam12DActiveLabel11qt_metacastEPKc
libdigikamcore.so.7.3.0:_ZN7Digikam12DActiveLabel16staticMetaObjectE
libdigikamcore.so.7.3.0:_ZN7Digikam12DActiveLabelC1ERK4QUrlRK7QStringP7QWidget
libdigikamcore.so.7.3.0:_ZN7Digikam12DActiveLabelC2ERK4QUrlRK7QStringP7QWidget
libdigikamcore.so.7.3.0:_ZN7Digikam12DActiveLabelD0Ev
libdigikamcore.so.7.3.0:_ZN7Digikam12DActiveLabelD1Ev
libdigikamcore.so.7.3.0:_ZN7Digikam12DActiveLabelD2Ev
libdigikamcore.so.7.3.0:_ZN7Digikam12DBinaryIface10readConfigEv
libdigikamcore.so.7.3.0:_ZN7Digikam12DBinaryIface10setVersionER7QString
libdigikamcore.so.7.3.0:_ZN7Digikam12DBinaryIface11parseHeaderERK7QString
libdigikamcore.so.7.3.0:_ZN7Digikam12DBinaryIface11qt_metacallEN11QMetaObject4CallEiPPv
libdigikamcore.so.7.3.0:_ZN7Digikam12DBinaryIface11qt_metacastEPKc
libdigikamcore.so.7.3.0:_ZN7Digikam12DBinaryIface11writeConfigEv
libdigikamcore.so.7.3.0:_ZN7Digikam12DBinaryIface12goodBaseNameERK7QString
libdigikamcore.so.7.3.0:_ZN7Digikam12DBinaryIface15checkDirForPathERK7QString
libdigikamcore.so.7.3.0:_ZN7Digikam12DBinaryIface16staticMetaObjectE
libdigikamcore.so.7.3.0:_ZN7Digikam12DBinaryIface17signalBinaryValidEv
libdigikamcore.so.7.3.0:_ZN7Digikam12DBinaryIface18recheckDirectoriesEv
libdigikamcore.so.7.3.0:_ZN7Digikam12DBinaryIface20slotNavigateAndCheckEv
libdigikamcore.so.7.3.0:_ZN7Digikam12DBinaryIface22slotAddSearchDirectoryERK7QString
libdigikamcore.so.7.3.0:_ZN7Digikam12DBinaryIface26signalSearchDirectoryAddedERK7QString
libdigikamcore.so.7.3.0:_ZN7Digikam12DBinaryIface30slotAddPossibleSearchDirectoryERK7QString
libdigikamcore.so.7.3.0:_ZN7Digikam12DBinaryIface5setupERK7QString
libdigikamcore.so.7.3.0:_ZN7Digikam12DBinaryIfaceC1ERK7QStringS3_S3_S3_RK11QStringListS3_
libdigikamcore.so.7.3.0:_ZN7Digikam12DBinaryIfaceC1ERK7QStringS3_S3_iS3_S3_S3_RK11QStringListS3_
libdigikamcore.so.7.3.0:_ZN7Digikam12DBinaryIfaceC2ERK7QStringS3_S3_S3_RK11QStringListS3_
libdigikamcore.so.7.3.0:_ZN7Digikam12DBinaryIfaceC2ERK7QStringS3_S3_iS3_S3_S3_RK11QStringListS3_
libdigikamcore.so.7.3.0:_ZN7Digikam12DBinaryIfaceD0Ev
libdigikamcore.so.7.3.0:_ZN7Digikam12DBinaryIfaceD1Ev
libdigikamcore.so.7.3.0:_ZN7Digikam12DBinaryIfaceD2Ev
libdigikamcore.so.7.3.0:_ZN7Digikam12DExpanderBox10addStretchEv
libdigikamcore.so.7.3.0:_ZN7Digikam12DExpanderBox10insertItemEiP7QWidgetRK5QIconRK7QStringS8_b
libdigikamcore.so.7.3.0:_ZN7Digikam12DExpanderBox10insertItemEiP7QWidgetRK7QStringS5_b
libdigikamcore.so.7.3.0:_ZN7Digikam12DExpanderBox10removeItemEi
libdigikamcore.so.7.3.0:_ZN7Digikam12DExpanderBox10setCheckedEib
libdigikamcore.so.7.3.0:_ZN7Digikam12DExpanderBox11qt_metacallEN11QMetaObject4CallEiPPv
libdigikamcore.so.7.3.0:_ZN7Digikam12DExpanderBox11qt_metacastEPKc
libdigikamcore.so.7.3.0:_ZN7Digikam12DExpanderBox11setItemIconEiRK5QIcon
libdigikamcore.so.7.3.0:_ZN7Digikam12DExpanderBox11setItemTextEiRK7QString
libdigikamcore.so.7.3.0:_ZN7Digikam12DExpanderBox12readSettingsER12KConfigGroup
libdigikamcore.so.7.3.0:_ZN7Digikam12DExpanderBox13insertStretchEi
libdigikamcore.so.7.3.0:_ZN7Digikam12DExpanderBox13writeSettingsER12KConfigGroup
libdigikamcore.so.7.3.0:_ZN7Digikam12DExpanderBox14setItemEnabledEib
libdigikamcore.so.7.3.0:_ZN7Digikam12DExpanderBox14setItemToolTipEiRK7QString
libdigikamcore.so.7.3.0:_ZN7Digikam12DExpanderBox15setItemExpandedEib
libdigikamcore.so.7.3.0:_ZN7Digikam12DExpanderBox15slotItemToggledEb
libdigikamcore.so.7.3.0:_ZN7Digikam12DExpanderBox16slotItemExpandedEb
libdigikamcore.so.7.3.0:_ZN7Digikam12DExpanderBox16staticMetaObjectE
libdigikamcore.so.7.3.0:_ZN7Digikam12DExpanderBox17signalItemToggledEib
libdigikamcore.so.7.3.0:_ZN7Digikam12DExpanderBox18setCheckBoxVisibleEib
libdigikamcore.so.7.3.0:_ZN7Digikam12DExpanderBox18signalItemExpandedEib
libdigikamcore.so.7.3.0:_ZN7Digikam12DExpanderBox7addItemEP7QWidgetRK5QIconRK7QStringS8_b
libdigikamcore.so.7.3.0:_ZN7Digikam12DExpanderBox7addItemEP7QWidgetRK7QStringS5_b
libdigikamcore.so.7.3.0:_ZN7Digikam12DExpanderBoxC1EP7QWidget
libdigikamcore.so.7.3.0:_ZN7Digikam12DExpanderBoxC2EP7QWidget
libdigikamcore.so.7.3.0:_ZN7Digikam12DExpanderBoxD0Ev
libdigikamcore.so.7.3.0:_ZN7Digikam12DExpanderBoxD1Ev
libdigikamcore.so.7.3.0:_ZN7Digikam12DExpanderBoxD2Ev
libdigikamcore.so.7.3.0:_ZN7Digikam12DHistoryView11qt_metacallEN11QMetaObject4CallEiPPv
libdigikamcore.so.7.3.0:_ZN7Digikam12DHistoryView11qt_metacastEPKc
libdigikamcore.so.7.3.0:_ZN7Digikam12DHistoryView14mouseMoveEventEP11QMouseEvent
libdigikamcore.so.7.3.0:_ZN7Digikam12DHistoryView15slotContextMenuEv
libdigikamcore.so.7.3.0:_ZN7Digikam12DHistoryView16staticMetaObjectE
libdigikamcore.so.7.3.0:_ZN7Digikam12DHistoryView18signalEntryClickedERK8QVariant
libdigikamcore.so.7.3.0:_ZN7Digikam12DHistoryView18slotCopy2ClipBoardEv
libdigikamcore.so.7.3.0:_ZN7Digikam12DHistoryView21slotItemDoubleClickedEP15QTreeWidgetItem
libdigikamcore.so.7.3.0:_ZN7Digikam12DHistoryView8addEntryERK7QStringNS0_9EntryTypeERK8QVariant
libdigikamcore.so.7.3.0:_ZN7Digikam12DHistoryViewC1EP7QWidget
libdigikamcore.so.7.3.0:_ZN7Digikam12DHistoryViewC2EP7QWidget
libdigikamcore.so.7.3.0:_ZN7Digikam12DHistoryViewD0Ev
libdigikamcore.so.7.3.0:_ZN7Digikam12DHistoryViewD1Ev
libdigikamcore.so.7.3.0:_ZN7Digikam12DHistoryViewD2Ev
libdigikamcore.so.7.3.0:_ZN7Digikam12DIntNumInput11qt_metacallEN11QMetaObject4CallEiPPv
libdigikamcore.so.7.3.0:_ZN7Digikam12DIntNumInput11qt_metacastEPKc
libdigikamcore.so.7.3.0:_ZN7Digikam12DIntNumInput12valueChangedEi
libdigikamcore.so.7.3.0:_ZN7Digikam12DIntNumInput15setDefaultValueEi
libdigikamcore.so.7.3.0:_ZN7Digikam12DIntNumInput16slotValueChangedEi
libdigikamcore.so.7.3.0:_ZN7Digikam12DIntNumInput16staticMetaObjectE
libdigikamcore.so.7.3.0:_ZN7Digikam12DIntNumInput5resetEv
libdigikamcore.so.7.3.0:_ZN7Digikam12DIntNumInput8setRangeEiii
libdigikamcore.so.7.3.0:_ZN7Digikam12DIntNumInput8setValueEi
libdigikamcore.so.7.3.0:_ZN7Digikam12DIntNumInput9setSuffixERK7QString
libdigikamcore.so.7.3.0:_ZN7Digikam12DIntNumInput9slotResetEv
libdigikamcore.so.7.3.0:_ZN7Digikam12DIntNumInputC1EP7QWidget
libdigikamcore.so.7.3.0:_ZN7Digikam12DIntNumInputC2EP7QWidget
libdigikamcore.so.7.3.0:_ZN7Digikam12DIntNumInputD0Ev
libdigikamcore.so.7.3.0:_ZN7Digikam12DIntNumInputD1Ev
libdigikamcore.so.7.3.0:_ZN7Digikam12DIntNumInputD2Ev
libdigikamcore.so.7.3.0:_ZN7Digikam12DIntRangeBox10maxChangedEi
libdigikamcore.so.7.3.0:_ZN7Digikam12DIntRangeBox10minChangedEi
libdigikamcore.so.7.3.0:_ZN7Digikam12DIntRangeBox10setEnabledEb
libdigikamcore.so.7.3.0:_ZN7Digikam12DIntRangeBox11qt_metacallEN11QMetaObject4CallEiPPv
libdigikamcore.so.7.3.0:_ZN7Digikam12DIntRangeBox11qt_metacastEPKc
libdigikamcore.so.7.3.0:_ZN7Digikam12DIntRangeBox11setIntervalEii
libdigikamcore.so.7.3.0:_ZN7Digikam12DIntRangeBox16staticMetaObjectE
libdigikamcore.so.7.3.0:_ZN7Digikam12DIntRangeBox18slotMinimumChangedEi
libdigikamcore.so.7.3.0:_ZN7Digikam12DIntRangeBox8maxValueEv
libdigikamcore.so.7.3.0:_ZN7Digikam12DIntRangeBox8minValueEv
libdigikamcore.so.7.3.0:_ZN7Digikam12DIntRangeBox8setRangeEii
libdigikamcore.so.7.3.0:_ZN7Digikam12DIntRangeBox9setSuffixERK7QString
libdigikamcore.so.7.3.0:_ZN7Digikam12DIntRangeBoxC1EP7QWidget
libdigikamcore.so.7.3.0:_ZN7Digikam12DIntRangeBoxC2EP7QWidget
libdigikamcore.so.7.3.0:_ZN7Digikam12DIntRangeBoxD0Ev
libdigikamcore.so.7.3.0:_ZN7Digikam12DIntRangeBoxD1Ev
libdigikamcore.so.7.3.0:_ZN7Digikam12DIntRangeBoxD2Ev
libdigikamcore.so.7.3.0:_ZN7Digikam12DItemToolTip10paintEventEP11QPaintEvent
libdigikamcore.so.7.3.0:_ZN7Digikam12DItemToolTip10repositionEv
libdigikamcore.so.7.3.0:_ZN7Digikam12DItemToolTip11qt_metacallEN11QMetaObject4CallEiPPv
libdigikamcore.so.7.3.0:_ZN7Digikam12DItemToolTip11qt_metacastEPKc
libdigikamcore.so.7.3.0:_ZN7Digikam12DItemToolTip11resizeEventEP12QResizeEvent
libdigikamcore.so.7.3.0:_ZN7Digikam12DItemToolTip12renderArrowsEv
libdigikamcore.so.7.3.0:_ZN7Digikam12DItemToolTip13updateToolTipEv
libdigikamcore.so.7.3.0:_ZN7Digikam12DItemToolTip16staticMetaObjectE
libdigikamcore.so.7.3.0:_ZN7Digikam12DItemToolTip5eventEP6QEvent
libdigikamcore.so.7.3.0:_ZN7Digikam12DItemToolTipC1EP7QWidget
libdigikamcore.so.7.3.0:_ZN7Digikam12DItemToolTipC2EP7QWidget
libdigikamcore.so.7.3.0:_ZN7Digikam12DItemToolTipD0Ev
libdigikamcore.so.7.3.0:_ZN7Digikam12DItemToolTipD1Ev
libdigikamcore.so.7.3.0:_ZN7Digikam12DItemToolTipD2Ev
libdigikamcore.so.7.3.0:_ZN7Digikam12DMultiTabBar10fontChangeERK5QFont
libdigikamcore.so.7.3.0:_ZN7Digikam12DMultiTabBar11qt_metacallEN11QMetaObject4CallEiPPv
libdigikamcore.so.7.3.0:_ZN7Digikam12DMultiTabBar11qt_metacastEPKc
libdigikamcore.so.7.3.0:_ZN7Digikam12DMultiTabBar11setPositionEN2Qt4EdgeE
libdigikamcore.so.7.3.0:_ZN7Digikam12DMultiTabBar12appendButtonERK7QPixmapiP5QMenuRK7QString
libdigikamcore.so.7.3.0:_ZN7Digikam12DMultiTabBar12removeButtonEi
libdigikamcore.so.7.3.0:_ZN7Digikam12DMultiTabBar15updateSeparatorEv
libdigikamcore.so.7.3.0:_ZN7Digikam12DMultiTabBar16staticMetaObjectE
libdigikamcore.so.7.3.0:_ZN7Digikam12DMultiTabBar6setTabEib
libdigikamcore.so.7.3.0:_ZN7Digikam12DMultiTabBar8setStyleENS0_9TextStyleE
libdigikamcore.so.7.3.0:_ZN7Digikam12DMultiTabBar9appendTabERK7QPixmapiRK7QString
libdigikamcore.so.7.3.0:_ZN7Digikam12DMultiTabBar9removeTabEi
libdigikamcore.so.7.3.0:_ZN7Digikam12DMultiTabBarC1EN2Qt4EdgeEP7QWidget
libdigikamcore.so.7.3.0:_ZN7Digikam12DMultiTabBarC2EN2Qt4EdgeEP7QWidget
libdigikamcore.so.7.3.0:_ZN7Digikam12DMultiTabBarD0Ev
libdigikamcore.so.7.3.0:_ZN7Digikam12DMultiTabBarD1Ev
libdigikamcore.so.7.3.0:_ZN7Digikam12DMultiTabBarD2Ev
libdigikamcore.so.7.3.0:_ZN7Digikam12DPluginSetup10updateInfoEv
libdigikamcore.so.7.3.0:_ZN7Digikam12DPluginSetup11qt_metacallEN11QMetaObject4CallEiPPv
libdigikamcore.so.7.3.0:_ZN7Digikam12DPluginSetup11qt_metacastEPKc
libdigikamcore.so.7.3.0:_ZN7Digikam12DPluginSetup12slotCheckAllEv
libdigikamcore.so.7.3.0:_ZN7Digikam12DPluginSetup13applySettingsEv
libdigikamcore.so.7.3.0:_ZN7Digikam12DPluginSetup13slotClearListEv
libdigikamcore.so.7.3.0:_ZN7Digikam12DPluginSetup13slotSetFilterERK7QStringN2Qt15CaseSensitivityE
libdigikamcore.so.7.3.0:_ZN7Digikam12DPluginSetup15slotAboutPluginEP15QTreeWidgetItemi
libdigikamcore.so.7.3.0:_ZN7Digikam12DPluginSetup15slotItemClickedEv
libdigikamcore.so.7.3.0:_ZN7Digikam12DPluginSetup16slotSearchResultEi
libdigikamcore.so.7.3.0:_ZN7Digikam12DPluginSetup16staticMetaObjectE
libdigikamcore.so.7.3.0:_ZN7Digikam12DPluginSetup17setPluginConfViewEPNS_15DPluginConfViewE
libdigikamcore.so.7.3.0:_ZN7Digikam12DPluginSetup21slotSearchTextChangedERKNS_18SearchTextSettingsE
libdigikamcore.so.7.3.0:_ZN7Digikam12DPluginSetupC1EP7QWidget
libdigikamcore.so.7.3.0:_ZN7Digikam12DPluginSetupC2EP7QWidget
libdigikamcore.so.7.3.0:_ZN7Digikam12DPluginSetupD0Ev
libdigikamcore.so.7.3.0:_ZN7Digikam12DPluginSetupD1Ev
libdigikamcore.so.7.3.0:_ZN7Digikam12DPluginSetupD2Ev
libdigikamcore.so.7.3.0:_ZN7Digikam12DPointSelect10drawMarkerEP8QPainterii
libdigikamcore.so.7.3.0:_ZN7Digikam12DPointSelect10paintEventEP11QPaintEvent
libdigikamcore.so.7.3.0:_ZN7Digikam12DPointSelect10wheelEventEP11QWheelEvent
libdigikamcore.so.7.3.0:_ZN7Digikam12DPointSelect11qt_metacallEN11QMetaObject4CallEiPPv
libdigikamcore.so.7.3.0:_ZN7Digikam12DPointSelect11qt_metacastEPKc
libdigikamcore.so.7.3.0:_ZN7Digikam12DPointSelect11setPositionEii
libdigikamcore.so.7.3.0:_ZN7Digikam12DPointSelect12valueChangedEii
libdigikamcore.so.7.3.0:_ZN7Digikam12DPointSelect14mouseMoveEventEP11QMouseEvent
libdigikamcore.so.7.3.0:_ZN7Digikam12DPointSelect14setMarkerColorERK6QColor
libdigikamcore.so.7.3.0:_ZN7Digikam12DPointSelect15mousePressEventEP11QMouseEvent
libdigikamcore.so.7.3.0:_ZN7Digikam12DPointSelect16staticMetaObjectE
libdigikamcore.so.7.3.0:_ZN7Digikam12DPointSelect8setRangeEiiii
libdigikamcore.so.7.3.0:_ZN7Digikam12DPointSelect9setValuesEii
libdigikamcore.so.7.3.0:_ZN7Digikam12DPointSelect9setXValueEi
libdigikamcore.so.7.3.0:_ZN7Digikam12DPointSelect9setYValueEi
libdigikamcore.so.7.3.0:_ZN7Digikam12DPointSelectC1EP7QWidget
libdigikamcore.so.7.3.0:_ZN7Digikam12DPointSelectC2EP7QWidget
libdigikamcore.so.7.3.0:_ZN7Digikam12DPointSelectD0Ev
libdigikamcore.so.7.3.0:_ZN7Digikam12DPointSelectD1Ev
libdigikamcore.so.7.3.0:_ZN7Digikam12DPointSelectD2Ev
libdigikamcore.so.7.3.0:_ZN7Digikam12DProgressDlg10setMaximumEi
libdigikamcore.so.7.3.0:_ZN7Digikam12DProgressDlg10slotCancelEv
libdigikamcore.so.7.3.0:_ZN7Digikam12DProgressDlg11addedActionERK7QPixmapRK7QString
libdigikamcore.so.7.3.0:_ZN7Digikam12DProgressDlg11qt_metacallEN11QMetaObject4CallEiPPv
libdigikamcore.so.7.3.0:_ZN7Digikam12DProgressDlg11qt_metacastEPKc
libdigikamcore.so.7.3.0:_ZN7Digikam12DProgressDlg13setButtonTextERK7QString
libdigikamcore.so.7.3.0:_ZN7Digikam12DProgressDlg16incrementMaximumEi
libdigikamcore.so.7.3.0:_ZN7Digikam12DProgressDlg16staticMetaObjectE
libdigikamcore.so.7.3.0:_ZN7Digikam12DProgressDlg19signalCancelPressedEv
libdigikamcore.so.7.3.0:_ZN7Digikam12DProgressDlg5resetEv
libdigikamcore.so.7.3.0:_ZN7Digikam12DProgressDlg7advanceEi
libdigikamcore.so.7.3.0:_ZN7Digikam12DProgressDlg8setLabelERK7QString
libdigikamcore.so.7.3.0:_ZN7Digikam12DProgressDlg8setTitleERK7QString
libdigikamcore.so.7.3.0:_ZN7Digikam12DProgressDlg8setValueEi
libdigikamcore.so.7.3.0:_ZN7Digikam12DProgressDlgC1EP7QWidgetRK7QString
libdigikamcore.so.7.3.0:_ZN7Digikam12DProgressDlgC2EP7QWidgetRK7QString
libdigikamcore.so.7.3.0:_ZN7Digikam12DProgressDlgD0Ev
libdigikamcore.so.7.3.0:_ZN7Digikam12DProgressDlgD1Ev
libdigikamcore.so.7.3.0:_ZN7Digikam12DProgressDlgD2Ev
libdigikamcore.so.7.3.0:_ZN7Digikam12DProgressWdg11qt_metacallEN11QMetaObject4CallEiPPv
libdigikamcore.so.7.3.0:_ZN7Digikam12DProgressWdg11qt_metacastEPKc
libdigikamcore.so.7.3.0:_ZN7Digikam12DProgressWdg16slotValueChangedEi
libdigikamcore.so.7.3.0:_ZN7Digikam12DProgressWdg16staticMetaObjectE
libdigikamcore.so.7.3.0:_ZN7Digikam12DProgressWdg17progressCompletedEv
libdigikamcore.so.7.3.0:_ZN7Digikam12DProgressWdg17progressScheduledERK7QStringbb
libdigikamcore.so.7.3.0:_ZN7Digikam12DProgressWdg20slotProgressCanceledERK7QString
libdigikamcore.so.7.3.0:_ZN7Digikam12DProgressWdg21progressStatusChangedERK7QString
libdigikamcore.so.7.3.0:_ZN7Digikam12DProgressWdg22signalProgressCanceledEv
libdigikamcore.so.7.3.0:_ZN7Digikam12DProgressWdg24progressThumbnailChangedERK7QPixmap
libdigikamcore.so.7.3.0:_ZN7Digikam12DProgressWdgC1EP7QWidget
libdigikamcore.so.7.3.0:_ZN7Digikam12DProgressWdgC2EP7QWidget
libdigikamcore.so.7.3.0:_ZN7Digikam12DProgressWdgD0Ev
libdigikamcore.so.7.3.0:_ZN7Digikam12DProgressWdgD1Ev
libdigikamcore.so.7.3.0:_ZN7Digikam12DProgressWdgD2Ev
libdigikamcore.so.7.3.0:_ZN7Digikam12DRawDecoding16fromFilterActionERKNS_12FilterActionERK7QString
libdigikamcore.so.7.3.0:_ZN7Digikam12DRawDecoding19optimizeTimeLoadingEv
libdigikamcore.so.7.3.0:_ZN7Digikam12DRawDecoding21decodingSettingsToXmlERKNS_19DRawDecoderSettingsER11QDomElement
libdigikamcore.so.7.3.0:_ZN7Digikam12DRawDecoding23decodingSettingsFromXmlERK11QDomElementRNS_19DRawDecoderSettingsE
libdigikamcore.so.7.3.0:_ZN7Digikam12DRawDecoding27resetPostProcessingSettingsEv
libdigikamcore.so.7.3.0:_ZN7Digikam12DRawDecodingC1ERKNS_19DRawDecoderSettingsE
libdigikamcore.so.7.3.0:_ZN7Digikam12DRawDecodingC1Ev
libdigikamcore.so.7.3.0:_ZN7Digikam12DRawDecodingC2ERKNS_19DRawDecoderSettingsE
libdigikamcore.so.7.3.0:_ZN7Digikam12DRawDecodingC2Ev
libdigikamcore.so.7.3.0:_ZN7Digikam12DRawDecodingD1Ev
libdigikamcore.so.7.3.0:_ZN7Digikam12DRawDecodingD2Ev
libdigikamcore.so.7.3.0:_ZN7Digikam12DServiceMenu19servicesForOpenWithERK5QListI4QUrlE
libdigikamcore.so.7.3.0:_ZN7Digikam12DServiceMenu8runFilesEP8KServiceRK5QListI4QUrlE
libdigikamcore.so.7.3.0:_ZN7Digikam12DServiceMenu8runFilesERK7QStringRK5QListI4QUrlEP8KService
libdigikamcore.so.7.3.0:_ZN7Digikam12DTextBrowser11qt_metacallEN11QMetaObject4CallEiPPv
libdigikamcore.so.7.3.0:_ZN7Digikam12DTextBrowser11qt_metacastEPKc
libdigikamcore.so.7.3.0:_ZN7Digikam12DTextBrowser14setLinesNumberEi
libdigikamcore.so.7.3.0:_ZN7Digikam12DTextBrowser16staticMetaObjectE
libdigikamcore.so.7.3.0:_ZN7Digikam12DTextBrowserC1ERK7QStringP7QWidget
libdigikamcore.so.7.3.0:_ZN7Digikam12DTextBrowserC2ERK7QStringP7QWidget
libdigikamcore.so.7.3.0:_ZN7Digikam12DTextBrowserD0Ev
libdigikamcore.so.7.3.0:_ZN7Digikam12DTextBrowserD1Ev
libdigikamcore.so.7.3.0:_ZN7Digikam12DTextBrowserD2Ev
libdigikamcore.so.7.3.0:_ZN7Digikam12DownloadInfoC1ERK7QStringS3_S3_RKx
libdigikamcore.so.7.3.0:_ZN7Digikam12DownloadInfoC1ERKS0_
libdigikamcore.so.7.3.0:_ZN7Digikam12DownloadInfoC1Ev
libdigikamcore.so.7.3.0:_ZN7Digikam12DownloadInfoC2ERK7QStringS3_S3_RKx
libdigikamcore.so.7.3.0:_ZN7Digikam12DownloadInfoC2ERKS0_
libdigikamcore.so.7.3.0:_ZN7Digikam12DownloadInfoC2Ev
libdigikamcore.so.7.3.0:_ZN7Digikam12DownloadInfoD1Ev
libdigikamcore.so.7.3.0:_ZN7Digikam12DownloadInfoD2Ev
libdigikamcore.so.7.3.0:_ZN7Digikam12DownloadInfoaSERKS0_
libdigikamcore.so.7.3.0:_ZN7Digikam12EditorWindow11colorManageEv
libdigikamcore.so.7.3.0:_ZN7Digikam12EditorWindow11qt_metacallEN11QMetaObject4CallEiPPv
libdigikamcore.so.7.3.0:_ZN7Digikam12EditorWindow11qt_metacastEPKc
libdigikamcore.so.7.3.0:_ZN7Digikam12EditorWindow11resetOriginEv
libdigikamcore.so.7.3.0:_ZN7Digikam12EditorWindow12finishSavingEb
libdigikamcore.so.7.3.0:_ZN7Digikam12EditorWindow12readSettingsEv
libdigikamcore.so.7.3.0:_ZN7Digikam12EditorWindow12saveOrSaveAsEv
libdigikamcore.so.7.3.0:_ZN7Digikam12EditorWindow12saveSettingsEv
libdigikamcore.so.7.3.0:_ZN7Digikam12EditorWindow12showSideBarsEb
libdigikamcore.so.7.3.0:_ZN7Digikam12EditorWindow12showThumbBarEb
libdigikamcore.so.7.3.0:_ZN7Digikam12EditorWindow12slotSelectedEb
libdigikamcore.so.7.3.0:_ZN7Digikam12EditorWindow12slotToolDoneEv
libdigikamcore.so.7.3.0:_ZN7Digikam12EditorWindow12startingSaveERK4QUrl
libdigikamcore.so.7.3.0:_ZN7Digikam12EditorWindow13moveLocalFileERK7QStringS3_
libdigikamcore.so.7.3.0:_ZN7Digikam12EditorWindow13slotApplyToolEv
libdigikamcore.so.7.3.0:_ZN7Digikam12EditorWindow13slotCloseToolEv
libdigikamcore.so.7.3.0:_ZN7Digikam12EditorWindow13toggleActionsEb
libdigikamcore.so.7.3.0:_ZN7Digikam12EditorWindow14checkOverwriteERK4QUrl
libdigikamcore.so.7.3.0:_ZN7Digikam12EditorWindow14promptUserSaveERK4QUrlNS0_11SaveAskModeEb
libdigikamcore.so.7.3.0:_ZN7Digikam12EditorWindow14setupStatusBarEv
libdigikamcore.so.7.3.0:_ZN7Digikam12EditorWindow14startingSaveAsERK4QUrl
libdigikamcore.so.7.3.0:_ZN7Digikam12EditorWindow15applyIOSettingsEv
libdigikamcore.so.7.3.0:_ZN7Digikam12EditorWindow15quitWaitingLoopEv
libdigikamcore.so.7.3.0:_ZN7Digikam12EditorWindow15setToolProgressEi
libdigikamcore.so.7.3.0:_ZN7Digikam12EditorWindow15slotFitToSelectEv
libdigikamcore.so.7.3.0:_ZN7Digikam12EditorWindow15slotZoomChangedEbbd
libdigikamcore.so.7.3.0:_ZN7Digikam12EditorWindow16checkPermissionsERK4QUrl
libdigikamcore.so.7.3.0:_ZN7Digikam12EditorWindow16enterWaitingLoopEv
libdigikamcore.so.7.3.0:_ZN7Digikam12EditorWindow16promptUserDeleteERK4QUrl
libdigikamcore.so.7.3.0:_ZN7Digikam12EditorWindow16setupContextMenuEv
libdigikamcore.so.7.3.0:_ZN7Digikam12EditorWindow16slotDecreaseZoomEv
libdigikamcore.so.7.3.0:_ZN7Digikam12EditorWindow16slotFlipHIntoQueEv
libdigikamcore.so.7.3.0:_ZN7Digikam12EditorWindow16slotFlipVIntoQueEv
libdigikamcore.so.7.3.0:_ZN7Digikam12EditorWindow16slotIncreaseZoomEv
libdigikamcore.so.7.3.0:_ZN7Digikam12EditorWindow16slotOpenOriginalEv
libdigikamcore.so.7.3.0:_ZN7Digikam12EditorWindow16slotThemeChangedEv
libdigikamcore.so.7.3.0:_ZN7Digikam12EditorWindow16staticMetaObjectE
libdigikamcore.so.7.3.0:_ZN7Digikam12EditorWindow17setupTempSaveFileERK4QUrl
libdigikamcore.so.7.3.0:_ZN7Digikam12EditorWindow17signalToolAppliedEv
libdigikamcore.so.7.3.0:_ZN7Digikam12EditorWindow17slotPrepareToLoadEv
libdigikamcore.so.7.3.0:_ZN7Digikam12EditorWindow17slotSavingStartedERK7QString
libdigikamcore.so.7.3.0:_ZN7Digikam12EditorWindow17toggleToolActionsEPNS_10EditorToolE
libdigikamcore.so.7.3.0:_ZN7Digikam12EditorWindow17toggleZoomActionsEb
libdigikamcore.so.7.3.0:_ZN7Digikam12EditorWindow18promptForOverWriteEv
libdigikamcore.so.7.3.0:_ZN7Digikam12EditorWindow18setPreviewModeMaskEi
libdigikamcore.so.7.3.0:_ZN7Digikam12EditorWindow18setToolInfoMessageERK7QString
libdigikamcore.so.7.3.0:_ZN7Digikam12EditorWindow18showFileSaveDialogERK4QUrlRS1_
libdigikamcore.so.7.3.0:_ZN7Digikam12EditorWindow18slotComponentsInfoEv
libdigikamcore.so.7.3.0:_ZN7Digikam12EditorWindow18slotDiscardChangesEv
libdigikamcore.so.7.3.0:_ZN7Digikam12EditorWindow18slotLoadingStartedERK7QString
libdigikamcore.so.7.3.0:_ZN7Digikam12EditorWindow18slotSavingFinishedERK7QStringb
libdigikamcore.so.7.3.0:_ZN7Digikam12EditorWindow18slotSavingProgressERK7QStringf
libdigikamcore.so.7.3.0:_ZN7Digikam12EditorWindow19setToolStopProgressEv
libdigikamcore.so.7.3.0:_ZN7Digikam12EditorWindow19signalNoCurrentItemEv
libdigikamcore.so.7.3.0:_ZN7Digikam12EditorWindow19slotLoadingFinishedERK7QStringb
libdigikamcore.so.7.3.0:_ZN7Digikam12EditorWindow19slotLoadingProgressERK7QStringf
libdigikamcore.so.7.3.0:_ZN7Digikam12EditorWindow19startingSaveVersionERK4QUrlbbRK7QString
libdigikamcore.so.7.3.0:_ZN7Digikam12EditorWindow20hasOriginalToRestoreEv
libdigikamcore.so.7.3.0:_ZN7Digikam12EditorWindow20readStandardSettingsEv
libdigikamcore.so.7.3.0:_ZN7Digikam12EditorWindow20resolvedImageHistoryERKNS_13DImageHistoryE
libdigikamcore.so.7.3.0:_ZN7Digikam12EditorWindow20saveStandardSettingsEv
libdigikamcore.so.7.3.0:_ZN7Digikam12EditorWindow20setToolStartProgressERK7QString
libdigikamcore.so.7.3.0:_ZN7Digikam12EditorWindow20setupStandardActionsEv
libdigikamcore.so.7.3.0:_ZN7Digikam12EditorWindow20slotSelectionChangedERK5QRect
libdigikamcore.so.7.3.0:_ZN7Digikam12EditorWindow20slotSelectionSetTextERK5QRect
libdigikamcore.so.7.3.0:_ZN7Digikam12EditorWindow20slotUndoStateChangedEv
libdigikamcore.so.7.3.0:_ZN7Digikam12EditorWindow21addAction2ContextMenuERK7QStringb
libdigikamcore.so.7.3.0:_ZN7Digikam12EditorWindow21addServicesMenuForUrlERK4QUrl
libdigikamcore.so.7.3.0:_ZN7Digikam12EditorWindow21applyStandardSettingsEv
libdigikamcore.so.7.3.0:_ZN7Digikam12EditorWindow21resetOriginSwitchFileEv
libdigikamcore.so.7.3.0:_ZN7Digikam12EditorWindow21slotFileOriginChangedERK7QString
libdigikamcore.so.7.3.0:_ZN7Digikam12EditorWindow21slotRotateLeftIntoQueEv
libdigikamcore.so.7.3.0:_ZN7Digikam12EditorWindow21slotToggleFitToWindowEv
libdigikamcore.so.7.3.0:_ZN7Digikam12EditorWindow21slotZoomTo100PercentsEv
libdigikamcore.so.7.3.0:_ZN7Digikam12EditorWindow21toggleStandardActionsEb
libdigikamcore.so.7.3.0:_ZN7Digikam12EditorWindow22movingSaveFileFinishedEb
libdigikamcore.so.7.3.0:_ZN7Digikam12EditorWindow22setOverExposureToolTipEb
libdigikamcore.so.7.3.0:_ZN7Digikam12EditorWindow22setupSelectToolsActionEv
libdigikamcore.so.7.3.0:_ZN7Digikam12EditorWindow22signalSelectionChangedERK5QRect
libdigikamcore.so.7.3.0:_ZN7Digikam12EditorWindow22slotRotateRightIntoQueEv
libdigikamcore.so.7.3.0:_ZN7Digikam12EditorWindow22slotToggleRightSideBarEv
libdigikamcore.so.7.3.0:_ZN7Digikam12EditorWindow22startingSaveNewVersionERK4QUrl
libdigikamcore.so.7.3.0:_ZN7Digikam12EditorWindow23selectValidSavingFormatERK4QUrl
libdigikamcore.so.7.3.0:_ZN7Digikam12EditorWindow23setUnderExposureToolTipEb
libdigikamcore.so.7.3.0:_ZN7Digikam12EditorWindow23slotAboutToShowRedoMenuEv
libdigikamcore.so.7.3.0:_ZN7Digikam12EditorWindow23slotAboutToShowUndoMenuEv
libdigikamcore.so.7.3.0:_ZN7Digikam12EditorWindow23slotNextRightSideBarTabEv
libdigikamcore.so.7.3.0:_ZN7Digikam12EditorWindow23slotSoftProofingOptionsEv
libdigikamcore.so.7.3.0:_ZN7Digikam12EditorWindow23waitForSavingToCompleteEv
libdigikamcore.so.7.3.0:_ZN7Digikam12EditorWindow24customizedFullScreenModeEb
libdigikamcore.so.7.3.0:_ZN7Digikam12EditorWindow24execSavingProgressDialogEv
libdigikamcore.so.7.3.0:_ZN7Digikam12EditorWindow24saveVersionFileOperationERK4QUrlb
libdigikamcore.so.7.3.0:_ZN7Digikam12EditorWindow24setupStandardConnectionsEv
libdigikamcore.so.7.3.0:_ZN7Digikam12EditorWindow24signalPreviewModeChangedEi
libdigikamcore.so.7.3.0:_ZN7Digikam12EditorWindow24slotToggleOffFitToWindowEv
libdigikamcore.so.7.3.0:_ZN7Digikam12EditorWindow24startingSaveNewVersionAsERK4QUrl
libdigikamcore.so.7.3.0:_ZN7Digikam12EditorWindow26saveAsVersionFileOperationERK4QUrlS3_RK7QString
libdigikamcore.so.7.3.0:_ZN7Digikam12EditorWindow26slotToggleColorManagedViewEv
libdigikamcore.so.7.3.0:_ZN7Digikam12EditorWindow26startingSaveCurrentVersionERK4QUrl
libdigikamcore.so.7.3.0:_ZN7Digikam12EditorWindow27registerExtraPluginsActionsER7QString
libdigikamcore.so.7.3.0:_ZN7Digikam12EditorWindow27slotPreviousRightSideBarTabEv
libdigikamcore.so.7.3.0:_ZN7Digikam12EditorWindow27slotUpdateSoftProofingStateEv
libdigikamcore.so.7.3.0:_ZN7Digikam12EditorWindow27toggleNonDestructiveActionsEv
libdigikamcore.so.7.3.0:_ZN7Digikam12EditorWindow28applyColorManagementSettingsEv
libdigikamcore.so.7.3.0:_ZN7Digikam12EditorWindow28slotSetOverExposureIndicatorEb
libdigikamcore.so.7.3.0:_ZN7Digikam12EditorWindow29slotSetUnderExposureIndicatorEb
libdigikamcore.so.7.3.0:_ZN7Digikam12EditorWindow30startingSaveNewVersionInFormatERK4QUrlRK7QString
libdigikamcore.so.7.3.0:_ZN7Digikam12EditorWindow32saveInFormatVersionFileOperationERK4QUrlRK7QString
libdigikamcore.so.7.3.0:_ZN7Digikam12EditorWindow32slotNameLabelCancelButtonPressedEv
libdigikamcore.so.7.3.0:_ZN7Digikam12EditorWindow33slotColorManagementOptionsChangedEv
libdigikamcore.so.7.3.0:_ZN7Digikam12EditorWindow35setColorManagedViewIndicatorToolTipEbb
libdigikamcore.so.7.3.0:_ZN7Digikam12EditorWindow8loadToolEPNS_10EditorToolE
libdigikamcore.so.7.3.0:_ZN7Digikam12EditorWindow8moveFileEv
libdigikamcore.so.7.3.0:_ZN7Digikam12EditorWindow8openWithERK4QUrlP7QAction
libdigikamcore.so.7.3.0:_ZN7Digikam12EditorWindowC1ERK7QStringP7QWidget
libdigikamcore.so.7.3.0:_ZN7Digikam12EditorWindowC2ERK7QStringP7QWidget
libdigikamcore.so.7.3.0:_ZN7Digikam12EditorWindowD0Ev
libdigikamcore.so.7.3.0:_ZN7Digikam12EditorWindowD1Ev
libdigikamcore.so.7.3.0:_ZN7Digikam12EditorWindowD2Ev
libdigikamcore.so.7.3.0:_ZN7Digikam12EmbossFilter11filterImageEv
libdigikamcore.so.7.3.0:_ZN7Digikam12EmbossFilter11qt_metacallEN11QMetaObject4CallEiPPv
libdigikamcore.so.7.3.0:_ZN7Digikam12EmbossFilter11qt_metacastEPKc
libdigikamcore.so.7.3.0:_ZN7Digikam12EmbossFilter12filterActionEv
libdigikamcore.so.7.3.0:_ZN7Digikam12EmbossFilter14readParametersERKNS_12FilterActionE
libdigikamcore.so.7.3.0:_ZN7Digikam12EmbossFilter15DisplayableNameEv
libdigikamcore.so.7.3.0:_ZN7Digikam12EmbossFilter16staticMetaObjectE
libdigikamcore.so.7.3.0:_ZN7Digikam12EmbossFilter19embossMultithreadedEjjjd
libdigikamcore.so.7.3.0:_ZN7Digikam12EmbossFilterC1EP7QObject
libdigikamcore.so.7.3.0:_ZN7Digikam12EmbossFilterC1EPNS_4DImgEP7QObjecti
libdigikamcore.so.7.3.0:_ZN7Digikam12EmbossFilterC2EP7QObject
libdigikamcore.so.7.3.0:_ZN7Digikam12EmbossFilterC2EPNS_4DImgEP7QObjecti
libdigikamcore.so.7.3.0:_ZN7Digikam12EmbossFilterD0Ev
libdigikamcore.so.7.3.0:_ZN7Digikam12EmbossFilterD1Ev
libdigikamcore.so.7.3.0:_ZN7Digikam12EmbossFilterD2Ev
libdigikamcore.so.7.3.0:_ZN7Digikam12FaceDetector11detectFacesERK6QImageRK5QSize
libdigikamcore.so.7.3.0:_ZN7Digikam12FaceDetector11detectFacesERK7QString
libdigikamcore.so.7.3.0:_ZN7Digikam12FaceDetector11detectFacesERKNS_4DImgERK5QSize
libdigikamcore.so.7.3.0:_ZN7Digikam12FaceDetector12setParameterERK7QStringRK8QVariant
libdigikamcore.so.7.3.0:_ZN7Digikam12FaceDetector13setParametersERK4QMapI7QString8QVariantE
libdigikamcore.so.7.3.0:_ZN7Digikam12FaceDetector14toAbsoluteRectERK6QRectFRK5QSize
libdigikamcore.so.7.3.0:_ZN7Digikam12FaceDetector14toRelativeRectERK5QRectRK5QSize
libdigikamcore.so.7.3.0:_ZN7Digikam12FaceDetector15toAbsoluteRectsERK5QListI6QRectFERK5QSize
libdigikamcore.so.7.3.0:_ZN7Digikam12FaceDetector15toRelativeRectsERK5QListI5QRectERK5QSize
libdigikamcore.so.7.3.0:_ZN7Digikam12FaceDetectorC1ERKS0_
libdigikamcore.so.7.3.0:_ZN7Digikam12FaceDetectorC1Ev
libdigikamcore.so.7.3.0:_ZN7Digikam12FaceDetectorC2ERKS0_
libdigikamcore.so.7.3.0:_ZN7Digikam12FaceDetectorC2Ev
libdigikamcore.so.7.3.0:_ZN7Digikam12FaceDetectorD1Ev
libdigikamcore.so.7.3.0:_ZN7Digikam12FaceDetectorD2Ev
libdigikamcore.so.7.3.0:_ZN7Digikam12FaceDetectoraSERKS0_
libdigikamcore.so.7.3.0:_ZN7Digikam12FilterAction10parametersEv
libdigikamcore.so.7.3.0:_ZN7Digikam12FilterAction10removeFlagE6QFlagsINS0_4FlagEE
libdigikamcore.so.7.3.0:_ZN7Digikam12FilterAction12addParameterERK7QStringRK8QVariant
libdigikamcore.so.7.3.0:_ZN7Digikam12FilterAction12setParameterERK7QStringRK8QVariant
libdigikamcore.so.7.3.0:_ZN7Digikam12FilterAction13addParametersERK5QHashI7QString8QVariantE
libdigikamcore.so.7.3.0:_ZN7Digikam12FilterAction13setParametersERK5QHashI7QString8QVariantE
libdigikamcore.so.7.3.0:_ZN7Digikam12FilterAction14setDescriptionERK7QString
libdigikamcore.so.7.3.0:_ZN7Digikam12FilterAction15clearParametersEv
libdigikamcore.so.7.3.0:_ZN7Digikam12FilterAction16removeParametersERK7QString
libdigikamcore.so.7.3.0:_ZN7Digikam12FilterAction18setDisplayableNameERK7QString
libdigikamcore.so.7.3.0:_ZN7Digikam12FilterAction7addFlagE6QFlagsINS0_4FlagEE
libdigikamcore.so.7.3.0:_ZN7Digikam12FilterAction8setFlagsE6QFlagsINS0_4FlagEE
libdigikamcore.so.7.3.0:_ZN7Digikam12FilterAction9parameterERK7QString
libdigikamcore.so.7.3.0:_ZN7Digikam12FilterActionC1ERK7QStringiNS0_8CategoryE
libdigikamcore.so.7.3.0:_ZN7Digikam12FilterActionC1Ev
libdigikamcore.so.7.3.0:_ZN7Digikam12FilterActionC2ERK7QStringiNS0_8CategoryE
libdigikamcore.so.7.3.0:_ZN7Digikam12FilterActionC2Ev
libdigikamcore.so.7.3.0:_ZN7Digikam12GPSItemModel11itemChangedEPNS_16GPSItemContainerE
libdigikamcore.so.7.3.0:_ZN7Digikam12GPSItemModel11qt_metacallEN11QMetaObject4CallEiPPv
libdigikamcore.so.7.3.0:_ZN7Digikam12GPSItemModel11qt_metacastEPKc
libdigikamcore.so.7.3.0:_ZN7Digikam12GPSItemModel13setHeaderDataEiN2Qt11OrientationERK8QVarianti
libdigikamcore.so.7.3.0:_ZN7Digikam12GPSItemModel14setColumnCountEi
libdigikamcore.so.7.3.0:_ZN7Digikam12GPSItemModel16staticMetaObjectE
libdigikamcore.so.7.3.0:_ZN7Digikam12GPSItemModel17getPixmapForIndexERK21QPersistentModelIndexi
libdigikamcore.so.7.3.0:_ZN7Digikam12GPSItemModel19slotThumbnailLoadedERKNS_18LoadingDescriptionERK7QPixmap
libdigikamcore.so.7.3.0:_ZN7Digikam12GPSItemModel32signalThumbnailForIndexAvailableERK21QPersistentModelIndexRK7QPixmap
libdigikamcore.so.7.3.0:_ZN7Digikam12GPSItemModel7addItemEPNS_16GPSItemContainerE
libdigikamcore.so.7.3.0:_ZN7Digikam12GPSItemModel7setDataERK11QModelIndexRK8QVarianti
libdigikamcore.so.7.3.0:_ZN7Digikam12GPSItemModelC1EP7QObject
libdigikamcore.so.7.3.0:_ZN7Digikam12GPSItemModelC2EP7QObject
libdigikamcore.so.7.3.0:_ZN7Digikam12GPSItemModelD0Ev
libdigikamcore.so.7.3.0:_ZN7Digikam12GPSItemModelD1Ev
libdigikamcore.so.7.3.0:_ZN7Digikam12GPSItemModelD2Ev
libdigikamcore.so.7.3.0:_ZN7Digikam12HistogramBox10setChannelENS_11ChannelTypeE
libdigikamcore.so.7.3.0:_ZN7Digikam12HistogramBox11qt_metacallEN11QMetaObject4CallEiPPv
libdigikamcore.so.7.3.0:_ZN7Digikam12HistogramBox11qt_metacastEPKc
libdigikamcore.so.7.3.0:_ZN7Digikam12HistogramBox16setHistogramTypeENS_16HistogramBoxTypeE
libdigikamcore.so.7.3.0:_ZN7Digikam12HistogramBox16slotScaleChangedEv
libdigikamcore.so.7.3.0:_ZN7Digikam12HistogramBox16staticMetaObjectE
libdigikamcore.so.7.3.0:_ZN7Digikam12HistogramBox17setChannelEnabledEb
libdigikamcore.so.7.3.0:_ZN7Digikam12HistogramBox17setGradientColorsERK6QColorS3_
libdigikamcore.so.7.3.0:_ZN7Digikam12HistogramBox18setGradientVisibleEb
libdigikamcore.so.7.3.0:_ZN7Digikam12HistogramBox18setHistogramMarginEi
libdigikamcore.so.7.3.0:_ZN7Digikam12HistogramBox18signalScaleChangedENS_14HistogramScaleE
libdigikamcore.so.7.3.0:_ZN7Digikam12HistogramBox18slotChannelChangedEv
libdigikamcore.so.7.3.0:_ZN7Digikam12HistogramBox20setStatisticsVisibleEb
libdigikamcore.so.7.3.0:_ZN7Digikam12HistogramBox20signalChannelChangedENS_11ChannelTypeE
libdigikamcore.so.7.3.0:_ZN7Digikam12HistogramBox8setScaleENS_14HistogramScaleE
libdigikamcore.so.7.3.0:_ZN7Digikam12HistogramBoxC1EP7QWidgetNS_16HistogramBoxTypeEb
libdigikamcore.so.7.3.0:_ZN7Digikam12HistogramBoxC2EP7QWidgetNS_16HistogramBoxTypeEb
libdigikamcore.so.7.3.0:_ZN7Digikam12HistogramBoxD0Ev
libdigikamcore.so.7.3.0:_ZN7Digikam12HistogramBoxD1Ev
libdigikamcore.so.7.3.0:_ZN7Digikam12HistogramBoxD2Ev
libdigikamcore.so.7.3.0:_ZN7Digikam12IccTransform12openProofingERNS_20TransformDescriptionE
libdigikamcore.so.7.3.0:_ZN7Digikam12IccTransform13checkProfilesEv
libdigikamcore.so.7.3.0:_ZN7Digikam12IccTransform13setCheckGamutEb
libdigikamcore.so.7.3.0:_ZN7Digikam12IccTransform14getDescriptionERK6QImage
libdigikamcore.so.7.3.0:_ZN7Digikam12IccTransform14getDescriptionERKNS_4DImgE
libdigikamcore.so.7.3.0:_ZN7Digikam12IccTransform14setProofIntentENS0_15RenderingIntentE
libdigikamcore.so.7.3.0:_ZN7Digikam12IccTransform14willHaveEffectEv
libdigikamcore.so.7.3.0:_ZN7Digikam12IccTransform15setInputProfileERKNS_10IccProfileE
libdigikamcore.so.7.3.0:_ZN7Digikam12IccTransform15setProofProfileERKNS_10IccProfileE
libdigikamcore.so.7.3.0:_ZN7Digikam12IccTransform16setOutputProfileERKNS_10IccProfileE
libdigikamcore.so.7.3.0:_ZN7Digikam12IccTransform18setEmbeddedProfileERKNS_4DImgE
libdigikamcore.so.7.3.0:_ZN7Digikam12IccTransform22getProofingDescriptionERKNS_4DImgE
libdigikamcore.so.7.3.0:_ZN7Digikam12IccTransform22setCheckGamutMaskColorERK6QColor
libdigikamcore.so.7.3.0:_ZN7Digikam12IccTransform26setDoNotEmbedOutputProfileEb
libdigikamcore.so.7.3.0:_ZN7Digikam12IccTransform28setUseBlackPointCompensationEb
libdigikamcore.so.7.3.0:_ZN7Digikam12IccTransform4initEv
libdigikamcore.so.7.3.0:_ZN7Digikam12IccTransform4openERNS_20TransformDescriptionE
libdigikamcore.so.7.3.0:_ZN7Digikam12IccTransform5applyER6QImage
libdigikamcore.so.7.3.0:_ZN7Digikam12IccTransform5applyERNS_4DImgEPNS_18DImgLoaderObserverE
libdigikamcore.so.7.3.0:_ZN7Digikam12IccTransform5closeEv
libdigikamcore.so.7.3.0:_ZN7Digikam12IccTransform9setIntentENS0_15RenderingIntentE
libdigikamcore.so.7.3.0:_ZN7Digikam12IccTransform9transformER6QImageRKNS_20TransformDescriptionE
libdigikamcore.so.7.3.0:_ZN7Digikam12IccTransform9transformERNS_4DImgERKNS_20TransformDescriptionEPNS_18DImgLoaderObserverE
libdigikamcore.so.7.3.0:_ZN7Digikam12IccTransformC1ERKS0_
libdigikamcore.so.7.3.0:_ZN7Digikam12IccTransformC1Ev
libdigikamcore.so.7.3.0:_ZN7Digikam12IccTransformC2ERKS0_
libdigikamcore.so.7.3.0:_ZN7Digikam12IccTransformC2Ev
libdigikamcore.so.7.3.0:_ZN7Digikam12IccTransformD1Ev
libdigikamcore.so.7.3.0:_ZN7Digikam12IccTransformD2Ev
libdigikamcore.so.7.3.0:_ZN7Digikam12IccTransformaSERKS0_
libdigikamcore.so.7.3.0:_ZN7Digikam12InvertFilter11filterImageEv
libdigikamcore.so.7.3.0:_ZN7Digikam12InvertFilter11qt_metacallEN11QMetaObject4CallEiPPv
libdigikamcore.so.7.3.0:_ZN7Digikam12InvertFilter11qt_metacastEPKc
libdigikamcore.so.7.3.0:_ZN7Digikam12InvertFilter12filterActionEv
libdigikamcore.so.7.3.0:_ZN7Digikam12InvertFilter14readParametersERKNS_12FilterActionE
libdigikamcore.so.7.3.0:_ZN7Digikam12InvertFilter15DisplayableNameEv
libdigikamcore.so.7.3.0:_ZN7Digikam12InvertFilter16staticMetaObjectE
libdigikamcore.so.7.3.0:_ZN7Digikam12InvertFilterC1EP7QObject
libdigikamcore.so.7.3.0:_ZN7Digikam12InvertFilterC1EPNS_18DImgThreadedFilterERKNS_4DImgERS3_ii
libdigikamcore.so.7.3.0:_ZN7Digikam12InvertFilterC1EPNS_4DImgEP7QObject
libdigikamcore.so.7.3.0:_ZN7Digikam12InvertFilterC2EP7QObject
libdigikamcore.so.7.3.0:_ZN7Digikam12InvertFilterC2EPNS_18DImgThreadedFilterERKNS_4DImgERS3_ii
libdigikamcore.so.7.3.0:_ZN7Digikam12InvertFilterC2EPNS_4DImgEP7QObject
libdigikamcore.so.7.3.0:_ZN7Digikam12InvertFilterD0Ev
libdigikamcore.so.7.3.0:_ZN7Digikam12InvertFilterD1Ev
libdigikamcore.so.7.3.0:_ZN7Digikam12InvertFilterD2Ev
libdigikamcore.so.7.3.0:_ZN7Digikam12JP2KSettings11qt_metacallEN11QMetaObject4CallEiPPv
libdigikamcore.so.7.3.0:_ZN7Digikam12JP2KSettings11qt_metacastEPKc
libdigikamcore.so.7.3.0:_ZN7Digikam12JP2KSettings16staticMetaObjectE
libdigikamcore.so.7.3.0:_ZN7Digikam12JP2KSettings19setCompressionValueEi
libdigikamcore.so.7.3.0:_ZN7Digikam12JP2KSettings21signalSettingsChangedEv
libdigikamcore.so.7.3.0:_ZN7Digikam12JP2KSettings22setLossLessCompressionEb
libdigikamcore.so.7.3.0:_ZN7Digikam12JP2KSettings26slotToggleJPEG2000LossLessEb
libdigikamcore.so.7.3.0:_ZN7Digikam12JP2KSettingsC1EP7QWidget
libdigikamcore.so.7.3.0:_ZN7Digikam12JP2KSettingsC2EP7QWidget
libdigikamcore.so.7.3.0:_ZN7Digikam12JP2KSettingsD0Ev
libdigikamcore.so.7.3.0:_ZN7Digikam12JP2KSettingsD1Ev
libdigikamcore.so.7.3.0:_ZN7Digikam12JP2KSettingsD2Ev
libdigikamcore.so.7.3.0:_ZN7Digikam12JPEGSettings11qt_metacallEN11QMetaObject4CallEiPPv
libdigikamcore.so.7.3.0:_ZN7Digikam12JPEGSettings11qt_metacastEPKc
libdigikamcore.so.7.3.0:_ZN7Digikam12JPEGSettings16staticMetaObjectE
libdigikamcore.so.7.3.0:_ZN7Digikam12JPEGSettings19setCompressionValueEi
libdigikamcore.so.7.3.0:_ZN7Digikam12JPEGSettings19setSubSamplingValueEi
libdigikamcore.so.7.3.0:_ZN7Digikam12JPEGSettings21signalSettingsChangedEv
libdigikamcore.so.7.3.0:_ZN7Digikam12JPEGSettings28convertCompressionForLibJpegEi
libdigikamcore.so.7.3.0:_ZN7Digikam12JPEGSettingsC1EP7QWidget
libdigikamcore.so.7.3.0:_ZN7Digikam12JPEGSettingsC2EP7QWidget
libdigikamcore.so.7.3.0:_ZN7Digikam12JPEGSettingsD0Ev
libdigikamcore.so.7.3.0:_ZN7Digikam12JPEGSettingsD1Ev
libdigikamcore.so.7.3.0:_ZN7Digikam12JPEGSettingsD2Ev
libdigikamcore.so.7.3.0:_ZN7Digikam12LensFunIface11setSettingsERKNS_16LensFunContainerE
libdigikamcore.so.7.3.0:_ZN7Digikam12LensFunIface11setUsedLensEPK6lfLens
libdigikamcore.so.7.3.0:_ZN7Digikam12LensFunIface13setUsedCameraEPK8lfCamera
libdigikamcore.so.7.3.0:_ZN7Digikam12LensFunIface14lensFunVersionEv
libdigikamcore.so.7.3.0:_ZN7Digikam12LensFunIface16findFromMetadataEPNS_9DMetadataE
libdigikamcore.so.7.3.0:_ZN7Digikam12LensFunIface17setFilterSettingsERKNS_16LensFunContainerE
libdigikamcore.so.7.3.0:_ZN7Digikam12LensFunIfaceC1Ev
libdigikamcore.so.7.3.0:_ZN7Digikam12LensFunIfaceC2Ev
libdigikamcore.so.7.3.0:_ZN7Digikam12LensFunIfaceD1Ev
libdigikamcore.so.7.3.0:_ZN7Digikam12LensFunIfaceD2Ev
libdigikamcore.so.7.3.0:_ZN7Digikam12LevelsFilter11filterImageEv
libdigikamcore.so.7.3.0:_ZN7Digikam12LevelsFilter11qt_metacallEN11QMetaObject4CallEiPPv
libdigikamcore.so.7.3.0:_ZN7Digikam12LevelsFilter11qt_metacastEPKc
libdigikamcore.so.7.3.0:_ZN7Digikam12LevelsFilter12filterActionEv
libdigikamcore.so.7.3.0:_ZN7Digikam12LevelsFilter14readParametersERKNS_12FilterActionE
libdigikamcore.so.7.3.0:_ZN7Digikam12LevelsFilter15DisplayableNameEv
libdigikamcore.so.7.3.0:_ZN7Digikam12LevelsFilter16staticMetaObjectE
libdigikamcore.so.7.3.0:_ZN7Digikam12LevelsFilterC1EP7QObject
libdigikamcore.so.7.3.0:_ZN7Digikam12LevelsFilterC1EPNS_4DImgEP7QObjectRKNS_15LevelsContainerE
libdigikamcore.so.7.3.0:_ZN7Digikam12LevelsFilterC1ERKNS_15LevelsContainerEPNS_18DImgThreadedFilterERKNS_4DImgERS6_ii
libdigikamcore.so.7.3.0:_ZN7Digikam12LevelsFilterC2EP7QObject
libdigikamcore.so.7.3.0:_ZN7Digikam12LevelsFilterC2EPNS_4DImgEP7QObjectRKNS_15LevelsContainerE
libdigikamcore.so.7.3.0:_ZN7Digikam12LevelsFilterC2ERKNS_15LevelsContainerEPNS_18DImgThreadedFilterERKNS_4DImgERS6_ii
libdigikamcore.so.7.3.0:_ZN7Digikam12LevelsFilterD0Ev
libdigikamcore.so.7.3.0:_ZN7Digikam12LevelsFilterD1Ev
libdigikamcore.so.7.3.0:_ZN7Digikam12LevelsFilterD2Ev
libdigikamcore.so.7.3.0:_ZN7Digikam12LoadingCache10m_instanceE
libdigikamcore.so.7.3.0:_ZN7Digikam12LoadingCache11fileChangedERK7QString
libdigikamcore.so.7.3.0:_ZN7Digikam12LoadingCache11qt_metacallEN11QMetaObject4CallEiPPv
libdigikamcore.so.7.3.0:_ZN7Digikam12LoadingCache11qt_metacastEPKc
libdigikamcore.so.7.3.0:_ZN7Digikam12LoadingCache11removeImageERK7QString
libdigikamcore.so.7.3.0:_ZN7Digikam12LoadingCache12putThumbnailERK7QStringRK6QImageS3_
libdigikamcore.so.7.3.0:_ZN7Digikam12LoadingCache12putThumbnailERK7QStringRK7QPixmapS3_
libdigikamcore.so.7.3.0:_ZN7Digikam12LoadingCache12removeImagesEv
libdigikamcore.so.7.3.0:_ZN7Digikam12LoadingCache12setCacheSizeEi
libdigikamcore.so.7.3.0:_ZN7Digikam12LoadingCache12setFileWatchEPNS_21LoadingCacheFileWatchE
libdigikamcore.so.7.3.0:_ZN7Digikam12LoadingCache15removeThumbnailERK7QString
libdigikamcore.so.7.3.0:_ZN7Digikam12LoadingCache16removeThumbnailsEv
libdigikamcore.so.7.3.0:_ZN7Digikam12LoadingCache16staticMetaObjectE
libdigikamcore.so.7.3.0:_ZN7Digikam12LoadingCache17addLoadingProcessEPNS_14LoadingProcessE
libdigikamcore.so.7.3.0:_ZN7Digikam12LoadingCache17notifyFileChangedERK7QStringb
libdigikamcore.so.7.3.0:_ZN7Digikam12LoadingCache18iccSettingsChangedERKNS_20ICCSettingsContainerES3_
libdigikamcore.so.7.3.0:_ZN7Digikam12LoadingCache20removeLoadingProcessEPNS_14LoadingProcessE
libdigikamcore.so.7.3.0:_ZN7Digikam12LoadingCache21setThumbnailCacheSizeEii
libdigikamcore.so.7.3.0:_ZN7Digikam12LoadingCache23notifyNewLoadingProcessEPNS_14LoadingProcessERKNS_18LoadingDescriptionE
libdigikamcore.so.7.3.0:_ZN7Digikam12LoadingCache5cacheEv
libdigikamcore.so.7.3.0:_ZN7Digikam12LoadingCache7cleanUpEv
libdigikamcore.so.7.3.0:_ZN7Digikam12LoadingCache9CacheLock7wakeAllEv
libdigikamcore.so.7.3.0:_ZN7Digikam12LoadingCache9CacheLock9timedWaitEv
libdigikamcore.so.7.3.0:_ZN7Digikam12LoadingCache9CacheLockC1EPS0_
libdigikamcore.so.7.3.0:_ZN7Digikam12LoadingCache9CacheLockC2EPS0_
libdigikamcore.so.7.3.0:_ZN7Digikam12LoadingCache9CacheLockD1Ev
libdigikamcore.so.7.3.0:_ZN7Digikam12LoadingCache9CacheLockD2Ev
libdigikamcore.so.7.3.0:_ZN7Digikam12LoadingCacheC1Ev
libdigikamcore.so.7.3.0:_ZN7Digikam12LoadingCacheC2Ev
libdigikamcore.so.7.3.0:_ZN7Digikam12LoadingCacheD0Ev
libdigikamcore.so.7.3.0:_ZN7Digikam12LoadingCacheD1Ev
libdigikamcore.so.7.3.0:_ZN7Digikam12LoadingCacheD2Ev
libdigikamcore.so.7.3.0:_ZN7Digikam12PanIconFrame11qt_metacallEN11QMetaObject4CallEiPPv
libdigikamcore.so.7.3.0:_ZN7Digikam12PanIconFrame11qt_metacastEPKc
libdigikamcore.so.7.3.0:_ZN7Digikam12PanIconFrame11resizeEventEP12QResizeEvent
libdigikamcore.so.7.3.0:_ZN7Digikam12PanIconFrame13keyPressEventEP9QKeyEvent
libdigikamcore.so.7.3.0:_ZN7Digikam12PanIconFrame13leaveModalityEv
libdigikamcore.so.7.3.0:_ZN7Digikam12PanIconFrame13setMainWidgetEP7QWidget
libdigikamcore.so.7.3.0:_ZN7Digikam12PanIconFrame16staticMetaObjectE
libdigikamcore.so.7.3.0:_ZN7Digikam12PanIconFrame4execERK6QPoint
libdigikamcore.so.7.3.0:_ZN7Digikam12PanIconFrame4execEii
libdigikamcore.so.7.3.0:_ZN7Digikam12PanIconFrame5closeEi
libdigikamcore.so.7.3.0:_ZN7Digikam12PanIconFrame5popupERK6QPoint
libdigikamcore.so.7.3.0:_ZN7Digikam12PanIconFrameC1EP7QWidget
libdigikamcore.so.7.3.0:_ZN7Digikam12PanIconFrameC2EP7QWidget
libdigikamcore.so.7.3.0:_ZN7Digikam12PanIconFrameD0Ev
libdigikamcore.so.7.3.0:_ZN7Digikam12PanIconFrameD1Ev
libdigikamcore.so.7.3.0:_ZN7Digikam12PanIconFrameD2Ev
libdigikamcore.so.7.3.0:_ZN7Digikam12ProgressItem11qt_metacallEN11QMetaObject4CallEiPPv
libdigikamcore.so.7.3.0:_ZN7Digikam12ProgressItem11qt_metacastEPKc
libdigikamcore.so.7.3.0:_ZN7Digikam12ProgressItem11removeChildEPS0_
libdigikamcore.so.7.3.0:_ZN7Digikam12ProgressItem11setCompleteEv
libdigikamcore.so.7.3.0:_ZN7Digikam12ProgressItem11setProgressEj
libdigikamcore.so.7.3.0:_ZN7Digikam12ProgressItem12setThumbnailERK5QIcon
libdigikamcore.so.7.3.0:_ZN7Digikam12ProgressItem13incTotalItemsEj
libdigikamcore.so.7.3.0:_ZN7Digikam12ProgressItem13setTotalItemsEj
libdigikamcore.so.7.3.0:_ZN7Digikam12ProgressItem14setShowAtStartEb
libdigikamcore.so.7.3.0:_ZN7Digikam12ProgressItem14updateProgressEv
libdigikamcore.so.7.3.0:_ZN7Digikam12ProgressItem16staticMetaObjectE
libdigikamcore.so.7.3.0:_ZN7Digikam12ProgressItem17incCompletedItemsEj
libdigikamcore.so.7.3.0:_ZN7Digikam12ProgressItem17progressItemAddedEPS0_
libdigikamcore.so.7.3.0:_ZN7Digikam12ProgressItem17progressItemLabelEPS0_RK7QString
libdigikamcore.so.7.3.0:_ZN7Digikam12ProgressItem17setCompletedItemsEj
libdigikamcore.so.7.3.0:_ZN7Digikam12ProgressItem18progressItemStatusEPS0_RK7QString
libdigikamcore.so.7.3.0:_ZN7Digikam12ProgressItem20progressItemCanceledEPS0_
libdigikamcore.so.7.3.0:_ZN7Digikam12ProgressItem20progressItemProgressEPS0_j
libdigikamcore.so.7.3.0:_ZN7Digikam12ProgressItem20setUsesBusyIndicatorEb
libdigikamcore.so.7.3.0:_ZN7Digikam12ProgressItem21progressItemCompletedEPS0_
libdigikamcore.so.7.3.0:_ZN7Digikam12ProgressItem21progressItemThumbnailEPS0_RK7QPixmap
libdigikamcore.so.7.3.0:_ZN7Digikam12ProgressItem24progressItemCanceledByIdERK7QString
libdigikamcore.so.7.3.0:_ZN7Digikam12ProgressItem29progressItemUsesBusyIndicatorEPS0_b
libdigikamcore.so.7.3.0:_ZN7Digikam12ProgressItem5resetEv
libdigikamcore.so.7.3.0:_ZN7Digikam12ProgressItem6cancelEv
libdigikamcore.so.7.3.0:_ZN7Digikam12ProgressItem7advanceEj
libdigikamcore.so.7.3.0:_ZN7Digikam12ProgressItem8addChildEPS0_
libdigikamcore.so.7.3.0:_ZN7Digikam12ProgressItem8setLabelERK7QString
libdigikamcore.so.7.3.0:_ZN7Digikam12ProgressItem9setStatusERK7QString
libdigikamcore.so.7.3.0:_ZN7Digikam12ProgressItemC1EPS0_RK7QStringS4_S4_bb
libdigikamcore.so.7.3.0:_ZN7Digikam12ProgressItemC2EPS0_RK7QStringS4_S4_bb
libdigikamcore.so.7.3.0:_ZN7Digikam12ProgressItemD0Ev
libdigikamcore.so.7.3.0:_ZN7Digikam12ProgressItemD1Ev
libdigikamcore.so.7.3.0:_ZN7Digikam12ProgressItemD2Ev
libdigikamcore.so.7.3.0:_ZN7Digikam12ProgressView10closeEventEP11QCloseEvent
libdigikamcore.so.7.3.0:_ZN7Digikam12ProgressView10setVisibleEb
libdigikamcore.so.7.3.0:_ZN7Digikam12ProgressView11qt_metacallEN11QMetaObject4CallEiPPv
libdigikamcore.so.7.3.0:_ZN7Digikam12ProgressView11qt_metacastEPKc
libdigikamcore.so.7.3.0:_ZN7Digikam12ProgressView16staticMetaObjectE
libdigikamcore.so.7.3.0:_ZN7Digikam12ProgressView17visibilityChangedEb
libdigikamcore.so.7.3.0:_ZN7Digikam12ProgressView20slotToggleVisibilityEv
libdigikamcore.so.7.3.0:_ZN7Digikam12ProgressView20slotTransactionAddedEPNS_12ProgressItemE
libdigikamcore.so.7.3.0:_ZN7Digikam12ProgressView20slotTransactionLabelEPNS_12ProgressItemERK7QString
libdigikamcore.so.7.3.0:_ZN7Digikam12ProgressView21slotTransactionStatusEPNS_12ProgressItemERK7QString
libdigikamcore.so.7.3.0:_ZN7Digikam12ProgressView23slotTransactionCanceledEPNS_12ProgressItemE
libdigikamcore.so.7.3.0:_ZN7Digikam12ProgressView23slotTransactionProgressEPNS_12ProgressItemEj
libdigikamcore.so.7.3.0:_ZN7Digikam12ProgressView24slotTransactionCompletedEPNS_12ProgressItemE
libdigikamcore.so.7.3.0:_ZN7Digikam12ProgressView24slotTransactionThumbnailEPNS_12ProgressItemERK7QPixmap
libdigikamcore.so.7.3.0:_ZN7Digikam12ProgressView32slotTransactionUsesBusyIndicatorEPNS_12ProgressItemEb
libdigikamcore.so.7.3.0:_ZN7Digikam12ProgressView8slotHideEv
libdigikamcore.so.7.3.0:_ZN7Digikam12ProgressView8slotShowEv
libdigikamcore.so.7.3.0:_ZN7Digikam12ProgressView9slotCloseEv
libdigikamcore.so.7.3.0:_ZN7Digikam12ProgressViewC1EP7QWidgetS2_RK7QString
libdigikamcore.so.7.3.0:_ZN7Digikam12ProgressViewC2EP7QWidgetS2_RK7QString
libdigikamcore.so.7.3.0:_ZN7Digikam12ProgressViewD0Ev
libdigikamcore.so.7.3.0:_ZN7Digikam12ProgressViewD1Ev
libdigikamcore.so.7.3.0:_ZN7Digikam12ProgressViewD2Ev
libdigikamcore.so.7.3.0:_ZN7Digikam12RatingWidget10paintEventEP11QPaintEvent
libdigikamcore.so.7.3.0:_ZN7Digikam12RatingWidget10setVisibleEb
libdigikamcore.so.7.3.0:_ZN7Digikam12RatingWidget10stopFadingEv
libdigikamcore.so.7.3.0:_ZN7Digikam12RatingWidget11applyFadingER7QPixmap
libdigikamcore.so.7.3.0:_ZN7Digikam12RatingWidget11qt_metacallEN11QMetaObject4CallEiPPv
libdigikamcore.so.7.3.0:_ZN7Digikam12RatingWidget11qt_metacastEPKc
libdigikamcore.so.7.3.0:_ZN7Digikam12RatingWidget11setTrackingEb
libdigikamcore.so.7.3.0:_ZN7Digikam12RatingWidget11starPolygonEv
libdigikamcore.so.7.3.0:_ZN7Digikam12RatingWidget11startFadingEv
libdigikamcore.so.7.3.0:_ZN7Digikam12RatingWidget13setupTimeLineEv
libdigikamcore.so.7.3.0:_ZN7Digikam12RatingWidget14mouseMoveEventEP11QMouseEvent
libdigikamcore.so.7.3.0:_ZN7Digikam12RatingWidget14setFadingValueEi
libdigikamcore.so.7.3.0:_ZN7Digikam12RatingWidget15mousePressEventEP11QMouseEvent
libdigikamcore.so.7.3.0:_ZN7Digikam12RatingWidget16slotThemeChangedEv
libdigikamcore.so.7.3.0:_ZN7Digikam12RatingWidget16staticMetaObjectE
libdigikamcore.so.7.3.0:_ZN7Digikam12RatingWidget17mouseReleaseEventEP11QMouseEvent
libdigikamcore.so.7.3.0:_ZN7Digikam12RatingWidget17regeneratePixmapsEv
libdigikamcore.so.7.3.0:_ZN7Digikam12RatingWidget19signalRatingChangedEi
libdigikamcore.so.7.3.0:_ZN7Digikam12RatingWidget20signalRatingModifiedEi
libdigikamcore.so.7.3.0:_ZN7Digikam12RatingWidget21setVisibleImmediatelyEv
libdigikamcore.so.7.3.0:_ZN7Digikam12RatingWidget9buildIconEii
libdigikamcore.so.7.3.0:_ZN7Digikam12RatingWidget9setFadingEb
libdigikamcore.so.7.3.0:_ZN7Digikam12RatingWidget9setRatingEi
libdigikamcore.so.7.3.0:_ZN7Digikam12RatingWidgetC1EP7QWidget
libdigikamcore.so.7.3.0:_ZN7Digikam12RatingWidgetC2EP7QWidget
libdigikamcore.so.7.3.0:_ZN7Digikam12RatingWidgetD0Ev
libdigikamcore.so.7.3.0:_ZN7Digikam12RatingWidgetD1Ev
libdigikamcore.so.7.3.0:_ZN7Digikam12RatingWidgetD2Ev
libdigikamcore.so.7.3.0:_ZN7Digikam12RawCameraDlg11qt_metacallEN11QMetaObject4CallEiPPv
libdigikamcore.so.7.3.0:_ZN7Digikam12RawCameraDlg11qt_metacastEPKc
libdigikamcore.so.7.3.0:_ZN7Digikam12RawCameraDlg12updateHeaderEi
libdigikamcore.so.7.3.0:_ZN7Digikam12RawCameraDlg16staticMetaObjectE
libdigikamcore.so.7.3.0:_ZN7Digikam12RawCameraDlg21slotSearchTextChangedERKNS_18SearchTextSettingsE
libdigikamcore.so.7.3.0:_ZN7Digikam12RawCameraDlgC1EP7QWidget
libdigikamcore.so.7.3.0:_ZN7Digikam12RawCameraDlgC2EP7QWidget
libdigikamcore.so.7.3.0:_ZN7Digikam12RawCameraDlgD0Ev
libdigikamcore.so.7.3.0:_ZN7Digikam12RawCameraDlgD1Ev
libdigikamcore.so.7.3.0:_ZN7Digikam12RawCameraDlgD2Ev
libdigikamcore.so.7.3.0:_ZN7Digikam12SetupIOFiles11qt_metacallEN11QMetaObject4CallEiPPv
libdigikamcore.so.7.3.0:_ZN7Digikam12SetupIOFiles11qt_metacastEPKc
libdigikamcore.so.7.3.0:_ZN7Digikam12SetupIOFiles12readSettingsEv
libdigikamcore.so.7.3.0:_ZN7Digikam12SetupIOFiles13applySettingsEv
libdigikamcore.so.7.3.0:_ZN7Digikam12SetupIOFiles16staticMetaObjectE
libdigikamcore.so.7.3.0:_ZN7Digikam12SetupIOFilesC1EP7QWidget
libdigikamcore.so.7.3.0:_ZN7Digikam12SetupIOFilesC2EP7QWidget
libdigikamcore.so.7.3.0:_ZN7Digikam12SetupIOFilesD0Ev
libdigikamcore.so.7.3.0:_ZN7Digikam12SetupIOFilesD1Ev
libdigikamcore.so.7.3.0:_ZN7Digikam12SetupIOFilesD2Ev
libdigikamcore.so.7.3.0:_ZN7Digikam12TIFFSettings11qt_metacallEN11QMetaObject4CallEiPPv
libdigikamcore.so.7.3.0:_ZN7Digikam12TIFFSettings11qt_metacastEPKc
libdigikamcore.so.7.3.0:_ZN7Digikam12TIFFSettings14setCompressionEb
libdigikamcore.so.7.3.0:_ZN7Digikam12TIFFSettings16staticMetaObjectE
libdigikamcore.so.7.3.0:_ZN7Digikam12TIFFSettings21signalSettingsChangedEv
libdigikamcore.so.7.3.0:_ZN7Digikam12TIFFSettingsC1EP7QWidget
libdigikamcore.so.7.3.0:_ZN7Digikam12TIFFSettingsC2EP7QWidget
libdigikamcore.so.7.3.0:_ZN7Digikam12TIFFSettingsD0Ev
libdigikamcore.so.7.3.0:_ZN7Digikam12TIFFSettingsD1Ev
libdigikamcore.so.7.3.0:_ZN7Digikam12TIFFSettingsD2Ev
libdigikamcore.so.7.3.0:_ZN7Digikam12ThemeManager11qt_metacallEN11QMetaObject4CallEiPPv
libdigikamcore.so.7.3.0:_ZN7Digikam12ThemeManager11qt_metacastEPKc
libdigikamcore.so.7.3.0:_ZN7Digikam12ThemeManager15setCurrentThemeERK7QString
libdigikamcore.so.7.3.0:_ZN7Digikam12ThemeManager15updateThemeMenuEv
libdigikamcore.so.7.3.0:_ZN7Digikam12ThemeManager16staticMetaObjectE
libdigikamcore.so.7.3.0:_ZN7Digikam12ThemeManager17populateThemeMenuEv
libdigikamcore.so.7.3.0:_ZN7Digikam12ThemeManager17slotChangePaletteEv
libdigikamcore.so.7.3.0:_ZN7Digikam12ThemeManager18setThemeMenuActionEP5QMenu
libdigikamcore.so.7.3.0:_ZN7Digikam12ThemeManager18signalThemeChangedEv
libdigikamcore.so.7.3.0:_ZN7Digikam12ThemeManager20registerThemeActionsEPNS_13DXmlGuiWindowE
libdigikamcore.so.7.3.0:_ZN7Digikam12ThemeManager39updateCurrentDesktopDefaultThemePreviewEv
libdigikamcore.so.7.3.0:_ZN7Digikam12ThemeManager8instanceEv
libdigikamcore.so.7.3.0:_ZN7Digikam12ThemeManagerC1Ev
libdigikamcore.so.7.3.0:_ZN7Digikam12ThemeManagerC2Ev
libdigikamcore.so.7.3.0:_ZN7Digikam12ThemeManagerD0Ev
libdigikamcore.so.7.3.0:_ZN7Digikam12ThemeManagerD1Ev
libdigikamcore.so.7.3.0:_ZN7Digikam12ThemeManagerD2Ev
libdigikamcore.so.7.3.0:_ZN7Digikam12ThumbBarDock11qt_metacallEN11QMetaObject4CallEiPPv
libdigikamcore.so.7.3.0:_ZN7Digikam12ThumbBarDock11qt_metacastEPKc
libdigikamcore.so.7.3.0:_ZN7Digikam12ThumbBarDock12reInitializeEv
libdigikamcore.so.7.3.0:_ZN7Digikam12ThumbBarDock12showThumbBarEb
libdigikamcore.so.7.3.0:_ZN7Digikam12ThumbBarDock16staticMetaObjectE
libdigikamcore.so.7.3.0:_ZN7Digikam12ThumbBarDock17generateFuzzyRectERK5QSizeRK6QColoriS6_
libdigikamcore.so.7.3.0:_ZN7Digikam12ThumbBarDock17restoreVisibilityEv
libdigikamcore.so.7.3.0:_ZN7Digikam12ThumbBarDock18setShouldBeVisibleEb
libdigikamcore.so.7.3.0:_ZN7Digikam12ThumbBarDock25generateFuzzyRectForGroupERK5QSizeRK6QColori
libdigikamcore.so.7.3.0:_ZN7Digikam12ThumbBarDockC1EP7QWidget6QFlagsIN2Qt10WindowTypeEE
libdigikamcore.so.7.3.0:_ZN7Digikam12ThumbBarDockC2EP7QWidget6QFlagsIN2Qt10WindowTypeEE
libdigikamcore.so.7.3.0:_ZN7Digikam12ThumbBarDockD0Ev
libdigikamcore.so.7.3.0:_ZN7Digikam12ThumbBarDockD1Ev
libdigikamcore.so.7.3.0:_ZN7Digikam12ThumbBarDockD2Ev
libdigikamcore.so.7.3.0:_ZN7Digikam12TrackManager10TrackPoint11EarlierThanERKS1_S3_
libdigikamcore.so.7.3.0:_ZN7Digikam12TrackManager11qt_metacallEN11QMetaObject4CallEiPPv
libdigikamcore.so.7.3.0:_ZN7Digikam12TrackManager11qt_metacastEPKc
libdigikamcore.so.7.3.0:_ZN7Digikam12TrackManager13setVisibilityEb
libdigikamcore.so.7.3.0:_ZN7Digikam12TrackManager14loadTrackFilesERK5QListI4QUrlE
libdigikamcore.so.7.3.0:_ZN7Digikam12TrackManager14readLoadErrorsEv
libdigikamcore.so.7.3.0:_ZN7Digikam12TrackManager16staticMetaObjectE
libdigikamcore.so.7.3.0:_ZN7Digikam12TrackManager18getNextFreeTrackIdEv
libdigikamcore.so.7.3.0:_ZN7Digikam12TrackManager19signalTracksChangedERK5QListI5QPairIjNS0_10ChangeFlagEEE
libdigikamcore.so.7.3.0:_ZN7Digikam12TrackManager21getNextFreeTrackColorEv
libdigikamcore.so.7.3.0:_ZN7Digikam12TrackManager21slotTrackFilesReadyAtEii
libdigikamcore.so.7.3.0:_ZN7Digikam12TrackManager22slotTrackFilesFinishedEv
libdigikamcore.so.7.3.0:_ZN7Digikam12TrackManager23signalTrackFilesReadyAtEii
libdigikamcore.so.7.3.0:_ZN7Digikam12TrackManager23signalVisibilityChangedEb
libdigikamcore.so.7.3.0:_ZN7Digikam12TrackManager24signalAllTrackFilesReadyEv
libdigikamcore.so.7.3.0:_ZN7Digikam12TrackManager5clearEv
libdigikamcore.so.7.3.0:_ZN7Digikam12TrackManagerC1EP7QObject
libdigikamcore.so.7.3.0:_ZN7Digikam12TrackManagerC2EP7QObject
libdigikamcore.so.7.3.0:_ZN7Digikam12TrackManagerD0Ev
libdigikamcore.so.7.3.0:_ZN7Digikam12TrackManagerD1Ev
libdigikamcore.so.7.3.0:_ZN7Digikam12TrackManagerD2Ev
libdigikamcore.so.7.3.0:_ZN7Digikam12WSToolDialog11qt_metacallEN11QMetaObject4CallEiPPv
libdigikamcore.so.7.3.0:_ZN7Digikam12WSToolDialog11qt_metacastEPKc
libdigikamcore.so.7.3.0:_ZN7Digikam12WSToolDialog13cancelClickedEv
libdigikamcore.so.7.3.0:_ZN7Digikam12WSToolDialog13setMainWidgetEP7QWidget
libdigikamcore.so.7.3.0:_ZN7Digikam12WSToolDialog16slotCloseClickedEv
libdigikamcore.so.7.3.0:_ZN7Digikam12WSToolDialog16staticMetaObjectE
libdigikamcore.so.7.3.0:_ZN7Digikam12WSToolDialog19setRejectButtonModeEN16QDialogButtonBox14StandardButtonE
libdigikamcore.so.7.3.0:_ZN7Digikam12WSToolDialog9addButtonEP15QAbstractButtonN16QDialogButtonBox10ButtonRoleE
libdigikamcore.so.7.3.0:_ZN7Digikam12WSToolDialogC1EP7QWidgetRK7QString
libdigikamcore.so.7.3.0:_ZN7Digikam12WSToolDialogC2EP7QWidgetRK7QString
libdigikamcore.so.7.3.0:_ZN7Digikam12WSToolDialogD0Ev
libdigikamcore.so.7.3.0:_ZN7Digikam12WSToolDialogD1Ev
libdigikamcore.so.7.3.0:_ZN7Digikam12WSToolDialogD2Ev
libdigikamcore.so.7.3.0:_ZN7Digikam12WorkerObject10deactivateENS0_16DeactivatingModeE
libdigikamcore.so.7.3.0:_ZN7Digikam12WorkerObject11addRunnableEPNS_20WorkerObjectRunnableE
libdigikamcore.so.7.3.0:_ZN7Digikam12WorkerObject11qt_metacallEN11QMetaObject4CallEiPPv
libdigikamcore.so.7.3.0:_ZN7Digikam12WorkerObject11qt_metacastEPKc
libdigikamcore.so.7.3.0:_ZN7Digikam12WorkerObject11setPriorityEN7QThread8PriorityE
libdigikamcore.so.7.3.0:_ZN7Digikam12WorkerObject12setEventLoopEP10QEventLoop
libdigikamcore.so.7.3.0:_ZN7Digikam12WorkerObject14removeRunnableEPNS_20WorkerObjectRunnableE
libdigikamcore.so.7.3.0:_ZN7Digikam12WorkerObject15aboutToQuitLoopEv
libdigikamcore.so.7.3.0:_ZN7Digikam12WorkerObject16staticMetaObjectE
libdigikamcore.so.7.3.0:_ZN7Digikam12WorkerObject17aboutToDeactivateEv
libdigikamcore.so.7.3.0:_ZN7Digikam12WorkerObject18connectAndScheduleEPK7QObjectPKcPKS0_S5_N2Qt14ConnectionTypeE
libdigikamcore.so.7.3.0:_ZN7Digikam12WorkerObject19transitionToRunningEv
libdigikamcore.so.7.3.0:_ZN7Digikam12WorkerObject20transitionToInactiveEv
libdigikamcore.so.7.3.0:_ZN7Digikam12WorkerObject21disconnectAndScheduleEPK7QObjectPKcPKS0_S5_
libdigikamcore.so.7.3.0:_ZN7Digikam12WorkerObject4waitEv
libdigikamcore.so.7.3.0:_ZN7Digikam12WorkerObject5eventEP6QEvent
libdigikamcore.so.7.3.0:_ZN7Digikam12WorkerObject7startedEv
libdigikamcore.so.7.3.0:_ZN7Digikam12WorkerObject8finishedEv
libdigikamcore.so.7.3.0:_ZN7Digikam12WorkerObject8scheduleEv
libdigikamcore.so.7.3.0:_ZN7Digikam12WorkerObject8shutDownEv
libdigikamcore.so.7.3.0:_ZN7Digikam12WorkerObjectC1Ev
libdigikamcore.so.7.3.0:_ZN7Digikam12WorkerObjectC2Ev
libdigikamcore.so.7.3.0:_ZN7Digikam12WorkerObjectD0Ev
libdigikamcore.so.7.3.0:_ZN7Digikam12WorkerObjectD1Ev
libdigikamcore.so.7.3.0:_ZN7Digikam12WorkerObjectD2Ev
libdigikamcore.so.7.3.0:_ZN7Digikam13BWSepiaFilter11filterImageEv
libdigikamcore.so.7.3.0:_ZN7Digikam13BWSepiaFilter11qt_metacallEN11QMetaObject4CallEiPPv
libdigikamcore.so.7.3.0:_ZN7Digikam13BWSepiaFilter11qt_metacastEPKc
libdigikamcore.so.7.3.0:_ZN7Digikam13BWSepiaFilter12filterActionEv
libdigikamcore.so.7.3.0:_ZN7Digikam13BWSepiaFilter14readParametersERKNS_12FilterActionE
libdigikamcore.so.7.3.0:_ZN7Digikam13BWSepiaFilter15DisplayableNameEv
libdigikamcore.so.7.3.0:_ZN7Digikam13BWSepiaFilter15applyToneFilterERNS_4DImgERNS_17TonalityContainerE
libdigikamcore.so.7.3.0:_ZN7Digikam13BWSepiaFilter16staticMetaObjectE
libdigikamcore.so.7.3.0:_ZN7Digikam13BWSepiaFilter17applyChannelMixerERNS_4DImgE
libdigikamcore.so.7.3.0:_ZN7Digikam13BWSepiaFilter19applyInfraredFilterERNS_4DImgEi
libdigikamcore.so.7.3.0:_ZN7Digikam13BWSepiaFilter21getThumbnailForEffectERKNS_4DImgE
libdigikamcore.so.7.3.0:_ZN7Digikam13BWSepiaFilter23blackAndWhiteConversionERNS_4DImgEi
libdigikamcore.so.7.3.0:_ZN7Digikam13BWSepiaFilterC1EP7QObject
libdigikamcore.so.7.3.0:_ZN7Digikam13BWSepiaFilterC1EPNS_4DImgEP7QObjectRKNS_16BWSepiaContainerE
libdigikamcore.so.7.3.0:_ZN7Digikam13BWSepiaFilterC2EP7QObject
libdigikamcore.so.7.3.0:_ZN7Digikam13BWSepiaFilterC2EPNS_4DImgEP7QObjectRKNS_16BWSepiaContainerE
libdigikamcore.so.7.3.0:_ZN7Digikam13BWSepiaFilterD0Ev
libdigikamcore.so.7.3.0:_ZN7Digikam13BWSepiaFilterD1Ev
libdigikamcore.so.7.3.0:_ZN7Digikam13BWSepiaFilterD2Ev
libdigikamcore.so.7.3.0:_ZN7Digikam13BackendMarble11eventFilterEP7QObjectP6QEvent
libdigikamcore.so.7.3.0:_ZN7Digikam13BackendMarble11qt_metacallEN11QMetaObject4CallEiPPv
libdigikamcore.so.7.3.0:_ZN7Digikam13BackendMarble11qt_metacastEPKc
libdigikamcore.so.7.3.0:_ZN7Digikam13BackendMarble11setMapThemeERK7QString
libdigikamcore.so.7.3.0:_ZN7Digikam13BackendMarble13createActionsEv
libdigikamcore.so.7.3.0:_ZN7Digikam13BackendMarble13findSnapPointERK6QPointPS1_PNS_14GeoCoordinatesEP5QPairIi11QModelIndexE
libdigikamcore.so.7.3.0:_ZN7Digikam13BackendMarble13releaseWidgetEPNS_26GeoIfaceInternalWidgetInfoE
libdigikamcore.so.7.3.0:_ZN7Digikam13BackendMarble13setProjectionERK7QString
libdigikamcore.so.7.3.0:_ZN7Digikam13BackendMarble13updateMarkersEv
libdigikamcore.so.7.3.0:_ZN7Digikam13BackendMarble14setShowCompassEb
libdigikamcore.so.7.3.0:_ZN7Digikam13BackendMarble14updateClustersEv
libdigikamcore.so.7.3.0:_ZN7Digikam13BackendMarble15mapWidgetDockedEb
libdigikamcore.so.7.3.0:_ZN7Digikam13BackendMarble15setShowScaleBarEb
libdigikamcore.so.7.3.0:_ZN7Digikam13BackendMarble16mouseModeChangedEv
libdigikamcore.so.7.3.0:_ZN7Digikam13BackendMarble16staticMetaObjectE
libdigikamcore.so.7.3.0:_ZN7Digikam13BackendMarble17marbleCustomPaintEPN6Marble10GeoPainterE
libdigikamcore.so.7.3.0:_ZN7Digikam13BackendMarble17screenCoordinatesERKNS_14GeoCoordinatesEP6QPoint
libdigikamcore.so.7.3.0:_ZN7Digikam13BackendMarble17setShowNavigationEb
libdigikamcore.so.7.3.0:_ZN7Digikam13BackendMarble17slotTracksChangedERK5QListI5QPairIjNS_12TrackManager10ChangeFlagEEE
libdigikamcore.so.7.3.0:_ZN7Digikam13BackendMarble18applyCacheToWidgetEv
libdigikamcore.so.7.3.0:_ZN7Digikam13BackendMarble18deleteInfoFunctionEPNS_26GeoIfaceInternalWidgetInfoE
libdigikamcore.so.7.3.0:_ZN7Digikam13BackendMarble18setShowOverviewMapEb
libdigikamcore.so.7.3.0:_ZN7Digikam13BackendMarble18slotScheduleUpdateEv
libdigikamcore.so.7.3.0:_ZN7Digikam13BackendMarble19drawSearchRectangleEPN6Marble10GeoPainterERK5QPairINS_14GeoCoordinatesES5_Eb
libdigikamcore.so.7.3.0:_ZN7Digikam13BackendMarble19getMarkerModelLevelEv
libdigikamcore.so.7.3.0:_ZN7Digikam13BackendMarble19getNormalizedBoundsEv
libdigikamcore.so.7.3.0:_ZN7Digikam13BackendMarble19saveSettingsToGroupEP12KConfigGroup
libdigikamcore.so.7.3.0:_ZN7Digikam13BackendMarble21readSettingsFromGroupEPK12KConfigGroup
libdigikamcore.so.7.3.0:_ZN7Digikam13BackendMarble21slotMarbleZoomChangedEv
libdigikamcore.so.7.3.0:_ZN7Digikam13BackendMarble22regionSelectionChangedEv
libdigikamcore.so.7.3.0:_ZN7Digikam13BackendMarble23slotTrackManagerChangedEv
libdigikamcore.so.7.3.0:_ZN7Digikam13BackendMarble24slotClustersNeedUpdatingEv
libdigikamcore.so.7.3.0:_ZN7Digikam13BackendMarble24updateActionAvailabilityEv
libdigikamcore.so.7.3.0:_ZN7Digikam13BackendMarble25slotUngroupedModelChangedEi
libdigikamcore.so.7.3.0:_ZN7Digikam13BackendMarble26slotFloatSettingsTriggeredEP7QAction
libdigikamcore.so.7.3.0:_ZN7Digikam13BackendMarble27slotMapThemeActionTriggeredEP7QAction
libdigikamcore.so.7.3.0:_ZN7Digikam13BackendMarble29addActionsToConfigurationMenuEP5QMenu
libdigikamcore.so.7.3.0:_ZN7Digikam13BackendMarble29slotProjectionActionTriggeredEP7QAction
libdigikamcore.so.7.3.0:_ZN7Digikam13BackendMarble30slotThumbnailAvailableForIndexERK8QVariantRK7QPixmap
libdigikamcore.so.7.3.0:_ZN7Digikam13BackendMarble34GeoPainter_drawPixmapAtCoordinatesEPN6Marble10GeoPainterERK7QPixmapRKNS_14GeoCoordinatesERK6QPoint
libdigikamcore.so.7.3.0:_ZN7Digikam13BackendMarble6zoomInEv
libdigikamcore.so.7.3.0:_ZN7Digikam13BackendMarble7setZoomERK7QString
libdigikamcore.so.7.3.0:_ZN7Digikam13BackendMarble7zoomOutEv
libdigikamcore.so.7.3.0:_ZN7Digikam13BackendMarble8centerOnERKN6Marble16GeoDataLatLonBoxEb
libdigikamcore.so.7.3.0:_ZN7Digikam13BackendMarble9mapWidgetEv
libdigikamcore.so.7.3.0:_ZN7Digikam13BackendMarble9setActiveEb
libdigikamcore.so.7.3.0:_ZN7Digikam13BackendMarble9setCenterERKNS_14GeoCoordinatesE
libdigikamcore.so.7.3.0:_ZN7Digikam13BackendMarbleC1ERK28QExplicitlySharedDataPointerINS_18GeoIfaceSharedDataEEP7QObject
libdigikamcore.so.7.3.0:_ZN7Digikam13BackendMarbleC2ERK28QExplicitlySharedDataPointerINS_18GeoIfaceSharedDataEEP7QObject
libdigikamcore.so.7.3.0:_ZN7Digikam13BackendMarbleD0Ev
libdigikamcore.so.7.3.0:_ZN7Digikam13BackendMarbleD1Ev
libdigikamcore.so.7.3.0:_ZN7Digikam13BackendMarbleD2Ev
libdigikamcore.so.7.3.0:_ZN7Digikam13CaptionValuesC1Ev
libdigikamcore.so.7.3.0:_ZN7Digikam13CaptionValuesC2Ev
libdigikamcore.so.7.3.0:_ZN7Digikam13CaptionValuesD1Ev
libdigikamcore.so.7.3.0:_ZN7Digikam13CaptionValuesD2Ev
libdigikamcore.so.7.3.0:_ZN7Digikam13ColorFXFilter10applyLut3DEv
libdigikamcore.so.7.3.0:_ZN7Digikam13ColorFXFilter11filterImageEv
libdigikamcore.so.7.3.0:_ZN7Digikam13ColorFXFilter11qt_metacallEN11QMetaObject4CallEiPPv
libdigikamcore.so.7.3.0:_ZN7Digikam13ColorFXFilter11qt_metacastEPKc
libdigikamcore.so.7.3.0:_ZN7Digikam13ColorFXFilter12filterActionEv
libdigikamcore.so.7.3.0:_ZN7Digikam13ColorFXFilter13neonFindEdgesEPNS_4DImgES2_bii
libdigikamcore.so.7.3.0:_ZN7Digikam13ColorFXFilter14readParametersERKNS_12FilterActionE
libdigikamcore.so.7.3.0:_ZN7Digikam13ColorFXFilter15DisplayableNameEv
libdigikamcore.so.7.3.0:_ZN7Digikam13ColorFXFilter16staticMetaObjectE
libdigikamcore.so.7.3.0:_ZN7Digikam13ColorFXFilter4neonEPNS_4DImgES2_ii
libdigikamcore.so.7.3.0:_ZN7Digikam13ColorFXFilter5vividEPNS_4DImgES2_i
libdigikamcore.so.7.3.0:_ZN7Digikam13ColorFXFilter8solarizeEPNS_4DImgES2_i
libdigikamcore.so.7.3.0:_ZN7Digikam13ColorFXFilter9findEdgesEPNS_4DImgES2_ii
libdigikamcore.so.7.3.0:_ZN7Digikam13ColorFXFilter9loadLut3DERK7QString
libdigikamcore.so.7.3.0:_ZN7Digikam13ColorFXFilterC1EP7QObject
libdigikamcore.so.7.3.0:_ZN7Digikam13ColorFXFilterC1EPNS_4DImgEP7QObjectRKNS_16ColorFXContainerE
libdigikamcore.so.7.3.0:_ZN7Digikam13ColorFXFilterC2EP7QObject
libdigikamcore.so.7.3.0:_ZN7Digikam13ColorFXFilterC2EPNS_4DImgEP7QObjectRKNS_16ColorFXContainerE
libdigikamcore.so.7.3.0:_ZN7Digikam13ColorFXFilterD0Ev
libdigikamcore.so.7.3.0:_ZN7Digikam13ColorFXFilterD1Ev
libdigikamcore.so.7.3.0:_ZN7Digikam13ColorFXFilterD2Ev
libdigikamcore.so.7.3.0:_ZN7Digikam13DBinarySearch11qt_metacallEN11QMetaObject4CallEiPPv
libdigikamcore.so.7.3.0:_ZN7Digikam13DBinarySearch11qt_metacastEPKc
libdigikamcore.so.7.3.0:_ZN7Digikam13DBinarySearch12addDirectoryERK7QString
libdigikamcore.so.7.3.0:_ZN7Digikam13DBinarySearch16allBinariesFoundEv
libdigikamcore.so.7.3.0:_ZN7Digikam13DBinarySearch16staticMetaObjectE
libdigikamcore.so.7.3.0:_ZN7Digikam13DBinarySearch18signalAddDirectoryERK7QString
libdigikamcore.so.7.3.0:_ZN7Digikam13DBinarySearch19signalBinariesFoundEb
libdigikamcore.so.7.3.0:_ZN7Digikam13DBinarySearch20slotAreBinariesFoundEv
libdigikamcore.so.7.3.0:_ZN7Digikam13DBinarySearch26signalAddPossibleDirectoryERK7QString
libdigikamcore.so.7.3.0:_ZN7Digikam13DBinarySearch9addBinaryERNS_12DBinaryIfaceE
libdigikamcore.so.7.3.0:_ZN7Digikam13DBinarySearchC1EP7QWidget
libdigikamcore.so.7.3.0:_ZN7Digikam13DBinarySearchC2EP7QWidget
libdigikamcore.so.7.3.0:_ZN7Digikam13DBinarySearchD0Ev
libdigikamcore.so.7.3.0:_ZN7Digikam13DBinarySearchD1Ev
libdigikamcore.so.7.3.0:_ZN7Digikam13DBinarySearchD2Ev
libdigikamcore.so.7.3.0:_ZN7Digikam13DConfigDlgWdg10addSubPageEPNS_17DConfigDlgWdgItemEP7QWidgetRK7QString
libdigikamcore.so.7.3.0:_ZN7Digikam13DConfigDlgWdg10addSubPageEPNS_17DConfigDlgWdgItemES2_
libdigikamcore.so.7.3.0:_ZN7Digikam13DConfigDlgWdg10insertPageEPNS_17DConfigDlgWdgItemEP7QWidgetRK7QString
libdigikamcore.so.7.3.0:_ZN7Digikam13DConfigDlgWdg10insertPageEPNS_17DConfigDlgWdgItemES2_
libdigikamcore.so.7.3.0:_ZN7Digikam13DConfigDlgWdg10removePageEPNS_17DConfigDlgWdgItemE
libdigikamcore.so.7.3.0:_ZN7Digikam13DConfigDlgWdg11pageRemovedEPNS_17DConfigDlgWdgItemE
libdigikamcore.so.7.3.0:_ZN7Digikam13DConfigDlgWdg11pageToggledEPNS_17DConfigDlgWdgItemEb
libdigikamcore.so.7.3.0:_ZN7Digikam13DConfigDlgWdg11qt_metacallEN11QMetaObject4CallEiPPv
libdigikamcore.so.7.3.0:_ZN7Digikam13DConfigDlgWdg11qt_metacastEPKc
libdigikamcore.so.7.3.0:_ZN7Digikam13DConfigDlgWdg14setCurrentPageEPNS_17DConfigDlgWdgItemE
libdigikamcore.so.7.3.0:_ZN7Digikam13DConfigDlgWdg16staticMetaObjectE
libdigikamcore.so.7.3.0:_ZN7Digikam13DConfigDlgWdg18currentPageChangedEPNS_17DConfigDlgWdgItemES2_
libdigikamcore.so.7.3.0:_ZN7Digikam13DConfigDlgWdg7addPageEP7QWidgetRK7QString
libdigikamcore.so.7.3.0:_ZN7Digikam13DConfigDlgWdg7addPageEPNS_17DConfigDlgWdgItemE
libdigikamcore.so.7.3.0:_ZN7Digikam13DConfigDlgWdgC1EP7QWidget
libdigikamcore.so.7.3.0:_ZN7Digikam13DConfigDlgWdgC1ERNS_20DConfigDlgWdgPrivateEP7QWidget
libdigikamcore.so.7.3.0:_ZN7Digikam13DConfigDlgWdgC2EP7QWidget
libdigikamcore.so.7.3.0:_ZN7Digikam13DConfigDlgWdgC2ERNS_20DConfigDlgWdgPrivateEP7QWidget
libdigikamcore.so.7.3.0:_ZN7Digikam13DConfigDlgWdgD0Ev
libdigikamcore.so.7.3.0:_ZN7Digikam13DConfigDlgWdgD1Ev
libdigikamcore.so.7.3.0:_ZN7Digikam13DConfigDlgWdgD2Ev
libdigikamcore.so.7.3.0:_ZN7Digikam13DFileSelector11qt_metacallEN11QMetaObject4CallEiPPv
libdigikamcore.so.7.3.0:_ZN7Digikam13DFileSelector11qt_metacastEPKc
libdigikamcore.so.7.3.0:_ZN7Digikam13DFileSelector14setFileDlgModeEN11QFileDialog8FileModeE
libdigikamcore.so.7.3.0:_ZN7Digikam13DFileSelector14setFileDlgPathERK7QString
libdigikamcore.so.7.3.0:_ZN7Digikam13DFileSelector14slotBtnClickedEv
libdigikamcore.so.7.3.0:_ZN7Digikam13DFileSelector15setFileDlgTitleERK7QString
libdigikamcore.so.7.3.0:_ZN7Digikam13DFileSelector16setFileDlgFilterERK7QString
libdigikamcore.so.7.3.0:_ZN7Digikam13DFileSelector16staticMetaObjectE
libdigikamcore.so.7.3.0:_ZN7Digikam13DFileSelector17setFileDlgOptionsE6QFlagsIN11QFileDialog6OptionEE
libdigikamcore.so.7.3.0:_ZN7Digikam13DFileSelector17signalUrlSelectedERK4QUrl
libdigikamcore.so.7.3.0:_ZN7Digikam13DFileSelector20signalOpenFileDialogEv
libdigikamcore.so.7.3.0:_ZN7Digikam13DFileSelectorC1EP7QWidget
libdigikamcore.so.7.3.0:_ZN7Digikam13DFileSelectorC2EP7QWidget
libdigikamcore.so.7.3.0:_ZN7Digikam13DFileSelectorD0Ev
libdigikamcore.so.7.3.0:_ZN7Digikam13DFileSelectorD1Ev
libdigikamcore.so.7.3.0:_ZN7Digikam13DFileSelectorD2Ev
libdigikamcore.so.7.3.0:_ZN7Digikam13DImageHistory10removeLastEv
libdigikamcore.so.7.3.0:_ZN7Digikam13DImageHistory14referredImagesEi
libdigikamcore.so.7.3.0:_ZN7Digikam13DImageHistory17adjustCurrentUuidERK7QString
libdigikamcore.so.7.3.0:_ZN7Digikam13DImageHistory19appendReferredImageERKNS_14HistoryImageIdE
libdigikamcore.so.7.3.0:_ZN7Digikam13DImageHistory19clearReferredImagesEv
libdigikamcore.so.7.3.0:_ZN7Digikam13DImageHistory19insertReferredImageEiRKNS_14HistoryImageIdE
libdigikamcore.so.7.3.0:_ZN7Digikam13DImageHistory20adjustReferredImagesEv
libdigikamcore.so.7.3.0:_ZN7Digikam13DImageHistory24moveCurrentReferredImageERK7QStringS3_
libdigikamcore.so.7.3.0:_ZN7Digikam13DImageHistory27purgePathFromReferredImagesERK7QStringS3_
libdigikamcore.so.7.3.0:_ZN7Digikam13DImageHistory7entriesEv
libdigikamcore.so.7.3.0:_ZN7Digikam13DImageHistory7fromXmlERK7QString
libdigikamcore.so.7.3.0:_ZN7Digikam13DImageHistoryC1ERKS0_
libdigikamcore.so.7.3.0:_ZN7Digikam13DImageHistoryC1Ev
libdigikamcore.so.7.3.0:_ZN7Digikam13DImageHistoryC2ERKS0_
libdigikamcore.so.7.3.0:_ZN7Digikam13DImageHistoryC2Ev
libdigikamcore.so.7.3.0:_ZN7Digikam13DImageHistoryD1Ev
libdigikamcore.so.7.3.0:_ZN7Digikam13DImageHistoryD2Ev
libdigikamcore.so.7.3.0:_ZN7Digikam13DImageHistoryaSERKS0_
libdigikamcore.so.7.3.0:_ZN7Digikam13DImageHistoryixEi
libdigikamcore.so.7.3.0:_ZN7Digikam13DImageHistorylsERKNS_12FilterActionE
libdigikamcore.so.7.3.0:_ZN7Digikam13DImageHistorylsERKNS_14HistoryImageIdE
libdigikamcore.so.7.3.0:_ZN7Digikam13DImgChildItem10itemChangeEN13QGraphicsItem18GraphicsItemChangeERK8QVariant
libdigikamcore.so.7.3.0:_ZN7Digikam13DImgChildItem10updateSizeEv
libdigikamcore.so.7.3.0:_ZN7Digikam13DImgChildItem11qt_metacallEN11QMetaObject4CallEiPPv
libdigikamcore.so.7.3.0:_ZN7Digikam13DImgChildItem11qt_metacastEPKc
libdigikamcore.so.7.3.0:_ZN7Digikam13DImgChildItem11sizeChangedEv
libdigikamcore.so.7.3.0:_ZN7Digikam13DImgChildItem14setOriginalPosERK7QPointF
libdigikamcore.so.7.3.0:_ZN7Digikam13DImgChildItem14setRelativePosERK7QPointF
libdigikamcore.so.7.3.0:_ZN7Digikam13DImgChildItem15geometryChangedEv
libdigikamcore.so.7.3.0:_ZN7Digikam13DImgChildItem15positionChangedEv
libdigikamcore.so.7.3.0:_ZN7Digikam13DImgChildItem15setOriginalRectERK6QRectF
libdigikamcore.so.7.3.0:_ZN7Digikam13DImgChildItem15setOriginalSizeERK6QSizeF
libdigikamcore.so.7.3.0:_ZN7Digikam13DImgChildItem15setRelativeRectERK6QRectF
libdigikamcore.so.7.3.0:_ZN7Digikam13DImgChildItem15setRelativeSizeERK6QSizeF
libdigikamcore.so.7.3.0:_ZN7Digikam13DImgChildItem16imageSizeChangedERK6QSizeF
libdigikamcore.so.7.3.0:_ZN7Digikam13DImgChildItem16staticMetaObjectE
libdigikamcore.so.7.3.0:_ZN7Digikam13DImgChildItem18sizeOnImageChangedEv
libdigikamcore.so.7.3.0:_ZN7Digikam13DImgChildItem22geometryOnImageChangedEv
libdigikamcore.so.7.3.0:_ZN7Digikam13DImgChildItem22positionOnImageChangedEv
libdigikamcore.so.7.3.0:_ZN7Digikam13DImgChildItem25setRectInSceneCoordinatesERK6QRectF
libdigikamcore.so.7.3.0:_ZN7Digikam13DImgChildItem6setPosERK7QPointF
libdigikamcore.so.7.3.0:_ZN7Digikam13DImgChildItem7setRectERK6QRectF
libdigikamcore.so.7.3.0:_ZN7Digikam13DImgChildItem7setSizeERK6QSizeF
libdigikamcore.so.7.3.0:_ZN7Digikam13DImgChildItem9updatePosEv
libdigikamcore.so.7.3.0:_ZN7Digikam13DImgChildItemC1EP13QGraphicsItem
libdigikamcore.so.7.3.0:_ZN7Digikam13DImgChildItemC2EP13QGraphicsItem
libdigikamcore.so.7.3.0:_ZN7Digikam13DImgChildItemD0Ev
libdigikamcore.so.7.3.0:_ZN7Digikam13DImgChildItemD1Ev
libdigikamcore.so.7.3.0:_ZN7Digikam13DImgChildItemD2Ev
libdigikamcore.so.7.3.0:_ZN7Digikam13DItemDelegate11clearCachesEv
libdigikamcore.so.7.3.0:_ZN7Digikam13DItemDelegate11qt_metacallEN11QMetaObject4CallEiPPv
libdigikamcore.so.7.3.0:_ZN7Digikam13DItemDelegate11qt_metacastEPKc
libdigikamcore.so.7.3.0:_ZN7Digikam13DItemDelegate12dateToStringERK9QDateTime
libdigikamcore.so.7.3.0:_ZN7Digikam13DItemDelegate12squeezedTextERK12QFontMetricsiRK7QString
libdigikamcore.so.7.3.0:_ZN7Digikam13DItemDelegate12visualChangeEv
libdigikamcore.so.7.3.0:_ZN7Digikam13DItemDelegate14makeDragPixmapERK20QStyleOptionViewItemRK5QListI11QModelIndexERK7QPixmap
libdigikamcore.so.7.3.0:_ZN7Digikam13DItemDelegate15gridSizeChangedERK5QSize
libdigikamcore.so.7.3.0:_ZN7Digikam13DItemDelegate16staticMetaObjectE
libdigikamcore.so.7.3.0:_ZN7Digikam13DItemDelegateC1EP7QObject
libdigikamcore.so.7.3.0:_ZN7Digikam13DItemDelegateC2EP7QObject
libdigikamcore.so.7.3.0:_ZN7Digikam13DItemDelegateD0Ev
libdigikamcore.so.7.3.0:_ZN7Digikam13DItemDelegateD1Ev
libdigikamcore.so.7.3.0:_ZN7Digikam13DItemDelegateD2Ev
libdigikamcore.so.7.3.0:_ZN7Digikam13DNGWriterHost13SniffForAbortEv
libdigikamcore.so.7.3.0:_ZN7Digikam13DNGWriterHostC1EPNS_9DNGWriter7PrivateEP20dng_memory_allocator
libdigikamcore.so.7.3.0:_ZN7Digikam13DNGWriterHostC2EPNS_9DNGWriter7PrivateEP20dng_memory_allocator
libdigikamcore.so.7.3.0:_ZN7Digikam13DNGWriterHostD0Ev
libdigikamcore.so.7.3.0:_ZN7Digikam13DNGWriterHostD1Ev
libdigikamcore.so.7.3.0:_ZN7Digikam13DNGWriterHostD2Ev
libdigikamcore.so.7.3.0:_ZN7Digikam13DPluginAction11qt_metacallEN11QMetaObject4CallEiPPv
libdigikamcore.so.7.3.0:_ZN7Digikam13DPluginAction11qt_metacastEPKc
libdigikamcore.so.7.3.0:_ZN7Digikam13DPluginAction16staticMetaObjectE
libdigikamcore.so.7.3.0:_ZN7Digikam13DPluginAction17setActionCategoryENS0_14ActionCategoryE
libdigikamcore.so.7.3.0:_ZN7Digikam13DPluginAction20pluginActionLessThanEPS0_S1_
libdigikamcore.so.7.3.0:_ZN7Digikam13DPluginActionC1EP7QObject
libdigikamcore.so.7.3.0:_ZN7Digikam13DPluginActionC2EP7QObject
libdigikamcore.so.7.3.0:_ZN7Digikam13DPluginActionD0Ev
libdigikamcore.so.7.3.0:_ZN7Digikam13DPluginActionD1Ev
libdigikamcore.so.7.3.0:_ZN7Digikam13DPluginActionD2Ev
libdigikamcore.so.7.3.0:_ZN7Digikam13DPluginAuthorC1ERK7QStringS3_S3_
libdigikamcore.so.7.3.0:_ZN7Digikam13DPluginAuthorC1ERK7QStringS3_S3_S3_
libdigikamcore.so.7.3.0:_ZN7Digikam13DPluginAuthorC2ERK7QStringS3_S3_
libdigikamcore.so.7.3.0:_ZN7Digikam13DPluginAuthorC2ERK7QStringS3_S3_S3_
libdigikamcore.so.7.3.0:_ZN7Digikam13DPluginAuthorD1Ev
libdigikamcore.so.7.3.0:_ZN7Digikam13DPluginAuthorD2Ev
libdigikamcore.so.7.3.0:_ZN7Digikam13DPluginDialog11qt_metacallEN11QMetaObject4CallEiPPv
libdigikamcore.so.7.3.0:_ZN7Digikam13DPluginDialog11qt_metacastEPKc
libdigikamcore.so.7.3.0:_ZN7Digikam13DPluginDialog14saveDialogSizeEv
libdigikamcore.so.7.3.0:_ZN7Digikam13DPluginDialog15slotAboutPluginEv
libdigikamcore.so.7.3.0:_ZN7Digikam13DPluginDialog16staticMetaObjectE
libdigikamcore.so.7.3.0:_ZN7Digikam13DPluginDialog17restoreDialogSizeEv
libdigikamcore.so.7.3.0:_ZN7Digikam13DPluginDialog9setPluginEPNS_7DPluginE
libdigikamcore.so.7.3.0:_ZN7Digikam13DPluginDialogC1EP7QWidgetRK7QString
libdigikamcore.so.7.3.0:_ZN7Digikam13DPluginDialogC2EP7QWidgetRK7QString
libdigikamcore.so.7.3.0:_ZN7Digikam13DPluginDialogD0Ev
libdigikamcore.so.7.3.0:_ZN7Digikam13DPluginDialogD1Ev
libdigikamcore.so.7.3.0:_ZN7Digikam13DPluginDialogD2Ev
libdigikamcore.so.7.3.0:_ZN7Digikam13DPluginEditor10setVisibleEb
libdigikamcore.so.7.3.0:_ZN7Digikam13DPluginEditor11qt_metacallEN11QMetaObject4CallEiPPv
libdigikamcore.so.7.3.0:_ZN7Digikam13DPluginEditor11qt_metacastEPKc
libdigikamcore.so.7.3.0:_ZN7Digikam13DPluginEditor16staticMetaObjectE
libdigikamcore.so.7.3.0:_ZN7Digikam13DPluginEditor9addActionEPNS_13DPluginActionE
libdigikamcore.so.7.3.0:_ZN7Digikam13DPluginEditorC1EP7QObject
libdigikamcore.so.7.3.0:_ZN7Digikam13DPluginEditorC2EP7QObject
libdigikamcore.so.7.3.0:_ZN7Digikam13DPluginEditorD0Ev
libdigikamcore.so.7.3.0:_ZN7Digikam13DPluginEditorD1Ev
libdigikamcore.so.7.3.0:_ZN7Digikam13DPluginEditorD2Ev
libdigikamcore.so.7.3.0:_ZN7Digikam13DPluginLoader11qt_metacallEN11QMetaObject4CallEiPPv
libdigikamcore.so.7.3.0:_ZN7Digikam13DPluginLoader11qt_metacastEPKc
libdigikamcore.so.7.3.0:_ZN7Digikam13DPluginLoader16staticMetaObjectE
libdigikamcore.so.7.3.0:_ZN7Digikam13DPluginLoader21registerEditorPluginsEP7QObject
libdigikamcore.so.7.3.0:_ZN7Digikam13DPluginLoader22registerGenericPluginsEP7QObject
libdigikamcore.so.7.3.0:_ZN7Digikam13DPluginLoader23appendPluginToBlackListERK7QString
libdigikamcore.so.7.3.0:_ZN7Digikam13DPluginLoader23appendPluginToWhiteListERK7QString
libdigikamcore.so.7.3.0:_ZN7Digikam13DPluginLoader24registerRawImportPluginsEP7QObject
libdigikamcore.so.7.3.0:_ZN7Digikam13DPluginLoader4initEv
libdigikamcore.so.7.3.0:_ZN7Digikam13DPluginLoader7cleanUpEv
libdigikamcore.so.7.3.0:_ZN7Digikam13DPluginLoader8instanceEv
libdigikamcore.so.7.3.0:_ZN7Digikam13DPluginLoaderC1Ev
libdigikamcore.so.7.3.0:_ZN7Digikam13DPluginLoaderC2Ev
libdigikamcore.so.7.3.0:_ZN7Digikam13DPluginLoaderD0Ev
libdigikamcore.so.7.3.0:_ZN7Digikam13DPluginLoaderD1Ev
libdigikamcore.so.7.3.0:_ZN7Digikam13DPluginLoaderD2Ev
libdigikamcore.so.7.3.0:_ZN7Digikam13DPreviewImage10enterEventEP6QEvent
libdigikamcore.so.7.3.0:_ZN7Digikam13DPreviewImage10leaveEventEP6QEvent
libdigikamcore.so.7.3.0:_ZN7Digikam13DPreviewImage10slotSetBRXEf
libdigikamcore.so.7.3.0:_ZN7Digikam13DPreviewImage10slotSetBRYEf
libdigikamcore.so.7.3.0:_ZN7Digikam13DPreviewImage10slotSetTLXEf
libdigikamcore.so.7.3.0:_ZN7Digikam13DPreviewImage10slotSetTLYEf
libdigikamcore.so.7.3.0:_ZN7Digikam13DPreviewImage10slotZoomInEv
libdigikamcore.so.7.3.0:_ZN7Digikam13DPreviewImage10wheelEventEP11QWheelEvent
libdigikamcore.so.7.3.0:_ZN7Digikam13DPreviewImage11eventFilterEP7QObjectP6QEvent
libdigikamcore.so.7.3.0:_ZN7Digikam13DPreviewImage11qt_metacallEN11QMetaObject4CallEiPPv
libdigikamcore.so.7.3.0:_ZN7Digikam13DPreviewImage11qt_metacastEPKc
libdigikamcore.so.7.3.0:_ZN7Digikam13DPreviewImage11resizeEventEP12QResizeEvent
libdigikamcore.so.7.3.0:_ZN7Digikam13DPreviewImage11slotZoomOutEv
libdigikamcore.so.7.3.0:_ZN7Digikam13DPreviewImage12slotZoom2FitEv
libdigikamcore.so.7.3.0:_ZN7Digikam13DPreviewImage14mouseMoveEventEP11QMouseEvent
libdigikamcore.so.7.3.0:_ZN7Digikam13DPreviewImage15mousePressEventEP11QMouseEvent
libdigikamcore.so.7.3.0:_ZN7Digikam13DPreviewImage15updateHighlightEv
libdigikamcore.so.7.3.0:_ZN7Digikam13DPreviewImage16setSelectionAreaERK6QRectF
libdigikamcore.so.7.3.0:_ZN7Digikam13DPreviewImage16slotSetSelectionEffff
libdigikamcore.so.7.3.0:_ZN7Digikam13DPreviewImage16staticMetaObjectE
libdigikamcore.so.7.3.0:_ZN7Digikam13DPreviewImage17mouseReleaseEventEP11QMouseEvent
libdigikamcore.so.7.3.0:_ZN7Digikam13DPreviewImage18slotClearHighlightEv
libdigikamcore.so.7.3.0:_ZN7Digikam13DPreviewImage19enableSelectionAreaEb
libdigikamcore.so.7.3.0:_ZN7Digikam13DPreviewImage19updateSelVisibilityEv
libdigikamcore.so.7.3.0:_ZN7Digikam13DPreviewImage20slotSetHighlightAreaEffff
libdigikamcore.so.7.3.0:_ZN7Digikam13DPreviewImage21slotSetHighlightShownEiRK6QColor
libdigikamcore.so.7.3.0:_ZN7Digikam13DPreviewImage24slotClearActiveSelectionEv
libdigikamcore.so.7.3.0:_ZN7Digikam13DPreviewImageC1EP7QWidget
libdigikamcore.so.7.3.0:_ZN7Digikam13DPreviewImageC2EP7QWidget
libdigikamcore.so.7.3.0:_ZN7Digikam13DPreviewImageD0Ev
libdigikamcore.so.7.3.0:_ZN7Digikam13DPreviewImageD1Ev
libdigikamcore.so.7.3.0:_ZN7Digikam13DPreviewImageD2Ev
libdigikamcore.so.7.3.0:_ZN7Digikam13DSplashScreen10setMessageERK7QString
libdigikamcore.so.7.3.0:_ZN7Digikam13DSplashScreen11qt_metacallEN11QMetaObject4CallEiPPv
libdigikamcore.so.7.3.0:_ZN7Digikam13DSplashScreen11qt_metacastEPKc
libdigikamcore.so.7.3.0:_ZN7Digikam13DSplashScreen11slotAnimateEv
libdigikamcore.so.7.3.0:_ZN7Digikam13DSplashScreen12drawContentsEP8QPainter
libdigikamcore.so.7.3.0:_ZN7Digikam13DSplashScreen12setAlignmentEi
libdigikamcore.so.7.3.0:_ZN7Digikam13DSplashScreen16staticMetaObjectE
libdigikamcore.so.7.3.0:_ZN7Digikam13DSplashScreen8setColorERK6QColor
libdigikamcore.so.7.3.0:_ZN7Digikam13DSplashScreenC1Ev
libdigikamcore.so.7.3.0:_ZN7Digikam13DSplashScreenC2Ev
libdigikamcore.so.7.3.0:_ZN7Digikam13DSplashScreenD0Ev
libdigikamcore.so.7.3.0:_ZN7Digikam13DSplashScreenD1Ev
libdigikamcore.so.7.3.0:_ZN7Digikam13DSplashScreenD2Ev
libdigikamcore.so.7.3.0:_ZN7Digikam13DXmlGuiWindow10closeEventEP11QCloseEvent
libdigikamcore.so.7.3.0:_ZN7Digikam13DXmlGuiWindow11eventFilterEP7QObjectP6QEvent
libdigikamcore.so.7.3.0:_ZN7Digikam13DXmlGuiWindow11qt_metacallEN11QMetaObject4CallEiPPv
libdigikamcore.so.7.3.0:_ZN7Digikam13DXmlGuiWindow11qt_metacastEPKc
libdigikamcore.so.7.3.0:_ZN7Digikam13DXmlGuiWindow12openHandbookEv
libdigikamcore.so.7.3.0:_ZN7Digikam13DXmlGuiWindow12showSideBarsEb
libdigikamcore.so.7.3.0:_ZN7Digikam13DXmlGuiWindow12showThumbBarEb
libdigikamcore.so.7.3.0:_ZN7Digikam13DXmlGuiWindow12showToolBarsEb
libdigikamcore.so.7.3.0:_ZN7Digikam13DXmlGuiWindow13keyPressEventEP9QKeyEvent
libdigikamcore.so.7.3.0:_ZN7Digikam13DXmlGuiWindow14buildStdActionENS_13StdActionTypeEPK7QObjectPKcPS2_
libdigikamcore.so.7.3.0:_ZN7Digikam13DXmlGuiWindow14cleanupActionsEv
libdigikamcore.so.7.3.0:_ZN7Digikam13DXmlGuiWindow14saveWindowSizeEP7QWindowR12KConfigGroup
libdigikamcore.so.7.3.0:_ZN7Digikam13DXmlGuiWindow14setupIconThemeEv
libdigikamcore.so.7.3.0:_ZN7Digikam13DXmlGuiWindow14slotContributeEv
libdigikamcore.so.7.3.0:_ZN7Digikam13DXmlGuiWindow15slotDonateMoneyEv
libdigikamcore.so.7.3.0:_ZN7Digikam13DXmlGuiWindow15slotRecipesBookEv
libdigikamcore.so.7.3.0:_ZN7Digikam13DXmlGuiWindow15slotShowMenuBarEv
libdigikamcore.so.7.3.0:_ZN7Digikam13DXmlGuiWindow16slotConfToolbarsEv
libdigikamcore.so.7.3.0:_ZN7Digikam13DXmlGuiWindow16slotHelpContentsEv
libdigikamcore.so.7.3.0:_ZN7Digikam13DXmlGuiWindow16staticMetaObjectE
libdigikamcore.so.7.3.0:_ZN7Digikam13DXmlGuiWindow17createHelpActionsEb
libdigikamcore.so.7.3.0:_ZN7Digikam13DXmlGuiWindow17restoreWindowSizeEP7QWindowRK12KConfigGroup
libdigikamcore.so.7.3.0:_ZN7Digikam13DXmlGuiWindow17slotRawCameraListEv
libdigikamcore.so.7.3.0:_ZN7Digikam13DXmlGuiWindow17slotShowStatusBarEv
libdigikamcore.so.7.3.0:_ZN7Digikam13DXmlGuiWindow18setConfigGroupNameERK7QString
libdigikamcore.so.7.3.0:_ZN7Digikam13DXmlGuiWindow20createSidebarActionsEv
libdigikamcore.so.7.3.0:_ZN7Digikam13DXmlGuiWindow20setFullScreenOptionsEi
libdigikamcore.so.7.3.0:_ZN7Digikam13DXmlGuiWindow20slotNewToolbarConfigEv
libdigikamcore.so.7.3.0:_ZN7Digikam13DXmlGuiWindow20slotToggleFullScreenEb
libdigikamcore.so.7.3.0:_ZN7Digikam13DXmlGuiWindow21createSettingsActionsEv
libdigikamcore.so.7.3.0:_ZN7Digikam13DXmlGuiWindow21editKeyboardShortcutsEP17KActionCollectionRK7QString
libdigikamcore.so.7.3.0:_ZN7Digikam13DXmlGuiWindow21slotConfNotificationsEv
libdigikamcore.so.7.3.0:_ZN7Digikam13DXmlGuiWindow21slotSolidHardwareListEv
libdigikamcore.so.7.3.0:_ZN7Digikam13DXmlGuiWindow22createFullScreenActionERK7QString
libdigikamcore.so.7.3.0:_ZN7Digikam13DXmlGuiWindow22readFullScreenSettingsERK12KConfigGroup
libdigikamcore.so.7.3.0:_ZN7Digikam13DXmlGuiWindow22registerPluginsActionsEv
libdigikamcore.so.7.3.0:_ZN7Digikam13DXmlGuiWindow24customizedFullScreenModeEb
libdigikamcore.so.7.3.0:_ZN7Digikam13DXmlGuiWindowC1EP7QWidget6QFlagsIN2Qt10WindowTypeEE
libdigikamcore.so.7.3.0:_ZN7Digikam13DXmlGuiWindowC2EP7QWidget6QFlagsIN2Qt10WindowTypeEE
libdigikamcore.so.7.3.0:_ZN7Digikam13DXmlGuiWindowD0Ev
libdigikamcore.so.7.3.0:_ZN7Digikam13DXmlGuiWindowD1Ev
libdigikamcore.so.7.3.0:_ZN7Digikam13DXmlGuiWindowD2Ev
libdigikamcore.so.7.3.0:_ZN7Digikam13DynamicThread11qt_metacallEN11QMetaObject4CallEiPPv
libdigikamcore.so.7.3.0:_ZN7Digikam13DynamicThread11qt_metacastEPKc
libdigikamcore.so.7.3.0:_ZN7Digikam13DynamicThread11setPriorityEN7QThread8PriorityE
libdigikamcore.so.7.3.0:_ZN7Digikam13DynamicThread14setEmitSignalsEb
libdigikamcore.so.7.3.0:_ZN7Digikam13DynamicThread16staticMetaObjectE
libdigikamcore.so.7.3.0:_ZN7Digikam13DynamicThread4stopER12QMutexLocker
libdigikamcore.so.7.3.0:_ZN7Digikam13DynamicThread4stopEv
libdigikamcore.so.7.3.0:_ZN7Digikam13DynamicThread4waitER12QMutexLocker
libdigikamcore.so.7.3.0:_ZN7Digikam13DynamicThread4waitEv
libdigikamcore.so.7.3.0:_ZN7Digikam13DynamicThread5startER12QMutexLocker
libdigikamcore.so.7.3.0:_ZN7Digikam13DynamicThread5startEv
libdigikamcore.so.7.3.0:_ZN7Digikam13DynamicThread8finishedEv
libdigikamcore.so.7.3.0:_ZN7Digikam13DynamicThread8shutDownEv
libdigikamcore.so.7.3.0:_ZN7Digikam13DynamicThread8startingEv
libdigikamcore.so.7.3.0:_ZN7Digikam13DynamicThreadC1EP7QObject
libdigikamcore.so.7.3.0:_ZN7Digikam13DynamicThreadC2EP7QObject
libdigikamcore.so.7.3.0:_ZN7Digikam13DynamicThreadD0Ev
libdigikamcore.so.7.3.0:_ZN7Digikam13DynamicThreadD1Ev
libdigikamcore.so.7.3.0:_ZN7Digikam13DynamicThreadD2Ev
libdigikamcore.so.7.3.0:_ZN7Digikam13EffectPreview11qt_metacallEN11QMetaObject4CallEiPPv
libdigikamcore.so.7.3.0:_ZN7Digikam13EffectPreview11qt_metacastEPKc
libdigikamcore.so.7.3.0:_ZN7Digikam13EffectPreview11slotRestartEv
libdigikamcore.so.7.3.0:_ZN7Digikam13EffectPreview11stopPreviewEv
libdigikamcore.so.7.3.0:_ZN7Digikam13EffectPreview12startPreviewENS_10EffectMngr10EffectTypeE
libdigikamcore.so.7.3.0:_ZN7Digikam13EffectPreview13setImagesListERK5QListI4QUrlE
libdigikamcore.so.7.3.0:_ZN7Digikam13EffectPreview16staticMetaObjectE
libdigikamcore.so.7.3.0:_ZN7Digikam13EffectPreview18slotProgressEffectEv
libdigikamcore.so.7.3.0:_ZN7Digikam13EffectPreviewC1EP7QWidget
libdigikamcore.so.7.3.0:_ZN7Digikam13EffectPreviewC2EP7QWidget
libdigikamcore.so.7.3.0:_ZN7Digikam13EffectPreviewD0Ev
libdigikamcore.so.7.3.0:_ZN7Digikam13EffectPreviewD1Ev
libdigikamcore.so.7.3.0:_ZN7Digikam13EffectPreviewD2Ev
libdigikamcore.so.7.3.0:_ZN7Digikam13FilmContainer10profileMapE
libdigikamcore.so.7.3.0:_ZN7Digikam13FilmContainer11setExposureEd
libdigikamcore.so.7.3.0:_ZN7Digikam13FilmContainer13setSixteenBitEb
libdigikamcore.so.7.3.0:_ZN7Digikam13FilmContainer13setWhitePointERKNS_6DColorE
libdigikamcore.so.7.3.0:_ZN7Digikam13FilmContainer15profileItemListEP11QListWidget
libdigikamcore.so.7.3.0:_ZN7Digikam13FilmContainer15setApplyBalanceEb
libdigikamcore.so.7.3.0:_ZN7Digikam13FilmContainer21profileMapInitializerEv
libdigikamcore.so.7.3.0:_ZN7Digikam13FilmContainer8setGammaEd
libdigikamcore.so.7.3.0:_ZN7Digikam13FilmContainer9setCNTypeENS0_13CNFilmProfileE
libdigikamcore.so.7.3.0:_ZN7Digikam13FilmContainerC1ENS0_13CNFilmProfileEdb
libdigikamcore.so.7.3.0:_ZN7Digikam13FilmContainerC1Ev
libdigikamcore.so.7.3.0:_ZN7Digikam13FilmContainerC2ENS0_13CNFilmProfileEdb
libdigikamcore.so.7.3.0:_ZN7Digikam13FilmContainerC2Ev
libdigikamcore.so.7.3.0:_ZN7Digikam13HotPixelFixer11filterImageEv
libdigikamcore.so.7.3.0:_ZN7Digikam13HotPixelFixer11interpolateERNS_4DImgERNS_13HotPixelPropsEi
libdigikamcore.so.7.3.0:_ZN7Digikam13HotPixelFixer11qt_metacallEN11QMetaObject4CallEiPPv
libdigikamcore.so.7.3.0:_ZN7Digikam13HotPixelFixer11qt_metacastEPKc
libdigikamcore.so.7.3.0:_ZN7Digikam13HotPixelFixer12filterActionEv
libdigikamcore.so.7.3.0:_ZN7Digikam13HotPixelFixer12weightPixelsERNS_4DImgERNS_13HotPixelPropsEiNS_17HotPixelContainer9DirectionEi
libdigikamcore.so.7.3.0:_ZN7Digikam13HotPixelFixer14readParametersERKNS_12FilterActionE
libdigikamcore.so.7.3.0:_ZN7Digikam13HotPixelFixer15DisplayableNameEv
libdigikamcore.so.7.3.0:_ZN7Digikam13HotPixelFixer16staticMetaObjectE
libdigikamcore.so.7.3.0:_ZN7Digikam13HotPixelFixerC1EP7QObject
libdigikamcore.so.7.3.0:_ZN7Digikam13HotPixelFixerC1EPNS_4DImgEP7QObjectRKNS_17HotPixelContainerE
libdigikamcore.so.7.3.0:_ZN7Digikam13HotPixelFixerC2EP7QObject
libdigikamcore.so.7.3.0:_ZN7Digikam13HotPixelFixerC2EPNS_4DImgEP7QObjectRKNS_17HotPixelContainerE
libdigikamcore.so.7.3.0:_ZN7Digikam13HotPixelFixerD0Ev
libdigikamcore.so.7.3.0:_ZN7Digikam13HotPixelFixerD1Ev
libdigikamcore.so.7.3.0:_ZN7Digikam13HotPixelFixerD2Ev
libdigikamcore.so.7.3.0:_ZN7Digikam13HotPixelProps10fromStringERK7QString
libdigikamcore.so.7.3.0:_ZN7Digikam13HotPixelProps12toStringListERK5QListIS0_E
libdigikamcore.so.7.3.0:_ZN7Digikam13HotPixelProps14fromStringListERK11QStringList
libdigikamcore.so.7.3.0:_ZN7Digikam13LensFunFilter11filterImageEv
libdigikamcore.so.7.3.0:_ZN7Digikam13LensFunFilter11qt_metacallEN11QMetaObject4CallEiPPv
libdigikamcore.so.7.3.0:_ZN7Digikam13LensFunFilter11qt_metacastEPKc
libdigikamcore.so.7.3.0:_ZN7Digikam13LensFunFilter12filterActionEv
libdigikamcore.so.7.3.0:_ZN7Digikam13LensFunFilter14readParametersERKNS_12FilterActionE
libdigikamcore.so.7.3.0:_ZN7Digikam13LensFunFilter15DisplayableNameEv
libdigikamcore.so.7.3.0:_ZN7Digikam13LensFunFilter16staticMetaObjectE
libdigikamcore.so.7.3.0:_ZN7Digikam13LensFunFilter22filterCCAMultithreadedEjj
libdigikamcore.so.7.3.0:_ZN7Digikam13LensFunFilter22filterDSTMultithreadedEjj
libdigikamcore.so.7.3.0:_ZN7Digikam13LensFunFilter22filterVIGMultithreadedEjj
libdigikamcore.so.7.3.0:_ZN7Digikam13LensFunFilterC1EP7QObject
libdigikamcore.so.7.3.0:_ZN7Digikam13LensFunFilterC1EPNS_4DImgEP7QObjectRKNS_16LensFunContainerE
libdigikamcore.so.7.3.0:_ZN7Digikam13LensFunFilterC2EP7QObject
libdigikamcore.so.7.3.0:_ZN7Digikam13LensFunFilterC2EPNS_4DImgEP7QObjectRKNS_16LensFunContainerE
libdigikamcore.so.7.3.0:_ZN7Digikam13LensFunFilterD0Ev
libdigikamcore.so.7.3.0:_ZN7Digikam13LensFunFilterD1Ev
libdigikamcore.so.7.3.0:_ZN7Digikam13LensFunFilterD2Ev
libdigikamcore.so.7.3.0:_ZN7Digikam13LookupFactory17getAltitudeLookupERK7QStringP7QObject
libdigikamcore.so.7.3.0:_ZN7Digikam13MetadataPanel11qt_metacallEN11QMetaObject4CallEiPPv
libdigikamcore.so.7.3.0:_ZN7Digikam13MetadataPanel11qt_metacastEPKc
libdigikamcore.so.7.3.0:_ZN7Digikam13MetadataPanel13applySettingsEv
libdigikamcore.so.7.3.0:_ZN7Digikam13MetadataPanel14slotTabChangedEi
libdigikamcore.so.7.3.0:_ZN7Digikam13MetadataPanel16defaultXmpFilterEv
libdigikamcore.so.7.3.0:_ZN7Digikam13MetadataPanel16staticMetaObjectE
libdigikamcore.so.7.3.0:_ZN7Digikam13MetadataPanel17defaultExifFilterEv
libdigikamcore.so.7.3.0:_ZN7Digikam13MetadataPanel17defaultIptcFilterEv
libdigikamcore.so.7.3.0:_ZN7Digikam13MetadataPanel19defaultMknoteFilterEv
libdigikamcore.so.7.3.0:_ZN7Digikam13MetadataPanel21defaultExifToolFilterEv
libdigikamcore.so.7.3.0:_ZN7Digikam13MetadataPanelC1EP10QTabWidget
libdigikamcore.so.7.3.0:_ZN7Digikam13MetadataPanelC2EP10QTabWidget
libdigikamcore.so.7.3.0:_ZN7Digikam13MetadataPanelD0Ev
libdigikamcore.so.7.3.0:_ZN7Digikam13MetadataPanelD1Ev
libdigikamcore.so.7.3.0:_ZN7Digikam13MetadataPanelD2Ev
libdigikamcore.so.7.3.0:_ZN7Digikam13MixerSettings11qt_metacallEN11QMetaObject4CallEiPPv
libdigikamcore.so.7.3.0:_ZN7Digikam13MixerSettings11qt_metacastEPKc
libdigikamcore.so.7.3.0:_ZN7Digikam13MixerSettings11setSettingsERKNS_14MixerContainerE
libdigikamcore.so.7.3.0:_ZN7Digikam13MixerSettings12loadSettingsEv
libdigikamcore.so.7.3.0:_ZN7Digikam13MixerSettings12readSettingsER12KConfigGroup
libdigikamcore.so.7.3.0:_ZN7Digikam13MixerSettings13writeSettingsER12KConfigGroup
libdigikamcore.so.7.3.0:_ZN7Digikam13MixerSettings14resetToDefaultEv
libdigikamcore.so.7.3.0:_ZN7Digikam13MixerSettings14saveAsSettingsEv
libdigikamcore.so.7.3.0:_ZN7Digikam13MixerSettings16slotGainsChangedEv
libdigikamcore.so.7.3.0:_ZN7Digikam13MixerSettings16staticMetaObjectE
libdigikamcore.so.7.3.0:_ZN7Digikam13MixerSettings19updateTotalPercentsEv
libdigikamcore.so.7.3.0:_ZN7Digikam13MixerSettings21signalSettingsChangedEv
libdigikamcore.so.7.3.0:_ZN7Digikam13MixerSettings21slotLuminosityChangedEb
libdigikamcore.so.7.3.0:_ZN7Digikam13MixerSettings21slotMonochromeActivedEb
libdigikamcore.so.7.3.0:_ZN7Digikam13MixerSettings21slotOutChannelChangedEv
libdigikamcore.so.7.3.0:_ZN7Digikam13MixerSettings21updateSettingsWidgetsEv
libdigikamcore.so.7.3.0:_ZN7Digikam13MixerSettings23signalMonochromeActivedEb
libdigikamcore.so.7.3.0:_ZN7Digikam13MixerSettings23signalOutChannelChangedEv
libdigikamcore.so.7.3.0:_ZN7Digikam13MixerSettings23slotResetCurrentChannelEv
libdigikamcore.so.7.3.0:_ZN7Digikam13MixerSettings24setMonochromeTipsVisibleEb
libdigikamcore.so.7.3.0:_ZN7Digikam13MixerSettingsC1EP7QWidget
libdigikamcore.so.7.3.0:_ZN7Digikam13MixerSettingsC2EP7QWidget
libdigikamcore.so.7.3.0:_ZN7Digikam13MixerSettingsD0Ev
libdigikamcore.so.7.3.0:_ZN7Digikam13MixerSettingsD1Ev
libdigikamcore.so.7.3.0:_ZN7Digikam13MixerSettingsD2Ev
libdigikamcore.so.7.3.0:_ZN7Digikam13OverlayWidget10repositionEv
libdigikamcore.so.7.3.0:_ZN7Digikam13OverlayWidget11eventFilterEP7QObjectP6QEvent
libdigikamcore.so.7.3.0:_ZN7Digikam13OverlayWidget11qt_metacallEN11QMetaObject4CallEiPPv
libdigikamcore.so.7.3.0:_ZN7Digikam13OverlayWidget11qt_metacastEPKc
libdigikamcore.so.7.3.0:_ZN7Digikam13OverlayWidget11resizeEventEP12QResizeEvent
libdigikamcore.so.7.3.0:_ZN7Digikam13OverlayWidget14setAlignWidgetEP7QWidget
libdigikamcore.so.7.3.0:_ZN7Digikam13OverlayWidget16staticMetaObjectE
libdigikamcore.so.7.3.0:_ZN7Digikam13OverlayWidgetC1EP7QWidgetS2_RK7QString
libdigikamcore.so.7.3.0:_ZN7Digikam13OverlayWidgetC2EP7QWidgetS2_RK7QString
libdigikamcore.so.7.3.0:_ZN7Digikam13OverlayWidgetD0Ev
libdigikamcore.so.7.3.0:_ZN7Digikam13OverlayWidgetD1Ev
libdigikamcore.so.7.3.0:_ZN7Digikam13OverlayWidgetD2Ev
libdigikamcore.so.7.3.0:_ZN7Digikam13PanIconWidget10paintEventEP11QPaintEvent
libdigikamcore.so.7.3.0:_ZN7Digikam13PanIconWidget11qt_metacallEN11QMetaObject4CallEiPPv
libdigikamcore.so.7.3.0:_ZN7Digikam13PanIconWidget11qt_metacastEPKc
libdigikamcore.so.7.3.0:_ZN7Digikam13PanIconWidget12signalHiddenEv
libdigikamcore.so.7.3.0:_ZN7Digikam13PanIconWidget13setMouseFocusEv
libdigikamcore.so.7.3.0:_ZN7Digikam13PanIconWidget14mouseMoveEventEP11QMouseEvent
libdigikamcore.so.7.3.0:_ZN7Digikam13PanIconWidget15mousePressEventEP11QMouseEvent
libdigikamcore.so.7.3.0:_ZN7Digikam13PanIconWidget16slotFlickerTimerEv
libdigikamcore.so.7.3.0:_ZN7Digikam13PanIconWidget16staticMetaObjectE
libdigikamcore.so.7.3.0:_ZN7Digikam13PanIconWidget17mouseReleaseEventEP11QMouseEvent
libdigikamcore.so.7.3.0:_ZN7Digikam13PanIconWidget18setCenterSelectionEv
libdigikamcore.so.7.3.0:_ZN7Digikam13PanIconWidget18setRegionSelectionERK5QRect
libdigikamcore.so.7.3.0:_ZN7Digikam13PanIconWidget20regionSelectionMovedEb
libdigikamcore.so.7.3.0:_ZN7Digikam13PanIconWidget20signalSelectionMovedERK5QRectb
libdigikamcore.so.7.3.0:_ZN7Digikam13PanIconWidget21slotZoomFactorChangedEd
libdigikamcore.so.7.3.0:_ZN7Digikam13PanIconWidget24signalSelectionTakeFocusEv
libdigikamcore.so.7.3.0:_ZN7Digikam13PanIconWidget37setCursorToLocalRegionSelectionCenterEv
libdigikamcore.so.7.3.0:_ZN7Digikam13PanIconWidget6buttonEv
libdigikamcore.so.7.3.0:_ZN7Digikam13PanIconWidget8setImageERK6QImageRK5QSize
libdigikamcore.so.7.3.0:_ZN7Digikam13PanIconWidget8setImageEiiRK6QImage
libdigikamcore.so.7.3.0:_ZN7Digikam13PanIconWidget8setImageEiiRKNS_4DImgE
libdigikamcore.so.7.3.0:_ZN7Digikam13PanIconWidget9hideEventEP10QHideEvent
libdigikamcore.so.7.3.0:_ZN7Digikam13PanIconWidget9showEventEP10QShowEvent
libdigikamcore.so.7.3.0:_ZN7Digikam13PanIconWidgetC1EP7QWidget
libdigikamcore.so.7.3.0:_ZN7Digikam13PanIconWidgetC2EP7QWidget
libdigikamcore.so.7.3.0:_ZN7Digikam13PanIconWidgetD0Ev
libdigikamcore.so.7.3.0:_ZN7Digikam13PanIconWidgetD1Ev
libdigikamcore.so.7.3.0:_ZN7Digikam13PanIconWidgetD2Ev
libdigikamcore.so.7.3.0:_ZN7Digikam13ProxyLineEdit10paintEventEP11QPaintEvent
libdigikamcore.so.7.3.0:_ZN7Digikam13ProxyLineEdit11changeEventEP6QEvent
libdigikamcore.so.7.3.0:_ZN7Digikam13ProxyLineEdit11qt_metacallEN11QMetaObject4CallEiPPv
libdigikamcore.so.7.3.0:_ZN7Digikam13ProxyLineEdit11qt_metacastEPKc
libdigikamcore.so.7.3.0:_ZN7Digikam13ProxyLineEdit12focusInEventEP11QFocusEvent
libdigikamcore.so.7.3.0:_ZN7Digikam13ProxyLineEdit13dragMoveEventEP14QDragMoveEvent
libdigikamcore.so.7.3.0:_ZN7Digikam13ProxyLineEdit13focusOutEventEP11QFocusEvent
libdigikamcore.so.7.3.0:_ZN7Digikam13ProxyLineEdit13keyPressEventEP9QKeyEvent
libdigikamcore.so.7.3.0:_ZN7Digikam13ProxyLineEdit14dragEnterEventEP15QDragEnterEvent
libdigikamcore.so.7.3.0:_ZN7Digikam13ProxyLineEdit14dragLeaveEventEP15QDragLeaveEvent
libdigikamcore.so.7.3.0:_ZN7Digikam13ProxyLineEdit14mouseMoveEventEP11QMouseEvent
libdigikamcore.so.7.3.0:_ZN7Digikam13ProxyLineEdit15mousePressEventEP11QMouseEvent
libdigikamcore.so.7.3.0:_ZN7Digikam13ProxyLineEdit15slotTextChangedERK7QString
libdigikamcore.so.7.3.0:_ZN7Digikam13ProxyLineEdit16contextMenuEventEP17QContextMenuEvent
libdigikamcore.so.7.3.0:_ZN7Digikam13ProxyLineEdit16inputMethodEventEP17QInputMethodEvent
libdigikamcore.so.7.3.0:_ZN7Digikam13ProxyLineEdit16staticMetaObjectE
libdigikamcore.so.7.3.0:_ZN7Digikam13ProxyLineEdit17mouseReleaseEventEP11QMouseEvent
libdigikamcore.so.7.3.0:_ZN7Digikam13ProxyLineEdit19setClearButtonShownEb
libdigikamcore.so.7.3.0:_ZN7Digikam13ProxyLineEdit21mouseDoubleClickEventEP11QMouseEvent
libdigikamcore.so.7.3.0:_ZN7Digikam13ProxyLineEdit24signalClearButtonPressedEv
libdigikamcore.so.7.3.0:_ZN7Digikam13ProxyLineEdit9dropEventEP10QDropEvent
libdigikamcore.so.7.3.0:_ZN7Digikam13ProxyLineEdit9setWidgetEP7QWidget
libdigikamcore.so.7.3.0:_ZN7Digikam13ProxyLineEditC1EP7QWidget
libdigikamcore.so.7.3.0:_ZN7Digikam13ProxyLineEditC2EP7QWidget
libdigikamcore.so.7.3.0:_ZN7Digikam13RefocusFilter11filterImageEv
libdigikamcore.so.7.3.0:_ZN7Digikam13RefocusFilter11qt_metacallEN11QMetaObject4CallEiPPv
libdigikamcore.so.7.3.0:_ZN7Digikam13RefocusFilter11qt_metacastEPKc
libdigikamcore.so.7.3.0:_ZN7Digikam13RefocusFilter12filterActionEv
libdigikamcore.so.7.3.0:_ZN7Digikam13RefocusFilter12refocusImageEPhiibidddd
libdigikamcore.so.7.3.0:_ZN7Digikam13RefocusFilter13convolveImageERKNS0_4ArgsE
libdigikamcore.so.7.3.0:_ZN7Digikam13RefocusFilter13maxMatrixSizeEv
libdigikamcore.so.7.3.0:_ZN7Digikam13RefocusFilter14readParametersERKNS_12FilterActionE
libdigikamcore.so.7.3.0:_ZN7Digikam13RefocusFilter15DisplayableNameEv
libdigikamcore.so.7.3.0:_ZN7Digikam13RefocusFilter16staticMetaObjectE
libdigikamcore.so.7.3.0:_ZN7Digikam13RefocusFilter26convolveImageMultithreadedEjjjRKNS0_4ArgsE
libdigikamcore.so.7.3.0:_ZN7Digikam13RefocusFilterC1EP7QObject
libdigikamcore.so.7.3.0:_ZN7Digikam13RefocusFilterC1EPNS_4DImgEP7QObjectidddd
libdigikamcore.so.7.3.0:_ZN7Digikam13RefocusFilterC2EP7QObject
libdigikamcore.so.7.3.0:_ZN7Digikam13RefocusFilterC2EPNS_4DImgEP7QObjectidddd
libdigikamcore.so.7.3.0:_ZN7Digikam13RefocusFilterD0Ev
libdigikamcore.so.7.3.0:_ZN7Digikam13RefocusFilterD1Ev
libdigikamcore.so.7.3.0:_ZN7Digikam13RefocusFilterD2Ev
libdigikamcore.so.7.3.0:_ZN7Digikam13SearchTextBar11doLoadStateEv
libdigikamcore.so.7.3.0:_ZN7Digikam13SearchTextBar11doSaveStateEv
libdigikamcore.so.7.3.0:_ZN7Digikam13SearchTextBar11qt_metacallEN11QMetaObject4CallEiPPv
libdigikamcore.so.7.3.0:_ZN7Digikam13SearchTextBar11qt_metacastEPKc
libdigikamcore.so.7.3.0:_ZN7Digikam13SearchTextBar13setIgnoreCaseEb
libdigikamcore.so.7.3.0:_ZN7Digikam13SearchTextBar15slotTextChangedEv
libdigikamcore.so.7.3.0:_ZN7Digikam13SearchTextBar16contextMenuEventEP17QContextMenuEvent
libdigikamcore.so.7.3.0:_ZN7Digikam13SearchTextBar16setCaseSensitiveEb
libdigikamcore.so.7.3.0:_ZN7Digikam13SearchTextBar16slotSearchResultEb
libdigikamcore.so.7.3.0:_ZN7Digikam13SearchTextBar16staticMetaObjectE
libdigikamcore.so.7.3.0:_ZN7Digikam13SearchTextBar18completerActivatedEv
libdigikamcore.so.7.3.0:_ZN7Digikam13SearchTextBar20completerHighlightedEi
libdigikamcore.so.7.3.0:_ZN7Digikam13SearchTextBar20setHighlightOnResultEb
libdigikamcore.so.7.3.0:_ZN7Digikam13SearchTextBar21setSearchTextSettingsERKNS_18SearchTextSettingsE
libdigikamcore.so.7.3.0:_ZN7Digikam13SearchTextBar22setTextQueryCompletionEb
libdigikamcore.so.7.3.0:_ZN7Digikam13SearchTextBar24signalSearchTextSettingsERKNS_18SearchTextSettingsE
libdigikamcore.so.7.3.0:_ZN7Digikam13SearchTextBarC1EP7QWidgetRK7QStringS5_
libdigikamcore.so.7.3.0:_ZN7Digikam13SearchTextBarC2EP7QWidgetRK7QStringS5_
libdigikamcore.so.7.3.0:_ZN7Digikam13SearchTextBarD0Ev
libdigikamcore.so.7.3.0:_ZN7Digikam13SearchTextBarD1Ev
libdigikamcore.so.7.3.0:_ZN7Digikam13SearchTextBarD2Ev
libdigikamcore.so.7.3.0:_ZN7Digikam13SharpSettings11qt_metacallEN11QMetaObject4CallEiPPv
libdigikamcore.so.7.3.0:_ZN7Digikam13SharpSettings11qt_metacastEPKc
libdigikamcore.so.7.3.0:_ZN7Digikam13SharpSettings11setSettingsERKNS_14SharpContainerE
libdigikamcore.so.7.3.0:_ZN7Digikam13SharpSettings12loadSettingsEv
libdigikamcore.so.7.3.0:_ZN7Digikam13SharpSettings12readSettingsER12KConfigGroup
libdigikamcore.so.7.3.0:_ZN7Digikam13SharpSettings13writeSettingsER12KConfigGroup
libdigikamcore.so.7.3.0:_ZN7Digikam13SharpSettings14resetToDefaultEv
libdigikamcore.so.7.3.0:_ZN7Digikam13SharpSettings14saveAsSettingsEv
libdigikamcore.so.7.3.0:_ZN7Digikam13SharpSettings16staticMetaObjectE
libdigikamcore.so.7.3.0:_ZN7Digikam13SharpSettings21signalSettingsChangedEv
libdigikamcore.so.7.3.0:_ZN7Digikam13SharpSettings22slotSharpMethodChangedEi
libdigikamcore.so.7.3.0:_ZN7Digikam13SharpSettingsC1EP7QWidget
libdigikamcore.so.7.3.0:_ZN7Digikam13SharpSettingsC2EP7QWidget
libdigikamcore.so.7.3.0:_ZN7Digikam13SharpSettingsD0Ev
libdigikamcore.so.7.3.0:_ZN7Digikam13SharpSettingsD1Ev
libdigikamcore.so.7.3.0:_ZN7Digikam13SharpSettingsD2Ev
libdigikamcore.so.7.3.0:_ZN7Digikam13SharpenFilter11filterImageEv
libdigikamcore.so.7.3.0:_ZN7Digikam13SharpenFilter11qt_metacallEN11QMetaObject4CallEiPPv
libdigikamcore.so.7.3.0:_ZN7Digikam13SharpenFilter11qt_metacastEPKc
libdigikamcore.so.7.3.0:_ZN7Digikam13SharpenFilter12filterActionEv
libdigikamcore.so.7.3.0:_ZN7Digikam13SharpenFilter12sharpenImageEdd
libdigikamcore.so.7.3.0:_ZN7Digikam13SharpenFilter13convolveImageEjPKd
libdigikamcore.so.7.3.0:_ZN7Digikam13SharpenFilter14readParametersERKNS_12FilterActionE
libdigikamcore.so.7.3.0:_ZN7Digikam13SharpenFilter15DisplayableNameEv
libdigikamcore.so.7.3.0:_ZN7Digikam13SharpenFilter16staticMetaObjectE
libdigikamcore.so.7.3.0:_ZN7Digikam13SharpenFilter21getOptimalKernelWidthEdd
libdigikamcore.so.7.3.0:_ZN7Digikam13SharpenFilter26convolveImageMultithreadedERKNS0_4ArgsE
libdigikamcore.so.7.3.0:_ZN7Digikam13SharpenFilterC1EP7QObject
libdigikamcore.so.7.3.0:_ZN7Digikam13SharpenFilterC1EPNS_18DImgThreadedFilterERKNS_4DImgES5_iidd
libdigikamcore.so.7.3.0:_ZN7Digikam13SharpenFilterC1EPNS_4DImgEP7QObjectdd
libdigikamcore.so.7.3.0:_ZN7Digikam13SharpenFilterC2EP7QObject
libdigikamcore.so.7.3.0:_ZN7Digikam13SharpenFilterC2EPNS_18DImgThreadedFilterERKNS_4DImgES5_iidd
libdigikamcore.so.7.3.0:_ZN7Digikam13SharpenFilterC2EPNS_4DImgEP7QObjectdd
libdigikamcore.so.7.3.0:_ZN7Digikam13SharpenFilterD0Ev
libdigikamcore.so.7.3.0:_ZN7Digikam13SharpenFilterD1Ev
libdigikamcore.so.7.3.0:_ZN7Digikam13SharpenFilterD2Ev
libdigikamcore.so.7.3.0:_ZN7Digikam13StretchFilter11filterImageEv
libdigikamcore.so.7.3.0:_ZN7Digikam13StretchFilter11qt_metacallEN11QMetaObject4CallEiPPv
libdigikamcore.so.7.3.0:_ZN7Digikam13StretchFilter11qt_metacastEPKc
libdigikamcore.so.7.3.0:_ZN7Digikam13StretchFilter12filterActionEv
libdigikamcore.so.7.3.0:_ZN7Digikam13StretchFilter14readParametersERKNS_12FilterActionE
libdigikamcore.so.7.3.0:_ZN7Digikam13StretchFilter15DisplayableNameEv
libdigikamcore.so.7.3.0:_ZN7Digikam13StretchFilter16staticMetaObjectE
libdigikamcore.so.7.3.0:_ZN7Digikam13StretchFilter20stretchContrastImageEv
libdigikamcore.so.7.3.0:_ZN7Digikam13StretchFilterC1EP7QObject
libdigikamcore.so.7.3.0:_ZN7Digikam13StretchFilterC1EPNS_4DImgEPKS1_P7QObject
libdigikamcore.so.7.3.0:_ZN7Digikam13StretchFilterC2EP7QObject
libdigikamcore.so.7.3.0:_ZN7Digikam13StretchFilterC2EPNS_4DImgEPKS1_P7QObject
libdigikamcore.so.7.3.0:_ZN7Digikam13StretchFilterD0Ev
libdigikamcore.so.7.3.0:_ZN7Digikam13StretchFilterD1Ev
libdigikamcore.so.7.3.0:_ZN7Digikam13StretchFilterD2Ev
libdigikamcore.so.7.3.0:_ZN7Digikam13SubjectWidget11qt_metacallEN11QMetaObject4CallEiPPv
libdigikamcore.so.7.3.0:_ZN7Digikam13SubjectWidget11qt_metacastEPKc
libdigikamcore.so.7.3.0:_ZN7Digikam13SubjectWidget14signalModifiedEv
libdigikamcore.so.7.3.0:_ZN7Digikam13SubjectWidget14slotAddSubjectEv
libdigikamcore.so.7.3.0:_ZN7Digikam13SubjectWidget14slotDelSubjectEv
libdigikamcore.so.7.3.0:_ZN7Digikam13SubjectWidget14slotRefChangedEv
libdigikamcore.so.7.3.0:_ZN7Digikam13SubjectWidget14slotRepSubjectEv
libdigikamcore.so.7.3.0:_ZN7Digikam13SubjectWidget15setSubjectsListERK11QStringList
libdigikamcore.so.7.3.0:_ZN7Digikam13SubjectWidget16staticMetaObjectE
libdigikamcore.so.7.3.0:_ZN7Digikam13SubjectWidget19slotSubjectsToggledEb
libdigikamcore.so.7.3.0:_ZN7Digikam13SubjectWidget21slotEditOptionChangedEi
libdigikamcore.so.7.3.0:_ZN7Digikam13SubjectWidget23loadSubjectCodesFromXMLERK4QUrl
libdigikamcore.so.7.3.0:_ZN7Digikam13SubjectWidget27slotSubjectSelectionChangedEv
libdigikamcore.so.7.3.0:_ZN7Digikam13SubjectWidgetC1EP7QWidgetb
libdigikamcore.so.7.3.0:_ZN7Digikam13SubjectWidgetC2EP7QWidgetb
libdigikamcore.so.7.3.0:_ZN7Digikam13SubjectWidgetD0Ev
libdigikamcore.so.7.3.0:_ZN7Digikam13SubjectWidgetD1Ev
libdigikamcore.so.7.3.0:_ZN7Digikam13SubjectWidgetD2Ev
libdigikamcore.so.7.3.0:_ZN7Digikam13TextureFilter11filterImageEv
libdigikamcore.so.7.3.0:_ZN7Digikam13TextureFilter11qt_metacallEN11QMetaObject4CallEiPPv
libdigikamcore.so.7.3.0:_ZN7Digikam13TextureFilter11qt_metacastEPKc
libdigikamcore.so.7.3.0:_ZN7Digikam13TextureFilter12filterActionEv
libdigikamcore.so.7.3.0:_ZN7Digikam13TextureFilter14readParametersERKNS_12FilterActionE
libdigikamcore.so.7.3.0:_ZN7Digikam13TextureFilter15DisplayableNameEv
libdigikamcore.so.7.3.0:_ZN7Digikam13TextureFilter16staticMetaObjectE
libdigikamcore.so.7.3.0:_ZN7Digikam13TextureFilterC1EP7QObject
libdigikamcore.so.7.3.0:_ZN7Digikam13TextureFilterC1EPNS_4DImgEP7QObjectRKNS_16TextureContainerE
libdigikamcore.so.7.3.0:_ZN7Digikam13TextureFilterC2EP7QObject
libdigikamcore.so.7.3.0:_ZN7Digikam13TextureFilterC2EPNS_4DImgEP7QObjectRKNS_16TextureContainerE
libdigikamcore.so.7.3.0:_ZN7Digikam13TextureFilterD0Ev
libdigikamcore.so.7.3.0:_ZN7Digikam13TextureFilterD1Ev
libdigikamcore.so.7.3.0:_ZN7Digikam13TextureFilterD2Ev
libdigikamcore.so.7.3.0:_ZN7Digikam13ThreadManager10initializeEPNS_12WorkerObjectE
libdigikamcore.so.7.3.0:_ZN7Digikam13ThreadManager10initializeEPNS_13DynamicThreadE
libdigikamcore.so.7.3.0:_ZN7Digikam13ThreadManager11qt_metacallEN11QMetaObject4CallEiPPv
libdigikamcore.so.7.3.0:_ZN7Digikam13ThreadManager11qt_metacastEPKc
libdigikamcore.so.7.3.0:_ZN7Digikam13ThreadManager13slotDestroyedEP7QObject
libdigikamcore.so.7.3.0:_ZN7Digikam13ThreadManager16staticMetaObjectE
libdigikamcore.so.7.3.0:_ZN7Digikam13ThreadManager8instanceEv
libdigikamcore.so.7.3.0:_ZN7Digikam13ThreadManager8scheduleEP9QRunnable
libdigikamcore.so.7.3.0:_ZN7Digikam13ThreadManager8scheduleEPNS_12WorkerObjectE
libdigikamcore.so.7.3.0:_ZN7Digikam13ThreadManagerC1Ev
libdigikamcore.so.7.3.0:_ZN7Digikam13ThreadManagerC2Ev
libdigikamcore.so.7.3.0:_ZN7Digikam13ThreadManagerD0Ev
libdigikamcore.so.7.3.0:_ZN7Digikam13ThreadManagerD1Ev
libdigikamcore.so.7.3.0:_ZN7Digikam13ThreadManagerD2Ev
libdigikamcore.so.7.3.0:_ZN7Digikam13ThumbnailInfoC1Ev
libdigikamcore.so.7.3.0:_ZN7Digikam13ThumbnailInfoC2Ev
libdigikamcore.so.7.3.0:_ZN7Digikam13ThumbnailSize12readSettingsERK12KConfigGroup
libdigikamcore.so.7.3.0:_ZN7Digikam13ThumbnailSize12saveSettingsER12KConfigGroupb
libdigikamcore.so.7.3.0:_ZN7Digikam13ThumbnailSize13maxThumbsSizeEv
libdigikamcore.so.7.3.0:_ZN7Digikam13ThumbnailSize17getUseLargeThumbsEv
libdigikamcore.so.7.3.0:_ZN7Digikam13ThumbnailSize17setUseLargeThumbsEb
libdigikamcore.so.7.3.0:_ZN7Digikam13ThumbnailSizeC1ERKS0_
libdigikamcore.so.7.3.0:_ZN7Digikam13ThumbnailSizeC1Ei
libdigikamcore.so.7.3.0:_ZN7Digikam13ThumbnailSizeC1Ev
libdigikamcore.so.7.3.0:_ZN7Digikam13ThumbnailSizeC2ERKS0_
libdigikamcore.so.7.3.0:_ZN7Digikam13ThumbnailSizeC2Ei
libdigikamcore.so.7.3.0:_ZN7Digikam13ThumbnailSizeC2Ev
libdigikamcore.so.7.3.0:_ZN7Digikam13ThumbnailSizeD1Ev
libdigikamcore.so.7.3.0:_ZN7Digikam13ThumbnailSizeD2Ev
libdigikamcore.so.7.3.0:_ZN7Digikam13ThumbnailSizeaSERKS0_
libdigikamcore.so.7.3.0:_ZN7Digikam13WSLoginDialog10slotAcceptEv
libdigikamcore.so.7.3.0:_ZN7Digikam13WSLoginDialog11qt_metacallEN11QMetaObject4CallEiPPv
libdigikamcore.so.7.3.0:_ZN7Digikam13WSLoginDialog11qt_metacastEPKc
libdigikamcore.so.7.3.0:_ZN7Digikam13WSLoginDialog11setPasswordERK7QString
libdigikamcore.so.7.3.0:_ZN7Digikam13WSLoginDialog16staticMetaObjectE
libdigikamcore.so.7.3.0:_ZN7Digikam13WSLoginDialog8setLoginERK7QString
libdigikamcore.so.7.3.0:_ZN7Digikam13WSLoginDialogC1EP7QWidgetRK7QStringS5_S5_
libdigikamcore.so.7.3.0:_ZN7Digikam13WSLoginDialogC2EP7QWidgetRK7QStringS5_S5_
libdigikamcore.so.7.3.0:_ZN7Digikam13WSLoginDialogD0Ev
libdigikamcore.so.7.3.0:_ZN7Digikam13WSLoginDialogD1Ev
libdigikamcore.so.7.3.0:_ZN7Digikam13WSLoginDialogD2Ev
libdigikamcore.so.7.3.0:_ZN7Digikam13WebBrowserDlg10closeEventEP11QCloseEvent
libdigikamcore.so.7.3.0:_ZN7Digikam13WebBrowserDlg10slotGoHomeEv
libdigikamcore.so.7.3.0:_ZN7Digikam13WebBrowserDlg10urlChangedERK4QUrl
libdigikamcore.so.7.3.0:_ZN7Digikam13WebBrowserDlg11qt_metacallEN11QMetaObject4CallEiPPv
libdigikamcore.so.7.3.0:_ZN7Digikam13WebBrowserDlg11qt_metacastEPKc
libdigikamcore.so.7.3.0:_ZN7Digikam13WebBrowserDlg14slotUrlChangedERK4QUrl
libdigikamcore.so.7.3.0:_ZN7Digikam13WebBrowserDlg15slotIconChangedERK5QIcon
libdigikamcore.so.7.3.0:_ZN7Digikam13WebBrowserDlg16slotTitleChangedERK7QString
libdigikamcore.so.7.3.0:_ZN7Digikam13WebBrowserDlg16staticMetaObjectE
libdigikamcore.so.7.3.0:_ZN7Digikam13WebBrowserDlg18slotLoadingStartedEv
libdigikamcore.so.7.3.0:_ZN7Digikam13WebBrowserDlg19slotLoadingFinishedEb
libdigikamcore.so.7.3.0:_ZN7Digikam13WebBrowserDlg21slotDesktopWebBrowserEv
libdigikamcore.so.7.3.0:_ZN7Digikam13WebBrowserDlg21slotSearchTextChangedERKNS_18SearchTextSettingsE
libdigikamcore.so.7.3.0:_ZN7Digikam13WebBrowserDlg9closeViewEb
libdigikamcore.so.7.3.0:_ZN7Digikam13WebBrowserDlgC1ERK4QUrlP7QWidgetb
libdigikamcore.so.7.3.0:_ZN7Digikam13WebBrowserDlgC2ERK4QUrlP7QWidgetb
libdigikamcore.so.7.3.0:_ZN7Digikam13WebBrowserDlgD0Ev
libdigikamcore.so.7.3.0:_ZN7Digikam13WebBrowserDlgD1Ev
libdigikamcore.so.7.3.0:_ZN7Digikam13WebBrowserDlgD2Ev
libdigikamcore.so.7.3.0:_ZN7Digikam13WorkingWidget11qt_metacallEN11QMetaObject4CallEiPPv
libdigikamcore.so.7.3.0:_ZN7Digikam13WorkingWidget11qt_metacastEPKc
libdigikamcore.so.7.3.0:_ZN7Digikam13WorkingWidget11toggleTimerEb
libdigikamcore.so.7.3.0:_ZN7Digikam13WorkingWidget13animationStepEv
libdigikamcore.so.7.3.0:_ZN7Digikam13WorkingWidget15slotChangeImageEv
libdigikamcore.so.7.3.0:_ZN7Digikam13WorkingWidget16staticMetaObjectE
libdigikamcore.so.7.3.0:_ZN7Digikam13WorkingWidgetC1EP7QWidget
libdigikamcore.so.7.3.0:_ZN7Digikam13WorkingWidgetC2EP7QWidget
libdigikamcore.so.7.3.0:_ZN7Digikam13WorkingWidgetD0Ev
libdigikamcore.so.7.3.0:_ZN7Digikam13WorkingWidgetD1Ev
libdigikamcore.so.7.3.0:_ZN7Digikam13WorkingWidgetD2Ev
libdigikamcore.so.7.3.0:_ZN7Digikam14AltLangStrEdit10addCurrentEv
libdigikamcore.so.7.3.0:_ZN7Digikam14AltLangStrEdit11changeEventEP6QEvent
libdigikamcore.so.7.3.0:_ZN7Digikam14AltLangStrEdit11qt_metacallEN11QMetaObject4CallEiPPv
libdigikamcore.so.7.3.0:_ZN7Digikam14AltLangStrEdit11qt_metacastEPKc
libdigikamcore.so.7.3.0:_ZN7Digikam14AltLangStrEdit14signalModifiedERK7QStringS3_
libdigikamcore.so.7.3.0:_ZN7Digikam14AltLangStrEdit15setLinesVisibleEj
libdigikamcore.so.7.3.0:_ZN7Digikam14AltLangStrEdit15slotDeleteValueEv
libdigikamcore.so.7.3.0:_ZN7Digikam14AltLangStrEdit15slotTextChangedEv
libdigikamcore.so.7.3.0:_ZN7Digikam14AltLangStrEdit16signalValueAddedERK7QStringS3_
libdigikamcore.so.7.3.0:_ZN7Digikam14AltLangStrEdit16staticMetaObjectE
libdigikamcore.so.7.3.0:_ZN7Digikam14AltLangStrEdit18setPlaceholderTextERK7QString
libdigikamcore.so.7.3.0:_ZN7Digikam14AltLangStrEdit18signalValueDeletedERK7QString
libdigikamcore.so.7.3.0:_ZN7Digikam14AltLangStrEdit20slotSelectionChangedEv
libdigikamcore.so.7.3.0:_ZN7Digikam14AltLangStrEdit22loadLangAltListEntriesEv
libdigikamcore.so.7.3.0:_ZN7Digikam14AltLangStrEdit22setCurrentLanguageCodeERK7QString
libdigikamcore.so.7.3.0:_ZN7Digikam14AltLangStrEdit22signalSelectionChangedERK7QString
libdigikamcore.so.7.3.0:_ZN7Digikam14AltLangStrEdit5resetEv
libdigikamcore.so.7.3.0:_ZN7Digikam14AltLangStrEdit8setTitleERK7QString
libdigikamcore.so.7.3.0:_ZN7Digikam14AltLangStrEdit9setValuesERK4QMapI7QStringS2_E
libdigikamcore.so.7.3.0:_ZN7Digikam14AltLangStrEditC1EP7QWidget
libdigikamcore.so.7.3.0:_ZN7Digikam14AltLangStrEditC2EP7QWidget
libdigikamcore.so.7.3.0:_ZN7Digikam14AltLangStrEditD0Ev
libdigikamcore.so.7.3.0:_ZN7Digikam14AltLangStrEditD1Ev
libdigikamcore.so.7.3.0:_ZN7Digikam14AltLangStrEditD2Ev
libdigikamcore.so.7.3.0:_ZN7Digikam14AutoExpoFilter11filterImageEv
libdigikamcore.so.7.3.0:_ZN7Digikam14AutoExpoFilter11qt_metacallEN11QMetaObject4CallEiPPv
libdigikamcore.so.7.3.0:_ZN7Digikam14AutoExpoFilter11qt_metacastEPKc
libdigikamcore.so.7.3.0:_ZN7Digikam14AutoExpoFilter12filterActionEv
libdigikamcore.so.7.3.0:_ZN7Digikam14AutoExpoFilter14readParametersERKNS_12FilterActionE
libdigikamcore.so.7.3.0:_ZN7Digikam14AutoExpoFilter15DisplayableNameEv
libdigikamcore.so.7.3.0:_ZN7Digikam14AutoExpoFilter16staticMetaObjectE
libdigikamcore.so.7.3.0:_ZN7Digikam14AutoExpoFilterC1EP7QObject
libdigikamcore.so.7.3.0:_ZN7Digikam14AutoExpoFilterC1EPNS_4DImgEPKS1_P7QObject
libdigikamcore.so.7.3.0:_ZN7Digikam14AutoExpoFilterC2EP7QObject
libdigikamcore.so.7.3.0:_ZN7Digikam14AutoExpoFilterC2EPNS_4DImgEPKS1_P7QObject
libdigikamcore.so.7.3.0:_ZN7Digikam14AutoExpoFilterD0Ev
libdigikamcore.so.7.3.0:_ZN7Digikam14AutoExpoFilterD1Ev
libdigikamcore.so.7.3.0:_ZN7Digikam14AutoExpoFilterD2Ev
libdigikamcore.so.7.3.0:_ZN7Digikam14BorderSettings11qt_metacallEN11QMetaObject4CallEiPPv
libdigikamcore.so.7.3.0:_ZN7Digikam14BorderSettings11qt_metacastEPKc
libdigikamcore.so.7.3.0:_ZN7Digikam14BorderSettings11setSettingsERKNS_15BorderContainerE
libdigikamcore.so.7.3.0:_ZN7Digikam14BorderSettings12readSettingsER12KConfigGroup
libdigikamcore.so.7.3.0:_ZN7Digikam14BorderSettings13writeSettingsER12KConfigGroup
libdigikamcore.so.7.3.0:_ZN7Digikam14BorderSettings14resetToDefaultEv
libdigikamcore.so.7.3.0:_ZN7Digikam14BorderSettings16staticMetaObjectE
libdigikamcore.so.7.3.0:_ZN7Digikam14BorderSettings18toggleBorderSliderEb
libdigikamcore.so.7.3.0:_ZN7Digikam14BorderSettings21signalSettingsChangedEv
libdigikamcore.so.7.3.0:_ZN7Digikam14BorderSettings21slotBorderTypeChangedEi
libdigikamcore.so.7.3.0:_ZN7Digikam14BorderSettings26slotColorBackgroundChangedERK6QColor
libdigikamcore.so.7.3.0:_ZN7Digikam14BorderSettings26slotColorForegroundChangedERK6QColor
libdigikamcore.so.7.3.0:_ZN7Digikam14BorderSettings30slotPreserveAspectRatioToggledEb
libdigikamcore.so.7.3.0:_ZN7Digikam14BorderSettingsC1EP7QWidget
libdigikamcore.so.7.3.0:_ZN7Digikam14BorderSettingsC2EP7QWidget
libdigikamcore.so.7.3.0:_ZN7Digikam14BorderSettingsD0Ev
libdigikamcore.so.7.3.0:_ZN7Digikam14BorderSettingsD1Ev
libdigikamcore.so.7.3.0:_ZN7Digikam14BorderSettingsD2Ev
libdigikamcore.so.7.3.0:_ZN7Digikam14CharcoalFilter11filterImageEv
libdigikamcore.so.7.3.0:_ZN7Digikam14CharcoalFilter11qt_metacallEN11QMetaObject4CallEiPPv
libdigikamcore.so.7.3.0:_ZN7Digikam14CharcoalFilter11qt_metacastEPKc
libdigikamcore.so.7.3.0:_ZN7Digikam14CharcoalFilter12filterActionEv
libdigikamcore.so.7.3.0:_ZN7Digikam14CharcoalFilter13convolveImageEjPKd
libdigikamcore.so.7.3.0:_ZN7Digikam14CharcoalFilter14readParametersERKNS_12FilterActionE
libdigikamcore.so.7.3.0:_ZN7Digikam14CharcoalFilter15DisplayableNameEv
libdigikamcore.so.7.3.0:_ZN7Digikam14CharcoalFilter16staticMetaObjectE
libdigikamcore.so.7.3.0:_ZN7Digikam14CharcoalFilter21getOptimalKernelWidthEdd
libdigikamcore.so.7.3.0:_ZN7Digikam14CharcoalFilter26convolveImageMultithreadedEjjPdd
libdigikamcore.so.7.3.0:_ZN7Digikam14CharcoalFilterC1EP7QObject
libdigikamcore.so.7.3.0:_ZN7Digikam14CharcoalFilterC1EPNS_4DImgEP7QObjectdd
libdigikamcore.so.7.3.0:_ZN7Digikam14CharcoalFilterC2EP7QObject
libdigikamcore.so.7.3.0:_ZN7Digikam14CharcoalFilterC2EPNS_4DImgEP7QObjectdd
libdigikamcore.so.7.3.0:_ZN7Digikam14CharcoalFilterD0Ev
libdigikamcore.so.7.3.0:_ZN7Digikam14CharcoalFilterD1Ev
libdigikamcore.so.7.3.0:_ZN7Digikam14CharcoalFilterD2Ev
libdigikamcore.so.7.3.0:_ZN7Digikam14CurvesSettings11qt_metacallEN11QMetaObject4CallEiPPv
libdigikamcore.so.7.3.0:_ZN7Digikam14CurvesSettings11qt_metacastEPKc
libdigikamcore.so.7.3.0:_ZN7Digikam14CurvesSettings11setSettingsERKNS_15CurvesContainerE
libdigikamcore.so.7.3.0:_ZN7Digikam14CurvesSettings12loadSettingsEv
libdigikamcore.so.7.3.0:_ZN7Digikam14CurvesSettings12readSettingsER12KConfigGroup
libdigikamcore.so.7.3.0:_ZN7Digikam14CurvesSettings13writeSettingsER12KConfigGroup
libdigikamcore.so.7.3.0:_ZN7Digikam14CurvesSettings14resetToDefaultEv
libdigikamcore.so.7.3.0:_ZN7Digikam14CurvesSettings14saveAsSettingsEv
libdigikamcore.so.7.3.0:_ZN7Digikam14CurvesSettings16staticMetaObjectE
libdigikamcore.so.7.3.0:_ZN7Digikam14CurvesSettings17setCurrentChannelENS_11ChannelTypeE
libdigikamcore.so.7.3.0:_ZN7Digikam14CurvesSettings18signalChannelResetEi
libdigikamcore.so.7.3.0:_ZN7Digikam14CurvesSettings19signalPickerChangedEi
libdigikamcore.so.7.3.0:_ZN7Digikam14CurvesSettings20slotSpotColorChangedERKNS_6DColorE
libdigikamcore.so.7.3.0:_ZN7Digikam14CurvesSettings21signalSettingsChangedEv
libdigikamcore.so.7.3.0:_ZN7Digikam14CurvesSettings22signalSpotColorChangedEv
libdigikamcore.so.7.3.0:_ZN7Digikam14CurvesSettings8setScaleENS_14HistogramScaleE
libdigikamcore.so.7.3.0:_ZN7Digikam14CurvesSettingsC1EP7QWidgetPNS_4DImgE
libdigikamcore.so.7.3.0:_ZN7Digikam14CurvesSettingsC2EP7QWidgetPNS_4DImgE
libdigikamcore.so.7.3.0:_ZN7Digikam14CurvesSettingsD0Ev
libdigikamcore.so.7.3.0:_ZN7Digikam14CurvesSettingsD1Ev
libdigikamcore.so.7.3.0:_ZN7Digikam14CurvesSettingsD2Ev
libdigikamcore.so.7.3.0:_ZN7Digikam14DColorComposer11getComposerENS0_20CompositingOperationE
libdigikamcore.so.7.3.0:_ZN7Digikam14DColorComposer7composeERNS_6DColorES2_NS0_19MultiplicationFlagsE
libdigikamcore.so.7.3.0:_ZN7Digikam14DColorSelector10paintEventEP11QPaintEvent
libdigikamcore.so.7.3.0:_ZN7Digikam14DColorSelector11qt_metacallEN11QMetaObject4CallEiPPv
libdigikamcore.so.7.3.0:_ZN7Digikam14DColorSelector11qt_metacastEPKc
libdigikamcore.so.7.3.0:_ZN7Digikam14DColorSelector14slotBtnClickedEv
libdigikamcore.so.7.3.0:_ZN7Digikam14DColorSelector16staticMetaObjectE
libdigikamcore.so.7.3.0:_ZN7Digikam14DColorSelector19signalColorSelectedERK6QColor
libdigikamcore.so.7.3.0:_ZN7Digikam14DColorSelector22setAlphaChannelEnabledEb
libdigikamcore.so.7.3.0:_ZN7Digikam14DColorSelector8setColorERK6QColor
libdigikamcore.so.7.3.0:_ZN7Digikam14DColorSelectorC1EP7QWidget
libdigikamcore.so.7.3.0:_ZN7Digikam14DColorSelectorC2EP7QWidget
libdigikamcore.so.7.3.0:_ZN7Digikam14DColorSelectorD0Ev
libdigikamcore.so.7.3.0:_ZN7Digikam14DColorSelectorD1Ev
libdigikamcore.so.7.3.0:_ZN7Digikam14DColorSelectorD2Ev
libdigikamcore.so.7.3.0:_ZN7Digikam14DConfigDlgMngr10changedMapEv
libdigikamcore.so.7.3.0:_ZN7Digikam14DConfigDlgMngr11propertyMapEv
libdigikamcore.so.7.3.0:_ZN7Digikam14DConfigDlgMngr11qt_metacallEN11QMetaObject4CallEiPPv
libdigikamcore.so.7.3.0:_ZN7Digikam14DConfigDlgMngr11qt_metacastEPKc
libdigikamcore.so.7.3.0:_ZN7Digikam14DConfigDlgMngr11setPropertyEP7QWidgetRK8QVariant
libdigikamcore.so.7.3.0:_ZN7Digikam14DConfigDlgMngr11setupWidgetEP7QWidgetP19KConfigSkeletonItem
libdigikamcore.so.7.3.0:_ZN7Digikam14DConfigDlgMngr13parseChildrenEPK7QWidgetb
libdigikamcore.so.7.3.0:_ZN7Digikam14DConfigDlgMngr13updateWidgetsEv
libdigikamcore.so.7.3.0:_ZN7Digikam14DConfigDlgMngr14updateSettingsEv
libdigikamcore.so.7.3.0:_ZN7Digikam14DConfigDlgMngr14widgetModifiedEv
libdigikamcore.so.7.3.0:_ZN7Digikam14DConfigDlgMngr15settingsChangedEP7QWidget
libdigikamcore.so.7.3.0:_ZN7Digikam14DConfigDlgMngr15settingsChangedEv
libdigikamcore.so.7.3.0:_ZN7Digikam14DConfigDlgMngr16staticMetaObjectE
libdigikamcore.so.7.3.0:_ZN7Digikam14DConfigDlgMngr20updateWidgetsDefaultEv
libdigikamcore.so.7.3.0:_ZN7Digikam14DConfigDlgMngr4initEb
libdigikamcore.so.7.3.0:_ZN7Digikam14DConfigDlgMngr8initMapsEv
libdigikamcore.so.7.3.0:_ZN7Digikam14DConfigDlgMngr9addWidgetEP7QWidget
libdigikamcore.so.7.3.0:_ZN7Digikam14DConfigDlgMngrC1EP7QWidgetP15KConfigSkeleton
libdigikamcore.so.7.3.0:_ZN7Digikam14DConfigDlgMngrC2EP7QWidgetP15KConfigSkeleton
libdigikamcore.so.7.3.0:_ZN7Digikam14DConfigDlgMngrD0Ev
libdigikamcore.so.7.3.0:_ZN7Digikam14DConfigDlgMngrD1Ev
libdigikamcore.so.7.3.0:_ZN7Digikam14DConfigDlgMngrD2Ev
libdigikamcore.so.7.3.0:_ZN7Digikam14DConfigDlgView10createViewEv
libdigikamcore.so.7.3.0:_ZN7Digikam14DConfigDlgView11qt_metacallEN11QMetaObject4CallEiPPv
libdigikamcore.so.7.3.0:_ZN7Digikam14DConfigDlgView11qt_metacastEPKc
libdigikamcore.so.7.3.0:_ZN7Digikam14DConfigDlgView11setFaceTypeENS0_8FaceTypeE
libdigikamcore.so.7.3.0:_ZN7Digikam14DConfigDlgView14setCurrentPageERK11QModelIndex
libdigikamcore.so.7.3.0:_ZN7Digikam14DConfigDlgView15setItemDelegateEP21QAbstractItemDelegate
libdigikamcore.so.7.3.0:_ZN7Digikam14DConfigDlgView16setDefaultWidgetEP7QWidget
libdigikamcore.so.7.3.0:_ZN7Digikam14DConfigDlgView16staticMetaObjectE
libdigikamcore.so.7.3.0:_ZN7Digikam14DConfigDlgView18currentPageChangedERK11QModelIndexS3_
libdigikamcore.so.7.3.0:_ZN7Digikam14DConfigDlgView8setModelEP18QAbstractItemModel
libdigikamcore.so.7.3.0:_ZN7Digikam14DConfigDlgViewC1EP7QWidget
libdigikamcore.so.7.3.0:_ZN7Digikam14DConfigDlgViewC1ERNS_21DConfigDlgViewPrivateEP7QWidget
libdigikamcore.so.7.3.0:_ZN7Digikam14DConfigDlgViewC2EP7QWidget
libdigikamcore.so.7.3.0:_ZN7Digikam14DConfigDlgViewC2ERNS_21DConfigDlgViewPrivateEP7QWidget
libdigikamcore.so.7.3.0:_ZN7Digikam14DConfigDlgViewD0Ev
libdigikamcore.so.7.3.0:_ZN7Digikam14DConfigDlgViewD1Ev
libdigikamcore.so.7.3.0:_ZN7Digikam14DConfigDlgViewD2Ev
libdigikamcore.so.7.3.0:_ZN7Digikam14DCursorTracker10paintEventEP11QPaintEvent
libdigikamcore.so.7.3.0:_ZN7Digikam14DCursorTracker11eventFilterEP7QObjectP6QEvent
libdigikamcore.so.7.3.0:_ZN7Digikam14DCursorTracker11qt_metacallEN11QMetaObject4CallEiPPv
libdigikamcore.so.7.3.0:_ZN7Digikam14DCursorTracker11qt_metacastEPKc
libdigikamcore.so.7.3.0:_ZN7Digikam14DCursorTracker11setKeepOpenEb
libdigikamcore.so.7.3.0:_ZN7Digikam14DCursorTracker12moveToParentEP7QWidget
libdigikamcore.so.7.3.0:_ZN7Digikam14DCursorTracker12slotAutoHideEv
libdigikamcore.so.7.3.0:_ZN7Digikam14DCursorTracker14canBeDisplayedEv
libdigikamcore.so.7.3.0:_ZN7Digikam14DCursorTracker15triggerAutoShowEi
libdigikamcore.so.7.3.0:_ZN7Digikam14DCursorTracker16staticMetaObjectE
libdigikamcore.so.7.3.0:_ZN7Digikam14DCursorTracker19setTrackerAlignmentE6QFlagsIN2Qt13AlignmentFlagEE
libdigikamcore.so.7.3.0:_ZN7Digikam14DCursorTracker7refreshEv
libdigikamcore.so.7.3.0:_ZN7Digikam14DCursorTracker7setTextERK7QString
libdigikamcore.so.7.3.0:_ZN7Digikam14DCursorTracker9setEnableEb
libdigikamcore.so.7.3.0:_ZN7Digikam14DCursorTrackerC1ERK7QStringP7QWidget6QFlagsIN2Qt13AlignmentFlagEE
libdigikamcore.so.7.3.0:_ZN7Digikam14DCursorTrackerC2ERK7QStringP7QWidget6QFlagsIN2Qt13AlignmentFlagEE
libdigikamcore.so.7.3.0:_ZN7Digikam14DCursorTrackerD0Ev
libdigikamcore.so.7.3.0:_ZN7Digikam14DCursorTrackerD1Ev
libdigikamcore.so.7.3.0:_ZN7Digikam14DCursorTrackerD2Ev
libdigikamcore.so.7.3.0:_ZN7Digikam14DInfoInterface11deleteImageERK4QUrl
libdigikamcore.so.7.3.0:_ZN7Digikam14DInfoInterface11qt_metacallEN11QMetaObject4CallEiPPv
libdigikamcore.so.7.3.0:_ZN7Digikam14DInfoInterface11qt_metacastEPKc
libdigikamcore.so.7.3.0:_ZN7Digikam14DInfoInterface13openSetupPageENS0_9SetupPageE
libdigikamcore.so.7.3.0:_ZN7Digikam14DInfoInterface14tagFilterModelEv
libdigikamcore.so.7.3.0:_ZN7Digikam14DInfoInterface16staticMetaObjectE
libdigikamcore.so.7.3.0:_ZN7Digikam14DInfoInterface17signalLastItemUrlERK4QUrl
libdigikamcore.so.7.3.0:_ZN7Digikam14DInfoInterface18signalSetupChangedEv
libdigikamcore.so.7.3.0:_ZN7Digikam14DInfoInterface18slotDateTimeForUrlERK4QUrlRK9QDateTimeb
libdigikamcore.so.7.3.0:_ZN7Digikam14DInfoInterface19signalImportedImageERK4QUrl
libdigikamcore.so.7.3.0:_ZN7Digikam14DInfoInterface21signalShortcutPressedERK7QStringi
libdigikamcore.so.7.3.0:_ZN7Digikam14DInfoInterface22signalUploadUrlChangedEv
libdigikamcore.so.7.3.0:_ZN7Digikam14DInfoInterface24parseAlbumItemsRecursiveEv
libdigikamcore.so.7.3.0:_ZN7Digikam14DInfoInterface25slotMetadataChangedForUrlERK4QUrl
libdigikamcore.so.7.3.0:_ZN7Digikam14DInfoInterface34signalAlbumChooserSelectionChangedEv
libdigikamcore.so.7.3.0:_ZN7Digikam14DInfoInterface34signalAlbumItemsRecursiveCompletedERK5QListI4QUrlE
libdigikamcore.so.7.3.0:_ZN7Digikam14DInfoInterfaceC1EP7QObject
libdigikamcore.so.7.3.0:_ZN7Digikam14DInfoInterfaceC2EP7QObject
libdigikamcore.so.7.3.0:_ZN7Digikam14DInfoInterfaceD0Ev
libdigikamcore.so.7.3.0:_ZN7Digikam14DInfoInterfaceD1Ev
libdigikamcore.so.7.3.0:_ZN7Digikam14DInfoInterfaceD2Ev
libdigikamcore.so.7.3.0:_ZN7Digikam14DItemsListView11qt_metacallEN11QMetaObject4CallEiPPv
libdigikamcore.so.7.3.0:_ZN7Digikam14DItemsListView11qt_metacastEPKc
libdigikamcore.so.7.3.0:_ZN7Digikam14DItemsListView13dragMoveEventEP14QDragMoveEvent
libdigikamcore.so.7.3.0:_ZN7Digikam14DItemsListView14dragEnterEventEP15QDragEnterEvent
libdigikamcore.so.7.3.0:_ZN7Digikam14DItemsListView14setColumnLabelENS0_10ColumnTypeERK7QString
libdigikamcore.so.7.3.0:_ZN7Digikam14DItemsListView15slotItemClickedEP15QTreeWidgetItemi
libdigikamcore.so.7.3.0:_ZN7Digikam14DItemsListView16contextMenuEventEP17QContextMenuEvent
libdigikamcore.so.7.3.0:_ZN7Digikam14DItemsListView16setColumnEnabledENS0_10ColumnTypeEb
libdigikamcore.so.7.3.0:_ZN7Digikam14DItemsListView16staticMetaObjectE
libdigikamcore.so.7.3.0:_ZN7Digikam14DItemsListView17enableDragAndDropEb
libdigikamcore.so.7.3.0:_ZN7Digikam14DItemsListView17signalItemClickedEP15QTreeWidgetItem
libdigikamcore.so.7.3.0:_ZN7Digikam14DItemsListView22signalAddedDropedItemsERK5QListI4QUrlE
libdigikamcore.so.7.3.0:_ZN7Digikam14DItemsListView26signalContextMenuRequestedEv
libdigikamcore.so.7.3.0:_ZN7Digikam14DItemsListView5setupEi
libdigikamcore.so.7.3.0:_ZN7Digikam14DItemsListView8findItemERK4QUrl
libdigikamcore.so.7.3.0:_ZN7Digikam14DItemsListView9dropEventEP10QDropEvent
libdigikamcore.so.7.3.0:_ZN7Digikam14DItemsListView9setColumnENS0_10ColumnTypeERK7QStringb
libdigikamcore.so.7.3.0:_ZN7Digikam14DItemsListViewC1EPNS_10DItemsListE
libdigikamcore.so.7.3.0:_ZN7Digikam14DItemsListViewC1EiPNS_10DItemsListE
libdigikamcore.so.7.3.0:_ZN7Digikam14DItemsListViewC2EPNS_10DItemsListE
libdigikamcore.so.7.3.0:_ZN7Digikam14DItemsListViewC2EiPNS_10DItemsListE
libdigikamcore.so.7.3.0:_ZN7Digikam14DItemsListViewD0Ev
libdigikamcore.so.7.3.0:_ZN7Digikam14DItemsListViewD1Ev
libdigikamcore.so.7.3.0:_ZN7Digikam14DItemsListViewD2Ev
libdigikamcore.so.7.3.0:_ZN7Digikam14DLabelExpander10setCheckedEb
libdigikamcore.so.7.3.0:_ZN7Digikam14DLabelExpander11eventFilterEP7QObjectP6QEvent
libdigikamcore.so.7.3.0:_ZN7Digikam14DLabelExpander11qt_metacallEN11QMetaObject4CallEiPPv
libdigikamcore.so.7.3.0:_ZN7Digikam14DLabelExpander11qt_metacastEPKc
libdigikamcore.so.7.3.0:_ZN7Digikam14DLabelExpander11setExpandedEb
libdigikamcore.so.7.3.0:_ZN7Digikam14DLabelExpander13signalToggledEb
libdigikamcore.so.7.3.0:_ZN7Digikam14DLabelExpander14setLineVisibleEb
libdigikamcore.so.7.3.0:_ZN7Digikam14DLabelExpander14signalExpandedEb
libdigikamcore.so.7.3.0:_ZN7Digikam14DLabelExpander16staticMetaObjectE
libdigikamcore.so.7.3.0:_ZN7Digikam14DLabelExpander18setCheckBoxVisibleEb
libdigikamcore.so.7.3.0:_ZN7Digikam14DLabelExpander18setExpandByDefaultEb
libdigikamcore.so.7.3.0:_ZN7Digikam14DLabelExpander19slotToggleContainerEv
libdigikamcore.so.7.3.0:_ZN7Digikam14DLabelExpander7setIconERK5QIcon
libdigikamcore.so.7.3.0:_ZN7Digikam14DLabelExpander7setTextERK7QString
libdigikamcore.so.7.3.0:_ZN7Digikam14DLabelExpander9setWidgetEP7QWidget
libdigikamcore.so.7.3.0:_ZN7Digikam14DLabelExpanderC1EP7QWidget
libdigikamcore.so.7.3.0:_ZN7Digikam14DLabelExpanderC2EP7QWidget
libdigikamcore.so.7.3.0:_ZN7Digikam14DLabelExpanderD0Ev
libdigikamcore.so.7.3.0:_ZN7Digikam14DLabelExpanderD1Ev
libdigikamcore.so.7.3.0:_ZN7Digikam14DLabelExpanderD2Ev
libdigikamcore.so.7.3.0:_ZN7Digikam14DMetaInfoIface11deleteImageERK4QUrl
libdigikamcore.so.7.3.0:_ZN7Digikam14DMetaInfoIface11qt_metacallEN11QMetaObject4CallEiPPv
libdigikamcore.so.7.3.0:_ZN7Digikam14DMetaInfoIface11qt_metacastEPKc
libdigikamcore.so.7.3.0:_ZN7Digikam14DMetaInfoIface16staticMetaObjectE
libdigikamcore.so.7.3.0:_ZN7Digikam14DMetaInfoIface17signalItemChangedERK4QUrl
libdigikamcore.so.7.3.0:_ZN7Digikam14DMetaInfoIface18slotDateTimeForUrlERK4QUrlRK9QDateTimeb
libdigikamcore.so.7.3.0:_ZN7Digikam14DMetaInfoIface24parseAlbumItemsRecursiveEv
libdigikamcore.so.7.3.0:_ZN7Digikam14DMetaInfoIface25slotMetadataChangedForUrlERK4QUrl
libdigikamcore.so.7.3.0:_ZN7Digikam14DMetaInfoIface26signalRemoveImageFromAlbumERK4QUrl
libdigikamcore.so.7.3.0:_ZN7Digikam14DMetaInfoIfaceC1EP7QObjectRK5QListI4QUrlE
libdigikamcore.so.7.3.0:_ZN7Digikam14DMetaInfoIfaceC2EP7QObjectRK5QListI4QUrlE
libdigikamcore.so.7.3.0:_ZN7Digikam14DMetaInfoIfaceD0Ev
libdigikamcore.so.7.3.0:_ZN7Digikam14DMetaInfoIfaceD1Ev
libdigikamcore.so.7.3.0:_ZN7Digikam14DMetaInfoIfaceD2Ev
libdigikamcore.so.7.3.0:_ZN7Digikam14DPluginGeneric10setVisibleEb
libdigikamcore.so.7.3.0:_ZN7Digikam14DPluginGeneric11qt_metacallEN11QMetaObject4CallEiPPv
libdigikamcore.so.7.3.0:_ZN7Digikam14DPluginGeneric11qt_metacastEPKc
libdigikamcore.so.7.3.0:_ZN7Digikam14DPluginGeneric16staticMetaObjectE
libdigikamcore.so.7.3.0:_ZN7Digikam14DPluginGeneric9addActionEPNS_13DPluginActionE
libdigikamcore.so.7.3.0:_ZN7Digikam14DPluginGenericC1EP7QObject
libdigikamcore.so.7.3.0:_ZN7Digikam14DPluginGenericC2EP7QObject
libdigikamcore.so.7.3.0:_ZN7Digikam14DPluginGenericD0Ev
libdigikamcore.so.7.3.0:_ZN7Digikam14DPluginGenericD1Ev
libdigikamcore.so.7.3.0:_ZN7Digikam14DPluginGenericD2Ev
libdigikamcore.so.7.3.0:_ZN7Digikam14DSelectionItem10intersectsER7QPointF
libdigikamcore.so.7.3.0:_ZN7Digikam14DSelectionItem11setMaxRightEd
libdigikamcore.so.7.3.0:_ZN7Digikam14DSelectionItem12setMaxBottomEd
libdigikamcore.so.7.3.0:_ZN7Digikam14DSelectionItem13updateAnchorsEv
libdigikamcore.so.7.3.0:_ZN7Digikam14DSelectionItem5paintEP8QPainterPK24QStyleOptionGraphicsItemP7QWidget
libdigikamcore.so.7.3.0:_ZN7Digikam14DSelectionItem7setRectERK6QRectF
libdigikamcore.so.7.3.0:_ZN7Digikam14DSelectionItem8saveZoomEd
libdigikamcore.so.7.3.0:_ZN7Digikam14DSelectionItemC1ERK6QRectF
libdigikamcore.so.7.3.0:_ZN7Digikam14DSelectionItemC2ERK6QRectF
libdigikamcore.so.7.3.0:_ZN7Digikam14DSelectionItemD0Ev
libdigikamcore.so.7.3.0:_ZN7Digikam14DSelectionItemD1Ev
libdigikamcore.so.7.3.0:_ZN7Digikam14DSelectionItemD2Ev
libdigikamcore.so.7.3.0:_ZN7Digikam14DTextLabelName11qt_metacallEN11QMetaObject4CallEiPPv
libdigikamcore.so.7.3.0:_ZN7Digikam14DTextLabelName11qt_metacastEPKc
libdigikamcore.so.7.3.0:_ZN7Digikam14DTextLabelName16staticMetaObjectE
libdigikamcore.so.7.3.0:_ZN7Digikam14DTextLabelNameC1ERK7QStringP7QWidget
libdigikamcore.so.7.3.0:_ZN7Digikam14DTextLabelNameC2ERK7QStringP7QWidget
libdigikamcore.so.7.3.0:_ZN7Digikam14DTextLabelNameD0Ev
libdigikamcore.so.7.3.0:_ZN7Digikam14DTextLabelNameD1Ev
libdigikamcore.so.7.3.0:_ZN7Digikam14DTextLabelNameD2Ev
libdigikamcore.so.7.3.0:_ZN7Digikam14DWorkingPixmap11qt_metacallEN11QMetaObject4CallEiPPv
libdigikamcore.so.7.3.0:_ZN7Digikam14DWorkingPixmap11qt_metacastEPKc
libdigikamcore.so.7.3.0:_ZN7Digikam14DWorkingPixmap16staticMetaObjectE
libdigikamcore.so.7.3.0:_ZN7Digikam14DWorkingPixmapC1EP7QObject
libdigikamcore.so.7.3.0:_ZN7Digikam14DWorkingPixmapC2EP7QObject
libdigikamcore.so.7.3.0:_ZN7Digikam14DWorkingPixmapD0Ev
libdigikamcore.so.7.3.0:_ZN7Digikam14DWorkingPixmapD1Ev
libdigikamcore.so.7.3.0:_ZN7Digikam14DWorkingPixmapD2Ev
libdigikamcore.so.7.3.0:_ZN7Digikam14DatabaseServer11qt_metacallEN11QMetaObject4CallEiPPv
libdigikamcore.so.7.3.0:_ZN7Digikam14DatabaseServer11qt_metacastEPKc
libdigikamcore.so.7.3.0:_ZN7Digikam14DatabaseServer16startMysqlServerEv
libdigikamcore.so.7.3.0:_ZN7Digikam14DatabaseServer16staticMetaObjectE
libdigikamcore.so.7.3.0:_ZN7Digikam14DatabaseServer19stopDatabaseProcessEv
libdigikamcore.so.7.3.0:_ZN7Digikam14DatabaseServer20startDatabaseProcessEv
libdigikamcore.so.7.3.0:_ZN7Digikam14DatabaseServer25startMysqlDatabaseProcessEv
libdigikamcore.so.7.3.0:_ZN7Digikam14DatabaseServer3runEv
libdigikamcore.so.7.3.0:_ZN7Digikam14DatabaseServer4doneEv
libdigikamcore.so.7.3.0:_ZN7Digikam14DatabaseServerC1ERKNS_18DbEngineParametersEPNS_21DatabaseServerStarterE
libdigikamcore.so.7.3.0:_ZN7Digikam14DatabaseServerC2ERKNS_18DbEngineParametersEPNS_21DatabaseServerStarterE
libdigikamcore.so.7.3.0:_ZN7Digikam14DatabaseServerD0Ev
libdigikamcore.so.7.3.0:_ZN7Digikam14DatabaseServerD1Ev
libdigikamcore.so.7.3.0:_ZN7Digikam14DatabaseServerD2Ev
libdigikamcore.so.7.3.0:_ZN7Digikam14DbEngineAccess16checkReadyForUseER7QString
libdigikamcore.so.7.3.0:_ZN7Digikam14DbEngineConfig12errorMessageEv
libdigikamcore.so.7.3.0:_ZN7Digikam14DbEngineConfig16checkReadyForUseEv
libdigikamcore.so.7.3.0:_ZN7Digikam14DbEngineConfig7elementERK7QString
libdigikamcore.so.7.3.0:_ZN7Digikam14EqualizeFilter11filterImageEv
libdigikamcore.so.7.3.0:_ZN7Digikam14EqualizeFilter11qt_metacallEN11QMetaObject4CallEiPPv
libdigikamcore.so.7.3.0:_ZN7Digikam14EqualizeFilter11qt_metacastEPKc
libdigikamcore.so.7.3.0:_ZN7Digikam14EqualizeFilter12filterActionEv
libdigikamcore.so.7.3.0:_ZN7Digikam14EqualizeFilter13equalizeImageEv
libdigikamcore.so.7.3.0:_ZN7Digikam14EqualizeFilter14readParametersERKNS_12FilterActionE
libdigikamcore.so.7.3.0:_ZN7Digikam14EqualizeFilter15DisplayableNameEv
libdigikamcore.so.7.3.0:_ZN7Digikam14EqualizeFilter16staticMetaObjectE
libdigikamcore.so.7.3.0:_ZN7Digikam14EqualizeFilterC1EP7QObject
libdigikamcore.so.7.3.0:_ZN7Digikam14EqualizeFilterC1EPNS_4DImgEPKS1_P7QObject
libdigikamcore.so.7.3.0:_ZN7Digikam14EqualizeFilterC2EP7QObject
libdigikamcore.so.7.3.0:_ZN7Digikam14EqualizeFilterC2EPNS_4DImgEPKS1_P7QObject
libdigikamcore.so.7.3.0:_ZN7Digikam14EqualizeFilterD0Ev
libdigikamcore.so.7.3.0:_ZN7Digikam14EqualizeFilterD1Ev
libdigikamcore.so.7.3.0:_ZN7Digikam14EqualizeFilterD2Ev
libdigikamcore.so.7.3.0:_ZN7Digikam14ExifToolBinary11qt_metacallEN11QMetaObject4CallEiPPv
libdigikamcore.so.7.3.0:_ZN7Digikam14ExifToolBinary11qt_metacastEPKc
libdigikamcore.so.7.3.0:_ZN7Digikam14ExifToolBinary16staticMetaObjectE
libdigikamcore.so.7.3.0:_ZN7Digikam14ExifToolBinaryC1EP7QObject
libdigikamcore.so.7.3.0:_ZN7Digikam14ExifToolBinaryC2EP7QObject
libdigikamcore.so.7.3.0:_ZN7Digikam14ExifToolBinaryD0Ev
libdigikamcore.so.7.3.0:_ZN7Digikam14ExifToolBinaryD1Ev
libdigikamcore.so.7.3.0:_ZN7Digikam14ExifToolBinaryD2Ev
libdigikamcore.so.7.3.0:_ZN7Digikam14ExifToolParser11qt_metacallEN11QMetaObject4CallEiPPv
libdigikamcore.so.7.3.0:_ZN7Digikam14ExifToolParser11qt_metacastEPKc
libdigikamcore.so.7.3.0:_ZN7Digikam14ExifToolParser12applyChangesERK7QStringRK5QHashIS1_5QListI8QVariantEE
libdigikamcore.so.7.3.0:_ZN7Digikam14ExifToolParser12applyChangesERK7QStringS3_
libdigikamcore.so.7.3.0:_ZN7Digikam14ExifToolParser12slotFinishedEiiN8QProcess10ExitStatusE
libdigikamcore.so.7.3.0:_ZN7Digikam14ExifToolParser12tagsDatabaseEv
libdigikamcore.so.7.3.0:_ZN7Digikam14ExifToolParser13translateTagsERK7QStringh
libdigikamcore.so.7.3.0:_ZN7Digikam14ExifToolParser15readableFormatsEv
libdigikamcore.so.7.3.0:_ZN7Digikam14ExifToolParser15setOutputStreamEiRK10QByteArrayS3_
libdigikamcore.so.7.3.0:_ZN7Digikam14ExifToolParser15writableFormatsEv
libdigikamcore.so.7.3.0:_ZN7Digikam14ExifToolParser16slotCmdCompletedEiiRK10QByteArrayS3_
libdigikamcore.so.7.3.0:_ZN7Digikam14ExifToolParser16staticMetaObjectE
libdigikamcore.so.7.3.0:_ZN7Digikam14ExifToolParser16translationsListEv
libdigikamcore.so.7.3.0:_ZN7Digikam14ExifToolParser17slotErrorOccurredEiN8QProcess12ProcessErrorE
libdigikamcore.so.7.3.0:_ZN7Digikam14ExifToolParser18setExifToolProgramERK7QString
libdigikamcore.so.7.3.0:_ZN7Digikam14ExifToolParser18tagsDbToOrderedMapERK5QHashI7QString5QListI8QVariantEE
libdigikamcore.so.7.3.0:_ZN7Digikam14ExifToolParser19printExifToolOutputERK10QByteArray
libdigikamcore.so.7.3.0:_ZN7Digikam14ExifToolParser27signalExifToolDataAvailableEv
libdigikamcore.so.7.3.0:_ZN7Digikam14ExifToolParser29slotMetaEngineSettingsChangedEv
libdigikamcore.so.7.3.0:_ZN7Digikam14ExifToolParser4loadERK7QStringb
libdigikamcore.so.7.3.0:_ZN7Digikam14ExifToolParser7versionEv
libdigikamcore.so.7.3.0:_ZN7Digikam14ExifToolParser8copyTagsERK7QStringS3_hh
libdigikamcore.so.7.3.0:_ZN7Digikam14ExifToolParser9loadChunkERK7QString
libdigikamcore.so.7.3.0:_ZN7Digikam14ExifToolParserC1EP7QObject
libdigikamcore.so.7.3.0:_ZN7Digikam14ExifToolParserC2EP7QObject
libdigikamcore.so.7.3.0:_ZN7Digikam14ExifToolParserD0Ev
libdigikamcore.so.7.3.0:_ZN7Digikam14ExifToolParserD1Ev
libdigikamcore.so.7.3.0:_ZN7Digikam14ExifToolParserD2Ev
libdigikamcore.so.7.3.0:_ZN7Digikam14ExifToolWidget11loadFromUrlERK4QUrl
libdigikamcore.so.7.3.0:_ZN7Digikam14ExifToolWidget11qt_metacallEN11QMetaObject4CallEiPPv
libdigikamcore.so.7.3.0:_ZN7Digikam14ExifToolWidget11qt_metacastEPKc
libdigikamcore.so.7.3.0:_ZN7Digikam14ExifToolWidget13setTagsFilterERK11QStringList
libdigikamcore.so.7.3.0:_ZN7Digikam14ExifToolWidget16staticMetaObjectE
libdigikamcore.so.7.3.0:_ZN7Digikam14ExifToolWidget17slotFilterChangedEP7QAction
libdigikamcore.so.7.3.0:_ZN7Digikam14ExifToolWidget17slotLoadingResultEb
libdigikamcore.so.7.3.0:_ZN7Digikam14ExifToolWidget17slotPrintMetadataEv
libdigikamcore.so.7.3.0:_ZN7Digikam14ExifToolWidget18slotCopy2ClipboardEv
libdigikamcore.so.7.3.0:_ZN7Digikam14ExifToolWidget19setCurrentItemByKeyERK7QString
libdigikamcore.so.7.3.0:_ZN7Digikam14ExifToolWidget19signalSetupExifToolEv
libdigikamcore.so.7.3.0:_ZN7Digikam14ExifToolWidget22slotSaveMetadataToFileEv
libdigikamcore.so.7.3.0:_ZN7Digikam14ExifToolWidget23slotPreLoadingTimerDoneEv
libdigikamcore.so.7.3.0:_ZN7Digikam14ExifToolWidget26signalSetupMetadataFiltersEv
libdigikamcore.so.7.3.0:_ZN7Digikam14ExifToolWidget5setupEv
libdigikamcore.so.7.3.0:_ZN7Digikam14ExifToolWidget7setModeEi
libdigikamcore.so.7.3.0:_ZN7Digikam14ExifToolWidget9buildViewEv
libdigikamcore.so.7.3.0:_ZN7Digikam14ExifToolWidgetC1EP7QWidget
libdigikamcore.so.7.3.0:_ZN7Digikam14ExifToolWidgetC2EP7QWidget
libdigikamcore.so.7.3.0:_ZN7Digikam14ExifToolWidgetD0Ev
libdigikamcore.so.7.3.0:_ZN7Digikam14ExifToolWidgetD1Ev
libdigikamcore.so.7.3.0:_ZN7Digikam14ExifToolWidgetD2Ev
libdigikamcore.so.7.3.0:_ZN7Digikam14FileReadLockerC1ERK7QString
libdigikamcore.so.7.3.0:_ZN7Digikam14FileReadLockerC2ERK7QString
libdigikamcore.so.7.3.0:_ZN7Digikam14FileReadLockerD1Ev
libdigikamcore.so.7.3.0:_ZN7Digikam14FileReadLockerD2Ev
libdigikamcore.so.7.3.0:_ZN7Digikam14GPSUndoCommand11addUndoInfoERKNS0_8UndoInfoE
libdigikamcore.so.7.3.0:_ZN7Digikam14GPSUndoCommand14changeItemDataEb
libdigikamcore.so.7.3.0:_ZN7Digikam14GPSUndoCommand4redoEv
libdigikamcore.so.7.3.0:_ZN7Digikam14GPSUndoCommand4undoEv
libdigikamcore.so.7.3.0:_ZN7Digikam14GPSUndoCommand8UndoInfo19readNewDataFromItemEPKNS_16GPSItemContainerE
libdigikamcore.so.7.3.0:_ZN7Digikam14GPSUndoCommand8UndoInfo19readOldDataFromItemEPKNS_16GPSItemContainerE
libdigikamcore.so.7.3.0:_ZN7Digikam14GPSUndoCommandC1EP12QUndoCommand
libdigikamcore.so.7.3.0:_ZN7Digikam14GPSUndoCommandC2EP12QUndoCommand
libdigikamcore.so.7.3.0:_ZN7Digikam14GeoCoordinates10fromGeoUrlERK7QStringPb
libdigikamcore.so.7.3.0:_ZN7Digikam14GeoCoordinates21fromMarbleCoordinatesERKN6Marble18GeoDataCoordinatesE
libdigikamcore.so.7.3.0:_ZN7Digikam14GeoCoordinates5clearEv
libdigikamcore.so.7.3.0:_ZN7Digikam14GeoCoordinates6setAltEd
libdigikamcore.so.7.3.0:_ZN7Digikam14GeoCoordinates8clearAltEv
libdigikamcore.so.7.3.0:_ZN7Digikam14GeoCoordinates8makePairEdddd
libdigikamcore.so.7.3.0:_ZN7Digikam14GeoCoordinates9setLatLonEdd
libdigikamcore.so.7.3.0:_ZN7Digikam14GeoCoordinatesC1Edd
libdigikamcore.so.7.3.0:_ZN7Digikam14GeoCoordinatesC1Eddd
libdigikamcore.so.7.3.0:_ZN7Digikam14GeoCoordinatesC1Ev
libdigikamcore.so.7.3.0:_ZN7Digikam14GeoCoordinatesC2Edd
libdigikamcore.so.7.3.0:_ZN7Digikam14GeoCoordinatesC2Eddd
libdigikamcore.so.7.3.0:_ZN7Digikam14GeoCoordinatesC2Ev
libdigikamcore.so.7.3.0:_ZN7Digikam14GeoCoordinatesD1Ev
libdigikamcore.so.7.3.0:_ZN7Digikam14GeoCoordinatesD2Ev
libdigikamcore.so.7.3.0:_ZN7Digikam14GeoModelHelper11qt_metacallEN11QMetaObject4CallEiPPv
libdigikamcore.so.7.3.0:_ZN7Digikam14GeoModelHelper11qt_metacastEPKc
libdigikamcore.so.7.3.0:_ZN7Digikam14GeoModelHelper11snapItemsToERK11QModelIndexRK5QListI21QPersistentModelIndexE
libdigikamcore.so.7.3.0:_ZN7Digikam14GeoModelHelper11snapItemsToERK11QModelIndexRK5QListIS1_E
libdigikamcore.so.7.3.0:_ZN7Digikam14GeoModelHelper14onIndicesMovedERK5QListI21QPersistentModelIndexERKNS_14GeoCoordinatesERKS2_
libdigikamcore.so.7.3.0:_ZN7Digikam14GeoModelHelper16onIndicesClickedERK5QListI21QPersistentModelIndexE
libdigikamcore.so.7.3.0:_ZN7Digikam14GeoModelHelper16staticMetaObjectE
libdigikamcore.so.7.3.0:_ZN7Digikam14GeoModelHelper23signalVisibilityChangedEv
libdigikamcore.so.7.3.0:_ZN7Digikam14GeoModelHelper29pixmapFromRepresentativeIndexERK21QPersistentModelIndexRK5QSize
libdigikamcore.so.7.3.0:_ZN7Digikam14GeoModelHelper29signalModelChangedDrasticallyEv
libdigikamcore.so.7.3.0:_ZN7Digikam14GeoModelHelper31bestRepresentativeIndexFromListERK5QListI21QPersistentModelIndexEi
libdigikamcore.so.7.3.0:_ZN7Digikam14GeoModelHelper32signalThumbnailAvailableForIndexERK21QPersistentModelIndexRK7QPixmap
libdigikamcore.so.7.3.0:_ZN7Digikam14GeoModelHelperC1EP7QObject
libdigikamcore.so.7.3.0:_ZN7Digikam14GeoModelHelperC2EP7QObject
libdigikamcore.so.7.3.0:_ZN7Digikam14GeoModelHelperD0Ev
libdigikamcore.so.7.3.0:_ZN7Digikam14GeoModelHelperD1Ev
libdigikamcore.so.7.3.0:_ZN7Digikam14GeoModelHelperD2Ev
libdigikamcore.so.7.3.0:_ZN7Digikam14HistoryImageId11setFileNameERK7QString
libdigikamcore.so.7.3.0:_ZN7Digikam14HistoryImageId13setPathOnDiskERK7QString
libdigikamcore.so.7.3.0:_ZN7Digikam14HistoryImageId13setUniqueHashERK7QStringx
libdigikamcore.so.7.3.0:_ZN7Digikam14HistoryImageId15setCreationDateERK9QDateTime
libdigikamcore.so.7.3.0:_ZN7Digikam14HistoryImageId7setPathERK7QString
libdigikamcore.so.7.3.0:_ZN7Digikam14HistoryImageId7setTypeENS0_4TypeE
libdigikamcore.so.7.3.0:_ZN7Digikam14HistoryImageId7setUuidERK7QString
libdigikamcore.so.7.3.0:_ZN7Digikam14HistoryImageIdC1ERK7QStringNS0_4TypeE
libdigikamcore.so.7.3.0:_ZN7Digikam14HistoryImageIdC1Ev
libdigikamcore.so.7.3.0:_ZN7Digikam14HistoryImageIdC2ERK7QStringNS0_4TypeE
libdigikamcore.so.7.3.0:_ZN7Digikam14HistoryImageIdC2Ev
libdigikamcore.so.7.3.0:_ZN7Digikam14ImageHistogram11qt_metacallEN11QMetaObject4CallEiPPv
libdigikamcore.so.7.3.0:_ZN7Digikam14ImageHistogram11qt_metacastEPKc
libdigikamcore.so.7.3.0:_ZN7Digikam14ImageHistogram15stopCalculationEv
libdigikamcore.so.7.3.0:_ZN7Digikam14ImageHistogram16staticMetaObjectE
libdigikamcore.so.7.3.0:_ZN7Digikam14ImageHistogram17calculateInThreadEv
libdigikamcore.so.7.3.0:_ZN7Digikam14ImageHistogram18calculationStartedEv
libdigikamcore.so.7.3.0:_ZN7Digikam14ImageHistogram19calculationFinishedEb
libdigikamcore.so.7.3.0:_ZN7Digikam14ImageHistogram23calculationAboutToStartEv
libdigikamcore.so.7.3.0:_ZN7Digikam14ImageHistogram3runEv
libdigikamcore.so.7.3.0:_ZN7Digikam14ImageHistogram9calculateEv
libdigikamcore.so.7.3.0:_ZN7Digikam14ImageHistogramC1ERKNS_4DImgEP7QObject
libdigikamcore.so.7.3.0:_ZN7Digikam14ImageHistogramC2ERKNS_4DImgEP7QObject
libdigikamcore.so.7.3.0:_ZN7Digikam14ImageHistogramD0Ev
libdigikamcore.so.7.3.0:_ZN7Digikam14ImageHistogramD1Ev
libdigikamcore.so.7.3.0:_ZN7Digikam14ImageHistogramD2Ev
libdigikamcore.so.7.3.0:_ZN7Digikam14InfraredFilter11filterImageEv
libdigikamcore.so.7.3.0:_ZN7Digikam14InfraredFilter11qt_metacallEN11QMetaObject4CallEiPPv
libdigikamcore.so.7.3.0:_ZN7Digikam14InfraredFilter11qt_metacastEPKc
libdigikamcore.so.7.3.0:_ZN7Digikam14InfraredFilter12filterActionEv
libdigikamcore.so.7.3.0:_ZN7Digikam14InfraredFilter14readParametersERKNS_12FilterActionE
libdigikamcore.so.7.3.0:_ZN7Digikam14InfraredFilter15DisplayableNameEv
libdigikamcore.so.7.3.0:_ZN7Digikam14InfraredFilter16staticMetaObjectE
libdigikamcore.so.7.3.0:_ZN7Digikam14InfraredFilterC1EP7QObject
libdigikamcore.so.7.3.0:_ZN7Digikam14InfraredFilterC1EPNS_4DImgEP7QObjectRKNS_17InfraredContainerE
libdigikamcore.so.7.3.0:_ZN7Digikam14InfraredFilterC2EP7QObject
libdigikamcore.so.7.3.0:_ZN7Digikam14InfraredFilterC2EPNS_4DImgEP7QObjectRKNS_17InfraredContainerE
libdigikamcore.so.7.3.0:_ZN7Digikam14InfraredFilterD0Ev
libdigikamcore.so.7.3.0:_ZN7Digikam14InfraredFilterD1Ev
libdigikamcore.so.7.3.0:_ZN7Digikam14InfraredFilterD2Ev
libdigikamcore.so.7.3.0:_ZN7Digikam14LoadSaveThread10imageSavedERK7QStringb
libdigikamcore.so.7.3.0:_ZN7Digikam14LoadSaveThread11imageLoadedERKNS_18LoadingDescriptionERKNS_4DImgE
libdigikamcore.so.7.3.0:_ZN7Digikam14LoadSaveThread11qt_metacallEN11QMetaObject4CallEiPPv
libdigikamcore.so.7.3.0:_ZN7Digikam14LoadSaveThread11qt_metacastEPKc
libdigikamcore.so.7.3.0:_ZN7Digikam14LoadSaveThread12infoProviderEv
libdigikamcore.so.7.3.0:_ZN7Digikam14LoadSaveThread14savingProgressERK7QStringf
libdigikamcore.so.7.3.0:_ZN7Digikam14LoadSaveThread15exifOrientationERK7QStringRKNS_9DMetadataEbb
libdigikamcore.so.7.3.0:_ZN7Digikam14LoadSaveThread15loadingProgressERKNS_18LoadingDescriptionEf
libdigikamcore.so.7.3.0:_ZN7Digikam14LoadSaveThread15setInfoProviderEPNS_24LoadSaveFileInfoProviderE
libdigikamcore.so.7.3.0:_ZN7Digikam14LoadSaveThread15taskHasFinishedEv
libdigikamcore.so.7.3.0:_ZN7Digikam14LoadSaveThread15thumbnailLoadedERKNS_18LoadingDescriptionERK6QImage
libdigikamcore.so.7.3.0:_ZN7Digikam14LoadSaveThread16signalImageSavedERK7QStringb
libdigikamcore.so.7.3.0:_ZN7Digikam14LoadSaveThread16staticMetaObjectE
libdigikamcore.so.7.3.0:_ZN7Digikam14LoadSaveThread17signalImageLoadedERKNS_18LoadingDescriptionERKNS_4DImgE
libdigikamcore.so.7.3.0:_ZN7Digikam14LoadSaveThread18imageStartedSavingERK7QString
libdigikamcore.so.7.3.0:_ZN7Digikam14LoadSaveThread19imageStartedLoadingERKNS_18LoadingDescriptionE
libdigikamcore.so.7.3.0:_ZN7Digikam14LoadSaveThread20notificationReceivedEv
libdigikamcore.so.7.3.0:_ZN7Digikam14LoadSaveThread20signalSavingProgressERK7QStringf
libdigikamcore.so.7.3.0:_ZN7Digikam14LoadSaveThread21setNotificationPolicyENS0_18NotificationPolicyE
libdigikamcore.so.7.3.0:_ZN7Digikam14LoadSaveThread21signalLoadingProgressERKNS_18LoadingDescriptionEf
libdigikamcore.so.7.3.0:_ZN7Digikam14LoadSaveThread21signalThumbnailLoadedERKNS_18LoadingDescriptionERK6QImage
libdigikamcore.so.7.3.0:_ZN7Digikam14LoadSaveThread24signalImageStartedSavingERK7QString
libdigikamcore.so.7.3.0:_ZN7Digikam14LoadSaveThread25signalImageStartedLoadingERKNS_18LoadingDescriptionE
libdigikamcore.so.7.3.0:_ZN7Digikam14LoadSaveThread28moreCompleteLoadingAvailableERKNS_18LoadingDescriptionES3_
libdigikamcore.so.7.3.0:_ZN7Digikam14LoadSaveThread34signalMoreCompleteLoadingAvailableERKNS_18LoadingDescriptionES3_
libdigikamcore.so.7.3.0:_ZN7Digikam14LoadSaveThread3runEv
libdigikamcore.so.7.3.0:_ZN7Digikam14LoadSaveThread4loadERKNS_18LoadingDescriptionE
libdigikamcore.so.7.3.0:_ZN7Digikam14LoadSaveThread4saveERKNS_4DImgERK7QStringS6_
libdigikamcore.so.7.3.0:_ZN7Digikam14LoadSaveThreadC1EP7QObject
libdigikamcore.so.7.3.0:_ZN7Digikam14LoadSaveThreadC2EP7QObject
libdigikamcore.so.7.3.0:_ZN7Digikam14LoadSaveThreadD0Ev
libdigikamcore.so.7.3.0:_ZN7Digikam14LoadSaveThreadD1Ev
libdigikamcore.so.7.3.0:_ZN7Digikam14LoadSaveThreadD2Ev
libdigikamcore.so.7.3.0:_ZN7Digikam14LookupAltitude10signalDoneEv
libdigikamcore.so.7.3.0:_ZN7Digikam14LookupAltitude11qt_metacallEN11QMetaObject4CallEiPPv
libdigikamcore.so.7.3.0:_ZN7Digikam14LookupAltitude11qt_metacastEPKc
libdigikamcore.so.7.3.0:_ZN7Digikam14LookupAltitude16staticMetaObjectE
libdigikamcore.so.7.3.0:_ZN7Digikam14LookupAltitude19signalRequestsReadyERK5QListIiE
libdigikamcore.so.7.3.0:_ZN7Digikam14LookupAltitudeC1EP7QObject
libdigikamcore.so.7.3.0:_ZN7Digikam14LookupAltitudeC2EP7QObject
libdigikamcore.so.7.3.0:_ZN7Digikam14LookupAltitudeD0Ev
libdigikamcore.so.7.3.0:_ZN7Digikam14LookupAltitudeD1Ev
libdigikamcore.so.7.3.0:_ZN7Digikam14LookupAltitudeD2Ev
libdigikamcore.so.7.3.0:_ZN7Digikam14MetaEngineDataC1ERKS0_
libdigikamcore.so.7.3.0:_ZN7Digikam14MetaEngineDataC1Ev
libdigikamcore.so.7.3.0:_ZN7Digikam14MetaEngineDataC2ERKS0_
libdigikamcore.so.7.3.0:_ZN7Digikam14MetaEngineDataC2Ev
libdigikamcore.so.7.3.0:_ZN7Digikam14MetaEngineDataD1Ev
libdigikamcore.so.7.3.0:_ZN7Digikam14MetaEngineDataD2Ev
libdigikamcore.so.7.3.0:_ZN7Digikam14MetaEngineDataaSERKS0_
libdigikamcore.so.7.3.0:_ZN7Digikam14MetadataWidget10setIfdListERK4QMapI7QStringS2_ERK11QStringList
libdigikamcore.so.7.3.0:_ZN7Digikam14MetadataWidget10setIfdListERK4QMapI7QStringS2_ERK11QStringListS8_
libdigikamcore.so.7.3.0:_ZN7Digikam14MetadataWidget11getTagTitleERK7QString
libdigikamcore.so.7.3.0:_ZN7Digikam14MetadataWidget11qt_metacallEN11QMetaObject4CallEiPPv
libdigikamcore.so.7.3.0:_ZN7Digikam14MetadataWidget11qt_metacastEPKc
libdigikamcore.so.7.3.0:_ZN7Digikam14MetadataWidget11setFileNameERK7QString
libdigikamcore.so.7.3.0:_ZN7Digikam14MetadataWidget11setMetadataERKNS_9DMetadataE
libdigikamcore.so.7.3.0:_ZN7Digikam14MetadataWidget12loadFromDataERK7QStringRKNS_9DMetadataE
libdigikamcore.so.7.3.0:_ZN7Digikam14MetadataWidget13setTagsFilterERK11QStringList
libdigikamcore.so.7.3.0:_ZN7Digikam14MetadataWidget14getMetadataMapEv
libdigikamcore.so.7.3.0:_ZN7Digikam14MetadataWidget14setMetadataMapERK4QMapI7QStringS2_E
libdigikamcore.so.7.3.0:_ZN7Digikam14MetadataWidget16setMetadataEmptyEv
libdigikamcore.so.7.3.0:_ZN7Digikam14MetadataWidget16staticMetaObjectE
libdigikamcore.so.7.3.0:_ZN7Digikam14MetadataWidget17getTagDescriptionERK7QString
libdigikamcore.so.7.3.0:_ZN7Digikam14MetadataWidget17setUserAreaWidgetEP7QWidget
libdigikamcore.so.7.3.0:_ZN7Digikam14MetadataWidget17slotFilterChangedEP7QAction
libdigikamcore.so.7.3.0:_ZN7Digikam14MetadataWidget17slotPrintMetadataEv
libdigikamcore.so.7.3.0:_ZN7Digikam14MetadataWidget18enabledToolButtonsEb
libdigikamcore.so.7.3.0:_ZN7Digikam14MetadataWidget18saveMetadataToFileERK7QStringS3_
libdigikamcore.so.7.3.0:_ZN7Digikam14MetadataWidget18slotCopy2ClipboardEv
libdigikamcore.so.7.3.0:_ZN7Digikam14MetadataWidget19setCurrentItemByKeyERK7QString
libdigikamcore.so.7.3.0:_ZN7Digikam14MetadataWidget19storeMetadataToFileERK4QUrlRK10QByteArray
libdigikamcore.so.7.3.0:_ZN7Digikam14MetadataWidget26signalSetupMetadataFiltersEv
libdigikamcore.so.7.3.0:_ZN7Digikam14MetadataWidget5setupEv
libdigikamcore.so.7.3.0:_ZN7Digikam14MetadataWidget7setModeEi
libdigikamcore.so.7.3.0:_ZN7Digikam14MetadataWidget9buildViewEv
libdigikamcore.so.7.3.0:_ZN7Digikam14MetadataWidgetC1EP7QWidgetRK7QString
libdigikamcore.so.7.3.0:_ZN7Digikam14MetadataWidgetC2EP7QWidgetRK7QString
libdigikamcore.so.7.3.0:_ZN7Digikam14MetadataWidgetD0Ev
libdigikamcore.so.7.3.0:_ZN7Digikam14MetadataWidgetD1Ev
libdigikamcore.so.7.3.0:_ZN7Digikam14MetadataWidgetD2Ev
libdigikamcore.so.7.3.0:_ZN7Digikam14ModelCompleter11qt_metacallEN11QMetaObject4CallEiPPv
libdigikamcore.so.7.3.0:_ZN7Digikam14ModelCompleter11qt_metacastEPKc
libdigikamcore.so.7.3.0:_ZN7Digikam14ModelCompleter12setItemModelEP18QAbstractItemModelii
libdigikamcore.so.7.3.0:_ZN7Digikam14ModelCompleter14slotModelResetEv
libdigikamcore.so.7.3.0:_ZN7Digikam14ModelCompleter15signalActivatedEv
libdigikamcore.so.7.3.0:_ZN7Digikam14ModelCompleter15slotDataChangedERK11QModelIndexS3_
libdigikamcore.so.7.3.0:_ZN7Digikam14ModelCompleter15slotHighlightedERK11QModelIndex
libdigikamcore.so.7.3.0:_ZN7Digikam14ModelCompleter16slotRowsInsertedERK11QModelIndexii
libdigikamcore.so.7.3.0:_ZN7Digikam14ModelCompleter16staticMetaObjectE
libdigikamcore.so.7.3.0:_ZN7Digikam14ModelCompleter17signalHighlightedEi
libdigikamcore.so.7.3.0:_ZN7Digikam14ModelCompleter21slotDelayedModelTimerEv
libdigikamcore.so.7.3.0:_ZN7Digikam14ModelCompleter24slotRowsAboutToBeRemovedERK11QModelIndexii
libdigikamcore.so.7.3.0:_ZN7Digikam14ModelCompleter4syncEP18QAbstractItemModel
libdigikamcore.so.7.3.0:_ZN7Digikam14ModelCompleter4syncEP18QAbstractItemModelRK11QModelIndex
libdigikamcore.so.7.3.0:_ZN7Digikam14ModelCompleter7addItemERK7QString
libdigikamcore.so.7.3.0:_ZN7Digikam14ModelCompleter7setListERK11QStringList
libdigikamcore.so.7.3.0:_ZN7Digikam14ModelCompleterC1EP7QObject
libdigikamcore.so.7.3.0:_ZN7Digikam14ModelCompleterC2EP7QObject
libdigikamcore.so.7.3.0:_ZN7Digikam14ModelCompleterD0Ev
libdigikamcore.so.7.3.0:_ZN7Digikam14ModelCompleterD1Ev
libdigikamcore.so.7.3.0:_ZN7Digikam14ModelCompleterD2Ev
libdigikamcore.so.7.3.0:_ZN7Digikam14NamespaceEntry16DM_TAG_CONTAINEREv
libdigikamcore.so.7.3.0:_ZN7Digikam14NamespaceEntry19DM_RATING_CONTAINEREv
libdigikamcore.so.7.3.0:_ZN7Digikam14NamespaceEntry20DM_COMMENT_CONTAINEREv
libdigikamcore.so.7.3.0:_ZN7Digikam14NamespaceEntry23DM_COLORLABEL_CONTAINEREv
libdigikamcore.so.7.3.0:_ZN7Digikam14OilPaintFilter11filterImageEv
libdigikamcore.so.7.3.0:_ZN7Digikam14OilPaintFilter11qt_metacallEN11QMetaObject4CallEiPPv
libdigikamcore.so.7.3.0:_ZN7Digikam14OilPaintFilter11qt_metacastEPKc
libdigikamcore.so.7.3.0:_ZN7Digikam14OilPaintFilter12filterActionEv
libdigikamcore.so.7.3.0:_ZN7Digikam14OilPaintFilter14readParametersERKNS_12FilterActionE
libdigikamcore.so.7.3.0:_ZN7Digikam14OilPaintFilter15DisplayableNameEv
libdigikamcore.so.7.3.0:_ZN7Digikam14OilPaintFilter16staticMetaObjectE
libdigikamcore.so.7.3.0:_ZN7Digikam14OilPaintFilter17MostFrequentColorERNS_4DImgEiiiiPhPjS4_S4_
libdigikamcore.so.7.3.0:_ZN7Digikam14OilPaintFilter26oilPaintImageMultithreadedEjj
libdigikamcore.so.7.3.0:_ZN7Digikam14OilPaintFilterC1EP7QObject
libdigikamcore.so.7.3.0:_ZN7Digikam14OilPaintFilterC1EPNS_4DImgEP7QObjectii
libdigikamcore.so.7.3.0:_ZN7Digikam14OilPaintFilterC2EP7QObject
libdigikamcore.so.7.3.0:_ZN7Digikam14OilPaintFilterC2EPNS_4DImgEP7QObjectii
libdigikamcore.so.7.3.0:_ZN7Digikam14OilPaintFilterD0Ev
libdigikamcore.so.7.3.0:_ZN7Digikam14OilPaintFilterD1Ev
libdigikamcore.so.7.3.0:_ZN7Digikam14OilPaintFilterD2Ev
libdigikamcore.so.7.3.0:_ZN7Digikam14PreviewToolBar11qt_metacallEN11QMetaObject4CallEiPPv
libdigikamcore.so.7.3.0:_ZN7Digikam14PreviewToolBar11qt_metacastEPKc
libdigikamcore.so.7.3.0:_ZN7Digikam14PreviewToolBar12readSettingsER12KConfigGroup
libdigikamcore.so.7.3.0:_ZN7Digikam14PreviewToolBar13writeSettingsER12KConfigGroup
libdigikamcore.so.7.3.0:_ZN7Digikam14PreviewToolBar14setPreviewModeENS0_11PreviewModeE
libdigikamcore.so.7.3.0:_ZN7Digikam14PreviewToolBar16setCheckedActionEi
libdigikamcore.so.7.3.0:_ZN7Digikam14PreviewToolBar16staticMetaObjectE
libdigikamcore.so.7.3.0:_ZN7Digikam14PreviewToolBar18setPreviewModeMaskEi
libdigikamcore.so.7.3.0:_ZN7Digikam14PreviewToolBar18slotButtonReleasedEi
libdigikamcore.so.7.3.0:_ZN7Digikam14PreviewToolBar19slotActionTriggeredEP7QAction
libdigikamcore.so.7.3.0:_ZN7Digikam14PreviewToolBar23registerMenuActionGroupEPNS_12EditorWindowE
libdigikamcore.so.7.3.0:_ZN7Digikam14PreviewToolBar24signalPreviewModeChangedEi
libdigikamcore.so.7.3.0:_ZN7Digikam14PreviewToolBarC1EP7QWidget
libdigikamcore.so.7.3.0:_ZN7Digikam14PreviewToolBarC2EP7QWidget
libdigikamcore.so.7.3.0:_ZN7Digikam14PreviewToolBarD0Ev
libdigikamcore.so.7.3.0:_ZN7Digikam14PreviewToolBarD1Ev
libdigikamcore.so.7.3.0:_ZN7Digikam14PreviewToolBarD2Ev
libdigikamcore.so.7.3.0:_ZN7Digikam14RainDropFilter11filterImageEv
libdigikamcore.so.7.3.0:_ZN7Digikam14RainDropFilter11qt_metacallEN11QMetaObject4CallEiPPv
libdigikamcore.so.7.3.0:_ZN7Digikam14RainDropFilter11qt_metacastEPKc
libdigikamcore.so.7.3.0:_ZN7Digikam14RainDropFilter12CanBeDroppedEiiPhiiib
libdigikamcore.so.7.3.0:_ZN7Digikam14RainDropFilter12filterActionEv
libdigikamcore.so.7.3.0:_ZN7Digikam14RainDropFilter14CreateRainDropEPhiibiS1_S1_iiidb
libdigikamcore.so.7.3.0:_ZN7Digikam14RainDropFilter14rainDropsImageEPNS_4DImgES2_iiiibii
libdigikamcore.so.7.3.0:_ZN7Digikam14RainDropFilter14readParametersERKNS_12FilterActionE
libdigikamcore.so.7.3.0:_ZN7Digikam14RainDropFilter15DisplayableNameEv
libdigikamcore.so.7.3.0:_ZN7Digikam14RainDropFilter16staticMetaObjectE
libdigikamcore.so.7.3.0:_ZN7Digikam14RainDropFilter17SetDropStatusBitsEiiPhiii
libdigikamcore.so.7.3.0:_ZN7Digikam14RainDropFilter27rainDropsImageMultithreadedERKNS0_4ArgsE
libdigikamcore.so.7.3.0:_ZN7Digikam14RainDropFilterC1EP7QObject
libdigikamcore.so.7.3.0:_ZN7Digikam14RainDropFilterC1EPNS_4DImgEP7QObjectiiiRK5QRect
libdigikamcore.so.7.3.0:_ZN7Digikam14RainDropFilterC2EP7QObject
libdigikamcore.so.7.3.0:_ZN7Digikam14RainDropFilterC2EPNS_4DImgEP7QObjectiiiRK5QRect
libdigikamcore.so.7.3.0:_ZN7Digikam14RainDropFilterD0Ev
libdigikamcore.so.7.3.0:_ZN7Digikam14RainDropFilterD1Ev
libdigikamcore.so.7.3.0:_ZN7Digikam14RainDropFilterD2Ev
libdigikamcore.so.7.3.0:_ZN7Digikam14SystemSettings12readSettingsEv
libdigikamcore.so.7.3.0:_ZN7Digikam14SystemSettings12saveSettingsEv
libdigikamcore.so.7.3.0:_ZN7Digikam14SystemSettingsC1ERK7QString
libdigikamcore.so.7.3.0:_ZN7Digikam14SystemSettingsC2ERK7QString
libdigikamcore.so.7.3.0:_ZN7Digikam14SystemSettingsD1Ev
libdigikamcore.so.7.3.0:_ZN7Digikam14SystemSettingsD2Ev
libdigikamcore.so.7.3.0:_ZN7Digikam14ThumbsDbAccess10parametersEv
libdigikamcore.so.7.3.0:_ZN7Digikam14ThumbsDbAccess12setLastErrorERK7QString
libdigikamcore.so.7.3.0:_ZN7Digikam14ThumbsDbAccess13isInitializedEv
libdigikamcore.so.7.3.0:_ZN7Digikam14ThumbsDbAccess13setParametersERKNS_18DbEngineParametersE
libdigikamcore.so.7.3.0:_ZN7Digikam14ThumbsDbAccess15cleanUpDatabaseEv
libdigikamcore.so.7.3.0:_ZN7Digikam14ThumbsDbAccess16checkReadyForUseEPNS_22InitializationObserverE
libdigikamcore.so.7.3.0:_ZN7Digikam14ThumbsDbAccess1dE
libdigikamcore.so.7.3.0:_ZN7Digikam14ThumbsDbAccess24initDbEngineErrorHandlerEPNS_20DbEngineErrorHandlerE
libdigikamcore.so.7.3.0:_ZN7Digikam14ThumbsDbAccessC1Eb
libdigikamcore.so.7.3.0:_ZN7Digikam14ThumbsDbAccessC1Ev
libdigikamcore.so.7.3.0:_ZN7Digikam14ThumbsDbAccessC2Eb
libdigikamcore.so.7.3.0:_ZN7Digikam14ThumbsDbAccessC2Ev
libdigikamcore.so.7.3.0:_ZN7Digikam14ThumbsDbAccessD1Ev
libdigikamcore.so.7.3.0:_ZN7Digikam14ThumbsDbAccessD2Ev
libdigikamcore.so.7.3.0:_ZN7Digikam14TonalityFilter11filterImageEv
libdigikamcore.so.7.3.0:_ZN7Digikam14TonalityFilter11qt_metacallEN11QMetaObject4CallEiPPv
libdigikamcore.so.7.3.0:_ZN7Digikam14TonalityFilter11qt_metacastEPKc
libdigikamcore.so.7.3.0:_ZN7Digikam14TonalityFilter12filterActionEv
libdigikamcore.so.7.3.0:_ZN7Digikam14TonalityFilter14readParametersERKNS_12FilterActionE
libdigikamcore.so.7.3.0:_ZN7Digikam14TonalityFilter15DisplayableNameEv
libdigikamcore.so.7.3.0:_ZN7Digikam14TonalityFilter16staticMetaObjectE
libdigikamcore.so.7.3.0:_ZN7Digikam14TonalityFilterC1EP7QObject
libdigikamcore.so.7.3.0:_ZN7Digikam14TonalityFilterC1EPNS_4DImgEP7QObjectRKNS_17TonalityContainerE
libdigikamcore.so.7.3.0:_ZN7Digikam14TonalityFilterC2EP7QObject
libdigikamcore.so.7.3.0:_ZN7Digikam14TonalityFilterC2EPNS_4DImgEP7QObjectRKNS_17TonalityContainerE
libdigikamcore.so.7.3.0:_ZN7Digikam14TonalityFilterD0Ev
libdigikamcore.so.7.3.0:_ZN7Digikam14TonalityFilterD1Ev
libdigikamcore.so.7.3.0:_ZN7Digikam14TonalityFilterD2Ev
libdigikamcore.so.7.3.0:_ZN7Digikam14TransitionMngr10setInImageERK6QImage
libdigikamcore.so.7.3.0:_ZN7Digikam14TransitionMngr11setOutImageERK6QImage
libdigikamcore.so.7.3.0:_ZN7Digikam14TransitionMngr12currentFrameERi
libdigikamcore.so.7.3.0:_ZN7Digikam14TransitionMngr13setOutputSizeERK5QSize
libdigikamcore.so.7.3.0:_ZN7Digikam14TransitionMngr13setTransitionENS0_9TransTypeE
libdigikamcore.so.7.3.0:_ZN7Digikam14TransitionMngr15transitionNamesEv
libdigikamcore.so.7.3.0:_ZN7Digikam14TransitionMngrC1Ev
libdigikamcore.so.7.3.0:_ZN7Digikam14TransitionMngrC2Ev
libdigikamcore.so.7.3.0:_ZN7Digikam14TransitionMngrD1Ev
libdigikamcore.so.7.3.0:_ZN7Digikam14TransitionMngrD2Ev
libdigikamcore.so.7.3.0:_ZN7Digikam14VersionManager11setSettingsERKNS_22VersionManagerSettingsE
libdigikamcore.so.7.3.0:_ZN7Digikam14VersionManager15setNamingSchemeEPNS_19VersionNamingSchemeE
libdigikamcore.so.7.3.0:_ZN7Digikam14VersionManager17toplevelDirectoryERK7QString
libdigikamcore.so.7.3.0:_ZN7Digikam14VersionManager21operationNewVersionAsERKNS_15VersionFileInfoES3_RKNS_13DImageHistoryES6_
libdigikamcore.so.7.3.0:_ZN7Digikam14VersionManager27operationNewVersionInFormatERKNS_15VersionFileInfoERK7QStringRKNS_13DImageHistoryES9_
libdigikamcore.so.7.3.0:_ZN7Digikam14VersionManager9operationENS0_12FileNameTypeERKNS_15VersionFileInfoERKNS_13DImageHistoryES7_
libdigikamcore.so.7.3.0:_ZN7Digikam14VersionManagerC1Ev
libdigikamcore.so.7.3.0:_ZN7Digikam14VersionManagerC2Ev
libdigikamcore.so.7.3.0:_ZN7Digikam14VersionManagerD0Ev
libdigikamcore.so.7.3.0:_ZN7Digikam14VersionManagerD1Ev
libdigikamcore.so.7.3.0:_ZN7Digikam14VersionManagerD2Ev
libdigikamcore.so.7.3.0:_ZN7Digikam14defineShortcutEP7QWidgetRK12QKeySequencePK7QObjectPKc
libdigikamcore.so.7.3.0:_ZN7Digikam14digiKamVersionEv
libdigikamcore.so.7.3.0:_ZN7Digikam14tryInitDrMingwEv
libdigikamcore.so.7.3.0:_ZN7Digikam15ActionItemModel10addActionsEP7QWidget
libdigikamcore.so.7.3.0:_ZN7Digikam15ActionItemModel10addActionsEP7QWidgetRK5QListIP7QActionE
libdigikamcore.so.7.3.0:_ZN7Digikam15ActionItemModel11qt_metacallEN11QMetaObject4CallEiPPv
libdigikamcore.so.7.3.0:_ZN7Digikam15ActionItemModel11qt_metacastEPKc
libdigikamcore.so.7.3.0:_ZN7Digikam15ActionItemModel14actionForIndexERK11QModelIndex
libdigikamcore.so.7.3.0:_ZN7Digikam15ActionItemModel16staticMetaObjectE
libdigikamcore.so.7.3.0:_ZN7Digikam15ActionItemModel17createFilterModelEv
libdigikamcore.so.7.3.0:_ZN7Digikam15ActionItemModel17slotActionChangedEv
libdigikamcore.so.7.3.0:_ZN7Digikam15ActionItemModel23setPropertiesFromActionEP13QStandardItemP7QAction
libdigikamcore.so.7.3.0:_ZN7Digikam15ActionItemModel5hoverERK11QModelIndex
libdigikamcore.so.7.3.0:_ZN7Digikam15ActionItemModel6toggleERK11QModelIndex
libdigikamcore.so.7.3.0:_ZN7Digikam15ActionItemModel7setModeE6QFlagsINS0_16MenuCategoryFlagEE
libdigikamcore.so.7.3.0:_ZN7Digikam15ActionItemModel7triggerERK11QModelIndex
libdigikamcore.so.7.3.0:_ZN7Digikam15ActionItemModel9addActionEP7QActionRK7QStringRK8QVariant
libdigikamcore.so.7.3.0:_ZN7Digikam15ActionItemModelC1EP7QObject
libdigikamcore.so.7.3.0:_ZN7Digikam15ActionItemModelC2EP7QObject
libdigikamcore.so.7.3.0:_ZN7Digikam15BWSepiaSettings11qt_metacallEN11QMetaObject4CallEiPPv
libdigikamcore.so.7.3.0:_ZN7Digikam15BWSepiaSettings11qt_metacastEPKc
libdigikamcore.so.7.3.0:_ZN7Digikam15BWSepiaSettings11setSettingsERKNS_16BWSepiaContainerE
libdigikamcore.so.7.3.0:_ZN7Digikam15BWSepiaSettings12loadSettingsEv
libdigikamcore.so.7.3.0:_ZN7Digikam15BWSepiaSettings12readSettingsER12KConfigGroup
libdigikamcore.so.7.3.0:_ZN7Digikam15BWSepiaSettings12setScaleTypeENS_14HistogramScaleE
libdigikamcore.so.7.3.0:_ZN7Digikam15BWSepiaSettings13writeSettingsER12KConfigGroup
libdigikamcore.so.7.3.0:_ZN7Digikam15BWSepiaSettings14resetToDefaultEv
libdigikamcore.so.7.3.0:_ZN7Digikam15BWSepiaSettings14saveAsSettingsEv
libdigikamcore.so.7.3.0:_ZN7Digikam15BWSepiaSettings16staticMetaObjectE
libdigikamcore.so.7.3.0:_ZN7Digikam15BWSepiaSettings18slotFilterSelectedEv
libdigikamcore.so.7.3.0:_ZN7Digikam15BWSepiaSettings19startPreviewFiltersEv
libdigikamcore.so.7.3.0:_ZN7Digikam15BWSepiaSettings21signalSettingsChangedEv
libdigikamcore.so.7.3.0:_ZN7Digikam15BWSepiaSettingsC1EP7QWidgetPNS_4DImgE
libdigikamcore.so.7.3.0:_ZN7Digikam15BWSepiaSettingsC2EP7QWidgetPNS_4DImgE
libdigikamcore.so.7.3.0:_ZN7Digikam15BWSepiaSettingsD0Ev
libdigikamcore.so.7.3.0:_ZN7Digikam15BWSepiaSettingsD1Ev
libdigikamcore.so.7.3.0:_ZN7Digikam15BWSepiaSettingsD2Ev
libdigikamcore.so.7.3.0:_ZN7Digikam15BdEngineBackend10readToListERNS_16DbEngineSqlQueryE
libdigikamcore.so.7.3.0:_ZN7Digikam15BdEngineBackend11qt_metacallEN11QMetaObject4CallEiPPv
libdigikamcore.so.7.3.0:_ZN7Digikam15BdEngineBackend11qt_metacastEPKc
libdigikamcore.so.7.3.0:_ZN7Digikam15BdEngineBackend12execDBActionERK7QStringP5QListI8QVariantEPS5_
libdigikamcore.so.7.3.0:_ZN7Digikam15BdEngineBackend12execDBActionERK7QStringRK4QMapIS1_8QVariantEP5QListIS5_EPS5_
libdigikamcore.so.7.3.0:_ZN7Digikam15BdEngineBackend12execDBActionERKNS_14DbEngineActionEP5QListI8QVariantEPS5_
libdigikamcore.so.7.3.0:_ZN7Digikam15BdEngineBackend12execDBActionERKNS_14DbEngineActionERK4QMapI7QString8QVariantEP5QListIS6_EPS6_
libdigikamcore.so.7.3.0:_ZN7Digikam15BdEngineBackend12isCompatibleERKNS_18DbEngineParametersE
libdigikamcore.so.7.3.0:_ZN7Digikam15BdEngineBackend12lastSQLErrorEv
libdigikamcore.so.7.3.0:_ZN7Digikam15BdEngineBackend12prepareQueryERK7QString
libdigikamcore.so.7.3.0:_ZN7Digikam15BdEngineBackend13execDirectSqlERK7QString
libdigikamcore.so.7.3.0:_ZN7Digikam15BdEngineBackend16beginTransactionEv
libdigikamcore.so.7.3.0:_ZN7Digikam15BdEngineBackend16staticMetaObjectE
libdigikamcore.so.7.3.0:_ZN7Digikam15BdEngineBackend17commitTransactionEv
libdigikamcore.so.7.3.0:_ZN7Digikam15BdEngineBackend17execDBActionQueryERK7QStringRK4QMapIS1_8QVariantE
libdigikamcore.so.7.3.0:_ZN7Digikam15BdEngineBackend17execDBActionQueryERKNS_14DbEngineActionERK4QMapI7QString8QVariantE
libdigikamcore.so.7.3.0:_ZN7Digikam15BdEngineBackend17handleQueryResultERNS_16DbEngineSqlQueryEP5QListI8QVariantEPS4_
libdigikamcore.so.7.3.0:_ZN7Digikam15BdEngineBackend18execUpsertDBActionERK7QStringRK8QVariantRK11QStringListRK5QListIS4_E
libdigikamcore.so.7.3.0:_ZN7Digikam15BdEngineBackend18execUpsertDBActionERKNS_14DbEngineActionERK8QVariantRK11QStringListRK5QListIS4_E
libdigikamcore.so.7.3.0:_ZN7Digikam15BdEngineBackend18queryErrorHandlingERNS_16DbEngineSqlQueryEi
libdigikamcore.so.7.3.0:_ZN7Digikam15BdEngineBackend19rollbackTransactionEv
libdigikamcore.so.7.3.0:_ZN7Digikam15BdEngineBackend19setForeignKeyChecksEb
libdigikamcore.so.7.3.0:_ZN7Digikam15BdEngineBackend23connectionErrorHandlingEi
libdigikamcore.so.7.3.0:_ZN7Digikam15BdEngineBackend23execDirectSqlWithResultERK7QStringP5QListI8QVariantEPS5_
libdigikamcore.so.7.3.0:_ZN7Digikam15BdEngineBackend23setDbEngineErrorHandlerEPNS_20DbEngineErrorHandlerE
libdigikamcore.so.7.3.0:_ZN7Digikam15BdEngineBackend24transactionErrorHandlingERK9QSqlErrori
libdigikamcore.so.7.3.0:_ZN7Digikam15BdEngineBackend4execERNS_16DbEngineSqlQueryE
libdigikamcore.so.7.3.0:_ZN7Digikam15BdEngineBackend4openERKNS_18DbEngineParametersE
libdigikamcore.so.7.3.0:_ZN7Digikam15BdEngineBackend5closeEv
libdigikamcore.so.7.3.0:_ZN7Digikam15BdEngineBackend6tablesEv
libdigikamcore.so.7.3.0:_ZN7Digikam15BdEngineBackend7execSqlERK7QStringP5QListI8QVariantEPS5_
libdigikamcore.so.7.3.0:_ZN7Digikam15BdEngineBackend7execSqlERK7QStringRK4QMapIS1_8QVariantEP5QListIS5_EPS5_
libdigikamcore.so.7.3.0:_ZN7Digikam15BdEngineBackend7execSqlERK7QStringRK5QListI8QVariantEPS6_PS5_
libdigikamcore.so.7.3.0:_ZN7Digikam15BdEngineBackend7execSqlERK7QStringRK8QVariantP5QListIS4_EPS4_
libdigikamcore.so.7.3.0:_ZN7Digikam15BdEngineBackend7execSqlERK7QStringRK8QVariantS6_P5QListIS4_EPS4_
libdigikamcore.so.7.3.0:_ZN7Digikam15BdEngineBackend7execSqlERK7QStringRK8QVariantS6_S6_P5QListIS4_EPS4_
libdigikamcore.so.7.3.0:_ZN7Digikam15BdEngineBackend7execSqlERK7QStringRK8QVariantS6_S6_S6_P5QListIS4_EPS4_
libdigikamcore.so.7.3.0:_ZN7Digikam15BdEngineBackend7execSqlERNS_16DbEngineSqlQueryEP5QListI8QVariantEPS4_
libdigikamcore.so.7.3.0:_ZN7Digikam15BdEngineBackend7execSqlERNS_16DbEngineSqlQueryERK5QListI8QVariantEPS5_PS4_
libdigikamcore.so.7.3.0:_ZN7Digikam15BdEngineBackend7execSqlERNS_16DbEngineSqlQueryERK8QVariantP5QListIS3_EPS3_
libdigikamcore.so.7.3.0:_ZN7Digikam15BdEngineBackend7execSqlERNS_16DbEngineSqlQueryERK8QVariantS5_P5QListIS3_EPS3_
libdigikamcore.so.7.3.0:_ZN7Digikam15BdEngineBackend7execSqlERNS_16DbEngineSqlQueryERK8QVariantS5_S5_P5QListIS3_EPS3_
libdigikamcore.so.7.3.0:_ZN7Digikam15BdEngineBackend7execSqlERNS_16DbEngineSqlQueryERK8QVariantS5_S5_S5_P5QListIS3_EPS3_
libdigikamcore.so.7.3.0:_ZN7Digikam15BdEngineBackend8getQueryEv
libdigikamcore.so.7.3.0:_ZN7Digikam15BdEngineBackend9copyQueryERKNS_16DbEngineSqlQueryE
libdigikamcore.so.7.3.0:_ZN7Digikam15BdEngineBackend9execBatchERNS_16DbEngineSqlQueryE
libdigikamcore.so.7.3.0:_ZN7Digikam15BdEngineBackend9execQueryERK7QString
libdigikamcore.so.7.3.0:_ZN7Digikam15BdEngineBackend9execQueryERK7QStringRK4QMapIS1_8QVariantE
libdigikamcore.so.7.3.0:_ZN7Digikam15BdEngineBackend9execQueryERK7QStringRK5QListI8QVariantE
libdigikamcore.so.7.3.0:_ZN7Digikam15BdEngineBackend9execQueryERK7QStringRK8QVariant
libdigikamcore.so.7.3.0:_ZN7Digikam15BdEngineBackend9execQueryERK7QStringRK8QVariantS6_
libdigikamcore.so.7.3.0:_ZN7Digikam15BdEngineBackend9execQueryERK7QStringRK8QVariantS6_S6_
libdigikamcore.so.7.3.0:_ZN7Digikam15BdEngineBackend9execQueryERK7QStringRK8QVariantS6_S6_S6_
libdigikamcore.so.7.3.0:_ZN7Digikam15BdEngineBackend9execQueryERNS_16DbEngineSqlQueryERK5QListI8QVariantE
libdigikamcore.so.7.3.0:_ZN7Digikam15BdEngineBackend9execQueryERNS_16DbEngineSqlQueryERK8QVariant
libdigikamcore.so.7.3.0:_ZN7Digikam15BdEngineBackend9execQueryERNS_16DbEngineSqlQueryERK8QVariantS5_
libdigikamcore.so.7.3.0:_ZN7Digikam15BdEngineBackend9execQueryERNS_16DbEngineSqlQueryERK8QVariantS5_S5_
libdigikamcore.so.7.3.0:_ZN7Digikam15BdEngineBackend9execQueryERNS_16DbEngineSqlQueryERK8QVariantS5_S5_S5_
libdigikamcore.so.7.3.0:_ZN7Digikam15BdEngineBackend9lastErrorEv
libdigikamcore.so.7.3.0:_ZN7Digikam15BdEngineBackendC1ERK7QStringPNS_15DbEngineLockingE
libdigikamcore.so.7.3.0:_ZN7Digikam15BdEngineBackendC1ERK7QStringPNS_15DbEngineLockingERNS_22BdEngineBackendPrivateE
libdigikamcore.so.7.3.0:_ZN7Digikam15BdEngineBackendC2ERK7QStringPNS_15DbEngineLockingE
libdigikamcore.so.7.3.0:_ZN7Digikam15BdEngineBackendC2ERK7QStringPNS_15DbEngineLockingERNS_22BdEngineBackendPrivateE
libdigikamcore.so.7.3.0:_ZN7Digikam15BdEngineBackendD0Ev
libdigikamcore.so.7.3.0:_ZN7Digikam15BdEngineBackendD1Ev
libdigikamcore.so.7.3.0:_ZN7Digikam15BdEngineBackendD2Ev
libdigikamcore.so.7.3.0:_ZN7Digikam15BookmarksDialog10closeEventEP11QCloseEvent
libdigikamcore.so.7.3.0:_ZN7Digikam15BookmarksDialog11expandNodesEPNS_12BookmarkNodeE
libdigikamcore.so.7.3.0:_ZN7Digikam15BookmarksDialog11qt_metacallEN11QMetaObject4CallEiPPv
libdigikamcore.so.7.3.0:_ZN7Digikam15BookmarksDialog11qt_metacastEPKc
libdigikamcore.so.7.3.0:_ZN7Digikam15BookmarksDialog12readSettingsEv
libdigikamcore.so.7.3.0:_ZN7Digikam15BookmarksDialog12saveSettingsEv
libdigikamcore.so.7.3.0:_ZN7Digikam15BookmarksDialog13slotNewFolderEv
libdigikamcore.so.7.3.0:_ZN7Digikam15BookmarksDialog13slotOpenInMapERK11QModelIndex
libdigikamcore.so.7.3.0:_ZN7Digikam15BookmarksDialog13slotRemoveOneEv
libdigikamcore.so.7.3.0:_ZN7Digikam15BookmarksDialog16staticMetaObjectE
libdigikamcore.so.7.3.0:_ZN7Digikam15BookmarksDialog17saveExpandedNodesERK11QModelIndex
libdigikamcore.so.7.3.0:_ZN7Digikam15BookmarksDialog30slotCustomContextMenuRequestedERK6QPoint
libdigikamcore.so.7.3.0:_ZN7Digikam15BookmarksDialog6acceptEv
libdigikamcore.so.7.3.0:_ZN7Digikam15BookmarksDialogC1EP7QWidgetPNS_16BookmarksManagerE
libdigikamcore.so.7.3.0:_ZN7Digikam15BookmarksDialogC2EP7QWidgetPNS_16BookmarksManagerE
libdigikamcore.so.7.3.0:_ZN7Digikam15BookmarksDialogD0Ev
libdigikamcore.so.7.3.0:_ZN7Digikam15BookmarksDialogD1Ev
libdigikamcore.so.7.3.0:_ZN7Digikam15BookmarksDialogD2Ev
libdigikamcore.so.7.3.0:_ZN7Digikam15BorderContainer13getBorderPathEi
libdigikamcore.so.7.3.0:_ZN7Digikam15BorderContainerC1Ev
libdigikamcore.so.7.3.0:_ZN7Digikam15BorderContainerC2Ev
libdigikamcore.so.7.3.0:_ZN7Digikam15BorderContainerD1Ev
libdigikamcore.so.7.3.0:_ZN7Digikam15BorderContainerD2Ev
libdigikamcore.so.7.3.0:_ZN7Digikam15CIETongueWidget10biasedLineEiiii
libdigikamcore.so.7.3.0:_ZN7Digikam15CIETongueWidget10biasedTextEiiRK7QString
libdigikamcore.so.7.3.0:_ZN7Digikam15CIETongueWidget10drawLabelsEv
libdigikamcore.so.7.3.0:_ZN7Digikam15CIETongueWidget10fillTongueEv
libdigikamcore.so.7.3.0:_ZN7Digikam15CIETongueWidget10paintEventEP11QPaintEvent
libdigikamcore.so.7.3.0:_ZN7Digikam15CIETongueWidget10setProfileEPv
libdigikamcore.so.7.3.0:_ZN7Digikam15CIETongueWidget11qt_metacallEN11QMetaObject4CallEiPPv
libdigikamcore.so.7.3.0:_ZN7Digikam15CIETongueWidget11qt_metacastEPKc
libdigikamcore.so.7.3.0:_ZN7Digikam15CIETongueWidget11resizeEventEP12QResizeEvent
libdigikamcore.so.7.3.0:_ZN7Digikam15CIETongueWidget12colorByCoordEdd
libdigikamcore.so.7.3.0:_ZN7Digikam15CIETongueWidget12updatePixmapEv
libdigikamcore.so.7.3.0:_ZN7Digikam15CIETongueWidget13loadingFailedEv
libdigikamcore.so.7.3.0:_ZN7Digikam15CIETongueWidget13outlineTongueEv
libdigikamcore.so.7.3.0:_ZN7Digikam15CIETongueWidget14drawTongueAxisEv
libdigikamcore.so.7.3.0:_ZN7Digikam15CIETongueWidget14drawTongueGridEv
libdigikamcore.so.7.3.0:_ZN7Digikam15CIETongueWidget14drawWhitePointEv
libdigikamcore.so.7.3.0:_ZN7Digikam15CIETongueWidget14loadingStartedEv
libdigikamcore.so.7.3.0:_ZN7Digikam15CIETongueWidget14setProfileDataERK10QByteArray
libdigikamcore.so.7.3.0:_ZN7Digikam15CIETongueWidget15drawSmallElipseEP9cmsCIExyYhhhi
libdigikamcore.so.7.3.0:_ZN7Digikam15CIETongueWidget16staticMetaObjectE
libdigikamcore.so.7.3.0:_ZN7Digikam15CIETongueWidget17uncalibratedColorEv
libdigikamcore.so.7.3.0:_ZN7Digikam15CIETongueWidget18setProfileFromFileERK4QUrl
libdigikamcore.so.7.3.0:_ZN7Digikam15CIETongueWidget20drawColorantTriangleEv
libdigikamcore.so.7.3.0:_ZN7Digikam15CIETongueWidget21slotProgressTimerDoneEv
libdigikamcore.so.7.3.0:_ZN7Digikam15CIETongueWidget8mapPointERiS1_P9cmsCIExyY
libdigikamcore.so.7.3.0:_ZN7Digikam15CIETongueWidgetC1EiiP7QWidgetPv
libdigikamcore.so.7.3.0:_ZN7Digikam15CIETongueWidgetC2EiiP7QWidgetPv
libdigikamcore.so.7.3.0:_ZN7Digikam15CIETongueWidgetD0Ev
libdigikamcore.so.7.3.0:_ZN7Digikam15CIETongueWidgetD1Ev
libdigikamcore.so.7.3.0:_ZN7Digikam15CIETongueWidgetD2Ev
libdigikamcore.so.7.3.0:_ZN7Digikam15ColorFXSettings11qt_metacallEN11QMetaObject4CallEiPPv
libdigikamcore.so.7.3.0:_ZN7Digikam15ColorFXSettings11qt_metacastEPKc
libdigikamcore.so.7.3.0:_ZN7Digikam15ColorFXSettings11setSettingsERKNS_16ColorFXContainerE
libdigikamcore.so.7.3.0:_ZN7Digikam15ColorFXSettings12readSettingsER12KConfigGroup
libdigikamcore.so.7.3.0:_ZN7Digikam15ColorFXSettings13writeSettingsER12KConfigGroup
libdigikamcore.so.7.3.0:_ZN7Digikam15ColorFXSettings14resetToDefaultEv
libdigikamcore.so.7.3.0:_ZN7Digikam15ColorFXSettings16staticMetaObjectE
libdigikamcore.so.7.3.0:_ZN7Digikam15ColorFXSettings19startPreviewFiltersEv
libdigikamcore.so.7.3.0:_ZN7Digikam15ColorFXSettings21signalSettingsChangedEv
libdigikamcore.so.7.3.0:_ZN7Digikam15ColorFXSettings21slotEffectTypeChangedEi
libdigikamcore.so.7.3.0:_ZN7Digikam15ColorFXSettings8findLutsEv
libdigikamcore.so.7.3.0:_ZN7Digikam15ColorFXSettingsC1EP7QWidgetb
libdigikamcore.so.7.3.0:_ZN7Digikam15ColorFXSettingsC2EP7QWidgetb
libdigikamcore.so.7.3.0:_ZN7Digikam15ColorFXSettingsD0Ev
libdigikamcore.so.7.3.0:_ZN7Digikam15ColorFXSettingsD1Ev
libdigikamcore.so.7.3.0:_ZN7Digikam15ColorFXSettingsD2Ev
libdigikamcore.so.7.3.0:_ZN7Digikam15CountrySelector10setCountryERK7QString
libdigikamcore.so.7.3.0:_ZN7Digikam15CountrySelector11qt_metacallEN11QMetaObject4CallEiPPv
libdigikamcore.so.7.3.0:_ZN7Digikam15CountrySelector11qt_metacastEPKc
libdigikamcore.so.7.3.0:_ZN7Digikam15CountrySelector14countryForCodeERK7QString
libdigikamcore.so.7.3.0:_ZN7Digikam15CountrySelector16staticMetaObjectE
libdigikamcore.so.7.3.0:_ZN7Digikam15CountrySelectorC1EP7QWidget
libdigikamcore.so.7.3.0:_ZN7Digikam15CountrySelectorC2EP7QWidget
libdigikamcore.so.7.3.0:_ZN7Digikam15CountrySelectorD0Ev
libdigikamcore.so.7.3.0:_ZN7Digikam15CountrySelectorD1Ev
libdigikamcore.so.7.3.0:_ZN7Digikam15CountrySelectorD2Ev
libdigikamcore.so.7.3.0:_ZN7Digikam15CurvesContainer10initializeEv
libdigikamcore.so.7.3.0:_ZN7Digikam15CurvesContainer16fromFilterActionERKNS_12FilterActionERK7QString
libdigikamcore.so.7.3.0:_ZN7Digikam15CurvesContainerC1Eib
libdigikamcore.so.7.3.0:_ZN7Digikam15CurvesContainerC1Ev
libdigikamcore.so.7.3.0:_ZN7Digikam15CurvesContainerC2Eib
libdigikamcore.so.7.3.0:_ZN7Digikam15CurvesContainerC2Ev
libdigikamcore.so.7.3.0:_ZN7Digikam15DCategoryDrawer10mouseMovedERK11QModelIndexRK5QRectP11QMouseEvent
libdigikamcore.so.7.3.0:_ZN7Digikam15DCategoryDrawer11qt_metacallEN11QMetaObject4CallEiPPv
libdigikamcore.so.7.3.0:_ZN7Digikam15DCategoryDrawer11qt_metacastEPKc
libdigikamcore.so.7.3.0:_ZN7Digikam15DCategoryDrawer15actionRequestedEiRK11QModelIndex
libdigikamcore.so.7.3.0:_ZN7Digikam15DCategoryDrawer16staticMetaObjectE
libdigikamcore.so.7.3.0:_ZN7Digikam15DCategoryDrawer18mouseButtonPressedERK11QModelIndexRK5QRectP11QMouseEvent
libdigikamcore.so.7.3.0:_ZN7Digikam15DCategoryDrawer19mouseButtonReleasedERK11QModelIndexRK5QRectP11QMouseEvent
libdigikamcore.so.7.3.0:_ZN7Digikam15DCategoryDrawer23collapseOrExpandClickedERK11QModelIndex
libdigikamcore.so.7.3.0:_ZN7Digikam15DCategoryDrawer24mouseButtonDoubleClickedERK11QModelIndexRK5QRectP11QMouseEvent
libdigikamcore.so.7.3.0:_ZN7Digikam15DCategoryDrawer9mouseLeftERK11QModelIndexRK5QRect
libdigikamcore.so.7.3.0:_ZN7Digikam15DCategoryDrawerC1EPNS_16DCategorizedViewE
libdigikamcore.so.7.3.0:_ZN7Digikam15DCategoryDrawerC2EPNS_16DCategorizedViewE
libdigikamcore.so.7.3.0:_ZN7Digikam15DCategoryDrawerD0Ev
libdigikamcore.so.7.3.0:_ZN7Digikam15DCategoryDrawerD1Ev
libdigikamcore.so.7.3.0:_ZN7Digikam15DCategoryDrawerD2Ev
libdigikamcore.so.7.3.0:_ZN7Digikam15DDoubleNumInput11qt_metacallEN11QMetaObject4CallEiPPv
libdigikamcore.so.7.3.0:_ZN7Digikam15DDoubleNumInput11qt_metacastEPKc
libdigikamcore.so.7.3.0:_ZN7Digikam15DDoubleNumInput11setDecimalsEi
libdigikamcore.so.7.3.0:_ZN7Digikam15DDoubleNumInput12valueChangedEd
libdigikamcore.so.7.3.0:_ZN7Digikam15DDoubleNumInput15setDefaultValueEd
libdigikamcore.so.7.3.0:_ZN7Digikam15DDoubleNumInput16slotValueChangedEd
libdigikamcore.so.7.3.0:_ZN7Digikam15DDoubleNumInput16staticMetaObjectE
libdigikamcore.so.7.3.0:_ZN7Digikam15DDoubleNumInput5resetEv
libdigikamcore.so.7.3.0:_ZN7Digikam15DDoubleNumInput8setRangeEddd
libdigikamcore.so.7.3.0:_ZN7Digikam15DDoubleNumInput8setValueEd
libdigikamcore.so.7.3.0:_ZN7Digikam15DDoubleNumInput9setSuffixERK7QString
libdigikamcore.so.7.3.0:_ZN7Digikam15DDoubleNumInput9slotResetEv
libdigikamcore.so.7.3.0:_ZN7Digikam15DDoubleNumInputC1EP7QWidget
libdigikamcore.so.7.3.0:_ZN7Digikam15DDoubleNumInputC2EP7QWidget
libdigikamcore.so.7.3.0:_ZN7Digikam15DDoubleNumInputD0Ev
libdigikamcore.so.7.3.0:_ZN7Digikam15DDoubleNumInputD1Ev
libdigikamcore.so.7.3.0:_ZN7Digikam15DDoubleNumInputD2Ev
libdigikamcore.so.7.3.0:_ZN7Digikam15DFileOperations10renameFileERK7QStringS3_
libdigikamcore.so.7.3.0:_ZN7Digikam15DFileOperations15localFileRenameERK7QStringS3_S3_b
libdigikamcore.so.7.3.0:_ZN7Digikam15DFileOperations16getUniqueFileUrlERK4QUrlPb
libdigikamcore.so.7.3.0:_ZN7Digikam15DFileOperations17openInFileManagerERK5QListI4QUrlE
libdigikamcore.so.7.3.0:_ZN7Digikam15DFileOperations18getUniqueFolderUrlERK4QUrl
libdigikamcore.so.7.3.0:_ZN7Digikam15DFileOperations19setModificationTimeERK7QStringRK9QDateTime
libdigikamcore.so.7.3.0:_ZN7Digikam15DFileOperations20copyModificationTimeERK7QStringS3_
libdigikamcore.so.7.3.0:_ZN7Digikam15DFileOperations21copyFolderRecursivelyERK7QStringS3_S3_Pbb
libdigikamcore.so.7.3.0:_ZN7Digikam15DFileOperations31openFilesWithDefaultApplicationERK5QListI4QUrlE
libdigikamcore.so.7.3.0:_ZN7Digikam15DFileOperations8copyFileERK7QStringS3_
libdigikamcore.so.7.3.0:_ZN7Digikam15DFileOperations9copyFilesERK11QStringListRK7QString
libdigikamcore.so.7.3.0:_ZN7Digikam15DFontProperties11getFontListER11QStringListj
libdigikamcore.so.7.3.0:_ZN7Digikam15DFontProperties11qt_metacallEN11QMetaObject4CallEiPPv
libdigikamcore.so.7.3.0:_ZN7Digikam15DFontProperties11qt_metacastEPKc
libdigikamcore.so.7.3.0:_ZN7Digikam15DFontProperties12enableColumnEib
libdigikamcore.so.7.3.0:_ZN7Digikam15DFontProperties12fontSelectedERK5QFont
libdigikamcore.so.7.3.0:_ZN7Digikam15DFontProperties13setSampleTextERK7QString
libdigikamcore.so.7.3.0:_ZN7Digikam15DFontProperties16staticMetaObjectE
libdigikamcore.so.7.3.0:_ZN7Digikam15DFontProperties17makeColumnVisibleEib
libdigikamcore.so.7.3.0:_ZN7Digikam15DFontProperties17setSizeIsRelativeEN2Qt10CheckStateE
libdigikamcore.so.7.3.0:_ZN7Digikam15DFontProperties18setBackgroundColorERK6QColor
libdigikamcore.so.7.3.0:_ZN7Digikam15DFontProperties19setSampleBoxVisibleEb
libdigikamcore.so.7.3.0:_ZN7Digikam15DFontProperties7setFontERK5QFontb
libdigikamcore.so.7.3.0:_ZN7Digikam15DFontProperties8setColorERK6QColor
libdigikamcore.so.7.3.0:_ZN7Digikam15DFontPropertiesC1EP7QWidgetRK6QFlagsINS0_11DisplayFlagEERK11QStringListiPN2Qt10CheckStateE
libdigikamcore.so.7.3.0:_ZN7Digikam15DFontPropertiesC2EP7QWidgetRK6QFlagsINS0_11DisplayFlagEERK11QStringListiPN2Qt10CheckStateE
libdigikamcore.so.7.3.0:_ZN7Digikam15DFontPropertiesD0Ev
libdigikamcore.so.7.3.0:_ZN7Digikam15DFontPropertiesD1Ev
libdigikamcore.so.7.3.0:_ZN7Digikam15DFontPropertiesD2Ev
libdigikamcore.so.7.3.0:_ZN7Digikam15DGradientSlider10leaveEventEP6QEvent
libdigikamcore.so.7.3.0:_ZN7Digikam15DGradientSlider10paintEventEP11QPaintEvent
libdigikamcore.so.7.3.0:_ZN7Digikam15DGradientSlider11qt_metacallEN11QMetaObject4CallEiPPv
libdigikamcore.so.7.3.0:_ZN7Digikam15DGradientSlider11qt_metacastEPKc
libdigikamcore.so.7.3.0:_ZN7Digikam15DGradientSlider12setLeftValueEd
libdigikamcore.so.7.3.0:_ZN7Digikam15DGradientSlider13setRightValueEd
libdigikamcore.so.7.3.0:_ZN7Digikam15DGradientSlider14mouseMoveEventEP11QMouseEvent
libdigikamcore.so.7.3.0:_ZN7Digikam15DGradientSlider14setMiddleValueEd
libdigikamcore.so.7.3.0:_ZN7Digikam15DGradientSlider15mousePressEventEP11QMouseEvent
libdigikamcore.so.7.3.0:_ZN7Digikam15DGradientSlider16leftValueChangedEd
libdigikamcore.so.7.3.0:_ZN7Digikam15DGradientSlider16showMiddleCursorEb
libdigikamcore.so.7.3.0:_ZN7Digikam15DGradientSlider16staticMetaObjectE
libdigikamcore.so.7.3.0:_ZN7Digikam15DGradientSlider17adjustMiddleValueEdd
libdigikamcore.so.7.3.0:_ZN7Digikam15DGradientSlider17mouseReleaseEventEP11QMouseEvent
libdigikamcore.so.7.3.0:_ZN7Digikam15DGradientSlider17rightValueChangedEd
libdigikamcore.so.7.3.0:_ZN7Digikam15DGradientSlider18middleValueChangedEd
libdigikamcore.so.7.3.0:_ZN7Digikam15DGradientSlider9setColorsERK6QColorS3_
libdigikamcore.so.7.3.0:_ZN7Digikam15DGradientSliderC1EP7QWidget
libdigikamcore.so.7.3.0:_ZN7Digikam15DGradientSliderC2EP7QWidget
libdigikamcore.so.7.3.0:_ZN7Digikam15DGradientSliderD0Ev
libdigikamcore.so.7.3.0:_ZN7Digikam15DGradientSliderD1Ev
libdigikamcore.so.7.3.0:_ZN7Digikam15DGradientSliderD2Ev
libdigikamcore.so.7.3.0:_ZN7Digikam15DImgPreviewItem11preloadNextEv
libdigikamcore.so.7.3.0:_ZN7Digikam15DImgPreviewItem11qt_metacallEN11QMetaObject4CallEiPPv
libdigikamcore.so.7.3.0:_ZN7Digikam15DImgPreviewItem11qt_metacastEPKc
libdigikamcore.so.7.3.0:_ZN7Digikam15DImgPreviewItem12stateChangedEi
libdigikamcore.so.7.3.0:_ZN7Digikam15DImgPreviewItem13loadingFailedEv
libdigikamcore.so.7.3.0:_ZN7Digikam15DImgPreviewItem15setPreloadPathsERK11QStringList
libdigikamcore.so.7.3.0:_ZN7Digikam15DImgPreviewItem15slotFileChangedERK7QString
libdigikamcore.so.7.3.0:_ZN7Digikam15DImgPreviewItem16staticMetaObjectE
libdigikamcore.so.7.3.0:_ZN7Digikam15DImgPreviewItem18iccSettingsChangedERKNS_20ICCSettingsContainerES3_
libdigikamcore.so.7.3.0:_ZN7Digikam15DImgPreviewItem18setPreviewSettingsERKNS_15PreviewSettingsE
libdigikamcore.so.7.3.0:_ZN7Digikam15DImgPreviewItem19setDisplayingWidgetEP7QWidget
libdigikamcore.so.7.3.0:_ZN7Digikam15DImgPreviewItem19slotGotImagePreviewERKNS_18LoadingDescriptionERKNS_4DImgE
libdigikamcore.so.7.3.0:_ZN7Digikam15DImgPreviewItem22DImgPreviewItemPrivate4initEPS0_
libdigikamcore.so.7.3.0:_ZN7Digikam15DImgPreviewItem22DImgPreviewItemPrivateC1Ev
libdigikamcore.so.7.3.0:_ZN7Digikam15DImgPreviewItem22DImgPreviewItemPrivateC2Ev
libdigikamcore.so.7.3.0:_ZN7Digikam15DImgPreviewItem6loadedEv
libdigikamcore.so.7.3.0:_ZN7Digikam15DImgPreviewItem6reloadEv
libdigikamcore.so.7.3.0:_ZN7Digikam15DImgPreviewItem7setPathERK7QStringb
libdigikamcore.so.7.3.0:_ZN7Digikam15DImgPreviewItemC1EP13QGraphicsItem
libdigikamcore.so.7.3.0:_ZN7Digikam15DImgPreviewItemC1ERNS0_22DImgPreviewItemPrivateEP13QGraphicsItem
libdigikamcore.so.7.3.0:_ZN7Digikam15DImgPreviewItemC2EP13QGraphicsItem
libdigikamcore.so.7.3.0:_ZN7Digikam15DImgPreviewItemC2ERNS0_22DImgPreviewItemPrivateEP13QGraphicsItem
libdigikamcore.so.7.3.0:_ZN7Digikam15DImgPreviewItemD0Ev
libdigikamcore.so.7.3.0:_ZN7Digikam15DImgPreviewItemD1Ev
libdigikamcore.so.7.3.0:_ZN7Digikam15DImgPreviewItemD2Ev
libdigikamcore.so.7.3.0:_ZN7Digikam15DMultiTabBarTab10paintEventEP11QPaintEvent
libdigikamcore.so.7.3.0:_ZN7Digikam15DMultiTabBarTab11qt_metacallEN11QMetaObject4CallEiPPv
libdigikamcore.so.7.3.0:_ZN7Digikam15DMultiTabBarTab11qt_metacastEPKc
libdigikamcore.so.7.3.0:_ZN7Digikam15DMultiTabBarTab11setPositionEN2Qt4EdgeE
libdigikamcore.so.7.3.0:_ZN7Digikam15DMultiTabBarTab16staticMetaObjectE
libdigikamcore.so.7.3.0:_ZN7Digikam15DMultiTabBarTab7setIconERK7QPixmap
libdigikamcore.so.7.3.0:_ZN7Digikam15DMultiTabBarTab7setIconERK7QString
libdigikamcore.so.7.3.0:_ZN7Digikam15DMultiTabBarTab8setStateEb
libdigikamcore.so.7.3.0:_ZN7Digikam15DMultiTabBarTab8setStyleENS_12DMultiTabBar9TextStyleE
libdigikamcore.so.7.3.0:_ZN7Digikam15DMultiTabBarTabC1ERK7QPixmapRK7QStringiP7QWidgetN2Qt4EdgeENS_12DMultiTabBar9TextStyleE
libdigikamcore.so.7.3.0:_ZN7Digikam15DMultiTabBarTabC2ERK7QPixmapRK7QStringiP7QWidgetN2Qt4EdgeENS_12DMultiTabBar9TextStyleE
libdigikamcore.so.7.3.0:_ZN7Digikam15DMultiTabBarTabD0Ev
libdigikamcore.so.7.3.0:_ZN7Digikam15DMultiTabBarTabD1Ev
libdigikamcore.so.7.3.0:_ZN7Digikam15DMultiTabBarTabD2Ev
libdigikamcore.so.7.3.0:_ZN7Digikam15DPluginAboutDlg11qt_metacallEN11QMetaObject4CallEiPPv
libdigikamcore.so.7.3.0:_ZN7Digikam15DPluginAboutDlg11qt_metacastEPKc
libdigikamcore.so.7.3.0:_ZN7Digikam15DPluginAboutDlg16staticMetaObjectE
libdigikamcore.so.7.3.0:_ZN7Digikam15DPluginAboutDlgC1EPNS_7DPluginEP7QWidget
libdigikamcore.so.7.3.0:_ZN7Digikam15DPluginAboutDlgC2EPNS_7DPluginEP7QWidget
libdigikamcore.so.7.3.0:_ZN7Digikam15DPluginAboutDlgD0Ev
libdigikamcore.so.7.3.0:_ZN7Digikam15DPluginAboutDlgD1Ev
libdigikamcore.so.7.3.0:_ZN7Digikam15DPluginAboutDlgD2Ev
libdigikamcore.so.7.3.0:_ZN7Digikam15DPluginConfView11qt_metacallEN11QMetaObject4CallEiPPv
libdigikamcore.so.7.3.0:_ZN7Digikam15DPluginConfView11qt_metacastEPKc
libdigikamcore.so.7.3.0:_ZN7Digikam15DPluginConfView12appendPluginEPNS_7DPluginE
libdigikamcore.so.7.3.0:_ZN7Digikam15DPluginConfView16staticMetaObjectE
libdigikamcore.so.7.3.0:_ZN7Digikam15DPluginConfView18signalSearchResultEi
libdigikamcore.so.7.3.0:_ZN7Digikam15DPluginConfView5applyEv
libdigikamcore.so.7.3.0:_ZN7Digikam15DPluginConfView8clearAllEv
libdigikamcore.so.7.3.0:_ZN7Digikam15DPluginConfView9selectAllEv
libdigikamcore.so.7.3.0:_ZN7Digikam15DPluginConfView9setFilterERK7QStringN2Qt15CaseSensitivityE
libdigikamcore.so.7.3.0:_ZN7Digikam15DPluginConfViewC1EP7QWidget
libdigikamcore.so.7.3.0:_ZN7Digikam15DPluginConfViewC2EP7QWidget
libdigikamcore.so.7.3.0:_ZN7Digikam15DPluginConfViewD0Ev
libdigikamcore.so.7.3.0:_ZN7Digikam15DPluginConfViewD1Ev
libdigikamcore.so.7.3.0:_ZN7Digikam15DPluginConfViewD2Ev
libdigikamcore.so.7.3.0:_ZN7Digikam15DPreviewManager11qt_metacallEN11QMetaObject4CallEiPPv
libdigikamcore.so.7.3.0:_ZN7Digikam15DPreviewManager11qt_metacastEPKc
libdigikamcore.so.7.3.0:_ZN7Digikam15DPreviewManager12setThumbnailERK7QPixmap
libdigikamcore.so.7.3.0:_ZN7Digikam15DPreviewManager13setButtonTextERK7QString
libdigikamcore.so.7.3.0:_ZN7Digikam15DPreviewManager16setButtonVisibleEb
libdigikamcore.so.7.3.0:_ZN7Digikam15DPreviewManager16setSelectionAreaERK6QRectF
libdigikamcore.so.7.3.0:_ZN7Digikam15DPreviewManager16staticMetaObjectE
libdigikamcore.so.7.3.0:_ZN7Digikam15DPreviewManager19signalButtonClickedEv
libdigikamcore.so.7.3.0:_ZN7Digikam15DPreviewManager21slotProgressTimerDoneEv
libdigikamcore.so.7.3.0:_ZN7Digikam15DPreviewManager24setSelectionAreaPossibleEb
libdigikamcore.so.7.3.0:_ZN7Digikam15DPreviewManager4loadERK4QUrlb
libdigikamcore.so.7.3.0:_ZN7Digikam15DPreviewManager7setBusyEbRK7QString
libdigikamcore.so.7.3.0:_ZN7Digikam15DPreviewManager7setTextERK7QStringRK6QColor
libdigikamcore.so.7.3.0:_ZN7Digikam15DPreviewManager8setImageERK6QImageb
libdigikamcore.so.7.3.0:_ZN7Digikam15DPreviewManager8slotLoadERK4QUrl
libdigikamcore.so.7.3.0:_ZN7Digikam15DPreviewManagerC1EP7QWidget
libdigikamcore.so.7.3.0:_ZN7Digikam15DPreviewManagerC2EP7QWidget
libdigikamcore.so.7.3.0:_ZN7Digikam15DPreviewManagerD0Ev
libdigikamcore.so.7.3.0:_ZN7Digikam15DPreviewManagerD1Ev
libdigikamcore.so.7.3.0:_ZN7Digikam15DPreviewManagerD2Ev
libdigikamcore.so.7.3.0:_ZN7Digikam15DTextLabelValue11qt_metacallEN11QMetaObject4CallEiPPv
libdigikamcore.so.7.3.0:_ZN7Digikam15DTextLabelValue11qt_metacastEPKc
libdigikamcore.so.7.3.0:_ZN7Digikam15DTextLabelValue16staticMetaObjectE
libdigikamcore.so.7.3.0:_ZN7Digikam15DTextLabelValueC1ERK7QStringP7QWidget
libdigikamcore.so.7.3.0:_ZN7Digikam15DTextLabelValueC2ERK7QStringP7QWidget
libdigikamcore.so.7.3.0:_ZN7Digikam15DTextLabelValueD0Ev
libdigikamcore.so.7.3.0:_ZN7Digikam15DTextLabelValueD1Ev
libdigikamcore.so.7.3.0:_ZN7Digikam15DTextLabelValueD2Ev
libdigikamcore.so.7.3.0:_ZN7Digikam15DbEngineLockingC1Ev
libdigikamcore.so.7.3.0:_ZN7Digikam15DbEngineLockingC2Ev
libdigikamcore.so.7.3.0:_ZN7Digikam15EditorStackView11fitToSelectEv
libdigikamcore.so.7.3.0:_ZN7Digikam15EditorStackView11qt_metacallEN11QMetaObject4CallEiPPv
libdigikamcore.so.7.3.0:_ZN7Digikam15EditorStackView11qt_metacastEPKc
libdigikamcore.so.7.3.0:_ZN7Digikam15EditorStackView11setToolViewEP7QWidget
libdigikamcore.so.7.3.0:_ZN7Digikam15EditorStackView11setViewModeEi
libdigikamcore.so.7.3.0:_ZN7Digikam15EditorStackView12decreaseZoomEv
libdigikamcore.so.7.3.0:_ZN7Digikam15EditorStackView12increaseZoomEv
libdigikamcore.so.7.3.0:_ZN7Digikam15EditorStackView13setZoomFactorEd
libdigikamcore.so.7.3.0:_ZN7Digikam15EditorStackView15slotZoomChangedEd
libdigikamcore.so.7.3.0:_ZN7Digikam15EditorStackView16staticMetaObjectE
libdigikamcore.so.7.3.0:_ZN7Digikam15EditorStackView16zoomTo100PercentEv
libdigikamcore.so.7.3.0:_ZN7Digikam15EditorStackView17signalZoomChangedEbbd
libdigikamcore.so.7.3.0:_ZN7Digikam15EditorStackView17toggleFitToWindowEv
libdigikamcore.so.7.3.0:_ZN7Digikam15EditorStackView21slotZoomSliderChangedEi
libdigikamcore.so.7.3.0:_ZN7Digikam15EditorStackView24slotToggleOffFitToWindowEb
libdigikamcore.so.7.3.0:_ZN7Digikam15EditorStackView26signalToggleOffFitToWindowEv
libdigikamcore.so.7.3.0:_ZN7Digikam15EditorStackView9setCanvasEPNS_6CanvasE
libdigikamcore.so.7.3.0:_ZN7Digikam15EditorStackViewC1EP7QWidget
libdigikamcore.so.7.3.0:_ZN7Digikam15EditorStackViewC2EP7QWidget
libdigikamcore.so.7.3.0:_ZN7Digikam15EditorStackViewD0Ev
libdigikamcore.so.7.3.0:_ZN7Digikam15EditorStackViewD1Ev
libdigikamcore.so.7.3.0:_ZN7Digikam15EditorStackViewD2Ev
libdigikamcore.so.7.3.0:_ZN7Digikam15EditorToolIface10unLoadToolEv
libdigikamcore.so.7.3.0:_ZN7Digikam15EditorToolIface11qt_metacallEN11QMetaObject4CallEiPPv
libdigikamcore.so.7.3.0:_ZN7Digikam15EditorToolIface11qt_metacastEPKc
libdigikamcore.so.7.3.0:_ZN7Digikam15EditorToolIface12themeChangedEv
libdigikamcore.so.7.3.0:_ZN7Digikam15EditorToolIface13slotApplyToolEv
libdigikamcore.so.7.3.0:_ZN7Digikam15EditorToolIface13slotCloseToolEv
libdigikamcore.so.7.3.0:_ZN7Digikam15EditorToolIface15editorToolIfaceEv
libdigikamcore.so.7.3.0:_ZN7Digikam15EditorToolIface15setToolProgressEi
libdigikamcore.so.7.3.0:_ZN7Digikam15EditorToolIface15slotToolAbortedEv
libdigikamcore.so.7.3.0:_ZN7Digikam15EditorToolIface15slotToolAppliedEv
libdigikamcore.so.7.3.0:_ZN7Digikam15EditorToolIface16setToolsIconViewEPNS_16DCategorizedViewE
libdigikamcore.so.7.3.0:_ZN7Digikam15EditorToolIface16staticMetaObjectE
libdigikamcore.so.7.3.0:_ZN7Digikam15EditorToolIface17updateICCSettingsEv
libdigikamcore.so.7.3.0:_ZN7Digikam15EditorToolIface18setPreviewModeMaskEi
libdigikamcore.so.7.3.0:_ZN7Digikam15EditorToolIface18setToolInfoMessageERK7QString
libdigikamcore.so.7.3.0:_ZN7Digikam15EditorToolIface19setToolStopProgressEv
libdigikamcore.so.7.3.0:_ZN7Digikam15EditorToolIface20setToolStartProgressERK7QString
libdigikamcore.so.7.3.0:_ZN7Digikam15EditorToolIface22updateExposureSettingsEv
libdigikamcore.so.7.3.0:_ZN7Digikam15EditorToolIface24signalPreviewModeChangedEv
libdigikamcore.so.7.3.0:_ZN7Digikam15EditorToolIface7m_ifaceE
libdigikamcore.so.7.3.0:_ZN7Digikam15EditorToolIface8loadToolEPNS_10EditorToolE
libdigikamcore.so.7.3.0:_ZN7Digikam15EditorToolIface8setupICCEv
libdigikamcore.so.7.3.0:_ZN7Digikam15EditorToolIfaceC1EPNS_12EditorWindowE
libdigikamcore.so.7.3.0:_ZN7Digikam15EditorToolIfaceC2EPNS_12EditorWindowE
libdigikamcore.so.7.3.0:_ZN7Digikam15EditorToolIfaceD0Ev
libdigikamcore.so.7.3.0:_ZN7Digikam15EditorToolIfaceD1Ev
libdigikamcore.so.7.3.0:_ZN7Digikam15EditorToolIfaceD2Ev
libdigikamcore.so.7.3.0:_ZN7Digikam15ExifToolProcess10setProgramERK7QStringS3_
libdigikamcore.so.7.3.0:_ZN7Digikam15ExifToolProcess11qt_metacallEN11QMetaObject4CallEiPPv
libdigikamcore.so.7.3.0:_ZN7Digikam15ExifToolProcess11qt_metacastEPKc
libdigikamcore.so.7.3.0:_ZN7Digikam15ExifToolProcess11slotStartedEv
libdigikamcore.so.7.3.0:_ZN7Digikam15ExifToolProcess12slotFinishedEiN8QProcess10ExitStatusE
libdigikamcore.so.7.3.0:_ZN7Digikam15ExifToolProcess13signalStartedEi
libdigikamcore.so.7.3.0:_ZN7Digikam15ExifToolProcess14signalFinishedEiiN8QProcess10ExitStatusE
libdigikamcore.so.7.3.0:_ZN7Digikam15ExifToolProcess16slotStateChangedEN8QProcess12ProcessStateE
libdigikamcore.so.7.3.0:_ZN7Digikam15ExifToolProcess16staticMetaObjectE
libdigikamcore.so.7.3.0:_ZN7Digikam15ExifToolProcess17slotErrorOccurredEN8QProcess12ProcessErrorE
libdigikamcore.so.7.3.0:_ZN7Digikam15ExifToolProcess18signalCmdCompletedEiiRK10QByteArrayS3_
libdigikamcore.so.7.3.0:_ZN7Digikam15ExifToolProcess18signalStateChangedEiN8QProcess12ProcessStateE
libdigikamcore.so.7.3.0:_ZN7Digikam15ExifToolProcess19signalErrorOccurredEiN8QProcess12ProcessErrorE
libdigikamcore.so.7.3.0:_ZN7Digikam15ExifToolProcess20checkExifToolProgramEv
libdigikamcore.so.7.3.0:_ZN7Digikam15ExifToolProcess26slotReadyReadStandardErrorEv
libdigikamcore.so.7.3.0:_ZN7Digikam15ExifToolProcess27slotReadyReadStandardOutputEv
libdigikamcore.so.7.3.0:_ZN7Digikam15ExifToolProcess4killEv
libdigikamcore.so.7.3.0:_ZN7Digikam15ExifToolProcess5startEv
libdigikamcore.so.7.3.0:_ZN7Digikam15ExifToolProcess7commandERK5QListI10QByteArrayENS0_6ActionE
libdigikamcore.so.7.3.0:_ZN7Digikam15ExifToolProcess9terminateEv
libdigikamcore.so.7.3.0:_ZN7Digikam15ExifToolProcessC1EP7QObject
libdigikamcore.so.7.3.0:_ZN7Digikam15ExifToolProcessC2EP7QObject
libdigikamcore.so.7.3.0:_ZN7Digikam15ExifToolProcessD0Ev
libdigikamcore.so.7.3.0:_ZN7Digikam15ExifToolProcessD1Ev
libdigikamcore.so.7.3.0:_ZN7Digikam15ExifToolProcessD2Ev
libdigikamcore.so.7.3.0:_ZN7Digikam15FileWriteLockerC1ERK7QString
libdigikamcore.so.7.3.0:_ZN7Digikam15FileWriteLockerC2ERK7QString
libdigikamcore.so.7.3.0:_ZN7Digikam15FileWriteLockerD1Ev
libdigikamcore.so.7.3.0:_ZN7Digikam15FileWriteLockerD2Ev
libdigikamcore.so.7.3.0:_ZN7Digikam15FilesDownloader11qt_metacallEN11QMetaObject4CallEiPPv
libdigikamcore.so.7.3.0:_ZN7Digikam15FilesDownloader11qt_metacastEPKc
libdigikamcore.so.7.3.0:_ZN7Digikam15FilesDownloader12nextDownloadEv
libdigikamcore.so.7.3.0:_ZN7Digikam15FilesDownloader12slotDownloadEv
libdigikamcore.so.7.3.0:_ZN7Digikam15FilesDownloader13createRequestERK4QUrl
libdigikamcore.so.7.3.0:_ZN7Digikam15FilesDownloader13startDownloadEv
libdigikamcore.so.7.3.0:_ZN7Digikam15FilesDownloader14slotDownloadedEP13QNetworkReply
libdigikamcore.so.7.3.0:_ZN7Digikam15FilesDownloader16staticMetaObjectE
libdigikamcore.so.7.3.0:_ZN7Digikam15FilesDownloader17printDownloadInfoERK4QUrl
libdigikamcore.so.7.3.0:_ZN7Digikam15FilesDownloader20slotDownloadProgressExx
libdigikamcore.so.7.3.0:_ZN7Digikam15FilesDownloader6rejectEv
libdigikamcore.so.7.3.0:_ZN7Digikam15FilesDownloader8downloadEv
libdigikamcore.so.7.3.0:_ZN7Digikam15FilesDownloaderC1EP7QWidget
libdigikamcore.so.7.3.0:_ZN7Digikam15FilesDownloaderC2EP7QWidget
libdigikamcore.so.7.3.0:_ZN7Digikam15FilesDownloaderD0Ev
libdigikamcore.so.7.3.0:_ZN7Digikam15FilesDownloaderD1Ev
libdigikamcore.so.7.3.0:_ZN7Digikam15FilesDownloaderD2Ev
libdigikamcore.so.7.3.0:_ZN7Digikam15FilmGrainFilter11filterImageEv
libdigikamcore.so.7.3.0:_ZN7Digikam15FilmGrainFilter11qt_metacallEN11QMetaObject4CallEiPPv
libdigikamcore.so.7.3.0:_ZN7Digikam15FilmGrainFilter11qt_metacastEPKc
libdigikamcore.so.7.3.0:_ZN7Digikam15FilmGrainFilter12filterActionEv
libdigikamcore.so.7.3.0:_ZN7Digikam15FilmGrainFilter14readParametersERKNS_12FilterActionE
libdigikamcore.so.7.3.0:_ZN7Digikam15FilmGrainFilter15DisplayableNameEv
libdigikamcore.so.7.3.0:_ZN7Digikam15FilmGrainFilter16staticMetaObjectE
libdigikamcore.so.7.3.0:_ZN7Digikam15FilmGrainFilter22filmgrainMultithreadedEjj
libdigikamcore.so.7.3.0:_ZN7Digikam15FilmGrainFilterC1EP7QObject
libdigikamcore.so.7.3.0:_ZN7Digikam15FilmGrainFilterC1EPNS_18DImgThreadedFilterERKNS_4DImgES5_iiRKNS_18FilmGrainContainerE
libdigikamcore.so.7.3.0:_ZN7Digikam15FilmGrainFilterC1EPNS_4DImgEP7QObjectRKNS_18FilmGrainContainerE
libdigikamcore.so.7.3.0:_ZN7Digikam15FilmGrainFilterC2EP7QObject
libdigikamcore.so.7.3.0:_ZN7Digikam15FilmGrainFilterC2EPNS_18DImgThreadedFilterERKNS_4DImgES5_iiRKNS_18FilmGrainContainerE
libdigikamcore.so.7.3.0:_ZN7Digikam15FilmGrainFilterC2EPNS_4DImgEP7QObjectRKNS_18FilmGrainContainerE
libdigikamcore.so.7.3.0:_ZN7Digikam15FilmGrainFilterD0Ev
libdigikamcore.so.7.3.0:_ZN7Digikam15FilmGrainFilterD1Ev
libdigikamcore.so.7.3.0:_ZN7Digikam15FilmGrainFilterD2Ev
libdigikamcore.so.7.3.0:_ZN7Digikam15GeoIface_assertEPKcS1_i
libdigikamcore.so.7.3.0:_ZN7Digikam15HSPreviewWidget10paintEventEP11QPaintEvent
libdigikamcore.so.7.3.0:_ZN7Digikam15HSPreviewWidget11qt_metacallEN11QMetaObject4CallEiPPv
libdigikamcore.so.7.3.0:_ZN7Digikam15HSPreviewWidget11qt_metacastEPKc
libdigikamcore.so.7.3.0:_ZN7Digikam15HSPreviewWidget11resizeEventEP12QResizeEvent
libdigikamcore.so.7.3.0:_ZN7Digikam15HSPreviewWidget12updatePixmapEv
libdigikamcore.so.7.3.0:_ZN7Digikam15HSPreviewWidget16staticMetaObjectE
libdigikamcore.so.7.3.0:_ZN7Digikam15HSPreviewWidget5setHSEdd
libdigikamcore.so.7.3.0:_ZN7Digikam15HSPreviewWidgetC1EP7QWidget
libdigikamcore.so.7.3.0:_ZN7Digikam15HSPreviewWidgetC2EP7QWidget
libdigikamcore.so.7.3.0:_ZN7Digikam15HSPreviewWidgetD0Ev
libdigikamcore.so.7.3.0:_ZN7Digikam15HSPreviewWidgetD1Ev
libdigikamcore.so.7.3.0:_ZN7Digikam15HSPreviewWidgetD2Ev
libdigikamcore.so.7.3.0:_ZN7Digikam15HistogramWidget10paintEventEP11QPaintEvent
libdigikamcore.so.7.3.0:_ZN7Digikam15HistogramWidget10updateDataERKNS_4DImgES3_b
libdigikamcore.so.7.3.0:_ZN7Digikam15HistogramWidget11qt_metacallEN11QMetaObject4CallEiPPv
libdigikamcore.so.7.3.0:_ZN7Digikam15HistogramWidget11qt_metacastEPKc
libdigikamcore.so.7.3.0:_ZN7Digikam15HistogramWidget12setScaleTypeENS_14HistogramScaleE
libdigikamcore.so.7.3.0:_ZN7Digikam15HistogramWidget14mouseMoveEventEP11QMouseEvent
libdigikamcore.so.7.3.0:_ZN7Digikam15HistogramWidget14setChannelTypeENS_11ChannelTypeE
libdigikamcore.so.7.3.0:_ZN7Digikam15HistogramWidget14setDataLoadingEv
libdigikamcore.so.7.3.0:_ZN7Digikam15HistogramWidget15mousePressEventEP11QMouseEvent
libdigikamcore.so.7.3.0:_ZN7Digikam15HistogramWidget16connectHistogramEPKNS_14ImageHistogramE
libdigikamcore.so.7.3.0:_ZN7Digikam15HistogramWidget16setLoadingFailedEv
libdigikamcore.so.7.3.0:_ZN7Digikam15HistogramWidget16setRenderingTypeENS_22HistogramRenderingTypeE
libdigikamcore.so.7.3.0:_ZN7Digikam15HistogramWidget16staticMetaObjectE
libdigikamcore.so.7.3.0:_ZN7Digikam15HistogramWidget17mouseReleaseEventEP11QMouseEvent
libdigikamcore.so.7.3.0:_ZN7Digikam15HistogramWidget17setAnimationStateEi
libdigikamcore.so.7.3.0:_ZN7Digikam15HistogramWidget19notifyValuesChangedEv
libdigikamcore.so.7.3.0:_ZN7Digikam15HistogramWidget19slotMaxValueChangedEi
libdigikamcore.so.7.3.0:_ZN7Digikam15HistogramWidget19slotMinValueChangedEi
libdigikamcore.so.7.3.0:_ZN7Digikam15HistogramWidget19updateSelectionDataERKNS_4DImgEb
libdigikamcore.so.7.3.0:_ZN7Digikam15HistogramWidget20setStatisticsVisibleEb
libdigikamcore.so.7.3.0:_ZN7Digikam15HistogramWidget20stopWaitingAnimationEv
libdigikamcore.so.7.3.0:_ZN7Digikam15HistogramWidget21signalIntervalChangedEii
libdigikamcore.so.7.3.0:_ZN7Digikam15HistogramWidget21startWaitingAnimationEv
libdigikamcore.so.7.3.0:_ZN7Digikam15HistogramWidget23slotCalculationFinishedEb
libdigikamcore.so.7.3.0:_ZN7Digikam15HistogramWidget24setHistogramGuideByColorERKNS_6DColorE
libdigikamcore.so.7.3.0:_ZN7Digikam15HistogramWidget24stopHistogramComputationEv
libdigikamcore.so.7.3.0:_ZN7Digikam15HistogramWidget25signalMaximumValueChangedEi
libdigikamcore.so.7.3.0:_ZN7Digikam15HistogramWidget27slotCalculationAboutToStartEv
libdigikamcore.so.7.3.0:_ZN7Digikam15HistogramWidget30signalHistogramComputationDoneEb
libdigikamcore.so.7.3.0:_ZN7Digikam15HistogramWidget32signalHistogramComputationFailedEv
libdigikamcore.so.7.3.0:_ZN7Digikam15HistogramWidget5resetEv
libdigikamcore.so.7.3.0:_ZN7Digikam15HistogramWidget5setupEiibb
libdigikamcore.so.7.3.0:_ZN7Digikam15HistogramWidget8setStateEi
libdigikamcore.so.7.3.0:_ZN7Digikam15HistogramWidgetC1EiiP7QWidgetbbb
libdigikamcore.so.7.3.0:_ZN7Digikam15HistogramWidgetC2EiiP7QWidgetbbb
libdigikamcore.so.7.3.0:_ZN7Digikam15HistogramWidgetD0Ev
libdigikamcore.so.7.3.0:_ZN7Digikam15HistogramWidgetD1Ev
libdigikamcore.so.7.3.0:_ZN7Digikam15HistogramWidgetD2Ev
libdigikamcore.so.7.3.0:_ZN7Digikam15ImageRegionItem11qt_metacallEN11QMetaObject4CallEiPPv
libdigikamcore.so.7.3.0:_ZN7Digikam15ImageRegionItem11qt_metacastEPKc
libdigikamcore.so.7.3.0:_ZN7Digikam15ImageRegionItem14paintExtraDataEP8QPainter
libdigikamcore.so.7.3.0:_ZN7Digikam15ImageRegionItem14setTargetImageERNS_4DImgE
libdigikamcore.so.7.3.0:_ZN7Digikam15ImageRegionItem15hoverEnterEventEP24QGraphicsSceneHoverEvent
libdigikamcore.so.7.3.0:_ZN7Digikam15ImageRegionItem15hoverLeaveEventEP24QGraphicsSceneHoverEvent
libdigikamcore.so.7.3.0:_ZN7Digikam15ImageRegionItem16staticMetaObjectE
libdigikamcore.so.7.3.0:_ZN7Digikam15ImageRegionItem18setHighLightPointsERK8QPolygon
libdigikamcore.so.7.3.0:_ZN7Digikam15ImageRegionItem23setRenderingPreviewModeEi
libdigikamcore.so.7.3.0:_ZN7Digikam15ImageRegionItem5paintEP8QPainterPK24QStyleOptionGraphicsItemP7QWidget
libdigikamcore.so.7.3.0:_ZN7Digikam15ImageRegionItemC1EPNS_17ImageRegionWidgetEb
libdigikamcore.so.7.3.0:_ZN7Digikam15ImageRegionItemC2EPNS_17ImageRegionWidgetEb
libdigikamcore.so.7.3.0:_ZN7Digikam15ImageRegionItemD0Ev
libdigikamcore.so.7.3.0:_ZN7Digikam15ImageRegionItemD1Ev
libdigikamcore.so.7.3.0:_ZN7Digikam15ImageRegionItemD2Ev
libdigikamcore.so.7.3.0:_ZN7Digikam15ItemMarkerTiler11qt_metacallEN11QMetaObject4CallEiPPv
libdigikamcore.so.7.3.0:_ZN7Digikam15ItemMarkerTiler11qt_metacastEPKc
libdigikamcore.so.7.3.0:_ZN7Digikam15ItemMarkerTiler12prepareTilesERKNS_14GeoCoordinatesES3_i
libdigikamcore.so.7.3.0:_ZN7Digikam15ItemMarkerTiler14onIndicesMovedERK5QListINS_9TileIndexEERKNS_14GeoCoordinatesERK21QPersistentModelIndex
libdigikamcore.so.7.3.0:_ZN7Digikam15ItemMarkerTiler15regenerateTilesEv
libdigikamcore.so.7.3.0:_ZN7Digikam15ItemMarkerTiler16onIndicesClickedERKNS_19AbstractMarkerTiler9ClickInfoE
libdigikamcore.so.7.3.0:_ZN7Digikam15ItemMarkerTiler16staticMetaObjectE
libdigikamcore.so.7.3.0:_ZN7Digikam15ItemMarkerTiler17getTileGroupStateERKNS_9TileIndexE
libdigikamcore.so.7.3.0:_ZN7Digikam15ItemMarkerTiler18getTileMarkerCountERKNS_9TileIndexE
libdigikamcore.so.7.3.0:_ZN7Digikam15ItemMarkerTiler18tileDeleteInternalEPNS_19AbstractMarkerTiler4TileE
libdigikamcore.so.7.3.0:_ZN7Digikam15ItemMarkerTiler19getGlobalGroupStateEv
libdigikamcore.so.7.3.0:_ZN7Digikam15ItemMarkerTiler20addMarkerIndexToGridERK21QPersistentModelIndex
libdigikamcore.so.7.3.0:_ZN7Digikam15ItemMarkerTiler20getTileMarkerIndicesERKNS_9TileIndexE
libdigikamcore.so.7.3.0:_ZN7Digikam15ItemMarkerTiler20getTileSelectedCountERKNS_9TileIndexE
libdigikamcore.so.7.3.0:_ZN7Digikam15ItemMarkerTiler20slotSelectionChangedERK14QItemSelectionS3_
libdigikamcore.so.7.3.0:_ZN7Digikam15ItemMarkerTiler20slotSourceModelResetEv
libdigikamcore.so.7.3.0:_ZN7Digikam15ItemMarkerTiler23setMarkerGeoModelHelperEPNS_14GeoModelHelperE
libdigikamcore.so.7.3.0:_ZN7Digikam15ItemMarkerTiler25removeMarkerIndexFromGridERK11QModelIndexb
libdigikamcore.so.7.3.0:_ZN7Digikam15ItemMarkerTiler26slotSourceModelDataChangedERK11QModelIndexS3_
libdigikamcore.so.7.3.0:_ZN7Digikam15ItemMarkerTiler27getTileRepresentativeMarkerERKNS_9TileIndexEi
libdigikamcore.so.7.3.0:_ZN7Digikam15ItemMarkerTiler27slotSourceModelRowsInsertedERK11QModelIndexii
libdigikamcore.so.7.3.0:_ZN7Digikam15ItemMarkerTiler28slotSourceModelLayoutChangedEv
libdigikamcore.so.7.3.0:_ZN7Digikam15ItemMarkerTiler29pixmapFromRepresentativeIndexERK8QVariantRK5QSize
libdigikamcore.so.7.3.0:_ZN7Digikam15ItemMarkerTiler30slotThumbnailAvailableForIndexERK21QPersistentModelIndexRK7QPixmap
libdigikamcore.so.7.3.0:_ZN7Digikam15ItemMarkerTiler31bestRepresentativeIndexFromListERK5QListI8QVariantEi
libdigikamcore.so.7.3.0:_ZN7Digikam15ItemMarkerTiler35slotSourceModelRowsAboutToBeRemovedERK11QModelIndexii
libdigikamcore.so.7.3.0:_ZN7Digikam15ItemMarkerTiler7getTileERKNS_9TileIndexEb
libdigikamcore.so.7.3.0:_ZN7Digikam15ItemMarkerTiler7tileNewEv
libdigikamcore.so.7.3.0:_ZN7Digikam15ItemMarkerTiler9setActiveEb
libdigikamcore.so.7.3.0:_ZN7Digikam15ItemMarkerTilerC1EPNS_14GeoModelHelperEP7QObject
libdigikamcore.so.7.3.0:_ZN7Digikam15ItemMarkerTilerC2EPNS_14GeoModelHelperEP7QObject
libdigikamcore.so.7.3.0:_ZN7Digikam15ItemMarkerTilerD0Ev
libdigikamcore.so.7.3.0:_ZN7Digikam15ItemMarkerTilerD1Ev
libdigikamcore.so.7.3.0:_ZN7Digikam15ItemMarkerTilerD2Ev
libdigikamcore.so.7.3.0:_ZN7Digikam15ItemViewToolTip11eventFilterEP7QObjectP6QEvent
libdigikamcore.so.7.3.0:_ZN7Digikam15ItemViewToolTip11qt_metacallEN11QMetaObject4CallEiPPv
libdigikamcore.so.7.3.0:_ZN7Digikam15ItemViewToolTip11qt_metacastEPKc
libdigikamcore.so.7.3.0:_ZN7Digikam15ItemViewToolTip11tipContentsEv
libdigikamcore.so.7.3.0:_ZN7Digikam15ItemViewToolTip14mouseMoveEventEP11QMouseEvent
libdigikamcore.so.7.3.0:_ZN7Digikam15ItemViewToolTip14repositionRectEv
libdigikamcore.so.7.3.0:_ZN7Digikam15ItemViewToolTip14setTipContentsERK7QString
libdigikamcore.so.7.3.0:_ZN7Digikam15ItemViewToolTip16staticMetaObjectE
libdigikamcore.so.7.3.0:_ZN7Digikam15ItemViewToolTip4showERK20QStyleOptionViewItemRK11QModelIndex
libdigikamcore.so.7.3.0:_ZN7Digikam15ItemViewToolTip9hideEventEP10QHideEvent
libdigikamcore.so.7.3.0:_ZN7Digikam15ItemViewToolTipC1EP17QAbstractItemView
libdigikamcore.so.7.3.0:_ZN7Digikam15ItemViewToolTipC2EP17QAbstractItemView
libdigikamcore.so.7.3.0:_ZN7Digikam15ItemViewToolTipD0Ev
libdigikamcore.so.7.3.0:_ZN7Digikam15ItemViewToolTipD1Ev
libdigikamcore.so.7.3.0:_ZN7Digikam15ItemViewToolTipD2Ev
libdigikamcore.so.7.3.0:_ZN7Digikam15LensFunSettings11qt_metacallEN11QMetaObject4CallEiPPv
libdigikamcore.so.7.3.0:_ZN7Digikam15LensFunSettings11qt_metacastEPKc
libdigikamcore.so.7.3.0:_ZN7Digikam15LensFunSettings12readSettingsER12KConfigGroup
libdigikamcore.so.7.3.0:_ZN7Digikam15LensFunSettings13setEnabledCCAEb
libdigikamcore.so.7.3.0:_ZN7Digikam15LensFunSettings13setEnabledVigEb
libdigikamcore.so.7.3.0:_ZN7Digikam15LensFunSettings13writeSettingsER12KConfigGroup
libdigikamcore.so.7.3.0:_ZN7Digikam15LensFunSettings14resetToDefaultEv
libdigikamcore.so.7.3.0:_ZN7Digikam15LensFunSettings14setEnabledDistEb
libdigikamcore.so.7.3.0:_ZN7Digikam15LensFunSettings14setEnabledGeomEb
libdigikamcore.so.7.3.0:_ZN7Digikam15LensFunSettings16staticMetaObjectE
libdigikamcore.so.7.3.0:_ZN7Digikam15LensFunSettings17setFilterSettingsERKNS_16LensFunContainerE
libdigikamcore.so.7.3.0:_ZN7Digikam15LensFunSettings20assignFilterSettingsERNS_16LensFunContainerE
libdigikamcore.so.7.3.0:_ZN7Digikam15LensFunSettings21signalSettingsChangedEv
libdigikamcore.so.7.3.0:_ZN7Digikam15LensFunSettingsC1EP7QWidget
libdigikamcore.so.7.3.0:_ZN7Digikam15LensFunSettingsC2EP7QWidget
libdigikamcore.so.7.3.0:_ZN7Digikam15LensFunSettingsD0Ev
libdigikamcore.so.7.3.0:_ZN7Digikam15LensFunSettingsD1Ev
libdigikamcore.so.7.3.0:_ZN7Digikam15LensFunSettingsD2Ev
libdigikamcore.so.7.3.0:_ZN7Digikam15MakerNoteWidget11getTagTitleERK7QString
libdigikamcore.so.7.3.0:_ZN7Digikam15MakerNoteWidget11loadFromURLERK4QUrl
libdigikamcore.so.7.3.0:_ZN7Digikam15MakerNoteWidget11qt_metacallEN11QMetaObject4CallEiPPv
libdigikamcore.so.7.3.0:_ZN7Digikam15MakerNoteWidget11qt_metacastEPKc
libdigikamcore.so.7.3.0:_ZN7Digikam15MakerNoteWidget14decodeMetadataEv
libdigikamcore.so.7.3.0:_ZN7Digikam15MakerNoteWidget16staticMetaObjectE
libdigikamcore.so.7.3.0:_ZN7Digikam15MakerNoteWidget17getTagDescriptionERK7QString
libdigikamcore.so.7.3.0:_ZN7Digikam15MakerNoteWidget22slotSaveMetadataToFileEv
libdigikamcore.so.7.3.0:_ZN7Digikam15MakerNoteWidget9buildViewEv
libdigikamcore.so.7.3.0:_ZN7Digikam15MakerNoteWidgetC1EP7QWidgetRK7QString
libdigikamcore.so.7.3.0:_ZN7Digikam15MakerNoteWidgetC2EP7QWidgetRK7QString
libdigikamcore.so.7.3.0:_ZN7Digikam15MakerNoteWidgetD0Ev
libdigikamcore.so.7.3.0:_ZN7Digikam15MakerNoteWidgetD1Ev
libdigikamcore.so.7.3.0:_ZN7Digikam15MakerNoteWidgetD2Ev
libdigikamcore.so.7.3.0:_ZN7Digikam15NormalizeFilter11filterImageEv
libdigikamcore.so.7.3.0:_ZN7Digikam15NormalizeFilter11qt_metacallEN11QMetaObject4CallEiPPv
libdigikamcore.so.7.3.0:_ZN7Digikam15NormalizeFilter11qt_metacastEPKc
libdigikamcore.so.7.3.0:_ZN7Digikam15NormalizeFilter12filterActionEv
libdigikamcore.so.7.3.0:_ZN7Digikam15NormalizeFilter14normalizeImageEv
libdigikamcore.so.7.3.0:_ZN7Digikam15NormalizeFilter14readParametersERKNS_12FilterActionE
libdigikamcore.so.7.3.0:_ZN7Digikam15NormalizeFilter15DisplayableNameEv
libdigikamcore.so.7.3.0:_ZN7Digikam15NormalizeFilter16staticMetaObjectE
libdigikamcore.so.7.3.0:_ZN7Digikam15NormalizeFilterC1EP7QObject
libdigikamcore.so.7.3.0:_ZN7Digikam15NormalizeFilterC1EPNS_4DImgEPKS1_P7QObject
libdigikamcore.so.7.3.0:_ZN7Digikam15NormalizeFilterC2EP7QObject
libdigikamcore.so.7.3.0:_ZN7Digikam15NormalizeFilterC2EPNS_4DImgEPKS1_P7QObject
libdigikamcore.so.7.3.0:_ZN7Digikam15NormalizeFilterD0Ev
libdigikamcore.so.7.3.0:_ZN7Digikam15NormalizeFilterD1Ev
libdigikamcore.so.7.3.0:_ZN7Digikam15NormalizeFilterD2Ev
libdigikamcore.so.7.3.0:_ZN7Digikam15ParallelWorkers10deactivateENS_12WorkerObject16DeactivatingModeE
libdigikamcore.so.7.3.0:_ZN7Digikam15ParallelWorkers11setPriorityEN7QThread8PriorityE
libdigikamcore.so.7.3.0:_ZN7Digikam15ParallelWorkers18optimalWorkerCountEv
libdigikamcore.so.7.3.0:_ZN7Digikam15ParallelWorkers21replacementQtMetacallEN11QMetaObject4CallEiPPv
libdigikamcore.so.7.3.0:_ZN7Digikam15ParallelWorkers27replacementStaticQtMetacallEN11QMetaObject4CallEiPPv
libdigikamcore.so.7.3.0:_ZN7Digikam15ParallelWorkers3addEPNS_12WorkerObjectE
libdigikamcore.so.7.3.0:_ZN7Digikam15ParallelWorkers4waitEv
libdigikamcore.so.7.3.0:_ZN7Digikam15ParallelWorkers8scheduleEv
libdigikamcore.so.7.3.0:_ZN7Digikam15ParallelWorkersC1Ev
libdigikamcore.so.7.3.0:_ZN7Digikam15ParallelWorkersC2Ev
libdigikamcore.so.7.3.0:_ZN7Digikam15ParallelWorkersD0Ev
libdigikamcore.so.7.3.0:_ZN7Digikam15ParallelWorkersD1Ev
libdigikamcore.so.7.3.0:_ZN7Digikam15ParallelWorkersD2Ev
libdigikamcore.so.7.3.0:_ZN7Digikam15PickLabelWidget11eventFilterEP7QObjectP6QEvent
libdigikamcore.so.7.3.0:_ZN7Digikam15PickLabelWidget11qt_metacallEN11QMetaObject4CallEiPPv
libdigikamcore.so.7.3.0:_ZN7Digikam15PickLabelWidget11qt_metacastEPKc
libdigikamcore.so.7.3.0:_ZN7Digikam15PickLabelWidget13labelPickNameENS_9PickLabelE
libdigikamcore.so.7.3.0:_ZN7Digikam15PickLabelWidget13setPickLabelsERK5QListINS_9PickLabelEE
libdigikamcore.so.7.3.0:_ZN7Digikam15PickLabelWidget16staticMetaObjectE
libdigikamcore.so.7.3.0:_ZN7Digikam15PickLabelWidget17updateDescriptionENS_9PickLabelE
libdigikamcore.so.7.3.0:_ZN7Digikam15PickLabelWidget19setButtonsExclusiveEb
libdigikamcore.so.7.3.0:_ZN7Digikam15PickLabelWidget22signalPickLabelChangedEi
libdigikamcore.so.7.3.0:_ZN7Digikam15PickLabelWidget24setDescriptionBoxVisibleEb
libdigikamcore.so.7.3.0:_ZN7Digikam15PickLabelWidget9buildIconENS_9PickLabelE
libdigikamcore.so.7.3.0:_ZN7Digikam15PickLabelWidgetC1EP7QWidget
libdigikamcore.so.7.3.0:_ZN7Digikam15PickLabelWidgetC2EP7QWidget
libdigikamcore.so.7.3.0:_ZN7Digikam15PickLabelWidgetD0Ev
libdigikamcore.so.7.3.0:_ZN7Digikam15PickLabelWidgetD1Ev
libdigikamcore.so.7.3.0:_ZN7Digikam15PickLabelWidgetD2Ev
libdigikamcore.so.7.3.0:_ZN7Digikam15PreviewListItem5setIdEi
libdigikamcore.so.7.3.0:_ZN7Digikam15PreviewListItem7setBusyEb
libdigikamcore.so.7.3.0:_ZN7Digikam15PreviewListItem9setPixmapERK7QPixmap
libdigikamcore.so.7.3.0:_ZN7Digikam15PreviewListItemC1EP11QListWidget
libdigikamcore.so.7.3.0:_ZN7Digikam15PreviewListItemC2EP11QListWidget
libdigikamcore.so.7.3.0:_ZN7Digikam15PreviewListItemD0Ev
libdigikamcore.so.7.3.0:_ZN7Digikam15PreviewListItemD1Ev
libdigikamcore.so.7.3.0:_ZN7Digikam15PreviewListItemD2Ev
libdigikamcore.so.7.3.0:_ZN7Digikam15PreviewSettings11fastPreviewEv
libdigikamcore.so.7.3.0:_ZN7Digikam15PreviewSettings18highQualityPreviewEv
libdigikamcore.so.7.3.0:_ZN7Digikam15PreviewSettingsC1ENS0_7QualityENS0_10RawLoadingE
libdigikamcore.so.7.3.0:_ZN7Digikam15PreviewSettingsC2ENS0_7QualityENS0_10RawLoadingE
libdigikamcore.so.7.3.0:_ZN7Digikam15PreviewSettingsD1Ev
libdigikamcore.so.7.3.0:_ZN7Digikam15PreviewSettingsD2Ev
libdigikamcore.so.7.3.0:_ZN7Digikam15ProgressManager11getUniqueIDEv
libdigikamcore.so.7.3.0:_ZN7Digikam15ProgressManager11qt_metacallEN11QMetaObject4CallEiPPv
libdigikamcore.so.7.3.0:_ZN7Digikam15ProgressManager11qt_metacastEPKc
libdigikamcore.so.7.3.0:_ZN7Digikam15ProgressManager12slotAbortAllEv
libdigikamcore.so.7.3.0:_ZN7Digikam15ProgressManager15addProgressItemEPNS_12ProgressItemES2_
libdigikamcore.so.7.3.0:_ZN7Digikam15ProgressManager16showProgressViewEv
libdigikamcore.so.7.3.0:_ZN7Digikam15ProgressManager16staticMetaObjectE
libdigikamcore.so.7.3.0:_ZN7Digikam15ProgressManager17progressItemAddedEPNS_12ProgressItemE
libdigikamcore.so.7.3.0:_ZN7Digikam15ProgressManager17progressItemLabelEPNS_12ProgressItemERK7QString
libdigikamcore.so.7.3.0:_ZN7Digikam15ProgressManager18createProgressItemEPNS_12ProgressItemERK7QStringS5_S5_bb
libdigikamcore.so.7.3.0:_ZN7Digikam15ProgressManager18createProgressItemERK7QStringS3_S3_S3_bb
libdigikamcore.so.7.3.0:_ZN7Digikam15ProgressManager18createProgressItemERK7QStringS3_S3_bb
libdigikamcore.so.7.3.0:_ZN7Digikam15ProgressManager18createProgressItemERK7QStringS3_bb
libdigikamcore.so.7.3.0:_ZN7Digikam15ProgressManager18progressItemStatusEPNS_12ProgressItemERK7QString
libdigikamcore.so.7.3.0:_ZN7Digikam15ProgressManager19addProgressItemImplEPNS_12ProgressItemES2_
libdigikamcore.so.7.3.0:_ZN7Digikam15ProgressManager20emitShowProgressViewEv
libdigikamcore.so.7.3.0:_ZN7Digikam15ProgressManager20progressItemCanceledEPNS_12ProgressItemE
libdigikamcore.so.7.3.0:_ZN7Digikam15ProgressManager20progressItemProgressEPNS_12ProgressItemEj
libdigikamcore.so.7.3.0:_ZN7Digikam15ProgressManager21progressItemCompletedEPNS_12ProgressItemE
libdigikamcore.so.7.3.0:_ZN7Digikam15ProgressManager21progressItemThumbnailEPNS_12ProgressItemERK7QPixmap
libdigikamcore.so.7.3.0:_ZN7Digikam15ProgressManager22createProgressItemImplEPNS_12ProgressItemERK7QStringS5_S5_bb
libdigikamcore.so.7.3.0:_ZN7Digikam15ProgressManager22createProgressItemImplERK7QStringS3_S3_S3_bb
libdigikamcore.so.7.3.0:_ZN7Digikam15ProgressManager24emitShowProgressViewImplEv
libdigikamcore.so.7.3.0:_ZN7Digikam15ProgressManager24slotTransactionCompletedEPNS_12ProgressItemE
libdigikamcore.so.7.3.0:_ZN7Digikam15ProgressManager25slotStandardCancelHandlerEPNS_12ProgressItemE
libdigikamcore.so.7.3.0:_ZN7Digikam15ProgressManager26slotTransactionViewIsEmptyEv
libdigikamcore.so.7.3.0:_ZN7Digikam15ProgressManager27completeTransactionDeferredEPNS_12ProgressItemE
libdigikamcore.so.7.3.0:_ZN7Digikam15ProgressManager29progressItemUsesBusyIndicatorEPNS_12ProgressItemEb
libdigikamcore.so.7.3.0:_ZN7Digikam15ProgressManager32slotTransactionCompletedDeferredEPNS_12ProgressItemE
libdigikamcore.so.7.3.0:_ZN7Digikam15ProgressManager8instanceEv
libdigikamcore.so.7.3.0:_ZN7Digikam15ProgressManagerC1Ev
libdigikamcore.so.7.3.0:_ZN7Digikam15ProgressManagerC2Ev
libdigikamcore.so.7.3.0:_ZN7Digikam15ProgressManagerD0Ev
libdigikamcore.so.7.3.0:_ZN7Digikam15ProgressManagerD1Ev
libdigikamcore.so.7.3.0:_ZN7Digikam15ProgressManagerD2Ev
libdigikamcore.so.7.3.0:_ZN7Digikam15RegionFrameItem10slotUpdateEv
libdigikamcore.so.7.3.0:_ZN7Digikam15RegionFrameItem11changeFlagsE6QFlagsINS0_4FlagEEb
libdigikamcore.so.7.3.0:_ZN7Digikam15RegionFrameItem11eventFilterEP7QObjectP6QEvent
libdigikamcore.so.7.3.0:_ZN7Digikam15RegionFrameItem11qt_metacallEN11QMetaObject4CallEiPPv
libdigikamcore.so.7.3.0:_ZN7Digikam15RegionFrameItem11qt_metacastEPKc
libdigikamcore.so.7.3.0:_ZN7Digikam15RegionFrameItem12setHudWidgetEP15QGraphicsWidget
libdigikamcore.so.7.3.0:_ZN7Digikam15RegionFrameItem12setHudWidgetEP7QWidget6QFlagsIN2Qt10WindowTypeEE
libdigikamcore.so.7.3.0:_ZN7Digikam15RegionFrameItem13moveHudWidgetEv
libdigikamcore.so.7.3.0:_ZN7Digikam15RegionFrameItem13setFixedRatioEd
libdigikamcore.so.7.3.0:_ZN7Digikam15RegionFrameItem14geometryEditedEv
libdigikamcore.so.7.3.0:_ZN7Digikam15RegionFrameItem14hoverMoveEventEP24QGraphicsSceneHoverEvent
libdigikamcore.so.7.3.0:_ZN7Digikam15RegionFrameItem14hudSizeChangedEv
libdigikamcore.so.7.3.0:_ZN7Digikam15RegionFrameItem14mouseMoveEventEP24QGraphicsSceneMouseEvent
libdigikamcore.so.7.3.0:_ZN7Digikam15RegionFrameItem14slotPosChangedEv
libdigikamcore.so.7.3.0:_ZN7Digikam15RegionFrameItem15hoverEnterEventEP24QGraphicsSceneHoverEvent
libdigikamcore.so.7.3.0:_ZN7Digikam15RegionFrameItem15hoverLeaveEventEP24QGraphicsSceneHoverEvent
libdigikamcore.so.7.3.0:_ZN7Digikam15RegionFrameItem15mousePressEventEP24QGraphicsSceneMouseEvent
libdigikamcore.so.7.3.0:_ZN7Digikam15RegionFrameItem15setViewportRectERK6QRectF
libdigikamcore.so.7.3.0:_ZN7Digikam15RegionFrameItem15slotSizeChangedEv
libdigikamcore.so.7.3.0:_ZN7Digikam15RegionFrameItem16staticMetaObjectE
libdigikamcore.so.7.3.0:_ZN7Digikam15RegionFrameItem17mouseReleaseEventEP24QGraphicsSceneMouseEvent
libdigikamcore.so.7.3.0:_ZN7Digikam15RegionFrameItem19setHudWidgetVisibleEb
libdigikamcore.so.7.3.0:_ZN7Digikam15RegionFrameItem33setRectInSceneCoordinatesAdjustedERK6QRectF
libdigikamcore.so.7.3.0:_ZN7Digikam15RegionFrameItem5paintEP8QPainterPK24QStyleOptionGraphicsItemP7QWidget
libdigikamcore.so.7.3.0:_ZN7Digikam15RegionFrameItem8setFlagsE6QFlagsINS0_4FlagEE
libdigikamcore.so.7.3.0:_ZN7Digikam15RegionFrameItemC1EP13QGraphicsItem
libdigikamcore.so.7.3.0:_ZN7Digikam15RegionFrameItemC2EP13QGraphicsItem
libdigikamcore.so.7.3.0:_ZN7Digikam15RegionFrameItemD0Ev
libdigikamcore.so.7.3.0:_ZN7Digikam15RegionFrameItemD1Ev
libdigikamcore.so.7.3.0:_ZN7Digikam15RegionFrameItemD2Ev
libdigikamcore.so.7.3.0:_ZN7Digikam15SidebarSplitter11qt_metacallEN11QMetaObject4CallEiPPv
libdigikamcore.so.7.3.0:_ZN7Digikam15SidebarSplitter11qt_metacastEPKc
libdigikamcore.so.7.3.0:_ZN7Digikam15SidebarSplitter12restoreStateER12KConfigGroup
libdigikamcore.so.7.3.0:_ZN7Digikam15SidebarSplitter12restoreStateER12KConfigGroupRK7QString
libdigikamcore.so.7.3.0:_ZN7Digikam15SidebarSplitter16staticMetaObjectE
libdigikamcore.so.7.3.0:_ZN7Digikam15SidebarSplitter17slotSplitterMovedEii
libdigikamcore.so.7.3.0:_ZN7Digikam15SidebarSplitter18DEFAULT_CONFIG_KEYE
libdigikamcore.so.7.3.0:_ZN7Digikam15SidebarSplitter7setSizeEP7QWidgeti
libdigikamcore.so.7.3.0:_ZN7Digikam15SidebarSplitter7setSizeEPNS_7SidebarEi
libdigikamcore.so.7.3.0:_ZN7Digikam15SidebarSplitter9saveStateER12KConfigGroup
libdigikamcore.so.7.3.0:_ZN7Digikam15SidebarSplitter9saveStateER12KConfigGroupRK7QString
libdigikamcore.so.7.3.0:_ZN7Digikam15SidebarSplitterC1EN2Qt11OrientationEP7QWidget
libdigikamcore.so.7.3.0:_ZN7Digikam15SidebarSplitterC1EP7QWidget
libdigikamcore.so.7.3.0:_ZN7Digikam15SidebarSplitterC2EN2Qt11OrientationEP7QWidget
libdigikamcore.so.7.3.0:_ZN7Digikam15SidebarSplitterC2EP7QWidget
libdigikamcore.so.7.3.0:_ZN7Digikam15SidebarSplitterD0Ev
libdigikamcore.so.7.3.0:_ZN7Digikam15SidebarSplitterD1Ev
libdigikamcore.so.7.3.0:_ZN7Digikam15SidebarSplitterD2Ev
libdigikamcore.so.7.3.0:_ZN7Digikam15SimpleTreeModel11qt_metacallEN11QMetaObject4CallEiPPv
libdigikamcore.so.7.3.0:_ZN7Digikam15SimpleTreeModel11qt_metacastEPKc
libdigikamcore.so.7.3.0:_ZN7Digikam15SimpleTreeModel13setHeaderDataEiN2Qt11OrientationERK8QVarianti
libdigikamcore.so.7.3.0:_ZN7Digikam15SimpleTreeModel16staticMetaObjectE
libdigikamcore.so.7.3.0:_ZN7Digikam15SimpleTreeModel7addItemEPNS0_4ItemEi
libdigikamcore.so.7.3.0:_ZN7Digikam15SimpleTreeModel7setDataERK11QModelIndexRK8QVarianti
libdigikamcore.so.7.3.0:_ZN7Digikam15SimpleTreeModelC1EiP7QObject
libdigikamcore.so.7.3.0:_ZN7Digikam15SimpleTreeModelC2EiP7QObject
libdigikamcore.so.7.3.0:_ZN7Digikam15SimpleTreeModelD0Ev
libdigikamcore.so.7.3.0:_ZN7Digikam15SimpleTreeModelD1Ev
libdigikamcore.so.7.3.0:_ZN7Digikam15SimpleTreeModelD2Ev
libdigikamcore.so.7.3.0:_ZN7Digikam15TextureSettings11qt_metacallEN11QMetaObject4CallEiPPv
libdigikamcore.so.7.3.0:_ZN7Digikam15TextureSettings11qt_metacastEPKc
libdigikamcore.so.7.3.0:_ZN7Digikam15TextureSettings11setSettingsERKNS_16TextureContainerE
libdigikamcore.so.7.3.0:_ZN7Digikam15TextureSettings12readSettingsER12KConfigGroup
libdigikamcore.so.7.3.0:_ZN7Digikam15TextureSettings13writeSettingsER12KConfigGroup
libdigikamcore.so.7.3.0:_ZN7Digikam15TextureSettings14resetToDefaultEv
libdigikamcore.so.7.3.0:_ZN7Digikam15TextureSettings16staticMetaObjectE
libdigikamcore.so.7.3.0:_ZN7Digikam15TextureSettings21signalSettingsChangedEv
libdigikamcore.so.7.3.0:_ZN7Digikam15TextureSettingsC1EP7QWidget
libdigikamcore.so.7.3.0:_ZN7Digikam15TextureSettingsC2EP7QWidget
libdigikamcore.so.7.3.0:_ZN7Digikam15TextureSettingsD0Ev
libdigikamcore.so.7.3.0:_ZN7Digikam15TextureSettingsD1Ev
libdigikamcore.so.7.3.0:_ZN7Digikam15TextureSettingsD2Ev
libdigikamcore.so.7.3.0:_ZN7Digikam15ThumbsDbBackend10initSchemaEPNS_21ThumbsDbSchemaUpdaterE
libdigikamcore.so.7.3.0:_ZN7Digikam15ThumbsDbBackend11qt_metacallEN11QMetaObject4CallEiPPv
libdigikamcore.so.7.3.0:_ZN7Digikam15ThumbsDbBackend11qt_metacastEPKc
libdigikamcore.so.7.3.0:_ZN7Digikam15ThumbsDbBackend16staticMetaObjectE
libdigikamcore.so.7.3.0:_ZN7Digikam15ThumbsDbBackendC1EPNS_15DbEngineLockingERK7QString
libdigikamcore.so.7.3.0:_ZN7Digikam15ThumbsDbBackendC2EPNS_15DbEngineLockingERK7QString
libdigikamcore.so.7.3.0:_ZN7Digikam15ThumbsDbBackendD0Ev
libdigikamcore.so.7.3.0:_ZN7Digikam15ThumbsDbBackendD1Ev
libdigikamcore.so.7.3.0:_ZN7Digikam15ThumbsDbBackendD2Ev
libdigikamcore.so.7.3.0:_ZN7Digikam15TrackCorrelator11qt_metacallEN11QMetaObject4CallEiPPv
libdigikamcore.so.7.3.0:_ZN7Digikam15TrackCorrelator11qt_metacastEPKc
libdigikamcore.so.7.3.0:_ZN7Digikam15TrackCorrelator16staticMetaObjectE
libdigikamcore.so.7.3.0:_ZN7Digikam15TrackCorrelator17cancelCorrelationEv
libdigikamcore.so.7.3.0:_ZN7Digikam15TrackCorrelator18slotThreadFinishedEv
libdigikamcore.so.7.3.0:_ZN7Digikam15TrackCorrelator21signalItemsCorrelatedERK5QListINS0_11CorrelationEE
libdigikamcore.so.7.3.0:_ZN7Digikam15TrackCorrelator24signalAllItemsCorrelatedEv
libdigikamcore.so.7.3.0:_ZN7Digikam15TrackCorrelator25signalCorrelationCanceledEv
libdigikamcore.so.7.3.0:_ZN7Digikam15TrackCorrelator25slotThreadItemsCorrelatedERK5QListINS0_11CorrelationEE
libdigikamcore.so.7.3.0:_ZN7Digikam15TrackCorrelator9correlateERK5QListINS0_11CorrelationEERKNS0_18CorrelationOptionsE
libdigikamcore.so.7.3.0:_ZN7Digikam15TrackCorrelatorC1EPNS_12TrackManagerEP7QObject
libdigikamcore.so.7.3.0:_ZN7Digikam15TrackCorrelatorC2EPNS_12TrackManagerEP7QObject
libdigikamcore.so.7.3.0:_ZN7Digikam15TrackCorrelatorD0Ev
libdigikamcore.so.7.3.0:_ZN7Digikam15TrackCorrelatorD1Ev
libdigikamcore.so.7.3.0:_ZN7Digikam15TrackCorrelatorD2Ev
libdigikamcore.so.7.3.0:_ZN7Digikam15WSSelectUserDlg10reactivateEv
libdigikamcore.so.7.3.0:_ZN7Digikam15WSSelectUserDlg11qt_metacallEN11QMetaObject4CallEiPPv
libdigikamcore.so.7.3.0:_ZN7Digikam15WSSelectUserDlg11qt_metacastEPKc
libdigikamcore.so.7.3.0:_ZN7Digikam15WSSelectUserDlg13slotOkClickedEv
libdigikamcore.so.7.3.0:_ZN7Digikam15WSSelectUserDlg16staticMetaObjectE
libdigikamcore.so.7.3.0:_ZN7Digikam15WSSelectUserDlg21slotNewAccountClickedEv
libdigikamcore.so.7.3.0:_ZN7Digikam15WSSelectUserDlgC1EP7QWidgetRK7QString
libdigikamcore.so.7.3.0:_ZN7Digikam15WSSelectUserDlgC2EP7QWidgetRK7QString
libdigikamcore.so.7.3.0:_ZN7Digikam15WSSelectUserDlgD0Ev
libdigikamcore.so.7.3.0:_ZN7Digikam15WSSelectUserDlgD1Ev
libdigikamcore.so.7.3.0:_ZN7Digikam15WSSelectUserDlgD2Ev
libdigikamcore.so.7.3.0:_ZN7Digikam16ActionThreadBase10appendJobsERK5QHashIPNS_9ActionJobEiE
libdigikamcore.so.7.3.0:_ZN7Digikam16ActionThreadBase11qt_metacallEN11QMetaObject4CallEiPPv
libdigikamcore.so.7.3.0:_ZN7Digikam16ActionThreadBase11qt_metacastEPKc
libdigikamcore.so.7.3.0:_ZN7Digikam16ActionThreadBase15slotJobFinishedEv
libdigikamcore.so.7.3.0:_ZN7Digikam16ActionThreadBase16staticMetaObjectE
libdigikamcore.so.7.3.0:_ZN7Digikam16ActionThreadBase25setMaximumNumberOfThreadsEi
libdigikamcore.so.7.3.0:_ZN7Digikam16ActionThreadBase32setDefaultMaximumNumberOfThreadsEv
libdigikamcore.so.7.3.0:_ZN7Digikam16ActionThreadBase3runEv
libdigikamcore.so.7.3.0:_ZN7Digikam16ActionThreadBase6cancelEv
libdigikamcore.so.7.3.0:_ZN7Digikam16ActionThreadBaseC1EP7QObject
libdigikamcore.so.7.3.0:_ZN7Digikam16ActionThreadBaseC2EP7QObject
libdigikamcore.so.7.3.0:_ZN7Digikam16ActionThreadBaseD0Ev
libdigikamcore.so.7.3.0:_ZN7Digikam16ActionThreadBaseD1Ev
libdigikamcore.so.7.3.0:_ZN7Digikam16ActionThreadBaseD2Ev
libdigikamcore.so.7.3.0:_ZN7Digikam16AutoLevelsFilter11filterImageEv
libdigikamcore.so.7.3.0:_ZN7Digikam16AutoLevelsFilter11qt_metacallEN11QMetaObject4CallEiPPv
libdigikamcore.so.7.3.0:_ZN7Digikam16AutoLevelsFilter11qt_metacastEPKc
libdigikamcore.so.7.3.0:_ZN7Digikam16AutoLevelsFilter12filterActionEv
libdigikamcore.so.7.3.0:_ZN7Digikam16AutoLevelsFilter14readParametersERKNS_12FilterActionE
libdigikamcore.so.7.3.0:_ZN7Digikam16AutoLevelsFilter15DisplayableNameEv
libdigikamcore.so.7.3.0:_ZN7Digikam16AutoLevelsFilter16staticMetaObjectE
libdigikamcore.so.7.3.0:_ZN7Digikam16AutoLevelsFilter25autoLevelsCorrectionImageEv
libdigikamcore.so.7.3.0:_ZN7Digikam16AutoLevelsFilterC1EP7QObject
libdigikamcore.so.7.3.0:_ZN7Digikam16AutoLevelsFilterC1EPNS_4DImgEPKS1_P7QObject
libdigikamcore.so.7.3.0:_ZN7Digikam16AutoLevelsFilterC2EP7QObject
libdigikamcore.so.7.3.0:_ZN7Digikam16AutoLevelsFilterC2EPNS_4DImgEPKS1_P7QObject
libdigikamcore.so.7.3.0:_ZN7Digikam16AutoLevelsFilterD0Ev
libdigikamcore.so.7.3.0:_ZN7Digikam16AutoLevelsFilterD1Ev
libdigikamcore.so.7.3.0:_ZN7Digikam16AutoLevelsFilterD2Ev
libdigikamcore.so.7.3.0:_ZN7Digikam16BlackFrameParser11qt_metacallEN11QMetaObject4CallEiPPv
libdigikamcore.so.7.3.0:_ZN7Digikam16BlackFrameParser11qt_metacastEPKc
libdigikamcore.so.7.3.0:_ZN7Digikam16BlackFrameParser14parseHotPixelsERK7QString
libdigikamcore.so.7.3.0:_ZN7Digikam16BlackFrameParser15parseBlackFrameERK4QUrl
libdigikamcore.so.7.3.0:_ZN7Digikam16BlackFrameParser15parseBlackFrameERKNS_4DImgE
libdigikamcore.so.7.3.0:_ZN7Digikam16BlackFrameParser16staticMetaObjectE
libdigikamcore.so.7.3.0:_ZN7Digikam16BlackFrameParser17blackFrameParsingEv
libdigikamcore.so.7.3.0:_ZN7Digikam16BlackFrameParser17consolidatePixelsER5QListINS_13HotPixelPropsEE
libdigikamcore.so.7.3.0:_ZN7Digikam16BlackFrameParser19slotLoadingProgressERKNS_18LoadingDescriptionEf
libdigikamcore.so.7.3.0:_ZN7Digikam16BlackFrameParser21signalHotPixelsParsedERK5QListINS_13HotPixelPropsEE
libdigikamcore.so.7.3.0:_ZN7Digikam16BlackFrameParser21signalLoadingCompleteEv
libdigikamcore.so.7.3.0:_ZN7Digikam16BlackFrameParser21signalLoadingProgressEf
libdigikamcore.so.7.3.0:_ZN7Digikam16BlackFrameParser22validateAndConsolidateEPNS_13HotPixelPropsES2_
libdigikamcore.so.7.3.0:_ZN7Digikam16BlackFrameParser28slotLoadImageFromUrlCompleteERKNS_18LoadingDescriptionERKNS_4DImgE
libdigikamcore.so.7.3.0:_ZN7Digikam16BlackFrameParserC1EP7QObject
libdigikamcore.so.7.3.0:_ZN7Digikam16BlackFrameParserC2EP7QObject
libdigikamcore.so.7.3.0:_ZN7Digikam16BlackFrameParserD0Ev
libdigikamcore.so.7.3.0:_ZN7Digikam16BlackFrameParserD1Ev
libdigikamcore.so.7.3.0:_ZN7Digikam16BlackFrameParserD2Ev
libdigikamcore.so.7.3.0:_ZN7Digikam16ColorLabelWidget10labelColorENS_10ColorLabelE
libdigikamcore.so.7.3.0:_ZN7Digikam16ColorLabelWidget11eventFilterEP7QObjectP6QEvent
libdigikamcore.so.7.3.0:_ZN7Digikam16ColorLabelWidget11qt_metacallEN11QMetaObject4CallEiPPv
libdigikamcore.so.7.3.0:_ZN7Digikam16ColorLabelWidget11qt_metacastEPKc
libdigikamcore.so.7.3.0:_ZN7Digikam16ColorLabelWidget14labelColorNameENS_10ColorLabelE
libdigikamcore.so.7.3.0:_ZN7Digikam16ColorLabelWidget14setColorLabelsERK5QListINS_10ColorLabelEE
libdigikamcore.so.7.3.0:_ZN7Digikam16ColorLabelWidget16staticMetaObjectE
libdigikamcore.so.7.3.0:_ZN7Digikam16ColorLabelWidget17updateDescriptionENS_10ColorLabelE
libdigikamcore.so.7.3.0:_ZN7Digikam16ColorLabelWidget19setButtonsExclusiveEb
libdigikamcore.so.7.3.0:_ZN7Digikam16ColorLabelWidget23signalColorLabelChangedEi
libdigikamcore.so.7.3.0:_ZN7Digikam16ColorLabelWidget24setDescriptionBoxVisibleEb
libdigikamcore.so.7.3.0:_ZN7Digikam16ColorLabelWidget9buildIconENS_10ColorLabelEi
libdigikamcore.so.7.3.0:_ZN7Digikam16ColorLabelWidgetC1EP7QWidget
libdigikamcore.so.7.3.0:_ZN7Digikam16ColorLabelWidgetC2EP7QWidget
libdigikamcore.so.7.3.0:_ZN7Digikam16ColorLabelWidgetD0Ev
libdigikamcore.so.7.3.0:_ZN7Digikam16ColorLabelWidgetD1Ev
libdigikamcore.so.7.3.0:_ZN7Digikam16ColorLabelWidgetD2Ev
libdigikamcore.so.7.3.0:_ZN7Digikam16ComboBoxDelegate11qt_metacallEN11QMetaObject4CallEiPPv
libdigikamcore.so.7.3.0:_ZN7Digikam16ComboBoxDelegate11qt_metacastEPKc
libdigikamcore.so.7.3.0:_ZN7Digikam16ComboBoxDelegate12startEditingEP15QTreeWidgetItemi
libdigikamcore.so.7.3.0:_ZN7Digikam16ComboBoxDelegate16staticMetaObjectE
libdigikamcore.so.7.3.0:_ZN7Digikam16ComboBoxDelegate20slotResetEditedStateEP7QObject
libdigikamcore.so.7.3.0:_ZN7Digikam16ComboBoxDelegate24slotCommitAndCloseEditorEi
libdigikamcore.so.7.3.0:_ZN7Digikam16ComboBoxDelegateC1EPNS_10DItemsListERK4QMapIi7QStringE
libdigikamcore.so.7.3.0:_ZN7Digikam16ComboBoxDelegateC2EPNS_10DItemsListERK4QMapIi7QStringE
libdigikamcore.so.7.3.0:_ZN7Digikam16ComboBoxDelegateD0Ev
libdigikamcore.so.7.3.0:_ZN7Digikam16ComboBoxDelegateD1Ev
libdigikamcore.so.7.3.0:_ZN7Digikam16ComboBoxDelegateD2Ev
libdigikamcore.so.7.3.0:_ZN7Digikam16DAdjustableLabel11qt_metacallEN11QMetaObject4CallEiPPv
libdigikamcore.so.7.3.0:_ZN7Digikam16DAdjustableLabel11qt_metacastEPKc
libdigikamcore.so.7.3.0:_ZN7Digikam16DAdjustableLabel11resizeEventEP12QResizeEvent
libdigikamcore.so.7.3.0:_ZN7Digikam16DAdjustableLabel12setAlignmentE6QFlagsIN2Qt13AlignmentFlagEE
libdigikamcore.so.7.3.0:_ZN7Digikam16DAdjustableLabel12setElideModeEN2Qt13TextElideModeE
libdigikamcore.so.7.3.0:_ZN7Digikam16DAdjustableLabel15setAdjustedTextERK7QString
libdigikamcore.so.7.3.0:_ZN7Digikam16DAdjustableLabel16staticMetaObjectE
libdigikamcore.so.7.3.0:_ZN7Digikam16DAdjustableLabel17adjustTextToLabelEv
libdigikamcore.so.7.3.0:_ZN7Digikam16DAdjustableLabelC1EP7QWidget
libdigikamcore.so.7.3.0:_ZN7Digikam16DAdjustableLabelC2EP7QWidget
libdigikamcore.so.7.3.0:_ZN7Digikam16DAdjustableLabelD0Ev
libdigikamcore.so.7.3.0:_ZN7Digikam16DAdjustableLabelD1Ev
libdigikamcore.so.7.3.0:_ZN7Digikam16DAdjustableLabelD2Ev
libdigikamcore.so.7.3.0:_ZN7Digikam16DArrowClickLabel10paintEventEP11QPaintEvent
libdigikamcore.so.7.3.0:_ZN7Digikam16DArrowClickLabel11leftClickedEv
libdigikamcore.so.7.3.0:_ZN7Digikam16DArrowClickLabel11qt_metacallEN11QMetaObject4CallEiPPv
libdigikamcore.so.7.3.0:_ZN7Digikam16DArrowClickLabel11qt_metacastEPKc
libdigikamcore.so.7.3.0:_ZN7Digikam16DArrowClickLabel12setArrowTypeEN2Qt9ArrowTypeE
libdigikamcore.so.7.3.0:_ZN7Digikam16DArrowClickLabel15mousePressEventEP11QMouseEvent
libdigikamcore.so.7.3.0:_ZN7Digikam16DArrowClickLabel16staticMetaObjectE
libdigikamcore.so.7.3.0:_ZN7Digikam16DArrowClickLabel17mouseReleaseEventEP11QMouseEvent
libdigikamcore.so.7.3.0:_ZN7Digikam16DArrowClickLabelC1EP7QWidget
libdigikamcore.so.7.3.0:_ZN7Digikam16DArrowClickLabelC2EP7QWidget
libdigikamcore.so.7.3.0:_ZN7Digikam16DArrowClickLabelD0Ev
libdigikamcore.so.7.3.0:_ZN7Digikam16DArrowClickLabelD1Ev
libdigikamcore.so.7.3.0:_ZN7Digikam16DArrowClickLabelD2Ev
libdigikamcore.so.7.3.0:_ZN7Digikam16DCategorizedView10leaveEventEP6QEvent
libdigikamcore.so.7.3.0:_ZN7Digikam16DCategorizedView10moveCursorEN17QAbstractItemView12CursorActionE6QFlagsIN2Qt16KeyboardModifierEE
libdigikamcore.so.7.3.0:_ZN7Digikam16DCategorizedView10paintEventEP11QPaintEvent
libdigikamcore.so.7.3.0:_ZN7Digikam16DCategorizedView11qt_metacallEN11QMetaObject4CallEiPPv
libdigikamcore.so.7.3.0:_ZN7Digikam16DCategorizedView11qt_metacastEPKc
libdigikamcore.so.7.3.0:_ZN7Digikam16DCategorizedView11resizeEventEP12QResizeEvent
libdigikamcore.so.7.3.0:_ZN7Digikam16DCategorizedView11rowsRemovedERK11QModelIndexii
libdigikamcore.so.7.3.0:_ZN7Digikam16DCategorizedView11setGridSizeERK5QSize
libdigikamcore.so.7.3.0:_ZN7Digikam16DCategorizedView12rowsInsertedERK11QModelIndexii
libdigikamcore.so.7.3.0:_ZN7Digikam16DCategorizedView12setSelectionERK5QRect6QFlagsIN19QItemSelectionModel13SelectionFlagEE
libdigikamcore.so.7.3.0:_ZN7Digikam16DCategorizedView13dragMoveEventEP14QDragMoveEvent
libdigikamcore.so.7.3.0:_ZN7Digikam16DCategorizedView14currentChangedERK11QModelIndexS3_
libdigikamcore.so.7.3.0:_ZN7Digikam16DCategorizedView14dragLeaveEventEP15QDragLeaveEvent
libdigikamcore.so.7.3.0:_ZN7Digikam16DCategorizedView14mouseMoveEventEP11QMouseEvent
libdigikamcore.so.7.3.0:_ZN7Digikam16DCategorizedView15mousePressEventEP11QMouseEvent
libdigikamcore.so.7.3.0:_ZN7Digikam16DCategorizedView16staticMetaObjectE
libdigikamcore.so.7.3.0:_ZN7Digikam16DCategorizedView16updateGeometriesEv
libdigikamcore.so.7.3.0:_ZN7Digikam16DCategorizedView17mouseReleaseEventEP11QMouseEvent
libdigikamcore.so.7.3.0:_ZN7Digikam16DCategorizedView17setCategoryDrawerEPNS_15DCategoryDrawerE
libdigikamcore.so.7.3.0:_ZN7Digikam16DCategorizedView17slotLayoutChangedEv
libdigikamcore.so.7.3.0:_ZN7Digikam16DCategorizedView19setDrawDraggedItemsEb
libdigikamcore.so.7.3.0:_ZN7Digikam16DCategorizedView23rowsInsertedArtifficialERK11QModelIndexii
libdigikamcore.so.7.3.0:_ZN7Digikam16DCategorizedView5resetEv
libdigikamcore.so.7.3.0:_ZN7Digikam16DCategorizedView8setModelEP18QAbstractItemModel
libdigikamcore.so.7.3.0:_ZN7Digikam16DCategorizedView9dropEventEP10QDropEvent
libdigikamcore.so.7.3.0:_ZN7Digikam16DCategorizedView9startDragE6QFlagsIN2Qt10DropActionEE
libdigikamcore.so.7.3.0:_ZN7Digikam16DCategorizedViewC1EP7QWidget
libdigikamcore.so.7.3.0:_ZN7Digikam16DCategorizedViewC2EP7QWidget
libdigikamcore.so.7.3.0:_ZN7Digikam16DCategorizedViewD0Ev
libdigikamcore.so.7.3.0:_ZN7Digikam16DCategorizedViewD1Ev
libdigikamcore.so.7.3.0:_ZN7Digikam16DCategorizedViewD2Ev
libdigikamcore.so.7.3.0:_ZN7Digikam16DPluginRawImport11qt_metacallEN11QMetaObject4CallEiPPv
libdigikamcore.so.7.3.0:_ZN7Digikam16DPluginRawImport11qt_metacastEPKc
libdigikamcore.so.7.3.0:_ZN7Digikam16DPluginRawImport13signalLoadRawERKNS_18LoadingDescriptionE
libdigikamcore.so.7.3.0:_ZN7Digikam16DPluginRawImport16staticMetaObjectE
libdigikamcore.so.7.3.0:_ZN7Digikam16DPluginRawImport18signalDecodedImageERKNS_18LoadingDescriptionERKNS_4DImgE
libdigikamcore.so.7.3.0:_ZN7Digikam16DPluginRawImportC1EP7QObject
libdigikamcore.so.7.3.0:_ZN7Digikam16DPluginRawImportC2EP7QObject
libdigikamcore.so.7.3.0:_ZN7Digikam16DPluginRawImportD0Ev
libdigikamcore.so.7.3.0:_ZN7Digikam16DPluginRawImportD1Ev
libdigikamcore.so.7.3.0:_ZN7Digikam16DPluginRawImportD2Ev
libdigikamcore.so.7.3.0:_ZN7Digikam16DbEngineSqlQuery7prepareERK7QString
libdigikamcore.so.7.3.0:_ZN7Digikam16DbEngineSqlQueryC1ERK12QSqlDatabase
libdigikamcore.so.7.3.0:_ZN7Digikam16DbEngineSqlQueryC1ERK9QSqlQuery
libdigikamcore.so.7.3.0:_ZN7Digikam16DbEngineSqlQueryC2ERK12QSqlDatabase
libdigikamcore.so.7.3.0:_ZN7Digikam16DbEngineSqlQueryC2ERK9QSqlQuery
libdigikamcore.so.7.3.0:_ZN7Digikam16DbEngineSqlQueryaSERKS0_
libdigikamcore.so.7.3.0:_ZN7Digikam16FacePreprocessorC1Ev
libdigikamcore.so.7.3.0:_ZN7Digikam16FacePreprocessorC2Ev
libdigikamcore.so.7.3.0:_ZN7Digikam16FacePreprocessorD0Ev
libdigikamcore.so.7.3.0:_ZN7Digikam16FacePreprocessorD1Ev
libdigikamcore.so.7.3.0:_ZN7Digikam16FacePreprocessorD2Ev
libdigikamcore.so.7.3.0:_ZN7Digikam16GPSBookmarkOwner11qt_metacallEN11QMetaObject4CallEiPPv
libdigikamcore.so.7.3.0:_ZN7Digikam16GPSBookmarkOwner11qt_metacastEPKc
libdigikamcore.so.7.3.0:_ZN7Digikam16GPSBookmarkOwner15slotAddBookmarkEv
libdigikamcore.so.7.3.0:_ZN7Digikam16GPSBookmarkOwner16positionSelectedERKNS_16GPSDataContainerE
libdigikamcore.so.7.3.0:_ZN7Digikam16GPSBookmarkOwner16slotOpenBookmarkERK4QUrl
libdigikamcore.so.7.3.0:_ZN7Digikam16GPSBookmarkOwner16staticMetaObjectE
libdigikamcore.so.7.3.0:_ZN7Digikam16GPSBookmarkOwner17changeAddBookmarkEb
libdigikamcore.so.7.3.0:_ZN7Digikam16GPSBookmarkOwner19createBookmarksMenuEv
libdigikamcore.so.7.3.0:_ZN7Digikam16GPSBookmarkOwner19setPositionAndTitleERKNS_14GeoCoordinatesERK7QString
libdigikamcore.so.7.3.0:_ZN7Digikam16GPSBookmarkOwner23slotShowBookmarksDialogEv
libdigikamcore.so.7.3.0:_ZN7Digikam16GPSBookmarkOwnerC1EPNS_12GPSItemModelEP7QWidget
libdigikamcore.so.7.3.0:_ZN7Digikam16GPSBookmarkOwnerC2EPNS_12GPSItemModelEP7QWidget
libdigikamcore.so.7.3.0:_ZN7Digikam16GPSBookmarkOwnerD0Ev
libdigikamcore.so.7.3.0:_ZN7Digikam16GPSBookmarkOwnerD1Ev
libdigikamcore.so.7.3.0:_ZN7Digikam16GPSBookmarkOwnerD2Ev
libdigikamcore.so.7.3.0:_ZN7Digikam16GPSItemContainer10setGPSDataERKNS_16GPSDataContainerE
libdigikamcore.so.7.3.0:_ZN7Digikam16GPSItemContainer10setTagListERK5QListIS1_INS_7TagDataEEE
libdigikamcore.so.7.3.0:_ZN7Digikam16GPSItemContainer11saveChangesEv
libdigikamcore.so.7.3.0:_ZN7Digikam16GPSItemContainer13loadImageDataEv
libdigikamcore.so.7.3.0:_ZN7Digikam16GPSItemContainer13setHeaderDataEPNS_12GPSItemModelE
libdigikamcore.so.7.3.0:_ZN7Digikam16GPSItemContainer14restoreGPSDataERKNS_16GPSDataContainerE
libdigikamcore.so.7.3.0:_ZN7Digikam16GPSItemContainer14setCoordinatesERKNS_14GeoCoordinatesE
libdigikamcore.so.7.3.0:_ZN7Digikam16GPSItemContainer15emitDataChangedEv
libdigikamcore.so.7.3.0:_ZN7Digikam16GPSItemContainer16restoreRGTagListERK5QListIS1_INS_7TagDataEEE
libdigikamcore.so.7.3.0:_ZN7Digikam16GPSItemContainer8setModelEPNS_12GPSItemModelE
libdigikamcore.so.7.3.0:_ZN7Digikam16GPSItemContainerC1ERK4QUrl
libdigikamcore.so.7.3.0:_ZN7Digikam16GPSItemContainerC2ERK4QUrl
libdigikamcore.so.7.3.0:_ZN7Digikam16GPSItemContainerD0Ev
libdigikamcore.so.7.3.0:_ZN7Digikam16GPSItemContainerD1Ev
libdigikamcore.so.7.3.0:_ZN7Digikam16GPSItemContainerD2Ev
libdigikamcore.so.7.3.0:_ZN7Digikam16GraphicsDImgItem10clearCacheEv
libdigikamcore.so.7.3.0:_ZN7Digikam16GraphicsDImgItem11qt_metacallEN11QMetaObject4CallEiPPv
libdigikamcore.so.7.3.0:_ZN7Digikam16GraphicsDImgItem11qt_metacastEPKc
libdigikamcore.so.7.3.0:_ZN7Digikam16GraphicsDImgItem12imageChangedEv
libdigikamcore.so.7.3.0:_ZN7Digikam16GraphicsDImgItem12zoomSettingsEv
libdigikamcore.so.7.3.0:_ZN7Digikam16GraphicsDImgItem14sizeHasChangedEv
libdigikamcore.so.7.3.0:_ZN7Digikam16GraphicsDImgItem15showContextMenuEP30QGraphicsSceneContextMenuEvent
libdigikamcore.so.7.3.0:_ZN7Digikam16GraphicsDImgItem16contextMenuEventEP30QGraphicsSceneContextMenuEvent
libdigikamcore.so.7.3.0:_ZN7Digikam16GraphicsDImgItem16imageSizeChangedERK6QSizeF
libdigikamcore.so.7.3.0:_ZN7Digikam16GraphicsDImgItem16staticMetaObjectE
libdigikamcore.so.7.3.0:_ZN7Digikam16GraphicsDImgItem23GraphicsDImgItemPrivate4initEPS0_
libdigikamcore.so.7.3.0:_ZN7Digikam16GraphicsDImgItem5paintEP8QPainterPK24QStyleOptionGraphicsItemP7QWidget
libdigikamcore.so.7.3.0:_ZN7Digikam16GraphicsDImgItem8setImageERKNS_4DImgE
libdigikamcore.so.7.3.0:_ZN7Digikam16GraphicsDImgItemC1EP13QGraphicsItem
libdigikamcore.so.7.3.0:_ZN7Digikam16GraphicsDImgItemC1ERNS0_23GraphicsDImgItemPrivateEP13QGraphicsItem
libdigikamcore.so.7.3.0:_ZN7Digikam16GraphicsDImgItemC2EP13QGraphicsItem
libdigikamcore.so.7.3.0:_ZN7Digikam16GraphicsDImgItemC2ERNS0_23GraphicsDImgItemPrivateEP13QGraphicsItem
libdigikamcore.so.7.3.0:_ZN7Digikam16GraphicsDImgItemD0Ev
libdigikamcore.so.7.3.0:_ZN7Digikam16GraphicsDImgItemD1Ev
libdigikamcore.so.7.3.0:_ZN7Digikam16GraphicsDImgItemD2Ev
libdigikamcore.so.7.3.0:_ZN7Digikam16GraphicsDImgView10wheelEventEP11QWheelEvent
libdigikamcore.so.7.3.0:_ZN7Digikam16GraphicsDImgView11fitToWindowEv
libdigikamcore.so.7.3.0:_ZN7Digikam16GraphicsDImgView11qt_metacallEN11QMetaObject4CallEiPPv
libdigikamcore.so.7.3.0:_ZN7Digikam16GraphicsDImgView11qt_metacastEPKc
libdigikamcore.so.7.3.0:_ZN7Digikam16GraphicsDImgView11resizeEventEP12QResizeEvent
libdigikamcore.so.7.3.0:_ZN7Digikam16GraphicsDImgView11setShowTextEb
libdigikamcore.so.7.3.0:_ZN7Digikam16GraphicsDImgView11toNextImageEv
libdigikamcore.so.7.3.0:_ZN7Digikam16GraphicsDImgView12startPanningERK6QPoint
libdigikamcore.so.7.3.0:_ZN7Digikam16GraphicsDImgView13contentsMovedEb
libdigikamcore.so.7.3.0:_ZN7Digikam16GraphicsDImgView13finishPanningEv
libdigikamcore.so.7.3.0:_ZN7Digikam16GraphicsDImgView14contentsMovingEii
libdigikamcore.so.7.3.0:_ZN7Digikam16GraphicsDImgView14drawForegroundEP8QPainterRK6QRectF
libdigikamcore.so.7.3.0:_ZN7Digikam16GraphicsDImgView14installPanIconEv
libdigikamcore.so.7.3.0:_ZN7Digikam16GraphicsDImgView14mouseMoveEventEP11QMouseEvent
libdigikamcore.so.7.3.0:_ZN7Digikam16GraphicsDImgView14setContentsPosEii
libdigikamcore.so.7.3.0:_ZN7Digikam16GraphicsDImgView15continuePanningERK6QPoint
libdigikamcore.so.7.3.0:_ZN7Digikam16GraphicsDImgView15mousePressEventEP11QMouseEvent
libdigikamcore.so.7.3.0:_ZN7Digikam16GraphicsDImgView15toPreviousImageEv
libdigikamcore.so.7.3.0:_ZN7Digikam16GraphicsDImgView16scrollContentsByEii
libdigikamcore.so.7.3.0:_ZN7Digikam16GraphicsDImgView16staticMetaObjectE
libdigikamcore.so.7.3.0:_ZN7Digikam16GraphicsDImgView16toggleFullScreenEb
libdigikamcore.so.7.3.0:_ZN7Digikam16GraphicsDImgView17acceptsMouseClickEP11QMouseEvent
libdigikamcore.so.7.3.0:_ZN7Digikam16GraphicsDImgView17leftButtonClickedEv
libdigikamcore.so.7.3.0:_ZN7Digikam16GraphicsDImgView17mouseReleaseEventEP11QMouseEvent
libdigikamcore.so.7.3.0:_ZN7Digikam16GraphicsDImgView17slotContentsMovedEv
libdigikamcore.so.7.3.0:_ZN7Digikam16GraphicsDImgView17slotPanIconHiddenEv
libdigikamcore.so.7.3.0:_ZN7Digikam16GraphicsDImgView18rightButtonClickedEv
libdigikamcore.so.7.3.0:_ZN7Digikam16GraphicsDImgView18scrollPointOnPointERK7QPointFRK6QPoint
libdigikamcore.so.7.3.0:_ZN7Digikam16GraphicsDImgView19viewportRectChangedERK6QRectF
libdigikamcore.so.7.3.0:_ZN7Digikam16GraphicsDImgView21mouseDoubleClickEventEP11QMouseEvent
libdigikamcore.so.7.3.0:_ZN7Digikam16GraphicsDImgView23leftButtonDoubleClickedEv
libdigikamcore.so.7.3.0:_ZN7Digikam16GraphicsDImgView23slotCornerButtonPressedEv
libdigikamcore.so.7.3.0:_ZN7Digikam16GraphicsDImgView25slotPanIconSelectionMovedERK5QRectb
libdigikamcore.so.7.3.0:_ZN7Digikam16GraphicsDImgView7resizedEv
libdigikamcore.so.7.3.0:_ZN7Digikam16GraphicsDImgView7setItemEPNS_16GraphicsDImgItemE
libdigikamcore.so.7.3.0:_ZN7Digikam16GraphicsDImgView8drawTextEP8QPainterRK6QRectFRK7QString
libdigikamcore.so.7.3.0:_ZN7Digikam16GraphicsDImgView9activatedEv
libdigikamcore.so.7.3.0:_ZN7Digikam16GraphicsDImgViewC1EP7QWidget
libdigikamcore.so.7.3.0:_ZN7Digikam16GraphicsDImgViewC2EP7QWidget
libdigikamcore.so.7.3.0:_ZN7Digikam16GraphicsDImgViewD0Ev
libdigikamcore.so.7.3.0:_ZN7Digikam16GraphicsDImgViewD1Ev
libdigikamcore.so.7.3.0:_ZN7Digikam16GraphicsDImgViewD2Ev
libdigikamcore.so.7.3.0:_ZN7Digikam16HotPixelSettings11qt_metacallEN11QMetaObject4CallEiPPv
libdigikamcore.so.7.3.0:_ZN7Digikam16HotPixelSettings11qt_metacastEPKc
libdigikamcore.so.7.3.0:_ZN7Digikam16HotPixelSettings11setSettingsERKNS_17HotPixelContainerE
libdigikamcore.so.7.3.0:_ZN7Digikam16HotPixelSettings12readSettingsER12KConfigGroup
libdigikamcore.so.7.3.0:_ZN7Digikam16HotPixelSettings13writeSettingsER12KConfigGroup
libdigikamcore.so.7.3.0:_ZN7Digikam16HotPixelSettings14loadBlackFrameERK4QUrlb
libdigikamcore.so.7.3.0:_ZN7Digikam16HotPixelSettings14resetToDefaultEv
libdigikamcore.so.7.3.0:_ZN7Digikam16HotPixelSettings15signalHotPixelsERK8QPolygon
libdigikamcore.so.7.3.0:_ZN7Digikam16HotPixelSettings16staticMetaObjectE
libdigikamcore.so.7.3.0:_ZN7Digikam16HotPixelSettings17slotAddBlackFrameEv
libdigikamcore.so.7.3.0:_ZN7Digikam16HotPixelSettings21signalSettingsChangedEv
libdigikamcore.so.7.3.0:_ZN7Digikam16HotPixelSettings21slotBlackFrameRemovedERK4QUrl
libdigikamcore.so.7.3.0:_ZN7Digikam16HotPixelSettings22slotBlackFrameSelectedERK5QListINS_13HotPixelPropsEERK4QUrl
libdigikamcore.so.7.3.0:_ZN7Digikam16HotPixelSettings23slotClearBlackFrameListEv
libdigikamcore.so.7.3.0:_ZN7Digikam16HotPixelSettingsC1EP7QWidget
libdigikamcore.so.7.3.0:_ZN7Digikam16HotPixelSettingsC2EP7QWidget
libdigikamcore.so.7.3.0:_ZN7Digikam16HotPixelSettingsD0Ev
libdigikamcore.so.7.3.0:_ZN7Digikam16HotPixelSettingsD1Ev
libdigikamcore.so.7.3.0:_ZN7Digikam16HotPixelSettingsD2Ev
libdigikamcore.so.7.3.0:_ZN7Digikam16HotPixelsWeights16setPolynomeOrderEi
libdigikamcore.so.7.3.0:_ZN7Digikam16HotPixelsWeights25calculateHotPixelsWeightsEv
libdigikamcore.so.7.3.0:_ZN7Digikam16HotPixelsWeights8setWidthEi
libdigikamcore.so.7.3.0:_ZN7Digikam16HotPixelsWeights9matrixInvEPdm
libdigikamcore.so.7.3.0:_ZN7Digikam16HotPixelsWeights9setHeightEi
libdigikamcore.so.7.3.0:_ZN7Digikam16HotPixelsWeights9setTwoDimEb
libdigikamcore.so.7.3.0:_ZN7Digikam16HotPixelsWeightsC1ERKS0_
libdigikamcore.so.7.3.0:_ZN7Digikam16HotPixelsWeightsC1Ev
libdigikamcore.so.7.3.0:_ZN7Digikam16HotPixelsWeightsC2ERKS0_
libdigikamcore.so.7.3.0:_ZN7Digikam16HotPixelsWeightsC2Ev
libdigikamcore.so.7.3.0:_ZN7Digikam16HotPixelsWeightsD1Ev
libdigikamcore.so.7.3.0:_ZN7Digikam16HotPixelsWeightsD2Ev
libdigikamcore.so.7.3.0:_ZN7Digikam16HotPixelsWeightsaSERKS0_
libdigikamcore.so.7.3.0:_ZN7Digikam16ICCPreviewWidget11qt_metacallEN11QMetaObject4CallEiPPv
libdigikamcore.so.7.3.0:_ZN7Digikam16ICCPreviewWidget11qt_metacastEPKc
libdigikamcore.so.7.3.0:_ZN7Digikam16ICCPreviewWidget15slotShowPreviewERK4QUrl
libdigikamcore.so.7.3.0:_ZN7Digikam16ICCPreviewWidget16slotClearPreviewEv
libdigikamcore.so.7.3.0:_ZN7Digikam16ICCPreviewWidget16staticMetaObjectE
libdigikamcore.so.7.3.0:_ZN7Digikam16ICCPreviewWidgetC1EP7QWidget
libdigikamcore.so.7.3.0:_ZN7Digikam16ICCPreviewWidgetC2EP7QWidget
libdigikamcore.so.7.3.0:_ZN7Digikam16ICCPreviewWidgetD0Ev
libdigikamcore.so.7.3.0:_ZN7Digikam16ICCPreviewWidgetD1Ev
libdigikamcore.so.7.3.0:_ZN7Digikam16ICCPreviewWidgetD2Ev
libdigikamcore.so.7.3.0:_ZN7Digikam16ICCProfileWidget10setProfileERKNS_10IccProfileE
libdigikamcore.so.7.3.0:_ZN7Digikam16ICCProfileWidget11getTagTitleERK7QString
libdigikamcore.so.7.3.0:_ZN7Digikam16ICCProfileWidget11loadFromURLERK4QUrl
libdigikamcore.so.7.3.0:_ZN7Digikam16ICCProfileWidget11loadProfileERK7QStringRKNS_10IccProfileE
libdigikamcore.so.7.3.0:_ZN7Digikam16ICCProfileWidget11qt_metacallEN11QMetaObject4CallEiPPv
libdigikamcore.so.7.3.0:_ZN7Digikam16ICCProfileWidget11qt_metacastEPKc
libdigikamcore.so.7.3.0:_ZN7Digikam16ICCProfileWidget14decodeMetadataEv
libdigikamcore.so.7.3.0:_ZN7Digikam16ICCProfileWidget14setDataLoadingEv
libdigikamcore.so.7.3.0:_ZN7Digikam16ICCProfileWidget16setLoadingFailedEv
libdigikamcore.so.7.3.0:_ZN7Digikam16ICCProfileWidget16staticMetaObjectE
libdigikamcore.so.7.3.0:_ZN7Digikam16ICCProfileWidget17getTagDescriptionERK7QString
libdigikamcore.so.7.3.0:_ZN7Digikam16ICCProfileWidget19loadFromProfileDataERK7QStringRK10QByteArray
libdigikamcore.so.7.3.0:_ZN7Digikam16ICCProfileWidget20setUncalibratedColorEv
libdigikamcore.so.7.3.0:_ZN7Digikam16ICCProfileWidget22slotSaveMetadataToFileEv
libdigikamcore.so.7.3.0:_ZN7Digikam16ICCProfileWidget9buildViewEv
libdigikamcore.so.7.3.0:_ZN7Digikam16ICCProfileWidgetC1EP7QWidgetii
libdigikamcore.so.7.3.0:_ZN7Digikam16ICCProfileWidgetC2EP7QWidgetii
libdigikamcore.so.7.3.0:_ZN7Digikam16ICCProfileWidgetD0Ev
libdigikamcore.so.7.3.0:_ZN7Digikam16ICCProfileWidgetD1Ev
libdigikamcore.so.7.3.0:_ZN7Digikam16ICCProfileWidgetD2Ev
libdigikamcore.so.7.3.0:_ZN7Digikam16ImageGuideWidget10drawLineToERK6QPoint
libdigikamcore.so.7.3.0:_ZN7Digikam16ImageGuideWidget10drawLineToEibRK6QColorRK6QPointS6_
libdigikamcore.so.7.3.0:_ZN7Digikam16ImageGuideWidget10enterEventEP6QEvent
libdigikamcore.so.7.3.0:_ZN7Digikam16ImageGuideWidget10leaveEventEP6QEvent
libdigikamcore.so.7.3.0:_ZN7Digikam16ImageGuideWidget10paintEventEP11QPaintEvent
libdigikamcore.so.7.3.0:_ZN7Digikam16ImageGuideWidget10timerEventEP11QTimerEvent
libdigikamcore.so.7.3.0:_ZN7Digikam16ImageGuideWidget11qt_metacallEN11QMetaObject4CallEiPPv
libdigikamcore.so.7.3.0:_ZN7Digikam16ImageGuideWidget11qt_metacastEPKc
libdigikamcore.so.7.3.0:_ZN7Digikam16ImageGuideWidget11resetPointsEv
libdigikamcore.so.7.3.0:_ZN7Digikam16ImageGuideWidget11resizeEventEP12QResizeEvent
libdigikamcore.so.7.3.0:_ZN7Digikam16ImageGuideWidget12setEraseModeEb
libdigikamcore.so.7.3.0:_ZN7Digikam16ImageGuideWidget12updatePixmapEv
libdigikamcore.so.7.3.0:_ZN7Digikam16ImageGuideWidget13setMaskCursorEv
libdigikamcore.so.7.3.0:_ZN7Digikam16ImageGuideWidget13setPaintColorERK6QColor
libdigikamcore.so.7.3.0:_ZN7Digikam16ImageGuideWidget13signalResizedEv
libdigikamcore.so.7.3.0:_ZN7Digikam16ImageGuideWidget13updatePreviewEv
libdigikamcore.so.7.3.0:_ZN7Digikam16ImageGuideWidget14mouseMoveEventEP11QMouseEvent
libdigikamcore.so.7.3.0:_ZN7Digikam16ImageGuideWidget14setMaskEnabledEb
libdigikamcore.so.7.3.0:_ZN7Digikam16ImageGuideWidget14setMaskPenSizeEi
libdigikamcore.so.7.3.0:_ZN7Digikam16ImageGuideWidget14setSpotVisibleEbb
libdigikamcore.so.7.3.0:_ZN7Digikam16ImageGuideWidget15mousePressEventEP11QMouseEvent
libdigikamcore.so.7.3.0:_ZN7Digikam16ImageGuideWidget15setSpotPositionERK6QPoint
libdigikamcore.so.7.3.0:_ZN7Digikam16ImageGuideWidget16staticMetaObjectE
libdigikamcore.so.7.3.0:_ZN7Digikam16ImageGuideWidget16updateMaskCursorEv
libdigikamcore.so.7.3.0:_ZN7Digikam16ImageGuideWidget17mouseReleaseEventEP11QMouseEvent
libdigikamcore.so.7.3.0:_ZN7Digikam16ImageGuideWidget17resetSpotPositionEv
libdigikamcore.so.7.3.0:_ZN7Digikam16ImageGuideWidget18ICCSettingsChangedEv
libdigikamcore.so.7.3.0:_ZN7Digikam16ImageGuideWidget18setBackgroundColorERK6QColor
libdigikamcore.so.7.3.0:_ZN7Digikam16ImageGuideWidget18updateSpotPositionEii
libdigikamcore.so.7.3.0:_ZN7Digikam16ImageGuideWidget19slotChangeGuideSizeEi
libdigikamcore.so.7.3.0:_ZN7Digikam16ImageGuideWidget20slotChangeGuideColorERK6QColor
libdigikamcore.so.7.3.0:_ZN7Digikam16ImageGuideWidget22setSpotVisibleNoUpdateEb
libdigikamcore.so.7.3.0:_ZN7Digikam16ImageGuideWidget22slotPreviewModeChangedEi
libdigikamcore.so.7.3.0:_ZN7Digikam16ImageGuideWidget23exposureSettingsChangedEv
libdigikamcore.so.7.3.0:_ZN7Digikam16ImageGuideWidget29spotPositionChangedFromTargetERKNS_6DColorERK6QPoint
libdigikamcore.so.7.3.0:_ZN7Digikam16ImageGuideWidget31spotPositionChangedFromOriginalERKNS_6DColorERK6QPoint
libdigikamcore.so.7.3.0:_ZN7Digikam16ImageGuideWidget8drawTextEP8QPainterRK6QPointRK7QString
libdigikamcore.so.7.3.0:_ZN7Digikam16ImageGuideWidget9setPointsERK8QPolygonb
libdigikamcore.so.7.3.0:_ZN7Digikam16ImageGuideWidgetC1EP7QWidgetbiRK6QColoribNS_10ImageIface11PreviewTypeE
libdigikamcore.so.7.3.0:_ZN7Digikam16ImageGuideWidgetC2EP7QWidgetbiRK6QColoribNS_10ImageIface11PreviewTypeE
libdigikamcore.so.7.3.0:_ZN7Digikam16ImageGuideWidgetD0Ev
libdigikamcore.so.7.3.0:_ZN7Digikam16ImageGuideWidgetD1Ev
libdigikamcore.so.7.3.0:_ZN7Digikam16ImageGuideWidgetD2Ev
libdigikamcore.so.7.3.0:_ZN7Digikam16ImagePreviewItem11qt_metacallEN11QMetaObject4CallEiPPv
libdigikamcore.so.7.3.0:_ZN7Digikam16ImagePreviewItem11qt_metacastEPKc
libdigikamcore.so.7.3.0:_ZN7Digikam16ImagePreviewItem16staticMetaObjectE
libdigikamcore.so.7.3.0:_ZN7Digikam16ImagePreviewItem5paintEP8QPainterPK24QStyleOptionGraphicsItemP7QWidget
libdigikamcore.so.7.3.0:_ZN7Digikam16ImagePreviewItemC1Ev
libdigikamcore.so.7.3.0:_ZN7Digikam16ImagePreviewItemC2Ev
libdigikamcore.so.7.3.0:_ZN7Digikam16ImagePreviewItemD0Ev
libdigikamcore.so.7.3.0:_ZN7Digikam16ImagePreviewItemD1Ev
libdigikamcore.so.7.3.0:_ZN7Digikam16ImagePreviewItemD2Ev
libdigikamcore.so.7.3.0:_ZN7Digikam16ItemViewDelegate10asDelegateEv
libdigikamcore.so.7.3.0:_ZN7Digikam16ItemViewDelegate10mouseMovedEP11QMouseEventRK5QRectRK11QModelIndex
libdigikamcore.so.7.3.0:_ZN7Digikam16ItemViewDelegate10setSpacingEi
libdigikamcore.so.7.3.0:_ZN7Digikam16ItemViewDelegate11qt_metacallEN11QMetaObject4CallEiPPv
libdigikamcore.so.7.3.0:_ZN7Digikam16ItemViewDelegate11qt_metacastEPKc
libdigikamcore.so.7.3.0:_ZN7Digikam16ItemViewDelegate12prepareFontsEv
libdigikamcore.so.7.3.0:_ZN7Digikam16ItemViewDelegate14prepareMetricsEi
libdigikamcore.so.7.3.0:_ZN7Digikam16ItemViewDelegate15setRatingEditedERK11QModelIndex
libdigikamcore.so.7.3.0:_ZN7Digikam16ItemViewDelegate16hideNotificationEv
libdigikamcore.so.7.3.0:_ZN7Digikam16ItemViewDelegate16overlayDestroyedEP7QObject
libdigikamcore.so.7.3.0:_ZN7Digikam16ItemViewDelegate16setThumbnailSizeERKNS_13ThumbnailSizeE
libdigikamcore.so.7.3.0:_ZN7Digikam16ItemViewDelegate16slotSetupChangedEv
libdigikamcore.so.7.3.0:_ZN7Digikam16ItemViewDelegate16slotThemeChangedEv
libdigikamcore.so.7.3.0:_ZN7Digikam16ItemViewDelegate16staticMetaObjectE
libdigikamcore.so.7.3.0:_ZN7Digikam16ItemViewDelegate17prepareBackgroundEv
libdigikamcore.so.7.3.0:_ZN7Digikam16ItemViewDelegate19requestNotificationERK11QModelIndexRK7QString
libdigikamcore.so.7.3.0:_ZN7Digikam16ItemViewDelegate20prepareRatingPixmapsEb
libdigikamcore.so.7.3.0:_ZN7Digikam16ItemViewDelegate21setDefaultViewOptionsERK20QStyleOptionViewItem
libdigikamcore.so.7.3.0:_ZN7Digikam16ItemViewDelegate23invalidatePaintingCacheEv
libdigikamcore.so.7.3.0:_ZN7Digikam16ItemViewDelegateC1EP7QObject
libdigikamcore.so.7.3.0:_ZN7Digikam16ItemViewDelegateC1ERNS_23ItemViewDelegatePrivateEP7QObject
libdigikamcore.so.7.3.0:_ZN7Digikam16ItemViewDelegateC2EP7QObject
libdigikamcore.so.7.3.0:_ZN7Digikam16ItemViewDelegateC2ERNS_23ItemViewDelegatePrivateEP7QObject
libdigikamcore.so.7.3.0:_ZN7Digikam16ItemViewDelegateD0Ev
libdigikamcore.so.7.3.0:_ZN7Digikam16ItemViewDelegateD1Ev
libdigikamcore.so.7.3.0:_ZN7Digikam16ItemViewDelegateD2Ev
libdigikamcore.so.7.3.0:_ZN7Digikam16ListViewComboBox11installViewEP17QAbstractItemView
libdigikamcore.so.7.3.0:_ZN7Digikam16ListViewComboBox11qt_metacallEN11QMetaObject4CallEiPPv
libdigikamcore.so.7.3.0:_ZN7Digikam16ListViewComboBox11qt_metacastEPKc
libdigikamcore.so.7.3.0:_ZN7Digikam16ListViewComboBox16staticMetaObjectE
libdigikamcore.so.7.3.0:_ZN7Digikam16ListViewComboBox23sendViewportEventToViewEP6QEvent
libdigikamcore.so.7.3.0:_ZN7Digikam16ListViewComboBoxC1EP7QWidget
libdigikamcore.so.7.3.0:_ZN7Digikam16ListViewComboBoxC2EP7QWidget
libdigikamcore.so.7.3.0:_ZN7Digikam16LoadSaveNotifierC1Ev
libdigikamcore.so.7.3.0:_ZN7Digikam16LoadSaveNotifierC2Ev
libdigikamcore.so.7.3.0:_ZN7Digikam16LoadSaveNotifierD0Ev
libdigikamcore.so.7.3.0:_ZN7Digikam16LoadSaveNotifierD1Ev
libdigikamcore.so.7.3.0:_ZN7Digikam16LoadSaveNotifierD2Ev
libdigikamcore.so.7.3.0:_ZN7Digikam16MetadataListView10setIfdListERK4QMapI7QStringS2_ERK11QStringList
libdigikamcore.so.7.3.0:_ZN7Digikam16MetadataListView10setIfdListERK4QMapI7QStringS2_ERK11QStringListS8_
libdigikamcore.so.7.3.0:_ZN7Digikam16MetadataListView11qt_metacallEN11QMetaObject4CallEiPPv
libdigikamcore.so.7.3.0:_ZN7Digikam16MetadataListView11qt_metacastEPKc
libdigikamcore.so.7.3.0:_ZN7Digikam16MetadataListView13findMdKeyItemERK7QString
libdigikamcore.so.7.3.0:_ZN7Digikam16MetadataListView16cleanUpMdKeyItemEv
libdigikamcore.so.7.3.0:_ZN7Digikam16MetadataListView16staticMetaObjectE
libdigikamcore.so.7.3.0:_ZN7Digikam16MetadataListView19setCurrentItemByKeyERK7QString
libdigikamcore.so.7.3.0:_ZN7Digikam16MetadataListView20slotSelectionChangedEP15QTreeWidgetItemi
libdigikamcore.so.7.3.0:_ZN7Digikam16MetadataListView21signalTextFilterMatchEb
libdigikamcore.so.7.3.0:_ZN7Digikam16MetadataListView21slotSearchTextChangedERKNS_18SearchTextSettingsE
libdigikamcore.so.7.3.0:_ZN7Digikam16MetadataListViewC1EP7QWidget
libdigikamcore.so.7.3.0:_ZN7Digikam16MetadataListViewC2EP7QWidget
libdigikamcore.so.7.3.0:_ZN7Digikam16MetadataListViewD0Ev
libdigikamcore.so.7.3.0:_ZN7Digikam16MetadataListViewD1Ev
libdigikamcore.so.7.3.0:_ZN7Digikam16MetadataListViewD2Ev
libdigikamcore.so.7.3.0:_ZN7Digikam16MetadataSelector10setTagsMapERK4QMapI7QString11QStringListE
libdigikamcore.so.7.3.0:_ZN7Digikam16MetadataSelector11qt_metacallEN11QMetaObject4CallEiPPv
libdigikamcore.so.7.3.0:_ZN7Digikam16MetadataSelector11qt_metacastEPKc
libdigikamcore.so.7.3.0:_ZN7Digikam16MetadataSelector14clearSelectionEv
libdigikamcore.so.7.3.0:_ZN7Digikam16MetadataSelector15checkedTagsListEv
libdigikamcore.so.7.3.0:_ZN7Digikam16MetadataSelector16staticMetaObjectE
libdigikamcore.so.7.3.0:_ZN7Digikam16MetadataSelector18setcheckedTagsListERK11QStringList
libdigikamcore.so.7.3.0:_ZN7Digikam16MetadataSelector9selectAllEv
libdigikamcore.so.7.3.0:_ZN7Digikam16MetadataSelectorC1EPNS_20MetadataSelectorViewE
libdigikamcore.so.7.3.0:_ZN7Digikam16MetadataSelectorC2EPNS_20MetadataSelectorViewE
libdigikamcore.so.7.3.0:_ZN7Digikam16MetadataSelectorD0Ev
libdigikamcore.so.7.3.0:_ZN7Digikam16MetadataSelectorD1Ev
libdigikamcore.so.7.3.0:_ZN7Digikam16MetadataSelectorD2Ev
libdigikamcore.so.7.3.0:_ZN7Digikam16OnlineVersionDlg11qt_metacallEN11QMetaObject4CallEiPPv
libdigikamcore.so.7.3.0:_ZN7Digikam16OnlineVersionDlg11qt_metacastEPKc
libdigikamcore.so.7.3.0:_ZN7Digikam16OnlineVersionDlg15slotSetupUpdateEv
libdigikamcore.so.7.3.0:_ZN7Digikam16OnlineVersionDlg15slotUpdateStatsEv
libdigikamcore.so.7.3.0:_ZN7Digikam16OnlineVersionDlg16slotRunInstallerEv
libdigikamcore.so.7.3.0:_ZN7Digikam16OnlineVersionDlg16staticMetaObjectE
libdigikamcore.so.7.3.0:_ZN7Digikam16OnlineVersionDlg17signalSetupUpdateEv
libdigikamcore.so.7.3.0:_ZN7Digikam16OnlineVersionDlg17slotDownloadErrorERK7QString
libdigikamcore.so.7.3.0:_ZN7Digikam16OnlineVersionDlg19slotComputeChecksumEv
libdigikamcore.so.7.3.0:_ZN7Digikam16OnlineVersionDlg20slotDownloadProgressExx
libdigikamcore.so.7.3.0:_ZN7Digikam16OnlineVersionDlg20slotReleaseNotesDataERK7QString
libdigikamcore.so.7.3.0:_ZN7Digikam16OnlineVersionDlg21slotDownloadInstallerEv
libdigikamcore.so.7.3.0:_ZN7Digikam16OnlineVersionDlg21slotOpenInFileManagerEv
libdigikamcore.so.7.3.0:_ZN7Digikam16OnlineVersionDlg23slotNewVersionAvailableERK7QString
libdigikamcore.so.7.3.0:_ZN7Digikam16OnlineVersionDlg24slotNewVersionCheckErrorERK7QString
libdigikamcore.so.7.3.0:_ZN7Digikam16OnlineVersionDlg8slotHelpEv
libdigikamcore.so.7.3.0:_ZN7Digikam16OnlineVersionDlgC1EP7QWidgetRK7QStringRK9QDateTimebb
libdigikamcore.so.7.3.0:_ZN7Digikam16OnlineVersionDlgC2EP7QWidgetRK7QStringRK9QDateTimebb
libdigikamcore.so.7.3.0:_ZN7Digikam16OnlineVersionDlgD0Ev
libdigikamcore.so.7.3.0:_ZN7Digikam16OnlineVersionDlgD1Ev
libdigikamcore.so.7.3.0:_ZN7Digikam16OnlineVersionDlgD2Ev
libdigikamcore.so.7.3.0:_ZN7Digikam16RatingMenuAction11qt_metacallEN11QMetaObject4CallEiPPv
libdigikamcore.so.7.3.0:_ZN7Digikam16RatingMenuAction11qt_metacastEPKc
libdigikamcore.so.7.3.0:_ZN7Digikam16RatingMenuAction16staticMetaObjectE
libdigikamcore.so.7.3.0:_ZN7Digikam16RatingMenuAction19signalRatingChangedEi
libdigikamcore.so.7.3.0:_ZN7Digikam16RatingMenuActionC1EP5QMenu
libdigikamcore.so.7.3.0:_ZN7Digikam16RatingMenuActionC2EP5QMenu
libdigikamcore.so.7.3.0:_ZN7Digikam16RatingMenuActionD0Ev
libdigikamcore.so.7.3.0:_ZN7Digikam16RatingMenuActionD1Ev
libdigikamcore.so.7.3.0:_ZN7Digikam16RatingMenuActionD2Ev
libdigikamcore.so.7.3.0:_ZN7Digikam16SetupEditorIface11qt_metacallEN11QMetaObject4CallEiPPv
libdigikamcore.so.7.3.0:_ZN7Digikam16SetupEditorIface11qt_metacastEPKc
libdigikamcore.so.7.3.0:_ZN7Digikam16SetupEditorIface12readSettingsEv
libdigikamcore.so.7.3.0:_ZN7Digikam16SetupEditorIface13applySettingsEv
libdigikamcore.so.7.3.0:_ZN7Digikam16SetupEditorIface16staticMetaObjectE
libdigikamcore.so.7.3.0:_ZN7Digikam16SetupEditorIface23slotExpoSettingsChangedEv
libdigikamcore.so.7.3.0:_ZN7Digikam16SetupEditorIface24slotThemeBackgroundColorEb
libdigikamcore.so.7.3.0:_ZN7Digikam16SetupEditorIface30slotShowOverExpoHistogramGuideEd
libdigikamcore.so.7.3.0:_ZN7Digikam16SetupEditorIface31slotShowUnderExpoHistogramGuideEd
libdigikamcore.so.7.3.0:_ZN7Digikam16SetupEditorIfaceC1EP7QWidget
libdigikamcore.so.7.3.0:_ZN7Digikam16SetupEditorIfaceC2EP7QWidget
libdigikamcore.so.7.3.0:_ZN7Digikam16SetupEditorIfaceD0Ev
libdigikamcore.so.7.3.0:_ZN7Digikam16SetupEditorIfaceD1Ev
libdigikamcore.so.7.3.0:_ZN7Digikam16SetupEditorIfaceD2Ev
libdigikamcore.so.7.3.0:_ZN7Digikam16SolidHardwareDlg11qt_metacallEN11QMetaObject4CallEiPPv
libdigikamcore.so.7.3.0:_ZN7Digikam16SolidHardwareDlg11qt_metacastEPKc
libdigikamcore.so.7.3.0:_ZN7Digikam16SolidHardwareDlg15slotDeviceAddedERK7QString
libdigikamcore.so.7.3.0:_ZN7Digikam16SolidHardwareDlg16staticMetaObjectE
libdigikamcore.so.7.3.0:_ZN7Digikam16SolidHardwareDlg17slotDeviceRemovedERK7QString
libdigikamcore.so.7.3.0:_ZN7Digikam16SolidHardwareDlg18slotCopy2ClipBoardEv
libdigikamcore.so.7.3.0:_ZN7Digikam16SolidHardwareDlg19slotPopulateDevicesEv
libdigikamcore.so.7.3.0:_ZN7Digikam16SolidHardwareDlg21slotSearchTextChangedERKNS_18SearchTextSettingsE
libdigikamcore.so.7.3.0:_ZN7Digikam16SolidHardwareDlgC1EP7QWidget
libdigikamcore.so.7.3.0:_ZN7Digikam16SolidHardwareDlgC2EP7QWidget
libdigikamcore.so.7.3.0:_ZN7Digikam16SolidHardwareDlgD0Ev
libdigikamcore.so.7.3.0:_ZN7Digikam16SolidHardwareDlgD1Ev
libdigikamcore.so.7.3.0:_ZN7Digikam16SolidHardwareDlgD2Ev
libdigikamcore.so.7.3.0:_ZN7Digikam16SqueezedComboBox10setCurrentERK7QString
libdigikamcore.so.7.3.0:_ZN7Digikam16SqueezedComboBox11qt_metacallEN11QMetaObject4CallEiPPv
libdigikamcore.so.7.3.0:_ZN7Digikam16SqueezedComboBox11qt_metacastEPKc
libdigikamcore.so.7.3.0:_ZN7Digikam16SqueezedComboBox11resizeEventEP12QResizeEvent
libdigikamcore.so.7.3.0:_ZN7Digikam16SqueezedComboBox11slotTimeOutEv
libdigikamcore.so.7.3.0:_ZN7Digikam16SqueezedComboBox15addSqueezedItemERK7QStringRK8QVariant
libdigikamcore.so.7.3.0:_ZN7Digikam16SqueezedComboBox16staticMetaObjectE
libdigikamcore.so.7.3.0:_ZN7Digikam16SqueezedComboBox17slotUpdateToolTipEi
libdigikamcore.so.7.3.0:_ZN7Digikam16SqueezedComboBox18insertSqueezedItemERK7QStringiRK8QVariant
libdigikamcore.so.7.3.0:_ZN7Digikam16SqueezedComboBox18insertSqueezedListERK11QStringListi
libdigikamcore.so.7.3.0:_ZN7Digikam16SqueezedComboBoxC1EP7QWidgetPKc
libdigikamcore.so.7.3.0:_ZN7Digikam16SqueezedComboBoxC2EP7QWidgetPKc
libdigikamcore.so.7.3.0:_ZN7Digikam16SqueezedComboBoxD0Ev
libdigikamcore.so.7.3.0:_ZN7Digikam16SqueezedComboBoxD1Ev
libdigikamcore.so.7.3.0:_ZN7Digikam16SqueezedComboBoxD2Ev
libdigikamcore.so.7.3.0:_ZN7Digikam16TextureContainer14getTexturePathEi
libdigikamcore.so.7.3.0:_ZN7Digikam16TextureContainerC1Ev
libdigikamcore.so.7.3.0:_ZN7Digikam16TextureContainerC2Ev
libdigikamcore.so.7.3.0:_ZN7Digikam16TextureContainerD1Ev
libdigikamcore.so.7.3.0:_ZN7Digikam16TextureContainerD2Ev
libdigikamcore.so.7.3.0:_ZN7Digikam16ThumbnailCreator10initializeEv
libdigikamcore.so.7.3.0:_ZN7Digikam16ThumbnailCreator12thumbnailUriERK7QString
libdigikamcore.so.7.3.0:_ZN7Digikam16ThumbnailCreator13setExifRotateEb
libdigikamcore.so.7.3.0:_ZN7Digikam16ThumbnailCreator13thumbnailPathERK7QStringS3_
libdigikamcore.so.7.3.0:_ZN7Digikam16ThumbnailCreator16setThumbnailSizeEi
libdigikamcore.so.7.3.0:_ZN7Digikam16ThumbnailCreator17fileThumbnailInfoERK7QString
libdigikamcore.so.7.3.0:_ZN7Digikam16ThumbnailCreator17initThumbnailDirsEv
libdigikamcore.so.7.3.0:_ZN7Digikam16ThumbnailCreator17largeThumbnailDirEv
libdigikamcore.so.7.3.0:_ZN7Digikam16ThumbnailCreator18normalThumbnailDirEv
libdigikamcore.so.7.3.0:_ZN7Digikam16ThumbnailCreator19identifierForDetailERKNS_13ThumbnailInfoERK5QRect
libdigikamcore.so.7.3.0:_ZN7Digikam16ThumbnailCreator20setLoadingPropertiesEPNS_18DImgLoaderObserverERKNS_12DRawDecodingE
libdigikamcore.so.7.3.0:_ZN7Digikam16ThumbnailCreator20thumbnailPathFromUriERK7QStringS3_
libdigikamcore.so.7.3.0:_ZN7Digikam16ThumbnailCreator21setRemoveAlphaChannelEb
libdigikamcore.so.7.3.0:_ZN7Digikam16ThumbnailCreator22setOnlyLargeThumbnailsEb
libdigikamcore.so.7.3.0:_ZN7Digikam16ThumbnailCreator24setThumbnailInfoProviderEPNS_21ThumbnailInfoProviderE
libdigikamcore.so.7.3.0:_ZN7Digikam16ThumbnailCreatorC1ENS0_13StorageMethodE
libdigikamcore.so.7.3.0:_ZN7Digikam16ThumbnailCreatorC1EiNS0_13StorageMethodE
libdigikamcore.so.7.3.0:_ZN7Digikam16ThumbnailCreatorC2ENS0_13StorageMethodE
libdigikamcore.so.7.3.0:_ZN7Digikam16ThumbnailCreatorC2EiNS0_13StorageMethodE
libdigikamcore.so.7.3.0:_ZN7Digikam16ThumbnailCreatorD1Ev
libdigikamcore.so.7.3.0:_ZN7Digikam16ThumbnailCreatorD2Ev
libdigikamcore.so.7.3.0:_ZN7Digikam16TimeZoneComboBox11qt_metacallEN11QMetaObject4CallEiPPv
libdigikamcore.so.7.3.0:_ZN7Digikam16TimeZoneComboBox11qt_metacastEPKc
libdigikamcore.so.7.3.0:_ZN7Digikam16TimeZoneComboBox11setTimeZoneERK7QString
libdigikamcore.so.7.3.0:_ZN7Digikam16TimeZoneComboBox16staticMetaObjectE
libdigikamcore.so.7.3.0:_ZN7Digikam16TimeZoneComboBox8setToUTCEv
libdigikamcore.so.7.3.0:_ZN7Digikam16TimeZoneComboBoxC1EP7QWidget
libdigikamcore.so.7.3.0:_ZN7Digikam16TimeZoneComboBoxC2EP7QWidget
libdigikamcore.so.7.3.0:_ZN7Digikam16TimeZoneComboBoxD0Ev
libdigikamcore.so.7.3.0:_ZN7Digikam16TimeZoneComboBoxD1Ev
libdigikamcore.so.7.3.0:_ZN7Digikam16TimeZoneComboBoxD2Ev
libdigikamcore.so.7.3.0:_ZN7Digikam16TreeViewComboBox11installViewEP17QAbstractItemView
libdigikamcore.so.7.3.0:_ZN7Digikam16TreeViewComboBox11qt_metacallEN11QMetaObject4CallEiPPv
libdigikamcore.so.7.3.0:_ZN7Digikam16TreeViewComboBox11qt_metacastEPKc
libdigikamcore.so.7.3.0:_ZN7Digikam16TreeViewComboBox16staticMetaObjectE
libdigikamcore.so.7.3.0:_ZN7Digikam16TreeViewComboBox23sendViewportEventToViewEP6QEvent
libdigikamcore.so.7.3.0:_ZN7Digikam16TreeViewComboBoxC1EP7QWidget
libdigikamcore.so.7.3.0:_ZN7Digikam16TreeViewComboBoxC2EP7QWidget
libdigikamcore.so.7.3.0:_ZN7Digikam16WSNewAlbumDialog11qt_metacallEN11QMetaObject4CallEiPPv
libdigikamcore.so.7.3.0:_ZN7Digikam16WSNewAlbumDialog11qt_metacastEPKc
libdigikamcore.so.7.3.0:_ZN7Digikam16WSNewAlbumDialog12hideDateTimeEv
libdigikamcore.so.7.3.0:_ZN7Digikam16WSNewAlbumDialog12hideLocationEv
libdigikamcore.so.7.3.0:_ZN7Digikam16WSNewAlbumDialog15addToMainLayoutEP7QWidget
libdigikamcore.so.7.3.0:_ZN7Digikam16WSNewAlbumDialog15slotTextChangedERK7QString
libdigikamcore.so.7.3.0:_ZN7Digikam16WSNewAlbumDialog16staticMetaObjectE
libdigikamcore.so.7.3.0:_ZN7Digikam16WSNewAlbumDialog22getBaseAlbumPropertiesERNS_7WSAlbumE
libdigikamcore.so.7.3.0:_ZN7Digikam16WSNewAlbumDialog8hideDescEv
libdigikamcore.so.7.3.0:_ZN7Digikam16WSNewAlbumDialogC1EP7QWidgetRK7QString
libdigikamcore.so.7.3.0:_ZN7Digikam16WSNewAlbumDialogC2EP7QWidgetRK7QString
libdigikamcore.so.7.3.0:_ZN7Digikam16WSNewAlbumDialogD0Ev
libdigikamcore.so.7.3.0:_ZN7Digikam16WSNewAlbumDialogD1Ev
libdigikamcore.so.7.3.0:_ZN7Digikam16WSNewAlbumDialogD2Ev
libdigikamcore.so.7.3.0:_ZN7Digikam16WSSettingsWidget11qt_metacallEN11QMetaObject4CallEiPPv
libdigikamcore.so.7.3.0:_ZN7Digikam16WSSettingsWidget11qt_metacastEPKc
libdigikamcore.so.7.3.0:_ZN7Digikam16WSSettingsWidget16replaceImageListEP7QWidget
libdigikamcore.so.7.3.0:_ZN7Digikam16WSSettingsWidget16staticMetaObjectE
libdigikamcore.so.7.3.0:_ZN7Digikam16WSSettingsWidget17slotResizeCheckedEv
libdigikamcore.so.7.3.0:_ZN7Digikam16WSSettingsWidget22addWidgetToSettingsBoxEP7QWidget
libdigikamcore.so.7.3.0:_ZN7Digikam16WSSettingsWidgetC1EP7QWidgetPNS_14DInfoInterfaceERK7QString
libdigikamcore.so.7.3.0:_ZN7Digikam16WSSettingsWidgetC2EP7QWidgetPNS_14DInfoInterfaceERK7QString
libdigikamcore.so.7.3.0:_ZN7Digikam16WSSettingsWidgetD0Ev
libdigikamcore.so.7.3.0:_ZN7Digikam16WSSettingsWidgetD1Ev
libdigikamcore.so.7.3.0:_ZN7Digikam16WSSettingsWidgetD2Ev
libdigikamcore.so.7.3.0:_ZN7Digikam16digiKamBuildDateEv
libdigikamcore.so.7.3.0:_ZN7Digikam16getUserAgentNameEv
libdigikamcore.so.7.3.0:_ZN7Digikam17AddBookmarkDialog11qt_metacallEN11QMetaObject4CallEiPPv
libdigikamcore.so.7.3.0:_ZN7Digikam17AddBookmarkDialog11qt_metacastEPKc
libdigikamcore.so.7.3.0:_ZN7Digikam17AddBookmarkDialog16staticMetaObjectE
libdigikamcore.so.7.3.0:_ZN7Digikam17AddBookmarkDialog6acceptEv
libdigikamcore.so.7.3.0:_ZN7Digikam17AddBookmarkDialogC1ERK7QStringS3_P7QWidgetPNS_16BookmarksManagerE
libdigikamcore.so.7.3.0:_ZN7Digikam17AddBookmarkDialogC2ERK7QStringS3_P7QWidgetPNS_16BookmarksManagerE
libdigikamcore.so.7.3.0:_ZN7Digikam17AddBookmarkDialogD0Ev
libdigikamcore.so.7.3.0:_ZN7Digikam17AddBookmarkDialogD1Ev
libdigikamcore.so.7.3.0:_ZN7Digikam17AddBookmarkDialogD2Ev
libdigikamcore.so.7.3.0:_ZN7Digikam17BackendGeonamesRG11backendNameEv
libdigikamcore.so.7.3.0:_ZN7Digikam17BackendGeonamesRG11qt_metacallEN11QMetaObject4CallEiPPv
libdigikamcore.so.7.3.0:_ZN7Digikam17BackendGeonamesRG11qt_metacastEPKc
libdigikamcore.so.7.3.0:_ZN7Digikam17BackendGeonamesRG12slotFinishedEP13QNetworkReply
libdigikamcore.so.7.3.0:_ZN7Digikam17BackendGeonamesRG13callRGBackendERK5QListINS_6RGInfoEERK7QString
libdigikamcore.so.7.3.0:_ZN7Digikam17BackendGeonamesRG14cancelRequestsEv
libdigikamcore.so.7.3.0:_ZN7Digikam17BackendGeonamesRG15getErrorMessageEv
libdigikamcore.so.7.3.0:_ZN7Digikam17BackendGeonamesRG15makeQMapFromXMLERK7QString
libdigikamcore.so.7.3.0:_ZN7Digikam17BackendGeonamesRG16staticMetaObjectE
libdigikamcore.so.7.3.0:_ZN7Digikam17BackendGeonamesRG9nextPhotoEv
libdigikamcore.so.7.3.0:_ZN7Digikam17BackendGeonamesRGC1EP7QObject
libdigikamcore.so.7.3.0:_ZN7Digikam17BackendGeonamesRGC2EP7QObject
libdigikamcore.so.7.3.0:_ZN7Digikam17BackendGeonamesRGD0Ev
libdigikamcore.so.7.3.0:_ZN7Digikam17BackendGeonamesRGD1Ev
libdigikamcore.so.7.3.0:_ZN7Digikam17BackendGeonamesRGD2Ev
libdigikamcore.so.7.3.0:_ZN7Digikam17BackendGoogleMaps10setMapTypeERK7QString
libdigikamcore.so.7.3.0:_ZN7Digikam17BackendGoogleMaps11eventFilterEP7QObjectP6QEvent
libdigikamcore.so.7.3.0:_ZN7Digikam17BackendGoogleMaps11qt_metacallEN11QMetaObject4CallEiPPv
libdigikamcore.so.7.3.0:_ZN7Digikam17BackendGoogleMaps11qt_metacastEPKc
libdigikamcore.so.7.3.0:_ZN7Digikam17BackendGoogleMaps13createActionsEv
libdigikamcore.so.7.3.0:_ZN7Digikam17BackendGoogleMaps13releaseWidgetEPNS_26GeoIfaceInternalWidgetInfoE
libdigikamcore.so.7.3.0:_ZN7Digikam17BackendGoogleMaps13updateMarkersEv
libdigikamcore.so.7.3.0:_ZN7Digikam17BackendGoogleMaps14slotHTMLEventsERK11QStringList
libdigikamcore.so.7.3.0:_ZN7Digikam17BackendGoogleMaps14updateClustersEv
libdigikamcore.so.7.3.0:_ZN7Digikam17BackendGoogleMaps15mapWidgetDockedEb
libdigikamcore.so.7.3.0:_ZN7Digikam17BackendGoogleMaps15setMarkerPixmapEiiRK6QPointRK5QSizeRK4QUrl
libdigikamcore.so.7.3.0:_ZN7Digikam17BackendGoogleMaps15setMarkerPixmapEiiRK6QPointRK7QPixmap
libdigikamcore.so.7.3.0:_ZN7Digikam17BackendGoogleMaps16addPointsToTrackEyRK5QListINS_12TrackManager10TrackPointEEii
libdigikamcore.so.7.3.0:_ZN7Digikam17BackendGoogleMaps16mouseModeChangedEv
libdigikamcore.so.7.3.0:_ZN7Digikam17BackendGoogleMaps16setClusterPixmapEiRK6QPointRK7QPixmap
libdigikamcore.so.7.3.0:_ZN7Digikam17BackendGoogleMaps16staticMetaObjectE
libdigikamcore.so.7.3.0:_ZN7Digikam17BackendGoogleMaps17screenCoordinatesERKNS_14GeoCoordinatesEP6QPoint
libdigikamcore.so.7.3.0:_ZN7Digikam17BackendGoogleMaps17slotTracksChangedERK5QListI5QPairIjNS_12TrackManager10ChangeFlagEEE
libdigikamcore.so.7.3.0:_ZN7Digikam17BackendGoogleMaps17storeTrackChangesE5QPairIjNS_12TrackManager10ChangeFlagEE
libdigikamcore.so.7.3.0:_ZN7Digikam17BackendGoogleMaps18deleteInfoFunctionEPNS_26GeoIfaceInternalWidgetInfoE
libdigikamcore.so.7.3.0:_ZN7Digikam17BackendGoogleMaps18slotSetCenterTimerEv
libdigikamcore.so.7.3.0:_ZN7Digikam17BackendGoogleMaps19getMarkerModelLevelEv
libdigikamcore.so.7.3.0:_ZN7Digikam17BackendGoogleMaps19getNormalizedBoundsEv
libdigikamcore.so.7.3.0:_ZN7Digikam17BackendGoogleMaps19saveSettingsToGroupEP12KConfigGroup
libdigikamcore.so.7.3.0:_ZN7Digikam17BackendGoogleMaps19setShowScaleControlEb
libdigikamcore.so.7.3.0:_ZN7Digikam17BackendGoogleMaps19slotHTMLInitializedEv
libdigikamcore.so.7.3.0:_ZN7Digikam17BackendGoogleMaps21readSettingsFromGroupEPK12KConfigGroup
libdigikamcore.so.7.3.0:_ZN7Digikam17BackendGoogleMaps21setShowMapTypeControlEb
libdigikamcore.so.7.3.0:_ZN7Digikam17BackendGoogleMaps21updateZoomMinMaxCacheEv
libdigikamcore.so.7.3.0:_ZN7Digikam17BackendGoogleMaps22regionSelectionChangedEv
libdigikamcore.so.7.3.0:_ZN7Digikam17BackendGoogleMaps23slotTrackManagerChangedEv
libdigikamcore.so.7.3.0:_ZN7Digikam17BackendGoogleMaps24setShowNavigationControlEb
libdigikamcore.so.7.3.0:_ZN7Digikam17BackendGoogleMaps24slotClustersNeedUpdatingEv
libdigikamcore.so.7.3.0:_ZN7Digikam17BackendGoogleMaps24slotSelectionHasBeenMadeERK5QPairINS_14GeoCoordinatesES2_E
libdigikamcore.so.7.3.0:_ZN7Digikam17BackendGoogleMaps24updateActionAvailabilityEv
libdigikamcore.so.7.3.0:_ZN7Digikam17BackendGoogleMaps25slotUngroupedModelChangedEi
libdigikamcore.so.7.3.0:_ZN7Digikam17BackendGoogleMaps26slotFloatSettingsTriggeredEP7QAction
libdigikamcore.so.7.3.0:_ZN7Digikam17BackendGoogleMaps26slotMapTypeActionTriggeredEP7QAction
libdigikamcore.so.7.3.0:_ZN7Digikam17BackendGoogleMaps26slotTrackVisibilityChangedEb
libdigikamcore.so.7.3.0:_ZN7Digikam17BackendGoogleMaps29addActionsToConfigurationMenuEP5QMenu
libdigikamcore.so.7.3.0:_ZN7Digikam17BackendGoogleMaps30slotThumbnailAvailableForIndexERK8QVariantRK7QPixmap
libdigikamcore.so.7.3.0:_ZN7Digikam17BackendGoogleMaps6zoomInEv
libdigikamcore.so.7.3.0:_ZN7Digikam17BackendGoogleMaps7setZoomERK7QString
libdigikamcore.so.7.3.0:_ZN7Digikam17BackendGoogleMaps7zoomOutEv
libdigikamcore.so.7.3.0:_ZN7Digikam17BackendGoogleMaps8centerOnERKN6Marble16GeoDataLatLonBoxEb
libdigikamcore.so.7.3.0:_ZN7Digikam17BackendGoogleMaps9mapWidgetEv
libdigikamcore.so.7.3.0:_ZN7Digikam17BackendGoogleMaps9setActiveEb
libdigikamcore.so.7.3.0:_ZN7Digikam17BackendGoogleMaps9setCenterERKNS_14GeoCoordinatesE
libdigikamcore.so.7.3.0:_ZN7Digikam17BackendGoogleMapsC1ERK28QExplicitlySharedDataPointerINS_18GeoIfaceSharedDataEEP7QObject
libdigikamcore.so.7.3.0:_ZN7Digikam17BackendGoogleMapsC2ERK28QExplicitlySharedDataPointerINS_18GeoIfaceSharedDataEEP7QObject
libdigikamcore.so.7.3.0:_ZN7Digikam17BackendGoogleMapsD0Ev
libdigikamcore.so.7.3.0:_ZN7Digikam17BackendGoogleMapsD1Ev
libdigikamcore.so.7.3.0:_ZN7Digikam17BackendGoogleMapsD2Ev
libdigikamcore.so.7.3.0:_ZN7Digikam17BlackFrameToolTip11qt_metacallEN11QMetaObject4CallEiPPv
libdigikamcore.so.7.3.0:_ZN7Digikam17BlackFrameToolTip11qt_metacastEPKc
libdigikamcore.so.7.3.0:_ZN7Digikam17BlackFrameToolTip11tipContentsEv
libdigikamcore.so.7.3.0:_ZN7Digikam17BlackFrameToolTip14repositionRectEv
libdigikamcore.so.7.3.0:_ZN7Digikam17BlackFrameToolTip16setToolTipStringERK7QString
libdigikamcore.so.7.3.0:_ZN7Digikam17BlackFrameToolTip16staticMetaObjectE
libdigikamcore.so.7.3.0:_ZN7Digikam17BlackFrameToolTip4showEv
libdigikamcore.so.7.3.0:_ZN7Digikam17BlackFrameToolTip7setItemEP15QTreeWidgetItem
libdigikamcore.so.7.3.0:_ZN7Digikam17BlackFrameToolTipC1EP11QTreeWidget
libdigikamcore.so.7.3.0:_ZN7Digikam17BlackFrameToolTipC2EP11QTreeWidget
libdigikamcore.so.7.3.0:_ZN7Digikam17BlackFrameToolTipD0Ev
libdigikamcore.so.7.3.0:_ZN7Digikam17BlackFrameToolTipD1Ev
libdigikamcore.so.7.3.0:_ZN7Digikam17BlackFrameToolTipD2Ev
libdigikamcore.so.7.3.0:_ZN7Digikam17DConfigDlgWdgItem10setCheckedEb
libdigikamcore.so.7.3.0:_ZN7Digikam17DConfigDlgWdgItem10setEnabledEb
libdigikamcore.so.7.3.0:_ZN7Digikam17DConfigDlgWdgItem11qt_metacallEN11QMetaObject4CallEiPPv
libdigikamcore.so.7.3.0:_ZN7Digikam17DConfigDlgWdgItem11qt_metacastEPKc
libdigikamcore.so.7.3.0:_ZN7Digikam17DConfigDlgWdgItem12setCheckableEb
libdigikamcore.so.7.3.0:_ZN7Digikam17DConfigDlgWdgItem16staticMetaObjectE
libdigikamcore.so.7.3.0:_ZN7Digikam17DConfigDlgWdgItem7changedEv
libdigikamcore.so.7.3.0:_ZN7Digikam17DConfigDlgWdgItem7setIconERK5QIcon
libdigikamcore.so.7.3.0:_ZN7Digikam17DConfigDlgWdgItem7setNameERK7QString
libdigikamcore.so.7.3.0:_ZN7Digikam17DConfigDlgWdgItem7toggledEb
libdigikamcore.so.7.3.0:_ZN7Digikam17DConfigDlgWdgItem9setHeaderERK7QString
libdigikamcore.so.7.3.0:_ZN7Digikam17DConfigDlgWdgItemC1EP7QWidget
libdigikamcore.so.7.3.0:_ZN7Digikam17DConfigDlgWdgItemC1EP7QWidgetRK7QString
libdigikamcore.so.7.3.0:_ZN7Digikam17DConfigDlgWdgItemC2EP7QWidget
libdigikamcore.so.7.3.0:_ZN7Digikam17DConfigDlgWdgItemC2EP7QWidgetRK7QString
libdigikamcore.so.7.3.0:_ZN7Digikam17DConfigDlgWdgItemD0Ev
libdigikamcore.so.7.3.0:_ZN7Digikam17DConfigDlgWdgItemD1Ev
libdigikamcore.so.7.3.0:_ZN7Digikam17DConfigDlgWdgItemD2Ev
libdigikamcore.so.7.3.0:_ZN7Digikam17DFileIconProviderC1Ev
libdigikamcore.so.7.3.0:_ZN7Digikam17DFileIconProviderC2Ev
libdigikamcore.so.7.3.0:_ZN7Digikam17DFileIconProviderD0Ev
libdigikamcore.so.7.3.0:_ZN7Digikam17DFileIconProviderD1Ev
libdigikamcore.so.7.3.0:_ZN7Digikam17DFileIconProviderD2Ev
libdigikamcore.so.7.3.0:_ZN7Digikam17DImgBuiltinFilter10filterIconERK7QString
libdigikamcore.so.7.3.0:_ZN7Digikam17DImgBuiltinFilter11isSupportedERK7QString
libdigikamcore.so.7.3.0:_ZN7Digikam17DImgBuiltinFilter11isSupportedERK7QStringi
libdigikamcore.so.7.3.0:_ZN7Digikam17DImgBuiltinFilter16supportedFiltersEv
libdigikamcore.so.7.3.0:_ZN7Digikam17DImgBuiltinFilter17supportedVersionsERK7QString
libdigikamcore.so.7.3.0:_ZN7Digikam17DImgBuiltinFilter19i18nDisplayableNameERK7QString
libdigikamcore.so.7.3.0:_ZN7Digikam17DImgBuiltinFilter9setActionENS0_4TypeERK8QVariant
libdigikamcore.so.7.3.0:_ZN7Digikam17DImgBuiltinFilter9setActionERKNS_12FilterActionE
libdigikamcore.so.7.3.0:_ZN7Digikam17DImgBuiltinFilterC1ENS0_4TypeERK8QVariant
libdigikamcore.so.7.3.0:_ZN7Digikam17DImgBuiltinFilterC1ERKNS_12FilterActionE
libdigikamcore.so.7.3.0:_ZN7Digikam17DImgBuiltinFilterC1Ev
libdigikamcore.so.7.3.0:_ZN7Digikam17DImgBuiltinFilterC2ENS0_4TypeERK8QVariant
libdigikamcore.so.7.3.0:_ZN7Digikam17DImgBuiltinFilterC2ERKNS_12FilterActionE
libdigikamcore.so.7.3.0:_ZN7Digikam17DImgBuiltinFilterC2Ev
libdigikamcore.so.7.3.0:_ZN7Digikam17DImgFilterManager10filterIconERK7QString
libdigikamcore.so.7.3.0:_ZN7Digikam17DImgFilterManager10filterIconERKNS_12FilterActionE
libdigikamcore.so.7.3.0:_ZN7Digikam17DImgFilterManager11isSupportedERK7QString
libdigikamcore.so.7.3.0:_ZN7Digikam17DImgFilterManager11isSupportedERK7QStringi
libdigikamcore.so.7.3.0:_ZN7Digikam17DImgFilterManager12addGeneratorEPNS_19DImgFilterGeneratorE
libdigikamcore.so.7.3.0:_ZN7Digikam17DImgFilterManager12createFilterERK7QStringi
libdigikamcore.so.7.3.0:_ZN7Digikam17DImgFilterManager15displayableNameERK7QString
libdigikamcore.so.7.3.0:_ZN7Digikam17DImgFilterManager15isRawConversionERK7QString
libdigikamcore.so.7.3.0:_ZN7Digikam17DImgFilterManager15removeGeneratorEPNS_19DImgFilterGeneratorE
libdigikamcore.so.7.3.0:_ZN7Digikam17DImgFilterManager16supportedFiltersEv
libdigikamcore.so.7.3.0:_ZN7Digikam17DImgFilterManager17supportedVersionsERK7QString
libdigikamcore.so.7.3.0:_ZN7Digikam17DImgFilterManager19i18nDisplayableNameERK7QString
libdigikamcore.so.7.3.0:_ZN7Digikam17DImgFilterManager19i18nDisplayableNameERKNS_12FilterActionE
libdigikamcore.so.7.3.0:_ZN7Digikam17DImgFilterManager8instanceEv
libdigikamcore.so.7.3.0:_ZN7Digikam17DImgFilterManagerC1Ev
libdigikamcore.so.7.3.0:_ZN7Digikam17DImgFilterManagerC2Ev
libdigikamcore.so.7.3.0:_ZN7Digikam17DImgFilterManagerD0Ev
libdigikamcore.so.7.3.0:_ZN7Digikam17DImgFilterManagerD1Ev
libdigikamcore.so.7.3.0:_ZN7Digikam17DImgFilterManagerD2Ev
libdigikamcore.so.7.3.0:_ZN7Digikam17DMetadataSettings11qt_metacallEN11QMetaObject4CallEiPPv
libdigikamcore.so.7.3.0:_ZN7Digikam17DMetadataSettings11qt_metacastEPKc
libdigikamcore.so.7.3.0:_ZN7Digikam17DMetadataSettings11setSettingsERKNS_26DMetadataSettingsContainerE
libdigikamcore.so.7.3.0:_ZN7Digikam17DMetadataSettings14readFromConfigEv
libdigikamcore.so.7.3.0:_ZN7Digikam17DMetadataSettings16staticMetaObjectE
libdigikamcore.so.7.3.0:_ZN7Digikam17DMetadataSettings21signalSettingsChangedEv
libdigikamcore.so.7.3.0:_ZN7Digikam17DMetadataSettings30signalDMetadataSettingsChangedERKNS_26DMetadataSettingsContainerES3_
libdigikamcore.so.7.3.0:_ZN7Digikam17DMetadataSettings8instanceEv
libdigikamcore.so.7.3.0:_ZN7Digikam17DMetadataSettingsC1Ev
libdigikamcore.so.7.3.0:_ZN7Digikam17DMetadataSettingsC2Ev
libdigikamcore.so.7.3.0:_ZN7Digikam17DMetadataSettingsD0Ev
libdigikamcore.so.7.3.0:_ZN7Digikam17DMetadataSettingsD1Ev
libdigikamcore.so.7.3.0:_ZN7Digikam17DMetadataSettingsD2Ev
libdigikamcore.so.7.3.0:_ZN7Digikam17DRawDecoderWidget11qt_metacallEN11QMetaObject4CallEiPPv
libdigikamcore.so.7.3.0:_ZN7Digikam17DRawDecoderWidget11qt_metacastEPKc
libdigikamcore.so.7.3.0:_ZN7Digikam17DRawDecoderWidget11setSettingsERKNS_19DRawDecoderSettingsE
libdigikamcore.so.7.3.0:_ZN7Digikam17DRawDecoderWidget12readSettingsER12KConfigGroup
libdigikamcore.so.7.3.0:_ZN7Digikam17DRawDecoderWidget12readSettingsERNS_19DRawDecoderSettingsER12KConfigGroup
libdigikamcore.so.7.3.0:_ZN7Digikam17DRawDecoderWidget13writeSettingsER12KConfigGroup
libdigikamcore.so.7.3.0:_ZN7Digikam17DRawDecoderWidget13writeSettingsERKNS_19DRawDecoderSettingsER12KConfigGroup
libdigikamcore.so.7.3.0:_ZN7Digikam17DRawDecoderWidget14resetToDefaultEv
libdigikamcore.so.7.3.0:_ZN7Digikam17DRawDecoderWidget16staticMetaObjectE
libdigikamcore.so.7.3.0:_ZN7Digikam17DRawDecoderWidget18updateMinimumWidthEv
libdigikamcore.so.7.3.0:_ZN7Digikam17DRawDecoderWidget21signalSettingsChangedEv
libdigikamcore.so.7.3.0:_ZN7Digikam17DRawDecoderWidget21slotRAWQualityChangedEi
libdigikamcore.so.7.3.0:_ZN7Digikam17DRawDecoderWidget23slotWhiteBalanceToggledEi
libdigikamcore.so.7.3.0:_ZN7Digikam17DRawDecoderWidget24slotUnclipColorActivatedEi
libdigikamcore.so.7.3.0:_ZN7Digikam17DRawDecoderWidget25slotNoiseReductionChangedEi
libdigikamcore.so.7.3.0:_ZN7Digikam17DRawDecoderWidget26slotInputColorSpaceChangedEi
libdigikamcore.so.7.3.0:_ZN7Digikam17DRawDecoderWidget27slotOutputColorSpaceChangedEi
libdigikamcore.so.7.3.0:_ZN7Digikam17DRawDecoderWidget27slotsixteenBitsImageToggledEb
libdigikamcore.so.7.3.0:_ZN7Digikam17DRawDecoderWidget28setEnabledBrightnessSettingsEb
libdigikamcore.so.7.3.0:_ZN7Digikam17DRawDecoderWidget29signalSixteenBitsImageToggledEb
libdigikamcore.so.7.3.0:_ZN7Digikam17DRawDecoderWidget29slotExposureCorrectionToggledEb
libdigikamcore.so.7.3.0:_ZN7Digikam17DRawDecoderWidget30slotExpoCorrectionShiftChangedEd
libdigikamcore.so.7.3.0:_ZN7Digikam17DRawDecoderWidget5setupEi
libdigikamcore.so.7.3.0:_ZN7Digikam17DRawDecoderWidgetC1EP7QWidgeti
libdigikamcore.so.7.3.0:_ZN7Digikam17DRawDecoderWidgetC2EP7QWidgeti
libdigikamcore.so.7.3.0:_ZN7Digikam17DRawDecoderWidgetD0Ev
libdigikamcore.so.7.3.0:_ZN7Digikam17DRawDecoderWidgetD1Ev
libdigikamcore.so.7.3.0:_ZN7Digikam17DRawDecoderWidgetD2Ev
libdigikamcore.so.7.3.0:_ZN7Digikam17ExifToolConfPanel11qt_metacallEN11QMetaObject4CallEiPPv
libdigikamcore.so.7.3.0:_ZN7Digikam17ExifToolConfPanel11qt_metacastEPKc
libdigikamcore.so.7.3.0:_ZN7Digikam17ExifToolConfPanel16staticMetaObjectE
libdigikamcore.so.7.3.0:_ZN7Digikam17ExifToolConfPanel20setExifToolDirectoryERK7QString
libdigikamcore.so.7.3.0:_ZN7Digikam17ExifToolConfPanel21slotSearchTextChangedERKNS_18SearchTextSettingsE
libdigikamcore.so.7.3.0:_ZN7Digikam17ExifToolConfPanel23slotExifToolBinaryFoundEb
libdigikamcore.so.7.3.0:_ZN7Digikam17ExifToolConfPanelC1EP7QWidget
libdigikamcore.so.7.3.0:_ZN7Digikam17ExifToolConfPanelC2EP7QWidget
libdigikamcore.so.7.3.0:_ZN7Digikam17ExifToolConfPanelD0Ev
libdigikamcore.so.7.3.0:_ZN7Digikam17ExifToolConfPanelD1Ev
libdigikamcore.so.7.3.0:_ZN7Digikam17ExifToolConfPanelD2Ev
libdigikamcore.so.7.3.0:_ZN7Digikam17ExifToolErrorView11qt_metacallEN11QMetaObject4CallEiPPv
libdigikamcore.so.7.3.0:_ZN7Digikam17ExifToolErrorView11qt_metacastEPKc
libdigikamcore.so.7.3.0:_ZN7Digikam17ExifToolErrorView12setErrorTextERK7QString
libdigikamcore.so.7.3.0:_ZN7Digikam17ExifToolErrorView16staticMetaObjectE
libdigikamcore.so.7.3.0:_ZN7Digikam17ExifToolErrorView19signalSetupExifToolEv
libdigikamcore.so.7.3.0:_ZN7Digikam17ExifToolErrorViewC1EP7QWidget
libdigikamcore.so.7.3.0:_ZN7Digikam17ExifToolErrorViewC2EP7QWidget
libdigikamcore.so.7.3.0:_ZN7Digikam17ExifToolErrorViewD0Ev
libdigikamcore.so.7.3.0:_ZN7Digikam17ExifToolErrorViewD1Ev
libdigikamcore.so.7.3.0:_ZN7Digikam17ExifToolErrorViewD2Ev
libdigikamcore.so.7.3.0:_ZN7Digikam17FilmGrainSettings11qt_metacallEN11QMetaObject4CallEiPPv
libdigikamcore.so.7.3.0:_ZN7Digikam17FilmGrainSettings11qt_metacastEPKc
libdigikamcore.so.7.3.0:_ZN7Digikam17FilmGrainSettings11setSettingsERKNS_18FilmGrainContainerE
libdigikamcore.so.7.3.0:_ZN7Digikam17FilmGrainSettings12readSettingsER12KConfigGroup
libdigikamcore.so.7.3.0:_ZN7Digikam17FilmGrainSettings13writeSettingsER12KConfigGroup
libdigikamcore.so.7.3.0:_ZN7Digikam17FilmGrainSettings14resetToDefaultEv
libdigikamcore.so.7.3.0:_ZN7Digikam17FilmGrainSettings15slotItemToggledEib
libdigikamcore.so.7.3.0:_ZN7Digikam17FilmGrainSettings16staticMetaObjectE
libdigikamcore.so.7.3.0:_ZN7Digikam17FilmGrainSettings21signalSettingsChangedEv
libdigikamcore.so.7.3.0:_ZN7Digikam17FilmGrainSettingsC1EP7QWidget
libdigikamcore.so.7.3.0:_ZN7Digikam17FilmGrainSettingsC2EP7QWidget
libdigikamcore.so.7.3.0:_ZN7Digikam17FilmGrainSettingsD0Ev
libdigikamcore.so.7.3.0:_ZN7Digikam17FilmGrainSettingsD1Ev
libdigikamcore.so.7.3.0:_ZN7Digikam17FilmGrainSettingsD2Ev
libdigikamcore.so.7.3.0:_ZN7Digikam17GPSItemInfoSorter10fitsBetterERKNS_11GPSItemInfoE6QFlagsINS_17GeoGroupStateEnumEES3_S6_S6_S4_INS0_10SortOptionEE
libdigikamcore.so.7.3.0:_ZN7Digikam17GPSItemInfoSorter11qt_metacallEN11QMetaObject4CallEiPPv
libdigikamcore.so.7.3.0:_ZN7Digikam17GPSItemInfoSorter11qt_metacastEPKc
libdigikamcore.so.7.3.0:_ZN7Digikam17GPSItemInfoSorter14addToMapWidgetEPNS_9MapWidgetE
libdigikamcore.so.7.3.0:_ZN7Digikam17GPSItemInfoSorter14setSortOptionsE6QFlagsINS0_10SortOptionEE
libdigikamcore.so.7.3.0:_ZN7Digikam17GPSItemInfoSorter16staticMetaObjectE
libdigikamcore.so.7.3.0:_ZN7Digikam17GPSItemInfoSorter18initializeSortMenuEv
libdigikamcore.so.7.3.0:_ZN7Digikam17GPSItemInfoSorter23slotSortOptionTriggeredEv
libdigikamcore.so.7.3.0:_ZN7Digikam17GPSItemInfoSorterC1EP7QObject
libdigikamcore.so.7.3.0:_ZN7Digikam17GPSItemInfoSorterC2EP7QObject
libdigikamcore.so.7.3.0:_ZN7Digikam17GPSItemInfoSorterD0Ev
libdigikamcore.so.7.3.0:_ZN7Digikam17GPSItemInfoSorterD1Ev
libdigikamcore.so.7.3.0:_ZN7Digikam17GPSItemInfoSorterD2Ev
libdigikamcore.so.7.3.0:_ZN7Digikam17HotPixelContainer16fromFilterActionERKNS_12FilterActionERK7QString
libdigikamcore.so.7.3.0:_ZN7Digikam17HotPixelContainerC1Ev
libdigikamcore.so.7.3.0:_ZN7Digikam17HotPixelContainerC2Ev
libdigikamcore.so.7.3.0:_ZN7Digikam17HotPixelContainerD1Ev
libdigikamcore.so.7.3.0:_ZN7Digikam17HotPixelContainerD2Ev
libdigikamcore.so.7.3.0:_ZN7Digikam17ICCProfileInfoDlg11qt_metacallEN11QMetaObject4CallEiPPv
libdigikamcore.so.7.3.0:_ZN7Digikam17ICCProfileInfoDlg11qt_metacastEPKc
libdigikamcore.so.7.3.0:_ZN7Digikam17ICCProfileInfoDlg16staticMetaObjectE
libdigikamcore.so.7.3.0:_ZN7Digikam17ICCProfileInfoDlg8slotHelpEv
libdigikamcore.so.7.3.0:_ZN7Digikam17ICCProfileInfoDlgC1EP7QWidgetRK7QStringRKNS_10IccProfileE
libdigikamcore.so.7.3.0:_ZN7Digikam17ICCProfileInfoDlgC2EP7QWidgetRK7QStringRKNS_10IccProfileE
libdigikamcore.so.7.3.0:_ZN7Digikam17ICCProfileInfoDlgD0Ev
libdigikamcore.so.7.3.0:_ZN7Digikam17ICCProfileInfoDlgD1Ev
libdigikamcore.so.7.3.0:_ZN7Digikam17ICCProfileInfoDlgD2Ev
libdigikamcore.so.7.3.0:_ZN7Digikam17ImageRegionWidget11qt_metacallEN11QMetaObject4CallEiPPv
libdigikamcore.so.7.3.0:_ZN7Digikam17ImageRegionWidget11qt_metacastEPKc
libdigikamcore.so.7.3.0:_ZN7Digikam17ImageRegionWidget11updateImageERKNS_4DImgE
libdigikamcore.so.7.3.0:_ZN7Digikam17ImageRegionWidget15mousePressEventEP11QMouseEvent
libdigikamcore.so.7.3.0:_ZN7Digikam17ImageRegionWidget15setPreviewImageERKNS_4DImgE
libdigikamcore.so.7.3.0:_ZN7Digikam17ImageRegionWidget16staticMetaObjectE
libdigikamcore.so.7.3.0:_ZN7Digikam17ImageRegionWidget17mouseReleaseEventEP11QMouseEvent
libdigikamcore.so.7.3.0:_ZN7Digikam17ImageRegionWidget18ICCSettingsChangedEv
libdigikamcore.so.7.3.0:_ZN7Digikam17ImageRegionWidget18setHighLightPointsERK8QPolygon
libdigikamcore.so.7.3.0:_ZN7Digikam17ImageRegionWidget19setCapturePointModeEb
libdigikamcore.so.7.3.0:_ZN7Digikam17ImageRegionWidget22slotPreviewModeChangedEi
libdigikamcore.so.7.3.0:_ZN7Digikam17ImageRegionWidget23exposureSettingsChangedEv
libdigikamcore.so.7.3.0:_ZN7Digikam17ImageRegionWidget29emitCapturedPointFromOriginalERK7QPointF
libdigikamcore.so.7.3.0:_ZN7Digikam17ImageRegionWidget30signalOriginalClipFocusChangedEv
libdigikamcore.so.7.3.0:_ZN7Digikam17ImageRegionWidget30slotOriginalImageRegionChangedEb
libdigikamcore.so.7.3.0:_ZN7Digikam17ImageRegionWidget31signalCapturedPointFromOriginalERKNS_6DColorERK6QPoint
libdigikamcore.so.7.3.0:_ZN7Digikam17ImageRegionWidget37slotOriginalImageRegionChangedDelayedEv
libdigikamcore.so.7.3.0:_ZN7Digikam17ImageRegionWidgetC1EP7QWidgetb
libdigikamcore.so.7.3.0:_ZN7Digikam17ImageRegionWidgetC2EP7QWidgetb
libdigikamcore.so.7.3.0:_ZN7Digikam17ImageRegionWidgetD0Ev
libdigikamcore.so.7.3.0:_ZN7Digikam17ImageRegionWidgetD1Ev
libdigikamcore.so.7.3.0:_ZN7Digikam17ImageRegionWidgetD2Ev
libdigikamcore.so.7.3.0:_ZN7Digikam17ImageZoomSettings12setImageSizeERK5QSizeS3_
libdigikamcore.so.7.3.0:_ZN7Digikam17ImageZoomSettings13setZoomFactorEd
libdigikamcore.so.7.3.0:_ZN7Digikam17ImageZoomSettings9fitToSizeERK6QSizeFNS0_13FitToSizeModeE
libdigikamcore.so.7.3.0:_ZN7Digikam17ImageZoomSettingsC1ERK5QSizeS3_
libdigikamcore.so.7.3.0:_ZN7Digikam17ImageZoomSettingsC1Ev
libdigikamcore.so.7.3.0:_ZN7Digikam17ImageZoomSettingsC2ERK5QSizeS3_
libdigikamcore.so.7.3.0:_ZN7Digikam17ImageZoomSettingsC2Ev
libdigikamcore.so.7.3.0:_ZN7Digikam17ItemPropertiesTab10setCaptionERK7QString
libdigikamcore.so.7.3.0:_ZN7Digikam17ItemPropertiesTab11qt_metacallEN11QMetaObject4CallEiPPv
libdigikamcore.so.7.3.0:_ZN7Digikam17ItemPropertiesTab11qt_metacastEPKc
libdigikamcore.so.7.3.0:_ZN7Digikam17ItemPropertiesTab11setFileSizeERK7QString
libdigikamcore.so.7.3.0:_ZN7Digikam17ItemPropertiesTab12setFileOwnerERK7QString
libdigikamcore.so.7.3.0:_ZN7Digikam17ItemPropertiesTab12setImageMimeERK7QString
libdigikamcore.so.7.3.0:_ZN7Digikam17ItemPropertiesTab12setPhotoLensERK7QString
libdigikamcore.so.7.3.0:_ZN7Digikam17ItemPropertiesTab12setPhotoMakeERK7QString
libdigikamcore.so.7.3.0:_ZN7Digikam17ItemPropertiesTab12setPickLabelEi
libdigikamcore.so.7.3.0:_ZN7Digikam17ItemPropertiesTab13setColorLabelEi
libdigikamcore.so.7.3.0:_ZN7Digikam17ItemPropertiesTab13setCurrentURLERK4QUrl
libdigikamcore.so.7.3.0:_ZN7Digikam17ItemPropertiesTab13setHasSidecarERK7QString
libdigikamcore.so.7.3.0:_ZN7Digikam17ItemPropertiesTab13setImageRatioERK7QString
libdigikamcore.so.7.3.0:_ZN7Digikam17ItemPropertiesTab13setPhotoFlashERK7QString
libdigikamcore.so.7.3.0:_ZN7Digikam17ItemPropertiesTab13setPhotoModelERK7QString
libdigikamcore.so.7.3.0:_ZN7Digikam17ItemPropertiesTab16setImageBitDepthERK7QString
libdigikamcore.so.7.3.0:_ZN7Digikam17ItemPropertiesTab16setPhotoApertureERK7QString
libdigikamcore.so.7.3.0:_ZN7Digikam17ItemPropertiesTab16setPhotoDateTimeERK7QString
libdigikamcore.so.7.3.0:_ZN7Digikam17ItemPropertiesTab16setVideoDurationERK7QString
libdigikamcore.so.7.3.0:_ZN7Digikam17ItemPropertiesTab16staticMetaObjectE
libdigikamcore.so.7.3.0:_ZN7Digikam17ItemPropertiesTab17permissionsStringERK9QFileInfo
libdigikamcore.so.7.3.0:_ZN7Digikam17ItemPropertiesTab17setImageColorModeERK7QString
libdigikamcore.so.7.3.0:_ZN7Digikam17ItemPropertiesTab17setItemDimensionsERK7QString
libdigikamcore.so.7.3.0:_ZN7Digikam17ItemPropertiesTab17setVideoFrameRateERK7QString
libdigikamcore.so.7.3.0:_ZN7Digikam17ItemPropertiesTab17shortenedMakeInfoER7QString
libdigikamcore.so.7.3.0:_ZN7Digikam17ItemPropertiesTab17shortenedTagPathsERK11QStringListP5QListI8QVariantE
libdigikamcore.so.7.3.0:_ZN7Digikam17ItemPropertiesTab18setFilePermissionsERK7QString
libdigikamcore.so.7.3.0:_ZN7Digikam17ItemPropertiesTab18setVideoAudioCodecERK7QString
libdigikamcore.so.7.3.0:_ZN7Digikam17ItemPropertiesTab18setVideoVideoCodecERK7QString
libdigikamcore.so.7.3.0:_ZN7Digikam17ItemPropertiesTab18shortenedModelInfoER7QString
libdigikamcore.so.7.3.0:_ZN7Digikam17ItemPropertiesTab19aspectRatioToStringEiiR7QString
libdigikamcore.so.7.3.0:_ZN7Digikam17ItemPropertiesTab19setFileModifiedDateERK7QString
libdigikamcore.so.7.3.0:_ZN7Digikam17ItemPropertiesTab19setPhotoFocalLengthERK7QString
libdigikamcore.so.7.3.0:_ZN7Digikam17ItemPropertiesTab19setPhotoInfoDisableEb
libdigikamcore.so.7.3.0:_ZN7Digikam17ItemPropertiesTab19setPhotoSensitivityERK7QString
libdigikamcore.so.7.3.0:_ZN7Digikam17ItemPropertiesTab19setVideoAspectRatioERK7QString
libdigikamcore.so.7.3.0:_ZN7Digikam17ItemPropertiesTab19setVideoInfoDisableEb
libdigikamcore.so.7.3.0:_ZN7Digikam17ItemPropertiesTab20setPhotoExposureModeERK7QString
libdigikamcore.so.7.3.0:_ZN7Digikam17ItemPropertiesTab20setPhotoExposureTimeERK7QString
libdigikamcore.so.7.3.0:_ZN7Digikam17ItemPropertiesTab20setPhotoWhiteBalanceERK7QString
libdigikamcore.so.7.3.0:_ZN7Digikam17ItemPropertiesTab20setVideoAudioBitRateERK7QString
libdigikamcore.so.7.3.0:_ZN7Digikam17ItemPropertiesTab23humanReadableBytesCountExb
libdigikamcore.so.7.3.0:_ZN7Digikam17ItemPropertiesTab24setVideoAudioChannelTypeERK7QString
libdigikamcore.so.7.3.0:_ZN7Digikam17ItemPropertiesTab24showOrHideCaptionAndTagsEv
libdigikamcore.so.7.3.0:_ZN7Digikam17ItemPropertiesTab29doubleToHumanReadableFractionEdPlS1_l
libdigikamcore.so.7.3.0:_ZN7Digikam17ItemPropertiesTab7setTagsERK11QStringListS3_
libdigikamcore.so.7.3.0:_ZN7Digikam17ItemPropertiesTab9setRatingEi
libdigikamcore.so.7.3.0:_ZN7Digikam17ItemPropertiesTabC1EP7QWidget
libdigikamcore.so.7.3.0:_ZN7Digikam17ItemPropertiesTabC2EP7QWidget
libdigikamcore.so.7.3.0:_ZN7Digikam17ItemPropertiesTabD0Ev
libdigikamcore.so.7.3.0:_ZN7Digikam17ItemPropertiesTabD1Ev
libdigikamcore.so.7.3.0:_ZN7Digikam17ItemPropertiesTabD2Ev
libdigikamcore.so.7.3.0:_ZN7Digikam17MdKeyListViewItem11qt_metacallEN11QMetaObject4CallEiPPv
libdigikamcore.so.7.3.0:_ZN7Digikam17MdKeyListViewItem11qt_metacastEPKc
libdigikamcore.so.7.3.0:_ZN7Digikam17MdKeyListViewItem16slotThemeChangedEv
libdigikamcore.so.7.3.0:_ZN7Digikam17MdKeyListViewItem16staticMetaObjectE
libdigikamcore.so.7.3.0:_ZN7Digikam17MdKeyListViewItemC1EP11QTreeWidgetRK7QString
libdigikamcore.so.7.3.0:_ZN7Digikam17MdKeyListViewItemC2EP11QTreeWidgetRK7QString
libdigikamcore.so.7.3.0:_ZN7Digikam17MdKeyListViewItemD0Ev
libdigikamcore.so.7.3.0:_ZN7Digikam17MdKeyListViewItemD1Ev
libdigikamcore.so.7.3.0:_ZN7Digikam17MdKeyListViewItemD2Ev
libdigikamcore.so.7.3.0:_ZN7Digikam17OnlineVersionDwnl11qt_metacallEN11QMetaObject4CallEiPPv
libdigikamcore.so.7.3.0:_ZN7Digikam17OnlineVersionDwnl11qt_metacastEPKc
libdigikamcore.so.7.3.0:_ZN7Digikam17OnlineVersionDwnl13startDownloadERK7QString
libdigikamcore.so.7.3.0:_ZN7Digikam17OnlineVersionDwnl14cancelDownloadEv
libdigikamcore.so.7.3.0:_ZN7Digikam17OnlineVersionDwnl14slotDownloadedEP13QNetworkReply
libdigikamcore.so.7.3.0:_ZN7Digikam17OnlineVersionDwnl16staticMetaObjectE
libdigikamcore.so.7.3.0:_ZN7Digikam17OnlineVersionDwnl19signalDownloadErrorERK7QString
libdigikamcore.so.7.3.0:_ZN7Digikam17OnlineVersionDwnl21signalComputeChecksumEv
libdigikamcore.so.7.3.0:_ZN7Digikam17OnlineVersionDwnl22signalDownloadProgressExx
libdigikamcore.so.7.3.0:_ZN7Digikam17OnlineVersionDwnl8downloadERK4QUrl
libdigikamcore.so.7.3.0:_ZN7Digikam17OnlineVersionDwnlC1EP7QObjectbb
libdigikamcore.so.7.3.0:_ZN7Digikam17OnlineVersionDwnlC2EP7QObjectbb
libdigikamcore.so.7.3.0:_ZN7Digikam17OnlineVersionDwnlD0Ev
libdigikamcore.so.7.3.0:_ZN7Digikam17OnlineVersionDwnlD1Ev
libdigikamcore.so.7.3.0:_ZN7Digikam17OnlineVersionDwnlD2Ev
libdigikamcore.so.7.3.0:_ZN7Digikam17PickLabelSelector10colorLabelEv
libdigikamcore.so.7.3.0:_ZN7Digikam17PickLabelSelector11qt_metacallEN11QMetaObject4CallEiPPv
libdigikamcore.so.7.3.0:_ZN7Digikam17PickLabelSelector11qt_metacastEPKc
libdigikamcore.so.7.3.0:_ZN7Digikam17PickLabelSelector12setPickLabelENS_9PickLabelE
libdigikamcore.so.7.3.0:_ZN7Digikam17PickLabelSelector16staticMetaObjectE
libdigikamcore.so.7.3.0:_ZN7Digikam17PickLabelSelector20slotPickLabelChangedEi
libdigikamcore.so.7.3.0:_ZN7Digikam17PickLabelSelector22signalPickLabelChangedEi
libdigikamcore.so.7.3.0:_ZN7Digikam17PickLabelSelectorC1EP7QWidget
libdigikamcore.so.7.3.0:_ZN7Digikam17PickLabelSelectorC2EP7QWidget
libdigikamcore.so.7.3.0:_ZN7Digikam17PickLabelSelectorD0Ev
libdigikamcore.so.7.3.0:_ZN7Digikam17PickLabelSelectorD1Ev
libdigikamcore.so.7.3.0:_ZN7Digikam17PickLabelSelectorD2Ev
libdigikamcore.so.7.3.0:_ZN7Digikam17PlaceholderWidget10setMessageERK7QString
libdigikamcore.so.7.3.0:_ZN7Digikam17PlaceholderWidget11qt_metacallEN11QMetaObject4CallEiPPv
libdigikamcore.so.7.3.0:_ZN7Digikam17PlaceholderWidget11qt_metacastEPKc
libdigikamcore.so.7.3.0:_ZN7Digikam17PlaceholderWidget16staticMetaObjectE
libdigikamcore.so.7.3.0:_ZN7Digikam17PlaceholderWidgetC1EP7QWidget
libdigikamcore.so.7.3.0:_ZN7Digikam17PlaceholderWidgetC2EP7QWidget
libdigikamcore.so.7.3.0:_ZN7Digikam17PlaceholderWidgetD0Ev
libdigikamcore.so.7.3.0:_ZN7Digikam17PlaceholderWidgetD1Ev
libdigikamcore.so.7.3.0:_ZN7Digikam17PlaceholderWidgetD2Ev
libdigikamcore.so.7.3.0:_ZN7Digikam17PreviewLoadThread11qt_metacallEN11QMetaObject4CallEiPPv
libdigikamcore.so.7.3.0:_ZN7Digikam17PreviewLoadThread11qt_metacastEPKc
libdigikamcore.so.7.3.0:_ZN7Digikam17PreviewLoadThread15loadHighQualityERK7QStringNS_15PreviewSettings10RawLoadingE
libdigikamcore.so.7.3.0:_ZN7Digikam17PreviewLoadThread16loadFastButLargeERK7QStringi
libdigikamcore.so.7.3.0:_ZN7Digikam17PreviewLoadThread16staticMetaObjectE
libdigikamcore.so.7.3.0:_ZN7Digikam17PreviewLoadThread17loadSynchronouslyERK7QStringRKNS_15PreviewSettingsEiRKNS_10IccProfileE
libdigikamcore.so.7.3.0:_ZN7Digikam17PreviewLoadThread17loadSynchronouslyERKNS_18LoadingDescriptionE
libdigikamcore.so.7.3.0:_ZN7Digikam17PreviewLoadThread19setDisplayingWidgetEP7QWidget
libdigikamcore.so.7.3.0:_ZN7Digikam17PreviewLoadThread21loadFastSynchronouslyERK7QStringiRKNS_10IccProfileE
libdigikamcore.so.7.3.0:_ZN7Digikam17PreviewLoadThread24createLoadingDescriptionERK7QStringRKNS_15PreviewSettingsEi
libdigikamcore.so.7.3.0:_ZN7Digikam17PreviewLoadThread24createLoadingDescriptionERK7QStringRKNS_15PreviewSettingsEiRKNS_10IccProfileE
libdigikamcore.so.7.3.0:_ZN7Digikam17PreviewLoadThread28loadHighQualitySynchronouslyERK7QStringNS_15PreviewSettings10RawLoadingERKNS_10IccProfileE
libdigikamcore.so.7.3.0:_ZN7Digikam17PreviewLoadThread29loadFastButLargeSynchronouslyERK7QStringiRKNS_10IccProfileE
libdigikamcore.so.7.3.0:_ZN7Digikam17PreviewLoadThread4loadERK7QStringRKNS_15PreviewSettingsEi
libdigikamcore.so.7.3.0:_ZN7Digikam17PreviewLoadThread4loadERKNS_18LoadingDescriptionE
libdigikamcore.so.7.3.0:_ZN7Digikam17PreviewLoadThread8loadFastERK7QStringi
libdigikamcore.so.7.3.0:_ZN7Digikam17PreviewLoadThreadC1EP7QObject
libdigikamcore.so.7.3.0:_ZN7Digikam17PreviewLoadThreadC2EP7QObject
libdigikamcore.so.7.3.0:_ZN7Digikam17PreviewLoadThreadD0Ev
libdigikamcore.so.7.3.0:_ZN7Digikam17PreviewLoadThreadD1Ev
libdigikamcore.so.7.3.0:_ZN7Digikam17PreviewLoadThreadD2Ev
libdigikamcore.so.7.3.0:_ZN7Digikam17SafeTemporaryFile11qt_metacallEN11QMetaObject4CallEiPPv
libdigikamcore.so.7.3.0:_ZN7Digikam17SafeTemporaryFile11qt_metacastEPKc
libdigikamcore.so.7.3.0:_ZN7Digikam17SafeTemporaryFile16staticMetaObjectE
libdigikamcore.so.7.3.0:_ZN7Digikam17SafeTemporaryFile4openE6QFlagsIN9QIODevice12OpenModeFlagEE
libdigikamcore.so.7.3.0:_ZN7Digikam17SafeTemporaryFile4openEv
libdigikamcore.so.7.3.0:_ZN7Digikam17SafeTemporaryFileC1ERK7QString
libdigikamcore.so.7.3.0:_ZN7Digikam17SafeTemporaryFileC1Ev
libdigikamcore.so.7.3.0:_ZN7Digikam17SafeTemporaryFileC2ERK7QString
libdigikamcore.so.7.3.0:_ZN7Digikam17SafeTemporaryFileC2Ev
libdigikamcore.so.7.3.0:_ZN7Digikam17StateSavingObject14setConfigGroupERK12KConfigGroup
libdigikamcore.so.7.3.0:_ZN7Digikam17StateSavingObject14setEntryPrefixERK7QString
libdigikamcore.so.7.3.0:_ZN7Digikam17StateSavingObject19setStateSavingDepthENS0_16StateSavingDepthE
libdigikamcore.so.7.3.0:_ZN7Digikam17StateSavingObject9loadStateEv
libdigikamcore.so.7.3.0:_ZN7Digikam17StateSavingObject9saveStateEv
libdigikamcore.so.7.3.0:_ZN7Digikam17StateSavingObjectC1EP7QObject
libdigikamcore.so.7.3.0:_ZN7Digikam17StateSavingObjectC2EP7QObject
libdigikamcore.so.7.3.0:_ZN7Digikam17StateSavingObjectD0Ev
libdigikamcore.so.7.3.0:_ZN7Digikam17StateSavingObjectD1Ev
libdigikamcore.so.7.3.0:_ZN7Digikam17StateSavingObjectD2Ev
libdigikamcore.so.7.3.0:_ZN7Digikam17StatusProgressBar11qt_metacallEN11QMetaObject4CallEiPPv
libdigikamcore.so.7.3.0:_ZN7Digikam17StatusProgressBar11qt_metacastEPKc
libdigikamcore.so.7.3.0:_ZN7Digikam17StatusProgressBar12setAlignmentE6QFlagsIN2Qt13AlignmentFlagEE
libdigikamcore.so.7.3.0:_ZN7Digikam17StatusProgressBar15setProgressTextERK7QString
libdigikamcore.so.7.3.0:_ZN7Digikam17StatusProgressBar16setProgressValueEi
libdigikamcore.so.7.3.0:_ZN7Digikam17StatusProgressBar16staticMetaObjectE
libdigikamcore.so.7.3.0:_ZN7Digikam17StatusProgressBar18setProgressBarModeEiRK7QString
libdigikamcore.so.7.3.0:_ZN7Digikam17StatusProgressBar20setNotificationTitleERK7QStringRK5QIcon
libdigikamcore.so.7.3.0:_ZN7Digikam17StatusProgressBar21setProgressTotalStepsEi
libdigikamcore.so.7.3.0:_ZN7Digikam17StatusProgressBar25signalCancelButtonPressedEv
libdigikamcore.so.7.3.0:_ZN7Digikam17StatusProgressBar7setTextERK7QString
libdigikamcore.so.7.3.0:_ZN7Digikam17StatusProgressBar9setNotifyEb
libdigikamcore.so.7.3.0:_ZN7Digikam17StatusProgressBarC1EP7QWidget
libdigikamcore.so.7.3.0:_ZN7Digikam17StatusProgressBarC2EP7QWidget
libdigikamcore.so.7.3.0:_ZN7Digikam17StatusProgressBarD0Ev
libdigikamcore.so.7.3.0:_ZN7Digikam17StatusProgressBarD1Ev
libdigikamcore.so.7.3.0:_ZN7Digikam17StatusProgressBarD2Ev
libdigikamcore.so.7.3.0:_ZN7Digikam17TransitionPreview11qt_metacallEN11QMetaObject4CallEiPPv
libdigikamcore.so.7.3.0:_ZN7Digikam17TransitionPreview11qt_metacastEPKc
libdigikamcore.so.7.3.0:_ZN7Digikam17TransitionPreview11slotRestartEv
libdigikamcore.so.7.3.0:_ZN7Digikam17TransitionPreview11stopPreviewEv
libdigikamcore.so.7.3.0:_ZN7Digikam17TransitionPreview12startPreviewENS_14TransitionMngr9TransTypeE
libdigikamcore.so.7.3.0:_ZN7Digikam17TransitionPreview13setImagesListERK5QListI4QUrlE
libdigikamcore.so.7.3.0:_ZN7Digikam17TransitionPreview16staticMetaObjectE
libdigikamcore.so.7.3.0:_ZN7Digikam17TransitionPreview22slotProgressTransitionEv
libdigikamcore.so.7.3.0:_ZN7Digikam17TransitionPreviewC1EP7QWidget
libdigikamcore.so.7.3.0:_ZN7Digikam17TransitionPreviewC2EP7QWidget
libdigikamcore.so.7.3.0:_ZN7Digikam17TransitionPreviewD0Ev
libdigikamcore.so.7.3.0:_ZN7Digikam17TransitionPreviewD1Ev
libdigikamcore.so.7.3.0:_ZN7Digikam17TransitionPreviewD2Ev
libdigikamcore.so.7.3.0:_ZN7Digikam17UnsharpMaskFilter11filterImageEv
libdigikamcore.so.7.3.0:_ZN7Digikam17UnsharpMaskFilter11qt_metacallEN11QMetaObject4CallEiPPv
libdigikamcore.so.7.3.0:_ZN7Digikam17UnsharpMaskFilter11qt_metacastEPKc
libdigikamcore.so.7.3.0:_ZN7Digikam17UnsharpMaskFilter12filterActionEv
libdigikamcore.so.7.3.0:_ZN7Digikam17UnsharpMaskFilter14readParametersERKNS_12FilterActionE
libdigikamcore.so.7.3.0:_ZN7Digikam17UnsharpMaskFilter15DisplayableNameEv
libdigikamcore.so.7.3.0:_ZN7Digikam17UnsharpMaskFilter16staticMetaObjectE
libdigikamcore.so.7.3.0:_ZN7Digikam17UnsharpMaskFilter24unsharpMaskMultithreadedEjjj
libdigikamcore.so.7.3.0:_ZN7Digikam17UnsharpMaskFilterC1EP7QObject
libdigikamcore.so.7.3.0:_ZN7Digikam17UnsharpMaskFilterC1EPNS_4DImgEP7QObjectdddb
libdigikamcore.so.7.3.0:_ZN7Digikam17UnsharpMaskFilterC2EP7QObject
libdigikamcore.so.7.3.0:_ZN7Digikam17UnsharpMaskFilterC2EPNS_4DImgEP7QObjectdddb
libdigikamcore.so.7.3.0:_ZN7Digikam17UnsharpMaskFilterD0Ev
libdigikamcore.so.7.3.0:_ZN7Digikam17UnsharpMaskFilterD1Ev
libdigikamcore.so.7.3.0:_ZN7Digikam17UnsharpMaskFilterD2Ev
libdigikamcore.so.7.3.0:_ZN7Digikam17macOSBundlePrefixEv
libdigikamcore.so.7.3.0:_ZN7Digikam17showRawCameraListEv
libdigikamcore.so.7.3.0:_ZN7Digikam18AnimatedVisibility11qt_metacallEN11QMetaObject4CallEiPPv
libdigikamcore.so.7.3.0:_ZN7Digikam18AnimatedVisibility11qt_metacastEPKc
libdigikamcore.so.7.3.0:_ZN7Digikam18AnimatedVisibility16staticMetaObjectE
libdigikamcore.so.7.3.0:_ZN7Digikam18AnimatedVisibilityC1EP7QObject
libdigikamcore.so.7.3.0:_ZN7Digikam18AnimatedVisibilityC2EP7QObject
libdigikamcore.so.7.3.0:_ZN7Digikam18BackendMarbleLayer10setBackendEPNS_13BackendMarbleE
libdigikamcore.so.7.3.0:_ZN7Digikam18BackendMarbleLayer6renderEPN6Marble10GeoPainterEPNS1_14ViewportParamsERK7QStringPNS1_13GeoSceneLayerE
libdigikamcore.so.7.3.0:_ZN7Digikam18BackendMarbleLayerC1EPNS_13BackendMarbleE
libdigikamcore.so.7.3.0:_ZN7Digikam18BackendMarbleLayerC2EPNS_13BackendMarbleE
libdigikamcore.so.7.3.0:_ZN7Digikam18BackendMarbleLayerD0Ev
libdigikamcore.so.7.3.0:_ZN7Digikam18BackendMarbleLayerD1Ev
libdigikamcore.so.7.3.0:_ZN7Digikam18BackendMarbleLayerD2Ev
libdigikamcore.so.7.3.0:_ZN7Digikam18BlackFrameListView10currentUrlEv
libdigikamcore.so.7.3.0:_ZN7Digikam18BlackFrameListView10isSelectedERK4QUrl
libdigikamcore.so.7.3.0:_ZN7Digikam18BlackFrameListView10leaveEventEP6QEvent
libdigikamcore.so.7.3.0:_ZN7Digikam18BlackFrameListView10wheelEventEP11QWheelEvent
libdigikamcore.so.7.3.0:_ZN7Digikam18BlackFrameListView11hideToolTipEv
libdigikamcore.so.7.3.0:_ZN7Digikam18BlackFrameListView11qt_metacallEN11QMetaObject4CallEiPPv
libdigikamcore.so.7.3.0:_ZN7Digikam18BlackFrameListView11qt_metacastEPKc
libdigikamcore.so.7.3.0:_ZN7Digikam18BlackFrameListView11slotToolTipEv
libdigikamcore.so.7.3.0:_ZN7Digikam18BlackFrameListView13focusOutEventEP11QFocusEvent
libdigikamcore.so.7.3.0:_ZN7Digikam18BlackFrameListView13keyPressEventEP9QKeyEvent
libdigikamcore.so.7.3.0:_ZN7Digikam18BlackFrameListView14mouseMoveEventEP11QMouseEvent
libdigikamcore.so.7.3.0:_ZN7Digikam18BlackFrameListView15slotContextMenuEv
libdigikamcore.so.7.3.0:_ZN7Digikam18BlackFrameListView16staticMetaObjectE
libdigikamcore.so.7.3.0:_ZN7Digikam18BlackFrameListView19slotHotPixelsParsedERK5QListINS_13HotPixelPropsEERK4QUrl
libdigikamcore.so.7.3.0:_ZN7Digikam18BlackFrameListView20slotSelectionChangedEv
libdigikamcore.so.7.3.0:_ZN7Digikam18BlackFrameListView23signalBlackFrameRemovedERK4QUrl
libdigikamcore.so.7.3.0:_ZN7Digikam18BlackFrameListView24signalBlackFrameSelectedERK5QListINS_13HotPixelPropsEERK4QUrl
libdigikamcore.so.7.3.0:_ZN7Digikam18BlackFrameListView25signalClearBlackFrameListEv
libdigikamcore.so.7.3.0:_ZN7Digikam18BlackFrameListView8containsERK4QUrl
libdigikamcore.so.7.3.0:_ZN7Digikam18BlackFrameListViewC1EP7QWidget
libdigikamcore.so.7.3.0:_ZN7Digikam18BlackFrameListViewC2EP7QWidget
libdigikamcore.so.7.3.0:_ZN7Digikam18BlackFrameListViewD0Ev
libdigikamcore.so.7.3.0:_ZN7Digikam18BlackFrameListViewD1Ev
libdigikamcore.so.7.3.0:_ZN7Digikam18BlackFrameListViewD2Ev
libdigikamcore.so.7.3.0:_ZN7Digikam18ColorCorrectionDlg10updateInfoEv
libdigikamcore.so.7.3.0:_ZN7Digikam18ColorCorrectionDlg11qt_metacallEN11QMetaObject4CallEiPPv
libdigikamcore.so.7.3.0:_ZN7Digikam18ColorCorrectionDlg11qt_metacastEPKc
libdigikamcore.so.7.3.0:_ZN7Digikam18ColorCorrectionDlg11setSettingsEv
libdigikamcore.so.7.3.0:_ZN7Digikam18ColorCorrectionDlg12readSettingsEv
libdigikamcore.so.7.3.0:_ZN7Digikam18ColorCorrectionDlg16staticMetaObjectE
libdigikamcore.so.7.3.0:_ZN7Digikam18ColorCorrectionDlg17slotImageProfInfoEv
libdigikamcore.so.7.3.0:_ZN7Digikam18ColorCorrectionDlg18usedProfileChangedEv
libdigikamcore.so.7.3.0:_ZN7Digikam18ColorCorrectionDlg18usedProfileToggledEb
libdigikamcore.so.7.3.0:_ZN7Digikam18ColorCorrectionDlg19imageProfileChangedEv
libdigikamcore.so.7.3.0:_ZN7Digikam18ColorCorrectionDlg19imageProfileToggledEb
libdigikamcore.so.7.3.0:_ZN7Digikam18ColorCorrectionDlg19inputProfileChangedEv
libdigikamcore.so.7.3.0:_ZN7Digikam18ColorCorrectionDlg19updateUsedProfileUIEv
libdigikamcore.so.7.3.0:_ZN7Digikam18ColorCorrectionDlg20updateImageProfileUIEv
libdigikamcore.so.7.3.0:_ZN7Digikam18ColorCorrectionDlg21missingProfileChangedEv
libdigikamcore.so.7.3.0:_ZN7Digikam18ColorCorrectionDlg21missingProfileToggledEb
libdigikamcore.so.7.3.0:_ZN7Digikam18ColorCorrectionDlg21slotWorkspaceProfInfoEv
libdigikamcore.so.7.3.0:_ZN7Digikam18ColorCorrectionDlg6slotOkEv
libdigikamcore.so.7.3.0:_ZN7Digikam18ColorCorrectionDlg8slotHelpEv
libdigikamcore.so.7.3.0:_ZN7Digikam18ColorCorrectionDlgC1ENS0_4ModeERKNS_4DImgERK7QStringP7QWidget
libdigikamcore.so.7.3.0:_ZN7Digikam18ColorCorrectionDlgC2ENS0_4ModeERKNS_4DImgERK7QStringP7QWidget
libdigikamcore.so.7.3.0:_ZN7Digikam18ColorCorrectionDlgD0Ev
libdigikamcore.so.7.3.0:_ZN7Digikam18ColorCorrectionDlgD1Ev
libdigikamcore.so.7.3.0:_ZN7Digikam18ColorCorrectionDlgD2Ev
libdigikamcore.so.7.3.0:_ZN7Digikam18ColorLabelSelector10colorLabelEv
libdigikamcore.so.7.3.0:_ZN7Digikam18ColorLabelSelector11qt_metacallEN11QMetaObject4CallEiPPv
libdigikamcore.so.7.3.0:_ZN7Digikam18ColorLabelSelector11qt_metacastEPKc
libdigikamcore.so.7.3.0:_ZN7Digikam18ColorLabelSelector13setColorLabelENS_10ColorLabelE
libdigikamcore.so.7.3.0:_ZN7Digikam18ColorLabelSelector16staticMetaObjectE
libdigikamcore.so.7.3.0:_ZN7Digikam18ColorLabelSelector21slotColorLabelChangedEi
libdigikamcore.so.7.3.0:_ZN7Digikam18ColorLabelSelector23signalColorLabelChangedEi
libdigikamcore.so.7.3.0:_ZN7Digikam18ColorLabelSelectorC1EP7QWidget
libdigikamcore.so.7.3.0:_ZN7Digikam18ColorLabelSelectorC2EP7QWidget
libdigikamcore.so.7.3.0:_ZN7Digikam18ColorLabelSelectorD0Ev
libdigikamcore.so.7.3.0:_ZN7Digikam18ColorLabelSelectorD1Ev
libdigikamcore.so.7.3.0:_ZN7Digikam18ColorLabelSelectorD2Ev
libdigikamcore.so.7.3.0:_ZN7Digikam18DImgThreadedFilter10initFilterEv
libdigikamcore.so.7.3.0:_ZN7Digikam18DImgThreadedFilter10initMasterEv
libdigikamcore.so.7.3.0:_ZN7Digikam18DImgThreadedFilter11qt_metacallEN11QMetaObject4CallEiPPv
libdigikamcore.so.7.3.0:_ZN7Digikam18DImgThreadedFilter11qt_metacastEPKc
libdigikamcore.so.7.3.0:_ZN7Digikam18DImgThreadedFilter11setupFilterERKNS_4DImgE
libdigikamcore.so.7.3.0:_ZN7Digikam18DImgThreadedFilter11startFilterEv
libdigikamcore.so.7.3.0:_ZN7Digikam18DImgThreadedFilter12cancelFilterEv
libdigikamcore.so.7.3.0:_ZN7Digikam18DImgThreadedFilter12postProgressEi
libdigikamcore.so.7.3.0:_ZN7Digikam18DImgThreadedFilter13setFilterNameERK7QString
libdigikamcore.so.7.3.0:_ZN7Digikam18DImgThreadedFilter16modulateProgressEi
libdigikamcore.so.7.3.0:_ZN7Digikam18DImgThreadedFilter16prepareDestImageEv
libdigikamcore.so.7.3.0:_ZN7Digikam18DImgThreadedFilter16setFilterVersionEi
libdigikamcore.so.7.3.0:_ZN7Digikam18DImgThreadedFilter16setOriginalImageERKNS_4DImgE
libdigikamcore.so.7.3.0:_ZN7Digikam18DImgThreadedFilter16staticMetaObjectE
libdigikamcore.so.7.3.0:_ZN7Digikam18DImgThreadedFilter19startFilterDirectlyEv
libdigikamcore.so.7.3.0:_ZN7Digikam18DImgThreadedFilter21setupAndStartDirectlyERKNS_4DImgEPS0_ii
libdigikamcore.so.7.3.0:_ZN7Digikam18DImgThreadedFilter3runEv
libdigikamcore.so.7.3.0:_ZN7Digikam18DImgThreadedFilter7startedEv
libdigikamcore.so.7.3.0:_ZN7Digikam18DImgThreadedFilter8finishedEb
libdigikamcore.so.7.3.0:_ZN7Digikam18DImgThreadedFilter8progressEi
libdigikamcore.so.7.3.0:_ZN7Digikam18DImgThreadedFilter8setSlaveEPS0_
libdigikamcore.so.7.3.0:_ZN7Digikam18DImgThreadedFilter9initSlaveEPS0_ii
libdigikamcore.so.7.3.0:_ZN7Digikam18DImgThreadedFilterC1EP7QObjectRK7QString
libdigikamcore.so.7.3.0:_ZN7Digikam18DImgThreadedFilterC1EPNS_4DImgEP7QObjectRK7QString
libdigikamcore.so.7.3.0:_ZN7Digikam18DImgThreadedFilterC1EPS0_RKNS_4DImgES4_iiRK7QString
libdigikamcore.so.7.3.0:_ZN7Digikam18DImgThreadedFilterC2EP7QObjectRK7QString
libdigikamcore.so.7.3.0:_ZN7Digikam18DImgThreadedFilterC2EPNS_4DImgEP7QObjectRK7QString
libdigikamcore.so.7.3.0:_ZN7Digikam18DImgThreadedFilterC2EPS0_RKNS_4DImgES4_iiRK7QString
libdigikamcore.so.7.3.0:_ZN7Digikam18DImgThreadedFilterD0Ev
libdigikamcore.so.7.3.0:_ZN7Digikam18DImgThreadedFilterD1Ev
libdigikamcore.so.7.3.0:_ZN7Digikam18DImgThreadedFilterD2Ev
libdigikamcore.so.7.3.0:_ZN7Digikam18DItemsListViewItem11setCommentsERK7QString
libdigikamcore.so.7.3.0:_ZN7Digikam18DItemsListViewItem16setProcessedIconERK5QIcon
libdigikamcore.so.7.3.0:_ZN7Digikam18DItemsListViewItem17updateInformationEv
libdigikamcore.so.7.3.0:_ZN7Digikam18DItemsListViewItem20setProgressAnimationERK7QPixmap
libdigikamcore.so.7.3.0:_ZN7Digikam18DItemsListViewItem6setUrlERK4QUrl
libdigikamcore.so.7.3.0:_ZN7Digikam18DItemsListViewItem7setTagsERK11QStringList
libdigikamcore.so.7.3.0:_ZN7Digikam18DItemsListViewItem8setStateENS0_5StateE
libdigikamcore.so.7.3.0:_ZN7Digikam18DItemsListViewItem8setThumbERK7QPixmapb
libdigikamcore.so.7.3.0:_ZN7Digikam18DItemsListViewItem9setPixmapERK7QPixmap
libdigikamcore.so.7.3.0:_ZN7Digikam18DItemsListViewItem9setRatingEi
libdigikamcore.so.7.3.0:_ZN7Digikam18DItemsListViewItemC1EPNS_14DItemsListViewERK4QUrl
libdigikamcore.so.7.3.0:_ZN7Digikam18DItemsListViewItemC2EPNS_14DItemsListViewERK4QUrl
libdigikamcore.so.7.3.0:_ZN7Digikam18DItemsListViewItemD0Ev
libdigikamcore.so.7.3.0:_ZN7Digikam18DItemsListViewItemD1Ev
libdigikamcore.so.7.3.0:_ZN7Digikam18DItemsListViewItemD2Ev
libdigikamcore.so.7.3.0:_ZN7Digikam18DMultiTabBarButton10paintEventEP11QPaintEvent
libdigikamcore.so.7.3.0:_ZN7Digikam18DMultiTabBarButton11qt_metacallEN11QMetaObject4CallEiPPv
libdigikamcore.so.7.3.0:_ZN7Digikam18DMultiTabBarButton11qt_metacastEPKc
libdigikamcore.so.7.3.0:_ZN7Digikam18DMultiTabBarButton11slotClickedEv
libdigikamcore.so.7.3.0:_ZN7Digikam18DMultiTabBarButton13signalClickedEi
libdigikamcore.so.7.3.0:_ZN7Digikam18DMultiTabBarButton16staticMetaObjectE
libdigikamcore.so.7.3.0:_ZN7Digikam18DMultiTabBarButton7setTextERK7QString
libdigikamcore.so.7.3.0:_ZN7Digikam18DMultiTabBarButton9hideEventEP10QHideEvent
libdigikamcore.so.7.3.0:_ZN7Digikam18DMultiTabBarButton9showEventEP10QShowEvent
libdigikamcore.so.7.3.0:_ZN7Digikam18DMultiTabBarButtonC1ERK7QPixmapRK7QStringiP7QWidget
libdigikamcore.so.7.3.0:_ZN7Digikam18DMultiTabBarButtonC2ERK7QPixmapRK7QStringiP7QWidget
libdigikamcore.so.7.3.0:_ZN7Digikam18DMultiTabBarButtonD0Ev
libdigikamcore.so.7.3.0:_ZN7Digikam18DMultiTabBarButtonD1Ev
libdigikamcore.so.7.3.0:_ZN7Digikam18DMultiTabBarButtonD2Ev
libdigikamcore.so.7.3.0:_ZN7Digikam18DNotificationPopup10paintEventEP11QPaintEvent
libdigikamcore.so.7.3.0:_ZN7Digikam18DNotificationPopup10setTimeoutEi
libdigikamcore.so.7.3.0:_ZN7Digikam18DNotificationPopup10setVisibleEb
libdigikamcore.so.7.3.0:_ZN7Digikam18DNotificationPopup11qt_metacallEN11QMetaObject4CallEiPPv
libdigikamcore.so.7.3.0:_ZN7Digikam18DNotificationPopup11qt_metacastEPKc
libdigikamcore.so.7.3.0:_ZN7Digikam18DNotificationPopup12positionSelfEv
libdigikamcore.so.7.3.0:_ZN7Digikam18DNotificationPopup12standardViewERK7QStringS3_RK7QPixmapP7QWidget
libdigikamcore.so.7.3.0:_ZN7Digikam18DNotificationPopup13setAutoDeleteEb
libdigikamcore.so.7.3.0:_ZN7Digikam18DNotificationPopup13setPopupStyleEi
libdigikamcore.so.7.3.0:_ZN7Digikam18DNotificationPopup16staticMetaObjectE
libdigikamcore.so.7.3.0:_ZN7Digikam18DNotificationPopup17mouseReleaseEventEP11QMouseEvent
libdigikamcore.so.7.3.0:_ZN7Digikam18DNotificationPopup4showERK6QPoint
libdigikamcore.so.7.3.0:_ZN7Digikam18DNotificationPopup7clickedERK6QPoint
libdigikamcore.so.7.3.0:_ZN7Digikam18DNotificationPopup7clickedEv
libdigikamcore.so.7.3.0:_ZN7Digikam18DNotificationPopup7messageERK7QStringP15QSystemTrayIcon
libdigikamcore.so.7.3.0:_ZN7Digikam18DNotificationPopup7messageERK7QStringP7QWidgetRK6QPoint
libdigikamcore.so.7.3.0:_ZN7Digikam18DNotificationPopup7messageERK7QStringS3_P15QSystemTrayIcon
libdigikamcore.so.7.3.0:_ZN7Digikam18DNotificationPopup7messageERK7QStringS3_P7QWidgetRK6QPoint
libdigikamcore.so.7.3.0:_ZN7Digikam18DNotificationPopup7messageERK7QStringS3_RK7QPixmapP15QSystemTrayIconi
libdigikamcore.so.7.3.0:_ZN7Digikam18DNotificationPopup7messageERK7QStringS3_RK7QPixmapP7QWidgetiRK6QPoint
libdigikamcore.so.7.3.0:_ZN7Digikam18DNotificationPopup7messageERK7QStringS3_RK7QPixmapyiRK6QPoint
libdigikamcore.so.7.3.0:_ZN7Digikam18DNotificationPopup7messageEiRK7QStringP15QSystemTrayIcon
libdigikamcore.so.7.3.0:_ZN7Digikam18DNotificationPopup7messageEiRK7QStringP7QWidgetRK6QPoint
libdigikamcore.so.7.3.0:_ZN7Digikam18DNotificationPopup7messageEiRK7QStringS3_P15QSystemTrayIcon
libdigikamcore.so.7.3.0:_ZN7Digikam18DNotificationPopup7messageEiRK7QStringS3_P7QWidgetRK6QPoint
libdigikamcore.so.7.3.0:_ZN7Digikam18DNotificationPopup7messageEiRK7QStringS3_RK7QPixmapP15QSystemTrayIconi
libdigikamcore.so.7.3.0:_ZN7Digikam18DNotificationPopup7messageEiRK7QStringS3_RK7QPixmapP7QWidgetiRK6QPoint
libdigikamcore.so.7.3.0:_ZN7Digikam18DNotificationPopup7messageEiRK7QStringS3_RK7QPixmapyiRK6QPoint
libdigikamcore.so.7.3.0:_ZN7Digikam18DNotificationPopup7setViewEP7QWidget
libdigikamcore.so.7.3.0:_ZN7Digikam18DNotificationPopup7setViewERK7QStringS3_
libdigikamcore.so.7.3.0:_ZN7Digikam18DNotificationPopup7setViewERK7QStringS3_RK7QPixmap
libdigikamcore.so.7.3.0:_ZN7Digikam18DNotificationPopup8moveNearERK5QRect
libdigikamcore.so.7.3.0:_ZN7Digikam18DNotificationPopup9hideEventEP10QHideEvent
libdigikamcore.so.7.3.0:_ZN7Digikam18DNotificationPopup9setAnchorERK6QPoint
libdigikamcore.so.7.3.0:_ZN7Digikam18DNotificationPopupC1EP7QWidget6QFlagsIN2Qt10WindowTypeEE
libdigikamcore.so.7.3.0:_ZN7Digikam18DNotificationPopupC1Ey
libdigikamcore.so.7.3.0:_ZN7Digikam18DNotificationPopupC2EP7QWidget6QFlagsIN2Qt10WindowTypeEE
libdigikamcore.so.7.3.0:_ZN7Digikam18DNotificationPopupC2Ey
libdigikamcore.so.7.3.0:_ZN7Digikam18DNotificationPopupD0Ev
libdigikamcore.so.7.3.0:_ZN7Digikam18DNotificationPopupD1Ev
libdigikamcore.so.7.3.0:_ZN7Digikam18DNotificationPopupD2Ev
libdigikamcore.so.7.3.0:_ZN7Digikam18DPixelsAliasFilter17pixelAntiAliasingEPhiiddS1_S1_S1_S1_
libdigikamcore.so.7.3.0:_ZN7Digikam18DPixelsAliasFilter19pixelAntiAliasing16EPtiiddS1_S1_S1_S1_
libdigikamcore.so.7.3.0:_ZN7Digikam18DPixelsAliasFilterC1Ev
libdigikamcore.so.7.3.0:_ZN7Digikam18DPixelsAliasFilterC2Ev
libdigikamcore.so.7.3.0:_ZN7Digikam18DPixelsAliasFilterD1Ev
libdigikamcore.so.7.3.0:_ZN7Digikam18DPixelsAliasFilterD2Ev
libdigikamcore.so.7.3.0:_ZN7Digikam18DToolTipStyleSheetC1ERK5QFont
libdigikamcore.so.7.3.0:_ZN7Digikam18DToolTipStyleSheetC2ERK5QFont
libdigikamcore.so.7.3.0:_ZN7Digikam18DbEngineActionType10fieldEntryERK8QVariant
libdigikamcore.so.7.3.0:_ZN7Digikam18DbEngineActionType14getActionValueEv
libdigikamcore.so.7.3.0:_ZN7Digikam18DbEngineActionType14setActionValueERK8QVariant
libdigikamcore.so.7.3.0:_ZN7Digikam18DbEngineActionType5valueERK8QVariant
libdigikamcore.so.7.3.0:_ZN7Digikam18DbEngineActionType8setValueEb
libdigikamcore.so.7.3.0:_ZN7Digikam18DbEngineActionTypeC1ERKS0_
libdigikamcore.so.7.3.0:_ZN7Digikam18DbEngineActionTypeC1Ev
libdigikamcore.so.7.3.0:_ZN7Digikam18DbEngineActionTypeC2ERKS0_
libdigikamcore.so.7.3.0:_ZN7Digikam18DbEngineActionTypeC2Ev
libdigikamcore.so.7.3.0:_ZN7Digikam18DbEngineActionTypeD1Ev
libdigikamcore.so.7.3.0:_ZN7Digikam18DbEngineActionTypeD2Ev
libdigikamcore.so.7.3.0:_ZN7Digikam18DbEngineParameters13removeFromUrlER4QUrl
libdigikamcore.so.7.3.0:_ZN7Digikam18DbEngineParameters14readFromConfigERK7QString
libdigikamcore.so.7.3.0:_ZN7Digikam18DbEngineParameters17MySQLDatabaseTypeEv
libdigikamcore.so.7.3.0:_ZN7Digikam18DbEngineParameters17defaultParametersERK7QString
libdigikamcore.so.7.3.0:_ZN7Digikam18DbEngineParameters18SQLiteDatabaseTypeEv
libdigikamcore.so.7.3.0:_ZN7Digikam18DbEngineParameters18removeLegacyConfigEv
libdigikamcore.so.7.3.0:_ZN7Digikam18DbEngineParameters19defaultMysqlInitCmdEv
libdigikamcore.so.7.3.0:_ZN7Digikam18DbEngineParameters19parametersForSQLiteERK7QString
libdigikamcore.so.7.3.0:_ZN7Digikam18DbEngineParameters19setCoreDatabasePathERK7QString
libdigikamcore.so.7.3.0:_ZN7Digikam18DbEngineParameters19setFaceDatabasePathERK7QString
libdigikamcore.so.7.3.0:_ZN7Digikam18DbEngineParameters20defaultMysqlAdminCmdEv
libdigikamcore.so.7.3.0:_ZN7Digikam18DbEngineParameters20parametersFromConfigERK7QString
libdigikamcore.so.7.3.0:_ZN7Digikam18DbEngineParameters21defaultMysqlServerCmdEv
libdigikamcore.so.7.3.0:_ZN7Digikam18DbEngineParameters21setInternalServerPathERK7QString
libdigikamcore.so.7.3.0:_ZN7Digikam18DbEngineParameters21setThumbsDatabasePathERK7QString
libdigikamcore.so.7.3.0:_ZN7Digikam18DbEngineParameters22coreDatabaseFileSQLiteERK7QString
libdigikamcore.so.7.3.0:_ZN7Digikam18DbEngineParameters22faceDatabaseFileSQLiteERK7QString
libdigikamcore.so.7.3.0:_ZN7Digikam18DbEngineParameters22legacyAndDefaultChecksERK7QString
libdigikamcore.so.7.3.0:_ZN7Digikam18DbEngineParameters25internalServerPrivatePathEv
libdigikamcore.so.7.3.0:_ZN7Digikam18DbEngineParameters25setSimilarityDatabasePathERK7QString
libdigikamcore.so.7.3.0:_ZN7Digikam18DbEngineParameters27coreDatabaseDirectorySQLiteERK7QString
libdigikamcore.so.7.3.0:_ZN7Digikam18DbEngineParameters27faceDatabaseDirectorySQLiteERK7QString
libdigikamcore.so.7.3.0:_ZN7Digikam18DbEngineParameters27thumbnailDatabaseFileSQLiteERK7QString
libdigikamcore.so.7.3.0:_ZN7Digikam18DbEngineParameters28similarityDatabaseFileSQLiteERK7QString
libdigikamcore.so.7.3.0:_ZN7Digikam18DbEngineParameters30parametersForSQLiteDefaultFileERK7QString
libdigikamcore.so.7.3.0:_ZN7Digikam18DbEngineParameters32thumbnailDatabaseDirectorySQLiteERK7QString
libdigikamcore.so.7.3.0:_ZN7Digikam18DbEngineParameters33similarityDatabaseDirectorySQLiteERK7QString
libdigikamcore.so.7.3.0:_ZN7Digikam18DbEngineParametersC1ERK4QUrl
libdigikamcore.so.7.3.0:_ZN7Digikam18DbEngineParametersC1ERK7QStringS3_S3_S3_ibS3_S3_S3_S3_S3_S3_S3_S3_S3_
libdigikamcore.so.7.3.0:_ZN7Digikam18DbEngineParametersC1Ev
libdigikamcore.so.7.3.0:_ZN7Digikam18DbEngineParametersC2ERK4QUrl
libdigikamcore.so.7.3.0:_ZN7Digikam18DbEngineParametersC2ERK7QStringS3_S3_S3_ibS3_S3_S3_S3_S3_S3_S3_S3_S3_
libdigikamcore.so.7.3.0:_ZN7Digikam18DbEngineParametersC2Ev
libdigikamcore.so.7.3.0:_ZN7Digikam18DistortionFXFilter10blockWavesEPNS_4DImgES2_iib
libdigikamcore.so.7.3.0:_ZN7Digikam18DistortionFXFilter11cilindricalEPNS_4DImgES2_dbbb
libdigikamcore.so.7.3.0:_ZN7Digikam18DistortionFXFilter11filterImageEv
libdigikamcore.so.7.3.0:_ZN7Digikam18DistortionFXFilter11qt_metacallEN11QMetaObject4CallEiPPv
libdigikamcore.so.7.3.0:_ZN7Digikam18DistortionFXFilter11qt_metacastEPKc
libdigikamcore.so.7.3.0:_ZN7Digikam18DistortionFXFilter12filterActionEv
libdigikamcore.so.7.3.0:_ZN7Digikam18DistortionFXFilter13circularWavesEPNS_4DImgES2_iidddbb
libdigikamcore.so.7.3.0:_ZN7Digikam18DistortionFXFilter14readParametersERKNS_12FilterActionE
libdigikamcore.so.7.3.0:_ZN7Digikam18DistortionFXFilter15DisplayableNameEv
libdigikamcore.so.7.3.0:_ZN7Digikam18DistortionFXFilter15multipleCornersEPNS_4DImgES2_ib
libdigikamcore.so.7.3.0:_ZN7Digikam18DistortionFXFilter16polarCoordinatesEPNS_4DImgES2_bb
libdigikamcore.so.7.3.0:_ZN7Digikam18DistortionFXFilter16staticMetaObjectE
libdigikamcore.so.7.3.0:_ZN7Digikam18DistortionFXFilter17setPixelFromOtherEiibiPhS1_iiddb
libdigikamcore.so.7.3.0:_ZN7Digikam18DistortionFXFilter17tileMultithreadedERKNS0_4ArgsE
libdigikamcore.so.7.3.0:_ZN7Digikam18DistortionFXFilter18twirlMultithreadedERKNS0_4ArgsE
libdigikamcore.so.7.3.0:_ZN7Digikam18DistortionFXFilter20fisheyeMultithreadedERKNS0_4ArgsE
libdigikamcore.so.7.3.0:_ZN7Digikam18DistortionFXFilter23blockWavesMultithreadedERKNS0_4ArgsE
libdigikamcore.so.7.3.0:_ZN7Digikam18DistortionFXFilter24cilindricalMultithreadedERKNS0_4ArgsE
libdigikamcore.so.7.3.0:_ZN7Digikam18DistortionFXFilter26circularWavesMultithreadedERKNS0_4ArgsE
libdigikamcore.so.7.3.0:_ZN7Digikam18DistortionFXFilter26wavesVerticalMultithreadedERKNS0_4ArgsE
libdigikamcore.so.7.3.0:_ZN7Digikam18DistortionFXFilter28multipleCornersMultithreadedERKNS0_4ArgsE
libdigikamcore.so.7.3.0:_ZN7Digikam18DistortionFXFilter28wavesHorizontalMultithreadedERKNS0_4ArgsE
libdigikamcore.so.7.3.0:_ZN7Digikam18DistortionFXFilter29polarCoordinatesMultithreadedERKNS0_4ArgsE
libdigikamcore.so.7.3.0:_ZN7Digikam18DistortionFXFilter4tileEPNS_4DImgES2_iii
libdigikamcore.so.7.3.0:_ZN7Digikam18DistortionFXFilter5twirlEPNS_4DImgES2_ib
libdigikamcore.so.7.3.0:_ZN7Digikam18DistortionFXFilter5wavesEPNS_4DImgES2_iibb
libdigikamcore.so.7.3.0:_ZN7Digikam18DistortionFXFilter7fisheyeEPNS_4DImgES2_db
libdigikamcore.so.7.3.0:_ZN7Digikam18DistortionFXFilterC1EP7QObject
libdigikamcore.so.7.3.0:_ZN7Digikam18DistortionFXFilterC1EPNS_4DImgEP7QObjectiiib
libdigikamcore.so.7.3.0:_ZN7Digikam18DistortionFXFilterC2EP7QObject
libdigikamcore.so.7.3.0:_ZN7Digikam18DistortionFXFilterC2EPNS_4DImgEP7QObjectiiib
libdigikamcore.so.7.3.0:_ZN7Digikam18DistortionFXFilterD0Ev
libdigikamcore.so.7.3.0:_ZN7Digikam18DistortionFXFilterD1Ev
libdigikamcore.so.7.3.0:_ZN7Digikam18DistortionFXFilterD2Ev
libdigikamcore.so.7.3.0:_ZN7Digikam18EditorToolSettings10marginHintEv
libdigikamcore.so.7.3.0:_ZN7Digikam18EditorToolSettings10setButtonsE6QFlagsINS0_10ButtonCodeEE
libdigikamcore.so.7.3.0:_ZN7Digikam18EditorToolSettings11qt_metacallEN11QMetaObject4CallEiPPv
libdigikamcore.so.7.3.0:_ZN7Digikam18EditorToolSettings11qt_metacastEPKc
libdigikamcore.so.7.3.0:_ZN7Digikam18EditorToolSettings11spacingHintEv
libdigikamcore.so.7.3.0:_ZN7Digikam18EditorToolSettings12enableButtonEib
libdigikamcore.so.7.3.0:_ZN7Digikam18EditorToolSettings12setGuideSizeEi
libdigikamcore.so.7.3.0:_ZN7Digikam18EditorToolSettings13setGuideColorERK6QColor
libdigikamcore.so.7.3.0:_ZN7Digikam18EditorToolSettings15signalOkClickedEv
libdigikamcore.so.7.3.0:_ZN7Digikam18EditorToolSettings15slotAboutPluginEv
libdigikamcore.so.7.3.0:_ZN7Digikam18EditorToolSettings16setHistogramTypeENS_16HistogramBoxTypeE
libdigikamcore.so.7.3.0:_ZN7Digikam18EditorToolSettings16signalTryClickedEv
libdigikamcore.so.7.3.0:_ZN7Digikam18EditorToolSettings16staticMetaObjectE
libdigikamcore.so.7.3.0:_ZN7Digikam18EditorToolSettings17signalLoadClickedEv
libdigikamcore.so.7.3.0:_ZN7Digikam18EditorToolSettings18signalScaleChangedEv
libdigikamcore.so.7.3.0:_ZN7Digikam18EditorToolSettings19signalCancelClickedEv
libdigikamcore.so.7.3.0:_ZN7Digikam18EditorToolSettings19signalSaveAsClickedEv
libdigikamcore.so.7.3.0:_ZN7Digikam18EditorToolSettings20signalChannelChangedEv
libdigikamcore.so.7.3.0:_ZN7Digikam18EditorToolSettings20signalDefaultClickedEv
libdigikamcore.so.7.3.0:_ZN7Digikam18EditorToolSettings23signalColorGuideChangedEv
libdigikamcore.so.7.3.0:_ZN7Digikam18EditorToolSettings7setToolEPNS_10EditorToolE
libdigikamcore.so.7.3.0:_ZN7Digikam18EditorToolSettings8setToolsE6QFlagsINS0_8ToolCodeEE
libdigikamcore.so.7.3.0:_ZN7Digikam18EditorToolSettingsC1EP7QWidget
libdigikamcore.so.7.3.0:_ZN7Digikam18EditorToolSettingsC2EP7QWidget
libdigikamcore.so.7.3.0:_ZN7Digikam18EditorToolSettingsD0Ev
libdigikamcore.so.7.3.0:_ZN7Digikam18EditorToolSettingsD1Ev
libdigikamcore.so.7.3.0:_ZN7Digikam18EditorToolSettingsD2Ev
libdigikamcore.so.7.3.0:_ZN7Digikam18EditorToolThreaded10slotCancelEv
libdigikamcore.so.7.3.0:_ZN7Digikam18EditorToolThreaded11qt_metacallEN11QMetaObject4CallEiPPv
libdigikamcore.so.7.3.0:_ZN7Digikam18EditorToolThreaded11qt_metacastEPKc
libdigikamcore.so.7.3.0:_ZN7Digikam18EditorToolThreaded11setAnalyserEPNS_20DImgThreadedAnalyserE
libdigikamcore.so.7.3.0:_ZN7Digikam18EditorToolThreaded11slotPreviewEv
libdigikamcore.so.7.3.0:_ZN7Digikam18EditorToolThreaded11slotResizedEv
libdigikamcore.so.7.3.0:_ZN7Digikam18EditorToolThreaded12slotProgressEi
libdigikamcore.so.7.3.0:_ZN7Digikam18EditorToolThreaded16staticMetaObjectE
libdigikamcore.so.7.3.0:_ZN7Digikam18EditorToolThreaded17slotFilterStartedEv
libdigikamcore.so.7.3.0:_ZN7Digikam18EditorToolThreaded18setProgressMessageERK7QString
libdigikamcore.so.7.3.0:_ZN7Digikam18EditorToolThreaded18slotFilterFinishedEb
libdigikamcore.so.7.3.0:_ZN7Digikam18EditorToolThreaded19slotAnalyserStartedEv
libdigikamcore.so.7.3.0:_ZN7Digikam18EditorToolThreaded20deleteFilterInstanceEb
libdigikamcore.so.7.3.0:_ZN7Digikam18EditorToolThreaded20slotAnalyserFinishedEb
libdigikamcore.so.7.3.0:_ZN7Digikam18EditorToolThreaded6slotOkEv
libdigikamcore.so.7.3.0:_ZN7Digikam18EditorToolThreaded8slotInitEv
libdigikamcore.so.7.3.0:_ZN7Digikam18EditorToolThreaded9setFilterEPNS_18DImgThreadedFilterE
libdigikamcore.so.7.3.0:_ZN7Digikam18EditorToolThreaded9slotAbortEv
libdigikamcore.so.7.3.0:_ZN7Digikam18EditorToolThreadedC1EP7QObject
libdigikamcore.so.7.3.0:_ZN7Digikam18EditorToolThreadedC2EP7QObject
libdigikamcore.so.7.3.0:_ZN7Digikam18EditorToolThreadedD0Ev
libdigikamcore.so.7.3.0:_ZN7Digikam18EditorToolThreadedD1Ev
libdigikamcore.so.7.3.0:_ZN7Digikam18EditorToolThreadedD2Ev
libdigikamcore.so.7.3.0:_ZN7Digikam18FileSaveOptionsBox11qt_metacallEN11QMetaObject4CallEiPPv
libdigikamcore.so.7.3.0:_ZN7Digikam18FileSaveOptionsBox11qt_metacastEPKc
libdigikamcore.so.7.3.0:_ZN7Digikam18FileSaveOptionsBox12readSettingsEv
libdigikamcore.so.7.3.0:_ZN7Digikam18FileSaveOptionsBox13applySettingsEv
libdigikamcore.so.7.3.0:_ZN7Digikam18FileSaveOptionsBox14discoverFormatERK7QStringNS_4DImg6FORMATE
libdigikamcore.so.7.3.0:_ZN7Digikam18FileSaveOptionsBox16staticMetaObjectE
libdigikamcore.so.7.3.0:_ZN7Digikam18FileSaveOptionsBox18setImageFileFormatERK7QString
libdigikamcore.so.7.3.0:_ZN7Digikam18FileSaveOptionsBoxC1EP7QWidget
libdigikamcore.so.7.3.0:_ZN7Digikam18FileSaveOptionsBoxC2EP7QWidget
libdigikamcore.so.7.3.0:_ZN7Digikam18FileSaveOptionsBoxD0Ev
libdigikamcore.so.7.3.0:_ZN7Digikam18FileSaveOptionsBoxD1Ev
libdigikamcore.so.7.3.0:_ZN7Digikam18FileSaveOptionsBoxD2Ev
libdigikamcore.so.7.3.0:_ZN7Digikam18FileSaveOptionsDlg11qt_metacallEN11QMetaObject4CallEiPPv
libdigikamcore.so.7.3.0:_ZN7Digikam18FileSaveOptionsDlg11qt_metacastEPKc
libdigikamcore.so.7.3.0:_ZN7Digikam18FileSaveOptionsDlg16staticMetaObjectE
libdigikamcore.so.7.3.0:_ZN7Digikam18FileSaveOptionsDlgC1EP7QWidgetPNS_18FileSaveOptionsBoxE
libdigikamcore.so.7.3.0:_ZN7Digikam18FileSaveOptionsDlgC2EP7QWidgetPNS_18FileSaveOptionsBoxE
libdigikamcore.so.7.3.0:_ZN7Digikam18FileSaveOptionsDlgD0Ev
libdigikamcore.so.7.3.0:_ZN7Digikam18FileSaveOptionsDlgD1Ev
libdigikamcore.so.7.3.0:_ZN7Digikam18FileSaveOptionsDlgD2Ev
libdigikamcore.so.7.3.0:_ZN7Digikam18FilterActionFilter11filterImageEv
libdigikamcore.so.7.3.0:_ZN7Digikam18FilterActionFilter11qt_metacallEN11QMetaObject4CallEiPPv
libdigikamcore.so.7.3.0:_ZN7Digikam18FilterActionFilter11qt_metacastEPKc
libdigikamcore.so.7.3.0:_ZN7Digikam18FilterActionFilter15addFilterActionERKNS_12FilterActionE
libdigikamcore.so.7.3.0:_ZN7Digikam18FilterActionFilter15setFilterActionERKNS_12FilterActionE
libdigikamcore.so.7.3.0:_ZN7Digikam18FilterActionFilter16addFilterActionsERK5QListINS_12FilterActionEE
libdigikamcore.so.7.3.0:_ZN7Digikam18FilterActionFilter16setFilterActionsERK5QListINS_12FilterActionEE
libdigikamcore.so.7.3.0:_ZN7Digikam18FilterActionFilter16staticMetaObjectE
libdigikamcore.so.7.3.0:_ZN7Digikam18FilterActionFilter18setContinueOnErrorEb
libdigikamcore.so.7.3.0:_ZN7Digikam18FilterActionFilterC1EP7QObject
libdigikamcore.so.7.3.0:_ZN7Digikam18FilterActionFilterC2EP7QObject
libdigikamcore.so.7.3.0:_ZN7Digikam18FilterActionFilterD0Ev
libdigikamcore.so.7.3.0:_ZN7Digikam18FilterActionFilterD1Ev
libdigikamcore.so.7.3.0:_ZN7Digikam18FilterActionFilterD2Ev
libdigikamcore.so.7.3.0:_ZN7Digikam18FreeRotationFilter11filterImageEv
libdigikamcore.so.7.3.0:_ZN7Digikam18FreeRotationFilter11qt_metacallEN11QMetaObject4CallEiPPv
libdigikamcore.so.7.3.0:_ZN7Digikam18FreeRotationFilter11qt_metacastEPKc
libdigikamcore.so.7.3.0:_ZN7Digikam18FreeRotationFilter12filterActionEv
libdigikamcore.so.7.3.0:_ZN7Digikam18FreeRotationFilter14calculateAngleERK6QPointS3_
libdigikamcore.so.7.3.0:_ZN7Digikam18FreeRotationFilter14calculateAngleEiiii
libdigikamcore.so.7.3.0:_ZN7Digikam18FreeRotationFilter14readParametersERKNS_12FilterActionE
libdigikamcore.so.7.3.0:_ZN7Digikam18FreeRotationFilter15DisplayableNameEv
libdigikamcore.so.7.3.0:_ZN7Digikam18FreeRotationFilter16staticMetaObjectE
libdigikamcore.so.7.3.0:_ZN7Digikam18FreeRotationFilterC1EP7QObject
libdigikamcore.so.7.3.0:_ZN7Digikam18FreeRotationFilterC1EPNS_4DImgEP7QObjectRKNS_21FreeRotationContainerE
libdigikamcore.so.7.3.0:_ZN7Digikam18FreeRotationFilterC2EP7QObject
libdigikamcore.so.7.3.0:_ZN7Digikam18FreeRotationFilterC2EPNS_4DImgEP7QObjectRKNS_21FreeRotationContainerE
libdigikamcore.so.7.3.0:_ZN7Digikam18FreeRotationFilterD0Ev
libdigikamcore.so.7.3.0:_ZN7Digikam18FreeRotationFilterD1Ev
libdigikamcore.so.7.3.0:_ZN7Digikam18FreeRotationFilterD2Ev
libdigikamcore.so.7.3.0:_ZN7Digikam18FullScreenSettings11qt_metacallEN11QMetaObject4CallEiPPv
libdigikamcore.so.7.3.0:_ZN7Digikam18FullScreenSettings11qt_metacastEPKc
libdigikamcore.so.7.3.0:_ZN7Digikam18FullScreenSettings12readSettingsERK12KConfigGroup
libdigikamcore.so.7.3.0:_ZN7Digikam18FullScreenSettings12saveSettingsER12KConfigGroup
libdigikamcore.so.7.3.0:_ZN7Digikam18FullScreenSettings16staticMetaObjectE
libdigikamcore.so.7.3.0:_ZN7Digikam18FullScreenSettingsC1EiP7QWidget
libdigikamcore.so.7.3.0:_ZN7Digikam18FullScreenSettingsC2EiP7QWidget
libdigikamcore.so.7.3.0:_ZN7Digikam18FullScreenSettingsD0Ev
libdigikamcore.so.7.3.0:_ZN7Digikam18FullScreenSettingsD1Ev
libdigikamcore.so.7.3.0:_ZN7Digikam18FullScreenSettingsD2Ev
libdigikamcore.so.7.3.0:_ZN7Digikam18GeoDragDropHandler11qt_metacallEN11QMetaObject4CallEiPPv
libdigikamcore.so.7.3.0:_ZN7Digikam18GeoDragDropHandler11qt_metacastEPKc
libdigikamcore.so.7.3.0:_ZN7Digikam18GeoDragDropHandler16staticMetaObjectE
libdigikamcore.so.7.3.0:_ZN7Digikam18GeoDragDropHandlerC1EP7QObject
libdigikamcore.so.7.3.0:_ZN7Digikam18GeoDragDropHandlerC2EP7QObject
libdigikamcore.so.7.3.0:_ZN7Digikam18GeoDragDropHandlerD0Ev
libdigikamcore.so.7.3.0:_ZN7Digikam18GeoDragDropHandlerD1Ev
libdigikamcore.so.7.3.0:_ZN7Digikam18GeoDragDropHandlerD2Ev
libdigikamcore.so.7.3.0:_ZN7Digikam18GeodeticCalculator12checkAzimuthEPd
libdigikamcore.so.7.3.0:_ZN7Digikam18GeodeticCalculator12setDirectionEdd
libdigikamcore.so.7.3.0:_ZN7Digikam18GeodeticCalculator13checkLatitudeEPd
libdigikamcore.so.7.3.0:_ZN7Digikam18GeodeticCalculator14checkLongitudeEPd
libdigikamcore.so.7.3.0:_ZN7Digikam18GeodeticCalculator16castToAngleRangeEd
libdigikamcore.so.7.3.0:_ZN7Digikam18GeodeticCalculator16computeDirectionEv
libdigikamcore.so.7.3.0:_ZN7Digikam18GeodeticCalculator17meridianArcLengthEdd
libdigikamcore.so.7.3.0:_ZN7Digikam18GeodeticCalculator19orthodromicDistanceEv
libdigikamcore.so.7.3.0:_ZN7Digikam18GeodeticCalculator23computeDestinationPointEv
libdigikamcore.so.7.3.0:_ZN7Digikam18GeodeticCalculator24checkOrthodromicDistanceEd
libdigikamcore.so.7.3.0:_ZN7Digikam18GeodeticCalculator24checkOrthodromicDistanceEv
libdigikamcore.so.7.3.0:_ZN7Digikam18GeodeticCalculator24meridianArcLengthRadiansEdd
libdigikamcore.so.7.3.0:_ZN7Digikam18GeodeticCalculator26destinationGeographicPointEPdS1_
libdigikamcore.so.7.3.0:_ZN7Digikam18GeodeticCalculator26destinationGeographicPointEv
libdigikamcore.so.7.3.0:_ZN7Digikam18GeodeticCalculator26setStartingGeographicPointEdd
libdigikamcore.so.7.3.0:_ZN7Digikam18GeodeticCalculator29setDestinationGeographicPointEdd
libdigikamcore.so.7.3.0:_ZN7Digikam18GeodeticCalculator7azimuthEv
libdigikamcore.so.7.3.0:_ZN7Digikam18GeodeticCalculatorC1ERKNS_9EllipsoidE
libdigikamcore.so.7.3.0:_ZN7Digikam18GeodeticCalculatorC2ERKNS_9EllipsoidE
libdigikamcore.so.7.3.0:_ZN7Digikam18GroupStateComputer16addSelectedStateE6QFlagsINS_17GeoGroupStateEnumEE
libdigikamcore.so.7.3.0:_ZN7Digikam18GroupStateComputer22addRegionSelectedStateE6QFlagsINS_17GeoGroupStateEnumEE
libdigikamcore.so.7.3.0:_ZN7Digikam18GroupStateComputer24addFilteredPositiveStateE6QFlagsINS_17GeoGroupStateEnumEE
libdigikamcore.so.7.3.0:_ZN7Digikam18GroupStateComputer5clearEv
libdigikamcore.so.7.3.0:_ZN7Digikam18GroupStateComputer8addStateE6QFlagsINS_17GeoGroupStateEnumEE
libdigikamcore.so.7.3.0:_ZN7Digikam18GroupStateComputerC1Ev
libdigikamcore.so.7.3.0:_ZN7Digikam18GroupStateComputerC2Ev
libdigikamcore.so.7.3.0:_ZN7Digikam18GroupStateComputerD0Ev
libdigikamcore.so.7.3.0:_ZN7Digikam18GroupStateComputerD1Ev
libdigikamcore.so.7.3.0:_ZN7Digikam18GroupStateComputerD2Ev
libdigikamcore.so.7.3.0:_ZN7Digikam18HidingStateChanger11changeValueERK8QVariant
libdigikamcore.so.7.3.0:_ZN7Digikam18HidingStateChanger11qt_metacallEN11QMetaObject4CallEiPPv
libdigikamcore.so.7.3.0:_ZN7Digikam18HidingStateChanger11qt_metacastEPKc
libdigikamcore.so.7.3.0:_ZN7Digikam18HidingStateChanger12stateChangedEv
libdigikamcore.so.7.3.0:_ZN7Digikam18HidingStateChanger15setPropertyNameERK10QByteArray
libdigikamcore.so.7.3.0:_ZN7Digikam18HidingStateChanger15setTargetObjectEP7QObject
libdigikamcore.so.7.3.0:_ZN7Digikam18HidingStateChanger16staticMetaObjectE
libdigikamcore.so.7.3.0:_ZN7Digikam18HidingStateChanger22slotPropertiesAssignedEb
libdigikamcore.so.7.3.0:_ZN7Digikam18HidingStateChanger8finishedEv
libdigikamcore.so.7.3.0:_ZN7Digikam18HidingStateChangerC1EP7QObject
libdigikamcore.so.7.3.0:_ZN7Digikam18HidingStateChangerC1EP7QObjectRK10QByteArrayS2_
libdigikamcore.so.7.3.0:_ZN7Digikam18HidingStateChangerC2EP7QObject
libdigikamcore.so.7.3.0:_ZN7Digikam18HidingStateChangerC2EP7QObjectRK10QByteArrayS2_
libdigikamcore.so.7.3.0:_ZN7Digikam18IccTransformFilter11filterImageEv
libdigikamcore.so.7.3.0:_ZN7Digikam18IccTransformFilter11qt_metacallEN11QMetaObject4CallEiPPv
libdigikamcore.so.7.3.0:_ZN7Digikam18IccTransformFilter11qt_metacastEPKc
libdigikamcore.so.7.3.0:_ZN7Digikam18IccTransformFilter12filterActionEv
libdigikamcore.so.7.3.0:_ZN7Digikam18IccTransformFilter12progressInfoEf
libdigikamcore.so.7.3.0:_ZN7Digikam18IccTransformFilter14readParametersERKNS_12FilterActionE
libdigikamcore.so.7.3.0:_ZN7Digikam18IccTransformFilter15DisplayableNameEv
libdigikamcore.so.7.3.0:_ZN7Digikam18IccTransformFilter16staticMetaObjectE
libdigikamcore.so.7.3.0:_ZN7Digikam18IccTransformFilterC1EP7QObject
libdigikamcore.so.7.3.0:_ZN7Digikam18IccTransformFilterC1EPNS_4DImgEP7QObjectRKNS_12IccTransformE
libdigikamcore.so.7.3.0:_ZN7Digikam18IccTransformFilterC2EP7QObject
libdigikamcore.so.7.3.0:_ZN7Digikam18IccTransformFilterC2EPNS_4DImgEP7QObjectRKNS_12IccTransformE
libdigikamcore.so.7.3.0:_ZN7Digikam18IccTransformFilterD0Ev
libdigikamcore.so.7.3.0:_ZN7Digikam18IccTransformFilterD1Ev
libdigikamcore.so.7.3.0:_ZN7Digikam18IccTransformFilterD2Ev
libdigikamcore.so.7.3.0:_ZN7Digikam18ImageDialogPreview11qt_metacallEN11QMetaObject4CallEiPPv
libdigikamcore.so.7.3.0:_ZN7Digikam18ImageDialogPreview11qt_metacastEPKc
libdigikamcore.so.7.3.0:_ZN7Digikam18ImageDialogPreview11resizeEventEP12QResizeEvent
libdigikamcore.so.7.3.0:_ZN7Digikam18ImageDialogPreview11showPreviewEv
libdigikamcore.so.7.3.0:_ZN7Digikam18ImageDialogPreview13slotThumbnailERKNS_18LoadingDescriptionERK7QPixmap
libdigikamcore.so.7.3.0:_ZN7Digikam18ImageDialogPreview15slotShowPreviewERK4QUrl
libdigikamcore.so.7.3.0:_ZN7Digikam18ImageDialogPreview16slotClearPreviewEv
libdigikamcore.so.7.3.0:_ZN7Digikam18ImageDialogPreview16staticMetaObjectE
libdigikamcore.so.7.3.0:_ZN7Digikam18ImageDialogPreviewC1EP7QWidget
libdigikamcore.so.7.3.0:_ZN7Digikam18ImageDialogPreviewC2EP7QWidget
libdigikamcore.so.7.3.0:_ZN7Digikam18ImageDialogPreviewD0Ev
libdigikamcore.so.7.3.0:_ZN7Digikam18ImageDialogPreviewD1Ev
libdigikamcore.so.7.3.0:_ZN7Digikam18ImageDialogPreviewD2Ev
libdigikamcore.so.7.3.0:_ZN7Digikam18ImageQualityParser12startAnalyseEv
libdigikamcore.so.7.3.0:_ZN7Digikam18ImageQualityParser13cancelAnalyseEv
libdigikamcore.so.7.3.0:_ZN7Digikam18ImageQualityParserC1ERKNS_4DImgERKNS_21ImageQualityContainerEPNS_9PickLabelE
libdigikamcore.so.7.3.0:_ZN7Digikam18ImageQualityParserC2ERKNS_4DImgERKNS_21ImageQualityContainerEPNS_9PickLabelE
libdigikamcore.so.7.3.0:_ZN7Digikam18ImageQualityParserD1Ev
libdigikamcore.so.7.3.0:_ZN7Digikam18ImageQualityParserD2Ev
libdigikamcore.so.7.3.0:_ZN7Digikam18LoadingDescription17PreviewParametersC1Ev
libdigikamcore.so.7.3.0:_ZN7Digikam18LoadingDescription17PreviewParametersC2Ev
libdigikamcore.so.7.3.0:_ZN7Digikam18LoadingDescription17possibleCacheKeysERK7QString
libdigikamcore.so.7.3.0:_ZN7Digikam18LoadingDescription24PostProcessingParameters10setProfileERKNS_10IccProfileE
libdigikamcore.so.7.3.0:_ZN7Digikam18LoadingDescription24PostProcessingParameters12setTransformERKNS_12IccTransformE
libdigikamcore.so.7.3.0:_ZN7Digikam18LoadingDescription26possibleThumbnailCacheKeysERK7QString
libdigikamcore.so.7.3.0:_ZN7Digikam18LoadingDescriptionC1ERK7QStringNS0_23ColorManagementSettingsE
libdigikamcore.so.7.3.0:_ZN7Digikam18LoadingDescriptionC1ERK7QStringRKNS_12DRawDecodingENS0_15RawDecodingHintENS0_23ColorManagementSettingsE
libdigikamcore.so.7.3.0:_ZN7Digikam18LoadingDescriptionC1ERK7QStringRKNS_15PreviewSettingsEiNS0_23ColorManagementSettingsENS0_17PreviewParameters11PreviewTypeE
libdigikamcore.so.7.3.0:_ZN7Digikam18LoadingDescriptionC1Ev
libdigikamcore.so.7.3.0:_ZN7Digikam18LoadingDescriptionC2ERK7QStringNS0_23ColorManagementSettingsE
libdigikamcore.so.7.3.0:_ZN7Digikam18LoadingDescriptionC2ERK7QStringRKNS_12DRawDecodingENS0_15RawDecodingHintENS0_23ColorManagementSettingsE
libdigikamcore.so.7.3.0:_ZN7Digikam18LoadingDescriptionC2ERK7QStringRKNS_15PreviewSettingsEiNS0_23ColorManagementSettingsENS0_17PreviewParameters11PreviewTypeE
libdigikamcore.so.7.3.0:_ZN7Digikam18LoadingDescriptionC2Ev
libdigikamcore.so.7.3.0:_ZN7Digikam18MapDragDropHandler11qt_metacallEN11QMetaObject4CallEiPPv
libdigikamcore.so.7.3.0:_ZN7Digikam18MapDragDropHandler11qt_metacastEPKc
libdigikamcore.so.7.3.0:_ZN7Digikam18MapDragDropHandler14createMimeDataERK5QListI21QPersistentModelIndexE
libdigikamcore.so.7.3.0:_ZN7Digikam18MapDragDropHandler16staticMetaObjectE
libdigikamcore.so.7.3.0:_ZN7Digikam18MapDragDropHandler7acceptsEPK10QDropEvent
libdigikamcore.so.7.3.0:_ZN7Digikam18MapDragDropHandler9dropEventEPK10QDropEventRKNS_14GeoCoordinatesE
libdigikamcore.so.7.3.0:_ZN7Digikam18MapDragDropHandlerC1EP18QAbstractItemModelPNS_22GPSGeoIfaceModelHelperE
libdigikamcore.so.7.3.0:_ZN7Digikam18MapDragDropHandlerC2EP18QAbstractItemModelPNS_22GPSGeoIfaceModelHelperE
libdigikamcore.so.7.3.0:_ZN7Digikam18MapDragDropHandlerD0Ev
libdigikamcore.so.7.3.0:_ZN7Digikam18MapDragDropHandlerD1Ev
libdigikamcore.so.7.3.0:_ZN7Digikam18MapDragDropHandlerD2Ev
libdigikamcore.so.7.3.0:_ZN7Digikam18MetaEnginePreviews13fileExtensionEi
libdigikamcore.so.7.3.0:_ZN7Digikam18MetaEnginePreviews4dataEi
libdigikamcore.so.7.3.0:_ZN7Digikam18MetaEnginePreviews5imageEi
libdigikamcore.so.7.3.0:_ZN7Digikam18MetaEnginePreviews5widthEi
libdigikamcore.so.7.3.0:_ZN7Digikam18MetaEnginePreviews6heightEi
libdigikamcore.so.7.3.0:_ZN7Digikam18MetaEnginePreviews7isEmptyEv
libdigikamcore.so.7.3.0:_ZN7Digikam18MetaEnginePreviews8dataSizeEi
libdigikamcore.so.7.3.0:_ZN7Digikam18MetaEnginePreviews8mimeTypeEi
libdigikamcore.so.7.3.0:_ZN7Digikam18MetaEnginePreviewsC1ERK10QByteArray
libdigikamcore.so.7.3.0:_ZN7Digikam18MetaEnginePreviewsC1ERK7QString
libdigikamcore.so.7.3.0:_ZN7Digikam18MetaEnginePreviewsC2ERK10QByteArray
libdigikamcore.so.7.3.0:_ZN7Digikam18MetaEnginePreviewsC2ERK7QString
libdigikamcore.so.7.3.0:_ZN7Digikam18MetaEnginePreviewsD1Ev
libdigikamcore.so.7.3.0:_ZN7Digikam18MetaEnginePreviewsD2Ev
libdigikamcore.so.7.3.0:_ZN7Digikam18MetaEngineRotation3setEiiii
libdigikamcore.so.7.3.0:_ZN7Digikam18MetaEngineRotation8toMatrixENS_10MetaEngine16ImageOrientationE
libdigikamcore.so.7.3.0:_ZN7Digikam18MetaEngineRotationC1ENS0_20TransformationActionE
libdigikamcore.so.7.3.0:_ZN7Digikam18MetaEngineRotationC1ENS_10MetaEngine16ImageOrientationE
libdigikamcore.so.7.3.0:_ZN7Digikam18MetaEngineRotationC1Eiiii
libdigikamcore.so.7.3.0:_ZN7Digikam18MetaEngineRotationC1Ev
libdigikamcore.so.7.3.0:_ZN7Digikam18MetaEngineRotationC2ENS0_20TransformationActionE
libdigikamcore.so.7.3.0:_ZN7Digikam18MetaEngineRotationC2ENS_10MetaEngine16ImageOrientationE
libdigikamcore.so.7.3.0:_ZN7Digikam18MetaEngineRotationC2Eiiii
libdigikamcore.so.7.3.0:_ZN7Digikam18MetaEngineRotationC2Ev
libdigikamcore.so.7.3.0:_ZN7Digikam18MetaEngineRotationmLE5QListINS0_20TransformationActionEE
libdigikamcore.so.7.3.0:_ZN7Digikam18MetaEngineRotationmLENS0_20TransformationActionE
libdigikamcore.so.7.3.0:_ZN7Digikam18MetaEngineRotationmLENS_10MetaEngine16ImageOrientationE
libdigikamcore.so.7.3.0:_ZN7Digikam18MetaEngineRotationmLERKS0_
libdigikamcore.so.7.3.0:_ZN7Digikam18MetaEngineSettings11qt_metacallEN11QMetaObject4CallEiPPv
libdigikamcore.so.7.3.0:_ZN7Digikam18MetaEngineSettings11qt_metacastEPKc
libdigikamcore.so.7.3.0:_ZN7Digikam18MetaEngineSettings11setSettingsERKNS_27MetaEngineSettingsContainerE
libdigikamcore.so.7.3.0:_ZN7Digikam18MetaEngineSettings14readFromConfigEv
libdigikamcore.so.7.3.0:_ZN7Digikam18MetaEngineSettings16staticMetaObjectE
libdigikamcore.so.7.3.0:_ZN7Digikam18MetaEngineSettings21signalSettingsChangedEv
libdigikamcore.so.7.3.0:_ZN7Digikam18MetaEngineSettings31signalMetaEngineSettingsChangedERKNS_27MetaEngineSettingsContainerES3_
libdigikamcore.so.7.3.0:_ZN7Digikam18MetaEngineSettings8instanceEv
libdigikamcore.so.7.3.0:_ZN7Digikam18MetaEngineSettingsC1Ev
libdigikamcore.so.7.3.0:_ZN7Digikam18MetaEngineSettingsC2Ev
libdigikamcore.so.7.3.0:_ZN7Digikam18MetaEngineSettingsD0Ev
libdigikamcore.so.7.3.0:_ZN7Digikam18MetaEngineSettingsD1Ev
libdigikamcore.so.7.3.0:_ZN7Digikam18MetaEngineSettingsD2Ev
libdigikamcore.so.7.3.0:_ZN7Digikam18ProxyClickLineEdit11leftClickedEv
libdigikamcore.so.7.3.0:_ZN7Digikam18ProxyClickLineEdit11qt_metacallEN11QMetaObject4CallEiPPv
libdigikamcore.so.7.3.0:_ZN7Digikam18ProxyClickLineEdit11qt_metacastEPKc
libdigikamcore.so.7.3.0:_ZN7Digikam18ProxyClickLineEdit16staticMetaObjectE
libdigikamcore.so.7.3.0:_ZN7Digikam18ProxyClickLineEdit17mouseReleaseEventEP11QMouseEvent
libdigikamcore.so.7.3.0:_ZN7Digikam18ProxyClickLineEditC1EP7QWidget
libdigikamcore.so.7.3.0:_ZN7Digikam18ProxyClickLineEditC2EP7QWidget
libdigikamcore.so.7.3.0:_ZN7Digikam18TimeAdjustSettings11qt_metacallEN11QMetaObject4CallEiPPv
libdigikamcore.so.7.3.0:_ZN7Digikam18TimeAdjustSettings11qt_metacastEPKc
libdigikamcore.so.7.3.0:_ZN7Digikam18TimeAdjustSettings11setSettingsERKNS_19TimeAdjustContainerE
libdigikamcore.so.7.3.0:_ZN7Digikam18TimeAdjustSettings16staticMetaObjectE
libdigikamcore.so.7.3.0:_ZN7Digikam18TimeAdjustSettings21signalSettingsChangedEv
libdigikamcore.so.7.3.0:_ZN7Digikam18TimeAdjustSettings22slotResetDateToCurrentEv
libdigikamcore.so.7.3.0:_ZN7Digikam18TimeAdjustSettings23slotSrcTimestampChangedEv
libdigikamcore.so.7.3.0:_ZN7Digikam18TimeAdjustSettings25signalSettingsChangedToolEv
libdigikamcore.so.7.3.0:_ZN7Digikam18TimeAdjustSettings25slotAdjustmentTypeChangedEv
libdigikamcore.so.7.3.0:_ZN7Digikam18TimeAdjustSettings28detAdjustmentByClockPhotoUrlERK4QUrl
libdigikamcore.so.7.3.0:_ZN7Digikam18TimeAdjustSettings32slotDetAdjustmentByClockPhotoUrlERK4QUrl
libdigikamcore.so.7.3.0:_ZN7Digikam18TimeAdjustSettings35slotDetAdjustmentByClockPhotoDialogEv
libdigikamcore.so.7.3.0:_ZN7Digikam18TimeAdjustSettingsC1EP7QWidgetb
libdigikamcore.so.7.3.0:_ZN7Digikam18TimeAdjustSettingsC2EP7QWidgetb
libdigikamcore.so.7.3.0:_ZN7Digikam18TimeAdjustSettingsD0Ev
libdigikamcore.so.7.3.0:_ZN7Digikam18TimeAdjustSettingsD1Ev
libdigikamcore.so.7.3.0:_ZN7Digikam18TimeAdjustSettingsD2Ev
libdigikamcore.so.7.3.0:_ZN7Digikam18VideoInfoContainerC1Ev
libdigikamcore.so.7.3.0:_ZN7Digikam18VideoInfoContainerC2Ev
libdigikamcore.so.7.3.0:_ZN7Digikam18VideoInfoContainerD1Ev
libdigikamcore.so.7.3.0:_ZN7Digikam18VideoInfoContainerD2Ev
libdigikamcore.so.7.3.0:_ZN7Digikam19AbstractMarkerTiler10tileDeleteEPNS0_4TileE
libdigikamcore.so.7.3.0:_ZN7Digikam19AbstractMarkerTiler11qt_metacallEN11QMetaObject4CallEiPPv
libdigikamcore.so.7.3.0:_ZN7Digikam19AbstractMarkerTiler11qt_metacastEPKc
libdigikamcore.so.7.3.0:_ZN7Digikam19AbstractMarkerTiler13resetRootTileEv
libdigikamcore.so.7.3.0:_ZN7Digikam19AbstractMarkerTiler14onIndicesMovedERK5QListINS_9TileIndexEERKNS_14GeoCoordinatesERK21QPersistentModelIndex
libdigikamcore.so.7.3.0:_ZN7Digikam19AbstractMarkerTiler15tileDeleteChildEPNS0_4TileES2_i
libdigikamcore.so.7.3.0:_ZN7Digikam19AbstractMarkerTiler16NonEmptyIterator20initializeNextBoundsEv
libdigikamcore.so.7.3.0:_ZN7Digikam19AbstractMarkerTiler16NonEmptyIterator9nextIndexEv
libdigikamcore.so.7.3.0:_ZN7Digikam19AbstractMarkerTiler16NonEmptyIteratorC1EPS0_i
libdigikamcore.so.7.3.0:_ZN7Digikam19AbstractMarkerTiler16NonEmptyIteratorC1EPS0_iRK5QListI5QPairINS_14GeoCoordinatesES5_EE
libdigikamcore.so.7.3.0:_ZN7Digikam19AbstractMarkerTiler16NonEmptyIteratorC1EPS0_iRKNS_9TileIndexES5_
libdigikamcore.so.7.3.0:_ZN7Digikam19AbstractMarkerTiler16NonEmptyIteratorC2EPS0_i
libdigikamcore.so.7.3.0:_ZN7Digikam19AbstractMarkerTiler16NonEmptyIteratorC2EPS0_iRK5QListI5QPairINS_14GeoCoordinatesES5_EE
libdigikamcore.so.7.3.0:_ZN7Digikam19AbstractMarkerTiler16NonEmptyIteratorC2EPS0_iRKNS_9TileIndexES5_
libdigikamcore.so.7.3.0:_ZN7Digikam19AbstractMarkerTiler16NonEmptyIteratorD1Ev
libdigikamcore.so.7.3.0:_ZN7Digikam19AbstractMarkerTiler16NonEmptyIteratorD2Ev
libdigikamcore.so.7.3.0:_ZN7Digikam19AbstractMarkerTiler16onIndicesClickedERKNS0_9ClickInfoE
libdigikamcore.so.7.3.0:_ZN7Digikam19AbstractMarkerTiler16staticMetaObjectE
libdigikamcore.so.7.3.0:_ZN7Digikam19AbstractMarkerTiler18tileDeleteChildrenEPNS0_4TileE
libdigikamcore.so.7.3.0:_ZN7Digikam19AbstractMarkerTiler18tileDeleteInternalEPNS0_4TileE
libdigikamcore.so.7.3.0:_ZN7Digikam19AbstractMarkerTiler29signalTilesOrSelectionChangedEv
libdigikamcore.so.7.3.0:_ZN7Digikam19AbstractMarkerTiler32signalThumbnailAvailableForIndexERK8QVariantRK7QPixmap
libdigikamcore.so.7.3.0:_ZN7Digikam19AbstractMarkerTiler4Tile10clearChildEi
libdigikamcore.so.7.3.0:_ZN7Digikam19AbstractMarkerTiler4Tile12takeChildrenEv
libdigikamcore.so.7.3.0:_ZN7Digikam19AbstractMarkerTiler4Tile13maxChildCountEv
libdigikamcore.so.7.3.0:_ZN7Digikam19AbstractMarkerTiler4Tile16indexOfChildTileEPS1_
libdigikamcore.so.7.3.0:_ZN7Digikam19AbstractMarkerTiler4Tile18prepareForChildrenEv
libdigikamcore.so.7.3.0:_ZN7Digikam19AbstractMarkerTiler4Tile8addChildEiPS1_
libdigikamcore.so.7.3.0:_ZN7Digikam19AbstractMarkerTiler4Tile8getChildEi
libdigikamcore.so.7.3.0:_ZN7Digikam19AbstractMarkerTiler4TileC1Ev
libdigikamcore.so.7.3.0:_ZN7Digikam19AbstractMarkerTiler4TileC2Ev
libdigikamcore.so.7.3.0:_ZN7Digikam19AbstractMarkerTiler4TileD1Ev
libdigikamcore.so.7.3.0:_ZN7Digikam19AbstractMarkerTiler4TileD2Ev
libdigikamcore.so.7.3.0:_ZN7Digikam19AbstractMarkerTiler5clearEv
libdigikamcore.so.7.3.0:_ZN7Digikam19AbstractMarkerTiler7tileNewEv
libdigikamcore.so.7.3.0:_ZN7Digikam19AbstractMarkerTiler8rootTileEv
libdigikamcore.so.7.3.0:_ZN7Digikam19AbstractMarkerTiler8setDirtyEb
libdigikamcore.so.7.3.0:_ZN7Digikam19AbstractMarkerTilerC1EP7QObject
libdigikamcore.so.7.3.0:_ZN7Digikam19AbstractMarkerTilerC2EP7QObject
libdigikamcore.so.7.3.0:_ZN7Digikam19AbstractMarkerTilerD0Ev
libdigikamcore.so.7.3.0:_ZN7Digikam19AbstractMarkerTilerD1Ev
libdigikamcore.so.7.3.0:_ZN7Digikam19AbstractMarkerTilerD2Ev
libdigikamcore.so.7.3.0:_ZN7Digikam19BackendGeonamesUSRG11backendNameEv
libdigikamcore.so.7.3.0:_ZN7Digikam19BackendGeonamesUSRG11qt_metacallEN11QMetaObject4CallEiPPv
libdigikamcore.so.7.3.0:_ZN7Digikam19BackendGeonamesUSRG11qt_metacastEPKc
libdigikamcore.so.7.3.0:_ZN7Digikam19BackendGeonamesUSRG12slotFinishedEP13QNetworkReply
libdigikamcore.so.7.3.0:_ZN7Digikam19BackendGeonamesUSRG13callRGBackendERK5QListINS_6RGInfoEERK7QString
libdigikamcore.so.7.3.0:_ZN7Digikam19BackendGeonamesUSRG14cancelRequestsEv
libdigikamcore.so.7.3.0:_ZN7Digikam19BackendGeonamesUSRG15getErrorMessageEv
libdigikamcore.so.7.3.0:_ZN7Digikam19BackendGeonamesUSRG15makeQMapFromXMLERK7QString
libdigikamcore.so.7.3.0:_ZN7Digikam19BackendGeonamesUSRG16staticMetaObjectE
libdigikamcore.so.7.3.0:_ZN7Digikam19BackendGeonamesUSRG9nextPhotoEv
libdigikamcore.so.7.3.0:_ZN7Digikam19BackendGeonamesUSRGC1EP7QObject
libdigikamcore.so.7.3.0:_ZN7Digikam19BackendGeonamesUSRGC2EP7QObject
libdigikamcore.so.7.3.0:_ZN7Digikam19BackendGeonamesUSRGD0Ev
libdigikamcore.so.7.3.0:_ZN7Digikam19BackendGeonamesUSRGD1Ev
libdigikamcore.so.7.3.0:_ZN7Digikam19BackendGeonamesUSRGD2Ev
libdigikamcore.so.7.3.0:_ZN7Digikam19ColorGradientWidget10paintEventEP11QPaintEvent
libdigikamcore.so.7.3.0:_ZN7Digikam19ColorGradientWidget11qt_metacallEN11QMetaObject4CallEiPPv
libdigikamcore.so.7.3.0:_ZN7Digikam19ColorGradientWidget11qt_metacastEPKc
libdigikamcore.so.7.3.0:_ZN7Digikam19ColorGradientWidget16staticMetaObjectE
libdigikamcore.so.7.3.0:_ZN7Digikam19ColorGradientWidget9setColorsERK6QColorS3_
libdigikamcore.so.7.3.0:_ZN7Digikam19ColorGradientWidgetC1EN2Qt11OrientationEiP7QWidget
libdigikamcore.so.7.3.0:_ZN7Digikam19ColorGradientWidgetC2EN2Qt11OrientationEiP7QWidget
libdigikamcore.so.7.3.0:_ZN7Digikam19ColorGradientWidgetD0Ev
libdigikamcore.so.7.3.0:_ZN7Digikam19ColorGradientWidgetD1Ev
libdigikamcore.so.7.3.0:_ZN7Digikam19ColorGradientWidgetD2Ev
libdigikamcore.so.7.3.0:_ZN7Digikam19DColorValueSelector11drawPaletteEP7QPixmap
libdigikamcore.so.7.3.0:_ZN7Digikam19DColorValueSelector11qt_metacallEN11QMetaObject4CallEiPPv
libdigikamcore.so.7.3.0:_ZN7Digikam19DColorValueSelector11qt_metacastEPKc
libdigikamcore.so.7.3.0:_ZN7Digikam19DColorValueSelector11resizeEventEP12QResizeEvent
libdigikamcore.so.7.3.0:_ZN7Digikam19DColorValueSelector12drawContentsEP8QPainter
libdigikamcore.so.7.3.0:_ZN7Digikam19DColorValueSelector13setColorValueEi
libdigikamcore.so.7.3.0:_ZN7Digikam19DColorValueSelector13setSaturationEi
libdigikamcore.so.7.3.0:_ZN7Digikam19DColorValueSelector14setChooserModeENS_17DColorChooserModeE
libdigikamcore.so.7.3.0:_ZN7Digikam19DColorValueSelector14updateContentsEv
libdigikamcore.so.7.3.0:_ZN7Digikam19DColorValueSelector16staticMetaObjectE
libdigikamcore.so.7.3.0:_ZN7Digikam19DColorValueSelector6setHueEi
libdigikamcore.so.7.3.0:_ZN7Digikam19DColorValueSelectorC1EN2Qt11OrientationEP7QWidget
libdigikamcore.so.7.3.0:_ZN7Digikam19DColorValueSelectorC1EP7QWidget
libdigikamcore.so.7.3.0:_ZN7Digikam19DColorValueSelectorC2EN2Qt11OrientationEP7QWidget
libdigikamcore.so.7.3.0:_ZN7Digikam19DColorValueSelectorC2EP7QWidget
libdigikamcore.so.7.3.0:_ZN7Digikam19DColorValueSelectorD0Ev
libdigikamcore.so.7.3.0:_ZN7Digikam19DColorValueSelectorD1Ev
libdigikamcore.so.7.3.0:_ZN7Digikam19DColorValueSelectorD2Ev
libdigikamcore.so.7.3.0:_ZN7Digikam19DImgFilterGenerator11isSupportedERK7QString
libdigikamcore.so.7.3.0:_ZN7Digikam19DImgFilterGenerator11isSupportedERK7QStringi
libdigikamcore.so.7.3.0:_ZN7Digikam19DNotificationWidget10paintEventEP11QPaintEvent
libdigikamcore.so.7.3.0:_ZN7Digikam19DNotificationWidget10timerEventEP11QTimerEvent
libdigikamcore.so.7.3.0:_ZN7Digikam19DNotificationWidget11linkHoveredERK7QString
libdigikamcore.so.7.3.0:_ZN7Digikam19DNotificationWidget11qt_metacallEN11QMetaObject4CallEiPPv
libdigikamcore.so.7.3.0:_ZN7Digikam19DNotificationWidget11qt_metacastEPKc
libdigikamcore.so.7.3.0:_ZN7Digikam19DNotificationWidget11resizeEventEP12QResizeEvent
libdigikamcore.so.7.3.0:_ZN7Digikam19DNotificationWidget11setWordWrapEb
libdigikamcore.so.7.3.0:_ZN7Digikam19DNotificationWidget12animatedHideEv
libdigikamcore.so.7.3.0:_ZN7Digikam19DNotificationWidget12animatedShowEv
libdigikamcore.so.7.3.0:_ZN7Digikam19DNotificationWidget12removeActionEP7QAction
libdigikamcore.so.7.3.0:_ZN7Digikam19DNotificationWidget13linkActivatedERK7QString
libdigikamcore.so.7.3.0:_ZN7Digikam19DNotificationWidget14setMessageTypeENS0_11MessageTypeE
libdigikamcore.so.7.3.0:_ZN7Digikam19DNotificationWidget15clearAllActionsEv
libdigikamcore.so.7.3.0:_ZN7Digikam19DNotificationWidget16staticMetaObjectE
libdigikamcore.so.7.3.0:_ZN7Digikam19DNotificationWidget21hideAnimationFinishedEv
libdigikamcore.so.7.3.0:_ZN7Digikam19DNotificationWidget21setCloseButtonVisibleEb
libdigikamcore.so.7.3.0:_ZN7Digikam19DNotificationWidget21showAnimationFinishedEv
libdigikamcore.so.7.3.0:_ZN7Digikam19DNotificationWidget22animatedShowTemporizedEi
libdigikamcore.so.7.3.0:_ZN7Digikam19DNotificationWidget5eventEP6QEvent
libdigikamcore.so.7.3.0:_ZN7Digikam19DNotificationWidget7setIconERK5QIcon
libdigikamcore.so.7.3.0:_ZN7Digikam19DNotificationWidget7setTextERK7QString
libdigikamcore.so.7.3.0:_ZN7Digikam19DNotificationWidget9addActionEP7QAction
libdigikamcore.so.7.3.0:_ZN7Digikam19DNotificationWidgetC1EP7QWidget
libdigikamcore.so.7.3.0:_ZN7Digikam19DNotificationWidgetC1ERK7QStringP7QWidget
libdigikamcore.so.7.3.0:_ZN7Digikam19DNotificationWidgetC2EP7QWidget
libdigikamcore.so.7.3.0:_ZN7Digikam19DNotificationWidgetC2ERK7QStringP7QWidget
libdigikamcore.so.7.3.0:_ZN7Digikam19DNotificationWidgetD0Ev
libdigikamcore.so.7.3.0:_ZN7Digikam19DNotificationWidgetD1Ev
libdigikamcore.so.7.3.0:_ZN7Digikam19DNotificationWidgetD2Ev
libdigikamcore.so.7.3.0:_ZN7Digikam19DPluginConfViewDImg11loadPluginsEv
libdigikamcore.so.7.3.0:_ZN7Digikam19DPluginConfViewDImg11qt_metacallEN11QMetaObject4CallEiPPv
libdigikamcore.so.7.3.0:_ZN7Digikam19DPluginConfViewDImg11qt_metacastEPKc
libdigikamcore.so.7.3.0:_ZN7Digikam19DPluginConfViewDImg16staticMetaObjectE
libdigikamcore.so.7.3.0:_ZN7Digikam19DPluginConfViewDImgC1EP7QWidget
libdigikamcore.so.7.3.0:_ZN7Digikam19DPluginConfViewDImgC2EP7QWidget
libdigikamcore.so.7.3.0:_ZN7Digikam19DPluginConfViewDImgD0Ev
libdigikamcore.so.7.3.0:_ZN7Digikam19DPluginConfViewDImgD1Ev
libdigikamcore.so.7.3.0:_ZN7Digikam19DPluginConfViewDImgD2Ev
libdigikamcore.so.7.3.0:_ZN7Digikam19DRawDecoderSettings19optimizeTimeLoadingEv
libdigikamcore.so.7.3.0:_ZN7Digikam19DRawDecoderSettingsC1ERKS0_
libdigikamcore.so.7.3.0:_ZN7Digikam19DRawDecoderSettingsC1Ev
libdigikamcore.so.7.3.0:_ZN7Digikam19DRawDecoderSettingsC2ERKS0_
libdigikamcore.so.7.3.0:_ZN7Digikam19DRawDecoderSettingsC2Ev
libdigikamcore.so.7.3.0:_ZN7Digikam19DRawDecoderSettingsD1Ev
libdigikamcore.so.7.3.0:_ZN7Digikam19DRawDecoderSettingsD2Ev
libdigikamcore.so.7.3.0:_ZN7Digikam19DRawDecoderSettingsaSERKS0_
libdigikamcore.so.7.3.0:_ZN7Digikam19DSaveSettingsWidget11qt_metacallEN11QMetaObject4CallEiPPv
libdigikamcore.so.7.3.0:_ZN7Digikam19DSaveSettingsWidget11qt_metacastEPKc
libdigikamcore.so.7.3.0:_ZN7Digikam19DSaveSettingsWidget12readSettingsER12KConfigGroup
libdigikamcore.so.7.3.0:_ZN7Digikam19DSaveSettingsWidget13setFileFormatENS0_12OutputFormatE
libdigikamcore.so.7.3.0:_ZN7Digikam19DSaveSettingsWidget13writeSettingsER12KConfigGroup
libdigikamcore.so.7.3.0:_ZN7Digikam19DSaveSettingsWidget14resetToDefaultEv
libdigikamcore.so.7.3.0:_ZN7Digikam19DSaveSettingsWidget15setConflictRuleENS_19FileSaveConflictBox12ConflictRuleE
libdigikamcore.so.7.3.0:_ZN7Digikam19DSaveSettingsWidget16staticMetaObjectE
libdigikamcore.so.7.3.0:_ZN7Digikam19DSaveSettingsWidget18extensionForFormatENS0_12OutputFormatE
libdigikamcore.so.7.3.0:_ZN7Digikam19DSaveSettingsWidget23setCustomSettingsWidgetEP7QWidget
libdigikamcore.so.7.3.0:_ZN7Digikam19DSaveSettingsWidget23signalSaveFormatChangedEv
libdigikamcore.so.7.3.0:_ZN7Digikam19DSaveSettingsWidget23slotPopulateImageFormatEb
libdigikamcore.so.7.3.0:_ZN7Digikam19DSaveSettingsWidget27signalConflictButtonChangedEi
libdigikamcore.so.7.3.0:_ZN7Digikam19DSaveSettingsWidgetC1EP7QWidget
libdigikamcore.so.7.3.0:_ZN7Digikam19DSaveSettingsWidgetC2EP7QWidget
libdigikamcore.so.7.3.0:_ZN7Digikam19DSaveSettingsWidgetD0Ev
libdigikamcore.so.7.3.0:_ZN7Digikam19DSaveSettingsWidgetD1Ev
libdigikamcore.so.7.3.0:_ZN7Digikam19DSaveSettingsWidgetD2Ev
libdigikamcore.so.7.3.0:_ZN7Digikam19DSqueezedClickLabel11leftClickedEv
libdigikamcore.so.7.3.0:_ZN7Digikam19DSqueezedClickLabel11qt_metacallEN11QMetaObject4CallEiPPv
libdigikamcore.so.7.3.0:_ZN7Digikam19DSqueezedClickLabel11qt_metacastEPKc
libdigikamcore.so.7.3.0:_ZN7Digikam19DSqueezedClickLabel13keyPressEventEP9QKeyEvent
libdigikamcore.so.7.3.0:_ZN7Digikam19DSqueezedClickLabel15mousePressEventEP11QMouseEvent
libdigikamcore.so.7.3.0:_ZN7Digikam19DSqueezedClickLabel16staticMetaObjectE
libdigikamcore.so.7.3.0:_ZN7Digikam19DSqueezedClickLabel17mouseReleaseEventEP11QMouseEvent
libdigikamcore.so.7.3.0:_ZN7Digikam19DSqueezedClickLabel9activatedEv
libdigikamcore.so.7.3.0:_ZN7Digikam19DSqueezedClickLabelC1EP7QWidget
libdigikamcore.so.7.3.0:_ZN7Digikam19DSqueezedClickLabelC1ERK7QStringP7QWidget
libdigikamcore.so.7.3.0:_ZN7Digikam19DSqueezedClickLabelC2EP7QWidget
libdigikamcore.so.7.3.0:_ZN7Digikam19DSqueezedClickLabelC2ERK7QStringP7QWidget
libdigikamcore.so.7.3.0:_ZN7Digikam19DSqueezedClickLabelD0Ev
libdigikamcore.so.7.3.0:_ZN7Digikam19DSqueezedClickLabelD1Ev
libdigikamcore.so.7.3.0:_ZN7Digikam19DSqueezedClickLabelD2Ev
libdigikamcore.so.7.3.0:_ZN7Digikam19DatabaseServerError12setErrorTextERK7QString
libdigikamcore.so.7.3.0:_ZN7Digikam19DatabaseServerError12setErrorTypeENS0_23DatabaseServerErrorEnumE
libdigikamcore.so.7.3.0:_ZN7Digikam19DatabaseServerErrorC1ENS0_23DatabaseServerErrorEnumERK7QString
libdigikamcore.so.7.3.0:_ZN7Digikam19DatabaseServerErrorC1ERKS0_
libdigikamcore.so.7.3.0:_ZN7Digikam19DatabaseServerErrorC2ENS0_23DatabaseServerErrorEnumERK7QString
libdigikamcore.so.7.3.0:_ZN7Digikam19DatabaseServerErrorC2ERKS0_
libdigikamcore.so.7.3.0:_ZN7Digikam19DatabaseServerErrorD1Ev
libdigikamcore.so.7.3.0:_ZN7Digikam19DatabaseServerErrorD2Ev
libdigikamcore.so.7.3.0:_ZN7Digikam19ExifToolLoadingView11qt_metacallEN11QMetaObject4CallEiPPv
libdigikamcore.so.7.3.0:_ZN7Digikam19ExifToolLoadingView11qt_metacastEPKc
libdigikamcore.so.7.3.0:_ZN7Digikam19ExifToolLoadingView16staticMetaObjectE
libdigikamcore.so.7.3.0:_ZN7Digikam19ExifToolLoadingView21slotProgressTimerDoneEv
libdigikamcore.so.7.3.0:_ZN7Digikam19ExifToolLoadingView7setBusyEb
libdigikamcore.so.7.3.0:_ZN7Digikam19ExifToolLoadingViewC1EP7QWidget
libdigikamcore.so.7.3.0:_ZN7Digikam19ExifToolLoadingViewC2EP7QWidget
libdigikamcore.so.7.3.0:_ZN7Digikam19ExifToolLoadingViewD0Ev
libdigikamcore.so.7.3.0:_ZN7Digikam19ExifToolLoadingViewD1Ev
libdigikamcore.so.7.3.0:_ZN7Digikam19ExifToolLoadingViewD2Ev
libdigikamcore.so.7.3.0:_ZN7Digikam19FileSaveConflictBox11qt_metacallEN11QMetaObject4CallEiPPv
libdigikamcore.so.7.3.0:_ZN7Digikam19FileSaveConflictBox11qt_metacastEPKc
libdigikamcore.so.7.3.0:_ZN7Digikam19FileSaveConflictBox12readSettingsER12KConfigGroup
libdigikamcore.so.7.3.0:_ZN7Digikam19FileSaveConflictBox13writeSettingsER12KConfigGroup
libdigikamcore.so.7.3.0:_ZN7Digikam19FileSaveConflictBox14resetToDefaultEv
libdigikamcore.so.7.3.0:_ZN7Digikam19FileSaveConflictBox15setConflictRuleENS0_12ConflictRuleE
libdigikamcore.so.7.3.0:_ZN7Digikam19FileSaveConflictBox16staticMetaObjectE
libdigikamcore.so.7.3.0:_ZN7Digikam19FileSaveConflictBox27signalConflictButtonChangedEi
libdigikamcore.so.7.3.0:_ZN7Digikam19FileSaveConflictBoxC1EP7QWidget
libdigikamcore.so.7.3.0:_ZN7Digikam19FileSaveConflictBoxC2EP7QWidget
libdigikamcore.so.7.3.0:_ZN7Digikam19FileSaveConflictBoxD0Ev
libdigikamcore.so.7.3.0:_ZN7Digikam19FileSaveConflictBoxD1Ev
libdigikamcore.so.7.3.0:_ZN7Digikam19FileSaveConflictBoxD2Ev
libdigikamcore.so.7.3.0:_ZN7Digikam19FullObjectDetection4partEm
libdigikamcore.so.7.3.0:_ZN7Digikam19FullObjectDetection8get_rectEv
libdigikamcore.so.7.3.0:_ZN7Digikam19FullObjectDetectionC1ERKN2cv5Rect_IiEE
libdigikamcore.so.7.3.0:_ZN7Digikam19FullObjectDetectionC1ERKN2cv5Rect_IiEERKSt6vectorIS6_IfSaIfEESaIS8_EE
libdigikamcore.so.7.3.0:_ZN7Digikam19FullObjectDetectionC1Ev
libdigikamcore.so.7.3.0:_ZN7Digikam19FullObjectDetectionC2ERKN2cv5Rect_IiEE
libdigikamcore.so.7.3.0:_ZN7Digikam19FullObjectDetectionC2ERKN2cv5Rect_IiEERKSt6vectorIS6_IfSaIfEESaIS8_EE
libdigikamcore.so.7.3.0:_ZN7Digikam19FullObjectDetectionC2Ev
libdigikamcore.so.7.3.0:_ZN7Digikam19GPSCorrelatorWidget11qt_metacallEN11QMetaObject4CallEiPPv
libdigikamcore.so.7.3.0:_ZN7Digikam19GPSCorrelatorWidget11qt_metacastEPKc
libdigikamcore.so.7.3.0:_ZN7Digikam19GPSCorrelatorWidget13slotCorrelateEv
libdigikamcore.so.7.3.0:_ZN7Digikam19GPSCorrelatorWidget13updateUIStateEv
libdigikamcore.so.7.3.0:_ZN7Digikam19GPSCorrelatorWidget16staticMetaObjectE
libdigikamcore.so.7.3.0:_ZN7Digikam19GPSCorrelatorWidget17signalUndoCommandEPNS_14GPSUndoCommandE
libdigikamcore.so.7.3.0:_ZN7Digikam19GPSCorrelatorWidget18signalSetUIEnabledEb
libdigikamcore.so.7.3.0:_ZN7Digikam19GPSCorrelatorWidget18signalSetUIEnabledEbP7QObjectRK7QString
libdigikamcore.so.7.3.0:_ZN7Digikam19GPSCorrelatorWidget18slotCurrentChangedERK11QModelIndexS3_
libdigikamcore.so.7.3.0:_ZN7Digikam19GPSCorrelatorWidget18slotLoadTrackFilesEv
libdigikamcore.so.7.3.0:_ZN7Digikam19GPSCorrelatorWidget19saveSettingsToGroupEP12KConfigGroup
libdigikamcore.so.7.3.0:_ZN7Digikam19GPSCorrelatorWidget19signalProgressSetupEiRK7QString
libdigikamcore.so.7.3.0:_ZN7Digikam19GPSCorrelatorWidget19slotItemsCorrelatedERK5QListINS_15TrackCorrelator11CorrelationEE
libdigikamcore.so.7.3.0:_ZN7Digikam19GPSCorrelatorWidget20setUIEnabledExternalEb
libdigikamcore.so.7.3.0:_ZN7Digikam19GPSCorrelatorWidget20setUIEnabledInternalEb
libdigikamcore.so.7.3.0:_ZN7Digikam19GPSCorrelatorWidget21readSettingsFromGroupEPK12KConfigGroup
libdigikamcore.so.7.3.0:_ZN7Digikam19GPSCorrelatorWidget21signalProgressChangedEi
libdigikamcore.so.7.3.0:_ZN7Digikam19GPSCorrelatorWidget21slotCancelCorrelationEv
libdigikamcore.so.7.3.0:_ZN7Digikam19GPSCorrelatorWidget22signalTrackListChangedERKNS_14GeoCoordinatesE
libdigikamcore.so.7.3.0:_ZN7Digikam19GPSCorrelatorWidget22slotAllItemsCorrelatedEv
libdigikamcore.so.7.3.0:_ZN7Digikam19GPSCorrelatorWidget22slotAllTrackFilesReadyEv
libdigikamcore.so.7.3.0:_ZN7Digikam19GPSCorrelatorWidget23slotCorrelationCanceledEv
libdigikamcore.so.7.3.0:_ZN7Digikam19GPSCorrelatorWidget24signalAllTrackFilesReadyEv
libdigikamcore.so.7.3.0:_ZN7Digikam19GPSCorrelatorWidget26slotShowTracksStateChangedEi
libdigikamcore.so.7.3.0:_ZN7Digikam19GPSCorrelatorWidgetC1EP7QWidgetPNS_12GPSItemModelEPNS_12TrackManagerE
libdigikamcore.so.7.3.0:_ZN7Digikam19GPSCorrelatorWidgetC2EP7QWidgetPNS_12GPSItemModelEPNS_12TrackManagerE
libdigikamcore.so.7.3.0:_ZN7Digikam19GPSCorrelatorWidgetD0Ev
libdigikamcore.so.7.3.0:_ZN7Digikam19GPSCorrelatorWidgetD1Ev
libdigikamcore.so.7.3.0:_ZN7Digikam19GPSCorrelatorWidgetD2Ev
libdigikamcore.so.7.3.0:_ZN7Digikam19IccProfilesComboBox11qt_metacallEN11QMetaObject4CallEiPPv
libdigikamcore.so.7.3.0:_ZN7Digikam19IccProfilesComboBox11qt_metacastEPKc
libdigikamcore.so.7.3.0:_ZN7Digikam19IccProfilesComboBox16staticMetaObjectE
libdigikamcore.so.7.3.0:_ZN7Digikam19IccProfilesComboBox17setCurrentProfileERKNS_10IccProfileE
libdigikamcore.so.7.3.0:_ZN7Digikam19IccProfilesComboBox18addProfileSqueezedERKNS_10IccProfileERK7QString
libdigikamcore.so.7.3.0:_ZN7Digikam19IccProfilesComboBox19addProfilesSqueezedERK5QListINS_10IccProfileEE
libdigikamcore.so.7.3.0:_ZN7Digikam19IccProfilesComboBox19setNoProfileIfEmptyERK7QString
libdigikamcore.so.7.3.0:_ZN7Digikam19IccProfilesComboBox23replaceProfilesSqueezedERK5QListINS_10IccProfileEE
libdigikamcore.so.7.3.0:_ZN7Digikam19IccProfilesComboBoxC1EP7QWidget
libdigikamcore.so.7.3.0:_ZN7Digikam19IccProfilesComboBoxC2EP7QWidget
libdigikamcore.so.7.3.0:_ZN7Digikam19IccProfilesComboBoxD0Ev
libdigikamcore.so.7.3.0:_ZN7Digikam19IccProfilesComboBoxD1Ev
libdigikamcore.so.7.3.0:_ZN7Digikam19IccProfilesComboBoxD2Ev
libdigikamcore.so.7.3.0:_ZN7Digikam19IccProfilesSettings11qt_metacallEN11QMetaObject4CallEiPPv
libdigikamcore.so.7.3.0:_ZN7Digikam19IccProfilesSettings11qt_metacastEPKc
libdigikamcore.so.7.3.0:_ZN7Digikam19IccProfilesSettings12readSettingsER12KConfigGroup
libdigikamcore.so.7.3.0:_ZN7Digikam19IccProfilesSettings13writeSettingsER12KConfigGroup
libdigikamcore.so.7.3.0:_ZN7Digikam19IccProfilesSettings14resetToDefaultEv
libdigikamcore.so.7.3.0:_ZN7Digikam19IccProfilesSettings15slotNewProfInfoEv
libdigikamcore.so.7.3.0:_ZN7Digikam19IccProfilesSettings16favoriteProfilesER12KConfigGroup
libdigikamcore.so.7.3.0:_ZN7Digikam19IccProfilesSettings16staticMetaObjectE
libdigikamcore.so.7.3.0:_ZN7Digikam19IccProfilesSettings17setCurrentProfileERKNS_10IccProfileE
libdigikamcore.so.7.3.0:_ZN7Digikam19IccProfilesSettings18slotProfileChangedEv
libdigikamcore.so.7.3.0:_ZN7Digikam19IccProfilesSettings21signalSettingsChangedEv
libdigikamcore.so.7.3.0:_ZN7Digikam19IccProfilesSettingsC1EP7QWidget
libdigikamcore.so.7.3.0:_ZN7Digikam19IccProfilesSettingsC2EP7QWidget
libdigikamcore.so.7.3.0:_ZN7Digikam19IccProfilesSettingsD0Ev
libdigikamcore.so.7.3.0:_ZN7Digikam19IccProfilesSettingsD1Ev
libdigikamcore.so.7.3.0:_ZN7Digikam19IccProfilesSettingsD2Ev
libdigikamcore.so.7.3.0:_ZN7Digikam19ItemDelegateOverlay10mouseMovedEP11QMouseEventRK5QRectRK11QModelIndex
libdigikamcore.so.7.3.0:_ZN7Digikam19ItemDelegateOverlay11qt_metacallEN11QMetaObject4CallEiPPv
libdigikamcore.so.7.3.0:_ZN7Digikam19ItemDelegateOverlay11qt_metacastEPKc
libdigikamcore.so.7.3.0:_ZN7Digikam19ItemDelegateOverlay11setDelegateEP21QAbstractItemDelegate
libdigikamcore.so.7.3.0:_ZN7Digikam19ItemDelegateOverlay12visualChangeEv
libdigikamcore.so.7.3.0:_ZN7Digikam19ItemDelegateOverlay16hideNotificationEv
libdigikamcore.so.7.3.0:_ZN7Digikam19ItemDelegateOverlay16staticMetaObjectE
libdigikamcore.so.7.3.0:_ZN7Digikam19ItemDelegateOverlay19requestNotificationERK11QModelIndexRK7QString
libdigikamcore.so.7.3.0:_ZN7Digikam19ItemDelegateOverlay5paintEP8QPainterRK20QStyleOptionViewItemRK11QModelIndex
libdigikamcore.so.7.3.0:_ZN7Digikam19ItemDelegateOverlay6updateERK11QModelIndex
libdigikamcore.so.7.3.0:_ZN7Digikam19ItemDelegateOverlay7setViewEP17QAbstractItemView
libdigikamcore.so.7.3.0:_ZN7Digikam19ItemDelegateOverlay9setActiveEb
