libEGL.so.1:eglGetCurrentContext
libEGL.so.1:eglGetError
libEGL.so.1:eglGetProcAddress
libEGL.so.1:eglQueryString
libOpenGL.so.0:glTexImage2D
libOpenGL.so.0:glTexParameterf
libOpenGL.so.0:glTexParameteri
libOpenGL.so.0:glTexSubImage2D
libOpenGL.so.0:glViewport
libQt6Core.so.6:_Z20qEnvironmentVariablePKc
libQt6Core.so.6:_Z21qRegisterResourceDataiPKhS0_S0_
libQt6Core.so.6:_Z23qUnregisterResourceDataiPKhS0_S0_
libQt6Core.so.6:_Z26qt_QMetaEnum_debugOperatorR6QDebugxPK11QMetaObjectPKc
libQt6Core.so.6:_Z27qEnvironmentVariableIsEmptyPKc
libQt6Core.so.6:_Z30qt_QMetaEnum_flagDebugOperatorR6QDebugyPK11QMetaObjectPKc
libQt6Core.so.6:_Z5qHash11QStringViewm
libQt6Core.so.6:_Z7qgetenvPKc
libQt6Core.so.6:_Z9qBadAllocv
libQt6Core.so.6:_ZN10QArrayData10deallocateEPS_xx
libQt6Core.so.6:_ZN10QArrayData19reallocateUnalignedEPS_PvxxNS_16AllocationOptionE
libQt6Core.so.6:_ZN10QArrayData8allocateEPPS_xxxNS_16AllocationOptionE
libQt6Core.so.6:_ZN10QByteArray11reallocDataExN10QArrayData16AllocationOptionE
libQt6Core.so.6:_ZN10QByteArray5clearEv
libQt6Core.so.6:_ZN10QByteArray6_emptyE
libQt6Core.so.6:_ZN10QByteArray6appendERKS_
libQt6Core.so.6:_ZN10QByteArray6appendEc
libQt6Core.so.6:_ZN10QByteArray6insertEx14QByteArrayView
libQt6Core.so.6:_ZN10QByteArray6resizeEx
libQt6Core.so.6:_ZN10QByteArrayC1EPKcx
libQt6Core.so.6:_ZN10QByteArrayC1ExN2Qt14InitializationE
libQt6Core.so.6:_ZN10QByteArrayC1Exc
libQt6Core.so.6:_ZN10QByteArrayaSEPKc
libQt6Core.so.6:_ZN10QByteArrayaSERKS_
libQt6Core.so.6:_ZN11QBasicMutex12lockInternalEv
libQt6Core.so.6:_ZN11QBasicMutex15destroyInternalEPv
libQt6Core.so.6:_ZN11QBasicMutex19unlockInternalFutexEPv
libQt6Core.so.6:_ZN11QBasicTimer4stopEv
libQt6Core.so.6:_ZN11QBasicTimer5startENSt6chrono8durationIlSt5ratioILl1ELl1000000000EEEEN2Qt9TimerTypeEP7QObject
libQt6Core.so.6:_ZN11QDataStream11resetStatusEv
libQt6Core.so.6:_ZN11QDataStream9setStatusENS_6StatusE
libQt6Core.so.6:_ZN11QDataStreamlsEi
libQt6Core.so.6:_ZN11QDataStreamlsEx
libQt6Core.so.6:_ZN11QDataStreamrsERi
libQt6Core.so.6:_ZN11QDataStreamrsERx
libQt6Core.so.6:_ZN11QMetaObject10ConnectionC1Ev
libQt6Core.so.6:_ZN11QMetaObject10ConnectionD1Ev
libQt6Core.so.6:_ZN11QMetaObject14normalizedTypeEPKc
libQt6Core.so.6:_ZN11QMetaObject16invokeMethodImplEP7QObjectPKcN2Qt14ConnectionTypeExPKPKvPKS3_PKPKN9QtPrivate18QMetaTypeInterfaceE
libQt6Core.so.6:_ZN11QMetaObject16invokeMethodImplEP7QObjectPN9QtPrivate15QSlotObjectBaseEN2Qt14ConnectionTypeExPKPKvPKPKcPKPKNS2_18QMetaTypeInterfaceE
libQt6Core.so.6:_ZN11QMetaObject8activateEP7QObjectPKS_iPPv
libQt6Core.so.6:_ZN11QTextStreamlsEPKc
libQt6Core.so.6:_ZN11QTextStreamlsEPKv
libQt6Core.so.6:_ZN11QTextStreamlsERK7QString
libQt6Core.so.6:_ZN11QTextStreamlsEc
libQt6Core.so.6:_ZN11QTextStreamlsEi
libQt6Core.so.6:_ZN11QTextStreamlsEj
libQt6Core.so.6:_ZN11QTextStreamlsEl
libQt6Core.so.6:_ZN11QTextStreamlsEx
libQt6Core.so.6:_ZN12QDirIterator4nextEv
libQt6Core.so.6:_ZN12QDirIteratorC1ERK7QStringRK5QListIS0_E6QFlagsIN4QDir6FilterEES7_INS_12IteratorFlagEE
libQt6Core.so.6:_ZN12QDirIteratorD1Ev
libQt6Core.so.6:_ZN13QElapsedTimer5startEv
libQt6Core.so.6:_ZN13QSharedMemory4dataEv
libQt6Core.so.6:_ZN13QSharedMemory4lockEv
libQt6Core.so.6:_ZN13QSharedMemory6createExNS_10AccessModeE
libQt6Core.so.6:_ZN13QSharedMemory6unlockEv
libQt6Core.so.6:_ZN13QSharedMemoryC1ERK7QStringP7QObject
libQt6Core.so.6:_ZN14QFactoryLoaderC1EPKcRK7QStringN2Qt15CaseSensitivityE
libQt6Core.so.6:_ZN14QFactoryLoaderD1Ev
libQt6Core.so.6:_ZN14QObjectPrivateC2E16QtPrivate_6_10_2
libQt6Core.so.6:_ZN14QObjectPrivateD2Ev
libQt6Core.so.6:_ZN14QStandardPaths16writableLocationENS_16StandardLocationE
libQt6Core.so.6:_ZN15QRecursiveMutex6unlockEv
libQt6Core.so.6:_ZN15QRecursiveMutex7tryLockE14QDeadlineTimer
libQt6Core.so.6:_ZN15QRecursiveMutexD1Ev
libQt6Core.so.6:_ZN15QSocketNotifier16staticMetaObjectE
libQt6Core.so.6:_ZN15QSocketNotifier9activatedE17QSocketDescriptorNS_4TypeENS_14QPrivateSignalE
libQt6Core.so.6:_ZN15QSocketNotifierC1ExNS_4TypeEP7QObject
libQt6Core.so.6:_ZN15QtSharedPointer20ExternalRefCountData9getAndRefEPK7QObject
libQt6Core.so.6:_ZN16QCoreApplication11closingDownEv
libQt6Core.so.6:_ZN16QCoreApplication12setAttributeEN2Qt20ApplicationAttributeEb
libQt6Core.so.6:_ZN16QCoreApplication13processEventsE6QFlagsIN10QEventLoop17ProcessEventsFlagEE
libQt6Core.so.6:_ZN16QCoreApplication4quitEv
libQt6Core.so.6:_ZN16QCoreApplication4selfE
libQt6Core.so.6:_ZN16QCoreApplication9argumentsEv
libQt6Core.so.6:_ZN16QCoreApplication9postEventEP7QObjectP6QEventi
libQt6Core.so.6:_ZN16QCoreApplication9sendEventEP7QObjectP6QEvent
libQt6Core.so.6:_ZN16QDebugStateSaverC1ER6QDebug
libQt6Core.so.6:_ZN16QDebugStateSaverD1Ev
libQt6Core.so.6:_ZN16QLoggingCategoryC1EPKc9QtMsgType
libQt6Core.so.6:_ZN16QLoggingCategoryD1Ev
libQt6Core.so.6:_ZN16QRandomGenerator10_fillRangeEPvx
libQt6Core.so.6:_ZN16QRandomGeneratorC2EPKjS1_
libQt6Core.so.6:_ZN18QRegularExpressionC1ERK7QString6QFlagsINS_13PatternOptionEE
libQt6Core.so.6:_ZN18QRegularExpressionD1Ev
libQt6Core.so.6:_ZN21QAbstractConcatenable14appendLatin1ToE13QLatin1StringP5QChar
libQt6Core.so.6:_ZN21QAbstractConcatenable15convertFromUtf8E14QByteArrayViewRP5QChar
libQt6Core.so.6:_ZN23QCoreApplicationPrivate15eventDispatcherE
libQt6Core.so.6:_ZN2Qt16staticMetaObjectE
libQt6Core.so.6:_ZN2Qt3hexER11QTextStream
libQt6Core.so.6:_ZN4QDir9cleanPathERK7QString
libQt6Core.so.6:_ZN4QUrlC1ERK7QStringNS_11ParsingModeE
libQt6Core.so.6:_ZN4QUrlD1Ev
libQt6Core.so.6:_ZN5QFile4openE6QFlagsIN13QIODeviceBase12OpenModeFlagEE
libQt6Core.so.6:_ZN5QFile4openEi6QFlagsIN13QIODeviceBase12OpenModeFlagEES0_IN11QFileDevice14FileHandleFlagEE
libQt6Core.so.6:_ZN5QFileC1ERK7QString
libQt6Core.so.6:_ZN5QFileC1Ev
libQt6Core.so.6:_ZN5QFileD1Ev
libQt6Core.so.6:_ZN6QDebug9putStringEPK5QCharm
libQt6Core.so.6:_ZN6QDebugD1Ev
libQt6Core.so.6:_ZN6QEventC1ENS_4TypeE
libQt6Core.so.6:_ZN6QEventD1Ev
libQt6Core.so.6:_ZN6QTimer14singleShotImplENSt6chrono8durationIlSt5ratioILl1ELl1000000000EEEEN2Qt9TimerTypeEPK7QObjectPN9QtPrivate15QSlotObjectBaseE
libQt6Core.so.6:_ZN7QBuffer4openE6QFlagsIN13QIODeviceBase12OpenModeFlagEE
libQt6Core.so.6:_ZN7QBuffer6bufferEv
libQt6Core.so.6:_ZN7QBufferC1EP7QObject
libQt6Core.so.6:_ZN7QBufferD1Ev
libQt6Core.so.6:_ZN7QLocaleD1Ev
libQt6Core.so.6:_ZN7QObject10childEventEP11QChildEvent
libQt6Core.so.6:_ZN7QObject10disconnectEPKS_PKcS1_S3_
libQt6Core.so.6:_ZN7QObject10disconnectERKN11QMetaObject10ConnectionE
libQt6Core.so.6:_ZN7QObject10timerEventEP11QTimerEvent
libQt6Core.so.6:_ZN7QObject11connectImplEPKS_PPvS1_S3_PN9QtPrivate15QSlotObjectBaseEN2Qt14ConnectionTypeEPKiPK11QMetaObject
libQt6Core.so.6:_ZN7QObject11customEventEP6QEvent
libQt6Core.so.6:_ZN7QObject11deleteLaterEv
libQt6Core.so.6:_ZN7QObject11eventFilterEPS_P6QEvent
libQt6Core.so.6:_ZN7QObject11qt_metacallEN11QMetaObject4CallEiPPv
libQt6Core.so.6:_ZN7QObject11qt_metacastEPKc
libQt6Core.so.6:_ZN7QObject13connectNotifyERK11QMetaMethod
libQt6Core.so.6:_ZN7QObject14disconnectImplEPKS_PPvS1_S3_PK11QMetaObject
libQt6Core.so.6:_ZN7QObject16disconnectNotifyERK11QMetaMethod
libQt6Core.so.6:_ZN7QObject16staticMetaObjectE
libQt6Core.so.6:_ZN7QObject17removeEventFilterEPS_
libQt6Core.so.6:_ZN7QObject18installEventFilterEPS_
libQt6Core.so.6:_ZN7QObject5eventEP6QEvent
libQt6Core.so.6:_ZN7QObject7connectEPKS_PKcS1_S3_N2Qt14ConnectionTypeE
libQt6Core.so.6:_ZN7QObject9destroyedEPS_
libQt6Core.so.6:_ZN7QObject9setParentEPS_
libQt6Core.so.6:_ZN7QObjectC2EPS_
libQt6Core.so.6:_ZN7QObjectC2ER14QObjectPrivatePS_
libQt6Core.so.6:_ZN7QObjectD2Ev
libQt6Core.so.6:_ZN7QString10fromLatin1E14QByteArrayView
libQt6Core.so.6:_ZN7QString13fromLocal8BitE14QByteArrayView
libQt6Core.so.6:_ZN7QString13sliced_helperERS_xx
libQt6Core.so.6:_ZN7QString13toUtf8_helperERKS_
libQt6Core.so.6:_ZN7QString14toLower_helperERS_
libQt6Core.so.6:_ZN7QString15toLatin1_helperERKS_
libQt6Core.so.6:_ZN7QString18toLocal8Bit_helperEPK5QCharx
libQt6Core.so.6:_ZN7QString23toLatin1_helper_inplaceERS_
libQt6Core.so.6:_ZN7QString6_emptyE
libQt6Core.so.6:_ZN7QString6appendE5QChar
libQt6Core.so.6:_ZN7QString6appendEPK5QCharx
libQt6Core.so.6:_ZN7QString6appendERKS_
libQt6Core.so.6:_ZN7QString6insertEx5QChar
libQt6Core.so.6:_ZN7QString6insertExPK5QCharx
libQt6Core.so.6:_ZN7QString6numberEii
libQt6Core.so.6:_ZN7QString6numberExi
libQt6Core.so.6:_ZN7QString6removeExx
libQt6Core.so.6:_ZN7QString6resizeEx
libQt6Core.so.6:_ZN7QString7replaceERK18QRegularExpressionRKS_
libQt6Core.so.6:_ZN7QString7replaceExxRKS_
libQt6Core.so.6:_ZN7QString8fromUtf8E14QByteArrayView
libQt6Core.so.6:_ZN7QStringC1EPK5QCharx
libQt6Core.so.6:_ZN7QStringC1ExN2Qt14InitializationE
libQt6Core.so.6:_ZN7QStringaSE13QLatin1String
libQt6Core.so.6:_ZN7QStringaSERKS_
libQt6Core.so.6:_ZN7QThread13currentThreadEv
libQt6Core.so.6:_ZN8QVariant4dataEv
libQt6Core.so.6:_ZN8QVariantC1E5QRect
libQt6Core.so.6:_ZN8QVariantC1E9QMetaTypePKv
libQt6Core.so.6:_ZN8QVariantC1ERK5QListI7QStringE
libQt6Core.so.6:_ZN8QVariantC1ERK7QString
libQt6Core.so.6:_ZN8QVariantC1ERKS_
libQt6Core.so.6:_ZN8QVariantC1Eb
libQt6Core.so.6:_ZN8QVariantC1Ei
libQt6Core.so.6:_ZN8QVariantD1Ev
libQt6Core.so.6:_ZN8QVariantaSERKS_
libQt6Core.so.6:_ZN9QDateTime15currentDateTimeEv
libQt6Core.so.6:_ZN9QDateTimeC1Ev
libQt6Core.so.6:_ZN9QDateTimeD1Ev
libQt6Core.so.6:_ZN9QDateTimeaSERKS_
libQt6Core.so.6:_ZN9QFileInfo6existsERK7QString
libQt6Core.so.6:_ZN9QFileInfoC1ERK7QString
libQt6Core.so.6:_ZN9QFileInfoD1Ev
libQt6Core.so.6:_ZN9QHashSeed10globalSeedEv
libQt6Core.so.6:_ZN9QIODevice5writeERK10QByteArray
libQt6Core.so.6:_ZN9QIODevice7readAllEv
libQt6Core.so.6:_ZN9QMetaType14registerHelperEPKN9QtPrivate18QMetaTypeInterfaceE
libQt6Core.so.6:_ZN9QMetaType25registerConverterFunctionERKSt8functionIFbPKvPvEES_S_
libQt6Core.so.6:_ZN9QMetaType25registerNormalizedTypedefERK10QByteArrayS_
libQt6Core.so.6:_ZN9QMetaType27registerMutableViewFunctionERKSt8functionIFbPvS1_EES_S_
libQt6Core.so.6:_ZN9QMetaType27unregisterConverterFunctionES_S_
libQt6Core.so.6:_ZN9QMetaType29unregisterMutableViewFunctionES_S_
libQt6Core.so.6:_ZN9QMetaType7convertES_PKvS_Pv
libQt6Core.so.6:_ZN9QMetaType8fromNameE14QByteArrayView
libQt6Core.so.6:_ZN9QMimeData5clearEv
libQt6Core.so.6:_ZN9QMimeData7setDataERK7QStringRK10QByteArray
libQt6Core.so.6:_ZN9QMimeDataC1Ev
libQt6Core.so.6:_ZN9QMimeDataD1Ev
libQt6Core.so.6:_ZN9QRunnableD2Ev
libQt6Core.so.6:_ZN9QtPrivate12equalStringsE11QStringView13QLatin1String
libQt6Core.so.6:_ZN9QtPrivate12equalStringsE11QStringViewS0_
libQt6Core.so.6:_ZN9QtPrivate13convertToUtf8E11QStringView
libQt6Core.so.6:_ZN9QtPrivate13findByteArrayE14QByteArrayViewxS0_
libQt6Core.so.6:_ZN9QtPrivate14compareStringsE11QStringViewS0_N2Qt15CaseSensitivityE
libQt6Core.so.6:_ZN9QtPrivate17expectedAllocSizeEmm
libQt6Core.so.6:_ZN9QtPrivate19QStringList_indexOfERK5QListI7QStringE13QLatin1StringxN2Qt15CaseSensitivityE
libQt6Core.so.6:_ZN9QtPrivate20QStringList_containsEPK5QListI7QStringE11QStringViewN2Qt15CaseSensitivityE
libQt6Core.so.6:_ZN9QtPrivate25QMetaTypeInterfaceWrapperI10QByteArrayE8metaTypeE
libQt6Core.so.6:_ZN9QtPrivate25QMetaTypeInterfaceWrapperI4QMapI7QString8QVariantEE8metaTypeE
libQt6Core.so.6:_ZN9QtPrivate25QMetaTypeInterfaceWrapperI4QUrlE8metaTypeE
libQt6Core.so.6:_ZN9QtPrivate25QMetaTypeInterfaceWrapperI5QRectE8metaTypeE
libQt6Core.so.6:_ZN9QtPrivate25QMetaTypeInterfaceWrapperI5QSizeE8metaTypeE
libQt6Core.so.6:_ZN9QtPrivate25QMetaTypeInterfaceWrapperI6QPointE8metaTypeE
libQt6Core.so.6:_ZN9QtPrivate25QMetaTypeInterfaceWrapperI6QRectFE8metaTypeE
libQt6Core.so.6:_ZN9QtPrivate25QMetaTypeInterfaceWrapperI6QSizeFE8metaTypeE
libQt6Core.so.6:_ZN9QtPrivate25QMetaTypeInterfaceWrapperI7QPointFE8metaTypeE
libQt6Core.so.6:_ZN9QtPrivate25QMetaTypeInterfaceWrapperI7QStringE8metaTypeE
libQt6Core.so.6:_ZN9QtPrivate25QMetaTypeInterfaceWrapperI8QVariantE8metaTypeE
libQt6Core.so.6:_ZN9QtPrivate25QMetaTypeInterfaceWrapperIP7QObjectE8metaTypeE
libQt6Core.so.6:_ZN9QtPrivate25QMetaTypeInterfaceWrapperIPvE8metaTypeE
libQt6Core.so.6:_ZN9QtPrivate25QMetaTypeInterfaceWrapperIbE8metaTypeE
libQt6Core.so.6:_ZN9QtPrivate25QMetaTypeInterfaceWrapperIdE8metaTypeE
libQt6Core.so.6:_ZN9QtPrivate25QMetaTypeInterfaceWrapperIiE8metaTypeE
libQt6Core.so.6:_ZN9QtPrivate25QMetaTypeInterfaceWrapperIjE8metaTypeE
libQt6Core.so.6:_ZN9QtPrivate25QMetaTypeInterfaceWrapperIxE8metaTypeE
libQt6Core.so.6:_ZN9QtPrivate25QMetaTypeInterfaceWrapperIyE8metaTypeE
libQt6Core.so.6:_ZN9QtPrivate52hasRegisteredConverterFunctionToIterableMetaSequenceE9QMetaType
libQt6Core.so.6:_ZN9QtPrivate54hasRegisteredMutableViewFunctionToIterableMetaSequenceE9QMetaType
libQt6Core.so.6:_ZN9QtPrivate55hasRegisteredConverterFunctionToIterableMetaAssociationE9QMetaType
libQt6Core.so.6:_ZN9QtPrivate57hasRegisteredMutableViewFunctionToIterableMetaAssociationE9QMetaType
libQt6Core.so.6:_ZN9QtPrivate9sizedFreeEPvm
libQt6Core.so.6:_ZNK10QByteArray5splitEc
libQt6Core.so.6:_ZNK10QByteArray6toUIntEPbi
libQt6Core.so.6:_ZNK11QDataStream26isDeviceTransactionStartedEv
libQt6Core.so.6:_ZNK11QMetaObject2trEPKcS1_i
libQt6Core.so.6:_ZNK11QMetaObject4castEPK7QObject
libQt6Core.so.6:_ZNK11QMetaObject9classNameEv
libQt6Core.so.6:_ZNK11QObjectData17dynamicMetaObjectEv
libQt6Core.so.6:_ZNK12QDirIterator7hasNextEv
libQt6Core.so.6:_ZNK13QElapsedTimer7elapsedEv
libQt6Core.so.6:_ZNK13QSharedMemory3keyEv
libQt6Core.so.6:_ZNK14QFactoryLoader6keyMapEv
libQt6Core.so.6:_ZNK14QFactoryLoader7indexOfERK7QString
libQt6Core.so.6:_ZNK14QFactoryLoader8instanceEi
libQt6Core.so.6:_ZNK14QMessageLogger5debugEv
libQt6Core.so.6:_ZNK14QMessageLogger5fatalEPKcz
libQt6Core.so.6:_ZNK14QMessageLogger7warningEPKcz
libQt6Core.so.6:_ZNK14QMessageLogger7warningEv
libQt6Core.so.6:_ZNK14QMessageLogger8criticalEPKcz
libQt6Core.so.6:_ZNK14QMessageLogger8criticalEv
libQt6Core.so.6:_ZNK14QObjectPrivate15flagsForDumpingB5cxx11Ev
libQt6Core.so.6:_ZNK14QObjectPrivate18writeToDebugStreamER6QDebug
libQt6Core.so.6:_ZNK15QSocketNotifier6socketEv
libQt6Core.so.6:_ZNK4QUrl4pathE6QFlagsINS_25ComponentFormattingOptionEE
libQt6Core.so.6:_ZNK4QUrl6schemeEv
libQt6Core.so.6:_ZNK4QUrl9toEncodedE12QUrlTwoFlagsINS_19UrlFormattingOptionENS_25ComponentFormattingOptionEE
libQt6Core.so.6:_ZNK5QFile8fileNameEv
libQt6Core.so.6:_ZNK5QRect8containsERK6QPointb
libQt6Core.so.6:_ZNK5QRect8containsERKS_b
libQt6Core.so.6:_ZNK5QRectanERKS_
libQt6Core.so.6:_ZNK6QRectF8containsERK7QPointF
libQt6Core.so.6:_ZNK6QRectFanERKS_
libQt6Core.so.6:_ZNK6QRectForERKS_
libQt6Core.so.6:_ZNK7QLocale9bcp47NameENS_12TagSeparatorE
libQt6Core.so.6:_ZNK7QObject10metaObjectEv
libQt6Core.so.6:_ZNK7QObject6senderEv
libQt6Core.so.6:_ZNK7QObject6threadEv
libQt6Core.so.6:_ZNK7QString10startsWithE13QLatin1StringN2Qt15CaseSensitivityE
libQt6Core.so.6:_ZNK7QString10startsWithE5QCharN2Qt15CaseSensitivityE
libQt6Core.so.6:_ZNK7QString5splitE5QChar6QFlagsIN2Qt18SplitBehaviorFlagsEENS2_15CaseSensitivityE
libQt6Core.so.6:_ZNK7QString7compareE13QLatin1StringN2Qt15CaseSensitivityE
libQt6Core.so.6:_ZNK7QString7indexOfE13QLatin1StringxN2Qt15CaseSensitivityE
libQt6Core.so.6:_ZNK7QString8arg_implE14QAnyStringViewi5QChar
libQt6Core.so.6:_ZNK7QString8endsWithE5QCharN2Qt15CaseSensitivityE
libQt6Core.so.6:_ZNK8QVariant12qdebugHelperE6QDebug
libQt6Core.so.6:_ZNK8QVariant5toIntEPb
libQt6Core.so.6:_ZNK8QVariant6equalsERKS_
libQt6Core.so.6:_ZNK8QVariant6toBoolEv
libQt6Core.so.6:_ZNK8QVariant6toUIntEPb
libQt6Core.so.6:_ZNK8QVariant8toStringEv
libQt6Core.so.6:_ZNK9QDateTime7msecsToERKS_
libQt6Core.so.6:_ZNK9QFileInfo8fileNameEv
libQt6Core.so.6:_ZNK9QFileInfo8filePathEv
libQt6Core.so.6:_ZNK9QIODevice11errorStringEv
libQt6Core.so.6:_ZNK9QMimeData4dataERK7QString
libQt6Core.so.6:_ZNK9QMimeData4textEv
libQt6Core.so.6:_ZNK9QMimeData4urlsEv
libQt6Core.so.6:_ZNK9QMimeData7formatsEv
libQt6Core.so.6:_ZNK9QMimeData8hasImageEv
libQt6Core.so.6:_ZNK9QMimeData9colorDataEv
libQt6Core.so.6:_ZNK9QMimeData9imageDataEv
libQt6Core.so.6:_ZNKR7QString3midExx
libQt6Core.so.6:_ZNO7QString14nullTerminatedEv
libQt6Core.so.6:_ZTI14QObjectPrivate
libQt6Core.so.6:_ZTI7QObject
libQt6Core.so.6:_ZTI9QRunnable
libQt6Core.so.6:_Zls6QDebugPK7QObject
libQt6Core.so.6:_Zls6QDebugRK5QSize
libQt6Core.so.6:_ZlsR11QDataStreamRK7QString
libQt6Core.so.6:_ZlsR11QDataStreamRK8QVariant
libQt6Core.so.6:_ZrsR11QDataStreamR7QString
libQt6Core.so.6:_ZrsR11QDataStreamR8QVariant
libQt6Core.so.6:qt_resourceFeatureZstd
libQt6Core.so.6:qt_version_tag
libQt6DBus.so.6:_Z40qRegisterNormalizedMetaType_QDBusVariantRK10QByteArray
libQt6DBus.so.6:_Z41qRegisterNormalizedMetaType_QDBusArgumentRK10QByteArray
libQt6DBus.so.6:_ZN12QDBusMessage16createMethodCallERK7QStringS2_S2_S2_
libQt6DBus.so.6:_ZN12QDBusMessageD1Ev
libQt6DBus.so.6:_ZN12QDBusMessagelsERK8QVariant
libQt6DBus.so.6:_ZN13QDBusArgument11endMapEntryEv
libQt6DBus.so.6:_ZN13QDBusArgument13beginMapEntryEv
libQt6DBus.so.6:_ZN13QDBusArgument6endMapEv
libQt6DBus.so.6:_ZN13QDBusArgument8beginMapE9QMetaTypeS0_
libQt6DBus.so.6:_ZN13QDBusArgumentC1ERKS_
libQt6DBus.so.6:_ZN13QDBusArgumentC1Ev
libQt6DBus.so.6:_ZN13QDBusArgumentD1Ev
libQt6DBus.so.6:_ZN13QDBusArgumentlsERK12QDBusVariant
libQt6DBus.so.6:_ZN13QDBusArgumentlsERK7QString
libQt6DBus.so.6:_ZN13QDBusMetaType25registerMarshallOperatorsE9QMetaTypePFvR13QDBusArgumentPKvEPFvRKS1_PvE
libQt6DBus.so.6:_ZN15QDBusConnection10sessionBusEv
libQt6DBus.so.6:_ZN15QDBusConnection7connectERK7QStringS2_S2_S2_P7QObjectPKc
libQt6DBus.so.6:_ZN15QDBusConnectionD1Ev
libQt6DBus.so.6:_ZN16QDBusPendingCallD1Ev
libQt6DBus.so.6:_ZN21QDBusPendingReplyBase12setMetaTypesEiPK9QMetaType
libQt6DBus.so.6:_ZN21QDBusPendingReplyBase6assignERK16QDBusPendingCall
libQt6DBus.so.6:_ZN21QDBusPendingReplyBaseC2Ev
libQt6DBus.so.6:_ZN21QDBusPendingReplyBaseD2Ev
libQt6DBus.so.6:_ZN23QDBusPendingCallWatcher16staticMetaObjectE
libQt6DBus.so.6:_ZN23QDBusPendingCallWatcher8finishedEPS_
libQt6DBus.so.6:_ZN23QDBusPendingCallWatcherC1ERK16QDBusPendingCallP7QObject
libQt6DBus.so.6:_ZNK13QDBusArgument11endMapEntryEv
libQt6DBus.so.6:_ZNK13QDBusArgument13beginMapEntryEv
libQt6DBus.so.6:_ZNK13QDBusArgument5atEndEv
libQt6DBus.so.6:_ZNK13QDBusArgument6endMapEv
libQt6DBus.so.6:_ZNK13QDBusArgument8beginMapEv
libQt6DBus.so.6:_ZNK13QDBusArgumentrsER7QString
libQt6DBus.so.6:_ZNK15QDBusConnection9asyncCallERK12QDBusMessagei
libQt6DBus.so.6:_ZNK16QDBusPendingCall7isValidEv
libQt6DBus.so.6:_ZNK21QDBusPendingReplyBase10argumentAtEi
libQt6DBus.so.6:_ZrsRK13QDBusArgumentR8QVariant
libQt6Gui.so.6:_ZN10QShaderKeyC1EN7QShader6SourceERK14QShaderVersionNS0_7VariantE
libQt6Gui.so.6:_ZN10QXkbCommon12lookupStringEP9xkb_statej
libQt6Gui.so.6:_ZN10QXkbCommon13keysymToQtKeyEj6QFlagsIN2Qt16KeyboardModifierEEP9xkb_statejbb
libQt6Gui.so.6:_ZN10QXkbCommon8toKeysymEP9QKeyEvent
libQt6Gui.so.6:_ZN10QXkbCommon9modifiersEP9xkb_statej
libQt6Gui.so.6:_ZN11QEventPointC1ERKS_
libQt6Gui.so.6:_ZN11QEventPointD1Ev
libQt6Gui.so.6:_ZN11QShaderCodeC1ERK10QByteArrayS2_
libQt6Gui.so.6:_ZN11QStaticText13setTextFormatEN2Qt10TextFormatE
libQt6Gui.so.6:_ZN11QStaticText13setTextOptionERK11QTextOption
libQt6Gui.so.6:_ZN11QStaticText7prepareERK10QTransformRK5QFont
libQt6Gui.so.6:_ZN11QStaticText7setTextERK7QString
libQt6Gui.so.6:_ZN11QStaticTextC1Ev
libQt6Gui.so.6:_ZN11QStaticTextD1Ev
libQt6Gui.so.6:_ZN11QTextFormat16staticMetaObjectE
libQt6Gui.so.6:_ZN11QTextFormatC1ERKS_
libQt6Gui.so.6:_ZN11QTextFormatC1Ev
libQt6Gui.so.6:_ZN11QTextFormatD1Ev
libQt6Gui.so.6:_ZN11QTextOptionC1E6QFlagsIN2Qt13AlignmentFlagEE
libQt6Gui.so.6:_ZN11QTextOptionD1Ev
libQt6Gui.so.6:_ZN12QImageReader21supportedImageFormatsEv
libQt6Gui.so.6:_ZN12QImageReader4readEv
libQt6Gui.so.6:_ZN12QImageReaderC1ERK7QStringRK10QByteArray
libQt6Gui.so.6:_ZN12QImageReaderD1Ev
libQt6Gui.so.6:_ZN12QImageWriter21supportedImageFormatsEv
libQt6Gui.so.6:_ZN12QImageWriter5writeERK6QImage
libQt6Gui.so.6:_ZN12QImageWriterC1EP9QIODeviceRK10QByteArray
libQt6Gui.so.6:_ZN12QImageWriterD1Ev
libQt6Gui.so.6:_ZN12QInputMethod12invokeActionENS_6ActionEi
libQt6Gui.so.6:_ZN12QInputMethod13localeChangedEv
libQt6Gui.so.6:_ZN12QInputMethod14visibleChangedEv
libQt6Gui.so.6:_ZN12QInputMethod16staticMetaObjectE
libQt6Gui.so.6:_ZN12QInputMethod21inputDirectionChangedEN2Qt15LayoutDirectionE
libQt6Gui.so.6:_ZN12QInputMethod24keyboardRectangleChangedEv
libQt6Gui.so.6:_ZN12QInputMethod4hideEv
libQt6Gui.so.6:_ZN12QInputMethod4showEv
libQt6Gui.so.6:_ZN12QInputMethod5resetEv
libQt6Gui.so.6:_ZN12QInputMethod6commitEv
libQt6Gui.so.6:_ZN12QInputMethod6updateE6QFlagsIN2Qt16InputMethodQueryEE
libQt6Gui.so.6:_ZN12QPaintDeviceC2Ev
libQt6Gui.so.6:_ZN12QPainterPath12closeSubpathEv
libQt6Gui.so.6:_ZN12QPainterPath5arcToERK6QRectFdd
libQt6Gui.so.6:_ZN12QPainterPath6lineToERK7QPointF
libQt6Gui.so.6:_ZN12QPainterPath6moveToERK7QPointF
libQt6Gui.so.6:_ZN12QPainterPath7addRectERK6QRectF
libQt6Gui.so.6:_ZN12QPainterPathC1Ev
libQt6Gui.so.6:_ZN12QPainterPathD1Ev
libQt6Gui.so.6:_ZN13QRasterWindow11qt_metacallEN11QMetaObject4CallEiPPv
libQt6Gui.so.6:_ZN13QRasterWindow11qt_metacastEPKc
libQt6Gui.so.6:_ZN13QRasterWindow11resizeEventEP12QResizeEvent
libQt6Gui.so.6:_ZN13QRasterWindow16staticMetaObjectE
libQt6Gui.so.6:_ZN13QRasterWindowC2EP7QWindow
libQt6Gui.so.6:_ZN13QRasterWindowD2Ev
libQt6Gui.so.6:_ZN14QOpenGLContext10areSharingEPS_S0_
libQt6Gui.so.6:_ZN14QOpenGLContext11doneCurrentEv
libQt6Gui.so.6:_ZN14QOpenGLContext11makeCurrentEP8QSurface
libQt6Gui.so.6:_ZN14QOpenGLContext14currentContextEv
libQt6Gui.so.6:_ZN14QOpenGLContext15setShareContextEPS_
libQt6Gui.so.6:_ZN14QOpenGLContext16staticMetaObjectE
libQt6Gui.so.6:_ZN14QOpenGLContext18aboutToBeDestroyedEv
libQt6Gui.so.6:_ZN14QOpenGLContext18globalShareContextEv
libQt6Gui.so.6:_ZN14QOpenGLContext6createEv
libQt6Gui.so.6:_ZN14QOpenGLContextC1EP7QObject
libQt6Gui.so.6:_ZN14QShaderVersionC1Ei6QFlagsINS_4FlagEE
libQt6Gui.so.6:_ZN14QSurfaceFormatD1Ev
libQt6Gui.so.6:_ZN15QGuiApplication11inputMethodEv
libQt6Gui.so.6:_ZN15QGuiApplication13primaryScreenEv
libQt6Gui.so.6:_ZN15QGuiApplication16staticMetaObjectE
libQt6Gui.so.6:_ZN15QGuiApplication23applicationStateChangedEN2Qt16ApplicationStateE
libQt6Gui.so.6:_ZN15QGuiApplication23platformNativeInterfaceEv
libQt6Gui.so.6:_ZN15QGuiApplication4execEv
libQt6Gui.so.6:_ZN15QGuiApplicationC1ERiPPci
libQt6Gui.so.6:_ZN15QGuiApplicationD1Ev
libQt6Gui.so.6:_ZN15QPointingDevice16staticMetaObjectE
libQt6Gui.so.6:_ZN16QTextureFileDataD1Ev
libQt6Gui.so.6:_ZN17QOffscreenSurface6createEv
libQt6Gui.so.6:_ZN17QOffscreenSurface9setFormatERK14QSurfaceFormat
libQt6Gui.so.6:_ZN17QOffscreenSurfaceC1EP7QScreenP7QObject
libQt6Gui.so.6:_ZN18QPaintDeviceWindow11exposeEventEP12QExposeEvent
libQt6Gui.so.6:_ZN18QPaintDeviceWindow5eventEP6QEvent
libQt6Gui.so.6:_ZN18QPaintDeviceWindow6updateEv
libQt6Gui.so.6:_ZN18QShaderDescriptionC1Ev
libQt6Gui.so.6:_ZN18QShaderDescriptionD1Ev
libQt6Gui.so.6:_ZN18QTextureFileReader20supportedFileFormatsEv
libQt6Gui.so.6:_ZN18QTextureFileReader4readEv
libQt6Gui.so.6:_ZN18QTextureFileReader7canReadEv
libQt6Gui.so.6:_ZN18QTextureFileReaderC1EP9QIODeviceRK7QString
libQt6Gui.so.6:_ZN18QTextureFileReaderD1Ev
libQt6Gui.so.6:_ZN21QEGLStreamConvenience10initializeEPv
libQt6Gui.so.6:_ZN21QEGLStreamConvenienceC1Ev
libQt6Gui.so.6:_ZN22QGuiApplicationPrivate14platform_themeE
libQt6Gui.so.6:_ZN22QGuiApplicationPrivate20platform_integrationE
libQt6Gui.so.6:_ZN22QWindowSystemInterface16handleCloseEventINS_15DefaultDeliveryEEEbP7QWindow
libQt6Gui.so.6:_ZN22QWindowSystemInterface24handleWindowStateChangedINS_15DefaultDeliveryEEEvP7QWindow6QFlagsIN2Qt11WindowStateEEi
libQt6Gui.so.6:_ZN25QWindowSystemEventHandler9sendEventEPN29QWindowSystemInterfacePrivate17WindowSystemEventE
libQt6Gui.so.6:_ZN25QWindowSystemEventHandlerD2Ev
libQt6Gui.so.6:_ZN29QWindowSystemInterfacePrivate31installWindowSystemEventHandlerEP25QWindowSystemEventHandler
libQt6Gui.so.6:_ZN5QFont12setPixelSizeEi
libQt6Gui.so.6:_ZN5QFont9setWeightENS_6WeightE
libQt6Gui.so.6:_ZN5QFontC1ERK7QStringiib
libQt6Gui.so.6:_ZN5QFontC1ERKS_
libQt6Gui.so.6:_ZN5QFontC1Ev
libQt6Gui.so.6:_ZN5QFontD1Ev
libQt6Gui.so.6:_ZN5QIcon16themeSearchPathsEv
libQt6Gui.so.6:_ZN5QIcon17fallbackThemeNameEv
libQt6Gui.so.6:_ZN5QIcon9fromThemeERK7QString
libQt6Gui.so.6:_ZN5QIcon9themeNameEv
libQt6Gui.so.6:_ZN5QIconD1Ev
libQt6Gui.so.6:_ZN6QBrushC1ERK6QColorN2Qt10BrushStyleE
libQt6Gui.so.6:_ZN6QBrushD1Ev
libQt6Gui.so.6:_ZN6QColor10fromStringE14QAnyStringView
libQt6Gui.so.6:_ZN6QColor7fromHsvEiiii
libQt6Gui.so.6:_ZN6QColor9setAlphaFEf
libQt6Gui.so.6:_ZN6QColorC1EN2Qt11GlobalColorE
libQt6Gui.so.6:_ZN6QColorC1Ej
libQt6Gui.so.6:_ZN6QImage16staticMetaObjectE
libQt6Gui.so.6:_ZN6QImage4fillEN2Qt11GlobalColorE
libQt6Gui.so.6:_ZN6QImageC1EPhiixNS_6FormatEPFvPvES2_
libQt6Gui.so.6:_ZN6QImageC1ERK7QStringPKc
libQt6Gui.so.6:_ZN6QImageC1ERKS_
libQt6Gui.so.6:_ZN6QImageC1EiiNS_6FormatE
libQt6Gui.so.6:_ZN6QImageC1Ev
libQt6Gui.so.6:_ZN6QImageD1Ev
libQt6Gui.so.6:_ZN7QCursorC1EN2Qt11CursorShapeE
libQt6Gui.so.6:_ZN7QCursorC1ERK7QPixmapii
libQt6Gui.so.6:_ZN7QCursorD1Ev
libQt6Gui.so.6:_ZN7QPixmap9fromImageERK6QImage6QFlagsIN2Qt19ImageConversionFlagEE
libQt6Gui.so.6:_ZN7QPixmapC1Ev
libQt6Gui.so.6:_ZN7QPixmapD1Ev
libQt6Gui.so.6:_ZN7QRegion12shared_emptyE
libQt6Gui.so.6:_ZN7QRegionC1ERK5QRectNS_10RegionTypeE
libQt6Gui.so.6:_ZN7QRegionC1ERKS_
libQt6Gui.so.6:_ZN7QRegionC1Ev
libQt6Gui.so.6:_ZN7QRegionD1Ev
libQt6Gui.so.6:_ZN7QRegionaSERKS_
libQt6Gui.so.6:_ZN7QRegionmIERKS_
libQt6Gui.so.6:_ZN7QRegionoRERKS_
libQt6Gui.so.6:_ZN7QRegionpLERK5QRect
libQt6Gui.so.6:_ZN7QShader14setDescriptionERK18QShaderDescription
libQt6Gui.so.6:_ZN7QShader8setStageENS_5StageE
libQt6Gui.so.6:_ZN7QShader9setShaderERK10QShaderKeyRK11QShaderCode
libQt6Gui.so.6:_ZN7QShaderC1Ev
libQt6Gui.so.6:_ZN7QShaderD1Ev
libQt6Gui.so.6:_ZN7QWindow10closeEventEP11QCloseEvent
libQt6Gui.so.6:_ZN7QWindow10setVisibleEb
libQt6Gui.so.6:_ZN7QWindow10touchEventEP11QTouchEvent
libQt6Gui.so.6:_ZN7QWindow10wheelEventEP11QWheelEvent
libQt6Gui.so.6:_ZN7QWindow11nativeEventERK10QByteArrayPvPx
libQt6Gui.so.6:_ZN7QWindow11tabletEventEP12QTabletEvent
libQt6Gui.so.6:_ZN7QWindow12focusInEventEP11QFocusEvent
libQt6Gui.so.6:_ZN7QWindow12widthChangedEi
libQt6Gui.so.6:_ZN7QWindow13focusOutEventEP11QFocusEvent
libQt6Gui.so.6:_ZN7QWindow13heightChangedEi
libQt6Gui.so.6:_ZN7QWindow13keyPressEventEP9QKeyEvent
libQt6Gui.so.6:_ZN7QWindow13requestUpdateEv
libQt6Gui.so.6:_ZN7QWindow13screenChangedEP7QScreen
libQt6Gui.so.6:_ZN7QWindow14mouseMoveEventEP11QMouseEvent
libQt6Gui.so.6:_ZN7QWindow14setWindowStateEN2Qt11WindowStateE
libQt6Gui.so.6:_ZN7QWindow15keyReleaseEventEP9QKeyEvent
libQt6Gui.so.6:_ZN7QWindow15setWindowStatesE6QFlagsIN2Qt11WindowStateEE
libQt6Gui.so.6:_ZN7QWindow16staticMetaObjectE
libQt6Gui.so.6:_ZN7QWindow17mouseReleaseEventEP11QMouseEvent
libQt6Gui.so.6:_ZN7QWindow21mouseDoubleClickEventEP11QMouseEvent
libQt6Gui.so.6:_ZN7QWindow4showEv
libQt6Gui.so.6:_ZN7QWindow5closeEv
libQt6Gui.so.6:_ZN7QWindow6resizeEii
libQt6Gui.so.6:_ZN7QWindow8setFlagsE6QFlagsIN2Qt10WindowTypeEE
libQt6Gui.so.6:_ZN7QWindow8setTitleERK7QString
libQt6Gui.so.6:_ZN7QWindow9hideEventEP10QHideEvent
libQt6Gui.so.6:_ZN7QWindow9moveEventEP10QMoveEvent
libQt6Gui.so.6:_ZN7QWindow9showEventEP10QShowEvent
libQt6Gui.so.6:_ZN8QPainter10drawPixmapERK6QRectFRK7QPixmapS2_
libQt6Gui.so.6:_ZN8QPainter11drawEllipseERK5QRect
libQt6Gui.so.6:_ZN8QPainter11setClipRectERK5QRectN2Qt13ClipOperationE
libQt6Gui.so.6:_ZN8QPainter13setRenderHintENS_10RenderHintEb
libQt6Gui.so.6:_ZN8QPainter14drawStaticTextERK7QPointFRK11QStaticText
libQt6Gui.so.6:_ZN8QPainter14setRenderHintsE6QFlagsINS_10RenderHintEEb
libQt6Gui.so.6:_ZN8QPainter4saveEv
libQt6Gui.so.6:_ZN8QPainter6setPenEN2Qt8PenStyleE
libQt6Gui.so.6:_ZN8QPainter6setPenERK6QColor
libQt6Gui.so.6:_ZN8QPainter7restoreEv
libQt6Gui.so.6:_ZN8QPainter7setFontERK5QFont
libQt6Gui.so.6:_ZN8QPainter8drawPathERK12QPainterPath
libQt6Gui.so.6:_ZN8QPainter8drawTextERK6QRectFiRK7QStringPS0_
libQt6Gui.so.6:_ZN8QPainter8fillPathERK12QPainterPathRK6QBrush
libQt6Gui.so.6:_ZN8QPainter8fillRectERK5QRectRK6QColor
libQt6Gui.so.6:_ZN8QPainter8fillRectERK6QRectFRK6QColor
libQt6Gui.so.6:_ZN8QPainter8setBrushE6QColor
libQt6Gui.so.6:_ZN8QPainterC1EP12QPaintDevice
libQt6Gui.so.6:_ZN8QPainterD1Ev
libQt6Gui.so.6:_ZN8QPaletteC1ERKS_
libQt6Gui.so.6:_ZN8QPaletteC1Ev
libQt6Gui.so.6:_ZN8QPaletteD1Ev
libQt6Gui.so.6:_ZN9QKeyEventC1EN6QEvent4TypeEi6QFlagsIN2Qt16KeyboardModifierEERK7QStringbt
libQt6Gui.so.6:_ZN9QKeyEventD1Ev
libQt6Gui.so.6:_ZNK10QTransform7mapRectERK6QRectF
libQt6Gui.so.6:_ZNK11QEventPoint13scenePositionEv
libQt6Gui.so.6:_ZNK11QEventPoint2idEv
libQt6Gui.so.6:_ZNK11QEventPoint5stateEv
libQt6Gui.so.6:_ZNK11QEventPoint8positionEv
libQt6Gui.so.6:_ZNK11QStaticText4sizeEv
libQt6Gui.so.6:_ZNK11QStaticText4textEv
libQt6Gui.so.6:_ZNK11QTextFormat10propertiesEv
libQt6Gui.so.6:_ZNK11QTextFormateqERKS_
libQt6Gui.so.6:_ZNK12QImageReader11errorStringEv
libQt6Gui.so.6:_ZNK12QImageReader8fileNameEv
libQt6Gui.so.6:_ZNK12QInputMethod14inputDirectionEv
libQt6Gui.so.6:_ZNK12QInputMethod17keyboardRectangleEv
libQt6Gui.so.6:_ZNK12QInputMethod18inputItemRectangleEv
libQt6Gui.so.6:_ZNK12QInputMethod18inputItemTransformEv
libQt6Gui.so.6:_ZNK12QInputMethod6localeEv
libQt6Gui.so.6:_ZNK12QInputMethod9isVisibleEv
libQt6Gui.so.6:_ZNK12QPaintDevice11initPainterEP8QPainter
libQt6Gui.so.6:_ZNK12QPaintDevice13sharedPainterEv
libQt6Gui.so.6:_ZNK12QPainterPath10simplifiedEv
libQt6Gui.so.6:_ZNK13QRasterWindow10redirectedEP6QPoint
libQt6Gui.so.6:_ZNK13QRasterWindow6metricEN12QPaintDevice17PaintDeviceMetricE
libQt6Gui.so.6:_ZNK14QOpenGLContext14getProcAddressEPKc
libQt6Gui.so.6:_ZNK14QOpenGLContext6formatEv
libQt6Gui.so.6:_ZNK14QOpenGLContext9functionsEv
libQt6Gui.so.6:_ZNK15QPlatformWindow14windowGeometryEv
libQt6Gui.so.6:_ZNK15QPlatformWindow17windowMaximumSizeEv
libQt6Gui.so.6:_ZNK15QPlatformWindow17windowMinimumSizeEv
libQt6Gui.so.6:_ZNK15QPlatformWindow6windowEv
libQt6Gui.so.6:_ZNK16QTextureFileData11getDataViewEii
libQt6Gui.so.6:_ZNK16QTextureFileData16glInternalFormatEv
libQt6Gui.so.6:_ZNK16QTextureFileData4sizeEv
libQt6Gui.so.6:_ZNK16QTextureFileData7isValidEv
libQt6Gui.so.6:_ZNK18QPaintDeviceWindow11paintEngineEv
libQt6Gui.so.6:_ZNK5QIcon6pixmapERK5QSizeNS_4ModeENS_5StateE
libQt6Gui.so.6:_ZNK6QColor4nameENS_10NameFormatE
libQt6Gui.so.6:_ZNK6QColoreqERKS_
libQt6Gui.so.6:_ZNK6QImage11sizeInBytesEv
libQt6Gui.so.6:_ZNK6QImage12bytesPerLineEv
libQt6Gui.so.6:_ZNK6QImage15hasAlphaChannelEv
libQt6Gui.so.6:_ZNK6QImage22convertToFormat_helperENS_6FormatE6QFlagsIN2Qt19ImageConversionFlagEE
libQt6Gui.so.6:_ZNK6QImage4sizeEv
libQt6Gui.so.6:_ZNK6QImage5widthEv
libQt6Gui.so.6:_ZNK6QImage6formatEv
libQt6Gui.so.6:_ZNK6QImage6heightEv
libQt6Gui.so.6:_ZNK6QImage6isNullEv
libQt6Gui.so.6:_ZNK6QImage8cacheKeyEv
libQt6Gui.so.6:_ZNK6QImage9constBitsEv
libQt6Gui.so.6:_ZNK6QImageeqERKS_
libQt6Gui.so.6:_ZNK7QRegion11intersectedERK5QRect
libQt6Gui.so.6:_ZNK7QRegion12boundingRectEv
libQt6Gui.so.6:_ZNK7QRegion3endEv
libQt6Gui.so.6:_ZNK7QRegion5beginEv
libQt6Gui.so.6:_ZNK7QRegion6isNullEv
libQt6Gui.so.6:_ZNK7QRegion6unitedERK5QRect
libQt6Gui.so.6:_ZNK7QRegion8containsERK6QPoint
libQt6Gui.so.6:_ZNK7QRegioneqERKS_
libQt6Gui.so.6:_ZNK7QScreen11refreshRateEv
libQt6Gui.so.6:_ZNK7QScreen18primaryOrientationEv
libQt6Gui.so.6:_ZNK7QWindow11focusObjectEv
libQt6Gui.so.6:_ZNK7QWindow11surfaceTypeEv
libQt6Gui.so.6:_ZNK7QWindow12windowStatesEv
libQt6Gui.so.6:_ZNK7QWindow13surfaceHandleEv
libQt6Gui.so.6:_ZNK7QWindow14accessibleRootEv
libQt6Gui.so.6:_ZNK7QWindow16devicePixelRatioEv
libQt6Gui.so.6:_ZNK7QWindow4typeEv
libQt6Gui.so.6:_ZNK7QWindow5flagsEv
libQt6Gui.so.6:_ZNK7QWindow6formatEv
libQt6Gui.so.6:_ZNK7QWindow6handleEv
libQt6Gui.so.6:_ZNK7QWindow6screenEv
libQt6Gui.so.6:_ZNK7QWindow8geometryEv
libQt6Gui.so.6:_ZNK7QWindow8isActiveEv
libQt6Gui.so.6:_ZNK7QWindow9isExposedEv
libQt6Gui.so.6:_ZNK9QKeyEvent9modifiersEv
libQt6Gui.so.6:_ZTI13QRasterWindow
libQt6Gui.so.6:_ZTI25QWindowSystemEventHandler
libQt6Gui.so.6:_ZTV6QImage
libQt6Gui.so.6:_ZTV7QPixmap
libQt6Gui.so.6:_ZThn16_NK7QWindow11surfaceTypeEv
libQt6Gui.so.6:_ZThn16_NK7QWindow13surfaceHandleEv
libQt6Gui.so.6:_ZThn16_NK7QWindow6formatEv
libQt6Gui.so.6:_ZThn40_NK13QRasterWindow10redirectedEP6QPoint
libQt6Gui.so.6:_ZThn40_NK13QRasterWindow6metricEN12QPaintDevice17PaintDeviceMetricE
libQt6Gui.so.6:_ZThn40_NK18QPaintDeviceWindow11paintEngineEv
libQt6Gui.so.6:_Zls6QDebugPK14QOpenGLContext
libQt6Gui.so.6:_Zls6QDebugPK6QEvent
libQt6Gui.so.6:_Zls6QDebugRK11QTextFormat
libQt6Gui.so.6:_Zls6QDebugRK6QColor
libQt6Gui.so.6:_Zls6QDebugRK6QImage
libQt6Gui.so.6:_Zls6QDebugRK7QRegion
libQt6Gui.so.6:_ZlsR11QDataStreamRK11QTextFormat
libQt6Gui.so.6:_ZlsR11QDataStreamRK6QColor
libQt6Gui.so.6:_ZlsR11QDataStreamRK6QImage
libQt6Gui.so.6:_ZlsR11QDataStreamRK7QRegion
libQt6Gui.so.6:_ZrsR11QDataStreamR11QTextFormat
libQt6Gui.so.6:_ZrsR11QDataStreamR6QColor
libQt6Gui.so.6:_ZrsR11QDataStreamR6QImage
libQt6Gui.so.6:_ZrsR11QDataStreamR7QRegion
libQt6OpenGL.so.6:_ZN13QOpenGLWindow10paintEventEP11QPaintEvent
libQt6OpenGL.so.6:_ZN13QOpenGLWindow11paintOverGLEv
libQt6OpenGL.so.6:_ZN13QOpenGLWindow11qt_metacallEN11QMetaObject4CallEiPPv
libQt6OpenGL.so.6:_ZN13QOpenGLWindow11qt_metacastEPKc
libQt6OpenGL.so.6:_ZN13QOpenGLWindow11resizeEventEP12QResizeEvent
libQt6OpenGL.so.6:_ZN13QOpenGLWindow12paintUnderGLEv
libQt6OpenGL.so.6:_ZN13QOpenGLWindow16staticMetaObjectE
libQt6OpenGL.so.6:_ZN13QOpenGLWindow8resizeGLEii
libQt6OpenGL.so.6:_ZN13QOpenGLWindowC2ENS_14UpdateBehaviorEP7QWindow
libQt6OpenGL.so.6:_ZN13QOpenGLWindowD2Ev
libQt6OpenGL.so.6:_ZN14QOpenGLTexture4bindEjNS_16TextureUnitResetE
libQt6OpenGL.so.6:_ZN14QOpenGLTexture4bindEv
libQt6OpenGL.so.6:_ZN14QOpenGLTexture6createEv
libQt6OpenGL.so.6:_ZN14QOpenGLTexture7destroyEv
libQt6OpenGL.so.6:_ZN14QOpenGLTexture7releaseEv
libQt6OpenGL.so.6:_ZN14QOpenGLTexture7setSizeEiii
libQt6OpenGL.so.6:_ZN14QOpenGLTexture9setFormatENS_13TextureFormatE
libQt6OpenGL.so.6:_ZN14QOpenGLTextureC1ENS_6TargetE
libQt6OpenGL.so.6:_ZN14QOpenGLTextureC1ERK6QImageNS_16MipMapGenerationE
libQt6OpenGL.so.6:_ZN14QOpenGLTextureD1Ev
libQt6OpenGL.so.6:_ZN14QVkConvenience20vkFormatFromGlFormatEj
libQt6OpenGL.so.6:_ZN21QOpenGLTextureBlitter15targetTransformERK6QRectFRK5QRect
libQt6OpenGL.so.6:_ZN21QOpenGLTextureBlitter4bindEj
libQt6OpenGL.so.6:_ZN21QOpenGLTextureBlitter4blitEjRK10QMatrix4x4NS_6OriginE
libQt6OpenGL.so.6:_ZN21QOpenGLTextureBlitter6createEv
libQt6OpenGL.so.6:_ZN21QOpenGLTextureBlitter7releaseEv
libQt6OpenGL.so.6:_ZN21QOpenGLTextureBlitterC1Ev
libQt6OpenGL.so.6:_ZN21QOpenGLTextureBlitterD1Ev
libQt6OpenGL.so.6:_ZN24QOpenGLFramebufferObject4bindEv
libQt6OpenGL.so.6:_ZN24QOpenGLFramebufferObjectC1ERK5QSizej
libQt6OpenGL.so.6:_ZN24QOpenGLFramebufferObjectD1Ev
libQt6OpenGL.so.6:_ZNK13QOpenGLWindow10redirectedEP6QPoint
libQt6OpenGL.so.6:_ZNK13QOpenGLWindow6metricEN12QPaintDevice17PaintDeviceMetricE
libQt6OpenGL.so.6:_ZNK13QOpenGLWindow7contextEv
libQt6OpenGL.so.6:_ZNK14QOpenGLTexture6targetEv
libQt6OpenGL.so.6:_ZNK14QOpenGLTexture9isCreatedEv
libQt6OpenGL.so.6:_ZNK14QOpenGLTexture9textureIdEv
libQt6OpenGL.so.6:_ZNK24QOpenGLFramebufferObject7toImageEb
libQt6OpenGL.so.6:_ZTI13QOpenGLWindow
libQt6OpenGL.so.6:_ZThn40_NK13QOpenGLWindow10redirectedEP6QPoint
libQt6OpenGL.so.6:_ZThn40_NK13QOpenGLWindow6metricEN12QPaintDevice17PaintDeviceMetricE
libQt6OpenGL.so.6:_Zls6QDebugPK14QOpenGLTexture
libQt6Qml.so.6:_Z17qmlRegisterModulePKcii
libQt6Qml.so.6:_ZN10QQmlEngine16addImageProviderERK7QStringP21QQmlImageProviderBase
libQt6Qml.so.6:_ZN10QQmlEngine16contextForObjectEPK7QObject
libQt6Qml.so.6:_ZN11QQmlPrivate11qmlregisterENS_16RegistrationTypeEPv
libQt6Qml.so.6:_ZN11QQmlPrivate13qmlunregisterENS_16RegistrationTypeEy
libQt6Qml.so.6:_ZN11QQmlPrivate18AOTCompiledContext4markEP7QObjectPN3QV49MarkStackE
libQt6Qml.so.6:_ZN11QQmlPrivate18AOTCompiledContext4markERK8QVariantPN3QV49MarkStackE
libQt6Qml.so.6:_ZN11QQmlPrivate30qdeclarativeelement_destructorEP7QObject
libQt6Qml.so.6:_ZN12QQmlPropertyC1EP7QObjectRK7QString
libQt6Qml.so.6:_ZN12QQmlPropertyD1Ev
libQt6Qml.so.6:_ZN16QQmlParserStatusC2Ev
libQt6Qml.so.6:_ZN16QQmlParserStatusD2Ev
libQt6Qml.so.6:_ZN19QQmlExtensionPlugin11qt_metacallEN11QMetaObject4CallEiPPv
libQt6Qml.so.6:_ZN19QQmlExtensionPlugin11qt_metacastEPKc
libQt6Qml.so.6:_ZN19QQmlExtensionPlugin15unregisterTypesEv
libQt6Qml.so.6:_ZN19QQmlExtensionPlugin16staticMetaObjectE
libQt6Qml.so.6:_ZN19QQmlExtensionPluginC2EP7QObject
libQt6Qml.so.6:_ZN19QQmlExtensionPluginD2Ev
libQt6Qml.so.6:_ZN21QQmlApplicationEngine4loadERK4QUrl
libQt6Qml.so.6:_ZN21QQmlApplicationEngineC1EP7QObject
libQt6Qml.so.6:_ZN21QQmlApplicationEngineC1ERK4QUrlP7QObject
libQt6Qml.so.6:_ZN21QQmlApplicationEngineD1Ev
libQt6Qml.so.6:_ZN22QQmlModuleRegistrationC1EPKcPFvvE
libQt6Qml.so.6:_ZN22QQmlModuleRegistrationD1Ev
libQt6Qml.so.6:_ZN25QQmlEngineExtensionPlugin11qt_metacallEN11QMetaObject4CallEiPPv
libQt6Qml.so.6:_ZN25QQmlEngineExtensionPlugin11qt_metacastEPKc
libQt6Qml.so.6:_ZN25QQmlEngineExtensionPlugin16initializeEngineEP10QQmlEnginePKc
libQt6Qml.so.6:_ZN25QQmlEngineExtensionPlugin16staticMetaObjectE
libQt6Qml.so.6:_ZN25QQmlEngineExtensionPluginC2EP7QObject
libQt6Qml.so.6:_ZN25QQmlEngineExtensionPluginD2Ev
libQt6Qml.so.6:_ZNK10QQmlEngine13imageProviderERK7QString
libQt6Qml.so.6:_ZNK11QQmlContext6engineEv
libQt6Qml.so.6:_ZNK11QQmlPrivate18AOTCompiledContext14getValueLookupEjPvS1_
libQt6Qml.so.6:_ZNK11QQmlPrivate18AOTCompiledContext15getObjectLookupEjP7QObjectPv
libQt6Qml.so.6:_ZNK11QQmlPrivate18AOTCompiledContext18initGetValueLookupEjPK11QMetaObject
libQt6Qml.so.6:_ZNK11QQmlPrivate18AOTCompiledContext19initGetObjectLookupEjP7QObject
libQt6Qml.so.6:_ZNK11QQmlPrivate18AOTCompiledContext19loadContextIdLookupEjPv
libQt6Qml.so.6:_ZNK11QQmlPrivate18AOTCompiledContext20lookupResultMetaTypeEj
libQt6Qml.so.6:_ZNK11QQmlPrivate18AOTCompiledContext21setInstructionPointerEi
libQt6Qml.so.6:_ZNK11QQmlPrivate18AOTCompiledContext23initLoadContextIdLookupEj
libQt6Qml.so.6:_ZNK11QQmlPrivate18AOTCompiledContext23setReturnValueUndefinedEv
libQt6Qml.so.6:_ZNK11QQmlPrivate18AOTCompiledContext29loadScopeObjectPropertyLookupEjPv
libQt6Qml.so.6:_ZNK11QQmlPrivate18AOTCompiledContext33initLoadScopeObjectPropertyLookupEj
libQt6Qml.so.6:_ZNK11QQmlPrivate18AOTCompiledContext9setLocalsEPKNS_23AOTTrackedLocalsStorageE
libQt6Qml.so.6:_ZNK12QQmlProperty7isValidEv
libQt6Qml.so.6:_ZNK9QJSEngine8hasErrorEv
libQt6Qml.so.6:_ZTI16QQmlParserStatus
libQt6Qml.so.6:_ZTI19QQmlExtensionPlugin
libQt6Qml.so.6:_ZTI25QQmlEngineExtensionPlugin
libQt6Qml.so.6:_ZThn16_N25QQmlEngineExtensionPlugin16initializeEngineEP10QQmlEnginePKc
libQt6Quick.so.6:_ZN10QQuickItem10classBeginEv
libQt6Quick.so.6:_ZN10QQuickItem10itemChangeENS_10ItemChangeERKNS_14ItemChangeDataE
libQt6Quick.so.6:_ZN10QQuickItem10setEnabledEb
libQt6Quick.so.6:_ZN10QQuickItem10setOpacityEd
libQt6Quick.so.6:_ZN10QQuickItem10setVisibleEb
libQt6Quick.so.6:_ZN10QQuickItem10stackAfterEPKS_
libQt6Quick.so.6:_ZN10QQuickItem10touchEventEP11QTouchEvent
libQt6Quick.so.6:_ZN10QQuickItem10wheelEventEP11QWheelEvent
libQt6Quick.so.6:_ZN10QQuickItem11qt_metacallEN11QMetaObject4CallEiPPv
libQt6Quick.so.6:_ZN10QQuickItem11qt_metacastEPKc
libQt6Quick.so.6:_ZN10QQuickItem11setPositionERK7QPointF
libQt6Quick.so.6:_ZN10QQuickItem11setRotationEd
libQt6Quick.so.6:_ZN10QQuickItem11stackBeforeEPKS_
libQt6Quick.so.6:_ZN10QQuickItem11unsetCursorEv
libQt6Quick.so.6:_ZN10QQuickItem12focusInEventEP11QFocusEvent
libQt6Quick.so.6:_ZN10QQuickItem12updatePolishEv
libQt6Quick.so.6:_ZN10QQuickItem12widthChangedEv
libQt6Quick.so.6:_ZN10QQuickItem13dragMoveEventEP14QDragMoveEvent
libQt6Quick.so.6:_ZN10QQuickItem13focusOutEventEP11QFocusEvent
libQt6Quick.so.6:_ZN10QQuickItem13heightChangedEv
libQt6Quick.so.6:_ZN10QQuickItem13keyPressEventEP9QKeyEvent
libQt6Quick.so.6:_ZN10QQuickItem13parentChangedEPS_
libQt6Quick.so.6:_ZN10QQuickItem13setParentItemEPS_
libQt6Quick.so.6:_ZN10QQuickItem13windowChangedEP12QQuickWindow
libQt6Quick.so.6:_ZN10QQuickItem14dragEnterEventEP15QDragEnterEvent
libQt6Quick.so.6:_ZN10QQuickItem14dragLeaveEventEP15QDragLeaveEvent
libQt6Quick.so.6:_ZN10QQuickItem14enabledChangedEv
libQt6Quick.so.6:_ZN10QQuickItem14geometryChangeERK6QRectFS2_
libQt6Quick.so.6:_ZN10QQuickItem14hoverMoveEventEP11QHoverEvent
libQt6Quick.so.6:_ZN10QQuickItem14mouseMoveEventEP11QMouseEvent
libQt6Quick.so.6:_ZN10QQuickItem14paletteChangedEv
libQt6Quick.so.6:_ZN10QQuickItem14paletteCreatedEv
libQt6Quick.so.6:_ZN10QQuickItem15hoverEnterEventEP11QHoverEvent
libQt6Quick.so.6:_ZN10QQuickItem15hoverLeaveEventEP11QHoverEvent
libQt6Quick.so.6:_ZN10QQuickItem15keyReleaseEventEP9QKeyEvent
libQt6Quick.so.6:_ZN10QQuickItem15mousePressEventEP11QMouseEvent
libQt6Quick.so.6:_ZN10QQuickItem15setImplicitSizeEdd
libQt6Quick.so.6:_ZN10QQuickItem15updatePaintNodeEP7QSGNodePNS_19UpdatePaintNodeDataE
libQt6Quick.so.6:_ZN10QQuickItem16forceActiveFocusEv
libQt6Quick.so.6:_ZN10QQuickItem16inputMethodEventEP17QInputMethodEvent
libQt6Quick.so.6:_ZN10QQuickItem16mouseUngrabEventEv
libQt6Quick.so.6:_ZN10QQuickItem16releaseResourcesEv
libQt6Quick.so.6:_ZN10QQuickItem16staticMetaObjectE
libQt6Quick.so.6:_ZN10QQuickItem16touchUngrabEventEv
libQt6Quick.so.6:_ZN10QQuickItem17componentCompleteEv
libQt6Quick.so.6:_ZN10QQuickItem17mouseReleaseEventEP11QMouseEvent
libQt6Quick.so.6:_ZN10QQuickItem17updateInputMethodE6QFlagsIN2Qt16InputMethodQueryEE
libQt6Quick.so.6:_ZN10QQuickItem18activeFocusChangedEb
libQt6Quick.so.6:_ZN10QQuickItem20setAcceptHoverEventsEb
libQt6Quick.so.6:_ZN10QQuickItem20setAcceptTouchEventsEb
libQt6Quick.so.6:_ZN10QQuickItem21childMouseEventFilterEPS_P6QEvent
libQt6Quick.so.6:_ZN10QQuickItem21mouseDoubleClickEventEP11QMouseEvent
libQt6Quick.so.6:_ZN10QQuickItem23setAcceptedMouseButtonsE6QFlagsIN2Qt11MouseButtonEE
libQt6Quick.so.6:_ZN10QQuickItem26setFiltersChildMouseEventsEb
libQt6Quick.so.6:_ZN10QQuickItem4setZEd
libQt6Quick.so.6:_ZN10QQuickItem5eventEP6QEvent
libQt6Quick.so.6:_ZN10QQuickItem6updateEv
libQt6Quick.so.6:_ZN10QQuickItem7setFlagENS_4FlagEb
libQt6Quick.so.6:_ZN10QQuickItem7setSizeERK6QSizeF
libQt6Quick.so.6:_ZN10QQuickItem8setScaleEd
libQt6Quick.so.6:_ZN10QQuickItem9dropEventEP10QDropEvent
libQt6Quick.so.6:_ZN10QQuickItem9setCursorERK7QCursor
libQt6Quick.so.6:_ZN10QQuickItem9setSmoothEb
libQt6Quick.so.6:_ZN10QQuickItem9transformEv
libQt6Quick.so.6:_ZN10QQuickItemC2EPS_
libQt6Quick.so.6:_ZN10QQuickItemC2ER17QQuickItemPrivatePS_
libQt6Quick.so.6:_ZN10QQuickItemD2Ev
libQt6Quick.so.6:_ZN10QSGTexture12setFilteringENS_9FilteringE
libQt6Quick.so.6:_ZN11QSGGeometry26updateTexturedRectGeometryEPS_RK6QRectFS3_
libQt6Quick.so.6:_ZN11QSGGeometry33defaultAttributes_TexturedPoint2DEv
libQt6Quick.so.6:_ZN11QSGGeometryC1ERKNS_12AttributeSetEiii
libQt6Quick.so.6:_ZN11QSGMaterial7setFlagE6QFlagsINS_4FlagEEb
libQt6Quick.so.6:_ZN11QSGMaterialC2Ev
libQt6Quick.so.6:_ZN11QSGMaterialD2Ev
libQt6Quick.so.6:_ZN12QQuickWindow13afterFrameEndEv
libQt6Quick.so.6:_ZN12QQuickWindow14afterRenderingEv
libQt6Quick.so.6:_ZN12QQuickWindow16staticMetaObjectE
libQt6Quick.so.6:_ZN12QQuickWindow17scheduleRenderJobEP9QRunnableNS_11RenderStageE
libQt6Quick.so.6:_ZN12QQuickWindow19beforeSynchronizingEv
libQt6Quick.so.6:_ZN12QQuickWindow6updateEv
libQt6Quick.so.6:_ZN13QQuickPalette12fromQPaletteE8QPalette
libQt6Quick.so.6:_ZN13QQuickPalette14inheritPaletteERK8QPalette
libQt6Quick.so.6:_ZN13QQuickPalette15setCurrentGroupEN8QPalette10ColorGroupE
libQt6Quick.so.6:_ZN13QQuickPalette18setPaletteProviderEPK29QQuickAbstractPaletteProvider
libQt6Quick.so.6:_ZN13QQuickPalette5resetEv
libQt6Quick.so.6:_ZN13QQuickPaletteC1EP7QObject
libQt6Quick.so.6:_ZN13QSGRhiSupport8instanceEv
libQt6Quick.so.6:_ZN15QSGGeometryNode11setMaterialEP11QSGMaterial
libQt6Quick.so.6:_ZN15QSGGeometryNodeC1Ev
libQt6Quick.so.6:_ZN16QNativeInterface16QSGOpenGLTexture10fromNativeEjP12QQuickWindowRK5QSize6QFlagsINS1_19CreateTextureOptionEE
libQt6Quick.so.6:_ZN16QNativeInterface16QSGOpenGLTexture21fromNativeExternalOESEjP12QQuickWindowRK5QSize6QFlagsINS1_19CreateTextureOptionEE
libQt6Quick.so.6:_ZN16QQuickColorGroup16staticMetaObjectE
libQt6Quick.so.6:_ZN16QQuickColorGroup7changedEv
libQt6Quick.so.6:_ZN17QQuickDragHandlerC1EP10QQuickItem
libQt6Quick.so.6:_ZN17QQuickItemPrivate10setVisibleEb
libQt6Quick.so.6:_ZN17QQuickItemPrivate16transformChangedEP10QQuickItem
libQt6Quick.so.6:_ZN17QQuickItemPrivate17addPointerHandlerEP20QQuickPointerHandler
libQt6Quick.so.6:_ZN17QQuickItemPrivate18handlePointerEventEP13QPointerEventb
libQt6Quick.so.6:_ZN17QQuickItemPrivate19createTransformNodeEv
libQt6Quick.so.6:_ZN17QQuickItemPrivate20implicitWidthChangedEv
libQt6Quick.so.6:_ZN17QQuickItemPrivate20removePointerHandlerEP20QQuickPointerHandler
libQt6Quick.so.6:_ZN17QQuickItemPrivate21implicitHeightChangedEv
libQt6Quick.so.6:_ZN17QQuickItemPrivate22handleContextMenuEventEP17QContextMenuEvent
libQt6Quick.so.6:_ZN17QQuickItemPrivate24setLastFocusChangeReasonEN2Qt11FocusReasonE
libQt6Quick.so.6:_ZN17QQuickItemPrivateC2Ev
libQt6Quick.so.6:_ZN17QQuickItemPrivateD2Ev
libQt6Quick.so.6:_ZN17QSGMaterialShader11RenderState11uniformDataEv
libQt6Quick.so.6:_ZN17QSGMaterialShader11RenderState19resourceUpdateBatchEv
libQt6Quick.so.6:_ZN17QSGMaterialShader11RenderState3rhiEv
libQt6Quick.so.6:_ZN17QSGMaterialShader17setShaderFileNameENS_5StageERK7QString
libQt6Quick.so.6:_ZN17QSGMaterialShader27updateGraphicsPipelineStateERNS_11RenderStateEPNS_21GraphicsPipelineStateEP11QSGMaterialS5_
libQt6Quick.so.6:_ZN17QSGMaterialShader9setShaderENS_5StageERK7QShader
libQt6Quick.so.6:_ZN17QSGMaterialShaderC2Ev
libQt6Quick.so.6:_ZN17QSGMaterialShaderD2Ev
libQt6Quick.so.6:_ZN18QSGTextureProvider11qt_metacallEN11QMetaObject4CallEiPPv
libQt6Quick.so.6:_ZN18QSGTextureProvider11qt_metacastEPKc
libQt6Quick.so.6:_ZN18QSGTextureProvider14textureChangedEv
libQt6Quick.so.6:_ZN19QQuickImageProvider11qt_metacallEN11QMetaObject4CallEiPPv
libQt6Quick.so.6:_ZN19QQuickImageProvider11qt_metacastEPKc
libQt6Quick.so.6:_ZN19QQuickImageProvider12requestImageERK7QStringP5QSizeRKS3_
libQt6Quick.so.6:_ZN19QQuickImageProvider13requestPixmapERK7QStringP5QSizeRKS3_
libQt6Quick.so.6:_ZN19QQuickImageProvider14requestTextureERK7QStringP5QSizeRKS3_
libQt6Quick.so.6:_ZN19QQuickImageResponse11qt_metacallEN11QMetaObject4CallEiPPv
libQt6Quick.so.6:_ZN19QQuickImageResponse11qt_metacastEPKc
libQt6Quick.so.6:_ZN19QQuickImageResponse16staticMetaObjectE
libQt6Quick.so.6:_ZN19QQuickImageResponse6cancelEv
libQt6Quick.so.6:_ZN19QQuickImageResponse8finishedEv
libQt6Quick.so.6:_ZN19QQuickImageResponseC2Ev
libQt6Quick.so.6:_ZN19QQuickImageResponseD2Ev
libQt6Quick.so.6:_ZN20QQuickPointerHandler10setEnabledEb
libQt6Quick.so.6:_ZN20QQuickPointerHandler11grabChangedEN15QPointingDevice14GrabTransitionE11QEventPoint
libQt6Quick.so.6:_ZN20QQuickPointerHandler14setCursorShapeEN2Qt11CursorShapeE
libQt6Quick.so.6:_ZN20QQuickPointerHandler16staticMetaObjectE
libQt6Quick.so.6:_ZN20QQuickPointerHandler9setTargetEP10QQuickItem
libQt6Quick.so.6:_ZN20QQuickTextureFactory11qt_metacallEN11QMetaObject4CallEiPPv
libQt6Quick.so.6:_ZN20QQuickTextureFactory11qt_metacastEPKc
libQt6Quick.so.6:_ZN20QQuickTextureFactory22textureFactoryForImageERK6QImage
libQt6Quick.so.6:_ZN20QQuickTextureFactoryC2Ev
libQt6Quick.so.6:_ZN20QQuickTextureFactoryD2Ev
libQt6Quick.so.6:_ZN20QSGBasicGeometryNode11setGeometryEP11QSGGeometry
libQt6Quick.so.6:_ZN20QSGSimpleTextureNode10setTextureEP10QSGTexture
libQt6Quick.so.6:_ZN20QSGSimpleTextureNode12setFilteringEN10QSGTexture9FilteringE
libQt6Quick.so.6:_ZN20QSGSimpleTextureNode13setSourceRectERK6QRectF
libQt6Quick.so.6:_ZN20QSGSimpleTextureNode7setRectERK6QRectF
libQt6Quick.so.6:_ZN20QSGSimpleTextureNodeC1Ev
libQt6Quick.so.6:_ZN23QQuickMultiPointHandler15centroidChangedEv
libQt6Quick.so.6:_ZN23QQuickMultiPointHandler16staticMetaObjectE
libQt6Quick.so.6:_ZN24QQuickAsyncImageProviderC2Ev
libQt6Quick.so.6:_ZN24QQuickAsyncImageProviderD2Ev
libQt6Quick.so.6:_ZN7QSGNode7setFlagENS_4FlagEb
libQt6Quick.so.6:_ZNK10QQuickItem10childItemsEv
libQt6Quick.so.6:_ZNK10QQuickItem10mapToSceneERK7QPointF
libQt6Quick.so.6:_ZNK10QQuickItem10metaObjectEv
libQt6Quick.so.6:_ZNK10QQuickItem10parentItemEv
libQt6Quick.so.6:_ZNK10QQuickItem11mapFromItemEPKS_RK7QPointF
libQt6Quick.so.6:_ZNK10QQuickItem12boundingRectEv
libQt6Quick.so.6:_ZNK10QQuickItem14hasActiveFocusEv
libQt6Quick.so.6:_ZNK10QQuickItem15textureProviderEv
libQt6Quick.so.6:_ZNK10QQuickItem16inputMethodQueryEN2Qt16InputMethodQueryE
libQt6Quick.so.6:_ZNK10QQuickItem17isTextureProviderEv
libQt6Quick.so.6:_ZNK10QQuickItem1zEv
libQt6Quick.so.6:_ZNK10QQuickItem20acceptedMouseButtonsEv
libQt6Quick.so.6:_ZNK10QQuickItem5flagsEv
libQt6Quick.so.6:_ZNK10QQuickItem5widthEv
libQt6Quick.so.6:_ZNK10QQuickItem6heightEv
libQt6Quick.so.6:_ZNK10QQuickItem6smoothEv
libQt6Quick.so.6:_ZNK10QQuickItem6windowEv
libQt6Quick.so.6:_ZNK10QQuickItem8clipRectEv
libQt6Quick.so.6:_ZNK10QQuickItem8containsERK7QPointF
libQt6Quick.so.6:_ZNK10QQuickItem8positionEv
libQt6Quick.so.6:_ZNK10QQuickItem9isEnabledEv
libQt6Quick.so.6:_ZNK10QQuickItem9isVisibleEv
libQt6Quick.so.6:_ZNK10QQuickItem9mapToItemEPKS_RK7QPointF
libQt6Quick.so.6:_ZNK11QSGMaterial7compareEPKS_
libQt6Quick.so.6:_ZNK12QQuickWindow11contentItemEv
libQt6Quick.so.6:_ZNK12QQuickWindow22createTextureFromImageERK6QImage
libQt6Quick.so.6:_ZNK13QQuickPalette10toQPaletteEv
libQt6Quick.so.6:_ZNK17QQuickItemPrivate12dumpItemTreeEi
libQt6Quick.so.6:_ZNK17QQuickItemPrivate14accessibleRoleEv
libQt6Quick.so.6:_ZNK17QQuickItemPrivate16getImplicitWidthEv
libQt6Quick.so.6:_ZNK17QQuickItemPrivate17getImplicitHeightEv
libQt6Quick.so.6:_ZNK17QQuickItemPrivate20paintOrderChildItemsEv
libQt6Quick.so.6:_ZNK17QSGMaterialShader11RenderState14combinedMatrixEv
libQt6Quick.so.6:_ZNK17QSGMaterialShader11RenderState7opacityEv
libQt6Quick.so.6:_ZNK18QSGTextureProvider10metaObjectEv
libQt6Quick.so.6:_ZNK19QQuickImageProvider10metaObjectEv
libQt6Quick.so.6:_ZNK19QQuickImageProvider5flagsEv
libQt6Quick.so.6:_ZNK19QQuickImageProvider9imageTypeEv
libQt6Quick.so.6:_ZNK20QQuickPointerHandler6activeEv
libQt6Quick.so.6:_ZNK20QQuickTextureFactory10metaObjectEv
libQt6Quick.so.6:_ZNK20QQuickTextureFactory5imageEv
libQt6Quick.so.6:_ZNK23QQuickMultiPointHandler8centroidEv
libQt6Quick.so.6:_ZTI10QQuickItem
libQt6Quick.so.6:_ZTI11QSGMaterial
libQt6Quick.so.6:_ZTI17QQuickItemPrivate
libQt6Quick.so.6:_ZTI17QSGMaterialShader
libQt6Quick.so.6:_ZTI18QSGTextureProvider
libQt6Quick.so.6:_ZTI19QQuickImageResponse
libQt6Quick.so.6:_ZTI20QQuickTextureFactory
libQt6Quick.so.6:_ZTI24QQuickAsyncImageProvider
libQt6Quick.so.6:_ZThn16_N10QQuickItem10classBeginEv
libQt6Quick.so.6:_ZThn16_N10QQuickItem17componentCompleteEv
libQt6Quick.so.6:_Zls6QDebugP10QQuickItem
libQt6Svg.so.6:_ZN12QSvgRenderer6renderEP8QPainterRK6QRectF
libQt6Svg.so.6:_ZN12QSvgRendererC1ERK10QByteArrayP7QObject
libQt6Svg.so.6:_ZN12QSvgRendererD1Ev
libQt6WaylandClient.so.6:_ZN15QtWaylandClient14QWaylandWindow11applyCursorEPNS_19QWaylandInputDeviceERK7QCursor
libQt6WaylandClient.so.6:_ZN15QtWaylandClient14QWaylandWindow18restoreMouseCursorEPNS_19QWaylandInputDeviceE
libQt6WaylandClient.so.6:_ZN15QtWaylandClient14QWaylandWindow24resizeFromApplyConfigureERK5QSizeRK6QPoint
libQt6WaylandClient.so.6:_ZN15QtWaylandClient14QWaylandWindow26applyConfigureWhenPossibleEv
libQt6WaylandClient.so.6:_ZN15QtWaylandClient20QWaylandShellSurface11qt_metacallEN11QMetaObject4CallEiPPv
libQt6WaylandClient.so.6:_ZN15QtWaylandClient20QWaylandShellSurface11qt_metacastEPKc
libQt6WaylandClient.so.6:_ZN15QtWaylandClient20QWaylandShellSurface12sendPropertyERK7QStringRK8QVariant
libQt6WaylandClient.so.6:_ZN15QtWaylandClient20QWaylandShellSurface14platformWindowEv
libQt6WaylandClient.so.6:_ZN15QtWaylandClient20QWaylandShellSurface14setWindowFlagsE6QFlagsIN2Qt10WindowTypeEE
libQt6WaylandClient.so.6:_ZN15QtWaylandClient20QWaylandShellSurface17setWindowGeometryERK5QRect
libQt6WaylandClient.so.6:_ZN15QtWaylandClient20QWaylandShellSurface21setXdgActivationTokenERK7QString
libQt6WaylandClient.so.6:_ZN15QtWaylandClient20QWaylandShellSurface24resizeFromApplyConfigureERK5QSizeRK6QPoint
libQt6WaylandClient.so.6:_ZN15QtWaylandClient20QWaylandShellSurface25requestXdgActivationTokenEj
libQt6WaylandClient.so.6:_ZN15QtWaylandClient20QWaylandShellSurface26applyConfigureWhenPossibleEv
libQt6WaylandClient.so.6:_ZN15QtWaylandClient20QWaylandShellSurface28repositionFromApplyConfigureERK6QPoint
libQt6WaylandClient.so.6:_ZN15QtWaylandClient20QWaylandShellSurface29setGeometryFromApplyConfigureERK6QPointRK5QSize
libQt6WaylandClient.so.6:_ZN15QtWaylandClient20QWaylandShellSurface9getSerialEPNS_19QWaylandInputDeviceE
libQt6WaylandClient.so.6:_ZN15QtWaylandClient20QWaylandShellSurfaceC2EPNS_14QWaylandWindowE
libQt6WaylandClient.so.6:_ZN15QtWaylandClient24QWaylandDecorationPlugin11qt_metacallEN11QMetaObject4CallEiPPv
libQt6WaylandClient.so.6:_ZN15QtWaylandClient24QWaylandDecorationPlugin11qt_metacastEPKc
libQt6WaylandClient.so.6:_ZN15QtWaylandClient24QWaylandDecorationPlugin16staticMetaObjectE
libQt6WaylandClient.so.6:_ZN15QtWaylandClient24QWaylandDecorationPluginC2EP7QObject
libQt6WaylandClient.so.6:_ZN15QtWaylandClient24QWaylandDecorationPluginD2Ev
libQt6WaylandClient.so.6:_ZN15QtWaylandClient24QWaylandShellIntegration18wlSurfaceForWindowEPNS_14QWaylandWindowE
libQt6WaylandClient.so.6:_ZN15QtWaylandClient24QWaylandShellIntegrationD2Ev
libQt6WaylandClient.so.6:_ZN15QtWaylandClient26QWaylandAbstractDecoration11qt_metacallEN11QMetaObject4CallEiPPv
libQt6WaylandClient.so.6:_ZN15QtWaylandClient26QWaylandAbstractDecoration11qt_metacastEPKc
libQt6WaylandClient.so.6:_ZN15QtWaylandClient26QWaylandAbstractDecoration11startResizeEPNS_19QWaylandInputDeviceE6QFlagsIN2Qt4EdgeEES3_INS4_11MouseButtonEE
libQt6WaylandClient.so.6:_ZN15QtWaylandClient26QWaylandAbstractDecoration13isLeftClickedE6QFlagsIN2Qt11MouseButtonEE
libQt6WaylandClient.so.6:_ZN15QtWaylandClient26QWaylandAbstractDecoration14isLeftReleasedE6QFlagsIN2Qt11MouseButtonEE
libQt6WaylandClient.so.6:_ZN15QtWaylandClient26QWaylandAbstractDecoration15setMouseButtonsE6QFlagsIN2Qt11MouseButtonEE
libQt6WaylandClient.so.6:_ZN15QtWaylandClient26QWaylandAbstractDecoration16staticMetaObjectE
libQt6WaylandClient.so.6:_ZN15QtWaylandClient26QWaylandAbstractDecoration6updateEv
libQt6WaylandClient.so.6:_ZN15QtWaylandClient26QWaylandAbstractDecoration9startMoveEPNS_19QWaylandInputDeviceE6QFlagsIN2Qt11MouseButtonEE
libQt6WaylandClient.so.6:_ZN15QtWaylandClient26QWaylandAbstractDecorationC2Ev
libQt6WaylandClient.so.6:_ZN15QtWaylandClient26QWaylandAbstractDecorationD2Ev
libQt6WaylandClient.so.6:_ZN15QtWaylandClient30QWaylandShellIntegrationPlugin11qt_metacallEN11QMetaObject4CallEiPPv
libQt6WaylandClient.so.6:_ZN15QtWaylandClient30QWaylandShellIntegrationPlugin11qt_metacastEPKc
libQt6WaylandClient.so.6:_ZN15QtWaylandClient30QWaylandShellIntegrationPlugin16staticMetaObjectE
libQt6WaylandClient.so.6:_ZN15QtWaylandClient30QWaylandShellIntegrationPluginC2EP7QObject
libQt6WaylandClient.so.6:_ZN15QtWaylandClient30QWaylandShellIntegrationPluginD2Ev
libQt6WaylandClient.so.6:_ZN23QWaylandClientExtension10initializeEv
libQt6WaylandClient.so.6:_ZN23QWaylandClientExtension10setVersionEi
libQt6WaylandClient.so.6:_ZN23QWaylandClientExtension11qt_metacallEN11QMetaObject4CallEiPPv
libQt6WaylandClient.so.6:_ZN23QWaylandClientExtension11qt_metacastEPKc
libQt6WaylandClient.so.6:_ZN23QWaylandClientExtension13activeChangedEv
libQt6WaylandClient.so.6:_ZN23QWaylandClientExtension16staticMetaObjectE
libQt6WaylandClient.so.6:_ZN23QWaylandClientExtensionC2Ei
libQt6WaylandClient.so.6:_ZN23QWaylandClientExtensionD2Ev
libQt6WaylandClient.so.6:_ZNK15QtWaylandClient14QWaylandWindow10decorationEv
libQt6WaylandClient.so.6:_ZNK15QtWaylandClient14QWaylandWindow12shellSurfaceEv
libQt6WaylandClient.so.6:_ZNK15QtWaylandClient14QWaylandWindow12windowStatesEv
libQt6WaylandClient.so.6:_ZNK15QtWaylandClient14QWaylandWindow15transientParentEv
libQt6WaylandClient.so.6:_ZNK15QtWaylandClient14QWaylandWindow21windowContentGeometryEv
libQt6WaylandClient.so.6:_ZNK15QtWaylandClient14QWaylandWindow26toplevelWindowTilingStatesEv
libQt6WaylandClient.so.6:_ZNK15QtWaylandClient14QWaylandWindow9wlSurfaceEv
libQt6WaylandClient.so.6:_ZNK15QtWaylandClient20QWaylandServerBuffer4sizeEv
libQt6WaylandClient.so.6:_ZNK15QtWaylandClient20QWaylandShellSurface10metaObjectEv
libQt6WaylandClient.so.6:_ZNK15QtWaylandClient20QWaylandShellSurface17commitSurfaceRoleEv
libQt6WaylandClient.so.6:_ZNK15QtWaylandClient26QWaylandAbstractDecoration13waylandWindowEv
libQt6WaylandClient.so.6:_ZNK15QtWaylandClient26QWaylandAbstractDecoration6windowEv
libQt6WaylandClient.so.6:_ZNK23QWaylandClientExtension10metaObjectEv
libQt6WaylandClient.so.6:_ZNK23QWaylandClientExtension7versionEv
libQt6WaylandClient.so.6:_ZNK23QWaylandClientExtension8isActiveEv
libQt6WaylandClient.so.6:_ZTI23QWaylandClientExtension
libQt6WaylandClient.so.6:_ZTIN15QtWaylandClient20QWaylandShellSurfaceE
libQt6WaylandClient.so.6:_ZTIN15QtWaylandClient24QWaylandDecorationPluginE
libQt6WaylandClient.so.6:_ZTIN15QtWaylandClient24QWaylandShellIntegrationE
libQt6WaylandClient.so.6:_ZTIN15QtWaylandClient26QWaylandAbstractDecorationE
libQt6WaylandClient.so.6:_ZTIN15QtWaylandClient30QWaylandShellIntegrationPluginE
libc.so.6:__cxa_atexit
libc.so.6:__errno_location
libc.so.6:__libc_start_main
libc.so.6:__open_2
libc.so.6:__read_chk
libc.so.6:__stack_chk_fail
libc.so.6:__vfprintf_chk
libc.so.6:close
libc.so.6:fcntl
libc.so.6:free
libc.so.6:ftruncate
libc.so.6:getenv
libc.so.6:getpid
libc.so.6:kill
libc.so.6:malloc
libc.so.6:memcmp
libc.so.6:memcpy
libc.so.6:memmove
libc.so.6:memset
libc.so.6:mkstemp
libc.so.6:mmap
libc.so.6:munmap
libc.so.6:perror
libc.so.6:pipe
libc.so.6:rand
libc.so.6:stderr
libc.so.6:strcmp
libc.so.6:strcpy
libc.so.6:strlen
libc.so.6:strstr
libc.so.6:unlink
libgcc_s.so.1:_Unwind_Resume
libm.so.6:floor
libm.so.6:round
libstdc++.so.6:_ZSt18_Rb_tree_decrementPSt18_Rb_tree_node_base
libstdc++.so.6:_ZSt18_Rb_tree_incrementPSt18_Rb_tree_node_base
libstdc++.so.6:_ZSt20__throw_length_errorPKc
libstdc++.so.6:_ZSt21__glibcxx_assert_failPKciS0_S0_
libstdc++.so.6:_ZSt25__throw_bad_function_callv
libstdc++.so.6:_ZSt28_Rb_tree_rebalance_for_erasePSt18_Rb_tree_node_baseRS_
libstdc++.so.6:_ZSt29_Rb_tree_insert_and_rebalancebPSt18_Rb_tree_node_baseS0_RS_
libstdc++.so.6:_ZSt9terminatev
libstdc++.so.6:_ZTVN10__cxxabiv117__class_type_infoE
libstdc++.so.6:_ZTVN10__cxxabiv119__pointer_type_infoE
libstdc++.so.6:_ZTVN10__cxxabiv120__si_class_type_infoE
libstdc++.so.6:_ZTVN10__cxxabiv121__vmi_class_type_infoE
libstdc++.so.6:_ZdaPv
libstdc++.so.6:_ZdaPvm
libstdc++.so.6:_ZdlPv
libstdc++.so.6:_ZdlPvm
libstdc++.so.6:_Znam
libstdc++.so.6:_Znwm
libstdc++.so.6:__cxa_begin_catch
libstdc++.so.6:__cxa_end_catch
libstdc++.so.6:__cxa_guard_acquire
libstdc++.so.6:__cxa_guard_release
libstdc++.so.6:__cxa_pure_virtual
libstdc++.so.6:__cxa_rethrow
libstdc++.so.6:__gxx_personality_v0
libwayland-client.so.0:wl_buffer_interface
libwayland-client.so.0:wl_list_init
libwayland-client.so.0:wl_list_remove
libwayland-client.so.0:wl_output_interface
libwayland-client.so.0:wl_proxy_add_listener
libwayland-client.so.0:wl_proxy_get_listener
libwayland-client.so.0:wl_proxy_get_user_data
libwayland-client.so.0:wl_proxy_get_version
libwayland-client.so.0:wl_proxy_marshal_constructor_versioned
libwayland-client.so.0:wl_proxy_marshal_flags
libwayland-client.so.0:wl_surface_interface
libwayland-server.so.0:wl_client_add_destroy_listener
libwayland-server.so.0:wl_client_destroy
libwayland-server.so.0:wl_client_get_credentials
libwayland-server.so.0:wl_client_get_destroy_listener
libwayland-server.so.0:wl_client_get_object
libwayland-server.so.0:wl_display_add_destroy_listener
libwayland-server.so.0:wl_display_add_shm_format
libwayland-server.so.0:wl_display_add_socket
libwayland-server.so.0:wl_display_add_socket_auto
libwayland-server.so.0:wl_display_add_socket_fd
libwayland-server.so.0:wl_display_create
libwayland-server.so.0:wl_display_destroy
libwayland-server.so.0:wl_display_flush_clients
libwayland-server.so.0:wl_display_get_event_loop
libwayland-server.so.0:wl_display_init_shm
libwayland-server.so.0:wl_display_next_serial
libwayland-server.so.0:wl_event_loop_dispatch
libwayland-server.so.0:wl_event_loop_get_fd
libwayland-server.so.0:wl_global_create
libwayland-server.so.0:wl_global_destroy
libwayland-server.so.0:wl_resource_add_destroy_listener
libwayland-server.so.0:wl_resource_create
libwayland-server.so.0:wl_resource_destroy
libwayland-server.so.0:wl_resource_get_client
libwayland-server.so.0:wl_resource_get_id
libwayland-server.so.0:wl_resource_get_user_data
libwayland-server.so.0:wl_resource_get_version
libwayland-server.so.0:wl_resource_instance_of
libwayland-server.so.0:wl_resource_post_error
libwayland-server.so.0:wl_resource_post_event
libwayland-server.so.0:wl_resource_post_no_memory
libwayland-server.so.0:wl_resource_set_implementation
libwayland-server.so.0:wl_shm_buffer_get
libwayland-server.so.0:wl_shm_buffer_get_data
libwayland-server.so.0:wl_shm_buffer_get_format
libwayland-server.so.0:wl_shm_buffer_get_height
libwayland-server.so.0:wl_shm_buffer_get_stride
libwayland-server.so.0:wl_shm_buffer_get_width
libwayland-server.so.0:wl_shm_buffer_ref_pool
libwayland-server.so.0:wl_shm_pool_unref
libxkbcommon.so.0:xkb_context_new
libxkbcommon.so.0:xkb_context_unref
libxkbcommon.so.0:xkb_keymap_get_as_string
libxkbcommon.so.0:xkb_keymap_key_for_each
libxkbcommon.so.0:xkb_keymap_key_get_syms_by_level
libxkbcommon.so.0:xkb_keymap_mod_get_index
libxkbcommon.so.0:xkb_keymap_new_from_names
libxkbcommon.so.0:xkb_keymap_num_layouts_for_key
libxkbcommon.so.0:xkb_keymap_unref
libxkbcommon.so.0:xkb_state_get_keymap
libxkbcommon.so.0:xkb_state_key_get_one_sym
libxkbcommon.so.0:xkb_state_mod_index_is_active
libxkbcommon.so.0:xkb_state_new
libxkbcommon.so.0:xkb_state_serialize_layout
libxkbcommon.so.0:xkb_state_serialize_mods
libxkbcommon.so.0:xkb_state_unref
libxkbcommon.so.0:xkb_state_update_key
libxkbcommon.so.0:xkb_state_update_mask
