libboost_atomic.so.1.72.0:_ZN5boost7atomics6detail8lockpool11scoped_lockC1EPVKv
libboost_atomic.so.1.72.0:_ZN5boost7atomics6detail8lockpool11scoped_lockC2EPVKv
libboost_atomic.so.1.72.0:_ZN5boost7atomics6detail8lockpool11scoped_lockD1Ev
libboost_atomic.so.1.72.0:_ZN5boost7atomics6detail8lockpool11scoped_lockD2Ev
libboost_atomic.so.1.72.0:_ZN5boost7atomics6detail8lockpool12signal_fenceEv
libboost_atomic.so.1.72.0:_ZN5boost7atomics6detail8lockpool12thread_fenceEv
libboost_chrono.so.1.72.0:_ZN5boost6chrono12steady_clock3nowERNS_6system10error_codeE
libboost_chrono.so.1.72.0:_ZN5boost6chrono12steady_clock3nowEv
libboost_chrono.so.1.72.0:_ZN5boost6chrono12system_clock11from_time_tEl
libboost_chrono.so.1.72.0:_ZN5boost6chrono12system_clock3nowERNS_6system10error_codeE
libboost_chrono.so.1.72.0:_ZN5boost6chrono12system_clock3nowEv
libboost_chrono.so.1.72.0:_ZN5boost6chrono12system_clock9to_time_tERKNS0_10time_pointIS1_NS0_8durationIlNS_5ratioILl1ELl1000000000EEEEEEE
libboost_chrono.so.1.72.0:_ZN5boost6chrono12thread_clock3nowERNS_6system10error_codeE
libboost_chrono.so.1.72.0:_ZN5boost6chrono12thread_clock3nowEv
libboost_chrono.so.1.72.0:_ZN5boost6chrono17process_cpu_clock3nowERNS_6system10error_codeE
libboost_chrono.so.1.72.0:_ZN5boost6chrono17process_cpu_clock3nowEv
libboost_chrono.so.1.72.0:_ZN5boost6chrono22process_real_cpu_clock3nowERNS_6system10error_codeE
libboost_chrono.so.1.72.0:_ZN5boost6chrono22process_real_cpu_clock3nowEv
libboost_chrono.so.1.72.0:_ZN5boost6chrono22process_user_cpu_clock3nowERNS_6system10error_codeE
libboost_chrono.so.1.72.0:_ZN5boost6chrono22process_user_cpu_clock3nowEv
libboost_chrono.so.1.72.0:_ZN5boost6chrono24process_system_cpu_clock3nowERNS_6system10error_codeE
libboost_chrono.so.1.72.0:_ZN5boost6chrono24process_system_cpu_clock3nowEv
libboost_container.so.1.72.0:_ZN5boost9container13dlmalloc_freeEPv
libboost_container.so.1.72.0:_ZN5boost9container13dlmalloc_growEPvmmPm
libboost_container.so.1.72.0:_ZN5boost9container13dlmalloc_sizeEPKv
libboost_container.so.1.72.0:_ZN5boost9container13dlmalloc_trimEm
libboost_container.so.1.72.0:_ZN5boost9container14dlmalloc_allocEmmPm
libboost_container.so.1.72.0:_ZN5boost9container15dlmalloc_mallocEm
libboost_container.so.1.72.0:_ZN5boost9container15dlmalloc_shrinkEPvmmPmi
libboost_container.so.1.72.0:_ZN5boost9container16dlmalloc_malloptEii
libboost_container.so.1.72.0:_ZN5boost9container17dlmalloc_memalignEmm
libboost_container.so.1.72.0:_ZN5boost9container18dlmalloc_chunksizeEPKv
libboost_container.so.1.72.0:_ZN5boost9container18dlmalloc_footprintEv
libboost_container.so.1.72.0:_ZN5boost9container18dlmalloc_sync_lockEPv
libboost_container.so.1.72.0:_ZN5boost9container20dlmalloc_sync_createEv
libboost_container.so.1.72.0:_ZN5boost9container20dlmalloc_sync_unlockEPv
libboost_container.so.1.72.0:_ZN5boost9container21dlmalloc_malloc_checkEv
libboost_container.so.1.72.0:_ZN5boost9container21dlmalloc_malloc_statsEv
libboost_container.so.1.72.0:_ZN5boost9container21dlmalloc_multideallocEP24boost_cont_memchain_impl
libboost_container.so.1.72.0:_ZN5boost9container21dlmalloc_sync_destroyEPv
libboost_container.so.1.72.0:_ZN5boost9container22dlmalloc_in_use_memoryEv
libboost_container.so.1.72.0:_ZN5boost9container24dlmalloc_all_deallocatedEv
libboost_container.so.1.72.0:_ZN5boost9container25dlmalloc_allocated_memoryEv
libboost_container.so.1.72.0:_ZN5boost9container25dlmalloc_global_sync_lockEv
libboost_container.so.1.72.0:_ZN5boost9container25dlmalloc_multialloc_nodesEmmmP24boost_cont_memchain_impl
libboost_container.so.1.72.0:_ZN5boost9container26dlmalloc_multialloc_arraysEmPKmmmP24boost_cont_memchain_impl
libboost_container.so.1.72.0:_ZN5boost9container27dlmalloc_allocation_commandEjmmmPmPv
libboost_container.so.1.72.0:_ZN5boost9container27dlmalloc_global_sync_unlockEv
libboost_container.so.1.72.0:_ZN5boost9container3pmr19new_delete_resourceEv
libboost_container.so.1.72.0:_ZN5boost9container3pmr20get_default_resourceEv
libboost_container.so.1.72.0:_ZN5boost9container3pmr20null_memory_resourceEv
libboost_container.so.1.72.0:_ZN5boost9container3pmr20set_default_resourceEPNS1_15memory_resourceE
libboost_container.so.1.72.0:_ZN5boost9container3pmr25monotonic_buffer_resource11do_allocateEmm
libboost_container.so.1.72.0:_ZN5boost9container3pmr25monotonic_buffer_resource13do_deallocateEPvmm
libboost_container.so.1.72.0:_ZN5boost9container3pmr25monotonic_buffer_resource20increase_next_bufferEv
libboost_container.so.1.72.0:_ZN5boost9container3pmr25monotonic_buffer_resource21allocate_from_currentEmm
libboost_container.so.1.72.0:_ZN5boost9container3pmr25monotonic_buffer_resource32increase_next_buffer_at_least_toEm
libboost_container.so.1.72.0:_ZN5boost9container3pmr25monotonic_buffer_resource7releaseEv
libboost_container.so.1.72.0:_ZN5boost9container3pmr25monotonic_buffer_resourceC1EPNS1_15memory_resourceE
libboost_container.so.1.72.0:_ZN5boost9container3pmr25monotonic_buffer_resourceC1EPvmPNS1_15memory_resourceE
libboost_container.so.1.72.0:_ZN5boost9container3pmr25monotonic_buffer_resourceC1EmPNS1_15memory_resourceE
libboost_container.so.1.72.0:_ZN5boost9container3pmr25monotonic_buffer_resourceC2EPNS1_15memory_resourceE
libboost_container.so.1.72.0:_ZN5boost9container3pmr25monotonic_buffer_resourceC2EPvmPNS1_15memory_resourceE
libboost_container.so.1.72.0:_ZN5boost9container3pmr25monotonic_buffer_resourceC2EmPNS1_15memory_resourceE
libboost_container.so.1.72.0:_ZN5boost9container3pmr25monotonic_buffer_resourceD0Ev
libboost_container.so.1.72.0:_ZN5boost9container3pmr25monotonic_buffer_resourceD1Ev
libboost_container.so.1.72.0:_ZN5boost9container3pmr25monotonic_buffer_resourceD2Ev
libboost_container.so.1.72.0:_ZN5boost9container3pmr26synchronized_pool_resource11do_allocateEmm
libboost_container.so.1.72.0:_ZN5boost9container3pmr26synchronized_pool_resource13do_deallocateEPvmm
libboost_container.so.1.72.0:_ZN5boost9container3pmr26synchronized_pool_resource7releaseEv
libboost_container.so.1.72.0:_ZN5boost9container3pmr26synchronized_pool_resourceC1EPNS1_15memory_resourceE
libboost_container.so.1.72.0:_ZN5boost9container3pmr26synchronized_pool_resourceC1ERKNS1_12pool_optionsE
libboost_container.so.1.72.0:_ZN5boost9container3pmr26synchronized_pool_resourceC1ERKNS1_12pool_optionsEPNS1_15memory_resourceE
libboost_container.so.1.72.0:_ZN5boost9container3pmr26synchronized_pool_resourceC1Ev
libboost_container.so.1.72.0:_ZN5boost9container3pmr26synchronized_pool_resourceC2EPNS1_15memory_resourceE
libboost_container.so.1.72.0:_ZN5boost9container3pmr26synchronized_pool_resourceC2ERKNS1_12pool_optionsE
libboost_container.so.1.72.0:_ZN5boost9container3pmr26synchronized_pool_resourceC2ERKNS1_12pool_optionsEPNS1_15memory_resourceE
libboost_container.so.1.72.0:_ZN5boost9container3pmr26synchronized_pool_resourceC2Ev
libboost_container.so.1.72.0:_ZN5boost9container3pmr26synchronized_pool_resourceD0Ev
libboost_container.so.1.72.0:_ZN5boost9container3pmr26synchronized_pool_resourceD1Ev
libboost_container.so.1.72.0:_ZN5boost9container3pmr26synchronized_pool_resourceD2Ev
libboost_container.so.1.72.0:_ZN5boost9container3pmr28unsynchronized_pool_resource11do_allocateEmm
libboost_container.so.1.72.0:_ZN5boost9container3pmr28unsynchronized_pool_resource13do_deallocateEPvmm
libboost_container.so.1.72.0:_ZN5boost9container3pmr28unsynchronized_pool_resource7releaseEv
libboost_container.so.1.72.0:_ZN5boost9container3pmr28unsynchronized_pool_resourceC1EPNS1_15memory_resourceE
libboost_container.so.1.72.0:_ZN5boost9container3pmr28unsynchronized_pool_resourceC1ERKNS1_12pool_optionsE
libboost_container.so.1.72.0:_ZN5boost9container3pmr28unsynchronized_pool_resourceC1ERKNS1_12pool_optionsEPNS1_15memory_resourceE
libboost_container.so.1.72.0:_ZN5boost9container3pmr28unsynchronized_pool_resourceC1Ev
libboost_container.so.1.72.0:_ZN5boost9container3pmr28unsynchronized_pool_resourceC2EPNS1_15memory_resourceE
libboost_container.so.1.72.0:_ZN5boost9container3pmr28unsynchronized_pool_resourceC2ERKNS1_12pool_optionsE
libboost_container.so.1.72.0:_ZN5boost9container3pmr28unsynchronized_pool_resourceC2ERKNS1_12pool_optionsEPNS1_15memory_resourceE
libboost_container.so.1.72.0:_ZN5boost9container3pmr28unsynchronized_pool_resourceC2Ev
libboost_container.so.1.72.0:_ZN5boost9container3pmr28unsynchronized_pool_resourceD0Ev
libboost_container.so.1.72.0:_ZN5boost9container3pmr28unsynchronized_pool_resourceD1Ev
libboost_container.so.1.72.0:_ZN5boost9container3pmr28unsynchronized_pool_resourceD2Ev
libboost_container.so.1.72.0:_ZNK5boost9container3pmr25monotonic_buffer_resource11do_is_equalERKNS1_15memory_resourceE
libboost_container.so.1.72.0:_ZNK5boost9container3pmr25monotonic_buffer_resource14current_bufferEv
libboost_container.so.1.72.0:_ZNK5boost9container3pmr25monotonic_buffer_resource16next_buffer_sizeEv
libboost_container.so.1.72.0:_ZNK5boost9container3pmr25monotonic_buffer_resource17remaining_storageEm
libboost_container.so.1.72.0:_ZNK5boost9container3pmr25monotonic_buffer_resource17remaining_storageEmRm
libboost_container.so.1.72.0:_ZNK5boost9container3pmr25monotonic_buffer_resource17upstream_resourceEv
libboost_container.so.1.72.0:_ZNK5boost9container3pmr26synchronized_pool_resource10pool_blockEm
libboost_container.so.1.72.0:_ZNK5boost9container3pmr26synchronized_pool_resource10pool_countEv
libboost_container.so.1.72.0:_ZNK5boost9container3pmr26synchronized_pool_resource10pool_indexEm
libboost_container.so.1.72.0:_ZNK5boost9container3pmr26synchronized_pool_resource11do_is_equalERKNS1_15memory_resourceE
libboost_container.so.1.72.0:_ZNK5boost9container3pmr26synchronized_pool_resource17upstream_resourceEv
libboost_container.so.1.72.0:_ZNK5boost9container3pmr26synchronized_pool_resource18pool_cached_blocksEm
libboost_container.so.1.72.0:_ZNK5boost9container3pmr26synchronized_pool_resource26pool_next_blocks_per_chunkEm
libboost_container.so.1.72.0:_ZNK5boost9container3pmr26synchronized_pool_resource7optionsEv
libboost_container.so.1.72.0:_ZNK5boost9container3pmr28unsynchronized_pool_resource10pool_blockEm
libboost_container.so.1.72.0:_ZNK5boost9container3pmr28unsynchronized_pool_resource10pool_countEv
libboost_container.so.1.72.0:_ZNK5boost9container3pmr28unsynchronized_pool_resource10pool_indexEm
libboost_container.so.1.72.0:_ZNK5boost9container3pmr28unsynchronized_pool_resource11do_is_equalERKNS1_15memory_resourceE
libboost_container.so.1.72.0:_ZNK5boost9container3pmr28unsynchronized_pool_resource17upstream_resourceEv
libboost_container.so.1.72.0:_ZNK5boost9container3pmr28unsynchronized_pool_resource18pool_cached_blocksEm
libboost_container.so.1.72.0:_ZNK5boost9container3pmr28unsynchronized_pool_resource26pool_next_blocks_per_chunkEm
libboost_container.so.1.72.0:_ZNK5boost9container3pmr28unsynchronized_pool_resource7optionsEv
libboost_context.so.1.72.0:_ZN5boost7context12stack_traits12default_sizeEv
libboost_context.so.1.72.0:_ZN5boost7context12stack_traits12is_unboundedEv
libboost_context.so.1.72.0:_ZN5boost7context12stack_traits12maximum_sizeEv
libboost_context.so.1.72.0:_ZN5boost7context12stack_traits12minimum_sizeEv
libboost_context.so.1.72.0:_ZN5boost7context12stack_traits9page_sizeEv
libboost_context.so.1.72.0:jump_fcontext
libboost_context.so.1.72.0:make_fcontext
libboost_context.so.1.72.0:ontop_fcontext
libboost_contract.so.1.72.0:_ZN5boost8contract10exception_18old_failure_lockedENS0_4fromE
libboost_contract.so.1.72.0:_ZN5boost8contract10exception_18pre_failure_lockedENS0_4fromE
libboost_contract.so.1.72.0:_ZN5boost8contract10exception_19post_failure_lockedENS0_4fromE
libboost_contract.so.1.72.0:_ZN5boost8contract10exception_20check_failure_lockedEv
libboost_contract.so.1.72.0:_ZN5boost8contract10exception_20old_failure_unlockedENS0_4fromE
libboost_contract.so.1.72.0:_ZN5boost8contract10exception_20pre_failure_unlockedENS0_4fromE
libboost_contract.so.1.72.0:_ZN5boost8contract10exception_21except_failure_lockedENS0_4fromE
libboost_contract.so.1.72.0:_ZN5boost8contract10exception_21post_failure_unlockedENS0_4fromE
libboost_contract.so.1.72.0:_ZN5boost8contract10exception_22check_failure_unlockedEv
libboost_contract.so.1.72.0:_ZN5boost8contract10exception_22get_old_failure_lockedEv
libboost_contract.so.1.72.0:_ZN5boost8contract10exception_22get_pre_failure_lockedEv
libboost_contract.so.1.72.0:_ZN5boost8contract10exception_22set_old_failure_lockedERKNS_8functionIFvNS0_4fromEEEE
libboost_contract.so.1.72.0:_ZN5boost8contract10exception_22set_pre_failure_lockedERKNS_8functionIFvNS0_4fromEEEE
libboost_contract.so.1.72.0:_ZN5boost8contract10exception_23except_failure_unlockedENS0_4fromE
libboost_contract.so.1.72.0:_ZN5boost8contract10exception_23exit_inv_failure_lockedENS0_4fromE
libboost_contract.so.1.72.0:_ZN5boost8contract10exception_23get_post_failure_lockedEv
libboost_contract.so.1.72.0:_ZN5boost8contract10exception_23set_post_failure_lockedERKNS_8functionIFvNS0_4fromEEEE
libboost_contract.so.1.72.0:_ZN5boost8contract10exception_24entry_inv_failure_lockedENS0_4fromE
libboost_contract.so.1.72.0:_ZN5boost8contract10exception_24get_check_failure_lockedEv
libboost_contract.so.1.72.0:_ZN5boost8contract10exception_24get_old_failure_unlockedEv
libboost_contract.so.1.72.0:_ZN5boost8contract10exception_24get_pre_failure_unlockedEv
libboost_contract.so.1.72.0:_ZN5boost8contract10exception_24set_check_failure_lockedERKNS_8functionIFvvEEE
libboost_contract.so.1.72.0:_ZN5boost8contract10exception_24set_old_failure_unlockedERKNS_8functionIFvNS0_4fromEEEE
libboost_contract.so.1.72.0:_ZN5boost8contract10exception_24set_pre_failure_unlockedERKNS_8functionIFvNS0_4fromEEEE
libboost_contract.so.1.72.0:_ZN5boost8contract10exception_25exit_inv_failure_unlockedENS0_4fromE
libboost_contract.so.1.72.0:_ZN5boost8contract10exception_25get_except_failure_lockedEv
libboost_contract.so.1.72.0:_ZN5boost8contract10exception_25get_post_failure_unlockedEv
libboost_contract.so.1.72.0:_ZN5boost8contract10exception_25set_except_failure_lockedERKNS_8functionIFvNS0_4fromEEEE
libboost_contract.so.1.72.0:_ZN5boost8contract10exception_25set_post_failure_unlockedERKNS_8functionIFvNS0_4fromEEEE
libboost_contract.so.1.72.0:_ZN5boost8contract10exception_26entry_inv_failure_unlockedENS0_4fromE
libboost_contract.so.1.72.0:_ZN5boost8contract10exception_26get_check_failure_unlockedEv
libboost_contract.so.1.72.0:_ZN5boost8contract10exception_26set_check_failure_unlockedERKNS_8functionIFvvEEE
libboost_contract.so.1.72.0:_ZN5boost8contract10exception_27get_except_failure_unlockedEv
libboost_contract.so.1.72.0:_ZN5boost8contract10exception_27get_exit_inv_failure_lockedEv
libboost_contract.so.1.72.0:_ZN5boost8contract10exception_27set_except_failure_unlockedERKNS_8functionIFvNS0_4fromEEEE
libboost_contract.so.1.72.0:_ZN5boost8contract10exception_27set_exit_inv_failure_lockedERKNS_8functionIFvNS0_4fromEEEE
libboost_contract.so.1.72.0:_ZN5boost8contract10exception_28get_entry_inv_failure_lockedEv
libboost_contract.so.1.72.0:_ZN5boost8contract10exception_28set_entry_inv_failure_lockedERKNS_8functionIFvNS0_4fromEEEE
libboost_contract.so.1.72.0:_ZN5boost8contract10exception_29get_exit_inv_failure_unlockedEv
libboost_contract.so.1.72.0:_ZN5boost8contract10exception_29set_exit_inv_failure_unlockedERKNS_8functionIFvNS0_4fromEEEE
libboost_contract.so.1.72.0:_ZN5boost8contract10exception_30get_entry_inv_failure_unlockedEv
libboost_contract.so.1.72.0:_ZN5boost8contract10exception_30set_entry_inv_failure_unlockedERKNS_8functionIFvNS0_4fromEEEE
libboost_contract.so.1.72.0:_ZN5boost8contract17assertion_failure4initEv
libboost_contract.so.1.72.0:_ZN5boost8contract17assertion_failureC1EPKc
libboost_contract.so.1.72.0:_ZN5boost8contract17assertion_failureC1EPKcmS3_
libboost_contract.so.1.72.0:_ZN5boost8contract17assertion_failureC2EPKc
libboost_contract.so.1.72.0:_ZN5boost8contract17assertion_failureC2EPKcmS3_
libboost_contract.so.1.72.0:_ZN5boost8contract17assertion_failureD0Ev
libboost_contract.so.1.72.0:_ZN5boost8contract17assertion_failureD1Ev
libboost_contract.so.1.72.0:_ZN5boost8contract17assertion_failureD2Ev
libboost_contract.so.1.72.0:_ZN5boost8contract21set_invariant_failureERKNS_8functionIFvNS0_4fromEEEE
libboost_contract.so.1.72.0:_ZN5boost8contract23bad_virtual_result_castC1EPKcS3_
libboost_contract.so.1.72.0:_ZN5boost8contract23bad_virtual_result_castC2EPKcS3_
libboost_contract.so.1.72.0:_ZN5boost8contract23bad_virtual_result_castD0Ev
libboost_contract.so.1.72.0:_ZN5boost8contract23bad_virtual_result_castD1Ev
libboost_contract.so.1.72.0:_ZN5boost8contract23bad_virtual_result_castD2Ev
libboost_contract.so.1.72.0:_ZN5boost8contract6detail8checking11done_lockedEv
libboost_contract.so.1.72.0:_ZN5boost8contract6detail8checking11init_lockedEv
libboost_contract.so.1.72.0:_ZN5boost8contract6detail8checking13done_unlockedEv
libboost_contract.so.1.72.0:_ZN5boost8contract6detail8checking13init_unlockedEv
libboost_contract.so.1.72.0:_ZN5boost8contract6detail8checking14already_lockedEv
libboost_contract.so.1.72.0:_ZN5boost8contract6detail8checking16already_unlockedEv
libboost_contract.so.1.72.0:_ZN5boost8contract8make_oldEPNS0_8virtual_ERKNS0_9old_valueE
libboost_contract.so.1.72.0:_ZN5boost8contract8make_oldERKNS0_9old_valueE
libboost_contract.so.1.72.0:_ZN5boost8contract8null_oldEv
libboost_contract.so.1.72.0:_ZN5boost8contract9exceptionD0Ev
libboost_contract.so.1.72.0:_ZN5boost8contract9exceptionD1Ev
libboost_contract.so.1.72.0:_ZN5boost8contract9exceptionD2Ev
libboost_contract.so.1.72.0:_ZNK5boost8contract17assertion_failure4codeEv
libboost_contract.so.1.72.0:_ZNK5boost8contract17assertion_failure4fileEv
libboost_contract.so.1.72.0:_ZNK5boost8contract17assertion_failure4lineEv
libboost_contract.so.1.72.0:_ZNK5boost8contract17assertion_failure4whatEv
libboost_contract.so.1.72.0:_ZNK5boost8contract23bad_virtual_result_cast4whatEv
libboost_contract.so.1.72.0:_ZThn8_N5boost8contract17assertion_failureD0Ev
libboost_contract.so.1.72.0:_ZThn8_N5boost8contract17assertion_failureD1Ev
libboost_contract.so.1.72.0:_ZThn8_N5boost8contract23bad_virtual_result_castD0Ev
libboost_contract.so.1.72.0:_ZThn8_N5boost8contract23bad_virtual_result_castD1Ev
libboost_coroutine.so.1.72.0:_ZN5boost10coroutines12stack_traits12default_sizeEv
libboost_coroutine.so.1.72.0:_ZN5boost10coroutines12stack_traits12is_unboundedEv
libboost_coroutine.so.1.72.0:_ZN5boost10coroutines12stack_traits12maximum_sizeEv
libboost_coroutine.so.1.72.0:_ZN5boost10coroutines12stack_traits12minimum_sizeEv
libboost_coroutine.so.1.72.0:_ZN5boost10coroutines12stack_traits9page_sizeEv
libboost_coroutine.so.1.72.0:_ZN5boost10coroutines18coroutine_categoryEv
libboost_coroutine.so.1.72.0:_ZN5boost10coroutines6detail17coroutine_context4jumpERS2_Pv
libboost_coroutine.so.1.72.0:_ZN5boost10coroutines6detail17coroutine_contextC1EPFvNS_7context6detail10transfer_tEERKNS1_12preallocatedE
libboost_coroutine.so.1.72.0:_ZN5boost10coroutines6detail17coroutine_contextC1ERKS2_
libboost_coroutine.so.1.72.0:_ZN5boost10coroutines6detail17coroutine_contextC1Ev
libboost_coroutine.so.1.72.0:_ZN5boost10coroutines6detail17coroutine_contextC2EPFvNS_7context6detail10transfer_tEERKNS1_12preallocatedE
libboost_coroutine.so.1.72.0:_ZN5boost10coroutines6detail17coroutine_contextC2ERKS2_
libboost_coroutine.so.1.72.0:_ZN5boost10coroutines6detail17coroutine_contextC2Ev
libboost_coroutine.so.1.72.0:_ZN5boost10coroutines6detail17coroutine_contextaSERKS2_
libboost_date_time.so.1.72.0:_ZN5boost9date_time10nth_as_strEi
libboost_date_time.so.1.72.0:_ZN5boost9gregorian10greg_month17get_month_map_ptrB5cxx11Ev
libboost_date_time.so.1.72.0:_ZN5boost9gregorian15generate_localeERSt6localec
libboost_date_time.so.1.72.0:_ZN5boost9gregorian15generate_localeERSt6localew
libboost_date_time.so.1.72.0:_ZN5boost9gregorian16create_facet_defEc
libboost_date_time.so.1.72.0:_ZN5boost9gregorian16create_facet_defEw
libboost_date_time.so.1.72.0:_ZN5boost9gregorian25special_value_from_stringERKNSt7__cxx1112basic_stringIcSt11char_traitsIcESaIcEEE
libboost_date_time.so.1.72.0:_ZNK5boost9gregorian10greg_month14as_long_stringEv
libboost_date_time.so.1.72.0:_ZNK5boost9gregorian10greg_month15as_long_wstringEv
libboost_date_time.so.1.72.0:_ZNK5boost9gregorian10greg_month15as_short_stringEv
libboost_date_time.so.1.72.0:_ZNK5boost9gregorian10greg_month16as_short_wstringEv
libboost_date_time.so.1.72.0:_ZNK5boost9gregorian12greg_weekday14as_long_stringEv
libboost_date_time.so.1.72.0:_ZNK5boost9gregorian12greg_weekday15as_long_wstringEv
libboost_date_time.so.1.72.0:_ZNK5boost9gregorian12greg_weekday15as_short_stringEv
libboost_date_time.so.1.72.0:_ZNK5boost9gregorian12greg_weekday16as_short_wstringEv
libboost_fiber.so.1.72.0:_ZN5boost6fibers11timed_mutex15try_lock_until_ERKNSt6chrono10time_pointINS2_3_V212steady_clockENS2_8durationIlSt5ratioILl1ELl1000000000EEEEEE
libboost_fiber.so.1.72.0:_ZN5boost6fibers11timed_mutex4lockEv
libboost_fiber.so.1.72.0:_ZN5boost6fibers11timed_mutex6unlockEv
libboost_fiber.so.1.72.0:_ZN5boost6fibers11timed_mutex8try_lockEv
libboost_fiber.so.1.72.0:_ZN5boost6fibers15future_categoryEv
libboost_fiber.so.1.72.0:_ZN5boost6fibers15recursive_mutex4lockEv
libboost_fiber.so.1.72.0:_ZN5boost6fibers15recursive_mutex6unlockEv
libboost_fiber.so.1.72.0:_ZN5boost6fibers15recursive_mutex8try_lockEv
libboost_fiber.so.1.72.0:_ZN5boost6fibers16fiber_properties6notifyEv
libboost_fiber.so.1.72.0:_ZN5boost6fibers21recursive_timed_mutex15try_lock_until_ERKNSt6chrono10time_pointINS2_3_V212steady_clockENS2_8durationIlSt5ratioILl1ELl1000000000EEEEEE
libboost_fiber.so.1.72.0:_ZN5boost6fibers21recursive_timed_mutex4lockEv
libboost_fiber.so.1.72.0:_ZN5boost6fibers21recursive_timed_mutex6unlockEv
libboost_fiber.so.1.72.0:_ZN5boost6fibers21recursive_timed_mutex8try_lockEv
libboost_fiber.so.1.72.0:_ZN5boost6fibers22condition_variable_any10notify_allEv
libboost_fiber.so.1.72.0:_ZN5boost6fibers22condition_variable_any10notify_oneEv
libboost_fiber.so.1.72.0:_ZN5boost6fibers4algo11round_robin13suspend_untilERKNSt6chrono10time_pointINS3_3_V212steady_clockENS3_8durationIlSt5ratioILl1ELl1000000000EEEEEE
libboost_fiber.so.1.72.0:_ZN5boost6fibers4algo11round_robin6notifyEv
libboost_fiber.so.1.72.0:_ZN5boost6fibers4algo11round_robin8awakenedEPNS0_7contextE
libboost_fiber.so.1.72.0:_ZN5boost6fibers4algo11round_robin9pick_nextEv
libboost_fiber.so.1.72.0:_ZN5boost6fibers4algo11shared_work11rqueue_mtx_E
libboost_fiber.so.1.72.0:_ZN5boost6fibers4algo11shared_work13suspend_untilERKNSt6chrono10time_pointINS3_3_V212steady_clockENS3_8durationIlSt5ratioILl1ELl1000000000EEEEEE
libboost_fiber.so.1.72.0:_ZN5boost6fibers4algo11shared_work6notifyEv
libboost_fiber.so.1.72.0:_ZN5boost6fibers4algo11shared_work7rqueue_E
libboost_fiber.so.1.72.0:_ZN5boost6fibers4algo11shared_work8awakenedEPNS0_7contextE
libboost_fiber.so.1.72.0:_ZN5boost6fibers4algo11shared_work9pick_nextEv
libboost_fiber.so.1.72.0:_ZN5boost6fibers4algo13work_stealing11schedulers_E
libboost_fiber.so.1.72.0:_ZN5boost6fibers4algo13work_stealing13suspend_untilERKNSt6chrono10time_pointINS3_3_V212steady_clockENS3_8durationIlSt5ratioILl1ELl1000000000EEEEEE
libboost_fiber.so.1.72.0:_ZN5boost6fibers4algo13work_stealing5init_EjRSt6vectorINS_13intrusive_ptrIS2_EESaIS5_EE
libboost_fiber.so.1.72.0:_ZN5boost6fibers4algo13work_stealing6notifyEv
libboost_fiber.so.1.72.0:_ZN5boost6fibers4algo13work_stealing8awakenedEPNS0_7contextE
libboost_fiber.so.1.72.0:_ZN5boost6fibers4algo13work_stealing8counter_E
libboost_fiber.so.1.72.0:_ZN5boost6fibers4algo13work_stealing9pick_nextEv
libboost_fiber.so.1.72.0:_ZN5boost6fibers4algo13work_stealingC1Ejb
libboost_fiber.so.1.72.0:_ZN5boost6fibers4algo13work_stealingC2Ejb
libboost_fiber.so.1.72.0:_ZN5boost6fibers4algo30algorithm_with_properties_base14get_propertiesEPNS0_7contextE
libboost_fiber.so.1.72.0:_ZN5boost6fibers4algo30algorithm_with_properties_base14set_propertiesEPNS0_7contextEPNS0_16fiber_propertiesE
libboost_fiber.so.1.72.0:_ZN5boost6fibers5fiber4joinEv
libboost_fiber.so.1.72.0:_ZN5boost6fibers5fiber6detachEv
libboost_fiber.so.1.72.0:_ZN5boost6fibers5fiber6start_Ev
libboost_fiber.so.1.72.0:_ZN5boost6fibers5mutex4lockEv
libboost_fiber.so.1.72.0:_ZN5boost6fibers5mutex6unlockEv
libboost_fiber.so.1.72.0:_ZN5boost6fibers5mutex8try_lockEv
libboost_fiber.so.1.72.0:_ZN5boost6fibers7barrier4waitEv
libboost_fiber.so.1.72.0:_ZN5boost6fibers7barrierC1Em
libboost_fiber.so.1.72.0:_ZN5boost6fibers7barrierC2Em
libboost_fiber.so.1.72.0:_ZN5boost6fibers7context10wait_untilERKNSt6chrono10time_pointINS2_3_V212steady_clockENS2_8durationIlSt5ratioILl1ELl1000000000EEEEEE
libboost_fiber.so.1.72.0:_ZN5boost6fibers7context10wait_untilERKNSt6chrono10time_pointINS2_3_V212steady_clockENS2_8durationIlSt5ratioILl1ELl1000000000EEEEEERSt11unique_lockINS0_6detail13spinlock_ttasEE
libboost_fiber.so.1.72.0:_ZN5boost6fibers7context11wait_unlinkEv
libboost_fiber.so.1.72.0:_ZN5boost6fibers7context12ready_unlinkEv
libboost_fiber.so.1.72.0:_ZN5boost6fibers7context12reset_activeEv
libboost_fiber.so.1.72.0:_ZN5boost6fibers7context12set_fss_dataEPKvRKNS_13intrusive_ptrINS0_6detail20fss_cleanup_functionEEEPvb
libboost_fiber.so.1.72.0:_ZN5boost6fibers7context12sleep_unlinkEv
libboost_fiber.so.1.72.0:_ZN5boost6fibers7context13worker_unlinkEv
libboost_fiber.so.1.72.0:_ZN5boost6fibers7context14set_propertiesEPNS0_16fiber_propertiesE
libboost_fiber.so.1.72.0:_ZN5boost6fibers7context15suspend_with_ccEv
libboost_fiber.so.1.72.0:_ZN5boost6fibers7context4joinEv
libboost_fiber.so.1.72.0:_ZN5boost6fibers7context5yieldEv
libboost_fiber.so.1.72.0:_ZN5boost6fibers7context6activeEv
libboost_fiber.so.1.72.0:_ZN5boost6fibers7context6attachEPS1_
libboost_fiber.so.1.72.0:_ZN5boost6fibers7context6detachEv
libboost_fiber.so.1.72.0:_ZN5boost6fibers7context6resumeEPS1_
libboost_fiber.so.1.72.0:_ZN5boost6fibers7context6resumeERSt11unique_lockINS0_6detail13spinlock_ttasEE
libboost_fiber.so.1.72.0:_ZN5boost6fibers7context6resumeEv
libboost_fiber.so.1.72.0:_ZN5boost6fibers7context7suspendERSt11unique_lockINS0_6detail13spinlock_ttasEE
libboost_fiber.so.1.72.0:_ZN5boost6fibers7context7suspendEv
libboost_fiber.so.1.72.0:_ZN5boost6fibers7context8scheduleEPS1_
libboost_fiber.so.1.72.0:_ZN5boost6fibers7context9terminateEv
libboost_fiber.so.1.72.0:_ZN5boost6fibers7contextD0Ev
libboost_fiber.so.1.72.0:_ZN5boost6fibers7contextD1Ev
libboost_fiber.so.1.72.0:_ZN5boost6fibers7contextD2Ev
libboost_fiber.so.1.72.0:_ZN5boost6fibers9scheduler10wait_untilEPNS0_7contextERKNSt6chrono10time_pointINS4_3_V212steady_clockENS4_8durationIlSt5ratioILl1ELl1000000000EEEEEE
libboost_fiber.so.1.72.0:_ZN5boost6fibers9scheduler10wait_untilEPNS0_7contextERKNSt6chrono10time_pointINS4_3_V212steady_clockENS4_8durationIlSt5ratioILl1ELl1000000000EEEEEERSt11unique_lockINS0_6detail13spinlock_ttasEE
libboost_fiber.so.1.72.0:_ZN5boost6fibers9scheduler12sleep2ready_Ev
libboost_fiber.so.1.72.0:_ZN5boost6fibers9scheduler19attach_main_contextEPNS0_7contextE
libboost_fiber.so.1.72.0:_ZN5boost6fibers9scheduler19release_terminated_Ev
libboost_fiber.so.1.72.0:_ZN5boost6fibers9scheduler19remote_ready2ready_Ev
libboost_fiber.so.1.72.0:_ZN5boost6fibers9scheduler20schedule_from_remoteEPNS0_7contextE
libboost_fiber.so.1.72.0:_ZN5boost6fibers9scheduler21attach_worker_contextEPNS0_7contextE
libboost_fiber.so.1.72.0:_ZN5boost6fibers9scheduler21detach_worker_contextEPNS0_7contextE
libboost_fiber.so.1.72.0:_ZN5boost6fibers9scheduler25attach_dispatcher_contextENS_13intrusive_ptrINS0_7contextEEE
libboost_fiber.so.1.72.0:_ZN5boost6fibers9scheduler5yieldEPNS0_7contextE
libboost_fiber.so.1.72.0:_ZN5boost6fibers9scheduler7suspendERSt11unique_lockINS0_6detail13spinlock_ttasEE
libboost_fiber.so.1.72.0:_ZN5boost6fibers9scheduler7suspendEv
libboost_fiber.so.1.72.0:_ZN5boost6fibers9scheduler8dispatchEv
libboost_fiber.so.1.72.0:_ZN5boost6fibers9scheduler8scheduleEPNS0_7contextE
libboost_fiber.so.1.72.0:_ZN5boost6fibers9scheduler8set_algoENS_13intrusive_ptrINS0_4algo9algorithmEEE
libboost_fiber.so.1.72.0:_ZN5boost6fibers9scheduler9terminateERSt11unique_lockINS0_6detail13spinlock_ttasEEPNS0_7contextE
libboost_fiber.so.1.72.0:_ZN5boost6fibers9schedulerC1Ev
libboost_fiber.so.1.72.0:_ZN5boost6fibers9schedulerC2Ev
libboost_fiber.so.1.72.0:_ZN5boost6fibers9schedulerD0Ev
libboost_fiber.so.1.72.0:_ZN5boost6fibers9schedulerD1Ev
libboost_fiber.so.1.72.0:_ZN5boost6fibers9schedulerD2Ev
libboost_fiber.so.1.72.0:_ZNK5boost6fibers4algo11round_robin16has_ready_fibersEv
libboost_fiber.so.1.72.0:_ZNK5boost6fibers7context12get_fss_dataEPKv
libboost_fiber.so.1.72.0:_ZNK5boost6fibers7context14wait_is_linkedEv
libboost_fiber.so.1.72.0:_ZNK5boost6fibers7context15ready_is_linkedEv
libboost_fiber.so.1.72.0:_ZNK5boost6fibers7context15sleep_is_linkedEv
libboost_fiber.so.1.72.0:_ZNK5boost6fibers7context16worker_is_linkedEv
libboost_fiber.so.1.72.0:_ZNK5boost6fibers7context20terminated_is_linkedEv
libboost_fiber.so.1.72.0:_ZNK5boost6fibers7context22remote_ready_is_linkedEv
libboost_fiber.so.1.72.0:_ZNK5boost6fibers7context6get_idEv
libboost_fiber.so.1.72.0:_ZNK5boost6fibers9scheduler16has_ready_fibersEv
libboost_filesystem.so.1.72.0:_ZN5boost10filesystem11path_traits7convertEPKcS3_RNSt7__cxx1112basic_stringIwSt11char_traitsIwESaIwEEERKSt7codecvtIwc11__mbstate_tE
libboost_filesystem.so.1.72.0:_ZN5boost10filesystem11path_traits7convertEPKwS3_RNSt7__cxx1112basic_stringIcSt11char_traitsIcESaIcEEERKSt7codecvtIwc11__mbstate_tE
libboost_filesystem.so.1.72.0:_ZN5boost10filesystem11path_traits8dispatchERKNS0_15directory_entryERNSt7__cxx1112basic_stringIcSt11char_traitsIcESaIcEEE
libboost_filesystem.so.1.72.0:_ZN5boost10filesystem11path_traits8dispatchERKNS0_15directory_entryERNSt7__cxx1112basic_stringIcSt11char_traitsIcESaIcEEERKSt7codecvtIwc11__mbstate_tE
libboost_filesystem.so.1.72.0:_ZN5boost10filesystem12windows_nameERKNSt7__cxx1112basic_stringIcSt11char_traitsIcESaIcEEE
libboost_filesystem.so.1.72.0:_ZN5boost10filesystem13portable_nameERKNSt7__cxx1112basic_stringIcSt11char_traitsIcESaIcEEE
libboost_filesystem.so.1.72.0:_ZN5boost10filesystem16filesystem_error14get_empty_pathEv
libboost_filesystem.so.1.72.0:_ZN5boost10filesystem16filesystem_errorC1ERKNSt7__cxx1112basic_stringIcSt11char_traitsIcESaIcEEENS_6system10error_codeE
libboost_filesystem.so.1.72.0:_ZN5boost10filesystem16filesystem_errorC1ERKNSt7__cxx1112basic_stringIcSt11char_traitsIcESaIcEEERKNS0_4pathENS_6system10error_codeE
libboost_filesystem.so.1.72.0:_ZN5boost10filesystem16filesystem_errorC1ERKNSt7__cxx1112basic_stringIcSt11char_traitsIcESaIcEEERKNS0_4pathESC_NS_6system10error_codeE
libboost_filesystem.so.1.72.0:_ZN5boost10filesystem16filesystem_errorC1ERKS1_
libboost_filesystem.so.1.72.0:_ZN5boost10filesystem16filesystem_errorC2ERKNSt7__cxx1112basic_stringIcSt11char_traitsIcESaIcEEENS_6system10error_codeE
libboost_filesystem.so.1.72.0:_ZN5boost10filesystem16filesystem_errorC2ERKNSt7__cxx1112basic_stringIcSt11char_traitsIcESaIcEEERKNS0_4pathENS_6system10error_codeE
libboost_filesystem.so.1.72.0:_ZN5boost10filesystem16filesystem_errorC2ERKNSt7__cxx1112basic_stringIcSt11char_traitsIcESaIcEEERKNS0_4pathESC_NS_6system10error_codeE
libboost_filesystem.so.1.72.0:_ZN5boost10filesystem16filesystem_errorC2ERKS1_
libboost_filesystem.so.1.72.0:_ZN5boost10filesystem16filesystem_errorD0Ev
libboost_filesystem.so.1.72.0:_ZN5boost10filesystem16filesystem_errorD1Ev
libboost_filesystem.so.1.72.0:_ZN5boost10filesystem16filesystem_errorD2Ev
libboost_filesystem.so.1.72.0:_ZN5boost10filesystem16filesystem_erroraSERKS1_
libboost_filesystem.so.1.72.0:_ZN5boost10filesystem18portable_file_nameERKNSt7__cxx1112basic_stringIcSt11char_traitsIcESaIcEEE
libboost_filesystem.so.1.72.0:_ZN5boost10filesystem19portable_posix_nameERKNSt7__cxx1112basic_stringIcSt11char_traitsIcESaIcEEE
libboost_filesystem.so.1.72.0:_ZN5boost10filesystem22codecvt_error_categoryEv
libboost_filesystem.so.1.72.0:_ZN5boost10filesystem23portable_directory_nameERKNSt7__cxx1112basic_stringIcSt11char_traitsIcESaIcEEE
libboost_filesystem.so.1.72.0:_ZN5boost10filesystem4path15remove_filenameEv
libboost_filesystem.so.1.72.0:_ZN5boost10filesystem4path17replace_extensionERKS1_
libboost_filesystem.so.1.72.0:_ZN5boost10filesystem4path25m_path_iterator_decrementERNS1_8iteratorE
libboost_filesystem.so.1.72.0:_ZN5boost10filesystem4path25m_path_iterator_incrementERNS1_8iteratorE
libboost_filesystem.so.1.72.0:_ZN5boost10filesystem4path25remove_trailing_separatorEv
libboost_filesystem.so.1.72.0:_ZN5boost10filesystem4path27m_erase_redundant_separatorEm
libboost_filesystem.so.1.72.0:_ZN5boost10filesystem4path28m_append_separator_if_neededEv
libboost_filesystem.so.1.72.0:_ZN5boost10filesystem4path5imbueERKSt6locale
libboost_filesystem.so.1.72.0:_ZN5boost10filesystem4path7codecvtEv
libboost_filesystem.so.1.72.0:_ZN5boost10filesystem4pathdVEPKc
libboost_filesystem.so.1.72.0:_ZN5boost10filesystem4pathdVERKS1_
libboost_filesystem.so.1.72.0:_ZN5boost10filesystem6detail10equivalentERKNS0_4pathES4_PNS_6system10error_codeE
libboost_filesystem.so.1.72.0:_ZN5boost10filesystem6detail10remove_allERKNS0_4pathEPNS_6system10error_codeE
libboost_filesystem.so.1.72.0:_ZN5boost10filesystem6detail11lex_compareENS0_4path8iteratorES3_S3_S3_
libboost_filesystem.so.1.72.0:_ZN5boost10filesystem6detail11permissionsERKNS0_4pathENS0_5permsEPNS_6system10error_codeE
libboost_filesystem.so.1.72.0:_ZN5boost10filesystem6detail11resize_fileERKNS0_4pathEmPNS_6system10error_codeE
libboost_filesystem.so.1.72.0:_ZN5boost10filesystem6detail11unique_pathERKNS0_4pathEPNS_6system10error_codeE
libboost_filesystem.so.1.72.0:_ZN5boost10filesystem6detail12copy_symlinkERKNS0_4pathES4_PNS_6system10error_codeE
libboost_filesystem.so.1.72.0:_ZN5boost10filesystem6detail12current_pathEPNS_6system10error_codeE
libboost_filesystem.so.1.72.0:_ZN5boost10filesystem6detail12current_pathERKNS0_4pathEPNS_6system10error_codeE
libboost_filesystem.so.1.72.0:_ZN5boost10filesystem6detail12dot_dot_pathEv
libboost_filesystem.so.1.72.0:_ZN5boost10filesystem6detail12initial_pathEPNS_6system10error_codeE
libboost_filesystem.so.1.72.0:_ZN5boost10filesystem6detail12read_symlinkERKNS0_4pathEPNS_6system10error_codeE
libboost_filesystem.so.1.72.0:_ZN5boost10filesystem6detail13dir_itr_closeERPvS3_
libboost_filesystem.so.1.72.0:_ZN5boost10filesystem6detail14copy_directoryERKNS0_4pathES4_PNS_6system10error_codeE
libboost_filesystem.so.1.72.0:_ZN5boost10filesystem6detail14create_symlinkERKNS0_4pathES4_PNS_6system10error_codeE
libboost_filesystem.so.1.72.0:_ZN5boost10filesystem6detail14symlink_statusERKNS0_4pathEPNS_6system10error_codeE
libboost_filesystem.so.1.72.0:_ZN5boost10filesystem6detail15hard_link_countERKNS0_4pathEPNS_6system10error_codeE
libboost_filesystem.so.1.72.0:_ZN5boost10filesystem6detail15last_write_timeERKNS0_4pathEPNS_6system10error_codeE
libboost_filesystem.so.1.72.0:_ZN5boost10filesystem6detail15last_write_timeERKNS0_4pathElPNS_6system10error_codeE
libboost_filesystem.so.1.72.0:_ZN5boost10filesystem6detail15system_completeERKNS0_4pathEPNS_6system10error_codeE
libboost_filesystem.so.1.72.0:_ZN5boost10filesystem6detail16create_directoryERKNS0_4pathEPNS_6system10error_codeE
libboost_filesystem.so.1.72.0:_ZN5boost10filesystem6detail16create_hard_linkERKNS0_4pathES4_PNS_6system10error_codeE
libboost_filesystem.so.1.72.0:_ZN5boost10filesystem6detail16weakly_canonicalERKNS0_4pathEPNS_6system10error_codeE
libboost_filesystem.so.1.72.0:_ZN5boost10filesystem6detail18create_directoriesERKNS0_4pathEPNS_6system10error_codeE
libboost_filesystem.so.1.72.0:_ZN5boost10filesystem6detail18utf8_codecvt_facet15get_octet_countEh
libboost_filesystem.so.1.72.0:_ZN5boost10filesystem6detail18utf8_codecvt_facetC1Em
libboost_filesystem.so.1.72.0:_ZN5boost10filesystem6detail18utf8_codecvt_facetC2Em
libboost_filesystem.so.1.72.0:_ZN5boost10filesystem6detail18utf8_codecvt_facetD0Ev
libboost_filesystem.so.1.72.0:_ZN5boost10filesystem6detail18utf8_codecvt_facetD1Ev
libboost_filesystem.so.1.72.0:_ZN5boost10filesystem6detail18utf8_codecvt_facetD2Ev
libboost_filesystem.so.1.72.0:_ZN5boost10filesystem6detail19temp_directory_pathEPNS_6system10error_codeE
libboost_filesystem.so.1.72.0:_ZN5boost10filesystem6detail24create_directory_symlinkERKNS0_4pathES4_PNS_6system10error_codeE
libboost_filesystem.so.1.72.0:_ZN5boost10filesystem6detail28directory_iterator_constructERNS0_18directory_iteratorERKNS0_4pathEjPNS_6system10error_codeE
libboost_filesystem.so.1.72.0:_ZN5boost10filesystem6detail28directory_iterator_incrementERNS0_18directory_iteratorEPNS_6system10error_codeE
libboost_filesystem.so.1.72.0:_ZN5boost10filesystem6detail32possible_large_file_size_supportEv
libboost_filesystem.so.1.72.0:_ZN5boost10filesystem6detail32recursive_directory_iterator_popERNS0_28recursive_directory_iteratorEPNS_6system10error_codeE
libboost_filesystem.so.1.72.0:_ZN5boost10filesystem6detail38recursive_directory_iterator_constructERNS0_28recursive_directory_iteratorERKNS0_4pathEjPNS_6system10error_codeE
libboost_filesystem.so.1.72.0:_ZN5boost10filesystem6detail38recursive_directory_iterator_incrementERNS0_28recursive_directory_iteratorEPNS_6system10error_codeE
libboost_filesystem.so.1.72.0:_ZN5boost10filesystem6detail4copyERKNS0_4pathES4_PNS_6system10error_codeE
libboost_filesystem.so.1.72.0:_ZN5boost10filesystem6detail5spaceERKNS0_4pathEPNS_6system10error_codeE
libboost_filesystem.so.1.72.0:_ZN5boost10filesystem6detail6removeERKNS0_4pathEPNS_6system10error_codeE
libboost_filesystem.so.1.72.0:_ZN5boost10filesystem6detail6renameERKNS0_4pathES4_PNS_6system10error_codeE
libboost_filesystem.so.1.72.0:_ZN5boost10filesystem6detail6statusERKNS0_4pathEPNS_6system10error_codeE
libboost_filesystem.so.1.72.0:_ZN5boost10filesystem6detail8dot_pathEv
libboost_filesystem.so.1.72.0:_ZN5boost10filesystem6detail8is_emptyERKNS0_4pathEPNS_6system10error_codeE
libboost_filesystem.so.1.72.0:_ZN5boost10filesystem6detail8relativeERKNS0_4pathES4_PNS_6system10error_codeE
libboost_filesystem.so.1.72.0:_ZN5boost10filesystem6detail9canonicalERKNS0_4pathES4_PNS_6system10error_codeE
libboost_filesystem.so.1.72.0:_ZN5boost10filesystem6detail9copy_fileERKNS0_4pathES4_NS1_11copy_optionEPNS_6system10error_codeE
libboost_filesystem.so.1.72.0:_ZN5boost10filesystem6detail9file_sizeERKNS0_4pathEPNS_6system10error_codeE
libboost_filesystem.so.1.72.0:_ZN5boost10filesystem6nativeERKNSt7__cxx1112basic_stringIcSt11char_traitsIcESaIcEEE
libboost_filesystem.so.1.72.0:_ZN5boost10filesystem8absoluteERKNS0_4pathES3_
libboost_filesystem.so.1.72.0:_ZNK5boost10filesystem15directory_entry10get_statusEPNS_6system10error_codeE
libboost_filesystem.so.1.72.0:_ZNK5boost10filesystem15directory_entry18get_symlink_statusEPNS_6system10error_codeE
libboost_filesystem.so.1.72.0:_ZNK5boost10filesystem16filesystem_error4whatEv
libboost_filesystem.so.1.72.0:_ZNK5boost10filesystem4path11parent_pathEv
libboost_filesystem.so.1.72.0:_ZNK5boost10filesystem4path13relative_pathEv
libboost_filesystem.so.1.72.0:_ZNK5boost10filesystem4path14root_directoryEv
libboost_filesystem.so.1.72.0:_ZNK5boost10filesystem4path16lexically_normalEv
libboost_filesystem.so.1.72.0:_ZNK5boost10filesystem4path17m_parent_path_endEv
libboost_filesystem.so.1.72.0:_ZNK5boost10filesystem4path18lexically_relativeERKS1_
libboost_filesystem.so.1.72.0:_ZNK5boost10filesystem4path3endEv
libboost_filesystem.so.1.72.0:_ZNK5boost10filesystem4path4stemEv
libboost_filesystem.so.1.72.0:_ZNK5boost10filesystem4path5beginEv
libboost_filesystem.so.1.72.0:_ZNK5boost10filesystem4path7compareERKS1_
libboost_filesystem.so.1.72.0:_ZNK5boost10filesystem4path8filenameEv
libboost_filesystem.so.1.72.0:_ZNK5boost10filesystem4path9extensionEv
libboost_filesystem.so.1.72.0:_ZNK5boost10filesystem4path9root_nameEv
libboost_filesystem.so.1.72.0:_ZNK5boost10filesystem4path9root_pathEv
libboost_filesystem.so.1.72.0:_ZNK5boost10filesystem6detail18utf8_codecvt_facet24get_cont_octet_out_countEw
libboost_filesystem.so.1.72.0:_ZNK5boost10filesystem6detail18utf8_codecvt_facet5do_inER11__mbstate_tPKcS6_RS6_PwS8_RS8_
libboost_filesystem.so.1.72.0:_ZNK5boost10filesystem6detail18utf8_codecvt_facet6do_outER11__mbstate_tPKwS6_RS6_PcS8_RS8_
libboost_filesystem.so.1.72.0:_ZNK5boost10filesystem6detail18utf8_codecvt_facet9do_lengthER11__mbstate_tPKcS6_m
libboost_graph.so.1.72.0:_ZN5boost12read_graphmlERSiRNS_12mutate_graphEm
libboost_graph.so.1.72.0:_ZN5boost6detail5graph17read_graphviz_newERKNSt7__cxx1112basic_stringIcSt11char_traitsIcESaIcEEEPNS1_12mutate_graphE
libboost_iostreams.so.1.72.0:_ZN5boost9iostreams10lzma_error5checkEi
libboost_iostreams.so.1.72.0:_ZN5boost9iostreams10lzma_errorC1Ei
libboost_iostreams.so.1.72.0:_ZN5boost9iostreams10lzma_errorC2Ei
libboost_iostreams.so.1.72.0:_ZN5boost9iostreams10zlib_error5checkEi
libboost_iostreams.so.1.72.0:_ZN5boost9iostreams10zlib_errorC1Ei
libboost_iostreams.so.1.72.0:_ZN5boost9iostreams10zlib_errorC2Ei
libboost_iostreams.so.1.72.0:_ZN5boost9iostreams10zstd_error5checkEm
libboost_iostreams.so.1.72.0:_ZN5boost9iostreams10zstd_errorC1Em
libboost_iostreams.so.1.72.0:_ZN5boost9iostreams10zstd_errorC2Em
libboost_iostreams.so.1.72.0:_ZN5boost9iostreams11bzip2_error5checkEi
libboost_iostreams.so.1.72.0:_ZN5boost9iostreams11bzip2_errorC1Ei
libboost_iostreams.so.1.72.0:_ZN5boost9iostreams11bzip2_errorC2Ei
libboost_iostreams.so.1.72.0:_ZN5boost9iostreams11mapped_file6resizeEl
libboost_iostreams.so.1.72.0:_ZN5boost9iostreams11mapped_fileC1ERKS1_
libboost_iostreams.so.1.72.0:_ZN5boost9iostreams11mapped_fileC2ERKS1_
libboost_iostreams.so.1.72.0:_ZN5boost9iostreams15file_descriptor4initEv
libboost_iostreams.so.1.72.0:_ZN5boost9iostreams15file_descriptor4openEPKcSt13_Ios_Openmode
libboost_iostreams.so.1.72.0:_ZN5boost9iostreams15file_descriptor4openERKNS0_6detail4pathESt13_Ios_OpenmodeS6_
libboost_iostreams.so.1.72.0:_ZN5boost9iostreams15file_descriptor4openERKNSt7__cxx1112basic_stringIcSt11char_traitsIcESaIcEEESt13_Ios_Openmode
libboost_iostreams.so.1.72.0:_ZN5boost9iostreams15file_descriptor4openEiNS0_21file_descriptor_flagsE
libboost_iostreams.so.1.72.0:_ZN5boost9iostreams15file_descriptor4openEib
libboost_iostreams.so.1.72.0:_ZN5boost9iostreams15file_descriptor4readEPcl
libboost_iostreams.so.1.72.0:_ZN5boost9iostreams15file_descriptor4seekElSt12_Ios_Seekdir
libboost_iostreams.so.1.72.0:_ZN5boost9iostreams15file_descriptor5closeEv
libboost_iostreams.so.1.72.0:_ZN5boost9iostreams15file_descriptor5writeEPKcl
libboost_iostreams.so.1.72.0:_ZN5boost9iostreams15file_descriptorC1EPKcSt13_Ios_Openmode
libboost_iostreams.so.1.72.0:_ZN5boost9iostreams15file_descriptorC1ERKNSt7__cxx1112basic_stringIcSt11char_traitsIcESaIcEEESt13_Ios_Openmode
libboost_iostreams.so.1.72.0:_ZN5boost9iostreams15file_descriptorC1ERKS1_
libboost_iostreams.so.1.72.0:_ZN5boost9iostreams15file_descriptorC1EiNS0_21file_descriptor_flagsE
libboost_iostreams.so.1.72.0:_ZN5boost9iostreams15file_descriptorC1Eib
libboost_iostreams.so.1.72.0:_ZN5boost9iostreams15file_descriptorC1Ev
libboost_iostreams.so.1.72.0:_ZN5boost9iostreams15file_descriptorC2EPKcSt13_Ios_Openmode
libboost_iostreams.so.1.72.0:_ZN5boost9iostreams15file_descriptorC2ERKNSt7__cxx1112basic_stringIcSt11char_traitsIcESaIcEEESt13_Ios_Openmode
libboost_iostreams.so.1.72.0:_ZN5boost9iostreams15file_descriptorC2ERKS1_
libboost_iostreams.so.1.72.0:_ZN5boost9iostreams15file_descriptorC2EiNS0_21file_descriptor_flagsE
libboost_iostreams.so.1.72.0:_ZN5boost9iostreams15file_descriptorC2Eib
libboost_iostreams.so.1.72.0:_ZN5boost9iostreams15file_descriptorC2Ev
libboost_iostreams.so.1.72.0:_ZN5boost9iostreams16mapped_file_sinkC1ERKS1_
libboost_iostreams.so.1.72.0:_ZN5boost9iostreams16mapped_file_sinkC2ERKS1_
libboost_iostreams.so.1.72.0:_ZN5boost9iostreams18mapped_file_source4initEv
libboost_iostreams.so.1.72.0:_ZN5boost9iostreams18mapped_file_source5closeEv
libboost_iostreams.so.1.72.0:_ZN5boost9iostreams18mapped_file_source9alignmentEv
libboost_iostreams.so.1.72.0:_ZN5boost9iostreams18mapped_file_source9open_implERKNS0_24basic_mapped_file_paramsINS0_6detail4pathEEE
libboost_iostreams.so.1.72.0:_ZN5boost9iostreams18mapped_file_sourceC1ERKS1_
libboost_iostreams.so.1.72.0:_ZN5boost9iostreams18mapped_file_sourceC1Ev
libboost_iostreams.so.1.72.0:_ZN5boost9iostreams18mapped_file_sourceC2ERKS1_
libboost_iostreams.so.1.72.0:_ZN5boost9iostreams18mapped_file_sourceC2Ev
libboost_iostreams.so.1.72.0:_ZN5boost9iostreams20file_descriptor_sink4openEPKcSt13_Ios_Openmode
libboost_iostreams.so.1.72.0:_ZN5boost9iostreams20file_descriptor_sink4openERKNS0_6detail4pathESt13_Ios_Openmode
libboost_iostreams.so.1.72.0:_ZN5boost9iostreams20file_descriptor_sink4openERKNSt7__cxx1112basic_stringIcSt11char_traitsIcESaIcEEESt13_Ios_Openmode
libboost_iostreams.so.1.72.0:_ZN5boost9iostreams20file_descriptor_sink4openEiNS0_21file_descriptor_flagsE
libboost_iostreams.so.1.72.0:_ZN5boost9iostreams20file_descriptor_sink4openEib
libboost_iostreams.so.1.72.0:_ZN5boost9iostreams20file_descriptor_sinkC1EPKcSt13_Ios_Openmode
libboost_iostreams.so.1.72.0:_ZN5boost9iostreams20file_descriptor_sinkC1ERKNSt7__cxx1112basic_stringIcSt11char_traitsIcESaIcEEESt13_Ios_Openmode
libboost_iostreams.so.1.72.0:_ZN5boost9iostreams20file_descriptor_sinkC1ERKS1_
libboost_iostreams.so.1.72.0:_ZN5boost9iostreams20file_descriptor_sinkC1EiNS0_21file_descriptor_flagsE
libboost_iostreams.so.1.72.0:_ZN5boost9iostreams20file_descriptor_sinkC1Eib
libboost_iostreams.so.1.72.0:_ZN5boost9iostreams20file_descriptor_sinkC2EPKcSt13_Ios_Openmode
libboost_iostreams.so.1.72.0:_ZN5boost9iostreams20file_descriptor_sinkC2ERKNSt7__cxx1112basic_stringIcSt11char_traitsIcESaIcEEESt13_Ios_Openmode
libboost_iostreams.so.1.72.0:_ZN5boost9iostreams20file_descriptor_sinkC2ERKS1_
libboost_iostreams.so.1.72.0:_ZN5boost9iostreams20file_descriptor_sinkC2EiNS0_21file_descriptor_flagsE
libboost_iostreams.so.1.72.0:_ZN5boost9iostreams20file_descriptor_sinkC2Eib
libboost_iostreams.so.1.72.0:_ZN5boost9iostreams22file_descriptor_source4openEPKcSt13_Ios_Openmode
libboost_iostreams.so.1.72.0:_ZN5boost9iostreams22file_descriptor_source4openERKNS0_6detail4pathESt13_Ios_Openmode
libboost_iostreams.so.1.72.0:_ZN5boost9iostreams22file_descriptor_source4openERKNSt7__cxx1112basic_stringIcSt11char_traitsIcESaIcEEESt13_Ios_Openmode
libboost_iostreams.so.1.72.0:_ZN5boost9iostreams22file_descriptor_source4openEiNS0_21file_descriptor_flagsE
libboost_iostreams.so.1.72.0:_ZN5boost9iostreams22file_descriptor_source4openEib
libboost_iostreams.so.1.72.0:_ZN5boost9iostreams22file_descriptor_sourceC1EPKcSt13_Ios_Openmode
libboost_iostreams.so.1.72.0:_ZN5boost9iostreams22file_descriptor_sourceC1ERKNSt7__cxx1112basic_stringIcSt11char_traitsIcESaIcEEESt13_Ios_Openmode
libboost_iostreams.so.1.72.0:_ZN5boost9iostreams22file_descriptor_sourceC1ERKS1_
libboost_iostreams.so.1.72.0:_ZN5boost9iostreams22file_descriptor_sourceC1EiNS0_21file_descriptor_flagsE
libboost_iostreams.so.1.72.0:_ZN5boost9iostreams22file_descriptor_sourceC1Eib
libboost_iostreams.so.1.72.0:_ZN5boost9iostreams22file_descriptor_sourceC2EPKcSt13_Ios_Openmode
libboost_iostreams.so.1.72.0:_ZN5boost9iostreams22file_descriptor_sourceC2ERKNSt7__cxx1112basic_stringIcSt11char_traitsIcESaIcEEESt13_Ios_Openmode
libboost_iostreams.so.1.72.0:_ZN5boost9iostreams22file_descriptor_sourceC2ERKS1_
libboost_iostreams.so.1.72.0:_ZN5boost9iostreams22file_descriptor_sourceC2EiNS0_21file_descriptor_flagsE
libboost_iostreams.so.1.72.0:_ZN5boost9iostreams22file_descriptor_sourceC2Eib
libboost_iostreams.so.1.72.0:_ZN5boost9iostreams4lzma10best_speedE
libboost_iostreams.so.1.72.0:_ZN5boost9iostreams4lzma10data_errorE
libboost_iostreams.so.1.72.0:_ZN5boost9iostreams4lzma10full_flushE
libboost_iostreams.so.1.72.0:_ZN5boost9iostreams4lzma10prog_errorE
libboost_iostreams.so.1.72.0:_ZN5boost9iostreams4lzma10stream_endE
libboost_iostreams.so.1.72.0:_ZN5boost9iostreams4lzma10sync_flushE
libboost_iostreams.so.1.72.0:_ZN5boost9iostreams4lzma13options_errorE
libboost_iostreams.so.1.72.0:_ZN5boost9iostreams4lzma14no_compressionE
libboost_iostreams.so.1.72.0:_ZN5boost9iostreams4lzma16best_compressionE
libboost_iostreams.so.1.72.0:_ZN5boost9iostreams4lzma17unsupported_checkE
libboost_iostreams.so.1.72.0:_ZN5boost9iostreams4lzma19default_compressionE
libboost_iostreams.so.1.72.0:_ZN5boost9iostreams4lzma3runE
libboost_iostreams.so.1.72.0:_ZN5boost9iostreams4lzma4okayE
libboost_iostreams.so.1.72.0:_ZN5boost9iostreams4lzma6finishE
libboost_iostreams.so.1.72.0:_ZN5boost9iostreams4lzma9buf_errorE
libboost_iostreams.so.1.72.0:_ZN5boost9iostreams4lzma9mem_errorE
libboost_iostreams.so.1.72.0:_ZN5boost9iostreams4zlib10best_speedE
libboost_iostreams.so.1.72.0:_ZN5boost9iostreams4zlib10data_errorE
libboost_iostreams.so.1.72.0:_ZN5boost9iostreams4zlib10stream_endE
libboost_iostreams.so.1.72.0:_ZN5boost9iostreams4zlib10sync_flushE
libboost_iostreams.so.1.72.0:_ZN5boost9iostreams4zlib12huffman_onlyE
libboost_iostreams.so.1.72.0:_ZN5boost9iostreams4zlib12stream_errorE
libboost_iostreams.so.1.72.0:_ZN5boost9iostreams4zlib13version_errorE
libboost_iostreams.so.1.72.0:_ZN5boost9iostreams4zlib14no_compressionE
libboost_iostreams.so.1.72.0:_ZN5boost9iostreams4zlib16best_compressionE
libboost_iostreams.so.1.72.0:_ZN5boost9iostreams4zlib16default_strategyE
libboost_iostreams.so.1.72.0:_ZN5boost9iostreams4zlib19default_compressionE
libboost_iostreams.so.1.72.0:_ZN5boost9iostreams4zlib4okayE
libboost_iostreams.so.1.72.0:_ZN5boost9iostreams4zlib6finishE
libboost_iostreams.so.1.72.0:_ZN5boost9iostreams4zlib8deflatedE
libboost_iostreams.so.1.72.0:_ZN5boost9iostreams4zlib8filteredE
libboost_iostreams.so.1.72.0:_ZN5boost9iostreams4zlib8no_flushE
libboost_iostreams.so.1.72.0:_ZN5boost9iostreams4zlib9buf_errorE
libboost_iostreams.so.1.72.0:_ZN5boost9iostreams4zlib9mem_errorE
libboost_iostreams.so.1.72.0:_ZN5boost9iostreams4zstd10best_speedE
libboost_iostreams.so.1.72.0:_ZN5boost9iostreams4zstd10stream_endE
libboost_iostreams.so.1.72.0:_ZN5boost9iostreams4zstd16best_compressionE
libboost_iostreams.so.1.72.0:_ZN5boost9iostreams4zstd19default_compressionE
libboost_iostreams.so.1.72.0:_ZN5boost9iostreams4zstd3runE
libboost_iostreams.so.1.72.0:_ZN5boost9iostreams4zstd4okayE
libboost_iostreams.so.1.72.0:_ZN5boost9iostreams4zstd5flushE
libboost_iostreams.so.1.72.0:_ZN5boost9iostreams4zstd6finishE
libboost_iostreams.so.1.72.0:_ZN5boost9iostreams5bzip210data_errorE
libboost_iostreams.so.1.72.0:_ZN5boost9iostreams5bzip210stream_endE
libboost_iostreams.so.1.72.0:_ZN5boost9iostreams5bzip211param_errorE
libboost_iostreams.so.1.72.0:_ZN5boost9iostreams5bzip212config_errorE
libboost_iostreams.so.1.72.0:_ZN5boost9iostreams5bzip212outbuff_fullE
libboost_iostreams.so.1.72.0:_ZN5boost9iostreams5bzip214sequence_errorE
libboost_iostreams.so.1.72.0:_ZN5boost9iostreams5bzip214unexpected_eofE
libboost_iostreams.so.1.72.0:_ZN5boost9iostreams5bzip216data_error_magicE
libboost_iostreams.so.1.72.0:_ZN5boost9iostreams5bzip22okE
libboost_iostreams.so.1.72.0:_ZN5boost9iostreams5bzip23runE
libboost_iostreams.so.1.72.0:_ZN5boost9iostreams5bzip26finishE
libboost_iostreams.so.1.72.0:_ZN5boost9iostreams5bzip26run_okE
libboost_iostreams.so.1.72.0:_ZN5boost9iostreams5bzip28flush_okE
libboost_iostreams.so.1.72.0:_ZN5boost9iostreams5bzip28io_errorE
libboost_iostreams.so.1.72.0:_ZN5boost9iostreams5bzip29finish_okE
libboost_iostreams.so.1.72.0:_ZN5boost9iostreams5bzip29mem_errorE
libboost_iostreams.so.1.72.0:_ZN5boost9iostreams6detail10bzip2_base10decompressEv
libboost_iostreams.so.1.72.0:_ZN5boost9iostreams6detail10bzip2_base3endEb
libboost_iostreams.so.1.72.0:_ZN5boost9iostreams6detail10bzip2_base3endEbSt9nothrow_t
libboost_iostreams.so.1.72.0:_ZN5boost9iostreams6detail10bzip2_base5afterERPKcRPc
libboost_iostreams.so.1.72.0:_ZN5boost9iostreams6detail10bzip2_base6beforeERPKcS4_RPcS6_
libboost_iostreams.so.1.72.0:_ZN5boost9iostreams6detail10bzip2_base7do_initEbPFPvS3_iiEPFvS3_S3_ES3_
libboost_iostreams.so.1.72.0:_ZN5boost9iostreams6detail10bzip2_base8compressEi
libboost_iostreams.so.1.72.0:_ZN5boost9iostreams6detail10bzip2_base9check_endEPKcS4_
libboost_iostreams.so.1.72.0:_ZN5boost9iostreams6detail10bzip2_baseC1ERKNS0_12bzip2_paramsE
libboost_iostreams.so.1.72.0:_ZN5boost9iostreams6detail10bzip2_baseC2ERKNS0_12bzip2_paramsE
libboost_iostreams.so.1.72.0:_ZN5boost9iostreams6detail10bzip2_baseD1Ev
libboost_iostreams.so.1.72.0:_ZN5boost9iostreams6detail10bzip2_baseD2Ev
libboost_iostreams.so.1.72.0:_ZN5boost9iostreams6detail11gzip_footer5resetEv
libboost_iostreams.so.1.72.0:_ZN5boost9iostreams6detail11gzip_footer7processEc
libboost_iostreams.so.1.72.0:_ZN5boost9iostreams6detail11gzip_header5resetEv
libboost_iostreams.so.1.72.0:_ZN5boost9iostreams6detail11gzip_header7processEc
libboost_iostreams.so.1.72.0:_ZN5boost9iostreams6detail9lzma_base11init_streamEb
libboost_iostreams.so.1.72.0:_ZN5boost9iostreams6detail9lzma_base5afterERPKcRPcb
libboost_iostreams.so.1.72.0:_ZN5boost9iostreams6detail9lzma_base5resetEbb
libboost_iostreams.so.1.72.0:_ZN5boost9iostreams6detail9lzma_base6beforeERPKcS4_RPcS6_
libboost_iostreams.so.1.72.0:_ZN5boost9iostreams6detail9lzma_base7deflateEi
libboost_iostreams.so.1.72.0:_ZN5boost9iostreams6detail9lzma_base7do_initERKNS0_11lzma_paramsEbPFPvS6_mmEPFvS6_S6_ES6_
libboost_iostreams.so.1.72.0:_ZN5boost9iostreams6detail9lzma_base7inflateEi
libboost_iostreams.so.1.72.0:_ZN5boost9iostreams6detail9lzma_baseC1Ev
libboost_iostreams.so.1.72.0:_ZN5boost9iostreams6detail9lzma_baseC2Ev
libboost_iostreams.so.1.72.0:_ZN5boost9iostreams6detail9lzma_baseD1Ev
libboost_iostreams.so.1.72.0:_ZN5boost9iostreams6detail9lzma_baseD2Ev
libboost_iostreams.so.1.72.0:_ZN5boost9iostreams6detail9zlib_base5afterERPKcRPcb
libboost_iostreams.so.1.72.0:_ZN5boost9iostreams6detail9zlib_base5resetEbb
libboost_iostreams.so.1.72.0:_ZN5boost9iostreams6detail9zlib_base6beforeERPKcS4_RPcS6_
libboost_iostreams.so.1.72.0:_ZN5boost9iostreams6detail9zlib_base7do_initERKNS0_11zlib_paramsEbPFPvS6_jjEPFvS6_S6_ES6_
libboost_iostreams.so.1.72.0:_ZN5boost9iostreams6detail9zlib_base8xdeflateEi
libboost_iostreams.so.1.72.0:_ZN5boost9iostreams6detail9zlib_base8xinflateEi
libboost_iostreams.so.1.72.0:_ZN5boost9iostreams6detail9zlib_baseC1Ev
libboost_iostreams.so.1.72.0:_ZN5boost9iostreams6detail9zlib_baseC2Ev
libboost_iostreams.so.1.72.0:_ZN5boost9iostreams6detail9zlib_baseD1Ev
libboost_iostreams.so.1.72.0:_ZN5boost9iostreams6detail9zlib_baseD2Ev
libboost_iostreams.so.1.72.0:_ZN5boost9iostreams6detail9zstd_base5afterERPKcRPcb
libboost_iostreams.so.1.72.0:_ZN5boost9iostreams6detail9zstd_base5resetEbb
libboost_iostreams.so.1.72.0:_ZN5boost9iostreams6detail9zstd_base6beforeERPKcS4_RPcS6_
libboost_iostreams.so.1.72.0:_ZN5boost9iostreams6detail9zstd_base7deflateEi
libboost_iostreams.so.1.72.0:_ZN5boost9iostreams6detail9zstd_base7do_initERKNS0_11zstd_paramsEbPFPvS6_mmEPFvS6_S6_ES6_
libboost_iostreams.so.1.72.0:_ZN5boost9iostreams6detail9zstd_base7inflateEi
libboost_iostreams.so.1.72.0:_ZN5boost9iostreams6detail9zstd_baseC1Ev
libboost_iostreams.so.1.72.0:_ZN5boost9iostreams6detail9zstd_baseC2Ev
libboost_iostreams.so.1.72.0:_ZN5boost9iostreams6detail9zstd_baseD1Ev
libboost_iostreams.so.1.72.0:_ZN5boost9iostreams6detail9zstd_baseD2Ev
libboost_iostreams.so.1.72.0:_ZNK5boost9iostreams15file_descriptor6handleEv
libboost_iostreams.so.1.72.0:_ZNK5boost9iostreams15file_descriptor7is_openEv
libboost_iostreams.so.1.72.0:_ZNK5boost9iostreams18mapped_file_source3endEv
libboost_iostreams.so.1.72.0:_ZNK5boost9iostreams18mapped_file_source4dataEv
libboost_iostreams.so.1.72.0:_ZNK5boost9iostreams18mapped_file_source4sizeEv
libboost_iostreams.so.1.72.0:_ZNK5boost9iostreams18mapped_file_source5beginEv
libboost_iostreams.so.1.72.0:_ZNK5boost9iostreams18mapped_file_source5flagsEv
libboost_iostreams.so.1.72.0:_ZNK5boost9iostreams18mapped_file_source7is_openEv
libboost_iostreams.so.1.72.0:_ZNK5boost9iostreams18mapped_file_sourcecvMNS1_16safe_bool_helperEiEv
libboost_iostreams.so.1.72.0:_ZNK5boost9iostreams18mapped_file_sourcentEv
libboost_locale.so.1.72.0:_ZN5boost6locale10impl_posix22create_iconv_converterERKNSt7__cxx1112basic_stringIcSt11char_traitsIcESaIcEEE
libboost_locale.so.1.72.0:_ZN5boost6locale11gnu_gettext21create_messages_facetIcEEPNS0_14message_formatIT_EERKNS1_13messages_infoE
libboost_locale.so.1.72.0:_ZN5boost6locale11gnu_gettext21create_messages_facetIwEEPNS0_14message_formatIT_EERKNS1_13messages_infoE
libboost_locale.so.1.72.0:_ZN5boost6locale14calendar_facet2idE
libboost_locale.so.1.72.0:_ZN5boost6locale19base_message_formatIcE2idE
libboost_locale.so.1.72.0:_ZN5boost6locale19base_message_formatIwE2idE
libboost_locale.so.1.72.0:_ZN5boost6locale28localization_backend_manager11add_backendERKNSt7__cxx1112basic_stringIcSt11char_traitsIcESaIcEEESt10unique_ptrINS0_20localization_backendESt14default_deleteISB_EE
libboost_locale.so.1.72.0:_ZN5boost6locale28localization_backend_manager11add_backendERKNSt7__cxx1112basic_stringIcSt11char_traitsIcESaIcEEESt8auto_ptrINS0_20localization_backendEE
libboost_locale.so.1.72.0:_ZN5boost6locale28localization_backend_manager13adopt_backendERKNSt7__cxx1112basic_stringIcSt11char_traitsIcESaIcEEEPNS0_20localization_backendE
libboost_locale.so.1.72.0:_ZN5boost6locale28localization_backend_manager19remove_all_backendsEv
libboost_locale.so.1.72.0:_ZN5boost6locale28localization_backend_manager6globalERKS1_
libboost_locale.so.1.72.0:_ZN5boost6locale28localization_backend_manager6globalEv
libboost_locale.so.1.72.0:_ZN5boost6locale28localization_backend_manager6selectERKNSt7__cxx1112basic_stringIcSt11char_traitsIcESaIcEEEj
libboost_locale.so.1.72.0:_ZN5boost6locale28localization_backend_managerC1ERKS1_
libboost_locale.so.1.72.0:_ZN5boost6locale28localization_backend_managerC1Ev
libboost_locale.so.1.72.0:_ZN5boost6locale28localization_backend_managerC2ERKS1_
libboost_locale.so.1.72.0:_ZN5boost6locale28localization_backend_managerC2Ev
libboost_locale.so.1.72.0:_ZN5boost6locale28localization_backend_managerD1Ev
libboost_locale.so.1.72.0:_ZN5boost6locale28localization_backend_managerD2Ev
libboost_locale.so.1.72.0:_ZN5boost6locale28localization_backend_manageraSERKS1_
libboost_locale.so.1.72.0:_ZN5boost6locale4conv6to_utfIcEENSt7__cxx1112basic_stringIT_St11char_traitsIS5_ESaIS5_EEEPKcSB_RKNS4_IcS6_IcESaIcEEENS1_11method_typeE
libboost_locale.so.1.72.0:_ZN5boost6locale4conv6to_utfIwEENSt7__cxx1112basic_stringIT_St11char_traitsIS5_ESaIS5_EEEPKcSB_RKNS4_IcS6_IcESaIcEEENS1_11method_typeE
libboost_locale.so.1.72.0:_ZN5boost6locale4conv7betweenEPKcS3_RKNSt7__cxx1112basic_stringIcSt11char_traitsIcESaIcEEESB_NS1_11method_typeE
libboost_locale.so.1.72.0:_ZN5boost6locale4conv8from_utfIcEENSt7__cxx1112basic_stringIcSt11char_traitsIcESaIcEEEPKT_SB_RKS8_NS1_11method_typeE
libboost_locale.so.1.72.0:_ZN5boost6locale4conv8from_utfIwEENSt7__cxx1112basic_stringIcSt11char_traitsIcESaIcEEEPKT_SB_RKS8_NS1_11method_typeE
libboost_locale.so.1.72.0:_ZN5boost6locale4info2idE
libboost_locale.so.1.72.0:_ZN5boost6locale4util11create_infoERKSt6localeRKNSt7__cxx1112basic_stringIcSt11char_traitsIcESaIcEEE
libboost_locale.so.1.72.0:_ZN5boost6locale4util14create_codecvtERKSt6localeSt10unique_ptrINS1_14base_converterESt14default_deleteIS6_EEj
libboost_locale.so.1.72.0:_ZN5boost6locale4util14create_codecvtERKSt6localeSt8auto_ptrINS1_14base_converterEEj
libboost_locale.so.1.72.0:_ZN5boost6locale4util17get_system_localeB5cxx11Eb
libboost_locale.so.1.72.0:_ZN5boost6locale4util19create_utf8_codecvtERKSt6localej
libboost_locale.so.1.72.0:_ZN5boost6locale4util21create_simple_codecvtERKSt6localeRKNSt7__cxx1112basic_stringIcSt11char_traitsIcESaIcEEEj
libboost_locale.so.1.72.0:_ZN5boost6locale4util21create_utf8_converterEv
libboost_locale.so.1.72.0:_ZN5boost6locale4util23create_simple_converterERKNSt7__cxx1112basic_stringIcSt11char_traitsIcESaIcEEE
libboost_locale.so.1.72.0:_ZN5boost6locale4util27create_codecvt_from_pointerERKSt6localePNS1_14base_converterEj
libboost_locale.so.1.72.0:_ZN5boost6locale4util29create_utf8_converter_new_ptrEv
libboost_locale.so.1.72.0:_ZN5boost6locale4util31create_simple_converter_new_ptrERKNSt7__cxx1112basic_stringIcSt11char_traitsIcESaIcEEE
libboost_locale.so.1.72.0:_ZN5boost6locale4util32create_utf8_converter_unique_ptrEv
libboost_locale.so.1.72.0:_ZN5boost6locale4util34create_simple_converter_unique_ptrERKNSt7__cxx1112basic_stringIcSt11char_traitsIcESaIcEEE
libboost_locale.so.1.72.0:_ZN5boost6locale7details13format_parser12get_positionEv
libboost_locale.so.1.72.0:_ZN5boost6locale7details13format_parser12set_one_flagERKNSt7__cxx1112basic_stringIcSt11char_traitsIcESaIcEEESA_
libboost_locale.so.1.72.0:_ZN5boost6locale7details13format_parser5imbueERKSt6locale
libboost_locale.so.1.72.0:_ZN5boost6locale7details13format_parser7restoreEv
libboost_locale.so.1.72.0:_ZN5boost6locale7details13format_parserC1ERSt8ios_basePvPFvS5_RKSt6localeE
libboost_locale.so.1.72.0:_ZN5boost6locale7details13format_parserC2ERSt8ios_basePvPFvS5_RKSt6localeE
libboost_locale.so.1.72.0:_ZN5boost6locale7details13format_parserD1Ev
libboost_locale.so.1.72.0:_ZN5boost6locale7details13format_parserD2Ev
libboost_locale.so.1.72.0:_ZN5boost6locale8boundary17boundary_indexingIcE2idE
libboost_locale.so.1.72.0:_ZN5boost6locale8boundary17boundary_indexingIwE2idE
libboost_locale.so.1.72.0:_ZN5boost6locale8calendarC1ERKNSt7__cxx1112basic_stringIcSt11char_traitsIcESaIcEEE
libboost_locale.so.1.72.0:_ZN5boost6locale8calendarC1ERKS1_
libboost_locale.so.1.72.0:_ZN5boost6locale8calendarC1ERKSt6locale
libboost_locale.so.1.72.0:_ZN5boost6locale8calendarC1ERKSt6localeRKNSt7__cxx1112basic_stringIcSt11char_traitsIcESaIcEEE
libboost_locale.so.1.72.0:_ZN5boost6locale8calendarC1ERSt8ios_base
libboost_locale.so.1.72.0:_ZN5boost6locale8calendarC1Ev
libboost_locale.so.1.72.0:_ZN5boost6locale8calendarC2ERKNSt7__cxx1112basic_stringIcSt11char_traitsIcESaIcEEE
libboost_locale.so.1.72.0:_ZN5boost6locale8calendarC2ERKS1_
libboost_locale.so.1.72.0:_ZN5boost6locale8calendarC2ERKSt6locale
libboost_locale.so.1.72.0:_ZN5boost6locale8calendarC2ERKSt6localeRKNSt7__cxx1112basic_stringIcSt11char_traitsIcESaIcEEE
libboost_locale.so.1.72.0:_ZN5boost6locale8calendarC2ERSt8ios_base
libboost_locale.so.1.72.0:_ZN5boost6locale8calendarC2Ev
libboost_locale.so.1.72.0:_ZN5boost6locale8calendarD1Ev
libboost_locale.so.1.72.0:_ZN5boost6locale8calendarD2Ev
libboost_locale.so.1.72.0:_ZN5boost6locale8calendaraSERKS1_
libboost_locale.so.1.72.0:_ZN5boost6locale8impl_icu22create_uconv_converterERKNSt7__cxx1112basic_stringIcSt11char_traitsIcESaIcEEE
libboost_locale.so.1.72.0:_ZN5boost6locale8ios_info10date_flagsEm
libboost_locale.so.1.72.0:_ZN5boost6locale8ios_info10string_set4swapERS2_
libboost_locale.so.1.72.0:_ZN5boost6locale8ios_info10string_setC1ERKS2_
libboost_locale.so.1.72.0:_ZN5boost6locale8ios_info10string_setC1Ev
libboost_locale.so.1.72.0:_ZN5boost6locale8ios_info10string_setC2ERKS2_
libboost_locale.so.1.72.0:_ZN5boost6locale8ios_info10string_setC2Ev
libboost_locale.so.1.72.0:_ZN5boost6locale8ios_info10string_setD1Ev
libboost_locale.so.1.72.0:_ZN5boost6locale8ios_info10string_setD2Ev
libboost_locale.so.1.72.0:_ZN5boost6locale8ios_info10string_setaSERKS2_
libboost_locale.so.1.72.0:_ZN5boost6locale8ios_info10time_flagsEm
libboost_locale.so.1.72.0:_ZN5boost6locale8ios_info13display_flagsEm
libboost_locale.so.1.72.0:_ZN5boost6locale8ios_info14currency_flagsEm
libboost_locale.so.1.72.0:_ZN5boost6locale8ios_info21date_time_pattern_setEv
libboost_locale.so.1.72.0:_ZN5boost6locale8ios_info3getERSt8ios_base
libboost_locale.so.1.72.0:_ZN5boost6locale8ios_info8on_imbueEv
libboost_locale.so.1.72.0:_ZN5boost6locale8ios_info9domain_idEi
libboost_locale.so.1.72.0:_ZN5boost6locale8ios_info9time_zoneERKNSt7__cxx1112basic_stringIcSt11char_traitsIcESaIcEEE
libboost_locale.so.1.72.0:_ZN5boost6locale8ios_infoC1ERKS1_
libboost_locale.so.1.72.0:_ZN5boost6locale8ios_infoC1Ev
libboost_locale.so.1.72.0:_ZN5boost6locale8ios_infoC2ERKS1_
libboost_locale.so.1.72.0:_ZN5boost6locale8ios_infoC2Ev
libboost_locale.so.1.72.0:_ZN5boost6locale8ios_infoD1Ev
libboost_locale.so.1.72.0:_ZN5boost6locale8ios_infoD2Ev
libboost_locale.so.1.72.0:_ZN5boost6locale8ios_infoaSERKS1_
libboost_locale.so.1.72.0:_ZN5boost6locale9converterIcE2idE
libboost_locale.so.1.72.0:_ZN5boost6locale9converterIwE2idE
libboost_locale.so.1.72.0:_ZN5boost6locale9date_time3setENS0_6period11period_typeEi
libboost_locale.so.1.72.0:_ZN5boost6locale9date_time4swapERS1_
libboost_locale.so.1.72.0:_ZN5boost6locale9date_time4timeEd
libboost_locale.so.1.72.0:_ZN5boost6locale9date_timeC1ERKNS0_20date_time_period_setE
libboost_locale.so.1.72.0:_ZN5boost6locale9date_timeC1ERKNS0_20date_time_period_setERKNS0_8calendarE
libboost_locale.so.1.72.0:_ZN5boost6locale9date_timeC1ERKNS0_8calendarE
libboost_locale.so.1.72.0:_ZN5boost6locale9date_timeC1ERKS1_
libboost_locale.so.1.72.0:_ZN5boost6locale9date_timeC1ERKS1_RKNS0_20date_time_period_setE
libboost_locale.so.1.72.0:_ZN5boost6locale9date_timeC1Ed
libboost_locale.so.1.72.0:_ZN5boost6locale9date_timeC1EdRKNS0_8calendarE
libboost_locale.so.1.72.0:_ZN5boost6locale9date_timeC1Ev
libboost_locale.so.1.72.0:_ZN5boost6locale9date_timeC2ERKNS0_20date_time_period_setE
libboost_locale.so.1.72.0:_ZN5boost6locale9date_timeC2ERKNS0_20date_time_period_setERKNS0_8calendarE
libboost_locale.so.1.72.0:_ZN5boost6locale9date_timeC2ERKNS0_8calendarE
libboost_locale.so.1.72.0:_ZN5boost6locale9date_timeC2ERKS1_
libboost_locale.so.1.72.0:_ZN5boost6locale9date_timeC2ERKS1_RKNS0_20date_time_period_setE
libboost_locale.so.1.72.0:_ZN5boost6locale9date_timeC2Ed
libboost_locale.so.1.72.0:_ZN5boost6locale9date_timeC2EdRKNS0_8calendarE
libboost_locale.so.1.72.0:_ZN5boost6locale9date_timeC2Ev
libboost_locale.so.1.72.0:_ZN5boost6locale9date_timeD1Ev
libboost_locale.so.1.72.0:_ZN5boost6locale9date_timeD2Ev
libboost_locale.so.1.72.0:_ZN5boost6locale9date_timeaSERKNS0_20date_time_period_setE
libboost_locale.so.1.72.0:_ZN5boost6locale9date_timeaSERKS1_
libboost_locale.so.1.72.0:_ZN5boost6locale9date_timelSERKNS0_16date_time_periodE
libboost_locale.so.1.72.0:_ZN5boost6locale9date_timelSERKNS0_20date_time_period_setE
libboost_locale.so.1.72.0:_ZN5boost6locale9date_timemIERKNS0_16date_time_periodE
libboost_locale.so.1.72.0:_ZN5boost6locale9date_timemIERKNS0_20date_time_period_setE
libboost_locale.so.1.72.0:_ZN5boost6locale9date_timepLERKNS0_16date_time_periodE
libboost_locale.so.1.72.0:_ZN5boost6locale9date_timepLERKNS0_20date_time_period_setE
libboost_locale.so.1.72.0:_ZN5boost6locale9date_timerSERKNS0_16date_time_periodE
libboost_locale.so.1.72.0:_ZN5boost6locale9date_timerSERKNS0_20date_time_period_setE
libboost_locale.so.1.72.0:_ZN5boost6locale9generator10categoriesEj
libboost_locale.so.1.72.0:_ZN5boost6locale9generator10charactersEj
libboost_locale.so.1.72.0:_ZN5boost6locale9generator11clear_cacheEv
libboost_locale.so.1.72.0:_ZN5boost6locale9generator11clear_pathsEv
libboost_locale.so.1.72.0:_ZN5boost6locale9generator13clear_domainsEv
libboost_locale.so.1.72.0:_ZN5boost6locale9generator17add_messages_pathERKNSt7__cxx1112basic_stringIcSt11char_traitsIcESaIcEEE
libboost_locale.so.1.72.0:_ZN5boost6locale9generator17use_ansi_encodingEb
libboost_locale.so.1.72.0:_ZN5boost6locale9generator19add_messages_domainERKNSt7__cxx1112basic_stringIcSt11char_traitsIcESaIcEEE
libboost_locale.so.1.72.0:_ZN5boost6locale9generator20locale_cache_enabledEb
libboost_locale.so.1.72.0:_ZN5boost6locale9generator27set_default_messages_domainERKNSt7__cxx1112basic_stringIcSt11char_traitsIcESaIcEEE
libboost_locale.so.1.72.0:_ZN5boost6locale9generatorC1ERKNS0_28localization_backend_managerE
libboost_locale.so.1.72.0:_ZN5boost6locale9generatorC1Ev
libboost_locale.so.1.72.0:_ZN5boost6locale9generatorC2ERKNS0_28localization_backend_managerE
libboost_locale.so.1.72.0:_ZN5boost6locale9generatorC2Ev
libboost_locale.so.1.72.0:_ZN5boost6locale9generatorD1Ev
libboost_locale.so.1.72.0:_ZN5boost6locale9generatorD2Ev
libboost_locale.so.1.72.0:_ZN5boost6locale9time_zone6globalB5cxx11Ev
libboost_locale.so.1.72.0:_ZN5boost6locale9time_zone6globalERKNSt7__cxx1112basic_stringIcSt11char_traitsIcESaIcEEE
libboost_locale.so.1.72.0:_ZNK5boost6locale28localization_backend_manager14get_unique_ptrEv
libboost_locale.so.1.72.0:_ZNK5boost6locale28localization_backend_manager16get_all_backendsB5cxx11Ev
libboost_locale.so.1.72.0:_ZNK5boost6locale28localization_backend_manager3getEv
libboost_locale.so.1.72.0:_ZNK5boost6locale28localization_backend_manager6createEv
libboost_locale.so.1.72.0:_ZNK5boost6locale8calendar10get_localeEv
libboost_locale.so.1.72.0:_ZNK5boost6locale8calendar12is_gregorianEv
libboost_locale.so.1.72.0:_ZNK5boost6locale8calendar13get_time_zoneB5cxx11Ev
libboost_locale.so.1.72.0:_ZNK5boost6locale8calendar13least_maximumENS0_6period11period_typeE
libboost_locale.so.1.72.0:_ZNK5boost6locale8calendar16greatest_minimumENS0_6period11period_typeE
libboost_locale.so.1.72.0:_ZNK5boost6locale8calendar17first_day_of_weekEv
libboost_locale.so.1.72.0:_ZNK5boost6locale8calendar7maximumENS0_6period11period_typeE
libboost_locale.so.1.72.0:_ZNK5boost6locale8calendar7minimumENS0_6period11period_typeE
libboost_locale.so.1.72.0:_ZNK5boost6locale8calendareqERKS1_
libboost_locale.so.1.72.0:_ZNK5boost6locale8calendarneERKS1_
libboost_locale.so.1.72.0:_ZNK5boost6locale8ios_info10date_flagsEv
libboost_locale.so.1.72.0:_ZNK5boost6locale8ios_info10time_flagsEv
libboost_locale.so.1.72.0:_ZNK5boost6locale8ios_info13display_flagsEv
libboost_locale.so.1.72.0:_ZNK5boost6locale8ios_info14currency_flagsEv
libboost_locale.so.1.72.0:_ZNK5boost6locale8ios_info21date_time_pattern_setEv
libboost_locale.so.1.72.0:_ZNK5boost6locale8ios_info9domain_idEv
libboost_locale.so.1.72.0:_ZNK5boost6locale8ios_info9time_zoneB5cxx11Ev
libboost_locale.so.1.72.0:_ZNK5boost6locale9date_time10differenceERKS1_NS0_6period11period_typeE
libboost_locale.so.1.72.0:_ZNK5boost6locale9date_time26is_in_daylight_saving_timeEv
libboost_locale.so.1.72.0:_ZNK5boost6locale9date_time3getENS0_6period11period_typeE
libboost_locale.so.1.72.0:_ZNK5boost6locale9date_time4timeEv
libboost_locale.so.1.72.0:_ZNK5boost6locale9date_time7maximumENS0_6period11period_typeE
libboost_locale.so.1.72.0:_ZNK5boost6locale9date_time7minimumENS0_6period11period_typeE
libboost_locale.so.1.72.0:_ZNK5boost6locale9date_timeeqERKS1_
libboost_locale.so.1.72.0:_ZNK5boost6locale9date_timegeERKS1_
libboost_locale.so.1.72.0:_ZNK5boost6locale9date_timegtERKS1_
libboost_locale.so.1.72.0:_ZNK5boost6locale9date_timeleERKS1_
libboost_locale.so.1.72.0:_ZNK5boost6locale9date_timelsERKNS0_16date_time_periodE
libboost_locale.so.1.72.0:_ZNK5boost6locale9date_timelsERKNS0_20date_time_period_setE
libboost_locale.so.1.72.0:_ZNK5boost6locale9date_timeltERKS1_
libboost_locale.so.1.72.0:_ZNK5boost6locale9date_timemiERKNS0_16date_time_periodE
libboost_locale.so.1.72.0:_ZNK5boost6locale9date_timemiERKNS0_20date_time_period_setE
libboost_locale.so.1.72.0:_ZNK5boost6locale9date_timeneERKS1_
libboost_locale.so.1.72.0:_ZNK5boost6locale9date_timeplERKNS0_16date_time_periodE
libboost_locale.so.1.72.0:_ZNK5boost6locale9date_timeplERKNS0_20date_time_period_setE
libboost_locale.so.1.72.0:_ZNK5boost6locale9date_timersERKNS0_16date_time_periodE
libboost_locale.so.1.72.0:_ZNK5boost6locale9date_timersERKNS0_20date_time_period_setE
libboost_locale.so.1.72.0:_ZNK5boost6locale9generator10categoriesEv
libboost_locale.so.1.72.0:_ZNK5boost6locale9generator10charactersEv
libboost_locale.so.1.72.0:_ZNK5boost6locale9generator15set_all_optionsENS_10shared_ptrINS0_20localization_backendEEERKNSt7__cxx1112basic_stringIcSt11char_traitsIcESaIcEEE
libboost_locale.so.1.72.0:_ZNK5boost6locale9generator17use_ansi_encodingEv
libboost_locale.so.1.72.0:_ZNK5boost6locale9generator20locale_cache_enabledEv
libboost_locale.so.1.72.0:_ZNK5boost6locale9generator8generateERKNSt7__cxx1112basic_stringIcSt11char_traitsIcESaIcEEE
libboost_locale.so.1.72.0:_ZNK5boost6locale9generator8generateERKSt6localeRKNSt7__cxx1112basic_stringIcSt11char_traitsIcESaIcEEE
libboost_log.so.1.72.0:_ZN5boost3log11v2_mt_posix10attributes11named_scope10get_scopesEv
libboost_log.so.1.72.0:_ZN5boost3log11v2_mt_posix10attributes11named_scope10push_scopeERKNS2_17named_scope_entryE
libboost_log.so.1.72.0:_ZN5boost3log11v2_mt_posix10attributes11named_scope9pop_scopeEv
libboost_log.so.1.72.0:_ZN5boost3log11v2_mt_posix10attributes11named_scopeC1ERKNS2_11cast_sourceE
libboost_log.so.1.72.0:_ZN5boost3log11v2_mt_posix10attributes11named_scopeC1Ev
libboost_log.so.1.72.0:_ZN5boost3log11v2_mt_posix10attributes11named_scopeC2ERKNS2_11cast_sourceE
libboost_log.so.1.72.0:_ZN5boost3log11v2_mt_posix10attributes11named_scopeC2Ev
libboost_log.so.1.72.0:_ZN5boost3log11v2_mt_posix10attributes16named_scope_list4swapERS3_
libboost_log.so.1.72.0:_ZN5boost3log11v2_mt_posix10attributes16named_scope_listC1ERKS3_
libboost_log.so.1.72.0:_ZN5boost3log11v2_mt_posix10attributes16named_scope_listC2ERKS3_
libboost_log.so.1.72.0:_ZN5boost3log11v2_mt_posix10attributes16named_scope_listD1Ev
libboost_log.so.1.72.0:_ZN5boost3log11v2_mt_posix10attributes16named_scope_listD2Ev
libboost_log.so.1.72.0:_ZN5boost3log11v2_mt_posix10attributes5timerC1ERKNS2_11cast_sourceE
libboost_log.so.1.72.0:_ZN5boost3log11v2_mt_posix10attributes5timerC1Ev
libboost_log.so.1.72.0:_ZN5boost3log11v2_mt_posix10attributes5timerC2ERKNS2_11cast_sourceE
libboost_log.so.1.72.0:_ZN5boost3log11v2_mt_posix10attributes5timerC2Ev
libboost_log.so.1.72.0:_ZN5boost3log11v2_mt_posix11expressions3aux24parse_named_scope_formatEPKcS5_
libboost_log.so.1.72.0:_ZN5boost3log11v2_mt_posix11expressions3aux24parse_named_scope_formatEPKwS5_
libboost_log.so.1.72.0:_ZN5boost3log11v2_mt_posix11logic_error6throw_EPKcmRKNSt7__cxx1112basic_stringIcSt11char_traitsIcESaIcEEE
libboost_log.so.1.72.0:_ZN5boost3log11v2_mt_posix11logic_error6throw_EPKcmS4_
libboost_log.so.1.72.0:_ZN5boost3log11v2_mt_posix11logic_errorC1ERKNSt7__cxx1112basic_stringIcSt11char_traitsIcESaIcEEE
libboost_log.so.1.72.0:_ZN5boost3log11v2_mt_posix11logic_errorC2ERKNSt7__cxx1112basic_stringIcSt11char_traitsIcESaIcEEE
libboost_log.so.1.72.0:_ZN5boost3log11v2_mt_posix11logic_errorD0Ev
libboost_log.so.1.72.0:_ZN5boost3log11v2_mt_posix11logic_errorD1Ev
libboost_log.so.1.72.0:_ZN5boost3log11v2_mt_posix11logic_errorD2Ev
libboost_log.so.1.72.0:_ZN5boost3log11v2_mt_posix11parse_error6throw_EPKcm
libboost_log.so.1.72.0:_ZN5boost3log11v2_mt_posix11parse_error6throw_EPKcmRKNSt7__cxx1112basic_stringIcSt11char_traitsIcESaIcEEE
libboost_log.so.1.72.0:_ZN5boost3log11v2_mt_posix11parse_error6throw_EPKcmRKNSt7__cxx1112basic_stringIcSt11char_traitsIcESaIcEEERKNS1_14attribute_nameE
libboost_log.so.1.72.0:_ZN5boost3log11v2_mt_posix11parse_error6throw_EPKcmRKNSt7__cxx1112basic_stringIcSt11char_traitsIcESaIcEEEm
libboost_log.so.1.72.0:_ZN5boost3log11v2_mt_posix11parse_error6throw_EPKcmS4_
libboost_log.so.1.72.0:_ZN5boost3log11v2_mt_posix11parse_error6throw_EPKcmS4_RKNS1_14attribute_nameE
libboost_log.so.1.72.0:_ZN5boost3log11v2_mt_posix11parse_error6throw_EPKcmS4_m
libboost_log.so.1.72.0:_ZN5boost3log11v2_mt_posix11parse_errorC1ERKNSt7__cxx1112basic_stringIcSt11char_traitsIcESaIcEEE
libboost_log.so.1.72.0:_ZN5boost3log11v2_mt_posix11parse_errorC1Ev
libboost_log.so.1.72.0:_ZN5boost3log11v2_mt_posix11parse_errorC2ERKNSt7__cxx1112basic_stringIcSt11char_traitsIcESaIcEEE
libboost_log.so.1.72.0:_ZN5boost3log11v2_mt_posix11parse_errorC2Ev
libboost_log.so.1.72.0:_ZN5boost3log11v2_mt_posix11parse_errorD0Ev
libboost_log.so.1.72.0:_ZN5boost3log11v2_mt_posix11parse_errorD1Ev
libboost_log.so.1.72.0:_ZN5boost3log11v2_mt_posix11parse_errorD2Ev
libboost_log.so.1.72.0:_ZN5boost3log11v2_mt_posix11permissionsC1ERKNS_12interprocess11permissionsE
libboost_log.so.1.72.0:_ZN5boost3log11v2_mt_posix11permissionsC2ERKNS_12interprocess11permissionsE
libboost_log.so.1.72.0:_ZN5boost3log11v2_mt_posix11record_view11public_data7destroyEPKS3_
libboost_log.so.1.72.0:_ZN5boost3log11v2_mt_posix11setup_error6throw_EPKcm
libboost_log.so.1.72.0:_ZN5boost3log11v2_mt_posix11setup_error6throw_EPKcmRKNSt7__cxx1112basic_stringIcSt11char_traitsIcESaIcEEE
libboost_log.so.1.72.0:_ZN5boost3log11v2_mt_posix11setup_error6throw_EPKcmS4_
libboost_log.so.1.72.0:_ZN5boost3log11v2_mt_posix11setup_errorC1ERKNSt7__cxx1112basic_stringIcSt11char_traitsIcESaIcEEE
libboost_log.so.1.72.0:_ZN5boost3log11v2_mt_posix11setup_errorC1Ev
libboost_log.so.1.72.0:_ZN5boost3log11v2_mt_posix11setup_errorC2ERKNSt7__cxx1112basic_stringIcSt11char_traitsIcESaIcEEE
libboost_log.so.1.72.0:_ZN5boost3log11v2_mt_posix11setup_errorC2Ev
libboost_log.so.1.72.0:_ZN5boost3log11v2_mt_posix11setup_errorD0Ev
libboost_log.so.1.72.0:_ZN5boost3log11v2_mt_posix11setup_errorD1Ev
libboost_log.so.1.72.0:_ZN5boost3log11v2_mt_posix11setup_errorD2Ev
libboost_log.so.1.72.0:_ZN5boost3log11v2_mt_posix12invalid_type6throw_EPKcm
libboost_log.so.1.72.0:_ZN5boost3log11v2_mt_posix12invalid_type6throw_EPKcmRKNSt7__cxx1112basic_stringIcSt11char_traitsIcESaIcEEE
libboost_log.so.1.72.0:_ZN5boost3log11v2_mt_posix12invalid_type6throw_EPKcmRKNSt7__cxx1112basic_stringIcSt11char_traitsIcESaIcEEERKNS1_14attribute_nameE
libboost_log.so.1.72.0:_ZN5boost3log11v2_mt_posix12invalid_type6throw_EPKcmRKNSt7__cxx1112basic_stringIcSt11char_traitsIcESaIcEEERKNS1_14attribute_nameERKNS_9typeindex14stl_type_indexE
libboost_log.so.1.72.0:_ZN5boost3log11v2_mt_posix12invalid_type6throw_EPKcmRKNSt7__cxx1112basic_stringIcSt11char_traitsIcESaIcEEERKNS_9typeindex14stl_type_indexE
libboost_log.so.1.72.0:_ZN5boost3log11v2_mt_posix12invalid_type6throw_EPKcmS4_
libboost_log.so.1.72.0:_ZN5boost3log11v2_mt_posix12invalid_type6throw_EPKcmS4_RKNS1_14attribute_nameE
libboost_log.so.1.72.0:_ZN5boost3log11v2_mt_posix12invalid_type6throw_EPKcmS4_RKNS1_14attribute_nameERKNS_9typeindex14stl_type_indexE
libboost_log.so.1.72.0:_ZN5boost3log11v2_mt_posix12invalid_type6throw_EPKcmS4_RKNS_9typeindex14stl_type_indexE
libboost_log.so.1.72.0:_ZN5boost3log11v2_mt_posix12invalid_typeC1ERKNSt7__cxx1112basic_stringIcSt11char_traitsIcESaIcEEE
libboost_log.so.1.72.0:_ZN5boost3log11v2_mt_posix12invalid_typeC1Ev
libboost_log.so.1.72.0:_ZN5boost3log11v2_mt_posix12invalid_typeC2ERKNSt7__cxx1112basic_stringIcSt11char_traitsIcESaIcEEE
libboost_log.so.1.72.0:_ZN5boost3log11v2_mt_posix12invalid_typeC2Ev
libboost_log.so.1.72.0:_ZN5boost3log11v2_mt_posix12invalid_typeD0Ev
libboost_log.so.1.72.0:_ZN5boost3log11v2_mt_posix12invalid_typeD1Ev
libboost_log.so.1.72.0:_ZN5boost3log11v2_mt_posix12invalid_typeD2Ev
libboost_log.so.1.72.0:_ZN5boost3log11v2_mt_posix12system_error6throw_EPKcmRKNSt7__cxx1112basic_stringIcSt11char_traitsIcESaIcEEENS_6system10error_codeE
libboost_log.so.1.72.0:_ZN5boost3log11v2_mt_posix12system_error6throw_EPKcmRKNSt7__cxx1112basic_stringIcSt11char_traitsIcESaIcEEEi
libboost_log.so.1.72.0:_ZN5boost3log11v2_mt_posix12system_error6throw_EPKcmS4_NS_6system10error_codeE
libboost_log.so.1.72.0:_ZN5boost3log11v2_mt_posix12system_error6throw_EPKcmS4_i
libboost_log.so.1.72.0:_ZN5boost3log11v2_mt_posix12system_errorC1ENS_6system10error_codeERKNSt7__cxx1112basic_stringIcSt11char_traitsIcESaIcEEE
libboost_log.so.1.72.0:_ZN5boost3log11v2_mt_posix12system_errorC2ENS_6system10error_codeERKNSt7__cxx1112basic_stringIcSt11char_traitsIcESaIcEEE
libboost_log.so.1.72.0:_ZN5boost3log11v2_mt_posix12system_errorD0Ev
libboost_log.so.1.72.0:_ZN5boost3log11v2_mt_posix12system_errorD1Ev
libboost_log.so.1.72.0:_ZN5boost3log11v2_mt_posix12system_errorD2Ev
libboost_log.so.1.72.0:_ZN5boost3log11v2_mt_posix13attribute_set3endEv
libboost_log.so.1.72.0:_ZN5boost3log11v2_mt_posix13attribute_set4findENS1_14attribute_nameE
libboost_log.so.1.72.0:_ZN5boost3log11v2_mt_posix13attribute_set5beginEv
libboost_log.so.1.72.0:_ZN5boost3log11v2_mt_posix13attribute_set5clearEv
libboost_log.so.1.72.0:_ZN5boost3log11v2_mt_posix13attribute_set5eraseENS1_14attribute_nameE
libboost_log.so.1.72.0:_ZN5boost3log11v2_mt_posix13attribute_set5eraseENS2_4iterILb0EEE
libboost_log.so.1.72.0:_ZN5boost3log11v2_mt_posix13attribute_set5eraseENS2_4iterILb0EEES4_
libboost_log.so.1.72.0:_ZN5boost3log11v2_mt_posix13attribute_set6insertENS1_14attribute_nameERKNS1_9attributeE
libboost_log.so.1.72.0:_ZN5boost3log11v2_mt_posix13attribute_setC1ERKS2_
libboost_log.so.1.72.0:_ZN5boost3log11v2_mt_posix13attribute_setC1Ev
libboost_log.so.1.72.0:_ZN5boost3log11v2_mt_posix13attribute_setC2ERKS2_
libboost_log.so.1.72.0:_ZN5boost3log11v2_mt_posix13attribute_setC2Ev
libboost_log.so.1.72.0:_ZN5boost3log11v2_mt_posix13attribute_setD1Ev
libboost_log.so.1.72.0:_ZN5boost3log11v2_mt_posix13attribute_setD2Ev
libboost_log.so.1.72.0:_ZN5boost3log11v2_mt_posix13invalid_value6throw_EPKcm
libboost_log.so.1.72.0:_ZN5boost3log11v2_mt_posix13invalid_value6throw_EPKcmRKNSt7__cxx1112basic_stringIcSt11char_traitsIcESaIcEEE
libboost_log.so.1.72.0:_ZN5boost3log11v2_mt_posix13invalid_value6throw_EPKcmS4_
libboost_log.so.1.72.0:_ZN5boost3log11v2_mt_posix13invalid_valueC1ERKNSt7__cxx1112basic_stringIcSt11char_traitsIcESaIcEEE
libboost_log.so.1.72.0:_ZN5boost3log11v2_mt_posix13invalid_valueC1Ev
libboost_log.so.1.72.0:_ZN5boost3log11v2_mt_posix13invalid_valueC2ERKNSt7__cxx1112basic_stringIcSt11char_traitsIcESaIcEEE
libboost_log.so.1.72.0:_ZN5boost3log11v2_mt_posix13invalid_valueC2Ev
libboost_log.so.1.72.0:_ZN5boost3log11v2_mt_posix13invalid_valueD0Ev
libboost_log.so.1.72.0:_ZN5boost3log11v2_mt_posix13invalid_valueD1Ev
libboost_log.so.1.72.0:_ZN5boost3log11v2_mt_posix13invalid_valueD2Ev
libboost_log.so.1.72.0:_ZN5boost3log11v2_mt_posix13missing_value6throw_EPKcm
libboost_log.so.1.72.0:_ZN5boost3log11v2_mt_posix13missing_value6throw_EPKcmRKNSt7__cxx1112basic_stringIcSt11char_traitsIcESaIcEEE
libboost_log.so.1.72.0:_ZN5boost3log11v2_mt_posix13missing_value6throw_EPKcmRKNSt7__cxx1112basic_stringIcSt11char_traitsIcESaIcEEERKNS1_14attribute_nameE
libboost_log.so.1.72.0:_ZN5boost3log11v2_mt_posix13missing_value6throw_EPKcmS4_
libboost_log.so.1.72.0:_ZN5boost3log11v2_mt_posix13missing_value6throw_EPKcmS4_RKNS1_14attribute_nameE
libboost_log.so.1.72.0:_ZN5boost3log11v2_mt_posix13missing_valueC1ERKNSt7__cxx1112basic_stringIcSt11char_traitsIcESaIcEEE
libboost_log.so.1.72.0:_ZN5boost3log11v2_mt_posix13missing_valueC1Ev
libboost_log.so.1.72.0:_ZN5boost3log11v2_mt_posix13missing_valueC2ERKNSt7__cxx1112basic_stringIcSt11char_traitsIcESaIcEEE
libboost_log.so.1.72.0:_ZN5boost3log11v2_mt_posix13missing_valueC2Ev
libboost_log.so.1.72.0:_ZN5boost3log11v2_mt_posix13missing_valueD0Ev
libboost_log.so.1.72.0:_ZN5boost3log11v2_mt_posix13missing_valueD1Ev
libboost_log.so.1.72.0:_ZN5boost3log11v2_mt_posix13missing_valueD2Ev
libboost_log.so.1.72.0:_ZN5boost3log11v2_mt_posix13odr_violation6throw_EPKcm
libboost_log.so.1.72.0:_ZN5boost3log11v2_mt_posix13odr_violation6throw_EPKcmRKNSt7__cxx1112basic_stringIcSt11char_traitsIcESaIcEEE
libboost_log.so.1.72.0:_ZN5boost3log11v2_mt_posix13odr_violation6throw_EPKcmS4_
libboost_log.so.1.72.0:_ZN5boost3log11v2_mt_posix13odr_violationC1ERKNSt7__cxx1112basic_stringIcSt11char_traitsIcESaIcEEE
libboost_log.so.1.72.0:_ZN5boost3log11v2_mt_posix13odr_violationC1Ev
libboost_log.so.1.72.0:_ZN5boost3log11v2_mt_posix13odr_violationC2ERKNSt7__cxx1112basic_stringIcSt11char_traitsIcESaIcEEE
libboost_log.so.1.72.0:_ZN5boost3log11v2_mt_posix13odr_violationC2Ev
libboost_log.so.1.72.0:_ZN5boost3log11v2_mt_posix13odr_violationD0Ev
libboost_log.so.1.72.0:_ZN5boost3log11v2_mt_posix13odr_violationD1Ev
libboost_log.so.1.72.0:_ZN5boost3log11v2_mt_posix13odr_violationD2Ev
libboost_log.so.1.72.0:_ZN5boost3log11v2_mt_posix13runtime_errorC1ERKNSt7__cxx1112basic_stringIcSt11char_traitsIcESaIcEEE
libboost_log.so.1.72.0:_ZN5boost3log11v2_mt_posix13runtime_errorC2ERKNSt7__cxx1112basic_stringIcSt11char_traitsIcESaIcEEE
libboost_log.so.1.72.0:_ZN5boost3log11v2_mt_posix13runtime_errorD0Ev
libboost_log.so.1.72.0:_ZN5boost3log11v2_mt_posix13runtime_errorD1Ev
libboost_log.so.1.72.0:_ZN5boost3log11v2_mt_posix13runtime_errorD2Ev
libboost_log.so.1.72.0:_ZN5boost3log11v2_mt_posix14attribute_name18get_id_from_stringEPKc
libboost_log.so.1.72.0:_ZN5boost3log11v2_mt_posix14attribute_name18get_string_from_idB5cxx11Ej
libboost_log.so.1.72.0:_ZN5boost3log11v2_mt_posix15unexpected_call6throw_EPKcm
libboost_log.so.1.72.0:_ZN5boost3log11v2_mt_posix15unexpected_call6throw_EPKcmRKNSt7__cxx1112basic_stringIcSt11char_traitsIcESaIcEEE
libboost_log.so.1.72.0:_ZN5boost3log11v2_mt_posix15unexpected_call6throw_EPKcmS4_
libboost_log.so.1.72.0:_ZN5boost3log11v2_mt_posix15unexpected_callC1ERKNSt7__cxx1112basic_stringIcSt11char_traitsIcESaIcEEE
libboost_log.so.1.72.0:_ZN5boost3log11v2_mt_posix15unexpected_callC1Ev
libboost_log.so.1.72.0:_ZN5boost3log11v2_mt_posix15unexpected_callC2ERKNSt7__cxx1112basic_stringIcSt11char_traitsIcESaIcEEE
libboost_log.so.1.72.0:_ZN5boost3log11v2_mt_posix15unexpected_callC2Ev
libboost_log.so.1.72.0:_ZN5boost3log11v2_mt_posix15unexpected_callD0Ev
libboost_log.so.1.72.0:_ZN5boost3log11v2_mt_posix15unexpected_callD1Ev
libboost_log.so.1.72.0:_ZN5boost3log11v2_mt_posix15unexpected_callD2Ev
libboost_log.so.1.72.0:_ZN5boost3log11v2_mt_posix16conversion_error6throw_EPKcm
libboost_log.so.1.72.0:_ZN5boost3log11v2_mt_posix16conversion_error6throw_EPKcmRKNSt7__cxx1112basic_stringIcSt11char_traitsIcESaIcEEE
libboost_log.so.1.72.0:_ZN5boost3log11v2_mt_posix16conversion_error6throw_EPKcmS4_
libboost_log.so.1.72.0:_ZN5boost3log11v2_mt_posix16conversion_errorC1ERKNSt7__cxx1112basic_stringIcSt11char_traitsIcESaIcEEE
libboost_log.so.1.72.0:_ZN5boost3log11v2_mt_posix16conversion_errorC1Ev
libboost_log.so.1.72.0:_ZN5boost3log11v2_mt_posix16conversion_errorC2ERKNSt7__cxx1112basic_stringIcSt11char_traitsIcESaIcEEE
libboost_log.so.1.72.0:_ZN5boost3log11v2_mt_posix16conversion_errorC2Ev
libboost_log.so.1.72.0:_ZN5boost3log11v2_mt_posix16conversion_errorD0Ev
libboost_log.so.1.72.0:_ZN5boost3log11v2_mt_posix16conversion_errorD1Ev
libboost_log.so.1.72.0:_ZN5boost3log11v2_mt_posix16conversion_errorD2Ev
libboost_log.so.1.72.0:_ZN5boost3log11v2_mt_posix16limitation_error6throw_EPKcm
libboost_log.so.1.72.0:_ZN5boost3log11v2_mt_posix16limitation_error6throw_EPKcmRKNSt7__cxx1112basic_stringIcSt11char_traitsIcESaIcEEE
libboost_log.so.1.72.0:_ZN5boost3log11v2_mt_posix16limitation_error6throw_EPKcmS4_
libboost_log.so.1.72.0:_ZN5boost3log11v2_mt_posix16limitation_errorC1ERKNSt7__cxx1112basic_stringIcSt11char_traitsIcESaIcEEE
libboost_log.so.1.72.0:_ZN5boost3log11v2_mt_posix16limitation_errorC1Ev
libboost_log.so.1.72.0:_ZN5boost3log11v2_mt_posix16limitation_errorC2ERKNSt7__cxx1112basic_stringIcSt11char_traitsIcESaIcEEE
libboost_log.so.1.72.0:_ZN5boost3log11v2_mt_posix16limitation_errorC2Ev
libboost_log.so.1.72.0:_ZN5boost3log11v2_mt_posix16limitation_errorD0Ev
libboost_log.so.1.72.0:_ZN5boost3log11v2_mt_posix16limitation_errorD1Ev
libboost_log.so.1.72.0:_ZN5boost3log11v2_mt_posix16limitation_errorD2Ev
libboost_log.so.1.72.0:_ZN5boost3log11v2_mt_posix19attribute_value_set6freezeEv
libboost_log.so.1.72.0:_ZN5boost3log11v2_mt_posix19attribute_value_set6insertENS1_14attribute_nameERKNS1_15attribute_valueE
libboost_log.so.1.72.0:_ZN5boost3log11v2_mt_posix19attribute_value_set9constructERS2_RKNS1_13attribute_setES6_m
libboost_log.so.1.72.0:_ZN5boost3log11v2_mt_posix19attribute_value_setC1ERKNS1_13attribute_setES5_S5_m
libboost_log.so.1.72.0:_ZN5boost3log11v2_mt_posix19attribute_value_setC1ERKS2_
libboost_log.so.1.72.0:_ZN5boost3log11v2_mt_posix19attribute_value_setC1ERKS2_RKNS1_13attribute_setES7_m
libboost_log.so.1.72.0:_ZN5boost3log11v2_mt_posix19attribute_value_setC1Em
libboost_log.so.1.72.0:_ZN5boost3log11v2_mt_posix19attribute_value_setC2ERKNS1_13attribute_setES5_S5_m
libboost_log.so.1.72.0:_ZN5boost3log11v2_mt_posix19attribute_value_setC2ERKS2_
libboost_log.so.1.72.0:_ZN5boost3log11v2_mt_posix19attribute_value_setC2ERKS2_RKNS1_13attribute_setES7_m
libboost_log.so.1.72.0:_ZN5boost3log11v2_mt_posix19attribute_value_setC2Em
libboost_log.so.1.72.0:_ZN5boost3log11v2_mt_posix19attribute_value_setD1Ev
libboost_log.so.1.72.0:_ZN5boost3log11v2_mt_posix19attribute_value_setD2Ev
libboost_log.so.1.72.0:_ZN5boost3log11v2_mt_posix22capacity_limit_reached6throw_EPKcmRKNSt7__cxx1112basic_stringIcSt11char_traitsIcESaIcEEE
libboost_log.so.1.72.0:_ZN5boost3log11v2_mt_posix22capacity_limit_reached6throw_EPKcmS4_
libboost_log.so.1.72.0:_ZN5boost3log11v2_mt_posix22capacity_limit_reachedC1EPKc
libboost_log.so.1.72.0:_ZN5boost3log11v2_mt_posix22capacity_limit_reachedC1ERKNSt7__cxx1112basic_stringIcSt11char_traitsIcESaIcEEE
libboost_log.so.1.72.0:_ZN5boost3log11v2_mt_posix22capacity_limit_reachedC2EPKc
libboost_log.so.1.72.0:_ZN5boost3log11v2_mt_posix22capacity_limit_reachedC2ERKNSt7__cxx1112basic_stringIcSt11char_traitsIcESaIcEEE
libboost_log.so.1.72.0:_ZN5boost3log11v2_mt_posix22capacity_limit_reachedD0Ev
libboost_log.so.1.72.0:_ZN5boost3log11v2_mt_posix22capacity_limit_reachedD1Ev
libboost_log.so.1.72.0:_ZN5boost3log11v2_mt_posix22capacity_limit_reachedD2Ev
libboost_log.so.1.72.0:_ZN5boost3log11v2_mt_posix3aux11this_thread6get_idEv
libboost_log.so.1.72.0:_ZN5boost3log11v2_mt_posix3aux12this_process6get_idEv
libboost_log.so.1.72.0:_ZN5boost3log11v2_mt_posix3aux13get_timestampE
libboost_log.so.1.72.0:_ZN5boost3log11v2_mt_posix3aux14dump_data_charE
libboost_log.so.1.72.0:_ZN5boost3log11v2_mt_posix3aux15dump_data_wcharE
libboost_log.so.1.72.0:_ZN5boost3log11v2_mt_posix3aux16dump_data_char16E
libboost_log.so.1.72.0:_ZN5boost3log11v2_mt_posix3aux16dump_data_char32E
libboost_log.so.1.72.0:_ZN5boost3log11v2_mt_posix3aux16get_process_nameB5cxx11Ev
libboost_log.so.1.72.0:_ZN5boost3log11v2_mt_posix3aux17code_convert_implEPKDimRNSt7__cxx1112basic_stringIDsSt11char_traitsIDsESaIDsEEEmRKSt6locale
libboost_log.so.1.72.0:_ZN5boost3log11v2_mt_posix3aux17code_convert_implEPKDimRNSt7__cxx1112basic_stringIcSt11char_traitsIcESaIcEEEmRKSt6locale
libboost_log.so.1.72.0:_ZN5boost3log11v2_mt_posix3aux17code_convert_implEPKDimRNSt7__cxx1112basic_stringIwSt11char_traitsIwESaIwEEEmRKSt6locale
libboost_log.so.1.72.0:_ZN5boost3log11v2_mt_posix3aux17code_convert_implEPKDsmRNSt7__cxx1112basic_stringIDiSt11char_traitsIDiESaIDiEEEmRKSt6locale
libboost_log.so.1.72.0:_ZN5boost3log11v2_mt_posix3aux17code_convert_implEPKDsmRNSt7__cxx1112basic_stringIcSt11char_traitsIcESaIcEEEmRKSt6locale
libboost_log.so.1.72.0:_ZN5boost3log11v2_mt_posix3aux17code_convert_implEPKDsmRNSt7__cxx1112basic_stringIwSt11char_traitsIwESaIwEEEmRKSt6locale
libboost_log.so.1.72.0:_ZN5boost3log11v2_mt_posix3aux17code_convert_implEPKcmRNSt7__cxx1112basic_stringIDiSt11char_traitsIDiESaIDiEEEmRKSt6locale
libboost_log.so.1.72.0:_ZN5boost3log11v2_mt_posix3aux17code_convert_implEPKcmRNSt7__cxx1112basic_stringIDsSt11char_traitsIDsESaIDsEEEmRKSt6locale
libboost_log.so.1.72.0:_ZN5boost3log11v2_mt_posix3aux17code_convert_implEPKcmRNSt7__cxx1112basic_stringIwSt11char_traitsIwESaIwEEEmRKSt6locale
libboost_log.so.1.72.0:_ZN5boost3log11v2_mt_posix3aux17code_convert_implEPKwmRNSt7__cxx1112basic_stringIcSt11char_traitsIcESaIcEEEmRKSt6locale
libboost_log.so.1.72.0:_ZN5boost3log11v2_mt_posix3aux17encoding_specificINS_6spirit13char_encoding13standard_wideEE5alnumE
libboost_log.so.1.72.0:_ZN5boost3log11v2_mt_posix3aux17encoding_specificINS_6spirit13char_encoding13standard_wideEE5alphaE
libboost_log.so.1.72.0:_ZN5boost3log11v2_mt_posix3aux17encoding_specificINS_6spirit13char_encoding13standard_wideEE5blankE
libboost_log.so.1.72.0:_ZN5boost3log11v2_mt_posix3aux17encoding_specificINS_6spirit13char_encoding13standard_wideEE5char_E
libboost_log.so.1.72.0:_ZN5boost3log11v2_mt_posix3aux17encoding_specificINS_6spirit13char_encoding13standard_wideEE5cntrlE
libboost_log.so.1.72.0:_ZN5boost3log11v2_mt_posix3aux17encoding_specificINS_6spirit13char_encoding13standard_wideEE5digitE
libboost_log.so.1.72.0:_ZN5boost3log11v2_mt_posix3aux17encoding_specificINS_6spirit13char_encoding13standard_wideEE5graphE
libboost_log.so.1.72.0:_ZN5boost3log11v2_mt_posix3aux17encoding_specificINS_6spirit13char_encoding13standard_wideEE5lowerE
libboost_log.so.1.72.0:_ZN5boost3log11v2_mt_posix3aux17encoding_specificINS_6spirit13char_encoding13standard_wideEE5printE
libboost_log.so.1.72.0:_ZN5boost3log11v2_mt_posix3aux17encoding_specificINS_6spirit13char_encoding13standard_wideEE5punctE
libboost_log.so.1.72.0:_ZN5boost3log11v2_mt_posix3aux17encoding_specificINS_6spirit13char_encoding13standard_wideEE5spaceE
libboost_log.so.1.72.0:_ZN5boost3log11v2_mt_posix3aux17encoding_specificINS_6spirit13char_encoding13standard_wideEE5upperE
libboost_log.so.1.72.0:_ZN5boost3log11v2_mt_posix3aux17encoding_specificINS_6spirit13char_encoding13standard_wideEE6stringE
libboost_log.so.1.72.0:_ZN5boost3log11v2_mt_posix3aux17encoding_specificINS_6spirit13char_encoding13standard_wideEE6xdigitE
libboost_log.so.1.72.0:_ZN5boost3log11v2_mt_posix3aux17encoding_specificINS_6spirit13char_encoding13standard_wideEE7no_caseE
libboost_log.so.1.72.0:_ZN5boost3log11v2_mt_posix3aux17encoding_specificINS_6spirit13char_encoding13standard_wideEE8lowernumE
libboost_log.so.1.72.0:_ZN5boost3log11v2_mt_posix3aux17encoding_specificINS_6spirit13char_encoding13standard_wideEE8uppernumE
libboost_log.so.1.72.0:_ZN5boost3log11v2_mt_posix3aux17encoding_specificINS_6spirit13char_encoding8standardEE5alnumE
libboost_log.so.1.72.0:_ZN5boost3log11v2_mt_posix3aux17encoding_specificINS_6spirit13char_encoding8standardEE5alphaE
libboost_log.so.1.72.0:_ZN5boost3log11v2_mt_posix3aux17encoding_specificINS_6spirit13char_encoding8standardEE5blankE
libboost_log.so.1.72.0:_ZN5boost3log11v2_mt_posix3aux17encoding_specificINS_6spirit13char_encoding8standardEE5char_E
libboost_log.so.1.72.0:_ZN5boost3log11v2_mt_posix3aux17encoding_specificINS_6spirit13char_encoding8standardEE5cntrlE
libboost_log.so.1.72.0:_ZN5boost3log11v2_mt_posix3aux17encoding_specificINS_6spirit13char_encoding8standardEE5digitE
libboost_log.so.1.72.0:_ZN5boost3log11v2_mt_posix3aux17encoding_specificINS_6spirit13char_encoding8standardEE5graphE
libboost_log.so.1.72.0:_ZN5boost3log11v2_mt_posix3aux17encoding_specificINS_6spirit13char_encoding8standardEE5lowerE
libboost_log.so.1.72.0:_ZN5boost3log11v2_mt_posix3aux17encoding_specificINS_6spirit13char_encoding8standardEE5printE
libboost_log.so.1.72.0:_ZN5boost3log11v2_mt_posix3aux17encoding_specificINS_6spirit13char_encoding8standardEE5punctE
libboost_log.so.1.72.0:_ZN5boost3log11v2_mt_posix3aux17encoding_specificINS_6spirit13char_encoding8standardEE5spaceE
libboost_log.so.1.72.0:_ZN5boost3log11v2_mt_posix3aux17encoding_specificINS_6spirit13char_encoding8standardEE5upperE
libboost_log.so.1.72.0:_ZN5boost3log11v2_mt_posix3aux17encoding_specificINS_6spirit13char_encoding8standardEE6stringE
libboost_log.so.1.72.0:_ZN5boost3log11v2_mt_posix3aux17encoding_specificINS_6spirit13char_encoding8standardEE6xdigitE
libboost_log.so.1.72.0:_ZN5boost3log11v2_mt_posix3aux17encoding_specificINS_6spirit13char_encoding8standardEE7no_caseE
libboost_log.so.1.72.0:_ZN5boost3log11v2_mt_posix3aux17encoding_specificINS_6spirit13char_encoding8standardEE8lowernumE
libboost_log.so.1.72.0:_ZN5boost3log11v2_mt_posix3aux17encoding_specificINS_6spirit13char_encoding8standardEE8uppernumE
libboost_log.so.1.72.0:_ZN5boost3log11v2_mt_posix3aux17futex_based_event13set_signalledEv
libboost_log.so.1.72.0:_ZN5boost3log11v2_mt_posix3aux17futex_based_event4waitEv
libboost_log.so.1.72.0:_ZN5boost3log11v2_mt_posix3aux17futex_based_eventC1Ev
libboost_log.so.1.72.0:_ZN5boost3log11v2_mt_posix3aux17futex_based_eventC2Ev
libboost_log.so.1.72.0:_ZN5boost3log11v2_mt_posix3aux17futex_based_eventD1Ev
libboost_log.so.1.72.0:_ZN5boost3log11v2_mt_posix3aux17futex_based_eventD2Ev
libboost_log.so.1.72.0:_ZN5boost3log11v2_mt_posix3aux17once_block_sentry6commitEv
libboost_log.so.1.72.0:_ZN5boost3log11v2_mt_posix3aux17once_block_sentry8rollbackEv
libboost_log.so.1.72.0:_ZN5boost3log11v2_mt_posix3aux20thread_specific_baseC1Ev
libboost_log.so.1.72.0:_ZN5boost3log11v2_mt_posix3aux20thread_specific_baseC2Ev
libboost_log.so.1.72.0:_ZN5boost3log11v2_mt_posix3aux20thread_specific_baseD1Ev
libboost_log.so.1.72.0:_ZN5boost3log11v2_mt_posix3aux20thread_specific_baseD2Ev
libboost_log.so.1.72.0:_ZN5boost3log11v2_mt_posix3aux21threadsafe_queue_impl6createEPNS3_9node_baseE
libboost_log.so.1.72.0:_ZN5boost3log11v2_mt_posix3aux21threadsafe_queue_impldlEPvm
libboost_log.so.1.72.0:_ZN5boost3log11v2_mt_posix3aux21threadsafe_queue_implnwEm
libboost_log.so.1.72.0:_ZN5boost3log11v2_mt_posix3aux23default_attribute_names10process_idEv
libboost_log.so.1.72.0:_ZN5boost3log11v2_mt_posix3aux23default_attribute_names7channelEv
libboost_log.so.1.72.0:_ZN5boost3log11v2_mt_posix3aux23default_attribute_names7line_idEv
libboost_log.so.1.72.0:_ZN5boost3log11v2_mt_posix3aux23default_attribute_names7messageEv
libboost_log.so.1.72.0:_ZN5boost3log11v2_mt_posix3aux23default_attribute_names8severityEv
libboost_log.so.1.72.0:_ZN5boost3log11v2_mt_posix3aux23default_attribute_names9thread_idEv
libboost_log.so.1.72.0:_ZN5boost3log11v2_mt_posix3aux23default_attribute_names9timestampEv
libboost_log.so.1.72.0:_ZN5boost3log11v2_mt_posix3aux26attach_attribute_name_infoERNS_9exceptionERKNS1_14attribute_nameE
libboost_log.so.1.72.0:_ZN5boost3log11v2_mt_posix3ipc11object_nameC1ENS3_5scopeEPKc
libboost_log.so.1.72.0:_ZN5boost3log11v2_mt_posix3ipc11object_nameC1ENS3_5scopeERKNSt7__cxx1112basic_stringIcSt11char_traitsIcESaIcEEE
libboost_log.so.1.72.0:_ZN5boost3log11v2_mt_posix3ipc11object_nameC2ENS3_5scopeEPKc
libboost_log.so.1.72.0:_ZN5boost3log11v2_mt_posix3ipc11object_nameC2ENS3_5scopeERKNSt7__cxx1112basic_stringIcSt11char_traitsIcESaIcEEE
libboost_log.so.1.72.0:_ZN5boost3log11v2_mt_posix3ipc22reliable_message_queue10do_receiveEPFvPvPKvjES4_
libboost_log.so.1.72.0:_ZN5boost3log11v2_mt_posix3ipc22reliable_message_queue10stop_localEv
libboost_log.so.1.72.0:_ZN5boost3log11v2_mt_posix3ipc22reliable_message_queue11reset_localEv
libboost_log.so.1.72.0:_ZN5boost3log11v2_mt_posix3ipc22reliable_message_queue14do_try_receiveEPFvPvPKvjES4_
libboost_log.so.1.72.0:_ZN5boost3log11v2_mt_posix3ipc22reliable_message_queue14open_or_createERKNS2_11object_nameEjjNS3_15overflow_policyERKNS1_11permissionsE
libboost_log.so.1.72.0:_ZN5boost3log11v2_mt_posix3ipc22reliable_message_queue28fixed_buffer_receive_handlerEPvPKvj
libboost_log.so.1.72.0:_ZN5boost3log11v2_mt_posix3ipc22reliable_message_queue4openERKNS2_11object_nameENS3_15overflow_policyERKNS1_11permissionsE
libboost_log.so.1.72.0:_ZN5boost3log11v2_mt_posix3ipc22reliable_message_queue4sendEPKvj
libboost_log.so.1.72.0:_ZN5boost3log11v2_mt_posix3ipc22reliable_message_queue5clearEv
libboost_log.so.1.72.0:_ZN5boost3log11v2_mt_posix3ipc22reliable_message_queue6createERKNS2_11object_nameEjjNS3_15overflow_policyERKNS1_11permissionsE
libboost_log.so.1.72.0:_ZN5boost3log11v2_mt_posix3ipc22reliable_message_queue6removeERKNS2_11object_nameE
libboost_log.so.1.72.0:_ZN5boost3log11v2_mt_posix3ipc22reliable_message_queue8do_closeEv
libboost_log.so.1.72.0:_ZN5boost3log11v2_mt_posix3ipc22reliable_message_queue8try_sendEPKvj
libboost_log.so.1.72.0:_ZN5boost3log11v2_mt_posix4core10set_filterERKNS1_6filterE
libboost_log.so.1.72.0:_ZN5boost3log11v2_mt_posix4core11open_recordERKNS1_13attribute_setE
libboost_log.so.1.72.0:_ZN5boost3log11v2_mt_posix4core11open_recordERKNS1_19attribute_value_setE
libboost_log.so.1.72.0:_ZN5boost3log11v2_mt_posix4core11remove_sinkERKNS_10shared_ptrINS1_5sinks4sinkEEE
libboost_log.so.1.72.0:_ZN5boost3log11v2_mt_posix4core12reset_filterEv
libboost_log.so.1.72.0:_ZN5boost3log11v2_mt_posix4core16open_record_moveERNS1_19attribute_value_setE
libboost_log.so.1.72.0:_ZN5boost3log11v2_mt_posix4core16push_record_moveERNS1_6recordE
libboost_log.so.1.72.0:_ZN5boost3log11v2_mt_posix4core16remove_all_sinksEv
libboost_log.so.1.72.0:_ZN5boost3log11v2_mt_posix4core19set_logging_enabledEb
libboost_log.so.1.72.0:_ZN5boost3log11v2_mt_posix4core20add_global_attributeERKNS1_14attribute_nameERKNS1_9attributeE
libboost_log.so.1.72.0:_ZN5boost3log11v2_mt_posix4core20add_thread_attributeERKNS1_14attribute_nameERKNS1_9attributeE
libboost_log.so.1.72.0:_ZN5boost3log11v2_mt_posix4core21set_exception_handlerERKNS1_3aux14light_functionIFvvEEE
libboost_log.so.1.72.0:_ZN5boost3log11v2_mt_posix4core21set_global_attributesERKNS1_13attribute_setE
libboost_log.so.1.72.0:_ZN5boost3log11v2_mt_posix4core21set_thread_attributesERKNS1_13attribute_setE
libboost_log.so.1.72.0:_ZN5boost3log11v2_mt_posix4core23remove_global_attributeENS1_13attribute_set4iterILb0EEE
libboost_log.so.1.72.0:_ZN5boost3log11v2_mt_posix4core23remove_thread_attributeENS1_13attribute_set4iterILb0EEE
libboost_log.so.1.72.0:_ZN5boost3log11v2_mt_posix4core3getEv
libboost_log.so.1.72.0:_ZN5boost3log11v2_mt_posix4core5flushEv
libboost_log.so.1.72.0:_ZN5boost3log11v2_mt_posix4core8add_sinkERKNS_10shared_ptrINS1_5sinks4sinkEEE
libboost_log.so.1.72.0:_ZN5boost3log11v2_mt_posix5sinks14syslog_backend17set_local_addressERKNS_4asio2ip7addressEt
libboost_log.so.1.72.0:_ZN5boost3log11v2_mt_posix5sinks14syslog_backend17set_local_addressERKNSt7__cxx1112basic_stringIcSt11char_traitsIcESaIcEEEt
libboost_log.so.1.72.0:_ZN5boost3log11v2_mt_posix5sinks14syslog_backend18set_target_addressERKNS_4asio2ip7addressEt
libboost_log.so.1.72.0:_ZN5boost3log11v2_mt_posix5sinks14syslog_backend18set_target_addressERKNSt7__cxx1112basic_stringIcSt11char_traitsIcESaIcEEEt
libboost_log.so.1.72.0:_ZN5boost3log11v2_mt_posix5sinks14syslog_backend19set_severity_mapperERKNS1_3aux14light_functionIFNS2_6syslog5levelERKNS1_11record_viewEEEE
libboost_log.so.1.72.0:_ZN5boost3log11v2_mt_posix5sinks14syslog_backend7consumeERKNS1_11record_viewERKNSt7__cxx1112basic_stringIcSt11char_traitsIcESaIcEEE
libboost_log.so.1.72.0:_ZN5boost3log11v2_mt_posix5sinks14syslog_backend9constructENS2_6syslog8facilityENS4_10impl_typesENS2_11ip_versionsERKNSt7__cxx1112basic_stringIcSt11char_traitsIcESaIcEEE
libboost_log.so.1.72.0:_ZN5boost3log11v2_mt_posix5sinks14syslog_backendC1Ev
libboost_log.so.1.72.0:_ZN5boost3log11v2_mt_posix5sinks14syslog_backendC2Ev
libboost_log.so.1.72.0:_ZN5boost3log11v2_mt_posix5sinks14syslog_backendD1Ev
libboost_log.so.1.72.0:_ZN5boost3log11v2_mt_posix5sinks14syslog_backendD2Ev
libboost_log.so.1.72.0:_ZN5boost3log11v2_mt_posix5sinks17text_file_backend10auto_flushEb
libboost_log.so.1.72.0:_ZN5boost3log11v2_mt_posix5sinks17text_file_backend11rotate_fileEv
libboost_log.so.1.72.0:_ZN5boost3log11v2_mt_posix5sinks17text_file_backend13set_open_modeESt13_Ios_Openmode
libboost_log.so.1.72.0:_ZN5boost3log11v2_mt_posix5sinks17text_file_backend14scan_for_filesENS2_4file11scan_methodEb
libboost_log.so.1.72.0:_ZN5boost3log11v2_mt_posix5sinks17text_file_backend16set_open_handlerERKNS1_3aux14light_functionIFvRSoEEE
libboost_log.so.1.72.0:_ZN5boost3log11v2_mt_posix5sinks17text_file_backend17set_close_handlerERKNS1_3aux14light_functionIFvRSoEEE
libboost_log.so.1.72.0:_ZN5boost3log11v2_mt_posix5sinks17text_file_backend17set_rotation_sizeEm
libboost_log.so.1.72.0:_ZN5boost3log11v2_mt_posix5sinks17text_file_backend18set_file_collectorERKNS_10shared_ptrINS2_4file9collectorEEE
libboost_log.so.1.72.0:_ZN5boost3log11v2_mt_posix5sinks17text_file_backend21enable_final_rotationEb
libboost_log.so.1.72.0:_ZN5boost3log11v2_mt_posix5sinks17text_file_backend21set_auto_newline_modeENS2_17auto_newline_modeE
libboost_log.so.1.72.0:_ZN5boost3log11v2_mt_posix5sinks17text_file_backend23set_time_based_rotationERKNS1_3aux14light_functionIFbvEEE
libboost_log.so.1.72.0:_ZN5boost3log11v2_mt_posix5sinks17text_file_backend30set_file_name_pattern_internalERKNS_10filesystem4pathE
libboost_log.so.1.72.0:_ZN5boost3log11v2_mt_posix5sinks17text_file_backend37set_target_file_name_pattern_internalERKNS_10filesystem4pathE
libboost_log.so.1.72.0:_ZN5boost3log11v2_mt_posix5sinks17text_file_backend5flushEv
libboost_log.so.1.72.0:_ZN5boost3log11v2_mt_posix5sinks17text_file_backend7consumeERKNS1_11record_viewERKNSt7__cxx1112basic_stringIcSt11char_traitsIcESaIcEEE
libboost_log.so.1.72.0:_ZN5boost3log11v2_mt_posix5sinks17text_file_backend9constructERKNS_10filesystem4pathES7_St13_Ios_OpenmodemRKNS1_3aux14light_functionIFbvEEENS2_17auto_newline_modeEbb
libboost_log.so.1.72.0:_ZN5boost3log11v2_mt_posix5sinks17text_file_backendC1Ev
libboost_log.so.1.72.0:_ZN5boost3log11v2_mt_posix5sinks17text_file_backendC2Ev
libboost_log.so.1.72.0:_ZN5boost3log11v2_mt_posix5sinks17text_file_backendD1Ev
libboost_log.so.1.72.0:_ZN5boost3log11v2_mt_posix5sinks17text_file_backendD2Ev
libboost_log.so.1.72.0:_ZN5boost3log11v2_mt_posix5sinks22text_multifile_backend21set_auto_newline_modeENS2_17auto_newline_modeE
libboost_log.so.1.72.0:_ZN5boost3log11v2_mt_posix5sinks22text_multifile_backend31set_file_name_composer_internalERKNS1_3aux14light_functionIFNS_10filesystem4pathERKNS1_11record_viewEEEE
libboost_log.so.1.72.0:_ZN5boost3log11v2_mt_posix5sinks22text_multifile_backend7consumeERKNS1_11record_viewERKNSt7__cxx1112basic_stringIcSt11char_traitsIcESaIcEEE
libboost_log.so.1.72.0:_ZN5boost3log11v2_mt_posix5sinks22text_multifile_backend9constructENS2_17auto_newline_modeE
libboost_log.so.1.72.0:_ZN5boost3log11v2_mt_posix5sinks22text_multifile_backendC1Ev
libboost_log.so.1.72.0:_ZN5boost3log11v2_mt_posix5sinks22text_multifile_backendC2Ev
libboost_log.so.1.72.0:_ZN5boost3log11v2_mt_posix5sinks22text_multifile_backendD1Ev
libboost_log.so.1.72.0:_ZN5boost3log11v2_mt_posix5sinks22text_multifile_backendD2Ev
libboost_log.so.1.72.0:_ZN5boost3log11v2_mt_posix5sinks4file22rotation_at_time_pointC1ENS_9date_time8weekdaysEhhh
libboost_log.so.1.72.0:_ZN5boost3log11v2_mt_posix5sinks4file22rotation_at_time_pointC1ENS_9gregorian8greg_dayEhhh
libboost_log.so.1.72.0:_ZN5boost3log11v2_mt_posix5sinks4file22rotation_at_time_pointC1Ehhh
libboost_log.so.1.72.0:_ZN5boost3log11v2_mt_posix5sinks4file22rotation_at_time_pointC2ENS_9date_time8weekdaysEhhh
libboost_log.so.1.72.0:_ZN5boost3log11v2_mt_posix5sinks4file22rotation_at_time_pointC2ENS_9gregorian8greg_dayEhhh
libboost_log.so.1.72.0:_ZN5boost3log11v2_mt_posix5sinks4file22rotation_at_time_pointC2Ehhh
libboost_log.so.1.72.0:_ZN5boost3log11v2_mt_posix5sinks4file3aux14make_collectorERKNS_10filesystem4pathEmmm
libboost_log.so.1.72.0:_ZN5boost3log11v2_mt_posix5sinks6syslog10make_levelEi
libboost_log.so.1.72.0:_ZN5boost3log11v2_mt_posix5sinks6syslog13make_facilityEi
libboost_log.so.1.72.0:_ZN5boost3log11v2_mt_posix6record4lockEv
libboost_log.so.1.72.0:_ZN5boost3log11v2_mt_posix7sources3aux14global_storage11get_or_initENS_9typeindex14stl_type_indexEPFNS_10shared_ptrINS3_18logger_holder_baseEEEvE
libboost_log.so.1.72.0:_ZN5boost3log11v2_mt_posix7sources3aux18get_severity_levelEv
libboost_log.so.1.72.0:_ZN5boost3log11v2_mt_posix7sources3aux19throw_odr_violationENS_9typeindex14stl_type_indexES5_RKNS3_18logger_holder_baseE
libboost_log.so.1.72.0:_ZN5boost3log11v2_mt_posix7trivial6logger16construct_loggerEv
libboost_log.so.1.72.0:_ZN5boost3log11v2_mt_posix7trivial6logger3getEv
libboost_log.so.1.72.0:_ZN5boost3log11v2_mt_posix9attribute4impldlEPvm
libboost_log.so.1.72.0:_ZN5boost3log11v2_mt_posix9attribute4implnwEm
libboost_log.so.1.72.0:_ZN5boost3log11v2_mt_posix9bad_alloc6throw_EPKcmRKNSt7__cxx1112basic_stringIcSt11char_traitsIcESaIcEEE
libboost_log.so.1.72.0:_ZN5boost3log11v2_mt_posix9bad_alloc6throw_EPKcmS4_
libboost_log.so.1.72.0:_ZN5boost3log11v2_mt_posix9bad_allocC1EPKc
libboost_log.so.1.72.0:_ZN5boost3log11v2_mt_posix9bad_allocC1ERKNSt7__cxx1112basic_stringIcSt11char_traitsIcESaIcEEE
libboost_log.so.1.72.0:_ZN5boost3log11v2_mt_posix9bad_allocC2EPKc
libboost_log.so.1.72.0:_ZN5boost3log11v2_mt_posix9bad_allocC2ERKNSt7__cxx1112basic_stringIcSt11char_traitsIcESaIcEEE
libboost_log.so.1.72.0:_ZN5boost3log11v2_mt_posix9bad_allocD0Ev
libboost_log.so.1.72.0:_ZN5boost3log11v2_mt_posix9bad_allocD1Ev
libboost_log.so.1.72.0:_ZN5boost3log11v2_mt_posix9bad_allocD2Ev
libboost_log.so.1.72.0:_ZNK5boost3log11v2_mt_posix13attribute_set3endEv
libboost_log.so.1.72.0:_ZNK5boost3log11v2_mt_posix13attribute_set4sizeEv
libboost_log.so.1.72.0:_ZNK5boost3log11v2_mt_posix13attribute_set5beginEv
libboost_log.so.1.72.0:_ZNK5boost3log11v2_mt_posix19attribute_value_set3endEv
libboost_log.so.1.72.0:_ZNK5boost3log11v2_mt_posix19attribute_value_set4findENS1_14attribute_nameE
libboost_log.so.1.72.0:_ZNK5boost3log11v2_mt_posix19attribute_value_set4sizeEv
libboost_log.so.1.72.0:_ZNK5boost3log11v2_mt_posix19attribute_value_set5beginEv
libboost_log.so.1.72.0:_ZNK5boost3log11v2_mt_posix3aux17once_block_sentry16enter_once_blockEv
libboost_log.so.1.72.0:_ZNK5boost3log11v2_mt_posix3aux20thread_specific_base11get_contentEv
libboost_log.so.1.72.0:_ZNK5boost3log11v2_mt_posix3aux20thread_specific_base11set_contentEPv
libboost_log.so.1.72.0:_ZNK5boost3log11v2_mt_posix3aux8duration12millisecondsEv
libboost_log.so.1.72.0:_ZNK5boost3log11v2_mt_posix3ipc22reliable_message_queue10block_sizeEv
libboost_log.so.1.72.0:_ZNK5boost3log11v2_mt_posix3ipc22reliable_message_queue4nameEv
libboost_log.so.1.72.0:_ZNK5boost3log11v2_mt_posix3ipc22reliable_message_queue8capacityEv
libboost_log.so.1.72.0:_ZNK5boost3log11v2_mt_posix4core19get_logging_enabledEv
libboost_log.so.1.72.0:_ZNK5boost3log11v2_mt_posix4core21get_global_attributesEv
libboost_log.so.1.72.0:_ZNK5boost3log11v2_mt_posix4core21get_thread_attributesEv
libboost_log.so.1.72.0:_ZNK5boost3log11v2_mt_posix5sinks17text_file_backend21get_current_file_nameEv
libboost_log.so.1.72.0:_ZNK5boost3log11v2_mt_posix5sinks4file22rotation_at_time_pointclEv
libboost_log.so.1.72.0:_ZNK5boost3log11v2_mt_posix5sinks4file25rotation_at_time_intervalclEv
libboost_log.so.1.72.0:_ZNK5boost3log11v2_mt_posix9bad_alloc4whatEv
libboost_math_c99.so.1.72.0:_ZN5boost4math3tr110fpclassifyIdEEiT_
libboost_math_c99.so.1.72.0:_ZN5boost4math3tr15isinfIdEEbT_
libboost_math_c99.so.1.72.0:_ZN5boost4math3tr15isnanIdEEbT_
libboost_math_c99.so.1.72.0:_ZN5boost4math3tr17signbitIdEEbT_
libboost_math_c99.so.1.72.0:_ZN5boost4math3tr18isfiniteIdEEbT_
libboost_math_c99.so.1.72.0:_ZN5boost4math3tr18isnormalIdEEbT_
libboost_math_c99.so.1.72.0:boost_acosh
libboost_math_c99.so.1.72.0:boost_asinh
libboost_math_c99.so.1.72.0:boost_atanh
libboost_math_c99.so.1.72.0:boost_cbrt
libboost_math_c99.so.1.72.0:boost_copysign
libboost_math_c99.so.1.72.0:boost_erf
libboost_math_c99.so.1.72.0:boost_erfc
libboost_math_c99.so.1.72.0:boost_expm1
libboost_math_c99.so.1.72.0:boost_fmax
libboost_math_c99.so.1.72.0:boost_fmin
libboost_math_c99.so.1.72.0:boost_hypot
libboost_math_c99.so.1.72.0:boost_lgamma
libboost_math_c99.so.1.72.0:boost_llround
libboost_math_c99.so.1.72.0:boost_log1p
libboost_math_c99.so.1.72.0:boost_lround
libboost_math_c99.so.1.72.0:boost_nextafter
libboost_math_c99.so.1.72.0:boost_nexttoward
libboost_math_c99.so.1.72.0:boost_round
libboost_math_c99.so.1.72.0:boost_tgamma
libboost_math_c99.so.1.72.0:boost_trunc
libboost_math_c99f.so.1.72.0:_ZN5boost4math3tr110fpclassifyIfEEiT_
libboost_math_c99f.so.1.72.0:_ZN5boost4math3tr15isinfIfEEbT_
libboost_math_c99f.so.1.72.0:_ZN5boost4math3tr15isnanIfEEbT_
libboost_math_c99f.so.1.72.0:_ZN5boost4math3tr17signbitIfEEbT_
libboost_math_c99f.so.1.72.0:_ZN5boost4math3tr18isfiniteIfEEbT_
libboost_math_c99f.so.1.72.0:_ZN5boost4math3tr18isnormalIfEEbT_
libboost_math_c99f.so.1.72.0:boost_acoshf
libboost_math_c99f.so.1.72.0:boost_asinhf
libboost_math_c99f.so.1.72.0:boost_atanhf
libboost_math_c99f.so.1.72.0:boost_cbrtf
libboost_math_c99f.so.1.72.0:boost_copysignf
libboost_math_c99f.so.1.72.0:boost_erfcf
libboost_math_c99f.so.1.72.0:boost_erff
libboost_math_c99f.so.1.72.0:boost_expm1f
libboost_math_c99f.so.1.72.0:boost_fmaxf
libboost_math_c99f.so.1.72.0:boost_fminf
libboost_math_c99f.so.1.72.0:boost_hypotf
libboost_math_c99f.so.1.72.0:boost_lgammaf
libboost_math_c99f.so.1.72.0:boost_llroundf
libboost_math_c99f.so.1.72.0:boost_log1pf
libboost_math_c99f.so.1.72.0:boost_lroundf
libboost_math_c99f.so.1.72.0:boost_nextafterf
libboost_math_c99f.so.1.72.0:boost_nexttowardf
libboost_math_c99f.so.1.72.0:boost_roundf
libboost_math_c99f.so.1.72.0:boost_tgammaf
libboost_math_c99f.so.1.72.0:boost_truncf
libboost_math_c99l.so.1.72.0:_ZN5boost4math3tr110fpclassifyIeEEiT_
libboost_math_c99l.so.1.72.0:_ZN5boost4math3tr15isinfIeEEbT_
libboost_math_c99l.so.1.72.0:_ZN5boost4math3tr15isnanIeEEbT_
libboost_math_c99l.so.1.72.0:_ZN5boost4math3tr17signbitIeEEbT_
libboost_math_c99l.so.1.72.0:_ZN5boost4math3tr18isfiniteIeEEbT_
libboost_math_c99l.so.1.72.0:_ZN5boost4math3tr18isnormalIeEEbT_
libboost_math_c99l.so.1.72.0:boost_acoshl
libboost_math_c99l.so.1.72.0:boost_asinhl
libboost_math_c99l.so.1.72.0:boost_atanhl
libboost_math_c99l.so.1.72.0:boost_cbrtl
libboost_math_c99l.so.1.72.0:boost_copysignl
libboost_math_c99l.so.1.72.0:boost_erfcl
libboost_math_c99l.so.1.72.0:boost_erfl
libboost_math_c99l.so.1.72.0:boost_expm1l
libboost_math_c99l.so.1.72.0:boost_fmaxl
libboost_math_c99l.so.1.72.0:boost_fminl
libboost_math_c99l.so.1.72.0:boost_hypotl
libboost_math_c99l.so.1.72.0:boost_lgammal
libboost_math_c99l.so.1.72.0:boost_llroundl
libboost_math_c99l.so.1.72.0:boost_log1pl
libboost_math_c99l.so.1.72.0:boost_lroundl
libboost_math_c99l.so.1.72.0:boost_nextafterl
libboost_math_c99l.so.1.72.0:boost_nexttowardl
libboost_math_c99l.so.1.72.0:boost_roundl
libboost_math_c99l.so.1.72.0:boost_tgammal
libboost_math_c99l.so.1.72.0:boost_truncl
libboost_math_tr1.so.1.72.0:boost_assoc_laguerre
libboost_math_tr1.so.1.72.0:boost_assoc_legendre
libboost_math_tr1.so.1.72.0:boost_beta
libboost_math_tr1.so.1.72.0:boost_comp_ellint_1
libboost_math_tr1.so.1.72.0:boost_comp_ellint_2
libboost_math_tr1.so.1.72.0:boost_comp_ellint_3
libboost_math_tr1.so.1.72.0:boost_cyl_bessel_i
libboost_math_tr1.so.1.72.0:boost_cyl_bessel_j
libboost_math_tr1.so.1.72.0:boost_cyl_bessel_k
libboost_math_tr1.so.1.72.0:boost_cyl_neumann
libboost_math_tr1.so.1.72.0:boost_ellint_1
libboost_math_tr1.so.1.72.0:boost_ellint_2
libboost_math_tr1.so.1.72.0:boost_ellint_3
libboost_math_tr1.so.1.72.0:boost_expint
libboost_math_tr1.so.1.72.0:boost_hermite
libboost_math_tr1.so.1.72.0:boost_laguerre
libboost_math_tr1.so.1.72.0:boost_legendre
libboost_math_tr1.so.1.72.0:boost_riemann_zeta
libboost_math_tr1.so.1.72.0:boost_sph_bessel
libboost_math_tr1.so.1.72.0:boost_sph_legendre
libboost_math_tr1.so.1.72.0:boost_sph_neumann
libboost_math_tr1f.so.1.72.0:boost_assoc_laguerref
libboost_math_tr1f.so.1.72.0:boost_assoc_legendref
libboost_math_tr1f.so.1.72.0:boost_betaf
libboost_math_tr1f.so.1.72.0:boost_comp_ellint_1f
libboost_math_tr1f.so.1.72.0:boost_comp_ellint_2f
libboost_math_tr1f.so.1.72.0:boost_comp_ellint_3f
libboost_math_tr1f.so.1.72.0:boost_cyl_bessel_if
libboost_math_tr1f.so.1.72.0:boost_cyl_bessel_jf
libboost_math_tr1f.so.1.72.0:boost_cyl_bessel_kf
libboost_math_tr1f.so.1.72.0:boost_cyl_neumannf
libboost_math_tr1f.so.1.72.0:boost_ellint_1f
libboost_math_tr1f.so.1.72.0:boost_ellint_2f
libboost_math_tr1f.so.1.72.0:boost_ellint_3f
libboost_math_tr1f.so.1.72.0:boost_expintf
libboost_math_tr1f.so.1.72.0:boost_hermitef
libboost_math_tr1f.so.1.72.0:boost_laguerref
libboost_math_tr1f.so.1.72.0:boost_legendref
libboost_math_tr1f.so.1.72.0:boost_riemann_zetaf
libboost_math_tr1f.so.1.72.0:boost_sph_besself
libboost_math_tr1f.so.1.72.0:boost_sph_legendref
libboost_math_tr1f.so.1.72.0:boost_sph_neumannf
libboost_math_tr1l.so.1.72.0:boost_assoc_laguerrel
libboost_math_tr1l.so.1.72.0:boost_assoc_legendrel
libboost_math_tr1l.so.1.72.0:boost_betal
libboost_math_tr1l.so.1.72.0:boost_comp_ellint_1l
libboost_math_tr1l.so.1.72.0:boost_comp_ellint_2l
libboost_math_tr1l.so.1.72.0:boost_comp_ellint_3l
libboost_math_tr1l.so.1.72.0:boost_cyl_bessel_il
libboost_math_tr1l.so.1.72.0:boost_cyl_bessel_jl
libboost_math_tr1l.so.1.72.0:boost_cyl_bessel_kl
libboost_math_tr1l.so.1.72.0:boost_cyl_neumannl
libboost_math_tr1l.so.1.72.0:boost_ellint_1l
libboost_math_tr1l.so.1.72.0:boost_ellint_2l
libboost_math_tr1l.so.1.72.0:boost_ellint_3l
libboost_math_tr1l.so.1.72.0:boost_expintl
libboost_math_tr1l.so.1.72.0:boost_hermitel
libboost_math_tr1l.so.1.72.0:boost_laguerrel
libboost_math_tr1l.so.1.72.0:boost_legendrel
libboost_math_tr1l.so.1.72.0:boost_riemann_zetal
libboost_math_tr1l.so.1.72.0:boost_sph_bessell
libboost_math_tr1l.so.1.72.0:boost_sph_legendrel
libboost_math_tr1l.so.1.72.0:boost_sph_neumannl
libboost_numpy27.so.1.72.0:_ZN5boost6python5numpy10equivalentERKNS1_5dtypeES4_
libboost_numpy27.so.1.72.0:_ZN5boost6python5numpy10initializeEb
libboost_numpy27.so.1.72.0:_ZN5boost6python5numpy10multi_iter4nextEv
libboost_numpy27.so.1.72.0:_ZN5boost6python5numpy11from_objectERKNS0_3api6objectERKNS1_5dtypeEiiNS1_7ndarray7bitflagE
libboost_numpy27.so.1.72.0:_ZN5boost6python5numpy11from_objectERKNS0_3api6objectEiiNS1_7ndarray7bitflagE
libboost_numpy27.so.1.72.0:_ZN5boost6python5numpy15make_multi_iterERKNS0_3api6objectE
libboost_numpy27.so.1.72.0:_ZN5boost6python5numpy15make_multi_iterERKNS0_3api6objectES5_
libboost_numpy27.so.1.72.0:_ZN5boost6python5numpy15make_multi_iterERKNS0_3api6objectES5_S5_
libboost_numpy27.so.1.72.0:_ZN5boost6python5numpy5arrayERKNS0_3api6objectE
libboost_numpy27.so.1.72.0:_ZN5boost6python5numpy5arrayERKNS0_3api6objectERKNS1_5dtypeE
libboost_numpy27.so.1.72.0:_ZN5boost6python5numpy5dtype26register_scalar_convertersEv
libboost_numpy27.so.1.72.0:_ZN5boost6python5numpy5dtype7convertERKNS0_3api6objectEb
libboost_numpy27.so.1.72.0:_ZN5boost6python5numpy5emptyERKNS0_5tupleERKNS1_5dtypeE
libboost_numpy27.so.1.72.0:_ZN5boost6python5numpy5emptyEiPKlRKNS1_5dtypeE
libboost_numpy27.so.1.72.0:_ZN5boost6python5numpy5void_C1El
libboost_numpy27.so.1.72.0:_ZN5boost6python5numpy5void_C2El
libboost_numpy27.so.1.72.0:_ZN5boost6python5numpy5zerosERKNS0_5tupleERKNS1_5dtypeE
libboost_numpy27.so.1.72.0:_ZN5boost6python5numpy5zerosEiPKlRKNS1_5dtypeE
libboost_numpy27.so.1.72.0:_ZN5boost6python5numpy6detail13builtin_dtypeIbLb1EE3getEv
libboost_numpy27.so.1.72.0:_ZN5boost6python5numpy6detail14from_data_implEPvRKNS1_5dtypeERKNS0_3api6objectESA_SA_b
libboost_numpy27.so.1.72.0:_ZN5boost6python5numpy6detail14from_data_implEPvRKNS1_5dtypeERKSt6vectorIlSaIlEESB_RKNS0_3api6objectEb
libboost_numpy27.so.1.72.0:_ZN5boost6python5numpy6matrix9constructERKNS0_3api6objectERKNS1_5dtypeEb
libboost_numpy27.so.1.72.0:_ZN5boost6python5numpy6matrix9constructERKNS0_3api6objectEb
libboost_numpy27.so.1.72.0:_ZN5boost6python5numpy7ndarray8set_baseERKNS0_3api6objectE
libboost_numpy27.so.1.72.0:_ZN5boost6python9converter21object_manager_traitsINS0_5numpy10multi_iterEE10get_pytypeEv
libboost_numpy27.so.1.72.0:_ZN5boost6python9converter21object_manager_traitsINS0_5numpy5dtypeEE10get_pytypeEv
libboost_numpy27.so.1.72.0:_ZN5boost6python9converter21object_manager_traitsINS0_5numpy5void_EE10get_pytypeEv
libboost_numpy27.so.1.72.0:_ZN5boost6python9converter21object_manager_traitsINS0_5numpy6matrixEE10get_pytypeEv
libboost_numpy27.so.1.72.0:_ZN5boost6python9converter21object_manager_traitsINS0_5numpy7ndarrayEE10get_pytypeEv
libboost_numpy27.so.1.72.0:_ZNK5boost6python5numpy10multi_iter5shapeEi
libboost_numpy27.so.1.72.0:_ZNK5boost6python5numpy10multi_iter6get_ndEv
libboost_numpy27.so.1.72.0:_ZNK5boost6python5numpy10multi_iter8get_dataEi
libboost_numpy27.so.1.72.0:_ZNK5boost6python5numpy10multi_iter8not_doneEv
libboost_numpy27.so.1.72.0:_ZNK5boost6python5numpy10multi_iter9get_shapeEv
libboost_numpy27.so.1.72.0:_ZNK5boost6python5numpy5dtype12get_itemsizeEv
libboost_numpy27.so.1.72.0:_ZNK5boost6python5numpy5void_4copyEv
libboost_numpy27.so.1.72.0:_ZNK5boost6python5numpy5void_4viewERKNS1_5dtypeE
libboost_numpy27.so.1.72.0:_ZNK5boost6python5numpy6matrix4copyEv
libboost_numpy27.so.1.72.0:_ZNK5boost6python5numpy6matrix4viewERKNS1_5dtypeE
libboost_numpy27.so.1.72.0:_ZNK5boost6python5numpy6matrix9transposeEv
libboost_numpy27.so.1.72.0:_ZNK5boost6python5numpy7ndarray4copyEv
libboost_numpy27.so.1.72.0:_ZNK5boost6python5numpy7ndarray4viewERKNS1_5dtypeE
libboost_numpy27.so.1.72.0:_ZNK5boost6python5numpy7ndarray5shapeEi
libboost_numpy27.so.1.72.0:_ZNK5boost6python5numpy7ndarray6astypeERKNS1_5dtypeE
libboost_numpy27.so.1.72.0:_ZNK5boost6python5numpy7ndarray7reshapeERKNS0_5tupleE
libboost_numpy27.so.1.72.0:_ZNK5boost6python5numpy7ndarray7squeezeEv
libboost_numpy27.so.1.72.0:_ZNK5boost6python5numpy7ndarray7stridesEi
libboost_numpy27.so.1.72.0:_ZNK5boost6python5numpy7ndarray8get_baseEv
libboost_numpy27.so.1.72.0:_ZNK5boost6python5numpy7ndarray9get_dtypeEv
libboost_numpy27.so.1.72.0:_ZNK5boost6python5numpy7ndarray9get_flagsEv
libboost_numpy27.so.1.72.0:_ZNK5boost6python5numpy7ndarray9scalarizeEv
libboost_numpy27.so.1.72.0:_ZNK5boost6python5numpy7ndarray9transposeEv
libboost_numpy39.so.1.72.0:_ZN5boost6python5numpy10equivalentERKNS1_5dtypeES4_
libboost_numpy39.so.1.72.0:_ZN5boost6python5numpy10initializeEb
libboost_numpy39.so.1.72.0:_ZN5boost6python5numpy10multi_iter4nextEv
libboost_numpy39.so.1.72.0:_ZN5boost6python5numpy11from_objectERKNS0_3api6objectERKNS1_5dtypeEiiNS1_7ndarray7bitflagE
libboost_numpy39.so.1.72.0:_ZN5boost6python5numpy11from_objectERKNS0_3api6objectEiiNS1_7ndarray7bitflagE
libboost_numpy39.so.1.72.0:_ZN5boost6python5numpy15make_multi_iterERKNS0_3api6objectE
libboost_numpy39.so.1.72.0:_ZN5boost6python5numpy15make_multi_iterERKNS0_3api6objectES5_
libboost_numpy39.so.1.72.0:_ZN5boost6python5numpy15make_multi_iterERKNS0_3api6objectES5_S5_
libboost_numpy39.so.1.72.0:_ZN5boost6python5numpy5arrayERKNS0_3api6objectE
libboost_numpy39.so.1.72.0:_ZN5boost6python5numpy5arrayERKNS0_3api6objectERKNS1_5dtypeE
libboost_numpy39.so.1.72.0:_ZN5boost6python5numpy5dtype26register_scalar_convertersEv
libboost_numpy39.so.1.72.0:_ZN5boost6python5numpy5dtype7convertERKNS0_3api6objectEb
libboost_numpy39.so.1.72.0:_ZN5boost6python5numpy5emptyERKNS0_5tupleERKNS1_5dtypeE
libboost_numpy39.so.1.72.0:_ZN5boost6python5numpy5emptyEiPKlRKNS1_5dtypeE
libboost_numpy39.so.1.72.0:_ZN5boost6python5numpy5void_C1El
libboost_numpy39.so.1.72.0:_ZN5boost6python5numpy5void_C2El
libboost_numpy39.so.1.72.0:_ZN5boost6python5numpy5zerosERKNS0_5tupleERKNS1_5dtypeE
libboost_numpy39.so.1.72.0:_ZN5boost6python5numpy5zerosEiPKlRKNS1_5dtypeE
libboost_numpy39.so.1.72.0:_ZN5boost6python5numpy6detail13builtin_dtypeIbLb1EE3getEv
libboost_numpy39.so.1.72.0:_ZN5boost6python5numpy6detail14from_data_implEPvRKNS1_5dtypeERKNS0_3api6objectESA_SA_b
libboost_numpy39.so.1.72.0:_ZN5boost6python5numpy6detail14from_data_implEPvRKNS1_5dtypeERKSt6vectorIlSaIlEESB_RKNS0_3api6objectEb
libboost_numpy39.so.1.72.0:_ZN5boost6python5numpy6matrix9constructERKNS0_3api6objectERKNS1_5dtypeEb
libboost_numpy39.so.1.72.0:_ZN5boost6python5numpy6matrix9constructERKNS0_3api6objectEb
libboost_numpy39.so.1.72.0:_ZN5boost6python5numpy7ndarray8set_baseERKNS0_3api6objectE
libboost_numpy39.so.1.72.0:_ZN5boost6python9converter21object_manager_traitsINS0_5numpy10multi_iterEE10get_pytypeEv
libboost_numpy39.so.1.72.0:_ZN5boost6python9converter21object_manager_traitsINS0_5numpy5dtypeEE10get_pytypeEv
libboost_numpy39.so.1.72.0:_ZN5boost6python9converter21object_manager_traitsINS0_5numpy5void_EE10get_pytypeEv
libboost_numpy39.so.1.72.0:_ZN5boost6python9converter21object_manager_traitsINS0_5numpy6matrixEE10get_pytypeEv
libboost_numpy39.so.1.72.0:_ZN5boost6python9converter21object_manager_traitsINS0_5numpy7ndarrayEE10get_pytypeEv
libboost_numpy39.so.1.72.0:_ZNK5boost6python5numpy10multi_iter5shapeEi
libboost_numpy39.so.1.72.0:_ZNK5boost6python5numpy10multi_iter6get_ndEv
libboost_numpy39.so.1.72.0:_ZNK5boost6python5numpy10multi_iter8get_dataEi
libboost_numpy39.so.1.72.0:_ZNK5boost6python5numpy10multi_iter8not_doneEv
libboost_numpy39.so.1.72.0:_ZNK5boost6python5numpy10multi_iter9get_shapeEv
libboost_numpy39.so.1.72.0:_ZNK5boost6python5numpy5dtype12get_itemsizeEv
libboost_numpy39.so.1.72.0:_ZNK5boost6python5numpy5void_4copyEv
libboost_numpy39.so.1.72.0:_ZNK5boost6python5numpy5void_4viewERKNS1_5dtypeE
libboost_numpy39.so.1.72.0:_ZNK5boost6python5numpy6matrix4copyEv
libboost_numpy39.so.1.72.0:_ZNK5boost6python5numpy6matrix4viewERKNS1_5dtypeE
libboost_numpy39.so.1.72.0:_ZNK5boost6python5numpy6matrix9transposeEv
libboost_numpy39.so.1.72.0:_ZNK5boost6python5numpy7ndarray4copyEv
libboost_numpy39.so.1.72.0:_ZNK5boost6python5numpy7ndarray4viewERKNS1_5dtypeE
libboost_numpy39.so.1.72.0:_ZNK5boost6python5numpy7ndarray5shapeEi
libboost_numpy39.so.1.72.0:_ZNK5boost6python5numpy7ndarray6astypeERKNS1_5dtypeE
libboost_numpy39.so.1.72.0:_ZNK5boost6python5numpy7ndarray7reshapeERKNS0_5tupleE
libboost_numpy39.so.1.72.0:_ZNK5boost6python5numpy7ndarray7squeezeEv
libboost_numpy39.so.1.72.0:_ZNK5boost6python5numpy7ndarray7stridesEi
libboost_numpy39.so.1.72.0:_ZNK5boost6python5numpy7ndarray8get_baseEv
libboost_numpy39.so.1.72.0:_ZNK5boost6python5numpy7ndarray9get_dtypeEv
libboost_numpy39.so.1.72.0:_ZNK5boost6python5numpy7ndarray9get_flagsEv
libboost_numpy39.so.1.72.0:_ZNK5boost6python5numpy7ndarray9scalarizeEv
libboost_numpy39.so.1.72.0:_ZNK5boost6python5numpy7ndarray9transposeEv
libboost_prg_exec_monitor.so.1.72.0:_ZN5boost17execution_monitor13catch_signalsERKNS_8functionIFivEEE
libboost_prg_exec_monitor.so.1.72.0:_ZN5boost17execution_monitor7executeERKNS_8functionIFivEEE
libboost_prg_exec_monitor.so.1.72.0:_ZN5boost17execution_monitor8vexecuteERKNS_8functionIFvvEEE
libboost_prg_exec_monitor.so.1.72.0:_ZN5boost17execution_monitorC1Ev
libboost_prg_exec_monitor.so.1.72.0:_ZN5boost17execution_monitorC2Ev
libboost_prg_exec_monitor.so.1.72.0:_ZN5boost19execution_exception8locationC1ENS_9unit_test13basic_cstringIKcEEmPS4_
libboost_prg_exec_monitor.so.1.72.0:_ZN5boost19execution_exception8locationC1EPKcmS3_
libboost_prg_exec_monitor.so.1.72.0:_ZN5boost19execution_exception8locationC2ENS_9unit_test13basic_cstringIKcEEmPS4_
libboost_prg_exec_monitor.so.1.72.0:_ZN5boost19execution_exception8locationC2EPKcmS3_
libboost_prg_exec_monitor.so.1.72.0:_ZN5boost19execution_exceptionC1ENS0_10error_codeENS_9unit_test13basic_cstringIKcEERKNS0_8locationE
libboost_prg_exec_monitor.so.1.72.0:_ZN5boost19execution_exceptionC2ENS0_10error_codeENS_9unit_test13basic_cstringIKcEERKNS0_8locationE
libboost_prg_exec_monitor.so.1.72.0:_ZN5boost21prg_exec_monitor_mainEPFiiPPcEiS1_
libboost_prg_exec_monitor.so.1.72.0:_ZN5boost3fpe6enableEj
libboost_prg_exec_monitor.so.1.72.0:_ZN5boost3fpe7disableEj
libboost_prg_exec_monitor.so.1.72.0:_ZN5boost5debug12set_debuggerB5cxx11ENS_9unit_test13basic_cstringIKcEENS_8functionIFvRKNS0_16dbg_startup_infoEEEE
libboost_prg_exec_monitor.so.1.72.0:_ZN5boost5debug14debugger_breakEv
libboost_prg_exec_monitor.so.1.72.0:_ZN5boost5debug14under_debuggerEv
libboost_prg_exec_monitor.so.1.72.0:_ZN5boost5debug15attach_debuggerEb
libboost_prg_exec_monitor.so.1.72.0:_ZN5boost5debug18break_memory_allocEl
libboost_prg_exec_monitor.so.1.72.0:_ZN5boost5debug19detect_memory_leaksEbNS_9unit_test13basic_cstringIKcEE
libboost_program_options.so.1.72.0:_ZN5boost10from_8_bitERKNSt7__cxx1112basic_stringIcSt11char_traitsIcESaIcEEERKSt7codecvtIwc11__mbstate_tE
libboost_program_options.so.1.72.0:_ZN5boost14to_local_8_bitERKNSt7__cxx1112basic_stringIwSt11char_traitsIwESaIwEEE
libboost_program_options.so.1.72.0:_ZN5boost15program_options10split_unixERKNSt7__cxx1112basic_stringIcSt11char_traitsIcESaIcEEES8_S8_S8_
libboost_program_options.so.1.72.0:_ZN5boost15program_options10split_unixERKNSt7__cxx1112basic_stringIwSt11char_traitsIwESaIwEEES8_S8_S8_
libboost_program_options.so.1.72.0:_ZN5boost15program_options10validators22check_first_occurrenceERKNS_3anyE
libboost_program_options.so.1.72.0:_ZN5boost15program_options11bool_switchEPb
libboost_program_options.so.1.72.0:_ZN5boost15program_options11bool_switchEv
libboost_program_options.so.1.72.0:_ZN5boost15program_options11to_internalERKNSt7__cxx1112basic_stringIcSt11char_traitsIcESaIcEEE
libboost_program_options.so.1.72.0:_ZN5boost15program_options11to_internalERKNSt7__cxx1112basic_stringIwSt11char_traitsIwESaIwEEE
libboost_program_options.so.1.72.0:_ZN5boost15program_options13variables_map5clearEv
libboost_program_options.so.1.72.0:_ZN5boost15program_options13variables_map6notifyEv
libboost_program_options.so.1.72.0:_ZN5boost15program_options13variables_mapC1EPKNS0_22abstract_variables_mapE
libboost_program_options.so.1.72.0:_ZN5boost15program_options13variables_mapC1Ev
libboost_program_options.so.1.72.0:_ZN5boost15program_options13variables_mapC2EPKNS0_22abstract_variables_mapE
libboost_program_options.so.1.72.0:_ZN5boost15program_options13variables_mapC2Ev
libboost_program_options.so.1.72.0:_ZN5boost15program_options14invalid_syntax12get_templateB5cxx11ENS1_6kind_tE
libboost_program_options.so.1.72.0:_ZN5boost15program_options16validation_error12get_templateB5cxx11ENS1_6kind_tE
libboost_program_options.so.1.72.0:_ZN5boost15program_options17parse_environmentERKNS0_19options_descriptionEPKc
libboost_program_options.so.1.72.0:_ZN5boost15program_options17parse_environmentERKNS0_19options_descriptionERKNS_9function1INSt7__cxx1112basic_stringIcSt11char_traitsIcESaIcEEESA_EE
libboost_program_options.so.1.72.0:_ZN5boost15program_options17parse_environmentERKNS0_19options_descriptionERKNSt7__cxx1112basic_stringIcSt11char_traitsIcESaIcEEE
libboost_program_options.so.1.72.0:_ZN5boost15program_options18invalid_bool_valueC1ERKNSt7__cxx1112basic_stringIcSt11char_traitsIcESaIcEEE
libboost_program_options.so.1.72.0:_ZN5boost15program_options18invalid_bool_valueC2ERKNSt7__cxx1112basic_stringIcSt11char_traitsIcESaIcEEE
libboost_program_options.so.1.72.0:_ZN5boost15program_options18option_description9set_namesEPKc
libboost_program_options.so.1.72.0:_ZN5boost15program_options18option_descriptionC1EPKcPKNS0_14value_semanticE
libboost_program_options.so.1.72.0:_ZN5boost15program_options18option_descriptionC1EPKcPKNS0_14value_semanticES3_
libboost_program_options.so.1.72.0:_ZN5boost15program_options18option_descriptionC1Ev
libboost_program_options.so.1.72.0:_ZN5boost15program_options18option_descriptionC2EPKcPKNS0_14value_semanticE
libboost_program_options.so.1.72.0:_ZN5boost15program_options18option_descriptionC2EPKcPKNS0_14value_semanticES3_
libboost_program_options.so.1.72.0:_ZN5boost15program_options18option_descriptionC2Ev
libboost_program_options.so.1.72.0:_ZN5boost15program_options18option_descriptionD0Ev
libboost_program_options.so.1.72.0:_ZN5boost15program_options18option_descriptionD1Ev
libboost_program_options.so.1.72.0:_ZN5boost15program_options18option_descriptionD2Ev
libboost_program_options.so.1.72.0:_ZN5boost15program_options19options_description11add_optionsEv
libboost_program_options.so.1.72.0:_ZN5boost15program_options19options_description21m_default_line_lengthE
libboost_program_options.so.1.72.0:_ZN5boost15program_options19options_description3addENS_10shared_ptrINS0_18option_descriptionEEE
libboost_program_options.so.1.72.0:_ZN5boost15program_options19options_description3addERKS1_
libboost_program_options.so.1.72.0:_ZN5boost15program_options19options_descriptionC1ERKNSt7__cxx1112basic_stringIcSt11char_traitsIcESaIcEEEjj
libboost_program_options.so.1.72.0:_ZN5boost15program_options19options_descriptionC1Ejj
libboost_program_options.so.1.72.0:_ZN5boost15program_options19options_descriptionC2ERKNSt7__cxx1112basic_stringIcSt11char_traitsIcESaIcEEEjj
libboost_program_options.so.1.72.0:_ZN5boost15program_options19options_descriptionC2Ejj
libboost_program_options.so.1.72.0:_ZN5boost15program_options20basic_parsed_optionsIwEC1ERKNS1_IcEE
libboost_program_options.so.1.72.0:_ZN5boost15program_options20basic_parsed_optionsIwEC2ERKNS1_IcEE
libboost_program_options.so.1.72.0:_ZN5boost15program_options20invalid_option_valueC1ERKNSt7__cxx1112basic_stringIcSt11char_traitsIcESaIcEEE
libboost_program_options.so.1.72.0:_ZN5boost15program_options20invalid_option_valueC1ERKNSt7__cxx1112basic_stringIwSt11char_traitsIwESaIwEEE
libboost_program_options.so.1.72.0:_ZN5boost15program_options20invalid_option_valueC2ERKNSt7__cxx1112basic_stringIcSt11char_traitsIcESaIcEEE
libboost_program_options.so.1.72.0:_ZN5boost15program_options20invalid_option_valueC2ERKNSt7__cxx1112basic_stringIwSt11char_traitsIwESaIwEEE
libboost_program_options.so.1.72.0:_ZN5boost15program_options22abstract_variables_map4nextEPS1_
libboost_program_options.so.1.72.0:_ZN5boost15program_options22abstract_variables_mapC1EPKS1_
libboost_program_options.so.1.72.0:_ZN5boost15program_options22abstract_variables_mapC1Ev
libboost_program_options.so.1.72.0:_ZN5boost15program_options22abstract_variables_mapC2EPKS1_
libboost_program_options.so.1.72.0:_ZN5boost15program_options22abstract_variables_mapC2Ev
libboost_program_options.so.1.72.0:_ZN5boost15program_options22error_with_option_nameC1ERKNSt7__cxx1112basic_stringIcSt11char_traitsIcESaIcEEES9_S9_i
libboost_program_options.so.1.72.0:_ZN5boost15program_options22error_with_option_nameC2ERKNSt7__cxx1112basic_stringIcSt11char_traitsIcESaIcEEES9_S9_i
libboost_program_options.so.1.72.0:_ZN5boost15program_options29options_description_easy_initC1EPNS0_19options_descriptionE
libboost_program_options.so.1.72.0:_ZN5boost15program_options29options_description_easy_initC2EPNS0_19options_descriptionE
libboost_program_options.so.1.72.0:_ZN5boost15program_options29options_description_easy_initclEPKcPKNS0_14value_semanticE
libboost_program_options.so.1.72.0:_ZN5boost15program_options29options_description_easy_initclEPKcPKNS0_14value_semanticES3_
libboost_program_options.so.1.72.0:_ZN5boost15program_options29options_description_easy_initclEPKcS3_
libboost_program_options.so.1.72.0:_ZN5boost15program_options30positional_options_description3addEPKci
libboost_program_options.so.1.72.0:_ZN5boost15program_options30positional_options_descriptionC1Ev
libboost_program_options.so.1.72.0:_ZN5boost15program_options30positional_options_descriptionC2Ev
libboost_program_options.so.1.72.0:_ZN5boost15program_options3argB5cxx11E
libboost_program_options.so.1.72.0:_ZN5boost15program_options5storeERKNS0_20basic_parsed_optionsIcEERNS0_13variables_mapEb
libboost_program_options.so.1.72.0:_ZN5boost15program_options5storeERKNS0_20basic_parsed_optionsIwEERNS0_13variables_mapE
libboost_program_options.so.1.72.0:_ZN5boost15program_options6detail18utf8_codecvt_facet15get_octet_countEh
libboost_program_options.so.1.72.0:_ZN5boost15program_options6detail18utf8_codecvt_facetC1Em
libboost_program_options.so.1.72.0:_ZN5boost15program_options6detail18utf8_codecvt_facetC2Em
libboost_program_options.so.1.72.0:_ZN5boost15program_options6detail18utf8_codecvt_facetD0Ev
libboost_program_options.so.1.72.0:_ZN5boost15program_options6detail18utf8_codecvt_facetD1Ev
libboost_program_options.so.1.72.0:_ZN5boost15program_options6detail18utf8_codecvt_facetD2Ev
libboost_program_options.so.1.72.0:_ZN5boost15program_options6detail27common_config_file_iterator10add_optionEPKc
libboost_program_options.so.1.72.0:_ZN5boost15program_options6detail27common_config_file_iterator3getEv
libboost_program_options.so.1.72.0:_ZN5boost15program_options6detail27common_config_file_iteratorC1ERKSt3setINSt7__cxx1112basic_stringIcSt11char_traitsIcESaIcEEESt4lessIS9_ESaIS9_EEb
libboost_program_options.so.1.72.0:_ZN5boost15program_options6detail27common_config_file_iteratorC2ERKSt3setINSt7__cxx1112basic_stringIcSt11char_traitsIcESaIcEEESt4lessIS9_ESaIS9_EEb
libboost_program_options.so.1.72.0:_ZN5boost15program_options6detail7cmdline13finish_optionERNS0_12basic_optionIcEERSt6vectorINSt7__cxx1112basic_stringIcSt11char_traitsIcESaIcEEESaISC_EERKS6_INS_9function1IS6_IS4_SaIS4_EESF_EESaISJ_EE
libboost_program_options.so.1.72.0:_ZN5boost15program_options6detail7cmdline16parse_dos_optionERSt6vectorINSt7__cxx1112basic_stringIcSt11char_traitsIcESaIcEEESaIS9_EE
libboost_program_options.so.1.72.0:_ZN5boost15program_options6detail7cmdline16parse_terminatorERSt6vectorINSt7__cxx1112basic_stringIcSt11char_traitsIcESaIcEEESaIS9_EE
libboost_program_options.so.1.72.0:_ZN5boost15program_options6detail7cmdline17parse_long_optionERSt6vectorINSt7__cxx1112basic_stringIcSt11char_traitsIcESaIcEEESaIS9_EE
libboost_program_options.so.1.72.0:_ZN5boost15program_options6detail7cmdline18allow_unregisteredEv
libboost_program_options.so.1.72.0:_ZN5boost15program_options6detail7cmdline18extra_style_parserENS_9function1ISt6vectorINS0_12basic_optionIcEESaIS6_EERS4_INSt7__cxx1112basic_stringIcSt11char_traitsIcESaIcEEESaISE_EEEE
libboost_program_options.so.1.72.0:_ZN5boost15program_options6detail7cmdline18parse_short_optionERSt6vectorINSt7__cxx1112basic_stringIcSt11char_traitsIcESaIcEEESaIS9_EE
libboost_program_options.so.1.72.0:_ZN5boost15program_options6detail7cmdline21set_additional_parserENS_9function1ISt4pairINSt7__cxx1112basic_stringIcSt11char_traitsIcESaIcEEESA_ERKSA_EE
libboost_program_options.so.1.72.0:_ZN5boost15program_options6detail7cmdline22set_positional_optionsERKNS0_30positional_options_descriptionE
libboost_program_options.so.1.72.0:_ZN5boost15program_options6detail7cmdline23set_options_descriptionERKNS0_19options_descriptionE
libboost_program_options.so.1.72.0:_ZN5boost15program_options6detail7cmdline24handle_additional_parserERSt6vectorINSt7__cxx1112basic_stringIcSt11char_traitsIcESaIcEEESaIS9_EE
libboost_program_options.so.1.72.0:_ZN5boost15program_options6detail7cmdline27get_canonical_option_prefixEv
libboost_program_options.so.1.72.0:_ZN5boost15program_options6detail7cmdline27parse_disguised_long_optionERSt6vectorINSt7__cxx1112basic_stringIcSt11char_traitsIcESaIcEEESaIS9_EE
libboost_program_options.so.1.72.0:_ZN5boost15program_options6detail7cmdline3runEv
libboost_program_options.so.1.72.0:_ZN5boost15program_options6detail7cmdline4initERKSt6vectorINSt7__cxx1112basic_stringIcSt11char_traitsIcESaIcEEESaIS9_EE
libboost_program_options.so.1.72.0:_ZN5boost15program_options6detail7cmdline5styleEi
libboost_program_options.so.1.72.0:_ZN5boost15program_options6detail7cmdlineC1ERKSt6vectorINSt7__cxx1112basic_stringIcSt11char_traitsIcESaIcEEESaIS9_EE
libboost_program_options.so.1.72.0:_ZN5boost15program_options6detail7cmdlineC1EiPKPKc
libboost_program_options.so.1.72.0:_ZN5boost15program_options6detail7cmdlineC2ERKSt6vectorINSt7__cxx1112basic_stringIcSt11char_traitsIcESaIcEEESaIS9_EE
libboost_program_options.so.1.72.0:_ZN5boost15program_options6detail7cmdlineC2EiPKPKc
libboost_program_options.so.1.72.0:_ZN5boost15program_options6notifyERNS0_13variables_mapE
libboost_program_options.so.1.72.0:_ZN5boost15program_options8validateERNS_3anyERKSt6vectorINSt7__cxx1112basic_stringIcSt11char_traitsIcESaIcEEESaIS9_EEPS9_i
libboost_program_options.so.1.72.0:_ZN5boost15program_options8validateERNS_3anyERKSt6vectorINSt7__cxx1112basic_stringIcSt11char_traitsIcESaIcEEESaIS9_EEPbi
libboost_program_options.so.1.72.0:_ZN5boost15program_options8validateERNS_3anyERKSt6vectorINSt7__cxx1112basic_stringIwSt11char_traitsIwESaIwEEESaIS9_EEPNS5_IcS6_IcESaIcEEEi
libboost_program_options.so.1.72.0:_ZN5boost15program_options8validateERNS_3anyERKSt6vectorINSt7__cxx1112basic_stringIwSt11char_traitsIwESaIwEEESaIS9_EEPbi
libboost_program_options.so.1.72.0:_ZN5boost15program_optionslsERSoRKNS0_19options_descriptionE
libboost_program_options.so.1.72.0:_ZN5boost16from_local_8_bitERKNSt7__cxx1112basic_stringIcSt11char_traitsIcESaIcEEE
libboost_program_options.so.1.72.0:_ZN5boost7to_utf8ERKNSt7__cxx1112basic_stringIwSt11char_traitsIwESaIwEEE
libboost_program_options.so.1.72.0:_ZN5boost8to_8_bitERKNSt7__cxx1112basic_stringIwSt11char_traitsIwESaIwEEERKSt7codecvtIwc11__mbstate_tE
libboost_program_options.so.1.72.0:_ZN5boost9from_utf8ERKNSt7__cxx1112basic_stringIcSt11char_traitsIcESaIcEEE
libboost_program_options.so.1.72.0:_ZNK5boost15program_options13untyped_value10max_tokensEv
libboost_program_options.so.1.72.0:_ZNK5boost15program_options13untyped_value10min_tokensEv
libboost_program_options.so.1.72.0:_ZNK5boost15program_options13untyped_value4nameB5cxx11Ev
libboost_program_options.so.1.72.0:_ZNK5boost15program_options13untyped_value6xparseERNS_3anyERKSt6vectorINSt7__cxx1112basic_stringIcSt11char_traitsIcESaIcEEESaISA_EE
libboost_program_options.so.1.72.0:_ZNK5boost15program_options13variables_map3getERKNSt7__cxx1112basic_stringIcSt11char_traitsIcESaIcEEE
libboost_program_options.so.1.72.0:_ZNK5boost15program_options16ambiguous_option23substitute_placeholdersERKNSt7__cxx1112basic_stringIcSt11char_traitsIcESaIcEEE
libboost_program_options.so.1.72.0:_ZNK5boost15program_options18option_description10long_namesB5cxx11Ev
libboost_program_options.so.1.72.0:_ZNK5boost15program_options18option_description11descriptionB5cxx11Ev
libboost_program_options.so.1.72.0:_ZNK5boost15program_options18option_description11format_nameB5cxx11Ev
libboost_program_options.so.1.72.0:_ZNK5boost15program_options18option_description16format_parameterB5cxx11Ev
libboost_program_options.so.1.72.0:_ZNK5boost15program_options18option_description22canonical_display_nameB5cxx11Ei
libboost_program_options.so.1.72.0:_ZNK5boost15program_options18option_description3keyERKNSt7__cxx1112basic_stringIcSt11char_traitsIcESaIcEEE
libboost_program_options.so.1.72.0:_ZNK5boost15program_options18option_description5matchERKNSt7__cxx1112basic_stringIcSt11char_traitsIcESaIcEEEbbb
libboost_program_options.so.1.72.0:_ZNK5boost15program_options18option_description8semanticEv
libboost_program_options.so.1.72.0:_ZNK5boost15program_options18option_description9long_nameB5cxx11Ev
libboost_program_options.so.1.72.0:_ZNK5boost15program_options19options_description12find_nothrowERKNSt7__cxx1112basic_stringIcSt11char_traitsIcESaIcEEEbbb
libboost_program_options.so.1.72.0:_ZNK5boost15program_options19options_description23get_option_column_widthEv
libboost_program_options.so.1.72.0:_ZNK5boost15program_options19options_description4findERKNSt7__cxx1112basic_stringIcSt11char_traitsIcESaIcEEEbbb
libboost_program_options.so.1.72.0:_ZNK5boost15program_options19options_description5printERSoj
libboost_program_options.so.1.72.0:_ZNK5boost15program_options19options_description7optionsEv
libboost_program_options.so.1.72.0:_ZNK5boost15program_options22abstract_variables_mapixERKNSt7__cxx1112basic_stringIcSt11char_traitsIcESaIcEEE
libboost_program_options.so.1.72.0:_ZNK5boost15program_options22error_with_option_name13replace_tokenERKNSt7__cxx1112basic_stringIcSt11char_traitsIcESaIcEEES9_
libboost_program_options.so.1.72.0:_ZNK5boost15program_options22error_with_option_name23substitute_placeholdersERKNSt7__cxx1112basic_stringIcSt11char_traitsIcESaIcEEE
libboost_program_options.so.1.72.0:_ZNK5boost15program_options22error_with_option_name25get_canonical_option_nameB5cxx11Ev
libboost_program_options.so.1.72.0:_ZNK5boost15program_options22error_with_option_name27get_canonical_option_prefixB5cxx11Ev
libboost_program_options.so.1.72.0:_ZNK5boost15program_options22error_with_option_name4whatEv
libboost_program_options.so.1.72.0:_ZNK5boost15program_options29value_semantic_codecvt_helperIcE5parseERNS_3anyERKSt6vectorINSt7__cxx1112basic_stringIcSt11char_traitsIcESaIcEEESaISB_EEb
libboost_program_options.so.1.72.0:_ZNK5boost15program_options29value_semantic_codecvt_helperIwE5parseERNS_3anyERKSt6vectorINSt7__cxx1112basic_stringIcSt11char_traitsIcESaIcEEESaISB_EEb
libboost_program_options.so.1.72.0:_ZNK5boost15program_options30positional_options_description15max_total_countEv
libboost_program_options.so.1.72.0:_ZNK5boost15program_options30positional_options_description17name_for_positionB5cxx11Ej
libboost_program_options.so.1.72.0:_ZNK5boost15program_options6detail18utf8_codecvt_facet24get_cont_octet_out_countEw
libboost_program_options.so.1.72.0:_ZNK5boost15program_options6detail18utf8_codecvt_facet5do_inER11__mbstate_tPKcS6_RS6_PwS8_RS8_
libboost_program_options.so.1.72.0:_ZNK5boost15program_options6detail18utf8_codecvt_facet6do_outER11__mbstate_tPKwS6_RS6_PcS8_RS8_
libboost_program_options.so.1.72.0:_ZNK5boost15program_options6detail18utf8_codecvt_facet9do_lengthER11__mbstate_tPKcS6_m
libboost_program_options.so.1.72.0:_ZNK5boost15program_options6detail27common_config_file_iterator14allowed_optionERKNSt7__cxx1112basic_stringIcSt11char_traitsIcESaIcEEE
libboost_program_options.so.1.72.0:_ZNK5boost15program_options6detail7cmdline11check_styleEi
libboost_program_options.so.1.72.0:_ZNK5boost15program_options6detail7cmdline15is_style_activeENS0_18command_line_style7style_tE
libboost_python27.so.1.72.0:_ZN5boost6python12pytype_checkEP11_typeobjectP7_object
libboost_python27.so.1.72.0:_ZN5boost6python14exec_statementENS0_3strENS0_3api6objectES3_
libboost_python27.so.1.72.0:_ZN5boost6python14exec_statementEPKcNS0_3api6objectES4_
libboost_python27.so.1.72.0:_ZN5boost6python15instance_holder10deallocateEP7_objectPv
libboost_python27.so.1.72.0:_ZN5boost6python15instance_holder7installEP7_object
libboost_python27.so.1.72.0:_ZN5boost6python15instance_holder8allocateEP7_objectmm
libboost_python27.so.1.72.0:_ZN5boost6python15instance_holderC1Ev
libboost_python27.so.1.72.0:_ZN5boost6python15instance_holderC2Ev
libboost_python27.so.1.72.0:_ZN5boost6python15instance_holderD0Ev
libboost_python27.so.1.72.0:_ZN5boost6python15instance_holderD1Ev
libboost_python27.so.1.72.0:_ZN5boost6python15instance_holderD2Ev
libboost_python27.so.1.72.0:_ZN5boost6python17docstring_options18show_user_defined_E
libboost_python27.so.1.72.0:_ZN5boost6python17docstring_options19show_py_signatures_E
libboost_python27.so.1.72.0:_ZN5boost6python17docstring_options20show_cpp_signatures_E
libboost_python27.so.1.72.0:_ZN5boost6python17error_already_setD0Ev
libboost_python27.so.1.72.0:_ZN5boost6python17error_already_setD1Ev
libboost_python27.so.1.72.0:_ZN5boost6python17error_already_setD2Ev
libboost_python27.so.1.72.0:_ZN5boost6python21handle_exception_implENS_9function0IvEE
libboost_python27.so.1.72.0:_ZN5boost6python23throw_error_already_setEv
libboost_python27.so.1.72.0:_ZN5boost6python3api6objectC1ERKNS0_6handleI7_objectEE
libboost_python27.so.1.72.0:_ZN5boost6python3api6objectC2ERKNS0_6handleI7_objectEE
libboost_python27.so.1.72.0:_ZN5boost6python3api7delattrERKNS1_6objectEPKc
libboost_python27.so.1.72.0:_ZN5boost6python3api7delattrERKNS1_6objectES4_
libboost_python27.so.1.72.0:_ZN5boost6python3api7delitemERKNS1_6objectES4_
libboost_python27.so.1.72.0:_ZN5boost6python3api7getattrERKNS1_6objectEPKc
libboost_python27.so.1.72.0:_ZN5boost6python3api7getattrERKNS1_6objectEPKcS4_
libboost_python27.so.1.72.0:_ZN5boost6python3api7getattrERKNS1_6objectES4_
libboost_python27.so.1.72.0:_ZN5boost6python3api7getattrERKNS1_6objectES4_S4_
libboost_python27.so.1.72.0:_ZN5boost6python3api7getitemERKNS1_6objectES4_
libboost_python27.so.1.72.0:_ZN5boost6python3api7setattrERKNS1_6objectEPKcS4_
libboost_python27.so.1.72.0:_ZN5boost6python3api7setattrERKNS1_6objectES4_S4_
libboost_python27.so.1.72.0:_ZN5boost6python3api7setitemERKNS1_6objectES4_S4_
libboost_python27.so.1.72.0:_ZN5boost6python3api8delsliceERKNS1_6objectERKNS0_6handleI7_objectEES9_
libboost_python27.so.1.72.0:_ZN5boost6python3api8getsliceERKNS1_6objectERKNS0_6handleI7_objectEES9_
libboost_python27.so.1.72.0:_ZN5boost6python3api8setsliceERKNS1_6objectERKNS0_6handleI7_objectEES9_S4_
libboost_python27.so.1.72.0:_ZN5boost6python3apiaNERNS1_6objectERKS2_
libboost_python27.so.1.72.0:_ZN5boost6python3apianERKNS1_6objectES4_
libboost_python27.so.1.72.0:_ZN5boost6python3apidVERNS1_6objectERKS2_
libboost_python27.so.1.72.0:_ZN5boost6python3apidvERKNS1_6objectES4_
libboost_python27.so.1.72.0:_ZN5boost6python3apieOERNS1_6objectERKS2_
libboost_python27.so.1.72.0:_ZN5boost6python3apieoERKNS1_6objectES4_
libboost_python27.so.1.72.0:_ZN5boost6python3apieqERKNS1_6objectES4_
libboost_python27.so.1.72.0:_ZN5boost6python3apigeERKNS1_6objectES4_
libboost_python27.so.1.72.0:_ZN5boost6python3apigtERKNS1_6objectES4_
libboost_python27.so.1.72.0:_ZN5boost6python3apilSERNS1_6objectERKS2_
libboost_python27.so.1.72.0:_ZN5boost6python3apileERKNS1_6objectES4_
libboost_python27.so.1.72.0:_ZN5boost6python3apilsERKNS1_6objectES4_
libboost_python27.so.1.72.0:_ZN5boost6python3apiltERKNS1_6objectES4_
libboost_python27.so.1.72.0:_ZN5boost6python3apimIERNS1_6objectERKS2_
libboost_python27.so.1.72.0:_ZN5boost6python3apimLERNS1_6objectERKS2_
libboost_python27.so.1.72.0:_ZN5boost6python3apimiERKNS1_6objectES4_
libboost_python27.so.1.72.0:_ZN5boost6python3apimlERKNS1_6objectES4_
libboost_python27.so.1.72.0:_ZN5boost6python3apineERKNS1_6objectES4_
libboost_python27.so.1.72.0:_ZN5boost6python3apioRERNS1_6objectERKS2_
libboost_python27.so.1.72.0:_ZN5boost6python3apiorERKNS1_6objectES4_
libboost_python27.so.1.72.0:_ZN5boost6python3apipLERNS1_6objectERKS2_
libboost_python27.so.1.72.0:_ZN5boost6python3apiplERKNS1_6objectES4_
libboost_python27.so.1.72.0:_ZN5boost6python3apirMERNS1_6objectERKS2_
libboost_python27.so.1.72.0:_ZN5boost6python3apirSERNS1_6objectERKS2_
libboost_python27.so.1.72.0:_ZN5boost6python3apirmERKNS1_6objectES4_
libboost_python27.so.1.72.0:_ZN5boost6python3apirsERKNS1_6objectES4_
libboost_python27.so.1.72.0:_ZN5boost6python4evalENS0_3strENS0_3api6objectES3_
libboost_python27.so.1.72.0:_ZN5boost6python4evalEPKcNS0_3api6objectES4_
libboost_python27.so.1.72.0:_ZN5boost6python4execENS0_3strENS0_3api6objectES3_
libboost_python27.so.1.72.0:_ZN5boost6python4execEPKcNS0_3api6objectES4_
libboost_python27.so.1.72.0:_ZN5boost6python6detail10slice_baseC1EP7_objectS4_S4_
libboost_python27.so.1.72.0:_ZN5boost6python6detail10slice_baseC2EP7_objectS4_S4_
libboost_python27.so.1.72.0:_ZN5boost6python6detail10tuple_base4callERKNS0_3api6objectE
libboost_python27.so.1.72.0:_ZN5boost6python6detail10tuple_baseC1ERKNS0_3api6objectE
libboost_python27.so.1.72.0:_ZN5boost6python6detail10tuple_baseC1Ev
libboost_python27.so.1.72.0:_ZN5boost6python6detail10tuple_baseC2ERKNS0_3api6objectE
libboost_python27.so.1.72.0:_ZN5boost6python6detail10tuple_baseC2Ev
libboost_python27.so.1.72.0:_ZN5boost6python6detail11init_moduleEPKcPFvvE
libboost_python27.so.1.72.0:_ZN5boost6python6detail12gcc_demangleEPKc
libboost_python27.so.1.72.0:_ZN5boost6python6detail13current_scopeE
libboost_python27.so.1.72.0:_ZN5boost6python6detail17exception_handler4tailE
libboost_python27.so.1.72.0:_ZN5boost6python6detail17exception_handler5chainE
libboost_python27.so.1.72.0:_ZN5boost6python6detail17exception_handlerC1ERKNS_9function2IbRKS2_RKNS_9function0IvEEEE
libboost_python27.so.1.72.0:_ZN5boost6python6detail17exception_handlerC2ERKNS_9function2IbRKS2_RKNS_9function0IvEEEE
libboost_python27.so.1.72.0:_ZN5boost6python6detail17make_raw_functionENS0_7objects11py_functionE
libboost_python27.so.1.72.0:_ZN5boost6python6detail17scope_setattr_docEPKcRKNS0_3api6objectES3_
libboost_python27.so.1.72.0:_ZN5boost6python6detail19pure_virtual_calledEv
libboost_python27.so.1.72.0:_ZN5boost6python6detail26register_exception_handlerERKNS_9function2IbRKNS1_17exception_handlerERKNS_9function0IvEEEE
libboost_python27.so.1.72.0:_ZN5boost6python6detail8str_base4callERKNS0_3api6objectE
libboost_python27.so.1.72.0:_ZN5boost6python6detail8str_baseC1EPKc
libboost_python27.so.1.72.0:_ZN5boost6python6detail8str_baseC1EPKcS4_
libboost_python27.so.1.72.0:_ZN5boost6python6detail8str_baseC1EPKcm
libboost_python27.so.1.72.0:_ZN5boost6python6detail8str_baseC1ERKNS0_3api6objectE
libboost_python27.so.1.72.0:_ZN5boost6python6detail8str_baseC1Ev
libboost_python27.so.1.72.0:_ZN5boost6python6detail8str_baseC2EPKc
libboost_python27.so.1.72.0:_ZN5boost6python6detail8str_baseC2EPKcS4_
libboost_python27.so.1.72.0:_ZN5boost6python6detail8str_baseC2EPKcm
libboost_python27.so.1.72.0:_ZN5boost6python6detail8str_baseC2ERKNS0_3api6objectE
libboost_python27.so.1.72.0:_ZN5boost6python6detail8str_baseC2Ev
libboost_python27.so.1.72.0:_ZN5boost6python6detail9dict_base10setdefaultERKNS0_3api6objectE
libboost_python27.so.1.72.0:_ZN5boost6python6detail9dict_base10setdefaultERKNS0_3api6objectES6_
libboost_python27.so.1.72.0:_ZN5boost6python6detail9dict_base4callERKNS0_3api6objectE
libboost_python27.so.1.72.0:_ZN5boost6python6detail9dict_base4copyEv
libboost_python27.so.1.72.0:_ZN5boost6python6detail9dict_base5clearEv
libboost_python27.so.1.72.0:_ZN5boost6python6detail9dict_base6updateERKNS0_3api6objectE
libboost_python27.so.1.72.0:_ZN5boost6python6detail9dict_base7popitemEv
libboost_python27.so.1.72.0:_ZN5boost6python6detail9dict_baseC1ERKNS0_3api6objectE
libboost_python27.so.1.72.0:_ZN5boost6python6detail9dict_baseC1Ev
libboost_python27.so.1.72.0:_ZN5boost6python6detail9dict_baseC2ERKNS0_3api6objectE
libboost_python27.so.1.72.0:_ZN5boost6python6detail9dict_baseC2Ev
libboost_python27.so.1.72.0:_ZN5boost6python6detail9list_base3popERKNS0_3api6objectE
libboost_python27.so.1.72.0:_ZN5boost6python6detail9list_base3popEl
libboost_python27.so.1.72.0:_ZN5boost6python6detail9list_base3popEv
libboost_python27.so.1.72.0:_ZN5boost6python6detail9list_base4callERKNS0_3api6objectE
libboost_python27.so.1.72.0:_ZN5boost6python6detail9list_base4sortERKNS0_3api6objectE
libboost_python27.so.1.72.0:_ZN5boost6python6detail9list_base4sortEv
libboost_python27.so.1.72.0:_ZN5boost6python6detail9list_base6appendERKNS0_3api6objectE
libboost_python27.so.1.72.0:_ZN5boost6python6detail9list_base6extendERKNS0_3api6objectE
libboost_python27.so.1.72.0:_ZN5boost6python6detail9list_base6insertERKNS0_3api6objectES6_
libboost_python27.so.1.72.0:_ZN5boost6python6detail9list_base6insertElRKNS0_3api6objectE
libboost_python27.so.1.72.0:_ZN5boost6python6detail9list_base6removeERKNS0_3api6objectE
libboost_python27.so.1.72.0:_ZN5boost6python6detail9list_base7reverseEv
libboost_python27.so.1.72.0:_ZN5boost6python6detail9list_baseC1ERKNS0_3api6objectE
libboost_python27.so.1.72.0:_ZN5boost6python6detail9list_baseC1Ev
libboost_python27.so.1.72.0:_ZN5boost6python6detail9list_baseC2ERKNS0_3api6objectE
libboost_python27.so.1.72.0:_ZN5boost6python6detail9list_baseC2Ev
libboost_python27.so.1.72.0:_ZN5boost6python6detail9long_base4callERKNS0_3api6objectE
libboost_python27.so.1.72.0:_ZN5boost6python6detail9long_base4callERKNS0_3api6objectES6_
libboost_python27.so.1.72.0:_ZN5boost6python6detail9long_baseC1ERKNS0_3api6objectE
libboost_python27.so.1.72.0:_ZN5boost6python6detail9long_baseC1ERKNS0_3api6objectES6_
libboost_python27.so.1.72.0:_ZN5boost6python6detail9long_baseC1Ev
libboost_python27.so.1.72.0:_ZN5boost6python6detail9long_baseC2ERKNS0_3api6objectE
libboost_python27.so.1.72.0:_ZN5boost6python6detail9long_baseC2ERKNS0_3api6objectES6_
libboost_python27.so.1.72.0:_ZN5boost6python6detail9long_baseC2Ev
libboost_python27.so.1.72.0:_ZN5boost6python6detaillsERSoRKNS1_19decorated_type_infoE
libboost_python27.so.1.72.0:_ZN5boost6python6importENS0_3strE
libboost_python27.so.1.72.0:_ZN5boost6python7objects10class_base11def_no_initEv
libboost_python27.so.1.72.0:_ZN5boost6python7objects10class_base12add_propertyEPKcRKNS0_3api6objectES4_
libboost_python27.so.1.72.0:_ZN5boost6python7objects10class_base12add_propertyEPKcRKNS0_3api6objectES8_S4_
libboost_python27.so.1.72.0:_ZN5boost6python7objects10class_base16enable_pickling_Eb
libboost_python27.so.1.72.0:_ZN5boost6python7objects10class_base17set_instance_sizeEm
libboost_python27.so.1.72.0:_ZN5boost6python7objects10class_base18make_method_staticEPKc
libboost_python27.so.1.72.0:_ZN5boost6python7objects10class_base19add_static_propertyEPKcRKNS0_3api6objectE
libboost_python27.so.1.72.0:_ZN5boost6python7objects10class_base19add_static_propertyEPKcRKNS0_3api6objectES8_
libboost_python27.so.1.72.0:_ZN5boost6python7objects10class_base7setattrEPKcRKNS0_3api6objectE
libboost_python27.so.1.72.0:_ZN5boost6python7objects10class_baseC1EPKcmPKNS0_9type_infoES4_
libboost_python27.so.1.72.0:_ZN5boost6python7objects10class_baseC2EPKcmPKNS0_9type_infoES4_
libboost_python27.so.1.72.0:_ZN5boost6python7objects10class_typeEv
libboost_python27.so.1.72.0:_ZN5boost6python7objects11static_dataEv
libboost_python27.so.1.72.0:_ZN5boost6python7objects14class_metatypeEv
libboost_python27.so.1.72.0:_ZN5boost6python7objects15function_objectERKNS1_11py_functionE
libboost_python27.so.1.72.0:_ZN5boost6python7objects15function_objectERKNS1_11py_functionERKSt4pairIPKNS0_6detail7keywordES9_E
libboost_python27.so.1.72.0:_ZN5boost6python7objects16add_to_namespaceERKNS0_3api6objectEPKcS5_
libboost_python27.so.1.72.0:_ZN5boost6python7objects16add_to_namespaceERKNS0_3api6objectEPKcS5_S7_
libboost_python27.so.1.72.0:_ZN5boost6python7objects16find_static_typeEPvNS0_9type_infoES3_
libboost_python27.so.1.72.0:_ZN5boost6python7objects17copy_class_objectERKNS0_9type_infoES4_
libboost_python27.so.1.72.0:_ZN5boost6python7objects17find_dynamic_typeEPvNS0_9type_infoES3_
libboost_python27.so.1.72.0:_ZN5boost6python7objects17identity_functionEv
libboost_python27.so.1.72.0:_ZN5boost6python7objects18find_instance_implEP7_objectNS0_9type_infoEb
libboost_python27.so.1.72.0:_ZN5boost6python7objects20function_handle_implERKNS1_11py_functionE
libboost_python27.so.1.72.0:_ZN5boost6python7objects20stop_iteration_errorEv
libboost_python27.so.1.72.0:_ZN5boost6python7objects21py_function_impl_baseD0Ev
libboost_python27.so.1.72.0:_ZN5boost6python7objects21py_function_impl_baseD1Ev
libboost_python27.so.1.72.0:_ZN5boost6python7objects21py_function_impl_baseD2Ev
libboost_python27.so.1.72.0:_ZN5boost6python7objects22make_nurse_and_patientEP7_objectS3_
libboost_python27.so.1.72.0:_ZN5boost6python7objects23register_dynamic_id_auxENS0_9type_infoEPFSt4pairIPvS2_ES4_E
libboost_python27.so.1.72.0:_ZN5boost6python7objects23registered_class_objectENS0_9type_infoE
libboost_python27.so.1.72.0:_ZN5boost6python7objects23stl_input_iterator_impl9incrementEv
libboost_python27.so.1.72.0:_ZN5boost6python7objects23stl_input_iterator_implC1ERKNS0_3api6objectE
libboost_python27.so.1.72.0:_ZN5boost6python7objects23stl_input_iterator_implC1Ev
libboost_python27.so.1.72.0:_ZN5boost6python7objects23stl_input_iterator_implC2ERKNS0_3api6objectE
libboost_python27.so.1.72.0:_ZN5boost6python7objects23stl_input_iterator_implC2Ev
libboost_python27.so.1.72.0:_ZN5boost6python7objects8add_castENS0_9type_infoES2_PFPvS3_Eb
libboost_python27.so.1.72.0:_ZN5boost6python7objects8function12add_overloadERKNS0_6handleIS2_EE
libboost_python27.so.1.72.0:_ZN5boost6python7objects8function16add_to_namespaceERKNS0_3api6objectEPKcS6_
libboost_python27.so.1.72.0:_ZN5boost6python7objects8function16add_to_namespaceERKNS0_3api6objectEPKcS6_S8_
libboost_python27.so.1.72.0:_ZN5boost6python7objects8functionC1ERKNS1_11py_functionEPKNS0_6detail7keywordEj
libboost_python27.so.1.72.0:_ZN5boost6python7objects8functionC2ERKNS1_11py_functionEPKNS0_6detail7keywordEj
libboost_python27.so.1.72.0:_ZN5boost6python7objects8functionD1Ev
libboost_python27.so.1.72.0:_ZN5boost6python7objects8functionD2Ev
libboost_python27.so.1.72.0:_ZN5boost6python7objects9enum_base13export_valuesEv
libboost_python27.so.1.72.0:_ZN5boost6python7objects9enum_base9add_valueEPKcl
libboost_python27.so.1.72.0:_ZN5boost6python7objects9enum_base9to_pythonEP11_typeobjectl
libboost_python27.so.1.72.0:_ZN5boost6python7objects9enum_baseC1EPKcPFP7_objectPKvEPFPvS6_EPFvS6_PNS0_9converter30rvalue_from_python_stage1_dataEENS0_9type_infoES4_
libboost_python27.so.1.72.0:_ZN5boost6python7objects9enum_baseC2EPKcPFP7_objectPKvEPFPvS6_EPFvS6_PNS0_9converter30rvalue_from_python_stage1_dataEENS0_9type_infoES4_
libboost_python27.so.1.72.0:_ZN5boost6python7self_ns4selfE
libboost_python27.so.1.72.0:_ZN5boost6python9converter12registrationD1Ev
libboost_python27.so.1.72.0:_ZN5boost6python9converter12registrationD2Ev
libboost_python27.so.1.72.0:_ZN5boost6python9converter16do_arg_to_pythonEP7_object
libboost_python27.so.1.72.0:_ZN5boost6python9converter18shared_ptr_deleterC1ENS0_6handleI7_objectEE
libboost_python27.so.1.72.0:_ZN5boost6python9converter18shared_ptr_deleterC2ENS0_6handleI7_objectEE
libboost_python27.so.1.72.0:_ZN5boost6python9converter18shared_ptr_deleterD1Ev
libboost_python27.so.1.72.0:_ZN5boost6python9converter18shared_ptr_deleterD2Ev
libboost_python27.so.1.72.0:_ZN5boost6python9converter18shared_ptr_deleterclEPKv
libboost_python27.so.1.72.0:_ZN5boost6python9converter19do_return_to_pythonEP7_object
libboost_python27.so.1.72.0:_ZN5boost6python9converter19do_return_to_pythonEPKc
libboost_python27.so.1.72.0:_ZN5boost6python9converter19do_return_to_pythonEc
libboost_python27.so.1.72.0:_ZN5boost6python9converter22get_lvalue_from_pythonEP7_objectRKNS1_12registrationE
libboost_python27.so.1.72.0:_ZN5boost6python9converter23void_result_from_pythonEP7_object
libboost_python27.so.1.72.0:_ZN5boost6python9converter25rvalue_from_python_stage1EP7_objectRKNS1_12registrationE
libboost_python27.so.1.72.0:_ZN5boost6python9converter25rvalue_from_python_stage2EP7_objectRNS1_30rvalue_from_python_stage1_dataERKNS1_12registrationE
libboost_python27.so.1.72.0:_ZN5boost6python9converter25rvalue_result_from_pythonEP7_objectRNS1_30rvalue_from_python_stage1_dataE
libboost_python27.so.1.72.0:_ZN5boost6python9converter26pointer_result_from_pythonEP7_objectRKNS1_12registrationE
libboost_python27.so.1.72.0:_ZN5boost6python9converter28reference_result_from_pythonEP7_objectRKNS1_12registrationE
libboost_python27.so.1.72.0:_ZN5boost6python9converter28throw_no_pointer_from_pythonEP7_objectRKNS1_12registrationE
libboost_python27.so.1.72.0:_ZN5boost6python9converter30throw_no_reference_from_pythonEP7_objectRKNS1_12registrationE
libboost_python27.so.1.72.0:_ZN5boost6python9converter39implicit_rvalue_convertible_from_pythonEP7_objectRKNS1_12registrationE
libboost_python27.so.1.72.0:_ZN5boost6python9converter6detail18arg_to_python_baseC1EPVKvRKNS1_12registrationE
libboost_python27.so.1.72.0:_ZN5boost6python9converter6detail18arg_to_python_baseC2EPVKvRKNS1_12registrationE
libboost_python27.so.1.72.0:_ZN5boost6python9converter8registry17lookup_shared_ptrENS0_9type_infoE
libboost_python27.so.1.72.0:_ZN5boost6python9converter8registry5queryENS0_9type_infoE
libboost_python27.so.1.72.0:_ZN5boost6python9converter8registry6insertEPFP7_objectPKvENS0_9type_infoEPFPK11_typeobjectvE
libboost_python27.so.1.72.0:_ZN5boost6python9converter8registry6insertEPFPvP7_objectENS0_9type_infoEPFPK11_typeobjectvE
libboost_python27.so.1.72.0:_ZN5boost6python9converter8registry6insertEPFPvP7_objectEPFvS5_PNS1_30rvalue_from_python_stage1_dataEENS0_9type_infoEPFPK11_typeobjectvE
libboost_python27.so.1.72.0:_ZN5boost6python9converter8registry6lookupENS0_9type_infoE
libboost_python27.so.1.72.0:_ZN5boost6python9converter8registry9push_backEPFPvP7_objectEPFvS5_PNS1_30rvalue_from_python_stage1_dataEENS0_9type_infoEPFPK11_typeobjectvE
libboost_python27.so.1.72.0:_ZN5boost6python9exec_fileENS0_3strENS0_3api6objectES3_
libboost_python27.so.1.72.0:_ZN5boost6python9exec_fileEPKcNS0_3api6objectES4_
libboost_python27.so.1.72.0:_ZN5boost6pythonlsERSoRKNS0_9type_infoE
libboost_python27.so.1.72.0:_ZNK5boost6python6detail10slice_base4stepEv
libboost_python27.so.1.72.0:_ZNK5boost6python6detail10slice_base4stopEv
libboost_python27.so.1.72.0:_ZNK5boost6python6detail10slice_base5startEv
libboost_python27.so.1.72.0:_ZNK5boost6python6detail12wrapper_base12get_overrideEPKcP11_typeobject
libboost_python27.so.1.72.0:_ZNK5boost6python6detail17exception_handlerclERKNS_9function0IvEE
libboost_python27.so.1.72.0:_ZNK5boost6python6detail8str_base10capitalizeEv
libboost_python27.so.1.72.0:_ZNK5boost6python6detail8str_base10expandtabsERKNS0_3api6objectE
libboost_python27.so.1.72.0:_ZNK5boost6python6detail8str_base10expandtabsEv
libboost_python27.so.1.72.0:_ZNK5boost6python6detail8str_base10splitlinesERKNS0_3api6objectE
libboost_python27.so.1.72.0:_ZNK5boost6python6detail8str_base10splitlinesEv
libboost_python27.so.1.72.0:_ZNK5boost6python6detail8str_base10startswithERKNS0_3api6objectE
libboost_python27.so.1.72.0:_ZNK5boost6python6detail8str_base10startswithERKNS0_3api6objectES6_
libboost_python27.so.1.72.0:_ZNK5boost6python6detail8str_base10startswithERKNS0_3api6objectES6_S6_
libboost_python27.so.1.72.0:_ZNK5boost6python6detail8str_base4findERKNS0_3api6objectE
libboost_python27.so.1.72.0:_ZNK5boost6python6detail8str_base4findERKNS0_3api6objectES6_
libboost_python27.so.1.72.0:_ZNK5boost6python6detail8str_base4findERKNS0_3api6objectES6_S6_
libboost_python27.so.1.72.0:_ZNK5boost6python6detail8str_base4joinERKNS0_3api6objectE
libboost_python27.so.1.72.0:_ZNK5boost6python6detail8str_base5countERKNS0_3api6objectE
libboost_python27.so.1.72.0:_ZNK5boost6python6detail8str_base5countERKNS0_3api6objectES6_
libboost_python27.so.1.72.0:_ZNK5boost6python6detail8str_base5countERKNS0_3api6objectES6_S6_
libboost_python27.so.1.72.0:_ZNK5boost6python6detail8str_base5indexERKNS0_3api6objectE
libboost_python27.so.1.72.0:_ZNK5boost6python6detail8str_base5indexERKNS0_3api6objectES6_
libboost_python27.so.1.72.0:_ZNK5boost6python6detail8str_base5indexERKNS0_3api6objectES6_S6_
libboost_python27.so.1.72.0:_ZNK5boost6python6detail8str_base5ljustERKNS0_3api6objectE
libboost_python27.so.1.72.0:_ZNK5boost6python6detail8str_base5lowerEv
libboost_python27.so.1.72.0:_ZNK5boost6python6detail8str_base5rfindERKNS0_3api6objectE
libboost_python27.so.1.72.0:_ZNK5boost6python6detail8str_base5rfindERKNS0_3api6objectES6_
libboost_python27.so.1.72.0:_ZNK5boost6python6detail8str_base5rfindERKNS0_3api6objectES6_S6_
libboost_python27.so.1.72.0:_ZNK5boost6python6detail8str_base5rjustERKNS0_3api6objectE
libboost_python27.so.1.72.0:_ZNK5boost6python6detail8str_base5splitERKNS0_3api6objectE
libboost_python27.so.1.72.0:_ZNK5boost6python6detail8str_base5splitERKNS0_3api6objectES6_
libboost_python27.so.1.72.0:_ZNK5boost6python6detail8str_base5splitEv
libboost_python27.so.1.72.0:_ZNK5boost6python6detail8str_base5stripEv
libboost_python27.so.1.72.0:_ZNK5boost6python6detail8str_base5titleEv
libboost_python27.so.1.72.0:_ZNK5boost6python6detail8str_base5upperEv
libboost_python27.so.1.72.0:_ZNK5boost6python6detail8str_base6centerERKNS0_3api6objectE
libboost_python27.so.1.72.0:_ZNK5boost6python6detail8str_base6decodeERKNS0_3api6objectE
libboost_python27.so.1.72.0:_ZNK5boost6python6detail8str_base6decodeERKNS0_3api6objectES6_
libboost_python27.so.1.72.0:_ZNK5boost6python6detail8str_base6decodeEv
libboost_python27.so.1.72.0:_ZNK5boost6python6detail8str_base6encodeERKNS0_3api6objectE
libboost_python27.so.1.72.0:_ZNK5boost6python6detail8str_base6encodeERKNS0_3api6objectES6_
libboost_python27.so.1.72.0:_ZNK5boost6python6detail8str_base6encodeEv
libboost_python27.so.1.72.0:_ZNK5boost6python6detail8str_base6lstripEv
libboost_python27.so.1.72.0:_ZNK5boost6python6detail8str_base6rindexERKNS0_3api6objectE
libboost_python27.so.1.72.0:_ZNK5boost6python6detail8str_base6rindexERKNS0_3api6objectES6_
libboost_python27.so.1.72.0:_ZNK5boost6python6detail8str_base6rindexERKNS0_3api6objectES6_S6_
libboost_python27.so.1.72.0:_ZNK5boost6python6detail8str_base6rstripEv
libboost_python27.so.1.72.0:_ZNK5boost6python6detail8str_base7isalnumEv
libboost_python27.so.1.72.0:_ZNK5boost6python6detail8str_base7isalphaEv
libboost_python27.so.1.72.0:_ZNK5boost6python6detail8str_base7isdigitEv
libboost_python27.so.1.72.0:_ZNK5boost6python6detail8str_base7islowerEv
libboost_python27.so.1.72.0:_ZNK5boost6python6detail8str_base7isspaceEv
libboost_python27.so.1.72.0:_ZNK5boost6python6detail8str_base7istitleEv
libboost_python27.so.1.72.0:_ZNK5boost6python6detail8str_base7isupperEv
libboost_python27.so.1.72.0:_ZNK5boost6python6detail8str_base7replaceERKNS0_3api6objectES6_
libboost_python27.so.1.72.0:_ZNK5boost6python6detail8str_base7replaceERKNS0_3api6objectES6_S6_
libboost_python27.so.1.72.0:_ZNK5boost6python6detail8str_base8endswithERKNS0_3api6objectE
libboost_python27.so.1.72.0:_ZNK5boost6python6detail8str_base8endswithERKNS0_3api6objectES6_
libboost_python27.so.1.72.0:_ZNK5boost6python6detail8str_base8endswithERKNS0_3api6objectES6_S6_
libboost_python27.so.1.72.0:_ZNK5boost6python6detail8str_base8swapcaseEv
libboost_python27.so.1.72.0:_ZNK5boost6python6detail8str_base9translateERKNS0_3api6objectE
libboost_python27.so.1.72.0:_ZNK5boost6python6detail8str_base9translateERKNS0_3api6objectES6_
libboost_python27.so.1.72.0:_ZNK5boost6python6detail9dict_base10itervaluesEv
libboost_python27.so.1.72.0:_ZNK5boost6python6detail9dict_base3getERKNS0_3api6objectE
libboost_python27.so.1.72.0:_ZNK5boost6python6detail9dict_base3getERKNS0_3api6objectES6_
libboost_python27.so.1.72.0:_ZNK5boost6python6detail9dict_base4keysEv
libboost_python27.so.1.72.0:_ZNK5boost6python6detail9dict_base5itemsEv
libboost_python27.so.1.72.0:_ZNK5boost6python6detail9dict_base6valuesEv
libboost_python27.so.1.72.0:_ZNK5boost6python6detail9dict_base7has_keyERKNS0_3api6objectE
libboost_python27.so.1.72.0:_ZNK5boost6python6detail9dict_base8iterkeysEv
libboost_python27.so.1.72.0:_ZNK5boost6python6detail9dict_base9iteritemsEv
libboost_python27.so.1.72.0:_ZNK5boost6python6detail9list_base5countERKNS0_3api6objectE
libboost_python27.so.1.72.0:_ZNK5boost6python6detail9list_base5indexERKNS0_3api6objectE
libboost_python27.so.1.72.0:_ZNK5boost6python7objects21py_function_impl_base9max_arityEv
libboost_python27.so.1.72.0:_ZNK5boost6python7objects23stl_input_iterator_impl5equalERKS2_
libboost_python27.so.1.72.0:_ZNK5boost6python7objects23stl_input_iterator_impl7currentEv
libboost_python27.so.1.72.0:_ZNK5boost6python7objects8function10signaturesEb
libboost_python27.so.1.72.0:_ZNK5boost6python7objects8function14argument_errorEP7_objectS4_
libboost_python27.so.1.72.0:_ZNK5boost6python7objects8function4callEP7_objectS4_
libboost_python27.so.1.72.0:_ZNK5boost6python7objects8function9signatureEb
libboost_python27.so.1.72.0:_ZNK5boost6python9converter12registration16get_class_objectEv
libboost_python27.so.1.72.0:_ZNK5boost6python9converter12registration21to_python_target_typeEv
libboost_python27.so.1.72.0:_ZNK5boost6python9converter12registration25expected_from_python_typeEv
libboost_python27.so.1.72.0:_ZNK5boost6python9converter12registration9to_pythonEPVKv
libboost_python39.so.1.72.0:_ZN5boost6python12pytype_checkEP11_typeobjectP7_object
libboost_python39.so.1.72.0:_ZN5boost6python14exec_statementENS0_3strENS0_3api6objectES3_
libboost_python39.so.1.72.0:_ZN5boost6python14exec_statementEPKcNS0_3api6objectES4_
libboost_python39.so.1.72.0:_ZN5boost6python15instance_holder10deallocateEP7_objectPv
libboost_python39.so.1.72.0:_ZN5boost6python15instance_holder7installEP7_object
libboost_python39.so.1.72.0:_ZN5boost6python15instance_holder8allocateEP7_objectmm
libboost_python39.so.1.72.0:_ZN5boost6python15instance_holderC1Ev
libboost_python39.so.1.72.0:_ZN5boost6python15instance_holderC2Ev
libboost_python39.so.1.72.0:_ZN5boost6python15instance_holderD0Ev
libboost_python39.so.1.72.0:_ZN5boost6python15instance_holderD1Ev
libboost_python39.so.1.72.0:_ZN5boost6python15instance_holderD2Ev
libboost_python39.so.1.72.0:_ZN5boost6python17docstring_options18show_user_defined_E
libboost_python39.so.1.72.0:_ZN5boost6python17docstring_options19show_py_signatures_E
libboost_python39.so.1.72.0:_ZN5boost6python17docstring_options20show_cpp_signatures_E
libboost_python39.so.1.72.0:_ZN5boost6python17error_already_setD0Ev
libboost_python39.so.1.72.0:_ZN5boost6python17error_already_setD1Ev
libboost_python39.so.1.72.0:_ZN5boost6python17error_already_setD2Ev
libboost_python39.so.1.72.0:_ZN5boost6python21handle_exception_implENS_9function0IvEE
libboost_python39.so.1.72.0:_ZN5boost6python23throw_error_already_setEv
libboost_python39.so.1.72.0:_ZN5boost6python3api6objectC1ERKNS0_6handleI7_objectEE
libboost_python39.so.1.72.0:_ZN5boost6python3api6objectC2ERKNS0_6handleI7_objectEE
libboost_python39.so.1.72.0:_ZN5boost6python3api7delattrERKNS1_6objectEPKc
libboost_python39.so.1.72.0:_ZN5boost6python3api7delattrERKNS1_6objectES4_
libboost_python39.so.1.72.0:_ZN5boost6python3api7delitemERKNS1_6objectES4_
libboost_python39.so.1.72.0:_ZN5boost6python3api7getattrERKNS1_6objectEPKc
libboost_python39.so.1.72.0:_ZN5boost6python3api7getattrERKNS1_6objectEPKcS4_
libboost_python39.so.1.72.0:_ZN5boost6python3api7getattrERKNS1_6objectES4_
libboost_python39.so.1.72.0:_ZN5boost6python3api7getattrERKNS1_6objectES4_S4_
libboost_python39.so.1.72.0:_ZN5boost6python3api7getitemERKNS1_6objectES4_
libboost_python39.so.1.72.0:_ZN5boost6python3api7setattrERKNS1_6objectEPKcS4_
libboost_python39.so.1.72.0:_ZN5boost6python3api7setattrERKNS1_6objectES4_S4_
libboost_python39.so.1.72.0:_ZN5boost6python3api7setitemERKNS1_6objectES4_S4_
libboost_python39.so.1.72.0:_ZN5boost6python3api8delsliceERKNS1_6objectERKNS0_6handleI7_objectEES9_
libboost_python39.so.1.72.0:_ZN5boost6python3api8getsliceERKNS1_6objectERKNS0_6handleI7_objectEES9_
libboost_python39.so.1.72.0:_ZN5boost6python3api8setsliceERKNS1_6objectERKNS0_6handleI7_objectEES9_S4_
libboost_python39.so.1.72.0:_ZN5boost6python3apiaNERNS1_6objectERKS2_
libboost_python39.so.1.72.0:_ZN5boost6python3apianERKNS1_6objectES4_
libboost_python39.so.1.72.0:_ZN5boost6python3apidVERNS1_6objectERKS2_
libboost_python39.so.1.72.0:_ZN5boost6python3apidvERKNS1_6objectES4_
libboost_python39.so.1.72.0:_ZN5boost6python3apieOERNS1_6objectERKS2_
libboost_python39.so.1.72.0:_ZN5boost6python3apieoERKNS1_6objectES4_
libboost_python39.so.1.72.0:_ZN5boost6python3apieqERKNS1_6objectES4_
libboost_python39.so.1.72.0:_ZN5boost6python3apigeERKNS1_6objectES4_
libboost_python39.so.1.72.0:_ZN5boost6python3apigtERKNS1_6objectES4_
libboost_python39.so.1.72.0:_ZN5boost6python3apilSERNS1_6objectERKS2_
libboost_python39.so.1.72.0:_ZN5boost6python3apileERKNS1_6objectES4_
libboost_python39.so.1.72.0:_ZN5boost6python3apilsERKNS1_6objectES4_
libboost_python39.so.1.72.0:_ZN5boost6python3apiltERKNS1_6objectES4_
libboost_python39.so.1.72.0:_ZN5boost6python3apimIERNS1_6objectERKS2_
libboost_python39.so.1.72.0:_ZN5boost6python3apimLERNS1_6objectERKS2_
libboost_python39.so.1.72.0:_ZN5boost6python3apimiERKNS1_6objectES4_
libboost_python39.so.1.72.0:_ZN5boost6python3apimlERKNS1_6objectES4_
libboost_python39.so.1.72.0:_ZN5boost6python3apineERKNS1_6objectES4_
libboost_python39.so.1.72.0:_ZN5boost6python3apioRERNS1_6objectERKS2_
libboost_python39.so.1.72.0:_ZN5boost6python3apiorERKNS1_6objectES4_
libboost_python39.so.1.72.0:_ZN5boost6python3apipLERNS1_6objectERKS2_
libboost_python39.so.1.72.0:_ZN5boost6python3apiplERKNS1_6objectES4_
libboost_python39.so.1.72.0:_ZN5boost6python3apirMERNS1_6objectERKS2_
libboost_python39.so.1.72.0:_ZN5boost6python3apirSERNS1_6objectERKS2_
libboost_python39.so.1.72.0:_ZN5boost6python3apirmERKNS1_6objectES4_
libboost_python39.so.1.72.0:_ZN5boost6python3apirsERKNS1_6objectES4_
libboost_python39.so.1.72.0:_ZN5boost6python4evalENS0_3strENS0_3api6objectES3_
libboost_python39.so.1.72.0:_ZN5boost6python4evalEPKcNS0_3api6objectES4_
libboost_python39.so.1.72.0:_ZN5boost6python4execENS0_3strENS0_3api6objectES3_
libboost_python39.so.1.72.0:_ZN5boost6python4execEPKcNS0_3api6objectES4_
libboost_python39.so.1.72.0:_ZN5boost6python6detail10slice_baseC1EP7_objectS4_S4_
libboost_python39.so.1.72.0:_ZN5boost6python6detail10slice_baseC2EP7_objectS4_S4_
libboost_python39.so.1.72.0:_ZN5boost6python6detail10tuple_base4callERKNS0_3api6objectE
libboost_python39.so.1.72.0:_ZN5boost6python6detail10tuple_baseC1ERKNS0_3api6objectE
libboost_python39.so.1.72.0:_ZN5boost6python6detail10tuple_baseC1Ev
libboost_python39.so.1.72.0:_ZN5boost6python6detail10tuple_baseC2ERKNS0_3api6objectE
libboost_python39.so.1.72.0:_ZN5boost6python6detail10tuple_baseC2Ev
libboost_python39.so.1.72.0:_ZN5boost6python6detail11init_moduleER11PyModuleDefPFvvE
libboost_python39.so.1.72.0:_ZN5boost6python6detail12gcc_demangleEPKc
libboost_python39.so.1.72.0:_ZN5boost6python6detail13current_scopeE
libboost_python39.so.1.72.0:_ZN5boost6python6detail17exception_handler4tailE
libboost_python39.so.1.72.0:_ZN5boost6python6detail17exception_handler5chainE
libboost_python39.so.1.72.0:_ZN5boost6python6detail17exception_handlerC1ERKNS_9function2IbRKS2_RKNS_9function0IvEEEE
libboost_python39.so.1.72.0:_ZN5boost6python6detail17exception_handlerC2ERKNS_9function2IbRKS2_RKNS_9function0IvEEEE
libboost_python39.so.1.72.0:_ZN5boost6python6detail17make_raw_functionENS0_7objects11py_functionE
libboost_python39.so.1.72.0:_ZN5boost6python6detail17scope_setattr_docEPKcRKNS0_3api6objectES3_
libboost_python39.so.1.72.0:_ZN5boost6python6detail19pure_virtual_calledEv
libboost_python39.so.1.72.0:_ZN5boost6python6detail26register_exception_handlerERKNS_9function2IbRKNS1_17exception_handlerERKNS_9function0IvEEEE
libboost_python39.so.1.72.0:_ZN5boost6python6detail8str_base4callERKNS0_3api6objectE
libboost_python39.so.1.72.0:_ZN5boost6python6detail8str_baseC1EPKc
libboost_python39.so.1.72.0:_ZN5boost6python6detail8str_baseC1EPKcS4_
libboost_python39.so.1.72.0:_ZN5boost6python6detail8str_baseC1EPKcm
libboost_python39.so.1.72.0:_ZN5boost6python6detail8str_baseC1ERKNS0_3api6objectE
libboost_python39.so.1.72.0:_ZN5boost6python6detail8str_baseC1Ev
libboost_python39.so.1.72.0:_ZN5boost6python6detail8str_baseC2EPKc
libboost_python39.so.1.72.0:_ZN5boost6python6detail8str_baseC2EPKcS4_
libboost_python39.so.1.72.0:_ZN5boost6python6detail8str_baseC2EPKcm
libboost_python39.so.1.72.0:_ZN5boost6python6detail8str_baseC2ERKNS0_3api6objectE
libboost_python39.so.1.72.0:_ZN5boost6python6detail8str_baseC2Ev
libboost_python39.so.1.72.0:_ZN5boost6python6detail9dict_base10setdefaultERKNS0_3api6objectE
libboost_python39.so.1.72.0:_ZN5boost6python6detail9dict_base10setdefaultERKNS0_3api6objectES6_
libboost_python39.so.1.72.0:_ZN5boost6python6detail9dict_base4callERKNS0_3api6objectE
libboost_python39.so.1.72.0:_ZN5boost6python6detail9dict_base4copyEv
libboost_python39.so.1.72.0:_ZN5boost6python6detail9dict_base5clearEv
libboost_python39.so.1.72.0:_ZN5boost6python6detail9dict_base6updateERKNS0_3api6objectE
libboost_python39.so.1.72.0:_ZN5boost6python6detail9dict_base7popitemEv
libboost_python39.so.1.72.0:_ZN5boost6python6detail9dict_baseC1ERKNS0_3api6objectE
libboost_python39.so.1.72.0:_ZN5boost6python6detail9dict_baseC1Ev
libboost_python39.so.1.72.0:_ZN5boost6python6detail9dict_baseC2ERKNS0_3api6objectE
libboost_python39.so.1.72.0:_ZN5boost6python6detail9dict_baseC2Ev
libboost_python39.so.1.72.0:_ZN5boost6python6detail9list_base3popERKNS0_3api6objectE
libboost_python39.so.1.72.0:_ZN5boost6python6detail9list_base3popEl
libboost_python39.so.1.72.0:_ZN5boost6python6detail9list_base3popEv
libboost_python39.so.1.72.0:_ZN5boost6python6detail9list_base4callERKNS0_3api6objectE
libboost_python39.so.1.72.0:_ZN5boost6python6detail9list_base4sortERKNS1_10args_proxyERKNS1_10kwds_proxyE
libboost_python39.so.1.72.0:_ZN5boost6python6detail9list_base4sortEv
libboost_python39.so.1.72.0:_ZN5boost6python6detail9list_base6appendERKNS0_3api6objectE
libboost_python39.so.1.72.0:_ZN5boost6python6detail9list_base6extendERKNS0_3api6objectE
libboost_python39.so.1.72.0:_ZN5boost6python6detail9list_base6insertERKNS0_3api6objectES6_
libboost_python39.so.1.72.0:_ZN5boost6python6detail9list_base6insertElRKNS0_3api6objectE
libboost_python39.so.1.72.0:_ZN5boost6python6detail9list_base6removeERKNS0_3api6objectE
libboost_python39.so.1.72.0:_ZN5boost6python6detail9list_base7reverseEv
libboost_python39.so.1.72.0:_ZN5boost6python6detail9list_baseC1ERKNS0_3api6objectE
libboost_python39.so.1.72.0:_ZN5boost6python6detail9list_baseC1Ev
libboost_python39.so.1.72.0:_ZN5boost6python6detail9list_baseC2ERKNS0_3api6objectE
libboost_python39.so.1.72.0:_ZN5boost6python6detail9list_baseC2Ev
libboost_python39.so.1.72.0:_ZN5boost6python6detail9long_base4callERKNS0_3api6objectE
libboost_python39.so.1.72.0:_ZN5boost6python6detail9long_base4callERKNS0_3api6objectES6_
libboost_python39.so.1.72.0:_ZN5boost6python6detail9long_baseC1ERKNS0_3api6objectE
libboost_python39.so.1.72.0:_ZN5boost6python6detail9long_baseC1ERKNS0_3api6objectES6_
libboost_python39.so.1.72.0:_ZN5boost6python6detail9long_baseC1Ev
libboost_python39.so.1.72.0:_ZN5boost6python6detail9long_baseC2ERKNS0_3api6objectE
libboost_python39.so.1.72.0:_ZN5boost6python6detail9long_baseC2ERKNS0_3api6objectES6_
libboost_python39.so.1.72.0:_ZN5boost6python6detail9long_baseC2Ev
libboost_python39.so.1.72.0:_ZN5boost6python6detaillsERSoRKNS1_19decorated_type_infoE
libboost_python39.so.1.72.0:_ZN5boost6python6importENS0_3strE
libboost_python39.so.1.72.0:_ZN5boost6python7objects10class_base11def_no_initEv
libboost_python39.so.1.72.0:_ZN5boost6python7objects10class_base12add_propertyEPKcRKNS0_3api6objectES4_
libboost_python39.so.1.72.0:_ZN5boost6python7objects10class_base12add_propertyEPKcRKNS0_3api6objectES8_S4_
libboost_python39.so.1.72.0:_ZN5boost6python7objects10class_base16enable_pickling_Eb
libboost_python39.so.1.72.0:_ZN5boost6python7objects10class_base17set_instance_sizeEm
libboost_python39.so.1.72.0:_ZN5boost6python7objects10class_base18make_method_staticEPKc
libboost_python39.so.1.72.0:_ZN5boost6python7objects10class_base19add_static_propertyEPKcRKNS0_3api6objectE
libboost_python39.so.1.72.0:_ZN5boost6python7objects10class_base19add_static_propertyEPKcRKNS0_3api6objectES8_
libboost_python39.so.1.72.0:_ZN5boost6python7objects10class_base7setattrEPKcRKNS0_3api6objectE
libboost_python39.so.1.72.0:_ZN5boost6python7objects10class_baseC1EPKcmPKNS0_9type_infoES4_
libboost_python39.so.1.72.0:_ZN5boost6python7objects10class_baseC2EPKcmPKNS0_9type_infoES4_
libboost_python39.so.1.72.0:_ZN5boost6python7objects10class_typeEv
libboost_python39.so.1.72.0:_ZN5boost6python7objects11static_dataEv
libboost_python39.so.1.72.0:_ZN5boost6python7objects14class_metatypeEv
libboost_python39.so.1.72.0:_ZN5boost6python7objects15function_objectERKNS1_11py_functionE
libboost_python39.so.1.72.0:_ZN5boost6python7objects15function_objectERKNS1_11py_functionERKSt4pairIPKNS0_6detail7keywordES9_E
libboost_python39.so.1.72.0:_ZN5boost6python7objects16add_to_namespaceERKNS0_3api6objectEPKcS5_
libboost_python39.so.1.72.0:_ZN5boost6python7objects16add_to_namespaceERKNS0_3api6objectEPKcS5_S7_
libboost_python39.so.1.72.0:_ZN5boost6python7objects16find_static_typeEPvNS0_9type_infoES3_
libboost_python39.so.1.72.0:_ZN5boost6python7objects17copy_class_objectERKNS0_9type_infoES4_
libboost_python39.so.1.72.0:_ZN5boost6python7objects17find_dynamic_typeEPvNS0_9type_infoES3_
libboost_python39.so.1.72.0:_ZN5boost6python7objects17identity_functionEv
libboost_python39.so.1.72.0:_ZN5boost6python7objects18find_instance_implEP7_objectNS0_9type_infoEb
libboost_python39.so.1.72.0:_ZN5boost6python7objects20function_handle_implERKNS1_11py_functionE
libboost_python39.so.1.72.0:_ZN5boost6python7objects20stop_iteration_errorEv
libboost_python39.so.1.72.0:_ZN5boost6python7objects21py_function_impl_baseD0Ev
libboost_python39.so.1.72.0:_ZN5boost6python7objects21py_function_impl_baseD1Ev
libboost_python39.so.1.72.0:_ZN5boost6python7objects21py_function_impl_baseD2Ev
libboost_python39.so.1.72.0:_ZN5boost6python7objects22make_nurse_and_patientEP7_objectS3_
libboost_python39.so.1.72.0:_ZN5boost6python7objects23register_dynamic_id_auxENS0_9type_infoEPFSt4pairIPvS2_ES4_E
libboost_python39.so.1.72.0:_ZN5boost6python7objects23registered_class_objectENS0_9type_infoE
libboost_python39.so.1.72.0:_ZN5boost6python7objects23stl_input_iterator_impl9incrementEv
libboost_python39.so.1.72.0:_ZN5boost6python7objects23stl_input_iterator_implC1ERKNS0_3api6objectE
libboost_python39.so.1.72.0:_ZN5boost6python7objects23stl_input_iterator_implC1Ev
libboost_python39.so.1.72.0:_ZN5boost6python7objects23stl_input_iterator_implC2ERKNS0_3api6objectE
libboost_python39.so.1.72.0:_ZN5boost6python7objects23stl_input_iterator_implC2Ev
libboost_python39.so.1.72.0:_ZN5boost6python7objects8add_castENS0_9type_infoES2_PFPvS3_Eb
libboost_python39.so.1.72.0:_ZN5boost6python7objects8function12add_overloadERKNS0_6handleIS2_EE
libboost_python39.so.1.72.0:_ZN5boost6python7objects8function16add_to_namespaceERKNS0_3api6objectEPKcS6_
libboost_python39.so.1.72.0:_ZN5boost6python7objects8function16add_to_namespaceERKNS0_3api6objectEPKcS6_S8_
libboost_python39.so.1.72.0:_ZN5boost6python7objects8functionC1ERKNS1_11py_functionEPKNS0_6detail7keywordEj
libboost_python39.so.1.72.0:_ZN5boost6python7objects8functionC2ERKNS1_11py_functionEPKNS0_6detail7keywordEj
libboost_python39.so.1.72.0:_ZN5boost6python7objects8functionD1Ev
libboost_python39.so.1.72.0:_ZN5boost6python7objects8functionD2Ev
libboost_python39.so.1.72.0:_ZN5boost6python7objects9enum_base13export_valuesEv
libboost_python39.so.1.72.0:_ZN5boost6python7objects9enum_base9add_valueEPKcl
libboost_python39.so.1.72.0:_ZN5boost6python7objects9enum_base9to_pythonEP11_typeobjectl
libboost_python39.so.1.72.0:_ZN5boost6python7objects9enum_baseC1EPKcPFP7_objectPKvEPFPvS6_EPFvS6_PNS0_9converter30rvalue_from_python_stage1_dataEENS0_9type_infoES4_
libboost_python39.so.1.72.0:_ZN5boost6python7objects9enum_baseC2EPKcPFP7_objectPKvEPFPvS6_EPFvS6_PNS0_9converter30rvalue_from_python_stage1_dataEENS0_9type_infoES4_
libboost_python39.so.1.72.0:_ZN5boost6python7self_ns4selfE
libboost_python39.so.1.72.0:_ZN5boost6python9converter12registrationD1Ev
libboost_python39.so.1.72.0:_ZN5boost6python9converter12registrationD2Ev
libboost_python39.so.1.72.0:_ZN5boost6python9converter16do_arg_to_pythonEP7_object
libboost_python39.so.1.72.0:_ZN5boost6python9converter18shared_ptr_deleterC1ENS0_6handleI7_objectEE
libboost_python39.so.1.72.0:_ZN5boost6python9converter18shared_ptr_deleterC2ENS0_6handleI7_objectEE
libboost_python39.so.1.72.0:_ZN5boost6python9converter18shared_ptr_deleterD1Ev
libboost_python39.so.1.72.0:_ZN5boost6python9converter18shared_ptr_deleterD2Ev
libboost_python39.so.1.72.0:_ZN5boost6python9converter18shared_ptr_deleterclEPKv
libboost_python39.so.1.72.0:_ZN5boost6python9converter19do_return_to_pythonEP7_object
libboost_python39.so.1.72.0:_ZN5boost6python9converter19do_return_to_pythonEPKc
libboost_python39.so.1.72.0:_ZN5boost6python9converter19do_return_to_pythonEc
libboost_python39.so.1.72.0:_ZN5boost6python9converter22get_lvalue_from_pythonEP7_objectRKNS1_12registrationE
libboost_python39.so.1.72.0:_ZN5boost6python9converter23void_result_from_pythonEP7_object
libboost_python39.so.1.72.0:_ZN5boost6python9converter25rvalue_from_python_stage1EP7_objectRKNS1_12registrationE
libboost_python39.so.1.72.0:_ZN5boost6python9converter25rvalue_from_python_stage2EP7_objectRNS1_30rvalue_from_python_stage1_dataERKNS1_12registrationE
libboost_python39.so.1.72.0:_ZN5boost6python9converter25rvalue_result_from_pythonEP7_objectRNS1_30rvalue_from_python_stage1_dataE
libboost_python39.so.1.72.0:_ZN5boost6python9converter26pointer_result_from_pythonEP7_objectRKNS1_12registrationE
libboost_python39.so.1.72.0:_ZN5boost6python9converter28reference_result_from_pythonEP7_objectRKNS1_12registrationE
libboost_python39.so.1.72.0:_ZN5boost6python9converter28throw_no_pointer_from_pythonEP7_objectRKNS1_12registrationE
libboost_python39.so.1.72.0:_ZN5boost6python9converter30throw_no_reference_from_pythonEP7_objectRKNS1_12registrationE
libboost_python39.so.1.72.0:_ZN5boost6python9converter39implicit_rvalue_convertible_from_pythonEP7_objectRKNS1_12registrationE
libboost_python39.so.1.72.0:_ZN5boost6python9converter6detail18arg_to_python_baseC1EPVKvRKNS1_12registrationE
libboost_python39.so.1.72.0:_ZN5boost6python9converter6detail18arg_to_python_baseC2EPVKvRKNS1_12registrationE
libboost_python39.so.1.72.0:_ZN5boost6python9converter8registry17lookup_shared_ptrENS0_9type_infoE
libboost_python39.so.1.72.0:_ZN5boost6python9converter8registry5queryENS0_9type_infoE
libboost_python39.so.1.72.0:_ZN5boost6python9converter8registry6insertEPFP7_objectPKvENS0_9type_infoEPFPK11_typeobjectvE
libboost_python39.so.1.72.0:_ZN5boost6python9converter8registry6insertEPFPvP7_objectENS0_9type_infoEPFPK11_typeobjectvE
libboost_python39.so.1.72.0:_ZN5boost6python9converter8registry6insertEPFPvP7_objectEPFvS5_PNS1_30rvalue_from_python_stage1_dataEENS0_9type_infoEPFPK11_typeobjectvE
libboost_python39.so.1.72.0:_ZN5boost6python9converter8registry6lookupENS0_9type_infoE
libboost_python39.so.1.72.0:_ZN5boost6python9converter8registry9push_backEPFPvP7_objectEPFvS5_PNS1_30rvalue_from_python_stage1_dataEENS0_9type_infoEPFPK11_typeobjectvE
libboost_python39.so.1.72.0:_ZN5boost6python9exec_fileENS0_3strENS0_3api6objectES3_
libboost_python39.so.1.72.0:_ZN5boost6python9exec_fileEPKcNS0_3api6objectES4_
libboost_python39.so.1.72.0:_ZN5boost6pythonlsERSoRKNS0_9type_infoE
libboost_python39.so.1.72.0:_ZNK5boost6python6detail10slice_base4stepEv
libboost_python39.so.1.72.0:_ZNK5boost6python6detail10slice_base4stopEv
libboost_python39.so.1.72.0:_ZNK5boost6python6detail10slice_base5startEv
libboost_python39.so.1.72.0:_ZNK5boost6python6detail12wrapper_base12get_overrideEPKcP11_typeobject
libboost_python39.so.1.72.0:_ZNK5boost6python6detail17exception_handlerclERKNS_9function0IvEE
libboost_python39.so.1.72.0:_ZNK5boost6python6detail8str_base10capitalizeEv
libboost_python39.so.1.72.0:_ZNK5boost6python6detail8str_base10expandtabsERKNS0_3api6objectE
libboost_python39.so.1.72.0:_ZNK5boost6python6detail8str_base10expandtabsEv
libboost_python39.so.1.72.0:_ZNK5boost6python6detail8str_base10splitlinesERKNS0_3api6objectE
libboost_python39.so.1.72.0:_ZNK5boost6python6detail8str_base10splitlinesEv
libboost_python39.so.1.72.0:_ZNK5boost6python6detail8str_base10startswithERKNS0_3api6objectE
libboost_python39.so.1.72.0:_ZNK5boost6python6detail8str_base10startswithERKNS0_3api6objectES6_
libboost_python39.so.1.72.0:_ZNK5boost6python6detail8str_base10startswithERKNS0_3api6objectES6_S6_
libboost_python39.so.1.72.0:_ZNK5boost6python6detail8str_base4findERKNS0_3api6objectE
libboost_python39.so.1.72.0:_ZNK5boost6python6detail8str_base4findERKNS0_3api6objectES6_
libboost_python39.so.1.72.0:_ZNK5boost6python6detail8str_base4findERKNS0_3api6objectES6_S6_
libboost_python39.so.1.72.0:_ZNK5boost6python6detail8str_base4joinERKNS0_3api6objectE
libboost_python39.so.1.72.0:_ZNK5boost6python6detail8str_base5countERKNS0_3api6objectE
libboost_python39.so.1.72.0:_ZNK5boost6python6detail8str_base5countERKNS0_3api6objectES6_
libboost_python39.so.1.72.0:_ZNK5boost6python6detail8str_base5countERKNS0_3api6objectES6_S6_
libboost_python39.so.1.72.0:_ZNK5boost6python6detail8str_base5indexERKNS0_3api6objectE
libboost_python39.so.1.72.0:_ZNK5boost6python6detail8str_base5indexERKNS0_3api6objectES6_
libboost_python39.so.1.72.0:_ZNK5boost6python6detail8str_base5indexERKNS0_3api6objectES6_S6_
libboost_python39.so.1.72.0:_ZNK5boost6python6detail8str_base5ljustERKNS0_3api6objectE
libboost_python39.so.1.72.0:_ZNK5boost6python6detail8str_base5lowerEv
libboost_python39.so.1.72.0:_ZNK5boost6python6detail8str_base5rfindERKNS0_3api6objectE
libboost_python39.so.1.72.0:_ZNK5boost6python6detail8str_base5rfindERKNS0_3api6objectES6_
libboost_python39.so.1.72.0:_ZNK5boost6python6detail8str_base5rfindERKNS0_3api6objectES6_S6_
libboost_python39.so.1.72.0:_ZNK5boost6python6detail8str_base5rjustERKNS0_3api6objectE
libboost_python39.so.1.72.0:_ZNK5boost6python6detail8str_base5splitERKNS0_3api6objectE
libboost_python39.so.1.72.0:_ZNK5boost6python6detail8str_base5splitERKNS0_3api6objectES6_
libboost_python39.so.1.72.0:_ZNK5boost6python6detail8str_base5splitEv
libboost_python39.so.1.72.0:_ZNK5boost6python6detail8str_base5stripEv
libboost_python39.so.1.72.0:_ZNK5boost6python6detail8str_base5titleEv
libboost_python39.so.1.72.0:_ZNK5boost6python6detail8str_base5upperEv
libboost_python39.so.1.72.0:_ZNK5boost6python6detail8str_base6centerERKNS0_3api6objectE
libboost_python39.so.1.72.0:_ZNK5boost6python6detail8str_base6encodeERKNS0_3api6objectE
libboost_python39.so.1.72.0:_ZNK5boost6python6detail8str_base6encodeERKNS0_3api6objectES6_
libboost_python39.so.1.72.0:_ZNK5boost6python6detail8str_base6encodeEv
libboost_python39.so.1.72.0:_ZNK5boost6python6detail8str_base6lstripEv
libboost_python39.so.1.72.0:_ZNK5boost6python6detail8str_base6rindexERKNS0_3api6objectE
libboost_python39.so.1.72.0:_ZNK5boost6python6detail8str_base6rindexERKNS0_3api6objectES6_
libboost_python39.so.1.72.0:_ZNK5boost6python6detail8str_base6rindexERKNS0_3api6objectES6_S6_
libboost_python39.so.1.72.0:_ZNK5boost6python6detail8str_base6rstripEv
libboost_python39.so.1.72.0:_ZNK5boost6python6detail8str_base7isalnumEv
libboost_python39.so.1.72.0:_ZNK5boost6python6detail8str_base7isalphaEv
libboost_python39.so.1.72.0:_ZNK5boost6python6detail8str_base7isdigitEv
libboost_python39.so.1.72.0:_ZNK5boost6python6detail8str_base7islowerEv
libboost_python39.so.1.72.0:_ZNK5boost6python6detail8str_base7isspaceEv
libboost_python39.so.1.72.0:_ZNK5boost6python6detail8str_base7istitleEv
libboost_python39.so.1.72.0:_ZNK5boost6python6detail8str_base7isupperEv
libboost_python39.so.1.72.0:_ZNK5boost6python6detail8str_base7replaceERKNS0_3api6objectES6_
libboost_python39.so.1.72.0:_ZNK5boost6python6detail8str_base7replaceERKNS0_3api6objectES6_S6_
libboost_python39.so.1.72.0:_ZNK5boost6python6detail8str_base8endswithERKNS0_3api6objectE
libboost_python39.so.1.72.0:_ZNK5boost6python6detail8str_base8endswithERKNS0_3api6objectES6_
libboost_python39.so.1.72.0:_ZNK5boost6python6detail8str_base8endswithERKNS0_3api6objectES6_S6_
libboost_python39.so.1.72.0:_ZNK5boost6python6detail8str_base8swapcaseEv
libboost_python39.so.1.72.0:_ZNK5boost6python6detail8str_base9translateERKNS0_3api6objectE
libboost_python39.so.1.72.0:_ZNK5boost6python6detail8str_base9translateERKNS0_3api6objectES6_
libboost_python39.so.1.72.0:_ZNK5boost6python6detail9dict_base10itervaluesEv
libboost_python39.so.1.72.0:_ZNK5boost6python6detail9dict_base3getERKNS0_3api6objectE
libboost_python39.so.1.72.0:_ZNK5boost6python6detail9dict_base3getERKNS0_3api6objectES6_
libboost_python39.so.1.72.0:_ZNK5boost6python6detail9dict_base4keysEv
libboost_python39.so.1.72.0:_ZNK5boost6python6detail9dict_base5itemsEv
libboost_python39.so.1.72.0:_ZNK5boost6python6detail9dict_base6valuesEv
libboost_python39.so.1.72.0:_ZNK5boost6python6detail9dict_base7has_keyERKNS0_3api6objectE
libboost_python39.so.1.72.0:_ZNK5boost6python6detail9dict_base8iterkeysEv
libboost_python39.so.1.72.0:_ZNK5boost6python6detail9dict_base9iteritemsEv
libboost_python39.so.1.72.0:_ZNK5boost6python6detail9list_base5countERKNS0_3api6objectE
libboost_python39.so.1.72.0:_ZNK5boost6python6detail9list_base5indexERKNS0_3api6objectE
libboost_python39.so.1.72.0:_ZNK5boost6python7objects21py_function_impl_base9max_arityEv
libboost_python39.so.1.72.0:_ZNK5boost6python7objects23stl_input_iterator_impl5equalERKS2_
libboost_python39.so.1.72.0:_ZNK5boost6python7objects23stl_input_iterator_impl7currentEv
libboost_python39.so.1.72.0:_ZNK5boost6python7objects8function10signaturesEb
libboost_python39.so.1.72.0:_ZNK5boost6python7objects8function14argument_errorEP7_objectS4_
libboost_python39.so.1.72.0:_ZNK5boost6python7objects8function4callEP7_objectS4_
libboost_python39.so.1.72.0:_ZNK5boost6python7objects8function9signatureEb
libboost_python39.so.1.72.0:_ZNK5boost6python9converter12registration16get_class_objectEv
libboost_python39.so.1.72.0:_ZNK5boost6python9converter12registration21to_python_target_typeEv
libboost_python39.so.1.72.0:_ZNK5boost6python9converter12registration25expected_from_python_typeEv
libboost_python39.so.1.72.0:_ZNK5boost6python9converter12registration9to_pythonEPVKv
libboost_random.so.1.72.0:_ZN5boost6random13random_deviceC1ERKNSt7__cxx1112basic_stringIcSt11char_traitsIcESaIcEEE
libboost_random.so.1.72.0:_ZN5boost6random13random_deviceC1Ev
libboost_random.so.1.72.0:_ZN5boost6random13random_deviceC2ERKNSt7__cxx1112basic_stringIcSt11char_traitsIcESaIcEEE
libboost_random.so.1.72.0:_ZN5boost6random13random_deviceC2Ev
libboost_random.so.1.72.0:_ZN5boost6random13random_deviceD1Ev
libboost_random.so.1.72.0:_ZN5boost6random13random_deviceD2Ev
libboost_random.so.1.72.0:_ZN5boost6random13random_deviceclEv
libboost_random.so.1.72.0:_ZNK5boost6random13random_device7entropyEv
libboost_regex.so.1.72.0:_ZN5boost11regex_errorC1ENS_15regex_constants10error_typeE
libboost_regex.so.1.72.0:_ZN5boost11regex_errorC1ERKNSt7__cxx1112basic_stringIcSt11char_traitsIcESaIcEEENS_15regex_constants10error_typeEl
libboost_regex.so.1.72.0:_ZN5boost11regex_errorC2ENS_15regex_constants10error_typeE
libboost_regex.so.1.72.0:_ZN5boost11regex_errorC2ERKNSt7__cxx1112basic_stringIcSt11char_traitsIcESaIcEEENS_15regex_constants10error_typeEl
libboost_regex.so.1.72.0:_ZN5boost11regex_errorD0Ev
libboost_regex.so.1.72.0:_ZN5boost11regex_errorD1Ev
libboost_regex.so.1.72.0:_ZN5boost11regex_errorD2Ev
libboost_regex.so.1.72.0:_ZN5boost14c_regex_traitsIcE16lookup_classnameEPKcS3_
libboost_regex.so.1.72.0:_ZN5boost14c_regex_traitsIcE17transform_primaryB5cxx11EPKcS3_
libboost_regex.so.1.72.0:_ZN5boost14c_regex_traitsIcE18lookup_collatenameB5cxx11EPKcS3_
libboost_regex.so.1.72.0:_ZN5boost14c_regex_traitsIcE5valueEci
libboost_regex.so.1.72.0:_ZN5boost14c_regex_traitsIcE7isctypeEcj
libboost_regex.so.1.72.0:_ZN5boost14c_regex_traitsIcE9transformB5cxx11EPKcS3_
libboost_regex.so.1.72.0:_ZN5boost14c_regex_traitsIwE16lookup_classnameEPKwS3_
libboost_regex.so.1.72.0:_ZN5boost14c_regex_traitsIwE17transform_primaryB5cxx11EPKwS3_
libboost_regex.so.1.72.0:_ZN5boost14c_regex_traitsIwE18lookup_collatenameB5cxx11EPKwS3_
libboost_regex.so.1.72.0:_ZN5boost14c_regex_traitsIwE5valueEwi
libboost_regex.so.1.72.0:_ZN5boost14c_regex_traitsIwE7isctypeEwj
libboost_regex.so.1.72.0:_ZN5boost14c_regex_traitsIwE9transformB5cxx11EPKwS3_
libboost_regex.so.1.72.0:_ZN5boost16icu_regex_traits10mask_asciiE
libboost_regex.so.1.72.0:_ZN5boost16icu_regex_traits10mask_blankE
libboost_regex.so.1.72.0:_ZN5boost16icu_regex_traits10mask_spaceE
libboost_regex.so.1.72.0:_ZN5boost16icu_regex_traits11mask_xdigitE
libboost_regex.so.1.72.0:_ZN5boost16icu_regex_traits12mask_unicodeE
libboost_regex.so.1.72.0:_ZN5boost16icu_regex_traits13mask_verticalE
libboost_regex.so.1.72.0:_ZN5boost16icu_regex_traits15lookup_icu_maskEPKiS2_
libboost_regex.so.1.72.0:_ZN5boost16icu_regex_traits15mask_horizontalE
libboost_regex.so.1.72.0:_ZN5boost16icu_regex_traits15mask_underscoreE
libboost_regex.so.1.72.0:_ZN5boost16icu_regex_traits6lengthEPKi
libboost_regex.so.1.72.0:_ZN5boost16icu_regex_traits8mask_anyE
libboost_regex.so.1.72.0:_ZN5boost16re_detail_10720011raw_storage6insertEmm
libboost_regex.so.1.72.0:_ZN5boost16re_detail_10720011raw_storage6resizeEm
libboost_regex.so.1.72.0:_ZN5boost16re_detail_10720013file_iterator4nextEv
libboost_regex.so.1.72.0:_ZN5boost16re_detail_10720013file_iteratorC1EPKc
libboost_regex.so.1.72.0:_ZN5boost16re_detail_10720013file_iteratorC1ERKS1_
libboost_regex.so.1.72.0:_ZN5boost16re_detail_10720013file_iteratorC1Ev
libboost_regex.so.1.72.0:_ZN5boost16re_detail_10720013file_iteratorC2EPKc
libboost_regex.so.1.72.0:_ZN5boost16re_detail_10720013file_iteratorC2ERKS1_
libboost_regex.so.1.72.0:_ZN5boost16re_detail_10720013file_iteratorC2Ev
libboost_regex.so.1.72.0:_ZN5boost16re_detail_10720013file_iteratorD1Ev
libboost_regex.so.1.72.0:_ZN5boost16re_detail_10720013file_iteratorD2Ev
libboost_regex.so.1.72.0:_ZN5boost16re_detail_10720013file_iteratoraSERKS1_
libboost_regex.so.1.72.0:_ZN5boost16re_detail_10720013file_iteratorppEi
libboost_regex.so.1.72.0:_ZN5boost16re_detail_10720013get_mem_blockEv
libboost_regex.so.1.72.0:_ZN5boost16re_detail_10720013put_mem_blockEPv
libboost_regex.so.1.72.0:_ZN5boost16re_detail_10720014def_coll_namesE
libboost_regex.so.1.72.0:_ZN5boost16re_detail_10720014def_multi_collE
libboost_regex.so.1.72.0:_ZN5boost16re_detail_10720014verify_optionsEjNS_15regex_constants12_match_flagsE
libboost_regex.so.1.72.0:_ZN5boost16re_detail_10720015do_global_lowerEc
libboost_regex.so.1.72.0:_ZN5boost16re_detail_10720015do_global_lowerEw
libboost_regex.so.1.72.0:_ZN5boost16re_detail_10720015do_global_upperEc
libboost_regex.so.1.72.0:_ZN5boost16re_detail_10720015do_global_upperEw
libboost_regex.so.1.72.0:_ZN5boost16re_detail_10720016mapfile_iteratoraSERKS1_
libboost_regex.so.1.72.0:_ZN5boost16re_detail_10720016mapfile_iteratormmEi
libboost_regex.so.1.72.0:_ZN5boost16re_detail_10720016mapfile_iteratormmEv
libboost_regex.so.1.72.0:_ZN5boost16re_detail_10720016mapfile_iteratorppEi
libboost_regex.so.1.72.0:_ZN5boost16re_detail_10720016mapfile_iteratorppEv
libboost_regex.so.1.72.0:_ZN5boost16re_detail_10720018directory_iterator4nextEv
libboost_regex.so.1.72.0:_ZN5boost16re_detail_10720018directory_iteratorC1EPKc
libboost_regex.so.1.72.0:_ZN5boost16re_detail_10720018directory_iteratorC1ERKS1_
libboost_regex.so.1.72.0:_ZN5boost16re_detail_10720018directory_iteratorC1Ev
libboost_regex.so.1.72.0:_ZN5boost16re_detail_10720018directory_iteratorC2EPKc
libboost_regex.so.1.72.0:_ZN5boost16re_detail_10720018directory_iteratorC2ERKS1_
libboost_regex.so.1.72.0:_ZN5boost16re_detail_10720018directory_iteratorC2Ev
libboost_regex.so.1.72.0:_ZN5boost16re_detail_10720018directory_iteratorD1Ev
libboost_regex.so.1.72.0:_ZN5boost16re_detail_10720018directory_iteratorD2Ev
libboost_regex.so.1.72.0:_ZN5boost16re_detail_10720018directory_iteratoraSERKS1_
libboost_regex.so.1.72.0:_ZN5boost16re_detail_10720018directory_iteratorppEi
libboost_regex.so.1.72.0:_ZN5boost16re_detail_10720018get_default_syntaxEh
libboost_regex.so.1.72.0:_ZN5boost16re_detail_10720019raise_runtime_errorERKSt13runtime_error
libboost_regex.so.1.72.0:_ZN5boost16re_detail_10720023get_default_syntax_typeEc
libboost_regex.so.1.72.0:_ZN5boost16re_detail_10720024get_default_error_stringENS_15regex_constants10error_typeE
libboost_regex.so.1.72.0:_ZN5boost16re_detail_10720027cpp_regex_traits_char_layerIcE4initEv
libboost_regex.so.1.72.0:_ZN5boost16re_detail_10720027is_combining_implementationEt
libboost_regex.so.1.72.0:_ZN5boost16re_detail_10720027lookup_default_collate_nameERKNSt7__cxx1112basic_stringIcSt11char_traitsIcESaIcEEE
libboost_regex.so.1.72.0:_ZN5boost16re_detail_10720030get_default_escape_syntax_typeEc
libboost_regex.so.1.72.0:_ZN5boost16re_detail_1072007_fi_sepE
libboost_regex.so.1.72.0:_ZN5boost16re_detail_1072007mapfile4openEPKc
libboost_regex.so.1.72.0:_ZN5boost16re_detail_1072007mapfile5closeEv
libboost_regex.so.1.72.0:_ZN5boost24scoped_static_mutex_lock4lockEv
libboost_regex.so.1.72.0:_ZN5boost24scoped_static_mutex_lock6unlockEv
libboost_regex.so.1.72.0:_ZN5boost24scoped_static_mutex_lockC1ERNS_12static_mutexEb
libboost_regex.so.1.72.0:_ZN5boost24scoped_static_mutex_lockC2ERNS_12static_mutexEb
libboost_regex.so.1.72.0:_ZN5boost24scoped_static_mutex_lockD1Ev
libboost_regex.so.1.72.0:_ZN5boost24scoped_static_mutex_lockD2Ev
libboost_regex.so.1.72.0:_ZN5boost5RegEx13SetExpressionEPKcb
libboost_regex.so.1.72.0:_ZN5boost5RegEx4GrepEPFbRKS0_EPKcNS_15regex_constants12_match_flagsE
libboost_regex.so.1.72.0:_ZN5boost5RegEx4GrepERSt6vectorINSt7__cxx1112basic_stringIcSt11char_traitsIcESaIcEEESaIS7_EEPKcNS_15regex_constants12_match_flagsE
libboost_regex.so.1.72.0:_ZN5boost5RegEx4GrepERSt6vectorImSaImEEPKcNS_15regex_constants12_match_flagsE
libboost_regex.so.1.72.0:_ZN5boost5RegEx4nposE
libboost_regex.so.1.72.0:_ZN5boost5RegEx5MatchEPKcNS_15regex_constants12_match_flagsE
libboost_regex.so.1.72.0:_ZN5boost5RegEx5MergeB5cxx11EPKcS2_bNS_15regex_constants12_match_flagsE
libboost_regex.so.1.72.0:_ZN5boost5RegEx5MergeERKNSt7__cxx1112basic_stringIcSt11char_traitsIcESaIcEEES8_bNS_15regex_constants12_match_flagsE
libboost_regex.so.1.72.0:_ZN5boost5RegEx5SplitERSt6vectorINSt7__cxx1112basic_stringIcSt11char_traitsIcESaIcEEESaIS7_EERS7_NS_15regex_constants12_match_flagsEj
libboost_regex.so.1.72.0:_ZN5boost5RegEx6SearchEPKcNS_15regex_constants12_match_flagsE
libboost_regex.so.1.72.0:_ZN5boost5RegEx9FindFilesEPFbPKcES2_bNS_15regex_constants12_match_flagsE
libboost_regex.so.1.72.0:_ZN5boost5RegEx9GrepFilesEPFbPKcRKS0_ES2_bNS_15regex_constants12_match_flagsE
libboost_regex.so.1.72.0:_ZN5boost5RegExC1EPKcb
libboost_regex.so.1.72.0:_ZN5boost5RegExC1ERKNSt7__cxx1112basic_stringIcSt11char_traitsIcESaIcEEEb
libboost_regex.so.1.72.0:_ZN5boost5RegExC1ERKS0_
libboost_regex.so.1.72.0:_ZN5boost5RegExC1Ev
libboost_regex.so.1.72.0:_ZN5boost5RegExC2EPKcb
libboost_regex.so.1.72.0:_ZN5boost5RegExC2ERKNSt7__cxx1112basic_stringIcSt11char_traitsIcESaIcEEEb
libboost_regex.so.1.72.0:_ZN5boost5RegExC2ERKS0_
libboost_regex.so.1.72.0:_ZN5boost5RegExC2Ev
libboost_regex.so.1.72.0:_ZN5boost5RegExD1Ev
libboost_regex.so.1.72.0:_ZN5boost5RegExD2Ev
libboost_regex.so.1.72.0:_ZN5boost5RegExaSEPKc
libboost_regex.so.1.72.0:_ZN5boost5RegExaSERKS0_
libboost_regex.so.1.72.0:_ZNK5boost11regex_error5raiseEv
libboost_regex.so.1.72.0:_ZNK5boost16icu_regex_traits16lookup_classnameEPKiS2_
libboost_regex.so.1.72.0:_ZNK5boost16icu_regex_traits18lookup_collatenameEPKiS2_
libboost_regex.so.1.72.0:_ZNK5boost16icu_regex_traits7isctypeEim
libboost_regex.so.1.72.0:_ZNK5boost16re_detail_10720031icu_regex_traits_implementation12do_transformEPKiS3_PKN6icu_698CollatorE
libboost_regex.so.1.72.0:_ZNK5boost16re_detail_1072007mapfile3endEv
libboost_regex.so.1.72.0:_ZNK5boost16re_detail_1072007mapfile4lockEPPc
libboost_regex.so.1.72.0:_ZNK5boost16re_detail_1072007mapfile5beginEv
libboost_regex.so.1.72.0:_ZNK5boost16re_detail_1072007mapfile6unlockEPPc
libboost_regex.so.1.72.0:_ZNK5boost5RegEx10ExpressionB5cxx11Ev
libboost_regex.so.1.72.0:_ZNK5boost5RegEx10error_codeEv
libboost_regex.so.1.72.0:_ZNK5boost5RegEx4WhatB5cxx11Ei
libboost_regex.so.1.72.0:_ZNK5boost5RegEx5MarksEv
libboost_regex.so.1.72.0:_ZNK5boost5RegEx6LengthEi
libboost_regex.so.1.72.0:_ZNK5boost5RegEx7MatchedEi
libboost_regex.so.1.72.0:_ZNK5boost5RegEx8PositionEi
libboost_regex.so.1.72.0:regcompA
libboost_regex.so.1.72.0:regcompW
libboost_regex.so.1.72.0:regerrorA
libboost_regex.so.1.72.0:regerrorW
libboost_regex.so.1.72.0:regexecA
libboost_regex.so.1.72.0:regexecW
libboost_regex.so.1.72.0:regfreeA
libboost_regex.so.1.72.0:regfreeW
libboost_serialization.so.1.72.0:_ZN5boost13serialization11void_upcastERKNS0_18extended_type_infoES3_PKv
libboost_serialization.so.1.72.0:_ZN5boost13serialization13typeid_system27extended_type_info_typeid_013type_registerERKSt9type_info
libboost_serialization.so.1.72.0:_ZN5boost13serialization13typeid_system27extended_type_info_typeid_015type_unregisterEv
libboost_serialization.so.1.72.0:_ZN5boost13serialization13typeid_system27extended_type_info_typeid_0C1EPKc
libboost_serialization.so.1.72.0:_ZN5boost13serialization13typeid_system27extended_type_info_typeid_0C2EPKc
libboost_serialization.so.1.72.0:_ZN5boost13serialization13typeid_system27extended_type_info_typeid_0D0Ev
libboost_serialization.so.1.72.0:_ZN5boost13serialization13typeid_system27extended_type_info_typeid_0D1Ev
libboost_serialization.so.1.72.0:_ZN5boost13serialization13typeid_system27extended_type_info_typeid_0D2Ev
libboost_serialization.so.1.72.0:_ZN5boost13serialization13void_downcastERKNS0_18extended_type_infoES3_PKv
libboost_serialization.so.1.72.0:_ZN5boost13serialization14no_rtti_system28extended_type_info_no_rtti_0C1EPKc
libboost_serialization.so.1.72.0:_ZN5boost13serialization14no_rtti_system28extended_type_info_no_rtti_0C2EPKc
libboost_serialization.so.1.72.0:_ZN5boost13serialization14no_rtti_system28extended_type_info_no_rtti_0D0Ev
libboost_serialization.so.1.72.0:_ZN5boost13serialization14no_rtti_system28extended_type_info_no_rtti_0D1Ev
libboost_serialization.so.1.72.0:_ZN5boost13serialization14no_rtti_system28extended_type_info_no_rtti_0D2Ev
libboost_serialization.so.1.72.0:_ZN5boost13serialization18extended_type_info4findEPKc
libboost_serialization.so.1.72.0:_ZN5boost13serialization18extended_type_infoC1EjPKc
libboost_serialization.so.1.72.0:_ZN5boost13serialization18extended_type_infoC2EjPKc
libboost_serialization.so.1.72.0:_ZN5boost13serialization18extended_type_infoD0Ev
libboost_serialization.so.1.72.0:_ZN5boost13serialization18extended_type_infoD1Ev
libboost_serialization.so.1.72.0:_ZN5boost13serialization18extended_type_infoD2Ev
libboost_serialization.so.1.72.0:_ZN5boost7archive17archive_exception6appendEjPKc
libboost_serialization.so.1.72.0:_ZN5boost7archive17archive_exceptionC1ENS1_14exception_codeEPKcS4_
libboost_serialization.so.1.72.0:_ZN5boost7archive17archive_exceptionC1ERKS1_
libboost_serialization.so.1.72.0:_ZN5boost7archive17archive_exceptionC1Ev
libboost_serialization.so.1.72.0:_ZN5boost7archive17archive_exceptionC2ENS1_14exception_codeEPKcS4_
libboost_serialization.so.1.72.0:_ZN5boost7archive17archive_exceptionC2ERKS1_
libboost_serialization.so.1.72.0:_ZN5boost7archive17archive_exceptionC2Ev
libboost_serialization.so.1.72.0:_ZN5boost7archive17archive_exceptionD0Ev
libboost_serialization.so.1.72.0:_ZN5boost7archive17archive_exceptionD1Ev
libboost_serialization.so.1.72.0:_ZN5boost7archive17archive_exceptionD2Ev
libboost_serialization.so.1.72.0:_ZN5boost7archive17basic_xml_grammarIcE10init_chsetEv
libboost_serialization.so.1.72.0:_ZN5boost7archive21BOOST_ARCHIVE_VERSIONEv
libboost_serialization.so.1.72.0:_ZN5boost7archive21xml_archive_exceptionC1ENS1_14exception_codeEPKcS4_
libboost_serialization.so.1.72.0:_ZN5boost7archive21xml_archive_exceptionC1ERKS1_
libboost_serialization.so.1.72.0:_ZN5boost7archive21xml_archive_exceptionC2ENS1_14exception_codeEPKcS4_
libboost_serialization.so.1.72.0:_ZN5boost7archive21xml_archive_exceptionC2ERKS1_
libboost_serialization.so.1.72.0:_ZN5boost7archive21xml_archive_exceptionD0Ev
libboost_serialization.so.1.72.0:_ZN5boost7archive21xml_archive_exceptionD1Ev
libboost_serialization.so.1.72.0:_ZN5boost7archive21xml_archive_exceptionD2Ev
libboost_serialization.so.1.72.0:_ZN5boost7archive23BOOST_ARCHIVE_SIGNATUREEv
libboost_serialization.so.1.72.0:_ZN5boost7archive25BOOST_ARCHIVE_XML_VERSIONEv
libboost_serialization.so.1.72.0:_ZN5boost7archive26BOOST_ARCHIVE_XML_CLASS_IDEv
libboost_serialization.so.1.72.0:_ZN5boost7archive26BOOST_ARCHIVE_XML_TRACKINGEv
libboost_serialization.so.1.72.0:_ZN5boost7archive27BOOST_ARCHIVE_XML_OBJECT_IDEv
libboost_serialization.so.1.72.0:_ZN5boost7archive27BOOST_ARCHIVE_XML_SIGNATUREEv
libboost_serialization.so.1.72.0:_ZN5boost7archive28BOOST_ARCHIVE_XML_CLASS_NAMEEv
libboost_serialization.so.1.72.0:_ZN5boost7archive34BOOST_ARCHIVE_XML_OBJECT_REFERENCEEv
libboost_serialization.so.1.72.0:_ZN5boost7archive36BOOST_ARCHIVE_XML_CLASS_ID_REFERENCEEv
libboost_serialization.so.1.72.0:_ZN5boost7archive6detail14basic_iarchive11load_objectEPvRKNS1_17basic_iserializerE
libboost_serialization.so.1.72.0:_ZN5boost7archive6detail14basic_iarchive12load_pointerERPvPKNS1_25basic_pointer_iserializerEPFS7_RKNS_13serialization18extended_type_infoEE
libboost_serialization.so.1.72.0:_ZN5boost7archive6detail14basic_iarchive19next_object_pointerEPv
libboost_serialization.so.1.72.0:_ZN5boost7archive6detail14basic_iarchive19set_library_versionENS0_20library_version_typeE
libboost_serialization.so.1.72.0:_ZN5boost7archive6detail14basic_iarchive20reset_object_addressEPKvS4_
libboost_serialization.so.1.72.0:_ZN5boost7archive6detail14basic_iarchive23delete_created_pointersEv
libboost_serialization.so.1.72.0:_ZN5boost7archive6detail14basic_iarchive25register_basic_serializerERKNS1_17basic_iserializerE
libboost_serialization.so.1.72.0:_ZN5boost7archive6detail14basic_iarchiveC1Ej
libboost_serialization.so.1.72.0:_ZN5boost7archive6detail14basic_iarchiveC2Ej
libboost_serialization.so.1.72.0:_ZN5boost7archive6detail14basic_iarchiveD0Ev
libboost_serialization.so.1.72.0:_ZN5boost7archive6detail14basic_iarchiveD1Ev
libboost_serialization.so.1.72.0:_ZN5boost7archive6detail14basic_iarchiveD2Ev
libboost_serialization.so.1.72.0:_ZN5boost7archive6detail14basic_oarchive11save_objectEPKvRKNS1_17basic_oserializerE
libboost_serialization.so.1.72.0:_ZN5boost7archive6detail14basic_oarchive12end_preambleEv
libboost_serialization.so.1.72.0:_ZN5boost7archive6detail14basic_oarchive12save_pointerEPKvPKNS1_25basic_pointer_oserializerE
libboost_serialization.so.1.72.0:_ZN5boost7archive6detail14basic_oarchive21get_helper_collectionEv
libboost_serialization.so.1.72.0:_ZN5boost7archive6detail14basic_oarchive25register_basic_serializerERKNS1_17basic_oserializerE
libboost_serialization.so.1.72.0:_ZN5boost7archive6detail14basic_oarchiveC1Ej
libboost_serialization.so.1.72.0:_ZN5boost7archive6detail14basic_oarchiveC2Ej
libboost_serialization.so.1.72.0:_ZN5boost7archive6detail14basic_oarchiveD0Ev
libboost_serialization.so.1.72.0:_ZN5boost7archive6detail14basic_oarchiveD1Ev
libboost_serialization.so.1.72.0:_ZN5boost7archive6detail14basic_oarchiveD2Ev
libboost_serialization.so.1.72.0:_ZN5boost7archive6detail17basic_iserializerC1ERKNS_13serialization18extended_type_infoE
libboost_serialization.so.1.72.0:_ZN5boost7archive6detail17basic_iserializerC2ERKNS_13serialization18extended_type_infoE
libboost_serialization.so.1.72.0:_ZN5boost7archive6detail17basic_iserializerD0Ev
libboost_serialization.so.1.72.0:_ZN5boost7archive6detail17basic_iserializerD1Ev
libboost_serialization.so.1.72.0:_ZN5boost7archive6detail17basic_iserializerD2Ev
libboost_serialization.so.1.72.0:_ZN5boost7archive6detail17basic_oserializerC1ERKNS_13serialization18extended_type_infoE
libboost_serialization.so.1.72.0:_ZN5boost7archive6detail17basic_oserializerC2ERKNS_13serialization18extended_type_infoE
libboost_serialization.so.1.72.0:_ZN5boost7archive6detail17basic_oserializerD0Ev
libboost_serialization.so.1.72.0:_ZN5boost7archive6detail17basic_oserializerD1Ev
libboost_serialization.so.1.72.0:_ZN5boost7archive6detail17basic_oserializerD2Ev
libboost_serialization.so.1.72.0:_ZN5boost7archive6detail18utf8_codecvt_facet15get_octet_countEh
libboost_serialization.so.1.72.0:_ZN5boost7archive6detail18utf8_codecvt_facetC1Em
libboost_serialization.so.1.72.0:_ZN5boost7archive6detail18utf8_codecvt_facetC2Em
libboost_serialization.so.1.72.0:_ZN5boost7archive6detail18utf8_codecvt_facetD0Ev
libboost_serialization.so.1.72.0:_ZN5boost7archive6detail18utf8_codecvt_facetD1Ev
libboost_serialization.so.1.72.0:_ZN5boost7archive6detail18utf8_codecvt_facetD2Ev
libboost_serialization.so.1.72.0:_ZN5boost7archive6detail20basic_serializer_map5eraseEPKNS1_16basic_serializerE
libboost_serialization.so.1.72.0:_ZN5boost7archive6detail20basic_serializer_map6insertEPKNS1_16basic_serializerE
libboost_serialization.so.1.72.0:_ZN5boost7archive6detail25basic_pointer_iserializerC1ERKNS_13serialization18extended_type_infoE
libboost_serialization.so.1.72.0:_ZN5boost7archive6detail25basic_pointer_iserializerC2ERKNS_13serialization18extended_type_infoE
libboost_serialization.so.1.72.0:_ZN5boost7archive6detail25basic_pointer_iserializerD0Ev
libboost_serialization.so.1.72.0:_ZN5boost7archive6detail25basic_pointer_iserializerD1Ev
libboost_serialization.so.1.72.0:_ZN5boost7archive6detail25basic_pointer_iserializerD2Ev
libboost_serialization.so.1.72.0:_ZN5boost7archive6detail25basic_pointer_oserializerC1ERKNS_13serialization18extended_type_infoE
libboost_serialization.so.1.72.0:_ZN5boost7archive6detail25basic_pointer_oserializerC2ERKNS_13serialization18extended_type_infoE
libboost_serialization.so.1.72.0:_ZN5boost7archive6detail25basic_pointer_oserializerD0Ev
libboost_serialization.so.1.72.0:_ZN5boost7archive6detail25basic_pointer_oserializerD1Ev
libboost_serialization.so.1.72.0:_ZN5boost7archive6detail25basic_pointer_oserializerD2Ev
libboost_serialization.so.1.72.0:_ZNK5boost13serialization13typeid_system27extended_type_info_typeid_012is_less_thanERKNS0_18extended_type_infoE
libboost_serialization.so.1.72.0:_ZNK5boost13serialization13typeid_system27extended_type_info_typeid_022get_extended_type_infoERKSt9type_info
libboost_serialization.so.1.72.0:_ZNK5boost13serialization13typeid_system27extended_type_info_typeid_08is_equalERKNS0_18extended_type_infoE
libboost_serialization.so.1.72.0:_ZNK5boost13serialization14no_rtti_system28extended_type_info_no_rtti_012is_less_thanERKNS0_18extended_type_infoE
libboost_serialization.so.1.72.0:_ZNK5boost13serialization14no_rtti_system28extended_type_info_no_rtti_08is_equalERKNS0_18extended_type_infoE
libboost_serialization.so.1.72.0:_ZNK5boost13serialization16void_cast_detail11void_caster18recursive_registerEb
libboost_serialization.so.1.72.0:_ZNK5boost13serialization16void_cast_detail11void_caster20recursive_unregisterEv
libboost_serialization.so.1.72.0:_ZNK5boost13serialization16void_cast_detail11void_casterltERKS2_
libboost_serialization.so.1.72.0:_ZNK5boost13serialization18extended_type_info12key_registerEv
libboost_serialization.so.1.72.0:_ZNK5boost13serialization18extended_type_info14key_unregisterEv
libboost_serialization.so.1.72.0:_ZNK5boost13serialization18extended_type_infoeqERKS1_
libboost_serialization.so.1.72.0:_ZNK5boost13serialization18extended_type_infoltERKS1_
libboost_serialization.so.1.72.0:_ZNK5boost7archive12codecvt_nullIwE5do_inER11__mbstate_tPKcS6_RS6_PwS8_RS8_
libboost_serialization.so.1.72.0:_ZNK5boost7archive12codecvt_nullIwE6do_outER11__mbstate_tPKwS6_RS6_PcS8_RS8_
libboost_serialization.so.1.72.0:_ZNK5boost7archive17archive_exception4whatEv
libboost_serialization.so.1.72.0:_ZNK5boost7archive6detail14basic_iarchive19get_library_versionEv
libboost_serialization.so.1.72.0:_ZNK5boost7archive6detail14basic_iarchive9get_flagsEv
libboost_serialization.so.1.72.0:_ZNK5boost7archive6detail14basic_oarchive19get_library_versionEv
libboost_serialization.so.1.72.0:_ZNK5boost7archive6detail14basic_oarchive9get_flagsEv
libboost_serialization.so.1.72.0:_ZNK5boost7archive6detail18utf8_codecvt_facet24get_cont_octet_out_countEw
libboost_serialization.so.1.72.0:_ZNK5boost7archive6detail18utf8_codecvt_facet5do_inER11__mbstate_tPKcS6_RS6_PwS8_RS8_
libboost_serialization.so.1.72.0:_ZNK5boost7archive6detail18utf8_codecvt_facet6do_outER11__mbstate_tPKwS6_RS6_PcS8_RS8_
libboost_serialization.so.1.72.0:_ZNK5boost7archive6detail18utf8_codecvt_facet9do_lengthER11__mbstate_tPKcS6_m
libboost_serialization.so.1.72.0:_ZNK5boost7archive6detail20basic_serializer_map25type_info_pointer_compareclEPKNS1_16basic_serializerES6_
libboost_serialization.so.1.72.0:_ZNK5boost7archive6detail20basic_serializer_map4findERKNS_13serialization18extended_type_infoE
libboost_serialization.so.1.72.0:_ZTv0_n24_N5boost7archive17archive_exceptionD0Ev
libboost_serialization.so.1.72.0:_ZTv0_n24_N5boost7archive17archive_exceptionD1Ev
libboost_serialization.so.1.72.0:_ZTv0_n24_N5boost7archive21xml_archive_exceptionD0Ev
libboost_serialization.so.1.72.0:_ZTv0_n24_N5boost7archive21xml_archive_exceptionD1Ev
libboost_serialization.so.1.72.0:_ZTv0_n32_NK5boost7archive17archive_exception4whatEv
libboost_stacktrace_addr2line.so.1.72.0:_ZN5boost10stacktrace6detail18this_thread_frames7collectEPPKvmm
libboost_stacktrace_addr2line.so.1.72.0:_ZN5boost10stacktrace6detail4dumpEPKcPKPKvm
libboost_stacktrace_addr2line.so.1.72.0:_ZN5boost10stacktrace6detail4dumpEiPKPKvm
libboost_stacktrace_addr2line.so.1.72.0:_ZN5boost10stacktrace6detail9to_stringB5cxx11EPKNS0_5frameEm
libboost_stacktrace_addr2line.so.1.72.0:_ZN5boost10stacktrace9to_stringB5cxx11ERKNS0_5frameE
libboost_stacktrace_addr2line.so.1.72.0:_ZNK5boost10stacktrace5frame11source_fileB5cxx11Ev
libboost_stacktrace_addr2line.so.1.72.0:_ZNK5boost10stacktrace5frame11source_lineEv
libboost_stacktrace_addr2line.so.1.72.0:_ZNK5boost10stacktrace5frame4nameB5cxx11Ev
libboost_stacktrace_basic.so.1.72.0:_ZN5boost10stacktrace6detail18this_thread_frames7collectEPPKvmm
libboost_stacktrace_basic.so.1.72.0:_ZN5boost10stacktrace6detail4dumpEPKcPKPKvm
libboost_stacktrace_basic.so.1.72.0:_ZN5boost10stacktrace6detail4dumpEiPKPKvm
libboost_stacktrace_basic.so.1.72.0:_ZN5boost10stacktrace6detail9to_stringB5cxx11EPKNS0_5frameEm
libboost_stacktrace_basic.so.1.72.0:_ZN5boost10stacktrace9to_stringB5cxx11ERKNS0_5frameE
libboost_stacktrace_basic.so.1.72.0:_ZNK5boost10stacktrace5frame11source_fileB5cxx11Ev
libboost_stacktrace_basic.so.1.72.0:_ZNK5boost10stacktrace5frame11source_lineEv
libboost_stacktrace_basic.so.1.72.0:_ZNK5boost10stacktrace5frame4nameB5cxx11Ev
libboost_stacktrace_noop.so.1.72.0:_ZN5boost10stacktrace6detail18this_thread_frames7collectEPPKvmm
libboost_stacktrace_noop.so.1.72.0:_ZN5boost10stacktrace6detail4dumpEPKcPKPKvm
libboost_stacktrace_noop.so.1.72.0:_ZN5boost10stacktrace6detail4dumpEiPKPKvm
libboost_stacktrace_noop.so.1.72.0:_ZN5boost10stacktrace6detail9to_stringB5cxx11EPKNS0_5frameEm
libboost_stacktrace_noop.so.1.72.0:_ZN5boost10stacktrace9to_stringB5cxx11ERKNS0_5frameE
libboost_stacktrace_noop.so.1.72.0:_ZNK5boost10stacktrace5frame11source_fileB5cxx11Ev
libboost_stacktrace_noop.so.1.72.0:_ZNK5boost10stacktrace5frame11source_lineEv
libboost_stacktrace_noop.so.1.72.0:_ZNK5boost10stacktrace5frame4nameB5cxx11Ev
libboost_system.so.1.72.0:_ZN5boost6system23dummy_exported_functionEv
libboost_thread.so.1.72.0:_ZN5boost11this_thread18interruption_pointEv
libboost_thread.so.1.72.0:_ZN5boost11this_thread20disable_interruptionC1Ev
libboost_thread.so.1.72.0:_ZN5boost11this_thread20disable_interruptionC2Ev
libboost_thread.so.1.72.0:_ZN5boost11this_thread20disable_interruptionD1Ev
libboost_thread.so.1.72.0:_ZN5boost11this_thread20disable_interruptionD2Ev
libboost_thread.so.1.72.0:_ZN5boost11this_thread20interruption_enabledEv
libboost_thread.so.1.72.0:_ZN5boost11this_thread20restore_interruptionC1ERNS0_20disable_interruptionE
libboost_thread.so.1.72.0:_ZN5boost11this_thread20restore_interruptionC2ERNS0_20disable_interruptionE
libboost_thread.so.1.72.0:_ZN5boost11this_thread20restore_interruptionD1Ev
libboost_thread.so.1.72.0:_ZN5boost11this_thread20restore_interruptionD2Ev
libboost_thread.so.1.72.0:_ZN5boost11this_thread21no_interruption_point6hidden18sleep_for_internalERKNS_6detail17platform_durationE
libboost_thread.so.1.72.0:_ZN5boost11this_thread22interruption_requestedEv
libboost_thread.so.1.72.0:_ZN5boost11this_thread5yieldEv
libboost_thread.so.1.72.0:_ZN5boost13thread_detail17enter_once_regionERNS_9once_flagE
libboost_thread.so.1.72.0:_ZN5boost13thread_detail18commit_once_regionERNS_9once_flagE
libboost_thread.so.1.72.0:_ZN5boost13thread_detail20rollback_once_regionERNS_9once_flagE
libboost_thread.so.1.72.0:_ZN5boost15future_categoryEv
libboost_thread.so.1.72.0:_ZN5boost25notify_all_at_thread_exitERNS_18condition_variableENS_11unique_lockINS_5mutexEEE
libboost_thread.so.1.72.0:_ZN5boost6detail12get_tss_dataEPKv
libboost_thread.so.1.72.0:_ZN5boost6detail12set_tss_dataEPKvPFvPFvPvES3_ES5_S3_b
libboost_thread.so.1.72.0:_ZN5boost6detail16thread_data_baseD0Ev
libboost_thread.so.1.72.0:_ZN5boost6detail16thread_data_baseD1Ev
libboost_thread.so.1.72.0:_ZN5boost6detail16thread_data_baseD2Ev
libboost_thread.so.1.72.0:_ZN5boost6detail23get_current_thread_dataEv
libboost_thread.so.1.72.0:_ZN5boost6detail24add_thread_exit_functionEPNS0_25thread_exit_function_baseE
libboost_thread.so.1.72.0:_ZN5boost6detail25make_ready_at_thread_exitENS_10shared_ptrINS0_17shared_state_baseEEE
libboost_thread.so.1.72.0:_ZN5boost6thread13join_noexceptEv
libboost_thread.so.1.72.0:_ZN5boost6thread13native_handleEv
libboost_thread.so.1.72.0:_ZN5boost6thread20hardware_concurrencyEv
libboost_thread.so.1.72.0:_ZN5boost6thread20physical_concurrencyEv
libboost_thread.so.1.72.0:_ZN5boost6thread21start_thread_noexceptERKNS_17thread_attributesE
libboost_thread.so.1.72.0:_ZN5boost6thread21start_thread_noexceptEv
libboost_thread.so.1.72.0:_ZN5boost6thread26do_try_join_until_noexceptERKNS_6detail23mono_platform_timepointERb
libboost_thread.so.1.72.0:_ZN5boost6thread6detachEv
libboost_thread.so.1.72.0:_ZN5boost6thread9interruptEv
libboost_thread.so.1.72.0:_ZN5boost6threadC1Ev
libboost_thread.so.1.72.0:_ZN5boost6threadC2Ev
libboost_thread.so.1.72.0:_ZNK5boost6thread15get_thread_infoEv
libboost_thread.so.1.72.0:_ZNK5boost6thread22interruption_requestedEv
libboost_thread.so.1.72.0:_ZNK5boost6thread8joinableEv
libboost_timer.so.1.72.0:_ZN5boost5timer14auto_cpu_timer6reportEv
libboost_timer.so.1.72.0:_ZN5boost5timer14auto_cpu_timerC1ERKNSt7__cxx1112basic_stringIcSt11char_traitsIcESaIcEEE
libboost_timer.so.1.72.0:_ZN5boost5timer14auto_cpu_timerC1ERSos
libboost_timer.so.1.72.0:_ZN5boost5timer14auto_cpu_timerC1Es
libboost_timer.so.1.72.0:_ZN5boost5timer14auto_cpu_timerC1EsRKNSt7__cxx1112basic_stringIcSt11char_traitsIcESaIcEEE
libboost_timer.so.1.72.0:_ZN5boost5timer14auto_cpu_timerC2ERKNSt7__cxx1112basic_stringIcSt11char_traitsIcESaIcEEE
libboost_timer.so.1.72.0:_ZN5boost5timer14auto_cpu_timerC2ERSos
libboost_timer.so.1.72.0:_ZN5boost5timer14auto_cpu_timerC2Es
libboost_timer.so.1.72.0:_ZN5boost5timer14auto_cpu_timerC2EsRKNSt7__cxx1112basic_stringIcSt11char_traitsIcESaIcEEE
libboost_timer.so.1.72.0:_ZN5boost5timer14auto_cpu_timerD1Ev
libboost_timer.so.1.72.0:_ZN5boost5timer14auto_cpu_timerD2Ev
libboost_timer.so.1.72.0:_ZN5boost5timer6formatB5cxx11ERKNS0_9cpu_timesEs
libboost_timer.so.1.72.0:_ZN5boost5timer6formatERKNS0_9cpu_timesEsRKNSt7__cxx1112basic_stringIcSt11char_traitsIcESaIcEEE
libboost_timer.so.1.72.0:_ZN5boost5timer9cpu_timer4stopEv
libboost_timer.so.1.72.0:_ZN5boost5timer9cpu_timer5startEv
libboost_timer.so.1.72.0:_ZN5boost5timer9cpu_timer6resumeEv
libboost_timer.so.1.72.0:_ZNK5boost5timer9cpu_timer7elapsedEv
libboost_type_erasure.so.1.72.0:_ZN5boost12type_erasure6detail20lookup_function_implERKSt6vectorIPKSt9type_infoSaIS5_EE
libboost_type_erasure.so.1.72.0:_ZN5boost12type_erasure6detail22register_function_implERKSt6vectorIPKSt9type_infoSaIS5_EEPFvvE
libboost_unit_test_framework.so.1.72.0:_ZN5boost10test_tools18output_test_stream12check_lengthEmb
libboost_unit_test_framework.so.1.72.0:_ZN5boost10test_tools18output_test_stream13match_patternEb
libboost_unit_test_framework.so.1.72.0:_ZN5boost10test_tools18output_test_stream4syncEv
libboost_unit_test_framework.so.1.72.0:_ZN5boost10test_tools18output_test_stream5flushEv
libboost_unit_test_framework.so.1.72.0:_ZN5boost10test_tools18output_test_stream6lengthEv
libboost_unit_test_framework.so.1.72.0:_ZN5boost10test_tools18output_test_stream8is_emptyEb
libboost_unit_test_framework.so.1.72.0:_ZN5boost10test_tools18output_test_stream8is_equalENS_9unit_test13basic_cstringIKcEEb
libboost_unit_test_framework.so.1.72.0:_ZN5boost10test_tools18output_test_streamC1ENS_9unit_test13basic_cstringIKcEEbb
libboost_unit_test_framework.so.1.72.0:_ZN5boost10test_tools18output_test_streamC2ENS_9unit_test13basic_cstringIKcEEbb
libboost_unit_test_framework.so.1.72.0:_ZN5boost10test_tools18output_test_streamD0Ev
libboost_unit_test_framework.so.1.72.0:_ZN5boost10test_tools18output_test_streamD1Ev
libboost_unit_test_framework.so.1.72.0:_ZN5boost10test_tools18output_test_streamD2Ev
libboost_unit_test_framework.so.1.72.0:_ZN5boost10test_tools9tt_detail10equal_implEPKcS3_
libboost_unit_test_framework.so.1.72.0:_ZN5boost10test_tools9tt_detail10equal_implEPKwS3_
libboost_unit_test_framework.so.1.72.0:_ZN5boost10test_tools9tt_detail13context_frameC1ERKNS_9unit_test12lazy_ostreamE
libboost_unit_test_framework.so.1.72.0:_ZN5boost10test_tools9tt_detail13context_frameC2ERKNS_9unit_test12lazy_ostreamE
libboost_unit_test_framework.so.1.72.0:_ZN5boost10test_tools9tt_detail13context_frameD1Ev
libboost_unit_test_framework.so.1.72.0:_ZN5boost10test_tools9tt_detail13context_frameD2Ev
libboost_unit_test_framework.so.1.72.0:_ZN5boost10test_tools9tt_detail13context_framecvbEv
libboost_unit_test_framework.so.1.72.0:_ZN5boost10test_tools9tt_detail15is_defined_implENS_9unit_test13basic_cstringIKcEES5_
libboost_unit_test_framework.so.1.72.0:_ZN5boost10test_tools9tt_detail15print_log_valueIPKcEclERSoS4_
libboost_unit_test_framework.so.1.72.0:_ZN5boost10test_tools9tt_detail15print_log_valueIPKwEclERSoS4_
libboost_unit_test_framework.so.1.72.0:_ZN5boost10test_tools9tt_detail15print_log_valueIbEclERSob
libboost_unit_test_framework.so.1.72.0:_ZN5boost10test_tools9tt_detail15print_log_valueIcEclERSoc
libboost_unit_test_framework.so.1.72.0:_ZN5boost10test_tools9tt_detail15print_log_valueIhEclERSoh
libboost_unit_test_framework.so.1.72.0:_ZN5boost10test_tools9tt_detail16report_assertionERKNS0_16assertion_resultERKNS_9unit_test12lazy_ostreamENS5_13basic_cstringIKcEEmNS1_10tool_levelENS1_10check_typeEmz
libboost_unit_test_framework.so.1.72.0:_ZN5boost10test_tools9tt_detail18prod_report_formatB5cxx11ERKNS0_16assertion_resultERKNS_9unit_test12lazy_ostreamENS1_10check_typeEmz
libboost_unit_test_framework.so.1.72.0:_ZN5boost10test_tools9tt_detail23format_assertion_resultENS_9unit_test13basic_cstringIKcEES5_
libboost_unit_test_framework.so.1.72.0:_ZN5boost17execution_monitor13catch_signalsERKNS_8functionIFivEEE
libboost_unit_test_framework.so.1.72.0:_ZN5boost17execution_monitor7executeERKNS_8functionIFivEEE
libboost_unit_test_framework.so.1.72.0:_ZN5boost17execution_monitor8vexecuteERKNS_8functionIFvvEEE
libboost_unit_test_framework.so.1.72.0:_ZN5boost17execution_monitorC1Ev
libboost_unit_test_framework.so.1.72.0:_ZN5boost17execution_monitorC2Ev
libboost_unit_test_framework.so.1.72.0:_ZN5boost19execution_exception8locationC1ENS_9unit_test13basic_cstringIKcEEmPS4_
libboost_unit_test_framework.so.1.72.0:_ZN5boost19execution_exception8locationC1EPKcmS3_
libboost_unit_test_framework.so.1.72.0:_ZN5boost19execution_exception8locationC2ENS_9unit_test13basic_cstringIKcEEmPS4_
libboost_unit_test_framework.so.1.72.0:_ZN5boost19execution_exception8locationC2EPKcmS3_
libboost_unit_test_framework.so.1.72.0:_ZN5boost19execution_exceptionC1ENS0_10error_codeENS_9unit_test13basic_cstringIKcEERKNS0_8locationE
libboost_unit_test_framework.so.1.72.0:_ZN5boost19execution_exceptionC2ENS0_10error_codeENS_9unit_test13basic_cstringIKcEERKNS0_8locationE
libboost_unit_test_framework.so.1.72.0:_ZN5boost3fpe6enableEj
libboost_unit_test_framework.so.1.72.0:_ZN5boost3fpe7disableEj
libboost_unit_test_framework.so.1.72.0:_ZN5boost5debug12set_debuggerB5cxx11ENS_9unit_test13basic_cstringIKcEENS_8functionIFvRKNS0_16dbg_startup_infoEEEE
libboost_unit_test_framework.so.1.72.0:_ZN5boost5debug14debugger_breakEv
libboost_unit_test_framework.so.1.72.0:_ZN5boost5debug14under_debuggerEv
libboost_unit_test_framework.so.1.72.0:_ZN5boost5debug15attach_debuggerEb
libboost_unit_test_framework.so.1.72.0:_ZN5boost5debug18break_memory_allocEl
libboost_unit_test_framework.so.1.72.0:_ZN5boost5debug19detect_memory_leaksEbNS_9unit_test13basic_cstringIKcEE
libboost_unit_test_framework.so.1.72.0:_ZN5boost9unit_test10test_suite30check_for_duplicate_test_casesEv
libboost_unit_test_framework.so.1.72.0:_ZN5boost9unit_test10test_suite3addENS_10shared_ptrINS0_19test_unit_generatorEEERNS0_9decorator11collector_tE
libboost_unit_test_framework.so.1.72.0:_ZN5boost9unit_test10test_suite3addEPNS0_9test_unitEmj
libboost_unit_test_framework.so.1.72.0:_ZN5boost9unit_test10test_suite3addERKNS0_19test_unit_generatorERNS0_9decorator11collector_tE
libboost_unit_test_framework.so.1.72.0:_ZN5boost9unit_test10test_suite3addERKNS0_19test_unit_generatorEj
libboost_unit_test_framework.so.1.72.0:_ZN5boost9unit_test10test_suite6removeEm
libboost_unit_test_framework.so.1.72.0:_ZN5boost9unit_test10test_suite8generateEv
libboost_unit_test_framework.so.1.72.0:_ZN5boost9unit_test10test_suiteC1ENS0_13basic_cstringIKcEE
libboost_unit_test_framework.so.1.72.0:_ZN5boost9unit_test10test_suiteC1ENS0_13basic_cstringIKcEES4_m
libboost_unit_test_framework.so.1.72.0:_ZN5boost9unit_test10test_suiteC2ENS0_13basic_cstringIKcEE
libboost_unit_test_framework.so.1.72.0:_ZN5boost9unit_test10test_suiteC2ENS0_13basic_cstringIKcEES4_m
libboost_unit_test_framework.so.1.72.0:_ZN5boost9unit_test12lazy_ostream4instE
libboost_unit_test_framework.so.1.72.0:_ZN5boost9unit_test12test_results5clearEv
libboost_unit_test_framework.so.1.72.0:_ZN5boost9unit_test12test_resultsC1Ev
libboost_unit_test_framework.so.1.72.0:_ZN5boost9unit_test12test_resultsC2Ev
libboost_unit_test_framework.so.1.72.0:_ZN5boost9unit_test12test_resultspLERKS1_
libboost_unit_test_framework.so.1.72.0:_ZN5boost9unit_test14global_fixture25unregister_from_frameworkEv
libboost_unit_test_framework.so.1.72.0:_ZN5boost9unit_test14global_fixtureC1Ev
libboost_unit_test_framework.so.1.72.0:_ZN5boost9unit_test14global_fixtureC2Ev
libboost_unit_test_framework.so.1.72.0:_ZN5boost9unit_test14global_fixtureD0Ev
libboost_unit_test_framework.so.1.72.0:_ZN5boost9unit_test14global_fixtureD1Ev
libboost_unit_test_framework.so.1.72.0:_ZN5boost9unit_test14global_fixtureD2Ev
libboost_unit_test_framework.so.1.72.0:_ZN5boost9unit_test14runtime_config10btrt_usageB5cxx11E
libboost_unit_test_framework.so.1.72.0:_ZN5boost9unit_test14runtime_config12btrt_versionB5cxx11E
libboost_unit_test_framework.so.1.72.0:_ZN5boost9unit_test14runtime_config12save_patternEv
libboost_unit_test_framework.so.1.72.0:_ZN5boost9unit_test14runtime_config13btrt_log_sinkB5cxx11E
libboost_unit_test_framework.so.1.72.0:_ZN5boost9unit_test14runtime_config14argument_storeEv
libboost_unit_test_framework.so.1.72.0:_ZN5boost9unit_test14runtime_config14btrt_log_levelB5cxx11E
libboost_unit_test_framework.so.1.72.0:_ZN5boost9unit_test14runtime_config15btrt_build_infoB5cxx11E
libboost_unit_test_framework.so.1.72.0:_ZN5boost9unit_test14runtime_config15btrt_log_formatB5cxx11E
libboost_unit_test_framework.so.1.72.0:_ZN5boost9unit_test14runtime_config16btrt_list_labelsB5cxx11E
libboost_unit_test_framework.so.1.72.0:_ZN5boost9unit_test14runtime_config16btrt_random_seedB5cxx11E
libboost_unit_test_framework.so.1.72.0:_ZN5boost9unit_test14runtime_config16btrt_report_sinkB5cxx11E
libboost_unit_test_framework.so.1.72.0:_ZN5boost9unit_test14runtime_config16btrt_result_codeB5cxx11E
libboost_unit_test_framework.so.1.72.0:_ZN5boost9unit_test14runtime_config16btrt_run_filtersB5cxx11E
libboost_unit_test_framework.so.1.72.0:_ZN5boost9unit_test14runtime_config17btrt_color_outputB5cxx11E
libboost_unit_test_framework.so.1.72.0:_ZN5boost9unit_test14runtime_config17btrt_list_contentB5cxx11E
libboost_unit_test_framework.so.1.72.0:_ZN5boost9unit_test14runtime_config17btrt_report_levelB5cxx11E
libboost_unit_test_framework.so.1.72.0:_ZN5boost9unit_test14runtime_config18btrt_output_formatB5cxx11E
libboost_unit_test_framework.so.1.72.0:_ZN5boost9unit_test14runtime_config18btrt_report_formatB5cxx11E
libboost_unit_test_framework.so.1.72.0:_ZN5boost9unit_test14runtime_config18btrt_show_progressB5cxx11E
libboost_unit_test_framework.so.1.72.0:_ZN5boost9unit_test14runtime_config18btrt_use_alt_stackB5cxx11E
libboost_unit_test_framework.so.1.72.0:_ZN5boost9unit_test14runtime_config19btrt_auto_start_dbgB5cxx11E
libboost_unit_test_framework.so.1.72.0:_ZN5boost9unit_test14runtime_config20btrt_break_exec_pathB5cxx11E
libboost_unit_test_framework.so.1.72.0:_ZN5boost9unit_test14runtime_config20btrt_combined_loggerB5cxx11E
libboost_unit_test_framework.so.1.72.0:_ZN5boost9unit_test14runtime_config21btrt_catch_sys_errorsB5cxx11E
libboost_unit_test_framework.so.1.72.0:_ZN5boost9unit_test14runtime_config21btrt_detect_fp_exceptB5cxx11E
libboost_unit_test_framework.so.1.72.0:_ZN5boost9unit_test14runtime_config21btrt_detect_mem_leaksB5cxx11E
libboost_unit_test_framework.so.1.72.0:_ZN5boost9unit_test14runtime_config21btrt_report_mem_leaksB5cxx11E
libboost_unit_test_framework.so.1.72.0:_ZN5boost9unit_test14runtime_config22btrt_save_test_patternB5cxx11E
libboost_unit_test_framework.so.1.72.0:_ZN5boost9unit_test14runtime_config22btrt_wait_for_debuggerB5cxx11E
libboost_unit_test_framework.so.1.72.0:_ZN5boost9unit_test14runtime_config4initERiPPc
libboost_unit_test_framework.so.1.72.0:_ZN5boost9unit_test14runtime_config9btrt_helpB5cxx11E
libboost_unit_test_framework.so.1.72.0:_ZN5boost9unit_test14unit_test_mainEPFbvEiPPc
libboost_unit_test_framework.so.1.72.0:_ZN5boost9unit_test15unit_test_log_t10add_formatENS0_13output_formatE
libboost_unit_test_framework.so.1.72.0:_ZN5boost9unit_test15unit_test_log_t10set_formatENS0_13output_formatE
libboost_unit_test_framework.so.1.72.0:_ZN5boost9unit_test15unit_test_log_t10set_streamENS0_13output_formatERSo
libboost_unit_test_framework.so.1.72.0:_ZN5boost9unit_test15unit_test_log_t10set_streamERSo
libboost_unit_test_framework.so.1.72.0:_ZN5boost9unit_test15unit_test_log_t10test_startEm
libboost_unit_test_framework.so.1.72.0:_ZN5boost9unit_test15unit_test_log_t11test_finishEv
libboost_unit_test_framework.so.1.72.0:_ZN5boost9unit_test15unit_test_log_t12test_abortedEv
libboost_unit_test_framework.so.1.72.0:_ZN5boost9unit_test15unit_test_log_t13add_formatterEPNS0_23unit_test_log_formatterE
libboost_unit_test_framework.so.1.72.0:_ZN5boost9unit_test15unit_test_log_t13get_formatterENS0_13output_formatE
libboost_unit_test_framework.so.1.72.0:_ZN5boost9unit_test15unit_test_log_t13set_formatterEPNS0_23unit_test_log_formatterE
libboost_unit_test_framework.so.1.72.0:_ZN5boost9unit_test15unit_test_log_t14set_checkpointENS0_13basic_cstringIKcEEmS4_
libboost_unit_test_framework.so.1.72.0:_ZN5boost9unit_test15unit_test_log_t15log_entry_startENS0_13output_formatE
libboost_unit_test_framework.so.1.72.0:_ZN5boost9unit_test15unit_test_log_t15test_unit_startERKNS0_9test_unitE
libboost_unit_test_framework.so.1.72.0:_ZN5boost9unit_test15unit_test_log_t16exception_caughtERKNS_19execution_exceptionE
libboost_unit_test_framework.so.1.72.0:_ZN5boost9unit_test15unit_test_log_t16test_unit_finishERKNS0_9test_unitEm
libboost_unit_test_framework.so.1.72.0:_ZN5boost9unit_test15unit_test_log_t17log_entry_contextENS0_9log_levelE
libboost_unit_test_framework.so.1.72.0:_ZN5boost9unit_test15unit_test_log_t17test_unit_abortedERKNS0_9test_unitE
libboost_unit_test_framework.so.1.72.0:_ZN5boost9unit_test15unit_test_log_t17test_unit_skippedERKNS0_9test_unitENS0_13basic_cstringIKcEE
libboost_unit_test_framework.so.1.72.0:_ZN5boost9unit_test15unit_test_log_t19clear_entry_contextEv
libboost_unit_test_framework.so.1.72.0:_ZN5boost9unit_test15unit_test_log_t19set_threshold_levelENS0_13output_formatENS0_9log_levelE
libboost_unit_test_framework.so.1.72.0:_ZN5boost9unit_test15unit_test_log_t19set_threshold_levelENS0_9log_levelE
libboost_unit_test_framework.so.1.72.0:_ZN5boost9unit_test15unit_test_log_t19test_unit_timed_outERKNS0_9test_unitE
libboost_unit_test_framework.so.1.72.0:_ZN5boost9unit_test15unit_test_log_t8instanceEv
libboost_unit_test_framework.so.1.72.0:_ZN5boost9unit_test15unit_test_log_tclENS0_9log_levelE
libboost_unit_test_framework.so.1.72.0:_ZN5boost9unit_test15unit_test_log_tlsENS0_13basic_cstringIKcEE
libboost_unit_test_framework.so.1.72.0:_ZN5boost9unit_test15unit_test_log_tlsENS0_9log_levelE
libboost_unit_test_framework.so.1.72.0:_ZN5boost9unit_test15unit_test_log_tlsERKNS0_12lazy_ostreamE
libboost_unit_test_framework.so.1.72.0:_ZN5boost9unit_test15unit_test_log_tlsERKNS0_3log3endE
libboost_unit_test_framework.so.1.72.0:_ZN5boost9unit_test15unit_test_log_tlsERKNS0_3log5beginE
libboost_unit_test_framework.so.1.72.0:_ZN5boost9unit_test16results_reporter10get_streamEv
libboost_unit_test_framework.so.1.72.0:_ZN5boost9unit_test16results_reporter10set_formatENS0_13output_formatE
libboost_unit_test_framework.so.1.72.0:_ZN5boost9unit_test16results_reporter10set_formatEPNS1_6formatE
libboost_unit_test_framework.so.1.72.0:_ZN5boost9unit_test16results_reporter10set_streamERSo
libboost_unit_test_framework.so.1.72.0:_ZN5boost9unit_test16results_reporter11make_reportENS0_12report_levelEm
libboost_unit_test_framework.so.1.72.0:_ZN5boost9unit_test16results_reporter9set_levelENS0_12report_levelE
libboost_unit_test_framework.so.1.72.0:_ZN5boost9unit_test18progress_monitor_t10set_streamERSo
libboost_unit_test_framework.so.1.72.0:_ZN5boost9unit_test18progress_monitor_t10test_startEm
libboost_unit_test_framework.so.1.72.0:_ZN5boost9unit_test18progress_monitor_t12test_abortedEv
libboost_unit_test_framework.so.1.72.0:_ZN5boost9unit_test18progress_monitor_t16test_unit_finishERKNS0_9test_unitEm
libboost_unit_test_framework.so.1.72.0:_ZN5boost9unit_test18progress_monitor_t17test_unit_skippedERKNS0_9test_unitENS0_13basic_cstringIKcEE
libboost_unit_test_framework.so.1.72.0:_ZN5boost9unit_test18progress_monitor_t8instanceEv
libboost_unit_test_framework.so.1.72.0:_ZN5boost9unit_test18traverse_test_treeERKNS0_10test_suiteERNS0_17test_tree_visitorEb
libboost_unit_test_framework.so.1.72.0:_ZN5boost9unit_test18traverse_test_treeERKNS0_9test_caseERNS0_17test_tree_visitorEb
libboost_unit_test_framework.so.1.72.0:_ZN5boost9unit_test18traverse_test_treeEmRNS0_17test_tree_visitorEb
libboost_unit_test_framework.so.1.72.0:_ZN5boost9unit_test19master_test_suite_tC1Ev
libboost_unit_test_framework.so.1.72.0:_ZN5boost9unit_test19master_test_suite_tC2Ev
libboost_unit_test_framework.so.1.72.0:_ZN5boost9unit_test19results_collector_t10test_startEm
libboost_unit_test_framework.so.1.72.0:_ZN5boost9unit_test19results_collector_t15test_unit_startERKNS0_9test_unitE
libboost_unit_test_framework.so.1.72.0:_ZN5boost9unit_test19results_collector_t16assertion_resultENS0_16assertion_resultE
libboost_unit_test_framework.so.1.72.0:_ZN5boost9unit_test19results_collector_t16exception_caughtERKNS_19execution_exceptionE
libboost_unit_test_framework.so.1.72.0:_ZN5boost9unit_test19results_collector_t16test_unit_finishERKNS0_9test_unitEm
libboost_unit_test_framework.so.1.72.0:_ZN5boost9unit_test19results_collector_t17test_unit_abortedERKNS0_9test_unitE
libboost_unit_test_framework.so.1.72.0:_ZN5boost9unit_test19results_collector_t17test_unit_skippedERKNS0_9test_unitENS0_13basic_cstringIKcEE
libboost_unit_test_framework.so.1.72.0:_ZN5boost9unit_test19results_collector_t19test_unit_timed_outERKNS0_9test_unitE
libboost_unit_test_framework.so.1.72.0:_ZN5boost9unit_test19results_collector_t8instanceEv
libboost_unit_test_framework.so.1.72.0:_ZN5boost9unit_test19unit_test_monitor_t21execute_and_translateERKNS_8functionIFvvEEEm
libboost_unit_test_framework.so.1.72.0:_ZN5boost9unit_test19unit_test_monitor_t8instanceEv
libboost_unit_test_framework.so.1.72.0:_ZN5boost9unit_test20global_configuration25unregister_from_frameworkEv
libboost_unit_test_framework.so.1.72.0:_ZN5boost9unit_test20global_configurationC1Ev
libboost_unit_test_framework.so.1.72.0:_ZN5boost9unit_test20global_configurationC2Ev
libboost_unit_test_framework.so.1.72.0:_ZN5boost9unit_test20global_configurationD0Ev
libboost_unit_test_framework.so.1.72.0:_ZN5boost9unit_test20global_configurationD1Ev
libboost_unit_test_framework.so.1.72.0:_ZN5boost9unit_test20global_configurationD2Ev
libboost_unit_test_framework.so.1.72.0:_ZN5boost9unit_test23unit_test_log_formatter13set_log_levelENS0_9log_levelE
libboost_unit_test_framework.so.1.72.0:_ZN5boost9unit_test23unit_test_log_formatter15log_entry_valueERSoRKNS0_12lazy_ostreamE
libboost_unit_test_framework.so.1.72.0:_ZN5boost9unit_test25framework_init_observer_t10test_startEm
libboost_unit_test_framework.so.1.72.0:_ZN5boost9unit_test25framework_init_observer_t12test_abortedEv
libboost_unit_test_framework.so.1.72.0:_ZN5boost9unit_test25framework_init_observer_t16assertion_resultENS0_16assertion_resultE
libboost_unit_test_framework.so.1.72.0:_ZN5boost9unit_test25framework_init_observer_t16exception_caughtERKNS_19execution_exceptionE
libboost_unit_test_framework.so.1.72.0:_ZN5boost9unit_test25framework_init_observer_t5clearEv
libboost_unit_test_framework.so.1.72.0:_ZN5boost9unit_test25framework_init_observer_t8instanceEv
libboost_unit_test_framework.so.1.72.0:_ZN5boost9unit_test6output22compiler_log_formatter10log_finishERSo
libboost_unit_test_framework.so.1.72.0:_ZN5boost9unit_test6output22compiler_log_formatter12print_prefixERSoNS0_13basic_cstringIKcEEm
libboost_unit_test_framework.so.1.72.0:_ZN5boost9unit_test6output22compiler_log_formatter14log_build_infoERSob
libboost_unit_test_framework.so.1.72.0:_ZN5boost9unit_test6output22compiler_log_formatter15log_entry_startERSoRKNS0_14log_entry_dataENS0_23unit_test_log_formatter15log_entry_typesE
libboost_unit_test_framework.so.1.72.0:_ZN5boost9unit_test6output22compiler_log_formatter15log_entry_valueERSoNS0_13basic_cstringIKcEE
libboost_unit_test_framework.so.1.72.0:_ZN5boost9unit_test6output22compiler_log_formatter15log_entry_valueERSoRKNS0_12lazy_ostreamE
libboost_unit_test_framework.so.1.72.0:_ZN5boost9unit_test6output22compiler_log_formatter15test_unit_startERSoRKNS0_9test_unitE
libboost_unit_test_framework.so.1.72.0:_ZN5boost9unit_test6output22compiler_log_formatter16log_entry_finishERSo
libboost_unit_test_framework.so.1.72.0:_ZN5boost9unit_test6output22compiler_log_formatter16test_unit_finishERSoRKNS0_9test_unitEm
libboost_unit_test_framework.so.1.72.0:_ZN5boost9unit_test6output22compiler_log_formatter17log_entry_contextERSoNS0_9log_levelENS0_13basic_cstringIKcEE
libboost_unit_test_framework.so.1.72.0:_ZN5boost9unit_test6output22compiler_log_formatter17test_unit_skippedERSoRKNS0_9test_unitENS0_13basic_cstringIKcEE
libboost_unit_test_framework.so.1.72.0:_ZN5boost9unit_test6output22compiler_log_formatter19entry_context_startERSoNS0_9log_levelE
libboost_unit_test_framework.so.1.72.0:_ZN5boost9unit_test6output22compiler_log_formatter19log_exception_startERSoRKNS0_19log_checkpoint_dataERKNS_19execution_exceptionE
libboost_unit_test_framework.so.1.72.0:_ZN5boost9unit_test6output22compiler_log_formatter20entry_context_finishERSoNS0_9log_levelE
libboost_unit_test_framework.so.1.72.0:_ZN5boost9unit_test6output22compiler_log_formatter20log_exception_finishERSo
libboost_unit_test_framework.so.1.72.0:_ZN5boost9unit_test6output22compiler_log_formatter9log_startERSom
libboost_unit_test_framework.so.1.72.0:_ZN5boost9unit_test9decorator10depends_on5applyERNS0_9test_unitE
libboost_unit_test_framework.so.1.72.0:_ZN5boost9unit_test9decorator11collector_t5resetEv
libboost_unit_test_framework.so.1.72.0:_ZN5boost9unit_test9decorator11collector_t5stackEv
libboost_unit_test_framework.so.1.72.0:_ZN5boost9unit_test9decorator11collector_t8instanceEv
libboost_unit_test_framework.so.1.72.0:_ZN5boost9unit_test9decorator11collector_t8store_inERNS0_9test_unitE
libboost_unit_test_framework.so.1.72.0:_ZN5boost9unit_test9decorator11collector_tmlERKNS1_4baseE
libboost_unit_test_framework.so.1.72.0:_ZN5boost9unit_test9decorator11description5applyERNS0_9test_unitE
libboost_unit_test_framework.so.1.72.0:_ZN5boost9unit_test9decorator12precondition5applyERNS0_9test_unitE
libboost_unit_test_framework.so.1.72.0:_ZN5boost9unit_test9decorator14enable_if_impl10apply_implERNS0_9test_unitEb
libboost_unit_test_framework.so.1.72.0:_ZN5boost9unit_test9decorator15stack_decorator5applyERNS0_9test_unitE
libboost_unit_test_framework.so.1.72.0:_ZN5boost9unit_test9decorator17expected_failures5applyERNS0_9test_unitE
libboost_unit_test_framework.so.1.72.0:_ZN5boost9unit_test9decorator5label5applyERNS0_9test_unitE
libboost_unit_test_framework.so.1.72.0:_ZN5boost9unit_test9decorator7timeout5applyERNS0_9test_unitE
libboost_unit_test_framework.so.1.72.0:_ZN5boost9unit_test9decorator9fixture_t5applyERNS0_9test_unitE
libboost_unit_test_framework.so.1.72.0:_ZN5boost9unit_test9framework11add_contextERKNS0_12lazy_ostreamEb
libboost_unit_test_framework.so.1.72.0:_ZN5boost9unit_test9framework11get_contextEv
libboost_unit_test_framework.so.1.72.0:_ZN5boost9unit_test9framework12test_abortedEv
libboost_unit_test_framework.so.1.72.0:_ZN5boost9unit_test9framework13clear_contextEi
libboost_unit_test_framework.so.1.72.0:_ZN5boost9unit_test9framework16assertion_resultENS0_16assertion_resultE
libboost_unit_test_framework.so.1.72.0:_ZN5boost9unit_test9framework16exception_caughtERKNS_19execution_exceptionE
libboost_unit_test_framework.so.1.72.0:_ZN5boost9unit_test9framework16test_in_progressEv
libboost_unit_test_framework.so.1.72.0:_ZN5boost9unit_test9framework17current_test_caseEv
libboost_unit_test_framework.so.1.72.0:_ZN5boost9unit_test9framework17current_test_unitEv
libboost_unit_test_framework.so.1.72.0:_ZN5boost9unit_test9framework17master_test_suiteEv
libboost_unit_test_framework.so.1.72.0:_ZN5boost9unit_test9framework17register_observerERNS0_13test_observerE
libboost_unit_test_framework.so.1.72.0:_ZN5boost9unit_test9framework17test_unit_abortedERKNS0_9test_unitE
libboost_unit_test_framework.so.1.72.0:_ZN5boost9unit_test9framework18register_test_unitEPNS0_10test_suiteE
libboost_unit_test_framework.so.1.72.0:_ZN5boost9unit_test9framework18register_test_unitEPNS0_9test_caseE
libboost_unit_test_framework.so.1.72.0:_ZN5boost9unit_test9framework19deregister_observerERNS0_13test_observerE
libboost_unit_test_framework.so.1.72.0:_ZN5boost9unit_test9framework20current_test_case_idEv
libboost_unit_test_framework.so.1.72.0:_ZN5boost9unit_test9framework20deregister_test_unitEPNS0_9test_unitE
libboost_unit_test_framework.so.1.72.0:_ZN5boost9unit_test9framework20finalize_setup_phaseEm
libboost_unit_test_framework.so.1.72.0:_ZN5boost9unit_test9framework23current_auto_test_suiteEPNS0_10test_suiteEb
libboost_unit_test_framework.so.1.72.0:_ZN5boost9unit_test9framework23register_global_fixtureERNS0_14global_fixtureE
libboost_unit_test_framework.so.1.72.0:_ZN5boost9unit_test9framework25deregister_global_fixtureERNS0_14global_fixtureE
libboost_unit_test_framework.so.1.72.0:_ZN5boost9unit_test9framework3getEmNS0_14test_unit_typeE
libboost_unit_test_framework.so.1.72.0:_ZN5boost9unit_test9framework3runEPKNS0_9test_unitEb
libboost_unit_test_framework.so.1.72.0:_ZN5boost9unit_test9framework3runEmb
libboost_unit_test_framework.so.1.72.0:_ZN5boost9unit_test9framework4impl13setup_loggersEv
libboost_unit_test_framework.so.1.72.0:_ZN5boost9unit_test9framework4impl19setup_for_executionERKNS0_9test_unitE
libboost_unit_test_framework.so.1.72.0:_ZN5boost9unit_test9framework4impl29master_test_suite_name_setterC1ENS0_13basic_cstringIKcEE
libboost_unit_test_framework.so.1.72.0:_ZN5boost9unit_test9framework4impl29master_test_suite_name_setterC2ENS0_13basic_cstringIKcEE
libboost_unit_test_framework.so.1.72.0:_ZN5boost9unit_test9framework4initEPFbvEiPPc
libboost_unit_test_framework.so.1.72.0:_ZN5boost9unit_test9framework5clearEv
libboost_unit_test_framework.so.1.72.0:_ZN5boost9unit_test9framework8shutdownEv
libboost_unit_test_framework.so.1.72.0:_ZN5boost9unit_test9test_caseC1ENS0_13basic_cstringIKcEERKNS_8functionIFvvEEE
libboost_unit_test_framework.so.1.72.0:_ZN5boost9unit_test9test_caseC1ENS0_13basic_cstringIKcEES4_mRKNS_8functionIFvvEEE
libboost_unit_test_framework.so.1.72.0:_ZN5boost9unit_test9test_caseC2ENS0_13basic_cstringIKcEERKNS_8functionIFvvEEE
libboost_unit_test_framework.so.1.72.0:_ZN5boost9unit_test9test_caseC2ENS0_13basic_cstringIKcEES4_mRKNS_8functionIFvvEEE
libboost_unit_test_framework.so.1.72.0:_ZN5boost9unit_test9test_unit10depends_onEPS1_
libboost_unit_test_framework.so.1.72.0:_ZN5boost9unit_test9test_unit16add_preconditionERKNS_8functionIFNS_10test_tools16assertion_resultEmEEE
libboost_unit_test_framework.so.1.72.0:_ZN5boost9unit_test9test_unit17increase_exp_failEm
libboost_unit_test_framework.so.1.72.0:_ZN5boost9unit_test9test_unit9add_labelENS0_13basic_cstringIKcEE
libboost_unit_test_framework.so.1.72.0:_ZN5boost9unit_test9test_unitC1ENS0_13basic_cstringIKcEE
libboost_unit_test_framework.so.1.72.0:_ZN5boost9unit_test9test_unitC1ENS0_13basic_cstringIKcEES4_mNS0_14test_unit_typeE
libboost_unit_test_framework.so.1.72.0:_ZN5boost9unit_test9test_unitC2ENS0_13basic_cstringIKcEE
libboost_unit_test_framework.so.1.72.0:_ZN5boost9unit_test9test_unitC2ENS0_13basic_cstringIKcEES4_mNS0_14test_unit_typeE
libboost_unit_test_framework.so.1.72.0:_ZN5boost9unit_test9test_unitD1Ev
libboost_unit_test_framework.so.1.72.0:_ZN5boost9unit_test9test_unitD2Ev
libboost_unit_test_framework.so.1.72.0:_ZN5boost9unit_test9ut_detail21entry_value_collectorD1Ev
libboost_unit_test_framework.so.1.72.0:_ZN5boost9unit_test9ut_detail21entry_value_collectorD2Ev
libboost_unit_test_framework.so.1.72.0:_ZN5boost9unit_test9ut_detail24auto_test_unit_registrarC1ENS0_13basic_cstringIKcEES5_mRNS0_9decorator11collector_tE
libboost_unit_test_framework.so.1.72.0:_ZN5boost9unit_test9ut_detail24auto_test_unit_registrarC1ENS_10shared_ptrINS0_19test_unit_generatorEEERNS0_9decorator11collector_tE
libboost_unit_test_framework.so.1.72.0:_ZN5boost9unit_test9ut_detail24auto_test_unit_registrarC1EPNS0_9test_caseERNS0_9decorator11collector_tEm
libboost_unit_test_framework.so.1.72.0:_ZN5boost9unit_test9ut_detail24auto_test_unit_registrarC1ERKNS0_19test_unit_generatorERNS0_9decorator11collector_tE
libboost_unit_test_framework.so.1.72.0:_ZN5boost9unit_test9ut_detail24auto_test_unit_registrarC1Ei
libboost_unit_test_framework.so.1.72.0:_ZN5boost9unit_test9ut_detail24auto_test_unit_registrarC2ENS0_13basic_cstringIKcEES5_mRNS0_9decorator11collector_tE
libboost_unit_test_framework.so.1.72.0:_ZN5boost9unit_test9ut_detail24auto_test_unit_registrarC2ENS_10shared_ptrINS0_19test_unit_generatorEEERNS0_9decorator11collector_tE
libboost_unit_test_framework.so.1.72.0:_ZN5boost9unit_test9ut_detail24auto_test_unit_registrarC2EPNS0_9test_caseERNS0_9decorator11collector_tEm
libboost_unit_test_framework.so.1.72.0:_ZN5boost9unit_test9ut_detail24auto_test_unit_registrarC2ERKNS0_19test_unit_generatorERNS0_9decorator11collector_tE
libboost_unit_test_framework.so.1.72.0:_ZN5boost9unit_test9ut_detail24auto_test_unit_registrarC2Ei
libboost_unit_test_framework.so.1.72.0:_ZN5boost9unit_test9ut_detail24normalize_test_case_nameB5cxx11ENS0_13basic_cstringIKcEE
libboost_unit_test_framework.so.1.72.0:_ZNK5boost10test_tools18output_test_stream32get_stream_string_representationB5cxx11Ev
libboost_unit_test_framework.so.1.72.0:_ZNK5boost9unit_test10test_suite3getENS0_13basic_cstringIKcEE
libboost_unit_test_framework.so.1.72.0:_ZNK5boost9unit_test12test_results11result_codeEv
libboost_unit_test_framework.so.1.72.0:_ZNK5boost9unit_test12test_results6passedEv
libboost_unit_test_framework.so.1.72.0:_ZNK5boost9unit_test12test_results7abortedEv
libboost_unit_test_framework.so.1.72.0:_ZNK5boost9unit_test12test_results7skippedEv
libboost_unit_test_framework.so.1.72.0:_ZNK5boost9unit_test15unit_test_log_t10get_streamENS0_13output_formatE
libboost_unit_test_framework.so.1.72.0:_ZNK5boost9unit_test19results_collector_t7resultsEm
libboost_unit_test_framework.so.1.72.0:_ZNK5boost9unit_test23unit_test_log_formatter13get_log_levelEv
libboost_unit_test_framework.so.1.72.0:_ZNK5boost9unit_test25framework_init_observer_t10has_failedEv
libboost_unit_test_framework.so.1.72.0:_ZNK5boost9unit_test9decorator11collector_t19get_lazy_decoratorsEv
libboost_unit_test_framework.so.1.72.0:_ZNK5boost9unit_test9decorator15stack_decoratordeEv
libboost_unit_test_framework.so.1.72.0:_ZNK5boost9unit_test9decorator4basedeEv
libboost_unit_test_framework.so.1.72.0:_ZNK5boost9unit_test9framework17context_generator4nextEv
libboost_unit_test_framework.so.1.72.0:_ZNK5boost9unit_test9framework17context_generator8is_emptyEv
libboost_unit_test_framework.so.1.72.0:_ZNK5boost9unit_test9test_unit19check_preconditionsEv
libboost_unit_test_framework.so.1.72.0:_ZNK5boost9unit_test9test_unit9full_nameB5cxx11Ev
libboost_unit_test_framework.so.1.72.0:_ZNK5boost9unit_test9test_unit9has_labelENS0_13basic_cstringIKcEE
libboost_unit_test_framework.so.1.72.0:_ZNK5boost9unit_test9ut_detail21entry_value_collectorlsENS0_13basic_cstringIKcEE
libboost_unit_test_framework.so.1.72.0:_ZNK5boost9unit_test9ut_detail21entry_value_collectorlsERKNS0_12lazy_ostreamE
libboost_unit_test_framework.so.1.72.0:_ZTv0_n24_N5boost10test_tools18output_test_streamD0Ev
libboost_unit_test_framework.so.1.72.0:_ZTv0_n24_N5boost10test_tools18output_test_streamD1Ev
libboost_wave.so.1.72.0:_ZN5boost4wave14get_token_nameENS0_8token_idE
libboost_wave.so.1.72.0:_ZN5boost4wave15get_token_valueENS0_8token_idE
libboost_wave.so.1.72.0:_ZN5boost4wave18test_configurationEjPKcS2_
libboost_wave.so.1.72.0:_ZN5boost4wave8cpplexer7re2clex10aq_enqueueEPNS2_16tag_aq_queuetypeEm
libboost_wave.so.1.72.0:_ZN5boost4wave8cpplexer7re2clex12aq_terminateEPNS2_16tag_aq_queuetypeE
libboost_wave.so.1.72.0:_ZN5boost4wave8cpplexer7re2clex12is_backslashEPhS3_Ri
libboost_wave.so.1.72.0:_ZN5boost4wave8cpplexer7re2clex13uchar_wrapperC1EPhm
libboost_wave.so.1.72.0:_ZN5boost4wave8cpplexer7re2clex13uchar_wrapperC2EPhm
libboost_wave.so.1.72.0:_ZN5boost4wave8cpplexer7re2clex13uchar_wrappermmEv
libboost_wave.so.1.72.0:_ZN5boost4wave8cpplexer7re2clex13uchar_wrapperppEv
libboost_wave.so.1.72.0:_ZN5boost4wave8cpplexer7re2clex6aq_popEPNS2_16tag_aq_queuetypeE
libboost_wave.so.1.72.0:_ZN5boost4wave8cpplexer7re2clex9aq_createEv
libboost_wave.so.1.72.0:_ZN5boost4wave8cpplexer7re2clexmiERKNS2_13uchar_wrapperES5_
libboost_wave.so.1.72.0:_ZNK5boost4wave8cpplexer7re2clex13uchar_wrappercvPhEv
libboost_wave.so.1.72.0:_ZNK5boost4wave8cpplexer7re2clex13uchar_wrapperdeEv
libboost_wserialization.so.1.72.0:_ZN5boost7archive17basic_xml_grammarIwE10init_chsetEv
