libGeneratedSaxParser.so:_ZN18GeneratedSaxParser11ParserErrorC1ENS0_8SeverityENS0_9ErrorTypeEPKcS4_mmNSt7__cxx1112basic_stringIcSt11char_traitsIcESaIcEEE
libGeneratedSaxParser.so:_ZN18GeneratedSaxParser11ParserErrorC2ENS0_8SeverityENS0_9ErrorTypeEPKcS4_mmNSt7__cxx1112basic_stringIcSt11char_traitsIcESaIcEEE
libGeneratedSaxParser.so:_ZN18GeneratedSaxParser11ParserErrorD0Ev
libGeneratedSaxParser.so:_ZN18GeneratedSaxParser11ParserErrorD1Ev
libGeneratedSaxParser.so:_ZN18GeneratedSaxParser11ParserErrorD2Ev
libGeneratedSaxParser.so:_ZN18GeneratedSaxParser15LibxmlSaxParser10SAXHANDLERE
libGeneratedSaxParser.so:_ZN18GeneratedSaxParser15LibxmlSaxParser10charactersEPvPKhi
libGeneratedSaxParser.so:_ZN18GeneratedSaxParser15LibxmlSaxParser10endElementEPvPKh
libGeneratedSaxParser.so:_ZN18GeneratedSaxParser15LibxmlSaxParser11parseBufferEPKcS2_i
libGeneratedSaxParser.so:_ZN18GeneratedSaxParser15LibxmlSaxParser12abortParsingEv
libGeneratedSaxParser.so:_ZN18GeneratedSaxParser15LibxmlSaxParser12startElementEPvPKhPS3_
libGeneratedSaxParser.so:_ZN18GeneratedSaxParser15LibxmlSaxParser13errorFunctionEPvPKcz
libGeneratedSaxParser.so:_ZN18GeneratedSaxParser15LibxmlSaxParser23initializeParserContextEv
libGeneratedSaxParser.so:_ZN18GeneratedSaxParser15LibxmlSaxParser9parseFileEPKc
libGeneratedSaxParser.so:_ZN18GeneratedSaxParser15LibxmlSaxParserC1EPNS_6ParserE
libGeneratedSaxParser.so:_ZN18GeneratedSaxParser15LibxmlSaxParserC2EPNS_6ParserE
libGeneratedSaxParser.so:_ZN18GeneratedSaxParser15LibxmlSaxParserD0Ev
libGeneratedSaxParser.so:_ZN18GeneratedSaxParser15LibxmlSaxParserD1Ev
libGeneratedSaxParser.so:_ZN18GeneratedSaxParser15LibxmlSaxParserD2Ev
libGeneratedSaxParser.so:_ZN18GeneratedSaxParser16CoutErrorHandler11handleErrorERKNS_11ParserErrorE
libGeneratedSaxParser.so:_ZN18GeneratedSaxParser16CoutErrorHandlerC1Ev
libGeneratedSaxParser.so:_ZN18GeneratedSaxParser16CoutErrorHandlerC2Ev
libGeneratedSaxParser.so:_ZN18GeneratedSaxParser16CoutErrorHandlerD0Ev
libGeneratedSaxParser.so:_ZN18GeneratedSaxParser16CoutErrorHandlerD1Ev
libGeneratedSaxParser.so:_ZN18GeneratedSaxParser16CoutErrorHandlerD2Ev
libGeneratedSaxParser.so:_ZN18GeneratedSaxParser18ParserTemplateBase11handleErrorENS_11ParserError8SeverityENS1_9ErrorTypeEmPKc
libGeneratedSaxParser.so:_ZN18GeneratedSaxParser18ParserTemplateBase11handleErrorENS_11ParserError8SeverityENS1_9ErrorTypeEmPKcS5_
libGeneratedSaxParser.so:_ZN18GeneratedSaxParser18ParserTemplateBase11handleErrorENS_11ParserError8SeverityENS1_9ErrorTypeEmmPKc
libGeneratedSaxParser.so:_ZN18GeneratedSaxParser18ParserTemplateBase12toBoolPrefixEPKcS2_PS2_S2_Rb
libGeneratedSaxParser.so:_ZN18GeneratedSaxParser18ParserTemplateBase13toFloatPrefixEPKcS2_PS2_S2_Rb
libGeneratedSaxParser.so:_ZN18GeneratedSaxParser18ParserTemplateBase13toSint8PrefixEPKcS2_PS2_S2_Rb
libGeneratedSaxParser.so:_ZN18GeneratedSaxParser18ParserTemplateBase13toUint8PrefixEPKcS2_PS2_S2_Rb
libGeneratedSaxParser.so:_ZN18GeneratedSaxParser18ParserTemplateBase14toDoublePrefixEPKcS2_PS2_S2_Rb
libGeneratedSaxParser.so:_ZN18GeneratedSaxParser18ParserTemplateBase14toSint16PrefixEPKcS2_PS2_S2_Rb
libGeneratedSaxParser.so:_ZN18GeneratedSaxParser18ParserTemplateBase14toSint32PrefixEPKcS2_PS2_S2_Rb
libGeneratedSaxParser.so:_ZN18GeneratedSaxParser18ParserTemplateBase14toSint64PrefixEPKcS2_PS2_S2_Rb
libGeneratedSaxParser.so:_ZN18GeneratedSaxParser18ParserTemplateBase14toUint16PrefixEPKcS2_PS2_S2_Rb
libGeneratedSaxParser.so:_ZN18GeneratedSaxParser18ParserTemplateBase14toUint32PrefixEPKcS2_PS2_S2_Rb
libGeneratedSaxParser.so:_ZN18GeneratedSaxParser18ParserTemplateBase14toUint64PrefixEPKcS2_PS2_S2_Rb
libGeneratedSaxParser.so:_ZN18GeneratedSaxParser18ParserTemplateBase18toStringListPrefixEPKcS2_PS2_S2_Rb
libGeneratedSaxParser.so:_ZN18GeneratedSaxParser18StackMemoryManager10growObjectEm
libGeneratedSaxParser.so:_ZN18GeneratedSaxParser18StackMemoryManager12deleteObjectEv
libGeneratedSaxParser.so:_ZN18GeneratedSaxParser18StackMemoryManager18allocateMoreMemoryEv
libGeneratedSaxParser.so:_ZN18GeneratedSaxParser18StackMemoryManager3topEv
libGeneratedSaxParser.so:_ZN18GeneratedSaxParser18StackMemoryManager9newObjectEm
libGeneratedSaxParser.so:_ZN18GeneratedSaxParser18StackMemoryManagerC1Em
libGeneratedSaxParser.so:_ZN18GeneratedSaxParser18StackMemoryManagerC2Em
libGeneratedSaxParser.so:_ZN18GeneratedSaxParser18StackMemoryManagerD1Ev
libGeneratedSaxParser.so:_ZN18GeneratedSaxParser18StackMemoryManagerD2Ev
libGeneratedSaxParser.so:_ZN18GeneratedSaxParser19XML_ATTRIBUTE_XMLNSE
libGeneratedSaxParser.so:_ZN18GeneratedSaxParser24RawUnknownElementHandler10elementEndEPKc
libGeneratedSaxParser.so:_ZN18GeneratedSaxParser24RawUnknownElementHandler12elementBeginEPKcPS2_
libGeneratedSaxParser.so:_ZN18GeneratedSaxParser24RawUnknownElementHandler20prepareToAddContentsEv
libGeneratedSaxParser.so:_ZN18GeneratedSaxParser24RawUnknownElementHandler8textDataEPKcm
libGeneratedSaxParser.so:_ZN18GeneratedSaxParser24RawUnknownElementHandlerC1Ev
libGeneratedSaxParser.so:_ZN18GeneratedSaxParser24RawUnknownElementHandlerC2Ev
libGeneratedSaxParser.so:_ZN18GeneratedSaxParser24RawUnknownElementHandlerD0Ev
libGeneratedSaxParser.so:_ZN18GeneratedSaxParser24RawUnknownElementHandlerD1Ev
libGeneratedSaxParser.so:_ZN18GeneratedSaxParser24RawUnknownElementHandlerD2Ev
libGeneratedSaxParser.so:_ZN18GeneratedSaxParser5Utils12fillErrorMsgEPcPKcm
libGeneratedSaxParser.so:_ZN18GeneratedSaxParser5Utils13isNegativeInfEd
libGeneratedSaxParser.so:_ZN18GeneratedSaxParser5Utils13isNegativeInfEf
libGeneratedSaxParser.so:_ZN18GeneratedSaxParser5Utils16isWhiteSpaceOnlyEPKcm
libGeneratedSaxParser.so:_ZN18GeneratedSaxParser5Utils16toStringListItemEPPKcRb
libGeneratedSaxParser.so:_ZN18GeneratedSaxParser5Utils16toStringListItemEPPKcS2_Rb
libGeneratedSaxParser.so:_ZN18GeneratedSaxParser5Utils19calculateStringHashEPKc
libGeneratedSaxParser.so:_ZN18GeneratedSaxParser5Utils19calculateStringHashEPKcRb
libGeneratedSaxParser.so:_ZN18GeneratedSaxParser5Utils19calculateStringHashEPKcm
libGeneratedSaxParser.so:_ZN18GeneratedSaxParser5Utils19calculateStringHashEPPKcS2_Rb
libGeneratedSaxParser.so:_ZN18GeneratedSaxParser5Utils19calculateStringHashEmPKcS2_
libGeneratedSaxParser.so:_ZN18GeneratedSaxParser5Utils32calculateStringHashWithNamespaceEPKc
libGeneratedSaxParser.so:_ZN18GeneratedSaxParser5Utils5isInfEd
libGeneratedSaxParser.so:_ZN18GeneratedSaxParser5Utils5isInfEf
libGeneratedSaxParser.so:_ZN18GeneratedSaxParser5Utils5isNaNEd
libGeneratedSaxParser.so:_ZN18GeneratedSaxParser5Utils5isNaNEf
libGeneratedSaxParser.so:_ZN18GeneratedSaxParser5Utils5toURIEPPKcRb
libGeneratedSaxParser.so:_ZN18GeneratedSaxParser5Utils5toURIEPPKcS2_Rb
libGeneratedSaxParser.so:_ZN18GeneratedSaxParser5Utils6toBoolEPKcRb
libGeneratedSaxParser.so:_ZN18GeneratedSaxParser5Utils6toBoolEPPKcRb
libGeneratedSaxParser.so:_ZN18GeneratedSaxParser5Utils6toBoolEPPKcS2_Rb
libGeneratedSaxParser.so:_ZN18GeneratedSaxParser5Utils7toFloatEPKcRb
libGeneratedSaxParser.so:_ZN18GeneratedSaxParser5Utils7toFloatEPPKcRb
libGeneratedSaxParser.so:_ZN18GeneratedSaxParser5Utils7toFloatEPPKcS2_Rb
libGeneratedSaxParser.so:_ZN18GeneratedSaxParser5Utils7toSint8EPKcRb
libGeneratedSaxParser.so:_ZN18GeneratedSaxParser5Utils7toSint8EPPKcRb
libGeneratedSaxParser.so:_ZN18GeneratedSaxParser5Utils7toSint8EPPKcS2_Rb
libGeneratedSaxParser.so:_ZN18GeneratedSaxParser5Utils7toUint8EPKcRb
libGeneratedSaxParser.so:_ZN18GeneratedSaxParser5Utils7toUint8EPPKcRb
libGeneratedSaxParser.so:_ZN18GeneratedSaxParser5Utils7toUint8EPPKcS2_Rb
libGeneratedSaxParser.so:_ZN18GeneratedSaxParser5Utils8toDoubleEPKcRb
libGeneratedSaxParser.so:_ZN18GeneratedSaxParser5Utils8toDoubleEPPKcRb
libGeneratedSaxParser.so:_ZN18GeneratedSaxParser5Utils8toDoubleEPPKcS2_Rb
libGeneratedSaxParser.so:_ZN18GeneratedSaxParser5Utils8toSint16EPKcRb
libGeneratedSaxParser.so:_ZN18GeneratedSaxParser5Utils8toSint16EPPKcRb
libGeneratedSaxParser.so:_ZN18GeneratedSaxParser5Utils8toSint16EPPKcS2_Rb
libGeneratedSaxParser.so:_ZN18GeneratedSaxParser5Utils8toSint32EPKcRb
libGeneratedSaxParser.so:_ZN18GeneratedSaxParser5Utils8toSint32EPPKcRb
libGeneratedSaxParser.so:_ZN18GeneratedSaxParser5Utils8toSint32EPPKcS2_Rb
libGeneratedSaxParser.so:_ZN18GeneratedSaxParser5Utils8toSint64EPKcRb
libGeneratedSaxParser.so:_ZN18GeneratedSaxParser5Utils8toSint64EPPKcRb
libGeneratedSaxParser.so:_ZN18GeneratedSaxParser5Utils8toSint64EPPKcS2_Rb
libGeneratedSaxParser.so:_ZN18GeneratedSaxParser5Utils8toUint16EPKcRb
libGeneratedSaxParser.so:_ZN18GeneratedSaxParser5Utils8toUint16EPPKcRb
libGeneratedSaxParser.so:_ZN18GeneratedSaxParser5Utils8toUint16EPPKcS2_Rb
libGeneratedSaxParser.so:_ZN18GeneratedSaxParser5Utils8toUint32EPKcRb
libGeneratedSaxParser.so:_ZN18GeneratedSaxParser5Utils8toUint32EPPKcRb
libGeneratedSaxParser.so:_ZN18GeneratedSaxParser5Utils8toUint32EPPKcS2_Rb
libGeneratedSaxParser.so:_ZN18GeneratedSaxParser5Utils8toUint64EPKcRb
libGeneratedSaxParser.so:_ZN18GeneratedSaxParser5Utils8toUint64EPPKcRb
libGeneratedSaxParser.so:_ZN18GeneratedSaxParser5Utils8toUint64EPPKcS2_Rb
libGeneratedSaxParser.so:_ZN18GeneratedSaxParser6Parser12stringLengthEPKc
libGeneratedSaxParser.so:_ZN18GeneratedSaxParser6ParserC1EPNS_13IErrorHandlerE
libGeneratedSaxParser.so:_ZN18GeneratedSaxParser6ParserC2EPNS_13IErrorHandlerE
libGeneratedSaxParser.so:_ZN18GeneratedSaxParser6ParserD0Ev
libGeneratedSaxParser.so:_ZN18GeneratedSaxParser6ParserD1Ev
libGeneratedSaxParser.so:_ZN18GeneratedSaxParser6ParserD2Ev
libGeneratedSaxParser.so:_ZN18GeneratedSaxParser9SaxParser9setParserEPNS_6ParserE
libGeneratedSaxParser.so:_ZN18GeneratedSaxParser9SaxParserC1EPNS_6ParserE
libGeneratedSaxParser.so:_ZN18GeneratedSaxParser9SaxParserC2EPNS_6ParserE
libGeneratedSaxParser.so:_ZN18GeneratedSaxParser9SaxParserD0Ev
libGeneratedSaxParser.so:_ZN18GeneratedSaxParser9SaxParserD1Ev
libGeneratedSaxParser.so:_ZN18GeneratedSaxParser9SaxParserD2Ev
libGeneratedSaxParser.so:_ZNK18GeneratedSaxParser11ParserError15getErrorMessageB5cxx11Ev
libGeneratedSaxParser.so:_ZNK18GeneratedSaxParser15LibxmlSaxParser12getLineNumerEv
libGeneratedSaxParser.so:_ZNK18GeneratedSaxParser15LibxmlSaxParser14getColumnNumerEv
libGeneratedSaxParser.so:_ZNK18GeneratedSaxParser18ParserTemplateBase14getElementHashEm
libGeneratedSaxParser.so:_ZNK18GeneratedSaxParser18ParserTemplateBase19getNameByStringHashERKm
libGeneratedSaxParser.so:_ZNK18GeneratedSaxParser6Parser13getLineNumberEv
libGeneratedSaxParser.so:_ZNK18GeneratedSaxParser6Parser15getColumnNumberEv
libMathMLSolver.so:_ZN6MathML10StringUtil10parseShortERKNSt7__cxx1112basic_stringIcSt11char_traitsIcESaIcEEE
libMathMLSolver.so:_ZN6MathML10StringUtil10replaceAllERKNSt7__cxx1112basic_stringIcSt11char_traitsIcESaIcEEES8_S8_
libMathMLSolver.so:_ZN6MathML10StringUtil10replaceAllERKNSt7__cxx1112basic_stringIcSt11char_traitsIcESaIcEEES8_c
libMathMLSolver.so:_ZN6MathML10StringUtil10replaceAllERKNSt7__cxx1112basic_stringIcSt11char_traitsIcESaIcEEEcS8_
libMathMLSolver.so:_ZN6MathML10StringUtil10replaceAllERKNSt7__cxx1112basic_stringIcSt11char_traitsIcESaIcEEEcc
libMathMLSolver.so:_ZN6MathML10StringUtil10startsWithERKNSt7__cxx1112basic_stringIcSt11char_traitsIcESaIcEEES8_
libMathMLSolver.so:_ZN6MathML10StringUtil10startsWithERKNSt7__cxx1112basic_stringIcSt11char_traitsIcESaIcEEEc
libMathMLSolver.so:_ZN6MathML10StringUtil11caseCompareERKNSt7__cxx1112basic_stringIcSt11char_traitsIcESaIcEEES8_
libMathMLSolver.so:_ZN6MathML10StringUtil11lastIndexOfERKNSt7__cxx1112basic_stringIcSt11char_traitsIcESaIcEEES8_
libMathMLSolver.so:_ZN6MathML10StringUtil11lastIndexOfERKNSt7__cxx1112basic_stringIcSt11char_traitsIcESaIcEEEc
libMathMLSolver.so:_ZN6MathML10StringUtil11parseDoubleERKNSt7__cxx1112basic_stringIcSt11char_traitsIcESaIcEEE
libMathMLSolver.so:_ZN6MathML10StringUtil11toLowerCaseERNSt7__cxx1112basic_stringIcSt11char_traitsIcESaIcEEE
libMathMLSolver.so:_ZN6MathML10StringUtil11toUpperCaseERNSt7__cxx1112basic_stringIcSt11char_traitsIcESaIcEEE
libMathMLSolver.so:_ZN6MathML10StringUtil16parseUnsignedIntERKNSt7__cxx1112basic_stringIcSt11char_traitsIcESaIcEEE
libMathMLSolver.so:_ZN6MathML10StringUtil17parseUnsignedLongERKNSt7__cxx1112basic_stringIcSt11char_traitsIcESaIcEEE
libMathMLSolver.so:_ZN6MathML10StringUtil17removeWhitespacesERKNSt7__cxx1112basic_stringIcSt11char_traitsIcESaIcEEE
libMathMLSolver.so:_ZN6MathML10StringUtil18parseUnsignedShortERKNSt7__cxx1112basic_stringIcSt11char_traitsIcESaIcEEE
libMathMLSolver.so:_ZN6MathML10StringUtil18valueOfUnfinalizedB5cxx11Ei
libMathMLSolver.so:_ZN6MathML10StringUtil7valueOfB5cxx11Ec
libMathMLSolver.so:_ZN6MathML10StringUtil7valueOfB5cxx11Ed
libMathMLSolver.so:_ZN6MathML10StringUtil7valueOfB5cxx11Ef
libMathMLSolver.so:_ZN6MathML10StringUtil7valueOfB5cxx11Eh
libMathMLSolver.so:_ZN6MathML10StringUtil7valueOfB5cxx11Ei
libMathMLSolver.so:_ZN6MathML10StringUtil7valueOfB5cxx11Ej
libMathMLSolver.so:_ZN6MathML10StringUtil7valueOfB5cxx11El
libMathMLSolver.so:_ZN6MathML10StringUtil7valueOfB5cxx11Em
libMathMLSolver.so:_ZN6MathML10StringUtil7valueOfB5cxx11Es
libMathMLSolver.so:_ZN6MathML10StringUtil7valueOfB5cxx11Et
libMathMLSolver.so:_ZN6MathML10StringUtil7valueOfB5cxx11Ex
libMathMLSolver.so:_ZN6MathML10StringUtil7valueOfB5cxx11Ey
libMathMLSolver.so:_ZN6MathML10StringUtil8endsWithERKNSt7__cxx1112basic_stringIcSt11char_traitsIcESaIcEEES8_
libMathMLSolver.so:_ZN6MathML10StringUtil8endsWithERKNSt7__cxx1112basic_stringIcSt11char_traitsIcESaIcEEEc
libMathMLSolver.so:_ZN6MathML10StringUtil8parseIntERKNSt7__cxx1112basic_stringIcSt11char_traitsIcESaIcEEE
libMathMLSolver.so:_ZN6MathML10StringUtil9parseLongERKNSt7__cxx1112basic_stringIcSt11char_traitsIcESaIcEEE
libMathMLSolver.so:_ZN6MathML11SymbolTable11addFunctionERKNSt7__cxx1112basic_stringIcSt11char_traitsIcESaIcEEENS0_12FunctionInfoE
libMathMLSolver.so:_ZN6MathML11SymbolTable11addFunctionERKNSt7__cxx1112basic_stringIcSt11char_traitsIcESaIcEEEiPFvRNS_3AST18ConstantExpressionERKSt6vectorISA_SaISA_EEPNS_12ErrorHandlerEE
libMathMLSolver.so:_ZN6MathML11SymbolTable11setVariableERKNSt7__cxx1112basic_stringIcSt11char_traitsIcESaIcEEEPNS_3AST5INodeE
libMathMLSolver.so:_ZN6MathML11SymbolTable11setVariableERKNSt7__cxx1112basic_stringIcSt11char_traitsIcESaIcEEEb
libMathMLSolver.so:_ZN6MathML11SymbolTable11setVariableERKNSt7__cxx1112basic_stringIcSt11char_traitsIcESaIcEEEd
libMathMLSolver.so:_ZN6MathML11SymbolTable11setVariableERKNSt7__cxx1112basic_stringIcSt11char_traitsIcESaIcEEEl
libMathMLSolver.so:_ZN6MathML11SymbolTable12findFunctionERKNSt7__cxx1112basic_stringIcSt11char_traitsIcESaIcEEE
libMathMLSolver.so:_ZN6MathML11SymbolTable12findVariableERKNSt7__cxx1112basic_stringIcSt11char_traitsIcESaIcEEE
libMathMLSolver.so:_ZN6MathML11SymbolTable14removeVariableERKNSt7__cxx1112basic_stringIcSt11char_traitsIcESaIcEEE
libMathMLSolver.so:_ZN6MathML11SymbolTable16evaluateFunctionERNS_3AST18ConstantExpressionERKNSt7__cxx1112basic_stringIcSt11char_traitsIcESaIcEEERKSt6vectorIS2_SaIS2_EE
libMathMLSolver.so:_ZN6MathML11SymbolTable17appendSymbolTableERKS0_
libMathMLSolver.so:_ZN6MathML11SymbolTableC1EPNS_12ErrorHandlerE
libMathMLSolver.so:_ZN6MathML11SymbolTableC1ERKS0_
libMathMLSolver.so:_ZN6MathML11SymbolTableC2EPNS_12ErrorHandlerE
libMathMLSolver.so:_ZN6MathML11SymbolTableC2ERKS0_
libMathMLSolver.so:_ZN6MathML11SymbolTableD0Ev
libMathMLSolver.so:_ZN6MathML11SymbolTableD1Ev
libMathMLSolver.so:_ZN6MathML11SymbolTableD2Ev
libMathMLSolver.so:_ZN6MathML11SymbolTableaSERKS0_
libMathMLSolver.so:_ZN6MathML16EvaluatorVisitor5visitEPKNS_3AST15LogicExpressionE
libMathMLSolver.so:_ZN6MathML16EvaluatorVisitor5visitEPKNS_3AST15UnaryExpressionE
libMathMLSolver.so:_ZN6MathML16EvaluatorVisitor5visitEPKNS_3AST18ConstantExpressionE
libMathMLSolver.so:_ZN6MathML16EvaluatorVisitor5visitEPKNS_3AST18FragmentExpressionE
libMathMLSolver.so:_ZN6MathML16EvaluatorVisitor5visitEPKNS_3AST18FunctionExpressionE
libMathMLSolver.so:_ZN6MathML16EvaluatorVisitor5visitEPKNS_3AST18VariableExpressionE
libMathMLSolver.so:_ZN6MathML16EvaluatorVisitor5visitEPKNS_3AST20ArithmeticExpressionE
libMathMLSolver.so:_ZN6MathML16EvaluatorVisitor5visitEPKNS_3AST26BinaryComparisonExpressionE
libMathMLSolver.so:_ZN6MathML16EvaluatorVisitor8getValueEv
libMathMLSolver.so:_ZN6MathML16EvaluatorVisitorC1ERNS_11SymbolTableEPNS_12ErrorHandlerE
libMathMLSolver.so:_ZN6MathML16EvaluatorVisitorC2ERNS_11SymbolTableEPNS_12ErrorHandlerE
libMathMLSolver.so:_ZN6MathML16EvaluatorVisitorD0Ev
libMathMLSolver.so:_ZN6MathML16EvaluatorVisitorD1Ev
libMathMLSolver.so:_ZN6MathML16EvaluatorVisitorD2Ev
libMathMLSolver.so:_ZN6MathML17SerializationUtil22getConstantElementNameERKNSt7__cxx1112basic_stringIcSt11char_traitsIcESaIcEEE
libMathMLSolver.so:_ZN6MathML17SerializationUtil22getFunctionElementNameERKNSt7__cxx1112basic_stringIcSt11char_traitsIcESaIcEEE
libMathMLSolver.so:_ZN6MathML17SerializationUtil27getLogicOperatorElementNameB5cxx11ENS_3AST15LogicExpression8OperatorE
libMathMLSolver.so:_ZN6MathML17SerializationUtil27getUnaryOperatorElementNameB5cxx11ENS_3AST15UnaryExpression8OperatorE
libMathMLSolver.so:_ZN6MathML17SerializationUtil32getArithmeticOperatorElementNameB5cxx11ENS_3AST20ArithmeticExpression8OperatorE
libMathMLSolver.so:_ZN6MathML17SerializationUtil33getComparisionOperatorElementNameB5cxx11ENS_3AST26BinaryComparisonExpression8OperatorE
libMathMLSolver.so:_ZN6MathML20SerializationVisitor14writeLineBreakEv
libMathMLSolver.so:_ZN6MathML20SerializationVisitor15writeEndElementERKNSt7__cxx1112basic_stringIcSt11char_traitsIcESaIcEEE
libMathMLSolver.so:_ZN6MathML20SerializationVisitor17writeEmptyElementERKNSt7__cxx1112basic_stringIcSt11char_traitsIcESaIcEEE
libMathMLSolver.so:_ZN6MathML20SerializationVisitor17writeStartElementERKNSt7__cxx1112basic_stringIcSt11char_traitsIcESaIcEEE
libMathMLSolver.so:_ZN6MathML20SerializationVisitor31writeStartElementWithAttributesERKNSt7__cxx1112basic_stringIcSt11char_traitsIcESaIcEEERKSt3mapIPS7_SA_St4lessISA_ESaISt4pairIKSA_SA_EEE
libMathMLSolver.so:_ZN6MathML20SerializationVisitor5visitEPKNS_3AST15LogicExpressionE
libMathMLSolver.so:_ZN6MathML20SerializationVisitor5visitEPKNS_3AST15UnaryExpressionE
libMathMLSolver.so:_ZN6MathML20SerializationVisitor5visitEPKNS_3AST18ConstantExpressionE
libMathMLSolver.so:_ZN6MathML20SerializationVisitor5visitEPKNS_3AST18FragmentExpressionE
libMathMLSolver.so:_ZN6MathML20SerializationVisitor5visitEPKNS_3AST18FunctionExpressionE
libMathMLSolver.so:_ZN6MathML20SerializationVisitor5visitEPKNS_3AST18VariableExpressionE
libMathMLSolver.so:_ZN6MathML20SerializationVisitor5visitEPKNS_3AST20ArithmeticExpressionE
libMathMLSolver.so:_ZN6MathML20SerializationVisitor5visitEPKNS_3AST26BinaryComparisonExpressionE
libMathMLSolver.so:_ZN6MathML20SerializationVisitor9writeTextERKNSt7__cxx1112basic_stringIcSt11char_traitsIcESaIcEEE
libMathMLSolver.so:_ZN6MathML20SerializationVisitorC1ERSobb
libMathMLSolver.so:_ZN6MathML20SerializationVisitorC2ERSobb
libMathMLSolver.so:_ZN6MathML20SerializationVisitorD0Ev
libMathMLSolver.so:_ZN6MathML20SerializationVisitorD1Ev
libMathMLSolver.so:_ZN6MathML20SerializationVisitorD2Ev
libMathMLSolver.so:_ZN6MathML24SolverFunctionExtentions24addAllExtensionFunctionsERNS_11SymbolTableE
libMathMLSolver.so:_ZN6MathML24SolverFunctionExtentions9factorialERNS_3AST18ConstantExpressionERKSt6vectorIS2_SaIS2_EEPNS_12ErrorHandlerE
libMathMLSolver.so:_ZN6MathML3AST13StringVisitor5visitEPKNS0_15LogicExpressionE
libMathMLSolver.so:_ZN6MathML3AST13StringVisitor5visitEPKNS0_15UnaryExpressionE
libMathMLSolver.so:_ZN6MathML3AST13StringVisitor5visitEPKNS0_18ConstantExpressionE
libMathMLSolver.so:_ZN6MathML3AST13StringVisitor5visitEPKNS0_18FragmentExpressionE
libMathMLSolver.so:_ZN6MathML3AST13StringVisitor5visitEPKNS0_18FunctionExpressionE
libMathMLSolver.so:_ZN6MathML3AST13StringVisitor5visitEPKNS0_18VariableExpressionE
libMathMLSolver.so:_ZN6MathML3AST13StringVisitor5visitEPKNS0_20ArithmeticExpressionE
libMathMLSolver.so:_ZN6MathML3AST13StringVisitor5visitEPKNS0_26BinaryComparisonExpressionE
libMathMLSolver.so:_ZN6MathML3AST13StringVisitorC1EPSo
libMathMLSolver.so:_ZN6MathML3AST13StringVisitorC2EPSo
libMathMLSolver.so:_ZN6MathML3AST13StringVisitorD0Ev
libMathMLSolver.so:_ZN6MathML3AST13StringVisitorD1Ev
libMathMLSolver.so:_ZN6MathML3AST13StringVisitorD2Ev
libMathMLSolver.so:_ZN6MathML3AST15LogicExpression10addOperandEPNS0_5INodeE
libMathMLSolver.so:_ZN6MathML3AST15LogicExpression11getOperandsEv
libMathMLSolver.so:_ZN6MathML3AST15LogicExpression11setOperatorENS1_8OperatorE
libMathMLSolver.so:_ZN6MathML3AST15LogicExpression11setOperatorERKNSt7__cxx1112basic_stringIcSt11char_traitsIcESaIcEEE
libMathMLSolver.so:_ZN6MathML3AST15LogicExpression14operatorStringB5cxx11ENS1_8OperatorE
libMathMLSolver.so:_ZN6MathML3AST15LogicExpressionC1Ev
libMathMLSolver.so:_ZN6MathML3AST15LogicExpressionC2Ev
libMathMLSolver.so:_ZN6MathML3AST15LogicExpressionD0Ev
libMathMLSolver.so:_ZN6MathML3AST15LogicExpressionD1Ev
libMathMLSolver.so:_ZN6MathML3AST15LogicExpressionD2Ev
libMathMLSolver.so:_ZN6MathML3AST15UnaryExpression10setOperandEPNS0_5INodeE
libMathMLSolver.so:_ZN6MathML3AST15UnaryExpression11setOperatorENS1_8OperatorE
libMathMLSolver.so:_ZN6MathML3AST15UnaryExpression11setOperatorERKNSt7__cxx1112basic_stringIcSt11char_traitsIcESaIcEEE
libMathMLSolver.so:_ZN6MathML3AST15UnaryExpression14operatorStringB5cxx11ENS1_8OperatorE
libMathMLSolver.so:_ZN6MathML3AST15UnaryExpressionC1Ev
libMathMLSolver.so:_ZN6MathML3AST15UnaryExpressionC2Ev
libMathMLSolver.so:_ZN6MathML3AST15UnaryExpressionD0Ev
libMathMLSolver.so:_ZN6MathML3AST15UnaryExpressionD1Ev
libMathMLSolver.so:_ZN6MathML3AST15UnaryExpressionD2Ev
libMathMLSolver.so:_ZN6MathML3AST18ConstantExpression14setStringValueERKNSt7__cxx1112basic_stringIcSt11char_traitsIcESaIcEEE
libMathMLSolver.so:_ZN6MathML3AST18ConstantExpression8setValueERKNSt7__cxx1112basic_stringIcSt11char_traitsIcESaIcEEENS1_4TypeE
libMathMLSolver.so:_ZN6MathML3AST18ConstantExpression8setValueEb
libMathMLSolver.so:_ZN6MathML3AST18ConstantExpression8setValueEd
libMathMLSolver.so:_ZN6MathML3AST18ConstantExpression8setValueEl
libMathMLSolver.so:_ZN6MathML3AST18ConstantExpressionC1ERKNSt7__cxx1112basic_stringIcSt11char_traitsIcESaIcEEE
libMathMLSolver.so:_ZN6MathML3AST18ConstantExpressionC1ERKNSt7__cxx1112basic_stringIcSt11char_traitsIcESaIcEEENS1_4TypeE
libMathMLSolver.so:_ZN6MathML3AST18ConstantExpressionC1ERKS1_
libMathMLSolver.so:_ZN6MathML3AST18ConstantExpressionC1Eb
libMathMLSolver.so:_ZN6MathML3AST18ConstantExpressionC1Ed
libMathMLSolver.so:_ZN6MathML3AST18ConstantExpressionC1El
libMathMLSolver.so:_ZN6MathML3AST18ConstantExpressionC1Ev
libMathMLSolver.so:_ZN6MathML3AST18ConstantExpressionC2ERKNSt7__cxx1112basic_stringIcSt11char_traitsIcESaIcEEE
libMathMLSolver.so:_ZN6MathML3AST18ConstantExpressionC2ERKNSt7__cxx1112basic_stringIcSt11char_traitsIcESaIcEEENS1_4TypeE
libMathMLSolver.so:_ZN6MathML3AST18ConstantExpressionC2ERKS1_
libMathMLSolver.so:_ZN6MathML3AST18ConstantExpressionC2Eb
libMathMLSolver.so:_ZN6MathML3AST18ConstantExpressionC2Ed
libMathMLSolver.so:_ZN6MathML3AST18ConstantExpressionC2El
libMathMLSolver.so:_ZN6MathML3AST18ConstantExpressionC2Ev
libMathMLSolver.so:_ZN6MathML3AST18ConstantExpressionD0Ev
libMathMLSolver.so:_ZN6MathML3AST18ConstantExpressionD1Ev
libMathMLSolver.so:_ZN6MathML3AST18ConstantExpressionD2Ev
libMathMLSolver.so:_ZN6MathML3AST18FragmentExpression11setFragmentEPNS0_5INodeE
libMathMLSolver.so:_ZN6MathML3AST18FragmentExpression12addParameterERKNSt7__cxx1112basic_stringIcSt11char_traitsIcESaIcEEEPNS0_5INodeE
libMathMLSolver.so:_ZN6MathML3AST18FragmentExpression18addParameterSymbolERKNSt7__cxx1112basic_stringIcSt11char_traitsIcESaIcEEE
libMathMLSolver.so:_ZN6MathML3AST18FragmentExpression7setArgcEj
libMathMLSolver.so:_ZN6MathML3AST18FragmentExpressionC1ERKNSt7__cxx1112basic_stringIcSt11char_traitsIcESaIcEEENS0_5INode10CloneFlagsE
libMathMLSolver.so:_ZN6MathML3AST18FragmentExpressionC2ERKNSt7__cxx1112basic_stringIcSt11char_traitsIcESaIcEEENS0_5INode10CloneFlagsE
libMathMLSolver.so:_ZN6MathML3AST18FragmentExpressionD0Ev
libMathMLSolver.so:_ZN6MathML3AST18FragmentExpressionD1Ev
libMathMLSolver.so:_ZN6MathML3AST18FragmentExpressionD2Ev
libMathMLSolver.so:_ZN6MathML3AST18FunctionExpression12addParameterEPNS0_5INodeE
libMathMLSolver.so:_ZN6MathML3AST18FunctionExpression16getParameterListEv
libMathMLSolver.so:_ZN6MathML3AST18FunctionExpression16setParameterListERKSt6vectorIPNS0_5INodeESaIS4_EE
libMathMLSolver.so:_ZN6MathML3AST18FunctionExpressionC1ERKNSt7__cxx1112basic_stringIcSt11char_traitsIcESaIcEEE
libMathMLSolver.so:_ZN6MathML3AST18FunctionExpressionC2ERKNSt7__cxx1112basic_stringIcSt11char_traitsIcESaIcEEE
libMathMLSolver.so:_ZN6MathML3AST18FunctionExpressionD0Ev
libMathMLSolver.so:_ZN6MathML3AST18FunctionExpressionD1Ev
libMathMLSolver.so:_ZN6MathML3AST18FunctionExpressionD2Ev
libMathMLSolver.so:_ZN6MathML3AST18VariableExpression8setValueEPNS0_18ConstantExpressionE
libMathMLSolver.so:_ZN6MathML3AST18VariableExpression8setValueEb
libMathMLSolver.so:_ZN6MathML3AST18VariableExpression8setValueEd
libMathMLSolver.so:_ZN6MathML3AST18VariableExpression8setValueEi
libMathMLSolver.so:_ZN6MathML3AST18VariableExpression8setValueEl
libMathMLSolver.so:_ZN6MathML3AST18VariableExpressionC1ERKNSt7__cxx1112basic_stringIcSt11char_traitsIcESaIcEEE
libMathMLSolver.so:_ZN6MathML3AST18VariableExpressionC2ERKNSt7__cxx1112basic_stringIcSt11char_traitsIcESaIcEEE
libMathMLSolver.so:_ZN6MathML3AST18VariableExpressionD0Ev
libMathMLSolver.so:_ZN6MathML3AST18VariableExpressionD1Ev
libMathMLSolver.so:_ZN6MathML3AST18VariableExpressionD2Ev
libMathMLSolver.so:_ZN6MathML3AST20ArithmeticExpression10addOperandEPNS0_5INodeE
libMathMLSolver.so:_ZN6MathML3AST20ArithmeticExpression11getOperandsEv
libMathMLSolver.so:_ZN6MathML3AST20ArithmeticExpression11setOperatorENS1_8OperatorE
libMathMLSolver.so:_ZN6MathML3AST20ArithmeticExpression11setOperatorERKNSt7__cxx1112basic_stringIcSt11char_traitsIcESaIcEEE
libMathMLSolver.so:_ZN6MathML3AST20ArithmeticExpression14operatorStringB5cxx11ENS1_8OperatorE
libMathMLSolver.so:_ZN6MathML3AST20ArithmeticExpressionC1Ev
libMathMLSolver.so:_ZN6MathML3AST20ArithmeticExpressionC2Ev
libMathMLSolver.so:_ZN6MathML3AST20ArithmeticExpressionD0Ev
libMathMLSolver.so:_ZN6MathML3AST20ArithmeticExpressionD1Ev
libMathMLSolver.so:_ZN6MathML3AST20ArithmeticExpressionD2Ev
libMathMLSolver.so:_ZN6MathML3AST26BinaryComparisonExpression11setOperatorENS1_8OperatorE
libMathMLSolver.so:_ZN6MathML3AST26BinaryComparisonExpression11setOperatorERKNSt7__cxx1112basic_stringIcSt11char_traitsIcESaIcEEE
libMathMLSolver.so:_ZN6MathML3AST26BinaryComparisonExpression14operatorStringB5cxx11ENS1_8OperatorE
libMathMLSolver.so:_ZN6MathML3AST26BinaryComparisonExpression14setLeftOperandEPNS0_5INodeE
libMathMLSolver.so:_ZN6MathML3AST26BinaryComparisonExpression15setRightOperandEPNS0_5INodeE
libMathMLSolver.so:_ZN6MathML3AST26BinaryComparisonExpressionC1Ev
libMathMLSolver.so:_ZN6MathML3AST26BinaryComparisonExpressionC2Ev
libMathMLSolver.so:_ZN6MathML3AST26BinaryComparisonExpressionD0Ev
libMathMLSolver.so:_ZN6MathML3AST26BinaryComparisonExpressionD1Ev
libMathMLSolver.so:_ZN6MathML3AST26BinaryComparisonExpressionD2Ev
libMathMLSolver.so:_ZNK6MathML11SymbolTable11getFunctionERKNSt7__cxx1112basic_stringIcSt11char_traitsIcESaIcEEE
libMathMLSolver.so:_ZNK6MathML11SymbolTable11getVariableERKNSt7__cxx1112basic_stringIcSt11char_traitsIcESaIcEEE
libMathMLSolver.so:_ZNK6MathML11SymbolTable12findFunctionERKNSt7__cxx1112basic_stringIcSt11char_traitsIcESaIcEEE
libMathMLSolver.so:_ZNK6MathML11SymbolTable12findVariableERKNSt7__cxx1112basic_stringIcSt11char_traitsIcESaIcEEE
libMathMLSolver.so:_ZNK6MathML11SymbolTable12getFunctionsB5cxx11Ev
libMathMLSolver.so:_ZNK6MathML11SymbolTable12getVariablesB5cxx11Ev
libMathMLSolver.so:_ZNK6MathML11SymbolTable14existsFunctionERKNSt7__cxx1112basic_stringIcSt11char_traitsIcESaIcEEE
libMathMLSolver.so:_ZNK6MathML3AST15LogicExpression11getOperandsEv
libMathMLSolver.so:_ZNK6MathML3AST15LogicExpression11getOperatorEv
libMathMLSolver.so:_ZNK6MathML3AST15LogicExpression17getOperatorStringB5cxx11Ev
libMathMLSolver.so:_ZNK6MathML3AST15LogicExpression5cloneENS0_5INode10CloneFlagsE
libMathMLSolver.so:_ZNK6MathML3AST15LogicExpression6acceptEPNS0_8IVisitorE
libMathMLSolver.so:_ZNK6MathML3AST15UnaryExpression10getOperandEv
libMathMLSolver.so:_ZNK6MathML3AST15UnaryExpression11getOperatorEv
libMathMLSolver.so:_ZNK6MathML3AST15UnaryExpression17getOperatorStringB5cxx11Ev
libMathMLSolver.so:_ZNK6MathML3AST15UnaryExpression5cloneENS0_5INode10CloneFlagsE
libMathMLSolver.so:_ZNK6MathML3AST15UnaryExpression6acceptEPNS0_8IVisitorE
libMathMLSolver.so:_ZNK6MathML3AST18ConstantExpression12getBoolValueEv
libMathMLSolver.so:_ZNK6MathML3AST18ConstantExpression12getLongValueEv
libMathMLSolver.so:_ZNK6MathML3AST18ConstantExpression14getDoubleValueEv
libMathMLSolver.so:_ZNK6MathML3AST18ConstantExpression14getStringValueB5cxx11Ev
libMathMLSolver.so:_ZNK6MathML3AST18ConstantExpression14unaryOperationERS1_NS0_15UnaryExpression8OperatorE
libMathMLSolver.so:_ZNK6MathML3AST18ConstantExpression20getUnsignedLongValueEv
libMathMLSolver.so:_ZNK6MathML3AST18ConstantExpression22logicalBinaryOperationERS1_RKS1_NS0_15LogicExpression8OperatorE
libMathMLSolver.so:_ZNK6MathML3AST18ConstantExpression25relationalBinaryOperationERS1_RKS1_NS0_26BinaryComparisonExpression8OperatorE
libMathMLSolver.so:_ZNK6MathML3AST18ConstantExpression27arithmeticalBinaryOperationERS1_RKS1_NS0_20ArithmeticExpression8OperatorE
libMathMLSolver.so:_ZNK6MathML3AST18ConstantExpression5cloneENS0_5INode10CloneFlagsE
libMathMLSolver.so:_ZNK6MathML3AST18ConstantExpression6acceptEPNS0_8IVisitorE
libMathMLSolver.so:_ZNK6MathML3AST18ConstantExpression7getTypeEv
libMathMLSolver.so:_ZNK6MathML3AST18ConstantExpression8toStringB5cxx11Ev
libMathMLSolver.so:_ZNK6MathML3AST18FragmentExpression11getFragmentEv
libMathMLSolver.so:_ZNK6MathML3AST18FragmentExpression15getParameterMapB5cxx11Ev
libMathMLSolver.so:_ZNK6MathML3AST18FragmentExpression16getParameterListEv
libMathMLSolver.so:_ZNK6MathML3AST18FragmentExpression22getParameterSymbolListB5cxx11Ev
libMathMLSolver.so:_ZNK6MathML3AST18FragmentExpression5cloneENS0_5INode10CloneFlagsE
libMathMLSolver.so:_ZNK6MathML3AST18FragmentExpression6acceptEPNS0_8IVisitorE
libMathMLSolver.so:_ZNK6MathML3AST18FragmentExpression7getArgcEv
libMathMLSolver.so:_ZNK6MathML3AST18FragmentExpression7getNameB5cxx11Ev
libMathMLSolver.so:_ZNK6MathML3AST18FunctionExpression16getParameterListEv
libMathMLSolver.so:_ZNK6MathML3AST18FunctionExpression5cloneENS0_5INode10CloneFlagsE
libMathMLSolver.so:_ZNK6MathML3AST18FunctionExpression6acceptEPNS0_8IVisitorE
libMathMLSolver.so:_ZNK6MathML3AST18FunctionExpression7getNameB5cxx11Ev
libMathMLSolver.so:_ZNK6MathML3AST18VariableExpression5cloneENS0_5INode10CloneFlagsE
libMathMLSolver.so:_ZNK6MathML3AST18VariableExpression6acceptEPNS0_8IVisitorE
libMathMLSolver.so:_ZNK6MathML3AST18VariableExpression7getNameB5cxx11Ev
libMathMLSolver.so:_ZNK6MathML3AST18VariableExpression8getValueEv
libMathMLSolver.so:_ZNK6MathML3AST20ArithmeticExpression11getOperandsEv
libMathMLSolver.so:_ZNK6MathML3AST20ArithmeticExpression11getOperatorEv
libMathMLSolver.so:_ZNK6MathML3AST20ArithmeticExpression17getOperatorStringB5cxx11Ev
libMathMLSolver.so:_ZNK6MathML3AST20ArithmeticExpression5cloneENS0_5INode10CloneFlagsE
libMathMLSolver.so:_ZNK6MathML3AST20ArithmeticExpression6acceptEPNS0_8IVisitorE
libMathMLSolver.so:_ZNK6MathML3AST26BinaryComparisonExpression11getOperatorEv
libMathMLSolver.so:_ZNK6MathML3AST26BinaryComparisonExpression14getLeftOperandEv
libMathMLSolver.so:_ZNK6MathML3AST26BinaryComparisonExpression15getRightOperandEv
libMathMLSolver.so:_ZNK6MathML3AST26BinaryComparisonExpression17getOperatorStringB5cxx11Ev
libMathMLSolver.so:_ZNK6MathML3AST26BinaryComparisonExpression5cloneENS0_5INode10CloneFlagsE
libMathMLSolver.so:_ZNK6MathML3AST26BinaryComparisonExpression6acceptEPNS0_8IVisitorE
libOpenCOLLADABaseUtils.so:_ZN9COLLADABU11StringUtils10isNameCharEwb
libOpenCOLLADABaseUtils.so:_ZN9COLLADABU11StringUtils10replaceDotERKNSt7__cxx1112basic_stringIcSt11char_traitsIcESaIcEEE
libOpenCOLLADABaseUtils.so:_ZN9COLLADABU11StringUtils10ucs2EncodeERKNSt7__cxx1112basic_stringIcSt11char_traitsIcESaIcEEE
libOpenCOLLADABaseUtils.so:_ZN9COLLADABU11StringUtils10ucs2EncodeERKNSt7__cxx1112basic_stringIwSt11char_traitsIwESaIwEEE
libOpenCOLLADABaseUtils.so:_ZN9COLLADABU11StringUtils11checkNCNameERKNSt7__cxx1112basic_stringIwSt11char_traitsIwESaIwEEEb
libOpenCOLLADABaseUtils.so:_ZN9COLLADABU11StringUtils14translateToXMLERKNSt7__cxx1112basic_stringIcSt11char_traitsIcESaIcEEE
libOpenCOLLADABaseUtils.so:_ZN9COLLADABU11StringUtils14translateToXMLERKNSt7__cxx1112basic_stringIwSt11char_traitsIwESaIwEEE
libOpenCOLLADABaseUtils.so:_ZN9COLLADABU11StringUtils15isNameStartCharEwb
libOpenCOLLADABaseUtils.so:_ZN9COLLADABU11StringUtils16equalsIgnoreCaseERKNSt7__cxx1112basic_stringIwSt11char_traitsIwESaIwEEES8_
libOpenCOLLADABaseUtils.so:_ZN9COLLADABU11StringUtils16toUpperASCIICharEc
libOpenCOLLADABaseUtils.so:_ZN9COLLADABU11StringUtils21utf8String2WideStringERKNSt7__cxx1112basic_stringIcSt11char_traitsIcESaIcEEE
libOpenCOLLADABaseUtils.so:_ZN9COLLADABU11StringUtils21wideString2utf8StringERKNSt7__cxx1112basic_stringIwSt11char_traitsIwESaIwEEE
libOpenCOLLADABaseUtils.so:_ZN9COLLADABU11StringUtils22checkIDWithUC2EncodingERKNSt7__cxx1112basic_stringIwSt11char_traitsIwESaIwEEE
libOpenCOLLADABaseUtils.so:_ZN9COLLADABU11StringUtils27checkNCNameWithUCS2EncodingERKNSt7__cxx1112basic_stringIwSt11char_traitsIwESaIwEEEb
libOpenCOLLADABaseUtils.so:_ZN9COLLADABU11StringUtils29isNameStartCharExcludingColonEw
libOpenCOLLADABaseUtils.so:_ZN9COLLADABU11StringUtils7PrepassERKNSt7__cxx1112basic_stringIwSt11char_traitsIwESaIwEEEi
libOpenCOLLADABaseUtils.so:_ZN9COLLADABU11StringUtils7checkIDERKNSt7__cxx1112basic_stringIwSt11char_traitsIwESaIwEEE
libOpenCOLLADABaseUtils.so:_ZN9COLLADABU11StringUtils9uriEncodeERKNSt7__cxx1112basic_stringIcSt11char_traitsIcESaIcEEE
libOpenCOLLADABaseUtils.so:_ZN9COLLADABU12NativeString14fromWideStringERKNSt7__cxx1112basic_stringIwSt11char_traitsIwESaIwEEE
libOpenCOLLADABaseUtils.so:_ZN9COLLADABU12NativeStringC1EPKcNS0_8EncodingE
libOpenCOLLADABaseUtils.so:_ZN9COLLADABU12NativeStringC1ERKNSt7__cxx1112basic_stringIcSt11char_traitsIcESaIcEEENS0_8EncodingE
libOpenCOLLADABaseUtils.so:_ZN9COLLADABU12NativeStringC2EPKcNS0_8EncodingE
libOpenCOLLADABaseUtils.so:_ZN9COLLADABU12NativeStringC2ERKNSt7__cxx1112basic_stringIcSt11char_traitsIcESaIcEEENS0_8EncodingE
libOpenCOLLADABaseUtils.so:_ZN9COLLADABU13calculateHashEPKc
libOpenCOLLADABaseUtils.so:_ZN9COLLADABU13calculateHashERKNS_3URIE
libOpenCOLLADABaseUtils.so:_ZN9COLLADABU13calculateHashERKNSt7__cxx1112basic_stringIcSt11char_traitsIcESaIcEEE
libOpenCOLLADABaseUtils.so:_ZN9COLLADABU18calculateHashUpperEPKc
libOpenCOLLADABaseUtils.so:_ZN9COLLADABU18calculateHashUpperERKNSt7__cxx1112basic_stringIcSt11char_traitsIcESaIcEEE
libOpenCOLLADABaseUtils.so:_ZN9COLLADABU19PcreCompiledPattern14compilePatternEPKc
libOpenCOLLADABaseUtils.so:_ZN9COLLADABU19PcreCompiledPatternC1EPKc
libOpenCOLLADABaseUtils.so:_ZN9COLLADABU19PcreCompiledPatternC2EPKc
libOpenCOLLADABaseUtils.so:_ZN9COLLADABU19PcreCompiledPatternD0Ev
libOpenCOLLADABaseUtils.so:_ZN9COLLADABU19PcreCompiledPatternD1Ev
libOpenCOLLADABaseUtils.so:_ZN9COLLADABU19PcreCompiledPatternD2Ev
libOpenCOLLADABaseUtils.so:_ZN9COLLADABU20setStringFromMatchesERNSt7__cxx1112basic_stringIcSt11char_traitsIcESaIcEEERKS5_Pii
libOpenCOLLADABaseUtils.so:_ZN9COLLADABU3URI10initializeEv
libOpenCOLLADABaseUtils.so:_ZN9COLLADABU3URI10setPathDirERKNSt7__cxx1112basic_stringIcSt11char_traitsIcESaIcEEE
libOpenCOLLADABaseUtils.so:_ZN9COLLADABU3URI11SCHEME_FILEB5cxx11E
libOpenCOLLADABaseUtils.so:_ZN9COLLADABU3URI11SCHEME_HTTPB5cxx11E
libOpenCOLLADABaseUtils.so:_ZN9COLLADABU3URI11assembleUriERKNSt7__cxx1112basic_stringIcSt11char_traitsIcESaIcEEES8_S8_S8_S8_b
libOpenCOLLADABaseUtils.so:_ZN9COLLADABU3URI11parseUriRefERKNSt7__cxx1112basic_stringIcSt11char_traitsIcESaIcEEERS6_S9_S9_S9_S9_
libOpenCOLLADABaseUtils.so:_ZN9COLLADABU3URI11setFragmentERKNSt7__cxx1112basic_stringIcSt11char_traitsIcESaIcEEE
libOpenCOLLADABaseUtils.so:_ZN9COLLADABU3URI11setPathFileERKNSt7__cxx1112basic_stringIcSt11char_traitsIcESaIcEEE
libOpenCOLLADABaseUtils.so:_ZN9COLLADABU3URI12SCHEME_HTTPSB5cxx11E
libOpenCOLLADABaseUtils.so:_ZN9COLLADABU3URI12setAuthorityERKNSt7__cxx1112basic_stringIcSt11char_traitsIcESaIcEEE
libOpenCOLLADABaseUtils.so:_ZN9COLLADABU3URI14makeRelativeToERKS0_b
libOpenCOLLADABaseUtils.so:_ZN9COLLADABU3URI15nativePathToUriERKNSt7__cxx1112basic_stringIcSt11char_traitsIcESaIcEEENS_5Utils10SystemTypeE
libOpenCOLLADABaseUtils.so:_ZN9COLLADABU3URI15setPathFileBaseERKNSt7__cxx1112basic_stringIcSt11char_traitsIcESaIcEEE
libOpenCOLLADABaseUtils.so:_ZN9COLLADABU3URI16normalizeURIPathEPc
libOpenCOLLADABaseUtils.so:_ZN9COLLADABU3URI16setPathExtensionERKNSt7__cxx1112basic_stringIcSt11char_traitsIcESaIcEEE
libOpenCOLLADABaseUtils.so:_ZN9COLLADABU3URI3setEPKcPKS0_
libOpenCOLLADABaseUtils.so:_ZN9COLLADABU3URI3setEPKcmPKS0_
libOpenCOLLADABaseUtils.so:_ZN9COLLADABU3URI3setERKNSt7__cxx1112basic_stringIcSt11char_traitsIcESaIcEEEPKS0_
libOpenCOLLADABaseUtils.so:_ZN9COLLADABU3URI3setERKNSt7__cxx1112basic_stringIcSt11char_traitsIcESaIcEEES8_S8_S8_S8_PKS0_
libOpenCOLLADABaseUtils.so:_ZN9COLLADABU3URI5resetEv
libOpenCOLLADABaseUtils.so:_ZN9COLLADABU3URI5setIdERKNSt7__cxx1112basic_stringIcSt11char_traitsIcESaIcEEE
libOpenCOLLADABaseUtils.so:_ZN9COLLADABU3URI7INVALIDE
libOpenCOLLADABaseUtils.so:_ZN9COLLADABU3URI7setPathERKNSt7__cxx1112basic_stringIcSt11char_traitsIcESaIcEEE
libOpenCOLLADABaseUtils.so:_ZN9COLLADABU3URI7setPathERKNSt7__cxx1112basic_stringIcSt11char_traitsIcESaIcEEES8_S8_
libOpenCOLLADABaseUtils.so:_ZN9COLLADABU3URI8copyFromERKS0_
libOpenCOLLADABaseUtils.so:_ZN9COLLADABU3URI8setQueryERKNSt7__cxx1112basic_stringIcSt11char_traitsIcESaIcEEE
libOpenCOLLADABaseUtils.so:_ZN9COLLADABU3URI8validateEPKS0_
libOpenCOLLADABaseUtils.so:_ZN9COLLADABU3URI8validateEv
libOpenCOLLADABaseUtils.so:_ZN9COLLADABU3URI9parsePathERKNSt7__cxx1112basic_stringIcSt11char_traitsIcESaIcEEERS6_S9_S9_
libOpenCOLLADABaseUtils.so:_ZN9COLLADABU3URI9setSchemeERKNSt7__cxx1112basic_stringIcSt11char_traitsIcESaIcEEE
libOpenCOLLADABaseUtils.so:_ZN9COLLADABU3URI9uriDecodeERKNSt7__cxx1112basic_stringIcSt11char_traitsIcESaIcEEE
libOpenCOLLADABaseUtils.so:_ZN9COLLADABU3URI9uriEncodeERKNSt7__cxx1112basic_stringIcSt11char_traitsIcESaIcEEE
libOpenCOLLADABaseUtils.so:_ZN9COLLADABU3URIC1EPKc
libOpenCOLLADABaseUtils.so:_ZN9COLLADABU3URIC1EPKcm
libOpenCOLLADABaseUtils.so:_ZN9COLLADABU3URIC1ERKNSt7__cxx1112basic_stringIcSt11char_traitsIcESaIcEEES8_
libOpenCOLLADABaseUtils.so:_ZN9COLLADABU3URIC1ERKNSt7__cxx1112basic_stringIcSt11char_traitsIcESaIcEEEb
libOpenCOLLADABaseUtils.so:_ZN9COLLADABU3URIC1ERKS0_RKNSt7__cxx1112basic_stringIcSt11char_traitsIcESaIcEEE
libOpenCOLLADABaseUtils.so:_ZN9COLLADABU3URIC1ERKS0_b
libOpenCOLLADABaseUtils.so:_ZN9COLLADABU3URIC1Ev
libOpenCOLLADABaseUtils.so:_ZN9COLLADABU3URIC2EPKc
libOpenCOLLADABaseUtils.so:_ZN9COLLADABU3URIC2EPKcm
libOpenCOLLADABaseUtils.so:_ZN9COLLADABU3URIC2ERKNSt7__cxx1112basic_stringIcSt11char_traitsIcESaIcEEES8_
libOpenCOLLADABaseUtils.so:_ZN9COLLADABU3URIC2ERKNSt7__cxx1112basic_stringIcSt11char_traitsIcESaIcEEEb
libOpenCOLLADABaseUtils.so:_ZN9COLLADABU3URIC2ERKS0_RKNSt7__cxx1112basic_stringIcSt11char_traitsIcESaIcEEE
libOpenCOLLADABaseUtils.so:_ZN9COLLADABU3URIC2ERKS0_b
libOpenCOLLADABaseUtils.so:_ZN9COLLADABU3URIC2Ev
libOpenCOLLADABaseUtils.so:_ZN9COLLADABU3URID1Ev
libOpenCOLLADABaseUtils.so:_ZN9COLLADABU3URID2Ev
libOpenCOLLADABaseUtils.so:_ZN9COLLADABU3URIaSERKNSt7__cxx1112basic_stringIcSt11char_traitsIcESaIcEEE
libOpenCOLLADABaseUtils.so:_ZN9COLLADABU3URIaSERKS0_
libOpenCOLLADABaseUtils.so:_ZN9COLLADABU4Math10Quaternion11ms_fEpsilonE
libOpenCOLLADABaseUtils.so:_ZN9COLLADABU4Math10Quaternion12intermediateERKS1_S3_S3_RS1_S4_
libOpenCOLLADABaseUtils.so:_ZN9COLLADABU4Math10Quaternion13fromAngleAxisERKdRKNS0_7Vector3E
libOpenCOLLADABaseUtils.so:_ZN9COLLADABU4Math10Quaternion18fromRotationMatrixERKNS0_7Matrix3E
libOpenCOLLADABaseUtils.so:_ZN9COLLADABU4Math10Quaternion4ZEROE
libOpenCOLLADABaseUtils.so:_ZN9COLLADABU4Math10Quaternion5nlerpEdRKS1_S3_b
libOpenCOLLADABaseUtils.so:_ZN9COLLADABU4Math10Quaternion8IDENTITYE
libOpenCOLLADABaseUtils.so:_ZN9COLLADABU4Math10Quaternion8fromAxesEPKNS0_7Vector3E
libOpenCOLLADABaseUtils.so:_ZN9COLLADABU4Math10Quaternion8fromAxesERKNS0_7Vector3ES4_S4_
libOpenCOLLADABaseUtils.so:_ZN9COLLADABU4Math10Quaternion9normaliseEv
libOpenCOLLADABaseUtils.so:_ZN9COLLADABU4Math5Utils10DEG_TO_RADE
libOpenCOLLADABaseUtils.so:_ZN9COLLADABU4Math5Utils10RAD_TO_DEGE
libOpenCOLLADABaseUtils.so:_ZN9COLLADABU4Math5Utils12DEG_TO_RAD_fE
libOpenCOLLADABaseUtils.so:_ZN9COLLADABU4Math5Utils12RAD_TO_DEG_fE
libOpenCOLLADABaseUtils.so:_ZN9COLLADABU4Math5Utils13epsilonEqualsEddd
libOpenCOLLADABaseUtils.so:_ZN9COLLADABU4Math5Utils19getMatrixTransposedEPfNS0_7Matrix4E
libOpenCOLLADABaseUtils.so:_ZN9COLLADABU4Math5Utils2PIE
libOpenCOLLADABaseUtils.so:_ZN9COLLADABU4Math5Utils4PI_fE
libOpenCOLLADABaseUtils.so:_ZN9COLLADABU4Math7Matrix311qLAlgorithmEPdS2_
libOpenCOLLADABaseUtils.so:_ZN9COLLADABU4Math7Matrix311tridiagonalEPdS2_
libOpenCOLLADABaseUtils.so:_ZN9COLLADABU4Math7Matrix312maxCubicRootEPd
libOpenCOLLADABaseUtils.so:_ZN9COLLADABU4Math7Matrix313bidiagonalizeERS1_S2_S2_
libOpenCOLLADABaseUtils.so:_ZN9COLLADABU4Math7Matrix313fromAxisAngleERKNS0_7Vector3ERKd
libOpenCOLLADABaseUtils.so:_ZN9COLLADABU4Math7Matrix313tensorProductERKNS0_7Vector3ES4_RS1_
libOpenCOLLADABaseUtils.so:_ZN9COLLADABU4Math7Matrix314golubKahanStepERS1_S2_S2_
libOpenCOLLADABaseUtils.so:_ZN9COLLADABU4Math7Matrix314ms_fSvdEpsilonE
libOpenCOLLADABaseUtils.so:_ZN9COLLADABU4Math7Matrix314orthonormalizeEv
libOpenCOLLADABaseUtils.so:_ZN9COLLADABU4Math7Matrix318fromEulerAnglesXYZERKdS3_S3_
libOpenCOLLADABaseUtils.so:_ZN9COLLADABU4Math7Matrix318fromEulerAnglesXZYERKdS3_S3_
libOpenCOLLADABaseUtils.so:_ZN9COLLADABU4Math7Matrix318fromEulerAnglesYXZERKdS3_S3_
libOpenCOLLADABaseUtils.so:_ZN9COLLADABU4Math7Matrix318fromEulerAnglesYZXERKdS3_S3_
libOpenCOLLADABaseUtils.so:_ZN9COLLADABU4Math7Matrix318fromEulerAnglesZXYERKdS3_S3_
libOpenCOLLADABaseUtils.so:_ZN9COLLADABU4Math7Matrix318fromEulerAnglesZYXERKdS3_S3_
libOpenCOLLADABaseUtils.so:_ZN9COLLADABU4Math7Matrix320ms_iSvdMaxIterationsE
libOpenCOLLADABaseUtils.so:_ZN9COLLADABU4Math7Matrix324singularValueCompositionERKS1_RKNS0_7Vector3ES3_
libOpenCOLLADABaseUtils.so:_ZN9COLLADABU4Math7Matrix34ZEROE
libOpenCOLLADABaseUtils.so:_ZN9COLLADABU4Math7Matrix37EPSILONE
libOpenCOLLADABaseUtils.so:_ZN9COLLADABU4Math7Matrix38IDENTITYE
libOpenCOLLADABaseUtils.so:_ZN9COLLADABU4Math7Matrix38fromAxesERKNS0_7Vector3ES4_S4_
libOpenCOLLADABaseUtils.so:_ZN9COLLADABU4Math7Matrix39setColumnEmRKNS0_7Vector3E
libOpenCOLLADABaseUtils.so:_ZN9COLLADABU4Math7Matrix413makeTransformERKNS0_7Vector3ES4_RKNS0_10QuaternionE
libOpenCOLLADABaseUtils.so:_ZN9COLLADABU4Math7Matrix423CLIPSPACE2DTOIMAGESPACEE
libOpenCOLLADABaseUtils.so:_ZN9COLLADABU4Math7Matrix44ZEROE
libOpenCOLLADABaseUtils.so:_ZN9COLLADABU4Math7Matrix48IDENTITYE
libOpenCOLLADABaseUtils.so:_ZN9COLLADABU4Math7Matrix49setRotateENS0_7Vector3Eddd
libOpenCOLLADABaseUtils.so:_ZN9COLLADABU4Math7Vector310UNIT_SCALEE
libOpenCOLLADABaseUtils.so:_ZN9COLLADABU4Math7Vector315NEGATIVE_UNIT_XE
libOpenCOLLADABaseUtils.so:_ZN9COLLADABU4Math7Vector315NEGATIVE_UNIT_YE
libOpenCOLLADABaseUtils.so:_ZN9COLLADABU4Math7Vector315NEGATIVE_UNIT_ZE
libOpenCOLLADABaseUtils.so:_ZN9COLLADABU4Math7Vector34ZEROE
libOpenCOLLADABaseUtils.so:_ZN9COLLADABU4Math7Vector36UNIT_XE
libOpenCOLLADABaseUtils.so:_ZN9COLLADABU4Math7Vector36UNIT_YE
libOpenCOLLADABaseUtils.so:_ZN9COLLADABU4Math7Vector36UNIT_ZE
libOpenCOLLADABaseUtils.so:_ZN9COLLADABU4MathmlERKNS0_7Vector3ERKNS0_7Matrix3E
libOpenCOLLADABaseUtils.so:_ZN9COLLADABU4MathmlEdRKNS0_10QuaternionE
libOpenCOLLADABaseUtils.so:_ZN9COLLADABU4MathmlEdRKNS0_7Matrix3E
libOpenCOLLADABaseUtils.so:_ZN9COLLADABU5Utils10deleteFileERKNSt7__cxx1112basic_stringIcSt11char_traitsIcESaIcEEE
libOpenCOLLADABaseUtils.so:_ZN9COLLADABU5Utils10replaceDotERKNSt7__cxx1112basic_stringIcSt11char_traitsIcESaIcEEE
libOpenCOLLADABaseUtils.so:_ZN9COLLADABU5Utils11checkNCNameERKNSt7__cxx1112basic_stringIcSt11char_traitsIcESaIcEEE
libOpenCOLLADABaseUtils.so:_ZN9COLLADABU5Utils12EMPTY_STRINGB5cxx11E
libOpenCOLLADABaseUtils.so:_ZN9COLLADABU5Utils13FILE_PROTOCOLB5cxx11E
libOpenCOLLADABaseUtils.so:_ZN9COLLADABU5Utils13getSystemTypeEv
libOpenCOLLADABaseUtils.so:_ZN9COLLADABU5Utils14FILE_DELIMITERB5cxx11E
libOpenCOLLADABaseUtils.so:_ZN9COLLADABU5Utils14translateToXMLERKNSt7__cxx1112basic_stringIcSt11char_traitsIcESaIcEEE
libOpenCOLLADABaseUtils.so:_ZN9COLLADABU5Utils15directoryExistsERKNSt7__cxx1112basic_stringIcSt11char_traitsIcESaIcEEE
libOpenCOLLADABaseUtils.so:_ZN9COLLADABU5Utils16equalsIgnoreCaseERKNSt7__cxx1112basic_stringIcSt11char_traitsIcESaIcEEES8_
libOpenCOLLADABaseUtils.so:_ZN9COLLADABU5Utils19FILE_DELIMITER_CHARE
libOpenCOLLADABaseUtils.so:_ZN9COLLADABU5Utils20stringFindAndReplaceERNSt7__cxx1112basic_stringIcSt11char_traitsIcESaIcEEES6_S6_
libOpenCOLLADABaseUtils.so:_ZN9COLLADABU5Utils23createDirectoryIfNeededERKNSt7__cxx1112basic_stringIcSt11char_traitsIcESaIcEEE
libOpenCOLLADABaseUtils.so:_ZN9COLLADABU5Utils23fileExistsAndIsReadableERKNSt7__cxx1112basic_stringIcSt11char_traitsIcESaIcEEE
libOpenCOLLADABaseUtils.so:_ZN9COLLADABU5Utils24createDirectoryRecursiveERKNSt7__cxx1112basic_stringIcSt11char_traitsIcESaIcEEE
libOpenCOLLADABaseUtils.so:_ZN9COLLADABU5Utils5splitERKNSt7__cxx1112basic_stringIcSt11char_traitsIcESaIcEEES8_RSt6vectorIS6_SaIS6_EE
libOpenCOLLADABaseUtils.so:_ZN9COLLADABU5Utils6equalsERKNSt7__cxx1112basic_stringIcSt11char_traitsIcESaIcEEES8_
libOpenCOLLADABaseUtils.so:_ZN9COLLADABU5Utils7checkIDERKNSt7__cxx1112basic_stringIcSt11char_traitsIcESaIcEEE
libOpenCOLLADABaseUtils.so:_ZN9COLLADABU5Utils8copyFileERKNSt7__cxx1112basic_stringIcSt11char_traitsIcESaIcEEES8_
libOpenCOLLADABaseUtils.so:_ZN9COLLADABU6IDList10containsIdERKNSt7__cxx1112basic_stringIcSt11char_traitsIcESaIcEEE
libOpenCOLLADABaseUtils.so:_ZN9COLLADABU6IDList5addIdERKNSt7__cxx1112basic_stringIcSt11char_traitsIcESaIcEEEbb
libOpenCOLLADABaseUtils.so:_ZN9COLLADABU6IDListC1EPFNSt7__cxx1112basic_stringIcSt11char_traitsIcESaIcEEERKS6_E
libOpenCOLLADABaseUtils.so:_ZN9COLLADABU6IDListC2EPFNSt7__cxx1112basic_stringIcSt11char_traitsIcESaIcEEERKS6_E
libOpenCOLLADABaseUtils.so:_ZNK9COLLADABU12NativeString12toUtf8StringB5cxx11Ev
libOpenCOLLADABaseUtils.so:_ZNK9COLLADABU12NativeString12toWideStringB5cxx11Ev
libOpenCOLLADABaseUtils.so:_ZNK9COLLADABU19PcreCompiledPattern18getCompiledPatternEv
libOpenCOLLADABaseUtils.so:_ZNK9COLLADABU3URI10getPathDirB5cxx11Ev
libOpenCOLLADABaseUtils.so:_ZNK9COLLADABU3URI11getPathFileB5cxx11Ev
libOpenCOLLADABaseUtils.so:_ZNK9COLLADABU3URI11originalStrB5cxx11Ev
libOpenCOLLADABaseUtils.so:_ZNK9COLLADABU3URI12getURIStringB5cxx11Ev
libOpenCOLLADABaseUtils.so:_ZNK9COLLADABU3URI12toNativePathB5cxx11ENS_5Utils10SystemTypeE
libOpenCOLLADABaseUtils.so:_ZNK9COLLADABU3URI13getRelativeToERKS0_Rbb
libOpenCOLLADABaseUtils.so:_ZNK9COLLADABU3URI14pathComponentsERNSt7__cxx1112basic_stringIcSt11char_traitsIcESaIcEEES7_S7_
libOpenCOLLADABaseUtils.so:_ZNK9COLLADABU3URI15getPathFileBaseB5cxx11Ev
libOpenCOLLADABaseUtils.so:_ZNK9COLLADABU3URI16getPathExtensionB5cxx11Ev
libOpenCOLLADABaseUtils.so:_ZNK9COLLADABU3URI2idB5cxx11Ev
libOpenCOLLADABaseUtils.so:_ZNK9COLLADABU3URI4pathB5cxx11Ev
libOpenCOLLADABaseUtils.so:_ZNK9COLLADABU3URI5queryB5cxx11Ev
libOpenCOLLADABaseUtils.so:_ZNK9COLLADABU3URI6schemeB5cxx11Ev
libOpenCOLLADABaseUtils.so:_ZNK9COLLADABU3URI8fragmentB5cxx11Ev
libOpenCOLLADABaseUtils.so:_ZNK9COLLADABU3URI9authorityB5cxx11Ev
libOpenCOLLADABaseUtils.so:_ZNK9COLLADABU3URIcvmEv
libOpenCOLLADABaseUtils.so:_ZNK9COLLADABU3URIltERKS0_
libOpenCOLLADABaseUtils.so:_ZNK9COLLADABU4Math10Quaternion11toAngleAxisERdRNS0_7Vector3E
libOpenCOLLADABaseUtils.so:_ZNK9COLLADABU4Math10Quaternion11unitInverseEv
libOpenCOLLADABaseUtils.so:_ZNK9COLLADABU4Math10Quaternion16toRotationMatrixERNS0_7Matrix3E
libOpenCOLLADABaseUtils.so:_ZNK9COLLADABU4Math10Quaternion3dotERKS1_
libOpenCOLLADABaseUtils.so:_ZNK9COLLADABU4Math10Quaternion3expEv
libOpenCOLLADABaseUtils.so:_ZNK9COLLADABU4Math10Quaternion3logEv
libOpenCOLLADABaseUtils.so:_ZNK9COLLADABU4Math10Quaternion4normEv
libOpenCOLLADABaseUtils.so:_ZNK9COLLADABU4Math10Quaternion5xAxisEv
libOpenCOLLADABaseUtils.so:_ZNK9COLLADABU4Math10Quaternion5yAxisEv
libOpenCOLLADABaseUtils.so:_ZNK9COLLADABU4Math10Quaternion5zAxisEv
libOpenCOLLADABaseUtils.so:_ZNK9COLLADABU4Math10Quaternion6getYawEv
libOpenCOLLADABaseUtils.so:_ZNK9COLLADABU4Math10Quaternion6toAxesEPNS0_7Vector3E
libOpenCOLLADABaseUtils.so:_ZNK9COLLADABU4Math10Quaternion6toAxesERNS0_7Vector3ES3_S3_
libOpenCOLLADABaseUtils.so:_ZNK9COLLADABU4Math10Quaternion7getRollEv
libOpenCOLLADABaseUtils.so:_ZNK9COLLADABU4Math10Quaternion7inverseEv
libOpenCOLLADABaseUtils.so:_ZNK9COLLADABU4Math10Quaternion8getPitchEv
libOpenCOLLADABaseUtils.so:_ZNK9COLLADABU4Math10QuaternionmiERKS1_
libOpenCOLLADABaseUtils.so:_ZNK9COLLADABU4Math10QuaternionmlERKNS0_7Vector3E
libOpenCOLLADABaseUtils.so:_ZNK9COLLADABU4Math10QuaternionmlERKS1_
libOpenCOLLADABaseUtils.so:_ZNK9COLLADABU4Math10QuaternionmlEd
libOpenCOLLADABaseUtils.so:_ZNK9COLLADABU4Math10QuaternionngEv
libOpenCOLLADABaseUtils.so:_ZNK9COLLADABU4Math10QuaternionplERKS1_
libOpenCOLLADABaseUtils.so:_ZNK9COLLADABU4Math7Matrix311determinantEv
libOpenCOLLADABaseUtils.so:_ZNK9COLLADABU4Math7Matrix311toAxisAngleERNS0_7Vector3ERd
libOpenCOLLADABaseUtils.so:_ZNK9COLLADABU4Math7Matrix312spectralNormEv
libOpenCOLLADABaseUtils.so:_ZNK9COLLADABU4Math7Matrix316qDUDecompositionERS1_RNS0_7Vector3ES4_
libOpenCOLLADABaseUtils.so:_ZNK9COLLADABU4Math7Matrix316toEulerAnglesXYZERdS2_S2_
libOpenCOLLADABaseUtils.so:_ZNK9COLLADABU4Math7Matrix316toEulerAnglesXZYERdS2_S2_
libOpenCOLLADABaseUtils.so:_ZNK9COLLADABU4Math7Matrix316toEulerAnglesYXZERdS2_S2_
libOpenCOLLADABaseUtils.so:_ZNK9COLLADABU4Math7Matrix316toEulerAnglesYZXERdS2_S2_
libOpenCOLLADABaseUtils.so:_ZNK9COLLADABU4Math7Matrix316toEulerAnglesZXYERdS2_S2_
libOpenCOLLADABaseUtils.so:_ZNK9COLLADABU4Math7Matrix316toEulerAnglesZYXERdS2_S2_
libOpenCOLLADABaseUtils.so:_ZNK9COLLADABU4Math7Matrix319eigenSolveSymmetricEPdPNS0_7Vector3E
libOpenCOLLADABaseUtils.so:_ZNK9COLLADABU4Math7Matrix326singularValueDecompositionERS1_RNS0_7Vector3ES2_
libOpenCOLLADABaseUtils.so:_ZNK9COLLADABU4Math7Matrix37inverseERS1_d
libOpenCOLLADABaseUtils.so:_ZNK9COLLADABU4Math7Matrix37inverseEd
libOpenCOLLADABaseUtils.so:_ZNK9COLLADABU4Math7Matrix39getColumnEm
libOpenCOLLADABaseUtils.so:_ZNK9COLLADABU4Math7Matrix39transposeEv
libOpenCOLLADABaseUtils.so:_ZNK9COLLADABU4Math7Matrix3eqERKS1_
libOpenCOLLADABaseUtils.so:_ZNK9COLLADABU4Math7Matrix3miERKS1_
libOpenCOLLADABaseUtils.so:_ZNK9COLLADABU4Math7Matrix3mlERKNS0_7Vector3E
libOpenCOLLADABaseUtils.so:_ZNK9COLLADABU4Math7Matrix3mlERKS1_
libOpenCOLLADABaseUtils.so:_ZNK9COLLADABU4Math7Matrix3mlEd
libOpenCOLLADABaseUtils.so:_ZNK9COLLADABU4Math7Matrix3ngEv
libOpenCOLLADABaseUtils.so:_ZNK9COLLADABU4Math7Matrix3plERKS1_
libOpenCOLLADABaseUtils.so:_ZNK9COLLADABU4Math7Matrix411determinantEv
libOpenCOLLADABaseUtils.so:_ZNK9COLLADABU4Math7Matrix47adjointEv
libOpenCOLLADABaseUtils.so:_ZNK9COLLADABU4Math7Matrix47inverseEv
libOpenCOLLADAFramework.so:_ZN9COLLADAFW11LoaderUtils20getLowestObjectIdForENS_12COLLADA_TYPE7ClassIdE
libOpenCOLLADAFramework.so:_ZN9COLLADAFW11LoaderUtilsC1Ev
libOpenCOLLADAFramework.so:_ZN9COLLADAFW11LoaderUtilsC2Ev
libOpenCOLLADAFramework.so:_ZN9COLLADAFW11LoaderUtilsD0Ev
libOpenCOLLADAFramework.so:_ZN9COLLADAFW11LoaderUtilsD1Ev
libOpenCOLLADAFramework.so:_ZN9COLLADAFW11LoaderUtilsD2Ev
libOpenCOLLADAFramework.so:_ZN9COLLADAFW11RenderState20getCgRenderStateNameB5cxx11ERKNS0_9PassStateE
libOpenCOLLADAFramework.so:_ZN9COLLADAFW11RenderState20getPassStateFunctionEPKc
libOpenCOLLADAFramework.so:_ZN9COLLADAFW11RenderState21CG_RENDER_STATES_XREFE
libOpenCOLLADAFramework.so:_ZN9COLLADAFW11RenderState21CG_RENDER_STATE_NAMESB5cxx11E
libOpenCOLLADAFramework.so:_ZN9COLLADAFW11RenderState24getRenderStateFromCgNameEPKc
libOpenCOLLADAFramework.so:_ZN9COLLADAFW11RenderState24getTotalRenderStateCountEv
libOpenCOLLADAFramework.so:_ZN9COLLADAFW11RenderState25getColladaPassStateStringB5cxx11ERKNS0_17PassStateFunctionE
libOpenCOLLADAFramework.so:_ZN9COLLADAFW11RenderState25getColladaRenderStateNameB5cxx11ERKNS0_9PassStateE
libOpenCOLLADAFramework.so:_ZN9COLLADAFW11VisualSceneC1ERKNS_8UniqueIdE
libOpenCOLLADAFramework.so:_ZN9COLLADAFW11VisualSceneC2ERKNS_8UniqueIdE
libOpenCOLLADAFramework.so:_ZN9COLLADAFW11VisualSceneD0Ev
libOpenCOLLADAFramework.so:_ZN9COLLADAFW11VisualSceneD1Ev
libOpenCOLLADAFramework.so:_ZN9COLLADAFW11VisualSceneD2Ev
libOpenCOLLADAFramework.so:_ZN9COLLADAFW12EffectCommonC1Ev
libOpenCOLLADAFramework.so:_ZN9COLLADAFW12EffectCommonC2Ev
libOpenCOLLADAFramework.so:_ZN9COLLADAFW12EffectCommonD0Ev
libOpenCOLLADAFramework.so:_ZN9COLLADAFW12EffectCommonD1Ev
libOpenCOLLADAFramework.so:_ZN9COLLADAFW12EffectCommonD2Ev
libOpenCOLLADAFramework.so:_ZN9COLLADAFW12setFragmentsEPN6MathML3AST5INodeERKSt3mapIS3_S3_St4lessIS3_ESaISt4pairIKS3_S3_EEE
libOpenCOLLADAFramework.so:_ZN9COLLADAFW13AnimationClipC1ERKNS_8UniqueIdE
libOpenCOLLADAFramework.so:_ZN9COLLADAFW13AnimationClipC2ERKNS_8UniqueIdE
libOpenCOLLADAFramework.so:_ZN9COLLADAFW13AnimationClipD0Ev
libOpenCOLLADAFramework.so:_ZN9COLLADAFW13AnimationClipD1Ev
libOpenCOLLADAFramework.so:_ZN9COLLADAFW13AnimationClipD2Ev
libOpenCOLLADAFramework.so:_ZN9COLLADAFW13MeshPrimitiveC1ERKNS_8UniqueIdE
libOpenCOLLADAFramework.so:_ZN9COLLADAFW13MeshPrimitiveC1ERKNS_8UniqueIdENS0_13PrimitiveTypeE
libOpenCOLLADAFramework.so:_ZN9COLLADAFW13MeshPrimitiveC2ERKNS_8UniqueIdE
libOpenCOLLADAFramework.so:_ZN9COLLADAFW13MeshPrimitiveC2ERKNS_8UniqueIdENS0_13PrimitiveTypeE
libOpenCOLLADAFramework.so:_ZN9COLLADAFW13MeshPrimitiveD0Ev
libOpenCOLLADAFramework.so:_ZN9COLLADAFW13MeshPrimitiveD1Ev
libOpenCOLLADAFramework.so:_ZN9COLLADAFW13MeshPrimitiveD2Ev
libOpenCOLLADAFramework.so:_ZN9COLLADAFW14SkinControllerC1ERKNS_8UniqueIdE
libOpenCOLLADAFramework.so:_ZN9COLLADAFW14SkinControllerC1ERKS0_
libOpenCOLLADAFramework.so:_ZN9COLLADAFW14SkinControllerC2ERKNS_8UniqueIdE
libOpenCOLLADAFramework.so:_ZN9COLLADAFW14SkinControllerC2ERKS0_
libOpenCOLLADAFramework.so:_ZN9COLLADAFW14TransformationC1ENS0_18TransformationTypeE
libOpenCOLLADAFramework.so:_ZN9COLLADAFW14TransformationC2ENS0_18TransformationTypeE
libOpenCOLLADAFramework.so:_ZN9COLLADAFW14TransformationD0Ev
libOpenCOLLADAFramework.so:_ZN9COLLADAFW14TransformationD1Ev
libOpenCOLLADAFramework.so:_ZN9COLLADAFW14TransformationD2Ev
libOpenCOLLADAFramework.so:_ZN9COLLADAFW15KinematicsModelC1ERKNS_8UniqueIdE
libOpenCOLLADAFramework.so:_ZN9COLLADAFW15KinematicsModelC1ERKS0_
libOpenCOLLADAFramework.so:_ZN9COLLADAFW15KinematicsModelC2ERKNS_8UniqueIdE
libOpenCOLLADAFramework.so:_ZN9COLLADAFW15KinematicsModelC2ERKS0_
libOpenCOLLADAFramework.so:_ZN9COLLADAFW15KinematicsModelD0Ev
libOpenCOLLADAFramework.so:_ZN9COLLADAFW15KinematicsModelD1Ev
libOpenCOLLADAFramework.so:_ZN9COLLADAFW15KinematicsModelD2Ev
libOpenCOLLADAFramework.so:_ZN9COLLADAFW15KinematicsModelaSERKS0_
libOpenCOLLADAFramework.so:_ZN9COLLADAFW15KinematicsSceneC1Ev
libOpenCOLLADAFramework.so:_ZN9COLLADAFW15KinematicsSceneC2Ev
libOpenCOLLADAFramework.so:_ZN9COLLADAFW15KinematicsSceneD0Ev
libOpenCOLLADAFramework.so:_ZN9COLLADAFW15KinematicsSceneD1Ev
libOpenCOLLADAFramework.so:_ZN9COLLADAFW15KinematicsSceneD2Ev
libOpenCOLLADAFramework.so:_ZN9COLLADAFW15MorphControllerC1ERKNS_8UniqueIdE
libOpenCOLLADAFramework.so:_ZN9COLLADAFW15MorphControllerC1ERKS0_
libOpenCOLLADAFramework.so:_ZN9COLLADAFW15MorphControllerC2ERKNS_8UniqueIdE
libOpenCOLLADAFramework.so:_ZN9COLLADAFW15MorphControllerC2ERKS0_
libOpenCOLLADAFramework.so:_ZN9COLLADAFW18FloatOrDoubleArray12appendValuesERKNS_18ArrayPrimitiveTypeIdEE
libOpenCOLLADAFramework.so:_ZN9COLLADAFW18FloatOrDoubleArray12appendValuesERKNS_18ArrayPrimitiveTypeIfEE
libOpenCOLLADAFramework.so:_ZN9COLLADAFW18FloatOrDoubleArray14getFloatValuesEv
libOpenCOLLADAFramework.so:_ZN9COLLADAFW18FloatOrDoubleArray15getDoubleValuesEv
libOpenCOLLADAFramework.so:_ZN9COLLADAFW18FloatOrDoubleArray5clearEv
libOpenCOLLADAFramework.so:_ZN9COLLADAFW18FloatOrDoubleArray7setDataEPdm
libOpenCOLLADAFramework.so:_ZN9COLLADAFW18FloatOrDoubleArray7setDataEPfm
libOpenCOLLADAFramework.so:_ZN9COLLADAFW18FloatOrDoubleArrayC1ENS0_8DataTypeE
libOpenCOLLADAFramework.so:_ZN9COLLADAFW18FloatOrDoubleArrayC1ERKS0_
libOpenCOLLADAFramework.so:_ZN9COLLADAFW18FloatOrDoubleArrayC1Ev
libOpenCOLLADAFramework.so:_ZN9COLLADAFW18FloatOrDoubleArrayC2ENS0_8DataTypeE
libOpenCOLLADAFramework.so:_ZN9COLLADAFW18FloatOrDoubleArrayC2ERKS0_
libOpenCOLLADAFramework.so:_ZN9COLLADAFW18FloatOrDoubleArrayC2Ev
libOpenCOLLADAFramework.so:_ZN9COLLADAFW18FloatOrDoubleArrayD0Ev
libOpenCOLLADAFramework.so:_ZN9COLLADAFW18FloatOrDoubleArrayD1Ev
libOpenCOLLADAFramework.so:_ZN9COLLADAFW18FloatOrDoubleArrayD2Ev
libOpenCOLLADAFramework.so:_ZN9COLLADAFW18SkinControllerDataC1ERKNS_8UniqueIdE
libOpenCOLLADAFramework.so:_ZN9COLLADAFW18SkinControllerDataC2ERKNS_8UniqueIdE
libOpenCOLLADAFramework.so:_ZN9COLLADAFW18SkinControllerDataD0Ev
libOpenCOLLADAFramework.so:_ZN9COLLADAFW18SkinControllerDataD1Ev
libOpenCOLLADAFramework.so:_ZN9COLLADAFW18SkinControllerDataD2Ev
libOpenCOLLADAFramework.so:_ZN9COLLADAFW20KinematicsControllerC1ERKNS_8UniqueIdE
libOpenCOLLADAFramework.so:_ZN9COLLADAFW20KinematicsControllerC1ERKS0_
libOpenCOLLADAFramework.so:_ZN9COLLADAFW20KinematicsControllerC2ERKNS_8UniqueIdE
libOpenCOLLADAFramework.so:_ZN9COLLADAFW20KinematicsControllerC2ERKS0_
libOpenCOLLADAFramework.so:_ZN9COLLADAFW20KinematicsControllerD0Ev
libOpenCOLLADAFramework.so:_ZN9COLLADAFW20KinematicsControllerD1Ev
libOpenCOLLADAFramework.so:_ZN9COLLADAFW20KinematicsControllerD2Ev
libOpenCOLLADAFramework.so:_ZN9COLLADAFW20KinematicsControlleraSERKS0_
libOpenCOLLADAFramework.so:_ZN9COLLADAFW23InstanceKinematicsSceneC1ERKNS_8UniqueIdES3_
libOpenCOLLADAFramework.so:_ZN9COLLADAFW23InstanceKinematicsSceneC1ERKS0_
libOpenCOLLADAFramework.so:_ZN9COLLADAFW23InstanceKinematicsSceneC2ERKNS_8UniqueIdES3_
libOpenCOLLADAFramework.so:_ZN9COLLADAFW23InstanceKinematicsSceneC2ERKS0_
libOpenCOLLADAFramework.so:_ZN9COLLADAFW23InstanceKinematicsSceneD0Ev
libOpenCOLLADAFramework.so:_ZN9COLLADAFW23InstanceKinematicsSceneD1Ev
libOpenCOLLADAFramework.so:_ZN9COLLADAFW23InstanceKinematicsSceneD2Ev
libOpenCOLLADAFramework.so:_ZN9COLLADAFW23InstanceKinematicsSceneaSERKS0_
libOpenCOLLADAFramework.so:_ZN9COLLADAFW4Mesh12getFaceCountENS_13MeshPrimitive13PrimitiveTypeE
libOpenCOLLADAFramework.so:_ZN9COLLADAFW4Mesh15getTrifansCountEv
libOpenCOLLADAFramework.so:_ZN9COLLADAFW4Mesh16getPolygonsCountEv
libOpenCOLLADAFramework.so:_ZN9COLLADAFW4Mesh17getPrimitiveCountENS_13MeshPrimitive13PrimitiveTypeE
libOpenCOLLADAFramework.so:_ZN9COLLADAFW4Mesh17getTrianglesCountEv
libOpenCOLLADAFramework.so:_ZN9COLLADAFW4Mesh17getTristripsCountEv
libOpenCOLLADAFramework.so:_ZN9COLLADAFW4Mesh21getMeshPrimitiveCountENS_13MeshPrimitive13PrimitiveTypeE
libOpenCOLLADAFramework.so:_ZN9COLLADAFW4Mesh23getPolygonsPolygonCountEv
libOpenCOLLADAFramework.so:_ZN9COLLADAFW4Mesh23getPolylistPolygonCountEv
libOpenCOLLADAFramework.so:_ZN9COLLADAFW4Mesh23getTrifansTriangleCountEv
libOpenCOLLADAFramework.so:_ZN9COLLADAFW4Mesh25getTrianglesTriangleCountEv
libOpenCOLLADAFramework.so:_ZN9COLLADAFW4Mesh25getTristripsTriangleCountEv
libOpenCOLLADAFramework.so:_ZN9COLLADAFW4MeshC1ERKNS_8UniqueIdE
libOpenCOLLADAFramework.so:_ZN9COLLADAFW4MeshC2ERKNS_8UniqueIdE
libOpenCOLLADAFramework.so:_ZN9COLLADAFW4MeshD0Ev
libOpenCOLLADAFramework.so:_ZN9COLLADAFW4MeshD1Ev
libOpenCOLLADAFramework.so:_ZN9COLLADAFW4MeshD2Ev
libOpenCOLLADAFramework.so:_ZN9COLLADAFW4NodeC1ERKNS_8UniqueIdE
libOpenCOLLADAFramework.so:_ZN9COLLADAFW4NodeC2ERKNS_8UniqueIdE
libOpenCOLLADAFramework.so:_ZN9COLLADAFW4NodeD0Ev
libOpenCOLLADAFramework.so:_ZN9COLLADAFW4NodeD1Ev
libOpenCOLLADAFramework.so:_ZN9COLLADAFW4NodeD2Ev
libOpenCOLLADAFramework.so:_ZN9COLLADAFW4Root12loadDocumentERKNSt7__cxx1112basic_stringIcSt11char_traitsIcESaIcEEE
libOpenCOLLADAFramework.so:_ZN9COLLADAFW4Root12loadDocumentERKNSt7__cxx1112basic_stringIcSt11char_traitsIcESaIcEEEPKci
libOpenCOLLADAFramework.so:_ZN9COLLADAFW4RootD0Ev
libOpenCOLLADAFramework.so:_ZN9COLLADAFW4RootD1Ev
libOpenCOLLADAFramework.so:_ZN9COLLADAFW4RootD2Ev
libOpenCOLLADAFramework.so:_ZN9COLLADAFW5Color3setEddddNSt7__cxx1112basic_stringIcSt11char_traitsIcESaIcEEE
libOpenCOLLADAFramework.so:_ZN9COLLADAFW5Color4GREYE
libOpenCOLLADAFramework.so:_ZN9COLLADAFW5Color5BLACKE
libOpenCOLLADAFramework.so:_ZN9COLLADAFW5Color5WHITEE
libOpenCOLLADAFramework.so:_ZN9COLLADAFW5ImageC1ERKNS_8UniqueIdE
libOpenCOLLADAFramework.so:_ZN9COLLADAFW5ImageC2ERKNS_8UniqueIdE
libOpenCOLLADAFramework.so:_ZN9COLLADAFW5ImageD0Ev
libOpenCOLLADAFramework.so:_ZN9COLLADAFW5ImageD1Ev
libOpenCOLLADAFramework.so:_ZN9COLLADAFW5ImageD2Ev
libOpenCOLLADAFramework.so:_ZN9COLLADAFW5LightC1ERKNS_8UniqueIdE
libOpenCOLLADAFramework.so:_ZN9COLLADAFW5LightC2ERKNS_8UniqueIdE
libOpenCOLLADAFramework.so:_ZN9COLLADAFW5LightD0Ev
libOpenCOLLADAFramework.so:_ZN9COLLADAFW5LightD1Ev
libOpenCOLLADAFramework.so:_ZN9COLLADAFW5LightD2Ev
libOpenCOLLADAFramework.so:_ZN9COLLADAFW5ScaleC1ERKN9COLLADABU4Math7Vector3E
libOpenCOLLADAFramework.so:_ZN9COLLADAFW5ScaleC1Eddd
libOpenCOLLADAFramework.so:_ZN9COLLADAFW5ScaleC1Ev
libOpenCOLLADAFramework.so:_ZN9COLLADAFW5ScaleC2ERKN9COLLADABU4Math7Vector3E
libOpenCOLLADAFramework.so:_ZN9COLLADAFW5ScaleC2Eddd
libOpenCOLLADAFramework.so:_ZN9COLLADAFW5ScaleC2Ev
libOpenCOLLADAFramework.so:_ZN9COLLADAFW5ScaleD0Ev
libOpenCOLLADAFramework.so:_ZN9COLLADAFW5ScaleD1Ev
libOpenCOLLADAFramework.so:_ZN9COLLADAFW5ScaleD2Ev
libOpenCOLLADAFramework.so:_ZN9COLLADAFW6CameraC1ERKNS_8UniqueIdE
libOpenCOLLADAFramework.so:_ZN9COLLADAFW6CameraC2ERKNS_8UniqueIdE
libOpenCOLLADAFramework.so:_ZN9COLLADAFW6CameraD0Ev
libOpenCOLLADAFramework.so:_ZN9COLLADAFW6CameraD1Ev
libOpenCOLLADAFramework.so:_ZN9COLLADAFW6CameraD2Ev
libOpenCOLLADAFramework.so:_ZN9COLLADAFW6Effect16getExtraTexturesEv
libOpenCOLLADAFramework.so:_ZN9COLLADAFW6Effect25addExtraTextureAttributesEPNS_17TextureAttributesE
libOpenCOLLADAFramework.so:_ZN9COLLADAFW6Effect28createExtraTextureAttributesEv
libOpenCOLLADAFramework.so:_ZN9COLLADAFW6EffectC1ERKNS_8UniqueIdE
libOpenCOLLADAFramework.so:_ZN9COLLADAFW6EffectC2ERKNS_8UniqueIdE
libOpenCOLLADAFramework.so:_ZN9COLLADAFW6EffectD0Ev
libOpenCOLLADAFramework.so:_ZN9COLLADAFW6EffectD1Ev
libOpenCOLLADAFramework.so:_ZN9COLLADAFW6EffectD2Ev
libOpenCOLLADAFramework.so:_ZN9COLLADAFW6MatrixC1ERKN9COLLADABU4Math7Matrix4E
libOpenCOLLADAFramework.so:_ZN9COLLADAFW6MatrixC1Ev
libOpenCOLLADAFramework.so:_ZN9COLLADAFW6MatrixC2ERKN9COLLADABU4Math7Matrix4E
libOpenCOLLADAFramework.so:_ZN9COLLADAFW6MatrixC2Ev
libOpenCOLLADAFramework.so:_ZN9COLLADAFW6MatrixD0Ev
libOpenCOLLADAFramework.so:_ZN9COLLADAFW6MatrixD1Ev
libOpenCOLLADAFramework.so:_ZN9COLLADAFW6MatrixD2Ev
libOpenCOLLADAFramework.so:_ZN9COLLADAFW6RotateC1ERKN9COLLADABU4Math7Vector3Ed
libOpenCOLLADAFramework.so:_ZN9COLLADAFW6RotateC1Edddd
libOpenCOLLADAFramework.so:_ZN9COLLADAFW6RotateC1Ev
libOpenCOLLADAFramework.so:_ZN9COLLADAFW6RotateC2ERKN9COLLADABU4Math7Vector3Ed
libOpenCOLLADAFramework.so:_ZN9COLLADAFW6RotateC2Edddd
libOpenCOLLADAFramework.so:_ZN9COLLADAFW6RotateC2Ev
libOpenCOLLADAFramework.so:_ZN9COLLADAFW6RotateD0Ev
libOpenCOLLADAFramework.so:_ZN9COLLADAFW6RotateD1Ev
libOpenCOLLADAFramework.so:_ZN9COLLADAFW6RotateD2Ev
libOpenCOLLADAFramework.so:_ZN9COLLADAFW6SplineC1ERKNS_8UniqueIdE
libOpenCOLLADAFramework.so:_ZN9COLLADAFW6SplineC2ERKNS_8UniqueIdE
libOpenCOLLADAFramework.so:_ZN9COLLADAFW6SplineD0Ev
libOpenCOLLADAFramework.so:_ZN9COLLADAFW6SplineD1Ev
libOpenCOLLADAFramework.so:_ZN9COLLADAFW6SplineD2Ev
libOpenCOLLADAFramework.so:_ZN9COLLADAFW7FormulaC1ERKNS_8UniqueIdE
libOpenCOLLADAFramework.so:_ZN9COLLADAFW7FormulaC1ERKS0_RSt3mapIPN6MathML3AST5INodeES7_St4lessIS7_ESaISt4pairIKS7_S7_EEE
libOpenCOLLADAFramework.so:_ZN9COLLADAFW7FormulaC2ERKNS_8UniqueIdE
libOpenCOLLADAFramework.so:_ZN9COLLADAFW7FormulaC2ERKS0_RSt3mapIPN6MathML3AST5INodeES7_St4lessIS7_ESaISt4pairIKS7_S7_EEE
libOpenCOLLADAFramework.so:_ZN9COLLADAFW7FormulaD0Ev
libOpenCOLLADAFramework.so:_ZN9COLLADAFW7FormulaD1Ev
libOpenCOLLADAFramework.so:_ZN9COLLADAFW7FormulaD2Ev
libOpenCOLLADAFramework.so:_ZN9COLLADAFW7SamplerC1ERKNS_8UniqueIdE
libOpenCOLLADAFramework.so:_ZN9COLLADAFW7SamplerC2ERKNS_8UniqueIdE
libOpenCOLLADAFramework.so:_ZN9COLLADAFW7SamplerD0Ev
libOpenCOLLADAFramework.so:_ZN9COLLADAFW7SamplerD1Ev
libOpenCOLLADAFramework.so:_ZN9COLLADAFW7SamplerD2Ev
libOpenCOLLADAFramework.so:_ZN9COLLADAFW7Texture11setTexcoordERKNSt7__cxx1112basic_stringIcSt11char_traitsIcESaIcEEE
libOpenCOLLADAFramework.so:_ZN9COLLADAFW7Texture11setUniqueIdERKNS_8UniqueIdE
libOpenCOLLADAFramework.so:_ZN9COLLADAFW7Texture12setSamplerIdEm
libOpenCOLLADAFramework.so:_ZN9COLLADAFW7Texture15setTextureMapIdEm
libOpenCOLLADAFramework.so:_ZN9COLLADAFW7TextureC1ERKNS_8UniqueIdE
libOpenCOLLADAFramework.so:_ZN9COLLADAFW7TextureC2ERKNS_8UniqueIdE
libOpenCOLLADAFramework.so:_ZN9COLLADAFW7TextureD0Ev
libOpenCOLLADAFramework.so:_ZN9COLLADAFW7TextureD1Ev
libOpenCOLLADAFramework.so:_ZN9COLLADAFW7TextureD2Ev
libOpenCOLLADAFramework.so:_ZN9COLLADAFW8AxisInfo7DEFAULTE
libOpenCOLLADAFramework.so:_ZN9COLLADAFW8AxisInfoC1Ev
libOpenCOLLADAFramework.so:_ZN9COLLADAFW8AxisInfoC2Ev
libOpenCOLLADAFramework.so:_ZN9COLLADAFW8FileInfo11X_UP_STRINGB5cxx11E
libOpenCOLLADAFramework.so:_ZN9COLLADAFW8FileInfo11Y_UP_STRINGB5cxx11E
libOpenCOLLADAFramework.so:_ZN9COLLADAFW8FileInfo11Z_UP_STRINGB5cxx11E
libOpenCOLLADAFramework.so:_ZN9COLLADAFW8FileInfo13setUpAxisTypeERKNSt7__cxx1112basic_stringIcSt11char_traitsIcESaIcEEE
libOpenCOLLADAFramework.so:_ZN9COLLADAFW8FileInfo15appendValuePairEPSt4pairINSt7__cxx1112basic_stringIcSt11char_traitsIcESaIcEEES7_E
libOpenCOLLADAFramework.so:_ZN9COLLADAFW8FileInfo15appendValuePairERKNSt7__cxx1112basic_stringIcSt11char_traitsIcESaIcEEES8_
libOpenCOLLADAFramework.so:_ZN9COLLADAFW8FileInfo4Unit15setTimeUnitNameERKNSt7__cxx1112basic_stringIcSt11char_traitsIcESaIcEEE
libOpenCOLLADAFramework.so:_ZN9COLLADAFW8FileInfo4Unit16LINEAR_UNIT_FOOTE
libOpenCOLLADAFramework.so:_ZN9COLLADAFW8FileInfo4Unit16LINEAR_UNIT_INCHE
libOpenCOLLADAFramework.so:_ZN9COLLADAFW8FileInfo4Unit16LINEAR_UNIT_YARDE
libOpenCOLLADAFramework.so:_ZN9COLLADAFW8FileInfo4Unit17LINEAR_UNIT_METERE
libOpenCOLLADAFramework.so:_ZN9COLLADAFW8FileInfo4Unit17setLinearUnitNameERKNSt7__cxx1112basic_stringIcSt11char_traitsIcESaIcEEE
libOpenCOLLADAFramework.so:_ZN9COLLADAFW8FileInfo4Unit18setAngularUnitNameERKNSt7__cxx1112basic_stringIcSt11char_traitsIcESaIcEEE
libOpenCOLLADAFramework.so:_ZN9COLLADAFW8FileInfo4Unit18setLinearUnitMeterEd
libOpenCOLLADAFramework.so:_ZN9COLLADAFW8FileInfo4Unit19TIME_UNIT_FILM_NAMEB5cxx11E
libOpenCOLLADAFramework.so:_ZN9COLLADAFW8FileInfo4Unit21LINEAR_UNIT_DECIMETERE
libOpenCOLLADAFramework.so:_ZN9COLLADAFW8FileInfo4Unit21LINEAR_UNIT_FOOT_NAMEB5cxx11E
libOpenCOLLADAFramework.so:_ZN9COLLADAFW8FileInfo4Unit21LINEAR_UNIT_INCH_NAMEB5cxx11E
libOpenCOLLADAFramework.so:_ZN9COLLADAFW8FileInfo4Unit21LINEAR_UNIT_KILOMETERE
libOpenCOLLADAFramework.so:_ZN9COLLADAFW8FileInfo4Unit21LINEAR_UNIT_YARD_NAMEB5cxx11E
libOpenCOLLADAFramework.so:_ZN9COLLADAFW8FileInfo4Unit22LINEAR_UNIT_CENTIMETERE
libOpenCOLLADAFramework.so:_ZN9COLLADAFW8FileInfo4Unit22LINEAR_UNIT_METER_NAMEB5cxx11E
libOpenCOLLADAFramework.so:_ZN9COLLADAFW8FileInfo4Unit22LINEAR_UNIT_MILLIMETERE
libOpenCOLLADAFramework.so:_ZN9COLLADAFW8FileInfo4Unit24initializeLinearUnitUnitEd
libOpenCOLLADAFramework.so:_ZN9COLLADAFW8FileInfo4Unit25ANGULAR_UNIT_DEGREES_NAMEB5cxx11E
libOpenCOLLADAFramework.so:_ZN9COLLADAFW8FileInfo4Unit25ANGULAR_UNIT_RADIANS_NAMEB5cxx11E
libOpenCOLLADAFramework.so:_ZN9COLLADAFW8FileInfo4Unit26LINEAR_UNIT_DECIMETER_NAMEB5cxx11E
libOpenCOLLADAFramework.so:_ZN9COLLADAFW8FileInfo4Unit26LINEAR_UNIT_KILOMETER_NAMEB5cxx11E
libOpenCOLLADAFramework.so:_ZN9COLLADAFW8FileInfo4Unit27LINEAR_UNIT_CENTIMETER_NAMEB5cxx11E
libOpenCOLLADAFramework.so:_ZN9COLLADAFW8FileInfo4Unit27LINEAR_UNIT_MILLIMETER_NAMEB5cxx11E
libOpenCOLLADAFramework.so:_ZN9COLLADAFW8FileInfo4Unit28initializeTimeUnitUnitByNameERKNSt7__cxx1112basic_stringIcSt11char_traitsIcESaIcEEE
libOpenCOLLADAFramework.so:_ZN9COLLADAFW8FileInfo4Unit31initializeAngularUnitUnitByNameERKNSt7__cxx1112basic_stringIcSt11char_traitsIcESaIcEEE
libOpenCOLLADAFramework.so:_ZN9COLLADAFW8FileInfoC1Ev
libOpenCOLLADAFramework.so:_ZN9COLLADAFW8FileInfoC2Ev
libOpenCOLLADAFramework.so:_ZN9COLLADAFW8FileInfoD0Ev
libOpenCOLLADAFramework.so:_ZN9COLLADAFW8FileInfoD1Ev
libOpenCOLLADAFramework.so:_ZN9COLLADAFW8FileInfoD2Ev
libOpenCOLLADAFramework.so:_ZN9COLLADAFW8FormulasC1ERKS0_
libOpenCOLLADAFramework.so:_ZN9COLLADAFW8FormulasC1Ev
libOpenCOLLADAFramework.so:_ZN9COLLADAFW8FormulasC2ERKS0_
libOpenCOLLADAFramework.so:_ZN9COLLADAFW8FormulasC2Ev
libOpenCOLLADAFramework.so:_ZN9COLLADAFW8FormulasD0Ev
libOpenCOLLADAFramework.so:_ZN9COLLADAFW8FormulasD1Ev
libOpenCOLLADAFramework.so:_ZN9COLLADAFW8FormulasD2Ev
libOpenCOLLADAFramework.so:_ZN9COLLADAFW8GeometryC1ERKNS_8UniqueIdENS0_12GeometryTypeE
libOpenCOLLADAFramework.so:_ZN9COLLADAFW8GeometryC2ERKNS_8UniqueIdENS0_12GeometryTypeE
libOpenCOLLADAFramework.so:_ZN9COLLADAFW8GeometryD0Ev
libOpenCOLLADAFramework.so:_ZN9COLLADAFW8GeometryD1Ev
libOpenCOLLADAFramework.so:_ZN9COLLADAFW8GeometryD2Ev
libOpenCOLLADAFramework.so:_ZN9COLLADAFW8MaterialC1ERKNS_8UniqueIdE
libOpenCOLLADAFramework.so:_ZN9COLLADAFW8MaterialC2ERKNS_8UniqueIdE
libOpenCOLLADAFramework.so:_ZN9COLLADAFW8MaterialD0Ev
libOpenCOLLADAFramework.so:_ZN9COLLADAFW8MaterialD1Ev
libOpenCOLLADAFramework.so:_ZN9COLLADAFW8MaterialD2Ev
libOpenCOLLADAFramework.so:_ZN9COLLADAFW8UniqueId16fromAscii_internERKNSt7__cxx1112basic_stringIcSt11char_traitsIcESaIcEEE
libOpenCOLLADAFramework.so:_ZN9COLLADAFW8UniqueId7INVALIDE
libOpenCOLLADAFramework.so:_ZN9COLLADAFW8UniqueId9fromAsciiERKNSt7__cxx1112basic_stringIcSt11char_traitsIcESaIcEEE
libOpenCOLLADAFramework.so:_ZN9COLLADAFW8UniqueIdC1ERKNSt7__cxx1112basic_stringIcSt11char_traitsIcESaIcEEE
libOpenCOLLADAFramework.so:_ZN9COLLADAFW8UniqueIdC2ERKNSt7__cxx1112basic_stringIcSt11char_traitsIcESaIcEEE
libOpenCOLLADAFramework.so:_ZN9COLLADAFW8UniqueIdD1Ev
libOpenCOLLADAFramework.so:_ZN9COLLADAFW8UniqueIdD2Ev
libOpenCOLLADAFramework.so:_ZN9COLLADAFW8validateEPKNS_14AnimationCurveEb
libOpenCOLLADAFramework.so:_ZN9COLLADAFW8validateEPKNS_18SkinControllerDataEb
libOpenCOLLADAFramework.so:_ZN9COLLADAFW9Constants11SEMANTIC_UVB5cxx11E
libOpenCOLLADAFramework.so:_ZN9COLLADAFW9Constants12EMPTY_STRINGB5cxx11E
libOpenCOLLADAFramework.so:_ZN9COLLADAFW9Constants14SEMANTIC_COLORB5cxx11E
libOpenCOLLADAFramework.so:_ZN9COLLADAFW9Constants14SEMANTIC_IMAGEB5cxx11E
libOpenCOLLADAFramework.so:_ZN9COLLADAFW9Constants14SEMANTIC_INPUTB5cxx11E
libOpenCOLLADAFramework.so:_ZN9COLLADAFW9Constants14SEMANTIC_JOINTB5cxx11E
libOpenCOLLADAFramework.so:_ZN9COLLADAFW9Constants14VALUE_TYPE_INTB5cxx11E
libOpenCOLLADAFramework.so:_ZN9COLLADAFW9Constants15SEMANTIC_NORMALB5cxx11E
libOpenCOLLADAFramework.so:_ZN9COLLADAFW9Constants15SEMANTIC_OUTPUTB5cxx11E
libOpenCOLLADAFramework.so:_ZN9COLLADAFW9Constants15SEMANTIC_VERTEXB5cxx11E
libOpenCOLLADAFramework.so:_ZN9COLLADAFW9Constants15SEMANTIC_WEIGHTB5cxx11E
libOpenCOLLADAFramework.so:_ZN9COLLADAFW9Constants15VALUE_TYPE_BOOLB5cxx11E
libOpenCOLLADAFramework.so:_ZN9COLLADAFW9Constants15VALUE_TYPE_INT2B5cxx11E
libOpenCOLLADAFramework.so:_ZN9COLLADAFW9Constants15VALUE_TYPE_INT3B5cxx11E
libOpenCOLLADAFramework.so:_ZN9COLLADAFW9Constants15VALUE_TYPE_INT4B5cxx11E
libOpenCOLLADAFramework.so:_ZN9COLLADAFW9Constants15VALUE_TYPE_NAMEB5cxx11E
libOpenCOLLADAFramework.so:_ZN9COLLADAFW9Constants16FX_FUNCTION_LESSB5cxx11E
libOpenCOLLADAFramework.so:_ZN9COLLADAFW9Constants16FX_STATE_FOG_ENDB5cxx11E
libOpenCOLLADAFramework.so:_ZN9COLLADAFW9Constants16FX_STATE_SCISSORB5cxx11E
libOpenCOLLADAFramework.so:_ZN9COLLADAFW9Constants16SEMANTIC_TANGENTB5cxx11E
libOpenCOLLADAFramework.so:_ZN9COLLADAFW9Constants16VALUE_TYPE_BOOL2B5cxx11E
libOpenCOLLADAFramework.so:_ZN9COLLADAFW9Constants16VALUE_TYPE_BOOL3B5cxx11E
libOpenCOLLADAFramework.so:_ZN9COLLADAFW9Constants16VALUE_TYPE_BOOL4B5cxx11E
libOpenCOLLADAFramework.so:_ZN9COLLADAFW9Constants16VALUE_TYPE_FLOATB5cxx11E
libOpenCOLLADAFramework.so:_ZN9COLLADAFW9Constants16VALUE_TYPE_IDREFB5cxx11E
libOpenCOLLADAFramework.so:_ZN9COLLADAFW9Constants17ERR_UNKNOWN_INPUTB5cxx11E
libOpenCOLLADAFramework.so:_ZN9COLLADAFW9Constants17FX_FUNCTION_EQUALB5cxx11E
libOpenCOLLADAFramework.so:_ZN9COLLADAFW9Constants17FX_FUNCTION_NEVERB5cxx11E
libOpenCOLLADAFramework.so:_ZN9COLLADAFW9Constants17FX_STATE_FOG_MODEB5cxx11E
libOpenCOLLADAFramework.so:_ZN9COLLADAFW9Constants17FX_STATE_LOGIC_OPB5cxx11E
libOpenCOLLADAFramework.so:_ZN9COLLADAFW9Constants17SEMANTIC_BINORMALB5cxx11E
libOpenCOLLADAFramework.so:_ZN9COLLADAFW9Constants17SEMANTIC_POSITIONB5cxx11E
libOpenCOLLADAFramework.so:_ZN9COLLADAFW9Constants17SEMANTIC_TEXCOORDB5cxx11E
libOpenCOLLADAFramework.so:_ZN9COLLADAFW9Constants17VALUE_TYPE_FLOAT2B5cxx11E
libOpenCOLLADAFramework.so:_ZN9COLLADAFW9Constants17VALUE_TYPE_FLOAT3B5cxx11E
libOpenCOLLADAFramework.so:_ZN9COLLADAFW9Constants17VALUE_TYPE_FLOAT4B5cxx11E
libOpenCOLLADAFramework.so:_ZN9COLLADAFW9Constants17VALUE_TYPE_STRINGB5cxx11E
libOpenCOLLADAFramework.so:_ZN9COLLADAFW9Constants18FX_FUNCTION_ALWAYSB5cxx11E
libOpenCOLLADAFramework.so:_ZN9COLLADAFW9Constants18FX_FUNCTION_GEQUALB5cxx11E
libOpenCOLLADAFramework.so:_ZN9COLLADAFW9Constants18FX_FUNCTION_LEQUALB5cxx11E
libOpenCOLLADAFramework.so:_ZN9COLLADAFW9Constants18FX_FUNCTION_NEQUALB5cxx11E
libOpenCOLLADAFramework.so:_ZN9COLLADAFW9Constants18FX_STATE_CULL_FACEB5cxx11E
libOpenCOLLADAFramework.so:_ZN9COLLADAFW9Constants18FX_STATE_FOG_COLORB5cxx11E
libOpenCOLLADAFramework.so:_ZN9COLLADAFW9Constants18FX_STATE_FOG_STARTB5cxx11E
libOpenCOLLADAFramework.so:_ZN9COLLADAFW9Constants18FX_STATE_TEXTURE1DB5cxx11E
libOpenCOLLADAFramework.so:_ZN9COLLADAFW9Constants18FX_STATE_TEXTURE2DB5cxx11E
libOpenCOLLADAFramework.so:_ZN9COLLADAFW9Constants18FX_STATE_TEXTURE3DB5cxx11E
libOpenCOLLADAFramework.so:_ZN9COLLADAFW9Constants18VALUE_TYPE_SURFACEB5cxx11E
libOpenCOLLADAFramework.so:_ZN9COLLADAFW9Constants19FX_FUNCTION_GREATERB5cxx11E
libOpenCOLLADAFramework.so:_ZN9COLLADAFW9Constants19FX_STATE_ALPHA_FUNCB5cxx11E
libOpenCOLLADAFramework.so:_ZN9COLLADAFW9Constants19FX_STATE_BLEND_FUNCB5cxx11E
libOpenCOLLADAFramework.so:_ZN9COLLADAFW9Constants19FX_STATE_CLIP_PLANEB5cxx11E
libOpenCOLLADAFramework.so:_ZN9COLLADAFW9Constants19FX_STATE_COLOR_MASKB5cxx11E
libOpenCOLLADAFramework.so:_ZN9COLLADAFW9Constants19FX_STATE_DEPTH_FUNCB5cxx11E
libOpenCOLLADAFramework.so:_ZN9COLLADAFW9Constants19FX_STATE_DEPTH_MASKB5cxx11E
libOpenCOLLADAFramework.so:_ZN9COLLADAFW9Constants19FX_STATE_FOG_ENABLEB5cxx11E
libOpenCOLLADAFramework.so:_ZN9COLLADAFW9Constants19FX_STATE_FRONT_FACEB5cxx11E
libOpenCOLLADAFramework.so:_ZN9COLLADAFW9Constants19FX_STATE_LINE_WIDTHB5cxx11E
libOpenCOLLADAFramework.so:_ZN9COLLADAFW9Constants19FX_STATE_POINT_SIZEB5cxx11E
libOpenCOLLADAFramework.so:_ZN9COLLADAFW9Constants19FX_STATE_STENCIL_OPB5cxx11E
libOpenCOLLADAFramework.so:_ZN9COLLADAFW9Constants19SEMANTIC_CONTINUITYB5cxx11E
libOpenCOLLADAFramework.so:_ZN9COLLADAFW9Constants19SEMANTIC_IN_TANGENTB5cxx11E
libOpenCOLLADAFramework.so:_ZN9COLLADAFW9Constants19SEMANTIC_TEXTANGENTB5cxx11E
libOpenCOLLADAFramework.so:_ZN9COLLADAFW9Constants19VALUE_TYPE_FLOAT2x2B5cxx11E
libOpenCOLLADAFramework.so:_ZN9COLLADAFW9Constants19VALUE_TYPE_FLOAT3x3B5cxx11E
libOpenCOLLADAFramework.so:_ZN9COLLADAFW9Constants19VALUE_TYPE_FLOAT4x4B5cxx11E
libOpenCOLLADAFramework.so:_ZN9COLLADAFW9Constants20FX_STATE_BLEND_COLORB5cxx11E
libOpenCOLLADAFramework.so:_ZN9COLLADAFW9Constants20FX_STATE_CLEAR_COLORB5cxx11E
libOpenCOLLADAFramework.so:_ZN9COLLADAFW9Constants20FX_STATE_CLEAR_DEPTHB5cxx11E
libOpenCOLLADAFramework.so:_ZN9COLLADAFW9Constants20FX_STATE_DEPTH_RANGEB5cxx11E
libOpenCOLLADAFramework.so:_ZN9COLLADAFW9Constants20FX_STATE_FOG_DENSITYB5cxx11E
libOpenCOLLADAFramework.so:_ZN9COLLADAFW9Constants20FX_STATE_SHADE_MODELB5cxx11E
libOpenCOLLADAFramework.so:_ZN9COLLADAFW9Constants20FX_STATE_TEXTURECUBEB5cxx11E
libOpenCOLLADAFramework.so:_ZN9COLLADAFW9Constants20FX_STATE_TEXTURERECTB5cxx11E
libOpenCOLLADAFramework.so:_ZN9COLLADAFW9Constants20SEMANTIC_OUT_TANGENTB5cxx11E
libOpenCOLLADAFramework.so:_ZN9COLLADAFW9Constants20SEMANTIC_TEXBINORMALB5cxx11E
libOpenCOLLADAFramework.so:_ZN9COLLADAFW9Constants21FX_STATE_BLEND_ENABLEB5cxx11E
libOpenCOLLADAFramework.so:_ZN9COLLADAFW9Constants21FX_STATE_DEPTH_BOUNDSB5cxx11E
libOpenCOLLADAFramework.so:_ZN9COLLADAFW9Constants21FX_STATE_LIGHT_ENABLEB5cxx11E
libOpenCOLLADAFramework.so:_ZN9COLLADAFW9Constants21FX_STATE_LINE_STIPPLEB5cxx11E
libOpenCOLLADAFramework.so:_ZN9COLLADAFW9Constants21FX_STATE_POLYGON_MODEB5cxx11E
libOpenCOLLADAFramework.so:_ZN9COLLADAFW9Constants21FX_STATE_STENCIL_FUNCB5cxx11E
libOpenCOLLADAFramework.so:_ZN9COLLADAFW9Constants21FX_STATE_STENCIL_MASKB5cxx11E
libOpenCOLLADAFramework.so:_ZN9COLLADAFW9Constants21FX_STATE_TEXTUREDEPTHB5cxx11E
libOpenCOLLADAFramework.so:_ZN9COLLADAFW9Constants21SEMANTIC_LINEAR_STEPSB5cxx11E
libOpenCOLLADAFramework.so:_ZN9COLLADAFW9Constants21SEMANTIC_MORPH_TARGETB5cxx11E
libOpenCOLLADAFramework.so:_ZN9COLLADAFW9Constants21SEMANTIC_MORPH_WEIGHTB5cxx11E
libOpenCOLLADAFramework.so:_ZN9COLLADAFW9Constants21VALUE_TYPE_SAMPLER_1DB5cxx11E
libOpenCOLLADAFramework.so:_ZN9COLLADAFW9Constants21VALUE_TYPE_SAMPLER_2DB5cxx11E
libOpenCOLLADAFramework.so:_ZN9COLLADAFW9Constants21VALUE_TYPE_SAMPLER_3DB5cxx11E
libOpenCOLLADAFramework.so:_ZN9COLLADAFW9Constants22FX_SHADER_STAGE_VERTEXB5cxx11E
libOpenCOLLADAFramework.so:_ZN9COLLADAFW9Constants22FX_STATE_CLEAR_STENCILB5cxx11E
libOpenCOLLADAFramework.so:_ZN9COLLADAFW9Constants22FX_STATE_DITHER_ENABLEB5cxx11E
libOpenCOLLADAFramework.so:_ZN9COLLADAFW9Constants22FX_STATE_FOG_COORD_SRCB5cxx11E
libOpenCOLLADAFramework.so:_ZN9COLLADAFW9Constants22FX_STATE_LIGHT_AMBIENTB5cxx11E
libOpenCOLLADAFramework.so:_ZN9COLLADAFW9Constants22FX_STATE_LIGHT_DIFFUSEB5cxx11E
libOpenCOLLADAFramework.so:_ZN9COLLADAFW9Constants22SEMANTIC_INTERPOLATIONB5cxx11E
libOpenCOLLADAFramework.so:_ZN9COLLADAFW9Constants23FX_STATE_BLEND_EQUATIONB5cxx11E
libOpenCOLLADAFramework.so:_ZN9COLLADAFW9Constants23FX_STATE_COLOR_MATERIALB5cxx11E
libOpenCOLLADAFramework.so:_ZN9COLLADAFW9Constants23FX_STATE_LIGHT_POSITIONB5cxx11E
libOpenCOLLADAFramework.so:_ZN9COLLADAFW9Constants23FX_STATE_LIGHT_SPECULARB5cxx11E
libOpenCOLLADAFramework.so:_ZN9COLLADAFW9Constants23FX_STATE_POINT_SIZE_MAXB5cxx11E
libOpenCOLLADAFramework.so:_ZN9COLLADAFW9Constants23FX_STATE_POINT_SIZE_MINB5cxx11E
libOpenCOLLADAFramework.so:_ZN9COLLADAFW9Constants23FX_STATE_POLYGON_OFFSETB5cxx11E
libOpenCOLLADAFramework.so:_ZN9COLLADAFW9Constants23VALUE_TYPE_SAMPLER_CUBEB5cxx11E
libOpenCOLLADAFramework.so:_ZN9COLLADAFW9Constants23VALUE_TYPE_SAMPLER_RECTB5cxx11E
libOpenCOLLADAFramework.so:_ZN9COLLADAFW9Constants24FX_SHADER_STAGE_FRAGMENTB5cxx11E
libOpenCOLLADAFramework.so:_ZN9COLLADAFW9Constants24FX_STATE_LIGHTING_ENABLEB5cxx11E
libOpenCOLLADAFramework.so:_ZN9COLLADAFW9Constants24FX_STATE_LOGIC_OP_ENABLEB5cxx11E
libOpenCOLLADAFramework.so:_ZN9COLLADAFW9Constants24SEMANTIC_INV_BIND_MATRIXB5cxx11E
libOpenCOLLADAFramework.so:_ZN9COLLADAFW9Constants24VALUE_TYPE_SAMPLER_DEPTHB5cxx11E
libOpenCOLLADAFramework.so:_ZN9COLLADAFW9Constants24VALUE_TYPE_SAMPLER_STATEB5cxx11E
libOpenCOLLADAFramework.so:_ZN9COLLADAFW9Constants25FX_STATE_CULL_FACE_ENABLEB5cxx11E
libOpenCOLLADAFramework.so:_ZN9COLLADAFW9Constants25FX_STATE_MATERIAL_AMBIENTB5cxx11E
libOpenCOLLADAFramework.so:_ZN9COLLADAFW9Constants25FX_STATE_MATERIAL_DIFFUSEB5cxx11E
libOpenCOLLADAFramework.so:_ZN9COLLADAFW9Constants25FX_STATE_NORMALIZE_ENABLEB5cxx11E
libOpenCOLLADAFramework.so:_ZN9COLLADAFW9Constants25FX_STATE_TEXTURE1D_ENABLEB5cxx11E
libOpenCOLLADAFramework.so:_ZN9COLLADAFW9Constants25FX_STATE_TEXTURE2D_ENABLEB5cxx11E
libOpenCOLLADAFramework.so:_ZN9COLLADAFW9Constants25FX_STATE_TEXTURE3D_ENABLEB5cxx11E
libOpenCOLLADAFramework.so:_ZN9COLLADAFW9Constants25FX_STATE_TEXTURE_ENV_MODEB5cxx11E
libOpenCOLLADAFramework.so:_ZN9COLLADAFW9Constants26FX_STATE_ALPHA_TEST_ENABLEB5cxx11E
libOpenCOLLADAFramework.so:_ZN9COLLADAFW9Constants26FX_STATE_CLIP_PLANE_ENABLEB5cxx11E
libOpenCOLLADAFramework.so:_ZN9COLLADAFW9Constants26FX_STATE_DEPTH_TEST_ENABLEB5cxx11E
libOpenCOLLADAFramework.so:_ZN9COLLADAFW9Constants26FX_STATE_LIGHT_SPOT_CUTOFFB5cxx11E
libOpenCOLLADAFramework.so:_ZN9COLLADAFW9Constants26FX_STATE_MATERIAL_EMISSIONB5cxx11E
libOpenCOLLADAFramework.so:_ZN9COLLADAFW9Constants26FX_STATE_MATERIAL_SPECULARB5cxx11E
libOpenCOLLADAFramework.so:_ZN9COLLADAFW9Constants26FX_STATE_MODEL_VIEW_MATRIXB5cxx11E
libOpenCOLLADAFramework.so:_ZN9COLLADAFW9Constants26FX_STATE_PROJECTION_MATRIXB5cxx11E
libOpenCOLLADAFramework.so:_ZN9COLLADAFW9Constants26FX_STATE_TEXTURE_ENV_COLORB5cxx11E
libOpenCOLLADAFramework.so:_ZN9COLLADAFW9Constants27FX_ANNOTATION_RESOURCE_NAMEB5cxx11E
libOpenCOLLADAFramework.so:_ZN9COLLADAFW9Constants27FX_ANNOTATION_RESOURCE_TYPEB5cxx11E
libOpenCOLLADAFramework.so:_ZN9COLLADAFW9Constants27FX_STATE_AUTO_NORMAL_ENABLEB5cxx11E
libOpenCOLLADAFramework.so:_ZN9COLLADAFW9Constants27FX_STATE_DEPTH_CLAMP_ENABLEB5cxx11E
libOpenCOLLADAFramework.so:_ZN9COLLADAFW9Constants27FX_STATE_LINE_SMOOTH_ENABLEB5cxx11E
libOpenCOLLADAFramework.so:_ZN9COLLADAFW9Constants27FX_STATE_MATERIAL_SHININESSB5cxx11E
libOpenCOLLADAFramework.so:_ZN9COLLADAFW9Constants27FX_STATE_MULTISAMPLE_ENABLEB5cxx11E
libOpenCOLLADAFramework.so:_ZN9COLLADAFW9Constants27FX_STATE_TEXTURECUBE_ENABLEB5cxx11E
libOpenCOLLADAFramework.so:_ZN9COLLADAFW9Constants27FX_STATE_TEXTURERECT_ENABLEB5cxx11E
libOpenCOLLADAFramework.so:_ZN9COLLADAFW9Constants28FX_STATE_BLEND_FUNC_SEPARATEB5cxx11E
libOpenCOLLADAFramework.so:_ZN9COLLADAFW9Constants28FX_STATE_DEPTH_BOUNDS_ENABLEB5cxx11E
libOpenCOLLADAFramework.so:_ZN9COLLADAFW9Constants28FX_STATE_LIGHT_MODEL_AMBIENTB5cxx11E
libOpenCOLLADAFramework.so:_ZN9COLLADAFW9Constants28FX_STATE_LIGHT_SPOT_EXPONENTB5cxx11E
libOpenCOLLADAFramework.so:_ZN9COLLADAFW9Constants28FX_STATE_LINE_STIPPLE_ENABLEB5cxx11E
libOpenCOLLADAFramework.so:_ZN9COLLADAFW9Constants28FX_STATE_POINT_SMOOTH_ENABLEB5cxx11E
libOpenCOLLADAFramework.so:_ZN9COLLADAFW9Constants28FX_STATE_SCISSOR_TEST_ENABLEB5cxx11E
libOpenCOLLADAFramework.so:_ZN9COLLADAFW9Constants28FX_STATE_STENCIL_OP_SEPARATEB5cxx11E
libOpenCOLLADAFramework.so:_ZN9COLLADAFW9Constants28FX_STATE_STENCIL_TEST_ENABLEB5cxx11E
libOpenCOLLADAFramework.so:_ZN9COLLADAFW9Constants28FX_STATE_TEXTUREDEPTH_ENABLEB5cxx11E
libOpenCOLLADAFramework.so:_ZN9COLLADAFW9Constants29FX_SHADER_STAGE_VERTEXPROGRAMB5cxx11E
libOpenCOLLADAFramework.so:_ZN9COLLADAFW9Constants29FX_STATE_LIGHT_SPOT_DIRECTIONB5cxx11E
libOpenCOLLADAFramework.so:_ZN9COLLADAFW9Constants30FX_STATE_COLOR_LOGIC_OP_ENABLEB5cxx11E
libOpenCOLLADAFramework.so:_ZN9COLLADAFW9Constants30FX_STATE_COLOR_MATERIAL_ENABLEB5cxx11E
libOpenCOLLADAFramework.so:_ZN9COLLADAFW9Constants30FX_STATE_POLYGON_SMOOTH_ENABLEB5cxx11E
libOpenCOLLADAFramework.so:_ZN9COLLADAFW9Constants30FX_STATE_RESCALE_NORMAL_ENABLEB5cxx11E
libOpenCOLLADAFramework.so:_ZN9COLLADAFW9Constants30FX_STATE_STENCIL_FUNC_SEPARATEB5cxx11E
libOpenCOLLADAFramework.so:_ZN9COLLADAFW9Constants30FX_STATE_STENCIL_MASK_SEPARATEB5cxx11E
libOpenCOLLADAFramework.so:_ZN9COLLADAFW9Constants31FX_SHADER_STAGE_FRAGMENTPROGRAMB5cxx11E
libOpenCOLLADAFramework.so:_ZN9COLLADAFW9Constants31FX_STATE_POLYGON_STIPPLE_ENABLEB5cxx11E
libOpenCOLLADAFramework.so:_ZN9COLLADAFW9Constants31FX_STATE_SAMPLE_COVERAGE_ENABLEB5cxx11E
libOpenCOLLADAFramework.so:_ZN9COLLADAFW9Constants32FX_STATE_BLEND_EQUATION_SEPARATEB5cxx11E
libOpenCOLLADAFramework.so:_ZN9COLLADAFW9Constants33FX_STATE_LIGHT_LINEAR_ATTENUATIONB5cxx11E
libOpenCOLLADAFramework.so:_ZN9COLLADAFW9Constants34FX_STATE_LIGHT_MODEL_COLOR_CONTROLB5cxx11E
libOpenCOLLADAFramework.so:_ZN9COLLADAFW9Constants34FX_STATE_POINT_FADE_THRESHOLD_SIZEB5cxx11E
libOpenCOLLADAFramework.so:_ZN9COLLADAFW9Constants35FX_STATE_LIGHT_CONSTANT_ATTENUATIONB5cxx11E
libOpenCOLLADAFramework.so:_ZN9COLLADAFW9Constants35FX_STATE_POINT_DISTANCE_ATTENUATIONB5cxx11E
libOpenCOLLADAFramework.so:_ZN9COLLADAFW9Constants35FX_STATE_POLYGON_OFFSET_FILL_ENABLEB5cxx11E
libOpenCOLLADAFramework.so:_ZN9COLLADAFW9Constants35FX_STATE_POLYGON_OFFSET_LINE_ENABLEB5cxx11E
libOpenCOLLADAFramework.so:_ZN9COLLADAFW9Constants35FX_STATE_SAMPLE_ALPHA_TO_ONE_ENABLEB5cxx11E
libOpenCOLLADAFramework.so:_ZN9COLLADAFW9Constants36FX_STATE_LIGHT_MODEL_TWO_SIDE_ENABLEB5cxx11E
libOpenCOLLADAFramework.so:_ZN9COLLADAFW9Constants36FX_STATE_LIGHT_QUADRATIC_ATTENUATIONB5cxx11E
libOpenCOLLADAFramework.so:_ZN9COLLADAFW9Constants36FX_STATE_POLYGON_OFFSET_POINT_ENABLEB5cxx11E
libOpenCOLLADAFramework.so:_ZN9COLLADAFW9Constants40FX_STATE_LIGHT_MODEL_LOCAL_VIEWER_ENABLEB5cxx11E
libOpenCOLLADAFramework.so:_ZN9COLLADAFW9Constants40FX_STATE_SAMPLE_ALPHA_TO_COVERAGE_ENABLEB5cxx11E
libOpenCOLLADAFramework.so:_ZN9COLLADAFW9TranslateC1ERKN9COLLADABU4Math7Vector3E
libOpenCOLLADAFramework.so:_ZN9COLLADAFW9TranslateC1Eddd
libOpenCOLLADAFramework.so:_ZN9COLLADAFW9TranslateC1Ev
libOpenCOLLADAFramework.so:_ZN9COLLADAFW9TranslateC2ERKN9COLLADABU4Math7Vector3E
libOpenCOLLADAFramework.so:_ZN9COLLADAFW9TranslateC2Eddd
libOpenCOLLADAFramework.so:_ZN9COLLADAFW9TranslateC2Ev
libOpenCOLLADAFramework.so:_ZN9COLLADAFW9TranslateD0Ev
libOpenCOLLADAFramework.so:_ZN9COLLADAFW9TranslateD1Ev
libOpenCOLLADAFramework.so:_ZN9COLLADAFW9TranslateD2Ev
libOpenCOLLADAFramework.so:_ZNK9COLLADAFW13MeshPrimitive29getGroupedVertexElementsCountEv
libOpenCOLLADAFramework.so:_ZNK9COLLADAFW13MeshPrimitive29getGroupedVerticesVertexCountEm
libOpenCOLLADAFramework.so:_ZNK9COLLADAFW18FloatOrDoubleArray14getFloatValuesEv
libOpenCOLLADAFramework.so:_ZNK9COLLADAFW18FloatOrDoubleArray14getValuesCountEv
libOpenCOLLADAFramework.so:_ZNK9COLLADAFW18FloatOrDoubleArray15getDoubleValuesEv
libOpenCOLLADAFramework.so:_ZNK9COLLADAFW23InstanceKinematicsScene15NodeLinkBindingltERKS1_
libOpenCOLLADAFramework.so:_ZNK9COLLADAFW4Mesh10hasNormalsEv
libOpenCOLLADAFramework.so:_ZNK9COLLADAFW4Mesh13getFacesCountEv
libOpenCOLLADAFramework.so:_ZNK9COLLADAFW4Mesh15getNormalsCountEv
libOpenCOLLADAFramework.so:_ZNK9COLLADAFW4Node23getTransformationMatrixERN9COLLADABU4Math7Matrix4E
libOpenCOLLADAFramework.so:_ZNK9COLLADAFW4Node23getTransformationMatrixEv
libOpenCOLLADAFramework.so:_ZNK9COLLADAFW5Color7isValidEv
libOpenCOLLADAFramework.so:_ZNK9COLLADAFW5ColoreqERKS0_
libOpenCOLLADAFramework.so:_ZNK9COLLADAFW5ColorneERKS0_
libOpenCOLLADAFramework.so:_ZNK9COLLADAFW7Texture11getTexcoordB5cxx11Ev
libOpenCOLLADAFramework.so:_ZNK9COLLADAFW7Texture12getSamplerIdEv
libOpenCOLLADAFramework.so:_ZNK9COLLADAFW7Texture15getTextureMapIdEv
libOpenCOLLADAFramework.so:_ZNK9COLLADAFW8UniqueId7toAsciiB5cxx11Ev
libOpenCOLLADAFramework.so:_ZNK9COLLADAFW8UniqueIdcvmEv
libOpenCOLLADAFramework.so:_ZNK9COLLADAFW8UniqueIdeqERKS0_
libOpenCOLLADAFramework.so:_ZNK9COLLADAFW8UniqueIdgtERKS0_
libOpenCOLLADAFramework.so:_ZNK9COLLADAFW8UniqueIdltERKS0_
libOpenCOLLADAFramework.so:_ZNK9COLLADAFW8UniqueIdneERKS0_
libOpenCOLLADASaxFrameworkLoader.so:_ZN13COLLADASaxFWL10FileLoader10getFileUriEv
libOpenCOLLADASaxFrameworkLoader.so:_ZN13COLLADASaxFWL10FileLoader4loadEPKci
libOpenCOLLADASaxFrameworkLoader.so:_ZN13COLLADASaxFWL10FileLoader4loadEv
libOpenCOLLADASaxFrameworkLoader.so:_ZN13COLLADASaxFWL10FileLoader9setParserEPN15COLLADASaxFWL1422ColladaParserAutoGen14E
libOpenCOLLADASaxFrameworkLoader.so:_ZN13COLLADASaxFWL10FileLoader9setParserEPN15COLLADASaxFWL1522ColladaParserAutoGen15E
libOpenCOLLADASaxFrameworkLoader.so:_ZN13COLLADASaxFWL10FileLoaderC1EPNS_6LoaderERKN9COLLADABU3URIEPNS_21SaxParserErrorHandlerEiRiRKSt6vectorIPNS_25IExtraDataCallbackHandlerESaISC_EE
libOpenCOLLADASaxFrameworkLoader.so:_ZN13COLLADASaxFWL10FileLoaderC2EPNS_6LoaderERKN9COLLADABU3URIEPNS_21SaxParserErrorHandlerEiRiRKSt6vectorIPNS_25IExtraDataCallbackHandlerESaISC_EE
libOpenCOLLADASaxFrameworkLoader.so:_ZN13COLLADASaxFWL10FileLoaderD0Ev
libOpenCOLLADASaxFrameworkLoader.so:_ZN13COLLADASaxFWL10FileLoaderD1Ev
libOpenCOLLADASaxFrameworkLoader.so:_ZN13COLLADASaxFWL10FileLoaderD2Ev
libOpenCOLLADASaxFrameworkLoader.so:_ZN13COLLADASaxFWL10MeshLoader10beginInputERKNS_40input____InputLocalOffset__AttributeDataE
libOpenCOLLADASaxFrameworkLoader.so:_ZN13COLLADASaxFWL10MeshLoader10end__linesEv
libOpenCOLLADASaxFrameworkLoader.so:_ZN13COLLADASaxFWL10MeshLoader11end__sourceEv
libOpenCOLLADASaxFrameworkLoader.so:_ZN13COLLADASaxFWL10MeshLoader11end__vcountEv
libOpenCOLLADASaxFrameworkLoader.so:_ZN13COLLADASaxFWL10MeshLoader11getUniqueIdEv
libOpenCOLLADASaxFrameworkLoader.so:_ZN13COLLADASaxFWL10MeshLoader12begin__linesERKNS_20lines__AttributeDataE
libOpenCOLLADASaxFrameworkLoader.so:_ZN13COLLADASaxFWL10MeshLoader12data__vcountEPKym
libOpenCOLLADASaxFrameworkLoader.so:_ZN13COLLADASaxFWL10MeshLoader12end__trifansEv
libOpenCOLLADASaxFrameworkLoader.so:_ZN13COLLADASaxFWL10MeshLoader13begin__sourceERKNS_21source__AttributeDataE
libOpenCOLLADASaxFrameworkLoader.so:_ZN13COLLADASaxFWL10MeshLoader13begin__vcountEv
libOpenCOLLADASaxFrameworkLoader.so:_ZN13COLLADASaxFWL10MeshLoader13end__polygonsEv
libOpenCOLLADASaxFrameworkLoader.so:_ZN13COLLADASaxFWL10MeshLoader13end__polylistEv
libOpenCOLLADASaxFrameworkLoader.so:_ZN13COLLADASaxFWL10MeshLoader13end__verticesEv
libOpenCOLLADASaxFrameworkLoader.so:_ZN13COLLADASaxFWL10MeshLoader14begin__trifansERKNS_22trifans__AttributeDataE
libOpenCOLLADASaxFrameworkLoader.so:_ZN13COLLADASaxFWL10MeshLoader14end__trianglesEv
libOpenCOLLADASaxFrameworkLoader.so:_ZN13COLLADASaxFWL10MeshLoader14end__tristripsEv
libOpenCOLLADASaxFrameworkLoader.so:_ZN13COLLADASaxFWL10MeshLoader15begin__polygonsERKNS_23polygons__AttributeDataE
libOpenCOLLADASaxFrameworkLoader.so:_ZN13COLLADASaxFWL10MeshLoader15begin__polylistERKNS_23polylist__AttributeDataE
libOpenCOLLADASaxFrameworkLoader.so:_ZN13COLLADASaxFWL10MeshLoader15begin__verticesERKNS_23vertices__AttributeDataE
libOpenCOLLADASaxFrameworkLoader.so:_ZN13COLLADASaxFWL10MeshLoader15end__linestripsEv
libOpenCOLLADASaxFrameworkLoader.so:_ZN13COLLADASaxFWL10MeshLoader16begin__trianglesERKNS_24triangles__AttributeDataE
libOpenCOLLADASaxFrameworkLoader.so:_ZN13COLLADASaxFWL10MeshLoader16begin__tristripsERKNS_24tristrips__AttributeDataE
libOpenCOLLADASaxFrameworkLoader.so:_ZN13COLLADASaxFWL10MeshLoader17begin__linestripsERKNS_25linestrips__AttributeDataE
libOpenCOLLADASaxFrameworkLoader.so:_ZN13COLLADASaxFWL10MeshLoader17initCurrentValuesEv
libOpenCOLLADASaxFrameworkLoader.so:_ZN13COLLADASaxFWL10MeshLoader17initializeOffsetsEv
libOpenCOLLADASaxFrameworkLoader.so:_ZN13COLLADASaxFWL10MeshLoader17loadSourceElementERKNS_11InputSharedE
libOpenCOLLADASaxFrameworkLoader.so:_ZN13COLLADASaxFWL10MeshLoader18appendVertexValuesEPNS_10SourceBaseERN9COLLADAFW14MeshVertexDataE
libOpenCOLLADASaxFrameworkLoader.so:_ZN13COLLADASaxFWL10MeshLoader18loadSourceElementsERKNS_22MeshPrimitiveInputListE
libOpenCOLLADASaxFrameworkLoader.so:_ZN13COLLADASaxFWL10MeshLoader21writePrimitiveIndicesEPKym
libOpenCOLLADASaxFrameworkLoader.so:_ZN13COLLADASaxFWL10MeshLoader22initializeColorsOffsetEv
libOpenCOLLADASaxFrameworkLoader.so:_ZN13COLLADASaxFWL10MeshLoader23initializeNormalsOffsetEv
libOpenCOLLADASaxFrameworkLoader.so:_ZN13COLLADASaxFWL10MeshLoader23loadColorsSourceElementERKNS_11InputSharedE
libOpenCOLLADASaxFrameworkLoader.so:_ZN13COLLADASaxFWL10MeshLoader24end__input____InputLocalEv
libOpenCOLLADASaxFrameworkLoader.so:_ZN13COLLADASaxFWL10MeshLoader24initializeTangentsOffsetEv
libOpenCOLLADASaxFrameworkLoader.so:_ZN13COLLADASaxFWL10MeshLoader24loadNormalsSourceElementERKNS_11InputSharedE
libOpenCOLLADASaxFrameworkLoader.so:_ZN13COLLADASaxFWL10MeshLoader25initializeBinormalsOffsetEv
libOpenCOLLADASaxFrameworkLoader.so:_ZN13COLLADASaxFWL10MeshLoader25initializePositionsOffsetEv
libOpenCOLLADASaxFrameworkLoader.so:_ZN13COLLADASaxFWL10MeshLoader25initializeTexCoordsOffsetEv
libOpenCOLLADASaxFrameworkLoader.so:_ZN13COLLADASaxFWL10MeshLoader26begin__input____InputLocalERKNS_34input____InputLocal__AttributeDataE
libOpenCOLLADASaxFrameworkLoader.so:_ZN13COLLADASaxFWL10MeshLoader26loadPositionsSourceElementERKNS_11InputSharedE
libOpenCOLLADASaxFrameworkLoader.so:_ZN13COLLADASaxFWL10MeshLoader26loadTexCoordsSourceElementERKNS_11InputSharedE
libOpenCOLLADASaxFrameworkLoader.so:_ZN13COLLADASaxFWL10MeshLoader27loadTexTangentSourceElementERKNS_11InputSharedE
libOpenCOLLADASaxFrameworkLoader.so:_ZN13COLLADASaxFWL10MeshLoader28loadTexBinormalSourceElementERKNS_11InputSharedE
libOpenCOLLADASaxFrameworkLoader.so:_ZN13COLLADASaxFWL10MeshLoader30end__input____InputLocalOffsetEv
libOpenCOLLADASaxFrameworkLoader.so:_ZN13COLLADASaxFWL10MeshLoader32begin__input____InputLocalOffsetERKNS_40input____InputLocalOffset__AttributeDataE
libOpenCOLLADASaxFrameworkLoader.so:_ZN13COLLADASaxFWL10MeshLoader6end__hEv
libOpenCOLLADASaxFrameworkLoader.so:_ZN13COLLADASaxFWL10MeshLoader6end__pEv
libOpenCOLLADASaxFrameworkLoader.so:_ZN13COLLADASaxFWL10MeshLoader7data__hEPKym
libOpenCOLLADASaxFrameworkLoader.so:_ZN13COLLADASaxFWL10MeshLoader7data__pEPKym
libOpenCOLLADASaxFrameworkLoader.so:_ZN13COLLADASaxFWL10MeshLoader7end__phEv
libOpenCOLLADASaxFrameworkLoader.so:_ZN13COLLADASaxFWL10MeshLoader8begin__hEv
libOpenCOLLADASaxFrameworkLoader.so:_ZN13COLLADASaxFWL10MeshLoader8begin__pEv
libOpenCOLLADASaxFrameworkLoader.so:_ZN13COLLADASaxFWL10MeshLoader9begin__phEv
libOpenCOLLADASaxFrameworkLoader.so:_ZN13COLLADASaxFWL10MeshLoader9end__meshEv
libOpenCOLLADASaxFrameworkLoader.so:_ZN13COLLADASaxFWL10MeshLoaderC1EPNS_15IFilePartLoaderERKNSt7__cxx1112basic_stringIcSt11char_traitsIcESaIcEEESA_
libOpenCOLLADASaxFrameworkLoader.so:_ZN13COLLADASaxFWL10MeshLoaderC2EPNS_15IFilePartLoaderERKNSt7__cxx1112basic_stringIcSt11char_traitsIcESaIcEEESA_
libOpenCOLLADASaxFrameworkLoader.so:_ZN13COLLADASaxFWL10NodeLoader10data__skewEPKfm
libOpenCOLLADASaxFrameworkLoader.so:_ZN13COLLADASaxFWL10NodeLoader10end__scaleEv
libOpenCOLLADASaxFrameworkLoader.so:_ZN13COLLADASaxFWL10NodeLoader11begin__nodeERKNS_19node__AttributeDataE
libOpenCOLLADASaxFrameworkLoader.so:_ZN13COLLADASaxFWL10NodeLoader11begin__skewERKNS_19skew__AttributeDataE
libOpenCOLLADASaxFrameworkLoader.so:_ZN13COLLADASaxFWL10NodeLoader11data__scaleEPKfm
libOpenCOLLADASaxFrameworkLoader.so:_ZN13COLLADASaxFWL10NodeLoader11end__lookatEv
libOpenCOLLADASaxFrameworkLoader.so:_ZN13COLLADASaxFWL10NodeLoader11end__matrixEv
libOpenCOLLADASaxFrameworkLoader.so:_ZN13COLLADASaxFWL10NodeLoader11end__rotateEv
libOpenCOLLADASaxFrameworkLoader.so:_ZN13COLLADASaxFWL10NodeLoader12begin__scaleERKNS_20scale__AttributeDataE
libOpenCOLLADASaxFrameworkLoader.so:_ZN13COLLADASaxFWL10NodeLoader12data__lookatEPKfm
libOpenCOLLADASaxFrameworkLoader.so:_ZN13COLLADASaxFWL10NodeLoader12data__matrixEPKfm
libOpenCOLLADASaxFrameworkLoader.so:_ZN13COLLADASaxFWL10NodeLoader12data__rotateEPKfm
libOpenCOLLADASaxFrameworkLoader.so:_ZN13COLLADASaxFWL10NodeLoader13begin__lookatERKNS_21lookat__AttributeDataE
libOpenCOLLADASaxFrameworkLoader.so:_ZN13COLLADASaxFWL10NodeLoader13begin__matrixERKNS_21matrix__AttributeDataE
libOpenCOLLADASaxFrameworkLoader.so:_ZN13COLLADASaxFWL10NodeLoader13begin__rotateERKNS_21rotate__AttributeDataE
libOpenCOLLADASaxFrameworkLoader.so:_ZN13COLLADASaxFWL10NodeLoader14data__skeletonEN9COLLADABU3URIE
libOpenCOLLADASaxFrameworkLoader.so:_ZN13COLLADASaxFWL10NodeLoader14end__translateEv
libOpenCOLLADASaxFrameworkLoader.so:_ZN13COLLADASaxFWL10NodeLoader15data__translateEPKfm
libOpenCOLLADASaxFrameworkLoader.so:_ZN13COLLADASaxFWL10NodeLoader16begin__translateERKNS_24translate__AttributeDataE
libOpenCOLLADASaxFrameworkLoader.so:_ZN13COLLADASaxFWL10NodeLoader17endTransformationEv
libOpenCOLLADASaxFrameworkLoader.so:_ZN13COLLADASaxFWL10NodeLoader18end__bind_materialEv
libOpenCOLLADASaxFrameworkLoader.so:_ZN13COLLADASaxFWL10NodeLoader18end__instance_nodeEv
libOpenCOLLADASaxFrameworkLoader.so:_ZN13COLLADASaxFWL10NodeLoader19end__instance_lightEv
libOpenCOLLADASaxFrameworkLoader.so:_ZN13COLLADASaxFWL10NodeLoader20begin__bind_materialEv
libOpenCOLLADASaxFrameworkLoader.so:_ZN13COLLADASaxFWL10NodeLoader20begin__instance_nodeERKNS_28instance_node__AttributeDataE
libOpenCOLLADASaxFrameworkLoader.so:_ZN13COLLADASaxFWL10NodeLoader20end__instance_cameraEv
libOpenCOLLADASaxFrameworkLoader.so:_ZN13COLLADASaxFWL10NodeLoader21begin__instance_lightERKNS_29instance_light__AttributeDataE
libOpenCOLLADASaxFrameworkLoader.so:_ZN13COLLADASaxFWL10NodeLoader22begin__instance_cameraERKNS_30instance_camera__AttributeDataE
libOpenCOLLADASaxFrameworkLoader.so:_ZN13COLLADASaxFWL10NodeLoader22end__instance_geometryEv
libOpenCOLLADASaxFrameworkLoader.so:_ZN13COLLADASaxFWL10NodeLoader22end__instance_materialEv
libOpenCOLLADASaxFrameworkLoader.so:_ZN13COLLADASaxFWL10NodeLoader23endInstanceWithMaterialEv
libOpenCOLLADASaxFrameworkLoader.so:_ZN13COLLADASaxFWL10NodeLoader24begin__bind_vertex_inputERKNS_32bind_vertex_input__AttributeDataE
libOpenCOLLADASaxFrameworkLoader.so:_ZN13COLLADASaxFWL10NodeLoader24begin__instance_geometryERKNS_32instance_geometry__AttributeDataE
libOpenCOLLADASaxFrameworkLoader.so:_ZN13COLLADASaxFWL10NodeLoader24begin__instance_materialERKNS_32instance_material__AttributeDataE
libOpenCOLLADASaxFrameworkLoader.so:_ZN13COLLADASaxFWL10NodeLoader24end__instance_controllerEv
libOpenCOLLADASaxFrameworkLoader.so:_ZN13COLLADASaxFWL10NodeLoader26begin__instance_controllerERKNS_34instance_controller__AttributeDataE
libOpenCOLLADASaxFrameworkLoader.so:_ZN13COLLADASaxFWL10NodeLoader7endNodeEv
libOpenCOLLADASaxFrameworkLoader.so:_ZN13COLLADASaxFWL10NodeLoader9beginNodeERKNS_19node__AttributeDataE
libOpenCOLLADASaxFrameworkLoader.so:_ZN13COLLADASaxFWL10NodeLoader9end__nodeEv
libOpenCOLLADASaxFrameworkLoader.so:_ZN13COLLADASaxFWL10NodeLoader9end__skewEv
libOpenCOLLADASaxFrameworkLoader.so:_ZN13COLLADASaxFWL10NodeLoaderC1Ev
libOpenCOLLADASaxFrameworkLoader.so:_ZN13COLLADASaxFWL10NodeLoaderC2Ev
libOpenCOLLADASaxFrameworkLoader.so:_ZN13COLLADASaxFWL10NodeLoaderD0Ev
libOpenCOLLADASaxFrameworkLoader.so:_ZN13COLLADASaxFWL10NodeLoaderD1Ev
libOpenCOLLADASaxFrameworkLoader.so:_ZN13COLLADASaxFWL10NodeLoaderD2Ev
libOpenCOLLADASaxFrameworkLoader.so:_ZN13COLLADASaxFWL10SidAddress12parseAddressERKNSt7__cxx1112basic_stringIcSt11char_traitsIcESaIcEEE
libOpenCOLLADASaxFrameworkLoader.so:_ZN13COLLADASaxFWL10SidAddressC1ERKN9COLLADABU3URIE
libOpenCOLLADASaxFrameworkLoader.so:_ZN13COLLADASaxFWL10SidAddressC1ERKN9COLLADABU3URIERKNSt7__cxx1112basic_stringIcSt11char_traitsIcESaIcEEE
libOpenCOLLADASaxFrameworkLoader.so:_ZN13COLLADASaxFWL10SidAddressC1ERKNSt7__cxx1112basic_stringIcSt11char_traitsIcESaIcEEE
libOpenCOLLADASaxFrameworkLoader.so:_ZN13COLLADASaxFWL10SidAddressC1Ev
libOpenCOLLADASaxFrameworkLoader.so:_ZN13COLLADASaxFWL10SidAddressC2ERKN9COLLADABU3URIE
libOpenCOLLADASaxFrameworkLoader.so:_ZN13COLLADASaxFWL10SidAddressC2ERKN9COLLADABU3URIERKNSt7__cxx1112basic_stringIcSt11char_traitsIcESaIcEEE
libOpenCOLLADASaxFrameworkLoader.so:_ZN13COLLADASaxFWL10SidAddressC2ERKNSt7__cxx1112basic_stringIcSt11char_traitsIcESaIcEEE
libOpenCOLLADASaxFrameworkLoader.so:_ZN13COLLADASaxFWL10SidAddressC2Ev
libOpenCOLLADASaxFrameworkLoader.so:_ZN13COLLADASaxFWL10SidAddressD0Ev
libOpenCOLLADASaxFrameworkLoader.so:_ZN13COLLADASaxFWL10SidAddressD1Ev
libOpenCOLLADASaxFrameworkLoader.so:_ZN13COLLADASaxFWL10SidAddressD2Ev
libOpenCOLLADASaxFrameworkLoader.so:_ZN13COLLADASaxFWL10parameterAE
libOpenCOLLADASaxFrameworkLoader.so:_ZN13COLLADASaxFWL10parameterBE
libOpenCOLLADASaxFrameworkLoader.so:_ZN13COLLADASaxFWL10parameterGE
libOpenCOLLADASaxFrameworkLoader.so:_ZN13COLLADASaxFWL10parameterRE
libOpenCOLLADASaxFrameworkLoader.so:_ZN13COLLADASaxFWL10parameterXE
libOpenCOLLADASaxFrameworkLoader.so:_ZN13COLLADASaxFWL10parameterYE
libOpenCOLLADASaxFrameworkLoader.so:_ZN13COLLADASaxFWL10parameterZE
libOpenCOLLADASaxFrameworkLoader.so:_ZN13COLLADASaxFWL11AssetLoader10end__assetEv
libOpenCOLLADASaxFrameworkLoader.so:_ZN13COLLADASaxFWL11AssetLoader11begin__unitERKNS_19unit__AttributeDataE
libOpenCOLLADASaxFrameworkLoader.so:_ZN13COLLADASaxFWL11AssetLoader11data__titleEPKcm
libOpenCOLLADASaxFrameworkLoader.so:_ZN13COLLADASaxFWL11AssetLoader12data__authorEPKcm
libOpenCOLLADASaxFrameworkLoader.so:_ZN13COLLADASaxFWL11AssetLoader13data__createdEPKcm
libOpenCOLLADASaxFrameworkLoader.so:_ZN13COLLADASaxFWL11AssetLoader13data__subjectEPKcm
libOpenCOLLADASaxFrameworkLoader.so:_ZN13COLLADASaxFWL11AssetLoader13data__up_axisENS_16ENUM__UpAxisTypeE
libOpenCOLLADASaxFrameworkLoader.so:_ZN13COLLADASaxFWL11AssetLoader14data__commentsEPKcm
libOpenCOLLADASaxFrameworkLoader.so:_ZN13COLLADASaxFWL11AssetLoader14data__keywordsEPKcm
libOpenCOLLADASaxFrameworkLoader.so:_ZN13COLLADASaxFWL11AssetLoader14data__modifiedEPKcm
libOpenCOLLADASaxFrameworkLoader.so:_ZN13COLLADASaxFWL11AssetLoader14data__revisionEPKcm
libOpenCOLLADASaxFrameworkLoader.so:_ZN13COLLADASaxFWL11AssetLoader15data__copyrightEPKcm
libOpenCOLLADASaxFrameworkLoader.so:_ZN13COLLADASaxFWL11AssetLoader17data__source_dataEN9COLLADABU3URIE
libOpenCOLLADASaxFrameworkLoader.so:_ZN13COLLADASaxFWL11AssetLoader20data__authoring_toolEPKcm
libOpenCOLLADASaxFrameworkLoader.so:_ZN13COLLADASaxFWL11AssetLoaderC1EPNS_15IFilePartLoaderE
libOpenCOLLADASaxFrameworkLoader.so:_ZN13COLLADASaxFWL11AssetLoaderC2EPNS_15IFilePartLoaderE
libOpenCOLLADASaxFrameworkLoader.so:_ZN13COLLADASaxFWL11AssetLoaderD0Ev
libOpenCOLLADASaxFrameworkLoader.so:_ZN13COLLADASaxFWL11AssetLoaderD1Ev
libOpenCOLLADASaxFrameworkLoader.so:_ZN13COLLADASaxFWL11AssetLoaderD2Ev
libOpenCOLLADASaxFrameworkLoader.so:_ZN13COLLADASaxFWL11SaxFWLErrorC1ENS0_9ErrorTypeENSt7__cxx1112basic_stringIcSt11char_traitsIcESaIcEEENS_6IError8SeverityE
libOpenCOLLADASaxFrameworkLoader.so:_ZN13COLLADASaxFWL11SaxFWLErrorC2ENS0_9ErrorTypeENSt7__cxx1112basic_stringIcSt11char_traitsIcESaIcEEENS_6IError8SeverityE
libOpenCOLLADASaxFrameworkLoader.so:_ZN13COLLADASaxFWL11SaxFWLErrorD0Ev
libOpenCOLLADASaxFrameworkLoader.so:_ZN13COLLADASaxFWL11SaxFWLErrorD1Ev
libOpenCOLLADASaxFrameworkLoader.so:_ZN13COLLADASaxFWL11SaxFWLErrorD2Ev
libOpenCOLLADASaxFrameworkLoader.so:_ZN13COLLADASaxFWL11SceneLoader10end__sceneEv
libOpenCOLLADASaxFrameworkLoader.so:_ZN13COLLADASaxFWL11SceneLoader11getUniqueIdEv
libOpenCOLLADASaxFrameworkLoader.so:_ZN13COLLADASaxFWL11SceneLoader20end__bind_joint_axisEv
libOpenCOLLADASaxFrameworkLoader.so:_ZN13COLLADASaxFWL11SceneLoader22begin__bind_joint_axisERKNS_30bind_joint_axis__AttributeDataE
libOpenCOLLADASaxFrameworkLoader.so:_ZN13COLLADASaxFWL11SceneLoader26end__bind_kinematics_modelEv
libOpenCOLLADASaxFrameworkLoader.so:_ZN13COLLADASaxFWL11SceneLoader26end__instance_visual_sceneEv
libOpenCOLLADASaxFrameworkLoader.so:_ZN13COLLADASaxFWL11SceneLoader28begin__instance_visual_sceneERKNS_36instance_visual_scene__AttributeDataE
libOpenCOLLADASaxFrameworkLoader.so:_ZN13COLLADASaxFWL11SceneLoader30end__instance_kinematics_sceneEv
libOpenCOLLADASaxFrameworkLoader.so:_ZN13COLLADASaxFWL11SceneLoader31end__param____common_param_typeEv
libOpenCOLLADASaxFrameworkLoader.so:_ZN13COLLADASaxFWL11SceneLoader32begin__instance_kinematics_sceneERKNS_40instance_kinematics_scene__AttributeDataE
libOpenCOLLADASaxFrameworkLoader.so:_ZN13COLLADASaxFWL11SceneLoader32data__param____common_param_typeEPKcm
libOpenCOLLADASaxFrameworkLoader.so:_ZN13COLLADASaxFWL11SceneLoader33begin__param____common_param_typeEv
libOpenCOLLADASaxFrameworkLoader.so:_ZN13COLLADASaxFWL11SceneLoader40end__axis____common_sidref_or_param_typeEv
libOpenCOLLADASaxFrameworkLoader.so:_ZN13COLLADASaxFWL11SceneLoader40end__value____common_float_or_param_typeEv
libOpenCOLLADASaxFrameworkLoader.so:_ZN13COLLADASaxFWL11SceneLoader42begin__axis____common_sidref_or_param_typeEv
libOpenCOLLADASaxFrameworkLoader.so:_ZN13COLLADASaxFWL11SceneLoader42begin__value____common_float_or_param_typeEv
libOpenCOLLADASaxFrameworkLoader.so:_ZN13COLLADASaxFWL11SceneLoaderC1EPNS_15IFilePartLoaderE
libOpenCOLLADASaxFrameworkLoader.so:_ZN13COLLADASaxFWL11SceneLoaderC2EPNS_15IFilePartLoaderE
libOpenCOLLADASaxFrameworkLoader.so:_ZN13COLLADASaxFWL11SceneLoaderD0Ev
libOpenCOLLADASaxFrameworkLoader.so:_ZN13COLLADASaxFWL11SceneLoaderD1Ev
libOpenCOLLADASaxFrameworkLoader.so:_ZN13COLLADASaxFWL11SceneLoaderD2Ev
libOpenCOLLADASaxFrameworkLoader.so:_ZN13COLLADASaxFWL11SidTreeNode14findChildBySidERKNSt7__cxx1112basic_stringIcSt11char_traitsIcESaIcEEE
libOpenCOLLADASaxFrameworkLoader.so:_ZN13COLLADASaxFWL11SidTreeNode17addChildToParentsEPS0_RKNS0_13SidIdentifierE
libOpenCOLLADASaxFrameworkLoader.so:_ZN13COLLADASaxFWL11SidTreeNode17createAndAddChildERKNSt7__cxx1112basic_stringIcSt11char_traitsIcESaIcEEE
libOpenCOLLADASaxFrameworkLoader.so:_ZN13COLLADASaxFWL11SidTreeNodeC1ERKNSt7__cxx1112basic_stringIcSt11char_traitsIcESaIcEEEPS0_
libOpenCOLLADASaxFrameworkLoader.so:_ZN13COLLADASaxFWL11SidTreeNodeC2ERKNSt7__cxx1112basic_stringIcSt11char_traitsIcESaIcEEEPS0_
libOpenCOLLADASaxFrameworkLoader.so:_ZN13COLLADASaxFWL11SidTreeNodeD0Ev
libOpenCOLLADASaxFrameworkLoader.so:_ZN13COLLADASaxFWL11SidTreeNodeD1Ev
libOpenCOLLADASaxFrameworkLoader.so:_ZN13COLLADASaxFWL11SidTreeNodeD2Ev
libOpenCOLLADASaxFrameworkLoader.so:_ZN13COLLADASaxFWL11accessorRGBE
libOpenCOLLADASaxFrameworkLoader.so:_ZN13COLLADASaxFWL11accessorXYZE
libOpenCOLLADASaxFrameworkLoader.so:_ZN13COLLADASaxFWL12JointsLoader10end__jointEv
libOpenCOLLADASaxFrameworkLoader.so:_ZN13COLLADASaxFWL12JointsLoader11getUniqueIdEv
libOpenCOLLADASaxFrameworkLoader.so:_ZN13COLLADASaxFWL12JointsLoader12begin__jointERKNS_20joint__AttributeDataE
libOpenCOLLADASaxFrameworkLoader.so:_ZN13COLLADASaxFWL12JointsLoader13end__revoluteEv
libOpenCOLLADASaxFrameworkLoader.so:_ZN13COLLADASaxFWL12JointsLoader14end__prismaticEv
libOpenCOLLADASaxFrameworkLoader.so:_ZN13COLLADASaxFWL12JointsLoader15begin__revoluteERKNS_23revolute__AttributeDataE
libOpenCOLLADASaxFrameworkLoader.so:_ZN13COLLADASaxFWL12JointsLoader16begin__prismaticERKNS_24prismatic__AttributeDataE
libOpenCOLLADASaxFrameworkLoader.so:_ZN13COLLADASaxFWL12JointsLoader17endJointPrimitiveEv
libOpenCOLLADASaxFrameworkLoader.so:_ZN13COLLADASaxFWL12JointsLoader19beginJointPrimitiveEN9COLLADAFW14JointPrimitive4TypeEPKc
libOpenCOLLADASaxFrameworkLoader.so:_ZN13COLLADASaxFWL12JointsLoader22end__axis____axis_typeEv
libOpenCOLLADASaxFrameworkLoader.so:_ZN13COLLADASaxFWL12JointsLoader23data__axis____axis_typeEPKfm
libOpenCOLLADASaxFrameworkLoader.so:_ZN13COLLADASaxFWL12JointsLoader24begin__axis____axis_typeERKNS_32axis____axis_type__AttributeDataE
libOpenCOLLADASaxFrameworkLoader.so:_ZN13COLLADASaxFWL12JointsLoader24data__max____minmax_typeEf
libOpenCOLLADASaxFrameworkLoader.so:_ZN13COLLADASaxFWL12JointsLoader24data__min____minmax_typeEf
libOpenCOLLADASaxFrameworkLoader.so:_ZN13COLLADASaxFWL12JointsLoaderC1Ev
libOpenCOLLADASaxFrameworkLoader.so:_ZN13COLLADASaxFWL12JointsLoaderC2Ev
libOpenCOLLADASaxFrameworkLoader.so:_ZN13COLLADASaxFWL12JointsLoaderD0Ev
libOpenCOLLADASaxFrameworkLoader.so:_ZN13COLLADASaxFWL12JointsLoaderD1Ev
libOpenCOLLADASaxFrameworkLoader.so:_ZN13COLLADASaxFWL12JointsLoaderD2Ev
libOpenCOLLADASaxFrameworkLoader.so:_ZN13COLLADASaxFWL12MeshLoader1410end__linesEv
libOpenCOLLADASaxFrameworkLoader.so:_ZN13COLLADASaxFWL12MeshLoader1411end__sourceEv
libOpenCOLLADASaxFrameworkLoader.so:_ZN13COLLADASaxFWL12MeshLoader1411end__vcountEv
libOpenCOLLADASaxFrameworkLoader.so:_ZN13COLLADASaxFWL12MeshLoader1412begin__linesERKN15COLLADASaxFWL1420lines__AttributeDataE
libOpenCOLLADASaxFrameworkLoader.so:_ZN13COLLADASaxFWL12MeshLoader1412data__vcountEPKym
libOpenCOLLADASaxFrameworkLoader.so:_ZN13COLLADASaxFWL12MeshLoader1412end__trifansEv
libOpenCOLLADASaxFrameworkLoader.so:_ZN13COLLADASaxFWL12MeshLoader1413begin__sourceERKN15COLLADASaxFWL1421source__AttributeDataE
libOpenCOLLADASaxFrameworkLoader.so:_ZN13COLLADASaxFWL12MeshLoader1413begin__vcountEv
libOpenCOLLADASaxFrameworkLoader.so:_ZN13COLLADASaxFWL12MeshLoader1413end__polygonsEv
libOpenCOLLADASaxFrameworkLoader.so:_ZN13COLLADASaxFWL12MeshLoader1413end__polylistEv
libOpenCOLLADASaxFrameworkLoader.so:_ZN13COLLADASaxFWL12MeshLoader1413end__verticesEv
libOpenCOLLADASaxFrameworkLoader.so:_ZN13COLLADASaxFWL12MeshLoader1414begin__trifansERKN15COLLADASaxFWL1422trifans__AttributeDataE
libOpenCOLLADASaxFrameworkLoader.so:_ZN13COLLADASaxFWL12MeshLoader1414end__techniqueEv
libOpenCOLLADASaxFrameworkLoader.so:_ZN13COLLADASaxFWL12MeshLoader1414end__trianglesEv
libOpenCOLLADASaxFrameworkLoader.so:_ZN13COLLADASaxFWL12MeshLoader1414end__tristripsEv
libOpenCOLLADASaxFrameworkLoader.so:_ZN13COLLADASaxFWL12MeshLoader1415begin__polygonsERKN15COLLADASaxFWL1423polygons__AttributeDataE
libOpenCOLLADASaxFrameworkLoader.so:_ZN13COLLADASaxFWL12MeshLoader1415begin__polylistERKN15COLLADASaxFWL1423polylist__AttributeDataE
libOpenCOLLADASaxFrameworkLoader.so:_ZN13COLLADASaxFWL12MeshLoader1415begin__verticesERKN15COLLADASaxFWL1423vertices__AttributeDataE
libOpenCOLLADASaxFrameworkLoader.so:_ZN13COLLADASaxFWL12MeshLoader1415end__linestripsEv
libOpenCOLLADASaxFrameworkLoader.so:_ZN13COLLADASaxFWL12MeshLoader1416begin__techniqueERKN15COLLADASaxFWL1424technique__AttributeDataE
libOpenCOLLADASaxFrameworkLoader.so:_ZN13COLLADASaxFWL12MeshLoader1416begin__trianglesERKN15COLLADASaxFWL1424triangles__AttributeDataE
libOpenCOLLADASaxFrameworkLoader.so:_ZN13COLLADASaxFWL12MeshLoader1416begin__tristripsERKN15COLLADASaxFWL1424tristrips__AttributeDataE
libOpenCOLLADASaxFrameworkLoader.so:_ZN13COLLADASaxFWL12MeshLoader1417begin__linestripsERKN15COLLADASaxFWL1425linestrips__AttributeDataE
libOpenCOLLADASaxFrameworkLoader.so:_ZN13COLLADASaxFWL12MeshLoader1424end__input____InputLocalEv
libOpenCOLLADASaxFrameworkLoader.so:_ZN13COLLADASaxFWL12MeshLoader1426begin__input____InputLocalERKN15COLLADASaxFWL1434input____InputLocal__AttributeDataE
libOpenCOLLADASaxFrameworkLoader.so:_ZN13COLLADASaxFWL12MeshLoader1430end__input____InputLocalOffsetEv
libOpenCOLLADASaxFrameworkLoader.so:_ZN13COLLADASaxFWL12MeshLoader1432begin__input____InputLocalOffsetERKN15COLLADASaxFWL1440input____InputLocalOffset__AttributeDataE
libOpenCOLLADASaxFrameworkLoader.so:_ZN13COLLADASaxFWL12MeshLoader146end__hEv
libOpenCOLLADASaxFrameworkLoader.so:_ZN13COLLADASaxFWL12MeshLoader146end__pEv
libOpenCOLLADASaxFrameworkLoader.so:_ZN13COLLADASaxFWL12MeshLoader147data__hEPKym
libOpenCOLLADASaxFrameworkLoader.so:_ZN13COLLADASaxFWL12MeshLoader147data__pEPKym
libOpenCOLLADASaxFrameworkLoader.so:_ZN13COLLADASaxFWL12MeshLoader147end__phEv
libOpenCOLLADASaxFrameworkLoader.so:_ZN13COLLADASaxFWL12MeshLoader148begin__hEv
libOpenCOLLADASaxFrameworkLoader.so:_ZN13COLLADASaxFWL12MeshLoader148begin__pEv
libOpenCOLLADASaxFrameworkLoader.so:_ZN13COLLADASaxFWL12MeshLoader149begin__phEv
libOpenCOLLADASaxFrameworkLoader.so:_ZN13COLLADASaxFWL12MeshLoader149end__meshEv
libOpenCOLLADASaxFrameworkLoader.so:_ZN13COLLADASaxFWL12MeshLoader1510end__linesEv
libOpenCOLLADASaxFrameworkLoader.so:_ZN13COLLADASaxFWL12MeshLoader1511end__sourceEv
libOpenCOLLADASaxFrameworkLoader.so:_ZN13COLLADASaxFWL12MeshLoader1511end__vcountEv
libOpenCOLLADASaxFrameworkLoader.so:_ZN13COLLADASaxFWL12MeshLoader1512begin__linesERKN15COLLADASaxFWL1520lines__AttributeDataE
libOpenCOLLADASaxFrameworkLoader.so:_ZN13COLLADASaxFWL12MeshLoader1512data__vcountEPKym
libOpenCOLLADASaxFrameworkLoader.so:_ZN13COLLADASaxFWL12MeshLoader1512end__trifansEv
libOpenCOLLADASaxFrameworkLoader.so:_ZN13COLLADASaxFWL12MeshLoader1513begin__sourceERKN15COLLADASaxFWL1521source__AttributeDataE
libOpenCOLLADASaxFrameworkLoader.so:_ZN13COLLADASaxFWL12MeshLoader1513begin__vcountEv
libOpenCOLLADASaxFrameworkLoader.so:_ZN13COLLADASaxFWL12MeshLoader1513end__polygonsEv
libOpenCOLLADASaxFrameworkLoader.so:_ZN13COLLADASaxFWL12MeshLoader1513end__polylistEv
libOpenCOLLADASaxFrameworkLoader.so:_ZN13COLLADASaxFWL12MeshLoader1513end__verticesEv
libOpenCOLLADASaxFrameworkLoader.so:_ZN13COLLADASaxFWL12MeshLoader1514begin__trifansERKN15COLLADASaxFWL1522trifans__AttributeDataE
libOpenCOLLADASaxFrameworkLoader.so:_ZN13COLLADASaxFWL12MeshLoader1514end__trianglesEv
libOpenCOLLADASaxFrameworkLoader.so:_ZN13COLLADASaxFWL12MeshLoader1514end__tristripsEv
libOpenCOLLADASaxFrameworkLoader.so:_ZN13COLLADASaxFWL12MeshLoader1515begin__polygonsERKN15COLLADASaxFWL1523polygons__AttributeDataE
libOpenCOLLADASaxFrameworkLoader.so:_ZN13COLLADASaxFWL12MeshLoader1515begin__polylistERKN15COLLADASaxFWL1523polylist__AttributeDataE
libOpenCOLLADASaxFrameworkLoader.so:_ZN13COLLADASaxFWL12MeshLoader1515begin__verticesERKN15COLLADASaxFWL1523vertices__AttributeDataE
libOpenCOLLADASaxFrameworkLoader.so:_ZN13COLLADASaxFWL12MeshLoader1515end__linestripsEv
libOpenCOLLADASaxFrameworkLoader.so:_ZN13COLLADASaxFWL12MeshLoader1516begin__trianglesERKN15COLLADASaxFWL1524triangles__AttributeDataE
libOpenCOLLADASaxFrameworkLoader.so:_ZN13COLLADASaxFWL12MeshLoader1516begin__tristripsERKN15COLLADASaxFWL1524tristrips__AttributeDataE
libOpenCOLLADASaxFrameworkLoader.so:_ZN13COLLADASaxFWL12MeshLoader1517begin__linestripsERKN15COLLADASaxFWL1525linestrips__AttributeDataE
libOpenCOLLADASaxFrameworkLoader.so:_ZN13COLLADASaxFWL12MeshLoader1530end__input____input_local_typeEv
libOpenCOLLADASaxFrameworkLoader.so:_ZN13COLLADASaxFWL12MeshLoader1532begin__input____input_local_typeERKN15COLLADASaxFWL1540input____input_local_type__AttributeDataE
libOpenCOLLADASaxFrameworkLoader.so:_ZN13COLLADASaxFWL12MeshLoader1532end__technique____technique_typeEv
libOpenCOLLADASaxFrameworkLoader.so:_ZN13COLLADASaxFWL12MeshLoader1534begin__technique____technique_typeERKN15COLLADASaxFWL1542technique____technique_type__AttributeDataE
libOpenCOLLADASaxFrameworkLoader.so:_ZN13COLLADASaxFWL12MeshLoader1537end__input____input_local_offset_typeEv
libOpenCOLLADASaxFrameworkLoader.so:_ZN13COLLADASaxFWL12MeshLoader1539begin__input____input_local_offset_typeERKN15COLLADASaxFWL1547input____input_local_offset_type__AttributeDataE
libOpenCOLLADASaxFrameworkLoader.so:_ZN13COLLADASaxFWL12MeshLoader156end__hEv
libOpenCOLLADASaxFrameworkLoader.so:_ZN13COLLADASaxFWL12MeshLoader156end__pEv
libOpenCOLLADASaxFrameworkLoader.so:_ZN13COLLADASaxFWL12MeshLoader157data__hEPKym
libOpenCOLLADASaxFrameworkLoader.so:_ZN13COLLADASaxFWL12MeshLoader157data__pEPKym
libOpenCOLLADASaxFrameworkLoader.so:_ZN13COLLADASaxFWL12MeshLoader157end__phEv
libOpenCOLLADASaxFrameworkLoader.so:_ZN13COLLADASaxFWL12MeshLoader158begin__hEv
libOpenCOLLADASaxFrameworkLoader.so:_ZN13COLLADASaxFWL12MeshLoader158begin__pEv
libOpenCOLLADASaxFrameworkLoader.so:_ZN13COLLADASaxFWL12MeshLoader159begin__phEv
libOpenCOLLADASaxFrameworkLoader.so:_ZN13COLLADASaxFWL12MeshLoader159end__meshEv
libOpenCOLLADASaxFrameworkLoader.so:_ZN13COLLADASaxFWL12NodeLoader1410data__skewEPKfm
libOpenCOLLADASaxFrameworkLoader.so:_ZN13COLLADASaxFWL12NodeLoader1410end__scaleEv
libOpenCOLLADASaxFrameworkLoader.so:_ZN13COLLADASaxFWL12NodeLoader1411begin__nodeERKN15COLLADASaxFWL1419node__AttributeDataE
libOpenCOLLADASaxFrameworkLoader.so:_ZN13COLLADASaxFWL12NodeLoader1411begin__skewERKN15COLLADASaxFWL1419skew__AttributeDataE
libOpenCOLLADASaxFrameworkLoader.so:_ZN13COLLADASaxFWL12NodeLoader1411data__scaleEPKfm
libOpenCOLLADASaxFrameworkLoader.so:_ZN13COLLADASaxFWL12NodeLoader1411end__lookatEv
libOpenCOLLADASaxFrameworkLoader.so:_ZN13COLLADASaxFWL12NodeLoader1411end__matrixEv
libOpenCOLLADASaxFrameworkLoader.so:_ZN13COLLADASaxFWL12NodeLoader1411end__rotateEv
libOpenCOLLADASaxFrameworkLoader.so:_ZN13COLLADASaxFWL12NodeLoader1412begin__scaleERKN15COLLADASaxFWL1420scale__AttributeDataE
libOpenCOLLADASaxFrameworkLoader.so:_ZN13COLLADASaxFWL12NodeLoader1412data__lookatEPKfm
libOpenCOLLADASaxFrameworkLoader.so:_ZN13COLLADASaxFWL12NodeLoader1412data__matrixEPKfm
libOpenCOLLADASaxFrameworkLoader.so:_ZN13COLLADASaxFWL12NodeLoader1412data__rotateEPKfm
libOpenCOLLADASaxFrameworkLoader.so:_ZN13COLLADASaxFWL12NodeLoader1413begin__lookatERKN15COLLADASaxFWL1421lookat__AttributeDataE
libOpenCOLLADASaxFrameworkLoader.so:_ZN13COLLADASaxFWL12NodeLoader1413begin__matrixERKN15COLLADASaxFWL1421matrix__AttributeDataE
libOpenCOLLADASaxFrameworkLoader.so:_ZN13COLLADASaxFWL12NodeLoader1413begin__rotateERKN15COLLADASaxFWL1421rotate__AttributeDataE
libOpenCOLLADASaxFrameworkLoader.so:_ZN13COLLADASaxFWL12NodeLoader1413end__skeletonEv
libOpenCOLLADASaxFrameworkLoader.so:_ZN13COLLADASaxFWL12NodeLoader1414data__skeletonEN9COLLADABU3URIE
libOpenCOLLADASaxFrameworkLoader.so:_ZN13COLLADASaxFWL12NodeLoader1414end__translateEv
libOpenCOLLADASaxFrameworkLoader.so:_ZN13COLLADASaxFWL12NodeLoader1415begin__skeletonEv
libOpenCOLLADASaxFrameworkLoader.so:_ZN13COLLADASaxFWL12NodeLoader1415data__translateEPKfm
libOpenCOLLADASaxFrameworkLoader.so:_ZN13COLLADASaxFWL12NodeLoader1416begin__translateERKN15COLLADASaxFWL1424translate__AttributeDataE
libOpenCOLLADASaxFrameworkLoader.so:_ZN13COLLADASaxFWL12NodeLoader1418end__bind_materialEv
libOpenCOLLADASaxFrameworkLoader.so:_ZN13COLLADASaxFWL12NodeLoader1418end__instance_nodeEv
libOpenCOLLADASaxFrameworkLoader.so:_ZN13COLLADASaxFWL12NodeLoader1419end__instance_lightEv
libOpenCOLLADASaxFrameworkLoader.so:_ZN13COLLADASaxFWL12NodeLoader1420begin__bind_materialEv
libOpenCOLLADASaxFrameworkLoader.so:_ZN13COLLADASaxFWL12NodeLoader1420begin__instance_nodeERKN15COLLADASaxFWL1428instance_node__AttributeDataE
libOpenCOLLADASaxFrameworkLoader.so:_ZN13COLLADASaxFWL12NodeLoader1420end__instance_cameraEv
libOpenCOLLADASaxFrameworkLoader.so:_ZN13COLLADASaxFWL12NodeLoader1421begin__instance_lightERKN15COLLADASaxFWL1429instance_light__AttributeDataE
libOpenCOLLADASaxFrameworkLoader.so:_ZN13COLLADASaxFWL12NodeLoader1422begin__instance_cameraERKN15COLLADASaxFWL1430instance_camera__AttributeDataE
libOpenCOLLADASaxFrameworkLoader.so:_ZN13COLLADASaxFWL12NodeLoader1422end__bind_vertex_inputEv
libOpenCOLLADASaxFrameworkLoader.so:_ZN13COLLADASaxFWL12NodeLoader1422end__instance_geometryEv
libOpenCOLLADASaxFrameworkLoader.so:_ZN13COLLADASaxFWL12NodeLoader1422end__instance_materialEv
libOpenCOLLADASaxFrameworkLoader.so:_ZN13COLLADASaxFWL12NodeLoader1424begin__bind_vertex_inputERKN15COLLADASaxFWL1432bind_vertex_input__AttributeDataE
libOpenCOLLADASaxFrameworkLoader.so:_ZN13COLLADASaxFWL12NodeLoader1424begin__instance_geometryERKN15COLLADASaxFWL1432instance_geometry__AttributeDataE
libOpenCOLLADASaxFrameworkLoader.so:_ZN13COLLADASaxFWL12NodeLoader1424begin__instance_materialERKN15COLLADASaxFWL1432instance_material__AttributeDataE
libOpenCOLLADASaxFrameworkLoader.so:_ZN13COLLADASaxFWL12NodeLoader1424end__instance_controllerEv
libOpenCOLLADASaxFrameworkLoader.so:_ZN13COLLADASaxFWL12NodeLoader1426begin__instance_controllerERKN15COLLADASaxFWL1434instance_controller__AttributeDataE
libOpenCOLLADASaxFrameworkLoader.so:_ZN13COLLADASaxFWL12NodeLoader1436end__bind_material__technique_commonEv
libOpenCOLLADASaxFrameworkLoader.so:_ZN13COLLADASaxFWL12NodeLoader1438begin__bind_material__technique_commonEv
libOpenCOLLADASaxFrameworkLoader.so:_ZN13COLLADASaxFWL12NodeLoader149end__nodeEv
libOpenCOLLADASaxFrameworkLoader.so:_ZN13COLLADASaxFWL12NodeLoader149end__skewEv
libOpenCOLLADASaxFrameworkLoader.so:_ZN13COLLADASaxFWL12NodeLoader1510data__skewEPKfm
libOpenCOLLADASaxFrameworkLoader.so:_ZN13COLLADASaxFWL12NodeLoader1510end__scaleEv
libOpenCOLLADASaxFrameworkLoader.so:_ZN13COLLADASaxFWL12NodeLoader1511begin__nodeERKN15COLLADASaxFWL1519node__AttributeDataE
libOpenCOLLADASaxFrameworkLoader.so:_ZN13COLLADASaxFWL12NodeLoader1511begin__skewERKN15COLLADASaxFWL1519skew__AttributeDataE
libOpenCOLLADASaxFrameworkLoader.so:_ZN13COLLADASaxFWL12NodeLoader1511data__scaleEPKfm
libOpenCOLLADASaxFrameworkLoader.so:_ZN13COLLADASaxFWL12NodeLoader1511end__lookatEv
libOpenCOLLADASaxFrameworkLoader.so:_ZN13COLLADASaxFWL12NodeLoader1511end__rotateEv
libOpenCOLLADASaxFrameworkLoader.so:_ZN13COLLADASaxFWL12NodeLoader1512begin__scaleERKN15COLLADASaxFWL1520scale__AttributeDataE
libOpenCOLLADASaxFrameworkLoader.so:_ZN13COLLADASaxFWL12NodeLoader1512data__lookatEPKfm
libOpenCOLLADASaxFrameworkLoader.so:_ZN13COLLADASaxFWL12NodeLoader1512data__rotateEPKfm
libOpenCOLLADASaxFrameworkLoader.so:_ZN13COLLADASaxFWL12NodeLoader1513begin__lookatERKN15COLLADASaxFWL1521lookat__AttributeDataE
libOpenCOLLADASaxFrameworkLoader.so:_ZN13COLLADASaxFWL12NodeLoader1513begin__rotateERKN15COLLADASaxFWL1521rotate__AttributeDataE
libOpenCOLLADASaxFrameworkLoader.so:_ZN13COLLADASaxFWL12NodeLoader1513end__skeletonEv
libOpenCOLLADASaxFrameworkLoader.so:_ZN13COLLADASaxFWL12NodeLoader1514data__skeletonEN9COLLADABU3URIE
libOpenCOLLADASaxFrameworkLoader.so:_ZN13COLLADASaxFWL12NodeLoader1514end__translateEv
libOpenCOLLADASaxFrameworkLoader.so:_ZN13COLLADASaxFWL12NodeLoader1515begin__skeletonEv
libOpenCOLLADASaxFrameworkLoader.so:_ZN13COLLADASaxFWL12NodeLoader1515data__translateEPKfm
libOpenCOLLADASaxFrameworkLoader.so:_ZN13COLLADASaxFWL12NodeLoader1516begin__translateERKN15COLLADASaxFWL1524translate__AttributeDataE
libOpenCOLLADASaxFrameworkLoader.so:_ZN13COLLADASaxFWL12NodeLoader1518end__bind_materialEv
libOpenCOLLADASaxFrameworkLoader.so:_ZN13COLLADASaxFWL12NodeLoader1518end__instance_nodeEv
libOpenCOLLADASaxFrameworkLoader.so:_ZN13COLLADASaxFWL12NodeLoader1519end__instance_lightEv
libOpenCOLLADASaxFrameworkLoader.so:_ZN13COLLADASaxFWL12NodeLoader1520begin__bind_materialEv
libOpenCOLLADASaxFrameworkLoader.so:_ZN13COLLADASaxFWL12NodeLoader1520begin__instance_nodeERKN15COLLADASaxFWL1528instance_node__AttributeDataE
libOpenCOLLADASaxFrameworkLoader.so:_ZN13COLLADASaxFWL12NodeLoader1520end__instance_cameraEv
libOpenCOLLADASaxFrameworkLoader.so:_ZN13COLLADASaxFWL12NodeLoader1521begin__instance_lightERKN15COLLADASaxFWL1529instance_light__AttributeDataE
libOpenCOLLADASaxFrameworkLoader.so:_ZN13COLLADASaxFWL12NodeLoader1522begin__instance_cameraERKN15COLLADASaxFWL1530instance_camera__AttributeDataE
libOpenCOLLADASaxFrameworkLoader.so:_ZN13COLLADASaxFWL12NodeLoader1522end__bind_vertex_inputEv
libOpenCOLLADASaxFrameworkLoader.so:_ZN13COLLADASaxFWL12NodeLoader1522end__instance_geometryEv
libOpenCOLLADASaxFrameworkLoader.so:_ZN13COLLADASaxFWL12NodeLoader1524begin__bind_vertex_inputERKN15COLLADASaxFWL1532bind_vertex_input__AttributeDataE
libOpenCOLLADASaxFrameworkLoader.so:_ZN13COLLADASaxFWL12NodeLoader1524begin__instance_geometryERKN15COLLADASaxFWL1532instance_geometry__AttributeDataE
libOpenCOLLADASaxFrameworkLoader.so:_ZN13COLLADASaxFWL12NodeLoader1524end__instance_controllerEv
libOpenCOLLADASaxFrameworkLoader.so:_ZN13COLLADASaxFWL12NodeLoader1526begin__instance_controllerERKN15COLLADASaxFWL1534instance_controller__AttributeDataE
libOpenCOLLADASaxFrameworkLoader.so:_ZN13COLLADASaxFWL12NodeLoader1526end__matrix____matrix_typeEv
libOpenCOLLADASaxFrameworkLoader.so:_ZN13COLLADASaxFWL12NodeLoader1527data__matrix____matrix_typeEPKfm
libOpenCOLLADASaxFrameworkLoader.so:_ZN13COLLADASaxFWL12NodeLoader1528begin__matrix____matrix_typeERKN15COLLADASaxFWL1536matrix____matrix_type__AttributeDataE
libOpenCOLLADASaxFrameworkLoader.so:_ZN13COLLADASaxFWL12NodeLoader1543end__bind_material_type____technique_commonEv
libOpenCOLLADASaxFrameworkLoader.so:_ZN13COLLADASaxFWL12NodeLoader1545begin__bind_material_type____technique_commonEv
libOpenCOLLADASaxFrameworkLoader.so:_ZN13COLLADASaxFWL12NodeLoader1548end__instance_material____instance_material_typeEv
libOpenCOLLADASaxFrameworkLoader.so:_ZN13COLLADASaxFWL12NodeLoader1550begin__instance_material____instance_material_typeERKN15COLLADASaxFWL1558instance_material____instance_material_type__AttributeDataE
libOpenCOLLADASaxFrameworkLoader.so:_ZN13COLLADASaxFWL12NodeLoader159end__nodeEv
libOpenCOLLADASaxFrameworkLoader.so:_ZN13COLLADASaxFWL12NodeLoader159end__skewEv
libOpenCOLLADASaxFrameworkLoader.so:_ZN13COLLADASaxFWL12RootParser1412begin__assetEv
libOpenCOLLADASaxFrameworkLoader.so:_ZN13COLLADASaxFWL12RootParser1412begin__sceneEv
libOpenCOLLADASaxFrameworkLoader.so:_ZN13COLLADASaxFWL12RootParser1412end__COLLADAEv
libOpenCOLLADASaxFrameworkLoader.so:_ZN13COLLADASaxFWL12RootParser1415begin__geometryERKN15COLLADASaxFWL1423geometry__AttributeDataE
libOpenCOLLADASaxFrameworkLoader.so:_ZN13COLLADASaxFWL12RootParser1416begin__techniqueERKN15COLLADASaxFWL1424technique__AttributeDataE
libOpenCOLLADASaxFrameworkLoader.so:_ZN13COLLADASaxFWL12RootParser1419begin__visual_sceneERKN15COLLADASaxFWL1427visual_scene__AttributeDataE
libOpenCOLLADASaxFrameworkLoader.so:_ZN13COLLADASaxFWL12RootParser1420begin__library_nodesERKN15COLLADASaxFWL1428library_nodes__AttributeDataE
libOpenCOLLADASaxFrameworkLoader.so:_ZN13COLLADASaxFWL12RootParser1421begin__library_imagesERKN15COLLADASaxFWL1429library_images__AttributeDataE
libOpenCOLLADASaxFrameworkLoader.so:_ZN13COLLADASaxFWL12RootParser1421begin__library_lightsERKN15COLLADASaxFWL1429library_lights__AttributeDataE
libOpenCOLLADASaxFrameworkLoader.so:_ZN13COLLADASaxFWL12RootParser1422begin__library_camerasERKN15COLLADASaxFWL1430library_cameras__AttributeDataE
libOpenCOLLADASaxFrameworkLoader.so:_ZN13COLLADASaxFWL12RootParser1422begin__library_effectsERKN15COLLADASaxFWL1430library_effects__AttributeDataE
libOpenCOLLADASaxFrameworkLoader.so:_ZN13COLLADASaxFWL12RootParser1424begin__library_materialsERKN15COLLADASaxFWL1432library_materials__AttributeDataE
libOpenCOLLADASaxFrameworkLoader.so:_ZN13COLLADASaxFWL12RootParser1425begin__library_animationsERKN15COLLADASaxFWL1433library_animations__AttributeDataE
libOpenCOLLADASaxFrameworkLoader.so:_ZN13COLLADASaxFWL12RootParser1426begin__library_controllersERKN15COLLADASaxFWL1434library_controllers__AttributeDataE
libOpenCOLLADASaxFrameworkLoader.so:_ZN13COLLADASaxFWL12RootParser1430begin__library_animation_clipsERKN15COLLADASaxFWL1438library_animation_clips__AttributeDataE
libOpenCOLLADASaxFrameworkLoader.so:_ZN13COLLADASaxFWL12RootParser14C1EPNS_10FileLoaderE
libOpenCOLLADASaxFrameworkLoader.so:_ZN13COLLADASaxFWL12RootParser14C2EPNS_10FileLoaderE
libOpenCOLLADASaxFrameworkLoader.so:_ZN13COLLADASaxFWL12RootParser1512begin__assetEv
libOpenCOLLADASaxFrameworkLoader.so:_ZN13COLLADASaxFWL12RootParser1512begin__sceneEv
libOpenCOLLADASaxFrameworkLoader.so:_ZN13COLLADASaxFWL12RootParser1512end__COLLADAEv
libOpenCOLLADASaxFrameworkLoader.so:_ZN13COLLADASaxFWL12RootParser1515begin__geometryERKN15COLLADASaxFWL1523geometry__AttributeDataE
libOpenCOLLADASaxFrameworkLoader.so:_ZN13COLLADASaxFWL12RootParser1519begin__visual_sceneERKN15COLLADASaxFWL1527visual_scene__AttributeDataE
libOpenCOLLADASaxFrameworkLoader.so:_ZN13COLLADASaxFWL12RootParser1520begin__library_nodesERKN15COLLADASaxFWL1528library_nodes__AttributeDataE
libOpenCOLLADASaxFrameworkLoader.so:_ZN13COLLADASaxFWL12RootParser1521begin__library_imagesERKN15COLLADASaxFWL1529library_images__AttributeDataE
libOpenCOLLADASaxFrameworkLoader.so:_ZN13COLLADASaxFWL12RootParser1521begin__library_jointsERKN15COLLADASaxFWL1529library_joints__AttributeDataE
libOpenCOLLADASaxFrameworkLoader.so:_ZN13COLLADASaxFWL12RootParser1521begin__library_lightsERKN15COLLADASaxFWL1529library_lights__AttributeDataE
libOpenCOLLADASaxFrameworkLoader.so:_ZN13COLLADASaxFWL12RootParser1522begin__library_camerasERKN15COLLADASaxFWL1530library_cameras__AttributeDataE
libOpenCOLLADASaxFrameworkLoader.so:_ZN13COLLADASaxFWL12RootParser1522begin__library_effectsERKN15COLLADASaxFWL1530library_effects__AttributeDataE
libOpenCOLLADASaxFrameworkLoader.so:_ZN13COLLADASaxFWL12RootParser1523begin__library_formulasERKN15COLLADASaxFWL1531library_formulas__AttributeDataE
libOpenCOLLADASaxFrameworkLoader.so:_ZN13COLLADASaxFWL12RootParser1524begin__library_materialsERKN15COLLADASaxFWL1532library_materials__AttributeDataE
libOpenCOLLADASaxFrameworkLoader.so:_ZN13COLLADASaxFWL12RootParser1525begin__library_animationsERKN15COLLADASaxFWL1533library_animations__AttributeDataE
libOpenCOLLADASaxFrameworkLoader.so:_ZN13COLLADASaxFWL12RootParser1526begin__library_controllersERKN15COLLADASaxFWL1534library_controllers__AttributeDataE
libOpenCOLLADASaxFrameworkLoader.so:_ZN13COLLADASaxFWL12RootParser1530begin__library_animation_clipsERKN15COLLADASaxFWL1538library_animation_clips__AttributeDataE
libOpenCOLLADASaxFrameworkLoader.so:_ZN13COLLADASaxFWL12RootParser1532begin__library_kinematics_modelsERKN15COLLADASaxFWL1540library_kinematics_models__AttributeDataE
libOpenCOLLADASaxFrameworkLoader.so:_ZN13COLLADASaxFWL12RootParser1532begin__library_kinematics_scenesERKN15COLLADASaxFWL1540library_kinematics_scenes__AttributeDataE
libOpenCOLLADASaxFrameworkLoader.so:_ZN13COLLADASaxFWL12RootParser1534begin__library_articulated_systemsERKN15COLLADASaxFWL1542library_articulated_systems__AttributeDataE
libOpenCOLLADASaxFrameworkLoader.so:_ZN13COLLADASaxFWL12RootParser1534begin__technique____technique_typeERKN15COLLADASaxFWL1542technique____technique_type__AttributeDataE
libOpenCOLLADASaxFrameworkLoader.so:_ZN13COLLADASaxFWL12RootParser15C1EPNS_10FileLoaderE
libOpenCOLLADASaxFrameworkLoader.so:_ZN13COLLADASaxFWL12RootParser15C2EPNS_10FileLoaderE
libOpenCOLLADASaxFrameworkLoader.so:_ZN13COLLADASaxFWL12SplineLoader11end__sourceEv
libOpenCOLLADASaxFrameworkLoader.so:_ZN13COLLADASaxFWL12SplineLoader11end__splineEv
libOpenCOLLADASaxFrameworkLoader.so:_ZN13COLLADASaxFWL12SplineLoader11getUniqueIdEv
libOpenCOLLADASaxFrameworkLoader.so:_ZN13COLLADASaxFWL12SplineLoader13begin__sourceERKNS_21source__AttributeDataE
libOpenCOLLADASaxFrameworkLoader.so:_ZN13COLLADASaxFWL12SplineLoader13loadPositionsEv
libOpenCOLLADASaxFrameworkLoader.so:_ZN13COLLADASaxFWL12SplineLoader14loadInTangentsEv
libOpenCOLLADASaxFrameworkLoader.so:_ZN13COLLADASaxFWL12SplineLoader15end__Name_arrayEv
libOpenCOLLADASaxFrameworkLoader.so:_ZN13COLLADASaxFWL12SplineLoader15loadOutTangentsEv
libOpenCOLLADASaxFrameworkLoader.so:_ZN13COLLADASaxFWL12SplineLoader16data__Name_arrayEPKN18GeneratedSaxParser12ParserStringEm
libOpenCOLLADASaxFrameworkLoader.so:_ZN13COLLADASaxFWL12SplineLoader17begin__Name_arrayERKNS_25Name_array__AttributeDataE
libOpenCOLLADASaxFrameworkLoader.so:_ZN13COLLADASaxFWL12SplineLoader18loadInterpolationsEv
libOpenCOLLADASaxFrameworkLoader.so:_ZN13COLLADASaxFWL12SplineLoader21end__control_verticesEv
libOpenCOLLADASaxFrameworkLoader.so:_ZN13COLLADASaxFWL12SplineLoader22dataInterpolationArrayEPKN18GeneratedSaxParser12ParserStringEm
libOpenCOLLADASaxFrameworkLoader.so:_ZN13COLLADASaxFWL12SplineLoader23beginInterpolationArrayEb
libOpenCOLLADASaxFrameworkLoader.so:_ZN13COLLADASaxFWL12SplineLoader23begin__control_verticesEv
libOpenCOLLADASaxFrameworkLoader.so:_ZN13COLLADASaxFWL12SplineLoader24end__input____InputLocalEv
libOpenCOLLADASaxFrameworkLoader.so:_ZN13COLLADASaxFWL12SplineLoader26begin__input____InputLocalERKNS_34input____InputLocal__AttributeDataE
libOpenCOLLADASaxFrameworkLoader.so:_ZN13COLLADASaxFWL12SplineLoaderC1EPNS_15IFilePartLoaderERKNSt7__cxx1112basic_stringIcSt11char_traitsIcESaIcEEESA_
libOpenCOLLADASaxFrameworkLoader.so:_ZN13COLLADASaxFWL12SplineLoaderC2EPNS_15IFilePartLoaderERKNSt7__cxx1112basic_stringIcSt11char_traitsIcESaIcEEESA_
libOpenCOLLADASaxFrameworkLoader.so:_ZN13COLLADASaxFWL12accessorRGBAE
libOpenCOLLADASaxFrameworkLoader.so:_ZN13COLLADASaxFWL12accessorTimeE
libOpenCOLLADASaxFrameworkLoader.so:_ZN13COLLADASaxFWL12sidSeparatorE
libOpenCOLLADASaxFrameworkLoader.so:_ZN13COLLADASaxFWL13AnimationInfo7INVALIDE
libOpenCOLLADASaxFrameworkLoader.so:_ZN13COLLADASaxFWL13AssetLoader1410end__assetEv
libOpenCOLLADASaxFrameworkLoader.so:_ZN13COLLADASaxFWL13AssetLoader1410end__titleEv
libOpenCOLLADASaxFrameworkLoader.so:_ZN13COLLADASaxFWL13AssetLoader1411begin__unitERKN15COLLADASaxFWL1419unit__AttributeDataE
libOpenCOLLADASaxFrameworkLoader.so:_ZN13COLLADASaxFWL13AssetLoader1411data__titleEPKcm
libOpenCOLLADASaxFrameworkLoader.so:_ZN13COLLADASaxFWL13AssetLoader1411end__authorEv
libOpenCOLLADASaxFrameworkLoader.so:_ZN13COLLADASaxFWL13AssetLoader1412begin__titleEv
libOpenCOLLADASaxFrameworkLoader.so:_ZN13COLLADASaxFWL13AssetLoader1412data__authorEPKcm
libOpenCOLLADASaxFrameworkLoader.so:_ZN13COLLADASaxFWL13AssetLoader1412end__createdEv
libOpenCOLLADASaxFrameworkLoader.so:_ZN13COLLADASaxFWL13AssetLoader1412end__subjectEv
libOpenCOLLADASaxFrameworkLoader.so:_ZN13COLLADASaxFWL13AssetLoader1412end__up_axisEv
libOpenCOLLADASaxFrameworkLoader.so:_ZN13COLLADASaxFWL13AssetLoader1413begin__authorEv
libOpenCOLLADASaxFrameworkLoader.so:_ZN13COLLADASaxFWL13AssetLoader1413data__createdEPKcm
libOpenCOLLADASaxFrameworkLoader.so:_ZN13COLLADASaxFWL13AssetLoader1413data__subjectEPKcm
libOpenCOLLADASaxFrameworkLoader.so:_ZN13COLLADASaxFWL13AssetLoader1413data__up_axisEN15COLLADASaxFWL1416ENUM__UpAxisTypeE
libOpenCOLLADASaxFrameworkLoader.so:_ZN13COLLADASaxFWL13AssetLoader1413end__commentsEv
libOpenCOLLADASaxFrameworkLoader.so:_ZN13COLLADASaxFWL13AssetLoader1413end__keywordsEv
libOpenCOLLADASaxFrameworkLoader.so:_ZN13COLLADASaxFWL13AssetLoader1413end__modifiedEv
libOpenCOLLADASaxFrameworkLoader.so:_ZN13COLLADASaxFWL13AssetLoader1413end__revisionEv
libOpenCOLLADASaxFrameworkLoader.so:_ZN13COLLADASaxFWL13AssetLoader1414begin__createdEv
libOpenCOLLADASaxFrameworkLoader.so:_ZN13COLLADASaxFWL13AssetLoader1414begin__subjectEv
libOpenCOLLADASaxFrameworkLoader.so:_ZN13COLLADASaxFWL13AssetLoader1414begin__up_axisEv
libOpenCOLLADASaxFrameworkLoader.so:_ZN13COLLADASaxFWL13AssetLoader1414data__commentsEPKcm
libOpenCOLLADASaxFrameworkLoader.so:_ZN13COLLADASaxFWL13AssetLoader1414data__keywordsEPKcm
libOpenCOLLADASaxFrameworkLoader.so:_ZN13COLLADASaxFWL13AssetLoader1414data__modifiedEPKcm
libOpenCOLLADASaxFrameworkLoader.so:_ZN13COLLADASaxFWL13AssetLoader1414data__revisionEPKcm
libOpenCOLLADASaxFrameworkLoader.so:_ZN13COLLADASaxFWL13AssetLoader1414end__copyrightEv
libOpenCOLLADASaxFrameworkLoader.so:_ZN13COLLADASaxFWL13AssetLoader1414end__techniqueEv
libOpenCOLLADASaxFrameworkLoader.so:_ZN13COLLADASaxFWL13AssetLoader1415begin__commentsEv
libOpenCOLLADASaxFrameworkLoader.so:_ZN13COLLADASaxFWL13AssetLoader1415begin__keywordsEv
libOpenCOLLADASaxFrameworkLoader.so:_ZN13COLLADASaxFWL13AssetLoader1415begin__modifiedEv
libOpenCOLLADASaxFrameworkLoader.so:_ZN13COLLADASaxFWL13AssetLoader1415begin__revisionEv
libOpenCOLLADASaxFrameworkLoader.so:_ZN13COLLADASaxFWL13AssetLoader1415data__copyrightEPKcm
libOpenCOLLADASaxFrameworkLoader.so:_ZN13COLLADASaxFWL13AssetLoader1416begin__copyrightEv
libOpenCOLLADASaxFrameworkLoader.so:_ZN13COLLADASaxFWL13AssetLoader1416begin__techniqueERKN15COLLADASaxFWL1424technique__AttributeDataE
libOpenCOLLADASaxFrameworkLoader.so:_ZN13COLLADASaxFWL13AssetLoader1416end__contributorEv
libOpenCOLLADASaxFrameworkLoader.so:_ZN13COLLADASaxFWL13AssetLoader1416end__source_dataEv
libOpenCOLLADASaxFrameworkLoader.so:_ZN13COLLADASaxFWL13AssetLoader1417data__source_dataEN9COLLADABU3URIE
libOpenCOLLADASaxFrameworkLoader.so:_ZN13COLLADASaxFWL13AssetLoader1418begin__contributorEv
libOpenCOLLADASaxFrameworkLoader.so:_ZN13COLLADASaxFWL13AssetLoader1418begin__source_dataEv
libOpenCOLLADASaxFrameworkLoader.so:_ZN13COLLADASaxFWL13AssetLoader1419end__authoring_toolEv
libOpenCOLLADASaxFrameworkLoader.so:_ZN13COLLADASaxFWL13AssetLoader1420data__authoring_toolEPKcm
libOpenCOLLADASaxFrameworkLoader.so:_ZN13COLLADASaxFWL13AssetLoader1421begin__authoring_toolEv
libOpenCOLLADASaxFrameworkLoader.so:_ZN13COLLADASaxFWL13AssetLoader149end__unitEv
libOpenCOLLADASaxFrameworkLoader.so:_ZN13COLLADASaxFWL13AssetLoader1510end__assetEv
libOpenCOLLADASaxFrameworkLoader.so:_ZN13COLLADASaxFWL13AssetLoader1510end__titleEv
libOpenCOLLADASaxFrameworkLoader.so:_ZN13COLLADASaxFWL13AssetLoader1511begin__unitERKN15COLLADASaxFWL1519unit__AttributeDataE
libOpenCOLLADASaxFrameworkLoader.so:_ZN13COLLADASaxFWL13AssetLoader1511data__titleEPKcm
libOpenCOLLADASaxFrameworkLoader.so:_ZN13COLLADASaxFWL13AssetLoader1511end__authorEv
libOpenCOLLADASaxFrameworkLoader.so:_ZN13COLLADASaxFWL13AssetLoader1512begin__titleEv
libOpenCOLLADASaxFrameworkLoader.so:_ZN13COLLADASaxFWL13AssetLoader1512data__authorEPKcm
libOpenCOLLADASaxFrameworkLoader.so:_ZN13COLLADASaxFWL13AssetLoader1512end__createdEv
libOpenCOLLADASaxFrameworkLoader.so:_ZN13COLLADASaxFWL13AssetLoader1512end__subjectEv
libOpenCOLLADASaxFrameworkLoader.so:_ZN13COLLADASaxFWL13AssetLoader1512end__up_axisEv
libOpenCOLLADASaxFrameworkLoader.so:_ZN13COLLADASaxFWL13AssetLoader1513begin__authorEv
libOpenCOLLADASaxFrameworkLoader.so:_ZN13COLLADASaxFWL13AssetLoader1513data__createdEPKcm
libOpenCOLLADASaxFrameworkLoader.so:_ZN13COLLADASaxFWL13AssetLoader1513data__subjectEPKcm
libOpenCOLLADASaxFrameworkLoader.so:_ZN13COLLADASaxFWL13AssetLoader1513data__up_axisEN15COLLADASaxFWL1518ENUM__up_axis_enumE
libOpenCOLLADASaxFrameworkLoader.so:_ZN13COLLADASaxFWL13AssetLoader1513end__commentsEv
libOpenCOLLADASaxFrameworkLoader.so:_ZN13COLLADASaxFWL13AssetLoader1513end__keywordsEv
libOpenCOLLADASaxFrameworkLoader.so:_ZN13COLLADASaxFWL13AssetLoader1513end__modifiedEv
libOpenCOLLADASaxFrameworkLoader.so:_ZN13COLLADASaxFWL13AssetLoader1513end__revisionEv
libOpenCOLLADASaxFrameworkLoader.so:_ZN13COLLADASaxFWL13AssetLoader1514begin__createdEv
libOpenCOLLADASaxFrameworkLoader.so:_ZN13COLLADASaxFWL13AssetLoader1514begin__subjectEv
libOpenCOLLADASaxFrameworkLoader.so:_ZN13COLLADASaxFWL13AssetLoader1514begin__up_axisEv
libOpenCOLLADASaxFrameworkLoader.so:_ZN13COLLADASaxFWL13AssetLoader1514data__commentsEPKcm
libOpenCOLLADASaxFrameworkLoader.so:_ZN13COLLADASaxFWL13AssetLoader1514data__keywordsEPKcm
libOpenCOLLADASaxFrameworkLoader.so:_ZN13COLLADASaxFWL13AssetLoader1514data__modifiedEPKcm
libOpenCOLLADASaxFrameworkLoader.so:_ZN13COLLADASaxFWL13AssetLoader1514data__revisionEPKcm
libOpenCOLLADASaxFrameworkLoader.so:_ZN13COLLADASaxFWL13AssetLoader1514end__copyrightEv
libOpenCOLLADASaxFrameworkLoader.so:_ZN13COLLADASaxFWL13AssetLoader1515begin__commentsEv
libOpenCOLLADASaxFrameworkLoader.so:_ZN13COLLADASaxFWL13AssetLoader1515begin__keywordsEv
libOpenCOLLADASaxFrameworkLoader.so:_ZN13COLLADASaxFWL13AssetLoader1515begin__modifiedEv
libOpenCOLLADASaxFrameworkLoader.so:_ZN13COLLADASaxFWL13AssetLoader1515begin__revisionEv
libOpenCOLLADASaxFrameworkLoader.so:_ZN13COLLADASaxFWL13AssetLoader1515data__copyrightEPKcm
libOpenCOLLADASaxFrameworkLoader.so:_ZN13COLLADASaxFWL13AssetLoader1516begin__copyrightEv
libOpenCOLLADASaxFrameworkLoader.so:_ZN13COLLADASaxFWL13AssetLoader1516end__contributorEv
libOpenCOLLADASaxFrameworkLoader.so:_ZN13COLLADASaxFWL13AssetLoader1516end__source_dataEv
libOpenCOLLADASaxFrameworkLoader.so:_ZN13COLLADASaxFWL13AssetLoader1517data__source_dataEN9COLLADABU3URIE
libOpenCOLLADASaxFrameworkLoader.so:_ZN13COLLADASaxFWL13AssetLoader1518begin__contributorEv
libOpenCOLLADASaxFrameworkLoader.so:_ZN13COLLADASaxFWL13AssetLoader1518begin__source_dataEv
libOpenCOLLADASaxFrameworkLoader.so:_ZN13COLLADASaxFWL13AssetLoader1519end__authoring_toolEv
libOpenCOLLADASaxFrameworkLoader.so:_ZN13COLLADASaxFWL13AssetLoader1520data__authoring_toolEPKcm
libOpenCOLLADASaxFrameworkLoader.so:_ZN13COLLADASaxFWL13AssetLoader1521begin__authoring_toolEv
libOpenCOLLADASaxFrameworkLoader.so:_ZN13COLLADASaxFWL13AssetLoader1532end__technique____technique_typeEv
libOpenCOLLADASaxFrameworkLoader.so:_ZN13COLLADASaxFWL13AssetLoader1534begin__technique____technique_typeERKN15COLLADASaxFWL1542technique____technique_type__AttributeDataE
libOpenCOLLADASaxFrameworkLoader.so:_ZN13COLLADASaxFWL13AssetLoader159end__unitEv
libOpenCOLLADASaxFrameworkLoader.so:_ZN13COLLADASaxFWL13IErrorHandlerC1Ev
libOpenCOLLADASaxFrameworkLoader.so:_ZN13COLLADASaxFWL13IErrorHandlerC2Ev
libOpenCOLLADASaxFrameworkLoader.so:_ZN13COLLADASaxFWL13IErrorHandlerD0Ev
libOpenCOLLADASaxFrameworkLoader.so:_ZN13COLLADASaxFWL13IErrorHandlerD1Ev
libOpenCOLLADASaxFrameworkLoader.so:_ZN13COLLADASaxFWL13IErrorHandlerD2Ev
libOpenCOLLADASaxFrameworkLoader.so:_ZN13COLLADASaxFWL13IParserImpl14C1Ev
libOpenCOLLADASaxFrameworkLoader.so:_ZN13COLLADASaxFWL13IParserImpl14C2Ev
libOpenCOLLADASaxFrameworkLoader.so:_ZN13COLLADASaxFWL13IParserImpl15C1Ev
libOpenCOLLADASaxFrameworkLoader.so:_ZN13COLLADASaxFWL13IParserImpl15C2Ev
libOpenCOLLADASaxFrameworkLoader.so:_ZN13COLLADASaxFWL13InputUnshared19getSemanticAsStringB5cxx11ENS_13InputSemantic8SemanticE
libOpenCOLLADASaxFrameworkLoader.so:_ZN13COLLADASaxFWL13InputUnshared21getSemanticFromStringERKNSt7__cxx1112basic_stringIcSt11char_traitsIcESaIcEEE
libOpenCOLLADASaxFrameworkLoader.so:_ZN13COLLADASaxFWL13InputUnsharedC1ENS_13InputSemantic8SemanticERKN9COLLADABU3URIE
libOpenCOLLADASaxFrameworkLoader.so:_ZN13COLLADASaxFWL13InputUnsharedC1ERKNSt7__cxx1112basic_stringIcSt11char_traitsIcESaIcEEES8_
libOpenCOLLADASaxFrameworkLoader.so:_ZN13COLLADASaxFWL13InputUnsharedC2ENS_13InputSemantic8SemanticERKN9COLLADABU3URIE
libOpenCOLLADASaxFrameworkLoader.so:_ZN13COLLADASaxFWL13InputUnsharedC2ERKNSt7__cxx1112basic_stringIcSt11char_traitsIcESaIcEEES8_
libOpenCOLLADASaxFrameworkLoader.so:_ZN13COLLADASaxFWL13PostProcessor11postProcessEv
libOpenCOLLADASaxFrameworkLoader.so:_ZN13COLLADASaxFWL13PostProcessor11writeLightsEv
libOpenCOLLADASaxFrameworkLoader.so:_ZN13COLLADASaxFWL13PostProcessor12writeCamerasEv
libOpenCOLLADASaxFrameworkLoader.so:_ZN13COLLADASaxFWL13PostProcessor12writeEffectsEv
libOpenCOLLADASaxFrameworkLoader.so:_ZN13COLLADASaxFWL13PostProcessor17writeLibraryNodesEv
libOpenCOLLADASaxFrameworkLoader.so:_ZN13COLLADASaxFWL13PostProcessor17writeVisualScenesEv
libOpenCOLLADASaxFrameworkLoader.so:_ZN13COLLADASaxFWL13PostProcessor19writeAnimationListsEv
libOpenCOLLADASaxFrameworkLoader.so:_ZN13COLLADASaxFWL13PostProcessor20linkAndWriteFormulasEv
libOpenCOLLADASaxFrameworkLoader.so:_ZN13COLLADASaxFWL13PostProcessor21writeMorphControllersEv
libOpenCOLLADASaxFrameworkLoader.so:_ZN13COLLADASaxFWL13PostProcessor26createMissingAnimationListERKNS_6Loader26AnimationSidAddressBindingE
libOpenCOLLADASaxFrameworkLoader.so:_ZN13COLLADASaxFWL13PostProcessor27createMissingAnimationListsEv
libOpenCOLLADASaxFrameworkLoader.so:_ZN13COLLADASaxFWL13PostProcessor29createAndWriteKinematicsSceneEv
libOpenCOLLADASaxFrameworkLoader.so:_ZN13COLLADASaxFWL13PostProcessorC1EPNS_6LoaderEPNS_21SaxParserErrorHandlerEiRi
libOpenCOLLADASaxFrameworkLoader.so:_ZN13COLLADASaxFWL13PostProcessorC2EPNS_6LoaderEPNS_21SaxParserErrorHandlerEiRi
libOpenCOLLADASaxFrameworkLoader.so:_ZN13COLLADASaxFWL13PostProcessorD0Ev
libOpenCOLLADASaxFrameworkLoader.so:_ZN13COLLADASaxFWL13PostProcessorD1Ev
libOpenCOLLADASaxFrameworkLoader.so:_ZN13COLLADASaxFWL13PostProcessorD2Ev
libOpenCOLLADASaxFrameworkLoader.so:_ZN13COLLADASaxFWL13SceneLoader1410end__sceneEv
libOpenCOLLADASaxFrameworkLoader.so:_ZN13COLLADASaxFWL13SceneLoader1414end__techniqueEv
libOpenCOLLADASaxFrameworkLoader.so:_ZN13COLLADASaxFWL13SceneLoader1416begin__techniqueERKN15COLLADASaxFWL1424technique__AttributeDataE
libOpenCOLLADASaxFrameworkLoader.so:_ZN13COLLADASaxFWL13SceneLoader1426end__instance_visual_sceneEv
libOpenCOLLADASaxFrameworkLoader.so:_ZN13COLLADASaxFWL13SceneLoader1428begin__instance_visual_sceneERKN15COLLADASaxFWL1436instance_visual_scene__AttributeDataE
libOpenCOLLADASaxFrameworkLoader.so:_ZN13COLLADASaxFWL13SceneLoader1510end__sceneEv
libOpenCOLLADASaxFrameworkLoader.so:_ZN13COLLADASaxFWL13SceneLoader1520end__bind_joint_axisEv
libOpenCOLLADASaxFrameworkLoader.so:_ZN13COLLADASaxFWL13SceneLoader1522begin__bind_joint_axisERKN15COLLADASaxFWL1530bind_joint_axis__AttributeDataE
libOpenCOLLADASaxFrameworkLoader.so:_ZN13COLLADASaxFWL13SceneLoader1526end__bind_kinematics_modelEv
libOpenCOLLADASaxFrameworkLoader.so:_ZN13COLLADASaxFWL13SceneLoader1526end__instance_visual_sceneEv
libOpenCOLLADASaxFrameworkLoader.so:_ZN13COLLADASaxFWL13SceneLoader1528begin__bind_kinematics_modelERKN15COLLADASaxFWL1536bind_kinematics_model__AttributeDataE
libOpenCOLLADASaxFrameworkLoader.so:_ZN13COLLADASaxFWL13SceneLoader1528begin__instance_visual_sceneERKN15COLLADASaxFWL1536instance_visual_scene__AttributeDataE
libOpenCOLLADASaxFrameworkLoader.so:_ZN13COLLADASaxFWL13SceneLoader1530end__instance_kinematics_sceneEv
libOpenCOLLADASaxFrameworkLoader.so:_ZN13COLLADASaxFWL13SceneLoader1531end__param____common_param_typeEv
libOpenCOLLADASaxFrameworkLoader.so:_ZN13COLLADASaxFWL13SceneLoader1532begin__instance_kinematics_sceneERKN15COLLADASaxFWL1540instance_kinematics_scene__AttributeDataE
libOpenCOLLADASaxFrameworkLoader.so:_ZN13COLLADASaxFWL13SceneLoader1532data__param____common_param_typeEPKcm
libOpenCOLLADASaxFrameworkLoader.so:_ZN13COLLADASaxFWL13SceneLoader1532end__technique____technique_typeEv
libOpenCOLLADASaxFrameworkLoader.so:_ZN13COLLADASaxFWL13SceneLoader1533begin__param____common_param_typeEv
libOpenCOLLADASaxFrameworkLoader.so:_ZN13COLLADASaxFWL13SceneLoader1534begin__technique____technique_typeERKN15COLLADASaxFWL1542technique____technique_type__AttributeDataE
libOpenCOLLADASaxFrameworkLoader.so:_ZN13COLLADASaxFWL13SceneLoader1540end__axis____common_sidref_or_param_typeEv
libOpenCOLLADASaxFrameworkLoader.so:_ZN13COLLADASaxFWL13SceneLoader1540end__value____common_float_or_param_typeEv
libOpenCOLLADASaxFrameworkLoader.so:_ZN13COLLADASaxFWL13SceneLoader1542begin__axis____common_sidref_or_param_typeEv
libOpenCOLLADASaxFrameworkLoader.so:_ZN13COLLADASaxFWL13SceneLoader1542begin__value____common_float_or_param_typeEv
libOpenCOLLADASaxFrameworkLoader.so:_ZN13COLLADASaxFWL13VersionParser10elementEndEPKc
libOpenCOLLADASaxFrameworkLoader.so:_ZN13COLLADASaxFWL13VersionParser12elementBeginEPKcRKN18GeneratedSaxParser16ParserAttributesE
libOpenCOLLADASaxFrameworkLoader.so:_ZN13COLLADASaxFWL13VersionParser19createFunctionMap14Ev
libOpenCOLLADASaxFrameworkLoader.so:_ZN13COLLADASaxFWL13VersionParser19createFunctionMap15Ev
libOpenCOLLADASaxFrameworkLoader.so:_ZN13COLLADASaxFWL13VersionParser21createAndLaunchParserEPKci
libOpenCOLLADASaxFrameworkLoader.so:_ZN13COLLADASaxFWL13VersionParser21createAndLaunchParserEv
libOpenCOLLADASaxFrameworkLoader.so:_ZN13COLLADASaxFWL13VersionParser7parse14EPKcRKN18GeneratedSaxParser16ParserAttributesE
libOpenCOLLADASaxFrameworkLoader.so:_ZN13COLLADASaxFWL13VersionParser7parse15EPKcRKN18GeneratedSaxParser16ParserAttributesE
libOpenCOLLADASaxFrameworkLoader.so:_ZN13COLLADASaxFWL13VersionParser8textDataEPKcm
libOpenCOLLADASaxFrameworkLoader.so:_ZN13COLLADASaxFWL13VersionParserC1EPN18GeneratedSaxParser13IErrorHandlerEPNS_10FileLoaderEiRi
libOpenCOLLADASaxFrameworkLoader.so:_ZN13COLLADASaxFWL13VersionParserC2EPN18GeneratedSaxParser13IErrorHandlerEPNS_10FileLoaderEiRi
libOpenCOLLADASaxFrameworkLoader.so:_ZN13COLLADASaxFWL13VersionParserD0Ev
libOpenCOLLADASaxFrameworkLoader.so:_ZN13COLLADASaxFWL13VersionParserD1Ev
libOpenCOLLADASaxFrameworkLoader.so:_ZN13COLLADASaxFWL13VersionParserD2Ev
libOpenCOLLADASaxFrameworkLoader.so:_ZN13COLLADASaxFWL13accessorAngleE
libOpenCOLLADASaxFrameworkLoader.so:_ZN13COLLADASaxFWL13accessorFloatE
libOpenCOLLADASaxFrameworkLoader.so:_ZN13COLLADASaxFWL13parameterTimeE
libOpenCOLLADASaxFrameworkLoader.so:_ZN13COLLADASaxFWL14COLLADACsymbolC1ERKNS_10SidAddressE
libOpenCOLLADASaxFrameworkLoader.so:_ZN13COLLADASaxFWL14COLLADACsymbolC1ERKNSt7__cxx1112basic_stringIcSt11char_traitsIcESaIcEEERKN9COLLADAFW8UniqueIdE
libOpenCOLLADASaxFrameworkLoader.so:_ZN13COLLADASaxFWL14COLLADACsymbolC2ERKNS_10SidAddressE
libOpenCOLLADASaxFrameworkLoader.so:_ZN13COLLADASaxFWL14COLLADACsymbolC2ERKNSt7__cxx1112basic_stringIcSt11char_traitsIcESaIcEEERKN9COLLADAFW8UniqueIdE
libOpenCOLLADASaxFrameworkLoader.so:_ZN13COLLADASaxFWL14COLLADACsymbolD0Ev
libOpenCOLLADASaxFrameworkLoader.so:_ZN13COLLADASaxFWL14COLLADACsymbolD1Ev
libOpenCOLLADASaxFrameworkLoader.so:_ZN13COLLADASaxFWL14COLLADACsymbolD2Ev
libOpenCOLLADASaxFrameworkLoader.so:_ZN13COLLADASaxFWL14FilePartLoader10getFileUriEv
libOpenCOLLADASaxFrameworkLoader.so:_ZN13COLLADASaxFWL14FilePartLoader13getFileLoaderEv
libOpenCOLLADASaxFrameworkLoader.so:_ZN13COLLADASaxFWL14FilePartLoader16getColladaLoaderEv
libOpenCOLLADASaxFrameworkLoader.so:_ZN13COLLADASaxFWL14FilePartLoader6finishEv
libOpenCOLLADASaxFrameworkLoader.so:_ZN13COLLADASaxFWL14FilePartLoader9setParserEPN15COLLADASaxFWL1422ColladaParserAutoGen14E
libOpenCOLLADASaxFrameworkLoader.so:_ZN13COLLADASaxFWL14FilePartLoader9setParserEPN15COLLADASaxFWL1522ColladaParserAutoGen15E
libOpenCOLLADASaxFrameworkLoader.so:_ZN13COLLADASaxFWL14FilePartLoaderC1EPNS_15IFilePartLoaderE
libOpenCOLLADASaxFrameworkLoader.so:_ZN13COLLADASaxFWL14FilePartLoaderC2EPNS_15IFilePartLoaderE
libOpenCOLLADASaxFrameworkLoader.so:_ZN13COLLADASaxFWL14FilePartLoaderD0Ev
libOpenCOLLADASaxFrameworkLoader.so:_ZN13COLLADASaxFWL14FilePartLoaderD1Ev
libOpenCOLLADASaxFrameworkLoader.so:_ZN13COLLADASaxFWL14FilePartLoaderD2Ev
libOpenCOLLADASaxFrameworkLoader.so:_ZN13COLLADASaxFWL14FormulasLinker16getNewParamIndexEPKN9COLLADAFW7FormulaERKNSt7__cxx1112basic_stringIcSt11char_traitsIcESaIcEEERb
libOpenCOLLADASaxFrameworkLoader.so:_ZN13COLLADASaxFWL14FormulasLinker4linkEPN9COLLADAFW7FormulaEPN6MathML3AST5INodeERb
libOpenCOLLADASaxFrameworkLoader.so:_ZN13COLLADASaxFWL14FormulasLinker4linkEPN9COLLADAFW7FormulaEPNS_14COLLADACsymbolERb
libOpenCOLLADASaxFrameworkLoader.so:_ZN13COLLADASaxFWL14FormulasLinker4linkEv
libOpenCOLLADASaxFrameworkLoader.so:_ZN13COLLADASaxFWL14FormulasLinkerC1EPNS_17DocumentProcessorERN9COLLADAFW18ArrayPrimitiveTypeIPNS3_7FormulaEEE
libOpenCOLLADASaxFrameworkLoader.so:_ZN13COLLADASaxFWL14FormulasLinkerC2EPNS_17DocumentProcessorERN9COLLADAFW18ArrayPrimitiveTypeIPNS3_7FormulaEEE
libOpenCOLLADASaxFrameworkLoader.so:_ZN13COLLADASaxFWL14FormulasLinkerD0Ev
libOpenCOLLADASaxFrameworkLoader.so:_ZN13COLLADASaxFWL14FormulasLinkerD1Ev
libOpenCOLLADASaxFrameworkLoader.so:_ZN13COLLADASaxFWL14FormulasLinkerD2Ev
libOpenCOLLADASaxFrameworkLoader.so:_ZN13COLLADASaxFWL14FormulasLoader10begin__absERKNS_18abs__AttributeDataE
libOpenCOLLADASaxFrameworkLoader.so:_ZN13COLLADASaxFWL14FormulasLoader10begin__andERKNS_18and__AttributeDataE
libOpenCOLLADASaxFrameworkLoader.so:_ZN13COLLADASaxFWL14FormulasLoader10begin__cosERKNS_18cos__AttributeDataE
libOpenCOLLADASaxFrameworkLoader.so:_ZN13COLLADASaxFWL14FormulasLoader10begin__cotERKNS_18cot__AttributeDataE
libOpenCOLLADASaxFrameworkLoader.so:_ZN13COLLADASaxFWL14FormulasLoader10begin__cscERKNS_18csc__AttributeDataE
libOpenCOLLADASaxFrameworkLoader.so:_ZN13COLLADASaxFWL14FormulasLoader10begin__expERKNS_18exp__AttributeDataE
libOpenCOLLADASaxFrameworkLoader.so:_ZN13COLLADASaxFWL14FormulasLoader10begin__gcdERKNS_18gcd__AttributeDataE
libOpenCOLLADASaxFrameworkLoader.so:_ZN13COLLADASaxFWL14FormulasLoader10begin__geqERKNS_18geq__AttributeDataE
libOpenCOLLADASaxFrameworkLoader.so:_ZN13COLLADASaxFWL14FormulasLoader10begin__intEv
libOpenCOLLADASaxFrameworkLoader.so:_ZN13COLLADASaxFWL14FormulasLoader10begin__lcmERKNS_18lcm__AttributeDataE
libOpenCOLLADASaxFrameworkLoader.so:_ZN13COLLADASaxFWL14FormulasLoader10begin__leqERKNS_18leq__AttributeDataE
libOpenCOLLADASaxFrameworkLoader.so:_ZN13COLLADASaxFWL14FormulasLoader10begin__logERKNS_18log__AttributeDataE
libOpenCOLLADASaxFrameworkLoader.so:_ZN13COLLADASaxFWL14FormulasLoader10begin__maxERKNS_19root__AttributeDataE
libOpenCOLLADASaxFrameworkLoader.so:_ZN13COLLADASaxFWL14FormulasLoader10begin__minERKNS_19root__AttributeDataE
libOpenCOLLADASaxFrameworkLoader.so:_ZN13COLLADASaxFWL14FormulasLoader10begin__neqERKNS_18neq__AttributeDataE
libOpenCOLLADASaxFrameworkLoader.so:_ZN13COLLADASaxFWL14FormulasLoader10begin__notERKNS_18not__AttributeDataE
libOpenCOLLADASaxFrameworkLoader.so:_ZN13COLLADASaxFWL14FormulasLoader10begin__remERKNS_18rem__AttributeDataE
libOpenCOLLADASaxFrameworkLoader.so:_ZN13COLLADASaxFWL14FormulasLoader10begin__secERKNS_18sec__AttributeDataE
libOpenCOLLADASaxFrameworkLoader.so:_ZN13COLLADASaxFWL14FormulasLoader10begin__sinERKNS_18sin__AttributeDataE
libOpenCOLLADASaxFrameworkLoader.so:_ZN13COLLADASaxFWL14FormulasLoader10begin__sumERKNS_18sum__AttributeDataE
libOpenCOLLADASaxFrameworkLoader.so:_ZN13COLLADASaxFWL14FormulasLoader10begin__tanERKNS_18tan__AttributeDataE
libOpenCOLLADASaxFrameworkLoader.so:_ZN13COLLADASaxFWL14FormulasLoader10begin__xorERKNS_18xor__AttributeDataE
libOpenCOLLADASaxFrameworkLoader.so:_ZN13COLLADASaxFWL14FormulasLoader10data__boolEb
libOpenCOLLADASaxFrameworkLoader.so:_ZN13COLLADASaxFWL14FormulasLoader10end__applyEv
libOpenCOLLADASaxFrameworkLoader.so:_ZN13COLLADASaxFWL14FormulasLoader10end__floatEv
libOpenCOLLADASaxFrameworkLoader.so:_ZN13COLLADASaxFWL14FormulasLoader10isFunctionENS_8OperatorE
libOpenCOLLADASaxFrameworkLoader.so:_ZN13COLLADASaxFWL14FormulasLoader11begin__boolEv
libOpenCOLLADASaxFrameworkLoader.so:_ZN13COLLADASaxFWL14FormulasLoader11begin__coshERKNS_19cosh__AttributeDataE
libOpenCOLLADASaxFrameworkLoader.so:_ZN13COLLADASaxFWL14FormulasLoader11begin__cothERKNS_19coth__AttributeDataE
libOpenCOLLADASaxFrameworkLoader.so:_ZN13COLLADASaxFWL14FormulasLoader11begin__cschERKNS_19csch__AttributeDataE
libOpenCOLLADASaxFrameworkLoader.so:_ZN13COLLADASaxFWL14FormulasLoader11begin__mathERKNS_19math__AttributeDataE
libOpenCOLLADASaxFrameworkLoader.so:_ZN13COLLADASaxFWL14FormulasLoader11begin__plusERKNS_19plus__AttributeDataE
libOpenCOLLADASaxFrameworkLoader.so:_ZN13COLLADASaxFWL14FormulasLoader11begin__rootERKNS_19root__AttributeDataE
libOpenCOLLADASaxFrameworkLoader.so:_ZN13COLLADASaxFWL14FormulasLoader11begin__sechERKNS_19sech__AttributeDataE
libOpenCOLLADASaxFrameworkLoader.so:_ZN13COLLADASaxFWL14FormulasLoader11begin__sinhERKNS_19sinh__AttributeDataE
libOpenCOLLADASaxFrameworkLoader.so:_ZN13COLLADASaxFWL14FormulasLoader11begin__tanhERKNS_19tanh__AttributeDataE
libOpenCOLLADASaxFrameworkLoader.so:_ZN13COLLADASaxFWL14FormulasLoader11begin__trueERKNS_19true__AttributeDataE
libOpenCOLLADASaxFrameworkLoader.so:_ZN13COLLADASaxFWL14FormulasLoader11data__floatEf
libOpenCOLLADASaxFrameworkLoader.so:_ZN13COLLADASaxFWL14FormulasLoader11getUniqueIdEv
libOpenCOLLADASaxFrameworkLoader.so:_ZN13COLLADASaxFWL14FormulasLoader12begin__applyERKNS_20apply__AttributeDataE
libOpenCOLLADASaxFrameworkLoader.so:_ZN13COLLADASaxFWL14FormulasLoader12begin__falseERKNS_20false__AttributeDataE
libOpenCOLLADASaxFrameworkLoader.so:_ZN13COLLADASaxFWL14FormulasLoader12begin__floatEv
libOpenCOLLADASaxFrameworkLoader.so:_ZN13COLLADASaxFWL14FormulasLoader12begin__floorERKNS_20floor__AttributeDataE
libOpenCOLLADASaxFrameworkLoader.so:_ZN13COLLADASaxFWL14FormulasLoader12begin__minusERKNS_20minus__AttributeDataE
libOpenCOLLADASaxFrameworkLoader.so:_ZN13COLLADASaxFWL14FormulasLoader12begin__powerERKNS_20power__AttributeDataE
libOpenCOLLADASaxFrameworkLoader.so:_ZN13COLLADASaxFWL14FormulasLoader12begin__timesERKNS_20times__AttributeDataE
libOpenCOLLADASaxFrameworkLoader.so:_ZN13COLLADASaxFWL14FormulasLoader12end__csymbolEv
libOpenCOLLADASaxFrameworkLoader.so:_ZN13COLLADASaxFWL14FormulasLoader12end__formulaEv
libOpenCOLLADASaxFrameworkLoader.so:_ZN13COLLADASaxFWL14FormulasLoader12end__logbaseEv
libOpenCOLLADASaxFrameworkLoader.so:_ZN13COLLADASaxFWL14FormulasLoader13appendNewNodeEPN6MathML3AST5INodeE
libOpenCOLLADASaxFrameworkLoader.so:_ZN13COLLADASaxFWL14FormulasLoader13begin__arccosERKNS_21arccos__AttributeDataE
libOpenCOLLADASaxFrameworkLoader.so:_ZN13COLLADASaxFWL14FormulasLoader13begin__arccotERKNS_21arccot__AttributeDataE
libOpenCOLLADASaxFrameworkLoader.so:_ZN13COLLADASaxFWL14FormulasLoader13begin__arccscERKNS_21arccsc__AttributeDataE
libOpenCOLLADASaxFrameworkLoader.so:_ZN13COLLADASaxFWL14FormulasLoader13begin__arcsecERKNS_21arcsec__AttributeDataE
libOpenCOLLADASaxFrameworkLoader.so:_ZN13COLLADASaxFWL14FormulasLoader13begin__arcsinERKNS_21arcsin__AttributeDataE
libOpenCOLLADASaxFrameworkLoader.so:_ZN13COLLADASaxFWL14FormulasLoader13begin__arctanERKNS_21arctan__AttributeDataE
libOpenCOLLADASaxFrameworkLoader.so:_ZN13COLLADASaxFWL14FormulasLoader13begin__divideERKNS_21divide__AttributeDataE
libOpenCOLLADASaxFrameworkLoader.so:_ZN13COLLADASaxFWL14FormulasLoader13data__csymbolEPKcm
libOpenCOLLADASaxFrameworkLoader.so:_ZN13COLLADASaxFWL14FormulasLoader13end__newparamEv
libOpenCOLLADASaxFrameworkLoader.so:_ZN13COLLADASaxFWL14FormulasLoader14begin__arccoshERKNS_22arccosh__AttributeDataE
libOpenCOLLADASaxFrameworkLoader.so:_ZN13COLLADASaxFWL14FormulasLoader14begin__arccothERKNS_22arccoth__AttributeDataE
libOpenCOLLADASaxFrameworkLoader.so:_ZN13COLLADASaxFWL14FormulasLoader14begin__arccschERKNS_22arccsch__AttributeDataE
libOpenCOLLADASaxFrameworkLoader.so:_ZN13COLLADASaxFWL14FormulasLoader14begin__arcsechERKNS_22arcsech__AttributeDataE
libOpenCOLLADASaxFrameworkLoader.so:_ZN13COLLADASaxFWL14FormulasLoader14begin__arcsinhERKNS_22arcsinh__AttributeDataE
libOpenCOLLADASaxFrameworkLoader.so:_ZN13COLLADASaxFWL14FormulasLoader14begin__arctanhERKNS_22arctanh__AttributeDataE
libOpenCOLLADASaxFrameworkLoader.so:_ZN13COLLADASaxFWL14FormulasLoader14begin__ceilingERKNS_22ceiling__AttributeDataE
libOpenCOLLADASaxFrameworkLoader.so:_ZN13COLLADASaxFWL14FormulasLoader14begin__csymbolERKNS_22csymbol__AttributeDataE
libOpenCOLLADASaxFrameworkLoader.so:_ZN13COLLADASaxFWL14FormulasLoader14begin__formulaERKNS_22formula__AttributeDataE
libOpenCOLLADASaxFrameworkLoader.so:_ZN13COLLADASaxFWL14FormulasLoader14begin__logbaseERKNS_22logbase__AttributeDataE
libOpenCOLLADASaxFrameworkLoader.so:_ZN13COLLADASaxFWL14FormulasLoader14begin__productERKNS_22product__AttributeDataE
libOpenCOLLADASaxFrameworkLoader.so:_ZN13COLLADASaxFWL14FormulasLoader14createConstantERKNSt7__cxx1112basic_stringIcSt11char_traitsIcESaIcEEE
libOpenCOLLADASaxFrameworkLoader.so:_ZN13COLLADASaxFWL14FormulasLoader15begin__newparamERKNS_36formula_newparam_type__AttributeDataE
libOpenCOLLADASaxFrameworkLoader.so:_ZN13COLLADASaxFWL14FormulasLoader15begin__quotientERKNS_23quotient__AttributeDataE
libOpenCOLLADASaxFrameworkLoader.so:_ZN13COLLADASaxFWL14FormulasLoader16begin__factorialERKNS_24factorial__AttributeDataE
libOpenCOLLADASaxFrameworkLoader.so:_ZN13COLLADASaxFWL14FormulasLoader17begin__equivalentERKNS_25equivalent__AttributeDataE
libOpenCOLLADASaxFrameworkLoader.so:_ZN13COLLADASaxFWL14FormulasLoader19begin__exponentialeERKNS_27exponentiale__AttributeDataE
libOpenCOLLADASaxFrameworkLoader.so:_ZN13COLLADASaxFWL14FormulasLoader20createLogicOperationERKSt6vectorIPN6MathML3AST5INodeESaIS5_EENS_8OperatorE
libOpenCOLLADASaxFrameworkLoader.so:_ZN13COLLADASaxFWL14FormulasLoader20createUnaryOperationERKSt6vectorIPN6MathML3AST5INodeESaIS5_EENS_8OperatorE
libOpenCOLLADASaxFrameworkLoader.so:_ZN13COLLADASaxFWL14FormulasLoader23createFunctionOperationERKSt6vectorIPN6MathML3AST5INodeESaIS5_EENS_8OperatorE
libOpenCOLLADASaxFrameworkLoader.so:_ZN13COLLADASaxFWL14FormulasLoader25createArithmeticOperationERKSt6vectorIPN6MathML3AST5INodeESaIS5_EENS_8OperatorE
libOpenCOLLADASaxFrameworkLoader.so:_ZN13COLLADASaxFWL14FormulasLoader27createMultiOperandOperationERKSt6vectorIPN6MathML3AST5INodeESaIS5_EENS_8OperatorE
libOpenCOLLADASaxFrameworkLoader.so:_ZN13COLLADASaxFWL14FormulasLoader31createBinaryComparisonOperationERKSt6vectorIPN6MathML3AST5INodeESaIS5_EENS_8OperatorE
libOpenCOLLADASaxFrameworkLoader.so:_ZN13COLLADASaxFWL14FormulasLoader34createUserDefinedFunctionOperationERKSt6vectorIPN6MathML3AST5INodeESaIS5_EE
libOpenCOLLADASaxFrameworkLoader.so:_ZN13COLLADASaxFWL14FormulasLoader7end__ciEv
libOpenCOLLADASaxFrameworkLoader.so:_ZN13COLLADASaxFWL14FormulasLoader7end__cnEv
libOpenCOLLADASaxFrameworkLoader.so:_ZN13COLLADASaxFWL14FormulasLoader8data__ciEPKcm
libOpenCOLLADASaxFrameworkLoader.so:_ZN13COLLADASaxFWL14FormulasLoader8data__cnEPKcm
libOpenCOLLADASaxFrameworkLoader.so:_ZN13COLLADASaxFWL14FormulasLoader8end__intEv
libOpenCOLLADASaxFrameworkLoader.so:_ZN13COLLADASaxFWL14FormulasLoader9begin__ciERKNS_17ci__AttributeDataE
libOpenCOLLADASaxFrameworkLoader.so:_ZN13COLLADASaxFWL14FormulasLoader9begin__cnERKNS_17cn__AttributeDataE
libOpenCOLLADASaxFrameworkLoader.so:_ZN13COLLADASaxFWL14FormulasLoader9begin__eqERKNS_17eq__AttributeDataE
libOpenCOLLADASaxFrameworkLoader.so:_ZN13COLLADASaxFWL14FormulasLoader9begin__gtERKNS_17gt__AttributeDataE
libOpenCOLLADASaxFrameworkLoader.so:_ZN13COLLADASaxFWL14FormulasLoader9begin__lnERKNS_17ln__AttributeDataE
libOpenCOLLADASaxFrameworkLoader.so:_ZN13COLLADASaxFWL14FormulasLoader9begin__ltERKNS_17lt__AttributeDataE
libOpenCOLLADASaxFrameworkLoader.so:_ZN13COLLADASaxFWL14FormulasLoader9begin__orERKNS_17or__AttributeDataE
libOpenCOLLADASaxFrameworkLoader.so:_ZN13COLLADASaxFWL14FormulasLoader9begin__piERKNS_17pi__AttributeDataE
libOpenCOLLADASaxFrameworkLoader.so:_ZN13COLLADASaxFWL14FormulasLoader9data__intEi
libOpenCOLLADASaxFrameworkLoader.so:_ZN13COLLADASaxFWL14FormulasLoader9end__boolEv
libOpenCOLLADASaxFrameworkLoader.so:_ZN13COLLADASaxFWL14FormulasLoader9end__mathEv
libOpenCOLLADASaxFrameworkLoader.so:_ZN13COLLADASaxFWL14FormulasLoaderC1Ev
libOpenCOLLADASaxFrameworkLoader.so:_ZN13COLLADASaxFWL14FormulasLoaderC2Ev
libOpenCOLLADASaxFrameworkLoader.so:_ZN13COLLADASaxFWL14FormulasLoaderD0Ev
libOpenCOLLADASaxFrameworkLoader.so:_ZN13COLLADASaxFWL14FormulasLoaderD1Ev
libOpenCOLLADASaxFrameworkLoader.so:_ZN13COLLADASaxFWL14FormulasLoaderD2Ev
libOpenCOLLADASaxFrameworkLoader.so:_ZN13COLLADASaxFWL14GeometryLoader11begin__meshEv
libOpenCOLLADASaxFrameworkLoader.so:_ZN13COLLADASaxFWL14GeometryLoader11getUniqueIdEv
libOpenCOLLADASaxFrameworkLoader.so:_ZN13COLLADASaxFWL14GeometryLoader13begin__splineERKNS_21spline__AttributeDataE
libOpenCOLLADASaxFrameworkLoader.so:_ZN13COLLADASaxFWL14GeometryLoader13end__geometryEv
libOpenCOLLADASaxFrameworkLoader.so:_ZN13COLLADASaxFWL14GeometryLoaderC1EPNS_15IFilePartLoaderE
libOpenCOLLADASaxFrameworkLoader.so:_ZN13COLLADASaxFWL14GeometryLoaderC2EPNS_15IFilePartLoaderE
libOpenCOLLADASaxFrameworkLoader.so:_ZN13COLLADASaxFWL14GeometryLoaderD0Ev
libOpenCOLLADASaxFrameworkLoader.so:_ZN13COLLADASaxFWL14GeometryLoaderD1Ev
libOpenCOLLADASaxFrameworkLoader.so:_ZN13COLLADASaxFWL14GeometryLoaderD2Ev
libOpenCOLLADASaxFrameworkLoader.so:_ZN13COLLADASaxFWL14KinematicsBindC1ENS0_9ValueTypeE
libOpenCOLLADASaxFrameworkLoader.so:_ZN13COLLADASaxFWL14KinematicsBindC1Ev
libOpenCOLLADASaxFrameworkLoader.so:_ZN13COLLADASaxFWL14KinematicsBindC2ENS0_9ValueTypeE
libOpenCOLLADASaxFrameworkLoader.so:_ZN13COLLADASaxFWL14KinematicsBindC2Ev
libOpenCOLLADASaxFrameworkLoader.so:_ZN13COLLADASaxFWL14SaxParserErrorC1ERKN18GeneratedSaxParser11ParserErrorE
libOpenCOLLADASaxFrameworkLoader.so:_ZN13COLLADASaxFWL14SaxParserErrorC2ERKN18GeneratedSaxParser11ParserErrorE
libOpenCOLLADASaxFrameworkLoader.so:_ZN13COLLADASaxFWL14SaxParserErrorD0Ev
libOpenCOLLADASaxFrameworkLoader.so:_ZN13COLLADASaxFWL14SaxParserErrorD1Ev
libOpenCOLLADASaxFrameworkLoader.so:_ZN13COLLADASaxFWL14SaxParserErrorD2Ev
libOpenCOLLADASaxFrameworkLoader.so:_ZN13COLLADASaxFWL14SplineLoader1411end__sourceEv
libOpenCOLLADASaxFrameworkLoader.so:_ZN13COLLADASaxFWL14SplineLoader1411end__splineEv
libOpenCOLLADASaxFrameworkLoader.so:_ZN13COLLADASaxFWL14SplineLoader1413begin__sourceERKN15COLLADASaxFWL1421source__AttributeDataE
libOpenCOLLADASaxFrameworkLoader.so:_ZN13COLLADASaxFWL14SplineLoader1415end__Name_arrayEv
libOpenCOLLADASaxFrameworkLoader.so:_ZN13COLLADASaxFWL14SplineLoader1416data__Name_arrayEPKN18GeneratedSaxParser12ParserStringEm
libOpenCOLLADASaxFrameworkLoader.so:_ZN13COLLADASaxFWL14SplineLoader1417begin__Name_arrayERKN15COLLADASaxFWL1425Name_array__AttributeDataE
libOpenCOLLADASaxFrameworkLoader.so:_ZN13COLLADASaxFWL14SplineLoader1421end__control_verticesEv
libOpenCOLLADASaxFrameworkLoader.so:_ZN13COLLADASaxFWL14SplineLoader1423begin__control_verticesEv
libOpenCOLLADASaxFrameworkLoader.so:_ZN13COLLADASaxFWL14SplineLoader1424end__input____InputLocalEv
libOpenCOLLADASaxFrameworkLoader.so:_ZN13COLLADASaxFWL14SplineLoader1426begin__input____InputLocalERKN15COLLADASaxFWL1434input____InputLocal__AttributeDataE
libOpenCOLLADASaxFrameworkLoader.so:_ZN13COLLADASaxFWL14parameterAngleE
libOpenCOLLADASaxFrameworkLoader.so:_ZN13COLLADASaxFWL14parameterFloatE
libOpenCOLLADASaxFrameworkLoader.so:_ZN13COLLADASaxFWL15ExtraDataLoader22base__begin__techniqueERKNS_24technique__AttributeDataERKN9COLLADAFW8UniqueIdEPNS4_6ObjectE
libOpenCOLLADASaxFrameworkLoader.so:_ZN13COLLADASaxFWL15ExtraDataLoaderC1Ev
libOpenCOLLADASaxFrameworkLoader.so:_ZN13COLLADASaxFWL15ExtraDataLoaderC2Ev
libOpenCOLLADASaxFrameworkLoader.so:_ZN13COLLADASaxFWL15ExtraDataLoaderD0Ev
libOpenCOLLADASaxFrameworkLoader.so:_ZN13COLLADASaxFWL15ExtraDataLoaderD1Ev
libOpenCOLLADASaxFrameworkLoader.so:_ZN13COLLADASaxFWL15ExtraDataLoaderD2Ev
libOpenCOLLADASaxFrameworkLoader.so:_ZN13COLLADASaxFWL15IFilePartLoader10resolveSidERKNS_10SidAddressE
libOpenCOLLADASaxFrameworkLoader.so:_ZN13COLLADASaxFWL15IFilePartLoader12addToSidTreeEPKcS2_
libOpenCOLLADASaxFrameworkLoader.so:_ZN13COLLADASaxFWL15IFilePartLoader12addToSidTreeEPKcS2_PN9COLLADAFW10AnimatableE
libOpenCOLLADASaxFrameworkLoader.so:_ZN13COLLADASaxFWL15IFilePartLoader12addToSidTreeEPKcS2_PN9COLLADAFW6ObjectE
libOpenCOLLADASaxFrameworkLoader.so:_ZN13COLLADASaxFWL15IFilePartLoader12addToSidTreeEPKcS2_PNS_22IntermediateTargetableE
libOpenCOLLADASaxFrameworkLoader.so:_ZN13COLLADASaxFWL15IFilePartLoader13setMeAsParserEv
libOpenCOLLADASaxFrameworkLoader.so:_ZN13COLLADASaxFWL15IFilePartLoader14createUniqueIdEN9COLLADAFW12COLLADA_TYPE7ClassIdE
libOpenCOLLADASaxFrameworkLoader.so:_ZN13COLLADASaxFWL15IFilePartLoader14createUniqueIdERKNSt7__cxx1112basic_stringIcSt11char_traitsIcESaIcEEEN9COLLADAFW12COLLADA_TYPE7ClassIdE
libOpenCOLLADASaxFrameworkLoader.so:_ZN13COLLADASaxFWL15IFilePartLoader14end__techniqueEv
libOpenCOLLADASaxFrameworkLoader.so:_ZN13COLLADASaxFWL15IFilePartLoader14handleFWLErrorENS_11SaxFWLError9ErrorTypeENSt7__cxx1112basic_stringIcSt11char_traitsIcESaIcEEENS_6IError8SeverityE
libOpenCOLLADASaxFrameworkLoader.so:_ZN13COLLADASaxFWL15IFilePartLoader14handleFWLErrorERKNS_11SaxFWLErrorE
libOpenCOLLADASaxFrameworkLoader.so:_ZN13COLLADASaxFWL15IFilePartLoader15getUniqueIdByIdEPKc
libOpenCOLLADASaxFrameworkLoader.so:_ZN13COLLADASaxFWL15IFilePartLoader15moveUpInSidTreeEv
libOpenCOLLADASaxFrameworkLoader.so:_ZN13COLLADASaxFWL15IFilePartLoader16begin__techniqueERKNS_24technique__AttributeDataE
libOpenCOLLADASaxFrameworkLoader.so:_ZN13COLLADASaxFWL15IFilePartLoader16getUniqueIdByUrlERKN9COLLADABU3URIEb
libOpenCOLLADASaxFrameworkLoader.so:_ZN13COLLADASaxFWL15IFilePartLoader16getUniqueIdByUrlERKNSt7__cxx1112basic_stringIcSt11char_traitsIcESaIcEEE
libOpenCOLLADASaxFrameworkLoader.so:_ZN13COLLADASaxFWL15IFilePartLoader18addMorphControllerEPN9COLLADAFW15MorphControllerE
libOpenCOLLADASaxFrameworkLoader.so:_ZN13COLLADASaxFWL15IFilePartLoader20createUniqueIdFromIdEPKcN9COLLADAFW12COLLADA_TYPE7ClassIdE
libOpenCOLLADASaxFrameworkLoader.so:_ZN13COLLADASaxFWL15IFilePartLoader20deleteFilePartLoaderEv
libOpenCOLLADASaxFrameworkLoader.so:_ZN13COLLADASaxFWL15IFilePartLoader21createUniqueIdFromUrlEPKcN9COLLADAFW12COLLADA_TYPE7ClassIdE
libOpenCOLLADASaxFrameworkLoader.so:_ZN13COLLADASaxFWL15IFilePartLoader21createUniqueIdFromUrlERKN9COLLADABU3URIEN9COLLADAFW12COLLADA_TYPE7ClassIdEb
libOpenCOLLADASaxFrameworkLoader.so:_ZN13COLLADASaxFWL15IFilePartLoader21getMeshMaterialIdInfoEv
libOpenCOLLADASaxFrameworkLoader.so:_ZN13COLLADASaxFWL15IFilePartLoader24addSkinDataJointSidsPairERKN9COLLADAFW8UniqueIdERKNSt7__cxx114listINS5_12basic_stringIcSt11char_traitsIcESaIcEEESaISB_EEEb
libOpenCOLLADASaxFrameworkLoader.so:_ZN13COLLADASaxFWL15IFilePartLoader24getTextureMapIdBySematicERKNSt7__cxx1112basic_stringIcSt11char_traitsIcESaIcEEE
libOpenCOLLADASaxFrameworkLoader.so:_ZN13COLLADASaxFWL15IFilePartLoader25addSkinDataSkinSourcePairERKN9COLLADAFW8UniqueIdERKN9COLLADABU3URIE
libOpenCOLLADASaxFrameworkLoader.so:_ZN13COLLADASaxFWL15IFilePartLoader26getAnimationListByUniqueIdERKN9COLLADAFW8UniqueIdE
libOpenCOLLADASaxFrameworkLoader.so:_ZN13COLLADASaxFWL15IFilePartLoader32addToAnimationSidAddressBindingsERKNS_13AnimationInfoERKNS_10SidAddressE
libOpenCOLLADASaxFrameworkLoader.so:_ZN13COLLADASaxFWL15IFilePartLoader49getInstanceControllerDataListByControllerUniqueIdB5cxx11ERKN9COLLADAFW8UniqueIdE
libOpenCOLLADASaxFrameworkLoader.so:_ZN13COLLADASaxFWL15IFilePartLoader6writerEv
libOpenCOLLADASaxFrameworkLoader.so:_ZN13COLLADASaxFWL15IFilePartLoaderC1Ev
libOpenCOLLADASaxFrameworkLoader.so:_ZN13COLLADASaxFWL15IFilePartLoaderC2Ev
libOpenCOLLADASaxFrameworkLoader.so:_ZN13COLLADASaxFWL15IFilePartLoaderD0Ev
libOpenCOLLADASaxFrameworkLoader.so:_ZN13COLLADASaxFWL15IFilePartLoaderD1Ev
libOpenCOLLADASaxFrameworkLoader.so:_ZN13COLLADASaxFWL15IFilePartLoaderD2Ev
libOpenCOLLADASaxFrameworkLoader.so:_ZN13COLLADASaxFWL15KinematicsModelC1ERKN9COLLADABU3URIEPKc
libOpenCOLLADASaxFrameworkLoader.so:_ZN13COLLADASaxFWL15KinematicsModelC2ERKN9COLLADABU3URIEPKc
libOpenCOLLADASaxFrameworkLoader.so:_ZN13COLLADASaxFWL15KinematicsModelD0Ev
libOpenCOLLADASaxFrameworkLoader.so:_ZN13COLLADASaxFWL15KinematicsModelD1Ev
libOpenCOLLADASaxFrameworkLoader.so:_ZN13COLLADASaxFWL15KinematicsModelD2Ev
libOpenCOLLADASaxFrameworkLoader.so:_ZN13COLLADASaxFWL15KinematicsScene28addInstanceArticulatedSystemEPNS_35KinematicsInstanceArticulatedSystemE
libOpenCOLLADASaxFrameworkLoader.so:_ZN13COLLADASaxFWL15KinematicsSceneD0Ev
libOpenCOLLADASaxFrameworkLoader.so:_ZN13COLLADASaxFWL15KinematicsSceneD1Ev
libOpenCOLLADASaxFrameworkLoader.so:_ZN13COLLADASaxFWL15KinematicsSceneD2Ev
libOpenCOLLADASaxFrameworkLoader.so:_ZN13COLLADASaxFWL16FormulasLoader1510begin__absERKN15COLLADASaxFWL1518abs__AttributeDataE
libOpenCOLLADASaxFrameworkLoader.so:_ZN13COLLADASaxFWL16FormulasLoader1510begin__andERKN15COLLADASaxFWL1518and__AttributeDataE
libOpenCOLLADASaxFrameworkLoader.so:_ZN13COLLADASaxFWL16FormulasLoader1510begin__cosERKN15COLLADASaxFWL1518cos__AttributeDataE
libOpenCOLLADASaxFrameworkLoader.so:_ZN13COLLADASaxFWL16FormulasLoader1510begin__cotERKN15COLLADASaxFWL1518cot__AttributeDataE
libOpenCOLLADASaxFrameworkLoader.so:_ZN13COLLADASaxFWL16FormulasLoader1510begin__cscERKN15COLLADASaxFWL1518csc__AttributeDataE
libOpenCOLLADASaxFrameworkLoader.so:_ZN13COLLADASaxFWL16FormulasLoader1510begin__expERKN15COLLADASaxFWL1518exp__AttributeDataE
libOpenCOLLADASaxFrameworkLoader.so:_ZN13COLLADASaxFWL16FormulasLoader1510begin__gcdERKN15COLLADASaxFWL1518gcd__AttributeDataE
libOpenCOLLADASaxFrameworkLoader.so:_ZN13COLLADASaxFWL16FormulasLoader1510begin__geqERKN15COLLADASaxFWL1518geq__AttributeDataE
libOpenCOLLADASaxFrameworkLoader.so:_ZN13COLLADASaxFWL16FormulasLoader1510begin__lcmERKN15COLLADASaxFWL1518lcm__AttributeDataE
libOpenCOLLADASaxFrameworkLoader.so:_ZN13COLLADASaxFWL16FormulasLoader1510begin__leqERKN15COLLADASaxFWL1518leq__AttributeDataE
libOpenCOLLADASaxFrameworkLoader.so:_ZN13COLLADASaxFWL16FormulasLoader1510begin__logERKN15COLLADASaxFWL1518log__AttributeDataE
libOpenCOLLADASaxFrameworkLoader.so:_ZN13COLLADASaxFWL16FormulasLoader1510begin__neqERKN15COLLADASaxFWL1518neq__AttributeDataE
libOpenCOLLADASaxFrameworkLoader.so:_ZN13COLLADASaxFWL16FormulasLoader1510begin__notERKN15COLLADASaxFWL1518not__AttributeDataE
libOpenCOLLADASaxFrameworkLoader.so:_ZN13COLLADASaxFWL16FormulasLoader1510begin__remERKN15COLLADASaxFWL1518rem__AttributeDataE
libOpenCOLLADASaxFrameworkLoader.so:_ZN13COLLADASaxFWL16FormulasLoader1510begin__secERKN15COLLADASaxFWL1518sec__AttributeDataE
libOpenCOLLADASaxFrameworkLoader.so:_ZN13COLLADASaxFWL16FormulasLoader1510begin__sepEv
libOpenCOLLADASaxFrameworkLoader.so:_ZN13COLLADASaxFWL16FormulasLoader1510begin__sinERKN15COLLADASaxFWL1518sin__AttributeDataE
libOpenCOLLADASaxFrameworkLoader.so:_ZN13COLLADASaxFWL16FormulasLoader1510begin__sumERKN15COLLADASaxFWL1518sum__AttributeDataE
libOpenCOLLADASaxFrameworkLoader.so:_ZN13COLLADASaxFWL16FormulasLoader1510begin__tanERKN15COLLADASaxFWL1518tan__AttributeDataE
libOpenCOLLADASaxFrameworkLoader.so:_ZN13COLLADASaxFWL16FormulasLoader1510begin__xorERKN15COLLADASaxFWL1518xor__AttributeDataE
libOpenCOLLADASaxFrameworkLoader.so:_ZN13COLLADASaxFWL16FormulasLoader1510data__boolEb
libOpenCOLLADASaxFrameworkLoader.so:_ZN13COLLADASaxFWL16FormulasLoader1510end__applyEv
libOpenCOLLADASaxFrameworkLoader.so:_ZN13COLLADASaxFWL16FormulasLoader1510end__falseEv
libOpenCOLLADASaxFrameworkLoader.so:_ZN13COLLADASaxFWL16FormulasLoader1510end__floorEv
libOpenCOLLADASaxFrameworkLoader.so:_ZN13COLLADASaxFWL16FormulasLoader1510end__minusEv
libOpenCOLLADASaxFrameworkLoader.so:_ZN13COLLADASaxFWL16FormulasLoader1510end__powerEv
libOpenCOLLADASaxFrameworkLoader.so:_ZN13COLLADASaxFWL16FormulasLoader1510end__timesEv
libOpenCOLLADASaxFrameworkLoader.so:_ZN13COLLADASaxFWL16FormulasLoader1511begin__boolEv
libOpenCOLLADASaxFrameworkLoader.so:_ZN13COLLADASaxFWL16FormulasLoader1511begin__coshERKN15COLLADASaxFWL1519cosh__AttributeDataE
libOpenCOLLADASaxFrameworkLoader.so:_ZN13COLLADASaxFWL16FormulasLoader1511begin__cothERKN15COLLADASaxFWL1519coth__AttributeDataE
libOpenCOLLADASaxFrameworkLoader.so:_ZN13COLLADASaxFWL16FormulasLoader1511begin__cschERKN15COLLADASaxFWL1519csch__AttributeDataE
libOpenCOLLADASaxFrameworkLoader.so:_ZN13COLLADASaxFWL16FormulasLoader1511begin__mathERKN15COLLADASaxFWL1519math__AttributeDataE
libOpenCOLLADASaxFrameworkLoader.so:_ZN13COLLADASaxFWL16FormulasLoader1511begin__plusERKN15COLLADASaxFWL1519plus__AttributeDataE
libOpenCOLLADASaxFrameworkLoader.so:_ZN13COLLADASaxFWL16FormulasLoader1511begin__rootERKN15COLLADASaxFWL1519root__AttributeDataE
libOpenCOLLADASaxFrameworkLoader.so:_ZN13COLLADASaxFWL16FormulasLoader1511begin__sechERKN15COLLADASaxFWL1519sech__AttributeDataE
libOpenCOLLADASaxFrameworkLoader.so:_ZN13COLLADASaxFWL16FormulasLoader1511begin__sinhERKN15COLLADASaxFWL1519sinh__AttributeDataE
libOpenCOLLADASaxFrameworkLoader.so:_ZN13COLLADASaxFWL16FormulasLoader1511begin__tanhERKN15COLLADASaxFWL1519tanh__AttributeDataE
libOpenCOLLADASaxFrameworkLoader.so:_ZN13COLLADASaxFWL16FormulasLoader1511begin__trueERKN15COLLADASaxFWL1519true__AttributeDataE
libOpenCOLLADASaxFrameworkLoader.so:_ZN13COLLADASaxFWL16FormulasLoader1511end__arccosEv
libOpenCOLLADASaxFrameworkLoader.so:_ZN13COLLADASaxFWL16FormulasLoader1511end__arccotEv
libOpenCOLLADASaxFrameworkLoader.so:_ZN13COLLADASaxFWL16FormulasLoader1511end__arccscEv
libOpenCOLLADASaxFrameworkLoader.so:_ZN13COLLADASaxFWL16FormulasLoader1511end__arcsecEv
libOpenCOLLADASaxFrameworkLoader.so:_ZN13COLLADASaxFWL16FormulasLoader1511end__arcsinEv
libOpenCOLLADASaxFrameworkLoader.so:_ZN13COLLADASaxFWL16FormulasLoader1511end__arctanEv
libOpenCOLLADASaxFrameworkLoader.so:_ZN13COLLADASaxFWL16FormulasLoader1511end__divideEv
libOpenCOLLADASaxFrameworkLoader.so:_ZN13COLLADASaxFWL16FormulasLoader1511end__targetEv
libOpenCOLLADASaxFrameworkLoader.so:_ZN13COLLADASaxFWL16FormulasLoader1512begin__applyERKN15COLLADASaxFWL1520apply__AttributeDataE
libOpenCOLLADASaxFrameworkLoader.so:_ZN13COLLADASaxFWL16FormulasLoader1512begin__falseERKN15COLLADASaxFWL1520false__AttributeDataE
libOpenCOLLADASaxFrameworkLoader.so:_ZN13COLLADASaxFWL16FormulasLoader1512begin__floorERKN15COLLADASaxFWL1520floor__AttributeDataE
libOpenCOLLADASaxFrameworkLoader.so:_ZN13COLLADASaxFWL16FormulasLoader1512begin__minusERKN15COLLADASaxFWL1520minus__AttributeDataE
libOpenCOLLADASaxFrameworkLoader.so:_ZN13COLLADASaxFWL16FormulasLoader1512begin__powerERKN15COLLADASaxFWL1520power__AttributeDataE
libOpenCOLLADASaxFrameworkLoader.so:_ZN13COLLADASaxFWL16FormulasLoader1512begin__timesERKN15COLLADASaxFWL1520times__AttributeDataE
libOpenCOLLADASaxFrameworkLoader.so:_ZN13COLLADASaxFWL16FormulasLoader1512end__arccoshEv
libOpenCOLLADASaxFrameworkLoader.so:_ZN13COLLADASaxFWL16FormulasLoader1512end__arccothEv
libOpenCOLLADASaxFrameworkLoader.so:_ZN13COLLADASaxFWL16FormulasLoader1512end__arccschEv
libOpenCOLLADASaxFrameworkLoader.so:_ZN13COLLADASaxFWL16FormulasLoader1512end__arcsechEv
libOpenCOLLADASaxFrameworkLoader.so:_ZN13COLLADASaxFWL16FormulasLoader1512end__arcsinhEv
libOpenCOLLADASaxFrameworkLoader.so:_ZN13COLLADASaxFWL16FormulasLoader1512end__arctanhEv
libOpenCOLLADASaxFrameworkLoader.so:_ZN13COLLADASaxFWL16FormulasLoader1512end__ceilingEv
libOpenCOLLADASaxFrameworkLoader.so:_ZN13COLLADASaxFWL16FormulasLoader1512end__csymbolEv
libOpenCOLLADASaxFrameworkLoader.so:_ZN13COLLADASaxFWL16FormulasLoader1512end__declareEv
libOpenCOLLADASaxFrameworkLoader.so:_ZN13COLLADASaxFWL16FormulasLoader1512end__formulaEv
libOpenCOLLADASaxFrameworkLoader.so:_ZN13COLLADASaxFWL16FormulasLoader1512end__logbaseEv
libOpenCOLLADASaxFrameworkLoader.so:_ZN13COLLADASaxFWL16FormulasLoader1512end__productEv
libOpenCOLLADASaxFrameworkLoader.so:_ZN13COLLADASaxFWL16FormulasLoader1513begin__arccosERKN15COLLADASaxFWL1521arccos__AttributeDataE
libOpenCOLLADASaxFrameworkLoader.so:_ZN13COLLADASaxFWL16FormulasLoader1513begin__arccotERKN15COLLADASaxFWL1521arccot__AttributeDataE
libOpenCOLLADASaxFrameworkLoader.so:_ZN13COLLADASaxFWL16FormulasLoader1513begin__arccscERKN15COLLADASaxFWL1521arccsc__AttributeDataE
libOpenCOLLADASaxFrameworkLoader.so:_ZN13COLLADASaxFWL16FormulasLoader1513begin__arcsecERKN15COLLADASaxFWL1521arcsec__AttributeDataE
libOpenCOLLADASaxFrameworkLoader.so:_ZN13COLLADASaxFWL16FormulasLoader1513begin__arcsinERKN15COLLADASaxFWL1521arcsin__AttributeDataE
libOpenCOLLADASaxFrameworkLoader.so:_ZN13COLLADASaxFWL16FormulasLoader1513begin__arctanERKN15COLLADASaxFWL1521arctan__AttributeDataE
libOpenCOLLADASaxFrameworkLoader.so:_ZN13COLLADASaxFWL16FormulasLoader1513begin__divideERKN15COLLADASaxFWL1521divide__AttributeDataE
libOpenCOLLADASaxFrameworkLoader.so:_ZN13COLLADASaxFWL16FormulasLoader1513begin__targetEv
libOpenCOLLADASaxFrameworkLoader.so:_ZN13COLLADASaxFWL16FormulasLoader1513data__csymbolEPKcm
libOpenCOLLADASaxFrameworkLoader.so:_ZN13COLLADASaxFWL16FormulasLoader1513end__quotientEv
libOpenCOLLADASaxFrameworkLoader.so:_ZN13COLLADASaxFWL16FormulasLoader1514begin__arccoshERKN15COLLADASaxFWL1522arccosh__AttributeDataE
libOpenCOLLADASaxFrameworkLoader.so:_ZN13COLLADASaxFWL16FormulasLoader1514begin__arccothERKN15COLLADASaxFWL1522arccoth__AttributeDataE
libOpenCOLLADASaxFrameworkLoader.so:_ZN13COLLADASaxFWL16FormulasLoader1514begin__arccschERKN15COLLADASaxFWL1522arccsch__AttributeDataE
libOpenCOLLADASaxFrameworkLoader.so:_ZN13COLLADASaxFWL16FormulasLoader1514begin__arcsechERKN15COLLADASaxFWL1522arcsech__AttributeDataE
libOpenCOLLADASaxFrameworkLoader.so:_ZN13COLLADASaxFWL16FormulasLoader1514begin__arcsinhERKN15COLLADASaxFWL1522arcsinh__AttributeDataE
libOpenCOLLADASaxFrameworkLoader.so:_ZN13COLLADASaxFWL16FormulasLoader1514begin__arctanhERKN15COLLADASaxFWL1522arctanh__AttributeDataE
libOpenCOLLADASaxFrameworkLoader.so:_ZN13COLLADASaxFWL16FormulasLoader1514begin__ceilingERKN15COLLADASaxFWL1522ceiling__AttributeDataE
libOpenCOLLADASaxFrameworkLoader.so:_ZN13COLLADASaxFWL16FormulasLoader1514begin__csymbolERKN15COLLADASaxFWL1522csymbol__AttributeDataE
libOpenCOLLADASaxFrameworkLoader.so:_ZN13COLLADASaxFWL16FormulasLoader1514begin__declareERKN15COLLADASaxFWL1522declare__AttributeDataE
libOpenCOLLADASaxFrameworkLoader.so:_ZN13COLLADASaxFWL16FormulasLoader1514begin__formulaERKN15COLLADASaxFWL1522formula__AttributeDataE
libOpenCOLLADASaxFrameworkLoader.so:_ZN13COLLADASaxFWL16FormulasLoader1514begin__logbaseERKN15COLLADASaxFWL1522logbase__AttributeDataE
libOpenCOLLADASaxFrameworkLoader.so:_ZN13COLLADASaxFWL16FormulasLoader1514begin__productERKN15COLLADASaxFWL1522product__AttributeDataE
libOpenCOLLADASaxFrameworkLoader.so:_ZN13COLLADASaxFWL16FormulasLoader1514end__factorialEv
libOpenCOLLADASaxFrameworkLoader.so:_ZN13COLLADASaxFWL16FormulasLoader1515begin__quotientERKN15COLLADASaxFWL1523quotient__AttributeDataE
libOpenCOLLADASaxFrameworkLoader.so:_ZN13COLLADASaxFWL16FormulasLoader1515end__equivalentEv
libOpenCOLLADASaxFrameworkLoader.so:_ZN13COLLADASaxFWL16FormulasLoader1516begin__factorialERKN15COLLADASaxFWL1524factorial__AttributeDataE
libOpenCOLLADASaxFrameworkLoader.so:_ZN13COLLADASaxFWL16FormulasLoader1517begin__equivalentERKN15COLLADASaxFWL1525equivalent__AttributeDataE
libOpenCOLLADASaxFrameworkLoader.so:_ZN13COLLADASaxFWL16FormulasLoader1517end__exponentialeEv
libOpenCOLLADASaxFrameworkLoader.so:_ZN13COLLADASaxFWL16FormulasLoader1519begin__exponentialeERKN15COLLADASaxFWL1527exponentiale__AttributeDataE
libOpenCOLLADASaxFrameworkLoader.so:_ZN13COLLADASaxFWL16FormulasLoader1520end__int____int_typeEv
libOpenCOLLADASaxFrameworkLoader.so:_ZN13COLLADASaxFWL16FormulasLoader1521data__int____int_typeEx
libOpenCOLLADASaxFrameworkLoader.so:_ZN13COLLADASaxFWL16FormulasLoader1522begin__int____int_typeEv
libOpenCOLLADASaxFrameworkLoader.so:_ZN13COLLADASaxFWL16FormulasLoader1522end__max____Arith_typeEv
libOpenCOLLADASaxFrameworkLoader.so:_ZN13COLLADASaxFWL16FormulasLoader1522end__min____Arith_typeEv
libOpenCOLLADASaxFrameworkLoader.so:_ZN13COLLADASaxFWL16FormulasLoader1524begin__max____Arith_typeERKN15COLLADASaxFWL1519root__AttributeDataE
libOpenCOLLADASaxFrameworkLoader.so:_ZN13COLLADASaxFWL16FormulasLoader1524begin__min____Arith_typeERKN15COLLADASaxFWL1519root__AttributeDataE
libOpenCOLLADASaxFrameworkLoader.so:_ZN13COLLADASaxFWL16FormulasLoader1524end__float____float_typeEv
libOpenCOLLADASaxFrameworkLoader.so:_ZN13COLLADASaxFWL16FormulasLoader1525data__float____float_typeEf
libOpenCOLLADASaxFrameworkLoader.so:_ZN13COLLADASaxFWL16FormulasLoader1526begin__float____float_typeEv
libOpenCOLLADASaxFrameworkLoader.so:_ZN13COLLADASaxFWL16FormulasLoader1531end__param____common_param_typeEv
libOpenCOLLADASaxFrameworkLoader.so:_ZN13COLLADASaxFWL16FormulasLoader1532data__param____common_param_typeEPKcm
libOpenCOLLADASaxFrameworkLoader.so:_ZN13COLLADASaxFWL16FormulasLoader1533begin__param____common_param_typeEv
libOpenCOLLADASaxFrameworkLoader.so:_ZN13COLLADASaxFWL16FormulasLoader1538end__newparam____formula_newparam_typeEv
libOpenCOLLADASaxFrameworkLoader.so:_ZN13COLLADASaxFWL16FormulasLoader1540begin__newparam____formula_newparam_typeERKN15COLLADASaxFWL1548newparam____formula_newparam_type__AttributeDataE
libOpenCOLLADASaxFrameworkLoader.so:_ZN13COLLADASaxFWL16FormulasLoader1547end__technique_common____formula_technique_typeEv
libOpenCOLLADASaxFrameworkLoader.so:_ZN13COLLADASaxFWL16FormulasLoader1549begin__technique_common____formula_technique_typeEv
libOpenCOLLADASaxFrameworkLoader.so:_ZN13COLLADASaxFWL16FormulasLoader157end__ciEv
libOpenCOLLADASaxFrameworkLoader.so:_ZN13COLLADASaxFWL16FormulasLoader157end__cnEv
libOpenCOLLADASaxFrameworkLoader.so:_ZN13COLLADASaxFWL16FormulasLoader157end__eqEv
libOpenCOLLADASaxFrameworkLoader.so:_ZN13COLLADASaxFWL16FormulasLoader157end__gtEv
libOpenCOLLADASaxFrameworkLoader.so:_ZN13COLLADASaxFWL16FormulasLoader157end__lnEv
libOpenCOLLADASaxFrameworkLoader.so:_ZN13COLLADASaxFWL16FormulasLoader157end__ltEv
libOpenCOLLADASaxFrameworkLoader.so:_ZN13COLLADASaxFWL16FormulasLoader157end__orEv
libOpenCOLLADASaxFrameworkLoader.so:_ZN13COLLADASaxFWL16FormulasLoader157end__piEv
libOpenCOLLADASaxFrameworkLoader.so:_ZN13COLLADASaxFWL16FormulasLoader158data__ciEPKcm
libOpenCOLLADASaxFrameworkLoader.so:_ZN13COLLADASaxFWL16FormulasLoader158data__cnEPKcm
libOpenCOLLADASaxFrameworkLoader.so:_ZN13COLLADASaxFWL16FormulasLoader158end__absEv
libOpenCOLLADASaxFrameworkLoader.so:_ZN13COLLADASaxFWL16FormulasLoader158end__andEv
libOpenCOLLADASaxFrameworkLoader.so:_ZN13COLLADASaxFWL16FormulasLoader158end__cosEv
libOpenCOLLADASaxFrameworkLoader.so:_ZN13COLLADASaxFWL16FormulasLoader158end__cotEv
libOpenCOLLADASaxFrameworkLoader.so:_ZN13COLLADASaxFWL16FormulasLoader158end__cscEv
libOpenCOLLADASaxFrameworkLoader.so:_ZN13COLLADASaxFWL16FormulasLoader158end__expEv
libOpenCOLLADASaxFrameworkLoader.so:_ZN13COLLADASaxFWL16FormulasLoader158end__gcdEv
libOpenCOLLADASaxFrameworkLoader.so:_ZN13COLLADASaxFWL16FormulasLoader158end__geqEv
libOpenCOLLADASaxFrameworkLoader.so:_ZN13COLLADASaxFWL16FormulasLoader158end__lcmEv
libOpenCOLLADASaxFrameworkLoader.so:_ZN13COLLADASaxFWL16FormulasLoader158end__leqEv
libOpenCOLLADASaxFrameworkLoader.so:_ZN13COLLADASaxFWL16FormulasLoader158end__logEv
libOpenCOLLADASaxFrameworkLoader.so:_ZN13COLLADASaxFWL16FormulasLoader158end__neqEv
libOpenCOLLADASaxFrameworkLoader.so:_ZN13COLLADASaxFWL16FormulasLoader158end__notEv
libOpenCOLLADASaxFrameworkLoader.so:_ZN13COLLADASaxFWL16FormulasLoader158end__remEv
libOpenCOLLADASaxFrameworkLoader.so:_ZN13COLLADASaxFWL16FormulasLoader158end__secEv
libOpenCOLLADASaxFrameworkLoader.so:_ZN13COLLADASaxFWL16FormulasLoader158end__sepEv
libOpenCOLLADASaxFrameworkLoader.so:_ZN13COLLADASaxFWL16FormulasLoader158end__sinEv
libOpenCOLLADASaxFrameworkLoader.so:_ZN13COLLADASaxFWL16FormulasLoader158end__sumEv
libOpenCOLLADASaxFrameworkLoader.so:_ZN13COLLADASaxFWL16FormulasLoader158end__tanEv
libOpenCOLLADASaxFrameworkLoader.so:_ZN13COLLADASaxFWL16FormulasLoader158end__xorEv
libOpenCOLLADASaxFrameworkLoader.so:_ZN13COLLADASaxFWL16FormulasLoader159begin__ciERKN15COLLADASaxFWL1517ci__AttributeDataE
libOpenCOLLADASaxFrameworkLoader.so:_ZN13COLLADASaxFWL16FormulasLoader159begin__cnERKN15COLLADASaxFWL1517cn__AttributeDataE
libOpenCOLLADASaxFrameworkLoader.so:_ZN13COLLADASaxFWL16FormulasLoader159begin__eqERKN15COLLADASaxFWL1517eq__AttributeDataE
libOpenCOLLADASaxFrameworkLoader.so:_ZN13COLLADASaxFWL16FormulasLoader159begin__gtERKN15COLLADASaxFWL1517gt__AttributeDataE
libOpenCOLLADASaxFrameworkLoader.so:_ZN13COLLADASaxFWL16FormulasLoader159begin__lnERKN15COLLADASaxFWL1517ln__AttributeDataE
libOpenCOLLADASaxFrameworkLoader.so:_ZN13COLLADASaxFWL16FormulasLoader159begin__ltERKN15COLLADASaxFWL1517lt__AttributeDataE
libOpenCOLLADASaxFrameworkLoader.so:_ZN13COLLADASaxFWL16FormulasLoader159begin__orERKN15COLLADASaxFWL1517or__AttributeDataE
libOpenCOLLADASaxFrameworkLoader.so:_ZN13COLLADASaxFWL16FormulasLoader159begin__piERKN15COLLADASaxFWL1517pi__AttributeDataE
libOpenCOLLADASaxFrameworkLoader.so:_ZN13COLLADASaxFWL16FormulasLoader159end__boolEv
libOpenCOLLADASaxFrameworkLoader.so:_ZN13COLLADASaxFWL16FormulasLoader159end__coshEv
libOpenCOLLADASaxFrameworkLoader.so:_ZN13COLLADASaxFWL16FormulasLoader159end__cothEv
libOpenCOLLADASaxFrameworkLoader.so:_ZN13COLLADASaxFWL16FormulasLoader159end__cschEv
libOpenCOLLADASaxFrameworkLoader.so:_ZN13COLLADASaxFWL16FormulasLoader159end__mathEv
libOpenCOLLADASaxFrameworkLoader.so:_ZN13COLLADASaxFWL16FormulasLoader159end__plusEv
libOpenCOLLADASaxFrameworkLoader.so:_ZN13COLLADASaxFWL16FormulasLoader159end__rootEv
libOpenCOLLADASaxFrameworkLoader.so:_ZN13COLLADASaxFWL16FormulasLoader159end__sechEv
libOpenCOLLADASaxFrameworkLoader.so:_ZN13COLLADASaxFWL16FormulasLoader159end__sinhEv
libOpenCOLLADASaxFrameworkLoader.so:_ZN13COLLADASaxFWL16FormulasLoader159end__tanhEv
libOpenCOLLADASaxFrameworkLoader.so:_ZN13COLLADASaxFWL16FormulasLoader159end__trueEv
libOpenCOLLADASaxFrameworkLoader.so:_ZN13COLLADASaxFWL16GeometryLoader1411begin__meshEv
libOpenCOLLADASaxFrameworkLoader.so:_ZN13COLLADASaxFWL16GeometryLoader1413begin__splineERKN15COLLADASaxFWL1421spline__AttributeDataE
libOpenCOLLADASaxFrameworkLoader.so:_ZN13COLLADASaxFWL16GeometryLoader1413end__geometryEv
libOpenCOLLADASaxFrameworkLoader.so:_ZN13COLLADASaxFWL16GeometryLoader1414end__techniqueEv
libOpenCOLLADASaxFrameworkLoader.so:_ZN13COLLADASaxFWL16GeometryLoader1416begin__techniqueERKN15COLLADASaxFWL1424technique__AttributeDataE
libOpenCOLLADASaxFrameworkLoader.so:_ZN13COLLADASaxFWL16GeometryLoader1511begin__meshEv
libOpenCOLLADASaxFrameworkLoader.so:_ZN13COLLADASaxFWL16GeometryLoader1513end__geometryEv
libOpenCOLLADASaxFrameworkLoader.so:_ZN13COLLADASaxFWL16GeometryLoader1532end__technique____technique_typeEv
libOpenCOLLADASaxFrameworkLoader.so:_ZN13COLLADASaxFWL16GeometryLoader1534begin__technique____technique_typeERKN15COLLADASaxFWL1542technique____technique_type__AttributeDataE
libOpenCOLLADASaxFrameworkLoader.so:_ZN13COLLADASaxFWL17DocumentProcessor10addFormulaEPN9COLLADAFW7FormulaE
libOpenCOLLADASaxFrameworkLoader.so:_ZN13COLLADASaxFWL17DocumentProcessor10resolveSidERKN9COLLADABU3URIERKNSt7__cxx1112basic_stringIcSt11char_traitsIcESaIcEEE
libOpenCOLLADASaxFrameworkLoader.so:_ZN13COLLADASaxFWL17DocumentProcessor10resolveSidERKNS_10SidAddressE
libOpenCOLLADASaxFrameworkLoader.so:_ZN13COLLADASaxFWL17DocumentProcessor12addToSidTreeEPKcS2_
libOpenCOLLADASaxFrameworkLoader.so:_ZN13COLLADASaxFWL17DocumentProcessor15moveUpInSidTreeEv
libOpenCOLLADASaxFrameworkLoader.so:_ZN13COLLADASaxFWL17DocumentProcessor17addValidatedJointERKNS_11SidTreeNodeERSt6vectorIPN9COLLADAFW4NodeESaIS7_EE
libOpenCOLLADASaxFrameworkLoader.so:_ZN13COLLADASaxFWL17DocumentProcessor17setCOLLADAVersionENS_14COLLADAVersionE
libOpenCOLLADASaxFrameworkLoader.so:_ZN13COLLADASaxFWL17DocumentProcessor18addKinematicsModelEPNS_15KinematicsModelE
libOpenCOLLADASaxFrameworkLoader.so:_ZN13COLLADASaxFWL17DocumentProcessor18addKinematicsSceneEPNS_15KinematicsSceneE
libOpenCOLLADASaxFrameworkLoader.so:_ZN13COLLADASaxFWL17DocumentProcessor20resolveSidInInstanceEPKNS_11SidTreeNodeERKNS_10SidAddressEm
libOpenCOLLADASaxFrameworkLoader.so:_ZN13COLLADASaxFWL17DocumentProcessor23addKinematicsControllerEPNS_20KinematicsControllerE
libOpenCOLLADASaxFrameworkLoader.so:_ZN13COLLADASaxFWL17DocumentProcessor23getKinematicsModelByUriERKN9COLLADABU3URIE
libOpenCOLLADASaxFrameworkLoader.so:_ZN13COLLADASaxFWL17DocumentProcessor23getKinematicsSceneByUriERKN9COLLADABU3URIE
libOpenCOLLADASaxFrameworkLoader.so:_ZN13COLLADASaxFWL17DocumentProcessor24addSkinDataJointSidsPairERKN9COLLADAFW8UniqueIdERKNSt7__cxx114listINS5_12basic_stringIcSt11char_traitsIcESaIcEEESaISB_EEEb
libOpenCOLLADASaxFrameworkLoader.so:_ZN13COLLADASaxFWL17DocumentProcessor25addSkinDataSkinSourcePairERKN9COLLADAFW8UniqueIdERKN9COLLADABU3URIE
libOpenCOLLADASaxFrameworkLoader.so:_ZN13COLLADASaxFWL17DocumentProcessor25findSidTreeNodeByStringIdERKNSt7__cxx1112basic_stringIcSt11char_traitsIcESaIcEEE
libOpenCOLLADASaxFrameworkLoader.so:_ZN13COLLADASaxFWL17DocumentProcessor26getAnimationListByUniqueIdERKN9COLLADAFW8UniqueIdE
libOpenCOLLADASaxFrameworkLoader.so:_ZN13COLLADASaxFWL17DocumentProcessor28createAndWriteSkinControllerERKNS_6Loader22InstanceControllerDataERKN9COLLADAFW8UniqueIdES8_
libOpenCOLLADASaxFrameworkLoader.so:_ZN13COLLADASaxFWL17DocumentProcessor28createAndWriteSkinControllerERKNS_6Loader22InstanceControllerDataERKN9COLLADAFW8UniqueIdES8_RKNSt7__cxx114listINS9_12basic_stringIcSt11char_traitsIcESaIcEEESaISF_EEEb
libOpenCOLLADASaxFrameworkLoader.so:_ZN13COLLADASaxFWL17DocumentProcessor28getKinematicsControllerByUriERKN9COLLADABU3URIE
libOpenCOLLADASaxFrameworkLoader.so:_ZN13COLLADASaxFWL17DocumentProcessor29createAndWriteSkinControllersEv
libOpenCOLLADASaxFrameworkLoader.so:_ZN13COLLADASaxFWL17DocumentProcessor32addToAnimationSidAddressBindingsERKNS_13AnimationInfoERKNS_10SidAddressE
libOpenCOLLADASaxFrameworkLoader.so:_ZN13COLLADASaxFWL17DocumentProcessor49getInstanceControllerDataListByControllerUniqueIdB5cxx11ERKN9COLLADAFW8UniqueIdE
libOpenCOLLADASaxFrameworkLoader.so:_ZN13COLLADASaxFWL17DocumentProcessor9resolveIdERKNSt7__cxx1112basic_stringIcSt11char_traitsIcESaIcEEE
libOpenCOLLADASaxFrameworkLoader.so:_ZN13COLLADASaxFWL17DocumentProcessorC1EPNS_6LoaderEPNS_21SaxParserErrorHandlerEiRi
libOpenCOLLADASaxFrameworkLoader.so:_ZN13COLLADASaxFWL17DocumentProcessorC2EPNS_6LoaderEPNS_21SaxParserErrorHandlerEiRi
libOpenCOLLADASaxFrameworkLoader.so:_ZN13COLLADASaxFWL17DocumentProcessorD0Ev
libOpenCOLLADASaxFrameworkLoader.so:_ZN13COLLADASaxFWL17DocumentProcessorD1Ev
libOpenCOLLADASaxFrameworkLoader.so:_ZN13COLLADASaxFWL17DocumentProcessorD2Ev
libOpenCOLLADASaxFrameworkLoader.so:_ZN13COLLADASaxFWL17SourceArrayLoader11beginSourceERKNS_21source__AttributeDataE
libOpenCOLLADASaxFrameworkLoader.so:_ZN13COLLADASaxFWL17SourceArrayLoader12begin__paramERKNS_20param__AttributeDataE
libOpenCOLLADASaxFrameworkLoader.so:_ZN13COLLADASaxFWL17SourceArrayLoader12clearSourcesEv
libOpenCOLLADASaxFrameworkLoader.so:_ZN13COLLADASaxFWL17SourceArrayLoader13end__accessorEv
libOpenCOLLADASaxFrameworkLoader.so:_ZN13COLLADASaxFWL17SourceArrayLoader13getSourceByIdERKNSt7__cxx1112basic_stringIcSt11char_traitsIcESaIcEEE
libOpenCOLLADASaxFrameworkLoader.so:_ZN13COLLADASaxFWL17SourceArrayLoader13setRealValuesERN9COLLADAFW18FloatOrDoubleArrayEPKNS_6SourceINS_16BaseArrayElementIfEELNS_10SourceBase8DataTypeE2EEE
libOpenCOLLADASaxFrameworkLoader.so:_ZN13COLLADASaxFWL17SourceArrayLoader14DATA_TYPE_REALE
libOpenCOLLADASaxFrameworkLoader.so:_ZN13COLLADASaxFWL17SourceArrayLoader14setSourceArrayERKN9COLLADAFW18ArrayPrimitiveTypeIPNS_10SourceBaseEEE
libOpenCOLLADASaxFrameworkLoader.so:_ZN13COLLADASaxFWL17SourceArrayLoader15begin__accessorERKNS_23accessor__AttributeDataE
libOpenCOLLADASaxFrameworkLoader.so:_ZN13COLLADASaxFWL17SourceArrayLoader16end__float_arrayEv
libOpenCOLLADASaxFrameworkLoader.so:_ZN13COLLADASaxFWL17SourceArrayLoader17data__float_arrayEPKfm
libOpenCOLLADASaxFrameworkLoader.so:_ZN13COLLADASaxFWL17SourceArrayLoader18begin__float_arrayERKNS_26float_array__AttributeDataE
libOpenCOLLADASaxFrameworkLoader.so:_ZN13COLLADASaxFWL17SourceArrayLoader24getIdFromURIFragmentTypeB5cxx11EPKc
libOpenCOLLADASaxFrameworkLoader.so:_ZN13COLLADASaxFWL17SourceArrayLoader38assignSourceValuesToFloatOrDoubleArrayEPNS_10SourceBaseERN9COLLADAFW18FloatOrDoubleArrayE
libOpenCOLLADASaxFrameworkLoader.so:_ZN13COLLADASaxFWL17SourceArrayLoader40end__animation__source__technique_commonEv
libOpenCOLLADASaxFrameworkLoader.so:_ZN13COLLADASaxFWL17SourceArrayLoader42begin__animation__source__technique_commonEv
libOpenCOLLADASaxFrameworkLoader.so:_ZN13COLLADASaxFWL17SourceArrayLoader9endSourceEv
libOpenCOLLADASaxFrameworkLoader.so:_ZN13COLLADASaxFWL17SourceArrayLoaderC1EPNS_15IFilePartLoaderE
libOpenCOLLADASaxFrameworkLoader.so:_ZN13COLLADASaxFWL17SourceArrayLoaderC2EPNS_15IFilePartLoaderE
libOpenCOLLADASaxFrameworkLoader.so:_ZN13COLLADASaxFWL17SourceArrayLoaderD0Ev
libOpenCOLLADASaxFrameworkLoader.so:_ZN13COLLADASaxFWL17SourceArrayLoaderD1Ev
libOpenCOLLADASaxFrameworkLoader.so:_ZN13COLLADASaxFWL17SourceArrayLoaderD2Ev
libOpenCOLLADASaxFrameworkLoader.so:_ZN13COLLADASaxFWL17VisualSceneLoader11getUniqueIdEv
libOpenCOLLADASaxFrameworkLoader.so:_ZN13COLLADASaxFWL17VisualSceneLoader14handleRootNodeEPN9COLLADAFW4NodeE
libOpenCOLLADASaxFrameworkLoader.so:_ZN13COLLADASaxFWL17VisualSceneLoader17end__visual_sceneEv
libOpenCOLLADASaxFrameworkLoader.so:_ZN13COLLADASaxFWL17VisualSceneLoader23end__visual_scene__nodeEv
libOpenCOLLADASaxFrameworkLoader.so:_ZN13COLLADASaxFWL17VisualSceneLoader25begin__visual_scene__nodeERKNS_19node__AttributeDataE
libOpenCOLLADASaxFrameworkLoader.so:_ZN13COLLADASaxFWL17VisualSceneLoaderC1EPNS_15IFilePartLoaderEPKc
libOpenCOLLADASaxFrameworkLoader.so:_ZN13COLLADASaxFWL17VisualSceneLoaderC2EPNS_15IFilePartLoaderEPKc
libOpenCOLLADASaxFrameworkLoader.so:_ZN13COLLADASaxFWL17VisualSceneLoaderD0Ev
libOpenCOLLADASaxFrameworkLoader.so:_ZN13COLLADASaxFWL17VisualSceneLoaderD1Ev
libOpenCOLLADASaxFrameworkLoader.so:_ZN13COLLADASaxFWL17VisualSceneLoaderD2Ev
libOpenCOLLADASaxFrameworkLoader.so:_ZN13COLLADASaxFWL17accessorAxisAngleE
libOpenCOLLADASaxFrameworkLoader.so:_ZN13COLLADASaxFWL17accessorTransformE
libOpenCOLLADASaxFrameworkLoader.so:_ZN13COLLADASaxFWL17animationClassMapE
libOpenCOLLADASaxFrameworkLoader.so:_ZN13COLLADASaxFWL18LibraryNodesLoader11begin__nodeERKNS_19node__AttributeDataE
libOpenCOLLADASaxFrameworkLoader.so:_ZN13COLLADASaxFWL18LibraryNodesLoader11getUniqueIdEv
libOpenCOLLADASaxFrameworkLoader.so:_ZN13COLLADASaxFWL18LibraryNodesLoader14handleRootNodeEPN9COLLADAFW4NodeE
libOpenCOLLADASaxFrameworkLoader.so:_ZN13COLLADASaxFWL18LibraryNodesLoader18end__library_nodesEv
libOpenCOLLADASaxFrameworkLoader.so:_ZN13COLLADASaxFWL18LibraryNodesLoader9end__nodeEv
libOpenCOLLADASaxFrameworkLoader.so:_ZN13COLLADASaxFWL18LibraryNodesLoaderC1EPNS_15IFilePartLoaderE
libOpenCOLLADASaxFrameworkLoader.so:_ZN13COLLADASaxFWL18LibraryNodesLoaderC2EPNS_15IFilePartLoaderE
libOpenCOLLADASaxFrameworkLoader.so:_ZN13COLLADASaxFWL18LibraryNodesLoaderD0Ev
libOpenCOLLADASaxFrameworkLoader.so:_ZN13COLLADASaxFWL18LibraryNodesLoaderD1Ev
libOpenCOLLADASaxFrameworkLoader.so:_ZN13COLLADASaxFWL18LibraryNodesLoaderD2Ev
libOpenCOLLADASaxFrameworkLoader.so:_ZN13COLLADASaxFWL18parameterTransformE
libOpenCOLLADASaxFrameworkLoader.so:_ZN13COLLADASaxFWL19LibraryImagesLoader10data__dataEPKhm
libOpenCOLLADASaxFrameworkLoader.so:_ZN13COLLADASaxFWL19LibraryImagesLoader10end__imageEv
libOpenCOLLADASaxFrameworkLoader.so:_ZN13COLLADASaxFWL19LibraryImagesLoader11begin__dataEv
libOpenCOLLADASaxFrameworkLoader.so:_ZN13COLLADASaxFWL19LibraryImagesLoader11getUniqueIdEv
libOpenCOLLADASaxFrameworkLoader.so:_ZN13COLLADASaxFWL19LibraryImagesLoader12begin__imageERKNS_20image__AttributeDataE
libOpenCOLLADASaxFrameworkLoader.so:_ZN13COLLADASaxFWL19LibraryImagesLoader19end__library_imagesEv
libOpenCOLLADASaxFrameworkLoader.so:_ZN13COLLADASaxFWL19LibraryImagesLoader24end__init_from____anyURIEv
libOpenCOLLADASaxFrameworkLoader.so:_ZN13COLLADASaxFWL19LibraryImagesLoader25data__init_from____anyURIEN9COLLADABU3URIE
libOpenCOLLADASaxFrameworkLoader.so:_ZN13COLLADASaxFWL19LibraryImagesLoader26begin__init_from____anyURIEv
libOpenCOLLADASaxFrameworkLoader.so:_ZN13COLLADASaxFWL19LibraryImagesLoaderC1EPNS_15IFilePartLoaderE
libOpenCOLLADASaxFrameworkLoader.so:_ZN13COLLADASaxFWL19LibraryImagesLoaderC2EPNS_15IFilePartLoaderE
libOpenCOLLADASaxFrameworkLoader.so:_ZN13COLLADASaxFWL19LibraryImagesLoaderD0Ev
libOpenCOLLADASaxFrameworkLoader.so:_ZN13COLLADASaxFWL19LibraryImagesLoaderD1Ev
libOpenCOLLADASaxFrameworkLoader.so:_ZN13COLLADASaxFWL19LibraryImagesLoaderD2Ev
libOpenCOLLADASaxFrameworkLoader.so:_ZN13COLLADASaxFWL19LibraryJointsLoader11getUniqueIdEv
libOpenCOLLADASaxFrameworkLoader.so:_ZN13COLLADASaxFWL19LibraryJointsLoader19end__library_jointsEv
libOpenCOLLADASaxFrameworkLoader.so:_ZN13COLLADASaxFWL19LibraryJointsLoaderC1EPNS_15IFilePartLoaderE
libOpenCOLLADASaxFrameworkLoader.so:_ZN13COLLADASaxFWL19LibraryJointsLoaderC2EPNS_15IFilePartLoaderE
libOpenCOLLADASaxFrameworkLoader.so:_ZN13COLLADASaxFWL19LibraryJointsLoaderD0Ev
libOpenCOLLADASaxFrameworkLoader.so:_ZN13COLLADASaxFWL19LibraryJointsLoaderD1Ev
libOpenCOLLADASaxFrameworkLoader.so:_ZN13COLLADASaxFWL19LibraryJointsLoaderD2Ev
libOpenCOLLADASaxFrameworkLoader.so:_ZN13COLLADASaxFWL19LibraryLightsLoader10end__lightEv
libOpenCOLLADASaxFrameworkLoader.so:_ZN13COLLADASaxFWL19LibraryLightsLoader11begin__spotEv
libOpenCOLLADASaxFrameworkLoader.so:_ZN13COLLADASaxFWL19LibraryLightsLoader11getUniqueIdEv
libOpenCOLLADASaxFrameworkLoader.so:_ZN13COLLADASaxFWL19LibraryLightsLoader12begin__lightERKNS_20light__AttributeDataE
libOpenCOLLADASaxFrameworkLoader.so:_ZN13COLLADASaxFWL19LibraryLightsLoader12begin__pointEv
libOpenCOLLADASaxFrameworkLoader.so:_ZN13COLLADASaxFWL19LibraryLightsLoader18begin__directionalEv
libOpenCOLLADASaxFrameworkLoader.so:_ZN13COLLADASaxFWL19LibraryLightsLoader18end__falloff_angleEv
libOpenCOLLADASaxFrameworkLoader.so:_ZN13COLLADASaxFWL19LibraryLightsLoader19data__falloff_angleEf
libOpenCOLLADASaxFrameworkLoader.so:_ZN13COLLADASaxFWL19LibraryLightsLoader19end__library_lightsEv
libOpenCOLLADASaxFrameworkLoader.so:_ZN13COLLADASaxFWL19LibraryLightsLoader20begin__falloff_angleERKNS_28falloff_angle__AttributeDataE
libOpenCOLLADASaxFrameworkLoader.so:_ZN13COLLADASaxFWL19LibraryLightsLoader21end__falloff_exponentEv
libOpenCOLLADASaxFrameworkLoader.so:_ZN13COLLADASaxFWL19LibraryLightsLoader22data__falloff_exponentEf
libOpenCOLLADASaxFrameworkLoader.so:_ZN13COLLADASaxFWL19LibraryLightsLoader23begin__falloff_exponentERKNS_31falloff_exponent__AttributeDataE
libOpenCOLLADASaxFrameworkLoader.so:_ZN13COLLADASaxFWL19LibraryLightsLoader23end__linear_attenuationEv
libOpenCOLLADASaxFrameworkLoader.so:_ZN13COLLADASaxFWL19LibraryLightsLoader24data__linear_attenuationEf
libOpenCOLLADASaxFrameworkLoader.so:_ZN13COLLADASaxFWL19LibraryLightsLoader25begin__linear_attenuationERKNS_33linear_attenuation__AttributeDataE
libOpenCOLLADASaxFrameworkLoader.so:_ZN13COLLADASaxFWL19LibraryLightsLoader25end__constant_attenuationEv
libOpenCOLLADASaxFrameworkLoader.so:_ZN13COLLADASaxFWL19LibraryLightsLoader26data__constant_attenuationEf
libOpenCOLLADASaxFrameworkLoader.so:_ZN13COLLADASaxFWL19LibraryLightsLoader26end__quadratic_attenuationEv
libOpenCOLLADASaxFrameworkLoader.so:_ZN13COLLADASaxFWL19LibraryLightsLoader27begin__constant_attenuationERKNS_35constant_attenuation__AttributeDataE
libOpenCOLLADASaxFrameworkLoader.so:_ZN13COLLADASaxFWL19LibraryLightsLoader27data__quadratic_attenuationEf
libOpenCOLLADASaxFrameworkLoader.so:_ZN13COLLADASaxFWL19LibraryLightsLoader28begin__quadratic_attenuationERKNS_36quadratic_attenuation__AttributeDataE
libOpenCOLLADASaxFrameworkLoader.so:_ZN13COLLADASaxFWL19LibraryLightsLoader30end__color____TargetableFloat3Ev
libOpenCOLLADASaxFrameworkLoader.so:_ZN13COLLADASaxFWL19LibraryLightsLoader31data__color____TargetableFloat3EPKfm
libOpenCOLLADASaxFrameworkLoader.so:_ZN13COLLADASaxFWL19LibraryLightsLoader32begin__color____TargetableFloat3ERKNS_40color____TargetableFloat3__AttributeDataE
libOpenCOLLADASaxFrameworkLoader.so:_ZN13COLLADASaxFWL19LibraryLightsLoader39begin__light__technique_common__ambientEv
libOpenCOLLADASaxFrameworkLoader.so:_ZN13COLLADASaxFWL19LibraryLightsLoaderC1EPNS_15IFilePartLoaderE
libOpenCOLLADASaxFrameworkLoader.so:_ZN13COLLADASaxFWL19LibraryLightsLoaderC2EPNS_15IFilePartLoaderE
libOpenCOLLADASaxFrameworkLoader.so:_ZN13COLLADASaxFWL19LibraryLightsLoaderD0Ev
libOpenCOLLADASaxFrameworkLoader.so:_ZN13COLLADASaxFWL19LibraryLightsLoaderD1Ev
libOpenCOLLADASaxFrameworkLoader.so:_ZN13COLLADASaxFWL19LibraryLightsLoaderD2Ev
libOpenCOLLADASaxFrameworkLoader.so:_ZN13COLLADASaxFWL19SourceArrayLoader1410end__paramEv
libOpenCOLLADASaxFrameworkLoader.so:_ZN13COLLADASaxFWL19SourceArrayLoader1411data__paramEPKcm
libOpenCOLLADASaxFrameworkLoader.so:_ZN13COLLADASaxFWL19SourceArrayLoader1412begin__paramERKN15COLLADASaxFWL1420param__AttributeDataE
libOpenCOLLADASaxFrameworkLoader.so:_ZN13COLLADASaxFWL19SourceArrayLoader1413end__accessorEv
libOpenCOLLADASaxFrameworkLoader.so:_ZN13COLLADASaxFWL19SourceArrayLoader1414end__techniqueEv
libOpenCOLLADASaxFrameworkLoader.so:_ZN13COLLADASaxFWL19SourceArrayLoader1415begin__accessorERKN15COLLADASaxFWL1423accessor__AttributeDataE
libOpenCOLLADASaxFrameworkLoader.so:_ZN13COLLADASaxFWL19SourceArrayLoader1416begin__techniqueERKN15COLLADASaxFWL1424technique__AttributeDataE
libOpenCOLLADASaxFrameworkLoader.so:_ZN13COLLADASaxFWL19SourceArrayLoader1416end__float_arrayEv
libOpenCOLLADASaxFrameworkLoader.so:_ZN13COLLADASaxFWL19SourceArrayLoader1417data__float_arrayEPKfm
libOpenCOLLADASaxFrameworkLoader.so:_ZN13COLLADASaxFWL19SourceArrayLoader1418begin__float_arrayERKN15COLLADASaxFWL1426float_array__AttributeDataE
libOpenCOLLADASaxFrameworkLoader.so:_ZN13COLLADASaxFWL19SourceArrayLoader1440end__animation__source__technique_commonEv
libOpenCOLLADASaxFrameworkLoader.so:_ZN13COLLADASaxFWL19SourceArrayLoader1442begin__animation__source__technique_commonEv
libOpenCOLLADASaxFrameworkLoader.so:_ZN13COLLADASaxFWL19SourceArrayLoader1513end__accessorEv
libOpenCOLLADASaxFrameworkLoader.so:_ZN13COLLADASaxFWL19SourceArrayLoader1515begin__accessorERKN15COLLADASaxFWL1523accessor__AttributeDataE
libOpenCOLLADASaxFrameworkLoader.so:_ZN13COLLADASaxFWL19SourceArrayLoader1516end__float_arrayEv
libOpenCOLLADASaxFrameworkLoader.so:_ZN13COLLADASaxFWL19SourceArrayLoader1517data__float_arrayEPKfm
libOpenCOLLADASaxFrameworkLoader.so:_ZN13COLLADASaxFWL19SourceArrayLoader1518begin__float_arrayERKN15COLLADASaxFWL1526float_array__AttributeDataE
libOpenCOLLADASaxFrameworkLoader.so:_ZN13COLLADASaxFWL19SourceArrayLoader1524end__param____param_typeEv
libOpenCOLLADASaxFrameworkLoader.so:_ZN13COLLADASaxFWL19SourceArrayLoader1525data__param____param_typeEPKcm
libOpenCOLLADASaxFrameworkLoader.so:_ZN13COLLADASaxFWL19SourceArrayLoader1526begin__param____param_typeERKN15COLLADASaxFWL1534param____param_type__AttributeDataE
libOpenCOLLADASaxFrameworkLoader.so:_ZN13COLLADASaxFWL19SourceArrayLoader1532end__technique____technique_typeEv
libOpenCOLLADASaxFrameworkLoader.so:_ZN13COLLADASaxFWL19SourceArrayLoader1534begin__technique____technique_typeERKN15COLLADASaxFWL1542technique____technique_type__AttributeDataE
libOpenCOLLADASaxFrameworkLoader.so:_ZN13COLLADASaxFWL19SourceArrayLoader1536end__source_type____technique_commonEv
libOpenCOLLADASaxFrameworkLoader.so:_ZN13COLLADASaxFWL19SourceArrayLoader1538begin__source_type____technique_commonEv
libOpenCOLLADASaxFrameworkLoader.so:_ZN13COLLADASaxFWL19VisualSceneLoader1411begin__nodeERKN15COLLADASaxFWL1419node__AttributeDataE
libOpenCOLLADASaxFrameworkLoader.so:_ZN13COLLADASaxFWL19VisualSceneLoader1414end__techniqueEv
libOpenCOLLADASaxFrameworkLoader.so:_ZN13COLLADASaxFWL19VisualSceneLoader1416begin__techniqueERKN15COLLADASaxFWL1424technique__AttributeDataE
libOpenCOLLADASaxFrameworkLoader.so:_ZN13COLLADASaxFWL19VisualSceneLoader1417end__visual_sceneEv
libOpenCOLLADASaxFrameworkLoader.so:_ZN13COLLADASaxFWL19VisualSceneLoader149end__nodeEv
libOpenCOLLADASaxFrameworkLoader.so:_ZN13COLLADASaxFWL19VisualSceneLoader1511begin__nodeERKN15COLLADASaxFWL1519node__AttributeDataE
libOpenCOLLADASaxFrameworkLoader.so:_ZN13COLLADASaxFWL19VisualSceneLoader1517end__visual_sceneEv
libOpenCOLLADASaxFrameworkLoader.so:_ZN13COLLADASaxFWL19VisualSceneLoader1532end__technique____technique_typeEv
libOpenCOLLADASaxFrameworkLoader.so:_ZN13COLLADASaxFWL19VisualSceneLoader1534begin__technique____technique_typeERKN15COLLADASaxFWL1542technique____technique_type__AttributeDataE
libOpenCOLLADASaxFrameworkLoader.so:_ZN13COLLADASaxFWL19VisualSceneLoader159end__nodeEv
libOpenCOLLADASaxFrameworkLoader.so:_ZN13COLLADASaxFWL20LibraryCamerasLoader10data__xfovEf
libOpenCOLLADASaxFrameworkLoader.so:_ZN13COLLADASaxFWL20LibraryCamerasLoader10data__xmagEf
libOpenCOLLADASaxFrameworkLoader.so:_ZN13COLLADASaxFWL20LibraryCamerasLoader10data__yfovEf
libOpenCOLLADASaxFrameworkLoader.so:_ZN13COLLADASaxFWL20LibraryCamerasLoader10data__ymagEf
libOpenCOLLADASaxFrameworkLoader.so:_ZN13COLLADASaxFWL20LibraryCamerasLoader10data__zfarEf
libOpenCOLLADASaxFrameworkLoader.so:_ZN13COLLADASaxFWL20LibraryCamerasLoader10end__znearEv
libOpenCOLLADASaxFrameworkLoader.so:_ZN13COLLADASaxFWL20LibraryCamerasLoader11begin__xfovERKNS_19xfov__AttributeDataE
libOpenCOLLADASaxFrameworkLoader.so:_ZN13COLLADASaxFWL20LibraryCamerasLoader11begin__xmagERKNS_19xmag__AttributeDataE
libOpenCOLLADASaxFrameworkLoader.so:_ZN13COLLADASaxFWL20LibraryCamerasLoader11begin__yfovERKNS_19yfov__AttributeDataE
libOpenCOLLADASaxFrameworkLoader.so:_ZN13COLLADASaxFWL20LibraryCamerasLoader11begin__ymagERKNS_19ymag__AttributeDataE
libOpenCOLLADASaxFrameworkLoader.so:_ZN13COLLADASaxFWL20LibraryCamerasLoader11begin__zfarERKNS_19zfar__AttributeDataE
libOpenCOLLADASaxFrameworkLoader.so:_ZN13COLLADASaxFWL20LibraryCamerasLoader11data__znearEf
libOpenCOLLADASaxFrameworkLoader.so:_ZN13COLLADASaxFWL20LibraryCamerasLoader11end__cameraEv
libOpenCOLLADASaxFrameworkLoader.so:_ZN13COLLADASaxFWL20LibraryCamerasLoader11getUniqueIdEv
libOpenCOLLADASaxFrameworkLoader.so:_ZN13COLLADASaxFWL20LibraryCamerasLoader12begin__znearERKNS_20znear__AttributeDataE
libOpenCOLLADASaxFrameworkLoader.so:_ZN13COLLADASaxFWL20LibraryCamerasLoader13begin__cameraERKNS_21camera__AttributeDataE
libOpenCOLLADASaxFrameworkLoader.so:_ZN13COLLADASaxFWL20LibraryCamerasLoader17end__aspect_ratioEv
libOpenCOLLADASaxFrameworkLoader.so:_ZN13COLLADASaxFWL20LibraryCamerasLoader18begin__perspectiveEv
libOpenCOLLADASaxFrameworkLoader.so:_ZN13COLLADASaxFWL20LibraryCamerasLoader18data__aspect_ratioEf
libOpenCOLLADASaxFrameworkLoader.so:_ZN13COLLADASaxFWL20LibraryCamerasLoader18resetCurrentValuesEv
libOpenCOLLADASaxFrameworkLoader.so:_ZN13COLLADASaxFWL20LibraryCamerasLoader19begin__aspect_ratioERKNS_27aspect_ratio__AttributeDataE
libOpenCOLLADASaxFrameworkLoader.so:_ZN13COLLADASaxFWL20LibraryCamerasLoader19begin__orthographicEv
libOpenCOLLADASaxFrameworkLoader.so:_ZN13COLLADASaxFWL20LibraryCamerasLoader20end__library_camerasEv
libOpenCOLLADASaxFrameworkLoader.so:_ZN13COLLADASaxFWL20LibraryCamerasLoader9end__xfovEv
libOpenCOLLADASaxFrameworkLoader.so:_ZN13COLLADASaxFWL20LibraryCamerasLoader9end__xmagEv
libOpenCOLLADASaxFrameworkLoader.so:_ZN13COLLADASaxFWL20LibraryCamerasLoader9end__yfovEv
libOpenCOLLADASaxFrameworkLoader.so:_ZN13COLLADASaxFWL20LibraryCamerasLoader9end__ymagEv
libOpenCOLLADASaxFrameworkLoader.so:_ZN13COLLADASaxFWL20LibraryCamerasLoader9end__zfarEv
libOpenCOLLADASaxFrameworkLoader.so:_ZN13COLLADASaxFWL20LibraryCamerasLoaderC1EPNS_15IFilePartLoaderE
libOpenCOLLADASaxFrameworkLoader.so:_ZN13COLLADASaxFWL20LibraryCamerasLoaderC2EPNS_15IFilePartLoaderE
libOpenCOLLADASaxFrameworkLoader.so:_ZN13COLLADASaxFWL20LibraryCamerasLoaderD0Ev
libOpenCOLLADASaxFrameworkLoader.so:_ZN13COLLADASaxFWL20LibraryCamerasLoaderD1Ev
libOpenCOLLADASaxFrameworkLoader.so:_ZN13COLLADASaxFWL20LibraryCamerasLoaderD2Ev
libOpenCOLLADASaxFrameworkLoader.so:_ZN13COLLADASaxFWL20LibraryEffectsLoader11end__effectEv
libOpenCOLLADASaxFrameworkLoader.so:_ZN13COLLADASaxFWL20LibraryEffectsLoader11getUniqueIdEv
libOpenCOLLADASaxFrameworkLoader.so:_ZN13COLLADASaxFWL20LibraryEffectsLoader12begin__blinnEv
libOpenCOLLADASaxFrameworkLoader.so:_ZN13COLLADASaxFWL20LibraryEffectsLoader12begin__phongEv
libOpenCOLLADASaxFrameworkLoader.so:_ZN13COLLADASaxFWL20LibraryEffectsLoader12end__diffuseEv
libOpenCOLLADASaxFrameworkLoader.so:_ZN13COLLADASaxFWL20LibraryEffectsLoader12end__textureEv
libOpenCOLLADASaxFrameworkLoader.so:_ZN13COLLADASaxFWL20LibraryEffectsLoader13begin__effectERKNS_21effect__AttributeDataE
libOpenCOLLADASaxFrameworkLoader.so:_ZN13COLLADASaxFWL20LibraryEffectsLoader13end__emissionEv
libOpenCOLLADASaxFrameworkLoader.so:_ZN13COLLADASaxFWL20LibraryEffectsLoader13end__specularEv
libOpenCOLLADASaxFrameworkLoader.so:_ZN13COLLADASaxFWL20LibraryEffectsLoader13handleTextureERKNS_22texture__AttributeDataE
libOpenCOLLADASaxFrameworkLoader.so:_ZN13COLLADASaxFWL20LibraryEffectsLoader14begin__diffuseEv
libOpenCOLLADASaxFrameworkLoader.so:_ZN13COLLADASaxFWL20LibraryEffectsLoader14begin__lambertEv
libOpenCOLLADASaxFrameworkLoader.so:_ZN13COLLADASaxFWL20LibraryEffectsLoader14begin__textureERKNS_22texture__AttributeDataE
libOpenCOLLADASaxFrameworkLoader.so:_ZN13COLLADASaxFWL20LibraryEffectsLoader14end__shininessEv
libOpenCOLLADASaxFrameworkLoader.so:_ZN13COLLADASaxFWL20LibraryEffectsLoader15begin__emissionEv
libOpenCOLLADASaxFrameworkLoader.so:_ZN13COLLADASaxFWL20LibraryEffectsLoader15begin__specularEv
libOpenCOLLADASaxFrameworkLoader.so:_ZN13COLLADASaxFWL20LibraryEffectsLoader15data__minfilterENS_30ENUM__fx_sampler_filter_commonE
libOpenCOLLADASaxFrameworkLoader.so:_ZN13COLLADASaxFWL20LibraryEffectsLoader15end__reflectiveEv
libOpenCOLLADASaxFrameworkLoader.so:_ZN13COLLADASaxFWL20LibraryEffectsLoader15handleColorDataEPKfm
libOpenCOLLADASaxFrameworkLoader.so:_ZN13COLLADASaxFWL20LibraryEffectsLoader15handleColorDataEPKfmRN9COLLADAFW5ColorE
libOpenCOLLADASaxFrameworkLoader.so:_ZN13COLLADASaxFWL20LibraryEffectsLoader16begin__shininessEv
libOpenCOLLADASaxFrameworkLoader.so:_ZN13COLLADASaxFWL20LibraryEffectsLoader16calculateOpacityEv
libOpenCOLLADASaxFrameworkLoader.so:_ZN13COLLADASaxFWL20LibraryEffectsLoader16end__transparentEv
libOpenCOLLADASaxFrameworkLoader.so:_ZN13COLLADASaxFWL20LibraryEffectsLoader16fillSamplerArrayEv
libOpenCOLLADASaxFrameworkLoader.so:_ZN13COLLADASaxFWL20LibraryEffectsLoader17begin__reflectiveEv
libOpenCOLLADASaxFrameworkLoader.so:_ZN13COLLADASaxFWL20LibraryEffectsLoader17end__reflectivityEv
libOpenCOLLADASaxFrameworkLoader.so:_ZN13COLLADASaxFWL20LibraryEffectsLoader17end__transparencyEv
libOpenCOLLADASaxFrameworkLoader.so:_ZN13COLLADASaxFWL20LibraryEffectsLoader18begin__transparentERKNS_26transparent__AttributeDataE
libOpenCOLLADASaxFrameworkLoader.so:_ZN13COLLADASaxFWL20LibraryEffectsLoader18calculateLuminanceERKN9COLLADAFW5ColorE
libOpenCOLLADASaxFrameworkLoader.so:_ZN13COLLADASaxFWL20LibraryEffectsLoader19begin__reflectivityEv
libOpenCOLLADASaxFrameworkLoader.so:_ZN13COLLADASaxFWL20LibraryEffectsLoader19begin__transparencyEv
libOpenCOLLADASaxFrameworkLoader.so:_ZN13COLLADASaxFWL20LibraryEffectsLoader19end__profile_COMMONEv
libOpenCOLLADASaxFrameworkLoader.so:_ZN13COLLADASaxFWL20LibraryEffectsLoader20end__library_effectsEv
libOpenCOLLADASaxFrameworkLoader.so:_ZN13COLLADASaxFWL20LibraryEffectsLoader21begin__instance_imageERKNS_29instance_image__AttributeDataE
libOpenCOLLADASaxFrameworkLoader.so:_ZN13COLLADASaxFWL20LibraryEffectsLoader21begin__profile_COMMONERKNS_29profile_COMMON__AttributeDataE
libOpenCOLLADASaxFrameworkLoader.so:_ZN13COLLADASaxFWL20LibraryEffectsLoader22data__source____NCNameEPKcm
libOpenCOLLADASaxFrameworkLoader.so:_ZN13COLLADASaxFWL20LibraryEffectsLoader24end__index_of_refractionEv
libOpenCOLLADASaxFrameworkLoader.so:_ZN13COLLADASaxFWL20LibraryEffectsLoader24getCurrentColorOrTextureEb
libOpenCOLLADASaxFrameworkLoader.so:_ZN13COLLADASaxFWL20LibraryEffectsLoader25handleExtraEffectTexturesERKN9COLLADAFW12PointerArrayINS1_17TextureAttributesEEE
libOpenCOLLADASaxFrameworkLoader.so:_ZN13COLLADASaxFWL20LibraryEffectsLoader25setCommonEffectShaderTypeEN9COLLADAFW12EffectCommon10ShaderTypeE
libOpenCOLLADASaxFrameworkLoader.so:_ZN13COLLADASaxFWL20LibraryEffectsLoader26begin__index_of_refractionEv
libOpenCOLLADASaxFrameworkLoader.so:_ZN13COLLADASaxFWL20LibraryEffectsLoader30begin__newparam____cg_newparamERKNS_38newparam____cg_newparam__AttributeDataE
libOpenCOLLADASaxFrameworkLoader.so:_ZN13COLLADASaxFWL20LibraryEffectsLoader30end__profile_COMMON__techniqueEv
libOpenCOLLADASaxFrameworkLoader.so:_ZN13COLLADASaxFWL20LibraryEffectsLoader32begin__profile_COMMON__techniqueERKNS_40profile_COMMON__technique__AttributeDataE
libOpenCOLLADASaxFrameworkLoader.so:_ZN13COLLADASaxFWL20LibraryEffectsLoader33end__surface____fx_surface_commonEv
libOpenCOLLADASaxFrameworkLoader.so:_ZN13COLLADASaxFWL20LibraryEffectsLoader35begin__surface____fx_surface_commonERKNS_43surface____fx_surface_common__AttributeDataE
libOpenCOLLADASaxFrameworkLoader.so:_ZN13COLLADASaxFWL20LibraryEffectsLoader35end__newparam____fx_newparam_commonEv
libOpenCOLLADASaxFrameworkLoader.so:_ZN13COLLADASaxFWL20LibraryEffectsLoader37begin__newparam____fx_newparam_commonERKNS_45newparam____fx_newparam_common__AttributeDataE
libOpenCOLLADASaxFrameworkLoader.so:_ZN13COLLADASaxFWL20LibraryEffectsLoader37end__newparam____common_newparam_typeEv
libOpenCOLLADASaxFrameworkLoader.so:_ZN13COLLADASaxFWL20LibraryEffectsLoader37end__sampler2D____fx_sampler2D_commonEv
libOpenCOLLADASaxFrameworkLoader.so:_ZN13COLLADASaxFWL20LibraryEffectsLoader38data__wrap_s____fx_sampler_wrap_commonENS_28ENUM__fx_sampler_wrap_commonE
libOpenCOLLADASaxFrameworkLoader.so:_ZN13COLLADASaxFWL20LibraryEffectsLoader38data__wrap_t____fx_sampler_wrap_commonENS_28ENUM__fx_sampler_wrap_commonE
libOpenCOLLADASaxFrameworkLoader.so:_ZN13COLLADASaxFWL20LibraryEffectsLoader39begin__newparam____common_newparam_typeERKNS_47newparam____common_newparam_type__AttributeDataE
libOpenCOLLADASaxFrameworkLoader.so:_ZN13COLLADASaxFWL20LibraryEffectsLoader39begin__sampler2D____fx_sampler2D_commonEv
libOpenCOLLADASaxFrameworkLoader.so:_ZN13COLLADASaxFWL20LibraryEffectsLoader40end__common_float_or_param_type____floatEv
libOpenCOLLADASaxFrameworkLoader.so:_ZN13COLLADASaxFWL20LibraryEffectsLoader41data__common_float_or_param_type____floatEf
libOpenCOLLADASaxFrameworkLoader.so:_ZN13COLLADASaxFWL20LibraryEffectsLoader42begin__common_float_or_param_type____floatERKNS_50common_float_or_param_type____float__AttributeDataE
libOpenCOLLADASaxFrameworkLoader.so:_ZN13COLLADASaxFWL20LibraryEffectsLoader42begin__profile_COMMON__technique__constantEv
libOpenCOLLADASaxFrameworkLoader.so:_ZN13COLLADASaxFWL20LibraryEffectsLoader42end__common_color_or_texture_type____colorEv
libOpenCOLLADASaxFrameworkLoader.so:_ZN13COLLADASaxFWL20LibraryEffectsLoader43data__common_color_or_texture_type____colorEPKfm
libOpenCOLLADASaxFrameworkLoader.so:_ZN13COLLADASaxFWL20LibraryEffectsLoader44begin__common_color_or_texture_type____colorERKNS_52common_color_or_texture_type____color__AttributeDataE
libOpenCOLLADASaxFrameworkLoader.so:_ZN13COLLADASaxFWL20LibraryEffectsLoader44end__ambient____common_color_or_texture_typeEv
libOpenCOLLADASaxFrameworkLoader.so:_ZN13COLLADASaxFWL20LibraryEffectsLoader45end__init_from____fx_surface_init_from_commonEv
libOpenCOLLADASaxFrameworkLoader.so:_ZN13COLLADASaxFWL20LibraryEffectsLoader46begin__ambient____common_color_or_texture_typeEv
libOpenCOLLADASaxFrameworkLoader.so:_ZN13COLLADASaxFWL20LibraryEffectsLoader46data__init_from____fx_surface_init_from_commonEPKcm
libOpenCOLLADASaxFrameworkLoader.so:_ZN13COLLADASaxFWL20LibraryEffectsLoader47begin__init_from____fx_surface_init_from_commonERKNS_55init_from____fx_surface_init_from_common__AttributeDataE
libOpenCOLLADASaxFrameworkLoader.so:_ZN13COLLADASaxFWL20LibraryEffectsLoader9getObjectEv
libOpenCOLLADASaxFrameworkLoader.so:_ZN13COLLADASaxFWL20LibraryEffectsLoaderC1EPNS_15IFilePartLoaderE
libOpenCOLLADASaxFrameworkLoader.so:_ZN13COLLADASaxFWL20LibraryEffectsLoaderC2EPNS_15IFilePartLoaderE
libOpenCOLLADASaxFrameworkLoader.so:_ZN13COLLADASaxFWL20LibraryEffectsLoaderD0Ev
libOpenCOLLADASaxFrameworkLoader.so:_ZN13COLLADASaxFWL20LibraryEffectsLoaderD1Ev
libOpenCOLLADASaxFrameworkLoader.so:_ZN13COLLADASaxFWL20LibraryEffectsLoaderD2Ev
libOpenCOLLADASaxFrameworkLoader.so:_ZN13COLLADASaxFWL20LibraryNodesLoader1411begin__nodeERKN15COLLADASaxFWL1419node__AttributeDataE
libOpenCOLLADASaxFrameworkLoader.so:_ZN13COLLADASaxFWL20LibraryNodesLoader1414end__techniqueEv
libOpenCOLLADASaxFrameworkLoader.so:_ZN13COLLADASaxFWL20LibraryNodesLoader1416begin__techniqueERKN15COLLADASaxFWL1424technique__AttributeDataE
libOpenCOLLADASaxFrameworkLoader.so:_ZN13COLLADASaxFWL20LibraryNodesLoader1418end__library_nodesEv
libOpenCOLLADASaxFrameworkLoader.so:_ZN13COLLADASaxFWL20LibraryNodesLoader149end__nodeEv
libOpenCOLLADASaxFrameworkLoader.so:_ZN13COLLADASaxFWL20LibraryNodesLoader1511begin__nodeERKN15COLLADASaxFWL1519node__AttributeDataE
libOpenCOLLADASaxFrameworkLoader.so:_ZN13COLLADASaxFWL20LibraryNodesLoader1518end__library_nodesEv
libOpenCOLLADASaxFrameworkLoader.so:_ZN13COLLADASaxFWL20LibraryNodesLoader1532end__technique____technique_typeEv
libOpenCOLLADASaxFrameworkLoader.so:_ZN13COLLADASaxFWL20LibraryNodesLoader1534begin__technique____technique_typeERKN15COLLADASaxFWL1542technique____technique_type__AttributeDataE
libOpenCOLLADASaxFrameworkLoader.so:_ZN13COLLADASaxFWL20LibraryNodesLoader159end__nodeEv
libOpenCOLLADASaxFrameworkLoader.so:_ZN13COLLADASaxFWL20TransformationLoader10dataLookatEPKfm
libOpenCOLLADASaxFrameworkLoader.so:_ZN13COLLADASaxFWL20TransformationLoader10dataMatrixEPKfm
libOpenCOLLADASaxFrameworkLoader.so:_ZN13COLLADASaxFWL20TransformationLoader10dataRotateEPKfm
libOpenCOLLADASaxFrameworkLoader.so:_ZN13COLLADASaxFWL20TransformationLoader13dataTranslateEPKfm
libOpenCOLLADASaxFrameworkLoader.so:_ZN13COLLADASaxFWL20TransformationLoader17endTransformationEv
libOpenCOLLADASaxFrameworkLoader.so:_ZN13COLLADASaxFWL20TransformationLoader8dataSkewEPKfm
libOpenCOLLADASaxFrameworkLoader.so:_ZN13COLLADASaxFWL20TransformationLoader9dataScaleEPKfm
libOpenCOLLADASaxFrameworkLoader.so:_ZN13COLLADASaxFWL20TransformationLoaderC1Ev
libOpenCOLLADASaxFrameworkLoader.so:_ZN13COLLADASaxFWL20TransformationLoaderC2Ev
libOpenCOLLADASaxFrameworkLoader.so:_ZN13COLLADASaxFWL20TransformationLoaderD0Ev
libOpenCOLLADASaxFrameworkLoader.so:_ZN13COLLADASaxFWL20TransformationLoaderD1Ev
libOpenCOLLADASaxFrameworkLoader.so:_ZN13COLLADASaxFWL20TransformationLoaderD2Ev
libOpenCOLLADASaxFrameworkLoader.so:_ZN13COLLADASaxFWL20XMLPARSER_BUFFERSIZEE
libOpenCOLLADASaxFrameworkLoader.so:_ZN13COLLADASaxFWL21COLLADA_ASSET_PAIR_14E
libOpenCOLLADASaxFrameworkLoader.so:_ZN13COLLADASaxFWL21COLLADA_ASSET_PAIR_15E
libOpenCOLLADASaxFrameworkLoader.so:_ZN13COLLADASaxFWL21COLLADA_SCENE_PAIR_14E
libOpenCOLLADASaxFrameworkLoader.so:_ZN13COLLADASaxFWL21COLLADA_SCENE_PAIR_15E
libOpenCOLLADASaxFrameworkLoader.so:_ZN13COLLADASaxFWL21LibraryFormulasLoader21end__library_formulasEv
libOpenCOLLADASaxFrameworkLoader.so:_ZN13COLLADASaxFWL21LibraryFormulasLoaderC1EPNS_15IFilePartLoaderE
libOpenCOLLADASaxFrameworkLoader.so:_ZN13COLLADASaxFWL21LibraryFormulasLoaderC2EPNS_15IFilePartLoaderE
libOpenCOLLADASaxFrameworkLoader.so:_ZN13COLLADASaxFWL21LibraryFormulasLoaderD0Ev
libOpenCOLLADASaxFrameworkLoader.so:_ZN13COLLADASaxFWL21LibraryFormulasLoaderD1Ev
libOpenCOLLADASaxFrameworkLoader.so:_ZN13COLLADASaxFWL21LibraryFormulasLoaderD2Ev
libOpenCOLLADASaxFrameworkLoader.so:_ZN13COLLADASaxFWL21LibraryImagesLoader1410data__dataEPKhm
libOpenCOLLADASaxFrameworkLoader.so:_ZN13COLLADASaxFWL21LibraryImagesLoader1410end__imageEv
libOpenCOLLADASaxFrameworkLoader.so:_ZN13COLLADASaxFWL21LibraryImagesLoader1411begin__dataEv
libOpenCOLLADASaxFrameworkLoader.so:_ZN13COLLADASaxFWL21LibraryImagesLoader1412begin__imageERKN15COLLADASaxFWL1420image__AttributeDataE
libOpenCOLLADASaxFrameworkLoader.so:_ZN13COLLADASaxFWL21LibraryImagesLoader1414end__techniqueEv
libOpenCOLLADASaxFrameworkLoader.so:_ZN13COLLADASaxFWL21LibraryImagesLoader1416begin__techniqueERKN15COLLADASaxFWL1424technique__AttributeDataE
libOpenCOLLADASaxFrameworkLoader.so:_ZN13COLLADASaxFWL21LibraryImagesLoader1419end__library_imagesEv
libOpenCOLLADASaxFrameworkLoader.so:_ZN13COLLADASaxFWL21LibraryImagesLoader1424end__init_from____anyURIEv
libOpenCOLLADASaxFrameworkLoader.so:_ZN13COLLADASaxFWL21LibraryImagesLoader1425data__init_from____anyURIEN9COLLADABU3URIE
libOpenCOLLADASaxFrameworkLoader.so:_ZN13COLLADASaxFWL21LibraryImagesLoader1426begin__init_from____anyURIEv
libOpenCOLLADASaxFrameworkLoader.so:_ZN13COLLADASaxFWL21LibraryImagesLoader149end__dataEv
libOpenCOLLADASaxFrameworkLoader.so:_ZN13COLLADASaxFWL21LibraryImagesLoader1516end__binary__hexEv
libOpenCOLLADASaxFrameworkLoader.so:_ZN13COLLADASaxFWL21LibraryImagesLoader1517data__binary__hexEPKhm
libOpenCOLLADASaxFrameworkLoader.so:_ZN13COLLADASaxFWL21LibraryImagesLoader1518begin__binary__hexERKN15COLLADASaxFWL1526binary__hex__AttributeDataE
libOpenCOLLADASaxFrameworkLoader.so:_ZN13COLLADASaxFWL21LibraryImagesLoader1518end__ref____anyURIEv
libOpenCOLLADASaxFrameworkLoader.so:_ZN13COLLADASaxFWL21LibraryImagesLoader1519data__ref____anyURIEN9COLLADABU3URIE
libOpenCOLLADASaxFrameworkLoader.so:_ZN13COLLADASaxFWL21LibraryImagesLoader1519end__library_imagesEv
libOpenCOLLADASaxFrameworkLoader.so:_ZN13COLLADASaxFWL21LibraryImagesLoader1520begin__ref____anyURIEv
libOpenCOLLADASaxFrameworkLoader.so:_ZN13COLLADASaxFWL21LibraryImagesLoader1524end__image____image_typeEv
libOpenCOLLADASaxFrameworkLoader.so:_ZN13COLLADASaxFWL21LibraryImagesLoader1526begin__image____image_typeERKN15COLLADASaxFWL1534image____image_type__AttributeDataE
libOpenCOLLADASaxFrameworkLoader.so:_ZN13COLLADASaxFWL21LibraryImagesLoader1532end__technique____technique_typeEv
libOpenCOLLADASaxFrameworkLoader.so:_ZN13COLLADASaxFWL21LibraryImagesLoader1534begin__technique____technique_typeERKN15COLLADASaxFWL1542technique____technique_type__AttributeDataE
libOpenCOLLADASaxFrameworkLoader.so:_ZN13COLLADASaxFWL21LibraryJointsLoader1510end__jointEv
libOpenCOLLADASaxFrameworkLoader.so:_ZN13COLLADASaxFWL21LibraryJointsLoader1512begin__jointERKN15COLLADASaxFWL1520joint__AttributeDataE
libOpenCOLLADASaxFrameworkLoader.so:_ZN13COLLADASaxFWL21LibraryJointsLoader1513end__revoluteEv
libOpenCOLLADASaxFrameworkLoader.so:_ZN13COLLADASaxFWL21LibraryJointsLoader1514end__prismaticEv
libOpenCOLLADASaxFrameworkLoader.so:_ZN13COLLADASaxFWL21LibraryJointsLoader1515begin__revoluteERKN15COLLADASaxFWL1523revolute__AttributeDataE
libOpenCOLLADASaxFrameworkLoader.so:_ZN13COLLADASaxFWL21LibraryJointsLoader1516begin__prismaticERKN15COLLADASaxFWL1524prismatic__AttributeDataE
libOpenCOLLADASaxFrameworkLoader.so:_ZN13COLLADASaxFWL21LibraryJointsLoader1519end__library_jointsEv
libOpenCOLLADASaxFrameworkLoader.so:_ZN13COLLADASaxFWL21LibraryJointsLoader1522end__axis____axis_typeEv
libOpenCOLLADASaxFrameworkLoader.so:_ZN13COLLADASaxFWL21LibraryJointsLoader1523data__axis____axis_typeEPKfm
libOpenCOLLADASaxFrameworkLoader.so:_ZN13COLLADASaxFWL21LibraryJointsLoader1523end__max____minmax_typeEv
libOpenCOLLADASaxFrameworkLoader.so:_ZN13COLLADASaxFWL21LibraryJointsLoader1523end__min____minmax_typeEv
libOpenCOLLADASaxFrameworkLoader.so:_ZN13COLLADASaxFWL21LibraryJointsLoader1524begin__axis____axis_typeERKN15COLLADASaxFWL1532axis____axis_type__AttributeDataE
libOpenCOLLADASaxFrameworkLoader.so:_ZN13COLLADASaxFWL21LibraryJointsLoader1524data__max____minmax_typeEf
libOpenCOLLADASaxFrameworkLoader.so:_ZN13COLLADASaxFWL21LibraryJointsLoader1524data__min____minmax_typeEf
libOpenCOLLADASaxFrameworkLoader.so:_ZN13COLLADASaxFWL21LibraryJointsLoader1525begin__max____minmax_typeERKN15COLLADASaxFWL1533min____minmax_type__AttributeDataE
libOpenCOLLADASaxFrameworkLoader.so:_ZN13COLLADASaxFWL21LibraryJointsLoader1525begin__min____minmax_typeERKN15COLLADASaxFWL1533min____minmax_type__AttributeDataE
libOpenCOLLADASaxFrameworkLoader.so:_ZN13COLLADASaxFWL21LibraryJointsLoader1532end__limits____joint_limits_typeEv
libOpenCOLLADASaxFrameworkLoader.so:_ZN13COLLADASaxFWL21LibraryJointsLoader1532end__technique____technique_typeEv
libOpenCOLLADASaxFrameworkLoader.so:_ZN13COLLADASaxFWL21LibraryJointsLoader1534begin__limits____joint_limits_typeEv
libOpenCOLLADASaxFrameworkLoader.so:_ZN13COLLADASaxFWL21LibraryJointsLoader1534begin__technique____technique_typeERKN15COLLADASaxFWL1542technique____technique_type__AttributeDataE
libOpenCOLLADASaxFrameworkLoader.so:_ZN13COLLADASaxFWL21LibraryLightsLoader1410end__lightEv
libOpenCOLLADASaxFrameworkLoader.so:_ZN13COLLADASaxFWL21LibraryLightsLoader1410end__pointEv
libOpenCOLLADASaxFrameworkLoader.so:_ZN13COLLADASaxFWL21LibraryLightsLoader1411begin__spotEv
libOpenCOLLADASaxFrameworkLoader.so:_ZN13COLLADASaxFWL21LibraryLightsLoader1412begin__lightERKN15COLLADASaxFWL1420light__AttributeDataE
libOpenCOLLADASaxFrameworkLoader.so:_ZN13COLLADASaxFWL21LibraryLightsLoader1412begin__pointEv
libOpenCOLLADASaxFrameworkLoader.so:_ZN13COLLADASaxFWL21LibraryLightsLoader1414end__techniqueEv
libOpenCOLLADASaxFrameworkLoader.so:_ZN13COLLADASaxFWL21LibraryLightsLoader1416begin__techniqueERKN15COLLADASaxFWL1424technique__AttributeDataE
libOpenCOLLADASaxFrameworkLoader.so:_ZN13COLLADASaxFWL21LibraryLightsLoader1416end__directionalEv
libOpenCOLLADASaxFrameworkLoader.so:_ZN13COLLADASaxFWL21LibraryLightsLoader1418begin__directionalEv
libOpenCOLLADASaxFrameworkLoader.so:_ZN13COLLADASaxFWL21LibraryLightsLoader1418end__falloff_angleEv
libOpenCOLLADASaxFrameworkLoader.so:_ZN13COLLADASaxFWL21LibraryLightsLoader1419data__falloff_angleEf
libOpenCOLLADASaxFrameworkLoader.so:_ZN13COLLADASaxFWL21LibraryLightsLoader1419end__library_lightsEv
libOpenCOLLADASaxFrameworkLoader.so:_ZN13COLLADASaxFWL21LibraryLightsLoader1420begin__falloff_angleERKN15COLLADASaxFWL1428falloff_angle__AttributeDataE
libOpenCOLLADASaxFrameworkLoader.so:_ZN13COLLADASaxFWL21LibraryLightsLoader1421end__falloff_exponentEv
libOpenCOLLADASaxFrameworkLoader.so:_ZN13COLLADASaxFWL21LibraryLightsLoader1422data__falloff_exponentEf
libOpenCOLLADASaxFrameworkLoader.so:_ZN13COLLADASaxFWL21LibraryLightsLoader1423begin__falloff_exponentERKN15COLLADASaxFWL1431falloff_exponent__AttributeDataE
libOpenCOLLADASaxFrameworkLoader.so:_ZN13COLLADASaxFWL21LibraryLightsLoader1423end__linear_attenuationEv
libOpenCOLLADASaxFrameworkLoader.so:_ZN13COLLADASaxFWL21LibraryLightsLoader1424data__linear_attenuationEf
libOpenCOLLADASaxFrameworkLoader.so:_ZN13COLLADASaxFWL21LibraryLightsLoader1425begin__linear_attenuationERKN15COLLADASaxFWL1433linear_attenuation__AttributeDataE
libOpenCOLLADASaxFrameworkLoader.so:_ZN13COLLADASaxFWL21LibraryLightsLoader1425end__constant_attenuationEv
libOpenCOLLADASaxFrameworkLoader.so:_ZN13COLLADASaxFWL21LibraryLightsLoader1426data__constant_attenuationEf
libOpenCOLLADASaxFrameworkLoader.so:_ZN13COLLADASaxFWL21LibraryLightsLoader1426end__quadratic_attenuationEv
libOpenCOLLADASaxFrameworkLoader.so:_ZN13COLLADASaxFWL21LibraryLightsLoader1427begin__constant_attenuationERKN15COLLADASaxFWL1435constant_attenuation__AttributeDataE
libOpenCOLLADASaxFrameworkLoader.so:_ZN13COLLADASaxFWL21LibraryLightsLoader1427data__quadratic_attenuationEf
libOpenCOLLADASaxFrameworkLoader.so:_ZN13COLLADASaxFWL21LibraryLightsLoader1428begin__quadratic_attenuationERKN15COLLADASaxFWL1436quadratic_attenuation__AttributeDataE
libOpenCOLLADASaxFrameworkLoader.so:_ZN13COLLADASaxFWL21LibraryLightsLoader1428end__light__technique_commonEv
libOpenCOLLADASaxFrameworkLoader.so:_ZN13COLLADASaxFWL21LibraryLightsLoader1430begin__light__technique_commonEv
libOpenCOLLADASaxFrameworkLoader.so:_ZN13COLLADASaxFWL21LibraryLightsLoader1430end__color____TargetableFloat3Ev
libOpenCOLLADASaxFrameworkLoader.so:_ZN13COLLADASaxFWL21LibraryLightsLoader1431data__color____TargetableFloat3EPKfm
libOpenCOLLADASaxFrameworkLoader.so:_ZN13COLLADASaxFWL21LibraryLightsLoader1432begin__color____TargetableFloat3ERKN15COLLADASaxFWL1440color____TargetableFloat3__AttributeDataE
libOpenCOLLADASaxFrameworkLoader.so:_ZN13COLLADASaxFWL21LibraryLightsLoader1437end__light__technique_common__ambientEv
libOpenCOLLADASaxFrameworkLoader.so:_ZN13COLLADASaxFWL21LibraryLightsLoader1439begin__light__technique_common__ambientEv
libOpenCOLLADASaxFrameworkLoader.so:_ZN13COLLADASaxFWL21LibraryLightsLoader149end__spotEv
libOpenCOLLADASaxFrameworkLoader.so:_ZN13COLLADASaxFWL21LibraryLightsLoader1510end__lightEv
libOpenCOLLADASaxFrameworkLoader.so:_ZN13COLLADASaxFWL21LibraryLightsLoader1510end__pointEv
libOpenCOLLADASaxFrameworkLoader.so:_ZN13COLLADASaxFWL21LibraryLightsLoader1511begin__spotEv
libOpenCOLLADASaxFrameworkLoader.so:_ZN13COLLADASaxFWL21LibraryLightsLoader1512begin__lightERKN15COLLADASaxFWL1520light__AttributeDataE
libOpenCOLLADASaxFrameworkLoader.so:_ZN13COLLADASaxFWL21LibraryLightsLoader1512begin__pointEv
libOpenCOLLADASaxFrameworkLoader.so:_ZN13COLLADASaxFWL21LibraryLightsLoader1516end__directionalEv
libOpenCOLLADASaxFrameworkLoader.so:_ZN13COLLADASaxFWL21LibraryLightsLoader1518begin__directionalEv
libOpenCOLLADASaxFrameworkLoader.so:_ZN13COLLADASaxFWL21LibraryLightsLoader1518end__falloff_angleEv
libOpenCOLLADASaxFrameworkLoader.so:_ZN13COLLADASaxFWL21LibraryLightsLoader1519data__falloff_angleEf
libOpenCOLLADASaxFrameworkLoader.so:_ZN13COLLADASaxFWL21LibraryLightsLoader1519end__library_lightsEv
libOpenCOLLADASaxFrameworkLoader.so:_ZN13COLLADASaxFWL21LibraryLightsLoader1520begin__falloff_angleERKN15COLLADASaxFWL1528falloff_angle__AttributeDataE
libOpenCOLLADASaxFrameworkLoader.so:_ZN13COLLADASaxFWL21LibraryLightsLoader1521end__falloff_exponentEv
libOpenCOLLADASaxFrameworkLoader.so:_ZN13COLLADASaxFWL21LibraryLightsLoader1522data__falloff_exponentEf
libOpenCOLLADASaxFrameworkLoader.so:_ZN13COLLADASaxFWL21LibraryLightsLoader1523begin__falloff_exponentERKN15COLLADASaxFWL1531falloff_exponent__AttributeDataE
libOpenCOLLADASaxFrameworkLoader.so:_ZN13COLLADASaxFWL21LibraryLightsLoader1523end__linear_attenuationEv
libOpenCOLLADASaxFrameworkLoader.so:_ZN13COLLADASaxFWL21LibraryLightsLoader1524data__linear_attenuationEf
libOpenCOLLADASaxFrameworkLoader.so:_ZN13COLLADASaxFWL21LibraryLightsLoader1525begin__linear_attenuationERKN15COLLADASaxFWL1533linear_attenuation__AttributeDataE
libOpenCOLLADASaxFrameworkLoader.so:_ZN13COLLADASaxFWL21LibraryLightsLoader1525end__constant_attenuationEv
libOpenCOLLADASaxFrameworkLoader.so:_ZN13COLLADASaxFWL21LibraryLightsLoader1526data__constant_attenuationEf
libOpenCOLLADASaxFrameworkLoader.so:_ZN13COLLADASaxFWL21LibraryLightsLoader1526end__quadratic_attenuationEv
libOpenCOLLADASaxFrameworkLoader.so:_ZN13COLLADASaxFWL21LibraryLightsLoader1527begin__constant_attenuationERKN15COLLADASaxFWL1535constant_attenuation__AttributeDataE
libOpenCOLLADASaxFrameworkLoader.so:_ZN13COLLADASaxFWL21LibraryLightsLoader1527data__quadratic_attenuationEf
libOpenCOLLADASaxFrameworkLoader.so:_ZN13COLLADASaxFWL21LibraryLightsLoader1528begin__quadratic_attenuationERKN15COLLADASaxFWL1536quadratic_attenuation__AttributeDataE
libOpenCOLLADASaxFrameworkLoader.so:_ZN13COLLADASaxFWL21LibraryLightsLoader1532end__technique____technique_typeEv
libOpenCOLLADASaxFrameworkLoader.so:_ZN13COLLADASaxFWL21LibraryLightsLoader1534begin__technique____technique_typeERKN15COLLADASaxFWL1542technique____technique_type__AttributeDataE
libOpenCOLLADASaxFrameworkLoader.so:_ZN13COLLADASaxFWL21LibraryLightsLoader1535end__light_type____technique_commonEv
libOpenCOLLADASaxFrameworkLoader.so:_ZN13COLLADASaxFWL21LibraryLightsLoader1536end__color____targetable_float3_typeEv
libOpenCOLLADASaxFrameworkLoader.so:_ZN13COLLADASaxFWL21LibraryLightsLoader1537begin__light_type____technique_commonEv
libOpenCOLLADASaxFrameworkLoader.so:_ZN13COLLADASaxFWL21LibraryLightsLoader1537data__color____targetable_float3_typeEPKfm
libOpenCOLLADASaxFrameworkLoader.so:_ZN13COLLADASaxFWL21LibraryLightsLoader1537end__light__technique_common__ambientEv
libOpenCOLLADASaxFrameworkLoader.so:_ZN13COLLADASaxFWL21LibraryLightsLoader1538begin__color____targetable_float3_typeERKN15COLLADASaxFWL1546color____targetable_float3_type__AttributeDataE
libOpenCOLLADASaxFrameworkLoader.so:_ZN13COLLADASaxFWL21LibraryLightsLoader1539begin__light__technique_common__ambientEv
libOpenCOLLADASaxFrameworkLoader.so:_ZN13COLLADASaxFWL21LibraryLightsLoader159end__spotEv
libOpenCOLLADASaxFrameworkLoader.so:_ZN13COLLADASaxFWL21SaxParserErrorHandler11handleErrorERKN18GeneratedSaxParser11ParserErrorE
libOpenCOLLADASaxFrameworkLoader.so:_ZN13COLLADASaxFWL21SaxParserErrorHandlerC1EPNS_13IErrorHandlerE
libOpenCOLLADASaxFrameworkLoader.so:_ZN13COLLADASaxFWL21SaxParserErrorHandlerC2EPNS_13IErrorHandlerE
libOpenCOLLADASaxFrameworkLoader.so:_ZN13COLLADASaxFWL21SaxParserErrorHandlerD0Ev
libOpenCOLLADASaxFrameworkLoader.so:_ZN13COLLADASaxFWL21SaxParserErrorHandlerD1Ev
libOpenCOLLADASaxFrameworkLoader.so:_ZN13COLLADASaxFWL21SaxParserErrorHandlerD2Ev
libOpenCOLLADASaxFrameworkLoader.so:_ZN13COLLADASaxFWL21appendTransformationsERN9COLLADAFW12PointerArrayINS0_14TransformationEEESt6vectorIPS2_SaIS6_EEb
libOpenCOLLADASaxFrameworkLoader.so:_ZN13COLLADASaxFWL22GeometryMaterialIdInfo13getMaterialIdERKNSt7__cxx1112basic_stringIcSt11char_traitsIcESaIcEEE
libOpenCOLLADASaxFrameworkLoader.so:_ZN13COLLADASaxFWL22GeometryMaterialIdInfoC1Ev
libOpenCOLLADASaxFrameworkLoader.so:_ZN13COLLADASaxFWL22GeometryMaterialIdInfoC2Ev
libOpenCOLLADASaxFrameworkLoader.so:_ZN13COLLADASaxFWL22KinematicsFloatOrParamC1ENS0_9ValueTypeE
libOpenCOLLADASaxFrameworkLoader.so:_ZN13COLLADASaxFWL22KinematicsFloatOrParamC2ENS0_9ValueTypeE
libOpenCOLLADASaxFrameworkLoader.so:_ZN13COLLADASaxFWL22KinematicsSceneCreator11resolveLinkEPNS_15KinematicsSceneEPNS_23KinematicsBindJointAxisEPmPPN9COLLADAFW15KinematicsModelE
libOpenCOLLADASaxFrameworkLoader.so:_ZN13COLLADASaxFWL22KinematicsSceneCreator16createFWAxisInfoERKNS_8AxisInfoERb
libOpenCOLLADASaxFrameworkLoader.so:_ZN13COLLADASaxFWL22KinematicsSceneCreator23createFWKinematicsModelEPNS_15KinematicsModelE
libOpenCOLLADASaxFrameworkLoader.so:_ZN13COLLADASaxFWL22KinematicsSceneCreator24findLinkByJOintPrimitiveEPKN9COLLADAFW15KinematicsModelEPKNS1_14JointPrimitiveE
libOpenCOLLADASaxFrameworkLoader.so:_ZN13COLLADASaxFWL22KinematicsSceneCreator26createJointLinkConnectionsEPKNS_13KinematicLinkEPN9COLLADAFW15KinematicsModelE
libOpenCOLLADASaxFrameworkLoader.so:_ZN13COLLADASaxFWL22KinematicsSceneCreator26createJointLinkConnectionsEPKNS_19KinematicAttachmentEmPN9COLLADAFW15KinematicsModelE
libOpenCOLLADASaxFrameworkLoader.so:_ZN13COLLADASaxFWL22KinematicsSceneCreator27createAndGetKinematicsSceneEv
libOpenCOLLADASaxFrameworkLoader.so:_ZN13COLLADASaxFWL22KinematicsSceneCreator28createFWKinematicsControllerEPNS_20KinematicsControllerE
libOpenCOLLADASaxFrameworkLoader.so:_ZN13COLLADASaxFWL22KinematicsSceneCreator30processInstanceKinematicsModelERKNS_33KinematicsInstanceKinematicsModelE
libOpenCOLLADASaxFrameworkLoader.so:_ZN13COLLADASaxFWL22KinematicsSceneCreator31createFWInstanceKinematicsSceneEPNS_33KinematicsInstanceKinematicsSceneE
libOpenCOLLADASaxFrameworkLoader.so:_ZN13COLLADASaxFWL22KinematicsSceneCreatorC1EPNS_17DocumentProcessorE
libOpenCOLLADASaxFrameworkLoader.so:_ZN13COLLADASaxFWL22KinematicsSceneCreatorC2EPNS_17DocumentProcessorE
libOpenCOLLADASaxFrameworkLoader.so:_ZN13COLLADASaxFWL22KinematicsSceneCreatorD0Ev
libOpenCOLLADASaxFrameworkLoader.so:_ZN13COLLADASaxFWL22KinematicsSceneCreatorD1Ev
libOpenCOLLADASaxFrameworkLoader.so:_ZN13COLLADASaxFWL22KinematicsSceneCreatorD2Ev
libOpenCOLLADASaxFrameworkLoader.so:_ZN13COLLADASaxFWL22LibraryCamerasLoader1410data__xfovEf
libOpenCOLLADASaxFrameworkLoader.so:_ZN13COLLADASaxFWL22LibraryCamerasLoader1410data__xmagEf
libOpenCOLLADASaxFrameworkLoader.so:_ZN13COLLADASaxFWL22LibraryCamerasLoader1410data__yfovEf
libOpenCOLLADASaxFrameworkLoader.so:_ZN13COLLADASaxFWL22LibraryCamerasLoader1410data__ymagEf
libOpenCOLLADASaxFrameworkLoader.so:_ZN13COLLADASaxFWL22LibraryCamerasLoader1410data__zfarEf
libOpenCOLLADASaxFrameworkLoader.so:_ZN13COLLADASaxFWL22LibraryCamerasLoader1410end__znearEv
libOpenCOLLADASaxFrameworkLoader.so:_ZN13COLLADASaxFWL22LibraryCamerasLoader1411begin__xfovERKN15COLLADASaxFWL1419xfov__AttributeDataE
libOpenCOLLADASaxFrameworkLoader.so:_ZN13COLLADASaxFWL22LibraryCamerasLoader1411begin__xmagERKN15COLLADASaxFWL1419xmag__AttributeDataE
libOpenCOLLADASaxFrameworkLoader.so:_ZN13COLLADASaxFWL22LibraryCamerasLoader1411begin__yfovERKN15COLLADASaxFWL1419yfov__AttributeDataE
libOpenCOLLADASaxFrameworkLoader.so:_ZN13COLLADASaxFWL22LibraryCamerasLoader1411begin__ymagERKN15COLLADASaxFWL1419ymag__AttributeDataE
libOpenCOLLADASaxFrameworkLoader.so:_ZN13COLLADASaxFWL22LibraryCamerasLoader1411begin__zfarERKN15COLLADASaxFWL1419zfar__AttributeDataE
libOpenCOLLADASaxFrameworkLoader.so:_ZN13COLLADASaxFWL22LibraryCamerasLoader1411data__znearEf
libOpenCOLLADASaxFrameworkLoader.so:_ZN13COLLADASaxFWL22LibraryCamerasLoader1411end__cameraEv
libOpenCOLLADASaxFrameworkLoader.so:_ZN13COLLADASaxFWL22LibraryCamerasLoader1411end__imagerEv
libOpenCOLLADASaxFrameworkLoader.so:_ZN13COLLADASaxFWL22LibraryCamerasLoader1411end__opticsEv
libOpenCOLLADASaxFrameworkLoader.so:_ZN13COLLADASaxFWL22LibraryCamerasLoader1412begin__znearERKN15COLLADASaxFWL1420znear__AttributeDataE
libOpenCOLLADASaxFrameworkLoader.so:_ZN13COLLADASaxFWL22LibraryCamerasLoader1413begin__cameraERKN15COLLADASaxFWL1421camera__AttributeDataE
libOpenCOLLADASaxFrameworkLoader.so:_ZN13COLLADASaxFWL22LibraryCamerasLoader1413begin__imagerEv
libOpenCOLLADASaxFrameworkLoader.so:_ZN13COLLADASaxFWL22LibraryCamerasLoader1413begin__opticsEv
libOpenCOLLADASaxFrameworkLoader.so:_ZN13COLLADASaxFWL22LibraryCamerasLoader1414end__techniqueEv
libOpenCOLLADASaxFrameworkLoader.so:_ZN13COLLADASaxFWL22LibraryCamerasLoader1416begin__techniqueERKN15COLLADASaxFWL1424technique__AttributeDataE
libOpenCOLLADASaxFrameworkLoader.so:_ZN13COLLADASaxFWL22LibraryCamerasLoader1416end__perspectiveEv
libOpenCOLLADASaxFrameworkLoader.so:_ZN13COLLADASaxFWL22LibraryCamerasLoader1417end__aspect_ratioEv
libOpenCOLLADASaxFrameworkLoader.so:_ZN13COLLADASaxFWL22LibraryCamerasLoader1417end__orthographicEv
libOpenCOLLADASaxFrameworkLoader.so:_ZN13COLLADASaxFWL22LibraryCamerasLoader1418begin__perspectiveEv
libOpenCOLLADASaxFrameworkLoader.so:_ZN13COLLADASaxFWL22LibraryCamerasLoader1418data__aspect_ratioEf
libOpenCOLLADASaxFrameworkLoader.so:_ZN13COLLADASaxFWL22LibraryCamerasLoader1419begin__aspect_ratioERKN15COLLADASaxFWL1427aspect_ratio__AttributeDataE
libOpenCOLLADASaxFrameworkLoader.so:_ZN13COLLADASaxFWL22LibraryCamerasLoader1419begin__orthographicEv
libOpenCOLLADASaxFrameworkLoader.so:_ZN13COLLADASaxFWL22LibraryCamerasLoader1420end__library_camerasEv
libOpenCOLLADASaxFrameworkLoader.so:_ZN13COLLADASaxFWL22LibraryCamerasLoader1429end__optics__technique_commonEv
libOpenCOLLADASaxFrameworkLoader.so:_ZN13COLLADASaxFWL22LibraryCamerasLoader1431begin__optics__technique_commonEv
libOpenCOLLADASaxFrameworkLoader.so:_ZN13COLLADASaxFWL22LibraryCamerasLoader149end__xfovEv
libOpenCOLLADASaxFrameworkLoader.so:_ZN13COLLADASaxFWL22LibraryCamerasLoader149end__xmagEv
libOpenCOLLADASaxFrameworkLoader.so:_ZN13COLLADASaxFWL22LibraryCamerasLoader149end__yfovEv
libOpenCOLLADASaxFrameworkLoader.so:_ZN13COLLADASaxFWL22LibraryCamerasLoader149end__ymagEv
libOpenCOLLADASaxFrameworkLoader.so:_ZN13COLLADASaxFWL22LibraryCamerasLoader149end__zfarEv
libOpenCOLLADASaxFrameworkLoader.so:_ZN13COLLADASaxFWL22LibraryCamerasLoader1510data__xfovEf
libOpenCOLLADASaxFrameworkLoader.so:_ZN13COLLADASaxFWL22LibraryCamerasLoader1510data__xmagEf
libOpenCOLLADASaxFrameworkLoader.so:_ZN13COLLADASaxFWL22LibraryCamerasLoader1510data__yfovEf
libOpenCOLLADASaxFrameworkLoader.so:_ZN13COLLADASaxFWL22LibraryCamerasLoader1510data__ymagEf
libOpenCOLLADASaxFrameworkLoader.so:_ZN13COLLADASaxFWL22LibraryCamerasLoader1510data__zfarEf
libOpenCOLLADASaxFrameworkLoader.so:_ZN13COLLADASaxFWL22LibraryCamerasLoader1510end__znearEv
libOpenCOLLADASaxFrameworkLoader.so:_ZN13COLLADASaxFWL22LibraryCamerasLoader1511begin__xfovERKN15COLLADASaxFWL1519xfov__AttributeDataE
libOpenCOLLADASaxFrameworkLoader.so:_ZN13COLLADASaxFWL22LibraryCamerasLoader1511begin__xmagERKN15COLLADASaxFWL1519xmag__AttributeDataE
libOpenCOLLADASaxFrameworkLoader.so:_ZN13COLLADASaxFWL22LibraryCamerasLoader1511begin__yfovERKN15COLLADASaxFWL1519yfov__AttributeDataE
libOpenCOLLADASaxFrameworkLoader.so:_ZN13COLLADASaxFWL22LibraryCamerasLoader1511begin__ymagERKN15COLLADASaxFWL1519ymag__AttributeDataE
libOpenCOLLADASaxFrameworkLoader.so:_ZN13COLLADASaxFWL22LibraryCamerasLoader1511begin__zfarERKN15COLLADASaxFWL1519zfar__AttributeDataE
libOpenCOLLADASaxFrameworkLoader.so:_ZN13COLLADASaxFWL22LibraryCamerasLoader1511data__znearEf
libOpenCOLLADASaxFrameworkLoader.so:_ZN13COLLADASaxFWL22LibraryCamerasLoader1511end__cameraEv
libOpenCOLLADASaxFrameworkLoader.so:_ZN13COLLADASaxFWL22LibraryCamerasLoader1511end__imagerEv
libOpenCOLLADASaxFrameworkLoader.so:_ZN13COLLADASaxFWL22LibraryCamerasLoader1511end__opticsEv
libOpenCOLLADASaxFrameworkLoader.so:_ZN13COLLADASaxFWL22LibraryCamerasLoader1512begin__znearERKN15COLLADASaxFWL1520znear__AttributeDataE
libOpenCOLLADASaxFrameworkLoader.so:_ZN13COLLADASaxFWL22LibraryCamerasLoader1513begin__cameraERKN15COLLADASaxFWL1521camera__AttributeDataE
libOpenCOLLADASaxFrameworkLoader.so:_ZN13COLLADASaxFWL22LibraryCamerasLoader1513begin__imagerEv
libOpenCOLLADASaxFrameworkLoader.so:_ZN13COLLADASaxFWL22LibraryCamerasLoader1513begin__opticsEv
libOpenCOLLADASaxFrameworkLoader.so:_ZN13COLLADASaxFWL22LibraryCamerasLoader1516end__perspectiveEv
libOpenCOLLADASaxFrameworkLoader.so:_ZN13COLLADASaxFWL22LibraryCamerasLoader1517end__aspect_ratioEv
libOpenCOLLADASaxFrameworkLoader.so:_ZN13COLLADASaxFWL22LibraryCamerasLoader1517end__orthographicEv
libOpenCOLLADASaxFrameworkLoader.so:_ZN13COLLADASaxFWL22LibraryCamerasLoader1518begin__perspectiveEv
libOpenCOLLADASaxFrameworkLoader.so:_ZN13COLLADASaxFWL22LibraryCamerasLoader1518data__aspect_ratioEf
libOpenCOLLADASaxFrameworkLoader.so:_ZN13COLLADASaxFWL22LibraryCamerasLoader1519begin__aspect_ratioERKN15COLLADASaxFWL1527aspect_ratio__AttributeDataE
libOpenCOLLADASaxFrameworkLoader.so:_ZN13COLLADASaxFWL22LibraryCamerasLoader1519begin__orthographicEv
libOpenCOLLADASaxFrameworkLoader.so:_ZN13COLLADASaxFWL22LibraryCamerasLoader1520end__library_camerasEv
libOpenCOLLADASaxFrameworkLoader.so:_ZN13COLLADASaxFWL22LibraryCamerasLoader1529end__optics__technique_commonEv
libOpenCOLLADASaxFrameworkLoader.so:_ZN13COLLADASaxFWL22LibraryCamerasLoader1531begin__optics__technique_commonEv
libOpenCOLLADASaxFrameworkLoader.so:_ZN13COLLADASaxFWL22LibraryCamerasLoader1532end__technique____technique_typeEv
libOpenCOLLADASaxFrameworkLoader.so:_ZN13COLLADASaxFWL22LibraryCamerasLoader1534begin__technique____technique_typeERKN15COLLADASaxFWL1542technique____technique_type__AttributeDataE
libOpenCOLLADASaxFrameworkLoader.so:_ZN13COLLADASaxFWL22LibraryCamerasLoader159end__xfovEv
libOpenCOLLADASaxFrameworkLoader.so:_ZN13COLLADASaxFWL22LibraryCamerasLoader159end__xmagEv
libOpenCOLLADASaxFrameworkLoader.so:_ZN13COLLADASaxFWL22LibraryCamerasLoader159end__yfovEv
libOpenCOLLADASaxFrameworkLoader.so:_ZN13COLLADASaxFWL22LibraryCamerasLoader159end__ymagEv
libOpenCOLLADASaxFrameworkLoader.so:_ZN13COLLADASaxFWL22LibraryCamerasLoader159end__zfarEv
libOpenCOLLADASaxFrameworkLoader.so:_ZN13COLLADASaxFWL22LibraryEffectsLoader1410end__blinnEv
libOpenCOLLADASaxFrameworkLoader.so:_ZN13COLLADASaxFWL22LibraryEffectsLoader1410end__phongEv
libOpenCOLLADASaxFrameworkLoader.so:_ZN13COLLADASaxFWL22LibraryEffectsLoader1411end__effectEv
libOpenCOLLADASaxFrameworkLoader.so:_ZN13COLLADASaxFWL22LibraryEffectsLoader1412begin__blinnEv
libOpenCOLLADASaxFrameworkLoader.so:_ZN13COLLADASaxFWL22LibraryEffectsLoader1412begin__phongEv
libOpenCOLLADASaxFrameworkLoader.so:_ZN13COLLADASaxFWL22LibraryEffectsLoader1412end__diffuseEv
libOpenCOLLADASaxFrameworkLoader.so:_ZN13COLLADASaxFWL22LibraryEffectsLoader1412end__lambertEv
libOpenCOLLADASaxFrameworkLoader.so:_ZN13COLLADASaxFWL22LibraryEffectsLoader1412end__textureEv
libOpenCOLLADASaxFrameworkLoader.so:_ZN13COLLADASaxFWL22LibraryEffectsLoader1413begin__effectERKN15COLLADASaxFWL1421effect__AttributeDataE
libOpenCOLLADASaxFrameworkLoader.so:_ZN13COLLADASaxFWL22LibraryEffectsLoader1413end__emissionEv
libOpenCOLLADASaxFrameworkLoader.so:_ZN13COLLADASaxFWL22LibraryEffectsLoader1413end__specularEv
libOpenCOLLADASaxFrameworkLoader.so:_ZN13COLLADASaxFWL22LibraryEffectsLoader1414begin__diffuseEv
libOpenCOLLADASaxFrameworkLoader.so:_ZN13COLLADASaxFWL22LibraryEffectsLoader1414begin__lambertEv
libOpenCOLLADASaxFrameworkLoader.so:_ZN13COLLADASaxFWL22LibraryEffectsLoader1414begin__textureERKN15COLLADASaxFWL1422texture__AttributeDataE
libOpenCOLLADASaxFrameworkLoader.so:_ZN13COLLADASaxFWL22LibraryEffectsLoader1414end__minfilterEv
libOpenCOLLADASaxFrameworkLoader.so:_ZN13COLLADASaxFWL22LibraryEffectsLoader1414end__shininessEv
libOpenCOLLADASaxFrameworkLoader.so:_ZN13COLLADASaxFWL22LibraryEffectsLoader1414end__techniqueEv
libOpenCOLLADASaxFrameworkLoader.so:_ZN13COLLADASaxFWL22LibraryEffectsLoader1415begin__emissionEv
libOpenCOLLADASaxFrameworkLoader.so:_ZN13COLLADASaxFWL22LibraryEffectsLoader1415begin__specularEv
libOpenCOLLADASaxFrameworkLoader.so:_ZN13COLLADASaxFWL22LibraryEffectsLoader1415data__minfilterEN15COLLADASaxFWL1430ENUM__fx_sampler_filter_commonE
libOpenCOLLADASaxFrameworkLoader.so:_ZN13COLLADASaxFWL22LibraryEffectsLoader1415end__reflectiveEv
libOpenCOLLADASaxFrameworkLoader.so:_ZN13COLLADASaxFWL22LibraryEffectsLoader1416begin__minfilterEv
libOpenCOLLADASaxFrameworkLoader.so:_ZN13COLLADASaxFWL22LibraryEffectsLoader1416begin__shininessEv
libOpenCOLLADASaxFrameworkLoader.so:_ZN13COLLADASaxFWL22LibraryEffectsLoader1416begin__techniqueERKN15COLLADASaxFWL1424technique__AttributeDataE
libOpenCOLLADASaxFrameworkLoader.so:_ZN13COLLADASaxFWL22LibraryEffectsLoader1416end__transparentEv
libOpenCOLLADASaxFrameworkLoader.so:_ZN13COLLADASaxFWL22LibraryEffectsLoader1417begin__reflectiveEv
libOpenCOLLADASaxFrameworkLoader.so:_ZN13COLLADASaxFWL22LibraryEffectsLoader1417end__reflectivityEv
libOpenCOLLADASaxFrameworkLoader.so:_ZN13COLLADASaxFWL22LibraryEffectsLoader1417end__transparencyEv
libOpenCOLLADASaxFrameworkLoader.so:_ZN13COLLADASaxFWL22LibraryEffectsLoader1418begin__transparentERKN15COLLADASaxFWL1426transparent__AttributeDataE
libOpenCOLLADASaxFrameworkLoader.so:_ZN13COLLADASaxFWL22LibraryEffectsLoader1419begin__reflectivityEv
libOpenCOLLADASaxFrameworkLoader.so:_ZN13COLLADASaxFWL22LibraryEffectsLoader1419begin__transparencyEv
libOpenCOLLADASaxFrameworkLoader.so:_ZN13COLLADASaxFWL22LibraryEffectsLoader1419end__profile_COMMONEv
libOpenCOLLADASaxFrameworkLoader.so:_ZN13COLLADASaxFWL22LibraryEffectsLoader1420end__library_effectsEv
libOpenCOLLADASaxFrameworkLoader.so:_ZN13COLLADASaxFWL22LibraryEffectsLoader1421begin__profile_COMMONERKN15COLLADASaxFWL1429profile_COMMON__AttributeDataE
libOpenCOLLADASaxFrameworkLoader.so:_ZN13COLLADASaxFWL22LibraryEffectsLoader1421end__source____NCNameEv
libOpenCOLLADASaxFrameworkLoader.so:_ZN13COLLADASaxFWL22LibraryEffectsLoader1422data__source____NCNameEPKcm
libOpenCOLLADASaxFrameworkLoader.so:_ZN13COLLADASaxFWL22LibraryEffectsLoader1423begin__source____NCNameEv
libOpenCOLLADASaxFrameworkLoader.so:_ZN13COLLADASaxFWL22LibraryEffectsLoader1424end__index_of_refractionEv
libOpenCOLLADASaxFrameworkLoader.so:_ZN13COLLADASaxFWL22LibraryEffectsLoader1426begin__index_of_refractionEv
libOpenCOLLADASaxFrameworkLoader.so:_ZN13COLLADASaxFWL22LibraryEffectsLoader1430begin__newparam____cg_newparamERKN15COLLADASaxFWL1438newparam____cg_newparam__AttributeDataE
libOpenCOLLADASaxFrameworkLoader.so:_ZN13COLLADASaxFWL22LibraryEffectsLoader1430end__profile_COMMON__techniqueEv
libOpenCOLLADASaxFrameworkLoader.so:_ZN13COLLADASaxFWL22LibraryEffectsLoader1432begin__profile_COMMON__techniqueERKN15COLLADASaxFWL1440profile_COMMON__technique__AttributeDataE
libOpenCOLLADASaxFrameworkLoader.so:_ZN13COLLADASaxFWL22LibraryEffectsLoader1433end__surface____fx_surface_commonEv
libOpenCOLLADASaxFrameworkLoader.so:_ZN13COLLADASaxFWL22LibraryEffectsLoader1435begin__surface____fx_surface_commonERKN15COLLADASaxFWL1443surface____fx_surface_common__AttributeDataE
libOpenCOLLADASaxFrameworkLoader.so:_ZN13COLLADASaxFWL22LibraryEffectsLoader1437begin__newparam____fx_newparam_commonERKN15COLLADASaxFWL1445newparam____fx_newparam_common__AttributeDataE
libOpenCOLLADASaxFrameworkLoader.so:_ZN13COLLADASaxFWL22LibraryEffectsLoader1437end__newparam____common_newparam_typeEv
libOpenCOLLADASaxFrameworkLoader.so:_ZN13COLLADASaxFWL22LibraryEffectsLoader1437end__sampler2D____fx_sampler2D_commonEv
libOpenCOLLADASaxFrameworkLoader.so:_ZN13COLLADASaxFWL22LibraryEffectsLoader1437end__wrap_s____fx_sampler_wrap_commonEv
libOpenCOLLADASaxFrameworkLoader.so:_ZN13COLLADASaxFWL22LibraryEffectsLoader1437end__wrap_t____fx_sampler_wrap_commonEv
libOpenCOLLADASaxFrameworkLoader.so:_ZN13COLLADASaxFWL22LibraryEffectsLoader1438data__wrap_s____fx_sampler_wrap_commonEN15COLLADASaxFWL1428ENUM__fx_sampler_wrap_commonE
libOpenCOLLADASaxFrameworkLoader.so:_ZN13COLLADASaxFWL22LibraryEffectsLoader1438data__wrap_t____fx_sampler_wrap_commonEN15COLLADASaxFWL1428ENUM__fx_sampler_wrap_commonE
libOpenCOLLADASaxFrameworkLoader.so:_ZN13COLLADASaxFWL22LibraryEffectsLoader1439begin__newparam____common_newparam_typeERKN15COLLADASaxFWL1447newparam____common_newparam_type__AttributeDataE
libOpenCOLLADASaxFrameworkLoader.so:_ZN13COLLADASaxFWL22LibraryEffectsLoader1439begin__sampler2D____fx_sampler2D_commonEv
libOpenCOLLADASaxFrameworkLoader.so:_ZN13COLLADASaxFWL22LibraryEffectsLoader1439begin__wrap_s____fx_sampler_wrap_commonEv
libOpenCOLLADASaxFrameworkLoader.so:_ZN13COLLADASaxFWL22LibraryEffectsLoader1439begin__wrap_t____fx_sampler_wrap_commonEv
libOpenCOLLADASaxFrameworkLoader.so:_ZN13COLLADASaxFWL22LibraryEffectsLoader1440end__common_float_or_param_type____floatEv
libOpenCOLLADASaxFrameworkLoader.so:_ZN13COLLADASaxFWL22LibraryEffectsLoader1440end__profile_COMMON__technique__constantEv
libOpenCOLLADASaxFrameworkLoader.so:_ZN13COLLADASaxFWL22LibraryEffectsLoader1441data__common_float_or_param_type____floatEf
libOpenCOLLADASaxFrameworkLoader.so:_ZN13COLLADASaxFWL22LibraryEffectsLoader1442begin__common_float_or_param_type____floatERKN15COLLADASaxFWL1450common_float_or_param_type____float__AttributeDataE
libOpenCOLLADASaxFrameworkLoader.so:_ZN13COLLADASaxFWL22LibraryEffectsLoader1442begin__profile_COMMON__technique__constantEv
libOpenCOLLADASaxFrameworkLoader.so:_ZN13COLLADASaxFWL22LibraryEffectsLoader1442end__common_color_or_texture_type____colorEv
libOpenCOLLADASaxFrameworkLoader.so:_ZN13COLLADASaxFWL22LibraryEffectsLoader1443data__common_color_or_texture_type____colorEPKfm
libOpenCOLLADASaxFrameworkLoader.so:_ZN13COLLADASaxFWL22LibraryEffectsLoader1444begin__common_color_or_texture_type____colorERKN15COLLADASaxFWL1452common_color_or_texture_type____color__AttributeDataE
libOpenCOLLADASaxFrameworkLoader.so:_ZN13COLLADASaxFWL22LibraryEffectsLoader1444end__ambient____common_color_or_texture_typeEv
libOpenCOLLADASaxFrameworkLoader.so:_ZN13COLLADASaxFWL22LibraryEffectsLoader1445end__init_from____fx_surface_init_from_commonEv
libOpenCOLLADASaxFrameworkLoader.so:_ZN13COLLADASaxFWL22LibraryEffectsLoader1446begin__ambient____common_color_or_texture_typeEv
libOpenCOLLADASaxFrameworkLoader.so:_ZN13COLLADASaxFWL22LibraryEffectsLoader1446data__init_from____fx_surface_init_from_commonEPKcm
libOpenCOLLADASaxFrameworkLoader.so:_ZN13COLLADASaxFWL22LibraryEffectsLoader1447begin__init_from____fx_surface_init_from_commonERKN15COLLADASaxFWL1455init_from____fx_surface_init_from_common__AttributeDataE
libOpenCOLLADASaxFrameworkLoader.so:_ZN13COLLADASaxFWL22LibraryEffectsLoader1510end__blinnEv
libOpenCOLLADASaxFrameworkLoader.so:_ZN13COLLADASaxFWL22LibraryEffectsLoader1510end__phongEv
libOpenCOLLADASaxFrameworkLoader.so:_ZN13COLLADASaxFWL22LibraryEffectsLoader1511end__effectEv
libOpenCOLLADASaxFrameworkLoader.so:_ZN13COLLADASaxFWL22LibraryEffectsLoader1512begin__blinnEv
libOpenCOLLADASaxFrameworkLoader.so:_ZN13COLLADASaxFWL22LibraryEffectsLoader1512begin__phongEv
libOpenCOLLADASaxFrameworkLoader.so:_ZN13COLLADASaxFWL22LibraryEffectsLoader1512end__diffuseEv
libOpenCOLLADASaxFrameworkLoader.so:_ZN13COLLADASaxFWL22LibraryEffectsLoader1512end__lambertEv
libOpenCOLLADASaxFrameworkLoader.so:_ZN13COLLADASaxFWL22LibraryEffectsLoader1512end__textureEv
libOpenCOLLADASaxFrameworkLoader.so:_ZN13COLLADASaxFWL22LibraryEffectsLoader1513begin__effectERKN15COLLADASaxFWL1521effect__AttributeDataE
libOpenCOLLADASaxFrameworkLoader.so:_ZN13COLLADASaxFWL22LibraryEffectsLoader1513end__emissionEv
libOpenCOLLADASaxFrameworkLoader.so:_ZN13COLLADASaxFWL22LibraryEffectsLoader1513end__specularEv
libOpenCOLLADASaxFrameworkLoader.so:_ZN13COLLADASaxFWL22LibraryEffectsLoader1514begin__diffuseEv
libOpenCOLLADASaxFrameworkLoader.so:_ZN13COLLADASaxFWL22LibraryEffectsLoader1514begin__lambertEv
libOpenCOLLADASaxFrameworkLoader.so:_ZN13COLLADASaxFWL22LibraryEffectsLoader1514begin__textureERKN15COLLADASaxFWL1522texture__AttributeDataE
libOpenCOLLADASaxFrameworkLoader.so:_ZN13COLLADASaxFWL22LibraryEffectsLoader1514end__shininessEv
libOpenCOLLADASaxFrameworkLoader.so:_ZN13COLLADASaxFWL22LibraryEffectsLoader1515begin__emissionEv
libOpenCOLLADASaxFrameworkLoader.so:_ZN13COLLADASaxFWL22LibraryEffectsLoader1515begin__specularEv
libOpenCOLLADASaxFrameworkLoader.so:_ZN13COLLADASaxFWL22LibraryEffectsLoader1515end__reflectiveEv
libOpenCOLLADASaxFrameworkLoader.so:_ZN13COLLADASaxFWL22LibraryEffectsLoader1516begin__shininessEv
libOpenCOLLADASaxFrameworkLoader.so:_ZN13COLLADASaxFWL22LibraryEffectsLoader1516end__transparentEv
libOpenCOLLADASaxFrameworkLoader.so:_ZN13COLLADASaxFWL22LibraryEffectsLoader1517begin__reflectiveEv
libOpenCOLLADASaxFrameworkLoader.so:_ZN13COLLADASaxFWL22LibraryEffectsLoader1517end__reflectivityEv
libOpenCOLLADASaxFrameworkLoader.so:_ZN13COLLADASaxFWL22LibraryEffectsLoader1517end__transparencyEv
libOpenCOLLADASaxFrameworkLoader.so:_ZN13COLLADASaxFWL22LibraryEffectsLoader1518begin__transparentERKN15COLLADASaxFWL1526transparent__AttributeDataE
libOpenCOLLADASaxFrameworkLoader.so:_ZN13COLLADASaxFWL22LibraryEffectsLoader1519begin__reflectivityEv
libOpenCOLLADASaxFrameworkLoader.so:_ZN13COLLADASaxFWL22LibraryEffectsLoader1519begin__transparencyEv
libOpenCOLLADASaxFrameworkLoader.so:_ZN13COLLADASaxFWL22LibraryEffectsLoader1519end__instance_imageEv
libOpenCOLLADASaxFrameworkLoader.so:_ZN13COLLADASaxFWL22LibraryEffectsLoader1519end__profile_COMMONEv
libOpenCOLLADASaxFrameworkLoader.so:_ZN13COLLADASaxFWL22LibraryEffectsLoader1520end__library_effectsEv
libOpenCOLLADASaxFrameworkLoader.so:_ZN13COLLADASaxFWL22LibraryEffectsLoader1520end__param____NCNameEv
libOpenCOLLADASaxFrameworkLoader.so:_ZN13COLLADASaxFWL22LibraryEffectsLoader1521begin__instance_imageERKN15COLLADASaxFWL1529instance_image__AttributeDataE
libOpenCOLLADASaxFrameworkLoader.so:_ZN13COLLADASaxFWL22LibraryEffectsLoader1521begin__profile_COMMONERKN15COLLADASaxFWL1529profile_COMMON__AttributeDataE
libOpenCOLLADASaxFrameworkLoader.so:_ZN13COLLADASaxFWL22LibraryEffectsLoader1521data__param____NCNameEPKcm
libOpenCOLLADASaxFrameworkLoader.so:_ZN13COLLADASaxFWL22LibraryEffectsLoader1522begin__param____NCNameEv
libOpenCOLLADASaxFrameworkLoader.so:_ZN13COLLADASaxFWL22LibraryEffectsLoader1524end__index_of_refractionEv
libOpenCOLLADASaxFrameworkLoader.so:_ZN13COLLADASaxFWL22LibraryEffectsLoader1526begin__index_of_refractionEv
libOpenCOLLADASaxFrameworkLoader.so:_ZN13COLLADASaxFWL22LibraryEffectsLoader1532end__technique____technique_typeEv
libOpenCOLLADASaxFrameworkLoader.so:_ZN13COLLADASaxFWL22LibraryEffectsLoader1534begin__technique____technique_typeERKN15COLLADASaxFWL1542technique____technique_type__AttributeDataE
libOpenCOLLADASaxFrameworkLoader.so:_ZN13COLLADASaxFWL22LibraryEffectsLoader1535begin__newparam____fx_newparam_typeERKN15COLLADASaxFWL1543newparam____fx_newparam_type__AttributeDataE
libOpenCOLLADASaxFrameworkLoader.so:_ZN13COLLADASaxFWL22LibraryEffectsLoader1535end__sampler2D____fx_sampler2D_typeEv
libOpenCOLLADASaxFrameworkLoader.so:_ZN13COLLADASaxFWL22LibraryEffectsLoader1535end__wrap_s____fx_sampler_wrap_enumEv
libOpenCOLLADASaxFrameworkLoader.so:_ZN13COLLADASaxFWL22LibraryEffectsLoader1535end__wrap_t____fx_sampler_wrap_enumEv
libOpenCOLLADASaxFrameworkLoader.so:_ZN13COLLADASaxFWL22LibraryEffectsLoader1536data__wrap_s____fx_sampler_wrap_enumEN15COLLADASaxFWL1526ENUM__fx_sampler_wrap_enumE
libOpenCOLLADASaxFrameworkLoader.so:_ZN13COLLADASaxFWL22LibraryEffectsLoader1536data__wrap_t____fx_sampler_wrap_enumEN15COLLADASaxFWL1526ENUM__fx_sampler_wrap_enumE
libOpenCOLLADASaxFrameworkLoader.so:_ZN13COLLADASaxFWL22LibraryEffectsLoader1537begin__sampler2D____fx_sampler2D_typeEv
libOpenCOLLADASaxFrameworkLoader.so:_ZN13COLLADASaxFWL22LibraryEffectsLoader1537begin__wrap_s____fx_sampler_wrap_enumEv
libOpenCOLLADASaxFrameworkLoader.so:_ZN13COLLADASaxFWL22LibraryEffectsLoader1537begin__wrap_t____fx_sampler_wrap_enumEv
libOpenCOLLADASaxFrameworkLoader.so:_ZN13COLLADASaxFWL22LibraryEffectsLoader1537end__profile_common_type____techniqueEv
libOpenCOLLADASaxFrameworkLoader.so:_ZN13COLLADASaxFWL22LibraryEffectsLoader1539begin__profile_common_type____techniqueERKN15COLLADASaxFWL1547profile_common_type____technique__AttributeDataE
libOpenCOLLADASaxFrameworkLoader.so:_ZN13COLLADASaxFWL22LibraryEffectsLoader1540end__newparam____fx_common_newparam_typeEv
libOpenCOLLADASaxFrameworkLoader.so:_ZN13COLLADASaxFWL22LibraryEffectsLoader1540end__profile_COMMON__technique__constantEv
libOpenCOLLADASaxFrameworkLoader.so:_ZN13COLLADASaxFWL22LibraryEffectsLoader1542begin__newparam____fx_common_newparam_typeERKN15COLLADASaxFWL1550newparam____fx_common_newparam_type__AttributeDataE
libOpenCOLLADASaxFrameworkLoader.so:_ZN13COLLADASaxFWL22LibraryEffectsLoader1542begin__profile_COMMON__technique__constantEv
libOpenCOLLADASaxFrameworkLoader.so:_ZN13COLLADASaxFWL22LibraryEffectsLoader1543end__fx_common_float_or_param_type____floatEv
libOpenCOLLADASaxFrameworkLoader.so:_ZN13COLLADASaxFWL22LibraryEffectsLoader1544data__fx_common_float_or_param_type____floatEf
libOpenCOLLADASaxFrameworkLoader.so:_ZN13COLLADASaxFWL22LibraryEffectsLoader1545begin__fx_common_float_or_param_type____floatERKN15COLLADASaxFWL1553fx_common_float_or_param_type____float__AttributeDataE
libOpenCOLLADASaxFrameworkLoader.so:_ZN13COLLADASaxFWL22LibraryEffectsLoader1545end__fx_common_color_or_texture_type____colorEv
libOpenCOLLADASaxFrameworkLoader.so:_ZN13COLLADASaxFWL22LibraryEffectsLoader1546data__fx_common_color_or_texture_type____colorEPKfm
libOpenCOLLADASaxFrameworkLoader.so:_ZN13COLLADASaxFWL22LibraryEffectsLoader1547begin__fx_common_color_or_texture_type____colorERKN15COLLADASaxFWL1555fx_common_color_or_texture_type____color__AttributeDataE
libOpenCOLLADASaxFrameworkLoader.so:_ZN13COLLADASaxFWL22LibraryEffectsLoader1547end__ambient____fx_common_color_or_texture_typeEv
libOpenCOLLADASaxFrameworkLoader.so:_ZN13COLLADASaxFWL22LibraryEffectsLoader1549begin__ambient____fx_common_color_or_texture_typeEv
libOpenCOLLADASaxFrameworkLoader.so:_ZN13COLLADASaxFWL22LibraryMaterialsLoader11getUniqueIdEv
libOpenCOLLADASaxFrameworkLoader.so:_ZN13COLLADASaxFWL22LibraryMaterialsLoader13end__materialEv
libOpenCOLLADASaxFrameworkLoader.so:_ZN13COLLADASaxFWL22LibraryMaterialsLoader15begin__materialERKNS_23material__AttributeDataE
libOpenCOLLADASaxFrameworkLoader.so:_ZN13COLLADASaxFWL22LibraryMaterialsLoader20end__instance_effectEv
libOpenCOLLADASaxFrameworkLoader.so:_ZN13COLLADASaxFWL22LibraryMaterialsLoader22begin__instance_effectERKNS_30instance_effect__AttributeDataE
libOpenCOLLADASaxFrameworkLoader.so:_ZN13COLLADASaxFWL22LibraryMaterialsLoader22end__library_materialsEv
libOpenCOLLADASaxFrameworkLoader.so:_ZN13COLLADASaxFWL22LibraryMaterialsLoaderC1EPNS_15IFilePartLoaderE
libOpenCOLLADASaxFrameworkLoader.so:_ZN13COLLADASaxFWL22LibraryMaterialsLoaderC2EPNS_15IFilePartLoaderE
libOpenCOLLADASaxFrameworkLoader.so:_ZN13COLLADASaxFWL22LibraryMaterialsLoaderD0Ev
libOpenCOLLADASaxFrameworkLoader.so:_ZN13COLLADASaxFWL22LibraryMaterialsLoaderD1Ev
libOpenCOLLADASaxFrameworkLoader.so:_ZN13COLLADASaxFWL22LibraryMaterialsLoaderD2Ev
libOpenCOLLADASaxFrameworkLoader.so:_ZN13COLLADASaxFWL22MeshPrimitiveInputList11clearInputsEv
libOpenCOLLADASaxFrameworkLoader.so:_ZN13COLLADASaxFWL22MeshPrimitiveInputList18appendInputElementEPNS_11InputSharedE
libOpenCOLLADASaxFrameworkLoader.so:_ZN13COLLADASaxFWL23ExtraDataElementHandler10elementEndEPKc
libOpenCOLLADASaxFrameworkLoader.so:_ZN13COLLADASaxFWL23ExtraDataElementHandler12elementBeginEPKcPS2_
libOpenCOLLADASaxFrameworkLoader.so:_ZN13COLLADASaxFWL23ExtraDataElementHandler31setExtraDataCallbackHandlerListERKSt6vectorIPNS_25IExtraDataCallbackHandlerESaIS3_EE
libOpenCOLLADASaxFrameworkLoader.so:_ZN13COLLADASaxFWL23ExtraDataElementHandler34setExtraDataCallbackHandlerCallingEmb
libOpenCOLLADASaxFrameworkLoader.so:_ZN13COLLADASaxFWL23ExtraDataElementHandler8textDataEPKcm
libOpenCOLLADASaxFrameworkLoader.so:_ZN13COLLADASaxFWL23ExtraDataElementHandlerC1Ev
libOpenCOLLADASaxFrameworkLoader.so:_ZN13COLLADASaxFWL23ExtraDataElementHandlerC2Ev
libOpenCOLLADASaxFrameworkLoader.so:_ZN13COLLADASaxFWL23ExtraDataElementHandlerD0Ev
libOpenCOLLADASaxFrameworkLoader.so:_ZN13COLLADASaxFWL23ExtraDataElementHandlerD1Ev
libOpenCOLLADASaxFrameworkLoader.so:_ZN13COLLADASaxFWL23ExtraDataElementHandlerD2Ev
libOpenCOLLADASaxFrameworkLoader.so:_ZN13COLLADASaxFWL23KinematicsSidrefOrParam11deleteParamEv
libOpenCOLLADASaxFrameworkLoader.so:_ZN13COLLADASaxFWL23KinematicsSidrefOrParam12deleteSidRefEv
libOpenCOLLADASaxFrameworkLoader.so:_ZN13COLLADASaxFWL23KinematicsSidrefOrParam13setParamValueERKNSt7__cxx1112basic_stringIcSt11char_traitsIcESaIcEEE
libOpenCOLLADASaxFrameworkLoader.so:_ZN13COLLADASaxFWL23KinematicsSidrefOrParam14setSidrefValueERKNS_10SidAddressE
libOpenCOLLADASaxFrameworkLoader.so:_ZN13COLLADASaxFWL23KinematicsSidrefOrParam9deleteAllEv
libOpenCOLLADASaxFrameworkLoader.so:_ZN13COLLADASaxFWL23KinematicsSidrefOrParamC1ENS0_9ValueTypeE
libOpenCOLLADASaxFrameworkLoader.so:_ZN13COLLADASaxFWL23KinematicsSidrefOrParamC2ENS0_9ValueTypeE
libOpenCOLLADASaxFrameworkLoader.so:_ZN13COLLADASaxFWL23LibraryAnimationsLoader11end__sourceEv
libOpenCOLLADASaxFrameworkLoader.so:_ZN13COLLADASaxFWL23LibraryAnimationsLoader11getUniqueIdEv
libOpenCOLLADASaxFrameworkLoader.so:_ZN13COLLADASaxFWL23LibraryAnimationsLoader12end__channelEv
libOpenCOLLADASaxFrameworkLoader.so:_ZN13COLLADASaxFWL23LibraryAnimationsLoader12end__samplerEv
libOpenCOLLADASaxFrameworkLoader.so:_ZN13COLLADASaxFWL23LibraryAnimationsLoader13begin__sourceERKNS_21source__AttributeDataE
libOpenCOLLADASaxFrameworkLoader.so:_ZN13COLLADASaxFWL23LibraryAnimationsLoader14begin__channelERKNS_22channel__AttributeDataE
libOpenCOLLADASaxFrameworkLoader.so:_ZN13COLLADASaxFWL23LibraryAnimationsLoader14begin__samplerERKNS_22sampler__AttributeDataE
libOpenCOLLADASaxFrameworkLoader.so:_ZN13COLLADASaxFWL23LibraryAnimationsLoader14end__animationEv
libOpenCOLLADASaxFrameworkLoader.so:_ZN13COLLADASaxFWL23LibraryAnimationsLoader15end__Name_arrayEv
libOpenCOLLADASaxFrameworkLoader.so:_ZN13COLLADASaxFWL23LibraryAnimationsLoader16begin__animationERKNS_24animation__AttributeDataE
libOpenCOLLADASaxFrameworkLoader.so:_ZN13COLLADASaxFWL23LibraryAnimationsLoader16data__Name_arrayEPKN18GeneratedSaxParser12ParserStringEm
libOpenCOLLADASaxFrameworkLoader.so:_ZN13COLLADASaxFWL23LibraryAnimationsLoader17begin__Name_arrayERKNS_25Name_array__AttributeDataE
libOpenCOLLADASaxFrameworkLoader.so:_ZN13COLLADASaxFWL23LibraryAnimationsLoader23end__library_animationsEv
libOpenCOLLADASaxFrameworkLoader.so:_ZN13COLLADASaxFWL23LibraryAnimationsLoader26begin__input____InputLocalERKNS_34input____InputLocal__AttributeDataE
libOpenCOLLADASaxFrameworkLoader.so:_ZN13COLLADASaxFWL23LibraryAnimationsLoader27getAnimationInfoBySamplerIdERKNSt7__cxx1112basic_stringIcSt11char_traitsIcESaIcEEE
libOpenCOLLADASaxFrameworkLoader.so:_ZN13COLLADASaxFWL23LibraryAnimationsLoader28getInterpolationTypeByStringERKN18GeneratedSaxParser12ParserStringE
libOpenCOLLADASaxFrameworkLoader.so:_ZN13COLLADASaxFWL23LibraryAnimationsLoaderC1EPNS_15IFilePartLoaderE
libOpenCOLLADASaxFrameworkLoader.so:_ZN13COLLADASaxFWL23LibraryAnimationsLoaderC2EPNS_15IFilePartLoaderE
libOpenCOLLADASaxFrameworkLoader.so:_ZN13COLLADASaxFWL23LibraryAnimationsLoaderD0Ev
libOpenCOLLADASaxFrameworkLoader.so:_ZN13COLLADASaxFWL23LibraryAnimationsLoaderD1Ev
libOpenCOLLADASaxFrameworkLoader.so:_ZN13COLLADASaxFWL23LibraryAnimationsLoaderD2Ev
libOpenCOLLADASaxFrameworkLoader.so:_ZN13COLLADASaxFWL23LibraryFormulasLoader1521end__library_formulasEv
libOpenCOLLADASaxFrameworkLoader.so:_ZN13COLLADASaxFWL23determineAnimationClassERKSt6vectorINS_10SourceBase17AccessorParameterESaIS2_EE
libOpenCOLLADASaxFrameworkLoader.so:_ZN13COLLADASaxFWL24LibraryControllersLoader10end__morphEv
libOpenCOLLADASaxFrameworkLoader.so:_ZN13COLLADASaxFWL24LibraryControllersLoader11begin__skinERKNS_19skin__AttributeDataE
libOpenCOLLADASaxFrameworkLoader.so:_ZN13COLLADASaxFWL24LibraryControllersLoader11end__jointsEv
libOpenCOLLADASaxFrameworkLoader.so:_ZN13COLLADASaxFWL24LibraryControllersLoader11end__sourceEv
libOpenCOLLADASaxFrameworkLoader.so:_ZN13COLLADASaxFWL24LibraryControllersLoader11end__vcountEv
libOpenCOLLADASaxFrameworkLoader.so:_ZN13COLLADASaxFWL24LibraryControllersLoader11getUniqueIdEv
libOpenCOLLADASaxFrameworkLoader.so:_ZN13COLLADASaxFWL24LibraryControllersLoader12begin__morphERKNS_20morph__AttributeDataE
libOpenCOLLADASaxFrameworkLoader.so:_ZN13COLLADASaxFWL24LibraryControllersLoader12data__vcountEPKym
libOpenCOLLADASaxFrameworkLoader.so:_ZN13COLLADASaxFWL24LibraryControllersLoader13begin__jointsEv
libOpenCOLLADASaxFrameworkLoader.so:_ZN13COLLADASaxFWL24LibraryControllersLoader13begin__sourceERKNS_21source__AttributeDataE
libOpenCOLLADASaxFrameworkLoader.so:_ZN13COLLADASaxFWL24LibraryControllersLoader13begin__vcountEv
libOpenCOLLADASaxFrameworkLoader.so:_ZN13COLLADASaxFWL24LibraryControllersLoader13writeVIndicesEPKxm
libOpenCOLLADASaxFrameworkLoader.so:_ZN13COLLADASaxFWL24LibraryControllersLoader14dataJointArrayEPKN18GeneratedSaxParser12ParserStringEm
libOpenCOLLADASaxFrameworkLoader.so:_ZN13COLLADASaxFWL24LibraryControllersLoader15end__Name_arrayEv
libOpenCOLLADASaxFrameworkLoader.so:_ZN13COLLADASaxFWL24LibraryControllersLoader15end__controllerEv
libOpenCOLLADASaxFrameworkLoader.so:_ZN13COLLADASaxFWL24LibraryControllersLoader16beginJointsArrayEb
libOpenCOLLADASaxFrameworkLoader.so:_ZN13COLLADASaxFWL24LibraryControllersLoader16data__Name_arrayEPKN18GeneratedSaxParser12ParserStringEm
libOpenCOLLADASaxFrameworkLoader.so:_ZN13COLLADASaxFWL24LibraryControllersLoader16end__IDREF_arrayEv
libOpenCOLLADASaxFrameworkLoader.so:_ZN13COLLADASaxFWL24LibraryControllersLoader17begin__Name_arrayERKNS_25Name_array__AttributeDataE
libOpenCOLLADASaxFrameworkLoader.so:_ZN13COLLADASaxFWL24LibraryControllersLoader17begin__controllerERKNS_25controller__AttributeDataE
libOpenCOLLADASaxFrameworkLoader.so:_ZN13COLLADASaxFWL24LibraryControllersLoader17data__IDREF_arrayEPKN18GeneratedSaxParser12ParserStringEm
libOpenCOLLADASaxFrameworkLoader.so:_ZN13COLLADASaxFWL24LibraryControllersLoader18begin__IDREF_arrayERKNS_26IDREF_array__AttributeDataE
libOpenCOLLADASaxFrameworkLoader.so:_ZN13COLLADASaxFWL24LibraryControllersLoader19end__vertex_weightsEv
libOpenCOLLADASaxFrameworkLoader.so:_ZN13COLLADASaxFWL24LibraryControllersLoader21begin__vertex_weightsERKNS_29vertex_weights__AttributeDataE
libOpenCOLLADASaxFrameworkLoader.so:_ZN13COLLADASaxFWL24LibraryControllersLoader22end__bind_shape_matrixEv
libOpenCOLLADASaxFrameworkLoader.so:_ZN13COLLADASaxFWL24LibraryControllersLoader23data__bind_shape_matrixEPKfm
libOpenCOLLADASaxFrameworkLoader.so:_ZN13COLLADASaxFWL24LibraryControllersLoader24end__library_controllersEv
libOpenCOLLADASaxFrameworkLoader.so:_ZN13COLLADASaxFWL24LibraryControllersLoader26begin__input____InputLocalERKNS_34input____InputLocal__AttributeDataE
libOpenCOLLADASaxFrameworkLoader.so:_ZN13COLLADASaxFWL24LibraryControllersLoader30end__input____InputLocalOffsetEv
libOpenCOLLADASaxFrameworkLoader.so:_ZN13COLLADASaxFWL24LibraryControllersLoader32begin__input____InputLocalOffsetERKNS_40input____InputLocalOffset__AttributeDataE
libOpenCOLLADASaxFrameworkLoader.so:_ZN13COLLADASaxFWL24LibraryControllersLoader6end__vEv
libOpenCOLLADASaxFrameworkLoader.so:_ZN13COLLADASaxFWL24LibraryControllersLoader7data__vEPKxm
libOpenCOLLADASaxFrameworkLoader.so:_ZN13COLLADASaxFWL24LibraryControllersLoader8begin__vEv
libOpenCOLLADASaxFrameworkLoader.so:_ZN13COLLADASaxFWL24LibraryControllersLoader9end__skinEv
libOpenCOLLADASaxFrameworkLoader.so:_ZN13COLLADASaxFWL24LibraryControllersLoaderC1EPNS_15IFilePartLoaderE
libOpenCOLLADASaxFrameworkLoader.so:_ZN13COLLADASaxFWL24LibraryControllersLoaderC2EPNS_15IFilePartLoaderE
libOpenCOLLADASaxFrameworkLoader.so:_ZN13COLLADASaxFWL24LibraryControllersLoaderD0Ev
libOpenCOLLADASaxFrameworkLoader.so:_ZN13COLLADASaxFWL24LibraryControllersLoaderD1Ev
libOpenCOLLADASaxFrameworkLoader.so:_ZN13COLLADASaxFWL24LibraryControllersLoaderD2Ev
libOpenCOLLADASaxFrameworkLoader.so:_ZN13COLLADASaxFWL24LibraryMaterialsLoader1413end__materialEv
libOpenCOLLADASaxFrameworkLoader.so:_ZN13COLLADASaxFWL24LibraryMaterialsLoader1414end__techniqueEv
libOpenCOLLADASaxFrameworkLoader.so:_ZN13COLLADASaxFWL24LibraryMaterialsLoader1415begin__materialERKN15COLLADASaxFWL1423material__AttributeDataE
libOpenCOLLADASaxFrameworkLoader.so:_ZN13COLLADASaxFWL24LibraryMaterialsLoader1416begin__techniqueERKN15COLLADASaxFWL1424technique__AttributeDataE
libOpenCOLLADASaxFrameworkLoader.so:_ZN13COLLADASaxFWL24LibraryMaterialsLoader1420end__instance_effectEv
libOpenCOLLADASaxFrameworkLoader.so:_ZN13COLLADASaxFWL24LibraryMaterialsLoader1422begin__instance_effectERKN15COLLADASaxFWL1430instance_effect__AttributeDataE
libOpenCOLLADASaxFrameworkLoader.so:_ZN13COLLADASaxFWL24LibraryMaterialsLoader1422end__library_materialsEv
libOpenCOLLADASaxFrameworkLoader.so:_ZN13COLLADASaxFWL24LibraryMaterialsLoader1513end__materialEv
libOpenCOLLADASaxFrameworkLoader.so:_ZN13COLLADASaxFWL24LibraryMaterialsLoader1515begin__materialERKN15COLLADASaxFWL1523material__AttributeDataE
libOpenCOLLADASaxFrameworkLoader.so:_ZN13COLLADASaxFWL24LibraryMaterialsLoader1520end__instance_effectEv
libOpenCOLLADASaxFrameworkLoader.so:_ZN13COLLADASaxFWL24LibraryMaterialsLoader1522begin__instance_effectERKN15COLLADASaxFWL1530instance_effect__AttributeDataE
libOpenCOLLADASaxFrameworkLoader.so:_ZN13COLLADASaxFWL24LibraryMaterialsLoader1522end__library_materialsEv
libOpenCOLLADASaxFrameworkLoader.so:_ZN13COLLADASaxFWL24LibraryMaterialsLoader1532end__technique____technique_typeEv
libOpenCOLLADASaxFrameworkLoader.so:_ZN13COLLADASaxFWL24LibraryMaterialsLoader1534begin__technique____technique_typeERKN15COLLADASaxFWL1542technique____technique_type__AttributeDataE
libOpenCOLLADASaxFrameworkLoader.so:_ZN13COLLADASaxFWL24getSemanticBySemanticStrEPKc
libOpenCOLLADASaxFrameworkLoader.so:_ZN13COLLADASaxFWL25IExtraDataCallbackHandlerC1Ev
libOpenCOLLADASaxFrameworkLoader.so:_ZN13COLLADASaxFWL25IExtraDataCallbackHandlerC2Ev
libOpenCOLLADASaxFrameworkLoader.so:_ZN13COLLADASaxFWL25IExtraDataCallbackHandlerD0Ev
libOpenCOLLADASaxFrameworkLoader.so:_ZN13COLLADASaxFWL25IExtraDataCallbackHandlerD1Ev
libOpenCOLLADASaxFrameworkLoader.so:_ZN13COLLADASaxFWL25IExtraDataCallbackHandlerD2Ev
libOpenCOLLADASaxFrameworkLoader.so:_ZN13COLLADASaxFWL25LibraryAnimationsLoader1411end__sourceEv
libOpenCOLLADASaxFrameworkLoader.so:_ZN13COLLADASaxFWL25LibraryAnimationsLoader1412end__channelEv
libOpenCOLLADASaxFrameworkLoader.so:_ZN13COLLADASaxFWL25LibraryAnimationsLoader1412end__samplerEv
libOpenCOLLADASaxFrameworkLoader.so:_ZN13COLLADASaxFWL25LibraryAnimationsLoader1413begin__sourceERKN15COLLADASaxFWL1421source__AttributeDataE
libOpenCOLLADASaxFrameworkLoader.so:_ZN13COLLADASaxFWL25LibraryAnimationsLoader1414begin__channelERKN15COLLADASaxFWL1422channel__AttributeDataE
libOpenCOLLADASaxFrameworkLoader.so:_ZN13COLLADASaxFWL25LibraryAnimationsLoader1414begin__samplerERKN15COLLADASaxFWL1422sampler__AttributeDataE
libOpenCOLLADASaxFrameworkLoader.so:_ZN13COLLADASaxFWL25LibraryAnimationsLoader1414end__animationEv
libOpenCOLLADASaxFrameworkLoader.so:_ZN13COLLADASaxFWL25LibraryAnimationsLoader1414end__techniqueEv
libOpenCOLLADASaxFrameworkLoader.so:_ZN13COLLADASaxFWL25LibraryAnimationsLoader1415end__Name_arrayEv
libOpenCOLLADASaxFrameworkLoader.so:_ZN13COLLADASaxFWL25LibraryAnimationsLoader1416begin__animationERKN15COLLADASaxFWL1424animation__AttributeDataE
libOpenCOLLADASaxFrameworkLoader.so:_ZN13COLLADASaxFWL25LibraryAnimationsLoader1416begin__techniqueERKN15COLLADASaxFWL1424technique__AttributeDataE
libOpenCOLLADASaxFrameworkLoader.so:_ZN13COLLADASaxFWL25LibraryAnimationsLoader1416data__Name_arrayEPKN18GeneratedSaxParser12ParserStringEm
libOpenCOLLADASaxFrameworkLoader.so:_ZN13COLLADASaxFWL25LibraryAnimationsLoader1417begin__Name_arrayERKN15COLLADASaxFWL1425Name_array__AttributeDataE
libOpenCOLLADASaxFrameworkLoader.so:_ZN13COLLADASaxFWL25LibraryAnimationsLoader1423end__library_animationsEv
libOpenCOLLADASaxFrameworkLoader.so:_ZN13COLLADASaxFWL25LibraryAnimationsLoader1424end__input____InputLocalEv
libOpenCOLLADASaxFrameworkLoader.so:_ZN13COLLADASaxFWL25LibraryAnimationsLoader1426begin__input____InputLocalERKN15COLLADASaxFWL1434input____InputLocal__AttributeDataE
libOpenCOLLADASaxFrameworkLoader.so:_ZN13COLLADASaxFWL25LibraryAnimationsLoader1511end__sourceEv
libOpenCOLLADASaxFrameworkLoader.so:_ZN13COLLADASaxFWL25LibraryAnimationsLoader1512end__channelEv
libOpenCOLLADASaxFrameworkLoader.so:_ZN13COLLADASaxFWL25LibraryAnimationsLoader1512end__samplerEv
libOpenCOLLADASaxFrameworkLoader.so:_ZN13COLLADASaxFWL25LibraryAnimationsLoader1513begin__sourceERKN15COLLADASaxFWL1521source__AttributeDataE
libOpenCOLLADASaxFrameworkLoader.so:_ZN13COLLADASaxFWL25LibraryAnimationsLoader1514begin__channelERKN15COLLADASaxFWL1522channel__AttributeDataE
libOpenCOLLADASaxFrameworkLoader.so:_ZN13COLLADASaxFWL25LibraryAnimationsLoader1514begin__samplerERKN15COLLADASaxFWL1522sampler__AttributeDataE
libOpenCOLLADASaxFrameworkLoader.so:_ZN13COLLADASaxFWL25LibraryAnimationsLoader1514end__animationEv
libOpenCOLLADASaxFrameworkLoader.so:_ZN13COLLADASaxFWL25LibraryAnimationsLoader1515end__Name_arrayEv
libOpenCOLLADASaxFrameworkLoader.so:_ZN13COLLADASaxFWL25LibraryAnimationsLoader1516begin__animationERKN15COLLADASaxFWL1524animation__AttributeDataE
libOpenCOLLADASaxFrameworkLoader.so:_ZN13COLLADASaxFWL25LibraryAnimationsLoader1516data__Name_arrayEPKN18GeneratedSaxParser12ParserStringEm
libOpenCOLLADASaxFrameworkLoader.so:_ZN13COLLADASaxFWL25LibraryAnimationsLoader1517begin__Name_arrayERKN15COLLADASaxFWL1525Name_array__AttributeDataE
libOpenCOLLADASaxFrameworkLoader.so:_ZN13COLLADASaxFWL25LibraryAnimationsLoader1523end__library_animationsEv
libOpenCOLLADASaxFrameworkLoader.so:_ZN13COLLADASaxFWL25LibraryAnimationsLoader1530end__input____input_local_typeEv
libOpenCOLLADASaxFrameworkLoader.so:_ZN13COLLADASaxFWL25LibraryAnimationsLoader1532begin__input____input_local_typeERKN15COLLADASaxFWL1540input____input_local_type__AttributeDataE
libOpenCOLLADASaxFrameworkLoader.so:_ZN13COLLADASaxFWL25LibraryAnimationsLoader1532end__technique____technique_typeEv
libOpenCOLLADASaxFrameworkLoader.so:_ZN13COLLADASaxFWL25LibraryAnimationsLoader1534begin__technique____technique_typeERKN15COLLADASaxFWL1542technique____technique_type__AttributeDataE
libOpenCOLLADASaxFrameworkLoader.so:_ZN13COLLADASaxFWL26KinematicsIntermediateDataC1Ev
libOpenCOLLADASaxFrameworkLoader.so:_ZN13COLLADASaxFWL26KinematicsIntermediateDataC2Ev
libOpenCOLLADASaxFrameworkLoader.so:_ZN13COLLADASaxFWL26KinematicsIntermediateDataD0Ev
libOpenCOLLADASaxFrameworkLoader.so:_ZN13COLLADASaxFWL26KinematicsIntermediateDataD1Ev
libOpenCOLLADASaxFrameworkLoader.so:_ZN13COLLADASaxFWL26KinematicsIntermediateDataD2Ev
libOpenCOLLADASaxFrameworkLoader.so:_ZN13COLLADASaxFWL26LibraryControllersLoader1410end__morphEv
libOpenCOLLADASaxFrameworkLoader.so:_ZN13COLLADASaxFWL26LibraryControllersLoader1411begin__skinERKN15COLLADASaxFWL1419skin__AttributeDataE
libOpenCOLLADASaxFrameworkLoader.so:_ZN13COLLADASaxFWL26LibraryControllersLoader1411end__jointsEv
libOpenCOLLADASaxFrameworkLoader.so:_ZN13COLLADASaxFWL26LibraryControllersLoader1411end__sourceEv
libOpenCOLLADASaxFrameworkLoader.so:_ZN13COLLADASaxFWL26LibraryControllersLoader1411end__vcountEv
libOpenCOLLADASaxFrameworkLoader.so:_ZN13COLLADASaxFWL26LibraryControllersLoader1412begin__morphERKN15COLLADASaxFWL1420morph__AttributeDataE
libOpenCOLLADASaxFrameworkLoader.so:_ZN13COLLADASaxFWL26LibraryControllersLoader1412data__vcountEPKym
libOpenCOLLADASaxFrameworkLoader.so:_ZN13COLLADASaxFWL26LibraryControllersLoader1413begin__jointsEv
libOpenCOLLADASaxFrameworkLoader.so:_ZN13COLLADASaxFWL26LibraryControllersLoader1413begin__sourceERKN15COLLADASaxFWL1421source__AttributeDataE
libOpenCOLLADASaxFrameworkLoader.so:_ZN13COLLADASaxFWL26LibraryControllersLoader1413begin__vcountEv
libOpenCOLLADASaxFrameworkLoader.so:_ZN13COLLADASaxFWL26LibraryControllersLoader1414end__techniqueEv
libOpenCOLLADASaxFrameworkLoader.so:_ZN13COLLADASaxFWL26LibraryControllersLoader1415end__Name_arrayEv
libOpenCOLLADASaxFrameworkLoader.so:_ZN13COLLADASaxFWL26LibraryControllersLoader1415end__controllerEv
libOpenCOLLADASaxFrameworkLoader.so:_ZN13COLLADASaxFWL26LibraryControllersLoader1416begin__techniqueERKN15COLLADASaxFWL1424technique__AttributeDataE
libOpenCOLLADASaxFrameworkLoader.so:_ZN13COLLADASaxFWL26LibraryControllersLoader1416data__Name_arrayEPKN18GeneratedSaxParser12ParserStringEm
libOpenCOLLADASaxFrameworkLoader.so:_ZN13COLLADASaxFWL26LibraryControllersLoader1416end__IDREF_arrayEv
libOpenCOLLADASaxFrameworkLoader.so:_ZN13COLLADASaxFWL26LibraryControllersLoader1417begin__Name_arrayERKN15COLLADASaxFWL1425Name_array__AttributeDataE
libOpenCOLLADASaxFrameworkLoader.so:_ZN13COLLADASaxFWL26LibraryControllersLoader1417begin__controllerERKN15COLLADASaxFWL1425controller__AttributeDataE
libOpenCOLLADASaxFrameworkLoader.so:_ZN13COLLADASaxFWL26LibraryControllersLoader1417data__IDREF_arrayEPKN18GeneratedSaxParser12ParserStringEm
libOpenCOLLADASaxFrameworkLoader.so:_ZN13COLLADASaxFWL26LibraryControllersLoader1418begin__IDREF_arrayERKN15COLLADASaxFWL1426IDREF_array__AttributeDataE
libOpenCOLLADASaxFrameworkLoader.so:_ZN13COLLADASaxFWL26LibraryControllersLoader1419end__vertex_weightsEv
libOpenCOLLADASaxFrameworkLoader.so:_ZN13COLLADASaxFWL26LibraryControllersLoader1421begin__vertex_weightsERKN15COLLADASaxFWL1429vertex_weights__AttributeDataE
libOpenCOLLADASaxFrameworkLoader.so:_ZN13COLLADASaxFWL26LibraryControllersLoader1422end__bind_shape_matrixEv
libOpenCOLLADASaxFrameworkLoader.so:_ZN13COLLADASaxFWL26LibraryControllersLoader1423data__bind_shape_matrixEPKfm
libOpenCOLLADASaxFrameworkLoader.so:_ZN13COLLADASaxFWL26LibraryControllersLoader1424begin__bind_shape_matrixEv
libOpenCOLLADASaxFrameworkLoader.so:_ZN13COLLADASaxFWL26LibraryControllersLoader1424end__input____InputLocalEv
libOpenCOLLADASaxFrameworkLoader.so:_ZN13COLLADASaxFWL26LibraryControllersLoader1424end__library_controllersEv
libOpenCOLLADASaxFrameworkLoader.so:_ZN13COLLADASaxFWL26LibraryControllersLoader1426begin__input____InputLocalERKN15COLLADASaxFWL1434input____InputLocal__AttributeDataE
libOpenCOLLADASaxFrameworkLoader.so:_ZN13COLLADASaxFWL26LibraryControllersLoader1430end__input____InputLocalOffsetEv
libOpenCOLLADASaxFrameworkLoader.so:_ZN13COLLADASaxFWL26LibraryControllersLoader1432begin__input____InputLocalOffsetERKN15COLLADASaxFWL1440input____InputLocalOffset__AttributeDataE
libOpenCOLLADASaxFrameworkLoader.so:_ZN13COLLADASaxFWL26LibraryControllersLoader146end__vEv
libOpenCOLLADASaxFrameworkLoader.so:_ZN13COLLADASaxFWL26LibraryControllersLoader147data__vEPKxm
libOpenCOLLADASaxFrameworkLoader.so:_ZN13COLLADASaxFWL26LibraryControllersLoader148begin__vEv
libOpenCOLLADASaxFrameworkLoader.so:_ZN13COLLADASaxFWL26LibraryControllersLoader149end__skinEv
libOpenCOLLADASaxFrameworkLoader.so:_ZN13COLLADASaxFWL26LibraryControllersLoader1510end__morphEv
libOpenCOLLADASaxFrameworkLoader.so:_ZN13COLLADASaxFWL26LibraryControllersLoader1511begin__skinERKN15COLLADASaxFWL1519skin__AttributeDataE
libOpenCOLLADASaxFrameworkLoader.so:_ZN13COLLADASaxFWL26LibraryControllersLoader1511end__jointsEv
libOpenCOLLADASaxFrameworkLoader.so:_ZN13COLLADASaxFWL26LibraryControllersLoader1511end__sourceEv
libOpenCOLLADASaxFrameworkLoader.so:_ZN13COLLADASaxFWL26LibraryControllersLoader1511end__vcountEv
libOpenCOLLADASaxFrameworkLoader.so:_ZN13COLLADASaxFWL26LibraryControllersLoader1512begin__morphERKN15COLLADASaxFWL1520morph__AttributeDataE
libOpenCOLLADASaxFrameworkLoader.so:_ZN13COLLADASaxFWL26LibraryControllersLoader1512data__vcountEPKym
libOpenCOLLADASaxFrameworkLoader.so:_ZN13COLLADASaxFWL26LibraryControllersLoader1513begin__jointsEv
libOpenCOLLADASaxFrameworkLoader.so:_ZN13COLLADASaxFWL26LibraryControllersLoader1513begin__sourceERKN15COLLADASaxFWL1521source__AttributeDataE
libOpenCOLLADASaxFrameworkLoader.so:_ZN13COLLADASaxFWL26LibraryControllersLoader1513begin__vcountEv
libOpenCOLLADASaxFrameworkLoader.so:_ZN13COLLADASaxFWL26LibraryControllersLoader1515end__Name_arrayEv
libOpenCOLLADASaxFrameworkLoader.so:_ZN13COLLADASaxFWL26LibraryControllersLoader1515end__controllerEv
libOpenCOLLADASaxFrameworkLoader.so:_ZN13COLLADASaxFWL26LibraryControllersLoader1516data__Name_arrayEPKN18GeneratedSaxParser12ParserStringEm
libOpenCOLLADASaxFrameworkLoader.so:_ZN13COLLADASaxFWL26LibraryControllersLoader1516end__IDREF_arrayEv
libOpenCOLLADASaxFrameworkLoader.so:_ZN13COLLADASaxFWL26LibraryControllersLoader1517begin__Name_arrayERKN15COLLADASaxFWL1525Name_array__AttributeDataE
libOpenCOLLADASaxFrameworkLoader.so:_ZN13COLLADASaxFWL26LibraryControllersLoader1517begin__controllerERKN15COLLADASaxFWL1525controller__AttributeDataE
libOpenCOLLADASaxFrameworkLoader.so:_ZN13COLLADASaxFWL26LibraryControllersLoader1517data__IDREF_arrayEPKN18GeneratedSaxParser12ParserStringEm
libOpenCOLLADASaxFrameworkLoader.so:_ZN13COLLADASaxFWL26LibraryControllersLoader1518begin__IDREF_arrayERKN15COLLADASaxFWL1526IDREF_array__AttributeDataE
libOpenCOLLADASaxFrameworkLoader.so:_ZN13COLLADASaxFWL26LibraryControllersLoader1519end__vertex_weightsEv
libOpenCOLLADASaxFrameworkLoader.so:_ZN13COLLADASaxFWL26LibraryControllersLoader1521begin__vertex_weightsERKN15COLLADASaxFWL1529vertex_weights__AttributeDataE
libOpenCOLLADASaxFrameworkLoader.so:_ZN13COLLADASaxFWL26LibraryControllersLoader1522end__bind_shape_matrixEv
libOpenCOLLADASaxFrameworkLoader.so:_ZN13COLLADASaxFWL26LibraryControllersLoader1523data__bind_shape_matrixEPKfm
libOpenCOLLADASaxFrameworkLoader.so:_ZN13COLLADASaxFWL26LibraryControllersLoader1524begin__bind_shape_matrixEv
libOpenCOLLADASaxFrameworkLoader.so:_ZN13COLLADASaxFWL26LibraryControllersLoader1524end__library_controllersEv
libOpenCOLLADASaxFrameworkLoader.so:_ZN13COLLADASaxFWL26LibraryControllersLoader1530end__input____input_local_typeEv
libOpenCOLLADASaxFrameworkLoader.so:_ZN13COLLADASaxFWL26LibraryControllersLoader1532begin__input____input_local_typeERKN15COLLADASaxFWL1540input____input_local_type__AttributeDataE
libOpenCOLLADASaxFrameworkLoader.so:_ZN13COLLADASaxFWL26LibraryControllersLoader1532end__technique____technique_typeEv
libOpenCOLLADASaxFrameworkLoader.so:_ZN13COLLADASaxFWL26LibraryControllersLoader1534begin__technique____technique_typeERKN15COLLADASaxFWL1542technique____technique_type__AttributeDataE
libOpenCOLLADASaxFrameworkLoader.so:_ZN13COLLADASaxFWL26LibraryControllersLoader1537end__input____input_local_offset_typeEv
libOpenCOLLADASaxFrameworkLoader.so:_ZN13COLLADASaxFWL26LibraryControllersLoader1539begin__input____input_local_offset_typeERKN15COLLADASaxFWL1547input____input_local_offset_type__AttributeDataE
libOpenCOLLADASaxFrameworkLoader.so:_ZN13COLLADASaxFWL26LibraryControllersLoader156end__vEv
libOpenCOLLADASaxFrameworkLoader.so:_ZN13COLLADASaxFWL26LibraryControllersLoader157data__vEPKxm
libOpenCOLLADASaxFrameworkLoader.so:_ZN13COLLADASaxFWL26LibraryControllersLoader158begin__vEv
libOpenCOLLADASaxFrameworkLoader.so:_ZN13COLLADASaxFWL26LibraryControllersLoader159end__skinEv
libOpenCOLLADASaxFrameworkLoader.so:_ZN13COLLADASaxFWL27LibraryAnimationClipsLoader11getUniqueIdEv
libOpenCOLLADASaxFrameworkLoader.so:_ZN13COLLADASaxFWL27LibraryAnimationClipsLoader19end__animation_clipEv
libOpenCOLLADASaxFrameworkLoader.so:_ZN13COLLADASaxFWL27LibraryAnimationClipsLoader21begin__animation_clipERKNS_29animation_clip__AttributeDataE
libOpenCOLLADASaxFrameworkLoader.so:_ZN13COLLADASaxFWL27LibraryAnimationClipsLoader23end__instance_animationEv
libOpenCOLLADASaxFrameworkLoader.so:_ZN13COLLADASaxFWL27LibraryAnimationClipsLoader25begin__instance_animationERKNS_33instance_animation__AttributeDataE
libOpenCOLLADASaxFrameworkLoader.so:_ZN13COLLADASaxFWL27LibraryAnimationClipsLoader28end__library_animation_clipsEv
libOpenCOLLADASaxFrameworkLoader.so:_ZN13COLLADASaxFWL27LibraryAnimationClipsLoaderC1EPNS_15IFilePartLoaderE
libOpenCOLLADASaxFrameworkLoader.so:_ZN13COLLADASaxFWL27LibraryAnimationClipsLoaderC2EPNS_15IFilePartLoaderE
libOpenCOLLADASaxFrameworkLoader.so:_ZN13COLLADASaxFWL27LibraryAnimationClipsLoaderD0Ev
libOpenCOLLADASaxFrameworkLoader.so:_ZN13COLLADASaxFWL27LibraryAnimationClipsLoaderD1Ev
libOpenCOLLADASaxFrameworkLoader.so:_ZN13COLLADASaxFWL27LibraryAnimationClipsLoaderD2Ev
libOpenCOLLADASaxFrameworkLoader.so:_ZN13COLLADASaxFWL28libraryFlagsFunctionMapMap14E
libOpenCOLLADASaxFrameworkLoader.so:_ZN13COLLADASaxFWL28libraryFlagsFunctionMapMap15E
libOpenCOLLADASaxFrameworkLoader.so:_ZN13COLLADASaxFWL29COLLADA_LIBRARY_NODES_PAIR_14E
libOpenCOLLADASaxFrameworkLoader.so:_ZN13COLLADASaxFWL29COLLADA_LIBRARY_NODES_PAIR_15E
libOpenCOLLADASaxFrameworkLoader.so:_ZN13COLLADASaxFWL29InstanceKinematicsModelLoader10begin__intEv
libOpenCOLLADASaxFrameworkLoader.so:_ZN13COLLADASaxFWL29InstanceKinematicsModelLoader10data__boolEb
libOpenCOLLADASaxFrameworkLoader.so:_ZN13COLLADASaxFWL29InstanceKinematicsModelLoader10end__floatEv
libOpenCOLLADASaxFrameworkLoader.so:_ZN13COLLADASaxFWL29InstanceKinematicsModelLoader11begin__boolEv
libOpenCOLLADASaxFrameworkLoader.so:_ZN13COLLADASaxFWL29InstanceKinematicsModelLoader11data__floatEf
libOpenCOLLADASaxFrameworkLoader.so:_ZN13COLLADASaxFWL29InstanceKinematicsModelLoader11end__SIDREFEv
libOpenCOLLADASaxFrameworkLoader.so:_ZN13COLLADASaxFWL29InstanceKinematicsModelLoader12begin__floatEv
libOpenCOLLADASaxFrameworkLoader.so:_ZN13COLLADASaxFWL29InstanceKinematicsModelLoader12data__SIDREFEPKcm
libOpenCOLLADASaxFrameworkLoader.so:_ZN13COLLADASaxFWL29InstanceKinematicsModelLoader13begin__SIDREFEv
libOpenCOLLADASaxFrameworkLoader.so:_ZN13COLLADASaxFWL29InstanceKinematicsModelLoader41end__newparam____kinematics_newparam_typeEv
libOpenCOLLADASaxFrameworkLoader.so:_ZN13COLLADASaxFWL29InstanceKinematicsModelLoader43begin__newparam____kinematics_newparam_typeERKNS_51newparam____kinematics_newparam_type__AttributeDataE
libOpenCOLLADASaxFrameworkLoader.so:_ZN13COLLADASaxFWL29InstanceKinematicsModelLoader8end__intEv
libOpenCOLLADASaxFrameworkLoader.so:_ZN13COLLADASaxFWL29InstanceKinematicsModelLoader9data__intEi
libOpenCOLLADASaxFrameworkLoader.so:_ZN13COLLADASaxFWL29InstanceKinematicsModelLoader9end__boolEv
libOpenCOLLADASaxFrameworkLoader.so:_ZN13COLLADASaxFWL29InstanceKinematicsModelLoaderC1Ev
libOpenCOLLADASaxFrameworkLoader.so:_ZN13COLLADASaxFWL29InstanceKinematicsModelLoaderC2Ev
libOpenCOLLADASaxFrameworkLoader.so:_ZN13COLLADASaxFWL29InstanceKinematicsModelLoaderD0Ev
libOpenCOLLADASaxFrameworkLoader.so:_ZN13COLLADASaxFWL29InstanceKinematicsModelLoaderD1Ev
libOpenCOLLADASaxFrameworkLoader.so:_ZN13COLLADASaxFWL29InstanceKinematicsModelLoaderD2Ev
libOpenCOLLADASaxFrameworkLoader.so:_ZN13COLLADASaxFWL29LibraryAnimationClipsLoader1419end__animation_clipEv
libOpenCOLLADASaxFrameworkLoader.so:_ZN13COLLADASaxFWL29LibraryAnimationClipsLoader1421begin__animation_clipERKN15COLLADASaxFWL1429animation_clip__AttributeDataE
libOpenCOLLADASaxFrameworkLoader.so:_ZN13COLLADASaxFWL29LibraryAnimationClipsLoader1423end__instance_animationEv
libOpenCOLLADASaxFrameworkLoader.so:_ZN13COLLADASaxFWL29LibraryAnimationClipsLoader1425begin__instance_animationERKN15COLLADASaxFWL1433instance_animation__AttributeDataE
libOpenCOLLADASaxFrameworkLoader.so:_ZN13COLLADASaxFWL29LibraryAnimationClipsLoader1428end__library_animation_clipsEv
libOpenCOLLADASaxFrameworkLoader.so:_ZN13COLLADASaxFWL29LibraryAnimationClipsLoader1519end__animation_clipEv
libOpenCOLLADASaxFrameworkLoader.so:_ZN13COLLADASaxFWL29LibraryAnimationClipsLoader1521begin__animation_clipERKN15COLLADASaxFWL1529animation_clip__AttributeDataE
libOpenCOLLADASaxFrameworkLoader.so:_ZN13COLLADASaxFWL29LibraryAnimationClipsLoader1523end__instance_animationEv
libOpenCOLLADASaxFrameworkLoader.so:_ZN13COLLADASaxFWL29LibraryAnimationClipsLoader1525begin__instance_animationERKN15COLLADASaxFWL1533instance_animation__AttributeDataE
libOpenCOLLADASaxFrameworkLoader.so:_ZN13COLLADASaxFWL29LibraryAnimationClipsLoader1528end__library_animation_clipsEv
libOpenCOLLADASaxFrameworkLoader.so:_ZN13COLLADASaxFWL29LibraryKinematicsModelsLoader11begin__linkERKNS_19link__AttributeDataE
libOpenCOLLADASaxFrameworkLoader.so:_ZN13COLLADASaxFWL29LibraryKinematicsModelsLoader11end__rotateEv
libOpenCOLLADASaxFrameworkLoader.so:_ZN13COLLADASaxFWL29LibraryKinematicsModelsLoader11getUniqueIdEv
libOpenCOLLADASaxFrameworkLoader.so:_ZN13COLLADASaxFWL29LibraryKinematicsModelsLoader12data__rotateEPKfm
libOpenCOLLADASaxFrameworkLoader.so:_ZN13COLLADASaxFWL29LibraryKinematicsModelsLoader13begin__rotateERKNS_21rotate__AttributeDataE
libOpenCOLLADASaxFrameworkLoader.so:_ZN13COLLADASaxFWL29LibraryKinematicsModelsLoader13endAttachmentEv
libOpenCOLLADASaxFrameworkLoader.so:_ZN13COLLADASaxFWL29LibraryKinematicsModelsLoader14end__translateEv
libOpenCOLLADASaxFrameworkLoader.so:_ZN13COLLADASaxFWL29LibraryKinematicsModelsLoader15beginAttachmentENS_19KinematicAttachment4TypeERKNS_24attachment_AttributeDataE
libOpenCOLLADASaxFrameworkLoader.so:_ZN13COLLADASaxFWL29LibraryKinematicsModelsLoader15data__translateEPKfm
libOpenCOLLADASaxFrameworkLoader.so:_ZN13COLLADASaxFWL29LibraryKinematicsModelsLoader16begin__translateERKNS_24translate__AttributeDataE
libOpenCOLLADASaxFrameworkLoader.so:_ZN13COLLADASaxFWL29LibraryKinematicsModelsLoader17endTransformationEv
libOpenCOLLADASaxFrameworkLoader.so:_ZN13COLLADASaxFWL29LibraryKinematicsModelsLoader19end__attachment_endEv
libOpenCOLLADASaxFrameworkLoader.so:_ZN13COLLADASaxFWL29LibraryKinematicsModelsLoader19end__instance_jointEv
libOpenCOLLADASaxFrameworkLoader.so:_ZN13COLLADASaxFWL29LibraryKinematicsModelsLoader20end__attachment_fullEv
libOpenCOLLADASaxFrameworkLoader.so:_ZN13COLLADASaxFWL29LibraryKinematicsModelsLoader21begin__attachment_endERKNS_24attachment_AttributeDataE
libOpenCOLLADASaxFrameworkLoader.so:_ZN13COLLADASaxFWL29LibraryKinematicsModelsLoader21begin__instance_jointERKNS_29instance_joint__AttributeDataE
libOpenCOLLADASaxFrameworkLoader.so:_ZN13COLLADASaxFWL29LibraryKinematicsModelsLoader21end__attachment_startEv
libOpenCOLLADASaxFrameworkLoader.so:_ZN13COLLADASaxFWL29LibraryKinematicsModelsLoader21end__kinematics_modelEv
libOpenCOLLADASaxFrameworkLoader.so:_ZN13COLLADASaxFWL29LibraryKinematicsModelsLoader22begin__attachment_fullERKNS_24attachment_AttributeDataE
libOpenCOLLADASaxFrameworkLoader.so:_ZN13COLLADASaxFWL29LibraryKinematicsModelsLoader23begin__attachment_startERKNS_24attachment_AttributeDataE
libOpenCOLLADASaxFrameworkLoader.so:_ZN13COLLADASaxFWL29LibraryKinematicsModelsLoader23begin__kinematics_modelERKNS_31kinematics_model__AttributeDataE
libOpenCOLLADASaxFrameworkLoader.so:_ZN13COLLADASaxFWL29LibraryKinematicsModelsLoader30end__library_kinematics_modelsEv
libOpenCOLLADASaxFrameworkLoader.so:_ZN13COLLADASaxFWL29LibraryKinematicsModelsLoader9end__linkEv
libOpenCOLLADASaxFrameworkLoader.so:_ZN13COLLADASaxFWL29LibraryKinematicsModelsLoaderC1EPNS_15IFilePartLoaderE
libOpenCOLLADASaxFrameworkLoader.so:_ZN13COLLADASaxFWL29LibraryKinematicsModelsLoaderC2EPNS_15IFilePartLoaderE
libOpenCOLLADASaxFrameworkLoader.so:_ZN13COLLADASaxFWL29LibraryKinematicsModelsLoaderD0Ev
libOpenCOLLADASaxFrameworkLoader.so:_ZN13COLLADASaxFWL29LibraryKinematicsModelsLoaderD1Ev
libOpenCOLLADASaxFrameworkLoader.so:_ZN13COLLADASaxFWL29LibraryKinematicsModelsLoaderD2Ev
libOpenCOLLADASaxFrameworkLoader.so:_ZN13COLLADASaxFWL29LibraryKinematicsScenesLoader10begin__intEv
libOpenCOLLADASaxFrameworkLoader.so:_ZN13COLLADASaxFWL29LibraryKinematicsScenesLoader10data__boolEb
libOpenCOLLADASaxFrameworkLoader.so:_ZN13COLLADASaxFWL29LibraryKinematicsScenesLoader10end__floatEv
libOpenCOLLADASaxFrameworkLoader.so:_ZN13COLLADASaxFWL29LibraryKinematicsScenesLoader11begin__boolEv
libOpenCOLLADASaxFrameworkLoader.so:_ZN13COLLADASaxFWL29LibraryKinematicsScenesLoader11data__floatEf
libOpenCOLLADASaxFrameworkLoader.so:_ZN13COLLADASaxFWL29LibraryKinematicsScenesLoader11end__SIDREFEv
libOpenCOLLADASaxFrameworkLoader.so:_ZN13COLLADASaxFWL29LibraryKinematicsScenesLoader12begin__floatEv
libOpenCOLLADASaxFrameworkLoader.so:_ZN13COLLADASaxFWL29LibraryKinematicsScenesLoader12data__SIDREFEPKcm
libOpenCOLLADASaxFrameworkLoader.so:_ZN13COLLADASaxFWL29LibraryKinematicsScenesLoader13begin__SIDREFEv
libOpenCOLLADASaxFrameworkLoader.so:_ZN13COLLADASaxFWL29LibraryKinematicsScenesLoader21end__kinematics_sceneEv
libOpenCOLLADASaxFrameworkLoader.so:_ZN13COLLADASaxFWL29LibraryKinematicsScenesLoader23begin__kinematics_sceneERKNS_31kinematics_scene__AttributeDataE
libOpenCOLLADASaxFrameworkLoader.so:_ZN13COLLADASaxFWL29LibraryKinematicsScenesLoader30end__instance_kinematics_modelEv
libOpenCOLLADASaxFrameworkLoader.so:_ZN13COLLADASaxFWL29LibraryKinematicsScenesLoader30end__library_kinematics_scenesEv
libOpenCOLLADASaxFrameworkLoader.so:_ZN13COLLADASaxFWL29LibraryKinematicsScenesLoader32begin__instance_kinematics_modelERKNS_40instance_kinematics_model__AttributeDataE
libOpenCOLLADASaxFrameworkLoader.so:_ZN13COLLADASaxFWL29LibraryKinematicsScenesLoader32end__instance_articulated_systemEv
libOpenCOLLADASaxFrameworkLoader.so:_ZN13COLLADASaxFWL29LibraryKinematicsScenesLoader33end__bind____kinematics_bind_typeEv
libOpenCOLLADASaxFrameworkLoader.so:_ZN13COLLADASaxFWL29LibraryKinematicsScenesLoader34begin__instance_articulated_systemERKNS_42instance_articulated_system__AttributeDataE
libOpenCOLLADASaxFrameworkLoader.so:_ZN13COLLADASaxFWL29LibraryKinematicsScenesLoader35begin__bind____kinematics_bind_typeERKNS_43bind____kinematics_bind_type__AttributeDataE
libOpenCOLLADASaxFrameworkLoader.so:_ZN13COLLADASaxFWL29LibraryKinematicsScenesLoader35end__param____kinematics_param_typeEv
libOpenCOLLADASaxFrameworkLoader.so:_ZN13COLLADASaxFWL29LibraryKinematicsScenesLoader37begin__param____kinematics_param_typeERKNS_45param____kinematics_param_type__AttributeDataE
libOpenCOLLADASaxFrameworkLoader.so:_ZN13COLLADASaxFWL29LibraryKinematicsScenesLoader41end__newparam____kinematics_newparam_typeEv
libOpenCOLLADASaxFrameworkLoader.so:_ZN13COLLADASaxFWL29LibraryKinematicsScenesLoader43begin__newparam____kinematics_newparam_typeERKNS_51newparam____kinematics_newparam_type__AttributeDataE
libOpenCOLLADASaxFrameworkLoader.so:_ZN13COLLADASaxFWL29LibraryKinematicsScenesLoader8end__intEv
libOpenCOLLADASaxFrameworkLoader.so:_ZN13COLLADASaxFWL29LibraryKinematicsScenesLoader9data__intEi
libOpenCOLLADASaxFrameworkLoader.so:_ZN13COLLADASaxFWL29LibraryKinematicsScenesLoader9end__boolEv
libOpenCOLLADASaxFrameworkLoader.so:_ZN13COLLADASaxFWL29LibraryKinematicsScenesLoaderC1EPNS_15IFilePartLoaderE
libOpenCOLLADASaxFrameworkLoader.so:_ZN13COLLADASaxFWL29LibraryKinematicsScenesLoaderC2EPNS_15IFilePartLoaderE
libOpenCOLLADASaxFrameworkLoader.so:_ZN13COLLADASaxFWL29LibraryKinematicsScenesLoaderD0Ev
libOpenCOLLADASaxFrameworkLoader.so:_ZN13COLLADASaxFWL29LibraryKinematicsScenesLoaderD1Ev
libOpenCOLLADASaxFrameworkLoader.so:_ZN13COLLADASaxFWL29LibraryKinematicsScenesLoaderD2Ev
libOpenCOLLADASaxFrameworkLoader.so:_ZN13COLLADASaxFWL30COLLADA_LIBRARY_IMAGES_PAIR_14E
libOpenCOLLADASaxFrameworkLoader.so:_ZN13COLLADASaxFWL30COLLADA_LIBRARY_IMAGES_PAIR_15E
libOpenCOLLADASaxFrameworkLoader.so:_ZN13COLLADASaxFWL30COLLADA_LIBRARY_LIGHTS_PAIR_14E
libOpenCOLLADASaxFrameworkLoader.so:_ZN13COLLADASaxFWL30COLLADA_LIBRARY_LIGHTS_PAIR_15E
libOpenCOLLADASaxFrameworkLoader.so:_ZN13COLLADASaxFWL31COLLADA_LIBRARY_CAMERAS_PAIR_14E
libOpenCOLLADASaxFrameworkLoader.so:_ZN13COLLADASaxFWL31COLLADA_LIBRARY_CAMERAS_PAIR_15E
libOpenCOLLADASaxFrameworkLoader.so:_ZN13COLLADASaxFWL31COLLADA_LIBRARY_EFFECTS_PAIR_14E
libOpenCOLLADASaxFrameworkLoader.so:_ZN13COLLADASaxFWL31COLLADA_LIBRARY_EFFECTS_PAIR_15E
libOpenCOLLADASaxFrameworkLoader.so:_ZN13COLLADASaxFWL31InstanceArticulatedSystemLoader28getInstanceArticulatedSystemEv
libOpenCOLLADASaxFrameworkLoader.so:_ZN13COLLADASaxFWL31InstanceArticulatedSystemLoader28setInstanceArticulatedSystemEPNS_35KinematicsInstanceArticulatedSystemE
libOpenCOLLADASaxFrameworkLoader.so:_ZN13COLLADASaxFWL31InstanceArticulatedSystemLoader33end__bind____kinematics_bind_typeEv
libOpenCOLLADASaxFrameworkLoader.so:_ZN13COLLADASaxFWL31InstanceArticulatedSystemLoader35begin__bind____kinematics_bind_typeERKNS_43bind____kinematics_bind_type__AttributeDataE
libOpenCOLLADASaxFrameworkLoader.so:_ZN13COLLADASaxFWL31InstanceArticulatedSystemLoader37begin__param____kinematics_param_typeERKNS_45param____kinematics_param_type__AttributeDataE
libOpenCOLLADASaxFrameworkLoader.so:_ZN13COLLADASaxFWL31InstanceArticulatedSystemLoaderC1Ev
libOpenCOLLADASaxFrameworkLoader.so:_ZN13COLLADASaxFWL31InstanceArticulatedSystemLoaderC2Ev
libOpenCOLLADASaxFrameworkLoader.so:_ZN13COLLADASaxFWL31InstanceArticulatedSystemLoaderD0Ev
libOpenCOLLADASaxFrameworkLoader.so:_ZN13COLLADASaxFWL31InstanceArticulatedSystemLoaderD1Ev
libOpenCOLLADASaxFrameworkLoader.so:_ZN13COLLADASaxFWL31InstanceArticulatedSystemLoaderD2Ev
libOpenCOLLADASaxFrameworkLoader.so:_ZN13COLLADASaxFWL31LibraryArticulatedSystemsLoader10begin__intEv
libOpenCOLLADASaxFrameworkLoader.so:_ZN13COLLADASaxFWL31LibraryArticulatedSystemsLoader10data__boolEb
libOpenCOLLADASaxFrameworkLoader.so:_ZN13COLLADASaxFWL31LibraryArticulatedSystemsLoader10end__floatEv
libOpenCOLLADASaxFrameworkLoader.so:_ZN13COLLADASaxFWL31LibraryArticulatedSystemsLoader10end__indexEv
libOpenCOLLADASaxFrameworkLoader.so:_ZN13COLLADASaxFWL31LibraryArticulatedSystemsLoader11begin__boolEv
libOpenCOLLADASaxFrameworkLoader.so:_ZN13COLLADASaxFWL31LibraryArticulatedSystemsLoader11data__floatEf
libOpenCOLLADASaxFrameworkLoader.so:_ZN13COLLADASaxFWL31LibraryArticulatedSystemsLoader11end__SIDREFEv
libOpenCOLLADASaxFrameworkLoader.so:_ZN13COLLADASaxFWL31LibraryArticulatedSystemsLoader11end__activeEv
libOpenCOLLADASaxFrameworkLoader.so:_ZN13COLLADASaxFWL31LibraryArticulatedSystemsLoader11end__lockedEv
libOpenCOLLADASaxFrameworkLoader.so:_ZN13COLLADASaxFWL31LibraryArticulatedSystemsLoader11getUniqueIdEv
libOpenCOLLADASaxFrameworkLoader.so:_ZN13COLLADASaxFWL31LibraryArticulatedSystemsLoader12begin__floatEv
libOpenCOLLADASaxFrameworkLoader.so:_ZN13COLLADASaxFWL31LibraryArticulatedSystemsLoader12begin__indexERKNS_20index__AttributeDataE
libOpenCOLLADASaxFrameworkLoader.so:_ZN13COLLADASaxFWL31LibraryArticulatedSystemsLoader12data__SIDREFEPKcm
libOpenCOLLADASaxFrameworkLoader.so:_ZN13COLLADASaxFWL31LibraryArticulatedSystemsLoader13begin__SIDREFEv
libOpenCOLLADASaxFrameworkLoader.so:_ZN13COLLADASaxFWL31LibraryArticulatedSystemsLoader13begin__activeEv
libOpenCOLLADASaxFrameworkLoader.so:_ZN13COLLADASaxFWL31LibraryArticulatedSystemsLoader13begin__lockedEv
libOpenCOLLADASaxFrameworkLoader.so:_ZN13COLLADASaxFWL31LibraryArticulatedSystemsLoader15end__kinematicsEv
libOpenCOLLADASaxFrameworkLoader.so:_ZN13COLLADASaxFWL31LibraryArticulatedSystemsLoader17begin__kinematicsEv
libOpenCOLLADASaxFrameworkLoader.so:_ZN13COLLADASaxFWL31LibraryArticulatedSystemsLoader23end__articulated_systemEv
libOpenCOLLADASaxFrameworkLoader.so:_ZN13COLLADASaxFWL31LibraryArticulatedSystemsLoader25begin__articulated_systemERKNS_33articulated_system__AttributeDataE
libOpenCOLLADASaxFrameworkLoader.so:_ZN13COLLADASaxFWL31LibraryArticulatedSystemsLoader30end__instance_kinematics_modelEv
libOpenCOLLADASaxFrameworkLoader.so:_ZN13COLLADASaxFWL31LibraryArticulatedSystemsLoader32begin__instance_kinematics_modelERKNS_40instance_kinematics_model__AttributeDataE
libOpenCOLLADASaxFrameworkLoader.so:_ZN13COLLADASaxFWL31LibraryArticulatedSystemsLoader32end__library_articulated_systemsEv
libOpenCOLLADASaxFrameworkLoader.so:_ZN13COLLADASaxFWL31LibraryArticulatedSystemsLoader41end__newparam____kinematics_newparam_typeEv
libOpenCOLLADASaxFrameworkLoader.so:_ZN13COLLADASaxFWL31LibraryArticulatedSystemsLoader43begin__newparam____kinematics_newparam_typeERKNS_51newparam____kinematics_newparam_type__AttributeDataE
libOpenCOLLADASaxFrameworkLoader.so:_ZN13COLLADASaxFWL31LibraryArticulatedSystemsLoader43end__axis_info____kinematics_axis_info_typeEv
libOpenCOLLADASaxFrameworkLoader.so:_ZN13COLLADASaxFWL31LibraryArticulatedSystemsLoader45begin__axis_info____kinematics_axis_info_typeERKNS_53axis_info____kinematics_axis_info_type__AttributeDataE
libOpenCOLLADASaxFrameworkLoader.so:_ZN13COLLADASaxFWL31LibraryArticulatedSystemsLoader8end__intEv
libOpenCOLLADASaxFrameworkLoader.so:_ZN13COLLADASaxFWL31LibraryArticulatedSystemsLoader9data__intEi
libOpenCOLLADASaxFrameworkLoader.so:_ZN13COLLADASaxFWL31LibraryArticulatedSystemsLoader9end__boolEv
libOpenCOLLADASaxFrameworkLoader.so:_ZN13COLLADASaxFWL31LibraryArticulatedSystemsLoaderC1EPNS_15IFilePartLoaderE
libOpenCOLLADASaxFrameworkLoader.so:_ZN13COLLADASaxFWL31LibraryArticulatedSystemsLoaderC2EPNS_15IFilePartLoaderE
libOpenCOLLADASaxFrameworkLoader.so:_ZN13COLLADASaxFWL31LibraryArticulatedSystemsLoaderD0Ev
libOpenCOLLADASaxFrameworkLoader.so:_ZN13COLLADASaxFWL31LibraryArticulatedSystemsLoaderD1Ev
libOpenCOLLADASaxFrameworkLoader.so:_ZN13COLLADASaxFWL31LibraryArticulatedSystemsLoaderD2Ev
libOpenCOLLADASaxFrameworkLoader.so:_ZN13COLLADASaxFWL31LibraryKinematicsModelsLoader1510end__jointEv
libOpenCOLLADASaxFrameworkLoader.so:_ZN13COLLADASaxFWL31LibraryKinematicsModelsLoader1511begin__linkERKN15COLLADASaxFWL1519link__AttributeDataE
libOpenCOLLADASaxFrameworkLoader.so:_ZN13COLLADASaxFWL31LibraryKinematicsModelsLoader1511end__rotateEv
libOpenCOLLADASaxFrameworkLoader.so:_ZN13COLLADASaxFWL31LibraryKinematicsModelsLoader1512begin__jointERKN15COLLADASaxFWL1520joint__AttributeDataE
libOpenCOLLADASaxFrameworkLoader.so:_ZN13COLLADASaxFWL31LibraryKinematicsModelsLoader1512data__rotateEPKfm
libOpenCOLLADASaxFrameworkLoader.so:_ZN13COLLADASaxFWL31LibraryKinematicsModelsLoader1513begin__rotateERKN15COLLADASaxFWL1521rotate__AttributeDataE
libOpenCOLLADASaxFrameworkLoader.so:_ZN13COLLADASaxFWL31LibraryKinematicsModelsLoader1513end__revoluteEv
libOpenCOLLADASaxFrameworkLoader.so:_ZN13COLLADASaxFWL31LibraryKinematicsModelsLoader1514end__prismaticEv
libOpenCOLLADASaxFrameworkLoader.so:_ZN13COLLADASaxFWL31LibraryKinematicsModelsLoader1514end__translateEv
libOpenCOLLADASaxFrameworkLoader.so:_ZN13COLLADASaxFWL31LibraryKinematicsModelsLoader1515begin__revoluteERKN15COLLADASaxFWL1523revolute__AttributeDataE
libOpenCOLLADASaxFrameworkLoader.so:_ZN13COLLADASaxFWL31LibraryKinematicsModelsLoader1515data__translateEPKfm
libOpenCOLLADASaxFrameworkLoader.so:_ZN13COLLADASaxFWL31LibraryKinematicsModelsLoader1516begin__prismaticERKN15COLLADASaxFWL1524prismatic__AttributeDataE
libOpenCOLLADASaxFrameworkLoader.so:_ZN13COLLADASaxFWL31LibraryKinematicsModelsLoader1516begin__translateERKN15COLLADASaxFWL1524translate__AttributeDataE
libOpenCOLLADASaxFrameworkLoader.so:_ZN13COLLADASaxFWL31LibraryKinematicsModelsLoader1519end__attachment_endEv
libOpenCOLLADASaxFrameworkLoader.so:_ZN13COLLADASaxFWL31LibraryKinematicsModelsLoader1519end__instance_jointEv
libOpenCOLLADASaxFrameworkLoader.so:_ZN13COLLADASaxFWL31LibraryKinematicsModelsLoader1520end__attachment_fullEv
libOpenCOLLADASaxFrameworkLoader.so:_ZN13COLLADASaxFWL31LibraryKinematicsModelsLoader1521begin__attachment_endERKN15COLLADASaxFWL1529attachment_end__AttributeDataE
libOpenCOLLADASaxFrameworkLoader.so:_ZN13COLLADASaxFWL31LibraryKinematicsModelsLoader1521begin__instance_jointERKN15COLLADASaxFWL1529instance_joint__AttributeDataE
libOpenCOLLADASaxFrameworkLoader.so:_ZN13COLLADASaxFWL31LibraryKinematicsModelsLoader1521end__attachment_startEv
libOpenCOLLADASaxFrameworkLoader.so:_ZN13COLLADASaxFWL31LibraryKinematicsModelsLoader1521end__kinematics_modelEv
libOpenCOLLADASaxFrameworkLoader.so:_ZN13COLLADASaxFWL31LibraryKinematicsModelsLoader1522begin__attachment_fullERKN15COLLADASaxFWL1530attachment_full__AttributeDataE
libOpenCOLLADASaxFrameworkLoader.so:_ZN13COLLADASaxFWL31LibraryKinematicsModelsLoader1522end__axis____axis_typeEv
libOpenCOLLADASaxFrameworkLoader.so:_ZN13COLLADASaxFWL31LibraryKinematicsModelsLoader1523begin__attachment_startERKN15COLLADASaxFWL1531attachment_start__AttributeDataE
libOpenCOLLADASaxFrameworkLoader.so:_ZN13COLLADASaxFWL31LibraryKinematicsModelsLoader1523begin__kinematics_modelERKN15COLLADASaxFWL1531kinematics_model__AttributeDataE
libOpenCOLLADASaxFrameworkLoader.so:_ZN13COLLADASaxFWL31LibraryKinematicsModelsLoader1523data__axis____axis_typeEPKfm
libOpenCOLLADASaxFrameworkLoader.so:_ZN13COLLADASaxFWL31LibraryKinematicsModelsLoader1523end__max____minmax_typeEv
libOpenCOLLADASaxFrameworkLoader.so:_ZN13COLLADASaxFWL31LibraryKinematicsModelsLoader1523end__min____minmax_typeEv
libOpenCOLLADASaxFrameworkLoader.so:_ZN13COLLADASaxFWL31LibraryKinematicsModelsLoader1524begin__axis____axis_typeERKN15COLLADASaxFWL1532axis____axis_type__AttributeDataE
libOpenCOLLADASaxFrameworkLoader.so:_ZN13COLLADASaxFWL31LibraryKinematicsModelsLoader1524data__max____minmax_typeEf
libOpenCOLLADASaxFrameworkLoader.so:_ZN13COLLADASaxFWL31LibraryKinematicsModelsLoader1524data__min____minmax_typeEf
libOpenCOLLADASaxFrameworkLoader.so:_ZN13COLLADASaxFWL31LibraryKinematicsModelsLoader1525begin__max____minmax_typeERKN15COLLADASaxFWL1533min____minmax_type__AttributeDataE
libOpenCOLLADASaxFrameworkLoader.so:_ZN13COLLADASaxFWL31LibraryKinematicsModelsLoader1525begin__min____minmax_typeERKN15COLLADASaxFWL1533min____minmax_type__AttributeDataE
libOpenCOLLADASaxFrameworkLoader.so:_ZN13COLLADASaxFWL31LibraryKinematicsModelsLoader1530end__library_kinematics_modelsEv
libOpenCOLLADASaxFrameworkLoader.so:_ZN13COLLADASaxFWL31LibraryKinematicsModelsLoader1532end__limits____joint_limits_typeEv
libOpenCOLLADASaxFrameworkLoader.so:_ZN13COLLADASaxFWL31LibraryKinematicsModelsLoader1532end__technique____technique_typeEv
libOpenCOLLADASaxFrameworkLoader.so:_ZN13COLLADASaxFWL31LibraryKinematicsModelsLoader1534begin__limits____joint_limits_typeEv
libOpenCOLLADASaxFrameworkLoader.so:_ZN13COLLADASaxFWL31LibraryKinematicsModelsLoader1534begin__technique____technique_typeERKN15COLLADASaxFWL1542technique____technique_type__AttributeDataE
libOpenCOLLADASaxFrameworkLoader.so:_ZN13COLLADASaxFWL31LibraryKinematicsModelsLoader1541end__newparam____kinematics_newparam_typeEv
libOpenCOLLADASaxFrameworkLoader.so:_ZN13COLLADASaxFWL31LibraryKinematicsModelsLoader1543begin__newparam____kinematics_newparam_typeERKN15COLLADASaxFWL1551newparam____kinematics_newparam_type__AttributeDataE
libOpenCOLLADASaxFrameworkLoader.so:_ZN13COLLADASaxFWL31LibraryKinematicsModelsLoader1556end__technique_common____kinematics_model_technique_typeEv
libOpenCOLLADASaxFrameworkLoader.so:_ZN13COLLADASaxFWL31LibraryKinematicsModelsLoader1558begin__technique_common____kinematics_model_technique_typeEv
libOpenCOLLADASaxFrameworkLoader.so:_ZN13COLLADASaxFWL31LibraryKinematicsModelsLoader159end__linkEv
libOpenCOLLADASaxFrameworkLoader.so:_ZN13COLLADASaxFWL31LibraryKinematicsScenesLoader1510data__boolEb
libOpenCOLLADASaxFrameworkLoader.so:_ZN13COLLADASaxFWL31LibraryKinematicsScenesLoader1511begin__boolEv
libOpenCOLLADASaxFrameworkLoader.so:_ZN13COLLADASaxFWL31LibraryKinematicsScenesLoader1511end__SIDREFEv
libOpenCOLLADASaxFrameworkLoader.so:_ZN13COLLADASaxFWL31LibraryKinematicsScenesLoader1512data__SIDREFEPKcm
libOpenCOLLADASaxFrameworkLoader.so:_ZN13COLLADASaxFWL31LibraryKinematicsScenesLoader1513begin__SIDREFEv
libOpenCOLLADASaxFrameworkLoader.so:_ZN13COLLADASaxFWL31LibraryKinematicsScenesLoader1520end__int____int_typeEv
libOpenCOLLADASaxFrameworkLoader.so:_ZN13COLLADASaxFWL31LibraryKinematicsScenesLoader1521data__int____int_typeEx
libOpenCOLLADASaxFrameworkLoader.so:_ZN13COLLADASaxFWL31LibraryKinematicsScenesLoader1521end__kinematics_sceneEv
libOpenCOLLADASaxFrameworkLoader.so:_ZN13COLLADASaxFWL31LibraryKinematicsScenesLoader1522begin__int____int_typeEv
libOpenCOLLADASaxFrameworkLoader.so:_ZN13COLLADASaxFWL31LibraryKinematicsScenesLoader1523begin__kinematics_sceneERKN15COLLADASaxFWL1531kinematics_scene__AttributeDataE
libOpenCOLLADASaxFrameworkLoader.so:_ZN13COLLADASaxFWL31LibraryKinematicsScenesLoader1524end__float____float_typeEv
libOpenCOLLADASaxFrameworkLoader.so:_ZN13COLLADASaxFWL31LibraryKinematicsScenesLoader1525data__float____float_typeEf
libOpenCOLLADASaxFrameworkLoader.so:_ZN13COLLADASaxFWL31LibraryKinematicsScenesLoader1526begin__float____float_typeEv
libOpenCOLLADASaxFrameworkLoader.so:_ZN13COLLADASaxFWL31LibraryKinematicsScenesLoader1530end__instance_kinematics_modelEv
libOpenCOLLADASaxFrameworkLoader.so:_ZN13COLLADASaxFWL31LibraryKinematicsScenesLoader1530end__library_kinematics_scenesEv
libOpenCOLLADASaxFrameworkLoader.so:_ZN13COLLADASaxFWL31LibraryKinematicsScenesLoader1532begin__instance_kinematics_modelERKN15COLLADASaxFWL1540instance_kinematics_model__AttributeDataE
libOpenCOLLADASaxFrameworkLoader.so:_ZN13COLLADASaxFWL31LibraryKinematicsScenesLoader1533end__bind____kinematics_bind_typeEv
libOpenCOLLADASaxFrameworkLoader.so:_ZN13COLLADASaxFWL31LibraryKinematicsScenesLoader1535begin__bind____kinematics_bind_typeERKN15COLLADASaxFWL1543bind____kinematics_bind_type__AttributeDataE
libOpenCOLLADASaxFrameworkLoader.so:_ZN13COLLADASaxFWL31LibraryKinematicsScenesLoader1535end__param____kinematics_param_typeEv
libOpenCOLLADASaxFrameworkLoader.so:_ZN13COLLADASaxFWL31LibraryKinematicsScenesLoader1537begin__param____kinematics_param_typeERKN15COLLADASaxFWL1545param____kinematics_param_type__AttributeDataE
libOpenCOLLADASaxFrameworkLoader.so:_ZN13COLLADASaxFWL31LibraryKinematicsScenesLoader1541end__newparam____kinematics_newparam_typeEv
libOpenCOLLADASaxFrameworkLoader.so:_ZN13COLLADASaxFWL31LibraryKinematicsScenesLoader1543begin__newparam____kinematics_newparam_typeERKN15COLLADASaxFWL1551newparam____kinematics_newparam_type__AttributeDataE
libOpenCOLLADASaxFrameworkLoader.so:_ZN13COLLADASaxFWL31LibraryKinematicsScenesLoader159end__boolEv
libOpenCOLLADASaxFrameworkLoader.so:_ZN13COLLADASaxFWL32libraryFlagsFunctionMapMapSize14E
libOpenCOLLADASaxFrameworkLoader.so:_ZN13COLLADASaxFWL32libraryFlagsFunctionMapMapSize15E
libOpenCOLLADASaxFrameworkLoader.so:_ZN13COLLADASaxFWL33COLLADA_LIBRARY_MATERIALS_PAIR_14E
libOpenCOLLADASaxFrameworkLoader.so:_ZN13COLLADASaxFWL33COLLADA_LIBRARY_MATERIALS_PAIR_15E
libOpenCOLLADASaxFrameworkLoader.so:_ZN13COLLADASaxFWL33KinematicsInstanceKinematicsModel21addKinematicsNewParamEPNS_18KinematicsNewParamE
libOpenCOLLADASaxFrameworkLoader.so:_ZN13COLLADASaxFWL33KinematicsInstanceKinematicsSceneD0Ev
libOpenCOLLADASaxFrameworkLoader.so:_ZN13COLLADASaxFWL33KinematicsInstanceKinematicsSceneD1Ev
libOpenCOLLADASaxFrameworkLoader.so:_ZN13COLLADASaxFWL33KinematicsInstanceKinematicsSceneD2Ev
libOpenCOLLADASaxFrameworkLoader.so:_ZN13COLLADASaxFWL33LibraryArticulatedSystemsLoader1510data__boolEb
libOpenCOLLADASaxFrameworkLoader.so:_ZN13COLLADASaxFWL33LibraryArticulatedSystemsLoader1510end__indexEv
libOpenCOLLADASaxFrameworkLoader.so:_ZN13COLLADASaxFWL33LibraryArticulatedSystemsLoader1511begin__boolEv
libOpenCOLLADASaxFrameworkLoader.so:_ZN13COLLADASaxFWL33LibraryArticulatedSystemsLoader1511end__SIDREFEv
libOpenCOLLADASaxFrameworkLoader.so:_ZN13COLLADASaxFWL33LibraryArticulatedSystemsLoader1511end__activeEv
libOpenCOLLADASaxFrameworkLoader.so:_ZN13COLLADASaxFWL33LibraryArticulatedSystemsLoader1511end__lockedEv
libOpenCOLLADASaxFrameworkLoader.so:_ZN13COLLADASaxFWL33LibraryArticulatedSystemsLoader1511end__motionEv
libOpenCOLLADASaxFrameworkLoader.so:_ZN13COLLADASaxFWL33LibraryArticulatedSystemsLoader1512begin__indexERKN15COLLADASaxFWL1520index__AttributeDataE
libOpenCOLLADASaxFrameworkLoader.so:_ZN13COLLADASaxFWL33LibraryArticulatedSystemsLoader1512data__SIDREFEPKcm
libOpenCOLLADASaxFrameworkLoader.so:_ZN13COLLADASaxFWL33LibraryArticulatedSystemsLoader1513begin__SIDREFEv
libOpenCOLLADASaxFrameworkLoader.so:_ZN13COLLADASaxFWL33LibraryArticulatedSystemsLoader1513begin__activeEv
libOpenCOLLADASaxFrameworkLoader.so:_ZN13COLLADASaxFWL33LibraryArticulatedSystemsLoader1513begin__lockedEv
libOpenCOLLADASaxFrameworkLoader.so:_ZN13COLLADASaxFWL33LibraryArticulatedSystemsLoader1513begin__motionEv
libOpenCOLLADASaxFrameworkLoader.so:_ZN13COLLADASaxFWL33LibraryArticulatedSystemsLoader1514end__frame_tcpEv
libOpenCOLLADASaxFrameworkLoader.so:_ZN13COLLADASaxFWL33LibraryArticulatedSystemsLoader1514end__frame_tipEv
libOpenCOLLADASaxFrameworkLoader.so:_ZN13COLLADASaxFWL33LibraryArticulatedSystemsLoader1515end__kinematicsEv
libOpenCOLLADASaxFrameworkLoader.so:_ZN13COLLADASaxFWL33LibraryArticulatedSystemsLoader1516begin__frame_tcpERKN15COLLADASaxFWL1524frame_tcp__AttributeDataE
libOpenCOLLADASaxFrameworkLoader.so:_ZN13COLLADASaxFWL33LibraryArticulatedSystemsLoader1516begin__frame_tipERKN15COLLADASaxFWL1524frame_tip__AttributeDataE
libOpenCOLLADASaxFrameworkLoader.so:_ZN13COLLADASaxFWL33LibraryArticulatedSystemsLoader1517begin__kinematicsEv
libOpenCOLLADASaxFrameworkLoader.so:_ZN13COLLADASaxFWL33LibraryArticulatedSystemsLoader1517end__frame_objectEv
libOpenCOLLADASaxFrameworkLoader.so:_ZN13COLLADASaxFWL33LibraryArticulatedSystemsLoader1517end__frame_originEv
libOpenCOLLADASaxFrameworkLoader.so:_ZN13COLLADASaxFWL33LibraryArticulatedSystemsLoader1518end__effector_infoEv
libOpenCOLLADASaxFrameworkLoader.so:_ZN13COLLADASaxFWL33LibraryArticulatedSystemsLoader1519begin__frame_objectERKN15COLLADASaxFWL1527frame_object__AttributeDataE
libOpenCOLLADASaxFrameworkLoader.so:_ZN13COLLADASaxFWL33LibraryArticulatedSystemsLoader1519begin__frame_originERKN15COLLADASaxFWL1527frame_origin__AttributeDataE
libOpenCOLLADASaxFrameworkLoader.so:_ZN13COLLADASaxFWL33LibraryArticulatedSystemsLoader1520begin__effector_infoERKN15COLLADASaxFWL1528effector_info__AttributeDataE
libOpenCOLLADASaxFrameworkLoader.so:_ZN13COLLADASaxFWL33LibraryArticulatedSystemsLoader1520end__int____int_typeEv
libOpenCOLLADASaxFrameworkLoader.so:_ZN13COLLADASaxFWL33LibraryArticulatedSystemsLoader1521data__int____int_typeEx
libOpenCOLLADASaxFrameworkLoader.so:_ZN13COLLADASaxFWL33LibraryArticulatedSystemsLoader1522begin__int____int_typeEv
libOpenCOLLADASaxFrameworkLoader.so:_ZN13COLLADASaxFWL33LibraryArticulatedSystemsLoader1523end__articulated_systemEv
libOpenCOLLADASaxFrameworkLoader.so:_ZN13COLLADASaxFWL33LibraryArticulatedSystemsLoader1524end__float____float_typeEv
libOpenCOLLADASaxFrameworkLoader.so:_ZN13COLLADASaxFWL33LibraryArticulatedSystemsLoader1525begin__articulated_systemERKN15COLLADASaxFWL1533articulated_system__AttributeDataE
libOpenCOLLADASaxFrameworkLoader.so:_ZN13COLLADASaxFWL33LibraryArticulatedSystemsLoader1525data__float____float_typeEf
libOpenCOLLADASaxFrameworkLoader.so:_ZN13COLLADASaxFWL33LibraryArticulatedSystemsLoader1526begin__float____float_typeEv
libOpenCOLLADASaxFrameworkLoader.so:_ZN13COLLADASaxFWL33LibraryArticulatedSystemsLoader1530end__instance_kinematics_modelEv
libOpenCOLLADASaxFrameworkLoader.so:_ZN13COLLADASaxFWL33LibraryArticulatedSystemsLoader1532begin__instance_kinematics_modelERKN15COLLADASaxFWL1540instance_kinematics_model__AttributeDataE
libOpenCOLLADASaxFrameworkLoader.so:_ZN13COLLADASaxFWL33LibraryArticulatedSystemsLoader1532end__instance_articulated_systemEv
libOpenCOLLADASaxFrameworkLoader.so:_ZN13COLLADASaxFWL33LibraryArticulatedSystemsLoader1532end__library_articulated_systemsEv
libOpenCOLLADASaxFrameworkLoader.so:_ZN13COLLADASaxFWL33LibraryArticulatedSystemsLoader1532end__technique____technique_typeEv
libOpenCOLLADASaxFrameworkLoader.so:_ZN13COLLADASaxFWL33LibraryArticulatedSystemsLoader1533end__bind____kinematics_bind_typeEv
libOpenCOLLADASaxFrameworkLoader.so:_ZN13COLLADASaxFWL33LibraryArticulatedSystemsLoader1534begin__instance_articulated_systemERKN15COLLADASaxFWL1542instance_articulated_system__AttributeDataE
libOpenCOLLADASaxFrameworkLoader.so:_ZN13COLLADASaxFWL33LibraryArticulatedSystemsLoader1534begin__technique____technique_typeERKN15COLLADASaxFWL1542technique____technique_type__AttributeDataE
libOpenCOLLADASaxFrameworkLoader.so:_ZN13COLLADASaxFWL33LibraryArticulatedSystemsLoader1535begin__bind____kinematics_bind_typeERKN15COLLADASaxFWL1543bind____kinematics_bind_type__AttributeDataE
libOpenCOLLADASaxFrameworkLoader.so:_ZN13COLLADASaxFWL33LibraryArticulatedSystemsLoader1535end__param____kinematics_param_typeEv
libOpenCOLLADASaxFrameworkLoader.so:_ZN13COLLADASaxFWL33LibraryArticulatedSystemsLoader1537begin__param____kinematics_param_typeERKN15COLLADASaxFWL1545param____kinematics_param_type__AttributeDataE
libOpenCOLLADASaxFrameworkLoader.so:_ZN13COLLADASaxFWL33LibraryArticulatedSystemsLoader1537end__limits____kinematics_limits_typeEv
libOpenCOLLADASaxFrameworkLoader.so:_ZN13COLLADASaxFWL33LibraryArticulatedSystemsLoader1538end__max____common_float_or_param_typeEv
libOpenCOLLADASaxFrameworkLoader.so:_ZN13COLLADASaxFWL33LibraryArticulatedSystemsLoader1538end__min____common_float_or_param_typeEv
libOpenCOLLADASaxFrameworkLoader.so:_ZN13COLLADASaxFWL33LibraryArticulatedSystemsLoader1539begin__limits____kinematics_limits_typeEv
libOpenCOLLADASaxFrameworkLoader.so:_ZN13COLLADASaxFWL33LibraryArticulatedSystemsLoader1539end__axis_info____motion_axis_info_typeEv
libOpenCOLLADASaxFrameworkLoader.so:_ZN13COLLADASaxFWL33LibraryArticulatedSystemsLoader1539end__jerk____common_float_or_param_typeEv
libOpenCOLLADASaxFrameworkLoader.so:_ZN13COLLADASaxFWL33LibraryArticulatedSystemsLoader1540begin__max____common_float_or_param_typeEv
libOpenCOLLADASaxFrameworkLoader.so:_ZN13COLLADASaxFWL33LibraryArticulatedSystemsLoader1540begin__min____common_float_or_param_typeEv
libOpenCOLLADASaxFrameworkLoader.so:_ZN13COLLADASaxFWL33LibraryArticulatedSystemsLoader1540end__jerk____common_float2_or_param_typeEv
libOpenCOLLADASaxFrameworkLoader.so:_ZN13COLLADASaxFWL33LibraryArticulatedSystemsLoader1540end__speed____common_float_or_param_typeEv
libOpenCOLLADASaxFrameworkLoader.so:_ZN13COLLADASaxFWL33LibraryArticulatedSystemsLoader1541begin__axis_info____motion_axis_info_typeERKN15COLLADASaxFWL1549axis_info____motion_axis_info_type__AttributeDataE
libOpenCOLLADASaxFrameworkLoader.so:_ZN13COLLADASaxFWL33LibraryArticulatedSystemsLoader1541begin__jerk____common_float_or_param_typeEv
libOpenCOLLADASaxFrameworkLoader.so:_ZN13COLLADASaxFWL33LibraryArticulatedSystemsLoader1541end__newparam____kinematics_newparam_typeEv
libOpenCOLLADASaxFrameworkLoader.so:_ZN13COLLADASaxFWL33LibraryArticulatedSystemsLoader1541end__setparam____kinematics_setparam_typeEv
libOpenCOLLADASaxFrameworkLoader.so:_ZN13COLLADASaxFWL33LibraryArticulatedSystemsLoader1541end__speed____common_float2_or_param_typeEv
libOpenCOLLADASaxFrameworkLoader.so:_ZN13COLLADASaxFWL33LibraryArticulatedSystemsLoader1542begin__jerk____common_float2_or_param_typeEv
libOpenCOLLADASaxFrameworkLoader.so:_ZN13COLLADASaxFWL33LibraryArticulatedSystemsLoader1542begin__speed____common_float_or_param_typeEv
libOpenCOLLADASaxFrameworkLoader.so:_ZN13COLLADASaxFWL33LibraryArticulatedSystemsLoader1543begin__newparam____kinematics_newparam_typeERKN15COLLADASaxFWL1551newparam____kinematics_newparam_type__AttributeDataE
libOpenCOLLADASaxFrameworkLoader.so:_ZN13COLLADASaxFWL33LibraryArticulatedSystemsLoader1543begin__setparam____kinematics_setparam_typeERKN15COLLADASaxFWL1551setparam____kinematics_setparam_type__AttributeDataE
libOpenCOLLADASaxFrameworkLoader.so:_ZN13COLLADASaxFWL33LibraryArticulatedSystemsLoader1543begin__speed____common_float2_or_param_typeEv
libOpenCOLLADASaxFrameworkLoader.so:_ZN13COLLADASaxFWL33LibraryArticulatedSystemsLoader1543end__axis_info____kinematics_axis_info_typeEv
libOpenCOLLADASaxFrameworkLoader.so:_ZN13COLLADASaxFWL33LibraryArticulatedSystemsLoader1545begin__axis_info____kinematics_axis_info_typeERKN15COLLADASaxFWL1553axis_info____kinematics_axis_info_type__AttributeDataE
libOpenCOLLADASaxFrameworkLoader.so:_ZN13COLLADASaxFWL33LibraryArticulatedSystemsLoader1546end__technique_common____motion_technique_typeEv
libOpenCOLLADASaxFrameworkLoader.so:_ZN13COLLADASaxFWL33LibraryArticulatedSystemsLoader1547end__acceleration____common_float_or_param_typeEv
libOpenCOLLADASaxFrameworkLoader.so:_ZN13COLLADASaxFWL33LibraryArticulatedSystemsLoader1547end__deceleration____common_float_or_param_typeEv
libOpenCOLLADASaxFrameworkLoader.so:_ZN13COLLADASaxFWL33LibraryArticulatedSystemsLoader1548begin__technique_common____motion_technique_typeEv
libOpenCOLLADASaxFrameworkLoader.so:_ZN13COLLADASaxFWL33LibraryArticulatedSystemsLoader1548end__acceleration____common_float2_or_param_typeEv
libOpenCOLLADASaxFrameworkLoader.so:_ZN13COLLADASaxFWL33LibraryArticulatedSystemsLoader1548end__deceleration____common_float2_or_param_typeEv
libOpenCOLLADASaxFrameworkLoader.so:_ZN13COLLADASaxFWL33LibraryArticulatedSystemsLoader1549begin__acceleration____common_float_or_param_typeEv
libOpenCOLLADASaxFrameworkLoader.so:_ZN13COLLADASaxFWL33LibraryArticulatedSystemsLoader1549begin__deceleration____common_float_or_param_typeEv
libOpenCOLLADASaxFrameworkLoader.so:_ZN13COLLADASaxFWL33LibraryArticulatedSystemsLoader1550begin__acceleration____common_float2_or_param_typeEv
libOpenCOLLADASaxFrameworkLoader.so:_ZN13COLLADASaxFWL33LibraryArticulatedSystemsLoader1550begin__deceleration____common_float2_or_param_typeEv
libOpenCOLLADASaxFrameworkLoader.so:_ZN13COLLADASaxFWL33LibraryArticulatedSystemsLoader1550end__technique_common____kinematics_technique_typeEv
libOpenCOLLADASaxFrameworkLoader.so:_ZN13COLLADASaxFWL33LibraryArticulatedSystemsLoader1552begin__technique_common____kinematics_technique_typeEv
libOpenCOLLADASaxFrameworkLoader.so:_ZN13COLLADASaxFWL33LibraryArticulatedSystemsLoader159end__boolEv
libOpenCOLLADASaxFrameworkLoader.so:_ZN13COLLADASaxFWL34COLLADA_LIBRARY_ANIMATIONS_PAIR_14E
libOpenCOLLADASaxFrameworkLoader.so:_ZN13COLLADASaxFWL34COLLADA_LIBRARY_ANIMATIONS_PAIR_15E
libOpenCOLLADASaxFrameworkLoader.so:_ZN13COLLADASaxFWL34COLLADA_LIBRARY_GEOMETRIES_PAIR_14E
libOpenCOLLADASaxFrameworkLoader.so:_ZN13COLLADASaxFWL34COLLADA_LIBRARY_GEOMETRIES_PAIR_15E
libOpenCOLLADASaxFrameworkLoader.so:_ZN13COLLADASaxFWL35COLLADA_LIBRARY_CONTROLLERS_PAIR_14E
libOpenCOLLADASaxFrameworkLoader.so:_ZN13COLLADASaxFWL35COLLADA_LIBRARY_CONTROLLERS_PAIR_15E
libOpenCOLLADASaxFrameworkLoader.so:_ZN13COLLADASaxFWL35KinematicsInstanceArticulatedSystemD0Ev
libOpenCOLLADASaxFrameworkLoader.so:_ZN13COLLADASaxFWL35KinematicsInstanceArticulatedSystemD1Ev
libOpenCOLLADASaxFrameworkLoader.so:_ZN13COLLADASaxFWL35KinematicsInstanceArticulatedSystemD2Ev
libOpenCOLLADASaxFrameworkLoader.so:_ZN13COLLADASaxFWL36COLLADA_LIBRARY_FORCE_FIELDS_PAIR_14E
libOpenCOLLADASaxFrameworkLoader.so:_ZN13COLLADASaxFWL36COLLADA_LIBRARY_FORCE_FIELDS_PAIR_15E
libOpenCOLLADASaxFrameworkLoader.so:_ZN13COLLADASaxFWL37COLLADA_LIBRARY_VISUAL_SCENES_PAIR_14E
libOpenCOLLADASaxFrameworkLoader.so:_ZN13COLLADASaxFWL37COLLADA_LIBRARY_VISUAL_SCENES_PAIR_15E
libOpenCOLLADASaxFrameworkLoader.so:_ZN13COLLADASaxFWL38COLLADA_LIBRARY_PHYSICS_MODELS_PAIR_14E
libOpenCOLLADASaxFrameworkLoader.so:_ZN13COLLADASaxFWL38COLLADA_LIBRARY_PHYSICS_MODELS_PAIR_15E
libOpenCOLLADASaxFrameworkLoader.so:_ZN13COLLADASaxFWL38COLLADA_LIBRARY_PHYSICS_SCENES_PAIR_14E
libOpenCOLLADASaxFrameworkLoader.so:_ZN13COLLADASaxFWL38COLLADA_LIBRARY_PHYSICS_SCENES_PAIR_15E
libOpenCOLLADASaxFrameworkLoader.so:_ZN13COLLADASaxFWL39COLLADA_LIBRARY_ANIMATION_CLIPS_PAIR_14E
libOpenCOLLADASaxFrameworkLoader.so:_ZN13COLLADASaxFWL39COLLADA_LIBRARY_ANIMATION_CLIPS_PAIR_15E
libOpenCOLLADASaxFrameworkLoader.so:_ZN13COLLADASaxFWL40getControllerInputSemanticsBySemanticStrEPKc
libOpenCOLLADASaxFrameworkLoader.so:_ZN13COLLADASaxFWL41COLLADA_LIBRARY_PHYSICS_MATERIALS_PAIR_14E
libOpenCOLLADASaxFrameworkLoader.so:_ZN13COLLADASaxFWL41COLLADA_LIBRARY_PHYSICS_MATERIALS_PAIR_15E
libOpenCOLLADASaxFrameworkLoader.so:_ZN13COLLADASaxFWL6IErrorD0Ev
libOpenCOLLADASaxFrameworkLoader.so:_ZN13COLLADASaxFWL6IErrorD1Ev
libOpenCOLLADASaxFrameworkLoader.so:_ZN13COLLADASaxFWL6IErrorD2Ev
libOpenCOLLADASaxFrameworkLoader.so:_ZN13COLLADASaxFWL6Loader11getUniqueIdEN9COLLADAFW12COLLADA_TYPE7ClassIdE
libOpenCOLLADASaxFrameworkLoader.so:_ZN13COLLADASaxFWL6Loader11getUniqueIdERKN9COLLADABU3URIE
libOpenCOLLADASaxFrameworkLoader.so:_ZN13COLLADASaxFWL6Loader11getUniqueIdERKN9COLLADABU3URIEN9COLLADAFW12COLLADA_TYPE7ClassIdE
libOpenCOLLADASaxFrameworkLoader.so:_ZN13COLLADASaxFWL6Loader12loadDocumentERKNSt7__cxx1112basic_stringIcSt11char_traitsIcESaIcEEEPKciPN9COLLADAFW7IWriterE
libOpenCOLLADASaxFrameworkLoader.so:_ZN13COLLADASaxFWL6Loader12loadDocumentERKNSt7__cxx1112basic_stringIcSt11char_traitsIcESaIcEEEPN9COLLADAFW7IWriterE
libOpenCOLLADASaxFrameworkLoader.so:_ZN13COLLADASaxFWL6Loader16addFileIdUriPairEmRKN9COLLADABU3URIE
libOpenCOLLADASaxFrameworkLoader.so:_ZN13COLLADASaxFWL6Loader20EMPTY_JOINTSIDSORIDSE
libOpenCOLLADASaxFrameworkLoader.so:_ZN13COLLADASaxFWL6Loader21getMeshMaterialIdInfoEv
libOpenCOLLADASaxFrameworkLoader.so:_ZN13COLLADASaxFWL6Loader24getTextureMapIdBySematicERKNSt7__cxx1112basic_stringIcSt11char_traitsIcESaIcEEE
libOpenCOLLADASaxFrameworkLoader.so:_ZN13COLLADASaxFWL6Loader32registerExtraDataCallbackHandlerEPNS_25IExtraDataCallbackHandlerE
libOpenCOLLADASaxFrameworkLoader.so:_ZN13COLLADASaxFWL6Loader34EMPTY_INSTANCE_CONTROLLER_DATALISTB5cxx11E
libOpenCOLLADASaxFrameworkLoader.so:_ZN13COLLADASaxFWL6Loader48registerExternalReferenceDeciderCallbackFunctionEPFbRKN9COLLADABU3URIEmE
libOpenCOLLADASaxFrameworkLoader.so:_ZN13COLLADASaxFWL6Loader7compareERKN9COLLADAFW14SkinControllerES4_
libOpenCOLLADASaxFrameworkLoader.so:_ZN13COLLADASaxFWL6Loader9getFileIdERKN9COLLADABU3URIE
libOpenCOLLADASaxFrameworkLoader.so:_ZN13COLLADASaxFWL6LoaderC1EPNS_13IErrorHandlerE
libOpenCOLLADASaxFrameworkLoader.so:_ZN13COLLADASaxFWL6LoaderC2EPNS_13IErrorHandlerE
libOpenCOLLADASaxFrameworkLoader.so:_ZN13COLLADASaxFWL6LoaderD0Ev
libOpenCOLLADASaxFrameworkLoader.so:_ZN13COLLADASaxFWL6LoaderD1Ev
libOpenCOLLADASaxFrameworkLoader.so:_ZN13COLLADASaxFWL6LoaderD2Ev
libOpenCOLLADASaxFrameworkLoader.so:_ZN13COLLADASaxFWL9accessorAE
libOpenCOLLADASaxFrameworkLoader.so:_ZN13COLLADASaxFWL9accessorBE
libOpenCOLLADASaxFrameworkLoader.so:_ZN13COLLADASaxFWL9accessorGE
libOpenCOLLADASaxFrameworkLoader.so:_ZN13COLLADASaxFWL9accessorRE
libOpenCOLLADASaxFrameworkLoader.so:_ZN13COLLADASaxFWL9accessorXE
libOpenCOLLADASaxFrameworkLoader.so:_ZN13COLLADASaxFWL9accessorYE
libOpenCOLLADASaxFrameworkLoader.so:_ZN13COLLADASaxFWL9accessorZE
libOpenCOLLADASaxFrameworkLoader.so:_ZN13COLLADASaxFWLeqERKN18GeneratedSaxParser12ParserStringERKNSt7__cxx1112basic_stringIcSt11char_traitsIcESaIcEEE
libOpenCOLLADASaxFrameworkLoader.so:_ZN15COLLADASaxFWL1414NAME_ELEMENT_HE
libOpenCOLLADASaxFrameworkLoader.so:_ZN15COLLADASaxFWL1414NAME_ELEMENT_PE
libOpenCOLLADASaxFrameworkLoader.so:_ZN15COLLADASaxFWL1414NAME_ELEMENT_VE
libOpenCOLLADASaxFrameworkLoader.so:_ZN15COLLADASaxFWL1415NAME_ELEMENT_PHE
libOpenCOLLADASaxFrameworkLoader.so:_ZN15COLLADASaxFWL1416NAME_ELEMENT_ALLE
libOpenCOLLADASaxFrameworkLoader.so:_ZN15COLLADASaxFWL1416NAME_ELEMENT_BOXE
libOpenCOLLADASaxFrameworkLoader.so:_ZN15COLLADASaxFWL1416NAME_ELEMENT_INTE
libOpenCOLLADASaxFrameworkLoader.so:_ZN15COLLADASaxFWL1416NAME_ELEMENT_MAXE
libOpenCOLLADASaxFrameworkLoader.so:_ZN15COLLADASaxFWL1416NAME_ELEMENT_MINE
libOpenCOLLADASaxFrameworkLoader.so:_ZN15COLLADASaxFWL1416NAME_ELEMENT_REFE
libOpenCOLLADASaxFrameworkLoader.so:_ZN15COLLADASaxFWL1416NAME_ELEMENT_RGBE
libOpenCOLLADASaxFrameworkLoader.so:_ZN15COLLADASaxFWL1416NAME_ELEMENT_SRCE
libOpenCOLLADASaxFrameworkLoader.so:_ZN15COLLADASaxFWL1417ENUM__NodeTypeMapE
libOpenCOLLADASaxFrameworkLoader.so:_ZN15COLLADASaxFWL1417NAME_ATTRIBUTE_idE
libOpenCOLLADASaxFrameworkLoader.so:_ZN15COLLADASaxFWL1417NAME_ELEMENT_BACKE
libOpenCOLLADASaxFrameworkLoader.so:_ZN15COLLADASaxFWL1417NAME_ELEMENT_BINDE
libOpenCOLLADASaxFrameworkLoader.so:_ZN15COLLADASaxFWL1417NAME_ELEMENT_BOOLE
libOpenCOLLADASaxFrameworkLoader.so:_ZN15COLLADASaxFWL1417NAME_ELEMENT_CODEE
libOpenCOLLADASaxFrameworkLoader.so:_ZN15COLLADASaxFWL1417NAME_ELEMENT_DATAE
libOpenCOLLADASaxFrameworkLoader.so:_ZN15COLLADASaxFWL1417NAME_ELEMENT_DESTE
libOpenCOLLADASaxFrameworkLoader.so:_ZN15COLLADASaxFWL1417NAME_ELEMENT_DRAWE
libOpenCOLLADASaxFrameworkLoader.so:_ZN15COLLADASaxFWL1417NAME_ELEMENT_ENUME
libOpenCOLLADASaxFrameworkLoader.so:_ZN15COLLADASaxFWL1417NAME_ELEMENT_FACEE
libOpenCOLLADASaxFrameworkLoader.so:_ZN15COLLADASaxFWL1417NAME_ELEMENT_FAILE
libOpenCOLLADASaxFrameworkLoader.so:_ZN15COLLADASaxFWL1417NAME_ELEMENT_FUNCE
libOpenCOLLADASaxFrameworkLoader.so:_ZN15COLLADASaxFWL1417NAME_ELEMENT_HALFE
libOpenCOLLADASaxFrameworkLoader.so:_ZN15COLLADASaxFWL1417NAME_ELEMENT_INT1E
libOpenCOLLADASaxFrameworkLoader.so:_ZN15COLLADASaxFWL1417NAME_ELEMENT_INT2E
libOpenCOLLADASaxFrameworkLoader.so:_ZN15COLLADASaxFWL1417NAME_ELEMENT_INT3E
libOpenCOLLADASaxFrameworkLoader.so:_ZN15COLLADASaxFWL1417NAME_ELEMENT_INT4E
libOpenCOLLADASaxFrameworkLoader.so:_ZN15COLLADASaxFWL1417NAME_ELEMENT_MASKE
libOpenCOLLADASaxFrameworkLoader.so:_ZN15COLLADASaxFWL1417NAME_ELEMENT_MASSE
libOpenCOLLADASaxFrameworkLoader.so:_ZN15COLLADASaxFWL1417NAME_ELEMENT_MESHE
libOpenCOLLADASaxFrameworkLoader.so:_ZN15COLLADASaxFWL1417NAME_ELEMENT_MODEE
libOpenCOLLADASaxFrameworkLoader.so:_ZN15COLLADASaxFWL1417NAME_ELEMENT_NAMEE
libOpenCOLLADASaxFrameworkLoader.so:_ZN15COLLADASaxFWL1417NAME_ELEMENT_NODEE
libOpenCOLLADASaxFrameworkLoader.so:_ZN15COLLADASaxFWL1417NAME_ELEMENT_PASSE
libOpenCOLLADASaxFrameworkLoader.so:_ZN15COLLADASaxFWL1417NAME_ELEMENT_SIZEE
libOpenCOLLADASaxFrameworkLoader.so:_ZN15COLLADASaxFWL1417NAME_ELEMENT_SKEWE
libOpenCOLLADASaxFrameworkLoader.so:_ZN15COLLADASaxFWL1417NAME_ELEMENT_SKINE
libOpenCOLLADASaxFrameworkLoader.so:_ZN15COLLADASaxFWL1417NAME_ELEMENT_SPOTE
libOpenCOLLADASaxFrameworkLoader.so:_ZN15COLLADASaxFWL1417NAME_ELEMENT_UNITE
libOpenCOLLADASaxFrameworkLoader.so:_ZN15COLLADASaxFWL1417NAME_ELEMENT_XFOVE
libOpenCOLLADASaxFrameworkLoader.so:_ZN15COLLADASaxFWL1417NAME_ELEMENT_XMAGE
libOpenCOLLADASaxFrameworkLoader.so:_ZN15COLLADASaxFWL1417NAME_ELEMENT_YFOVE
libOpenCOLLADASaxFrameworkLoader.so:_ZN15COLLADASaxFWL1417NAME_ELEMENT_YMAGE
libOpenCOLLADASaxFrameworkLoader.so:_ZN15COLLADASaxFWL1417NAME_ELEMENT_ZFARE
libOpenCOLLADASaxFrameworkLoader.so:_ZN15COLLADASaxFWL1418FunctionMapFactory34createFunctionMap__COLLADA__1levelEv
libOpenCOLLADASaxFrameworkLoader.so:_ZN15COLLADASaxFWL1418FunctionMapFactory37createFunctionMap__asset__allChildrenEv
libOpenCOLLADASaxFrameworkLoader.so:_ZN15COLLADASaxFWL1418FunctionMapFactory37createFunctionMap__scene__allChildrenEv
libOpenCOLLADASaxFrameworkLoader.so:_ZN15COLLADASaxFWL1418FunctionMapFactory45createFunctionMap__library_nodes__allChildrenEv
libOpenCOLLADASaxFrameworkLoader.so:_ZN15COLLADASaxFWL1418FunctionMapFactory46createFunctionMap__library_images__allChildrenEv
libOpenCOLLADASaxFrameworkLoader.so:_ZN15COLLADASaxFWL1418FunctionMapFactory46createFunctionMap__library_lights__allChildrenEv
libOpenCOLLADASaxFrameworkLoader.so:_ZN15COLLADASaxFWL1418FunctionMapFactory47createFunctionMap__library_cameras__allChildrenEv
libOpenCOLLADASaxFrameworkLoader.so:_ZN15COLLADASaxFWL1418FunctionMapFactory47createFunctionMap__library_effects__allChildrenEv
libOpenCOLLADASaxFrameworkLoader.so:_ZN15COLLADASaxFWL1418FunctionMapFactory49createFunctionMap__library_materials__allChildrenEv
libOpenCOLLADASaxFrameworkLoader.so:_ZN15COLLADASaxFWL1418FunctionMapFactory50createFunctionMap__library_animations__allChildrenEv
libOpenCOLLADASaxFrameworkLoader.so:_ZN15COLLADASaxFWL1418FunctionMapFactory50createFunctionMap__library_geometries__allChildrenEv
libOpenCOLLADASaxFrameworkLoader.so:_ZN15COLLADASaxFWL1418FunctionMapFactory51createFunctionMap__library_controllers__allChildrenEv
libOpenCOLLADASaxFrameworkLoader.so:_ZN15COLLADASaxFWL1418FunctionMapFactory52createFunctionMap__library_force_fields__allChildrenEv
libOpenCOLLADASaxFrameworkLoader.so:_ZN15COLLADASaxFWL1418FunctionMapFactory53createFunctionMap__library_visual_scenes__allChildrenEv
libOpenCOLLADASaxFrameworkLoader.so:_ZN15COLLADASaxFWL1418FunctionMapFactory54createFunctionMap__library_physics_models__allChildrenEv
libOpenCOLLADASaxFrameworkLoader.so:_ZN15COLLADASaxFWL1418FunctionMapFactory54createFunctionMap__library_physics_scenes__allChildrenEv
libOpenCOLLADASaxFrameworkLoader.so:_ZN15COLLADASaxFWL1418FunctionMapFactory55createFunctionMap__library_animation_clips__allChildrenEv
libOpenCOLLADASaxFrameworkLoader.so:_ZN15COLLADASaxFWL1418FunctionMapFactory57createFunctionMap__library_physics_materials__allChildrenEv
libOpenCOLLADASaxFrameworkLoader.so:_ZN15COLLADASaxFWL1418NAME_ATTRIBUTE_endE
libOpenCOLLADASaxFrameworkLoader.so:_ZN15COLLADASaxFWL1418NAME_ATTRIBUTE_mipE
libOpenCOLLADASaxFrameworkLoader.so:_ZN15COLLADASaxFWL1418NAME_ATTRIBUTE_refE
libOpenCOLLADASaxFrameworkLoader.so:_ZN15COLLADASaxFWL1418NAME_ATTRIBUTE_setE
libOpenCOLLADASaxFrameworkLoader.so:_ZN15COLLADASaxFWL1418NAME_ATTRIBUTE_sidE
libOpenCOLLADASaxFrameworkLoader.so:_ZN15COLLADASaxFWL1418NAME_ATTRIBUTE_urlE
libOpenCOLLADASaxFrameworkLoader.so:_ZN15COLLADASaxFWL1418NAME_ELEMENT_ALPHAE
libOpenCOLLADASaxFrameworkLoader.so:_ZN15COLLADASaxFWL1418NAME_ELEMENT_ARRAYE
libOpenCOLLADASaxFrameworkLoader.so:_ZN15COLLADASaxFWL1418NAME_ELEMENT_ASSETE
libOpenCOLLADASaxFrameworkLoader.so:_ZN15COLLADASaxFWL1418NAME_ELEMENT_BLINNE
libOpenCOLLADASaxFrameworkLoader.so:_ZN15COLLADASaxFWL1418NAME_ELEMENT_BOOL1E
libOpenCOLLADASaxFrameworkLoader.so:_ZN15COLLADASaxFWL1418NAME_ELEMENT_BOOL2E
libOpenCOLLADASaxFrameworkLoader.so:_ZN15COLLADASaxFWL1418NAME_ELEMENT_BOOL3E
libOpenCOLLADASaxFrameworkLoader.so:_ZN15COLLADASaxFWL1418NAME_ELEMENT_BOOL4E
libOpenCOLLADASaxFrameworkLoader.so:_ZN15COLLADASaxFWL1418NAME_ELEMENT_COLORE
libOpenCOLLADASaxFrameworkLoader.so:_ZN15COLLADASaxFWL1418NAME_ELEMENT_EXTRAE
libOpenCOLLADASaxFrameworkLoader.so:_ZN15COLLADASaxFWL1418NAME_ELEMENT_FIXEDE
libOpenCOLLADASaxFrameworkLoader.so:_ZN15COLLADASaxFWL1418NAME_ELEMENT_FLOATE
libOpenCOLLADASaxFrameworkLoader.so:_ZN15COLLADASaxFWL1418NAME_ELEMENT_FRONTE
libOpenCOLLADASaxFrameworkLoader.so:_ZN15COLLADASaxFWL1418NAME_ELEMENT_HALF1E
libOpenCOLLADASaxFrameworkLoader.so:_ZN15COLLADASaxFWL1418NAME_ELEMENT_HALF2E
libOpenCOLLADASaxFrameworkLoader.so:_ZN15COLLADASaxFWL1418NAME_ELEMENT_HALF3E
libOpenCOLLADASaxFrameworkLoader.so:_ZN15COLLADASaxFWL1418NAME_ELEMENT_HALF4E
libOpenCOLLADASaxFrameworkLoader.so:_ZN15COLLADASaxFWL1418NAME_ELEMENT_IMAGEE
libOpenCOLLADASaxFrameworkLoader.so:_ZN15COLLADASaxFWL1418NAME_ELEMENT_INPUTE
libOpenCOLLADASaxFrameworkLoader.so:_ZN15COLLADASaxFWL1418NAME_ELEMENT_LAYERE
libOpenCOLLADASaxFrameworkLoader.so:_ZN15COLLADASaxFWL1418NAME_ELEMENT_LIGHTE
libOpenCOLLADASaxFrameworkLoader.so:_ZN15COLLADASaxFWL1418NAME_ELEMENT_LINESE
libOpenCOLLADASaxFrameworkLoader.so:_ZN15COLLADASaxFWL1418NAME_ELEMENT_MORPHE
libOpenCOLLADASaxFrameworkLoader.so:_ZN15COLLADASaxFWL1418NAME_ELEMENT_ORDERE
libOpenCOLLADASaxFrameworkLoader.so:_ZN15COLLADASaxFWL1418NAME_ELEMENT_PARAME
libOpenCOLLADASaxFrameworkLoader.so:_ZN15COLLADASaxFWL1418NAME_ELEMENT_PHONGE
libOpenCOLLADASaxFrameworkLoader.so:_ZN15COLLADASaxFWL1418NAME_ELEMENT_PLANEE
libOpenCOLLADASaxFrameworkLoader.so:_ZN15COLLADASaxFWL1418NAME_ELEMENT_POINTE
libOpenCOLLADASaxFrameworkLoader.so:_ZN15COLLADASaxFWL1418NAME_ELEMENT_RANGEE
libOpenCOLLADASaxFrameworkLoader.so:_ZN15COLLADASaxFWL1418NAME_ELEMENT_SCALEE
libOpenCOLLADASaxFrameworkLoader.so:_ZN15COLLADASaxFWL1418NAME_ELEMENT_SCENEE
libOpenCOLLADASaxFrameworkLoader.so:_ZN15COLLADASaxFWL1418NAME_ELEMENT_SHAPEE
libOpenCOLLADASaxFrameworkLoader.so:_ZN15COLLADASaxFWL1418NAME_ELEMENT_TITLEE
libOpenCOLLADASaxFrameworkLoader.so:_ZN15COLLADASaxFWL1418NAME_ELEMENT_VALUEE
libOpenCOLLADASaxFrameworkLoader.so:_ZN15COLLADASaxFWL1418NAME_ELEMENT_ZFAILE
libOpenCOLLADASaxFrameworkLoader.so:_ZN15COLLADASaxFWL1418NAME_ELEMENT_ZNEARE
libOpenCOLLADASaxFrameworkLoader.so:_ZN15COLLADASaxFWL1418NAME_ELEMENT_ZPASSE
libOpenCOLLADASaxFrameworkLoader.so:_ZN15COLLADASaxFWL1418RGB__AttributeData7DEFAULTE
libOpenCOLLADASaxFrameworkLoader.so:_ZN15COLLADASaxFWL1418max__AttributeData7DEFAULTE
libOpenCOLLADASaxFrameworkLoader.so:_ZN15COLLADASaxFWL1418min__AttributeData7DEFAULTE
libOpenCOLLADASaxFrameworkLoader.so:_ZN15COLLADASaxFWL1418rgb__AttributeData7DEFAULTE
libOpenCOLLADASaxFrameworkLoader.so:_ZN15COLLADASaxFWL1419ENUM__UpAxisTypeMapE
libOpenCOLLADASaxFrameworkLoader.so:_ZN15COLLADASaxFWL1419NAME_ATTRIBUTE_baseE
libOpenCOLLADASaxFrameworkLoader.so:_ZN15COLLADASaxFWL1419NAME_ATTRIBUTE_bodyE
libOpenCOLLADASaxFrameworkLoader.so:_ZN15COLLADASaxFWL1419NAME_ATTRIBUTE_faceE
libOpenCOLLADASaxFrameworkLoader.so:_ZN15COLLADASaxFWL1419NAME_ATTRIBUTE_nameE
libOpenCOLLADASaxFrameworkLoader.so:_ZN15COLLADASaxFWL1419NAME_ATTRIBUTE_typeE
libOpenCOLLADASaxFrameworkLoader.so:_ZN15COLLADASaxFWL1419NAME_ATTRIBUTE_unitE
libOpenCOLLADASaxFrameworkLoader.so:_ZN15COLLADASaxFWL1419NAME_ELEMENT_AUTHORE
libOpenCOLLADASaxFrameworkLoader.so:_ZN15COLLADASaxFWL1419NAME_ELEMENT_CAMERAE
libOpenCOLLADASaxFrameworkLoader.so:_ZN15COLLADASaxFWL1419NAME_ELEMENT_EFFECTE
libOpenCOLLADASaxFrameworkLoader.so:_ZN15COLLADASaxFWL1419NAME_ELEMENT_FIXED1E
libOpenCOLLADASaxFrameworkLoader.so:_ZN15COLLADASaxFWL1419NAME_ELEMENT_FIXED2E
libOpenCOLLADASaxFrameworkLoader.so:_ZN15COLLADASaxFWL1419NAME_ELEMENT_FIXED3E
libOpenCOLLADASaxFrameworkLoader.so:_ZN15COLLADASaxFWL1419NAME_ELEMENT_FIXED4E
libOpenCOLLADASaxFrameworkLoader.so:_ZN15COLLADASaxFWL1419NAME_ELEMENT_FLOAT1E
libOpenCOLLADASaxFrameworkLoader.so:_ZN15COLLADASaxFWL1419NAME_ELEMENT_FLOAT2E
libOpenCOLLADASaxFrameworkLoader.so:_ZN15COLLADASaxFWL1419NAME_ELEMENT_FLOAT3E
libOpenCOLLADASaxFrameworkLoader.so:_ZN15COLLADASaxFWL1419NAME_ELEMENT_FLOAT4E
libOpenCOLLADASaxFrameworkLoader.so:_ZN15COLLADASaxFWL1419NAME_ELEMENT_FORMATE
libOpenCOLLADASaxFrameworkLoader.so:_ZN15COLLADASaxFWL1419NAME_ELEMENT_HEIGHTE
libOpenCOLLADASaxFrameworkLoader.so:_ZN15COLLADASaxFWL1419NAME_ELEMENT_HOLLOWE
libOpenCOLLADASaxFrameworkLoader.so:_ZN15COLLADASaxFWL1419NAME_ELEMENT_IMAGERE
libOpenCOLLADASaxFrameworkLoader.so:_ZN15COLLADASaxFWL1419NAME_ELEMENT_INT1X1E
libOpenCOLLADASaxFrameworkLoader.so:_ZN15COLLADASaxFWL1419NAME_ELEMENT_INT1X2E
libOpenCOLLADASaxFrameworkLoader.so:_ZN15COLLADASaxFWL1419NAME_ELEMENT_INT1X3E
libOpenCOLLADASaxFrameworkLoader.so:_ZN15COLLADASaxFWL1419NAME_ELEMENT_INT1X4E
libOpenCOLLADASaxFrameworkLoader.so:_ZN15COLLADASaxFWL1419NAME_ELEMENT_INT2X1E
libOpenCOLLADASaxFrameworkLoader.so:_ZN15COLLADASaxFWL1419NAME_ELEMENT_INT2X2E
libOpenCOLLADASaxFrameworkLoader.so:_ZN15COLLADASaxFWL1419NAME_ELEMENT_INT2X3E
libOpenCOLLADASaxFrameworkLoader.so:_ZN15COLLADASaxFWL1419NAME_ELEMENT_INT2X4E
libOpenCOLLADASaxFrameworkLoader.so:_ZN15COLLADASaxFWL1419NAME_ELEMENT_INT3X1E
libOpenCOLLADASaxFrameworkLoader.so:_ZN15COLLADASaxFWL1419NAME_ELEMENT_INT3X2E
libOpenCOLLADASaxFrameworkLoader.so:_ZN15COLLADASaxFWL1419NAME_ELEMENT_INT3X3E
libOpenCOLLADASaxFrameworkLoader.so:_ZN15COLLADASaxFWL1419NAME_ELEMENT_INT3X4E
libOpenCOLLADASaxFrameworkLoader.so:_ZN15COLLADASaxFWL1419NAME_ELEMENT_INT4X1E
libOpenCOLLADASaxFrameworkLoader.so:_ZN15COLLADASaxFWL1419NAME_ELEMENT_INT4X2E
libOpenCOLLADASaxFrameworkLoader.so:_ZN15COLLADASaxFWL1419NAME_ELEMENT_INT4X3E
libOpenCOLLADASaxFrameworkLoader.so:_ZN15COLLADASaxFWL1419NAME_ELEMENT_INT4X4E
libOpenCOLLADASaxFrameworkLoader.so:_ZN15COLLADASaxFWL1419NAME_ELEMENT_JOINTSE
libOpenCOLLADASaxFrameworkLoader.so:_ZN15COLLADASaxFWL1419NAME_ELEMENT_LIMITSE
libOpenCOLLADASaxFrameworkLoader.so:_ZN15COLLADASaxFWL1419NAME_ELEMENT_LINEARE
libOpenCOLLADASaxFrameworkLoader.so:_ZN15COLLADASaxFWL1419NAME_ELEMENT_LOOKATE
libOpenCOLLADASaxFrameworkLoader.so:_ZN15COLLADASaxFWL1419NAME_ELEMENT_MATRIXE
libOpenCOLLADASaxFrameworkLoader.so:_ZN15COLLADASaxFWL1419NAME_ELEMENT_OPTICSE
libOpenCOLLADASaxFrameworkLoader.so:_ZN15COLLADASaxFWL1419NAME_ELEMENT_OPTIONE
libOpenCOLLADASaxFrameworkLoader.so:_ZN15COLLADASaxFWL1419NAME_ELEMENT_RADIUSE
libOpenCOLLADASaxFrameworkLoader.so:_ZN15COLLADASaxFWL1419NAME_ELEMENT_RENDERE
libOpenCOLLADASaxFrameworkLoader.so:_ZN15COLLADASaxFWL1419NAME_ELEMENT_ROTATEE
libOpenCOLLADASaxFrameworkLoader.so:_ZN15COLLADASaxFWL1419NAME_ELEMENT_SHADERE
libOpenCOLLADASaxFrameworkLoader.so:_ZN15COLLADASaxFWL1419NAME_ELEMENT_SOURCEE
libOpenCOLLADASaxFrameworkLoader.so:_ZN15COLLADASaxFWL1419NAME_ELEMENT_SPHEREE
libOpenCOLLADASaxFrameworkLoader.so:_ZN15COLLADASaxFWL1419NAME_ELEMENT_SPLINEE
libOpenCOLLADASaxFrameworkLoader.so:_ZN15COLLADASaxFWL1419NAME_ELEMENT_SPRINGE
libOpenCOLLADASaxFrameworkLoader.so:_ZN15COLLADASaxFWL1419NAME_ELEMENT_STRINGE
libOpenCOLLADASaxFrameworkLoader.so:_ZN15COLLADASaxFWL1419NAME_ELEMENT_TEXENVE
libOpenCOLLADASaxFrameworkLoader.so:_ZN15COLLADASaxFWL1419NAME_ELEMENT_VCOUNTE
libOpenCOLLADASaxFrameworkLoader.so:_ZN15COLLADASaxFWL1419NAME_ELEMENT_WRAP_PE
libOpenCOLLADASaxFrameworkLoader.so:_ZN15COLLADASaxFWL1419NAME_ELEMENT_WRAP_SE
libOpenCOLLADASaxFrameworkLoader.so:_ZN15COLLADASaxFWL1419NAME_ELEMENT_WRAP_TE
libOpenCOLLADASaxFrameworkLoader.so:_ZN15COLLADASaxFWL1419back__AttributeData7DEFAULTE
libOpenCOLLADASaxFrameworkLoader.so:_ZN15COLLADASaxFWL1419code__AttributeData7DEFAULTE
libOpenCOLLADASaxFrameworkLoader.so:_ZN15COLLADASaxFWL1419mass__AttributeData7DEFAULTE
libOpenCOLLADASaxFrameworkLoader.so:_ZN15COLLADASaxFWL1419node__AttributeData7DEFAULTE
libOpenCOLLADASaxFrameworkLoader.so:_ZN15COLLADASaxFWL1419skew__AttributeData7DEFAULTE
libOpenCOLLADASaxFrameworkLoader.so:_ZN15COLLADASaxFWL1419skin__AttributeData7DEFAULTE
libOpenCOLLADASaxFrameworkLoader.so:_ZN15COLLADASaxFWL1419unit__AttributeData7DEFAULTE
libOpenCOLLADASaxFrameworkLoader.so:_ZN15COLLADASaxFWL1419xfov__AttributeData7DEFAULTE
libOpenCOLLADASaxFrameworkLoader.so:_ZN15COLLADASaxFWL1419xmag__AttributeData7DEFAULTE
libOpenCOLLADASaxFrameworkLoader.so:_ZN15COLLADASaxFWL1419yfov__AttributeData7DEFAULTE
libOpenCOLLADASaxFrameworkLoader.so:_ZN15COLLADASaxFWL1419ymag__AttributeData7DEFAULTE
libOpenCOLLADASaxFrameworkLoader.so:_ZN15COLLADASaxFWL1419zfar__AttributeData7DEFAULTE
libOpenCOLLADASaxFrameworkLoader.so:_ZN15COLLADASaxFWL1420ENUM__VersionTypeMapE
libOpenCOLLADASaxFrameworkLoader.so:_ZN15COLLADASaxFWL1420ENUM__gl_fog_typeMapE
libOpenCOLLADASaxFrameworkLoader.so:_ZN15COLLADASaxFWL1420NAME_ATTRIBUTE_countE
libOpenCOLLADASaxFrameworkLoader.so:_ZN15COLLADASaxFWL1420NAME_ATTRIBUTE_depthE
libOpenCOLLADASaxFrameworkLoader.so:_ZN15COLLADASaxFWL1420NAME_ATTRIBUTE_indexE
libOpenCOLLADASaxFrameworkLoader.so:_ZN15COLLADASaxFWL1420NAME_ATTRIBUTE_layerE
libOpenCOLLADASaxFrameworkLoader.so:_ZN15COLLADASaxFWL1420NAME_ATTRIBUTE_meterE
libOpenCOLLADASaxFrameworkLoader.so:_ZN15COLLADASaxFWL1420NAME_ATTRIBUTE_paramE
libOpenCOLLADASaxFrameworkLoader.so:_ZN15COLLADASaxFWL1420NAME_ATTRIBUTE_scaleE
libOpenCOLLADASaxFrameworkLoader.so:_ZN15COLLADASaxFWL1420NAME_ATTRIBUTE_sliceE
libOpenCOLLADASaxFrameworkLoader.so:_ZN15COLLADASaxFWL1420NAME_ATTRIBUTE_stageE
libOpenCOLLADASaxFrameworkLoader.so:_ZN15COLLADASaxFWL1420NAME_ATTRIBUTE_startE
libOpenCOLLADASaxFrameworkLoader.so:_ZN15COLLADASaxFWL1420NAME_ATTRIBUTE_valueE
libOpenCOLLADASaxFrameworkLoader.so:_ZN15COLLADASaxFWL1420NAME_ATTRIBUTE_widthE
libOpenCOLLADASaxFrameworkLoader.so:_ZN15COLLADASaxFWL1420NAME_ATTRIBUTE_xmlnsE
libOpenCOLLADASaxFrameworkLoader.so:_ZN15COLLADASaxFWL1420NAME_ELEMENT_AMBIENTE
libOpenCOLLADASaxFrameworkLoader.so:_ZN15COLLADASaxFWL1420NAME_ELEMENT_ANGULARE
libOpenCOLLADASaxFrameworkLoader.so:_ZN15COLLADASaxFWL1420NAME_ELEMENT_BOOL1X1E
libOpenCOLLADASaxFrameworkLoader.so:_ZN15COLLADASaxFWL1420NAME_ELEMENT_BOOL1X2E
libOpenCOLLADASaxFrameworkLoader.so:_ZN15COLLADASaxFWL1420NAME_ELEMENT_BOOL1X3E
libOpenCOLLADASaxFrameworkLoader.so:_ZN15COLLADASaxFWL1420NAME_ELEMENT_BOOL1X4E
libOpenCOLLADASaxFrameworkLoader.so:_ZN15COLLADASaxFWL1420NAME_ELEMENT_BOOL2X1E
libOpenCOLLADASaxFrameworkLoader.so:_ZN15COLLADASaxFWL1420NAME_ELEMENT_BOOL2X2E
libOpenCOLLADASaxFrameworkLoader.so:_ZN15COLLADASaxFWL1420NAME_ELEMENT_BOOL2X3E
libOpenCOLLADASaxFrameworkLoader.so:_ZN15COLLADASaxFWL1420NAME_ELEMENT_BOOL2X4E
libOpenCOLLADASaxFrameworkLoader.so:_ZN15COLLADASaxFWL1420NAME_ELEMENT_BOOL3X1E
libOpenCOLLADASaxFrameworkLoader.so:_ZN15COLLADASaxFWL1420NAME_ELEMENT_BOOL3X2E
libOpenCOLLADASaxFrameworkLoader.so:_ZN15COLLADASaxFWL1420NAME_ELEMENT_BOOL3X3E
libOpenCOLLADASaxFrameworkLoader.so:_ZN15COLLADASaxFWL1420NAME_ELEMENT_BOOL3X4E
libOpenCOLLADASaxFrameworkLoader.so:_ZN15COLLADASaxFWL1420NAME_ELEMENT_BOOL4X1E
libOpenCOLLADASaxFrameworkLoader.so:_ZN15COLLADASaxFWL1420NAME_ELEMENT_BOOL4X2E
libOpenCOLLADASaxFrameworkLoader.so:_ZN15COLLADASaxFWL1420NAME_ELEMENT_BOOL4X3E
libOpenCOLLADASaxFrameworkLoader.so:_ZN15COLLADASaxFWL1420NAME_ELEMENT_BOOL4X4E
libOpenCOLLADASaxFrameworkLoader.so:_ZN15COLLADASaxFWL1420NAME_ELEMENT_CAPSULEE
libOpenCOLLADASaxFrameworkLoader.so:_ZN15COLLADASaxFWL1420NAME_ELEMENT_CHANNELE
libOpenCOLLADASaxFrameworkLoader.so:_ZN15COLLADASaxFWL1420NAME_ELEMENT_COLLADAE
libOpenCOLLADASaxFrameworkLoader.so:_ZN15COLLADASaxFWL1420NAME_ELEMENT_CREATEDE
libOpenCOLLADASaxFrameworkLoader.so:_ZN15COLLADASaxFWL1420NAME_ELEMENT_DAMPINGE
libOpenCOLLADASaxFrameworkLoader.so:_ZN15COLLADASaxFWL1420NAME_ELEMENT_DENSITYE
libOpenCOLLADASaxFrameworkLoader.so:_ZN15COLLADASaxFWL1420NAME_ELEMENT_DIFFUSEE
libOpenCOLLADASaxFrameworkLoader.so:_ZN15COLLADASaxFWL1420NAME_ELEMENT_DYNAMICE
libOpenCOLLADASaxFrameworkLoader.so:_ZN15COLLADASaxFWL1420NAME_ELEMENT_ENABLEDE
libOpenCOLLADASaxFrameworkLoader.so:_ZN15COLLADASaxFWL1420NAME_ELEMENT_FOG_ENDE
libOpenCOLLADASaxFrameworkLoader.so:_ZN15COLLADASaxFWL1420NAME_ELEMENT_GRAVITYE
libOpenCOLLADASaxFrameworkLoader.so:_ZN15COLLADASaxFWL1420NAME_ELEMENT_HALF1X1E
libOpenCOLLADASaxFrameworkLoader.so:_ZN15COLLADASaxFWL1420NAME_ELEMENT_HALF1X2E
libOpenCOLLADASaxFrameworkLoader.so:_ZN15COLLADASaxFWL1420NAME_ELEMENT_HALF1X3E
libOpenCOLLADASaxFrameworkLoader.so:_ZN15COLLADASaxFWL1420NAME_ELEMENT_HALF1X4E
libOpenCOLLADASaxFrameworkLoader.so:_ZN15COLLADASaxFWL1420NAME_ELEMENT_HALF2X1E
libOpenCOLLADASaxFrameworkLoader.so:_ZN15COLLADASaxFWL1420NAME_ELEMENT_HALF2X2E
libOpenCOLLADASaxFrameworkLoader.so:_ZN15COLLADASaxFWL1420NAME_ELEMENT_HALF2X3E
libOpenCOLLADASaxFrameworkLoader.so:_ZN15COLLADASaxFWL1420NAME_ELEMENT_HALF2X4E
libOpenCOLLADASaxFrameworkLoader.so:_ZN15COLLADASaxFWL1420NAME_ELEMENT_HALF3X1E
libOpenCOLLADASaxFrameworkLoader.so:_ZN15COLLADASaxFWL1420NAME_ELEMENT_HALF3X2E
libOpenCOLLADASaxFrameworkLoader.so:_ZN15COLLADASaxFWL1420NAME_ELEMENT_HALF3X3E
libOpenCOLLADASaxFrameworkLoader.so:_ZN15COLLADASaxFWL1420NAME_ELEMENT_HALF3X4E
libOpenCOLLADASaxFrameworkLoader.so:_ZN15COLLADASaxFWL1420NAME_ELEMENT_HALF4X1E
libOpenCOLLADASaxFrameworkLoader.so:_ZN15COLLADASaxFWL1420NAME_ELEMENT_HALF4X2E
libOpenCOLLADASaxFrameworkLoader.so:_ZN15COLLADASaxFWL1420NAME_ELEMENT_HALF4X3E
libOpenCOLLADASaxFrameworkLoader.so:_ZN15COLLADASaxFWL1420NAME_ELEMENT_HALF4X4E
libOpenCOLLADASaxFrameworkLoader.so:_ZN15COLLADASaxFWL1420NAME_ELEMENT_INCLUDEE
libOpenCOLLADASaxFrameworkLoader.so:_ZN15COLLADASaxFWL1420NAME_ELEMENT_INERTIAE
libOpenCOLLADASaxFrameworkLoader.so:_ZN15COLLADASaxFWL1420NAME_ELEMENT_LAMBERTE
libOpenCOLLADASaxFrameworkLoader.so:_ZN15COLLADASaxFWL1420NAME_ELEMENT_PRIMARYE
libOpenCOLLADASaxFrameworkLoader.so:_ZN15COLLADASaxFWL1420NAME_ELEMENT_RADIUS1E
libOpenCOLLADASaxFrameworkLoader.so:_ZN15COLLADASaxFWL1420NAME_ELEMENT_RADIUS2E
libOpenCOLLADASaxFrameworkLoader.so:_ZN15COLLADASaxFWL1420NAME_ELEMENT_SAMPLERE
libOpenCOLLADASaxFrameworkLoader.so:_ZN15COLLADASaxFWL1420NAME_ELEMENT_SCISSORE
libOpenCOLLADASaxFrameworkLoader.so:_ZN15COLLADASaxFWL1420NAME_ELEMENT_SRC_RGBE
libOpenCOLLADASaxFrameworkLoader.so:_ZN15COLLADASaxFWL1420NAME_ELEMENT_SUBJECTE
libOpenCOLLADASaxFrameworkLoader.so:_ZN15COLLADASaxFWL1420NAME_ELEMENT_SURFACEE
libOpenCOLLADASaxFrameworkLoader.so:_ZN15COLLADASaxFWL1420NAME_ELEMENT_TARGETSE
libOpenCOLLADASaxFrameworkLoader.so:_ZN15COLLADASaxFWL1420NAME_ELEMENT_TEXTUREE
libOpenCOLLADASaxFrameworkLoader.so:_ZN15COLLADASaxFWL1420NAME_ELEMENT_TRIFANSE
libOpenCOLLADASaxFrameworkLoader.so:_ZN15COLLADASaxFWL1420NAME_ELEMENT_UP_AXISE
libOpenCOLLADASaxFrameworkLoader.so:_ZN15COLLADASaxFWL1420extra__AttributeData7DEFAULTE
libOpenCOLLADASaxFrameworkLoader.so:_ZN15COLLADASaxFWL1420front__AttributeData7DEFAULTE
libOpenCOLLADASaxFrameworkLoader.so:_ZN15COLLADASaxFWL1420image__AttributeData7DEFAULTE
libOpenCOLLADASaxFrameworkLoader.so:_ZN15COLLADASaxFWL1420light__AttributeData7DEFAULTE
libOpenCOLLADASaxFrameworkLoader.so:_ZN15COLLADASaxFWL1420lines__AttributeData7DEFAULTE
libOpenCOLLADASaxFrameworkLoader.so:_ZN15COLLADASaxFWL1420morph__AttributeData7DEFAULTE
libOpenCOLLADASaxFrameworkLoader.so:_ZN15COLLADASaxFWL1420param__AttributeData7DEFAULTE
libOpenCOLLADASaxFrameworkLoader.so:_ZN15COLLADASaxFWL1420scale__AttributeData7DEFAULTE
libOpenCOLLADASaxFrameworkLoader.so:_ZN15COLLADASaxFWL1420znear__AttributeData7DEFAULTE
libOpenCOLLADASaxFrameworkLoader.so:_ZN15COLLADASaxFWL1421ENUM__gl_face_typeMapE
libOpenCOLLADASaxFrameworkLoader.so:_ZN15COLLADASaxFWL1421ENUM__gl_func_typeMapE
libOpenCOLLADASaxFrameworkLoader.so:_ZN15COLLADASaxFWL1421NAME_ATTRIBUTE_closedE
libOpenCOLLADASaxFrameworkLoader.so:_ZN15COLLADASaxFWL1421NAME_ATTRIBUTE_digitsE
libOpenCOLLADASaxFrameworkLoader.so:_ZN15COLLADASaxFWL1421NAME_ATTRIBUTE_formatE
libOpenCOLLADASaxFrameworkLoader.so:_ZN15COLLADASaxFWL1421NAME_ATTRIBUTE_heightE
libOpenCOLLADASaxFrameworkLoader.so:_ZN15COLLADASaxFWL1421NAME_ATTRIBUTE_lengthE
libOpenCOLLADASaxFrameworkLoader.so:_ZN15COLLADASaxFWL1421NAME_ATTRIBUTE_methodE
libOpenCOLLADASaxFrameworkLoader.so:_ZN15COLLADASaxFWL1421NAME_ATTRIBUTE_offsetE
libOpenCOLLADASaxFrameworkLoader.so:_ZN15COLLADASaxFWL1421NAME_ATTRIBUTE_opaqueE
libOpenCOLLADASaxFrameworkLoader.so:_ZN15COLLADASaxFWL1421NAME_ATTRIBUTE_parentE
libOpenCOLLADASaxFrameworkLoader.so:_ZN15COLLADASaxFWL1421NAME_ATTRIBUTE_sourceE
libOpenCOLLADASaxFrameworkLoader.so:_ZN15COLLADASaxFWL1421NAME_ATTRIBUTE_strideE
libOpenCOLLADASaxFrameworkLoader.so:_ZN15COLLADASaxFWL1421NAME_ATTRIBUTE_symbolE
libOpenCOLLADASaxFrameworkLoader.so:_ZN15COLLADASaxFWL1421NAME_ATTRIBUTE_targetE
libOpenCOLLADASaxFrameworkLoader.so:_ZN15COLLADASaxFWL1421NAME_ELEMENT_ACCESSORE
libOpenCOLLADASaxFrameworkLoader.so:_ZN15COLLADASaxFWL1421NAME_ELEMENT_ANNOTATEE
libOpenCOLLADASaxFrameworkLoader.so:_ZN15COLLADASaxFWL1421NAME_ELEMENT_ARGUMENTE
libOpenCOLLADASaxFrameworkLoader.so:_ZN15COLLADASaxFWL1421NAME_ELEMENT_CHANNELSE
libOpenCOLLADASaxFrameworkLoader.so:_ZN15COLLADASaxFWL1421NAME_ELEMENT_COMMENTSE
libOpenCOLLADASaxFrameworkLoader.so:_ZN15COLLADASaxFWL1421NAME_ELEMENT_CONSTANTE
libOpenCOLLADASaxFrameworkLoader.so:_ZN15COLLADASaxFWL1421NAME_ELEMENT_CYLINDERE
libOpenCOLLADASaxFrameworkLoader.so:_ZN15COLLADASaxFWL1421NAME_ELEMENT_DEST_RGBE
libOpenCOLLADASaxFrameworkLoader.so:_ZN15COLLADASaxFWL1421NAME_ELEMENT_EMISSIONE
libOpenCOLLADASaxFrameworkLoader.so:_ZN15COLLADASaxFWL1421NAME_ELEMENT_EQUATIONE
libOpenCOLLADASaxFrameworkLoader.so:_ZN15COLLADASaxFWL1421NAME_ELEMENT_FIXED1X1E
libOpenCOLLADASaxFrameworkLoader.so:_ZN15COLLADASaxFWL1421NAME_ELEMENT_FIXED1X2E
libOpenCOLLADASaxFrameworkLoader.so:_ZN15COLLADASaxFWL1421NAME_ELEMENT_FIXED1X3E
libOpenCOLLADASaxFrameworkLoader.so:_ZN15COLLADASaxFWL1421NAME_ELEMENT_FIXED1X4E
libOpenCOLLADASaxFrameworkLoader.so:_ZN15COLLADASaxFWL1421NAME_ELEMENT_FIXED2X1E
libOpenCOLLADASaxFrameworkLoader.so:_ZN15COLLADASaxFWL1421NAME_ELEMENT_FIXED2X2E
libOpenCOLLADASaxFrameworkLoader.so:_ZN15COLLADASaxFWL1421NAME_ELEMENT_FIXED2X3E
libOpenCOLLADASaxFrameworkLoader.so:_ZN15COLLADASaxFWL1421NAME_ELEMENT_FIXED2X4E
libOpenCOLLADASaxFrameworkLoader.so:_ZN15COLLADASaxFWL1421NAME_ELEMENT_FIXED3X1E
libOpenCOLLADASaxFrameworkLoader.so:_ZN15COLLADASaxFWL1421NAME_ELEMENT_FIXED3X2E
libOpenCOLLADASaxFrameworkLoader.so:_ZN15COLLADASaxFWL1421NAME_ELEMENT_FIXED3X3E
libOpenCOLLADASaxFrameworkLoader.so:_ZN15COLLADASaxFWL1421NAME_ELEMENT_FIXED3X4E
libOpenCOLLADASaxFrameworkLoader.so:_ZN15COLLADASaxFWL1421NAME_ELEMENT_FIXED4X1E
libOpenCOLLADASaxFrameworkLoader.so:_ZN15COLLADASaxFWL1421NAME_ELEMENT_FIXED4X2E
libOpenCOLLADASaxFrameworkLoader.so:_ZN15COLLADASaxFWL1421NAME_ELEMENT_FIXED4X3E
libOpenCOLLADASaxFrameworkLoader.so:_ZN15COLLADASaxFWL1421NAME_ELEMENT_FIXED4X4E
libOpenCOLLADASaxFrameworkLoader.so:_ZN15COLLADASaxFWL1421NAME_ELEMENT_FLOAT1X1E
libOpenCOLLADASaxFrameworkLoader.so:_ZN15COLLADASaxFWL1421NAME_ELEMENT_FLOAT1X2E
libOpenCOLLADASaxFrameworkLoader.so:_ZN15COLLADASaxFWL1421NAME_ELEMENT_FLOAT1X3E
libOpenCOLLADASaxFrameworkLoader.so:_ZN15COLLADASaxFWL1421NAME_ELEMENT_FLOAT1X4E
libOpenCOLLADASaxFrameworkLoader.so:_ZN15COLLADASaxFWL1421NAME_ELEMENT_FLOAT2X1E
libOpenCOLLADASaxFrameworkLoader.so:_ZN15COLLADASaxFWL1421NAME_ELEMENT_FLOAT2X2E
libOpenCOLLADASaxFrameworkLoader.so:_ZN15COLLADASaxFWL1421NAME_ELEMENT_FLOAT2X3E
libOpenCOLLADASaxFrameworkLoader.so:_ZN15COLLADASaxFWL1421NAME_ELEMENT_FLOAT2X4E
libOpenCOLLADASaxFrameworkLoader.so:_ZN15COLLADASaxFWL1421NAME_ELEMENT_FLOAT3X1E
libOpenCOLLADASaxFrameworkLoader.so:_ZN15COLLADASaxFWL1421NAME_ELEMENT_FLOAT3X2E
libOpenCOLLADASaxFrameworkLoader.so:_ZN15COLLADASaxFWL1421NAME_ELEMENT_FLOAT3X3E
libOpenCOLLADASaxFrameworkLoader.so:_ZN15COLLADASaxFWL1421NAME_ELEMENT_FLOAT3X4E
libOpenCOLLADASaxFrameworkLoader.so:_ZN15COLLADASaxFWL1421NAME_ELEMENT_FLOAT4X1E
libOpenCOLLADASaxFrameworkLoader.so:_ZN15COLLADASaxFWL1421NAME_ELEMENT_FLOAT4X2E
libOpenCOLLADASaxFrameworkLoader.so:_ZN15COLLADASaxFWL1421NAME_ELEMENT_FLOAT4X3E
libOpenCOLLADASaxFrameworkLoader.so:_ZN15COLLADASaxFWL1421NAME_ELEMENT_FLOAT4X4E
libOpenCOLLADASaxFrameworkLoader.so:_ZN15COLLADASaxFWL1421NAME_ELEMENT_FOG_MODEE
libOpenCOLLADASaxFrameworkLoader.so:_ZN15COLLADASaxFWL1421NAME_ELEMENT_GEOMETRYE
libOpenCOLLADASaxFrameworkLoader.so:_ZN15COLLADASaxFWL1421NAME_ELEMENT_KEYWORDSE
libOpenCOLLADASaxFrameworkLoader.so:_ZN15COLLADASaxFWL1421NAME_ELEMENT_LOGIC_OPE
libOpenCOLLADASaxFrameworkLoader.so:_ZN15COLLADASaxFWL1421NAME_ELEMENT_MATERIALE
libOpenCOLLADASaxFrameworkLoader.so:_ZN15COLLADASaxFWL1421NAME_ELEMENT_MODIFIEDE
libOpenCOLLADASaxFrameworkLoader.so:_ZN15COLLADASaxFWL1421NAME_ELEMENT_MODIFIERE
libOpenCOLLADASaxFrameworkLoader.so:_ZN15COLLADASaxFWL1421NAME_ELEMENT_NEWPARAME
libOpenCOLLADASaxFrameworkLoader.so:_ZN15COLLADASaxFWL1421NAME_ELEMENT_POLYGONSE
libOpenCOLLADASaxFrameworkLoader.so:_ZN15COLLADASaxFWL1421NAME_ELEMENT_POLYLISTE
libOpenCOLLADASaxFrameworkLoader.so:_ZN15COLLADASaxFWL1421NAME_ELEMENT_REVISIONE
libOpenCOLLADASaxFrameworkLoader.so:_ZN15COLLADASaxFWL1421NAME_ELEMENT_SEMANTICE
libOpenCOLLADASaxFrameworkLoader.so:_ZN15COLLADASaxFWL1421NAME_ELEMENT_SETPARAME
libOpenCOLLADASaxFrameworkLoader.so:_ZN15COLLADASaxFWL1421NAME_ELEMENT_SKELETONE
libOpenCOLLADASaxFrameworkLoader.so:_ZN15COLLADASaxFWL1421NAME_ELEMENT_SPECULARE
libOpenCOLLADASaxFrameworkLoader.so:_ZN15COLLADASaxFWL1421NAME_ELEMENT_TEXCOORDE
libOpenCOLLADASaxFrameworkLoader.so:_ZN15COLLADASaxFWL1421NAME_ELEMENT_USERTYPEE
libOpenCOLLADASaxFrameworkLoader.so:_ZN15COLLADASaxFWL1421NAME_ELEMENT_VELOCITYE
libOpenCOLLADASaxFrameworkLoader.so:_ZN15COLLADASaxFWL1421NAME_ELEMENT_VERTICESE
libOpenCOLLADASaxFrameworkLoader.so:_ZN15COLLADASaxFWL1421camera__AttributeData7DEFAULTE
libOpenCOLLADASaxFrameworkLoader.so:_ZN15COLLADASaxFWL1421effect__AttributeData7DEFAULTE
libOpenCOLLADASaxFrameworkLoader.so:_ZN15COLLADASaxFWL1421lookat__AttributeData7DEFAULTE
libOpenCOLLADASaxFrameworkLoader.so:_ZN15COLLADASaxFWL1421matrix__AttributeData7DEFAULTE
libOpenCOLLADASaxFrameworkLoader.so:_ZN15COLLADASaxFWL1421render__AttributeData7DEFAULTE
libOpenCOLLADASaxFrameworkLoader.so:_ZN15COLLADASaxFWL1421rotate__AttributeData7DEFAULTE
libOpenCOLLADASaxFrameworkLoader.so:_ZN15COLLADASaxFWL1421source__AttributeData7DEFAULTE
libOpenCOLLADASaxFrameworkLoader.so:_ZN15COLLADASaxFWL1421spline__AttributeData7DEFAULTE
libOpenCOLLADASaxFrameworkLoader.so:_ZN15COLLADASaxFWL1421texenv__AttributeData7DEFAULTE
libOpenCOLLADASaxFrameworkLoader.so:_ZN15COLLADASaxFWL1421toEnum_ENUM__NodeTypeEPPKcS1_RbPKSt4pairImNS_14ENUM__NodeTypeEEPFmS2_S1_S3_E
libOpenCOLLADASaxFrameworkLoader.so:_ZN15COLLADASaxFWL1422COLLADA__AttributeData7DEFAULTE
libOpenCOLLADASaxFrameworkLoader.so:_ZN15COLLADASaxFWL1422ENUM__gl_blend_typeMapE
libOpenCOLLADASaxFrameworkLoader.so:_ZN15COLLADASaxFWL1422NAME_ATTRIBUTE_operandE
libOpenCOLLADASaxFrameworkLoader.so:_ZN15COLLADASaxFWL1422NAME_ATTRIBUTE_profileE
libOpenCOLLADASaxFrameworkLoader.so:_ZN15COLLADASaxFWL1422NAME_ATTRIBUTE_programE
libOpenCOLLADASaxFrameworkLoader.so:_ZN15COLLADASaxFWL1422NAME_ATTRIBUTE_textureE
libOpenCOLLADASaxFrameworkLoader.so:_ZN15COLLADASaxFWL1422NAME_ATTRIBUTE_versionE
libOpenCOLLADASaxFrameworkLoader.so:_ZN15COLLADASaxFWL1422NAME_ELEMENT_ANIMATIONE
libOpenCOLLADASaxFrameworkLoader.so:_ZN15COLLADASaxFWL1422NAME_ELEMENT_COPYRIGHTE
libOpenCOLLADASaxFrameworkLoader.so:_ZN15COLLADASaxFWL1422NAME_ELEMENT_CULL_FACEE
libOpenCOLLADASaxFrameworkLoader.so:_ZN15COLLADASaxFWL1422NAME_ELEMENT_ELLIPSOIDE
libOpenCOLLADASaxFrameworkLoader.so:_ZN15COLLADASaxFWL1422NAME_ELEMENT_FOG_COLORE
libOpenCOLLADASaxFrameworkLoader.so:_ZN15COLLADASaxFWL1422NAME_ELEMENT_FOG_STARTE
libOpenCOLLADASaxFrameworkLoader.so:_ZN15COLLADASaxFWL1422NAME_ELEMENT_GENERATORE
libOpenCOLLADASaxFrameworkLoader.so:_ZN15COLLADASaxFWL1422NAME_ELEMENT_INIT_CUBEE
libOpenCOLLADASaxFrameworkLoader.so:_ZN15COLLADASaxFWL1422NAME_ELEMENT_INIT_FROME
libOpenCOLLADASaxFrameworkLoader.so:_ZN15COLLADASaxFWL1422NAME_ELEMENT_INT_ARRAYE
libOpenCOLLADASaxFrameworkLoader.so:_ZN15COLLADASaxFWL1422NAME_ELEMENT_MAGFILTERE
libOpenCOLLADASaxFrameworkLoader.so:_ZN15COLLADASaxFWL1422NAME_ELEMENT_MINFILTERE
libOpenCOLLADASaxFrameworkLoader.so:_ZN15COLLADASaxFWL1422NAME_ELEMENT_MIPFILTERE
libOpenCOLLADASaxFrameworkLoader.so:_ZN15COLLADASaxFWL1422NAME_ELEMENT_PRECISIONE
libOpenCOLLADASaxFrameworkLoader.so:_ZN15COLLADASaxFWL1422NAME_ELEMENT_SAMPLER1DE
libOpenCOLLADASaxFrameworkLoader.so:_ZN15COLLADASaxFWL1422NAME_ELEMENT_SAMPLER2DE
libOpenCOLLADASaxFrameworkLoader.so:_ZN15COLLADASaxFWL1422NAME_ELEMENT_SAMPLER3DE
libOpenCOLLADASaxFrameworkLoader.so:_ZN15COLLADASaxFWL1422NAME_ELEMENT_SHININESSE
libOpenCOLLADASaxFrameworkLoader.so:_ZN15COLLADASaxFWL1422NAME_ELEMENT_SRC_ALPHAE
libOpenCOLLADASaxFrameworkLoader.so:_ZN15COLLADASaxFWL1422NAME_ELEMENT_STIFFNESSE
libOpenCOLLADASaxFrameworkLoader.so:_ZN15COLLADASaxFWL1422NAME_ELEMENT_TECHNIQUEE
libOpenCOLLADASaxFrameworkLoader.so:_ZN15COLLADASaxFWL1422NAME_ELEMENT_TEXTURE1DE
libOpenCOLLADASaxFrameworkLoader.so:_ZN15COLLADASaxFWL1422NAME_ELEMENT_TEXTURE2DE
libOpenCOLLADASaxFrameworkLoader.so:_ZN15COLLADASaxFWL1422NAME_ELEMENT_TEXTURE3DE
libOpenCOLLADASaxFrameworkLoader.so:_ZN15COLLADASaxFWL1422NAME_ELEMENT_TIME_STEPE
libOpenCOLLADASaxFrameworkLoader.so:_ZN15COLLADASaxFWL1422NAME_ELEMENT_TRANSLATEE
libOpenCOLLADASaxFrameworkLoader.so:_ZN15COLLADASaxFWL1422NAME_ELEMENT_TRIANGLESE
libOpenCOLLADASaxFrameworkLoader.so:_ZN15COLLADASaxFWL1422NAME_ELEMENT_TRISTRIPSE
libOpenCOLLADASaxFrameworkLoader.so:_ZN15COLLADASaxFWL1422NAME_NAMESPACE_COLLADAE
libOpenCOLLADASaxFrameworkLoader.so:_ZN15COLLADASaxFWL1422channel__AttributeData7DEFAULTE
libOpenCOLLADASaxFrameworkLoader.so:_ZN15COLLADASaxFWL1422damping__AttributeData7DEFAULTE
libOpenCOLLADASaxFrameworkLoader.so:_ZN15COLLADASaxFWL1422density__AttributeData7DEFAULTE
libOpenCOLLADASaxFrameworkLoader.so:_ZN15COLLADASaxFWL1422enabled__AttributeData7DEFAULTE
libOpenCOLLADASaxFrameworkLoader.so:_ZN15COLLADASaxFWL1422gravity__AttributeData7DEFAULTE
libOpenCOLLADASaxFrameworkLoader.so:_ZN15COLLADASaxFWL1422include__AttributeData7DEFAULTE
libOpenCOLLADASaxFrameworkLoader.so:_ZN15COLLADASaxFWL1422inertia__AttributeData7DEFAULTE
libOpenCOLLADASaxFrameworkLoader.so:_ZN15COLLADASaxFWL1422sampler__AttributeData7DEFAULTE
libOpenCOLLADASaxFrameworkLoader.so:_ZN15COLLADASaxFWL1422src_rgb__AttributeData7DEFAULTE
libOpenCOLLADASaxFrameworkLoader.so:_ZN15COLLADASaxFWL1422texture__AttributeData7DEFAULTE
libOpenCOLLADASaxFrameworkLoader.so:_ZN15COLLADASaxFWL1422trifans__AttributeData7DEFAULTE
libOpenCOLLADASaxFrameworkLoader.so:_ZN15COLLADASaxFWL1423ENUM__fx_opaque_enumMapE
libOpenCOLLADASaxFrameworkLoader.so:_ZN15COLLADASaxFWL1423NAME_ATTRIBUTE_materialE
libOpenCOLLADASaxFrameworkLoader.so:_ZN15COLLADASaxFWL1423NAME_ATTRIBUTE_operatorE
libOpenCOLLADASaxFrameworkLoader.so:_ZN15COLLADASaxFWL1423NAME_ATTRIBUTE_platformE
libOpenCOLLADASaxFrameworkLoader.so:_ZN15COLLADASaxFWL1423NAME_ATTRIBUTE_semanticE
libOpenCOLLADASaxFrameworkLoader.so:_ZN15COLLADASaxFWL1423NAME_ATTRIBUTE_texcoordE
libOpenCOLLADASaxFrameworkLoader.so:_ZN15COLLADASaxFWL1423NAME_ELEMENT_ALPHA_FUNCE
libOpenCOLLADASaxFrameworkLoader.so:_ZN15COLLADASaxFWL1423NAME_ELEMENT_ATTACHMENTE
libOpenCOLLADASaxFrameworkLoader.so:_ZN15COLLADASaxFWL1423NAME_ELEMENT_BLEND_FUNCE
libOpenCOLLADASaxFrameworkLoader.so:_ZN15COLLADASaxFWL1423NAME_ELEMENT_BOOL_ARRAYE
libOpenCOLLADASaxFrameworkLoader.so:_ZN15COLLADASaxFWL1423NAME_ELEMENT_CLIP_PLANEE
libOpenCOLLADASaxFrameworkLoader.so:_ZN15COLLADASaxFWL1423NAME_ELEMENT_COLOR_MASKE
libOpenCOLLADASaxFrameworkLoader.so:_ZN15COLLADASaxFWL1423NAME_ELEMENT_CONTROLLERE
libOpenCOLLADASaxFrameworkLoader.so:_ZN15COLLADASaxFWL1423NAME_ELEMENT_DEPTH_FUNCE
libOpenCOLLADASaxFrameworkLoader.so:_ZN15COLLADASaxFWL1423NAME_ELEMENT_DEPTH_MASKE
libOpenCOLLADASaxFrameworkLoader.so:_ZN15COLLADASaxFWL1423NAME_ELEMENT_DEST_ALPHAE
libOpenCOLLADASaxFrameworkLoader.so:_ZN15COLLADASaxFWL1423NAME_ELEMENT_FOG_ENABLEE
libOpenCOLLADASaxFrameworkLoader.so:_ZN15COLLADASaxFWL1423NAME_ELEMENT_FRONT_FACEE
libOpenCOLLADASaxFrameworkLoader.so:_ZN15COLLADASaxFWL1423NAME_ELEMENT_INT____INTE
libOpenCOLLADASaxFrameworkLoader.so:_ZN15COLLADASaxFWL1423NAME_ELEMENT_LINESTRIPSE
libOpenCOLLADASaxFrameworkLoader.so:_ZN15COLLADASaxFWL1423NAME_ELEMENT_LINE_WIDTHE
libOpenCOLLADASaxFrameworkLoader.so:_ZN15COLLADASaxFWL1423NAME_ELEMENT_MASS_FRAMEE
libOpenCOLLADASaxFrameworkLoader.so:_ZN15COLLADASaxFWL1423NAME_ELEMENT_MIP_LEVELSE
libOpenCOLLADASaxFrameworkLoader.so:_ZN15COLLADASaxFWL1423NAME_ELEMENT_NAME_ARRAYE
libOpenCOLLADASaxFrameworkLoader.so:_ZN15COLLADASaxFWL1423NAME_ELEMENT_POINT_SIZEE
libOpenCOLLADASaxFrameworkLoader.so:_ZN15COLLADASaxFWL1423NAME_ELEMENT_PROFILE_CGE
libOpenCOLLADASaxFrameworkLoader.so:_ZN15COLLADASaxFWL1423NAME_ELEMENT_REFLECTIVEE
libOpenCOLLADASaxFrameworkLoader.so:_ZN15COLLADASaxFWL1423NAME_ELEMENT_RIGID_BODYE
libOpenCOLLADASaxFrameworkLoader.so:_ZN15COLLADASaxFWL1423NAME_ELEMENT_STENCIL_OPE
libOpenCOLLADASaxFrameworkLoader.so:_ZN15COLLADASaxFWL1423accessor__AttributeData7DEFAULTE
libOpenCOLLADASaxFrameworkLoader.so:_ZN15COLLADASaxFWL1423annotate__AttributeData7DEFAULTE
libOpenCOLLADASaxFrameworkLoader.so:_ZN15COLLADASaxFWL1423dest_rgb__AttributeData7DEFAULTE
libOpenCOLLADASaxFrameworkLoader.so:_ZN15COLLADASaxFWL1423geometry__AttributeData7DEFAULTE
libOpenCOLLADASaxFrameworkLoader.so:_ZN15COLLADASaxFWL1423material__AttributeData7DEFAULTE
libOpenCOLLADASaxFrameworkLoader.so:_ZN15COLLADASaxFWL1423polygons__AttributeData7DEFAULTE
libOpenCOLLADASaxFrameworkLoader.so:_ZN15COLLADASaxFWL1423polylist__AttributeData7DEFAULTE
libOpenCOLLADASaxFrameworkLoader.so:_ZN15COLLADASaxFWL1423texcoord__AttributeData7DEFAULTE
libOpenCOLLADASaxFrameworkLoader.so:_ZN15COLLADASaxFWL1423toEnum_ENUM__UpAxisTypeEPPKcS1_RbPKSt4pairImNS_16ENUM__UpAxisTypeEEPFmS2_S1_S3_E
libOpenCOLLADASaxFrameworkLoader.so:_ZN15COLLADASaxFWL1423usertype__AttributeData7DEFAULTE
libOpenCOLLADASaxFrameworkLoader.so:_ZN15COLLADASaxFWL1423vertices__AttributeData7DEFAULTE
libOpenCOLLADASaxFrameworkLoader.so:_ZN15COLLADASaxFWL1424ENUM__MorphMethodTypeMapE
libOpenCOLLADASaxFrameworkLoader.so:_ZN15COLLADASaxFWL1424NAME_ATTRIBUTE_input_setE
libOpenCOLLADASaxFrameworkLoader.so:_ZN15COLLADASaxFWL1424NAME_ATTRIBUTE_magnitudeE
libOpenCOLLADASaxFrameworkLoader.so:_ZN15COLLADASaxFWL1424NAME_ELEMENT_BLEND_COLORE
libOpenCOLLADASaxFrameworkLoader.so:_ZN15COLLADASaxFWL1424NAME_ELEMENT_CLEAR_COLORE
libOpenCOLLADASaxFrameworkLoader.so:_ZN15COLLADASaxFWL1424NAME_ELEMENT_CLEAR_DEPTHE
libOpenCOLLADASaxFrameworkLoader.so:_ZN15COLLADASaxFWL1424NAME_ELEMENT_COLOR_CLEARE
libOpenCOLLADASaxFrameworkLoader.so:_ZN15COLLADASaxFWL1424NAME_ELEMENT_CONTRIBUTORE
libOpenCOLLADASaxFrameworkLoader.so:_ZN15COLLADASaxFWL1424NAME_ELEMENT_CONVEX_MESHE
libOpenCOLLADASaxFrameworkLoader.so:_ZN15COLLADASaxFWL1424NAME_ELEMENT_DEPTH_CLEARE
libOpenCOLLADASaxFrameworkLoader.so:_ZN15COLLADASaxFWL1424NAME_ELEMENT_DEPTH_RANGEE
libOpenCOLLADASaxFrameworkLoader.so:_ZN15COLLADASaxFWL1424NAME_ELEMENT_DIRECTIONALE
libOpenCOLLADASaxFrameworkLoader.so:_ZN15COLLADASaxFWL1424NAME_ELEMENT_FLOAT_ARRAYE
libOpenCOLLADASaxFrameworkLoader.so:_ZN15COLLADASaxFWL1424NAME_ELEMENT_FOG_DENSITYE
libOpenCOLLADASaxFrameworkLoader.so:_ZN15COLLADASaxFWL1424NAME_ELEMENT_FORCE_FIELDE
libOpenCOLLADASaxFrameworkLoader.so:_ZN15COLLADASaxFWL1424NAME_ELEMENT_FORMAT_HINTE
libOpenCOLLADASaxFrameworkLoader.so:_ZN15COLLADASaxFWL1424NAME_ELEMENT_IDREF_ARRAYE
libOpenCOLLADASaxFrameworkLoader.so:_ZN15COLLADASaxFWL1424NAME_ELEMENT_INIT_PLANARE
libOpenCOLLADASaxFrameworkLoader.so:_ZN15COLLADASaxFWL1424NAME_ELEMENT_INIT_VOLUMEE
libOpenCOLLADASaxFrameworkLoader.so:_ZN15COLLADASaxFWL1424NAME_ELEMENT_MIPMAP_BIASE
libOpenCOLLADASaxFrameworkLoader.so:_ZN15COLLADASaxFWL1424NAME_ELEMENT_PERSPECTIVEE
libOpenCOLLADASaxFrameworkLoader.so:_ZN15COLLADASaxFWL1424NAME_ELEMENT_RESTITUTIONE
libOpenCOLLADASaxFrameworkLoader.so:_ZN15COLLADASaxFWL1424NAME_ELEMENT_SAMPLERCUBEE
libOpenCOLLADASaxFrameworkLoader.so:_ZN15COLLADASaxFWL1424NAME_ELEMENT_SAMPLERRECTE
libOpenCOLLADASaxFrameworkLoader.so:_ZN15COLLADASaxFWL1424NAME_ELEMENT_SHADE_MODELE
libOpenCOLLADASaxFrameworkLoader.so:_ZN15COLLADASaxFWL1424NAME_ELEMENT_SOURCE_DATAE
libOpenCOLLADASaxFrameworkLoader.so:_ZN15COLLADASaxFWL1424NAME_ELEMENT_TEXCOMBINERE
libOpenCOLLADASaxFrameworkLoader.so:_ZN15COLLADASaxFWL1424NAME_ELEMENT_TEXTURECUBEE
libOpenCOLLADASaxFrameworkLoader.so:_ZN15COLLADASaxFWL1424NAME_ELEMENT_TEXTURERECTE
libOpenCOLLADASaxFrameworkLoader.so:_ZN15COLLADASaxFWL1424NAME_ELEMENT_TRANSPARENTE
libOpenCOLLADASaxFrameworkLoader.so:_ZN15COLLADASaxFWL1424animation__AttributeData7DEFAULTE
libOpenCOLLADASaxFrameworkLoader.so:_ZN15COLLADASaxFWL1424int_array__AttributeData7DEFAULTE
libOpenCOLLADASaxFrameworkLoader.so:_ZN15COLLADASaxFWL1424src_alpha__AttributeData7DEFAULTE
libOpenCOLLADASaxFrameworkLoader.so:_ZN15COLLADASaxFWL1424stiffness__AttributeData7DEFAULTE
libOpenCOLLADASaxFrameworkLoader.so:_ZN15COLLADASaxFWL1424technique__AttributeData7DEFAULTE
libOpenCOLLADASaxFrameworkLoader.so:_ZN15COLLADASaxFWL1424texture1D__AttributeData7DEFAULTE
libOpenCOLLADASaxFrameworkLoader.so:_ZN15COLLADASaxFWL1424texture2D__AttributeData7DEFAULTE
libOpenCOLLADASaxFrameworkLoader.so:_ZN15COLLADASaxFWL1424texture3D__AttributeData7DEFAULTE
libOpenCOLLADASaxFrameworkLoader.so:_ZN15COLLADASaxFWL1424time_step__AttributeData7DEFAULTE
libOpenCOLLADASaxFrameworkLoader.so:_ZN15COLLADASaxFWL1424toEnum_ENUM__VersionTypeEPPKcS1_RbPKSt4pairImNS_17ENUM__VersionTypeEEPFmS2_S1_S3_E
libOpenCOLLADASaxFrameworkLoader.so:_ZN15COLLADASaxFWL1424toEnum_ENUM__gl_fog_typeEPPKcS1_RbPKSt4pairImNS_17ENUM__gl_fog_typeEEPFmS2_S1_S3_E
libOpenCOLLADASaxFrameworkLoader.so:_ZN15COLLADASaxFWL1424translate__AttributeData7DEFAULTE
libOpenCOLLADASaxFrameworkLoader.so:_ZN15COLLADASaxFWL1424triangles__AttributeData7DEFAULTE
libOpenCOLLADASaxFrameworkLoader.so:_ZN15COLLADASaxFWL1424tristrips__AttributeData7DEFAULTE
libOpenCOLLADASaxFrameworkLoader.so:_ZN15COLLADASaxFWL1425ENUM__gl_logic_op_typeMapE
libOpenCOLLADASaxFrameworkLoader.so:_ZN15COLLADASaxFWL1425ENUM__gl_material_typeMapE
libOpenCOLLADASaxFrameworkLoader.so:_ZN15COLLADASaxFWL1425NAME_ATTRIBUTE_constraintE
libOpenCOLLADASaxFrameworkLoader.so:_ZN15COLLADASaxFWL1425NAME_ATTRIBUTE_rigid_bodyE
libOpenCOLLADASaxFrameworkLoader.so:_ZN15COLLADASaxFWL1425NAME_ELEMENT_ASPECT_RATIOE
libOpenCOLLADASaxFrameworkLoader.so:_ZN15COLLADASaxFWL1425NAME_ELEMENT_BLEND_ENABLEE
libOpenCOLLADASaxFrameworkLoader.so:_ZN15COLLADASaxFWL1425NAME_ELEMENT_BOOL____BOOLE
libOpenCOLLADASaxFrameworkLoader.so:_ZN15COLLADASaxFWL1425NAME_ELEMENT_BORDER_COLORE
libOpenCOLLADASaxFrameworkLoader.so:_ZN15COLLADASaxFWL1425NAME_ELEMENT_COLOR_TARGETE
libOpenCOLLADASaxFrameworkLoader.so:_ZN15COLLADASaxFWL1425NAME_ELEMENT_DEPTH_BOUNDSE
libOpenCOLLADASaxFrameworkLoader.so:_ZN15COLLADASaxFWL1425NAME_ELEMENT_DEPTH_TARGETE
libOpenCOLLADASaxFrameworkLoader.so:_ZN15COLLADASaxFWL1425NAME_ELEMENT_HALF_EXTENTSE
libOpenCOLLADASaxFrameworkLoader.so:_ZN15COLLADASaxFWL1425NAME_ELEMENT_INIT_AS_NULLE
libOpenCOLLADASaxFrameworkLoader.so:_ZN15COLLADASaxFWL1425NAME_ELEMENT_INT2____INT2E
libOpenCOLLADASaxFrameworkLoader.so:_ZN15COLLADASaxFWL1425NAME_ELEMENT_INT3____INT3E
libOpenCOLLADASaxFrameworkLoader.so:_ZN15COLLADASaxFWL1425NAME_ELEMENT_INT4____INT4E
libOpenCOLLADASaxFrameworkLoader.so:_ZN15COLLADASaxFWL1425NAME_ELEMENT_LIGHT_ENABLEE
libOpenCOLLADASaxFrameworkLoader.so:_ZN15COLLADASaxFWL1425NAME_ELEMENT_LINE_STIPPLEE
libOpenCOLLADASaxFrameworkLoader.so:_ZN15COLLADASaxFWL1425NAME_ELEMENT_ORTHOGRAPHICE
libOpenCOLLADASaxFrameworkLoader.so:_ZN15COLLADASaxFWL1425NAME_ELEMENT_POLYGON_MODEE
libOpenCOLLADASaxFrameworkLoader.so:_ZN15COLLADASaxFWL1425NAME_ELEMENT_PROFILE_GLESE
libOpenCOLLADASaxFrameworkLoader.so:_ZN15COLLADASaxFWL1425NAME_ELEMENT_PROFILE_GLSLE
libOpenCOLLADASaxFrameworkLoader.so:_ZN15COLLADASaxFWL1425NAME_ELEMENT_REFLECTIVITYE
libOpenCOLLADASaxFrameworkLoader.so:_ZN15COLLADASaxFWL1425NAME_ELEMENT_SAMPLERDEPTHE
libOpenCOLLADASaxFrameworkLoader.so:_ZN15COLLADASaxFWL1425NAME_ELEMENT_SIZE____INT3E
libOpenCOLLADASaxFrameworkLoader.so:_ZN15COLLADASaxFWL1425NAME_ELEMENT_STENCIL_FUNCE
libOpenCOLLADASaxFrameworkLoader.so:_ZN15COLLADASaxFWL1425NAME_ELEMENT_STENCIL_MASKE
libOpenCOLLADASaxFrameworkLoader.so:_ZN15COLLADASaxFWL1425NAME_ELEMENT_TARGET_VALUEE
libOpenCOLLADASaxFrameworkLoader.so:_ZN15COLLADASaxFWL1425NAME_ELEMENT_TEXTUREDEPTHE
libOpenCOLLADASaxFrameworkLoader.so:_ZN15COLLADASaxFWL1425NAME_ELEMENT_TEXTURE_UNITE
libOpenCOLLADASaxFrameworkLoader.so:_ZN15COLLADASaxFWL1425NAME_ELEMENT_TRANSPARENCYE
libOpenCOLLADASaxFrameworkLoader.so:_ZN15COLLADASaxFWL1425NAME_ELEMENT_VISUAL_SCENEE
libOpenCOLLADASaxFrameworkLoader.so:_ZN15COLLADASaxFWL1425Name_array__AttributeData7DEFAULTE
libOpenCOLLADASaxFrameworkLoader.so:_ZN15COLLADASaxFWL1425attachment__AttributeData7DEFAULTE
libOpenCOLLADASaxFrameworkLoader.so:_ZN15COLLADASaxFWL1425bool_array__AttributeData7DEFAULTE
libOpenCOLLADASaxFrameworkLoader.so:_ZN15COLLADASaxFWL1425controller__AttributeData7DEFAULTE
libOpenCOLLADASaxFrameworkLoader.so:_ZN15COLLADASaxFWL1425dest_alpha__AttributeData7DEFAULTE
libOpenCOLLADASaxFrameworkLoader.so:_ZN15COLLADASaxFWL1425linestrips__AttributeData7DEFAULTE
libOpenCOLLADASaxFrameworkLoader.so:_ZN15COLLADASaxFWL1425profile_CG__AttributeData7DEFAULTE
libOpenCOLLADASaxFrameworkLoader.so:_ZN15COLLADASaxFWL1425rigid_body__AttributeData7DEFAULTE
libOpenCOLLADASaxFrameworkLoader.so:_ZN15COLLADASaxFWL1425toEnum_ENUM__gl_face_typeEPPKcS1_RbPKSt4pairImNS_18ENUM__gl_face_typeEEPFmS2_S1_S3_E
libOpenCOLLADASaxFrameworkLoader.so:_ZN15COLLADASaxFWL1425toEnum_ENUM__gl_func_typeEPPKcS1_RbPKSt4pairImNS_18ENUM__gl_func_typeEEPFmS2_S1_S3_E
libOpenCOLLADASaxFrameworkLoader.so:_ZN15COLLADASaxFWL1426ENUM__cg_pipeline_stageMapE
libOpenCOLLADASaxFrameworkLoader.so:_ZN15COLLADASaxFWL1426ENUM__gles_sampler_wrapMapE
libOpenCOLLADASaxFrameworkLoader.so:_ZN15COLLADASaxFWL1426IDREF_array__AttributeData7DEFAULTE
libOpenCOLLADASaxFrameworkLoader.so:_ZN15COLLADASaxFWL1426NAME_ATTRIBUTE_camera_nodeE
libOpenCOLLADASaxFrameworkLoader.so:_ZN15COLLADASaxFWL1426NAME_ELEMENT_BIND_MATERIALE
libOpenCOLLADASaxFrameworkLoader.so:_ZN15COLLADASaxFWL1426NAME_ELEMENT_CLEAR_STENCILE
libOpenCOLLADASaxFrameworkLoader.so:_ZN15COLLADASaxFWL1426NAME_ELEMENT_CONNECT_PARAME
libOpenCOLLADASaxFrameworkLoader.so:_ZN15COLLADASaxFWL1426NAME_ELEMENT_DITHER_ENABLEE
libOpenCOLLADASaxFrameworkLoader.so:_ZN15COLLADASaxFWL1426NAME_ELEMENT_FALLOFF_ANGLEE
libOpenCOLLADASaxFrameworkLoader.so:_ZN15COLLADASaxFWL1426NAME_ELEMENT_FOG_COORD_SRCE
libOpenCOLLADASaxFrameworkLoader.so:_ZN15COLLADASaxFWL1426NAME_ELEMENT_INSTANCE_NODEE
libOpenCOLLADASaxFrameworkLoader.so:_ZN15COLLADASaxFWL1426NAME_ELEMENT_INT____CG_INTE
libOpenCOLLADASaxFrameworkLoader.so:_ZN15COLLADASaxFWL1426NAME_ELEMENT_LIBRARY_NODESE
libOpenCOLLADASaxFrameworkLoader.so:_ZN15COLLADASaxFWL1426NAME_ELEMENT_LIGHT_AMBIENTE
libOpenCOLLADASaxFrameworkLoader.so:_ZN15COLLADASaxFWL1426NAME_ELEMENT_LIGHT_DIFFUSEE
libOpenCOLLADASaxFrameworkLoader.so:_ZN15COLLADASaxFWL1426NAME_ELEMENT_PHYSICS_MODELE
libOpenCOLLADASaxFrameworkLoader.so:_ZN15COLLADASaxFWL1426NAME_ELEMENT_PHYSICS_SCENEE
libOpenCOLLADASaxFrameworkLoader.so:_ZN15COLLADASaxFWL1426NAME_ELEMENT_SAMPLER_STATEE
libOpenCOLLADASaxFrameworkLoader.so:_ZN15COLLADASaxFWL1426NAME_ELEMENT_STENCIL_CLEARE
libOpenCOLLADASaxFrameworkLoader.so:_ZN15COLLADASaxFWL1426blend_color__AttributeData7DEFAULTE
libOpenCOLLADASaxFrameworkLoader.so:_ZN15COLLADASaxFWL1426convex_mesh__AttributeData7DEFAULTE
libOpenCOLLADASaxFrameworkLoader.so:_ZN15COLLADASaxFWL1426float_array__AttributeData7DEFAULTE
libOpenCOLLADASaxFrameworkLoader.so:_ZN15COLLADASaxFWL1426force_field__AttributeData7DEFAULTE
libOpenCOLLADASaxFrameworkLoader.so:_ZN15COLLADASaxFWL1426restitution__AttributeData7DEFAULTE
libOpenCOLLADASaxFrameworkLoader.so:_ZN15COLLADASaxFWL1426textureCUBE__AttributeData7DEFAULTE
libOpenCOLLADASaxFrameworkLoader.so:_ZN15COLLADASaxFWL1426textureRECT__AttributeData7DEFAULTE
libOpenCOLLADASaxFrameworkLoader.so:_ZN15COLLADASaxFWL1426toEnum_ENUM__gl_blend_typeEPPKcS1_RbPKSt4pairImNS_19ENUM__gl_blend_typeEEPFmS2_S1_S3_E
libOpenCOLLADASaxFrameworkLoader.so:_ZN15COLLADASaxFWL1426transparent__AttributeData7DEFAULTE
libOpenCOLLADASaxFrameworkLoader.so:_ZN15COLLADASaxFWL1427ENUM__gl_front_face_typeMapE
libOpenCOLLADASaxFrameworkLoader.so:_ZN15COLLADASaxFWL1427ENUM__gl_stencil_op_typeMapE
libOpenCOLLADASaxFrameworkLoader.so:_ZN15COLLADASaxFWL1427NAME_ATTRIBUTE_maxInclusiveE
libOpenCOLLADASaxFrameworkLoader.so:_ZN15COLLADASaxFWL1427NAME_ATTRIBUTE_minInclusiveE
libOpenCOLLADASaxFrameworkLoader.so:_ZN15COLLADASaxFWL1427NAME_ELEMENT_ANIMATION_CLIPE
libOpenCOLLADASaxFrameworkLoader.so:_ZN15COLLADASaxFWL1427NAME_ELEMENT_AUTHORING_TOOLE
libOpenCOLLADASaxFrameworkLoader.so:_ZN15COLLADASaxFWL1427NAME_ELEMENT_BLEND_EQUATIONE
libOpenCOLLADASaxFrameworkLoader.so:_ZN15COLLADASaxFWL1427NAME_ELEMENT_BOOL2____BOOL2E
libOpenCOLLADASaxFrameworkLoader.so:_ZN15COLLADASaxFWL1427NAME_ELEMENT_BOOL3____BOOL3E
libOpenCOLLADASaxFrameworkLoader.so:_ZN15COLLADASaxFWL1427NAME_ELEMENT_BOOL4____BOOL4E
libOpenCOLLADASaxFrameworkLoader.so:_ZN15COLLADASaxFWL1427NAME_ELEMENT_COLOR_MATERIALE
libOpenCOLLADASaxFrameworkLoader.so:_ZN15COLLADASaxFWL1427NAME_ELEMENT_ENUM____STRINGE
libOpenCOLLADASaxFrameworkLoader.so:_ZN15COLLADASaxFWL1427NAME_ELEMENT_EVALUATE_SCENEE
libOpenCOLLADASaxFrameworkLoader.so:_ZN15COLLADASaxFWL1427NAME_ELEMENT_FLOAT____FLOATE
libOpenCOLLADASaxFrameworkLoader.so:_ZN15COLLADASaxFWL1427NAME_ELEMENT_INIT_AS_TARGETE
libOpenCOLLADASaxFrameworkLoader.so:_ZN15COLLADASaxFWL1427NAME_ELEMENT_INSTANCE_LIGHTE
libOpenCOLLADASaxFrameworkLoader.so:_ZN15COLLADASaxFWL1427NAME_ELEMENT_INTERPENETRATEE
libOpenCOLLADASaxFrameworkLoader.so:_ZN15COLLADASaxFWL1427NAME_ELEMENT_LIBRARY_IMAGESE
libOpenCOLLADASaxFrameworkLoader.so:_ZN15COLLADASaxFWL1427NAME_ELEMENT_LIBRARY_LIGHTSE
libOpenCOLLADASaxFrameworkLoader.so:_ZN15COLLADASaxFWL1427NAME_ELEMENT_LIGHT_POSITIONE
libOpenCOLLADASaxFrameworkLoader.so:_ZN15COLLADASaxFWL1427NAME_ELEMENT_LIGHT_SPECULARE
libOpenCOLLADASaxFrameworkLoader.so:_ZN15COLLADASaxFWL1427NAME_ELEMENT_LIMITS__LINEARE
libOpenCOLLADASaxFrameworkLoader.so:_ZN15COLLADASaxFWL1427NAME_ELEMENT_POINT_SIZE_MAXE
libOpenCOLLADASaxFrameworkLoader.so:_ZN15COLLADASaxFWL1427NAME_ELEMENT_POINT_SIZE_MINE
libOpenCOLLADASaxFrameworkLoader.so:_ZN15COLLADASaxFWL1427NAME_ELEMENT_POLYGON_OFFSETE
libOpenCOLLADASaxFrameworkLoader.so:_ZN15COLLADASaxFWL1427NAME_ELEMENT_PROFILE_COMMONE
libOpenCOLLADASaxFrameworkLoader.so:_ZN15COLLADASaxFWL1427NAME_ELEMENT_REF_ATTACHMENTE
libOpenCOLLADASaxFrameworkLoader.so:_ZN15COLLADASaxFWL1427NAME_ELEMENT_SIZE____FLOAT3E
libOpenCOLLADASaxFrameworkLoader.so:_ZN15COLLADASaxFWL1427NAME_ELEMENT_SPRING__LINEARE
libOpenCOLLADASaxFrameworkLoader.so:_ZN15COLLADASaxFWL1427NAME_ELEMENT_STENCIL_TARGETE
libOpenCOLLADASaxFrameworkLoader.so:_ZN15COLLADASaxFWL1427NAME_ELEMENT_TECHNIQUE_HINTE
libOpenCOLLADASaxFrameworkLoader.so:_ZN15COLLADASaxFWL1427NAME_ELEMENT_VERTEX_WEIGHTSE
libOpenCOLLADASaxFrameworkLoader.so:_ZN15COLLADASaxFWL1427NAME_ELEMENT_VIEWPORT_RATIOE
libOpenCOLLADASaxFrameworkLoader.so:_ZN15COLLADASaxFWL1427aspect_ratio__AttributeData7DEFAULTE
libOpenCOLLADASaxFrameworkLoader.so:_ZN15COLLADASaxFWL1427depth_bounds__AttributeData7DEFAULTE
libOpenCOLLADASaxFrameworkLoader.so:_ZN15COLLADASaxFWL1427init_as_null__AttributeData7DEFAULTE
libOpenCOLLADASaxFrameworkLoader.so:_ZN15COLLADASaxFWL1427line_stipple__AttributeData7DEFAULTE
libOpenCOLLADASaxFrameworkLoader.so:_ZN15COLLADASaxFWL1427profile_GLES__AttributeData7DEFAULTE
libOpenCOLLADASaxFrameworkLoader.so:_ZN15COLLADASaxFWL1427profile_GLSL__AttributeData7DEFAULTE
libOpenCOLLADASaxFrameworkLoader.so:_ZN15COLLADASaxFWL1427target_value__AttributeData7DEFAULTE
libOpenCOLLADASaxFrameworkLoader.so:_ZN15COLLADASaxFWL1427textureDEPTH__AttributeData7DEFAULTE
libOpenCOLLADASaxFrameworkLoader.so:_ZN15COLLADASaxFWL1427texture_unit__AttributeData7DEFAULTE
libOpenCOLLADASaxFrameworkLoader.so:_ZN15COLLADASaxFWL1427toEnum_ENUM__fx_opaque_enumEPPKcS1_RbPKSt4pairImNS_20ENUM__fx_opaque_enumEEPFmS2_S1_S3_E
libOpenCOLLADASaxFrameworkLoader.so:_ZN15COLLADASaxFWL1427visual_scene__AttributeData7DEFAULTE
libOpenCOLLADASaxFrameworkLoader.so:_ZN15COLLADASaxFWL1428ENUM__gl_shade_model_typeMapE
libOpenCOLLADASaxFrameworkLoader.so:_ZN15COLLADASaxFWL1428ENUM__glsl_pipeline_stageMapE
libOpenCOLLADASaxFrameworkLoader.so:_ZN15COLLADASaxFWL1428NAME_ELEMENT_BOOL____CG_BOOLE
libOpenCOLLADASaxFrameworkLoader.so:_ZN15COLLADASaxFWL1428NAME_ELEMENT_COMPILER_TARGETE
libOpenCOLLADASaxFrameworkLoader.so:_ZN15COLLADASaxFWL1428NAME_ELEMENT_INSTANCE_CAMERAE
libOpenCOLLADASaxFrameworkLoader.so:_ZN15COLLADASaxFWL1428NAME_ELEMENT_INSTANCE_EFFECTE
libOpenCOLLADASaxFrameworkLoader.so:_ZN15COLLADASaxFWL1428NAME_ELEMENT_INT2____CG_INT2E
libOpenCOLLADASaxFrameworkLoader.so:_ZN15COLLADASaxFWL1428NAME_ELEMENT_INT3____CG_INT3E
libOpenCOLLADASaxFrameworkLoader.so:_ZN15COLLADASaxFWL1428NAME_ELEMENT_INT4____CG_INT4E
libOpenCOLLADASaxFrameworkLoader.so:_ZN15COLLADASaxFWL1428NAME_ELEMENT_INT____GLSL_INTE
libOpenCOLLADASaxFrameworkLoader.so:_ZN15COLLADASaxFWL1428NAME_ELEMENT_LIBRARY_CAMERASE
libOpenCOLLADASaxFrameworkLoader.so:_ZN15COLLADASaxFWL1428NAME_ELEMENT_LIBRARY_EFFECTSE
libOpenCOLLADASaxFrameworkLoader.so:_ZN15COLLADASaxFWL1428NAME_ELEMENT_LIGHTING_ENABLEE
libOpenCOLLADASaxFrameworkLoader.so:_ZN15COLLADASaxFWL1428NAME_ELEMENT_LOGIC_OP_ENABLEE
libOpenCOLLADASaxFrameworkLoader.so:_ZN15COLLADASaxFWL1428NAME_ELEMENT_MIPMAP_GENERATEE
libOpenCOLLADASaxFrameworkLoader.so:_ZN15COLLADASaxFWL1428NAME_ELEMENT_MIPMAP_MAXLEVELE
libOpenCOLLADASaxFrameworkLoader.so:_ZN15COLLADASaxFWL1428NAME_ELEMENT_PARAM____NCNAMEE
libOpenCOLLADASaxFrameworkLoader.so:_ZN15COLLADASaxFWL1428NAME_ELEMENT_RADIUS____FLOATE
libOpenCOLLADASaxFrameworkLoader.so:_ZN15COLLADASaxFWL1428NAME_ELEMENT_STATIC_FRICTIONE
libOpenCOLLADASaxFrameworkLoader.so:_ZN15COLLADASaxFWL1428NAME_ELEMENT_TAPERED_CAPSULEE
libOpenCOLLADASaxFrameworkLoader.so:_ZN15COLLADASaxFWL1428connect_param__AttributeData7DEFAULTE
libOpenCOLLADASaxFrameworkLoader.so:_ZN15COLLADASaxFWL1428falloff_angle__AttributeData7DEFAULTE
libOpenCOLLADASaxFrameworkLoader.so:_ZN15COLLADASaxFWL1428fog_coord_src__AttributeData7DEFAULTE
libOpenCOLLADASaxFrameworkLoader.so:_ZN15COLLADASaxFWL1428instance_node__AttributeData7DEFAULTE
libOpenCOLLADASaxFrameworkLoader.so:_ZN15COLLADASaxFWL1428library_nodes__AttributeData7DEFAULTE
libOpenCOLLADASaxFrameworkLoader.so:_ZN15COLLADASaxFWL1428physics_model__AttributeData7DEFAULTE
libOpenCOLLADASaxFrameworkLoader.so:_ZN15COLLADASaxFWL1428physics_scene__AttributeData7DEFAULTE
libOpenCOLLADASaxFrameworkLoader.so:_ZN15COLLADASaxFWL1428toEnum_ENUM__MorphMethodTypeEPPKcS1_RbPKSt4pairImNS_21ENUM__MorphMethodTypeEEPFmS2_S1_S3_E
libOpenCOLLADASaxFrameworkLoader.so:_ZN15COLLADASaxFWL1429ColladaParserAutoGen14Private10_data__RGBEPKcm
libOpenCOLLADASaxFrameworkLoader.so:_ZN15COLLADASaxFWL1429ColladaParserAutoGen14Private10_data__boxEPKcm
libOpenCOLLADASaxFrameworkLoader.so:_ZN15COLLADASaxFWL1429ColladaParserAutoGen14Private10_data__maxEPKcm
libOpenCOLLADASaxFrameworkLoader.so:_ZN15COLLADASaxFWL1429ColladaParserAutoGen14Private10_data__minEPKcm
libOpenCOLLADASaxFrameworkLoader.so:_ZN15COLLADASaxFWL1429ColladaParserAutoGen14Private10_data__rgbEPKcm
libOpenCOLLADASaxFrameworkLoader.so:_ZN15COLLADASaxFWL1429ColladaParserAutoGen14Private10_preEnd__hEv
libOpenCOLLADASaxFrameworkLoader.so:_ZN15COLLADASaxFWL1429ColladaParserAutoGen14Private10_preEnd__pEv
libOpenCOLLADASaxFrameworkLoader.so:_ZN15COLLADASaxFWL1429ColladaParserAutoGen14Private10_preEnd__vEv
libOpenCOLLADASaxFrameworkLoader.so:_ZN15COLLADASaxFWL1429ColladaParserAutoGen14Private11_data__backEPKcm
libOpenCOLLADASaxFrameworkLoader.so:_ZN15COLLADASaxFWL1429ColladaParserAutoGen14Private11_data__codeEPKcm
libOpenCOLLADASaxFrameworkLoader.so:_ZN15COLLADASaxFWL1429ColladaParserAutoGen14Private11_data__dataEPKcm
libOpenCOLLADASaxFrameworkLoader.so:_ZN15COLLADASaxFWL1429ColladaParserAutoGen14Private11_data__drawEPKcm
libOpenCOLLADASaxFrameworkLoader.so:_ZN15COLLADASaxFWL1429ColladaParserAutoGen14Private11_data__halfEPKcm
libOpenCOLLADASaxFrameworkLoader.so:_ZN15COLLADASaxFWL1429ColladaParserAutoGen14Private11_data__int1EPKcm
libOpenCOLLADASaxFrameworkLoader.so:_ZN15COLLADASaxFWL1429ColladaParserAutoGen14Private11_data__massEPKcm
libOpenCOLLADASaxFrameworkLoader.so:_ZN15COLLADASaxFWL1429ColladaParserAutoGen14Private11_data__meshEPKcm
libOpenCOLLADASaxFrameworkLoader.so:_ZN15COLLADASaxFWL1429ColladaParserAutoGen14Private11_data__nodeEPKcm
libOpenCOLLADASaxFrameworkLoader.so:_ZN15COLLADASaxFWL1429ColladaParserAutoGen14Private11_data__skewEPKcm
libOpenCOLLADASaxFrameworkLoader.so:_ZN15COLLADASaxFWL1429ColladaParserAutoGen14Private11_data__skinEPKcm
libOpenCOLLADASaxFrameworkLoader.so:_ZN15COLLADASaxFWL1429ColladaParserAutoGen14Private11_data__spotEPKcm
libOpenCOLLADASaxFrameworkLoader.so:_ZN15COLLADASaxFWL1429ColladaParserAutoGen14Private11_data__unitEPKcm
libOpenCOLLADASaxFrameworkLoader.so:_ZN15COLLADASaxFWL1429ColladaParserAutoGen14Private11_data__xfovEPKcm
libOpenCOLLADASaxFrameworkLoader.so:_ZN15COLLADASaxFWL1429ColladaParserAutoGen14Private11_data__xmagEPKcm
libOpenCOLLADASaxFrameworkLoader.so:_ZN15COLLADASaxFWL1429ColladaParserAutoGen14Private11_data__yfovEPKcm
libOpenCOLLADASaxFrameworkLoader.so:_ZN15COLLADASaxFWL1429ColladaParserAutoGen14Private11_data__ymagEPKcm
libOpenCOLLADASaxFrameworkLoader.so:_ZN15COLLADASaxFWL1429ColladaParserAutoGen14Private11_data__zfarEPKcm
libOpenCOLLADASaxFrameworkLoader.so:_ZN15COLLADASaxFWL1429ColladaParserAutoGen14Private11_preEnd__phEv
libOpenCOLLADASaxFrameworkLoader.so:_ZN15COLLADASaxFWL1429ColladaParserAutoGen14Private11initNameMapEv
libOpenCOLLADASaxFrameworkLoader.so:_ZN15COLLADASaxFWL1429ColladaParserAutoGen14Private12_data__assetEPKcm
libOpenCOLLADASaxFrameworkLoader.so:_ZN15COLLADASaxFWL1429ColladaParserAutoGen14Private12_data__blinnEPKcm
libOpenCOLLADASaxFrameworkLoader.so:_ZN15COLLADASaxFWL1429ColladaParserAutoGen14Private12_data__bool1EPKcm
libOpenCOLLADASaxFrameworkLoader.so:_ZN15COLLADASaxFWL1429ColladaParserAutoGen14Private12_data__extraEPKcm
libOpenCOLLADASaxFrameworkLoader.so:_ZN15COLLADASaxFWL1429ColladaParserAutoGen14Private12_data__fixedEPKcm
libOpenCOLLADASaxFrameworkLoader.so:_ZN15COLLADASaxFWL1429ColladaParserAutoGen14Private12_data__frontEPKcm
libOpenCOLLADASaxFrameworkLoader.so:_ZN15COLLADASaxFWL1429ColladaParserAutoGen14Private12_data__half1EPKcm
libOpenCOLLADASaxFrameworkLoader.so:_ZN15COLLADASaxFWL1429ColladaParserAutoGen14Private12_data__half2EPKcm
libOpenCOLLADASaxFrameworkLoader.so:_ZN15COLLADASaxFWL1429ColladaParserAutoGen14Private12_data__half3EPKcm
libOpenCOLLADASaxFrameworkLoader.so:_ZN15COLLADASaxFWL1429ColladaParserAutoGen14Private12_data__half4EPKcm
libOpenCOLLADASaxFrameworkLoader.so:_ZN15COLLADASaxFWL1429ColladaParserAutoGen14Private12_data__imageEPKcm
libOpenCOLLADASaxFrameworkLoader.so:_ZN15COLLADASaxFWL1429ColladaParserAutoGen14Private12_data__layerEPKcm
libOpenCOLLADASaxFrameworkLoader.so:_ZN15COLLADASaxFWL1429ColladaParserAutoGen14Private12_data__lightEPKcm
libOpenCOLLADASaxFrameworkLoader.so:_ZN15COLLADASaxFWL1429ColladaParserAutoGen14Private12_data__linesEPKcm
libOpenCOLLADASaxFrameworkLoader.so:_ZN15COLLADASaxFWL1429ColladaParserAutoGen14Private12_data__morphEPKcm
libOpenCOLLADASaxFrameworkLoader.so:_ZN15COLLADASaxFWL1429ColladaParserAutoGen14Private12_data__orderEPKcm
libOpenCOLLADASaxFrameworkLoader.so:_ZN15COLLADASaxFWL1429ColladaParserAutoGen14Private12_data__paramEPKcm
libOpenCOLLADASaxFrameworkLoader.so:_ZN15COLLADASaxFWL1429ColladaParserAutoGen14Private12_data__phongEPKcm
libOpenCOLLADASaxFrameworkLoader.so:_ZN15COLLADASaxFWL1429ColladaParserAutoGen14Private12_data__planeEPKcm
libOpenCOLLADASaxFrameworkLoader.so:_ZN15COLLADASaxFWL1429ColladaParserAutoGen14Private12_data__pointEPKcm
libOpenCOLLADASaxFrameworkLoader.so:_ZN15COLLADASaxFWL1429ColladaParserAutoGen14Private12_data__rangeEPKcm
libOpenCOLLADASaxFrameworkLoader.so:_ZN15COLLADASaxFWL1429ColladaParserAutoGen14Private12_data__scaleEPKcm
libOpenCOLLADASaxFrameworkLoader.so:_ZN15COLLADASaxFWL1429ColladaParserAutoGen14Private12_data__sceneEPKcm
libOpenCOLLADASaxFrameworkLoader.so:_ZN15COLLADASaxFWL1429ColladaParserAutoGen14Private12_data__titleEPKcm
libOpenCOLLADASaxFrameworkLoader.so:_ZN15COLLADASaxFWL1429ColladaParserAutoGen14Private12_data__znearEPKcm
libOpenCOLLADASaxFrameworkLoader.so:_ZN15COLLADASaxFWL1429ColladaParserAutoGen14Private12_preBegin__hERKN18GeneratedSaxParser16ParserAttributesEPPvS6_
libOpenCOLLADASaxFrameworkLoader.so:_ZN15COLLADASaxFWL1429ColladaParserAutoGen14Private12_preBegin__pERKN18GeneratedSaxParser16ParserAttributesEPPvS6_
libOpenCOLLADASaxFrameworkLoader.so:_ZN15COLLADASaxFWL1429ColladaParserAutoGen14Private12_preBegin__vERKN18GeneratedSaxParser16ParserAttributesEPPvS6_
libOpenCOLLADASaxFrameworkLoader.so:_ZN15COLLADASaxFWL1429ColladaParserAutoGen14Private12_preEnd__RGBEv
libOpenCOLLADASaxFrameworkLoader.so:_ZN15COLLADASaxFWL1429ColladaParserAutoGen14Private12_preEnd__boxEv
libOpenCOLLADASaxFrameworkLoader.so:_ZN15COLLADASaxFWL1429ColladaParserAutoGen14Private12_preEnd__maxEv
libOpenCOLLADASaxFrameworkLoader.so:_ZN15COLLADASaxFWL1429ColladaParserAutoGen14Private12_preEnd__minEv
libOpenCOLLADASaxFrameworkLoader.so:_ZN15COLLADASaxFWL1429ColladaParserAutoGen14Private12_preEnd__rgbEv
libOpenCOLLADASaxFrameworkLoader.so:_ZN15COLLADASaxFWL1429ColladaParserAutoGen14Private13_data__authorEPKcm
libOpenCOLLADASaxFrameworkLoader.so:_ZN15COLLADASaxFWL1429ColladaParserAutoGen14Private13_data__cameraEPKcm
libOpenCOLLADASaxFrameworkLoader.so:_ZN15COLLADASaxFWL1429ColladaParserAutoGen14Private13_data__effectEPKcm
libOpenCOLLADASaxFrameworkLoader.so:_ZN15COLLADASaxFWL1429ColladaParserAutoGen14Private13_data__fixed1EPKcm
libOpenCOLLADASaxFrameworkLoader.so:_ZN15COLLADASaxFWL1429ColladaParserAutoGen14Private13_data__fixed2EPKcm
libOpenCOLLADASaxFrameworkLoader.so:_ZN15COLLADASaxFWL1429ColladaParserAutoGen14Private13_data__fixed3EPKcm
libOpenCOLLADASaxFrameworkLoader.so:_ZN15COLLADASaxFWL1429ColladaParserAutoGen14Private13_data__fixed4EPKcm
libOpenCOLLADASaxFrameworkLoader.so:_ZN15COLLADASaxFWL1429ColladaParserAutoGen14Private13_data__float1EPKcm
libOpenCOLLADASaxFrameworkLoader.so:_ZN15COLLADASaxFWL1429ColladaParserAutoGen14Private13_data__formatEPKcm
libOpenCOLLADASaxFrameworkLoader.so:_ZN15COLLADASaxFWL1429ColladaParserAutoGen14Private13_data__heightEPKcm
libOpenCOLLADASaxFrameworkLoader.so:_ZN15COLLADASaxFWL1429ColladaParserAutoGen14Private13_data__imagerEPKcm
libOpenCOLLADASaxFrameworkLoader.so:_ZN15COLLADASaxFWL1429ColladaParserAutoGen14Private13_data__int1x1EPKcm
libOpenCOLLADASaxFrameworkLoader.so:_ZN15COLLADASaxFWL1429ColladaParserAutoGen14Private13_data__int1x2EPKcm
libOpenCOLLADASaxFrameworkLoader.so:_ZN15COLLADASaxFWL1429ColladaParserAutoGen14Private13_data__int1x3EPKcm
libOpenCOLLADASaxFrameworkLoader.so:_ZN15COLLADASaxFWL1429ColladaParserAutoGen14Private13_data__int1x4EPKcm
libOpenCOLLADASaxFrameworkLoader.so:_ZN15COLLADASaxFWL1429ColladaParserAutoGen14Private13_data__int2x1EPKcm
libOpenCOLLADASaxFrameworkLoader.so:_ZN15COLLADASaxFWL1429ColladaParserAutoGen14Private13_data__int2x2EPKcm
libOpenCOLLADASaxFrameworkLoader.so:_ZN15COLLADASaxFWL1429ColladaParserAutoGen14Private13_data__int2x3EPKcm
libOpenCOLLADASaxFrameworkLoader.so:_ZN15COLLADASaxFWL1429ColladaParserAutoGen14Private13_data__int2x4EPKcm
libOpenCOLLADASaxFrameworkLoader.so:_ZN15COLLADASaxFWL1429ColladaParserAutoGen14Private13_data__int3x1EPKcm
libOpenCOLLADASaxFrameworkLoader.so:_ZN15COLLADASaxFWL1429ColladaParserAutoGen14Private13_data__int3x2EPKcm
libOpenCOLLADASaxFrameworkLoader.so:_ZN15COLLADASaxFWL1429ColladaParserAutoGen14Private13_data__int3x3EPKcm
libOpenCOLLADASaxFrameworkLoader.so:_ZN15COLLADASaxFWL1429ColladaParserAutoGen14Private13_data__int3x4EPKcm
libOpenCOLLADASaxFrameworkLoader.so:_ZN15COLLADASaxFWL1429ColladaParserAutoGen14Private13_data__int4x1EPKcm
libOpenCOLLADASaxFrameworkLoader.so:_ZN15COLLADASaxFWL1429ColladaParserAutoGen14Private13_data__int4x2EPKcm
libOpenCOLLADASaxFrameworkLoader.so:_ZN15COLLADASaxFWL1429ColladaParserAutoGen14Private13_data__int4x3EPKcm
libOpenCOLLADASaxFrameworkLoader.so:_ZN15COLLADASaxFWL1429ColladaParserAutoGen14Private13_data__int4x4EPKcm
libOpenCOLLADASaxFrameworkLoader.so:_ZN15COLLADASaxFWL1429ColladaParserAutoGen14Private13_data__jointsEPKcm
libOpenCOLLADASaxFrameworkLoader.so:_ZN15COLLADASaxFWL1429ColladaParserAutoGen14Private13_data__limitsEPKcm
libOpenCOLLADASaxFrameworkLoader.so:_ZN15COLLADASaxFWL1429ColladaParserAutoGen14Private13_data__lookatEPKcm
libOpenCOLLADASaxFrameworkLoader.so:_ZN15COLLADASaxFWL1429ColladaParserAutoGen14Private13_data__matrixEPKcm
libOpenCOLLADASaxFrameworkLoader.so:_ZN15COLLADASaxFWL1429ColladaParserAutoGen14Private13_data__opticsEPKcm
libOpenCOLLADASaxFrameworkLoader.so:_ZN15COLLADASaxFWL1429ColladaParserAutoGen14Private13_data__optionEPKcm
libOpenCOLLADASaxFrameworkLoader.so:_ZN15COLLADASaxFWL1429ColladaParserAutoGen14Private13_data__renderEPKcm
libOpenCOLLADASaxFrameworkLoader.so:_ZN15COLLADASaxFWL1429ColladaParserAutoGen14Private13_data__rotateEPKcm
libOpenCOLLADASaxFrameworkLoader.so:_ZN15COLLADASaxFWL1429ColladaParserAutoGen14Private13_data__sourceEPKcm
libOpenCOLLADASaxFrameworkLoader.so:_ZN15COLLADASaxFWL1429ColladaParserAutoGen14Private13_data__sphereEPKcm
libOpenCOLLADASaxFrameworkLoader.so:_ZN15COLLADASaxFWL1429ColladaParserAutoGen14Private13_data__splineEPKcm
libOpenCOLLADASaxFrameworkLoader.so:_ZN15COLLADASaxFWL1429ColladaParserAutoGen14Private13_data__springEPKcm
libOpenCOLLADASaxFrameworkLoader.so:_ZN15COLLADASaxFWL1429ColladaParserAutoGen14Private13_data__stringEPKcm
libOpenCOLLADASaxFrameworkLoader.so:_ZN15COLLADASaxFWL1429ColladaParserAutoGen14Private13_data__texenvEPKcm
libOpenCOLLADASaxFrameworkLoader.so:_ZN15COLLADASaxFWL1429ColladaParserAutoGen14Private13_data__vcountEPKcm
libOpenCOLLADASaxFrameworkLoader.so:_ZN15COLLADASaxFWL1429ColladaParserAutoGen14Private13_data__wrap_pEPKcm
libOpenCOLLADASaxFrameworkLoader.so:_ZN15COLLADASaxFWL1429ColladaParserAutoGen14Private13_preBegin__phERKN18GeneratedSaxParser16ParserAttributesEPPvS6_
libOpenCOLLADASaxFrameworkLoader.so:_ZN15COLLADASaxFWL1429ColladaParserAutoGen14Private13_preEnd__backEv
libOpenCOLLADASaxFrameworkLoader.so:_ZN15COLLADASaxFWL1429ColladaParserAutoGen14Private13_preEnd__codeEv
libOpenCOLLADASaxFrameworkLoader.so:_ZN15COLLADASaxFWL1429ColladaParserAutoGen14Private13_preEnd__dataEv
libOpenCOLLADASaxFrameworkLoader.so:_ZN15COLLADASaxFWL1429ColladaParserAutoGen14Private13_preEnd__drawEv
libOpenCOLLADASaxFrameworkLoader.so:_ZN15COLLADASaxFWL1429ColladaParserAutoGen14Private13_preEnd__halfEv
libOpenCOLLADASaxFrameworkLoader.so:_ZN15COLLADASaxFWL1429ColladaParserAutoGen14Private13_preEnd__int1Ev
libOpenCOLLADASaxFrameworkLoader.so:_ZN15COLLADASaxFWL1429ColladaParserAutoGen14Private13_preEnd__massEv
libOpenCOLLADASaxFrameworkLoader.so:_ZN15COLLADASaxFWL1429ColladaParserAutoGen14Private13_preEnd__meshEv
libOpenCOLLADASaxFrameworkLoader.so:_ZN15COLLADASaxFWL1429ColladaParserAutoGen14Private13_preEnd__nodeEv
libOpenCOLLADASaxFrameworkLoader.so:_ZN15COLLADASaxFWL1429ColladaParserAutoGen14Private13_preEnd__skewEv
libOpenCOLLADASaxFrameworkLoader.so:_ZN15COLLADASaxFWL1429ColladaParserAutoGen14Private13_preEnd__skinEv
libOpenCOLLADASaxFrameworkLoader.so:_ZN15COLLADASaxFWL1429ColladaParserAutoGen14Private13_preEnd__spotEv
libOpenCOLLADASaxFrameworkLoader.so:_ZN15COLLADASaxFWL1429ColladaParserAutoGen14Private13_preEnd__unitEv
libOpenCOLLADASaxFrameworkLoader.so:_ZN15COLLADASaxFWL1429ColladaParserAutoGen14Private13_preEnd__xfovEv
libOpenCOLLADASaxFrameworkLoader.so:_ZN15COLLADASaxFWL1429ColladaParserAutoGen14Private13_preEnd__xmagEv
libOpenCOLLADASaxFrameworkLoader.so:_ZN15COLLADASaxFWL1429ColladaParserAutoGen14Private13_preEnd__yfovEv
libOpenCOLLADASaxFrameworkLoader.so:_ZN15COLLADASaxFWL1429ColladaParserAutoGen14Private13_preEnd__ymagEv
libOpenCOLLADASaxFrameworkLoader.so:_ZN15COLLADASaxFWL1429ColladaParserAutoGen14Private13_preEnd__zfarEv
libOpenCOLLADASaxFrameworkLoader.so:_ZN15COLLADASaxFWL1429ColladaParserAutoGen14Private14_data__COLLADAEPKcm
libOpenCOLLADASaxFrameworkLoader.so:_ZN15COLLADASaxFWL1429ColladaParserAutoGen14Private14_data__angularEPKcm
libOpenCOLLADASaxFrameworkLoader.so:_ZN15COLLADASaxFWL1429ColladaParserAutoGen14Private14_data__bool1x1EPKcm
libOpenCOLLADASaxFrameworkLoader.so:_ZN15COLLADASaxFWL1429ColladaParserAutoGen14Private14_data__bool1x2EPKcm
libOpenCOLLADASaxFrameworkLoader.so:_ZN15COLLADASaxFWL1429ColladaParserAutoGen14Private14_data__bool1x3EPKcm
libOpenCOLLADASaxFrameworkLoader.so:_ZN15COLLADASaxFWL1429ColladaParserAutoGen14Private14_data__bool1x4EPKcm
libOpenCOLLADASaxFrameworkLoader.so:_ZN15COLLADASaxFWL1429ColladaParserAutoGen14Private14_data__bool2x1EPKcm
libOpenCOLLADASaxFrameworkLoader.so:_ZN15COLLADASaxFWL1429ColladaParserAutoGen14Private14_data__bool2x2EPKcm
libOpenCOLLADASaxFrameworkLoader.so:_ZN15COLLADASaxFWL1429ColladaParserAutoGen14Private14_data__bool2x3EPKcm
libOpenCOLLADASaxFrameworkLoader.so:_ZN15COLLADASaxFWL1429ColladaParserAutoGen14Private14_data__bool2x4EPKcm
libOpenCOLLADASaxFrameworkLoader.so:_ZN15COLLADASaxFWL1429ColladaParserAutoGen14Private14_data__bool3x1EPKcm
libOpenCOLLADASaxFrameworkLoader.so:_ZN15COLLADASaxFWL1429ColladaParserAutoGen14Private14_data__bool3x2EPKcm
libOpenCOLLADASaxFrameworkLoader.so:_ZN15COLLADASaxFWL1429ColladaParserAutoGen14Private14_data__bool3x3EPKcm
libOpenCOLLADASaxFrameworkLoader.so:_ZN15COLLADASaxFWL1429ColladaParserAutoGen14Private14_data__bool3x4EPKcm
libOpenCOLLADASaxFrameworkLoader.so:_ZN15COLLADASaxFWL1429ColladaParserAutoGen14Private14_data__bool4x1EPKcm
libOpenCOLLADASaxFrameworkLoader.so:_ZN15COLLADASaxFWL1429ColladaParserAutoGen14Private14_data__bool4x2EPKcm
libOpenCOLLADASaxFrameworkLoader.so:_ZN15COLLADASaxFWL1429ColladaParserAutoGen14Private14_data__bool4x3EPKcm
libOpenCOLLADASaxFrameworkLoader.so:_ZN15COLLADASaxFWL1429ColladaParserAutoGen14Private14_data__bool4x4EPKcm
libOpenCOLLADASaxFrameworkLoader.so:_ZN15COLLADASaxFWL1429ColladaParserAutoGen14Private14_data__capsuleEPKcm
libOpenCOLLADASaxFrameworkLoader.so:_ZN15COLLADASaxFWL1429ColladaParserAutoGen14Private14_data__channelEPKcm
libOpenCOLLADASaxFrameworkLoader.so:_ZN15COLLADASaxFWL1429ColladaParserAutoGen14Private14_data__createdEPKcm
libOpenCOLLADASaxFrameworkLoader.so:_ZN15COLLADASaxFWL1429ColladaParserAutoGen14Private14_data__dampingEPKcm
libOpenCOLLADASaxFrameworkLoader.so:_ZN15COLLADASaxFWL1429ColladaParserAutoGen14Private14_data__densityEPKcm
libOpenCOLLADASaxFrameworkLoader.so:_ZN15COLLADASaxFWL1429ColladaParserAutoGen14Private14_data__diffuseEPKcm
libOpenCOLLADASaxFrameworkLoader.so:_ZN15COLLADASaxFWL1429ColladaParserAutoGen14Private14_data__enabledEPKcm
libOpenCOLLADASaxFrameworkLoader.so:_ZN15COLLADASaxFWL1429ColladaParserAutoGen14Private14_data__gravityEPKcm
libOpenCOLLADASaxFrameworkLoader.so:_ZN15COLLADASaxFWL1429ColladaParserAutoGen14Private14_data__half1x1EPKcm
libOpenCOLLADASaxFrameworkLoader.so:_ZN15COLLADASaxFWL1429ColladaParserAutoGen14Private14_data__half1x2EPKcm
libOpenCOLLADASaxFrameworkLoader.so:_ZN15COLLADASaxFWL1429ColladaParserAutoGen14Private14_data__half1x3EPKcm
libOpenCOLLADASaxFrameworkLoader.so:_ZN15COLLADASaxFWL1429ColladaParserAutoGen14Private14_data__half1x4EPKcm
libOpenCOLLADASaxFrameworkLoader.so:_ZN15COLLADASaxFWL1429ColladaParserAutoGen14Private14_data__half2x1EPKcm
libOpenCOLLADASaxFrameworkLoader.so:_ZN15COLLADASaxFWL1429ColladaParserAutoGen14Private14_data__half2x2EPKcm
libOpenCOLLADASaxFrameworkLoader.so:_ZN15COLLADASaxFWL1429ColladaParserAutoGen14Private14_data__half2x3EPKcm
libOpenCOLLADASaxFrameworkLoader.so:_ZN15COLLADASaxFWL1429ColladaParserAutoGen14Private14_data__half2x4EPKcm
libOpenCOLLADASaxFrameworkLoader.so:_ZN15COLLADASaxFWL1429ColladaParserAutoGen14Private14_data__half3x1EPKcm
libOpenCOLLADASaxFrameworkLoader.so:_ZN15COLLADASaxFWL1429ColladaParserAutoGen14Private14_data__half3x2EPKcm
libOpenCOLLADASaxFrameworkLoader.so:_ZN15COLLADASaxFWL1429ColladaParserAutoGen14Private14_data__half3x3EPKcm
libOpenCOLLADASaxFrameworkLoader.so:_ZN15COLLADASaxFWL1429ColladaParserAutoGen14Private14_data__half3x4EPKcm
libOpenCOLLADASaxFrameworkLoader.so:_ZN15COLLADASaxFWL1429ColladaParserAutoGen14Private14_data__half4x1EPKcm
libOpenCOLLADASaxFrameworkLoader.so:_ZN15COLLADASaxFWL1429ColladaParserAutoGen14Private14_data__half4x2EPKcm
libOpenCOLLADASaxFrameworkLoader.so:_ZN15COLLADASaxFWL1429ColladaParserAutoGen14Private14_data__half4x3EPKcm
libOpenCOLLADASaxFrameworkLoader.so:_ZN15COLLADASaxFWL1429ColladaParserAutoGen14Private14_data__half4x4EPKcm
libOpenCOLLADASaxFrameworkLoader.so:_ZN15COLLADASaxFWL1429ColladaParserAutoGen14Private14_data__includeEPKcm
libOpenCOLLADASaxFrameworkLoader.so:_ZN15COLLADASaxFWL1429ColladaParserAutoGen14Private14_data__inertiaEPKcm
libOpenCOLLADASaxFrameworkLoader.so:_ZN15COLLADASaxFWL1429ColladaParserAutoGen14Private14_data__lambertEPKcm
libOpenCOLLADASaxFrameworkLoader.so:_ZN15COLLADASaxFWL1429ColladaParserAutoGen14Private14_data__radius1EPKcm
libOpenCOLLADASaxFrameworkLoader.so:_ZN15COLLADASaxFWL1429ColladaParserAutoGen14Private14_data__radius2EPKcm
libOpenCOLLADASaxFrameworkLoader.so:_ZN15COLLADASaxFWL1429ColladaParserAutoGen14Private14_data__samplerEPKcm
libOpenCOLLADASaxFrameworkLoader.so:_ZN15COLLADASaxFWL1429ColladaParserAutoGen14Private14_data__src_rgbEPKcm
libOpenCOLLADASaxFrameworkLoader.so:_ZN15COLLADASaxFWL1429ColladaParserAutoGen14Private14_data__subjectEPKcm
libOpenCOLLADASaxFrameworkLoader.so:_ZN15COLLADASaxFWL1429ColladaParserAutoGen14Private14_data__targetsEPKcm
libOpenCOLLADASaxFrameworkLoader.so:_ZN15COLLADASaxFWL1429ColladaParserAutoGen14Private14_data__textureEPKcm
libOpenCOLLADASaxFrameworkLoader.so:_ZN15COLLADASaxFWL1429ColladaParserAutoGen14Private14_data__trifansEPKcm
libOpenCOLLADASaxFrameworkLoader.so:_ZN15COLLADASaxFWL1429ColladaParserAutoGen14Private14_data__up_axisEPKcm
libOpenCOLLADASaxFrameworkLoader.so:_ZN15COLLADASaxFWL1429ColladaParserAutoGen14Private14_preBegin__RGBERKN18GeneratedSaxParser16ParserAttributesEPPvS6_
libOpenCOLLADASaxFrameworkLoader.so:_ZN15COLLADASaxFWL1429ColladaParserAutoGen14Private14_preBegin__boxERKN18GeneratedSaxParser16ParserAttributesEPPvS6_
libOpenCOLLADASaxFrameworkLoader.so:_ZN15COLLADASaxFWL1429ColladaParserAutoGen14Private14_preBegin__maxERKN18GeneratedSaxParser16ParserAttributesEPPvS6_
libOpenCOLLADASaxFrameworkLoader.so:_ZN15COLLADASaxFWL1429ColladaParserAutoGen14Private14_preBegin__minERKN18GeneratedSaxParser16ParserAttributesEPPvS6_
libOpenCOLLADASaxFrameworkLoader.so:_ZN15COLLADASaxFWL1429ColladaParserAutoGen14Private14_preBegin__rgbERKN18GeneratedSaxParser16ParserAttributesEPPvS6_
libOpenCOLLADASaxFrameworkLoader.so:_ZN15COLLADASaxFWL1429ColladaParserAutoGen14Private14_preEnd__assetEv
libOpenCOLLADASaxFrameworkLoader.so:_ZN15COLLADASaxFWL1429ColladaParserAutoGen14Private14_preEnd__blinnEv
libOpenCOLLADASaxFrameworkLoader.so:_ZN15COLLADASaxFWL1429ColladaParserAutoGen14Private14_preEnd__bool1Ev
libOpenCOLLADASaxFrameworkLoader.so:_ZN15COLLADASaxFWL1429ColladaParserAutoGen14Private14_preEnd__extraEv
libOpenCOLLADASaxFrameworkLoader.so:_ZN15COLLADASaxFWL1429ColladaParserAutoGen14Private14_preEnd__fixedEv
libOpenCOLLADASaxFrameworkLoader.so:_ZN15COLLADASaxFWL1429ColladaParserAutoGen14Private14_preEnd__frontEv
libOpenCOLLADASaxFrameworkLoader.so:_ZN15COLLADASaxFWL1429ColladaParserAutoGen14Private14_preEnd__half1Ev
libOpenCOLLADASaxFrameworkLoader.so:_ZN15COLLADASaxFWL1429ColladaParserAutoGen14Private14_preEnd__half2Ev
libOpenCOLLADASaxFrameworkLoader.so:_ZN15COLLADASaxFWL1429ColladaParserAutoGen14Private14_preEnd__half3Ev
libOpenCOLLADASaxFrameworkLoader.so:_ZN15COLLADASaxFWL1429ColladaParserAutoGen14Private14_preEnd__half4Ev
libOpenCOLLADASaxFrameworkLoader.so:_ZN15COLLADASaxFWL1429ColladaParserAutoGen14Private14_preEnd__imageEv
libOpenCOLLADASaxFrameworkLoader.so:_ZN15COLLADASaxFWL1429ColladaParserAutoGen14Private14_preEnd__layerEv
libOpenCOLLADASaxFrameworkLoader.so:_ZN15COLLADASaxFWL1429ColladaParserAutoGen14Private14_preEnd__lightEv
libOpenCOLLADASaxFrameworkLoader.so:_ZN15COLLADASaxFWL1429ColladaParserAutoGen14Private14_preEnd__linesEv
libOpenCOLLADASaxFrameworkLoader.so:_ZN15COLLADASaxFWL1429ColladaParserAutoGen14Private14_preEnd__morphEv
libOpenCOLLADASaxFrameworkLoader.so:_ZN15COLLADASaxFWL1429ColladaParserAutoGen14Private14_preEnd__orderEv
libOpenCOLLADASaxFrameworkLoader.so:_ZN15COLLADASaxFWL1429ColladaParserAutoGen14Private14_preEnd__paramEv
libOpenCOLLADASaxFrameworkLoader.so:_ZN15COLLADASaxFWL1429ColladaParserAutoGen14Private14_preEnd__phongEv
libOpenCOLLADASaxFrameworkLoader.so:_ZN15COLLADASaxFWL1429ColladaParserAutoGen14Private14_preEnd__planeEv
libOpenCOLLADASaxFrameworkLoader.so:_ZN15COLLADASaxFWL1429ColladaParserAutoGen14Private14_preEnd__pointEv
libOpenCOLLADASaxFrameworkLoader.so:_ZN15COLLADASaxFWL1429ColladaParserAutoGen14Private14_preEnd__rangeEv
libOpenCOLLADASaxFrameworkLoader.so:_ZN15COLLADASaxFWL1429ColladaParserAutoGen14Private14_preEnd__scaleEv
libOpenCOLLADASaxFrameworkLoader.so:_ZN15COLLADASaxFWL1429ColladaParserAutoGen14Private14_preEnd__sceneEv
libOpenCOLLADASaxFrameworkLoader.so:_ZN15COLLADASaxFWL1429ColladaParserAutoGen14Private14_preEnd__titleEv
libOpenCOLLADASaxFrameworkLoader.so:_ZN15COLLADASaxFWL1429ColladaParserAutoGen14Private14_preEnd__znearEv
libOpenCOLLADASaxFrameworkLoader.so:_ZN15COLLADASaxFWL1429ColladaParserAutoGen14Private14isXsAnyAllowedERKm
libOpenCOLLADASaxFrameworkLoader.so:_ZN15COLLADASaxFWL1429ColladaParserAutoGen14Private15_data__accessorEPKcm
libOpenCOLLADASaxFrameworkLoader.so:_ZN15COLLADASaxFWL1429ColladaParserAutoGen14Private15_data__annotateEPKcm
libOpenCOLLADASaxFrameworkLoader.so:_ZN15COLLADASaxFWL1429ColladaParserAutoGen14Private15_data__channelsEPKcm
libOpenCOLLADASaxFrameworkLoader.so:_ZN15COLLADASaxFWL1429ColladaParserAutoGen14Private15_data__commentsEPKcm
libOpenCOLLADASaxFrameworkLoader.so:_ZN15COLLADASaxFWL1429ColladaParserAutoGen14Private15_data__cylinderEPKcm
libOpenCOLLADASaxFrameworkLoader.so:_ZN15COLLADASaxFWL1429ColladaParserAutoGen14Private15_data__dest_rgbEPKcm
libOpenCOLLADASaxFrameworkLoader.so:_ZN15COLLADASaxFWL1429ColladaParserAutoGen14Private15_data__emissionEPKcm
libOpenCOLLADASaxFrameworkLoader.so:_ZN15COLLADASaxFWL1429ColladaParserAutoGen14Private15_data__equationEPKcm
libOpenCOLLADASaxFrameworkLoader.so:_ZN15COLLADASaxFWL1429ColladaParserAutoGen14Private15_data__fixed1x1EPKcm
libOpenCOLLADASaxFrameworkLoader.so:_ZN15COLLADASaxFWL1429ColladaParserAutoGen14Private15_data__fixed1x2EPKcm
libOpenCOLLADASaxFrameworkLoader.so:_ZN15COLLADASaxFWL1429ColladaParserAutoGen14Private15_data__fixed1x3EPKcm
libOpenCOLLADASaxFrameworkLoader.so:_ZN15COLLADASaxFWL1429ColladaParserAutoGen14Private15_data__fixed1x4EPKcm
libOpenCOLLADASaxFrameworkLoader.so:_ZN15COLLADASaxFWL1429ColladaParserAutoGen14Private15_data__fixed2x1EPKcm
libOpenCOLLADASaxFrameworkLoader.so:_ZN15COLLADASaxFWL1429ColladaParserAutoGen14Private15_data__fixed2x2EPKcm
libOpenCOLLADASaxFrameworkLoader.so:_ZN15COLLADASaxFWL1429ColladaParserAutoGen14Private15_data__fixed2x3EPKcm
libOpenCOLLADASaxFrameworkLoader.so:_ZN15COLLADASaxFWL1429ColladaParserAutoGen14Private15_data__fixed2x4EPKcm
libOpenCOLLADASaxFrameworkLoader.so:_ZN15COLLADASaxFWL1429ColladaParserAutoGen14Private15_data__fixed3x1EPKcm
libOpenCOLLADASaxFrameworkLoader.so:_ZN15COLLADASaxFWL1429ColladaParserAutoGen14Private15_data__fixed3x2EPKcm
libOpenCOLLADASaxFrameworkLoader.so:_ZN15COLLADASaxFWL1429ColladaParserAutoGen14Private15_data__fixed3x3EPKcm
libOpenCOLLADASaxFrameworkLoader.so:_ZN15COLLADASaxFWL1429ColladaParserAutoGen14Private15_data__fixed3x4EPKcm
libOpenCOLLADASaxFrameworkLoader.so:_ZN15COLLADASaxFWL1429ColladaParserAutoGen14Private15_data__fixed4x1EPKcm
libOpenCOLLADASaxFrameworkLoader.so:_ZN15COLLADASaxFWL1429ColladaParserAutoGen14Private15_data__fixed4x2EPKcm
libOpenCOLLADASaxFrameworkLoader.so:_ZN15COLLADASaxFWL1429ColladaParserAutoGen14Private15_data__fixed4x3EPKcm
libOpenCOLLADASaxFrameworkLoader.so:_ZN15COLLADASaxFWL1429ColladaParserAutoGen14Private15_data__fixed4x4EPKcm
libOpenCOLLADASaxFrameworkLoader.so:_ZN15COLLADASaxFWL1429ColladaParserAutoGen14Private15_data__geometryEPKcm
libOpenCOLLADASaxFrameworkLoader.so:_ZN15COLLADASaxFWL1429ColladaParserAutoGen14Private15_data__keywordsEPKcm
libOpenCOLLADASaxFrameworkLoader.so:_ZN15COLLADASaxFWL1429ColladaParserAutoGen14Private15_data__materialEPKcm
libOpenCOLLADASaxFrameworkLoader.so:_ZN15COLLADASaxFWL1429ColladaParserAutoGen14Private15_data__modifiedEPKcm
libOpenCOLLADASaxFrameworkLoader.so:_ZN15COLLADASaxFWL1429ColladaParserAutoGen14Private15_data__modifierEPKcm
libOpenCOLLADASaxFrameworkLoader.so:_ZN15COLLADASaxFWL1429ColladaParserAutoGen14Private15_data__polygonsEPKcm
libOpenCOLLADASaxFrameworkLoader.so:_ZN15COLLADASaxFWL1429ColladaParserAutoGen14Private15_data__polylistEPKcm
libOpenCOLLADASaxFrameworkLoader.so:_ZN15COLLADASaxFWL1429ColladaParserAutoGen14Private15_data__revisionEPKcm
libOpenCOLLADASaxFrameworkLoader.so:_ZN15COLLADASaxFWL1429ColladaParserAutoGen14Private15_data__semanticEPKcm
libOpenCOLLADASaxFrameworkLoader.so:_ZN15COLLADASaxFWL1429ColladaParserAutoGen14Private15_data__skeletonEPKcm
libOpenCOLLADASaxFrameworkLoader.so:_ZN15COLLADASaxFWL1429ColladaParserAutoGen14Private15_data__specularEPKcm
libOpenCOLLADASaxFrameworkLoader.so:_ZN15COLLADASaxFWL1429ColladaParserAutoGen14Private15_data__texcoordEPKcm
libOpenCOLLADASaxFrameworkLoader.so:_ZN15COLLADASaxFWL1429ColladaParserAutoGen14Private15_data__usertypeEPKcm
libOpenCOLLADASaxFrameworkLoader.so:_ZN15COLLADASaxFWL1429ColladaParserAutoGen14Private15_data__velocityEPKcm
libOpenCOLLADASaxFrameworkLoader.so:_ZN15COLLADASaxFWL1429ColladaParserAutoGen14Private15_data__verticesEPKcm
libOpenCOLLADASaxFrameworkLoader.so:_ZN15COLLADASaxFWL1429ColladaParserAutoGen14Private15_preBegin__backERKN18GeneratedSaxParser16ParserAttributesEPPvS6_
libOpenCOLLADASaxFrameworkLoader.so:_ZN15COLLADASaxFWL1429ColladaParserAutoGen14Private15_preBegin__codeERKN18GeneratedSaxParser16ParserAttributesEPPvS6_
libOpenCOLLADASaxFrameworkLoader.so:_ZN15COLLADASaxFWL1429ColladaParserAutoGen14Private15_preBegin__dataERKN18GeneratedSaxParser16ParserAttributesEPPvS6_
libOpenCOLLADASaxFrameworkLoader.so:_ZN15COLLADASaxFWL1429ColladaParserAutoGen14Private15_preBegin__drawERKN18GeneratedSaxParser16ParserAttributesEPPvS6_
libOpenCOLLADASaxFrameworkLoader.so:_ZN15COLLADASaxFWL1429ColladaParserAutoGen14Private15_preBegin__halfERKN18GeneratedSaxParser16ParserAttributesEPPvS6_
libOpenCOLLADASaxFrameworkLoader.so:_ZN15COLLADASaxFWL1429ColladaParserAutoGen14Private15_preBegin__int1ERKN18GeneratedSaxParser16ParserAttributesEPPvS6_
libOpenCOLLADASaxFrameworkLoader.so:_ZN15COLLADASaxFWL1429ColladaParserAutoGen14Private15_preBegin__massERKN18GeneratedSaxParser16ParserAttributesEPPvS6_
libOpenCOLLADASaxFrameworkLoader.so:_ZN15COLLADASaxFWL1429ColladaParserAutoGen14Private15_preBegin__meshERKN18GeneratedSaxParser16ParserAttributesEPPvS6_
libOpenCOLLADASaxFrameworkLoader.so:_ZN15COLLADASaxFWL1429ColladaParserAutoGen14Private15_preBegin__nodeERKN18GeneratedSaxParser16ParserAttributesEPPvS6_
libOpenCOLLADASaxFrameworkLoader.so:_ZN15COLLADASaxFWL1429ColladaParserAutoGen14Private15_preBegin__skewERKN18GeneratedSaxParser16ParserAttributesEPPvS6_
libOpenCOLLADASaxFrameworkLoader.so:_ZN15COLLADASaxFWL1429ColladaParserAutoGen14Private15_preBegin__skinERKN18GeneratedSaxParser16ParserAttributesEPPvS6_
libOpenCOLLADASaxFrameworkLoader.so:_ZN15COLLADASaxFWL1429ColladaParserAutoGen14Private15_preBegin__spotERKN18GeneratedSaxParser16ParserAttributesEPPvS6_
libOpenCOLLADASaxFrameworkLoader.so:_ZN15COLLADASaxFWL1429ColladaParserAutoGen14Private15_preBegin__unitERKN18GeneratedSaxParser16ParserAttributesEPPvS6_
libOpenCOLLADASaxFrameworkLoader.so:_ZN15COLLADASaxFWL1429ColladaParserAutoGen14Private15_preBegin__xfovERKN18GeneratedSaxParser16ParserAttributesEPPvS6_
libOpenCOLLADASaxFrameworkLoader.so:_ZN15COLLADASaxFWL1429ColladaParserAutoGen14Private15_preBegin__xmagERKN18GeneratedSaxParser16ParserAttributesEPPvS6_
libOpenCOLLADASaxFrameworkLoader.so:_ZN15COLLADASaxFWL1429ColladaParserAutoGen14Private15_preBegin__yfovERKN18GeneratedSaxParser16ParserAttributesEPPvS6_
libOpenCOLLADASaxFrameworkLoader.so:_ZN15COLLADASaxFWL1429ColladaParserAutoGen14Private15_preBegin__ymagERKN18GeneratedSaxParser16ParserAttributesEPPvS6_
libOpenCOLLADASaxFrameworkLoader.so:_ZN15COLLADASaxFWL1429ColladaParserAutoGen14Private15_preBegin__zfarERKN18GeneratedSaxParser16ParserAttributesEPPvS6_
libOpenCOLLADASaxFrameworkLoader.so:_ZN15COLLADASaxFWL1429ColladaParserAutoGen14Private15_preEnd__authorEv
libOpenCOLLADASaxFrameworkLoader.so:_ZN15COLLADASaxFWL1429ColladaParserAutoGen14Private15_preEnd__cameraEv
libOpenCOLLADASaxFrameworkLoader.so:_ZN15COLLADASaxFWL1429ColladaParserAutoGen14Private15_preEnd__effectEv
libOpenCOLLADASaxFrameworkLoader.so:_ZN15COLLADASaxFWL1429ColladaParserAutoGen14Private15_preEnd__fixed1Ev
libOpenCOLLADASaxFrameworkLoader.so:_ZN15COLLADASaxFWL1429ColladaParserAutoGen14Private15_preEnd__fixed2Ev
libOpenCOLLADASaxFrameworkLoader.so:_ZN15COLLADASaxFWL1429ColladaParserAutoGen14Private15_preEnd__fixed3Ev
libOpenCOLLADASaxFrameworkLoader.so:_ZN15COLLADASaxFWL1429ColladaParserAutoGen14Private15_preEnd__fixed4Ev
libOpenCOLLADASaxFrameworkLoader.so:_ZN15COLLADASaxFWL1429ColladaParserAutoGen14Private15_preEnd__float1Ev
libOpenCOLLADASaxFrameworkLoader.so:_ZN15COLLADASaxFWL1429ColladaParserAutoGen14Private15_preEnd__formatEv
libOpenCOLLADASaxFrameworkLoader.so:_ZN15COLLADASaxFWL1429ColladaParserAutoGen14Private15_preEnd__heightEv
libOpenCOLLADASaxFrameworkLoader.so:_ZN15COLLADASaxFWL1429ColladaParserAutoGen14Private15_preEnd__imagerEv
libOpenCOLLADASaxFrameworkLoader.so:_ZN15COLLADASaxFWL1429ColladaParserAutoGen14Private15_preEnd__int1x1Ev
libOpenCOLLADASaxFrameworkLoader.so:_ZN15COLLADASaxFWL1429ColladaParserAutoGen14Private15_preEnd__int1x2Ev
libOpenCOLLADASaxFrameworkLoader.so:_ZN15COLLADASaxFWL1429ColladaParserAutoGen14Private15_preEnd__int1x3Ev
libOpenCOLLADASaxFrameworkLoader.so:_ZN15COLLADASaxFWL1429ColladaParserAutoGen14Private15_preEnd__int1x4Ev
libOpenCOLLADASaxFrameworkLoader.so:_ZN15COLLADASaxFWL1429ColladaParserAutoGen14Private15_preEnd__int2x1Ev
libOpenCOLLADASaxFrameworkLoader.so:_ZN15COLLADASaxFWL1429ColladaParserAutoGen14Private15_preEnd__int2x2Ev
libOpenCOLLADASaxFrameworkLoader.so:_ZN15COLLADASaxFWL1429ColladaParserAutoGen14Private15_preEnd__int2x3Ev
libOpenCOLLADASaxFrameworkLoader.so:_ZN15COLLADASaxFWL1429ColladaParserAutoGen14Private15_preEnd__int2x4Ev
libOpenCOLLADASaxFrameworkLoader.so:_ZN15COLLADASaxFWL1429ColladaParserAutoGen14Private15_preEnd__int3x1Ev
libOpenCOLLADASaxFrameworkLoader.so:_ZN15COLLADASaxFWL1429ColladaParserAutoGen14Private15_preEnd__int3x2Ev
libOpenCOLLADASaxFrameworkLoader.so:_ZN15COLLADASaxFWL1429ColladaParserAutoGen14Private15_preEnd__int3x3Ev
libOpenCOLLADASaxFrameworkLoader.so:_ZN15COLLADASaxFWL1429ColladaParserAutoGen14Private15_preEnd__int3x4Ev
libOpenCOLLADASaxFrameworkLoader.so:_ZN15COLLADASaxFWL1429ColladaParserAutoGen14Private15_preEnd__int4x1Ev
libOpenCOLLADASaxFrameworkLoader.so:_ZN15COLLADASaxFWL1429ColladaParserAutoGen14Private15_preEnd__int4x2Ev
libOpenCOLLADASaxFrameworkLoader.so:_ZN15COLLADASaxFWL1429ColladaParserAutoGen14Private15_preEnd__int4x3Ev
libOpenCOLLADASaxFrameworkLoader.so:_ZN15COLLADASaxFWL1429ColladaParserAutoGen14Private15_preEnd__int4x4Ev
libOpenCOLLADASaxFrameworkLoader.so:_ZN15COLLADASaxFWL1429ColladaParserAutoGen14Private15_preEnd__jointsEv
libOpenCOLLADASaxFrameworkLoader.so:_ZN15COLLADASaxFWL1429ColladaParserAutoGen14Private15_preEnd__limitsEv
libOpenCOLLADASaxFrameworkLoader.so:_ZN15COLLADASaxFWL1429ColladaParserAutoGen14Private15_preEnd__lookatEv
libOpenCOLLADASaxFrameworkLoader.so:_ZN15COLLADASaxFWL1429ColladaParserAutoGen14Private15_preEnd__matrixEv
libOpenCOLLADASaxFrameworkLoader.so:_ZN15COLLADASaxFWL1429ColladaParserAutoGen14Private15_preEnd__opticsEv
libOpenCOLLADASaxFrameworkLoader.so:_ZN15COLLADASaxFWL1429ColladaParserAutoGen14Private15_preEnd__optionEv
libOpenCOLLADASaxFrameworkLoader.so:_ZN15COLLADASaxFWL1429ColladaParserAutoGen14Private15_preEnd__renderEv
libOpenCOLLADASaxFrameworkLoader.so:_ZN15COLLADASaxFWL1429ColladaParserAutoGen14Private15_preEnd__rotateEv
libOpenCOLLADASaxFrameworkLoader.so:_ZN15COLLADASaxFWL1429ColladaParserAutoGen14Private15_preEnd__sourceEv
libOpenCOLLADASaxFrameworkLoader.so:_ZN15COLLADASaxFWL1429ColladaParserAutoGen14Private15_preEnd__sphereEv
libOpenCOLLADASaxFrameworkLoader.so:_ZN15COLLADASaxFWL1429ColladaParserAutoGen14Private15_preEnd__splineEv
libOpenCOLLADASaxFrameworkLoader.so:_ZN15COLLADASaxFWL1429ColladaParserAutoGen14Private15_preEnd__springEv
libOpenCOLLADASaxFrameworkLoader.so:_ZN15COLLADASaxFWL1429ColladaParserAutoGen14Private15_preEnd__stringEv
libOpenCOLLADASaxFrameworkLoader.so:_ZN15COLLADASaxFWL1429ColladaParserAutoGen14Private15_preEnd__texenvEv
libOpenCOLLADASaxFrameworkLoader.so:_ZN15COLLADASaxFWL1429ColladaParserAutoGen14Private15_preEnd__vcountEv
libOpenCOLLADASaxFrameworkLoader.so:_ZN15COLLADASaxFWL1429ColladaParserAutoGen14Private15_preEnd__wrap_pEv
libOpenCOLLADASaxFrameworkLoader.so:_ZN15COLLADASaxFWL1429ColladaParserAutoGen14Private15findElementHashERN18GeneratedSaxParser18ParserTemplateBase11ElementDataE
libOpenCOLLADASaxFrameworkLoader.so:_ZN15COLLADASaxFWL1429ColladaParserAutoGen14Private15initFunctionMapEv
libOpenCOLLADASaxFrameworkLoader.so:_ZN15COLLADASaxFWL1429ColladaParserAutoGen14Private16_data__animationEPKcm
libOpenCOLLADASaxFrameworkLoader.so:_ZN15COLLADASaxFWL1429ColladaParserAutoGen14Private16_data__copyrightEPKcm
libOpenCOLLADASaxFrameworkLoader.so:_ZN15COLLADASaxFWL1429ColladaParserAutoGen14Private16_data__init_cubeEPKcm
libOpenCOLLADASaxFrameworkLoader.so:_ZN15COLLADASaxFWL1429ColladaParserAutoGen14Private16_data__int_arrayEPKcm
libOpenCOLLADASaxFrameworkLoader.so:_ZN15COLLADASaxFWL1429ColladaParserAutoGen14Private16_data__magfilterEPKcm
libOpenCOLLADASaxFrameworkLoader.so:_ZN15COLLADASaxFWL1429ColladaParserAutoGen14Private16_data__minfilterEPKcm
libOpenCOLLADASaxFrameworkLoader.so:_ZN15COLLADASaxFWL1429ColladaParserAutoGen14Private16_data__mipfilterEPKcm
libOpenCOLLADASaxFrameworkLoader.so:_ZN15COLLADASaxFWL1429ColladaParserAutoGen14Private16_data__precisionEPKcm
libOpenCOLLADASaxFrameworkLoader.so:_ZN15COLLADASaxFWL1429ColladaParserAutoGen14Private16_data__shininessEPKcm
libOpenCOLLADASaxFrameworkLoader.so:_ZN15COLLADASaxFWL1429ColladaParserAutoGen14Private16_data__src_alphaEPKcm
libOpenCOLLADASaxFrameworkLoader.so:_ZN15COLLADASaxFWL1429ColladaParserAutoGen14Private16_data__stiffnessEPKcm
libOpenCOLLADASaxFrameworkLoader.so:_ZN15COLLADASaxFWL1429ColladaParserAutoGen14Private16_data__techniqueEPKcm
libOpenCOLLADASaxFrameworkLoader.so:_ZN15COLLADASaxFWL1429ColladaParserAutoGen14Private16_data__texture1DEPKcm
libOpenCOLLADASaxFrameworkLoader.so:_ZN15COLLADASaxFWL1429ColladaParserAutoGen14Private16_data__texture2DEPKcm
libOpenCOLLADASaxFrameworkLoader.so:_ZN15COLLADASaxFWL1429ColladaParserAutoGen14Private16_data__texture3DEPKcm
libOpenCOLLADASaxFrameworkLoader.so:_ZN15COLLADASaxFWL1429ColladaParserAutoGen14Private16_data__time_stepEPKcm
libOpenCOLLADASaxFrameworkLoader.so:_ZN15COLLADASaxFWL1429ColladaParserAutoGen14Private16_data__translateEPKcm
libOpenCOLLADASaxFrameworkLoader.so:_ZN15COLLADASaxFWL1429ColladaParserAutoGen14Private16_data__trianglesEPKcm
libOpenCOLLADASaxFrameworkLoader.so:_ZN15COLLADASaxFWL1429ColladaParserAutoGen14Private16_data__tristripsEPKcm
libOpenCOLLADASaxFrameworkLoader.so:_ZN15COLLADASaxFWL1429ColladaParserAutoGen14Private16_preBegin__assetERKN18GeneratedSaxParser16ParserAttributesEPPvS6_
libOpenCOLLADASaxFrameworkLoader.so:_ZN15COLLADASaxFWL1429ColladaParserAutoGen14Private16_preBegin__blinnERKN18GeneratedSaxParser16ParserAttributesEPPvS6_
libOpenCOLLADASaxFrameworkLoader.so:_ZN15COLLADASaxFWL1429ColladaParserAutoGen14Private16_preBegin__bool1ERKN18GeneratedSaxParser16ParserAttributesEPPvS6_
libOpenCOLLADASaxFrameworkLoader.so:_ZN15COLLADASaxFWL1429ColladaParserAutoGen14Private16_preBegin__extraERKN18GeneratedSaxParser16ParserAttributesEPPvS6_
libOpenCOLLADASaxFrameworkLoader.so:_ZN15COLLADASaxFWL1429ColladaParserAutoGen14Private16_preBegin__fixedERKN18GeneratedSaxParser16ParserAttributesEPPvS6_
libOpenCOLLADASaxFrameworkLoader.so:_ZN15COLLADASaxFWL1429ColladaParserAutoGen14Private16_preBegin__frontERKN18GeneratedSaxParser16ParserAttributesEPPvS6_
libOpenCOLLADASaxFrameworkLoader.so:_ZN15COLLADASaxFWL1429ColladaParserAutoGen14Private16_preBegin__half1ERKN18GeneratedSaxParser16ParserAttributesEPPvS6_
libOpenCOLLADASaxFrameworkLoader.so:_ZN15COLLADASaxFWL1429ColladaParserAutoGen14Private16_preBegin__half2ERKN18GeneratedSaxParser16ParserAttributesEPPvS6_
libOpenCOLLADASaxFrameworkLoader.so:_ZN15COLLADASaxFWL1429ColladaParserAutoGen14Private16_preBegin__half3ERKN18GeneratedSaxParser16ParserAttributesEPPvS6_
libOpenCOLLADASaxFrameworkLoader.so:_ZN15COLLADASaxFWL1429ColladaParserAutoGen14Private16_preBegin__half4ERKN18GeneratedSaxParser16ParserAttributesEPPvS6_
libOpenCOLLADASaxFrameworkLoader.so:_ZN15COLLADASaxFWL1429ColladaParserAutoGen14Private16_preBegin__imageERKN18GeneratedSaxParser16ParserAttributesEPPvS6_
libOpenCOLLADASaxFrameworkLoader.so:_ZN15COLLADASaxFWL1429ColladaParserAutoGen14Private16_preBegin__layerERKN18GeneratedSaxParser16ParserAttributesEPPvS6_
libOpenCOLLADASaxFrameworkLoader.so:_ZN15COLLADASaxFWL1429ColladaParserAutoGen14Private16_preBegin__lightERKN18GeneratedSaxParser16ParserAttributesEPPvS6_
libOpenCOLLADASaxFrameworkLoader.so:_ZN15COLLADASaxFWL1429ColladaParserAutoGen14Private16_preBegin__linesERKN18GeneratedSaxParser16ParserAttributesEPPvS6_
libOpenCOLLADASaxFrameworkLoader.so:_ZN15COLLADASaxFWL1429ColladaParserAutoGen14Private16_preBegin__morphERKN18GeneratedSaxParser16ParserAttributesEPPvS6_
libOpenCOLLADASaxFrameworkLoader.so:_ZN15COLLADASaxFWL1429ColladaParserAutoGen14Private16_preBegin__orderERKN18GeneratedSaxParser16ParserAttributesEPPvS6_
libOpenCOLLADASaxFrameworkLoader.so:_ZN15COLLADASaxFWL1429ColladaParserAutoGen14Private16_preBegin__paramERKN18GeneratedSaxParser16ParserAttributesEPPvS6_
libOpenCOLLADASaxFrameworkLoader.so:_ZN15COLLADASaxFWL1429ColladaParserAutoGen14Private16_preBegin__phongERKN18GeneratedSaxParser16ParserAttributesEPPvS6_
libOpenCOLLADASaxFrameworkLoader.so:_ZN15COLLADASaxFWL1429ColladaParserAutoGen14Private16_preBegin__planeERKN18GeneratedSaxParser16ParserAttributesEPPvS6_
libOpenCOLLADASaxFrameworkLoader.so:_ZN15COLLADASaxFWL1429ColladaParserAutoGen14Private16_preBegin__pointERKN18GeneratedSaxParser16ParserAttributesEPPvS6_
libOpenCOLLADASaxFrameworkLoader.so:_ZN15COLLADASaxFWL1429ColladaParserAutoGen14Private16_preBegin__rangeERKN18GeneratedSaxParser16ParserAttributesEPPvS6_
libOpenCOLLADASaxFrameworkLoader.so:_ZN15COLLADASaxFWL1429ColladaParserAutoGen14Private16_preBegin__scaleERKN18GeneratedSaxParser16ParserAttributesEPPvS6_
libOpenCOLLADASaxFrameworkLoader.so:_ZN15COLLADASaxFWL1429ColladaParserAutoGen14Private16_preBegin__sceneERKN18GeneratedSaxParser16ParserAttributesEPPvS6_
libOpenCOLLADASaxFrameworkLoader.so:_ZN15COLLADASaxFWL1429ColladaParserAutoGen14Private16_preBegin__titleERKN18GeneratedSaxParser16ParserAttributesEPPvS6_
libOpenCOLLADASaxFrameworkLoader.so:_ZN15COLLADASaxFWL1429ColladaParserAutoGen14Private16_preBegin__znearERKN18GeneratedSaxParser16ParserAttributesEPPvS6_
libOpenCOLLADASaxFrameworkLoader.so:_ZN15COLLADASaxFWL1429ColladaParserAutoGen14Private16_preEnd__COLLADAEv
libOpenCOLLADASaxFrameworkLoader.so:_ZN15COLLADASaxFWL1429ColladaParserAutoGen14Private16_preEnd__angularEv
libOpenCOLLADASaxFrameworkLoader.so:_ZN15COLLADASaxFWL1429ColladaParserAutoGen14Private16_preEnd__bool1x1Ev
libOpenCOLLADASaxFrameworkLoader.so:_ZN15COLLADASaxFWL1429ColladaParserAutoGen14Private16_preEnd__bool1x2Ev
libOpenCOLLADASaxFrameworkLoader.so:_ZN15COLLADASaxFWL1429ColladaParserAutoGen14Private16_preEnd__bool1x3Ev
libOpenCOLLADASaxFrameworkLoader.so:_ZN15COLLADASaxFWL1429ColladaParserAutoGen14Private16_preEnd__bool1x4Ev
libOpenCOLLADASaxFrameworkLoader.so:_ZN15COLLADASaxFWL1429ColladaParserAutoGen14Private16_preEnd__bool2x1Ev
libOpenCOLLADASaxFrameworkLoader.so:_ZN15COLLADASaxFWL1429ColladaParserAutoGen14Private16_preEnd__bool2x2Ev
libOpenCOLLADASaxFrameworkLoader.so:_ZN15COLLADASaxFWL1429ColladaParserAutoGen14Private16_preEnd__bool2x3Ev
libOpenCOLLADASaxFrameworkLoader.so:_ZN15COLLADASaxFWL1429ColladaParserAutoGen14Private16_preEnd__bool2x4Ev
libOpenCOLLADASaxFrameworkLoader.so:_ZN15COLLADASaxFWL1429ColladaParserAutoGen14Private16_preEnd__bool3x1Ev
libOpenCOLLADASaxFrameworkLoader.so:_ZN15COLLADASaxFWL1429ColladaParserAutoGen14Private16_preEnd__bool3x2Ev
libOpenCOLLADASaxFrameworkLoader.so:_ZN15COLLADASaxFWL1429ColladaParserAutoGen14Private16_preEnd__bool3x3Ev
libOpenCOLLADASaxFrameworkLoader.so:_ZN15COLLADASaxFWL1429ColladaParserAutoGen14Private16_preEnd__bool3x4Ev
libOpenCOLLADASaxFrameworkLoader.so:_ZN15COLLADASaxFWL1429ColladaParserAutoGen14Private16_preEnd__bool4x1Ev
libOpenCOLLADASaxFrameworkLoader.so:_ZN15COLLADASaxFWL1429ColladaParserAutoGen14Private16_preEnd__bool4x2Ev
libOpenCOLLADASaxFrameworkLoader.so:_ZN15COLLADASaxFWL1429ColladaParserAutoGen14Private16_preEnd__bool4x3Ev
libOpenCOLLADASaxFrameworkLoader.so:_ZN15COLLADASaxFWL1429ColladaParserAutoGen14Private16_preEnd__bool4x4Ev
libOpenCOLLADASaxFrameworkLoader.so:_ZN15COLLADASaxFWL1429ColladaParserAutoGen14Private16_preEnd__capsuleEv
libOpenCOLLADASaxFrameworkLoader.so:_ZN15COLLADASaxFWL1429ColladaParserAutoGen14Private16_preEnd__channelEv
libOpenCOLLADASaxFrameworkLoader.so:_ZN15COLLADASaxFWL1429ColladaParserAutoGen14Private16_preEnd__createdEv
libOpenCOLLADASaxFrameworkLoader.so:_ZN15COLLADASaxFWL1429ColladaParserAutoGen14Private16_preEnd__dampingEv
libOpenCOLLADASaxFrameworkLoader.so:_ZN15COLLADASaxFWL1429ColladaParserAutoGen14Private16_preEnd__densityEv
libOpenCOLLADASaxFrameworkLoader.so:_ZN15COLLADASaxFWL1429ColladaParserAutoGen14Private16_preEnd__diffuseEv
libOpenCOLLADASaxFrameworkLoader.so:_ZN15COLLADASaxFWL1429ColladaParserAutoGen14Private16_preEnd__enabledEv
libOpenCOLLADASaxFrameworkLoader.so:_ZN15COLLADASaxFWL1429ColladaParserAutoGen14Private16_preEnd__gravityEv
libOpenCOLLADASaxFrameworkLoader.so:_ZN15COLLADASaxFWL1429ColladaParserAutoGen14Private16_preEnd__half1x1Ev
libOpenCOLLADASaxFrameworkLoader.so:_ZN15COLLADASaxFWL1429ColladaParserAutoGen14Private16_preEnd__half1x2Ev
libOpenCOLLADASaxFrameworkLoader.so:_ZN15COLLADASaxFWL1429ColladaParserAutoGen14Private16_preEnd__half1x3Ev
libOpenCOLLADASaxFrameworkLoader.so:_ZN15COLLADASaxFWL1429ColladaParserAutoGen14Private16_preEnd__half1x4Ev
libOpenCOLLADASaxFrameworkLoader.so:_ZN15COLLADASaxFWL1429ColladaParserAutoGen14Private16_preEnd__half2x1Ev
libOpenCOLLADASaxFrameworkLoader.so:_ZN15COLLADASaxFWL1429ColladaParserAutoGen14Private16_preEnd__half2x2Ev
libOpenCOLLADASaxFrameworkLoader.so:_ZN15COLLADASaxFWL1429ColladaParserAutoGen14Private16_preEnd__half2x3Ev
libOpenCOLLADASaxFrameworkLoader.so:_ZN15COLLADASaxFWL1429ColladaParserAutoGen14Private16_preEnd__half2x4Ev
libOpenCOLLADASaxFrameworkLoader.so:_ZN15COLLADASaxFWL1429ColladaParserAutoGen14Private16_preEnd__half3x1Ev
libOpenCOLLADASaxFrameworkLoader.so:_ZN15COLLADASaxFWL1429ColladaParserAutoGen14Private16_preEnd__half3x2Ev
libOpenCOLLADASaxFrameworkLoader.so:_ZN15COLLADASaxFWL1429ColladaParserAutoGen14Private16_preEnd__half3x3Ev
libOpenCOLLADASaxFrameworkLoader.so:_ZN15COLLADASaxFWL1429ColladaParserAutoGen14Private16_preEnd__half3x4Ev
libOpenCOLLADASaxFrameworkLoader.so:_ZN15COLLADASaxFWL1429ColladaParserAutoGen14Private16_preEnd__half4x1Ev
libOpenCOLLADASaxFrameworkLoader.so:_ZN15COLLADASaxFWL1429ColladaParserAutoGen14Private16_preEnd__half4x2Ev
libOpenCOLLADASaxFrameworkLoader.so:_ZN15COLLADASaxFWL1429ColladaParserAutoGen14Private16_preEnd__half4x3Ev
libOpenCOLLADASaxFrameworkLoader.so:_ZN15COLLADASaxFWL1429ColladaParserAutoGen14Private16_preEnd__half4x4Ev
libOpenCOLLADASaxFrameworkLoader.so:_ZN15COLLADASaxFWL1429ColladaParserAutoGen14Private16_preEnd__includeEv
libOpenCOLLADASaxFrameworkLoader.so:_ZN15COLLADASaxFWL1429ColladaParserAutoGen14Private16_preEnd__inertiaEv
libOpenCOLLADASaxFrameworkLoader.so:_ZN15COLLADASaxFWL1429ColladaParserAutoGen14Private16_preEnd__lambertEv
libOpenCOLLADASaxFrameworkLoader.so:_ZN15COLLADASaxFWL1429ColladaParserAutoGen14Private16_preEnd__radius1Ev
libOpenCOLLADASaxFrameworkLoader.so:_ZN15COLLADASaxFWL1429ColladaParserAutoGen14Private16_preEnd__radius2Ev
libOpenCOLLADASaxFrameworkLoader.so:_ZN15COLLADASaxFWL1429ColladaParserAutoGen14Private16_preEnd__samplerEv
libOpenCOLLADASaxFrameworkLoader.so:_ZN15COLLADASaxFWL1429ColladaParserAutoGen14Private16_preEnd__src_rgbEv
libOpenCOLLADASaxFrameworkLoader.so:_ZN15COLLADASaxFWL1429ColladaParserAutoGen14Private16_preEnd__subjectEv
libOpenCOLLADASaxFrameworkLoader.so:_ZN15COLLADASaxFWL1429ColladaParserAutoGen14Private16_preEnd__targetsEv
libOpenCOLLADASaxFrameworkLoader.so:_ZN15COLLADASaxFWL1429ColladaParserAutoGen14Private16_preEnd__textureEv
libOpenCOLLADASaxFrameworkLoader.so:_ZN15COLLADASaxFWL1429ColladaParserAutoGen14Private16_preEnd__trifansEv
libOpenCOLLADASaxFrameworkLoader.so:_ZN15COLLADASaxFWL1429ColladaParserAutoGen14Private16_preEnd__up_axisEv
libOpenCOLLADASaxFrameworkLoader.so:_ZN15COLLADASaxFWL1429ColladaParserAutoGen14Private17_data__Name_arrayEPKcm
libOpenCOLLADASaxFrameworkLoader.so:_ZN15COLLADASaxFWL1429ColladaParserAutoGen14Private17_data__attachmentEPKcm
libOpenCOLLADASaxFrameworkLoader.so:_ZN15COLLADASaxFWL1429ColladaParserAutoGen14Private17_data__bool_arrayEPKcm
libOpenCOLLADASaxFrameworkLoader.so:_ZN15COLLADASaxFWL1429ColladaParserAutoGen14Private17_data__controllerEPKcm
libOpenCOLLADASaxFrameworkLoader.so:_ZN15COLLADASaxFWL1429ColladaParserAutoGen14Private17_data__dest_alphaEPKcm
libOpenCOLLADASaxFrameworkLoader.so:_ZN15COLLADASaxFWL1429ColladaParserAutoGen14Private17_data__int____intEPKcm
libOpenCOLLADASaxFrameworkLoader.so:_ZN15COLLADASaxFWL1429ColladaParserAutoGen14Private17_data__linestripsEPKcm
libOpenCOLLADASaxFrameworkLoader.so:_ZN15COLLADASaxFWL1429ColladaParserAutoGen14Private17_data__mip_levelsEPKcm
libOpenCOLLADASaxFrameworkLoader.so:_ZN15COLLADASaxFWL1429ColladaParserAutoGen14Private17_data__profile_CGEPKcm
libOpenCOLLADASaxFrameworkLoader.so:_ZN15COLLADASaxFWL1429ColladaParserAutoGen14Private17_data__reflectiveEPKcm
libOpenCOLLADASaxFrameworkLoader.so:_ZN15COLLADASaxFWL1429ColladaParserAutoGen14Private17_data__rigid_bodyEPKcm
libOpenCOLLADASaxFrameworkLoader.so:_ZN15COLLADASaxFWL1429ColladaParserAutoGen14Private17_preBegin__authorERKN18GeneratedSaxParser16ParserAttributesEPPvS6_
libOpenCOLLADASaxFrameworkLoader.so:_ZN15COLLADASaxFWL1429ColladaParserAutoGen14Private17_preBegin__cameraERKN18GeneratedSaxParser16ParserAttributesEPPvS6_
libOpenCOLLADASaxFrameworkLoader.so:_ZN15COLLADASaxFWL1429ColladaParserAutoGen14Private17_preBegin__effectERKN18GeneratedSaxParser16ParserAttributesEPPvS6_
libOpenCOLLADASaxFrameworkLoader.so:_ZN15COLLADASaxFWL1429ColladaParserAutoGen14Private17_preBegin__fixed1ERKN18GeneratedSaxParser16ParserAttributesEPPvS6_
libOpenCOLLADASaxFrameworkLoader.so:_ZN15COLLADASaxFWL1429ColladaParserAutoGen14Private17_preBegin__fixed2ERKN18GeneratedSaxParser16ParserAttributesEPPvS6_
libOpenCOLLADASaxFrameworkLoader.so:_ZN15COLLADASaxFWL1429ColladaParserAutoGen14Private17_preBegin__fixed3ERKN18GeneratedSaxParser16ParserAttributesEPPvS6_
libOpenCOLLADASaxFrameworkLoader.so:_ZN15COLLADASaxFWL1429ColladaParserAutoGen14Private17_preBegin__fixed4ERKN18GeneratedSaxParser16ParserAttributesEPPvS6_
libOpenCOLLADASaxFrameworkLoader.so:_ZN15COLLADASaxFWL1429ColladaParserAutoGen14Private17_preBegin__float1ERKN18GeneratedSaxParser16ParserAttributesEPPvS6_
libOpenCOLLADASaxFrameworkLoader.so:_ZN15COLLADASaxFWL1429ColladaParserAutoGen14Private17_preBegin__formatERKN18GeneratedSaxParser16ParserAttributesEPPvS6_
libOpenCOLLADASaxFrameworkLoader.so:_ZN15COLLADASaxFWL1429ColladaParserAutoGen14Private17_preBegin__heightERKN18GeneratedSaxParser16ParserAttributesEPPvS6_
libOpenCOLLADASaxFrameworkLoader.so:_ZN15COLLADASaxFWL1429ColladaParserAutoGen14Private17_preBegin__imagerERKN18GeneratedSaxParser16ParserAttributesEPPvS6_
libOpenCOLLADASaxFrameworkLoader.so:_ZN15COLLADASaxFWL1429ColladaParserAutoGen14Private17_preBegin__int1x1ERKN18GeneratedSaxParser16ParserAttributesEPPvS6_
libOpenCOLLADASaxFrameworkLoader.so:_ZN15COLLADASaxFWL1429ColladaParserAutoGen14Private17_preBegin__int1x2ERKN18GeneratedSaxParser16ParserAttributesEPPvS6_
libOpenCOLLADASaxFrameworkLoader.so:_ZN15COLLADASaxFWL1429ColladaParserAutoGen14Private17_preBegin__int1x3ERKN18GeneratedSaxParser16ParserAttributesEPPvS6_
libOpenCOLLADASaxFrameworkLoader.so:_ZN15COLLADASaxFWL1429ColladaParserAutoGen14Private17_preBegin__int1x4ERKN18GeneratedSaxParser16ParserAttributesEPPvS6_
libOpenCOLLADASaxFrameworkLoader.so:_ZN15COLLADASaxFWL1429ColladaParserAutoGen14Private17_preBegin__int2x1ERKN18GeneratedSaxParser16ParserAttributesEPPvS6_
libOpenCOLLADASaxFrameworkLoader.so:_ZN15COLLADASaxFWL1429ColladaParserAutoGen14Private17_preBegin__int2x2ERKN18GeneratedSaxParser16ParserAttributesEPPvS6_
libOpenCOLLADASaxFrameworkLoader.so:_ZN15COLLADASaxFWL1429ColladaParserAutoGen14Private17_preBegin__int2x3ERKN18GeneratedSaxParser16ParserAttributesEPPvS6_
libOpenCOLLADASaxFrameworkLoader.so:_ZN15COLLADASaxFWL1429ColladaParserAutoGen14Private17_preBegin__int2x4ERKN18GeneratedSaxParser16ParserAttributesEPPvS6_
libOpenCOLLADASaxFrameworkLoader.so:_ZN15COLLADASaxFWL1429ColladaParserAutoGen14Private17_preBegin__int3x1ERKN18GeneratedSaxParser16ParserAttributesEPPvS6_
libOpenCOLLADASaxFrameworkLoader.so:_ZN15COLLADASaxFWL1429ColladaParserAutoGen14Private17_preBegin__int3x2ERKN18GeneratedSaxParser16ParserAttributesEPPvS6_
libOpenCOLLADASaxFrameworkLoader.so:_ZN15COLLADASaxFWL1429ColladaParserAutoGen14Private17_preBegin__int3x3ERKN18GeneratedSaxParser16ParserAttributesEPPvS6_
libOpenCOLLADASaxFrameworkLoader.so:_ZN15COLLADASaxFWL1429ColladaParserAutoGen14Private17_preBegin__int3x4ERKN18GeneratedSaxParser16ParserAttributesEPPvS6_
libOpenCOLLADASaxFrameworkLoader.so:_ZN15COLLADASaxFWL1429ColladaParserAutoGen14Private17_preBegin__int4x1ERKN18GeneratedSaxParser16ParserAttributesEPPvS6_
libOpenCOLLADASaxFrameworkLoader.so:_ZN15COLLADASaxFWL1429ColladaParserAutoGen14Private17_preBegin__int4x2ERKN18GeneratedSaxParser16ParserAttributesEPPvS6_
libOpenCOLLADASaxFrameworkLoader.so:_ZN15COLLADASaxFWL1429ColladaParserAutoGen14Private17_preBegin__int4x3ERKN18GeneratedSaxParser16ParserAttributesEPPvS6_
libOpenCOLLADASaxFrameworkLoader.so:_ZN15COLLADASaxFWL1429ColladaParserAutoGen14Private17_preBegin__int4x4ERKN18GeneratedSaxParser16ParserAttributesEPPvS6_
libOpenCOLLADASaxFrameworkLoader.so:_ZN15COLLADASaxFWL1429ColladaParserAutoGen14Private17_preBegin__jointsERKN18GeneratedSaxParser16ParserAttributesEPPvS6_
libOpenCOLLADASaxFrameworkLoader.so:_ZN15COLLADASaxFWL1429ColladaParserAutoGen14Private17_preBegin__limitsERKN18GeneratedSaxParser16ParserAttributesEPPvS6_
libOpenCOLLADASaxFrameworkLoader.so:_ZN15COLLADASaxFWL1429ColladaParserAutoGen14Private17_preBegin__lookatERKN18GeneratedSaxParser16ParserAttributesEPPvS6_
libOpenCOLLADASaxFrameworkLoader.so:_ZN15COLLADASaxFWL1429ColladaParserAutoGen14Private17_preBegin__matrixERKN18GeneratedSaxParser16ParserAttributesEPPvS6_
libOpenCOLLADASaxFrameworkLoader.so:_ZN15COLLADASaxFWL1429ColladaParserAutoGen14Private17_preBegin__opticsERKN18GeneratedSaxParser16ParserAttributesEPPvS6_
libOpenCOLLADASaxFrameworkLoader.so:_ZN15COLLADASaxFWL1429ColladaParserAutoGen14Private17_preBegin__optionERKN18GeneratedSaxParser16ParserAttributesEPPvS6_
libOpenCOLLADASaxFrameworkLoader.so:_ZN15COLLADASaxFWL1429ColladaParserAutoGen14Private17_preBegin__renderERKN18GeneratedSaxParser16ParserAttributesEPPvS6_
libOpenCOLLADASaxFrameworkLoader.so:_ZN15COLLADASaxFWL1429ColladaParserAutoGen14Private17_preBegin__rotateERKN18GeneratedSaxParser16ParserAttributesEPPvS6_
libOpenCOLLADASaxFrameworkLoader.so:_ZN15COLLADASaxFWL1429ColladaParserAutoGen14Private17_preBegin__sourceERKN18GeneratedSaxParser16ParserAttributesEPPvS6_
libOpenCOLLADASaxFrameworkLoader.so:_ZN15COLLADASaxFWL1429ColladaParserAutoGen14Private17_preBegin__sphereERKN18GeneratedSaxParser16ParserAttributesEPPvS6_
libOpenCOLLADASaxFrameworkLoader.so:_ZN15COLLADASaxFWL1429ColladaParserAutoGen14Private17_preBegin__splineERKN18GeneratedSaxParser16ParserAttributesEPPvS6_
libOpenCOLLADASaxFrameworkLoader.so:_ZN15COLLADASaxFWL1429ColladaParserAutoGen14Private17_preBegin__springERKN18GeneratedSaxParser16ParserAttributesEPPvS6_
libOpenCOLLADASaxFrameworkLoader.so:_ZN15COLLADASaxFWL1429ColladaParserAutoGen14Private17_preBegin__stringERKN18GeneratedSaxParser16ParserAttributesEPPvS6_
libOpenCOLLADASaxFrameworkLoader.so:_ZN15COLLADASaxFWL1429ColladaParserAutoGen14Private17_preBegin__texenvERKN18GeneratedSaxParser16ParserAttributesEPPvS6_
libOpenCOLLADASaxFrameworkLoader.so:_ZN15COLLADASaxFWL1429ColladaParserAutoGen14Private17_preBegin__vcountERKN18GeneratedSaxParser16ParserAttributesEPPvS6_
libOpenCOLLADASaxFrameworkLoader.so:_ZN15COLLADASaxFWL1429ColladaParserAutoGen14Private17_preBegin__wrap_pERKN18GeneratedSaxParser16ParserAttributesEPPvS6_
libOpenCOLLADASaxFrameworkLoader.so:_ZN15COLLADASaxFWL1429ColladaParserAutoGen14Private17_preEnd__accessorEv
libOpenCOLLADASaxFrameworkLoader.so:_ZN15COLLADASaxFWL1429ColladaParserAutoGen14Private17_preEnd__annotateEv
libOpenCOLLADASaxFrameworkLoader.so:_ZN15COLLADASaxFWL1429ColladaParserAutoGen14Private17_preEnd__channelsEv
libOpenCOLLADASaxFrameworkLoader.so:_ZN15COLLADASaxFWL1429ColladaParserAutoGen14Private17_preEnd__commentsEv
libOpenCOLLADASaxFrameworkLoader.so:_ZN15COLLADASaxFWL1429ColladaParserAutoGen14Private17_preEnd__cylinderEv
libOpenCOLLADASaxFrameworkLoader.so:_ZN15COLLADASaxFWL1429ColladaParserAutoGen14Private17_preEnd__dest_rgbEv
libOpenCOLLADASaxFrameworkLoader.so:_ZN15COLLADASaxFWL1429ColladaParserAutoGen14Private17_preEnd__emissionEv
libOpenCOLLADASaxFrameworkLoader.so:_ZN15COLLADASaxFWL1429ColladaParserAutoGen14Private17_preEnd__equationEv
libOpenCOLLADASaxFrameworkLoader.so:_ZN15COLLADASaxFWL1429ColladaParserAutoGen14Private17_preEnd__fixed1x1Ev
libOpenCOLLADASaxFrameworkLoader.so:_ZN15COLLADASaxFWL1429ColladaParserAutoGen14Private17_preEnd__fixed1x2Ev
libOpenCOLLADASaxFrameworkLoader.so:_ZN15COLLADASaxFWL1429ColladaParserAutoGen14Private17_preEnd__fixed1x3Ev
libOpenCOLLADASaxFrameworkLoader.so:_ZN15COLLADASaxFWL1429ColladaParserAutoGen14Private17_preEnd__fixed1x4Ev
libOpenCOLLADASaxFrameworkLoader.so:_ZN15COLLADASaxFWL1429ColladaParserAutoGen14Private17_preEnd__fixed2x1Ev
libOpenCOLLADASaxFrameworkLoader.so:_ZN15COLLADASaxFWL1429ColladaParserAutoGen14Private17_preEnd__fixed2x2Ev
libOpenCOLLADASaxFrameworkLoader.so:_ZN15COLLADASaxFWL1429ColladaParserAutoGen14Private17_preEnd__fixed2x3Ev
libOpenCOLLADASaxFrameworkLoader.so:_ZN15COLLADASaxFWL1429ColladaParserAutoGen14Private17_preEnd__fixed2x4Ev
libOpenCOLLADASaxFrameworkLoader.so:_ZN15COLLADASaxFWL1429ColladaParserAutoGen14Private17_preEnd__fixed3x1Ev
libOpenCOLLADASaxFrameworkLoader.so:_ZN15COLLADASaxFWL1429ColladaParserAutoGen14Private17_preEnd__fixed3x2Ev
libOpenCOLLADASaxFrameworkLoader.so:_ZN15COLLADASaxFWL1429ColladaParserAutoGen14Private17_preEnd__fixed3x3Ev
libOpenCOLLADASaxFrameworkLoader.so:_ZN15COLLADASaxFWL1429ColladaParserAutoGen14Private17_preEnd__fixed3x4Ev
libOpenCOLLADASaxFrameworkLoader.so:_ZN15COLLADASaxFWL1429ColladaParserAutoGen14Private17_preEnd__fixed4x1Ev
libOpenCOLLADASaxFrameworkLoader.so:_ZN15COLLADASaxFWL1429ColladaParserAutoGen14Private17_preEnd__fixed4x2Ev
libOpenCOLLADASaxFrameworkLoader.so:_ZN15COLLADASaxFWL1429ColladaParserAutoGen14Private17_preEnd__fixed4x3Ev
libOpenCOLLADASaxFrameworkLoader.so:_ZN15COLLADASaxFWL1429ColladaParserAutoGen14Private17_preEnd__fixed4x4Ev
libOpenCOLLADASaxFrameworkLoader.so:_ZN15COLLADASaxFWL1429ColladaParserAutoGen14Private17_preEnd__geometryEv
libOpenCOLLADASaxFrameworkLoader.so:_ZN15COLLADASaxFWL1429ColladaParserAutoGen14Private17_preEnd__keywordsEv
libOpenCOLLADASaxFrameworkLoader.so:_ZN15COLLADASaxFWL1429ColladaParserAutoGen14Private17_preEnd__materialEv
libOpenCOLLADASaxFrameworkLoader.so:_ZN15COLLADASaxFWL1429ColladaParserAutoGen14Private17_preEnd__modifiedEv
libOpenCOLLADASaxFrameworkLoader.so:_ZN15COLLADASaxFWL1429ColladaParserAutoGen14Private17_preEnd__modifierEv
libOpenCOLLADASaxFrameworkLoader.so:_ZN15COLLADASaxFWL1429ColladaParserAutoGen14Private17_preEnd__polygonsEv
libOpenCOLLADASaxFrameworkLoader.so:_ZN15COLLADASaxFWL1429ColladaParserAutoGen14Private17_preEnd__polylistEv
libOpenCOLLADASaxFrameworkLoader.so:_ZN15COLLADASaxFWL1429ColladaParserAutoGen14Private17_preEnd__revisionEv
libOpenCOLLADASaxFrameworkLoader.so:_ZN15COLLADASaxFWL1429ColladaParserAutoGen14Private17_preEnd__semanticEv
libOpenCOLLADASaxFrameworkLoader.so:_ZN15COLLADASaxFWL1429ColladaParserAutoGen14Private17_preEnd__skeletonEv
libOpenCOLLADASaxFrameworkLoader.so:_ZN15COLLADASaxFWL1429ColladaParserAutoGen14Private17_preEnd__specularEv
libOpenCOLLADASaxFrameworkLoader.so:_ZN15COLLADASaxFWL1429ColladaParserAutoGen14Private17_preEnd__texcoordEv
libOpenCOLLADASaxFrameworkLoader.so:_ZN15COLLADASaxFWL1429ColladaParserAutoGen14Private17_preEnd__usertypeEv
libOpenCOLLADASaxFrameworkLoader.so:_ZN15COLLADASaxFWL1429ColladaParserAutoGen14Private17_preEnd__velocityEv
libOpenCOLLADASaxFrameworkLoader.so:_ZN15COLLADASaxFWL1429ColladaParserAutoGen14Private17_preEnd__verticesEv
libOpenCOLLADASaxFrameworkLoader.so:_ZN15COLLADASaxFWL1429ColladaParserAutoGen14Private18_data__IDREF_arrayEPKcm
libOpenCOLLADASaxFrameworkLoader.so:_ZN15COLLADASaxFWL1429ColladaParserAutoGen14Private18_data__blend_colorEPKcm
libOpenCOLLADASaxFrameworkLoader.so:_ZN15COLLADASaxFWL1429ColladaParserAutoGen14Private18_data__contributorEPKcm
libOpenCOLLADASaxFrameworkLoader.so:_ZN15COLLADASaxFWL1429ColladaParserAutoGen14Private18_data__convex_meshEPKcm
libOpenCOLLADASaxFrameworkLoader.so:_ZN15COLLADASaxFWL1429ColladaParserAutoGen14Private18_data__directionalEPKcm
libOpenCOLLADASaxFrameworkLoader.so:_ZN15COLLADASaxFWL1429ColladaParserAutoGen14Private18_data__float_arrayEPKcm
libOpenCOLLADASaxFrameworkLoader.so:_ZN15COLLADASaxFWL1429ColladaParserAutoGen14Private18_data__force_fieldEPKcm
libOpenCOLLADASaxFrameworkLoader.so:_ZN15COLLADASaxFWL1429ColladaParserAutoGen14Private18_data__format_hintEPKcm
libOpenCOLLADASaxFrameworkLoader.so:_ZN15COLLADASaxFWL1429ColladaParserAutoGen14Private18_data__init_planarEPKcm
libOpenCOLLADASaxFrameworkLoader.so:_ZN15COLLADASaxFWL1429ColladaParserAutoGen14Private18_data__init_volumeEPKcm
libOpenCOLLADASaxFrameworkLoader.so:_ZN15COLLADASaxFWL1429ColladaParserAutoGen14Private18_data__mipmap_biasEPKcm
libOpenCOLLADASaxFrameworkLoader.so:_ZN15COLLADASaxFWL1429ColladaParserAutoGen14Private18_data__perspectiveEPKcm
libOpenCOLLADASaxFrameworkLoader.so:_ZN15COLLADASaxFWL1429ColladaParserAutoGen14Private18_data__restitutionEPKcm
libOpenCOLLADASaxFrameworkLoader.so:_ZN15COLLADASaxFWL1429ColladaParserAutoGen14Private18_data__source_dataEPKcm
libOpenCOLLADASaxFrameworkLoader.so:_ZN15COLLADASaxFWL1429ColladaParserAutoGen14Private18_data__texcombinerEPKcm
libOpenCOLLADASaxFrameworkLoader.so:_ZN15COLLADASaxFWL1429ColladaParserAutoGen14Private18_data__textureCUBEEPKcm
libOpenCOLLADASaxFrameworkLoader.so:_ZN15COLLADASaxFWL1429ColladaParserAutoGen14Private18_data__textureRECTEPKcm
libOpenCOLLADASaxFrameworkLoader.so:_ZN15COLLADASaxFWL1429ColladaParserAutoGen14Private18_data__transparentEPKcm
libOpenCOLLADASaxFrameworkLoader.so:_ZN15COLLADASaxFWL1429ColladaParserAutoGen14Private18_freeAttributes__hEPv
libOpenCOLLADASaxFrameworkLoader.so:_ZN15COLLADASaxFWL1429ColladaParserAutoGen14Private18_freeAttributes__pEPv
libOpenCOLLADASaxFrameworkLoader.so:_ZN15COLLADASaxFWL1429ColladaParserAutoGen14Private18_freeAttributes__vEPv
libOpenCOLLADASaxFrameworkLoader.so:_ZN15COLLADASaxFWL1429ColladaParserAutoGen14Private18_preBegin__COLLADAERKN18GeneratedSaxParser16ParserAttributesEPPvS6_
libOpenCOLLADASaxFrameworkLoader.so:_ZN15COLLADASaxFWL1429ColladaParserAutoGen14Private18_preBegin__angularERKN18GeneratedSaxParser16ParserAttributesEPPvS6_
libOpenCOLLADASaxFrameworkLoader.so:_ZN15COLLADASaxFWL1429ColladaParserAutoGen14Private18_preBegin__bool1x1ERKN18GeneratedSaxParser16ParserAttributesEPPvS6_
libOpenCOLLADASaxFrameworkLoader.so:_ZN15COLLADASaxFWL1429ColladaParserAutoGen14Private18_preBegin__bool1x2ERKN18GeneratedSaxParser16ParserAttributesEPPvS6_
libOpenCOLLADASaxFrameworkLoader.so:_ZN15COLLADASaxFWL1429ColladaParserAutoGen14Private18_preBegin__bool1x3ERKN18GeneratedSaxParser16ParserAttributesEPPvS6_
libOpenCOLLADASaxFrameworkLoader.so:_ZN15COLLADASaxFWL1429ColladaParserAutoGen14Private18_preBegin__bool1x4ERKN18GeneratedSaxParser16ParserAttributesEPPvS6_
libOpenCOLLADASaxFrameworkLoader.so:_ZN15COLLADASaxFWL1429ColladaParserAutoGen14Private18_preBegin__bool2x1ERKN18GeneratedSaxParser16ParserAttributesEPPvS6_
libOpenCOLLADASaxFrameworkLoader.so:_ZN15COLLADASaxFWL1429ColladaParserAutoGen14Private18_preBegin__bool2x2ERKN18GeneratedSaxParser16ParserAttributesEPPvS6_
libOpenCOLLADASaxFrameworkLoader.so:_ZN15COLLADASaxFWL1429ColladaParserAutoGen14Private18_preBegin__bool2x3ERKN18GeneratedSaxParser16ParserAttributesEPPvS6_
libOpenCOLLADASaxFrameworkLoader.so:_ZN15COLLADASaxFWL1429ColladaParserAutoGen14Private18_preBegin__bool2x4ERKN18GeneratedSaxParser16ParserAttributesEPPvS6_
libOpenCOLLADASaxFrameworkLoader.so:_ZN15COLLADASaxFWL1429ColladaParserAutoGen14Private18_preBegin__bool3x1ERKN18GeneratedSaxParser16ParserAttributesEPPvS6_
libOpenCOLLADASaxFrameworkLoader.so:_ZN15COLLADASaxFWL1429ColladaParserAutoGen14Private18_preBegin__bool3x2ERKN18GeneratedSaxParser16ParserAttributesEPPvS6_
libOpenCOLLADASaxFrameworkLoader.so:_ZN15COLLADASaxFWL1429ColladaParserAutoGen14Private18_preBegin__bool3x3ERKN18GeneratedSaxParser16ParserAttributesEPPvS6_
libOpenCOLLADASaxFrameworkLoader.so:_ZN15COLLADASaxFWL1429ColladaParserAutoGen14Private18_preBegin__bool3x4ERKN18GeneratedSaxParser16ParserAttributesEPPvS6_
libOpenCOLLADASaxFrameworkLoader.so:_ZN15COLLADASaxFWL1429ColladaParserAutoGen14Private18_preBegin__bool4x1ERKN18GeneratedSaxParser16ParserAttributesEPPvS6_
libOpenCOLLADASaxFrameworkLoader.so:_ZN15COLLADASaxFWL1429ColladaParserAutoGen14Private18_preBegin__bool4x2ERKN18GeneratedSaxParser16ParserAttributesEPPvS6_
libOpenCOLLADASaxFrameworkLoader.so:_ZN15COLLADASaxFWL1429ColladaParserAutoGen14Private18_preBegin__bool4x3ERKN18GeneratedSaxParser16ParserAttributesEPPvS6_
libOpenCOLLADASaxFrameworkLoader.so:_ZN15COLLADASaxFWL1429ColladaParserAutoGen14Private18_preBegin__bool4x4ERKN18GeneratedSaxParser16ParserAttributesEPPvS6_
libOpenCOLLADASaxFrameworkLoader.so:_ZN15COLLADASaxFWL1429ColladaParserAutoGen14Private18_preBegin__capsuleERKN18GeneratedSaxParser16ParserAttributesEPPvS6_
libOpenCOLLADASaxFrameworkLoader.so:_ZN15COLLADASaxFWL1429ColladaParserAutoGen14Private18_preBegin__channelERKN18GeneratedSaxParser16ParserAttributesEPPvS6_
libOpenCOLLADASaxFrameworkLoader.so:_ZN15COLLADASaxFWL1429ColladaParserAutoGen14Private18_preBegin__createdERKN18GeneratedSaxParser16ParserAttributesEPPvS6_
libOpenCOLLADASaxFrameworkLoader.so:_ZN15COLLADASaxFWL1429ColladaParserAutoGen14Private18_preBegin__dampingERKN18GeneratedSaxParser16ParserAttributesEPPvS6_
libOpenCOLLADASaxFrameworkLoader.so:_ZN15COLLADASaxFWL1429ColladaParserAutoGen14Private18_preBegin__densityERKN18GeneratedSaxParser16ParserAttributesEPPvS6_
libOpenCOLLADASaxFrameworkLoader.so:_ZN15COLLADASaxFWL1429ColladaParserAutoGen14Private18_preBegin__diffuseERKN18GeneratedSaxParser16ParserAttributesEPPvS6_
libOpenCOLLADASaxFrameworkLoader.so:_ZN15COLLADASaxFWL1429ColladaParserAutoGen14Private18_preBegin__enabledERKN18GeneratedSaxParser16ParserAttributesEPPvS6_
libOpenCOLLADASaxFrameworkLoader.so:_ZN15COLLADASaxFWL1429ColladaParserAutoGen14Private18_preBegin__gravityERKN18GeneratedSaxParser16ParserAttributesEPPvS6_
libOpenCOLLADASaxFrameworkLoader.so:_ZN15COLLADASaxFWL1429ColladaParserAutoGen14Private18_preBegin__half1x1ERKN18GeneratedSaxParser16ParserAttributesEPPvS6_
libOpenCOLLADASaxFrameworkLoader.so:_ZN15COLLADASaxFWL1429ColladaParserAutoGen14Private18_preBegin__half1x2ERKN18GeneratedSaxParser16ParserAttributesEPPvS6_
libOpenCOLLADASaxFrameworkLoader.so:_ZN15COLLADASaxFWL1429ColladaParserAutoGen14Private18_preBegin__half1x3ERKN18GeneratedSaxParser16ParserAttributesEPPvS6_
libOpenCOLLADASaxFrameworkLoader.so:_ZN15COLLADASaxFWL1429ColladaParserAutoGen14Private18_preBegin__half1x4ERKN18GeneratedSaxParser16ParserAttributesEPPvS6_
libOpenCOLLADASaxFrameworkLoader.so:_ZN15COLLADASaxFWL1429ColladaParserAutoGen14Private18_preBegin__half2x1ERKN18GeneratedSaxParser16ParserAttributesEPPvS6_
libOpenCOLLADASaxFrameworkLoader.so:_ZN15COLLADASaxFWL1429ColladaParserAutoGen14Private18_preBegin__half2x2ERKN18GeneratedSaxParser16ParserAttributesEPPvS6_
libOpenCOLLADASaxFrameworkLoader.so:_ZN15COLLADASaxFWL1429ColladaParserAutoGen14Private18_preBegin__half2x3ERKN18GeneratedSaxParser16ParserAttributesEPPvS6_
libOpenCOLLADASaxFrameworkLoader.so:_ZN15COLLADASaxFWL1429ColladaParserAutoGen14Private18_preBegin__half2x4ERKN18GeneratedSaxParser16ParserAttributesEPPvS6_
libOpenCOLLADASaxFrameworkLoader.so:_ZN15COLLADASaxFWL1429ColladaParserAutoGen14Private18_preBegin__half3x1ERKN18GeneratedSaxParser16ParserAttributesEPPvS6_
libOpenCOLLADASaxFrameworkLoader.so:_ZN15COLLADASaxFWL1429ColladaParserAutoGen14Private18_preBegin__half3x2ERKN18GeneratedSaxParser16ParserAttributesEPPvS6_
libOpenCOLLADASaxFrameworkLoader.so:_ZN15COLLADASaxFWL1429ColladaParserAutoGen14Private18_preBegin__half3x3ERKN18GeneratedSaxParser16ParserAttributesEPPvS6_
libOpenCOLLADASaxFrameworkLoader.so:_ZN15COLLADASaxFWL1429ColladaParserAutoGen14Private18_preBegin__half3x4ERKN18GeneratedSaxParser16ParserAttributesEPPvS6_
libOpenCOLLADASaxFrameworkLoader.so:_ZN15COLLADASaxFWL1429ColladaParserAutoGen14Private18_preBegin__half4x1ERKN18GeneratedSaxParser16ParserAttributesEPPvS6_
libOpenCOLLADASaxFrameworkLoader.so:_ZN15COLLADASaxFWL1429ColladaParserAutoGen14Private18_preBegin__half4x2ERKN18GeneratedSaxParser16ParserAttributesEPPvS6_
libOpenCOLLADASaxFrameworkLoader.so:_ZN15COLLADASaxFWL1429ColladaParserAutoGen14Private18_preBegin__half4x3ERKN18GeneratedSaxParser16ParserAttributesEPPvS6_
libOpenCOLLADASaxFrameworkLoader.so:_ZN15COLLADASaxFWL1429ColladaParserAutoGen14Private18_preBegin__half4x4ERKN18GeneratedSaxParser16ParserAttributesEPPvS6_
libOpenCOLLADASaxFrameworkLoader.so:_ZN15COLLADASaxFWL1429ColladaParserAutoGen14Private18_preBegin__includeERKN18GeneratedSaxParser16ParserAttributesEPPvS6_
libOpenCOLLADASaxFrameworkLoader.so:_ZN15COLLADASaxFWL1429ColladaParserAutoGen14Private18_preBegin__inertiaERKN18GeneratedSaxParser16ParserAttributesEPPvS6_
libOpenCOLLADASaxFrameworkLoader.so:_ZN15COLLADASaxFWL1429ColladaParserAutoGen14Private18_preBegin__lambertERKN18GeneratedSaxParser16ParserAttributesEPPvS6_
libOpenCOLLADASaxFrameworkLoader.so:_ZN15COLLADASaxFWL1429ColladaParserAutoGen14Private18_preBegin__radius1ERKN18GeneratedSaxParser16ParserAttributesEPPvS6_
libOpenCOLLADASaxFrameworkLoader.so:_ZN15COLLADASaxFWL1429ColladaParserAutoGen14Private18_preBegin__radius2ERKN18GeneratedSaxParser16ParserAttributesEPPvS6_
libOpenCOLLADASaxFrameworkLoader.so:_ZN15COLLADASaxFWL1429ColladaParserAutoGen14Private18_preBegin__samplerERKN18GeneratedSaxParser16ParserAttributesEPPvS6_
libOpenCOLLADASaxFrameworkLoader.so:_ZN15COLLADASaxFWL1429ColladaParserAutoGen14Private18_preBegin__src_rgbERKN18GeneratedSaxParser16ParserAttributesEPPvS6_
libOpenCOLLADASaxFrameworkLoader.so:_ZN15COLLADASaxFWL1429ColladaParserAutoGen14Private18_preBegin__subjectERKN18GeneratedSaxParser16ParserAttributesEPPvS6_
libOpenCOLLADASaxFrameworkLoader.so:_ZN15COLLADASaxFWL1429ColladaParserAutoGen14Private18_preBegin__targetsERKN18GeneratedSaxParser16ParserAttributesEPPvS6_
libOpenCOLLADASaxFrameworkLoader.so:_ZN15COLLADASaxFWL1429ColladaParserAutoGen14Private18_preBegin__textureERKN18GeneratedSaxParser16ParserAttributesEPPvS6_
libOpenCOLLADASaxFrameworkLoader.so:_ZN15COLLADASaxFWL1429ColladaParserAutoGen14Private18_preBegin__trifansERKN18GeneratedSaxParser16ParserAttributesEPPvS6_
libOpenCOLLADASaxFrameworkLoader.so:_ZN15COLLADASaxFWL1429ColladaParserAutoGen14Private18_preBegin__up_axisERKN18GeneratedSaxParser16ParserAttributesEPPvS6_
libOpenCOLLADASaxFrameworkLoader.so:_ZN15COLLADASaxFWL1429ColladaParserAutoGen14Private18_preEnd__animationEv
libOpenCOLLADASaxFrameworkLoader.so:_ZN15COLLADASaxFWL1429ColladaParserAutoGen14Private18_preEnd__copyrightEv
libOpenCOLLADASaxFrameworkLoader.so:_ZN15COLLADASaxFWL1429ColladaParserAutoGen14Private18_preEnd__init_cubeEv
libOpenCOLLADASaxFrameworkLoader.so:_ZN15COLLADASaxFWL1429ColladaParserAutoGen14Private18_preEnd__int_arrayEv
libOpenCOLLADASaxFrameworkLoader.so:_ZN15COLLADASaxFWL1429ColladaParserAutoGen14Private18_preEnd__magfilterEv
libOpenCOLLADASaxFrameworkLoader.so:_ZN15COLLADASaxFWL1429ColladaParserAutoGen14Private18_preEnd__minfilterEv
libOpenCOLLADASaxFrameworkLoader.so:_ZN15COLLADASaxFWL1429ColladaParserAutoGen14Private18_preEnd__mipfilterEv
libOpenCOLLADASaxFrameworkLoader.so:_ZN15COLLADASaxFWL1429ColladaParserAutoGen14Private18_preEnd__precisionEv
libOpenCOLLADASaxFrameworkLoader.so:_ZN15COLLADASaxFWL1429ColladaParserAutoGen14Private18_preEnd__shininessEv
libOpenCOLLADASaxFrameworkLoader.so:_ZN15COLLADASaxFWL1429ColladaParserAutoGen14Private18_preEnd__src_alphaEv
libOpenCOLLADASaxFrameworkLoader.so:_ZN15COLLADASaxFWL1429ColladaParserAutoGen14Private18_preEnd__stiffnessEv
libOpenCOLLADASaxFrameworkLoader.so:_ZN15COLLADASaxFWL1429ColladaParserAutoGen14Private18_preEnd__techniqueEv
libOpenCOLLADASaxFrameworkLoader.so:_ZN15COLLADASaxFWL1429ColladaParserAutoGen14Private18_preEnd__texture1DEv
libOpenCOLLADASaxFrameworkLoader.so:_ZN15COLLADASaxFWL1429ColladaParserAutoGen14Private18_preEnd__texture2DEv
libOpenCOLLADASaxFrameworkLoader.so:_ZN15COLLADASaxFWL1429ColladaParserAutoGen14Private18_preEnd__texture3DEv
libOpenCOLLADASaxFrameworkLoader.so:_ZN15COLLADASaxFWL1429ColladaParserAutoGen14Private18_preEnd__time_stepEv
libOpenCOLLADASaxFrameworkLoader.so:_ZN15COLLADASaxFWL1429ColladaParserAutoGen14Private18_preEnd__translateEv
libOpenCOLLADASaxFrameworkLoader.so:_ZN15COLLADASaxFWL1429ColladaParserAutoGen14Private18_preEnd__trianglesEv
libOpenCOLLADASaxFrameworkLoader.so:_ZN15COLLADASaxFWL1429ColladaParserAutoGen14Private18_preEnd__tristripsEv
libOpenCOLLADASaxFrameworkLoader.so:_ZN15COLLADASaxFWL1429ColladaParserAutoGen14Private19_data__aspect_ratioEPKcm
libOpenCOLLADASaxFrameworkLoader.so:_ZN15COLLADASaxFWL1429ColladaParserAutoGen14Private19_data__bool____boolEPKcm
libOpenCOLLADASaxFrameworkLoader.so:_ZN15COLLADASaxFWL1429ColladaParserAutoGen14Private19_data__border_colorEPKcm
libOpenCOLLADASaxFrameworkLoader.so:_ZN15COLLADASaxFWL1429ColladaParserAutoGen14Private19_data__depth_boundsEPKcm
libOpenCOLLADASaxFrameworkLoader.so:_ZN15COLLADASaxFWL1429ColladaParserAutoGen14Private19_data__half_extentsEPKcm
libOpenCOLLADASaxFrameworkLoader.so:_ZN15COLLADASaxFWL1429ColladaParserAutoGen14Private19_data__init_as_nullEPKcm
libOpenCOLLADASaxFrameworkLoader.so:_ZN15COLLADASaxFWL1429ColladaParserAutoGen14Private19_data__int2____int2EPKcm
libOpenCOLLADASaxFrameworkLoader.so:_ZN15COLLADASaxFWL1429ColladaParserAutoGen14Private19_data__int3____int3EPKcm
libOpenCOLLADASaxFrameworkLoader.so:_ZN15COLLADASaxFWL1429ColladaParserAutoGen14Private19_data__int4____int4EPKcm
libOpenCOLLADASaxFrameworkLoader.so:_ZN15COLLADASaxFWL1429ColladaParserAutoGen14Private19_data__line_stippleEPKcm
libOpenCOLLADASaxFrameworkLoader.so:_ZN15COLLADASaxFWL1429ColladaParserAutoGen14Private19_data__orthographicEPKcm
libOpenCOLLADASaxFrameworkLoader.so:_ZN15COLLADASaxFWL1429ColladaParserAutoGen14Private19_data__polygon_modeEPKcm
libOpenCOLLADASaxFrameworkLoader.so:_ZN15COLLADASaxFWL1429ColladaParserAutoGen14Private19_data__profile_GLESEPKcm
libOpenCOLLADASaxFrameworkLoader.so:_ZN15COLLADASaxFWL1429ColladaParserAutoGen14Private19_data__profile_GLSLEPKcm
libOpenCOLLADASaxFrameworkLoader.so:_ZN15COLLADASaxFWL1429ColladaParserAutoGen14Private19_data__reflectivityEPKcm
libOpenCOLLADASaxFrameworkLoader.so:_ZN15COLLADASaxFWL1429ColladaParserAutoGen14Private19_data__size____int3EPKcm
libOpenCOLLADASaxFrameworkLoader.so:_ZN15COLLADASaxFWL1429ColladaParserAutoGen14Private19_data__target_valueEPKcm
libOpenCOLLADASaxFrameworkLoader.so:_ZN15COLLADASaxFWL1429ColladaParserAutoGen14Private19_data__textureDEPTHEPKcm
libOpenCOLLADASaxFrameworkLoader.so:_ZN15COLLADASaxFWL1429ColladaParserAutoGen14Private19_data__texture_unitEPKcm
libOpenCOLLADASaxFrameworkLoader.so:_ZN15COLLADASaxFWL1429ColladaParserAutoGen14Private19_data__transparencyEPKcm
libOpenCOLLADASaxFrameworkLoader.so:_ZN15COLLADASaxFWL1429ColladaParserAutoGen14Private19_data__visual_sceneEPKcm
libOpenCOLLADASaxFrameworkLoader.so:_ZN15COLLADASaxFWL1429ColladaParserAutoGen14Private19_freeAttributes__phEPv
libOpenCOLLADASaxFrameworkLoader.so:_ZN15COLLADASaxFWL1429ColladaParserAutoGen14Private19_preBegin__accessorERKN18GeneratedSaxParser16ParserAttributesEPPvS6_
libOpenCOLLADASaxFrameworkLoader.so:_ZN15COLLADASaxFWL1429ColladaParserAutoGen14Private19_preBegin__annotateERKN18GeneratedSaxParser16ParserAttributesEPPvS6_
libOpenCOLLADASaxFrameworkLoader.so:_ZN15COLLADASaxFWL1429ColladaParserAutoGen14Private19_preBegin__channelsERKN18GeneratedSaxParser16ParserAttributesEPPvS6_
libOpenCOLLADASaxFrameworkLoader.so:_ZN15COLLADASaxFWL1429ColladaParserAutoGen14Private19_preBegin__commentsERKN18GeneratedSaxParser16ParserAttributesEPPvS6_
libOpenCOLLADASaxFrameworkLoader.so:_ZN15COLLADASaxFWL1429ColladaParserAutoGen14Private19_preBegin__cylinderERKN18GeneratedSaxParser16ParserAttributesEPPvS6_
libOpenCOLLADASaxFrameworkLoader.so:_ZN15COLLADASaxFWL1429ColladaParserAutoGen14Private19_preBegin__dest_rgbERKN18GeneratedSaxParser16ParserAttributesEPPvS6_
libOpenCOLLADASaxFrameworkLoader.so:_ZN15COLLADASaxFWL1429ColladaParserAutoGen14Private19_preBegin__emissionERKN18GeneratedSaxParser16ParserAttributesEPPvS6_
libOpenCOLLADASaxFrameworkLoader.so:_ZN15COLLADASaxFWL1429ColladaParserAutoGen14Private19_preBegin__equationERKN18GeneratedSaxParser16ParserAttributesEPPvS6_
libOpenCOLLADASaxFrameworkLoader.so:_ZN15COLLADASaxFWL1429ColladaParserAutoGen14Private19_preBegin__fixed1x1ERKN18GeneratedSaxParser16ParserAttributesEPPvS6_
libOpenCOLLADASaxFrameworkLoader.so:_ZN15COLLADASaxFWL1429ColladaParserAutoGen14Private19_preBegin__fixed1x2ERKN18GeneratedSaxParser16ParserAttributesEPPvS6_
libOpenCOLLADASaxFrameworkLoader.so:_ZN15COLLADASaxFWL1429ColladaParserAutoGen14Private19_preBegin__fixed1x3ERKN18GeneratedSaxParser16ParserAttributesEPPvS6_
libOpenCOLLADASaxFrameworkLoader.so:_ZN15COLLADASaxFWL1429ColladaParserAutoGen14Private19_preBegin__fixed1x4ERKN18GeneratedSaxParser16ParserAttributesEPPvS6_
libOpenCOLLADASaxFrameworkLoader.so:_ZN15COLLADASaxFWL1429ColladaParserAutoGen14Private19_preBegin__fixed2x1ERKN18GeneratedSaxParser16ParserAttributesEPPvS6_
libOpenCOLLADASaxFrameworkLoader.so:_ZN15COLLADASaxFWL1429ColladaParserAutoGen14Private19_preBegin__fixed2x2ERKN18GeneratedSaxParser16ParserAttributesEPPvS6_
libOpenCOLLADASaxFrameworkLoader.so:_ZN15COLLADASaxFWL1429ColladaParserAutoGen14Private19_preBegin__fixed2x3ERKN18GeneratedSaxParser16ParserAttributesEPPvS6_
libOpenCOLLADASaxFrameworkLoader.so:_ZN15COLLADASaxFWL1429ColladaParserAutoGen14Private19_preBegin__fixed2x4ERKN18GeneratedSaxParser16ParserAttributesEPPvS6_
libOpenCOLLADASaxFrameworkLoader.so:_ZN15COLLADASaxFWL1429ColladaParserAutoGen14Private19_preBegin__fixed3x1ERKN18GeneratedSaxParser16ParserAttributesEPPvS6_
libOpenCOLLADASaxFrameworkLoader.so:_ZN15COLLADASaxFWL1429ColladaParserAutoGen14Private19_preBegin__fixed3x2ERKN18GeneratedSaxParser16ParserAttributesEPPvS6_
libOpenCOLLADASaxFrameworkLoader.so:_ZN15COLLADASaxFWL1429ColladaParserAutoGen14Private19_preBegin__fixed3x3ERKN18GeneratedSaxParser16ParserAttributesEPPvS6_
libOpenCOLLADASaxFrameworkLoader.so:_ZN15COLLADASaxFWL1429ColladaParserAutoGen14Private19_preBegin__fixed3x4ERKN18GeneratedSaxParser16ParserAttributesEPPvS6_
libOpenCOLLADASaxFrameworkLoader.so:_ZN15COLLADASaxFWL1429ColladaParserAutoGen14Private19_preBegin__fixed4x1ERKN18GeneratedSaxParser16ParserAttributesEPPvS6_
libOpenCOLLADASaxFrameworkLoader.so:_ZN15COLLADASaxFWL1429ColladaParserAutoGen14Private19_preBegin__fixed4x2ERKN18GeneratedSaxParser16ParserAttributesEPPvS6_
libOpenCOLLADASaxFrameworkLoader.so:_ZN15COLLADASaxFWL1429ColladaParserAutoGen14Private19_preBegin__fixed4x3ERKN18GeneratedSaxParser16ParserAttributesEPPvS6_
libOpenCOLLADASaxFrameworkLoader.so:_ZN15COLLADASaxFWL1429ColladaParserAutoGen14Private19_preBegin__fixed4x4ERKN18GeneratedSaxParser16ParserAttributesEPPvS6_
libOpenCOLLADASaxFrameworkLoader.so:_ZN15COLLADASaxFWL1429ColladaParserAutoGen14Private19_preBegin__geometryERKN18GeneratedSaxParser16ParserAttributesEPPvS6_
libOpenCOLLADASaxFrameworkLoader.so:_ZN15COLLADASaxFWL1429ColladaParserAutoGen14Private19_preBegin__keywordsERKN18GeneratedSaxParser16ParserAttributesEPPvS6_
libOpenCOLLADASaxFrameworkLoader.so:_ZN15COLLADASaxFWL1429ColladaParserAutoGen14Private19_preBegin__materialERKN18GeneratedSaxParser16ParserAttributesEPPvS6_
libOpenCOLLADASaxFrameworkLoader.so:_ZN15COLLADASaxFWL1429ColladaParserAutoGen14Private19_preBegin__modifiedERKN18GeneratedSaxParser16ParserAttributesEPPvS6_
libOpenCOLLADASaxFrameworkLoader.so:_ZN15COLLADASaxFWL1429ColladaParserAutoGen14Private19_preBegin__modifierERKN18GeneratedSaxParser16ParserAttributesEPPvS6_
libOpenCOLLADASaxFrameworkLoader.so:_ZN15COLLADASaxFWL1429ColladaParserAutoGen14Private19_preBegin__polygonsERKN18GeneratedSaxParser16ParserAttributesEPPvS6_
libOpenCOLLADASaxFrameworkLoader.so:_ZN15COLLADASaxFWL1429ColladaParserAutoGen14Private19_preBegin__polylistERKN18GeneratedSaxParser16ParserAttributesEPPvS6_
libOpenCOLLADASaxFrameworkLoader.so:_ZN15COLLADASaxFWL1429ColladaParserAutoGen14Private19_preBegin__revisionERKN18GeneratedSaxParser16ParserAttributesEPPvS6_
libOpenCOLLADASaxFrameworkLoader.so:_ZN15COLLADASaxFWL1429ColladaParserAutoGen14Private19_preBegin__semanticERKN18GeneratedSaxParser16ParserAttributesEPPvS6_
libOpenCOLLADASaxFrameworkLoader.so:_ZN15COLLADASaxFWL1429ColladaParserAutoGen14Private19_preBegin__skeletonERKN18GeneratedSaxParser16ParserAttributesEPPvS6_
libOpenCOLLADASaxFrameworkLoader.so:_ZN15COLLADASaxFWL1429ColladaParserAutoGen14Private19_preBegin__specularERKN18GeneratedSaxParser16ParserAttributesEPPvS6_
libOpenCOLLADASaxFrameworkLoader.so:_ZN15COLLADASaxFWL1429ColladaParserAutoGen14Private19_preBegin__texcoordERKN18GeneratedSaxParser16ParserAttributesEPPvS6_
libOpenCOLLADASaxFrameworkLoader.so:_ZN15COLLADASaxFWL1429ColladaParserAutoGen14Private19_preBegin__usertypeERKN18GeneratedSaxParser16ParserAttributesEPPvS6_
libOpenCOLLADASaxFrameworkLoader.so:_ZN15COLLADASaxFWL1429ColladaParserAutoGen14Private19_preBegin__velocityERKN18GeneratedSaxParser16ParserAttributesEPPvS6_
libOpenCOLLADASaxFrameworkLoader.so:_ZN15COLLADASaxFWL1429ColladaParserAutoGen14Private19_preBegin__verticesERKN18GeneratedSaxParser16ParserAttributesEPPvS6_
libOpenCOLLADASaxFrameworkLoader.so:_ZN15COLLADASaxFWL1429ColladaParserAutoGen14Private19_preEnd__Name_arrayEv
libOpenCOLLADASaxFrameworkLoader.so:_ZN15COLLADASaxFWL1429ColladaParserAutoGen14Private19_preEnd__attachmentEv
libOpenCOLLADASaxFrameworkLoader.so:_ZN15COLLADASaxFWL1429ColladaParserAutoGen14Private19_preEnd__bool_arrayEv
libOpenCOLLADASaxFrameworkLoader.so:_ZN15COLLADASaxFWL1429ColladaParserAutoGen14Private19_preEnd__controllerEv
libOpenCOLLADASaxFrameworkLoader.so:_ZN15COLLADASaxFWL1429ColladaParserAutoGen14Private19_preEnd__dest_alphaEv
libOpenCOLLADASaxFrameworkLoader.so:_ZN15COLLADASaxFWL1429ColladaParserAutoGen14Private19_preEnd__int____intEv
libOpenCOLLADASaxFrameworkLoader.so:_ZN15COLLADASaxFWL1429ColladaParserAutoGen14Private19_preEnd__linestripsEv
libOpenCOLLADASaxFrameworkLoader.so:_ZN15COLLADASaxFWL1429ColladaParserAutoGen14Private19_preEnd__mip_levelsEv
libOpenCOLLADASaxFrameworkLoader.so:_ZN15COLLADASaxFWL1429ColladaParserAutoGen14Private19_preEnd__profile_CGEv
libOpenCOLLADASaxFrameworkLoader.so:_ZN15COLLADASaxFWL1429ColladaParserAutoGen14Private19_preEnd__reflectiveEv
libOpenCOLLADASaxFrameworkLoader.so:_ZN15COLLADASaxFWL1429ColladaParserAutoGen14Private19_preEnd__rigid_bodyEv
libOpenCOLLADASaxFrameworkLoader.so:_ZN15COLLADASaxFWL1429ColladaParserAutoGen14Private20_data__bind_materialEPKcm
libOpenCOLLADASaxFrameworkLoader.so:_ZN15COLLADASaxFWL1429ColladaParserAutoGen14Private20_data__connect_paramEPKcm
libOpenCOLLADASaxFrameworkLoader.so:_ZN15COLLADASaxFWL1429ColladaParserAutoGen14Private20_data__falloff_angleEPKcm
libOpenCOLLADASaxFrameworkLoader.so:_ZN15COLLADASaxFWL1429ColladaParserAutoGen14Private20_data__fog_coord_srcEPKcm
libOpenCOLLADASaxFrameworkLoader.so:_ZN15COLLADASaxFWL1429ColladaParserAutoGen14Private20_data__instance_nodeEPKcm
libOpenCOLLADASaxFrameworkLoader.so:_ZN15COLLADASaxFWL1429ColladaParserAutoGen14Private20_data__int____cg_intEPKcm
libOpenCOLLADASaxFrameworkLoader.so:_ZN15COLLADASaxFWL1429ColladaParserAutoGen14Private20_data__library_nodesEPKcm
libOpenCOLLADASaxFrameworkLoader.so:_ZN15COLLADASaxFWL1429ColladaParserAutoGen14Private20_data__physics_modelEPKcm
libOpenCOLLADASaxFrameworkLoader.so:_ZN15COLLADASaxFWL1429ColladaParserAutoGen14Private20_data__physics_sceneEPKcm
libOpenCOLLADASaxFrameworkLoader.so:_ZN15COLLADASaxFWL1429ColladaParserAutoGen14Private20_freeAttributes__RGBEPv
libOpenCOLLADASaxFrameworkLoader.so:_ZN15COLLADASaxFWL1429ColladaParserAutoGen14Private20_freeAttributes__boxEPv
libOpenCOLLADASaxFrameworkLoader.so:_ZN15COLLADASaxFWL1429ColladaParserAutoGen14Private20_freeAttributes__maxEPv
libOpenCOLLADASaxFrameworkLoader.so:_ZN15COLLADASaxFWL1429ColladaParserAutoGen14Private20_freeAttributes__minEPv
libOpenCOLLADASaxFrameworkLoader.so:_ZN15COLLADASaxFWL1429ColladaParserAutoGen14Private20_freeAttributes__rgbEPv
libOpenCOLLADASaxFrameworkLoader.so:_ZN15COLLADASaxFWL1429ColladaParserAutoGen14Private20_preBegin__animationERKN18GeneratedSaxParser16ParserAttributesEPPvS6_
libOpenCOLLADASaxFrameworkLoader.so:_ZN15COLLADASaxFWL1429ColladaParserAutoGen14Private20_preBegin__copyrightERKN18GeneratedSaxParser16ParserAttributesEPPvS6_
libOpenCOLLADASaxFrameworkLoader.so:_ZN15COLLADASaxFWL1429ColladaParserAutoGen14Private20_preBegin__init_cubeERKN18GeneratedSaxParser16ParserAttributesEPPvS6_
libOpenCOLLADASaxFrameworkLoader.so:_ZN15COLLADASaxFWL1429ColladaParserAutoGen14Private20_preBegin__int_arrayERKN18GeneratedSaxParser16ParserAttributesEPPvS6_
libOpenCOLLADASaxFrameworkLoader.so:_ZN15COLLADASaxFWL1429ColladaParserAutoGen14Private20_preBegin__magfilterERKN18GeneratedSaxParser16ParserAttributesEPPvS6_
libOpenCOLLADASaxFrameworkLoader.so:_ZN15COLLADASaxFWL1429ColladaParserAutoGen14Private20_preBegin__minfilterERKN18GeneratedSaxParser16ParserAttributesEPPvS6_
libOpenCOLLADASaxFrameworkLoader.so:_ZN15COLLADASaxFWL1429ColladaParserAutoGen14Private20_preBegin__mipfilterERKN18GeneratedSaxParser16ParserAttributesEPPvS6_
libOpenCOLLADASaxFrameworkLoader.so:_ZN15COLLADASaxFWL1429ColladaParserAutoGen14Private20_preBegin__precisionERKN18GeneratedSaxParser16ParserAttributesEPPvS6_
libOpenCOLLADASaxFrameworkLoader.so:_ZN15COLLADASaxFWL1429ColladaParserAutoGen14Private20_preBegin__shininessERKN18GeneratedSaxParser16ParserAttributesEPPvS6_
libOpenCOLLADASaxFrameworkLoader.so:_ZN15COLLADASaxFWL1429ColladaParserAutoGen14Private20_preBegin__src_alphaERKN18GeneratedSaxParser16ParserAttributesEPPvS6_
libOpenCOLLADASaxFrameworkLoader.so:_ZN15COLLADASaxFWL1429ColladaParserAutoGen14Private20_preBegin__stiffnessERKN18GeneratedSaxParser16ParserAttributesEPPvS6_
libOpenCOLLADASaxFrameworkLoader.so:_ZN15COLLADASaxFWL1429ColladaParserAutoGen14Private20_preBegin__techniqueERKN18GeneratedSaxParser16ParserAttributesEPPvS6_
libOpenCOLLADASaxFrameworkLoader.so:_ZN15COLLADASaxFWL1429ColladaParserAutoGen14Private20_preBegin__texture1DERKN18GeneratedSaxParser16ParserAttributesEPPvS6_
libOpenCOLLADASaxFrameworkLoader.so:_ZN15COLLADASaxFWL1429ColladaParserAutoGen14Private20_preBegin__texture2DERKN18GeneratedSaxParser16ParserAttributesEPPvS6_
libOpenCOLLADASaxFrameworkLoader.so:_ZN15COLLADASaxFWL1429ColladaParserAutoGen14Private20_preBegin__texture3DERKN18GeneratedSaxParser16ParserAttributesEPPvS6_
libOpenCOLLADASaxFrameworkLoader.so:_ZN15COLLADASaxFWL1429ColladaParserAutoGen14Private20_preBegin__time_stepERKN18GeneratedSaxParser16ParserAttributesEPPvS6_
libOpenCOLLADASaxFrameworkLoader.so:_ZN15COLLADASaxFWL1429ColladaParserAutoGen14Private20_preBegin__translateERKN18GeneratedSaxParser16ParserAttributesEPPvS6_
libOpenCOLLADASaxFrameworkLoader.so:_ZN15COLLADASaxFWL1429ColladaParserAutoGen14Private20_preBegin__trianglesERKN18GeneratedSaxParser16ParserAttributesEPPvS6_
libOpenCOLLADASaxFrameworkLoader.so:_ZN15COLLADASaxFWL1429ColladaParserAutoGen14Private20_preBegin__tristripsERKN18GeneratedSaxParser16ParserAttributesEPPvS6_
libOpenCOLLADASaxFrameworkLoader.so:_ZN15COLLADASaxFWL1429ColladaParserAutoGen14Private20_preEnd__IDREF_arrayEv
libOpenCOLLADASaxFrameworkLoader.so:_ZN15COLLADASaxFWL1429ColladaParserAutoGen14Private20_preEnd__blend_colorEv
libOpenCOLLADASaxFrameworkLoader.so:_ZN15COLLADASaxFWL1429ColladaParserAutoGen14Private20_preEnd__contributorEv
libOpenCOLLADASaxFrameworkLoader.so:_ZN15COLLADASaxFWL1429ColladaParserAutoGen14Private20_preEnd__convex_meshEv
libOpenCOLLADASaxFrameworkLoader.so:_ZN15COLLADASaxFWL1429ColladaParserAutoGen14Private20_preEnd__directionalEv
libOpenCOLLADASaxFrameworkLoader.so:_ZN15COLLADASaxFWL1429ColladaParserAutoGen14Private20_preEnd__float_arrayEv
libOpenCOLLADASaxFrameworkLoader.so:_ZN15COLLADASaxFWL1429ColladaParserAutoGen14Private20_preEnd__force_fieldEv
libOpenCOLLADASaxFrameworkLoader.so:_ZN15COLLADASaxFWL1429ColladaParserAutoGen14Private20_preEnd__format_hintEv
libOpenCOLLADASaxFrameworkLoader.so:_ZN15COLLADASaxFWL1429ColladaParserAutoGen14Private20_preEnd__init_planarEv
libOpenCOLLADASaxFrameworkLoader.so:_ZN15COLLADASaxFWL1429ColladaParserAutoGen14Private20_preEnd__init_volumeEv
libOpenCOLLADASaxFrameworkLoader.so:_ZN15COLLADASaxFWL1429ColladaParserAutoGen14Private20_preEnd__mipmap_biasEv
libOpenCOLLADASaxFrameworkLoader.so:_ZN15COLLADASaxFWL1429ColladaParserAutoGen14Private20_preEnd__perspectiveEv
libOpenCOLLADASaxFrameworkLoader.so:_ZN15COLLADASaxFWL1429ColladaParserAutoGen14Private20_preEnd__restitutionEv
libOpenCOLLADASaxFrameworkLoader.so:_ZN15COLLADASaxFWL1429ColladaParserAutoGen14Private20_preEnd__source_dataEv
libOpenCOLLADASaxFrameworkLoader.so:_ZN15COLLADASaxFWL1429ColladaParserAutoGen14Private20_preEnd__texcombinerEv
libOpenCOLLADASaxFrameworkLoader.so:_ZN15COLLADASaxFWL1429ColladaParserAutoGen14Private20_preEnd__textureCUBEEv
libOpenCOLLADASaxFrameworkLoader.so:_ZN15COLLADASaxFWL1429ColladaParserAutoGen14Private20_preEnd__textureRECTEv
libOpenCOLLADASaxFrameworkLoader.so:_ZN15COLLADASaxFWL1429ColladaParserAutoGen14Private20_preEnd__transparentEv
libOpenCOLLADASaxFrameworkLoader.so:_ZN15COLLADASaxFWL1429ColladaParserAutoGen14Private21_data__animation_clipEPKcm
libOpenCOLLADASaxFrameworkLoader.so:_ZN15COLLADASaxFWL1429ColladaParserAutoGen14Private21_data__authoring_toolEPKcm
libOpenCOLLADASaxFrameworkLoader.so:_ZN15COLLADASaxFWL1429ColladaParserAutoGen14Private21_data__blend_equationEPKcm
libOpenCOLLADASaxFrameworkLoader.so:_ZN15COLLADASaxFWL1429ColladaParserAutoGen14Private21_data__bool2____bool2EPKcm
libOpenCOLLADASaxFrameworkLoader.so:_ZN15COLLADASaxFWL1429ColladaParserAutoGen14Private21_data__bool3____bool3EPKcm
libOpenCOLLADASaxFrameworkLoader.so:_ZN15COLLADASaxFWL1429ColladaParserAutoGen14Private21_data__bool4____bool4EPKcm
libOpenCOLLADASaxFrameworkLoader.so:_ZN15COLLADASaxFWL1429ColladaParserAutoGen14Private21_data__color_materialEPKcm
libOpenCOLLADASaxFrameworkLoader.so:_ZN15COLLADASaxFWL1429ColladaParserAutoGen14Private21_data__enum____stringEPKcm
libOpenCOLLADASaxFrameworkLoader.so:_ZN15COLLADASaxFWL1429ColladaParserAutoGen14Private21_data__evaluate_sceneEPKcm
libOpenCOLLADASaxFrameworkLoader.so:_ZN15COLLADASaxFWL1429ColladaParserAutoGen14Private21_data__float____floatEPKcm
libOpenCOLLADASaxFrameworkLoader.so:_ZN15COLLADASaxFWL1429ColladaParserAutoGen14Private21_data__init_as_targetEPKcm
libOpenCOLLADASaxFrameworkLoader.so:_ZN15COLLADASaxFWL1429ColladaParserAutoGen14Private21_data__instance_lightEPKcm
libOpenCOLLADASaxFrameworkLoader.so:_ZN15COLLADASaxFWL1429ColladaParserAutoGen14Private21_data__interpenetrateEPKcm
libOpenCOLLADASaxFrameworkLoader.so:_ZN15COLLADASaxFWL1429ColladaParserAutoGen14Private21_data__library_imagesEPKcm
libOpenCOLLADASaxFrameworkLoader.so:_ZN15COLLADASaxFWL1429ColladaParserAutoGen14Private21_data__library_lightsEPKcm
libOpenCOLLADASaxFrameworkLoader.so:_ZN15COLLADASaxFWL1429ColladaParserAutoGen14Private21_data__limits__linearEPKcm
libOpenCOLLADASaxFrameworkLoader.so:_ZN15COLLADASaxFWL1429ColladaParserAutoGen14Private21_data__profile_COMMONEPKcm
libOpenCOLLADASaxFrameworkLoader.so:_ZN15COLLADASaxFWL1429ColladaParserAutoGen14Private21_data__ref_attachmentEPKcm
libOpenCOLLADASaxFrameworkLoader.so:_ZN15COLLADASaxFWL1429ColladaParserAutoGen14Private21_data__size____float3EPKcm
libOpenCOLLADASaxFrameworkLoader.so:_ZN15COLLADASaxFWL1429ColladaParserAutoGen14Private21_data__spring__linearEPKcm
libOpenCOLLADASaxFrameworkLoader.so:_ZN15COLLADASaxFWL1429ColladaParserAutoGen14Private21_data__technique_hintEPKcm
libOpenCOLLADASaxFrameworkLoader.so:_ZN15COLLADASaxFWL1429ColladaParserAutoGen14Private21_data__vertex_weightsEPKcm
libOpenCOLLADASaxFrameworkLoader.so:_ZN15COLLADASaxFWL1429ColladaParserAutoGen14Private21_data__viewport_ratioEPKcm
libOpenCOLLADASaxFrameworkLoader.so:_ZN15COLLADASaxFWL1429ColladaParserAutoGen14Private21_freeAttributes__backEPv
libOpenCOLLADASaxFrameworkLoader.so:_ZN15COLLADASaxFWL1429ColladaParserAutoGen14Private21_freeAttributes__codeEPv
libOpenCOLLADASaxFrameworkLoader.so:_ZN15COLLADASaxFWL1429ColladaParserAutoGen14Private21_freeAttributes__dataEPv
libOpenCOLLADASaxFrameworkLoader.so:_ZN15COLLADASaxFWL1429ColladaParserAutoGen14Private21_freeAttributes__drawEPv
libOpenCOLLADASaxFrameworkLoader.so:_ZN15COLLADASaxFWL1429ColladaParserAutoGen14Private21_freeAttributes__halfEPv
libOpenCOLLADASaxFrameworkLoader.so:_ZN15COLLADASaxFWL1429ColladaParserAutoGen14Private21_freeAttributes__int1EPv
libOpenCOLLADASaxFrameworkLoader.so:_ZN15COLLADASaxFWL1429ColladaParserAutoGen14Private21_freeAttributes__massEPv
libOpenCOLLADASaxFrameworkLoader.so:_ZN15COLLADASaxFWL1429ColladaParserAutoGen14Private21_freeAttributes__meshEPv
libOpenCOLLADASaxFrameworkLoader.so:_ZN15COLLADASaxFWL1429ColladaParserAutoGen14Private21_freeAttributes__nodeEPv
libOpenCOLLADASaxFrameworkLoader.so:_ZN15COLLADASaxFWL1429ColladaParserAutoGen14Private21_freeAttributes__skewEPv
libOpenCOLLADASaxFrameworkLoader.so:_ZN15COLLADASaxFWL1429ColladaParserAutoGen14Private21_freeAttributes__skinEPv
libOpenCOLLADASaxFrameworkLoader.so:_ZN15COLLADASaxFWL1429ColladaParserAutoGen14Private21_freeAttributes__spotEPv
libOpenCOLLADASaxFrameworkLoader.so:_ZN15COLLADASaxFWL1429ColladaParserAutoGen14Private21_freeAttributes__unitEPv
libOpenCOLLADASaxFrameworkLoader.so:_ZN15COLLADASaxFWL1429ColladaParserAutoGen14Private21_freeAttributes__xfovEPv
libOpenCOLLADASaxFrameworkLoader.so:_ZN15COLLADASaxFWL1429ColladaParserAutoGen14Private21_freeAttributes__xmagEPv
libOpenCOLLADASaxFrameworkLoader.so:_ZN15COLLADASaxFWL1429ColladaParserAutoGen14Private21_freeAttributes__yfovEPv
libOpenCOLLADASaxFrameworkLoader.so:_ZN15COLLADASaxFWL1429ColladaParserAutoGen14Private21_freeAttributes__ymagEPv
libOpenCOLLADASaxFrameworkLoader.so:_ZN15COLLADASaxFWL1429ColladaParserAutoGen14Private21_freeAttributes__zfarEPv
libOpenCOLLADASaxFrameworkLoader.so:_ZN15COLLADASaxFWL1429ColladaParserAutoGen14Private21_preBegin__Name_arrayERKN18GeneratedSaxParser16ParserAttributesEPPvS6_
libOpenCOLLADASaxFrameworkLoader.so:_ZN15COLLADASaxFWL1429ColladaParserAutoGen14Private21_preBegin__attachmentERKN18GeneratedSaxParser16ParserAttributesEPPvS6_
libOpenCOLLADASaxFrameworkLoader.so:_ZN15COLLADASaxFWL1429ColladaParserAutoGen14Private21_preBegin__bool_arrayERKN18GeneratedSaxParser16ParserAttributesEPPvS6_
libOpenCOLLADASaxFrameworkLoader.so:_ZN15COLLADASaxFWL1429ColladaParserAutoGen14Private21_preBegin__controllerERKN18GeneratedSaxParser16ParserAttributesEPPvS6_
libOpenCOLLADASaxFrameworkLoader.so:_ZN15COLLADASaxFWL1429ColladaParserAutoGen14Private21_preBegin__dest_alphaERKN18GeneratedSaxParser16ParserAttributesEPPvS6_
libOpenCOLLADASaxFrameworkLoader.so:_ZN15COLLADASaxFWL1429ColladaParserAutoGen14Private21_preBegin__int____intERKN18GeneratedSaxParser16ParserAttributesEPPvS6_
libOpenCOLLADASaxFrameworkLoader.so:_ZN15COLLADASaxFWL1429ColladaParserAutoGen14Private21_preBegin__linestripsERKN18GeneratedSaxParser16ParserAttributesEPPvS6_
libOpenCOLLADASaxFrameworkLoader.so:_ZN15COLLADASaxFWL1429ColladaParserAutoGen14Private21_preBegin__mip_levelsERKN18GeneratedSaxParser16ParserAttributesEPPvS6_
libOpenCOLLADASaxFrameworkLoader.so:_ZN15COLLADASaxFWL1429ColladaParserAutoGen14Private21_preBegin__profile_CGERKN18GeneratedSaxParser16ParserAttributesEPPvS6_
libOpenCOLLADASaxFrameworkLoader.so:_ZN15COLLADASaxFWL1429ColladaParserAutoGen14Private21_preBegin__reflectiveERKN18GeneratedSaxParser16ParserAttributesEPPvS6_
libOpenCOLLADASaxFrameworkLoader.so:_ZN15COLLADASaxFWL1429ColladaParserAutoGen14Private21_preBegin__rigid_bodyERKN18GeneratedSaxParser16ParserAttributesEPPvS6_
libOpenCOLLADASaxFrameworkLoader.so:_ZN15COLLADASaxFWL1429ColladaParserAutoGen14Private21_preEnd__aspect_ratioEv
libOpenCOLLADASaxFrameworkLoader.so:_ZN15COLLADASaxFWL1429ColladaParserAutoGen14Private21_preEnd__bool____boolEv
libOpenCOLLADASaxFrameworkLoader.so:_ZN15COLLADASaxFWL1429ColladaParserAutoGen14Private21_preEnd__border_colorEv
libOpenCOLLADASaxFrameworkLoader.so:_ZN15COLLADASaxFWL1429ColladaParserAutoGen14Private21_preEnd__depth_boundsEv
libOpenCOLLADASaxFrameworkLoader.so:_ZN15COLLADASaxFWL1429ColladaParserAutoGen14Private21_preEnd__half_extentsEv
libOpenCOLLADASaxFrameworkLoader.so:_ZN15COLLADASaxFWL1429ColladaParserAutoGen14Private21_preEnd__init_as_nullEv
libOpenCOLLADASaxFrameworkLoader.so:_ZN15COLLADASaxFWL1429ColladaParserAutoGen14Private21_preEnd__int2____int2Ev
libOpenCOLLADASaxFrameworkLoader.so:_ZN15COLLADASaxFWL1429ColladaParserAutoGen14Private21_preEnd__int3____int3Ev
libOpenCOLLADASaxFrameworkLoader.so:_ZN15COLLADASaxFWL1429ColladaParserAutoGen14Private21_preEnd__int4____int4Ev
libOpenCOLLADASaxFrameworkLoader.so:_ZN15COLLADASaxFWL1429ColladaParserAutoGen14Private21_preEnd__line_stippleEv
libOpenCOLLADASaxFrameworkLoader.so:_ZN15COLLADASaxFWL1429ColladaParserAutoGen14Private21_preEnd__orthographicEv
libOpenCOLLADASaxFrameworkLoader.so:_ZN15COLLADASaxFWL1429ColladaParserAutoGen14Private21_preEnd__polygon_modeEv
libOpenCOLLADASaxFrameworkLoader.so:_ZN15COLLADASaxFWL1429ColladaParserAutoGen14Private21_preEnd__profile_GLESEv
libOpenCOLLADASaxFrameworkLoader.so:_ZN15COLLADASaxFWL1429ColladaParserAutoGen14Private21_preEnd__profile_GLSLEv
libOpenCOLLADASaxFrameworkLoader.so:_ZN15COLLADASaxFWL1429ColladaParserAutoGen14Private21_preEnd__reflectivityEv
libOpenCOLLADASaxFrameworkLoader.so:_ZN15COLLADASaxFWL1429ColladaParserAutoGen14Private21_preEnd__size____int3Ev
libOpenCOLLADASaxFrameworkLoader.so:_ZN15COLLADASaxFWL1429ColladaParserAutoGen14Private21_preEnd__target_valueEv
libOpenCOLLADASaxFrameworkLoader.so:_ZN15COLLADASaxFWL1429ColladaParserAutoGen14Private21_preEnd__textureDEPTHEv
libOpenCOLLADASaxFrameworkLoader.so:_ZN15COLLADASaxFWL1429ColladaParserAutoGen14Private21_preEnd__texture_unitEv
libOpenCOLLADASaxFrameworkLoader.so:_ZN15COLLADASaxFWL1429ColladaParserAutoGen14Private21_preEnd__transparencyEv
libOpenCOLLADASaxFrameworkLoader.so:_ZN15COLLADASaxFWL1429ColladaParserAutoGen14Private21_preEnd__visual_sceneEv
libOpenCOLLADASaxFrameworkLoader.so:_ZN15COLLADASaxFWL1429ColladaParserAutoGen14Private22_data__bool____cg_boolEPKcm
libOpenCOLLADASaxFrameworkLoader.so:_ZN15COLLADASaxFWL1429ColladaParserAutoGen14Private22_data__instance_cameraEPKcm
libOpenCOLLADASaxFrameworkLoader.so:_ZN15COLLADASaxFWL1429ColladaParserAutoGen14Private22_data__instance_effectEPKcm
libOpenCOLLADASaxFrameworkLoader.so:_ZN15COLLADASaxFWL1429ColladaParserAutoGen14Private22_data__int2____cg_int2EPKcm
libOpenCOLLADASaxFrameworkLoader.so:_ZN15COLLADASaxFWL1429ColladaParserAutoGen14Private22_data__int3____cg_int3EPKcm
libOpenCOLLADASaxFrameworkLoader.so:_ZN15COLLADASaxFWL1429ColladaParserAutoGen14Private22_data__int4____cg_int4EPKcm
libOpenCOLLADASaxFrameworkLoader.so:_ZN15COLLADASaxFWL1429ColladaParserAutoGen14Private22_data__int____glsl_intEPKcm
libOpenCOLLADASaxFrameworkLoader.so:_ZN15COLLADASaxFWL1429ColladaParserAutoGen14Private22_data__library_camerasEPKcm
libOpenCOLLADASaxFrameworkLoader.so:_ZN15COLLADASaxFWL1429ColladaParserAutoGen14Private22_data__library_effectsEPKcm
libOpenCOLLADASaxFrameworkLoader.so:_ZN15COLLADASaxFWL1429ColladaParserAutoGen14Private22_data__logic_op_enableEPKcm
libOpenCOLLADASaxFrameworkLoader.so:_ZN15COLLADASaxFWL1429ColladaParserAutoGen14Private22_data__mipmap_generateEPKcm
libOpenCOLLADASaxFrameworkLoader.so:_ZN15COLLADASaxFWL1429ColladaParserAutoGen14Private22_data__mipmap_maxlevelEPKcm
libOpenCOLLADASaxFrameworkLoader.so:_ZN15COLLADASaxFWL1429ColladaParserAutoGen14Private22_data__param____NCNameEPKcm
libOpenCOLLADASaxFrameworkLoader.so:_ZN15COLLADASaxFWL1429ColladaParserAutoGen14Private22_data__radius____floatEPKcm
libOpenCOLLADASaxFrameworkLoader.so:_ZN15COLLADASaxFWL1429ColladaParserAutoGen14Private22_data__static_frictionEPKcm
libOpenCOLLADASaxFrameworkLoader.so:_ZN15COLLADASaxFWL1429ColladaParserAutoGen14Private22_data__tapered_capsuleEPKcm
libOpenCOLLADASaxFrameworkLoader.so:_ZN15COLLADASaxFWL1429ColladaParserAutoGen14Private22_freeAttributes__assetEPv
libOpenCOLLADASaxFrameworkLoader.so:_ZN15COLLADASaxFWL1429ColladaParserAutoGen14Private22_freeAttributes__blinnEPv
libOpenCOLLADASaxFrameworkLoader.so:_ZN15COLLADASaxFWL1429ColladaParserAutoGen14Private22_freeAttributes__bool1EPv
libOpenCOLLADASaxFrameworkLoader.so:_ZN15COLLADASaxFWL1429ColladaParserAutoGen14Private22_freeAttributes__extraEPv
libOpenCOLLADASaxFrameworkLoader.so:_ZN15COLLADASaxFWL1429ColladaParserAutoGen14Private22_freeAttributes__fixedEPv
libOpenCOLLADASaxFrameworkLoader.so:_ZN15COLLADASaxFWL1429ColladaParserAutoGen14Private22_freeAttributes__frontEPv
libOpenCOLLADASaxFrameworkLoader.so:_ZN15COLLADASaxFWL1429ColladaParserAutoGen14Private22_freeAttributes__half1EPv
libOpenCOLLADASaxFrameworkLoader.so:_ZN15COLLADASaxFWL1429ColladaParserAutoGen14Private22_freeAttributes__half2EPv
libOpenCOLLADASaxFrameworkLoader.so:_ZN15COLLADASaxFWL1429ColladaParserAutoGen14Private22_freeAttributes__half3EPv
libOpenCOLLADASaxFrameworkLoader.so:_ZN15COLLADASaxFWL1429ColladaParserAutoGen14Private22_freeAttributes__half4EPv
libOpenCOLLADASaxFrameworkLoader.so:_ZN15COLLADASaxFWL1429ColladaParserAutoGen14Private22_freeAttributes__imageEPv
libOpenCOLLADASaxFrameworkLoader.so:_ZN15COLLADASaxFWL1429ColladaParserAutoGen14Private22_freeAttributes__layerEPv
libOpenCOLLADASaxFrameworkLoader.so:_ZN15COLLADASaxFWL1429ColladaParserAutoGen14Private22_freeAttributes__lightEPv
libOpenCOLLADASaxFrameworkLoader.so:_ZN15COLLADASaxFWL1429ColladaParserAutoGen14Private22_freeAttributes__linesEPv
libOpenCOLLADASaxFrameworkLoader.so:_ZN15COLLADASaxFWL1429ColladaParserAutoGen14Private22_freeAttributes__morphEPv
libOpenCOLLADASaxFrameworkLoader.so:_ZN15COLLADASaxFWL1429ColladaParserAutoGen14Private22_freeAttributes__orderEPv
libOpenCOLLADASaxFrameworkLoader.so:_ZN15COLLADASaxFWL1429ColladaParserAutoGen14Private22_freeAttributes__paramEPv
libOpenCOLLADASaxFrameworkLoader.so:_ZN15COLLADASaxFWL1429ColladaParserAutoGen14Private22_freeAttributes__phongEPv
libOpenCOLLADASaxFrameworkLoader.so:_ZN15COLLADASaxFWL1429ColladaParserAutoGen14Private22_freeAttributes__planeEPv
libOpenCOLLADASaxFrameworkLoader.so:_ZN15COLLADASaxFWL1429ColladaParserAutoGen14Private22_freeAttributes__pointEPv
libOpenCOLLADASaxFrameworkLoader.so:_ZN15COLLADASaxFWL1429ColladaParserAutoGen14Private22_freeAttributes__rangeEPv
libOpenCOLLADASaxFrameworkLoader.so:_ZN15COLLADASaxFWL1429ColladaParserAutoGen14Private22_freeAttributes__scaleEPv
libOpenCOLLADASaxFrameworkLoader.so:_ZN15COLLADASaxFWL1429ColladaParserAutoGen14Private22_freeAttributes__sceneEPv
libOpenCOLLADASaxFrameworkLoader.so:_ZN15COLLADASaxFWL1429ColladaParserAutoGen14Private22_freeAttributes__titleEPv
libOpenCOLLADASaxFrameworkLoader.so:_ZN15COLLADASaxFWL1429ColladaParserAutoGen14Private22_freeAttributes__znearEPv
libOpenCOLLADASaxFrameworkLoader.so:_ZN15COLLADASaxFWL1429ColladaParserAutoGen14Private22_preBegin__IDREF_arrayERKN18GeneratedSaxParser16ParserAttributesEPPvS6_
libOpenCOLLADASaxFrameworkLoader.so:_ZN15COLLADASaxFWL1429ColladaParserAutoGen14Private22_preBegin__blend_colorERKN18GeneratedSaxParser16ParserAttributesEPPvS6_
libOpenCOLLADASaxFrameworkLoader.so:_ZN15COLLADASaxFWL1429ColladaParserAutoGen14Private22_preBegin__contributorERKN18GeneratedSaxParser16ParserAttributesEPPvS6_
libOpenCOLLADASaxFrameworkLoader.so:_ZN15COLLADASaxFWL1429ColladaParserAutoGen14Private22_preBegin__convex_meshERKN18GeneratedSaxParser16ParserAttributesEPPvS6_
libOpenCOLLADASaxFrameworkLoader.so:_ZN15COLLADASaxFWL1429ColladaParserAutoGen14Private22_preBegin__directionalERKN18GeneratedSaxParser16ParserAttributesEPPvS6_
libOpenCOLLADASaxFrameworkLoader.so:_ZN15COLLADASaxFWL1429ColladaParserAutoGen14Private22_preBegin__float_arrayERKN18GeneratedSaxParser16ParserAttributesEPPvS6_
libOpenCOLLADASaxFrameworkLoader.so:_ZN15COLLADASaxFWL1429ColladaParserAutoGen14Private22_preBegin__force_fieldERKN18GeneratedSaxParser16ParserAttributesEPPvS6_
libOpenCOLLADASaxFrameworkLoader.so:_ZN15COLLADASaxFWL1429ColladaParserAutoGen14Private22_preBegin__format_hintERKN18GeneratedSaxParser16ParserAttributesEPPvS6_
libOpenCOLLADASaxFrameworkLoader.so:_ZN15COLLADASaxFWL1429ColladaParserAutoGen14Private22_preBegin__init_planarERKN18GeneratedSaxParser16ParserAttributesEPPvS6_
libOpenCOLLADASaxFrameworkLoader.so:_ZN15COLLADASaxFWL1429ColladaParserAutoGen14Private22_preBegin__init_volumeERKN18GeneratedSaxParser16ParserAttributesEPPvS6_
libOpenCOLLADASaxFrameworkLoader.so:_ZN15COLLADASaxFWL1429ColladaParserAutoGen14Private22_preBegin__mipmap_biasERKN18GeneratedSaxParser16ParserAttributesEPPvS6_
libOpenCOLLADASaxFrameworkLoader.so:_ZN15COLLADASaxFWL1429ColladaParserAutoGen14Private22_preBegin__perspectiveERKN18GeneratedSaxParser16ParserAttributesEPPvS6_
libOpenCOLLADASaxFrameworkLoader.so:_ZN15COLLADASaxFWL1429ColladaParserAutoGen14Private22_preBegin__restitutionERKN18GeneratedSaxParser16ParserAttributesEPPvS6_
libOpenCOLLADASaxFrameworkLoader.so:_ZN15COLLADASaxFWL1429ColladaParserAutoGen14Private22_preBegin__source_dataERKN18GeneratedSaxParser16ParserAttributesEPPvS6_
libOpenCOLLADASaxFrameworkLoader.so:_ZN15COLLADASaxFWL1429ColladaParserAutoGen14Private22_preBegin__texcombinerERKN18GeneratedSaxParser16ParserAttributesEPPvS6_
libOpenCOLLADASaxFrameworkLoader.so:_ZN15COLLADASaxFWL1429ColladaParserAutoGen14Private22_preBegin__textureCUBEERKN18GeneratedSaxParser16ParserAttributesEPPvS6_
libOpenCOLLADASaxFrameworkLoader.so:_ZN15COLLADASaxFWL1429ColladaParserAutoGen14Private22_preBegin__textureRECTERKN18GeneratedSaxParser16ParserAttributesEPPvS6_
libOpenCOLLADASaxFrameworkLoader.so:_ZN15COLLADASaxFWL1429ColladaParserAutoGen14Private22_preBegin__transparentERKN18GeneratedSaxParser16ParserAttributesEPPvS6_
libOpenCOLLADASaxFrameworkLoader.so:_ZN15COLLADASaxFWL1429ColladaParserAutoGen14Private22_preEnd__bind_materialEv
libOpenCOLLADASaxFrameworkLoader.so:_ZN15COLLADASaxFWL1429ColladaParserAutoGen14Private22_preEnd__connect_paramEv
libOpenCOLLADASaxFrameworkLoader.so:_ZN15COLLADASaxFWL1429ColladaParserAutoGen14Private22_preEnd__falloff_angleEv
libOpenCOLLADASaxFrameworkLoader.so:_ZN15COLLADASaxFWL1429ColladaParserAutoGen14Private22_preEnd__fog_coord_srcEv
libOpenCOLLADASaxFrameworkLoader.so:_ZN15COLLADASaxFWL1429ColladaParserAutoGen14Private22_preEnd__instance_nodeEv
libOpenCOLLADASaxFrameworkLoader.so:_ZN15COLLADASaxFWL1429ColladaParserAutoGen14Private22_preEnd__int____cg_intEv
libOpenCOLLADASaxFrameworkLoader.so:_ZN15COLLADASaxFWL1429ColladaParserAutoGen14Private22_preEnd__library_nodesEv
libOpenCOLLADASaxFrameworkLoader.so:_ZN15COLLADASaxFWL1429ColladaParserAutoGen14Private22_preEnd__physics_modelEv
libOpenCOLLADASaxFrameworkLoader.so:_ZN15COLLADASaxFWL1429ColladaParserAutoGen14Private22_preEnd__physics_sceneEv
libOpenCOLLADASaxFrameworkLoader.so:_ZN15COLLADASaxFWL1429ColladaParserAutoGen14Private23_data__angular_velocityEPKcm
libOpenCOLLADASaxFrameworkLoader.so:_ZN15COLLADASaxFWL1429ColladaParserAutoGen14Private23_data__compiler_optionsEPKcm
libOpenCOLLADASaxFrameworkLoader.so:_ZN15COLLADASaxFWL1429ColladaParserAutoGen14Private23_data__control_verticesEPKcm
libOpenCOLLADASaxFrameworkLoader.so:_ZN15COLLADASaxFWL1429ColladaParserAutoGen14Private23_data__dynamic_frictionEPKcm
libOpenCOLLADASaxFrameworkLoader.so:_ZN15COLLADASaxFWL1429ColladaParserAutoGen14Private23_data__falloff_exponentEPKcm
libOpenCOLLADASaxFrameworkLoader.so:_ZN15COLLADASaxFWL1429ColladaParserAutoGen14Private23_data__float2____float2EPKcm
libOpenCOLLADASaxFrameworkLoader.so:_ZN15COLLADASaxFWL1429ColladaParserAutoGen14Private23_data__float3____float3EPKcm
libOpenCOLLADASaxFrameworkLoader.so:_ZN15COLLADASaxFWL1429ColladaParserAutoGen14Private23_data__float4____float4EPKcm
libOpenCOLLADASaxFrameworkLoader.so:_ZN15COLLADASaxFWL1429ColladaParserAutoGen14Private23_data__gl_hook_abstractEPKcm
libOpenCOLLADASaxFrameworkLoader.so:_ZN15COLLADASaxFWL1429ColladaParserAutoGen14Private23_data__physics_materialEPKcm
libOpenCOLLADASaxFrameworkLoader.so:_ZN15COLLADASaxFWL1429ColladaParserAutoGen14Private23_data__radius____float2EPKcm
libOpenCOLLADASaxFrameworkLoader.so:_ZN15COLLADASaxFWL1429ColladaParserAutoGen14Private23_data__rigid_constraintEPKcm
libOpenCOLLADASaxFrameworkLoader.so:_ZN15COLLADASaxFWL1429ColladaParserAutoGen14Private23_data__source____NCNameEPKcm
libOpenCOLLADASaxFrameworkLoader.so:_ZN15COLLADASaxFWL1429ColladaParserAutoGen14Private23_data__tapered_cylinderEPKcm
libOpenCOLLADASaxFrameworkLoader.so:_ZN15COLLADASaxFWL1429ColladaParserAutoGen14Private23_data__texture1D_enableEPKcm
libOpenCOLLADASaxFrameworkLoader.so:_ZN15COLLADASaxFWL1429ColladaParserAutoGen14Private23_data__texture2D_enableEPKcm
libOpenCOLLADASaxFrameworkLoader.so:_ZN15COLLADASaxFWL1429ColladaParserAutoGen14Private23_data__texture3D_enableEPKcm
libOpenCOLLADASaxFrameworkLoader.so:_ZN15COLLADASaxFWL1429ColladaParserAutoGen14Private23_data__texture_env_modeEPKcm
libOpenCOLLADASaxFrameworkLoader.so:_ZN15COLLADASaxFWL1429ColladaParserAutoGen14Private23_freeAttributes__authorEPv
libOpenCOLLADASaxFrameworkLoader.so:_ZN15COLLADASaxFWL1429ColladaParserAutoGen14Private23_freeAttributes__cameraEPv
libOpenCOLLADASaxFrameworkLoader.so:_ZN15COLLADASaxFWL1429ColladaParserAutoGen14Private23_freeAttributes__effectEPv
libOpenCOLLADASaxFrameworkLoader.so:_ZN15COLLADASaxFWL1429ColladaParserAutoGen14Private23_freeAttributes__fixed1EPv
libOpenCOLLADASaxFrameworkLoader.so:_ZN15COLLADASaxFWL1429ColladaParserAutoGen14Private23_freeAttributes__fixed2EPv
libOpenCOLLADASaxFrameworkLoader.so:_ZN15COLLADASaxFWL1429ColladaParserAutoGen14Private23_freeAttributes__fixed3EPv
libOpenCOLLADASaxFrameworkLoader.so:_ZN15COLLADASaxFWL1429ColladaParserAutoGen14Private23_freeAttributes__fixed4EPv
libOpenCOLLADASaxFrameworkLoader.so:_ZN15COLLADASaxFWL1429ColladaParserAutoGen14Private23_freeAttributes__float1EPv
libOpenCOLLADASaxFrameworkLoader.so:_ZN15COLLADASaxFWL1429ColladaParserAutoGen14Private23_freeAttributes__formatEPv
libOpenCOLLADASaxFrameworkLoader.so:_ZN15COLLADASaxFWL1429ColladaParserAutoGen14Private23_freeAttributes__heightEPv
libOpenCOLLADASaxFrameworkLoader.so:_ZN15COLLADASaxFWL1429ColladaParserAutoGen14Private23_freeAttributes__imagerEPv
libOpenCOLLADASaxFrameworkLoader.so:_ZN15COLLADASaxFWL1429ColladaParserAutoGen14Private23_freeAttributes__int1x1EPv
libOpenCOLLADASaxFrameworkLoader.so:_ZN15COLLADASaxFWL1429ColladaParserAutoGen14Private23_freeAttributes__int1x2EPv
libOpenCOLLADASaxFrameworkLoader.so:_ZN15COLLADASaxFWL1429ColladaParserAutoGen14Private23_freeAttributes__int1x3EPv
libOpenCOLLADASaxFrameworkLoader.so:_ZN15COLLADASaxFWL1429ColladaParserAutoGen14Private23_freeAttributes__int1x4EPv
libOpenCOLLADASaxFrameworkLoader.so:_ZN15COLLADASaxFWL1429ColladaParserAutoGen14Private23_freeAttributes__int2x1EPv
libOpenCOLLADASaxFrameworkLoader.so:_ZN15COLLADASaxFWL1429ColladaParserAutoGen14Private23_freeAttributes__int2x2EPv
libOpenCOLLADASaxFrameworkLoader.so:_ZN15COLLADASaxFWL1429ColladaParserAutoGen14Private23_freeAttributes__int2x3EPv
libOpenCOLLADASaxFrameworkLoader.so:_ZN15COLLADASaxFWL1429ColladaParserAutoGen14Private23_freeAttributes__int2x4EPv
libOpenCOLLADASaxFrameworkLoader.so:_ZN15COLLADASaxFWL1429ColladaParserAutoGen14Private23_freeAttributes__int3x1EPv
libOpenCOLLADASaxFrameworkLoader.so:_ZN15COLLADASaxFWL1429ColladaParserAutoGen14Private23_freeAttributes__int3x2EPv
libOpenCOLLADASaxFrameworkLoader.so:_ZN15COLLADASaxFWL1429ColladaParserAutoGen14Private23_freeAttributes__int3x3EPv
libOpenCOLLADASaxFrameworkLoader.so:_ZN15COLLADASaxFWL1429ColladaParserAutoGen14Private23_freeAttributes__int3x4EPv
libOpenCOLLADASaxFrameworkLoader.so:_ZN15COLLADASaxFWL1429ColladaParserAutoGen14Private23_freeAttributes__int4x1EPv
libOpenCOLLADASaxFrameworkLoader.so:_ZN15COLLADASaxFWL1429ColladaParserAutoGen14Private23_freeAttributes__int4x2EPv
libOpenCOLLADASaxFrameworkLoader.so:_ZN15COLLADASaxFWL1429ColladaParserAutoGen14Private23_freeAttributes__int4x3EPv
libOpenCOLLADASaxFrameworkLoader.so:_ZN15COLLADASaxFWL1429ColladaParserAutoGen14Private23_freeAttributes__int4x4EPv
libOpenCOLLADASaxFrameworkLoader.so:_ZN15COLLADASaxFWL1429ColladaParserAutoGen14Private23_freeAttributes__jointsEPv
libOpenCOLLADASaxFrameworkLoader.so:_ZN15COLLADASaxFWL1429ColladaParserAutoGen14Private23_freeAttributes__limitsEPv
libOpenCOLLADASaxFrameworkLoader.so:_ZN15COLLADASaxFWL1429ColladaParserAutoGen14Private23_freeAttributes__lookatEPv
libOpenCOLLADASaxFrameworkLoader.so:_ZN15COLLADASaxFWL1429ColladaParserAutoGen14Private23_freeAttributes__matrixEPv
libOpenCOLLADASaxFrameworkLoader.so:_ZN15COLLADASaxFWL1429ColladaParserAutoGen14Private23_freeAttributes__opticsEPv
libOpenCOLLADASaxFrameworkLoader.so:_ZN15COLLADASaxFWL1429ColladaParserAutoGen14Private23_freeAttributes__optionEPv
libOpenCOLLADASaxFrameworkLoader.so:_ZN15COLLADASaxFWL1429ColladaParserAutoGen14Private23_freeAttributes__renderEPv
libOpenCOLLADASaxFrameworkLoader.so:_ZN15COLLADASaxFWL1429ColladaParserAutoGen14Private23_freeAttributes__rotateEPv
libOpenCOLLADASaxFrameworkLoader.so:_ZN15COLLADASaxFWL1429ColladaParserAutoGen14Private23_freeAttributes__sourceEPv
libOpenCOLLADASaxFrameworkLoader.so:_ZN15COLLADASaxFWL1429ColladaParserAutoGen14Private23_freeAttributes__sphereEPv
libOpenCOLLADASaxFrameworkLoader.so:_ZN15COLLADASaxFWL1429ColladaParserAutoGen14Private23_freeAttributes__splineEPv
libOpenCOLLADASaxFrameworkLoader.so:_ZN15COLLADASaxFWL1429ColladaParserAutoGen14Private23_freeAttributes__springEPv
libOpenCOLLADASaxFrameworkLoader.so:_ZN15COLLADASaxFWL1429ColladaParserAutoGen14Private23_freeAttributes__stringEPv
libOpenCOLLADASaxFrameworkLoader.so:_ZN15COLLADASaxFWL1429ColladaParserAutoGen14Private23_freeAttributes__texenvEPv
libOpenCOLLADASaxFrameworkLoader.so:_ZN15COLLADASaxFWL1429ColladaParserAutoGen14Private23_freeAttributes__vcountEPv
libOpenCOLLADASaxFrameworkLoader.so:_ZN15COLLADASaxFWL1429ColladaParserAutoGen14Private23_freeAttributes__wrap_pEPv
libOpenCOLLADASaxFrameworkLoader.so:_ZN15COLLADASaxFWL1429ColladaParserAutoGen14Private23_preBegin__aspect_ratioERKN18GeneratedSaxParser16ParserAttributesEPPvS6_
libOpenCOLLADASaxFrameworkLoader.so:_ZN15COLLADASaxFWL1429ColladaParserAutoGen14Private23_preBegin__bool____boolERKN18GeneratedSaxParser16ParserAttributesEPPvS6_
libOpenCOLLADASaxFrameworkLoader.so:_ZN15COLLADASaxFWL1429ColladaParserAutoGen14Private23_preBegin__border_colorERKN18GeneratedSaxParser16ParserAttributesEPPvS6_
libOpenCOLLADASaxFrameworkLoader.so:_ZN15COLLADASaxFWL1429ColladaParserAutoGen14Private23_preBegin__depth_boundsERKN18GeneratedSaxParser16ParserAttributesEPPvS6_
libOpenCOLLADASaxFrameworkLoader.so:_ZN15COLLADASaxFWL1429ColladaParserAutoGen14Private23_preBegin__half_extentsERKN18GeneratedSaxParser16ParserAttributesEPPvS6_
libOpenCOLLADASaxFrameworkLoader.so:_ZN15COLLADASaxFWL1429ColladaParserAutoGen14Private23_preBegin__init_as_nullERKN18GeneratedSaxParser16ParserAttributesEPPvS6_
libOpenCOLLADASaxFrameworkLoader.so:_ZN15COLLADASaxFWL1429ColladaParserAutoGen14Private23_preBegin__int2____int2ERKN18GeneratedSaxParser16ParserAttributesEPPvS6_
libOpenCOLLADASaxFrameworkLoader.so:_ZN15COLLADASaxFWL1429ColladaParserAutoGen14Private23_preBegin__int3____int3ERKN18GeneratedSaxParser16ParserAttributesEPPvS6_
libOpenCOLLADASaxFrameworkLoader.so:_ZN15COLLADASaxFWL1429ColladaParserAutoGen14Private23_preBegin__int4____int4ERKN18GeneratedSaxParser16ParserAttributesEPPvS6_
libOpenCOLLADASaxFrameworkLoader.so:_ZN15COLLADASaxFWL1429ColladaParserAutoGen14Private23_preBegin__line_stippleERKN18GeneratedSaxParser16ParserAttributesEPPvS6_
libOpenCOLLADASaxFrameworkLoader.so:_ZN15COLLADASaxFWL1429ColladaParserAutoGen14Private23_preBegin__orthographicERKN18GeneratedSaxParser16ParserAttributesEPPvS6_
libOpenCOLLADASaxFrameworkLoader.so:_ZN15COLLADASaxFWL1429ColladaParserAutoGen14Private23_preBegin__polygon_modeERKN18GeneratedSaxParser16ParserAttributesEPPvS6_
libOpenCOLLADASaxFrameworkLoader.so:_ZN15COLLADASaxFWL1429ColladaParserAutoGen14Private23_preBegin__profile_GLESERKN18GeneratedSaxParser16ParserAttributesEPPvS6_
libOpenCOLLADASaxFrameworkLoader.so:_ZN15COLLADASaxFWL1429ColladaParserAutoGen14Private23_preBegin__profile_GLSLERKN18GeneratedSaxParser16ParserAttributesEPPvS6_
libOpenCOLLADASaxFrameworkLoader.so:_ZN15COLLADASaxFWL1429ColladaParserAutoGen14Private23_preBegin__reflectivityERKN18GeneratedSaxParser16ParserAttributesEPPvS6_
libOpenCOLLADASaxFrameworkLoader.so:_ZN15COLLADASaxFWL1429ColladaParserAutoGen14Private23_preBegin__size____int3ERKN18GeneratedSaxParser16ParserAttributesEPPvS6_
libOpenCOLLADASaxFrameworkLoader.so:_ZN15COLLADASaxFWL1429ColladaParserAutoGen14Private23_preBegin__target_valueERKN18GeneratedSaxParser16ParserAttributesEPPvS6_
libOpenCOLLADASaxFrameworkLoader.so:_ZN15COLLADASaxFWL1429ColladaParserAutoGen14Private23_preBegin__textureDEPTHERKN18GeneratedSaxParser16ParserAttributesEPPvS6_
libOpenCOLLADASaxFrameworkLoader.so:_ZN15COLLADASaxFWL1429ColladaParserAutoGen14Private23_preBegin__texture_unitERKN18GeneratedSaxParser16ParserAttributesEPPvS6_
libOpenCOLLADASaxFrameworkLoader.so:_ZN15COLLADASaxFWL1429ColladaParserAutoGen14Private23_preBegin__transparencyERKN18GeneratedSaxParser16ParserAttributesEPPvS6_
libOpenCOLLADASaxFrameworkLoader.so:_ZN15COLLADASaxFWL1429ColladaParserAutoGen14Private23_preBegin__visual_sceneERKN18GeneratedSaxParser16ParserAttributesEPPvS6_
libOpenCOLLADASaxFrameworkLoader.so:_ZN15COLLADASaxFWL1429ColladaParserAutoGen14Private23_preEnd__animation_clipEv
libOpenCOLLADASaxFrameworkLoader.so:_ZN15COLLADASaxFWL1429ColladaParserAutoGen14Private23_preEnd__authoring_toolEv
libOpenCOLLADASaxFrameworkLoader.so:_ZN15COLLADASaxFWL1429ColladaParserAutoGen14Private23_preEnd__blend_equationEv
libOpenCOLLADASaxFrameworkLoader.so:_ZN15COLLADASaxFWL1429ColladaParserAutoGen14Private23_preEnd__bool2____bool2Ev
libOpenCOLLADASaxFrameworkLoader.so:_ZN15COLLADASaxFWL1429ColladaParserAutoGen14Private23_preEnd__bool3____bool3Ev
libOpenCOLLADASaxFrameworkLoader.so:_ZN15COLLADASaxFWL1429ColladaParserAutoGen14Private23_preEnd__bool4____bool4Ev
libOpenCOLLADASaxFrameworkLoader.so:_ZN15COLLADASaxFWL1429ColladaParserAutoGen14Private23_preEnd__color_materialEv
libOpenCOLLADASaxFrameworkLoader.so:_ZN15COLLADASaxFWL1429ColladaParserAutoGen14Private23_preEnd__enum____stringEv
libOpenCOLLADASaxFrameworkLoader.so:_ZN15COLLADASaxFWL1429ColladaParserAutoGen14Private23_preEnd__evaluate_sceneEv
libOpenCOLLADASaxFrameworkLoader.so:_ZN15COLLADASaxFWL1429ColladaParserAutoGen14Private23_preEnd__float____floatEv
libOpenCOLLADASaxFrameworkLoader.so:_ZN15COLLADASaxFWL1429ColladaParserAutoGen14Private23_preEnd__init_as_targetEv
libOpenCOLLADASaxFrameworkLoader.so:_ZN15COLLADASaxFWL1429ColladaParserAutoGen14Private23_preEnd__instance_lightEv
libOpenCOLLADASaxFrameworkLoader.so:_ZN15COLLADASaxFWL1429ColladaParserAutoGen14Private23_preEnd__interpenetrateEv
libOpenCOLLADASaxFrameworkLoader.so:_ZN15COLLADASaxFWL1429ColladaParserAutoGen14Private23_preEnd__library_imagesEv
libOpenCOLLADASaxFrameworkLoader.so:_ZN15COLLADASaxFWL1429ColladaParserAutoGen14Private23_preEnd__library_lightsEv
libOpenCOLLADASaxFrameworkLoader.so:_ZN15COLLADASaxFWL1429ColladaParserAutoGen14Private23_preEnd__limits__linearEv
libOpenCOLLADASaxFrameworkLoader.so:_ZN15COLLADASaxFWL1429ColladaParserAutoGen14Private23_preEnd__profile_COMMONEv
libOpenCOLLADASaxFrameworkLoader.so:_ZN15COLLADASaxFWL1429ColladaParserAutoGen14Private23_preEnd__ref_attachmentEv
libOpenCOLLADASaxFrameworkLoader.so:_ZN15COLLADASaxFWL1429ColladaParserAutoGen14Private23_preEnd__size____float3Ev
libOpenCOLLADASaxFrameworkLoader.so:_ZN15COLLADASaxFWL1429ColladaParserAutoGen14Private23_preEnd__spring__linearEv
libOpenCOLLADASaxFrameworkLoader.so:_ZN15COLLADASaxFWL1429ColladaParserAutoGen14Private23_preEnd__technique_hintEv
libOpenCOLLADASaxFrameworkLoader.so:_ZN15COLLADASaxFWL1429ColladaParserAutoGen14Private23_preEnd__vertex_weightsEv
libOpenCOLLADASaxFrameworkLoader.so:_ZN15COLLADASaxFWL1429ColladaParserAutoGen14Private23_preEnd__viewport_ratioEv
libOpenCOLLADASaxFrameworkLoader.so:_ZN15COLLADASaxFWL1429ColladaParserAutoGen14Private24_data__bind_shape_matrixEPKcm
libOpenCOLLADASaxFrameworkLoader.so:_ZN15COLLADASaxFWL1429ColladaParserAutoGen14Private24_data__bind_vertex_inputEPKcm
libOpenCOLLADASaxFrameworkLoader.so:_ZN15COLLADASaxFWL1429ColladaParserAutoGen14Private24_data__bool2____cg_bool2EPKcm
libOpenCOLLADASaxFrameworkLoader.so:_ZN15COLLADASaxFWL1429ColladaParserAutoGen14Private24_data__bool3____cg_bool3EPKcm
libOpenCOLLADASaxFrameworkLoader.so:_ZN15COLLADASaxFWL1429ColladaParserAutoGen14Private24_data__bool4____cg_bool4EPKcm
libOpenCOLLADASaxFrameworkLoader.so:_ZN15COLLADASaxFWL1429ColladaParserAutoGen14Private24_data__bool____glsl_boolEPKcm
libOpenCOLLADASaxFrameworkLoader.so:_ZN15COLLADASaxFWL1429ColladaParserAutoGen14Private24_data__float1x1____floatEPKcm
libOpenCOLLADASaxFrameworkLoader.so:_ZN15COLLADASaxFWL1429ColladaParserAutoGen14Private24_data__float____cg_floatEPKcm
libOpenCOLLADASaxFrameworkLoader.so:_ZN15COLLADASaxFWL1429ColladaParserAutoGen14Private24_data__instance_geometryEPKcm
libOpenCOLLADASaxFrameworkLoader.so:_ZN15COLLADASaxFWL1429ColladaParserAutoGen14Private24_data__instance_materialEPKcm
libOpenCOLLADASaxFrameworkLoader.so:_ZN15COLLADASaxFWL1429ColladaParserAutoGen14Private24_data__int2____glsl_int2EPKcm
libOpenCOLLADASaxFrameworkLoader.so:_ZN15COLLADASaxFWL1429ColladaParserAutoGen14Private24_data__int3____glsl_int3EPKcm
libOpenCOLLADASaxFrameworkLoader.so:_ZN15COLLADASaxFWL1429ColladaParserAutoGen14Private24_data__int4____glsl_int4EPKcm
