openspades:_IO_stdin_used
openspades:_Z10fpFromIEEEj
openspades:_Z10fpFromIEEEm
openspades:_Z10parseFloatRKNSt7__cxx1112basic_stringIcSt11char_traitsIcESaIcEEEPj
openspades:_Z10tga_is_rlePK9tga_image
openspades:_Z11tga_is_monoPK9tga_image
openspades:_Z12cosf_genericP16asIScriptGeneric
openspades:_Z12logf_genericP16asIScriptGeneric
openspades:_Z12powf_genericP16asIScriptGeneric
openspades:_Z12sinf_genericP16asIScriptGeneric
openspades:_Z12tanf_genericP16asIScriptGeneric
openspades:_Z13acosf_genericP16asIScriptGeneric
openspades:_Z13asinf_genericP16asIScriptGeneric
openspades:_Z13atanf_genericP16asIScriptGeneric
openspades:_Z13ceilf_genericP16asIScriptGeneric
openspades:_Z13coshf_genericP16asIScriptGeneric
openspades:_Z13fabsf_genericP16asIScriptGeneric
openspades:_Z13sinhf_genericP16asIScriptGeneric
openspades:_Z13sqrtf_genericP16asIScriptGeneric
openspades:_Z13tanhf_genericP16asIScriptGeneric
openspades:_Z13tga_flip_vertP9tga_image
openspades:_Z14CreateDelegateP17asCScriptFunctionPv
openspades:_Z14atan2f_genericP16asIScriptGeneric
openspades:_Z14floorf_genericP16asIScriptGeneric
openspades:_Z14log10f_genericP16asIScriptGeneric
openspades:_Z14tga_desaturateP9tga_imageiiii
openspades:_Z14tga_find_pixelPK9tga_imagett
openspades:_Z14tga_flip_horizP9tga_image
openspades:_Z14tga_pack_pixelPhhhhhh
openspades:_Z15tga_color_unmapP9tga_image
openspades:_Z16asCompareStringsPKcmS0_m
openspades:_Z16tga_free_buffersP9tga_image
openspades:_Z16tga_unpack_pixelPKhhPhS1_S1_S1_
openspades:_Z17RegisterScriptAnyP15asIScriptEngine
openspades:_Z17RegisterStdStringP15asIScriptEngine
openspades:_Z17fractionf_genericP16asIScriptGeneric
openspades:_Z17tga_convert_depthP9tga_imageh
openspades:_Z17tga_swap_red_blueP9tga_image
openspades:_Z17tga_write_to_FILEPN6spades7IStreamEPK9tga_image
openspades:_Z18CallSystemFunctioniP10asCContext
openspades:_Z18RegisterScriptMathP15asIScriptEngine
openspades:_Z18asStringDecodeUTF8PKcPj
openspades:_Z18asStringEncodeUTF8jPc
openspades:_Z18asStringScanDoublePKcPm
openspades:_Z18asStringScanUInt64PKciPm
openspades:_Z18tga_desaturate_avgP9tga_image
openspades:_Z18tga_desaturate_ituP9tga_image
openspades:_Z18tga_is_colormappedPK9tga_image
openspades:_Z18tga_read_from_FILEP9tga_imagePN6spades7IStreamE
openspades:_Z19RegisterScriptArrayP15asIScriptEngineb
openspades:_Z19ScriptObjectFactoryPK13asCObjectTypeP15asCScriptEngine
openspades:_Z19asPushActiveContextP16asIScriptContext
openspades:_Z19asStringEncodeUTF16jPc
openspades:_Z20RegisterScriptHandleP15asIScriptEngine
openspades:_Z20RegisterScriptObjectP15asCScriptEngine
openspades:_Z20tga_is_right_to_leftPK9tga_image
openspades:_Z20tga_is_top_to_bottomPK9tga_image
openspades:_Z21PrepareSystemFunctionP17asCScriptFunctionP26asSSystemFunctionInterfaceP15asCScriptEngine
openspades:_Z21RegisterScriptWeakRefP15asIScriptEngine
openspades:_Z22RegisterScriptFunctionP15asCScriptEngine
openspades:_Z22RegisterStdStringUtilsP15asIScriptEngine
openspades:_Z22ScriptObject_ConstructP13asCObjectTypeP15asCScriptObject
openspades:_Z22tga_desaturate_rec_709P9tga_image
openspades:_Z22tga_get_attribute_bitsPK9tga_image
openspades:_Z23DetectCallingConventionbRK10asSFuncPtriPvP26asSSystemFunctionInterface
openspades:_Z23ScriptObject_AssignmentP15asCScriptObjectS0_
openspades:_Z24CallSystemFunctionNativeP10asCContextP17asCScriptFunctionPvPjS3_RmS3_
openspades:_Z24RegisterScriptAny_NativeP15asIScriptEngine
openspades:_Z24RegisterScriptDictionaryP15asIScriptEngine
openspades:_Z24RegisterStdString_NativeP15asIScriptEngine
openspades:_Z24tga_desaturate_rec_601_1P9tga_image
openspades:_Z25RegisterScriptAny_GenericP15asIScriptEngine
openspades:_Z25RegisterScriptMathComplexP15asIScriptEngine
openspades:_Z25RegisterScriptMath_NativeP15asIScriptEngine
openspades:_Z25RegisterStdString_GenericP15asIScriptEngine
openspades:_Z26CScriptHandle_Cast_GenericP16asIScriptGeneric
openspades:_Z26CScriptWeakRef_Get_GenericP16asIScriptGeneric
openspades:_Z26RegisterScriptMath_GenericP15asIScriptEngine
openspades:_Z27RegisterScriptHandle_NativeP15asIScriptEngine
openspades:_Z27ScriptDictionaryGet_GenericP16asIScriptGeneric
openspades:_Z27ScriptDictionarySet_GenericP16asIScriptGeneric
openspades:_Z28CScriptHandle_Assign_GenericP16asIScriptGeneric
openspades:_Z28CScriptHandle_Equals_GenericP16asIScriptGeneric
openspades:_Z28PrepareSystemFunctionGenericP17asCScriptFunctionP26asSSystemFunctionInterfaceP15asCScriptEngine
openspades:_Z28RegisterScriptHandle_GenericP15asIScriptEngine
openspades:_Z28RegisterScriptWeakRef_NativeP15asIScriptEngine
openspades:_Z29CScriptWeakRef_Assign_GenericP16asIScriptGeneric
openspades:_Z29CScriptWeakRef_Equals_GenericP16asIScriptGeneric
openspades:_Z29RegisterScriptWeakRef_GenericP15asIScriptEngine
openspades:_Z30CScriptHandle_Destruct_GenericP16asIScriptGeneric
openspades:_Z30CScriptWeakRef_Assign2_GenericP16asIScriptGeneric
openspades:_Z30CScriptWeakRef_Equals2_GenericP16asIScriptGeneric
openspades:_Z30ScriptDictionaryAddRef_GenericP16asIScriptGeneric
openspades:_Z30ScriptDictionaryAssign_GenericP16asIScriptGeneric
openspades:_Z30ScriptDictionaryDelete_GenericP16asIScriptGeneric
openspades:_Z30ScriptDictionaryExists_GenericP16asIScriptGeneric
openspades:_Z30ScriptDictionaryGetFlt_GenericP16asIScriptGeneric
openspades:_Z30ScriptDictionaryGetInt_GenericP16asIScriptGeneric
openspades:_Z30ScriptDictionarySetFlt_GenericP16asIScriptGeneric
openspades:_Z30ScriptDictionarySetInt_GenericP16asIScriptGeneric
openspades:_Z31CScriptHandle_AssignVar_GenericP16asIScriptGeneric
openspades:_Z31CScriptHandle_Construct_GenericP16asIScriptGeneric
openspades:_Z31CScriptHandle_EqualsVar_GenericP16asIScriptGeneric
openspades:_Z31RegisterScriptDictionary_NativeP15asIScriptEngine
openspades:_Z31ScriptDictionaryFactory_GenericP16asIScriptGeneric
openspades:_Z31ScriptDictionaryGetSize_GenericP16asIScriptGeneric
openspades:_Z31ScriptDictionaryIsEmpty_GenericP16asIScriptGeneric
openspades:_Z31ScriptDictionaryRelease_GenericP16asIScriptGeneric
openspades:_Z32RegisterScriptDictionary_GenericP15asIScriptEngine
openspades:_Z33ScriptDictionaryDeleteAll_GenericP16asIScriptGeneric
openspades:_Z33ScriptObject_ConstructUnitializedP13asCObjectTypeP15asCScriptObject
openspades:_Z34CScriptHandle_ConstructVar_GenericP16asIScriptGeneric
openspades:_Z35CScriptHandle_ConstructCopy_GenericP16asIScriptGeneric
openspades:_Z35ScriptDictionaryListFactory_GenericP16asIScriptGeneric
openspades:_Z7as_powiiiRb
openspades:_Z7as_powujjRb
openspades:_Z7closeToddd
openspades:_Z7closeTofff
openspades:_Z8fpToIEEEd
openspades:_Z8fpToIEEEf
openspades:_Z9ConstructP13CScriptHandlePvi
openspades:_Z9as_powi64llRb
openspades:_Z9as_powu64mmRb
openspades:_Z9fractionff
openspades:_Z9tga_error10tga_result
openspades:_ZN10CScriptAny10FreeObjectEv
openspades:_ZN10CScriptAny11GetRefCountEv
openspades:_ZN10CScriptAny14EnumReferencesEP15asIScriptEngine
openspades:_ZN10CScriptAny17ReleaseAllHandlesEP15asIScriptEngine
openspades:_ZN10CScriptAny5StoreEPvi
openspades:_ZN10CScriptAny5StoreERd
openspades:_ZN10CScriptAny5StoreERl
openspades:_ZN10CScriptAny7GetFlagEv
openspades:_ZN10CScriptAny7SetFlagEv
openspades:_ZN10CScriptAny8CopyFromEPKS_
openspades:_ZN10CScriptAnyC1EP15asIScriptEngine
openspades:_ZN10CScriptAnyC1EPviP15asIScriptEngine
openspades:_ZN10CScriptAnyC2EP15asIScriptEngine
openspades:_ZN10CScriptAnyC2EPviP15asIScriptEngine
openspades:_ZN10CScriptAnyD0Ev
openspades:_ZN10CScriptAnyD1Ev
openspades:_ZN10CScriptAnyD2Ev
openspades:_ZN10CScriptAnyaSERKS_
openspades:_ZN10asCBuilder10GetFuncDefEPKcP12asSNameSpaceP13asCObjectType
openspades:_ZN10asCBuilder10WriteErrorERK9asCStringP13asCScriptCodeP13asCScriptNode
openspades:_ZN10asCBuilder10WriteErrorERK9asCStringS2_ii
openspades:_ZN10asCBuilder12GetEnumValueEPKcR11asCDataTypeRjP12asSNameSpace
openspades:_ZN10asCBuilder12ParseScriptsEv
openspades:_ZN10asCBuilder12RegisterEnumEP13asCScriptNodeP13asCScriptCodeP12asSNameSpace
openspades:_ZN10asCBuilder12WriteWarningERK9asCStringP13asCScriptCodeP13asCScriptNode
openspades:_ZN10asCBuilder12WriteWarningERK9asCStringS2_ii
openspades:_ZN10asCBuilder13DoesTypeExistERK9asCString
openspades:_ZN10asCBuilder13GetMixinClassEPKcP12asSNameSpace
openspades:_ZN10asCBuilder13GetObjectTypeEPKcP12asSNameSpace
openspades:_ZN10asCBuilder13ParseDataTypeEPKcP11asCDataTypeP12asSNameSpaceb
openspades:_ZN10asCBuilder13RegisterClassEP13asCScriptNodeP13asCScriptCodeP12asSNameSpace
openspades:_ZN10asCBuilder14CompileClassesEj
openspades:_ZN10asCBuilder14RegisterLambdaEP13asCScriptNodeP13asCScriptCodeP17asCScriptFunctionRK9asCStringP12asSNameSpace
openspades:_ZN10asCBuilder14VerifyPropertyEP11asCDataTypePKcR9asCStringRS0_P12asSNameSpace
openspades:_ZN10asCBuilder15CompileFunctionEPKcS1_ijPP17asCScriptFunction
openspades:_ZN10asCBuilder15CompleteFuncDefEP8sFuncDef
openspades:_ZN10asCBuilder15DoesMethodExistEP13asCObjectTypeiPj
openspades:_ZN10asCBuilder15RegisterFuncDefEP13asCScriptNodeP13asCScriptCodeP12asSNameSpaceP13asCObjectType
openspades:_ZN10asCBuilder15RegisterTypedefEP13asCScriptNodeP13asCScriptCodeP12asSNameSpace
openspades:_ZN10asCBuilder16CompileFunctionsEv
openspades:_ZN10asCBuilder16CompileGlobalVarEPKcS1_i
openspades:_ZN10asCBuilder16GetScopeFromNodeEP13asCScriptNodeP13asCScriptCodePS1_
openspades:_ZN10asCBuilder17CheckNameConflictEPKcP13asCScriptNodeP13asCScriptCodeP12asSNameSpace
openspades:_ZN10asCBuilder17CompileInterfacesEv
openspades:_ZN10asCBuilder17GetGlobalPropertyEPKcP12asSNameSpacePbS4_PmS4_
openspades:_ZN10asCBuilder17GetObjectPropertyER11asCDataTypePKc
openspades:_ZN10asCBuilder17ParseTemplateDeclEPKcP9asCStringR8asCArrayIS2_E
openspades:_ZN10asCBuilder17RegisterGlobalVarEP13asCScriptNodeP13asCScriptCodeP12asSNameSpace
openspades:_ZN10asCBuilder17RegisterInterfaceEP13asCScriptNodeP13asCScriptCodeP12asSNameSpace
openspades:_ZN10asCBuilder18AddPropertyToClassEP17sClassDeclarationRK9asCStringRK11asCDataTypebbbP13asCScriptCodeP13asCScriptNode
openspades:_ZN10asCBuilder18RegisterMixinClassEP13asCScriptNodeP13asCScriptCodeP12asSNameSpace
openspades:_ZN10asCBuilder19AddInterfaceToClassEP17sClassDeclarationP13asCScriptNodeP13asCObjectType
openspades:_ZN10asCBuilder19ValidateDefaultArgsEP13asCScriptCodeP13asCScriptNodeP17asCScriptFunction
openspades:_ZN10asCBuilder20GetEnumValueFromTypeEP11asCEnumTypePKcR11asCDataTypeRj
openspades:_ZN10asCBuilder20GetNameSpaceByStringERK9asCStringP12asSNameSpaceP13asCScriptNodeP13asCScriptCodePP11asCTypeInfob
openspades:_ZN10asCBuilder20GetNameSpaceFromNodeEP13asCScriptNodeP13asCScriptCodeP12asSNameSpacePS1_PP13asCObjectType
openspades:_ZN10asCBuilder21AddDefaultConstructorEP13asCObjectTypeP13asCScriptCode
openspades:_ZN10asCBuilder21CreateVirtualFunctionEP17asCScriptFunctioni
openspades:_ZN10asCBuilder22CompileGlobalVariablesEv
openspades:_ZN10asCBuilder22CreateDataTypeFromNodeEP13asCScriptNodeP13asCScriptCodeP12asSNameSpacebP13asCObjectType
openspades:_ZN10asCBuilder22DetermineTypeRelationsEv
openspades:_ZN10asCBuilder22GetFunctionDescriptionEi
openspades:_ZN10asCBuilder22ModifyDataTypeFromNodeERK11asCDataTypeP13asCScriptNodeP13asCScriptCodeP16asETypeModifiersPb
openspades:_ZN10asCBuilder22RegisterScriptFunctionEP13asCScriptNodeP13asCScriptCodeP13asCObjectTypebbP12asSNameSpacebbR9asCStringR11asCDataTypeR8asCArrayIS8_ERSC_ISA_ERSC_I16asETypeModifiersERSC_IPS8_Ebbbbbbbb
openspades:_ZN10asCBuilder23CheckNameConflictMemberEP11asCTypeInfoPKcP13asCScriptNodeP13asCScriptCodeb
openspades:_ZN10asCBuilder23DoesGlobalPropertyExistEPKcP12asSNameSpacePP17asCGlobalPropertyPP26sGlobalVariableDescriptionPb
openspades:_ZN10asCBuilder23GetFunctionDescriptionsEPKcR8asCArrayIiEP12asSNameSpace
openspades:_ZN10asCBuilder23RegisterTypesFromScriptEP13asCScriptNodeP13asCScriptCodeP12asSNameSpace
openspades:_ZN10asCBuilder23RegisterVirtualPropertyEP13asCScriptNodeP13asCScriptCodeP13asCObjectTypebbP12asSNameSpaceb
openspades:_ZN10asCBuilder24GetCleanExpressionStringEP13asCScriptNodeP13asCScriptCode
openspades:_ZN10asCBuilder24GetParsedFunctionDetailsEP13asCScriptNodeP13asCScriptCodeP13asCObjectTypeR9asCStringR11asCDataTypeR8asCArrayIS6_ERSA_IS8_ERSA_I16asETypeModifiersERSA_IPS6_ERbSL_SL_SL_SL_SL_SL_SL_P12asSNameSpace
openspades:_ZN10asCBuilder24IncludeMethodsFromMixinsEP17sClassDeclaration
openspades:_ZN10asCBuilder24ParseFunctionDeclarationEP13asCObjectTypePKcP17asCScriptFunctionbP8asCArrayIbEPbP12asSNameSpacePP13asCScriptNodePS1_
openspades:_ZN10asCBuilder24ParseVariableDeclarationEPKcP12asSNameSpaceR9asCStringRS3_R11asCDataType
openspades:_ZN10asCBuilder24RegisterImportedFunctionEiP13asCScriptNodeP13asCScriptCodeP12asSNameSpace
openspades:_ZN10asCBuilder25EvaluateTemplateInstancesEjb
openspades:_ZN10asCBuilder26RegisterNonTypesFromScriptEP13asCScriptNodeP13asCScriptCodeP12asSNameSpace
openspades:_ZN10asCBuilder27GetNamespaceAndNameFromNodeEP13asCScriptNodeP13asCScriptCodeP12asSNameSpaceRS5_R9asCString
openspades:_ZN10asCBuilder27GetObjectMethodDescriptionsEPKcP13asCObjectTypeR8asCArrayIiEbRK9asCStringP13asCScriptNodeP13asCScriptCode
openspades:_ZN10asCBuilder27GetTemplateInstanceFromNodeEP13asCScriptNodeP13asCScriptCodeP13asCObjectTypeP12asSNameSpaceS5_PS1_
openspades:_ZN10asCBuilder27IncludePropertiesFromMixinsEP17sClassDeclaration
openspades:_ZN10asCBuilder28AddInterfaceFromMixinToClassEP17sClassDeclarationP13asCScriptNodeP11sMixinClass
openspades:_ZN10asCBuilder29GetTypeFromTypesKnownByObjectEPKcP13asCObjectType
openspades:_ZN10asCBuilder30RegisterScriptFunctionFromNodeEP13asCScriptNodeP13asCScriptCodeP13asCObjectTypebbP12asSNameSpacebb
openspades:_ZN10asCBuilder33CheckForConflictsDueToDefaultArgsEP13asCScriptCodeP13asCScriptNodeP17asCScriptFunctionP13asCObjectType
openspades:_ZN10asCBuilder5BuildEv
openspades:_ZN10asCBuilder5ResetEv
openspades:_ZN10asCBuilder7AddCodeEPKcS1_iiib
openspades:_ZN10asCBuilder7GetTypeEPKcP12asSNameSpaceP13asCObjectType
openspades:_ZN10asCBuilder9WriteInfoERK9asCStringP13asCScriptCodeP13asCScriptNode
openspades:_ZN10asCBuilder9WriteInfoERK9asCStringS2_iib
openspades:_ZN10asCBuilderC1EP15asCScriptEngineP9asCModule
openspades:_ZN10asCBuilderC2EP15asCScriptEngineP9asCModule
openspades:_ZN10asCBuilderD1Ev
openspades:_ZN10asCBuilderD2Ev
openspades:_ZN10asCContext10CleanStackEv
openspades:_ZN10asCContext10GetVarNameEjj
openspades:_ZN10asCContext10SetArgByteEjh
openspades:_ZN10asCContext10SetArgWordEjt
openspades:_ZN10asCContext11CallGenericEP17asCScriptFunction
openspades:_ZN10asCContext11ExecuteNextEv
openspades:_ZN10asCContext11GetFunctionEj
openspades:_ZN10asCContext11GetVarCountEj
openspades:_ZN10asCContext11SetArgDWordEjj
openspades:_ZN10asCContext11SetArgFloatEjf
openspades:_ZN10asCContext11SetArgQWordEjm
openspades:_ZN10asCContext11SetUserDataEPvm
openspades:_ZN10asCContext12DetachEngineEv
openspades:_ZN10asCContext12GetVarTypeIdEjj
openspades:_ZN10asCContext12IsVarInScopeEjj
openspades:_ZN10asCContext12PopCallStateEv
openspades:_ZN10asCContext12SetArgDoubleEjd
openspades:_ZN10asCContext12SetArgObjectEjPv
openspades:_ZN10asCContext12SetExceptionEPKc
openspades:_ZN10asCContext13GetLineNumberEjPiPPKc
openspades:_ZN10asCContext13GetReturnByteEv
openspades:_ZN10asCContext13GetReturnWordEv
openspades:_ZN10asCContext13GetThisTypeIdEj
openspades:_ZN10asCContext13PushCallStateEv
openspades:_ZN10asCContext13SetArgAddressEjPv
openspades:_ZN10asCContext13SetArgVarTypeEjPvi
openspades:_ZN10asCContext14GetReturnDWordEv
openspades:_ZN10asCContext14GetReturnFloatEv
openspades:_ZN10asCContext14GetReturnQWordEv
openspades:_ZN10asCContext14GetThisPointerEj
openspades:_ZN10asCContext15CleanStackFrameEv
openspades:_ZN10asCContext15GetAddressOfArgEj
openspades:_ZN10asCContext15GetAddressOfVarEjj
openspades:_ZN10asCContext15GetReturnDoubleEv
openspades:_ZN10asCContext15GetReturnObjectEv
openspades:_ZN10asCContext15SetLineCallbackE10asSFuncPtrPvi
openspades:_ZN10asCContext16CallLineCallbackEv
openspades:_ZN10asCContext16CleanArgsOnStackEv
openspades:_ZN10asCContext16GetReturnAddressEv
openspades:_ZN10asCContext17CleanReturnObjectEv
openspades:_ZN10asCContext17ClearLineCallbackEv
openspades:_ZN10asCContext17GetSystemFunctionEv
openspades:_ZN10asCContext17GetVarDeclarationEjjb
openspades:_ZN10asCContext17ReserveStackSpaceEj
openspades:_ZN10asCContext18CallScriptFunctionEP17asCScriptFunction
openspades:_ZN10asCContext18GetExceptionStringEv
openspades:_ZN10asCContext19CallInterfaceMethodEP17asCScriptFunction
openspades:_ZN10asCContext20DetermineLiveObjectsER8asCArrayIiEj
openspades:_ZN10asCContext20GetExceptionFunctionEv
openspades:_ZN10asCContext20SetExceptionCallbackE10asSFuncPtrPvi
openspades:_ZN10asCContext20SetInternalExceptionEPKc
openspades:_ZN10asCContext21CallExceptionCallbackEv
openspades:_ZN10asCContext21PrepareScriptFunctionEv
openspades:_ZN10asCContext22ClearExceptionCallbackEv
openspades:_ZN10asCContext22GetExceptionLineNumberEPiPPKc
openspades:_ZN10asCContext23GetAddressOfReturnValueEv
openspades:_ZN10asCContext5AbortEv
openspades:_ZN10asCContext7ExecuteEv
openspades:_ZN10asCContext7PrepareEP17asIScriptFunction
openspades:_ZN10asCContext7SuspendEv
openspades:_ZN10asCContext8PopStateEv
openspades:_ZN10asCContext9PushStateEv
openspades:_ZN10asCContext9SetObjectEPv
openspades:_ZN10asCContext9UnprepareEv
openspades:_ZN10asCContextC1EP15asCScriptEngineb
openspades:_ZN10asCContextC2EP15asCScriptEngineb
openspades:_ZN10asCContextD0Ev
openspades:_ZN10asCContextD1Ev
openspades:_ZN10asCContextD2Ev
openspades:_ZN10asCGeneric10GetArgByteEj
openspades:_ZN10asCGeneric10GetArgWordEj
openspades:_ZN10asCGeneric11GetArgDWordEj
openspades:_ZN10asCGeneric11GetArgFloatEj
openspades:_ZN10asCGeneric11GetArgQWordEj
openspades:_ZN10asCGeneric12GetArgDoubleEj
openspades:_ZN10asCGeneric12GetArgObjectEj
openspades:_ZN10asCGeneric13GetArgAddressEj
openspades:_ZN10asCGeneric13SetReturnByteEh
openspades:_ZN10asCGeneric13SetReturnWordEt
openspades:_ZN10asCGeneric14SetReturnDWordEj
openspades:_ZN10asCGeneric14SetReturnFloatEf
openspades:_ZN10asCGeneric14SetReturnQWordEm
openspades:_ZN10asCGeneric15GetAddressOfArgEj
openspades:_ZN10asCGeneric15SetReturnDoubleEd
openspades:_ZN10asCGeneric15SetReturnObjectEPv
openspades:_ZN10asCGeneric16GetReturnPointerEv
openspades:_ZN10asCGeneric16SetReturnAddressEPv
openspades:_ZN10asCGeneric26GetAddressOfReturnLocationEv
openspades:_ZN10asCGeneric9GetObjectEv
openspades:_ZN10asCGenericC1EP15asCScriptEngineP17asCScriptFunctionPvPj
openspades:_ZN10asCGenericC2EP15asCScriptEngineP17asCScriptFunctionPvPj
openspades:_ZN10asCGenericD0Ev
openspades:_ZN10asCGenericD1Ev
openspades:_ZN10asCGenericD2Ev
openspades:_ZN11VersionInfo14GetVersionInfoB5cxx11Ev
openspades:_ZN11asCByteCode10InstrDWORDE10asEBCInstrj
openspades:_ZN11asCByteCode10InstrFLOATE10asEBCInstrf
openspades:_ZN11asCByteCode10InstrQWORDE10asEBCInstrm
openspades:_ZN11asCByteCode10InstrSHORTE10asEBCInstrs
openspades:_ZN11asCByteCode10InstrW_PTRE10asEBCInstrsPv
openspades:_ZN11asCByteCode10InstrW_W_WE10asEBCInstriii
openspades:_ZN11asCByteCode11ExchangeVarEii
openspades:_ZN11asCByteCode11GetVarsUsedER8asCArrayIiE
openspades:_ZN11asCByteCode11InstrDOUBLEE10asEBCInstrd
openspades:_ZN11asCByteCode11IsTemporaryEi
openspades:_ZN11asCByteCode11PostProcessEv
openspades:_ZN11asCByteCode12CanBeSwappedEP18asCByteInstruction
openspades:_ZN11asCByteCode12GetLastInstrEv
openspades:_ZN11asCByteCode12InsertBeforeEP18asCByteInstructionS1_
openspades:_ZN11asCByteCode12InstrSHORT_BE10asEBCInstrsh
openspades:_ZN11asCByteCode12InstrSHORT_WE10asEBCInstrst
openspades:_ZN11asCByteCode12InstrW_FLOATE10asEBCInstrtf
openspades:_ZN11asCByteCode13InstrSHORT_DWE10asEBCInstrsj
openspades:_ZN11asCByteCode13InstrSHORT_QWE10asEBCInstrsm
openspades:_ZN11asCByteCode13IsTempRegUsedEP18asCByteInstruction
openspades:_ZN11asCByteCode13IsTempVarReadEP18asCByteInstructioni
openspades:_ZN11asCByteCode14AddInstructionEv
openspades:_ZN11asCByteCode15OptimizeLocallyERK8asCArrayIiE
openspades:_ZN11asCByteCode15RemoveLastInstrEv
openspades:_ZN11asCByteCode16InstrSHORT_DW_DWE10asEBCInstrsjj
openspades:_ZN11asCByteCode17DeleteInstructionEP18asCByteInstruction
openspades:_ZN11asCByteCode17InsertIfNotExistsER8asCArrayIiEi
openspades:_ZN11asCByteCode17IsInstrJmpOrLabelEP18asCByteInstruction
openspades:_ZN11asCByteCode17RemoveInstructionEP18asCByteInstruction
openspades:_ZN11asCByteCode17RemoveUnusedValueEP18asCByteInstructionPS1_
openspades:_ZN11asCByteCode18ExtractLineNumbersEv
openspades:_ZN11asCByteCode18IsSimpleExpressionEv
openspades:_ZN11asCByteCode18PostponeInitOfTempEP18asCByteInstructionPS1_
openspades:_ZN11asCByteCode19AddInstructionFirstEv
openspades:_ZN11asCByteCode19GetLastInstrValueDWEv
openspades:_ZN11asCByteCode20IsTempVarReadByInstrEP18asCByteInstructioni
openspades:_ZN11asCByteCode20ResolveJumpAddressesEv
openspades:_ZN11asCByteCode21ChangeFirstDeleteNextEP18asCByteInstruction10asEBCInstr
openspades:_ZN11asCByteCode21DeleteFirstChangeNextEP18asCByteInstruction10asEBCInstr
openspades:_ZN11asCByteCode21InsertFirstInstrDWORDE10asEBCInstrj
openspades:_ZN11asCByteCode21InsertFirstInstrQWORDE10asEBCInstrm
openspades:_ZN11asCByteCode25ExtractObjectVariableInfoEP17asCScriptFunction
openspades:_ZN11asCByteCode27IsTempVarOverwrittenByInstrEP18asCByteInstructioni
openspades:_ZN11asCByteCode3RetEi
openspades:_ZN11asCByteCode4CallE10asEBCInstrii
openspades:_ZN11asCByteCode4JmpPEij
openspades:_ZN11asCByteCode4LineEiii
openspades:_ZN11asCByteCode5AllocE10asEBCInstrPvii
openspades:_ZN11asCByteCode5BlockEb
openspades:_ZN11asCByteCode5InstrE10asEBCInstr
openspades:_ZN11asCByteCode5LabelEs
openspades:_ZN11asCByteCode6GoBackEP18asCByteInstruction
openspades:_ZN11asCByteCode6OutputEPj
openspades:_ZN11asCByteCode7AddCodeEPS_
openspades:_ZN11asCByteCode7AddPathER8asCArrayIP18asCByteInstructionES2_i
openspades:_ZN11asCByteCode7CallPtrE10asEBCInstrii
openspades:_ZN11asCByteCode7GetSizeEv
openspades:_ZN11asCByteCode7ObjInfoEii
openspades:_ZN11asCByteCode7VarDeclEi
openspades:_ZN11asCByteCode8ClearAllEv
openspades:_ZN11asCByteCode8FinalizeERK8asCArrayIiE
openspades:_ZN11asCByteCode8InstrINTE10asEBCInstri
openspades:_ZN11asCByteCode8InstrPTRE10asEBCInstrPv
openspades:_ZN11asCByteCode8InstrW_WE10asEBCInstrii
openspades:_ZN11asCByteCode8OptimizeEv
openspades:_ZN11asCByteCode9FindLabelEiP18asCByteInstructionPS1_Pi
openspades:_ZN11asCByteCode9GoForwardEP18asCByteInstruction
openspades:_ZN11asCByteCode9InstrWORDE10asEBCInstrt
openspades:_ZN11asCByteCode9InstrW_DWE10asEBCInstrtj
openspades:_ZN11asCByteCode9InstrW_QWE10asEBCInstrtm
openspades:_ZN11asCByteCode9IsVarUsedEi
openspades:_ZN11asCByteCodeC1EP15asCScriptEngine
openspades:_ZN11asCByteCodeC2EP15asCScriptEngine
openspades:_ZN11asCByteCodeD1Ev
openspades:_ZN11asCByteCodeD2Ev
openspades:_ZN11asCCompiler11CompileCaseEP13asCScriptNodeP11asCByteCode
openspades:_ZN11asCCompiler11DereferenceEP14asCExprContextb
openspades:_ZN11asCCompiler11FilterConstER8asCArrayIiEb
openspades:_ZN11asCCompiler11InformationERK9asCStringP13asCScriptNode
openspades:_ZN11asCCompiler12DoAssignmentEP14asCExprContextS1_S1_P13asCScriptNodeS3_10eTokenTypeS3_
openspades:_ZN11asCCompiler13GetPrecedenceEP13asCScriptNode
openspades:_ZN11asCCompiler13MatchArgumentEP17asCScriptFunctionPK14asCExprContextib
openspades:_ZN11asCCompiler13MatchArgumentER8asCArrayIiERS0_I20asSOverloadCandidateEPK14asCExprContextib
openspades:_ZN11asCCompiler14CallDestructorER11asCDataTypeibP11asCByteCode
openspades:_ZN11asCCompiler14CompileFactoryEP10asCBuilderP13asCScriptCodeP17asCScriptFunction
openspades:_ZN11asCCompiler14CompileRefCastEP14asCExprContextRK11asCDataTypebP13asCScriptNodeb
openspades:_ZN11asCCompiler14MatchFunctionsER8asCArrayIiERS0_IP14asCExprContextEP13asCScriptNodePKcPS0_I16asSNamedArgumentEP13asCObjectTypebbbRK9asCString
openspades:_ZN11asCCompiler14PrepareOperandEP14asCExprContextP13asCScriptNode
openspades:_ZN11asCCompiler15CompileAutoTypeER11asCDataTypeR14asCExprContextP13asCScriptNodeS5_
openspades:_ZN11asCCompiler15CompileFunctionEP10asCBuilderP13asCScriptCodeR8asCArrayI9asCStringEP13asCScriptNodeP17asCScriptFunctionP17sClassDeclaration
openspades:_ZN11asCCompiler15CompileInitListEP12asCExprValueP13asCScriptNodeP11asCByteCodei
openspades:_ZN11asCCompiler15CompileOperatorEP13asCScriptNodeP14asCExprContextS3_S3_10eTokenType
openspades:_ZN11asCCompiler15GetVariableSlotEi
openspades:_ZN11asCCompiler15MoveArgsToStackEiP11asCByteCodeR8asCArrayIP14asCExprContextEb
openspades:_ZN11asCCompiler15PrepareArgumentEP11asCDataTypeP14asCExprContextP13asCScriptNodebib
openspades:_ZN11asCCompiler16AddVariableScopeEbb
openspades:_ZN11asCCompiler16AllocateVariableERK11asCDataTypebb
openspades:_ZN11asCCompiler16CompileConditionEP13asCScriptNodeP14asCExprContext
openspades:_ZN11asCCompiler16CompileStatementEP13asCScriptNodePbP11asCByteCode
openspades:_ZN11asCCompiler16ConvertToPostFixEP13asCScriptNodeR8asCArrayIS1_E
openspades:_ZN11asCCompiler16DestroyVariablesEP11asCByteCode
openspades:_ZN11asCCompiler16FinalizeFunctionEv
openspades:_ZN11asCCompiler16IsVariableOnHeapEi
openspades:_ZN11asCCompiler16MakeFunctionCallEP14asCExprContextiP13asCObjectTypeR8asCArrayIS1_EP13asCScriptNodebii
openspades:_ZN11asCCompiler16PrepareArgument2EP14asCExprContextS1_P11asCDataTypebib
openspades:_ZN11asCCompiler17AfterFunctionCallEiR8asCArrayIP14asCExprContextES2_b
openspades:_ZN11asCCompiler17CompileAssignmentEP13asCScriptNodeP14asCExprContext
openspades:_ZN11asCCompiler17CompileConversionEP13asCScriptNodeP14asCExprContext
openspades:_ZN11asCCompiler17CompileExpressionEP13asCScriptNodeP14asCExprContext
openspades:_ZN11asCCompiler17CompileInitAsCopyER11asCDataTypeiP11asCByteCodeP14asCExprContextP13asCScriptNodeb
openspades:_ZN11asCCompiler17ConvertToVariableEP14asCExprContext
openspades:_ZN11asCCompiler17GetVariableOffsetEi
openspades:_ZN11asCCompiler17MergeExprBytecodeEP14asCExprContextS1_
openspades:_ZN11asCCompiler17PerformAssignmentEP12asCExprValueS1_P11asCByteCodeP13asCScriptNode
openspades:_ZN11asCCompiler18CompileDeclarationEP13asCScriptNodeP11asCByteCode
openspades:_ZN11asCCompiler18CompileIfStatementEP13asCScriptNodePbP11asCByteCode
openspades:_ZN11asCCompiler18ConvertToReferenceEP14asCExprContext
openspades:_ZN11asCCompiler18DeallocateVariableEi
openspades:_ZN11asCCompiler18DetermineNameSpaceERK9asCString
openspades:_ZN11asCCompiler18ImplicitConversionEP14asCExprContextRK11asCDataTypeP13asCScriptNode13EImplicitConvbb
openspades:_ZN11asCCompiler18PrintMatchingFuncsER8asCArrayIiEP13asCScriptNodeP13asCObjectType
openspades:_ZN11asCCompiler19CallCopyConstructorER11asCDataTypeibP11asCByteCodeP14asCExprContextP13asCScriptNodebb
openspades:_ZN11asCCompiler19CompileArgumentListEP13asCScriptNodeR8asCArrayIP14asCExprContextERS2_I16asSNamedArgumentE
openspades:_ZN11asCCompiler19CompileForStatementEP13asCScriptNodeP11asCByteCode
openspades:_ZN11asCCompiler19CompileFunctionCallEP13asCScriptNodeP14asCExprContextP13asCObjectTypebRK9asCString
openspades:_ZN11asCCompiler19CompileMathOperatorEP13asCScriptNodeP14asCExprContextS3_S3_10eTokenType
openspades:_ZN11asCCompiler19DetermineSingleFuncEP14asCExprContextP13asCScriptNode
openspades:_ZN11asCCompiler19PerformFunctionCallEiP14asCExprContextbP8asCArrayIS1_EP13asCObjectTypebii
openspades:_ZN11asCCompiler19PrepareFunctionCallEiP11asCByteCodeR8asCArrayIP14asCExprContextE
openspades:_ZN11asCCompiler19PushVariableOnStackEP14asCExprContextb
openspades:_ZN11asCCompiler19RemoveVariableScopeEv
openspades:_ZN11asCCompiler20CompileConstructCallEP13asCScriptNodeP14asCExprContext
openspades:_ZN11asCCompiler20FindPropertyAccessorERK9asCStringP14asCExprContextP13asCScriptNodeP12asSNameSpaceb
openspades:_ZN11asCCompiler20FindPropertyAccessorERK9asCStringP14asCExprContextS4_P13asCScriptNodeP12asSNameSpaceb
openspades:_ZN11asCCompiler20PrepareForAssignmentEP11asCDataTypeP14asCExprContextP13asCScriptNodebS3_
openspades:_ZN11asCCompiler21AllocateVariableNotInERK11asCDataTypebbP14asCExprContext
openspades:_ZN11asCCompiler21CompileBreakStatementEP13asCScriptNodeP11asCByteCode
openspades:_ZN11asCCompiler21CompileExpressionTermEP13asCScriptNodeP14asCExprContext
openspades:_ZN11asCCompiler21CompileGlobalVariableEP10asCBuilderP13asCScriptCodeP13asCScriptNodeP26sGlobalVariableDescriptionP17asCScriptFunction
openspades:_ZN11asCCompiler21CompileInitializationEP13asCScriptNodeP11asCByteCodeR11asCDataTypeS1_iPmiP14asCExprContext
openspades:_ZN11asCCompiler21CompileStatementBlockEP13asCScriptNodebPbP11asCByteCode
openspades:_ZN11asCCompiler21CompileVariableAccessERK9asCStringS2_P14asCExprContextP13asCScriptNodebbbP13asCObjectType
openspades:_ZN11asCCompiler21CompileWhileStatementEP13asCScriptNodeP11asCByteCode
openspades:_ZN11asCCompiler21ConvertToTempVariableEP14asCExprContext
openspades:_ZN11asCCompiler21ImplicitConvObjectRefEP14asCExprContextRK11asCDataTypeP13asCScriptNode13EImplicitConvb
openspades:_ZN11asCCompiler21IsVariableInitializedEP12asCExprValueP13asCScriptNode
openspades:_ZN11asCCompiler21ProcessDeferredParamsEP14asCExprContext
openspades:_ZN11asCCompiler21ProcessStringConstantER9asCStringP13asCScriptNodeb
openspades:_ZN11asCCompiler22CallDefaultConstructorERK11asCDataTypeibP11asCByteCodeP13asCScriptNodeib
openspades:_ZN11asCCompiler22CompileBitwiseOperatorEP13asCScriptNodeP14asCExprContextS3_S3_10eTokenType
openspades:_ZN11asCCompiler22CompileBooleanOperatorEP13asCScriptNodeP14asCExprContextS3_S3_10eTokenType
openspades:_ZN11asCCompiler22CompileExpressionPreOpEP13asCScriptNodeP14asCExprContext
openspades:_ZN11asCCompiler22CompileExpressionValueEP13asCScriptNodeP14asCExprContext
openspades:_ZN11asCCompiler22CompileInitListElementERP18asSListPatternNodeRP13asCScriptNodeisRjR11asCByteCodeRi
openspades:_ZN11asCCompiler22CompileReturnStatementEP13asCScriptNodeP11asCByteCode
openspades:_ZN11asCCompiler22CompileSwitchStatementEP13asCScriptNodePbP11asCByteCode
openspades:_ZN11asCCompiler22ConvertToVariableNotInEP14asCExprContextS1_
openspades:_ZN11asCCompiler23CompileDoWhileStatementEP13asCScriptNodeP11asCByteCode
openspades:_ZN11asCCompiler23CompileExpressionPostOpEP13asCScriptNodeP14asCExprContext
openspades:_ZN11asCCompiler23ImplicitConvObjectValueEP14asCExprContextRK11asCDataTypeP13asCScriptNode13EImplicitConvb
openspades:_ZN11asCCompiler24CompileContinueStatementEP13asCScriptNodeP11asCByteCode
openspades:_ZN11asCCompiler24CompileOperatorOnHandlesEP13asCScriptNodeP14asCExprContextS3_S3_10eTokenType
openspades:_ZN11asCCompiler24CompilePostFixExpressionEP8asCArrayIP13asCScriptNodeEP14asCExprContext
openspades:_ZN11asCCompiler24ImplicitConvLambdaToFuncEP14asCExprContextRK11asCDataTypeP13asCScriptNode13EImplicitConvb
openspades:_ZN11asCCompiler24MergeExprBytecodeAndTypeEP14asCExprContextS1_
openspades:_ZN11asCCompiler24PrepareTemporaryVariableEP13asCScriptNodeP14asCExprContextb
openspades:_ZN11asCCompiler24ReleaseTemporaryVariableER12asCExprValueP11asCByteCode
openspades:_ZN11asCCompiler24ReleaseTemporaryVariableEiP11asCByteCode
openspades:_ZN11asCCompiler25CompileComparisonOperatorEP13asCScriptNodeP14asCExprContextS3_S3_10eTokenType
openspades:_ZN11asCCompiler25CompileDefaultConstructorEP10asCBuilderP13asCScriptCodeP13asCScriptNodeP17asCScriptFunctionP17sClassDeclaration
openspades:_ZN11asCCompiler26CompileDefaultAndNamedArgsEP13asCScriptNodeR8asCArrayIP14asCExprContextEiP13asCObjectTypePS2_I16asSNamedArgumentE
openspades:_ZN11asCCompiler26CompileExpressionStatementEP13asCScriptNodeP11asCByteCode
openspades:_ZN11asCCompiler26ConvertToTempVariableNotInEP14asCExprContextS1_
openspades:_ZN11asCCompiler26ImplicitConvObjectToObjectEP14asCExprContextRK11asCDataTypeP13asCScriptNode13EImplicitConvbb
openspades:_ZN11asCCompiler26ImplicitConversionConstantEP14asCExprContextRK11asCDataTypeP13asCScriptNode13EImplicitConv
openspades:_ZN11asCCompiler26ProcessPropertyGetAccessorEP14asCExprContextP13asCScriptNode
openspades:_ZN11asCCompiler26ProcessPropertySetAccessorEP14asCExprContextS1_P13asCScriptNode
openspades:_ZN11asCCompiler27CompileMemberInitializationEP11asCByteCodeb
openspades:_ZN11asCCompiler28ProcessHeredocStringConstantER9asCStringP13asCScriptNode
openspades:_ZN11asCCompiler29CompileOverloadedDualOperatorEP13asCScriptNodeP14asCExprContextS3_S3_b10eTokenType
openspades:_ZN11asCCompiler29ImplicitConvObjectToPrimitiveEP14asCExprContextRK11asCDataTypeP13asCScriptNode13EImplicitConvb
openspades:_ZN11asCCompiler29ImplicitConvPrimitiveToObjectEP14asCExprContextRK11asCDataTypeP13asCScriptNode13EImplicitConvbb
openspades:_ZN11asCCompiler29ProcessPropertyGetSetAccessorEP14asCExprContextS1_S1_10eTokenTypeP13asCScriptNode
openspades:_ZN11asCCompiler30CompileOverloadedDualOperator2EP13asCScriptNodePKcP14asCExprContextS5_S5_bRK11asCDataType
openspades:_ZN11asCCompiler32ImplicitConvObjectToBestMathTypeEP14asCExprContextP13asCScriptNode
openspades:_ZN11asCCompiler32ImplicitConvPrimitiveToPrimitiveEP14asCExprContextRK11asCDataTypeP13asCScriptNode13EImplicitConvb
openspades:_ZN11asCCompiler32SetupParametersAndReturnVariableER8asCArrayI9asCStringEP13asCScriptNode
openspades:_ZN11asCCompiler5ErrorERK9asCStringP13asCScriptNode
openspades:_ZN11asCCompiler5ResetEP10asCBuilderP13asCScriptCodeP17asCScriptFunction
openspades:_ZN11asCCompiler7WarningERK9asCStringP13asCScriptNode
openspades:_ZN11asCCompiler8IsLValueER12asCExprValue
openspades:_ZN11asCCompiler9LineInstrEP11asCByteCodem
openspades:_ZN11asCCompilerC1EP15asCScriptEngine
openspades:_ZN11asCCompilerC2EP15asCScriptEngine
openspades:_ZN11asCCompilerD1Ev
openspades:_ZN11asCCompilerD2Ev
openspades:_ZN11asCDataType10CreateAutoEb
openspades:_ZN11asCDataType10CreateTypeEP11asCTypeInfob
openspades:_ZN11asCDataType10MakeHandleEbb
openspades:_ZN11asCDataType12MakeReadOnlyEb
openspades:_ZN11asCDataType13MakeReferenceEb
openspades:_ZN11asCDataType15CreatePrimitiveE10eTokenTypeb
openspades:_ZN11asCDataType16CreateNullHandleEv
openspades:_ZN11asCDataType17MakeHandleToConstEb
openspades:_ZN11asCDataType18CreateObjectHandleEP11asCTypeInfob
openspades:_ZN11asCDataType9MakeArrayEP15asCScriptEngineP9asCModule
openspades:_ZN11asCDataTypeC1ERKS_
openspades:_ZN11asCDataTypeC1Ev
openspades:_ZN11asCDataTypeC2ERKS_
openspades:_ZN11asCDataTypeC2Ev
openspades:_ZN11asCDataTypeD1Ev
openspades:_ZN11asCDataTypeD2Ev
openspades:_ZN11asCDataTypeaSERKS_
openspades:_ZN11asCEnumTypeD0Ev
openspades:_ZN11asCEnumTypeD1Ev
openspades:_ZN11asCEnumTypeD2Ev
openspades:_ZN11asCTypeInfo11SetUserDataEPvm
openspades:_ZN11asCTypeInfo13CleanUserDataEv
openspades:_ZN11asCTypeInfo14AddRefInternalEv
openspades:_ZN11asCTypeInfo14CastToEnumTypeEv
openspades:_ZN11asCTypeInfo15ReleaseInternalEv
openspades:_ZN11asCTypeInfo16CastToObjectTypeEv
openspades:_ZN11asCTypeInfo17CastToFuncdefTypeEv
openspades:_ZN11asCTypeInfo17CastToTypedefTypeEv
openspades:_ZN11asCTypeInfoC1EP15asCScriptEngine
openspades:_ZN11asCTypeInfoC1Ev
openspades:_ZN11asCTypeInfoC2EP15asCScriptEngine
openspades:_ZN11asCTypeInfoC2Ev
openspades:_ZN11asCTypeInfoD0Ev
openspades:_ZN11asCTypeInfoD1Ev
openspades:_ZN11asCTypeInfoD2Ev
openspades:_ZN12CScriptArray10CopyBufferEP12SArrayBufferS1_
openspades:_ZN12CScriptArray10InsertLastEPv
openspades:_ZN12CScriptArray10RemoveLastEv
openspades:_ZN12CScriptArray11GetRefCountEv
openspades:_ZN12CScriptArray11RemoveRangeEjj
openspades:_ZN12CScriptArray12CheckMaxSizeEj
openspades:_ZN12CScriptArray12CreateBufferEPP12SArrayBufferj
openspades:_ZN12CScriptArray12DeleteBufferEP12SArrayBuffer
openspades:_ZN12CScriptArray14EnumReferencesEP15asIScriptEngine
openspades:_ZN12CScriptArray14GetDataPointerEPv
openspades:_ZN12CScriptArray17ReleaseAllHandlesEP15asIScriptEngine
openspades:_ZN12CScriptArray18SetMemoryFunctionsEPFPvmEPFvS0_E
openspades:_ZN12CScriptArray19GetArrayItemPointerEi
openspades:_ZN12CScriptArray2AtEj
openspades:_ZN12CScriptArray4CopyEPvS0_
openspades:_ZN12CScriptArray4LessEPKvS1_bP16asIScriptContextP11SArrayCache
openspades:_ZN12CScriptArray4SortEjjb
openspades:_ZN12CScriptArray6CreateEP11asITypeInfo
openspades:_ZN12CScriptArray6CreateEP11asITypeInfoPv
openspades:_ZN12CScriptArray6CreateEP11asITypeInfoj
openspades:_ZN12CScriptArray6CreateEP11asITypeInfojPv
openspades:_ZN12CScriptArray6ResizeEij
openspades:_ZN12CScriptArray6ResizeEj
openspades:_ZN12CScriptArray7GetFlagEv
openspades:_ZN12CScriptArray7ReserveEj
openspades:_ZN12CScriptArray7ReverseEv
openspades:_ZN12CScriptArray7SetFlagEv
openspades:_ZN12CScriptArray7SortAscEjj
openspades:_ZN12CScriptArray7SortAscEv
openspades:_ZN12CScriptArray8DestructEP12SArrayBufferjj
openspades:_ZN12CScriptArray8InsertAtEjPv
openspades:_ZN12CScriptArray8InsertAtEjRKS_
openspades:_ZN12CScriptArray8PrecacheEv
openspades:_ZN12CScriptArray8RemoveAtEj
openspades:_ZN12CScriptArray8SetValueEjPv
openspades:_ZN12CScriptArray8SortDescEjj
openspades:_ZN12CScriptArray8SortDescEv
openspades:_ZN12CScriptArray9ConstructEP12SArrayBufferjj
openspades:_ZN12CScriptArray9GetBufferEv
openspades:_ZN12CScriptArrayC1EP11asITypeInfoPv
openspades:_ZN12CScriptArrayC1ERKS_
openspades:_ZN12CScriptArrayC1EjP11asITypeInfo
openspades:_ZN12CScriptArrayC1EjPvP11asITypeInfo
openspades:_ZN12CScriptArrayC2EP11asITypeInfoPv
openspades:_ZN12CScriptArrayC2ERKS_
openspades:_ZN12CScriptArrayC2EjP11asITypeInfo
openspades:_ZN12CScriptArrayC2EjPvP11asITypeInfo
openspades:_ZN12CScriptArrayD0Ev
openspades:_ZN12CScriptArrayD1Ev
openspades:_ZN12CScriptArrayD2Ev
openspades:_ZN12CScriptArrayaSERKS_
openspades:_ZN12asCExprValue11SetVariableERK11asCDataTypeib
openspades:_ZN12asCExprValue12GetConstantBEv
openspades:_ZN12asCExprValue12GetConstantDEv
openspades:_ZN12asCExprValue12GetConstantFEv
openspades:_ZN12asCExprValue12GetConstantWEv
openspades:_ZN12asCExprValue12SetConstantBERK11asCDataTypeh
openspades:_ZN12asCExprValue12SetConstantBEh
openspades:_ZN12asCExprValue12SetConstantDERK11asCDataTyped
openspades:_ZN12asCExprValue12SetConstantDEd
openspades:_ZN12asCExprValue12SetConstantFERK11asCDataTypef
openspades:_ZN12asCExprValue12SetConstantFEf
openspades:_ZN12asCExprValue12SetConstantWERK11asCDataTypet
openspades:_ZN12asCExprValue12SetConstantWEt
openspades:_ZN12asCExprValue13GetConstantDWEv
openspades:_ZN12asCExprValue13GetConstantQWEv
openspades:_ZN12asCExprValue13SetConstantDWERK11asCDataTypej
openspades:_ZN12asCExprValue13SetConstantDWEj
openspades:_ZN12asCExprValue13SetConstantQWERK11asCDataTypem
openspades:_ZN12asCExprValue13SetConstantQWEm
openspades:_ZN12asCExprValue15GetConstantDataEv
openspades:_ZN12asCExprValue15SetConstantDataERK11asCDataTypem
openspades:_ZN12asCExprValue15SetNullConstantEv
openspades:_ZN12asCExprValue22SetUndefinedFuncHandleEP15asCScriptEngine
openspades:_ZN12asCExprValue3SetERK11asCDataType
openspades:_ZN12asCExprValue7SetVoidEv
openspades:_ZN12asCExprValue8SetDummyEv
openspades:_ZN12asCExprValueC1Ev
openspades:_ZN12asCExprValueC2Ev
openspades:_ZN12asCMemoryMgr14FreeScriptNodeEPv
openspades:_ZN12asCMemoryMgr15AllocScriptNodeEv
openspades:_ZN12asCMemoryMgr16FreeUnusedMemoryEv
openspades:_ZN12asCMemoryMgr19FreeByteInstructionEPv
openspades:_ZN12asCMemoryMgr20AllocByteInstructionEv
openspades:_ZN12asCMemoryMgrC1Ev
openspades:_ZN12asCMemoryMgrC2Ev
openspades:_ZN12asCMemoryMgrD1Ev
openspades:_ZN12asCMemoryMgrD2Ev
openspades:_ZN12asCTokenizer13GetDefinitionEi
openspades:_ZN12asCTokenizerC1Ev
openspades:_ZN12asCTokenizerC2Ev
openspades:_ZN12asCTokenizerD1Ev
openspades:_ZN12asCTokenizerD2Ev
openspades:_ZN13CScriptHandle12AddRefHandleEv
openspades:_ZN13CScriptHandle13ReleaseHandleEv
openspades:_ZN13CScriptHandle3SetEPvP11asITypeInfo
openspades:_ZN13CScriptHandle4CastEPPvi
openspades:_ZN13CScriptHandle6AssignEPvi
openspades:_ZN13CScriptHandle6GetRefEv
openspades:_ZN13CScriptHandleC1EPvP11asITypeInfo
openspades:_ZN13CScriptHandleC1EPvi
openspades:_ZN13CScriptHandleC1ERKS_
openspades:_ZN13CScriptHandleC1Ev
openspades:_ZN13CScriptHandleC2EPvP11asITypeInfo
openspades:_ZN13CScriptHandleC2EPvi
openspades:_ZN13CScriptHandleC2ERKS_
openspades:_ZN13CScriptHandleC2Ev
openspades:_ZN13CScriptHandleD1Ev
openspades:_ZN13CScriptHandleD2Ev
openspades:_ZN13CScriptHandleaSERKS_
openspades:_ZN13asCObjectType15DestroyInternalEv
openspades:_ZN13asCObjectType18AddPropertyToClassERK9asCStringRK11asCDataTypebbb
openspades:_ZN13asCObjectType19ReleaseAllFunctionsEv
openspades:_ZN13asCObjectType20ReleaseAllPropertiesEv
openspades:_ZN13asCObjectTypeC1EP15asCScriptEngine
openspades:_ZN13asCObjectTypeC1Ev
openspades:_ZN13asCObjectTypeC2EP15asCScriptEngine
openspades:_ZN13asCObjectTypeC2Ev
openspades:_ZN13asCObjectTypeD0Ev
openspades:_ZN13asCObjectTypeD1Ev
openspades:_ZN13asCObjectTypeD2Ev
openspades:_ZN13asCScriptCode11TokenEqualsEmmPKc
openspades:_ZN13asCScriptCode18ConvertPosToRowColEmPiS0_
openspades:_ZN13asCScriptCode7SetCodeEPKcS1_b
openspades:_ZN13asCScriptCode7SetCodeEPKcS1_mb
openspades:_ZN13asCScriptCodeC1Ev
openspades:_ZN13asCScriptCodeC2Ev
openspades:_ZN13asCScriptCodeD1Ev
openspades:_ZN13asCScriptCodeD2Ev
openspades:_ZN13asCScriptNode10CreateCopyEP15asCScriptEngine
openspades:_ZN13asCScriptNode12AddChildLastEPS_
openspades:_ZN13asCScriptNode15UpdateSourcePosEmm
openspades:_ZN13asCScriptNode16DisconnectParentEv
openspades:_ZN13asCScriptNode7DestroyEP15asCScriptEngine
openspades:_ZN13asCScriptNode8SetTokenEP6sToken
openspades:_ZN13asCScriptNodeC1E11eScriptNode
openspades:_ZN13asCScriptNodeC2E11eScriptNode
openspades:_ZN14CScriptBuilder10DefineWordEPKc
openspades:_ZN14CScriptBuilder11BuildModuleEv
openspades:_ZN14CScriptBuilder11ExcludeCodeEi
openspades:_ZN14CScriptBuilder13OverwriteCodeEii
openspades:_ZN14CScriptBuilder13SkipStatementEi
openspades:_ZN14CScriptBuilder14StartNewModuleEP15asIScriptEnginePKc
openspades:_ZN14CScriptBuilder17LoadScriptSectionEPKc
openspades:_ZN14CScriptBuilder18AddSectionFromFileEPKc
openspades:_ZN14CScriptBuilder18ExtractDeclarationEiRNSt7__cxx1112basic_stringIcSt11char_traitsIcESaIcEEERi
openspades:_ZN14CScriptBuilder18SetIncludeCallbackEPFiPKcS1_PS_PvES3_
openspades:_ZN14CScriptBuilder20AddSectionFromMemoryEPKcS1_ji
openspades:_ZN14CScriptBuilder20ProcessScriptSectionEPKcjS1_i
openspades:_ZN14CScriptBuilder21ExtractMetadataStringEiRNSt7__cxx1112basic_stringIcSt11char_traitsIcESaIcEEE
openspades:_ZN14CScriptBuilder23GetMetadataStringForVarEi
openspades:_ZN14CScriptBuilder24GetMetadataStringForFuncEP17asIScriptFunction
openspades:_ZN14CScriptBuilder24GetMetadataStringForTypeEi
openspades:_ZN14CScriptBuilder27IncludeIfNotAlreadyIncludedEPKc
openspades:_ZN14CScriptBuilder30GetMetadataStringForTypeMethodEiP17asIScriptFunction
openspades:_ZN14CScriptBuilder32GetMetadataStringForTypePropertyEii
openspades:_ZN14CScriptBuilder5BuildEv
openspades:_ZN14CScriptBuilder8ClearAllEv
openspades:_ZN14CScriptBuilder9GetModuleEv
openspades:_ZN14CScriptBuilderC1Ev
openspades:_ZN14CScriptBuilderC2Ev
openspades:_ZN14CScriptWeakRef3SetEPv
openspades:_ZN14CScriptWeakRefC1EP11asITypeInfo
openspades:_ZN14CScriptWeakRefC1EPvP11asITypeInfo
openspades:_ZN14CScriptWeakRefC1ERKS_
openspades:_ZN14CScriptWeakRefC2EP11asITypeInfo
openspades:_ZN14CScriptWeakRefC2EPvP11asITypeInfo
openspades:_ZN14CScriptWeakRefC2ERKS_
openspades:_ZN14CScriptWeakRefD1Ev
openspades:_ZN14CScriptWeakRefD2Ev
openspades:_ZN14CScriptWeakRefaSERKS_
openspades:_ZN14asCConfigGroup14HasLiveObjectsEv
openspades:_ZN14asCConfigGroup14RefConfigGroupEPS_
openspades:_ZN14asCConfigGroup19RemoveConfigurationEP15asCScriptEngineb
openspades:_ZN14asCConfigGroup20AddReferencesForFuncEP15asCScriptEngineP17asCScriptFunction
openspades:_ZN14asCConfigGroup20AddReferencesForTypeEP15asCScriptEngineP11asCTypeInfo
openspades:_ZN14asCConfigGroup6AddRefEv
openspades:_ZN14asCConfigGroup7ReleaseEv
openspades:_ZN14asCConfigGroup8FindTypeEPKc
openspades:_ZN14asCConfigGroupC1Ev
openspades:_ZN14asCConfigGroupC2Ev
openspades:_ZN14asCConfigGroupD1Ev
openspades:_ZN14asCConfigGroupD2Ev
openspades:_ZN14asCExprContext17SetVoidExpressionEv
openspades:_ZN14asCExprContext5ClearEv
openspades:_ZN14asCExprContext5MergeEPS_
openspades:_ZN14asCExprContext9SetLambdaEP13asCScriptNode
openspades:_ZN14asCExprContextC1EP15asCScriptEngine
openspades:_ZN14asCExprContextC2EP15asCScriptEngine
openspades:_ZN14asCExprContextD1Ev
openspades:_ZN14asCExprContextD2Ev
openspades:_ZN14asCFuncdefType15DestroyInternalEv
openspades:_ZN14asCFuncdefTypeC1EP15asCScriptEngineP17asCScriptFunction
openspades:_ZN14asCFuncdefTypeC2EP15asCScriptEngineP17asCScriptFunction
openspades:_ZN14asCFuncdefTypeD0Ev
openspades:_ZN14asCFuncdefTypeD1Ev
openspades:_ZN14asCFuncdefTypeD2Ev
openspades:_ZN14asCTypedefType15DestroyInternalEv
openspades:_ZN14asCTypedefTypeD0Ev
openspades:_ZN14asCTypedefTypeD1Ev
openspades:_ZN14asCTypedefTypeD2Ev
openspades:_ZN15asCOutputBuffer14SendToCallbackEP15asCScriptEngineP26asSSystemFunctionInterfacePv
openspades:_ZN15asCOutputBuffer5ClearEv
openspades:_ZN15asCOutputBuffer6AppendERS_
openspades:_ZN15asCOutputBuffer8CallbackEP14asSMessageInfo
openspades:_ZN15asCOutputBufferD1Ev
openspades:_ZN15asCOutputBufferD2Ev
openspades:_ZN15asCScriptEngine11ConfigErrorEiPKcS1_S1_
openspades:_ZN15asCScriptEngine11DestroyListEPhPK13asCObjectType
openspades:_ZN15asCScriptEngine11SetUserDataEPvm
openspades:_ZN15asCScriptEngine12AddNameSpaceEPKc
openspades:_ZN15asCScriptEngine12RegisterEnumEPKc
openspades:_ZN15asCScriptEngine12RequestBuildEv
openspades:_ZN15asCScriptEngine12WriteMessageEPKcii10asEMsgTypeS1_
openspades:_ZN15asCScriptEngine13CreateContextEPP16asIScriptContextb
openspades:_ZN15asCScriptEngine13CreateContextEv
openspades:_ZN15asCScriptEngine13DiscardModuleEPKc
openspades:_ZN15asCScriptEngine13GetObjectInGCEjPjPPvPP11asITypeInfo
openspades:_ZN15asCScriptEngine13PrepareEngineEv
openspades:_ZN15asCScriptEngine13RefCastObjectEPvP11asITypeInfoS2_PS0_b
openspades:_ZN15asCScriptEngine13RemoveFuncdefEP14asCFuncdefType
openspades:_ZN15asCScriptEngine13ReturnContextEP16asIScriptContext
openspades:_ZN15asCScriptEngine14BuildCompletedEv
openspades:_ZN15asCScriptEngine14CreateDelegateEP17asIScriptFunctionPv
openspades:_ZN15asCScriptEngine14DestroySubListERPhRP18asSListPatternNode
openspades:_ZN15asCScriptEngine14EndConfigGroupEv
openspades:_ZN15asCScriptEngine14GCEnumCallbackEPv
openspades:_ZN15asCScriptEngine14GarbageCollectEjj
openspades:_ZN15asCScriptEngine14RequestContextEv
openspades:_ZN15asCScriptEngine14SetJITCompilerEP14asIJITCompiler
openspades:_ZN15asCScriptEngine15RegisterFuncdefEPKc
openspades:_ZN15asCScriptEngine15RegisterTypedefEPKcS1_
openspades:_ZN15asCScriptEngine16BeginConfigGroupEPKc
openspades:_ZN15asCScriptEngine17AddConstantStringEPKcm
openspades:_ZN15asCScriptEngine17AddScriptFunctionEP17asCScriptFunction
openspades:_ZN15asCScriptEngine17GetConstantStringEi
openspades:_ZN15asCScriptEngine17GetMethodIdByDeclEPK13asCObjectTypePKcP9asCModule
openspades:_ZN15asCScriptEngine17RegisterEnumValueEPKcS1_i
openspades:_ZN15asCScriptEngine17RegisterInterfaceEPKc
openspades:_ZN15asCScriptEngine17RemoveConfigGroupEPKc
openspades:_ZN15asCScriptEngine17SetEnginePropertyE13asEEnginePropm
openspades:_ZN15asCScriptEngine18AddRefScriptObjectEPvPK11asITypeInfo
openspades:_ZN15asCScriptEngine18AssignScriptObjectEPvS0_PK11asITypeInfo
openspades:_ZN15asCScriptEngine18CreateScriptObjectEPK11asITypeInfo
openspades:_ZN15asCScriptEngine18GetFactoryIdByDeclEPK13asCObjectTypePKc
openspades:_ZN15asCScriptEngine18GetListPatternTypeEi
openspades:_ZN15asCScriptEngine18RegisterObjectTypeEPKcij
openspades:_ZN15asCScriptEngine18SetMessageCallbackERK10asSFuncPtrPvj
openspades:_ZN15asCScriptEngine18ShutDownAndReleaseEv
openspades:_ZN15asCScriptEngine19FindMatchingFuncdefEP17asCScriptFunctionP9asCModule
openspades:_ZN15asCScriptEngine19GetModuleFromFuncIdEi
openspades:_ZN15asCScriptEngine19ReleaseScriptObjectEPvPK11asITypeInfo
openspades:_ZN15asCScriptEngine19RemoveFromTypeIdMapEP11asCTypeInfo
openspades:_ZN15asCScriptEngine19SetContextCallbacksEPFP16asIScriptContextP15asIScriptEnginePvEPFvS3_S1_S4_ES4_
openspades:_ZN15asCScriptEngine19SetDefaultNamespaceEPKc
openspades:_ZN15asCScriptEngine20AddBehaviourFunctionER17asCScriptFunctionR26asSSystemFunctionInterface
openspades:_ZN15asCScriptEngine20ClearMessageCallbackEv
openspades:_ZN15asCScriptEngine20RegisterObjectMethodEPKcS1_RK10asSFuncPtrjPv
openspades:_ZN15asCScriptEngine20RemoveGlobalPropertyEP17asCGlobalProperty
openspades:_ZN15asCScriptEngine20RemoveScriptFunctionEP17asCScriptFunction
openspades:_ZN15asCScriptEngine20SetDefaultAccessMaskEj
openspades:_ZN15asCScriptEngine21RegisterStringFactoryEPKcRK10asSFuncPtrjPv
openspades:_ZN15asCScriptEngine22AllocateGlobalPropertyEv
openspades:_ZN15asCScriptEngine22CreateScriptObjectCopyEPvPK11asITypeInfo
openspades:_ZN15asCScriptEngine22DeleteDiscardedModulesEv
openspades:_ZN15asCScriptEngine22GetFunctionDeclarationEi
openspades:_ZN15asCScriptEngine22RegisterGlobalFunctionEPKcRK10asSFuncPtrjPv
openspades:_ZN15asCScriptEngine22RegisterGlobalPropertyEPKcPv
openspades:_ZN15asCScriptEngine22RegisterObjectPropertyEPKcS1_i
openspades:_ZN15asCScriptEngine22RequireTypeReplacementER11asCDataTypeP13asCObjectType
openspades:_ZN15asCScriptEngine23GetNextScriptFunctionIdEv
openspades:_ZN15asCScriptEngine23GetTemplateInstanceTypeEP13asCObjectTypeR8asCArrayI11asCDataTypeEP9asCModule
openspades:_ZN15asCScriptEngine23RegisterInterfaceMethodEPKcS1_
openspades:_ZN15asCScriptEngine23RegisterObjectBehaviourEPKc13asEBehavioursS1_RK10asSFuncPtrjPv
openspades:_ZN15asCScriptEngine23SetTemplateRestrictionsEP13asCObjectTypeP17asCScriptFunctionPKcS5_
openspades:_ZN15asCScriptEngine24DetermineTypeForTemplateERK11asCDataTypeP13asCObjectTypeS4_
openspades:_ZN15asCScriptEngine24RegisterDefaultArrayTypeEPKc
openspades:_ZN15asCScriptEngine25ConstructScriptObjectCopyEPvS0_P13asCObjectType
openspades:_ZN15asCScriptEngine25FindNewOwnerForSharedFuncEP17asCScriptFunctionP9asCModule
openspades:_ZN15asCScriptEngine25FindNewOwnerForSharedTypeEP11asCTypeInfoP9asCModule
openspades:_ZN15asCScriptEngine25GetScriptSectionNameIndexEPKc
openspades:_ZN15asCScriptEngine26GenerateNewTemplateFuncdefEP13asCObjectTypeS1_P14asCFuncdefType
openspades:_ZN15asCScriptEngine26RegisterMethodToObjectTypeEP13asCObjectTypePKcRK10asSFuncPtrjPv
openspades:_ZN15asCScriptEngine26RemoveTemplateInstanceTypeEP13asCObjectType
openspades:_ZN15asCScriptEngine26VerifyVarTypeNotInFunctionEP17asCScriptFunction
openspades:_ZN15asCScriptEngine27GenerateNewTemplateFunctionEP13asCObjectTypeS1_P17asCScriptFunctionPS3_
openspades:_ZN15asCScriptEngine27GenerateTemplateFactoryStubEP13asCObjectTypeS1_i
openspades:_ZN15asCScriptEngine29RegisterBehaviourToObjectTypeEP13asCObjectType13asEBehavioursPKcRK10asSFuncPtrjPv
openspades:_ZN15asCScriptEngine31CreateUninitializedScriptObjectEPK11asITypeInfo
openspades:_ZN15asCScriptEngine32SetEngineUserDataCleanupCallbackEPFvP15asIScriptEngineEm
openspades:_ZN15asCScriptEngine32SetModuleUserDataCleanupCallbackEPFvP15asIScriptModuleEm
openspades:_ZN15asCScriptEngine33NotifyGarbageCollectorOfNewObjectEPvP11asITypeInfo
openspades:_ZN15asCScriptEngine33SetContextUserDataCleanupCallbackEPFvP16asIScriptContextEm
openspades:_ZN15asCScriptEngine34SetFunctionUserDataCleanupCallbackEPFvP17asIScriptFunctionEm
openspades:_ZN15asCScriptEngine34SetTypeInfoUserDataCleanupCallbackEPFvP11asITypeInfoEm
openspades:_ZN15asCScriptEngine38SetScriptObjectUserDataCleanupCallbackEPFvP15asIScriptObjectEm
openspades:_ZN15asCScriptEngine9GetModuleEPKc10asEGMFlags
openspades:_ZN15asCScriptEngine9GetModuleEPKcb
openspades:_ZN15asCScriptEngineC1Ev
openspades:_ZN15asCScriptEngineC2Ev
openspades:_ZN15asCScriptEngineD0Ev
openspades:_ZN15asCScriptEngineD1Ev
openspades:_ZN15asCScriptEngineD2Ev
openspades:_ZN15asCScriptObject10CopyHandleEPmS0_P13asCObjectTypeP15asCScriptEngine
openspades:_ZN15asCScriptObject10CopyObjectEPvS0_P13asCObjectTypeP15asCScriptEngine
openspades:_ZN15asCScriptObject10FreeObjectEPvP13asCObjectTypeP15asCScriptEngine
openspades:_ZN15asCScriptObject11GetRefCountEv
openspades:_ZN15asCScriptObject11SetUserDataEPvm
openspades:_ZN15asCScriptObject14CallDestructorEv
openspades:_ZN15asCScriptObject14EnumReferencesEP15asIScriptEngine
openspades:_ZN15asCScriptObject17ReleaseAllHandlesEP15asIScriptEngine
openspades:_ZN15asCScriptObject20GetAddressOfPropertyEj
openspades:_ZN15asCScriptObject27AllocateUninitializedObjectEP13asCObjectTypeP15asCScriptEngine
openspades:_ZN15asCScriptObject7GetFlagEv
openspades:_ZN15asCScriptObject7SetFlagEv
openspades:_ZN15asCScriptObject8CopyFromEP15asIScriptObject
openspades:_ZN15asCScriptObject8DestructEv
openspades:_ZN15asCScriptObjectC1EP13asCObjectTypeb
openspades:_ZN15asCScriptObjectC2EP13asCObjectTypeb
openspades:_ZN15asCScriptObjectD0Ev
openspades:_ZN15asCScriptObjectD1Ev
openspades:_ZN15asCScriptObjectD2Ev
openspades:_ZN15asCScriptObjectaSERKS_
openspades:_ZN16CScriptDictValue3SetEP15asIScriptEnginePvi
openspades:_ZN16CScriptDictValue3SetEP15asIScriptEngineRKd
openspades:_ZN16CScriptDictValue3SetEP15asIScriptEngineRKl
openspades:_ZN16CScriptDictValue3SetEP15asIScriptEngineRS_
openspades:_ZN16CScriptDictValue9FreeValueEP15asIScriptEngine
openspades:_ZN16CScriptDictValueC1EP15asIScriptEnginePvi
openspades:_ZN16CScriptDictValueC1Ev
openspades:_ZN16CScriptDictValueC2EP15asIScriptEnginePvi
openspades:_ZN16CScriptDictValueC2Ev
openspades:_ZN16CScriptDictValueD1Ev
openspades:_ZN16CScriptDictValueD2Ev
openspades:_ZN16asCStringPointerC1EP9asCString
openspades:_ZN16asCStringPointerC1EPKcm
openspades:_ZN16asCStringPointerC1Ev
openspades:_ZN16asCStringPointerC2EP9asCString
openspades:_ZN16asCStringPointerC2EPKcm
openspades:_ZN16asCStringPointerC2Ev
openspades:_ZN16asCThreadManager12GetLocalDataEv
openspades:_ZN16asCThreadManager16CleanupLocalDataEv
openspades:_ZN16asCThreadManager7PrepareEP16asIThreadManager
openspades:_ZN16asCThreadManager9UnprepareEv
openspades:_ZN16asCThreadManagerC1Ev
openspades:_ZN16asCThreadManagerC2Ev
openspades:_ZN16asCThreadManagerD0Ev
openspades:_ZN16asCThreadManagerD1Ev
openspades:_ZN16asCThreadManagerD2Ev
openspades:_ZN16asCVariableScope11GetVariableEPKc
openspades:_ZN16asCVariableScope15DeclareVariableEPKcRK11asCDataTypeib
openspades:_ZN16asCVariableScope19GetVariableByOffsetEi
openspades:_ZN16asCVariableScope5ResetEv
openspades:_ZN16asCVariableScopeC1EPS_
openspades:_ZN16asCVariableScopeC2EPS_
openspades:_ZN16asCVariableScopeD1Ev
openspades:_ZN16asCVariableScopeD2Ev
openspades:_ZN17CScriptDictionary11GetRefCountEv
openspades:_ZN17CScriptDictionary14EnumReferencesEP15asIScriptEngine
openspades:_ZN17CScriptDictionary20ReleaseAllReferencesEP15asIScriptEngine
openspades:_ZN17CScriptDictionary3SetERKNSt7__cxx1112basic_stringIcSt11char_traitsIcESaIcEEEPvi
openspades:_ZN17CScriptDictionary3SetERKNSt7__cxx1112basic_stringIcSt11char_traitsIcESaIcEEERKd
openspades:_ZN17CScriptDictionary3SetERKNSt7__cxx1112basic_stringIcSt11char_traitsIcESaIcEEERKl
openspades:_ZN17CScriptDictionary4InitEP15asIScriptEngine
openspades:_ZN17CScriptDictionary6CreateEP15asIScriptEngine
openspades:_ZN17CScriptDictionary6CreateEPh
openspades:_ZN17CScriptDictionary6DeleteERKNSt7__cxx1112basic_stringIcSt11char_traitsIcESaIcEEE
openspades:_ZN17CScriptDictionary9CIteratorC1ERKS_NSt8__detail20_Node_const_iteratorISt4pairIKNSt7__cxx1112basic_stringIcSt11char_traitsIcESaIcEEE16CScriptDictValueELb0ELb1EEE
openspades:_ZN17CScriptDictionary9CIteratorC2ERKS_NSt8__detail20_Node_const_iteratorISt4pairIKNSt7__cxx1112basic_stringIcSt11char_traitsIcESaIcEEE16CScriptDictValueELb0ELb1EEE
openspades:_ZN17CScriptDictionary9CIteratordeEv
openspades:_ZN17CScriptDictionary9CIteratorppEi
openspades:_ZN17CScriptDictionary9CIteratorppEv
openspades:_ZN17CScriptDictionary9DeleteAllEv
openspades:_ZN17CScriptDictionary9GetGCFlagEv
openspades:_ZN17CScriptDictionary9SetGCFlagEv
openspades:_ZN17CScriptDictionaryC1EP15asIScriptEngine
openspades:_ZN17CScriptDictionaryC1EPh
openspades:_ZN17CScriptDictionaryC2EP15asIScriptEngine
openspades:_ZN17CScriptDictionaryC2EPh
openspades:_ZN17CScriptDictionaryD0Ev
openspades:_ZN17CScriptDictionaryD1Ev
openspades:_ZN17CScriptDictionaryD2Ev
openspades:_ZN17CScriptDictionaryaSERKS_
openspades:_ZN17CScriptDictionaryixERKNSt7__cxx1112basic_stringIcSt11char_traitsIcESaIcEEE
openspades:_ZN17asCGlobalProperty11GetInitFuncEv
openspades:_ZN17asCGlobalProperty11SetInitFuncEP17asCScriptFunction
openspades:_ZN17asCGlobalProperty14AllocateMemoryEv
openspades:_ZN17asCGlobalProperty15DestroyInternalEv
openspades:_ZN17asCGlobalProperty17GetAddressOfValueEv
openspades:_ZN17asCGlobalProperty20SetRegisteredAddressEPv
openspades:_ZN17asCGlobalProperty6AddRefEv
openspades:_ZN17asCGlobalProperty7ReleaseEv
openspades:_ZN17asCGlobalPropertyC1Ev
openspades:_ZN17asCGlobalPropertyC2Ev
openspades:_ZN17asCGlobalPropertyD1Ev
openspades:_ZN17asCGlobalPropertyD2Ev
openspades:_ZN17asCScriptFunction10JITCompileEv
openspades:_ZN17asCScriptFunction11AddVariableER9asCStringR11asCDataTypei
openspades:_ZN17asCScriptFunction11GetByteCodeEPj
openspades:_ZN17asCScriptFunction11GetRefCountEv
openspades:_ZN17asCScriptFunction11SetUserDataEPvm
openspades:_ZN17asCScriptFunction12MakeDelegateEPS_Pv
openspades:_ZN17asCScriptFunction13AddReferencesEv
openspades:_ZN17asCScriptFunction13GetLineNumberEiPi
openspades:_ZN17asCScriptFunction14AddRefInternalEv
openspades:_ZN17asCScriptFunction14EnumReferencesEP15asIScriptEngine
openspades:_ZN17asCScriptFunction15DestroyInternalEv
openspades:_ZN17asCScriptFunction15ReleaseInternalEv
openspades:_ZN17asCScriptFunction16ParseListPatternERP18asSListPatternNodePKcP13asCScriptNode
openspades:_ZN17asCScriptFunction17ReleaseAllHandlesEP15asIScriptEngine
openspades:_ZN17asCScriptFunction17ReleaseReferencesEv
openspades:_ZN17asCScriptFunction18ComputeSignatureIdEv
openspades:_ZN17asCScriptFunction18DestroyHalfCreatedEv
openspades:_ZN17asCScriptFunction19RegisterListPatternEPKcP13asCScriptNode
openspades:_ZN17asCScriptFunction21GetTypeInfoOfLocalVarEs
openspades:_ZN17asCScriptFunction25GetPropertyByGlobalVarPtrEPv
openspades:_ZN17asCScriptFunction26AllocateScriptFunctionDataEv
openspades:_ZN17asCScriptFunction26GetSpaceNeededForArgumentsEv
openspades:_ZN17asCScriptFunction28DeallocateScriptFunctionDataEv
openspades:_ZN17asCScriptFunction28GetSpaceNeededForReturnValueEv
openspades:_ZN17asCScriptFunction7GetFlagEv
openspades:_ZN17asCScriptFunction7SetFlagEv
openspades:_ZN17asCScriptFunctionC1EP15asCScriptEngineP9asCModule11asEFuncType
openspades:_ZN17asCScriptFunctionC2EP15asCScriptEngineP9asCModule11asEFuncType
openspades:_ZN17asCScriptFunctionD0Ev
openspades:_ZN17asCScriptFunctionD1Ev
openspades:_ZN17asCScriptFunctionD2Ev
openspades:_ZN18asCByteInstruction16GetStackIncreaseEv
openspades:_ZN18asCByteInstruction6RemoveEv
openspades:_ZN18asCByteInstruction7GetSizeEv
openspades:_ZN18asCByteInstruction8AddAfterEPS_
openspades:_ZN18asCByteInstruction9AddBeforeEPS_
openspades:_ZN18asCByteInstructionC1Ev
openspades:_ZN18asCByteInstructionC2Ev
openspades:_ZN18asCThreadLocalDataC1Ev
openspades:_ZN18asCThreadLocalDataC2Ev
openspades:_ZN18asCThreadLocalDataD1Ev
openspades:_ZN18asCThreadLocalDataD2Ev
openspades:_ZN19asCGarbageCollector10ReturnNodeEP10asSMapNodeIPvNS_14asSIntTypePairEE
openspades:_ZN19asCGarbageCollector13GetObjectInGCEjPjPPvPP11asITypeInfo
openspades:_ZN19asCGarbageCollector14GCEnumCallbackEPv
openspades:_ZN19asCGarbageCollector14GarbageCollectEjj
openspades:_ZN19asCGarbageCollector17DestroyNewGarbageEv
openspades:_ZN19asCGarbageCollector17DestroyOldGarbageEv
openspades:_ZN19asCGarbageCollector17GetNewObjectAtIdxEi
openspades:_ZN19asCGarbageCollector17GetOldObjectAtIdxEi
openspades:_ZN19asCGarbageCollector19AddScriptObjectToGCEPvP13asCObjectType
openspades:_ZN19asCGarbageCollector19MoveObjectToOldListEi
openspades:_ZN19asCGarbageCollector20RemoveNewObjectAtIdxEi
openspades:_ZN19asCGarbageCollector20RemoveOldObjectAtIdxEi
openspades:_ZN19asCGarbageCollector23MoveAllObjectsToOldListEv
openspades:_ZN19asCGarbageCollector29IdentifyGarbageWithCyclicRefsEv
openspades:_ZN19asCGarbageCollector34ReportAndReleaseUndestroyedObjectsEv
openspades:_ZN19asCGarbageCollector7GetNodeEPvNS_14asSIntTypePairE
openspades:_ZN19asCGarbageCollectorC1Ev
openspades:_ZN19asCGarbageCollectorC2Ev
openspades:_ZN19asCGarbageCollectorD1Ev
openspades:_ZN19asCGarbageCollectorD2Ev
openspades:_ZN21asCLockableSharedBool3SetEb
openspades:_ZN21asCLockableSharedBoolC1Ev
openspades:_ZN21asCLockableSharedBoolC2Ev
openspades:_ZN22asCThreadReadWriteLock13AcquireSharedEv
openspades:_ZN22asCThreadReadWriteLock13ReleaseSharedEv
openspades:_ZN22asCThreadReadWriteLock16AcquireExclusiveEv
openspades:_ZN22asCThreadReadWriteLock16ReleaseExclusiveEv
openspades:_ZN22asCThreadReadWriteLockC1Ev
openspades:_ZN22asCThreadReadWriteLockC2Ev
openspades:_ZN22asCThreadReadWriteLockD1Ev
openspades:_ZN22asCThreadReadWriteLockD2Ev
openspades:_ZN24asCThreadCriticalSection5EnterEv
openspades:_ZN24asCThreadCriticalSection5LeaveEv
openspades:_ZN24asCThreadCriticalSection8TryEnterEv
openspades:_ZN24asCThreadCriticalSectionC1Ev
openspades:_ZN24asCThreadCriticalSectionC2Ev
openspades:_ZN24asCThreadCriticalSectionD1Ev
openspades:_ZN24asCThreadCriticalSectionD2Ev
openspades:_ZN2al10CheckErrorEPKcS1_i
openspades:_ZN2al10CheckErrorEv
openspades:_ZN2al10qalDisableE
openspades:_ZN2al10qalEffectfE
openspades:_ZN2al10qalEffectiE
openspades:_ZN2al10qalFilterfE
openspades:_ZN2al10qalFilteriE
openspades:_ZN2al10qalSourcefE
openspades:_ZN2al10qalSourceiE
openspades:_ZN2al11qalEffectfvE
openspades:_ZN2al11qalEffectivE
openspades:_ZN2al11qalFilterfvE
openspades:_ZN2al11qalFilterivE
openspades:_ZN2al11qalGetErrorE
openspades:_ZN2al11qalGetFloatE
openspades:_ZN2al11qalIsBufferE
openspades:_ZN2al11qalIsEffectE
openspades:_ZN2al11qalIsFilterE
openspades:_ZN2al11qalIsSourceE
openspades:_ZN2al11qalSource3fE
openspades:_ZN2al11qalSource3iE
openspades:_ZN2al11qalSourcefvE
openspades:_ZN2al12qalGetDoubleE
openspades:_ZN2al12qalGetFloatvE
openspades:_ZN2al12qalGetStringE
openspades:_ZN2al12qalIsEnabledE
openspades:_ZN2al12qalListenerfE
openspades:_ZN2al12qalListeneriE
openspades:_ZN2al12qalcGetErrorE
openspades:_ZN2al13DescribeErrorEi
openspades:_ZN2al13qalBufferDataE
openspades:_ZN2al13qalGenBuffersE
openspades:_ZN2al13qalGenEffectsE
openspades:_ZN2al13qalGenFiltersE
openspades:_ZN2al13qalGenSourcesE
openspades:_ZN2al13qalGetBooleanE
openspades:_ZN2al13qalGetBufferfE
openspades:_ZN2al13qalGetBufferiE
openspades:_ZN2al13qalGetDoublevE
openspades:_ZN2al13qalGetEffectfE
openspades:_ZN2al13qalGetEffectiE
openspades:_ZN2al13qalGetFilterfE
openspades:_ZN2al13qalGetFilteriE
openspades:_ZN2al13qalGetIntegerE
openspades:_ZN2al13qalGetSourcefE
openspades:_ZN2al13qalGetSourceiE
openspades:_ZN2al13qalListener3fE
openspades:_ZN2al13qalListenerfvE
openspades:_ZN2al13qalSourcePlayE
openspades:_ZN2al13qalSourceStopE
openspades:_ZN2al13qalcGetStringE
openspades:_ZN2al14qalGetBooleanvE
openspades:_ZN2al14qalGetEffectfvE
openspades:_ZN2al14qalGetEffectivE
openspades:_ZN2al14qalGetFilterfvE
openspades:_ZN2al14qalGetFilterivE
openspades:_ZN2al14qalGetIntegervE
openspades:_ZN2al14qalGetSource3fE
openspades:_ZN2al14qalGetSourcefvE
openspades:_ZN2al14qalSourcePauseE
openspades:_ZN2al14qalSourcePlayvE
openspades:_ZN2al14qalSourceStopvE
openspades:_ZN2al14qalcOpenDeviceE
openspades:_ZN2al15qalGetEnumValueE
openspades:_ZN2al15qalGetListenerfE
openspades:_ZN2al15qalGetListeneriE
openspades:_ZN2al15qalSourcePausevE
openspades:_ZN2al15qalSourceRewindE
openspades:_ZN2al15qalcCaptureStopE
openspades:_ZN2al15qalcCloseDeviceE
openspades:_ZN2al15qalcGetIntegervE
openspades:_ZN2al16qalDeleteBuffersE
openspades:_ZN2al16qalDeleteEffectsE
openspades:_ZN2al16qalDeleteFiltersE
openspades:_ZN2al16qalDeleteSourcesE
openspades:_ZN2al16qalDistanceModelE
openspades:_ZN2al16qalDopplerFactorE
openspades:_ZN2al16qalGetListener3fE
openspades:_ZN2al16qalGetListenerfvE
openspades:_ZN2al16qalSourceRewindvE
openspades:_ZN2al16qalcASAGetSourceE
openspades:_ZN2al16qalcASASetSourceE
openspades:_ZN2al16qalcCaptureStartE
openspades:_ZN2al16qalcGetEnumValueE
openspades:_ZN2al17qalGetProcAddressE
openspades:_ZN2al17qalcCreateContextE
openspades:_ZN2al18qalDopplerVelocityE
openspades:_ZN2al18qalcASAGetListenerE
openspades:_ZN2al18qalcASASetListenerE
openspades:_ZN2al18qalcCaptureSamplesE
openspades:_ZN2al18qalcDestroyContextE
openspades:_ZN2al18qalcGetProcAddressE
openspades:_ZN2al18qalcProcessContextE
openspades:_ZN2al18qalcSuspendContextE
openspades:_ZN2al21qalIsExtensionPresentE
openspades:_ZN2al21qalSourceQueueBuffersE
openspades:_ZN2al21qalcCaptureOpenDeviceE
openspades:_ZN2al21qalcGetContextsDeviceE
openspades:_ZN2al21qalcGetCurrentContextE
openspades:_ZN2al22qalcCaptureCloseDeviceE
openspades:_ZN2al22qalcIsExtensionPresentE
openspades:_ZN2al22qalcMakeContextCurrentE
openspades:_ZN2al23qalAuxiliaryEffectSlotfE
openspades:_ZN2al23qalAuxiliaryEffectSlotiE
openspades:_ZN2al23qalSourceUnqueueBuffersE
openspades:_ZN2al24qalAuxiliaryEffectSlotfvE
openspades:_ZN2al24qalAuxiliaryEffectSlotivE
openspades:_ZN2al24qalIsAuxiliaryEffectSlotE
openspades:_ZN2al25qalcMacOSXMixerOutputRateE
openspades:_ZN2al26qalGenAuxiliaryEffectSlotsE
openspades:_ZN2al26qalGetAuxiliaryEffectSlotfE
openspades:_ZN2al26qalGetAuxiliaryEffectSlotiE
openspades:_ZN2al26qalcMacOSXRenderingQualityE
openspades:_ZN2al27qalGetAuxiliaryEffectSlotfvE
openspades:_ZN2al27qalGetAuxiliaryEffectSlotivE
openspades:_ZN2al27qalMacOSXRenderChannelCountE
openspades:_ZN2al28qalcMacOSXGetMixerOutputRateE
openspades:_ZN2al29qalDeleteAuxiliaryEffectSlotsE
openspades:_ZN2al29qalcMacOSXGetRenderingQualityE
openspades:_ZN2al29qalcMacOSXMixerMaxiumumBussesE
openspades:_ZN2al30qalMacOSXGetRenderChannelCountE
openspades:_ZN2al32qalcMacOSXGetMixerMaxiumumBussesE
openspades:_ZN2al4LinkEv
openspades:_ZN2al7InitEAXEv
openspades:_ZN2al9qalEnableE
openspades:_ZN4Json10FastWriter10writeValueERKNS_5ValueE
openspades:_ZN4Json10FastWriter23enableYAMLCompatibilityEv
openspades:_ZN4Json10FastWriter5writeB5cxx11ERKNS_5ValueE
openspades:_ZN4Json10FastWriterC1Ev
openspades:_ZN4Json10FastWriterC2Ev
openspades:_ZN4Json12PathArgumentC1EPKc
openspades:_ZN4Json12PathArgumentC1ERKNSt7__cxx1112basic_stringIcSt11char_traitsIcESaIcEEE
openspades:_ZN4Json12PathArgumentC1Ej
openspades:_ZN4Json12PathArgumentC1Ev
openspades:_ZN4Json12PathArgumentC2EPKc
openspades:_ZN4Json12PathArgumentC2ERKNSt7__cxx1112basic_stringIcSt11char_traitsIcESaIcEEE
openspades:_ZN4Json12PathArgumentC2Ej
openspades:_ZN4Json12PathArgumentC2Ev
openspades:_ZN4Json12StyledWriter10writeValueERKNS_5ValueE
openspades:_ZN4Json12StyledWriter11writeIndentEv
openspades:_ZN4Json12StyledWriter12normalizeEOLERKNSt7__cxx1112basic_stringIcSt11char_traitsIcESaIcEEE
openspades:_ZN4Json12StyledWriter14isMultineArrayERKNS_5ValueE
openspades:_ZN4Json12StyledWriter15writeArrayValueERKNS_5ValueE
openspades:_ZN4Json12StyledWriter15writeWithIndentERKNSt7__cxx1112basic_stringIcSt11char_traitsIcESaIcEEE
openspades:_ZN4Json12StyledWriter18hasCommentForValueERKNS_5ValueE
openspades:_ZN4Json12StyledWriter23writeCommentBeforeValueERKNS_5ValueE
openspades:_ZN4Json12StyledWriter32writeCommentAfterValueOnSameLineERKNS_5ValueE
openspades:_ZN4Json12StyledWriter5writeB5cxx11ERKNS_5ValueE
openspades:_ZN4Json12StyledWriter6indentEv
openspades:_ZN4Json12StyledWriter8unindentEv
openspades:_ZN4Json12StyledWriter9pushValueERKNSt7__cxx1112basic_stringIcSt11char_traitsIcESaIcEEE
openspades:_ZN4Json12StyledWriterC1Ev
openspades:_ZN4Json12StyledWriterC2Ev
openspades:_ZN4Json13ValueIteratorC1ERKNS_18ValueConstIteratorE
openspades:_ZN4Json13ValueIteratorC1ERKS0_
openspades:_ZN4Json13ValueIteratorC1ERKSt17_Rb_tree_iteratorISt4pairIKNS_5Value8CZStringES3_EE
openspades:_ZN4Json13ValueIteratorC1Ev
openspades:_ZN4Json13ValueIteratorC2ERKNS_18ValueConstIteratorE
openspades:_ZN4Json13ValueIteratorC2ERKS0_
openspades:_ZN4Json13ValueIteratorC2ERKSt17_Rb_tree_iteratorISt4pairIKNS_5Value8CZStringES3_EE
openspades:_ZN4Json13ValueIteratorC2Ev
openspades:_ZN4Json13ValueIteratoraSERKS0_
openspades:_ZN4Json13valueToStringB5cxx11Eb
openspades:_ZN4Json13valueToStringB5cxx11Ed
openspades:_ZN4Json13valueToStringB5cxx11Ei
openspades:_ZN4Json13valueToStringB5cxx11Ej
openspades:_ZN4Json14ValueAllocatorD0Ev
openspades:_ZN4Json14ValueAllocatorD1Ev
openspades:_ZN4Json14ValueAllocatorD2Ev
openspades:_ZN4Json17ValueIteratorBase4copyERKS0_
openspades:_ZN4Json17ValueIteratorBase9decrementEv
openspades:_ZN4Json17ValueIteratorBase9incrementEv
openspades:_ZN4Json17ValueIteratorBaseC1ERKSt17_Rb_tree_iteratorISt4pairIKNS_5Value8CZStringES3_EE
openspades:_ZN4Json17ValueIteratorBaseC1Ev
openspades:_ZN4Json17ValueIteratorBaseC2ERKSt17_Rb_tree_iteratorISt4pairIKNS_5Value8CZStringES3_EE
openspades:_ZN4Json17ValueIteratorBaseC2Ev
openspades:_ZN4Json18StyledStreamWriter10writeValueERKNS_5ValueE
openspades:_ZN4Json18StyledStreamWriter11writeIndentEv
openspades:_ZN4Json18StyledStreamWriter12normalizeEOLERKNSt7__cxx1112basic_stringIcSt11char_traitsIcESaIcEEE
openspades:_ZN4Json18StyledStreamWriter14isMultineArrayERKNS_5ValueE
openspades:_ZN4Json18StyledStreamWriter15writeArrayValueERKNS_5ValueE
openspades:_ZN4Json18StyledStreamWriter15writeWithIndentERKNSt7__cxx1112basic_stringIcSt11char_traitsIcESaIcEEE
openspades:_ZN4Json18StyledStreamWriter18hasCommentForValueERKNS_5ValueE
openspades:_ZN4Json18StyledStreamWriter23writeCommentBeforeValueERKNS_5ValueE
openspades:_ZN4Json18StyledStreamWriter32writeCommentAfterValueOnSameLineERKNS_5ValueE
openspades:_ZN4Json18StyledStreamWriter5writeERSoRKNS_5ValueE
openspades:_ZN4Json18StyledStreamWriter6indentEv
openspades:_ZN4Json18StyledStreamWriter8unindentEv
openspades:_ZN4Json18StyledStreamWriter9pushValueERKNSt7__cxx1112basic_stringIcSt11char_traitsIcESaIcEEE
openspades:_ZN4Json18StyledStreamWriterC1ENSt7__cxx1112basic_stringIcSt11char_traitsIcESaIcEEE
openspades:_ZN4Json18StyledStreamWriterC2ENSt7__cxx1112basic_stringIcSt11char_traitsIcESaIcEEE
openspades:_ZN4Json18ValueConstIteratorC1ERKSt17_Rb_tree_iteratorISt4pairIKNS_5Value8CZStringES3_EE
openspades:_ZN4Json18ValueConstIteratorC1Ev
openspades:_ZN4Json18ValueConstIteratorC2ERKSt17_Rb_tree_iteratorISt4pairIKNS_5Value8CZStringES3_EE
openspades:_ZN4Json18ValueConstIteratorC2Ev
openspades:_ZN4Json18ValueConstIteratoraSERKNS_17ValueIteratorBaseE
openspades:_ZN4Json19valueToQuotedStringB5cxx11EPKc
openspades:_ZN4Json4Path11invalidPathERKNSt7__cxx1112basic_stringIcSt11char_traitsIcESaIcEEEi
openspades:_ZN4Json4Path12addPathInArgERKNSt7__cxx1112basic_stringIcSt11char_traitsIcESaIcEEERKSt6vectorIPKNS_12PathArgumentESaISC_EERN9__gnu_cxx17__normal_iteratorIPKSC_SE_EENSA_4KindE
openspades:_ZN4Json4Path8makePathERKNSt7__cxx1112basic_stringIcSt11char_traitsIcESaIcEEERKSt6vectorIPKNS_12PathArgumentESaISC_EE
openspades:_ZN4Json4PathC1ERKNSt7__cxx1112basic_stringIcSt11char_traitsIcESaIcEEERKNS_12PathArgumentESB_SB_SB_SB_
openspades:_ZN4Json4PathC2ERKNSt7__cxx1112basic_stringIcSt11char_traitsIcESaIcEEERKNS_12PathArgumentESB_SB_SB_SB_
openspades:_ZN4Json5Value10setCommentEPKcNS_16CommentPlacementE
openspades:_ZN4Json5Value10setCommentERKNSt7__cxx1112basic_stringIcSt11char_traitsIcESaIcEEENS_16CommentPlacementE
openspades:_ZN4Json5Value11CommentInfo10setCommentEPKc
openspades:_ZN4Json5Value11CommentInfoC1Ev
openspades:_ZN4Json5Value11CommentInfoC2Ev
openspades:_ZN4Json5Value11CommentInfoD1Ev
openspades:_ZN4Json5Value11CommentInfoD2Ev
openspades:_ZN4Json5Value12removeMemberEPKc
openspades:_ZN4Json5Value12removeMemberERKNSt7__cxx1112basic_stringIcSt11char_traitsIcESaIcEEE
openspades:_ZN4Json5Value16resolveReferenceEPKcb
openspades:_ZN4Json5Value3endEv
openspades:_ZN4Json5Value4nullE
openspades:_ZN4Json5Value4swapERS0_
openspades:_ZN4Json5Value5beginEv
openspades:_ZN4Json5Value5clearEv
openspades:_ZN4Json5Value6appendERKS0_
openspades:_ZN4Json5Value6maxIntE
openspades:_ZN4Json5Value6minIntE
openspades:_ZN4Json5Value6resizeEj
openspades:_ZN4Json5Value7compareERKS0_
openspades:_ZN4Json5Value7maxUIntE
openspades:_ZN4Json5Value8CZString4swapERS1_
openspades:_ZN4Json5Value8CZStringC1EPKcNS1_17DuplicationPolicyE
openspades:_ZN4Json5Value8CZStringC1ERKS1_
openspades:_ZN4Json5Value8CZStringC1Ei
openspades:_ZN4Json5Value8CZStringC2EPKcNS1_17DuplicationPolicyE
openspades:_ZN4Json5Value8CZStringC2ERKS1_
openspades:_ZN4Json5Value8CZStringC2Ei
openspades:_ZN4Json5Value8CZStringD1Ev
openspades:_ZN4Json5Value8CZStringD2Ev
openspades:_ZN4Json5Value8CZStringaSERKS1_
openspades:_ZN4Json5ValueC1ENS_9ValueTypeE
openspades:_ZN4Json5ValueC1EPKc
openspades:_ZN4Json5ValueC1EPKcS2_
openspades:_ZN4Json5ValueC1ERKNS_12StaticStringE
openspades:_ZN4Json5ValueC1ERKNSt7__cxx1112basic_stringIcSt11char_traitsIcESaIcEEE
openspades:_ZN4Json5ValueC1ERKS0_
openspades:_ZN4Json5ValueC1Eb
openspades:_ZN4Json5ValueC1Ed
openspades:_ZN4Json5ValueC1Ei
openspades:_ZN4Json5ValueC1Ej
openspades:_ZN4Json5ValueC2ENS_9ValueTypeE
openspades:_ZN4Json5ValueC2EPKc
openspades:_ZN4Json5ValueC2EPKcS2_
openspades:_ZN4Json5ValueC2ERKNS_12StaticStringE
openspades:_ZN4Json5ValueC2ERKNSt7__cxx1112basic_stringIcSt11char_traitsIcESaIcEEE
openspades:_ZN4Json5ValueC2ERKS0_
openspades:_ZN4Json5ValueC2Eb
openspades:_ZN4Json5ValueC2Ed
openspades:_ZN4Json5ValueC2Ei
openspades:_ZN4Json5ValueC2Ej
openspades:_ZN4Json5ValueD1Ev
openspades:_ZN4Json5ValueD2Ev
openspades:_ZN4Json5ValueaSERKS0_
openspades:_ZN4Json5ValueixEPKc
openspades:_ZN4Json5ValueixERKNS_12StaticStringE
openspades:_ZN4Json5ValueixERKNSt7__cxx1112basic_stringIcSt11char_traitsIcESaIcEEE
openspades:_ZN4Json5ValueixEj
openspades:_ZN4Json6Reader10addCommentEPKcS2_NS_16CommentPlacementE
openspades:_ZN4Json6Reader10readNumberEv
openspades:_ZN4Json6Reader10readObjectERNS0_5TokenE
openspades:_ZN4Json6Reader10readStringEv
openspades:_ZN4Json6Reader10skipSpacesEv
openspades:_ZN4Json6Reader11expectTokenENS0_9TokenTypeERNS0_5TokenEPKc
openspades:_ZN4Json6Reader11getNextCharEv
openspades:_ZN4Json6Reader11readCommentEv
openspades:_ZN4Json6Reader12currentValueEv
openspades:_ZN4Json6Reader12decodeDoubleERNS0_5TokenE
openspades:_ZN4Json6Reader12decodeNumberERNS0_5TokenE
openspades:_ZN4Json6Reader12decodeStringERNS0_5TokenE
openspades:_ZN4Json6Reader12decodeStringERNS0_5TokenERNSt7__cxx1112basic_stringIcSt11char_traitsIcESaIcEEE
openspades:_ZN4Json6Reader16recoverFromErrorENS0_9TokenTypeE
openspades:_ZN4Json6Reader17readCStyleCommentEv
openspades:_ZN4Json6Reader17skipCommentTokensERNS0_5TokenE
openspades:_ZN4Json6Reader18addErrorAndRecoverERKNSt7__cxx1112basic_stringIcSt11char_traitsIcESaIcEEERNS0_5TokenENS0_9TokenTypeE
openspades:_ZN4Json6Reader19readCppStyleCommentEv
openspades:_ZN4Json6Reader22decodeUnicodeCodePointERNS0_5TokenERPKcS4_Rj
openspades:_ZN4Json6Reader27decodeUnicodeEscapeSequenceERNS0_5TokenERPKcS4_Rj
openspades:_ZN4Json6Reader5matchEPKci
openspades:_ZN4Json6Reader5parseEPKcS2_RNS_5ValueEb
openspades:_ZN4Json6Reader5parseERKNSt7__cxx1112basic_stringIcSt11char_traitsIcESaIcEEERNS_5ValueEb
openspades:_ZN4Json6Reader5parseERSiRNS_5ValueEb
openspades:_ZN4Json6Reader8addErrorERKNSt7__cxx1112basic_stringIcSt11char_traitsIcESaIcEEERNS0_5TokenEPKc
openspades:_ZN4Json6Reader9readArrayERNS0_5TokenE
openspades:_ZN4Json6Reader9readTokenERNS0_5TokenE
openspades:_ZN4Json6Reader9readValueEv
openspades:_ZN4Json6ReaderC1ERKNS_8FeaturesE
openspades:_ZN4Json6ReaderC1Ev
openspades:_ZN4Json6ReaderC2ERKNS_8FeaturesE
openspades:_ZN4Json6ReaderC2Ev
openspades:_ZN4Json6WriterD0Ev
openspades:_ZN4Json6WriterD1Ev
openspades:_ZN4Json6WriterD2Ev
openspades:_ZN4Json8Features10strictModeEv
openspades:_ZN4Json8Features3allEv
openspades:_ZN4Json8FeaturesC1Ev
openspades:_ZN4Json8FeaturesC2Ev
openspades:_ZN4JsonlsERSoRKNS_5ValueE
openspades:_ZN4JsonrsERSiRNS_5ValueE
openspades:_ZN4jpge12jpeg_encoder10code_blockEi
openspades:_ZN4jpge12jpeg_encoder11emit_markerEi
openspades:_ZN4jpge12jpeg_encoder12emit_markersEv
openspades:_ZN4jpge12jpeg_encoder14emit_jfif_app0Ev
openspades:_ZN4jpge12jpeg_encoder14load_block_8_8Eiii
openspades:_ZN4jpge12jpeg_encoder15first_pass_initEv
openspades:_ZN4jpge12jpeg_encoder15load_block_16_8Eii
openspades:_ZN4jpge12jpeg_encoder15process_mcu_rowEv
openspades:_ZN4jpge12jpeg_encoder16process_scanlineEPKv
openspades:_ZN4jpge12jpeg_encoder16second_pass_initEv
openspades:_ZN4jpge12jpeg_encoder17load_block_16_8_8Eii
openspades:_ZN4jpge12jpeg_encoder18terminate_pass_oneEv
openspades:_ZN4jpge12jpeg_encoder18terminate_pass_twoEv
openspades:_ZN4jpge12jpeg_encoder19compute_quant_tableEPiPs
openspades:_ZN4jpge12jpeg_encoder19flush_output_bufferEv
openspades:_ZN4jpge12jpeg_encoder19load_block_8_8_greyEi
openspades:_ZN4jpge12jpeg_encoder20process_end_of_imageEv
openspades:_ZN4jpge12jpeg_encoder21compute_huffman_tableEPjPhS2_S2_
openspades:_ZN4jpge12jpeg_encoder22optimize_huffman_tableEii
openspades:_ZN4jpge12jpeg_encoder26code_coefficients_pass_oneEi
openspades:_ZN4jpge12jpeg_encoder26code_coefficients_pass_twoEi
openspades:_ZN4jpge12jpeg_encoder27load_quantized_coefficientsEi
openspades:_ZN4jpge12jpeg_encoder4initEPNS_13output_streamEiiiRKNS_6paramsE
openspades:_ZN4jpge12jpeg_encoder5clearEv
openspades:_ZN4jpge12jpeg_encoder6deinitEv
openspades:_ZN4jpge12jpeg_encoder8emit_dhtEPhS1_ib
openspades:_ZN4jpge12jpeg_encoder8emit_dqtEv
openspades:_ZN4jpge12jpeg_encoder8emit_sofEv
openspades:_ZN4jpge12jpeg_encoder8emit_sosEv
openspades:_ZN4jpge12jpeg_encoder8jpg_openEiii
openspades:_ZN4jpge12jpeg_encoder8load_mcuEPKv
openspades:_ZN4jpge12jpeg_encoder8put_bitsEjj
openspades:_ZN4jpge12jpeg_encoder9emit_byteEh
openspades:_ZN4jpge12jpeg_encoder9emit_dhtsEv
openspades:_ZN4jpge12jpeg_encoder9emit_wordEj
openspades:_ZN4jpge12jpeg_encoderC1Ev
openspades:_ZN4jpge12jpeg_encoderC2Ev
openspades:_ZN4jpge12jpeg_encoderD1Ev
openspades:_ZN4jpge12jpeg_encoderD2Ev
openspades:_ZN4jpge27compress_image_to_jpeg_fileEPKciiiPKhRKNS_6paramsE
openspades:_ZN4jpge37compress_image_to_jpeg_file_in_memoryEPvRiiiiPKhRKNS_6paramsE
openspades:_ZN6spades10GetTextRawERKNSt7__cxx1112basic_stringIcSt11char_traitsIcESaIcEEES7_S7_i
openspades:_ZN6spades10LogMessageEPKciS1_z
openspades:_ZN6spades10MumbleLink10setContextERKNSt7__cxx1112basic_stringIcSt11char_traitsIcESaIcEEE
openspades:_ZN6spades10MumbleLink11setIdentityERKNSt7__cxx1112basic_stringIcSt11char_traitsIcESaIcEEE
openspades:_ZN6spades10MumbleLink18set_mumble_vector3EPfRKNS_7Vector3E
openspades:_ZN6spades10MumbleLink4initEv
openspades:_ZN6spades10MumbleLink6updateEPNS_6client6PlayerE
openspades:_ZN6spades10MumbleLinkC1Ev
openspades:_ZN6spades10MumbleLinkC2Ev
openspades:_ZN6spades10MumbleLinkD1Ev
openspades:_ZN6spades10MumbleLinkD2Ev
openspades:_ZN6spades10ServerItem6CreateERN4Json5ValueE
openspades:_ZN6spades10ServerItemC1ERKNSt7__cxx1112basic_stringIcSt11char_traitsIcESaIcEEES8_S8_S8_S8_S8_iii
openspades:_ZN6spades10ServerItemC2ERKNSt7__cxx1112basic_stringIcSt11char_traitsIcESaIcEEES8_S8_S8_S8_S8_iii
openspades:_ZN6spades10SettingSet10ItemHandle14SettingChangedERKNSt7__cxx1112basic_stringIcSt11char_traitsIcESaIcEEE
openspades:_ZN6spades10SettingSet10ItemHandle6ReloadEv
openspades:_ZN6spades10SettingSet10ItemHandle7CStringEv
openspades:_ZN6spades10SettingSet10ItemHandleC1ERS0_RKNSt7__cxx1112basic_stringIcSt11char_traitsIcESaIcEEENS0_9ItemFlagsE
openspades:_ZN6spades10SettingSet10ItemHandleC2ERS0_RKNSt7__cxx1112basic_stringIcSt11char_traitsIcESaIcEEENS0_9ItemFlagsE
openspades:_ZN6spades10SettingSet10ItemHandleD0Ev
openspades:_ZN6spades10SettingSet10ItemHandleD1Ev
openspades:_ZN6spades10SettingSet10ItemHandleD2Ev
openspades:_ZN6spades10SettingSet10ItemHandleaSERKNSt7__cxx1112basic_stringIcSt11char_traitsIcESaIcEEE
openspades:_ZN6spades10SettingSet10ItemHandleaSEf
openspades:_ZN6spades10SettingSet10ItemHandleaSEi
openspades:_ZN6spades10SettingSet10ItemHandlecvNSt7__cxx1112basic_stringIcSt11char_traitsIcESaIcEEEEv
openspades:_ZN6spades10SettingSet10ItemHandlecvbEv
openspades:_ZN6spades10SettingSet10ItemHandlecvfEv
openspades:_ZN6spades10SettingSet10ItemHandlecviEv
openspades:_ZN6spades10SettingSet8RegisterERNS0_10ItemHandleE
openspades:_ZN6spades10SettingSet9ReloadAllEv
openspades:_ZN6spades10SmoothStepEf
openspades:_ZN6spades10TrimSpacesERKNSt7__cxx1112basic_stringIcSt11char_traitsIcESaIcEEE
openspades:_ZN6spades10VoxelModel10HollowFillEv
openspades:_ZN6spades10VoxelModel7LoadKV6EPNS_7IStreamE
openspades:_ZN6spades10VoxelModelC1Eiii
openspades:_ZN6spades10VoxelModelC2Eiii
openspades:_ZN6spades10VoxelModelD0Ev
openspades:_ZN6spades10VoxelModelD1Ev
openspades:_ZN6spades10VoxelModelD2Ev
openspades:_ZN6spades10reflection19BacktraceEntryAdderC1ERKNS0_14BacktraceEntryE
openspades:_ZN6spades10reflection19BacktraceEntryAdderC2ERKNS0_14BacktraceEntryE
openspades:_ZN6spades10reflection19BacktraceEntryAdderD1Ev
openspades:_ZN6spades10reflection19BacktraceEntryAdderD2Ev
openspades:_ZN6spades10reflection23BacktraceRecordToStringB5cxx11ERKSt6vectorINS0_14BacktraceEntryESaIS2_EE
openspades:_ZN6spades10reflection8FunctionC1EPKcS3_i
openspades:_ZN6spades10reflection8FunctionC2EPKcS3_i
openspades:_ZN6spades10reflection9Backtrace13GetAllEntriesEv
openspades:_ZN6spades10reflection9Backtrace13ThreadExitingEv
openspades:_ZN6spades10reflection9Backtrace14StartBacktraceEv
openspades:_ZN6spades10reflection9Backtrace18GetGlobalBacktraceEv
openspades:_ZN6spades10reflection9Backtrace3PopEv
openspades:_ZN6spades10reflection9Backtrace4PushERKNS0_14BacktraceEntryE
openspades:_ZN6spades11FileManager10FileExistsEPKc
openspades:_ZN6spades11FileManager12ReadAllBytesB5cxx11EPKc
openspades:_ZN6spades11FileManager13AddFileSystemEPNS_11IFileSystemE
openspades:_ZN6spades11FileManager14OpenForReadingEPKc
openspades:_ZN6spades11FileManager14OpenForWritingEPKc
openspades:_ZN6spades11FileManager16AppendFileSystemEPNS_11IFileSystemE
openspades:_ZN6spades11FileManager17PrependFileSystemEPNS_11IFileSystemE
openspades:_ZN6spades11FileManager5CloseEv
openspades:_ZN6spades11FileManager9EnumFilesB5cxx11EPKc
openspades:_ZN6spades11StartClientERKNS_13ServerAddressE
openspades:_ZN6spades12IAudioStream13GetNumSamplesEv
openspades:_ZN6spades12IAudioStream9GetStrideEv
openspades:_ZN6spades12IBitmapCodec12GetAllCodecsEv
openspades:_ZN6spades12IBitmapCodec8EndsWithERKNSt7__cxx1112basic_stringIcSt11char_traitsIcESaIcEEES8_
openspades:_ZN6spades12IBitmapCodecC1Ev
openspades:_ZN6spades12IBitmapCodecC2Ev
openspades:_ZN6spades12IBitmapCodecD0Ev
openspades:_ZN6spades12IBitmapCodecD1Ev
openspades:_ZN6spades12IBitmapCodecD2Ev
openspades:_ZN6spades12MemoryStream11GetPositionEv
openspades:_ZN6spades12MemoryStream11SetPositionEm
openspades:_ZN6spades12MemoryStream4ReadB5cxx11Em
openspades:_ZN6spades12MemoryStream4ReadEPvm
openspades:_ZN6spades12MemoryStream5WriteEPKvm
openspades:_ZN6spades12MemoryStream8ReadByteEv
openspades:_ZN6spades12MemoryStream9GetLengthEv
openspades:_ZN6spades12MemoryStream9SetLengthEm
openspades:_ZN6spades12MemoryStream9WriteByteEi
openspades:_ZN6spades12MemoryStreamC1EPKcm
openspades:_ZN6spades12MemoryStreamC1EPcmb
openspades:_ZN6spades12MemoryStreamC2EPKcm
openspades:_ZN6spades12MemoryStreamC2EPcmb
openspades:_ZN6spades12MemoryStreamD0Ev
openspades:_ZN6spades12MemoryStreamD1Ev
openspades:_ZN6spades12MemoryStreamD2Ev
openspades:_ZN6spades12SampleRandomEv
openspades:_ZN6spades12SplashWindow10PumpEventsEv
openspades:_ZN6spades12SplashWindowC1Ev
openspades:_ZN6spades12SplashWindowC2Ev
openspades:_ZN6spades12SplashWindowD1Ev
openspades:_ZN6spades12SplashWindowD2Ev
openspades:_ZN6spades12StreamHandle12SharedStream6RetainEv
openspades:_ZN6spades12StreamHandle12SharedStream7ReleaseEv
openspades:_ZN6spades12StreamHandle12SharedStreamC1EPNS_7IStreamE
openspades:_ZN6spades12StreamHandle12SharedStreamC2EPNS_7IStreamE
openspades:_ZN6spades12StreamHandle12SharedStreamD1Ev
openspades:_ZN6spades12StreamHandle12SharedStreamD2Ev
openspades:_ZN6spades12StreamHandle5ResetEv
openspades:_ZN6spades12StreamHandleC1EPNS_7IStreamE
openspades:_ZN6spades12StreamHandleC1ERKS0_
openspades:_ZN6spades12StreamHandleC1Ev
openspades:_ZN6spades12StreamHandleC2EPNS_7IStreamE
openspades:_ZN6spades12StreamHandleC2ERKS0_
openspades:_ZN6spades12StreamHandleC2Ev
openspades:_ZN6spades12StreamHandleD1Ev
openspades:_ZN6spades12StreamHandleD2Ev
openspades:_ZN6spades12StreamHandleaSERKS0_
openspades:_ZN6spades13DeflateStream10DeflateEndEv
openspades:_ZN6spades13DeflateStream10FillBufferEv
openspades:_ZN6spades13DeflateStream11GetPositionEv
openspades:_ZN6spades13DeflateStream11SetPositionEm
openspades:_ZN6spades13DeflateStream14CompressBufferEv
openspades:_ZN6spades13DeflateStream4ReadEPvm
openspades:_ZN6spades13DeflateStream5WriteEPKvm
openspades:_ZN6spades13DeflateStream8ReadByteEv
openspades:_ZN6spades13DeflateStream9GetLengthEv
openspades:_ZN6spades13DeflateStream9SetLengthEm
openspades:_ZN6spades13DeflateStream9WriteByteEi
openspades:_ZN6spades13DeflateStreamC1EPNS_7IStreamENS_12CompressModeEb
openspades:_ZN6spades13DeflateStreamC2EPNS_7IStreamENS_12CompressModeEb
openspades:_ZN6spades13DeflateStreamD0Ev
openspades:_ZN6spades13DeflateStreamD1Ev
openspades:_ZN6spades13DeflateStreamD2Ev
openspades:_ZN6spades13DispatchQueue12ProcessQueueEv
openspades:_ZN6spades13DispatchQueue14EnterEventLoopEv
openspades:_ZN6spades13DispatchQueue14GetThreadQueueEv
openspades:_ZN6spades13DispatchQueue18MarkSDLVideoThreadEv
openspades:_ZN6spades13DispatchQueueC1Ev
openspades:_ZN6spades13DispatchQueueC2Ev
openspades:_ZN6spades13DispatchQueueD1Ev
openspades:_ZN6spades13DispatchQueueD2Ev
openspades:_ZN6spades13PlaneCullTestERKNS_6Plane3ERKNS_5AABB3E
openspades:_ZN6spades13ScriptManager10CheckErrorEi
openspades:_ZN6spades13ScriptManager10GetContextEv
openspades:_ZN6spades13ScriptManager11GetInstanceEv
openspades:_ZN6spades13ScriptManagerC1Ev
openspades:_ZN6spades13ScriptManagerC2Ev
openspades:_ZN6spades13ScriptManagerD1Ev
openspades:_ZN6spades13ScriptManagerD2Ev
openspades:_ZN6spades13SdlFileStream11GetPositionEv
openspades:_ZN6spades13SdlFileStream11SetPositionEm
openspades:_ZN6spades13SdlFileStream4ReadEPvm
openspades:_ZN6spades13SdlFileStream5FlushEv
openspades:_ZN6spades13SdlFileStream5WriteEPKvm
openspades:_ZN6spades13SdlFileStream8ReadByteEv
openspades:_ZN6spades13SdlFileStream9GetLengthEv
openspades:_ZN6spades13SdlFileStream9SetLengthEm
openspades:_ZN6spades13SdlFileStream9WriteByteEi
openspades:_ZN6spades13SdlFileStreamC1EP9SDL_RWopsb
openspades:_ZN6spades13SdlFileStreamC2EP9SDL_RWopsb
openspades:_ZN6spades13SdlFileStreamD0Ev
openspades:_ZN6spades13SdlFileStreamD1Ev
openspades:_ZN6spades13SdlFileStreamD2Ev
openspades:_ZN6spades13ServerAddress13StripProtocolERKNSt7__cxx1112basic_stringIcSt11char_traitsIcESaIcEEE
openspades:_ZN6spades13ServerAddress19ParseIntegerAddressERKNSt7__cxx1112basic_stringIcSt11char_traitsIcESaIcEEE
openspades:_ZN6spades13ServerAddressC1ENSt7__cxx1112basic_stringIcSt11char_traitsIcESaIcEEENS_15ProtocolVersionE
openspades:_ZN6spades13ServerAddressC2ENSt7__cxx1112basic_stringIcSt11char_traitsIcESaIcEEENS_15ProtocolVersionE
openspades:_ZN6spades13ThreadExitingEv
openspades:_ZN6spades13ZipFileSystem10FileExistsEPKc
openspades:_ZN6spades13ZipFileSystem10MoveToFileEPKc
openspades:_ZN6spades13ZipFileSystem12InternalOpenEPS0_PKci
openspades:_ZN6spades13ZipFileSystem12InternalReadEPS0_PNS0_13ZipFileHandleEPvj
openspades:_ZN6spades13ZipFileSystem12InternalSeekEPS0_PNS0_13ZipFileHandleEii
openspades:_ZN6spades13ZipFileSystem12InternalTellEPS0_PNS0_13ZipFileHandleE
openspades:_ZN6spades13ZipFileSystem13InternalCloseEPS0_PNS0_13ZipFileHandleE
openspades:_ZN6spades13ZipFileSystem13InternalWriteEPS0_PNS0_13ZipFileHandleEPvj
openspades:_ZN6spades13ZipFileSystem14OpenForReadingEPKc
openspades:_ZN6spades13ZipFileSystem14OpenForWritingEPKc
openspades:_ZN6spades13ZipFileSystem17InternalTestErrorEPS0_PNS0_13ZipFileHandleE
openspades:_ZN6spades13ZipFileSystem18CreateZLibFileFuncEv
openspades:_ZN6spades13ZipFileSystem9EnumFilesB5cxx11EPKc
openspades:_ZN6spades13ZipFileSystemC1EPNS_7IStreamEb
openspades:_ZN6spades13ZipFileSystemC2EPNS_7IStreamEb
openspades:_ZN6spades13ZipFileSystemD0Ev
openspades:_ZN6spades13ZipFileSystemD1Ev
openspades:_ZN6spades13ZipFileSystemD2Ev
openspades:_ZN6spades13defaultDomainE
openspades:_ZN6spades13g_appIconDataE
openspades:_ZN6spades14DynamicLibrary15GetSymbolOrNullEPKc
openspades:_ZN6spades14DynamicLibrary9GetSymbolEPKc
openspades:_ZN6spades14DynamicLibraryC1EPKc
openspades:_ZN6spades14DynamicLibraryC2EPKc
openspades:_ZN6spades14DynamicLibraryD1Ev
openspades:_ZN6spades14DynamicLibraryD2Ev
openspades:_ZN6spades14PluralSelector15ParseExpressionERNS_17StandardTokenizer8IteratorEi
openspades:_ZN6spades14ScriptFunction4LoadEP15asIScriptEngine
openspades:_ZN6spades14ScriptFunction7PrepareEv
openspades:_ZN6spades14ScriptFunctionC1ERKNSt7__cxx1112basic_stringIcSt11char_traitsIcESaIcEEE
openspades:_ZN6spades14ScriptFunctionC1ERKNSt7__cxx1112basic_stringIcSt11char_traitsIcESaIcEEES8_
openspades:_ZN6spades14ScriptFunctionC2ERKNSt7__cxx1112basic_stringIcSt11char_traitsIcESaIcEEE
openspades:_ZN6spades14ScriptFunctionC2ERKNSt7__cxx1112basic_stringIcSt11char_traitsIcESaIcEEES8_
openspades:_ZN6spades14SplitIntoLinesERKNSt7__cxx1112basic_stringIcSt11char_traitsIcESaIcEEE
openspades:_ZN6spades14WavAudioStream11GetPositionEv
openspades:_ZN6spades14WavAudioStream11SetPositionEm
openspades:_ZN6spades14WavAudioStream13ReadChunkInfoEv
openspades:_ZN6spades14WavAudioStream14GetNumChannelsEv
openspades:_ZN6spades14WavAudioStream15GetSampleFormatEv
openspades:_ZN6spades14WavAudioStream20GetSamplingFrequencyEv
openspades:_ZN6spades14WavAudioStream4ReadEPvm
openspades:_ZN6spades14WavAudioStream8GetChunkERKNSt7__cxx1112basic_stringIcSt11char_traitsIcESaIcEEE
openspades:_ZN6spades14WavAudioStream8ReadByteEv
openspades:_ZN6spades14WavAudioStream9GetLengthEv
openspades:_ZN6spades14WavAudioStreamC1EPNS_7IStreamEb
openspades:_ZN6spades14WavAudioStreamC2EPNS_7IStreamEb
openspades:_ZN6spades14WavAudioStreamD0Ev
openspades:_ZN6spades14WavAudioStreamD1Ev
openspades:_ZN6spades14WavAudioStreamD2Ev
openspades:_ZN6spades15Matrix4MultiplyEPKfS1_Pf
openspades:_ZN6spades15OpenAudioStreamERKNSt7__cxx1112basic_stringIcSt11char_traitsIcESaIcEEE
openspades:_ZN6spades15OpusAudioStream11GetPositionEv
openspades:_ZN6spades15OpusAudioStream11SetPositionEm
openspades:_ZN6spades15OpusAudioStream14GetNumChannelsEv
openspades:_ZN6spades15OpusAudioStream15GetSampleFormatEv
openspades:_ZN6spades15OpusAudioStream20GetSamplingFrequencyEv
openspades:_ZN6spades15OpusAudioStream4ReadEPvm
openspades:_ZN6spades15OpusAudioStream8ReadByteEv
openspades:_ZN6spades15OpusAudioStream9GetLengthEv
openspades:_ZN6spades15OpusAudioStreamC1EPNS_7IStreamEb
openspades:_ZN6spades15OpusAudioStreamC2EPNS_7IStreamEb
openspades:_ZN6spades15OpusAudioStreamD0Ev
openspades:_ZN6spades15OpusAudioStreamD1Ev
openspades:_ZN6spades15OpusAudioStreamD2Ev
openspades:_ZN6spades15StartMainScreenEv
openspades:_ZN6spades16GetTextRawPluralERKNSt7__cxx1112basic_stringIcSt11char_traitsIcESaIcEEES7_S7_S7_i
openspades:_ZN6spades16OpenURLInBrowserERKNSt7__cxx1112basic_stringIcSt11char_traitsIcESaIcEEE
openspades:_ZN6spades16RefCountedObject6AddRefEv
openspades:_ZN6spades16RefCountedObject7ReleaseEv
openspades:_ZN6spades16RefCountedObjectC1Ev
openspades:_ZN6spades16RefCountedObjectC2Ev
openspades:_ZN6spades16RefCountedObjectD0Ev
openspades:_ZN6spades16RefCountedObjectD1Ev
openspades:_ZN6spades16RefCountedObjectD2Ev
openspades:_ZN6spades17LoadCurrentLocaleEv
openspades:_ZN6spades17SampleRandomFloatEv
openspades:_ZN6spades17StandardTokenizer3endEv
openspades:_ZN6spades17StandardTokenizer5beginEv
openspades:_ZN6spades17StandardTokenizer8Iterator12AnalyzeTokenEv
openspades:_ZN6spades17StandardTokenizer8Iterator14SkipWhitespaceEv
openspades:_ZN6spades17StandardTokenizer8IteratorC1EPKcPS0_
openspades:_ZN6spades17StandardTokenizer8IteratorC2EPKcPS0_
openspades:_ZN6spades17StandardTokenizer8IteratordeB5cxx11Ev
openspades:_ZN6spades17StandardTokenizer8IteratormmEv
openspades:_ZN6spades17StandardTokenizer8IteratorppEv
openspades:_ZN6spades17StandardTokenizerC1EPKc
openspades:_ZN6spades17StandardTokenizerC2EPKc
openspades:_ZN6spades18ConcurrentDispatch16ExecuteProtectedEv
openspades:_ZN6spades18ConcurrentDispatch3RunEv
openspades:_ZN6spades18ConcurrentDispatch4JoinEv
openspades:_ZN6spades18ConcurrentDispatch5StartEv
openspades:_ZN6spades18ConcurrentDispatch7ExecuteEv
openspades:_ZN6spades18ConcurrentDispatch7ReleaseEv
openspades:_ZN6spades18ConcurrentDispatch7StartOnEPNS_13DispatchQueueE
openspades:_ZN6spades18ConcurrentDispatchC1ENSt7__cxx1112basic_stringIcSt11char_traitsIcESaIcEEE
openspades:_ZN6spades18ConcurrentDispatchC1Ev
openspades:_ZN6spades18ConcurrentDispatchC2ENSt7__cxx1112basic_stringIcSt11char_traitsIcESaIcEEE
openspades:_ZN6spades18ConcurrentDispatchC2Ev
openspades:_ZN6spades18ConcurrentDispatchD0Ev
openspades:_ZN6spades18ConcurrentDispatchD1Ev
openspades:_ZN6spades18ConcurrentDispatchD2Ev
openspades:_ZN6spades18EqualsIgnoringCaseERKNSt7__cxx1112basic_stringIcSt11char_traitsIcESaIcEEES7_
openspades:_ZN6spades18GetAppIconDataSizeEv
openspades:_ZN6spades18ScriptContextUtils14ExecuteCheckedEv
openspades:_ZN6spades18ScriptContextUtils14appendLocationERNSt7__cxx1118basic_stringstreamIcSt11char_traitsIcESaIcEEEP17asIScriptFunctionPKcii
openspades:_ZN6spades18ScriptContextUtils18SetNativeExceptionERKSt9exception
openspades:_ZN6spades18ScriptContextUtilsC1EP16asIScriptContext
openspades:_ZN6spades18ScriptContextUtilsC1Ev
openspades:_ZN6spades18ScriptContextUtilsC2EP16asIScriptContext
openspades:_ZN6spades18ScriptContextUtilsC2Ev
openspades:_ZN6spades19CatalogDomainHandleC1ERKNSt7__cxx1112basic_stringIcSt11char_traitsIcESaIcEEE
openspades:_ZN6spades19CatalogDomainHandleC2ERKNSt7__cxx1112basic_stringIcSt11char_traitsIcESaIcEEE
openspades:_ZN6spades19DirectoryFileSystem10FileExistsEPKc
openspades:_ZN6spades19DirectoryFileSystem12physicalPathERKNSt7__cxx1112basic_stringIcSt11char_traitsIcESaIcEEE
openspades:_ZN6spades19DirectoryFileSystem14OpenForReadingEPKc
openspades:_ZN6spades19DirectoryFileSystem14OpenForWritingEPKc
openspades:_ZN6spades19DirectoryFileSystem9EnumFilesB5cxx11EPKc
openspades:_ZN6spades19DirectoryFileSystemC1ERKNSt7__cxx1112basic_stringIcSt11char_traitsIcESaIcEEEb
openspades:_ZN6spades19DirectoryFileSystemC2ERKNSt7__cxx1112basic_stringIcSt11char_traitsIcESaIcEEEb
openspades:_ZN6spades19DirectoryFileSystemD0Ev
openspades:_ZN6spades19DirectoryFileSystemD1Ev
openspades:_ZN6spades19DirectoryFileSystemD2Ev
openspades:_ZN6spades19DynamicMemoryStream11GetPositionEv
openspades:_ZN6spades19DynamicMemoryStream11SetPositionEm
openspades:_ZN6spades19DynamicMemoryStream4ReadB5cxx11Em
openspades:_ZN6spades19DynamicMemoryStream4ReadEPvm
openspades:_ZN6spades19DynamicMemoryStream5WriteEPKvm
openspades:_ZN6spades19DynamicMemoryStream8ReadByteEv
openspades:_ZN6spades19DynamicMemoryStream9GetLengthEv
openspades:_ZN6spades19DynamicMemoryStream9SetLengthEm
openspades:_ZN6spades19DynamicMemoryStream9WriteByteEi
openspades:_ZN6spades19DynamicMemoryStreamC1Ev
openspades:_ZN6spades19DynamicMemoryStreamC2Ev
openspades:_ZN6spades19DynamicMemoryStreamD0Ev
openspades:_ZN6spades19DynamicMemoryStreamD1Ev
openspades:_ZN6spades19DynamicMemoryStreamD2Ev
openspades:_ZN6spades19ScriptContextHandle14ExecuteCheckedEv
openspades:_ZN6spades19ScriptContextHandle7ReleaseEv
openspades:_ZN6spades19ScriptContextHandleC1EPNS_13ScriptManager7ContextEPS1_
openspades:_ZN6spades19ScriptContextHandleC1ERKS0_
openspades:_ZN6spades19ScriptContextHandleC1Ev
openspades:_ZN6spades19ScriptContextHandleC2EPNS_13ScriptManager7ContextEPS1_
openspades:_ZN6spades19ScriptContextHandleC2ERKS0_
openspades:_ZN6spades19ScriptContextHandleC2Ev
openspades:_ZN6spades19ScriptContextHandleD1Ev
openspades:_ZN6spades19ScriptContextHandleD2Ev
openspades:_ZN6spades19ScriptContextHandleaSERKS0_
openspades:_ZN6spades20BitmapAtlasGenerator11MinRectSizeEv
openspades:_ZN6spades20BitmapAtlasGenerator4PackEv
openspades:_ZN6spades20BitmapAtlasGenerator8MinWidthEv
openspades:_ZN6spades20BitmapAtlasGenerator9AddBitmapEPNS_6BitmapE
openspades:_ZN6spades20BitmapAtlasGenerator9MinHeightEv
openspades:_ZN6spades20BitmapAtlasGeneratorC1Ev
openspades:_ZN6spades20BitmapAtlasGeneratorC2Ev
openspades:_ZN6spades20BitmapAtlasGeneratorD1Ev
openspades:_ZN6spades20BitmapAtlasGeneratorD2Ev
openspades:_ZN6spades20DeleteFltkPreferenceEv
openspades:_ZN6spades20ImportFltkPreferenceB5cxx11Ev
openspades:_ZN6spades20PackageUpdateManager11GetInstanceEv
openspades:_ZN6spades20PackageUpdateManager14CheckForUpdateEv
openspades:_ZN6spades20PackageUpdateManager17IsUpdateAvailableEv
openspades:_ZN6spades20PackageUpdateManager20GetLatestVersionInfoEv
openspades:_ZN6spades20PackageUpdateManager23GetUpdateInfoReadyStateEv
openspades:_ZN6spades20PackageUpdateManager27GetLatestVersionInfoPageURLB5cxx11Ev
openspades:_ZN6spades20PackageUpdateManagerC1Ev
openspades:_ZN6spades20PackageUpdateManagerC2Ev
openspades:_ZN6spades20PackageUpdateManagerD1Ev
openspades:_ZN6spades20PackageUpdateManagerD2Ev
openspades:_ZN6spades20ShowDirectoryInShellERKNSt7__cxx1112basic_stringIcSt11char_traitsIcESaIcEEE
openspades:_ZN6spades21ScriptObjectRegistrar11RegisterAllEPNS_13ScriptManagerENS0_5PhaseE
openspades:_ZN6spades21ScriptObjectRegistrar11RegisterOneERKNSt7__cxx1112basic_stringIcSt11char_traitsIcESaIcEEEPNS_13ScriptManagerENS0_5PhaseE
openspades:_ZN6spades21ScriptObjectRegistrarC1ERKNSt7__cxx1112basic_stringIcSt11char_traitsIcESaIcEEE
openspades:_ZN6spades21ScriptObjectRegistrarC2ERKNSt7__cxx1112basic_stringIcSt11char_traitsIcESaIcEEE
openspades:_ZN6spades22ThreadLocalStorageImpl6CreateEv
openspades:_ZN6spades23EscapeControlCharactersERKNSt7__cxx1112basic_stringIcSt11char_traitsIcESaIcEEE
openspades:_ZN6spades23g_userResourceDirectoryB5cxx11E
openspades:_ZN6spades24MaskConfigUpdateByScriptEb
openspades:_ZN6spades25GetCurrentLocaleAndRegionB5cxx11Ev
openspades:_ZN6spades26GetCodePointFromUTF8StringERKNSt7__cxx1112basic_stringIcSt11char_traitsIcESaIcEEEmPm
openspades:_ZN6spades3MixERKNS_7Vector2ES2_f
openspades:_ZN6spades3MixERKNS_7Vector3ES2_f
openspades:_ZN6spades3MixEfff
openspades:_ZN6spades3gui10MainScreen10MouseEventEff
openspades:_ZN6spades3gui10MainScreen10WheelEventEff
openspades:_ZN6spades3gui10MainScreen14TextInputEventERKNSt7__cxx1112basic_stringIcSt11char_traitsIcESaIcEEE
openspades:_ZN6spades3gui10MainScreen15RestoreRendererEv
openspades:_ZN6spades3gui10MainScreen15WantsToBeClosedEv
openspades:_ZN6spades3gui10MainScreen16AcceptsTextInputEv
openspades:_ZN6spades3gui10MainScreen16GetTextInputRectEv
openspades:_ZN6spades3gui10MainScreen16TextEditingEventERKNSt7__cxx1112basic_stringIcSt11char_traitsIcESaIcEEEii
openspades:_ZN6spades3gui10MainScreen17DrawStartupScreenEv
openspades:_ZN6spades3gui10MainScreen28NeedsAbsoluteMouseCoordinateEv
openspades:_ZN6spades3gui10MainScreen6DoInitEv
openspades:_ZN6spades3gui10MainScreen7ClosingEv
openspades:_ZN6spades3gui10MainScreen7ConnectB5cxx11ERKNS_13ServerAddressE
openspades:_ZN6spades3gui10MainScreen8KeyEventERKNSt7__cxx1112basic_stringIcSt11char_traitsIcESaIcEEEb
openspades:_ZN6spades3gui10MainScreen8RunFrameEf
openspades:_ZN6spades3gui10MainScreenC1EPNS_6client9IRendererEPNS2_12IAudioDeviceEPNS2_11FontManagerE
openspades:_ZN6spades3gui10MainScreenC2EPNS_6client9IRendererEPNS2_12IAudioDeviceEPNS2_11FontManagerE
openspades:_ZN6spades3gui10MainScreenD0Ev
openspades:_ZN6spades3gui10MainScreenD1Ev
openspades:_ZN6spades3gui10MainScreenD2Ev
openspades:_ZN6spades3gui11SDLGLDevice10BeginQueryENS_4draw9IGLDevice4EnumEj
openspades:_ZN6spades3gui11SDLGLDevice10BindBufferENS_4draw9IGLDevice4EnumEj
openspades:_ZN6spades3gui11SDLGLDevice10BlendColorEffff
openspades:_ZN6spades3gui11SDLGLDevice10BufferDataENS_4draw9IGLDevice4EnumEjPKvS4_
openspades:_ZN6spades3gui11SDLGLDevice10ClearColorEffff
openspades:_ZN6spades3gui11SDLGLDevice10ClearDepthEf
openspades:_ZN6spades3gui11SDLGLDevice10DepthRangeEff
openspades:_ZN6spades3gui11SDLGLDevice10DrawArraysENS_4draw9IGLDevice4EnumEij
openspades:_ZN6spades3gui11SDLGLDevice10GenTextureEv
openspades:_ZN6spades3gui11SDLGLDevice10GetIntegerENS_4draw9IGLDevice4EnumE
openspades:_ZN6spades3gui11SDLGLDevice10ReadPixelsEiijjNS_4draw9IGLDevice4EnumES4_Pv
openspades:_ZN6spades3gui11SDLGLDevice10TexImage2DENS_4draw9IGLDevice4EnumEiS4_jjiS4_S4_PKv
openspades:_ZN6spades3gui11SDLGLDevice10TexImage3DENS_4draw9IGLDevice4EnumEiS4_jjjiS4_S4_PKv
openspades:_ZN6spades3gui11SDLGLDevice10UseProgramEj
openspades:_ZN6spades3gui11SDLGLDevice11BindTextureENS_4draw9IGLDevice4EnumEj
openspades:_ZN6spades3gui11SDLGLDevice11DeleteQueryEj
openspades:_ZN6spades3gui11SDLGLDevice11LinkProgramEj
openspades:_ZN6spades3gui11SDLGLDevice11ScreenWidthEv
openspades:_ZN6spades3gui11SDLGLDevice11UnmapBufferENS_4draw9IGLDevice4EnumE
openspades:_ZN6spades3gui11SDLGLDevice12AttachShaderEjj
openspades:_ZN6spades3gui11SDLGLDevice12CreateShaderENS_4draw9IGLDevice4EnumE
openspades:_ZN6spades3gui11SDLGLDevice12DeleteBufferEj
openspades:_ZN6spades3gui11SDLGLDevice12DeleteShaderEj
openspades:_ZN6spades3gui11SDLGLDevice12DetachShaderEjj
openspades:_ZN6spades3gui11SDLGLDevice12DrawElementsENS_4draw9IGLDevice4EnumEjS4_PKv
openspades:_ZN6spades3gui11SDLGLDevice12ScreenHeightEv
openspades:_ZN6spades3gui11SDLGLDevice12ShaderSourceEjjPPKcPKi
openspades:_ZN6spades3gui11SDLGLDevice12TexParamaterENS_4draw9IGLDevice4EnumES4_S4_
openspades:_ZN6spades3gui11SDLGLDevice12TexParamaterENS_4draw9IGLDevice4EnumES4_f
openspades:_ZN6spades3gui11SDLGLDevice12VertexAttribEjf
openspades:_ZN6spades3gui11SDLGLDevice12VertexAttribEjff
openspades:_ZN6spades3gui11SDLGLDevice12VertexAttribEjfff
openspades:_ZN6spades3gui11SDLGLDevice12VertexAttribEjffff
openspades:_ZN6spades3gui11SDLGLDevice13ActiveTextureEj
openspades:_ZN6spades3gui11SDLGLDevice13BlendEquationENS_4draw9IGLDevice4EnumE
openspades:_ZN6spades3gui11SDLGLDevice13BlendEquationENS_4draw9IGLDevice4EnumES4_
openspades:_ZN6spades3gui11SDLGLDevice13BufferSubDataENS_4draw9IGLDevice4EnumEjjPKv
openspades:_ZN6spades3gui11SDLGLDevice13CompileShaderEj
openspades:_ZN6spades3gui11SDLGLDevice13CreateProgramEv
openspades:_ZN6spades3gui11SDLGLDevice13DeleteProgramEj
openspades:_ZN6spades3gui11SDLGLDevice13DeleteTextureEj
openspades:_ZN6spades3gui11SDLGLDevice13TexSubImage2DENS_4draw9IGLDevice4EnumEiiijjS4_S4_PKv
openspades:_ZN6spades3gui11SDLGLDevice13TexSubImage3DENS_4draw9IGLDevice4EnumEiiiijjjS4_S4_PKv
openspades:_ZN6spades3gui11SDLGLDevice14GenFramebufferEv
openspades:_ZN6spades3gui11SDLGLDevice14GenerateMipmapENS_4draw9IGLDevice4EnumE
openspades:_ZN6spades3gui11SDLGLDevice15BindFramebufferENS_4draw9IGLDevice4EnumEj
openspades:_ZN6spades3gui11SDLGLDevice15BlitFramebufferEiiiiiiiijNS_4draw9IGLDevice4EnumE
openspades:_ZN6spades3gui11SDLGLDevice15GenRenderbufferEv
openspades:_ZN6spades3gui11SDLGLDevice15ValidateProgramEj
openspades:_ZN6spades3gui11SDLGLDevice16BindRenderbufferENS_4draw9IGLDevice4EnumEj
openspades:_ZN6spades3gui11SDLGLDevice16GetIndexedStringENS_4draw9IGLDevice4EnumEj
openspades:_ZN6spades3gui11SDLGLDevice16GetShaderInfoLogEjjPjPc
openspades:_ZN6spades3gui11SDLGLDevice16GetShaderIntegerEjNS_4draw9IGLDevice4EnumE
openspades:_ZN6spades3gui11SDLGLDevice17CopyTexSubImage2DENS_4draw9IGLDevice4EnumEiiiiijj
openspades:_ZN6spades3gui11SDLGLDevice17DeleteFramebufferEj
openspades:_ZN6spades3gui11SDLGLDevice17GetAttribLocationEjPKc
openspades:_ZN6spades3gui11SDLGLDevice17GetProgramInfoLogEjjPjPc
openspades:_ZN6spades3gui11SDLGLDevice17GetProgramIntegerEjNS_4draw9IGLDevice4EnumE
openspades:_ZN6spades3gui11SDLGLDevice17parseBufferTargetENS_4draw9IGLDevice4EnumE
openspades:_ZN6spades3gui11SDLGLDevice18BindAttribLocationEjjPKc
openspades:_ZN6spades3gui11SDLGLDevice18DeleteRenderbufferEj
openspades:_ZN6spades3gui11SDLGLDevice18GetUniformLocationEjPKc
openspades:_ZN6spades3gui11SDLGLDevice18parseBlendEquationENS_4draw9IGLDevice4EnumE
openspades:_ZN6spades3gui11SDLGLDevice18parseBlendFunctionENS_4draw9IGLDevice4EnumE
openspades:_ZN6spades3gui11SDLGLDevice18parseTextureFormatENS_4draw9IGLDevice4EnumE
openspades:_ZN6spades3gui11SDLGLDevice18parseTextureTargetENS_4draw9IGLDevice4EnumE
openspades:_ZN6spades3gui11SDLGLDevice19DrawArraysInstancedENS_4draw9IGLDevice4EnumEijj
openspades:_ZN6spades3gui11SDLGLDevice19RenderbufferStorageENS_4draw9IGLDevice4EnumES4_jj
openspades:_ZN6spades3gui11SDLGLDevice19RenderbufferStorageENS_4draw9IGLDevice4EnumEjS4_jj
openspades:_ZN6spades3gui11SDLGLDevice19VertexAttribDivisorEjj
openspades:_ZN6spades3gui11SDLGLDevice19VertexAttribPointerEjiNS_4draw9IGLDevice4EnumEbjPKv
openspades:_ZN6spades3gui11SDLGLDevice20EndConditionalRenderEv
openspades:_ZN6spades3gui11SDLGLDevice20FramebufferTexture2DENS_4draw9IGLDevice4EnumES4_S4_ji
openspades:_ZN6spades3gui11SDLGLDevice20VertexAttribIPointerEjiNS_4draw9IGLDevice4EnumEjPKv
openspades:_ZN6spades3gui11SDLGLDevice21DrawElementsInstancedENS_4draw9IGLDevice4EnumEjS4_PKvj
openspades:_ZN6spades3gui11SDLGLDevice22BeginConditionalRenderEjNS_4draw9IGLDevice4EnumE
openspades:_ZN6spades3gui11SDLGLDevice22CheckFramebufferStatusENS_4draw9IGLDevice4EnumE
openspades:_ZN6spades3gui11SDLGLDevice22GetQueryObjectUIntegerEjNS_4draw9IGLDevice4EnumE
openspades:_ZN6spades3gui11SDLGLDevice22parseFramebufferTargetENS_4draw9IGLDevice4EnumE
openspades:_ZN6spades3gui11SDLGLDevice23EnableVertexAttribArrayEjb
openspades:_ZN6spades3gui11SDLGLDevice23FramebufferRenderbufferENS_4draw9IGLDevice4EnumES4_S4_j
openspades:_ZN6spades3gui11SDLGLDevice23parseRenderbufferTargetENS_4draw9IGLDevice4EnumE
openspades:_ZN6spades3gui11SDLGLDevice24GetQueryObjectUInteger64EjNS_4draw9IGLDevice4EnumE
openspades:_ZN6spades3gui11SDLGLDevice26parseTextureInternalFormatENS_4draw9IGLDevice4EnumE
openspades:_ZN6spades3gui11SDLGLDevice4SwapEv
openspades:_ZN6spades3gui11SDLGLDevice5ClearENS_4draw9IGLDevice4EnumE
openspades:_ZN6spades3gui11SDLGLDevice5FlushEv
openspades:_ZN6spades3gui11SDLGLDevice6EnableENS_4draw9IGLDevice4EnumEb
openspades:_ZN6spades3gui11SDLGLDevice6FinishEv
openspades:_ZN6spades3gui11SDLGLDevice7UniformEibRKNS_7Matrix4E
openspades:_ZN6spades3gui11SDLGLDevice7UniformEif
openspades:_ZN6spades3gui11SDLGLDevice7UniformEiff
openspades:_ZN6spades3gui11SDLGLDevice7UniformEifff
openspades:_ZN6spades3gui11SDLGLDevice7UniformEiffff
openspades:_ZN6spades3gui11SDLGLDevice7UniformEii
openspades:_ZN6spades3gui11SDLGLDevice7UniformEiii
openspades:_ZN6spades3gui11SDLGLDevice7UniformEiiii
openspades:_ZN6spades3gui11SDLGLDevice7UniformEiiiii
openspades:_ZN6spades3gui11SDLGLDevice8EndQueryENS_4draw9IGLDevice4EnumE
openspades:_ZN6spades3gui11SDLGLDevice8GenQueryEv
openspades:_ZN6spades3gui11SDLGLDevice8ViewportEiijj
openspades:_ZN6spades3gui11SDLGLDevice9BlendFuncENS_4draw9IGLDevice4EnumES4_
openspades:_ZN6spades3gui11SDLGLDevice9BlendFuncENS_4draw9IGLDevice4EnumES4_S4_S4_
openspades:_ZN6spades3gui11SDLGLDevice9ColorMaskEbbbb
openspades:_ZN6spades3gui11SDLGLDevice9DepthFuncENS_4draw9IGLDevice4EnumE
openspades:_ZN6spades3gui11SDLGLDevice9DepthMaskEb
openspades:_ZN6spades3gui11SDLGLDevice9FrontFaceENS_4draw9IGLDevice4EnumE
openspades:_ZN6spades3gui11SDLGLDevice9GenBufferEv
openspades:_ZN6spades3gui11SDLGLDevice9GetStringENS_4draw9IGLDevice4EnumE
openspades:_ZN6spades3gui11SDLGLDevice9LineWidthEf
openspades:_ZN6spades3gui11SDLGLDevice9MapBufferENS_4draw9IGLDevice4EnumES4_
openspades:_ZN6spades3gui11SDLGLDevice9parseTypeENS_4draw9IGLDevice4EnumE
openspades:_ZN6spades3gui11SDLGLDeviceC1EP10SDL_Window
openspades:_ZN6spades3gui11SDLGLDeviceC2EP10SDL_Window
openspades:_ZN6spades3gui11SDLGLDeviceD0Ev
openspades:_ZN6spades3gui11SDLGLDeviceD1Ev
openspades:_ZN6spades3gui11SDLGLDeviceD2Ev
openspades:_ZN6spades3gui13StartupScreen10MouseEventEff
openspades:_ZN6spades3gui13StartupScreen10WheelEventEff
openspades:_ZN6spades3gui13StartupScreen14TextInputEventERKNSt7__cxx1112basic_stringIcSt11char_traitsIcESaIcEEE
openspades:_ZN6spades3gui13StartupScreen15RestoreRendererEv
openspades:_ZN6spades3gui13StartupScreen15WantsToBeClosedEv
openspades:_ZN6spades3gui13StartupScreen16AcceptsTextInputEv
openspades:_ZN6spades3gui13StartupScreen16GetTextInputRectEv
openspades:_ZN6spades3gui13StartupScreen16TextEditingEventERKNSt7__cxx1112basic_stringIcSt11char_traitsIcESaIcEEEii
openspades:_ZN6spades3gui13StartupScreen17DrawStartupScreenEv
openspades:_ZN6spades3gui13StartupScreen28NeedsAbsoluteMouseCoordinateEv
openspades:_ZN6spades3gui13StartupScreen3RunEv
openspades:_ZN6spades3gui13StartupScreen5StartEv
openspades:_ZN6spades3gui13StartupScreen6DoInitEv
openspades:_ZN6spades3gui13StartupScreen7ClosingEv
openspades:_ZN6spades3gui13StartupScreen8KeyEventERKNSt7__cxx1112basic_stringIcSt11char_traitsIcESaIcEEEb
openspades:_ZN6spades3gui13StartupScreen8RunFrameEf
openspades:_ZN6spades3gui13StartupScreenC1EPNS_6client9IRendererEPNS2_12IAudioDeviceEPNS0_19StartupScreenHelperEPNS2_11FontManagerE
openspades:_ZN6spades3gui13StartupScreenC2EPNS_6client9IRendererEPNS2_12IAudioDeviceEPNS0_19StartupScreenHelperEPNS2_11FontManagerE
openspades:_ZN6spades3gui13StartupScreenD0Ev
openspades:_ZN6spades3gui13StartupScreenD1Ev
openspades:_ZN6spades3gui13StartupScreenD2Ev
openspades:_ZN6spades3gui16MainScreenHelper10GetCreditsB5cxx11Ev
openspades:_ZN6spades3gui16MainScreenHelper10StartQueryEv
openspades:_ZN6spades3gui16MainScreenHelper13ConnectServerENSt7__cxx1112basic_stringIcSt11char_traitsIcESaIcEEEi
openspades:_ZN6spades3gui16MainScreenHelper13GetServerListENSt7__cxx1112basic_stringIcSt11char_traitsIcESaIcEEEb
openspades:_ZN6spades3gui16MainScreenHelper13LoadFavoritesEv
openspades:_ZN6spades3gui16MainScreenHelper13SaveFavoritesEv
openspades:_ZN6spades3gui16MainScreenHelper17SetServerFavoriteENSt7__cxx1112basic_stringIcSt11char_traitsIcESaIcEEEb
openspades:_ZN6spades3gui16MainScreenHelper19MainScreenDestroyedEv
openspades:_ZN6spades3gui16MainScreenHelper19PollServerListStateEv
openspades:_ZN6spades3gui16MainScreenHelper22GetPendingErrorMessageB5cxx11Ev
openspades:_ZN6spades3gui16MainScreenHelper23GetPackageUpdateManagerEv
openspades:_ZN6spades3gui16MainScreenHelper25GetServerListQueryMessageB5cxx11Ev
openspades:_ZN6spades3gui16MainScreenHelperC1EPNS0_10MainScreenE
openspades:_ZN6spades3gui16MainScreenHelperC2EPNS0_10MainScreenE
openspades:_ZN6spades3gui16MainScreenHelperD0Ev
openspades:_ZN6spades3gui16MainScreenHelperD1Ev
openspades:_ZN6spades3gui16MainScreenHelperD2Ev
openspades:_ZN6spades3gui19StartupScreenHelper10FixConfigsEv
openspades:_ZN6spades3gui19StartupScreenHelper13ExamineSystemEv
openspades:_ZN6spades3gui19StartupScreenHelper13GetNumLocalesEv
openspades:_ZN6spades3gui19StartupScreenHelper16GetNumVideoModesEv
openspades:_ZN6spades3gui19StartupScreenHelper17GetNumReportLinesEv
openspades:_ZN6spades3gui19StartupScreenHelper17GetReportLineTextB5cxx11Ei
openspades:_ZN6spades3gui19StartupScreenHelper17GetVideoModeWidthEi
openspades:_ZN6spades3gui19StartupScreenHelper17OpenUpdateInfoURLEv
openspades:_ZN6spades3gui19StartupScreenHelper18GetReportLineColorEi
openspades:_ZN6spades3gui19StartupScreenHelper18GetVideoModeHeightEi
openspades:_ZN6spades3gui19StartupScreenHelper19BrowseUserDirectoryEv
openspades:_ZN6spades3gui19StartupScreenHelper21CheckConfigCapabilityERKNSt7__cxx1112basic_stringIcSt11char_traitsIcESaIcEEES9_
openspades:_ZN6spades3gui19StartupScreenHelper22GetOperatingSystemTypeB5cxx11Ev
openspades:_ZN6spades3gui19StartupScreenHelper22StartupScreenDestroyedEv
openspades:_ZN6spades3gui19StartupScreenHelper23GetPackageUpdateManagerEv
openspades:_ZN6spades3gui19StartupScreenHelper26GetLocaleDescriptionNativeB5cxx11Ei
openspades:_ZN6spades3gui19StartupScreenHelper27GetLocaleDescriptionEnglishB5cxx11Ei
openspades:_ZN6spades3gui19StartupScreenHelper5StartEv
openspades:_ZN6spades3gui19StartupScreenHelper9AddReportERKNSt7__cxx1112basic_stringIcSt11char_traitsIcESaIcEEENS_7Vector4E
openspades:_ZN6spades3gui19StartupScreenHelper9GetLocaleB5cxx11Ei
openspades:_ZN6spades3gui19StartupScreenHelperC1Ev
openspades:_ZN6spades3gui19StartupScreenHelperC2Ev
openspades:_ZN6spades3gui19StartupScreenHelperD0Ev
openspades:_ZN6spades3gui19StartupScreenHelperD1Ev
openspades:_ZN6spades3gui19StartupScreenHelperD2Ev
openspades:_ZN6spades3gui20MainScreenServerItemC1EPNS_10ServerItemEb
openspades:_ZN6spades3gui20MainScreenServerItemC2EPNS_10ServerItemEb
openspades:_ZN6spades3gui20MainScreenServerItemD0Ev
openspades:_ZN6spades3gui20MainScreenServerItemD1Ev
openspades:_ZN6spades3gui20MainScreenServerItemD2Ev
openspades:_ZN6spades3gui20MainScreenServerListD1Ev
openspades:_ZN6spades3gui20MainScreenServerListD2Ev
openspades:_ZN6spades3gui6Runner12RunProtectedEv
openspades:_ZN6spades3gui6Runner17OverrideVideoSizeEii
openspades:_ZN6spades3gui6Runner3RunEv
openspades:_ZN6spades3gui6RunnerC1Ev
openspades:_ZN6spades3gui6RunnerC2Ev
openspades:_ZN6spades3gui6RunnerD0Ev
openspades:_ZN6spades3gui6RunnerD1Ev
openspades:_ZN6spades3gui6RunnerD2Ev
openspades:_ZN6spades3gui9SDLRunner11GetModStateEv
openspades:_ZN6spades3gui9SDLRunner12ProcessEventER9SDL_EventPNS0_4ViewE
openspades:_ZN6spades3gui9SDLRunner12TranslateKeyB5cxx11ERK10SDL_Keysym
openspades:_ZN6spades3gui9SDLRunner13RunClientLoopEPNS_6client9IRendererEPNS2_12IAudioDeviceE
openspades:_ZN6spades3gui9SDLRunner14CreateRendererEP10SDL_Window
openspades:_ZN6spades3gui9SDLRunner15GetRendererTypeEv
openspades:_ZN6spades3gui9SDLRunner15TranslateButtonB5cxx11Eh
openspades:_ZN6spades3gui9SDLRunner17CreateAudioDeviceEv
openspades:_ZN6spades3gui9SDLRunner3RunEii
openspades:_ZN6spades3gui9SDLRunnerC1Ev
openspades:_ZN6spades3gui9SDLRunnerC2Ev
openspades:_ZN6spades3gui9SDLRunnerD0Ev
openspades:_ZN6spades3gui9SDLRunnerD1Ev
openspades:_ZN6spades3gui9SDLRunnerD2Ev
openspades:_ZN6spades4OBB37RayCastENS_7Vector3ES1_PS1_
openspades:_ZN6spades4draw10GLMapChunk10EmitVertexEiiiiiiiiiijiii
openspades:_ZN6spades4draw10GLMapChunk11SetRealizedEb
openspades:_ZN6spades4draw10GLMapChunk15DistanceFromEyeERKNS_7Vector3E
openspades:_ZN6spades4draw10GLMapChunk15RenderDepthPassEv
openspades:_ZN6spades4draw10GLMapChunk16RenderDLightPassESt6vectorINS0_14GLDynamicLightESaIS3_EE
openspades:_ZN6spades4draw10GLMapChunk18RenderSunlightPassEv
openspades:_ZN6spades4draw10GLMapChunk6UpdateEv
openspades:_ZN6spades4draw10GLMapChunk7IsSolidEiii
openspades:_ZN6spades4draw10GLMapChunk8calcAOIDEiiiiiiiii
openspades:_ZN6spades4draw10GLMapChunkC1EPNS0_13GLMapRendererEPNS_6client7GameMapEiii
openspades:_ZN6spades4draw10GLMapChunkC2EPNS0_13GLMapRendererEPNS_6client7GameMapEiii
openspades:_ZN6spades4draw10GLMapChunkD1Ev
openspades:_ZN6spades4draw10GLMapChunkD2Ev
openspades:_ZN6spades4draw10GLProfiler10BeginFrameEv
openspades:_ZN6spades4draw10GLProfiler10BeginPhaseERKNSt7__cxx1112basic_stringIcSt11char_traitsIcESaIcEEES9_
openspades:_ZN6spades4draw10GLProfiler10DrawResultERNS1_5PhaseE
openspades:_ZN6spades4draw10GLProfiler10DrawResultEv
openspades:_ZN6spades4draw10GLProfiler13EndPhaseInnerEv
openspades:_ZN6spades4draw10GLProfiler13NewTimerQueryEv
openspades:_ZN6spades4draw10GLProfiler15BeginPhaseInnerERNS1_5PhaseE
openspades:_ZN6spades4draw10GLProfiler19FinalizeMeasurementEv
openspades:_ZN6spades4draw10GLProfiler7ContextC1ERS1_PKcz
openspades:_ZN6spades4draw10GLProfiler7ContextC2ERS1_PKcz
openspades:_ZN6spades4draw10GLProfiler7ContextD1Ev
openspades:_ZN6spades4draw10GLProfiler7ContextD2Ev
openspades:_ZN6spades4draw10GLProfiler8EndFrameEv
openspades:_ZN6spades4draw10GLProfiler8EndPhaseEv
openspades:_ZN6spades4draw10GLProfiler9LogResultERNS1_5PhaseE
openspades:_ZN6spades4draw10GLProfilerC1ERNS0_10GLRendererE
openspades:_ZN6spades4draw10GLProfilerC2ERNS0_10GLRendererE
openspades:_ZN6spades4draw10GLProfilerD1Ev
openspades:_ZN6spades4draw10GLProfilerD2Ev
openspades:_ZN6spades4draw10GLRenderer10ReadBitmapEv
openspades:_ZN6spades4draw10GLRenderer10SetGameMapEPNS_6client7GameMapE
openspades:_ZN6spades4draw10GLRenderer10StartSceneERKNS_6client15SceneDefinitionE
openspades:_ZN6spades4draw10GLRenderer11CreateImageEPNS_6BitmapE
openspades:_ZN6spades4draw10GLRenderer11CreateModelEPNS_10VoxelModelE
openspades:_ZN6spades4draw10GLRenderer11RenderModelEPNS_6client6IModelERKNS2_16ModelRenderParamE
openspades:_ZN6spades4draw10GLRenderer11ScreenWidthEv
openspades:_ZN6spades4draw10GLRenderer11SetFogColorENS_7Vector3E
openspades:_ZN6spades4draw10GLRenderer12AddDebugLineENS_7Vector3ES2_NS_7Vector4E
openspades:_ZN6spades4draw10GLRenderer12ScreenHeightEv
openspades:_ZN6spades4draw10GLRenderer13AddLongSpriteEPNS_6client6IImageENS_7Vector3ES5_f
openspades:_ZN6spades4draw10GLRenderer13BuildFrustrumEv
openspades:_ZN6spades4draw10GLRenderer13RegisterImageEPKc
openspades:_ZN6spades4draw10GLRenderer13RegisterModelEPKc
openspades:_ZN6spades4draw10GLRenderer13RenderObjectsEv
openspades:_ZN6spades4draw10GLRenderer14GameMapChangedEiiiPNS_6client7GameMapE
openspades:_ZN6spades4draw10GLRenderer14RegisterShaderERKNSt7__cxx1112basic_stringIcSt11char_traitsIcESaIcEEE
openspades:_ZN6spades4draw10GLRenderer15BoxFrustrumCullERKNS_5AABB3E
openspades:_ZN6spades4draw10GLRenderer15DrawFlatGameMapERKNS_5AABB2ES4_
openspades:_ZN6spades4draw10GLRenderer15RegisterProgramERKNSt7__cxx1112basic_stringIcSt11char_traitsIcESaIcEEE
openspades:_ZN6spades4draw10GLRenderer16RenderDebugLinesEv
openspades:_ZN6spades4draw10GLRenderer17EnsureInitializedEv
openspades:_ZN6spades4draw10GLRenderer18EnsureSceneStartedEv
openspades:_ZN6spades4draw10GLRenderer18SphereFrustrumCullERKNS_7Vector3Ef
openspades:_ZN6spades4draw10GLRenderer19MultiplyScreenColorENS_7Vector3E
openspades:_ZN6spades4draw10GLRenderer20CreateModelOptimizedEPNS_10VoxelModelE
openspades:_ZN6spades4draw10GLRenderer21BuildProjectionMatrixEv
openspades:_ZN6spades4draw10GLRenderer21EnsureSceneNotStartedEv
openspades:_ZN6spades4draw10GLRenderer23GetFogColorForSolidPassEv
openspades:_ZN6spades4draw10GLRenderer26SetColorAlphaPremultipliedENS_7Vector4E
openspades:_ZN6spades4draw10GLRenderer4FlipEv
openspades:_ZN6spades4draw10GLRenderer4InitEv
openspades:_ZN6spades4draw10GLRenderer8AddLightERKNS_6client17DynamicLightParamE
openspades:_ZN6spades4draw10GLRenderer8EndSceneEv
openspades:_ZN6spades4draw10GLRenderer8SetColorENS_7Vector4E
openspades:_ZN6spades4draw10GLRenderer8ShutdownEv
openspades:_ZN6spades4draw10GLRenderer9AddSpriteEPNS_6client6IImageENS_7Vector3Eff
openspades:_ZN6spades4draw10GLRenderer9BuildViewEv
openspades:_ZN6spades4draw10GLRenderer9DrawImageEPNS_6client6IImageERKNS_5AABB2E
openspades:_ZN6spades4draw10GLRenderer9DrawImageEPNS_6client6IImageERKNS_5AABB2ES7_
openspades:_ZN6spades4draw10GLRenderer9DrawImageEPNS_6client6IImageERKNS_7Vector2E
openspades:_ZN6spades4draw10GLRenderer9DrawImageEPNS_6client6IImageERKNS_7Vector2ERKNS_5AABB2E
openspades:_ZN6spades4draw10GLRenderer9DrawImageEPNS_6client6IImageERKNS_7Vector2ES7_S7_RKNS_5AABB2E
openspades:_ZN6spades4draw10GLRenderer9FrameDoneEv
openspades:_ZN6spades4draw10GLRendererC1EPNS0_9IGLDeviceE
openspades:_ZN6spades4draw10GLRendererC2EPNS0_9IGLDeviceE
openspades:_ZN6spades4draw10GLRendererD0Ev
openspades:_ZN6spades4draw10GLRendererD1Ev
openspades:_ZN6spades4draw10GLRendererD2Ev
openspades:_ZN6spades4draw10GLSettingsC1Ev
openspades:_ZN6spades4draw10GLSettingsC2Ev
openspades:_ZN6spades4draw10SWRenderer10ReadBitmapEv
openspades:_ZN6spades4draw10SWRenderer10SetGameMapEPNS_6client7GameMapE
openspades:_ZN6spades4draw10SWRenderer10StartSceneERKNS_6client15SceneDefinitionE
openspades:_ZN6spades4draw10SWRenderer11CreateImageEPNS_6BitmapE
openspades:_ZN6spades4draw10SWRenderer11CreateModelEPNS_10VoxelModelE
openspades:_ZN6spades4draw10SWRenderer11EnsureValidEv
openspades:_ZN6spades4draw10SWRenderer11RenderModelEPNS_6client6IModelERKNS2_16ModelRenderParamE
openspades:_ZN6spades4draw10SWRenderer11ScreenWidthEv
openspades:_ZN6spades4draw10SWRenderer11SetFogColorENS_7Vector3E
openspades:_ZN6spades4draw10SWRenderer12AddDebugLineENS_7Vector3ES2_NS_7Vector4E
openspades:_ZN6spades4draw10SWRenderer12ScreenHeightEv
openspades:_ZN6spades4draw10SWRenderer13AddLongSpriteEPNS_6client6IImageENS_7Vector3ES5_f
openspades:_ZN6spades4draw10SWRenderer13BuildFrustrumEv
openspades:_ZN6spades4draw10SWRenderer13RegisterImageEPKc
openspades:_ZN6spades4draw10SWRenderer13RegisterModelEPKc
openspades:_ZN6spades4draw10SWRenderer14GameMapChangedEiiiPNS_6client7GameMapE
openspades:_ZN6spades4draw10SWRenderer14SetFramebufferEPNS_6BitmapE
openspades:_ZN6spades4draw10SWRenderer15BoxFrustrumCullERKNS_5AABB3E
openspades:_ZN6spades4draw10SWRenderer15DrawFlatGameMapERKNS_5AABB2ES4_
openspades:_ZN6spades4draw10SWRenderer17EnsureInitializedEv
openspades:_ZN6spades4draw10SWRenderer18EnsureSceneStartedEv
openspades:_ZN6spades4draw10SWRenderer18SphereFrustrumCullERKNS_7Vector3Ef
openspades:_ZN6spades4draw10SWRenderer19MultiplyScreenColorENS_7Vector3E
openspades:_ZN6spades4draw10SWRenderer21BuildProjectionMatrixEv
openspades:_ZN6spades4draw10SWRenderer21EnsureSceneNotStartedEv
openspades:_ZN6spades4draw10SWRenderer26SetColorAlphaPremultipliedENS_7Vector4E
openspades:_ZN6spades4draw10SWRenderer4FlipEv
openspades:_ZN6spades4draw10SWRenderer4InitEv
openspades:_ZN6spades4draw10SWRenderer8AddLightERKNS_6client17DynamicLightParamE
openspades:_ZN6spades4draw10SWRenderer8ApplyFogILNS0_14SWFeatureLevelE2EEEvv
openspades:_ZN6spades4draw10SWRenderer8EndSceneEv
openspades:_ZN6spades4draw10SWRenderer8SetColorENS_7Vector4E
openspades:_ZN6spades4draw10SWRenderer8ShutdownEv
openspades:_ZN6spades4draw10SWRenderer9AddSpriteEPNS_6client6IImageENS_7Vector3Eff
openspades:_ZN6spades4draw10SWRenderer9BuildViewEv
openspades:_ZN6spades4draw10SWRenderer9DrawImageEPNS_6client6IImageERKNS_5AABB2E
openspades:_ZN6spades4draw10SWRenderer9DrawImageEPNS_6client6IImageERKNS_5AABB2ES7_
openspades:_ZN6spades4draw10SWRenderer9DrawImageEPNS_6client6IImageERKNS_7Vector2E
openspades:_ZN6spades4draw10SWRenderer9DrawImageEPNS_6client6IImageERKNS_7Vector2ERKNS_5AABB2E
openspades:_ZN6spades4draw10SWRenderer9DrawImageEPNS_6client6IImageERKNS_7Vector2ES7_S7_RKNS_5AABB2E
openspades:_ZN6spades4draw10SWRenderer9FrameDoneEv
openspades:_ZN6spades4draw10SWRendererC1EPNS0_6SWPortENS0_14SWFeatureLevelE
openspades:_ZN6spades4draw10SWRendererC2EPNS0_6SWPortENS0_14SWFeatureLevelE
openspades:_ZN6spades4draw10SWRendererD0Ev
openspades:_ZN6spades4draw10SWRendererD1Ev
openspades:_ZN6spades4draw10SWRendererD2Ev
openspades:_ZN6spades4draw11GLFogFilter6FilterENS0_20GLFramebufferManager12BufferHandleE
openspades:_ZN6spades4draw11GLFogFilterC1EPNS0_10GLRendererE
openspades:_ZN6spades4draw11GLFogFilterC2EPNS0_10GLRendererE
openspades:_ZN6spades4draw12GLFXAAFilter6FilterENS0_20GLFramebufferManager12BufferHandleE
openspades:_ZN6spades4draw12GLFXAAFilterC1EPNS0_10GLRendererE
openspades:_ZN6spades4draw12GLFXAAFilterC2EPNS0_10GLRendererE
openspades:_ZN6spades4draw12GLLensFilter6FilterENS0_20GLFramebufferManager12BufferHandleE
openspades:_ZN6spades4draw12GLLensFilterC1EPNS0_10GLRendererE
openspades:_ZN6spades4draw12GLLensFilterC2EPNS0_10GLRendererE
openspades:_ZN6spades4draw12GLSSAOFilter20ApplyBilateralFilterENS0_20GLFramebufferManager12BufferHandleEbii
openspades:_ZN6spades4draw12GLSSAOFilter20GenerateRawSSAOImageEii
openspades:_ZN6spades4draw12GLSSAOFilter6FilterEv
openspades:_ZN6spades4draw12GLSSAOFilterC1EPNS0_10GLRendererE
openspades:_ZN6spades4draw12GLSSAOFilterC2EPNS0_10GLRendererE
openspades:_ZN6spades4draw12GLVoxelModel13BuildVerticesEPNS_10VoxelModelE
openspades:_ZN6spades4draw12GLVoxelModel14PreloadShadersEPNS0_10GLRendererE
openspades:_ZN6spades4draw12GLVoxelModel18RenderSunlightPassESt6vectorINS_6client16ModelRenderParamESaIS4_EE
openspades:_ZN6spades4draw12GLVoxelModel19RenderShadowMapPassESt6vectorINS_6client16ModelRenderParamESaIS4_EE
openspades:_ZN6spades4draw12GLVoxelModel22RenderDynamicLightPassESt6vectorINS_6client16ModelRenderParamESaIS4_EES2_INS0_14GLDynamicLightESaIS7_EE
openspades:_ZN6spades4draw12GLVoxelModel8EmitFaceEPNS_10VoxelModelEiiiiiij
openspades:_ZN6spades4draw12GLVoxelModel8calcAOIDEPNS_10VoxelModelEiiiiiiiii
openspades:_ZN6spades4draw12GLVoxelModel9PrerenderESt6vectorINS_6client16ModelRenderParamESaIS4_EE
openspades:_ZN6spades4draw12GLVoxelModelC1EPNS_10VoxelModelEPNS0_10GLRendererE
openspades:_ZN6spades4draw12GLVoxelModelC2EPNS_10VoxelModelEPNS0_10GLRendererE
openspades:_ZN6spades4draw12GLVoxelModelD0Ev
openspades:_ZN6spades4draw12GLVoxelModelD1Ev
openspades:_ZN6spades4draw12GLVoxelModelD2Ev
openspades:_ZN6spades4draw13GLBloomFilter6FilterENS0_20GLFramebufferManager12BufferHandleE
openspades:_ZN6spades4draw13GLBloomFilterC1EPNS0_10GLRendererE
openspades:_ZN6spades4draw13GLBloomFilterC2EPNS0_10GLRendererE
openspades:_ZN6spades4draw13GLMapRenderer13RealizeChunksENS_7Vector3E
openspades:_ZN6spades4draw13GLMapRenderer14GameMapChangedEiiiPNS_6client7GameMapE
openspades:_ZN6spades4draw13GLMapRenderer14PreloadShadersEPNS0_10GLRendererE
openspades:_ZN6spades4draw13GLMapRenderer14RenderBackfaceEv
openspades:_ZN6spades4draw13GLMapRenderer15DrawColumnDepthEiiiNS_7Vector3E
openspades:_ZN6spades4draw13GLMapRenderer16DrawColumnDLightEiiiNS_7Vector3ERKSt6vectorINS0_14GLDynamicLightESaIS4_EE
openspades:_ZN6spades4draw13GLMapRenderer18DrawColumnSunlightEiiiNS_7Vector3E
openspades:_ZN6spades4draw13GLMapRenderer18RenderSunlightPassEv
openspades:_ZN6spades4draw13GLMapRenderer22RenderDynamicLightPassESt6vectorINS0_14GLDynamicLightESaIS3_EE
openspades:_ZN6spades4draw13GLMapRenderer7RealizeEv
openspades:_ZN6spades4draw13GLMapRenderer9PrerenderEv
openspades:_ZN6spades4draw13GLMapRendererC1EPNS_6client7GameMapEPNS0_10GLRendererE
openspades:_ZN6spades4draw13GLMapRendererC2EPNS_6client7GameMapEPNS0_10GLRendererE
openspades:_ZN6spades4draw13GLMapRendererD0Ev
openspades:_ZN6spades4draw13GLMapRendererD1Ev
openspades:_ZN6spades4draw13GLMapRendererD2Ev
openspades:_ZN6spades4draw13SWMapRenderer6RenderERKNS_6client15SceneDefinitionEPNS_6BitmapEPf
openspades:_ZN6spades4draw13SWMapRenderer8BuildRleEiiRSt6vectorIaSaIaEE
openspades:_ZN6spades4draw13SWMapRenderer9UpdateRleEii
openspades:_ZN6spades4draw13SWMapRendererC1EPNS0_10SWRendererEPNS_6client7GameMapENS0_14SWFeatureLevelE
openspades:_ZN6spades4draw13SWMapRendererC2EPNS0_10SWRendererEPNS_6client7GameMapENS0_14SWFeatureLevelE
openspades:_ZN6spades4draw13SWMapRendererD1Ev
openspades:_ZN6spades4draw13SWMapRendererD2Ev
openspades:_ZN6spades4draw14GLDynamicLightC1ERKNS_6client17DynamicLightParamE
openspades:_ZN6spades4draw14GLDynamicLightC2ERKNS_6client17DynamicLightParamE
openspades:_ZN6spades4draw14GLImageManager11CreateImageERKNSt7__cxx1112basic_stringIcSt11char_traitsIcESaIcEEE
openspades:_ZN6spades4draw14GLImageManager13DrawAllImagesEPNS0_10GLRendererE
openspades:_ZN6spades4draw14GLImageManager13GetWhiteImageEv
openspades:_ZN6spades4draw14GLImageManager13RegisterImageERKNSt7__cxx1112basic_stringIcSt11char_traitsIcESaIcEEE
openspades:_ZN6spades4draw14GLImageManagerC1EPNS0_9IGLDeviceE
openspades:_ZN6spades4draw14GLImageManagerC2EPNS0_9IGLDeviceE
openspades:_ZN6spades4draw14GLImageManagerD1Ev
openspades:_ZN6spades4draw14GLImageManagerD2Ev
openspades:_ZN6spades4draw14GLModelManager11CreateModelEPKc
openspades:_ZN6spades4draw14GLModelManager13RegisterModelEPKc
openspades:_ZN6spades4draw14GLModelManagerC1EPNS0_10GLRendererE
openspades:_ZN6spades4draw14GLModelManagerC2EPNS0_10GLRendererE
openspades:_ZN6spades4draw14GLModelManagerD1Ev
openspades:_ZN6spades4draw14GLModelManagerD2Ev
openspades:_ZN6spades4draw14GLQuadRenderer22SetCoordAttributeIndexEj
openspades:_ZN6spades4draw14GLQuadRenderer4DrawEv
openspades:_ZN6spades4draw14GLQuadRendererC1EPNS0_9IGLDeviceE
openspades:_ZN6spades4draw14GLQuadRendererC2EPNS0_9IGLDeviceE
openspades:_ZN6spades4draw14GLQuadRendererD1Ev
openspades:_ZN6spades4draw14GLQuadRendererD2Ev
openspades:_ZN6spades4draw14GLShadowShader14RegisterShaderEPNS0_16GLProgramManagerERNS0_10GLSettingsEbb
openspades:_ZN6spades4draw14GLShadowShaderC1Ev
openspades:_ZN6spades4draw14GLShadowShaderC2Ev
openspades:_ZN6spades4draw14GLShadowShaderclEPNS0_10GLRendererEPNS0_9GLProgramEi
openspades:_ZN6spades4draw14SWImageManager11CreateImageEPNS_6BitmapE
openspades:_ZN6spades4draw14SWImageManager13RegisterImageERKNSt7__cxx1112basic_stringIcSt11char_traitsIcESaIcEEE
openspades:_ZN6spades4draw14SWImageManagerD1Ev
openspades:_ZN6spades4draw14SWImageManagerD2Ev
openspades:_ZN6spades4draw14SWModelManager11CreateModelEPNS_10VoxelModelE
openspades:_ZN6spades4draw14SWModelManager13RegisterModelERKNSt7__cxx1112basic_stringIcSt11char_traitsIcESaIcEEE
openspades:_ZN6spades4draw14SWModelManagerD1Ev
openspades:_ZN6spades4draw14SWModelManagerD2Ev
openspades:_ZN6spades4draw15GLImageRenderer3AddEffffffffffffffffffff
openspades:_ZN6spades4draw15GLImageRenderer5FlushEv
openspades:_ZN6spades4draw15GLImageRenderer8SetImageEPNS0_7GLImageE
openspades:_ZN6spades4draw15GLImageRendererC1EPNS0_10GLRendererE
openspades:_ZN6spades4draw15GLImageRendererC2EPNS0_10GLRendererE
openspades:_ZN6spades4draw15GLImageRendererD1Ev
openspades:_ZN6spades4draw15GLImageRendererD2Ev
openspades:_ZN6spades4draw15GLModelRenderer18RenderSunlightPassEv
openspades:_ZN6spades4draw15GLModelRenderer19RenderShadowMapPassEv
openspades:_ZN6spades4draw15GLModelRenderer22RenderDynamicLightPassESt6vectorINS0_14GLDynamicLightESaIS3_EE
openspades:_ZN6spades4draw15GLModelRenderer5ClearEv
openspades:_ZN6spades4draw15GLModelRenderer8AddModelEPNS0_7GLModelERKNS_6client16ModelRenderParamE
openspades:_ZN6spades4draw15GLModelRenderer9PrerenderEv
openspades:_ZN6spades4draw15GLModelRendererC1EPNS0_10GLRendererE
openspades:_ZN6spades4draw15GLModelRendererC2EPNS0_10GLRendererE
openspades:_ZN6spades4draw15GLModelRendererD1Ev
openspades:_ZN6spades4draw15GLModelRendererD2Ev
openspades:_ZN6spades4draw15GLWaterRenderer10MarkUpdateEii
openspades:_ZN6spades4draw15GLWaterRenderer13BuildVerticesEv
openspades:_ZN6spades4draw15GLWaterRenderer14GameMapChangedEiiiPNS_6client7GameMapE
openspades:_ZN6spades4draw15GLWaterRenderer14PreloadShadersEPNS0_10GLRendererE
openspades:_ZN6spades4draw15GLWaterRenderer6RenderEv
openspades:_ZN6spades4draw15GLWaterRenderer6UpdateEf
openspades:_ZN6spades4draw15GLWaterRendererC1EPNS0_10GLRendererEPNS_6client7GameMapE
openspades:_ZN6spades4draw15GLWaterRendererC2EPNS0_10GLRendererEPNS_6client7GameMapE
openspades:_ZN6spades4draw15GLWaterRendererD1Ev
openspades:_ZN6spades4draw15GLWaterRendererD2Ev
openspades:_ZN6spades4draw15SWImageRenderer11DrawPolygonEPNS0_7SWImageERKNS1_6VertexES6_S6_
openspades:_ZN6spades4draw15SWImageRenderer13SetShaderTypeENS1_10ShaderTypeE
openspades:_ZN6spades4draw15SWImageRenderer14SetDepthBufferEPf
openspades:_ZN6spades4draw15SWImageRenderer14SetFramebufferEPNS_6BitmapE
openspades:_ZN6spades4draw15SWImageRenderer9SetZRangeEff
openspades:_ZN6spades4draw15SWImageRendererC1ENS0_14SWFeatureLevelE
openspades:_ZN6spades4draw15SWImageRendererC2ENS0_14SWFeatureLevelE
openspades:_ZN6spades4draw15SWImageRendererD1Ev
openspades:_ZN6spades4draw15SWImageRendererD2Ev
openspades:_ZN6spades4draw15SWModelRenderer6RenderEPNS0_7SWModelERKNS_6client16ModelRenderParamE
openspades:_ZN6spades4draw15SWModelRendererC1EPNS0_10SWRendererENS0_14SWFeatureLevelE
openspades:_ZN6spades4draw15SWModelRendererC2EPNS0_10SWRendererENS0_14SWFeatureLevelE
openspades:_ZN6spades4draw15SWModelRendererD1Ev
openspades:_ZN6spades4draw15SWModelRendererD2Ev
openspades:_ZN6spades4draw16GLLensDustFilter10DownSampleENS0_20GLFramebufferManager12BufferHandleEb
openspades:_ZN6spades4draw16GLLensDustFilter11UpdateNoiseEv
openspades:_ZN6spades4draw16GLLensDustFilter12GaussianBlurENS0_20GLFramebufferManager12BufferHandleEb
openspades:_ZN6spades4draw16GLLensDustFilter6FilterENS0_20GLFramebufferManager12BufferHandleE
openspades:_ZN6spades4draw16GLLensDustFilterC1EPNS0_10GLRendererE
openspades:_ZN6spades4draw16GLLensDustFilterC2EPNS0_10GLRendererE
openspades:_ZN6spades4draw16GLLensDustFilterD1Ev
openspades:_ZN6spades4draw16GLLensDustFilterD2Ev
openspades:_ZN6spades4draw16GLProgramManager12CreateShaderERKNSt7__cxx1112basic_stringIcSt11char_traitsIcESaIcEEE
openspades:_ZN6spades4draw16GLProgramManager13CreateProgramERKNSt7__cxx1112basic_stringIcSt11char_traitsIcESaIcEEE
openspades:_ZN6spades4draw16GLProgramManager14RegisterShaderERKNSt7__cxx1112basic_stringIcSt11char_traitsIcESaIcEEE
openspades:_ZN6spades4draw16GLProgramManager15RegisterProgramERKNSt7__cxx1112basic_stringIcSt11char_traitsIcESaIcEEE
openspades:_ZN6spades4draw16GLProgramManagerC1EPNS0_9IGLDeviceEPNS0_20IGLShadowMapRendererERNS0_10GLSettingsE
openspades:_ZN6spades4draw16GLProgramManagerC2EPNS0_9IGLDeviceEPNS0_20IGLShadowMapRendererERNS0_10GLSettingsE
openspades:_ZN6spades4draw16GLProgramManagerD1Ev
openspades:_ZN6spades4draw16GLProgramManagerD2Ev
openspades:_ZN6spades4draw16GLProgramUniform10SetProgramEPNS0_9GLProgramE
openspades:_ZN6spades4draw16GLProgramUniform8SetValueERKNS_7Matrix4Eb
openspades:_ZN6spades4draw16GLProgramUniform8SetValueEf
openspades:_ZN6spades4draw16GLProgramUniform8SetValueEff
openspades:_ZN6spades4draw16GLProgramUniform8SetValueEfff
openspades:_ZN6spades4draw16GLProgramUniform8SetValueEffff
openspades:_ZN6spades4draw16GLProgramUniform8SetValueEi
openspades:_ZN6spades4draw16GLProgramUniform8SetValueEii
openspades:_ZN6spades4draw16GLProgramUniform8SetValueEiii
openspades:_ZN6spades4draw16GLProgramUniform8SetValueEiiii
openspades:_ZN6spades4draw16GLProgramUniformC1ERKNSt7__cxx1112basic_stringIcSt11char_traitsIcESaIcEEE
openspades:_ZN6spades4draw16GLProgramUniformC2ERKNSt7__cxx1112basic_stringIcSt11char_traitsIcESaIcEEE
openspades:_ZN6spades4draw16GLSpriteRenderer3AddEPNS0_7GLImageENS_7Vector3EffNS_7Vector4E
openspades:_ZN6spades4draw16GLSpriteRenderer5ClearEv
openspades:_ZN6spades4draw16GLSpriteRenderer5FlushEv
openspades:_ZN6spades4draw16GLSpriteRenderer6RenderEv
openspades:_ZN6spades4draw16GLSpriteRendererC1EPNS0_10GLRendererE
openspades:_ZN6spades4draw16GLSpriteRendererC2EPNS0_10GLRendererE
openspades:_ZN6spades4draw16GLSpriteRendererD0Ev
openspades:_ZN6spades4draw16GLSpriteRendererD1Ev
openspades:_ZN6spades4draw16GLSpriteRendererD2Ev
openspades:_ZN6spades4draw17GLFlatMapRenderer14GameMapChangedEiiiPNS_6client7GameMapE
openspades:_ZN6spades4draw17GLFlatMapRenderer14GenerateBitmapEiiii
openspades:_ZN6spades4draw17GLFlatMapRenderer4DrawERKNS_5AABB2ES4_
openspades:_ZN6spades4draw17GLFlatMapRendererC1EPNS0_10GLRendererEPNS_6client7GameMapE
openspades:_ZN6spades4draw17GLFlatMapRendererC2EPNS0_10GLRendererEPNS_6client7GameMapE
openspades:_ZN6spades4draw17GLFlatMapRendererD1Ev
openspades:_ZN6spades4draw17GLFlatMapRendererD2Ev
openspades:_ZN6spades4draw17GLLensFlareFilter4BlurENS0_20GLFramebufferManager12BufferHandleEf
openspades:_ZN6spades4draw17GLLensFlareFilter4DrawENS_7Vector3EbS2_b
openspades:_ZN6spades4draw17GLLensFlareFilter4DrawEv
openspades:_ZN6spades4draw17GLLensFlareFilterC1EPNS0_10GLRendererE
openspades:_ZN6spades4draw17GLLensFlareFilterC2EPNS0_10GLRendererE
openspades:_ZN6spades4draw17GLShadowMapShader14RegisterShaderEPNS0_16GLProgramManagerE
openspades:_ZN6spades4draw17GLShadowMapShader23CreateShadowMapRendererEPNS0_10GLRendererE
openspades:_ZN6spades4draw17GLShadowMapShaderC1Ev
openspades:_ZN6spades4draw17GLShadowMapShaderC2Ev
openspades:_ZN6spades4draw17GLShadowMapShaderclEPNS0_10GLRendererEPNS0_9GLProgramEi
openspades:_ZN6spades4draw17SWFlatMapRenderer13GeneratePixelEii
openspades:_ZN6spades4draw17SWFlatMapRenderer14SetNeedsUpdateEii
openspades:_ZN6spades4draw17SWFlatMapRenderer6UpdateEb
openspades:_ZN6spades4draw17SWFlatMapRendererC1EPNS0_10SWRendererEPNS_6client7GameMapE
openspades:_ZN6spades4draw17SWFlatMapRendererC2EPNS0_10SWRendererEPNS_6client7GameMapE
openspades:_ZN6spades4draw17SWFlatMapRendererD1Ev
openspades:_ZN6spades4draw17SWFlatMapRendererD2Ev
openspades:_ZN6spades4draw18DetectFeatureLevelEv
openspades:_ZN6spades4draw18GLCameraBlurFilter6FilterENS0_20GLFramebufferManager12BufferHandleEf
openspades:_ZN6spades4draw18GLCameraBlurFilterC1EPNS0_10GLRendererE
openspades:_ZN6spades4draw18GLCameraBlurFilterC2EPNS0_10GLRendererE
openspades:_ZN6spades4draw18GLProgramAttributeC1ERKNSt7__cxx1112basic_stringIcSt11char_traitsIcESaIcEEE
openspades:_ZN6spades4draw18GLProgramAttributeC2ERKNSt7__cxx1112basic_stringIcSt11char_traitsIcESaIcEEE
openspades:_ZN6spades4draw18GLProgramAttributeclEPNS0_9GLProgramE
openspades:_ZN6spades4draw19GLMapShadowRenderer10MarkUpdateEii
openspades:_ZN6spades4draw19GLMapShadowRenderer13GeneratePixelEii
openspades:_ZN6spades4draw19GLMapShadowRenderer14GameMapChangedEiiiPNS_6client7GameMapE
openspades:_ZN6spades4draw19GLMapShadowRenderer6UpdateEv
openspades:_ZN6spades4draw19GLMapShadowRendererC1EPNS0_10GLRendererEPNS_6client7GameMapE
openspades:_ZN6spades4draw19GLMapShadowRendererC2EPNS0_10GLRendererEPNS_6client7GameMapE
openspades:_ZN6spades4draw19GLMapShadowRendererD1Ev
openspades:_ZN6spades4draw19GLMapShadowRendererD2Ev
openspades:_ZN6spades4draw19GLRadiosityRenderer10InvalidateEiiiiii
openspades:_ZN6spades4draw19GLRadiosityRenderer11EncodeValueENS_7Vector3E
openspades:_ZN6spades4draw19GLRadiosityRenderer11UpdateChunkEiii
openspades:_ZN6spades4draw19GLRadiosityRenderer14GameMapChangedEiiiPNS_6client7GameMapE
openspades:_ZN6spades4draw19GLRadiosityRenderer17GetNumDirtyChunksEv
openspades:_ZN6spades4draw19GLRadiosityRenderer17UpdateDirtyChunksEv
openspades:_ZN6spades4draw19GLRadiosityRenderer20CompressDynamicRangeEf
openspades:_ZN6spades4draw19GLRadiosityRenderer6UpdateEv
openspades:_ZN6spades4draw19GLRadiosityRenderer8EvaluateENS_10IntVector3E
openspades:_ZN6spades4draw19GLRadiosityRendererC1EPNS0_10GLRendererEPNS_6client7GameMapE
openspades:_ZN6spades4draw19GLRadiosityRendererC2EPNS0_10GLRendererEPNS_6client7GameMapE
openspades:_ZN6spades4draw19GLRadiosityRendererD1Ev
openspades:_ZN6spades4draw19GLRadiosityRendererD2Ev
openspades:_ZN6spades4draw20GLAutoExposureFilter6FilterENS0_20GLFramebufferManager12BufferHandleEf
openspades:_ZN6spades4draw20GLAutoExposureFilterC1EPNS0_10GLRendererE
openspades:_ZN6spades4draw20GLAutoExposureFilterC2EPNS0_10GLRendererE
openspades:_ZN6spades4draw20GLAutoExposureFilterD1Ev
openspades:_ZN6spades4draw20GLAutoExposureFilterD2Ev
openspades:_ZN6spades4draw20GLDepthOfFieldFilter11GenerateCoCEfffff
openspades:_ZN6spades4draw20GLDepthOfFieldFilter11UnderSampleENS0_20GLFramebufferManager12BufferHandleE
openspades:_ZN6spades4draw20GLDepthOfFieldFilter21HighQualityDoFEnabledEv
openspades:_ZN6spades4draw20GLDepthOfFieldFilter4BlurENS0_20GLFramebufferManager12BufferHandleES3_NS_7Vector2Ei
openspades:_ZN6spades4draw20GLDepthOfFieldFilter6AddMixENS0_20GLFramebufferManager12BufferHandleES3_
openspades:_ZN6spades4draw20GLDepthOfFieldFilter6FilterENS0_20GLFramebufferManager12BufferHandleEfffff
openspades:_ZN6spades4draw20GLDepthOfFieldFilter7BlurCoCENS0_20GLFramebufferManager12BufferHandleEf
openspades:_ZN6spades4draw20GLDepthOfFieldFilter8FinalMixENS0_20GLFramebufferManager12BufferHandleES3_S3_S3_
openspades:_ZN6spades4draw20GLDepthOfFieldFilterC1EPNS0_10GLRendererE
openspades:_ZN6spades4draw20GLDepthOfFieldFilterC2EPNS0_10GLRendererE
openspades:_ZN6spades4draw20GLDynamicLightShader10SphereCullERKNS0_14GLDynamicLightERKNS_7Vector3Ef
openspades:_ZN6spades4draw20GLDynamicLightShader14RegisterShaderEPNS0_16GLProgramManagerE
openspades:_ZN6spades4draw20GLDynamicLightShader4CullERKNS0_14GLDynamicLightERKNS_5AABB3E
openspades:_ZN6spades4draw20GLDynamicLightShaderC1Ev
openspades:_ZN6spades4draw20GLDynamicLightShaderC2Ev
openspades:_ZN6spades4draw20GLDynamicLightShaderclEPNS0_10GLRendererEPNS0_9GLProgramERKNS0_14GLDynamicLightEi
openspades:_ZN6spades4draw20GLFramebufferManager12BufferHandle10GetTextureEv
openspades:_ZN6spades4draw20GLFramebufferManager12BufferHandle14GetFramebufferEv
openspades:_ZN6spades4draw20GLFramebufferManager12BufferHandle17GetInternalFormatEv
openspades:_ZN6spades4draw20GLFramebufferManager12BufferHandle7ReleaseEv
openspades:_ZN6spades4draw20GLFramebufferManager12BufferHandle8GetWidthEv
openspades:_ZN6spades4draw20GLFramebufferManager12BufferHandle9GetHeightEv
openspades:_ZN6spades4draw20GLFramebufferManager12BufferHandleC1EPS1_m
openspades:_ZN6spades4draw20GLFramebufferManager12BufferHandleC1ERKS2_
openspades:_ZN6spades4draw20GLFramebufferManager12BufferHandleC1Ev
openspades:_ZN6spades4draw20GLFramebufferManager12BufferHandleC2EPS1_m
openspades:_ZN6spades4draw20GLFramebufferManager12BufferHandleC2ERKS2_
openspades:_ZN6spades4draw20GLFramebufferManager12BufferHandleC2Ev
openspades:_ZN6spades4draw20GLFramebufferManager12BufferHandleD1Ev
openspades:_ZN6spades4draw20GLFramebufferManager12BufferHandleD2Ev
openspades:_ZN6spades4draw20GLFramebufferManager12BufferHandleaSERKS2_
openspades:_ZN6spades4draw20GLFramebufferManager18ClearMirrorTextureENS_7Vector3E
openspades:_ZN6spades4draw20GLFramebufferManager18CreateBufferHandleEiiNS0_9IGLDevice4EnumE
openspades:_ZN6spades4draw20GLFramebufferManager18CreateBufferHandleEiib
openspades:_ZN6spades4draw20GLFramebufferManager19CopyToMirrorTextureEj
openspades:_ZN6spades4draw20GLFramebufferManager19StartPostProcessingEv
openspades:_ZN6spades4draw20GLFramebufferManager21PrepareSceneRenderingEv
openspades:_ZN6spades4draw20GLFramebufferManager24PrepareForWaterRenderingEjj
openspades:_ZN6spades4draw20GLFramebufferManager26MakeSureAllBuffersReleasedEv
openspades:_ZN6spades4draw20GLFramebufferManagerC1EPNS0_9IGLDeviceERNS0_10GLSettingsE
openspades:_ZN6spades4draw20GLFramebufferManagerC2EPNS0_9IGLDeviceERNS0_10GLSettingsE
openspades:_ZN6spades4draw20GLFramebufferManagerD1Ev
openspades:_ZN6spades4draw20GLFramebufferManagerD2Ev
openspades:_ZN6spades4draw20GLLongSpriteRenderer3AddEPNS0_7GLImageENS_7Vector3ES4_fNS_7Vector4E
openspades:_ZN6spades4draw20GLLongSpriteRenderer5ClearEv
openspades:_ZN6spades4draw20GLLongSpriteRenderer5FlushEv
openspades:_ZN6spades4draw20GLLongSpriteRenderer6RenderEv
openspades:_ZN6spades4draw20GLLongSpriteRendererC1EPNS0_10GLRendererE
openspades:_ZN6spades4draw20GLLongSpriteRendererC2EPNS0_10GLRendererE
openspades:_ZN6spades4draw20GLLongSpriteRendererD1Ev
openspades:_ZN6spades4draw20GLLongSpriteRendererD2Ev
openspades:_ZN6spades4draw20GLSoftSpriteRenderer14LayerForSpriteERKNS1_6SpriteE
openspades:_ZN6spades4draw20GLSoftSpriteRenderer3AddEPNS0_7GLImageENS_7Vector3EffNS_7Vector4E
openspades:_ZN6spades4draw20GLSoftSpriteRenderer5ClearEv
openspades:_ZN6spades4draw20GLSoftSpriteRenderer5FlushEv
openspades:_ZN6spades4draw20GLSoftSpriteRenderer6RenderEv
openspades:_ZN6spades4draw20GLSoftSpriteRendererC1EPNS0_10GLRendererE
openspades:_ZN6spades4draw20GLSoftSpriteRendererC2EPNS0_10GLRendererE
openspades:_ZN6spades4draw20GLSoftSpriteRendererD0Ev
openspades:_ZN6spades4draw20GLSoftSpriteRendererD1Ev
openspades:_ZN6spades4draw20GLSoftSpriteRendererD2Ev
openspades:_ZN6spades4draw20IGLShadowMapRenderer19RenderShadowMapPassEv
openspades:_ZN6spades4draw20IGLShadowMapRendererC1EPNS0_10GLRendererE
openspades:_ZN6spades4draw20IGLShadowMapRendererC2EPNS0_10GLRendererE
openspades:_ZN6spades4draw21GLNonlinearlizeFilter6FilterENS0_20GLFramebufferManager12BufferHandleE
openspades:_ZN6spades4draw21GLNonlinearlizeFilterC1EPNS0_10GLRendererE
openspades:_ZN6spades4draw21GLNonlinearlizeFilterC2EPNS0_10GLRendererE
openspades:_ZN6spades4draw21GLOptimizedVoxelModel13BuildVerticesEPNS_10VoxelModelE
openspades:_ZN6spades4draw21GLOptimizedVoxelModel14PreloadShadersEPNS0_10GLRendererE
openspades:_ZN6spades4draw21GLOptimizedVoxelModel15GenerateTextureEv
openspades:_ZN6spades4draw21GLOptimizedVoxelModel18RenderSunlightPassESt6vectorINS_6client16ModelRenderParamESaIS4_EE
openspades:_ZN6spades4draw21GLOptimizedVoxelModel19RenderShadowMapPassESt6vectorINS_6client16ModelRenderParamESaIS4_EE
openspades:_ZN6spades4draw21GLOptimizedVoxelModel22RenderDynamicLightPassESt6vectorINS_6client16ModelRenderParamESaIS4_EES2_INS0_14GLDynamicLightESaIS7_EE
openspades:_ZN6spades4draw21GLOptimizedVoxelModel8calcAOIDEPNS_10VoxelModelEiiiiiiiii
openspades:_ZN6spades4draw21GLOptimizedVoxelModel9EmitSliceEPhiiiiiiiiiiiiiibPNS_10VoxelModelE
openspades:_ZN6spades4draw21GLOptimizedVoxelModel9PrerenderESt6vectorINS_6client16ModelRenderParamESaIS4_EE
openspades:_ZN6spades4draw21GLOptimizedVoxelModelC1EPNS_10VoxelModelEPNS0_10GLRendererE
openspades:_ZN6spades4draw21GLOptimizedVoxelModelC2EPNS_10VoxelModelEPNS0_10GLRendererE
openspades:_ZN6spades4draw21GLOptimizedVoxelModelD0Ev
openspades:_ZN6spades4draw21GLOptimizedVoxelModelD1Ev
openspades:_ZN6spades4draw21GLOptimizedVoxelModelD2Ev
openspades:_ZN6spades4draw23GLAmbientShadowRenderer10InvalidateEiiiiii
openspades:_ZN6spades4draw23GLAmbientShadowRenderer11UpdateChunkEiii
openspades:_ZN6spades4draw23GLAmbientShadowRenderer14GameMapChangedEiiiPNS_6client7GameMapE
openspades:_ZN6spades4draw23GLAmbientShadowRenderer17GetNumDirtyChunksEv
openspades:_ZN6spades4draw23GLAmbientShadowRenderer17UpdateDirtyChunksEv
openspades:_ZN6spades4draw23GLAmbientShadowRenderer6UpdateEv
openspades:_ZN6spades4draw23GLAmbientShadowRenderer8EvaluateENS_10IntVector3E
openspades:_ZN6spades4draw23GLAmbientShadowRendererC1EPNS0_10GLRendererEPNS_6client7GameMapE
openspades:_ZN6spades4draw23GLAmbientShadowRendererC2EPNS0_10GLRendererEPNS_6client7GameMapE
openspades:_ZN6spades4draw23GLAmbientShadowRendererD1Ev
openspades:_ZN6spades4draw23GLAmbientShadowRendererD2Ev
openspades:_ZN6spades4draw23GLColorCorrectionFilter6FilterENS0_20GLFramebufferManager12BufferHandleENS_7Vector3E
openspades:_ZN6spades4draw23GLColorCorrectionFilterC1EPNS0_10GLRendererE
openspades:_ZN6spades4draw23GLColorCorrectionFilterC2EPNS0_10GLRendererE
openspades:_ZN6spades4draw23GLSoftLitSpriteRenderer14LayerForSpriteERKNS1_6SpriteE
openspades:_ZN6spades4draw23GLSoftLitSpriteRenderer3AddEPNS0_7GLImageENS_7Vector3EffNS_7Vector4E
openspades:_ZN6spades4draw23GLSoftLitSpriteRenderer5ClearEv
openspades:_ZN6spades4draw23GLSoftLitSpriteRenderer5FlushEv
openspades:_ZN6spades4draw23GLSoftLitSpriteRenderer6RenderEv
openspades:_ZN6spades4draw23GLSoftLitSpriteRendererC1EPNS0_10GLRendererE
openspades:_ZN6spades4draw23GLSoftLitSpriteRendererC2EPNS0_10GLRendererE
openspades:_ZN6spades4draw23GLSoftLitSpriteRendererD0Ev
openspades:_ZN6spades4draw23GLSoftLitSpriteRendererD1Ev
openspades:_ZN6spades4draw23GLSoftLitSpriteRendererD2Ev
openspades:_ZN6spades4draw23GetNumSWRendererThreadsEv
openspades:_ZN6spades4draw24GLBasicShadowMapRenderer10SphereCullERKNS_7Vector3Ef
openspades:_ZN6spades4draw24GLBasicShadowMapRenderer11BuildMatrixEff
openspades:_ZN6spades4draw24GLBasicShadowMapRenderer4CullERKNS_5AABB3E
openspades:_ZN6spades4draw24GLBasicShadowMapRenderer6RenderEv
openspades:_ZN6spades4draw24GLBasicShadowMapRendererC1EPNS0_10GLRendererE
openspades:_ZN6spades4draw24GLBasicShadowMapRendererC2EPNS0_10GLRendererE
openspades:_ZN6spades4draw24GLBasicShadowMapRendererD0Ev
openspades:_ZN6spades4draw24GLBasicShadowMapRendererD1Ev
openspades:_ZN6spades4draw24GLBasicShadowMapRendererD2Ev
openspades:_ZN6spades4draw25GLSparseShadowMapRenderer10SphereCullERKNS_7Vector3Ef
openspades:_ZN6spades4draw25GLSparseShadowMapRenderer11BuildMatrixEff
openspades:_ZN6spades4draw25GLSparseShadowMapRenderer19RenderShadowMapPassEv
openspades:_ZN6spades4draw25GLSparseShadowMapRenderer4CullERKNS_5AABB3E
openspades:_ZN6spades4draw25GLSparseShadowMapRenderer6RenderEv
openspades:_ZN6spades4draw25GLSparseShadowMapRendererC1EPNS0_10GLRendererE
openspades:_ZN6spades4draw25GLSparseShadowMapRendererC2EPNS0_10GLRendererE
openspades:_ZN6spades4draw25GLSparseShadowMapRendererD0Ev
openspades:_ZN6spades4draw25GLSparseShadowMapRendererD1Ev
openspades:_ZN6spades4draw25GLSparseShadowMapRendererD2Ev
openspades:_ZN6spades4draw7GLImage10FromBitmapEPNS_6BitmapEPNS0_9IGLDeviceE
openspades:_ZN6spades4draw7GLImage10InvalidateEv
openspades:_ZN6spades4draw7GLImage13MakeSureValidEv
openspades:_ZN6spades4draw7GLImage4BindENS0_9IGLDevice4EnumE
openspades:_ZN6spades4draw7GLImage8SubImageEPNS_6BitmapEii
openspades:_ZN6spades4draw7GLImageC1EjPNS0_9IGLDeviceEffb
openspades:_ZN6spades4draw7GLImageC2EjPNS0_9IGLDeviceEffb
openspades:_ZN6spades4draw7GLImageD0Ev
openspades:_ZN6spades4draw7GLImageD1Ev
openspades:_ZN6spades4draw7GLImageD2Ev
openspades:_ZN6spades4draw7GLModelC1Ev
openspades:_ZN6spades4draw7GLModelC2Ev
openspades:_ZN6spades4draw7SWImage6UpdateERNS_6BitmapEii
openspades:_ZN6spades4draw7SWImageC1EPNS_6BitmapE
openspades:_ZN6spades4draw7SWImageC1Eii
openspades:_ZN6spades4draw7SWImageC2EPNS_6BitmapE
openspades:_ZN6spades4draw7SWImageC2Eii
openspades:_ZN6spades4draw7SWImageD0Ev
openspades:_ZN6spades4draw7SWImageD1Ev
openspades:_ZN6spades4draw7SWImageD2Ev
openspades:_ZN6spades4draw7SWModel14GetBoundingBoxEv
openspades:_ZN6spades4draw7SWModelC1EPNS_10VoxelModelE
openspades:_ZN6spades4draw7SWModelC2EPNS_10VoxelModelE
openspades:_ZN6spades4draw7SWModelD0Ev
openspades:_ZN6spades4draw7SWModelD1Ev
openspades:_ZN6spades4draw7SWModelD2Ev
openspades:_ZN6spades4draw8GLShader7CompileEv
openspades:_ZN6spades4draw8GLShader9AddSourceERKNSt7__cxx1112basic_stringIcSt11char_traitsIcESaIcEEE
openspades:_ZN6spades4draw8GLShaderC1EPNS0_9IGLDeviceENS1_4TypeE
openspades:_ZN6spades4draw8GLShaderC2EPNS0_9IGLDeviceENS1_4TypeE
openspades:_ZN6spades4draw8GLShaderD1Ev
openspades:_ZN6spades4draw8GLShaderD2Ev
openspades:_ZN6spades4draw9GLProgram3UseEv
openspades:_ZN6spades4draw9GLProgram4LinkEv
openspades:_ZN6spades4draw9GLProgram6AttachEPNS0_8GLShaderE
openspades:_ZN6spades4draw9GLProgram6AttachEj
openspades:_ZN6spades4draw9GLProgram8ValidateEv
openspades:_ZN6spades4draw9GLProgramC1EPNS0_9IGLDeviceENSt7__cxx1112basic_stringIcSt11char_traitsIcESaIcEEE
openspades:_ZN6spades4draw9GLProgramC2EPNS0_9IGLDeviceENSt7__cxx1112basic_stringIcSt11char_traitsIcESaIcEEE
openspades:_ZN6spades4draw9GLProgramD1Ev
openspades:_ZN6spades4draw9GLProgramD2Ev
openspades:_ZN6spades5CP43710DecodeCharEc
openspades:_ZN6spades5CP43710EncodeCharEjc
openspades:_ZN6spades5CP4376DecodeERKNSt7__cxx1112basic_stringIcSt11char_traitsIcESaIcEEE
openspades:_ZN6spades5CP4376EncodeERKNSt7__cxx1112basic_stringIcSt11char_traitsIcESaIcEEEc
openspades:_ZN6spades5CP4377reverseE
openspades:_ZN6spades5CpuID8SupportsENS_10CpuFeatureE
openspades:_ZN6spades5CpuIDC1Ev
openspades:_ZN6spades5CpuIDC2Ev
openspades:_ZN6spades5Mutex4LockEv
openspades:_ZN6spades5Mutex6UnlockEv
openspades:_ZN6spades5MutexC1Ev
openspades:_ZN6spades5MutexC2Ev
openspades:_ZN6spades5MutexD1Ev
openspades:_ZN6spades5MutexD2Ev
openspades:_ZN6spades5SplitERKNSt7__cxx1112basic_stringIcSt11char_traitsIcESaIcEEES7_
openspades:_ZN6spades5audio10NullDevice10SetGameMapEPNS_6client7GameMapE
openspades:_ZN6spades5audio10NullDevice12RespatializeERKNS_7Vector3ES4_S4_
openspades:_ZN6spades5audio10NullDevice13RegisterSoundEPKc
openspades:_ZN6spades5audio10NullDevice4PlayEPNS_6client11IAudioChunkERKNS_7Vector3ERKNS2_10AudioParamE
openspades:_ZN6spades5audio10NullDevice9PlayLocalEPNS_6client11IAudioChunkERKNS2_10AudioParamE
openspades:_ZN6spades5audio10NullDevice9PlayLocalEPNS_6client11IAudioChunkERKNS_7Vector3ERKNS2_10AudioParamE
openspades:_ZN6spades5audio10NullDeviceC1Ev
openspades:_ZN6spades5audio10NullDeviceC2Ev
openspades:_ZN6spades5audio10NullDeviceD0Ev
openspades:_ZN6spades5audio10NullDeviceD1Ev
openspades:_ZN6spades5audio10NullDeviceD2Ev
openspades:_ZN6spades5audio8ALDevice10SetGameMapEPNS_6client7GameMapE
openspades:_ZN6spades5audio8ALDevice11CreateChunkEPKc
openspades:_ZN6spades5audio8ALDevice12RespatializeERKNS_7Vector3ES4_S4_
openspades:_ZN6spades5audio8ALDevice13RegisterSoundEPKc
openspades:_ZN6spades5audio8ALDevice4PlayEPNS_6client11IAudioChunkERKNS_7Vector3ERKNS2_10AudioParamE
openspades:_ZN6spades5audio8ALDevice7TryLoadEv
openspades:_ZN6spades5audio8ALDevice9PlayLocalEPNS_6client11IAudioChunkERKNS2_10AudioParamE
openspades:_ZN6spades5audio8ALDevice9PlayLocalEPNS_6client11IAudioChunkERKNS_7Vector3ERKNS2_10AudioParamE
openspades:_ZN6spades5audio8ALDeviceC1Ev
openspades:_ZN6spades5audio8ALDeviceC2Ev
openspades:_ZN6spades5audio8ALDeviceD0Ev
openspades:_ZN6spades5audio8ALDeviceD1Ev
openspades:_ZN6spades5audio8ALDeviceD2Ev
openspades:_ZN6spades5audio9YsrBufferC1ERNS0_10YsrContextEPNS2_6BufferE
openspades:_ZN6spades5audio9YsrBufferC2ERNS0_10YsrContextEPNS2_6BufferE
openspades:_ZN6spades5audio9YsrBufferD1Ev
openspades:_ZN6spades5audio9YsrBufferD2Ev
openspades:_ZN6spades5audio9YsrDevice10SetGameMapEPNS_6client7GameMapE
openspades:_ZN6spades5audio9YsrDevice10SpatializeEPKvPv
openspades:_ZN6spades5audio9YsrDevice10TryLoadYsrEv
openspades:_ZN6spades5audio9YsrDevice11CreateChunkEPKc
openspades:_ZN6spades5audio9YsrDevice12RespatializeERKNS_7Vector3ES4_S4_
openspades:_ZN6spades5audio9YsrDevice13RegisterSoundEPKc
openspades:_ZN6spades5audio9YsrDevice14RenderCallbackEPS1_Pfi
openspades:_ZN6spades5audio9YsrDevice18SpatializeCallbackEPKvPvPS1_
openspades:_ZN6spades5audio9YsrDevice4PlayEPNS_6client11IAudioChunkERKNS_7Vector3ERKNS2_10AudioParamE
openspades:_ZN6spades5audio9YsrDevice6RenderEPfi
openspades:_ZN6spades5audio9YsrDevice9PlayLocalEPNS_6client11IAudioChunkERKNS2_10AudioParamE
openspades:_ZN6spades5audio9YsrDevice9PlayLocalEPNS_6client11IAudioChunkERKNS_7Vector3ERKNS2_10AudioParamE
openspades:_ZN6spades5audio9YsrDeviceC1Ev
openspades:_ZN6spades5audio9YsrDeviceC2Ev
openspades:_ZN6spades5audio9YsrDeviceD0Ev
openspades:_ZN6spades5audio9YsrDeviceD1Ev
openspades:_ZN6spades5audio9YsrDeviceD2Ev
openspades:_ZN6spades5audio9YsrDriver12CreateBufferERKNS0_10YsrContext11BufferParamE
openspades:_ZN6spades5audio9YsrDriver12PlayAbsoluteERKSt10shared_ptrINS0_9YsrBufferEERKNS_7Vector3ERKNS0_10YsrContext9PlayParamE
openspades:_ZN6spades5audio9YsrDriver12PlayRelativeERKSt10shared_ptrINS0_9YsrBufferEERKNS_7Vector3ERKNS0_10YsrContext9PlayParamE
openspades:_ZN6spades5audio9YsrDriver12RespatializeERKNS_7Vector3ES4_S4_RKNS0_10YsrContext11ReverbParamE
openspades:_ZN6spades5audio9YsrDriver4InitERKNS0_10YsrContext9InitParamE
openspades:_ZN6spades5audio9YsrDriver6RenderEPfi
openspades:_ZN6spades5audio9YsrDriver9PlayLocalERKSt10shared_ptrINS0_9YsrBufferEERKNS0_10YsrContext9PlayParamE
openspades:_ZN6spades5audio9YsrDriverC1Ev
openspades:_ZN6spades5audio9YsrDriverC2Ev
openspades:_ZN6spades5audio9YsrDriverD1Ev
openspades:_ZN6spades5audio9YsrDriverD2Ev
openspades:_ZN6spades6Bitmap4LoadEPNS_7IStreamE
openspades:_ZN6spades6Bitmap4LoadERKNSt7__cxx1112basic_stringIcSt11char_traitsIcESaIcEEE
openspades:_ZN6spades6Bitmap4SaveERKNSt7__cxx1112basic_stringIcSt11char_traitsIcESaIcEEE
openspades:_ZN6spades6Bitmap5CloneEv
openspades:_ZN6spades6Bitmap8GetPixelEii
openspades:_ZN6spades6Bitmap8SetPixelEiij
openspades:_ZN6spades6BitmapC1EPjii
openspades:_ZN6spades6BitmapC1Eii
openspades:_ZN6spades6BitmapC2EPjii
openspades:_ZN6spades6BitmapC2Eii
openspades:_ZN6spades6BitmapD0Ev
openspades:_ZN6spades6BitmapD1Ev
openspades:_ZN6spades6BitmapD2Ev
openspades:_ZN6spades6InternERKNSt7__cxx1112basic_stringIcSt11char_traitsIcESaIcEEE
openspades:_ZN6spades6Thread14InternalRunnerEPv
openspades:_ZN6spades6Thread16InitThreadSystemEv
openspades:_ZN6spades6Thread19MarkForAutoDeletionEv
openspades:_ZN6spades6Thread20CleanupExitedThreadsEv
openspades:_ZN6spades6Thread3RunEv
openspades:_ZN6spades6Thread4JoinEv
openspades:_ZN6spades6Thread5StartEv
openspades:_ZN6spades6Thread6QuitedEv
openspades:_ZN6spades6Thread7IsAliveEv
openspades:_ZN6spades6ThreadC1EPNS_9IRunnableE
openspades:_ZN6spades6ThreadC1Ev
openspades:_ZN6spades6ThreadC2EPNS_9IRunnableE
openspades:_ZN6spades6ThreadC2Ev
openspades:_ZN6spades6ThreadD0Ev
openspades:_ZN6spades6ThreadD1Ev
openspades:_ZN6spades6ThreadD2Ev
openspades:_ZN6spades6client10ChatWindow10AddMessageERKNSt7__cxx1112basic_stringIcSt11char_traitsIcESaIcEEE
openspades:_ZN6spades6client10ChatWindow13GetLineHeightEv
openspades:_ZN6spades6client10ChatWindow14ColoredMessageERKNSt7__cxx1112basic_stringIcSt11char_traitsIcESaIcEEEc
openspades:_ZN6spades6client10ChatWindow15GetBufferHeightEv
openspades:_ZN6spades6client10ChatWindow15GetNormalHeightEv
openspades:_ZN6spades6client10ChatWindow16TeamColorMessageERKNSt7__cxx1112basic_stringIcSt11char_traitsIcESaIcEEEi
openspades:_ZN6spades6client10ChatWindow4DrawEv
openspades:_ZN6spades6client10ChatWindow6UpdateEf
openspades:_ZN6spades6client10ChatWindow8GetColorEc
openspades:_ZN6spades6client10ChatWindow8GetWidthEv
openspades:_ZN6spades6client10ChatWindow9killImageB5cxx11Eii
openspades:_ZN6spades6client10ChatWindowC1EPNS0_6ClientEPNS0_9IRendererEPNS0_5IFontEb
openspades:_ZN6spades6client10ChatWindowC2EPNS0_6ClientEPNS0_9IRendererEPNS0_5IFontEb
openspades:_ZN6spades6client10ChatWindowD1Ev
openspades:_ZN6spades6client10ChatWindowD2Ev
openspades:_ZN6spades6client10Quake3Font14SetGlyphYRangeEff
openspades:_ZN6spades6client10Quake3Font4DrawERKNSt7__cxx1112basic_stringIcSt11char_traitsIcESaIcEEENS_7Vector2EfNS_7Vector4E
openspades:_ZN6spades6client10Quake3Font7MeasureERKNSt7__cxx1112basic_stringIcSt11char_traitsIcESaIcEEE
openspades:_ZN6spades6client10Quake3FontC1EPNS0_9IRendererEPNS0_6IImageEPKiifb
openspades:_ZN6spades6client10Quake3FontC2EPNS0_9IRendererEPNS0_6IImageEPKiifb
openspades:_ZN6spades6client10Quake3FontD0Ev
openspades:_ZN6spades6client10Quake3FontD1Ev
openspades:_ZN6spades6client10Quake3FontD2Ev
openspades:_ZN6spades6client10TCGameMode12AddTerritoryERKNS1_9TerritoryE
openspades:_ZN6spades6client10TCGameMode7GetTeamEi
openspades:_ZN6spades6client10TCGameMode9Territory11GetProgressEv
openspades:_ZN6spades6client10TCGameModeC1EPNS0_5WorldE
openspades:_ZN6spades6client10TCGameModeC2EPNS0_5WorldE
openspades:_ZN6spades6client10TCGameModeD0Ev
openspades:_ZN6spades6client10TCGameModeD1Ev
openspades:_ZN6spades6client10TCGameModeD2Ev
openspades:_ZN6spades6client11CTFGameMode14PlayerHasIntelERNS0_5WorldERNS0_6PlayerE
openspades:_ZN6spades6client11CTFGameMode7GetTeamEi
openspades:_ZN6spades6client11CTFGameModeC1Ev
openspades:_ZN6spades6client11CTFGameModeC2Ev
openspades:_ZN6spades6client11CTFGameModeD0Ev
openspades:_ZN6spades6client11CTFGameModeD1Ev
openspades:_ZN6spades6client11CTFGameModeD2Ev
openspades:_ZN6spades6client11FontManagerC1EPNS0_9IRendererE
openspades:_ZN6spades6client11FontManagerC2EPNS0_9IRendererE
openspades:_ZN6spades6client11FontManagerD0Ev
openspades:_ZN6spades6client11FontManagerD1Ev
openspades:_ZN6spades6client11FontManagerD2Ev
openspades:_ZN6spades6client11PaletteView16GetSelectedIndexEv
openspades:_ZN6spades6client11PaletteView16SetSelectedIndexEi
openspades:_ZN6spades6client11PaletteView25GetSelectedOrDefaultIndexEv
openspades:_ZN6spades6client11PaletteView4DrawEv
openspades:_ZN6spades6client11PaletteView6UpdateEv
openspades:_ZN6spades6client11PaletteView8KeyInputENSt7__cxx1112basic_stringIcSt11char_traitsIcESaIcEEE
openspades:_ZN6spades6client11PaletteViewC1EPNS0_6ClientE
openspades:_ZN6spades6client11PaletteViewC2EPNS0_6ClientE
openspades:_ZN6spades6client11PaletteViewD1Ev
openspades:_ZN6spades6client11PaletteViewD2Ev
openspades:_ZN6spades6client12ClientPlayer10AddToSceneEv
openspades:_ZN6spades6client12ClientPlayer10InvalidateEv
openspades:_ZN6spades6client12ClientPlayer11FiredWeaponEv
openspades:_ZN6spades6client12ClientPlayer12GetEyeMatrixEv
openspades:_ZN6spades6client12ClientPlayer14IsChangingToolEv
openspades:_ZN6spades6client12ClientPlayer14ReloadedWeaponEv
openspades:_ZN6spades6client12ClientPlayer15ComputeAmbienceEv
openspades:_ZN6spades6client12ClientPlayer15ReloadingWeaponEv
openspades:_ZN6spades6client12ClientPlayer17initScriptFactoryERNS_14ScriptFunctionEPNS0_9IRendererEPNS0_12IAudioDeviceE
openspades:_ZN6spades6client12ClientPlayer21GetLocalFireVibrationEv
openspades:_ZN6spades6client12ClientPlayer22SetCommonSkinParameterEP15asIScriptObject
openspades:_ZN6spades6client12ClientPlayer23SetSkinParameterForToolENS0_6Player8ToolTypeEP15asIScriptObject
openspades:_ZN6spades6client12ClientPlayer25AddToSceneFirstPersonViewEv
openspades:_ZN6spades6client12ClientPlayer25AddToSceneThirdPersonViewEv
openspades:_ZN6spades6client12ClientPlayer29ShouldRenderInThirdPersonViewEv
openspades:_ZN6spades6client12ClientPlayer6Draw2DEv
openspades:_ZN6spades6client12ClientPlayer6UpdateEf
openspades:_ZN6spades6client12ClientPlayerC1EPNS0_6PlayerEPNS0_6ClientE
openspades:_ZN6spades6client12ClientPlayerC2EPNS0_6PlayerEPNS0_6ClientE
openspades:_ZN6spades6client12ClientPlayerD0Ev
openspades:_ZN6spades6client12ClientPlayerD1Ev
openspades:_ZN6spades6client12ClientPlayerD2Ev
openspades:_ZN6spades6client12FallingBlock6UpdateEf
openspades:_ZN6spades6client12FallingBlock8Render3DEv
openspades:_ZN6spades6client12FallingBlockC1EPNS0_6ClientESt6vectorINS_10IntVector3ESaIS5_EE
openspades:_ZN6spades6client12FallingBlockC2EPNS0_6ClientESt6vectorINS_10IntVector3ESaIS5_EE
openspades:_ZN6spades6client12FallingBlockD0Ev
openspades:_ZN6spades6client12FallingBlockD1Ev
openspades:_ZN6spades6client12FallingBlockD2Ev
openspades:_ZN6spades6client12HurtRingView3AddENS_7Vector3E
openspades:_ZN6spades6client12HurtRingView4DrawEv
openspades:_ZN6spades6client12HurtRingView6UpdateEf
openspades:_ZN6spades6client12HurtRingView8ClearAllEv
openspades:_ZN6spades6client12HurtRingViewC1EPNS0_6ClientE
openspades:_ZN6spades6client12HurtRingViewC2EPNS0_6ClientE
openspades:_ZN6spades6client12HurtRingViewD1Ev
openspades:_ZN6spades6client12HurtRingViewD2Ev
openspades:_ZN6spades6client13MapViewTracer14GetLineSegmentEv
openspades:_ZN6spades6client13MapViewTracer6UpdateEf
openspades:_ZN6spades6client13MapViewTracerC1ENS_7Vector3ES2_f
openspades:_ZN6spades6client13MapViewTracerC2ENS_7Vector3ES2_f
openspades:_ZN6spades6client13MapViewTracerD0Ev
openspades:_ZN6spades6client13MapViewTracerD1Ev
openspades:_ZN6spades6client13MapViewTracerD2Ev
openspades:_ZN6spades6client14ClientUIHelper10AlertErrorERKNSt7__cxx1112basic_stringIcSt11char_traitsIcESaIcEEE
openspades:_ZN6spades6client14ClientUIHelper11AlertNoticeERKNSt7__cxx1112basic_stringIcSt11char_traitsIcESaIcEEE
openspades:_ZN6spades6client14ClientUIHelper12AlertWarningERKNSt7__cxx1112basic_stringIcSt11char_traitsIcESaIcEEE
openspades:_ZN6spades6client14ClientUIHelper17ClientUIDestroyedEv
openspades:_ZN6spades6client14ClientUIHelper7SayTeamERKNSt7__cxx1112basic_stringIcSt11char_traitsIcESaIcEEE
openspades:_ZN6spades6client14ClientUIHelper9SayGlobalERKNSt7__cxx1112basic_stringIcSt11char_traitsIcESaIcEEE
openspades:_ZN6spades6client14ClientUIHelperC1EPNS0_8ClientUIE
openspades:_ZN6spades6client14ClientUIHelperC2EPNS0_8ClientUIE
openspades:_ZN6spades6client14GameMapWrapper12RemoveBlocksERKSt6vectorINS0_7CellPosESaIS3_EE
openspades:_ZN6spades6client14GameMapWrapper7RebuildEv
openspades:_ZN6spades6client14GameMapWrapper8AddBlockEiiij
openspades:_ZN6spades6client14GameMapWrapperC1ERNS0_7GameMapE
openspades:_ZN6spades6client14GameMapWrapperC2ERNS0_7GameMapE
openspades:_ZN6spades6client14GameMapWrapperD1Ev
openspades:_ZN6spades6client14GameMapWrapperD2Ev
openspades:_ZN6spades6client14GameProperties19HandleServerMessageERKNSt7__cxx1112basic_stringIcSt11char_traitsIcESaIcEEE
openspades:_ZN6spades6client14ScoreboardView11DrawPlayersEiffff
openspades:_ZN6spades6client14ScoreboardView12GetTeamColorEi
openspades:_ZN6spades6client14ScoreboardView4DrawEv
openspades:_ZN6spades6client14ScoreboardViewC1EPNS0_6ClientE
openspades:_ZN6spades6client14ScoreboardViewC2EPNS0_6ClientE
openspades:_ZN6spades6client14ScoreboardViewD1Ev
openspades:_ZN6spades6client14ScoreboardViewD2Ev
openspades:_ZN6spades6client14TCProgressView4DrawEv
openspades:_ZN6spades6client14TCProgressViewC1EPNS0_6ClientE
openspades:_ZN6spades6client14TCProgressViewC2EPNS0_6ClientE
openspades:_ZN6spades6client14TCProgressViewD1Ev
openspades:_ZN6spades6client14TCProgressViewD2Ev
openspades:_ZN6spades6client15HitTestDebugger9SaveImageERKSt3mapIiNS1_9PlayerHitESt4lessIiESaISt4pairIKiS3_EEERKSt6vectorINS_7Vector3ESaISE_EE
openspades:_ZN6spades6client15HitTestDebuggerC1EPNS0_5WorldE
openspades:_ZN6spades6client15HitTestDebuggerC2EPNS0_5WorldE
openspades:_ZN6spades6client15HitTestDebuggerD1Ev
openspades:_ZN6spades6client15HitTestDebuggerD2Ev
openspades:_ZN6spades6client15ScriptIToolSkin10AddToSceneEv
openspades:_ZN6spades6client15ScriptIToolSkin12SetTeamColorENS_7Vector3E
openspades:_ZN6spades6client15ScriptIToolSkin13SetRaiseStateEf
openspades:_ZN6spades6client15ScriptIToolSkin14SetSprintStateEf
openspades:_ZN6spades6client15ScriptIToolSkin6UpdateEf
openspades:_ZN6spades6client15ScriptIToolSkin8SetMutedEb
openspades:_ZN6spades6client15ScriptIToolSkinC1EP15asIScriptObject
openspades:_ZN6spades6client15ScriptIToolSkinC2EP15asIScriptObject
openspades:_ZN6spades6client16ParsePlayerInputEh
openspades:_ZN6spades6client16ParseWeaponInputEh
openspades:_ZN6spades6client16ScriptIBlockSkin13SetBlockColorENS_7Vector3E
openspades:_ZN6spades6client16ScriptIBlockSkin13SetReadyStateEf
openspades:_ZN6spades6client16ScriptIBlockSkinC1EP15asIScriptObject
openspades:_ZN6spades6client16ScriptIBlockSkinC2EP15asIScriptObject
openspades:_ZN6spades6client16ScriptISpadeSkin13SetActionTypeENS0_15SpadeActionTypeE
openspades:_ZN6spades6client16ScriptISpadeSkin17SetActionProgressEf
openspades:_ZN6spades6client16ScriptISpadeSkinC1EP15asIScriptObject
openspades:_ZN6spades6client16ScriptISpadeSkinC2EP15asIScriptObject
openspades:_ZN6spades6client17CenterMessageView10AddMessageERKNSt7__cxx1112basic_stringIcSt11char_traitsIcESaIcEEE
openspades:_ZN6spades6client17CenterMessageView11GetFreeLineEv
openspades:_ZN6spades6client17CenterMessageView4DrawEv
openspades:_ZN6spades6client17CenterMessageView6UpdateEf
openspades:_ZN6spades6client17CenterMessageViewC1EPNS0_6ClientEPNS0_5IFontE
openspades:_ZN6spades6client17CenterMessageViewC2EPNS0_6ClientEPNS0_5IFontE
openspades:_ZN6spades6client17CenterMessageViewD1Ev
openspades:_ZN6spades6client17CenterMessageViewD2Ev
openspades:_ZN6spades6client17ScriptIWeaponSkin11SetClipSizeEi
openspades:_ZN6spades6client17ScriptIWeaponSkin11WeaponFiredEv
openspades:_ZN6spades6client17ScriptIWeaponSkin12SetReloadingEb
openspades:_ZN6spades6client17ScriptIWeaponSkin13SetReadyStateEf
openspades:_ZN6spades6client17ScriptIWeaponSkin14ReloadedWeaponEv
openspades:_ZN6spades6client17ScriptIWeaponSkin15ReloadingWeaponEv
openspades:_ZN6spades6client17ScriptIWeaponSkin17SetReloadProgressEf
openspades:_ZN6spades6client17ScriptIWeaponSkin19ImplementsInterfaceEv
openspades:_ZN6spades6client17ScriptIWeaponSkin20SetAimDownSightStateEf
openspades:_ZN6spades6client17ScriptIWeaponSkin7SetAmmoEi
openspades:_ZN6spades6client17ScriptIWeaponSkinC1EP15asIScriptObject
openspades:_ZN6spades6client17ScriptIWeaponSkinC2EP15asIScriptObject
openspades:_ZN6spades6client17SmokeSpriteEntity11GetSequenceEiPNS0_9IRendererENS1_4TypeE
openspades:_ZN6spades6client17SmokeSpriteEntity6UpdateEf
openspades:_ZN6spades6client17SmokeSpriteEntity7PreloadEPNS0_9IRendererE
openspades:_ZN6spades6client17SmokeSpriteEntityC1EPNS0_6ClientENS_7Vector4EfNS1_4TypeE
openspades:_ZN6spades6client17SmokeSpriteEntityC2EPNS0_6ClientENS_7Vector4EfNS1_4TypeE
openspades:_ZN6spades6client18ScriptIGrenadeSkin11SetCookTimeEf
openspades:_ZN6spades6client18ScriptIGrenadeSkin13SetReadyStateEf
openspades:_ZN6spades6client18ScriptIGrenadeSkinC1EP15asIScriptObject
openspades:_ZN6spades6client18ScriptIGrenadeSkinC2EP15asIScriptObject
openspades:_ZN6spades6client18ScriptIWeaponSkin214SetSoundOriginENS_7Vector3E
openspades:_ZN6spades6client18ScriptIWeaponSkin219ImplementsInterfaceEv
openspades:_ZN6spades6client18ScriptIWeaponSkin219SetSoundEnvironmentEfff
openspades:_ZN6spades6client18ScriptIWeaponSkin2C1EP15asIScriptObject
openspades:_ZN6spades6client18ScriptIWeaponSkin2C2EP15asIScriptObject
openspades:_ZN6spades6client19ScriptIViewToolSkin12SetEyeMatrixENS_7Matrix4E
openspades:_ZN6spades6client19ScriptIViewToolSkin19GetLeftHandPositionEv
openspades:_ZN6spades6client19ScriptIViewToolSkin20GetRightHandPositionEv
openspades:_ZN6spades6client19ScriptIViewToolSkin6Draw2DEv
openspades:_ZN6spades6client19ScriptIViewToolSkin8SetSwingENS_7Vector3E
openspades:_ZN6spades6client19ScriptIViewToolSkinC1EP15asIScriptObject
openspades:_ZN6spades6client19ScriptIViewToolSkinC2EP15asIScriptObject
openspades:_ZN6spades6client20FallbackFontRenderer4DrawEjNS_7Vector2EfNS_7Vector4E
openspades:_ZN6spades6client20FallbackFontRenderer7MeasureEjf
openspades:_ZN6spades6client20FallbackFontRenderer9FindGlyphEj
openspades:_ZN6spades6client20FallbackFontRendererC1EPNS0_9IRendererEPNS0_19FallbackFontManagerE
openspades:_ZN6spades6client20FallbackFontRendererC2EPNS0_9IRendererEPNS0_19FallbackFontManagerE
openspades:_ZN6spades6client20FallbackFontRendererD0Ev
openspades:_ZN6spades6client20FallbackFontRendererD1Ev
openspades:_ZN6spades6client20FallbackFontRendererD2Ev
openspades:_ZN6spades6client20ParticleSpriteEntity11SetLifeTimeEfff
openspades:_ZN6spades6client20ParticleSpriteEntity11SetRotationEff
openspades:_ZN6spades6client20ParticleSpriteEntity13SetTrajectoryENS_7Vector3ES2_ff
openspades:_ZN6spades6client20ParticleSpriteEntity6UpdateEf
openspades:_ZN6spades6client20ParticleSpriteEntity8Render3DEv
openspades:_ZN6spades6client20ParticleSpriteEntity8SetImageEPNS0_6IImageE
openspades:_ZN6spades6client20ParticleSpriteEntity9SetRadiusEfff
openspades:_ZN6spades6client20ParticleSpriteEntityC1EPNS0_6ClientEPNS0_6IImageENS_7Vector4E
openspades:_ZN6spades6client20ParticleSpriteEntityC2EPNS0_6ClientEPNS0_6IImageENS_7Vector4E
openspades:_ZN6spades6client20ParticleSpriteEntityD0Ev
openspades:_ZN6spades6client20ParticleSpriteEntityD1Ev
openspades:_ZN6spades6client20ParticleSpriteEntityD2Ev
openspades:_ZN6spades6client22CoherentNoiseSampler1D6SampleEf
openspades:_ZN6spades6client22CoherentNoiseSampler1DC1Ev
openspades:_ZN6spades6client22CoherentNoiseSampler1DC2Ev
openspades:_ZN6spades6client22CoherentNoiseSampler1DD1Ev
openspades:_ZN6spades6client22CoherentNoiseSampler1DD2Ev
openspades:_ZN6spades6client26ScriptIThirdPersonToolSkin12GetPitchBiasEv
openspades:_ZN6spades6client26ScriptIThirdPersonToolSkin15SetOriginMatrixENS_7Matrix4E
openspades:_ZN6spades6client26ScriptIThirdPersonToolSkinC1EP15asIScriptObject
openspades:_ZN6spades6client26ScriptIThirdPersonToolSkinC2EP15asIScriptObject
openspades:_ZN6spades6client30GradientCoherentNoiseSampler1D6SampleEf
openspades:_ZN6spades6client30GradientCoherentNoiseSampler1DC1Ev
openspades:_ZN6spades6client30GradientCoherentNoiseSampler1DC2Ev
openspades:_ZN6spades6client30GradientCoherentNoiseSampler1DD1Ev
openspades:_ZN6spades6client30GradientCoherentNoiseSampler1DD2Ev
openspades:_ZN6spades6client5IFont10DrawShadowERKNSt7__cxx1112basic_stringIcSt11char_traitsIcESaIcEEERKNS_7Vector2EfRKNS_7Vector4ESF_
openspades:_ZN6spades6client5IFont12DrawFallbackEjNS_7Vector2EfNS_7Vector4E
openspades:_ZN6spades6client5IFont15MeasureFallbackEjf
openspades:_ZN6spades6client5IFontC1EPNS0_9IRendererE
openspades:_ZN6spades6client5IFontC2EPNS0_9IRendererE
openspades:_ZN6spades6client5IFontD0Ev
openspades:_ZN6spades6client5IFontD1Ev
openspades:_ZN6spades6client5IFontD2Ev
openspades:_ZN6spades6client5World10AddGrenadeEPNS0_7GrenadeE
openspades:_ZN6spades6client5World11CreateBlockENS_10IntVector3ES2_
openspades:_ZN6spades6client5World12DestroyBlockERSt6vectorINS_10IntVector3ESaIS3_EE
openspades:_ZN6spades6client5World13GetNumPlayersEv
openspades:_ZN6spades6client5World13WeaponRayCastENS_7Vector3ES2_PNS0_6PlayerE
openspades:_ZN6spades6client5World14GetAllGrenadesEv
openspades:_ZN6spades6client5World17ApplyBlockActionsEv
openspades:_ZN6spades6client5World18GetHitTestDebuggerEv
openspades:_ZN6spades6client5World19GetPlayerPersistentEi
openspades:_ZN6spades6client5World24MarkBlockForRegenerationERKNS_10IntVector3E
openspades:_ZN6spades6client5World26UnmarkBlockForRegenerationERKNS_10IntVector3E
openspades:_ZN6spades6client5World6SetMapEPNS0_7GameMapE
openspades:_ZN6spades6client5World7AdvanceEf
openspades:_ZN6spades6client5World7SetModeEPNS0_9IGameModeE
openspades:_ZN6spades6client5World8CubeLineENS_10IntVector3ES2_i
openspades:_ZN6spades6client5World9SetPlayerEiPNS0_6PlayerE
openspades:_ZN6spades6client5WorldC1ERKSt10shared_ptrINS0_14GamePropertiesEE
openspades:_ZN6spades6client5WorldC2ERKSt10shared_ptrINS0_14GamePropertiesEE
openspades:_ZN6spades6client5WorldD1Ev
openspades:_ZN6spades6client5WorldD2Ev
openspades:_ZN6spades6client6Client10BlocksFellESt6vectorINS_10IntVector3ESaIS3_EE
openspades:_ZN6spades6client6Client10DrawHealthEv
openspades:_ZN6spades6client6Client10DrawSplashEv
openspades:_ZN6spades6client6Client10FPSCounter9MarkFrameEv
openspades:_ZN6spades6client6Client10FPSCounterC1Ev
openspades:_ZN6spades6client6Client10FPSCounterC2Ev
openspades:_ZN6spades6client6Client10JoinedGameEv
openspades:_ZN6spades6client6Client10KickCameraEf
openspades:_ZN6spades6client6Client10MouseEventEff
openspades:_ZN6spades6client6Client10MuzzleFireENS_7Vector3ES2_b
openspades:_ZN6spades6client6Client10WheelEventEff
openspades:_ZN6spades6client6Client11MapShotPathB5cxx11Ev
openspades:_ZN6spades6client6Client11TakeMapShotEv
openspades:_ZN6spades6client6Client11UpdateWorldEf
openspades:_ZN6spades6client6Client12CaptureColorEv
openspades:_ZN6spades6client6Client12DrawDebugAimEv
openspades:_ZN6spades6client6Client12PlayerJumpedEPNS0_6PlayerE
openspades:_ZN6spades6client6Client12PlayerLandedEPNS0_6PlayerEb
openspades:_ZN6spades6client6Client12SpawnPressedEv
openspades:_ZN6spades6client6Client13DrawTCObjectsEv
openspades:_ZN6spades6client6Client13GetCameraModeEv
openspades:_ZN6spades6client6Client13PlayerLeavingEPNS0_6PlayerE
openspades:_ZN6spades6client6Client13PlayerSpawnedEPNS0_6PlayerE
openspades:_ZN6spades6client6Client14BulletHitBlockENS_7Vector3ENS_10IntVector3ES3_
openspades:_ZN6spades6client6Client14DrawCTFObjectsEv
openspades:_ZN6spades6client6Client14GetSprintStateEv
openspades:_ZN6spades6client6Client14GrenadeBouncedEPNS0_7GrenadeE
openspades:_ZN6spades6client6Client14PlayAlertSoundEv
openspades:_ZN6spades6client6Client14ScreenShotPathB5cxx11Ev
openspades:_ZN6spades6client6Client14TakeScreenShotEb
openspades:_ZN6spades6client6Client14TextInputEventERKNSt7__cxx1112basic_stringIcSt11char_traitsIcESaIcEEE
openspades:_ZN6spades6client6Client15AddBulletTracerEPNS0_6PlayerENS_7Vector3ES4_
openspades:_ZN6spades6client6Client15BulletHitPlayerEPNS0_6PlayerE7HitTypeNS_7Vector3ES3_
openspades:_ZN6spades6client6Client15Draw2DWithWorldEv
openspades:_ZN6spades6client6Client15DrawHurtSpritesEv
openspades:_ZN6spades6client6Client15DrawSpectateHUDEv
openspades:_ZN6spades6client6Client15GetAimDownStateEv
openspades:_ZN6spades6client6Client15GrenadeExplodedEPNS0_7GrenadeE
openspades:_ZN6spades6client6Client15LocalPlayerHurtE8HurtTypebNS_7Vector3E
openspades:_ZN6spades6client6Client15MarkWorldUpdateEv
openspades:_ZN6spades6client6Client15PlayerDropIntelEPNS0_6PlayerE
openspades:_ZN6spades6client6Client15PlayerObjectSetEi
openspades:_ZN6spades6client6Client15PlayerRestockedEPNS0_6PlayerE
openspades:_ZN6spades6client6Client15SetSelectedToolENS0_6Player8ToolTypeEb
openspades:_ZN6spades6client6Client15UpdateAutoFocusEf
openspades:_ZN6spades6client6Client15WantsToBeClosedEv
openspades:_ZN6spades6client6Client16AcceptsTextInputEv
openspades:_ZN6spades6client6Client16FollowNextPlayerEb
openspades:_ZN6spades6client6Client16GetTextInputRectEv
openspades:_ZN6spades6client6Client16GrenadeExplosionENS_7Vector3E
openspades:_ZN6spades6client6Client16HotTrackedPlayerEP8hitTag_t
openspades:_ZN6spades6client6Client16PlayerJoinedTeamEPNS0_6PlayerE
openspades:_ZN6spades6client6Client16RemoveAllCorpsesEv
openspades:_ZN6spades6client6Client16TextEditingEventERKNSt7__cxx1112basic_stringIcSt11char_traitsIcESaIcEEEii
openspades:_ZN6spades6client6Client17AddGrenadeToSceneEPNS0_7GrenadeE
openspades:_ZN6spades6client6Client17DrawDeadPlayerHUDEv
openspades:_ZN6spades6client6Client17DrawStartupScreenEv
openspades:_ZN6spades6client6Client17IsLimboViewActiveEv
openspades:_ZN6spades6client6Client17PlayerChangedToolEPNS0_6PlayerE
openspades:_ZN6spades6client6Client17PlayerDiggedBlockENS_10IntVector3E
openspades:_ZN6spades6client6Client17PlayerFiredWeaponEPNS0_6PlayerE
openspades:_ZN6spades6client6Client17PlayerMissedSpadeEPNS0_6PlayerE
openspades:_ZN6spades6client6Client17PlayerPickedIntelEPNS0_6PlayerE
openspades:_ZN6spades6client6Client17ServerSentMessageERKNSt7__cxx1112basic_stringIcSt11char_traitsIcESaIcEEE
openspades:_ZN6spades6client6Client17UpdateLocalPlayerEf
openspades:_ZN6spades6client6Client18Draw2DWithoutWorldEv
openspades:_ZN6spades6client6Client18DrawFirstPersonHUDEv
openspades:_ZN6spades6client6Client18EmitBlockFragmentsENS_7Vector3ENS_10IntVector3E
openspades:_ZN6spades6client6Client18LocalPlayerCreatedEv
openspades:_ZN6spades6client6Client18PlayerCreatedBlockEPNS0_6PlayerE
openspades:_ZN6spades6client6Client18PlayerKilledPlayerEPNS0_6PlayerES3_8KillType
openspades:_ZN6spades6client6Client18PlayerMadeFootstepEPNS0_6PlayerE
openspades:_ZN6spades6client6Client19GetAimDownZoomScaleEv
openspades:_ZN6spades6client6Client19PlayerCapturedIntelEPNS0_6PlayerE
openspades:_ZN6spades6client6Client19PlayerThrownGrenadeEPNS0_6PlayerEPNS0_7GrenadeE
openspades:_ZN6spades6client6Client19RayCastForAutoFocusERKNS_7Vector3ES4_
openspades:_ZN6spades6client6Client20DrawDisconnectScreenEv
openspades:_ZN6spades6client6Client20DrawHurtScreenEffectEv
openspades:_ZN6spades6client6Client20GetLocalClientPlayerEv
openspades:_ZN6spades6client6Client20PlayerDryFiredWeaponEPNS0_6PlayerE
openspades:_ZN6spades6client6Client20PlayerReloadedWeaponEPNS0_6PlayerE
openspades:_ZN6spades6client6Client20UpdateLocalSpectatorEf
openspades:_ZN6spades6client6Client21AddDebugObjectToSceneERKNS_4OBB3ERKNS_7Vector4E
openspades:_ZN6spades6client6Client21BulletHitWaterSurfaceENS_7Vector3E
openspades:_ZN6spades6client6Client21CreateSceneDefinitionEv
openspades:_ZN6spades6client6Client21GetCameraTargetPlayerEv
openspades:_ZN6spades6client6Client21GetLocalFireVibrationEv
openspades:_ZN6spades6client6Client21GrenadeDestroyedBlockENS_10IntVector3E
openspades:_ZN6spades6client6Client21LocalPlayerBuildErrorENS0_18BuildFailureReasonE
openspades:_ZN6spades6client6Client21PlayerReloadingWeaponEPNS0_6PlayerE
openspades:_ZN6spades6client6Client21PlayerSentChatMessageEPNS0_6PlayerEbRKNSt7__cxx1112basic_stringIcSt11char_traitsIcESaIcEEE
openspades:_ZN6spades6client6Client21RemoveCorpseForPlayerEi
openspades:_ZN6spades6client6Client21TeamCapturedTerritoryEii
openspades:_ZN6spades6client6Client22LocalPlayerBlockActionENS_10IntVector3E15BlockActionType
openspades:_ZN6spades6client6Client22RemoveAllLocalEntitiesEv
openspades:_ZN6spades6client6Client22RemoveInvisibleCorpsesEv
openspades:_ZN6spades6client6Client23GetCameraTargetPlayerIdEv
openspades:_ZN6spades6client6Client23GrenadeDroppedIntoWaterEPNS0_7GrenadeE
openspades:_ZN6spades6client6Client23PlayerHitBlockWithSpadeEPNS0_6PlayerENS_7Vector3ENS_10IntVector3ES5_
openspades:_ZN6spades6client6Client24CanLocalPlayerUseToolNowEv
openspades:_ZN6spades6client6Client24DrawHottrackedPlayerNameEv
openspades:_ZN6spades6client6Client24DrawJoinedAlivePlayerHUDEv
openspades:_ZN6spades6client6Client25EmitBlockDestroyFragmentsENS_10IntVector3ES2_
openspades:_ZN6spades6client6Client26GrenadeExplosionUnderwaterENS_7Vector3E
openspades:_ZN6spades6client6Client27LocalPlayerCreatedLineBlockENS_10IntVector3ES2_
openspades:_ZN6spades6client6Client27LocalPlayerPulledGrenadePinEv
openspades:_ZN6spades6client6Client28NeedsAbsoluteMouseCoordinateEv
openspades:_ZN6spades6client6Client36PlayerDestroyedBlockWithWeaponOrToolENS_10IntVector3E
openspades:_ZN6spades6client6Client5BleedENS_7Vector3E
openspades:_ZN6spades6client6Client6DoInitEv
openspades:_ZN6spades6client6Client6Draw2DEv
openspades:_ZN6spades6client6Client6NetLogEPKcz
openspades:_ZN6spades6client6Client7ClosingEv
openspades:_ZN6spades6client6Client7IsMutedEv
openspades:_ZN6spades6client6Client7ProjectENS_7Vector3E
openspades:_ZN6spades6client6Client7TeamWonEi
openspades:_ZN6spades6client6Client8KeyEventERKNSt7__cxx1112basic_stringIcSt11char_traitsIcESaIcEEEb
openspades:_ZN6spades6client6Client8RunFrameEf
openspades:_ZN6spades6client6Client8SetWorldEPNS0_5WorldE
openspades:_ZN6spades6client6Client9DrawAlertEv
openspades:_ZN6spades6client6Client9DrawSceneEv
openspades:_ZN6spades6client6Client9DrawStatsEv
openspades:_ZN6spades6client6Client9ShowAlertERKNSt7__cxx1112basic_stringIcSt11char_traitsIcESaIcEEENS1_9AlertTypeE
openspades:_ZN6spades6client6Client9ShowAlertERKNSt7__cxx1112basic_stringIcSt11char_traitsIcESaIcEEENS1_9AlertTypeEfb
openspades:_ZN6spades6client6ClientC1EPNS0_9IRendererEPNS0_12IAudioDeviceERKNS_13ServerAddressEPNS0_11FontManagerE
openspades:_ZN6spades6client6ClientC2EPNS0_9IRendererEPNS0_12IAudioDeviceERKNS_13ServerAddressEPNS0_11FontManagerE
openspades:_ZN6spades6client6ClientD0Ev
openspades:_ZN6spades6client6ClientD1Ev
openspades:_ZN6spades6client6ClientD2Ev
openspades:_ZN6spades6client6Corpse10AddImpulseENS_7Vector3E
openspades:_ZN6spades6client6Corpse10AddToSceneEv
openspades:_ZN6spades6client6Corpse11AngleSpringENS1_8NodeTypeES2_NS_7Vector3Efff
openspades:_ZN6spades6client6Corpse11AngleSpringENS1_8NodeTypeES2_S2_fff
openspades:_ZN6spades6client6Corpse13IsVisibleFromENS_7Vector3E
openspades:_ZN6spades6client6Corpse13LineCollisionENS1_8NodeTypeES2_f
openspades:_ZN6spades6client6Corpse15AngularMomentumEiNS1_8NodeTypeES2_
openspades:_ZN6spades6client6Corpse15ApplyConstraintEf
openspades:_ZN6spades6client6Corpse6SpringENS1_8NodeTypeES2_S2_ff
openspades:_ZN6spades6client6Corpse6SpringENS1_8NodeTypeES2_ff
openspades:_ZN6spades6client6Corpse6UpdateEf
openspades:_ZN6spades6client6Corpse7SetNodeENS1_8NodeTypeENS_7Vector3E
openspades:_ZN6spades6client6Corpse7SetNodeENS1_8NodeTypeENS_7Vector4E
openspades:_ZN6spades6client6Corpse9GetCenterEv
openspades:_ZN6spades6client6CorpseC1EPNS0_9IRendererEPNS0_7GameMapEPNS0_6PlayerE
openspades:_ZN6spades6client6CorpseC2EPNS0_9IRendererEPNS0_7GameMapEPNS0_6PlayerE
openspades:_ZN6spades6client6CorpseD1Ev
openspades:_ZN6spades6client6CorpseD2Ev
openspades:_ZN6spades6client6Player10FireWeaponEv
openspades:_ZN6spades6client6Player10GetFront2DEv
openspades:_ZN6spades6client6Player10MovePlayerEf
openspades:_ZN6spades6client6Player10ReloadDoneEii
openspades:_ZN6spades6client6Player11BoxClipMoveEf
openspades:_ZN6spades6client6Player11GetHitBoxesEv
openspades:_ZN6spades6client6Player11SetPositionERKNS_7Vector3E
openspades:_ZN6spades6client6Player11SetVelocityERKNS_7Vector3E
openspades:_ZN6spades6client6Player11TryUncrouchEb
openspades:_ZN6spades6client6Player12DigWithSpadeEv
openspades:_ZN6spades6client6Player12OverlapsWithERKNS_5AABB3E
openspades:_ZN6spades6client6Player12ThrowGrenadeEv
openspades:_ZN6spades6client6Player13IsLocalPlayerEv
openspades:_ZN6spades6client6Player13RayCastApproxENS_7Vector3ES2_
openspades:_ZN6spades6client6Player13SetWeaponTypeE10WeaponType
openspades:_ZN6spades6client6Player14SetOrientationERKNS_7Vector3E
openspades:_ZN6spades6client6Player14SetWeaponInputENS0_11WeaponInputE
openspades:_ZN6spades6client6Player16IsCookingGrenadeEv
openspades:_ZN6spades6client6Player16IsOnGroundOrWadeEv
openspades:_ZN6spades6client6Player16IsReadyToUseToolEv
openspades:_ZN6spades6client6Player16IsToolSelectableENS1_8ToolTypeE
openspades:_ZN6spades6client6Player16RepositionPlayerERKNS_7Vector3E
openspades:_ZN6spades6client6Player17SetHeldBlockColorENS_10IntVector3E
openspades:_ZN6spades6client6Player18BoxDistanceToBlockENS_10IntVector3E
openspades:_ZN6spades6client6Player18GetGrenadeCookTimeEv
openspades:_ZN6spades6client6Player19GetToolPrimaryDelayEv
openspades:_ZN6spades6client6Player19IsBlockCursorActiveEv
openspades:_ZN6spades6client6Player20GetTimeToNextGrenadeEv
openspades:_ZN6spades6client6Player20OverlapsWithOneBlockENS_10IntVector3E
openspades:_ZN6spades6client6Player21GetToolSecondaryDelayEv
openspades:_ZN6spades6client6Player21IsBlockCursorDraggingEv
openspades:_ZN6spades6client6Player23GetDigAnimationProgressEv
openspades:_ZN6spades6client6Player24GetWalkAnimationProgressEv
openspades:_ZN6spades6client6Player25GetSpadeAnimationProgressEv
openspades:_ZN6spades6client6Player4TurnEff
openspades:_ZN6spades6client6Player5GetUpEv
openspades:_ZN6spades6client6Player5SetHPEi8HurtTypeNS_7Vector3E
openspades:_ZN6spades6client6Player6ReloadEv
openspades:_ZN6spades6client6Player6UpdateEf
openspades:_ZN6spades6client6Player7GetLeftEv
openspades:_ZN6spades6client6Player7GetNameB5cxx11Ev
openspades:_ZN6spades6client6Player7GetWadeEv
openspades:_ZN6spades6client6Player7IsAliveEv
openspades:_ZN6spades6client6Player7RestockEv
openspades:_ZN6spades6client6Player7SetTeamEi
openspades:_ZN6spades6client6Player7SetToolENS1_8ToolTypeE
openspades:_ZN6spades6client6Player8GetColorEv
openspades:_ZN6spades6client6Player8GetFrontEv
openspades:_ZN6spades6client6Player8GetRightEv
openspades:_ZN6spades6client6Player8GotBlockEv
openspades:_ZN6spades6client6Player8KilledByE8KillTypePS1_i
openspades:_ZN6spades6client6Player8SetInputENS0_11PlayerInputE
openspades:_ZN6spades6client6Player8UseSpadeEv
openspades:_ZN6spades6client6Player9ForceJumpEv
openspades:_ZN6spades6client6Player9GetOriginEv
openspades:_ZN6spades6client6PlayerC1EPNS0_5WorldEi10WeaponTypeiNS_7Vector3ENS_10IntVector3E
openspades:_ZN6spades6client6PlayerC2EPNS0_5WorldEi10WeaponTypeiNS_7Vector3ENS_10IntVector3E
openspades:_ZN6spades6client6PlayerD1Ev
openspades:_ZN6spades6client6PlayerD2Ev
openspades:_ZN6spades6client6Tracer6UpdateEf
openspades:_ZN6spades6client6Tracer8Render3DEv
openspades:_ZN6spades6client6TracerC1EPNS0_6ClientENS_7Vector3ES4_f
openspades:_ZN6spades6client6TracerC2EPNS0_6ClientENS_7Vector3ES4_f
openspades:_ZN6spades6client6TracerD0Ev
openspades:_ZN6spades6client6TracerD1Ev
openspades:_ZN6spades6client6TracerD2Ev
openspades:_ZN6spades6client6Weapon10ReloadDoneEii
openspades:_ZN6spades6client6Weapon11AbortReloadEv
openspades:_ZN6spades6client6Weapon11SetShootingEb
openspades:_ZN6spades6client6Weapon12CreateWeaponE10WeaponTypePNS0_6PlayerERKNS0_14GamePropertiesE
openspades:_ZN6spades6client6Weapon14IsReadyToShootEv
openspades:_ZN6spades6client6Weapon14TimeToNextFireEv
openspades:_ZN6spades6client6Weapon15ForceReloadDoneEv
openspades:_ZN6spades6client6Weapon17GetReloadProgressEv
openspades:_ZN6spades6client6Weapon5ResetEv
openspades:_ZN6spades6client6Weapon6ReloadEb
openspades:_ZN6spades6client6Weapon7RestockEv
openspades:_ZN6spades6client6Weapon9FrameNextEf
openspades:_ZN6spades6client6WeaponC1EPNS0_5WorldEPNS0_6PlayerE
openspades:_ZN6spades6client6WeaponC2EPNS0_5WorldEPNS0_6PlayerE
openspades:_ZN6spades6client6WeaponD0Ev
openspades:_ZN6spades6client6WeaponD1Ev
openspades:_ZN6spades6client6WeaponD2Ev
openspades:_ZN6spades6client7GameMap11AddListenerEPNS0_16IGameMapListenerE
openspades:_ZN6spades6client7GameMap14RemoveListenerEPNS0_16IGameMapListenerE
openspades:_ZN6spades6client7GameMap4LoadEPNS_7IStreamE
openspades:_ZN6spades6client7GameMap4SaveEPNS_7IStreamE
openspades:_ZN6spades6client7GameMap7CastRayENS_7Vector3ES2_fRNS_10IntVector3E
openspades:_ZN6spades6client7GameMap7ClipBoxEfff
openspades:_ZN6spades6client7GameMap7ClipBoxEiii
openspades:_ZN6spades6client7GameMap8CastRay2ENS_7Vector3ES2_i
openspades:_ZN6spades6client7GameMap9ClipWorldEfff
openspades:_ZN6spades6client7GameMap9ClipWorldEiii
openspades:_ZN6spades6client7GameMap9IsSurfaceEiii
openspades:_ZN6spades6client7GameMapC1Ev
openspades:_ZN6spades6client7GameMapC2Ev
openspades:_ZN6spades6client7GameMapD0Ev
openspades:_ZN6spades6client7GameMapD1Ev
openspades:_ZN6spades6client7GameMapD2Ev
openspades:_ZN6spades6client7Grenade11MoveGrenadeEf
openspades:_ZN6spades6client7Grenade6UpdateEf
openspades:_ZN6spades6client7Grenade7ExplodeEv
openspades:_ZN6spades6client7GrenadeC1EPNS0_5WorldENS_7Vector3ES4_f
openspades:_ZN6spades6client7GrenadeC2EPNS0_5WorldENS_7Vector3ES4_f
openspades:_ZN6spades6client7GrenadeD1Ev
openspades:_ZN6spades6client7GrenadeD2Ev
openspades:_ZN6spades6client7MapView10ToggleZoomEv
openspades:_ZN6spades6client7MapView11SwitchScaleEv
openspades:_ZN6spades6client7MapView4DrawEv
openspades:_ZN6spades6client7MapView6UpdateEf
openspades:_ZN6spades6client7MapView8DrawIconENS_7Vector3EPNS0_6IImageEf
openspades:_ZN6spades6client7MapViewC1EPNS0_6ClientEb
openspades:_ZN6spades6client7MapViewC2EPNS0_6ClientEb
openspades:_ZN6spades6client7MapViewD1Ev
openspades:_ZN6spades6client7MapViewD2Ev
openspades:_ZN6spades6client7paletteE
openspades:_ZN6spades6client8ClientUI10AlertErrorERKNSt7__cxx1112basic_stringIcSt11char_traitsIcESaIcEEE
openspades:_ZN6spades6client8ClientUI10MouseEventEff
openspades:_ZN6spades6client8ClientUI10NeedsInputEv
openspades:_ZN6spades6client8ClientUI10WheelEventEff
openspades:_ZN6spades6client8ClientUI10setIgnoredERKNSt7__cxx1112basic_stringIcSt11char_traitsIcESaIcEEE
openspades:_ZN6spades6client8ClientUI11AlertNoticeERKNSt7__cxx1112basic_stringIcSt11char_traitsIcESaIcEEE
openspades:_ZN6spades6client8ClientUI12AlertWarningERKNSt7__cxx1112basic_stringIcSt11char_traitsIcESaIcEEE
openspades:_ZN6spades6client8ClientUI13RecordChatLogERKNSt7__cxx1112basic_stringIcSt11char_traitsIcESaIcEEENS_7Vector4E
openspades:_ZN6spades6client8ClientUI14TextInputEventERKNSt7__cxx1112basic_stringIcSt11char_traitsIcESaIcEEE
openspades:_ZN6spades6client8ClientUI15ClientDestroyedEv
openspades:_ZN6spades6client8ClientUI15EnterClientMenuEv
openspades:_ZN6spades6client8ClientUI16AcceptsTextInputEv
openspades:_ZN6spades6client8ClientUI16GetTextInputRectEv
openspades:_ZN6spades6client8ClientUI16TextEditingEventERKNSt7__cxx1112basic_stringIcSt11char_traitsIcESaIcEEEii
openspades:_ZN6spades6client8ClientUI18EnterCommandWindowEv
openspades:_ZN6spades6client8ClientUI19EnterTeamChatWindowEv
openspades:_ZN6spades6client8ClientUI21EnterGlobalChatWindowEv
openspades:_ZN6spades6client8ClientUI21WantsClientToBeClosedEv
openspades:_ZN6spades6client8ClientUI7CloseUIEv
openspades:_ZN6spades6client8ClientUI7ClosingEv
openspades:_ZN6spades6client8ClientUI8KeyEventERKNSt7__cxx1112basic_stringIcSt11char_traitsIcESaIcEEEb
openspades:_ZN6spades6client8ClientUI8RunFrameEf
openspades:_ZN6spades6client8ClientUI8SendChatERKNSt7__cxx1112basic_stringIcSt11char_traitsIcESaIcEEEb
openspades:_ZN6spades6client8ClientUI9isIgnoredERKNSt7__cxx1112basic_stringIcSt11char_traitsIcESaIcEEE
openspades:_ZN6spades6client8ClientUIC1EPNS0_9IRendererEPNS0_12IAudioDeviceEPNS0_11FontManagerEPNS0_6ClientE
openspades:_ZN6spades6client8ClientUIC2EPNS0_9IRendererEPNS0_12IAudioDeviceEPNS0_11FontManagerEPNS0_6ClientE
openspades:_ZN6spades6client8ClientUID0Ev
openspades:_ZN6spades6client8ClientUID1Ev
openspades:_ZN6spades6client8ClientUID2Ev
openspades:_ZN6spades6client9GunCasing6UpdateEf
openspades:_ZN6spades6client9GunCasing8Render3DEv
openspades:_ZN6spades6client9GunCasingC1EPNS0_6ClientEPNS0_6IModelEPNS0_11IAudioChunkES7_NS_7Vector3ES8_S8_
openspades:_ZN6spades6client9GunCasingC2EPNS0_6ClientEPNS0_6IModelEPNS0_11IAudioChunkES7_NS_7Vector3ES8_S8_
openspades:_ZN6spades6client9GunCasingD0Ev
openspades:_ZN6spades6client9GunCasingD1Ev
openspades:_ZN6spades6client9GunCasingD2Ev
openspades:_ZN6spades6client9LimboView10MouseEventEff
openspades:_ZN6spades6client9LimboView4DrawEv
openspades:_ZN6spades6client9LimboView6UpdateEf
openspades:_ZN6spades6client9LimboView8KeyEventERKNSt7__cxx1112basic_stringIcSt11char_traitsIcESaIcEEE
openspades:_ZN6spades6client9LimboViewC1EPNS0_6ClientE
openspades:_ZN6spades6client9LimboViewC2EPNS0_6ClientE
openspades:_ZN6spades6client9LimboViewD1Ev
openspades:_ZN6spades6client9LimboViewD2Ev
openspades:_ZN6spades6client9NetClient10DisconnectEv
openspades:_ZN6spades6client9NetClient10SendReloadEv
openspades:_ZN6spades6client9NetClient11SendGrenadeEPNS0_7GrenadeE
openspades:_ZN6spades6client9NetClient11SendVersionEv
openspades:_ZN6spades6client9NetClient12SendPositionEv
openspades:_ZN6spades6client9NetClient13SendBlockLineENS_10IntVector3ES2_
openspades:_ZN6spades6client9NetClient14GetLocalPlayerEv
openspades:_ZN6spades6client9NetClient14SendTeamChangeEi
openspades:_ZN6spades6client9NetClient15GetPlayerOrNullEi
openspades:_ZN6spades6client9NetClient15SendBlockActionENS_10IntVector3E15BlockActionType
openspades:_ZN6spades6client9NetClient15SendOrientationENS_7Vector3E
openspades:_ZN6spades6client9NetClient15SendPlayerInputENS0_11PlayerInputE
openspades:_ZN6spades6client9NetClient15SendWeaponInputENS0_11WeaponInputE
openspades:_ZN6spades6client9NetClient16BandwidthMonitor6UpdateEv
openspades:_ZN6spades6client9NetClient16BandwidthMonitorC1EP9_ENetHost
openspades:_ZN6spades6client9NetClient16BandwidthMonitorC2EP9_ENetHost
openspades:_ZN6spades6client9NetClient16HandleGamePacketERNS0_15NetPacketReaderE
openspades:_ZN6spades6client9NetClient16SendWeaponChangeE10WeaponType
openspades:_ZN6spades6client9NetClient18SendHandShakeValidEi
openspades:_ZN6spades6client9NetClient18SendHeldBlockColorEv
openspades:_ZN6spades6client9NetClient19SendVersionEnhancedERKSt3setIhSt4lessIhESaIhEE
openspades:_ZN6spades6client9NetClient20GetLocalPlayerOrNullEv
openspades:_ZN6spades6client9NetClient21HandleHandshakePacketERNS0_15NetPacketReaderE
openspades:_ZN6spades6client9NetClient22DisconnectReasonStringB5cxx11Ej
openspades:_ZN6spades6client9NetClient7ConnectERKNS_13ServerAddressE
openspades:_ZN6spades6client9NetClient7GetPingEv
openspades:_ZN6spades6client9NetClient7SendHitEi7HitType
openspades:_ZN6spades6client9NetClient8DoEventsEi
openspades:_ZN6spades6client9NetClient8GetWorldEv
openspades:_ZN6spades6client9NetClient8SendChatENSt7__cxx1112basic_stringIcSt11char_traitsIcESaIcEEEb
openspades:_ZN6spades6client9NetClient8SendJoinEi10WeaponTypeNSt7__cxx1112basic_stringIcSt11char_traitsIcESaIcEEEi
openspades:_ZN6spades6client9NetClient8SendToolEv
openspades:_ZN6spades6client9NetClient9GetPlayerEi
openspades:_ZN6spades6client9NetClient9MapLoadedEv
openspades:_ZN6spades6client9NetClientC1EPNS0_6ClientE
openspades:_ZN6spades6client9NetClientC2EPNS0_6ClientE
openspades:_ZN6spades6client9NetClientD1Ev
openspades:_ZN6spades6client9NetClientD2Ev
openspades:_ZN6spades7IStream11GetPositionEv
openspades:_ZN6spades7IStream11SetPositionEm
openspades:_ZN6spades7IStream12ReadAllBytesB5cxx11Ev
openspades:_ZN6spades7IStream13ReadLittleIntEv
openspades:_ZN6spades7IStream15ReadLittleShortEv
openspades:_ZN6spades7IStream4ReadB5cxx11Em
openspades:_ZN6spades7IStream4ReadEPvm
openspades:_ZN6spades7IStream5WriteEPKvm
openspades:_ZN6spades7IStream5WriteERKNSt7__cxx1112basic_stringIcSt11char_traitsIcESaIcEEE
openspades:_ZN6spades7IStream8ReadByteEv
openspades:_ZN6spades7IStream9GetLengthEv
openspades:_ZN6spades7IStream9SetLengthEm
openspades:_ZN6spades7IStream9WriteByteEi
openspades:_ZN6spades7IStreamD0Ev
openspades:_ZN6spades7IStreamD1Ev
openspades:_ZN6spades7IStreamD2Ev
openspades:_ZN6spades7Matrix45ScaleENS_7Vector3E
openspades:_ZN6spades7Matrix45ScaleEf
openspades:_ZN6spades7Matrix45ScaleEfff
openspades:_ZN6spades7Matrix46RotateENS_7Vector3Ef
openspades:_ZN6spades7Matrix48FromAxisENS_7Vector3ES1_S1_S1_
openspades:_ZN6spades7Matrix48IdentityEv
openspades:_ZN6spades7Matrix49TranslateENS_7Vector3E
openspades:_ZN6spades7Matrix49TranslateEfff
openspades:_ZN6spades7Matrix4C1EPf
openspades:_ZN6spades7Matrix4C1Effffffffffffffff
openspades:_ZN6spades7Matrix4C2EPf
openspades:_ZN6spades7Matrix4C2Effffffffffffffff
openspades:_ZN6spades7ReplaceERKNSt7__cxx1112basic_stringIcSt11char_traitsIcESaIcEEES7_S7_
openspades:_ZN6spades8MiniHeap8ValidateEv
openspades:_ZN6spades8Settings10ItemHandle11AddListenerEPNS_20ISettingItemListenerE
openspades:_ZN6spades8Settings10ItemHandle13GetDescriptorEv
openspades:_ZN6spades8Settings10ItemHandle14RemoveListenerEPNS_20ISettingItemListenerE
openspades:_ZN6spades8Settings10ItemHandle7CStringEv
openspades:_ZN6spades8Settings10ItemHandle9IsUnknownEv
openspades:_ZN6spades8Settings10ItemHandleC1ERKNSt7__cxx1112basic_stringIcSt11char_traitsIcESaIcEEEPKNS_21SettingItemDescriptorE
openspades:_ZN6spades8Settings10ItemHandleC2ERKNSt7__cxx1112basic_stringIcSt11char_traitsIcESaIcEEEPKNS_21SettingItemDescriptorE
openspades:_ZN6spades8Settings10ItemHandleaSERKNSt7__cxx1112basic_stringIcSt11char_traitsIcESaIcEEE
openspades:_ZN6spades8Settings10ItemHandleaSEf
openspades:_ZN6spades8Settings10ItemHandleaSEi
openspades:_ZN6spades8Settings10ItemHandlecvNSt7__cxx1112basic_stringIcSt11char_traitsIcESaIcEEEEv
openspades:_ZN6spades8Settings10ItemHandlecvbEv
openspades:_ZN6spades8Settings10ItemHandlecvfEv
openspades:_ZN6spades8Settings10ItemHandlecviEv
openspades:_ZN6spades8Settings11GetInstanceEv
openspades:_ZN6spades8Settings15GetAllItemNamesB5cxx11Ev
openspades:_ZN6spades8Settings4Item12NotifyChangeEv
openspades:_ZN6spades8Settings4Item3SetERKNSt7__cxx1112basic_stringIcSt11char_traitsIcESaIcEEE
openspades:_ZN6spades8Settings4Item3SetEf
openspades:_ZN6spades8Settings4Item3SetEi
openspades:_ZN6spades8Settings4Item4LoadEv
openspades:_ZN6spades8Settings4LoadEv
openspades:_ZN6spades8Settings4SaveEv
openspades:_ZN6spades8Settings5FlushEv
openspades:_ZN6spades8Settings7GetItemERKNSt7__cxx1112basic_stringIcSt11char_traitsIcESaIcEEEPKNS_21SettingItemDescriptorE
openspades:_ZN6spades8SettingsC1Ev
openspades:_ZN6spades8SettingsC2Ev
openspades:_ZN6spades8StartLogEv
openspades:_ZN6spades8ToStringINS_7Vector2EEENSt7__cxx1112basic_stringIcSt11char_traitsIcESaIcEEERKT_
openspades:_ZN6spades8ToStringINS_7Vector3EEENSt7__cxx1112basic_stringIcSt11char_traitsIcESaIcEEERKT_
openspades:_ZN6spades8ToStringINS_7Vector4EEENSt7__cxx1112basic_stringIcSt11char_traitsIcESaIcEEERKT_
openspades:_ZN6spades8ToStringINSt7__cxx1112basic_stringIcSt11char_traitsIcESaIcEEEEES6_RKT_
openspades:_ZN6spades8ToStringIPKcEENSt7__cxx1112basic_stringIcSt11char_traitsIcESaIcEEERKT_
openspades:_ZN6spades8ngclient6FTFont10DrawShadowERKNSt7__cxx1112basic_stringIcSt11char_traitsIcESaIcEEERKNS_7Vector2EfRKNS_7Vector4ESF_
openspades:_ZN6spades8ngclient6FTFont11DrawBlurredERKNSt7__cxx1112basic_stringIcSt11char_traitsIcESaIcEEENS_7Vector2EfNS_7Vector4E
openspades:_ZN6spades8ngclient6FTFont11RenderGlyphERNS1_5GlyphE
openspades:_ZN6spades8ngclient6FTFont15RenderBlurGlyphERNS1_5GlyphE
openspades:_ZN6spades8ngclient6FTFont4DrawERKNSt7__cxx1112basic_stringIcSt11char_traitsIcESaIcEEENS_7Vector2EfNS_7Vector4E
openspades:_ZN6spades8ngclient6FTFont7MeasureERKNSt7__cxx1112basic_stringIcSt11char_traitsIcESaIcEEE
openspades:_ZN6spades8ngclient6FTFont8GetGlyphEj
openspades:_ZN6spades8ngclient6FTFontC1EPNS_6client9IRendererEPNS0_9FTFontSetEff
openspades:_ZN6spades8ngclient6FTFontC2EPNS_6client9IRendererEPNS0_9FTFontSetEff
openspades:_ZN6spades8ngclient6FTFontD0Ev
openspades:_ZN6spades8ngclient6FTFontD1Ev
openspades:_ZN6spades8ngclient6FTFontD2Ev
openspades:_ZN6spades8ngclient9FTFontSet7AddFaceERKNSt7__cxx1112basic_stringIcSt11char_traitsIcESaIcEEE
openspades:_ZN6spades8ngclient9FTFontSetC1Ev
openspades:_ZN6spades8ngclient9FTFontSetC2Ev
openspades:_ZN6spades8ngclient9FTFontSetD0Ev
openspades:_ZN6spades8ngclient9FTFontSetD1Ev
openspades:_ZN6spades8ngclient9FTFontSetD2Ev
openspades:_ZN6spades9ExceptionC1EPKciS2_z
openspades:_ZN6spades9ExceptionC1EPKcz
openspades:_ZN6spades9ExceptionC2EPKciS2_z
openspades:_ZN6spades9ExceptionC2EPKcz
openspades:_ZN6spades9ExceptionD0Ev
openspades:_ZN6spades9ExceptionD1Ev
openspades:_ZN6spades9ExceptionD2Ev
openspades:_ZN6spades9Semaphore4PostEv
openspades:_ZN6spades9Semaphore4WaitEv
openspades:_ZN6spades9SemaphoreC1Ei
openspades:_ZN6spades9SemaphoreC2Ei
openspades:_ZN6spades9SemaphoreD1Ev
openspades:_ZN6spades9SemaphoreD2Ev
openspades:_ZN6spades9StdStream11GetPositionEv
openspades:_ZN6spades9StdStream11SetPositionEm
openspades:_ZN6spades9StdStream4ReadEPvm
openspades:_ZN6spades9StdStream5FlushEv
openspades:_ZN6spades9StdStream5WriteEPKvm
openspades:_ZN6spades9StdStream8ReadByteEv
openspades:_ZN6spades9StdStream9GetLengthEv
openspades:_ZN6spades9StdStream9SetLengthEm
openspades:_ZN6spades9StdStream9WriteByteEi
openspades:_ZN6spades9StdStreamC1EP8_IO_FILEb
openspades:_ZN6spades9StdStreamC2EP8_IO_FILEb
openspades:_ZN6spades9StdStreamD0Ev
openspades:_ZN6spades9StdStreamD1Ev
openspades:_ZN6spades9StdStreamD2Ev
openspades:_ZN6spades9Stopwatch5ResetEv
openspades:_ZN6spades9Stopwatch7GetTimeEv
openspades:_ZN6spades9StopwatchC1Ev
openspades:_ZN6spades9StopwatchC2Ev
openspades:_ZN6spades9imgReaderE
openspades:_ZN6spadesmlERKNS_7Matrix4ERKNS_7Vector3E
openspades:_ZN6spadesmlERKNS_7Matrix4ERKNS_7Vector4E
openspades:_ZN7Complex6set_irERKS_
openspades:_ZN7Complex6set_riERKS_
openspades:_ZN7ComplexC1ERKS_
openspades:_ZN7ComplexC1Eff
openspades:_ZN7ComplexC1Ev
openspades:_ZN7ComplexC2ERKS_
openspades:_ZN7ComplexC2Eff
openspades:_ZN7ComplexC2Ev
openspades:_ZN7ComplexaSERKS_
openspades:_ZN7ComplexdVERKS_
openspades:_ZN7ComplexmIERKS_
openspades:_ZN7ComplexmLERKS_
openspades:_ZN7ComplexpLERKS_
openspades:_ZN9asCModule10AddFuncDefERK9asCStringP12asSNameSpaceP13asCObjectType
openspades:_ZN9asCModule10JITCompileEv
openspades:_ZN9asCModule11SetUserDataEPvm
openspades:_ZN9asCModule12LoadByteCodeEP15asIBinaryStreamPb
openspades:_ZN9asCModule13GetObjectTypeEPKcP12asSNameSpace
openspades:_ZN9asCModule13InternalResetEv
openspades:_ZN9asCModule13SetAccessMaskEj
openspades:_ZN9asCModule14RemoveFunctionEP17asIScriptFunction
openspades:_ZN9asCModule15CompileFunctionEPKcS1_ijPP17asIScriptFunction
openspades:_ZN9asCModule15RemoveGlobalVarEj
openspades:_ZN9asCModule15ResetGlobalVarsEP16asIScriptContext
openspades:_ZN9asCModule16AddScriptSectionEPKcS1_mi
openspades:_ZN9asCModule16CompileGlobalVarEPKcS1_i
openspades:_ZN9asCModule17AddScriptFunctionEP17asCScriptFunction
openspades:_ZN9asCModule17AddScriptFunctionEiiiRK9asCStringRK11asCDataTypeRK8asCArrayIS3_ERKS6_IS0_ERKS6_I16asETypeModifiersERKS6_IPS0_EbP13asCObjectTypebbbbbbbP12asSNameSpace
openspades:_ZN9asCModule19AddImportedFunctionEiRK9asCStringRK11asCDataTypeRK8asCArrayIS3_ERKS6_I16asETypeModifiersERKS6_IPS0_EP12asSNameSpaceS2_
openspades:_ZN9asCModule19SetDefaultNamespaceEPKc
openspades:_ZN9asCModule20BindImportedFunctionEjP17asIScriptFunction
openspades:_ZN9asCModule21GetAddressOfGlobalVarEj
openspades:_ZN9asCModule21HasExternalReferencesEb
openspades:_ZN9asCModule22AllocateGlobalPropertyEPKcRK11asCDataTypeP12asSNameSpace
openspades:_ZN9asCModule22UnbindImportedFunctionEj
openspades:_ZN9asCModule24BindAllImportedFunctionsEv
openspades:_ZN9asCModule25GetNextImportedFunctionIdEv
openspades:_ZN9asCModule26UnbindAllImportedFunctionsEv
openspades:_ZN9asCModule5BuildEv
openspades:_ZN9asCModule7DiscardEv
openspades:_ZN9asCModule7GetTypeEPKcP12asSNameSpace
openspades:_ZN9asCModule7SetNameEPKc
openspades:_ZN9asCModule8CallExitEv
openspades:_ZN9asCModule8CallInitEP16asIScriptContext
openspades:_ZN9asCModuleC1EPKcP15asCScriptEngine
openspades:_ZN9asCModuleC2EPKcP15asCScriptEngine
openspades:_ZN9asCModuleD0Ev
openspades:_ZN9asCModuleD1Ev
openspades:_ZN9asCModuleD2Ev
openspades:_ZN9asCParser10CreateNodeE11eScriptNode
openspades:_ZN9asCParser10IsConstantEi
openspades:_ZN9asCParser10IsDataTypeERK6sToken
openspades:_ZN9asCParser10IsFuncDeclEb
openspades:_ZN9asCParser10IsOperatorEi
openspades:_ZN9asCParser10IsRealTypeEi
openspades:_ZN9asCParser10ParseBreakEv
openspades:_ZN9asCParser10ParseClassEv
openspades:_ZN9asCParser10ParseMixinEv
openspades:_ZN9asCParser10ParseOneOfEPii
openspades:_ZN9asCParser10ParseTokenEi
openspades:_ZN9asCParser10ParseWhileEv
openspades:_ZN9asCParser11ParseImportEv
openspades:_ZN9asCParser11ParseLambdaEv
openspades:_ZN9asCParser11ParseReturnEv
openspades:_ZN9asCParser11ParseScriptEP13asCScriptCode
openspades:_ZN9asCParser11ParseScriptEb
openspades:_ZN9asCParser11ParseSwitchEv
openspades:_ZN9asCParser12IdentifierIsERK6sTokenPKc
openspades:_ZN9asCParser12InsteadFoundER6sToken
openspades:_ZN9asCParser12ParseArgListEb
openspades:_ZN9asCParser12ParseDoWhileEv
openspades:_ZN9asCParser12ParseFuncDefEv
openspades:_ZN9asCParser12ParseTypeModEb
openspades:_ZN9asCParser12ParseTypedefEv
openspades:_ZN9asCParser12ParseVarInitEP13asCScriptCodeP13asCScriptNode
openspades:_ZN9asCParser13ExpectedOneOfEPPKci
openspades:_ZN9asCParser13ExpectedOneOfEPii
openspades:_ZN9asCParser13ExpectedTokenEPKc
openspades:_ZN9asCParser13GetScriptNodeEv
openspades:_ZN9asCParser13IsPreOperatorEi
openspades:_ZN9asCParser13ParseConstantEv
openspades:_ZN9asCParser13ParseContinueEv
openspades:_ZN9asCParser13ParseDataTypeEP13asCScriptCodeb
openspades:_ZN9asCParser13ParseDataTypeEbb
openspades:_ZN9asCParser13ParseExprTermEv
openspades:_ZN9asCParser13ParseFunctionEb
openspades:_ZN9asCParser13ParseInitListEv
openspades:_ZN9asCParser13ParseRealTypeEv
openspades:_ZN9asCParser14ExpectedTokensEPKcS1_
openspades:_ZN9asCParser14IsFunctionCallEv
openspades:_ZN9asCParser14IsPostOperatorEi
openspades:_ZN9asCParser14ParseConditionEv
openspades:_ZN9asCParser14ParseExprPreOpEv
openspades:_ZN9asCParser14ParseExprValueEv
openspades:_ZN9asCParser14ParseInterfaceEv
openspades:_ZN9asCParser14ParseNamespaceEv
openspades:_ZN9asCParser14ParseStatementEv
openspades:_ZN9asCParser15ParseAssignmentEv
openspades:_ZN9asCParser15ParseExprPostOpEv
openspades:_ZN9asCParser15ParseExpressionEP13asCScriptCode
openspades:_ZN9asCParser15ParseExpressionEv
openspades:_ZN9asCParser15ParseIdentifierEv
openspades:_ZN9asCParser16IsAssignOperatorEi
openspades:_ZN9asCParser16ParseDeclarationEbb
openspades:_ZN9asCParser16ParseEnumerationEv
openspades:_ZN9asCParser16ParseListPatternEv
openspades:_ZN9asCParser17CheckTemplateTypeERK6sToken
openspades:_ZN9asCParser17ParseExprOperatorEv
openspades:_ZN9asCParser17ParseFunctionCallEv
openspades:_ZN9asCParser17ParseTemplateDeclEP13asCScriptCode
openspades:_ZN9asCParser18ParseConstructCallEv
openspades:_ZN9asCParser18ParseOptionalScopeEP13asCScriptNode
openspades:_ZN9asCParser18ParseParameterListEv
openspades:_ZN9asCParser18ParseTemplTypeListEP13asCScriptNodeb
openspades:_ZN9asCParser19ParseAssignOperatorEv
openspades:_ZN9asCParser19ParseStatementBlockEP13asCScriptCodeP13asCScriptNode
openspades:_ZN9asCParser19ParseStatementBlockEv
openspades:_ZN9asCParser19ParseStringConstantEv
openspades:_ZN9asCParser19ParseVariableAccessEv
openspades:_ZN9asCParser20ParseInterfaceMethodEv
openspades:_ZN9asCParser21IsVirtualPropertyDeclEv
openspades:_ZN9asCParser23ParseFunctionDefinitionEP13asCScriptCodeb
openspades:_ZN9asCParser23ParseFunctionDefinitionEv
openspades:_ZN9asCParser24ParseExpressionStatementEv
openspades:_ZN9asCParser24ParsePropertyDeclarationEP13asCScriptCode
openspades:_ZN9asCParser24ParseVirtualPropertyDeclEbb
openspades:_ZN9asCParser25SuperficiallyParseVarInitEv
openspades:_ZN9asCParser28ParseMethodOverrideBehaviorsEP13asCScriptNode
openspades:_ZN9asCParser28SuperficiallyParseExpressionEv
openspades:_ZN9asCParser32SuperficiallyParseStatementBlockEv
openspades:_ZN9asCParser4InfoERK9asCStringP6sToken
openspades:_ZN9asCParser5ErrorERK9asCStringP6sToken
openspades:_ZN9asCParser5ResetEv
openspades:_ZN9asCParser6SetPosEm
openspades:_ZN9asCParser7ParseIfEv
openspades:_ZN9asCParser7WarningERK9asCStringP6sToken
openspades:_ZN9asCParser8GetTokenEP6sToken
openspades:_ZN9asCParser8IsLambdaEv
openspades:_ZN9asCParser8ParseForEv
openspades:_ZN9asCParser8RewindToEPK6sToken
openspades:_ZN9asCParser9IsVarDeclEv
openspades:_ZN9asCParser9ParseCaseEv
openspades:_ZN9asCParser9ParseCastEv
openspades:_ZN9asCParser9ParseTypeEbbb
openspades:_ZN9asCParserC1EP10asCBuilder
openspades:_ZN9asCParserC2EP10asCBuilder
openspades:_ZN9asCParserD1Ev
openspades:_ZN9asCParserD2Ev
openspades:_ZN9asCReader10FindTypeIdEi
openspades:_ZN9asCReader10ReadStringEP9asCString
openspades:_ZN9asCReader12FindFunctionEi
openspades:_ZN9asCReader12ReadByteCodeEP17asCScriptFunction
openspades:_ZN9asCReader12ReadDataTypeEP11asCDataType
openspades:_ZN9asCReader12ReadFunctionERbbbb
openspades:_ZN9asCReader12ReadTypeInfoEv
openspades:_ZN9asCReader13SListAdjuster11SetNextTypeEi
openspades:_ZN9asCReader13SListAdjuster12AdjustOffsetEi
openspades:_ZN9asCReader13SListAdjuster14AdjustAllocMemEv
openspades:_ZN9asCReader13SListAdjuster14SetRepeatCountEj
openspades:_ZN9asCReader13SListAdjusterC1EPS_PjP13asCObjectType
openspades:_ZN9asCReader13SListAdjusterC2EPS_PjP13asCObjectType
openspades:_ZN9asCReader15AdjustGetOffsetEiP17asCScriptFunctionj
openspades:_ZN9asCReader15ReadEncodedUIntEv
openspades:_ZN9asCReader15ReadUsedTypeIdsEv
openspades:_ZN9asCReader17GetCalledFunctionEP17asCScriptFunctionj
openspades:_ZN9asCReader17ReadEncodedUInt16Ev
openspades:_ZN9asCReader17ReadEncodedUInt64Ev
openspades:_ZN9asCReader17ReadUsedFunctionsEv
openspades:_ZN9asCReader17TranslateFunctionEP17asCScriptFunction
openspades:_ZN9asCReader18ReadGlobalPropertyEv
openspades:_ZN9asCReader18ReadObjectPropertyEP13asCObjectType
openspades:_ZN9asCReader19AdjustStackPositionEi
openspades:_ZN9asCReader19ReadTypeDeclarationEP11asCTypeInfoi
openspades:_ZN9asCReader19ReadUsedGlobalPropsEv
openspades:_ZN9asCReader19ReadUsedObjectPropsEv
openspades:_ZN9asCReader20CalculateStackNeededEP17asCScriptFunction
openspades:_ZN9asCReader20FindObjectPropOffsetEt
openspades:_ZN9asCReader21ReadFunctionSignatureEP17asCScriptFunctionPP13asCObjectType
openspades:_ZN9asCReader23ReadUsedStringConstantsEv
openspades:_ZN9asCReader24CalculateAdjustmentByPosEP17asCScriptFunction
openspades:_ZN9asCReader4ReadEPb
openspades:_ZN9asCReader5ErrorEPKc
openspades:_ZN9asCReader8FindTypeEi
openspades:_ZN9asCReader8ReadDataEPvj
openspades:_ZN9asCReader9ReadInnerEv
openspades:_ZN9asCReaderC1EP9asCModuleP15asIBinaryStreamP15asCScriptEngine
openspades:_ZN9asCReaderC2EP9asCModuleP15asIBinaryStreamP15asCScriptEngine
openspades:_ZN9asCString11ConcatenateEPKcm
openspades:_ZN9asCString17RecalculateLengthEv
openspades:_ZN9asCString6AssignEPKcm
openspades:_ZN9asCString6FormatEPKcz
openspades:_ZN9asCString8AllocateEmb
openspades:_ZN9asCString9AddressOfEv
openspades:_ZN9asCString9SetLengthEm
openspades:_ZN9asCStringC1EOS_
openspades:_ZN9asCStringC1EPKc
openspades:_ZN9asCStringC1EPKcm
openspades:_ZN9asCStringC1ERKS_
openspades:_ZN9asCStringC1Ec
openspades:_ZN9asCStringC1Ev
openspades:_ZN9asCStringC2EOS_
openspades:_ZN9asCStringC2EPKc
openspades:_ZN9asCStringC2EPKcm
openspades:_ZN9asCStringC2ERKS_
openspades:_ZN9asCStringC2Ec
openspades:_ZN9asCStringC2Ev
openspades:_ZN9asCStringD1Ev
openspades:_ZN9asCStringD2Ev
openspades:_ZN9asCStringaSEOS_
openspades:_ZN9asCStringaSEPKc
openspades:_ZN9asCStringaSERKS_
openspades:_ZN9asCStringaSEc
openspades:_ZN9asCStringixEm
openspades:_ZN9asCStringpLEPKc
openspades:_ZN9asCStringpLERKS_
openspades:_ZN9asCStringpLEc
openspades:_ZN9asCWriter11WriteStringEP9asCString
openspades:_ZN9asCWriter13FindTypeIdIdxEi
openspades:_ZN9asCWriter13SListAdjuster11SetNextTypeEi
openspades:_ZN9asCWriter13SListAdjuster12AdjustOffsetEiP13asCObjectType
openspades:_ZN9asCWriter13SListAdjuster14SetRepeatCountEj
openspades:_ZN9asCWriter13SListAdjusterC1EP13asCObjectType
openspades:_ZN9asCWriter13SListAdjusterC2EP13asCObjectType
openspades:_ZN9asCWriter13WriteByteCodeEP17asCScriptFunction
openspades:_ZN9asCWriter13WriteDataTypeEPK11asCDataType
openspades:_ZN9asCWriter13WriteFunctionEP17asCScriptFunction
openspades:_ZN9asCWriter13WriteTypeInfoEP11asCTypeInfo
openspades:_ZN9asCWriter15AdjustGetOffsetEiP17asCScriptFunctionj
openspades:_ZN9asCWriter15FindTypeInfoIdxEP11asCTypeInfo
openspades:_ZN9asCWriter16WriteUsedTypeIdsEv
openspades:_ZN9asCWriter17FindFunctionIndexEP17asCScriptFunction
openspades:_ZN9asCWriter17WriteEncodedInt64El
openspades:_ZN9asCWriter18WriteUsedFunctionsEv
openspades:_ZN9asCWriter19AdjustStackPositionEi
openspades:_ZN9asCWriter19FindObjectPropIndexEsi
openspades:_ZN9asCWriter19WriteGlobalPropertyEP17asCGlobalProperty
openspades:_ZN9asCWriter19WriteObjectPropertyEP17asCObjectProperty
openspades:_ZN9asCWriter20WriteTypeDeclarationEP11asCTypeInfoi
openspades:_ZN9asCWriter20WriteUsedGlobalPropsEv
openspades:_ZN9asCWriter20WriteUsedObjectPropsEv
openspades:_ZN9asCWriter22FindGlobalPropPtrIndexEPv
openspades:_ZN9asCWriter22WriteFunctionSignatureEP17asCScriptFunction
openspades:_ZN9asCWriter23FindStringConstantIndexEi
openspades:_ZN9asCWriter24CalculateAdjustmentByPosEP17asCScriptFunction
openspades:_ZN9asCWriter24WriteUsedStringConstantsEv
openspades:_ZN9asCWriter5WriteEv
openspades:_ZN9asCWriter9WriteDataEPKvj
openspades:_ZN9asCWriterC1EP9asCModuleP15asIBinaryStreamP15asCScriptEngineb
openspades:_ZN9asCWriterC2EP9asCModuleP15asIBinaryStreamP15asCScriptEngineb
openspades:_ZNK10CScriptAny6AddRefEv
openspades:_ZNK10CScriptAny7ReleaseEv
openspades:_ZNK10CScriptAny8RetrieveEPvi
openspades:_ZNK10CScriptAny8RetrieveERd
openspades:_ZNK10CScriptAny8RetrieveERl
openspades:_ZNK10CScriptAny9GetTypeIdEv
openspades:_ZNK10asCContext11GetUserDataEm
openspades:_ZNK10asCContext16GetCallstackSizeEv
openspades:_ZNK10asCContext6AddRefEv
openspades:_ZNK10asCContext7ReleaseEv
openspades:_ZNK10asCContext8GetStateEv
openspades:_ZNK10asCContext8IsNestedEPj
openspades:_ZNK10asCContext9GetEngineEv
openspades:_ZNK10asCGeneric11GetArgCountEv
openspades:_ZNK10asCGeneric11GetFunctionEv
openspades:_ZNK10asCGeneric12GetArgTypeIdEjPj
openspades:_ZNK10asCGeneric12GetAuxiliaryEv
openspades:_ZNK10asCGeneric15GetObjectTypeIdEv
openspades:_ZNK10asCGeneric15GetReturnTypeIdEPj
openspades:_ZNK10asCGeneric9GetEngineEv
openspades:_ZNK11asCDataType10GetSubTypeEj
openspades:_ZNK11asCDataType10IsEnumTypeEv
openspades:_ZNK11asCDataType10IsMathTypeEv
openspades:_ZNK11asCDataType10IsReadOnlyEv
openspades:_ZNK11asCDataType10IsTemplateEv
openspades:_ZNK11asCDataType11CanBeCopiedEv
openspades:_ZNK11asCDataType11IsArrayTypeEv
openspades:_ZNK11asCDataType11IsFloatTypeEv
openspades:_ZNK11asCDataType11IsInterfaceEv
openspades:_ZNK11asCDataType11IsPrimitiveEv
openspades:_ZNK11asCDataType12GetBehaviourEv
openspades:_ZNK11asCDataType12IsDoubleTypeEv
openspades:_ZNK11asCDataType12IsNullHandleEv
openspades:_ZNK11asCDataType13IsBooleanTypeEv
openspades:_ZNK11asCDataType13IsIntegerTypeEv
openspades:_ZNK11asCDataType13IsObjectConstEv
openspades:_ZNK11asCDataType14IsScriptObjectEv
openspades:_ZNK11asCDataType14IsUnsignedTypeEv
openspades:_ZNK11asCDataType14SupportHandlesEv
openspades:_ZNK11asCDataType15IsAbstractClassEv
openspades:_ZNK11asCDataType15IsHandleToConstEv
openspades:_ZNK11asCDataType16IsEqualExceptRefERKS_
openspades:_ZNK11asCDataType17CanBeInstantiatedEv
openspades:_ZNK11asCDataType18IsEqualExceptConstERKS_
openspades:_ZNK11asCDataType20GetSizeInMemoryBytesEv
openspades:_ZNK11asCDataType20GetSizeOnStackDWordsEv
openspades:_ZNK11asCDataType21GetSizeInMemoryDWordsEv
openspades:_ZNK11asCDataType24IsEqualExceptRefAndConstERKS_
openspades:_ZNK11asCDataType6FormatEP12asSNameSpaceb
openspades:_ZNK11asCDataType7IsValidEv
openspades:_ZNK11asCDataType8IsObjectEv
openspades:_ZNK11asCDataType9IsFuncdefEv
openspades:_ZNK11asCDataTypeeqERKS_
openspades:_ZNK11asCDataTypeneERKS_
openspades:_ZNK11asCEnumType17GetEnumValueCountEv
openspades:_ZNK11asCEnumType19GetEnumValueByIndexEjPi
openspades:_ZNK11asCTypeInfo11GetPropertyEjPPKcPiPbS4_S3_S4_Pj
openspades:_ZNK11asCTypeInfo11GetUserDataEm
openspades:_ZNK11asCTypeInfo12GetNamespaceEv
openspades:_ZNK11asCTypeInfo13GetAccessMaskEv
openspades:_ZNK11asCTypeInfo14GetConfigGroupEv
openspades:_ZNK11asCTypeInfo6AddRefEv
openspades:_ZNK11asCTypeInfo7GetNameEv
openspades:_ZNK11asCTypeInfo7GetSizeEv
openspades:_ZNK11asCTypeInfo7ReleaseEv
openspades:_ZNK11asCTypeInfo8GetFlagsEv
openspades:_ZNK11asCTypeInfo8IsSharedEv
openspades:_ZNK11asCTypeInfo9GetEngineEv
openspades:_ZNK11asCTypeInfo9GetModuleEv
openspades:_ZNK11asCTypeInfo9GetTypeIdEv
openspades:_ZNK12CScriptArray14GetArrayTypeIdEv
openspades:_ZNK12CScriptArray16GetElementTypeIdEv
openspades:_ZNK12CScriptArray18GetArrayObjectTypeEv
openspades:_ZNK12CScriptArray2AtEj
openspades:_ZNK12CScriptArray4FindEPv
openspades:_ZNK12CScriptArray4FindEjPv
openspades:_ZNK12CScriptArray6AddRefEv
openspades:_ZNK12CScriptArray6EqualsEPKvS1_P16asIScriptContextP11SArrayCache
openspades:_ZNK12CScriptArray7GetSizeEv
openspades:_ZNK12CScriptArray7IsEmptyEv
openspades:_ZNK12CScriptArray7ReleaseEv
openspades:_ZNK12CScriptArray9FindByRefEPv
openspades:_ZNK12CScriptArray9FindByRefEjPv
openspades:_ZNK12CScriptArrayeqERKS_
openspades:_ZNK12asCExprValue14IsNullConstantEv
openspades:_ZNK12asCExprValue21IsUndefinedFuncHandleEv
openspades:_ZNK12asCExprValue6IsVoidEv
openspades:_ZNK12asCTokenizer10IsConstantEPKcmRmR10eTokenType
openspades:_ZNK12asCTokenizer10ParseTokenEPKcmRmR10eTokenType
openspades:_ZNK12asCTokenizer12IsIdentifierEPKcmRmR10eTokenType
openspades:_ZNK12asCTokenizer12IsWhiteSpaceEPKcmRmR10eTokenType
openspades:_ZNK12asCTokenizer14IsDigitInRadixEci
openspades:_ZNK12asCTokenizer8GetTokenEPKcmPmP13asETokenClass
openspades:_ZNK12asCTokenizer9IsCommentEPKcmRmR10eTokenType
openspades:_ZNK12asCTokenizer9IsKeyWordEPKcmRmR10eTokenType
openspades:_ZNK13CScriptHandle6EqualsEPvi
openspades:_ZNK13CScriptHandle7GetTypeEv
openspades:_ZNK13CScriptHandle9GetTypeIdEv
openspades:_ZNK13CScriptHandleeqERKS_
openspades:_ZNK13CScriptHandleneERKS_
openspades:_ZNK13asCObjectType10GetSubTypeEj
openspades:_ZNK13asCObjectType10ImplementsEPK11asITypeInfo
openspades:_ZNK13asCObjectType11DerivesFromEPK11asITypeInfo
openspades:_ZNK13asCObjectType11GetBaseTypeEv
openspades:_ZNK13asCObjectType11GetPropertyEjPPKcPiPbS4_S3_S4_Pj
openspades:_ZNK13asCObjectType11IsInterfaceEv
openspades:_ZNK13asCObjectType12GetInterfaceEj
openspades:_ZNK13asCObjectType12GetSubTypeIdEj
openspades:_ZNK13asCObjectType14GetMethodCountEv
openspades:_ZNK13asCObjectType15GetChildFuncdefEj
openspades:_ZNK13asCObjectType15GetFactoryCountEv
openspades:_ZNK13asCObjectType15GetMethodByDeclEPKcb
openspades:_ZNK13asCObjectType15GetMethodByNameEPKcb
openspades:_ZNK13asCObjectType15GetSubTypeCountEv
openspades:_ZNK13asCObjectType16GetFactoryByDeclEPKc
openspades:_ZNK13asCObjectType16GetMethodByIndexEjb
openspades:_ZNK13asCObjectType16GetPropertyCountEv
openspades:_ZNK13asCObjectType17GetBehaviourCountEv
openspades:_ZNK13asCObjectType17GetFactoryByIndexEj
openspades:_ZNK13asCObjectType17GetInterfaceCountEv
openspades:_ZNK13asCObjectType19GetBehaviourByIndexEjP13asEBehaviours
openspades:_ZNK13asCObjectType20GetChildFuncdefCountEv
openspades:_ZNK13asCObjectType22GetPropertyDeclarationEjb
openspades:_ZNK14CScriptBuilder14GetSectionNameB5cxx11Ej
openspades:_ZNK14CScriptBuilder15GetSectionCountEv
openspades:_ZNK14CScriptWeakRef10GetRefTypeEv
openspades:_ZNK14CScriptWeakRef3GetEv
openspades:_ZNK14CScriptWeakRef6EqualsEPv
openspades:_ZNK14CScriptWeakRefeqERKS_
openspades:_ZNK14CScriptWeakRefneERKS_
openspades:_ZNK14asCExprContext12IsGlobalFuncEv
openspades:_ZNK14asCExprContext13IsClassMethodEv
openspades:_ZNK14asCExprContext16IsVoidExpressionEv
openspades:_ZNK14asCExprContext8IsLambdaEv
openspades:_ZNK14asCFuncdefType13GetParentTypeEv
openspades:_ZNK14asCFuncdefType19GetFuncdefSignatureEv
openspades:_ZNK14asCSymbolTableI26sGlobalVariableDescriptionE6GetKeyEPKS0_R20asSNameSpaceNamePair
openspades:_ZNK14asCTypedefType16GetTypedefTypeIdEv
openspades:_ZNK15asCScriptEngine10ParseTokenEPKcmPj
openspades:_ZNK15asCScriptEngine11GetUserDataEm
openspades:_ZNK15asCScriptEngine12GetEnumCountEv
openspades:_ZNK15asCScriptEngine13FindNameSpaceEPKc
openspades:_ZNK15asCScriptEngine14GetEnumByIndexEj
openspades:_ZNK15asCScriptEngine14GetJITCompilerEv
openspades:_ZNK15asCScriptEngine14GetModuleCountEv
openspades:_ZNK15asCScriptEngine14IsTemplateTypeEPKc
openspades:_ZNK15asCScriptEngine15GetFuncdefCountEv
openspades:_ZNK15asCScriptEngine15GetFunctionByIdEi
openspades:_ZNK15asCScriptEngine15GetGCStatisticsEPjS0_S0_S0_S0_
openspades:_ZNK15asCScriptEngine15GetTypeIdByDeclEPKc
openspades:_ZNK15asCScriptEngine15GetTypeInfoByIdEi
openspades:_ZNK15asCScriptEngine15GetTypedefCountEv
openspades:_ZNK15asCScriptEngine16CallObjectMethodEPvP26asSSystemFunctionInterfaceP17asCScriptFunction
openspades:_ZNK15asCScriptEngine16CallObjectMethodEPvS0_P26asSSystemFunctionInterfaceP17asCScriptFunction
openspades:_ZNK15asCScriptEngine16CallObjectMethodEPvS0_i
openspades:_ZNK15asCScriptEngine16CallObjectMethodEPvi
openspades:_ZNK15asCScriptEngine16GetModuleByIndexEj
openspades:_ZNK15asCScriptEngine17GetEnginePropertyE13asEEngineProp
openspades:_ZNK15asCScriptEngine17GetFuncdefByIndexEj
openspades:_ZNK15asCScriptEngine17GetRegisteredTypeERK9asCStringP12asSNameSpace
openspades:_ZNK15asCScriptEngine17GetScriptFunctionEi
openspades:_ZNK15asCScriptEngine17GetTypeInfoByDeclEPKc
openspades:_ZNK15asCScriptEngine17GetTypeInfoByNameEPKc
openspades:_ZNK15asCScriptEngine17GetTypedefByIndexEj
openspades:_ZNK15asCScriptEngine18CallGlobalFunctionEPvS0_P26asSSystemFunctionInterfaceP17asCScriptFunction
openspades:_ZNK15asCScriptEngine18GetObjectTypeCountEv
openspades:_ZNK15asCScriptEngine18GetParentNameSpaceEP12asSNameSpace
openspades:_ZNK15asCScriptEngine18GetTypeDeclarationEib
openspades:_ZNK15asCScriptEngine19GetDefaultNamespaceEv
openspades:_ZNK15asCScriptEngine20GetObjectTypeByIndexEj
openspades:_ZNK15asCScriptEngine21GetDataTypeFromTypeIdEi
openspades:_ZNK15asCScriptEngine21GetDefaultArrayTypeIdEv
openspades:_ZNK15asCScriptEngine21GetTypeIdFromDataTypeERK11asCDataType
openspades:_ZNK15asCScriptEngine22CallObjectMethodRetIntEPvi
openspades:_ZNK15asCScriptEngine22CallObjectMethodRetPtrEPvi
openspades:_ZNK15asCScriptEngine22CallObjectMethodRetPtrEPviP17asCScriptFunction
openspades:_ZNK15asCScriptEngine22GetGlobalFunctionCountEv
openspades:_ZNK15asCScriptEngine22GetGlobalPropertyCountEv
openspades:_ZNK15asCScriptEngine22GetSizeOfPrimitiveTypeEi
openspades:_ZNK15asCScriptEngine23CallObjectMethodRetBoolEPvi
openspades:_ZNK15asCScriptEngine23GetGlobalFunctionByDeclEPKc
openspades:_ZNK15asCScriptEngine23GetObjectTypeFromTypeIdEi
openspades:_ZNK15asCScriptEngine24CallGlobalFunctionRetPtrEP26asSSystemFunctionInterfaceP17asCScriptFunction
openspades:_ZNK15asCScriptEngine24CallGlobalFunctionRetPtrEP26asSSystemFunctionInterfaceP17asCScriptFunctionPv
openspades:_ZNK15asCScriptEngine24CallGlobalFunctionRetPtrEi
openspades:_ZNK15asCScriptEngine24CallGlobalFunctionRetPtrEiPv
openspades:_ZNK15asCScriptEngine24GetGlobalFunctionByIndexEj
openspades:_ZNK15asCScriptEngine24GetGlobalPropertyByIndexEjPPKcS2_PiPbS2_PPvPj
openspades:_ZNK15asCScriptEngine25CallGlobalFunctionRetBoolEPvS0_P26asSSystemFunctionInterfaceP17asCScriptFunction
openspades:_ZNK15asCScriptEngine25FindConfigGroupForFuncDefEPK14asCFuncdefType
openspades:_ZNK15asCScriptEngine26FindConfigGroupForFunctionEi
openspades:_ZNK15asCScriptEngine26FindConfigGroupForTypeInfoEPK11asCTypeInfo
openspades:_ZNK15asCScriptEngine27FindConfigGroupForGlobalVarEi
openspades:_ZNK15asCScriptEngine28GetGlobalPropertyIndexByDeclEPKc
openspades:_ZNK15asCScriptEngine28GetGlobalPropertyIndexByNameEPKc
openspades:_ZNK15asCScriptEngine28GetStringFactoryReturnTypeIdEPj
openspades:_ZNK15asCScriptEngine28GetWeakRefFlagOfScriptObjectEPvPK11asITypeInfo
openspades:_ZNK15asCScriptEngine6AddRefEv
openspades:_ZNK15asCScriptEngine7ReleaseEv
openspades:_ZNK15asCScriptEngine8CallFreeEPv
openspades:_ZNK15asCScriptEngine9CallAllocEPK13asCObjectType
openspades:_ZNK15asCScriptObject11GetUserDataEm
openspades:_ZNK15asCScriptObject13GetObjectTypeEv
openspades:_ZNK15asCScriptObject14GetWeakRefFlagEv
openspades:_ZNK15asCScriptObject15GetPropertyNameEj
openspades:_ZNK15asCScriptObject16GetPropertyCountEv
openspades:_ZNK15asCScriptObject17GetPropertyTypeIdEj
openspades:_ZNK15asCScriptObject6AddRefEv
openspades:_ZNK15asCScriptObject7ReleaseEv
openspades:_ZNK15asCScriptObject9GetEngineEv
openspades:_ZNK15asCScriptObject9GetTypeIdEv
openspades:_ZNK16CScriptDictValue17GetAddressOfValueEv
openspades:_ZNK16CScriptDictValue3GetEP15asIScriptEnginePvi
openspades:_ZNK16CScriptDictValue3GetEP15asIScriptEngineRd
openspades:_ZNK16CScriptDictValue3GetEP15asIScriptEngineRl
openspades:_ZNK16CScriptDictValue9GetTypeIdEv
openspades:_ZNK16asCStringPointer9AddressOfEv
openspades:_ZNK16asCStringPointer9GetLengthEv
openspades:_ZNK16asCStringPointereqERKS_
openspades:_ZNK16asCStringPointerltERKS_
openspades:_ZNK17CScriptDictionary3GetERKNSt7__cxx1112basic_stringIcSt11char_traitsIcESaIcEEEPvi
openspades:_ZNK17CScriptDictionary3GetERKNSt7__cxx1112basic_stringIcSt11char_traitsIcESaIcEEERd
openspades:_ZNK17CScriptDictionary3GetERKNSt7__cxx1112basic_stringIcSt11char_traitsIcESaIcEEERl
openspades:_ZNK17CScriptDictionary3endEv
openspades:_ZNK17CScriptDictionary4findERKNSt7__cxx1112basic_stringIcSt11char_traitsIcESaIcEEE
openspades:_ZNK17CScriptDictionary5beginEv
openspades:_ZNK17CScriptDictionary6AddRefEv
openspades:_ZNK17CScriptDictionary6ExistsERKNSt7__cxx1112basic_stringIcSt11char_traitsIcESaIcEEE
openspades:_ZNK17CScriptDictionary7GetKeysEv
openspades:_ZNK17CScriptDictionary7GetSizeEv
openspades:_ZNK17CScriptDictionary7IsEmptyEv
openspades:_ZNK17CScriptDictionary7ReleaseEv
openspades:_ZNK17CScriptDictionary9CIterator17GetAddressOfValueEv
openspades:_ZNK17CScriptDictionary9CIterator6GetKeyB5cxx11Ev
openspades:_ZNK17CScriptDictionary9CIterator8GetValueEPvi
openspades:_ZNK17CScriptDictionary9CIterator8GetValueERd
openspades:_ZNK17CScriptDictionary9CIterator8GetValueERl
openspades:_ZNK17CScriptDictionary9CIterator9GetTypeIdEv
openspades:_ZNK17CScriptDictionary9CIteratoreqERKS0_
openspades:_ZNK17CScriptDictionary9CIteratorneERKS0_
openspades:_ZNK17CScriptDictionary9GetTypeIdERKNSt7__cxx1112basic_stringIcSt11char_traitsIcESaIcEEE
openspades:_ZNK17CScriptDictionaryixERKNSt7__cxx1112basic_stringIcSt11char_traitsIcESaIcEEE
openspades:_ZNK17asCGlobalProperty20GetRegisteredAddressEv
openspades:_ZNK17asCScriptFunction10GetVarDeclEjb
openspades:_ZNK17asCScriptFunction10IsOverrideEv
openspades:_ZNK17asCScriptFunction10IsReadOnlyEv
openspades:_ZNK17asCScriptFunction11GetFuncTypeEv
openspades:_ZNK17asCScriptFunction11GetUserDataEm
openspades:_ZNK17asCScriptFunction11GetVarCountEv
openspades:_ZNK17asCScriptFunction11IsProtectedEv
openspades:_ZNK17asCScriptFunction12GetAuxiliaryEv
openspades:_ZNK17asCScriptFunction12GetNamespaceEv
openspades:_ZNK17asCScriptFunction13GetAccessMaskEv
openspades:_ZNK17asCScriptFunction13GetModuleNameEv
openspades:_ZNK17asCScriptFunction13GetObjectNameEv
openspades:_ZNK17asCScriptFunction13GetObjectTypeEv
openspades:_ZNK17asCScriptFunction13GetParamCountEv
openspades:_ZNK17asCScriptFunction14GetConfigGroupEv
openspades:_ZNK17asCScriptFunction14GetDeclarationEbbb
openspades:_ZNK17asCScriptFunction15GetReturnTypeIdEPj
openspades:_ZNK17asCScriptFunction16IsSignatureEqualEPKS_
openspades:_ZNK17asCScriptFunction17DoesReturnOnStackEv
openspades:_ZNK17asCScriptFunction17GetDeclarationStrEbbb
openspades:_ZNK17asCScriptFunction17GetDelegateObjectEv
openspades:_ZNK17asCScriptFunction19GetDelegateFunctionEv
openspades:_ZNK17asCScriptFunction20FindNextLineWithCodeEi
openspades:_ZNK17asCScriptFunction20GetScriptSectionNameEv
openspades:_ZNK17asCScriptFunction21GetDelegateObjectTypeEv
openspades:_ZNK17asCScriptFunction22IsCompatibleWithTypeIdEi
openspades:_ZNK17asCScriptFunction26IsSignatureExceptNameEqualEPKS_
openspades:_ZNK17asCScriptFunction26IsSignatureExceptNameEqualERK11asCDataTypeRK8asCArrayIS0_ERKS3_I16asETypeModifiersEPK13asCObjectTypeb
openspades:_ZNK17asCScriptFunction39IsSignatureExceptNameAndObjectTypeEqualEPKS_
openspades:_ZNK17asCScriptFunction39IsSignatureExceptNameAndReturnTypeEqualEPKS_
openspades:_ZNK17asCScriptFunction39IsSignatureExceptNameAndReturnTypeEqualERK8asCArrayI11asCDataTypeERKS0_I16asETypeModifiersEPK13asCObjectTypeb
openspades:_ZNK17asCScriptFunction5GetIdEv
openspades:_ZNK17asCScriptFunction6AddRefEv
openspades:_ZNK17asCScriptFunction6GetVarEjPPKcPi
openspades:_ZNK17asCScriptFunction7GetNameEv
openspades:_ZNK17asCScriptFunction7IsFinalEv
openspades:_ZNK17asCScriptFunction7ReleaseEv
openspades:_ZNK17asCScriptFunction8GetParamEjPiPjPPKcS4_
openspades:_ZNK17asCScriptFunction8IsSharedEv
openspades:_ZNK17asCScriptFunction9GetEngineEv
openspades:_ZNK17asCScriptFunction9GetModuleEv
openspades:_ZNK17asCScriptFunction9GetTypeIdEv
openspades:_ZNK17asCScriptFunction9IsPrivateEv
openspades:_ZNK19asCGarbageCollector13GetStatisticsEPjS0_S0_S0_S0_
openspades:_ZNK21asCLockableSharedBool3GetEv
openspades:_ZNK21asCLockableSharedBool4LockEv
openspades:_ZNK21asCLockableSharedBool6AddRefEv
openspades:_ZNK21asCLockableSharedBool6UnlockEv
openspades:_ZNK21asCLockableSharedBool7ReleaseEv
openspades:_ZNK4Json17ValueIteratorBase10memberNameEv
openspades:_ZNK4Json17ValueIteratorBase15computeDistanceERKS0_
openspades:_ZNK4Json17ValueIteratorBase3keyEv
openspades:_ZNK4Json17ValueIteratorBase5derefEv
openspades:_ZNK4Json17ValueIteratorBase5indexEv
openspades:_ZNK4Json17ValueIteratorBase7isEqualERKS0_
openspades:_ZNK4Json4Path4makeERNS_5ValueE
openspades:_ZNK4Json4Path7resolveERKNS_5ValueE
openspades:_ZNK4Json4Path7resolveERKNS_5ValueES3_
openspades:_ZNK4Json5Value10getCommentB5cxx11ENS_16CommentPlacementE
openspades:_ZNK4Json5Value10hasCommentENS_16CommentPlacementE
openspades:_ZNK4Json5Value10isIntegralEv
openspades:_ZNK4Json5Value12isValidIndexEj
openspades:_ZNK4Json5Value14getMemberNamesB5cxx11Ev
openspades:_ZNK4Json5Value14toStyledStringB5cxx11Ev
openspades:_ZNK4Json5Value15isConvertibleToENS_9ValueTypeE
openspades:_ZNK4Json5Value3endEv
openspades:_ZNK4Json5Value3getEPKcRKS0_
openspades:_ZNK4Json5Value3getERKNSt7__cxx1112basic_stringIcSt11char_traitsIcESaIcEEERKS0_
openspades:_ZNK4Json5Value3getEjRKS0_
openspades:_ZNK4Json5Value4sizeEv
openspades:_ZNK4Json5Value4typeEv
openspades:_ZNK4Json5Value5asIntEv
openspades:_ZNK4Json5Value5beginEv
openspades:_ZNK4Json5Value5emptyEv
openspades:_ZNK4Json5Value5isIntEv
openspades:_ZNK4Json5Value6asBoolEv
openspades:_ZNK4Json5Value6asUIntEv
openspades:_ZNK4Json5Value6isBoolEv
openspades:_ZNK4Json5Value6isNullEv
openspades:_ZNK4Json5Value6isUIntEv
openspades:_ZNK4Json5Value7isArrayEv
openspades:_ZNK4Json5Value8CZString14isStaticStringEv
openspades:_ZNK4Json5Value8CZString5c_strEv
openspades:_ZNK4Json5Value8CZString5indexEv
openspades:_ZNK4Json5Value8CZStringeqERKS1_
openspades:_ZNK4Json5Value8CZStringltERKS1_
openspades:_ZNK4Json5Value8asDoubleEv
openspades:_ZNK4Json5Value8asStringB5cxx11Ev
openspades:_ZNK4Json5Value8isDoubleEv
openspades:_ZNK4Json5Value8isMemberEPKc
openspades:_ZNK4Json5Value8isMemberERKNSt7__cxx1112basic_stringIcSt11char_traitsIcESaIcEEE
openspades:_ZNK4Json5Value8isObjectEv
openspades:_ZNK4Json5Value8isStringEv
openspades:_ZNK4Json5Value9asCStringEv
openspades:_ZNK4Json5Value9isNumericEv
openspades:_ZNK4Json5ValueeqERKS0_
openspades:_ZNK4Json5ValuegeERKS0_
openspades:_ZNK4Json5ValuegtERKS0_
openspades:_ZNK4Json5ValueixEPKc
openspades:_ZNK4Json5ValueixERKNSt7__cxx1112basic_stringIcSt11char_traitsIcESaIcEEE
openspades:_ZNK4Json5ValueixEj
openspades:_ZNK4Json5ValueleERKS0_
openspades:_ZNK4Json5ValueltERKS0_
openspades:_ZNK4Json5ValueneERKS0_
openspades:_ZNK4Json5ValuentEv
openspades:_ZNK4Json6Reader24getFormatedErrorMessagesB5cxx11Ev
openspades:_ZNK4Json6Reader24getLocationLineAndColumnB5cxx11EPKc
openspades:_ZNK4Json6Reader24getLocationLineAndColumnEPKcRiS3_
openspades:_ZNK6spades10reflection9Backtrace8ToStringB5cxx11Ev
openspades:_ZNK6spades12StreamHandlecvPNS_7IStreamEEv
openspades:_ZNK6spades12StreamHandleptEv
openspades:_ZNK6spades13ServerAddress14GetENetAddressEv
openspades:_ZNK6spades13ServerAddress8ToStringB5cxx11Eb
openspades:_ZNK6spades19ScriptContextHandle10GetContextEv
openspades:_ZNK6spades19ScriptContextHandleptEv
openspades:_ZNK6spades20PackageUpdateManager11VersionInfo8ToStringB5cxx11Ev
openspades:_ZNK6spades20PackageUpdateManager11VersionInfoltERKS1_
openspades:_ZNK6spades4OBB313GetDistanceToERKNS_7Vector3E
openspades:_ZNK6spades4OBB315GetBoundingAABBEv
openspades:_ZNK6spades4OBB3aaERKNS_7Vector3E
openspades:_ZNK6spades5AABB3cvNS_4OBB3EEv
openspades:_ZNK6spades6client14ScoreboardView11AdjustColorENS_7Vector4Eff
openspades:_ZNK6spades6client14ScoreboardView12GetTeamScoreEi
openspades:_ZNK6spades6client14ScoreboardView14DrawSpectatorsEff
openspades:_ZNK6spades6client14ScoreboardView20areSpectatorsPresentEv
openspades:_ZNK6spades6client7MapView7ProjectERKNS_7Vector2E
openspades:_ZNK6spades7Matrix410TransposedEv
openspades:_ZNK6spades7Matrix412InversedFastEv
openspades:_ZNK6spades7Matrix47GetAxisEi
openspades:_ZNK6spades7Matrix48InversedEv
openspades:_ZNK6spades7Matrix49GetOriginEv
openspades:_ZNK6spades7Matrix4mlERKS0_
openspades:_ZNK6spades9Exception4whatEv
openspades:_ZNK7Complex13squaredLengthEv
openspades:_ZNK7Complex6get_irEv
openspades:_ZNK7Complex6get_riEv
openspades:_ZNK7Complex6lengthEv
openspades:_ZNK7ComplexdvERKS_
openspades:_ZNK7ComplexeqERKS_
openspades:_ZNK7ComplexmiERKS_
openspades:_ZNK7ComplexmlERKS_
openspades:_ZNK7ComplexneERKS_
openspades:_ZNK7ComplexplERKS_
openspades:_ZNK9asCModule11GetUserDataEm
openspades:_ZNK9asCModule12GetEnumCountEv
openspades:_ZNK9asCModule12GetGlobalVarEjPPKcS2_PiPb
openspades:_ZNK9asCModule12SaveByteCodeEP15asIBinaryStreamb
openspades:_ZNK9asCModule14GetEnumByIndexEj
openspades:_ZNK9asCModule15GetTypeIdByDeclEPKc
openspades:_ZNK9asCModule15GetTypedefCountEv
openspades:_ZNK9asCModule16GetFunctionCountEv
openspades:_ZNK9asCModule17GetFunctionByDeclEPKc
openspades:_ZNK9asCModule17GetFunctionByNameEPKc
openspades:_ZNK9asCModule17GetGlobalVarCountEv
openspades:_ZNK9asCModule17GetTypeInfoByDeclEPKc
openspades:_ZNK9asCModule17GetTypeInfoByNameEPKc
openspades:_ZNK9asCModule17GetTypedefByIndexEj
openspades:_ZNK9asCModule18GetFunctionByIndexEj
openspades:_ZNK9asCModule18GetObjectTypeCountEv
openspades:_ZNK9asCModule19GetDefaultNamespaceEv
openspades:_ZNK9asCModule19GetImportedFunctionEi
openspades:_ZNK9asCModule20GetObjectTypeByIndexEj
openspades:_ZNK9asCModule23GetGlobalVarDeclarationEjb
openspades:_ZNK9asCModule23GetGlobalVarIndexByDeclEPKc
openspades:_ZNK9asCModule23GetGlobalVarIndexByNameEPKc
openspades:_ZNK9asCModule24GetImportedFunctionCountEv
openspades:_ZNK9asCModule30GetImportedFunctionDeclarationEj
openspades:_ZNK9asCModule30GetImportedFunctionIndexByDeclEPKc
openspades:_ZNK9asCModule31GetImportedFunctionSourceModuleEj
openspades:_ZNK9asCModule7GetNameEv
openspades:_ZNK9asCModule7IsEmptyEv
openspades:_ZNK9asCModule9GetEngineEv
openspades:_ZNK9asCString7CompareEPKc
openspades:_ZNK9asCString7CompareEPKcm
openspades:_ZNK9asCString7CompareERKS_
openspades:_ZNK9asCString8FindLastEPKcPi
openspades:_ZNK9asCString9AddressOfEv
openspades:_ZNK9asCString9GetLengthEv
openspades:_ZNK9asCString9SubStringEmm
openspades:_ZNK9asCStringixEm
openspades:_ZThn16_N6spades4draw10GLRenderer14GameMapChangedEiiiPNS_6client7GameMapE
openspades:_ZThn16_N6spades4draw10SWRenderer14GameMapChangedEiiiPNS_6client7GameMapE
openspades:_ZThn8_N6spades6client6Client10MouseEventEff
openspades:_ZThn8_N6spades6client6Client10WheelEventEff
openspades:_ZThn8_N6spades6client6Client14TextInputEventERKNSt7__cxx1112basic_stringIcSt11char_traitsIcESaIcEEE
openspades:_ZThn8_N6spades6client6Client15WantsToBeClosedEv
openspades:_ZThn8_N6spades6client6Client16AcceptsTextInputEv
openspades:_ZThn8_N6spades6client6Client16GetTextInputRectEv
openspades:_ZThn8_N6spades6client6Client16TextEditingEventERKNSt7__cxx1112basic_stringIcSt11char_traitsIcESaIcEEEii
openspades:_ZThn8_N6spades6client6Client28NeedsAbsoluteMouseCoordinateEv
openspades:_ZThn8_N6spades6client6Client7ClosingEv
openspades:_ZThn8_N6spades6client6Client8KeyEventERKNSt7__cxx1112basic_stringIcSt11char_traitsIcESaIcEEEb
openspades:_ZThn8_N6spades6client6Client8RunFrameEf
openspades:_ZThn8_N6spades6client6ClientD0Ev
openspades:_ZThn8_N6spades6client6ClientD1Ev
openspades:_ZeqPKcRK9asCString
openspades:_ZeqRK9asCStringPKc
openspades:_ZeqRK9asCStringS1_
openspades:_ZltRK9asCStringS1_
openspades:_ZnePKcRK9asCString
openspades:_ZneRK9asCStringPKc
openspades:_ZneRK9asCStringS1_
openspades:_ZplPKcRK9asCString
openspades:_ZplRK9asCStringPKc
openspades:_ZplRK9asCStringS1_
openspades:__bss_start
openspades:__data_start
openspades:_edata
openspades:_end
openspades:_start
openspades:asAcquireExclusiveLock
openspades:asAcquireSharedLock
openspades:asAllocMem
openspades:asCreateLockableSharedBool
openspades:asCreateScriptEngine
openspades:asFreeMem
openspades:asGetActiveContext
openspades:asGetLibraryOptions
openspades:asGetLibraryVersion
openspades:asGetThreadManager
openspades:asPrepareMultithread
openspades:asReleaseExclusiveLock
openspades:asReleaseSharedLock
openspades:asResetGlobalMemoryFunctions
openspades:asSetGlobalMemoryFunctions
openspades:asThreadCleanup
openspades:asUnprepareMultithread
openspades:cg_alerts_desc
openspades:cg_animations_desc
openspades:cg_autoFocusSpeed_desc
openspades:cg_blood_desc
openspades:cg_centerMessage_desc
openspades:cg_chatBeep_desc
openspades:cg_chatHeight_desc
openspades:cg_debugAim_desc
openspades:cg_debugCorpse_desc
openspades:cg_debugHitTest_desc
openspades:cg_depthOfFieldAmount_desc
openspades:cg_ejectBrass_desc
openspades:cg_environmentalAudio_desc
openspades:cg_fov_desc
openspades:cg_hideHud_desc
openspades:cg_hitFeedbackSoundGain_desc
openspades:cg_hitIndicator_desc
openspades:cg_holdAimDownSight_desc
openspades:cg_invertMouseY_desc
openspades:cg_keyAltAttack_desc
openspades:cg_keyAttack_desc
openspades:cg_keyAutoFocus_desc
openspades:cg_keyCaptureColor_desc
openspades:cg_keyChangeMapScale_desc
openspades:cg_keyCrouch_desc
openspades:cg_keyFlashlight_desc
openspades:cg_keyGlobalChat_desc
openspades:cg_keyJump_desc
openspades:cg_keyLastTool_desc
openspades:cg_keyLimbo_desc
openspades:cg_keyMoveBackward_desc
openspades:cg_keyMoveForward_desc
openspades:cg_keyMoveLeft_desc
openspades:cg_keyMoveRight_desc
openspades:cg_keyPaletteDown_desc
openspades:cg_keyPaletteLeft_desc
openspades:cg_keyPaletteRight_desc
openspades:cg_keyPaletteUp_desc
openspades:cg_keyReloadWeapon_desc
openspades:cg_keySaveMap_desc
openspades:cg_keySceneshot_desc
openspades:cg_keyScoreboard_desc
openspades:cg_keyScreenshot_desc
openspades:cg_keySneak_desc
openspades:cg_keySprint_desc
openspades:cg_keyTeamChat_desc
openspades:cg_keyToggleMapZoom_desc
openspades:cg_keyToolBlock_desc
openspades:cg_keyToolGrenade_desc
openspades:cg_keyToolSpade_desc
openspades:cg_keyToolWeapon_desc
openspades:cg_keyZoomChatLog_desc
openspades:cg_killfeedHeight_desc
openspades:cg_manualFocus_desc
openspades:cg_minimapPlayerColor_desc
openspades:cg_minimapPlayerIcon_desc
openspades:cg_minimapSize_desc
openspades:cg_mouseExpPower_desc
openspades:cg_mouseSensitivity_desc
openspades:cg_particles_desc
openspades:cg_playerNameX_desc
openspades:cg_playerNameY_desc
openspades:cg_playerNames_desc
openspades:cg_ragdoll_desc
openspades:cg_screenshotFormat_desc
openspades:cg_serverAlert_desc
openspades:cg_shake_desc
openspades:cg_skipDeadPlayersWhenDead_desc
openspades:cg_stats_desc
openspades:cg_switchToolByWheel_desc
openspades:cg_thirdperson_desc
openspades:cg_unicode_desc
openspades:cg_viewWeaponX_desc
openspades:cg_viewWeaponY_desc
openspades:cg_viewWeaponZ_desc
openspades:cg_waterImpact_desc
openspades:cg_zoomedMouseSensScale_desc
openspades:cl_checkForUpdates_desc
openspades:cl_fps_desc
openspades:cl_serverListUrl_desc
openspades:cl_showStartupWindow_desc
openspades:core_jpegQuality_desc
openspades:core_locale_desc
openspades:core_numDispatchQueueThreads_desc
openspades:enet_address_get_host
openspades:enet_address_get_host_ip
openspades:enet_address_set_host
openspades:enet_crc32
openspades:enet_deinitialize
openspades:enet_free
openspades:enet_host_bandwidth_limit
openspades:enet_host_bandwidth_throttle
openspades:enet_host_broadcast
openspades:enet_host_channel_limit
openspades:enet_host_check_events
openspades:enet_host_compress
openspades:enet_host_compress_with_range_coder
openspades:enet_host_connect
openspades:enet_host_create
openspades:enet_host_destroy
openspades:enet_host_flush
openspades:enet_host_service
openspades:enet_initialize
openspades:enet_initialize_with_callbacks
openspades:enet_list_clear
openspades:enet_list_insert
openspades:enet_list_move
openspades:enet_list_remove
openspades:enet_list_size
openspades:enet_malloc
openspades:enet_packet_create
openspades:enet_packet_destroy
openspades:enet_packet_resize
openspades:enet_peer_disconnect
openspades:enet_peer_disconnect_later
openspades:enet_peer_disconnect_now
openspades:enet_peer_dispatch_incoming_reliable_commands
openspades:enet_peer_dispatch_incoming_unreliable_commands
openspades:enet_peer_ping
openspades:enet_peer_queue_acknowledgement
openspades:enet_peer_queue_incoming_command
openspades:enet_peer_queue_outgoing_command
openspades:enet_peer_receive
openspades:enet_peer_reset
openspades:enet_peer_reset_queues
openspades:enet_peer_send
openspades:enet_peer_setup_outgoing_command
openspades:enet_peer_throttle
openspades:enet_peer_throttle_configure
openspades:enet_protocol_command_size
openspades:enet_range_coder_compress
openspades:enet_range_coder_create
openspades:enet_range_coder_decompress
openspades:enet_range_coder_destroy
openspades:enet_socket_accept
openspades:enet_socket_bind
openspades:enet_socket_connect
openspades:enet_socket_create
openspades:enet_socket_destroy
openspades:enet_socket_listen
openspades:enet_socket_receive
openspades:enet_socket_send
openspades:enet_socket_set_option
openspades:enet_socket_wait
openspades:enet_socketset_select
openspades:enet_time_get
openspades:enet_time_set
openspades:fclose_file_func
openspades:ferror_file_func
openspades:fill_fopen_filefunc
openspades:fopen_file_func
openspades:fread_file_func
openspades:fseek_file_func
openspades:ftell_file_func
openspades:fwrite_file_func
openspades:isNullPointer
openspades:kiss_fft
openspades:kiss_fft_alloc
openspades:kiss_fft_cleanup
openspades:kiss_fft_next_fast_size
openspades:kiss_fft_stride
openspades:main
openspades:png_close_file
openspades:png_error_string
openspades:png_get_data
openspades:png_init
openspades:png_open
openspades:png_open_file
openspades:png_open_file_read
openspades:png_open_file_write
openspades:png_open_read
openspades:png_open_write
openspades:png_print_info
openspades:png_set_data
openspades:r_allowSoftwareRendering_desc
openspades:r_blitFramebuffer_desc
openspades:r_bloom_desc
openspades:r_cameraBlur_desc
openspades:r_colorCorrection_desc
openspades:r_corpseLineCollision_desc
openspades:r_debugTimingAverage_desc
openspades:r_debugTimingFillGap_desc
openspades:r_debugTimingFlush_desc
openspades:r_debugTimingGPUTime_desc
openspades:r_debugTimingOutputBarScale_desc
openspades:r_debugTimingOutputLog_desc
openspades:r_debugTimingOutputScreen_desc
openspades:r_debugTiming_desc
openspades:r_depthOfFieldMaxCoc_desc
openspades:r_depthOfField_desc
openspades:r_depthPrepass_desc
openspades:r_dlights_desc
openspades:r_exposureValue_desc
openspades:r_fogShadow_desc
openspades:r_fullscreen_desc
openspades:r_fxaa_desc
openspades:r_hdrAutoExposureMax_desc
openspades:r_hdrAutoExposureMin_desc
openspades:r_hdrAutoExposureSpeed_desc
openspades:r_hdrGamma_desc
openspades:r_hdr_desc
openspades:r_highPrec_desc
openspades:r_ignoreGLErrors_desc
openspades:r_lensFlareDynamic_desc
openspades:r_lensFlare_desc
openspades:r_lens_desc
openspades:r_mapSoftShadow_desc
openspades:r_maxAnisotropy_desc
openspades:r_modelShadows_desc
openspades:r_multisamples_desc
openspades:r_occlusionQuery_desc
openspades:r_optimizedVoxelModel_desc
openspades:r_physicalLighting_desc
openspades:r_radiosity_desc
openspades:r_renderer_desc
openspades:r_saturation_desc
openspades:r_shadowMapSize_desc
openspades:r_softParticles_desc
openspades:r_sparseShadowMaps_desc
openspades:r_srgb2D_desc
openspades:r_srgb_desc
openspades:r_ssao_desc
openspades:r_swNumThreads_desc
openspades:r_swStatistics_desc
openspades:r_swUndersampling_desc
openspades:r_videoHeight_desc
openspades:r_videoWidth_desc
openspades:r_vsync_desc
openspades:r_water_desc
openspades:s_alDriver_desc
openspades:s_alErrorFatal_desc
openspades:s_alPreciseErrorCheck_desc
openspades:s_audioDriver_desc
openspades:s_eax_desc
openspades:s_gain_desc
openspades:s_maxPolyphonics_desc
openspades:s_ysrBufferSize_desc
openspades:s_ysrDebug_desc
openspades:s_ysrDriver_desc
openspades:s_ysrNumThreads_desc
openspades:unzClose
openspades:unzCloseCurrentFile
openspades:unzGetCurrentFileInfo
openspades:unzGetFilePos
openspades:unzGetGlobalComment
openspades:unzGetGlobalInfo
openspades:unzGetLocalExtrafield
openspades:unzGetOffset
openspades:unzGoToFilePos
openspades:unzGoToFirstFile
openspades:unzGoToNextFile
openspades:unzLocateFile
openspades:unzOpen
openspades:unzOpen2
openspades:unzOpenCurrentFile
openspades:unzOpenCurrentFile2
openspades:unzOpenCurrentFile3
openspades:unzOpenCurrentFilePassword
openspades:unzReadCurrentFile
openspades:unzSetOffset
openspades:unzStringFileNameCompare
openspades:unz_copyright
openspades:unzeof
openspades:unztell
openspades:userAlloc
openspades:userFree
