libKF5Prison.so.5:_ZN6Prison13createBarcodeENS_11BarcodeTypeE
libKF5Prison.so.5:_ZN6Prison15AbstractBarcode14setMinimumSizeERK6QSizeF
libKF5Prison.so.5:_ZN6Prison15AbstractBarcode18setBackgroundColorERK6QColor
libKF5Prison.so.5:_ZN6Prison15AbstractBarcode18setForegroundColorERK6QColor
libKF5Prison.so.5:_ZN6Prison15AbstractBarcode7setDataERK10QByteArray
libKF5Prison.so.5:_ZN6Prison15AbstractBarcode7setDataERK7QString
libKF5Prison.so.5:_ZN6Prison15AbstractBarcode7toImageERK6QSizeF
libKF5Prison.so.5:_ZN6Prison15AbstractBarcodeC1ENS0_10DimensionsE
libKF5Prison.so.5:_ZN6Prison15AbstractBarcodeC1Ev
libKF5Prison.so.5:_ZN6Prison15AbstractBarcodeC2ENS0_10DimensionsE
libKF5Prison.so.5:_ZN6Prison15AbstractBarcodeC2Ev
libKF5Prison.so.5:_ZN6Prison15AbstractBarcodeD0Ev
libKF5Prison.so.5:_ZN6Prison15AbstractBarcodeD1Ev
libKF5Prison.so.5:_ZN6Prison15AbstractBarcodeD2Ev
libKF5Prison.so.5:_ZNK6Prison15AbstractBarcode10dimensionsEv
libKF5Prison.so.5:_ZNK6Prison15AbstractBarcode11minimumSizeEv
libKF5Prison.so.5:_ZNK6Prison15AbstractBarcode13byteArrayDataEv
libKF5Prison.so.5:_ZNK6Prison15AbstractBarcode13preferredSizeEd
libKF5Prison.so.5:_ZNK6Prison15AbstractBarcode15backgroundColorEv
libKF5Prison.so.5:_ZNK6Prison15AbstractBarcode15foregroundColorEv
libKF5Prison.so.5:_ZNK6Prison15AbstractBarcode15trueMinimumSizeEv
libKF5Prison.so.5:_ZNK6Prison15AbstractBarcode4dataEv
libKF5Prison.so.5:_ZTIN6Prison15AbstractBarcodeE
libKF5Prison.so.5:_ZTSN6Prison15AbstractBarcodeE
libKF5Prison.so.5:_ZTVN6Prison15AbstractBarcodeE
libKF5Prison.so.5:__bss_start
libKF5Prison.so.5:_edata
libKF5Prison.so.5:_end
libprisonquickplugin.so:__bss_start
libprisonquickplugin.so:_edata
libprisonquickplugin.so:_end
libprisonquickplugin.so:qt_plugin_instance
libprisonquickplugin.so:qt_plugin_query_metadata
