libaudcore.so.5:_Z10aud_resumev
libaudcore.so.5:_Z10int_to_stri
libaudcore.so.5:_Z10str_concatRKSt16initializer_listIPKcE
libaudcore.so.5:_Z10str_printfPKcz
libaudcore.so.5:_Z10str_to_intPKc
libaudcore.so.5:_Z11aud_cleanupv
libaudcore.so.5:_Z11aud_get_intPKcS0_
libaudcore.so.5:_Z11aud_get_strPKcS0_
libaudcore.so.5:_Z11aud_set_intPKcS0_i
libaudcore.so.5:_Z11aud_set_strPKcS0_S0_
libaudcore.so.5:_Z11aud_ui_showb
libaudcore.so.5:_Z11event_queuePKcPvPFvS1_E
libaudcore.so.5:_Z11str_comparePKcS0_
libaudcore.so.5:_Z11str_convertPKciS0_S0_
libaudcore.so.5:_Z11str_to_utf8O9StringBuf
libaudcore.so.5:_Z11str_to_utf8PKci
libaudcore.so.5:_Z11str_tolowerPKc
libaudcore.so.5:_Z11str_toupperPKc
libaudcore.so.5:_Z11str_vprintfPKcP13__va_list_tag
libaudcore.so.5:_Z11strcmp_safePKcS0_i
libaudcore.so.5:_Z11tiny_unlockPc
libaudcore.so.5:_Z12aud_art_dataPK10AudArtItem
libaudcore.so.5:_Z12aud_art_filePK10AudArtItem
libaudcore.so.5:_Z12aud_get_boolPKcS0_
libaudcore.so.5:_Z12aud_get_path7AudPath
libaudcore.so.5:_Z12aud_set_boolPKcS0_b
libaudcore.so.5:_Z12audio_to_intPKfPvii
libaudcore.so.5:_Z12mainloop_runv
libaudcore.so.5:_Z12timer_remove9TimerRatePFvPvES0_
libaudcore.so.5:_Z13aud_art_unrefP10AudArtItem
libaudcore.so.5:_Z13aud_drct_playv
libaudcore.so.5:_Z13aud_drct_seeki
libaudcore.so.5:_Z13aud_drct_stopv
libaudcore.so.5:_Z13aud_init_i18nv
libaudcore.so.5:_Z13audio_amplifyPfii12StereoVolume
libaudcore.so.5:_Z13audio_amplifyPfiiPKf
libaudcore.so.5:_Z13double_to_strd
libaudcore.so.5:_Z13mainloop_quitv
libaudcore.so.5:_Z13str_calc_hashPKc
libaudcore.so.5:_Z13str_to_doublePKc
libaudcore.so.5:_Z13str_to_localePKci
libaudcore.so.5:_Z13strcmp_nocasePKcS0_i
libaudcore.so.5:_Z13strstr_nocasePKcS0_
libaudcore.so.5:_Z13uri_constructPKcS0_
libaudcore.so.5:_Z14aud_drct_pausev
libaudcore.so.5:_Z14aud_get_doublePKcS0_
libaudcore.so.5:_Z14aud_leak_checkv
libaudcore.so.5:_Z14aud_set_doublePKcS0_d
libaudcore.so.5:_Z14audio_from_intPKviPfi
libaudcore.so.5:_Z14filename_buildRKSt16initializer_listIPKcE
libaudcore.so.5:_Z14hook_associatePKcPFvPvS1_ES1_
libaudcore.so.5:_Z14str_insert_intR9StringBufii
libaudcore.so.5:_Z14strlen_boundedPKci
libaudcore.so.5:_Z14tiny_lock_readPt
libaudcore.so.5:_Z14uri_get_schemePKc
libaudcore.so.5:_Z14uri_to_displayPKc
libaudcore.so.5:_Z15aud_art_requestPKciPb
libaudcore.so.5:_Z15aud_drct_pl_addPKci
libaudcore.so.5:_Z15aud_eq_get_bandi
libaudcore.so.5:_Z15aud_eq_set_bandid
libaudcore.so.5:_Z15aud_history_addPKc
libaudcore.so.5:_Z15aud_history_geti
libaudcore.so.5:_Z15aud_plugin_list10PluginType
libaudcore.so.5:_Z15aud_toggle_boolPKcS0_
libaudcore.so.5:_Z15aud_ui_is_shownv
libaudcore.so.5:_Z15audio_interlacePKPKviiPvi
libaudcore.so.5:_Z15audio_soft_clipPfi
libaudcore.so.5:_Z15filename_expandO9StringBuf
libaudcore.so.5:_Z15filename_to_uriPKc
libaudcore.so.5:_Z15hook_dissociatePKcPFvPvS1_ES1_
libaudcore.so.5:_Z15str_format_timel
libaudcore.so.5:_Z15str_from_localePKci
libaudcore.so.5:_Z15tiny_lock_writePt
libaudcore.so.5:_Z15uri_deconstructPKcS0_
libaudcore.so.5:_Z15uri_to_filenamePKcb
libaudcore.so.5:_Z16aud_drct_pl_nextv
libaudcore.so.5:_Z16aud_drct_pl_openPKc
libaudcore.so.5:_Z16aud_drct_pl_prevv
libaudcore.so.5:_Z16aud_eq_get_bandsPd
libaudcore.so.5:_Z16aud_eq_set_bandsPKd
libaudcore.so.5:_Z16aud_get_instancev
libaudcore.so.5:_Z16aud_output_reset11OutputReset
libaudcore.so.5:_Z16aud_set_instancei
libaudcore.so.5:_Z16int_array_to_strPKii
libaudcore.so.5:_Z16str_replace_charPccc
libaudcore.so.5:_Z16str_to_int_arrayPKcPii
libaudcore.so.5:_Z16str_tolower_utf8PKc
libaudcore.so.5:_Z16str_toupper_utf8PKc
libaudcore.so.5:_Z16tiny_unlock_readPt
libaudcore.so.5:_Z17aud_drct_get_infoRiS_S_
libaudcore.so.5:_Z17aud_drct_get_timev
libaudcore.so.5:_Z17aud_file_read_tagPKcP12PluginHandleR7VFSFileR5TupleP5IndexIcEP6String
libaudcore.so.5:_Z17aud_history_clearv
libaudcore.so.5:_Z17aud_plugin_enableP12PluginHandleb
libaudcore.so.5:_Z17aud_ui_show_errorPKc
libaudcore.so.5:_Z17audio_deinterlacePKviiPKPvi
libaudcore.so.5:_Z17filename_contractO9StringBuf
libaudcore.so.5:_Z17filename_get_basePKc
libaudcore.so.5:_Z17index_to_str_listRK5IndexI6StringEPKc
libaudcore.so.5:_Z17str_append_printfR9StringBufPKcz
libaudcore.so.5:_Z17str_insert_doubleR9StringBufid
libaudcore.so.5:_Z17str_list_to_indexPKcS0_
libaudcore.so.5:_Z17tiny_unlock_writePt
libaudcore.so.5:_Z17uri_get_extensionPKc
libaudcore.so.5:_Z18aud_custom_infowinPKcP12PluginHandle
libaudcore.so.5:_Z18aud_drct_get_readyv
libaudcore.so.5:_Z18aud_drct_get_titlev
libaudcore.so.5:_Z18aud_drct_get_tuplev
libaudcore.so.5:_Z18aud_visualizer_addP10Visualizer
libaudcore.so.5:_Z18event_queue_cancelPKcPv
libaudcore.so.5:_Z18filename_normalizeO9StringBuf
libaudcore.so.5:_Z18str_append_vprintfR9StringBufPKcP13__va_list_tag
libaudcore.so.5:_Z18str_decode_percentPKci
libaudcore.so.5:_Z18str_encode_percentPKci
libaudcore.so.5:_Z18strstr_nocase_utf8PKcS0_
libaudcore.so.5:_Z19aud_drct_get_lengthv
libaudcore.so.5:_Z19aud_drct_get_pausedv
libaudcore.so.5:_Z19aud_drct_get_volumev
libaudcore.so.5:_Z19aud_drct_play_pausev
libaudcore.so.5:_Z19aud_drct_set_volume12StereoVolume
libaudcore.so.5:_Z19aud_eq_apply_presetRK15EqualizerPreset
libaudcore.so.5:_Z19aud_eq_read_presetsPKc
libaudcore.so.5:_Z19aud_plugin_get_nameP12PluginHandle
libaudcore.so.5:_Z19aud_plugin_get_typeP12PluginHandle
libaudcore.so.5:_Z19aud_plugin_menu_add9AudMenuIDPFvvEPKcS3_
libaudcore.so.5:_Z19aud_request_restartv
libaudcore.so.5:_Z19double_array_to_strPKdi
libaudcore.so.5:_Z19filename_get_parentPKc
libaudcore.so.5:_Z19inifile_write_entryR7VFSFilePKcS2_
libaudcore.so.5:_Z19str_compare_encodedPKcS0_
libaudcore.so.5:_Z19str_to_double_arrayPKcPdi
libaudcore.so.5:_Z20aud_drct_get_playingv
libaudcore.so.5:_Z20aud_drct_pl_add_listO5IndexI15PlaylistAddItemEi
libaudcore.so.5:_Z20aud_eq_update_presetR15EqualizerPreset
libaudcore.so.5:_Z20aud_eq_write_presetsRK5IndexI15EqualizerPresetEPKc
libaudcore.so.5:_Z20aud_file_write_tuplePKcP12PluginHandleRK5Tuple
libaudcore.so.5:_Z20aud_load_preset_fileR15EqualizerPresetR7VFSFile
libaudcore.so.5:_Z20aud_plugin_add_watchP12PluginHandlePFbS0_PvES1_
libaudcore.so.5:_Z20aud_plugin_by_headerPKv
libaudcore.so.5:_Z20aud_plugin_has_aboutP12PluginHandle
libaudcore.so.5:_Z20aud_save_preset_fileRK15EqualizerPresetR7VFSFile
libaudcore.so.5:_Z20uri_get_display_basePKc
libaudcore.so.5:_Z21aud_drct_get_filenamev
libaudcore.so.5:_Z21aud_drct_get_positionv
libaudcore.so.5:_Z21aud_drct_pl_open_listO5IndexI15PlaylistAddItemE
libaudcore.so.5:_Z21aud_drct_pl_open_tempPKc
libaudcore.so.5:_Z21aud_file_find_decoderPKcbR7VFSFileP6String
libaudcore.so.5:_Z21aud_get_headless_modev
libaudcore.so.5:_Z21aud_get_mainloop_typev
libaudcore.so.5:_Z21aud_plugin_get_headerP12PluginHandle
libaudcore.so.5:_Z21aud_restart_requestedv
libaudcore.so.5:_Z21aud_set_headless_modeb
libaudcore.so.5:_Z21aud_set_mainloop_type12MainloopType
libaudcore.so.5:_Z21aud_ui_startup_notifyPKc
libaudcore.so.5:_Z21aud_visualizer_removeP10Visualizer
libaudcore.so.5:_Z21inifile_write_headingR7VFSFilePKc
libaudcore.so.5:_Z21str_has_prefix_nocasePKcS0_
libaudcore.so.5:_Z21str_has_suffix_nocasePKcS0_
libaudcore.so.5:_Z22aud_drct_enable_recordb
libaudcore.so.5:_Z22aud_drct_get_ab_repeatRiS_
libaudcore.so.5:_Z22aud_drct_pl_next_albumv
libaudcore.so.5:_Z22aud_drct_pl_prev_albumv
libaudcore.so.5:_Z22aud_drct_set_ab_repeatii
libaudcore.so.5:_Z22aud_plugin_get_current10PluginType
libaudcore.so.5:_Z22aud_plugin_get_enabledP12PluginHandle
libaudcore.so.5:_Z22aud_plugin_menu_remove9AudMenuIDPFvvE
libaudcore.so.5:_Z23aud_config_set_defaultsPKcPKS0_
libaudcore.so.5:_Z23aud_plugin_get_basenameP12PluginHandle
libaudcore.so.5:_Z23aud_plugin_remove_watchP12PluginHandlePFbS0_PvES1_
libaudcore.so.5:_Z23aud_plugin_send_messageP12PluginHandlePKcPKvi
libaudcore.so.5:_Z23aud_ui_hide_filebrowserv
libaudcore.so.5:_Z23aud_ui_show_filebrowserb
libaudcore.so.5:_Z24aud_drct_get_volume_mainv
libaudcore.so.5:_Z24aud_drct_set_volume_maini
libaudcore.so.5:_Z24aud_export_winamp_presetRK15EqualizerPresetR7VFSFile
libaudcore.so.5:_Z24aud_file_can_write_tuplePKcP12PluginHandle
libaudcore.so.5:_Z24aud_plugin_get_qt_widgetP12PluginHandle
libaudcore.so.5:_Z24aud_plugin_has_configureP12PluginHandle
libaudcore.so.5:_Z24aud_ui_hide_about_windowv
libaudcore.so.5:_Z24aud_ui_hide_jump_to_songv
libaudcore.so.5:_Z24aud_ui_hide_prefs_windowv
libaudcore.so.5:_Z24aud_ui_show_about_windowv
libaudcore.so.5:_Z24aud_ui_show_jump_to_songv
libaudcore.so.5:_Z24aud_ui_show_prefs_windowv
libaudcore.so.5:_Z25aud_import_winamp_presetsR7VFSFile
libaudcore.so.5:_Z25aud_plugin_get_gtk_widgetP12PluginHandle
libaudcore.so.5:_Z26aud_drct_get_record_pluginv
libaudcore.so.5:_Z26aud_drct_pl_open_temp_listO5IndexI15PlaylistAddItemE
libaudcore.so.5:_Z26aud_plugin_lookup_basenamePKc
libaudcore.so.5:_Z27aud_drct_get_record_enabledv
libaudcore.so.5:_Z27aud_drct_get_volume_balancev
libaudcore.so.5:_Z27aud_drct_set_volume_balancei
libaudcore.so.5:_Z27vfs_async_file_get_contentsPKcPFvS0_RK5IndexIcEPvES5_
libaudcore.so.5:_Z27vfs_async_file_get_contentsPKcSt8functionIFvS0_RK5IndexIcEEE
libaudcore.so.5:_Z35aud_plugin_get_supported_mime_typesv
libaudcore.so.5:_Z7aud_runv
libaudcore.so.5:_Z8aud_initv
libaudcore.so.5:_Z8aud_quitv
libaudcore.so.5:_Z8str_copyPKci
libaudcore.so.5:_Z9hook_callPKcPv
libaudcore.so.5:_Z9timer_add9TimerRatePFvPvES0_
libaudcore.so.5:_Z9tiny_lockPc
libaudcore.so.5:_Z9uri_parsePKcPS0_S1_S1_Pi
libaudcore.so.5:_ZN10QueuedFunc11inhibit_allEv
libaudcore.so.5:_ZN10QueuedFunc4stopEv
libaudcore.so.5:_ZN10QueuedFunc5queueEPFvPvES0_
libaudcore.so.5:_ZN10QueuedFunc5queueESt8functionIFvvEE
libaudcore.so.5:_ZN10QueuedFunc5queueEiPFvPvES0_
libaudcore.so.5:_ZN10QueuedFunc5queueEiSt8functionIFvvEE
libaudcore.so.5:_ZN10QueuedFunc5startEiPFvPvES0_
libaudcore.so.5:_ZN10QueuedFunc5startEiSt8functionIFvvEE
libaudcore.so.5:_ZN10Visualizer17compute_freq_bandEPKfS1_ii
libaudcore.so.5:_ZN10Visualizer18compute_log_xscaleEPfi
libaudcore.so.5:_ZN11InputPlugin10check_seekEv
libaudcore.so.5:_ZN11InputPlugin10check_stopEv
libaudcore.so.5:_ZN11InputPlugin10open_audioEiii
libaudcore.so.5:_ZN11InputPlugin11write_audioEPKvi
libaudcore.so.5:_ZN11InputPlugin15set_replay_gainERK14ReplayGainInfo
libaudcore.so.5:_ZN11InputPlugin18get_playback_tupleEv
libaudcore.so.5:_ZN11InputPlugin18set_playback_tupleEO5Tuple
libaudcore.so.5:_ZN11InputPlugin18set_stream_bitrateEi
libaudcore.so.5:_ZN11RingBufBase3addEi
libaudcore.so.5:_ZN11RingBufBase5allocEi
libaudcore.so.5:_ZN11RingBufBase6removeEi
libaudcore.so.5:_ZN11RingBufBase7copy_inEPKviPFvS1_PviE
libaudcore.so.5:_ZN11RingBufBase7destroyEPFvPviE
libaudcore.so.5:_ZN11RingBufBase7discardEiPFvPviE
libaudcore.so.5:_ZN11RingBufBase7move_inEPviPFvS0_iE
libaudcore.so.5:_ZN11RingBufBase7move_inER9IndexBaseii
libaudcore.so.5:_ZN11RingBufBase8move_outEPviPFvS0_iE
libaudcore.so.5:_ZN11RingBufBase8move_outER9IndexBaseii
libaudcore.so.5:_ZN3aud11spinlock_rw6lock_rEv
libaudcore.so.5:_ZN3aud11spinlock_rw6lock_wEv
libaudcore.so.5:_ZN3aud11spinlock_rw8unlock_rEv
libaudcore.so.5:_ZN3aud11spinlock_rw8unlock_wEv
libaudcore.so.5:_ZN3aud8spinlock4lockEv
libaudcore.so.5:_ZN3aud8spinlock6unlockEv
libaudcore.so.5:_ZN5Tuple10set_formatEPKciii
libaudcore.so.5:_ZN5Tuple12set_filenameEPKc
libaudcore.so.5:_ZN5Tuple12set_subtunesEsPKs
libaudcore.so.5:_ZN5Tuple13field_by_nameEPKc
libaudcore.so.5:_ZN5Tuple14field_get_nameENS_5FieldE
libaudcore.so.5:_ZN5Tuple14field_get_typeENS_5FieldE
libaudcore.so.5:_ZN5Tuple14generate_titleEv
libaudcore.so.5:_ZN5Tuple16delete_fallbacksEv
libaudcore.so.5:_ZN5Tuple17fetch_stream_infoER7VFSFile
libaudcore.so.5:_ZN5Tuple18generate_fallbacksEv
libaudcore.so.5:_ZN5Tuple5unsetENS_5FieldE
libaudcore.so.5:_ZN5Tuple7set_intENS_5FieldEi
libaudcore.so.5:_ZN5Tuple7set_strENS_5FieldEPKc
libaudcore.so.5:_ZN5Tuple8set_gainENS_5FieldES0_PKc
libaudcore.so.5:_ZN5Tuple9set_stateENS_5StateE
libaudcore.so.5:_ZN5TupleD1Ev
libaudcore.so.5:_ZN5TupleD2Ev
libaudcore.so.5:_ZN6String7raw_getEPKc
libaudcore.so.5:_ZN6String7raw_refEPKc
libaudcore.so.5:_ZN6String8raw_hashEPKc
libaudcore.so.5:_ZN6String9raw_equalEPKcS1_
libaudcore.so.5:_ZN6String9raw_unrefEPc
libaudcore.so.5:_ZN6audlog11unsubscribeEPFvNS_5LevelEPKciS2_S2_E
libaudcore.so.5:_ZN6audlog14get_level_nameENS_5LevelE
libaudcore.so.5:_ZN6audlog16set_stderr_levelENS_5LevelE
libaudcore.so.5:_ZN6audlog3logENS_5LevelEPKciS2_S2_z
libaudcore.so.5:_ZN6audlog9subscribeEPFvNS_5LevelEPKciS2_S2_ES0_
libaudcore.so.5:_ZN7VFSFile10write_fileEPKcPKvl
libaudcore.so.5:_ZN7VFSFile11read_folderEPKcR6String
libaudcore.so.5:_ZN7VFSFile12get_metadataEPKc
libaudcore.so.5:_ZN7VFSFile12replace_withERS_
libaudcore.so.5:_ZN7VFSFile19set_limit_to_bufferEb
libaudcore.so.5:_ZN7VFSFile21supported_uri_schemesEv
libaudcore.so.5:_ZN7VFSFile4feofEv
libaudcore.so.5:_ZN7VFSFile5freadEPvll
libaudcore.so.5:_ZN7VFSFile5fseekEl11VFSSeekType
libaudcore.so.5:_ZN7VFSFile5fsizeEv
libaudcore.so.5:_ZN7VFSFile5ftellEv
libaudcore.so.5:_ZN7VFSFile6fflushEv
libaudcore.so.5:_ZN7VFSFile6fwriteEPKvll
libaudcore.so.5:_ZN7VFSFile7tmpfileEv
libaudcore.so.5:_ZN7VFSFile8read_allEv
libaudcore.so.5:_ZN7VFSFile9copy_fromERS_l
libaudcore.so.5:_ZN7VFSFile9ftruncateEl
libaudcore.so.5:_ZN7VFSFile9read_fileEPKc14VFSReadOptions
libaudcore.so.5:_ZN7VFSFile9test_fileEPKc11VFSFileTest
libaudcore.so.5:_ZN7VFSFile9test_fileEPKc11VFSFileTestR6String
libaudcore.so.5:_ZN7VFSFileC1EPKcS1_
libaudcore.so.5:_ZN7VFSFileC2EPKcS1_
libaudcore.so.5:_ZN8HashBase3addEPNS_4NodeEj
libaudcore.so.5:_ZN8HashBase6removeERKNS_7NodeLocE
libaudcore.so.5:_ZN8HashBase7iterateEPFbPNS_4NodeEPvES2_
libaudcore.so.5:_ZN8ListBase12insert_afterEP8ListNodeS1_
libaudcore.so.5:_ZN8ListBase5clearEPFvP8ListNodeE
libaudcore.so.5:_ZN8ListBase6removeEP8ListNode
libaudcore.so.5:_ZN8Playlist11n_playlistsEv
libaudcore.so.5:_ZN8Playlist11rescan_fileEPKc
libaudcore.so.5:_ZN8Playlist12new_playlistEv
libaudcore.so.5:_ZN8Playlist12save_formatsEv
libaudcore.so.5:_ZN8Playlist14blank_playlistEv
libaudcore.so.5:_ZN8Playlist15active_playlistEv
libaudcore.so.5:_ZN8Playlist15insert_playlistEi
libaudcore.so.5:_ZN8Playlist16playing_playlistEv
libaudcore.so.5:_ZN8Playlist17reorder_playlistsEiii
libaudcore.so.5:_ZN8Playlist18temporary_playlistEv
libaudcore.so.5:_ZN8Playlist18update_pending_anyEv
libaudcore.so.5:_ZN8Playlist19add_in_progress_anyEv
libaudcore.so.5:_ZN8Playlist20filename_is_playlistEPKc
libaudcore.so.5:_ZN8Playlist20scan_in_progress_anyEv
libaudcore.so.5:_ZN8Playlist22process_pending_updateEv
libaudcore.so.5:_ZN8Playlist8by_indexEi
libaudcore.so.5:_ZN9IndexBase4sortEPFiPKvS1_PvEiS2_
libaudcore.so.5:_ZN9IndexBase5clearEPFvPviE
libaudcore.so.5:_ZN9IndexBase5eraseEiiPFvPviES2_
libaudcore.so.5:_ZN9IndexBase5shiftEiiiPFvPviES2_
libaudcore.so.5:_ZN9IndexBase6insertEPKviiPFvS1_PviE
libaudcore.so.5:_ZN9IndexBase6insertEii
libaudcore.so.5:_ZN9IndexBase6insertEiiPFvPviE
libaudcore.so.5:_ZN9IndexBase6removeEiiPFvPviE
libaudcore.so.5:_ZN9IndexBase9move_fromERS_iiibbPFvPviES3_
libaudcore.so.5:_ZN9IniParser5parseER7VFSFile
libaudcore.so.5:_ZN9MultiHash6lookupEPKvjPFPN8HashBase4NodeES1_PvEPFbS4_S5_ES5_
libaudcore.so.5:_ZN9MultiHash7iterateEPFbPN8HashBase4NodeEPvES3_
libaudcore.so.5:_ZN9MultiHash7iterateEPFbPN8HashBase4NodeEPvES3_PFvS3_ES3_
libaudcore.so.5:_ZN9StringBuf5stealEOS_
libaudcore.so.5:_ZN9StringBuf6insertEiPKci
libaudcore.so.5:_ZN9StringBuf6removeEii
libaudcore.so.5:_ZN9StringBuf6resizeEi
libaudcore.so.5:_ZN9StringBuf6settleEv
libaudcore.so.5:_ZN9StringBuf7combineEOS_
libaudcore.so.5:_ZN9StringBufD1Ev
libaudcore.so.5:_ZN9StringBufD2Ev
libaudcore.so.5:_ZNK10PlaylistEx5stampEv
libaudcore.so.5:_ZNK12WidgetConfig10get_stringEv
libaudcore.so.5:_ZNK12WidgetConfig10set_stringEPKc
libaudcore.so.5:_ZNK12WidgetConfig7get_intEv
libaudcore.so.5:_ZNK12WidgetConfig7set_intEi
libaudcore.so.5:_ZNK12WidgetConfig8get_boolEv
libaudcore.so.5:_ZNK12WidgetConfig8set_boolEb
libaudcore.so.5:_ZNK12WidgetConfig9get_floatEv
libaudcore.so.5:_ZNK12WidgetConfig9set_floatEd
libaudcore.so.5:_ZNK5Tuple14get_n_subtunesEv
libaudcore.so.5:_ZNK5Tuple14get_value_typeENS_5FieldE
libaudcore.so.5:_ZNK5Tuple15get_nth_subtuneEs
libaudcore.so.5:_ZNK5Tuple15get_replay_gainEv
libaudcore.so.5:_ZNK5Tuple15has_replay_gainEv
libaudcore.so.5:_ZNK5Tuple3refEv
libaudcore.so.5:_ZNK5Tuple5stateEv
libaudcore.so.5:_ZNK5Tuple7get_intENS_5FieldE
libaudcore.so.5:_ZNK5Tuple7get_strENS_5FieldE
libaudcore.so.5:_ZNK5TupleeqERKS_
libaudcore.so.5:_ZNK8HashBase6lookupEPFbPKNS_4NodeEPKvES4_jPNS_7NodeLocE
libaudcore.so.5:_ZNK8Playlist10n_selectedEii
libaudcore.so.5:_ZNK8Playlist10next_albumEb
libaudcore.so.5:_ZNK8Playlist10prev_albumEv
libaudcore.so.5:_ZNK8Playlist10rescan_allEv
libaudcore.so.5:_ZNK8Playlist10select_allEb
libaudcore.so.5:_ZNK8Playlist11entry_tupleEiNS_7GetModeEP6String
libaudcore.so.5:_ZNK8Playlist12get_filenameEv
libaudcore.so.5:_ZNK8Playlist12get_positionEv
libaudcore.so.5:_ZNK8Playlist12insert_entryEiPKcO5Tupleb
libaudcore.so.5:_ZNK8Playlist12insert_itemsEiO5IndexI15PlaylistAddItemEb
libaudcore.so.5:_ZNK8Playlist12queue_insertEii
libaudcore.so.5:_ZNK8Playlist12queue_removeEii
libaudcore.so.5:_ZNK8Playlist12save_to_fileEPKcNS_7GetModeE
libaudcore.so.5:_ZNK8Playlist12select_entryEib
libaudcore.so.5:_ZNK8Playlist12set_filenameEPKc
libaudcore.so.5:_ZNK8Playlist12set_positionEi
libaudcore.so.5:_ZNK8Playlist12sort_entriesENS_8SortTypeE
libaudcore.so.5:_ZNK8Playlist13entry_decoderEiNS_7GetModeEP6String
libaudcore.so.5:_ZNK8Playlist13reverse_orderEv
libaudcore.so.5:_ZNK8Playlist13shift_entriesEii
libaudcore.so.5:_ZNK8Playlist13sort_by_tupleEPFiRK5TupleS2_E
libaudcore.so.5:_ZNK8Playlist13sort_selectedENS_8SortTypeE
libaudcore.so.5:_ZNK8Playlist13update_detailEv
libaudcore.so.5:_ZNK8Playlist14cache_selectedEv
libaudcore.so.5:_ZNK8Playlist14entry_filenameEi
libaudcore.so.5:_ZNK8Playlist14entry_selectedEi
libaudcore.so.5:_ZNK8Playlist14remove_entriesEii
libaudcore.so.5:_ZNK8Playlist14start_playbackEb
libaudcore.so.5:_ZNK8Playlist14update_pendingEv
libaudcore.so.5:_ZNK8Playlist15add_in_progressEv
libaudcore.so.5:_ZNK8Playlist15insert_filteredEiO5IndexI15PlaylistAddItemEPFbPKcPvES6_b
libaudcore.so.5:_ZNK8Playlist15queue_get_entryEi
libaudcore.so.5:_ZNK8Playlist15randomize_orderEv
libaudcore.so.5:_ZNK8Playlist15remove_playlistEv
libaudcore.so.5:_ZNK8Playlist15remove_selectedEv
libaudcore.so.5:_ZNK8Playlist15rescan_selectedEv
libaudcore.so.5:_ZNK8Playlist15total_length_msEv
libaudcore.so.5:_ZNK8Playlist16queue_find_entryEi
libaudcore.so.5:_ZNK8Playlist16reverse_selectedEv
libaudcore.so.5:_ZNK8Playlist16scan_in_progressEv
libaudcore.so.5:_ZNK8Playlist16sort_by_filenameEPFiPKcS1_E
libaudcore.so.5:_ZNK8Playlist17remove_duplicatesENS_8SortTypeE
libaudcore.so.5:_ZNK8Playlist18randomize_selectedEv
libaudcore.so.5:_ZNK8Playlist18remove_unavailableEv
libaudcore.so.5:_ZNK8Playlist18select_by_patternsERK5Tuple
libaudcore.so.5:_ZNK8Playlist18selected_length_msEv
libaudcore.so.5:_ZNK8Playlist21queue_insert_selectedEi
libaudcore.so.5:_ZNK8Playlist21queue_remove_selectedEv
libaudcore.so.5:_ZNK8Playlist22sort_selected_by_tupleEPFiRK5TupleS2_E
libaudcore.so.5:_ZNK8Playlist25sort_selected_by_filenameEPFiPKcS1_E
libaudcore.so.5:_ZNK8Playlist5indexEv
libaudcore.so.5:_ZNK8Playlist8activateEv
libaudcore.so.5:_ZNK8Playlist8n_queuedEv
libaudcore.so.5:_ZNK8Playlist9get_focusEv
libaudcore.so.5:_ZNK8Playlist9get_titleEv
libaudcore.so.5:_ZNK8Playlist9n_entriesEv
libaudcore.so.5:_ZNK8Playlist9next_songEb
libaudcore.so.5:_ZNK8Playlist9prev_songEv
libaudcore.so.5:_ZNK8Playlist9set_focusEi
libaudcore.so.5:_ZNK8Playlist9set_titleEPKc
libaudcore.so.5:_ZNK9IndexBase7bsearchEPKvPFiS1_S1_PvEiS2_
libaudcore.so.5:_ZNSt17_Function_handlerIFvvEPS0_E10_M_managerERSt9_Any_dataRKS3_St18_Manager_operation
libaudcore.so.5:_ZNSt17_Function_handlerIFvvEPS0_E9_M_invokeERKSt9_Any_data
libaudcore.so.5:_ZNSt17_Function_handlerIFvvESt5_BindIFPFvPvES2_EEE10_M_managerERSt9_Any_dataRKS8_St18_Manager_operation
libaudcore.so.5:_ZNSt17_Function_handlerIFvvESt5_BindIFPFvPvES2_EEE9_M_invokeERKSt9_Any_data
libaudcore.so.5:_ZTI15TransportPlugin
libaudcore.so.5:_ZTI6Plugin
libaudcore.so.5:_ZTI7VFSImpl
libaudcore.so.5:_ZTI9IniParser
libaudcore.so.5:_ZTIFvvE
libaudcore.so.5:_ZTIPFvvE
libaudcore.so.5:_ZTISt17_Weak_result_typeIPFvPvEE
libaudcore.so.5:_ZTISt22_Weak_result_type_implIPFvPvEE
libaudcore.so.5:_ZTISt24_Weak_result_type_memfunIPFvPvELb0EE
libaudcore.so.5:_ZTISt5_BindIFPFvPvES0_EE
libaudcore.so.5:_ZTS15TransportPlugin
libaudcore.so.5:_ZTS6Plugin
libaudcore.so.5:_ZTS7VFSImpl
libaudcore.so.5:_ZTS9IniParser
libaudcore.so.5:_ZTSFvvE
libaudcore.so.5:_ZTSNSt6thread11_State_implINS_8_InvokerISt5tupleIJPFvP10QueuedDataES4_EEEEEE
libaudcore.so.5:_ZTSNSt6thread11_State_implINS_8_InvokerISt5tupleIJPFvvEEEEEEE
libaudcore.so.5:_ZTSPFvvE
libaudcore.so.5:_ZTSSt17_Weak_result_typeIPFvPvEE
libaudcore.so.5:_ZTSSt22_Weak_result_type_implIPFvPvEE
libaudcore.so.5:_ZTSSt24_Weak_result_type_memfunIPFvPvELb0EE
libaudcore.so.5:_ZTSSt5_BindIFPFvPvES0_EE
libaudcore.so.5:_ZZSt9call_onceIRFvvEJEEvRSt9once_flagOT_DpOT0_ENUlvE0_4_FUNEv
libaudqt.so.2:_ZN5audqt10InfoWidget10revertInfoEv
libaudqt.so.2:_ZN5audqt10InfoWidget10updateFileEv
libaudqt.so.2:_ZN5audqt10InfoWidget11linkEnabledEP7QWidget
libaudqt.so.2:_ZN5audqt10InfoWidget13keyPressEventEP9QKeyEvent
libaudqt.so.2:_ZN5audqt10InfoWidget8fillInfoEO5IndexI15PlaylistAddItemEb
libaudqt.so.2:_ZN5audqt10InfoWidget8fillInfoEPKcRK5TupleP12PluginHandleb
libaudqt.so.2:_ZN5audqt10InfoWidgetC1EP7QWidget
libaudqt.so.2:_ZN5audqt10InfoWidgetC2EP7QWidget
libaudqt.so.2:_ZN5audqt10InfoWidgetD0Ev
libaudqt.so.2:_ZN5audqt10InfoWidgetD1Ev
libaudqt.so.2:_ZN5audqt10InfoWidgetD2Ev
libaudqt.so.2:_ZN5audqt10menu_buildE8ArrayRefINS_8MenuItemEEPKcP7QWidget
libaudqt.so.2:_ZN5audqt11ColorButton10paintEventEP11QPaintEvent
libaudqt.so.2:_ZN5audqt11ColorButton8setColorERK6QColor
libaudqt.so.2:_ZN5audqt11ColorButtonC1EP7QWidget
libaudqt.so.2:_ZN5audqt11ColorButtonC2EP7QWidget
libaudqt.so.2:_ZN5audqt11art_requestEPKcPb
libaudqt.so.2:_ZN5audqt11art_requestEPKcjjb
libaudqt.so.2:_ZN5audqt11menu_actionERKNS_8MenuItemEPKcP7QWidget
libaudqt.so.2:_ZN5audqt11menu_removeE9AudMenuIDPFvvE
libaudqt.so.2:_ZN5audqt12clear_layoutEP7QLayout
libaudqt.so.2:_ZN5audqt12infowin_hideEv
libaudqt.so.2:_ZN5audqt12infowin_showE8Playlisti
libaudqt.so.2:_ZN5audqt12plugin_aboutEP12PluginHandle
libaudqt.so.2:_ZN5audqt12plugin_prefsEP12PluginHandle
libaudqt.so.2:_ZN5audqt13enable_layoutEP7QLayoutb
libaudqt.so.2:_ZN5audqt13menubar_buildE8ArrayRefINS_8MenuItemEEPKcP7QWidget
libaudqt.so.2:_ZN5audqt13prefswin_hideEv
libaudqt.so.2:_ZN5audqt13prefswin_showEv
libaudqt.so.2:_ZN5audqt13translate_strEPKcS1_
libaudqt.so.2:_ZN5audqt13vis_bar_colorERK6QColorii
libaudqt.so.2:_ZN5audqt14equalizer_hideEv
libaudqt.so.2:_ZN5audqt14equalizer_showEv
libaudqt.so.2:_ZN5audqt14file_entry_newEP7QWidgetPKcN11QFileDialog8FileModeENS4_10AcceptModeE
libaudqt.so.2:_ZN5audqt14font_entry_newEP7QWidgetPKc
libaudqt.so.2:_ZN5audqt14infopopup_hideEv
libaudqt.so.2:_ZN5audqt14infopopup_showE8Playlisti
libaudqt.so.2:_ZN5audqt14menu_get_by_idE9AudMenuID
libaudqt.so.2:_ZN5audqt14simple_messageEPKcS1_
libaudqt.so.2:_ZN5audqt14simple_messageEPKcS1_N11QMessageBox4IconE
libaudqt.so.2:_ZN5audqt14urlopener_showEb
libaudqt.so.2:_ZN5audqt15eq_presets_hideEv
libaudqt.so.2:_ZN5audqt15eq_presets_showEv
libaudqt.so.2:_ZN5audqt15fileopener_showENS_8FileModeE
libaudqt.so.2:_ZN5audqt15qfont_to_stringERK5QFont
libaudqt.so.2:_ZN5audqt16aboutwindow_hideEv
libaudqt.so.2:_ZN5audqt16aboutwindow_showEv
libaudqt.so.2:_ZN5audqt16dark_bg_gradientERK6QColor
libaudqt.so.2:_ZN5audqt17qfont_from_stringEPKc
libaudqt.so.2:_ZN5audqt17volume_button_newEP7QWidget
libaudqt.so.2:_ZN5audqt18file_entry_get_uriEP9QLineEdit
libaudqt.so.2:_ZN5audqt18file_entry_set_uriEP9QLineEditPKc
libaudqt.so.2:_ZN5audqt18log_inspector_hideEv
libaudqt.so.2:_ZN5audqt18log_inspector_showEv
libaudqt.so.2:_ZN5audqt18prefswin_show_pageEib
libaudqt.so.2:_ZN5audqt18queue_manager_hideEv
libaudqt.so.2:_ZN5audqt18queue_manager_showEv
libaudqt.so.2:_ZN5audqt18register_dock_hostEPNS_8DockHostE
libaudqt.so.2:_ZN5audqt19art_request_currentEjjb
libaudqt.so.2:_ZN5audqt20infowin_show_currentEv
libaudqt.so.2:_ZN5audqt20playlist_show_renameE8Playlist
libaudqt.so.2:_ZN5audqt20unregister_dock_hostEv
libaudqt.so.2:_ZN5audqt21infowin_show_selectedE8Playlist
libaudqt.so.2:_ZN5audqt21window_bring_to_frontEP7QWidget
libaudqt.so.2:_ZN5audqt22infopopup_show_currentEv
libaudqt.so.2:_ZN5audqt23playlist_confirm_deleteE8Playlist
libaudqt.so.2:_ZN5audqt25prefswin_show_plugin_pageE10PluginType
libaudqt.so.2:_ZN5audqt3runEv
libaudqt.so.2:_ZN5audqt4initEv
libaudqt.so.2:_ZN5audqt4quitEv
libaudqt.so.2:_ZN5audqt5sizesE
libaudqt.so.2:_ZN5audqt7cleanupEv
libaudqt.so.2:_ZN5audqt7marginsE
libaudqt.so.2:_ZN5audqt8DockItem10grab_focusEv
libaudqt.so.2:_ZN5audqt8DockItem14find_by_pluginEP12PluginHandle
libaudqt.so.2:_ZN5audqt8DockItemC1EPKcS2_P7QWidget
libaudqt.so.2:_ZN5audqt8DockItemC2EPKcS2_P7QWidget
libaudqt.so.2:_ZN5audqt8DockItemD0Ev
libaudqt.so.2:_ZN5audqt8DockItemD1Ev
libaudqt.so.2:_ZN5audqt8DockItemD2Ev
libaudqt.so.2:_ZN5audqt8TreeView13keyPressEventEP9QKeyEvent
libaudqt.so.2:_ZN5audqt8TreeView18removeSelectedRowsEv
libaudqt.so.2:_ZN5audqt8TreeView21mouseDoubleClickEventEP11QMouseEvent
libaudqt.so.2:_ZN5audqt8TreeView8activateERK11QModelIndex
libaudqt.so.2:_ZN5audqt8TreeViewC1EP7QWidget
libaudqt.so.2:_ZN5audqt8TreeViewC2EP7QWidget
libaudqt.so.2:_ZN5audqt8TreeViewD0Ev
libaudqt.so.2:_ZN5audqt8TreeViewD1Ev
libaudqt.so.2:_ZN5audqt8TreeViewD2Ev
libaudqt.so.2:_ZN5audqt8get_iconEPKc
libaudqt.so.2:_ZN5audqt8menu_addE9AudMenuIDPFvvEPKcS4_
libaudqt.so.2:_ZN5audqt9art_scaleERK6QImagejjb
libaudqt.so.2:_ZN5audqt9make_hboxEP7QWidgeti
libaudqt.so.2:_ZN5audqt9make_vboxEP7QWidgeti
libaudqt.so.2:_ZTIN5audqt10InfoWidgetE
libaudqt.so.2:_ZTIN5audqt11ColorButtonE
libaudqt.so.2:_ZTIN5audqt8DockItemE
libaudqt.so.2:_ZTIN5audqt8TreeViewE
libaudqt.so.2:_ZTSN5audqt10InfoWidgetE
libaudqt.so.2:_ZTSN5audqt11ColorButtonE
libaudqt.so.2:_ZTSN5audqt8DockItemE
libaudqt.so.2:_ZTSN5audqt8TreeViewE
libaudqt.so.2:_ZTVN5audqt10InfoWidgetE
libaudqt.so.2:_ZTVN5audqt11ColorButtonE
libaudqt.so.2:_ZTVN5audqt8DockItemE
libaudqt.so.2:_ZTVN5audqt8TreeViewE
libaudqt.so.2:_ZThn16_N5audqt10InfoWidgetD0Ev
libaudqt.so.2:_ZThn16_N5audqt10InfoWidgetD1Ev
libaudqt.so.2:_ZThn16_N5audqt8TreeViewD0Ev
libaudqt.so.2:_ZThn16_N5audqt8TreeViewD1Ev
libaudtag.so.3:_ZN6audtag11write_tupleER7VFSFileRK5TupleNS_7TagTypeE
libaudtag.so.3:_ZN6audtag8read_tagER7VFSFileR5TupleP5IndexIcE
