UNKNOWN:AbslInternalSpinLockWake_lts_20240116
UNKNOWN:_ZN4absl12lts_2024011612log_internal10LogMessage19CopyToEncodedBufferILNS2_10StringTypeE0EEEvSt17basic_string_viewIcSt11char_traitsIcEE
UNKNOWN:_ZN4absl12lts_2024011612log_internal17MakeCheckOpStringIPKvS4_EEPNSt7__cxx1112basic_stringIcSt11char_traitsIcESaIcEEET_T0_PKc
UNKNOWN:_ZN4absl12lts_2024011612log_internal17MakeCheckOpStringIllEEPNSt7__cxx1112basic_stringIcSt11char_traitsIcESaIcEEET_T0_PKc
UNKNOWN:_ZN6google8protobuf8internal16InternalMetadata11DoMergeFromINS0_15UnknownFieldSetEEEvRKT_
UNKNOWN:_ZN6google8protobuf8internal16InternalMetadata21DeleteOutOfLineHelperINS0_15UnknownFieldSetEEEvv
UNKNOWN:_ZN6google8protobuf8internal16InternalMetadata7DoClearINS0_15UnknownFieldSetEEEvv
libabsl_hash.so.2401.0.0:_ZN4absl12lts_2024011613hash_internal15MixingHashState16LowLevelHashImplEPKhm
libabsl_hash.so.2401.0.0:_ZN4absl12lts_2024011613hash_internal15MixingHashState28CombineLargeContiguousImpl64EmPKhm
libabsl_hash.so.2401.0.0:_ZN4absl12lts_2024011613hash_internal15MixingHashState5kSeedE
libabsl_log_internal_message.so.2401.0.0:_ZN4absl12lts_2024011612log_internal15LogMessageFatalC1EPKci
libabsl_log_internal_message.so.2401.0.0:_ZN4absl12lts_2024011612log_internal15LogMessageFatalC1EPKciSt17basic_string_viewIcSt11char_traitsIcEE
libabsl_log_internal_message.so.2401.0.0:_ZN4absl12lts_2024011612log_internal15LogMessageFatalD1Ev
libabsl_raw_hash_set.so.2401.0.0:_ZN4absl12lts_2024011618container_internal11kEmptyGroupE
libabsl_raw_hash_set.so.2401.0.0:_ZN4absl12lts_2024011618container_internal19HashSetResizeHelper35GrowSizeIntoSingleGroupTransferableERNS1_12CommonFieldsEPvm
libabsl_raw_hash_set.so.2401.0.0:_ZN4absl12lts_2024011618container_internal21ShouldInsertBackwardsEmPKNS1_6ctrl_tE
libabsl_raw_hash_set.so.2401.0.0:_ZN4absl12lts_2024011618container_internal24DropDeletesWithoutResizeERNS1_12CommonFieldsERKNS1_15PolicyFunctionsEPv
libabsl_raw_logging_internal.so.2401.0.0:_ZN4absl12lts_2024011616raw_log_internal6RawLogENS0_11LogSeverityEPKciS4_z
libabsl_spinlock_wait.so.2401.0.0:_ZN4absl12lts_2024011613base_internal12SpinLockWaitEPSt6atomicIjEiPKNS1_22SpinLockWaitTransitionENS1_14SchedulingModeE
libc.so.6:__assert_fail
libc.so.6:__cxa_atexit
libc.so.6:__libc_start_main
libc.so.6:__snprintf_chk
libc.so.6:__stack_chk_fail
libc.so.6:free
libc.so.6:isalnum
libc.so.6:isprint
libc.so.6:isupper
libc.so.6:malloc
libc.so.6:memcmp
libc.so.6:memcpy
libc.so.6:memmove
libc.so.6:memset
libc.so.6:qsort
libc.so.6:strcmp
libc.so.6:strlen
libc.so.6:tolower
libc.so.6:toupper
libgcc_s.so.1:_Unwind_Resume
libprotobuf.so.27.2.0:_ZN6google8protobuf15FieldDescriptor12TypeOnceInitEPKS1_
libprotobuf.so.27.2.0:_ZN6google8protobuf15FieldDescriptor17kTypeToCppTypeMapE
libprotobuf.so.27.2.0:_ZN6google8protobuf19FileDescriptorProtoC1EPNS0_5ArenaE
libprotobuf.so.27.2.0:_ZN6google8protobuf19FileDescriptorProtoD1Ev
libprotobuf.so.27.2.0:_ZN6google8protobuf2io19EpsCopyOutputStream19EnsureSpaceFallbackEPh
libprotobuf.so.27.2.0:_ZN6google8protobuf2io19EpsCopyOutputStream30WriteStringMaybeAliasedOutlineEjRKNSt7__cxx1112basic_stringIcSt11char_traitsIcESaIcEEEPh
libprotobuf.so.27.2.0:_ZN6google8protobuf2io7Printer7OutdentEv
libprotobuf.so.27.2.0:_ZN6google8protobuf2io7Printer9PrintImplESt17basic_string_viewIcSt11char_traitsIcEEN4absl12lts_202401164SpanIKNSt7__cxx1112basic_stringIcS5_SaIcEEEEENS2_12PrintOptionsE
libprotobuf.so.27.2.0:_ZN6google8protobuf2io7PrinterC1EPNS1_20ZeroCopyOutputStreamEcPNS1_19AnnotationCollectorE
libprotobuf.so.27.2.0:_ZN6google8protobuf30_FileOptions_default_instance_E
libprotobuf.so.27.2.0:_ZN6google8protobuf31_FieldOptions_default_instance_E
libprotobuf.so.27.2.0:_ZN6google8protobuf33_MessageOptions_default_instance_E
libprotobuf.so.27.2.0:_ZN6google8protobuf5Arena8AllocateEm
libprotobuf.so.27.2.0:_ZN6google8protobuf7Message15GetMetadataImplERKNS0_11MessageLite13ClassDataFullE
libprotobuf.so.27.2.0:_ZN6google8protobuf7Message18kDescriptorMethodsE
libprotobuf.so.27.2.0:_ZN6google8protobuf7Message21CheckTypeAndMergeFromERKNS0_11MessageLiteE
libprotobuf.so.27.2.0:_ZN6google8protobuf8internal10WireFormat37InternalSerializeUnknownFieldsToArrayERKNS0_15UnknownFieldSetEPhPNS0_2io19EpsCopyOutputStreamE
libprotobuf.so.27.2.0:_ZN6google8protobuf8internal12ExtensionSet24RegisterMessageExtensionEPKNS0_11MessageLiteEihbbS5_PFPKcS7_PNS1_12ParseContextEENS1_14LazyAnnotationE
libprotobuf.so.27.2.0:_ZN6google8protobuf8internal14AddDescriptorsEPKNS1_15DescriptorTableE
libprotobuf.so.27.2.0:_ZN6google8protobuf8internal14ArenaStringPtr14ClearToDefaultERKNS1_10LazyStringEPNS0_5ArenaE
libprotobuf.so.27.2.0:_ZN6google8protobuf8internal14ArenaStringPtr3SetIJEEEvRKNSt7__cxx1112basic_stringIcSt11char_traitsIcESaIcEEEPNS0_5ArenaE
libprotobuf.so.27.2.0:_ZN6google8protobuf8internal14ArenaStringPtr7DestroyEv
libprotobuf.so.27.2.0:_ZN6google8protobuf8internal14WireFormatLite16VerifyUtf8StringEPKciNS2_9OperationES4_
libprotobuf.so.27.2.0:_ZN6google8protobuf8internal26fixed_address_empty_stringB5cxx11E
libprotobuf.so.27.2.0:_ZN6google8protobuf8internal8TcParser15GenericFallbackEPNS0_11MessageLiteEPKcPNS1_12ParseContextENS1_11TcFieldDataEPKNS1_16TcParseTableBaseEm
libprotobuf.so.27.2.0:_ZN6google8protobuf8internal8TcParser7FastSS1EPNS0_11MessageLiteEPKcPNS1_12ParseContextENS1_11TcFieldDataEPKNS1_16TcParseTableBaseEm
libprotobuf.so.27.2.0:_ZN6google8protobuf8internal8TcParser8FastV8S1EPNS0_11MessageLiteEPKcPNS1_12ParseContextENS1_11TcFieldDataEPKNS1_16TcParseTableBaseEm
libprotobuf.so.27.2.0:_ZN6google8protobuf8internal8TcParser9MiniParseEPNS0_11MessageLiteEPKcPNS1_12ParseContextENS1_11TcFieldDataEPKNS1_16TcParseTableBaseEm
libprotobuf.so.27.2.0:_ZNK6google8protobuf10Descriptor17GetSourceLocationEPNS0_14SourceLocationE
libprotobuf.so.27.2.0:_ZNK6google8protobuf14EnumDescriptor17GetSourceLocationEPNS0_14SourceLocationE
libprotobuf.so.27.2.0:_ZNK6google8protobuf14FileDescriptor10dependencyEi
libprotobuf.so.27.2.0:_ZNK6google8protobuf14FileDescriptor6CopyToEPNS0_19FileDescriptorProtoE
libprotobuf.so.27.2.0:_ZNK6google8protobuf15FieldDescriptor12message_typeEv
libprotobuf.so.27.2.0:_ZNK6google8protobuf15FieldDescriptor17GetSourceLocationEPNS0_14SourceLocationE
libprotobuf.so.27.2.0:_ZNK6google8protobuf15FieldDescriptor18default_value_enumEv
libprotobuf.so.27.2.0:_ZNK6google8protobuf15FieldDescriptor9enum_typeEv
libprotobuf.so.27.2.0:_ZNK6google8protobuf16MethodDescriptor10input_typeEv
libprotobuf.so.27.2.0:_ZNK6google8protobuf16MethodDescriptor11output_typeEv
libprotobuf.so.27.2.0:_ZNK6google8protobuf19EnumValueDescriptor17GetSourceLocationEPNS0_14SourceLocationE
libprotobuf.so.27.2.0:_ZNK6google8protobuf7Message29MaybeComputeUnknownFieldsSizeEmPNS0_8internal10CachedSizeE
libprotobuf.so.27.2.0:_ZNK6google8protobuf8internal10LazyString4InitB5cxx11Ev
libprotobuf.so.27.2.0:_ZNK6google8protobuf8internal12ExtensionSet10GetMessageEiRKNS0_11MessageLiteE
libprotobuf.so.27.2.0:_ZNK6google8protobuf8internal15TaggedStringPtr9ForceCopyEPNS0_5ArenaE
libprotobuf.so.27.2.0:_ZTIN6google8protobuf7MessageE
libprotobuf.so.27.2.0:descriptor_table_google_2fprotobuf_2fdescriptor_2eproto
libprotoc.so.27.2.0:_ZN6google8protobuf8compiler10PluginMainEiPPcPKNS1_13CodeGeneratorE
libprotoc.so.27.2.0:_ZN6google8protobuf8compiler13CodeGeneratorD2Ev
libprotoc.so.27.2.0:_ZN6google8protobuf8compiler20CommandLineInterface17RegisterGeneratorERKNSt7__cxx1112basic_stringIcSt11char_traitsIcESaIcEEEPNS1_13CodeGeneratorESA_
libprotoc.so.27.2.0:_ZN6google8protobuf8compiler20CommandLineInterface3RunEiPKPKc
libprotoc.so.27.2.0:_ZN6google8protobuf8compiler20CommandLineInterfaceC1Ev
libprotoc.so.27.2.0:_ZN6google8protobuf8compiler20CommandLineInterfaceD1Ev
libprotoc.so.27.2.0:_ZNK6google8protobuf8compiler13CodeGenerator11GenerateAllERKSt6vectorIPKNS0_14FileDescriptorESaIS6_EERKNSt7__cxx1112basic_stringIcSt11char_traitsIcESaIcEEEPNS1_16GeneratorContextEPSG_
libprotoc.so.27.2.0:_ZTIN6google8protobuf8compiler13CodeGeneratorE
libstdc++.so.6:_ZNKSt7__cxx1112basic_stringIcSt11char_traitsIcESaIcEE12find_last_ofEPKcm
libstdc++.so.6:_ZNKSt7__cxx1112basic_stringIcSt11char_traitsIcESaIcEE13find_first_ofEPKcmm
libstdc++.so.6:_ZNKSt7__cxx1112basic_stringIcSt11char_traitsIcESaIcEE17find_first_not_ofEPKcmm
libstdc++.so.6:_ZNKSt7__cxx1112basic_stringIcSt11char_traitsIcESaIcEE4findEPKcmm
libstdc++.so.6:_ZNKSt7__cxx1112basic_stringIcSt11char_traitsIcESaIcEE4findEcm
libstdc++.so.6:_ZNKSt7__cxx1112basic_stringIcSt11char_traitsIcESaIcEE6substrEmm
libstdc++.so.6:_ZNSdD2Ev
libstdc++.so.6:_ZNSo9_M_insertIlEERSoT_
libstdc++.so.6:_ZNSo9_M_insertImEERSoT_
libstdc++.so.6:_ZNSolsEi
libstdc++.so.6:_ZNSt6localeC1Ev
libstdc++.so.6:_ZNSt6localeD1Ev
libstdc++.so.6:_ZNSt7__cxx1112basic_stringIcSt11char_traitsIcESaIcEE10_M_disposeEv
libstdc++.so.6:_ZNSt7__cxx1112basic_stringIcSt11char_traitsIcESaIcEE10_M_replaceEmmPKcm
libstdc++.so.6:_ZNSt7__cxx1112basic_stringIcSt11char_traitsIcESaIcEE12_M_constructEmc
libstdc++.so.6:_ZNSt7__cxx1112basic_stringIcSt11char_traitsIcESaIcEE7reserveEm
libstdc++.so.6:_ZNSt7__cxx1112basic_stringIcSt11char_traitsIcESaIcEE8_M_eraseEmm
libstdc++.so.6:_ZNSt7__cxx1112basic_stringIcSt11char_traitsIcESaIcEE9_M_appendEPKcm
libstdc++.so.6:_ZNSt7__cxx1112basic_stringIcSt11char_traitsIcESaIcEE9_M_assignERKS4_
libstdc++.so.6:_ZNSt7__cxx1112basic_stringIcSt11char_traitsIcESaIcEE9_M_createERmm
libstdc++.so.6:_ZNSt7__cxx1112basic_stringIcSt11char_traitsIcESaIcEE9_M_mutateEmmPKcm
libstdc++.so.6:_ZNSt7__cxx1118basic_stringstreamIcSt11char_traitsIcESaIcEED1Ev
libstdc++.so.6:_ZNSt8ios_baseC2Ev
libstdc++.so.6:_ZNSt8ios_baseD2Ev
libstdc++.so.6:_ZNSt9basic_iosIcSt11char_traitsIcEE4initEPSt15basic_streambufIcS1_E
libstdc++.so.6:_ZSt17__throw_bad_allocv
libstdc++.so.6:_ZSt18_Rb_tree_decrementPSt18_Rb_tree_node_base
libstdc++.so.6:_ZSt18_Rb_tree_incrementPSt18_Rb_tree_node_base
libstdc++.so.6:_ZSt19__throw_logic_errorPKc
libstdc++.so.6:_ZSt20__throw_length_errorPKc
libstdc++.so.6:_ZSt21ios_base_library_initv
libstdc++.so.6:_ZSt24__throw_out_of_range_fmtPKcz
libstdc++.so.6:_ZSt29_Rb_tree_insert_and_rebalancebPSt18_Rb_tree_node_baseS0_RS_
libstdc++.so.6:_ZTTNSt7__cxx1118basic_stringstreamIcSt11char_traitsIcESaIcEEE
libstdc++.so.6:_ZTVN10__cxxabiv117__class_type_infoE
libstdc++.so.6:_ZTVN10__cxxabiv120__si_class_type_infoE
libstdc++.so.6:_ZTVNSt7__cxx1115basic_stringbufIcSt11char_traitsIcESaIcEEE
libstdc++.so.6:_ZTVNSt7__cxx1118basic_stringstreamIcSt11char_traitsIcESaIcEEE
libstdc++.so.6:_ZTVSt15basic_streambufIcSt11char_traitsIcEE
libstdc++.so.6:_ZTVSt9basic_iosIcSt11char_traitsIcEE
libstdc++.so.6:_ZdaPv
libstdc++.so.6:_ZdaPvm
libstdc++.so.6:_ZdlPvm
libstdc++.so.6:_Znam
libstdc++.so.6:_Znwm
libstdc++.so.6:__cxa_begin_catch
libstdc++.so.6:__cxa_end_catch
libstdc++.so.6:__cxa_rethrow
libstdc++.so.6:__cxa_throw_bad_array_new_length
libstdc++.so.6:__gxx_personality_v0
