libmilou.so.5:_ZN5Milou10DragHelper11qt_metacallEN11QMetaObject4CallEiPPv
libmilou.so.5:_ZN5Milou10DragHelper11qt_metacastEPKc
libmilou.so.5:_ZN5Milou10DragHelper15setDragIconSizeEi
libmilou.so.5:_ZN5Milou10DragHelper16staticMetaObjectE
libmilou.so.5:_ZN5Milou10DragHelper19dragIconSizeChangedEv
libmilou.so.5:_ZN5Milou10DragHelper6doDragEP10QQuickItemP9QMimeDataRK5QIcon
libmilou.so.5:_ZN5Milou10DragHelper7droppedEv
libmilou.so.5:_ZN5Milou10DragHelper9startDragEP10QQuickItemP9QMimeDataRK5QIcon
libmilou.so.5:_ZN5Milou10DragHelper9startDragEP10QQuickItemP9QMimeDataRK7QString
libmilou.so.5:_ZN5Milou10DragHelperC1EP7QObject
libmilou.so.5:_ZN5Milou10DragHelperC2EP7QObject
libmilou.so.5:_ZN5Milou10DragHelperD0Ev
libmilou.so.5:_ZN5Milou10DragHelperD1Ev
libmilou.so.5:_ZN5Milou10DragHelperD2Ev
libmilou.so.5:_ZN5Milou11MouseHelper11qt_metacallEN11QMetaObject4CallEiPPv
libmilou.so.5:_ZN5Milou11MouseHelper11qt_metacastEPKc
libmilou.so.5:_ZN5Milou11MouseHelper16staticMetaObjectE
libmilou.so.5:_ZN5Milou11MouseHelperC1EP7QObject
libmilou.so.5:_ZN5Milou11MouseHelperC2EP7QObject
libmilou.so.5:_ZN5Milou11MouseHelperD0Ev
libmilou.so.5:_ZN5Milou11MouseHelperD1Ev
libmilou.so.5:_ZN5Milou11MouseHelperD2Ev
libmilou.so.5:_ZN5Milou12ResultsModel10resetLimitEv
libmilou.so.5:_ZN5Milou12ResultsModel11qt_metacallEN11QMetaObject4CallEiPPv
libmilou.so.5:_ZN5Milou12ResultsModel11qt_metacastEPKc
libmilou.so.5:_ZN5Milou12ResultsModel12limitChangedEv
libmilou.so.5:_ZN5Milou12ResultsModel13runnerChangedEv
libmilou.so.5:_ZN5Milou12ResultsModel14setQueryStringERK7QString
libmilou.so.5:_ZN5Milou12ResultsModel15queryingChangedEv
libmilou.so.5:_ZN5Milou12ResultsModel16staticMetaObjectE
libmilou.so.5:_ZN5Milou12ResultsModel18queryStringChangedERK7QString
libmilou.so.5:_ZN5Milou12ResultsModel26queryStringChangeRequestedERK7QStringi
libmilou.so.5:_ZN5Milou12ResultsModel3runERK11QModelIndex
libmilou.so.5:_ZN5Milou12ResultsModel5clearEv
libmilou.so.5:_ZN5Milou12ResultsModel8setLimitEi
libmilou.so.5:_ZN5Milou12ResultsModel9runActionERK11QModelIndexi
libmilou.so.5:_ZN5Milou12ResultsModel9setRunnerERK7QString
libmilou.so.5:_ZN5Milou12ResultsModelC1EP7QObject
libmilou.so.5:_ZN5Milou12ResultsModelC2EP7QObject
libmilou.so.5:_ZN5Milou12ResultsModelD0Ev
libmilou.so.5:_ZN5Milou12ResultsModelD1Ev
libmilou.so.5:_ZN5Milou12ResultsModelD2Ev
libmilou.so.5:_ZN5Milou12SourcesModel11qt_metacallEN11QMetaObject4CallEiPPv
libmilou.so.5:_ZN5Milou12SourcesModel11qt_metacastEPKc
libmilou.so.5:_ZN5Milou12SourcesModel13runnerChangedEv
libmilou.so.5:_ZN5Milou12SourcesModel13setQueryLimitEi
libmilou.so.5:_ZN5Milou12SourcesModel14setQueryStringERK7QString
libmilou.so.5:_ZN5Milou12SourcesModel14slotMatchAddedERKN6Plasma10QueryMatchE
libmilou.so.5:_ZN5Milou12SourcesModel16slotResetTimeoutEv
libmilou.so.5:_ZN5Milou12SourcesModel16staticMetaObjectE
libmilou.so.5:_ZN5Milou12SourcesModel16updateSearchTermERK7QStringi
libmilou.so.5:_ZN5Milou12SourcesModel18slotMatchesChangedERK5QListIN6Plasma10QueryMatchEE
libmilou.so.5:_ZN5Milou12SourcesModel19reloadConfigurationEv
libmilou.so.5:_ZN5Milou12SourcesModel23slotSettingsFileChangedERK7QString
libmilou.so.5:_ZN5Milou12SourcesModel3runEi
libmilou.so.5:_ZN5Milou12SourcesModel5clearEv
libmilou.so.5:_ZN5Milou12SourcesModel9runActionEii
libmilou.so.5:_ZN5Milou12SourcesModel9setRunnerERK7QString
libmilou.so.5:_ZN5Milou12SourcesModelC1EP7QObject
libmilou.so.5:_ZN5Milou12SourcesModelC2EP7QObject
libmilou.so.5:_ZN5Milou12SourcesModelD0Ev
libmilou.so.5:_ZN5Milou12SourcesModelD1Ev
libmilou.so.5:_ZN5Milou12SourcesModelD2Ev
libmilou.so.5:_ZNK5Milou10DragHelper10metaObjectEv
libmilou.so.5:_ZNK5Milou10DragHelper12dragIconSizeEv
libmilou.so.5:_ZNK5Milou10DragHelper6isDragEiiii
libmilou.so.5:_ZNK5Milou11MouseHelper10metaObjectEv
libmilou.so.5:_ZNK5Milou11MouseHelper19globalMousePositionEv
libmilou.so.5:_ZNK5Milou12ResultsModel10metaObjectEv
libmilou.so.5:_ZNK5Milou12ResultsModel10runnerIconEv
libmilou.so.5:_ZNK5Milou12ResultsModel10runnerNameEv
libmilou.so.5:_ZNK5Milou12ResultsModel11getMimeDataERK11QModelIndex
libmilou.so.5:_ZNK5Milou12ResultsModel11queryStringEv
libmilou.so.5:_ZNK5Milou12ResultsModel13runnerManagerEv
libmilou.so.5:_ZNK5Milou12ResultsModel5limitEv
libmilou.so.5:_ZNK5Milou12ResultsModel6runnerEv
libmilou.so.5:_ZNK5Milou12ResultsModel8queryingEv
libmilou.so.5:_ZNK5Milou12ResultsModel9roleNamesEv
libmilou.so.5:_ZNK5Milou12SourcesModel10fetchMatchEi
libmilou.so.5:_ZNK5Milou12SourcesModel10metaObjectEv
libmilou.so.5:_ZNK5Milou12SourcesModel10queryLimitEv
libmilou.so.5:_ZNK5Milou12SourcesModel10runnerIconEv
libmilou.so.5:_ZNK5Milou12SourcesModel10runnerNameEv
libmilou.so.5:_ZNK5Milou12SourcesModel11getMimeDataEi
libmilou.so.5:_ZNK5Milou12SourcesModel11queryStringEv
libmilou.so.5:_ZNK5Milou12SourcesModel4dataERK11QModelIndexi
libmilou.so.5:_ZNK5Milou12SourcesModel6runnerEv
libmilou.so.5:_ZNK5Milou12SourcesModel8rowCountERK11QModelIndex
libmilou.so.5:_ZNK5Milou12SourcesModel9roleNamesEv
libmilou.so.5:__bss_start
libmilou.so.5:_edata
libmilou.so.5:_end
libmilouqmlplugin.so:__bss_start
libmilouqmlplugin.so:_edata
libmilouqmlplugin.so:_end
libmilouqmlplugin.so:qt_plugin_instance
libmilouqmlplugin.so:qt_plugin_query_metadata
