aac.so:_adjust_varstring_len
aac.so:_esds_tag_written_size
aac.so:aacDecoderClose
aac.so:aacDecoderDecodeFrame
aac.so:aacDecoderInit
aac.so:aacDecoderInitRaw
aac.so:aacDecoderOpenFAAD2
aac.so:aac_load
aac.so:aac_sync
aac.so:deadbeef
aac.so:mp4_get_cover_atom
aac.so:mp4_init_ddb_file_callbacks
aac.so:mp4_load_tags
aac.so:mp4_read_metadata
aac.so:mp4_read_metadata_file
aac.so:mp4_write_metadata
aac.so:mp4p_Opus_atomdata_free
aac.so:mp4p_Opus_atomdata_read
aac.so:mp4p_Opus_atomdata_write
aac.so:mp4p_alac_atomdata_free
aac.so:mp4p_alac_atomdata_read
aac.so:mp4p_alac_atomdata_write
aac.so:mp4p_atom_append
aac.so:mp4p_atom_clone
aac.so:mp4p_atom_clone_list
aac.so:mp4p_atom_dump
aac.so:mp4p_atom_find
aac.so:mp4p_atom_free
aac.so:mp4p_atom_free_list
aac.so:mp4p_atom_init
aac.so:mp4p_atom_insert
aac.so:mp4p_atom_meta_find_custom
aac.so:mp4p_atom_new
aac.so:mp4p_atom_remove_sibling
aac.so:mp4p_atom_remove_subatom
aac.so:mp4p_atom_subatom_count
aac.so:mp4p_atom_to_buffer
aac.so:mp4p_atom_type_compare
aac.so:mp4p_atom_type_invalid
aac.so:mp4p_atom_update_size
aac.so:mp4p_chap_atomdata_free
aac.so:mp4p_chap_atomdata_read
aac.so:mp4p_chap_atomdata_write
aac.so:mp4p_chpl_atomdata_free
aac.so:mp4p_chpl_atomdata_read
aac.so:mp4p_chpl_atomdata_write
aac.so:mp4p_co64_atomdata_free
aac.so:mp4p_co64_atomdata_read
aac.so:mp4p_co64_atomdata_write
aac.so:mp4p_dOps_atomdata_free
aac.so:mp4p_dOps_atomdata_read
aac.so:mp4p_dOps_atomdata_write
aac.so:mp4p_dbg_dump_atom
aac.so:mp4p_dref_atomdata_free
aac.so:mp4p_dref_atomdata_read
aac.so:mp4p_dref_atomdata_write
aac.so:mp4p_esds_atomdata_free
aac.so:mp4p_esds_atomdata_read
aac.so:mp4p_esds_atomdata_write
aac.so:mp4p_file_close
aac.so:mp4p_file_open_read
aac.so:mp4p_file_open_readwrite
aac.so:mp4p_fourcc_compare
aac.so:mp4p_genre_index_for_name
aac.so:mp4p_genre_name_for_index
aac.so:mp4p_hdlr_atomdata_free
aac.so:mp4p_hdlr_atomdata_read
aac.so:mp4p_hdlr_atomdata_write
aac.so:mp4p_hdlr_init
aac.so:mp4p_ilst_create_custom
aac.so:mp4p_ilst_create_genre
aac.so:mp4p_ilst_create_text
aac.so:mp4p_ilst_create_track_disc
aac.so:mp4p_ilst_meta_atomdata_free
aac.so:mp4p_ilst_meta_atomdata_read
aac.so:mp4p_ilst_meta_atomdata_write
aac.so:mp4p_mdhd_atomdata_free
aac.so:mp4p_mdhd_atomdata_read
aac.so:mp4p_mdhd_atomdata_write
aac.so:mp4p_meta_atomdata_free
aac.so:mp4p_meta_atomdata_read
aac.so:mp4p_meta_atomdata_write
aac.so:mp4p_meta_create_atom
aac.so:mp4p_mp4a_atomdata_free
aac.so:mp4p_mp4a_atomdata_read
aac.so:mp4p_mp4a_atomdata_write
aac.so:mp4p_mvhd_atomdata_free
aac.so:mp4p_mvhd_atomdata_read
aac.so:mp4p_mvhd_atomdata_write
aac.so:mp4p_open
aac.so:mp4p_rebuild_positions
aac.so:mp4p_sample_offset
aac.so:mp4p_sample_size
aac.so:mp4p_smhd_atomdata_free
aac.so:mp4p_smhd_atomdata_read
aac.so:mp4p_smhd_atomdata_write
aac.so:mp4p_stco_atomdata_free
aac.so:mp4p_stco_atomdata_read
aac.so:mp4p_stco_atomdata_write
aac.so:mp4p_stsc_atomdata_free
aac.so:mp4p_stsc_atomdata_read
aac.so:mp4p_stsc_atomdata_write
aac.so:mp4p_stsd_atomdata_free
aac.so:mp4p_stsd_atomdata_read
aac.so:mp4p_stsd_atomdata_write
aac.so:mp4p_stsz_atomdata_free
aac.so:mp4p_stsz_atomdata_read
aac.so:mp4p_stsz_atomdata_write
aac.so:mp4p_stts_atomdata_free
aac.so:mp4p_stts_atomdata_read
aac.so:mp4p_stts_atomdata_write
aac.so:mp4p_stts_mp4sample_containing_sample
aac.so:mp4p_stts_sample_duration
aac.so:mp4p_stts_total_num_samples
aac.so:mp4p_stts_total_sample_duration
aac.so:mp4p_tkhd_atomdata_free
aac.so:mp4p_tkhd_atomdata_read
aac.so:mp4p_tkhd_atomdata_write
aac.so:mp4p_trak_has_chapters
aac.so:mp4p_trak_playable
aac.so:mp4p_update_metadata
aac.so:mp4tagutil_modify_meta
aac.so:read_esds_tag_size
aac.so:seek_raw_aac
aac.so:write_esds_tag_size
adplug.so:AdPlug_LogFile
adplug.so:AdPlug_LogWrite
adplug.so:LZH_decompress
adplug.so:LZSS_decompress
adplug.so:LZW_decompress
adplug.so:OPL3_Generate
adplug.so:OPL3_Generate4Ch
adplug.so:OPL3_Generate4ChResampled
adplug.so:OPL3_Generate4ChStream
adplug.so:OPL3_GenerateResampled
adplug.so:OPL3_GenerateStream
adplug.so:OPL3_Reset
adplug.so:OPL3_WriteReg
adplug.so:OPL3_WriteRegBuffered
adplug.so:OPLCreate
adplug.so:OPLDestroy
adplug.so:OPLRead
adplug.so:OPLResetChip
adplug.so:OPLSetIRQHandler
adplug.so:OPLSetTimerHandler
adplug.so:OPLSetUpdateHandler
adplug.so:OPLTimerOver
adplug.so:OPLWrite
adplug.so:SLOT7_1
adplug.so:SLOT7_2
adplug.so:SLOT8_1
adplug.so:SLOT8_2
adplug.so:YM3812UpdateOne
adplug.so:_Z10fillGD3TagP10binistreamPw
adplug.so:_Z12operator_offP15operator_struct
adplug.so:_Z14HSQ_decompressPhiS_
adplug.so:_Z14SQX_decompressPhiS_
adplug.so:_Z14operator_decayP15operator_struct
adplug.so:_Z15operator_attackP15operator_struct
adplug.so:_Z15operator_outputP15operator_structii
adplug.so:_Z16disable_operatorP15operator_structj
adplug.so:_Z16operator_advanceP15operator_structi
adplug.so:_Z16operator_releaseP15operator_struct
adplug.so:_Z16operator_sustainP15operator_struct
adplug.so:_Z22operator_advance_drumsP15operator_structiS0_iS0_i
adplug.so:_Z5isHSQPhi
adplug.so:_Z5isSQXPh
adplug.so:_Z5strupPc
adplug.so:_ZN10Ca2mLoader10getrefreshEv
adplug.so:_ZN10Ca2mLoader4loadERKNSt7__cxx1112basic_stringIcSt11char_traitsIcESaIcEEERK13CFileProvider
adplug.so:_ZN10Ca2mLoader7factoryEP4Copl
adplug.so:_ZN10CadlPlayer11getsubsongsEv
adplug.so:_ZN10CadlPlayer15playSoundEffectEth
adplug.so:_ZN10CadlPlayer4initEv
adplug.so:_ZN10CadlPlayer4loadERKNSt7__cxx1112basic_stringIcSt11char_traitsIcESaIcEEERK13CFileProvider
adplug.so:_ZN10CadlPlayer4playEth
adplug.so:_ZN10CadlPlayer6rewindEi
adplug.so:_ZN10CadlPlayer6updateEv
adplug.so:_ZN10CadlPlayer7factoryEP4Copl
adplug.so:_ZN10CadlPlayer7gettypeB5cxx11Ev
adplug.so:_ZN10CadlPlayer9playTrackEt
adplug.so:_ZN10CadlPlayerC1EP4Copl
adplug.so:_ZN10CadlPlayerC2EP4Copl
adplug.so:_ZN10CadlPlayerD0Ev
adplug.so:_ZN10CadlPlayerD1Ev
adplug.so:_ZN10CadlPlayerD2Ev
adplug.so:_ZN10CamdLoader10getrefreshEv
adplug.so:_ZN10CamdLoader4loadERKNSt7__cxx1112basic_stringIcSt11char_traitsIcESaIcEEERK13CFileProvider
adplug.so:_ZN10CamdLoader7factoryEP4Copl
adplug.so:_ZN10CbamPlayer4freqE
adplug.so:_ZN10CbamPlayer4loadERKNSt7__cxx1112basic_stringIcSt11char_traitsIcESaIcEEERK13CFileProvider
adplug.so:_ZN10CbamPlayer6rewindEi
adplug.so:_ZN10CbamPlayer6updateEv
adplug.so:_ZN10CbamPlayer7factoryEP4Copl
adplug.so:_ZN10CcffLoader12cff_unpacker10put_stringEPhm
adplug.so:_ZN10CcffLoader12cff_unpacker11start_blockEv
adplug.so:_ZN10CcffLoader12cff_unpacker12start_stringEv
adplug.so:_ZN10CcffLoader12cff_unpacker14translate_codeEmPh
adplug.so:_ZN10CcffLoader12cff_unpacker17expand_dictionaryEPh
adplug.so:_ZN10CcffLoader12cff_unpacker6unpackEPhS1_
adplug.so:_ZN10CcffLoader12cff_unpacker8get_codeEh
adplug.so:_ZN10CcffLoader13getinstrumentB5cxx11Ej
adplug.so:_ZN10CcffLoader14getinstrumentsEv
adplug.so:_ZN10CcffLoader4loadERKNSt7__cxx1112basic_stringIcSt11char_traitsIcESaIcEEERK13CFileProvider
adplug.so:_ZN10CcffLoader6rewindEi
adplug.so:_ZN10CcffLoader7factoryEP4Copl
adplug.so:_ZN10CcffLoader7gettypeB5cxx11Ev
adplug.so:_ZN10CcffLoader8gettitleB5cxx11Ev
adplug.so:_ZN10CcffLoader9getauthorB5cxx11Ev
adplug.so:_ZN10CcmfPlayer10cmfNoteOffEhhh
adplug.so:_ZN10CcmfPlayer10getrefreshEv
adplug.so:_ZN10CcmfPlayer13cmfNoteUpdateEh
adplug.so:_ZN10CcmfPlayer14MIDIcontrollerEhhh
adplug.so:_ZN10CcmfPlayer14getPercChannelEh
adplug.so:_ZN10CcmfPlayer14readMIDINumberEv
adplug.so:_ZN10CcmfPlayer20MIDIchangeInstrumentEhhh
adplug.so:_ZN10CcmfPlayer23writeInstrumentSettingsEhhhh
adplug.so:_ZN10CcmfPlayer4loadERKNSt7__cxx1112basic_stringIcSt11char_traitsIcESaIcEEERK13CFileProvider
adplug.so:_ZN10CcmfPlayer6rewindEi
adplug.so:_ZN10CcmfPlayer6updateEv
adplug.so:_ZN10CcmfPlayer7factoryEP4Copl
adplug.so:_ZN10CcmfPlayer7getFreqEhhPhPt
adplug.so:_ZN10CcmfPlayer7getdescB5cxx11Ev
adplug.so:_ZN10CcmfPlayer8gettitleB5cxx11Ev
adplug.so:_ZN10CcmfPlayer8writeOPLEhh
adplug.so:_ZN10CcmfPlayer9cmfNoteOnEhhh
adplug.so:_ZN10CcmfPlayer9getauthorB5cxx11Ev
adplug.so:_ZN10CcmfPlayerC1EP4Copl
adplug.so:_ZN10CcmfPlayerC2EP4Copl
adplug.so:_ZN10CcmfPlayerD0Ev
adplug.so:_ZN10CcmfPlayerD1Ev
adplug.so:_ZN10CcmfPlayerD2Ev
adplug.so:_ZN10Cd00Player10getrefreshEv
adplug.so:_ZN10Cd00Player11getsubsongsEv
adplug.so:_ZN10Cd00Player4loadERKNSt7__cxx1112basic_stringIcSt11char_traitsIcESaIcEEERK13CFileProvider
adplug.so:_ZN10Cd00Player6rewindEi
adplug.so:_ZN10Cd00Player6updateEv
adplug.so:_ZN10Cd00Player7factoryEP4Copl
adplug.so:_ZN10Cd00Player7gettypeB5cxx11Ev
adplug.so:_ZN10Cd00Player7setfreqEh
adplug.so:_ZN10Cd00Player7setinstEh
adplug.so:_ZN10Cd00Player7vibratoEh
adplug.so:_ZN10Cd00Player8playnoteEh
adplug.so:_ZN10Cd00Player9setvolumeEh
adplug.so:_ZN10CdfmLoader10getrefreshEv
adplug.so:_ZN10CdfmLoader4loadERKNSt7__cxx1112basic_stringIcSt11char_traitsIcESaIcEEERK13CFileProvider
adplug.so:_ZN10CdfmLoader7factoryEP4Copl
adplug.so:_ZN10CdfmLoader7gettypeB5cxx11Ev
adplug.so:_ZN10CdmoLoader12dmo_unpacker12unpack_blockEPhmS1_m
adplug.so:_ZN10CdmoLoader12dmo_unpacker5brandEt
adplug.so:_ZN10CdmoLoader12dmo_unpacker6unpackEPhmS1_m
adplug.so:_ZN10CdmoLoader12dmo_unpacker7decryptEPhm
adplug.so:_ZN10CdmoLoader4loadERKNSt7__cxx1112basic_stringIcSt11char_traitsIcESaIcEEERK13CFileProvider
adplug.so:_ZN10CdmoLoader7factoryEP4Copl
adplug.so:_ZN10CdmoLoader7gettypeB5cxx11Ev
adplug.so:_ZN10CdmoLoader9getauthorB5cxx11Ev
adplug.so:_ZN10CdroPlayer10getrefreshEv
adplug.so:_ZN10CdroPlayer4loadERKNSt7__cxx1112basic_stringIcSt11char_traitsIcESaIcEEERK13CFileProvider
adplug.so:_ZN10CdroPlayer6rewindEi
adplug.so:_ZN10CdroPlayer6updateEv
adplug.so:_ZN10CdroPlayer7factoryEP4Copl
adplug.so:_ZN10CdroPlayerC1EP4Copl
adplug.so:_ZN10CdroPlayerC2EP4Copl
adplug.so:_ZN10CdroPlayerD0Ev
adplug.so:_ZN10CdroPlayerD1Ev
adplug.so:_ZN10CdroPlayerD2Ev
adplug.so:_ZN10CdtmLoader10getrefreshEv
adplug.so:_ZN10CdtmLoader13getinstrumentB5cxx11Ej
adplug.so:_ZN10CdtmLoader14getinstrumentsEv
adplug.so:_ZN10CdtmLoader14unpack_patternEP10binistreammPvm
adplug.so:_ZN10CdtmLoader4loadERKNSt7__cxx1112basic_stringIcSt11char_traitsIcESaIcEEERK13CFileProvider
adplug.so:_ZN10CdtmLoader6rewindEi
adplug.so:_ZN10CdtmLoader7factoryEP4Copl
adplug.so:_ZN10CdtmLoader7getdescB5cxx11Ev
adplug.so:_ZN10CdtmLoader7gettypeB5cxx11Ev
adplug.so:_ZN10CdtmLoader8gettitleB5cxx11Ev
adplug.so:_ZN10CdtmLoader9getauthorB5cxx11Ev
adplug.so:_ZN10CfmcLoader10getrefreshEv
adplug.so:_ZN10CfmcLoader13getinstrumentB5cxx11Ej
adplug.so:_ZN10CfmcLoader14getinstrumentsEv
adplug.so:_ZN10CfmcLoader4loadERKNSt7__cxx1112basic_stringIcSt11char_traitsIcESaIcEEERK13CFileProvider
adplug.so:_ZN10CfmcLoader7factoryEP4Copl
adplug.so:_ZN10CfmcLoader7gettypeB5cxx11Ev
adplug.so:_ZN10CfmcLoader8gettitleB5cxx11Ev
adplug.so:_ZN10CfmcLoader9buildinstEh
adplug.so:_ZN10CgotPlayer4loadERKNSt7__cxx1112basic_stringIcSt11char_traitsIcESaIcEEERK13CFileProvider
adplug.so:_ZN10CgotPlayer6rewindEi
adplug.so:_ZN10CgotPlayer6updateEv
adplug.so:_ZN10CgotPlayer7factoryEP4Copl
adplug.so:_ZN10ChscPlayer11getpatternsEv
adplug.so:_ZN10ChscPlayer14getinstrumentsEv
adplug.so:_ZN10ChscPlayer4loadERKNSt7__cxx1112basic_stringIcSt11char_traitsIcESaIcEEERK13CFileProvider
adplug.so:_ZN10ChscPlayer6rewindEi
adplug.so:_ZN10ChscPlayer6updateEv
adplug.so:_ZN10ChscPlayer7factoryEP4Copl
adplug.so:_ZN10ChscPlayer7setfreqEht
adplug.so:_ZN10ChscPlayer8setinstrEhh
adplug.so:_ZN10ChscPlayer9getordersEv
adplug.so:_ZN10ChscPlayer9setvolumeEhii
adplug.so:_ZN10ChspLoader4loadERKNSt7__cxx1112basic_stringIcSt11char_traitsIcESaIcEEERK13CFileProvider
adplug.so:_ZN10ChspLoader7factoryEP4Copl
adplug.so:_ZN10CimfPlayer4loadERKNSt7__cxx1112basic_stringIcSt11char_traitsIcESaIcEEERK13CFileProvider
adplug.so:_ZN10CimfPlayer6rewindEi
adplug.so:_ZN10CimfPlayer6updateEv
adplug.so:_ZN10CimfPlayer7factoryEP4Copl
adplug.so:_ZN10CimfPlayer7getdescB5cxx11Ev
adplug.so:_ZN10CimfPlayer7getrateERKNSt7__cxx1112basic_stringIcSt11char_traitsIcESaIcEEERK13CFileProviderP10binistream
adplug.so:_ZN10CimfPlayer8gettitleB5cxx11Ev
adplug.so:_ZN10CjbmPlayer13opl_noteonoffEiPNS_8JBMVoiceEb
adplug.so:_ZN10CjbmPlayer18set_opl_instrumentEiPNS_8JBMVoiceE
adplug.so:_ZN10CjbmPlayer4loadERKNSt7__cxx1112basic_stringIcSt11char_traitsIcESaIcEEERK13CFileProvider
adplug.so:_ZN10CjbmPlayer6rewindEi
adplug.so:_ZN10CjbmPlayer6updateEv
adplug.so:_ZN10CjbmPlayer7factoryEP4Copl
adplug.so:_ZN10CksmPlayer13getinstrumentB5cxx11Ej
adplug.so:_ZN10CksmPlayer4loadERKNSt7__cxx1112basic_stringIcSt11char_traitsIcESaIcEEERK13CFileProvider
adplug.so:_ZN10CksmPlayer6rewindEi
adplug.so:_ZN10CksmPlayer6updateEv
adplug.so:_ZN10CksmPlayer7factoryEP4Copl
adplug.so:_ZN10CksmPlayer7setinstEihhhhhhhhhhh
adplug.so:_ZN10CksmPlayer9adlibfreqE
adplug.so:_ZN10CksmPlayer9loadinstsEP10binistream
adplug.so:_ZN10CldsPlayer4loadERKNSt7__cxx1112basic_stringIcSt11char_traitsIcESaIcEEERK13CFileProvider
adplug.so:_ZN10CldsPlayer6maxposE
adplug.so:_ZN10CldsPlayer6rewindEi
adplug.so:_ZN10CldsPlayer6updateEv
adplug.so:_ZN10CldsPlayer6vibtabE
adplug.so:_ZN10CldsPlayer7tremtabE
adplug.so:_ZN10CldsPlayer8maxsoundE
adplug.so:_ZN10CldsPlayer9frequencyE
adplug.so:_ZN10CldsPlayer9playsoundEiii
adplug.so:_ZN10CldsPlayerC1EP4Copl
adplug.so:_ZN10CldsPlayerC2EP4Copl
adplug.so:_ZN10CldsPlayerD0Ev
adplug.so:_ZN10CldsPlayerD1Ev
adplug.so:_ZN10CldsPlayerD2Ev
adplug.so:_ZN10CmadLoader10getrefreshEv
adplug.so:_ZN10CmadLoader13getinstrumentB5cxx11Ej
adplug.so:_ZN10CmadLoader14getinstrumentsEv
adplug.so:_ZN10CmadLoader4loadERKNSt7__cxx1112basic_stringIcSt11char_traitsIcESaIcEEERK13CFileProvider
adplug.so:_ZN10CmadLoader6rewindEi
adplug.so:_ZN10CmadLoader7factoryEP4Copl
adplug.so:_ZN10CmadLoader7gettypeB5cxx11Ev
adplug.so:_ZN10CmdiPlayer14executeCommandEv
adplug.so:_ZN10CmdiPlayer15frontend_rewindEi
adplug.so:_ZN10CmdiPlayer4loadERKNSt7__cxx1112basic_stringIcSt11char_traitsIcESaIcEEERK13CFileProvider
adplug.so:_ZN10CmdiPlayer6updateEv
adplug.so:_ZN10CmdiPlayer7factoryEP4Copl
adplug.so:_ZN10CmdiPlayer8SetTempoEj
adplug.so:_ZN10CmdiPlayer9GetVarValEv
adplug.so:_ZN10CmidPlayer10getrefreshEv
adplug.so:_ZN10CmidPlayer10midiprintfEPKcz
adplug.so:_ZN10CmidPlayer10readStringEPcm
adplug.so:_ZN10CmidPlayer11adlib_opaddE
adplug.so:_ZN10CmidPlayer13midi_fm_resetEv
adplug.so:_ZN10CmidPlayer14midi_fm_volumeEii
adplug.so:_ZN10CmidPlayer14percussion_mapE
adplug.so:_ZN10CmidPlayer15load_sierra_insERKNSt7__cxx1112basic_stringIcSt11char_traitsIcESaIcEEERK13CFileProvider
adplug.so:_ZN10CmidPlayer15midi_fm_endnoteEi
adplug.so:_ZN10CmidPlayer16midi_fm_playnoteEiii
adplug.so:_ZN10CmidPlayer16midi_write_adlibEjh
adplug.so:_ZN10CmidPlayer18midi_fm_instrumentEiPh
adplug.so:_ZN10CmidPlayer18midi_fm_percussionEiPh
adplug.so:_ZN10CmidPlayer19sierra_next_sectionEv
adplug.so:_ZN10CmidPlayer4loadERKNSt7__cxx1112basic_stringIcSt11char_traitsIcESaIcEEERK13CFileProvider
adplug.so:_ZN10CmidPlayer5fnumsE
adplug.so:_ZN10CmidPlayer6getvalEv
adplug.so:_ZN10CmidPlayer6rewindEi
adplug.so:_ZN10CmidPlayer6updateEv
adplug.so:_ZN10CmidPlayer7factoryEP4Copl
adplug.so:_ZN10CmidPlayer7getnextEm
adplug.so:_ZN10CmidPlayer7gettypeB5cxx11Ev
adplug.so:_ZN10CmidPlayer8datalookEm
adplug.so:_ZN10CmidPlayer8getnextiEm
adplug.so:_ZN10CmidPlayer8map_chanE
adplug.so:_ZN10CmidPlayerC1EP4Copl
adplug.so:_ZN10CmidPlayerC2EP4Copl
adplug.so:_ZN10CmkjPlayer10getrefreshEv
adplug.so:_ZN10CmkjPlayer4loadERKNSt7__cxx1112basic_stringIcSt11char_traitsIcESaIcEEERK13CFileProvider
adplug.so:_ZN10CmkjPlayer6rewindEi
adplug.so:_ZN10CmkjPlayer6updateEv
adplug.so:_ZN10CmkjPlayer7factoryEP4Copl
adplug.so:_ZN10CmodPlayer10getrefreshEv
adplug.so:_ZN10CmodPlayer10slide_downEhi
adplug.so:_ZN10CmodPlayer10vibratotabE
adplug.so:_ZN10CmodPlayer10vol_up_altEhi
adplug.so:_ZN10CmodPlayer12set_opl_chipEh
adplug.so:_ZN10CmodPlayer12vol_down_altEhi
adplug.so:_ZN10CmodPlayer13init_trackordEv
adplug.so:_ZN10CmodPlayer13realloc_orderEm
adplug.so:_ZN10CmodPlayer13resolve_orderEv
adplug.so:_ZN10CmodPlayer13sa2_notetableE
adplug.so:_ZN10CmodPlayer13setvolume_altEh
adplug.so:_ZN10CmodPlayer14init_notetableEPKt
adplug.so:_ZN10CmodPlayer15init_specialarpEv
adplug.so:_ZN10CmodPlayer15tone_portamentoEhh
adplug.so:_ZN10CmodPlayer16dealloc_patternsEv
adplug.so:_ZN10CmodPlayer16realloc_patternsEmmm
adplug.so:_ZN10CmodPlayer19realloc_instrumentsEm
adplug.so:_ZN10CmodPlayer6rewindEi
adplug.so:_ZN10CmodPlayer6updateEv
adplug.so:_ZN10CmodPlayer6vol_upEhi
adplug.so:_ZN10CmodPlayer7deallocEv
adplug.so:_ZN10CmodPlayer7setfreqEh
adplug.so:_ZN10CmodPlayer7setnoteEhi
adplug.so:_ZN10CmodPlayer7vibratoEhhh
adplug.so:_ZN10CmodPlayer8playnoteEh
adplug.so:_ZN10CmodPlayer8slide_upEhi
adplug.so:_ZN10CmodPlayer8vol_downEhi
adplug.so:_ZN10CmodPlayer9setvolumeEh
adplug.so:_ZN10CmodPlayerC2EP4Copl
adplug.so:_ZN10CmodPlayerD0Ev
adplug.so:_ZN10CmodPlayerD1Ev
adplug.so:_ZN10CmodPlayerD2Ev
adplug.so:_ZN10CmscPlayer10getrefreshEv
adplug.so:_ZN10CmscPlayer11load_headerEP10binistreamPNS_10msc_headerE
adplug.so:_ZN10CmscPlayer12decode_octetEPh
adplug.so:_ZN10CmscPlayer13msc_signatureE
adplug.so:_ZN10CmscPlayer4loadERKNSt7__cxx1112basic_stringIcSt11char_traitsIcESaIcEEERK13CFileProvider
adplug.so:_ZN10CmscPlayer6rewindEi
adplug.so:_ZN10CmscPlayer6updateEv
adplug.so:_ZN10CmscPlayer7factoryEP4Copl
adplug.so:_ZN10CmscPlayer7gettypeB5cxx11Ev
adplug.so:_ZN10CmscPlayerC1EP4Copl
adplug.so:_ZN10CmscPlayerC2EP4Copl
adplug.so:_ZN10CmscPlayerD0Ev
adplug.so:_ZN10CmscPlayerD1Ev
adplug.so:_ZN10CmscPlayerD2Ev
adplug.so:_ZN10CmtkLoader4loadERKNSt7__cxx1112basic_stringIcSt11char_traitsIcESaIcEEERK13CFileProvider
adplug.so:_ZN10CmtkLoader7factoryEP4Copl
adplug.so:_ZN10CmtrLoader10getrefreshEv
adplug.so:_ZN10CmtrLoader13getinstrumentB5cxx11Ej
adplug.so:_ZN10CmtrLoader14getinstrumentsEv
adplug.so:_ZN10CmtrLoader4loadERKNSt7__cxx1112basic_stringIcSt11char_traitsIcESaIcEEERK13CFileProvider
adplug.so:_ZN10CmtrLoader7factoryEP4Copl
adplug.so:_ZN10CmtrLoader7gettypeB5cxx11Ev
adplug.so:_ZN10CmtrLoader8gettitleB5cxx11Ev
adplug.so:_ZN10CmusPlayer11InstsLoadedEv
adplug.so:_ZN10CmusPlayer14LoadTimbreBankENSt7__cxx1112basic_stringIcSt11char_traitsIcESaIcEEERK13CFileProvider
adplug.so:_ZN10CmusPlayer14executeCommandEv
adplug.so:_ZN10CmusPlayer15FetchTimbreDataENSt7__cxx1112basic_stringIcSt11char_traitsIcESaIcEEERK13CFileProvider
adplug.so:_ZN10CmusPlayer15frontend_rewindEi
adplug.so:_ZN10CmusPlayer4loadERKNSt7__cxx1112basic_stringIcSt11char_traitsIcESaIcEEERK13CFileProvider
adplug.so:_ZN10CmusPlayer6updateEv
adplug.so:_ZN10CmusPlayer7factoryEP4Copl
adplug.so:_ZN10CmusPlayer7gettypeB5cxx11Ev
adplug.so:_ZN10CmusPlayer8GetTicksEv
adplug.so:_ZN10CmusPlayer8SetTempoEth
adplug.so:_ZN10CpisPlayer10getrefreshEv
adplug.so:_ZN10CpisPlayer10unpack_rowEv
adplug.so:_ZN10CpisPlayer11advance_rowEv
adplug.so:_ZN10CpisPlayer11load_moduleEP10binistreamPNS_9PisModuleE
adplug.so:_ZN10CpisPlayer12load_patternEPjP10binistream
adplug.so:_ZN10CpisPlayer12opl_note_offEi
adplug.so:_ZN10CpisPlayer12replay_voiceEi
adplug.so:_ZN10CpisPlayer13opl_set_pitchEiii
adplug.so:_ZN10CpisPlayer15frequency_tableE
adplug.so:_ZN10CpisPlayer15load_instrumentEPNS_13PisInstrumentEP10binistream
adplug.so:_ZN10CpisPlayer15replay_set_noteEiPNS_13PisVoiceStateEPNS_14PisRowUnpackedE
adplug.so:_ZN10CpisPlayer16replay_set_levelEiiii
adplug.so:_ZN10CpisPlayer17init_replay_stateEPNS_14PisReplayStateE
adplug.so:_ZN10CpisPlayer18opl_set_instrumentEiPNS_13PisInstrumentE
adplug.so:_ZN10CpisPlayer18replay_handle_loopEiPNS_14PisRowUnpackedE
adplug.so:_ZN10CpisPlayer19replay_handle_speedEiPNS_14PisRowUnpackedE
adplug.so:_ZN10CpisPlayer20replay_frame_routineEv
adplug.so:_ZN10CpisPlayer20replay_handle_effectEiPNS_13PisVoiceStateEPNS_14PisRowUnpackedE
adplug.so:_ZN10CpisPlayer20replay_handle_posjmpEiPNS_14PisRowUnpackedE
adplug.so:_ZN10CpisPlayer21replay_set_instrumentEii
adplug.so:_ZN10CpisPlayer22replay_handle_arpeggioEiPNS_13PisVoiceStateEPNS_14PisRowUnpackedE
adplug.so:_ZN10CpisPlayer22replay_handle_ptnbreakEiPNS_14PisRowUnpackedE
adplug.so:_ZN10CpisPlayer25replay_handle_exx_commandEiPNS_13PisVoiceStateEPNS_14PisRowUnpackedE
adplug.so:_ZN10CpisPlayer26replay_handle_volume_slideEiPNS_13PisVoiceStateEPNS_14PisRowUnpackedE
adplug.so:_ZN10CpisPlayer26replay_set_voice_volatilesEiiii
adplug.so:_ZN10CpisPlayer27replay_do_per_frame_effectsEv
adplug.so:_ZN10CpisPlayer30replay_do_per_frame_portamentoEiPNS_13PisVoiceStateE
adplug.so:_ZN10CpisPlayer31opl_voice_offset_into_registersE
adplug.so:_ZN10CpisPlayer31replay_enter_row_with_note_onlyEiPNS_13PisVoiceStateEPNS_14PisRowUnpackedE
adplug.so:_ZN10CpisPlayer32replay_enter_row_with_portamentoEiPNS_13PisVoiceStateEPNS_14PisRowUnpackedE
adplug.so:_ZN10CpisPlayer37replay_enter_row_with_instrument_onlyEiPNS_13PisVoiceStateEPNS_14PisRowUnpackedE
adplug.so:_ZN10CpisPlayer41replay_enter_row_with_instrument_and_noteEiPNS_13PisVoiceStateEPNS_14PisRowUnpackedE
adplug.so:_ZN10CpisPlayer42replay_enter_row_with_possibly_effect_onlyEiPNS_13PisVoiceStateEPNS_14PisRowUnpackedE
adplug.so:_ZN10CpisPlayer4loadERKNSt7__cxx1112basic_stringIcSt11char_traitsIcESaIcEEERK13CFileProvider
adplug.so:_ZN10CpisPlayer6oploutEii
adplug.so:_ZN10CpisPlayer6rewindEi
adplug.so:_ZN10CpisPlayer6updateEv
adplug.so:_ZN10CpisPlayer7factoryEP4Copl
adplug.so:_ZN10CrawPlayer10getrefreshEv
adplug.so:_ZN10CrawPlayer4loadERKNSt7__cxx1112basic_stringIcSt11char_traitsIcESaIcEEERK13CFileProvider
adplug.so:_ZN10CrawPlayer6rewindEi
adplug.so:_ZN10CrawPlayer6updateEv
adplug.so:_ZN10CrawPlayer7factoryEP4Copl
adplug.so:_ZN10CrixPlayer10ad_C0_offsE
adplug.so:_ZN10CrixPlayer10getrefreshEv
adplug.so:_ZN10CrixPlayer10getsubsongEv
adplug.so:_ZN10CrixPlayer11bd_reg_dataE
adplug.so:_ZN10CrixPlayer11getsubsongsEv
adplug.so:_ZN10CrixPlayer4loadERKNSt7__cxx1112basic_stringIcSt11char_traitsIcESaIcEEERK13CFileProvider
adplug.so:_ZN10CrixPlayer6adflagE
adplug.so:_ZN10CrixPlayer6modifyE
adplug.so:_ZN10CrixPlayer6rewindEi
adplug.so:_ZN10CrixPlayer6updateEv
adplug.so:_ZN10CrixPlayer7factoryEP4Copl
adplug.so:_ZN10CrixPlayer8mus_timeE
adplug.so:_ZN10CrixPlayer8reg_dataE
adplug.so:_ZN10CrixPlayerC1EP4Copl
adplug.so:_ZN10CrixPlayerC2EP4Copl
adplug.so:_ZN10CrixPlayerD0Ev
adplug.so:_ZN10CrixPlayerD1Ev
adplug.so:_ZN10CrixPlayerD2Ev
adplug.so:_ZN10CrolPlayer10SetRefreshEf
adplug.so:_ZN10CrolPlayer10getrefreshEv
adplug.so:_ZN10CrolPlayer11UpdateVoiceEiRNS_10CVoiceDataE
adplug.so:_ZN10CrolPlayer12kMaxTickBeatE
adplug.so:_ZN10CrolPlayer15frontend_rewindEi
adplug.so:_ZN10CrolPlayer15load_voice_dataEP10binistreamRKNSt7__cxx1112basic_stringIcSt11char_traitsIcESaIcEEERK13CFileProvider
adplug.so:_ZN10CrolPlayer16load_note_eventsEP10binistreamRNS_10CVoiceDataE
adplug.so:_ZN10CrolPlayer17kDefaultUpdateTmeE
adplug.so:_ZN10CrolPlayer17load_pitch_eventsEP10binistreamRNS_10CVoiceDataE
adplug.so:_ZN10CrolPlayer17load_tempo_eventsEP10binistream
adplug.so:_ZN10CrolPlayer18load_volume_eventsEP10binistreamRNS_10CVoiceDataE
adplug.so:_ZN10CrolPlayer22load_instrument_eventsEP10binistreamRNS_10CVoiceDataES1_RKN16CcomposerBackend10SBnkHeaderE
adplug.so:_ZN10CrolPlayer4loadERKNSt7__cxx1112basic_stringIcSt11char_traitsIcESaIcEEERK13CFileProvider
adplug.so:_ZN10CrolPlayer6updateEv
adplug.so:_ZN10CrolPlayer7factoryEP4Copl
adplug.so:_ZN10CrolPlayer8SetPitchEif
adplug.so:_ZN10CrolPlayerC1EP4Copl
adplug.so:_ZN10CrolPlayerC2EP4Copl
adplug.so:_ZN10CrolPlayerD0Ev
adplug.so:_ZN10CrolPlayerD1Ev
adplug.so:_ZN10CrolPlayerD2Ev
adplug.so:_ZN10Cs3mPlayer10getrefreshEv
adplug.so:_ZN10Cs3mPlayer10slide_downEhh
adplug.so:_ZN10Cs3mPlayer12load_patternEiP10binistreamm
adplug.so:_ZN10Cs3mPlayer15tone_portamentoEhh
adplug.so:_ZN10Cs3mPlayer4loadERKNSt7__cxx1112basic_stringIcSt11char_traitsIcESaIcEEERK13CFileProvider
adplug.so:_ZN10Cs3mPlayer6rewindEi
adplug.so:_ZN10Cs3mPlayer6updateEv
adplug.so:_ZN10Cs3mPlayer7factoryEP4Copl
adplug.so:_ZN10Cs3mPlayer7gettypeB5cxx11Ev
adplug.so:_ZN10Cs3mPlayer7setfreqEh
adplug.so:_ZN10Cs3mPlayer7vibratoEhh
adplug.so:_ZN10Cs3mPlayer8playnoteEh
adplug.so:_ZN10Cs3mPlayer8slide_upEhh
adplug.so:_ZN10Cs3mPlayer9setvolumeEh
adplug.so:_ZN10Cs3mPlayerC1EP4Copl
adplug.so:_ZN10Cs3mPlayerC2EP4Copl
adplug.so:_ZN10Csa2Loader4loadERKNSt7__cxx1112basic_stringIcSt11char_traitsIcESaIcEEERK13CFileProvider
adplug.so:_ZN10Csa2Loader7factoryEP4Copl
adplug.so:_ZN10Csa2Loader7gettypeB5cxx11Ev
adplug.so:_ZN10Csa2Loader8gettitleB5cxx11Ev
adplug.so:_ZN10CsngPlayer4loadERKNSt7__cxx1112basic_stringIcSt11char_traitsIcESaIcEEERK13CFileProvider
adplug.so:_ZN10CsngPlayer6rewindEi
adplug.so:_ZN10CsngPlayer6updateEv
adplug.so:_ZN10CsngPlayer7factoryEP4Copl
adplug.so:_ZN10CsopPlayer14executeCommandEh
adplug.so:_ZN10CsopPlayer4loadERKNSt7__cxx1112basic_stringIcSt11char_traitsIcESaIcEEERK13CFileProvider
adplug.so:_ZN10CsopPlayer6rewindEi
adplug.so:_ZN10CsopPlayer6updateEv
adplug.so:_ZN10CsopPlayer7factoryEP4Copl
adplug.so:_ZN10CsopPlayer8SetTempoEh
adplug.so:_ZN10Cu6mPlayer10command_81Ev
adplug.so:_ZN10Cu6mPlayer10command_82Ev
adplug.so:_ZN10Cu6mPlayer10command_83Ev
adplug.so:_ZN10Cu6mPlayer10command_85Ev
adplug.so:_ZN10Cu6mPlayer10command_86Ev
adplug.so:_ZN10Cu6mPlayer10freq_slideEi
adplug.so:_ZN10Cu6mPlayer10get_stringEiRNS_6MyDictERSt5stackIhSt5dequeIhSaIhEEE
adplug.so:_ZN10Cu6mPlayer10getrefreshEv
adplug.so:_ZN10Cu6mPlayer11output_rootEhRNS_10data_blockERm
adplug.so:_ZN10Cu6mPlayer12command_loopEv
adplug.so:_ZN10Cu6mPlayer14lzw_decompressENS_10data_blockES0_
adplug.so:_ZN10Cu6mPlayer14read_song_byteEv
adplug.so:_ZN10Cu6mPlayer14set_adlib_freqEiNS_9byte_pairE
adplug.so:_ZN10Cu6mPlayer14set_carrier_mfEih
adplug.so:_ZN10Cu6mPlayer16expand_freq_byteEh
adplug.so:_ZN10Cu6mPlayer16out_adlib_opcellEibhh
adplug.so:_ZN10Cu6mPlayer16set_modulator_mfEih
adplug.so:_ZN10Cu6mPlayer17get_next_codewordERmRNS_10data_blockEi
adplug.so:_ZN10Cu6mPlayer21read_signed_song_byteEv
adplug.so:_ZN10Cu6mPlayer24set_adlib_freq_no_updateEiNS_9byte_pairE
adplug.so:_ZN10Cu6mPlayer4loadERKNSt7__cxx1112basic_stringIcSt11char_traitsIcESaIcEEERK13CFileProvider
adplug.so:_ZN10Cu6mPlayer6MyDict12get_codewordEi
adplug.so:_ZN10Cu6mPlayer6MyDict3addEhi
adplug.so:_ZN10Cu6mPlayer6MyDict5resetEv
adplug.so:_ZN10Cu6mPlayer6MyDict8get_rootEi
adplug.so:_ZN10Cu6mPlayer6MyDictC1Ei
adplug.so:_ZN10Cu6mPlayer6MyDictC1Ev
adplug.so:_ZN10Cu6mPlayer6MyDictC2Ei
adplug.so:_ZN10Cu6mPlayer6MyDictC2Ev
adplug.so:_ZN10Cu6mPlayer6MyDictD1Ev
adplug.so:_ZN10Cu6mPlayer6MyDictD2Ev
adplug.so:_ZN10Cu6mPlayer6rewindEi
adplug.so:_ZN10Cu6mPlayer6updateEv
adplug.so:_ZN10Cu6mPlayer7factoryEP4Copl
adplug.so:_ZN10Cu6mPlayer7vibratoEi
adplug.so:_ZN10Cu6mPlayer8dec_clipERi
adplug.so:_ZN10Cu6mPlayer8mf_slideEi
adplug.so:_ZN10Cu6mPlayer9command_0Ei
adplug.so:_ZN10Cu6mPlayer9command_1Ei
adplug.so:_ZN10Cu6mPlayer9command_2Ei
adplug.so:_ZN10Cu6mPlayer9command_3Ei
adplug.so:_ZN10Cu6mPlayer9command_4Ei
adplug.so:_ZN10Cu6mPlayer9command_5Ei
adplug.so:_ZN10Cu6mPlayer9command_6Ei
adplug.so:_ZN10Cu6mPlayer9command_7Ei
adplug.so:_ZN10Cu6mPlayer9command_EEv
adplug.so:_ZN10Cu6mPlayer9command_FEv
adplug.so:_ZN10Cu6mPlayer9out_adlibEhh
adplug.so:_ZN10CvgmPlayer10getrefreshEv
adplug.so:_ZN10CvgmPlayer4loadERKNSt7__cxx1112basic_stringIcSt11char_traitsIcESaIcEEERK13CFileProvider
adplug.so:_ZN10CvgmPlayer6rewindEi
adplug.so:_ZN10CvgmPlayer6updateEv
adplug.so:_ZN10CvgmPlayer7factoryEP4Copl
adplug.so:_ZN10CvgmPlayer7getdescB5cxx11Ev
adplug.so:_ZN10CvgmPlayer7gettypeB5cxx11Ev
adplug.so:_ZN10CvgmPlayer8gettitleB5cxx11Ev
adplug.so:_ZN10CvgmPlayer9getauthorB5cxx11Ev
adplug.so:_ZN10CxadPlayer10getrefreshEv
adplug.so:_ZN10CxadPlayer13getinstrumentB5cxx11Ej
adplug.so:_ZN10CxadPlayer14getinstrumentsEv
adplug.so:_ZN10CxadPlayer4loadERKNSt7__cxx1112basic_stringIcSt11char_traitsIcESaIcEEERK13CFileProvider
adplug.so:_ZN10CxadPlayer6rewindEi
adplug.so:_ZN10CxadPlayer6updateEv
adplug.so:_ZN10CxadPlayer7gettypeB5cxx11Ev
adplug.so:_ZN10CxadPlayer8getspeedEv
adplug.so:_ZN10CxadPlayer8gettitleB5cxx11Ev
adplug.so:_ZN10CxadPlayer9getauthorB5cxx11Ev
adplug.so:_ZN10CxadPlayer9opl_writeEii
adplug.so:_ZN10CxadPlayerC2EP4Copl
adplug.so:_ZN10CxadPlayerD0Ev
adplug.so:_ZN10CxadPlayerD1Ev
adplug.so:_ZN10CxadPlayerD2Ev
adplug.so:_ZN10CxsmPlayer10getrefreshEv
adplug.so:_ZN10CxsmPlayer4loadERKNSt7__cxx1112basic_stringIcSt11char_traitsIcESaIcEEERK13CFileProvider
adplug.so:_ZN10CxsmPlayer6rewindEi
adplug.so:_ZN10CxsmPlayer6updateEv
adplug.so:_ZN10CxsmPlayer9play_noteEiii
adplug.so:_ZN10CxsmPlayerC1EP4Copl
adplug.so:_ZN10CxsmPlayerC2EP4Copl
adplug.so:_ZN10CxsmPlayerD0Ev
adplug.so:_ZN10CxsmPlayerD1Ev
adplug.so:_ZN10CxsmPlayerD2Ev
adplug.so:_ZN10binfstream4openEPKci
adplug.so:_ZN10binfstream4openERKNSt7__cxx1112basic_stringIcSt11char_traitsIcESaIcEEEi
adplug.so:_ZN10binfstreamC1EPKci
adplug.so:_ZN10binfstreamC1ERKNSt7__cxx1112basic_stringIcSt11char_traitsIcESaIcEEEi
adplug.so:_ZN10binfstreamC1Ev
adplug.so:_ZN10binfstreamC2EPKci
adplug.so:_ZN10binfstreamC2ERKNSt7__cxx1112basic_stringIcSt11char_traitsIcESaIcEEEi
adplug.so:_ZN10binfstreamC2Ev
adplug.so:_ZN10binfstreamD0Ev
adplug.so:_ZN10binfstreamD1Ev
adplug.so:_ZN10binfstreamD2Ev
adplug.so:_ZN10binistream10readStringB5cxx11Ec
adplug.so:_ZN10binistream10readStringEPcm
adplug.so:_ZN10binistream10readStringEPcmc
adplug.so:_ZN10binistream17ieee_double2floatEPh
adplug.so:_ZN10binistream17ieee_single2floatEPh
adplug.so:_ZN10binistream5ateofEv
adplug.so:_ZN10binistream6ignoreEm
adplug.so:_ZN10binistream7peekIntEj
adplug.so:_ZN10binistream7readBufEPci
adplug.so:_ZN10binistream7readIntEj
adplug.so:_ZN10binistream9peekFloatEN5binio5FTypeE
adplug.so:_ZN10binistream9readFloatEN5binio5FTypeE
adplug.so:_ZN10binistreamC2Ev
adplug.so:_ZN10binistreamD0Ev
adplug.so:_ZN10binistreamD1Ev
adplug.so:_ZN10binistreamD2Ev
adplug.so:_ZN10binostream10writeFloatEeN5binio5FTypeE
adplug.so:_ZN10binostream11writeStringEPKcm
adplug.so:_ZN10binostream11writeStringERKNSt7__cxx1112basic_stringIcSt11char_traitsIcESaIcEEE
adplug.so:_ZN10binostream17float2ieee_doubleEePh
adplug.so:_ZN10binostream17float2ieee_singleEePh
adplug.so:_ZN10binostream8writeIntExj
adplug.so:_ZN10binostreamC2Ev
adplug.so:_ZN10binostreamD0Ev
adplug.so:_ZN10binostreamD1Ev
adplug.so:_ZN10binostreamD2Ev
adplug.so:_ZN10binsstreamC1EPvm
adplug.so:_ZN10binsstreamC2EPvm
adplug.so:_ZN10binsstreamD0Ev
adplug.so:_ZN10binsstreamD1Ev
adplug.so:_ZN10binsstreamD2Ev
adplug.so:_ZN10binwstream3posEv
adplug.so:_ZN10binwstream4seekElN5binio6OffsetE
adplug.so:_ZN10binwstream7getByteEv
adplug.so:_ZN10binwstream7putByteEh
adplug.so:_ZN10binwstreamC2EPSd
adplug.so:_ZN10binwstreamD0Ev
adplug.so:_ZN10binwstreamD1Ev
adplug.so:_ZN10binwstreamD2Ev
adplug.so:_ZN11AdLibDriver10_freqTableE
adplug.so:_ZN11AdLibDriver10_regOffsetE
adplug.so:_ZN11AdLibDriver10_unkTable2E
adplug.so:_ZN11AdLibDriver10initDriverEv
adplug.so:_ZN11AdLibDriver10startSoundEii
adplug.so:_ZN11AdLibDriver10update_nopERNS_7ChannelEPKh
adplug.so:_ZN11AdLibDriver11getRandomNrEv
adplug.so:_ZN11AdLibDriver11initChannelERNS_7ChannelE
adplug.so:_ZN11AdLibDriver11update_jumpERNS_7ChannelEPKh
adplug.so:_ZN11AdLibDriver12_unkTable2_1E
adplug.so:_ZN11AdLibDriver12_unkTable2_2E
adplug.so:_ZN11AdLibDriver12_unkTable2_3E
adplug.so:_ZN11AdLibDriver12adjustVolumeERNS_7ChannelE
adplug.so:_ZN11AdLibDriver12setSoundDataEPhj
adplug.so:_ZN11AdLibDriver13adjustSfxDataEPhi
adplug.so:_ZN11AdLibDriver13setupDurationEhRNS_7ChannelE
adplug.so:_ZN11AdLibDriver13setupProgramsEv
adplug.so:_ZN11AdLibDriver14_unkTable2SizeE
adplug.so:_ZN11AdLibDriver14update_setBeatERNS_7ChannelEPKh
adplug.so:_ZN11AdLibDriver15executeProgramsEv
adplug.so:_ZN11AdLibDriver15resetAdLibStateEv
adplug.so:_ZN11AdLibDriver15setupInstrumentEhPKhRNS_7ChannelE
adplug.so:_ZN11AdLibDriver15stopAllChannelsEv
adplug.so:_ZN11AdLibDriver15update_playNoteERNS_7ChannelEPKh
adplug.so:_ZN11AdLibDriver15update_playRestERNS_7ChannelEPKh
adplug.so:_ZN11AdLibDriver15update_setTempoERNS_7ChannelEPKh
adplug.so:_ZN11AdLibDriver16_pitchBendTablesE
adplug.so:_ZN11AdLibDriver16initAdlibChannelEh
adplug.so:_ZN11AdLibDriver16secondaryEffect1ERNS_7ChannelE
adplug.so:_ZN11AdLibDriver16updateCallback46ERNS_7ChannelEPKh
adplug.so:_ZN11AdLibDriver16updateCallback56ERNS_7ChannelEPKh
adplug.so:_ZN11AdLibDriver16update_pitchBendERNS_7ChannelEPKh
adplug.so:_ZN11AdLibDriver16update_setRepeatERNS_7ChannelEPKh
adplug.so:_ZN11AdLibDriver17calculateOpLevel1ERNS_7ChannelE
adplug.so:_ZN11AdLibDriver17calculateOpLevel2ERNS_7ChannelE
adplug.so:_ZN11AdLibDriver17update_setAMDepthERNS_7ChannelEPKh
adplug.so:_ZN11AdLibDriver17update_writeAdLibERNS_7ChannelEPKh
adplug.so:_ZN11AdLibDriver18_parserOpcodeTableE
adplug.so:_ZN11AdLibDriver18primaryEffectSlideERNS_7ChannelE
adplug.so:_ZN11AdLibDriver18update_checkRepeatERNS_7ChannelEPKh
adplug.so:_ZN11AdLibDriver18update_setBaseFreqERNS_7ChannelEPKh
adplug.so:_ZN11AdLibDriver18update_setBaseNoteERNS_7ChannelEPKh
adplug.so:_ZN11AdLibDriver18update_setPriorityERNS_7ChannelEPKh
adplug.so:_ZN11AdLibDriver18update_stopChannelERNS_7ChannelEPKh
adplug.so:_ZN11AdLibDriver19update_clearChannelERNS_7ChannelEPKh
adplug.so:_ZN11AdLibDriver19update_setupProgramERNS_7ChannelEPKh
adplug.so:_ZN11AdLibDriver20primaryEffectVibratoERNS_7ChannelE
adplug.so:_ZN11AdLibDriver20update_setBaseOctaveERNS_7ChannelEPKh
adplug.so:_ZN11AdLibDriver20update_setTempoResetERNS_7ChannelEPKh
adplug.so:_ZN11AdLibDriver20update_setupDurationERNS_7ChannelEPKh
adplug.so:_ZN11AdLibDriver21update_setExtraLevel1ERNS_7ChannelEPKh
adplug.so:_ZN11AdLibDriver21update_setExtraLevel2ERNS_7ChannelEPKh
adplug.so:_ZN11AdLibDriver21update_setExtraLevel3ERNS_7ChannelEPKh
adplug.so:_ZN11AdLibDriver21update_setNoteSpacingERNS_7ChannelEPKh
adplug.so:_ZN11AdLibDriver22_parserOpcodeTableSizeE
adplug.so:_ZN11AdLibDriver22update_setChannelTempoERNS_7ChannelEPKh
adplug.so:_ZN11AdLibDriver22update_setRhythmLevel1ERNS_7ChannelEPKh
adplug.so:_ZN11AdLibDriver22update_setRhythmLevel2ERNS_7ChannelEPKh
adplug.so:_ZN11AdLibDriver22update_setSoundTriggerERNS_7ChannelEPKh
adplug.so:_ZN11AdLibDriver22update_setVibratoDepthERNS_7ChannelEPKh
adplug.so:_ZN11AdLibDriver22update_setupInstrumentERNS_7ChannelEPKh
adplug.so:_ZN11AdLibDriver22update_waitForNextBeatERNS_7ChannelEPKh
adplug.so:_ZN11AdLibDriver23update_jumpToSubroutineERNS_7ChannelEPKh
adplug.so:_ZN11AdLibDriver23update_stopOtherChannelERNS_7ChannelEPKh
adplug.so:_ZN11AdLibDriver24update_changeExtraLevel1ERNS_7ChannelEPKh
adplug.so:_ZN11AdLibDriver24update_changeExtraLevel2ERNS_7ChannelEPKh
adplug.so:_ZN11AdLibDriver24update_playRhythmSectionERNS_7ChannelEPKh
adplug.so:_ZN11AdLibDriver25update_changeChannelTempoERNS_7ChannelEPKh
adplug.so:_ZN11AdLibDriver25update_changeNoteRandomlyERNS_7ChannelEPKh
adplug.so:_ZN11AdLibDriver25update_changeRhythmLevel1ERNS_7ChannelEPKh
adplug.so:_ZN11AdLibDriver25update_resetToGlobalTempoERNS_7ChannelEPKh
adplug.so:_ZN11AdLibDriver25update_setupRhythmSectionERNS_7ChannelEPKh
adplug.so:_ZN11AdLibDriver26update_removeRhythmSectionERNS_7ChannelEPKh
adplug.so:_ZN11AdLibDriver26update_waitForEndOfProgramERNS_7ChannelEPKh
adplug.so:_ZN11AdLibDriver27update_returnFromSubroutineERNS_7ChannelEPKh
adplug.so:_ZN11AdLibDriver27update_setupNoteAndDurationERNS_7ChannelEPKh
adplug.so:_ZN11AdLibDriver28update_setDurationRandomnessERNS_7ChannelEPKh
adplug.so:_ZN11AdLibDriver28update_setupSecondaryEffect1ERNS_7ChannelEPKh
adplug.so:_ZN11AdLibDriver29update_removeSecondaryEffect1ERNS_7ChannelEPKh
adplug.so:_ZN11AdLibDriver30update_setupPrimaryEffectSlideERNS_7ChannelEPKh
adplug.so:_ZN11AdLibDriver31update_removePrimaryEffectSlideERNS_7ChannelEPKh
adplug.so:_ZN11AdLibDriver31update_setFractionalNoteSpacingERNS_7ChannelEPKh
adplug.so:_ZN11AdLibDriver32update_setupPrimaryEffectVibratoERNS_7ChannelEPKh
adplug.so:_ZN11AdLibDriver33update_removePrimaryEffectVibratoERNS_7ChannelEPKh
adplug.so:_ZN11AdLibDriver6noteOnERNS_7ChannelE
adplug.so:_ZN11AdLibDriver7noteOffERNS_7ChannelE
adplug.so:_ZN11AdLibDriver8callbackEv
adplug.so:_ZN11AdLibDriver8writeOPLEhh
adplug.so:_ZN11AdLibDriver9setupNoteEhRNS_7ChannelEb
adplug.so:_ZN11AdLibDriverC1EP4Copl
adplug.so:_ZN11AdLibDriverC2EP4Copl
adplug.so:_ZN11AdLibDriverD1Ev
adplug.so:_ZN11AdLibDriverD2Ev
adplug.so:_ZN11CInfoRecord13user_read_ownERSiRSo
adplug.so:_ZN11CInfoRecord14user_write_ownERSo
adplug.so:_ZN11CInfoRecord8get_sizeEv
adplug.so:_ZN11CInfoRecord8read_ownER10binistream
adplug.so:_ZN11CInfoRecord9write_ownER10binostream
adplug.so:_ZN11CInfoRecordC1Ev
adplug.so:_ZN11CInfoRecordC2Ev
adplug.so:_ZN11CPlayerDesc13add_extensionEPKc
adplug.so:_ZN11CPlayerDescC1EPFP7CPlayerP4CoplERKNSt7__cxx1112basic_stringIcSt11char_traitsIcESaIcEEEPKc
adplug.so:_ZN11CPlayerDescC1ERKS_
adplug.so:_ZN11CPlayerDescC1Ev
adplug.so:_ZN11CPlayerDescC2EPFP7CPlayerP4CoplERKNSt7__cxx1112basic_stringIcSt11char_traitsIcESaIcEEEPKc
adplug.so:_ZN11CPlayerDescC2ERKS_
adplug.so:_ZN11CPlayerDescC2Ev
adplug.so:_ZN11CPlayerDescD1Ev
adplug.so:_ZN11CPlayerDescD2Ev
adplug.so:_ZN11Cdro2Player10getrefreshEv
adplug.so:_ZN11Cdro2Player4loadERKNSt7__cxx1112basic_stringIcSt11char_traitsIcESaIcEEERK13CFileProvider
adplug.so:_ZN11Cdro2Player6rewindEi
adplug.so:_ZN11Cdro2Player6updateEv
adplug.so:_ZN11Cdro2Player7factoryEP4Copl
adplug.so:_ZN11Cdro2PlayerC1EP4Copl
adplug.so:_ZN11Cdro2PlayerC2EP4Copl
adplug.so:_ZN11Cdro2PlayerD0Ev
adplug.so:_ZN11Cdro2PlayerD1Ev
adplug.so:_ZN11Cdro2PlayerD2Ev
adplug.so:_ZN11Crad2Player10getpatternEv
adplug.so:_ZN11Crad2Player10getrefreshEv
adplug.so:_ZN11Crad2Player11getpatternsEv
adplug.so:_ZN11Crad2Player13getinstrumentB5cxx11Ej
adplug.so:_ZN11Crad2Player14getinstrumentsEv
adplug.so:_ZN11Crad2Player4loadERKNSt7__cxx1112basic_stringIcSt11char_traitsIcESaIcEEERK13CFileProvider
adplug.so:_ZN11Crad2Player6getrowEv
adplug.so:_ZN11Crad2Player6rewindEi
adplug.so:_ZN11Crad2Player6updateEv
adplug.so:_ZN11Crad2Player7factoryEP4Copl
adplug.so:_ZN11Crad2Player7gettypeB5cxx11Ev
adplug.so:_ZN11Crad2Player8getorderEv
adplug.so:_ZN11Crad2Player8getspeedEv
adplug.so:_ZN11Crad2Player9getordersEv
adplug.so:_ZN11Crad2PlayerC1EP4Copl
adplug.so:_ZN11Crad2PlayerC2EP4Copl
adplug.so:_ZN11Crad2PlayerD0Ev
adplug.so:_ZN11Crad2PlayerD1Ev
adplug.so:_ZN11Crad2PlayerD2Ev
adplug.so:_ZN11binifstream4openEPKci
adplug.so:_ZN11binifstream4openERKNSt7__cxx1112basic_stringIcSt11char_traitsIcESaIcEEEi
adplug.so:_ZN11binifstream6getBufEPci
adplug.so:_ZN11binifstream7getByteEv
adplug.so:_ZN11binifstreamC1EPKci
adplug.so:_ZN11binifstreamC1ERKNSt7__cxx1112basic_stringIcSt11char_traitsIcESaIcEEEi
adplug.so:_ZN11binifstreamC1Ev
adplug.so:_ZN11binifstreamC2EPKci
adplug.so:_ZN11binifstreamC2ERKNSt7__cxx1112basic_stringIcSt11char_traitsIcESaIcEEEi
adplug.so:_ZN11binifstreamC2Ev
adplug.so:_ZN11binifstreamD0Ev
adplug.so:_ZN11binifstreamD1Ev
adplug.so:_ZN11binifstreamD2Ev
adplug.so:_ZN11binisstream6getBufEPci
adplug.so:_ZN11binisstream7getByteEv
adplug.so:_ZN11binisstreamC1EPvm
adplug.so:_ZN11binisstreamC2EPvm
adplug.so:_ZN11binisstreamD0Ev
adplug.so:_ZN11binisstreamD1Ev
adplug.so:_ZN11binisstreamD2Ev
adplug.so:_ZN11biniwstream3posEv
adplug.so:_ZN11biniwstream4seekElN5binio6OffsetE
adplug.so:_ZN11biniwstream7getByteEv
adplug.so:_ZN11biniwstreamC2EPSi
adplug.so:_ZN11biniwstreamD0Ev
adplug.so:_ZN11biniwstreamD1Ev
adplug.so:_ZN11biniwstreamD2Ev
adplug.so:_ZN11binofstream4openEPKci
adplug.so:_ZN11binofstream4openERKNSt7__cxx1112basic_stringIcSt11char_traitsIcESaIcEEEi
adplug.so:_ZN11binofstream7putByteEh
adplug.so:_ZN11binofstreamC1EPKci
adplug.so:_ZN11binofstreamC1ERKNSt7__cxx1112basic_stringIcSt11char_traitsIcESaIcEEEi
adplug.so:_ZN11binofstreamC1Ev
adplug.so:_ZN11binofstreamC2EPKci
adplug.so:_ZN11binofstreamC2ERKNSt7__cxx1112basic_stringIcSt11char_traitsIcESaIcEEEi
adplug.so:_ZN11binofstreamC2Ev
adplug.so:_ZN11binofstreamD0Ev
adplug.so:_ZN11binofstreamD1Ev
adplug.so:_ZN11binofstreamD2Ev
adplug.so:_ZN11binosstream7putByteEh
adplug.so:_ZN11binosstreamC1EPvm
adplug.so:_ZN11binosstreamC2EPvm
adplug.so:_ZN11binosstreamD0Ev
adplug.so:_ZN11binosstreamD1Ev
adplug.so:_ZN11binosstreamD2Ev
adplug.so:_ZN11binowstream3posEv
adplug.so:_ZN11binowstream4seekElN5binio6OffsetE
adplug.so:_ZN11binowstream7putByteEh
adplug.so:_ZN11binowstreamC1EPSo
adplug.so:_ZN11binowstreamC2EPSo
adplug.so:_ZN11binowstreamD0Ev
adplug.so:_ZN11binowstreamD1Ev
adplug.so:_ZN11binowstreamD2Ev
adplug.so:_ZN12CClockRecord13user_read_ownERSiRSo
adplug.so:_ZN12CClockRecord14user_write_ownERSo
adplug.so:_ZN12CClockRecord8get_sizeEv
adplug.so:_ZN12CClockRecord8read_ownER10binistream
adplug.so:_ZN12CClockRecord9write_ownER10binostream
adplug.so:_ZN12CClockRecordC1Ev
adplug.so:_ZN12CClockRecordC2Ev
adplug.so:_ZN12CSurroundopl10set_offsetEd
adplug.so:_ZN12CSurroundopl4initEv
adplug.so:_ZN12CSurroundopl5writeEii
adplug.so:_ZN12CSurroundopl6updateEPsi
adplug.so:_ZN12CSurroundopl7setchipEi
adplug.so:_ZN12CSurroundoplC1EP9COPLpropsS1_b
adplug.so:_ZN12CSurroundoplC2EP9COPLpropsS1_b
adplug.so:_ZN12CSurroundoplD0Ev
adplug.so:_ZN12CSurroundoplD1Ev
adplug.so:_ZN12CSurroundoplD2Ev
adplug.so:_ZN12Ca2mv2Player10a2m_importEPcm
adplug.so:_ZN12Ca2mv2Player10a2t_depackEPciS0_i
adplug.so:_ZN12Ca2mv2Player10a2t_importEPcm
adplug.so:_ZN12Ca2mv2Player10getrefreshEv
adplug.so:_ZN12Ca2mv2Player10set_volumeEhhh
adplug.so:_ZN12Ca2mv2Player11change_freqEit
adplug.so:_ZN12Ca2mv2Player11get_event_pEiii
adplug.so:_ZN12Ca2mv2Player11init_playerEv
adplug.so:_ZN12Ca2mv2Player11output_noteEhhibb
adplug.so:_ZN12Ca2mv2Player12get_4op_dataEh
adplug.so:_ZN12Ca2mv2Player12init_buffersEv
adplug.so:_ZN12Ca2mv2Player12set_ins_dataEhi
adplug.so:_ZN12Ca2mv2Player12update_fmparEi
adplug.so:_ZN12Ca2mv2Player12update_timerEi
adplug.so:_ZN12Ca2mv2Player12volume_slideEihh
adplug.so:_ZN12Ca2mv2Player13init_songdataEv
adplug.so:_ZN12Ca2mv2Player13patterns_freeEv
adplug.so:_ZN12Ca2mv2Player13portamento_upEitt
adplug.so:_ZN12Ca2mv2Player14a2t_read_orderEPcm
adplug.so:_ZN12Ca2mv2Player14set_clock_rateEh
adplug.so:_ZN12Ca2mv2Player14set_ins_volumeEhhh
adplug.so:_ZN12Ca2mv2Player14update_effectsEv
adplug.so:_ZN12Ca2mv2Player15calc_order_jumpEv
adplug.so:_ZN12Ca2mv2Player15get_fmreg_tableEh
adplug.so:_ZN12Ca2mv2Player15macro_poll_procEv
adplug.so:_ZN12Ca2mv2Player15portamento_downEitt
adplug.so:_ZN12Ca2mv2Player15process_effectsEP15tADTRACK2_EVENTii
adplug.so:_ZN12Ca2mv2Player15slide_volume_upEih
adplug.so:_ZN12Ca2mv2Player15tone_portamentoEii
adplug.so:_ZN12Ca2mv2Player16a2_read_patternsEPcim
adplug.so:_ZN12Ca2mv2Player16change_frequencyEit
adplug.so:_ZN12Ca2mv2Player16init_macro_tableEihht
adplug.so:_ZN12Ca2mv2Player16instruments_freeEv
adplug.so:_ZN12Ca2mv2Player16new_process_noteEP15tADTRACK2_EVENTi
adplug.so:_ZN12Ca2mv2Player16reset_ins_volumeEi
adplug.so:_ZN12Ca2mv2Player17a2m_read_patternsEPcm
adplug.so:_ZN12Ca2mv2Player17a2m_read_songdataEPcm
adplug.so:_ZN12Ca2mv2Player17a2t_read_patternsEPcm
adplug.so:_ZN12Ca2mv2Player17get_vibrato_tableEh
adplug.so:_ZN12Ca2mv2Player17instrument_importEiP11tINSTR_DATA
adplug.so:_ZN12Ca2mv2Player17patterns_allocateEiii
adplug.so:_ZN12Ca2mv2Player17set_current_orderEh
adplug.so:_ZN12Ca2mv2Player17set_global_volumeEv
adplug.so:_ZN12Ca2mv2Player17slide_volume_downEih
adplug.so:_ZN12Ca2mv2Player18a2m_read_varheaderEPcim
adplug.so:_ZN12Ca2mv2Player18a2t_read_varheaderEPcm
adplug.so:_ZN12Ca2mv2Player18arpvib_tables_freeEv
adplug.so:_ZN12Ca2mv2Player18get_arpeggio_tableEh
adplug.so:_ZN12Ca2mv2Player18set_ins_volume_4opEhh
adplug.so:_ZN12Ca2mv2Player18set_overall_volumeEh
adplug.so:_ZN12Ca2mv2Player19_4op_vol_valid_chanEi
adplug.so:_ZN12Ca2mv2Player19a2t_read_fmregtableEPcm
adplug.so:_ZN12Ca2mv2Player19check_swap_arp_vibrEP15tADTRACK2_EVENTii
adplug.so:_ZN12Ca2mv2Player19convert_v1234_eventEP21tADTRACK2_EVENT_V1234i
adplug.so:_ZN12Ca2mv2Player19global_volume_slideEhh
adplug.so:_ZN12Ca2mv2Player19update_effect_tableEiiihh
adplug.so:_ZN12Ca2mv2Player19update_effects_slotEii
adplug.so:_ZN12Ca2mv2Player19update_fine_effectsEii
adplug.so:_ZN12Ca2mv2Player20a2t_read_arpvibtableEPcm
adplug.so:_ZN12Ca2mv2Player20a2t_read_instrumentsEPcm
adplug.so:_ZN12Ca2mv2Player20calc_following_orderEh
adplug.so:_ZN12Ca2mv2Player20fmreg_table_allocateEmP12tFMREG_TABLE
adplug.so:_ZN12Ca2mv2Player20instruments_allocateEm
adplug.so:_ZN12Ca2mv2Player20update_carrier_adsrwEi
adplug.so:_ZN12Ca2mv2Player20update_song_positionEv
adplug.so:_ZN12Ca2mv2Player21update_playback_speedEi
adplug.so:_ZN12Ca2mv2Player22arpvib_tables_allocateEmP13tARPVIB_TABLE
adplug.so:_ZN12Ca2mv2Player22disabled_fmregs_importEmPA28_b
adplug.so:_ZN12Ca2mv2Player22instrument_import_v1_8EiP16tINSTR_DATA_V1_8
adplug.so:_ZN12Ca2mv2Player22is_ins_adsr_data_emptyEi
adplug.so:_ZN12Ca2mv2Player22update_modulator_adsrwEi
adplug.so:_ZN12Ca2mv2Player23generate_custom_vibratoEh
adplug.so:_ZN12Ca2mv2Player23is_chan_adsr_data_emptyEi
adplug.so:_ZN12Ca2mv2Player23macro_vibrato__porta_upEih
adplug.so:_ZN12Ca2mv2Player23slide_carrier_volume_upEhhh
adplug.so:_ZN12Ca2mv2Player24a2t_read_disabled_fmregsEPcm
adplug.so:_ZN12Ca2mv2Player24release_sustaining_soundEi
adplug.so:_ZN12Ca2mv2Player25macro_vibrato__porta_downEih
adplug.so:_ZN12Ca2mv2Player25slide_carrier_volume_downEhh
adplug.so:_ZN12Ca2mv2Player25slide_modulator_volume_upEhhh
adplug.so:_ZN12Ca2mv2Player25update_extra_fine_effectsEv
adplug.so:_ZN12Ca2mv2Player27slide_modulator_volume_downEhh
adplug.so:_ZN12Ca2mv2Player30update_extra_fine_effects_slotEii
adplug.so:_ZN12Ca2mv2Player4loadERKNSt7__cxx1112basic_stringIcSt11char_traitsIcESaIcEEERK13CFileProvider
adplug.so:_ZN12Ca2mv2Player6key_onEi
adplug.so:_ZN12Ca2mv2Player6rewindEi
adplug.so:_ZN12Ca2mv2Player6updateEv
adplug.so:_ZN12Ca2mv2Player7factoryEP4Copl
adplug.so:_ZN12Ca2mv2Player7gettypeB5cxx11Ev
adplug.so:_ZN12Ca2mv2Player7key_offEi
adplug.so:_ZN12Ca2mv2Player7no_loopEhh
adplug.so:_ZN12Ca2mv2Player7opl2outEtt
adplug.so:_ZN12Ca2mv2Player7opl3expEt
adplug.so:_ZN12Ca2mv2Player7opl3outEth
adplug.so:_ZN12Ca2mv2Player7tremoloEii
adplug.so:_ZN12Ca2mv2Player7vibratoEii
adplug.so:_ZN12Ca2mv2Player8a2t_playEPcm
adplug.so:_ZN12Ca2mv2Player8a2t_stopEv
adplug.so:_ZN12Ca2mv2Player8arpeggioEii
adplug.so:_ZN12Ca2mv2Player8done_irqEv
adplug.so:_ZN12Ca2mv2Player8init_irqEv
adplug.so:_ZN12Ca2mv2Player8newtimerEv
adplug.so:_ZN12Ca2mv2Player9a2_importEPcm
adplug.so:_ZN12Ca2mv2Player9get_instrEh
adplug.so:_ZN12Ca2mv2Player9play_lineEv
adplug.so:_ZN12Ca2mv2Player9poll_procEv
adplug.so:_ZN12Ca2mv2PlayerC1EP4Copl
adplug.so:_ZN12Ca2mv2PlayerC2EP4Copl
adplug.so:_ZN12Ca2mv2PlayerD0Ev
adplug.so:_ZN12Ca2mv2PlayerD1Ev
adplug.so:_ZN12Ca2mv2PlayerD2Ev
adplug.so:_ZN12Cad262Driver10NoteOn_SOPEjj
adplug.so:_ZN12Cad262Driver10SndOutput1Eii
adplug.so:_ZN12Cad262Driver10SndOutput3Eii
adplug.so:_ZN12Cad262Driver11NoteOff_SOPEj
adplug.so:_ZN12Cad262Driver11SetFreq_SOPEijii
adplug.so:_ZN12Cad262Driver11SetMode_SOPEi
adplug.so:_ZN12Cad262Driver11UpdateFNumsEi
adplug.so:_ZN12Cad262Driver12Set_4OP_ModeEjj
adplug.so:_ZN12Cad262Driver13SetYM_262_SOPEi
adplug.so:_ZN12Cad262Driver13SoundWarmInitEv
adplug.so:_ZN12Cad262Driver16SetStereoPan_SOPEii
adplug.so:_ZN12Cad262Driver17SetVoicePitch_SOPEji
adplug.so:_ZN12Cad262Driver18SetVoiceTimbre_SOPEjPh
adplug.so:_ZN12Cad262Driver18SetVoiceVolume_SOPEjj
adplug.so:_ZN12Cad262Driver5DIV12E
adplug.so:_ZN12Cad262Driver5MOD12E
adplug.so:_ZN12Cad262Driver5SlotXE
adplug.so:_ZN12Cad262Driver6VolRegE
adplug.so:_ZN12Cad262Driver7fNumTblE
adplug.so:_ZN12Cad262Driver8SEND_INSEiPhi
adplug.so:_ZN12CheradPlayer10ev_noteOffEhhh
adplug.so:_ZN12CheradPlayer10macroSlideEh
adplug.so:_ZN12CheradPlayer10validEventEiPtb
adplug.so:_ZN12CheradPlayer11coarse_bendE
adplug.so:_ZN12CheradPlayer11slot_offsetE
adplug.so:_ZN12CheradPlayer11validTracksEv
adplug.so:_ZN12CheradPlayer12ev_pitchBendEhh
adplug.so:_ZN12CheradPlayer13changeProgramEhh
adplug.so:_ZN12CheradPlayer13ev_aftertouchEhh
adplug.so:_ZN12CheradPlayer13macroFeedbackEhhah
adplug.so:_ZN12CheradPlayer13processEventsEv
adplug.so:_ZN12CheradPlayer14executeCommandEh
adplug.so:_ZN12CheradPlayer14macroCarOutputEhhah
adplug.so:_ZN12CheradPlayer14macroModOutputEhhah
adplug.so:_ZN12CheradPlayer14macroTransposeEPhh
adplug.so:_ZN12CheradPlayer16ev_programChangeEhh
adplug.so:_ZN12CheradPlayer4FNumE
adplug.so:_ZN12CheradPlayer4loadERKNSt7__cxx1112basic_stringIcSt11char_traitsIcESaIcEEERK13CFileProvider
adplug.so:_ZN12CheradPlayer6rewindEi
adplug.so:_ZN12CheradPlayer6updateEv
adplug.so:_ZN12CheradPlayer7factoryEP4Copl
adplug.so:_ZN12CheradPlayer7gettypeB5cxx11Ev
adplug.so:_ZN12CheradPlayer7setFreqEhhtb
adplug.so:_ZN12CheradPlayer8GetTicksEh
adplug.so:_ZN12CheradPlayer8playNoteEhhh
adplug.so:_ZN12CheradPlayer9ev_noteOnEhhh
adplug.so:_ZN12CheradPlayer9fine_bendE
adplug.so:_ZN12OPLChipClass10adlib_initEjjj
adplug.so:_ZN12OPLChipClass11adlib_writeEmh
adplug.so:_ZN12OPLChipClass14adlib_reg_readEm
adplug.so:_ZN12OPLChipClass14change_vibratoEmP15operator_struct
adplug.so:_ZN12OPLChipClass15adlib_getsampleEPsl
adplug.so:_ZN12OPLChipClass15change_feedbackEmP15operator_struct
adplug.so:_ZN12OPLChipClass15change_waveformEmP15operator_struct
adplug.so:_ZN12OPLChipClass15enable_operatorEmP15operator_structj
adplug.so:_ZN12OPLChipClass16change_decayrateEmP15operator_struct
adplug.so:_ZN12OPLChipClass16change_frequencyEmmP15operator_struct
adplug.so:_ZN12OPLChipClass17adlib_write_indexEmh
adplug.so:_ZN12OPLChipClass17change_attackrateEmP15operator_struct
adplug.so:_ZN12OPLChipClass18change_keepsustainEmP15operator_struct
adplug.so:_ZN12OPLChipClass18change_releaserateEmP15operator_struct
adplug.so:_ZN12OPLChipClass19change_sustainlevelEmP15operator_struct
adplug.so:_ZN13CFileProvider8filesizeEP10binistream
adplug.so:_ZN13CFileProvider9extensionERKNSt7__cxx1112basic_stringIcSt11char_traitsIcESaIcEEES7_
adplug.so:_ZN13CcoktelPlayer14executeCommandEv
adplug.so:_ZN13CcoktelPlayer15frontend_rewindEi
adplug.so:_ZN13CcoktelPlayer4loadERKNSt7__cxx1112basic_stringIcSt11char_traitsIcESaIcEEERK13CFileProvider
adplug.so:_ZN13CcoktelPlayer6updateEv
adplug.so:_ZN13CcoktelPlayer7factoryEP4Copl
adplug.so:_ZN13CxadbmfPlayer11bmf_notes_2E
adplug.so:_ZN13CxadbmfPlayer14xadplayer_loadEv
adplug.so:_ZN13CxadbmfPlayer16xadplayer_rewindEi
adplug.so:_ZN13CxadbmfPlayer16xadplayer_updateEv
adplug.so:_ZN13CxadbmfPlayer17xadplayer_gettypeB5cxx11Ev
adplug.so:_ZN13CxadbmfPlayer18xadplayer_getspeedEv
adplug.so:_ZN13CxadbmfPlayer18xadplayer_gettitleB5cxx11Ev
adplug.so:_ZN13CxadbmfPlayer19bmf_adlib_registersE
adplug.so:_ZN13CxadbmfPlayer19xadplayer_getauthorB5cxx11Ev
adplug.so:_ZN13CxadbmfPlayer20__bmf_convert_streamEPKhim
adplug.so:_ZN13CxadbmfPlayer20xadplayer_getrefreshEv
adplug.so:_ZN13CxadbmfPlayer22bmf_default_instrumentE
adplug.so:_ZN13CxadbmfPlayer23xadplayer_getinstrumentB5cxx11Ej
adplug.so:_ZN13CxadbmfPlayer24xadplayer_getinstrumentsEv
adplug.so:_ZN13CxadbmfPlayer7factoryEP4Copl
adplug.so:_ZN13CxadbmfPlayer9bmf_notesE
adplug.so:_ZN13CxadhypPlayer16xadplayer_rewindEi
adplug.so:_ZN13CxadhypPlayer16xadplayer_updateEv
adplug.so:_ZN13CxadhypPlayer17xadplayer_gettypeB5cxx11Ev
adplug.so:_ZN13CxadhypPlayer19hyp_adlib_registersE
adplug.so:_ZN13CxadhypPlayer20xadplayer_getrefreshEv
adplug.so:_ZN13CxadhypPlayer7factoryEP4Copl
adplug.so:_ZN13CxadhypPlayer9hyp_notesE
adplug.so:_ZN13CxadpsiPlayer14xadplayer_loadEv
adplug.so:_ZN13CxadpsiPlayer16xadplayer_rewindEi
adplug.so:_ZN13CxadpsiPlayer16xadplayer_updateEv
adplug.so:_ZN13CxadpsiPlayer17xadplayer_gettypeB5cxx11Ev
adplug.so:_ZN13CxadpsiPlayer20xadplayer_getrefreshEv
adplug.so:_ZN13CxadpsiPlayer24xadplayer_getinstrumentsEv
adplug.so:_ZN13CxadpsiPlayer7factoryEP4Copl
adplug.so:_ZN13CxadratPlayer14xadplayer_loadEv
adplug.so:_ZN13CxadratPlayer16xadplayer_rewindEi
adplug.so:_ZN13CxadratPlayer16xadplayer_updateEv
adplug.so:_ZN13CxadratPlayer17xadplayer_gettypeB5cxx11Ev
adplug.so:_ZN13CxadratPlayer18xadplayer_gettitleB5cxx11Ev
adplug.so:_ZN13CxadratPlayer20xadplayer_getrefreshEv
adplug.so:_ZN13CxadratPlayer24xadplayer_getinstrumentsEv
adplug.so:_ZN13CxadratPlayer7factoryEP4Copl
adplug.so:_ZN14CadtrackLoader10getrefreshEv
adplug.so:_ZN14CadtrackLoader18convert_instrumentEjPNS_11AdTrackInstE
adplug.so:_ZN14CadtrackLoader4loadERKNSt7__cxx1112basic_stringIcSt11char_traitsIcESaIcEEERK13CFileProvider
adplug.so:_ZN14CadtrackLoader7factoryEP4Copl
adplug.so:_ZN15CAdPlugDatabase10get_recordEv
adplug.so:_ZN15CAdPlugDatabase10go_forwardEv
adplug.so:_ZN15CAdPlugDatabase10goto_beginEv
adplug.so:_ZN15CAdPlugDatabase10hash_radixE
adplug.so:_ZN15CAdPlugDatabase11go_backwardEv
adplug.so:_ZN15CAdPlugDatabase4CKey4makeER10binistream
adplug.so:_ZN15CAdPlugDatabase4CKeyC1ER10binistream
adplug.so:_ZN15CAdPlugDatabase4CKeyC2ER10binistream
adplug.so:_ZN15CAdPlugDatabase4CKeyeqERKS0_
adplug.so:_ZN15CAdPlugDatabase4loadENSt7__cxx1112basic_stringIcSt11char_traitsIcESaIcEEE
adplug.so:_ZN15CAdPlugDatabase4loadER10binistream
adplug.so:_ZN15CAdPlugDatabase4saveENSt7__cxx1112basic_stringIcSt11char_traitsIcESaIcEEE
adplug.so:_ZN15CAdPlugDatabase4saveER10binostream
adplug.so:_ZN15CAdPlugDatabase4wipeEPNS_7CRecordE
adplug.so:_ZN15CAdPlugDatabase4wipeEv
adplug.so:_ZN15CAdPlugDatabase6insertEPNS_7CRecordE
adplug.so:_ZN15CAdPlugDatabase6lookupERKNS_4CKeyE
adplug.so:_ZN15CAdPlugDatabase6searchERKNS_4CKeyE
adplug.so:_ZN15CAdPlugDatabase7CRecord10user_writeERSo
adplug.so:_ZN15CAdPlugDatabase7CRecord5writeER10binostream
adplug.so:_ZN15CAdPlugDatabase7CRecord7factoryENS0_10RecordTypeE
adplug.so:_ZN15CAdPlugDatabase7CRecord7factoryER10binistream
adplug.so:_ZN15CAdPlugDatabase7CRecord9user_readERSiRSo
adplug.so:_ZN15CAdPlugDatabase8goto_endEv
adplug.so:_ZN15CAdPlugDatabase9DB_BucketC1EmPNS_7CRecordEPS0_
adplug.so:_ZN15CAdPlugDatabase9DB_BucketC2EmPNS_7CRecordEPS0_
adplug.so:_ZN15CAdPlugDatabase9DB_BucketD1Ev
adplug.so:_ZN15CAdPlugDatabase9DB_BucketD2Ev
adplug.so:_ZN15CAdPlugDatabaseC1Ev
adplug.so:_ZN15CAdPlugDatabaseC2Ev
adplug.so:_ZN15CAdPlugDatabaseD1Ev
adplug.so:_ZN15CAdPlugDatabaseD2Ev
adplug.so:_ZN15CxadflashPlayer16xadplayer_rewindEi
adplug.so:_ZN15CxadflashPlayer16xadplayer_updateEv
adplug.so:_ZN15CxadflashPlayer17xadplayer_gettypeB5cxx11Ev
adplug.so:_ZN15CxadflashPlayer20xadplayer_getrefreshEv
adplug.so:_ZN15CxadflashPlayer24xadplayer_getinstrumentsEv
adplug.so:_ZN15CxadflashPlayer7factoryEP4Copl
adplug.so:_ZN16CcomposerBackend10kMaxVolumeE
adplug.so:_ZN16CcomposerBackend10kSnareNoteE
adplug.so:_ZN16CcomposerBackend11ChangePitchEit
adplug.so:_ZN16CcomposerBackend11kTomTomNoteE
adplug.so:_ZN16CcomposerBackend12kSilenceNoteE
adplug.so:_ZN16CcomposerBackend13SetInstrumentEii
adplug.so:_ZN16CcomposerBackend13SetPitchRangeEh
adplug.so:_ZN16CcomposerBackend13SetRhythmModeEi
adplug.so:_ZN16CcomposerBackend13load_bnk_infoEP10binistreamRNS_10SBnkHeaderE
adplug.so:_ZN16CcomposerBackend13send_operatorEiRKNS_7SOPL2OpES2_
adplug.so:_ZN16CcomposerBackend14SetNoteMelodicEii
adplug.so:_ZN16CcomposerBackend14kTomTomToSnareE
adplug.so:_ZN16CcomposerBackend14kTomtomChannelE
adplug.so:_ZN16CcomposerBackend16kBassDrumChannelE
adplug.so:_ZN16CcomposerBackend16read_fm_operatorEP10binistreamRNS_7SOPL2OpE
adplug.so:_ZN16CcomposerBackend17SetNotePercussiveEii
adplug.so:_ZN16CcomposerBackend17kNumMelodicVoicesE
adplug.so:_ZN16CcomposerBackend17kSizeofDataRecordE
adplug.so:_ZN16CcomposerBackend17kSnareDrumChannelE
adplug.so:_ZN16CcomposerBackend19load_bnk_instrumentEP10binistreamRKNS_10SBnkHeaderERKNSt7__cxx1112basic_stringIcSt11char_traitsIcESaIcEEE
adplug.so:_ZN16CcomposerBackend19read_bnk_instrumentEP10binistreamRNS_15SInstrumentDataEb
adplug.so:_ZN16CcomposerBackend20SetDefaultInstrumentEi
adplug.so:_ZN16CcomposerBackend20kNumPercussiveVoicesE
adplug.so:_ZN16CcomposerBackend20load_instrument_dataEPhm
adplug.so:_ZN16CcomposerBackend6NoteOnEii
adplug.so:_ZN16CcomposerBackend6rewindEi
adplug.so:_ZN16CcomposerBackend7NoteOffEi
adplug.so:_ZN16CcomposerBackend7SetFreqEiib
adplug.so:_ZN16CcomposerBackend7SetNoteEii
adplug.so:_ZN16CcomposerBackend9SetVolumeEih
adplug.so:_ZN16CcomposerBackend9kMidPitchE
adplug.so:_ZN16CcomposerBackendC2EP4Copl
adplug.so:_ZN16CxadhybridPlayer14xadplayer_loadEv
adplug.so:_ZN16CxadhybridPlayer16xadplayer_rewindEi
adplug.so:_ZN16CxadhybridPlayer16xadplayer_updateEv
adplug.so:_ZN16CxadhybridPlayer17xadplayer_gettypeB5cxx11Ev
adplug.so:_ZN16CxadhybridPlayer18xadplayer_getspeedEv
adplug.so:_ZN16CxadhybridPlayer19hyb_adlib_registersE
adplug.so:_ZN16CxadhybridPlayer20xadplayer_getrefreshEv
adplug.so:_ZN16CxadhybridPlayer22hyb_default_instrumentE
adplug.so:_ZN16CxadhybridPlayer23xadplayer_getinstrumentB5cxx11Ej
adplug.so:_ZN16CxadhybridPlayer24xadplayer_getinstrumentsEv
adplug.so:_ZN16CxadhybridPlayer7factoryEP4Copl
adplug.so:_ZN16CxadhybridPlayer9hyb_notesE
adplug.so:_ZN19CcmfmacsoperaPlayer10advanceRowEv
adplug.so:_ZN19CcmfmacsoperaPlayer11resetPlayerEv
adplug.so:_ZN19CcmfmacsoperaPlayer12loadPatternsEP10binistream
adplug.so:_ZN19CcmfmacsoperaPlayer13setInstrumentEiRKNS_10InstrumentE
adplug.so:_ZN19CcmfmacsoperaPlayer15loadInstrumentsEP10binistreami
adplug.so:_ZN19CcmfmacsoperaPlayer16processNoteEventERKNS_9NoteEventE
adplug.so:_ZN19CcmfmacsoperaPlayer4loadERKNSt7__cxx1112basic_stringIcSt11char_traitsIcESaIcEEERK13CFileProvider
adplug.so:_ZN19CcmfmacsoperaPlayer5keyOnEi
adplug.so:_ZN19CcmfmacsoperaPlayer6keyOffEi
adplug.so:_ZN19CcmfmacsoperaPlayer6rewindEi
adplug.so:_ZN19CcmfmacsoperaPlayer6updateEv
adplug.so:_ZN19CcmfmacsoperaPlayer7factoryEP4Copl
adplug.so:_ZN19CcmfmacsoperaPlayer7gettypeB5cxx11Ev
adplug.so:_ZN19CcmfmacsoperaPlayer7setAxBxEiii
adplug.so:_ZN19CcmfmacsoperaPlayer7setNoteEii
adplug.so:_ZN19CcmfmacsoperaPlayer7setSlotEiRKNS_12SlotSettingsE
adplug.so:_ZN19CcmfmacsoperaPlayer9setVolumeEii
adplug.so:_ZN19CcmfmacsoperaPlayerC1EP4Copl
adplug.so:_ZN19CcmfmacsoperaPlayerC2EP4Copl
adplug.so:_ZN5binio12system_flagsE
adplug.so:_ZN5binio19detect_system_flagsEv
adplug.so:_ZN5binio3eofEv
adplug.so:_ZN5binio5errorEv
adplug.so:_ZN5binio7getFlagENS_4FlagE
adplug.so:_ZN5binio7setFlagENS_4FlagEb
adplug.so:_ZN5binioC2Ev
adplug.so:_ZN5binioD0Ev
adplug.so:_ZN5binioD1Ev
adplug.so:_ZN5binioD2Ev
adplug.so:_ZN7CAdPlug10allplayersE
adplug.so:_ZN7CAdPlug11get_versionB5cxx11Ev
adplug.so:_ZN7CAdPlug12debug_outputERKNSt7__cxx1112basic_stringIcSt11char_traitsIcESaIcEEE
adplug.so:_ZN7CAdPlug12init_playersEPK11CPlayerDesc
adplug.so:_ZN7CAdPlug12set_databaseEP15CAdPlugDatabase
adplug.so:_ZN7CAdPlug7factoryERKNSt7__cxx1112basic_stringIcSt11char_traitsIcESaIcEEEP4CoplRK8CPlayersRK13CFileProvider
adplug.so:_ZN7CAdPlug7playersE
adplug.so:_ZN7CAdPlug8databaseE
adplug.so:_ZN7CEmuopl4initEv
adplug.so:_ZN7CEmuopl5writeEii
adplug.so:_ZN7CEmuopl6updateEPsi
adplug.so:_ZN7CEmuopl7settypeEN4Copl8ChipTypeE
adplug.so:_ZN7CEmuoplC1Eibb
adplug.so:_ZN7CEmuoplC2Eibb
adplug.so:_ZN7CEmuoplD0Ev
adplug.so:_ZN7CEmuoplD1Ev
adplug.so:_ZN7CEmuoplD2Ev
adplug.so:_ZN7CPlayer10note_tableE
adplug.so:_ZN7CPlayer10songlengthEi
adplug.so:_ZN7CPlayer4seekEm
adplug.so:_ZN7CPlayer8op_tableE
adplug.so:_ZN7CPlayerC2EP4Copl
adplug.so:_ZN7CPlayerD0Ev
adplug.so:_ZN7CPlayerD1Ev
adplug.so:_ZN7CPlayerD2Ev
adplug.so:_ZN8CAnalopl13getcarriervolEjj
adplug.so:_ZN8CAnalopl15getmodulatorvolEjj
adplug.so:_ZN8CAnalopl5writeEii
adplug.so:_ZN8CAnalopl8getkeyonEjj
adplug.so:_ZN8CAnaloplC1Et
adplug.so:_ZN8CAnaloplC2Et
adplug.so:_ZN8CDiskopl4initEv
adplug.so:_ZN8CDiskopl5writeEii
adplug.so:_ZN8CDiskopl6updateEP7CPlayer
adplug.so:_ZN8CDiskopl7setchipEi
adplug.so:_ZN8CDiskopl8op_tableE
adplug.so:_ZN8CDiskopl9diskwriteEii
adplug.so:_ZN8CDiskoplC1ENSt7__cxx1112basic_stringIcSt11char_traitsIcESaIcEEE
adplug.so:_ZN8CDiskoplC2ENSt7__cxx1112basic_stringIcSt11char_traitsIcESaIcEEE
adplug.so:_ZN8CDiskoplD0Ev
adplug.so:_ZN8CDiskoplD1Ev
adplug.so:_ZN8CDiskoplD2Ev
adplug.so:_ZN8CKemuopl4initEv
adplug.so:_ZN8CKemuopl5writeEii
adplug.so:_ZN8CKemuopl6updateEPsi
adplug.so:_ZN8CKemuoplC1Eibb
adplug.so:_ZN8CKemuoplC2Eibb
adplug.so:_ZN8CKemuoplD0Ev
adplug.so:_ZN8CKemuoplD1Ev
adplug.so:_ZN8CKemuoplD2Ev
adplug.so:_ZN8CNemuopl4initEv
adplug.so:_ZN8CNemuopl5writeEii
adplug.so:_ZN8CNemuopl6updateEPsi
adplug.so:_ZN8CNemuoplC1Ei
adplug.so:_ZN8CNemuoplC2Ei
adplug.so:_ZN8CNemuoplD0Ev
adplug.so:_ZN8CNemuoplD1Ev
adplug.so:_ZN8CNemuoplD2Ev
adplug.so:_ZN8CRealopl10harddetectEv
adplug.so:_ZN8CRealopl4initEv
adplug.so:_ZN8CRealopl5writeEii
adplug.so:_ZN8CRealopl6detectEv
adplug.so:_ZN8CRealopl8op_tableE
adplug.so:_ZN8CRealopl8setquietEb
adplug.so:_ZN8CRealopl9hardwriteEii
adplug.so:_ZN8CRealopl9setvolumeEi
adplug.so:_ZN8CRealoplC1Et
adplug.so:_ZN8CRealoplC2Et
adplug.so:_ZN8CTemuopl4initEv
adplug.so:_ZN8CTemuopl5writeEii
adplug.so:_ZN8CTemuopl6updateEPsi
adplug.so:_ZN8CTemuoplC1Eibb
adplug.so:_ZN8CTemuoplC2Eibb
adplug.so:_ZN8CTemuoplD0Ev
adplug.so:_ZN8CTemuoplD1Ev
adplug.so:_ZN8CTemuoplD2Ev
adplug.so:_ZN8Sixdepak10uncompressEv
adplug.so:_ZN8Sixdepak10updatefreqEtt
adplug.so:_ZN8Sixdepak11updatemodelEt
adplug.so:_ZN8Sixdepak6decodeEPtmPhm
adplug.so:_ZN8Sixdepak7copyminEt
adplug.so:_ZN8Sixdepak8bitvalueEt
adplug.so:_ZN8Sixdepak8copybitsEt
adplug.so:_ZN8Sixdepak8inittreeEv
adplug.so:_ZN8Sixdepak9do_decodeEv
adplug.so:_ZN8Sixdepak9inputcodeEt
adplug.so:_ZN8SixdepakC1EPtmPhm
adplug.so:_ZN8SixdepakC2EPtmPhm
adplug.so:_ZN8binfbase3posEv
adplug.so:_ZN8binfbase4seekElN5binio6OffsetE
adplug.so:_ZN8binfbase5closeEv
adplug.so:_ZN8binfbaseC2Ev
adplug.so:_ZN8binfbaseD0Ev
adplug.so:_ZN8binfbaseD1Ev
adplug.so:_ZN8binfbaseD2Ev
adplug.so:_ZN8binsbase3posEv
adplug.so:_ZN8binsbase4seekElN5binio6OffsetE
adplug.so:_ZN8binsbaseC1EPvm
adplug.so:_ZN8binsbaseC2EPvm
adplug.so:_ZN8binsbaseD0Ev
adplug.so:_ZN8binsbaseD1Ev
adplug.so:_ZN8binsbaseD2Ev
adplug.so:_ZN9RADPlayer10ContinueFXEiPNS_8CEffectsE
adplug.so:_ZN9RADPlayer10OpOffsets2E
adplug.so:_ZN9RADPlayer10OpOffsets3E
adplug.so:_ZN9RADPlayer10PortamentoEtPNS_8CEffectsEab
adplug.so:_ZN9RADPlayer10SkipToLineEPhhb
adplug.so:_ZN9RADPlayer10UnpackNoteERPhRh
adplug.so:_ZN9RADPlayer11AlgCarriersE
adplug.so:_ZN9RADPlayer11GetSlideDirEiPNS_8CEffectsE
adplug.so:_ZN9RADPlayer12ChanOffsets3E
adplug.so:_ZN9RADPlayer12Chn2Offsets3E
adplug.so:_ZN9RADPlayer12PlayNoteOPL3Eiaa
adplug.so:_ZN9RADPlayer16ComputeTotalTimeEv
adplug.so:_ZN9RADPlayer18LoadInstVolumeOPL3Eiih
adplug.so:_ZN9RADPlayer18LoadInstrumentOPL3Ei
adplug.so:_ZN9RADPlayer20LoadInstFeedbackOPL3Eiih
adplug.so:_ZN9RADPlayer22LoadInstMultiplierOPL3Eiih
adplug.so:_ZN9RADPlayer4InitEPKvPFvPvthES2_
adplug.so:_ZN9RADPlayer4StopEv
adplug.so:_ZN9RADPlayer6UpdateEv
adplug.so:_ZN9RADPlayer7ResetFXEPNS_8CEffectsE
adplug.so:_ZN9RADPlayer8GetTrackEv
adplug.so:_ZN9RADPlayer8NoteFreqE
adplug.so:_ZN9RADPlayer8NoteSizeE
adplug.so:_ZN9RADPlayer8PlayLineEv
adplug.so:_ZN9RADPlayer8PlayNoteEiaathhNS_8e_SourceEi
adplug.so:_ZN9RADPlayer8TickRiffEiRNS_8CChannel5CRiffEb
adplug.so:_ZN9RADPlayer9SetVolumeEih
adplug.so:_ZN9RADPlayer9TransposeEaa
adplug.so:_ZNK11AdLibDriver16isChannelPlayingEi
adplug.so:_ZNK11CPlayerDesc13get_extensionEj
adplug.so:_ZNK16CcomposerBackend13get_ins_indexERKNSt7__cxx1112basic_stringIcSt11char_traitsIcESaIcEEE
adplug.so:_ZNK16CcomposerBackend8GetKSLTLEi
adplug.so:_ZNK19CcmfmacsoperaPlayer14isValidChannelEi
adplug.so:_ZNK19CcmfmacsoperaPlayer15isRhythmChannelEi
adplug.so:_ZNK20CProvider_Filesystem4openENSt7__cxx1112basic_stringIcSt11char_traitsIcESaIcEEE
adplug.so:_ZNK20CProvider_Filesystem5closeEP10binistream
adplug.so:_ZNK8CPlayers15lookup_filetypeERKNSt7__cxx1112basic_stringIcSt11char_traitsIcESaIcEEE
adplug.so:_ZNK8CPlayers16lookup_extensionERKNSt7__cxx1112basic_stringIcSt11char_traitsIcESaIcEEE
adplug.so:_ZTC10binfstream0_10binistream
adplug.so:_ZTC10binfstream0_11binifstream
adplug.so:_ZTC10binfstream32_8binfbase
adplug.so:_ZTC10binfstream8_10binostream
adplug.so:_ZTC10binfstream8_11binofstream
adplug.so:_ZTC10binsstream0_10binistream
adplug.so:_ZTC10binsstream0_11binisstream
adplug.so:_ZTC10binsstream32_8binsbase
adplug.so:_ZTC10binsstream8_10binostream
adplug.so:_ZTC10binsstream8_11binosstream
adplug.so:_ZTC10binwstream0_10binistream
adplug.so:_ZTC10binwstream0_11biniwstream
adplug.so:_ZTC10binwstream16_10binostream
adplug.so:_ZTC10binwstream16_11binowstream
adplug.so:_ZTC11binifstream0_10binistream
adplug.so:_ZTC11binifstream24_8binfbase
adplug.so:_ZTC11binisstream0_10binistream
adplug.so:_ZTC11binisstream24_8binsbase
adplug.so:_ZTC11biniwstream0_10binistream
adplug.so:_ZTC11binofstream0_10binostream
adplug.so:_ZTC11binofstream24_8binfbase
adplug.so:_ZTC11binosstream0_10binostream
adplug.so:_ZTC11binosstream24_8binsbase
adplug.so:_ZTC11binowstream0_10binostream
adplug.so:_ZTI10Ca2mLoader
adplug.so:_ZTI10CadlPlayer
adplug.so:_ZTI10CamdLoader
adplug.so:_ZTI10CbamPlayer
adplug.so:_ZTI10CcffLoader
adplug.so:_ZTI10CcmfPlayer
adplug.so:_ZTI10Cd00Player
adplug.so:_ZTI10CdfmLoader
adplug.so:_ZTI10CdmoLoader
adplug.so:_ZTI10CdroPlayer
adplug.so:_ZTI10CdtmLoader
adplug.so:_ZTI10CfmcLoader
adplug.so:_ZTI10CgotPlayer
adplug.so:_ZTI10ChscPlayer
adplug.so:_ZTI10ChspLoader
adplug.so:_ZTI10CimfPlayer
adplug.so:_ZTI10CjbmPlayer
adplug.so:_ZTI10CksmPlayer
adplug.so:_ZTI10CldsPlayer
adplug.so:_ZTI10CmadLoader
adplug.so:_ZTI10CmdiPlayer
adplug.so:_ZTI10CmidPlayer
adplug.so:_ZTI10CmkjPlayer
adplug.so:_ZTI10CmodPlayer
adplug.so:_ZTI10CmscPlayer
adplug.so:_ZTI10CmtkLoader
adplug.so:_ZTI10CmtrLoader
adplug.so:_ZTI10CmusPlayer
adplug.so:_ZTI10CpisPlayer
adplug.so:_ZTI10CrawPlayer
adplug.so:_ZTI10CrixPlayer
adplug.so:_ZTI10CrolPlayer
adplug.so:_ZTI10Cs3mPlayer
adplug.so:_ZTI10Csa2Loader
adplug.so:_ZTI10CsngPlayer
adplug.so:_ZTI10CsopPlayer
adplug.so:_ZTI10Cu6mPlayer
adplug.so:_ZTI10CvgmPlayer
adplug.so:_ZTI10CxadPlayer
adplug.so:_ZTI10CxsmPlayer
adplug.so:_ZTI10binfstream
adplug.so:_ZTI10binistream
adplug.so:_ZTI10binostream
adplug.so:_ZTI10binsstream
adplug.so:_ZTI10binwstream
adplug.so:_ZTI11CInfoRecord
adplug.so:_ZTI11Cdro2Player
adplug.so:_ZTI11Crad2Player
adplug.so:_ZTI11binifstream
adplug.so:_ZTI11binisstream
adplug.so:_ZTI11biniwstream
adplug.so:_ZTI11binofstream
adplug.so:_ZTI11binosstream
adplug.so:_ZTI11binowstream
adplug.so:_ZTI12CClockRecord
adplug.so:_ZTI12CSurroundopl
adplug.so:_ZTI12Ca2mv2Player
adplug.so:_ZTI12CheradPlayer
adplug.so:_ZTI13CcoktelPlayer
adplug.so:_ZTI13CxadbmfPlayer
adplug.so:_ZTI13CxadhypPlayer
adplug.so:_ZTI13CxadpsiPlayer
adplug.so:_ZTI13CxadratPlayer
adplug.so:_ZTI14CadtrackLoader
adplug.so:_ZTI15CxadflashPlayer
adplug.so:_ZTI16CcomposerBackend
adplug.so:_ZTI16CxadhybridPlayer
adplug.so:_ZTI19CcmfmacsoperaPlayer
adplug.so:_ZTI20CProvider_Filesystem
adplug.so:_ZTI5binio
adplug.so:_ZTI7CEmuopl
adplug.so:_ZTI7CPlayer
adplug.so:_ZTI8CAnalopl
adplug.so:_ZTI8CDiskopl
adplug.so:_ZTI8CKemuopl
adplug.so:_ZTI8CNemuopl
adplug.so:_ZTI8CRealopl
adplug.so:_ZTI8CTemuopl
adplug.so:_ZTI8binfbase
adplug.so:_ZTI8binsbase
adplug.so:_ZTS10Ca2mLoader
adplug.so:_ZTS10CadlPlayer
adplug.so:_ZTS10CamdLoader
adplug.so:_ZTS10CbamPlayer
adplug.so:_ZTS10CcffLoader
adplug.so:_ZTS10CcmfPlayer
adplug.so:_ZTS10Cd00Player
adplug.so:_ZTS10CdfmLoader
adplug.so:_ZTS10CdmoLoader
adplug.so:_ZTS10CdroPlayer
adplug.so:_ZTS10CdtmLoader
adplug.so:_ZTS10CfmcLoader
adplug.so:_ZTS10CgotPlayer
adplug.so:_ZTS10ChscPlayer
adplug.so:_ZTS10ChspLoader
adplug.so:_ZTS10CimfPlayer
adplug.so:_ZTS10CjbmPlayer
adplug.so:_ZTS10CksmPlayer
adplug.so:_ZTS10CldsPlayer
adplug.so:_ZTS10CmadLoader
adplug.so:_ZTS10CmdiPlayer
adplug.so:_ZTS10CmidPlayer
adplug.so:_ZTS10CmkjPlayer
adplug.so:_ZTS10CmodPlayer
adplug.so:_ZTS10CmscPlayer
adplug.so:_ZTS10CmtkLoader
adplug.so:_ZTS10CmtrLoader
adplug.so:_ZTS10CmusPlayer
adplug.so:_ZTS10CpisPlayer
adplug.so:_ZTS10CrawPlayer
adplug.so:_ZTS10CrixPlayer
adplug.so:_ZTS10CrolPlayer
adplug.so:_ZTS10Cs3mPlayer
adplug.so:_ZTS10Csa2Loader
adplug.so:_ZTS10CsngPlayer
adplug.so:_ZTS10CsopPlayer
adplug.so:_ZTS10Cu6mPlayer
adplug.so:_ZTS10CvgmPlayer
adplug.so:_ZTS10CxadPlayer
adplug.so:_ZTS10CxsmPlayer
adplug.so:_ZTS10binfstream
adplug.so:_ZTS10binistream
adplug.so:_ZTS10binostream
adplug.so:_ZTS10binsstream
adplug.so:_ZTS10binwstream
adplug.so:_ZTS11CInfoRecord
adplug.so:_ZTS11Cdro2Player
adplug.so:_ZTS11Crad2Player
adplug.so:_ZTS11binifstream
adplug.so:_ZTS11binisstream
adplug.so:_ZTS11biniwstream
adplug.so:_ZTS11binofstream
adplug.so:_ZTS11binosstream
adplug.so:_ZTS11binowstream
adplug.so:_ZTS12CClockRecord
adplug.so:_ZTS12CSurroundopl
adplug.so:_ZTS12Ca2mv2Player
adplug.so:_ZTS12CheradPlayer
adplug.so:_ZTS13CcoktelPlayer
adplug.so:_ZTS13CxadbmfPlayer
adplug.so:_ZTS13CxadhypPlayer
adplug.so:_ZTS13CxadpsiPlayer
adplug.so:_ZTS13CxadratPlayer
adplug.so:_ZTS14CadtrackLoader
adplug.so:_ZTS15CxadflashPlayer
adplug.so:_ZTS16CcomposerBackend
adplug.so:_ZTS16CxadhybridPlayer
adplug.so:_ZTS19CcmfmacsoperaPlayer
adplug.so:_ZTS20CProvider_Filesystem
adplug.so:_ZTS5binio
adplug.so:_ZTS7CEmuopl
adplug.so:_ZTS7CPlayer
adplug.so:_ZTS8CAnalopl
adplug.so:_ZTS8CDiskopl
adplug.so:_ZTS8CKemuopl
adplug.so:_ZTS8CNemuopl
adplug.so:_ZTS8CRealopl
adplug.so:_ZTS8CTemuopl
adplug.so:_ZTS8binfbase
adplug.so:_ZTS8binsbase
adplug.so:_ZTT10binfstream
adplug.so:_ZTT10binistream
adplug.so:_ZTT10binostream
adplug.so:_ZTT10binsstream
adplug.so:_ZTT10binwstream
adplug.so:_ZTT11binifstream
adplug.so:_ZTT11binisstream
adplug.so:_ZTT11biniwstream
adplug.so:_ZTT11binofstream
adplug.so:_ZTT11binosstream
adplug.so:_ZTT11binowstream
adplug.so:_ZTT8binfbase
adplug.so:_ZTT8binsbase
adplug.so:_ZTV10Ca2mLoader
adplug.so:_ZTV10CadlPlayer
adplug.so:_ZTV10CamdLoader
adplug.so:_ZTV10CbamPlayer
adplug.so:_ZTV10CcffLoader
adplug.so:_ZTV10CcmfPlayer
adplug.so:_ZTV10Cd00Player
adplug.so:_ZTV10CdfmLoader
adplug.so:_ZTV10CdmoLoader
adplug.so:_ZTV10CdroPlayer
adplug.so:_ZTV10CdtmLoader
adplug.so:_ZTV10CfmcLoader
adplug.so:_ZTV10CgotPlayer
adplug.so:_ZTV10ChscPlayer
adplug.so:_ZTV10ChspLoader
adplug.so:_ZTV10CimfPlayer
adplug.so:_ZTV10CjbmPlayer
adplug.so:_ZTV10CksmPlayer
adplug.so:_ZTV10CldsPlayer
adplug.so:_ZTV10CmadLoader
adplug.so:_ZTV10CmdiPlayer
adplug.so:_ZTV10CmidPlayer
adplug.so:_ZTV10CmkjPlayer
adplug.so:_ZTV10CmodPlayer
adplug.so:_ZTV10CmscPlayer
adplug.so:_ZTV10CmtkLoader
adplug.so:_ZTV10CmtrLoader
adplug.so:_ZTV10CmusPlayer
adplug.so:_ZTV10CpisPlayer
adplug.so:_ZTV10CrawPlayer
adplug.so:_ZTV10CrixPlayer
adplug.so:_ZTV10CrolPlayer
adplug.so:_ZTV10Cs3mPlayer
adplug.so:_ZTV10Csa2Loader
adplug.so:_ZTV10CsngPlayer
adplug.so:_ZTV10CsopPlayer
adplug.so:_ZTV10Cu6mPlayer
adplug.so:_ZTV10CvgmPlayer
adplug.so:_ZTV10CxadPlayer
adplug.so:_ZTV10CxsmPlayer
adplug.so:_ZTV10binfstream
adplug.so:_ZTV10binistream
adplug.so:_ZTV10binostream
adplug.so:_ZTV10binsstream
adplug.so:_ZTV10binwstream
adplug.so:_ZTV11CInfoRecord
adplug.so:_ZTV11Cdro2Player
adplug.so:_ZTV11Crad2Player
adplug.so:_ZTV11binifstream
adplug.so:_ZTV11binisstream
adplug.so:_ZTV11biniwstream
adplug.so:_ZTV11binofstream
adplug.so:_ZTV11binosstream
adplug.so:_ZTV11binowstream
adplug.so:_ZTV12CClockRecord
adplug.so:_ZTV12CSurroundopl
adplug.so:_ZTV12Ca2mv2Player
adplug.so:_ZTV12CheradPlayer
adplug.so:_ZTV13CcoktelPlayer
adplug.so:_ZTV13CxadbmfPlayer
adplug.so:_ZTV13CxadhypPlayer
adplug.so:_ZTV13CxadpsiPlayer
adplug.so:_ZTV13CxadratPlayer
adplug.so:_ZTV14CadtrackLoader
adplug.so:_ZTV15CxadflashPlayer
adplug.so:_ZTV16CcomposerBackend
adplug.so:_ZTV16CxadhybridPlayer
adplug.so:_ZTV19CcmfmacsoperaPlayer
adplug.so:_ZTV20CProvider_Filesystem
adplug.so:_ZTV5binio
adplug.so:_ZTV7CEmuopl
adplug.so:_ZTV7CPlayer
adplug.so:_ZTV8CAnalopl
adplug.so:_ZTV8CDiskopl
adplug.so:_ZTV8CKemuopl
adplug.so:_ZTV8CNemuopl
adplug.so:_ZTV8CRealopl
adplug.so:_ZTV8CTemuopl
adplug.so:_ZTV8binfbase
adplug.so:_ZTV8binsbase
adplug.so:_ZThn16_N10binwstream3posEv
adplug.so:_ZThn16_N10binwstream4seekElN5binio6OffsetE
adplug.so:_ZThn16_N10binwstream7putByteEh
adplug.so:_ZThn16_N10binwstreamD0Ev
adplug.so:_ZThn16_N10binwstreamD1Ev
adplug.so:_ZThn8_N10binfstream4openEPKci
adplug.so:_ZThn8_N10binfstream4openERKNSt7__cxx1112basic_stringIcSt11char_traitsIcESaIcEEEi
adplug.so:_ZThn8_N10binfstreamD0Ev
adplug.so:_ZThn8_N10binfstreamD1Ev
adplug.so:_ZThn8_N10binsstreamD0Ev
adplug.so:_ZThn8_N10binsstreamD1Ev
adplug.so:_ZTv0_n24_N10binfstreamD0Ev
adplug.so:_ZTv0_n24_N10binfstreamD1Ev
adplug.so:_ZTv0_n24_N10binistreamD0Ev
adplug.so:_ZTv0_n24_N10binistreamD1Ev
adplug.so:_ZTv0_n24_N10binostreamD0Ev
adplug.so:_ZTv0_n24_N10binostreamD1Ev
adplug.so:_ZTv0_n24_N10binsstreamD0Ev
adplug.so:_ZTv0_n24_N10binsstreamD1Ev
adplug.so:_ZTv0_n24_N10binwstreamD0Ev
adplug.so:_ZTv0_n24_N10binwstreamD1Ev
adplug.so:_ZTv0_n24_N11binifstreamD0Ev
adplug.so:_ZTv0_n24_N11binifstreamD1Ev
adplug.so:_ZTv0_n24_N11binisstreamD0Ev
adplug.so:_ZTv0_n24_N11binisstreamD1Ev
adplug.so:_ZTv0_n24_N11biniwstreamD0Ev
adplug.so:_ZTv0_n24_N11biniwstreamD1Ev
adplug.so:_ZTv0_n24_N11binofstreamD0Ev
adplug.so:_ZTv0_n24_N11binofstreamD1Ev
adplug.so:_ZTv0_n24_N11binosstreamD0Ev
adplug.so:_ZTv0_n24_N11binosstreamD1Ev
adplug.so:_ZTv0_n24_N11binowstreamD0Ev
adplug.so:_ZTv0_n24_N11binowstreamD1Ev
adplug.so:_ZTv0_n24_N8binfbaseD0Ev
adplug.so:_ZTv0_n24_N8binfbaseD1Ev
adplug.so:_ZTv0_n24_N8binsbaseD0Ev
adplug.so:_ZTv0_n24_N8binsbaseD1Ev
adplug.so:_ZTv0_n32_N10binfstreamD0Ev
adplug.so:_ZTv0_n32_N10binfstreamD1Ev
adplug.so:_ZTv0_n32_N10binsstreamD0Ev
adplug.so:_ZTv0_n32_N10binsstreamD1Ev
adplug.so:_ZTv0_n32_N10binwstream4seekElN5binio6OffsetE
adplug.so:_ZTv0_n32_N11binifstreamD0Ev
adplug.so:_ZTv0_n32_N11binifstreamD1Ev
adplug.so:_ZTv0_n32_N11binisstreamD0Ev
adplug.so:_ZTv0_n32_N11binisstreamD1Ev
adplug.so:_ZTv0_n32_N11biniwstream4seekElN5binio6OffsetE
adplug.so:_ZTv0_n32_N11binofstreamD0Ev
adplug.so:_ZTv0_n32_N11binofstreamD1Ev
adplug.so:_ZTv0_n32_N11binosstreamD0Ev
adplug.so:_ZTv0_n32_N11binosstreamD1Ev
adplug.so:_ZTv0_n32_N11binowstream4seekElN5binio6OffsetE
adplug.so:_ZTv0_n32_N8binfbase4seekElN5binio6OffsetE
adplug.so:_ZTv0_n32_N8binsbase4seekElN5binio6OffsetE
adplug.so:_ZTv0_n40_N10binfstream4openEPKci
adplug.so:_ZTv0_n40_N10binwstream3posEv
adplug.so:_ZTv0_n40_N11binifstream4openEPKci
adplug.so:_ZTv0_n40_N11biniwstream3posEv
adplug.so:_ZTv0_n40_N11binofstream4openEPKci
adplug.so:_ZTv0_n40_N11binowstream3posEv
adplug.so:_ZTv0_n40_N8binfbase3posEv
adplug.so:_ZTv0_n40_N8binsbase3posEv
adplug.so:_ZTv0_n48_N10binfstream4openERKNSt7__cxx1112basic_stringIcSt11char_traitsIcESaIcEEEi
adplug.so:_ZTv0_n48_N11binifstream4openERKNSt7__cxx1112basic_stringIcSt11char_traitsIcESaIcEEEi
adplug.so:_ZTv0_n48_N11binofstream4openERKNSt7__cxx1112basic_stringIcSt11char_traitsIcESaIcEEEi
adplug.so:aP_depack
adplug.so:adlib0
adplug.so:adlibgetsample
adplug.so:adlibinit
adplug.so:adlibsetvolume
adplug.so:adplug_create_opl
adplug.so:adplug_exts
adplug.so:adplug_filetypes
adplug.so:adplug_free
adplug.so:adplug_init
adplug.so:adplug_insert
adplug.so:adplug_load
adplug.so:adplug_open
adplug.so:adplug_plugin
adplug.so:adplug_read
adplug.so:adplug_seek
adplug.so:adplug_seek_sample
adplug.so:adplug_start
adplug.so:adplug_stop
adplug.so:ams_table
adplug.so:deadbeef
adplug.so:input_buffer
adplug.so:input_buffer_idx
adplug.so:input_buffer_size
adplug.so:opfuncs
adplug.so:output_buffer
adplug.so:output_buffer_idx
adplug.so:vib_table
adplug.so:write_buf
alac.so:_adjust_varstring_len
alac.so:_esds_tag_written_size
alac.so:alac_file_free
alac.so:alac_get_bitspersample
alac.so:alac_get_samplerate
alac.so:alac_load
alac.so:alac_set_info
alac.so:alacplug_free
alac.so:alacplug_init
alac.so:alacplug_insert
alac.so:alacplug_open
alac.so:alacplug_read
alac.so:create_alac
alac.so:deadbeef
alac.so:decode_frame
alac.so:deinterlace_16
alac.so:deinterlace_24
alac.so:entropy_decode_value
alac.so:entropy_rice_decode
alac.so:host_bigendian
alac.so:mp4_get_cover_atom
alac.so:mp4_init_ddb_file_callbacks
alac.so:mp4_load_tags
alac.so:mp4_read_metadata
alac.so:mp4_read_metadata_file
alac.so:mp4_write_metadata
alac.so:mp4p_Opus_atomdata_free
alac.so:mp4p_Opus_atomdata_read
alac.so:mp4p_Opus_atomdata_write
alac.so:mp4p_alac_atomdata_free
alac.so:mp4p_alac_atomdata_read
alac.so:mp4p_alac_atomdata_write
alac.so:mp4p_atom_append
alac.so:mp4p_atom_clone
alac.so:mp4p_atom_clone_list
alac.so:mp4p_atom_dump
alac.so:mp4p_atom_find
alac.so:mp4p_atom_free
alac.so:mp4p_atom_free_list
alac.so:mp4p_atom_init
alac.so:mp4p_atom_insert
alac.so:mp4p_atom_meta_find_custom
alac.so:mp4p_atom_new
alac.so:mp4p_atom_remove_sibling
alac.so:mp4p_atom_remove_subatom
alac.so:mp4p_atom_subatom_count
alac.so:mp4p_atom_to_buffer
alac.so:mp4p_atom_type_compare
alac.so:mp4p_atom_type_invalid
alac.so:mp4p_atom_update_size
alac.so:mp4p_chap_atomdata_free
alac.so:mp4p_chap_atomdata_read
alac.so:mp4p_chap_atomdata_write
alac.so:mp4p_chpl_atomdata_free
alac.so:mp4p_chpl_atomdata_read
alac.so:mp4p_chpl_atomdata_write
alac.so:mp4p_co64_atomdata_free
alac.so:mp4p_co64_atomdata_read
alac.so:mp4p_co64_atomdata_write
alac.so:mp4p_dOps_atomdata_free
alac.so:mp4p_dOps_atomdata_read
alac.so:mp4p_dOps_atomdata_write
alac.so:mp4p_dbg_dump_atom
alac.so:mp4p_dref_atomdata_free
alac.so:mp4p_dref_atomdata_read
alac.so:mp4p_dref_atomdata_write
alac.so:mp4p_esds_atomdata_free
alac.so:mp4p_esds_atomdata_read
alac.so:mp4p_esds_atomdata_write
alac.so:mp4p_file_close
alac.so:mp4p_file_open_read
alac.so:mp4p_file_open_readwrite
alac.so:mp4p_fourcc_compare
alac.so:mp4p_genre_index_for_name
alac.so:mp4p_genre_name_for_index
alac.so:mp4p_hdlr_atomdata_free
alac.so:mp4p_hdlr_atomdata_read
alac.so:mp4p_hdlr_atomdata_write
alac.so:mp4p_hdlr_init
alac.so:mp4p_ilst_create_custom
alac.so:mp4p_ilst_create_genre
alac.so:mp4p_ilst_create_text
alac.so:mp4p_ilst_create_track_disc
alac.so:mp4p_ilst_meta_atomdata_free
alac.so:mp4p_ilst_meta_atomdata_read
alac.so:mp4p_ilst_meta_atomdata_write
alac.so:mp4p_mdhd_atomdata_free
alac.so:mp4p_mdhd_atomdata_read
alac.so:mp4p_mdhd_atomdata_write
alac.so:mp4p_meta_atomdata_free
alac.so:mp4p_meta_atomdata_read
alac.so:mp4p_meta_atomdata_write
alac.so:mp4p_meta_create_atom
alac.so:mp4p_mp4a_atomdata_free
alac.so:mp4p_mp4a_atomdata_read
alac.so:mp4p_mp4a_atomdata_write
alac.so:mp4p_mvhd_atomdata_free
alac.so:mp4p_mvhd_atomdata_read
alac.so:mp4p_mvhd_atomdata_write
alac.so:mp4p_open
alac.so:mp4p_rebuild_positions
alac.so:mp4p_sample_offset
alac.so:mp4p_sample_size
alac.so:mp4p_smhd_atomdata_free
alac.so:mp4p_smhd_atomdata_read
alac.so:mp4p_smhd_atomdata_write
alac.so:mp4p_stco_atomdata_free
alac.so:mp4p_stco_atomdata_read
alac.so:mp4p_stco_atomdata_write
alac.so:mp4p_stsc_atomdata_free
alac.so:mp4p_stsc_atomdata_read
alac.so:mp4p_stsc_atomdata_write
alac.so:mp4p_stsd_atomdata_free
alac.so:mp4p_stsd_atomdata_read
alac.so:mp4p_stsd_atomdata_write
alac.so:mp4p_stsz_atomdata_free
alac.so:mp4p_stsz_atomdata_read
alac.so:mp4p_stsz_atomdata_write
alac.so:mp4p_stts_atomdata_free
alac.so:mp4p_stts_atomdata_read
alac.so:mp4p_stts_atomdata_write
alac.so:mp4p_stts_mp4sample_containing_sample
alac.so:mp4p_stts_sample_duration
alac.so:mp4p_stts_total_num_samples
alac.so:mp4p_stts_total_sample_duration
alac.so:mp4p_tkhd_atomdata_free
alac.so:mp4p_tkhd_atomdata_read
alac.so:mp4p_tkhd_atomdata_write
alac.so:mp4p_trak_has_chapters
alac.so:mp4p_trak_playable
alac.so:mp4p_update_metadata
alac.so:mp4tagutil_modify_meta
alac.so:read_esds_tag_size
alac.so:se_struct_24
alac.so:write_esds_tag_size
alsa.so:alsa_load
alsa.so:deadbeef
artwork.so:Base64decode
artwork.so:Base64decode_len
artwork.so:Base64encode
artwork.so:Base64encode_len
artwork.so:_adjust_varstring_len
artwork.so:_esds_tag_written_size
artwork.so:artwork_abort_all_http_requests
artwork.so:artwork_http_request
artwork.so:artwork_load
artwork.so:artwork_remove_listener
artwork.so:artwork_save_to_music_folders
artwork.so:cache_configchanged
artwork.so:copy_file
artwork.so:cover_info_alloc
artwork.so:cover_info_cleanup
artwork.so:cover_info_ref
artwork.so:cover_info_release
artwork.so:deadbeef
artwork.so:ensure_dir
artwork.so:fetch_from_albumart_org
artwork.so:fetch_from_lastfm
artwork.so:fetch_from_musicbrainz
artwork.so:fetch_from_wos
artwork.so:flac_extract_art
artwork.so:make_cache_root_path
artwork.so:mp4_get_cover_atom
artwork.so:mp4_init_ddb_file_callbacks
artwork.so:mp4_load_tags
artwork.so:mp4_read_metadata
artwork.so:mp4_read_metadata_file
artwork.so:mp4_write_metadata
artwork.so:mp4p_Opus_atomdata_free
artwork.so:mp4p_Opus_atomdata_read
artwork.so:mp4p_Opus_atomdata_write
artwork.so:mp4p_alac_atomdata_free
artwork.so:mp4p_alac_atomdata_read
artwork.so:mp4p_alac_atomdata_write
artwork.so:mp4p_atom_append
artwork.so:mp4p_atom_clone
artwork.so:mp4p_atom_clone_list
artwork.so:mp4p_atom_dump
artwork.so:mp4p_atom_find
artwork.so:mp4p_atom_free
artwork.so:mp4p_atom_free_list
artwork.so:mp4p_atom_init
artwork.so:mp4p_atom_insert
artwork.so:mp4p_atom_meta_find_custom
artwork.so:mp4p_atom_new
artwork.so:mp4p_atom_remove_sibling
artwork.so:mp4p_atom_remove_subatom
artwork.so:mp4p_atom_subatom_count
artwork.so:mp4p_atom_to_buffer
artwork.so:mp4p_atom_type_compare
artwork.so:mp4p_atom_type_invalid
artwork.so:mp4p_atom_update_size
artwork.so:mp4p_chap_atomdata_free
artwork.so:mp4p_chap_atomdata_read
artwork.so:mp4p_chap_atomdata_write
artwork.so:mp4p_chpl_atomdata_free
artwork.so:mp4p_chpl_atomdata_read
artwork.so:mp4p_chpl_atomdata_write
artwork.so:mp4p_co64_atomdata_free
artwork.so:mp4p_co64_atomdata_read
artwork.so:mp4p_co64_atomdata_write
artwork.so:mp4p_dOps_atomdata_free
artwork.so:mp4p_dOps_atomdata_read
artwork.so:mp4p_dOps_atomdata_write
artwork.so:mp4p_dbg_dump_atom
artwork.so:mp4p_dref_atomdata_free
artwork.so:mp4p_dref_atomdata_read
artwork.so:mp4p_dref_atomdata_write
artwork.so:mp4p_esds_atomdata_free
artwork.so:mp4p_esds_atomdata_read
artwork.so:mp4p_esds_atomdata_write
artwork.so:mp4p_file_close
artwork.so:mp4p_file_open_read
artwork.so:mp4p_file_open_readwrite
artwork.so:mp4p_fourcc_compare
artwork.so:mp4p_genre_index_for_name
artwork.so:mp4p_genre_name_for_index
artwork.so:mp4p_hdlr_atomdata_free
artwork.so:mp4p_hdlr_atomdata_read
artwork.so:mp4p_hdlr_atomdata_write
artwork.so:mp4p_hdlr_init
artwork.so:mp4p_ilst_create_custom
artwork.so:mp4p_ilst_create_genre
artwork.so:mp4p_ilst_create_text
artwork.so:mp4p_ilst_create_track_disc
artwork.so:mp4p_ilst_meta_atomdata_free
artwork.so:mp4p_ilst_meta_atomdata_read
artwork.so:mp4p_ilst_meta_atomdata_write
artwork.so:mp4p_mdhd_atomdata_free
artwork.so:mp4p_mdhd_atomdata_read
artwork.so:mp4p_mdhd_atomdata_write
artwork.so:mp4p_meta_atomdata_free
artwork.so:mp4p_meta_atomdata_read
artwork.so:mp4p_meta_atomdata_write
artwork.so:mp4p_meta_create_atom
artwork.so:mp4p_mp4a_atomdata_free
artwork.so:mp4p_mp4a_atomdata_read
artwork.so:mp4p_mp4a_atomdata_write
artwork.so:mp4p_mvhd_atomdata_free
artwork.so:mp4p_mvhd_atomdata_read
artwork.so:mp4p_mvhd_atomdata_write
artwork.so:mp4p_open
artwork.so:mp4p_rebuild_positions
artwork.so:mp4p_sample_offset
artwork.so:mp4p_sample_size
artwork.so:mp4p_smhd_atomdata_free
artwork.so:mp4p_smhd_atomdata_read
artwork.so:mp4p_smhd_atomdata_write
artwork.so:mp4p_stco_atomdata_free
artwork.so:mp4p_stco_atomdata_read
artwork.so:mp4p_stco_atomdata_write
artwork.so:mp4p_stsc_atomdata_free
artwork.so:mp4p_stsc_atomdata_read
artwork.so:mp4p_stsc_atomdata_write
artwork.so:mp4p_stsd_atomdata_free
artwork.so:mp4p_stsd_atomdata_read
artwork.so:mp4p_stsd_atomdata_write
artwork.so:mp4p_stsz_atomdata_free
artwork.so:mp4p_stsz_atomdata_read
artwork.so:mp4p_stsz_atomdata_write
artwork.so:mp4p_stts_atomdata_free
artwork.so:mp4p_stts_atomdata_read
artwork.so:mp4p_stts_atomdata_write
artwork.so:mp4p_stts_mp4sample_containing_sample
artwork.so:mp4p_stts_sample_duration
artwork.so:mp4p_stts_total_num_samples
artwork.so:mp4p_stts_total_sample_duration
artwork.so:mp4p_tkhd_atomdata_free
artwork.so:mp4p_tkhd_atomdata_read
artwork.so:mp4p_tkhd_atomdata_write
artwork.so:mp4p_trak_has_chapters
artwork.so:mp4p_trak_playable
artwork.so:mp4p_update_metadata
artwork.so:mp4tagutil_modify_meta
artwork.so:ogg_extract_art
artwork.so:plugin
artwork.so:read_esds_tag_size
artwork.so:remove_cache_item
artwork.so:start_cache_cleaner
artwork.so:stop_cache_cleaner
artwork.so:strcopy_escape
artwork.so:sync_queue
artwork.so:uri_escape
artwork.so:write_esds_tag_size
artwork.so:write_file
cdda.so:cdda_load
converter.so:_adjust_varstring_len
converter.so:_esds_tag_written_size
converter.so:converter_cmd
converter.so:converter_load
converter.so:converter_start
converter.so:converter_stop
converter.so:deadbeef
converter.so:dsp_preset_alloc
converter.so:dsp_preset_append
converter.so:dsp_preset_copy
converter.so:dsp_preset_free
converter.so:dsp_preset_get_for_idx
converter.so:dsp_preset_get_list
converter.so:dsp_preset_load
converter.so:dsp_preset_remove
converter.so:dsp_preset_replace
converter.so:dsp_preset_save
converter.so:encoder_preset_alloc
converter.so:encoder_preset_append
converter.so:encoder_preset_copy
converter.so:encoder_preset_free
converter.so:encoder_preset_get_for_idx
converter.so:encoder_preset_get_list
converter.so:encoder_preset_load
converter.so:encoder_preset_remove
converter.so:encoder_preset_replace
converter.so:encoder_preset_save
converter.so:free_dsp_presets
converter.so:free_encoder_presets
converter.so:get_output_path
converter.so:get_output_path2
converter.so:load_dsp_presets
converter.so:load_encoder_presets
converter.so:mp4_get_cover_atom
converter.so:mp4_init_ddb_file_callbacks
converter.so:mp4_load_tags
converter.so:mp4_read_metadata
converter.so:mp4_read_metadata_file
converter.so:mp4_write_metadata
converter.so:mp4p_Opus_atomdata_free
converter.so:mp4p_Opus_atomdata_read
converter.so:mp4p_Opus_atomdata_write
converter.so:mp4p_alac_atomdata_free
converter.so:mp4p_alac_atomdata_read
converter.so:mp4p_alac_atomdata_write
converter.so:mp4p_atom_append
converter.so:mp4p_atom_clone
converter.so:mp4p_atom_clone_list
converter.so:mp4p_atom_dump
converter.so:mp4p_atom_find
converter.so:mp4p_atom_free
converter.so:mp4p_atom_free_list
converter.so:mp4p_atom_init
converter.so:mp4p_atom_insert
converter.so:mp4p_atom_meta_find_custom
converter.so:mp4p_atom_new
converter.so:mp4p_atom_remove_sibling
converter.so:mp4p_atom_remove_subatom
converter.so:mp4p_atom_subatom_count
converter.so:mp4p_atom_to_buffer
converter.so:mp4p_atom_type_compare
converter.so:mp4p_atom_type_invalid
converter.so:mp4p_atom_update_size
converter.so:mp4p_chap_atomdata_free
converter.so:mp4p_chap_atomdata_read
converter.so:mp4p_chap_atomdata_write
converter.so:mp4p_chpl_atomdata_free
converter.so:mp4p_chpl_atomdata_read
converter.so:mp4p_chpl_atomdata_write
converter.so:mp4p_co64_atomdata_free
converter.so:mp4p_co64_atomdata_read
converter.so:mp4p_co64_atomdata_write
converter.so:mp4p_dOps_atomdata_free
converter.so:mp4p_dOps_atomdata_read
converter.so:mp4p_dOps_atomdata_write
converter.so:mp4p_dbg_dump_atom
converter.so:mp4p_dref_atomdata_free
converter.so:mp4p_dref_atomdata_read
converter.so:mp4p_dref_atomdata_write
converter.so:mp4p_esds_atomdata_free
converter.so:mp4p_esds_atomdata_read
converter.so:mp4p_esds_atomdata_write
converter.so:mp4p_file_close
converter.so:mp4p_file_open_read
converter.so:mp4p_file_open_readwrite
converter.so:mp4p_fourcc_compare
converter.so:mp4p_genre_index_for_name
converter.so:mp4p_genre_name_for_index
converter.so:mp4p_hdlr_atomdata_free
converter.so:mp4p_hdlr_atomdata_read
converter.so:mp4p_hdlr_atomdata_write
converter.so:mp4p_hdlr_init
converter.so:mp4p_ilst_create_custom
converter.so:mp4p_ilst_create_genre
converter.so:mp4p_ilst_create_text
converter.so:mp4p_ilst_create_track_disc
converter.so:mp4p_ilst_meta_atomdata_free
converter.so:mp4p_ilst_meta_atomdata_read
converter.so:mp4p_ilst_meta_atomdata_write
converter.so:mp4p_mdhd_atomdata_free
converter.so:mp4p_mdhd_atomdata_read
converter.so:mp4p_mdhd_atomdata_write
converter.so:mp4p_meta_atomdata_free
converter.so:mp4p_meta_atomdata_read
converter.so:mp4p_meta_atomdata_write
converter.so:mp4p_meta_create_atom
converter.so:mp4p_mp4a_atomdata_free
converter.so:mp4p_mp4a_atomdata_read
converter.so:mp4p_mp4a_atomdata_write
converter.so:mp4p_mvhd_atomdata_free
converter.so:mp4p_mvhd_atomdata_read
converter.so:mp4p_mvhd_atomdata_write
converter.so:mp4p_open
converter.so:mp4p_rebuild_positions
converter.so:mp4p_sample_offset
converter.so:mp4p_sample_size
converter.so:mp4p_smhd_atomdata_free
converter.so:mp4p_smhd_atomdata_read
converter.so:mp4p_smhd_atomdata_write
converter.so:mp4p_stco_atomdata_free
converter.so:mp4p_stco_atomdata_read
converter.so:mp4p_stco_atomdata_write
converter.so:mp4p_stsc_atomdata_free
converter.so:mp4p_stsc_atomdata_read
converter.so:mp4p_stsc_atomdata_write
converter.so:mp4p_stsd_atomdata_free
converter.so:mp4p_stsd_atomdata_read
converter.so:mp4p_stsd_atomdata_write
converter.so:mp4p_stsz_atomdata_free
converter.so:mp4p_stsz_atomdata_read
converter.so:mp4p_stsz_atomdata_write
converter.so:mp4p_stts_atomdata_free
converter.so:mp4p_stts_atomdata_read
converter.so:mp4p_stts_atomdata_write
converter.so:mp4p_stts_mp4sample_containing_sample
converter.so:mp4p_stts_sample_duration
converter.so:mp4p_stts_total_num_samples
converter.so:mp4p_stts_total_sample_duration
converter.so:mp4p_tkhd_atomdata_free
converter.so:mp4p_tkhd_atomdata_read
converter.so:mp4p_tkhd_atomdata_write
converter.so:mp4p_trak_has_chapters
converter.so:mp4p_trak_playable
converter.so:mp4p_update_metadata
converter.so:mp4tagutil_modify_meta
converter.so:read_esds_tag_size
converter.so:scandir_preset_filter
converter.so:write_esds_tag_size
converter_gtk3.so:add_pixmap_directory
converter_gtk3.so:converter_gtk3_load
converter_gtk3.so:converter_plugin
converter_gtk3.so:converter_process
converter_gtk3.so:create_converterdlg
converter_gtk3.so:create_convpreset_editor
converter_gtk3.so:create_dsppreset_editor
converter_gtk3.so:create_pixbuf
converter_gtk3.so:create_pixmap
converter_gtk3.so:create_preset_list
converter_gtk3.so:create_select_dsp_plugin
converter_gtk3.so:current_ctx
converter_gtk3.so:deadbeef
converter_gtk3.so:dsp_ctx_get_param
converter_gtk3.so:dsp_ctx_set_param
converter_gtk3.so:edit_dsp_preset
converter_gtk3.so:edit_encoder_preset
converter_gtk3.so:encoder_cmdline_help_link_create
converter_gtk3.so:fill_dsp_plugin_list
converter_gtk3.so:fill_dsp_preset_chain
converter_gtk3.so:glade_set_atk_action_description
converter_gtk3.so:gtk_combo_box_entry_new_text
converter_gtk3.so:gtk_dialog_set_has_separator
converter_gtk3.so:gtkui_plugin
converter_gtk3.so:init_encoder_preset_from_dlg
converter_gtk3.so:lookup_widget
converter_gtk3.so:on_bypass_same_format_toggled
converter_gtk3.so:on_converter_dsp_preset_changed
converter_gtk3.so:on_converter_encoder_changed
converter_gtk3.so:on_converter_output_browse_clicked
converter_gtk3.so:on_converter_output_format_changed
converter_gtk3.so:on_converter_progress_cancel
converter_gtk3.so:on_converter_realize
converter_gtk3.so:on_dsp_preset_add
converter_gtk3.so:on_dsp_preset_add_plugin_clicked
converter_gtk3.so:on_dsp_preset_copy
converter_gtk3.so:on_dsp_preset_edit
converter_gtk3.so:on_dsp_preset_plugin_configure_clicked
converter_gtk3.so:on_dsp_preset_plugin_down_clicked
converter_gtk3.so:on_dsp_preset_plugin_up_clicked
converter_gtk3.so:on_dsp_preset_remove
converter_gtk3.so:on_dsp_preset_remove_plugin_clicked
converter_gtk3.so:on_edit_dsp_presets_clicked
converter_gtk3.so:on_edit_encoder_presets_clicked
converter_gtk3.so:on_encoder_changed
converter_gtk3.so:on_encoder_preset_add
converter_gtk3.so:on_encoder_preset_copy
converter_gtk3.so:on_encoder_preset_edit
converter_gtk3.so:on_encoder_preset_remove
converter_gtk3.so:on_numthreads_changed
converter_gtk3.so:on_output_file_changed
converter_gtk3.so:on_output_folder_changed
converter_gtk3.so:on_overwrite_action_changed
converter_gtk3.so:on_preserve_folders_toggled
converter_gtk3.so:on_retag_after_copy_toggled
converter_gtk3.so:on_write_to_source_folder_toggled
converter_gtk3.so:plug_get_decoder_for_id
converter_gtk3.so:plugin
converter_gtk3.so:refresh_dsp_lists
converter_gtk3.so:refresh_encoder_lists
converter_gtk3.so:title_formatting_help_link_create
dca.so:dca_bitstream_get_bh
dca.so:dca_bitstream_init
dca.so:dca_block
dca.so:dca_blocks_num
dca.so:dca_downmix
dca.so:dca_downmix_coeff
dca.so:dca_downmix_init
dca.so:dca_dynrng
dca.so:dca_frame
dca.so:dca_free
dca.so:dca_init
dca.so:dca_load
dca.so:dca_samples
dca.so:dca_syncinfo
dca.so:dca_upmix
dca.so:deadbeef
dca.so:main
ddb_dsp_libretro.so:ddb_dsp_libretro_load
ddb_dumb.so:_Z22dumb_it_convert_temposP15DUMB_IT_SIGDATAb
ddb_dumb.so:_ZN3umr11export_descE
ddb_dumb.so:_ZN3umr11object_descE
ddb_dumb.so:_ZN3umr12export_indexEi
ddb_dumb.so:_ZN3umr12import_indexEi
ddb_dumb.so:_ZN3umr4upkg10check_typeEii
ddb_dumb.so:_ZN3umr4upkg10get_stringEPci
ddb_dumb.so:_ZN3umr4upkg10oclassnameEi
ddb_dumb.so:_ZN3umr4upkg11export_dumpEPNS_11file_writerEi
ddb_dumb.so:_ZN3umr4upkg11export_sizeEi
ddb_dumb.so:_ZN3umr4upkg11get_exportsEv
ddb_dumb.so:_ZN3umr4upkg11get_importsEv
ddb_dumb.so:_ZN3umr4upkg11object_dumpEPNS_11file_writerEi
ddb_dumb.so:_ZN3umr4upkg11object_sizeEi
ddb_dumb.so:_ZN3umr4upkg11set_pkgnameEii
ddb_dumb.so:_ZN3umr4upkg12opackagenameEi
ddb_dumb.so:_ZN3umr4upkg13export_offsetEi
ddb_dumb.so:_ZN3umr4upkg13object_offsetEi
ddb_dumb.so:_ZN3umr4upkg13set_classnameEii
ddb_dumb.so:_ZN3umr4upkg16get_types_isgoodEi
ddb_dumb.so:_ZN3umr4upkg19get_exports_cpnamesEi
ddb_dumb.so:_ZN3umr4upkg4openEPNS_11file_readerE
ddb_dumb.so:_ZN3umr4upkg4readEPvii
ddb_dumb.so:_ZN3umr4upkg5closeEv
ddb_dumb.so:_ZN3umr4upkg5onameEi
ddb_dumb.so:_ZN3umr4upkg5otypeEi
ddb_dumb.so:_ZN3umr4upkg6get_s8EPv
ddb_dumb.so:_ZN3umr4upkg6ocountEv
ddb_dumb.so:_ZN3umr4upkg7get_fciEPc
ddb_dumb.so:_ZN3umr4upkg7get_s16EPv
ddb_dumb.so:_ZN3umr4upkg7get_s32EPv
ddb_dumb.so:_ZN3umr4upkg7get_u32EPv
ddb_dumb.so:_ZN3umr4upkg8get_typeEPcii
ddb_dumb.so:_ZN3umr4upkg9get_namesEv
ddb_dumb.so:_ZN3umr4upkg9get_typesEv
ddb_dumb.so:_ZN3umr4upkg9load_upkgEv
ddb_dumb.so:_dumb_get_sigtype_desc
ddb_dumb.so:_dumb_init_cubic
ddb_dumb.so:_dumb_it_end_sigrenderer
ddb_dumb.so:_dumb_it_fix_invalid_orders
ddb_dumb.so:_dumb_it_ptm_convert_effect
ddb_dumb.so:_dumb_it_read_sample_data_adpcm4
ddb_dumb.so:_dumb_it_unload_sigdata
ddb_dumb.so:_dumb_it_xm_convert_effect
ddb_dumb.so:_dumb_sigtype_it
ddb_dumb.so:allocate_sample_buffer
ddb_dumb.so:bit_array_clear
ddb_dumb.so:bit_array_clear_range
ddb_dumb.so:bit_array_create
ddb_dumb.so:bit_array_destroy
ddb_dumb.so:bit_array_dup
ddb_dumb.so:bit_array_mask
ddb_dumb.so:bit_array_merge
ddb_dumb.so:bit_array_reset
ddb_dumb.so:bit_array_set
ddb_dumb.so:bit_array_set_range
ddb_dumb.so:bit_array_test
ddb_dumb.so:bit_array_test_range
ddb_dumb.so:cdumb_message
ddb_dumb.so:cdumb_start
ddb_dumb.so:cdumb_stop
ddb_dumb.so:create_sample_buffer
ddb_dumb.so:cubic_lut
ddb_dumb.so:ddb_dumb_load
ddb_dumb.so:deadbeef
ddb_dumb.so:destroy_sample_buffer
ddb_dumb.so:duh_add_signal
ddb_dumb.so:duh_encapsulate_it_sigrenderer
ddb_dumb.so:duh_encapsulate_raw_sigrenderer
ddb_dumb.so:duh_end_renderer
ddb_dumb.so:duh_end_sigrenderer
ddb_dumb.so:duh_get_it_sigdata
ddb_dumb.so:duh_get_it_sigrenderer
ddb_dumb.so:duh_get_length
ddb_dumb.so:duh_get_raw_sigdata
ddb_dumb.so:duh_get_raw_sigrenderer
ddb_dumb.so:duh_get_tag
ddb_dumb.so:duh_render
ddb_dumb.so:duh_render_signal
ddb_dumb.so:duh_renderer_decompose_to_sigrenderer
ddb_dumb.so:duh_renderer_encapsulate_sigrenderer
ddb_dumb.so:duh_renderer_get_n_channels
ddb_dumb.so:duh_renderer_get_position
ddb_dumb.so:duh_renderer_get_sigrenderer
ddb_dumb.so:duh_set_length
ddb_dumb.so:duh_sigrenderer_generate_samples
ddb_dumb.so:duh_sigrenderer_get_current_sample
ddb_dumb.so:duh_sigrenderer_get_n_channels
ddb_dumb.so:duh_sigrenderer_get_position
ddb_dumb.so:duh_sigrenderer_get_samples
ddb_dumb.so:duh_sigrenderer_set_analyser_callback
ddb_dumb.so:duh_sigrenderer_set_callback
ddb_dumb.so:duh_sigrenderer_set_sample_analyser_callback
ddb_dumb.so:duh_sigrenderer_set_sigparam
ddb_dumb.so:duh_start_renderer
ddb_dumb.so:duh_start_sigrenderer
ddb_dumb.so:dumb_atexit
ddb_dumb.so:dumb_click_remover_get_offset
ddb_dumb.so:dumb_click_remover_get_offset_array
ddb_dumb.so:dumb_create_click_remover
ddb_dumb.so:dumb_create_click_remover_array
ddb_dumb.so:dumb_destroy_click_remover
ddb_dumb.so:dumb_destroy_click_remover_array
ddb_dumb.so:dumb_end_resampler
ddb_dumb.so:dumb_end_resampler_16
ddb_dumb.so:dumb_end_resampler_8
ddb_dumb.so:dumb_end_resampler_n
ddb_dumb.so:dumb_exit
ddb_dumb.so:dumb_get_psm_subsong_count
ddb_dumb.so:dumb_it_add_lpc
ddb_dumb.so:dumb_it_build_checkpoints
ddb_dumb.so:dumb_it_callback_midi_block
ddb_dumb.so:dumb_it_callback_terminate
ddb_dumb.so:dumb_it_default_panning_separation
ddb_dumb.so:dumb_it_do_initial_runthrough
ddb_dumb.so:dumb_it_max_to_mix
ddb_dumb.so:dumb_it_scan_for_playable_orders
ddb_dumb.so:dumb_it_sd_get_initial_channel_volume
ddb_dumb.so:dumb_it_sd_get_initial_global_volume
ddb_dumb.so:dumb_it_sd_get_initial_speed
ddb_dumb.so:dumb_it_sd_get_initial_tempo
ddb_dumb.so:dumb_it_sd_get_instrument_filename
ddb_dumb.so:dumb_it_sd_get_instrument_name
ddb_dumb.so:dumb_it_sd_get_mixing_volume
ddb_dumb.so:dumb_it_sd_get_n_instruments
ddb_dumb.so:dumb_it_sd_get_n_orders
ddb_dumb.so:dumb_it_sd_get_n_samples
ddb_dumb.so:dumb_it_sd_get_sample_filename
ddb_dumb.so:dumb_it_sd_get_sample_name
ddb_dumb.so:dumb_it_sd_get_song_message
ddb_dumb.so:dumb_it_sd_set_initial_channel_volume
ddb_dumb.so:dumb_it_sd_set_initial_global_volume
ddb_dumb.so:dumb_it_sd_set_initial_speed
ddb_dumb.so:dumb_it_sd_set_initial_tempo
ddb_dumb.so:dumb_it_sd_set_mixing_volume
ddb_dumb.so:dumb_it_set_global_volume_zero_callback
ddb_dumb.so:dumb_it_set_loop_callback
ddb_dumb.so:dumb_it_set_midi_callback
ddb_dumb.so:dumb_it_set_ramp_style
ddb_dumb.so:dumb_it_set_resampling_quality
ddb_dumb.so:dumb_it_set_xm_speed_zero_callback
ddb_dumb.so:dumb_it_sr_get_channel_muted
ddb_dumb.so:dumb_it_sr_get_channel_state
ddb_dumb.so:dumb_it_sr_get_channel_volume
ddb_dumb.so:dumb_it_sr_get_current_order
ddb_dumb.so:dumb_it_sr_get_current_row
ddb_dumb.so:dumb_it_sr_get_global_volume
ddb_dumb.so:dumb_it_sr_get_speed
ddb_dumb.so:dumb_it_sr_get_tempo
ddb_dumb.so:dumb_it_sr_set_channel_muted
ddb_dumb.so:dumb_it_sr_set_channel_volume
ddb_dumb.so:dumb_it_sr_set_global_volume
ddb_dumb.so:dumb_it_sr_set_speed
ddb_dumb.so:dumb_it_sr_set_tempo
ddb_dumb.so:dumb_it_start_at_order
ddb_dumb.so:dumb_it_trim_silent_patterns
ddb_dumb.so:dumb_load_669
ddb_dumb.so:dumb_load_669_quick
ddb_dumb.so:dumb_load_amf
ddb_dumb.so:dumb_load_amf_quick
ddb_dumb.so:dumb_load_any
ddb_dumb.so:dumb_load_any_quick
ddb_dumb.so:dumb_load_asy
ddb_dumb.so:dumb_load_asy_quick
ddb_dumb.so:dumb_load_it
ddb_dumb.so:dumb_load_it_quick
ddb_dumb.so:dumb_load_mod
ddb_dumb.so:dumb_load_mod_quick
ddb_dumb.so:dumb_load_mtm
ddb_dumb.so:dumb_load_mtm_quick
ddb_dumb.so:dumb_load_okt
ddb_dumb.so:dumb_load_okt_quick
ddb_dumb.so:dumb_load_old_psm
ddb_dumb.so:dumb_load_old_psm_quick
ddb_dumb.so:dumb_load_psm
ddb_dumb.so:dumb_load_psm_quick
ddb_dumb.so:dumb_load_ptm
ddb_dumb.so:dumb_load_ptm_quick
ddb_dumb.so:dumb_load_riff
ddb_dumb.so:dumb_load_riff_quick
ddb_dumb.so:dumb_load_s3m
ddb_dumb.so:dumb_load_s3m_quick
ddb_dumb.so:dumb_load_stm
ddb_dumb.so:dumb_load_stm_quick
ddb_dumb.so:dumb_load_xm
ddb_dumb.so:dumb_load_xm_quick
ddb_dumb.so:dumb_read_669
ddb_dumb.so:dumb_read_669_quick
ddb_dumb.so:dumb_read_amf
ddb_dumb.so:dumb_read_amf_quick
ddb_dumb.so:dumb_read_any
ddb_dumb.so:dumb_read_any_quick
ddb_dumb.so:dumb_read_asy_quick
ddb_dumb.so:dumb_read_it
ddb_dumb.so:dumb_read_it_quick
ddb_dumb.so:dumb_read_mod
ddb_dumb.so:dumb_read_mod_quick
ddb_dumb.so:dumb_read_mtm_quick
ddb_dumb.so:dumb_read_okt
ddb_dumb.so:dumb_read_okt_quick
ddb_dumb.so:dumb_read_old_psm_quick
ddb_dumb.so:dumb_read_psm_quick
ddb_dumb.so:dumb_read_ptm_quick
ddb_dumb.so:dumb_read_riff_am
ddb_dumb.so:dumb_read_riff_amff
ddb_dumb.so:dumb_read_riff_dsmf
ddb_dumb.so:dumb_read_riff_quick
ddb_dumb.so:dumb_read_s3m
ddb_dumb.so:dumb_read_s3m_quick
ddb_dumb.so:dumb_read_stm
ddb_dumb.so:dumb_read_stm_quick
ddb_dumb.so:dumb_read_xm
ddb_dumb.so:dumb_read_xm_quick
ddb_dumb.so:dumb_record_click
ddb_dumb.so:dumb_record_click_array
ddb_dumb.so:dumb_record_click_negative_array
ddb_dumb.so:dumb_register_sigtype
ddb_dumb.so:dumb_register_stdfiles
ddb_dumb.so:dumb_remove_clicks
ddb_dumb.so:dumb_remove_clicks_array
ddb_dumb.so:dumb_resample_16_1_1
ddb_dumb.so:dumb_resample_16_1_2
ddb_dumb.so:dumb_resample_16_2_1
ddb_dumb.so:dumb_resample_16_2_2
ddb_dumb.so:dumb_resample_1_1
ddb_dumb.so:dumb_resample_1_2
ddb_dumb.so:dumb_resample_2_1
ddb_dumb.so:dumb_resample_2_2
ddb_dumb.so:dumb_resample_8_1_1
ddb_dumb.so:dumb_resample_8_1_2
ddb_dumb.so:dumb_resample_8_2_1
ddb_dumb.so:dumb_resample_8_2_2
ddb_dumb.so:dumb_resample_get_current_sample_16_1_1
ddb_dumb.so:dumb_resample_get_current_sample_16_1_2
ddb_dumb.so:dumb_resample_get_current_sample_16_2_1
ddb_dumb.so:dumb_resample_get_current_sample_16_2_2
ddb_dumb.so:dumb_resample_get_current_sample_1_1
ddb_dumb.so:dumb_resample_get_current_sample_1_2
ddb_dumb.so:dumb_resample_get_current_sample_2_1
ddb_dumb.so:dumb_resample_get_current_sample_2_2
ddb_dumb.so:dumb_resample_get_current_sample_8_1_1
ddb_dumb.so:dumb_resample_get_current_sample_8_1_2
ddb_dumb.so:dumb_resample_get_current_sample_8_2_1
ddb_dumb.so:dumb_resample_get_current_sample_8_2_2
ddb_dumb.so:dumb_resample_get_current_sample_n_1_1
ddb_dumb.so:dumb_resample_get_current_sample_n_1_2
ddb_dumb.so:dumb_resample_get_current_sample_n_2_1
ddb_dumb.so:dumb_resample_get_current_sample_n_2_2
ddb_dumb.so:dumb_resample_n_1_1
ddb_dumb.so:dumb_resample_n_1_2
ddb_dumb.so:dumb_resample_n_2_1
ddb_dumb.so:dumb_resample_n_2_2
ddb_dumb.so:dumb_resampling_quality
ddb_dumb.so:dumb_reset_resampler
ddb_dumb.so:dumb_reset_resampler_16
ddb_dumb.so:dumb_reset_resampler_8
ddb_dumb.so:dumb_reset_resampler_n
ddb_dumb.so:dumb_silence
ddb_dumb.so:dumb_start_resampler
ddb_dumb.so:dumb_start_resampler_16
ddb_dumb.so:dumb_start_resampler_8
ddb_dumb.so:dumb_start_resampler_n
ddb_dumb.so:dumbfile_cgetsl
ddb_dumb.so:dumbfile_cgetul
ddb_dumb.so:dumbfile_close
ddb_dumb.so:dumbfile_error
ddb_dumb.so:dumbfile_get_size
ddb_dumb.so:dumbfile_getc
ddb_dumb.so:dumbfile_getnc
ddb_dumb.so:dumbfile_igetl
ddb_dumb.so:dumbfile_igetw
ddb_dumb.so:dumbfile_mgetl
ddb_dumb.so:dumbfile_mgetw
ddb_dumb.so:dumbfile_open
ddb_dumb.so:dumbfile_open_ex
ddb_dumb.so:dumbfile_open_memory
ddb_dumb.so:dumbfile_open_stdfile
ddb_dumb.so:dumbfile_pos
ddb_dumb.so:dumbfile_seek
ddb_dumb.so:dumbfile_skip
ddb_dumb.so:free_okt
ddb_dumb.so:g_open_module
ddb_dumb.so:get_chunk_by_type
ddb_dumb.so:get_chunk_count
ddb_dumb.so:limit_xm_dfs
ddb_dumb.so:load_duh
ddb_dumb.so:make_duh
ddb_dumb.so:mod_convert_vibrato
ddb_dumb.so:read_duh
ddb_dumb.so:register_dumbfile_system
ddb_dumb.so:resampler_clear
ddb_dumb.so:resampler_create
ddb_dumb.so:resampler_delete
ddb_dumb.so:resampler_dup
ddb_dumb.so:resampler_dup_inplace
ddb_dumb.so:resampler_get_free_count
ddb_dumb.so:resampler_get_sample
ddb_dumb.so:resampler_get_sample_count
ddb_dumb.so:resampler_get_sample_float
ddb_dumb.so:resampler_init
ddb_dumb.so:resampler_ready
ddb_dumb.so:resampler_remove_sample
ddb_dumb.so:resampler_run_blam_sse
ddb_dumb.so:resampler_run_blep_sse
ddb_dumb.so:resampler_run_cubic_sse
ddb_dumb.so:resampler_run_sinc_sse
ddb_dumb.so:resampler_set_quality
ddb_dumb.so:resampler_set_rate
ddb_dumb.so:resampler_write_sample
ddb_dumb.so:resampler_write_sample_fixed
ddb_dumb.so:riff_free
ddb_dumb.so:riff_parse
ddb_dumb.so:sinc_lut
ddb_dumb.so:strlen_max
ddb_dumb.so:timekeeping_array_bump
ddb_dumb.so:timekeeping_array_create
ddb_dumb.so:timekeeping_array_destroy
ddb_dumb.so:timekeeping_array_dup
ddb_dumb.so:timekeeping_array_get_count
ddb_dumb.so:timekeeping_array_get_item
ddb_dumb.so:timekeeping_array_push
ddb_dumb.so:timekeeping_array_reset
ddb_dumb.so:unload_duh
ddb_dumb.so:vorbis_lpc_from_data
ddb_dumb.so:vorbis_lpc_predict
ddb_dumb.so:window_lut
ddb_dumb.so:xm_convert_vibrato
ddb_gui_GTK3.so:GtkNamedIcons
ddb_gui_GTK3.so:PREFWIN_TAB_INDEX_APPEARANCE
ddb_gui_GTK3.so:PREFWIN_TAB_INDEX_DSP
ddb_gui_GTK3.so:PREFWIN_TAB_INDEX_GUI
ddb_gui_GTK3.so:PREFWIN_TAB_INDEX_HOTKEYS
ddb_gui_GTK3.so:PREFWIN_TAB_INDEX_MEDIALIB
ddb_gui_GTK3.so:PREFWIN_TAB_INDEX_NETWORK
ddb_gui_GTK3.so:PREFWIN_TAB_INDEX_PLAYBACK
ddb_gui_GTK3.so:PREFWIN_TAB_INDEX_PLUGINS
ddb_gui_GTK3.so:PREFWIN_TAB_INDEX_SOUND
ddb_gui_GTK3.so:_ctl_scanFinished
ddb_gui_GTK3.so:_get_cover_art_pixbuf
ddb_gui_GTK3.so:_get_cover_art_thumb
ddb_gui_GTK3.so:_treeview_row_mousedown
ddb_gui_GTK3.so:action_add_files_handler
ddb_gui_GTK3.so:action_add_files_handler_cb
ddb_gui_GTK3.so:action_add_folders_handler
ddb_gui_GTK3.so:action_add_folders_handler_cb
ddb_gui_GTK3.so:action_add_location_handler
ddb_gui_GTK3.so:action_add_location_handler_cb
ddb_gui_GTK3.so:action_crop_selected_handler
ddb_gui_GTK3.so:action_cursor_follows_playback_handler
ddb_gui_GTK3.so:action_cursor_follows_playback_handler_cb
ddb_gui_GTK3.so:action_delete_from_disk_handler
ddb_gui_GTK3.so:action_delete_from_disk_handler_cb
ddb_gui_GTK3.so:action_deselect_all_handler
ddb_gui_GTK3.so:action_deselect_all_handler_cb
ddb_gui_GTK3.so:action_find_handler
ddb_gui_GTK3.so:action_find_handler_cb
ddb_gui_GTK3.so:action_hide_eq_handler
ddb_gui_GTK3.so:action_hide_eq_handler_cb
ddb_gui_GTK3.so:action_hide_mainwin_handler
ddb_gui_GTK3.so:action_hide_mainwin_handler_cb
ddb_gui_GTK3.so:action_load_playlist_handler
ddb_gui_GTK3.so:action_load_playlist_handler_cb
ddb_gui_GTK3.so:action_new_playlist_handler
ddb_gui_GTK3.so:action_new_playlist_handler_cb
ddb_gui_GTK3.so:action_open_files_handler
ddb_gui_GTK3.so:action_open_files_handler_cb
ddb_gui_GTK3.so:action_playback_loop_all_handler
ddb_gui_GTK3.so:action_playback_loop_all_handler_cb
ddb_gui_GTK3.so:action_playback_loop_cycle_handler
ddb_gui_GTK3.so:action_playback_loop_cycle_handler_cb
ddb_gui_GTK3.so:action_playback_loop_off_handler
ddb_gui_GTK3.so:action_playback_loop_off_handler_cb
ddb_gui_GTK3.so:action_playback_loop_single_handler
ddb_gui_GTK3.so:action_playback_loop_single_handler_cb
ddb_gui_GTK3.so:action_playback_order_cycle_handler
ddb_gui_GTK3.so:action_playback_order_cycle_handler_cb
ddb_gui_GTK3.so:action_playback_order_linear_handler
ddb_gui_GTK3.so:action_playback_order_linear_handler_cb
ddb_gui_GTK3.so:action_playback_order_random_handler
ddb_gui_GTK3.so:action_playback_order_random_handler_cb
ddb_gui_GTK3.so:action_playback_order_shuffle_albums_handler
ddb_gui_GTK3.so:action_playback_order_shuffle_albums_handler_cb
ddb_gui_GTK3.so:action_playback_order_shuffle_handler
ddb_gui_GTK3.so:action_playback_order_shuffle_handler_cb
ddb_gui_GTK3.so:action_preferences_handler
ddb_gui_GTK3.so:action_preferences_handler_cb
ddb_gui_GTK3.so:action_quit_handler
ddb_gui_GTK3.so:action_quit_handler_cb
ddb_gui_GTK3.so:action_redo
ddb_gui_GTK3.so:action_remove_current_playlist_handler
ddb_gui_GTK3.so:action_remove_from_playlist_handler
ddb_gui_GTK3.so:action_rename_current_playlist_handler
ddb_gui_GTK3.so:action_rg_remove_info_handler
ddb_gui_GTK3.so:action_rg_scan_per_file_handler
ddb_gui_GTK3.so:action_rg_scan_selection_as_album_handler
ddb_gui_GTK3.so:action_rg_scan_selection_as_albums_handler
ddb_gui_GTK3.so:action_save_playlist_handler
ddb_gui_GTK3.so:action_save_playlist_handler_cb
ddb_gui_GTK3.so:action_scan_all_tracks_without_rg_handler
ddb_gui_GTK3.so:action_scroll_follows_playback_handler
ddb_gui_GTK3.so:action_scroll_follows_playback_handler_cb
ddb_gui_GTK3.so:action_select_all_handler
ddb_gui_GTK3.so:action_select_all_handler_cb
ddb_gui_GTK3.so:action_show_eq_handler
ddb_gui_GTK3.so:action_show_eq_handler_cb
ddb_gui_GTK3.so:action_show_help_handler
ddb_gui_GTK3.so:action_show_help_handler_cb
ddb_gui_GTK3.so:action_show_mainwin_handler
ddb_gui_GTK3.so:action_show_mainwin_handler_cb
ddb_gui_GTK3.so:action_show_track_properties_handler
ddb_gui_GTK3.so:action_show_track_properties_handler_cb
ddb_gui_GTK3.so:action_sort_custom_handler
ddb_gui_GTK3.so:action_sort_custom_handler_cb
ddb_gui_GTK3.so:action_toggle_designmode_handler
ddb_gui_GTK3.so:action_toggle_designmode_handler_cb
ddb_gui_GTK3.so:action_toggle_eq_handler
ddb_gui_GTK3.so:action_toggle_eq_handler_cb
ddb_gui_GTK3.so:action_toggle_logwindow_handler
ddb_gui_GTK3.so:action_toggle_logwindow_handler_cb
ddb_gui_GTK3.so:action_toggle_mainwin_handler
ddb_gui_GTK3.so:action_toggle_mainwin_handler_cb
ddb_gui_GTK3.so:action_toggle_menu_handler
ddb_gui_GTK3.so:action_toggle_menu_handler_cb
ddb_gui_GTK3.so:action_toggle_statusbar_handler
ddb_gui_GTK3.so:action_toggle_statusbar_handler_cb
ddb_gui_GTK3.so:action_tree_append
ddb_gui_GTK3.so:action_undo
ddb_gui_GTK3.so:add_field
ddb_gui_GTK3.so:add_field_section
ddb_gui_GTK3.so:add_mainmenu_actions
ddb_gui_GTK3.so:add_mainmenu_actions_cb
ddb_gui_GTK3.so:add_pixmap_directory
ddb_gui_GTK3.so:apply_conf
ddb_gui_GTK3.so:buffering16_pixbuf
ddb_gui_GTK3.so:button_cb
ddb_gui_GTK3.so:calculate_tint_stops_from_string
ddb_gui_GTK3.so:clipboard_copy_selection
ddb_gui_GTK3.so:clipboard_cut_selection
ddb_gui_GTK3.so:clipboard_free_current
ddb_gui_GTK3.so:clipboard_is_clipboard_data_available
ddb_gui_GTK3.so:clipboard_paste_selection
ddb_gui_GTK3.so:convert_escapetext_to_pango_attrlist
ddb_gui_GTK3.so:covermanager_cover_for_track
ddb_gui_GTK3.so:covermanager_cover_for_track_no_default
ddb_gui_GTK3.so:covermanager_create_scaled_image
ddb_gui_GTK3.so:covermanager_desired_size_for_image_size
ddb_gui_GTK3.so:covermanager_free
ddb_gui_GTK3.so:covermanager_new
ddb_gui_GTK3.so:covermanager_shared
ddb_gui_GTK3.so:covermanager_shared_free
ddb_gui_GTK3.so:covermanager_shared_init
ddb_gui_GTK3.so:covermanager_terminate
ddb_gui_GTK3.so:create_addlocationdlg
ddb_gui_GTK3.so:create_button_properties
ddb_gui_GTK3.so:create_ctmappingdlg
ddb_gui_GTK3.so:create_ctmappingeditdlg
ddb_gui_GTK3.so:create_ddb_listview_widget
ddb_gui_GTK3.so:create_edit_multiple_tracks_dialog
ddb_gui_GTK3.so:create_edit_tag_value_dlg
ddb_gui_GTK3.so:create_editcolumndlg
ddb_gui_GTK3.so:create_entrydialog
ddb_gui_GTK3.so:create_groupbydlg
ddb_gui_GTK3.so:create_helpwindow
ddb_gui_GTK3.so:create_log_window
ddb_gui_GTK3.so:create_mainwin
ddb_gui_GTK3.so:create_pixbuf
ddb_gui_GTK3.so:create_pixmap
ddb_gui_GTK3.so:create_plugin_list_popup_menu
ddb_gui_GTK3.so:create_plugin_weblink
ddb_gui_GTK3.so:create_prefwin
ddb_gui_GTK3.so:create_progressdlg
ddb_gui_GTK3.so:create_rg_scan_progress
ddb_gui_GTK3.so:create_rg_scan_results
ddb_gui_GTK3.so:create_searchwin
ddb_gui_GTK3.so:create_seekbar
ddb_gui_GTK3.so:create_select_action
ddb_gui_GTK3.so:create_select_dsp_plugin
ddb_gui_GTK3.so:create_setcustomtitledlg
ddb_gui_GTK3.so:create_sortbydlg
ddb_gui_GTK3.so:create_tabstrip_widget
ddb_gui_GTK3.so:create_tagwritersettings
ddb_gui_GTK3.so:create_trackproperties
ddb_gui_GTK3.so:create_traymenu
ddb_gui_GTK3.so:create_trkproperties_popup_menu
ddb_gui_GTK3.so:create_volumebar_widget
ddb_gui_GTK3.so:ctmapping_setup_free
ddb_gui_GTK3.so:ctmapping_setup_init
ddb_gui_GTK3.so:ddbDeleteFromDiskControllerAlloc
ddb_gui_GTK3.so:ddbDeleteFromDiskControllerFree
ddb_gui_GTK3.so:ddbDeleteFromDiskControllerGetUserData
ddb_gui_GTK3.so:ddbDeleteFromDiskControllerInitWithPlaylist
ddb_gui_GTK3.so:ddbDeleteFromDiskControllerInitWithTrackList
ddb_gui_GTK3.so:ddbDeleteFromDiskControllerRunWithDelegate
ddb_gui_GTK3.so:ddbDeleteFromDiskControllerSetShouldSkipDeletedTracks
ddb_gui_GTK3.so:ddbDeleteFromDiskControllerSetUserData
ddb_gui_GTK3.so:ddbUtilTrackListAlloc
ddb_gui_GTK3.so:ddbUtilTrackListFree
ddb_gui_GTK3.so:ddbUtilTrackListGetPlaylist
ddb_gui_GTK3.so:ddbUtilTrackListGetTrackCount
ddb_gui_GTK3.so:ddbUtilTrackListGetTracks
ddb_gui_GTK3.so:ddbUtilTrackListInitWithPlaylist
ddb_gui_GTK3.so:ddbUtilTrackListInitWithWithTracks
ddb_gui_GTK3.so:ddb_analyzer_alloc
ddb_gui_GTK3.so:ddb_analyzer_dealloc
ddb_gui_GTK3.so:ddb_analyzer_draw_data_dealloc
ddb_gui_GTK3.so:ddb_analyzer_free
ddb_gui_GTK3.so:ddb_analyzer_get_draw_data
ddb_gui_GTK3.so:ddb_analyzer_init
ddb_gui_GTK3.so:ddb_analyzer_process
ddb_gui_GTK3.so:ddb_analyzer_tick
ddb_gui_GTK3.so:ddb_button_from_gtk_response
ddb_gui_GTK3.so:ddb_cell_editable_text_view_construct
ddb_gui_GTK3.so:ddb_cell_editable_text_view_get_type
ddb_gui_GTK3.so:ddb_cell_editable_text_view_new
ddb_gui_GTK3.so:ddb_cell_editable_text_view_start_editing
ddb_gui_GTK3.so:ddb_cell_renderer_text_multiline_construct
ddb_gui_GTK3.so:ddb_cell_renderer_text_multiline_get_type
ddb_gui_GTK3.so:ddb_cell_renderer_text_multiline_new
ddb_gui_GTK3.so:ddb_cell_renderer_text_multiline_set_columns
ddb_gui_GTK3.so:ddb_equalizer_construct
ddb_gui_GTK3.so:ddb_equalizer_get_band
ddb_gui_GTK3.so:ddb_equalizer_get_preamp
ddb_gui_GTK3.so:ddb_equalizer_get_type
ddb_gui_GTK3.so:ddb_equalizer_new
ddb_gui_GTK3.so:ddb_equalizer_set_band
ddb_gui_GTK3.so:ddb_equalizer_set_preamp
ddb_gui_GTK3.so:ddb_gui_GTK3_load
ddb_gui_GTK3.so:ddb_listview_cancel_autoredraw
ddb_gui_GTK3.so:ddb_listview_clear_sort
ddb_gui_GTK3.so:ddb_listview_click_selection
ddb_gui_GTK3.so:ddb_listview_col_sort_update
ddb_gui_GTK3.so:ddb_listview_column_append
ddb_gui_GTK3.so:ddb_listview_column_free
ddb_gui_GTK3.so:ddb_listview_column_get_count
ddb_gui_GTK3.so:ddb_listview_column_get_info
ddb_gui_GTK3.so:ddb_listview_column_insert
ddb_gui_GTK3.so:ddb_listview_column_move
ddb_gui_GTK3.so:ddb_listview_column_remove
ddb_gui_GTK3.so:ddb_listview_column_set_info
ddb_gui_GTK3.so:ddb_listview_dragdrop_get_row_from_coord
ddb_gui_GTK3.so:ddb_listview_draw_row
ddb_gui_GTK3.so:ddb_listview_get_group_by_head
ddb_gui_GTK3.so:ddb_listview_get_group_formats
ddb_gui_GTK3.so:ddb_listview_get_grpctx
ddb_gui_GTK3.so:ddb_listview_get_list_height
ddb_gui_GTK3.so:ddb_listview_get_listctx
ddb_gui_GTK3.so:ddb_listview_get_row_pos
ddb_gui_GTK3.so:ddb_listview_get_scroll_pos
ddb_gui_GTK3.so:ddb_listview_get_shift_sel_anchor
ddb_gui_GTK3.so:ddb_listview_get_type
ddb_gui_GTK3.so:ddb_listview_groupcheck
ddb_gui_GTK3.so:ddb_listview_header_get_type
ddb_gui_GTK3.so:ddb_listview_header_is_sizing
ddb_gui_GTK3.so:ddb_listview_header_new
ddb_gui_GTK3.so:ddb_listview_header_set_hscrollpos
ddb_gui_GTK3.so:ddb_listview_header_update_fonts
ddb_gui_GTK3.so:ddb_listview_init_autoresize
ddb_gui_GTK3.so:ddb_listview_invalidate_album_art_columns
ddb_gui_GTK3.so:ddb_listview_list_button_press_event
ddb_gui_GTK3.so:ddb_listview_list_mouse1_pressed
ddb_gui_GTK3.so:ddb_listview_list_mouse1_released
ddb_gui_GTK3.so:ddb_listview_list_mousemove
ddb_gui_GTK3.so:ddb_listview_list_popup_menu
ddb_gui_GTK3.so:ddb_listview_list_setup
ddb_gui_GTK3.so:ddb_listview_motion_notify_event
ddb_gui_GTK3.so:ddb_listview_new
ddb_gui_GTK3.so:ddb_listview_redraw_tf
ddb_gui_GTK3.so:ddb_listview_refresh
ddb_gui_GTK3.so:ddb_listview_reset_artwork
ddb_gui_GTK3.so:ddb_listview_schedule_draw_tf
ddb_gui_GTK3.so:ddb_listview_scroll_to
ddb_gui_GTK3.so:ddb_listview_select_range
ddb_gui_GTK3.so:ddb_listview_select_single
ddb_gui_GTK3.so:ddb_listview_set_artwork_subgroup_level
ddb_gui_GTK3.so:ddb_listview_set_cursor_and_scroll
ddb_gui_GTK3.so:ddb_listview_set_group_formats
ddb_gui_GTK3.so:ddb_listview_set_shift_sel_anchor
ddb_gui_GTK3.so:ddb_listview_set_subgroup_title_padding
ddb_gui_GTK3.so:ddb_listview_show_header
ddb_gui_GTK3.so:ddb_listview_size_columns_without_scrollbar
ddb_gui_GTK3.so:ddb_listview_update_cursor
ddb_gui_GTK3.so:ddb_scope_alloc
ddb_gui_GTK3.so:ddb_scope_dealloc
ddb_gui_GTK3.so:ddb_scope_draw_data_dealloc
ddb_gui_GTK3.so:ddb_scope_free
ddb_gui_GTK3.so:ddb_scope_get_draw_data
ddb_gui_GTK3.so:ddb_scope_init
ddb_gui_GTK3.so:ddb_scope_process
ddb_gui_GTK3.so:ddb_scope_tick
ddb_gui_GTK3.so:ddb_seekbar_construct
ddb_gui_GTK3.so:ddb_seekbar_get_type
ddb_gui_GTK3.so:ddb_seekbar_init_signals
ddb_gui_GTK3.so:ddb_seekbar_new
ddb_gui_GTK3.so:ddb_splitter_add_child_at_pos
ddb_gui_GTK3.so:ddb_splitter_get_child1_size
ddb_gui_GTK3.so:ddb_splitter_get_child2_size
ddb_gui_GTK3.so:ddb_splitter_get_orientation
ddb_gui_GTK3.so:ddb_splitter_get_proportion
ddb_gui_GTK3.so:ddb_splitter_get_size_mode
ddb_gui_GTK3.so:ddb_splitter_get_type
ddb_gui_GTK3.so:ddb_splitter_new
ddb_gui_GTK3.so:ddb_splitter_remove_c1
ddb_gui_GTK3.so:ddb_splitter_remove_c2
ddb_gui_GTK3.so:ddb_splitter_set_child1_size
ddb_gui_GTK3.so:ddb_splitter_set_child2_size
ddb_gui_GTK3.so:ddb_splitter_set_proportion
ddb_gui_GTK3.so:ddb_splitter_set_size_mode
ddb_gui_GTK3.so:ddb_splitter_size_mode_get_type
ddb_gui_GTK3.so:ddb_tabstrip_draw_tab
ddb_gui_GTK3.so:ddb_tabstrip_get_tab_width
ddb_gui_GTK3.so:ddb_tabstrip_get_type
ddb_gui_GTK3.so:ddb_tabstrip_new
ddb_gui_GTK3.so:ddb_tabstrip_refresh
ddb_gui_GTK3.so:ddb_undo
ddb_gui_GTK3.so:ddb_volumebar_get_scale
ddb_gui_GTK3.so:ddb_volumebar_get_type
ddb_gui_GTK3.so:ddb_volumebar_init_signals
ddb_gui_GTK3.so:ddb_volumebar_new
ddb_gui_GTK3.so:ddb_volumebar_scale_mode_get_type
ddb_gui_GTK3.so:ddb_volumebar_set_scale
ddb_gui_GTK3.so:ddb_volumebar_update
ddb_gui_GTK3.so:deadbeef
ddb_gui_GTK3.so:deadbeef_app_get_log_action
ddb_gui_GTK3.so:deadbeef_app_get_type
ddb_gui_GTK3.so:deadbeef_app_new
ddb_gui_GTK3.so:design_mode
ddb_gui_GTK3.so:draw_begin
ddb_gui_GTK3.so:draw_end
ddb_gui_GTK3.so:draw_free
ddb_gui_GTK3.so:draw_get_font_size
ddb_gui_GTK3.so:draw_get_layout_extents
ddb_gui_GTK3.so:draw_get_listview_rowheight
ddb_gui_GTK3.so:draw_get_text
ddb_gui_GTK3.so:draw_get_text_extents
ddb_gui_GTK3.so:draw_init_font
ddb_gui_GTK3.so:draw_init_font_normal
ddb_gui_GTK3.so:draw_init_font_style
ddb_gui_GTK3.so:draw_is_ellipsized
ddb_gui_GTK3.so:draw_line
ddb_gui_GTK3.so:draw_rect
ddb_gui_GTK3.so:draw_set_fg_color
ddb_gui_GTK3.so:draw_text_custom
ddb_gui_GTK3.so:draw_text_with_colors
ddb_gui_GTK3.so:drawctx_init
ddb_gui_GTK3.so:dsp_ctx_get_param
ddb_gui_GTK3.so:dsp_ctx_set_param
ddb_gui_GTK3.so:dsp_setup_free
ddb_gui_GTK3.so:dsp_setup_init
ddb_gui_GTK3.so:editcolumn_title_changed
ddb_gui_GTK3.so:eq_preset_load
ddb_gui_GTK3.so:eq_preset_load_fb2k
ddb_gui_GTK3.so:eq_preset_save
ddb_gui_GTK3.so:eq_redraw
ddb_gui_GTK3.so:eq_refresh
ddb_gui_GTK3.so:eq_value_changed
ddb_gui_GTK3.so:eq_window_destroy
ddb_gui_GTK3.so:eq_window_hide
ddb_gui_GTK3.so:eq_window_show
ddb_gui_GTK3.so:fileadd_beginend_listener_id
ddb_gui_GTK3.so:fileadded_listener_id
ddb_gui_GTK3.so:fill_selproperties_cb
ddb_gui_GTK3.so:find_action_by_name
ddb_gui_GTK3.so:find_first_preset_column_type
ddb_gui_GTK3.so:freqs
ddb_gui_GTK3.so:gapp
ddb_gui_GTK3.so:get_deadbeef_monitor_rect
ddb_gui_GTK3.so:get_supereq
ddb_gui_GTK3.so:gettoken
ddb_gui_GTK3.so:gettoken_err_eof
ddb_gui_GTK3.so:gettoken_ext
ddb_gui_GTK3.so:gettoken_keyvalue
ddb_gui_GTK3.so:gettoken_warn_eof
ddb_gui_GTK3.so:glade_set_atk_action_description
ddb_gui_GTK3.so:gobj_cache_free
ddb_gui_GTK3.so:gobj_cache_get
ddb_gui_GTK3.so:gobj_cache_get_should_wait
ddb_gui_GTK3.so:gobj_cache_new
ddb_gui_GTK3.so:gobj_cache_remove
ddb_gui_GTK3.so:gobj_cache_remove_all
ddb_gui_GTK3.so:gobj_cache_set
ddb_gui_GTK3.so:gobj_cache_set_should_wait
ddb_gui_GTK3.so:gobj_get_refc
ddb_gui_GTK3.so:gobj_ref
ddb_gui_GTK3.so:gobj_unref
ddb_gui_GTK3.so:gtkScriptableEditDialogTitleForItem
ddb_gui_GTK3.so:gtkScriptableListEditViewControllerFree
ddb_gui_GTK3.so:gtkScriptableListEditViewControllerGetView
ddb_gui_GTK3.so:gtkScriptableListEditViewControllerLoad
ddb_gui_GTK3.so:gtkScriptableListEditViewControllerNew
ddb_gui_GTK3.so:gtkScriptableListEditViewControllerSetDelegate
ddb_gui_GTK3.so:gtkScriptableListEditViewControllerSetScriptable
ddb_gui_GTK3.so:gtkScriptableListEditWindowControllerFree
ddb_gui_GTK3.so:gtkScriptableListEditWindowControllerNew
ddb_gui_GTK3.so:gtkScriptableListEditWindowControllerRunModal
ddb_gui_GTK3.so:gtkScriptableListEditWindowControllerSetDelegate
ddb_gui_GTK3.so:gtkScriptableListEditWindowControllerSetScriptable
ddb_gui_GTK3.so:gtkScriptableListEditWindowControllerSetTitle
ddb_gui_GTK3.so:gtkScriptableSelectViewControllerFree
ddb_gui_GTK3.so:gtkScriptableSelectViewControllerGetView
ddb_gui_GTK3.so:gtkScriptableSelectViewControllerIndexOfSelectedItem
ddb_gui_GTK3.so:gtkScriptableSelectViewControllerLoad
ddb_gui_GTK3.so:gtkScriptableSelectViewControllerNew
ddb_gui_GTK3.so:gtkScriptableSelectViewControllerSelectItem
ddb_gui_GTK3.so:gtkScriptableSelectViewControllerSetDelegate
ddb_gui_GTK3.so:gtkScriptableSelectViewControllerSetModel
ddb_gui_GTK3.so:gtkScriptableSelectViewControllerSetScriptable
ddb_gui_GTK3.so:gtk_combo_box_entry_new_text
ddb_gui_GTK3.so:gtk_dialog_set_has_separator
ddb_gui_GTK3.so:gtkpl_add_dirs
ddb_gui_GTK3.so:gtkui_add_dirs
ddb_gui_GTK3.so:gtkui_add_file_begin_cb
ddb_gui_GTK3.so:gtkui_add_file_end_cb
ddb_gui_GTK3.so:gtkui_add_file_info_cb
ddb_gui_GTK3.so:gtkui_add_files
ddb_gui_GTK3.so:gtkui_add_location
ddb_gui_GTK3.so:gtkui_add_new_playlist
ddb_gui_GTK3.so:gtkui_bar_colors_conf
ddb_gui_GTK3.so:gtkui_bar_override_conf
ddb_gui_GTK3.so:gtkui_connect_cb
ddb_gui_GTK3.so:gtkui_create_log_window
ddb_gui_GTK3.so:gtkui_create_pltmenu
ddb_gui_GTK3.so:gtkui_default_titlebar_playing
ddb_gui_GTK3.so:gtkui_default_titlebar_stopped
ddb_gui_GTK3.so:gtkui_delete_file
ddb_gui_GTK3.so:gtkui_disable_seekbar_overlay
ddb_gui_GTK3.so:gtkui_dispatch_on_main
ddb_gui_GTK3.so:gtkui_embolden_current_track
ddb_gui_GTK3.so:gtkui_embolden_selected_tracks
ddb_gui_GTK3.so:gtkui_embolden_tracks
ddb_gui_GTK3.so:gtkui_exec_action_14
ddb_gui_GTK3.so:gtkui_free_pltmenu
ddb_gui_GTK3.so:gtkui_get_bar_background_color
ddb_gui_GTK3.so:gtkui_get_bar_foreground_color
ddb_gui_GTK3.so:gtkui_get_curr_playlist_mod
ddb_gui_GTK3.so:gtkui_get_gui_refresh_rate
ddb_gui_GTK3.so:gtkui_get_listview_column_text_color
ddb_gui_GTK3.so:gtkui_get_listview_column_text_font
ddb_gui_GTK3.so:gtkui_get_listview_cursor_color
ddb_gui_GTK3.so:gtkui_get_listview_even_row_color
ddb_gui_GTK3.so:gtkui_get_listview_group_text_color
ddb_gui_GTK3.so:gtkui_get_listview_group_text_font
ddb_gui_GTK3.so:gtkui_get_listview_odd_row_color
ddb_gui_GTK3.so:gtkui_get_listview_playing_text_color
ddb_gui_GTK3.so:gtkui_get_listview_selected_text_color
ddb_gui_GTK3.so:gtkui_get_listview_selection_color
ddb_gui_GTK3.so:gtkui_get_listview_text_color
ddb_gui_GTK3.so:gtkui_get_listview_text_font
ddb_gui_GTK3.so:gtkui_get_mainwin
ddb_gui_GTK3.so:gtkui_get_resource
ddb_gui_GTK3.so:gtkui_get_tabstrip_base_color
ddb_gui_GTK3.so:gtkui_get_tabstrip_dark_color
ddb_gui_GTK3.so:gtkui_get_tabstrip_light_color
ddb_gui_GTK3.so:gtkui_get_tabstrip_mid_color
ddb_gui_GTK3.so:gtkui_get_tabstrip_playing_text_color
ddb_gui_GTK3.so:gtkui_get_tabstrip_selected_text_color
ddb_gui_GTK3.so:gtkui_get_tabstrip_text_color
ddb_gui_GTK3.so:gtkui_get_tabstrip_text_font
ddb_gui_GTK3.so:gtkui_get_vis_custom_background_color
ddb_gui_GTK3.so:gtkui_get_vis_custom_base_color
ddb_gui_GTK3.so:gtkui_groups_pinned
ddb_gui_GTK3.so:gtkui_groups_spacing
ddb_gui_GTK3.so:gtkui_hotkey_grabbing
ddb_gui_GTK3.so:gtkui_hotkeys_changed
ddb_gui_GTK3.so:gtkui_import_0_5_global_hotkeys
ddb_gui_GTK3.so:gtkui_init_theme_colors
ddb_gui_GTK3.so:gtkui_italic_current_track
ddb_gui_GTK3.so:gtkui_italic_selected_tracks
ddb_gui_GTK3.so:gtkui_italic_tracks
ddb_gui_GTK3.so:gtkui_listview_busy
ddb_gui_GTK3.so:gtkui_listview_colors_conf
ddb_gui_GTK3.so:gtkui_listview_font_conf
ddb_gui_GTK3.so:gtkui_listview_font_style_conf
ddb_gui_GTK3.so:gtkui_listview_override_conf
ddb_gui_GTK3.so:gtkui_mainwin_free
ddb_gui_GTK3.so:gtkui_mainwin_init
ddb_gui_GTK3.so:gtkui_make_dialog
ddb_gui_GTK3.so:gtkui_medialib_free
ddb_gui_GTK3.so:gtkui_medialib_get_model
ddb_gui_GTK3.so:gtkui_medialib_get_source
ddb_gui_GTK3.so:gtkui_open_files
ddb_gui_GTK3.so:gtkui_override_bar_colors
ddb_gui_GTK3.so:gtkui_override_listview_colors
ddb_gui_GTK3.so:gtkui_override_statusicon
ddb_gui_GTK3.so:gtkui_override_tabstrip_colors
ddb_gui_GTK3.so:gtkui_progress_hide_idle
ddb_gui_GTK3.so:gtkui_progress_show_idle
ddb_gui_GTK3.so:gtkui_quit
ddb_gui_GTK3.so:gtkui_quit_cb
ddb_gui_GTK3.so:gtkui_receive_fm_drop
ddb_gui_GTK3.so:gtkui_remove_playlist
ddb_gui_GTK3.so:gtkui_remove_playlist_at_index
ddb_gui_GTK3.so:gtkui_rename_playlist
ddb_gui_GTK3.so:gtkui_rename_playlist_at_index
ddb_gui_GTK3.so:gtkui_run_dialog
ddb_gui_GTK3.so:gtkui_run_dialog_root
ddb_gui_GTK3.so:gtkui_set_default_hotkeys
ddb_gui_GTK3.so:gtkui_set_progress_text_idle
ddb_gui_GTK3.so:gtkui_set_titlebar
ddb_gui_GTK3.so:gtkui_setup_gui_refresh
ddb_gui_GTK3.so:gtkui_show_info_window
ddb_gui_GTK3.so:gtkui_show_log_window
ddb_gui_GTK3.so:gtkui_show_log_window_internal
ddb_gui_GTK3.so:gtkui_tabstrip_colors_conf
ddb_gui_GTK3.so:gtkui_tabstrip_embolden_playing
ddb_gui_GTK3.so:gtkui_tabstrip_embolden_selected
ddb_gui_GTK3.so:gtkui_tabstrip_font_conf
ddb_gui_GTK3.so:gtkui_tabstrip_font_style_conf
ddb_gui_GTK3.so:gtkui_tabstrip_italic_playing
ddb_gui_GTK3.so:gtkui_tabstrip_italic_selected
ddb_gui_GTK3.so:gtkui_tabstrip_override_conf
ddb_gui_GTK3.so:gtkui_titlebar_tf_init
ddb_gui_GTK3.so:gtkui_toggle_log_window
ddb_gui_GTK3.so:gtkui_trim_whitespace
ddb_gui_GTK3.so:gtkui_undostack_append_buffer
ddb_gui_GTK3.so:gtkui_undostack_deinit
ddb_gui_GTK3.so:gtkui_undostack_get_redo_action_name
ddb_gui_GTK3.so:gtkui_undostack_get_undo_action_name
ddb_gui_GTK3.so:gtkui_undostack_has_redo
ddb_gui_GTK3.so:gtkui_undostack_has_undo
ddb_gui_GTK3.so:gtkui_undostack_perform_redo
ddb_gui_GTK3.so:gtkui_undostack_perform_undo
ddb_gui_GTK3.so:gtkui_unicode_playstate
ddb_gui_GTK3.so:gtkui_warning_message_for_ctx
ddb_gui_GTK3.so:hex_digit
ddb_gui_GTK3.so:hide_widget
ddb_gui_GTK3.so:import_column_config_to_063
ddb_gui_GTK3.so:init_action_tree
ddb_gui_GTK3.so:last_playlist
ddb_gui_GTK3.so:list_context_menu
ddb_gui_GTK3.so:list_context_menu_with_dynamic_track_list
ddb_gui_GTK3.so:list_handle_keypress
ddb_gui_GTK3.so:logwindow
ddb_gui_GTK3.so:logwindow_scroll_changed
ddb_gui_GTK3.so:lookup_widget
ddb_gui_GTK3.so:main_drag_n_drop
ddb_gui_GTK3.so:main_draw_column_data
ddb_gui_GTK3.so:main_draw_group_title
ddb_gui_GTK3.so:main_external_drag_n_drop
ddb_gui_GTK3.so:main_init_listview_api
ddb_gui_GTK3.so:main_tracks_copy_drag_n_drop
ddb_gui_GTK3.so:mainwin
ddb_gui_GTK3.so:mainwin_toggle_visible
ddb_gui_GTK3.so:make_dsp_popup_menu
ddb_gui_GTK3.so:menu_add_action_items
ddb_gui_GTK3.so:ml_cell_renderer_pixbuf_get_type
ddb_gui_GTK3.so:ml_cell_renderer_pixbuf_new
ddb_gui_GTK3.so:octal_digit
ddb_gui_GTK3.so:on_about1_activate
ddb_gui_GTK3.so:on_add_files_activate
ddb_gui_GTK3.so:on_add_folders_activate
ddb_gui_GTK3.so:on_add_location_activate
ddb_gui_GTK3.so:on_ape_strip_apev2_toggled
ddb_gui_GTK3.so:on_ape_strip_id3v2_toggled
ddb_gui_GTK3.so:on_ape_write_apev2_toggled
ddb_gui_GTK3.so:on_ape_write_id3v2_toggled
ddb_gui_GTK3.so:on_auto_name_playlist_from_folder_toggled
ddb_gui_GTK3.so:on_auto_size_columns_toggled
ddb_gui_GTK3.so:on_autoopen_button_toggled
ddb_gui_GTK3.so:on_bar_background_color_set
ddb_gui_GTK3.so:on_bar_foreground_color_set
ddb_gui_GTK3.so:on_changelog1_activate
ddb_gui_GTK3.so:on_checkbutton_dependent_sr_toggled
ddb_gui_GTK3.so:on_checkbutton_sr_override_toggled
ddb_gui_GTK3.so:on_clear1_activate
ddb_gui_GTK3.so:on_cli_add_to_playlist_toggled
ddb_gui_GTK3.so:on_cli_playlist_name_changed
ddb_gui_GTK3.so:on_closebtn_clicked
ddb_gui_GTK3.so:on_column_id_changed
ddb_gui_GTK3.so:on_combo_bit_override_changed
ddb_gui_GTK3.so:on_comboboxentry_direct_sr_changed
ddb_gui_GTK3.so:on_comboboxentry_sr_mult_44_changed
ddb_gui_GTK3.so:on_comboboxentry_sr_mult_48_changed
ddb_gui_GTK3.so:on_convert16to24_toggled
ddb_gui_GTK3.so:on_convert8to16_toggled
ddb_gui_GTK3.so:on_copy_activate
ddb_gui_GTK3.so:on_copy_plugin_report_menuitem_activate
ddb_gui_GTK3.so:on_crop1_activate
ddb_gui_GTK3.so:on_ctmapping_add_clicked
ddb_gui_GTK3.so:on_ctmapping_edit_clicked
ddb_gui_GTK3.so:on_ctmapping_remove_clicked
ddb_gui_GTK3.so:on_ctmapping_reset_clicked
ddb_gui_GTK3.so:on_cursor_follows_playback_activate
ddb_gui_GTK3.so:on_cut_activate
ddb_gui_GTK3.so:on_deselect_all1_activate
ddb_gui_GTK3.so:on_design_mode1_activate
ddb_gui_GTK3.so:on_display_seltime_toggled
ddb_gui_GTK3.so:on_dsp_add_toolbtn_toggled
ddb_gui_GTK3.so:on_dsp_configure_clicked
ddb_gui_GTK3.so:on_dsp_configure_toolbtn_clicked
ddb_gui_GTK3.so:on_dsp_down_clicked
ddb_gui_GTK3.so:on_dsp_listview_row_activated
ddb_gui_GTK3.so:on_dsp_preset_changed
ddb_gui_GTK3.so:on_dsp_preset_load_clicked
ddb_gui_GTK3.so:on_dsp_preset_save_clicked
ddb_gui_GTK3.so:on_dsp_remove_toolbtn_clicked
ddb_gui_GTK3.so:on_dsp_toolbtn_down_clicked
ddb_gui_GTK3.so:on_dsp_toolbtn_up_clicked
ddb_gui_GTK3.so:on_dsp_up_clicked
ddb_gui_GTK3.so:on_edit_content_type_mapping_clicked
ddb_gui_GTK3.so:on_editcolumn_title_changed
ddb_gui_GTK3.so:on_enable_cp1251_recoding_toggled
ddb_gui_GTK3.so:on_enable_cp936_recoding_toggled
ddb_gui_GTK3.so:on_enable_shift_jis_recoding_toggled
ddb_gui_GTK3.so:on_enable_toggled
ddb_gui_GTK3.so:on_find_activate
ddb_gui_GTK3.so:on_global_preamp_value_changed
ddb_gui_GTK3.so:on_gpl1_activate
ddb_gui_GTK3.so:on_gtkui_info_window_delete
ddb_gui_GTK3.so:on_gtkui_log_window_delete
ddb_gui_GTK3.so:on_gui_fps_value_changed
ddb_gui_GTK3.so:on_gui_plugin_changed
ddb_gui_GTK3.so:on_help1_activate
ddb_gui_GTK3.so:on_helpwindow_key_press_event
ddb_gui_GTK3.so:on_hide_delete_from_disk_toggled
ddb_gui_GTK3.so:on_hide_tray_icon_toggled
ddb_gui_GTK3.so:on_hotkey_add_clicked
ddb_gui_GTK3.so:on_hotkey_is_global_toggled
ddb_gui_GTK3.so:on_hotkey_remove_clicked
ddb_gui_GTK3.so:on_hotkeys_actions_clicked
ddb_gui_GTK3.so:on_hotkeys_actions_cursor_changed
ddb_gui_GTK3.so:on_hotkeys_apply_clicked
ddb_gui_GTK3.so:on_hotkeys_defaults_clicked
ddb_gui_GTK3.so:on_hotkeys_list_cursor_changed
ddb_gui_GTK3.so:on_hotkeys_revert_clicked
ddb_gui_GTK3.so:on_hotkeys_set_key_clicked
ddb_gui_GTK3.so:on_hotkeys_set_key_key_press_event
ddb_gui_GTK3.so:on_id3v1_encoding_changed
ddb_gui_GTK3.so:on_id3v2_version_changed
ddb_gui_GTK3.so:on_ignore_archives_toggled
ddb_gui_GTK3.so:on_import_fb2k_preset_clicked
ddb_gui_GTK3.so:on_individual_field_edited
ddb_gui_GTK3.so:on_invert_selection1_activate
ddb_gui_GTK3.so:on_jump_to_current_track1_activate
ddb_gui_GTK3.so:on_lgpl1_activate
ddb_gui_GTK3.so:on_listview_column_text_color_set
ddb_gui_GTK3.so:on_listview_column_text_font_set
ddb_gui_GTK3.so:on_listview_cursor_color_set
ddb_gui_GTK3.so:on_listview_even_row_color_set
ddb_gui_GTK3.so:on_listview_group_spacing_value_changed
ddb_gui_GTK3.so:on_listview_group_text_color_set
ddb_gui_GTK3.so:on_listview_group_text_font_set
ddb_gui_GTK3.so:on_listview_odd_row_color_set
ddb_gui_GTK3.so:on_listview_playing_text_bold_toggled
ddb_gui_GTK3.so:on_listview_playing_text_color_set
ddb_gui_GTK3.so:on_listview_playing_text_italic_toggled
ddb_gui_GTK3.so:on_listview_selected_row_color_set
ddb_gui_GTK3.so:on_listview_selected_text_bold_toggled
ddb_gui_GTK3.so:on_listview_selected_text_color_set
ddb_gui_GTK3.so:on_listview_selected_text_italic_toggled
ddb_gui_GTK3.so:on_listview_text_color_set
ddb_gui_GTK3.so:on_listview_text_font_set
ddb_gui_GTK3.so:on_load_preset_clicked
ddb_gui_GTK3.so:on_log_clear_clicked
ddb_gui_GTK3.so:on_log_window_key_press_event
ddb_gui_GTK3.so:on_loop_all_activate
ddb_gui_GTK3.so:on_loop_disable_activate
ddb_gui_GTK3.so:on_loop_single_activate
ddb_gui_GTK3.so:on_mainwin_button_press_event
ddb_gui_GTK3.so:on_mainwin_configure_event
ddb_gui_GTK3.so:on_mainwin_delete_event
ddb_gui_GTK3.so:on_mainwin_key_press_event
ddb_gui_GTK3.so:on_mainwin_realize
ddb_gui_GTK3.so:on_mainwin_redo_activate
ddb_gui_GTK3.so:on_mainwin_undo_activate
ddb_gui_GTK3.so:on_mainwin_window_state_event
ddb_gui_GTK3.so:on_metadata_edited
ddb_gui_GTK3.so:on_metalist_button_press_event
ddb_gui_GTK3.so:on_minimize_on_startup_clicked
ddb_gui_GTK3.so:on_mmb_delete_playlist_toggled
ddb_gui_GTK3.so:on_move_to_trash_clicked
ddb_gui_GTK3.so:on_new_playlist1_activate
ddb_gui_GTK3.so:on_nextbtn_clicked
ddb_gui_GTK3.so:on_only_show_plugins_with_configuration1_activate
ddb_gui_GTK3.so:on_open_activate
ddb_gui_GTK3.so:on_order_linear_activate
ddb_gui_GTK3.so:on_order_random_activate
ddb_gui_GTK3.so:on_order_shuffle_activate
ddb_gui_GTK3.so:on_order_shuffle_albums_activate
ddb_gui_GTK3.so:on_override_bar_colors_toggled
ddb_gui_GTK3.so:on_override_listview_colors_toggled
ddb_gui_GTK3.so:on_override_tabstrip_colors_toggled
ddb_gui_GTK3.so:on_paste_activate
ddb_gui_GTK3.so:on_pausebtn_clicked
ddb_gui_GTK3.so:on_playbtn_clicked
ddb_gui_GTK3.so:on_playlist_load_activate
ddb_gui_GTK3.so:on_playlist_save_as_activate
ddb_gui_GTK3.so:on_playrand_clicked
ddb_gui_GTK3.so:on_plug_copyright_clicked
ddb_gui_GTK3.so:on_plugin_conf_reset_btn_clicked
ddb_gui_GTK3.so:on_plugin_conf_tab_btn_clicked
ddb_gui_GTK3.so:on_plugin_info_tab_btn_clicked
ddb_gui_GTK3.so:on_plugin_license_tab_btn_clicked
ddb_gui_GTK3.so:on_plugin_notebook_switch_page
ddb_gui_GTK3.so:on_pref_close_send_to_tray_clicked
ddb_gui_GTK3.so:on_pref_network_enableproxy_clicked
ddb_gui_GTK3.so:on_pref_network_proxyaddress_changed
ddb_gui_GTK3.so:on_pref_network_proxyport_changed
ddb_gui_GTK3.so:on_pref_network_proxytype_changed
ddb_gui_GTK3.so:on_pref_pluginlist_button_press_event
ddb_gui_GTK3.so:on_pref_pluginlist_cursor_changed
ddb_gui_GTK3.so:on_pref_pluginlist_row_activated
ddb_gui_GTK3.so:on_pref_replaygain_processing_changed
ddb_gui_GTK3.so:on_pref_replaygain_source_mode_changed
ddb_gui_GTK3.so:on_preferences_activate
ddb_gui_GTK3.so:on_prefwin_configure_event
ddb_gui_GTK3.so:on_prefwin_key_press_event
ddb_gui_GTK3.so:on_prefwin_realize
ddb_gui_GTK3.so:on_prefwin_response_cb
ddb_gui_GTK3.so:on_prefwin_window_state_event
ddb_gui_GTK3.so:on_presets_clicked
ddb_gui_GTK3.so:on_prevbtn_clicked
ddb_gui_GTK3.so:on_prop_browse_file
ddb_gui_GTK3.so:on_proxypassword_changed
ddb_gui_GTK3.so:on_proxyuser_changed
ddb_gui_GTK3.so:on_quit_activate
ddb_gui_GTK3.so:on_remove1_activate
ddb_gui_GTK3.so:on_replaygain_preamp_value_changed
ddb_gui_GTK3.so:on_reset_autostop_toggled
ddb_gui_GTK3.so:on_reset_autostopalbum_toggled
ddb_gui_GTK3.so:on_resume_last_session_toggled
ddb_gui_GTK3.so:on_save_preset_clicked
ddb_gui_GTK3.so:on_scroll_follows_playback_activate
ddb_gui_GTK3.so:on_searchentry_activate
ddb_gui_GTK3.so:on_searchentry_changed
ddb_gui_GTK3.so:on_searchwin_configure_event
ddb_gui_GTK3.so:on_searchwin_key_press_event
ddb_gui_GTK3.so:on_searchwin_window_state_event
ddb_gui_GTK3.so:on_seekbar_button_press_event
ddb_gui_GTK3.so:on_seekbar_button_release_event
ddb_gui_GTK3.so:on_seekbar_motion_notify_event
ddb_gui_GTK3.so:on_select_all1_activate
ddb_gui_GTK3.so:on_skip_deleted_songs_toggled
ddb_gui_GTK3.so:on_sort_by_album_activate
ddb_gui_GTK3.so:on_sort_by_artist_activate
ddb_gui_GTK3.so:on_sort_by_custom_activate
ddb_gui_GTK3.so:on_sort_by_date_activate
ddb_gui_GTK3.so:on_sort_by_random_activate
ddb_gui_GTK3.so:on_sort_by_title_activate
ddb_gui_GTK3.so:on_sort_by_track_nr_activate
ddb_gui_GTK3.so:on_sortcancel_clicked
ddb_gui_GTK3.so:on_sortfmt_activate
ddb_gui_GTK3.so:on_sortfmt_show
ddb_gui_GTK3.so:on_sortok_clicked
ddb_gui_GTK3.so:on_splitter_lock_c1_toggled
ddb_gui_GTK3.so:on_splitter_lock_c2_toggled
ddb_gui_GTK3.so:on_splitter_lock_prop_toggled
ddb_gui_GTK3.so:on_stop_after_album_activate
ddb_gui_GTK3.so:on_stop_after_current_activate
ddb_gui_GTK3.so:on_stopbtn_clicked
ddb_gui_GTK3.so:on_strip_apev2_toggled
ddb_gui_GTK3.so:on_strip_id3v1_toggled
ddb_gui_GTK3.so:on_strip_id3v2_toggled
ddb_gui_GTK3.so:on_tabstrip_base_color_set
ddb_gui_GTK3.so:on_tabstrip_button_press_event
ddb_gui_GTK3.so:on_tabstrip_button_release_event
ddb_gui_GTK3.so:on_tabstrip_configure_event
ddb_gui_GTK3.so:on_tabstrip_dark_color_set
ddb_gui_GTK3.so:on_tabstrip_drag_data_received
ddb_gui_GTK3.so:on_tabstrip_drag_drop
ddb_gui_GTK3.so:on_tabstrip_drag_end
ddb_gui_GTK3.so:on_tabstrip_drag_leave
ddb_gui_GTK3.so:on_tabstrip_drag_motion_event
ddb_gui_GTK3.so:on_tabstrip_draw
ddb_gui_GTK3.so:on_tabstrip_expose_event
ddb_gui_GTK3.so:on_tabstrip_key_press_event
ddb_gui_GTK3.so:on_tabstrip_leave_notify_event
ddb_gui_GTK3.so:on_tabstrip_light_color_set
ddb_gui_GTK3.so:on_tabstrip_mid_color_set
ddb_gui_GTK3.so:on_tabstrip_motion_notify_event
ddb_gui_GTK3.so:on_tabstrip_playing_bold_toggled
ddb_gui_GTK3.so:on_tabstrip_playing_italic_toggled
ddb_gui_GTK3.so:on_tabstrip_playing_text_color_set
ddb_gui_GTK3.so:on_tabstrip_scroll_event
ddb_gui_GTK3.so:on_tabstrip_selected_bold_toggled
ddb_gui_GTK3.so:on_tabstrip_selected_italic_toggled
ddb_gui_GTK3.so:on_tabstrip_selected_text_color_set
ddb_gui_GTK3.so:on_tabstrip_text_color_set
ddb_gui_GTK3.so:on_tabstrip_text_font_set
ddb_gui_GTK3.so:on_tagwriter_settings_clicked
ddb_gui_GTK3.so:on_titlebar_format_playing_changed
ddb_gui_GTK3.so:on_titlebar_format_stopped_changed
ddb_gui_GTK3.so:on_toggle_eq
ddb_gui_GTK3.so:on_toggle_status_bar_activate
ddb_gui_GTK3.so:on_trackproperties_configure_event
ddb_gui_GTK3.so:on_trackproperties_delete_event
ddb_gui_GTK3.so:on_trackproperties_key_press_event
ddb_gui_GTK3.so:on_trackproperties_window_state_event
ddb_gui_GTK3.so:on_translators1_activate
ddb_gui_GTK3.so:on_trayicon_button_press_event
ddb_gui_GTK3.so:on_trayicon_popup_menu
ddb_gui_GTK3.so:on_trayicon_scroll_event
ddb_gui_GTK3.so:on_trkproperties_add_new_field_activate
ddb_gui_GTK3.so:on_trkproperties_automatically_fill_values_activate
ddb_gui_GTK3.so:on_trkproperties_capitalize_activate
ddb_gui_GTK3.so:on_trkproperties_clean_up_activate
ddb_gui_GTK3.so:on_trkproperties_copy_activate
ddb_gui_GTK3.so:on_trkproperties_crop_activate
ddb_gui_GTK3.so:on_trkproperties_cut_activate
ddb_gui_GTK3.so:on_trkproperties_edit_activate
ddb_gui_GTK3.so:on_trkproperties_edit_in_place_activate
ddb_gui_GTK3.so:on_trkproperties_format_from_other_fields_activate
ddb_gui_GTK3.so:on_trkproperties_paste_activate
ddb_gui_GTK3.so:on_trkproperties_paste_fields_activate
ddb_gui_GTK3.so:on_trkproperties_remove_activate
ddb_gui_GTK3.so:on_use_visualization_background_color_toggled
ddb_gui_GTK3.so:on_use_visualization_base_color_toggled
ddb_gui_GTK3.so:on_useragent_changed
ddb_gui_GTK3.so:on_view_log_activate
ddb_gui_GTK3.so:on_visualization_custom_background_color_button_color_set
ddb_gui_GTK3.so:on_visualization_custom_color_button_color_set
ddb_gui_GTK3.so:on_volumebar_button_press_event
ddb_gui_GTK3.so:on_volumebar_button_release_event
ddb_gui_GTK3.so:on_volumebar_configure_event
ddb_gui_GTK3.so:on_volumebar_draw
ddb_gui_GTK3.so:on_volumebar_motion_notify_event
ddb_gui_GTK3.so:on_volumebar_scroll_event
ddb_gui_GTK3.so:on_write_apev2_toggled
ddb_gui_GTK3.so:on_write_id3v1_toggled
ddb_gui_GTK3.so:on_write_id3v2_toggled
ddb_gui_GTK3.so:on_write_tags_clicked
ddb_gui_GTK3.so:on_wv_strip_apev2_toggled
ddb_gui_GTK3.so:on_wv_strip_id3v1_toggled
ddb_gui_GTK3.so:on_wv_write_apev2_toggled
ddb_gui_GTK3.so:on_wv_write_id3v1_toggled
ddb_gui_GTK3.so:on_zero_all_clicked
ddb_gui_GTK3.so:on_zero_bands_clicked
ddb_gui_GTK3.so:on_zero_preamp_clicked
ddb_gui_GTK3.so:parser_escape_string
ddb_gui_GTK3.so:parser_init
ddb_gui_GTK3.so:parser_line
ddb_gui_GTK3.so:parser_unescape_quoted_string
ddb_gui_GTK3.so:pause16_pixbuf
ddb_gui_GTK3.so:pl_common_add_column_helper
ddb_gui_GTK3.so:pl_common_col_sort
ddb_gui_GTK3.so:pl_common_draw_album_art
ddb_gui_GTK3.so:pl_common_draw_column_data
ddb_gui_GTK3.so:pl_common_draw_group_title
ddb_gui_GTK3.so:pl_common_free
ddb_gui_GTK3.so:pl_common_free_col_info
ddb_gui_GTK3.so:pl_common_get_group_text
ddb_gui_GTK3.so:pl_common_header_context_menu
ddb_gui_GTK3.so:pl_common_init
ddb_gui_GTK3.so:pl_common_is_album_art_column
ddb_gui_GTK3.so:pl_common_load_column_config
ddb_gui_GTK3.so:pl_common_rewrite_column_config
ddb_gui_GTK3.so:pl_common_selection_changed
ddb_gui_GTK3.so:pl_common_set_group_format
ddb_gui_GTK3.so:play16_pixbuf
ddb_gui_GTK3.so:playlist_controller_free
ddb_gui_GTK3.so:playlist_controller_init
ddb_gui_GTK3.so:playlist_controller_message
ddb_gui_GTK3.so:playlist_controller_new
ddb_gui_GTK3.so:plmenu_free
ddb_gui_GTK3.so:plugin
ddb_gui_GTK3.so:prefwin_fill_soundcards
ddb_gui_GTK3.so:prefwin_free_medialib
ddb_gui_GTK3.so:prefwin_free_plugins
ddb_gui_GTK3.so:prefwin_init_appearance_tab
ddb_gui_GTK3.so:prefwin_init_gui_misc_tab
ddb_gui_GTK3.so:prefwin_init_hotkeys
ddb_gui_GTK3.so:prefwin_init_medialib
ddb_gui_GTK3.so:prefwin_init_network_tab
ddb_gui_GTK3.so:prefwin_init_playback_tab
ddb_gui_GTK3.so:prefwin_init_plugins_tab
ddb_gui_GTK3.so:prefwin_init_sound_tab
ddb_gui_GTK3.so:prefwin_init_theme_colors
ddb_gui_GTK3.so:prefwin_run
ddb_gui_GTK3.so:prefwin_set_combobox
ddb_gui_GTK3.so:prefwin_set_entry_text
ddb_gui_GTK3.so:prefwin_set_scale
ddb_gui_GTK3.so:prefwin_set_toggle_button
ddb_gui_GTK3.so:progress_abort
ddb_gui_GTK3.so:progress_destroy
ddb_gui_GTK3.so:progress_hide
ddb_gui_GTK3.so:progress_init
ddb_gui_GTK3.so:progress_is_aborted
ddb_gui_GTK3.so:progress_settext
ddb_gui_GTK3.so:progress_show
ddb_gui_GTK3.so:refresh_undo_redo_menu
ddb_gui_GTK3.so:remove_actions
ddb_gui_GTK3.so:run_dialog_prop_changed_cb
ddb_gui_GTK3.so:run_tagwriter_settings
ddb_gui_GTK3.so:save_playlist_as
ddb_gui_GTK3.so:scope_draw
ddb_gui_GTK3.so:scope_draw_cairo
ddb_gui_GTK3.so:scope_expose_event
ddb_gui_GTK3.so:scriptableDeinitShared
ddb_gui_GTK3.so:scriptableInitShared
ddb_gui_GTK3.so:scriptableItemAddSubItem
ddb_gui_GTK3.so:scriptableItemAlloc
ddb_gui_GTK3.so:scriptableItemChildAtIndex
ddb_gui_GTK3.so:scriptableItemChildren
ddb_gui_GTK3.so:scriptableItemClone
ddb_gui_GTK3.so:scriptableItemConfigDialog
ddb_gui_GTK3.so:scriptableItemContainsSubItemWithName
ddb_gui_GTK3.so:scriptableItemCreateItemOfType
ddb_gui_GTK3.so:scriptableItemFactoryItemNames
ddb_gui_GTK3.so:scriptableItemFactoryItemTypes
ddb_gui_GTK3.so:scriptableItemFlags
ddb_gui_GTK3.so:scriptableItemFlagsAdd
ddb_gui_GTK3.so:scriptableItemFlagsRemove
ddb_gui_GTK3.so:scriptableItemFlagsSet
ddb_gui_GTK3.so:scriptableItemFormattedName
ddb_gui_GTK3.so:scriptableItemFree
ddb_gui_GTK3.so:scriptableItemIndexOfChild
ddb_gui_GTK3.so:scriptableItemInsertSubItemAtIndex
ddb_gui_GTK3.so:scriptableItemIsSubItemNameAllowed
ddb_gui_GTK3.so:scriptableItemNext
ddb_gui_GTK3.so:scriptableItemNumChildren
ddb_gui_GTK3.so:scriptableItemParent
ddb_gui_GTK3.so:scriptableItemPasteboardIdentifier
ddb_gui_GTK3.so:scriptableItemPropertiesForEach
ddb_gui_GTK3.so:scriptableItemPropertyValueForKey
ddb_gui_GTK3.so:scriptableItemRemoveSubItem
ddb_gui_GTK3.so:scriptableItemReset
ddb_gui_GTK3.so:scriptableItemSave
ddb_gui_GTK3.so:scriptableItemSaveToString
ddb_gui_GTK3.so:scriptableItemSetConfigDialog
ddb_gui_GTK3.so:scriptableItemSetOverrides
ddb_gui_GTK3.so:scriptableItemSetPropertyValueForKey
ddb_gui_GTK3.so:scriptableItemSetUniqueNameUsingPrefixAndRoot
ddb_gui_GTK3.so:scriptableItemSubItemForName
ddb_gui_GTK3.so:scriptableItemUpdate
ddb_gui_GTK3.so:scriptableModelAlloc
ddb_gui_GTK3.so:scriptableModelFree
ddb_gui_GTK3.so:scriptableModelGetAPI
ddb_gui_GTK3.so:scriptableModelInit
ddb_gui_GTK3.so:scriptableRootShared
ddb_gui_GTK3.so:scriptableStringListFree
ddb_gui_GTK3.so:scriptableStringListItemAlloc
ddb_gui_GTK3.so:scriptableStringListItemFree
ddb_gui_GTK3.so:search_destroy
ddb_gui_GTK3.so:search_init_listview_api
ddb_gui_GTK3.so:search_message
ddb_gui_GTK3.so:search_playlist_init
ddb_gui_GTK3.so:search_start
ddb_gui_GTK3.so:search_submit_refresh
ddb_gui_GTK3.so:seekbar_draw
ddb_gui_GTK3.so:set_button_action_label
ddb_gui_GTK3.so:set_tab_text_color
ddb_gui_GTK3.so:set_tray_tooltip
ddb_gui_GTK3.so:show_file_chooser
ddb_gui_GTK3.so:show_track_properties_dlg
ddb_gui_GTK3.so:show_track_properties_dlg_with_current_track_list
ddb_gui_GTK3.so:show_track_properties_dlg_with_track_list
ddb_gui_GTK3.so:show_widget
ddb_gui_GTK3.so:skipws
ddb_gui_GTK3.so:spectrum_expose_event
ddb_gui_GTK3.so:strcopy_special
ddb_gui_GTK3.so:tabstrip_adjust_hscroll
ddb_gui_GTK3.so:tabstrip_need_arrows
ddb_gui_GTK3.so:tabstrip_render
ddb_gui_GTK3.so:tabstrip_scroll_cb
ddb_gui_GTK3.so:theme_button
ddb_gui_GTK3.so:theme_treeview
ddb_gui_GTK3.so:title_formatting_help_link_create
ddb_gui_GTK3.so:trayicon
ddb_gui_GTK3.so:traymenu
ddb_gui_GTK3.so:trk_context_menu_build
ddb_gui_GTK3.so:trk_context_menu_update_with_playlist
ddb_gui_GTK3.so:trkproperties_block_keyhandler
ddb_gui_GTK3.so:trkproperties_build_key_list
ddb_gui_GTK3.so:trkproperties_build_track_list_for_ctx
ddb_gui_GTK3.so:trkproperties_destroy
ddb_gui_GTK3.so:trkproperties_fill_meta
ddb_gui_GTK3.so:trkproperties_fill_metadata
ddb_gui_GTK3.so:trkproperties_fill_prop
ddb_gui_GTK3.so:trkproperties_free_track_list
ddb_gui_GTK3.so:trkproperties_get_field_value
ddb_gui_GTK3.so:trkproperties_hc_props
ddb_gui_GTK3.so:trkproperties_modified
ddb_gui_GTK3.so:trkproperties_reload_tags
ddb_gui_GTK3.so:trkproperties_set_delegate
ddb_gui_GTK3.so:trkproperties_types
ddb_gui_GTK3.so:u8_charcpy
ddb_gui_GTK3.so:u8_charnum
ddb_gui_GTK3.so:u8_dec
ddb_gui_GTK3.so:u8_escape
ddb_gui_GTK3.so:u8_escape_wchar
ddb_gui_GTK3.so:u8_inc
ddb_gui_GTK3.so:u8_is_locale_utf8
ddb_gui_GTK3.so:u8_lc_in_word_set
ddb_gui_GTK3.so:u8_lc_map_test
ddb_gui_GTK3.so:u8_memchr
ddb_gui_GTK3.so:u8_nextchar
ddb_gui_GTK3.so:u8_offset
ddb_gui_GTK3.so:u8_printf
ddb_gui_GTK3.so:u8_read_escape_sequence
ddb_gui_GTK3.so:u8_strcasecmp
ddb_gui_GTK3.so:u8_strchr
ddb_gui_GTK3.so:u8_strlen
ddb_gui_GTK3.so:u8_strnbcpy
ddb_gui_GTK3.so:u8_strncpy
ddb_gui_GTK3.so:u8_tolower
ddb_gui_GTK3.so:u8_tolower_slow
ddb_gui_GTK3.so:u8_toucs
ddb_gui_GTK3.so:u8_toupper
ddb_gui_GTK3.so:u8_toupper_slow
ddb_gui_GTK3.so:u8_toutf8
ddb_gui_GTK3.so:u8_uc_in_word_set
ddb_gui_GTK3.so:u8_unescape
ddb_gui_GTK3.so:u8_valid
ddb_gui_GTK3.so:u8_vprintf
ddb_gui_GTK3.so:u8_wc_toutf8
ddb_gui_GTK3.so:undo_integration_init
ddb_gui_GTK3.so:utfcasestr
ddb_gui_GTK3.so:utfcasestr_fast
ddb_gui_GTK3.so:volumebar_draw
ddb_gui_GTK3.so:w_albumart_create
ddb_gui_GTK3.so:w_append
ddb_gui_GTK3.so:w_box_create
ddb_gui_GTK3.so:w_button_create
ddb_gui_GTK3.so:w_button_press_event
ddb_gui_GTK3.so:w_container_add
ddb_gui_GTK3.so:w_container_remove
ddb_gui_GTK3.so:w_create
ddb_gui_GTK3.so:w_create_from_json
ddb_gui_GTK3.so:w_ctvoices_create
ddb_gui_GTK3.so:w_destroy
ddb_gui_GTK3.so:w_dummy_create
ddb_gui_GTK3.so:w_dummy_init
ddb_gui_GTK3.so:w_expose_event
ddb_gui_GTK3.so:w_free
ddb_gui_GTK3.so:w_get_container
ddb_gui_GTK3.so:w_get_design_mode
ddb_gui_GTK3.so:w_get_rootwidget
ddb_gui_GTK3.so:w_get_type_flags
ddb_gui_GTK3.so:w_hbox_create
ddb_gui_GTK3.so:w_hsplitter_create
ddb_gui_GTK3.so:w_hvbox_get_container
ddb_gui_GTK3.so:w_init
ddb_gui_GTK3.so:w_is_registered
ddb_gui_GTK3.so:w_logviewer_create
ddb_gui_GTK3.so:w_logviewer_destroy
ddb_gui_GTK3.so:w_logviewer_is_present
ddb_gui_GTK3.so:w_medialib_viewer_create
ddb_gui_GTK3.so:w_menu_deactivate
ddb_gui_GTK3.so:w_override_signals
ddb_gui_GTK3.so:w_placeholder_create
ddb_gui_GTK3.so:w_placeholder_draw
ddb_gui_GTK3.so:w_placeholder_expose_event
ddb_gui_GTK3.so:w_playlist_create
ddb_gui_GTK3.so:w_playtb_create
ddb_gui_GTK3.so:w_reg_widget
ddb_gui_GTK3.so:w_remove
ddb_gui_GTK3.so:w_replace
ddb_gui_GTK3.so:w_save
ddb_gui_GTK3.so:w_scope_create
ddb_gui_GTK3.so:w_scope_destroy
ddb_gui_GTK3.so:w_scope_draw_cb
ddb_gui_GTK3.so:w_scope_init
ddb_gui_GTK3.so:w_seekbar_create
ddb_gui_GTK3.so:w_selproperties_create
ddb_gui_GTK3.so:w_set_design_mode
ddb_gui_GTK3.so:w_spectrum_create
ddb_gui_GTK3.so:w_spectrum_destroy
ddb_gui_GTK3.so:w_spectrum_draw_cb
ddb_gui_GTK3.so:w_spectrum_init
ddb_gui_GTK3.so:w_splitter_add
ddb_gui_GTK3.so:w_splitter_get_container
ddb_gui_GTK3.so:w_splitter_init
ddb_gui_GTK3.so:w_splitter_initmenu
ddb_gui_GTK3.so:w_splitter_load
ddb_gui_GTK3.so:w_splitter_remove
ddb_gui_GTK3.so:w_splitter_replace
ddb_gui_GTK3.so:w_splitter_save
ddb_gui_GTK3.so:w_tabbed_playlist_create
ddb_gui_GTK3.so:w_tabs_create
ddb_gui_GTK3.so:w_tabstrip_create
ddb_gui_GTK3.so:w_unknown_create
ddb_gui_GTK3.so:w_unknown_destroy
ddb_gui_GTK3.so:w_unreg_widget
ddb_gui_GTK3.so:w_vbox_create
ddb_gui_GTK3.so:w_volumebar_create
ddb_gui_GTK3.so:w_vsplitter_create
ddb_gui_GTK3.so:wingeom_restore
ddb_gui_GTK3.so:wingeom_save
ddb_gui_GTK3.so:wingeom_save_max
ddb_mono2stereo.so:ddb_mono2stereo_load
ddb_mono2stereo.so:m2s_close
ddb_mono2stereo.so:m2s_get_param
ddb_mono2stereo.so:m2s_get_param_name
ddb_mono2stereo.so:m2s_num_params
ddb_mono2stereo.so:m2s_open
ddb_mono2stereo.so:m2s_process
ddb_mono2stereo.so:m2s_reset
ddb_mono2stereo.so:m2s_set_param
ddb_out_pw.so:core_event_done
ddb_out_pw.so:data
ddb_out_pw.so:ddb_out_pw_load
ddb_out_pw.so:deadbeef
ddb_shn.so:Salaw2lineartab
ddb_shn.so:Slinear2alaw
ddb_shn.so:Slinear2ulaw
ddb_shn.so:Sulaw2lineartab
ddb_shn.so:ddb_getc
ddb_shn.so:ddb_shn_load
ddb_shn.so:deadbeef
ddb_shn.so:fix_bitshift
ddb_shn.so:fwrite_type
ddb_shn.so:fwrite_type_init
ddb_shn.so:fwrite_type_quit
ddb_shn.so:get_wave_header
ddb_shn.so:init_decode_state
ddb_shn.so:init_offset
ddb_shn.so:init_sizeof_sample
ddb_shn.so:is_valid_file
ddb_shn.so:load_appended_seek_table
ddb_shn.so:load_separate_seek_table_absolute
ddb_shn.so:load_separate_seek_table_generic
ddb_shn.so:load_separate_seek_table_relative
ddb_shn.so:load_separate_seek_table_samedir
ddb_shn.so:load_shn
ddb_shn.so:long2d
ddb_shn.so:masktab
ddb_shn.so:mkmasktab
ddb_shn.so:pmalloc
ddb_shn.so:print_lines
ddb_shn.so:shn_cfg
ddb_shn.so:shn_debug
ddb_shn.so:shn_decode
ddb_shn.so:shn_error
ddb_shn.so:shn_error_fatal
ddb_shn.so:shn_filename_contains_a_dot
ddb_shn.so:shn_format_to_str
ddb_shn.so:shn_free
ddb_shn.so:shn_free_decoder
ddb_shn.so:shn_get_base_directory
ddb_shn.so:shn_get_base_filename
ddb_shn.so:shn_init
ddb_shn.so:shn_init_decoder
ddb_shn.so:shn_insert
ddb_shn.so:shn_length_to_str
ddb_shn.so:shn_load_seek_table
ddb_shn.so:shn_open
ddb_shn.so:shn_read
ddb_shn.so:shn_seek
ddb_shn.so:shn_seek_entry_search
ddb_shn.so:shn_seek_sample
ddb_shn.so:shn_snprintf
ddb_shn.so:shn_uchar_to_slong_le
ddb_shn.so:shn_uchar_to_ulong_le
ddb_shn.so:shn_uchar_to_ushort_le
ddb_shn.so:shn_unload
ddb_shn.so:shn_verify_header
ddb_shn.so:swap_bytes
ddb_shn.so:ulaw_maxshift
ddb_shn.so:ulaw_outward
ddb_shn.so:ulong_get
ddb_shn.so:uvar_get
ddb_shn.so:var_get
ddb_shn.so:var_get_init
ddb_shn.so:var_get_quit
ddb_shn.so:word_get
ddb_soundtouch.so:_Z17disableExtensionsj
ddb_soundtouch.so:_Z19detectCPUextensionsv
ddb_soundtouch.so:_Z7hammingPfi
ddb_soundtouch.so:_Z8MAFilterPfPKfiii
ddb_soundtouch.so:_ZN10soundtouch10PeakFinder10detectPeakEPKfii
ddb_soundtouch.so:_ZN10soundtouch10PeakFinderC1Ev
ddb_soundtouch.so:_ZN10soundtouch10PeakFinderC2Ev
ddb_soundtouch.so:_ZN10soundtouch10SoundTouch10putSamplesEPKfj
ddb_soundtouch.so:_ZN10soundtouch10SoundTouch10setSettingEii
ddb_soundtouch.so:_ZN10soundtouch10SoundTouch11setChannelsEj
ddb_soundtouch.so:_ZN10soundtouch10SoundTouch12getVersionIdEv
ddb_soundtouch.so:_ZN10soundtouch10SoundTouch13setRateChangeEd
ddb_soundtouch.so:_ZN10soundtouch10SoundTouch13setSampleRateEj
ddb_soundtouch.so:_ZN10soundtouch10SoundTouch14receiveSamplesEPfj
ddb_soundtouch.so:_ZN10soundtouch10SoundTouch14receiveSamplesEj
ddb_soundtouch.so:_ZN10soundtouch10SoundTouch14setTempoChangeEd
ddb_soundtouch.so:_ZN10soundtouch10SoundTouch15setPitchOctavesEd
ddb_soundtouch.so:_ZN10soundtouch10SoundTouch16getVersionStringEv
ddb_soundtouch.so:_ZN10soundtouch10SoundTouch17setPitchSemiTonesEd
ddb_soundtouch.so:_ZN10soundtouch10SoundTouch17setPitchSemiTonesEi
ddb_soundtouch.so:_ZN10soundtouch10SoundTouch25calcEffectiveRateAndTempoEv
ddb_soundtouch.so:_ZN10soundtouch10SoundTouch25getInputOutputSampleRatioEv
ddb_soundtouch.so:_ZN10soundtouch10SoundTouch5clearEv
ddb_soundtouch.so:_ZN10soundtouch10SoundTouch5flushEv
ddb_soundtouch.so:_ZN10soundtouch10SoundTouch7setRateEd
ddb_soundtouch.so:_ZN10soundtouch10SoundTouch8setPitchEd
ddb_soundtouch.so:_ZN10soundtouch10SoundTouch8setTempoEd
ddb_soundtouch.so:_ZN10soundtouch10SoundTouchC1Ev
ddb_soundtouch.so:_ZN10soundtouch10SoundTouchC2Ev
ddb_soundtouch.so:_ZN10soundtouch10SoundTouchD0Ev
ddb_soundtouch.so:_ZN10soundtouch10SoundTouchD1Ev
ddb_soundtouch.so:_ZN10soundtouch10SoundTouchD2Ev
ddb_soundtouch.so:_ZN10soundtouch11IIR2_filter6updateEf
ddb_soundtouch.so:_ZN10soundtouch11IIR2_filterC1EPKd
ddb_soundtouch.so:_ZN10soundtouch11IIR2_filterC2EPKd
ddb_soundtouch.so:_ZN10soundtouch12FIRFilterSSE15setCoefficientsEPKfjj
ddb_soundtouch.so:_ZN10soundtouch12FIRFilterSSEC1Ev
ddb_soundtouch.so:_ZN10soundtouch12FIRFilterSSEC2Ev
ddb_soundtouch.so:_ZN10soundtouch12FIRFilterSSED0Ev
ddb_soundtouch.so:_ZN10soundtouch12FIRFilterSSED1Ev
ddb_soundtouch.so:_ZN10soundtouch12FIRFilterSSED2Ev
ddb_soundtouch.so:_ZN10soundtouch12TDStretchSSE13calcCrossCorrEPKfS2_Rd
ddb_soundtouch.so:_ZN10soundtouch12TDStretchSSE23calcCrossCorrAccumulateEPKfS2_Rd
ddb_soundtouch.so:_ZN10soundtouch14RateTransposer10putSamplesEPKfj
ddb_soundtouch.so:_ZN10soundtouch14RateTransposer11getAAFilterEv
ddb_soundtouch.so:_ZN10soundtouch14RateTransposer11setChannelsEi
ddb_soundtouch.so:_ZN10soundtouch14RateTransposer14enableAAFilterEb
ddb_soundtouch.so:_ZN10soundtouch14RateTransposer14processSamplesEPKfj
ddb_soundtouch.so:_ZN10soundtouch14RateTransposer5clearEv
ddb_soundtouch.so:_ZN10soundtouch14RateTransposer7setRateEd
ddb_soundtouch.so:_ZN10soundtouch14RateTransposerC1Ev
ddb_soundtouch.so:_ZN10soundtouch14RateTransposerC2Ev
ddb_soundtouch.so:_ZN10soundtouch14RateTransposerD0Ev
ddb_soundtouch.so:_ZN10soundtouch14RateTransposerD1Ev
ddb_soundtouch.so:_ZN10soundtouch14RateTransposerD2Ev
ddb_soundtouch.so:_ZN10soundtouch14TransposerBase11newInstanceEv
ddb_soundtouch.so:_ZN10soundtouch14TransposerBase11setChannelsEi
ddb_soundtouch.so:_ZN10soundtouch14TransposerBase12setAlgorithmENS0_9ALGORITHME
ddb_soundtouch.so:_ZN10soundtouch14TransposerBase7setRateEd
ddb_soundtouch.so:_ZN10soundtouch14TransposerBase9algorithmE
ddb_soundtouch.so:_ZN10soundtouch14TransposerBase9transposeERNS_16FIFOSampleBufferES2_
ddb_soundtouch.so:_ZN10soundtouch14TransposerBaseC2Ev
ddb_soundtouch.so:_ZN10soundtouch14TransposerBaseD0Ev
ddb_soundtouch.so:_ZN10soundtouch14TransposerBaseD1Ev
ddb_soundtouch.so:_ZN10soundtouch14TransposerBaseD2Ev
ddb_soundtouch.so:_ZN10soundtouch16FIFOSampleBuffer10putSamplesEPKfj
ddb_soundtouch.so:_ZN10soundtouch16FIFOSampleBuffer10putSamplesEj
ddb_soundtouch.so:_ZN10soundtouch16FIFOSampleBuffer11setChannelsEi
ddb_soundtouch.so:_ZN10soundtouch16FIFOSampleBuffer14ensureCapacityEj
ddb_soundtouch.so:_ZN10soundtouch16FIFOSampleBuffer14receiveSamplesEPfj
ddb_soundtouch.so:_ZN10soundtouch16FIFOSampleBuffer14receiveSamplesEj
ddb_soundtouch.so:_ZN10soundtouch16FIFOSampleBuffer21adjustAmountOfSamplesEj
ddb_soundtouch.so:_ZN10soundtouch16FIFOSampleBuffer5clearEv
ddb_soundtouch.so:_ZN10soundtouch16FIFOSampleBuffer6ptrEndEj
ddb_soundtouch.so:_ZN10soundtouch16FIFOSampleBuffer6rewindEv
ddb_soundtouch.so:_ZN10soundtouch16FIFOSampleBuffer8ptrBeginEv
ddb_soundtouch.so:_ZN10soundtouch16FIFOSampleBufferC1Ei
ddb_soundtouch.so:_ZN10soundtouch16FIFOSampleBufferC2Ei
ddb_soundtouch.so:_ZN10soundtouch16FIFOSampleBufferD0Ev
ddb_soundtouch.so:_ZN10soundtouch16FIFOSampleBufferD1Ev
ddb_soundtouch.so:_ZN10soundtouch16FIFOSampleBufferD2Ev
ddb_soundtouch.so:_ZN10soundtouch16InterpolateCubic13transposeMonoEPfPKfRi
ddb_soundtouch.so:_ZN10soundtouch16InterpolateCubic14resetRegistersEv
ddb_soundtouch.so:_ZN10soundtouch16InterpolateCubic14transposeMultiEPfPKfRi
ddb_soundtouch.so:_ZN10soundtouch16InterpolateCubic15transposeStereoEPfPKfRi
ddb_soundtouch.so:_ZN10soundtouch16InterpolateCubicC1Ev
ddb_soundtouch.so:_ZN10soundtouch16InterpolateCubicC2Ev
ddb_soundtouch.so:_ZN10soundtouch18InterpolateShannon13transposeMonoEPfPKfRi
ddb_soundtouch.so:_ZN10soundtouch18InterpolateShannon14resetRegistersEv
ddb_soundtouch.so:_ZN10soundtouch18InterpolateShannon14transposeMultiEPfPKfRi
ddb_soundtouch.so:_ZN10soundtouch18InterpolateShannon15transposeStereoEPfPKfRi
ddb_soundtouch.so:_ZN10soundtouch18InterpolateShannonC1Ev
ddb_soundtouch.so:_ZN10soundtouch18InterpolateShannonC2Ev
ddb_soundtouch.so:_ZN10soundtouch22InterpolateLinearFloat13transposeMonoEPfPKfRi
ddb_soundtouch.so:_ZN10soundtouch22InterpolateLinearFloat14resetRegistersEv
ddb_soundtouch.so:_ZN10soundtouch22InterpolateLinearFloat14transposeMultiEPfPKfRi
ddb_soundtouch.so:_ZN10soundtouch22InterpolateLinearFloat15transposeStereoEPfPKfRi
ddb_soundtouch.so:_ZN10soundtouch22InterpolateLinearFloatC1Ev
ddb_soundtouch.so:_ZN10soundtouch22InterpolateLinearFloatC2Ev
ddb_soundtouch.so:_ZN10soundtouch24InterpolateLinearInteger13transposeMonoEPfPKfRi
ddb_soundtouch.so:_ZN10soundtouch24InterpolateLinearInteger14resetRegistersEv
ddb_soundtouch.so:_ZN10soundtouch24InterpolateLinearInteger14transposeMultiEPfPKfRi
ddb_soundtouch.so:_ZN10soundtouch24InterpolateLinearInteger15transposeStereoEPfPKfRi
ddb_soundtouch.so:_ZN10soundtouch24InterpolateLinearInteger7setRateEd
ddb_soundtouch.so:_ZN10soundtouch24InterpolateLinearIntegerC1Ev
ddb_soundtouch.so:_ZN10soundtouch24InterpolateLinearIntegerC2Ev
ddb_soundtouch.so:_ZN10soundtouch8AAFilter13setCutoffFreqEd
ddb_soundtouch.so:_ZN10soundtouch8AAFilter15calculateCoeffsEv
ddb_soundtouch.so:_ZN10soundtouch8AAFilter9setLengthEj
ddb_soundtouch.so:_ZN10soundtouch8AAFilterC1Ej
ddb_soundtouch.so:_ZN10soundtouch8AAFilterC2Ej
ddb_soundtouch.so:_ZN10soundtouch8AAFilterD1Ev
ddb_soundtouch.so:_ZN10soundtouch8AAFilterD2Ev
ddb_soundtouch.so:_ZN10soundtouch9BPMDetect10removeBiasEv
ddb_soundtouch.so:_ZN10soundtouch9BPMDetect11updateXCorrEi
ddb_soundtouch.so:_ZN10soundtouch9BPMDetect12inputSamplesEPKfi
ddb_soundtouch.so:_ZN10soundtouch9BPMDetect13updateBeatPosEi
ddb_soundtouch.so:_ZN10soundtouch9BPMDetect6getBpmEv
ddb_soundtouch.so:_ZN10soundtouch9BPMDetect8decimateEPfPKfi
ddb_soundtouch.so:_ZN10soundtouch9BPMDetect8getBeatsEPfS1_i
ddb_soundtouch.so:_ZN10soundtouch9BPMDetectC1Eii
ddb_soundtouch.so:_ZN10soundtouch9BPMDetectC2Eii
ddb_soundtouch.so:_ZN10soundtouch9BPMDetectD0Ev
ddb_soundtouch.so:_ZN10soundtouch9BPMDetectD1Ev
ddb_soundtouch.so:_ZN10soundtouch9BPMDetectD2Ev
ddb_soundtouch.so:_ZN10soundtouch9FIRFilter11newInstanceEv
ddb_soundtouch.so:_ZN10soundtouch9FIRFilter15setCoefficientsEPKfjj
ddb_soundtouch.so:_ZN10soundtouch9FIRFilter19evaluateFilterMultiEPfPKfjj
ddb_soundtouch.so:_ZN10soundtouch9FIRFilter8evaluateEPfPKfjj
ddb_soundtouch.so:_ZN10soundtouch9FIRFilterC1Ev
ddb_soundtouch.so:_ZN10soundtouch9FIRFilterC2Ev
ddb_soundtouch.so:_ZN10soundtouch9FIRFilterD0Ev
ddb_soundtouch.so:_ZN10soundtouch9FIRFilterD1Ev
ddb_soundtouch.so:_ZN10soundtouch9FIRFilterD2Ev
ddb_soundtouch.so:_ZN10soundtouch9FIRFilternwEm
ddb_soundtouch.so:_ZN10soundtouch9TDStretch10clearInputEv
ddb_soundtouch.so:_ZN10soundtouch9TDStretch10putSamplesEPKfj
ddb_soundtouch.so:_ZN10soundtouch9TDStretch11newInstanceEv
ddb_soundtouch.so:_ZN10soundtouch9TDStretch11setChannelsEi
ddb_soundtouch.so:_ZN10soundtouch9TDStretch13calcCrossCorrEPKfS2_Rd
ddb_soundtouch.so:_ZN10soundtouch9TDStretch13setParametersEiiii
ddb_soundtouch.so:_ZN10soundtouch9TDStretch14clearMidBufferEv
ddb_soundtouch.so:_ZN10soundtouch9TDStretch14processSamplesEv
ddb_soundtouch.so:_ZN10soundtouch9TDStretch15adaptNormalizerEv
ddb_soundtouch.so:_ZN10soundtouch9TDStretch15enableQuickSeekEb
ddb_soundtouch.so:_ZN10soundtouch9TDStretch17calcSeqParametersEv
ddb_soundtouch.so:_ZN10soundtouch9TDStretch19clearCrossCorrStateEv
ddb_soundtouch.so:_ZN10soundtouch9TDStretch22acceptNewOverlapLengthEi
ddb_soundtouch.so:_ZN10soundtouch9TDStretch22calculateOverlapLengthEi
ddb_soundtouch.so:_ZN10soundtouch9TDStretch23calcCrossCorrAccumulateEPKfS2_Rd
ddb_soundtouch.so:_ZN10soundtouch9TDStretch23seekBestOverlapPositionEPKf
ddb_soundtouch.so:_ZN10soundtouch9TDStretch27seekBestOverlapPositionFullEPKf
ddb_soundtouch.so:_ZN10soundtouch9TDStretch28seekBestOverlapPositionQuickEPKf
ddb_soundtouch.so:_ZN10soundtouch9TDStretch5clearEv
ddb_soundtouch.so:_ZN10soundtouch9TDStretch8setTempoEd
ddb_soundtouch.so:_ZN10soundtouch9TDStretchC1Ev
ddb_soundtouch.so:_ZN10soundtouch9TDStretchC2Ev
ddb_soundtouch.so:_ZN10soundtouch9TDStretchD0Ev
ddb_soundtouch.so:_ZN10soundtouch9TDStretchD1Ev
ddb_soundtouch.so:_ZN10soundtouch9TDStretchD2Ev
ddb_soundtouch.so:_ZN10soundtouch9TDStretchnwEm
ddb_soundtouch.so:_ZNK10soundtouch10PeakFinder10findGroundEPKfii
ddb_soundtouch.so:_ZNK10soundtouch10PeakFinder13getPeakCenterEPKfi
ddb_soundtouch.so:_ZNK10soundtouch10PeakFinder14calcMassCenterEPKfii
ddb_soundtouch.so:_ZNK10soundtouch10PeakFinder17findCrossingLevelEPKffii
ddb_soundtouch.so:_ZNK10soundtouch10PeakFinder7findTopEPKfi
ddb_soundtouch.so:_ZNK10soundtouch10SoundTouch10getSettingEi
ddb_soundtouch.so:_ZNK10soundtouch10SoundTouch21numUnprocessedSamplesEv
ddb_soundtouch.so:_ZNK10soundtouch12FIRFilterSSE20evaluateFilterStereoEPfPKfj
ddb_soundtouch.so:_ZNK10soundtouch14RateTransposer10getLatencyEv
ddb_soundtouch.so:_ZNK10soundtouch14RateTransposer17isAAFilterEnabledEv
ddb_soundtouch.so:_ZNK10soundtouch14RateTransposer7isEmptyEv
ddb_soundtouch.so:_ZNK10soundtouch16FIFOSampleBuffer10numSamplesEv
ddb_soundtouch.so:_ZNK10soundtouch16FIFOSampleBuffer11getCapacityEv
ddb_soundtouch.so:_ZNK10soundtouch16FIFOSampleBuffer7isEmptyEv
ddb_soundtouch.so:_ZNK10soundtouch8AAFilter8evaluateEPfPKfjj
ddb_soundtouch.so:_ZNK10soundtouch8AAFilter8evaluateERNS_16FIFOSampleBufferES2_
ddb_soundtouch.so:_ZNK10soundtouch8AAFilter9getLengthEv
ddb_soundtouch.so:_ZNK10soundtouch9FIRFilter18evaluateFilterMonoEPfPKfj
ddb_soundtouch.so:_ZNK10soundtouch9FIRFilter20evaluateFilterStereoEPfPKfj
ddb_soundtouch.so:_ZNK10soundtouch9FIRFilter9getLengthEv
ddb_soundtouch.so:_ZNK10soundtouch9TDStretch11overlapMonoEPfPKf
ddb_soundtouch.so:_ZNK10soundtouch9TDStretch12overlapMultiEPfPKf
ddb_soundtouch.so:_ZNK10soundtouch9TDStretch13getParametersEPiS1_S1_S1_
ddb_soundtouch.so:_ZNK10soundtouch9TDStretch13overlapStereoEPfPKf
ddb_soundtouch.so:_ZNK10soundtouch9TDStretch18isQuickSeekEnabledEv
ddb_soundtouch.so:_ZTIN10soundtouch10SoundTouchE
ddb_soundtouch.so:_ZTIN10soundtouch12FIRFilterSSEE
ddb_soundtouch.so:_ZTIN10soundtouch12TDStretchSSEE
ddb_soundtouch.so:_ZTIN10soundtouch14RateTransposerE
ddb_soundtouch.so:_ZTIN10soundtouch14TransposerBaseE
ddb_soundtouch.so:_ZTIN10soundtouch16FIFOSampleBufferE
ddb_soundtouch.so:_ZTIN10soundtouch16InterpolateCubicE
ddb_soundtouch.so:_ZTIN10soundtouch18InterpolateShannonE
ddb_soundtouch.so:_ZTIN10soundtouch22InterpolateLinearFloatE
ddb_soundtouch.so:_ZTIN10soundtouch24InterpolateLinearIntegerE
ddb_soundtouch.so:_ZTIN10soundtouch9BPMDetectE
ddb_soundtouch.so:_ZTIN10soundtouch9FIRFilterE
ddb_soundtouch.so:_ZTIN10soundtouch9TDStretchE
ddb_soundtouch.so:_ZTSN10soundtouch10SoundTouchE
ddb_soundtouch.so:_ZTSN10soundtouch12FIRFilterSSEE
ddb_soundtouch.so:_ZTSN10soundtouch12TDStretchSSEE
ddb_soundtouch.so:_ZTSN10soundtouch14RateTransposerE
ddb_soundtouch.so:_ZTSN10soundtouch14TransposerBaseE
ddb_soundtouch.so:_ZTSN10soundtouch16FIFOSampleBufferE
ddb_soundtouch.so:_ZTSN10soundtouch16InterpolateCubicE
ddb_soundtouch.so:_ZTSN10soundtouch18InterpolateShannonE
ddb_soundtouch.so:_ZTSN10soundtouch22InterpolateLinearFloatE
ddb_soundtouch.so:_ZTSN10soundtouch24InterpolateLinearIntegerE
ddb_soundtouch.so:_ZTSN10soundtouch9BPMDetectE
ddb_soundtouch.so:_ZTSN10soundtouch9FIRFilterE
ddb_soundtouch.so:_ZTSN10soundtouch9TDStretchE
ddb_soundtouch.so:_ZTVN10soundtouch10SoundTouchE
ddb_soundtouch.so:_ZTVN10soundtouch12FIRFilterSSEE
ddb_soundtouch.so:_ZTVN10soundtouch12TDStretchSSEE
ddb_soundtouch.so:_ZTVN10soundtouch14RateTransposerE
ddb_soundtouch.so:_ZTVN10soundtouch14TransposerBaseE
ddb_soundtouch.so:_ZTVN10soundtouch16FIFOSampleBufferE
ddb_soundtouch.so:_ZTVN10soundtouch16InterpolateCubicE
ddb_soundtouch.so:_ZTVN10soundtouch18InterpolateShannonE
ddb_soundtouch.so:_ZTVN10soundtouch22InterpolateLinearFloatE
ddb_soundtouch.so:_ZTVN10soundtouch24InterpolateLinearIntegerE
ddb_soundtouch.so:_ZTVN10soundtouch9BPMDetectE
ddb_soundtouch.so:_ZTVN10soundtouch9FIRFilterE
ddb_soundtouch.so:_ZTVN10soundtouch9TDStretchE
ddb_soundtouch.so:_dontcomplain_mmx_empty
ddb_soundtouch.so:ddb_soundtouch_load
ddb_soundtouch.so:soundtouch_ac_test
ddb_soundtouch.so:st_alloc
ddb_soundtouch.so:st_clear
ddb_soundtouch.so:st_close
ddb_soundtouch.so:st_flush
ddb_soundtouch.so:st_free
ddb_soundtouch.so:st_get_param
ddb_soundtouch.so:st_get_param_name
ddb_soundtouch.so:st_get_setting
ddb_soundtouch.so:st_num_params
ddb_soundtouch.so:st_num_unprocessed_samples
ddb_soundtouch.so:st_open
ddb_soundtouch.so:st_process
ddb_soundtouch.so:st_put_samples
ddb_soundtouch.so:st_receive_samples
ddb_soundtouch.so:st_reset
ddb_soundtouch.so:st_set_channels
ddb_soundtouch.so:st_set_param
ddb_soundtouch.so:st_set_pitch
ddb_soundtouch.so:st_set_pitch_octaves
ddb_soundtouch.so:st_set_pitch_semi_tones
ddb_soundtouch.so:st_set_rate
ddb_soundtouch.so:st_set_rate_change
ddb_soundtouch.so:st_set_sample_rate
ddb_soundtouch.so:st_set_setting
ddb_soundtouch.so:st_set_tempo
ddb_soundtouch.so:st_set_tempo_change
dsp_libsrc.so:ddb_src_can_bypass
dsp_libsrc.so:ddb_src_close
dsp_libsrc.so:ddb_src_get_param
dsp_libsrc.so:ddb_src_get_param_name
dsp_libsrc.so:ddb_src_num_params
dsp_libsrc.so:ddb_src_open
dsp_libsrc.so:ddb_src_process
dsp_libsrc.so:ddb_src_reset
dsp_libsrc.so:ddb_src_set_param
dsp_libsrc.so:ddb_src_set_ratio
dsp_libsrc.so:dsp_libsrc_load
ffap.so:ffap_load
ffap.so:mm_support
ffmpeg.so:ffmpeg_load
ffmpeg.so:ffmpeg_read_metadata
ffmpeg.so:is_codec_dsd
flac.so:flac_load
gme.so:AR_TAB
gme.so:C352_fetch_sample
gme.so:C352_generate_mulaw
gme.so:C352_update_voice
gme.so:CHANNEL_SET
gme.so:CalcSampleMSec
gme.so:CalcSampleMSecExt
gme.so:CloseVGMFile
gme.so:DAC_Highpass_Enable
gme.so:DECAY_TO_ATTACK
gme.so:DMACycles
gme.so:DR_TAB
gme.so:DT_DEF_TAB
gme.so:DT_TAB
gme.so:ENV_NEXT_EVENT
gme.so:ENV_TAB
gme.so:Env_Attack_Next
gme.so:Env_Decay_Next
gme.so:Env_NULL_Next
gme.so:Env_Release_Next
gme.so:Env_Substain_Next
gme.so:FINC_TAB
gme.so:FKEY_TAB
gme.so:FillBuffer
gme.so:FreeGD3Tag
gme.so:GetAccurateChipName
gme.so:GetAccurateChipNameByChannel
gme.so:GetChipClock
gme.so:GetChipName
gme.so:GetGZFileLength
gme.so:GetVGMFileInfo
gme.so:GetVGMFileInfo_Handle
gme.so:IremGA20_update
gme.so:LFO_AMS_TAB
gme.so:LFO_ENV_TAB
gme.so:LFO_FMS_TAB
gme.so:LFO_FREQ_TAB
gme.so:LFO_INC_TAB
gme.so:MultiPCM_update
gme.so:NES_APU_np_Create
gme.so:NES_APU_np_Destroy
gme.so:NES_APU_np_FrameSequence
gme.so:NES_APU_np_Read
gme.so:NES_APU_np_Render
gme.so:NES_APU_np_Reset
gme.so:NES_APU_np_SetClock
gme.so:NES_APU_np_SetMask
gme.so:NES_APU_np_SetOption
gme.so:NES_APU_np_SetRate
gme.so:NES_APU_np_SetStereoMix
gme.so:NES_APU_np_Write
gme.so:NES_DMC_np_Create
gme.so:NES_DMC_np_Destroy
gme.so:NES_DMC_np_GetDamp
gme.so:NES_DMC_np_Read
gme.so:NES_DMC_np_Render
gme.so:NES_DMC_np_Reset
gme.so:NES_DMC_np_SetAPU
gme.so:NES_DMC_np_SetClock
gme.so:NES_DMC_np_SetMask
gme.so:NES_DMC_np_SetMemory
gme.so:NES_DMC_np_SetOption
gme.so:NES_DMC_np_SetPal
gme.so:NES_DMC_np_SetRate
gme.so:NES_DMC_np_SetStereoMix
gme.so:NES_DMC_np_Write
gme.so:NES_FDS_Create
gme.so:NES_FDS_Destroy
gme.so:NES_FDS_Read
gme.so:NES_FDS_Render
gme.so:NES_FDS_Reset
gme.so:NES_FDS_SetClock
gme.so:NES_FDS_SetMask
gme.so:NES_FDS_SetOption
gme.so:NES_FDS_SetRate
gme.so:NES_FDS_SetStereoMix
gme.so:NES_FDS_Write
gme.so:NULL_RATE
gme.so:OPLL_SetChipMode
gme.so:OPLL_SetMuteMask
gme.so:OPLL_advance
gme.so:OPLL_calc
gme.so:OPLL_calc_stereo
gme.so:OPLL_copyPatch
gme.so:OPLL_delete
gme.so:OPLL_dump2patch
gme.so:OPLL_forceRefresh
gme.so:OPLL_getDefaultPatch
gme.so:OPLL_new
gme.so:OPLL_patch2dump
gme.so:OPLL_reset
gme.so:OPLL_reset_patch
gme.so:OPLL_setPatch
gme.so:OPLL_set_pan
gme.so:OPLL_set_quality
gme.so:OPLL_set_rate
gme.so:OPLL_writeIO
gme.so:OPLL_writeReg
gme.so:OpenVGMFile
gme.so:OpenVGMFile_Handle
gme.so:PCM_Init
gme.so:PCM_Reset
gme.so:PCM_Set_Rate
gme.so:PCM_Update
gme.so:PCM_Write_Reg
gme.so:PSG_Deinit
gme.so:PSG_GetMutePsgChannel
gme.so:PSG_Init
gme.so:PSG_Mix
gme.so:PSG_Read
gme.so:PSG_ResetVolumeReg
gme.so:PSG_SetHoneyInTheSky
gme.so:PSG_SetMuteMask
gme.so:PSG_SetMutePsgChannel
gme.so:PSG_Write
gme.so:PSG_calc
gme.so:PSG_calc_stereo
gme.so:PSG_delete
gme.so:PSG_new
gme.so:PSG_readIO
gme.so:PSG_readReg
gme.so:PSG_reset
gme.so:PSG_setFlags
gme.so:PSG_setMask
gme.so:PSG_setVolumeMode
gme.so:PSG_set_clock
gme.so:PSG_set_quality
gme.so:PSG_set_rate
gme.so:PSG_toggleMask
gme.so:PSG_writeIO
gme.so:PSG_writeReg
gme.so:PWM_Clear_Timer
gme.so:PWM_FULL_TAB
gme.so:PWM_Init
gme.so:PWM_Recalc_Scale
gme.so:PWM_Set_Cycle
gme.so:PWM_Set_Int
gme.so:PWM_Update
gme.so:PlayVGM
gme.so:RefreshMuting
gme.so:RefreshPanning
gme.so:RefreshPlaybackOptions
gme.so:RestartVGM
gme.so:SCSP_Update
gme.so:SEGAPCM_update
gme.so:SIN_TAB
gme.so:SLOT_SET
gme.so:SL_TAB
gme.so:SN76489_Config
gme.so:SN76489_GGStereoWrite
gme.so:SN76489_Init
gme.so:SN76489_Reset
gme.so:SN76489_SetMute
gme.so:SN76489_SetPanning
gme.so:SN76489_Shutdown
gme.so:SN76489_Update
gme.so:SN76489_Write
gme.so:SN76496Update
gme.so:SamplePlayback2VGM
gme.so:SampleVGM2Playback
gme.so:SeekVGM
gme.so:SetChannelMute
gme.so:StopVGM
gme.so:TL_TAB
gme.so:UPDATE_CHAN
gme.so:Update_Chan_Algo0
gme.so:Update_Chan_Algo0_Int
gme.so:Update_Chan_Algo0_LFO
gme.so:Update_Chan_Algo0_LFO_Int
gme.so:Update_Chan_Algo1
gme.so:Update_Chan_Algo1_Int
gme.so:Update_Chan_Algo1_LFO
gme.so:Update_Chan_Algo1_LFO_Int
gme.so:Update_Chan_Algo2
gme.so:Update_Chan_Algo2_Int
gme.so:Update_Chan_Algo2_LFO
gme.so:Update_Chan_Algo2_LFO_Int
gme.so:Update_Chan_Algo3
gme.so:Update_Chan_Algo3_Int
gme.so:Update_Chan_Algo3_LFO
gme.so:Update_Chan_Algo3_LFO_Int
gme.so:Update_Chan_Algo4
gme.so:Update_Chan_Algo4_Int
gme.so:Update_Chan_Algo4_LFO
gme.so:Update_Chan_Algo4_LFO_Int
gme.so:Update_Chan_Algo5
gme.so:Update_Chan_Algo5_Int
gme.so:Update_Chan_Algo5_LFO
gme.so:Update_Chan_Algo5_LFO_Int
gme.so:Update_Chan_Algo6
gme.so:Update_Chan_Algo6_Int
gme.so:Update_Chan_Algo6_LFO
gme.so:Update_Chan_Algo6_LFO_Int
gme.so:Update_Chan_Algo7
gme.so:Update_Chan_Algo7_Int
gme.so:Update_Chan_Algo7_LFO
gme.so:Update_Chan_Algo7_LFO_Int
gme.so:VGMPlay_Deinit
gme.so:VGMPlay_Init
gme.so:VGMPlay_Init2
gme.so:VSU_Write
gme.so:YM2612_ClearBuffer
gme.so:YM2612_DacAndTimers_Update
gme.so:YM2612_Enable
gme.so:YM2612_Enable_SSGEG
gme.so:YM2612_End
gme.so:YM2612_GetMute
gme.so:YM2612_Improv
gme.so:YM2612_Init
gme.so:YM2612_Read
gme.so:YM2612_Reset
gme.so:YM2612_SetMute
gme.so:YM2612_SetOptions
gme.so:YM2612_Special_Update
gme.so:YM2612_Update
gme.so:YM2612_Write
gme.so:YM_Buf
gme.so:YM_DELTAT_ADPCM_CALC
gme.so:YM_DELTAT_ADPCM_Read
gme.so:YM_DELTAT_ADPCM_Reset
gme.so:YM_DELTAT_ADPCM_Write
gme.so:YM_DELTAT_calc_mem_mask
gme.so:YM_Len
gme.so:YM_SET
gme.so:_Z13hash_nsf_fileRK12nsf_header_tPKhiRN5gme_t13Hash_FunctionE
gme.so:_Z14blargg_err_strPKc
gme.so:_Z14blargg_to_utf8PKt
gme.so:_Z14blargg_to_widePKc
gme.so:_Z16utf8_decode_charPKcRjm
gme.so:_Z16utf8_encode_charjPc
gme.so:_Z17utf16_decode_charPKtPjm
gme.so:_Z17utf16_encode_charjPt
gme.so:_Z18blargg_code_to_erriPK20blargg_err_to_code_t
gme.so:_Z18blargg_err_detailsPKc
gme.so:_Z18blargg_err_to_codePKcPK20blargg_err_to_code_t
gme.so:_Z18blargg_is_err_typePKcS0_
gme.so:_Z18gme_set_track_infoP5gme_tP10gme_info_ti
gme.so:_Z25utf8_char_len_from_headerc
gme.so:_ZN10Bml_Parser13clearDocumentEv
gme.so:_ZN10Bml_Parser13parseDocumentEPKcm
gme.so:_ZN10Bml_Parser7addNodeEPKcS1_
gme.so:_ZN10Bml_Parser8setValueEPKcS1_
gme.so:_ZN10Bml_Parser8setValueEPKcl
gme.so:_ZN10Bml_ParserC1Ev
gme.so:_ZN10Bml_ParserC2Ev
gme.so:_ZN10Bml_ParserD1Ev
gme.so:_ZN10Bml_ParserD2Ev
gme.so:_ZN10Gme_Loader10post_load_EPKc
gme.so:_ZN10Gme_Loader4loadER11Data_Reader
gme.so:_ZN10Gme_Loader5load_ER11Data_Reader
gme.so:_ZN10Gme_Loader6unloadEv
gme.so:_ZN10Gme_Loader8load_memEPKvl
gme.so:_ZN10Gme_Loader9load_fileEPKc
gme.so:_ZN10Gme_Loader9load_mem_EPKhi
gme.so:_ZN10Gme_LoaderC1Ev
gme.so:_ZN10Gme_LoaderC2Ev
gme.so:_ZN10Gme_LoaderD0Ev
gme.so:_ZN10Gme_LoaderD1Ev
gme.so:_ZN10Gme_LoaderD2Ev
gme.so:_ZN10Nes_Square11clock_sweepEi
gme.so:_ZN10Nes_Square3runEii
gme.so:_ZN10Sms_Fm_Apu10write_dataEii
gme.so:_ZN10Sms_Fm_Apu4initEdd
gme.so:_ZN10Sms_Fm_Apu5resetEv
gme.so:_ZN10Sms_Fm_Apu9end_frameEi
gme.so:_ZN10Sms_Fm_Apu9run_untilEi
gme.so:_ZN10Sms_Fm_ApuC1Ev
gme.so:_ZN10Sms_Fm_ApuC2Ev
gme.so:_ZN10Sms_Fm_ApuD1Ev
gme.so:_ZN10Sms_Fm_ApuD2Ev
gme.so:_ZN10Spc_Filter17build_limit_tableEv
gme.so:_ZN10Spc_Filter3runEPsi
gme.so:_ZN10Spc_Filter5clearEv
gme.so:_ZN10Spc_FilterC1Ev
gme.so:_ZN10Spc_FilterC2Ev
gme.so:_ZN10Ym2413_Emu11mute_voicesEi
gme.so:_ZN10Ym2413_Emu3runEiPs
gme.so:_ZN10Ym2413_Emu5resetEv
gme.so:_ZN10Ym2413_Emu5writeEii
gme.so:_ZN10Ym2413_Emu8set_rateEii
gme.so:_ZN10Ym2413_EmuC1Ev
gme.so:_ZN10Ym2413_EmuC2Ev
gme.so:_ZN10Ym2413_EmuD1Ev
gme.so:_ZN10Ym2413_EmuD2Ev
gme.so:_ZN10Ym2612_Emu11mute_voicesEi
gme.so:_ZN10Ym2612_Emu3runEiPs
gme.so:_ZN10Ym2612_Emu5resetEv
gme.so:_ZN10Ym2612_Emu6write0Eii
gme.so:_ZN10Ym2612_Emu6write1Eii
gme.so:_ZN10Ym2612_Emu8set_rateEdd
gme.so:_ZN10Ym2612_EmuD1Ev
gme.so:_ZN10Ym2612_EmuD2Ev
gme.so:_ZN11Blip_Buffer10load_stateERK19blip_buffer_state_t
gme.so:_ZN11Blip_Buffer10save_stateEP19blip_buffer_state_t
gme.so:_ZN11Blip_Buffer11mix_samplesEPKsi
gme.so:_ZN11Blip_Buffer12read_samplesEPsib
gme.so:_ZN11Blip_Buffer14remove_samplesEi
gme.so:_ZN11Blip_Buffer15set_sample_rateEii
gme.so:_ZN11Blip_Buffer5clearEv
gme.so:_ZN11Blip_Buffer9bass_freqEi
gme.so:_ZN11Blip_Buffer9end_frameEi
gme.so:_ZN11Blip_BufferC1Ev
gme.so:_ZN11Blip_BufferC2Ev
gme.so:_ZN11Blip_BufferD1Ev
gme.so:_ZN11Blip_BufferD2Ev
gme.so:_ZN11Blip_Synth_11volume_unitEd
gme.so:_ZN11Blip_Synth_14adjust_impulseEv
gme.so:_ZN11Blip_Synth_14rescale_kernelEi
gme.so:_ZN11Blip_Synth_9treble_eqERK9blip_eq_t
gme.so:_ZN11Blip_Synth_C1EPsi
gme.so:_ZN11Blip_Synth_C2EPsi
gme.so:_ZN11Classic_Emu12mute_voices_Ei
gme.so:_ZN11Classic_Emu12setup_bufferEi
gme.so:_ZN11Classic_Emu12start_track_Ei
gme.so:_ZN11Classic_Emu14set_equalizer_ERK15gme_equalizer_t
gme.so:_ZN11Classic_Emu16set_sample_rate_Ei
gme.so:_ZN11Classic_Emu17change_clock_rateEi
gme.so:_ZN11Classic_Emu5play_EiPs
gme.so:_ZN11Classic_EmuC1Ev
gme.so:_ZN11Classic_EmuC2Ev
gme.so:_ZN11Classic_EmuD0Ev
gme.so:_ZN11Classic_EmuD1Ev
gme.so:_ZN11Classic_EmuD2Ev
gme.so:_ZN11Data_Reader10read_availEPvPi
gme.so:_ZN11Data_Reader10read_availEPvPl
gme.so:_ZN11Data_Reader4readEPvl
gme.so:_ZN11Data_Reader4skipEl
gme.so:_ZN11Data_Reader6skip_vEm
gme.so:_ZN11Downsampler6clear_Ev
gme.so:_ZN11Downsampler9resample_EPPsPKsS3_i
gme.so:_ZN11Downsampler9set_rate_Ed
gme.so:_ZN11DownsamplerC1Ev
gme.so:_ZN11DownsamplerC2Ev
gme.so:_ZN11File_Reader4seekEm
gme.so:_ZN11File_Reader6skip_vEm
gme.so:_ZN11Mono_Buffer15set_sample_rateEii
gme.so:_ZN11Mono_BufferC1Ev
gme.so:_ZN11Mono_BufferC2Ev
gme.so:_ZN11Mono_BufferD0Ev
gme.so:_ZN11Mono_BufferD1Ev
gme.so:_ZN11Mono_BufferD2Ev
gme.so:_ZN11Nes_Fds_Apu5resetEv
gme.so:_ZN11Nes_Fds_Apu6write_Eji
gme.so:_ZN11Nes_Fds_Apu9run_untilEi
gme.so:_ZN11Nes_Fds_Apu9set_tempoEd
gme.so:_ZN12M3u_Playlist4loadEPKc
gme.so:_ZN12M3u_Playlist4loadEPKvl
gme.so:_ZN12M3u_Playlist4loadER11Data_Reader
gme.so:_ZN12M3u_Playlist5parseEv
gme.so:_ZN12M3u_Playlist6parse_Ev
gme.so:_ZN12Multi_Buffer7channelEi
gme.so:_ZN12Multi_BufferC1Ei
gme.so:_ZN12Multi_BufferC2Ei
gme.so:_ZN12Nes_Envelope14clock_envelopeEv
gme.so:_ZN12Nes_Fme7_Apu5resetEv
gme.so:_ZN12Nes_Fme7_Apu9amp_tableE
gme.so:_ZN12Nes_Fme7_Apu9run_untilEi
gme.so:_ZN12Nes_Triangle20clock_linear_counterEv
gme.so:_ZN12Nes_Triangle3runEii
gme.so:_ZN12Nes_Vrc6_Apu10load_stateERK16vrc6_apu_state_t
gme.so:_ZN12Nes_Vrc6_Apu10run_squareERNS_8Vrc6_OscEi
gme.so:_ZN12Nes_Vrc6_Apu10set_outputEP11Blip_Buffer
gme.so:_ZN12Nes_Vrc6_Apu5resetEv
gme.so:_ZN12Nes_Vrc6_Apu7run_sawEi
gme.so:_ZN12Nes_Vrc6_Apu9end_frameEi
gme.so:_ZN12Nes_Vrc6_Apu9run_untilEi
gme.so:_ZN12Nes_Vrc6_Apu9write_oscEiiii
gme.so:_ZN12Nes_Vrc6_ApuC1Ev
gme.so:_ZN12Nes_Vrc6_ApuC2Ev
gme.so:_ZN12Nes_Vrc7_Apu10set_outputEP11Blip_Buffer
gme.so:_ZN12Nes_Vrc7_Apu10write_dataEii
gme.so:_ZN12Nes_Vrc7_Apu13load_snapshotERK15vrc7_snapshot_t
gme.so:_ZN12Nes_Vrc7_Apu14output_changedEv
gme.so:_ZN12Nes_Vrc7_Apu4initEv
gme.so:_ZN12Nes_Vrc7_Apu5resetEv
gme.so:_ZN12Nes_Vrc7_Apu9end_frameEi
gme.so:_ZN12Nes_Vrc7_Apu9run_untilEi
gme.so:_ZN12Nes_Vrc7_Apu9write_regEi
gme.so:_ZN12Nes_Vrc7_ApuC1Ev
gme.so:_ZN12Nes_Vrc7_ApuC2Ev
gme.so:_ZN12Nes_Vrc7_ApuD1Ev
gme.so:_ZN12Nes_Vrc7_ApuD2Ev
gme.so:_ZN12Sap_Apu_ImplC1Ev
gme.so:_ZN12Sap_Apu_ImplC2Ev
gme.so:_ZN12Stereo_Mixer10mix_stereoEPsi
gme.so:_ZN12Stereo_Mixer10read_pairsEPsi
gme.so:_ZN12Stereo_Mixer8mix_monoEPsi
gme.so:_ZN12SuperFamicom16SPC_State_Copier4copyEPvm
gme.so:_ZN12SuperFamicom16SPC_State_Copier4skipEi
gme.so:_ZN12SuperFamicom16SPC_State_Copier5extraEv
gme.so:_ZN12SuperFamicom16SPC_State_Copier8copy_intEii
gme.so:_ZN12SuperFamicom3DSP14channel_enableEjb
gme.so:_ZN12SuperFamicom3DSP16disable_surroundEb
gme.so:_ZN12SuperFamicom3DSP4muteEv
gme.so:_ZN12SuperFamicom3DSP4readEh
gme.so:_ZN12SuperFamicom3DSP5enterEv
gme.so:_ZN12SuperFamicom3DSP5powerEv
gme.so:_ZN12SuperFamicom3DSP5resetEv
gme.so:_ZN12SuperFamicom3DSP5writeEhh
gme.so:_ZN12SuperFamicom3DSPC1ERNS_3SMPE
gme.so:_ZN12SuperFamicom3DSPC2ERNS_3SMPE
gme.so:_ZN12SuperFamicom3DSPD1Ev
gme.so:_ZN12SuperFamicom3DSPD2Ev
gme.so:_ZN12SuperFamicom3SMP10op_busreadEt
gme.so:_ZN12SuperFamicom3SMP10port_writeEhh
gme.so:_ZN12SuperFamicom3SMP11op_buswriteEth
gme.so:_ZN12SuperFamicom3SMP17disassembler_readEt
gme.so:_ZN12SuperFamicom3SMP4skipEj
gme.so:_ZN12SuperFamicom3SMP5enterEv
gme.so:_ZN12SuperFamicom3SMP5op_ioEv
gme.so:_ZN12SuperFamicom3SMP5powerEv
gme.so:_ZN12SuperFamicom3SMP5resetEv
gme.so:_ZN12SuperFamicom3SMP6renderEPsj
gme.so:_ZN12SuperFamicom3SMP6sampleEss
gme.so:_ZN12SuperFamicom3SMP7op_readEt
gme.so:_ZN12SuperFamicom3SMP8op_writeEth
gme.so:_ZN12SuperFamicom3SMPC1Ev
gme.so:_ZN12SuperFamicom3SMPC2Ev
gme.so:_ZN12SuperFamicom3SMPD1Ev
gme.so:_ZN12SuperFamicom3SMPD2Ev
gme.so:_ZN12SuperFamicom7SPC_DSP10copy_stateEPPhPFvS2_PvmE
gme.so:_ZN12SuperFamicom7SPC_DSP10set_outputEPsi
gme.so:_ZN12SuperFamicom7SPC_DSP10soft_resetEv
gme.so:_ZN12SuperFamicom7SPC_DSP14voice_V7_V4_V1EPNS0_7voice_tE
gme.so:_ZN12SuperFamicom7SPC_DSP14voice_V8_V5_V2EPNS0_7voice_tE
gme.so:_ZN12SuperFamicom7SPC_DSP14voice_V9_V6_V3EPNS0_7voice_tE
gme.so:_ZN12SuperFamicom7SPC_DSP17soft_reset_commonEv
gme.so:_ZN12SuperFamicom7SPC_DSP3runEi
gme.so:_ZN12SuperFamicom7SPC_DSP4initEPv
gme.so:_ZN12SuperFamicom7SPC_DSP4loadEPKh
gme.so:_ZN12SuperFamicom7SPC_DSP5resetEv
gme.so:_ZN12SuperFamicom7SPC_DSP8voice_V4EPNS0_7voice_tE
gme.so:_ZN12SuperFamicom7SPC_DSP9voice_V3cEPNS0_7voice_tE
gme.so:_ZN12Track_Filter11handle_fadeEPsi
gme.so:_ZN12Track_Filter11start_trackEv
gme.so:_ZN12Track_Filter15clear_time_varsEv
gme.so:_ZN12Track_Filter18end_track_if_errorEPKc
gme.so:_ZN12Track_Filter4initEPNS_11callbacks_tE
gme.so:_ZN12Track_Filter4playEiPs
gme.so:_ZN12Track_Filter4skipEi
gme.so:_ZN12Track_Filter4stopEv
gme.so:_ZN12Track_Filter5skip_Ei
gme.so:_ZN12Track_Filter8emu_playEPsi
gme.so:_ZN12Track_Filter8fill_bufEv
gme.so:_ZN12Track_Filter8set_fadeEii
gme.so:_ZN12Track_FilterC1Ev
gme.so:_ZN12Track_FilterC2Ev
gme.so:_ZN12Track_FilterD1Ev
gme.so:_ZN12Track_FilterD2Ev
gme.so:_ZN13Hes_Apu_Adpcm10set_outputEiP11Blip_BufferS1_S1_
gme.so:_ZN13Hes_Apu_Adpcm10write_dataEiii
gme.so:_ZN13Hes_Apu_Adpcm12adpcm_decodeEi
gme.so:_ZN13Hes_Apu_Adpcm5resetEv
gme.so:_ZN13Hes_Apu_Adpcm9end_frameEi
gme.so:_ZN13Hes_Apu_Adpcm9read_dataEii
gme.so:_ZN13Hes_Apu_Adpcm9run_untilEi
gme.so:_ZN13Hes_Apu_AdpcmC1Ev
gme.so:_ZN13Hes_Apu_AdpcmC2Ev
gme.so:_ZN13Nes_Namco_Apu10set_outputEP11Blip_Buffer
gme.so:_ZN13Nes_Namco_Apu5resetEv
gme.so:_ZN13Nes_Namco_Apu9end_frameEi
gme.so:_ZN13Nes_Namco_Apu9run_untilEi
gme.so:_ZN13Nes_Namco_ApuC1Ev
gme.so:_ZN13Nes_Namco_ApuC2Ev
gme.so:_ZN13Silent_BufferC1Ev
gme.so:_ZN13Silent_BufferC2Ev
gme.so:_ZN13Stereo_Buffer10clock_rateEi
gme.so:_ZN13Stereo_Buffer12read_samplesEPsi
gme.so:_ZN13Stereo_Buffer15set_sample_rateEii
gme.so:_ZN13Stereo_Buffer5clearEv
gme.so:_ZN13Stereo_Buffer9bass_freqEi
gme.so:_ZN13Stereo_Buffer9end_frameEi
gme.so:_ZN13Stereo_BufferC1Ev
gme.so:_ZN13Stereo_BufferC2Ev
gme.so:_ZN13Stereo_BufferD0Ev
gme.so:_ZN13Stereo_BufferD1Ev
gme.so:_ZN13Stereo_BufferD2Ev
gme.so:_ZN13Subset_Reader6read_vEPvl
gme.so:_ZN13Subset_ReaderC1EP11Data_Readerm
gme.so:_ZN13Subset_ReaderC2EP11Data_Readerm
gme.so:_ZN14Dual_Resampler10mix_stereoER13Stereo_BufferPsi
gme.so:_ZN14Dual_Resampler11mix_samplesER13Stereo_BufferPsiPPS0_i
gme.so:_ZN14Dual_Resampler11play_frame_ER13Stereo_BufferPsPPS0_i
gme.so:_ZN14Dual_Resampler14mix_extra_monoER13Stereo_BufferPsi
gme.so:_ZN14Dual_Resampler16mix_extra_stereoER13Stereo_BufferPsi
gme.so:_ZN14Dual_Resampler5clearEv
gme.so:_ZN14Dual_Resampler5resetEi
gme.so:_ZN14Dual_Resampler6resizeEi
gme.so:_ZN14Dual_Resampler8mix_monoER13Stereo_BufferPsi
gme.so:_ZN14Dual_Resampler9dual_playEiPsR13Stereo_BufferPPS1_i
gme.so:_ZN14Dual_ResamplerC1Ev
gme.so:_ZN14Dual_ResamplerC2Ev
gme.so:_ZN14Dual_ResamplerD1Ev
gme.so:_ZN14Dual_ResamplerD2Ev
gme.so:_ZN14Effects_Buffer10clear_echoEv
gme.so:_ZN14Effects_Buffer10clock_rateEi
gme.so:_ZN14Effects_Buffer11delete_bufsEv
gme.so:_ZN14Effects_Buffer11mix_effectsEPsi
gme.so:_ZN14Effects_Buffer12apply_configEv
gme.so:_ZN14Effects_Buffer12read_samplesEPsi
gme.so:_ZN14Effects_Buffer14assign_buffersEv
gme.so:_ZN14Effects_Buffer15set_sample_rateEii
gme.so:_ZN14Effects_Buffer17set_channel_countEiPKi
gme.so:_ZN14Effects_Buffer5clearEv
gme.so:_ZN14Effects_Buffer7channelEi
gme.so:_ZN14Effects_Buffer8new_bufsEi
gme.so:_ZN14Effects_Buffer9bass_freqEi
gme.so:_ZN14Effects_Buffer9end_frameEi
gme.so:_ZN14Effects_BufferC1Eii
gme.so:_ZN14Effects_BufferC2Eii
gme.so:_ZN14Effects_BufferD0Ev
gme.so:_ZN14Effects_BufferD1Ev
gme.so:_ZN14Effects_BufferD2Ev
gme.so:_ZN14Fir_Resampler_6clear_Ev
gme.so:_ZN14Fir_Resampler_9set_rate_Ed
gme.so:_ZN14Fir_Resampler_C1EiPs
gme.so:_ZN14Fir_Resampler_C2EiPs
gme.so:_ZN14blargg_vector_4initEv
gme.so:_ZN14blargg_vector_5clearEv
gme.so:_ZN14blargg_vector_7resize_Emm
gme.so:_ZN15Callback_Reader6read_vEPvl
gme.so:_ZN15Callback_ReaderC1EPFPKcPvS2_lEmS2_
gme.so:_ZN15Callback_ReaderC2EPFPKcPvS2_lEmS2_
gme.so:_ZN15Gb_Sweep_Square10calc_sweepEb
gme.so:_ZN15Gb_Sweep_Square11clock_sweepEv
gme.so:_ZN15Mem_File_Reader6read_vEPvl
gme.so:_ZN15Mem_File_Reader6seek_vEm
gme.so:_ZN15Mem_File_ReaderC1EPKvl
gme.so:_ZN15Mem_File_ReaderC2EPKvl
gme.so:_ZN15Std_File_Reader15make_unbufferedEv
gme.so:_ZN15Std_File_Reader4openEPKc
gme.so:_ZN15Std_File_Reader5closeEv
gme.so:_ZN15Std_File_Reader6read_vEPvl
gme.so:_ZN15Std_File_Reader6seek_vEm
gme.so:_ZN15Std_File_ReaderC1Ev
gme.so:_ZN15Std_File_ReaderC2Ev
gme.so:_ZN15Std_File_ReaderD0Ev
gme.so:_ZN15Std_File_ReaderD1Ev
gme.so:_ZN15Std_File_ReaderD2Ev
gme.so:_ZN16Blip_Synth_Fast_11volume_unitEd
gme.so:_ZN16Blip_Synth_Fast_C1Ev
gme.so:_ZN16Blip_Synth_Fast_C2Ev
gme.so:_ZN16Remaining_Reader6read_vEPvl
gme.so:_ZN16Remaining_ReaderC1EPKviP11Data_Reader
gme.so:_ZN16Remaining_ReaderC2EPKviP11Data_Reader
gme.so:_ZN19Tracked_Blip_Buffer12read_samplesEPsi
gme.so:_ZN19Tracked_Blip_Buffer14remove_samplesEi
gme.so:_ZN19Tracked_Blip_Buffer14remove_silenceEi
gme.so:_ZN19Tracked_Blip_Buffer18remove_all_samplesEv
gme.so:_ZN19Tracked_Blip_Buffer5clearEv
gme.so:_ZN19Tracked_Blip_Buffer9end_frameEi
gme.so:_ZN19Tracked_Blip_BufferC1Ev
gme.so:_ZN19Tracked_Blip_BufferC2Ev
gme.so:_ZN20Callback_File_Reader6read_vEPvl
gme.so:_ZN20Callback_File_Reader6seek_vEm
gme.so:_ZN20Callback_File_ReaderC1EPFPKcPvS2_lmEmS2_
gme.so:_ZN20Callback_File_ReaderC2EPFPKcPvS2_lmEmS2_
gme.so:_ZN21Simple_Effects_Buffer12apply_configEv
gme.so:_ZN21Simple_Effects_BufferC1Ev
gme.so:_ZN21Simple_Effects_BufferC2Ev
gme.so:_ZN5gme_t10mute_voiceEib
gme.so:_ZN5gme_t11mute_voicesEi
gme.so:_ZN5gme_t11start_trackEi
gme.so:_ZN5gme_t13set_equalizerERK15gme_equalizer_t
gme.so:_ZN5gme_t15set_sample_rateEi
gme.so:_ZN5gme_t16clear_track_varsEv
gme.so:_ZN5gme_t4playEiPs
gme.so:_ZN5gme_t4seekEi
gme.so:_ZN5gme_t4skipEi
gme.so:_ZN5gme_t5skip_Ei
gme.so:_ZN5gme_t5tv_eqE
gme.so:_ZN5gme_t6unloadEv
gme.so:_ZN5gme_t8pre_loadEv
gme.so:_ZN5gme_t8set_fadeEii
gme.so:_ZN5gme_t9post_loadEv
gme.so:_ZN5gme_t9set_tempoEd
gme.so:_ZN5gme_tC1Ev
gme.so:_ZN5gme_tC2Ev
gme.so:_ZN5gme_tD0Ev
gme.so:_ZN5gme_tD1Ev
gme.so:_ZN5gme_tD2Ev
gme.so:_ZN6Ay_Apu10set_outputEP11Blip_Buffer
gme.so:_ZN6Ay_Apu11write_data_Eii
gme.so:_ZN6Ay_Apu4readEv
gme.so:_ZN6Ay_Apu5resetEv
gme.so:_ZN6Ay_Apu9run_untilEi
gme.so:_ZN6Ay_ApuC1Ev
gme.so:_ZN6Ay_ApuC2Ev
gme.so:_ZN6Ay_Emu10run_clocksERii
gme.so:_ZN6Ay_Emu10set_tempo_Ed
gme.so:_ZN6Ay_Emu11enable_cpc_EPv
gme.so:_ZN6Ay_Emu12start_track_Ei
gme.so:_ZN6Ay_Emu9load_mem_EPKhi
gme.so:_ZN6Ay_Emu9set_voiceEiP11Blip_BufferS1_S1_
gme.so:_ZN6Ay_Emu9update_eqERK9blip_eq_t
gme.so:_ZN6Ay_EmuC1Ev
gme.so:_ZN6Ay_EmuC2Ev
gme.so:_ZN6Ay_EmuD0Ev
gme.so:_ZN6Ay_EmuD1Ev
gme.so:_ZN6Ay_EmuD2Ev
gme.so:_ZN6Gb_Apu10reset_regsEv
gme.so:_ZN6Gb_Apu10run_until_Ei
gme.so:_ZN6Gb_Apu10set_outputEiP11Blip_BufferS1_S1_
gme.so:_ZN6Gb_Apu11silence_oscER6Gb_Osc
gme.so:_ZN6Gb_Apu12apply_stereoEv
gme.so:_ZN6Gb_Apu12apply_volumeEv
gme.so:_ZN6Gb_Apu12synth_volumeEi
gme.so:_ZN6Gb_Apu13read_registerEii
gme.so:_ZN6Gb_Apu13reduce_clicksEb
gme.so:_ZN6Gb_Apu13reset_lengthsEv
gme.so:_ZN6Gb_Apu14write_registerEiii
gme.so:_ZN6Gb_Apu5resetENS_6mode_tEb
gme.so:_ZN6Gb_Apu6volumeEd
gme.so:_ZN6Gb_Apu9end_frameEi
gme.so:_ZN6Gb_Apu9set_tempoEd
gme.so:_ZN6Gb_Apu9treble_eqERK9blip_eq_t
gme.so:_ZN6Gb_Apu9write_oscEiii
gme.so:_ZN6Gb_ApuC1Ev
gme.so:_ZN6Gb_ApuC2Ev
gme.so:_ZN6Gb_Cpu5resetEPv
gme.so:_ZN6Gb_Cpu8map_codeEiiPv
gme.so:_ZN6Gb_Env14clock_envelopeEv
gme.so:_ZN6Gb_Env14write_registerEiiii
gme.so:_ZN6Gb_Osc10write_trigEiii
gme.so:_ZN6Gb_Osc12clock_lengthEv
gme.so:_ZN6Gb_Osc5resetEv
gme.so:_ZN7Ay_Core11start_trackERKN7Z80_Cpu11registers_tEi
gme.so:_ZN7Ay_Core17set_beeper_outputEP11Blip_Buffer
gme.so:_ZN7Ay_Core6cpu_inEi
gme.so:_ZN7Ay_Core7cpu_outEiii
gme.so:_ZN7Ay_Core7run_cpuEi
gme.so:_ZN7Ay_Core8cpu_out_Eiii
gme.so:_ZN7Ay_Core9end_frameEPi
gme.so:_ZN7Ay_CoreC1Ev
gme.so:_ZN7Ay_CoreC2Ev
gme.so:_ZN7Ay_CoreD1Ev
gme.so:_ZN7Ay_CoreD2Ev
gme.so:_ZN7Gb_Wave12corrupt_waveEv
gme.so:_ZN7Gb_Wave3runEii
gme.so:_ZN7Gbs_Emu10run_clocksERii
gme.so:_ZN7Gbs_Emu10set_tempo_Ed
gme.so:_ZN7Gbs_Emu11handheld_eqE
gme.so:_ZN7Gbs_Emu12start_track_Ei
gme.so:_ZN7Gbs_Emu13headphones_eqE
gme.so:_ZN7Gbs_Emu5load_ER11Data_Reader
gme.so:_ZN7Gbs_Emu6cgb_eqE
gme.so:_ZN7Gbs_Emu6unloadEv
gme.so:_ZN7Gbs_Emu9set_voiceEiP11Blip_BufferS1_S1_
gme.so:_ZN7Gbs_Emu9update_eqERK9blip_eq_t
gme.so:_ZN7Gbs_EmuC1Ev
gme.so:_ZN7Gbs_EmuC2Ev
gme.so:_ZN7Gbs_EmuD0Ev
gme.so:_ZN7Gbs_EmuD1Ev
gme.so:_ZN7Gbs_EmuD2Ev
gme.so:_ZN7Gym_Emu10set_tempo_Ed
gme.so:_ZN7Gym_Emu11parse_frameEv
gme.so:_ZN7Gym_Emu11play_frame_EPviiPs
gme.so:_ZN7Gym_Emu12mute_voices_Ei
gme.so:_ZN7Gym_Emu12start_track_Ei
gme.so:_ZN7Gym_Emu16set_sample_rate_Ei
gme.so:_ZN7Gym_Emu5play_EiPs
gme.so:_ZN7Gym_Emu7run_pcmEPKhi
gme.so:_ZN7Gym_Emu9load_mem_EPKhi
gme.so:_ZN7Gym_EmuC1Ev
gme.so:_ZN7Gym_EmuC2Ev
gme.so:_ZN7Gym_EmuD0Ev
gme.so:_ZN7Gym_EmuD1Ev
gme.so:_ZN7Gym_EmuD2Ev
gme.so:_ZN7Hes_Apu10set_outputEiP11Blip_BufferS1_S1_
gme.so:_ZN7Hes_Apu10write_dataEiii
gme.so:_ZN7Hes_Apu15balance_changedERNS_3OscE
gme.so:_ZN7Hes_Apu5resetEv
gme.so:_ZN7Hes_Apu7run_oscER10Blip_SynthILi8ELi1EERNS_3OscEi
gme.so:_ZN7Hes_Apu9end_frameEi
gme.so:_ZN7Hes_ApuC1Ev
gme.so:_ZN7Hes_ApuC2Ev
gme.so:_ZN7Hes_Cpu5resetEv
gme.so:_ZN7Hes_Emu10run_clocksERii
gme.so:_ZN7Hes_Emu10set_tempo_Ed
gme.so:_ZN7Hes_Emu12start_track_Ei
gme.so:_ZN7Hes_Emu5load_ER11Data_Reader
gme.so:_ZN7Hes_Emu6unloadEv
gme.so:_ZN7Hes_Emu9set_voiceEiP11Blip_BufferS1_S1_
gme.so:_ZN7Hes_Emu9update_eqERK9blip_eq_t
gme.so:_ZN7Hes_EmuC1Ev
gme.so:_ZN7Hes_EmuC2Ev
gme.so:_ZN7Hes_EmuD0Ev
gme.so:_ZN7Hes_EmuD1Ev
gme.so:_ZN7Hes_EmuD2Ev
gme.so:_ZN7Kss_Emu10run_clocksERii
gme.so:_ZN7Kss_Emu10set_tempo_Ed
gme.so:_ZN7Kss_Emu12start_track_Ei
gme.so:_ZN7Kss_Emu4Core10cpu_write_Eii
gme.so:_ZN7Kss_Emu4Core11update_gainEv
gme.so:_ZN7Kss_Emu4Core12update_gain_Ev
gme.so:_ZN7Kss_Emu4Core6cpu_inEii
gme.so:_ZN7Kss_Emu4Core7cpu_outEiii
gme.so:_ZN7Kss_Emu4Core9cpu_writeEii
gme.so:_ZN7Kss_Emu5load_ER11Data_Reader
gme.so:_ZN7Kss_Emu6unloadEv
gme.so:_ZN7Kss_Emu9set_voiceEiP11Blip_BufferS1_S1_
gme.so:_ZN7Kss_Emu9update_eqERK9blip_eq_t
gme.so:_ZN7Kss_EmuC1Ev
gme.so:_ZN7Kss_EmuC2Ev
gme.so:_ZN7Kss_EmuD0Ev
gme.so:_ZN7Kss_EmuD1Ev
gme.so:_ZN7Kss_EmuD2Ev
gme.so:_ZN7Nes_Apu10run_until_Ei
gme.so:_ZN7Nes_Apu10set_outputEP11Blip_Buffer
gme.so:_ZN7Nes_Apu11irq_changedEv
gme.so:_ZN7Nes_Apu11read_statusEi
gme.so:_ZN7Nes_Apu14write_registerEiii
gme.so:_ZN7Nes_Apu17enable_nonlinear_Edd
gme.so:_ZN7Nes_Apu5resetEbi
gme.so:_ZN7Nes_Apu6volumeEd
gme.so:_ZN7Nes_Apu9end_frameEi
gme.so:_ZN7Nes_Apu9run_untilEi
gme.so:_ZN7Nes_Apu9set_tempoEd
gme.so:_ZN7Nes_Apu9treble_eqERK9blip_eq_t
gme.so:_ZN7Nes_ApuC1Ev
gme.so:_ZN7Nes_ApuC2Ev
gme.so:_ZN7Nes_Cpu5resetEPKv
gme.so:_ZN7Nes_Cpu8map_codeEiiPKvi
gme.so:_ZN7Nes_Dmc10recalc_irqEv
gme.so:_ZN7Nes_Dmc11fill_bufferEv
gme.so:_ZN7Nes_Dmc14write_registerEii
gme.so:_ZN7Nes_Dmc3runEii
gme.so:_ZN7Nes_Dmc5resetEv
gme.so:_ZN7Nes_Dmc5startEv
gme.so:_ZN7Nes_Osc12clock_lengthEi
gme.so:_ZN7Nsf_Emu10famicom_eqE
gme.so:_ZN7Nsf_Emu10init_soundEv
gme.so:_ZN7Nsf_Emu10run_clocksERii
gme.so:_ZN7Nsf_Emu10set_tempo_Ed
gme.so:_ZN7Nsf_Emu12start_track_Ei
gme.so:_ZN7Nsf_Emu13append_voicesEPKPKcPKii
gme.so:_ZN7Nsf_Emu5load_ER11Data_Reader
gme.so:_ZN7Nsf_Emu6nes_eqE
gme.so:_ZN7Nsf_Emu6unloadEv
gme.so:_ZN7Nsf_Emu9set_voiceEiP11Blip_BufferS1_S1_
gme.so:_ZN7Nsf_Emu9update_eqERK9blip_eq_t
gme.so:_ZN7Nsf_EmuC1Ev
gme.so:_ZN7Nsf_EmuC2Ev
gme.so:_ZN7Nsf_EmuD0Ev
gme.so:_ZN7Nsf_EmuD1Ev
gme.so:_ZN7Nsf_EmuD2Ev
gme.so:_ZN7Opl_Apu10write_dataEii
gme.so:_ZN7Opl_Apu4initElliNS_6type_tE
gme.so:_ZN7Opl_Apu4readEii
gme.so:_ZN7Opl_Apu5resetEv
gme.so:_ZN7Opl_Apu9end_frameEi
gme.so:_ZN7Opl_Apu9run_untilEi
gme.so:_ZN7Opl_ApuC1Ev
gme.so:_ZN7Opl_ApuC2Ev
gme.so:_ZN7Opl_ApuD1Ev
gme.so:_ZN7Opl_ApuD2Ev
gme.so:_ZN7Sap_Apu10set_outputEP11Blip_Buffer
gme.so:_ZN7Sap_Apu10write_dataEiii
gme.so:_ZN7Sap_Apu12calc_periodsEv
gme.so:_ZN7Sap_Apu5resetEP12Sap_Apu_Impl
gme.so:_ZN7Sap_Apu9end_frameEi
gme.so:_ZN7Sap_Apu9run_untilEi
gme.so:_ZN7Sap_ApuC1Ev
gme.so:_ZN7Sap_ApuC2Ev
gme.so:_ZN7Sap_Emu10run_clocksERii
gme.so:_ZN7Sap_Emu10set_tempo_Ed
gme.so:_ZN7Sap_Emu12start_track_Ei
gme.so:_ZN7Sap_Emu9load_mem_EPKhi
gme.so:_ZN7Sap_Emu9set_voiceEiP11Blip_BufferS1_S1_
gme.so:_ZN7Sap_Emu9update_eqERK9blip_eq_t
gme.so:_ZN7Sap_EmuC1Ev
gme.so:_ZN7Sap_EmuC2Ev
gme.so:_ZN7Sap_EmuD0Ev
gme.so:_ZN7Sap_EmuD1Ev
gme.so:_ZN7Sap_EmuD2Ev
gme.so:_ZN7Scc_Apu10set_outputEP11Blip_Buffer
gme.so:_ZN7Scc_Apu5resetEv
gme.so:_ZN7Scc_Apu6volumeEd
gme.so:_ZN7Scc_Apu9run_untilEi
gme.so:_ZN7Scc_ApuC1Ev
gme.so:_ZN7Scc_ApuC2Ev
gme.so:_ZN7Sfm_Emu10set_tempo_Ed
gme.so:_ZN7Sfm_Emu12mute_voices_Ei
gme.so:_ZN7Sfm_Emu12start_track_Ei
gme.so:_ZN7Sfm_Emu15play_and_filterEiPs
gme.so:_ZN7Sfm_Emu15set_track_info_EPK12track_info_ti
gme.so:_ZN7Sfm_Emu16set_sample_rate_Ei
gme.so:_ZN7Sfm_Emu5play_EiPs
gme.so:_ZN7Sfm_Emu5skip_Ei
gme.so:_ZN7Sfm_Emu9load_mem_EPKhi
gme.so:_ZN7Sfm_EmuC1Ev
gme.so:_ZN7Sfm_EmuC2Ev
gme.so:_ZN7Sfm_EmuD0Ev
gme.so:_ZN7Sfm_EmuD1Ev
gme.so:_ZN7Sfm_EmuD2Ev
gme.so:_ZN7Sgc_Emu10run_clocksERii
gme.so:_ZN7Sgc_Emu10set_tempo_Ed
gme.so:_ZN7Sgc_Emu12start_track_Ei
gme.so:_ZN7Sgc_Emu5load_ER11Data_Reader
gme.so:_ZN7Sgc_Emu6unloadEv
gme.so:_ZN7Sgc_Emu9set_voiceEiP11Blip_BufferS1_S1_
gme.so:_ZN7Sgc_Emu9update_eqERK9blip_eq_t
gme.so:_ZN7Sgc_EmuC1Ev
gme.so:_ZN7Sgc_EmuC2Ev
gme.so:_ZN7Sgc_EmuD0Ev
gme.so:_ZN7Sgc_EmuD1Ev
gme.so:_ZN7Sgc_EmuD2Ev
gme.so:_ZN7Sms_Apu10load_stateERK15sms_apu_state_t
gme.so:_ZN7Sms_Apu10save_stateEP15sms_apu_state_t
gme.so:_ZN7Sms_Apu10set_outputEP11Blip_BufferS1_S1_
gme.so:_ZN7Sms_Apu10set_outputEiP11Blip_BufferS1_S1_
gme.so:_ZN7Sms_Apu10write_dataEii
gme.so:_ZN7Sms_Apu14write_ggstereoEii
gme.so:_ZN7Sms_Apu5resetEji
gme.so:_ZN7Sms_Apu6volumeEd
gme.so:_ZN7Sms_Apu9end_frameEi
gme.so:_ZN7Sms_Apu9run_untilEi
gme.so:_ZN7Sms_Apu9treble_eqERK9blip_eq_t
gme.so:_ZN7Sms_ApuC1Ev
gme.so:_ZN7Sms_ApuC2Ev
gme.so:_ZN7Spc_Emu10set_tempo_Ed
gme.so:_ZN7Spc_Emu12mute_voices_Ei
gme.so:_ZN7Spc_Emu12start_track_Ei
gme.so:_ZN7Spc_Emu15play_and_filterEiPs
gme.so:_ZN7Spc_Emu16set_sample_rate_Ei
gme.so:_ZN7Spc_Emu5play_EiPs
gme.so:_ZN7Spc_Emu5skip_Ei
gme.so:_ZN7Spc_Emu9load_mem_EPKhi
gme.so:_ZN7Spc_EmuC1Ev
gme.so:_ZN7Spc_EmuC2Ev
gme.so:_ZN7Spc_EmuD0Ev
gme.so:_ZN7Spc_EmuD1Ev
gme.so:_ZN7Spc_EmuD2Ev
gme.so:_ZN7Vgm_Emu10set_tempo_Ed
gme.so:_ZN7Vgm_Emu12mute_voices_Ei
gme.so:_ZN7Vgm_Emu12start_track_Ei
gme.so:_ZN7Vgm_Emu15set_track_info_EPK12track_info_ti
gme.so:_ZN7Vgm_Emu16set_sample_rate_Ei
gme.so:_ZN7Vgm_Emu5play_EiPs
gme.so:_ZN7Vgm_Emu5save_EPFPKcPvPKvlES2_
gme.so:_ZN7Vgm_Emu5skip_Ei
gme.so:_ZN7Vgm_Emu6unloadEv
gme.so:_ZN7Vgm_Emu8gd3_dataEPPKhPi
gme.so:_ZN7Vgm_Emu9load_mem_EPKhi
gme.so:_ZN7Vgm_EmuC1Ev
gme.so:_ZN7Vgm_EmuC2Ev
gme.so:_ZN7Vgm_EmuD0Ev
gme.so:_ZN7Vgm_EmuD1Ev
gme.so:_ZN7Vgm_EmuD2Ev
gme.so:_ZN7Z80_Cpu5resetEPvPKv
gme.so:_ZN7Z80_Cpu7map_memEiiPvPKv
gme.so:_ZN7Z80_CpuC1Ev
gme.so:_ZN7Z80_CpuC2Ev
gme.so:_ZN8Gb_Noise3runEii
gme.so:_ZN8Gbs_Core11start_trackEiN6Gb_Apu6mode_tE
gme.so:_ZN8Gbs_Core12update_timerEv
gme.so:_ZN8Gbs_Core13jsr_then_stopEPKh
gme.so:_ZN8Gbs_Core5load_ER11Data_Reader
gme.so:_ZN8Gbs_Core6unloadEv
gme.so:_ZN8Gbs_Core7read_ioEi
gme.so:_ZN8Gbs_Core7run_cpuEv
gme.so:_ZN8Gbs_Core8read_memEi
gme.so:_ZN8Gbs_Core8set_bankEi
gme.so:_ZN8Gbs_Core9end_frameEi
gme.so:_ZN8Gbs_Core9run_untilEi
gme.so:_ZN8Gbs_Core9set_tempoEd
gme.so:_ZN8Gbs_Core9write_io_Eii
gme.so:_ZN8Gbs_Core9write_memEii
gme.so:_ZN8Gbs_CoreC1Ev
gme.so:_ZN8Gbs_CoreC2Ev
gme.so:_ZN8Gbs_CoreD0Ev
gme.so:_ZN8Gbs_CoreD1Ev
gme.so:_ZN8Gbs_CoreD2Ev
gme.so:_ZN8Gme_File11copy_field_EPcPKc
gme.so:_ZN8Gme_File11copy_field_EPcPKci
gme.so:_ZN8Gme_File14clear_playlistEv
gme.so:_ZN8Gme_File6unloadEv
gme.so:_ZN8Gme_File8load_m3uEPKc
gme.so:_ZN8Gme_File8load_m3uER11Data_Reader
gme.so:_ZN8Gme_File9load_m3u_EPKc
gme.so:_ZN8Gme_File9post_loadEv
gme.so:_ZN8Gme_FileC1Ev
gme.so:_ZN8Gme_FileC2Ev
gme.so:_ZN8Gme_FileD0Ev
gme.so:_ZN8Gme_FileD1Ev
gme.so:_ZN8Gme_FileD2Ev
gme.so:_ZN8Hes_Core10write_mem_Eii
gme.so:_ZN8Hes_Core11irq_changedEv
gme.so:_ZN8Hes_Core11start_trackEi
gme.so:_ZN8Hes_Core17recalc_timer_loadEv
gme.so:_ZN8Hes_Core5load_ER11Data_Reader
gme.so:_ZN8Hes_Core6unloadEv
gme.so:_ZN8Hes_Core7run_cpuEi
gme.so:_ZN8Hes_Core7set_mmrEii
gme.so:_ZN8Hes_Core8cpu_doneEv
gme.so:_ZN8Hes_Core8read_memEi
gme.so:_ZN8Hes_Core9end_frameEi
gme.so:_ZN8Hes_Core9read_mem_Ei
gme.so:_ZN8Hes_Core9run_untilEi
gme.so:_ZN8Hes_Core9set_tempoEd
gme.so:_ZN8Hes_Core9write_memEii
gme.so:_ZN8Hes_Core9write_vdpEii
gme.so:_ZN8Hes_CoreC1Ev
gme.so:_ZN8Hes_CoreC2Ev
gme.so:_ZN8Hes_CoreD0Ev
gme.so:_ZN8Hes_CoreD1Ev
gme.so:_ZN8Hes_CoreD2Ev
gme.so:_ZN8Kss_Core11start_trackEi
gme.so:_ZN8Kss_Core3jsrERA2_Kh
gme.so:_ZN8Kss_Core5load_ER11Data_Reader
gme.so:_ZN8Kss_Core6cpu_inEii
gme.so:_ZN8Kss_Core6unloadEv
gme.so:_ZN8Kss_Core7cpu_outEiii
gme.so:_ZN8Kss_Core7run_cpuEi
gme.so:_ZN8Kss_Core8set_bankEii
gme.so:_ZN8Kss_Core9end_frameEi
gme.so:_ZN8Kss_CoreC2Ev
gme.so:_ZN8Kss_CoreD0Ev
gme.so:_ZN8Kss_CoreD1Ev
gme.so:_ZN8Kss_CoreD2Ev
gme.so:_ZN8Nsf_Core11start_trackEi
gme.so:_ZN8Nsf_Core13unmapped_readEi
gme.so:_ZN8Nsf_Core14unmapped_writeEii
gme.so:_ZN8Nsf_Core6unloadEv
gme.so:_ZN8Nsf_Core8cpu_readEi
gme.so:_ZN8Nsf_Core9cpu_writeEii
gme.so:_ZN8Nsf_Core9end_frameEi
gme.so:_ZN8Nsf_Core9post_loadEv
gme.so:_ZN8Nsf_Core9set_tempoEd
gme.so:_ZN8Nsf_CoreC1Ev
gme.so:_ZN8Nsf_CoreC2Ev
gme.so:_ZN8Nsf_CoreD0Ev
gme.so:_ZN8Nsf_CoreD1Ev
gme.so:_ZN8Nsf_CoreD2Ev
gme.so:_ZN8Nsf_Impl10map_memoryEv
gme.so:_ZN8Nsf_Impl10write_bankEii
gme.so:_ZN8Nsf_Impl11start_trackEi
gme.so:_ZN8Nsf_Impl13jsr_then_stopEPKh
gme.so:_ZN8Nsf_Impl13run_cpu_untilEi
gme.so:_ZN8Nsf_Impl13special_eventEPKc
gme.so:_ZN8Nsf_Impl13unmapped_readEi
gme.so:_ZN8Nsf_Impl14unmapped_writeEii
gme.so:_ZN8Nsf_Impl5load_ER11Data_Reader
gme.so:_ZN8Nsf_Impl6unloadEv
gme.so:_ZN8Nsf_Impl8get_addrEPKh
gme.so:_ZN8Nsf_Impl8pcm_readEPvi
gme.so:_ZN8Nsf_Impl8read_memEi
gme.so:_ZN8Nsf_Impl8run_onceEi
gme.so:_ZN8Nsf_Impl9end_frameEi
gme.so:_ZN8Nsf_Impl9run_untilEi
gme.so:_ZN8Nsf_Impl9write_memEii
gme.so:_ZN8Nsf_ImplC1Ev
gme.so:_ZN8Nsf_ImplC2Ev
gme.so:_ZN8Nsf_ImplD0Ev
gme.so:_ZN8Nsf_ImplD1Ev
gme.so:_ZN8Nsf_ImplD2Ev
gme.so:_ZN8Nsfe_Emu12start_track_Ei
gme.so:_ZN8Nsfe_Emu15clear_playlist_Ev
gme.so:_ZN8Nsfe_Emu17disable_playlist_Eb
gme.so:_ZN8Nsfe_Emu5load_ER11Data_Reader
gme.so:_ZN8Nsfe_Emu6unloadEv
gme.so:_ZN8Nsfe_EmuC1Ev
gme.so:_ZN8Nsfe_EmuC2Ev
gme.so:_ZN8Nsfe_EmuD0Ev
gme.so:_ZN8Nsfe_EmuD1Ev
gme.so:_ZN8Nsfe_EmuD2Ev
gme.so:_ZN8Rom_Data4loadER11Data_ReaderiPvi
gme.so:_ZN8Rom_Data5clearEv
gme.so:_ZN8Rom_Data5load_ER11Data_Readerii
gme.so:_ZN8Rom_Data7at_addrEi
gme.so:_ZN8Rom_Data8set_addrEi
gme.so:_ZN8Rom_DataC1Ei
gme.so:_ZN8Rom_DataC2Ei
gme.so:_ZN8Rom_DataD1Ev
gme.so:_ZN8Rom_DataD2Ev
gme.so:_ZN8Sap_Core10write_D2xxEii
gme.so:_ZN8Sap_Core11run_routineEi
gme.so:_ZN8Sap_Core11start_trackEiRKNS_6info_tE
gme.so:_ZN8Sap_Core13jsr_then_stopEi
gme.so:_ZN8Sap_Core4pushEi
gme.so:_ZN8Sap_Core7run_cpuEi
gme.so:_ZN8Sap_Core9end_frameEi
gme.so:_ZN8Sap_Core9read_d40bEv
gme.so:_ZN8Sap_Core9run_untilEi
gme.so:_ZN8Sap_Core9setup_ramEv
gme.so:_ZN8Sap_CoreC1Ev
gme.so:_ZN8Sap_CoreC2Ev
gme.so:_ZN8Sgc_Core11start_trackEi
gme.so:_ZN8Sgc_Core5load_ER11Data_Reader
gme.so:_ZN8Sgc_Core7cpu_outEiii
gme.so:_ZN8Sgc_Core9end_frameEi
gme.so:_ZN8Sgc_Core9set_tempoEd
gme.so:_ZN8Sgc_CoreC1Ev
gme.so:_ZN8Sgc_CoreC2Ev
gme.so:_ZN8Sgc_CoreD0Ev
gme.so:_ZN8Sgc_CoreD1Ev
gme.so:_ZN8Sgc_CoreD2Ev
gme.so:_ZN8Sgc_Impl11coleco_biosE
gme.so:_ZN8Sgc_Impl11start_trackEi
gme.so:_ZN8Sgc_Impl3jsrERA2_Kh
gme.so:_ZN8Sgc_Impl5load_ER11Data_Reader
gme.so:_ZN8Sgc_Impl6cpu_inEi
gme.so:_ZN8Sgc_Impl6unloadEv
gme.so:_ZN8Sgc_Impl7cpu_outEiii
gme.so:_ZN8Sgc_Impl7run_cpuEi
gme.so:_ZN8Sgc_Impl8set_bankEiPKv
gme.so:_ZN8Sgc_Impl9cpu_writeEii
gme.so:_ZN8Sgc_Impl9end_frameEi
gme.so:_ZN8Sgc_ImplC1Ev
gme.so:_ZN8Sgc_ImplC2Ev
gme.so:_ZN8Sgc_ImplD0Ev
gme.so:_ZN8Sgc_ImplD1Ev
gme.so:_ZN8Sgc_ImplD2Ev
gme.so:_ZN8Vgm_Core11start_trackEv
gme.so:_ZN8Vgm_Core14get_voice_nameEi
gme.so:_ZN8Vgm_Core15free_voice_nameEPc
gme.so:_ZN8Vgm_Core17get_channel_countEv
gme.so:_ZN8Vgm_Core5play_EiPs
gme.so:_ZN8Vgm_Core5skip_Ei
gme.so:_ZN8Vgm_Core8set_muteEi
gme.so:_ZN8Vgm_Core9load_mem_EPKhi
gme.so:_ZN8Vgm_Core9set_tempoEd
gme.so:_ZN8Vgm_CoreC1Ev
gme.so:_ZN8Vgm_CoreC2Ev
gme.so:_ZN8Vgm_CoreD0Ev
gme.so:_ZN8Vgm_CoreD1Ev
gme.so:_ZN8Vgm_CoreD2Ev
gme.so:_ZN9Gb_Square14write_registerEiiii
gme.so:_ZN9Gb_Square3runEii
gme.so:_ZN9Gme_Info_10set_tempo_Ed
gme.so:_ZN9Gme_Info_12mute_voices_Ei
gme.so:_ZN9Gme_Info_12start_track_Ei
gme.so:_ZN9Gme_Info_14set_equalizer_ERK15gme_equalizer_t
gme.so:_ZN9Gme_Info_16set_sample_rate_Ei
gme.so:_ZN9Gme_Info_5play_EiPs
gme.so:_ZN9Gme_Info_8pre_loadEv
gme.so:_ZN9Gme_Info_9post_loadEv
gme.so:_ZN9Nes_Noise3runEii
gme.so:_ZN9Nsfe_Info16disable_playlistEb
gme.so:_ZN9Nsfe_Info4loadER11Data_ReaderP8Nsfe_Emu
gme.so:_ZN9Nsfe_InfoC1Ev
gme.so:_ZN9Nsfe_InfoC2Ev
gme.so:_ZN9Nsfe_InfoD1Ev
gme.so:_ZN9Nsfe_InfoD2Ev
gme.so:_ZN9Processor6SPC70010op_bne_dpxEv
gme.so:_ZN9Processor6SPC70010op_set_bitEv
gme.so:_ZN9Processor6SPC70011op_bne_ydecEv
gme.so:_ZN9Processor6SPC70011op_div_ya_xEv
gme.so:_ZN9Processor6SPC70011op_jmp_addrEv
gme.so:_ZN9Processor6SPC70011op_jsr_addrEv
gme.so:_ZN9Processor6SPC70011op_set_flagERbb
gme.so:_ZN9Processor6SPC70011op_sta_idpxEv
gme.so:_ZN9Processor6SPC70011op_sta_idpyEv
gme.so:_ZN9Processor6SPC70011op_transferERhS1_
gme.so:_ZN9Processor6SPC70011op_write_dpERh
gme.so:_ZN9Processor6SPC70012op_bne_dpdecEv
gme.so:_ZN9Processor6SPC70012op_lda_ixincEv
gme.so:_ZN9Processor6SPC70012op_sta_ixincEv
gme.so:_ZN9Processor6SPC70012op_test_addrEb
gme.so:_ZN9Processor6SPC70012op_write_dpiERhS1_
gme.so:_ZN9Processor6SPC70013op_adjust_dpwEi
gme.so:_ZN9Processor6SPC70013op_branch_bitEv
gme.so:_ZN9Processor6SPC70013op_jmp_iaddrxEv
gme.so:_ZN9Processor6SPC70013op_write_addrERh
gme.so:_ZN9Processor6SPC70014op_write_addriERh
gme.so:_ZN9Processor6SPC70015op_set_addr_bitEv
gme.so:_ZN9Processor6SPC7005op_ldEhh
gme.so:_ZN9Processor6SPC7005op_orEhh
gme.so:_ZN9Processor6SPC7005op_stEhh
gme.so:_ZN9Processor6SPC7006op_adcEhh
gme.so:_ZN9Processor6SPC7006op_adwEtt
gme.so:_ZN9Processor6SPC7006op_andEhh
gme.so:_ZN9Processor6SPC7006op_aslEh
gme.so:_ZN9Processor6SPC7006op_brkEv
gme.so:_ZN9Processor6SPC7006op_clvEv
gme.so:_ZN9Processor6SPC7006op_cmcEv
gme.so:_ZN9Processor6SPC7006op_cmpEhh
gme.so:_ZN9Processor6SPC7006op_cpwEtt
gme.so:_ZN9Processor6SPC7006op_daaEv
gme.so:_ZN9Processor6SPC7006op_dasEv
gme.so:_ZN9Processor6SPC7006op_decEh
gme.so:_ZN9Processor6SPC7006op_eorEhh
gme.so:_ZN9Processor6SPC7006op_incEh
gme.so:_ZN9Processor6SPC7006op_jstEv
gme.so:_ZN9Processor6SPC7006op_ldwEtt
gme.so:_ZN9Processor6SPC7006op_lsrEh
gme.so:_ZN9Processor6SPC7006op_nopEv
gme.so:_ZN9Processor6SPC7006op_plpEv
gme.so:_ZN9Processor6SPC7006op_rolEh
gme.so:_ZN9Processor6SPC7006op_rorEh
gme.so:_ZN9Processor6SPC7006op_rtiEv
gme.so:_ZN9Processor6SPC7006op_rtsEv
gme.so:_ZN9Processor6SPC7006op_sbcEhh
gme.so:_ZN9Processor6SPC7006op_sbwEtt
gme.so:_ZN9Processor6SPC7006op_xcnEv
gme.so:_ZN9Processor6SPC7007op_pullERh
gme.so:_ZN9Processor6SPC7007op_pushEh
gme.so:_ZN9Processor6SPC7007op_stepEv
gme.so:_ZN9Processor6SPC7007op_waitEv
gme.so:_ZN9Processor6SPC7009op_bne_dpEv
gme.so:_ZN9Processor6SPC7009op_branchEb
gme.so:_ZN9Processor6SPC7009op_jsp_dpEv
gme.so:_ZN9Processor6SPC7009op_mul_yaEv
gme.so:_ZN9Processor6SPC7009op_sta_ixEv
gme.so:_ZN9Processor6SPC7009op_stw_dpEv
gme.so:_ZN9Resampler10skip_inputEi
gme.so:_ZN9Resampler13resize_bufferEi
gme.so:_ZN9Resampler4readEPsi
gme.so:_ZN9Resampler5clearEv
gme.so:_ZN9Resampler8resampleEPsiPKsPi
gme.so:_ZN9ResamplerC1Ev
gme.so:_ZN9ResamplerC2Ev
gme.so:_ZN9ResamplerD0Ev
gme.so:_ZN9ResamplerD1Ev
gme.so:_ZN9ResamplerD2Ev
gme.so:_ZN9Upsampler6clear_Ev
gme.so:_ZN9Upsampler9resample_EPPsPKsS3_i
gme.so:_ZN9Upsampler9set_rate_Ed
gme.so:_ZN9UpsamplerC1Ev
gme.so:_ZN9UpsamplerC2Ev
gme.so:_ZNK10Bml_Parser10walkToNodeEPKc
gme.so:_ZNK10Bml_Parser9enumValueEPKc
gme.so:_ZNK10Bml_Parser9serializeEPci
gme.so:_ZNK11Blip_Buffer12count_clocksEi
gme.so:_ZNK11Blip_Buffer13count_samplesEi
gme.so:_ZNK11Blip_Buffer17clock_rate_factorEi
gme.so:_ZNK12Nes_Envelope6volumeEv
gme.so:_ZNK12Nes_Vrc6_Apu10save_stateEP16vrc6_apu_state_t
gme.so:_ZNK12Nes_Vrc7_Apu13save_snapshotEP15vrc7_snapshot_t
gme.so:_ZNK12SuperFamicom3SMP9port_readEh
gme.so:_ZNK12Track_Filter9is_fadingEv
gme.so:_ZNK12nsf_header_t10clock_rateEv
gme.so:_ZNK12nsf_header_t11play_periodEv
gme.so:_ZNK12nsf_header_t9valid_tagEv
gme.so:_ZNK14Effects_Buffer9max_delayEv
gme.so:_ZNK14Effects_Buffer9min_delayEv
gme.so:_ZNK19Tracked_Blip_Buffer10non_silentEv
gme.so:_ZNK5gme_t10voice_nameEi
gme.so:_ZNK5gme_t15msec_to_samplesEi
gme.so:_ZNK5gme_t4tellEv
gme.so:_ZNK6Ay_Emu11track_info_EP12track_info_ti
gme.so:_ZNK6Ay_Emu5hash_ERN5gme_t13Hash_FunctionE
gme.so:_ZNK7Gb_Wave6accessEi
gme.so:_ZNK7Gbs_Emu11track_info_EP12track_info_ti
gme.so:_ZNK7Gbs_Emu5hash_ERN5gme_t13Hash_FunctionE
gme.so:_ZNK7Gym_Emu11track_info_EP12track_info_ti
gme.so:_ZNK7Gym_Emu5hash_ERN5gme_t13Hash_FunctionE
gme.so:_ZNK7Hes_Emu11track_info_EP12track_info_ti
gme.so:_ZNK7Hes_Emu5hash_ERN5gme_t13Hash_FunctionE
gme.so:_ZNK7Kss_Emu11track_info_EP12track_info_ti
gme.so:_ZNK7Kss_Emu5hash_ERN5gme_t13Hash_FunctionE
gme.so:_ZNK7Nes_Dmc11count_readsEiPi
gme.so:_ZNK7Nsf_Emu11track_info_EP12track_info_ti
gme.so:_ZNK7Nsf_Emu5hash_ERN5gme_t13Hash_FunctionE
gme.so:_ZNK7Sap_Emu11track_info_EP12track_info_ti
gme.so:_ZNK7Sap_Emu5hash_ERN5gme_t13Hash_FunctionE
gme.so:_ZNK7Sfm_Emu11track_info_EP12track_info_ti
gme.so:_ZNK7Sfm_Emu23create_updated_metadataER10Bml_Parser
gme.so:_ZNK7Sfm_Emu5hash_ERN5gme_t13Hash_FunctionE
gme.so:_ZNK7Sfm_Emu5save_EPFPKcPvPKvlES2_
gme.so:_ZNK7Sgc_Emu11track_info_EP12track_info_ti
gme.so:_ZNK7Sgc_Emu5hash_ERN5gme_t13Hash_FunctionE
gme.so:_ZNK7Spc_Emu11track_info_EP12track_info_ti
gme.so:_ZNK7Spc_Emu5hash_ERN5gme_t13Hash_FunctionE
gme.so:_ZNK7Vgm_Emu11track_info_EP12track_info_ti
gme.so:_ZNK7Vgm_Emu5hash_ERN5gme_t13Hash_FunctionE
gme.so:_ZNK8Gbs_Core8header_t9valid_tagEv
gme.so:_ZNK8Gme_File10track_infoEP12track_info_ti
gme.so:_ZNK8Gme_File12remap_track_EPi
gme.so:_ZNK8Hes_Core8header_t9valid_tagEv
gme.so:_ZNK8Nsf_Impl9read_codeEi
gme.so:_ZNK8Nsfe_Emu11track_info_EP12track_info_ti
gme.so:_ZNK8Sgc_Impl8header_t9valid_tagEv
gme.so:_ZNK9Nsfe_Info11remap_trackEi
gme.so:_ZNK9Nsfe_Info11track_info_EP12track_info_ti
gme.so:_ZNK9blip_eq_t8generateEPfi
gme.so:_ZTV10Gme_Loader
gme.so:_ZTV11Data_Reader
gme.so:_ZTV11Downsampler
gme.so:_ZTV11File_Reader
gme.so:_ZTV11Mono_Buffer
gme.so:_ZTV13Stereo_Buffer
gme.so:_ZTV13Subset_Reader
gme.so:_ZTV14Effects_Buffer
gme.so:_ZTV14Fir_Resampler_
gme.so:_ZTV15Callback_Reader
gme.so:_ZTV15Mem_File_Reader
gme.so:_ZTV15Std_File_Reader
gme.so:_ZTV16Remaining_Reader
gme.so:_ZTV20Callback_File_Reader
gme.so:_ZTV21Simple_Effects_Buffer
gme.so:_ZTV6Ay_Emu
gme.so:_ZTV7Gbs_Emu
gme.so:_ZTV7Gym_Emu
gme.so:_ZTV7Hes_Emu
gme.so:_ZTV7Kss_Emu
gme.so:_ZTV7Nsf_Emu
gme.so:_ZTV7Sap_Emu
gme.so:_ZTV7Sfm_Emu
gme.so:_ZTV7Sgc_Emu
gme.so:_ZTV7Spc_Emu
gme.so:_ZTV7Vgm_Emu
gme.so:_ZTV8Gbs_Core
gme.so:_ZTV8Gme_File
gme.so:_ZTV8Hes_Core
gme.so:_ZTV8Kss_Core
gme.so:_ZTV8Nsf_Core
gme.so:_ZTV8Nsf_Impl
gme.so:_ZTV8Nsfe_Emu
gme.so:_ZTV8Sgc_Core
gme.so:_ZTV8Sgc_Impl
gme.so:_ZTV8Vgm_Core
gme.so:_ZTV9Gme_Info_
gme.so:_ZTV9Resampler
gme.so:_ZTV9Upsampler
gme.so:_ZTV9blip_eq_t
gme.so:_ZTVN12SuperFamicom3SMPE
gme.so:_ZTVN7Kss_Emu4CoreE
gme.so:_ZThn256_N11Classic_Emu5play_EiPs
gme.so:_ZThn256_N11Classic_EmuD0Ev
gme.so:_ZThn256_N11Classic_EmuD1Ev
gme.so:_ZThn256_N5gme_t5skip_Ei
gme.so:_ZThn256_N5gme_tD0Ev
gme.so:_ZThn256_N5gme_tD1Ev
gme.so:_ZThn256_N6Ay_EmuD0Ev
gme.so:_ZThn256_N6Ay_EmuD1Ev
gme.so:_ZThn256_N7Gbs_EmuD0Ev
gme.so:_ZThn256_N7Gbs_EmuD1Ev
gme.so:_ZThn256_N7Gym_Emu5play_EiPs
gme.so:_ZThn256_N7Gym_EmuD0Ev
gme.so:_ZThn256_N7Gym_EmuD1Ev
gme.so:_ZThn256_N7Hes_EmuD0Ev
gme.so:_ZThn256_N7Hes_EmuD1Ev
gme.so:_ZThn256_N7Kss_EmuD0Ev
gme.so:_ZThn256_N7Kss_EmuD1Ev
gme.so:_ZThn256_N7Nsf_EmuD0Ev
gme.so:_ZThn256_N7Nsf_EmuD1Ev
gme.so:_ZThn256_N7Sap_EmuD0Ev
gme.so:_ZThn256_N7Sap_EmuD1Ev
gme.so:_ZThn256_N7Sfm_Emu5play_EiPs
gme.so:_ZThn256_N7Sfm_Emu5skip_Ei
gme.so:_ZThn256_N7Sfm_EmuD0Ev
gme.so:_ZThn256_N7Sfm_EmuD1Ev
gme.so:_ZThn256_N7Sgc_EmuD0Ev
gme.so:_ZThn256_N7Sgc_EmuD1Ev
gme.so:_ZThn256_N7Spc_Emu5play_EiPs
gme.so:_ZThn256_N7Spc_Emu5skip_Ei
gme.so:_ZThn256_N7Spc_EmuD0Ev
gme.so:_ZThn256_N7Spc_EmuD1Ev
gme.so:_ZThn256_N7Vgm_Emu5play_EiPs
gme.so:_ZThn256_N7Vgm_Emu5skip_Ei
gme.so:_ZThn256_N7Vgm_EmuD0Ev
gme.so:_ZThn256_N7Vgm_EmuD1Ev
gme.so:_ZThn256_N8Nsfe_EmuD0Ev
gme.so:_ZThn256_N8Nsfe_EmuD1Ev
gme.so:_ZThn256_N9Gme_Info_5play_EiPs
gme.so:adlib_OPL2_getsample
gme.so:adlib_OPL2_init
gme.so:adlib_OPL2_reg_read
gme.so:adlib_OPL2_reset
gme.so:adlib_OPL2_set_mute_mask
gme.so:adlib_OPL2_stop
gme.so:adlib_OPL2_writeIO
gme.so:adlib_OPL2_write_index
gme.so:adlib_OPL3_getsample
gme.so:adlib_OPL3_init
gme.so:adlib_OPL3_reg_read
gme.so:adlib_OPL3_reset
gme.so:adlib_OPL3_set_mute_mask
gme.so:adlib_OPL3_stop
gme.so:adlib_OPL3_writeIO
gme.so:adlib_OPL3_write_index
gme.so:am_depth
gme.so:ay8910_read_ym
gme.so:ay8910_reset_ym
gme.so:ay8910_set_clock_ym
gme.so:ay8910_set_mute_mask_ym
gme.so:ay8910_set_srchg_cb_ym
gme.so:ay8910_start
gme.so:ay8910_start_ym
gme.so:ay8910_stop_ym
gme.so:ay8910_update_one
gme.so:ay8910_write_ym
gme.so:ayxx_set_mute_mask
gme.so:ayxx_stream_update
gme.so:ayxx_w
gme.so:blargg_err_caller
gme.so:blargg_err_file_corrupt
gme.so:blargg_err_file_eof
gme.so:blargg_err_file_feature
gme.so:blargg_err_file_full
gme.so:blargg_err_file_io
gme.so:blargg_err_file_missing
gme.so:blargg_err_file_read
gme.so:blargg_err_file_type
gme.so:blargg_err_file_write
gme.so:blargg_err_generic
gme.so:blargg_err_internal
gme.so:blargg_err_limitation
gme.so:blargg_err_memory
gme.so:c140_r
gme.so:c140_set_base
gme.so:c140_set_mute_mask
gme.so:c140_update
gme.so:c140_w
gme.so:c140_write_rom
gme.so:c352_r
gme.so:c352_set_mute_mask
gme.so:c352_update
gme.so:c352_w
gme.so:c352_write_rom
gme.so:c6280_r
gme.so:c6280_set_mute_mask
gme.so:c6280_update
gme.so:c6280_w
gme.so:c6280m_r
gme.so:c6280m_set_mute_mask
gme.so:c6280m_update
gme.so:c6280m_w
gme.so:calc_panning
gme.so:centre_panning
gme.so:cgme_message
gme.so:chip_reg_read
gme.so:chip_reg_write
gme.so:clock_adpcm
gme.so:daccontrol_refresh_data
gme.so:daccontrol_set_data
gme.so:daccontrol_set_frequency
gme.so:daccontrol_setup_chip
gme.so:daccontrol_start
gme.so:daccontrol_stop
gme.so:daccontrol_update
gme.so:device_reset_ayxx
gme.so:device_reset_c140
gme.so:device_reset_c352
gme.so:device_reset_c6280
gme.so:device_reset_c6280m
gme.so:device_reset_daccontrol
gme.so:device_reset_es5503
gme.so:device_reset_es5506
gme.so:device_reset_gameboy_sound
gme.so:device_reset_iremga20
gme.so:device_reset_k051649
gme.so:device_reset_k053260
gme.so:device_reset_k054539
gme.so:device_reset_multipcm
gme.so:device_reset_nes
gme.so:device_reset_nesapu
gme.so:device_reset_okim6258
gme.so:device_reset_okim6295
gme.so:device_reset_pokey
gme.so:device_reset_pwm
gme.so:device_reset_qsound
gme.so:device_reset_rf5c164
gme.so:device_reset_rf5c68
gme.so:device_reset_saa1099
gme.so:device_reset_scsp
gme.so:device_reset_segapcm
gme.so:device_reset_sn764xx
gme.so:device_reset_upd7759
gme.so:device_reset_vsu
gme.so:device_reset_x1_010
gme.so:device_reset_y8950
gme.so:device_reset_ym2151
gme.so:device_reset_ym2203
gme.so:device_reset_ym2413
gme.so:device_reset_ym2608
gme.so:device_reset_ym2610
gme.so:device_reset_ym2612
gme.so:device_reset_ym3526
gme.so:device_reset_ym3812
gme.so:device_reset_ymf262
gme.so:device_reset_ymf271
gme.so:device_reset_ymf278b
gme.so:device_reset_ymz280b
gme.so:device_start_ayxx
gme.so:device_start_c140
gme.so:device_start_c352
gme.so:device_start_c6280
gme.so:device_start_c6280m
gme.so:device_start_daccontrol
gme.so:device_start_es5503
gme.so:device_start_es5506
gme.so:device_start_gameboy_sound
gme.so:device_start_iremga20
gme.so:device_start_k051649
gme.so:device_start_k053260
gme.so:device_start_k054539
gme.so:device_start_multipcm
gme.so:device_start_nes
gme.so:device_start_nesapu
gme.so:device_start_okim6258
gme.so:device_start_okim6295
gme.so:device_start_pokey
gme.so:device_start_pwm
gme.so:device_start_qsound
gme.so:device_start_rf5c164
gme.so:device_start_rf5c68
gme.so:device_start_saa1099
gme.so:device_start_scsp
gme.so:device_start_segapcm
gme.so:device_start_sn764xx
gme.so:device_start_upd7759
gme.so:device_start_vsu
gme.so:device_start_x1_010
gme.so:device_start_y8950
gme.so:device_start_ym2151
gme.so:device_start_ym2203
gme.so:device_start_ym2413
gme.so:device_start_ym2608
gme.so:device_start_ym2610
gme.so:device_start_ym2612
gme.so:device_start_ym3526
gme.so:device_start_ym3812
gme.so:device_start_ymf262
gme.so:device_start_ymf271
gme.so:device_start_ymf278b
gme.so:device_start_ymz280b
gme.so:device_stop_ayxx
gme.so:device_stop_c140
gme.so:device_stop_c352
gme.so:device_stop_c6280
gme.so:device_stop_c6280m
gme.so:device_stop_daccontrol
gme.so:device_stop_es5503
gme.so:device_stop_es5506
gme.so:device_stop_gameboy_sound
gme.so:device_stop_iremga20
gme.so:device_stop_k051649
gme.so:device_stop_k053260
gme.so:device_stop_k054539
gme.so:device_stop_multipcm
gme.so:device_stop_nes
gme.so:device_stop_nesapu
gme.so:device_stop_okim6258
gme.so:device_stop_okim6295
gme.so:device_stop_pokey
gme.so:device_stop_pwm
gme.so:device_stop_qsound
gme.so:device_stop_rf5c164
gme.so:device_stop_rf5c68
gme.so:device_stop_saa1099
gme.so:device_stop_scsp
gme.so:device_stop_segapcm
gme.so:device_stop_sn764xx
gme.so:device_stop_upd7759
gme.so:device_stop_vsu
gme.so:device_stop_x1_010
gme.so:device_stop_y8950
gme.so:device_stop_ym2151
gme.so:device_stop_ym2203
gme.so:device_stop_ym2413
gme.so:device_stop_ym2608
gme.so:device_stop_ym2610
gme.so:device_stop_ym2612
gme.so:device_stop_ym3526
gme.so:device_stop_ym3812
gme.so:device_stop_ymf262
gme.so:device_stop_ymf271
gme.so:device_stop_ymf278b
gme.so:device_stop_ymz280b
gme.so:dl_tab
gme.so:eg_inc
gme.so:eg_rate_select
gme.so:eg_rate_shift
gme.so:es5503_pcm_update
gme.so:es5503_r
gme.so:es5503_set_mute_mask
gme.so:es5503_set_srchg_cb
gme.so:es5503_w
gme.so:es5503_write_ram
gme.so:es5506_set_mute_mask
gme.so:es5506_set_srchg_cb
gme.so:es5506_update
gme.so:es5506_voice_bank_w
gme.so:es5506_write_rom
gme.so:es550x_r
gme.so:es550x_w
gme.so:es550x_w16
gme.so:gameboy_sound_set_mute_mask
gme.so:gameboy_update
gme.so:gb_sound_r
gme.so:gb_sound_w
gme.so:gb_wave_r
gme.so:gb_wave_w
gme.so:gme_ay_type
gme.so:gme_code_to_err
gme.so:gme_delete
gme.so:gme_effects
gme.so:gme_equalizer
gme.so:gme_err_code
gme.so:gme_err_details
gme.so:gme_err_str
gme.so:gme_free_info
gme.so:gme_gbs_type
gme.so:gme_gym_type
gme.so:gme_hes_type
gme.so:gme_identify_extension
gme.so:gme_identify_file
gme.so:gme_identify_header
gme.so:gme_ignore_silence
gme.so:gme_kss_type
gme.so:gme_load
gme.so:gme_load_custom
gme.so:gme_load_data
gme.so:gme_load_file
gme.so:gme_load_m3u
gme.so:gme_load_m3u_data
gme.so:gme_mute_voice
gme.so:gme_mute_voices
gme.so:gme_new_emu
gme.so:gme_nsf_type
gme.so:gme_nsfe_type
gme.so:gme_open_data
gme.so:gme_open_file
gme.so:gme_play
gme.so:gme_sap_type
gme.so:gme_save
gme.so:gme_seek
gme.so:gme_set_effects
gme.so:gme_set_equalizer
gme.so:gme_set_fade
gme.so:gme_set_sgc_coleco_bios
gme.so:gme_set_stereo_depth
gme.so:gme_set_tempo
gme.so:gme_set_user_cleanup
gme.so:gme_set_user_data
gme.so:gme_sfm_type
gme.so:gme_sgc_type
gme.so:gme_skip
gme.so:gme_spc_type
gme.so:gme_start_track
gme.so:gme_tell
gme.so:gme_track_count
gme.so:gme_track_ended
gme.so:gme_track_info
gme.so:gme_type
gme.so:gme_type_list
gme.so:gme_type_system
gme.so:gme_user_data
gme.so:gme_vgm_type
gme.so:gme_vgz_type
gme.so:gme_voice_count
gme.so:gme_voice_name
gme.so:gme_warning
gme.so:initialIoValue
gme.so:int_cnt
gme.so:irem_ga20_r
gme.so:irem_ga20_w
gme.so:iremga20_set_mute_mask
gme.so:iremga20_write_rom
gme.so:k051649_frequency_w
gme.so:k051649_keyonoff_w
gme.so:k051649_set_mute_mask
gme.so:k051649_test_r
gme.so:k051649_test_w
gme.so:k051649_update
gme.so:k051649_volume_w
gme.so:k051649_w
gme.so:k051649_waveform_r
gme.so:k051649_waveform_w
gme.so:k052539_waveform_r
gme.so:k052539_waveform_w
gme.so:k053260_r
gme.so:k053260_set_mute_mask
gme.so:k053260_update
gme.so:k053260_w
gme.so:k053260_write_rom
gme.so:k054539_init_flags
gme.so:k054539_r
gme.so:k054539_set_gain
gme.so:k054539_set_mute_mask
gme.so:k054539_update
gme.so:k054539_w
gme.so:k054539_write_rom
gme.so:lfo_period
gme.so:mix_level
gme.so:multipcm_bank_write
gme.so:multipcm_r
gme.so:multipcm_set_bank
gme.so:multipcm_set_mute_mask
gme.so:multipcm_w
gme.so:multipcm_write_rom
gme.so:nes_psg_r
gme.so:nes_psg_update_sound
gme.so:nes_psg_w
gme.so:nes_set_mute_mask
gme.so:nes_stream_update
gme.so:nes_w
gme.so:nes_write_ram
gme.so:nesapu_set_mute_mask
gme.so:nesapu_set_rom
gme.so:okim6258_get_vclk
gme.so:okim6258_mute
gme.so:okim6258_set_clock
gme.so:okim6258_set_divider
gme.so:okim6258_set_srchg_cb
gme.so:okim6258_update
gme.so:okim6258_write
gme.so:okim6295_r
gme.so:okim6295_set_bank_base
gme.so:okim6295_set_mute_mask
gme.so:okim6295_set_srchg_cb
gme.so:okim6295_update
gme.so:okim6295_w
gme.so:okim6295_write_command
gme.so:okim6295_write_rom
gme.so:opl_set_mute_mask
gme.so:pan_left
gme.so:pan_right
gme.so:pokey_r
gme.so:pokey_set_mute_mask
gme.so:pokey_update
gme.so:pokey_w
gme.so:pwm_chn_w
gme.so:pwm_mute
gme.so:pwm_update
gme.so:qsound_r
gme.so:qsound_set_mute_mask
gme.so:qsound_update
gme.so:qsound_w
gme.so:qsound_write_rom
gme.so:render_priority_compare
gme.so:reset_adpcm
gme.so:rf5c164_mem_w
gme.so:rf5c164_set_mute_mask
gme.so:rf5c164_update
gme.so:rf5c164_w
gme.so:rf5c164_write_ram
gme.so:rf5c68_mem_r
gme.so:rf5c68_mem_w
gme.so:rf5c68_set_mute_mask
gme.so:rf5c68_update
gme.so:rf5c68_w
gme.so:rf5c68_write_ram
gme.so:saa1099_control_w
gme.so:saa1099_data_w
gme.so:saa1099_set_mute_mask
gme.so:saa1099_update
gme.so:scsp_r
gme.so:scsp_set_mute_mask
gme.so:scsp_w
gme.so:scsp_write_ram
gme.so:sega_pcm_r
gme.so:sega_pcm_w
gme.so:sega_pcm_write_rom
gme.so:segapcm_set_mute_mask
gme.so:seta_sound_r
gme.so:seta_sound_w
gme.so:seta_update
gme.so:sn76496_freq_limiter
gme.so:sn76496_ready_r
gme.so:sn76496_reset
gme.so:sn76496_set_mutemask
gme.so:sn76496_shutdown
gme.so:sn76496_start
gme.so:sn76496_stereo_w
gme.so:sn76496_write_reg
gme.so:sn764xx_set_mute_mask
gme.so:sn764xx_set_panning
gme.so:sn764xx_stream_update
gme.so:sn764xx_w
gme.so:upd7759_busy_r
gme.so:upd7759_mute
gme.so:upd7759_port_w
gme.so:upd7759_reset_w
gme.so:upd7759_set_bank_base
gme.so:upd7759_start_w
gme.so:upd7759_update
gme.so:upd7759_write
gme.so:upd7759_write_rom
gme.so:vgmplay_resampler_clear
gme.so:vgmplay_resampler_create
gme.so:vgmplay_resampler_destroy
gme.so:vgmplay_resampler_dup
gme.so:vgmplay_resampler_get_avail
gme.so:vgmplay_resampler_get_free
gme.so:vgmplay_resampler_get_min_fill
gme.so:vgmplay_resampler_peek_pair
gme.so:vgmplay_resampler_read_pair
gme.so:vgmplay_resampler_set_rate
gme.so:vgmplay_resampler_write_pair
gme.so:vib_depth
gme.so:vsu_set_mute_mask
gme.so:vsu_stream_update
gme.so:ws_audio_done
gme.so:ws_audio_init
gme.so:ws_audio_port_read
gme.so:ws_audio_port_write
gme.so:ws_audio_reset
gme.so:ws_audio_update
gme.so:ws_set_mute_mask
gme.so:ws_write_ram
gme.so:x1_010_set_mute_mask
gme.so:x1_010_write_rom
gme.so:y8950_control_port_w
gme.so:y8950_init
gme.so:y8950_r
gme.so:y8950_read
gme.so:y8950_read_port_r
gme.so:y8950_reset_chip
gme.so:y8950_set_delta_t_memory
gme.so:y8950_set_irq_handler
gme.so:y8950_set_keyboard_handler
gme.so:y8950_set_mute_mask
gme.so:y8950_set_port_handler
gme.so:y8950_set_timer_handler
gme.so:y8950_set_update_handler
gme.so:y8950_shutdown
gme.so:y8950_status_port_r
gme.so:y8950_stream_update
gme.so:y8950_timer_over
gme.so:y8950_update_one
gme.so:y8950_w
gme.so:y8950_write
gme.so:y8950_write_data_pcmrom
gme.so:y8950_write_pcmrom
gme.so:y8950_write_port_w
gme.so:yam_advance
gme.so:yam_aica_load_reg
gme.so:yam_aica_store_reg
gme.so:yam_beginbuffer
gme.so:yam_clear_state
gme.so:yam_enable_dry
gme.so:yam_enable_dsp
gme.so:yam_enable_dsp_dynarec
gme.so:yam_flush
gme.so:yam_get_interrupt_pending_ptr
gme.so:yam_get_min_samples_until_interrupt
gme.so:yam_get_state_size
gme.so:yam_init
gme.so:yam_prepare_dynacode
gme.so:yam_scsp_load_reg
gme.so:yam_scsp_store_reg
gme.so:yam_set_mute
gme.so:yam_setram
gme.so:yam_unprepare_dynacode
gme.so:ym2151_data_port_w
gme.so:ym2151_init
gme.so:ym2151_r
gme.so:ym2151_read_status
gme.so:ym2151_register_port_w
gme.so:ym2151_reset_chip
gme.so:ym2151_set_mute_mask
gme.so:ym2151_set_mutemask
gme.so:ym2151_shutdown
gme.so:ym2151_status_port_r
gme.so:ym2151_update
gme.so:ym2151_update_one
gme.so:ym2151_w
gme.so:ym2151_write_reg
gme.so:ym2203_control_port_w
gme.so:ym2203_init
gme.so:ym2203_r
gme.so:ym2203_read
gme.so:ym2203_read_port_r
gme.so:ym2203_reset_chip
gme.so:ym2203_set_mute_mask
gme.so:ym2203_set_mutemask
gme.so:ym2203_set_srchg_cb
gme.so:ym2203_shutdown
gme.so:ym2203_status_port_r
gme.so:ym2203_stream_update
gme.so:ym2203_stream_update_ay
gme.so:ym2203_timer_over
gme.so:ym2203_update_one
gme.so:ym2203_update_request
gme.so:ym2203_w
gme.so:ym2203_write
gme.so:ym2203_write_port_w
gme.so:ym2413_data_port_w
gme.so:ym2413_init
gme.so:ym2413_override_patches
gme.so:ym2413_read
gme.so:ym2413_register_port_w
gme.so:ym2413_reset_chip
gme.so:ym2413_set_chip_mode
gme.so:ym2413_set_mute_mask
gme.so:ym2413_set_mutemask
gme.so:ym2413_set_panning
gme.so:ym2413_set_update_handler
gme.so:ym2413_shutdown
gme.so:ym2413_stream_update
gme.so:ym2413_update_one
gme.so:ym2413_w
gme.so:ym2413_write
gme.so:ym2608_control_port_a_w
gme.so:ym2608_control_port_b_w
gme.so:ym2608_data_port_a_w
gme.so:ym2608_data_port_b_w
gme.so:ym2608_init
gme.so:ym2608_r
gme.so:ym2608_read
gme.so:ym2608_read_port_r
gme.so:ym2608_reset_chip
gme.so:ym2608_set_mute_mask
gme.so:ym2608_set_mutemask
gme.so:ym2608_set_srchg_cb
gme.so:ym2608_shutdown
gme.so:ym2608_status_port_a_r
gme.so:ym2608_status_port_b_r
gme.so:ym2608_stream_update
gme.so:ym2608_stream_update_ay
gme.so:ym2608_timer_over
gme.so:ym2608_update_one
gme.so:ym2608_update_request
gme.so:ym2608_w
gme.so:ym2608_write
gme.so:ym2608_write_data_pcmrom
gme.so:ym2608_write_pcmrom
gme.so:ym2610_control_port_a_w
gme.so:ym2610_control_port_b_w
gme.so:ym2610_data_port_a_w
gme.so:ym2610_data_port_b_w
gme.so:ym2610_init
gme.so:ym2610_r
gme.so:ym2610_read
gme.so:ym2610_read_port_r
gme.so:ym2610_reset_chip
gme.so:ym2610_set_mute_mask
gme.so:ym2610_set_mutemask
gme.so:ym2610_shutdown
gme.so:ym2610_status_port_a_r
gme.so:ym2610_status_port_b_r
gme.so:ym2610_stream_update
gme.so:ym2610_stream_update_ay
gme.so:ym2610_timer_over
gme.so:ym2610_update_one
gme.so:ym2610_update_request
gme.so:ym2610_w
gme.so:ym2610_write
gme.so:ym2610_write_data_pcmrom
gme.so:ym2610_write_pcmrom
gme.so:ym2610b_stream_update
gme.so:ym2610b_update_one
gme.so:ym2612_control_port_a_w
gme.so:ym2612_control_port_b_w
gme.so:ym2612_data_port_a_r
gme.so:ym2612_data_port_a_w
gme.so:ym2612_data_port_b_r
gme.so:ym2612_data_port_b_w
gme.so:ym2612_init
gme.so:ym2612_r
gme.so:ym2612_read
gme.so:ym2612_reset_chip
gme.so:ym2612_set_mute_mask
gme.so:ym2612_set_mutemask
gme.so:ym2612_shutdown
gme.so:ym2612_status_port_a_r
gme.so:ym2612_status_port_b_r
gme.so:ym2612_stream_update
gme.so:ym2612_timer_over
gme.so:ym2612_update_one
gme.so:ym2612_update_request
gme.so:ym2612_w
gme.so:ym2612_write
gme.so:ym3526_control_port_w
gme.so:ym3526_init
gme.so:ym3526_r
gme.so:ym3526_read
gme.so:ym3526_read_port_r
gme.so:ym3526_reset_chip
gme.so:ym3526_set_irq_handler
gme.so:ym3526_set_mute_mask
gme.so:ym3526_set_timer_handler
gme.so:ym3526_set_update_handler
gme.so:ym3526_shutdown
gme.so:ym3526_status_port_r
gme.so:ym3526_stream_update
gme.so:ym3526_timer_over
gme.so:ym3526_update_one
gme.so:ym3526_w
gme.so:ym3526_write
gme.so:ym3526_write_port_w
gme.so:ym3812_control_port_w
gme.so:ym3812_init
gme.so:ym3812_r
gme.so:ym3812_read
gme.so:ym3812_read_port_r
gme.so:ym3812_reset_chip
gme.so:ym3812_set_irq_handler
gme.so:ym3812_set_mute_mask
gme.so:ym3812_set_timer_handler
gme.so:ym3812_set_update_handler
gme.so:ym3812_shutdown
gme.so:ym3812_status_port_r
gme.so:ym3812_stream_update
gme.so:ym3812_timer_over
gme.so:ym3812_update_one
gme.so:ym3812_w
gme.so:ym3812_write
gme.so:ym3812_write_port_w
gme.so:ymf262_data_a_w
gme.so:ymf262_data_b_w
gme.so:ymf262_init
gme.so:ymf262_r
gme.so:ymf262_read
gme.so:ymf262_register_a_w
gme.so:ymf262_register_b_w
gme.so:ymf262_reset_chip
gme.so:ymf262_set_irq_handler
gme.so:ymf262_set_mute_mask
gme.so:ymf262_set_mutemask
gme.so:ymf262_set_timer_handler
gme.so:ymf262_set_update_handler
gme.so:ymf262_shutdown
gme.so:ymf262_status_r
gme.so:ymf262_stream_update
gme.so:ymf262_timer_over
gme.so:ymf262_update_one
gme.so:ymf262_w
gme.so:ymf262_write
gme.so:ymf271_r
gme.so:ymf271_set_mute_mask
gme.so:ymf271_update
gme.so:ymf271_w
gme.so:ymf271_write_rom
gme.so:ymf278b_C_w
gme.so:ymf278b_anyActive
gme.so:ymf278b_clearRam
gme.so:ymf278b_pcm_update
gme.so:ymf278b_peekReg
gme.so:ymf278b_readReg
gme.so:ymf278b_readStatus
gme.so:ymf278b_set_mute_mask
gme.so:ymf278b_slot_reset
gme.so:ymf278b_w
gme.so:ymf278b_write_rom
gme.so:ymz280b_r
gme.so:ymz280b_set_mute_mask
gme.so:ymz280b_update
gme.so:ymz280b_w
gme.so:ymz280b_write_rom
hotkeys.so:action_add_to_playqueue_handler
hotkeys.so:action_clear_playlist_handler
hotkeys.so:action_duplicate_playlist_cb
hotkeys.so:action_invert_selection_handler
hotkeys.so:action_jump_to_current_handler
hotkeys.so:action_move_tracks_down_handler
hotkeys.so:action_move_tracks_up_handler
hotkeys.so:action_next_cb
hotkeys.so:action_next_playlist_handler
hotkeys.so:action_play_cb
hotkeys.so:action_play_next_album_cb
hotkeys.so:action_play_pause_cb
hotkeys.so:action_play_prev_album_cb
hotkeys.so:action_play_random_album_cb
hotkeys.so:action_play_random_cb
hotkeys.so:action_playlist10_handler
hotkeys.so:action_playlist1_handler
hotkeys.so:action_playlist2_handler
hotkeys.so:action_playlist3_handler
hotkeys.so:action_playlist4_handler
hotkeys.so:action_playlist5_handler
hotkeys.so:action_playlist6_handler
hotkeys.so:action_playlist7_handler
hotkeys.so:action_playlist8_handler
hotkeys.so:action_playlist9_handler
hotkeys.so:action_prepend_to_playqueue_handler
hotkeys.so:action_prev_cb
hotkeys.so:action_prev_or_restart_cb
hotkeys.so:action_prev_playlist_handler
hotkeys.so:action_reload_metadata_handler
hotkeys.so:action_remove_from_playqueue_handler
hotkeys.so:action_seek_1p_backward_cb
hotkeys.so:action_seek_1p_forward_cb
hotkeys.so:action_seek_1s_backward_cb
hotkeys.so:action_seek_1s_forward_cb
hotkeys.so:action_seek_5p_backward_cb
hotkeys.so:action_seek_5p_forward_cb
hotkeys.so:action_seek_5s_backward_cb
hotkeys.so:action_seek_5s_forward_cb
hotkeys.so:action_skip_to_next_album_handler
hotkeys.so:action_skip_to_next_artist_handler
hotkeys.so:action_skip_to_next_composer_handler
hotkeys.so:action_skip_to_next_genre_handler
hotkeys.so:action_skip_to_prev_album_handler
hotkeys.so:action_skip_to_prev_artist_handler
hotkeys.so:action_skip_to_prev_composer_handler
hotkeys.so:action_skip_to_prev_genre_handler
hotkeys.so:action_sort_by_album_handler
hotkeys.so:action_sort_by_artist_handler
hotkeys.so:action_sort_by_date_handler
hotkeys.so:action_sort_by_title_handler
hotkeys.so:action_sort_by_tracknr_handler
hotkeys.so:action_sort_randomize_handler
hotkeys.so:action_stop_cb
hotkeys.so:action_toggle_in_playqueue_handler
hotkeys.so:action_toggle_mute_handler
hotkeys.so:action_toggle_pause_cb
hotkeys.so:action_toggle_stop_after_album_cb
hotkeys.so:action_toggle_stop_after_current_cb
hotkeys.so:action_volume_down_cb
hotkeys.so:action_volume_up_cb
hotkeys.so:deadbeef
hotkeys.so:gettoken
hotkeys.so:gettoken_err_eof
hotkeys.so:gettoken_ext
hotkeys.so:gettoken_keyvalue
hotkeys.so:gettoken_warn_eof
hotkeys.so:hotkeys_get_action_for_keycombo
hotkeys.so:hotkeys_get_name_for_keycode
hotkeys.so:hotkeys_load
hotkeys.so:hotkeys_reset
hotkeys.so:parser_escape_string
hotkeys.so:parser_init
hotkeys.so:parser_line
hotkeys.so:parser_unescape_quoted_string
hotkeys.so:skipws
in_sc68.so:abcd68
in_sc68.so:add68
in_sc68.so:and68
in_sc68.so:andtosr68
in_sc68.so:asl68
in_sc68.so:asr68
in_sc68.so:bcc68
in_sc68.so:bchg68
in_sc68.so:bclr68
in_sc68.so:bset68
in_sc68.so:bsr68
in_sc68.so:btst68
in_sc68.so:buserror68
in_sc68.so:cat_bits
in_sc68.so:chk68
in_sc68.so:clr68
in_sc68.so:cmp68
in_sc68.so:config68_force_file
in_sc68.so:config68_init
in_sc68.so:config68_load
in_sc68.so:config68_save
in_sc68.so:config68_shutdown
in_sc68.so:dbcc68
in_sc68.so:desa68
in_sc68.so:desa68_version
in_sc68.so:desa68_versionstr
in_sc68.so:dial68
in_sc68.so:dial68_new_conf
in_sc68.so:dial68_new_finf
in_sc68.so:dial68_new_tsel
in_sc68.so:dial_cat
in_sc68.so:divs68
in_sc68.so:divu68
in_sc68.so:emu68_bp_del
in_sc68.so:emu68_bp_delall
in_sc68.so:emu68_bp_find
in_sc68.so:emu68_bp_set
in_sc68.so:emu68_chkpeek
in_sc68.so:emu68_chkpoke
in_sc68.so:emu68_chkptr
in_sc68.so:emu68_chkset
in_sc68.so:emu68_crc32
in_sc68.so:emu68_create
in_sc68.so:emu68_debugmode
in_sc68.so:emu68_destroy
in_sc68.so:emu68_duplicate
in_sc68.so:emu68_error_add
in_sc68.so:emu68_error_get
in_sc68.so:emu68_exception_name
in_sc68.so:emu68_finish
in_sc68.so:emu68_get_cookie
in_sc68.so:emu68_get_cycle
in_sc68.so:emu68_get_handler
in_sc68.so:emu68_get_registers
in_sc68.so:emu68_init
in_sc68.so:emu68_interrupt
in_sc68.so:emu68_ioplug
in_sc68.so:emu68_ioplug_destroy_all
in_sc68.so:emu68_ioplug_unplug
in_sc68.so:emu68_ioplug_unplug_all
in_sc68.so:emu68_mem_destroy
in_sc68.so:emu68_mem_init
in_sc68.so:emu68_mem_reset
in_sc68.so:emu68_mem_reset_area
in_sc68.so:emu68_memget
in_sc68.so:emu68_memptr
in_sc68.so:emu68_memput
in_sc68.so:emu68_memset
in_sc68.so:emu68_peek
in_sc68.so:emu68_poke
in_sc68.so:emu68_popl
in_sc68.so:emu68_popw
in_sc68.so:emu68_pushl
in_sc68.so:emu68_pushw
in_sc68.so:emu68_reset
in_sc68.so:emu68_set_cookie
in_sc68.so:emu68_set_cycle
in_sc68.so:emu68_set_handler
in_sc68.so:emu68_set_interrupt_io
in_sc68.so:emu68_set_registers
in_sc68.so:emu68_shutdown
in_sc68.so:emu68_status_name
in_sc68.so:emu68_step
in_sc68.so:endian68_byte_order
in_sc68.so:endian68_is_big
in_sc68.so:endian68_is_little
in_sc68.so:eor68
in_sc68.so:eortosr68
in_sc68.so:error68
in_sc68.so:error68_va
in_sc68.so:error68x
in_sc68.so:error68x_va
in_sc68.so:except_name
in_sc68.so:exception68
in_sc68.so:exg68
in_sc68.so:f_false
in_sc68.so:f_true
in_sc68.so:file68_cat
in_sc68.so:file68_free
in_sc68.so:file68_ice_is_magic
in_sc68.so:file68_ice_load
in_sc68.so:file68_ice_load_file
in_sc68.so:file68_ice_version
in_sc68.so:file68_identifier
in_sc68.so:file68_idstr_v1
in_sc68.so:file68_idstr_v2
in_sc68.so:file68_init
in_sc68.so:file68_is_our
in_sc68.so:file68_load
in_sc68.so:file68_load_mem
in_sc68.so:file68_load_uri
in_sc68.so:file68_loader_init
in_sc68.so:file68_loader_shutdown
in_sc68.so:file68_mimestr
in_sc68.so:file68_mimetype
in_sc68.so:file68_new
in_sc68.so:file68_save
in_sc68.so:file68_save_mem
in_sc68.so:file68_save_uri
in_sc68.so:file68_shutdown
in_sc68.so:file68_tag
in_sc68.so:file68_tag_count
in_sc68.so:file68_tag_enum
in_sc68.so:file68_tag_get
in_sc68.so:file68_tag_set
in_sc68.so:file68_version
in_sc68.so:file68_versionstr
in_sc68.so:get_eab68
in_sc68.so:get_eal68
in_sc68.so:get_eaw68
in_sc68.so:gzip68_buffer
in_sc68.so:gzip68_is_magic
in_sc68.so:gzip68_load
in_sc68.so:illegal68
in_sc68.so:in_sc68_load
in_sc68.so:io68_destroy
in_sc68.so:io68_init
in_sc68.so:io68_reset
in_sc68.so:io68_shutdown
in_sc68.so:jmp68
in_sc68.so:jsr68
in_sc68.so:lea68
in_sc68.so:line_func
in_sc68.so:linea68
in_sc68.so:linef68
in_sc68.so:link68
in_sc68.so:lsl68
in_sc68.so:lsr68
in_sc68.so:max
in_sc68.so:mem68_nextl
in_sc68.so:mem68_nextw
in_sc68.so:mem68_popl
in_sc68.so:mem68_popw
in_sc68.so:mem68_pushl
in_sc68.so:mem68_pushw
in_sc68.so:mem68_read_b
in_sc68.so:mem68_read_l
in_sc68.so:mem68_read_w
in_sc68.so:mem68_write_b
in_sc68.so:mem68_write_l
in_sc68.so:mem68_write_w
in_sc68.so:mfp_adjust_bogoc
in_sc68.so:mfp_cat
in_sc68.so:mfp_cleanup
in_sc68.so:mfp_get_tdr
in_sc68.so:mfp_init
in_sc68.so:mfp_interrupt
in_sc68.so:mfp_nextinterrupt
in_sc68.so:mfp_put_tcr
in_sc68.so:mfp_put_tdr
in_sc68.so:mfp_reset
in_sc68.so:mfp_setup
in_sc68.so:mfp_shutdown
in_sc68.so:mfpio_create
in_sc68.so:mfpio_destroy
in_sc68.so:mfpio_init
in_sc68.so:mfpio_shutdown
in_sc68.so:mixer68_blend_LR
in_sc68.so:mixer68_copy
in_sc68.so:mixer68_dup_L_to_R
in_sc68.so:mixer68_dup_R_to_L
in_sc68.so:mixer68_fill
in_sc68.so:mixer68_mult_LR
in_sc68.so:mixer68_stereo_16_LR
in_sc68.so:mixer68_stereo_16_RL
in_sc68.so:mixer68_stereo_FL_LR
in_sc68.so:msg68
in_sc68.so:msg68_always
in_sc68.so:msg68_cat
in_sc68.so:msg68_cat_bit
in_sc68.so:msg68_cat_filter
in_sc68.so:msg68_cat_free
in_sc68.so:msg68_cat_help
in_sc68.so:msg68_cat_info
in_sc68.so:msg68_cat_level
in_sc68.so:msg68_critical
in_sc68.so:msg68_debug
in_sc68.so:msg68_error
in_sc68.so:msg68_info
in_sc68.so:msg68_notice
in_sc68.so:msg68_set_cookie
in_sc68.so:msg68_set_handler
in_sc68.so:msg68_trace
in_sc68.so:msg68_va
in_sc68.so:msg68_warning
in_sc68.so:msg68x
in_sc68.so:msg68x_always
in_sc68.so:msg68x_critical
in_sc68.so:msg68x_debug
in_sc68.so:msg68x_error
in_sc68.so:msg68x_info
in_sc68.so:msg68x_notice
in_sc68.so:msg68x_trace
in_sc68.so:msg68x_va
in_sc68.so:msg68x_warning
in_sc68.so:muls68
in_sc68.so:mulu68
in_sc68.so:mw_cat
in_sc68.so:mw_cleanup
in_sc68.so:mw_command
in_sc68.so:mw_engine
in_sc68.so:mw_init
in_sc68.so:mw_lmc_high
in_sc68.so:mw_lmc_left
in_sc68.so:mw_lmc_low
in_sc68.so:mw_lmc_master
in_sc68.so:mw_lmc_mixer
in_sc68.so:mw_lmc_right
in_sc68.so:mw_mix
in_sc68.so:mw_reset
in_sc68.so:mw_sampling_rate
in_sc68.so:mw_setup
in_sc68.so:mw_shutdown
in_sc68.so:mwio_create
in_sc68.so:mwio_emulator
in_sc68.so:mwio_init
in_sc68.so:mwio_sampling_rate
in_sc68.so:mwio_shutdown
in_sc68.so:nbcd68
in_sc68.so:neg68
in_sc68.so:nop68
in_sc68.so:not68
in_sc68.so:option68_append
in_sc68.so:option68_enum
in_sc68.so:option68_get
in_sc68.so:option68_getenv
in_sc68.so:option68_help
in_sc68.so:option68_init
in_sc68.so:option68_iset
in_sc68.so:option68_isset
in_sc68.so:option68_parse
in_sc68.so:option68_set
in_sc68.so:option68_shutdown
in_sc68.so:option68_type
in_sc68.so:option68_unset
in_sc68.so:option68_unset_all
in_sc68.so:orr68
in_sc68.so:orrtosr68
in_sc68.so:paula_cleanup
in_sc68.so:paula_clock
in_sc68.so:paula_engine
in_sc68.so:paula_init
in_sc68.so:paula_mix
in_sc68.so:paula_reset
in_sc68.so:paula_sampling_rate
in_sc68.so:paula_setup
in_sc68.so:paula_shutdown
in_sc68.so:paulaio_create
in_sc68.so:paulaio_emulator
in_sc68.so:paulaio_init
in_sc68.so:paulaio_sampling_rate
in_sc68.so:paulaio_shutdown
in_sc68.so:pea68
in_sc68.so:pl_cat
in_sc68.so:registry68_geti
in_sc68.so:registry68_gets
in_sc68.so:registry68_open
in_sc68.so:registry68_puti
in_sc68.so:registry68_puts
in_sc68.so:registry68_rootkey
in_sc68.so:registry68_support
in_sc68.so:replay68_get
in_sc68.so:reset68
in_sc68.so:rol68
in_sc68.so:ror68
in_sc68.so:roxl68
in_sc68.so:roxr68
in_sc68.so:rsc68_cat
in_sc68.so:rsc68_create_uri
in_sc68.so:rsc68_get_music_params
in_sc68.so:rsc68_get_path
in_sc68.so:rsc68_init
in_sc68.so:rsc68_open
in_sc68.so:rsc68_open_uri
in_sc68.so:rsc68_set_handler
in_sc68.so:rsc68_set_music
in_sc68.so:rsc68_set_remote_music
in_sc68.so:rsc68_set_share
in_sc68.so:rsc68_set_user
in_sc68.so:rsc68_shutdown
in_sc68.so:rte68
in_sc68.so:rtr68
in_sc68.so:rts68
in_sc68.so:sbcd68
in_sc68.so:sc68_cat
in_sc68.so:sc68_close
in_sc68.so:sc68_cntl
in_sc68.so:sc68_create
in_sc68.so:sc68_destroy
in_sc68.so:sc68_disk_free
in_sc68.so:sc68_disk_load_mem
in_sc68.so:sc68_error
in_sc68.so:sc68_init
in_sc68.so:sc68_is_our_uri
in_sc68.so:sc68_load
in_sc68.so:sc68_load_disk
in_sc68.so:sc68_load_disk_uri
in_sc68.so:sc68_load_mem
in_sc68.so:sc68_load_uri
in_sc68.so:sc68_mimetype
in_sc68.so:sc68_music_info
in_sc68.so:sc68_open
in_sc68.so:sc68_play
in_sc68.so:sc68_process
in_sc68.so:sc68_shutdown
in_sc68.so:sc68_stop
in_sc68.so:sc68_tag
in_sc68.so:sc68_tag_enum
in_sc68.so:sc68_tag_get
in_sc68.so:sc68_version
in_sc68.so:sc68_versionstr
in_sc68.so:sc68_vfs
in_sc68.so:scc68
in_sc68.so:shifterio_create
in_sc68.so:shifterio_init
in_sc68.so:shifterio_reset
in_sc68.so:shifterio_shutdown
in_sc68.so:stop68
in_sc68.so:strcat68
in_sc68.so:strcatdup68
in_sc68.so:strcmp68
in_sc68.so:strdup68
in_sc68.so:strlongtime68
in_sc68.so:strncmp68
in_sc68.so:strtime68
in_sc68.so:sub68
in_sc68.so:swap68
in_sc68.so:tas68
in_sc68.so:timedb68_add
in_sc68.so:timedb68_get
in_sc68.so:timedb68_load
in_sc68.so:timedb68_save
in_sc68.so:trap68
in_sc68.so:trapv68
in_sc68.so:tst68
in_sc68.so:unice68_depacked_size
in_sc68.so:unice68_depacker
in_sc68.so:unice68_ice_version
in_sc68.so:unice68_packer
in_sc68.so:unice68_unice_version
in_sc68.so:unice68_version
in_sc68.so:unice68_versionstr
in_sc68.so:unlk68
in_sc68.so:uri68_get_scheme
in_sc68.so:uri68_register
in_sc68.so:uri68_unregister
in_sc68.so:uri68_vfs
in_sc68.so:uri68_vfs_va
in_sc68.so:vfs68_ao_init
in_sc68.so:vfs68_ao_shutdown
in_sc68.so:vfs68_close
in_sc68.so:vfs68_curl_init
in_sc68.so:vfs68_curl_shutdown
in_sc68.so:vfs68_destroy
in_sc68.so:vfs68_fd_init
in_sc68.so:vfs68_fd_shutdown
in_sc68.so:vfs68_file_init
in_sc68.so:vfs68_file_shutdown
in_sc68.so:vfs68_filename
in_sc68.so:vfs68_flush
in_sc68.so:vfs68_getc
in_sc68.so:vfs68_gets
in_sc68.so:vfs68_length
in_sc68.so:vfs68_mem_create
in_sc68.so:vfs68_mem_init
in_sc68.so:vfs68_mem_shutdown
in_sc68.so:vfs68_null_init
in_sc68.so:vfs68_null_shutdown
in_sc68.so:vfs68_open
in_sc68.so:vfs68_putc
in_sc68.so:vfs68_puts
in_sc68.so:vfs68_read
in_sc68.so:vfs68_seek
in_sc68.so:vfs68_seek_to
in_sc68.so:vfs68_tell
in_sc68.so:vfs68_write
in_sc68.so:vfs68_z_create
in_sc68.so:vfs68_z_default_option
in_sc68.so:vfs68_z_init
in_sc68.so:vfs68_z_shutdown
in_sc68.so:ym_active_channels
in_sc68.so:ym_adjust_cycle
in_sc68.so:ym_blep_add_options
in_sc68.so:ym_blep_setup
in_sc68.so:ym_buffersize
in_sc68.so:ym_cat
in_sc68.so:ym_cleanup
in_sc68.so:ym_clock
in_sc68.so:ym_configure
in_sc68.so:ym_create_5bit_atarist_table
in_sc68.so:ym_create_5bit_linear_table
in_sc68.so:ym_cur_volmodel
in_sc68.so:ym_default_chans
in_sc68.so:ym_dump_active
in_sc68.so:ym_dump_add_options
in_sc68.so:ym_dump_setup
in_sc68.so:ym_engine
in_sc68.so:ym_envelops
in_sc68.so:ym_init
in_sc68.so:ym_output_level
in_sc68.so:ym_puls_add_options
in_sc68.so:ym_puls_setup
in_sc68.so:ym_reset
in_sc68.so:ym_run
in_sc68.so:ym_sampling_rate
in_sc68.so:ym_setup
in_sc68.so:ym_shutdown
in_sc68.so:ym_smsk_table
in_sc68.so:ym_volume_model
in_sc68.so:ym_writereg
in_sc68.so:ymio_active_channels
in_sc68.so:ymio_buffersize
in_sc68.so:ymio_create
in_sc68.so:ymio_cycle_cpu2ym
in_sc68.so:ymio_cycle_ym2cpu
in_sc68.so:ymio_emulator
in_sc68.so:ymio_init
in_sc68.so:ymio_run
in_sc68.so:ymio_sampling_rate
in_sc68.so:ymio_shutdown
lastfm.so:lastfm_load
m3u.so:load_m3u_from_buffer
m3u.so:m3u_load
m3u.so:m3uplug_save
m3u.so:m3uplug_save_m3u
m3u.so:m3uplug_save_pls
m3u.so:plugin
medialib.so:_create_item_tree_from_collection
medialib.so:_ml_get_music_paths
medialib.so:api
medialib.so:medialib_load
medialib.so:ml_collection_hash_for_ptr
medialib.so:ml_create_source
medialib.so:ml_db_free
medialib.so:ml_db_init
medialib.so:ml_free_list
medialib.so:ml_free_music_paths
medialib.so:ml_free_source
medialib.so:ml_get_tree_item_parent
medialib.so:ml_index
medialib.so:ml_is_source_enabled
medialib.so:ml_item_state_find
medialib.so:ml_item_state_free
medialib.so:ml_item_state_get
medialib.so:ml_item_state_init
medialib.so:ml_item_state_remove
medialib.so:ml_item_state_remove_with_prev
medialib.so:ml_item_state_update
medialib.so:ml_notify_listeners
medialib.so:ml_refresh
medialib.so:ml_scanner_free
medialib.so:ml_scanner_init
medialib.so:ml_scriptable_deinit
medialib.so:ml_scriptable_init
medialib.so:ml_set_source_enabled
medialib.so:ml_source_init
medialib.so:ml_source_update_fs_watch
medialib.so:ml_tree_free
medialib.so:ml_tree_init
medialib.so:ml_watch_fs_start
medialib.so:ml_watch_fs_stop
medialib.so:scanner_thread
medialib.so:scriptableDeinitShared
medialib.so:scriptableInitShared
medialib.so:scriptableItemAddSubItem
medialib.so:scriptableItemAlloc
medialib.so:scriptableItemChildAtIndex
medialib.so:scriptableItemChildren
medialib.so:scriptableItemClone
medialib.so:scriptableItemConfigDialog
medialib.so:scriptableItemContainsSubItemWithName
medialib.so:scriptableItemCreateItemOfType
medialib.so:scriptableItemFactoryItemNames
medialib.so:scriptableItemFactoryItemTypes
medialib.so:scriptableItemFlags
medialib.so:scriptableItemFlagsAdd
medialib.so:scriptableItemFlagsRemove
medialib.so:scriptableItemFlagsSet
medialib.so:scriptableItemFormattedName
medialib.so:scriptableItemFree
medialib.so:scriptableItemIndexOfChild
medialib.so:scriptableItemInsertSubItemAtIndex
medialib.so:scriptableItemIsSubItemNameAllowed
medialib.so:scriptableItemNext
medialib.so:scriptableItemNumChildren
medialib.so:scriptableItemParent
medialib.so:scriptableItemPasteboardIdentifier
medialib.so:scriptableItemPropertiesForEach
medialib.so:scriptableItemPropertyValueForKey
medialib.so:scriptableItemRemoveSubItem
medialib.so:scriptableItemReset
medialib.so:scriptableItemSave
medialib.so:scriptableItemSaveToString
medialib.so:scriptableItemSetConfigDialog
medialib.so:scriptableItemSetOverrides
medialib.so:scriptableItemSetPropertyValueForKey
medialib.so:scriptableItemSetUniqueNameUsingPrefixAndRoot
medialib.so:scriptableItemSubItemForName
medialib.so:scriptableItemUpdate
medialib.so:scriptableModelAlloc
medialib.so:scriptableModelFree
medialib.so:scriptableModelGetAPI
medialib.so:scriptableModelInit
medialib.so:scriptableRootShared
medialib.so:scriptableStringListFree
medialib.so:scriptableStringListItemAlloc
medialib.so:scriptableStringListItemFree
medialib.so:scriptableTFQueryLoadPresets
medialib.so:scriptableTFQueryRootCreate
mms.so:deadbeef
mms.so:gnet_mms_helper
mms.so:gnet_uri_clone
mms.so:gnet_uri_delete
mms.so:gnet_uri_equal
mms.so:gnet_uri_escape
mms.so:gnet_uri_get_string
mms.so:gnet_uri_new
mms.so:gnet_uri_new_fields
mms.so:gnet_uri_new_fields_all
mms.so:gnet_uri_set_fragment
mms.so:gnet_uri_set_hostname
mms.so:gnet_uri_set_path
mms.so:gnet_uri_set_port
mms.so:gnet_uri_set_query
mms.so:gnet_uri_set_scheme
mms.so:gnet_uri_set_userinfo
mms.so:gnet_uri_unescape
mms.so:mms_bandwidth_strs
mms.so:mms_bandwidths
mms.so:mms_close
mms.so:mms_connect
mms.so:mms_get_asf_header_len
mms.so:mms_get_asf_packet_len
mms.so:mms_get_content_type
mms.so:mms_get_current_pos
mms.so:mms_get_default_io_impl
mms.so:mms_get_length
mms.so:mms_get_raw_time_length
mms.so:mms_get_schemes
mms.so:mms_get_seekable
mms.so:mms_get_time_length
mms.so:mms_is_streaming
mms.so:mms_load
mms.so:mms_peek_header
mms.so:mms_read
mms.so:mms_request_packet_seek
mms.so:mms_request_time_seek
mms.so:mms_seek
mms.so:mms_set_default_io_impl
mms.so:mms_time_seek
mms.so:mmsh_close
mms.so:mmsh_connect
mms.so:mmsh_get_asf_header_len
mms.so:mmsh_get_asf_packet_len
mms.so:mmsh_get_current_pos
mms.so:mmsh_get_length
mms.so:mmsh_get_raw_time_length
mms.so:mmsh_get_seekable
mms.so:mmsh_get_time_length
mms.so:mmsh_peek_header
mms.so:mmsh_read
mms.so:mmsh_seek
mms.so:mmsh_time_seek
mms.so:mmsx_close
mms.so:mmsx_connect
mms.so:mmsx_get_asf_header_len
mms.so:mmsx_get_asf_packet_len
mms.so:mmsx_get_current_pos
mms.so:mmsx_get_length
mms.so:mmsx_get_raw_time_length
mms.so:mmsx_get_seekable
mms.so:mmsx_get_time_length
mms.so:mmsx_peek_header
mms.so:mmsx_read
mms.so:mmsx_seek
mms.so:mmsx_time_seek
mms.so:status_to_string
mp3.so:cmp3_read_metadata
mp3.so:cmp3_seek_stream
mp3.so:cmp3_set_extra_properties
mp3.so:cmp3_write_metadata
mp3.so:deadbeef
mp3.so:mad_api
mp3.so:mp3_load
mp3.so:mp3_mad_consume_decoded_data
mp3.so:mp3_mad_decode_next_packet
mp3.so:mp3_mad_free
mp3.so:mp3_mad_init
mp3.so:mp3_parse_file
musepack.so:Cnk
musepack.so:Cnk_len
musepack.so:Cnk_lost
musepack.so:Res_bit
musepack.so:__Cc
musepack.so:__Dc
musepack.so:crc32
musepack.so:huff_init_lut
musepack.so:mpc_HuffDSCF
musepack.so:mpc_HuffHdr
musepack.so:mpc_HuffQ
musepack.so:mpc_bits_get_block
musepack.so:mpc_bits_get_size
musepack.so:mpc_bits_golomb_dec
musepack.so:mpc_bits_log_dec
musepack.so:mpc_can_Bands
musepack.so:mpc_can_DSCF
musepack.so:mpc_can_Q
musepack.so:mpc_can_Q1
musepack.so:mpc_can_Q9up
musepack.so:mpc_can_Res
musepack.so:mpc_can_SCFI
musepack.so:mpc_decoder_decode_frame
musepack.so:mpc_decoder_exit
musepack.so:mpc_decoder_init
musepack.so:mpc_decoder_init_quant
musepack.so:mpc_decoder_read_bitstream_sv7
musepack.so:mpc_decoder_read_bitstream_sv8
musepack.so:mpc_decoder_reset_scf
musepack.so:mpc_decoder_scale_output
musepack.so:mpc_decoder_set_streaminfo
musepack.so:mpc_decoder_setup
musepack.so:mpc_decoder_synthese_filter_float
musepack.so:mpc_demux_chap
musepack.so:mpc_demux_chap_nb
musepack.so:mpc_demux_decode
musepack.so:mpc_demux_exit
musepack.so:mpc_demux_get_info
musepack.so:mpc_demux_init
musepack.so:mpc_demux_pos
musepack.so:mpc_demux_seek_sample
musepack.so:mpc_demux_seek_second
musepack.so:mpc_random_int
musepack.so:mpc_reader_exit_stdio
musepack.so:mpc_reader_init_stdio
musepack.so:mpc_reader_init_stdio_stream
musepack.so:mpc_set_replay_level
musepack.so:mpc_set_trk_properties
musepack.so:mpc_streaminfo_get_length
musepack.so:mpc_streaminfo_get_length_samples
musepack.so:mpc_table_HuffSCFI
musepack.so:musepack_load
musepack.so:musepack_vfs_canseek
musepack.so:musepack_vfs_get_size
musepack.so:musepack_vfs_read
musepack.so:musepack_vfs_seek
musepack.so:musepack_vfs_tell
musepack.so:streaminfo_encoder_info
musepack.so:streaminfo_gain
musepack.so:streaminfo_read_header_sv7
musepack.so:streaminfo_read_header_sv8
notify.so:notify_load
notify.so:notify_start
notify.so:notify_stop
nullout.so:null_start
nullout.so:null_stop
nullout.so:nullout_load
nullout.so:pnull_get_state
nullout.so:pnull_setformat
opus.so:opus_load
oss.so:deadbeef
oss.so:oss_load
oss.so:oss_set_hwparams
pltbrowser_gtk3.so:deadbeef
pltbrowser_gtk3.so:on_pltbrowser_button_press_end_event
pltbrowser_gtk3.so:on_pltbrowser_button_press_event
pltbrowser_gtk3.so:on_pltbrowser_popup_menu
pltbrowser_gtk3.so:pltbrowser_gtk3_load
psf.so:AICADSP_Init
psf.so:AICADSP_SetSample
psf.so:AICADSP_Start
psf.so:AICADSP_Step
psf.so:AICALFO_ComputeStep
psf.so:AICALFO_Init
psf.so:AICA_0_r
psf.so:AICA_0_w
psf.so:AICA_IRQCB
psf.so:AICA_MidiIn
psf.so:AICA_MidiOutR
psf.so:AICA_TimersAddTicks
psf.so:AICA_Update
psf.so:AICA_set_ram_base
psf.so:ARM7_Alloc
psf.so:ARM7_CheckIRQ
psf.so:ARM7_Execute
psf.so:ARM7_Free
psf.so:ARM7_HardReset
psf.so:ARM7_Init
psf.so:ARM7_SetCPSR
psf.so:ARM7_SetFIQ
psf.so:ARM7_SetIRQ
psf.so:ARM7_SoftReset
psf.so:ARM7_Step
psf.so:ARM7i_Step
psf.so:FModOn
psf.so:InitADPCM
psf.so:InitADSR
psf.so:InterruptDMA4
psf.so:InterruptDMA7
psf.so:LFO_ComputeStep
psf.so:LFO_Init
psf.so:NoiseOn
psf.so:RateTable
psf.so:RemoveStreams
psf.so:ReverbOn
psf.so:SCSPDSP_Init
psf.so:SCSPDSP_SetSample
psf.so:SCSPDSP_Start
psf.so:SCSPDSP_Step
psf.so:SCSP_0_r
psf.so:SCSP_0_w
psf.so:SCSP_Exit
psf.so:SCSP_IRQCB
psf.so:SCSP_MidiIn
psf.so:SCSP_MidiOutR
psf.so:SCSP_Start
psf.so:SCSP_TimersAddTicks
psf.so:SCSP_Update
psf.so:SCSP_set_ram_base
psf.so:SPU2async
psf.so:SPU2close
psf.so:SPU2free
psf.so:SPU2init
psf.so:SPU2interruptDMA4
psf.so:SPU2interruptDMA7
psf.so:SPU2open
psf.so:SPU2read
psf.so:SPU2readDMA4Mem
psf.so:SPU2readDMA7Mem
psf.so:SPU2readPS1Port
psf.so:SPU2shutdown
psf.so:SPU2test
psf.so:SPU2write
psf.so:SPU2writeDMA4Mem
psf.so:SPU2writeDMA7Mem
psf.so:SPU2writePS1Port
psf.so:SPU_flushboot
psf.so:SPUasync
psf.so:SPUclose
psf.so:SPUinit
psf.so:SPUinjectRAMImage
psf.so:SPUirq
psf.so:SPUopen
psf.so:SPUreadDMAMem
psf.so:SPUreadRegister
psf.so:SPUshutdown
psf.so:SPUwriteDMAMem
psf.so:SPUwriteRegister
psf.so:SetPitch
psf.so:SetReverbAddr
psf.so:SetVolumeL
psf.so:SetVolumeR
psf.so:SetupStreams
psf.so:SoundOff
psf.so:SoundOn
psf.so:TableQuant
psf.so:VolumeOn
psf.so:aica_start
psf.so:aica_stop
psf.so:ao_command
psf.so:ao_decode
psf.so:ao_get_info
psf.so:ao_get_lib
psf.so:ao_getlibpath
psf.so:ao_identify
psf.so:ao_start
psf.so:ao_stop
psf.so:change_pc
psf.so:corlett_decode
psf.so:cps1_decode
psf.so:dc_hw_free
psf.so:dc_hw_init
psf.so:dc_read16
psf.so:dc_read32
psf.so:dc_read8
psf.so:dc_write16
psf.so:dc_write32
psf.so:dc_write8
psf.so:deadbeef
psf.so:dsf_command
psf.so:dsf_fill_info
psf.so:dsf_gen
psf.so:dsf_start
psf.so:dsf_stop
psf.so:f
psf.so:gauss
psf.so:m68k_cycles_remaining
psf.so:m68k_cycles_run
psf.so:m68k_end_timeslice
psf.so:m68k_execute
psf.so:m68k_get_reg
psf.so:m68k_init
psf.so:m68k_modify_timeslice
psf.so:m68k_op_1010
psf.so:m68k_op_1111
psf.so:m68k_op_abcd_8_mm
psf.so:m68k_op_abcd_8_mm_ax7
psf.so:m68k_op_abcd_8_mm_axy7
psf.so:m68k_op_abcd_8_mm_ay7
psf.so:m68k_op_abcd_8_rr
psf.so:m68k_op_add_16_er_a
psf.so:m68k_op_add_16_er_ai
psf.so:m68k_op_add_16_er_al
psf.so:m68k_op_add_16_er_aw
psf.so:m68k_op_add_16_er_d
psf.so:m68k_op_add_16_er_di
psf.so:m68k_op_add_16_er_i
psf.so:m68k_op_add_16_er_ix
psf.so:m68k_op_add_16_er_pcdi
psf.so:m68k_op_add_16_er_pcix
psf.so:m68k_op_add_16_er_pd
psf.so:m68k_op_add_16_er_pi
psf.so:m68k_op_add_16_re_ai
psf.so:m68k_op_add_16_re_al
psf.so:m68k_op_add_16_re_aw
psf.so:m68k_op_add_16_re_di
psf.so:m68k_op_add_16_re_ix
psf.so:m68k_op_add_16_re_pd
psf.so:m68k_op_add_16_re_pi
psf.so:m68k_op_add_32_er_a
psf.so:m68k_op_add_32_er_ai
psf.so:m68k_op_add_32_er_al
psf.so:m68k_op_add_32_er_aw
psf.so:m68k_op_add_32_er_d
psf.so:m68k_op_add_32_er_di
psf.so:m68k_op_add_32_er_i
psf.so:m68k_op_add_32_er_ix
psf.so:m68k_op_add_32_er_pcdi
psf.so:m68k_op_add_32_er_pcix
psf.so:m68k_op_add_32_er_pd
psf.so:m68k_op_add_32_er_pi
psf.so:m68k_op_add_32_re_ai
psf.so:m68k_op_add_32_re_al
psf.so:m68k_op_add_32_re_aw
psf.so:m68k_op_add_32_re_di
psf.so:m68k_op_add_32_re_ix
psf.so:m68k_op_add_32_re_pd
psf.so:m68k_op_add_32_re_pi
psf.so:m68k_op_add_8_er_ai
psf.so:m68k_op_add_8_er_al
psf.so:m68k_op_add_8_er_aw
psf.so:m68k_op_add_8_er_d
psf.so:m68k_op_add_8_er_di
psf.so:m68k_op_add_8_er_i
psf.so:m68k_op_add_8_er_ix
psf.so:m68k_op_add_8_er_pcdi
psf.so:m68k_op_add_8_er_pcix
psf.so:m68k_op_add_8_er_pd
psf.so:m68k_op_add_8_er_pd7
psf.so:m68k_op_add_8_er_pi
psf.so:m68k_op_add_8_er_pi7
psf.so:m68k_op_add_8_re_ai
psf.so:m68k_op_add_8_re_al
psf.so:m68k_op_add_8_re_aw
psf.so:m68k_op_add_8_re_di
psf.so:m68k_op_add_8_re_ix
psf.so:m68k_op_add_8_re_pd
psf.so:m68k_op_add_8_re_pd7
psf.so:m68k_op_add_8_re_pi
psf.so:m68k_op_add_8_re_pi7
psf.so:m68k_op_adda_16_a
psf.so:m68k_op_adda_16_ai
psf.so:m68k_op_adda_16_al
psf.so:m68k_op_adda_16_aw
psf.so:m68k_op_adda_16_d
psf.so:m68k_op_adda_16_di
psf.so:m68k_op_adda_16_i
psf.so:m68k_op_adda_16_ix
psf.so:m68k_op_adda_16_pcdi
psf.so:m68k_op_adda_16_pcix
psf.so:m68k_op_adda_16_pd
psf.so:m68k_op_adda_16_pi
psf.so:m68k_op_adda_32_a
psf.so:m68k_op_adda_32_ai
psf.so:m68k_op_adda_32_al
psf.so:m68k_op_adda_32_aw
psf.so:m68k_op_adda_32_d
psf.so:m68k_op_adda_32_di
psf.so:m68k_op_adda_32_i
psf.so:m68k_op_adda_32_ix
psf.so:m68k_op_adda_32_pcdi
psf.so:m68k_op_adda_32_pcix
psf.so:m68k_op_adda_32_pd
psf.so:m68k_op_adda_32_pi
psf.so:m68k_op_addi_16_ai
psf.so:m68k_op_addi_16_al
psf.so:m68k_op_addi_16_aw
psf.so:m68k_op_addi_16_d
psf.so:m68k_op_addi_16_di
psf.so:m68k_op_addi_16_ix
psf.so:m68k_op_addi_16_pd
psf.so:m68k_op_addi_16_pi
psf.so:m68k_op_addi_32_ai
psf.so:m68k_op_addi_32_al
psf.so:m68k_op_addi_32_aw
psf.so:m68k_op_addi_32_d
psf.so:m68k_op_addi_32_di
psf.so:m68k_op_addi_32_ix
psf.so:m68k_op_addi_32_pd
psf.so:m68k_op_addi_32_pi
psf.so:m68k_op_addi_8_ai
psf.so:m68k_op_addi_8_al
psf.so:m68k_op_addi_8_aw
psf.so:m68k_op_addi_8_d
psf.so:m68k_op_addi_8_di
psf.so:m68k_op_addi_8_ix
psf.so:m68k_op_addi_8_pd
psf.so:m68k_op_addi_8_pd7
psf.so:m68k_op_addi_8_pi
psf.so:m68k_op_addi_8_pi7
psf.so:m68k_op_addq_16_a
psf.so:m68k_op_addq_16_ai
psf.so:m68k_op_addq_16_al
psf.so:m68k_op_addq_16_aw
psf.so:m68k_op_addq_16_d
psf.so:m68k_op_addq_16_di
psf.so:m68k_op_addq_16_ix
psf.so:m68k_op_addq_16_pd
psf.so:m68k_op_addq_16_pi
psf.so:m68k_op_addq_32_a
psf.so:m68k_op_addq_32_ai
psf.so:m68k_op_addq_32_al
psf.so:m68k_op_addq_32_aw
psf.so:m68k_op_addq_32_d
psf.so:m68k_op_addq_32_di
psf.so:m68k_op_addq_32_ix
psf.so:m68k_op_addq_32_pd
psf.so:m68k_op_addq_32_pi
psf.so:m68k_op_addq_8_ai
psf.so:m68k_op_addq_8_al
psf.so:m68k_op_addq_8_aw
psf.so:m68k_op_addq_8_d
psf.so:m68k_op_addq_8_di
psf.so:m68k_op_addq_8_ix
psf.so:m68k_op_addq_8_pd
psf.so:m68k_op_addq_8_pd7
psf.so:m68k_op_addq_8_pi
psf.so:m68k_op_addq_8_pi7
psf.so:m68k_op_addx_16_mm
psf.so:m68k_op_addx_16_rr
psf.so:m68k_op_addx_32_mm
psf.so:m68k_op_addx_32_rr
psf.so:m68k_op_addx_8_mm
psf.so:m68k_op_addx_8_mm_ax7
psf.so:m68k_op_addx_8_mm_axy7
psf.so:m68k_op_addx_8_mm_ay7
psf.so:m68k_op_addx_8_rr
psf.so:m68k_op_and_16_er_ai
psf.so:m68k_op_and_16_er_al
psf.so:m68k_op_and_16_er_aw
psf.so:m68k_op_and_16_er_d
psf.so:m68k_op_and_16_er_di
psf.so:m68k_op_and_16_er_i
psf.so:m68k_op_and_16_er_ix
psf.so:m68k_op_and_16_er_pcdi
psf.so:m68k_op_and_16_er_pcix
psf.so:m68k_op_and_16_er_pd
psf.so:m68k_op_and_16_er_pi
psf.so:m68k_op_and_16_re_ai
psf.so:m68k_op_and_16_re_al
psf.so:m68k_op_and_16_re_aw
psf.so:m68k_op_and_16_re_di
psf.so:m68k_op_and_16_re_ix
psf.so:m68k_op_and_16_re_pd
psf.so:m68k_op_and_16_re_pi
psf.so:m68k_op_and_32_er_ai
psf.so:m68k_op_and_32_er_al
psf.so:m68k_op_and_32_er_aw
psf.so:m68k_op_and_32_er_d
psf.so:m68k_op_and_32_er_di
psf.so:m68k_op_and_32_er_i
psf.so:m68k_op_and_32_er_ix
psf.so:m68k_op_and_32_er_pcdi
psf.so:m68k_op_and_32_er_pcix
psf.so:m68k_op_and_32_er_pd
psf.so:m68k_op_and_32_er_pi
psf.so:m68k_op_and_32_re_ai
psf.so:m68k_op_and_32_re_al
psf.so:m68k_op_and_32_re_aw
psf.so:m68k_op_and_32_re_di
psf.so:m68k_op_and_32_re_ix
psf.so:m68k_op_and_32_re_pd
psf.so:m68k_op_and_32_re_pi
psf.so:m68k_op_and_8_er_ai
psf.so:m68k_op_and_8_er_al
psf.so:m68k_op_and_8_er_aw
psf.so:m68k_op_and_8_er_d
psf.so:m68k_op_and_8_er_di
psf.so:m68k_op_and_8_er_i
psf.so:m68k_op_and_8_er_ix
psf.so:m68k_op_and_8_er_pcdi
psf.so:m68k_op_and_8_er_pcix
psf.so:m68k_op_and_8_er_pd
psf.so:m68k_op_and_8_er_pd7
psf.so:m68k_op_and_8_er_pi
psf.so:m68k_op_and_8_er_pi7
psf.so:m68k_op_and_8_re_ai
psf.so:m68k_op_and_8_re_al
psf.so:m68k_op_and_8_re_aw
psf.so:m68k_op_and_8_re_di
psf.so:m68k_op_and_8_re_ix
psf.so:m68k_op_and_8_re_pd
psf.so:m68k_op_and_8_re_pd7
psf.so:m68k_op_and_8_re_pi
psf.so:m68k_op_and_8_re_pi7
psf.so:m68k_op_andi_16_ai
psf.so:m68k_op_andi_16_al
psf.so:m68k_op_andi_16_aw
psf.so:m68k_op_andi_16_d
psf.so:m68k_op_andi_16_di
psf.so:m68k_op_andi_16_ix
psf.so:m68k_op_andi_16_pd
psf.so:m68k_op_andi_16_pi
psf.so:m68k_op_andi_16_toc
psf.so:m68k_op_andi_16_tos
psf.so:m68k_op_andi_32_ai
psf.so:m68k_op_andi_32_al
psf.so:m68k_op_andi_32_aw
psf.so:m68k_op_andi_32_d
psf.so:m68k_op_andi_32_di
psf.so:m68k_op_andi_32_ix
psf.so:m68k_op_andi_32_pd
psf.so:m68k_op_andi_32_pi
psf.so:m68k_op_andi_8_ai
psf.so:m68k_op_andi_8_al
psf.so:m68k_op_andi_8_aw
psf.so:m68k_op_andi_8_d
psf.so:m68k_op_andi_8_di
psf.so:m68k_op_andi_8_ix
psf.so:m68k_op_andi_8_pd
psf.so:m68k_op_andi_8_pd7
psf.so:m68k_op_andi_8_pi
psf.so:m68k_op_andi_8_pi7
psf.so:m68k_op_asl_16_ai
psf.so:m68k_op_asl_16_al
psf.so:m68k_op_asl_16_aw
psf.so:m68k_op_asl_16_di
psf.so:m68k_op_asl_16_ix
psf.so:m68k_op_asl_16_pd
psf.so:m68k_op_asl_16_pi
psf.so:m68k_op_asl_16_r
psf.so:m68k_op_asl_16_s
psf.so:m68k_op_asl_32_r
psf.so:m68k_op_asl_32_s
psf.so:m68k_op_asl_8_r
psf.so:m68k_op_asl_8_s
psf.so:m68k_op_asr_16_ai
psf.so:m68k_op_asr_16_al
psf.so:m68k_op_asr_16_aw
psf.so:m68k_op_asr_16_di
psf.so:m68k_op_asr_16_ix
psf.so:m68k_op_asr_16_pd
psf.so:m68k_op_asr_16_pi
psf.so:m68k_op_asr_16_r
psf.so:m68k_op_asr_16_s
psf.so:m68k_op_asr_32_r
psf.so:m68k_op_asr_32_s
psf.so:m68k_op_asr_8_r
psf.so:m68k_op_asr_8_s
psf.so:m68k_op_bcc_16
psf.so:m68k_op_bcc_32
psf.so:m68k_op_bcc_8
psf.so:m68k_op_bchg_32_r_d
psf.so:m68k_op_bchg_32_s_d
psf.so:m68k_op_bchg_8_r_ai
psf.so:m68k_op_bchg_8_r_al
psf.so:m68k_op_bchg_8_r_aw
psf.so:m68k_op_bchg_8_r_di
psf.so:m68k_op_bchg_8_r_ix
psf.so:m68k_op_bchg_8_r_pd
psf.so:m68k_op_bchg_8_r_pd7
psf.so:m68k_op_bchg_8_r_pi
psf.so:m68k_op_bchg_8_r_pi7
psf.so:m68k_op_bchg_8_s_ai
psf.so:m68k_op_bchg_8_s_al
psf.so:m68k_op_bchg_8_s_aw
psf.so:m68k_op_bchg_8_s_di
psf.so:m68k_op_bchg_8_s_ix
psf.so:m68k_op_bchg_8_s_pd
psf.so:m68k_op_bchg_8_s_pd7
psf.so:m68k_op_bchg_8_s_pi
psf.so:m68k_op_bchg_8_s_pi7
psf.so:m68k_op_bclr_32_r_d
psf.so:m68k_op_bclr_32_s_d
psf.so:m68k_op_bclr_8_r_ai
psf.so:m68k_op_bclr_8_r_al
psf.so:m68k_op_bclr_8_r_aw
psf.so:m68k_op_bclr_8_r_di
psf.so:m68k_op_bclr_8_r_ix
psf.so:m68k_op_bclr_8_r_pd
psf.so:m68k_op_bclr_8_r_pd7
psf.so:m68k_op_bclr_8_r_pi
psf.so:m68k_op_bclr_8_r_pi7
psf.so:m68k_op_bclr_8_s_ai
psf.so:m68k_op_bclr_8_s_al
psf.so:m68k_op_bclr_8_s_aw
psf.so:m68k_op_bclr_8_s_di
psf.so:m68k_op_bclr_8_s_ix
psf.so:m68k_op_bclr_8_s_pd
psf.so:m68k_op_bclr_8_s_pd7
psf.so:m68k_op_bclr_8_s_pi
psf.so:m68k_op_bclr_8_s_pi7
psf.so:m68k_op_bcs_16
psf.so:m68k_op_bcs_32
psf.so:m68k_op_bcs_8
psf.so:m68k_op_beq_16
psf.so:m68k_op_beq_32
psf.so:m68k_op_beq_8
psf.so:m68k_op_bfchg_32_ai
psf.so:m68k_op_bfchg_32_al
psf.so:m68k_op_bfchg_32_aw
psf.so:m68k_op_bfchg_32_d
psf.so:m68k_op_bfchg_32_di
psf.so:m68k_op_bfchg_32_ix
psf.so:m68k_op_bfclr_32_ai
psf.so:m68k_op_bfclr_32_al
psf.so:m68k_op_bfclr_32_aw
psf.so:m68k_op_bfclr_32_d
psf.so:m68k_op_bfclr_32_di
psf.so:m68k_op_bfclr_32_ix
psf.so:m68k_op_bfexts_32_ai
psf.so:m68k_op_bfexts_32_al
psf.so:m68k_op_bfexts_32_aw
psf.so:m68k_op_bfexts_32_d
psf.so:m68k_op_bfexts_32_di
psf.so:m68k_op_bfexts_32_ix
psf.so:m68k_op_bfexts_32_pcdi
psf.so:m68k_op_bfexts_32_pcix
psf.so:m68k_op_bfextu_32_ai
psf.so:m68k_op_bfextu_32_al
psf.so:m68k_op_bfextu_32_aw
psf.so:m68k_op_bfextu_32_d
psf.so:m68k_op_bfextu_32_di
psf.so:m68k_op_bfextu_32_ix
psf.so:m68k_op_bfextu_32_pcdi
psf.so:m68k_op_bfextu_32_pcix
psf.so:m68k_op_bfffo_32_ai
psf.so:m68k_op_bfffo_32_al
psf.so:m68k_op_bfffo_32_aw
psf.so:m68k_op_bfffo_32_d
psf.so:m68k_op_bfffo_32_di
psf.so:m68k_op_bfffo_32_ix
psf.so:m68k_op_bfffo_32_pcdi
psf.so:m68k_op_bfffo_32_pcix
psf.so:m68k_op_bfins_32_ai
psf.so:m68k_op_bfins_32_al
psf.so:m68k_op_bfins_32_aw
psf.so:m68k_op_bfins_32_d
psf.so:m68k_op_bfins_32_di
psf.so:m68k_op_bfins_32_ix
psf.so:m68k_op_bfset_32_ai
psf.so:m68k_op_bfset_32_al
psf.so:m68k_op_bfset_32_aw
psf.so:m68k_op_bfset_32_d
psf.so:m68k_op_bfset_32_di
psf.so:m68k_op_bfset_32_ix
psf.so:m68k_op_bftst_32_ai
psf.so:m68k_op_bftst_32_al
psf.so:m68k_op_bftst_32_aw
psf.so:m68k_op_bftst_32_d
psf.so:m68k_op_bftst_32_di
psf.so:m68k_op_bftst_32_ix
psf.so:m68k_op_bftst_32_pcdi
psf.so:m68k_op_bftst_32_pcix
psf.so:m68k_op_bge_16
psf.so:m68k_op_bge_32
psf.so:m68k_op_bge_8
psf.so:m68k_op_bgt_16
psf.so:m68k_op_bgt_32
psf.so:m68k_op_bgt_8
psf.so:m68k_op_bhi_16
psf.so:m68k_op_bhi_32
psf.so:m68k_op_bhi_8
psf.so:m68k_op_bkpt
psf.so:m68k_op_ble_16
psf.so:m68k_op_ble_32
psf.so:m68k_op_ble_8
psf.so:m68k_op_bls_16
psf.so:m68k_op_bls_32
psf.so:m68k_op_bls_8
psf.so:m68k_op_blt_16
psf.so:m68k_op_blt_32
psf.so:m68k_op_blt_8
psf.so:m68k_op_bmi_16
psf.so:m68k_op_bmi_32
psf.so:m68k_op_bmi_8
psf.so:m68k_op_bne_16
psf.so:m68k_op_bne_32
psf.so:m68k_op_bne_8
psf.so:m68k_op_bpl_16
psf.so:m68k_op_bpl_32
psf.so:m68k_op_bpl_8
psf.so:m68k_op_bra_16
psf.so:m68k_op_bra_32
psf.so:m68k_op_bra_8
psf.so:m68k_op_bset_32_r_d
psf.so:m68k_op_bset_32_s_d
psf.so:m68k_op_bset_8_r_ai
psf.so:m68k_op_bset_8_r_al
psf.so:m68k_op_bset_8_r_aw
psf.so:m68k_op_bset_8_r_di
psf.so:m68k_op_bset_8_r_ix
psf.so:m68k_op_bset_8_r_pd
psf.so:m68k_op_bset_8_r_pd7
psf.so:m68k_op_bset_8_r_pi
psf.so:m68k_op_bset_8_r_pi7
psf.so:m68k_op_bset_8_s_ai
psf.so:m68k_op_bset_8_s_al
psf.so:m68k_op_bset_8_s_aw
psf.so:m68k_op_bset_8_s_di
psf.so:m68k_op_bset_8_s_ix
psf.so:m68k_op_bset_8_s_pd
psf.so:m68k_op_bset_8_s_pd7
psf.so:m68k_op_bset_8_s_pi
psf.so:m68k_op_bset_8_s_pi7
psf.so:m68k_op_bsr_16
psf.so:m68k_op_bsr_32
psf.so:m68k_op_bsr_8
psf.so:m68k_op_btst_32_r_d
psf.so:m68k_op_btst_32_s_d
psf.so:m68k_op_btst_8_r_ai
psf.so:m68k_op_btst_8_r_al
psf.so:m68k_op_btst_8_r_aw
psf.so:m68k_op_btst_8_r_di
psf.so:m68k_op_btst_8_r_i
psf.so:m68k_op_btst_8_r_ix
psf.so:m68k_op_btst_8_r_pcdi
psf.so:m68k_op_btst_8_r_pcix
psf.so:m68k_op_btst_8_r_pd
psf.so:m68k_op_btst_8_r_pd7
psf.so:m68k_op_btst_8_r_pi
psf.so:m68k_op_btst_8_r_pi7
psf.so:m68k_op_btst_8_s_ai
psf.so:m68k_op_btst_8_s_al
psf.so:m68k_op_btst_8_s_aw
psf.so:m68k_op_btst_8_s_di
psf.so:m68k_op_btst_8_s_ix
psf.so:m68k_op_btst_8_s_pcdi
psf.so:m68k_op_btst_8_s_pcix
psf.so:m68k_op_btst_8_s_pd
psf.so:m68k_op_btst_8_s_pd7
psf.so:m68k_op_btst_8_s_pi
psf.so:m68k_op_btst_8_s_pi7
psf.so:m68k_op_bvc_16
psf.so:m68k_op_bvc_32
psf.so:m68k_op_bvc_8
psf.so:m68k_op_bvs_16
psf.so:m68k_op_bvs_32
psf.so:m68k_op_bvs_8
psf.so:m68k_op_callm_32_ai
psf.so:m68k_op_callm_32_al
psf.so:m68k_op_callm_32_aw
psf.so:m68k_op_callm_32_di
psf.so:m68k_op_callm_32_ix
psf.so:m68k_op_callm_32_pcdi
psf.so:m68k_op_callm_32_pcix
psf.so:m68k_op_cas2_16
psf.so:m68k_op_cas2_32
psf.so:m68k_op_cas_16_ai
psf.so:m68k_op_cas_16_al
psf.so:m68k_op_cas_16_aw
psf.so:m68k_op_cas_16_di
psf.so:m68k_op_cas_16_ix
psf.so:m68k_op_cas_16_pd
psf.so:m68k_op_cas_16_pi
psf.so:m68k_op_cas_32_ai
psf.so:m68k_op_cas_32_al
psf.so:m68k_op_cas_32_aw
psf.so:m68k_op_cas_32_di
psf.so:m68k_op_cas_32_ix
psf.so:m68k_op_cas_32_pd
psf.so:m68k_op_cas_32_pi
psf.so:m68k_op_cas_8_ai
psf.so:m68k_op_cas_8_al
psf.so:m68k_op_cas_8_aw
psf.so:m68k_op_cas_8_di
psf.so:m68k_op_cas_8_ix
psf.so:m68k_op_cas_8_pd
psf.so:m68k_op_cas_8_pd7
psf.so:m68k_op_cas_8_pi
psf.so:m68k_op_cas_8_pi7
psf.so:m68k_op_chk2cmp2_16_ai
psf.so:m68k_op_chk2cmp2_16_al
psf.so:m68k_op_chk2cmp2_16_aw
psf.so:m68k_op_chk2cmp2_16_di
psf.so:m68k_op_chk2cmp2_16_ix
psf.so:m68k_op_chk2cmp2_16_pcdi
psf.so:m68k_op_chk2cmp2_16_pcix
psf.so:m68k_op_chk2cmp2_32_ai
psf.so:m68k_op_chk2cmp2_32_al
psf.so:m68k_op_chk2cmp2_32_aw
psf.so:m68k_op_chk2cmp2_32_di
psf.so:m68k_op_chk2cmp2_32_ix
psf.so:m68k_op_chk2cmp2_32_pcdi
psf.so:m68k_op_chk2cmp2_32_pcix
psf.so:m68k_op_chk2cmp2_8_ai
psf.so:m68k_op_chk2cmp2_8_al
psf.so:m68k_op_chk2cmp2_8_aw
psf.so:m68k_op_chk2cmp2_8_di
psf.so:m68k_op_chk2cmp2_8_ix
psf.so:m68k_op_chk2cmp2_8_pcdi
psf.so:m68k_op_chk2cmp2_8_pcix
psf.so:m68k_op_chk_16_ai
psf.so:m68k_op_chk_16_al
psf.so:m68k_op_chk_16_aw
psf.so:m68k_op_chk_16_d
psf.so:m68k_op_chk_16_di
psf.so:m68k_op_chk_16_i
psf.so:m68k_op_chk_16_ix
psf.so:m68k_op_chk_16_pcdi
psf.so:m68k_op_chk_16_pcix
psf.so:m68k_op_chk_16_pd
psf.so:m68k_op_chk_16_pi
psf.so:m68k_op_chk_32_ai
psf.so:m68k_op_chk_32_al
psf.so:m68k_op_chk_32_aw
psf.so:m68k_op_chk_32_d
psf.so:m68k_op_chk_32_di
psf.so:m68k_op_chk_32_i
psf.so:m68k_op_chk_32_ix
psf.so:m68k_op_chk_32_pcdi
psf.so:m68k_op_chk_32_pcix
psf.so:m68k_op_chk_32_pd
psf.so:m68k_op_chk_32_pi
psf.so:m68k_op_clr_16_ai
psf.so:m68k_op_clr_16_al
psf.so:m68k_op_clr_16_aw
psf.so:m68k_op_clr_16_d
psf.so:m68k_op_clr_16_di
psf.so:m68k_op_clr_16_ix
psf.so:m68k_op_clr_16_pd
psf.so:m68k_op_clr_16_pi
psf.so:m68k_op_clr_32_ai
psf.so:m68k_op_clr_32_al
psf.so:m68k_op_clr_32_aw
psf.so:m68k_op_clr_32_d
psf.so:m68k_op_clr_32_di
psf.so:m68k_op_clr_32_ix
psf.so:m68k_op_clr_32_pd
psf.so:m68k_op_clr_32_pi
psf.so:m68k_op_clr_8_ai
psf.so:m68k_op_clr_8_al
psf.so:m68k_op_clr_8_aw
psf.so:m68k_op_clr_8_d
psf.so:m68k_op_clr_8_di
psf.so:m68k_op_clr_8_ix
psf.so:m68k_op_clr_8_pd
psf.so:m68k_op_clr_8_pd7
psf.so:m68k_op_clr_8_pi
psf.so:m68k_op_clr_8_pi7
psf.so:m68k_op_cmp_16_a
psf.so:m68k_op_cmp_16_ai
psf.so:m68k_op_cmp_16_al
psf.so:m68k_op_cmp_16_aw
psf.so:m68k_op_cmp_16_d
psf.so:m68k_op_cmp_16_di
psf.so:m68k_op_cmp_16_i
psf.so:m68k_op_cmp_16_ix
psf.so:m68k_op_cmp_16_pcdi
psf.so:m68k_op_cmp_16_pcix
psf.so:m68k_op_cmp_16_pd
psf.so:m68k_op_cmp_16_pi
psf.so:m68k_op_cmp_32_a
psf.so:m68k_op_cmp_32_ai
psf.so:m68k_op_cmp_32_al
psf.so:m68k_op_cmp_32_aw
psf.so:m68k_op_cmp_32_d
psf.so:m68k_op_cmp_32_di
psf.so:m68k_op_cmp_32_i
psf.so:m68k_op_cmp_32_ix
psf.so:m68k_op_cmp_32_pcdi
psf.so:m68k_op_cmp_32_pcix
psf.so:m68k_op_cmp_32_pd
psf.so:m68k_op_cmp_32_pi
psf.so:m68k_op_cmp_8_ai
psf.so:m68k_op_cmp_8_al
psf.so:m68k_op_cmp_8_aw
psf.so:m68k_op_cmp_8_d
psf.so:m68k_op_cmp_8_di
psf.so:m68k_op_cmp_8_i
psf.so:m68k_op_cmp_8_ix
psf.so:m68k_op_cmp_8_pcdi
psf.so:m68k_op_cmp_8_pcix
psf.so:m68k_op_cmp_8_pd
psf.so:m68k_op_cmp_8_pd7
psf.so:m68k_op_cmp_8_pi
psf.so:m68k_op_cmp_8_pi7
psf.so:m68k_op_cmpa_16_a
psf.so:m68k_op_cmpa_16_ai
psf.so:m68k_op_cmpa_16_al
psf.so:m68k_op_cmpa_16_aw
psf.so:m68k_op_cmpa_16_d
psf.so:m68k_op_cmpa_16_di
psf.so:m68k_op_cmpa_16_i
psf.so:m68k_op_cmpa_16_ix
psf.so:m68k_op_cmpa_16_pcdi
psf.so:m68k_op_cmpa_16_pcix
psf.so:m68k_op_cmpa_16_pd
psf.so:m68k_op_cmpa_16_pi
psf.so:m68k_op_cmpa_32_a
psf.so:m68k_op_cmpa_32_ai
psf.so:m68k_op_cmpa_32_al
psf.so:m68k_op_cmpa_32_aw
psf.so:m68k_op_cmpa_32_d
psf.so:m68k_op_cmpa_32_di
psf.so:m68k_op_cmpa_32_i
psf.so:m68k_op_cmpa_32_ix
psf.so:m68k_op_cmpa_32_pcdi
psf.so:m68k_op_cmpa_32_pcix
psf.so:m68k_op_cmpa_32_pd
psf.so:m68k_op_cmpa_32_pi
psf.so:m68k_op_cmpi_16_ai
psf.so:m68k_op_cmpi_16_al
psf.so:m68k_op_cmpi_16_aw
psf.so:m68k_op_cmpi_16_d
psf.so:m68k_op_cmpi_16_di
psf.so:m68k_op_cmpi_16_ix
psf.so:m68k_op_cmpi_16_pcdi
psf.so:m68k_op_cmpi_16_pcix
psf.so:m68k_op_cmpi_16_pd
psf.so:m68k_op_cmpi_16_pi
psf.so:m68k_op_cmpi_32_ai
psf.so:m68k_op_cmpi_32_al
psf.so:m68k_op_cmpi_32_aw
psf.so:m68k_op_cmpi_32_d
psf.so:m68k_op_cmpi_32_di
psf.so:m68k_op_cmpi_32_ix
psf.so:m68k_op_cmpi_32_pcdi
psf.so:m68k_op_cmpi_32_pcix
psf.so:m68k_op_cmpi_32_pd
psf.so:m68k_op_cmpi_32_pi
psf.so:m68k_op_cmpi_8_ai
psf.so:m68k_op_cmpi_8_al
psf.so:m68k_op_cmpi_8_aw
psf.so:m68k_op_cmpi_8_d
psf.so:m68k_op_cmpi_8_di
psf.so:m68k_op_cmpi_8_ix
psf.so:m68k_op_cmpi_8_pcdi
psf.so:m68k_op_cmpi_8_pcix
psf.so:m68k_op_cmpi_8_pd
psf.so:m68k_op_cmpi_8_pd7
psf.so:m68k_op_cmpi_8_pi
psf.so:m68k_op_cmpi_8_pi7
psf.so:m68k_op_cmpm_16
psf.so:m68k_op_cmpm_32
psf.so:m68k_op_cmpm_8
psf.so:m68k_op_cmpm_8_ax7
psf.so:m68k_op_cmpm_8_axy7
psf.so:m68k_op_cmpm_8_ay7
psf.so:m68k_op_cpbcc_32
psf.so:m68k_op_cpdbcc_32
psf.so:m68k_op_cpgen_32
psf.so:m68k_op_cpscc_32
psf.so:m68k_op_cptrapcc_32
psf.so:m68k_op_dbcc_16
psf.so:m68k_op_dbcs_16
psf.so:m68k_op_dbeq_16
psf.so:m68k_op_dbf_16
psf.so:m68k_op_dbge_16
psf.so:m68k_op_dbgt_16
psf.so:m68k_op_dbhi_16
psf.so:m68k_op_dble_16
psf.so:m68k_op_dbls_16
psf.so:m68k_op_dblt_16
psf.so:m68k_op_dbmi_16
psf.so:m68k_op_dbne_16
psf.so:m68k_op_dbpl_16
psf.so:m68k_op_dbt_16
psf.so:m68k_op_dbvc_16
psf.so:m68k_op_dbvs_16
psf.so:m68k_op_divl_32_ai
psf.so:m68k_op_divl_32_al
psf.so:m68k_op_divl_32_aw
psf.so:m68k_op_divl_32_d
psf.so:m68k_op_divl_32_di
psf.so:m68k_op_divl_32_i
psf.so:m68k_op_divl_32_ix
psf.so:m68k_op_divl_32_pcdi
psf.so:m68k_op_divl_32_pcix
psf.so:m68k_op_divl_32_pd
psf.so:m68k_op_divl_32_pi
psf.so:m68k_op_divs_16_ai
psf.so:m68k_op_divs_16_al
psf.so:m68k_op_divs_16_aw
psf.so:m68k_op_divs_16_d
psf.so:m68k_op_divs_16_di
psf.so:m68k_op_divs_16_i
psf.so:m68k_op_divs_16_ix
psf.so:m68k_op_divs_16_pcdi
psf.so:m68k_op_divs_16_pcix
psf.so:m68k_op_divs_16_pd
psf.so:m68k_op_divs_16_pi
psf.so:m68k_op_divu_16_ai
psf.so:m68k_op_divu_16_al
psf.so:m68k_op_divu_16_aw
psf.so:m68k_op_divu_16_d
psf.so:m68k_op_divu_16_di
psf.so:m68k_op_divu_16_i
psf.so:m68k_op_divu_16_ix
psf.so:m68k_op_divu_16_pcdi
psf.so:m68k_op_divu_16_pcix
psf.so:m68k_op_divu_16_pd
psf.so:m68k_op_divu_16_pi
psf.so:m68k_op_eor_16_ai
psf.so:m68k_op_eor_16_al
psf.so:m68k_op_eor_16_aw
psf.so:m68k_op_eor_16_d
psf.so:m68k_op_eor_16_di
psf.so:m68k_op_eor_16_ix
psf.so:m68k_op_eor_16_pd
psf.so:m68k_op_eor_16_pi
psf.so:m68k_op_eor_32_ai
psf.so:m68k_op_eor_32_al
psf.so:m68k_op_eor_32_aw
psf.so:m68k_op_eor_32_d
psf.so:m68k_op_eor_32_di
psf.so:m68k_op_eor_32_ix
psf.so:m68k_op_eor_32_pd
psf.so:m68k_op_eor_32_pi
psf.so:m68k_op_eor_8_ai
psf.so:m68k_op_eor_8_al
psf.so:m68k_op_eor_8_aw
psf.so:m68k_op_eor_8_d
psf.so:m68k_op_eor_8_di
psf.so:m68k_op_eor_8_ix
psf.so:m68k_op_eor_8_pd
psf.so:m68k_op_eor_8_pd7
psf.so:m68k_op_eor_8_pi
psf.so:m68k_op_eor_8_pi7
psf.so:m68k_op_eori_16_ai
psf.so:m68k_op_eori_16_al
psf.so:m68k_op_eori_16_aw
psf.so:m68k_op_eori_16_d
psf.so:m68k_op_eori_16_di
psf.so:m68k_op_eori_16_ix
psf.so:m68k_op_eori_16_pd
psf.so:m68k_op_eori_16_pi
psf.so:m68k_op_eori_16_toc
psf.so:m68k_op_eori_16_tos
psf.so:m68k_op_eori_32_ai
psf.so:m68k_op_eori_32_al
psf.so:m68k_op_eori_32_aw
psf.so:m68k_op_eori_32_d
psf.so:m68k_op_eori_32_di
psf.so:m68k_op_eori_32_ix
psf.so:m68k_op_eori_32_pd
psf.so:m68k_op_eori_32_pi
psf.so:m68k_op_eori_8_ai
psf.so:m68k_op_eori_8_al
psf.so:m68k_op_eori_8_aw
psf.so:m68k_op_eori_8_d
psf.so:m68k_op_eori_8_di
psf.so:m68k_op_eori_8_ix
psf.so:m68k_op_eori_8_pd
psf.so:m68k_op_eori_8_pd7
psf.so:m68k_op_eori_8_pi
psf.so:m68k_op_eori_8_pi7
psf.so:m68k_op_exg_32_aa
psf.so:m68k_op_exg_32_da
psf.so:m68k_op_exg_32_dd
psf.so:m68k_op_ext_16
psf.so:m68k_op_ext_32
psf.so:m68k_op_extb_32
psf.so:m68k_op_illegal
psf.so:m68k_op_jmp_32_ai
psf.so:m68k_op_jmp_32_al
psf.so:m68k_op_jmp_32_aw
psf.so:m68k_op_jmp_32_di
psf.so:m68k_op_jmp_32_ix
psf.so:m68k_op_jmp_32_pcdi
psf.so:m68k_op_jmp_32_pcix
psf.so:m68k_op_jsr_32_ai
psf.so:m68k_op_jsr_32_al
psf.so:m68k_op_jsr_32_aw
psf.so:m68k_op_jsr_32_di
psf.so:m68k_op_jsr_32_ix
psf.so:m68k_op_jsr_32_pcdi
psf.so:m68k_op_jsr_32_pcix
psf.so:m68k_op_lea_32_ai
psf.so:m68k_op_lea_32_al
psf.so:m68k_op_lea_32_aw
psf.so:m68k_op_lea_32_di
psf.so:m68k_op_lea_32_ix
psf.so:m68k_op_lea_32_pcdi
psf.so:m68k_op_lea_32_pcix
psf.so:m68k_op_link_16
psf.so:m68k_op_link_16_a7
psf.so:m68k_op_link_32
psf.so:m68k_op_link_32_a7
psf.so:m68k_op_lsl_16_ai
psf.so:m68k_op_lsl_16_al
psf.so:m68k_op_lsl_16_aw
psf.so:m68k_op_lsl_16_di
psf.so:m68k_op_lsl_16_ix
psf.so:m68k_op_lsl_16_pd
psf.so:m68k_op_lsl_16_pi
psf.so:m68k_op_lsl_16_r
psf.so:m68k_op_lsl_16_s
psf.so:m68k_op_lsl_32_r
psf.so:m68k_op_lsl_32_s
psf.so:m68k_op_lsl_8_r
psf.so:m68k_op_lsl_8_s
psf.so:m68k_op_lsr_16_ai
psf.so:m68k_op_lsr_16_al
psf.so:m68k_op_lsr_16_aw
psf.so:m68k_op_lsr_16_di
psf.so:m68k_op_lsr_16_ix
psf.so:m68k_op_lsr_16_pd
psf.so:m68k_op_lsr_16_pi
psf.so:m68k_op_lsr_16_r
psf.so:m68k_op_lsr_16_s
psf.so:m68k_op_lsr_32_r
psf.so:m68k_op_lsr_32_s
psf.so:m68k_op_lsr_8_r
psf.so:m68k_op_lsr_8_s
psf.so:m68k_op_move_16_ai_a
psf.so:m68k_op_move_16_ai_ai
psf.so:m68k_op_move_16_ai_al
psf.so:m68k_op_move_16_ai_aw
psf.so:m68k_op_move_16_ai_d
psf.so:m68k_op_move_16_ai_di
psf.so:m68k_op_move_16_ai_i
psf.so:m68k_op_move_16_ai_ix
psf.so:m68k_op_move_16_ai_pcdi
psf.so:m68k_op_move_16_ai_pcix
psf.so:m68k_op_move_16_ai_pd
psf.so:m68k_op_move_16_ai_pi
psf.so:m68k_op_move_16_al_a
psf.so:m68k_op_move_16_al_ai
psf.so:m68k_op_move_16_al_al
psf.so:m68k_op_move_16_al_aw
psf.so:m68k_op_move_16_al_d
psf.so:m68k_op_move_16_al_di
psf.so:m68k_op_move_16_al_i
psf.so:m68k_op_move_16_al_ix
psf.so:m68k_op_move_16_al_pcdi
psf.so:m68k_op_move_16_al_pcix
psf.so:m68k_op_move_16_al_pd
psf.so:m68k_op_move_16_al_pi
psf.so:m68k_op_move_16_aw_a
psf.so:m68k_op_move_16_aw_ai
psf.so:m68k_op_move_16_aw_al
psf.so:m68k_op_move_16_aw_aw
psf.so:m68k_op_move_16_aw_d
psf.so:m68k_op_move_16_aw_di
psf.so:m68k_op_move_16_aw_i
psf.so:m68k_op_move_16_aw_ix
psf.so:m68k_op_move_16_aw_pcdi
psf.so:m68k_op_move_16_aw_pcix
psf.so:m68k_op_move_16_aw_pd
psf.so:m68k_op_move_16_aw_pi
psf.so:m68k_op_move_16_d_a
psf.so:m68k_op_move_16_d_ai
psf.so:m68k_op_move_16_d_al
psf.so:m68k_op_move_16_d_aw
psf.so:m68k_op_move_16_d_d
psf.so:m68k_op_move_16_d_di
psf.so:m68k_op_move_16_d_i
psf.so:m68k_op_move_16_d_ix
psf.so:m68k_op_move_16_d_pcdi
psf.so:m68k_op_move_16_d_pcix
psf.so:m68k_op_move_16_d_pd
psf.so:m68k_op_move_16_d_pi
psf.so:m68k_op_move_16_di_a
psf.so:m68k_op_move_16_di_ai
psf.so:m68k_op_move_16_di_al
psf.so:m68k_op_move_16_di_aw
psf.so:m68k_op_move_16_di_d
psf.so:m68k_op_move_16_di_di
psf.so:m68k_op_move_16_di_i
psf.so:m68k_op_move_16_di_ix
psf.so:m68k_op_move_16_di_pcdi
psf.so:m68k_op_move_16_di_pcix
psf.so:m68k_op_move_16_di_pd
psf.so:m68k_op_move_16_di_pi
psf.so:m68k_op_move_16_frc_ai
psf.so:m68k_op_move_16_frc_al
psf.so:m68k_op_move_16_frc_aw
psf.so:m68k_op_move_16_frc_d
psf.so:m68k_op_move_16_frc_di
psf.so:m68k_op_move_16_frc_ix
psf.so:m68k_op_move_16_frc_pd
psf.so:m68k_op_move_16_frc_pi
psf.so:m68k_op_move_16_frs_ai
psf.so:m68k_op_move_16_frs_al
psf.so:m68k_op_move_16_frs_aw
psf.so:m68k_op_move_16_frs_d
psf.so:m68k_op_move_16_frs_di
psf.so:m68k_op_move_16_frs_ix
psf.so:m68k_op_move_16_frs_pd
psf.so:m68k_op_move_16_frs_pi
psf.so:m68k_op_move_16_ix_a
psf.so:m68k_op_move_16_ix_ai
psf.so:m68k_op_move_16_ix_al
psf.so:m68k_op_move_16_ix_aw
psf.so:m68k_op_move_16_ix_d
psf.so:m68k_op_move_16_ix_di
psf.so:m68k_op_move_16_ix_i
psf.so:m68k_op_move_16_ix_ix
psf.so:m68k_op_move_16_ix_pcdi
psf.so:m68k_op_move_16_ix_pcix
psf.so:m68k_op_move_16_ix_pd
psf.so:m68k_op_move_16_ix_pi
psf.so:m68k_op_move_16_pd_a
psf.so:m68k_op_move_16_pd_ai
psf.so:m68k_op_move_16_pd_al
psf.so:m68k_op_move_16_pd_aw
psf.so:m68k_op_move_16_pd_d
psf.so:m68k_op_move_16_pd_di
psf.so:m68k_op_move_16_pd_i
psf.so:m68k_op_move_16_pd_ix
psf.so:m68k_op_move_16_pd_pcdi
psf.so:m68k_op_move_16_pd_pcix
psf.so:m68k_op_move_16_pd_pd
psf.so:m68k_op_move_16_pd_pi
psf.so:m68k_op_move_16_pi_a
psf.so:m68k_op_move_16_pi_ai
psf.so:m68k_op_move_16_pi_al
psf.so:m68k_op_move_16_pi_aw
psf.so:m68k_op_move_16_pi_d
psf.so:m68k_op_move_16_pi_di
psf.so:m68k_op_move_16_pi_i
psf.so:m68k_op_move_16_pi_ix
psf.so:m68k_op_move_16_pi_pcdi
psf.so:m68k_op_move_16_pi_pcix
psf.so:m68k_op_move_16_pi_pd
psf.so:m68k_op_move_16_pi_pi
psf.so:m68k_op_move_16_toc_ai
psf.so:m68k_op_move_16_toc_al
psf.so:m68k_op_move_16_toc_aw
psf.so:m68k_op_move_16_toc_d
psf.so:m68k_op_move_16_toc_di
psf.so:m68k_op_move_16_toc_i
psf.so:m68k_op_move_16_toc_ix
psf.so:m68k_op_move_16_toc_pcdi
psf.so:m68k_op_move_16_toc_pcix
psf.so:m68k_op_move_16_toc_pd
psf.so:m68k_op_move_16_toc_pi
psf.so:m68k_op_move_16_tos_ai
psf.so:m68k_op_move_16_tos_al
psf.so:m68k_op_move_16_tos_aw
psf.so:m68k_op_move_16_tos_d
psf.so:m68k_op_move_16_tos_di
psf.so:m68k_op_move_16_tos_i
psf.so:m68k_op_move_16_tos_ix
psf.so:m68k_op_move_16_tos_pcdi
psf.so:m68k_op_move_16_tos_pcix
psf.so:m68k_op_move_16_tos_pd
psf.so:m68k_op_move_16_tos_pi
psf.so:m68k_op_move_32_ai_a
psf.so:m68k_op_move_32_ai_ai
psf.so:m68k_op_move_32_ai_al
psf.so:m68k_op_move_32_ai_aw
psf.so:m68k_op_move_32_ai_d
psf.so:m68k_op_move_32_ai_di
psf.so:m68k_op_move_32_ai_i
psf.so:m68k_op_move_32_ai_ix
psf.so:m68k_op_move_32_ai_pcdi
psf.so:m68k_op_move_32_ai_pcix
psf.so:m68k_op_move_32_ai_pd
psf.so:m68k_op_move_32_ai_pi
psf.so:m68k_op_move_32_al_a
psf.so:m68k_op_move_32_al_ai
psf.so:m68k_op_move_32_al_al
psf.so:m68k_op_move_32_al_aw
psf.so:m68k_op_move_32_al_d
psf.so:m68k_op_move_32_al_di
psf.so:m68k_op_move_32_al_i
psf.so:m68k_op_move_32_al_ix
psf.so:m68k_op_move_32_al_pcdi
psf.so:m68k_op_move_32_al_pcix
psf.so:m68k_op_move_32_al_pd
psf.so:m68k_op_move_32_al_pi
psf.so:m68k_op_move_32_aw_a
psf.so:m68k_op_move_32_aw_ai
psf.so:m68k_op_move_32_aw_al
psf.so:m68k_op_move_32_aw_aw
psf.so:m68k_op_move_32_aw_d
psf.so:m68k_op_move_32_aw_di
psf.so:m68k_op_move_32_aw_i
psf.so:m68k_op_move_32_aw_ix
psf.so:m68k_op_move_32_aw_pcdi
psf.so:m68k_op_move_32_aw_pcix
psf.so:m68k_op_move_32_aw_pd
psf.so:m68k_op_move_32_aw_pi
psf.so:m68k_op_move_32_d_a
psf.so:m68k_op_move_32_d_ai
psf.so:m68k_op_move_32_d_al
psf.so:m68k_op_move_32_d_aw
psf.so:m68k_op_move_32_d_d
psf.so:m68k_op_move_32_d_di
psf.so:m68k_op_move_32_d_i
psf.so:m68k_op_move_32_d_ix
psf.so:m68k_op_move_32_d_pcdi
psf.so:m68k_op_move_32_d_pcix
psf.so:m68k_op_move_32_d_pd
psf.so:m68k_op_move_32_d_pi
psf.so:m68k_op_move_32_di_a
psf.so:m68k_op_move_32_di_ai
psf.so:m68k_op_move_32_di_al
psf.so:m68k_op_move_32_di_aw
psf.so:m68k_op_move_32_di_d
psf.so:m68k_op_move_32_di_di
psf.so:m68k_op_move_32_di_i
psf.so:m68k_op_move_32_di_ix
psf.so:m68k_op_move_32_di_pcdi
psf.so:m68k_op_move_32_di_pcix
psf.so:m68k_op_move_32_di_pd
psf.so:m68k_op_move_32_di_pi
psf.so:m68k_op_move_32_fru
psf.so:m68k_op_move_32_ix_a
psf.so:m68k_op_move_32_ix_ai
psf.so:m68k_op_move_32_ix_al
psf.so:m68k_op_move_32_ix_aw
psf.so:m68k_op_move_32_ix_d
psf.so:m68k_op_move_32_ix_di
psf.so:m68k_op_move_32_ix_i
psf.so:m68k_op_move_32_ix_ix
psf.so:m68k_op_move_32_ix_pcdi
psf.so:m68k_op_move_32_ix_pcix
psf.so:m68k_op_move_32_ix_pd
psf.so:m68k_op_move_32_ix_pi
psf.so:m68k_op_move_32_pd_a
psf.so:m68k_op_move_32_pd_ai
psf.so:m68k_op_move_32_pd_al
psf.so:m68k_op_move_32_pd_aw
psf.so:m68k_op_move_32_pd_d
psf.so:m68k_op_move_32_pd_di
psf.so:m68k_op_move_32_pd_i
psf.so:m68k_op_move_32_pd_ix
psf.so:m68k_op_move_32_pd_pcdi
psf.so:m68k_op_move_32_pd_pcix
psf.so:m68k_op_move_32_pd_pd
psf.so:m68k_op_move_32_pd_pi
psf.so:m68k_op_move_32_pi_a
psf.so:m68k_op_move_32_pi_ai
psf.so:m68k_op_move_32_pi_al
psf.so:m68k_op_move_32_pi_aw
psf.so:m68k_op_move_32_pi_d
psf.so:m68k_op_move_32_pi_di
psf.so:m68k_op_move_32_pi_i
psf.so:m68k_op_move_32_pi_ix
psf.so:m68k_op_move_32_pi_pcdi
psf.so:m68k_op_move_32_pi_pcix
psf.so:m68k_op_move_32_pi_pd
psf.so:m68k_op_move_32_pi_pi
psf.so:m68k_op_move_32_tou
psf.so:m68k_op_move_8_ai_ai
psf.so:m68k_op_move_8_ai_al
psf.so:m68k_op_move_8_ai_aw
psf.so:m68k_op_move_8_ai_d
psf.so:m68k_op_move_8_ai_di
psf.so:m68k_op_move_8_ai_i
psf.so:m68k_op_move_8_ai_ix
psf.so:m68k_op_move_8_ai_pcdi
psf.so:m68k_op_move_8_ai_pcix
psf.so:m68k_op_move_8_ai_pd
psf.so:m68k_op_move_8_ai_pd7
psf.so:m68k_op_move_8_ai_pi
psf.so:m68k_op_move_8_ai_pi7
psf.so:m68k_op_move_8_al_ai
psf.so:m68k_op_move_8_al_al
psf.so:m68k_op_move_8_al_aw
psf.so:m68k_op_move_8_al_d
psf.so:m68k_op_move_8_al_di
psf.so:m68k_op_move_8_al_i
psf.so:m68k_op_move_8_al_ix
psf.so:m68k_op_move_8_al_pcdi
psf.so:m68k_op_move_8_al_pcix
psf.so:m68k_op_move_8_al_pd
psf.so:m68k_op_move_8_al_pd7
psf.so:m68k_op_move_8_al_pi
psf.so:m68k_op_move_8_al_pi7
psf.so:m68k_op_move_8_aw_ai
psf.so:m68k_op_move_8_aw_al
psf.so:m68k_op_move_8_aw_aw
psf.so:m68k_op_move_8_aw_d
psf.so:m68k_op_move_8_aw_di
psf.so:m68k_op_move_8_aw_i
psf.so:m68k_op_move_8_aw_ix
psf.so:m68k_op_move_8_aw_pcdi
psf.so:m68k_op_move_8_aw_pcix
psf.so:m68k_op_move_8_aw_pd
psf.so:m68k_op_move_8_aw_pd7
psf.so:m68k_op_move_8_aw_pi
psf.so:m68k_op_move_8_aw_pi7
psf.so:m68k_op_move_8_d_ai
psf.so:m68k_op_move_8_d_al
psf.so:m68k_op_move_8_d_aw
psf.so:m68k_op_move_8_d_d
psf.so:m68k_op_move_8_d_di
psf.so:m68k_op_move_8_d_i
psf.so:m68k_op_move_8_d_ix
psf.so:m68k_op_move_8_d_pcdi
psf.so:m68k_op_move_8_d_pcix
psf.so:m68k_op_move_8_d_pd
psf.so:m68k_op_move_8_d_pd7
psf.so:m68k_op_move_8_d_pi
psf.so:m68k_op_move_8_d_pi7
psf.so:m68k_op_move_8_di_ai
psf.so:m68k_op_move_8_di_al
psf.so:m68k_op_move_8_di_aw
psf.so:m68k_op_move_8_di_d
psf.so:m68k_op_move_8_di_di
psf.so:m68k_op_move_8_di_i
psf.so:m68k_op_move_8_di_ix
psf.so:m68k_op_move_8_di_pcdi
psf.so:m68k_op_move_8_di_pcix
psf.so:m68k_op_move_8_di_pd
psf.so:m68k_op_move_8_di_pd7
psf.so:m68k_op_move_8_di_pi
psf.so:m68k_op_move_8_di_pi7
psf.so:m68k_op_move_8_ix_ai
psf.so:m68k_op_move_8_ix_al
psf.so:m68k_op_move_8_ix_aw
psf.so:m68k_op_move_8_ix_d
psf.so:m68k_op_move_8_ix_di
psf.so:m68k_op_move_8_ix_i
psf.so:m68k_op_move_8_ix_ix
psf.so:m68k_op_move_8_ix_pcdi
psf.so:m68k_op_move_8_ix_pcix
psf.so:m68k_op_move_8_ix_pd
psf.so:m68k_op_move_8_ix_pd7
psf.so:m68k_op_move_8_ix_pi
psf.so:m68k_op_move_8_ix_pi7
psf.so:m68k_op_move_8_pd7_ai
psf.so:m68k_op_move_8_pd7_al
psf.so:m68k_op_move_8_pd7_aw
psf.so:m68k_op_move_8_pd7_d
psf.so:m68k_op_move_8_pd7_di
psf.so:m68k_op_move_8_pd7_i
psf.so:m68k_op_move_8_pd7_ix
psf.so:m68k_op_move_8_pd7_pcdi
psf.so:m68k_op_move_8_pd7_pcix
psf.so:m68k_op_move_8_pd7_pd
psf.so:m68k_op_move_8_pd7_pd7
psf.so:m68k_op_move_8_pd7_pi
psf.so:m68k_op_move_8_pd7_pi7
psf.so:m68k_op_move_8_pd_ai
psf.so:m68k_op_move_8_pd_al
psf.so:m68k_op_move_8_pd_aw
psf.so:m68k_op_move_8_pd_d
psf.so:m68k_op_move_8_pd_di
psf.so:m68k_op_move_8_pd_i
psf.so:m68k_op_move_8_pd_ix
psf.so:m68k_op_move_8_pd_pcdi
psf.so:m68k_op_move_8_pd_pcix
psf.so:m68k_op_move_8_pd_pd
psf.so:m68k_op_move_8_pd_pd7
psf.so:m68k_op_move_8_pd_pi
psf.so:m68k_op_move_8_pd_pi7
psf.so:m68k_op_move_8_pi7_ai
psf.so:m68k_op_move_8_pi7_al
psf.so:m68k_op_move_8_pi7_aw
psf.so:m68k_op_move_8_pi7_d
psf.so:m68k_op_move_8_pi7_di
psf.so:m68k_op_move_8_pi7_i
psf.so:m68k_op_move_8_pi7_ix
psf.so:m68k_op_move_8_pi7_pcdi
psf.so:m68k_op_move_8_pi7_pcix
psf.so:m68k_op_move_8_pi7_pd
psf.so:m68k_op_move_8_pi7_pd7
psf.so:m68k_op_move_8_pi7_pi
psf.so:m68k_op_move_8_pi7_pi7
psf.so:m68k_op_move_8_pi_ai
psf.so:m68k_op_move_8_pi_al
psf.so:m68k_op_move_8_pi_aw
psf.so:m68k_op_move_8_pi_d
psf.so:m68k_op_move_8_pi_di
psf.so:m68k_op_move_8_pi_i
psf.so:m68k_op_move_8_pi_ix
psf.so:m68k_op_move_8_pi_pcdi
psf.so:m68k_op_move_8_pi_pcix
psf.so:m68k_op_move_8_pi_pd
psf.so:m68k_op_move_8_pi_pd7
psf.so:m68k_op_move_8_pi_pi
psf.so:m68k_op_move_8_pi_pi7
psf.so:m68k_op_movea_16_a
psf.so:m68k_op_movea_16_ai
psf.so:m68k_op_movea_16_al
psf.so:m68k_op_movea_16_aw
psf.so:m68k_op_movea_16_d
psf.so:m68k_op_movea_16_di
psf.so:m68k_op_movea_16_i
psf.so:m68k_op_movea_16_ix
psf.so:m68k_op_movea_16_pcdi
psf.so:m68k_op_movea_16_pcix
psf.so:m68k_op_movea_16_pd
psf.so:m68k_op_movea_16_pi
psf.so:m68k_op_movea_32_a
psf.so:m68k_op_movea_32_ai
psf.so:m68k_op_movea_32_al
psf.so:m68k_op_movea_32_aw
psf.so:m68k_op_movea_32_d
psf.so:m68k_op_movea_32_di
psf.so:m68k_op_movea_32_i
psf.so:m68k_op_movea_32_ix
psf.so:m68k_op_movea_32_pcdi
psf.so:m68k_op_movea_32_pcix
psf.so:m68k_op_movea_32_pd
psf.so:m68k_op_movea_32_pi
psf.so:m68k_op_movec_32_cr
psf.so:m68k_op_movec_32_rc
psf.so:m68k_op_movem_16_er_ai
psf.so:m68k_op_movem_16_er_al
psf.so:m68k_op_movem_16_er_aw
psf.so:m68k_op_movem_16_er_di
psf.so:m68k_op_movem_16_er_ix
psf.so:m68k_op_movem_16_er_pcdi
psf.so:m68k_op_movem_16_er_pcix
psf.so:m68k_op_movem_16_er_pi
psf.so:m68k_op_movem_16_re_ai
psf.so:m68k_op_movem_16_re_al
psf.so:m68k_op_movem_16_re_aw
psf.so:m68k_op_movem_16_re_di
psf.so:m68k_op_movem_16_re_ix
psf.so:m68k_op_movem_16_re_pd
psf.so:m68k_op_movem_32_er_ai
psf.so:m68k_op_movem_32_er_al
psf.so:m68k_op_movem_32_er_aw
psf.so:m68k_op_movem_32_er_di
psf.so:m68k_op_movem_32_er_ix
psf.so:m68k_op_movem_32_er_pcdi
psf.so:m68k_op_movem_32_er_pcix
psf.so:m68k_op_movem_32_er_pi
psf.so:m68k_op_movem_32_re_ai
psf.so:m68k_op_movem_32_re_al
psf.so:m68k_op_movem_32_re_aw
psf.so:m68k_op_movem_32_re_di
psf.so:m68k_op_movem_32_re_ix
psf.so:m68k_op_movem_32_re_pd
psf.so:m68k_op_movep_16_er
psf.so:m68k_op_movep_16_re
psf.so:m68k_op_movep_32_er
psf.so:m68k_op_movep_32_re
psf.so:m68k_op_moveq_32
psf.so:m68k_op_moves_16_ai
psf.so:m68k_op_moves_16_al
psf.so:m68k_op_moves_16_aw
psf.so:m68k_op_moves_16_di
psf.so:m68k_op_moves_16_ix
psf.so:m68k_op_moves_16_pd
psf.so:m68k_op_moves_16_pi
psf.so:m68k_op_moves_32_ai
psf.so:m68k_op_moves_32_al
psf.so:m68k_op_moves_32_aw
psf.so:m68k_op_moves_32_di
psf.so:m68k_op_moves_32_ix
psf.so:m68k_op_moves_32_pd
psf.so:m68k_op_moves_32_pi
psf.so:m68k_op_moves_8_ai
psf.so:m68k_op_moves_8_al
psf.so:m68k_op_moves_8_aw
psf.so:m68k_op_moves_8_di
psf.so:m68k_op_moves_8_ix
psf.so:m68k_op_moves_8_pd
psf.so:m68k_op_moves_8_pd7
psf.so:m68k_op_moves_8_pi
psf.so:m68k_op_moves_8_pi7
psf.so:m68k_op_mull_32_ai
psf.so:m68k_op_mull_32_al
psf.so:m68k_op_mull_32_aw
psf.so:m68k_op_mull_32_d
psf.so:m68k_op_mull_32_di
psf.so:m68k_op_mull_32_i
psf.so:m68k_op_mull_32_ix
psf.so:m68k_op_mull_32_pcdi
psf.so:m68k_op_mull_32_pcix
psf.so:m68k_op_mull_32_pd
psf.so:m68k_op_mull_32_pi
psf.so:m68k_op_muls_16_ai
psf.so:m68k_op_muls_16_al
psf.so:m68k_op_muls_16_aw
psf.so:m68k_op_muls_16_d
psf.so:m68k_op_muls_16_di
psf.so:m68k_op_muls_16_i
psf.so:m68k_op_muls_16_ix
psf.so:m68k_op_muls_16_pcdi
psf.so:m68k_op_muls_16_pcix
psf.so:m68k_op_muls_16_pd
psf.so:m68k_op_muls_16_pi
psf.so:m68k_op_mulu_16_ai
psf.so:m68k_op_mulu_16_al
psf.so:m68k_op_mulu_16_aw
psf.so:m68k_op_mulu_16_d
psf.so:m68k_op_mulu_16_di
psf.so:m68k_op_mulu_16_i
psf.so:m68k_op_mulu_16_ix
psf.so:m68k_op_mulu_16_pcdi
psf.so:m68k_op_mulu_16_pcix
psf.so:m68k_op_mulu_16_pd
psf.so:m68k_op_mulu_16_pi
psf.so:m68k_op_nbcd_8_ai
psf.so:m68k_op_nbcd_8_al
psf.so:m68k_op_nbcd_8_aw
psf.so:m68k_op_nbcd_8_d
psf.so:m68k_op_nbcd_8_di
psf.so:m68k_op_nbcd_8_ix
psf.so:m68k_op_nbcd_8_pd
psf.so:m68k_op_nbcd_8_pd7
psf.so:m68k_op_nbcd_8_pi
psf.so:m68k_op_nbcd_8_pi7
psf.so:m68k_op_neg_16_ai
psf.so:m68k_op_neg_16_al
psf.so:m68k_op_neg_16_aw
psf.so:m68k_op_neg_16_d
psf.so:m68k_op_neg_16_di
psf.so:m68k_op_neg_16_ix
psf.so:m68k_op_neg_16_pd
psf.so:m68k_op_neg_16_pi
psf.so:m68k_op_neg_32_ai
psf.so:m68k_op_neg_32_al
psf.so:m68k_op_neg_32_aw
psf.so:m68k_op_neg_32_d
psf.so:m68k_op_neg_32_di
psf.so:m68k_op_neg_32_ix
psf.so:m68k_op_neg_32_pd
psf.so:m68k_op_neg_32_pi
psf.so:m68k_op_neg_8_ai
psf.so:m68k_op_neg_8_al
psf.so:m68k_op_neg_8_aw
psf.so:m68k_op_neg_8_d
psf.so:m68k_op_neg_8_di
psf.so:m68k_op_neg_8_ix
psf.so:m68k_op_neg_8_pd
psf.so:m68k_op_neg_8_pd7
psf.so:m68k_op_neg_8_pi
psf.so:m68k_op_neg_8_pi7
psf.so:m68k_op_negx_16_ai
psf.so:m68k_op_negx_16_al
psf.so:m68k_op_negx_16_aw
psf.so:m68k_op_negx_16_d
psf.so:m68k_op_negx_16_di
psf.so:m68k_op_negx_16_ix
psf.so:m68k_op_negx_16_pd
psf.so:m68k_op_negx_16_pi
psf.so:m68k_op_negx_32_ai
psf.so:m68k_op_negx_32_al
psf.so:m68k_op_negx_32_aw
psf.so:m68k_op_negx_32_d
psf.so:m68k_op_negx_32_di
psf.so:m68k_op_negx_32_ix
psf.so:m68k_op_negx_32_pd
psf.so:m68k_op_negx_32_pi
psf.so:m68k_op_negx_8_ai
psf.so:m68k_op_negx_8_al
psf.so:m68k_op_negx_8_aw
psf.so:m68k_op_negx_8_d
psf.so:m68k_op_negx_8_di
psf.so:m68k_op_negx_8_ix
psf.so:m68k_op_negx_8_pd
psf.so:m68k_op_negx_8_pd7
psf.so:m68k_op_negx_8_pi
psf.so:m68k_op_negx_8_pi7
psf.so:m68k_op_nop
psf.so:m68k_op_not_16_ai
psf.so:m68k_op_not_16_al
psf.so:m68k_op_not_16_aw
psf.so:m68k_op_not_16_d
psf.so:m68k_op_not_16_di
psf.so:m68k_op_not_16_ix
psf.so:m68k_op_not_16_pd
psf.so:m68k_op_not_16_pi
psf.so:m68k_op_not_32_ai
psf.so:m68k_op_not_32_al
psf.so:m68k_op_not_32_aw
psf.so:m68k_op_not_32_d
psf.so:m68k_op_not_32_di
psf.so:m68k_op_not_32_ix
psf.so:m68k_op_not_32_pd
psf.so:m68k_op_not_32_pi
psf.so:m68k_op_not_8_ai
psf.so:m68k_op_not_8_al
psf.so:m68k_op_not_8_aw
psf.so:m68k_op_not_8_d
psf.so:m68k_op_not_8_di
psf.so:m68k_op_not_8_ix
psf.so:m68k_op_not_8_pd
psf.so:m68k_op_not_8_pd7
psf.so:m68k_op_not_8_pi
psf.so:m68k_op_not_8_pi7
psf.so:m68k_op_or_16_er_ai
psf.so:m68k_op_or_16_er_al
psf.so:m68k_op_or_16_er_aw
psf.so:m68k_op_or_16_er_d
psf.so:m68k_op_or_16_er_di
psf.so:m68k_op_or_16_er_i
psf.so:m68k_op_or_16_er_ix
psf.so:m68k_op_or_16_er_pcdi
psf.so:m68k_op_or_16_er_pcix
psf.so:m68k_op_or_16_er_pd
psf.so:m68k_op_or_16_er_pi
psf.so:m68k_op_or_16_re_ai
psf.so:m68k_op_or_16_re_al
psf.so:m68k_op_or_16_re_aw
psf.so:m68k_op_or_16_re_di
psf.so:m68k_op_or_16_re_ix
psf.so:m68k_op_or_16_re_pd
psf.so:m68k_op_or_16_re_pi
psf.so:m68k_op_or_32_er_ai
psf.so:m68k_op_or_32_er_al
psf.so:m68k_op_or_32_er_aw
psf.so:m68k_op_or_32_er_d
psf.so:m68k_op_or_32_er_di
psf.so:m68k_op_or_32_er_i
psf.so:m68k_op_or_32_er_ix
psf.so:m68k_op_or_32_er_pcdi
psf.so:m68k_op_or_32_er_pcix
psf.so:m68k_op_or_32_er_pd
psf.so:m68k_op_or_32_er_pi
psf.so:m68k_op_or_32_re_ai
psf.so:m68k_op_or_32_re_al
psf.so:m68k_op_or_32_re_aw
psf.so:m68k_op_or_32_re_di
psf.so:m68k_op_or_32_re_ix
psf.so:m68k_op_or_32_re_pd
psf.so:m68k_op_or_32_re_pi
psf.so:m68k_op_or_8_er_ai
psf.so:m68k_op_or_8_er_al
psf.so:m68k_op_or_8_er_aw
psf.so:m68k_op_or_8_er_d
psf.so:m68k_op_or_8_er_di
psf.so:m68k_op_or_8_er_i
psf.so:m68k_op_or_8_er_ix
psf.so:m68k_op_or_8_er_pcdi
psf.so:m68k_op_or_8_er_pcix
psf.so:m68k_op_or_8_er_pd
psf.so:m68k_op_or_8_er_pd7
psf.so:m68k_op_or_8_er_pi
psf.so:m68k_op_or_8_er_pi7
psf.so:m68k_op_or_8_re_ai
psf.so:m68k_op_or_8_re_al
psf.so:m68k_op_or_8_re_aw
psf.so:m68k_op_or_8_re_di
psf.so:m68k_op_or_8_re_ix
psf.so:m68k_op_or_8_re_pd
psf.so:m68k_op_or_8_re_pd7
psf.so:m68k_op_or_8_re_pi
psf.so:m68k_op_or_8_re_pi7
psf.so:m68k_op_ori_16_ai
psf.so:m68k_op_ori_16_al
psf.so:m68k_op_ori_16_aw
psf.so:m68k_op_ori_16_d
psf.so:m68k_op_ori_16_di
psf.so:m68k_op_ori_16_ix
psf.so:m68k_op_ori_16_pd
psf.so:m68k_op_ori_16_pi
psf.so:m68k_op_ori_16_toc
psf.so:m68k_op_ori_16_tos
psf.so:m68k_op_ori_32_ai
psf.so:m68k_op_ori_32_al
psf.so:m68k_op_ori_32_aw
psf.so:m68k_op_ori_32_d
psf.so:m68k_op_ori_32_di
psf.so:m68k_op_ori_32_ix
psf.so:m68k_op_ori_32_pd
psf.so:m68k_op_ori_32_pi
psf.so:m68k_op_ori_8_ai
psf.so:m68k_op_ori_8_al
psf.so:m68k_op_ori_8_aw
psf.so:m68k_op_ori_8_d
psf.so:m68k_op_ori_8_di
psf.so:m68k_op_ori_8_ix
psf.so:m68k_op_ori_8_pd
psf.so:m68k_op_ori_8_pd7
psf.so:m68k_op_ori_8_pi
psf.so:m68k_op_ori_8_pi7
psf.so:m68k_op_pack_16_mm
psf.so:m68k_op_pack_16_mm_ax7
psf.so:m68k_op_pack_16_mm_axy7
psf.so:m68k_op_pack_16_mm_ay7
psf.so:m68k_op_pack_16_rr
psf.so:m68k_op_pea_32_ai
psf.so:m68k_op_pea_32_al
psf.so:m68k_op_pea_32_aw
psf.so:m68k_op_pea_32_di
psf.so:m68k_op_pea_32_ix
psf.so:m68k_op_pea_32_pcdi
psf.so:m68k_op_pea_32_pcix
psf.so:m68k_op_reset
psf.so:m68k_op_rol_16_ai
psf.so:m68k_op_rol_16_al
psf.so:m68k_op_rol_16_aw
psf.so:m68k_op_rol_16_di
psf.so:m68k_op_rol_16_ix
psf.so:m68k_op_rol_16_pd
psf.so:m68k_op_rol_16_pi
psf.so:m68k_op_rol_16_r
psf.so:m68k_op_rol_16_s
psf.so:m68k_op_rol_32_r
psf.so:m68k_op_rol_32_s
psf.so:m68k_op_rol_8_r
psf.so:m68k_op_rol_8_s
psf.so:m68k_op_ror_16_ai
psf.so:m68k_op_ror_16_al
psf.so:m68k_op_ror_16_aw
psf.so:m68k_op_ror_16_di
psf.so:m68k_op_ror_16_ix
psf.so:m68k_op_ror_16_pd
psf.so:m68k_op_ror_16_pi
psf.so:m68k_op_ror_16_r
psf.so:m68k_op_ror_16_s
psf.so:m68k_op_ror_32_r
psf.so:m68k_op_ror_32_s
psf.so:m68k_op_ror_8_r
psf.so:m68k_op_ror_8_s
psf.so:m68k_op_roxl_16_ai
psf.so:m68k_op_roxl_16_al
psf.so:m68k_op_roxl_16_aw
psf.so:m68k_op_roxl_16_di
psf.so:m68k_op_roxl_16_ix
psf.so:m68k_op_roxl_16_pd
psf.so:m68k_op_roxl_16_pi
psf.so:m68k_op_roxl_16_r
psf.so:m68k_op_roxl_16_s
psf.so:m68k_op_roxl_32_r
psf.so:m68k_op_roxl_32_s
psf.so:m68k_op_roxl_8_r
psf.so:m68k_op_roxl_8_s
psf.so:m68k_op_roxr_16_ai
psf.so:m68k_op_roxr_16_al
psf.so:m68k_op_roxr_16_aw
psf.so:m68k_op_roxr_16_di
psf.so:m68k_op_roxr_16_ix
psf.so:m68k_op_roxr_16_pd
psf.so:m68k_op_roxr_16_pi
psf.so:m68k_op_roxr_16_r
psf.so:m68k_op_roxr_16_s
psf.so:m68k_op_roxr_32_r
psf.so:m68k_op_roxr_32_s
psf.so:m68k_op_roxr_8_r
psf.so:m68k_op_roxr_8_s
psf.so:m68k_op_rtd_32
psf.so:m68k_op_rte_32
psf.so:m68k_op_rtm_32
psf.so:m68k_op_rtr_32
psf.so:m68k_op_rts_32
psf.so:m68k_op_sbcd_8_mm
psf.so:m68k_op_sbcd_8_mm_ax7
psf.so:m68k_op_sbcd_8_mm_axy7
psf.so:m68k_op_sbcd_8_mm_ay7
psf.so:m68k_op_sbcd_8_rr
psf.so:m68k_op_scc_8_ai
psf.so:m68k_op_scc_8_al
psf.so:m68k_op_scc_8_aw
psf.so:m68k_op_scc_8_d
psf.so:m68k_op_scc_8_di
psf.so:m68k_op_scc_8_ix
psf.so:m68k_op_scc_8_pd
psf.so:m68k_op_scc_8_pd7
psf.so:m68k_op_scc_8_pi
psf.so:m68k_op_scc_8_pi7
psf.so:m68k_op_scs_8_ai
psf.so:m68k_op_scs_8_al
psf.so:m68k_op_scs_8_aw
psf.so:m68k_op_scs_8_d
psf.so:m68k_op_scs_8_di
psf.so:m68k_op_scs_8_ix
psf.so:m68k_op_scs_8_pd
psf.so:m68k_op_scs_8_pd7
psf.so:m68k_op_scs_8_pi
psf.so:m68k_op_scs_8_pi7
psf.so:m68k_op_seq_8_ai
psf.so:m68k_op_seq_8_al
psf.so:m68k_op_seq_8_aw
psf.so:m68k_op_seq_8_d
psf.so:m68k_op_seq_8_di
psf.so:m68k_op_seq_8_ix
psf.so:m68k_op_seq_8_pd
psf.so:m68k_op_seq_8_pd7
psf.so:m68k_op_seq_8_pi
psf.so:m68k_op_seq_8_pi7
psf.so:m68k_op_sf_8_ai
psf.so:m68k_op_sf_8_al
psf.so:m68k_op_sf_8_aw
psf.so:m68k_op_sf_8_d
psf.so:m68k_op_sf_8_di
psf.so:m68k_op_sf_8_ix
psf.so:m68k_op_sf_8_pd
psf.so:m68k_op_sf_8_pd7
psf.so:m68k_op_sf_8_pi
psf.so:m68k_op_sf_8_pi7
psf.so:m68k_op_sge_8_ai
psf.so:m68k_op_sge_8_al
psf.so:m68k_op_sge_8_aw
psf.so:m68k_op_sge_8_d
psf.so:m68k_op_sge_8_di
psf.so:m68k_op_sge_8_ix
psf.so:m68k_op_sge_8_pd
psf.so:m68k_op_sge_8_pd7
psf.so:m68k_op_sge_8_pi
psf.so:m68k_op_sge_8_pi7
psf.so:m68k_op_sgt_8_ai
psf.so:m68k_op_sgt_8_al
psf.so:m68k_op_sgt_8_aw
psf.so:m68k_op_sgt_8_d
psf.so:m68k_op_sgt_8_di
psf.so:m68k_op_sgt_8_ix
psf.so:m68k_op_sgt_8_pd
psf.so:m68k_op_sgt_8_pd7
psf.so:m68k_op_sgt_8_pi
psf.so:m68k_op_sgt_8_pi7
psf.so:m68k_op_shi_8_ai
psf.so:m68k_op_shi_8_al
psf.so:m68k_op_shi_8_aw
psf.so:m68k_op_shi_8_d
psf.so:m68k_op_shi_8_di
psf.so:m68k_op_shi_8_ix
psf.so:m68k_op_shi_8_pd
psf.so:m68k_op_shi_8_pd7
psf.so:m68k_op_shi_8_pi
psf.so:m68k_op_shi_8_pi7
psf.so:m68k_op_sle_8_ai
psf.so:m68k_op_sle_8_al
psf.so:m68k_op_sle_8_aw
psf.so:m68k_op_sle_8_d
psf.so:m68k_op_sle_8_di
psf.so:m68k_op_sle_8_ix
psf.so:m68k_op_sle_8_pd
psf.so:m68k_op_sle_8_pd7
psf.so:m68k_op_sle_8_pi
psf.so:m68k_op_sle_8_pi7
psf.so:m68k_op_sls_8_ai
psf.so:m68k_op_sls_8_al
psf.so:m68k_op_sls_8_aw
psf.so:m68k_op_sls_8_d
psf.so:m68k_op_sls_8_di
psf.so:m68k_op_sls_8_ix
psf.so:m68k_op_sls_8_pd
psf.so:m68k_op_sls_8_pd7
psf.so:m68k_op_sls_8_pi
psf.so:m68k_op_sls_8_pi7
psf.so:m68k_op_slt_8_ai
psf.so:m68k_op_slt_8_al
psf.so:m68k_op_slt_8_aw
psf.so:m68k_op_slt_8_d
psf.so:m68k_op_slt_8_di
psf.so:m68k_op_slt_8_ix
psf.so:m68k_op_slt_8_pd
psf.so:m68k_op_slt_8_pd7
psf.so:m68k_op_slt_8_pi
psf.so:m68k_op_slt_8_pi7
psf.so:m68k_op_smi_8_ai
psf.so:m68k_op_smi_8_al
psf.so:m68k_op_smi_8_aw
psf.so:m68k_op_smi_8_d
psf.so:m68k_op_smi_8_di
psf.so:m68k_op_smi_8_ix
psf.so:m68k_op_smi_8_pd
psf.so:m68k_op_smi_8_pd7
psf.so:m68k_op_smi_8_pi
psf.so:m68k_op_smi_8_pi7
psf.so:m68k_op_sne_8_ai
psf.so:m68k_op_sne_8_al
psf.so:m68k_op_sne_8_aw
psf.so:m68k_op_sne_8_d
psf.so:m68k_op_sne_8_di
psf.so:m68k_op_sne_8_ix
psf.so:m68k_op_sne_8_pd
psf.so:m68k_op_sne_8_pd7
psf.so:m68k_op_sne_8_pi
psf.so:m68k_op_sne_8_pi7
psf.so:m68k_op_spl_8_ai
psf.so:m68k_op_spl_8_al
psf.so:m68k_op_spl_8_aw
psf.so:m68k_op_spl_8_d
psf.so:m68k_op_spl_8_di
psf.so:m68k_op_spl_8_ix
psf.so:m68k_op_spl_8_pd
psf.so:m68k_op_spl_8_pd7
psf.so:m68k_op_spl_8_pi
psf.so:m68k_op_spl_8_pi7
psf.so:m68k_op_st_8_ai
psf.so:m68k_op_st_8_al
psf.so:m68k_op_st_8_aw
psf.so:m68k_op_st_8_d
psf.so:m68k_op_st_8_di
psf.so:m68k_op_st_8_ix
psf.so:m68k_op_st_8_pd
psf.so:m68k_op_st_8_pd7
psf.so:m68k_op_st_8_pi
psf.so:m68k_op_st_8_pi7
psf.so:m68k_op_stop
psf.so:m68k_op_sub_16_er_a
psf.so:m68k_op_sub_16_er_ai
psf.so:m68k_op_sub_16_er_al
psf.so:m68k_op_sub_16_er_aw
psf.so:m68k_op_sub_16_er_d
psf.so:m68k_op_sub_16_er_di
psf.so:m68k_op_sub_16_er_i
psf.so:m68k_op_sub_16_er_ix
psf.so:m68k_op_sub_16_er_pcdi
psf.so:m68k_op_sub_16_er_pcix
psf.so:m68k_op_sub_16_er_pd
psf.so:m68k_op_sub_16_er_pi
psf.so:m68k_op_sub_16_re_ai
psf.so:m68k_op_sub_16_re_al
psf.so:m68k_op_sub_16_re_aw
psf.so:m68k_op_sub_16_re_di
psf.so:m68k_op_sub_16_re_ix
psf.so:m68k_op_sub_16_re_pd
psf.so:m68k_op_sub_16_re_pi
psf.so:m68k_op_sub_32_er_a
psf.so:m68k_op_sub_32_er_ai
psf.so:m68k_op_sub_32_er_al
psf.so:m68k_op_sub_32_er_aw
psf.so:m68k_op_sub_32_er_d
psf.so:m68k_op_sub_32_er_di
psf.so:m68k_op_sub_32_er_i
psf.so:m68k_op_sub_32_er_ix
psf.so:m68k_op_sub_32_er_pcdi
psf.so:m68k_op_sub_32_er_pcix
psf.so:m68k_op_sub_32_er_pd
psf.so:m68k_op_sub_32_er_pi
psf.so:m68k_op_sub_32_re_ai
psf.so:m68k_op_sub_32_re_al
psf.so:m68k_op_sub_32_re_aw
psf.so:m68k_op_sub_32_re_di
psf.so:m68k_op_sub_32_re_ix
psf.so:m68k_op_sub_32_re_pd
psf.so:m68k_op_sub_32_re_pi
psf.so:m68k_op_sub_8_er_ai
psf.so:m68k_op_sub_8_er_al
psf.so:m68k_op_sub_8_er_aw
psf.so:m68k_op_sub_8_er_d
psf.so:m68k_op_sub_8_er_di
psf.so:m68k_op_sub_8_er_i
psf.so:m68k_op_sub_8_er_ix
psf.so:m68k_op_sub_8_er_pcdi
psf.so:m68k_op_sub_8_er_pcix
psf.so:m68k_op_sub_8_er_pd
psf.so:m68k_op_sub_8_er_pd7
psf.so:m68k_op_sub_8_er_pi
psf.so:m68k_op_sub_8_er_pi7
psf.so:m68k_op_sub_8_re_ai
psf.so:m68k_op_sub_8_re_al
psf.so:m68k_op_sub_8_re_aw
psf.so:m68k_op_sub_8_re_di
psf.so:m68k_op_sub_8_re_ix
psf.so:m68k_op_sub_8_re_pd
psf.so:m68k_op_sub_8_re_pd7
psf.so:m68k_op_sub_8_re_pi
psf.so:m68k_op_sub_8_re_pi7
psf.so:m68k_op_suba_16_a
psf.so:m68k_op_suba_16_ai
psf.so:m68k_op_suba_16_al
psf.so:m68k_op_suba_16_aw
psf.so:m68k_op_suba_16_d
psf.so:m68k_op_suba_16_di
psf.so:m68k_op_suba_16_i
psf.so:m68k_op_suba_16_ix
psf.so:m68k_op_suba_16_pcdi
psf.so:m68k_op_suba_16_pcix
psf.so:m68k_op_suba_16_pd
psf.so:m68k_op_suba_16_pi
psf.so:m68k_op_suba_32_a
psf.so:m68k_op_suba_32_ai
psf.so:m68k_op_suba_32_al
psf.so:m68k_op_suba_32_aw
psf.so:m68k_op_suba_32_d
psf.so:m68k_op_suba_32_di
psf.so:m68k_op_suba_32_i
psf.so:m68k_op_suba_32_ix
psf.so:m68k_op_suba_32_pcdi
psf.so:m68k_op_suba_32_pcix
psf.so:m68k_op_suba_32_pd
psf.so:m68k_op_suba_32_pi
psf.so:m68k_op_subi_16_ai
psf.so:m68k_op_subi_16_al
psf.so:m68k_op_subi_16_aw
psf.so:m68k_op_subi_16_d
psf.so:m68k_op_subi_16_di
psf.so:m68k_op_subi_16_ix
psf.so:m68k_op_subi_16_pd
psf.so:m68k_op_subi_16_pi
psf.so:m68k_op_subi_32_ai
psf.so:m68k_op_subi_32_al
psf.so:m68k_op_subi_32_aw
psf.so:m68k_op_subi_32_d
psf.so:m68k_op_subi_32_di
psf.so:m68k_op_subi_32_ix
psf.so:m68k_op_subi_32_pd
psf.so:m68k_op_subi_32_pi
psf.so:m68k_op_subi_8_ai
psf.so:m68k_op_subi_8_al
psf.so:m68k_op_subi_8_aw
psf.so:m68k_op_subi_8_d
psf.so:m68k_op_subi_8_di
psf.so:m68k_op_subi_8_ix
psf.so:m68k_op_subi_8_pd
psf.so:m68k_op_subi_8_pd7
psf.so:m68k_op_subi_8_pi
psf.so:m68k_op_subi_8_pi7
psf.so:m68k_op_subq_16_a
psf.so:m68k_op_subq_16_ai
psf.so:m68k_op_subq_16_al
psf.so:m68k_op_subq_16_aw
psf.so:m68k_op_subq_16_d
psf.so:m68k_op_subq_16_di
psf.so:m68k_op_subq_16_ix
psf.so:m68k_op_subq_16_pd
psf.so:m68k_op_subq_16_pi
psf.so:m68k_op_subq_32_a
psf.so:m68k_op_subq_32_ai
psf.so:m68k_op_subq_32_al
psf.so:m68k_op_subq_32_aw
psf.so:m68k_op_subq_32_d
psf.so:m68k_op_subq_32_di
psf.so:m68k_op_subq_32_ix
psf.so:m68k_op_subq_32_pd
psf.so:m68k_op_subq_32_pi
psf.so:m68k_op_subq_8_ai
psf.so:m68k_op_subq_8_al
psf.so:m68k_op_subq_8_aw
psf.so:m68k_op_subq_8_d
psf.so:m68k_op_subq_8_di
psf.so:m68k_op_subq_8_ix
psf.so:m68k_op_subq_8_pd
psf.so:m68k_op_subq_8_pd7
psf.so:m68k_op_subq_8_pi
psf.so:m68k_op_subq_8_pi7
psf.so:m68k_op_subx_16_mm
psf.so:m68k_op_subx_16_rr
psf.so:m68k_op_subx_32_mm
psf.so:m68k_op_subx_32_rr
psf.so:m68k_op_subx_8_mm
psf.so:m68k_op_subx_8_mm_ax7
psf.so:m68k_op_subx_8_mm_axy7
psf.so:m68k_op_subx_8_mm_ay7
psf.so:m68k_op_subx_8_rr
psf.so:m68k_op_svc_8_ai
psf.so:m68k_op_svc_8_al
psf.so:m68k_op_svc_8_aw
psf.so:m68k_op_svc_8_d
psf.so:m68k_op_svc_8_di
psf.so:m68k_op_svc_8_ix
psf.so:m68k_op_svc_8_pd
psf.so:m68k_op_svc_8_pd7
psf.so:m68k_op_svc_8_pi
psf.so:m68k_op_svc_8_pi7
psf.so:m68k_op_svs_8_ai
psf.so:m68k_op_svs_8_al
psf.so:m68k_op_svs_8_aw
psf.so:m68k_op_svs_8_d
psf.so:m68k_op_svs_8_di
psf.so:m68k_op_svs_8_ix
psf.so:m68k_op_svs_8_pd
psf.so:m68k_op_svs_8_pd7
psf.so:m68k_op_svs_8_pi
psf.so:m68k_op_svs_8_pi7
psf.so:m68k_op_swap_32
psf.so:m68k_op_tas_8_ai
psf.so:m68k_op_tas_8_al
psf.so:m68k_op_tas_8_aw
psf.so:m68k_op_tas_8_d
psf.so:m68k_op_tas_8_di
psf.so:m68k_op_tas_8_ix
psf.so:m68k_op_tas_8_pd
psf.so:m68k_op_tas_8_pd7
psf.so:m68k_op_tas_8_pi
psf.so:m68k_op_tas_8_pi7
psf.so:m68k_op_trap
psf.so:m68k_op_trapcc
psf.so:m68k_op_trapcc_16
psf.so:m68k_op_trapcc_32
psf.so:m68k_op_trapcs
psf.so:m68k_op_trapcs_16
psf.so:m68k_op_trapcs_32
psf.so:m68k_op_trapeq
psf.so:m68k_op_trapeq_16
psf.so:m68k_op_trapeq_32
psf.so:m68k_op_trapf
psf.so:m68k_op_trapf_16
psf.so:m68k_op_trapf_32
psf.so:m68k_op_trapge
psf.so:m68k_op_trapge_16
psf.so:m68k_op_trapge_32
psf.so:m68k_op_trapgt
psf.so:m68k_op_trapgt_16
psf.so:m68k_op_trapgt_32
psf.so:m68k_op_traphi
psf.so:m68k_op_traphi_16
psf.so:m68k_op_traphi_32
psf.so:m68k_op_traple
psf.so:m68k_op_traple_16
psf.so:m68k_op_traple_32
psf.so:m68k_op_trapls
psf.so:m68k_op_trapls_16
psf.so:m68k_op_trapls_32
psf.so:m68k_op_traplt
psf.so:m68k_op_traplt_16
psf.so:m68k_op_traplt_32
psf.so:m68k_op_trapmi
psf.so:m68k_op_trapmi_16
psf.so:m68k_op_trapmi_32
psf.so:m68k_op_trapne
psf.so:m68k_op_trapne_16
psf.so:m68k_op_trapne_32
psf.so:m68k_op_trappl
psf.so:m68k_op_trappl_16
psf.so:m68k_op_trappl_32
psf.so:m68k_op_trapt
psf.so:m68k_op_trapt_16
psf.so:m68k_op_trapt_32
psf.so:m68k_op_trapv
psf.so:m68k_op_trapvc
psf.so:m68k_op_trapvc_16
psf.so:m68k_op_trapvc_32
psf.so:m68k_op_trapvs
psf.so:m68k_op_trapvs_16
psf.so:m68k_op_trapvs_32
psf.so:m68k_op_tst_16_a
psf.so:m68k_op_tst_16_ai
psf.so:m68k_op_tst_16_al
psf.so:m68k_op_tst_16_aw
psf.so:m68k_op_tst_16_d
psf.so:m68k_op_tst_16_di
psf.so:m68k_op_tst_16_i
psf.so:m68k_op_tst_16_ix
psf.so:m68k_op_tst_16_pcdi
psf.so:m68k_op_tst_16_pcix
psf.so:m68k_op_tst_16_pd
psf.so:m68k_op_tst_16_pi
psf.so:m68k_op_tst_32_a
psf.so:m68k_op_tst_32_ai
psf.so:m68k_op_tst_32_al
psf.so:m68k_op_tst_32_aw
psf.so:m68k_op_tst_32_d
psf.so:m68k_op_tst_32_di
psf.so:m68k_op_tst_32_i
psf.so:m68k_op_tst_32_ix
psf.so:m68k_op_tst_32_pcdi
psf.so:m68k_op_tst_32_pcix
psf.so:m68k_op_tst_32_pd
psf.so:m68k_op_tst_32_pi
psf.so:m68k_op_tst_8_ai
psf.so:m68k_op_tst_8_al
psf.so:m68k_op_tst_8_aw
psf.so:m68k_op_tst_8_d
psf.so:m68k_op_tst_8_di
psf.so:m68k_op_tst_8_i
psf.so:m68k_op_tst_8_ix
psf.so:m68k_op_tst_8_pcdi
psf.so:m68k_op_tst_8_pcix
psf.so:m68k_op_tst_8_pd
psf.so:m68k_op_tst_8_pd7
psf.so:m68k_op_tst_8_pi
psf.so:m68k_op_tst_8_pi7
psf.so:m68k_op_unlk_32
psf.so:m68k_op_unlk_32_a7
psf.so:m68k_op_unpk_16_mm
psf.so:m68k_op_unpk_16_mm_ax7
psf.so:m68k_op_unpk_16_mm_axy7
psf.so:m68k_op_unpk_16_mm_ay7
psf.so:m68k_op_unpk_16_rr
psf.so:m68k_pulse_halt
psf.so:m68k_pulse_reset
psf.so:m68k_read_memory_16
psf.so:m68k_read_memory_32
psf.so:m68k_read_memory_8
psf.so:m68k_set_bkpt_ack_callback
psf.so:m68k_set_cpu_type
psf.so:m68k_set_fc_callback
psf.so:m68k_set_instr_hook_callback
psf.so:m68k_set_int_ack_callback
psf.so:m68k_set_irq
psf.so:m68k_set_pc_changed_callback
psf.so:m68k_set_reg
psf.so:m68k_set_reset_instr_callback
psf.so:m68k_write_memory_16
psf.so:m68k_write_memory_32
psf.so:m68k_write_memory_8
psf.so:m68ki_build_opcode_table
psf.so:m68ki_cpu_names
psf.so:m68ki_cycles
psf.so:m68ki_ea_idx_cycle_table
psf.so:m68ki_exception_cycle_table
psf.so:m68ki_instruction_jump_table
psf.so:m68ki_shift_16_table
psf.so:m68ki_shift_32_table
psf.so:m68ki_shift_8_table
psf.so:memory_read
psf.so:memory_readop
psf.so:memory_readport
psf.so:memory_write
psf.so:memory_writeport
psf.so:mips_alloc
psf.so:mips_dasm
psf.so:mips_execute
psf.so:mips_exit
psf.so:mips_get_cause
psf.so:mips_get_ePC
psf.so:mips_get_icount
psf.so:mips_get_info
psf.so:mips_get_status
psf.so:mips_init
psf.so:mips_reset
psf.so:mips_set_icount
psf.so:mips_set_info
psf.so:mips_set_status
psf.so:mips_shorten_frame
psf.so:mips_stop
psf.so:program_read_byte_32le
psf.so:program_read_dword_32le
psf.so:program_read_word_32le
psf.so:program_write_byte_32le
psf.so:program_write_dword_32le
psf.so:program_write_word_32le
psf.so:ps2_hw_frame
psf.so:ps2_hw_slice
psf.so:ps2_update
psf.so:psf2_command
psf.so:psf2_fill_info
psf.so:psf2_gen
psf.so:psf2_get_loadaddr
psf.so:psf2_load_elf
psf.so:psf2_load_file
psf.so:psf2_set_loadaddr
psf.so:psf2_start
psf.so:psf2_stop
psf.so:psfTimeToMS
psf.so:psf_command
psf.so:psf_fill_info
psf.so:psf_gen
psf.so:psf_load
psf.so:psf_start
psf.so:psf_stop
psf.so:psx_bios_exception
psf.so:psx_bios_hle
psf.so:psx_hw_frame
psf.so:psx_hw_init
psf.so:psx_hw_read
psf.so:psx_hw_runcounters
psf.so:psx_hw_slice
psf.so:psx_hw_write
psf.so:psx_iop_call
psf.so:psx_irq_set
psf.so:psxcpu_get_info
psf.so:psxcpu_verbose
psf.so:qsf_command
psf.so:qsf_fill_info
psf.so:qsf_gen
psf.so:qsf_memory_read
psf.so:qsf_memory_readop
psf.so:qsf_memory_readport
psf.so:qsf_memory_write
psf.so:qsf_memory_writeport
psf.so:qsf_start
psf.so:qsf_stop
psf.so:qsound_cmd_w
psf.so:qsound_data_h_w
psf.so:qsound_data_l_w
psf.so:qsound_set_command
psf.so:qsound_sh_start
psf.so:qsound_sh_stop
psf.so:qsound_status_r
psf.so:qsound_update
psf.so:quant_mul
psf.so:sat_hw_free
psf.so:sat_hw_init
psf.so:setlength
psf.so:setlength2
psf.so:spu_command
psf.so:spu_fill_info
psf.so:spu_gen
psf.so:spu_start
psf.so:spu_stop
psf.so:ssf_command
psf.so:ssf_fill_info
psf.so:ssf_gen
psf.so:ssf_start
psf.so:ssf_stop
psf.so:z80_burn
psf.so:z80_dasm
psf.so:z80_execute
psf.so:z80_exit
psf.so:z80_free
psf.so:z80_get_context
psf.so:z80_get_cycle_table
psf.so:z80_get_reg
psf.so:z80_info
psf.so:z80_init
psf.so:z80_reset
psf.so:z80_set_context
psf.so:z80_set_cycle_table
psf.so:z80_set_irq_callback
psf.so:z80_set_irq_line
psf.so:z80_set_reg
pulse.so:deadbeef
pulse.so:pulse_load
rg_scanner.so:ebur128_add_frames_double
rg_scanner.so:ebur128_add_frames_float
rg_scanner.so:ebur128_add_frames_int
rg_scanner.so:ebur128_add_frames_short
rg_scanner.so:ebur128_change_parameters
rg_scanner.so:ebur128_destroy
rg_scanner.so:ebur128_get_version
rg_scanner.so:ebur128_init
rg_scanner.so:ebur128_loudness_global
rg_scanner.so:ebur128_loudness_global_multiple
rg_scanner.so:ebur128_loudness_momentary
rg_scanner.so:ebur128_loudness_range
rg_scanner.so:ebur128_loudness_range_multiple
rg_scanner.so:ebur128_loudness_shortterm
rg_scanner.so:ebur128_sample_peak
rg_scanner.so:ebur128_set_channel
rg_scanner.so:rg_apply
rg_scanner.so:rg_calc_track
rg_scanner.so:rg_remove
rg_scanner.so:rg_scan
rg_scanner.so:rg_scanner_load
shellexec.so:deadbeef
shellexec.so:shellexec_eval_command
shellexec.so:shellexec_load
shellexec.so:shx_action_add
shellexec.so:shx_action_free
shellexec.so:shx_action_remove
shellexec.so:shx_save_actions
shellexecui_gtk3.so:add_pixmap_directory
shellexecui_gtk3.so:create_edit_dlg
shellexecui_gtk3.so:create_pixbuf
shellexecui_gtk3.so:create_pixmap
shellexecui_gtk3.so:create_shellexec_conf_dialog
shellexecui_gtk3.so:create_shellexec_conf_edit_dialog
shellexecui_gtk3.so:deadbeef
shellexecui_gtk3.so:glade_set_atk_action_description
shellexecui_gtk3.so:gtk_combo_box_entry_new_text
shellexecui_gtk3.so:gtk_dialog_set_has_separator
shellexecui_gtk3.so:lookup_widget
shellexecui_gtk3.so:on_add_button_clicked
shellexecui_gtk3.so:on_edit_button_clicked
shellexecui_gtk3.so:on_edit_cancel_button_clicked
shellexecui_gtk3.so:on_edit_ok_button_clicked
shellexecui_gtk3.so:on_remove_button_clicked
shellexecui_gtk3.so:on_save_button_clicked
shellexecui_gtk3.so:on_shellexec_conf_dialog_destroy
shellexecui_gtk3.so:shellexecui_gtk3_load
shellexecui_gtk3.so:shxui_connect
sid.so:_ZN12ReSIDBuilder21ERR_FILTER_DEFINITIONE
sid.so:_ZN12ReSIDBuilder4lockEP6c64env12sid2_model_t
sid.so:_ZN12ReSIDBuilder6createEj
sid.so:_ZN12ReSIDBuilder6filterEPK12sid_filter_t
sid.so:_ZN12ReSIDBuilder6filterEb
sid.so:_ZN12ReSIDBuilder6removeEv
sid.so:_ZN12ReSIDBuilder6unlockEP6sidemu
sid.so:_ZN12ReSIDBuilder7creditsEv
sid.so:_ZN12ReSIDBuilder7devicesEb
sid.so:_ZN12ReSIDBuilder8samplingEj
sid.so:_ZN12ReSIDBuilderC1EPKc
sid.so:_ZN12ReSIDBuilderC2EPKc
sid.so:_ZN12ReSIDBuilderD0Ev
sid.so:_ZN12ReSIDBuilderD1Ev
sid.so:_ZN12ReSIDBuilderD2Ev
sid.so:_ZN12SidTuneTools13fileExtOfPathEPc
sid.so:_ZN12SidTuneTools14returnNextLineEPKc
sid.so:_ZN12SidTuneTools19fileNameWithoutPathEPc
sid.so:_ZN12SidTuneTools20copyStringValueToEOLEPKcPci
sid.so:_ZN12SidTuneTools26slashedFileNameWithoutPathEPc
sid.so:_ZN12SidTuneTools7readDecEPKciRi
sid.so:_ZN12SidTuneTools7readHexEPKciRi
sid.so:_ZN12SidTuneTools8myStrDupEPKc
sid.so:_ZN12SidTuneTools9skipToEquEPKciRi
sid.so:_ZN12__sidplay2__6Player10clockSpeedE12sid2_clock_tS1_b
sid.so:_ZN12__sidplay2__6Player10initialiseEv
sid.so:_ZN12__sidplay2__6Player10mixerResetEv
sid.so:_ZN12__sidplay2__6Player10sidSamplesEb
sid.so:_ZN12__sidplay2__6Player11TXT_PAL_CIAE
sid.so:_ZN12__sidplay2__6Player11TXT_PAL_VBIE
sid.so:_ZN12__sidplay2__6Player11environmentE10sid2_env_t
sid.so:_ZN12__sidplay2__6Player11fastForwardEj
sid.so:_ZN12__sidplay2__6Player12TXT_NTSC_CIAE
sid.so:_ZN12__sidplay2__6Player12TXT_NTSC_VBIE
sid.so:_ZN12__sidplay2__6Player12VIC_FREQ_PALE
sid.so:_ZN12__sidplay2__6Player13ERR_MEM_ALLOCE
sid.so:_ZN12__sidplay2__6Player13VIC_FREQ_NTSCE
sid.so:_ZN12__sidplay2__6Player13psidRelocAddrER11SidTuneInfoii
sid.so:_ZN12__sidplay2__6Player14CLOCK_FREQ_PALE
sid.so:_ZN12__sidplay2__6Player14envReadMemByteEt
sid.so:_ZN12__sidplay2__6Player14mileageCorrectEv
sid.so:_ZN12__sidplay2__6Player14monoOut8MonoInEPc
sid.so:_ZN12__sidplay2__6Player14psidDrvInstallER11SidTuneInfoR11sid2_info_t
sid.so:_ZN12__sidplay2__6Player14readMemByte_ioEt
sid.so:_ZN12__sidplay2__6Player15CLOCK_FREQ_NTSCE
sid.so:_ZN12__sidplay2__6Player15TXT_PAL_UNKNOWNE
sid.so:_ZN12__sidplay2__6Player15monoOut16MonoInEPc
sid.so:_ZN12__sidplay2__6Player16TXT_NTSC_UNKNOWNE
sid.so:_ZN12__sidplay2__6Player16monoOut8StereoInEPc
sid.so:_ZN12__sidplay2__6Player16stereoOut8MonoInEPc
sid.so:_ZN12__sidplay2__6Player17ERR_PSIDDRV_RELOCE
sid.so:_ZN12__sidplay2__6Player17TXT_PAL_VBI_FIXEDE
sid.so:_ZN12__sidplay2__6Player17monoOut16StereoInEPc
sid.so:_ZN12__sidplay2__6Player17monoOut8StereoRInEPc
sid.so:_ZN12__sidplay2__6Player17readMemByte_plainEt
sid.so:_ZN12__sidplay2__6Player17stereoOut16MonoInEPc
sid.so:_ZN12__sidplay2__6Player18TXT_NTSC_VBI_FIXEDE
sid.so:_ZN12__sidplay2__6Player18monoOut16StereoRInEPc
sid.so:_ZN12__sidplay2__6Player18readMemByte_playerEt
sid.so:_ZN12__sidplay2__6Player18stereoOut8StereoInEPc
sid.so:_ZN12__sidplay2__6Player18writeMemByte_plainEth
sid.so:_ZN12__sidplay2__6Player19stereoOut16StereoInEPc
sid.so:_ZN12__sidplay2__6Player20ERR_PSIDDRV_NO_SPACEE
sid.so:_ZN12__sidplay2__6Player20ERR_UNSUPPORTED_FREQE
sid.so:_ZN12__sidplay2__6Player20ERR_UNSUPPORTED_MODEE
sid.so:_ZN12__sidplay2__6Player20writeMemByte_playsidEth
sid.so:_ZN12__sidplay2__6Player20writeMemByte_sidplayEth
sid.so:_ZN12__sidplay2__6Player21readMemByte_sidplaybsEt
sid.so:_ZN12__sidplay2__6Player21readMemByte_sidplaytpEt
sid.so:_ZN12__sidplay2__6Player22ERR_CONF_WHILST_ACTIVEE
sid.so:_ZN12__sidplay2__6Player25ERR_UNSUPPORTED_PRECISIONE
sid.so:_ZN12__sidplay2__6Player4loadEP7SidTune
sid.so:_ZN12__sidplay2__6Player4playEPvj
sid.so:_ZN12__sidplay2__6Player4stopEv
sid.so:_ZN12__sidplay2__6Player5iomapEt
sid.so:_ZN12__sidplay2__6Player5mixerEv
sid.so:_ZN12__sidplay2__6Player5pauseEv
sid.so:_ZN12__sidplay2__6Player5resetEv
sid.so:_ZN12__sidplay2__6Player6TXT_NAE
sid.so:_ZN12__sidplay2__6Player6configERK13sid2_config_t
sid.so:_ZN12__sidplay2__6Player6creditE
sid.so:_ZN12__sidplay2__6Player7fakeIRQEv
sid.so:_ZN12__sidplay2__6Player8envResetEb
sid.so:_ZN12__sidplay2__6Player9sidCreateEP10sidbuilder12sid2_model_tS3_
sid.so:_ZN12__sidplay2__6PlayerC1Ev
sid.so:_ZN12__sidplay2__6PlayerC2Ev
sid.so:_ZN12__sidplay2__6PlayerD0Ev
sid.so:_ZN12__sidplay2__6PlayerD1Ev
sid.so:_ZN12__sidplay2__6PlayerD2Ev
sid.so:_ZN13Potentiometer7readPOTEv
sid.so:_ZN14EventScheduler5resetEv
sid.so:_ZN14EventScheduler6cancelEP5Event
sid.so:_ZN14EventScheduler8scheduleEP5Eventm
sid.so:_ZN14EventScheduler8timeWarpEv
sid.so:_ZN14EventSchedulerC1EPKc
sid.so:_ZN14EventSchedulerC2EPKc
sid.so:_ZN14ExternalFilter13enable_filterEb
sid.so:_ZN14ExternalFilter14set_chip_modelE10chip_model
sid.so:_ZN14ExternalFilter22set_sampling_parameterEd
sid.so:_ZN14ExternalFilter5resetEv
sid.so:_ZN14ExternalFilterC1Ev
sid.so:_ZN14ExternalFilterC2Ev
sid.so:_ZN17EnvelopeGenerator13sustain_levelE
sid.so:_ZN17EnvelopeGenerator16writeCONTROL_REGEj
sid.so:_ZN17EnvelopeGenerator17writeATTACK_DECAYEj
sid.so:_ZN17EnvelopeGenerator19rate_counter_periodE
sid.so:_ZN17EnvelopeGenerator20writeSUSTAIN_RELEASEEj
sid.so:_ZN17EnvelopeGenerator26exponential_counter_periodE
sid.so:_ZN17EnvelopeGenerator5resetEv
sid.so:_ZN17EnvelopeGenerator7readENVEv
sid.so:_ZN17EnvelopeGeneratorC1Ev
sid.so:_ZN17EnvelopeGeneratorC2Ev
sid.so:_ZN17WaveformGenerator10writePW_HIEj
sid.so:_ZN17WaveformGenerator10writePW_LOEj
sid.so:_ZN17WaveformGenerator12wave6581_PSTE
sid.so:_ZN17WaveformGenerator12wave6581_PS_E
sid.so:_ZN17WaveformGenerator12wave6581_P_TE
sid.so:_ZN17WaveformGenerator12wave6581__STE
sid.so:_ZN17WaveformGenerator12wave8580_PSTE
sid.so:_ZN17WaveformGenerator12wave8580_PS_E
sid.so:_ZN17WaveformGenerator12wave8580_P_TE
sid.so:_ZN17WaveformGenerator12wave8580__STE
sid.so:_ZN17WaveformGenerator12writeFREQ_HIEj
sid.so:_ZN17WaveformGenerator12writeFREQ_LOEj
sid.so:_ZN17WaveformGenerator14set_chip_modelE10chip_model
sid.so:_ZN17WaveformGenerator15set_sync_sourceEPS_
sid.so:_ZN17WaveformGenerator16writeCONTROL_REGEj
sid.so:_ZN17WaveformGenerator5resetEv
sid.so:_ZN17WaveformGenerator7readOSCEv
sid.so:_ZN17WaveformGeneratorC1Ev
sid.so:_ZN17WaveformGeneratorC2Ev
sid.so:_ZN3SID10fc_defaultERPA2_KiRi
sid.so:_ZN3SID10fc_plotterEv
sid.so:_ZN3SID10read_stateEv
sid.so:_ZN3SID11write_stateERKNS_5StateE
sid.so:_ZN3SID13enable_filterEb
sid.so:_ZN3SID14set_chip_modelE10chip_model
sid.so:_ZN3SID22enable_external_filterEb
sid.so:_ZN3SID23set_sampling_parametersEd15sampling_methoddd
sid.so:_ZN3SID25adjust_sampling_frequencyEd
sid.so:_ZN3SID2I0Ed
sid.so:_ZN3SID4muteEjb
sid.so:_ZN3SID4readEj
sid.so:_ZN3SID5FIR_NE
sid.so:_ZN3SID5StateC1Ev
sid.so:_ZN3SID5StateC2Ev
sid.so:_ZN3SID5clockERiPsii
sid.so:_ZN3SID5clockEi
sid.so:_ZN3SID5clockEv
sid.so:_ZN3SID5resetEv
sid.so:_ZN3SID5writeEjj
sid.so:_ZN3SID6outputEi
sid.so:_ZN3SID6outputEv
sid.so:_ZN3SID7FIR_RESE
sid.so:_ZN3SID9FIR_ORDERE
sid.so:_ZN3SID9FIR_SHIFTE
sid.so:_ZN3SIDC1Ev
sid.so:_ZN3SIDC2Ev
sid.so:_ZN4PP2010decompressEPKvjPPh
sid.so:_ZN4PP2012isCompressedEPKvj
sid.so:_ZN4PP2015checkEfficiencyEPKv
sid.so:_ZN4PP205PP_IDE
sid.so:_ZN4PP20C1Ev
sid.so:_ZN4PP20C2Ev
sid.so:_ZN4XSID12sampleOutputEv
sid.so:_ZN4XSID16sampleOffsetCalcEv
sid.so:_ZN4XSID16storeSidData0x18Eh
sid.so:_ZN4XSID18sampleConvertTableE
sid.so:_ZN4XSID4muteEb
sid.so:_ZN4XSID5eventEv
sid.so:_ZN4XSID5resetEh
sid.so:_ZN4XSID5writeEth
sid.so:_ZN4XSID6creditE
sid.so:_ZN4XSID8suppressEb
sid.so:_ZN4XSIDC2EP12EventContext
sid.so:_ZN5ReSID4gainEa
sid.so:_ZN5ReSID4lockEP6c64env
sid.so:_ZN5ReSID4readEh
sid.so:_ZN5ReSID5modelE12sid2_model_t
sid.so:_ZN5ReSID5resetEh
sid.so:_ZN5ReSID5voiceEhhb
sid.so:_ZN5ReSID5writeEhh
sid.so:_ZN5ReSID6filterEPK12sid_filter_t
sid.so:_ZN5ReSID6filterEb
sid.so:_ZN5ReSID6outputEh
sid.so:_ZN5ReSID8m_creditE
sid.so:_ZN5ReSID8samplingEj
sid.so:_ZN5ReSIDC1EP10sidbuilder
sid.so:_ZN5ReSIDC2EP10sidbuilder
sid.so:_ZN5ReSIDD0Ev
sid.so:_ZN5ReSIDD1Ev
sid.so:_ZN5ReSIDD2Ev
sid.so:_ZN5Voice14set_chip_modelE10chip_model
sid.so:_ZN5Voice15set_sync_sourceEPS_
sid.so:_ZN5Voice16writeCONTROL_REGEj
sid.so:_ZN5Voice4muteEb
sid.so:_ZN5Voice5resetEv
sid.so:_ZN5VoiceC1Ev
sid.so:_ZN5VoiceC2Ev
sid.so:_ZN6Filter10fc_defaultERPA2_KiRi
sid.so:_ZN6Filter10fc_plotterEv
sid.so:_ZN6Filter10writeFC_HIEj
sid.so:_ZN6Filter10writeFC_LOEj
sid.so:_ZN6Filter13enable_filterEb
sid.so:_ZN6Filter13writeMODE_VOLEj
sid.so:_ZN6Filter13writeRES_FILTEj
sid.so:_ZN6Filter14f0_points_6581E
sid.so:_ZN6Filter14f0_points_8580E
sid.so:_ZN6Filter14set_chip_modelE10chip_model
sid.so:_ZN6Filter5resetEv
sid.so:_ZN6Filter5set_QEv
sid.so:_ZN6Filter6set_w0Ev
sid.so:_ZN6FilterC1Ev
sid.so:_ZN6FilterC2Ev
sid.so:_ZN7MOS651010InitialiseEv
sid.so:_ZN7MOS651010triggerIRQEv
sid.so:_ZN7MOS651010triggerNMIEv
sid.so:_ZN7MOS651010triggerRSTEv
sid.so:_ZN7MOS651011FetchOpcodeEv
sid.so:_ZN7MOS651013illegal_instrEv
sid.so:_ZN7MOS651016interruptPendingEv
sid.so:_ZN7MOS65105resetEv
sid.so:_ZN7MOS65107creditsEPc
sid.so:_ZN7MOS65108clearIRQEv
sid.so:_ZN7MOS65109DumpStateEv
sid.so:_ZN7MOS65109NextInstrEv
sid.so:_ZN7MOS65109aecSignalEb
sid.so:_ZN7MOS65109rdySignalEb
sid.so:_ZN7MOS6510C1EP12EventContext
sid.so:_ZN7MOS6510C2EP12EventContext
sid.so:_ZN7MOS6510D0Ev
sid.so:_ZN7MOS6510D1Ev
sid.so:_ZN7MOS6510D2Ev
sid.so:_ZN7MOS65264readEh
sid.so:_ZN7MOS65265resetEv
sid.so:_ZN7MOS65265writeEhh
sid.so:_ZN7MOS65266creditE
sid.so:_ZN7MOS65267triggerEi
sid.so:_ZN7MOS65268ta_eventEv
sid.so:_ZN7MOS65268tb_eventEv
sid.so:_ZN7MOS6526C2EP12EventContext
sid.so:_ZN7MOS656X4chipE15mos656x_model_t
sid.so:_ZN7MOS656X4readEh
sid.so:_ZN7MOS656X5eventEv
sid.so:_ZN7MOS656X5resetEv
sid.so:_ZN7MOS656X5writeEhh
sid.so:_ZN7MOS656X6creditE
sid.so:_ZN7MOS656X7triggerEi
sid.so:_ZN7MOS656XC2EP12EventContext
sid.so:_ZN7SID651010triggerIRQEv
sid.so:_ZN7SID651010triggerNMIEv
sid.so:_ZN7SID651010triggerRSTEv
sid.so:_ZN7SID651011FetchOpcodeEv
sid.so:_ZN7SID65105resetEthhh
sid.so:_ZN7SID65105resetEv
sid.so:_ZN7SID65105sleepEv
sid.so:_ZN7SID6510C1EP12EventContext
sid.so:_ZN7SID6510C2EP12EventContext
sid.so:_ZN7SID65264readEh
sid.so:_ZN7SID65265eventEv
sid.so:_ZN7SID65265resetEv
sid.so:_ZN7SID65265writeEhh
sid.so:_ZN7SID65266creditE
sid.so:_ZN7SID6526C1EP6c64env
sid.so:_ZN7SID6526C2EP6c64env
sid.so:_ZN7SidTune10MUS_detectEPKvjRj
sid.so:_ZN7SidTune10selectSongEt
sid.so:_ZN7SidTune11txt_badAddrE
sid.so:_ZN7SidTune12getFromFilesEPKc
sid.so:_ZN7SidTune12resolveAddrsEPKh
sid.so:_ZN7SidTune12txt_badRelocE
sid.so:_ZN7SidTune12txt_noErrorsE
sid.so:_ZN7SidTune13acceptSidTuneEPKcS1_R12Buffer_sidttIKhE
sid.so:_ZN7SidTune13getFromBufferEPKhj
sid.so:_ZN7SidTune14MUS_mergePartsER12Buffer_sidttIKhES3_
sid.so:_ZN7SidTune14checkRelocInfoEv
sid.so:_ZN7SidTune14fixLoadAddressEbtt
sid.so:_ZN7SidTune14txt_noDataFileE
sid.so:_ZN7SidTune15MUS_fileSupportER12Buffer_sidttIKhES3_
sid.so:_ZN7SidTune15SID_fileSupportEPKvjS1_j
sid.so:_ZN7SidTune15txt_dataTooLongE
sid.so:_ZN7SidTune15txt_fileIoErrorE
sid.so:_ZN7SidTune15txt_fileTooLongE
sid.so:_ZN7SidTune16INFO_fileSupportEPKvjS1_j
sid.so:_ZN7SidTune16PSID_fileSupportEPKvj
sid.so:_ZN7SidTune16checkRealC64InfoEj
sid.so:_ZN7SidTune16checkRealC64InitEv
sid.so:_ZN7SidTune16txt_cantLoadFileE
sid.so:_ZN7SidTune16txt_cantOpenFileE
sid.so:_ZN7SidTune17MUS_decodePetLineER14SmartPtr_sidttIKhEPc
sid.so:_ZN7SidTune17MUS_installPlayerEPh
sid.so:_ZN7SidTune17createNewFileNameER12Buffer_sidttIcEPKcS4_
sid.so:_ZN7SidTune18fileNameExtensionsE
sid.so:_ZN7SidTune18txt_cantCreateFileE
sid.so:_ZN7SidTune19txt_notEnoughMemoryE
sid.so:_ZN7SidTune20MUS_setPlayerAddressEv
sid.so:_ZN7SidTune20deleteFileNameCopiesEv
sid.so:_ZN7SidTune20placeSidTuneInC64memEPh
sid.so:_ZN7SidTune20txt_songNumberExceedE
sid.so:_ZN7SidTune22txt_unrecognizedFormatE
sid.so:_ZN7SidTune28convertOldStyleSpeedToTablesEji
sid.so:_ZN7SidTune4initEv
sid.so:_ZN7SidTune4loadEPKcb
sid.so:_ZN7SidTune4readEPKhj
sid.so:_ZN7SidTune6txt_naE
sid.so:_ZN7SidTune7cleanupEv
sid.so:_ZN7SidTune7getInfoER11SidTuneInfo
sid.so:_ZN7SidTune7getInfoEv
sid.so:_ZN7SidTune7txt_CIAE
sid.so:_ZN7SidTune7txt_VBIE
sid.so:_ZN7SidTune8loadFileEPKcR12Buffer_sidttIKhE
sid.so:_ZN7SidTune9txt_emptyE
sid.so:_ZN7SidTuneC1EPKcPS1_b
sid.so:_ZN7SidTuneC1EPKhj
sid.so:_ZN7SidTuneC2EPKcPS1_b
sid.so:_ZN7SidTuneC2EPKhj
sid.so:_ZN7SidTuneD0Ev
sid.so:_ZN7SidTuneD1Ev
sid.so:_ZN7SidTuneD2Ev
sid.so:_ZN7SidTuneixEt
sid.so:_ZN7channel10galwayInitEv
sid.so:_ZN7channel10sampleInitEv
sid.so:_ZN7channel11galwayClockEv
sid.so:_ZN7channel11sampleClockEv
sid.so:_ZN7channel4freeEv
sid.so:_ZN7channel5resetEv
sid.so:_ZN7channel7silenceEv
sid.so:_ZN7channelC1EPKcP12EventContextP4XSID
sid.so:_ZN7channelC2EPKcP12EventContextP4XSID
sid.so:_ZN8sidplay211fastForwardEj
sid.so:_ZN8sidplay24loadEP7SidTune
sid.so:_ZN8sidplay24playEPvj
sid.so:_ZN8sidplay24stopEv
sid.so:_ZN8sidplay25debugEb
sid.so:_ZN8sidplay25pauseEv
sid.so:_ZN8sidplay26configERK13sid2_config_t
sid.so:_ZN8sidplay2C1Ev
sid.so:_ZN8sidplay2C2Ev
sid.so:_ZN8sidplay2D0Ev
sid.so:_ZN8sidplay2D1Ev
sid.so:_ZN8sidplay2D2Ev
sid.so:_ZNK8sidplay24infoEv
sid.so:_ZNK8sidplay24timeEv
sid.so:_ZNK8sidplay25errorEv
sid.so:_ZNK8sidplay25stateEv
sid.so:_ZNK8sidplay26configEv
sid.so:_ZNK8sidplay27mileageEv
sid.so:_ZTV12ReSIDBuilder
sid.so:_ZTV14EventScheduler
sid.so:_ZTV4XSID
sid.so:_ZTV5ReSID
sid.so:_ZTV7MOS6526
sid.so:_ZTV7MOS656X
sid.so:_ZTV7SID6510
sid.so:_ZTV7SID6526
sid.so:_ZTV7SidTune
sid.so:_ZTV8sidplay2
sid.so:_ZTVN12__sidplay2__6PlayerE
sid.so:_ZThn16_N4XSID5eventEv
sid.so:_ZThn8_N7MOS656X5eventEv
sid.so:cmp
sid.so:csid_free
sid.so:csid_init
sid.so:csid_insert
sid.so:csid_open
sid.so:csid_read
sid.so:csid_seek
sid.so:csid_start
sid.so:csid_stop
sid.so:deadbeef
sid.so:defaultFileNameExt
sid.so:file
sid.so:read_options
sid.so:read_undef
sid.so:reloc65
sid.so:reloc_globals
sid.so:reloc_seg
sid.so:resid_version_string
sid.so:sid_load
sid.so:sid_message
sid.so:sid_plugin
sndfile.so:sndfile_load
supereq.so:_Z10equ_malloci
supereq.so:_Z13process_paramPfP9paramlistRS0_fi
supereq.so:_Z4rfftP6FFTCTXiiPf
supereq.so:_Z8equ_freePv
supereq.so:bitrv2
supereq.so:bitrv208
supereq.so:bitrv208neg
supereq.so:bitrv216
supereq.so:bitrv216neg
supereq.so:bitrv2conj
supereq.so:cdft
supereq.so:cftb040
supereq.so:cftb1st
supereq.so:cftbsub
supereq.so:cftexp1
supereq.so:cftexp2
supereq.so:cftf040
supereq.so:cftf081
supereq.so:cftf082
supereq.so:cftf161
supereq.so:cftf162
supereq.so:cftf1st
supereq.so:cftfsub
supereq.so:cftfx41
supereq.so:cftfx42
supereq.so:cftmdl1
supereq.so:cftmdl2
supereq.so:cftrec1
supereq.so:cftrec2
supereq.so:cftx020
supereq.so:dctsub
supereq.so:ddct
supereq.so:ddst
supereq.so:dfct
supereq.so:dfst
supereq.so:dstsub
supereq.so:equ_clearbuf
supereq.so:equ_init
supereq.so:equ_makeTable
supereq.so:equ_modifySamples_float
supereq.so:equ_quit
supereq.so:makect
supereq.so:makewt
supereq.so:paramlist_alloc
supereq.so:paramlist_free
supereq.so:rdft
supereq.so:recalc_table
supereq.so:rftbsub
supereq.so:rftfsub
supereq.so:supereq_close
supereq.so:supereq_get_band
supereq.so:supereq_get_param
supereq.so:supereq_get_param_name
supereq.so:supereq_get_preamp
supereq.so:supereq_load
supereq.so:supereq_num_params
supereq.so:supereq_open
supereq.so:supereq_plugin_start
supereq.so:supereq_plugin_stop
supereq.so:supereq_process
supereq.so:supereq_reset
supereq.so:supereq_set_band
supereq.so:supereq_set_param
supereq.so:supereq_set_preamp
tta.so:bit_mask
tta.so:bit_shift
tta.so:close_tta_file
tta.so:crc32_table
tta.so:deadbeef
tta.so:filter_init
tta.so:get_error_str
tta.so:get_samples
tta.so:open_tta_file
tta.so:player_init
tta.so:player_stop
tta.so:set_position
tta.so:shift_16
tta.so:tta_load
vfs_curl.so:http_get_schemes
vfs_curl.so:http_is_streaming
vfs_curl.so:http_parse_shoutcast_meta
vfs_curl.so:vfs_curl_free_file
vfs_curl.so:vfs_curl_handle_icy_headers
vfs_curl.so:vfs_curl_load
vfs_curl.so:vfs_curl_set_meta
vfs_zip.so:vfs_zip_close
vfs_zip.so:vfs_zip_get_scheme_for_name
vfs_zip.so:vfs_zip_get_schemes
vfs_zip.so:vfs_zip_getlength
vfs_zip.so:vfs_zip_is_container
vfs_zip.so:vfs_zip_is_streaming
vfs_zip.so:vfs_zip_load
vfs_zip.so:vfs_zip_open
vfs_zip.so:vfs_zip_read
vfs_zip.so:vfs_zip_rewind
vfs_zip.so:vfs_zip_scandir
vfs_zip.so:vfs_zip_seek
vfs_zip.so:vfs_zip_tell
vorbis.so:vorbis_load
vtx.so:MAGIC1
vtx.so:ayemu_err
vtx.so:ayemu_free
vtx.so:ayemu_gen_sound
vtx.so:ayemu_init
vtx.so:ayemu_reset
vtx.so:ayemu_set_chip_freq
vtx.so:ayemu_set_chip_type
vtx.so:ayemu_set_regs
vtx.so:ayemu_set_sound_format
vtx.so:ayemu_set_stereo
vtx.so:ayemu_vtx_free
vtx.so:ayemu_vtx_getframe
vtx.so:ayemu_vtx_header
vtx.so:ayemu_vtx_load
vtx.so:lh5_decode
vtx.so:vtx_load
wavpack.so:wavpack_load
wavpack.so:wv_can_seek
wavpack.so:wv_get_length
wavpack.so:wv_get_pos
wavpack.so:wv_push_back_byte
wavpack.so:wv_read_bytes
wavpack.so:wv_read_metadata
wavpack.so:wv_set_pos_abs
wavpack.so:wv_set_pos_rel
wavpack.so:wv_write_bytes
wavpack.so:wv_write_metadata
wildmidi.so:WM_BufferFile
wildmidi.so:WM_ERROR
wildmidi.so:WM_FreePatches
wildmidi.so:WM_InitPatches
wildmidi.so:WM_Initialized
wildmidi.so:WM_LoadConfig
wildmidi.so:WM_ParseNewMidi
wildmidi.so:WM_RecalcSamples
wildmidi.so:WM_ResetToStart
wildmidi.so:WildMidi_Close
wildmidi.so:WildMidi_FastSeek
wildmidi.so:WildMidi_GetInfo
wildmidi.so:WildMidi_GetOutput
wildmidi.so:WildMidi_GetOutput_Gauss
wildmidi.so:WildMidi_GetOutput_Linear
wildmidi.so:WildMidi_GetString
wildmidi.so:WildMidi_Init
wildmidi.so:WildMidi_LoadSamples
wildmidi.so:WildMidi_MasterVolume
wildmidi.so:WildMidi_Open
wildmidi.so:WildMidi_OpenBuffer
wildmidi.so:WildMidi_SampledSeek
wildmidi.so:WildMidi_SetOption
wildmidi.so:WildMidi_Shutdown
wildmidi.so:convert_16s
wildmidi.so:convert_16sp
wildmidi.so:convert_16sr
wildmidi.so:convert_16srp
wildmidi.so:convert_16u
wildmidi.so:convert_16up
wildmidi.so:convert_16ur
wildmidi.so:convert_16urp
wildmidi.so:convert_8s
wildmidi.so:convert_8sp
wildmidi.so:convert_8sr
wildmidi.so:convert_8srp
wildmidi.so:convert_8u
wildmidi.so:convert_8up
wildmidi.so:convert_8ur
wildmidi.so:convert_8urp
wildmidi.so:do_aftertouch
wildmidi.so:do_amp_setup_aftertouch
wildmidi.so:do_amp_setup_channel_pressure
wildmidi.so:do_amp_setup_control
wildmidi.so:do_amp_setup_message
wildmidi.so:do_amp_setup_note_off
wildmidi.so:do_amp_setup_note_on
wildmidi.so:do_amp_setup_patch
wildmidi.so:do_amp_setup_pitch
wildmidi.so:do_channel_pressure
wildmidi.so:do_control
wildmidi.so:do_event
wildmidi.so:do_message
wildmidi.so:do_note_off
wildmidi.so:do_note_on
wildmidi.so:do_null
wildmidi.so:do_pan_adjust
wildmidi.so:do_patch
wildmidi.so:do_pitch
wildmidi.so:free_gauss
wildmidi.so:get_patch_data
wildmidi.so:get_sample_data
wildmidi.so:init_gauss
wildmidi.so:init_lowpass
wildmidi.so:lin_volume
wildmidi.so:load_patch
wildmidi.so:load_sample
wildmidi.so:log_volume
wildmidi.so:pan_volume
wildmidi.so:patch
wildmidi.so:read_var_length
wildmidi.so:sqr_volume
wildmidi.so:wildmidi_load
wildmidi.so:wmidi_free
wildmidi.so:wmidi_init
wildmidi.so:wmidi_insert
wildmidi.so:wmidi_open
wildmidi.so:wmidi_read
wildmidi.so:wmidi_seek
wildmidi.so:wmidi_seek_sample
wildmidi.so:wmidi_start
wildmidi.so:wmidi_stop
wma.so:Fixed32From64
wma.so:Fixed32To64
wma.so:IntFrom64
wma.so:IntTo64
wma.so:asf_get_timestamp
wma.so:asf_read_packet
wma.so:asf_seek
wma.so:deadbeef
wma.so:ff_fft_calc_c
wma.so:ff_imdct_calc
wma.so:ff_imdct_half
wma.so:ff_log2_run
wma.so:ff_log2_tab
wma.so:fixdiv32
wma.so:fixdiv64
wma.so:fixsqrt32
wma.so:fsincos
wma.so:get_asf_metadata
wma.so:init_vlc_sparse
wma.so:lsp_pow_e_table
wma.so:noisetable_exp
wma.so:pow_10_to_yover16
wma.so:pow_a_table
wma.so:pow_table
wma.so:read_uint16be
wma.so:read_uint32be
wma.so:read_uint64be
wma.so:revtab
wma.so:sincos_lookup0
wma.so:sincos_lookup1
wma.so:utf8encode
wma.so:wma_decode_init
wma.so:wma_decode_superframe_frame
wma.so:wma_decode_superframe_init
wma.so:wma_load
