UNKNOWN:_ZTI26LibRaw_abstract_datastream
UNKNOWN:_ZTIN7Iex_3_18InputExcE
UNKNOWN:_ZTIN7Imf_3_114TypedAttributeINSt7__cxx1112basic_stringIcSt11char_traitsIcESaIcEEEEE
UNKNOWN:_ZTIN7Imf_3_114TypedAttributeIfEE
UNKNOWN:_ZTIN7Imf_3_17IStreamE
UNKNOWN:_ZTIN7Imf_3_19AttributeE
libIex-3_1.so.30:_ZN7Iex_3_113throwErrnoExcERKNSt7__cxx1112basic_stringIcSt11char_traitsIcESaIcEEEi
libIex-3_1.so.30:_ZN7Iex_3_18InputExcC1EPKc
libIex-3_1.so.30:_ZN7Iex_3_18InputExcD1Ev
libImath-3_1.so.29:imath_half_to_float_table
libKF5Archive.so.5:_ZN4KZipC1EP9QIODevice
libKF5Archive.so.5:_ZN4KZipD1Ev
libKF5Archive.so.5:_ZN8KArchive4openE6QFlagsIN9QIODevice12OpenModeFlagEE
libKF5Archive.so.5:_ZNK17KArchiveDirectory5entryERK7QString
libKF5Archive.so.5:_ZNK8KArchive9directoryEv
libOpenEXR-3_1.so.30:_ZN7Imf_3_110isImfMagicEPKc
libOpenEXR-3_1.so.30:_ZN7Imf_3_113RgbaInputFile10readPixelsEii
libOpenEXR-3_1.so.30:_ZN7Imf_3_113RgbaInputFile14setFrameBufferEPNS_4RgbaEmm
libOpenEXR-3_1.so.30:_ZN7Imf_3_113RgbaInputFileC1ERNS_7IStreamEi
libOpenEXR-3_1.so.30:_ZN7Imf_3_113RgbaInputFileD1Ev
libOpenEXR-3_1.so.30:_ZN7Imf_3_117globalThreadCountEv
libOpenEXR-3_1.so.30:_ZN7Imf_3_17IStream16readMemoryMappedEi
libOpenEXR-3_1.so.30:_ZN7Imf_3_17IStreamC2EPKc
libOpenEXR-3_1.so.30:_ZN7Imf_3_17IStreamD2Ev
libOpenEXR-3_1.so.30:_ZNK7Imf_3_113RgbaInputFile10dataWindowEv
libOpenEXR-3_1.so.30:_ZNK7Imf_3_113RgbaInputFile6headerEv
libOpenEXR-3_1.so.30:_ZNK7Imf_3_113RgbaInputFile8channelsEv
libOpenEXR-3_1.so.30:_ZNK7Imf_3_17IStream14isMemoryMappedEv
libQt5Core.so.5:_Z26qt_QMetaEnum_debugOperatorR6QDebugiPK11QMetaObjectPKc
libQt5Core.so.5:_Z5qHashRK10QByteArrayj
libQt5Core.so.5:_Z5qHashRK7QStringj
libQt5Core.so.5:_Z6qbswapILi2EEPvPKvxS0_
libQt5Core.so.5:_Z7qstrcmpRK10QByteArrayPKc
libQt5Core.so.5:_Z9qBadAllocv
libQt5Core.so.5:_ZN10QArrayData10deallocateEPS_mm
libQt5Core.so.5:_ZN10QArrayData11shared_nullE
libQt5Core.so.5:_ZN10QArrayData8allocateEmmm6QFlagsINS_16AllocationOptionEE
libQt5Core.so.5:_ZN10QByteArray11fromRawDataEPKci
libQt5Core.so.5:_ZN10QByteArray11reallocDataEj6QFlagsIN10QArrayData16AllocationOptionEE
libQt5Core.so.5:_ZN10QByteArray14toLower_helperERS_
libQt5Core.so.5:_ZN10QByteArray4chopEi
libQt5Core.so.5:_ZN10QByteArray4fillEci
libQt5Core.so.5:_ZN10QByteArray5clearEv
libQt5Core.so.5:_ZN10QByteArray6appendEPKc
libQt5Core.so.5:_ZN10QByteArray6appendERKS_
libQt5Core.so.5:_ZN10QByteArray6appendEc
libQt5Core.so.5:_ZN10QByteArray6expandEi
libQt5Core.so.5:_ZN10QByteArray6numberEii
libQt5Core.so.5:_ZN10QByteArray6removeEii
libQt5Core.so.5:_ZN10QByteArray6resizeEi
libQt5Core.so.5:_ZN10QByteArray7replaceEcRKS_
libQt5Core.so.5:_ZN10QByteArrayC1EPKci
libQt5Core.so.5:_ZN10QByteArrayC1EiN2Qt14InitializationE
libQt5Core.so.5:_ZN10QByteArrayC1Eic
libQt5Core.so.5:_ZN10QByteArrayaSERKS_
libQt5Core.so.5:_ZN11QDataStream11readRawDataEPci
libQt5Core.so.5:_ZN11QDataStream11skipRawDataEi
libQt5Core.so.5:_ZN11QDataStream12setByteOrderENS_9ByteOrderE
libQt5Core.so.5:_ZN11QDataStream12writeRawDataEPKci
libQt5Core.so.5:_ZN11QDataStream25setFloatingPointPrecisionENS_22FloatingPointPrecisionE
libQt5Core.so.5:_ZN11QDataStream9readBytesERPcRj
libQt5Core.so.5:_ZN11QDataStream9setDeviceEP9QIODevice
libQt5Core.so.5:_ZN11QDataStream9setStatusENS_6StatusE
libQt5Core.so.5:_ZN11QDataStreamC1EP10QByteArray6QFlagsIN9QIODevice12OpenModeFlagEE
libQt5Core.so.5:_ZN11QDataStreamC1EP9QIODevice
libQt5Core.so.5:_ZN11QDataStreamC1ERK10QByteArray
libQt5Core.so.5:_ZN11QDataStreamC1Ev
libQt5Core.so.5:_ZN11QDataStreamD1Ev
libQt5Core.so.5:_ZN11QDataStreamlsEa
libQt5Core.so.5:_ZN11QDataStreamlsEf
libQt5Core.so.5:_ZN11QDataStreamlsEi
libQt5Core.so.5:_ZN11QDataStreamlsEs
libQt5Core.so.5:_ZN11QDataStreamrsERPc
libQt5Core.so.5:_ZN11QDataStreamrsERa
libQt5Core.so.5:_ZN11QDataStreamrsERf
libQt5Core.so.5:_ZN11QDataStreamrsERi
libQt5Core.so.5:_ZN11QDataStreamrsERs
libQt5Core.so.5:_ZN11QDataStreamrsERx
libQt5Core.so.5:_ZN11QTextStreamlsERK7QString
libQt5Core.so.5:_ZN11QTextStreamlsEc
libQt5Core.so.5:_ZN11QTextStreamlsEf
libQt5Core.so.5:_ZN11QTextStreamlsEi
libQt5Core.so.5:_ZN11QTextStreamlsEj
libQt5Core.so.5:_ZN11QTextStreamlsEl
libQt5Core.so.5:_ZN11QTextStreamlsEm
libQt5Core.so.5:_ZN11QTextStreamlsEt
libQt5Core.so.5:_ZN11QTextStreamlsEx
libQt5Core.so.5:_ZN12QMapDataBase10createDataEv
libQt5Core.so.5:_ZN12QMapDataBase10createNodeEiiP12QMapNodeBaseb
libQt5Core.so.5:_ZN12QMapDataBase11shared_nullE
libQt5Core.so.5:_ZN12QMapDataBase18recalcMostLeftNodeEv
libQt5Core.so.5:_ZN12QMapDataBase20freeNodeAndRebalanceEP12QMapNodeBase
libQt5Core.so.5:_ZN12QMapDataBase8freeDataEPS_
libQt5Core.so.5:_ZN12QMapDataBase8freeTreeEP12QMapNodeBasei
libQt5Core.so.5:_ZN14QStandardPaths14findExecutableERK7QStringRK11QStringList
libQt5Core.so.5:_ZN14QTemporaryFile4openE6QFlagsIN9QIODevice12OpenModeFlagEE
libQt5Core.so.5:_ZN14QTemporaryFileC1ERK7QString
libQt5Core.so.5:_ZN14QTemporaryFileC1Ev
libQt5Core.so.5:_ZN14QTemporaryFileD1Ev
libQt5Core.so.5:_ZN15QtSharedPointer20ExternalRefCountData9getAndRefEPK7QObject
libQt5Core.so.5:_ZN16QCoreApplication4selfE
libQt5Core.so.5:_ZN16QLoggingCategoryC1EPKc9QtMsgType
libQt5Core.so.5:_ZN16QLoggingCategoryD1Ev
libQt5Core.so.5:_ZN18QRegularExpressionC1ERK7QString6QFlagsINS_13PatternOptionEE
libQt5Core.so.5:_ZN18QRegularExpressionD1Ev
libQt5Core.so.5:_ZN21QAbstractConcatenable14appendLatin1ToEPKciP5QChar
libQt5Core.so.5:_ZN23QRegularExpressionMatchD1Ev
libQt5Core.so.5:_ZN6QDebug12putByteArrayEPKcmNS_13Latin1ContentE
libQt5Core.so.5:_ZN6QDebug9putStringEPK5QCharm
libQt5Core.so.5:_ZN6QDebugD1Ev
libQt5Core.so.5:_ZN6QMutex4lockEv
libQt5Core.so.5:_ZN6QMutex6unlockEv
libQt5Core.so.5:_ZN6QMutexD1Ev
libQt5Core.so.5:_ZN7QLocaleC1ENS_8LanguageENS_7CountryE
libQt5Core.so.5:_ZN7QLocaleD1Ev
libQt5Core.so.5:_ZN7QObject10childEventEP11QChildEvent
libQt5Core.so.5:_ZN7QObject10timerEventEP11QTimerEvent
libQt5Core.so.5:_ZN7QObject11customEventEP6QEvent
libQt5Core.so.5:_ZN7QObject11eventFilterEPS_P6QEvent
libQt5Core.so.5:_ZN7QObject13connectNotifyERK11QMetaMethod
libQt5Core.so.5:_ZN7QObject16disconnectNotifyERK11QMetaMethod
libQt5Core.so.5:_ZN7QObject5eventEP6QEvent
libQt5Core.so.5:_ZN7QString13toUtf8_helperERKS_
libQt5Core.so.5:_ZN7QString15fromUtf8_helperEPKci
libQt5Core.so.5:_ZN7QString17fromLatin1_helperEPKci
libQt5Core.so.5:_ZN7QString17simplified_helperERS_
libQt5Core.so.5:_ZN7QString20fromLocal8Bit_helperEPKci
libQt5Core.so.5:_ZN7QString6appendERKS_
libQt5Core.so.5:_ZN7QStringC1EiN2Qt14InitializationE
libQt5Core.so.5:_ZN7QStringaSERKS_
libQt5Core.so.5:_ZN7QThread16idealThreadCountEv
libQt5Core.so.5:_ZN8QProcess14setReadChannelENS_14ProcessChannelE
libQt5Core.so.5:_ZN8QProcess14waitForStartedEi
libQt5Core.so.5:_ZN8QProcess15waitForFinishedEi
libQt5Core.so.5:_ZN8QProcess16waitForReadyReadEi
libQt5Core.so.5:_ZN8QProcess17closeWriteChannelEv
libQt5Core.so.5:_ZN8QProcess21setProcessChannelModeENS_18ProcessChannelModeE
libQt5Core.so.5:_ZN8QProcess5startERK7QStringRK11QStringList6QFlagsIN9QIODevice12OpenModeFlagEE
libQt5Core.so.5:_ZN8QProcessC1EP7QObject
libQt5Core.so.5:_ZN8QProcessD1Ev
libQt5Core.so.5:_ZN8QVariantC1ERK5QSize
libQt5Core.so.5:_ZN8QVariantC1ERK7QString
libQt5Core.so.5:_ZN8QVariantC1Eb
libQt5Core.so.5:_ZN8QVariantC1Ei
libQt5Core.so.5:_ZN8QVariantC1EiPKvj
libQt5Core.so.5:_ZN8QVariantD1Ev
libQt5Core.so.5:_ZN8qfloat1611offsettableE
libQt5Core.so.5:_ZN8qfloat1613exponenttableE
libQt5Core.so.5:_ZN8qfloat1613mantissatableE
libQt5Core.so.5:_ZN9QDateTime10fromStringERK7QStringS2_
libQt5Core.so.5:_ZN9QDateTime16setOffsetFromUtcEi
libQt5Core.so.5:_ZN9QDateTime18currentDateTimeUtcEv
libQt5Core.so.5:_ZN9QDateTime18fromSecsSinceEpochExN2Qt8TimeSpecEi
libQt5Core.so.5:_ZN9QDateTimeD1Ev
libQt5Core.so.5:_ZN9QHashData11free_helperEPFvPNS_4NodeEE
libQt5Core.so.5:_ZN9QHashData11shared_nullE
libQt5Core.so.5:_ZN9QHashData12allocateNodeEi
libQt5Core.so.5:_ZN9QHashData13detach_helperEPFvPNS_4NodeEPvEPFvS1_Eii
libQt5Core.so.5:_ZN9QHashData6rehashEi
libQt5Core.so.5:_ZN9QHashData8nextNodeEPNS_4NodeE
libQt5Core.so.5:_ZN9QIODevice16startTransactionEv
libQt5Core.so.5:_ZN9QIODevice19rollbackTransactionEv
libQt5Core.so.5:_ZN9QIODevice4peekEPcx
libQt5Core.so.5:_ZN9QIODevice4peekEx
libQt5Core.so.5:_ZN9QIODevice4readEPcx
libQt5Core.so.5:_ZN9QIODevice4readEx
libQt5Core.so.5:_ZN9QIODevice5writeEPKcx
libQt5Core.so.5:_ZN9QIODevice7getCharEPc
libQt5Core.so.5:_ZN9QIODevice7readAllEv
libQt5Core.so.5:_ZN9QIODevice8readLineEPcx
libQt5Core.so.5:_ZN9QIODevice8readLineEx
libQt5Core.so.5:_ZN9QIODevice9ungetCharEc
libQt5Core.so.5:_ZN9QListData11detach_growEPii
libQt5Core.so.5:_ZN9QListData11shared_nullE
libQt5Core.so.5:_ZN9QListData6appendEv
libQt5Core.so.5:_ZN9QListData6detachEi
libQt5Core.so.5:_ZN9QListData7disposeEPNS_4DataE
libQt5Core.so.5:_ZN9QListData7reallocEi
libQt5Core.so.5:_ZN9QMetaType22registerNormalizedTypeERK10QByteArrayPFvPvEPFS3_S3_PKvEi6QFlagsINS_8TypeFlagEEPK11QMetaObject
libQt5Core.so.5:_ZN9QtPrivate12argToQStringE11QStringViewmPPKNS_7ArgBaseE
libQt5Core.so.5:_ZN9QtPrivate16QStringList_joinEPK11QStringListPK5QChari
libQt5Core.so.5:_ZNK10QByteArray10startsWithEPKc
libQt5Core.so.5:_ZNK10QByteArray10startsWithERKS_
libQt5Core.so.5:_ZNK10QByteArray3midEii
libQt5Core.so.5:_ZNK10QByteArray5rightEi
libQt5Core.so.5:_ZNK10QByteArray5toHexEv
libQt5Core.so.5:_ZNK10QByteArray5toIntEPbi
libQt5Core.so.5:_ZNK10QByteArray6isNullEv
libQt5Core.so.5:_ZNK10QByteArray7indexOfEPKci
libQt5Core.so.5:_ZNK10QByteArray8endsWithEc
libQt5Core.so.5:_ZNK11QDataStream5atEndEv
libQt5Core.so.5:_ZNK11QDataStream6statusEv
libQt5Core.so.5:_ZNK11QMetaObject9classNameEv
libQt5Core.so.5:_ZNK11QObjectData17dynamicMetaObjectEv
libQt5Core.so.5:_ZNK12QMapNodeBase8nextNodeEv
libQt5Core.so.5:_ZNK14QMessageLogger5debugEv
libQt5Core.so.5:_ZNK14QMessageLogger7warningEPKcz
libQt5Core.so.5:_ZNK14QMessageLogger7warningEv
libQt5Core.so.5:_ZNK14QTemporaryFile8fileNameEv
libQt5Core.so.5:_ZNK18QRegularExpression5matchERK7QStringiNS_9MatchTypeE6QFlagsINS_11MatchOptionEE
libQt5Core.so.5:_ZNK23QRegularExpressionMatch8capturedEi
libQt5Core.so.5:_ZNK23QRegularExpressionMatch8hasMatchEv
libQt5Core.so.5:_ZNK7QLocale5toIntERK7QStringPb
libQt5Core.so.5:_ZNK7QLocale7toFloatERK7QStringPb
libQt5Core.so.5:_ZNK7QLocale8toStringEdci
libQt5Core.so.5:_ZNK7QLocale8toStringEx
libQt5Core.so.5:_ZNK7QLocale8toStringEy
libQt5Core.so.5:_ZNK7QString10startsWithERKS_N2Qt15CaseSensitivityE
libQt5Core.so.5:_ZNK7QString3argE5QChariS0_
libQt5Core.so.5:_ZNK7QString3argERKS_i5QChar
libQt5Core.so.5:_ZNK7QString3argExii5QChar
libQt5Core.so.5:_ZNK7QString3midEii
libQt5Core.so.5:_ZNK7QString4leftEi
libQt5Core.so.5:_ZNK7QString5splitERKS_6QFlagsIN2Qt18SplitBehaviorFlagsEENS3_15CaseSensitivityE
libQt5Core.so.5:_ZNK7QString5toIntEPbi
libQt5Core.so.5:_ZNK7QString7indexOfERKS_iN2Qt15CaseSensitivityE
libQt5Core.so.5:_ZNK8QProcess14bytesAvailableEv
libQt5Core.so.5:_ZNK8QProcess5stateEv
libQt5Core.so.5:_ZNK8QVariant5toIntEPb
libQt5Core.so.5:_ZNK8QVariant6toBoolEv
libQt5Core.so.5:_ZNK8QVariant8toStringEv
libQt5Core.so.5:_ZNK9QDateTime7isValidEv
libQt5Core.so.5:_ZNK9QDateTime8toStringEN2Qt10DateFormatE
libQt5Core.so.5:_ZNK9QIODevice10isReadableEv
libQt5Core.so.5:_ZNK9QIODevice10isWritableEv
libQt5Core.so.5:_ZNK9QIODevice11errorStringEv
libQt5Core.so.5:_ZNK9QIODevice6isOpenEv
libQt5Core.so.5:_ZeqRK7QStringS1_
libQt5Core.so.5:_Zls6QDebugRK5QSize
libQt5Core.so.5:_ZrsR11QDataStreamR10QByteArray
libQt5Core.so.5:qt_version_tag
libQt5Gui.so.5:_ZN10QTransform6rotateEdN2Qt4AxisE
libQt5Gui.so.5:_ZN10QTransformC1Ev
libQt5Gui.so.5:_ZN11QColorSpace14fromIccProfileERK10QByteArray
libQt5Gui.so.5:_ZN11QColorSpaceC1ENS_15NamedColorSpaceE
libQt5Gui.so.5:_ZN11QColorSpaceC1ENS_9PrimariesENS_16TransferFunctionEf
libQt5Gui.so.5:_ZN11QColorSpaceC1ENS_9PrimariesEf
libQt5Gui.so.5:_ZN11QColorSpaceC1ERK7QPointFS2_S2_S2_NS_16TransferFunctionEf
libQt5Gui.so.5:_ZN11QColorSpaceC1ERKS_
libQt5Gui.so.5:_ZN11QColorSpaceC1Ev
libQt5Gui.so.5:_ZN11QColorSpaceD1Ev
libQt5Gui.so.5:_ZN11QColorSpaceaSERKS_
libQt5Gui.so.5:_ZN12QImageReader4readEP6QImage
libQt5Gui.so.5:_ZN12QImageReaderC1ERK7QStringRK10QByteArray
libQt5Gui.so.5:_ZN12QImageReaderD1Ev
libQt5Gui.so.5:_ZN14QImageIOPlugin11qt_metacallEN11QMetaObject4CallEiPPv
libQt5Gui.so.5:_ZN14QImageIOPlugin11qt_metacastEPKc
libQt5Gui.so.5:_ZN14QImageIOPlugin16staticMetaObjectE
libQt5Gui.so.5:_ZN14QImageIOPluginC2EP7QObject
libQt5Gui.so.5:_ZN14QImageIOPluginD2Ev
libQt5Gui.so.5:_ZN15QImageIOHandler11jumpToImageEi
libQt5Gui.so.5:_ZN15QImageIOHandler15jumpToNextImageEv
libQt5Gui.so.5:_ZN15QImageIOHandler5writeERK6QImage
libQt5Gui.so.5:_ZN15QImageIOHandler9setDeviceEP9QIODevice
libQt5Gui.so.5:_ZN15QImageIOHandler9setFormatERK10QByteArray
libQt5Gui.so.5:_ZN15QImageIOHandler9setOptionENS_11ImageOptionERK8QVariant
libQt5Gui.so.5:_ZN15QImageIOHandlerC2Ev
libQt5Gui.so.5:_ZN15QImageIOHandlerD2Ev
libQt5Gui.so.5:_ZN17QPagedPaintDevice11setPageSizeERK9QPageSize
libQt5Gui.so.5:_ZN6QImage12loadFromDataEPKhiPKc
libQt5Gui.so.5:_ZN6QImage13setColorCountEi
libQt5Gui.so.5:_ZN6QImage13setColorSpaceERK11QColorSpace
libQt5Gui.so.5:_ZN6QImage13setColorTableE7QVectorIjE
libQt5Gui.so.5:_ZN6QImage16setDotsPerMeterXEi
libQt5Gui.so.5:_ZN6QImage16setDotsPerMeterYEi
libQt5Gui.so.5:_ZN6QImage16staticMetaObjectE
libQt5Gui.so.5:_ZN6QImage19convertToColorSpaceERK11QColorSpace
libQt5Gui.so.5:_ZN6QImage4bitsEv
libQt5Gui.so.5:_ZN6QImage4fillEN2Qt11GlobalColorE
libQt5Gui.so.5:_ZN6QImage4fillEj
libQt5Gui.so.5:_ZN6QImage7setTextERK7QStringS2_
libQt5Gui.so.5:_ZN6QImage8scanLineEi
libQt5Gui.so.5:_ZN6QImage8setColorEij
libQt5Gui.so.5:_ZN6QImage8setPixelEiij
libQt5Gui.so.5:_ZN6QImageC1ERK5QSizeNS_6FormatE
libQt5Gui.so.5:_ZN6QImageC1ERKS_
libQt5Gui.so.5:_ZN6QImageC1EiiNS_6FormatE
libQt5Gui.so.5:_ZN6QImageC1Ev
libQt5Gui.so.5:_ZN6QImageD1Ev
libQt5Gui.so.5:_ZN6QImageaSERKS_
libQt5Gui.so.5:_ZN8QPainter10setOpacityEd
libQt5Gui.so.5:_ZN8QPainter18setCompositionModeENS_15CompositionModeE
libQt5Gui.so.5:_ZN8QPainter3endEv
libQt5Gui.so.5:_ZN8QPainter5beginEP12QPaintDevice
libQt5Gui.so.5:_ZN8QPainter9drawImageERK7QPointFRK6QImage
libQt5Gui.so.5:_ZN8QPainterC1EP12QPaintDevice
libQt5Gui.so.5:_ZN8QPainterC1Ev
libQt5Gui.so.5:_ZN8QPainterD1Ev
libQt5Gui.so.5:_ZN9QPageSizeC1ERK6QSizeFNS_4UnitERK7QStringNS_15SizeMatchPolicyE
libQt5Gui.so.5:_ZN9QPageSizeD1Ev
libQt5Gui.so.5:_ZNK11QColorSpace10iccProfileEv
libQt5Gui.so.5:_ZNK11QColorSpace16transferFunctionEv
libQt5Gui.so.5:_ZNK11QColorSpace20withTransferFunctionENS_16TransferFunctionEf
libQt5Gui.so.5:_ZNK11QColorSpace5gammaEv
libQt5Gui.so.5:_ZNK11QColorSpace7isValidEv
libQt5Gui.so.5:_ZNK11QColorSpace9primariesEv
libQt5Gui.so.5:_ZNK12QImageReader11errorStringEv
libQt5Gui.so.5:_ZNK15QImageIOHandler10imageCountEv
libQt5Gui.so.5:_ZNK15QImageIOHandler14nextImageDelayEv
libQt5Gui.so.5:_ZNK15QImageIOHandler14supportsOptionENS_11ImageOptionE
libQt5Gui.so.5:_ZNK15QImageIOHandler16currentImageRectEv
libQt5Gui.so.5:_ZNK15QImageIOHandler18currentImageNumberEv
libQt5Gui.so.5:_ZNK15QImageIOHandler4nameEv
libQt5Gui.so.5:_ZNK15QImageIOHandler6deviceEv
libQt5Gui.so.5:_ZNK15QImageIOHandler6optionENS_11ImageOptionE
libQt5Gui.so.5:_ZNK15QImageIOHandler9loopCountEv
libQt5Gui.so.5:_ZNK15QImageIOHandler9setFormatERK10QByteArray
libQt5Gui.so.5:_ZNK6QColor6rgba64Ev
libQt5Gui.so.5:_ZNK6QImage10colorCountEv
libQt5Gui.so.5:_ZNK6QImage10colorSpaceEv
libQt5Gui.so.5:_ZNK6QImage10colorTableEv
libQt5Gui.so.5:_ZNK6QImage10pixelColorEii
libQt5Gui.so.5:_ZNK6QImage10pixelIndexEii
libQt5Gui.so.5:_ZNK6QImage11isGrayscaleEv
libQt5Gui.so.5:_ZNK6QImage11transformedERK10QTransformN2Qt18TransformationModeE
libQt5Gui.so.5:_ZNK6QImage12bytesPerLineEv
libQt5Gui.so.5:_ZNK6QImage13constScanLineEi
libQt5Gui.so.5:_ZNK6QImage13dotsPerMeterXEv
libQt5Gui.so.5:_ZNK6QImage13dotsPerMeterYEv
libQt5Gui.so.5:_ZNK6QImage15hasAlphaChannelEv
libQt5Gui.so.5:_ZNK6QImage15mirrored_helperEbb
libQt5Gui.so.5:_ZNK6QImage22convertToFormat_helperENS_6FormatE6QFlagsIN2Qt19ImageConversionFlagEE
libQt5Gui.so.5:_ZNK6QImage4copyERK5QRect
libQt5Gui.so.5:_ZNK6QImage4sizeEv
libQt5Gui.so.5:_ZNK6QImage5colorEi
libQt5Gui.so.5:_ZNK6QImage5depthEv
libQt5Gui.so.5:_ZNK6QImage5pixelEii
libQt5Gui.so.5:_ZNK6QImage5widthEv
libQt5Gui.so.5:_ZNK6QImage6formatEv
libQt5Gui.so.5:_ZNK6QImage6heightEv
libQt5Gui.so.5:_ZNK6QImage6isNullEv
libQt5Gui.so.5:_ZNK6QImage7allGrayEv
libQt5Gui.so.5:_ZNK6QImage8scanLineEi
libQt5Gui.so.5:_ZNK6QImage9constBitsEv
libQt5Gui.so.5:_ZTI14QImageIOPlugin
libQt5Gui.so.5:_ZTI15QImageIOHandler
libQt5Gui.so.5:_ZeqRK11QColorSpaceS1_
libQt5Gui.so.5:_Zls6QDebugRK11QColorSpace
libQt5PrintSupport.so.5:_ZN8QPrinter10setCreatorERK7QString
libQt5PrintSupport.so.5:_ZN8QPrinter11setFullPageEb
libQt5PrintSupport.so.5:_ZN8QPrinter15setOutputFormatENS_12OutputFormatE
libQt5PrintSupport.so.5:_ZN8QPrinter17setOutputFileNameERK7QString
libQt5PrintSupport.so.5:_ZN8QPrinterC1ENS_11PrinterModeE
libQt5PrintSupport.so.5:_ZN8QPrinterD1Ev
libQt5PrintSupport.so.5:_ZNK8QPrinter10resolutionEv
libavif.so.15:avifCodecName
libavif.so.15:avifColorPrimariesGetValues
libavif.so.15:avifDecoderCreate
libavif.so.15:avifDecoderDestroy
libavif.so.15:avifDecoderNextImage
libavif.so.15:avifDecoderNthImage
libavif.so.15:avifDecoderParse
libavif.so.15:avifDecoderReset
libavif.so.15:avifDecoderSetIOMemory
libavif.so.15:avifEncoderCreate
libavif.so.15:avifEncoderDestroy
libavif.so.15:avifEncoderWrite
libavif.so.15:avifImageAllocatePlanes
libavif.so.15:avifImageCreate
libavif.so.15:avifImageDestroy
libavif.so.15:avifImageRGBToYUV
libavif.so.15:avifImageSetProfileICC
libavif.so.15:avifImageYUVToRGB
libavif.so.15:avifPeekCompatibleFileType
libavif.so.15:avifRGBImageSetDefaults
libavif.so.15:avifRWDataFree
libavif.so.15:avifResultToString
libc.so.6:__cxa_atexit
libc.so.6:__isoc99_sscanf
libc.so.6:__stack_chk_fail
libc.so.6:free
libc.so.6:malloc
libc.so.6:memcmp
libc.so.6:memcpy
libc.so.6:memset
libc.so.6:rand
libc.so.6:srand
libc.so.6:strcmp
libc.so.6:strlen
libc.so.6:strncmp
libc.so.6:strncpy
libgcc_s.so.1:_Unwind_Resume
libheif.so.1:heif_context_alloc
libheif.so.1:heif_context_encode_image
libheif.so.1:heif_context_free
libheif.so.1:heif_context_get_encoder_for_format
libheif.so.1:heif_context_get_primary_image_handle
libheif.so.1:heif_context_read_from_memory
libheif.so.1:heif_context_write
libheif.so.1:heif_decode_image
libheif.so.1:heif_decoding_options_alloc
libheif.so.1:heif_decoding_options_free
libheif.so.1:heif_deinit
libheif.so.1:heif_encoder_release
libheif.so.1:heif_encoder_set_lossless
libheif.so.1:heif_encoder_set_lossy_quality
libheif.so.1:heif_encoder_set_parameter_string
libheif.so.1:heif_encoding_options_alloc
libheif.so.1:heif_encoding_options_free
libheif.so.1:heif_have_decoder_for_format
libheif.so.1:heif_have_encoder_for_format
libheif.so.1:heif_image_add_plane
libheif.so.1:heif_image_create
libheif.so.1:heif_image_get_height
libheif.so.1:heif_image_get_plane
libheif.so.1:heif_image_get_plane_readonly
libheif.so.1:heif_image_get_width
libheif.so.1:heif_image_handle_get_color_profile_type
libheif.so.1:heif_image_handle_get_height
libheif.so.1:heif_image_handle_get_luma_bits_per_pixel
libheif.so.1:heif_image_handle_get_nclx_color_profile
libheif.so.1:heif_image_handle_get_raw_color_profile
libheif.so.1:heif_image_handle_get_raw_color_profile_size
libheif.so.1:heif_image_handle_get_width
libheif.so.1:heif_image_handle_has_alpha_channel
libheif.so.1:heif_image_handle_release
libheif.so.1:heif_image_release
libheif.so.1:heif_image_set_raw_color_profile
libheif.so.1:heif_init
libheif.so.1:heif_nclx_color_profile_free
libraw.so.23:_ZN26LibRaw_abstract_datastream8jpeg_srcEPv
libraw.so.23:_ZN6LibRaw13dcraw_processEv
libraw.so.23:_ZN6LibRaw15dcraw_clear_memEP24libraw_processed_image_t
libraw.so.23:_ZN6LibRaw15open_datastreamEP26LibRaw_abstract_datastream
libraw.so.23:_ZN6LibRaw6unpackEv
libraw.so.23:_ZN6LibRaw7versionEv
libraw.so.23:_ZN6LibRawC1Ej
libraw.so.23:libraw_get_iheight
libraw.so.23:libraw_get_iwidth
libstdc++.so.6:_ZNSt7__cxx1112basic_stringIcSt11char_traitsIcESaIcEE10_M_disposeEv
libstdc++.so.6:_ZNSt8ios_base4InitC1Ev
libstdc++.so.6:_ZNSt8ios_base4InitD1Ev
libstdc++.so.6:_ZSt25__throw_bad_function_callv
libstdc++.so.6:_ZTISt9exception
libstdc++.so.6:_ZTVN10__cxxabiv119__pointer_type_infoE
libstdc++.so.6:_ZTVN10__cxxabiv120__function_type_infoE
libstdc++.so.6:_ZTVN10__cxxabiv120__si_class_type_infoE
libstdc++.so.6:_ZdaPv
libstdc++.so.6:_ZdlPv
libstdc++.so.6:_ZdlPvm
libstdc++.so.6:_Znam
libstdc++.so.6:_Znwm
libstdc++.so.6:__cxa_allocate_exception
libstdc++.so.6:__cxa_begin_catch
libstdc++.so.6:__cxa_end_catch
libstdc++.so.6:__cxa_free_exception
libstdc++.so.6:__cxa_guard_abort
libstdc++.so.6:__cxa_guard_acquire
libstdc++.so.6:__cxa_guard_release
libstdc++.so.6:__cxa_rethrow
libstdc++.so.6:__cxa_throw
libstdc++.so.6:__cxa_throw_bad_array_new_length
libstdc++.so.6:__dynamic_cast
libstdc++.so.6:__gxx_personality_v0
