pyside2-lupdate:_IO_stdin_used
pyside2-lupdate:_Z10fetchtr_pyPKcP14MetaTranslatorS0_bRK10QByteArray
pyside2-lupdate:_Z10fetchtr_uiPKcP14MetaTranslatorS0_b
pyside2-lupdate:_Z13proFileTagMapRK7QString
pyside2-lupdate:_Z14getNumerusInfoN7QLocale8LanguageENS_7CountryEP11QStringList
pyside2-lupdate:_Z18getSimilarityScoreRK7QStringPKc
pyside2-lupdate:_Z20applyNumberHeuristicP14MetaTranslator
pyside2-lupdate:_Z22applySameTextHeuristicP14MetaTranslator
pyside2-lupdate:_Z30similarTextHeuristicCandidatesPK14MetaTranslatorPKci
pyside2-lupdate:_Z5mergePK14MetaTranslatorS1_PS_bb
pyside2-lupdate:_Z8loadFileRK7QString
pyside2-lupdate:_ZN10Translator11qt_metacallEN11QMetaObject4CallEiPPv
pyside2-lupdate:_ZN10Translator11qt_metacastEPKc
pyside2-lupdate:_ZN10Translator16staticMetaObjectE
pyside2-lupdate:_ZN10Translator4loadEPKhi
pyside2-lupdate:_ZN10Translator4loadERK7QStringS2_S2_S2_
pyside2-lupdate:_ZN10Translator4saveERK7QStringNS_8SaveModeE
pyside2-lupdate:_ZN10Translator5clearEv
pyside2-lupdate:_ZN10Translator6insertERK17TranslatorMessage
pyside2-lupdate:_ZN10Translator6removeERK17TranslatorMessage
pyside2-lupdate:_ZN10Translator7squeezeENS_8SaveModeE
pyside2-lupdate:_ZN10Translator9unsqueezeEv
pyside2-lupdate:_ZN10TranslatorC1EP7QObject
pyside2-lupdate:_ZN10TranslatorC2EP7QObject
pyside2-lupdate:_ZN10TranslatorD0Ev
pyside2-lupdate:_ZN10TranslatorD1Ev
pyside2-lupdate:_ZN10TranslatorD2Ev
pyside2-lupdate:_ZN14MetaTranslator15setLanguageCodeERK7QString
pyside2-lupdate:_ZN14MetaTranslator18grammaticalNumerusEN7QLocale8LanguageENS0_7CountryE
pyside2-lupdate:_ZN14MetaTranslator18languageAndCountryERK7QStringPN7QLocale8LanguageEPNS3_7CountryE
pyside2-lupdate:_ZN14MetaTranslator18stripEmptyContextsEv
pyside2-lupdate:_ZN14MetaTranslator21makeFileNamesAbsoluteERK4QDir
pyside2-lupdate:_ZN14MetaTranslator21stripObsoleteMessagesEv
pyside2-lupdate:_ZN14MetaTranslator22normalizedTranslationsERK21MetaTranslatorMessageN7QLocale8LanguageENS3_7CountryE
pyside2-lupdate:_ZN14MetaTranslator4loadERK7QString
pyside2-lupdate:_ZN14MetaTranslator5clearEv
pyside2-lupdate:_ZN14MetaTranslator6insertERK21MetaTranslatorMessage
pyside2-lupdate:_ZN14MetaTranslator8setCodecEPKc
pyside2-lupdate:_ZN14MetaTranslatorC1ERKS_
pyside2-lupdate:_ZN14MetaTranslatorC1Ev
pyside2-lupdate:_ZN14MetaTranslatorC2ERKS_
pyside2-lupdate:_ZN14MetaTranslatorC2Ev
pyside2-lupdate:_ZN14MetaTranslatoraSERKS_
pyside2-lupdate:_ZN17TranslatorMessageC1EPKcS1_S1_RK7QStringiRK11QStringList
pyside2-lupdate:_ZN17TranslatorMessageC1ERKS_
pyside2-lupdate:_ZN17TranslatorMessageC1Ev
pyside2-lupdate:_ZN17TranslatorMessageC2EPKcS1_S1_RK7QStringiRK11QStringList
pyside2-lupdate:_ZN17TranslatorMessageC2ERKS_
pyside2-lupdate:_ZN17TranslatorMessageC2Ev
pyside2-lupdate:_ZN17TranslatorMessageaSERKS_
pyside2-lupdate:_ZN17TranslatorPrivate7do_loadEPKhi
pyside2-lupdate:_ZN21MetaTranslatorMessageC1EPKcS1_S1_RK7QStringiRK11QStringListbNS_4TypeEb
pyside2-lupdate:_ZN21MetaTranslatorMessageC1ERKS_
pyside2-lupdate:_ZN21MetaTranslatorMessageC1Ev
pyside2-lupdate:_ZN21MetaTranslatorMessageC2EPKcS1_S1_RK7QStringiRK11QStringListbNS_4TypeEb
pyside2-lupdate:_ZN21MetaTranslatorMessageC2ERKS_
pyside2-lupdate:_ZN21MetaTranslatorMessageC2Ev
pyside2-lupdate:_ZN21MetaTranslatorMessageaSERKS_
pyside2-lupdate:_ZN23StringSimilarityMatcher18getSimilarityScoreERK7QString
pyside2-lupdate:_ZN23StringSimilarityMatcherC1ERK7QString
pyside2-lupdate:_ZN23StringSimilarityMatcherC2ERK7QString
pyside2-lupdate:_ZN23StringSimilarityMatcherD1Ev
pyside2-lupdate:_ZN23StringSimilarityMatcherD2Ev
pyside2-lupdate:_ZN9TsHandler10charactersERK7QString
pyside2-lupdate:_ZN9TsHandler10endElementERK7QStringS2_S2_
pyside2-lupdate:_ZN9TsHandler10fatalErrorERK18QXmlParseException
pyside2-lupdate:_ZN9TsHandler12startElementERK7QStringS2_S2_RK14QXmlAttributes
pyside2-lupdate:_ZN9UiHandler10charactersERK7QString
pyside2-lupdate:_ZN9UiHandler10endElementERK7QStringS2_S2_
pyside2-lupdate:_ZN9UiHandler10fatalErrorERK18QXmlParseException
pyside2-lupdate:_ZN9UiHandler12startElementERK7QStringS2_S2_RK14QXmlAttributes
pyside2-lupdate:_ZN9UiHandler5flushEv
pyside2-lupdate:_ZNK10Translator10metaObjectEv
pyside2-lupdate:_ZNK10Translator11findMessageEPKcS1_S1_RK7QStringi
pyside2-lupdate:_ZNK10Translator7isEmptyEv
pyside2-lupdate:_ZNK10Translator8containsEPKcS1_RK7QStringi
pyside2-lupdate:_ZNK10Translator8containsEPKcS1_S1_
pyside2-lupdate:_ZNK10Translator8messagesEv
pyside2-lupdate:_ZNK14MetaTranslator12languageCodeEv
pyside2-lupdate:_ZNK14MetaTranslator18translatedMessagesEv
pyside2-lupdate:_ZNK14MetaTranslator4findEPKcS1_RK7QStringi
pyside2-lupdate:_ZNK14MetaTranslator4findEPKcS1_S1_
pyside2-lupdate:_ZNK14MetaTranslator4saveERK7QString
pyside2-lupdate:_ZNK14MetaTranslator7releaseERK7QStringbbN10Translator8SaveModeE
pyside2-lupdate:_ZNK14MetaTranslator8containsEPKcS1_S1_
pyside2-lupdate:_ZNK14MetaTranslator8messagesEv
pyside2-lupdate:_ZNK14MetaTranslator9toUnicodeEPKcb
pyside2-lupdate:_ZNK17TranslatorMessage12commonPrefixERKS_
pyside2-lupdate:_ZNK17TranslatorMessage5writeER11QDataStreambNS_6PrefixE
pyside2-lupdate:_ZNK17TranslatorMessageeqERKS_
pyside2-lupdate:_ZNK17TranslatorMessageltERKS_
pyside2-lupdate:_ZNK21MetaTranslatorMessageeqERKS_
pyside2-lupdate:_ZNK21MetaTranslatorMessageltERKS_
pyside2-lupdate:_ZTI10Translator
pyside2-lupdate:_ZTI9TsHandler
pyside2-lupdate:_ZTI9UiHandler
pyside2-lupdate:_ZTS10Translator
pyside2-lupdate:_ZTS9TsHandler
pyside2-lupdate:_ZTS9UiHandler
pyside2-lupdate:_ZTV10Translator
pyside2-lupdate:_ZTV9TsHandler
pyside2-lupdate:_ZTV9UiHandler
pyside2-lupdate:_ZThn8_N9TsHandler10fatalErrorERK18QXmlParseException
pyside2-lupdate:_ZThn8_N9UiHandler10fatalErrorERK18QXmlParseException
pyside2-lupdate:__data_start
pyside2-lupdate:_start
pyside2-lupdate:main
