UNKNOWN:_ZNSt7__cxx1112basic_stringIcSt11char_traitsIcESaIcEE10_M_disposeEv
UNKNOWN:_ZNSt7__cxx1112basic_stringIcSt11char_traitsIcESaIcEE9_M_mutateEmmPKcm
libQt6Core.so.6:_Z11qUncompressPKhx
libQt6Core.so.6:_Z15compareThreeWayRK9QDateTimeS1_
libQt6Core.so.6:_Z17qFormatLogMessage9QtMsgTypeRK18QMessageLogContextRK7QString
libQt6Core.so.6:_Z18qSetMessagePatternRK7QString
libQt6Core.so.6:_Z20qt_qFindChild_helperPK7QObject14QAnyStringViewRK11QMetaObject6QFlagsIN2Qt15FindChildOptionEE
libQt6Core.so.6:_Z21qRegisterResourceDataiPKhS0_S0_
libQt6Core.so.6:_Z22qInstallMessageHandlerPFv9QtMsgTypeRK18QMessageLogContextRK7QStringE
libQt6Core.so.6:_Z23qUnregisterResourceDataiPKhS0_S0_
libQt6Core.so.6:_Z23qt_qFindChildren_helperPK7QObjectRK18QRegularExpressionRK11QMetaObjectP5QListIPvE6QFlagsIN2Qt15FindChildOptionEE
libQt6Core.so.6:_Z26qt_QMetaEnum_debugOperatorR6QDebugxPK11QMetaObjectPKc
libQt6Core.so.6:_Z30qt_QMetaEnum_flagDebugOperatorR6QDebugyPK11QMetaObjectPKc
libQt6Core.so.6:_Z5qHash11QStringViewm
libQt6Core.so.6:_Z5qHash14QByteArrayViewm
libQt6Core.so.6:_Z5qHashdm
libQt6Core.so.6:_Z6qIsNaNd
libQt6Core.so.6:_Z7qputenvPKc14QByteArrayView
libQt6Core.so.6:_Z9qBadAllocv
libQt6Core.so.6:_Z9qChecksum14QByteArrayViewN2Qt12ChecksumTypeE
libQt6Core.so.6:_Z9qCompressPKhxi
libQt6Core.so.6:_ZN10QArrayData10deallocateEPS_xx
libQt6Core.so.6:_ZN10QArrayData19reallocateUnalignedEPS_PvxxNS_16AllocationOptionE
libQt6Core.so.6:_ZN10QArrayData8allocateEPPS_xxxNS_16AllocationOptionE
libQt6Core.so.6:_ZN10QArrayData9allocate1EPPS_xNS_16AllocationOptionE
libQt6Core.so.6:_ZN10QByteArray11reallocDataExN10QArrayData16AllocationOptionE
libQt6Core.so.6:_ZN10QByteArray14toLower_helperERS_
libQt6Core.so.6:_ZN10QByteArray17simplified_helperERS_
libQt6Core.so.6:_ZN10QByteArray4fillEcx
libQt6Core.so.6:_ZN10QByteArray5clearEv
libQt6Core.so.6:_ZN10QByteArray6_emptyE
libQt6Core.so.6:_ZN10QByteArray6appendERKS_
libQt6Core.so.6:_ZN10QByteArray6appendEc
libQt6Core.so.6:_ZN10QByteArray6insertEx14QByteArrayView
libQt6Core.so.6:_ZN10QByteArray6resizeEx
libQt6Core.so.6:_ZN10QByteArrayC1EPKcx
libQt6Core.so.6:_ZN10QByteArrayC1Exc
libQt6Core.so.6:_ZN10QByteArrayaSERKS_
libQt6Core.so.6:_ZN10QEventLoop4execE6QFlagsINS_17ProcessEventsFlagEE
libQt6Core.so.6:_ZN10QEventLoop4exitEi
libQt6Core.so.6:_ZN10QEventLoop4quitEv
libQt6Core.so.6:_ZN10QEventLoopC1EP7QObject
libQt6Core.so.6:_ZN10QEventLoopD1Ev
libQt6Core.so.6:_ZN10QExceptionD1Ev
libQt6Core.so.6:_ZN10QJsonArrayD1Ev
libQt6Core.so.6:_ZN10QJsonValueD1Ev
libQt6Core.so.6:_ZN10QSemaphore7acquireEi
libQt6Core.so.6:_ZN10QSemaphore7releaseEi
libQt6Core.so.6:_ZN10QSemaphoreC1Ei
libQt6Core.so.6:_ZN10QSemaphoreD1Ev
libQt6Core.so.6:_ZN11QBasicMutex12lockInternalEv
libQt6Core.so.6:_ZN11QBasicMutex15destroyInternalEPv
libQt6Core.so.6:_ZN11QBasicMutex19unlockInternalFutexEPv
libQt6Core.so.6:_ZN11QDataStream11readRawDataEPcx
libQt6Core.so.6:_ZN11QDataStream11resetStatusEv
libQt6Core.so.6:_ZN11QDataStream11skipRawDataEx
libQt6Core.so.6:_ZN11QDataStream12setByteOrderENS_9ByteOrderE
libQt6Core.so.6:_ZN11QDataStream12writeRawDataEPKcx
libQt6Core.so.6:_ZN11QDataStream9setStatusENS_6StatusE
libQt6Core.so.6:_ZN11QDataStreamC1EP10QByteArray6QFlagsIN13QIODeviceBase12OpenModeFlagEE
libQt6Core.so.6:_ZN11QDataStreamC1EP9QIODevice
libQt6Core.so.6:_ZN11QDataStreamC1ERK10QByteArray
libQt6Core.so.6:_ZN11QDataStreamD1Ev
libQt6Core.so.6:_ZN11QDataStreamlsEa
libQt6Core.so.6:_ZN11QDataStreamlsEd
libQt6Core.so.6:_ZN11QDataStreamlsEf
libQt6Core.so.6:_ZN11QDataStreamlsEi
libQt6Core.so.6:_ZN11QDataStreamlsEs
libQt6Core.so.6:_ZN11QDataStreamlsEx
libQt6Core.so.6:_ZN11QDataStreamrsERa
libQt6Core.so.6:_ZN11QDataStreamrsERb
libQt6Core.so.6:_ZN11QDataStreamrsERd
libQt6Core.so.6:_ZN11QDataStreamrsERf
libQt6Core.so.6:_ZN11QDataStreamrsERi
libQt6Core.so.6:_ZN11QDataStreamrsERs
libQt6Core.so.6:_ZN11QDataStreamrsERx
libQt6Core.so.6:_ZN11QFileDevice12readLineDataEPcx
libQt6Core.so.6:_ZN11QFileDevice3mapExx6QFlagsINS_13MemoryMapFlagEE
libQt6Core.so.6:_ZN11QFileDevice4seekEx
libQt6Core.so.6:_ZN11QFileDevice5closeEv
libQt6Core.so.6:_ZN11QFileDevice5flushEv
libQt6Core.so.6:_ZN11QFileDevice5unmapEPh
libQt6Core.so.6:_ZN11QFileDevice8readDataEPcx
libQt6Core.so.6:_ZN11QFileDevice9writeDataEPKcx
libQt6Core.so.6:_ZN11QJsonObjectD1Ev
libQt6Core.so.6:_ZN11QMetaObject10ConnectionD1Ev
libQt6Core.so.6:_ZN11QMetaObject14normalizedTypeEPKc
libQt6Core.so.6:_ZN11QMetaObject18connectSlotsByNameEP7QObject
libQt6Core.so.6:_ZN11QMetaObject8activateEP7QObjectPKS_iPPv
libQt6Core.so.6:_ZN11QTextStream11setEncodingEN16QStringConverter8EncodingE
libQt6Core.so.6:_ZN11QTextStream22setRealNumberPrecisionEi
libQt6Core.so.6:_ZN11QTextStream7readAllEv
libQt6Core.so.6:_ZN11QTextStream8readLineEx
libQt6Core.so.6:_ZN11QTextStreamC1EP7QString6QFlagsIN13QIODeviceBase12OpenModeFlagEE
libQt6Core.so.6:_ZN11QTextStreamC1EP9QIODevice
libQt6Core.so.6:_ZN11QTextStreamD1Ev
libQt6Core.so.6:_ZN11QTextStreamlsEPKc
libQt6Core.so.6:_ZN11QTextStreamlsERK7QString
libQt6Core.so.6:_ZN11QTextStreamlsEc
libQt6Core.so.6:_ZN11QTextStreamlsEd
libQt6Core.so.6:_ZN11QTextStreamlsEi
libQt6Core.so.6:_ZN11QTextStreamlsEj
libQt6Core.so.6:_ZN11QTextStreamlsEt
libQt6Core.so.6:_ZN11QTextStreamlsEx
libQt6Core.so.6:_ZN11QTextStreamlsEy
libQt6Core.so.6:_ZN11QTextStreamrsER7QString
libQt6Core.so.6:_ZN11QTextStreamrsERd
libQt6Core.so.6:_ZN11QTextStreamrsERi
libQt6Core.so.6:_ZN11QThreadPool11waitForDoneE14QDeadlineTimer
libQt6Core.so.6:_ZN11QThreadPool5clearEv
libQt6Core.so.6:_ZN11QThreadPool5startEP9QRunnablei
libQt6Core.so.6:_ZN11QThreadPoolC1EP7QObject
libQt6Core.so.6:_ZN11QThreadPoolD1Ev
libQt6Core.so.6:_ZN11QTranslator4loadERK7QStringS2_S2_S2_
libQt6Core.so.6:_ZN11QTranslatorC1EP7QObject
libQt6Core.so.6:_ZN12QDirIterator4nextEv
libQt6Core.so.6:_ZN12QDirIteratorC1ERK7QStringRK5QListIS0_E6QFlagsIN4QDir6FilterEES7_INS_12IteratorFlagEE
libQt6Core.so.6:_ZN12QDirIteratorD1Ev
libQt6Core.so.6:_ZN12QEasingCurveC1ENS_4TypeE
libQt6Core.so.6:_ZN12QEasingCurveD1Ev
libQt6Core.so.6:_ZN12QLibraryInfo4pathENS_11LibraryPathE
libQt6Core.so.6:_ZN13QElapsedTimer5startEv
libQt6Core.so.6:_ZN13QJsonDocument8fromJsonERK10QByteArrayP15QJsonParseError
libQt6Core.so.6:_ZN13QJsonDocumentD1Ev
libQt6Core.so.6:_ZN14QDeadlineTimerC1ExN2Qt9TimerTypeE
libQt6Core.so.6:_ZN14QStandardPaths14findExecutableERK7QStringRK5QListIS0_E
libQt6Core.so.6:_ZN14QStandardPaths17standardLocationsENS_16StandardLocationE
libQt6Core.so.6:_ZN14QTemporaryFile4openE6QFlagsIN13QIODeviceBase12OpenModeFlagEE
libQt6Core.so.6:_ZN14QTemporaryFileC1EP7QObject
libQt6Core.so.6:_ZN14QTemporaryFileC1ERK7QString
libQt6Core.so.6:_ZN14QTemporaryFileC1Ev
libQt6Core.so.6:_ZN14QTemporaryFileD1Ev
libQt6Core.so.6:_ZN15QRecursiveMutex6unlockEv
libQt6Core.so.6:_ZN15QRecursiveMutex7tryLockE14QDeadlineTimer
libQt6Core.so.6:_ZN15QRecursiveMutexD1Ev
libQt6Core.so.6:_ZN15QtSharedPointer20ExternalRefCountData9getAndRefEPK7QObject
libQt6Core.so.6:_ZN16QCoreApplication11aboutToQuitENS_14QPrivateSignalE
libQt6Core.so.6:_ZN16QCoreApplication13processEventsE6QFlagsIN10QEventLoop17ProcessEventsFlagEE
libQt6Core.so.6:_ZN16QCoreApplication13processEventsE6QFlagsIN10QEventLoop17ProcessEventsFlagEEi
libQt6Core.so.6:_ZN16QCoreApplication15applicationNameEv
libQt6Core.so.6:_ZN16QCoreApplication16staticMetaObjectE
libQt6Core.so.6:_ZN16QCoreApplication17installTranslatorEP11QTranslator
libQt6Core.so.6:_ZN16QCoreApplication18applicationDirPathEv
libQt6Core.so.6:_ZN16QCoreApplication18organizationDomainEv
libQt6Core.so.6:_ZN16QCoreApplication18setApplicationNameERK7QString
libQt6Core.so.6:_ZN16QCoreApplication19setOrganizationNameERK7QString
libQt6Core.so.6:_ZN16QCoreApplication21setApplicationVersionERK7QString
libQt6Core.so.6:_ZN16QCoreApplication21setOrganizationDomainERK7QString
libQt6Core.so.6:_ZN16QCoreApplication4selfE
libQt6Core.so.6:_ZN16QCoreApplication9argumentsEv
libQt6Core.so.6:_ZN16QCoreApplication9postEventEP7QObjectP6QEventi
libQt6Core.so.6:_ZN16QCoreApplication9sendEventEP7QObjectP6QEvent
libQt6Core.so.6:_ZN16QCoreApplication9translateEPKcS1_S1_i
libQt6Core.so.6:_ZN16QCoreApplicationC1ERiPPci
libQt6Core.so.6:_ZN16QCoreApplicationD1Ev
libQt6Core.so.6:_ZN16QDebugStateSaverC1ER6QDebug
libQt6Core.so.6:_ZN16QDebugStateSaverD1Ev
libQt6Core.so.6:_ZN16QRandomGenerator10_fillRangeEPvx
libQt6Core.so.6:_ZN16QStringConverter15encodingForNameE14QAnyStringView
libQt6Core.so.6:_ZN16QStringConverter18encodingInterfacesE
libQt6Core.so.6:_ZN16QStringListModel13setStringListERK5QListI7QStringE
libQt6Core.so.6:_ZN16QStringListModelC1EP7QObject
libQt6Core.so.6:_ZN17QVariantAnimation11setDurationEi
libQt6Core.so.6:_ZN17QVariantAnimation11setEndValueERK8QVariant
libQt6Core.so.6:_ZN17QVariantAnimation13setStartValueERK8QVariant
libQt6Core.so.6:_ZN17QVariantAnimation14setEasingCurveERK12QEasingCurve
libQt6Core.so.6:_ZN18QAbstractAnimation16staticMetaObjectE
libQt6Core.so.6:_ZN18QAbstractAnimation4stopEv
libQt6Core.so.6:_ZN18QAbstractAnimation5startENS_14DeletionPolicyE
libQt6Core.so.6:_ZN18QAbstractAnimation8finishedEv
libQt6Core.so.6:_ZN18QCommandLineOptionC1ERK5QListI7QStringERKS1_S6_S6_
libQt6Core.so.6:_ZN18QCommandLineOptionC1ERKS_
libQt6Core.so.6:_ZN18QCommandLineOptionD1Ev
libQt6Core.so.6:_ZN18QCommandLineParser10addOptionsERK5QListI18QCommandLineOptionE
libQt6Core.so.6:_ZN18QCommandLineParser13addHelpOptionEv
libQt6Core.so.6:_ZN18QCommandLineParser16addVersionOptionEv
libQt6Core.so.6:_ZN18QCommandLineParser21addPositionalArgumentERK7QStringS2_S2_
libQt6Core.so.6:_ZN18QCommandLineParser25setApplicationDescriptionERK7QString
libQt6Core.so.6:_ZN18QCommandLineParser5parseERK5QListI7QStringE
libQt6Core.so.6:_ZN18QCommandLineParser7processERK16QCoreApplication
libQt6Core.so.6:_ZN18QCommandLineParser7processERK5QListI7QStringE
libQt6Core.so.6:_ZN18QCommandLineParser8showHelpEi
libQt6Core.so.6:_ZN18QCommandLineParser9addOptionERK18QCommandLineOption
libQt6Core.so.6:_ZN18QCommandLineParserC1Ev
libQt6Core.so.6:_ZN18QCommandLineParserD1Ev
libQt6Core.so.6:_ZN18QCryptographicHash5resetEv
libQt6Core.so.6:_ZN18QCryptographicHash7addDataE14QByteArrayView
libQt6Core.so.6:_ZN18QCryptographicHashC1ENS_9AlgorithmE
libQt6Core.so.6:_ZN18QCryptographicHashD1Ev
libQt6Core.so.6:_ZN18QJsonValueConstRef8concreteES_
libQt6Core.so.6:_ZN18QPropertyAnimationC1EP7QObjectRK10QByteArrayS1_
libQt6Core.so.6:_ZN18QRandomGenerator646globalEv
libQt6Core.so.6:_ZN18QRegularExpression15anchoredPatternE11QStringView
libQt6Core.so.6:_ZN18QRegularExpressionC1ERK7QString6QFlagsINS_13PatternOptionEE
libQt6Core.so.6:_ZN18QRegularExpressionD1Ev
libQt6Core.so.6:_ZN19QProcessEnvironment17systemEnvironmentEv
libQt6Core.so.6:_ZN19QProcessEnvironmentD1Ev
libQt6Core.so.6:_ZN20QStringConverterBase5State5clearEv
libQt6Core.so.6:_ZN21QAbstractConcatenable15convertFromUtf8E14QByteArrayViewRP5QChar
libQt6Core.so.6:_ZN23QRegularExpressionMatchC1Ev
libQt6Core.so.6:_ZN23QRegularExpressionMatchD1Ev
libQt6Core.so.6:_ZN2Qt16staticMetaObjectE
libQt6Core.so.6:_ZN2Qt3bomER11QTextStream
libQt6Core.so.6:_ZN2Qt3hexER11QTextStream
libQt6Core.so.6:_ZN2Qt4endlER11QTextStream
libQt6Core.so.6:_ZN31QRegularExpressionMatchIterator4nextEv
libQt6Core.so.6:_ZN31QRegularExpressionMatchIteratorD1Ev
libQt6Core.so.6:_ZN4QDir17removeRecursivelyEv
libQt6Core.so.6:_ZN4QDir2cdERK7QString
libQt6Core.so.6:_ZN4QDir4cdUpEv
libQt6Core.so.6:_ZN4QDir6removeERK7QString
libQt6Core.so.6:_ZN4QDir6renameERK7QStringS2_
libQt6Core.so.6:_ZN4QDir7setPathERK7QString
libQt6Core.so.6:_ZN4QDir8homePathEv
libQt6Core.so.6:_ZN4QDir8rootPathEv
libQt6Core.so.6:_ZN4QDir8tempPathEv
libQt6Core.so.6:_ZN4QDir9cleanPathERK7QString
libQt6Core.so.6:_ZN4QDirC1ERK7QString
libQt6Core.so.6:_ZN4QDirD1Ev
libQt6Core.so.6:_ZN4QDiraSERKS_
libQt6Core.so.6:_ZN4QUrl6setUrlERK7QStringNS_11ParsingModeE
libQt6Core.so.6:_ZN4QUrl7setHostERK7QStringNS_11ParsingModeE
libQt6Core.so.6:_ZN4QUrl7setPathERK7QStringNS_11ParsingModeE
libQt6Core.so.6:_ZN4QUrl7setPortEi
libQt6Core.so.6:_ZN4QUrl8setQueryERK9QUrlQuery
libQt6Core.so.6:_ZN4QUrlC1ERK7QStringNS_11ParsingModeE
libQt6Core.so.6:_ZN4QUrlC1ERKS_
libQt6Core.so.6:_ZN4QUrlC1Ev
libQt6Core.so.6:_ZN4QUrlD1Ev
libQt6Core.so.6:_ZN4QUrlaSERK7QString
libQt6Core.so.6:_ZN4QUrlaSERKS_
libQt6Core.so.6:_ZN5QChar10digitValueEDi
libQt6Core.so.6:_ZN5QChar8categoryEDi
libQt6Core.so.6:_ZN5QDate11currentDateEv
libQt6Core.so.6:_ZN5QDateC1Eiii
libQt6Core.so.6:_ZN5QFile11qt_metacallEN11QMetaObject4CallEiPPv
libQt6Core.so.6:_ZN5QFile11qt_metacastEPKc
libQt6Core.so.6:_ZN5QFile11setFileNameERK7QString
libQt6Core.so.6:_ZN5QFile14setPermissionsE6QFlagsIN11QFileDevice10PermissionEE
libQt6Core.so.6:_ZN5QFile4copyERK7QString
libQt6Core.so.6:_ZN5QFile4copyERK7QStringS2_
libQt6Core.so.6:_ZN5QFile4openE6QFlagsIN13QIODeviceBase12OpenModeFlagEE
libQt6Core.so.6:_ZN5QFile6existsERK7QString
libQt6Core.so.6:_ZN5QFile6removeERK7QString
libQt6Core.so.6:_ZN5QFile6removeEv
libQt6Core.so.6:_ZN5QFile6renameERK7QString
libQt6Core.so.6:_ZN5QFile6renameERK7QStringS2_
libQt6Core.so.6:_ZN5QFile6resizeERK7QStringx
libQt6Core.so.6:_ZN5QFile6resizeEx
libQt6Core.so.6:_ZN5QFileC1ERK7QString
libQt6Core.so.6:_ZN5QFileC2ERK7QString
libQt6Core.so.6:_ZN5QFileD1Ev
libQt6Core.so.6:_ZN5QFileD2Ev
libQt6Core.so.6:_ZN5QTime10fromStringERK7QString11QStringView
libQt6Core.so.6:_ZN5QTimeC1Eiiii
libQt6Core.so.6:_ZN6QDebug12putByteArrayEPKcmNS_13Latin1ContentE
libQt6Core.so.6:_ZN6QDebug9putStringEPK5QCharm
libQt6Core.so.6:_ZN6QDebugD1Ev
libQt6Core.so.6:_ZN6QEventC2ENS_4TypeE
libQt6Core.so.6:_ZN6QEventD2Ev
libQt6Core.so.6:_ZN6QTimer10singleShotENSt6chrono8durationIlSt5ratioILl1ELl1000000000EEEEN2Qt9TimerTypeEPK7QObjectPKc
libQt6Core.so.6:_ZN6QTimer11setIntervalEi
libQt6Core.so.6:_ZN6QTimer13setSingleShotEb
libQt6Core.so.6:_ZN6QTimer14singleShotImplENSt6chrono8durationIlSt5ratioILl1ELl1000000000EEEEN2Qt9TimerTypeEPK7QObjectPN9QtPrivate15QSlotObjectBaseE
libQt6Core.so.6:_ZN6QTimer16staticMetaObjectE
libQt6Core.so.6:_ZN6QTimer4stopEv
libQt6Core.so.6:_ZN6QTimer5startEi
libQt6Core.so.6:_ZN6QTimer5startEv
libQt6Core.so.6:_ZN6QTimer7timeoutENS_14QPrivateSignalE
libQt6Core.so.6:_ZN6QTimerC1EP7QObject
libQt6Core.so.6:_ZN6QTimerD1Ev
libQt6Core.so.6:_ZN7QBuffer4openE6QFlagsIN13QIODeviceBase12OpenModeFlagEE
libQt6Core.so.6:_ZN7QBuffer4seekEx
libQt6Core.so.6:_ZN7QBuffer6bufferEv
libQt6Core.so.6:_ZN7QBufferC1EP10QByteArrayP7QObject
libQt6Core.so.6:_ZN7QBufferC1EP7QObject
libQt6Core.so.6:_ZN7QBufferD1Ev
libQt6Core.so.6:_ZN7QLocale6systemEv
libQt6Core.so.6:_ZN7QLocaleC1ENS_8LanguageENS_6ScriptENS_7CountryE
libQt6Core.so.6:_ZN7QLocaleC1ENS_8LanguageENS_7CountryE
libQt6Core.so.6:_ZN7QLocaleC1Ev
libQt6Core.so.6:_ZN7QLocaleD1Ev
libQt6Core.so.6:_ZN7QObject10childEventEP11QChildEvent
libQt6Core.so.6:_ZN7QObject10disconnectEPKS_PKcS1_S3_
libQt6Core.so.6:_ZN7QObject10timerEventEP11QTimerEvent
libQt6Core.so.6:_ZN7QObject11connectImplEPKS_PPvS1_S3_PN9QtPrivate15QSlotObjectBaseEN2Qt14ConnectionTypeEPKiPK11QMetaObject
libQt6Core.so.6:_ZN7QObject11customEventEP6QEvent
libQt6Core.so.6:_ZN7QObject11deleteLaterEv
libQt6Core.so.6:_ZN7QObject11eventFilterEPS_P6QEvent
libQt6Core.so.6:_ZN7QObject11qt_metacallEN11QMetaObject4CallEiPPv
libQt6Core.so.6:_ZN7QObject11qt_metacastEPKc
libQt6Core.so.6:_ZN7QObject12blockSignalsEb
libQt6Core.so.6:_ZN7QObject13connectNotifyERK11QMetaMethod
libQt6Core.so.6:_ZN7QObject13doSetPropertyEPKcRK8QVariantPS2_
libQt6Core.so.6:_ZN7QObject13setObjectNameE14QAnyStringView
libQt6Core.so.6:_ZN7QObject14disconnectImplEPKS_PPvS1_S3_PK11QMetaObject
libQt6Core.so.6:_ZN7QObject15doSetObjectNameERK7QString
libQt6Core.so.6:_ZN7QObject16disconnectNotifyERK11QMetaMethod
libQt6Core.so.6:_ZN7QObject16staticMetaObjectE
libQt6Core.so.6:_ZN7QObject18installEventFilterEPS_
libQt6Core.so.6:_ZN7QObject5eventEP6QEvent
libQt6Core.so.6:_ZN7QObject7connectEPKS_PKcS1_S3_N2Qt14ConnectionTypeE
libQt6Core.so.6:_ZN7QObject9destroyedEPS_
libQt6Core.so.6:_ZN7QObject9setParentEPS_
libQt6Core.so.6:_ZN7QObjectC2EPS_
libQt6Core.so.6:_ZN7QObjectD2Ev
libQt6Core.so.6:_ZN7QString10fromLatin1E14QByteArrayView
libQt6Core.so.6:_ZN7QString11reallocDataExN10QArrayData16AllocationOptionE
libQt6Core.so.6:_ZN7QString13fromLocal8BitE14QByteArrayView
libQt6Core.so.6:_ZN7QString13toUtf8_helperERKS_
libQt6Core.so.6:_ZN7QString14compare_helperEPK5QCharxPKcxN2Qt15CaseSensitivityE
libQt6Core.so.6:_ZN7QString14toLower_helperERKS_
libQt6Core.so.6:_ZN7QString14toLower_helperERS_
libQt6Core.so.6:_ZN7QString14toUpper_helperERKS_
libQt6Core.so.6:_ZN7QString14toUpper_helperERS_
libQt6Core.so.6:_ZN7QString14trimmed_helperERKS_
libQt6Core.so.6:_ZN7QString14trimmed_helperERS_
libQt6Core.so.6:_ZN7QString15toLatin1_helperERKS_
libQt6Core.so.6:_ZN7QString17simplified_helperERKS_
libQt6Core.so.6:_ZN7QString17simplified_helperERS_
libQt6Core.so.6:_ZN7QString17toIntegral_helperE11QStringViewPbi
libQt6Core.so.6:_ZN7QString17toIntegral_helperE11QStringViewPbj
libQt6Core.so.6:_ZN7QString18toLocal8Bit_helperEPK5QCharx
libQt6Core.so.6:_ZN7QString23toLatin1_helper_inplaceERS_
libQt6Core.so.6:_ZN7QString4chopEx
libQt6Core.so.6:_ZN7QString6_emptyE
libQt6Core.so.6:_ZN7QString6appendE20QBasicUtf8StringViewILb0EE
libQt6Core.so.6:_ZN7QString6appendE5QChar
libQt6Core.so.6:_ZN7QString6appendERKS_
libQt6Core.so.6:_ZN7QString6assignE14QAnyStringView
libQt6Core.so.6:_ZN7QString6insertEx20QBasicUtf8StringViewILb0EE
libQt6Core.so.6:_ZN7QString6insertEx5QChar
libQt6Core.so.6:_ZN7QString6insertExPK5QCharx
libQt6Core.so.6:_ZN7QString6numberEdci
libQt6Core.so.6:_ZN7QString6numberEii
libQt6Core.so.6:_ZN7QString6numberEji
libQt6Core.so.6:_ZN7QString6numberExi
libQt6Core.so.6:_ZN7QString6numberEyi
libQt6Core.so.6:_ZN7QString6removeERKS_N2Qt15CaseSensitivityE
libQt6Core.so.6:_ZN7QString6removeExx
libQt6Core.so.6:_ZN7QString6resizeEx
libQt6Core.so.6:_ZN7QString6setNumExi
libQt6Core.so.6:_ZN7QString7replaceE5QCharRKS_N2Qt15CaseSensitivityE
libQt6Core.so.6:_ZN7QString7replaceERK18QRegularExpressionRKS_
libQt6Core.so.6:_ZN7QString7replaceERKS_S1_N2Qt15CaseSensitivityE
libQt6Core.so.6:_ZN7QString8asprintfEPKcz
libQt6Core.so.6:_ZN7QString8fromUcs4EPKDix
libQt6Core.so.6:_ZN7QString8fromUtf8E14QByteArrayView
libQt6Core.so.6:_ZN7QString8truncateEx
libQt6Core.so.6:_ZN7QStringC1E5QChar
libQt6Core.so.6:_ZN7QStringC1EPK5QCharx
libQt6Core.so.6:_ZN7QStringC1ExN2Qt14InitializationE
libQt6Core.so.6:_ZN7QStringaSERKS_
libQt6Core.so.6:_ZN7QThread11qt_metacallEN11QMetaObject4CallEiPPv
libQt6Core.so.6:_ZN7QThread11qt_metacastEPKc
libQt6Core.so.6:_ZN7QThread13currentThreadEv
libQt6Core.so.6:_ZN7QThread16staticMetaObjectE
libQt6Core.so.6:_ZN7QThread4quitEv
libQt6Core.so.6:_ZN7QThread4waitE14QDeadlineTimer
libQt6Core.so.6:_ZN7QThread5eventEP6QEvent
libQt6Core.so.6:_ZN7QThread5startENS_8PriorityE
libQt6Core.so.6:_ZN7QThread6msleepEm
libQt6Core.so.6:_ZN7QThread7startedENS_14QPrivateSignalE
libQt6Core.so.6:_ZN7QThread8finishedENS_14QPrivateSignalE
libQt6Core.so.6:_ZN7QThreadC2EP7QObject
libQt6Core.so.6:_ZN7QThreadD2Ev
libQt6Core.so.6:_ZN8QProcess12stateChangedENS_12ProcessStateENS_14QPrivateSignalE
libQt6Core.so.6:_ZN8QProcess13errorOccurredENS_12ProcessErrorE
libQt6Core.so.6:_ZN8QProcess13startDetachedERK7QStringRK5QListIS0_ES2_Px
libQt6Core.so.6:_ZN8QProcess14waitForStartedEi
libQt6Core.so.6:_ZN8QProcess15waitForFinishedEi
libQt6Core.so.6:_ZN8QProcess16staticMetaObjectE
libQt6Core.so.6:_ZN8QProcess19setWorkingDirectoryERK7QString
libQt6Core.so.6:_ZN8QProcess20readAllStandardErrorEv
libQt6Core.so.6:_ZN8QProcess21readAllStandardOutputEv
libQt6Core.so.6:_ZN8QProcess22readyReadStandardErrorENS_14QPrivateSignalE
libQt6Core.so.6:_ZN8QProcess23readyReadStandardOutputENS_14QPrivateSignalE
libQt6Core.so.6:_ZN8QProcess4killEv
libQt6Core.so.6:_ZN8QProcess5startERK7QStringRK5QListIS0_E6QFlagsIN13QIODeviceBase12OpenModeFlagEE
libQt6Core.so.6:_ZN8QProcess8finishedEiNS_10ExitStatusE
libQt6Core.so.6:_ZN8QProcess9terminateEv
libQt6Core.so.6:_ZN8QProcessC1EP7QObject
libQt6Core.so.6:_ZN8QProcessD1Ev
libQt6Core.so.6:_ZN8QVariant13moveConstructE9QMetaTypePv
libQt6Core.so.6:_ZN8QVariantC1E5QSize
libQt6Core.so.6:_ZN8QVariantC1E6QRectF
libQt6Core.so.6:_ZN8QVariantC1E7QPointF
libQt6Core.so.6:_ZN8QVariantC1E9QMetaTypePKv
libQt6Core.so.6:_ZN8QVariantC1ERK10QByteArray
libQt6Core.so.6:_ZN8QVariantC1ERK4QMapI7QStringS_E
libQt6Core.so.6:_ZN8QVariantC1ERK5QListI7QStringE
libQt6Core.so.6:_ZN8QVariantC1ERK7QString
libQt6Core.so.6:_ZN8QVariantC1ERK9QDateTime
libQt6Core.so.6:_ZN8QVariantC1ERKS_
libQt6Core.so.6:_ZN8QVariantC1Eb
libQt6Core.so.6:_ZN8QVariantC1Ed
libQt6Core.so.6:_ZN8QVariantC1Ef
libQt6Core.so.6:_ZN8QVariantC1Ei
libQt6Core.so.6:_ZN8QVariantC1Ej
libQt6Core.so.6:_ZN8QVariantC1Ex
libQt6Core.so.6:_ZN8QVariantC1Ey
libQt6Core.so.6:_ZN8QVariantD1Ev
libQt6Core.so.6:_ZN8QVariantaSERKS_
libQt6Core.so.6:_ZN9QCollator14setNumericModeEb
libQt6Core.so.6:_ZN9QCollatorC1Ev
libQt6Core.so.6:_ZN9QCollatorD1Ev
libQt6Core.so.6:_ZN9QDateTime10fromStringE11QStringViewN2Qt10DateFormatE
libQt6Core.so.6:_ZN9QDateTime10fromStringERK7QString11QStringViewi
libQt6Core.so.6:_ZN9QDateTime11setTimeZoneERK9QTimeZoneNS_20TransitionResolutionE
libQt6Core.so.6:_ZN9QDateTime15currentDateTimeEv
libQt6Core.so.6:_ZN9QDateTime18currentDateTimeUtcEv
libQt6Core.so.6:_ZN9QDateTime18fromSecsSinceEpochEx
libQt6Core.so.6:_ZN9QDateTime18fromSecsSinceEpochExRK9QTimeZone
libQt6Core.so.6:_ZN9QDateTime21currentSecsSinceEpochEv
libQt6Core.so.6:_ZN9QDateTime7setDateE5QDateNS_20TransitionResolutionE
libQt6Core.so.6:_ZN9QDateTime7setTimeE5QTimeNS_20TransitionResolutionE
libQt6Core.so.6:_ZN9QDateTimeC1E5QDate5QTimeRK9QTimeZoneNS_20TransitionResolutionE
libQt6Core.so.6:_ZN9QDateTimeC1EOS_
libQt6Core.so.6:_ZN9QDateTimeC1ERKS_
libQt6Core.so.6:_ZN9QDateTimeC1Ev
libQt6Core.so.6:_ZN9QDateTimeD1Ev
libQt6Core.so.6:_ZN9QDateTimeaSERKS_
libQt6Core.so.6:_ZN9QFileInfoC1ERK11QFileDevice
libQt6Core.so.6:_ZN9QFileInfoC1ERK4QDirRK7QString
libQt6Core.so.6:_ZN9QFileInfoC1ERK7QString
libQt6Core.so.6:_ZN9QFileInfoD1Ev
libQt6Core.so.6:_ZN9QHashSeed10globalSeedEv
libQt6Core.so.6:_ZN9QIODevice16staticMetaObjectE
libQt6Core.so.6:_ZN9QIODevice16waitForReadyReadEi
libQt6Core.so.6:_ZN9QIODevice19waitForBytesWrittenEi
libQt6Core.so.6:_ZN9QIODevice4readEPcx
libQt6Core.so.6:_ZN9QIODevice4readEx
libQt6Core.so.6:_ZN9QIODevice5resetEv
libQt6Core.so.6:_ZN9QIODevice5writeERK10QByteArray
libQt6Core.so.6:_ZN9QIODevice7readAllEv
libQt6Core.so.6:_ZN9QIODevice8readLineEx
libQt6Core.so.6:_ZN9QIODevice8skipDataEx
libQt6Core.so.6:_ZN9QIODevice9readyReadEv
libQt6Core.so.6:_ZN9QMetaType14registerHelperEPKN9QtPrivate18QMetaTypeInterfaceE
libQt6Core.so.6:_ZN9QMetaType25registerConverterFunctionERKSt8functionIFbPKvPvEES_S_
libQt6Core.so.6:_ZN9QMetaType25registerNormalizedTypedefERK10QByteArrayS_
libQt6Core.so.6:_ZN9QMetaType27registerMutableViewFunctionERKSt8functionIFbPvS1_EES_S_
libQt6Core.so.6:_ZN9QMetaType27unregisterConverterFunctionES_S_
libQt6Core.so.6:_ZN9QMetaType29unregisterMutableViewFunctionES_S_
libQt6Core.so.6:_ZN9QMetaType7convertES_PKvS_Pv
libQt6Core.so.6:_ZN9QMetaTypeC1Ei
libQt6Core.so.6:_ZN9QRunnableD2Ev
libQt6Core.so.6:_ZN9QSettings10beginGroupE14QAnyStringView
libQt6Core.so.6:_ZN9QSettings13setArrayIndexEi
libQt6Core.so.6:_ZN9QSettings14beginReadArrayE14QAnyStringView
libQt6Core.so.6:_ZN9QSettings15beginWriteArrayE14QAnyStringViewi
libQt6Core.so.6:_ZN9QSettings4syncEv
libQt6Core.so.6:_ZN9QSettings5clearEv
libQt6Core.so.6:_ZN9QSettings6removeE14QAnyStringView
libQt6Core.so.6:_ZN9QSettings8endArrayEv
libQt6Core.so.6:_ZN9QSettings8endGroupEv
libQt6Core.so.6:_ZN9QSettings8setValueE14QAnyStringViewRK8QVariant
libQt6Core.so.6:_ZN9QSettingsC1EP7QObject
libQt6Core.so.6:_ZN9QSettingsC1ERK7QStringNS_6FormatEP7QObject
libQt6Core.so.6:_ZN9QSettingsD1Ev
libQt6Core.so.6:_ZN9QTimeZone14systemTimeZoneEv
libQt6Core.so.6:_ZN9QTimeZone16systemTimeZoneIdEv
libQt6Core.so.6:_ZN9QTimeZone20availableTimeZoneIdsEv
libQt6Core.so.6:_ZN9QTimeZone3utcEv
libQt6Core.so.6:_ZN9QTimeZoneC1ERK10QByteArray
libQt6Core.so.6:_ZN9QTimeZoneC1Ev
libQt6Core.so.6:_ZN9QTimeZoneD1Ev
libQt6Core.so.6:_ZN9QUrlQuery12addQueryItemERK7QStringS2_
libQt6Core.so.6:_ZN9QUrlQueryC1ERK7QString
libQt6Core.so.6:_ZN9QUrlQueryC1Ev
libQt6Core.so.6:_ZN9QUrlQueryD1Ev
libQt6Core.so.6:_ZN9QtPrivate12argToQStringE14QAnyStringViewmPPKNS_7ArgBaseE
libQt6Core.so.6:_ZN9QtPrivate12equalStringsE11QStringView13QLatin1String
libQt6Core.so.6:_ZN9QtPrivate12equalStringsE11QStringViewS0_
libQt6Core.so.6:_ZN9QtPrivate13compareMemoryE14QByteArrayViewS0_
libQt6Core.so.6:_ZN9QtPrivate14compareStringsE11QStringViewS0_N2Qt15CaseSensitivityE
libQt6Core.so.6:_ZN9QtPrivate16QStringList_joinEPK5QListI7QStringEPK5QCharx
libQt6Core.so.6:_ZN9QtPrivate16QStringList_sortEP5QListI7QStringEN2Qt15CaseSensitivityE
libQt6Core.so.6:_ZN9QtPrivate18QStringList_filterEPK5QListI7QStringE11QStringViewN2Qt15CaseSensitivityE
libQt6Core.so.6:_ZN9QtPrivate18QStringList_filterEPK5QListI7QStringERK18QRegularExpression
libQt6Core.so.6:_ZN9QtPrivate19QStringList_indexOfERK5QListI7QStringE11QStringViewxN2Qt15CaseSensitivityE
libQt6Core.so.6:_ZN9QtPrivate20QStringList_containsEPK5QListI7QStringE11QStringViewN2Qt15CaseSensitivityE
libQt6Core.so.6:_ZN9QtPrivate25QMetaTypeInterfaceWrapperI10QByteArrayE8metaTypeE
libQt6Core.so.6:_ZN9QtPrivate25QMetaTypeInterfaceWrapperI11QModelIndexE8metaTypeE
libQt6Core.so.6:_ZN9QtPrivate25QMetaTypeInterfaceWrapperI4QMapI7QString8QVariantEE8metaTypeE
libQt6Core.so.6:_ZN9QtPrivate25QMetaTypeInterfaceWrapperI4QUrlE8metaTypeE
libQt6Core.so.6:_ZN9QtPrivate25QMetaTypeInterfaceWrapperI5QListI7QStringEE8metaTypeE
libQt6Core.so.6:_ZN9QtPrivate25QMetaTypeInterfaceWrapperI5QSizeE8metaTypeE
libQt6Core.so.6:_ZN9QtPrivate25QMetaTypeInterfaceWrapperI6QPointE8metaTypeE
libQt6Core.so.6:_ZN9QtPrivate25QMetaTypeInterfaceWrapperI6QRectFE8metaTypeE
libQt6Core.so.6:_ZN9QtPrivate25QMetaTypeInterfaceWrapperI7QPointFE8metaTypeE
libQt6Core.so.6:_ZN9QtPrivate25QMetaTypeInterfaceWrapperI7QStringE8metaTypeE
libQt6Core.so.6:_ZN9QtPrivate25QMetaTypeInterfaceWrapperI9QDateTimeE8metaTypeE
libQt6Core.so.6:_ZN9QtPrivate25QMetaTypeInterfaceWrapperIbE8metaTypeE
libQt6Core.so.6:_ZN9QtPrivate25QMetaTypeInterfaceWrapperIdE8metaTypeE
libQt6Core.so.6:_ZN9QtPrivate25QMetaTypeInterfaceWrapperIiE8metaTypeE
libQt6Core.so.6:_ZN9QtPrivate25QMetaTypeInterfaceWrapperIjE8metaTypeE
libQt6Core.so.6:_ZN9QtPrivate25QMetaTypeInterfaceWrapperItE8metaTypeE
libQt6Core.so.6:_ZN9QtPrivate25QMetaTypeInterfaceWrapperIxE8metaTypeE
libQt6Core.so.6:_ZN9QtPrivate25QMetaTypeInterfaceWrapperIyE8metaTypeE
libQt6Core.so.6:_ZN9QtPrivate28QStringList_removeDuplicatesEP5QListI7QStringE
libQt6Core.so.6:_ZN9QtPrivate52hasRegisteredConverterFunctionToIterableMetaSequenceE9QMetaType
libQt6Core.so.6:_ZN9QtPrivate54hasRegisteredMutableViewFunctionToIterableMetaSequenceE9QMetaType
libQt6Core.so.6:_ZN9QtPrivate55hasRegisteredConverterFunctionToIterableMetaAssociationE9QMetaType
libQt6Core.so.6:_ZN9QtPrivate57hasRegisteredMutableViewFunctionToIterableMetaAssociationE9QMetaType
libQt6Core.so.6:_ZN9QtPrivate8qustrchrE11QStringViewDs
libQt6Core.so.6:_ZNK10QByteArray5toHexEc
libQt6Core.so.6:_ZNK10QJsonArray4sizeEv
libQt6Core.so.6:_ZNK10QJsonArrayixEx
libQt6Core.so.6:_ZNK10QJsonValue5toIntEi
libQt6Core.so.6:_ZNK10QJsonValue6toBoolEb
libQt6Core.so.6:_ZNK10QJsonValue7toArrayEv
libQt6Core.so.6:_ZNK10QJsonValue8toDoubleEd
libQt6Core.so.6:_ZNK10QJsonValue8toObjectEv
libQt6Core.so.6:_ZNK10QJsonValue8toStringEv
libQt6Core.so.6:_ZNK10QJsonValue9toVariantEv
libQt6Core.so.6:_ZNK10QSemaphore9availableEv
libQt6Core.so.6:_ZNK11QDataStream26isDeviceTransactionStartedEv
libQt6Core.so.6:_ZNK11QDataStream5atEndEv
libQt6Core.so.6:_ZNK11QFileDevice12isSequentialEv
libQt6Core.so.6:_ZNK11QFileDevice3posEv
libQt6Core.so.6:_ZNK11QFileDevice5atEndEv
libQt6Core.so.6:_ZNK11QFileDevice5errorEv
libQt6Core.so.6:_ZNK11QFileDevice6handleEv
libQt6Core.so.6:_ZNK11QJsonObject5valueERK7QString
libQt6Core.so.6:_ZNK11QJsonObjectixERK7QString
libQt6Core.so.6:_ZNK11QMetaObject2trEPKcS1_i
libQt6Core.so.6:_ZNK11QMetaObject4castEPK7QObject
libQt6Core.so.6:_ZNK11QMetaObject9classNameEv
libQt6Core.so.6:_ZNK11QObjectData17dynamicMetaObjectEv
libQt6Core.so.6:_ZNK11QTextStream5atEndEv
libQt6Core.so.6:_ZNK12QDirIterator7hasNextEv
libQt6Core.so.6:_ZNK12QDirIterator8fileNameEv
libQt6Core.so.6:_ZNK12QDirIterator8filePathEv
libQt6Core.so.6:_ZNK12QEasingCurve16valueForProgressEd
libQt6Core.so.6:_ZNK13QElapsedTimer7elapsedEv
libQt6Core.so.6:_ZNK13QJsonDocument5arrayEv
libQt6Core.so.6:_ZNK13QJsonDocument6objectEv
libQt6Core.so.6:_ZNK13QJsonDocument7isArrayEv
libQt6Core.so.6:_ZNK14QMessageLogger5debugEv
libQt6Core.so.6:_ZNK14QMessageLogger7warningEPKcz
libQt6Core.so.6:_ZNK14QMessageLogger7warningEv
libQt6Core.so.6:_ZNK14QMessageLogger8criticalEPKcz
libQt6Core.so.6:_ZNK14QTemporaryFile8fileNameEv
libQt6Core.so.6:_ZNK15QJsonParseError11errorStringEv
libQt6Core.so.6:_ZNK18QCommandLineParser19positionalArgumentsEv
libQt6Core.so.6:_ZNK18QCommandLineParser5isSetERK18QCommandLineOption
libQt6Core.so.6:_ZNK18QCommandLineParser5valueERK18QCommandLineOption
libQt6Core.so.6:_ZNK18QCommandLineParser5valueERK7QString
libQt6Core.so.6:_ZNK18QCommandLineParser8helpTextEv
libQt6Core.so.6:_ZNK18QCommandLineParser9errorTextEv
libQt6Core.so.6:_ZNK18QCryptographicHash6resultEv
libQt6Core.so.6:_ZNK18QRegularExpression11globalMatchERK7QStringxNS_9MatchTypeE6QFlagsINS_11MatchOptionEE
libQt6Core.so.6:_ZNK18QRegularExpression5matchERK7QStringxNS_9MatchTypeE6QFlagsINS_11MatchOptionEE
libQt6Core.so.6:_ZNK19QItemSelectionModel12hasSelectionEv
libQt6Core.so.6:_ZNK19QItemSelectionModel13isRowSelectedEiRK11QModelIndex
libQt6Core.so.6:_ZNK19QItemSelectionModel15selectedIndexesEv
libQt6Core.so.6:_ZNK19QProcessEnvironment12toStringListEv
libQt6Core.so.6:_ZNK23QRegularExpressionMatch8capturedEi
libQt6Core.so.6:_ZNK23QRegularExpressionMatch8hasMatchEv
libQt6Core.so.6:_ZNK31QRegularExpressionMatchIterator7hasNextEv
libQt6Core.so.6:_ZNK4QDir12absolutePathEv
libQt6Core.so.6:_ZNK4QDir13entryInfoListERK5QListI7QStringE6QFlagsINS_6FilterEES5_INS_8SortFlagEE
libQt6Core.so.6:_ZNK4QDir16absoluteFilePathERK7QString
libQt6Core.so.6:_ZNK4QDir16relativeFilePathERK7QString
libQt6Core.so.6:_ZNK4QDir4pathEv
libQt6Core.so.6:_ZNK4QDir5mkdirERK7QStringSt8optionalI6QFlagsIN11QFileDevice10PermissionEEE
libQt6Core.so.6:_ZNK4QDir5rmdirERK7QString
libQt6Core.so.6:_ZNK4QDir6existsERK7QString
libQt6Core.so.6:_ZNK4QDir6existsEv
libQt6Core.so.6:_ZNK4QDir6mkpathERK7QStringSt8optionalI6QFlagsIN11QFileDevice10PermissionEEE
libQt6Core.so.6:_ZNK4QDir7isEmptyE6QFlagsINS_6FilterEE
libQt6Core.so.6:_ZNK4QDir8filePathERK7QString
libQt6Core.so.6:_ZNK4QDir9entryListE6QFlagsINS_6FilterEES0_INS_8SortFlagEE
libQt6Core.so.6:_ZNK4QDir9entryListERK5QListI7QStringE6QFlagsINS_6FilterEES5_INS_8SortFlagEE
libQt6Core.so.6:_ZNK4QUrl11toLocalFileEv
libQt6Core.so.6:_ZNK4QUrl3urlE12QUrlTwoFlagsINS_19UrlFormattingOptionENS_25ComponentFormattingOptionEE
libQt6Core.so.6:_ZNK4QUrl4hostE6QFlagsINS_25ComponentFormattingOptionEE
libQt6Core.so.6:_ZNK4QUrl4pathE6QFlagsINS_25ComponentFormattingOptionEE
libQt6Core.so.6:_ZNK4QUrl5queryE6QFlagsINS_25ComponentFormattingOptionEE
libQt6Core.so.6:_ZNK4QUrl6schemeEv
libQt6Core.so.6:_ZNK4QUrl7isValidEv
libQt6Core.so.6:_ZNK4QUrl8fileNameE6QFlagsINS_25ComponentFormattingOptionEE
libQt6Core.so.6:_ZNK4QUrl8hasQueryEv
libQt6Core.so.6:_ZNK4QUrl8toStringE12QUrlTwoFlagsINS_19UrlFormattingOptionENS_25ComponentFormattingOptionEE
libQt6Core.so.6:_ZNK5QDate10startOfDayEv
libQt6Core.so.6:_ZNK5QDate3dayEv
libQt6Core.so.6:_ZNK5QDate4yearEv
libQt6Core.so.6:_ZNK5QDate5monthEv
libQt6Core.so.6:_ZNK5QDate8toStringERK7QString
libQt6Core.so.6:_ZNK5QFile10metaObjectEv
libQt6Core.so.6:_ZNK5QFile11permissionsEv
libQt6Core.so.6:_ZNK5QFile4sizeEv
libQt6Core.so.6:_ZNK5QFile6existsEv
libQt6Core.so.6:_ZNK5QFile8fileNameEv
libQt6Core.so.6:_ZNK5QRect10intersectsERKS_
libQt6Core.so.6:_ZNK5QRect8containsERK6QPointb
libQt6Core.so.6:_ZNK5QRect8containsERKS_b
libQt6Core.so.6:_ZNK5QRectanERKS_
libQt6Core.so.6:_ZNK5QTime4hourEv
libQt6Core.so.6:_ZNK5QTime6minuteEv
libQt6Core.so.6:_ZNK5QTime6secondEv
libQt6Core.so.6:_ZNK5QTime7addSecsEi
libQt6Core.so.6:_ZNK5QTime7isValidEv
libQt6Core.so.6:_ZNK5QTime8toStringE11QStringView
libQt6Core.so.6:_ZNK6QEvent5cloneEv
libQt6Core.so.6:_ZNK6QLineF10intersectsERKS_P7QPointF
libQt6Core.so.6:_ZNK6QLineF5angleEv
libQt6Core.so.6:_ZNK6QLineF7angleToERKS_
libQt6Core.so.6:_ZNK6QRectF10intersectsERKS_
libQt6Core.so.6:_ZNK6QRectF8containsERK7QPointF
libQt6Core.so.6:_ZNK6QRectForERKS_
libQt6Core.so.6:_ZNK6QTimer13remainingTimeEv
libQt6Core.so.6:_ZNK6QTimer8isActiveEv
libQt6Core.so.6:_ZNK7QBuffer4dataEv
libQt6Core.so.6:_ZNK7QLocale10dateFormatENS_10FormatTypeE
libQt6Core.so.6:_ZNK7QLocale10timeFormatENS_10FormatTypeE
libQt6Core.so.6:_ZNK7QLocale10toDateTimeERK7QStringS2_i
libQt6Core.so.6:_ZNK7QLocale14dateTimeFormatENS_10FormatTypeE
libQt6Core.so.6:_ZNK7QLocale4nameENS_12TagSeparatorE
libQt6Core.so.6:_ZNK7QLocale6toTimeERK7QStringS2_
libQt6Core.so.6:_ZNK7QLocale8toStringERK9QDateTime11QStringView
libQt6Core.so.6:_ZNK7QLocale9bcp47NameENS_12TagSeparatorE
libQt6Core.so.6:_ZNK7QObject10metaObjectEv
libQt6Core.so.6:_ZNK7QObject10objectNameEv
libQt6Core.so.6:_ZNK7QObject6senderEv
libQt6Core.so.6:_ZNK7QObject6threadEv
libQt6Core.so.6:_ZNK7QObject8propertyEPKc
libQt6Core.so.6:_ZNK7QString10startsWithERKS_N2Qt15CaseSensitivityE
libQt6Core.so.6:_ZNK7QString11toStdStringB5cxx11Ev
libQt6Core.so.6:_ZNK7QString5splitE5QChar6QFlagsIN2Qt18SplitBehaviorFlagsEENS2_15CaseSensitivityE
libQt6Core.so.6:_ZNK7QString5splitERK18QRegularExpression6QFlagsIN2Qt18SplitBehaviorFlagsEE
libQt6Core.so.6:_ZNK7QString5splitERKS_6QFlagsIN2Qt18SplitBehaviorFlagsEENS3_15CaseSensitivityE
libQt6Core.so.6:_ZNK7QString7compareERKS_N2Qt15CaseSensitivityE
libQt6Core.so.6:_ZNK7QString7indexOfERK18QRegularExpressionxP23QRegularExpressionMatch
libQt6Core.so.6:_ZNK7QString7indexOfERKS_xN2Qt15CaseSensitivityE
libQt6Core.so.6:_ZNK7QString7sectionERKS_xx6QFlagsINS_11SectionFlagEE
libQt6Core.so.6:_ZNK7QString7toFloatEPb
libQt6Core.so.6:_ZNK7QString8arg_implE14QAnyStringViewi5QChar
libQt6Core.so.6:_ZNK7QString8arg_implEdici5QChar
libQt6Core.so.6:_ZNK7QString8arg_implExii5QChar
libQt6Core.so.6:_ZNK7QString8arg_implEyii5QChar
libQt6Core.so.6:_ZNK7QString8containsERK18QRegularExpressionP23QRegularExpressionMatch
libQt6Core.so.6:_ZNK7QString8endsWithE5QCharN2Qt15CaseSensitivityE
libQt6Core.so.6:_ZNK7QString8endsWithERKS_N2Qt15CaseSensitivityE
libQt6Core.so.6:_ZNK7QString8toDoubleEPb
libQt6Core.so.6:_ZNK7QThread10isFinishedEv
libQt6Core.so.6:_ZNK7QThread9isRunningEv
libQt6Core.so.6:_ZNK8QProcess5stateEv
libQt6Core.so.6:_ZNK8QProcess7programEv
libQt6Core.so.6:_ZNK8QVariant10toDateTimeEv
libQt6Core.so.6:_ZNK8QVariant10toLongLongEPb
libQt6Core.so.6:_ZNK8QVariant11toByteArrayEv
libQt6Core.so.6:_ZNK8QVariant11toULongLongEPb
libQt6Core.so.6:_ZNK8QVariant12qdebugHelperE6QDebug
libQt6Core.so.6:_ZNK8QVariant12toStringListEv
libQt6Core.so.6:_ZNK8QVariant5toIntEPb
libQt6Core.so.6:_ZNK8QVariant5toMapEv
libQt6Core.so.6:_ZNK8QVariant5toUrlEv
libQt6Core.so.6:_ZNK8QVariant6equalsERKS_
libQt6Core.so.6:_ZNK8QVariant6toBoolEv
libQt6Core.so.6:_ZNK8QVariant6toListEv
libQt6Core.so.6:_ZNK8QVariant6toRealEPb
libQt6Core.so.6:_ZNK8QVariant6toUIntEPb
libQt6Core.so.6:_ZNK8QVariant7toFloatEPb
libQt6Core.so.6:_ZNK8QVariant7toRectFEv
libQt6Core.so.6:_ZNK8QVariant8toDoubleEPb
libQt6Core.so.6:_ZNK8QVariant8toPointFEv
libQt6Core.so.6:_ZNK8QVariant8toStringEv
libQt6Core.so.6:_ZNK9QCollator7compareE11QStringViewS0_
libQt6Core.so.6:_ZNK9QDateTime10toTimeZoneERK9QTimeZone
libQt6Core.so.6:_ZNK9QDateTime11toLocalTimeEv
libQt6Core.so.6:_ZNK9QDateTime16toSecsSinceEpochEv
libQt6Core.so.6:_ZNK9QDateTime17toMSecsSinceEpochEv
libQt6Core.so.6:_ZNK9QDateTime4dateEv
libQt6Core.so.6:_ZNK9QDateTime4timeEv
libQt6Core.so.6:_ZNK9QDateTime5toUTCEv
libQt6Core.so.6:_ZNK9QDateTime6daysToERKS_
libQt6Core.so.6:_ZNK9QDateTime6equalsERKS_
libQt6Core.so.6:_ZNK9QDateTime6secsToERKS_
libQt6Core.so.6:_ZNK9QDateTime7addSecsEx
libQt6Core.so.6:_ZNK9QDateTime7isValidEv
libQt6Core.so.6:_ZNK9QDateTime8addMSecsEx
libQt6Core.so.6:_ZNK9QDateTime8addYearsEi
libQt6Core.so.6:_ZNK9QDateTime8timeZoneEv
libQt6Core.so.6:_ZNK9QDateTime8toStringEN2Qt10DateFormatE
libQt6Core.so.6:_ZNK9QDateTime8toStringERK7QString
libQt6Core.so.6:_ZNK9QFileInfo10isReadableEv
libQt6Core.so.6:_ZNK9QFileInfo11absoluteDirEv
libQt6Core.so.6:_ZNK9QFileInfo12absolutePathEv
libQt6Core.so.6:_ZNK9QFileInfo14completeSuffixEv
libQt6Core.so.6:_ZNK9QFileInfo16absoluteFilePathEv
libQt6Core.so.6:_ZNK9QFileInfo16completeBaseNameEv
libQt6Core.so.6:_ZNK9QFileInfo4sizeEv
libQt6Core.so.6:_ZNK9QFileInfo5isDirEv
libQt6Core.so.6:_ZNK9QFileInfo6isFileEv
libQt6Core.so.6:_ZNK9QFileInfo6suffixEv
libQt6Core.so.6:_ZNK9QFileInfo8baseNameEv
libQt6Core.so.6:_ZNK9QFileInfo8fileNameEv
libQt6Core.so.6:_ZNK9QFileInfo8filePathEv
libQt6Core.so.6:_ZNK9QFileInfo8fileTimeEN11QFileDevice8FileTimeE
libQt6Core.so.6:_ZNK9QIODevice11canReadLineEv
libQt6Core.so.6:_ZNK9QIODevice11errorStringEv
libQt6Core.so.6:_ZNK9QIODevice12bytesToWriteEv
libQt6Core.so.6:_ZNK9QIODevice14bytesAvailableEv
libQt6Core.so.6:_ZNK9QIODevice6isOpenEv
libQt6Core.so.6:_ZNK9QMimeData4urlsEv
libQt6Core.so.6:_ZNK9QMimeData7hasUrlsEv
libQt6Core.so.6:_ZNK9QSettings11childGroupsEv
libQt6Core.so.6:_ZNK9QSettings5groupEv
libQt6Core.so.6:_ZNK9QSettings5valueE14QAnyStringView
libQt6Core.so.6:_ZNK9QSettings5valueE14QAnyStringViewRK8QVariant
libQt6Core.so.6:_ZNK9QSettings8containsE14QAnyStringView
libQt6Core.so.6:_ZNK9QSettings9childKeysEv
libQt6Core.so.6:_ZNK9QTimeZone12abbreviationERK9QDateTime
libQt6Core.so.6:_ZNK9QTimeZone2idEv
libQt6Core.so.6:_ZNKR7QString3midExx
libQt6Core.so.6:_ZNO7QString3midExx
libQt6Core.so.6:_ZTI10QException
libQt6Core.so.6:_ZTI16QStringListModel
libQt6Core.so.6:_ZTI18QAbstractItemModel
libQt6Core.so.6:_ZTI5QFile
libQt6Core.so.6:_ZTI6QEvent
libQt6Core.so.6:_ZTI7QObject
libQt6Core.so.6:_ZTI7QThread
libQt6Core.so.6:_ZTV10QException
libQt6Core.so.6:_ZTVN9QRunnable16QGenericRunnableE
libQt6Core.so.6:_Zls6QDebugRK4QDir
libQt6Core.so.6:_Zls6QDebugRK4QUrl
libQt6Core.so.6:_Zls6QDebugRK6QPoint
libQt6Core.so.6:_Zls6QDebugRK7QPointF
libQt6Core.so.6:_Zls6QDebugRK9QDateTime
libQt6Core.so.6:_ZlsR11QDataStreamRK10QByteArray
libQt6Core.so.6:_ZlsR11QDataStreamRK4QUrl
libQt6Core.so.6:_ZlsR11QDataStreamRK6QPoint
libQt6Core.so.6:_ZlsR11QDataStreamRK6QRectF
libQt6Core.so.6:_ZlsR11QDataStreamRK7QPointF
libQt6Core.so.6:_ZlsR11QDataStreamRK7QString
libQt6Core.so.6:_ZlsR11QDataStreamRK8QVariant
libQt6Core.so.6:_ZlsR11QDataStreamRK9QDateTime
libQt6Core.so.6:_ZrsR11QDataStreamR10QByteArray
libQt6Core.so.6:_ZrsR11QDataStreamR4QUrl
libQt6Core.so.6:_ZrsR11QDataStreamR5QRect
libQt6Core.so.6:_ZrsR11QDataStreamR6QPoint
libQt6Core.so.6:_ZrsR11QDataStreamR6QRectF
libQt6Core.so.6:_ZrsR11QDataStreamR7QPointF
libQt6Core.so.6:_ZrsR11QDataStreamR7QString
libQt6Core.so.6:_ZrsR11QDataStreamR8QVariant
libQt6Core.so.6:_ZrsR11QDataStreamR9QDateTime
libQt6Core.so.6:qVersion
libQt6Core.so.6:qt_resourceFeatureZstd
libQt6Core.so.6:qt_version_tag
libQt6Core5Compat.so.6:_ZN10QTextCodec12codecForNameERK10QByteArray
libQt6Core5Compat.so.6:_ZNK10QTextCodec9toUnicodeEPKc
libQt6Core5Compat.so.6:_ZNK10QTextCodec9toUnicodeERK10QByteArray
libQt6DBus.so.6:_Z14qDBusReplyFillRK12QDBusMessageR10QDBusErrorR8QVariant
libQt6DBus.so.6:_Z40qRegisterNormalizedMetaType_QDBusVariantRK10QByteArray
libQt6DBus.so.6:_Z41qRegisterNormalizedMetaType_QDBusArgumentRK10QByteArray
libQt6DBus.so.6:_Z43qRegisterNormalizedMetaType_QDBusObjectPathRK10QByteArray
libQt6DBus.so.6:_Z51qRegisterNormalizedMetaType_QDBusUnixFileDescriptorRK10QByteArray
libQt6DBus.so.6:_ZN10QDBusErrorC1ERKS_
libQt6DBus.so.6:_ZN10QDBusErrorC1Ev
libQt6DBus.so.6:_ZN12QDBusMessage12setArgumentsERK5QListI8QVariantE
libQt6DBus.so.6:_ZN12QDBusMessage16createMethodCallERK7QStringS2_S2_S2_
libQt6DBus.so.6:_ZN12QDBusMessageD1Ev
libQt6DBus.so.6:_ZN12QDBusMessagelsERK8QVariant
libQt6DBus.so.6:_ZN13QDBusArgument10beginArrayE9QMetaType
libQt6DBus.so.6:_ZN13QDBusArgument11endMapEntryEv
libQt6DBus.so.6:_ZN13QDBusArgument12endStructureEv
libQt6DBus.so.6:_ZN13QDBusArgument13beginMapEntryEv
libQt6DBus.so.6:_ZN13QDBusArgument14beginStructureEv
libQt6DBus.so.6:_ZN13QDBusArgument6endMapEv
libQt6DBus.so.6:_ZN13QDBusArgument8beginMapE9QMetaTypeS0_
libQt6DBus.so.6:_ZN13QDBusArgument8endArrayEv
libQt6DBus.so.6:_ZN13QDBusArgumentC1ERKS_
libQt6DBus.so.6:_ZN13QDBusArgumentC1Ev
libQt6DBus.so.6:_ZN13QDBusArgumentD1Ev
libQt6DBus.so.6:_ZN13QDBusArgumentlsERK10QByteArray
libQt6DBus.so.6:_ZN13QDBusArgumentlsERK12QDBusVariant
libQt6DBus.so.6:_ZN13QDBusArgumentlsERK15QDBusObjectPath
libQt6DBus.so.6:_ZN13QDBusArgumentlsERK5QListI7QStringE
libQt6DBus.so.6:_ZN13QDBusArgumentlsERK7QString
libQt6DBus.so.6:_ZN13QDBusArgumentlsEb
libQt6DBus.so.6:_ZN13QDBusArgumentlsEi
libQt6DBus.so.6:_ZN13QDBusArgumentlsEj
libQt6DBus.so.6:_ZN13QDBusArgumentlsEx
libQt6DBus.so.6:_ZN13QDBusArgumentlsEy
libQt6DBus.so.6:_ZN13QDBusMetaType25registerMarshallOperatorsE9QMetaTypePFvR13QDBusArgumentPKvEPFvRKS1_PvE
libQt6DBus.so.6:_ZN14QDBusInterfaceC1ERK7QStringS2_S2_RK15QDBusConnectionP7QObject
libQt6DBus.so.6:_ZN15QDBusConnection10sessionBusEv
libQt6DBus.so.6:_ZN15QDBusConnection7connectERK7QStringS2_S2_S2_P7QObjectPKc
libQt6DBus.so.6:_ZN15QDBusConnection9systemBusEv
libQt6DBus.so.6:_ZN15QDBusConnectionD1Ev
libQt6DBus.so.6:_ZN15QDBusObjectPath7doCheckEv
libQt6DBus.so.6:_ZN16QDBusPendingCall15waitForFinishedEv
libQt6DBus.so.6:_ZN16QDBusPendingCallC2ERKS_
libQt6DBus.so.6:_ZN16QDBusPendingCallD1Ev
libQt6DBus.so.6:_ZN21QDBusPendingReplyBase12setMetaTypesEiPK9QMetaType
libQt6DBus.so.6:_ZN21QDBusPendingReplyBase6assignERK12QDBusMessage
libQt6DBus.so.6:_ZN21QDBusPendingReplyBase6assignERK16QDBusPendingCall
libQt6DBus.so.6:_ZN21QDBusPendingReplyBaseC2Ev
libQt6DBus.so.6:_ZN21QDBusPendingReplyBaseD2Ev
libQt6DBus.so.6:_ZN22QDBusAbstractInterface11qt_metacallEN11QMetaObject4CallEiPPv
libQt6DBus.so.6:_ZN22QDBusAbstractInterface11qt_metacastEPKc
libQt6DBus.so.6:_ZN22QDBusAbstractInterface13connectNotifyERK11QMetaMethod
libQt6DBus.so.6:_ZN22QDBusAbstractInterface16disconnectNotifyERK11QMetaMethod
libQt6DBus.so.6:_ZN22QDBusAbstractInterface16staticMetaObjectE
libQt6DBus.so.6:_ZN22QDBusAbstractInterface20callWithArgumentListEN5QDBus8CallModeERK7QStringRK5QListI8QVariantE
libQt6DBus.so.6:_ZN22QDBusAbstractInterface25asyncCallWithArgumentListERK7QStringRK5QListI8QVariantE
libQt6DBus.so.6:_ZN22QDBusAbstractInterfaceC2ERK7QStringS2_PKcRK15QDBusConnectionP7QObject
libQt6DBus.so.6:_ZN22QDBusAbstractInterfaceD2Ev
libQt6DBus.so.6:_ZN23QDBusUnixFileDescriptorC1ERKS_
libQt6DBus.so.6:_ZN23QDBusUnixFileDescriptorC1Ei
libQt6DBus.so.6:_ZN23QDBusUnixFileDescriptorC1Ev
libQt6DBus.so.6:_ZN23QDBusUnixFileDescriptorD1Ev
libQt6DBus.so.6:_ZNK10QDBusError4nameEv
libQt6DBus.so.6:_ZNK12QDBusMessage12errorMessageEv
libQt6DBus.so.6:_ZNK12QDBusMessage4typeEv
libQt6DBus.so.6:_ZNK12QDBusMessage9argumentsEv
libQt6DBus.so.6:_ZNK13QDBusArgument10beginArrayEv
libQt6DBus.so.6:_ZNK13QDBusArgument11endMapEntryEv
libQt6DBus.so.6:_ZNK13QDBusArgument12endStructureEv
libQt6DBus.so.6:_ZNK13QDBusArgument13beginMapEntryEv
libQt6DBus.so.6:_ZNK13QDBusArgument14beginStructureEv
libQt6DBus.so.6:_ZNK13QDBusArgument16currentSignatureEv
libQt6DBus.so.6:_ZNK13QDBusArgument5atEndEv
libQt6DBus.so.6:_ZNK13QDBusArgument6endMapEv
libQt6DBus.so.6:_ZNK13QDBusArgument8beginMapEv
libQt6DBus.so.6:_ZNK13QDBusArgument8endArrayEv
libQt6DBus.so.6:_ZNK13QDBusArgumentrsER10QByteArray
libQt6DBus.so.6:_ZNK13QDBusArgumentrsER12QDBusVariant
libQt6DBus.so.6:_ZNK13QDBusArgumentrsER15QDBusObjectPath
libQt6DBus.so.6:_ZNK13QDBusArgumentrsER5QListI7QStringE
libQt6DBus.so.6:_ZNK13QDBusArgumentrsER7QString
libQt6DBus.so.6:_ZNK13QDBusArgumentrsERb
libQt6DBus.so.6:_ZNK13QDBusArgumentrsERi
libQt6DBus.so.6:_ZNK13QDBusArgumentrsERj
libQt6DBus.so.6:_ZNK13QDBusArgumentrsERx
libQt6DBus.so.6:_ZNK13QDBusArgumentrsERy
libQt6DBus.so.6:_ZNK15QDBusConnection4callERK12QDBusMessageN5QDBus8CallModeEi
libQt6DBus.so.6:_ZNK16QDBusPendingCall5errorEv
libQt6DBus.so.6:_ZNK16QDBusPendingCall5replyEv
libQt6DBus.so.6:_ZNK16QDBusPendingCall7isErrorEv
libQt6DBus.so.6:_ZNK16QDBusPendingCall7isValidEv
libQt6DBus.so.6:_ZNK21QDBusPendingReplyBase10argumentAtEi
libQt6DBus.so.6:_ZTI22QDBusAbstractInterface
libQt6DBus.so.6:_Zls6QDebugRK15QDBusObjectPath
libQt6Gui.so.6:_ZN10QClipboard11dataChangedEv
libQt6Gui.so.6:_ZN10QClipboard16staticMetaObjectE
libQt6Gui.so.6:_ZN10QClipboard7setTextERK7QStringNS_4ModeE
libQt6Gui.so.6:_ZN10QDropEvent13setDropActionEN2Qt10DropActionE
libQt6Gui.so.6:_ZN10QTextTable10mergeCellsEiiii
libQt6Gui.so.6:_ZN10QTransform5scaleEdd
libQt6Gui.so.6:_ZN10QTransform6rotateEdN2Qt4AxisE
libQt6Gui.so.6:_ZN10QTransform9translateEdd
libQt6Gui.so.6:_ZN11QTextCursor10createListERK15QTextListFormat
libQt6Gui.so.6:_ZN11QTextCursor10insertHtmlERK7QString
libQt6Gui.so.6:_ZN11QTextCursor10insertTextERK7QString
libQt6Gui.so.6:_ZN11QTextCursor11insertFrameERK16QTextFrameFormat
libQt6Gui.so.6:_ZN11QTextCursor11insertImageERK6QImageRK7QString
libQt6Gui.so.6:_ZN11QTextCursor11insertTableEiiRK16QTextTableFormat
libQt6Gui.so.6:_ZN11QTextCursor11setPositionEiNS_8MoveModeE
libQt6Gui.so.6:_ZN11QTextCursor12endEditBlockEv
libQt6Gui.so.6:_ZN11QTextCursor12movePositionENS_13MoveOperationENS_8MoveModeEi
libQt6Gui.so.6:_ZN11QTextCursor13setCharFormatERK15QTextCharFormat
libQt6Gui.so.6:_ZN11QTextCursor14beginEditBlockEv
libQt6Gui.so.6:_ZN11QTextCursor14setBlockFormatERK16QTextBlockFormat
libQt6Gui.so.6:_ZN11QTextCursor15mergeCharFormatERK15QTextCharFormat
libQt6Gui.so.6:_ZN11QTextCursor18removeSelectedTextEv
libQt6Gui.so.6:_ZN11QTextCursor6selectENS_13SelectionTypeE
libQt6Gui.so.6:_ZN11QTextCursorC1EP10QTextFrame
libQt6Gui.so.6:_ZN11QTextCursorD1Ev
libQt6Gui.so.6:_ZN11QTextFormat11setPropertyEiRK5QListI11QTextLengthE
libQt6Gui.so.6:_ZN11QTextFormat11setPropertyEiRK8QVariant
libQt6Gui.so.6:_ZN11QTextFormat16staticMetaObjectE
libQt6Gui.so.6:_ZN11QTextFormatC2ERKS_
libQt6Gui.so.6:_ZN11QTextFormatD1Ev
libQt6Gui.so.6:_ZN11QTextFormatD2Ev
libQt6Gui.so.6:_ZN11QTextFormataSERKS_
libQt6Gui.so.6:_ZN11QTextObject9setFormatERK11QTextFormat
libQt6Gui.so.6:_ZN11QTextOptionC1Ev
libQt6Gui.so.6:_ZN11QTextOptionD1Ev
libQt6Gui.so.6:_ZN12QActionGroup10setEnabledEb
libQt6Gui.so.6:_ZN12QActionGroup12setExclusiveEb
libQt6Gui.so.6:_ZN12QActionGroup16staticMetaObjectE
libQt6Gui.so.6:_ZN12QActionGroup9addActionEP7QAction
libQt6Gui.so.6:_ZN12QActionGroup9triggeredEP7QAction
libQt6Gui.so.6:_ZN12QActionGroupC1EP7QObject
libQt6Gui.so.6:_ZN12QFontMetricsC1ERK5QFont
libQt6Gui.so.6:_ZN12QFontMetricsD1Ev
libQt6Gui.so.6:_ZN12QKeySequenceC1ERK7QStringNS_14SequenceFormatE
libQt6Gui.so.6:_ZN12QKeySequenceC1Eiiii
libQt6Gui.so.6:_ZN12QKeySequenceD1Ev
libQt6Gui.so.6:_ZN12QPaintDeviceC2Ev
libQt6Gui.so.6:_ZN12QPainterPath10addPolygonERK9QPolygonF
libQt6Gui.so.6:_ZN12QPainterPath14addRoundedRectERK6QRectFddN2Qt8SizeModeE
libQt6Gui.so.6:_ZN12QPainterPath7addRectERK6QRectF
libQt6Gui.so.6:_ZN12QPainterPathC1Ev
libQt6Gui.so.6:_ZN12QPainterPathD1Ev
libQt6Gui.so.6:_ZN12QResizeEventC1ERK5QSizeS2_
libQt6Gui.so.6:_ZN13QFontMetricsFC1ERK5QFont
libQt6Gui.so.6:_ZN13QFontMetricsFD1Ev
libQt6Gui.so.6:_ZN13QTextDocument11setPageSizeERK6QSizeF
libQt6Gui.so.6:_ZN13QTextDocument12drawContentsEP8QPainterRK6QRectF
libQt6Gui.so.6:_ZN13QTextDocument12setTextWidthEd
libQt6Gui.so.6:_ZN13QTextDocument13redoAvailableEb
libQt6Gui.so.6:_ZN13QTextDocument13undoAvailableEb
libQt6Gui.so.6:_ZN13QTextDocument16staticMetaObjectE
libQt6Gui.so.6:_ZN13QTextDocument7setHtmlERK7QString
libQt6Gui.so.6:_ZN13QTextDocumentC1EP7QObject
libQt6Gui.so.6:_ZN13QTextDocumentD1Ev
libQt6Gui.so.6:_ZN14QTextTableCell9setFormatERK15QTextCharFormat
libQt6Gui.so.6:_ZN15QGuiApplication14overrideCursorEv
libQt6Gui.so.6:_ZN15QGuiApplication17keyboardModifiersEv
libQt6Gui.so.6:_ZN15QGuiApplication17setOverrideCursorERK7QCursor
libQt6Gui.so.6:_ZN15QGuiApplication20changeOverrideCursorERK7QCursor
libQt6Gui.so.6:_ZN15QGuiApplication21restoreOverrideCursorEv
libQt6Gui.so.6:_ZN15QGuiApplication7screensEv
libQt6Gui.so.6:_ZN15QGuiApplication9clipboardEv
libQt6Gui.so.6:_ZN15QLinearGradientC1ERK7QPointFS2_
libQt6Gui.so.6:_ZN15QLinearGradientD1Ev
libQt6Gui.so.6:_ZN15QTextCharFormat7setFontERK5QFontNS_33FontPropertiesInheritanceBehaviorE
libQt6Gui.so.6:_ZN15QTextCharFormatC1Ev
libQt6Gui.so.6:_ZN15QTextListFormatC1Ev
libQt6Gui.so.6:_ZN16QDesktopServices7openUrlERK4QUrl
libQt6Gui.so.6:_ZN16QTextBlockFormatC1Ev
libQt6Gui.so.6:_ZN16QTextFrameFormatC1Ev
libQt6Gui.so.6:_ZN16QTextTableFormatC1Ev
libQt6Gui.so.6:_ZN17QPagedPaintDevice11setPageSizeERK9QPageSize
libQt6Gui.so.6:_ZN17QPagedPaintDevice18setPageOrientationEN11QPageLayout11OrientationE
libQt6Gui.so.6:_ZN4QPen11setCapStyleEN2Qt11PenCapStyleE
libQt6Gui.so.6:_ZN4QPen12setJoinStyleEN2Qt12PenJoinStyleE
libQt6Gui.so.6:_ZN4QPen14setDashPatternERK5QListIdE
libQt6Gui.so.6:_ZN4QPen8setBrushERK6QBrush
libQt6Gui.so.6:_ZN4QPen8setColorERK6QColor
libQt6Gui.so.6:_ZN4QPen8setWidthEi
libQt6Gui.so.6:_ZN4QPenC1EN2Qt8PenStyleE
libQt6Gui.so.6:_ZN4QPenC1ERK6QBrushdN2Qt8PenStyleENS3_11PenCapStyleENS3_12PenJoinStyleE
libQt6Gui.so.6:_ZN4QPenC1ERK6QColor
libQt6Gui.so.6:_ZN4QPenC1ERKS_
libQt6Gui.so.6:_ZN4QPenC1Ev
libQt6Gui.so.6:_ZN4QPenD1Ev
libQt6Gui.so.6:_ZN4QPenaSEN2Qt8PenStyleE
libQt6Gui.so.6:_ZN5QFont12setPointSizeEi
libQt6Gui.so.6:_ZN5QFont12setUnderlineEb
libQt6Gui.so.6:_ZN5QFont16staticMetaObjectE
libQt6Gui.so.6:_ZN5QFont9setWeightENS_6WeightE
libQt6Gui.so.6:_ZN5QFontC1ERK7QStringiib
libQt6Gui.so.6:_ZN5QFontC1ERKS_
libQt6Gui.so.6:_ZN5QFontC1Ev
libQt6Gui.so.6:_ZN5QFontD1Ev
libQt6Gui.so.6:_ZN5QFontaSERKS_
libQt6Gui.so.6:_ZN5QIcon7addFileERK7QStringRK5QSizeNS_4ModeENS_5StateE
libQt6Gui.so.6:_ZN5QIconC1ERK7QPixmap
libQt6Gui.so.6:_ZN5QIconC1ERK7QString
libQt6Gui.so.6:_ZN5QIconC1ERKS_
libQt6Gui.so.6:_ZN5QIconC1Ev
libQt6Gui.so.6:_ZN5QIconD1Ev
libQt6Gui.so.6:_ZN6QBrush15setTextureImageERK6QImage
libQt6Gui.so.6:_ZN6QBrush8setStyleEN2Qt10BrushStyleE
libQt6Gui.so.6:_ZN6QBrushC1EN2Qt10BrushStyleE
libQt6Gui.so.6:_ZN6QBrushC1EN2Qt11GlobalColorENS0_10BrushStyleE
libQt6Gui.so.6:_ZN6QBrushC1ERK6QColorN2Qt10BrushStyleE
libQt6Gui.so.6:_ZN6QBrushC1ERK7QPixmap
libQt6Gui.so.6:_ZN6QBrushC1ERK9QGradient
libQt6Gui.so.6:_ZN6QBrushC1ERKS_
libQt6Gui.so.6:_ZN6QBrushC1Ev
libQt6Gui.so.6:_ZN6QBrushD1Ev
libQt6Gui.so.6:_ZN6QBrushaSE6QColor
libQt6Gui.so.6:_ZN6QColor10fromStringE14QAnyStringView
libQt6Gui.so.6:_ZN6QColor6setHsvEiiii
libQt6Gui.so.6:_ZN6QColor7fromHsvEiiii
libQt6Gui.so.6:_ZN6QColor8setAlphaEi
libQt6Gui.so.6:_ZN6QColorC1EN2Qt11GlobalColorE
libQt6Gui.so.6:_ZN6QColorC1Ej
libQt6Gui.so.6:_ZN6QImage12loadFromDataE14QByteArrayViewPKc
libQt6Gui.so.6:_ZN6QImage13setColorCountEi
libQt6Gui.so.6:_ZN6QImage13setColorTableERK5QListIjE
libQt6Gui.so.6:_ZN6QImage23convertToFormat_inplaceENS_6FormatE6QFlagsIN2Qt19ImageConversionFlagEE
libQt6Gui.so.6:_ZN6QImage4bitsEv
libQt6Gui.so.6:_ZN6QImage4fillEN2Qt11GlobalColorE
libQt6Gui.so.6:_ZN6QImage4fillEj
libQt6Gui.so.6:_ZN6QImage4loadEP9QIODevicePKc
libQt6Gui.so.6:_ZN6QImage4loadERK7QStringPKc
libQt6Gui.so.6:_ZN6QImage8fromDataEPKhiPKc
libQt6Gui.so.6:_ZN6QImage8scanLineEi
libQt6Gui.so.6:_ZN6QImage8setColorEij
libQt6Gui.so.6:_ZN6QImage8setPixelEiij
libQt6Gui.so.6:_ZN6QImageC1ERK5QSizeNS_6FormatE
libQt6Gui.so.6:_ZN6QImageC1ERK7QStringPKc
libQt6Gui.so.6:_ZN6QImageC1ERKS_
libQt6Gui.so.6:_ZN6QImageC1EiiNS_6FormatE
libQt6Gui.so.6:_ZN6QImageC1Ev
libQt6Gui.so.6:_ZN6QImageD1Ev
libQt6Gui.so.6:_ZN6QImageaSERKS_
libQt6Gui.so.6:_ZN6QMovie5startEv
libQt6Gui.so.6:_ZN6QMovieC1ERK7QStringRK10QByteArrayP7QObject
libQt6Gui.so.6:_ZN7QAction10setCheckedEb
libQt6Gui.so.6:_ZN7QAction10setEnabledEb
libQt6Gui.so.6:_ZN7QAction10setToolTipERK7QString
libQt6Gui.so.6:_ZN7QAction10setVisibleEb
libQt6Gui.so.6:_ZN7QAction11setMenuRoleENS_8MenuRoleE
libQt6Gui.so.6:_ZN7QAction11setShortcutERK12QKeySequence
libQt6Gui.so.6:_ZN7QAction12setCheckableEb
libQt6Gui.so.6:_ZN7QAction12setSeparatorEb
libQt6Gui.so.6:_ZN7QAction13setMenuObjectEP7QObject
libQt6Gui.so.6:_ZN7QAction16staticMetaObjectE
libQt6Gui.so.6:_ZN7QAction7changedEv
libQt6Gui.so.6:_ZN7QAction7setIconERK5QIcon
libQt6Gui.so.6:_ZN7QAction7setTextERK7QString
libQt6Gui.so.6:_ZN7QAction7toggledEb
libQt6Gui.so.6:_ZN7QAction8activateENS_11ActionEventE
libQt6Gui.so.6:_ZN7QAction9triggeredEb
libQt6Gui.so.6:_ZN7QActionC1EP7QObject
libQt6Gui.so.6:_ZN7QActionC1ERK5QIconRK7QStringP7QObject
libQt6Gui.so.6:_ZN7QActionC1ERK7QStringP7QObject
libQt6Gui.so.6:_ZN7QBitmapD1Ev
libQt6Gui.so.6:_ZN7QCursor3posEv
libQt6Gui.so.6:_ZN7QCursorC1EN2Qt11CursorShapeE
libQt6Gui.so.6:_ZN7QCursorC1ERK7QPixmapii
libQt6Gui.so.6:_ZN7QCursorC1Ev
libQt6Gui.so.6:_ZN7QCursorD1Ev
libQt6Gui.so.6:_ZN7QCursoraSERKS_
libQt6Gui.so.6:_ZN7QPixmap12loadFromDataEPKhjPKc6QFlagsIN2Qt19ImageConversionFlagEE
libQt6Gui.so.6:_ZN7QPixmap16fromImageInPlaceER6QImage6QFlagsIN2Qt19ImageConversionFlagEE
libQt6Gui.so.6:_ZN7QPixmap4fillERK6QColor
libQt6Gui.so.6:_ZN7QPixmap4loadERK7QStringPKc6QFlagsIN2Qt19ImageConversionFlagEE
libQt6Gui.so.6:_ZN7QPixmap7setMaskERK7QBitmap
libQt6Gui.so.6:_ZN7QPixmap9fromImageERK6QImage6QFlagsIN2Qt19ImageConversionFlagEE
libQt6Gui.so.6:_ZN7QPixmapC1ERK5QSize
libQt6Gui.so.6:_ZN7QPixmapC1ERK7QStringPKc6QFlagsIN2Qt19ImageConversionFlagEE
libQt6Gui.so.6:_ZN7QPixmapC1ERKS_
libQt6Gui.so.6:_ZN7QPixmapC1Eii
libQt6Gui.so.6:_ZN7QPixmapC1Ev
libQt6Gui.so.6:_ZN7QPixmapD1Ev
libQt6Gui.so.6:_ZN7QPixmapaSERKS_
libQt6Gui.so.6:_ZN7QRegionC1Ev
libQt6Gui.so.6:_ZN7QRegionD1Ev
libQt6Gui.so.6:_ZN8QPainter10drawPixmapERK6QRectFRK7QPixmapS2_
libQt6Gui.so.6:_ZN8QPainter10drawPixmapERK7QPointFRK7QPixmap
libQt6Gui.so.6:_ZN8QPainter10setOpacityEd
libQt6Gui.so.6:_ZN8QPainter11drawEllipseERK5QRect
libQt6Gui.so.6:_ZN8QPainter11drawEllipseERK6QRectF
libQt6Gui.so.6:_ZN8QPainter11drawPolygonEPK7QPointFiN2Qt8FillRuleE
libQt6Gui.so.6:_ZN8QPainter11setClipPathERK12QPainterPathN2Qt13ClipOperationE
libQt6Gui.so.6:_ZN8QPainter11setClipRectERK5QRectN2Qt13ClipOperationE
libQt6Gui.so.6:_ZN8QPainter11setClipRectERK6QRectFN2Qt13ClipOperationE
libQt6Gui.so.6:_ZN8QPainter11setClippingEb
libQt6Gui.so.6:_ZN8QPainter12boundingRectERK6QRectFRK7QStringRK11QTextOption
libQt6Gui.so.6:_ZN8QPainter12drawPolylineEPK7QPointFi
libQt6Gui.so.6:_ZN8QPainter12setTransformERK10QTransformb
libQt6Gui.so.6:_ZN8QPainter13setRenderHintENS_10RenderHintEb
libQt6Gui.so.6:_ZN8QPainter14resetTransformEv
libQt6Gui.so.6:_ZN8QPainter14setRenderHintsE6QFlagsINS_10RenderHintEEb
libQt6Gui.so.6:_ZN8QPainter15drawRoundedRectERK6QRectFddN2Qt8SizeModeE
libQt6Gui.so.6:_ZN8QPainter3endEv
libQt6Gui.so.6:_ZN8QPainter4saveEv
libQt6Gui.so.6:_ZN8QPainter5beginEP12QPaintDevice
libQt6Gui.so.6:_ZN8QPainter5scaleEdd
libQt6Gui.so.6:_ZN8QPainter6rotateEd
libQt6Gui.so.6:_ZN8QPainter6setPenEN2Qt8PenStyleE
libQt6Gui.so.6:_ZN8QPainter6setPenERK4QPen
libQt6Gui.so.6:_ZN8QPainter6setPenERK6QColor
libQt6Gui.so.6:_ZN8QPainter7drawArcERK6QRectFii
libQt6Gui.so.6:_ZN8QPainter7restoreEv
libQt6Gui.so.6:_ZN8QPainter7setFontERK5QFont
libQt6Gui.so.6:_ZN8QPainter8drawPathERK12QPainterPath
libQt6Gui.so.6:_ZN8QPainter8drawTextERK5QRectiRK7QStringPS0_
libQt6Gui.so.6:_ZN8QPainter8drawTextERK6QRectFRK7QStringRK11QTextOption
libQt6Gui.so.6:_ZN8QPainter8drawTextERK7QPointFRK7QString
libQt6Gui.so.6:_ZN8QPainter8fillRectERK5QRectRK6QBrush
libQt6Gui.so.6:_ZN8QPainter8fillRectERK5QRectRK6QColor
libQt6Gui.so.6:_ZN8QPainter8setBrushE6QColor
libQt6Gui.so.6:_ZN8QPainter8setBrushEN2Qt10BrushStyleE
libQt6Gui.so.6:_ZN8QPainter8setBrushERK6QBrush
libQt6Gui.so.6:_ZN8QPainter9drawImageERK6QRectFRK6QImageS2_6QFlagsIN2Qt19ImageConversionFlagEE
libQt6Gui.so.6:_ZN8QPainter9drawImageERK7QPointFRK6QImage
libQt6Gui.so.6:_ZN8QPainter9drawLinesEPK5QLinei
libQt6Gui.so.6:_ZN8QPainter9drawLinesEPK6QLineFi
libQt6Gui.so.6:_ZN8QPainter9drawRectsEPK5QRecti
libQt6Gui.so.6:_ZN8QPainter9drawRectsEPK6QRectFi
libQt6Gui.so.6:_ZN8QPainter9translateERK7QPointF
libQt6Gui.so.6:_ZN8QPainterC1EP12QPaintDevice
libQt6Gui.so.6:_ZN8QPainterC1Ev
libQt6Gui.so.6:_ZN8QPainterD1Ev
libQt6Gui.so.6:_ZN8QPalette8setBrushENS_10ColorGroupENS_9ColorRoleERK6QBrush
libQt6Gui.so.6:_ZN8QPaletteC1ERKS_
libQt6Gui.so.6:_ZN8QPaletteC1Ev
libQt6Gui.so.6:_ZN8QPaletteD1Ev
libQt6Gui.so.6:_ZN9QFontInfoC1ERK5QFont
libQt6Gui.so.6:_ZN9QFontInfoD1Ev
libQt6Gui.so.6:_ZN9QGradient10setColorAtEdRK6QColor
libQt6Gui.so.6:_ZN9QPageSizeC1ENS_10PageSizeIdE
libQt6Gui.so.6:_ZN9QPageSizeD1Ev
libQt6Gui.so.6:_ZNK10QClipboard4textENS_4ModeE
libQt6Gui.so.6:_ZNK10QDropEvent6sourceEv
libQt6Gui.so.6:_ZNK10QTextFrame12lastPositionEv
libQt6Gui.so.6:_ZNK10QTextFrame19firstCursorPositionEv
libQt6Gui.so.6:_ZNK10QTextTable6cellAtEii
libQt6Gui.so.6:_ZNK10QTransform3mapERK7QPointF
libQt6Gui.so.6:_ZNK10QTransform3mapERK9QPolygonF
libQt6Gui.so.6:_ZNK10QTransform4typeEv
libQt6Gui.so.6:_ZNK10QTransform8invertedEPb
libQt6Gui.so.6:_ZNK10QTransformmlERKS_
libQt6Gui.so.6:_ZNK11QEventPoint8positionEv
libQt6Gui.so.6:_ZNK11QTextCursor10charFormatEv
libQt6Gui.so.6:_ZNK11QTextCursor11blockFormatEv
libQt6Gui.so.6:_ZNK11QTextCursor11currentListEv
libQt6Gui.so.6:_ZNK11QTextCursor12hasSelectionEv
libQt6Gui.so.6:_ZNK11QTextCursor6anchorEv
libQt6Gui.so.6:_ZNK11QTextCursor8documentEv
libQt6Gui.so.6:_ZNK11QTextCursor8positionEv
libQt6Gui.so.6:_ZNK11QTextFormat11intPropertyEi
libQt6Gui.so.6:_ZNK11QTextFormat12toListFormatEv
libQt6Gui.so.6:_ZNK11QTextFormat13brushPropertyEi
libQt6Gui.so.6:_ZNK11QTextFormateqERKS_
libQt6Gui.so.6:_ZNK11QTextLengthcv8QVariantEv
libQt6Gui.so.6:_ZNK11QTextObject6formatEv
libQt6Gui.so.6:_ZNK12QFontMetrics12boundingRectERK5QRectiRK7QStringiPi
libQt6Gui.so.6:_ZNK12QFontMetrics12boundingRectERK7QString
libQt6Gui.so.6:_ZNK12QFontMetrics17horizontalAdvanceERK7QStringi
libQt6Gui.so.6:_ZNK12QFontMetrics4sizeEiRK7QStringiPi
libQt6Gui.so.6:_ZNK12QFontMetrics6ascentEv
libQt6Gui.so.6:_ZNK12QFontMetrics6heightEv
libQt6Gui.so.6:_ZNK12QFontMetrics7descentEv
libQt6Gui.so.6:_ZNK12QFontMetrics8maxWidthEv
libQt6Gui.so.6:_ZNK12QPainterPath10toReversedEv
libQt6Gui.so.6:_ZNK12QPainterPath13toFillPolygonERK10QTransform
libQt6Gui.so.6:_ZNK12QPainterPath14pointAtPercentEd
libQt6Gui.so.6:_ZNK12QPainterPath6lengthEv
libQt6Gui.so.6:_ZNK12QPainterPath6unitedERKS_
libQt6Gui.so.6:_ZNK13QFontMetricsF12boundingRectERK7QString
libQt6Gui.so.6:_ZNK13QFontMetricsF4sizeEiRK7QStringiPi
libQt6Gui.so.6:_ZNK13QFontMetricsF6heightEv
libQt6Gui.so.6:_ZNK13QTextDocument11toPlainTextEv
libQt6Gui.so.6:_ZNK13QTextDocument15isRedoAvailableEv
libQt6Gui.so.6:_ZNK13QTextDocument15isUndoAvailableEv
libQt6Gui.so.6:_ZNK13QTextDocument4sizeEv
libQt6Gui.so.6:_ZNK13QTextDocument5printEP17QPagedPaintDevice
libQt6Gui.so.6:_ZNK13QTextDocument9rootFrameEv
libQt6Gui.so.6:_ZNK13QTextDocument9textWidthEv
libQt6Gui.so.6:_ZNK14QTextTableCell18lastCursorPositionEv
libQt6Gui.so.6:_ZNK14QTextTableCell19firstCursorPositionEv
libQt6Gui.so.6:_ZNK15QTextCharFormat4fontEv
libQt6Gui.so.6:_ZNK4QPen5colorEv
libQt6Gui.so.6:_ZNK4QPen5widthEv
libQt6Gui.so.6:_ZNK5QFont10pointSizeFEv
libQt6Gui.so.6:_ZNK5QFont5styleEv
libQt6Gui.so.6:_ZNK5QFont6familyEv
libQt6Gui.so.6:_ZNK5QFont6weightEv
libQt6Gui.so.6:_ZNK5QFont9pointSizeEv
libQt6Gui.so.6:_ZNK5QFont9underlineEv
libQt6Gui.so.6:_ZNK5QFontcv8QVariantEv
libQt6Gui.so.6:_ZNK5QFonteqERKS_
libQt6Gui.so.6:_ZNK5QFontltERKS_
libQt6Gui.so.6:_ZNK5QFontneERKS_
libQt6Gui.so.6:_ZNK5QIcon6pixmapERK5QSizeNS_4ModeENS_5StateE
libQt6Gui.so.6:_ZNK5QIconcv8QVariantEv
libQt6Gui.so.6:_ZNK6QBrushcv8QVariantEv
libQt6Gui.so.6:_ZNK6QBrusheqERKS_
libQt6Gui.so.6:_ZNK6QColor13hsvSaturationEv
libQt6Gui.so.6:_ZNK6QColor3redEv
libQt6Gui.so.6:_ZNK6QColor3rgbEv
libQt6Gui.so.6:_ZNK6QColor4blueEv
libQt6Gui.so.6:_ZNK6QColor4nameENS_10NameFormatE
libQt6Gui.so.6:_ZNK6QColor4rgbaEv
libQt6Gui.so.6:_ZNK6QColor5greenEv
libQt6Gui.so.6:_ZNK6QColor5valueEv
libQt6Gui.so.6:_ZNK6QColor6darkerEi
libQt6Gui.so.6:_ZNK6QColor6hslHueEv
libQt6Gui.so.6:_ZNK6QColorcv8QVariantEv
libQt6Gui.so.6:_ZNK6QColoreqERKS_
libQt6Gui.so.6:_ZNK6QImage12bytesPerLineEv
libQt6Gui.so.6:_ZNK6QImage13scaledToWidthEiN2Qt18TransformationModeE
libQt6Gui.so.6:_ZNK6QImage14scaledToHeightEiN2Qt18TransformationModeE
libQt6Gui.so.6:_ZNK6QImage15mirrored_helperEbb
libQt6Gui.so.6:_ZNK6QImage22convertToFormat_helperENS_6FormatE6QFlagsIN2Qt19ImageConversionFlagEE
libQt6Gui.so.6:_ZNK6QImage4bitsEv
libQt6Gui.so.6:_ZNK6QImage4rectEv
libQt6Gui.so.6:_ZNK6QImage4saveEP9QIODevicePKci
libQt6Gui.so.6:_ZNK6QImage4saveERK7QStringPKci
libQt6Gui.so.6:_ZNK6QImage4sizeEv
libQt6Gui.so.6:_ZNK6QImage5pixelEii
libQt6Gui.so.6:_ZNK6QImage5widthEv
libQt6Gui.so.6:_ZNK6QImage6heightEv
libQt6Gui.so.6:_ZNK6QImage6isNullEv
libQt6Gui.so.6:_ZNK6QImage6offsetEv
libQt6Gui.so.6:_ZNK6QImage6scaledERK5QSizeN2Qt15AspectRatioModeENS3_18TransformationModeE
libQt6Gui.so.6:_ZNK7QAction11isSeparatorEv
libQt6Gui.so.6:_ZNK7QAction4iconEv
libQt6Gui.so.6:_ZNK7QAction8iconTextEv
libQt6Gui.so.6:_ZNK7QAction9isCheckedEv
libQt6Gui.so.6:_ZNK7QAction9isEnabledEv
libQt6Gui.so.6:_ZNK7QAction9shortcutsEv
libQt6Gui.so.6:_ZNK7QPixmap13scaledToWidthEiN2Qt18TransformationModeE
libQt6Gui.so.6:_ZNK7QPixmap19createHeuristicMaskEb
libQt6Gui.so.6:_ZNK7QPixmap19createMaskFromColorERK6QColorN2Qt8MaskModeE
libQt6Gui.so.6:_ZNK7QPixmap4rectEv
libQt6Gui.so.6:_ZNK7QPixmap4saveEP9QIODevicePKci
libQt6Gui.so.6:_ZNK7QPixmap4saveERK7QStringPKci
libQt6Gui.so.6:_ZNK7QPixmap4sizeEv
libQt6Gui.so.6:_ZNK7QPixmap5widthEv
libQt6Gui.so.6:_ZNK7QPixmap6heightEv
libQt6Gui.so.6:_ZNK7QPixmap6isNullEv
libQt6Gui.so.6:_ZNK7QPixmap6scaledERK5QSizeN2Qt15AspectRatioModeENS3_18TransformationModeE
libQt6Gui.so.6:_ZNK7QPixmap7toImageEv
libQt6Gui.so.6:_ZNK7QScreen17availableGeometryEv
libQt6Gui.so.6:_ZNK8QPainter3penEv
libQt6Gui.so.6:_ZNK8QPainter4fontEv
libQt6Gui.so.6:_ZNK8QPainter5brushEv
libQt6Gui.so.6:_ZNK8QPainter8viewportEv
libQt6Gui.so.6:_ZNK8QPainter9transformEv
libQt6Gui.so.6:_ZNK8QPalette5brushENS_10ColorGroupENS_9ColorRoleE
libQt6Gui.so.6:_ZNK9QFontInfo9pointSizeEv
libQt6Gui.so.6:_ZNK9QKeyEvent7matchesEN12QKeySequence11StandardKeyE
libQt6Gui.so.6:_ZNK9QPolygonF12boundingRectEv
libQt6Gui.so.6:_ZNK9QPolygonFcv8QVariantEv
libQt6Gui.so.6:_ZTI11QMouseEvent
libQt6Gui.so.6:_ZTV6QImage
libQt6Gui.so.6:_ZTV7QPixmap
libQt6Gui.so.6:_Zls6QDebugRK10QTransform
libQt6Gui.so.6:_Zls6QDebugRK11QTextFormat
libQt6Gui.so.6:_Zls6QDebugRK5QFont
libQt6Gui.so.6:_Zls6QDebugRK5QIcon
libQt6Gui.so.6:_Zls6QDebugRK6QBrush
libQt6Gui.so.6:_Zls6QDebugRK6QColor
libQt6Gui.so.6:_Zls6QDebugRK7QCursor
libQt6Gui.so.6:_Zls6QDebugRK9QPolygonF
libQt6Gui.so.6:_ZlsR11QDataStreamRK15QTextCharFormat
libQt6Gui.so.6:_ZlsR11QDataStreamRK5QFont
libQt6Gui.so.6:_ZlsR11QDataStreamRK5QIcon
libQt6Gui.so.6:_ZlsR11QDataStreamRK6QBrush
libQt6Gui.so.6:_ZlsR11QDataStreamRK6QColor
libQt6Gui.so.6:_ZlsR11QDataStreamRK7QPixmap
libQt6Gui.so.6:_ZlsR11QDataStreamRK9QPolygonF
libQt6Gui.so.6:_ZrsR11QDataStreamR15QTextCharFormat
libQt6Gui.so.6:_ZrsR11QDataStreamR5QFont
libQt6Gui.so.6:_ZrsR11QDataStreamR5QIcon
libQt6Gui.so.6:_ZrsR11QDataStreamR6QBrush
libQt6Gui.so.6:_ZrsR11QDataStreamR6QColor
libQt6Gui.so.6:_ZrsR11QDataStreamR7QPixmap
libQt6Gui.so.6:_ZrsR11QDataStreamR9QPolygonF
libQt6Help.so.6:_ZN11QHelpEngine11indexWidgetEv
libQt6Help.so.6:_ZN11QHelpEngine12searchEngineEv
libQt6Help.so.6:_ZN11QHelpEngine13contentWidgetEv
libQt6Help.so.6:_ZN11QHelpEngineC1ERK7QStringP7QObject
libQt6Help.so.6:_ZN15QHelpEngineCore9setupDataEv
libQt6Help.so.6:_ZN16QHelpIndexWidget13filterIndicesERK7QStringS2_
libQt6Help.so.6:_ZN16QHelpIndexWidget16staticMetaObjectE
libQt6Help.so.6:_ZN16QHelpIndexWidget17documentActivatedERK9QHelpLinkRK7QString
libQt6Help.so.6:_ZN17QHelpSearchEngine11queryWidgetEv
libQt6Help.so.6:_ZN17QHelpSearchEngine12resultWidgetEv
libQt6Help.so.6:_ZN17QHelpSearchEngine15indexingStartedEv
libQt6Help.so.6:_ZN17QHelpSearchEngine16indexingFinishedEv
libQt6Help.so.6:_ZN17QHelpSearchEngine16searchingStartedEv
libQt6Help.so.6:_ZN17QHelpSearchEngine16staticMetaObjectE
libQt6Help.so.6:_ZN17QHelpSearchEngine17searchingFinishedEi
libQt6Help.so.6:_ZN17QHelpSearchEngine20reindexDocumentationEv
libQt6Help.so.6:_ZN17QHelpSearchEngine6searchERK7QString
libQt6Help.so.6:_ZN18QHelpContentWidget13linkActivatedERK4QUrl
libQt6Help.so.6:_ZN18QHelpContentWidget16staticMetaObjectE
libQt6Help.so.6:_ZN22QHelpSearchQueryWidget16staticMetaObjectE
libQt6Help.so.6:_ZN22QHelpSearchQueryWidget6searchEv
libQt6Help.so.6:_ZN23QHelpSearchResultWidget15requestShowLinkERK4QUrl
libQt6Help.so.6:_ZN23QHelpSearchResultWidget16staticMetaObjectE
libQt6Help.so.6:_ZNK15QHelpEngineCore8fileDataERK4QUrl
libQt6Help.so.6:_ZNK22QHelpSearchQueryWidget11searchInputEv
libQt6Network.so.6:_Z56qRegisterNormalizedMetaType_QAbstractSocket__SocketErrorRK10QByteArray
libQt6Network.so.6:_ZN10QSslSocket11supportsSslEv
libQt6Network.so.6:_ZN10QTcpSocketC1EP7QObject
libQt6Network.so.6:_ZN10QTcpSocketD1Ev
libQt6Network.so.6:_ZN10QUdpSocket12readDatagramEPcxP12QHostAddressPt
libQt6Network.so.6:_ZN10QUdpSocket13writeDatagramEPKcxRK12QHostAddresst
libQt6Network.so.6:_ZN10QUdpSocketC1EP7QObject
libQt6Network.so.6:_ZN12QHostAddressC1ENS_14SpecialAddressE
libQt6Network.so.6:_ZN12QHostAddressC1Ev
libQt6Network.so.6:_ZN12QHostAddressD1Ev
libQt6Network.so.6:_ZN12QLocalServer12removeServerERK7QString
libQt6Network.so.6:_ZN12QLocalServer13newConnectionEv
libQt6Network.so.6:_ZN12QLocalServer16staticMetaObjectE
libQt6Network.so.6:_ZN12QLocalServer6listenERK7QString
libQt6Network.so.6:_ZN12QLocalServerC1EP7QObject
libQt6Network.so.6:_ZN12QLocalSocket15connectToServerERK7QString6QFlagsIN13QIODeviceBase12OpenModeFlagEE
libQt6Network.so.6:_ZN12QLocalSocket16waitForConnectedEi
libQt6Network.so.6:_ZN12QLocalSocket16waitForReadyReadEi
libQt6Network.so.6:_ZN12QLocalSocket19waitForBytesWrittenEi
libQt6Network.so.6:_ZN12QLocalSocketC1EP7QObject
libQt6Network.so.6:_ZN12QLocalSocketD1Ev
libQt6Network.so.6:_ZN13QNetworkReply16downloadProgressExx
libQt6Network.so.6:_ZN13QNetworkReply16staticMetaObjectE
libQt6Network.so.6:_ZN13QNetworkReply8finishedEv
libQt6Network.so.6:_ZN15QAbstractSocket12disconnectedEv
libQt6Network.so.6:_ZN15QAbstractSocket13connectToHostERK7QStringt6QFlagsIN13QIODeviceBase12OpenModeFlagEENS_20NetworkLayerProtocolE
libQt6Network.so.6:_ZN15QAbstractSocket13errorOccurredENS_11SocketErrorE
libQt6Network.so.6:_ZN15QAbstractSocket16staticMetaObjectE
libQt6Network.so.6:_ZN15QAbstractSocket18disconnectFromHostEv
libQt6Network.so.6:_ZN15QAbstractSocket4bindERK12QHostAddresst6QFlagsINS_8BindFlagEE
libQt6Network.so.6:_ZN15QAbstractSocket5abortEv
libQt6Network.so.6:_ZN15QAbstractSocket9connectedEv
libQt6Network.so.6:_ZN15QNetworkRequest12setAttributeENS_9AttributeERK8QVariant
libQt6Network.so.6:_ZN15QNetworkRequest12setRawHeaderERK10QByteArrayS2_
libQt6Network.so.6:_ZN15QNetworkRequest6setUrlERK4QUrl
libQt6Network.so.6:_ZN15QNetworkRequest9setHeaderENS_12KnownHeadersERK8QVariant
libQt6Network.so.6:_ZN15QNetworkRequestC1ERK4QUrl
libQt6Network.so.6:_ZN15QNetworkRequestC1Ev
libQt6Network.so.6:_ZN15QNetworkRequestD1Ev
libQt6Network.so.6:_ZN17QNetworkInterface13allInterfacesEv
libQt6Network.so.6:_ZN17QNetworkInterfaceD1Ev
libQt6Network.so.6:_ZN20QNetworkAddressEntryD1Ev
libQt6Network.so.6:_ZN20QNetworkProxyFactory25setUseSystemConfigurationEb
libQt6Network.so.6:_ZN21QNetworkAccessManager16staticMetaObjectE
libQt6Network.so.6:_ZN21QNetworkAccessManager17setRedirectPolicyEN15QNetworkRequest14RedirectPolicyE
libQt6Network.so.6:_ZN21QNetworkAccessManager3getERK15QNetworkRequest
libQt6Network.so.6:_ZN21QNetworkAccessManager8finishedEP13QNetworkReply
libQt6Network.so.6:_ZN21QNetworkAccessManagerC1EP7QObject
libQt6Network.so.6:_ZNK10QUdpSocket19hasPendingDatagramsEv
libQt6Network.so.6:_ZNK10QUdpSocket19pendingDatagramSizeEv
libQt6Network.so.6:_ZNK12QLocalServer14fullServerNameEv
libQt6Network.so.6:_ZNK13QNetworkReply5errorEv
libQt6Network.so.6:_ZNK13QNetworkReply7requestEv
libQt6Network.so.6:_ZNK13QNetworkReply9attributeEN15QNetworkRequest9AttributeE
libQt6Network.so.6:_ZNK15QAbstractSocket5stateEv
libQt6Network.so.6:_ZNK15QNetworkRequest3urlEv
libQt6Network.so.6:_ZNK17QNetworkInterface14addressEntriesEv
libQt6Network.so.6:_ZNK20QNetworkAddressEntry9broadcastEv
libQt6Network.so.6:_Zls6QDebugN15QAbstractSocket11SocketErrorE
libQt6Network.so.6:_Zls6QDebugRK12QHostAddress
libQt6PrintSupport.so.6:_ZN12QPrintDialog4execEv
libQt6PrintSupport.so.6:_ZN12QPrintDialogC1EP8QPrinterP7QWidget
libQt6PrintSupport.so.6:_ZN12QPrintDialogD1Ev
libQt6PrintSupport.so.6:_ZN8QPrinter12setColorModeENS_9ColorModeE
libQt6PrintSupport.so.6:_ZN8QPrinter13setResolutionEi
libQt6PrintSupport.so.6:_ZN8QPrinter7newPageEv
libQt6PrintSupport.so.6:_ZN8QPrinterC1ENS_11PrinterModeE
libQt6PrintSupport.so.6:_ZN8QPrinterD1Ev
libQt6PrintSupport.so.6:_ZNK8QPrinter8pageRectENS_4UnitE
libQt6Qml.so.6:_ZN8QJSValueC1ERKS_
libQt6Qml.so.6:_ZN8QJSValueC1Ei
libQt6Qml.so.6:_ZN8QJSValueD1Ev
libQt6Qml.so.6:_ZN8QJSValueaSERKS_
libQt6Qml.so.6:_ZN9QJSEngine8evaluateERK7QStringS2_iP5QListIS0_E
libQt6Qml.so.6:_ZN9QJSEngineC1Ev
libQt6Qml.so.6:_ZN9QJSEngineD1Ev
libQt6Qml.so.6:_ZNK8QJSValue4callERK5QListIS_E
libQt6Qml.so.6:_ZNK8QJSValue5toIntEv
libQt6Qml.so.6:_ZNK8QJSValue7isArrayEv
libQt6Qml.so.6:_ZNK8QJSValue7isErrorEv
libQt6Qml.so.6:_ZNK8QJSValue8isObjectEv
libQt6Qml.so.6:_ZNK8QJSValue8isStringEv
libQt6Qml.so.6:_ZNK8QJSValue8propertyERK7QString
libQt6Qml.so.6:_ZNK8QJSValue8propertyEj
libQt6Qml.so.6:_ZNK8QJSValue8toStringEv
libQt6Qml.so.6:_ZNK9QJSEngine12globalObjectEv
libQt6Sql.so.6:_ZN12QSqlDatabase11addDatabaseERK7QStringS2_
libQt6Sql.so.6:_ZN12QSqlDatabase11setHostNameERK7QString
libQt6Sql.so.6:_ZN12QSqlDatabase11setPasswordERK7QString
libQt6Sql.so.6:_ZN12QSqlDatabase11setUserNameERK7QString
libQt6Sql.so.6:_ZN12QSqlDatabase13cloneDatabaseERKS_RK7QString
libQt6Sql.so.6:_ZN12QSqlDatabase14removeDatabaseERK7QString
libQt6Sql.so.6:_ZN12QSqlDatabase15setDatabaseNameERK7QString
libQt6Sql.so.6:_ZN12QSqlDatabase17isDriverAvailableERK7QString
libQt6Sql.so.6:_ZN12QSqlDatabase17setConnectOptionsERK7QString
libQt6Sql.so.6:_ZN12QSqlDatabase4openEv
libQt6Sql.so.6:_ZN12QSqlDatabase5closeEv
libQt6Sql.so.6:_ZN12QSqlDatabase7setPortEi
libQt6Sql.so.6:_ZN12QSqlDatabase8containsERK7QString
libQt6Sql.so.6:_ZN12QSqlDatabase8databaseERK7QStringb
libQt6Sql.so.6:_ZN12QSqlDatabaseC1ERKS_
libQt6Sql.so.6:_ZN12QSqlDatabaseC1Ev
libQt6Sql.so.6:_ZN12QSqlDatabaseD1Ev
libQt6Sql.so.6:_ZN12QSqlDatabaseaSERKS_
libQt6Sql.so.6:_ZN9QSqlErrorD1Ev
libQt6Sql.so.6:_ZN9QSqlQuery4execERK7QString
libQt6Sql.so.6:_ZN9QSqlQuery4execEv
libQt6Sql.so.6:_ZN9QSqlQuery4lastEv
libQt6Sql.so.6:_ZN9QSqlQuery4nextEv
libQt6Sql.so.6:_ZN9QSqlQuery5firstEv
libQt6Sql.so.6:_ZN9QSqlQuery7prepareERK7QString
libQt6Sql.so.6:_ZN9QSqlQuery8previousEv
libQt6Sql.so.6:_ZN9QSqlQuery9bindValueERK7QStringRK8QVariant6QFlagsIN4QSql13ParamTypeFlagEE
libQt6Sql.so.6:_ZN9QSqlQueryC1ERK12QSqlDatabase
libQt6Sql.so.6:_ZN9QSqlQueryC1ERK7QStringRK12QSqlDatabase
libQt6Sql.so.6:_ZN9QSqlQueryD1Ev
libQt6Sql.so.6:_ZNK12QSqlDatabase10driverNameEv
libQt6Sql.so.6:_ZNK12QSqlDatabase12databaseNameEv
libQt6Sql.so.6:_ZNK12QSqlDatabase14connectionNameEv
libQt6Sql.so.6:_ZNK12QSqlDatabase6driverEv
libQt6Sql.so.6:_ZNK12QSqlDatabase6isOpenEv
libQt6Sql.so.6:_ZNK12QSqlDatabase8hostNameEv
libQt6Sql.so.6:_ZNK12QSqlDatabase9lastErrorEv
libQt6Sql.so.6:_ZNK9QSqlError10driverTextEv
libQt6Sql.so.6:_ZNK9QSqlError12databaseTextEv
libQt6Sql.so.6:_ZNK9QSqlError4textEv
libQt6Sql.so.6:_ZNK9QSqlQuery15numRowsAffectedEv
libQt6Sql.so.6:_ZNK9QSqlQuery2atEv
libQt6Sql.so.6:_ZNK9QSqlQuery4sizeEv
libQt6Sql.so.6:_ZNK9QSqlQuery5valueEi
libQt6Sql.so.6:_ZNK9QSqlQuery9lastErrorEv
libQt6Sql.so.6:_ZNK9QSqlQuery9lastQueryEv
libQt6Sql.so.6:_Zls6QDebugRK9QSqlError
libQt6UiTools.so.6:_ZN9QUiLoader4loadEP9QIODeviceP7QWidget
libQt6UiTools.so.6:_ZN9QUiLoaderC1EP7QObject
libQt6UiTools.so.6:_ZN9QUiLoaderD1Ev
libQt6UiTools.so.6:_ZNK9QUiLoader11errorStringEv
libQt6WebEngineCore.so.6:_ZN14QWebEnginePage11chooseFilesENS_17FileSelectionModeERK5QListI7QStringES5_
libQt6WebEngineCore.so.6:_ZN14QWebEnginePage11qt_metacallEN11QMetaObject4CallEiPPv
libQt6WebEngineCore.so.6:_ZN14QWebEnginePage11qt_metacastEPKc
libQt6WebEngineCore.so.6:_ZN14QWebEnginePage12createWindowENS_13WebWindowTypeE
libQt6WebEngineCore.so.6:_ZN14QWebEnginePage12loadFinishedEb
libQt6WebEngineCore.so.6:_ZN14QWebEnginePage13runJavaScriptERK7QStringRKSt8functionIFvRK8QVariantEE
libQt6WebEngineCore.so.6:_ZN14QWebEnginePage13triggerActionENS_9WebActionEb
libQt6WebEngineCore.so.6:_ZN14QWebEnginePage15javaScriptAlertERK4QUrlRK7QString
libQt6WebEngineCore.so.6:_ZN14QWebEnginePage16javaScriptPromptERK4QUrlRK7QStringS5_PS3_
libQt6WebEngineCore.so.6:_ZN14QWebEnginePage16staticMetaObjectE
libQt6WebEngineCore.so.6:_ZN14QWebEnginePage17javaScriptConfirmERK4QUrlRK7QString
libQt6WebEngineCore.so.6:_ZN14QWebEnginePage24javaScriptConsoleMessageENS_29JavaScriptConsoleMessageLevelERK7QStringiS3_
libQt6WebEngineCore.so.6:_ZN14QWebEnginePage4loadERK4QUrl
libQt6WebEngineCore.so.6:_ZN14QWebEnginePage5eventEP6QEvent
libQt6WebEngineCore.so.6:_ZN14QWebEnginePageC1EP7QObject
libQt6WebEngineCore.so.6:_ZN14QWebEnginePageC2EP7QObject
libQt6WebEngineCore.so.6:_ZN14QWebEnginePageD2Ev
libQt6WebEngineCore.so.6:_ZTI14QWebEnginePage
libQt6WebEngineWidgets.so.6:_ZN14QWebEngineView6setUrlERK4QUrl
libQt6WebEngineWidgets.so.6:_ZN14QWebEngineView7setHtmlERK7QStringRK4QUrl
libQt6WebEngineWidgets.so.6:_ZN14QWebEngineView7setPageEP14QWebEnginePage
libQt6WebEngineWidgets.so.6:_ZN14QWebEngineViewC1EP7QWidget
libQt6Widgets.so.6:_ZN10QBoxLayout10setSpacingEi
libQt6Widgets.so.6:_ZN10QBoxLayout12insertWidgetEiP7QWidgeti6QFlagsIN2Qt13AlignmentFlagEE
libQt6Widgets.so.6:_ZN10QBoxLayout9addLayoutEP7QLayouti
libQt6Widgets.so.6:_ZN10QBoxLayout9addWidgetEP7QWidgeti6QFlagsIN2Qt13AlignmentFlagEE
libQt6Widgets.so.6:_ZN10QBoxLayoutC1ENS_9DirectionEP7QWidget
libQt6Widgets.so.6:_ZN10QCompleter13setFilterModeE6QFlagsIN2Qt9MatchFlagEE
libQt6Widgets.so.6:_ZN10QCompleter15setModelSortingENS_12ModelSortingE
libQt6Widgets.so.6:_ZN10QCompleter17setCompletionModeENS_14CompletionModeE
libQt6Widgets.so.6:_ZN10QCompleter18setCaseSensitivityEN2Qt15CaseSensitivityE
libQt6Widgets.so.6:_ZN10QCompleterC1ERK5QListI7QStringEP7QObject
libQt6Widgets.so.6:_ZN10QStatusBar18addPermanentWidgetEP7QWidgeti
libQt6Widgets.so.6:_ZN10QStatusBarC1EP7QWidget
libQt6Widgets.so.6:_ZN10QTabWidget10setTabTextEiRK7QString
libQt6Widgets.so.6:_ZN10QTabWidget13setTabEnabledEib
libQt6Widgets.so.6:_ZN10QTabWidget14currentChangedEi
libQt6Widgets.so.6:_ZN10QTabWidget15setCurrentIndexEi
libQt6Widgets.so.6:_ZN10QTabWidget15setTabsClosableEb
libQt6Widgets.so.6:_ZN10QTabWidget16setCurrentWidgetEP7QWidget
libQt6Widgets.so.6:_ZN10QTabWidget16staticMetaObjectE
libQt6Widgets.so.6:_ZN10QTabWidget17tabCloseRequestedEi
libQt6Widgets.so.6:_ZN10QTabWidget6addTabEP7QWidgetRK7QString
libQt6Widgets.so.6:_ZN10QTabWidgetC1EP7QWidget
libQt6Widgets.so.6:_ZN11QDockWidget10closeEventEP11QCloseEvent
libQt6Widgets.so.6:_ZN11QDockWidget10paintEventEP11QPaintEvent
libQt6Widgets.so.6:_ZN11QDockWidget11changeEventEP6QEvent
libQt6Widgets.so.6:_ZN11QDockWidget11qt_metacallEN11QMetaObject4CallEiPPv
libQt6Widgets.so.6:_ZN11QDockWidget11qt_metacastEPKc
libQt6Widgets.so.6:_ZN11QDockWidget11setFeaturesE6QFlagsINS_17DockWidgetFeatureEE
libQt6Widgets.so.6:_ZN11QDockWidget15topLevelChangedEb
libQt6Widgets.so.6:_ZN11QDockWidget16staticMetaObjectE
libQt6Widgets.so.6:_ZN11QDockWidget17visibilityChangedEb
libQt6Widgets.so.6:_ZN11QDockWidget5eventEP6QEvent
libQt6Widgets.so.6:_ZN11QDockWidget9setWidgetEP7QWidget
libQt6Widgets.so.6:_ZN11QDockWidgetC1EP7QWidget6QFlagsIN2Qt10WindowTypeEE
libQt6Widgets.so.6:_ZN11QDockWidgetC2ERK7QStringP7QWidget6QFlagsIN2Qt10WindowTypeEE
libQt6Widgets.so.6:_ZN11QDockWidgetD2Ev
libQt6Widgets.so.6:_ZN11QFileDialog11setFileModeENS_8FileModeE
libQt6Widgets.so.6:_ZN11QFileDialog15getOpenFileNameEP7QWidgetRK7QStringS4_S4_PS2_6QFlagsINS_6OptionEE
libQt6Widgets.so.6:_ZN11QFileDialog15getSaveFileNameEP7QWidgetRK7QStringS4_S4_PS2_6QFlagsINS_6OptionEE
libQt6Widgets.so.6:_ZN11QFileDialog16getOpenFileNamesEP7QWidgetRK7QStringS4_S4_PS2_6QFlagsINS_6OptionEE
libQt6Widgets.so.6:_ZN11QFileDialog20getExistingDirectoryEP7QWidgetRK7QStringS4_6QFlagsINS_6OptionEE
libQt6Widgets.so.6:_ZN11QFileDialogC1EP7QWidgetRK7QStringS4_S4_
libQt6Widgets.so.6:_ZN11QFileDialogD1Ev
libQt6Widgets.so.6:_ZN11QFontDialog7getFontEPbRK5QFontP7QWidgetRK7QString6QFlagsINS_16FontDialogOptionEE
libQt6Widgets.so.6:_ZN11QFormLayout18setVerticalSpacingEi
libQt6Widgets.so.6:_ZN11QFormLayout20setFieldGrowthPolicyENS_17FieldGrowthPolicyE
libQt6Widgets.so.6:_ZN11QFormLayout20setHorizontalSpacingEi
libQt6Widgets.so.6:_ZN11QFormLayout7setItemEiNS_8ItemRoleEP11QLayoutItem
libQt6Widgets.so.6:_ZN11QFormLayout9setLayoutEiNS_8ItemRoleEP7QLayout
libQt6Widgets.so.6:_ZN11QFormLayout9setWidgetEiNS_8ItemRoleEP7QWidget
libQt6Widgets.so.6:_ZN11QFormLayoutC1EP7QWidget
libQt6Widgets.so.6:_ZN11QGridLayout10setSpacingEi
libQt6Widgets.so.6:_ZN11QGridLayout18setVerticalSpacingEi
libQt6Widgets.so.6:_ZN11QGridLayout20setHorizontalSpacingEi
libQt6Widgets.so.6:_ZN11QGridLayout7addItemEP11QLayoutItemiiii6QFlagsIN2Qt13AlignmentFlagEE
libQt6Widgets.so.6:_ZN11QGridLayout9addLayoutEP7QLayoutiiii6QFlagsIN2Qt13AlignmentFlagEE
libQt6Widgets.so.6:_ZN11QGridLayout9addWidgetEP7QWidgetii6QFlagsIN2Qt13AlignmentFlagEE
libQt6Widgets.so.6:_ZN11QGridLayout9addWidgetEP7QWidgetiiii6QFlagsIN2Qt13AlignmentFlagEE
libQt6Widgets.so.6:_ZN11QGridLayoutC1EP7QWidget
libQt6Widgets.so.6:_ZN11QHBoxLayoutC1EP7QWidget
libQt6Widgets.so.6:_ZN11QHBoxLayoutC1Ev
libQt6Widgets.so.6:_ZN11QHeaderView12restoreStateERK10QByteArray
libQt6Widgets.so.6:_ZN11QHeaderView14resizeSectionsENS_10ResizeModeE
libQt6Widgets.so.6:_ZN11QHeaderView20setSectionResizeModeEiNS_10ResizeModeE
libQt6Widgets.so.6:_ZN11QHeaderView21setDefaultSectionSizeEi
libQt6Widgets.so.6:_ZN11QHeaderView21setMinimumSectionSizeEi
libQt6Widgets.so.6:_ZN11QHeaderView26setCascadingSectionResizesEb
libQt6Widgets.so.6:_ZN11QLayoutItem10spacerItemEv
libQt6Widgets.so.6:_ZN11QLayoutItem12setAlignmentE6QFlagsIN2Qt13AlignmentFlagEE
libQt6Widgets.so.6:_ZN11QListWidget10insertItemEiP15QListWidgetItem
libQt6Widgets.so.6:_ZN11QListWidget11itemChangedEP15QListWidgetItem
libQt6Widgets.so.6:_ZN11QListWidget11itemClickedEP15QListWidgetItem
libQt6Widgets.so.6:_ZN11QListWidget11qt_metacallEN11QMetaObject4CallEiPPv
libQt6Widgets.so.6:_ZN11QListWidget11qt_metacastEPKc
libQt6Widgets.so.6:_ZN11QListWidget12dropMimeDataEiPK9QMimeDataN2Qt10DropActionE
libQt6Widgets.so.6:_ZN11QListWidget13setCurrentRowEi
libQt6Widgets.so.6:_ZN11QListWidget13setCurrentRowEi6QFlagsIN19QItemSelectionModel13SelectionFlagEE
libQt6Widgets.so.6:_ZN11QListWidget13setItemWidgetEP15QListWidgetItemP7QWidget
libQt6Widgets.so.6:_ZN11QListWidget14setCurrentItemEP15QListWidgetItem
libQt6Widgets.so.6:_ZN11QListWidget16staticMetaObjectE
libQt6Widgets.so.6:_ZN11QListWidget17itemDoubleClickedEP15QListWidgetItem
libQt6Widgets.so.6:_ZN11QListWidget17setSelectionModelEP19QItemSelectionModel
libQt6Widgets.so.6:_ZN11QListWidget20itemSelectionChangedEv
libQt6Widgets.so.6:_ZN11QListWidget5clearEv
libQt6Widgets.so.6:_ZN11QListWidget5eventEP6QEvent
libQt6Widgets.so.6:_ZN11QListWidget8setModelEP18QAbstractItemModel
libQt6Widgets.so.6:_ZN11QListWidget8takeItemEi
libQt6Widgets.so.6:_ZN11QListWidget9dropEventEP10QDropEvent
libQt6Widgets.so.6:_ZN11QListWidget9sortItemsEN2Qt9SortOrderE
libQt6Widgets.so.6:_ZN11QListWidgetC1EP7QWidget
libQt6Widgets.so.6:_ZN11QListWidgetC2EP7QWidget
libQt6Widgets.so.6:_ZN11QListWidgetD2Ev
libQt6Widgets.so.6:_ZN11QMainWindow10addToolBarEN2Qt11ToolBarAreaEP8QToolBar
libQt6Widgets.so.6:_ZN11QMainWindow10setMenuBarEP8QMenuBar
libQt6Widgets.so.6:_ZN11QMainWindow11qt_metacallEN11QMetaObject4CallEiPPv
libQt6Widgets.so.6:_ZN11QMainWindow11qt_metacastEPKc
libQt6Widgets.so.6:_ZN11QMainWindow12restoreStateERK10QByteArrayi
libQt6Widgets.so.6:_ZN11QMainWindow12setStatusBarEP10QStatusBar
libQt6Widgets.so.6:_ZN11QMainWindow13addDockWidgetEN2Qt14DockWidgetAreaEP11QDockWidget
libQt6Widgets.so.6:_ZN11QMainWindow15createPopupMenuEv
libQt6Widgets.so.6:_ZN11QMainWindow16contextMenuEventEP17QContextMenuEvent
libQt6Widgets.so.6:_ZN11QMainWindow16setCentralWidgetEP7QWidget
libQt6Widgets.so.6:_ZN11QMainWindow16staticMetaObjectE
libQt6Widgets.so.6:_ZN11QMainWindow5eventEP6QEvent
libQt6Widgets.so.6:_ZN11QMainWindowC2EP7QWidget6QFlagsIN2Qt10WindowTypeEE
libQt6Widgets.so.6:_ZN11QMainWindowD2Ev
libQt6Widgets.so.6:_ZN11QMessageBox11informationEP7QWidgetRK7QStringS4_6QFlagsINS_14StandardButtonEES6_
libQt6Widgets.so.6:_ZN11QMessageBox11setCheckBoxEP9QCheckBox
libQt6Widgets.so.6:_ZN11QMessageBox13setTextFormatEN2Qt10TextFormatE
libQt6Widgets.so.6:_ZN11QMessageBox14setWindowTitleERK7QString
libQt6Widgets.so.6:_ZN11QMessageBox16setDefaultButtonENS_14StandardButtonE
libQt6Widgets.so.6:_ZN11QMessageBox18setInformativeTextERK7QString
libQt6Widgets.so.6:_ZN11QMessageBox18setStandardButtonsE6QFlagsINS_14StandardButtonEE
libQt6Widgets.so.6:_ZN11QMessageBox7setIconENS_4IconE
libQt6Widgets.so.6:_ZN11QMessageBox7setTextERK7QString
libQt6Widgets.so.6:_ZN11QMessageBox7warningEP7QWidgetRK7QStringS4_6QFlagsINS_14StandardButtonEES6_
libQt6Widgets.so.6:_ZN11QMessageBox8criticalEP7QWidgetRK7QStringS4_6QFlagsINS_14StandardButtonEES6_
libQt6Widgets.so.6:_ZN11QMessageBox8questionEP7QWidgetRK7QStringS4_6QFlagsINS_14StandardButtonEES6_
libQt6Widgets.so.6:_ZN11QMessageBox9addButtonERK7QStringNS_10ButtonRoleE
libQt6Widgets.so.6:_ZN11QMessageBoxC1ENS_4IconERK7QStringS3_6QFlagsINS_14StandardButtonEEP7QWidgetS4_IN2Qt10WindowTypeEE
libQt6Widgets.so.6:_ZN11QMessageBoxC1EP7QWidget
libQt6Widgets.so.6:_ZN11QMessageBoxD1Ev
libQt6Widgets.so.6:_ZN11QPushButton10setDefaultEb
libQt6Widgets.so.6:_ZN11QPushButton14setAutoDefaultEb
libQt6Widgets.so.6:_ZN11QPushButton7setFlatEb
libQt6Widgets.so.6:_ZN11QPushButtonC1EP7QWidget
libQt6Widgets.so.6:_ZN11QPushButtonC1ERK7QStringP7QWidget
libQt6Widgets.so.6:_ZN11QScrollArea18setWidgetResizableEb
libQt6Widgets.so.6:_ZN11QScrollArea9setWidgetEP7QWidget
libQt6Widgets.so.6:_ZN11QScrollAreaC1EP7QWidget
libQt6Widgets.so.6:_ZN11QToolButton12setAutoRaiseEb
libQt6Widgets.so.6:_ZN11QToolButton12setPopupModeENS_19ToolButtonPopupModeE
libQt6Widgets.so.6:_ZN11QToolButton16setDefaultActionEP7QAction
libQt6Widgets.so.6:_ZN11QToolButton16staticMetaObjectE
libQt6Widgets.so.6:_ZN11QToolButton18setToolButtonStyleEN2Qt15ToolButtonStyleE
libQt6Widgets.so.6:_ZN11QToolButton7setMenuEP5QMenu
libQt6Widgets.so.6:_ZN11QToolButtonC1EP7QWidget
libQt6Widgets.so.6:_ZN11QTreeWidget11itemChangedEP15QTreeWidgetItemi
libQt6Widgets.so.6:_ZN11QTreeWidget11itemClickedEP15QTreeWidgetItemi
libQt6Widgets.so.6:_ZN11QTreeWidget11itemPressedEP15QTreeWidgetItemi
libQt6Widgets.so.6:_ZN11QTreeWidget11qt_metacallEN11QMetaObject4CallEiPPv
libQt6Widgets.so.6:_ZN11QTreeWidget11qt_metacastEPKc
libQt6Widgets.so.6:_ZN11QTreeWidget12dropMimeDataEP15QTreeWidgetItemiPK9QMimeDataN2Qt10DropActionE
libQt6Widgets.so.6:_ZN11QTreeWidget12itemExpandedEP15QTreeWidgetItem
libQt6Widgets.so.6:_ZN11QTreeWidget12scrollToItemEPK15QTreeWidgetItemN17QAbstractItemView10ScrollHintE
libQt6Widgets.so.6:_ZN11QTreeWidget13itemCollapsedEP15QTreeWidgetItem
libQt6Widgets.so.6:_ZN11QTreeWidget13setHeaderItemEP15QTreeWidgetItem
libQt6Widgets.so.6:_ZN11QTreeWidget13setItemWidgetEP15QTreeWidgetItemiP7QWidget
libQt6Widgets.so.6:_ZN11QTreeWidget14setColumnCountEi
libQt6Widgets.so.6:_ZN11QTreeWidget14setCurrentItemEP15QTreeWidgetItem
libQt6Widgets.so.6:_ZN11QTreeWidget15addTopLevelItemEP15QTreeWidgetItem
libQt6Widgets.so.6:_ZN11QTreeWidget15setHeaderLabelsERK5QListI7QStringE
libQt6Widgets.so.6:_ZN11QTreeWidget16addTopLevelItemsERK5QListIP15QTreeWidgetItemE
libQt6Widgets.so.6:_ZN11QTreeWidget16staticMetaObjectE
libQt6Widgets.so.6:_ZN11QTreeWidget16takeTopLevelItemEi
libQt6Widgets.so.6:_ZN11QTreeWidget17itemDoubleClickedEP15QTreeWidgetItemi
libQt6Widgets.so.6:_ZN11QTreeWidget17setSelectionModelEP19QItemSelectionModel
libQt6Widgets.so.6:_ZN11QTreeWidget18insertTopLevelItemEiP15QTreeWidgetItem
libQt6Widgets.so.6:_ZN11QTreeWidget20itemSelectionChangedEv
libQt6Widgets.so.6:_ZN11QTreeWidget5clearEv
libQt6Widgets.so.6:_ZN11QTreeWidget5eventEP6QEvent
libQt6Widgets.so.6:_ZN11QTreeWidget8editItemEP15QTreeWidgetItemi
libQt6Widgets.so.6:_ZN11QTreeWidget8setModelEP18QAbstractItemModel
libQt6Widgets.so.6:_ZN11QTreeWidget9dropEventEP10QDropEvent
libQt6Widgets.so.6:_ZN11QTreeWidget9sortItemsEiN2Qt9SortOrderE
libQt6Widgets.so.6:_ZN11QTreeWidgetC1EP7QWidget
libQt6Widgets.so.6:_ZN11QTreeWidgetC2EP7QWidget
libQt6Widgets.so.6:_ZN11QTreeWidgetD2Ev
libQt6Widgets.so.6:_ZN11QVBoxLayoutC1EP7QWidget
libQt6Widgets.so.6:_ZN11QVBoxLayoutC1Ev
libQt6Widgets.so.6:_ZN11QWizardPage11cleanupPageEv
libQt6Widgets.so.6:_ZN11QWizardPage11qt_metacallEN11QMetaObject4CallEiPPv
libQt6Widgets.so.6:_ZN11QWizardPage11qt_metacastEPKc
libQt6Widgets.so.6:_ZN11QWizardPage11setSubTitleERK7QString
libQt6Widgets.so.6:_ZN11QWizardPage12validatePageEv
libQt6Widgets.so.6:_ZN11QWizardPage14initializePageEv
libQt6Widgets.so.6:_ZN11QWizardPage15completeChangedEv
libQt6Widgets.so.6:_ZN11QWizardPage16staticMetaObjectE
libQt6Widgets.so.6:_ZN11QWizardPage8setTitleERK7QString
libQt6Widgets.so.6:_ZN11QWizardPageC1EP7QWidget
libQt6Widgets.so.6:_ZN11QWizardPageC2EP7QWidget
libQt6Widgets.so.6:_ZN11QWizardPageD2Ev
libQt6Widgets.so.6:_ZN12QApplication13setStyleSheetERK7QString
libQt6Widgets.so.6:_ZN12QApplication4execEv
libQt6Widgets.so.6:_ZN12QApplication5styleEv
libQt6Widgets.so.6:_ZN12QApplicationC1ERiPPci
libQt6Widgets.so.6:_ZN12QApplicationD1Ev
libQt6Widgets.so.6:_ZN12QButtonGroup9addButtonEP15QAbstractButtoni
libQt6Widgets.so.6:_ZN12QButtonGroupC1EP7QObject
libQt6Widgets.so.6:_ZN12QColorDialog14setCustomColorEi6QColor
libQt6Widgets.so.6:_ZN12QColorDialog8getColorERK6QColorP7QWidgetRK7QString6QFlagsINS_17ColorDialogOptionEE
libQt6Widgets.so.6:_ZN12QInputDialog7getTextEP7QWidgetRK7QStringS4_N9QLineEdit8EchoModeES4_Pb6QFlagsIN2Qt10WindowTypeEES8_INS9_15InputMethodHintEE
libQt6Widgets.so.6:_ZN12QProgressBar10setMaximumEi
libQt6Widgets.so.6:_ZN12QProgressBar10setMinimumEi
libQt6Widgets.so.6:_ZN12QProgressBar8setRangeEii
libQt6Widgets.so.6:_ZN12QProgressBar8setValueEi
libQt6Widgets.so.6:_ZN12QProgressBarC1EP7QWidget
libQt6Widgets.so.6:_ZN12QRadioButtonC1EP7QWidget
libQt6Widgets.so.6:_ZN12QStyleOption8initFromEPK7QWidget
libQt6Widgets.so.6:_ZN12QStyleOptionD2Ev
libQt6Widgets.so.6:_ZN12QTextBrowser10paintEventEP11QPaintEvent
libQt6Widgets.so.6:_ZN12QTextBrowser11doSetSourceERK4QUrlN13QTextDocument12ResourceTypeE
libQt6Widgets.so.6:_ZN12QTextBrowser11qt_metacallEN11QMetaObject4CallEiPPv
libQt6Widgets.so.6:_ZN12QTextBrowser11qt_metacastEPKc
libQt6Widgets.so.6:_ZN12QTextBrowser12loadResourceEiRK4QUrl
libQt6Widgets.so.6:_ZN12QTextBrowser12setOpenLinksEb
libQt6Widgets.so.6:_ZN12QTextBrowser13anchorClickedERK4QUrl
libQt6Widgets.so.6:_ZN12QTextBrowser13focusOutEventEP11QFocusEvent
libQt6Widgets.so.6:_ZN12QTextBrowser13keyPressEventEP9QKeyEvent
libQt6Widgets.so.6:_ZN12QTextBrowser14mouseMoveEventEP11QMouseEvent
libQt6Widgets.so.6:_ZN12QTextBrowser15mousePressEventEP11QMouseEvent
libQt6Widgets.so.6:_ZN12QTextBrowser16staticMetaObjectE
libQt6Widgets.so.6:_ZN12QTextBrowser17mouseReleaseEventEP11QMouseEvent
libQt6Widgets.so.6:_ZN12QTextBrowser18focusNextPrevChildEb
libQt6Widgets.so.6:_ZN12QTextBrowser20setOpenExternalLinksEb
libQt6Widgets.so.6:_ZN12QTextBrowser4homeEv
libQt6Widgets.so.6:_ZN12QTextBrowser5eventEP6QEvent
libQt6Widgets.so.6:_ZN12QTextBrowser6reloadEv
libQt6Widgets.so.6:_ZN12QTextBrowser7forwardEv
libQt6Widgets.so.6:_ZN12QTextBrowser8backwardEv
libQt6Widgets.so.6:_ZN12QTextBrowser9setSourceERK4QUrlN13QTextDocument12ResourceTypeE
libQt6Widgets.so.6:_ZN12QTextBrowserC1EP7QWidget
libQt6Widgets.so.6:_ZN12QTextBrowserC2EP7QWidget
libQt6Widgets.so.6:_ZN12QTextBrowserD2Ev
libQt6Widgets.so.6:_ZN13QDateTimeEdit11setDateTimeERK9QDateTime
libQt6Widgets.so.6:_ZN13QDateTimeEdit16setCalendarPopupEb
libQt6Widgets.so.6:_ZN13QDateTimeEdit16setDisplayFormatERK7QString
libQt6Widgets.so.6:_ZN13QDateTimeEditC1EP7QWidget
libQt6Widgets.so.6:_ZN13QFontComboBox14setCurrentFontERK5QFont
libQt6Widgets.so.6:_ZN13QFontComboBox16staticMetaObjectE
libQt6Widgets.so.6:_ZN13QFontComboBox18currentFontChangedERK5QFont
libQt6Widgets.so.6:_ZN13QFontComboBoxC1EP7QWidget
libQt6Widgets.so.6:_ZN13QPinchGesture19setTotalScaleFactorEd
libQt6Widgets.so.6:_ZN13QSplashScreen6finishEP7QWidget
libQt6Widgets.so.6:_ZN13QSplashScreenC1ERK7QPixmap6QFlagsIN2Qt10WindowTypeEE
libQt6Widgets.so.6:_ZN14QDoubleSpinBox10setMaximumEd
libQt6Widgets.so.6:_ZN14QDoubleSpinBox10setMinimumEd
libQt6Widgets.so.6:_ZN14QDoubleSpinBox11qt_metacallEN11QMetaObject4CallEiPPv
libQt6Widgets.so.6:_ZN14QDoubleSpinBox11qt_metacastEPKc
libQt6Widgets.so.6:_ZN14QDoubleSpinBox11setDecimalsEi
libQt6Widgets.so.6:_ZN14QDoubleSpinBox12valueChangedEd
libQt6Widgets.so.6:_ZN14QDoubleSpinBox13setSingleStepEd
libQt6Widgets.so.6:_ZN14QDoubleSpinBox16staticMetaObjectE
libQt6Widgets.so.6:_ZN14QDoubleSpinBox8setValueEd
libQt6Widgets.so.6:_ZN14QDoubleSpinBox9setSuffixERK7QString
libQt6Widgets.so.6:_ZN14QDoubleSpinBoxC1EP7QWidget
libQt6Widgets.so.6:_ZN14QDoubleSpinBoxC2EP7QWidget
libQt6Widgets.so.6:_ZN14QDoubleSpinBoxD2Ev
libQt6Widgets.so.6:_ZN14QPlainTextEdit12setPlainTextERK7QString
libQt6Widgets.so.6:_ZN14QPlainTextEditC1EP7QWidget
libQt6Widgets.so.6:_ZN14QStackedWidget11qt_metacallEN11QMetaObject4CallEiPPv
libQt6Widgets.so.6:_ZN14QStackedWidget11qt_metacastEPKc
libQt6Widgets.so.6:_ZN14QStackedWidget14currentChangedEi
libQt6Widgets.so.6:_ZN14QStackedWidget15setCurrentIndexEi
libQt6Widgets.so.6:_ZN14QStackedWidget16setCurrentWidgetEP7QWidget
libQt6Widgets.so.6:_ZN14QStackedWidget16staticMetaObjectE
libQt6Widgets.so.6:_ZN14QStackedWidget5eventEP6QEvent
libQt6Widgets.so.6:_ZN14QStackedWidget9addWidgetEP7QWidget
libQt6Widgets.so.6:_ZN14QStackedWidgetC1EP7QWidget
libQt6Widgets.so.6:_ZN14QStackedWidgetC2EP7QWidget
libQt6Widgets.so.6:_ZN14QStackedWidgetD2Ev
libQt6Widgets.so.6:_ZN15QAbstractButton10setCheckedEb
libQt6Widgets.so.6:_ZN15QAbstractButton11setIconSizeERK5QSize
libQt6Widgets.so.6:_ZN15QAbstractButton11setShortcutERK12QKeySequence
libQt6Widgets.so.6:_ZN15QAbstractButton12setCheckableEb
libQt6Widgets.so.6:_ZN15QAbstractButton13setAutoRepeatEb
libQt6Widgets.so.6:_ZN15QAbstractButton16setAutoExclusiveEb
libQt6Widgets.so.6:_ZN15QAbstractButton16staticMetaObjectE
libQt6Widgets.so.6:_ZN15QAbstractButton5clickEv
libQt6Widgets.so.6:_ZN15QAbstractButton7clickedEb
libQt6Widgets.so.6:_ZN15QAbstractButton7pressedEv
libQt6Widgets.so.6:_ZN15QAbstractButton7setIconERK5QIcon
libQt6Widgets.so.6:_ZN15QAbstractButton7setTextERK7QString
libQt6Widgets.so.6:_ZN15QAbstractButton7toggledEb
libQt6Widgets.so.6:_ZN15QAbstractButton8releasedEv
libQt6Widgets.so.6:_ZN15QAbstractSlider10setMaximumEi
libQt6Widgets.so.6:_ZN15QAbstractSlider10setMinimumEi
libQt6Widgets.so.6:_ZN15QAbstractSlider11setPageStepEi
libQt6Widgets.so.6:_ZN15QAbstractSlider12valueChangedEi
libQt6Widgets.so.6:_ZN15QAbstractSlider13setSingleStepEi
libQt6Widgets.so.6:_ZN15QAbstractSlider14setOrientationEN2Qt11OrientationE
libQt6Widgets.so.6:_ZN15QAbstractSlider16staticMetaObjectE
libQt6Widgets.so.6:_ZN15QAbstractSlider8setValueEi
libQt6Widgets.so.6:_ZN15QListWidgetItem4readER11QDataStream
libQt6Widgets.so.6:_ZN15QListWidgetItem7setDataEiRK8QVariant
libQt6Widgets.so.6:_ZN15QListWidgetItem8setFlagsE6QFlagsIN2Qt8ItemFlagEE
libQt6Widgets.so.6:_ZN15QListWidgetItemC1EP11QListWidgeti
libQt6Widgets.so.6:_ZN15QListWidgetItemC1ERK5QIconRK7QStringP11QListWidgeti
libQt6Widgets.so.6:_ZN15QListWidgetItemC1ERK7QStringP11QListWidgeti
libQt6Widgets.so.6:_ZN15QListWidgetItemC2EP11QListWidgeti
libQt6Widgets.so.6:_ZN15QListWidgetItemC2ERK5QIconRK7QStringP11QListWidgeti
libQt6Widgets.so.6:_ZN15QListWidgetItemD2Ev
libQt6Widgets.so.6:_ZN15QTreeWidgetItem11addChildrenERK5QListIPS_E
libQt6Widgets.so.6:_ZN15QTreeWidgetItem11insertChildEiPS_
libQt6Widgets.so.6:_ZN15QTreeWidgetItem11removeChildEPS_
libQt6Widgets.so.6:_ZN15QTreeWidgetItem11setExpandedEb
libQt6Widgets.so.6:_ZN15QTreeWidgetItem12sortChildrenEiN2Qt9SortOrderEb
libQt6Widgets.so.6:_ZN15QTreeWidgetItem12takeChildrenEv
libQt6Widgets.so.6:_ZN15QTreeWidgetItem23setChildIndicatorPolicyENS_20ChildIndicatorPolicyE
libQt6Widgets.so.6:_ZN15QTreeWidgetItem4readER11QDataStream
libQt6Widgets.so.6:_ZN15QTreeWidgetItem7setDataEiiRK8QVariant
libQt6Widgets.so.6:_ZN15QTreeWidgetItem8addChildEPS_
libQt6Widgets.so.6:_ZN15QTreeWidgetItem8setFlagsE6QFlagsIN2Qt8ItemFlagEE
libQt6Widgets.so.6:_ZN15QTreeWidgetItem9setHiddenEb
libQt6Widgets.so.6:_ZN15QTreeWidgetItem9takeChildEi
libQt6Widgets.so.6:_ZN15QTreeWidgetItemC1EP11QTreeWidgeti
libQt6Widgets.so.6:_ZN15QTreeWidgetItemC1EPS_i
libQt6Widgets.so.6:_ZN15QTreeWidgetItemC1Ei
libQt6Widgets.so.6:_ZN15QTreeWidgetItemC2EP11QTreeWidgeti
libQt6Widgets.so.6:_ZN15QTreeWidgetItemC2EPS_i
libQt6Widgets.so.6:_ZN15QTreeWidgetItemC2Ei
libQt6Widgets.so.6:_ZN15QTreeWidgetItemD2Ev
libQt6Widgets.so.6:_ZN15QTreeWidgetItemaSERKS_
libQt6Widgets.so.6:_ZN16QAbstractSpinBox10closeEventEP11QCloseEvent
libQt6Widgets.so.6:_ZN16QAbstractSpinBox10paintEventEP11QPaintEvent
libQt6Widgets.so.6:_ZN16QAbstractSpinBox10timerEventEP11QTimerEvent
libQt6Widgets.so.6:_ZN16QAbstractSpinBox10wheelEventEP11QWheelEvent
libQt6Widgets.so.6:_ZN16QAbstractSpinBox11changeEventEP6QEvent
libQt6Widgets.so.6:_ZN16QAbstractSpinBox11resizeEventEP12QResizeEvent
libQt6Widgets.so.6:_ZN16QAbstractSpinBox11setReadOnlyEb
libQt6Widgets.so.6:_ZN16QAbstractSpinBox11setWrappingEb
libQt6Widgets.so.6:_ZN16QAbstractSpinBox12focusInEventEP11QFocusEvent
libQt6Widgets.so.6:_ZN16QAbstractSpinBox13focusOutEventEP11QFocusEvent
libQt6Widgets.so.6:_ZN16QAbstractSpinBox13keyPressEventEP9QKeyEvent
libQt6Widgets.so.6:_ZN16QAbstractSpinBox14mouseMoveEventEP11QMouseEvent
libQt6Widgets.so.6:_ZN16QAbstractSpinBox14setAcceleratedEb
libQt6Widgets.so.6:_ZN16QAbstractSpinBox15editingFinishedEv
libQt6Widgets.so.6:_ZN16QAbstractSpinBox15keyReleaseEventEP9QKeyEvent
libQt6Widgets.so.6:_ZN16QAbstractSpinBox15mousePressEventEP11QMouseEvent
libQt6Widgets.so.6:_ZN16QAbstractSpinBox16contextMenuEventEP17QContextMenuEvent
libQt6Widgets.so.6:_ZN16QAbstractSpinBox16setButtonSymbolsENS_13ButtonSymbolsE
libQt6Widgets.so.6:_ZN16QAbstractSpinBox16staticMetaObjectE
libQt6Widgets.so.6:_ZN16QAbstractSpinBox17mouseReleaseEventEP11QMouseEvent
libQt6Widgets.so.6:_ZN16QAbstractSpinBox5clearEv
libQt6Widgets.so.6:_ZN16QAbstractSpinBox5eventEP6QEvent
libQt6Widgets.so.6:_ZN16QAbstractSpinBox6stepByEi
libQt6Widgets.so.6:_ZN16QAbstractSpinBox8setFrameEb
libQt6Widgets.so.6:_ZN16QAbstractSpinBox9hideEventEP10QHideEvent
libQt6Widgets.so.6:_ZN16QAbstractSpinBox9selectAllEv
libQt6Widgets.so.6:_ZN16QAbstractSpinBox9showEventEP10QShowEvent
libQt6Widgets.so.6:_ZN16QDialogButtonBox14setOrientationEN2Qt11OrientationE
libQt6Widgets.so.6:_ZN16QDialogButtonBox16staticMetaObjectE
libQt6Widgets.so.6:_ZN16QDialogButtonBox18setStandardButtonsE6QFlagsINS_14StandardButtonEE
libQt6Widgets.so.6:_ZN16QDialogButtonBox7clickedEP15QAbstractButton
libQt6Widgets.so.6:_ZN16QDialogButtonBox8acceptedEv
libQt6Widgets.so.6:_ZN16QDialogButtonBox8rejectedEv
libQt6Widgets.so.6:_ZN16QDialogButtonBox9addButtonENS_14StandardButtonE
libQt6Widgets.so.6:_ZN16QDialogButtonBoxC1EP7QWidget
libQt6Widgets.so.6:_ZN17QAbstractItemView10commitDataEP7QWidget
libQt6Widgets.so.6:_ZN17QAbstractItemView11closeEditorEP7QWidgetN21QAbstractItemDelegate11EndEditHintE
libQt6Widgets.so.6:_ZN17QAbstractItemView11eventFilterEP7QObjectP6QEvent
libQt6Widgets.so.6:_ZN17QAbstractItemView11resizeEventEP12QResizeEvent
libQt6Widgets.so.6:_ZN17QAbstractItemView11setIconSizeERK5QSize
libQt6Widgets.so.6:_ZN17QAbstractItemView12focusInEventEP11QFocusEvent
libQt6Widgets.so.6:_ZN17QAbstractItemView13focusOutEventEP11QFocusEvent
libQt6Widgets.so.6:_ZN17QAbstractItemView13keyPressEventEP9QKeyEvent
libQt6Widgets.so.6:_ZN17QAbstractItemView13viewportEventEP6QEvent
libQt6Widgets.so.6:_ZN17QAbstractItemView14clearSelectionEv
libQt6Widgets.so.6:_ZN17QAbstractItemView14dragEnterEventEP15QDragEnterEvent
libQt6Widgets.so.6:_ZN17QAbstractItemView14dragLeaveEventEP15QDragLeaveEvent
libQt6Widgets.so.6:_ZN17QAbstractItemView14keyboardSearchERK7QString
libQt6Widgets.so.6:_ZN17QAbstractItemView14setDragEnabledEb
libQt6Widgets.so.6:_ZN17QAbstractItemView15editorDestroyedEP7QObject
libQt6Widgets.so.6:_ZN17QAbstractItemView15mousePressEventEP11QMouseEvent
libQt6Widgets.so.6:_ZN17QAbstractItemView15setDragDropModeENS_12DragDropModeE
libQt6Widgets.so.6:_ZN17QAbstractItemView15setEditTriggersE6QFlagsINS_11EditTriggerEE
libQt6Widgets.so.6:_ZN17QAbstractItemView16inputMethodEventEP17QInputMethodEvent
libQt6Widgets.so.6:_ZN17QAbstractItemView16setSelectionModeENS_13SelectionModeE
libQt6Widgets.so.6:_ZN17QAbstractItemView16staticMetaObjectE
libQt6Widgets.so.6:_ZN17QAbstractItemView16updateEditorDataEv
libQt6Widgets.so.6:_ZN17QAbstractItemView18focusNextPrevChildEb
libQt6Widgets.so.6:_ZN17QAbstractItemView20setDefaultDropActionEN2Qt10DropActionE
libQt6Widgets.so.6:_ZN17QAbstractItemView20setSelectionBehaviorENS_17SelectionBehaviorE
libQt6Widgets.so.6:_ZN17QAbstractItemView21mouseDoubleClickEventEP11QMouseEvent
libQt6Widgets.so.6:_ZN17QAbstractItemView21setVerticalScrollModeENS_10ScrollModeE
libQt6Widgets.so.6:_ZN17QAbstractItemView22updateEditorGeometriesEv
libQt6Widgets.so.6:_ZN17QAbstractItemView23setAlternatingRowColorsEb
libQt6Widgets.so.6:_ZN17QAbstractItemView23verticalScrollbarActionEi
libQt6Widgets.so.6:_ZN17QAbstractItemView25horizontalScrollbarActionEi
libQt6Widgets.so.6:_ZN17QAbstractItemView29verticalScrollbarValueChangedEi
libQt6Widgets.so.6:_ZN17QAbstractItemView31horizontalScrollbarValueChangedEi
libQt6Widgets.so.6:_ZN17QAbstractItemView4editERK11QModelIndexNS_11EditTriggerEP6QEvent
libQt6Widgets.so.6:_ZN17QAbstractItemView7clickedERK11QModelIndex
libQt6Widgets.so.6:_ZN17QAbstractItemView9selectAllEv
libQt6Widgets.so.6:_ZN17QAbstractItemView9startDragE6QFlagsIN2Qt10DropActionEE
libQt6Widgets.so.6:_ZN17QStyleOptionFrameC1Ev
libQt6Widgets.so.6:_ZN19QAbstractScrollArea10wheelEventEP11QWheelEvent
libQt6Widgets.so.6:_ZN19QAbstractScrollArea11eventFilterEP7QObjectP6QEvent
libQt6Widgets.so.6:_ZN19QAbstractScrollArea13setupViewportEP7QWidget
libQt6Widgets.so.6:_ZN19QAbstractScrollArea13viewportEventEP6QEvent
libQt6Widgets.so.6:_ZN19QAbstractScrollArea16contextMenuEventEP17QContextMenuEvent
libQt6Widgets.so.6:_ZN19QAbstractScrollArea26setVerticalScrollBarPolicyEN2Qt15ScrollBarPolicyE
libQt6Widgets.so.6:_ZN19QAbstractScrollArea28setHorizontalScrollBarPolicyEN2Qt15ScrollBarPolicyE
libQt6Widgets.so.6:_ZN22QGraphicsOpacityEffectC1EP7QObject
libQt6Widgets.so.6:_ZN5QMenu10addSectionERK7QString
libQt6Widgets.so.6:_ZN5QMenu12addSeparatorEv
libQt6Widgets.so.6:_ZN5QMenu15insertSeparatorEP7QAction
libQt6Widgets.so.6:_ZN5QMenu4execERK6QPointP7QAction
libQt6Widgets.so.6:_ZN5QMenu4execEv
libQt6Widgets.so.6:_ZN5QMenu7addMenuEPS_
libQt6Widgets.so.6:_ZN5QMenu7setIconERK5QIcon
libQt6Widgets.so.6:_ZN5QMenu8setTitleERK7QString
libQt6Widgets.so.6:_ZN5QMenuC1EP7QWidget
libQt6Widgets.so.6:_ZN5QMenuC1ERK7QStringP7QWidget
libQt6Widgets.so.6:_ZN5QMenuD1Ev
libQt6Widgets.so.6:_ZN6QFrame10paintEventEP11QPaintEvent
libQt6Widgets.so.6:_ZN6QFrame11changeEventEP6QEvent
libQt6Widgets.so.6:_ZN6QFrame12setLineWidthEi
libQt6Widgets.so.6:_ZN6QFrame13setFrameShapeENS_5ShapeE
libQt6Widgets.so.6:_ZN6QFrame13setFrameStyleEi
libQt6Widgets.so.6:_ZN6QFrame14setFrameShadowENS_6ShadowE
libQt6Widgets.so.6:_ZN6QFrame15setMidLineWidthEi
libQt6Widgets.so.6:_ZN6QFrameC1EP7QWidget6QFlagsIN2Qt10WindowTypeEE
libQt6Widgets.so.6:_ZN6QLabel10paintEventEP11QPaintEvent
libQt6Widgets.so.6:_ZN6QLabel11changeEventEP6QEvent
libQt6Widgets.so.6:_ZN6QLabel11qt_metacallEN11QMetaObject4CallEiPPv
libQt6Widgets.so.6:_ZN6QLabel11qt_metacastEPKc
libQt6Widgets.so.6:_ZN6QLabel11setWordWrapEb
libQt6Widgets.so.6:_ZN6QLabel12focusInEventEP11QFocusEvent
libQt6Widgets.so.6:_ZN6QLabel12setAlignmentE6QFlagsIN2Qt13AlignmentFlagEE
libQt6Widgets.so.6:_ZN6QLabel13focusOutEventEP11QFocusEvent
libQt6Widgets.so.6:_ZN6QLabel13keyPressEventEP9QKeyEvent
libQt6Widgets.so.6:_ZN6QLabel13linkActivatedERK7QString
libQt6Widgets.so.6:_ZN6QLabel13setTextFormatEN2Qt10TextFormatE
libQt6Widgets.so.6:_ZN6QLabel14mouseMoveEventEP11QMouseEvent
libQt6Widgets.so.6:_ZN6QLabel15mousePressEventEP11QMouseEvent
libQt6Widgets.so.6:_ZN6QLabel16contextMenuEventEP17QContextMenuEvent
libQt6Widgets.so.6:_ZN6QLabel16staticMetaObjectE
libQt6Widgets.so.6:_ZN6QLabel17mouseReleaseEventEP11QMouseEvent
libQt6Widgets.so.6:_ZN6QLabel17setScaledContentsEb
libQt6Widgets.so.6:_ZN6QLabel18focusNextPrevChildEb
libQt6Widgets.so.6:_ZN6QLabel20setOpenExternalLinksEb
libQt6Widgets.so.6:_ZN6QLabel23setTextInteractionFlagsE6QFlagsIN2Qt19TextInteractionFlagEE
libQt6Widgets.so.6:_ZN6QLabel5clearEv
libQt6Widgets.so.6:_ZN6QLabel5eventEP6QEvent
libQt6Widgets.so.6:_ZN6QLabel6setNumEi
libQt6Widgets.so.6:_ZN6QLabel7setTextERK7QString
libQt6Widgets.so.6:_ZN6QLabel8setMovieEP6QMovie
libQt6Widgets.so.6:_ZN6QLabel9setIndentEi
libQt6Widgets.so.6:_ZN6QLabel9setMarginEi
libQt6Widgets.so.6:_ZN6QLabel9setPixmapERK7QPixmap
libQt6Widgets.so.6:_ZN6QLabelC1EP7QWidget6QFlagsIN2Qt10WindowTypeEE
libQt6Widgets.so.6:_ZN6QLabelC1ERK7QStringP7QWidget6QFlagsIN2Qt10WindowTypeEE
libQt6Widgets.so.6:_ZN6QLabelC2EP7QWidget6QFlagsIN2Qt10WindowTypeEE
libQt6Widgets.so.6:_ZN6QLabelD2Ev
libQt6Widgets.so.6:_ZN7QDialog10closeEventEP11QCloseEvent
libQt6Widgets.so.6:_ZN7QDialog10setVisibleEb
libQt6Widgets.so.6:_ZN7QDialog11eventFilterEP7QObjectP6QEvent
libQt6Widgets.so.6:_ZN7QDialog11qt_metacallEN11QMetaObject4CallEiPPv
libQt6Widgets.so.6:_ZN7QDialog11qt_metacastEPKc
libQt6Widgets.so.6:_ZN7QDialog11resizeEventEP12QResizeEvent
libQt6Widgets.so.6:_ZN7QDialog13keyPressEventEP9QKeyEvent
libQt6Widgets.so.6:_ZN7QDialog16contextMenuEventEP17QContextMenuEvent
libQt6Widgets.so.6:_ZN7QDialog16staticMetaObjectE
libQt6Widgets.so.6:_ZN7QDialog4doneEi
libQt6Widgets.so.6:_ZN7QDialog4execEv
libQt6Widgets.so.6:_ZN7QDialog4openEv
libQt6Widgets.so.6:_ZN7QDialog6acceptEv
libQt6Widgets.so.6:_ZN7QDialog6rejectEv
libQt6Widgets.so.6:_ZN7QDialog8rejectedEv
libQt6Widgets.so.6:_ZN7QDialog9setResultEi
libQt6Widgets.so.6:_ZN7QDialog9showEventEP10QShowEvent
libQt6Widgets.so.6:_ZN7QDialogC2EP7QWidget6QFlagsIN2Qt10WindowTypeEE
libQt6Widgets.so.6:_ZN7QDialogD2Ev
libQt6Widgets.so.6:_ZN7QLayout10childEventEP11QChildEvent
libQt6Widgets.so.6:_ZN7QLayout10invalidateEv
libQt6Widgets.so.6:_ZN7QLayout10setSpacingEi
libQt6Widgets.so.6:_ZN7QLayout11qt_metacallEN11QMetaObject4CallEiPPv
libQt6Widgets.so.6:_ZN7QLayout11qt_metacastEPKc
libQt6Widgets.so.6:_ZN7QLayout12removeWidgetEP7QWidget
libQt6Widgets.so.6:_ZN7QLayout13replaceWidgetEP7QWidgetS1_6QFlagsIN2Qt15FindChildOptionEE
libQt6Widgets.so.6:_ZN7QLayout17setSizeConstraintENS_14SizeConstraintE
libQt6Widgets.so.6:_ZN7QLayout18setContentsMarginsEiiii
libQt6Widgets.so.6:_ZN7QLayout6layoutEv
libQt6Widgets.so.6:_ZN7QLayout9addWidgetEP7QWidget
libQt6Widgets.so.6:_ZN7QLayoutC2EP7QWidget
libQt6Widgets.so.6:_ZN7QLayoutD2Ev
libQt6Widgets.so.6:_ZN7QSliderC1EP7QWidget
libQt6Widgets.so.6:_ZN7QWidget10addActionsERK5QListIP7QActionE
libQt6Widgets.so.6:_ZN7QWidget10adjustSizeEv
libQt6Widgets.so.6:_ZN7QWidget10clearFocusEv
libQt6Widgets.so.6:_ZN7QWidget10closeEventEP11QCloseEvent
libQt6Widgets.so.6:_ZN7QWidget10enterEventEP11QEnterEvent
libQt6Widgets.so.6:_ZN7QWidget10leaveEventEP6QEvent
libQt6Widgets.so.6:_ZN7QWidget10paintEventEP11QPaintEvent
libQt6Widgets.so.6:_ZN7QWidget10setEnabledEb
libQt6Widgets.so.6:_ZN7QWidget10setPaletteERK8QPalette
libQt6Widgets.so.6:_ZN7QWidget10setToolTipERK7QString
libQt6Widgets.so.6:_ZN7QWidget10setVisibleEb
libQt6Widgets.so.6:_ZN7QWidget10wheelEventEP11QWheelEvent
libQt6Widgets.so.6:_ZN7QWidget11actionEventEP12QActionEvent
libQt6Widgets.so.6:_ZN7QWidget11changeEventEP6QEvent
libQt6Widgets.so.6:_ZN7QWidget11grabGestureEN2Qt11GestureTypeE6QFlagsINS0_11GestureFlagEE
libQt6Widgets.so.6:_ZN7QWidget11nativeEventERK10QByteArrayPvPx
libQt6Widgets.so.6:_ZN7QWidget11qt_metacallEN11QMetaObject4CallEiPPv
libQt6Widgets.so.6:_ZN7QWidget11qt_metacastEPKc
libQt6Widgets.so.6:_ZN7QWidget11resizeEventEP12QResizeEvent
libQt6Widgets.so.6:_ZN7QWidget11setDisabledEb
libQt6Widgets.so.6:_ZN7QWidget11setGeometryERK5QRect
libQt6Widgets.so.6:_ZN7QWidget11setTabOrderEPS_S0_
libQt6Widgets.so.6:_ZN7QWidget11tabletEventEP12QTabletEvent
libQt6Widgets.so.6:_ZN7QWidget12focusInEventEP11QFocusEvent
libQt6Widgets.so.6:_ZN7QWidget12insertActionEP7QActionS1_
libQt6Widgets.so.6:_ZN7QWidget12removeActionEP7QAction
libQt6Widgets.so.6:_ZN7QWidget12setAttributeEN2Qt15WidgetAttributeEb
libQt6Widgets.so.6:_ZN7QWidget12setFixedSizeEii
libQt6Widgets.so.6:_ZN7QWidget12setWhatsThisERK7QString
libQt6Widgets.so.6:_ZN7QWidget13dragMoveEventEP14QDragMoveEvent
libQt6Widgets.so.6:_ZN7QWidget13focusOutEventEP11QFocusEvent
libQt6Widgets.so.6:_ZN7QWidget13keyPressEventEP9QKeyEvent
libQt6Widgets.so.6:_ZN7QWidget13setSizePolicyE11QSizePolicy
libQt6Widgets.so.6:_ZN7QWidget13setStyleSheetERK7QString
libQt6Widgets.so.6:_ZN7QWidget13setWindowFlagEN2Qt10WindowTypeEb
libQt6Widgets.so.6:_ZN7QWidget13setWindowIconERK5QIcon
libQt6Widgets.so.6:_ZN7QWidget13showMaximizedEv
libQt6Widgets.so.6:_ZN7QWidget14activateWindowEv
libQt6Widgets.so.6:_ZN7QWidget14dragEnterEventEP15QDragEnterEvent
libQt6Widgets.so.6:_ZN7QWidget14dragLeaveEventEP15QDragLeaveEvent
libQt6Widgets.so.6:_ZN7QWidget14mouseMoveEventEP11QMouseEvent
libQt6Widgets.so.6:_ZN7QWidget14setAcceptDropsEb
libQt6Widgets.so.6:_ZN7QWidget14setFocusPolicyEN2Qt11FocusPolicyE
libQt6Widgets.so.6:_ZN7QWidget14setMaximumSizeEii
libQt6Widgets.so.6:_ZN7QWidget14setMinimumSizeEii
libQt6Widgets.so.6:_ZN7QWidget14setWindowFlagsE6QFlagsIN2Qt10WindowTypeEE
libQt6Widgets.so.6:_ZN7QWidget14setWindowStateE6QFlagsIN2Qt11WindowStateEE
libQt6Widgets.so.6:_ZN7QWidget14setWindowTitleERK7QString
libQt6Widgets.so.6:_ZN7QWidget14updateGeometryEv
libQt6Widgets.so.6:_ZN7QWidget15keyReleaseEventEP9QKeyEvent
libQt6Widgets.so.6:_ZN7QWidget15mousePressEventEP11QMouseEvent
libQt6Widgets.so.6:_ZN7QWidget15restoreGeometryERK10QByteArray
libQt6Widgets.so.6:_ZN7QWidget15setMinimumWidthEi
libQt6Widgets.so.6:_ZN7QWidget16contextMenuEventEP17QContextMenuEvent
libQt6Widgets.so.6:_ZN7QWidget16inputMethodEventEP17QInputMethodEvent
libQt6Widgets.so.6:_ZN7QWidget16setMaximumHeightEi
libQt6Widgets.so.6:_ZN7QWidget16setMinimumHeightEi
libQt6Widgets.so.6:_ZN7QWidget16staticMetaObjectE
libQt6Widgets.so.6:_ZN7QWidget17mouseReleaseEventEP11QMouseEvent
libQt6Widgets.so.6:_ZN7QWidget17setBackgroundRoleEN8QPalette9ColorRoleE
libQt6Widgets.so.6:_ZN7QWidget17setForegroundRoleEN8QPalette9ColorRoleE
libQt6Widgets.so.6:_ZN7QWidget17setGraphicsEffectEP15QGraphicsEffect
libQt6Widgets.so.6:_ZN7QWidget17setWindowModalityEN2Qt14WindowModalityE
libQt6Widgets.so.6:_ZN7QWidget18focusNextPrevChildEb
libQt6Widgets.so.6:_ZN7QWidget20setContextMenuPolicyEN2Qt17ContextMenuPolicyE
libQt6Widgets.so.6:_ZN7QWidget21mouseDoubleClickEventEP11QMouseEvent
libQt6Widgets.so.6:_ZN7QWidget21setAutoFillBackgroundEb
libQt6Widgets.so.6:_ZN7QWidget26customContextMenuRequestedERK6QPoint
libQt6Widgets.so.6:_ZN7QWidget4hideEv
libQt6Widgets.so.6:_ZN7QWidget4moveERK6QPoint
libQt6Widgets.so.6:_ZN7QWidget4showEv
libQt6Widgets.so.6:_ZN7QWidget5closeEv
libQt6Widgets.so.6:_ZN7QWidget5eventEP6QEvent
libQt6Widgets.so.6:_ZN7QWidget5lowerEv
libQt6Widgets.so.6:_ZN7QWidget5raiseEv
libQt6Widgets.so.6:_ZN7QWidget6renderEP8QPainterRK6QPointRK7QRegion6QFlagsINS_10RenderFlagEE
libQt6Widgets.so.6:_ZN7QWidget6resizeERK5QSize
libQt6Widgets.so.6:_ZN7QWidget6updateEv
libQt6Widgets.so.6:_ZN7QWidget7repaintEv
libQt6Widgets.so.6:_ZN7QWidget7setFontERK5QFont
libQt6Widgets.so.6:_ZN7QWidget8setFocusEN2Qt11FocusReasonE
libQt6Widgets.so.6:_ZN7QWidget9addActionEP7QAction
libQt6Widgets.so.6:_ZN7QWidget9addActionERK5QIconRK7QString
libQt6Widgets.so.6:_ZN7QWidget9addActionERK7QString
libQt6Widgets.so.6:_ZN7QWidget9dropEventEP10QDropEvent
libQt6Widgets.so.6:_ZN7QWidget9hideEventEP10QHideEvent
libQt6Widgets.so.6:_ZN7QWidget9moveEventEP10QMoveEvent
libQt6Widgets.so.6:_ZN7QWidget9setHiddenEb
libQt6Widgets.so.6:_ZN7QWidget9setLayoutEP7QLayout
libQt6Widgets.so.6:_ZN7QWidget9setParentEPS_
libQt6Widgets.so.6:_ZN7QWidget9showEventEP10QShowEvent
libQt6Widgets.so.6:_ZN7QWidgetC1EPS_6QFlagsIN2Qt10WindowTypeEE
libQt6Widgets.so.6:_ZN7QWidgetC2EPS_6QFlagsIN2Qt10WindowTypeEE
libQt6Widgets.so.6:_ZN7QWidgetD1Ev
libQt6Widgets.so.6:_ZN7QWidgetD2Ev
libQt6Widgets.so.6:_ZN7QWizard10paintEventEP11QPaintEvent
libQt6Widgets.so.6:_ZN7QWizard10setOptionsE6QFlagsINS_12WizardOptionEE
libQt6Widgets.so.6:_ZN7QWizard10setVisibleEb
libQt6Widgets.so.6:_ZN7QWizard11cleanupPageEi
libQt6Widgets.so.6:_ZN7QWizard11qt_metacallEN11QMetaObject4CallEiPPv
libQt6Widgets.so.6:_ZN7QWizard11qt_metacastEPKc
libQt6Widgets.so.6:_ZN7QWizard11resizeEventEP12QResizeEvent
libQt6Widgets.so.6:_ZN7QWizard13setButtonTextENS_12WizardButtonERK7QString
libQt6Widgets.so.6:_ZN7QWizard14setWizardStyleENS_11WizardStyleE
libQt6Widgets.so.6:_ZN7QWizard16currentIdChangedEi
libQt6Widgets.so.6:_ZN7QWizard16staticMetaObjectE
libQt6Widgets.so.6:_ZN7QWizard19customButtonClickedEi
libQt6Widgets.so.6:_ZN7QWizard4doneEi
libQt6Widgets.so.6:_ZN7QWizard4nextEv
libQt6Widgets.so.6:_ZN7QWizard5eventEP6QEvent
libQt6Widgets.so.6:_ZN7QWizard7setPageEiP11QWizardPage
libQt6Widgets.so.6:_ZN7QWizard9setOptionENS_12WizardOptionEb
libQt6Widgets.so.6:_ZN7QWizardC2EP7QWidget6QFlagsIN2Qt10WindowTypeEE
libQt6Widgets.so.6:_ZN7QWizardD2Ev
libQt6Widgets.so.6:_ZN8QMenuBarC1EP7QWidget
libQt6Widgets.so.6:_ZN8QSpinBox10setMaximumEi
libQt6Widgets.so.6:_ZN8QSpinBox10setMinimumEi
libQt6Widgets.so.6:_ZN8QSpinBox11qt_metacallEN11QMetaObject4CallEiPPv
libQt6Widgets.so.6:_ZN8QSpinBox11qt_metacastEPKc
libQt6Widgets.so.6:_ZN8QSpinBox12valueChangedEi
libQt6Widgets.so.6:_ZN8QSpinBox13setSingleStepEi
libQt6Widgets.so.6:_ZN8QSpinBox16staticMetaObjectE
libQt6Widgets.so.6:_ZN8QSpinBox5eventEP6QEvent
libQt6Widgets.so.6:_ZN8QSpinBox8setValueEi
libQt6Widgets.so.6:_ZN8QSpinBox9setPrefixERK7QString
libQt6Widgets.so.6:_ZN8QSpinBox9setSuffixERK7QString
libQt6Widgets.so.6:_ZN8QSpinBoxC1EP7QWidget
libQt6Widgets.so.6:_ZN8QSpinBoxC2EP7QWidget
libQt6Widgets.so.6:_ZN8QSpinBoxD2Ev
libQt6Widgets.so.6:_ZN8QToolBar5clearEv
libQt6Widgets.so.6:_ZN8QToolBarC1EP7QWidget
libQt6Widgets.so.6:_ZN8QToolBox10insertItemEiP7QWidgetRK5QIconRK7QString
libQt6Widgets.so.6:_ZN8QToolBox11changeEventEP6QEvent
libQt6Widgets.so.6:_ZN8QToolBox11itemRemovedEi
libQt6Widgets.so.6:_ZN8QToolBox11qt_metacallEN11QMetaObject4CallEiPPv
libQt6Widgets.so.6:_ZN8QToolBox11qt_metacastEPKc
libQt6Widgets.so.6:_ZN8QToolBox12itemInsertedEi
libQt6Widgets.so.6:_ZN8QToolBox14currentChangedEi
libQt6Widgets.so.6:_ZN8QToolBox15setCurrentIndexEi
libQt6Widgets.so.6:_ZN8QToolBox16staticMetaObjectE
libQt6Widgets.so.6:_ZN8QToolBox5eventEP6QEvent
libQt6Widgets.so.6:_ZN8QToolBox9showEventEP10QShowEvent
libQt6Widgets.so.6:_ZN8QToolBoxC2EP7QWidget6QFlagsIN2Qt10WindowTypeEE
libQt6Widgets.so.6:_ZN8QToolBoxD2Ev
libQt6Widgets.so.6:_ZN8QToolTip8showTextERK6QPointRK7QStringP7QWidgetRK5QRecti
libQt6Widgets.so.6:_ZN9QCheckBox16staticMetaObjectE
libQt6Widgets.so.6:_ZN9QCheckBox17checkStateChangedEN2Qt10CheckStateE
libQt6Widgets.so.6:_ZN9QCheckBoxC1EP7QWidget
libQt6Widgets.so.6:_ZN9QCheckBoxC1ERK7QStringP7QWidget
libQt6Widgets.so.6:_ZN9QComboBox10insertItemEiRK5QIconRK7QStringRK8QVariant
libQt6Widgets.so.6:_ZN9QComboBox11insertItemsEiRK5QListI7QStringE
libQt6Widgets.so.6:_ZN9QComboBox11setIconSizeERK5QSize
libQt6Widgets.so.6:_ZN9QComboBox11setItemTextEiRK7QString
libQt6Widgets.so.6:_ZN9QComboBox14setCurrentTextERK7QString
libQt6Widgets.so.6:_ZN9QComboBox15setCurrentIndexEi
libQt6Widgets.so.6:_ZN9QComboBox15setInsertPolicyENS_12InsertPolicyE
libQt6Widgets.so.6:_ZN9QComboBox16staticMetaObjectE
libQt6Widgets.so.6:_ZN9QComboBox18currentTextChangedERK7QString
libQt6Widgets.so.6:_ZN9QComboBox19currentIndexChangedEi
libQt6Widgets.so.6:_ZN9QComboBox19setSizeAdjustPolicyENS_16SizeAdjustPolicyE
libQt6Widgets.so.6:_ZN9QComboBox5clearEv
libQt6Widgets.so.6:_ZN9QComboBox9activatedEi
libQt6Widgets.so.6:_ZN9QComboBoxC1EP7QWidget
libQt6Widgets.so.6:_ZN9QGroupBox10childEventEP11QChildEvent
libQt6Widgets.so.6:_ZN9QGroupBox10paintEventEP11QPaintEvent
libQt6Widgets.so.6:_ZN9QGroupBox10setCheckedEb
libQt6Widgets.so.6:_ZN9QGroupBox11changeEventEP6QEvent
libQt6Widgets.so.6:_ZN9QGroupBox11qt_metacallEN11QMetaObject4CallEiPPv
libQt6Widgets.so.6:_ZN9QGroupBox11qt_metacastEPKc
libQt6Widgets.so.6:_ZN9QGroupBox11resizeEventEP12QResizeEvent
libQt6Widgets.so.6:_ZN9QGroupBox12focusInEventEP11QFocusEvent
libQt6Widgets.so.6:_ZN9QGroupBox12setCheckableEb
libQt6Widgets.so.6:_ZN9QGroupBox14mouseMoveEventEP11QMouseEvent
libQt6Widgets.so.6:_ZN9QGroupBox15mousePressEventEP11QMouseEvent
libQt6Widgets.so.6:_ZN9QGroupBox16staticMetaObjectE
libQt6Widgets.so.6:_ZN9QGroupBox17mouseReleaseEventEP11QMouseEvent
libQt6Widgets.so.6:_ZN9QGroupBox5eventEP6QEvent
libQt6Widgets.so.6:_ZN9QGroupBox7setFlatEb
libQt6Widgets.so.6:_ZN9QGroupBox8setTitleERK7QString
libQt6Widgets.so.6:_ZN9QGroupBoxC1EP7QWidget
libQt6Widgets.so.6:_ZN9QGroupBoxC2EP7QWidget
libQt6Widgets.so.6:_ZN9QGroupBoxD2Ev
libQt6Widgets.so.6:_ZN9QLineEdit10paintEventEP11QPaintEvent
libQt6Widgets.so.6:_ZN9QLineEdit10textEditedERK7QString
libQt6Widgets.so.6:_ZN9QLineEdit10timerEventEP11QTimerEvent
libQt6Widgets.so.6:_ZN9QLineEdit11changeEventEP6QEvent
libQt6Widgets.so.6:_ZN9QLineEdit11qt_metacallEN11QMetaObject4CallEiPPv
libQt6Widgets.so.6:_ZN9QLineEdit11qt_metacastEPKc
libQt6Widgets.so.6:_ZN9QLineEdit11setEchoModeENS_8EchoModeE
libQt6Widgets.so.6:_ZN9QLineEdit11setReadOnlyEb
libQt6Widgets.so.6:_ZN9QLineEdit11textChangedERK7QString
libQt6Widgets.so.6:_ZN9QLineEdit12focusInEventEP11QFocusEvent
libQt6Widgets.so.6:_ZN9QLineEdit12setAlignmentE6QFlagsIN2Qt13AlignmentFlagEE
libQt6Widgets.so.6:_ZN9QLineEdit12setCompleterEP10QCompleter
libQt6Widgets.so.6:_ZN9QLineEdit12setInputMaskERK7QString
libQt6Widgets.so.6:_ZN9QLineEdit13dragMoveEventEP14QDragMoveEvent
libQt6Widgets.so.6:_ZN9QLineEdit13focusOutEventEP11QFocusEvent
libQt6Widgets.so.6:_ZN9QLineEdit13keyPressEventEP9QKeyEvent
libQt6Widgets.so.6:_ZN9QLineEdit13returnPressedEv
libQt6Widgets.so.6:_ZN9QLineEdit14dragEnterEventEP15QDragEnterEvent
libQt6Widgets.so.6:_ZN9QLineEdit14dragLeaveEventEP15QDragLeaveEvent
libQt6Widgets.so.6:_ZN9QLineEdit14mouseMoveEventEP11QMouseEvent
libQt6Widgets.so.6:_ZN9QLineEdit15editingFinishedEv
libQt6Widgets.so.6:_ZN9QLineEdit15keyReleaseEventEP9QKeyEvent
libQt6Widgets.so.6:_ZN9QLineEdit15mousePressEventEP11QMouseEvent
libQt6Widgets.so.6:_ZN9QLineEdit16contextMenuEventEP17QContextMenuEvent
libQt6Widgets.so.6:_ZN9QLineEdit16inputMethodEventEP17QInputMethodEvent
libQt6Widgets.so.6:_ZN9QLineEdit16staticMetaObjectE
libQt6Widgets.so.6:_ZN9QLineEdit17mouseReleaseEventEP11QMouseEvent
libQt6Widgets.so.6:_ZN9QLineEdit17setCursorPositionEi
libQt6Widgets.so.6:_ZN9QLineEdit18setPlaceholderTextERK7QString
libQt6Widgets.so.6:_ZN9QLineEdit21mouseDoubleClickEventEP11QMouseEvent
libQt6Widgets.so.6:_ZN9QLineEdit5clearEv
libQt6Widgets.so.6:_ZN9QLineEdit5eventEP6QEvent
libQt6Widgets.so.6:_ZN9QLineEdit7setTextERK7QString
libQt6Widgets.so.6:_ZN9QLineEdit8setFrameEb
libQt6Widgets.so.6:_ZN9QLineEdit9addActionEP7QActionNS_14ActionPositionE
libQt6Widgets.so.6:_ZN9QLineEdit9addActionERK5QIconNS_14ActionPositionE
libQt6Widgets.so.6:_ZN9QLineEdit9dropEventEP10QDropEvent
libQt6Widgets.so.6:_ZN9QLineEdit9selectAllEv
libQt6Widgets.so.6:_ZN9QLineEditC1EP7QWidget
libQt6Widgets.so.6:_ZN9QLineEditC2EP7QWidget
libQt6Widgets.so.6:_ZN9QLineEditD1Ev
libQt6Widgets.so.6:_ZN9QLineEditD2Ev
libQt6Widgets.so.6:_ZN9QListView10moveCursorEN17QAbstractItemView12CursorActionE6QFlagsIN2Qt16KeyboardModifierEE
libQt6Widgets.so.6:_ZN9QListView10paintEventEP11QPaintEvent
libQt6Widgets.so.6:_ZN9QListView10timerEventEP11QTimerEvent
libQt6Widgets.so.6:_ZN9QListView10wheelEventEP11QWheelEvent
libQt6Widgets.so.6:_ZN9QListView11dataChangedERK11QModelIndexS2_RK5QListIiE
libQt6Widgets.so.6:_ZN9QListView11resizeEventEP12QResizeEvent
libQt6Widgets.so.6:_ZN9QListView12rowsInsertedERK11QModelIndexii
libQt6Widgets.so.6:_ZN9QListView12setRootIndexERK11QModelIndex
libQt6Widgets.so.6:_ZN9QListView12setSelectionERK5QRect6QFlagsIN19QItemSelectionModel13SelectionFlagEE
libQt6Widgets.so.6:_ZN9QListView13doItemsLayoutEv
libQt6Widgets.so.6:_ZN9QListView13dragMoveEventEP14QDragMoveEvent
libQt6Widgets.so.6:_ZN9QListView14currentChangedERK11QModelIndexS2_
libQt6Widgets.so.6:_ZN9QListView14dragLeaveEventEP15QDragLeaveEvent
libQt6Widgets.so.6:_ZN9QListView14mouseMoveEventEP11QMouseEvent
libQt6Widgets.so.6:_ZN9QListView16scrollContentsByEii
libQt6Widgets.so.6:_ZN9QListView16selectionChangedERK14QItemSelectionS2_
libQt6Widgets.so.6:_ZN9QListView16staticMetaObjectE
libQt6Widgets.so.6:_ZN9QListView16updateGeometriesEv
libQt6Widgets.so.6:_ZN9QListView17mouseReleaseEventEP11QMouseEvent
libQt6Widgets.so.6:_ZN9QListView20rowsAboutToBeRemovedERK11QModelIndexii
libQt6Widgets.so.6:_ZN9QListView5resetEv
libQt6Widgets.so.6:_ZN9QListView8scrollToERK11QModelIndexN17QAbstractItemView10ScrollHintE
libQt6Widgets.so.6:_ZN9QListView9startDragE6QFlagsIN2Qt10DropActionEE
libQt6Widgets.so.6:_ZN9QListViewC1EP7QWidget
libQt6Widgets.so.6:_ZN9QSplitter12insertWidgetEiP7QWidget
libQt6Widgets.so.6:_ZN9QSplitter12restoreStateERK10QByteArray
libQt6Widgets.so.6:_ZN9QSplitter14setOrientationEN2Qt11OrientationE
libQt6Widgets.so.6:_ZN9QSplitter9addWidgetEP7QWidget
libQt6Widgets.so.6:_ZN9QSplitterC1EN2Qt11OrientationEP7QWidget
libQt6Widgets.so.6:_ZN9QSplitterC1EP7QWidget
libQt6Widgets.so.6:_ZN9QTextEdit10insertHtmlERK7QString
libQt6Widgets.so.6:_ZN9QTextEdit10moveCursorEN11QTextCursor13MoveOperationENS0_8MoveModeE
libQt6Widgets.so.6:_ZN9QTextEdit10paintEventEP11QPaintEvent
libQt6Widgets.so.6:_ZN9QTextEdit10timerEventEP11QTimerEvent
libQt6Widgets.so.6:_ZN9QTextEdit10wheelEventEP11QWheelEvent
libQt6Widgets.so.6:_ZN9QTextEdit11changeEventEP6QEvent
libQt6Widgets.so.6:_ZN9QTextEdit11qt_metacallEN11QMetaObject4CallEiPPv
libQt6Widgets.so.6:_ZN9QTextEdit11qt_metacastEPKc
libQt6Widgets.so.6:_ZN9QTextEdit11resizeEventEP12QResizeEvent
libQt6Widgets.so.6:_ZN9QTextEdit11setDocumentEP13QTextDocument
libQt6Widgets.so.6:_ZN9QTextEdit11setReadOnlyEb
libQt6Widgets.so.6:_ZN9QTextEdit11textChangedEv
libQt6Widgets.so.6:_ZN9QTextEdit12focusInEventEP11QFocusEvent
libQt6Widgets.so.6:_ZN9QTextEdit12loadResourceEiRK4QUrl
libQt6Widgets.so.6:_ZN9QTextEdit12setAlignmentE6QFlagsIN2Qt13AlignmentFlagEE
libQt6Widgets.so.6:_ZN9QTextEdit12setTextColorERK6QColor
libQt6Widgets.so.6:_ZN9QTextEdit13copyAvailableEb
libQt6Widgets.so.6:_ZN9QTextEdit13dragMoveEventEP14QDragMoveEvent
libQt6Widgets.so.6:_ZN9QTextEdit13focusOutEventEP11QFocusEvent
libQt6Widgets.so.6:_ZN9QTextEdit13keyPressEventEP9QKeyEvent
libQt6Widgets.so.6:_ZN9QTextEdit13setTextCursorERK11QTextCursor
libQt6Widgets.so.6:_ZN9QTextEdit14dragEnterEventEP15QDragEnterEvent
libQt6Widgets.so.6:_ZN9QTextEdit14dragLeaveEventEP15QDragLeaveEvent
libQt6Widgets.so.6:_ZN9QTextEdit14mouseMoveEventEP11QMouseEvent
libQt6Widgets.so.6:_ZN9QTextEdit14setCurrentFontERK5QFont
libQt6Widgets.so.6:_ZN9QTextEdit15doSetTextCursorERK11QTextCursor
libQt6Widgets.so.6:_ZN9QTextEdit15insertPlainTextERK7QString
libQt6Widgets.so.6:_ZN9QTextEdit15keyReleaseEventEP9QKeyEvent
libQt6Widgets.so.6:_ZN9QTextEdit15mousePressEventEP11QMouseEvent
libQt6Widgets.so.6:_ZN9QTextEdit16contextMenuEventEP17QContextMenuEvent
libQt6Widgets.so.6:_ZN9QTextEdit16inputMethodEventEP17QInputMethodEvent
libQt6Widgets.so.6:_ZN9QTextEdit16scrollContentsByEii
libQt6Widgets.so.6:_ZN9QTextEdit16selectionChangedEv
libQt6Widgets.so.6:_ZN9QTextEdit16setFontPointSizeEd
libQt6Widgets.so.6:_ZN9QTextEdit16staticMetaObjectE
libQt6Widgets.so.6:_ZN9QTextEdit17mouseReleaseEventEP11QMouseEvent
libQt6Widgets.so.6:_ZN9QTextEdit18focusNextPrevChildEb
libQt6Widgets.so.6:_ZN9QTextEdit18insertFromMimeDataEPK9QMimeData
libQt6Widgets.so.6:_ZN9QTextEdit19ensureCursorVisibleEv
libQt6Widgets.so.6:_ZN9QTextEdit21cursorPositionChangedEv
libQt6Widgets.so.6:_ZN9QTextEdit21mouseDoubleClickEventEP11QMouseEvent
libQt6Widgets.so.6:_ZN9QTextEdit22mergeCurrentCharFormatERK15QTextCharFormat
libQt6Widgets.so.6:_ZN9QTextEdit24currentCharFormatChangedERK15QTextCharFormat
libQt6Widgets.so.6:_ZN9QTextEdit3cutEv
libQt6Widgets.so.6:_ZN9QTextEdit4copyEv
libQt6Widgets.so.6:_ZN9QTextEdit4redoEv
libQt6Widgets.so.6:_ZN9QTextEdit4undoEv
libQt6Widgets.so.6:_ZN9QTextEdit5clearEv
libQt6Widgets.so.6:_ZN9QTextEdit5eventEP6QEvent
libQt6Widgets.so.6:_ZN9QTextEdit5pasteEv
libQt6Widgets.so.6:_ZN9QTextEdit6appendERK7QString
libQt6Widgets.so.6:_ZN9QTextEdit7setHtmlERK7QString
libQt6Widgets.so.6:_ZN9QTextEdit7setTextERK7QString
libQt6Widgets.so.6:_ZN9QTextEdit9dropEventEP10QDropEvent
libQt6Widgets.so.6:_ZN9QTextEdit9selectAllEv
libQt6Widgets.so.6:_ZN9QTextEdit9showEventEP10QShowEvent
libQt6Widgets.so.6:_ZN9QTextEditC1EP7QWidget
libQt6Widgets.so.6:_ZN9QTextEditC2EP7QWidget
libQt6Widgets.so.6:_ZN9QTextEditD2Ev
libQt6Widgets.so.6:_ZN9QTreeView10moveCursorEN17QAbstractItemView12CursorActionE6QFlagsIN2Qt16KeyboardModifierEE
libQt6Widgets.so.6:_ZN9QTreeView10paintEventEP11QPaintEvent
libQt6Widgets.so.6:_ZN9QTreeView10timerEventEP11QTimerEvent
libQt6Widgets.so.6:_ZN9QTreeView11changeEventEP6QEvent
libQt6Widgets.so.6:_ZN9QTreeView11collapseAllEv
libQt6Widgets.so.6:_ZN9QTreeView11dataChangedERK11QModelIndexS2_RK5QListIiE
libQt6Widgets.so.6:_ZN9QTreeView11setWordWrapEb
libQt6Widgets.so.6:_ZN9QTreeView12rowsInsertedERK11QModelIndexii
libQt6Widgets.so.6:_ZN9QTreeView12setRootIndexERK11QModelIndex
libQt6Widgets.so.6:_ZN9QTreeView12setSelectionERK5QRect6QFlagsIN19QItemSelectionModel13SelectionFlagEE
libQt6Widgets.so.6:_ZN9QTreeView13doItemsLayoutEv
libQt6Widgets.so.6:_ZN9QTreeView13dragMoveEventEP14QDragMoveEvent
libQt6Widgets.so.6:_ZN9QTreeView13keyPressEventEP9QKeyEvent
libQt6Widgets.so.6:_ZN9QTreeView13viewportEventEP6QEvent
libQt6Widgets.so.6:_ZN9QTreeView14currentChangedERK11QModelIndexS2_
libQt6Widgets.so.6:_ZN9QTreeView14keyboardSearchERK7QString
libQt6Widgets.so.6:_ZN9QTreeView14mouseMoveEventEP11QMouseEvent
libQt6Widgets.so.6:_ZN9QTreeView14setColumnWidthEii
libQt6Widgets.so.6:_ZN9QTreeView14setIndentationEi
libQt6Widgets.so.6:_ZN9QTreeView15mousePressEventEP11QMouseEvent
libQt6Widgets.so.6:_ZN9QTreeView15setColumnHiddenEib
libQt6Widgets.so.6:_ZN9QTreeView15setHeaderHiddenEb
libQt6Widgets.so.6:_ZN9QTreeView16scrollContentsByEii
libQt6Widgets.so.6:_ZN9QTreeView16selectionChangedERK14QItemSelectionS2_
libQt6Widgets.so.6:_ZN9QTreeView16updateGeometriesEv
libQt6Widgets.so.6:_ZN9QTreeView17mouseReleaseEventEP11QMouseEvent
libQt6Widgets.so.6:_ZN9QTreeView18setItemsExpandableEb
libQt6Widgets.so.6:_ZN9QTreeView18setRootIsDecoratedEb
libQt6Widgets.so.6:_ZN9QTreeView20rowsAboutToBeRemovedERK11QModelIndexii
libQt6Widgets.so.6:_ZN9QTreeView21mouseDoubleClickEventEP11QMouseEvent
libQt6Widgets.so.6:_ZN9QTreeView22resizeColumnToContentsEi
libQt6Widgets.so.6:_ZN9QTreeView23setExpandsOnDoubleClickEb
libQt6Widgets.so.6:_ZN9QTreeView25horizontalScrollbarActionEi
libQt6Widgets.so.6:_ZN9QTreeView29verticalScrollbarValueChangedEi
libQt6Widgets.so.6:_ZN9QTreeView5resetEv
libQt6Widgets.so.6:_ZN9QTreeView8scrollToERK11QModelIndexN17QAbstractItemView10ScrollHintE
libQt6Widgets.so.6:_ZN9QTreeView9expandAllEv
libQt6Widgets.so.6:_ZN9QTreeView9selectAllEv
libQt6Widgets.so.6:_ZNK10QTabWidget12currentIndexEv
libQt6Widgets.so.6:_ZNK10QTabWidget13currentWidgetEv
libQt6Widgets.so.6:_ZNK10QTabWidget5countEv
libQt6Widgets.so.6:_ZNK10QTabWidget6tabBarEv
libQt6Widgets.so.6:_ZNK10QTabWidget6widgetEi
libQt6Widgets.so.6:_ZNK10QTabWidget7indexOfEPK7QWidget
libQt6Widgets.so.6:_ZNK10QTabWidget7tabTextEi
libQt6Widgets.so.6:_ZNK11QDockWidget15initStyleOptionEP22QStyleOptionDockWidget
libQt6Widgets.so.6:_ZNK11QDockWidget16toggleViewActionEv
libQt6Widgets.so.6:_ZNK11QFileDialog13selectedFilesEv
libQt6Widgets.so.6:_ZNK11QHeaderView9saveStateEv
libQt6Widgets.so.6:_ZNK11QLayoutItem14heightForWidthEi
libQt6Widgets.so.6:_ZNK11QLayoutItem17hasHeightForWidthEv
libQt6Widgets.so.6:_ZNK11QLayoutItem21minimumHeightForWidthEi
libQt6Widgets.so.6:_ZNK11QLayoutItem6widgetEv
libQt6Widgets.so.6:_ZNK11QListWidget10currentRowEv
libQt6Widgets.so.6:_ZNK11QListWidget11currentItemEv
libQt6Widgets.so.6:_ZNK11QListWidget13selectedItemsEv
libQt6Widgets.so.6:_ZNK11QListWidget20supportedDropActionsEv
libQt6Widgets.so.6:_ZNK11QListWidget3rowEPK15QListWidgetItem
libQt6Widgets.so.6:_ZNK11QListWidget4itemEi
libQt6Widgets.so.6:_ZNK11QListWidget5countEv
libQt6Widgets.so.6:_ZNK11QListWidget8mimeDataERK5QListIP15QListWidgetItemE
libQt6Widgets.so.6:_ZNK11QListWidget9mimeTypesEv
libQt6Widgets.so.6:_ZNK11QMainWindow7menuBarEv
libQt6Widgets.so.6:_ZNK11QMainWindow9saveStateEi
libQt6Widgets.so.6:_ZNK11QMainWindow9statusBarEv
libQt6Widgets.so.6:_ZNK11QMessageBox13clickedButtonEv
libQt6Widgets.so.6:_ZNK11QMessageBox6buttonENS_14StandardButtonE
libQt6Widgets.so.6:_ZNK11QTreeWidget10headerItemEv
libQt6Widgets.so.6:_ZNK11QTreeWidget10itemWidgetEP15QTreeWidgetItemi
libQt6Widgets.so.6:_ZNK11QTreeWidget11currentItemEv
libQt6Widgets.so.6:_ZNK11QTreeWidget12topLevelItemEi
libQt6Widgets.so.6:_ZNK11QTreeWidget13indexFromItemEPK15QTreeWidgetItemi
libQt6Widgets.so.6:_ZNK11QTreeWidget13selectedItemsEv
libQt6Widgets.so.6:_ZNK11QTreeWidget14visualItemRectEPK15QTreeWidgetItem
libQt6Widgets.so.6:_ZNK11QTreeWidget17topLevelItemCountEv
libQt6Widgets.so.6:_ZNK11QTreeWidget19indexOfTopLevelItemEP15QTreeWidgetItem
libQt6Widgets.so.6:_ZNK11QTreeWidget20supportedDropActionsEv
libQt6Widgets.so.6:_ZNK11QTreeWidget6itemAtERK6QPoint
libQt6Widgets.so.6:_ZNK11QTreeWidget8mimeDataERK5QListIP15QTreeWidgetItemE
libQt6Widgets.so.6:_ZNK11QTreeWidget9findItemsERK7QString6QFlagsIN2Qt9MatchFlagEEi
libQt6Widgets.so.6:_ZNK11QTreeWidget9itemAboveEPK15QTreeWidgetItem
libQt6Widgets.so.6:_ZNK11QTreeWidget9itemBelowEPK15QTreeWidgetItem
libQt6Widgets.so.6:_ZNK11QTreeWidget9mimeTypesEv
libQt6Widgets.so.6:_ZNK11QWizardPage6nextIdEv
libQt6Widgets.so.6:_ZNK11QWizardPage6wizardEv
libQt6Widgets.so.6:_ZNK13QDateTimeEdit8dateTimeEv
libQt6Widgets.so.6:_ZNK13QGestureEvent7gestureEN2Qt11GestureTypeE
libQt6Widgets.so.6:_ZNK13QPinchGesture11centerPointEv
libQt6Widgets.so.6:_ZNK13QPinchGesture11changeFlagsEv
libQt6Widgets.so.6:_ZNK13QPinchGesture15lastCenterPointEv
libQt6Widgets.so.6:_ZNK13QPinchGesture16totalScaleFactorEv
libQt6Widgets.so.6:_ZNK14QDoubleSpinBox13textFromValueEd
libQt6Widgets.so.6:_ZNK14QDoubleSpinBox13valueFromTextERK7QString
libQt6Widgets.so.6:_ZNK14QDoubleSpinBox5fixupER7QString
libQt6Widgets.so.6:_ZNK14QDoubleSpinBox5valueEv
libQt6Widgets.so.6:_ZNK14QDoubleSpinBox8validateER7QStringRi
libQt6Widgets.so.6:_ZNK14QPlainTextEdit8documentEv
libQt6Widgets.so.6:_ZNK14QStackedWidget10metaObjectEv
libQt6Widgets.so.6:_ZNK14QStackedWidget13currentWidgetEv
libQt6Widgets.so.6:_ZNK14QStackedWidget5countEv
libQt6Widgets.so.6:_ZNK14QStackedWidget6widgetEi
libQt6Widgets.so.6:_ZNK15QAbstractButton4textEv
libQt6Widgets.so.6:_ZNK15QAbstractButton9isCheckedEv
libQt6Widgets.so.6:_ZNK15QAbstractSlider5valueEv
libQt6Widgets.so.6:_ZNK15QAbstractSlider7maximumEv
libQt6Widgets.so.6:_ZNK15QListWidgetItem4dataEi
libQt6Widgets.so.6:_ZNK15QListWidgetItem5cloneEv
libQt6Widgets.so.6:_ZNK15QListWidgetItem5writeER11QDataStream
libQt6Widgets.so.6:_ZNK15QListWidgetItemltERKS_
libQt6Widgets.so.6:_ZNK15QTreeWidgetItem10isExpandedEv
libQt6Widgets.so.6:_ZNK15QTreeWidgetItem10isSelectedEv
libQt6Widgets.so.6:_ZNK15QTreeWidgetItem18executePendingSortEv
libQt6Widgets.so.6:_ZNK15QTreeWidgetItem4dataEii
libQt6Widgets.so.6:_ZNK15QTreeWidgetItem5cloneEv
libQt6Widgets.so.6:_ZNK15QTreeWidgetItem5flagsEv
libQt6Widgets.so.6:_ZNK15QTreeWidgetItem5writeER11QDataStream
libQt6Widgets.so.6:_ZNK15QTreeWidgetItem8isHiddenEv
libQt6Widgets.so.6:_ZNK15QTreeWidgetItemltERKS_
libQt6Widgets.so.6:_ZNK16QAbstractSpinBox10isReadOnlyEv
libQt6Widgets.so.6:_ZNK16QAbstractSpinBox11stepEnabledEv
libQt6Widgets.so.6:_ZNK16QAbstractSpinBox15initStyleOptionEP19QStyleOptionSpinBox
libQt6Widgets.so.6:_ZNK16QAbstractSpinBox15minimumSizeHintEv
libQt6Widgets.so.6:_ZNK16QAbstractSpinBox16inputMethodQueryEN2Qt16InputMethodQueryE
libQt6Widgets.so.6:_ZNK16QAbstractSpinBox4textEv
libQt6Widgets.so.6:_ZNK16QAbstractSpinBox8sizeHintEv
libQt6Widgets.so.6:_ZNK16QDialogButtonBox10buttonRoleEP15QAbstractButton
libQt6Widgets.so.6:_ZNK16QDialogButtonBox6buttonENS_14StandardButtonE
libQt6Widgets.so.6:_ZNK17QAbstractItemView14selectionModelEv
libQt6Widgets.so.6:_ZNK17QAbstractItemView14sizeHintForRowEi
libQt6Widgets.so.6:_ZNK17QAbstractItemView16inputMethodQueryEN2Qt16InputMethodQueryE
libQt6Widgets.so.6:_ZNK17QAbstractItemView16selectionCommandERK11QModelIndexPK6QEvent
libQt6Widgets.so.6:_ZNK17QAbstractItemView17sizeHintForColumnEi
libQt6Widgets.so.6:_ZNK17QAbstractItemView18initViewItemOptionEP20QStyleOptionViewItem
libQt6Widgets.so.6:_ZNK17QAbstractItemView20itemDelegateForIndexERK11QModelIndex
libQt6Widgets.so.6:_ZNK17QAbstractItemView5modelEv
libQt6Widgets.so.6:_ZNK19QAbstractScrollArea15minimumSizeHintEv
libQt6Widgets.so.6:_ZNK19QAbstractScrollArea16viewportSizeHintEv
libQt6Widgets.so.6:_ZNK19QAbstractScrollArea17verticalScrollBarEv
libQt6Widgets.so.6:_ZNK19QAbstractScrollArea8sizeHintEv
libQt6Widgets.so.6:_ZNK5QMenu10menuActionEv
libQt6Widgets.so.6:_ZNK6QFrame15initStyleOptionEP17QStyleOptionFrame
libQt6Widgets.so.6:_ZNK6QFrame8sizeHintEv
libQt6Widgets.so.6:_ZNK6QLabel14heightForWidthEi
libQt6Widgets.so.6:_ZNK6QLabel15minimumSizeHintEv
libQt6Widgets.so.6:_ZNK6QLabel4textEv
libQt6Widgets.so.6:_ZNK6QLabel8sizeHintEv
libQt6Widgets.so.6:_ZNK7QDialog10metaObjectEv
libQt6Widgets.so.6:_ZNK7QDialog15minimumSizeHintEv
libQt6Widgets.so.6:_ZNK7QDialog6resultEv
libQt6Widgets.so.6:_ZNK7QDialog8sizeHintEv
libQt6Widgets.so.6:_ZNK7QLayout10metaObjectEv
libQt6Widgets.so.6:_ZNK7QLayout11maximumSizeEv
libQt6Widgets.so.6:_ZNK7QLayout11minimumSizeEv
libQt6Widgets.so.6:_ZNK7QLayout12controlTypesEv
libQt6Widgets.so.6:_ZNK7QLayout19expandingDirectionsEv
libQt6Widgets.so.6:_ZNK7QLayout7indexOfEPK11QLayoutItem
libQt6Widgets.so.6:_ZNK7QLayout7indexOfEPK7QWidget
libQt6Widgets.so.6:_ZNK7QLayout7isEmptyEv
libQt6Widgets.so.6:_ZNK7QLayout7spacingEv
libQt6Widgets.so.6:_ZNK7QLayout8geometryEv
libQt6Widgets.so.6:_ZNK7QWidget10metaObjectEv
libQt6Widgets.so.6:_ZNK7QWidget10redirectedEP6QPoint
libQt6Widgets.so.6:_ZNK7QWidget10sizePolicyEv
libQt6Widgets.so.6:_ZNK7QWidget11initPainterEP8QPainter
libQt6Widgets.so.6:_ZNK7QWidget11mapToGlobalERK6QPoint
libQt6Widgets.so.6:_ZNK7QWidget11mapToParentERK6QPoint
libQt6Widgets.so.6:_ZNK7QWidget11paintEngineEv
libQt6Widgets.so.6:_ZNK7QWidget11windowStateEv
libQt6Widgets.so.6:_ZNK7QWidget12childrenRectEv
libQt6Widgets.so.6:_ZNK7QWidget12contentsRectEv
libQt6Widgets.so.6:_ZNK7QWidget12saveGeometryEv
libQt6Widgets.so.6:_ZNK7QWidget13frameGeometryEv
libQt6Widgets.so.6:_ZNK7QWidget13mapFromGlobalERK6QPoint
libQt6Widgets.so.6:_ZNK7QWidget13sharedPainterEv
libQt6Widgets.so.6:_ZNK7QWidget13windowOpacityEv
libQt6Widgets.so.6:_ZNK7QWidget14backgroundRoleEv
libQt6Widgets.so.6:_ZNK7QWidget14foregroundRoleEv
libQt6Widgets.so.6:_ZNK7QWidget14heightForWidthEi
libQt6Widgets.so.6:_ZNK7QWidget15minimumSizeHintEv
libQt6Widgets.so.6:_ZNK7QWidget16inputMethodQueryEN2Qt16InputMethodQueryE
libQt6Widgets.so.6:_ZNK7QWidget16nextInFocusChainEv
libQt6Widgets.so.6:_ZNK7QWidget17hasHeightForWidthEv
libQt6Widgets.so.6:_ZNK7QWidget5styleEv
libQt6Widgets.so.6:_ZNK7QWidget6layoutEv
libQt6Widgets.so.6:_ZNK7QWidget6metricEN12QPaintDevice17PaintDeviceMetricE
libQt6Widgets.so.6:_ZNK7QWidget7devTypeEv
libQt6Widgets.so.6:_ZNK7QWidget7paletteEv
libQt6Widgets.so.6:_ZNK7QWidget7toolTipEv
libQt6Widgets.so.6:_ZNK7QWidget8hasFocusEv
libQt6Widgets.so.6:_ZNK7QWidget8sizeHintEv
libQt6Widgets.so.6:_ZNK7QWizard8sizeHintEv
libQt6Widgets.so.6:_ZNK7QWizard9currentIdEv
libQt6Widgets.so.6:_ZNK8QSpinBox13textFromValueEi
libQt6Widgets.so.6:_ZNK8QSpinBox13valueFromTextERK7QString
libQt6Widgets.so.6:_ZNK8QSpinBox5fixupER7QString
libQt6Widgets.so.6:_ZNK8QSpinBox5valueEv
libQt6Widgets.so.6:_ZNK8QSpinBox8validateER7QStringRi
libQt6Widgets.so.6:_ZNK8QToolBar16toggleViewActionEv
libQt6Widgets.so.6:_ZNK8QToolBox10metaObjectEv
libQt6Widgets.so.6:_ZNK8QToolBox12currentIndexEv
libQt6Widgets.so.6:_ZNK8QToolBox13currentWidgetEv
libQt6Widgets.so.6:_ZNK8QToolBox5countEv
libQt6Widgets.so.6:_ZNK8QToolBox6widgetEi
libQt6Widgets.so.6:_ZNK9QComboBox11currentDataEi
libQt6Widgets.so.6:_ZNK9QComboBox11currentTextEv
libQt6Widgets.so.6:_ZNK9QComboBox12currentIndexEv
libQt6Widgets.so.6:_ZNK9QComboBox5countEv
libQt6Widgets.so.6:_ZNK9QComboBox8findDataERK8QVarianti6QFlagsIN2Qt9MatchFlagEE
libQt6Widgets.so.6:_ZNK9QComboBox8itemDataEii
libQt6Widgets.so.6:_ZNK9QGroupBox15initStyleOptionEP20QStyleOptionGroupBox
libQt6Widgets.so.6:_ZNK9QGroupBox15minimumSizeHintEv
libQt6Widgets.so.6:_ZNK9QGroupBox5titleEv
libQt6Widgets.so.6:_ZNK9QGroupBox9isCheckedEv
libQt6Widgets.so.6:_ZNK9QLineEdit10isReadOnlyEv
libQt6Widgets.so.6:_ZNK9QLineEdit15initStyleOptionEP17QStyleOptionFrame
libQt6Widgets.so.6:_ZNK9QLineEdit15minimumSizeHintEv
libQt6Widgets.so.6:_ZNK9QLineEdit16inputMethodQueryEN2Qt16InputMethodQueryE
libQt6Widgets.so.6:_ZNK9QLineEdit4textEv
libQt6Widgets.so.6:_ZNK9QLineEdit8sizeHintEv
libQt6Widgets.so.6:_ZNK9QListView10visualRectERK11QModelIndex
libQt6Widgets.so.6:_ZNK9QListView13isIndexHiddenERK11QModelIndex
libQt6Widgets.so.6:_ZNK9QListView14verticalOffsetEv
libQt6Widgets.so.6:_ZNK9QListView15selectedIndexesEv
libQt6Widgets.so.6:_ZNK9QListView16horizontalOffsetEv
libQt6Widgets.so.6:_ZNK9QListView16viewportSizeHintEv
libQt6Widgets.so.6:_ZNK9QListView18initViewItemOptionEP20QStyleOptionViewItem
libQt6Widgets.so.6:_ZNK9QListView24visualRegionForSelectionERK14QItemSelection
libQt6Widgets.so.6:_ZNK9QListView7indexAtERK6QPoint
libQt6Widgets.so.6:_ZNK9QSplitter9saveStateEv
libQt6Widgets.so.6:_ZNK9QTextEdit10cursorRectEv
libQt6Widgets.so.6:_ZNK9QTextEdit10textCursorEv
libQt6Widgets.so.6:_ZNK9QTextEdit11toPlainTextEv
libQt6Widgets.so.6:_ZNK9QTextEdit16inputMethodQueryEN2Qt16InputMethodQueryE
libQt6Widgets.so.6:_ZNK9QTextEdit21canInsertFromMimeDataEPK9QMimeData
libQt6Widgets.so.6:_ZNK9QTextEdit27createMimeDataFromSelectionEv
libQt6Widgets.so.6:_ZNK9QTextEdit6toHtmlEv
libQt6Widgets.so.6:_ZNK9QTextEdit8documentEv
libQt6Widgets.so.6:_ZNK9QTextEdit9alignmentEv
libQt6Widgets.so.6:_ZNK9QTextEdit9textColorEv
libQt6Widgets.so.6:_ZNK9QTreeView10visualRectERK11QModelIndex
libQt6Widgets.so.6:_ZNK9QTreeView11columnWidthEi
libQt6Widgets.so.6:_ZNK9QTreeView11indentationEv
libQt6Widgets.so.6:_ZNK9QTreeView12drawBranchesEP8QPainterRK5QRectRK11QModelIndex
libQt6Widgets.so.6:_ZNK9QTreeView13isIndexHiddenERK11QModelIndex
libQt6Widgets.so.6:_ZNK9QTreeView14isColumnHiddenEi
libQt6Widgets.so.6:_ZNK9QTreeView14verticalOffsetEv
libQt6Widgets.so.6:_ZNK9QTreeView15selectedIndexesEv
libQt6Widgets.so.6:_ZNK9QTreeView16horizontalOffsetEv
libQt6Widgets.so.6:_ZNK9QTreeView16viewportSizeHintEv
libQt6Widgets.so.6:_ZNK9QTreeView17sizeHintForColumnEi
libQt6Widgets.so.6:_ZNK9QTreeView24visualRegionForSelectionERK14QItemSelection
libQt6Widgets.so.6:_ZNK9QTreeView6headerEv
libQt6Widgets.so.6:_ZNK9QTreeView7drawRowEP8QPainterRK20QStyleOptionViewItemRK11QModelIndex
libQt6Widgets.so.6:_ZNK9QTreeView7indexAtERK6QPoint
libQt6Widgets.so.6:_ZTI10QBoxLayout
libQt6Widgets.so.6:_ZTI10QTabWidget
libQt6Widgets.so.6:_ZTI11QDockWidget
libQt6Widgets.so.6:_ZTI11QListWidget
libQt6Widgets.so.6:_ZTI11QMainWindow
libQt6Widgets.so.6:_ZTI11QTreeWidget
libQt6Widgets.so.6:_ZTI11QWizardPage
libQt6Widgets.so.6:_ZTI12QRadioButton
libQt6Widgets.so.6:_ZTI12QTextBrowser
libQt6Widgets.so.6:_ZTI13QPinchGesture
libQt6Widgets.so.6:_ZTI14QDoubleSpinBox
libQt6Widgets.so.6:_ZTI14QStackedWidget
libQt6Widgets.so.6:_ZTI15QListWidgetItem
libQt6Widgets.so.6:_ZTI15QTreeWidgetItem
libQt6Widgets.so.6:_ZTI6QLabel
libQt6Widgets.so.6:_ZTI7QDialog
libQt6Widgets.so.6:_ZTI7QLayout
libQt6Widgets.so.6:_ZTI7QWidget
libQt6Widgets.so.6:_ZTI7QWizard
libQt6Widgets.so.6:_ZTI8QGesture
libQt6Widgets.so.6:_ZTI8QSpinBox
libQt6Widgets.so.6:_ZTI8QToolBox
libQt6Widgets.so.6:_ZTI9QCheckBox
libQt6Widgets.so.6:_ZTI9QComboBox
libQt6Widgets.so.6:_ZTI9QGroupBox
libQt6Widgets.so.6:_ZTI9QLineEdit
libQt6Widgets.so.6:_ZTI9QTextEdit
libQt6Widgets.so.6:_ZTV11QSpacerItem
libQt6Widgets.so.6:_ZThn16_N7QLayout10invalidateEv
libQt6Widgets.so.6:_ZThn16_N7QLayout6layoutEv
libQt6Widgets.so.6:_ZThn16_NK7QLayout11maximumSizeEv
libQt6Widgets.so.6:_ZThn16_NK7QLayout11minimumSizeEv
libQt6Widgets.so.6:_ZThn16_NK7QLayout12controlTypesEv
libQt6Widgets.so.6:_ZThn16_NK7QLayout19expandingDirectionsEv
libQt6Widgets.so.6:_ZThn16_NK7QLayout7isEmptyEv
libQt6Widgets.so.6:_ZThn16_NK7QLayout8geometryEv
libQt6Widgets.so.6:_ZThn16_NK7QWidget10redirectedEP6QPoint
libQt6Widgets.so.6:_ZThn16_NK7QWidget11initPainterEP8QPainter
libQt6Widgets.so.6:_ZThn16_NK7QWidget11paintEngineEv
libQt6Widgets.so.6:_ZThn16_NK7QWidget13sharedPainterEv
libQt6Widgets.so.6:_ZThn16_NK7QWidget6metricEN12QPaintDevice17PaintDeviceMetricE
libQt6Widgets.so.6:_ZThn16_NK7QWidget7devTypeEv
libQt6Widgets.so.6:_ZlsR11QDataStreamRK15QTreeWidgetItem
libQt6Widgets.so.6:_ZrsR11QDataStreamR15QTreeWidgetItem
libQt6Xml.so.6:_ZN11QDomElement12setAttributeERK7QStringS2_
libQt6Xml.so.6:_ZN11QDomElement12setAttributeERK7QStringd
libQt6Xml.so.6:_ZN11QDomElement12setAttributeERK7QStringx
libQt6Xml.so.6:_ZN11QDomElement12setAttributeERK7QStringy
libQt6Xml.so.6:_ZN12QDomDocument10setContentE14QAnyStringView6QFlagsINS_11ParseOptionEE
libQt6Xml.so.6:_ZN12QDomDocument10setContentEP9QIODevice6QFlagsINS_11ParseOptionEE
libQt6Xml.so.6:_ZN12QDomDocument13createElementERK7QString
libQt6Xml.so.6:_ZN12QDomDocument14createTextNodeERK7QString
libQt6Xml.so.6:_ZN12QDomDocument14setContentImplERK10QByteArray6QFlagsINS_11ParseOptionEE
libQt6Xml.so.6:_ZN12QDomDocument18createCDATASectionERK7QString
libQt6Xml.so.6:_ZN12QDomDocumentC1Ev
libQt6Xml.so.6:_ZN12QDomDocumentD1Ev
libQt6Xml.so.6:_ZN12QDomDocumentaSERKS_
libQt6Xml.so.6:_ZN12QDomNodeListD1Ev
libQt6Xml.so.6:_ZN16QDomNamedNodeMapD1Ev
libQt6Xml.so.6:_ZN8QDomNode11appendChildERKS_
libQt6Xml.so.6:_ZN8QDomNodeC1ERKS_
libQt6Xml.so.6:_ZN8QDomNodeD1Ev
libQt6Xml.so.6:_ZN8QDomNodeD2Ev
libQt6Xml.so.6:_ZN8QDomNodeaSERKS_
libQt6Xml.so.6:_ZN8QDomTextC1ERKS_
libQt6Xml.so.6:_ZN8QDomTextC1Ev
libQt6Xml.so.6:_ZN8QDomTextaSERKS_
libQt6Xml.so.6:_ZNK11QDomElement10attributesEv
libQt6Xml.so.6:_ZNK11QDomElement17elementsByTagNameERK7QString
libQt6Xml.so.6:_ZNK11QDomElement4textEv
libQt6Xml.so.6:_ZNK11QDomElement7tagNameEv
libQt6Xml.so.6:_ZNK11QDomElement9attributeERK7QStringS2_
libQt6Xml.so.6:_ZNK12QDomDocument15documentElementEv
libQt6Xml.so.6:_ZNK12QDomDocument17elementsByTagNameERK7QString
libQt6Xml.so.6:_ZNK12QDomDocument8toStringEi
libQt6Xml.so.6:_ZNK12QDomNodeList4itemEi
libQt6Xml.so.6:_ZNK12QDomNodeList6lengthEv
libQt6Xml.so.6:_ZNK16QDomNamedNodeMap4itemEi
libQt6Xml.so.6:_ZNK16QDomNamedNodeMap6lengthEv
libQt6Xml.so.6:_ZNK16QDomNamedNodeMap8containsERK7QString
libQt6Xml.so.6:_ZNK16QDomNamedNodeMap9namedItemERK7QString
libQt6Xml.so.6:_ZNK17QDomCharacterData4dataEv
libQt6Xml.so.6:_ZNK8QDomAttr4nameEv
libQt6Xml.so.6:_ZNK8QDomAttr5valueEv
libQt6Xml.so.6:_ZNK8QDomNode10attributesEv
libQt6Xml.so.6:_ZNK8QDomNode10childNodesEv
libQt6Xml.so.6:_ZNK8QDomNode10firstChildEv
libQt6Xml.so.6:_ZNK8QDomNode10parentNodeEv
libQt6Xml.so.6:_ZNK8QDomNode11nextSiblingEv
libQt6Xml.so.6:_ZNK8QDomNode13ownerDocumentEv
libQt6Xml.so.6:_ZNK8QDomNode17firstChildElementERK7QStringS2_
libQt6Xml.so.6:_ZNK8QDomNode6isNullEv
libQt6Xml.so.6:_ZNK8QDomNode6isTextEv
libQt6Xml.so.6:_ZNK8QDomNode6toAttrEv
libQt6Xml.so.6:_ZNK8QDomNode8nodeNameEv
libQt6Xml.so.6:_ZNK8QDomNode9isCommentEv
libQt6Xml.so.6:_ZNK8QDomNode9isElementEv
libQt6Xml.so.6:_ZNK8QDomNode9lastChildEv
libQt6Xml.so.6:_ZNK8QDomNode9namedItemERK7QString
libQt6Xml.so.6:_ZNK8QDomNode9nodeValueEv
libQt6Xml.so.6:_ZNK8QDomNode9toCommentEv
libQt6Xml.so.6:_ZNK8QDomNode9toElementEv
libQt6Xml.so.6:_ZNK8QDomNodeneERKS_
libalglib-3.18.0.so:_ZN6alglib11spline1dfitERKNS_13real_1d_arrayES2_ldRNS_19spline1dinterpolantERNS_17spline1dfitreportENS_7xparamsE
libalglib-3.18.0.so:_ZN6alglib12spline1dcalcERKNS_19spline1dinterpolantEdNS_7xparamsE
libalglib-3.18.0.so:_ZN6alglib13real_1d_arrayC1Ev
libalglib-3.18.0.so:_ZN6alglib13real_1d_arrayD1Ev
libalglib-3.18.0.so:_ZN6alglib13real_1d_arrayixEl
libalglib-3.18.0.so:_ZN6alglib17ae_vector_wrapper9setlengthEl
libalglib-3.18.0.so:_ZN6alglib17spline1dfitreportC1Ev
libalglib-3.18.0.so:_ZN6alglib17spline1dfitreportD1Ev
libalglib-3.18.0.so:_ZN6alglib19spline1dinterpolantC1Ev
libalglib-3.18.0.so:_ZN6alglib19spline1dinterpolantD1Ev
libalglib-3.18.0.so:_ZN6alglib8xdefaultE
libc.so.6:__cxa_atexit
libc.so.6:__fprintf_chk
libc.so.6:__isoc23_strtol
libc.so.6:__libc_start_main
libc.so.6:__printf_chk
libc.so.6:__sprintf_chk
libc.so.6:__stack_chk_fail
libc.so.6:abort
libc.so.6:arc4random
libc.so.6:calloc
libc.so.6:exit
libc.so.6:fclose
libc.so.6:fflush
libc.so.6:fopen
libc.so.6:fputc
libc.so.6:fputs
libc.so.6:free
libc.so.6:fseeko
libc.so.6:ftello
libc.so.6:fwrite
libc.so.6:getenv
libc.so.6:malloc
libc.so.6:memchr
libc.so.6:memcmp
libc.so.6:memcpy
libc.so.6:memmove
libc.so.6:memset
libc.so.6:putchar
libc.so.6:puts
libc.so.6:stderr
libc.so.6:stdout
libc.so.6:strcmp
libc.so.6:strlen
libc.so.6:strncmp
libc.so.6:strncpy
libc.so.6:towupper
libc.so.6:wmemcpy
libgcc_s.so.1:_Unwind_Resume
libgdal.so.37:GDALAllRegister
libgdal.so.37:GDALClose
libgdal.so.37:GDALComputeMedianCutPCT
libgdal.so.37:GDALCreateColorTable
libgdal.so.37:GDALDestroyDriverManager
libgdal.so.37:GDALDitherRGB2PCT
libgdal.so.37:GDALOpen
libgdal.so.37:GDALOpenShared
libgdal.so.37:GDALTermProgress
libgdal.so.37:GDALVersionInfo
libgdal.so.37:GetGDALDriverManager
libgdal.so.37:_ZN10GDALDriver6CreateEPKciii12GDALDataTypePKS1_
libgdal.so.37:_ZN11GDALDataset13GetRasterBandEi
libgdal.so.37:_ZN11GDALDataset13SetProjectionEPKc
libgdal.so.37:_ZN11GDALDataset8RasterIOE10GDALRWFlagiiiiPvii12GDALDataTypeiPKixxxP20GDALRasterIOExtraArg
libgdal.so.37:_ZN14GDALColorTableD1Ev
libgdal.so.37:_ZN14GDALRasterBand8RasterIOE10GDALRWFlagiiiiPvii12GDALDataTypexxP20GDALRasterIOExtraArg
libgdal.so.37:_ZN17GDALDriverManager15GetDriverByNameEPKc
libgdal.so.37:_ZN19OGRSpatialReference13importFromURNEPKc
libgdal.so.37:_ZN19OGRSpatialReference14importFromEPSGEi
libgdal.so.37:_ZN19OGRSpatialReferenceC1EPKc
libgdal.so.37:_ZN19OGRSpatialReferenceD1Ev
libgdal.so.37:_ZNK11GDALDataset14GetRasterCountEv
libgdal.so.37:_ZNK11GDALDataset14GetRasterXSizeEv
libgdal.so.37:_ZNK11GDALDataset14GetRasterYSizeEv
libgdal.so.37:_ZNK11GDALDataset16GetProjectionRefEv
libgdal.so.37:_ZNK14GDALColorTable13GetColorEntryEi
libgdal.so.37:_ZNK14GDALColorTable18GetColorEntryCountEv
libgdal.so.37:_ZNK14GDALColorTable5CloneEv
libgdal.so.37:_ZNK14GDALRasterBand8GetXSizeEv
libgdal.so.37:_ZNK14GDALRasterBand8GetYSizeEv
libgdal.so.37:_ZNK19OGRSpatialReference11exportToWktEPPc
libjpeg.so.8:jpeg_CreateCompress
libjpeg.so.8:jpeg_destroy_compress
libjpeg.so.8:jpeg_finish_compress
libjpeg.so.8:jpeg_set_defaults
libjpeg.so.8:jpeg_set_quality
libjpeg.so.8:jpeg_start_compress
libjpeg.so.8:jpeg_std_error
libjpeg.so.8:jpeg_write_scanlines
libm.so.6:asin
libm.so.6:atan
libm.so.6:atan2
libm.so.6:cos
libm.so.6:exp
libm.so.6:floor
libm.so.6:log
libm.so.6:log10
libm.so.6:pow
libm.so.6:sin
libm.so.6:sincos
libm.so.6:sqrt
libm.so.6:tan
libproj.so.25:proj_context_create
libproj.so.25:proj_context_destroy
libproj.so.25:proj_context_errno
libproj.so.25:proj_coord
libproj.so.25:proj_create
libproj.so.25:proj_create_crs_to_crs
libproj.so.25:proj_degree_input
libproj.so.25:proj_degree_output
libproj.so.25:proj_destroy
libproj.so.25:proj_errno_string
libproj.so.25:proj_get_type
libproj.so.25:proj_info
libproj.so.25:proj_normalize_for_visualization
libproj.so.25:proj_trans
libquazip1-qt6.so.1.4.0:_ZN10JlCompress10extractDirE7QStringS0_
libquazip1-qt6.so.1.4.0:_ZN10JlCompress11extractFileE7QStringS0_S0_
libquazip1-qt6.so.1.4.0:_ZN10JlCompress11getFileListE7QString
libroutino.so.0:Routino_APIVersion
libroutino.so.0:Routino_CalculateRoute
libroutino.so.0:Routino_Check_API_Version
libroutino.so.0:Routino_DeleteRoute
libroutino.so.0:Routino_FindWaypoint
libroutino.so.0:Routino_FreeXMLProfiles
libroutino.so.0:Routino_FreeXMLTranslations
libroutino.so.0:Routino_GetProfile
libroutino.so.0:Routino_GetTranslation
libroutino.so.0:Routino_LoadDatabase
libroutino.so.0:Routino_ParseXMLProfiles
libroutino.so.0:Routino_ParseXMLTranslations
libroutino.so.0:Routino_UnloadDatabase
libroutino.so.0:Routino_ValidateProfile
libroutino.so.0:Routino_Version
libroutino.so.0:Routino_errno
libstdc++.so.6:_ZNKSt12__basic_fileIcE7is_openEv
libstdc++.so.6:_ZNKSt13runtime_error4whatEv
libstdc++.so.6:_ZNKSt5ctypeIcE13_M_widen_initEv
libstdc++.so.6:_ZNKSt7__cxx1112basic_stringIcSt11char_traitsIcESaIcEE4findEcm
libstdc++.so.6:_ZNKSt7__cxx1112basic_stringIcSt11char_traitsIcESaIcEE6substrEmm
libstdc++.so.6:_ZNKSt7__cxx1115basic_stringbufIcSt11char_traitsIcESaIcEE3strEv
libstdc++.so.6:_ZNKSt8__detail20_Prime_rehash_policy14_M_need_rehashEmmm
libstdc++.so.6:_ZNSdD2Ev
libstdc++.so.6:_ZNSi4readEPcl
libstdc++.so.6:_ZNSi5seekgElSt12_Ios_Seekdir
libstdc++.so.6:_ZNSi5tellgEv
libstdc++.so.6:_ZNSo3putEc
libstdc++.so.6:_ZNSo5flushEv
libstdc++.so.6:_ZNSo5writeEPKcl
libstdc++.so.6:_ZNSo9_M_insertIdEERSoT_
libstdc++.so.6:_ZNSo9_M_insertImEERSoT_
libstdc++.so.6:_ZNSolsEi
libstdc++.so.6:_ZNSt11logic_errorC2ERKS_
libstdc++.so.6:_ZNSt12__basic_fileIcED1Ev
libstdc++.so.6:_ZNSt12out_of_rangeD1Ev
libstdc++.so.6:_ZNSt13basic_filebufIcSt11char_traitsIcEE4openEPKcSt13_Ios_Openmode
libstdc++.so.6:_ZNSt13basic_filebufIcSt11char_traitsIcEE5closeEv
libstdc++.so.6:_ZNSt13basic_filebufIcSt11char_traitsIcEEC1Ev
libstdc++.so.6:_ZNSt13basic_filebufIcSt11char_traitsIcEED1Ev
libstdc++.so.6:_ZNSt13basic_fstreamIcSt11char_traitsIcEED1Ev
libstdc++.so.6:_ZNSt13runtime_errorC1ERKNSt7__cxx1112basic_stringIcSt11char_traitsIcESaIcEEE
libstdc++.so.6:_ZNSt13runtime_errorC2ERKNSt7__cxx1112basic_stringIcSt11char_traitsIcESaIcEEE
libstdc++.so.6:_ZNSt13runtime_errorC2ERKS_
libstdc++.so.6:_ZNSt13runtime_errorD1Ev
libstdc++.so.6:_ZNSt13runtime_errorD2Ev
libstdc++.so.6:_ZNSt6localeC1Ev
libstdc++.so.6:_ZNSt6localeD1Ev
libstdc++.so.6:_ZNSt7__cxx1112basic_stringIcSt11char_traitsIcESaIcEE10_M_replaceEmmPKcm
libstdc++.so.6:_ZNSt7__cxx1112basic_stringIcSt11char_traitsIcESaIcEE9_M_assignERKS4_
libstdc++.so.6:_ZNSt7__cxx1112basic_stringIcSt11char_traitsIcESaIcEE9_M_createERmm
libstdc++.so.6:_ZNSt7__cxx1112basic_stringIwSt11char_traitsIwESaIwEE10_M_disposeEv
libstdc++.so.6:_ZNSt7__cxx1112basic_stringIwSt11char_traitsIwESaIwEE9_M_assignERKS4_
libstdc++.so.6:_ZNSt7__cxx1112basic_stringIwSt11char_traitsIwESaIwEE9_M_mutateEmmPKwm
libstdc++.so.6:_ZNSt7__cxx1119basic_ostringstreamIcSt11char_traitsIcESaIcEEC1Ev
libstdc++.so.6:_ZNSt7__cxx1119basic_ostringstreamIcSt11char_traitsIcESaIcEED1Ev
libstdc++.so.6:_ZNSt8__detail15_List_node_base11_M_transferEPS0_S1_
libstdc++.so.6:_ZNSt8__detail15_List_node_base4swapERS0_S1_
libstdc++.so.6:_ZNSt8__detail15_List_node_base7_M_hookEPS0_
libstdc++.so.6:_ZNSt8__detail15_List_node_base9_M_unhookEv
libstdc++.so.6:_ZNSt8ios_baseC2Ev
libstdc++.so.6:_ZNSt8ios_baseD2Ev
libstdc++.so.6:_ZNSt9basic_iosIcSt11char_traitsIcEE4initEPSt15basic_streambufIcS1_E
libstdc++.so.6:_ZNSt9basic_iosIcSt11char_traitsIcEE5clearESt12_Ios_Iostate
libstdc++.so.6:_ZSt16__ostream_insertIcSt11char_traitsIcEERSt13basic_ostreamIT_T0_ES6_PKS3_l
libstdc++.so.6:_ZSt16__throw_bad_castv
libstdc++.so.6:_ZSt17__throw_bad_allocv
libstdc++.so.6:_ZSt18_Rb_tree_decrementPSt18_Rb_tree_node_base
libstdc++.so.6:_ZSt18_Rb_tree_incrementPSt18_Rb_tree_node_base
libstdc++.so.6:_ZSt19__throw_logic_errorPKc
libstdc++.so.6:_ZSt20__throw_length_errorPKc
libstdc++.so.6:_ZSt20__throw_out_of_rangePKc
libstdc++.so.6:_ZSt21ios_base_library_initv
libstdc++.so.6:_ZSt24__throw_out_of_range_fmtPKcz
libstdc++.so.6:_ZSt25__throw_bad_function_callv
libstdc++.so.6:_ZSt28_Rb_tree_rebalance_for_erasePSt18_Rb_tree_node_baseRS_
libstdc++.so.6:_ZSt28__throw_bad_array_new_lengthv
libstdc++.so.6:_ZSt29_Rb_tree_insert_and_rebalancebPSt18_Rb_tree_node_baseS0_RS_
libstdc++.so.6:_ZSt4cerr
libstdc++.so.6:_ZSt4cout
libstdc++.so.6:_ZStlsISt11char_traitsIcEERSt13basic_ostreamIcT_ES5_PKc
libstdc++.so.6:_ZTISt12out_of_range
libstdc++.so.6:_ZTISt13runtime_error
libstdc++.so.6:_ZTISt9bad_alloc
libstdc++.so.6:_ZTISt9exception
libstdc++.so.6:_ZTIi
libstdc++.so.6:_ZTTNSt7__cxx1119basic_ostringstreamIcSt11char_traitsIcESaIcEEE
libstdc++.so.6:_ZTTSt13basic_fstreamIcSt11char_traitsIcEE
libstdc++.so.6:_ZTVN10__cxxabiv116__enum_type_infoE
libstdc++.so.6:_ZTVN10__cxxabiv117__class_type_infoE
libstdc++.so.6:_ZTVN10__cxxabiv120__si_class_type_infoE
libstdc++.so.6:_ZTVN10__cxxabiv121__vmi_class_type_infoE
libstdc++.so.6:_ZTVNSt7__cxx1115basic_stringbufIcSt11char_traitsIcESaIcEEE
libstdc++.so.6:_ZTVNSt7__cxx1119basic_ostringstreamIcSt11char_traitsIcESaIcEEE
libstdc++.so.6:_ZTVSt12out_of_range
libstdc++.so.6:_ZTVSt13basic_filebufIcSt11char_traitsIcEE
libstdc++.so.6:_ZTVSt13basic_fstreamIcSt11char_traitsIcEE
libstdc++.so.6:_ZTVSt15basic_streambufIcSt11char_traitsIcEE
libstdc++.so.6:_ZTVSt9basic_iosIcSt11char_traitsIcEE
libstdc++.so.6:_ZdaPv
libstdc++.so.6:_ZdaPvm
libstdc++.so.6:_ZdlPv
libstdc++.so.6:_ZdlPvm
libstdc++.so.6:_Znam
libstdc++.so.6:_Znwm
libstdc++.so.6:_ZnwmRKSt9nothrow_t
libstdc++.so.6:__cxa_allocate_exception
libstdc++.so.6:__cxa_bad_cast
libstdc++.so.6:__cxa_begin_catch
libstdc++.so.6:__cxa_call_terminate
libstdc++.so.6:__cxa_end_catch
libstdc++.so.6:__cxa_free_exception
libstdc++.so.6:__cxa_get_exception_ptr
libstdc++.so.6:__cxa_guard_abort
libstdc++.so.6:__cxa_guard_acquire
libstdc++.so.6:__cxa_guard_release
libstdc++.so.6:__cxa_rethrow
libstdc++.so.6:__cxa_throw
libstdc++.so.6:__dynamic_cast
libstdc++.so.6:__gxx_personality_v0
