qmapshack:NOPOINT
qmapshack:NOPOINTF
qmapshack:_IO_stdin_used
qmapshack:_Z10addHtmlRowR7QStringRKS_S2_
qmapshack:_Z10addHtmlRowR7QStringRKS_S2_S2_S2_
qmapshack:_Z10initCourseR4QMapItP11CFitProfileE
qmapshack:_Z10initFileIdR4QMapItP11CFitProfileE
qmapshack:_Z10initHrZoneR4QMapItP11CFitProfileE
qmapshack:_Z10initLengthR4QMapItP11CFitProfileE
qmapshack:_Z10initRecordR4QMapItP11CFitProfileE
qmapshack:_Z10initTotalsR4QMapItP11CFitProfileE
qmapshack:_Z10sortByTimeP7CDBItemS0_
qmapshack:_Z11initMetZoneR4QMapItP11CFitProfileE
qmapshack:_Z11initSessionR4QMapItP11CFitProfileE
qmapshack:_Z11initWorkoutR4QMapItP11CFitProfileE
qmapshack:_Z12ProgressFuncd
qmapshack:_Z12initActivityR4QMapItP11CFitProfileE
qmapshack:_Z12initMemoGlobR4QMapItP11CFitProfileE
qmapshack:_Z12initProfilesR4QMapItP11CFitProfileE
qmapshack:_Z12initScheduleR4QMapItP11CFitProfileE
qmapshack:_Z12initSoftwareR4QMapItP11CFitProfileE
qmapshack:_Z13initObdiiDataR4QMapItP11CFitProfileE
qmapshack:_Z13initPowerZoneR4QMapItP11CFitProfileE
qmapshack:_Z13initSegmentIdR4QMapItP11CFitProfileE
qmapshack:_Z13initSpeedZoneR4QMapItP11CFitProfileE
qmapshack:_Z13initVideoClipR4QMapItP11CFitProfileE
qmapshack:_Z13printMessagesRK5QListI11CFitMessageE
qmapshack:_Z14initDeviceInfoR4QMapItP11CFitProfileE
qmapshack:_Z14initHrmProfileR4QMapItP11CFitProfileE
qmapshack:_Z14initMonitoringR4QMapItP11CFitProfileE
qmapshack:_Z14initSdmProfileR4QMapItP11CFitProfileE
qmapshack:_Z14initSegmentLapR4QMapItP11CFitProfileE
qmapshack:_Z14initVideoFrameR4QMapItP11CFitProfileE
qmapshack:_Z14initVideoTitleR4QMapItP11CFitProfileE
qmapshack:_Z15initBikeProfileR4QMapItP11CFitProfileE
qmapshack:_Z15initCadenceZoneR4QMapItP11CFitProfileE
qmapshack:_Z15initCameraEventR4QMapItP11CFitProfileE
qmapshack:_Z15initCoursePointR4QMapItP11CFitProfileE
qmapshack:_Z15initExtProfilesR4QMapItP11CFitProfileE
qmapshack:_Z15initFileCreatorR4QMapItP11CFitProfileE
qmapshack:_Z15initGpsMetadataR4QMapItP11CFitProfileE
qmapshack:_Z15initOhrSettingsR4QMapItP11CFitProfileE
qmapshack:_Z15initSegmentFileR4QMapItP11CFitProfileE
qmapshack:_Z15initSlaveDeviceR4QMapItP11CFitProfileE
qmapshack:_Z15initUserProfileR4QMapItP11CFitProfileE
qmapshack:_Z15initWeightScaleR4QMapItP11CFitProfileE
qmapshack:_Z15initWorkoutStepR4QMapItP11CFitProfileE
qmapshack:_Z15initZonesTargetR4QMapItP11CFitProfileE
qmapshack:_Z16initAntChannelIdR4QMapItP11CFitProfileE
qmapshack:_Z16initCapabilitiesR4QMapItP11CFitProfileE
qmapshack:_Z16initConnectivityR4QMapItP11CFitProfileE
qmapshack:_Z16initNmeaSentenceR4QMapItP11CFitProfileE
qmapshack:_Z16initSegmentPointR4QMapItP11CFitProfileE
qmapshack:_Z16initTrainingFileR4QMapItP11CFitProfileE
qmapshack:_Z16initWeatherAlertR4QMapItP11CFitProfileE
qmapshack:_Z16printDefinitionsRK5QListI21CFitDefinitionMessageE
qmapshack:_Z17GPS_Math_Distancedddd
qmapshack:_Z17GPS_Math_DistanceddddRdS_
qmapshack:_Z17initBloodPressureR4QMapItP11CFitProfileE
qmapshack:_Z17initGyroscopeDataR4QMapItP11CFitProfileE
qmapshack:_Z18initDeviceSettingsR4QMapItP11CFitProfileE
qmapshack:_Z18initMonitoringInfoR4QMapItP11CFitProfileE
qmapshack:_Z19initDeveloperDataIdR4QMapItP11CFitProfileE
qmapshack:_Z20GPS_Math_SubPolylineRK7QPointFS1_iRK9QPolygonFR9segment_t
qmapshack:_Z20initAviationAttitudeR4QMapItP11CFitProfileE
qmapshack:_Z20initFieldDescriptionR4QMapItP11CFitProfileE
qmapshack:_Z20initFileCapabilitiesR4QMapItP11CFitProfileE
qmapshack:_Z20initMagnetometerDataR4QMapItP11CFitProfileE
qmapshack:_Z20initMesgCapabilitiesR4QMapItP11CFitProfileE
qmapshack:_Z20initVideoDescriptionR4QMapItP11CFitProfileE
qmapshack:_Z21initAccelerometerDataR4QMapItP11CFitProfileE
qmapshack:_Z21initFieldCapabilitiesR4QMapItP11CFitProfileE
qmapshack:_Z21initWatchfaceSettingsR4QMapItP11CFitProfileE
qmapshack:_Z21initWeatherConditionsR4QMapItP11CFitProfileE
qmapshack:_Z22GPS_Math_DegMin_To_DegbidRd
qmapshack:_Z22GPS_Math_Deg_To_DegMindPiPd
qmapshack:_Z22GPS_Math_DistanceQuickdddd
qmapshack:_Z23GPS_Math_DouglasPeuckerR7QVectorI7pointDPEd
qmapshack:_Z23GPS_Math_Wpt_ProjectionRK7QPointFdd
qmapshack:_Z24GPS_Math_LineCrossesRectRK7QPointFS1_RK6QRectF
qmapshack:_Z24initTimestampCorrelationR4QMapItP11CFitProfileE
qmapshack:_Z24qInitResources_resourcesv
qmapshack:_Z25GPS_Math_DegMinSec_To_DegbiidRd
qmapshack:_Z26GPS_Math_DistPointPolylineRK9QPolygonFRK7QPointF
qmapshack:_Z26GPS_Math_DistPointPolylineRK9QPolygonFRK7QPointFd
qmapshack:_Z26initExdScreenConfigurationR4QMapItP11CFitProfileE
qmapshack:_Z27initSegmentLeaderboardEntryR4QMapItP11CFitProfileE
qmapshack:_Z27initThreeDSensorCalibrationR4QMapItP11CFitProfileE
qmapshack:_Z27qCleanupResources_resourcesv
qmapshack:_Z29initExdDataFieldConfigurationR4QMapItP11CFitProfileE
qmapshack:_Z31initExdDataConceptConfigurationR4QMapItP11CFitProfileE
qmapshack:_Z6initHrR4QMapItP11CFitProfileE
qmapshack:_Z7initHrvR4QMapItP11CFitProfileE
qmapshack:_Z7initLapR4QMapItP11CFitProfileE
qmapshack:_Z8initGoalR4QMapItP11CFitProfileE
qmapshack:_Z9initAntRxR4QMapItP11CFitProfileE
qmapshack:_Z9initAntTxR4QMapItP11CFitProfileE
qmapshack:_Z9initEventR4QMapItP11CFitProfileE
qmapshack:_Z9initSportR4QMapItP11CFitProfileE
qmapshack:_Z9initVideoR4QMapItP11CFitProfileE
qmapshack:_Z9printByteR5QFile14decode_state_eh
qmapshack:_ZN10CDBProject10insertItemEP8IGisItemR9QSqlQuery
qmapshack:_ZN10CDBProject10postStatusEb
qmapshack:_ZN10CDBProject10updateItemERP8IGisItemyRNS_8action_eER9QSqlQuery
qmapshack:_ZN10CDBProject13restoreDBLinkEv
qmapshack:_ZN10CDBProject15checkForAction1EP8IGisItemRyRN17CSelectSaveAction8result_eER9QSqlQuery
qmapshack:_ZN10CDBProject15checkForAction2EP8IGisItemRyR7QStringRNS_8action_eER9QSqlQuery
qmapshack:_ZN10CDBProject4saveEN17CSelectSaveAction8result_eENS_8action_eE
qmapshack:_ZN10CDBProject4saveEv
qmapshack:_ZN10CDBProject6updateEv
qmapshack:_ZN10CDBProject9hideItemsEP16CEvtD2WHideItems
qmapshack:_ZN10CDBProject9setupNameERK7QString
qmapshack:_ZN10CDBProject9showItemsEP16CEvtD2WShowItemsNS_8action_eE
qmapshack:_ZN10CDBProjectC1EP11CGisListWks
qmapshack:_ZN10CDBProjectC1ER11CQlgtFolder
qmapshack:_ZN10CDBProjectC1ERK7QStringP9IDBFolderP11CGisListWks
qmapshack:_ZN10CDBProjectC1ERK7QStringyP11CGisListWks
qmapshack:_ZN10CDBProjectC2EP11CGisListWks
qmapshack:_ZN10CDBProjectC2ER11CQlgtFolder
qmapshack:_ZN10CDBProjectC2ERK7QStringP9IDBFolderP11CGisListWks
qmapshack:_ZN10CDBProjectC2ERK7QStringyP11CGisListWks
qmapshack:_ZN10CDBProjectD0Ev
qmapshack:_ZN10CDBProjectD1Ev
qmapshack:_ZN10CDBProjectD2Ev
qmapshack:_ZN10CDBProjectlsER11QDataStream
qmapshack:_ZN10CDiskCache11qt_metacallEN11QMetaObject4CallEiPPv
qmapshack:_ZN10CDiskCache11qt_metacastEPKc
qmapshack:_ZN10CDiskCache11slotCleanupEv
qmapshack:_ZN10CDiskCache15removeCacheFileERK9QFileInfo
qmapshack:_ZN10CDiskCache16staticMetaObjectE
qmapshack:_ZN10CDiskCache18cleanupRemovedMapsERK4QSetI7QStringE
qmapshack:_ZN10CDiskCache5storeERK7QStringR6QImage
qmapshack:_ZN10CDiskCache7restoreERK7QStringR6QImage
qmapshack:_ZN10CDiskCacheC1ERK7QStringiiP7QObject
qmapshack:_ZN10CDiskCacheC2ERK7QStringiiP7QObject
qmapshack:_ZN10CFitStream10decodeFileEv
qmapshack:_ZN10CFitStream10nextMesgOfEt
qmapshack:_ZN10CFitStream11countMesgOfEt
qmapshack:_ZN10CFitStream11firstMesgOfEt
qmapshack:_ZN10CFitStream5resetEv
qmapshack:_ZN10CFitStream8nextMesgEv
qmapshack:_ZN10CGarminTyp10parsePointER11QDataStreamR4QMapIjNS_14point_propertyEE
qmapshack:_ZN10CGarminTyp11parseHeaderER11QDataStream
qmapshack:_ZN10CGarminTyp12decodeBitmapER11QDataStreamR6QImageiii
qmapshack:_ZN10CGarminTyp12parsePolygonER11QDataStreamR4QMapIjNS_16polygon_propertyEE
qmapshack:_ZN10CGarminTyp13parsePolylineER11QDataStreamR4QMapIjNS_17polyline_propertyEE
qmapshack:_ZN10CGarminTyp14parseDrawOrderER11QDataStreamR5QListIjE
qmapshack:_ZN10CGarminTyp16decodeColorTableER11QDataStreamR6QImageiib
qmapshack:_ZN10CGarminTyp17decodeBppAndBytesEiiiRiS0_
qmapshack:_ZN10CGarminTyp6decodeERK10QByteArrayR4QMapIjNS_16polygon_propertyEERS3_IjNS_17polyline_propertyEER5QListIjERS3_IjNS_14point_propertyEE
qmapshack:_ZN10CGarminTyp8getCodecEt
qmapshack:_ZN10CGeoSearch10addServiceEN16CGeoSearchConfig9service_eERK7QStringP5QMenu
qmapshack:_ZN10CGeoSearch11parseGoogleERK10QByteArray
qmapshack:_ZN10CGeoSearch11qt_metacallEN11QMetaObject4CallEiPPv
qmapshack:_ZN10CGeoSearch11qt_metacastEPKc
qmapshack:_ZN10CGeoSearch14parseNominatimERK10QByteArray
qmapshack:_ZN10CGeoSearch15createErrorItemERK7QString
qmapshack:_ZN10CGeoSearch15slotAccuResultsEb
qmapshack:_ZN10CGeoSearch15slotStartSearchEv
qmapshack:_ZN10CGeoSearch16slotChangeSymbolEv
qmapshack:_ZN10CGeoSearch16slotResetResultsEv
qmapshack:_ZN10CGeoSearch16staticMetaObjectE
qmapshack:_ZN10CGeoSearch17slotConfigChangedEv
qmapshack:_ZN10CGeoSearch17slotSelectServiceEv
qmapshack:_ZN10CGeoSearch18slotSetupGeoSearchEv
qmapshack:_ZN10CGeoSearch19parseGeonamesSearchERK10QByteArray
qmapshack:_ZN10CGeoSearch19slotRequestFinishedEP13QNetworkReply
qmapshack:_ZN10CGeoSearch19slotServiceSelectedEN16CGeoSearchConfig9service_eEb
qmapshack:_ZN10CGeoSearch20parseGeonamesAddressERK10QByteArray
qmapshack:_ZN10CGeoSearch7setIconEv
qmapshack:_ZN10CGeoSearchC1EP11CGisListWks
qmapshack:_ZN10CGeoSearchC2EP11CGisListWks
qmapshack:_ZN10CGeoSearchD0Ev
qmapshack:_ZN10CGeoSearchD1Ev
qmapshack:_ZN10CGeoSearchD2Ev
qmapshack:_ZN10CGisListDB10sigChangedEv
qmapshack:_ZN10CGisListDB10slotImportEv
qmapshack:_ZN10CGisListDB11getDataBaseERK7QStringS2_
qmapshack:_ZN10CGisListDB11hasDatabaseERK7QString
qmapshack:_ZN10CGisListDB11qt_metacallEN11QMetaObject4CallEiPPv
qmapshack:_ZN10CGisListDB11qt_metacastEPKc
qmapshack:_ZN10CGisListDB11slotDelItemEv
qmapshack:_ZN10CGisListDB13slotAddFolderEv
qmapshack:_ZN10CGisListDB13slotDelFolderEv
qmapshack:_ZN10CGisListDB13slotReadyReadEv
qmapshack:_ZN10CGisListDB14slotCopyFolderEv
qmapshack:_ZN10CGisListDB14slotMoveFolderEv
qmapshack:_ZN10CGisListDB15slotAddDatabaseEv
qmapshack:_ZN10CGisListDB15slotContextMenuERK6QPoint
qmapshack:_ZN10CGisListDB15slotDelDatabaseEv
qmapshack:_ZN10CGisListDB15slotExportToGpxEv
qmapshack:_ZN10CGisListDB15slotItemChangedEP15QTreeWidgetItemi
qmapshack:_ZN10CGisListDB16addGlobalActionsE5QListIP7QActionE
qmapshack:_ZN10CGisListDB16slotDelLostFoundEv
qmapshack:_ZN10CGisListDB16slotItemExpandedEP15QTreeWidgetItem
qmapshack:_ZN10CGisListDB16slotRenameFolderEv
qmapshack:_ZN10CGisListDB16staticMetaObjectE
qmapshack:_ZN10CGisListDB18slotSearchDatabaseEv
qmapshack:_ZN10CGisListDB18slotUpdateDatabaseEv
qmapshack:_ZN10CGisListDB20slotDelLostFoundItemEv
qmapshack:_ZN10CGisListDB25saveDatabaseConfigurationEv
qmapshack:_ZN10CGisListDB5eventEP6QEvent
qmapshack:_ZN10CGisListDBC1EP7QWidget
qmapshack:_ZN10CGisListDBC2EP7QWidget
qmapshack:_ZN10CGisListDBD0Ev
qmapshack:_ZN10CGisListDBD1Ev
qmapshack:_ZN10CGisListDBD2Ev
qmapshack:_ZN10CGridSetup11qt_metacallEN11QMetaObject4CallEiPPv
qmapshack:_ZN10CGridSetup11qt_metacastEPKc
qmapshack:_ZN10CGridSetup14slotProjWizardEv
qmapshack:_ZN10CGridSetup15slotProjFromMapEv
qmapshack:_ZN10CGridSetup16staticMetaObjectE
qmapshack:_ZN10CGridSetup18slotRestoreDefaultEv
qmapshack:_ZN10CGridSetup19slotSelectGridColorEv
qmapshack:_ZN10CGridSetup6acceptEv
qmapshack:_ZN10CGridSetupC1EP5CGridP8CMapDraw
qmapshack:_ZN10CGridSetupC2EP5CGridP8CMapDraw
qmapshack:_ZN10CGridSetupD0Ev
qmapshack:_ZN10CGridSetupD1Ev
qmapshack:_ZN10CGridSetupD2Ev
qmapshack:_ZN10CHelpIndex10slotSearchERK7QString
qmapshack:_ZN10CHelpIndex11qt_metacallEN11QMetaObject4CallEiPPv
qmapshack:_ZN10CHelpIndex11qt_metacastEPKc
qmapshack:_ZN10CHelpIndex16staticMetaObjectE
qmapshack:_ZN10CHelpIndexC1EP11QHelpEngineP7QWidget
qmapshack:_ZN10CHelpIndexC2EP11QHelpEngineP7QWidget
qmapshack:_ZN10CPlotTrack10paintEventEP11QPaintEvent
qmapshack:_ZN10CPlotTrack11resizeEventEP12QResizeEvent
qmapshack:_ZN10CPlotTrack13setMouseFocusEdd
qmapshack:_ZN10CPlotTrackC1EP11CGisItemTrkP7QWidget
qmapshack:_ZN10CPlotTrackC1EP7QWidget
qmapshack:_ZN10CPlotTrackC2EP11CGisItemTrkP7QWidget
qmapshack:_ZN10CPlotTrackC2EP7QWidget
qmapshack:_ZN10CPlotTrackD0Ev
qmapshack:_ZN10CPlotTrackD1Ev
qmapshack:_ZN10CPlotTrackD2Ev
qmapshack:_ZN10CQlgtDiaryC1EyP7QObject
qmapshack:_ZN10CQlgtDiaryC2EyP7QObject
qmapshack:_ZN10CQlgtDiaryD0Ev
qmapshack:_ZN10CQlgtDiaryD1Ev
qmapshack:_ZN10CQlgtDiaryD2Ev
qmapshack:_ZN10CQlgtRouteC1EyP7QObject
qmapshack:_ZN10CQlgtRouteC2EyP7QObject
qmapshack:_ZN10CQlgtRouteD0Ev
qmapshack:_ZN10CQlgtRouteD1Ev
qmapshack:_ZN10CQlgtRouteD2Ev
qmapshack:_ZN10CQlgtTrackC1EyP7QObject
qmapshack:_ZN10CQlgtTrackC2EyP7QObject
qmapshack:_ZN10CQlgtTrackD0Ev
qmapshack:_ZN10CQlgtTrackD1Ev
qmapshack:_ZN10CQlgtTrackD2Ev
qmapshack:_ZN10CQlgtTracklsERKNS_4pt_tE
qmapshack:_ZN10CRtAisInfo10get6bitIntERK10QByteArrayii
qmapshack:_ZN10CRtAisInfo10sigChangedEv
qmapshack:_ZN10CRtAisInfo10slotUpdateEv
qmapshack:_ZN10CRtAisInfo10verifyLineERK7QString
qmapshack:_ZN10CRtAisInfo11autoConnectEi
qmapshack:_ZN10CRtAisInfo11qt_metacallEN11QMetaObject4CallEiPPv
qmapshack:_ZN10CRtAisInfo11qt_metacastEPKc
qmapshack:_ZN10CRtAisInfo11slotConnectEb
qmapshack:_ZN10CRtAisInfo11startRecordERK7QString
qmapshack:_ZN10CRtAisInfo12loadSettingsER9QSettings
qmapshack:_ZN10CRtAisInfo13fillTrackDataER10CTrackData
qmapshack:_ZN10CRtAisInfo13slotConnectedEv
qmapshack:_ZN10CRtAisInfo13slotReadyReadEv
qmapshack:_ZN10CRtAisInfo15aisClassAcommonERK10QByteArray
qmapshack:_ZN10CRtAisInfo15aisClassBcommonERK10QByteArray
qmapshack:_ZN10CRtAisInfo16get6bitSignedIntERK10QByteArrayii
qmapshack:_ZN10CRtAisInfo16slotDisconnectedEv
qmapshack:_ZN10CRtAisInfo16staticMetaObjectE
qmapshack:_ZN10CRtAisInfo18aisAidToNavigationERK10QByteArray
qmapshack:_ZN10CRtAisInfo18aisStaticAndVoyageERK10QByteArray
qmapshack:_ZN10CRtAisInfo18disconnectFromHostEv
qmapshack:_ZN10CRtAisInfo7nmeaVDMERK11QStringList
qmapshack:_ZN10CRtAisInfo9aisStaticERK10QByteArray
qmapshack:_ZN10CRtAisInfo9getStringERK10QByteArrayR7QStringii
qmapshack:_ZN10CRtAisInfo9slotErrorEN15QAbstractSocket11SocketErrorE
qmapshack:_ZN10CRtAisInfoC1ER6CRtAisP7QWidget
qmapshack:_ZN10CRtAisInfoC2ER6CRtAisP7QWidget
qmapshack:_ZN10CRtAisInfoD0Ev
qmapshack:_ZN10CRtAisInfoD1Ev
qmapshack:_ZN10CRtAisInfoD2Ev
qmapshack:_ZN10CRtOpenSky10slotUpdateEv
qmapshack:_ZN10CRtOpenSky11qt_metacallEN11QMetaObject4CallEiPPv
qmapshack:_ZN10CRtOpenSky11qt_metacastEPKc
qmapshack:_ZN10CRtOpenSky12loadSettingsER9QSettings
qmapshack:_ZN10CRtOpenSky16slotSetShowNamesEb
qmapshack:_ZN10CRtOpenSky16staticMetaObjectE
qmapshack:_ZN10CRtOpenSky19slotRequestFinishedEP13QNetworkReply
qmapshack:_ZN10CRtOpenSky22registerWithTreeWidgetEv
qmapshack:_ZN10CRtOpenSky7strIconE
qmapshack:_ZN10CRtOpenSky8drawItemER8QPainterRK9QPolygonFR5QListI6QRectFEP7CRtDraw
qmapshack:_ZN10CRtOpenSky8fastDrawER8QPainterRK6QRectFP7CRtDraw
qmapshack:_ZN10CRtOpenSky9mouseMoveERK7QPointF
qmapshack:_ZN10CRtOpenSkyC1EP11QTreeWidget
qmapshack:_ZN10CRtOpenSkyC2EP11QTreeWidget
qmapshack:_ZN10CScrOptRte10slotDeleteEv
qmapshack:_ZN10CScrOptRte11qt_metacallEN11QMetaObject4CallEiPPv
qmapshack:_ZN10CScrOptRte11qt_metacastEPKc
qmapshack:_ZN10CScrOptRte11slotReverseEv
qmapshack:_ZN10CScrOptRte11slotToTrackEv
qmapshack:_ZN10CScrOptRte15slotEditDetailsEv
qmapshack:_ZN10CScrOptRte15slotInstructionEb
qmapshack:_ZN10CScrOptRte16staticMetaObjectE
qmapshack:_ZN10CScrOptRte4drawER8QPainter
qmapshack:_ZN10CScrOptRte8slotCalcEv
qmapshack:_ZN10CScrOptRte8slotCopyEv
qmapshack:_ZN10CScrOptRte8slotEditEv
qmapshack:_ZN10CScrOptRte8slotNogoEv
qmapshack:_ZN10CScrOptRte8slotTagsEv
qmapshack:_ZN10CScrOptRte9slotResetEv
qmapshack:_ZN10CScrOptRteC1EP11CGisItemRteRK6QPointP6IMouse
qmapshack:_ZN10CScrOptRteC2EP11CGisItemRteRK6QPointP6IMouse
qmapshack:_ZN10CScrOptRteD0Ev
qmapshack:_ZN10CScrOptRteD1Ev
qmapshack:_ZN10CScrOptRteD2Ev
qmapshack:_ZN10CScrOptTrk10slotDeleteEv
qmapshack:_ZN10CScrOptTrk11qt_metacallEN11QMetaObject4CallEiPPv
qmapshack:_ZN10CScrOptTrk11qt_metacastEPKc
qmapshack:_ZN10CScrOptTrk11slotAddInfoEv
qmapshack:_ZN10CScrOptTrk11slotCombineEv
qmapshack:_ZN10CScrOptTrk11slotProfileEb
qmapshack:_ZN10CScrOptTrk11slotReverseEv
qmapshack:_ZN10CScrOptTrk11slotToRouteEv
qmapshack:_ZN10CScrOptTrk12slotActivityEv
qmapshack:_ZN10CScrOptTrk15slotCopyWithWptEv
qmapshack:_ZN10CScrOptTrk15slotEditDetailsEv
qmapshack:_ZN10CScrOptTrk16slotAddElevationEv
qmapshack:_ZN10CScrOptTrk16staticMetaObjectE
qmapshack:_ZN10CScrOptTrk4drawER8QPainter
qmapshack:_ZN10CScrOptTrk7slotCutEv
qmapshack:_ZN10CScrOptTrk8slotCopyEv
qmapshack:_ZN10CScrOptTrk8slotEditEv
qmapshack:_ZN10CScrOptTrk8slotNogoEv
qmapshack:_ZN10CScrOptTrk8slotTagsEv
qmapshack:_ZN10CScrOptTrk9slotColorEv
qmapshack:_ZN10CScrOptTrk9slotRangeEv
qmapshack:_ZN10CScrOptTrkC1EP11CGisItemTrkRK6QPointP6IMouse
qmapshack:_ZN10CScrOptTrkC2EP11CGisItemTrkRK6QPointP6IMouse
qmapshack:_ZN10CScrOptTrkD0Ev
qmapshack:_ZN10CScrOptTrkD1Ev
qmapshack:_ZN10CScrOptTrkD2Ev
qmapshack:_ZN10CScrOptWpt10slotBubbleEv
qmapshack:_ZN10CScrOptWpt10slotDeleteEv
qmapshack:_ZN10CScrOptWpt11qt_metacallEN11QMetaObject4CallEiPPv
qmapshack:_ZN10CScrOptWpt11qt_metacastEPKc
qmapshack:_ZN10CScrOptWpt12slotNogoAreaEv
qmapshack:_ZN10CScrOptWpt13slotSearchWebEv
qmapshack:_ZN10CScrOptWpt14slotEditRadiusEv
qmapshack:_ZN10CScrOptWpt16slotAddElevationEv
qmapshack:_ZN10CScrOptWpt16slotDeleteRadiusEv
qmapshack:_ZN10CScrOptWpt16staticMetaObjectE
qmapshack:_ZN10CScrOptWpt20slotCoordToClipboardEv
qmapshack:_ZN10CScrOptWpt4drawER8QPainter
qmapshack:_ZN10CScrOptWpt8slotCopyEv
qmapshack:_ZN10CScrOptWpt8slotEditEv
qmapshack:_ZN10CScrOptWpt8slotMoveEv
qmapshack:_ZN10CScrOptWpt8slotProjEv
qmapshack:_ZN10CScrOptWpt8slotTagsEv
qmapshack:_ZN10CScrOptWptC1EP11CGisItemWptRK6QPointP6IMouse
qmapshack:_ZN10CScrOptWptC2EP11CGisItemWptRK6QPointP6IMouse
qmapshack:_ZN10CScrOptWptD0Ev
qmapshack:_ZN10CScrOptWptD1Ev
qmapshack:_ZN10CScrOptWptD2Ev
qmapshack:_ZN10CSlfReader11readEntriesERK8QDomNode
qmapshack:_ZN10CSlfReader11readMarkersERK8QDomNode
qmapshack:_ZN10CSlfReader12readMetadataERK8QDomNodeRN11IGisProject10metadata_tE
qmapshack:_ZN10CSlfReader14parseTimestampERK7QString
qmapshack:_ZN10CSlfReader18findUsedAttributesERK12QDomNodeList
qmapshack:_ZN10CSlfReader8readFileERK7QStringP11CSlfProject
qmapshack:_ZN10CSlfReader9attrToExtE
qmapshack:_ZN10CSlfReaderC1ERK7QStringP11CSlfProject
qmapshack:_ZN10CSlfReaderC2ERK7QStringP11CSlfProject
qmapshack:_ZN10CTrackData12delTrkPtDescERK5QListIiE
qmapshack:_ZN10CTrackData12setTrkPtDescEiRK7QString
qmapshack:_ZN10CTrackData19getTrkPtByConditionESt8functionIFbRKNS_7trkpt_tEEE
qmapshack:_ZN10CTrackData19removeEmptySegmentsEv
qmapshack:_ZN10CTrackData20getTrkPtByTotalIndexEi
qmapshack:_ZN10CTrackData7trkpt_t7act1to2E
qmapshack:_ZN10CTrackData7trkpt_t7act2to1E
qmapshack:_ZN10CTrackData8readFromERK7QVectorINS_7trkpt_tEE
qmapshack:_ZN10CTrackData8readFromERK8SGisLine
qmapshack:_ZN10CTrackDataC1ERK7QStringRKS_ii
qmapshack:_ZN10CTrackDataC2ERK7QStringRKS_ii
qmapshack:_ZN10IMapOnline10httpsCheckERK7QString
qmapshack:_ZN10IMapOnline11qt_metacallEN11QMetaObject4CallEiPPv
qmapshack:_ZN10IMapOnline11qt_metacastEPKc
qmapshack:_ZN10IMapOnline14configureCacheEv
qmapshack:_ZN10IMapOnline15sigQueueChangedEv
qmapshack:_ZN10IMapOnline16slotQueueChangedEv
qmapshack:_ZN10IMapOnline16staticMetaObjectE
qmapshack:_ZN10IMapOnline19slotRequestFinishedEP13QNetworkReply
qmapshack:_ZN10IMapOnlineC1EP8CMapDraw
qmapshack:_ZN10IMapOnlineC2EP8CMapDraw
qmapshack:_ZN10IToolShell10slotStderrEv
qmapshack:_ZN10IToolShell10slotStdoutEv
qmapshack:_ZN10IToolShell11qt_metacallEN11QMetaObject4CallEiPPv
qmapshack:_ZN10IToolShell11qt_metacastEPKc
qmapshack:_ZN10IToolShell12slotFinishedEiN8QProcess10ExitStatusE
qmapshack:_ZN10IToolShell16staticMetaObjectE
qmapshack:_ZN10IToolShell6stdErrERK7QString
qmapshack:_ZN10IToolShell6stdOutERK7QString
qmapshack:_ZN10IToolShell9slotErrorEN8QProcess12ProcessErrorE
qmapshack:_ZN10IToolShellC1EP7QWidget
qmapshack:_ZN10IToolShellC2EP7QWidget
qmapshack:_ZN10IToolShellD0Ev
qmapshack:_ZN10IToolShellD1Ev
qmapshack:_ZN10IToolShellD2Ev
qmapshack:_ZN11CCombineTrk10slotRemoveEv
qmapshack:_ZN11CCombineTrk10slotSelectEv
qmapshack:_ZN11CCombineTrk11qt_metacallEN11QMetaObject4CallEiPPv
qmapshack:_ZN11CCombineTrk11qt_metacastEPKc
qmapshack:_ZN11CCombineTrk13updatePreviewEv
qmapshack:_ZN11CCombineTrk16staticMetaObjectE
qmapshack:_ZN11CCombineTrk20slotSelectionChangedEv
qmapshack:_ZN11CCombineTrk6acceptEv
qmapshack:_ZN11CCombineTrk6slotUpEv
qmapshack:_ZN11CCombineTrk8slotDownEv
qmapshack:_ZN11CCombineTrkC1ERK5QListIN8IGisItem5key_tEES5_P7QWidget
qmapshack:_ZN11CCombineTrkC2ERK5QListIN8IGisItem5key_tEES5_P7QWidget
qmapshack:_ZN11CCombineTrkD0Ev
qmapshack:_ZN11CCombineTrkD1Ev
qmapshack:_ZN11CCombineTrkD2Ev
qmapshack:_ZN11CDetailsPrj10updateDataEv
qmapshack:_ZN11CDetailsPrj11drawByGroupER11QTextCursorR5QListIP11CGisItemTrkERS2_IP11CGisItemWptER15CProgressDialogRib
qmapshack:_ZN11CDetailsPrj11drawByTrackER11QTextCursorR5QListIP11CGisItemTrkERS2_IP11CGisItemWptER15CProgressDialogRib
qmapshack:_ZN11CDetailsPrj11qt_metacallEN11QMetaObject4CallEiPPv
qmapshack:_ZN11CDetailsPrj11qt_metacastEPKc
qmapshack:_ZN11CDetailsPrj11resizeEventEP12QResizeEvent
qmapshack:_ZN11CDetailsPrj12slotSetupGuiEv
qmapshack:_ZN11CDetailsPrj12slotSortModeEi
qmapshack:_ZN11CDetailsPrj13drawByDetailsER11QTextCursorR5QListIP11CGisItemTrkERS2_IP11CGisItemWptER15CProgressDialogRib
qmapshack:_ZN11CDetailsPrj15getTrackProfileEP11CGisItemTrkPKN10CTrackData7trkpt_tER6QImage
qmapshack:_ZN11CDetailsPrj16drawTrackSummaryER11QTextCursor5QListIP11CGisItemTrkEb
qmapshack:_ZN11CDetailsPrj16getTrackOverviewEP11CGisItemTrkPKN10CTrackData7trkpt_tER6QImage
qmapshack:_ZN11CDetailsPrj16slotSetScrollbarEv
qmapshack:_ZN11CDetailsPrj16staticMetaObjectE
qmapshack:_ZN11CDetailsPrj17slotLinkActivatedERK4QUrl
qmapshack:_ZN11CDetailsPrj17slotLinkActivatedERK7QString
qmapshack:_ZN11CDetailsPrj19drawWaypointSummaryER11QTextCursor5QListIP11CGisItemWptEb
qmapshack:_ZN11CDetailsPrj4drawER13QTextDocumentb
qmapshack:_ZN11CDetailsPrj7addIconEP10QTextTableiiRK7QPixmapRK7QStringbb
qmapshack:_ZN11CDetailsPrj8drawAreaER11QTextCursorR5QListIP15CGisItemOvlAreaER15CProgressDialogRib
qmapshack:_ZN11CDetailsPrj8drawInfoER11QTextCursorb
qmapshack:_ZN11CDetailsPrj8slotLockEb
qmapshack:_ZN11CDetailsPrj9drawRouteER11QTextCursorR5QListIP11CGisItemRteER15CProgressDialogRib
qmapshack:_ZN11CDetailsPrj9slotPrintEv
qmapshack:_ZN11CDetailsPrjC1ER11IGisProjectP7QWidget
qmapshack:_ZN11CDetailsPrjC2ER11IGisProjectP7QWidget
qmapshack:_ZN11CDetailsPrjD0Ev
qmapshack:_ZN11CDetailsPrjD1Ev
qmapshack:_ZN11CDetailsPrjD2Ev
qmapshack:_ZN11CDetailsRte11qt_metacallEN11QMetaObject4CallEiPPv
qmapshack:_ZN11CDetailsRte11qt_metacastEPKc
qmapshack:_ZN11CDetailsRte15slotNameChangedERK7QString
qmapshack:_ZN11CDetailsRte16staticMetaObjectE
qmapshack:_ZN11CDetailsRte17slotLinkActivatedERK4QUrl
qmapshack:_ZN11CDetailsRte22slotChangeReadOnlyModeEb
qmapshack:_ZN11CDetailsRte22slotNameChangeFinishedEv
qmapshack:_ZN11CDetailsRte8setupGuiEv
qmapshack:_ZN11CDetailsRteC1ER11CGisItemRteP7QWidget
qmapshack:_ZN11CDetailsRteC2ER11CGisItemRteP7QWidget
qmapshack:_ZN11CDetailsRteD0Ev
qmapshack:_ZN11CDetailsRteD1Ev
qmapshack:_ZN11CDetailsRteD2Ev
qmapshack:_ZN11CDetailsTrk10setupGraphEP5CPlotRK6CLimitRK7QStringP14QDoubleSpinBoxS9_
qmapshack:_ZN11CDetailsTrk10updateDataEv
qmapshack:_ZN11CDetailsTrk11qt_metacallEN11QMetaObject4CallEiPPv
qmapshack:_ZN11CDetailsTrk11qt_metacastEPKc
qmapshack:_ZN11CDetailsTrk11setupLimitsEP6CLimitP14QDoubleSpinBoxS3_
qmapshack:_ZN11CDetailsTrk13setMouseFocusEPKN10CTrackData7trkpt_tE
qmapshack:_ZN11CDetailsTrk13slotLineWidthEi
qmapshack:_ZN11CDetailsTrk13slotShowPlotsEv
qmapshack:_ZN11CDetailsTrk14slotSetupGraphEi
qmapshack:_ZN11CDetailsTrk14slotWithArrowsEb
qmapshack:_ZN11CDetailsTrk15enableTabFilterEv
qmapshack:_ZN11CDetailsTrk15loadGraphSourceEP9QComboBoxi7QString
qmapshack:_ZN11CDetailsTrk15saveGraphSourceEP9QComboBoxi
qmapshack:_ZN11CDetailsTrk15slotNameChangedERK7QString
qmapshack:_ZN11CDetailsTrk16setupGraphLimitsER6CLimitP11QToolButtonS3_S3_P14QDoubleSpinBoxS5_
qmapshack:_ZN11CDetailsTrk16setupStyleLimitsER6CLimitP11QToolButtonS3_S3_P14CDoubleSpinBoxS5_
qmapshack:_ZN11CDetailsTrk16slotColorChangedEi
qmapshack:_ZN11CDetailsTrk16slotHasTrkPtInfoEb
qmapshack:_ZN11CDetailsTrk16staticMetaObjectE
qmapshack:_ZN11CDetailsTrk17slotLineWidthModeEb
qmapshack:_ZN11CDetailsTrk17slotLinkActivatedERK4QUrl
qmapshack:_ZN11CDetailsTrk17slotSetActivitiesEv
qmapshack:_ZN11CDetailsTrk18setMouseClickFocusEPKN10CTrackData7trkpt_tE
qmapshack:_ZN11CDetailsTrk18setMouseRangeFocusEPKN10CTrackData7trkpt_tES3_
qmapshack:_ZN11CDetailsTrk18slotWithArrowsModeEb
qmapshack:_ZN11CDetailsTrk19slotMouseClickStateEi
qmapshack:_ZN11CDetailsTrk20slotSetEnergyCyclingEv
qmapshack:_ZN11CDetailsTrk21slotSetLimitModeGraphEN6CLimit6mode_eEPS0_P14QDoubleSpinBoxS4_b
qmapshack:_ZN11CDetailsTrk21slotSetLimitModeStyleEN6CLimit6mode_eEb
qmapshack:_ZN11CDetailsTrk22slotChangeReadOnlyModeEb
qmapshack:_ZN11CDetailsTrk22slotColorSourceChangedEi
qmapshack:_ZN11CDetailsTrk22slotNameChangeFinishedEv
qmapshack:_ZN11CDetailsTrk24slotColorLimitLowChangedEv
qmapshack:_ZN11CDetailsTrk25slotColorLimitHighChangedEv
qmapshack:_ZN11CDetailsTrkC1ER11CGisItemTrk
qmapshack:_ZN11CDetailsTrkC2ER11CGisItemTrk
qmapshack:_ZN11CDetailsTrkD0Ev
qmapshack:_ZN11CDetailsTrkD1Ev
qmapshack:_ZN11CDetailsTrkD2Ev
qmapshack:_ZN11CDetailsWpt11qt_metacallEN11QMetaObject4CallEiPPv
qmapshack:_ZN11CDetailsWpt11qt_metacastEPKc
qmapshack:_ZN11CDetailsWpt14slotChangeIconEv
qmapshack:_ZN11CDetailsWpt15slotNameChangedERK7QString
qmapshack:_ZN11CDetailsWpt16staticMetaObjectE
qmapshack:_ZN11CDetailsWpt17slotChangedImagesERK5QListIN11CGisItemWpt7image_tEE
qmapshack:_ZN11CDetailsWpt17slotLinkActivatedERK4QUrl
qmapshack:_ZN11CDetailsWpt17slotLinkActivatedERK7QString
qmapshack:_ZN11CDetailsWpt22slotChangeReadOnlyModeEb
qmapshack:_ZN11CDetailsWpt22slotNameChangeFinishedEv
qmapshack:_ZN11CDetailsWpt8setupGuiEv
qmapshack:_ZN11CDetailsWptC1ER11CGisItemWptP7QWidget
qmapshack:_ZN11CDetailsWptC2ER11CGisItemWptP7QWidget
qmapshack:_ZN11CDetailsWptD0Ev
qmapshack:_ZN11CDetailsWptD1Ev
qmapshack:_ZN11CDetailsWptD2Ev
qmapshack:_ZN11CFadingIcon11qt_metacallEN11QMetaObject4CallEiPPv
qmapshack:_ZN11CFadingIcon11qt_metacastEPKc
qmapshack:_ZN11CFadingIcon11slotTimeoutEv
qmapshack:_ZN11CFadingIcon16staticMetaObjectE
qmapshack:_ZN11CFadingIconC1ERK6QPointRK7QStringP7QWidget
qmapshack:_ZN11CFadingIconC2ERK6QPointRK7QStringP7QWidget
qmapshack:_ZN11CFadingIconD0Ev
qmapshack:_ZN11CFadingIconD1Ev
qmapshack:_ZN11CFadingIconD2Ev
qmapshack:_ZN11CFitDecoder14printDebugInfoEv
qmapshack:_ZN11CFitDecoder15resetSharedDataEv
qmapshack:_ZN11CFitDecoder6decodeER5QFile
qmapshack:_ZN11CFitDecoderC1Ev
qmapshack:_ZN11CFitDecoderC2Ev
qmapshack:_ZN11CFitDecoderD1Ev
qmapshack:_ZN11CFitDecoderD2Ev
qmapshack:_ZN11CFitMessage18updateFieldProfileEhPK16CFitFieldProfile
qmapshack:_ZN11CFitMessage8addFieldER9CFitField
qmapshack:_ZN11CFitMessageC1ERK21CFitDefinitionMessage
qmapshack:_ZN11CFitMessageC1Ev
qmapshack:_ZN11CFitMessageC2ERK21CFitDefinitionMessage
qmapshack:_ZN11CFitMessageC2Ev
qmapshack:_ZN11CFitProfile11addSubfieldE7QStringRK12CFitBaseTypehdtS0_hh
qmapshack:_ZN11CFitProfile12addComponentE7QStringRK12CFitBaseTypehdsS0_hj
qmapshack:_ZN11CFitProfile12addComponentEi7QStringRK12CFitBaseTypehdsS0_hj
qmapshack:_ZN11CFitProfile8addFieldE7QStringRK12CFitBaseTypehdsS0_
qmapshack:_ZN11CFitProfileC1E7QStringt
qmapshack:_ZN11CFitProfileC1ERKS_
qmapshack:_ZN11CFitProfileC1Ev
qmapshack:_ZN11CFitProfileC2E7QStringt
qmapshack:_ZN11CFitProfileC2ERKS_
qmapshack:_ZN11CFitProfileC2Ev
qmapshack:_ZN11CFitProfileD0Ev
qmapshack:_ZN11CFitProfileD1Ev
qmapshack:_ZN11CFitProfileD2Ev
qmapshack:_ZN11CFitProject14createGisItemsER5QFile
qmapshack:_ZN11CFitProject15loadFitFromFileERK7QStringb
qmapshack:_ZN11CFitProject17tryOpeningFitFileERK7QString
qmapshack:_ZN11CFitProjectC1ERK7QStringP11CGisListWks
qmapshack:_ZN11CFitProjectC1ERK7QStringP7IDevice
qmapshack:_ZN11CFitProjectC2ERK7QStringP11CGisListWks
qmapshack:_ZN11CFitProjectC2ERK7QStringP7IDevice
qmapshack:_ZN11CFitProjectD0Ev
qmapshack:_ZN11CFitProjectD1Ev
qmapshack:_ZN11CFitProjectD2Ev
qmapshack:_ZN11CGisItemRte10setCommentERK7QString
qmapshack:_ZN11CGisItemRte11createCloneEv
qmapshack:_ZN11CGisItemRte12isCalculatedEv
qmapshack:_ZN11CGisItemRte12keyUserFocusE
qmapshack:_ZN11CGisItemRte12setElevationEdRNS_7subpt_tERd
qmapshack:_ZN11CGisItemRte13drawHighlightER8QPainter
qmapshack:_ZN11CGisItemRte13gainUserFocusEb
qmapshack:_ZN11CGisItemRte13penBackgroundE
qmapshack:_ZN11CGisItemRte14looseUserFocusEv
qmapshack:_ZN11CGisItemRte14readRteFromFitER10CFitStream
qmapshack:_ZN11CGisItemRte14setDescriptionERK7QString
qmapshack:_ZN11CGisItemRte15getPointCloseByERK6QPoint
qmapshack:_ZN11CGisItemRte15getSubPtByIndexEj
qmapshack:_ZN11CGisItemRte16getScreenOptionsERK6QPointP6IMouse
qmapshack:_ZN11CGisItemRte16keywordLambdaMapE
qmapshack:_ZN11CGisItemRte17getValueByKeywordE16searchProperty_e
qmapshack:_ZN11CGisItemRte19deriveSecondaryDataEv
qmapshack:_ZN11CGisItemRte19setDataFromPolylineERK8SGisLine
qmapshack:_ZN11CGisItemRte20initKeywordLambdaMapEv
qmapshack:_ZN11CGisItemRte20setMouseFocusByPointERK6QPointNS_11focusmode_eERK7QString
qmapshack:_ZN11CGisItemRte20setResultFromBRouterERK12QDomDocumentRK7QString
qmapshack:_ZN11CGisItemRte24readRouteDataFromGisLineERK8SGisLine
qmapshack:_ZN11CGisItemRte4calcEv
qmapshack:_ZN11CGisItemRte4editEv
qmapshack:_ZN11CGisItemRte4saveER8QDomNodeb
qmapshack:_ZN11CGisItemRte5resetEv
qmapshack:_ZN11CGisItemRte7readRteERK8QDomNodeRNS_5rte_tE
qmapshack:_ZN11CGisItemRte7reverseEv
qmapshack:_ZN11CGisItemRte7rtept_t10updateIconEv
qmapshack:_ZN11CGisItemRte7setNameERK7QString
qmapshack:_ZN11CGisItemRte7toTrackEv
qmapshack:_ZN11CGisItemRte8drawItemER8QPainterRK6QRectFP8CGisDraw
qmapshack:_ZN11CGisItemRte8drawItemER8QPainterRK9QPolygonFR5QListI6QRectFEP8CGisDraw
qmapshack:_ZN11CGisItemRte8isWithinERK6QRectFj
qmapshack:_ZN11CGisItemRte8setLinksERK5QListIN8IGisItem6link_tEE
qmapshack:_ZN11CGisItemRte9drawLabelER8QPainterRK9QPolygonFR5QListI6QRectFERK13QFontMetricsFP8CGisDraw
qmapshack:_ZN11CGisItemRte9isCloseToERK7QPointF
qmapshack:_ZN11CGisItemRte9setResultEP15_Routino_OutputRK7QString
qmapshack:_ZN11CGisItemRte9setResultERK12QDomDocumentRK7QString
qmapshack:_ZN11CGisItemRte9setSymbolEv
qmapshack:_ZN11CGisItemRteC1ER10CFitStreamP11IGisProject
qmapshack:_ZN11CGisItemRteC1ERK10CQlgtRouteP11IGisProject
qmapshack:_ZN11CGisItemRteC1ERK8QDomNodeP11IGisProject
qmapshack:_ZN11CGisItemRteC1ERK8SGisLineRK7QStringP11IGisProjecti
qmapshack:_ZN11CGisItemRteC1ERKN8IGisItem9history_tERK7QStringP11IGisProject
qmapshack:_ZN11CGisItemRteC1ERKS_P11IGisProjectib
qmapshack:_ZN11CGisItemRteC1EyR12QSqlDatabaseP11IGisProject
qmapshack:_ZN11CGisItemRteC2ER10CFitStreamP11IGisProject
qmapshack:_ZN11CGisItemRteC2ERK10CQlgtRouteP11IGisProject
qmapshack:_ZN11CGisItemRteC2ERK8QDomNodeP11IGisProject
qmapshack:_ZN11CGisItemRteC2ERK8SGisLineRK7QStringP11IGisProjecti
qmapshack:_ZN11CGisItemRteC2ERKN8IGisItem9history_tERK7QStringP11IGisProject
qmapshack:_ZN11CGisItemRteC2ERKS_P11IGisProjectib
qmapshack:_ZN11CGisItemRteC2EyR12QSqlDatabaseP11IGisProject
qmapshack:_ZN11CGisItemRteD0Ev
qmapshack:_ZN11CGisItemRteD1Ev
qmapshack:_ZN11CGisItemRteD2Ev
qmapshack:_ZN11CGisItemRtelsER11QDataStream
qmapshack:_ZN11CGisItemTrk10readTwoNavERK7QString
qmapshack:_ZN11CGisItemTrk10saveTwoNavERK7QString
qmapshack:_ZN11CGisItemTrk10setCommentERK7QString
qmapshack:_ZN11CGisItemTrk11createCloneEv
qmapshack:_ZN11CGisItemTrk11filterResetEv
qmapshack:_ZN11CGisItemTrk11filterSpeedERKN16CFilterSpeedHike13hiking_type_tE
qmapshack:_ZN11CGisItemTrk11filterSpeedERKN17CFilterSpeedCycle14cycling_type_tE
qmapshack:_ZN11CGisItemTrk11filterSpeedEd
qmapshack:_ZN11CGisItemTrk11setActivityEN10CTrackData7trkpt_t7act20_eE
qmapshack:_ZN11CGisItemTrk11verifyTrkPtERPN10CTrackData7trkpt_tERS1_
qmapshack:_ZN11CGisItemTrk12addTrkPtDescEv
qmapshack:_ZN11CGisItemTrk12delTrkPtDescERK5QListIiE
qmapshack:_ZN11CGisItemTrk12filterDeleteEv
qmapshack:_ZN11CGisItemTrk12keyUserFocusE
qmapshack:_ZN11CGisItemTrk12setElevationEii
qmapshack:_ZN11CGisItemTrk12setTrkPtDescEiRK7QString
qmapshack:_ZN11CGisItemTrk12updateFromDBEyR12QSqlDatabase
qmapshack:_ZN11CGisItemTrk13drawHighlightER8QPainter
qmapshack:_ZN11CGisItemTrk13filterNewDateERK9QDateTime
qmapshack:_ZN11CGisItemTrk13gainUserFocusEb
qmapshack:_ZN11CGisItemTrk13saveTCXcourseER8QDomNode
qmapshack:_ZN11CGisItemTrk13updateHistoryEj
qmapshack:_ZN11CGisItemTrk13updateVisualsEjRK7QString
qmapshack:_ZN11CGisItemTrk14filterLoopsCutEd
qmapshack:_ZN11CGisItemTrk14filterSubPt2PtEv
qmapshack:_ZN11CGisItemTrk14looseUserFocusEv
qmapshack:_ZN11CGisItemTrk14moveMouseFocusERPKN10CTrackData7trkpt_tEiRK7QString
qmapshack:_ZN11CGisItemTrk14readTrkFromFitER10CFitStream
qmapshack:_ZN11CGisItemTrk14registerVisualEP10INotifyTrk
qmapshack:_ZN11CGisItemTrk14setDescriptionERK7QString
qmapshack:_ZN11CGisItemTrk15drawLimitLabelsENS_12limit_type_eERK7QStringRK7QPointFR8QPainterRK13QFontMetricsFR5QListI6QRectFE
qmapshack:_ZN11CGisItemTrk15getPointCloseByERK6QPoint
qmapshack:_ZN11CGisItemTrk15resetMouseRangeEv
qmapshack:_ZN11CGisItemTrk15saveTCXactivityER8QDomNode
qmapshack:_ZN11CGisItemTrk16decMouseRangeEndEiRK7QString
qmapshack:_ZN11CGisItemTrk16filterSplitTrackEa
qmapshack:_ZN11CGisItemTrk16getScreenOptionsERK6QPointP6IMouse
qmapshack:_ZN11CGisItemTrk16incMouseRangeEndEiRK7QString
qmapshack:_ZN11CGisItemTrk16keywordLambdaMapE
qmapshack:_ZN11CGisItemTrk16newMouseRangeEndERK7QString
qmapshack:_ZN11CGisItemTrk16setActivityRangeEN10CTrackData7trkpt_t7act20_eE
qmapshack:_ZN11CGisItemTrk16unregisterVisualEP10INotifyTrk
qmapshack:_ZN11CGisItemTrk17consolidatePointsEv
qmapshack:_ZN11CGisItemTrk17filterObscureDateEi
qmapshack:_ZN11CGisItemTrk17getValueByKeywordE16searchProperty_e
qmapshack:_ZN11CGisItemTrk17publishMouseFocusEPKN10CTrackData7trkpt_tENS_11focusmode_eERK7QString
qmapshack:_ZN11CGisItemTrk17resetInternalDataEv
qmapshack:_ZN11CGisItemTrk17setColorizeSourceE7QString
qmapshack:_ZN11CGisItemTrk18decMouseRangeBeginEiRK7QString
qmapshack:_ZN11CGisItemTrk18filterReducePointsEd
qmapshack:_ZN11CGisItemTrk18filterSplitSegmentEv
qmapshack:_ZN11CGisItemTrk18filterTerrainSlopeEv
qmapshack:_ZN11CGisItemTrk18hideSelectedPointsEv
qmapshack:_ZN11CGisItemTrk18incMouseRangeBeginEiRK7QString
qmapshack:_ZN11CGisItemTrk18newMouseRangeBeginERK7QString
qmapshack:_ZN11CGisItemTrk18setupInterpolationEbi
qmapshack:_ZN11CGisItemTrk18showSelectedPointsEv
qmapshack:_ZN11CGisItemTrk19deriveSecondaryDataEv
qmapshack:_ZN11CGisItemTrk19filterSmoothProfileEi
qmapshack:_ZN11CGisItemTrk19findPolylineCloseByERK7QPointFS2_RiR9QPolygonF
qmapshack:_ZN11CGisItemTrk19setColorizeLimitLowEd
qmapshack:_ZN11CGisItemTrk19setDataFromPolylineERK8SGisLine
qmapshack:_ZN11CGisItemTrk19setMouseFocusByTimeEjNS_11focusmode_eERK7QString
qmapshack:_ZN11CGisItemTrk20deleteSelectedPointsEv
qmapshack:_ZN11CGisItemTrk20findWaypointsCloseByER15CProgressDialogRj
qmapshack:_ZN11CGisItemTrk20initKeywordLambdaMapEv
qmapshack:_ZN11CGisItemTrk20setColorizeLimitHighEd
qmapshack:_ZN11CGisItemTrk20setMouseFocusByPointERK6QPointNS_11focusmode_eERK7QString
qmapshack:_ZN11CGisItemTrk20setMouseFocusVisualsEPKN10CTrackData7trkpt_tE
qmapshack:_ZN11CGisItemTrk21checkForInvalidPointsEv
qmapshack:_ZN11CGisItemTrk21filterDeleteExtensionERK7QString
qmapshack:_ZN11CGisItemTrk21filterOffsetElevationEi
qmapshack:_ZN11CGisItemTrk22filterChangeStartPointEiRK7QString
qmapshack:_ZN11CGisItemTrk22filterReplaceElevationEP7CCanvas
qmapshack:_ZN11CGisItemTrk23setMouseFocusByDistanceEdNS_11focusmode_eERK7QString
qmapshack:_ZN11CGisItemTrk24getElevationInterpolatedEd
qmapshack:_ZN11CGisItemTrk24readTrackDataFromGisLineERK8SGisLine
qmapshack:_ZN11CGisItemTrk25filterRemoveInvalidPointsEv
qmapshack:_ZN11CGisItemTrk25setMouseClickFocusVisualsEPKN10CTrackData7trkpt_tE
qmapshack:_ZN11CGisItemTrk25setMouseFocusByTotalIndexEiNS_11focusmode_eERK7QString
qmapshack:_ZN11CGisItemTrk25setMouseRangeByTotalIndexEiiRK7QString
qmapshack:_ZN11CGisItemTrk25setMouseRangeFocusVisualsEPKN10CTrackData7trkpt_tES3_
qmapshack:_ZN11CGisItemTrk26filterInterpolateElevationEv
qmapshack:_ZN11CGisItemTrk26publishMouseFocusRangeModeEPKN10CTrackData7trkpt_tENS_11focusmode_eE
qmapshack:_ZN11CGisItemTrk26updateExtremaAndExtensionsEv
qmapshack:_ZN11CGisItemTrk27filterZeroSpeedDriftCleanerEdd
qmapshack:_ZN11CGisItemTrk27publishMouseFocusNormalModeEPKN10CTrackData7trkpt_tENS_11focusmode_eE
qmapshack:_ZN11CGisItemTrk32adjustIndicesForRemoveOperationsERiS0_
qmapshack:_ZN11CGisItemTrk3cutEv
qmapshack:_ZN11CGisItemTrk4editEv
qmapshack:_ZN11CGisItemTrk4saveER8QDomNodeb
qmapshack:_ZN11CGisItemTrk7changedERK7QStringS2_
qmapshack:_ZN11CGisItemTrk7combineERK5QListIN8IGisItem5key_tEE
qmapshack:_ZN11CGisItemTrk7readTrkERK8QDomNodeR10CTrackData
qmapshack:_ZN11CGisItemTrk7reverseEv
qmapshack:_ZN11CGisItemTrk7setIconERK7QString
qmapshack:_ZN11CGisItemTrk7setModeENS_6mode_eERK7QString
qmapshack:_ZN11CGisItemTrk7setNameERK7QString
qmapshack:_ZN11CGisItemTrk7toRouteEv
qmapshack:_ZN11CGisItemTrk8drawItemER8QPainterRK6QRectFP8CGisDraw
qmapshack:_ZN11CGisItemTrk8drawItemER8QPainterRK9QPolygonFR5QListI6QRectFEP8CGisDraw
qmapshack:_ZN11CGisItemTrk8isWithinERK6QRectFj
qmapshack:_ZN11CGisItemTrk8setColorERK6QColor
qmapshack:_ZN11CGisItemTrk8setColorEi
qmapshack:_ZN11CGisItemTrk8setLinksERK5QListIN8IGisItem6link_tEE
qmapshack:_ZN11CGisItemTrk9drawLabelER8QPainterRK9QPolygonFR5QListI6QRectFERK13QFontMetricsFP8CGisDraw
qmapshack:_ZN11CGisItemTrk9drawRangeER8QPainterP8CGisDraw
qmapshack:_ZN11CGisItemTrk9isCloseToERK7QPointF
qmapshack:_ZN11CGisItemTrk9setSymbolEv
qmapshack:_ZN11CGisItemTrkC1ER10CFitStreamP11IGisProject
qmapshack:_ZN11CGisItemTrkC1ER10CTrackDataP11IGisProject
qmapshack:_ZN11CGisItemTrkC1ERK10CQlgtTrackP11IGisProject
qmapshack:_ZN11CGisItemTrkC1ERK12IQlgtOverlayP11IGisProject
qmapshack:_ZN11CGisItemTrkC1ERK7QStringP11IGisProject
qmapshack:_ZN11CGisItemTrkC1ERK7QStringiiRK10CTrackDataP11IGisProject
qmapshack:_ZN11CGisItemTrkC1ERK8QDomNodeP11IGisProject
qmapshack:_ZN11CGisItemTrkC1ERK8SGisLineRK7QStringP11IGisProjecti
qmapshack:_ZN11CGisItemTrkC1ERKN8IGisItem9history_tERK7QStringP11IGisProject
qmapshack:_ZN11CGisItemTrkC1ERKS_P11IGisProjectib
qmapshack:_ZN11CGisItemTrkC1EyR12QSqlDatabaseP11IGisProject
qmapshack:_ZN11CGisItemTrkC2ER10CFitStreamP11IGisProject
qmapshack:_ZN11CGisItemTrkC2ER10CTrackDataP11IGisProject
qmapshack:_ZN11CGisItemTrkC2ERK10CQlgtTrackP11IGisProject
qmapshack:_ZN11CGisItemTrkC2ERK12IQlgtOverlayP11IGisProject
qmapshack:_ZN11CGisItemTrkC2ERK7QStringP11IGisProject
qmapshack:_ZN11CGisItemTrkC2ERK7QStringiiRK10CTrackDataP11IGisProject
qmapshack:_ZN11CGisItemTrkC2ERK8QDomNodeP11IGisProject
qmapshack:_ZN11CGisItemTrkC2ERK8SGisLineRK7QStringP11IGisProjecti
qmapshack:_ZN11CGisItemTrkC2ERKN8IGisItem9history_tERK7QStringP11IGisProject
qmapshack:_ZN11CGisItemTrkC2ERKS_P11IGisProjectib
qmapshack:_ZN11CGisItemTrkC2EyR12QSqlDatabaseP11IGisProject
qmapshack:_ZN11CGisItemTrkD0Ev
qmapshack:_ZN11CGisItemTrkD1Ev
qmapshack:_ZN11CGisItemTrkD2Ev
qmapshack:_ZN11CGisItemTrklsER11QDataStream
qmapshack:_ZN11CGisItemWpt10calcRadiusERK7QPointFS2_RKdP8CGisDraw
qmapshack:_ZN11CGisItemWpt10drawBubbleER8QPainter
qmapshack:_ZN11CGisItemWpt10drawCircleER8QPainterRK7QPointFRKdRKbS8_
qmapshack:_ZN11CGisItemWpt10geocache_t17attributeMeaningsE
qmapshack:_ZN11CGisItemWpt10geocache_t27attributeMeaningsTranslatedE
qmapshack:_ZN11CGisItemWpt10geocache_t31initAttributeMeaningsTranslatedEv
qmapshack:_ZN11CGisItemWpt10readTwoNavERKN14CTwoNavProject5wpt_tE
qmapshack:_ZN11CGisItemWpt10saveTwoNavER11QTextStreamRK4QDir
qmapshack:_ZN11CGisItemWpt10setCommentERK7QString
qmapshack:_ZN11CGisItemWpt10writeGcExtER8QDomNode
qmapshack:_ZN11CGisItemWpt11createCloneEv
qmapshack:_ZN11CGisItemWpt11editInitialEv
qmapshack:_ZN11CGisItemWpt11getLastNameERK7QString
qmapshack:_ZN11CGisItemWpt11leftClickedERK6QPoint
qmapshack:_ZN11CGisItemWpt11setPositionERK7QPointF
qmapshack:_ZN11CGisItemWpt12dragFinishedERK6QPoint
qmapshack:_ZN11CGisItemWpt12keyUserFocusE
qmapshack:_ZN11CGisItemWpt12makePolylineERK7QPointFRK6QRectF
qmapshack:_ZN11CGisItemWpt12mouseDraggedERK6QPointS2_S2_
qmapshack:_ZN11CGisItemWpt12setElevationEi
qmapshack:_ZN11CGisItemWpt12setProximityEd
qmapshack:_ZN11CGisItemWpt12setTimestampERK9QDateTime
qmapshack:_ZN11CGisItemWpt12toggleBubbleEv
qmapshack:_ZN11CGisItemWpt13drawHighlightER8QPainter
qmapshack:_ZN11CGisItemWpt13gainUserFocusEb
qmapshack:_ZN11CGisItemWpt14getIconAndNameER7QStringS1_
qmapshack:_ZN11CGisItemWpt14readWptFromFitER10CFitStream
qmapshack:_ZN11CGisItemWpt14setDescriptionERK7QString
qmapshack:_ZN11CGisItemWpt15detBoundingRectEv
qmapshack:_ZN11CGisItemWpt15getPointCloseByERK6QPoint
qmapshack:_ZN11CGisItemWpt16getScreenOptionsERK6QPointP6IMouse
qmapshack:_ZN11CGisItemWpt16keywordLambdaMapE
qmapshack:_ZN11CGisItemWpt17getValueByKeywordE16searchProperty_e
qmapshack:_ZN11CGisItemWpt17removeLinksByTypeERK7QString
qmapshack:_ZN11CGisItemWpt20initKeywordLambdaMapEv
qmapshack:_ZN11CGisItemWpt22processMouseOverBubbleERK6QPoint
qmapshack:_ZN11CGisItemWpt4editEv
qmapshack:_ZN11CGisItemWpt4saveER8QDomNodeb
qmapshack:_ZN11CGisItemWpt6newWptERK7QPointFRK7QStringS5_P11IGisProject
qmapshack:_ZN11CGisItemWpt6newWptERK8IPoiItemP11IGisProjectb
qmapshack:_ZN11CGisItemWpt7readGpxERK8QDomNode
qmapshack:_ZN11CGisItemWpt7saveTCXER8QDomNode9QDateTime
qmapshack:_ZN11CGisItemWpt7setIconERK7QString
qmapshack:_ZN11CGisItemWpt7setIconEv
qmapshack:_ZN11CGisItemWpt7setNameERK7QString
qmapshack:_ZN11CGisItemWpt8addImageERKNS_7image_tE
qmapshack:_ZN11CGisItemWpt8drawItemER8QPainterRK6QRectFP8CGisDraw
qmapshack:_ZN11CGisItemWpt8drawItemER8QPainterRK9QPolygonFR5QListI6QRectFEP8CGisDraw
qmapshack:_ZN11CGisItemWpt8isWithinERK6QRectFj
qmapshack:_ZN11CGisItemWpt8setLinksERK5QListIN8IGisItem6link_tEE
qmapshack:_ZN11CGisItemWpt9drawLabelER8QPainterRK9QPolygonFR5QListI6QRectFERK13QFontMetricsFP8CGisDraw
qmapshack:_ZN11CGisItemWpt9isCloseToERK7QPointF
qmapshack:_ZN11CGisItemWpt9mouseMoveERK7QPointF
qmapshack:_ZN11CGisItemWpt9readGcExtERK8QDomNode
qmapshack:_ZN11CGisItemWpt9setImagesERK5QListINS_7image_tEE
qmapshack:_ZN11CGisItemWpt9setSymbolEv
qmapshack:_ZN11CGisItemWptC1ER10CFitStreamP11IGisProject
qmapshack:_ZN11CGisItemWptC1ERK7QPointFRK7QStringS5_P11IGisProject
qmapshack:_ZN11CGisItemWptC1ERK7QPointFRKS_P11IGisProject
qmapshack:_ZN11CGisItemWptC1ERK7QPointFdRK9QDateTimeRK7QStringS8_P11IGisProject
qmapshack:_ZN11CGisItemWptC1ERK8CQlgtWptP11IGisProject
qmapshack:_ZN11CGisItemWptC1ERK8QDomNodeP11IGisProject
qmapshack:_ZN11CGisItemWptC1ERKN14CTwoNavProject5wpt_tEP11IGisProject
qmapshack:_ZN11CGisItemWptC1ERKN8IGisItem9history_tERK7QStringP11IGisProject
qmapshack:_ZN11CGisItemWptC1ERKS_P11IGisProjectib
qmapshack:_ZN11CGisItemWptC1EyR12QSqlDatabaseP11IGisProject
qmapshack:_ZN11CGisItemWptC2ER10CFitStreamP11IGisProject
qmapshack:_ZN11CGisItemWptC2ERK7QPointFRK7QStringS5_P11IGisProject
qmapshack:_ZN11CGisItemWptC2ERK7QPointFRKS_P11IGisProject
qmapshack:_ZN11CGisItemWptC2ERK7QPointFdRK9QDateTimeRK7QStringS8_P11IGisProject
qmapshack:_ZN11CGisItemWptC2ERK8CQlgtWptP11IGisProject
qmapshack:_ZN11CGisItemWptC2ERK8QDomNodeP11IGisProject
qmapshack:_ZN11CGisItemWptC2ERKN14CTwoNavProject5wpt_tEP11IGisProject
qmapshack:_ZN11CGisItemWptC2ERKN8IGisItem9history_tERK7QStringP11IGisProject
qmapshack:_ZN11CGisItemWptC2ERKS_P11IGisProjectib
qmapshack:_ZN11CGisItemWptC2EyR12QSqlDatabaseP11IGisProject
qmapshack:_ZN11CGisItemWptD0Ev
qmapshack:_ZN11CGisItemWptD1Ev
qmapshack:_ZN11CGisItemWptD2Ev
qmapshack:_ZN11CGisItemWptlsER11QDataStream
qmapshack:_ZN11CGisListWks10addProjectEP11IGisProject
qmapshack:_ZN11CGisListWks10hasProjectEP11IGisProject
qmapshack:_ZN11CGisListWks10sigChangedEv
qmapshack:_ZN11CGisListWks10slotSymWptEv
qmapshack:_ZN11CGisListWks10slotSyncDBEv
qmapshack:_ZN11CGisListWks11qt_metacallEN11QMetaObject4CallEiPPv
qmapshack:_ZN11CGisListWks11qt_metacastEPKc
qmapshack:_ZN11CGisListWks11slotCalcRteEv
qmapshack:_ZN11CGisListWks11slotEditPrjEv
qmapshack:_ZN11CGisListWks11slotEditRteEv
qmapshack:_ZN11CGisListWks11slotEditTrkEv
qmapshack:_ZN11CGisListWks11slotMoveWptEv
qmapshack:_ZN11CGisListWks11slotProjWptEv
qmapshack:_ZN11CGisListWks11slotRte2TrkEv
qmapshack:_ZN11CGisListWks11slotTagItemEv
qmapshack:_ZN11CGisListWks11slotToRouteEv
qmapshack:_ZN11CGisListWks12removeDeviceERK7QString
qmapshack:_ZN11CGisListWks12showMenuItemERK6QPointRK5QListIN8IGisItem5key_tEES8_
qmapshack:_ZN11CGisListWks12slotColorTrkEv
qmapshack:_ZN11CGisListWks12slotCopyItemEv
qmapshack:_ZN11CGisListWks12slotEditAreaEv
qmapshack:_ZN11CGisListWks12slotEditItemEv
qmapshack:_ZN11CGisListWks12slotFocusRteEb
qmapshack:_ZN11CGisListWks12slotFocusTrkEb
qmapshack:_ZN11CGisListWks12slotNogoItemEv
qmapshack:_ZN11CGisListWks12slotRangeTrkEv
qmapshack:_ZN11CGisListWks12slotResetRteEv
qmapshack:_ZN11CGisListWks13addSortActionEP7QObjectP12QActionGroupRK7QStringS6_N11IGisProject16sorting_folder_eE
qmapshack:_ZN11CGisListWks13dragMoveEventEP14QDragMoveEvent
qmapshack:_ZN11CGisListWks13migrateDB1to2Ev
qmapshack:_ZN11CGisListWks13migrateDB2to3Ev
qmapshack:_ZN11CGisListWks13migrateDB3to4Ev
qmapshack:_ZN11CGisListWks13slotBubbleWptEv
qmapshack:_ZN11CGisListWks13slotEleWptTrkEv
qmapshack:_ZN11CGisListWks13slotGeoSearchEb
qmapshack:_ZN11CGisListWks13slotHideFrMapEv
qmapshack:_ZN11CGisListWks13slotNewDeviceEv
qmapshack:_ZN11CGisListWks13slotShowOnMapEv
qmapshack:_ZN11CGisListWks14getProjectByIdEyRK7QString
qmapshack:_ZN11CGisListWks14sigItemDeletedEv
qmapshack:_ZN11CGisListWks14slotCombineTrkEv
qmapshack:_ZN11CGisListWks14slotDeleteItemEv
qmapshack:_ZN11CGisListWks14slotEditPrxWptEv
qmapshack:_ZN11CGisListWks14slotReverseRteEv
qmapshack:_ZN11CGisListWks14slotReverseTrkEv
qmapshack:_ZN11CGisListWks14slotRteFromWptEv
qmapshack:_ZN11CGisListWks14slotSyncDevWksEv
qmapshack:_ZN11CGisListWks14slotSyncWksDevEv
qmapshack:_ZN11CGisListWks15getProjectByKeyERK7QString
qmapshack:_ZN11CGisListWks15setExternalMenuEP5QMenu
qmapshack:_ZN11CGisListWks15showMenuItemOvlERK6QPoint
qmapshack:_ZN11CGisListWks15showMenuItemRteERK6QPoint
qmapshack:_ZN11CGisListWks15showMenuItemTrkERK6QPointRKN8IGisItem5key_tE
qmapshack:_ZN11CGisListWks15showMenuItemWptERK6QPointP11CGisItemWpt
qmapshack:_ZN11CGisListWks15slotActivityTrkEN10CTrackData7trkpt_t7act20_eE
qmapshack:_ZN11CGisListWks15slotContextMenuERK6QPoint
qmapshack:_ZN11CGisListWks15slotCopyProjectEv
qmapshack:_ZN11CGisListWks15slotItemChangedEP15QTreeWidgetItemi
qmapshack:_ZN11CGisListWks15slotSaveProjectEv
qmapshack:_ZN11CGisListWks15slotSetSortModeEN11IGisProject16sorting_folder_eEb
qmapshack:_ZN11CGisListWks16slotCloseProjectEv
qmapshack:_ZN11CGisListWks16slotCopyCoordWptEv
qmapshack:_ZN11CGisListWks16slotDelRadiusWptEv
qmapshack:_ZN11CGisListWks16slotUserFocusPrjEb
qmapshack:_ZN11CGisListWks16staticMetaObjectE
qmapshack:_ZN11CGisListWks16syncPrjToDevicesEP11IGisProjectRK4QSetI7QStringE
qmapshack:_ZN11CGisListWks17slotDeleteProjectEv
qmapshack:_ZN11CGisListWks17slotEditRadiusWptEv
qmapshack:_ZN11CGisListWks17slotLoadWorkspaceEv
qmapshack:_ZN11CGisListWks17slotSaveAsProjectEv
qmapshack:_ZN11CGisListWks17slotSaveWorkspaceEv
qmapshack:_ZN11CGisListWks18setVisibilityOnMapEb
qmapshack:_ZN11CGisListWks18showMenuProjectDevERK6QPoint
qmapshack:_ZN11CGisListWks18showMenuProjectWksERK6QPoint
qmapshack:_ZN11CGisListWks18slotCopyTrkWithWptEv
qmapshack:_ZN11CGisListWks19slotAddEmptyProjectEv
qmapshack:_ZN11CGisListWks19slotAutoSaveProjectEb
qmapshack:_ZN11CGisListWks19slotAutoSyncProjectEb
qmapshack:_ZN11CGisListWks20showMenuProjectTrashERK6QPoint
qmapshack:_ZN11CGisListWks20slotAddProjectFilterEv
qmapshack:_ZN11CGisListWks20slotCloseAllProjectsEv
qmapshack:_ZN11CGisListWks20slotSyncPrjToDevicesEv
qmapshack:_ZN11CGisListWks21slotItemDoubleClickedEP15QTreeWidgetItemi
qmapshack:_ZN11CGisListWks28slotSaveAsStrictGpx11ProjectEv
qmapshack:_ZN11CGisListWks5eventEP6QEvent
qmapshack:_ZN11CGisListWks6initDBEv
qmapshack:_ZN11CGisListWks8configDBEv
qmapshack:_ZN11CGisListWks9dropEventEP10QDropEvent
qmapshack:_ZN11CGisListWks9migrateDBEi
qmapshack:_ZN11CGisListWksC1EP7QWidget
qmapshack:_ZN11CGisListWksC2EP7QWidget
qmapshack:_ZN11CGisListWksD0Ev
qmapshack:_ZN11CGisListWksD1Ev
qmapshack:_ZN11CGisListWksD2Ev
qmapshack:_ZN11CGisSummary11qt_metacallEN11QMetaObject4CallEiPPv
qmapshack:_ZN11CGisSummary11qt_metacastEPKc
qmapshack:_ZN11CGisSummary11slotStartupEv
qmapshack:_ZN11CGisSummary14setupDropZonesEv
qmapshack:_ZN11CGisSummary16staticMetaObjectE
qmapshack:_ZN11CGisSummary9slotSetupEv
qmapshack:_ZN11CGisSummaryC1EP7QWidget
qmapshack:_ZN11CGisSummaryC2EP7QWidget
qmapshack:_ZN11CGisSummaryD0Ev
qmapshack:_ZN11CGisSummaryD1Ev
qmapshack:_ZN11CGisSummaryD2Ev
qmapshack:_ZN11CGpxProject6saveAsERK7QStringR11IGisProjectb
qmapshack:_ZN11CGpxProject7loadGpxERK7QString
qmapshack:_ZN11CGpxProject7loadGpxERK7QStringPS_
qmapshack:_ZN11CGpxProjectC1ERK7QStringP11CGisListWks
qmapshack:_ZN11CGpxProjectC1ERK7QStringP7IDevice
qmapshack:_ZN11CGpxProjectC1ERK7QStringPK11IGisProjectP7IDevice
qmapshack:_ZN11CGpxProjectC2ERK7QStringP11CGisListWks
qmapshack:_ZN11CGpxProjectC2ERK7QStringP7IDevice
qmapshack:_ZN11CGpxProjectC2ERK7QStringPK11IGisProjectP7IDevice
qmapshack:_ZN11CGpxProjectD0Ev
qmapshack:_ZN11CGpxProjectD1Ev
qmapshack:_ZN11CGpxProjectD2Ev
qmapshack:_ZN11CHelpSearch10slotSearchEv
qmapshack:_ZN11CHelpSearch11qt_metacallEN11QMetaObject4CallEiPPv
qmapshack:_ZN11CHelpSearch11qt_metacastEPKc
qmapshack:_ZN11CHelpSearch16staticMetaObjectE
qmapshack:_ZN11CHelpSearchC1EP11QHelpEngineP7QWidget
qmapshack:_ZN11CHelpSearchC2EP11QHelpEngineP7QWidget
qmapshack:_ZN11CInvalidTrk11qt_metacallEN11QMetaObject4CallEiPPv
qmapshack:_ZN11CInvalidTrk11qt_metacastEPKc
qmapshack:_ZN11CInvalidTrk15slotShowDetailsEv
qmapshack:_ZN11CInvalidTrk16staticMetaObjectE
qmapshack:_ZN11CInvalidTrk17slotDoNotAskAgainEb
qmapshack:_ZN11CInvalidTrk6acceptEv
qmapshack:_ZN11CInvalidTrkC1ER11CGisItemTrkP7QWidget
qmapshack:_ZN11CInvalidTrkC2ER11CGisItemTrkP7QWidget
qmapshack:_ZN11CInvalidTrkD0Ev
qmapshack:_ZN11CInvalidTrkD1Ev
qmapshack:_ZN11CInvalidTrkD2Ev
qmapshack:_ZN11CListTrkPts10updateDataEv
qmapshack:_ZN11CListTrkPts11addTableRowEbRKN10CTrackData7trkpt_tEbR11QTextStream
qmapshack:_ZN11CListTrkPts11qt_metacallEN11QMetaObject4CallEiPPv
qmapshack:_ZN11CListTrkPts11qt_metacastEPKc
qmapshack:_ZN11CListTrkPts13setMouseFocusEPKN10CTrackData7trkpt_tE
qmapshack:_ZN11CListTrkPts13setMouseFocusEi
qmapshack:_ZN11CListTrkPts16staticMetaObjectE
qmapshack:_ZN11CListTrkPts18setMouseRangeFocusEPKN10CTrackData7trkpt_tES3_
qmapshack:_ZN11CListTrkPts8setTrackEP11CGisItemTrk
qmapshack:_ZN11CListTrkPtsC1EP7QWidget
qmapshack:_ZN11CListTrkPtsC2EP7QWidget
qmapshack:_ZN11CListTrkPtsD0Ev
qmapshack:_ZN11CListTrkPtsD1Ev
qmapshack:_ZN11CListTrkPtsD2Ev
qmapshack:_ZN11CLogHandler11logfileNameEv
qmapshack:_ZN11CLogHandler12appendToFileE9QtMsgType7QString
qmapshack:_ZN11CLogHandler14initLogHandlerE7QStringbb
qmapshack:_ZN11CLogHandler14printToConsoleE9QtMsgType7QString
qmapshack:_ZN11CLogHandler15printLoggerInfoEv
qmapshack:_ZN11CLogHandler3logE9QtMsgTypeRK18QMessageLogContextRK7QString
qmapshack:_ZN11CLogHandlerC1E7QStringbb
qmapshack:_ZN11CLogHandlerC2E7QStringbb
qmapshack:_ZN11CLogProject10extensionsE
qmapshack:_ZN11CLogProject7loadLogERK7QString
qmapshack:_ZN11CLogProject7loadLogERK7QStringPS_
qmapshack:_ZN11CLogProjectC1ERK7QStringP11CGisListWks
qmapshack:_ZN11CLogProjectC2ERK7QStringP11CGisListWks
qmapshack:_ZN11CMainWindow10addDemListEP8CDemListRK7QString
qmapshack:_ZN11CMainWindow10addMapListEP8CMapListRK7QString
qmapshack:_ZN11CMainWindow10addPoiListEP8CPoiListRK7QString
qmapshack:_ZN11CMainWindow10resetMouseEv
qmapshack:_ZN11CMainWindow11brouterPathE
qmapshack:_ZN11CMainWindow11eventFilterEP7QObjectP6QEvent
qmapshack:_ZN11CMainWindow11loadGISDataERK11QStringList
qmapshack:_ZN11CMainWindow11qt_metacallEN11QMetaObject4CallEiPPv
qmapshack:_ZN11CMainWindow11qt_metacastEPKc
qmapshack:_ZN11CMainWindow11routinoPathE
qmapshack:_ZN11CMainWindow12databasePathE
qmapshack:_ZN11CMainWindow12slotBuildVrtEv
qmapshack:_ZN11CMainWindow12slotCloseTabEv
qmapshack:_ZN11CMainWindow12slotLoadViewEv
qmapshack:_ZN11CMainWindow12slotPrintMapEv
qmapshack:_ZN11CMainWindow12zoomCanvasToE6QRectF
qmapshack:_ZN11CMainWindow13setupHomePathEv
qmapshack:_ZN11CMainWindow13slotAddCanvasERK7QString
qmapshack:_ZN11CMainWindow13slotSetupGridEv
qmapshack:_ZN11CMainWindow13slotStoreViewEv
qmapshack:_ZN11CMainWindow13testForNoViewEv
qmapshack:_ZN11CMainWindow14addWidgetToTabEP7QWidget
qmapshack:_ZN11CMainWindow14displayRegularEv
qmapshack:_ZN11CMainWindow14dragEnterEventEP15QDragEnterEvent
qmapshack:_ZN11CMainWindow14slotFullScreenEv
qmapshack:_ZN11CMainWindow14slotQuickstartEv
qmapshack:_ZN11CMainWindow14slotRenameViewEv
qmapshack:_ZN11CMainWindow14slotSanityTestEv
qmapshack:_ZN11CMainWindow14slotSetupUnitsEv
qmapshack:_ZN11CMainWindow15sigCanvasChangeEv
qmapshack:_ZN11CMainWindow15slotCloneCanvasEv
qmapshack:_ZN11CMainWindow15slotLoadGISDataEv
qmapshack:_ZN11CMainWindow15slotToggleDocksEv
qmapshack:_ZN11CMainWindow16slotDockFloatingEb
qmapshack:_ZN11CMainWindow16slotLinkMapViewsEb
qmapshack:_ZN11CMainWindow16slotSetupDemPathEv
qmapshack:_ZN11CMainWindow16slotSetupMapFontEv
qmapshack:_ZN11CMainWindow16slotSetupMapPathEv
qmapshack:_ZN11CMainWindow16slotSetupMapViewEv
qmapshack:_ZN11CMainWindow16slotSetupPoiPathEv
qmapshack:_ZN11CMainWindow16slotSetupToolbarEv
qmapshack:_ZN11CMainWindow16staticMetaObjectE
qmapshack:_ZN11CMainWindow17displayFullscreenEv
qmapshack:_ZN11CMainWindow17prepareMenuForMacEv
qmapshack:_ZN11CMainWindow17slotCurrentTabDemEi
qmapshack:_ZN11CMainWindow17slotLinkActivatedERK4QUrl
qmapshack:_ZN11CMainWindow17slotLinkActivatedERK7QString
qmapshack:_ZN11CMainWindow17slotMousePositionERK7QPointFdd
qmapshack:_ZN11CMainWindow17slotSetupTimeZoneEv
qmapshack:_ZN11CMainWindow17slotSetupWptIconsEv
qmapshack:_ZN11CMainWindow17slotStartQMapToolEv
qmapshack:_ZN11CMainWindow18slotCurrentTabMapsEi
qmapshack:_ZN11CMainWindow18slotImportDatabaseEv
qmapshack:_ZN11CMainWindow18slotMapMoveAndZoomEiRK7QPointF
qmapshack:_ZN11CMainWindow18slotSetProfileModeEb
qmapshack:_ZN11CMainWindow18slotSetupWorkspaceEv
qmapshack:_ZN11CMainWindow18slotTakeScreenshotEv
qmapshack:_ZN11CMainWindow19slotTabCloseRequestEi
qmapshack:_ZN11CMainWindow20slotCurrentTabCanvasEi
qmapshack:_ZN11CMainWindow20slotSetupCoordFormatEv
qmapshack:_ZN11CMainWindow20slotUpdateTabWidgetsEv
qmapshack:_ZN11CMainWindow22getBestWidgetForParentEv
qmapshack:_ZN11CMainWindow22slotSetupMapBackgroundEv
qmapshack:_ZN11CMainWindow25slotCreateRoutinoDatabaseEv
qmapshack:_ZN11CMainWindow25slotDockVisibilityChangedEb
qmapshack:_ZN11CMainWindow26slotGeoSearchConfigChangedEv
qmapshack:_ZN11CMainWindow5mutexE
qmapshack:_ZN11CMainWindow5pSelfE
qmapshack:_ZN11CMainWindow5pathsE
qmapshack:_ZN11CMainWindow7addViewERK7QString
qmapshack:_ZN11CMainWindow7demPathE
qmapshack:_ZN11CMainWindow7getUserEv
qmapshack:_ZN11CMainWindow7gpxPathE
qmapshack:_ZN11CMainWindow7homeDirE
qmapshack:_ZN11CMainWindow8mapsPathE
qmapshack:_ZN11CMainWindow8poisPathE
qmapshack:_ZN11CMainWindow8slotHelpEv
qmapshack:_ZN11CMainWindow8slotWikiEv
qmapshack:_ZN11CMainWindow9dropEventEP10QDropEvent
qmapshack:_ZN11CMainWindow9hideDocksEv
qmapshack:_ZN11CMainWindow9slotAboutEv
qmapshack:_ZN11CMainWindowC1Ev
qmapshack:_ZN11CMainWindowC2Ev
qmapshack:_ZN11CMainWindowD0Ev
qmapshack:_ZN11CMainWindowD1Ev
qmapshack:_ZN11CMainWindowD2Ev
qmapshack:_ZN11CMouseDummyC1Ev
qmapshack:_ZN11CMouseDummyC2Ev
qmapshack:_ZN11CMouseDummyD0Ev
qmapshack:_ZN11CMouseDummyD1Ev
qmapshack:_ZN11CMouseDummyD2Ev
qmapshack:_ZN11CMousePrint11qt_metacallEN11QMetaObject4CallEiPPv
qmapshack:_ZN11CMousePrint11qt_metacastEPKc
qmapshack:_ZN11CMousePrint16staticMetaObjectE
qmapshack:_ZN11CMousePrint8slotSaveEv
qmapshack:_ZN11CMousePrint9slotPrintEv
qmapshack:_ZN11CMousePrintC1EP8CGisDrawP7CCanvasP13CMouseAdapter
qmapshack:_ZN11CMousePrintC2EP8CGisDrawP7CCanvasP13CMouseAdapter
qmapshack:_ZN11CMousePrintD0Ev
qmapshack:_ZN11CMousePrintD1Ev
qmapshack:_ZN11CMousePrintD2Ev
qmapshack:_ZN11CMouseRuler10mouseMovedERK6QPoint
qmapshack:_ZN11CMouseRuler10slotToAreaEv
qmapshack:_ZN11CMouseRuler11leftClickedERK6QPoint
qmapshack:_ZN11CMouseRuler11qt_metacallEN11QMetaObject4CallEiPPv
qmapshack:_ZN11CMouseRuler11qt_metacastEPKc
qmapshack:_ZN11CMouseRuler12updateStatusERK9QPolygonF
qmapshack:_ZN11CMouseRuler14meter2whateverEdR7QStringS1_
qmapshack:_ZN11CMouseRuler14storeToHistoryERK9QPolygonF
qmapshack:_ZN11CMouseRuler15rightButtonDownERK6QPoint
qmapshack:_ZN11CMouseRuler16staticMetaObjectE
qmapshack:_ZN11CMouseRuler4drawER8QPainterN7CCanvas8redraw_eERK5QRect
qmapshack:_ZN11CMouseRuler8slotRedoEv
qmapshack:_ZN11CMouseRuler8slotUndoEv
qmapshack:_ZN11CMouseRuler9slotResetEv
qmapshack:_ZN11CMouseRuler9slotToRteEv
qmapshack:_ZN11CMouseRuler9slotToTrkEv
qmapshack:_ZN11CMouseRuler9slotToWptEv
qmapshack:_ZN11CMouseRulerC1EP8CGisDrawP7CCanvasP13CMouseAdapter
qmapshack:_ZN11CMouseRulerC2EP8CGisDrawP7CCanvasP13CMouseAdapter
qmapshack:_ZN11CMouseRulerD0Ev
qmapshack:_ZN11CMouseRulerD1Ev
qmapshack:_ZN11CMouseRulerD2Ev
qmapshack:_ZN11CPhotoAlbum10sigChangedERK5QListIN11CGisItemWpt7image_tEE
qmapshack:_ZN11CPhotoAlbum10updateViewEv
qmapshack:_ZN11CPhotoAlbum11qt_metacallEN11QMetaObject4CallEiPPv
qmapshack:_ZN11CPhotoAlbum11qt_metacastEPKc
qmapshack:_ZN11CPhotoAlbum11resizeEventEP12QResizeEvent
qmapshack:_ZN11CPhotoAlbum12slotAddImageEv
qmapshack:_ZN11CPhotoAlbum12slotDelImageEv
qmapshack:_ZN11CPhotoAlbum16staticMetaObjectE
qmapshack:_ZN11CPhotoAlbum17mouseReleaseEventEP11QMouseEvent
qmapshack:_ZN11CPhotoAlbum6reloadERK5QListIN11CGisItemWpt7image_tEE
qmapshack:_ZN11CPhotoAlbum8slotLeftEv
qmapshack:_ZN11CPhotoAlbum9slotRightEv
qmapshack:_ZN11CPhotoAlbumC1EP7QWidget
qmapshack:_ZN11CPhotoAlbumC2EP7QWidget
qmapshack:_ZN11CPhotoAlbumD0Ev
qmapshack:_ZN11CPhotoAlbumD1Ev
qmapshack:_ZN11CPhotoAlbumD2Ev
qmapshack:_ZN11CPoiFilePOI10findPoisInERK6QRectFR4QSetI8IPoiItemER5QListI7QPointFE
qmapshack:_ZN11CPoiFilePOI10getPoiIconER7QPixmapRK11CPoiItemPOIRK7QString
qmapshack:_ZN11CPoiFilePOI10getPoiIconER7QPixmapRKNS_10poiGroup_tE
qmapshack:_ZN11CPoiFilePOI10initTagMapEv
qmapshack:_ZN11CPoiFilePOI16loadPOIsFromFileEyii
qmapshack:_ZN11CPoiFilePOI18addTreeWidgetItemsEP11QTreeWidget
qmapshack:_ZN11CPoiFilePOI23slotCheckedStateChangedEP15QTreeWidgetItem
qmapshack:_ZN11CPoiFilePOI4drawERN12IDrawContext8buffer_tE
qmapshack:_ZN11CPoiFilePOI6tagMapE
qmapshack:_ZN11CPoiFilePOIC1ERK7QStringP8CPoiDraw
qmapshack:_ZN11CPoiFilePOIC2ERK7QStringP8CPoiDraw
qmapshack:_ZN11CPoiItemPOIC1ERK11QStringListRK7QPointFRKyRK7QStringSA_
qmapshack:_ZN11CPoiItemPOIC2ERK11QStringListRK7QPointFRKyRK7QStringSA_
qmapshack:_ZN11CProjWizard10slotChangeEv
qmapshack:_ZN11CProjWizard11qt_metacallEN11QMetaObject4CallEiPPv
qmapshack:_ZN11CProjWizard11qt_metacastEPKc
qmapshack:_ZN11CProjWizard12validProjStrE7QStringb
qmapshack:_ZN11CProjWizard16staticMetaObjectE
qmapshack:_ZN11CProjWizard6acceptEv
qmapshack:_ZN11CProjWizard9findDatumERK7QString
qmapshack:_ZN11CProjWizardC1ER9QLineEdit
qmapshack:_ZN11CProjWizardC2ER9QLineEdit
qmapshack:_ZN11CProjWizardD0Ev
qmapshack:_ZN11CProjWizardD1Ev
qmapshack:_ZN11CProjWizardD2Ev
qmapshack:_ZN11CQlbProject4loadERK7QString
qmapshack:_ZN11CQlbProject8loadOvlsER10QByteArray
qmapshack:_ZN11CQlbProject8loadRtesER10QByteArray
qmapshack:_ZN11CQlbProject8loadTrksER10QByteArray
qmapshack:_ZN11CQlbProject8loadWptsER10QByteArray
qmapshack:_ZN11CQlbProjectC1ERK7QStringP11CGisListWks
qmapshack:_ZN11CQlbProjectC2ERK7QStringP11CGisListWks
qmapshack:_ZN11CQlgtFolderC1EyR12QSqlDatabase
qmapshack:_ZN11CQlgtFolderC2EyR12QSqlDatabase
qmapshack:_ZN11CQlgtFolderD0Ev
qmapshack:_ZN11CQlgtFolderD1Ev
qmapshack:_ZN11CQlgtFolderD2Ev
qmapshack:_ZN11CQmsProject6saveAsERK7QStringR11IGisProject
qmapshack:_ZN11CQmsProjectC1ERK7QStringP11CGisListWks
qmapshack:_ZN11CQmsProjectC2ERK7QStringP11CGisListWks
qmapshack:_ZN11CScaleLabel10paintEventEP11QPaintEvent
qmapshack:_ZN11CScaleLabel11qt_metacallEN11QMetaObject4CallEiPPv
qmapshack:_ZN11CScaleLabel11qt_metacastEPKc
qmapshack:_ZN11CScaleLabel16staticMetaObjectE
qmapshack:_ZN11CScaleLabel8setValueEddd
qmapshack:_ZN11CScaleLabelC1EP7QWidget
qmapshack:_ZN11CScaleLabelC2EP7QWidget
qmapshack:_ZN11CSelDevices11qt_metacallEN11QMetaObject4CallEiPPv
qmapshack:_ZN11CSelDevices11qt_metacastEPKc
qmapshack:_ZN11CSelDevices16staticMetaObjectE
qmapshack:_ZN11CSelDevices17getSlectedDevicesER4QSetI7QStringE
qmapshack:_ZN11CSelDevicesC1EP11IGisProjectP11QTreeWidget
qmapshack:_ZN11CSelDevicesC2EP11IGisProjectP11QTreeWidget
qmapshack:_ZN11CSelDevicesD0Ev
qmapshack:_ZN11CSelDevicesD1Ev
qmapshack:_ZN11CSelDevicesD2Ev
qmapshack:_ZN11CSlfProjectC1ERK7QStringb
qmapshack:_ZN11CSlfProjectC2ERK7QStringb
qmapshack:_ZN11CSmlProject10extensionsE
qmapshack:_ZN11CSmlProject7loadSmlERK7QString
qmapshack:_ZN11CSmlProject7loadSmlERK7QStringPS_
qmapshack:_ZN11CSmlProjectC1ERK7QStringP11CGisListWks
qmapshack:_ZN11CSmlProjectC2ERK7QStringP11CGisListWks
qmapshack:_ZN11CTcxProject10loadCourseERK8QDomNode
qmapshack:_ZN11CTcxProject10saveAuthorER8QDomNode
qmapshack:_ZN11CTcxProject12loadActivityERK8QDomNode
qmapshack:_ZN11CTcxProject5setupEv
qmapshack:_ZN11CTcxProject6saveAsERK7QStringR11IGisProject
qmapshack:_ZN11CTcxProject7loadTcxERK7QString
qmapshack:_ZN11CTcxProject7loadTcxERK7QStringPS_
qmapshack:_ZN11CTcxProjectC1ERK7QStringP11CGisListWks
qmapshack:_ZN11CTcxProjectC1ERK7QStringP7IDevice
qmapshack:_ZN11CTcxProjectC1ERK7QStringPK11IGisProjectP7IDevice
qmapshack:_ZN11CTcxProjectC2ERK7QStringP11CGisListWks
qmapshack:_ZN11CTcxProjectC2ERK7QStringP7IDevice
qmapshack:_ZN11CTcxProjectC2ERK7QStringPK11IGisProjectP7IDevice
qmapshack:_ZN11CTimeDialog11qt_metacallEN11QMetaObject4CallEiPPv
qmapshack:_ZN11CTimeDialog11qt_metacastEPKc
qmapshack:_ZN11CTimeDialog16staticMetaObjectE
qmapshack:_ZN11CTimeDialog6acceptEv
qmapshack:_ZN11CTimeDialogC1EP7QWidgetRK9QDateTime
qmapshack:_ZN11CTimeDialogC2EP7QWidgetRK9QDateTime
qmapshack:_ZN11CUnitMetricC1EP7QObject
qmapshack:_ZN11CUnitMetricC2EP7QObject
qmapshack:_ZN11CUnitNauticC1EP7QObject
qmapshack:_ZN11CUnitNauticC2EP7QObject
qmapshack:_ZN11CUnitsSetup6acceptEv
qmapshack:_ZN11CUnitsSetupC1EP7QWidget
qmapshack:_ZN11CUnitsSetupC2EP7QWidget
qmapshack:_ZN11IDrawObject10loadConfigER9QSettings
qmapshack:_ZN11IDrawObject10saveConfigER9QSettings
qmapshack:_ZN11IDrawObject11qt_metacallEN11QMetaObject4CallEiPPv
qmapshack:_ZN11IDrawObject11qt_metacastEPKc
qmapshack:_ZN11IDrawObject11setMaxScaleEd
qmapshack:_ZN11IDrawObject11setMinScaleEd
qmapshack:_ZN11IDrawObject16staticMetaObjectE
qmapshack:_ZN11IDrawObject20sigPropertiesChangedEv
qmapshack:_ZN11IDrawObject9getLayersER11QListWidget
qmapshack:_ZN11IDrawObjectC1EP7QObject
qmapshack:_ZN11IDrawObjectC2EP7QObject
qmapshack:_ZN11IDrawObjectD0Ev
qmapshack:_ZN11IDrawObjectD1Ev
qmapshack:_ZN11IDrawObjectD2Ev
qmapshack:_ZN11IGisProject10gpxdata_nsE
qmapshack:_ZN11IGisProject10setChangedEv
qmapshack:_ZN11IGisProject11markAsSavedEv
qmapshack:_ZN11IGisProject11setAutoSaveEb
qmapshack:_ZN11IGisProject11setKeywordsERK7QString
qmapshack:_ZN11IGisProject11updateItemsEv
qmapshack:_ZN11IGisProject12applyFiltersEv
qmapshack:_ZN11IGisProject12delItemByKeyERKN8IGisItem5key_tER6QFlagsIN11QMessageBox14StandardButtonEE
qmapshack:_ZN11IGisProject12getItemByKeyERKN8IGisItem5key_tE
qmapshack:_ZN11IGisProject12keyUserFocusE
qmapshack:_ZN11IGisProject12readMetadataERK8QDomNodeRNS_10metadata_tE
qmapshack:_ZN11IGisProject13askBeforCloseEv
qmapshack:_ZN11IGisProject13editItemByKeyERKN8IGisItem5key_tE
qmapshack:_ZN11IGisProject13filterProjectEb
qmapshack:_ZN11IGisProject13gainUserFocusEb
qmapshack:_ZN11IGisProject13getItemsByPosERK7QPointFR5QListIP8IGisItemE
qmapshack:_ZN11IGisProject13writeMetadataER12QDomDocumentb
qmapshack:_ZN11IGisProject14getItemsByAreaERK6QRectFjR5QListIP8IGisItemE
qmapshack:_ZN11IGisProject14getItemsByKeysERK5QListIN8IGisItem5key_tEERS0_IPS1_E
qmapshack:_ZN11IGisProject14setDescriptionERK7QString
qmapshack:_ZN11IGisProject16blockUpdateItemsEb
qmapshack:_ZN11IGisProject16insertCopyOfItemEP8IGisItemiRN17CSelectCopyAction8result_eE
qmapshack:_ZN11IGisProject16setProjectFilterERK7CSearch
qmapshack:_ZN11IGisProject16setSortingFolderENS_16sorting_folder_eE
qmapshack:_ZN11IGisProject16updateDecorationEb
qmapshack:_ZN11IGisProject16updateDecorationEv
qmapshack:_ZN11IGisProject17saveAsStrictGpx11Ev
qmapshack:_ZN11IGisProject18setSortingRoadbookENS_18sorting_roadbook_eE
qmapshack:_ZN11IGisProject18setWorkspaceFilterERK7CSearch
qmapshack:_ZN11IGisProject18updateItemCountersEv
qmapshack:_ZN11IGisProject19filedialogFilterFITE
qmapshack:_ZN11IGisProject19filedialogFilterGPXE
qmapshack:_ZN11IGisProject19filedialogFilterLOGE
qmapshack:_ZN11IGisProject19filedialogFilterQLBE
qmapshack:_ZN11IGisProject19filedialogFilterQMSE
qmapshack:_ZN11IGisProject19filedialogFilterSLFE
qmapshack:_ZN11IGisProject19filedialogFilterSMLE
qmapshack:_ZN11IGisProject19filedialogFilterTCXE
qmapshack:_ZN11IGisProject19findPolylineCloseByERK7QPointFS2_RiR9QPolygonF
qmapshack:_ZN11IGisProject19setAutoSyncToDeviceEb
qmapshack:_ZN11IGisProject19switchOnCorrelationEv
qmapshack:_ZN11IGisProject21filedialogLoadFiltersE
qmapshack:_ZN11IGisProject21filedialogSaveFiltersE
qmapshack:_ZN11IGisProject22filedialogAllSupportedE
qmapshack:_ZN11IGisProject4editEv
qmapshack:_ZN11IGisProject4saveEv
qmapshack:_ZN11IGisProject5gs_nsE
qmapshack:_ZN11IGisProject5mountEv
qmapshack:_ZN11IGisProject5ql_nsE
qmapshack:_ZN11IGisProject6createE7QStringP11CGisListWks
qmapshack:_ZN11IGisProject6gpx_nsE
qmapshack:_ZN11IGisProject6removeEv
qmapshack:_ZN11IGisProject6rmc_nsE
qmapshack:_ZN11IGisProject6saveAsE7QStringS0_
qmapshack:_ZN11IGisProject6tp1_nsE
qmapshack:_ZN11IGisProject6umountEv
qmapshack:_ZN11IGisProject6xsi_nsE
qmapshack:_ZN11IGisProject7gpxx_nsE
qmapshack:_ZN11IGisProject7setNameERK7QString
qmapshack:_ZN11IGisProject8drawItemER8QPainterRK6QRectFP8CGisDraw
qmapshack:_ZN11IGisProject8drawItemER8QPainterRK9QPolygonFR5QListI6QRectFEP8CGisDraw
qmapshack:_ZN11IGisProject8html2DevERK7QString
qmapshack:_ZN11IGisProject8setLinksERK5QListIN8IGisItem6link_tEE
qmapshack:_ZN11IGisProject8wptx1_nsE
qmapshack:_ZN11IGisProject9drawLabelER8QPainterRK9QPolygonFR5QListI6QRectFERK13QFontMetricsFP8CGisDraw
qmapshack:_ZN11IGisProject9gpxtpx_nsE
qmapshack:_ZN11IGisProject9mouseMoveERK7QPointF
qmapshack:_ZN11IGisProject9setupNameERK7QString
qmapshack:_ZN11IGisProject9sortItemsEv
qmapshack:_ZN11IGisProjectC1ENS_6type_eERK7QStringP11CGisListWks
qmapshack:_ZN11IGisProjectC1ENS_6type_eERK7QStringP7IDevice
qmapshack:_ZN11IGisProjectC2ENS_6type_eERK7QStringP11CGisListWks
qmapshack:_ZN11IGisProjectC2ENS_6type_eERK7QStringP7IDevice
qmapshack:_ZN11IGisProjectD0Ev
qmapshack:_ZN11IGisProjectD1Ev
qmapshack:_ZN11IGisProjectD2Ev
qmapshack:_ZN11IGisProjectlsER11QDataStream
qmapshack:_ZN12CActivityTrk11updateFlagsEv
qmapshack:_ZN12CActivityTrk12printSummaryERK4QMapIN10CTrackData7trkpt_t7act20_eENS_9summary_tEERK4QSetIS3_ER7QString
qmapshack:_ZN12CActivityTrk13actDescriptorE
qmapshack:_ZN12CActivityTrk13getDescriptorEN10CTrackData7trkpt_t7act20_eE
qmapshack:_ZN12CActivityTrk4initEv
qmapshack:_ZN12CActivityTrk6updateEv
qmapshack:_ZN12CActivityTrk7getMenuERK5QListIN8IGisItem5key_tEEP7QWidgetb
qmapshack:_ZN12CActivityTrk7getMenuERKN8IGisItem5key_tEP7QWidgetb
qmapshack:_ZN12CActivityTrk7releaseEv
qmapshack:_ZN12CActivityTrk8setColorEN10CTrackData7trkpt_t7act20_eERKN8IGisItem7color_tE
qmapshack:_ZN12CActivityTrk9dummyDescE
qmapshack:_ZN12CActivityTrkC1EP11CGisItemTrk
qmapshack:_ZN12CActivityTrkC2EP11CGisItemTrk
qmapshack:_ZN12CAppSetupMac10extendPathEv
qmapshack:_ZN12CAppSetupMac10relGdalDirE
qmapshack:_ZN12CAppSetupMac10relHelpDirE
qmapshack:_ZN12CAppSetupMac10relProjDirE
qmapshack:_ZN12CAppSetupMac11routinoPathE7QString
qmapshack:_ZN12CAppSetupMac12userDataPathE7QString
qmapshack:_ZN12CAppSetupMac13initQMapShackEv
qmapshack:_ZN12CAppSetupMac13relRoutinoDirE
qmapshack:_ZN12CAppSetupMac16defaultCachePathEv
qmapshack:_ZN12CAppSetupMac17getApplicationDirE7QString
qmapshack:_ZN12CAppSetupMac17migrateDirContentE7QString
qmapshack:_ZN12CAppSetupMac17relTranslationDirE
qmapshack:_ZN12CAppSetupMac6logDirEv
qmapshack:_ZN12CAppSetupMac8helpFileEv
qmapshack:_ZN12CAppSetupMac9relBinDirE
qmapshack:_ZN12CAppSetupMac9relLogDirE
qmapshack:_ZN12CAppSetupWin11routinoPathE7QString
qmapshack:_ZN12CAppSetupWin12userDataPathE7QString
qmapshack:_ZN12CAppSetupWin13initQMapShackEv
qmapshack:_ZN12CAppSetupWin14findExecutableERK7QString
qmapshack:_ZN12CAppSetupWin16defaultCachePathEv
qmapshack:_ZN12CAppSetupWin6logDirEv
qmapshack:_ZN12CAppSetupWin8helpFileEv
qmapshack:_ZN12CCanvasSetup11qt_metacallEN11QMetaObject4CallEiPPv
qmapshack:_ZN12CCanvasSetup11qt_metacastEPKc
qmapshack:_ZN12CCanvasSetup14slotProjWizardEv
qmapshack:_ZN12CCanvasSetup16staticMetaObjectE
qmapshack:_ZN12CCanvasSetup6acceptEv
qmapshack:_ZN12CCanvasSetupC1EP7CCanvas
qmapshack:_ZN12CCanvasSetupC2EP7CCanvas
qmapshack:_ZN12CCanvasSetupD0Ev
qmapshack:_ZN12CCanvasSetupD1Ev
qmapshack:_ZN12CCanvasSetupD2Ev
qmapshack:_ZN12CColorLegend10paintEventEP11QPaintEvent
qmapshack:_ZN12CColorLegend10paintLabelER8QPainterd
qmapshack:_ZN12CColorLegend10setMaximumEd
qmapshack:_ZN12CColorLegend10setMinimumEd
qmapshack:_ZN12CColorLegend10updateDataEv
qmapshack:_ZN12CColorLegend11qt_metacallEN11QMetaObject4CallEiPPv
qmapshack:_ZN12CColorLegend11qt_metacastEPKc
qmapshack:_ZN12CColorLegend11resizeEventEP12QResizeEvent
qmapshack:_ZN12CColorLegend13setMouseFocusEPKN10CTrackData7trkpt_tE
qmapshack:_ZN12CColorLegend16staticMetaObjectE
qmapshack:_ZN12CColorLegend7setUnitERK7QString
qmapshack:_ZN12CColorLegendC1EP7QWidgetP11CGisItemTrk
qmapshack:_ZN12CColorLegendC2EP7QWidgetP11CGisItemTrk
qmapshack:_ZN12CColorLegendD0Ev
qmapshack:_ZN12CColorLegendD1Ev
qmapshack:_ZN12CColorLegendD2Ev
qmapshack:_ZN12CFilterReset11qt_metacallEN11QMetaObject4CallEiPPv
qmapshack:_ZN12CFilterReset11qt_metacastEPKc
qmapshack:_ZN12CFilterReset16staticMetaObjectE
qmapshack:_ZN12CFilterReset9slotApplyEv
qmapshack:_ZN12CFilterResetC1ER11CGisItemTrkP7QWidget
qmapshack:_ZN12CFilterResetC2ER11CGisItemTrkP7QWidget
qmapshack:_ZN12CFilterSpeed11qt_metacallEN11QMetaObject4CallEiPPv
qmapshack:_ZN12CFilterSpeed11qt_metacastEPKc
qmapshack:_ZN12CFilterSpeed16staticMetaObjectE
qmapshack:_ZN12CFilterSpeed19slotSetActivityTypeEi
qmapshack:_ZN12CFilterSpeed8updateUiEv
qmapshack:_ZN12CFilterSpeed9slotApplyEv
qmapshack:_ZN12CFilterSpeedC1ER11CGisItemTrkP7QWidget
qmapshack:_ZN12CFilterSpeedC2ER11CGisItemTrkP7QWidget
qmapshack:_ZN12CFilterSpeedD0Ev
qmapshack:_ZN12CFilterSpeedD1Ev
qmapshack:_ZN12CFilterSpeedD2Ev
qmapshack:_ZN12CFitBaseTypeC1E18fit_base_type_nr_e7QStringhSt16initializer_listIhE
qmapshack:_ZN12CFitBaseTypeC1Ev
qmapshack:_ZN12CFitBaseTypeC2E18fit_base_type_nr_e7QStringhSt16initializer_listIhE
qmapshack:_ZN12CFitBaseTypeC2Ev
qmapshack:_ZN12CFitCrcState5resetEv
qmapshack:_ZN12CFitCrcState7processERh
qmapshack:_ZN12CGarminPoint6decodeEiijPKh
qmapshack:_ZN12CGarminPoint7decode2EiijPKhS1_
qmapshack:_ZN12CGisDatabase11qt_metacallEN11QMetaObject4CallEiPPv
qmapshack:_ZN12CGisDatabase11qt_metacastEPKc
qmapshack:_ZN12CGisDatabase12slotHelpTextEv
qmapshack:_ZN12CGisDatabase14createDatabaseEv
qmapshack:_ZN12CGisDatabase14postEventForDbEP6QEvent
qmapshack:_ZN12CGisDatabase14sendEventForDbEP6QEvent
qmapshack:_ZN12CGisDatabase16staticMetaObjectE
qmapshack:_ZN12CGisDatabase5pSelfE
qmapshack:_ZN12CGisDatabaseC1EP7QWidget
qmapshack:_ZN12CGisDatabaseC2EP7QWidget
qmapshack:_ZN12CGisDatabaseD0Ev
qmapshack:_ZN12CGisDatabaseD1Ev
qmapshack:_ZN12CGisDatabaseD2Ev
qmapshack:_ZN12CGisItemRate11qt_metacallEN11QMetaObject4CallEiPPv
qmapshack:_ZN12CGisItemRate11qt_metacastEPKc
qmapshack:_ZN12CGisItemRate11updateStarsEv
qmapshack:_ZN12CGisItemRate16getRatingChangedEv
qmapshack:_ZN12CGisItemRate16staticMetaObjectE
qmapshack:_ZN12CGisItemRate18ratingLabelClickedEi
qmapshack:_ZN12CGisItemRate9getRatingEv
qmapshack:_ZN12CGisItemRateC1EP7QWidgetRK4QSetI7QStringEd
qmapshack:_ZN12CGisItemRateC2EP7QWidgetRK4QSetI7QStringEd
qmapshack:_ZN12CGisItemRateD0Ev
qmapshack:_ZN12CGisItemRateD1Ev
qmapshack:_ZN12CGisItemRateD2Ev
qmapshack:_ZN12CHelpBrowser11qt_metacallEN11QMetaObject4CallEiPPv
qmapshack:_ZN12CHelpBrowser11qt_metacastEPKc
qmapshack:_ZN12CHelpBrowser12loadResourceEiRK4QUrl
qmapshack:_ZN12CHelpBrowser16staticMetaObjectE
qmapshack:_ZN12CHelpBrowser9setSourceERK4QUrl
qmapshack:_ZN12CHelpBrowserC1EP11QHelpEngineP7QWidget
qmapshack:_ZN12CHelpBrowserC2EP11QHelpEngineP7QWidget
qmapshack:_ZN12CInputDialog11qt_metacallEN11QMetaObject4CallEiPPv
qmapshack:_ZN12CInputDialog11qt_metacastEPKc
qmapshack:_ZN12CInputDialog16staticMetaObjectE
qmapshack:_ZN12CInputDialog6acceptEv
qmapshack:_ZN12CInputDialog9setOptionERK7QStringb
qmapshack:_ZN12CInputDialog9slotResetEv
qmapshack:_ZN12CInputDialogC1EP7QWidgetRK7QStringR8QVariantRKS5_S4_
qmapshack:_ZN12CInputDialogC2EP7QWidgetRK7QStringR8QVariantRKS5_S4_
qmapshack:_ZN12CInputDialogD0Ev
qmapshack:_ZN12CInputDialogD1Ev
qmapshack:_ZN12CInputDialogD2Ev
qmapshack:_ZN12CLinksDialog11qt_metacallEN11QMetaObject4CallEiPPv
qmapshack:_ZN12CLinksDialog11qt_metacastEPKc
qmapshack:_ZN12CLinksDialog11slotAddLinkEv
qmapshack:_ZN12CLinksDialog11slotDelLinkEv
qmapshack:_ZN12CLinksDialog16staticMetaObjectE
qmapshack:_ZN12CLinksDialog24slotItemSelectionChangedEv
qmapshack:_ZN12CLinksDialog6acceptEv
qmapshack:_ZN12CLinksDialogC1ER5QListIN8IGisItem6link_tEEP7QWidget
qmapshack:_ZN12CLinksDialogC2ER5QListIN8IGisItem6link_tEEP7QWidget
qmapshack:_ZN12CLinksDialogD0Ev
qmapshack:_ZN12CLinksDialogD1Ev
qmapshack:_ZN12CLinksDialogD2Ev
qmapshack:_ZN12CMouseNormal10mouseMovedERK6QPoint
qmapshack:_ZN12CMouseNormal10resetStateEv
qmapshack:_ZN12CMouseNormal11leftClickedERK6QPoint
qmapshack:_ZN12CMouseNormal11qt_metacallEN11QMetaObject4CallEiPPv
qmapshack:_ZN12CMouseNormal11qt_metacastEPKc
qmapshack:_ZN12CMouseNormal12mouseDraggedERK6QPointS2_S2_
qmapshack:_ZN12CMouseNormal12scaleChangedEv
qmapshack:_ZN12CMouseNormal12scrollToItemEP8IGisItem
qmapshack:_ZN12CMouseNormal13doubleClickedERK6QPoint
qmapshack:_ZN12CMouseNormal15rightButtonDownERK6QPoint
qmapshack:_ZN12CMouseNormal15setScreenOptionERK6QPointP8IGisItem
qmapshack:_ZN12CMouseNormal15showContextMenuERK6QPoint
qmapshack:_ZN12CMouseNormal16staticMetaObjectE
qmapshack:_ZN12CMouseNormal4drawER8QPainterN7CCanvas8redraw_eERK5QRect
qmapshack:_ZN12CMouseNormal7unfocusEv
qmapshack:_ZN12CMouseNormal9longPressERK6QPoint
qmapshack:_ZN12CMouseNormalC1EP8CGisDrawP7CCanvasP13CMouseAdapter
qmapshack:_ZN12CMouseNormalC2EP8CGisDrawP7CCanvasP13CMouseAdapter
qmapshack:_ZN12CMouseNormalD0Ev
qmapshack:_ZN12CMouseNormalD1Ev
qmapshack:_ZN12CMouseNormalD2Ev
qmapshack:_ZN12CMouseSelect10slotUpdateEv
qmapshack:_ZN12CMouseSelect11qt_metacallEN11QMetaObject4CallEiPPv
qmapshack:_ZN12CMouseSelect11qt_metacastEPKc
qmapshack:_ZN12CMouseSelect16staticMetaObjectE
qmapshack:_ZN12CMouseSelect4drawER8QPainterN7CCanvas8redraw_eERK5QRect
qmapshack:_ZN12CMouseSelect5mutexE
qmapshack:_ZN12CMouseSelect9findItemsER5QListIP8IGisItemE
qmapshack:_ZN12CMouseSelectC1EP8CGisDrawP7CCanvasP13CMouseAdapter
qmapshack:_ZN12CMouseSelectC2EP8CGisDrawP7CCanvasP13CMouseAdapter
qmapshack:_ZN12CMouseSelectD0Ev
qmapshack:_ZN12CMouseSelectD1Ev
qmapshack:_ZN12CMouseSelectD2Ev
qmapshack:_ZN12CPhotoViewer10paintEventEP11QPaintEvent
qmapshack:_ZN12CPhotoViewer10tryIdxStepEi
qmapshack:_ZN12CPhotoViewer11qt_metacallEN11QMetaObject4CallEiPPv
qmapshack:_ZN12CPhotoViewer11qt_metacastEPKc
qmapshack:_ZN12CPhotoViewer11resizeEventEP12QResizeEvent
qmapshack:_ZN12CPhotoViewer13keyPressEventEP9QKeyEvent
qmapshack:_ZN12CPhotoViewer13setImageAtIdxEi
qmapshack:_ZN12CPhotoViewer15mousePressEventEP11QMouseEvent
qmapshack:_ZN12CPhotoViewer16staticMetaObjectE
qmapshack:_ZN12CPhotoViewerC1ER5QListIN11CGisItemWpt7image_tEEiP7QWidget
qmapshack:_ZN12CPhotoViewerC2ER5QListIN11CGisItemWpt7image_tEEiP7QWidget
qmapshack:_ZN12CPhotoViewerD0Ev
qmapshack:_ZN12CPhotoViewerD1Ev
qmapshack:_ZN12CPhotoViewerD2Ev
qmapshack:_ZN12CPlotProfile10updateDataEv
qmapshack:_ZN12CPlotProfile11qt_metacallEN11QMetaObject4CallEiPPv
qmapshack:_ZN12CPlotProfile11qt_metacastEPKc
qmapshack:_ZN12CPlotProfile13setMouseFocusEPKN10CTrackData7trkpt_tE
qmapshack:_ZN12CPlotProfile16staticMetaObjectE
qmapshack:_ZN12CPlotProfile19slotToggleWptLabelsEb
qmapshack:_ZN12CPlotProfile4initEv
qmapshack:_ZN12CPlotProfile8setTrackEP11CGisItemTrkR6CLimit
qmapshack:_ZN12CPlotProfile9setLimitsEv
qmapshack:_ZN12CPlotProfileC1EP11CGisItemTrkR6CLimitN5IPlot6mode_eEP7QWidget
qmapshack:_ZN12CPlotProfileC1EP7QWidget
qmapshack:_ZN12CPlotProfileC2EP11CGisItemTrkR6CLimitN5IPlot6mode_eEP7QWidget
qmapshack:_ZN12CPlotProfileC2EP7QWidget
qmapshack:_ZN12CPlotProfileD0Ev
qmapshack:_ZN12CPlotProfileD1Ev
qmapshack:_ZN12CPlotProfileD2Ev
qmapshack:_ZN12CPoiCategoryC1ERK7QStringyN2Qt10CheckStateEPS_
qmapshack:_ZN12CPoiCategoryC1ERK7QStringyP11QTreeWidget
qmapshack:_ZN12CPoiCategoryC2ERK7QStringyN2Qt10CheckStateEPS_
qmapshack:_ZN12CPoiCategoryC2ERK7QStringyP11QTreeWidget
qmapshack:_ZN12CPoiFileItem10deactivateEv
qmapshack:_ZN12CPoiFileItem10loadConfigER9QSettings
qmapshack:_ZN12CPoiFileItem10saveConfigER9QSettings
qmapshack:_ZN12CPoiFileItem10updateIconEv
qmapshack:_ZN12CPoiFileItem11isActivatedEv
qmapshack:_ZN12CPoiFileItem12moveToBottomEv
qmapshack:_ZN12CPoiFileItem12showChildrenEb
qmapshack:_ZN12CPoiFileItem14toggleActivateEv
qmapshack:_ZN12CPoiFileItem15mutexActivePoisE
qmapshack:_ZN12CPoiFileItem8activateEv
qmapshack:_ZN12CPoiFileItem9moveToTopEv
qmapshack:_ZN12CPoiFileItemC1EP11QTreeWidgetP8CPoiDraw
qmapshack:_ZN12CPoiFileItemC2EP11QTreeWidgetP8CPoiDraw
qmapshack:_ZN12CPrintDialog11qt_metacallEN11QMetaObject4CallEiPPv
qmapshack:_ZN12CPrintDialog11qt_metacastEPKc
qmapshack:_ZN12CPrintDialog11resizeEventEP12QResizeEvent
qmapshack:_ZN12CPrintDialog14slotGetPrinterEv
qmapshack:_ZN12CPrintDialog16staticMetaObjectE
qmapshack:_ZN12CPrintDialog17slotUpdateMetricsEv
qmapshack:_ZN12CPrintDialog21slotScaleOnAllChangedEb
qmapshack:_ZN12CPrintDialog8slotSaveEv
qmapshack:_ZN12CPrintDialog9slotPrintEv
qmapshack:_ZN12CPrintDialogC1ENS_6type_eERK6QRectFP7CCanvas
qmapshack:_ZN12CPrintDialogC2ENS_6type_eERK6QRectFP7CCanvas
qmapshack:_ZN12CPrintDialogD0Ev
qmapshack:_ZN12CPrintDialogD1Ev
qmapshack:_ZN12CPrintDialogD2Ev
qmapshack:_ZN12CPropertyTrk9setupDataEv
qmapshack:_ZN12CPropertyTrkC1ER11CGisItemTrk
qmapshack:_ZN12CPropertyTrkC2ER11CGisItemTrk
qmapshack:_ZN12CRouterSetup10getOptionsEv
qmapshack:_ZN12CRouterSetup11qt_metacallEN11QMetaObject4CallEiPPv
qmapshack:_ZN12CRouterSetup11qt_metacastEPKc
qmapshack:_ZN12CRouterSetup14hasFastRoutingEv
qmapshack:_ZN12CRouterSetup14setRouterTitleENS_8router_eE7QString
qmapshack:_ZN12CRouterSetup16slotSelectRouterEi
qmapshack:_ZN12CRouterSetup16staticMetaObjectE
qmapshack:_ZN12CRouterSetup5pSelfE
qmapshack:_ZN12CRouterSetup9calcRouteERK7QPointFS2_R9QPolygonFPd
qmapshack:_ZN12CRouterSetup9calcRouteERKN8IGisItem5key_tE
qmapshack:_ZN12CRouterSetupC1EP7QWidget
qmapshack:_ZN12CRouterSetupC2EP7QWidget
qmapshack:_ZN12CRouterSetupD0Ev
qmapshack:_ZN12CRouterSetupD1Ev
qmapshack:_ZN12CRouterSetupD2Ev
qmapshack:_ZN12CRtAisRecord10writeEntryERKN6CRtAis6ship_tE
qmapshack:_ZN12CRtAisRecord11qt_metacallEN11QMetaObject4CallEiPPv
qmapshack:_ZN12CRtAisRecord11qt_metacastEPKc
qmapshack:_ZN12CRtAisRecord16staticMetaObjectE
qmapshack:_ZN12CRtAisRecordC1EP7QObject
qmapshack:_ZN12CRtAisRecordC2EP7QObject
qmapshack:_ZN12CRtGpsTether11qt_metacallEN11QMetaObject4CallEiPPv
qmapshack:_ZN12CRtGpsTether11qt_metacastEPKc
qmapshack:_ZN12CRtGpsTether12loadSettingsER9QSettings
qmapshack:_ZN12CRtGpsTether16staticMetaObjectE
qmapshack:_ZN12CRtGpsTether22registerWithTreeWidgetEv
qmapshack:_ZN12CRtGpsTether7strIconE
qmapshack:_ZN12CRtGpsTether8drawItemER8QPainterRK9QPolygonFR5QListI6QRectFEP7CRtDraw
qmapshack:_ZN12CRtGpsTether8fastDrawER8QPainterRK6QRectFP7CRtDraw
qmapshack:_ZN12CRtGpsTetherC1EP11QTreeWidget
qmapshack:_ZN12CRtGpsTetherC2EP11QTreeWidget
qmapshack:_ZN12CRtWorkspace10sigChangedEv
qmapshack:_ZN12CRtWorkspace11qt_metacallEN11QMetaObject4CallEiPPv
qmapshack:_ZN12CRtWorkspace11qt_metacastEPKc
qmapshack:_ZN12CRtWorkspace11slotChangedEv
qmapshack:_ZN12CRtWorkspace13slotAddSourceEv
qmapshack:_ZN12CRtWorkspace15slotContextMenuERK6QPoint
qmapshack:_ZN12CRtWorkspace15slotItemChangedEP15QTreeWidgetItemi
qmapshack:_ZN12CRtWorkspace15slotItemClickedEP15QTreeWidgetItemi
qmapshack:_ZN12CRtWorkspace16slotDeleteSourceEv
qmapshack:_ZN12CRtWorkspace16staticMetaObjectE
qmapshack:_ZN12CRtWorkspace5pSelfE
qmapshack:_ZN12CRtWorkspace9addSourceEP9IRtSource
qmapshack:_ZN12CRtWorkspace9mouseMoveERK7QPointF
qmapshack:_ZN12CRtWorkspaceC1EP7QWidget
qmapshack:_ZN12CRtWorkspaceC2EP7QWidget
qmapshack:_ZN12CRtWorkspaceD0Ev
qmapshack:_ZN12CRtWorkspaceD1Ev
qmapshack:_ZN12CRtWorkspaceD2Ev
qmapshack:_ZN12CScrOptPrintC1EP6IMouse
qmapshack:_ZN12CScrOptPrintC2EP6IMouse
qmapshack:_ZN12CScrOptRuler11qt_metacallEN11QMetaObject4CallEiPPv
qmapshack:_ZN12CScrOptRuler11qt_metacastEPKc
qmapshack:_ZN12CScrOptRuler16staticMetaObjectE
qmapshack:_ZN12CScrOptRuler9slotCloseEv
qmapshack:_ZN12CScrOptRulerC1EP6IMouseP7CCanvas
qmapshack:_ZN12CScrOptRulerC2EP6IMouseP7CCanvas
qmapshack:_ZN12CScrOptRulerD0Ev
qmapshack:_ZN12CScrOptRulerD1Ev
qmapshack:_ZN12CScrOptRulerD2Ev
qmapshack:_ZN12CSetupFolder11qt_metacallEN11QMetaObject4CallEiPPv
qmapshack:_ZN12CSetupFolder11qt_metacastEPKc
qmapshack:_ZN12CSetupFolder15slotNameChangedERK7QString
qmapshack:_ZN12CSetupFolder16staticMetaObjectE
qmapshack:_ZN12CSetupFolder6acceptEv
qmapshack:_ZN12CSetupFolderC1ERN9IDBFolder6type_eER7QStringbP7QWidget
qmapshack:_ZN12CSetupFolderC2ERN9IDBFolder6type_eER7QStringbP7QWidget
qmapshack:_ZN12CSetupFolderD0Ev
qmapshack:_ZN12CSetupFolderD1Ev
qmapshack:_ZN12CSetupFolderD2Ev
qmapshack:_ZN12CTinySpinBox10initializeEv
qmapshack:_ZN12CTinySpinBox11qt_metacallEN11QMetaObject4CallEiPPv
qmapshack:_ZN12CTinySpinBox11qt_metacastEPKc
qmapshack:_ZN12CTinySpinBox11setReadOnlyEb
qmapshack:_ZN12CTinySpinBox11updateStyleEv
qmapshack:_ZN12CTinySpinBox12focusInEventEP11QFocusEvent
qmapshack:_ZN12CTinySpinBox13focusOutEventEP11QFocusEvent
qmapshack:_ZN12CTinySpinBox16staticMetaObjectE
qmapshack:_ZN12CTinySpinBox18valueChangedByStepEi
qmapshack:_ZN12CTinySpinBox6stepByEi
qmapshack:_ZN12CTinySpinBoxC1EP7QWidget
qmapshack:_ZN12CTinySpinBoxC2EP7QWidget
qmapshack:_ZN12IDBFolderSql15updateLostFoundEv
qmapshack:_ZN12IDBFolderSql6updateEv
qmapshack:_ZN12IDBFolderSql9expandingEv
qmapshack:_ZN12IDBFolderSqlC1ER12QSqlDatabaseP11QTreeWidget
qmapshack:_ZN12IDBFolderSqlC2ER12QSqlDatabaseP11QTreeWidget
qmapshack:_ZN12IDrawContext11qt_metacallEN11QMetaObject4CallEiPPv
qmapshack:_ZN12IDrawContext11qt_metacastEPKc
qmapshack:_ZN12IDrawContext12scalesSquareE
qmapshack:_ZN12IDrawContext13scalesDefaultE
qmapshack:_ZN12IDrawContext13setProjectionERK7QString
qmapshack:_ZN12IDrawContext13sigStopThreadEv
qmapshack:_ZN12IDrawContext14sigNeedsRedrawEv
qmapshack:_ZN12IDrawContext14sigStartThreadEv
qmapshack:_ZN12IDrawContext15sigCanvasUpdateEN7CCanvas8redraw_eE
qmapshack:_ZN12IDrawContext15sigScaleChangedERK7QPointF
qmapshack:_ZN12IDrawContext16staticMetaObjectE
qmapshack:_ZN12IDrawContext19emitSigCanvasUpdateEv
qmapshack:_ZN12IDrawContext3runEv
qmapshack:_ZN12IDrawContext4drawER8QPainterN7CCanvas8redraw_eERK7QPointF
qmapshack:_ZN12IDrawContext4zoomERK6QRectF
qmapshack:_ZN12IDrawContext4zoomEbRN7CCanvas8redraw_eE
qmapshack:_ZN12IDrawContext4zoomEi
qmapshack:_ZN12IDrawContext6resizeERK5QSize
qmapshack:_ZN12IDrawContext9setScalesEN7CCanvas13scales_type_eE
qmapshack:_ZN12IDrawContextC1ERK7QStringN7CCanvas8redraw_eEPS3_
qmapshack:_ZN12IDrawContextC2ERK7QStringN7CCanvas8redraw_eEPS3_
qmapshack:_ZN12IDrawContextD0Ev
qmapshack:_ZN12IDrawContextD1Ev
qmapshack:_ZN12IDrawContextD2Ev
qmapshack:_ZN12IMouseSelect10mouseMovedERK6QPoint
qmapshack:_ZN12IMouseSelect11placeScrOptEv
qmapshack:_ZN12IMouseSelect11qt_metacallEN11QMetaObject4CallEiPPv
qmapshack:_ZN12IMouseSelect11qt_metacastEPKc
qmapshack:_ZN12IMouseSelect12dragFinishedERK6QPoint
qmapshack:_ZN12IMouseSelect12mouseDraggedERK6QPointS2_S2_
qmapshack:_ZN12IMouseSelect14leftButtonDownERK6QPoint
qmapshack:_ZN12IMouseSelect16staticMetaObjectE
qmapshack:_ZN12IMouseSelect4drawER8QPainterN7CCanvas8redraw_eERK5QRect
qmapshack:_ZN12IMouseSelectC1EP8CGisDrawP7CCanvasP13CMouseAdapter
qmapshack:_ZN12IMouseSelectC2EP8CGisDrawP7CCanvasP13CMouseAdapter
qmapshack:_ZN12IMouseSelectD0Ev
qmapshack:_ZN12IMouseSelectD1Ev
qmapshack:_ZN12IMouseSelectD2Ev
qmapshack:_ZN12IQlgtOverlayC1EyP7QObject
qmapshack:_ZN12IQlgtOverlayC2EyP7QObject
qmapshack:_ZN12IQlgtOverlayD0Ev
qmapshack:_ZN12IQlgtOverlayD1Ev
qmapshack:_ZN12IQlgtOverlayD2Ev
qmapshack:_ZN13CActionSelect11qt_metacallEN11QMetaObject4CallEiPPv
qmapshack:_ZN13CActionSelect11qt_metacastEPKc
qmapshack:_ZN13CActionSelect16staticMetaObjectE
qmapshack:_ZN13CActionSelect9setActionEN16CScrOptRangeTool7eActionE
qmapshack:_ZN13CActionSelectC1EP7QWidget
qmapshack:_ZN13CActionSelectC2EP7QWidget
qmapshack:_ZN13CCanvasSelect11qt_metacallEN11QMetaObject4CallEiPPv
qmapshack:_ZN13CCanvasSelect11qt_metacastEPKc
qmapshack:_ZN13CCanvasSelect16staticMetaObjectE
qmapshack:_ZN13CCanvasSelect4execEv
qmapshack:_ZN13CCanvasSelect6acceptEv
qmapshack:_ZN13CCanvasSelectC1ERP7CCanvasP7QWidget
qmapshack:_ZN13CCanvasSelectC2ERP7CCanvasP7QWidget
qmapshack:_ZN13CDemPathSetup11qt_metacallEN11QMetaObject4CallEiPPv
qmapshack:_ZN13CDemPathSetup11qt_metacastEPKc
qmapshack:_ZN13CDemPathSetup11slotAddPathEv
qmapshack:_ZN13CDemPathSetup11slotDelPathEv
qmapshack:_ZN13CDemPathSetup11slotDemHonkEv
qmapshack:_ZN13CDemPathSetup16staticMetaObjectE
qmapshack:_ZN13CDemPathSetup24slotItemSelectionChangedEv
qmapshack:_ZN13CDemPathSetup6acceptEv
qmapshack:_ZN13CDemPathSetupC1ER11QStringList
qmapshack:_ZN13CDemPathSetupC2ER11QStringList
qmapshack:_ZN13CDemPathSetupD0Ev
qmapshack:_ZN13CDemPathSetupD1Ev
qmapshack:_ZN13CDemPathSetupD2Ev
qmapshack:_ZN13CDemPropSetup11qt_metacallEN11QMetaObject4CallEiPPv
qmapshack:_ZN13CDemPropSetup11qt_metacastEPKc
qmapshack:_ZN13CDemPropSetup14slotGradeIndexEi
qmapshack:_ZN13CDemPropSetup15slotSetMaxScaleEb
qmapshack:_ZN13CDemPropSetup15slotSetMinScaleEb
qmapshack:_ZN13CDemPropSetup16slotScaleChangedERK7QPointF
qmapshack:_ZN13CDemPropSetup16slotSlopeChangedEi
qmapshack:_ZN13CDemPropSetup16staticMetaObjectE
qmapshack:_ZN13CDemPropSetup21slotPropertiesChangedEv
qmapshack:_ZN13CDemPropSetup25slotElevationValueChangedEv
qmapshack:_ZN13CDemPropSetup27slotSlopeValiddateAfterEditEv
qmapshack:_ZN13CDemPropSetup32slotElevationShadeHiValueChangedEv
qmapshack:_ZN13CDemPropSetup33slotElevationShadeLowValueChangedEv
qmapshack:_ZN13CDemPropSetup5scaleE
qmapshack:_ZN13CDemPropSetupC1EP4IDemP8CDemDraw
qmapshack:_ZN13CDemPropSetupC2EP4IDemP8CDemDraw
qmapshack:_ZN13CDemPropSetupD0Ev
qmapshack:_ZN13CDemPropSetupD1Ev
qmapshack:_ZN13CDemPropSetupD2Ev
qmapshack:_ZN13CDeviceGarmin10loadImagesER11CGisItemWpt
qmapshack:_ZN13CDeviceGarmin10saveImagesER11CGisItemWpt
qmapshack:_ZN13CDeviceGarmin14createFileNameEP11IGisProjectRK7QStringS4_
qmapshack:_ZN13CDeviceGarmin14simplifiedNameEP11IGisProject
qmapshack:_ZN13CDeviceGarmin15reorderProjectsEP11IGisProject
qmapshack:_ZN13CDeviceGarmin18startSavingProjectEP11IGisProject
qmapshack:_ZN13CDeviceGarmin19insertCopyOfProjectEP11IGisProject
qmapshack:_ZN13CDeviceGarmin20aboutToRemoveProjectEP11IGisProject
qmapshack:_ZN13CDeviceGarmin23createProjectsFromFilesE7QStringS0_
qmapshack:_ZN13CDeviceGarmin24insertCopyOfProjectAsGpxEP11IGisProject
qmapshack:_ZN13CDeviceGarmin24insertCopyOfProjectAsTcxEP11IGisProject
qmapshack:_ZN13CDeviceGarmin26createAdventureFromProjectEP11IGisProjectRK7QString
qmapshack:_ZN13CDeviceGarminC1ERK7QStringS2_S2_S2_P11QTreeWidget
qmapshack:_ZN13CDeviceGarminC2ERK7QStringS2_S2_S2_P11QTreeWidget
qmapshack:_ZN13CDeviceGarminD0Ev
qmapshack:_ZN13CDeviceGarminD1Ev
qmapshack:_ZN13CDeviceGarminD2Ev
qmapshack:_ZN13CDeviceTwoNav11readReginfoERK7QString
qmapshack:_ZN13CDeviceTwoNav19insertCopyOfProjectEP11IGisProject
qmapshack:_ZN13CDeviceTwoNavC1ERK7QStringS2_S2_P11QTreeWidget
qmapshack:_ZN13CDeviceTwoNavC2ERK7QStringS2_S2_P11QTreeWidget
qmapshack:_ZN13CDeviceTwoNavD0Ev
qmapshack:_ZN13CDeviceTwoNavD1Ev
qmapshack:_ZN13CDeviceTwoNavD2Ev
qmapshack:_ZN13CFilterDelete11qt_metacallEN11QMetaObject4CallEiPPv
qmapshack:_ZN13CFilterDelete11qt_metacastEPKc
qmapshack:_ZN13CFilterDelete16staticMetaObjectE
qmapshack:_ZN13CFilterDelete9slotApplyEv
qmapshack:_ZN13CFilterDeleteC1ER11CGisItemTrkP7QWidget
qmapshack:_ZN13CFilterDeleteC2ER11CGisItemTrkP7QWidget
qmapshack:_ZN13CFilterMedian11qt_metacallEN11QMetaObject4CallEiPPv
qmapshack:_ZN13CFilterMedian11qt_metacastEPKc
qmapshack:_ZN13CFilterMedian16staticMetaObjectE
qmapshack:_ZN13CFilterMedian9slotApplyEv
qmapshack:_ZN13CFilterMedianC1ER11CGisItemTrkP7QWidget
qmapshack:_ZN13CFilterMedianC2ER11CGisItemTrkP7QWidget
qmapshack:_ZN13CFilterMedianD0Ev
qmapshack:_ZN13CFilterMedianD1Ev
qmapshack:_ZN13CFilterMedianD2Ev
qmapshack:_ZN13CGeoSearchWeb11defaultIconE
qmapshack:_ZN13CGeoSearchWeb11qt_metacallEN11QMetaObject4CallEiPPv
qmapshack:_ZN13CGeoSearchWeb11qt_metacastEPKc
qmapshack:_ZN13CGeoSearchWeb15defaultServicesEv
qmapshack:_ZN13CGeoSearchWeb16staticMetaObjectE
qmapshack:_ZN13CGeoSearchWeb21slotConfigureServicesEv
qmapshack:_ZN13CGeoSearchWeb5pSelfE
qmapshack:_ZN13CGeoSearchWeb6searchERK7QPointF
qmapshack:_ZN13CGeoSearchWebC1EP7QObject
qmapshack:_ZN13CGeoSearchWebC2EP7QObject
qmapshack:_ZN13CGeoSearchWebD0Ev
qmapshack:_ZN13CGeoSearchWebD1Ev
qmapshack:_ZN13CGeoSearchWebD2Ev
qmapshack:_ZN13CGisWorkspace10editPrxWptERK5QListIN8IGisItem5key_tEE
qmapshack:_ZN13CGisWorkspace10setOpacityEd
qmapshack:_ZN13CGisWorkspace10sigChangedEv
qmapshack:_ZN13CGisWorkspace10slotSearchERK7CSearch
qmapshack:_ZN13CGisWorkspace11cutTrkByKeyERKN8IGisItem5key_tE
qmapshack:_ZN13CGisWorkspace11qt_metacallEN11QMetaObject4CallEiPPv
qmapshack:_ZN13CGisWorkspace11qt_metacastEPKc
qmapshack:_ZN13CGisWorkspace11slotSaveAllEv
qmapshack:_ZN13CGisWorkspace12calcRteByKeyERKN8IGisItem5key_tE
qmapshack:_ZN13CGisWorkspace12delItemByKeyERKN8IGisItem5key_tE
qmapshack:_ZN13CGisWorkspace12editRteByKeyERKN8IGisItem5key_tE
qmapshack:_ZN13CGisWorkspace12editTrkByKeyERKN8IGisItem5key_tE
qmapshack:_ZN13CGisWorkspace12getItemByKeyERKN8IGisItem5key_tE
qmapshack:_ZN13CGisWorkspace12getNogoAreasER5QListIP8IGisItemE
qmapshack:_ZN13CGisWorkspace12moveWptByKeyERKN8IGisItem5key_tE
qmapshack:_ZN13CGisWorkspace12projWptByKeyERKN8IGisItem5key_tE
qmapshack:_ZN13CGisWorkspace12slotLateInitEv
qmapshack:_ZN13CGisWorkspace13colorTrkByKeyERK5QListIN8IGisItem5key_tEE
qmapshack:_ZN13CGisWorkspace13copyItemByKeyERKN8IGisItem5key_tE
qmapshack:_ZN13CGisWorkspace13delItemsByKeyERK5QListIN8IGisItem5key_tEE
qmapshack:_ZN13CGisWorkspace13editAreaByKeyERKN8IGisItem5key_tE
qmapshack:_ZN13CGisWorkspace13editItemByKeyERKN8IGisItem5key_tE
qmapshack:_ZN13CGisWorkspace13editWptRadiusERKN8IGisItem5key_tE
qmapshack:_ZN13CGisWorkspace13focusRteByKeyEbRKN8IGisItem5key_tE
qmapshack:_ZN13CGisWorkspace13focusTrkByKeyEbRKN8IGisItem5key_tE
qmapshack:_ZN13CGisWorkspace13getItemsByPosERK7QPointFR5QListIP8IGisItemE
qmapshack:_ZN13CGisWorkspace13rangeTrkByKeyERKN8IGisItem5key_tE
qmapshack:_ZN13CGisWorkspace13resetRteByKeyERKN8IGisItem5key_tE
qmapshack:_ZN13CGisWorkspace13selectProjectEb
qmapshack:_ZN13CGisWorkspace13setTagsHiddenEb
qmapshack:_ZN13CGisWorkspace13tagItemsByKeyERK5QListIN8IGisItem5key_tEE
qmapshack:_ZN13CGisWorkspace14copyItemsByKeyERK5QListIN8IGisItem5key_tEE
qmapshack:_ZN13CGisWorkspace14getItemsByAreaERK6QRectFjR5QListIP8IGisItemE
qmapshack:_ZN13CGisWorkspace14getItemsByKeysERK5QListIN8IGisItem5key_tEERS0_IPS1_E
qmapshack:_ZN13CGisWorkspace14loadGisProjectERK7QString
qmapshack:_ZN13CGisWorkspace14makeRteFromWptERK5QListIN8IGisItem5key_tEE
qmapshack:_ZN13CGisWorkspace14searchWebByKeyERKN8IGisItem5key_tE
qmapshack:_ZN13CGisWorkspace14toggleNogoItemERKN8IGisItem5key_tE
qmapshack:_ZN13CGisWorkspace15addTrkInfoByKeyERKN8IGisItem5key_tE
qmapshack:_ZN13CGisWorkspace15combineTrkByKeyERK5QListIN8IGisItem5key_tEES5_
qmapshack:_ZN13CGisWorkspace15combineTrkByKeyERKN8IGisItem5key_tE
qmapshack:_ZN13CGisWorkspace15deleteWptRadiusERKN8IGisItem5key_tE
qmapshack:_ZN13CGisWorkspace15postEventForWksEP6QEvent
qmapshack:_ZN13CGisWorkspace15reverseRteByKeyERKN8IGisItem5key_tE
qmapshack:_ZN13CGisWorkspace15reverseTrkByKeyERKN8IGisItem5key_tE
qmapshack:_ZN13CGisWorkspace15toggleWptBubbleERKN8IGisItem5key_tE
qmapshack:_ZN13CGisWorkspace16staticMetaObjectE
qmapshack:_ZN13CGisWorkspace17changeWptSymByKeyERK5QListIN8IGisItem5key_tEERK7QString
qmapshack:_ZN13CGisWorkspace17copyWptCoordByKeyERKN8IGisItem5key_tE
qmapshack:_ZN13CGisWorkspace18slotWksItemPressedEP15QTreeWidgetItem
qmapshack:_ZN13CGisWorkspace19addEleToWptTrkByKeyERK5QListIN8IGisItem5key_tEE
qmapshack:_ZN13CGisWorkspace19convertRouteToTrackERKN8IGisItem5key_tE
qmapshack:_ZN13CGisWorkspace19convertTrackToRouteERKN8IGisItem5key_tE
qmapshack:_ZN13CGisWorkspace19copyTrkWithWptByKeyERKN8IGisItem5key_tE
qmapshack:_ZN13CGisWorkspace19findPolylineCloseByERK7QPointFS2_iR9QPolygonF
qmapshack:_ZN13CGisWorkspace20slotActivityTrkByKeyERK5QListIN8IGisItem5key_tEEN10CTrackData7trkpt_t7act20_eE
qmapshack:_ZN13CGisWorkspace22slotSetGisLayerOpacityEi
qmapshack:_ZN13CGisWorkspace25slotWksItemSelectionResetEv
qmapshack:_ZN13CGisWorkspace27slotWksItemSelectionChangedEv
qmapshack:_ZN13CGisWorkspace4drawER8QPainterRK9QPolygonFP8CGisDraw
qmapshack:_ZN13CGisWorkspace5pSelfE
qmapshack:_ZN13CGisWorkspace8fastDrawER8QPainterRK6QRectFP8CGisDraw
qmapshack:_ZN13CGisWorkspace9mouseMoveERK7QPointF
qmapshack:_ZN13CGisWorkspaceC1EP5QMenuP7QWidget
qmapshack:_ZN13CGisWorkspaceC2EP5QMenuP7QWidget
qmapshack:_ZN13CGisWorkspaceD0Ev
qmapshack:_ZN13CGisWorkspaceD1Ev
qmapshack:_ZN13CGisWorkspaceD2Ev
qmapshack:_ZN13CMapPathSetup11qt_metacallEN11QMetaObject4CallEiPPv
qmapshack:_ZN13CMapPathSetup11qt_metacastEPKc
qmapshack:_ZN13CMapPathSetup11slotAddPathEv
qmapshack:_ZN13CMapPathSetup11slotDelPathEv
qmapshack:_ZN13CMapPathSetup11slotMapHonkEv
qmapshack:_ZN13CMapPathSetup16staticMetaObjectE
qmapshack:_ZN13CMapPathSetup19slotChangeCachePathEv
qmapshack:_ZN13CMapPathSetup24slotItemSelectionChangedEv
qmapshack:_ZN13CMapPathSetup6acceptEv
qmapshack:_ZN13CMapPathSetupC1ER11QStringListR7QString
qmapshack:_ZN13CMapPathSetupC2ER11QStringListR7QString
qmapshack:_ZN13CMapPathSetupD0Ev
qmapshack:_ZN13CMapPathSetupD1Ev
qmapshack:_ZN13CMapPathSetupD2Ev
qmapshack:_ZN13CMapPropSetup11qt_metacallEN11QMetaObject4CallEiPPv
qmapshack:_ZN13CMapPropSetup11qt_metacastEPKc
qmapshack:_ZN13CMapPropSetup15slotSetMaxScaleEb
qmapshack:_ZN13CMapPropSetup15slotSetMinScaleEb
qmapshack:_ZN13CMapPropSetup16slotLoadTypeFileEv
qmapshack:_ZN13CMapPropSetup16slotScaleChangedERK7QPointF
qmapshack:_ZN13CMapPropSetup16staticMetaObjectE
qmapshack:_ZN13CMapPropSetup17slotClearTypeFileEv
qmapshack:_ZN13CMapPropSetup21slotPropertiesChangedEv
qmapshack:_ZN13CMapPropSetup5scaleE
qmapshack:_ZN13CMapPropSetupC1EP4IMapP8CMapDraw
qmapshack:_ZN13CMapPropSetupC2EP4IMapP8CMapDraw
qmapshack:_ZN13CMapPropSetupD0Ev
qmapshack:_ZN13CMapPropSetupD1Ev
qmapshack:_ZN13CMapPropSetupD2Ev
qmapshack:_ZN13CMouseAdapter10wheelEventEP11QWheelEvent
qmapshack:_ZN13CMouseAdapter11qt_metacallEN11QMetaObject4CallEiPPv
qmapshack:_ZN13CMouseAdapter11qt_metacastEPKc
qmapshack:_ZN13CMouseAdapter11setDelegateEP6IMouse
qmapshack:_ZN13CMouseAdapter13keyPressEventEP9QKeyEvent
qmapshack:_ZN13CMouseAdapter14mouseMoveEventEP11QMouseEvent
qmapshack:_ZN13CMouseAdapter14startMouseMoveERK6QPoint
qmapshack:_ZN13CMouseAdapter15mousePressEventEP11QMouseEvent
qmapshack:_ZN13CMouseAdapter16staticMetaObjectE
qmapshack:_ZN13CMouseAdapter17mouseReleaseEventEP11QMouseEvent
qmapshack:_ZN13CMouseAdapter17pinchGestureEventEP13QPinchGesture
qmapshack:_ZN13CMouseAdapter19afterMouseLostEventEP11QMouseEvent
qmapshack:_ZN13CMouseAdapter20slotLongPressTimeoutEv
qmapshack:_ZN13CMouseAdapter21mouseDoubleClickEventEP11QMouseEvent
qmapshack:_ZN13CMouseAdapter4drawER8QPainterN7CCanvas8redraw_eERK5QRect
qmapshack:_ZN13CMouseAdapter7unfocusEv
qmapshack:_ZN13CMouseAdapterC1EP7CCanvas
qmapshack:_ZN13CMouseAdapterC2EP7CCanvas
qmapshack:_ZN13CMouseAdapterD0Ev
qmapshack:_ZN13CMouseAdapterD1Ev
qmapshack:_ZN13CMouseAdapterD2Ev
qmapshack:_ZN13CMouseEditRte11qt_metacallEN11QMetaObject4CallEiPPv
qmapshack:_ZN13CMouseEditRte11qt_metacastEPKc
qmapshack:_ZN13CMouseEditRte13slotCopyToNewEv
qmapshack:_ZN13CMouseEditRte14slotCopyToOrigEv
qmapshack:_ZN13CMouseEditRte16staticMetaObjectE
qmapshack:_ZN13CMouseEditRte9slotAbortEv
qmapshack:_ZN13CMouseEditRteC1ER11CGisItemRteP8CGisDrawP7CCanvasP13CMouseAdapter
qmapshack:_ZN13CMouseEditRteC1ERK7QPointFP8CGisDrawP7CCanvasP13CMouseAdapter
qmapshack:_ZN13CMouseEditRteC2ER11CGisItemRteP8CGisDrawP7CCanvasP13CMouseAdapter
qmapshack:_ZN13CMouseEditRteC2ERK7QPointFP8CGisDrawP7CCanvasP13CMouseAdapter
qmapshack:_ZN13CMouseEditRteD0Ev
qmapshack:_ZN13CMouseEditRteD1Ev
qmapshack:_ZN13CMouseEditRteD2Ev
qmapshack:_ZN13CMouseEditTrk11qt_metacallEN11QMetaObject4CallEiPPv
qmapshack:_ZN13CMouseEditTrk11qt_metacastEPKc
qmapshack:_ZN13CMouseEditTrk13slotCopyToNewEv
qmapshack:_ZN13CMouseEditTrk14slotCopyToOrigEv
qmapshack:_ZN13CMouseEditTrk16staticMetaObjectE
qmapshack:_ZN13CMouseEditTrk9slotAbortEv
qmapshack:_ZN13CMouseEditTrkC1ER11CGisItemTrkP8CGisDrawP7CCanvasP13CMouseAdapter
qmapshack:_ZN13CMouseEditTrkC1ERK7QPointFP8CGisDrawP7CCanvasP13CMouseAdapter
qmapshack:_ZN13CMouseEditTrkC2ER11CGisItemTrkP8CGisDrawP7CCanvasP13CMouseAdapter
qmapshack:_ZN13CMouseEditTrkC2ERK7QPointFP8CGisDrawP7CCanvasP13CMouseAdapter
qmapshack:_ZN13CMouseEditTrkD0Ev
qmapshack:_ZN13CMouseEditTrkD1Ev
qmapshack:_ZN13CMouseEditTrkD2Ev
qmapshack:_ZN13CMouseMoveWpt10mouseMovedERK6QPoint
qmapshack:_ZN13CMouseMoveWpt11leftClickedERK6QPoint
qmapshack:_ZN13CMouseMoveWpt12scaleChangedEv
qmapshack:_ZN13CMouseMoveWpt15rightButtonDownERK6QPoint
qmapshack:_ZN13CMouseMoveWpt4drawER8QPainterN7CCanvas8redraw_eERK5QRect
qmapshack:_ZN13CMouseMoveWptC1ER11CGisItemWptP8CGisDrawP7CCanvasP13CMouseAdapter
qmapshack:_ZN13CMouseMoveWptC2ER11CGisItemWptP8CGisDrawP7CCanvasP13CMouseAdapter
qmapshack:_ZN13CMouseMoveWptD0Ev
qmapshack:_ZN13CMouseMoveWptD1Ev
qmapshack:_ZN13CMouseMoveWptD2Ev
qmapshack:_ZN13CPlotAxisTime11qt_metacallEN11QMetaObject4CallEiPPv
qmapshack:_ZN13CPlotAxisTime11qt_metacastEPKc
qmapshack:_ZN13CPlotAxisTime16staticMetaObjectE
qmapshack:_ZN13CPlotAxisTime4calcEv
qmapshack:_ZN13CPlotAxisTime7ticmarkEPKN9CPlotAxis5tic_tE
qmapshack:_ZN13CPoiPathSetup11qt_metacallEN11QMetaObject4CallEiPPv
qmapshack:_ZN13CPoiPathSetup11qt_metacastEPKc
qmapshack:_ZN13CPoiPathSetup11slotAddPathEv
qmapshack:_ZN13CPoiPathSetup11slotDelPathEv
qmapshack:_ZN13CPoiPathSetup16staticMetaObjectE
qmapshack:_ZN13CPoiPathSetup24slotItemSelectionChangedEv
qmapshack:_ZN13CPoiPathSetup6acceptEv
qmapshack:_ZN13CPoiPathSetupC1ER11QStringList
qmapshack:_ZN13CPoiPathSetupC2ER11QStringList
qmapshack:_ZN13CPoiPropSetup11qt_metacallEN11QMetaObject4CallEiPPv
qmapshack:_ZN13CPoiPropSetup11qt_metacastEPKc
qmapshack:_ZN13CPoiPropSetup16staticMetaObjectE
qmapshack:_ZN13CPoiPropSetup21slotPropertiesChangedEv
qmapshack:_ZN13CPoiPropSetupC1EP8IPoiFileP8CPoiDraw
qmapshack:_ZN13CPoiPropSetupC2EP8IPoiFileP8CPoiDraw
qmapshack:_ZN13CScrOptSelect11qt_metacallEN11QMetaObject4CallEiPPv
qmapshack:_ZN13CScrOptSelect11qt_metacastEPKc
qmapshack:_ZN13CScrOptSelect14slotModeSwitchEN8IGisItem11selection_eEb
qmapshack:_ZN13CScrOptSelect16staticMetaObjectE
qmapshack:_ZN13CScrOptSelectC1EP6IMouse
qmapshack:_ZN13CScrOptSelectC2EP6IMouse
qmapshack:_ZN13CScrOptSelectD0Ev
qmapshack:_ZN13CScrOptSelectD1Ev
qmapshack:_ZN13CScrOptSelectD2Ev
qmapshack:_ZN13CTableTrkInfo10slotDeleteEv
qmapshack:_ZN13CTableTrkInfo10updateDataEv
qmapshack:_ZN13CTableTrkInfo11qt_metacallEN11QMetaObject4CallEiPPv
qmapshack:_ZN13CTableTrkInfo11qt_metacastEPKc
qmapshack:_ZN13CTableTrkInfo15sigHasTrkPtInfoEb
qmapshack:_ZN13CTableTrkInfo15slotContextMenuERK6QPoint
qmapshack:_ZN13CTableTrkInfo15slotItemChangedEP15QTreeWidgetItemi
qmapshack:_ZN13CTableTrkInfo16staticMetaObjectE
qmapshack:_ZN13CTableTrkInfo24slotItemSelectionChangedEv
qmapshack:_ZN13CTableTrkInfo8setTrackEP11CGisItemTrk
qmapshack:_ZN13CTableTrkInfo8slotEditEv
qmapshack:_ZN13CTableTrkInfoC1EP7QWidget
qmapshack:_ZN13CTableTrkInfoC2EP7QWidget
qmapshack:_ZN13CTableTrkInfoD0Ev
qmapshack:_ZN13CTableTrkInfoD1Ev
qmapshack:_ZN13CTableTrkInfoD2Ev
qmapshack:_ZN13CUnitAviationC1EP7QObject
qmapshack:_ZN13CUnitAviationC2EP7QObject
qmapshack:_ZN13CUnitImperialC1EP7QObject
qmapshack:_ZN13CUnitImperialC2EP7QObject
qmapshack:_ZN13IGarminStrTbl10calcOffsetER8CFileExtjNS_6type_eE
qmapshack:_ZN13IGarminStrTbl12processLabelEPKcj
qmapshack:_ZN13IGarminStrTbl8readFileER8CFileExtjjR10QByteArray
qmapshack:_ZN13IGarminStrTblC1EthP7QObject
qmapshack:_ZN13IGarminStrTblC2EthP7QObject
qmapshack:_ZN13IGarminStrTblD0Ev
qmapshack:_ZN13IGarminStrTblD1Ev
qmapshack:_ZN13IGarminStrTblD2Ev
qmapshack:_ZN13IMapPropSetup11qt_metacallEN11QMetaObject4CallEiPPv
qmapshack:_ZN13IMapPropSetup11qt_metacastEPKc
qmapshack:_ZN13IMapPropSetup16staticMetaObjectE
qmapshack:_ZN14CAppSetupLinux11routinoPathE7QString
qmapshack:_ZN14CAppSetupLinux12userDataPathE7QString
qmapshack:_ZN14CAppSetupLinux13initQMapShackEv
qmapshack:_ZN14CAppSetupLinux16defaultCachePathEv
qmapshack:_ZN14CAppSetupLinux6logDirEv
qmapshack:_ZN14CAppSetupLinux8helpFileEv
qmapshack:_ZN14CDBFolderGroupC1ER12QSqlDatabaseyP15QTreeWidgetItem
qmapshack:_ZN14CDBFolderGroupC2ER12QSqlDatabaseyP15QTreeWidgetItem
qmapshack:_ZN14CDBFolderGroupD0Ev
qmapshack:_ZN14CDBFolderGroupD1Ev
qmapshack:_ZN14CDBFolderGroupD2Ev
qmapshack:_ZN14CDBFolderMysql10copyFolderEyy
qmapshack:_ZN14CDBFolderMysql11qt_metacallEN11QMetaObject4CallEiPPv
qmapshack:_ZN14CDBFolderMysql11qt_metacastEPKc
qmapshack:_ZN14CDBFolderMysql16slotDelayedSetupEv
qmapshack:_ZN14CDBFolderMysql16staticMetaObjectE
qmapshack:_ZN14CDBFolderMysql6searchERK7QStringR9QSqlQuery
qmapshack:_ZN14CDBFolderMysqlC1ERK7QStringS2_S2_S2_bS2_P11QTreeWidget
qmapshack:_ZN14CDBFolderMysqlC2ERK7QStringS2_S2_S2_bS2_P11QTreeWidget
qmapshack:_ZN14CDBFolderOtherC1ER12QSqlDatabaseyP15QTreeWidgetItem
qmapshack:_ZN14CDBFolderOtherC2ER12QSqlDatabaseyP15QTreeWidgetItem
qmapshack:_ZN14CDBFolderOtherD0Ev
qmapshack:_ZN14CDBFolderOtherD1Ev
qmapshack:_ZN14CDBFolderOtherD2Ev
qmapshack:_ZN14CDemTreeWidget10sigChangedEv
qmapshack:_ZN14CDemTreeWidget11qt_metacallEN11QMetaObject4CallEiPPv
qmapshack:_ZN14CDemTreeWidget11qt_metacastEPKc
qmapshack:_ZN14CDemTreeWidget13dragMoveEventEP14QDragMoveEvent
qmapshack:_ZN14CDemTreeWidget16staticMetaObjectE
qmapshack:_ZN14CDemTreeWidget9dropEventEP10QDropEvent
qmapshack:_ZN14CDoubleSpinBox11qt_metacallEN11QMetaObject4CallEiPPv
qmapshack:_ZN14CDoubleSpinBox11qt_metacastEPKc
qmapshack:_ZN14CDoubleSpinBox12focusInEventEP11QFocusEvent
qmapshack:_ZN14CDoubleSpinBox16staticMetaObjectE
qmapshack:_ZN14CDoubleSpinBox18valueChangedByStepEd
qmapshack:_ZN14CDoubleSpinBox6stepByEi
qmapshack:_ZN14CDoubleSpinBoxC1EP7QWidget
qmapshack:_ZN14CDoubleSpinBoxC2EP7QWidget
qmapshack:_ZN14CEnergyCycling12loadSettingsERNS_12energy_set_tE
qmapshack:_ZN14CEnergyCycling12saveSettingsEv
qmapshack:_ZN14CEnergyCycling15setEnergyTrkSetERKNS_12energy_set_tEb
qmapshack:_ZN14CEnergyCycling6removeEv
qmapshack:_ZN14CEnergyCycling7computeERNS_12energy_set_tE
qmapshack:_ZN14CEnergyCycling7computeEv
qmapshack:_ZN14CEnergyCyclingC1ER11CGisItemTrk
qmapshack:_ZN14CEnergyCyclingC2ER11CGisItemTrk
qmapshack:_ZN14CFilterInvalid11qt_metacallEN11QMetaObject4CallEiPPv
qmapshack:_ZN14CFilterInvalid11qt_metacastEPKc
qmapshack:_ZN14CFilterInvalid16staticMetaObjectE
qmapshack:_ZN14CFilterInvalid9slotApplyEv
qmapshack:_ZN14CFilterInvalidC1ER11CGisItemTrkP7QWidget
qmapshack:_ZN14CFilterInvalidC2ER11CGisItemTrkP7QWidget
qmapshack:_ZN14CFilterNewDate11qt_metacallEN11QMetaObject4CallEiPPv
qmapshack:_ZN14CFilterNewDate11qt_metacastEPKc
qmapshack:_ZN14CFilterNewDate16staticMetaObjectE
qmapshack:_ZN14CFilterNewDate9slotApplyEv
qmapshack:_ZN14CFilterNewDateC1ER11CGisItemTrkP7QWidget
qmapshack:_ZN14CFilterNewDateC2ER11CGisItemTrkP7QWidget
qmapshack:_ZN14CGarminPolygon10maxVecSizeE
qmapshack:_ZN14CGarminPolygon14bits_per_coordEhb
qmapshack:_ZN14CGarminPolygon14bits_per_coordEhhRjS0_R11sign_info_tb
qmapshack:_ZN14CGarminPolygon3cntE
qmapshack:_ZN14CGarminPolygon6decodeEiijbPKhS1_
qmapshack:_ZN14CGarminPolygon7decode2EiijbPKhS1_
qmapshack:_ZN14CGarminStrTbl63getER8CFileExtjN13IGarminStrTbl6type_eER11QStringList
qmapshack:_ZN14CGarminStrTbl64fillEv
qmapshack:_ZN14CGarminStrTbl68str6tbl1E
qmapshack:_ZN14CGarminStrTbl68str6tbl2E
qmapshack:_ZN14CGarminStrTbl68str6tbl3E
qmapshack:_ZN14CGarminStrTbl6C1EthP7QObject
qmapshack:_ZN14CGarminStrTbl6C2EthP7QObject
qmapshack:_ZN14CGarminStrTbl6D0Ev
qmapshack:_ZN14CGarminStrTbl6D1Ev
qmapshack:_ZN14CGarminStrTbl6D2Ev
qmapshack:_ZN14CGarminStrTbl83getER8CFileExtjN13IGarminStrTbl6type_eER11QStringList
qmapshack:_ZN14CGarminStrTbl8C1EthP7QObject
qmapshack:_ZN14CGarminStrTbl8C2EthP7QObject
qmapshack:_ZN14CGarminStrTbl8D0Ev
qmapshack:_ZN14CGarminStrTbl8D1Ev
qmapshack:_ZN14CGarminStrTbl8D2Ev
qmapshack:_ZN14CMapTreeWidget10sigChangedEv
qmapshack:_ZN14CMapTreeWidget11qt_metacallEN11QMetaObject4CallEiPPv
qmapshack:_ZN14CMapTreeWidget11qt_metacastEPKc
qmapshack:_ZN14CMapTreeWidget13dragMoveEventEP14QDragMoveEvent
qmapshack:_ZN14CMapTreeWidget14dragEnterEventEP15QDragEnterEvent
qmapshack:_ZN14CMapTreeWidget16staticMetaObjectE
qmapshack:_ZN14CMapTreeWidget9dropEventEP10QDropEvent
qmapshack:_ZN14CMapVrtBuilder11qt_metacallEN11QMetaObject4CallEiPPv
qmapshack:_ZN14CMapVrtBuilder11qt_metacastEPKc
qmapshack:_ZN14CMapVrtBuilder16staticMetaObjectE
qmapshack:_ZN14CMapVrtBuilder17enableStartButtonEv
qmapshack:_ZN14CMapVrtBuilder17slotLinkActivatedERK4QUrl
qmapshack:_ZN14CMapVrtBuilder20slotSelectTargetFileEv
qmapshack:_ZN14CMapVrtBuilder21slotSelectSourceFilesEv
qmapshack:_ZN14CMapVrtBuilder8finishedEiN8QProcess10ExitStatusE
qmapshack:_ZN14CMapVrtBuilder9slotStartEv
qmapshack:_ZN14CMapVrtBuilderC1EP7QWidget
qmapshack:_ZN14CMapVrtBuilderC2EP7QWidget
qmapshack:_ZN14CMapVrtBuilderD0Ev
qmapshack:_ZN14CMapVrtBuilderD1Ev
qmapshack:_ZN14CMapVrtBuilderD2Ev
qmapshack:_ZN14CMouseEditArea11qt_metacallEN11QMetaObject4CallEiPPv
qmapshack:_ZN14CMouseEditArea11qt_metacastEPKc
qmapshack:_ZN14CMouseEditArea13slotCopyToNewEv
qmapshack:_ZN14CMouseEditArea14slotCopyToOrigEv
qmapshack:_ZN14CMouseEditArea16staticMetaObjectE
qmapshack:_ZN14CMouseEditArea8drawLineERK9QPolygonF6QColoriR8QPainter
qmapshack:_ZN14CMouseEditArea9slotAbortEv
qmapshack:_ZN14CMouseEditAreaC1ER15CGisItemOvlAreaP8CGisDrawP7CCanvasP13CMouseAdapter
qmapshack:_ZN14CMouseEditAreaC1ERK7QPointFP8CGisDrawP7CCanvasP13CMouseAdapter
qmapshack:_ZN14CMouseEditAreaC2ER15CGisItemOvlAreaP8CGisDrawP7CCanvasP13CMouseAdapter
qmapshack:_ZN14CMouseEditAreaC2ERK7QPointFP8CGisDrawP7CCanvasP13CMouseAdapter
qmapshack:_ZN14CMouseEditAreaD0Ev
qmapshack:_ZN14CMouseEditAreaD1Ev
qmapshack:_ZN14CMouseEditAreaD2Ev
qmapshack:_ZN14CMouseRangeTrk10mouseMovedERK6QPoint
qmapshack:_ZN14CMouseRangeTrk11leftClickedERK6QPoint
qmapshack:_ZN14CMouseRangeTrk11qt_metacallEN11QMetaObject4CallEiPPv
qmapshack:_ZN14CMouseRangeTrk11qt_metacastEPKc
qmapshack:_ZN14CMouseRangeTrk14leftButtonDownERK6QPoint
qmapshack:_ZN14CMouseRangeTrk16staticMetaObjectE
qmapshack:_ZN14CMouseRangeTrk4drawER8QPainterN7CCanvas8redraw_eERK5QRect
qmapshack:_ZN14CMouseRangeTrkC1ER11CGisItemTrkP8CGisDrawP7CCanvasP13CMouseAdapter
qmapshack:_ZN14CMouseRangeTrkC2ER11CGisItemTrkP8CGisDrawP7CCanvasP13CMouseAdapter
qmapshack:_ZN14CMouseRangeTrkD0Ev
qmapshack:_ZN14CMouseRangeTrkD1Ev
qmapshack:_ZN14CMouseRangeTrkD2Ev
qmapshack:_ZN14CPoiTreeWidget10sigChangedEv
qmapshack:_ZN14CPoiTreeWidget11qt_metacallEN11QMetaObject4CallEiPPv
qmapshack:_ZN14CPoiTreeWidget11qt_metacastEPKc
qmapshack:_ZN14CPoiTreeWidget16staticMetaObjectE
qmapshack:_ZN14CRouterBRouter10getOptionsEv
qmapshack:_ZN14CRouterBRouter11qt_metacallEN11QMetaObject4CallEiPPv
qmapshack:_ZN14CRouterBRouter11qt_metacastEPKc
qmapshack:_ZN14CRouterBRouter13setupLocalDirE7QString
qmapshack:_ZN14CRouterBRouter14hasFastRoutingEv
qmapshack:_ZN14CRouterBRouter14routerSelectedEv
qmapshack:_ZN14CRouterBRouter14slotClearErrorEv
qmapshack:_ZN14CRouterBRouter16staticMetaObjectE
qmapshack:_ZN14CRouterBRouter17getBRouterVersionEv
qmapshack:_ZN14CRouterBRouter18slotVersionChangedEv
qmapshack:_ZN14CRouterBRouter18synchronousRequestERK7QVectorI7QPointFERK5QListIP8IGisItemER9QPolygonFPd
qmapshack:_ZN14CRouterBRouter19slotRequestFinishedEP13QNetworkReply
qmapshack:_ZN14CRouterBRouter20slotToolSetupClickedEv
qmapshack:_ZN14CRouterBRouter22slotDisplayProfileInfoERK7QStringS2_
qmapshack:_ZN14CRouterBRouter5pSelfE
qmapshack:_ZN14CRouterBRouter9calcRouteERK7QPointFS2_R9QPolygonFPd
qmapshack:_ZN14CRouterBRouter9calcRouteERKN8IGisItem5key_tE
qmapshack:_ZN14CRouterBRouterC1EP7QWidget
qmapshack:_ZN14CRouterBRouterC2EP7QWidget
qmapshack:_ZN14CRouterBRouterD0Ev
qmapshack:_ZN14CRouterBRouterD1Ev
qmapshack:_ZN14CRouterBRouterD2Ev
qmapshack:_ZN14CRouterRoutino10getOptionsEv
qmapshack:_ZN14CRouterRoutino11qt_metacallEN11QMetaObject4CallEiPPv
qmapshack:_ZN14CRouterRoutino11qt_metacastEPKc
qmapshack:_ZN14CRouterRoutino12loadProfilesERK7QString
qmapshack:_ZN14CRouterRoutino14hasFastRoutingEv
qmapshack:_ZN14CRouterRoutino14slotSetupPathsEv
qmapshack:_ZN14CRouterRoutino14updateHelpTextEv
qmapshack:_ZN14CRouterRoutino16freeDatabaseListEv
qmapshack:_ZN14CRouterRoutino16staticMetaObjectE
qmapshack:_ZN14CRouterRoutino17buildDatabaseListEv
qmapshack:_ZN14CRouterRoutino17xlateRoutinoErrorEi
qmapshack:_ZN14CRouterRoutino5pSelfE
qmapshack:_ZN14CRouterRoutino8progressE
qmapshack:_ZN14CRouterRoutino9calcRouteERK7QPointFS2_R9QPolygonFPd
qmapshack:_ZN14CRouterRoutino9calcRouteERKN8IGisItem5key_tE
qmapshack:_ZN14CRouterRoutino9setupPathERK7QString
qmapshack:_ZN14CRouterRoutinoC1EP7QWidget
qmapshack:_ZN14CRouterRoutinoC2EP7QWidget
qmapshack:_ZN14CRouterRoutinoD0Ev
qmapshack:_ZN14CRouterRoutinoD1Ev
qmapshack:_ZN14CRouterRoutinoD2Ev
qmapshack:_ZN14CRtOpenSkyInfo10slotUpdateEv
qmapshack:_ZN14CRtOpenSkyInfo11qt_metacallEN11QMetaObject4CallEiPPv
qmapshack:_ZN14CRtOpenSkyInfo11qt_metacastEPKc
qmapshack:_ZN14CRtOpenSkyInfo11startRecordERK7QString
qmapshack:_ZN14CRtOpenSkyInfo12loadSettingsER9QSettings
qmapshack:_ZN14CRtOpenSkyInfo13fillTrackDataER10CTrackData
qmapshack:_ZN14CRtOpenSkyInfo16staticMetaObjectE
qmapshack:_ZN14CRtOpenSkyInfoC1ER10CRtOpenSkyP7QWidget
qmapshack:_ZN14CRtOpenSkyInfoC2ER10CRtOpenSkyP7QWidget
qmapshack:_ZN14CScrOptOvlArea10slotDeleteEv
qmapshack:_ZN14CScrOptOvlArea11qt_metacallEN11QMetaObject4CallEiPPv
qmapshack:_ZN14CScrOptOvlArea11qt_metacastEPKc
qmapshack:_ZN14CScrOptOvlArea15slotEditDetailsEv
qmapshack:_ZN14CScrOptOvlArea16staticMetaObjectE
qmapshack:_ZN14CScrOptOvlArea4drawER8QPainter
qmapshack:_ZN14CScrOptOvlArea8slotCopyEv
qmapshack:_ZN14CScrOptOvlArea8slotEditEv
qmapshack:_ZN14CScrOptOvlArea8slotNogoEv
qmapshack:_ZN14CScrOptOvlArea8slotTagsEv
qmapshack:_ZN14CScrOptOvlAreaC1EP15CGisItemOvlAreaRK6QPointP6IMouse
qmapshack:_ZN14CScrOptOvlAreaC2EP15CGisItemOvlAreaRK6QPointP6IMouse
qmapshack:_ZN14CScrOptOvlAreaD0Ev
qmapshack:_ZN14CScrOptOvlAreaD1Ev
qmapshack:_ZN14CScrOptOvlAreaD2Ev
qmapshack:_ZN14CSetupDatabase10slotOpenDBEv
qmapshack:_ZN14CSetupDatabase11qt_metacallEN11QMetaObject4CallEiPPv
qmapshack:_ZN14CSetupDatabase11qt_metacastEPKc
qmapshack:_ZN14CSetupDatabase16staticMetaObjectE
qmapshack:_ZN14CSetupDatabase19slotUpdateButtonBoxEv
qmapshack:_ZN14CSetupDatabase6acceptEv
qmapshack:_ZN14CSetupDatabase9slotNewDBEv
qmapshack:_ZN14CSetupDatabaseC1ER10CGisListDB
qmapshack:_ZN14CSetupDatabaseC2ER10CGisListDB
qmapshack:_ZN14CSetupDatabaseD0Ev
qmapshack:_ZN14CSetupDatabaseD1Ev
qmapshack:_ZN14CSetupDatabaseD2Ev
qmapshack:_ZN14CTimeZoneSetup6acceptEv
qmapshack:_ZN14CTimeZoneSetupC1EP7QWidget
qmapshack:_ZN14CTimeZoneSetupC2EP7QWidget
qmapshack:_ZN14CTimeZoneSetupD0Ev
qmapshack:_ZN14CTimeZoneSetupD1Ev
qmapshack:_ZN14CTimeZoneSetupD2Ev
qmapshack:_ZN14CToolBarConfig11qt_metacallEN11QMetaObject4CallEiPPv
qmapshack:_ZN14CToolBarConfig11qt_metacastEPKc
qmapshack:_ZN14CToolBarConfig12loadSettingsEv
qmapshack:_ZN14CToolBarConfig16staticMetaObjectE
qmapshack:_ZN14CToolBarConfig20setConfiguredActionsERK5QListIP7QActionE
qmapshack:_ZN14CToolBarConfig26setConfiguredActionsByNameERK11QStringList
qmapshack:_ZN14CToolBarConfig27setDefaultConfiguredActionsEv
qmapshack:_ZN14CToolBarConfigC1ERKP7QObjectRKP8QToolBarRK5QListIP7QActionESD_
qmapshack:_ZN14CToolBarConfigC2ERKP7QObjectRKP8QToolBarRK5QListIP7QActionESD_
qmapshack:_ZN14CToolBarConfigD0Ev
qmapshack:_ZN14CToolBarConfigD1Ev
qmapshack:_ZN14CToolBarConfigD2Ev
qmapshack:_ZN14CTwoNavProject4loadERK7QString
qmapshack:_ZN14CTwoNavProject4saveEv
qmapshack:_ZN14CTwoNavProject6saveAsEv
qmapshack:_ZN14CTwoNavProject8loadWptsERK7QStringRK4QDir
qmapshack:_ZN14CTwoNavProject8saveWptsER5QListIP11CGisItemWptERK7QStringRK4QDir
qmapshack:_ZN14CTwoNavProjectC1ERK7QStringP7IDevice
qmapshack:_ZN14CTwoNavProjectC1ERK7QStringPK11IGisProjectP7IDevice
qmapshack:_ZN14CTwoNavProjectC2ERK7QStringP7IDevice
qmapshack:_ZN14CTwoNavProjectC2ERK7QStringPK11IGisProjectP7IDevice
qmapshack:_ZN14CTwoNavProjectD0Ev
qmapshack:_ZN14CTwoNavProjectD1Ev
qmapshack:_ZN14CTwoNavProjectD2Ev
qmapshack:_ZN14CWptIconDialog11qt_metacallEN11QMetaObject4CallEiPPv
qmapshack:_ZN14CWptIconDialog11qt_metacastEPKc
qmapshack:_ZN14CWptIconDialog12setupSignalsEv
qmapshack:_ZN14CWptIconDialog13slotSetupPathEv
qmapshack:_ZN14CWptIconDialog16staticMetaObjectE
qmapshack:_ZN14CWptIconDialog9setupListEP7QObject
qmapshack:_ZN14CWptIconDialogC1EP11CMainWindow
qmapshack:_ZN14CWptIconDialogC2EP11CMainWindow
qmapshack:_ZN14CWptIconDialogD0Ev
qmapshack:_ZN14CWptIconDialogD1Ev
qmapshack:_ZN14CWptIconDialogD2Ev
qmapshack:_ZN14IDeviceWatcher10sigChangedEv
qmapshack:_ZN14IDeviceWatcher11qt_metacallEN11QMetaObject4CallEiPPv
qmapshack:_ZN14IDeviceWatcher11qt_metacastEPKc
qmapshack:_ZN14IDeviceWatcher14probeForDeviceERK7QStringS2_S2_
qmapshack:_ZN14IDeviceWatcher16staticMetaObjectE
qmapshack:_ZN14IDeviceWatcherC1EP11CGisListWks
qmapshack:_ZN14IDeviceWatcherC2EP11CGisListWks
qmapshack:_ZN14IDeviceWatcherD0Ev
qmapshack:_ZN14IDeviceWatcherD1Ev
qmapshack:_ZN14IDeviceWatcherD2Ev
qmapshack:_ZN14IMouseEditLine10mouseMovedERK6QPoint
qmapshack:_ZN14IMouseEditLine11commonSetupEv
qmapshack:_ZN14IMouseEditLine11leftClickedERK6QPoint
qmapshack:_ZN14IMouseEditLine11qt_metacallEN11QMetaObject4CallEiPPv
qmapshack:_ZN14IMouseEditLine11qt_metacastEPKc
qmapshack:_ZN14IMouseEditLine11slotAbortExEb
qmapshack:_ZN14IMouseEditLine12changeCursorEv
qmapshack:_ZN14IMouseEditLine12scaleChangedEv
qmapshack:_ZN14IMouseEditLine12slotAddPointEv
qmapshack:_ZN14IMouseEditLine12slotOptimizeEv
qmapshack:_ZN14IMouseEditLine12startNewLineERK7QPointF
qmapshack:_ZN14IMouseEditLine12updateStatusEv
qmapshack:_ZN14IMouseEditLine13slotMovePointEv
qmapshack:_ZN14IMouseEditLine13slotNoRoutingEv
qmapshack:_ZN14IMouseEditLine14leftButtonDownERK6QPoint
qmapshack:_ZN14IMouseEditLine14slotCopyToOrigEv
qmapshack:_ZN14IMouseEditLine14storeToHistoryERK8SGisLine
qmapshack:_ZN14IMouseEditLine15rightButtonDownERK6QPoint
qmapshack:_ZN14IMouseEditLine15slotAutoRoutingEv
qmapshack:_ZN14IMouseEditLine15slotDeletePointEv
qmapshack:_ZN14IMouseEditLine15slotSelectRangeEv
qmapshack:_ZN14IMouseEditLine16slotTrackRoutingEv
qmapshack:_ZN14IMouseEditLine16staticMetaObjectE
qmapshack:_ZN14IMouseEditLine17slotVectorRoutingEv
qmapshack:_ZN14IMouseEditLine18restoreFromHistoryER8SGisLine
qmapshack:_ZN14IMouseEditLine4drawER8QPainterN7CCanvas8redraw_eERK5QRect
qmapshack:_ZN14IMouseEditLine8drawLineERK9QPolygonF6QColoriR8QPainter
qmapshack:_ZN14IMouseEditLine8slotRedoEv
qmapshack:_ZN14IMouseEditLine8slotUndoEv
qmapshack:_ZN14IMouseEditLine9abortStepEv
qmapshack:_ZN14IMouseEditLineC1ERKN8IGisItem5key_tER8IGisLinebRK7QStringP8CGisDrawP7CCanvasP13CMouseAdapter
qmapshack:_ZN14IMouseEditLineC1ERKN8IGisItem5key_tERK7QPointFbRK7QStringP8CGisDrawP7CCanvasP13CMouseAdapter
qmapshack:_ZN14IMouseEditLineC2ERKN8IGisItem5key_tER8IGisLinebRK7QStringP8CGisDrawP7CCanvasP13CMouseAdapter
qmapshack:_ZN14IMouseEditLineC2ERKN8IGisItem5key_tERK7QPointFbRK7QStringP8CGisDrawP7CCanvasP13CMouseAdapter
qmapshack:_ZN14IMouseEditLineD0Ev
qmapshack:_ZN14IMouseEditLineD1Ev
qmapshack:_ZN14IMouseEditLineD2Ev
qmapshack:_ZN14ISuuntoProject12mergeSamplesE5QListINS_8sample_tEES0_I11extension_tE
qmapshack:_ZN14ISuuntoProject15fillMissingDataERK7QStringR5QListINS_8sample_tEE
qmapshack:_ZN14ISuuntoProject26fillTrackPointsFromSamplesER5QListINS_8sample_tEERS0_I9QDateTimeER10CTrackDataRKS0_I11extension_tE
qmapshack:_ZN14ISuuntoProject36deleteSamplesWithDuplicateTimestampsER5QListINS_8sample_tEES0_I11extension_tE
qmapshack:_ZN14ISuuntoProjectC1EN11IGisProject6type_eERK7QStringP11CGisListWks
qmapshack:_ZN14ISuuntoProjectC2EN11IGisProject6type_eERK7QStringP11CGisListWks
qmapshack:_ZN15CDBFolderSqlite10copyFolderEyy
qmapshack:_ZN15CDBFolderSqlite11qt_metacallEN11QMetaObject4CallEiPPv
qmapshack:_ZN15CDBFolderSqlite11qt_metacastEPKc
qmapshack:_ZN15CDBFolderSqlite16staticMetaObjectE
qmapshack:_ZN15CDBFolderSqlite6searchERK7QStringR9QSqlQuery
qmapshack:_ZN15CDBFolderSqliteC1ERK7QStringS2_P11QTreeWidget
qmapshack:_ZN15CDBFolderSqliteC2ERK7QStringS2_P11QTreeWidget
qmapshack:_ZN15CDateTimeEditor10paintEventEP11QPaintEvent
qmapshack:_ZN15CDateTimeEditor10wheelEventEP11QWheelEvent
qmapshack:_ZN15CDateTimeEditor11markInvalidENS_5GroupE
qmapshack:_ZN15CDateTimeEditor11qt_metacallEN11QMetaObject4CallEiPPv
qmapshack:_ZN15CDateTimeEditor11qt_metacastEPKc
qmapshack:_ZN15CDateTimeEditor11setDateTimeERK9QDateTime
qmapshack:_ZN15CDateTimeEditor12addCharacterENS_5GroupERK7QString
qmapshack:_ZN15CDateTimeEditor12focusInEventEP11QFocusEvent
qmapshack:_ZN15CDateTimeEditor13focusOutEventEP11QFocusEvent
qmapshack:_ZN15CDateTimeEditor13keyPressEventEP9QKeyEvent
qmapshack:_ZN15CDateTimeEditor15dateTimeChangedERK9QDateTime
qmapshack:_ZN15CDateTimeEditor15mousePressEventEP11QMouseEvent
qmapshack:_ZN15CDateTimeEditor16staticMetaObjectE
qmapshack:_ZN15CDateTimeEditor17addFixedCharacterERK5QChar
qmapshack:_ZN15CDateTimeEditor18focusNextPrevChildEb
qmapshack:_ZN15CDateTimeEditor18selectNextPositionEv
qmapshack:_ZN15CDateTimeEditor18selectPrevPositionEv
qmapshack:_ZN15CDateTimeEditor19selectFirstPositionEv
qmapshack:_ZN15CDateTimeEditor21editSelectedCharacterERK7QString
qmapshack:_ZN15CDateTimeEditor26editSelectedCharacterDeltaEi
qmapshack:_ZN15CDateTimeEditor8addGroupENS_5GroupEiiRK5QChar
qmapshack:_ZN15CDateTimeEditor8validateEv
qmapshack:_ZN15CDateTimeEditor9setNumberENS_5GroupEi
qmapshack:_ZN15CDateTimeEditorC1EP7QWidget
qmapshack:_ZN15CDateTimeEditorC2EP7QWidget
qmapshack:_ZN15CDetailsOvlArea11qt_metacallEN11QMetaObject4CallEiPPv
qmapshack:_ZN15CDetailsOvlArea11qt_metacastEPKc
qmapshack:_ZN15CDetailsOvlArea11slotOpacityEb
qmapshack:_ZN15CDetailsOvlArea12slotSetColorEi
qmapshack:_ZN15CDetailsOvlArea12slotSetStyleEi
qmapshack:_ZN15CDetailsOvlArea12slotSetWidthEi
qmapshack:_ZN15CDetailsOvlArea15slotNameChangedERK7QString
qmapshack:_ZN15CDetailsOvlArea16staticMetaObjectE
qmapshack:_ZN15CDetailsOvlArea17slotLinkActivatedERK4QUrl
qmapshack:_ZN15CDetailsOvlArea22slotChangeReadOnlyModeEb
qmapshack:_ZN15CDetailsOvlArea22slotNameChangeFinishedEv
qmapshack:_ZN15CDetailsOvlArea8setupGuiEv
qmapshack:_ZN15CDetailsOvlAreaC1ER15CGisItemOvlAreaP7QWidget
qmapshack:_ZN15CDetailsOvlAreaC2ER15CGisItemOvlAreaP7QWidget
qmapshack:_ZN15CDetailsOvlAreaD0Ev
qmapshack:_ZN15CDetailsOvlAreaD1Ev
qmapshack:_ZN15CDetailsOvlAreaD2Ev
qmapshack:_ZN15CExportDatabase10closeEventEP11QCloseEvent
qmapshack:_ZN15CExportDatabase10slotStderrERK7QString
qmapshack:_ZN15CExportDatabase10slotStdoutERK7QString
qmapshack:_ZN15CExportDatabase11qt_metacallEN11QMetaObject4CallEiPPv
qmapshack:_ZN15CExportDatabase11qt_metacastEPKc
qmapshack:_ZN15CExportDatabase11slotSetPathEv
qmapshack:_ZN15CExportDatabase11slotStartedEv
qmapshack:_ZN15CExportDatabase12slotFinishedEv
qmapshack:_ZN15CExportDatabase16staticMetaObjectE
qmapshack:_ZN15CExportDatabase9slotStartEv
qmapshack:_ZN15CExportDatabaseC1EyR12QSqlDatabaseP7QWidget
qmapshack:_ZN15CExportDatabaseC2EyR12QSqlDatabaseP7QWidget
qmapshack:_ZN15CExportDatabaseD0Ev
qmapshack:_ZN15CExportDatabaseD1Ev
qmapshack:_ZN15CExportDatabaseD2Ev
qmapshack:_ZN15CFilterLoopsCut11qt_metacallEN11QMetaObject4CallEiPPv
qmapshack:_ZN15CFilterLoopsCut11qt_metacastEPKc
qmapshack:_ZN15CFilterLoopsCut16staticMetaObjectE
qmapshack:_ZN15CFilterLoopsCut8showHelpEv
qmapshack:_ZN15CFilterLoopsCut9slotApplyEv
qmapshack:_ZN15CFilterLoopsCutC1ER11CGisItemTrkP7QWidget
qmapshack:_ZN15CFilterLoopsCutC2ER11CGisItemTrkP7QWidget
qmapshack:_ZN15CFilterLoopsCutD0Ev
qmapshack:_ZN15CFilterLoopsCutD1Ev
qmapshack:_ZN15CFilterLoopsCutD2Ev
qmapshack:_ZN15CFilterSubPt2Pt11qt_metacallEN11QMetaObject4CallEiPPv
qmapshack:_ZN15CFilterSubPt2Pt11qt_metacastEPKc
qmapshack:_ZN15CFilterSubPt2Pt16staticMetaObjectE
qmapshack:_ZN15CFilterSubPt2Pt9slotApplyEv
qmapshack:_ZN15CFilterSubPt2PtC1ER11CGisItemTrkP7QWidget
qmapshack:_ZN15CFilterSubPt2PtC2ER11CGisItemTrkP7QWidget
qmapshack:_ZN15CFitBaseTypeMap10initializeER4QMapIh12CFitBaseTypeE
qmapshack:_ZN15CFitBaseTypeMap3getEh
qmapshack:_ZN15CFitHeaderState5resetEv
qmapshack:_ZN15CFitHeaderState7processERh
qmapshack:_ZN15CGisItemOvlArea10setCommentERK7QString
qmapshack:_ZN15CGisItemOvlArea10setOpacityEb
qmapshack:_ZN15CGisItemOvlArea11createCloneEv
qmapshack:_ZN15CGisItemOvlArea12keyUserFocusE
qmapshack:_ZN15CGisItemOvlArea13drawHighlightER8QPainter
qmapshack:_ZN15CGisItemOvlArea13gainUserFocusEb
qmapshack:_ZN15CGisItemOvlArea14setDescriptionERK7QString
qmapshack:_ZN15CGisItemOvlArea15getPointCloseByERK6QPoint
qmapshack:_ZN15CGisItemOvlArea16getScreenOptionsERK6QPointP6IMouse
qmapshack:_ZN15CGisItemOvlArea16keywordLambdaMapE
qmapshack:_ZN15CGisItemOvlArea17getValueByKeywordE16searchProperty_e
qmapshack:_ZN15CGisItemOvlArea18getPolygonCentroidERK9QPolygonF
qmapshack:_ZN15CGisItemOvlArea19deriveSecondaryDataEv
qmapshack:_ZN15CGisItemOvlArea19setDataFromPolylineERK8SGisLine
qmapshack:_ZN15CGisItemOvlArea20initKeywordLambdaMapEv
qmapshack:_ZN15CGisItemOvlArea23readAreaDataFromGisLineERK8SGisLine
qmapshack:_ZN15CGisItemOvlArea4editEv
qmapshack:_ZN15CGisItemOvlArea4saveER8QDomNodeb
qmapshack:_ZN15CGisItemOvlArea7setIconERK7QString
qmapshack:_ZN15CGisItemOvlArea7setNameERK7QString
qmapshack:_ZN15CGisItemOvlArea8drawItemER8QPainterRK9QPolygonFR5QListI6QRectFEP8CGisDraw
qmapshack:_ZN15CGisItemOvlArea8isWithinERK6QRectFj
qmapshack:_ZN15CGisItemOvlArea8readAreaERK8QDomNodeRNS_6area_tE
qmapshack:_ZN15CGisItemOvlArea8setColorERK6QColor
qmapshack:_ZN15CGisItemOvlArea8setColorEi
qmapshack:_ZN15CGisItemOvlArea8setLinksERK5QListIN8IGisItem6link_tEE
qmapshack:_ZN15CGisItemOvlArea8setStyleEi
qmapshack:_ZN15CGisItemOvlArea8setWidthEi
qmapshack:_ZN15CGisItemOvlArea9drawLabelER8QPainterRK9QPolygonFR5QListI6QRectFERK13QFontMetricsFP8CGisDraw
qmapshack:_ZN15CGisItemOvlArea9isCloseToERK7QPointF
qmapshack:_ZN15CGisItemOvlArea9setSymbolEv
qmapshack:_ZN15CGisItemOvlAreaC1ERK12IQlgtOverlayP11IGisProject
qmapshack:_ZN15CGisItemOvlAreaC1ERK8QDomNodeP11IGisProject
qmapshack:_ZN15CGisItemOvlAreaC1ERK8SGisLineRK7QStringP11IGisProjecti
qmapshack:_ZN15CGisItemOvlAreaC1ERKN8IGisItem9history_tERK7QStringP11IGisProject
qmapshack:_ZN15CGisItemOvlAreaC1ERKS_P11IGisProjectib
qmapshack:_ZN15CGisItemOvlAreaC1EyR12QSqlDatabaseP11IGisProject
qmapshack:_ZN15CGisItemOvlAreaC2ERK12IQlgtOverlayP11IGisProject
qmapshack:_ZN15CGisItemOvlAreaC2ERK8QDomNodeP11IGisProject
qmapshack:_ZN15CGisItemOvlAreaC2ERK8SGisLineRK7QStringP11IGisProjecti
qmapshack:_ZN15CGisItemOvlAreaC2ERKN8IGisItem9history_tERK7QStringP11IGisProject
qmapshack:_ZN15CGisItemOvlAreaC2ERKS_P11IGisProjectib
qmapshack:_ZN15CGisItemOvlAreaC2EyR12QSqlDatabaseP11IGisProject
qmapshack:_ZN15CGisItemOvlAreaD0Ev
qmapshack:_ZN15CGisItemOvlAreaD1Ev
qmapshack:_ZN15CGisItemOvlAreaD2Ev
qmapshack:_ZN15CGisItemOvlArealsER11QDataStream
qmapshack:_ZN15CImportDatabase11qt_metacallEN11QMetaObject4CallEiPPv
qmapshack:_ZN15CImportDatabase11qt_metacastEPKc
qmapshack:_ZN15CImportDatabase16slotSelectSourceEv
qmapshack:_ZN15CImportDatabase16slotSelectTargetEv
qmapshack:_ZN15CImportDatabase16staticMetaObjectE
qmapshack:_ZN15CImportDatabase6stdErrERK7QString
qmapshack:_ZN15CImportDatabase6stdOutERK7QString
qmapshack:_ZN15CImportDatabase9slotStartEv
qmapshack:_ZN15CImportDatabaseC1EP7QWidget
qmapshack:_ZN15CImportDatabaseC2EP7QWidget
qmapshack:_ZN15CImportDatabaseD0Ev
qmapshack:_ZN15CImportDatabaseD1Ev
qmapshack:_ZN15CImportDatabaseD2Ev
qmapshack:_ZN15CKnownExtension10initMioTPXERK5IUnit
qmapshack:_ZN15CKnownExtension10registerNSERK7QString
qmapshack:_ZN15CKnownExtension11internalEleE
qmapshack:_ZN15CKnownExtension12registeredNSE
qmapshack:_ZN15CKnownExtension13internalSlopeE
qmapshack:_ZN15CKnownExtension15initGarminTPXv1ERK5IUnitRK7QString
qmapshack:_ZN15CKnownExtension15knownExtensionsE
qmapshack:_ZN15CKnownExtension16internalProgressE
qmapshack:_ZN15CKnownExtension17internalSpeedDistE
qmapshack:_ZN15CKnownExtension17internalSpeedTimeE
qmapshack:_ZN15CKnownExtension18initClueTrustTPXv1ERK5IUnitRK7QString
qmapshack:_ZN15CKnownExtension20internalTerrainSlopeE
qmapshack:_ZN15CKnownExtension3getERK7QString
qmapshack:_ZN15CKnownExtension4initERK5IUnit
qmapshack:_ZN15CKnownExtension7isKnownERK7QString
qmapshack:_ZN15CLineOpAddPoint15rightButtonDownERK6QPoint
qmapshack:_ZN15CLineOpAddPoint6appendEv
qmapshack:_ZN15CLineOpAddPoint6drawFgER8QPainter
qmapshack:_ZN15CLineOpAddPoint9abortStepEv
qmapshack:_ZN15CLineOpAddPoint9leftClickERK6QPoint
qmapshack:_ZN15CLineOpAddPoint9mouseMoveERK6QPoint
qmapshack:_ZN15CLineOpAddPointC1ER8SGisLineP8CGisDrawP7CCanvasP14IMouseEditLine
qmapshack:_ZN15CLineOpAddPointC2ER8SGisLineP8CGisDrawP7CCanvasP14IMouseEditLine
qmapshack:_ZN15CLineOpAddPointD0Ev
qmapshack:_ZN15CLineOpAddPointD1Ev
qmapshack:_ZN15CLineOpAddPointD2Ev
qmapshack:_ZN15CMouseRadiusWpt10mouseMovedERK6QPoint
qmapshack:_ZN15CMouseRadiusWpt11leftClickedERK6QPoint
qmapshack:_ZN15CMouseRadiusWpt11qt_metacallEN11QMetaObject4CallEiPPv
qmapshack:_ZN15CMouseRadiusWpt11qt_metacastEPKc
qmapshack:_ZN15CMouseRadiusWpt12mouseDraggedERK6QPointS2_S2_
qmapshack:_ZN15CMouseRadiusWpt12scaleChangedEv
qmapshack:_ZN15CMouseRadiusWpt15rightButtonDownERK6QPoint
qmapshack:_ZN15CMouseRadiusWpt16staticMetaObjectE
qmapshack:_ZN15CMouseRadiusWpt4drawER8QPainterN7CCanvas8redraw_eERK5QRect
qmapshack:_ZN15CMouseRadiusWptC1ER11CGisItemWptP8CGisDrawP7CCanvasP13CMouseAdapter
qmapshack:_ZN15CMouseRadiusWptC2ER11CGisItemWptP8CGisDrawP7CCanvasP13CMouseAdapter
qmapshack:_ZN15CMouseRadiusWptD0Ev
qmapshack:_ZN15CMouseRadiusWptD1Ev
qmapshack:_ZN15CMouseRadiusWptD2Ev
qmapshack:_ZN15CMouseWptBubble10mouseMovedERK6QPoint
qmapshack:_ZN15CMouseWptBubble11leftClickedERK6QPoint
qmapshack:_ZN15CMouseWptBubble11qt_metacallEN11QMetaObject4CallEiPPv
qmapshack:_ZN15CMouseWptBubble11qt_metacastEPKc
qmapshack:_ZN15CMouseWptBubble12dragFinishedERK6QPoint
qmapshack:_ZN15CMouseWptBubble12mouseDraggedERK6QPointS2_S2_
qmapshack:_ZN15CMouseWptBubble16staticMetaObjectE
qmapshack:_ZN15CMouseWptBubble4drawER8QPainterN7CCanvas8redraw_eERK5QRect
qmapshack:_ZN15CMouseWptBubbleC1ERKN8IGisItem5key_tEP8CGisDrawP7CCanvasP13CMouseAdapter
qmapshack:_ZN15CMouseWptBubbleC2ERKN8IGisItem5key_tEP8CGisDrawP7CCanvasP13CMouseAdapter
qmapshack:_ZN15CMouseWptBubbleD0Ev
qmapshack:_ZN15CMouseWptBubbleD1Ev
qmapshack:_ZN15CMouseWptBubbleD2Ev
qmapshack:_ZN15CPositionDialog11getPositionER7QPointFRK7QString
qmapshack:_ZN15CPositionDialog11qt_metacallEN11QMetaObject4CallEiPPv
qmapshack:_ZN15CPositionDialog11qt_metacastEPKc
qmapshack:_ZN15CPositionDialog16staticMetaObjectE
qmapshack:_ZN15CPositionDialog6acceptEv
qmapshack:_ZN15CPositionDialog8slotEditERK7QString
qmapshack:_ZN15CPositionDialogC1EP7QWidgetR7QPointF
qmapshack:_ZN15CPositionDialogC2EP7QWidgetR7QPointF
qmapshack:_ZN15CPositionDialogD0Ev
qmapshack:_ZN15CPositionDialogD1Ev
qmapshack:_ZN15CPositionDialogD2Ev
qmapshack:_ZN15CProgressDialog11qt_metacallEN11QMetaObject4CallEiPPv
qmapshack:_ZN15CProgressDialog11qt_metacastEPKc
qmapshack:_ZN15CProgressDialog11wasCanceledEv
qmapshack:_ZN15CProgressDialog12enableCancelEb
qmapshack:_ZN15CProgressDialog13setAllVisibleEb
qmapshack:_ZN15CProgressDialog16staticMetaObjectE
qmapshack:_ZN15CProgressDialog4goOnEv
qmapshack:_ZN15CProgressDialog4selfEv
qmapshack:_ZN15CProgressDialog5pauseEv
qmapshack:_ZN15CProgressDialog6rejectEv
qmapshack:_ZN15CProgressDialog8setValueEi
qmapshack:_ZN15CProgressDialog9showEventEP10QShowEvent
qmapshack:_ZN15CProgressDialog9stackSelfE
qmapshack:_ZN15CProgressDialogC1E7QStringiiP7QWidget
qmapshack:_ZN15CProgressDialogC2E7QStringiiP7QWidget
qmapshack:_ZN15CProgressDialogD0Ev
qmapshack:_ZN15CProgressDialogD1Ev
qmapshack:_ZN15CProgressDialogD2Ev
qmapshack:_ZN15CRangeToolSetup11qt_metacallEN11QMetaObject4CallEiPPv
qmapshack:_ZN15CRangeToolSetup11qt_metacastEPKc
qmapshack:_ZN15CRangeToolSetup16staticMetaObjectE
qmapshack:_ZN15CRangeToolSetup6acceptEv
qmapshack:_ZN15CRangeToolSetupC1ER16CScrOptRangeTool
qmapshack:_ZN15CRangeToolSetupC2ER16CScrOptRangeTool
qmapshack:_ZN15CRouterMapQuest10getOptionsEv
qmapshack:_ZN15CRouterMapQuest11keyMapQuestE
qmapshack:_ZN15CRouterMapQuest11qt_metacallEN11QMetaObject4CallEiPPv
qmapshack:_ZN15CRouterMapQuest11qt_metacastEPKc
qmapshack:_ZN15CRouterMapQuest16staticMetaObjectE
qmapshack:_ZN15CRouterMapQuest18slotCloseStatusMsgEv
qmapshack:_ZN15CRouterMapQuest19slotRequestFinishedEP13QNetworkReply
qmapshack:_ZN15CRouterMapQuest20addMapQuestLocationsER12QDomDocumentR11QDomElementR11CGisItemRte
qmapshack:_ZN15CRouterMapQuest9calcRouteERKN8IGisItem5key_tE
qmapshack:_ZN15CRouterMapQuestC1EP7QWidget
qmapshack:_ZN15CRouterMapQuestC2EP7QWidget
qmapshack:_ZN15CRouterMapQuestD0Ev
qmapshack:_ZN15CRouterMapQuestD1Ev
qmapshack:_ZN15CRouterMapQuestD2Ev
qmapshack:_ZN15CRtSelectSource11qt_metacallEN11QMetaObject4CallEiPPv
qmapshack:_ZN15CRtSelectSource11qt_metacastEPKc
qmapshack:_ZN15CRtSelectSource16staticMetaObjectE
qmapshack:_ZN15CRtSelectSource20slotSelectionChangedEv
qmapshack:_ZN15CRtSelectSource6acceptEv
qmapshack:_ZN15CRtSelectSourceC1ER12CRtWorkspace
qmapshack:_ZN15CRtSelectSourceC2ER12CRtWorkspace
qmapshack:_ZN15CRtSelectSourceD0Ev
qmapshack:_ZN15CRtSelectSourceD1Ev
qmapshack:_ZN15CRtSelectSourceD2Ev
qmapshack:_ZN15CScrOptEditLine11qt_metacallEN11QMetaObject4CallEiPPv
qmapshack:_ZN15CScrOptEditLine11qt_metacastEPKc
qmapshack:_ZN15CScrOptEditLine16staticMetaObjectE
qmapshack:_ZN15CScrOptEditLineC1EP6IMouse
qmapshack:_ZN15CScrOptEditLineC2EP6IMouse
qmapshack:_ZN15CScrOptEditLineD0Ev
qmapshack:_ZN15CScrOptEditLineD1Ev
qmapshack:_ZN15CScrOptEditLineD2Ev
qmapshack:_ZN15CScrOptRangeTrk11qt_metacallEN11QMetaObject4CallEiPPv
qmapshack:_ZN15CScrOptRangeTrk11qt_metacastEPKc
qmapshack:_ZN15CScrOptRangeTrk16staticMetaObjectE
qmapshack:_ZN15CScrOptRangeTrk4drawER8QPainter
qmapshack:_ZN15CScrOptRangeTrkC1ERK7QPointFP11CGisItemTrkP6IMouseP7QWidget
qmapshack:_ZN15CScrOptRangeTrkC2ERK7QPointFP11CGisItemTrkP6IMouseP7QWidget
qmapshack:_ZN15CScrOptRangeTrkD0Ev
qmapshack:_ZN15CScrOptRangeTrkD1Ev
qmapshack:_ZN15CScrOptRangeTrkD2Ev
qmapshack:_ZN15CSearchDatabase10slotSearchEv
qmapshack:_ZN15CSearchDatabase11qt_metacallEN11QMetaObject4CallEiPPv
qmapshack:_ZN15CSearchDatabase11qt_metacastEPKc
qmapshack:_ZN15CSearchDatabase12updateFolderEP9IDBFolderP14CEvtW2DAckInfo
qmapshack:_ZN15CSearchDatabase14sigItemChangedEP15QTreeWidgetItemi
qmapshack:_ZN15CSearchDatabase15slotItemChangedEP15QTreeWidgetItemi
qmapshack:_ZN15CSearchDatabase16staticMetaObjectE
qmapshack:_ZN15CSearchDatabase20addWithParentFoldersEP11QTreeWidgetP9IDBFolderR4QMapIyS3_ER12QSqlDatabase
qmapshack:_ZN15CSearchDatabase5eventEP6QEvent
qmapshack:_ZN15CSearchDatabaseC1ER9IDBFolderP10CGisListDB
qmapshack:_ZN15CSearchDatabaseC2ER9IDBFolderP10CGisListDB
qmapshack:_ZN15CSearchLineEdit11qt_metacallEN11QMetaObject4CallEiPPv
qmapshack:_ZN15CSearchLineEdit11qt_metacastEPKc
qmapshack:_ZN15CSearchLineEdit14explanationDlgE
qmapshack:_ZN15CSearchLineEdit14slotSearchHelpEv
qmapshack:_ZN15CSearchLineEdit15slotClearFilterEv
qmapshack:_ZN15CSearchLineEdit15slotSetupSearchEv
qmapshack:_ZN15CSearchLineEdit16sigSearchClearedEP11IGisProject
qmapshack:_ZN15CSearchLineEdit16slotCreateSearchERK7QString
qmapshack:_ZN15CSearchLineEdit16staticMetaObjectE
qmapshack:_ZN15CSearchLineEdit17slotCaseSensitiveEb
qmapshack:_ZN15CSearchLineEdit18slotSearchNameOnlyEb
qmapshack:_ZN15CSearchLineEdit22slotSearchCompleteTextEb
qmapshack:_ZN15CSearchLineEdit25sigWorkspaceSearchChangedE7CSearch
qmapshack:_ZN15CSearchLineEditC1EP7QWidget
qmapshack:_ZN15CSearchLineEditC1EP7QWidgetP11IGisProjectP7CSearch
qmapshack:_ZN15CSearchLineEditC2EP7QWidget
qmapshack:_ZN15CSearchLineEditC2EP7QWidgetP11IGisProjectP7CSearch
qmapshack:_ZN15CSelectDBFolder11qt_metacallEN11QMetaObject4CallEiPPv
qmapshack:_ZN15CSelectDBFolder11qt_metacastEPKc
qmapshack:_ZN15CSelectDBFolder16slotItemExpandedEP15QTreeWidgetItem
qmapshack:_ZN15CSelectDBFolder16staticMetaObjectE
qmapshack:_ZN15CSelectDBFolder24slotItemSelectionChangedEv
qmapshack:_ZN15CSelectDBFolderC1ER5QListIyER7QStringS4_P7QWidget
qmapshack:_ZN15CSelectDBFolderC2ER5QListIyER7QStringS4_P7QWidget
qmapshack:_ZN15CSelectDBFolderD0Ev
qmapshack:_ZN15CSelectDBFolderD1Ev
qmapshack:_ZN15CSelectDBFolderD2Ev
qmapshack:_ZN15CSetupWorkspace11qt_metacallEN11QMetaObject4CallEiPPv
qmapshack:_ZN15CSetupWorkspace11qt_metacastEPKc
qmapshack:_ZN15CSetupWorkspace16staticMetaObjectE
qmapshack:_ZN15CSetupWorkspace6acceptEv
qmapshack:_ZN15CSetupWorkspaceC1EP13CGisWorkspaceP7QWidget
qmapshack:_ZN15CSetupWorkspaceC2EP13CGisWorkspaceP7QWidget
qmapshack:_ZN15CSetupWorkspaceD0Ev
qmapshack:_ZN15CSetupWorkspaceD1Ev
qmapshack:_ZN15CSetupWorkspaceD2Ev
qmapshack:_ZN15CTemplateWidget11qt_metacallEN11QMetaObject4CallEiPPv
qmapshack:_ZN15CTemplateWidget11qt_metacastEPKc
qmapshack:_ZN15CTemplateWidget11slotPreviewEv
qmapshack:_ZN15CTemplateWidget11slotSetPathEv
qmapshack:_ZN15CTemplateWidget12resolveGroupEPK9QGroupBox
qmapshack:_ZN15CTemplateWidget13listTemplatesEv
qmapshack:_ZN15CTemplateWidget16staticMetaObjectE
qmapshack:_ZN15CTemplateWidget21slotTemplateActivatedEi
qmapshack:_ZN15CTemplateWidget4textEv
qmapshack:_ZN15CTemplateWidgetC1EP7QWidget
qmapshack:_ZN15CTemplateWidgetC2EP7QWidget
qmapshack:_ZN15CTextEditWidget10textItalicEv
qmapshack:_ZN15CTextEditWidget11fontChangedERK5QFont
qmapshack:_ZN15CTextEditWidget11qt_metacallEN11QMetaObject4CallEiPPv
qmapshack:_ZN15CTextEditWidget11qt_metacastEPKc
qmapshack:_ZN15CTextEditWidget11resetLayoutEv
qmapshack:_ZN15CTextEditWidget12colorChangedERK6QColor
qmapshack:_ZN15CTextEditWidget13textUnderlineEv
qmapshack:_ZN15CTextEditWidget14deleteSelectedEv
qmapshack:_ZN15CTextEditWidget16alignmentChangedE6QFlagsIN2Qt13AlignmentFlagEE
qmapshack:_ZN15CTextEditWidget16selectionChangedEv
qmapshack:_ZN15CTextEditWidget16staticMetaObjectE
qmapshack:_ZN15CTextEditWidget16textEditScrolledEv
qmapshack:_ZN15CTextEditWidget18insertFromTemplateEv
qmapshack:_ZN15CTextEditWidget20clipboardDataChangedEv
qmapshack:_ZN15CTextEditWidget21cursorPositionChangedEv
qmapshack:_ZN15CTextEditWidget21updateSelectionWindowEv
qmapshack:_ZN15CTextEditWidget24currentCharFormatChangedERK15QTextCharFormat
qmapshack:_ZN15CTextEditWidget26customContextMenuRequestedEv
qmapshack:_ZN15CTextEditWidget28mergeFormatOnWordOrSelectionERK15QTextCharFormat
qmapshack:_ZN15CTextEditWidget5eventEP6QEvent
qmapshack:_ZN15CTextEditWidget7getHtmlEv
qmapshack:_ZN15CTextEditWidget8textBoldEv
qmapshack:_ZN15CTextEditWidget9moveEventEP10QMoveEvent
qmapshack:_ZN15CTextEditWidget9pasteModeEP7QAction
qmapshack:_ZN15CTextEditWidget9resetFontEv
qmapshack:_ZN15CTextEditWidget9textAlignEP7QAction
qmapshack:_ZN15CTextEditWidget9textColorEv
qmapshack:_ZN15CTextEditWidget9textStyleEi
qmapshack:_ZN15CTextEditWidgetC1ERK7QStringP7QWidget
qmapshack:_ZN15CTextEditWidgetC2ERK7QStringP7QWidget
qmapshack:_ZN15CTextEditWidgetD0Ev
qmapshack:_ZN15CTextEditWidgetD1Ev
qmapshack:_ZN15CTextEditWidgetD2Ev
qmapshack:_ZN15CTrkToRteDialog11qt_metacallEN11QMetaObject4CallEiPPv
qmapshack:_ZN15CTrkToRteDialog11qt_metacastEPKc
qmapshack:_ZN15CTrkToRteDialog11slotProjectEv
qmapshack:_ZN15CTrkToRteDialog16buttonBoxEnabledEv
qmapshack:_ZN15CTrkToRteDialog16slotRouteChangedERK7QString
qmapshack:_ZN15CTrkToRteDialog16staticMetaObjectE
qmapshack:_ZN15CTrkToRteDialog6acceptEv
qmapshack:_ZN15CTrkToRteDialogC1ERP11IGisProjectR7QStringRb
qmapshack:_ZN15CTrkToRteDialogC2ERP11IGisProjectR7QStringRb
qmapshack:_ZN15CTrkToRteDialogD0Ev
qmapshack:_ZN15CTrkToRteDialogD1Ev
qmapshack:_ZN15CTrkToRteDialogD2Ev
qmapshack:_ZN15CWptIconManager10wptDefaultE
qmapshack:_ZN15CWptIconManager13selectWptIconEP7QWidget
qmapshack:_ZN15CWptIconManager14getWptIconMenuERK7QStringP7QObjectPKcP7QWidget
qmapshack:_ZN15CWptIconManager15createGrayscaleE7QString
qmapshack:_ZN15CWptIconManager16getWptIconByNameERK7QStringR7QPointFPS0_
qmapshack:_ZN15CWptIconManager16setWptIconByNameERK7QStringRK7QPixmap
qmapshack:_ZN15CWptIconManager16setWptIconByNameERK7QStringS2_
qmapshack:_ZN15CWptIconManager17getNumberedBulletEi
qmapshack:_ZN15CWptIconManager21removeNumberedBulletsEv
qmapshack:_ZN15CWptIconManager4initEv
qmapshack:_ZN15CWptIconManager5pSelfE
qmapshack:_ZN15CWptIconManager8loadIconERK7QString
qmapshack:_ZN15CWptIconManagerC1EP7QObject
qmapshack:_ZN15CWptIconManagerC2EP7QObject
qmapshack:_ZN15CWptIconManagerD0Ev
qmapshack:_ZN15CWptIconManagerD1Ev
qmapshack:_ZN15CWptIconManagerD2Ev
qmapshack:_ZN16CDBFolderProjectC1ER12QSqlDatabaseyP15QTreeWidgetItem
qmapshack:_ZN16CDBFolderProjectC2ER12QSqlDatabaseyP15QTreeWidgetItem
qmapshack:_ZN16CDBFolderProjectD0Ev
qmapshack:_ZN16CDBFolderProjectD1Ev
qmapshack:_ZN16CDBFolderProjectD2Ev
qmapshack:_ZN16CDetailsGeoCache11qt_metacallEN11QMetaObject4CallEiPPv
qmapshack:_ZN16CDetailsGeoCache11qt_metacastEPKc
qmapshack:_ZN16CDetailsGeoCache15slotHintChangedEb
qmapshack:_ZN16CDetailsGeoCache15slotLinkClickedERK4QUrl
qmapshack:_ZN16CDetailsGeoCache16slotDownloadDoneEv
qmapshack:_ZN16CDetailsGeoCache16slotVisitWebsiteEv
qmapshack:_ZN16CDetailsGeoCache16staticMetaObjectE
qmapshack:_ZN16CDetailsGeoCache18slotCollectSpoilerEv
qmapshack:_ZN16CDetailsGeoCache19slotRequestFinishedEP13QNetworkReply
qmapshack:_ZN16CDetailsGeoCacheC1ER11CGisItemWptP7QWidget
qmapshack:_ZN16CDetailsGeoCacheC2ER11CGisItemWptP7QWidget
qmapshack:_ZN16CDetailsGeoCacheD0Ev
qmapshack:_ZN16CDetailsGeoCacheD1Ev
qmapshack:_ZN16CDetailsGeoCacheD2Ev
qmapshack:_ZN16CElevationDialog10slotGetEleEv
qmapshack:_ZN16CElevationDialog11qt_metacallEN11QMetaObject4CallEiPPv
qmapshack:_ZN16CElevationDialog11qt_metacastEPKc
qmapshack:_ZN16CElevationDialog16staticMetaObjectE
qmapshack:_ZN16CElevationDialog6acceptEv
qmapshack:_ZN16CElevationDialog9slotResetEv
qmapshack:_ZN16CElevationDialogC1EP7QWidgetR8QVariantRKS2_RK7QPointF
qmapshack:_ZN16CElevationDialogC2EP7QWidgetR8QVariantRKS2_RK7QPointF
qmapshack:_ZN16CElevationDialogD0Ev
qmapshack:_ZN16CElevationDialogD1Ev
qmapshack:_ZN16CElevationDialogD2Ev
qmapshack:_ZN16CFilterSpeedHike11qt_metacallEN11QMetaObject4CallEiPPv
qmapshack:_ZN16CFilterSpeedHike11qt_metacastEPKc
qmapshack:_ZN16CFilterSpeedHike12loadSettingsER9QSettings
qmapshack:_ZN16CFilterSpeedHike12saveSettingsER9QSettings
qmapshack:_ZN16CFilterSpeedHike16slotSetAscendingEd
qmapshack:_ZN16CFilterSpeedHike16staticMetaObjectE
qmapshack:_ZN16CFilterSpeedHike17slotSetDescendingEd
qmapshack:_ZN16CFilterSpeedHike17slotSetHikingTypeEi
qmapshack:_ZN16CFilterSpeedHike17slotSetPlainSpeedEd
qmapshack:_ZN16CFilterSpeedHike5applyER11CGisItemTrk
qmapshack:_ZN16CFilterSpeedHikeC1EP7QWidget
qmapshack:_ZN16CFilterSpeedHikeC2EP7QWidget
qmapshack:_ZN16CFitFieldBuilder10buildFieldERK16CFitFieldProfileRK19CFitFieldDefinitionPhRK11CFitMessage
qmapshack:_ZN16CFitFieldBuilder10buildFieldERK19CFitFieldDefinitionPhRK11CFitMessage
qmapshack:_ZN16CFitFieldBuilder12isValueValidERK19CFitFieldDefinitionPh
qmapshack:_ZN16CFitFieldBuilder16expandComponentsER11CFitMessageRK9CFitField
qmapshack:_ZN16CFitFieldBuilder20evaluateFieldProfileER11CFitMessageRK9CFitField
qmapshack:_ZN16CFitFieldBuilder36evaluateSubfieldsAndExpandComponentsER11CFitMessage
qmapshack:_ZN16CFitFieldProfile11addSubfieldEP19CFitSubfieldProfile
qmapshack:_ZN16CFitFieldProfile12addComponentEP25CFitComponentfieldProfile
qmapshack:_ZN16CFitFieldProfile12addComponentEiP25CFitComponentfieldProfile
qmapshack:_ZN16CFitFieldProfile16fieldProfileInfoEv
qmapshack:_ZN16CFitFieldProfileC1EP11CFitProfile7QStringRK12CFitBaseTypehdsS2_12field_type_e
qmapshack:_ZN16CFitFieldProfileC1EP11CFitProfile7QStringRK12CFitBaseTypehhdsS2_12field_type_e
qmapshack:_ZN16CFitFieldProfileC1ERKS_
qmapshack:_ZN16CFitFieldProfileC1Ev
qmapshack:_ZN16CFitFieldProfileC2EP11CFitProfile7QStringRK12CFitBaseTypehdsS2_12field_type_e
qmapshack:_ZN16CFitFieldProfileC2EP11CFitProfile7QStringRK12CFitBaseTypehhdsS2_12field_type_e
qmapshack:_ZN16CFitFieldProfileC2ERKS_
qmapshack:_ZN16CFitFieldProfileC2Ev
qmapshack:_ZN16CFitFieldProfileD0Ev
qmapshack:_ZN16CFitFieldProfileD1Ev
qmapshack:_ZN16CFitFieldProfileD2Ev
qmapshack:_ZN16CGeoSearchConfig11emitChangedEv
qmapshack:_ZN16CGeoSearchConfig11qt_metacallEN11QMetaObject4CallEiPPv
qmapshack:_ZN16CGeoSearchConfig11qt_metacastEPKc
qmapshack:_ZN16CGeoSearchConfig16sigConfigChangedEv
qmapshack:_ZN16CGeoSearchConfig16staticMetaObjectE
qmapshack:_ZN16CGeoSearchConfig4loadEv
qmapshack:_ZN16CGeoSearchConfig5pSelfE
qmapshack:_ZN16CGeoSearchConfigC1EP7QObject
qmapshack:_ZN16CGeoSearchConfigC2EP7QObject
qmapshack:_ZN16CGisSummarySetup11qt_metacallEN11QMetaObject4CallEiPPv
qmapshack:_ZN16CGisSummarySetup11qt_metacastEPKc
qmapshack:_ZN16CGisSummarySetup12setupSignalsEN11CGisSummary10dropzone_eEP9QLineEditP11QListWidgetP11QToolButtonS7_
qmapshack:_ZN16CGisSummarySetup16staticMetaObjectE
qmapshack:_ZN16CGisSummarySetup24slotItemSelectionChangedEP11QListWidgetP11QToolButton
qmapshack:_ZN16CGisSummarySetup6acceptEv
qmapshack:_ZN16CGisSummarySetup7slotAddEP11QListWidget
qmapshack:_ZN16CGisSummarySetup7slotDelEP11QListWidget
qmapshack:_ZN16CGisSummarySetup9addFolderEyRK7QStringP11QListWidget
qmapshack:_ZN16CGisSummarySetupC1ER11CGisSummary
qmapshack:_ZN16CGisSummarySetupC2ER11CGisSummary
qmapshack:_ZN16CLineOpMovePoint15rightButtonDownERK6QPoint
qmapshack:_ZN16CLineOpMovePoint6drawFgER8QPainter
qmapshack:_ZN16CLineOpMovePoint9abortStepEv
qmapshack:_ZN16CLineOpMovePoint9leftClickERK6QPoint
qmapshack:_ZN16CLineOpMovePoint9mouseMoveERK6QPoint
qmapshack:_ZN16CLineOpMovePointC1ER8SGisLineP8CGisDrawP7CCanvasP14IMouseEditLine
qmapshack:_ZN16CLineOpMovePointC2ER8SGisLineP8CGisDrawP7CCanvasP14IMouseEditLine
qmapshack:_ZN16CLineOpMovePointD0Ev
qmapshack:_ZN16CLineOpMovePointD1Ev
qmapshack:_ZN16CLineOpMovePointD2Ev
qmapshack:_ZN16CRtGpsTetherInfo10sigChangedEv
qmapshack:_ZN16CRtGpsTetherInfo10slotUpdateEv
qmapshack:_ZN16CRtGpsTetherInfo10verifyLineERK7QString
qmapshack:_ZN16CRtGpsTetherInfo11autoConnectEi
qmapshack:_ZN16CRtGpsTetherInfo11qt_metacallEN11QMetaObject4CallEiPPv
qmapshack:_ZN16CRtGpsTetherInfo11qt_metacastEPKc
qmapshack:_ZN16CRtGpsTetherInfo11slotConnectEb
qmapshack:_ZN16CRtGpsTetherInfo11startRecordERK7QString
qmapshack:_ZN16CRtGpsTetherInfo12loadSettingsER9QSettings
qmapshack:_ZN16CRtGpsTetherInfo13fillTrackDataER10CTrackData
qmapshack:_ZN16CRtGpsTetherInfo13slotConnectedEv
qmapshack:_ZN16CRtGpsTetherInfo13slotReadyReadEv
qmapshack:_ZN16CRtGpsTetherInfo16slotDisconnectedEv
qmapshack:_ZN16CRtGpsTetherInfo16staticMetaObjectE
qmapshack:_ZN16CRtGpsTetherInfo18disconnectFromHostEv
qmapshack:_ZN16CRtGpsTetherInfo7nmeaGGAERK11QStringList
qmapshack:_ZN16CRtGpsTetherInfo7nmeaGSAERK11QStringList
qmapshack:_ZN16CRtGpsTetherInfo7nmeaGSVERK11QStringList
qmapshack:_ZN16CRtGpsTetherInfo7nmeaRMCERK11QStringList
qmapshack:_ZN16CRtGpsTetherInfo7nmeaVTGERK11QStringList
qmapshack:_ZN16CRtGpsTetherInfo9slotErrorEN15QAbstractSocket11SocketErrorE
qmapshack:_ZN16CRtGpsTetherInfoC1ER12CRtGpsTetherP7QWidget
qmapshack:_ZN16CRtGpsTetherInfoC2ER12CRtGpsTetherP7QWidget
qmapshack:_ZN16CRtGpsTetherInfoD0Ev
qmapshack:_ZN16CRtGpsTetherInfoD1Ev
qmapshack:_ZN16CRtGpsTetherInfoD2Ev
qmapshack:_ZN16CRtOpenSkyRecord10writeEntryERKN10CRtOpenSky10aircraft_tE
qmapshack:_ZN16CRtOpenSkyRecord11qt_metacallEN11QMetaObject4CallEiPPv
qmapshack:_ZN16CRtOpenSkyRecord11qt_metacastEPKc
qmapshack:_ZN16CRtOpenSkyRecord16staticMetaObjectE
qmapshack:_ZN16CRtOpenSkyRecordC1EP7QObject
qmapshack:_ZN16CRtOpenSkyRecordC2EP7QObject
qmapshack:_ZN16CScrOptRangeLine11qt_metacallEN11QMetaObject4CallEiPPv
qmapshack:_ZN16CScrOptRangeLine11qt_metacastEPKc
qmapshack:_ZN16CScrOptRangeLine16staticMetaObjectE
qmapshack:_ZN16CScrOptRangeLine4drawER8QPainter
qmapshack:_ZN16CScrOptRangeLineC1ERK7QPointFP6IMouseP7QWidget
qmapshack:_ZN16CScrOptRangeLineC2ERK7QPointFP6IMouseP7QWidget
qmapshack:_ZN16CScrOptRangeLineD0Ev
qmapshack:_ZN16CScrOptRangeLineD1Ev
qmapshack:_ZN16CScrOptRangeLineD2Ev
qmapshack:_ZN16CScrOptRangeTool10slotDeleteEv
qmapshack:_ZN16CScrOptRangeTool10updateDataEv
qmapshack:_ZN16CScrOptRangeTool11qt_metacallEN11QMetaObject4CallEiPPv
qmapshack:_ZN16CScrOptRangeTool11qt_metacastEPKc
qmapshack:_ZN16CScrOptRangeTool11slotToRouteEv
qmapshack:_ZN16CScrOptRangeTool12slotActivityEv
qmapshack:_ZN16CScrOptRangeTool13setMouseFocusEPKN10CTrackData7trkpt_tE
qmapshack:_ZN16CScrOptRangeTool14slotHidePointsEv
qmapshack:_ZN16CScrOptRangeTool14slotResetRangeEv
qmapshack:_ZN16CScrOptRangeTool14slotShowPointsEv
qmapshack:_ZN16CScrOptRangeTool16slotCanvasResizeERK5QSize
qmapshack:_ZN16CScrOptRangeTool16staticMetaObjectE
qmapshack:_ZN16CScrOptRangeTool18setMouseClickFocusEPKN10CTrackData7trkpt_tE
qmapshack:_ZN16CScrOptRangeTool18setMouseRangeFocusEPKN10CTrackData7trkpt_tES3_
qmapshack:_ZN16CScrOptRangeTool4drawER8QPainter
qmapshack:_ZN16CScrOptRangeTool8slotCopyEv
qmapshack:_ZN16CScrOptRangeTool9slotSetupEv
qmapshack:_ZN16CScrOptRangeToolC1ER11CGisItemTrkP14CMouseRangeTrkP7CCanvas
qmapshack:_ZN16CScrOptRangeToolC2ER11CGisItemTrkP14CMouseRangeTrkP7CCanvas
qmapshack:_ZN16CScrOptRangeToolD0Ev
qmapshack:_ZN16CScrOptRangeToolD1Ev
qmapshack:_ZN16CScrOptRangeToolD2Ev
qmapshack:_ZN16CScrOptUnclutter10getItemKeyEi
qmapshack:_ZN16CScrOptUnclutter10selectItemERK6QPoint
qmapshack:_ZN16CScrOptUnclutter4drawER8QPainter
qmapshack:_ZN16CScrOptUnclutter5clearEv
qmapshack:_ZN16CScrOptUnclutter7addItemEP8IGisItem
qmapshack:_ZN16CScrOptUnclutter9mouseMoveERK6QPoint
qmapshack:_ZN16CScrOptUnclutter9positionsE
qmapshack:_ZN16CScrOptUnclutterC1EP6IMouse
qmapshack:_ZN16CScrOptUnclutterC2EP6IMouse
qmapshack:_ZN16CScrOptUnclutterD0Ev
qmapshack:_ZN16CScrOptUnclutterD1Ev
qmapshack:_ZN16CScrOptUnclutterD2Ev
qmapshack:_ZN16CScrOptWptRadius10slotDeleteEv
qmapshack:_ZN16CScrOptWptRadius11qt_metacallEN11QMetaObject4CallEiPPv
qmapshack:_ZN16CScrOptWptRadius11qt_metacastEPKc
qmapshack:_ZN16CScrOptWptRadius12slotNogoAreaEv
qmapshack:_ZN16CScrOptWptRadius16staticMetaObjectE
qmapshack:_ZN16CScrOptWptRadius4drawER8QPainter
qmapshack:_ZN16CScrOptWptRadius8slotEditEv
qmapshack:_ZN16CScrOptWptRadiusC1EP11CGisItemWptRK6QPointP6IMouse
qmapshack:_ZN16CScrOptWptRadiusC2EP11CGisItemWptRK6QPointP6IMouse
qmapshack:_ZN16CScrOptWptRadiusD0Ev
qmapshack:_ZN16CScrOptWptRadiusD1Ev
qmapshack:_ZN16CScrOptWptRadiusD2Ev
qmapshack:_ZN16IFitDecoderState10addMessageERK21CFitDefinitionMessage
qmapshack:_ZN16IFitDecoderState10definitionEj
qmapshack:_ZN16IFitDecoderState11processByteERh
qmapshack:_ZN16IFitDecoderState12setTimestampEj
qmapshack:_ZN16IFitDecoderState13addDefinitionERK21CFitDefinitionMessage
qmapshack:_ZN16IFitDecoderState13endDefinitionEv
qmapshack:_ZN16IFitDecoderState13setFileLengthEj
qmapshack:_ZN16IFitDecoderState15bytesLeftToReadEv
qmapshack:_ZN16IFitDecoderState15devFieldProfileERK5QPairIhhE
qmapshack:_ZN16IFitDecoderState16incFileBytesReadEv
qmapshack:_ZN16IFitDecoderState18addDevFieldProfileERK16CFitFieldProfile
qmapshack:_ZN16IFitDecoderState18resetFileBytesReadEv
qmapshack:_ZN16IFitDecoderState18setTimestampOffsetEj
qmapshack:_ZN16IFitDecoderState21clearDevFieldProfilesEh
qmapshack:_ZN16IFitDecoderState8buildCrcEh
qmapshack:_ZN17CCommandProcessor14processOptionsERK11QStringList
qmapshack:_ZN17CCoordFormatSetup11qt_metacallEN11QMetaObject4CallEiPPv
qmapshack:_ZN17CCoordFormatSetup11qt_metacastEPKc
qmapshack:_ZN17CCoordFormatSetup16staticMetaObjectE
qmapshack:_ZN17CCoordFormatSetup6acceptEv
qmapshack:_ZN17CCoordFormatSetupC1EP7QWidget
qmapshack:_ZN17CCoordFormatSetupC2EP7QWidget
qmapshack:_ZN17CCoordFormatSetupD0Ev
qmapshack:_ZN17CCoordFormatSetupD1Ev
qmapshack:_ZN17CCoordFormatSetupD2Ev
qmapshack:_ZN17CFilterSpeedConst11qt_metacallEN11QMetaObject4CallEiPPv
qmapshack:_ZN17CFilterSpeedConst11qt_metacastEPKc
qmapshack:_ZN17CFilterSpeedConst12loadSettingsER9QSettings
qmapshack:_ZN17CFilterSpeedConst12saveSettingsER9QSettings
qmapshack:_ZN17CFilterSpeedConst16staticMetaObjectE
qmapshack:_ZN17CFilterSpeedConst5applyER11CGisItemTrk
qmapshack:_ZN17CFilterSpeedConstC1EP7QWidget
qmapshack:_ZN17CFilterSpeedConstC2EP7QWidget
qmapshack:_ZN17CFilterSpeedCycle11qt_metacallEN11QMetaObject4CallEiPPv
qmapshack:_ZN17CFilterSpeedCycle11qt_metacastEPKc
qmapshack:_ZN17CFilterSpeedCycle12loadSettingsER9QSettings
qmapshack:_ZN17CFilterSpeedCycle12saveSettingsER9QSettings
qmapshack:_ZN17CFilterSpeedCycle15slotSetMaxSpeedEd
qmapshack:_ZN17CFilterSpeedCycle15slotSetMinSpeedEd
qmapshack:_ZN17CFilterSpeedCycle16staticMetaObjectE
qmapshack:_ZN17CFilterSpeedCycle17slotSetPlainSpeedEd
qmapshack:_ZN17CFilterSpeedCycle18slotSetCyclingTypeEi
qmapshack:_ZN17CFilterSpeedCycle19slotSetMinMaxSlopesEb
qmapshack:_ZN17CFilterSpeedCycle22slotSetSlopeAtMaxSpeedEd
qmapshack:_ZN17CFilterSpeedCycle22slotSetSlopeAtMinSpeedEd
qmapshack:_ZN17CFilterSpeedCycle5applyER11CGisItemTrk
qmapshack:_ZN17CFilterSpeedCycleC1EP7QWidgetR11CGisItemTrk
qmapshack:_ZN17CFilterSpeedCycleC2EP7QWidgetR11CGisItemTrk
qmapshack:_ZN17CFilterSplitTrack11qt_metacallEN11QMetaObject4CallEiPPv
qmapshack:_ZN17CFilterSplitTrack11qt_metacastEPKc
qmapshack:_ZN17CFilterSplitTrack16staticMetaObjectE
qmapshack:_ZN17CFilterSplitTrack8showHelpEv
qmapshack:_ZN17CFilterSplitTrack9slotApplyEv
qmapshack:_ZN17CFilterSplitTrackC1ER11CGisItemTrkP7QWidget
qmapshack:_ZN17CFilterSplitTrackC2ER11CGisItemTrkP7QWidget
qmapshack:_ZN17CFilterSplitTrackD0Ev
qmapshack:_ZN17CFilterSplitTrackD1Ev
qmapshack:_ZN17CFilterSplitTrackD2Ev
qmapshack:_ZN17CFitProfileLookup10getProfileEt
qmapshack:_ZN17CFitProfileLookup11qt_metacallEN11QMetaObject4CallEiPPv
qmapshack:_ZN17CFitProfileLookup11qt_metacastEPKc
qmapshack:_ZN17CFitProfileLookup11slotCleanupEv
qmapshack:_ZN17CFitProfileLookup16staticMetaObjectE
qmapshack:_ZN17CFitProfileLookup18getFieldForProfileEth
qmapshack:_ZN17CFitProfileLookupC1Ev
qmapshack:_ZN17CFitProfileLookupC2Ev
qmapshack:_ZN17CFitProfileLookupD0Ev
qmapshack:_ZN17CFitProfileLookupD1Ev
qmapshack:_ZN17CFitProfileLookupD2Ev
qmapshack:_ZN17CGarminStrTblUtf83getER8CFileExtjN13IGarminStrTbl6type_eER11QStringList
qmapshack:_ZN17CGarminStrTblUtf8C1EthP7QObject
qmapshack:_ZN17CGarminStrTblUtf8C2EthP7QObject
qmapshack:_ZN17CGarminStrTblUtf8D0Ev
qmapshack:_ZN17CGarminStrTblUtf8D1Ev
qmapshack:_ZN17CGarminStrTblUtf8D2Ev
qmapshack:_ZN17CLostFoundProject12updateFromDbEv
qmapshack:_ZN17CLostFoundProjectC1ERK7QStringP11CGisListWks
qmapshack:_ZN17CLostFoundProjectC2ERK7QStringP11CGisListWks
qmapshack:_ZN17CLostFoundProjectD0Ev
qmapshack:_ZN17CLostFoundProjectD1Ev
qmapshack:_ZN17CLostFoundProjectD2Ev
qmapshack:_ZN17CScreenshotDialog11qt_metacallEN11QMetaObject4CallEiPPv
qmapshack:_ZN17CScreenshotDialog11qt_metacastEPKc
qmapshack:_ZN17CScreenshotDialog13getScreenshotEP11CGisItemTrk
qmapshack:_ZN17CScreenshotDialog16staticMetaObjectE
qmapshack:_ZN17CScreenshotDialog18getTrackForProfileEv
qmapshack:_ZN17CScreenshotDialog8slotSaveEv
qmapshack:_ZN17CScreenshotDialog9slotPrintEv
qmapshack:_ZN17CScreenshotDialogC1ER7CCanvasP7QWidget
qmapshack:_ZN17CScreenshotDialogC2ER7CCanvasP7QWidget
qmapshack:_ZN17CSelectCopyAction11qt_metacallEN11QMetaObject4CallEiPPv
qmapshack:_ZN17CSelectCopyAction11qt_metacastEPKc
qmapshack:_ZN17CSelectCopyAction12allOthersTooEv
qmapshack:_ZN17CSelectCopyAction16slotSelectResultENS_8result_eE
qmapshack:_ZN17CSelectCopyAction16staticMetaObjectE
qmapshack:_ZN17CSelectCopyActionC1EPK11IGisProjectS2_P7QWidget
qmapshack:_ZN17CSelectCopyActionC1EPK8IGisItemS2_P7QWidget
qmapshack:_ZN17CSelectCopyActionC2EPK11IGisProjectS2_P7QWidget
qmapshack:_ZN17CSelectCopyActionC2EPK8IGisItemS2_P7QWidget
qmapshack:_ZN17CSelectCopyActionD0Ev
qmapshack:_ZN17CSelectCopyActionD1Ev
qmapshack:_ZN17CSelectCopyActionD2Ev
qmapshack:_ZN17CSelectSaveAction11qt_metacallEN11QMetaObject4CallEiPPv
qmapshack:_ZN17CSelectSaveAction11qt_metacastEPKc
qmapshack:_ZN17CSelectSaveAction12allOthersTooEv
qmapshack:_ZN17CSelectSaveAction16slotSelectResultEv
qmapshack:_ZN17CSelectSaveAction16staticMetaObjectE
qmapshack:_ZN17CSelectSaveActionC1EPK8IGisItemS2_P7QWidget
qmapshack:_ZN17CSelectSaveActionC2EPK8IGisItemS2_P7QWidget
qmapshack:_ZN17CSelectSaveActionD0Ev
qmapshack:_ZN17CSelectSaveActionD1Ev
qmapshack:_ZN17CSelectSaveActionD2Ev
qmapshack:_ZN17CSetupIconAndName10checkInputEv
qmapshack:_ZN17CSetupIconAndName11qt_metacallEN11QMetaObject4CallEiPPv
qmapshack:_ZN17CSetupIconAndName11qt_metacastEPKc
qmapshack:_ZN17CSetupIconAndName12slotEditNameERK7QString
qmapshack:_ZN17CSetupIconAndName14slotChangeIconEv
qmapshack:_ZN17CSetupIconAndName16staticMetaObjectE
qmapshack:_ZN17CSetupIconAndName6acceptEv
qmapshack:_ZN17CSetupIconAndName6rejectEv
qmapshack:_ZN17CSetupIconAndNameC1ER7QStringS1_P7QWidget
qmapshack:_ZN17CSetupIconAndNameC2ER7QStringS1_P7QWidget
qmapshack:_ZN18CDBFolderLostFound11setupFromDBEv
qmapshack:_ZN18CDBFolderLostFound5clearEv
qmapshack:_ZN18CDBFolderLostFound6updateEP14CEvtW2DAckInfo
qmapshack:_ZN18CDBFolderLostFound6updateEv
qmapshack:_ZN18CDBFolderLostFound7delItemEP7CDBItem
qmapshack:_ZN18CDBFolderLostFound9expandingEv
qmapshack:_ZN18CDBFolderLostFoundC1ER12QSqlDatabaseP15QTreeWidgetItem
qmapshack:_ZN18CDBFolderLostFoundC2ER12QSqlDatabaseP15QTreeWidgetItem
qmapshack:_ZN18CDBFolderLostFoundD0Ev
qmapshack:_ZN18CDBFolderLostFoundD1Ev
qmapshack:_ZN18CDBFolderLostFoundD2Ev
qmapshack:_ZN18CFilterObscureDate11qt_metacallEN11QMetaObject4CallEiPPv
qmapshack:_ZN18CFilterObscureDate11qt_metacastEPKc
qmapshack:_ZN18CFilterObscureDate16staticMetaObjectE
qmapshack:_ZN18CFilterObscureDate9slotApplyEv
qmapshack:_ZN18CFilterObscureDateC1ER11CGisItemTrkP7QWidget
qmapshack:_ZN18CFilterObscureDateC2ER11CGisItemTrkP7QWidget
qmapshack:_ZN18CFilterObscureDateD0Ev
qmapshack:_ZN18CFilterObscureDateD1Ev
qmapshack:_ZN18CFilterObscureDateD2Ev
qmapshack:_ZN18CFitFieldDataState10devProfileER11CFitMessage
qmapshack:_ZN18CFitFieldDataState14handleDevFieldEv
qmapshack:_ZN18CFitFieldDataState14handleFitFieldEv
qmapshack:_ZN18CFitFieldDataState20buildDevFieldProfileER11CFitMessage
qmapshack:_ZN18CFitFieldDataState5resetEv
qmapshack:_ZN18CFitFieldDataState7processERh
qmapshack:_ZN18CHistoryListWidget10sigChangedEv
qmapshack:_ZN18CHistoryListWidget11qt_metacallEN11QMetaObject4CallEiPPv
qmapshack:_ZN18CHistoryListWidget11qt_metacastEPKc
qmapshack:_ZN18CHistoryListWidget12setupHistoryER8IGisItem
qmapshack:_ZN18CHistoryListWidget15slotContextMenuERK6QPoint
qmapshack:_ZN18CHistoryListWidget16staticMetaObjectE
qmapshack:_ZN18CHistoryListWidget19slotCutHistoryAfterEv
qmapshack:_ZN18CHistoryListWidget20slotCutHistoryBeforeEv
qmapshack:_ZN18CHistoryListWidget20slotSelectionChangedEv
qmapshack:_ZN18CHistoryListWidgetC1EP7QWidget
qmapshack:_ZN18CHistoryListWidgetC2EP7QWidget
qmapshack:_ZN18CHistoryListWidgetD0Ev
qmapshack:_ZN18CHistoryListWidgetD1Ev
qmapshack:_ZN18CHistoryListWidgetD2Ev
qmapshack:_ZN18CLineOpDeletePoint6drawFgER8QPainter
qmapshack:_ZN18CLineOpDeletePoint9leftClickERK6QPoint
qmapshack:_ZN18CLineOpDeletePoint9mouseMoveERK6QPoint
qmapshack:_ZN18CLineOpDeletePointC1ER8SGisLineP8CGisDrawP7CCanvasP14IMouseEditLine
qmapshack:_ZN18CLineOpDeletePointC2ER8SGisLineP8CGisDrawP7CCanvasP14IMouseEditLine
qmapshack:_ZN18CLineOpDeletePointD0Ev
qmapshack:_ZN18CLineOpDeletePointD1Ev
qmapshack:_ZN18CLineOpDeletePointD2Ev
qmapshack:_ZN18CLineOpSelectRange10resetStateEv
qmapshack:_ZN18CLineOpSelectRange10slotDeleteEv
qmapshack:_ZN18CLineOpSelectRange11qt_metacallEN11QMetaObject4CallEiPPv
qmapshack:_ZN18CLineOpSelectRange11qt_metacastEPKc
qmapshack:_ZN18CLineOpSelectRange12scaleChangedEv
qmapshack:_ZN18CLineOpSelectRange15rightButtonDownERK6QPoint
qmapshack:_ZN18CLineOpSelectRange16staticMetaObjectE
qmapshack:_ZN18CLineOpSelectRange6drawFgER8QPainter
qmapshack:_ZN18CLineOpSelectRange8slotCalcEv
qmapshack:_ZN18CLineOpSelectRange9abortStepEv
qmapshack:_ZN18CLineOpSelectRange9leftClickERK6QPoint
qmapshack:_ZN18CLineOpSelectRange9mouseMoveERK6QPoint
qmapshack:_ZN18CLineOpSelectRangeC1ER8SGisLineP8CGisDrawP7CCanvasP14IMouseEditLine
qmapshack:_ZN18CLineOpSelectRangeC2ER8SGisLineP8CGisDrawP7CCanvasP14IMouseEditLine
qmapshack:_ZN18CLineOpSelectRangeD0Ev
qmapshack:_ZN18CLineOpSelectRangeD1Ev
qmapshack:_ZN18CLineOpSelectRangeD2Ev
qmapshack:_ZN18CProjectFilterItem12showLineEditEP7CSearch
qmapshack:_ZN18CProjectFilterItemC1EP11IGisProject
qmapshack:_ZN18CProjectFilterItemC2EP11IGisProject
qmapshack:_ZN18CProjectFilterItemD0Ev
qmapshack:_ZN18CProjectFilterItemD1Ev
qmapshack:_ZN18CProjectFilterItemD2Ev
qmapshack:_ZN18CRouterBRouterInfo11qt_metacallEN11QMetaObject4CallEiPPv
qmapshack:_ZN18CRouterBRouterInfo11qt_metacastEPKc
qmapshack:_ZN18CRouterBRouterInfo16staticMetaObjectE
qmapshack:_ZN18CRouterBRouterInfoC1Ev
qmapshack:_ZN18CRouterBRouterInfoC2Ev
qmapshack:_ZN18CRouterBRouterInfoD0Ev
qmapshack:_ZN18CRouterBRouterInfoD1Ev
qmapshack:_ZN18CRouterBRouterInfoD2Ev
qmapshack:_ZN18CRtGpsTetherRecord10writeEntryEddddRK9QDateTime
qmapshack:_ZN18CRtGpsTetherRecord11qt_metacallEN11QMetaObject4CallEiPPv
qmapshack:_ZN18CRtGpsTetherRecord11qt_metacastEPKc
qmapshack:_ZN18CRtGpsTetherRecord16staticMetaObjectE
qmapshack:_ZN18CRtGpsTetherRecordC1EP7QObject
qmapshack:_ZN18CRtGpsTetherRecordC2EP7QObject
qmapshack:_ZN19CCreateRouteFromWpt11qt_metacallEN11QMetaObject4CallEiPPv
qmapshack:_ZN19CCreateRouteFromWpt11qt_metacastEPKc
qmapshack:_ZN19CCreateRouteFromWpt16staticMetaObjectE
qmapshack:_ZN19CCreateRouteFromWpt20slotSelectionChangedEv
qmapshack:_ZN19CCreateRouteFromWpt6acceptEv
qmapshack:_ZN19CCreateRouteFromWpt6slotUpEv
qmapshack:_ZN19CCreateRouteFromWpt8slotDownEv
qmapshack:_ZN19CCreateRouteFromWptC1ERK5QListIN8IGisItem5key_tEEP7QWidget
qmapshack:_ZN19CCreateRouteFromWptC2ERK5QListIN8IGisItem5key_tEEP7QWidget
qmapshack:_ZN19CCreateRouteFromWptD0Ev
qmapshack:_ZN19CCreateRouteFromWptD1Ev
qmapshack:_ZN19CCreateRouteFromWptD2Ev
qmapshack:_ZN19CDeviceWatcherLinux10slotUpdateEv
qmapshack:_ZN19CDeviceWatcherLinux11qt_metacallEN11QMetaObject4CallEiPPv
qmapshack:_ZN19CDeviceWatcherLinux11qt_metacastEPKc
qmapshack:_ZN19CDeviceWatcherLinux14readMountPointERK7QString
qmapshack:_ZN19CDeviceWatcherLinux15slotDeviceAddedERK15QDBusObjectPathRK4QMapI7QString8QVariantE
qmapshack:_ZN19CDeviceWatcherLinux16staticMetaObjectE
qmapshack:_ZN19CDeviceWatcherLinux17slotDeviceRemovedERK15QDBusObjectPathRK11QStringList
qmapshack:_ZN19CDeviceWatcherLinuxC1EP11CGisListWks
qmapshack:_ZN19CDeviceWatcherLinuxC2EP11CGisListWks
qmapshack:_ZN19CDeviceWatcherLinuxD0Ev
qmapshack:_ZN19CDeviceWatcherLinuxD1Ev
qmapshack:_ZN19CDeviceWatcherLinuxD2Ev
qmapshack:_ZN19CFilterSplitSegment11qt_metacallEN11QMetaObject4CallEiPPv
qmapshack:_ZN19CFilterSplitSegment11qt_metacastEPKc
qmapshack:_ZN19CFilterSplitSegment16staticMetaObjectE
qmapshack:_ZN19CFilterSplitSegment9slotApplyEv
qmapshack:_ZN19CFilterSplitSegmentC1ER11CGisItemTrkP7QWidget
qmapshack:_ZN19CFilterSplitSegmentC2ER11CGisItemTrkP7QWidget
qmapshack:_ZN19CFilterTerrainSlope11qt_metacallEN11QMetaObject4CallEiPPv
qmapshack:_ZN19CFilterTerrainSlope11qt_metacastEPKc
qmapshack:_ZN19CFilterTerrainSlope16staticMetaObjectE
qmapshack:_ZN19CFilterTerrainSlope9slotApplyEv
qmapshack:_ZN19CFilterTerrainSlopeC1ER11CGisItemTrkP7QWidget
qmapshack:_ZN19CFilterTerrainSlopeC2ER11CGisItemTrkP7QWidget
qmapshack:_ZN19CFitFieldDefinitionC1EP21CFitDefinitionMessageP16CFitFieldProfilehhhh
qmapshack:_ZN19CFitFieldDefinitionC1EP21CFitDefinitionMessagehhh
qmapshack:_ZN19CFitFieldDefinitionC1Ev
qmapshack:_ZN19CFitFieldDefinitionC2EP21CFitDefinitionMessageP16CFitFieldProfilehhhh
qmapshack:_ZN19CFitFieldDefinitionC2EP21CFitDefinitionMessagehhh
qmapshack:_ZN19CFitFieldDefinitionC2Ev
qmapshack:_ZN19CFitSubfieldProfileC1EP11CFitProfile7QStringRK12CFitBaseTypehdsS2_hh
qmapshack:_ZN19CFitSubfieldProfileC1ERKS_
qmapshack:_ZN19CFitSubfieldProfileC2EP11CFitProfile7QStringRK12CFitBaseTypehdsS2_hh
qmapshack:_ZN19CFitSubfieldProfileC2ERKS_
qmapshack:_ZN19CGisSummaryDropZone11qt_metacallEN11QMetaObject4CallEiPPv
qmapshack:_ZN19CGisSummaryDropZone11qt_metacastEPKc
qmapshack:_ZN19CGisSummaryDropZone13dragMoveEventEP14QDragMoveEvent
qmapshack:_ZN19CGisSummaryDropZone14dragEnterEventEP15QDragEnterEvent
qmapshack:_ZN19CGisSummaryDropZone14dragLeaveEventEP15QDragLeaveEvent
qmapshack:_ZN19CGisSummaryDropZone14setHighlightedEb
qmapshack:_ZN19CGisSummaryDropZone16staticMetaObjectE
qmapshack:_ZN19CGisSummaryDropZone9dropEventEP10QDropEvent
qmapshack:_ZN19CGisSummaryDropZoneC1ERKN11CGisSummary10dropzone_tEP7QWidget
qmapshack:_ZN19CGisSummaryDropZoneC2ERKN11CGisSummary10dropzone_tEP7QWidget
qmapshack:_ZN19CRouterBRouterLocal11qt_metacallEN11QMetaObject4CallEiPPv
qmapshack:_ZN19CRouterBRouterLocal11qt_metacastEPKc
qmapshack:_ZN19CRouterBRouterLocal12startBRouterEv
qmapshack:_ZN19CRouterBRouterLocal16slotBRouterErrorEN8QProcess12ProcessErrorERK7QString
qmapshack:_ZN19CRouterBRouterLocal16staticMetaObjectE
qmapshack:_ZN19CRouterBRouterLocal17clearBRouterErrorEv
qmapshack:_ZN19CRouterBRouterLocal22slotBRouterSocketErrorEN15QAbstractSocket11SocketErrorE
qmapshack:_ZN19CRouterBRouterLocal23slotBRouterStateChangedEN8QProcess12ProcessStateE
qmapshack:_ZN19CRouterBRouterLocal26slotBRouterSocketConnectedEv
qmapshack:_ZN19CRouterBRouterLocalC1ER14CRouterBRouter
qmapshack:_ZN19CRouterBRouterLocalC2ER14CRouterBRouter
qmapshack:_ZN19CRouterBRouterSetup10addProfileERK7QString
qmapshack:_ZN19CRouterBRouterSetup11profileDownERK7QString
qmapshack:_ZN19CRouterBRouterSetup11qt_metacallEN11QMetaObject4CallEiPPv
qmapshack:_ZN19CRouterBRouterSetup11qt_metacastEPKc
qmapshack:_ZN19CRouterBRouterSetup13deleteProfileERK7QString
qmapshack:_ZN19CRouterBRouterSetup14onInvalidSetupEv
qmapshack:_ZN19CRouterBRouterSetup14tryJavaVersionERK11QStringListRK7QString
qmapshack:_ZN19CRouterBRouterSetup16emitNetworkErrorE7QString
qmapshack:_ZN19CRouterBRouterSetup16parseJavaVersionERK7QStringR18QRegularExpression
qmapshack:_ZN19CRouterBRouterSetup16staticMetaObjectE
qmapshack:_ZN19CRouterBRouterSetup17readLocalProfilesEv
qmapshack:_ZN19CRouterBRouterSetup17sigVersionChangedEv
qmapshack:_ZN19CRouterBRouterSetup18setLocalBRouterJarERK7QString
qmapshack:_ZN19CRouterBRouterSetup18sigProfilesChangedEv
qmapshack:_ZN19CRouterBRouterSetup19displayProfileAsyncERK7QString
qmapshack:_ZN19CRouterBRouterSetup19installLocalBRouterER11QStringList
qmapshack:_ZN19CRouterBRouterSetup19mergeOnlineProfilesERK11QStringList
qmapshack:_ZN19CRouterBRouterSetup19parseBRouterVersionERK7QString
qmapshack:_ZN19CRouterBRouterSetup21sigBinariesPageLoadedEv
qmapshack:_ZN19CRouterBRouterSetup21sigOnlineConfigLoadedEv
qmapshack:_ZN19CRouterBRouterSetup21sigSegmentsPageLoadedEv
qmapshack:_ZN19CRouterBRouterSetup24loadOnlineConfigFinishedEP13QNetworkReply
qmapshack:_ZN19CRouterBRouterSetup25loadOnlineProfileFinishedEP13QNetworkReply
qmapshack:_ZN19CRouterBRouterSetup25loadOnlineVersionFinishedEP13QNetworkReply
qmapshack:_ZN19CRouterBRouterSetup25slotOnlineRequestFinishedEP13QNetworkReply
qmapshack:_ZN19CRouterBRouterSetup27emitOnlineConfigScriptErrorERK8QJSValue
qmapshack:_ZN19CRouterBRouterSetup29checkLocalBRouterInstallationEv
qmapshack:_ZN19CRouterBRouterSetup31sigDisplayOnlineProfileFinishedE7QStringS0_
qmapshack:_ZN19CRouterBRouterSetup37slotLoadOnlineProfilesRequestFinishedEb
qmapshack:_ZN19CRouterBRouterSetup4loadEv
qmapshack:_ZN19CRouterBRouterSetup4saveEv
qmapshack:_ZN19CRouterBRouterSetup55afterSlotLoadOnlineProfilesRequestFinishedRunJavascriptERK8QVariant
qmapshack:_ZN19CRouterBRouterSetup7setJavaERK7QString
qmapshack:_ZN19CRouterBRouterSetup8resetAllEv
qmapshack:_ZN19CRouterBRouterSetup8sigErrorE7QStringS0_
qmapshack:_ZN19CRouterBRouterSetup9profileUpERK7QString
qmapshack:_ZN19CRouterBRouterSetupC1EP7QObject
qmapshack:_ZN19CRouterBRouterSetupC2EP7QObject
qmapshack:_ZN19CRouterBRouterSetupD0Ev
qmapshack:_ZN19CRouterBRouterSetupD1Ev
qmapshack:_ZN19CRouterBRouterSetupD2Ev
qmapshack:_ZN19CRouterOptimization10fillSubPtsER8SGisLine
qmapshack:_ZN19CRouterOptimization10twoOptStepERK8SGisLineRS0_
qmapshack:_ZN19CRouterOptimization11checkRouterEv
qmapshack:_ZN19CRouterOptimization17bestKnownDistanceERKN8IGisLine7point_tES3_
qmapshack:_ZN19CRouterOptimization17getRealRouteCostsERK8SGisLined
qmapshack:_ZN19CRouterOptimization19createNextBestOrderERK8SGisLineRS0_
qmapshack:_ZN19CRouterOptimization8getRouteERK7QPointFS2_
qmapshack:_ZN19CRouterOptimization8optimizeER8SGisLine
qmapshack:_ZN19CRouterOptimizationC1Ev
qmapshack:_ZN19CRouterOptimizationC2Ev
qmapshack:_ZN19CToolBarSetupDialog11CItemFilter13shouldBeMovedEP15QListWidgetItem
qmapshack:_ZN19CToolBarSetupDialog11qt_metacallEN11QMetaObject4CallEiPPv
qmapshack:_ZN19CToolBarSetupDialog11qt_metacastEPKc
qmapshack:_ZN19CToolBarSetupDialog16staticMetaObjectE
qmapshack:_ZN19CToolBarSetupDialog6acceptEv
qmapshack:_ZN19CToolBarSetupDialogC1ERKP7QWidgetRKP14CToolBarConfig
qmapshack:_ZN19CToolBarSetupDialogC2ERKP7QWidgetRKP14CToolBarConfig
qmapshack:_ZN19CToolBarSetupDialogD0Ev
qmapshack:_ZN19CToolBarSetupDialogD1Ev
qmapshack:_ZN19CToolBarSetupDialogD2Ev
qmapshack:_ZN20CDeviceGarminArchive11qt_metacallEN11QMetaObject4CallEiPPv
qmapshack:_ZN20CDeviceGarminArchive11qt_metacastEPKc
qmapshack:_ZN20CDeviceGarminArchive12slotExpandedEP15QTreeWidgetItem
qmapshack:_ZN20CDeviceGarminArchive13slotCollapsedEP15QTreeWidgetItem
qmapshack:_ZN20CDeviceGarminArchive16staticMetaObjectE
qmapshack:_ZN20CDeviceGarminArchiveC1ERK7QStringP13CDeviceGarmin
qmapshack:_ZN20CDeviceGarminArchiveC2ERK7QStringP13CDeviceGarmin
qmapshack:_ZN20CEnergyCyclingDialog10slotRemoveEb
qmapshack:_ZN20CEnergyCyclingDialog11qt_metacallEN11QMetaObject4CallEiPPv
qmapshack:_ZN20CEnergyCyclingDialog11qt_metacastEPKc
qmapshack:_ZN20CEnergyCyclingDialog12slotShowHelpEv
qmapshack:_ZN20CEnergyCyclingDialog16slotSetWindSpeedEd
qmapshack:_ZN20CEnergyCyclingDialog16staticMetaObjectE
qmapshack:_ZN20CEnergyCyclingDialog17slotSetAirDensityEd
qmapshack:_ZN20CEnergyCyclingDialog17slotSetBikeWeightEd
qmapshack:_ZN20CEnergyCyclingDialog18slotSetComboGroundEi
qmapshack:_ZN20CEnergyCyclingDialog19slotSetDriverWeightEd
qmapshack:_ZN20CEnergyCyclingDialog19slotSetPedalCadenceEd
qmapshack:_ZN20CEnergyCyclingDialog19slotSetRollingCoeffEd
qmapshack:_ZN20CEnergyCyclingDialog20slotLoadFromSettingsEb
qmapshack:_ZN20CEnergyCyclingDialog21slotSetComboWindSpeedEi
qmapshack:_ZN20CEnergyCyclingDialog22checkWindPositionSpinsEv
qmapshack:_ZN20CEnergyCyclingDialog22slotSetFrontalAreaSpinEd
qmapshack:_ZN20CEnergyCyclingDialog24slotSetComboWindPositionEi
qmapshack:_ZN20CEnergyCyclingDialog24slotSetWindDragCoeffSpinEd
qmapshack:_ZN20CEnergyCyclingDialog6slotOkEb
qmapshack:_ZN20CEnergyCyclingDialog8updateUiEv
qmapshack:_ZN20CEnergyCyclingDialog9slotApplyEb
qmapshack:_ZN20CEnergyCyclingDialogC1ER14CEnergyCyclingP7QWidget
qmapshack:_ZN20CEnergyCyclingDialogC2ER14CEnergyCyclingP7QWidget
qmapshack:_ZN20CEnergyCyclingDialogD0Ev
qmapshack:_ZN20CEnergyCyclingDialogD1Ev
qmapshack:_ZN20CEnergyCyclingDialogD2Ev
qmapshack:_ZN20CFilterDouglasPeuker11qt_metacallEN11QMetaObject4CallEiPPv
qmapshack:_ZN20CFilterDouglasPeuker11qt_metacastEPKc
qmapshack:_ZN20CFilterDouglasPeuker16staticMetaObjectE
qmapshack:_ZN20CFilterDouglasPeuker9slotApplyEv
qmapshack:_ZN20CFilterDouglasPeukerC1ER11CGisItemTrkP7QWidget
qmapshack:_ZN20CFilterDouglasPeukerC2ER11CGisItemTrkP7QWidget
qmapshack:_ZN20CFilterDouglasPeukerD0Ev
qmapshack:_ZN20CFilterDouglasPeukerD1Ev
qmapshack:_ZN20CFilterDouglasPeukerD2Ev
qmapshack:_ZN20CSelectActivityColor10updateDataEv
qmapshack:_ZN20CSelectActivityColor11qt_metacallEN11QMetaObject4CallEiPPv
qmapshack:_ZN20CSelectActivityColor11qt_metacastEPKc
qmapshack:_ZN20CSelectActivityColor12slotSetColorEP11QToolButtonN10CTrackData7trkpt_t7act20_eE
qmapshack:_ZN20CSelectActivityColor16staticMetaObjectE
qmapshack:_ZN20CSelectActivityColor8setTrackEP11CGisItemTrk
qmapshack:_ZN20CSelectActivityColorC1EP7QWidget
qmapshack:_ZN20CSelectActivityColorC2EP7QWidget
qmapshack:_ZN20CSelectActivityColorD0Ev
qmapshack:_ZN20CSelectActivityColorD1Ev
qmapshack:_ZN20CSelectActivityColorD2Ev
qmapshack:_ZN20CSelectProjectDialog11qt_metacallEN11QMetaObject4CallEiPPv
qmapshack:_ZN20CSelectProjectDialog11qt_metacastEPKc
qmapshack:_ZN20CSelectProjectDialog15slotItemClickedEP15QListWidgetItem
qmapshack:_ZN20CSelectProjectDialog15slotTypeChangedEv
qmapshack:_ZN20CSelectProjectDialog16staticMetaObjectE
qmapshack:_ZN20CSelectProjectDialog17slotProjectEditedERK7QString
qmapshack:_ZN20CSelectProjectDialog18slotProjectChangedERK7QString
qmapshack:_ZN20CSelectProjectDialog21slotItemDoubleClickedEP15QListWidgetItem
qmapshack:_ZN20CSelectProjectDialog6acceptEv
qmapshack:_ZN20CSelectProjectDialog6rejectEv
qmapshack:_ZN20CSelectProjectDialog7lastkeyE
qmapshack:_ZN20CSelectProjectDialog7setTypeERN11IGisProject6type_eE
qmapshack:_ZN20CSelectProjectDialogC1ER7QStringS1_RN11IGisProject6type_eEP11QTreeWidget
qmapshack:_ZN20CSelectProjectDialogC2ER7QStringS1_RN11IGisProject6type_eEP11QTreeWidget
qmapshack:_ZN20CSelectProjectDialogD0Ev
qmapshack:_ZN20CSelectProjectDialogD1Ev
qmapshack:_ZN20CSelectProjectDialogD2Ev
qmapshack:_ZN20CSingleInstanceProxy17slotNewConnectionEv
qmapshack:_ZN20CSingleInstanceProxyC1E11QStringList
qmapshack:_ZN20CSingleInstanceProxyC2E11QStringList
qmapshack:_ZN20CSingleInstanceProxyD0Ev
qmapshack:_ZN20CSingleInstanceProxyD1Ev
qmapshack:_ZN20CSingleInstanceProxyD2Ev
qmapshack:_ZN21CExportDatabaseThread10dumpFolderEyRK7QStringS2_R12QSqlDatabase
qmapshack:_ZN21CExportDatabaseThread11qt_metacallEN11QMetaObject4CallEiPPv
qmapshack:_ZN21CExportDatabaseThread11qt_metacastEPKc
qmapshack:_ZN21CExportDatabaseThread16staticMetaObjectE
qmapshack:_ZN21CExportDatabaseThread3runEv
qmapshack:_ZN21CExportDatabaseThread5startERK7QStringb
qmapshack:_ZN21CExportDatabaseThread6sigErrERK7QString
qmapshack:_ZN21CExportDatabaseThread6sigOutERK7QString
qmapshack:_ZN21CExportDatabaseThread9slotAbortEv
qmapshack:_ZN21CExportDatabaseThreadC1EyR12QSqlDatabaseP7QObject
qmapshack:_ZN21CExportDatabaseThreadC2EyR12QSqlDatabaseP7QObject
qmapshack:_ZN21CFitDefinitionMessage11addDevFieldE19CFitFieldDefinition
qmapshack:_ZN21CFitDefinitionMessage13setNrOfFieldsEh
qmapshack:_ZN21CFitDefinitionMessage14setArchitetureEh
qmapshack:_ZN21CFitDefinitionMessage15setGlobalMesgNrEt
qmapshack:_ZN21CFitDefinitionMessage16setNrOfDevFieldsEh
qmapshack:_ZN21CFitDefinitionMessage8addFieldE19CFitFieldDefinition
qmapshack:_ZN21CFitDefinitionMessageC1ERKS_
qmapshack:_ZN21CFitDefinitionMessageC1Ehb
qmapshack:_ZN21CFitDefinitionMessageC1Ev
qmapshack:_ZN21CFitDefinitionMessageC2ERKS_
qmapshack:_ZN21CFitDefinitionMessageC2Ehb
qmapshack:_ZN21CFitDefinitionMessageC2Ev
qmapshack:_ZN21CFitRecordHeaderState7processERh
qmapshack:_ZN22CFilterDeleteExtension11qt_metacallEN11QMetaObject4CallEiPPv
qmapshack:_ZN22CFilterDeleteExtension11qt_metacastEPKc
qmapshack:_ZN22CFilterDeleteExtension16staticMetaObjectE
qmapshack:_ZN22CFilterDeleteExtension8updateUiEv
qmapshack:_ZN22CFilterDeleteExtension9slotApplyEv
qmapshack:_ZN22CFilterDeleteExtensionC1ER11CGisItemTrkP7QWidget
qmapshack:_ZN22CFilterDeleteExtensionC2ER11CGisItemTrkP7QWidget
qmapshack:_ZN22CFilterOffsetElevation11qt_metacallEN11QMetaObject4CallEiPPv
qmapshack:_ZN22CFilterOffsetElevation11qt_metacastEPKc
qmapshack:_ZN22CFilterOffsetElevation16staticMetaObjectE
qmapshack:_ZN22CFilterOffsetElevation9slotApplyEv
qmapshack:_ZN22CFilterOffsetElevationC1ER11CGisItemTrkP7QWidget
qmapshack:_ZN22CFilterOffsetElevationC2ER11CGisItemTrkP7QWidget
qmapshack:_ZN22CFilterOffsetElevationD0Ev
qmapshack:_ZN22CFilterOffsetElevationD1Ev
qmapshack:_ZN22CFilterOffsetElevationD2Ev
qmapshack:_ZN22CFitDevFieldDefinitionC1Ehhh
qmapshack:_ZN22CFitDevFieldDefinitionC2Ehhh
qmapshack:_ZN22CFitRecordContentState5resetEv
qmapshack:_ZN22CFitRecordContentState7processERh
qmapshack:_ZN22CGeoSearchConfigDialog12slotAcceptedEv
qmapshack:_ZN22CGeoSearchConfigDialogC1EP7QWidgetP16CGeoSearchConfig
qmapshack:_ZN22CGeoSearchConfigDialogC2EP7QWidgetP16CGeoSearchConfig
qmapshack:_ZN22CScrOptSemaphoreLockerC1ER7IScrOpt
qmapshack:_ZN22CScrOptSemaphoreLockerC2ER7IScrOpt
qmapshack:_ZN22CScrOptSemaphoreLockerD0Ev
qmapshack:_ZN22CScrOptSemaphoreLockerD1Ev
qmapshack:_ZN22CScrOptSemaphoreLockerD2Ev
qmapshack:_ZN22CTextEditWidgetSelMenu11qt_metacallEN11QMetaObject4CallEiPPv
qmapshack:_ZN22CTextEditWidgetSelMenu11qt_metacastEPKc
qmapshack:_ZN22CTextEditWidgetSelMenu16staticMetaObjectE
qmapshack:_ZN22CTextEditWidgetSelMenuC1EP7QWidgetP7QActionS3_S3_S3_S3_S3_
qmapshack:_ZN22CTextEditWidgetSelMenuC2EP7QWidgetP7QActionS3_S3_S3_S3_S3_
qmapshack:_ZN23CFilterChangeStartPoint11qt_metacallEN11QMetaObject4CallEiPPv
qmapshack:_ZN23CFilterChangeStartPoint11qt_metacastEPKc
qmapshack:_ZN23CFilterChangeStartPoint16staticMetaObjectE
qmapshack:_ZN23CFilterChangeStartPoint8updateUiEv
qmapshack:_ZN23CFilterChangeStartPoint9slotApplyEv
qmapshack:_ZN23CFilterChangeStartPointC1ER11CGisItemTrkP7QWidget
qmapshack:_ZN23CFilterChangeStartPointC2ER11CGisItemTrkP7QWidget
qmapshack:_ZN23CFilterReplaceElevation11qt_metacallEN11QMetaObject4CallEiPPv
qmapshack:_ZN23CFilterReplaceElevation11qt_metacastEPKc
qmapshack:_ZN23CFilterReplaceElevation16staticMetaObjectE
qmapshack:_ZN23CFilterReplaceElevation8updateUiEv
qmapshack:_ZN23CFilterReplaceElevation9slotApplyEv
qmapshack:_ZN23CFilterReplaceElevationC1ER11CGisItemTrkP7QWidget
qmapshack:_ZN23CFilterReplaceElevationC2ER11CGisItemTrkP7QWidget
qmapshack:_ZN23CFitByteDataTransformer10getFloat32EPh
qmapshack:_ZN23CFitByteDataTransformer10getFloat64EPh
qmapshack:_ZN23CFitByteDataTransformer12getSIntValueERK12CFitBaseTypePh
qmapshack:_ZN23CFitByteDataTransformer12getUIntValueERK12CFitBaseTypePh
qmapshack:_ZN23CFitByteDataTransformer13getFloatValueERK12CFitBaseTypePh
qmapshack:_ZN23CFitByteDataTransformer13swapFieldDataERK19CFitFieldDefinitionPh
qmapshack:_ZN23CFitByteDataTransformer8getBytesEPhh
qmapshack:_ZN23CFitByteDataTransformer8getSint8EPh
qmapshack:_ZN23CFitByteDataTransformer8getUint8EPh
qmapshack:_ZN23CFitByteDataTransformer9getSint16EPh
qmapshack:_ZN23CFitByteDataTransformer9getSint32EPh
qmapshack:_ZN23CFitByteDataTransformer9getSint64EPh
qmapshack:_ZN23CFitByteDataTransformer9getStringEPhh
qmapshack:_ZN23CFitByteDataTransformer9getUint16EPh
qmapshack:_ZN23CFitByteDataTransformer9getUint32EPh
qmapshack:_ZN23CFitByteDataTransformer9getUint64EPh
qmapshack:_ZN23CRouterBRouterSetupPage11qt_metacallEN11QMetaObject4CallEiPPv
qmapshack:_ZN23CRouterBRouterSetupPage11qt_metacastEPKc
qmapshack:_ZN23CRouterBRouterSetupPage11setCompleteEb
qmapshack:_ZN23CRouterBRouterSetupPage16staticMetaObjectE
qmapshack:_ZN23CRouterBRouterSetupPage19emitCompleteChangedEv
qmapshack:_ZN23CRouterBRouterSetupPageC1Ev
qmapshack:_ZN23CRouterBRouterSetupPageC2Ev
qmapshack:_ZN23CRouterBRouterSetupPageD0Ev
qmapshack:_ZN23CRouterBRouterSetupPageD1Ev
qmapshack:_ZN23CRouterBRouterSetupPageD2Ev
qmapshack:_ZN23CRouterBRouterTilesPage11qt_metacallEN11QMetaObject4CallEiPPv
qmapshack:_ZN23CRouterBRouterTilesPage11qt_metacastEPKc
qmapshack:_ZN23CRouterBRouterTilesPage16staticMetaObjectE
qmapshack:_ZN23CRouterBRouterTilesPage29slotTileDownloadStatusChangedEv
qmapshack:_ZN23CRouterBRouterTilesPageC1Ev
qmapshack:_ZN23CRouterBRouterTilesPageC2Ev
qmapshack:_ZN23CRouterBRouterTilesPageD0Ev
qmapshack:_ZN23CRouterBRouterTilesPageD1Ev
qmapshack:_ZN23CRouterBRouterTilesPageD2Ev
qmapshack:_ZN23CRouterBRouterToolShell11qt_metacallEN11QMetaObject4CallEiPPv
qmapshack:_ZN23CRouterBRouterToolShell11qt_metacastEPKc
qmapshack:_ZN23CRouterBRouterToolShell15sigProcessErrorEN8QProcess12ProcessErrorERK7QString
qmapshack:_ZN23CRouterBRouterToolShell16slotStateChangedEN8QProcess12ProcessStateE
qmapshack:_ZN23CRouterBRouterToolShell16staticMetaObjectE
qmapshack:_ZN23CRouterBRouterToolShell22sigProcessStateChangedEN8QProcess12ProcessStateE
qmapshack:_ZN23CRouterBRouterToolShell4stopEv
qmapshack:_ZN23CRouterBRouterToolShell5startERK7QStringS2_RK11QStringList
qmapshack:_ZN23CRouterBRouterToolShell8finishedEiN8QProcess10ExitStatusE
qmapshack:_ZN23CRouterBRouterToolShell9slotErrorEN8QProcess12ProcessErrorE
qmapshack:_ZN23CRouterBRouterToolShellC1EP12QTextBrowserP7QWidget
qmapshack:_ZN23CRouterBRouterToolShellC2EP12QTextBrowserP7QWidget
qmapshack:_ZN23CRouterBRouterToolShellD0Ev
qmapshack:_ZN23CRouterBRouterToolShellD1Ev
qmapshack:_ZN23CRouterBRouterToolShellD2Ev
qmapshack:_ZN23CRouterRoutinoPathSetup11qt_metacallEN11QMetaObject4CallEiPPv
qmapshack:_ZN23CRouterRoutinoPathSetup11qt_metacastEPKc
qmapshack:_ZN23CRouterRoutinoPathSetup11slotAddPathEv
qmapshack:_ZN23CRouterRoutinoPathSetup11slotDelPathEv
qmapshack:_ZN23CRouterRoutinoPathSetup16staticMetaObjectE
qmapshack:_ZN23CRouterRoutinoPathSetup24slotItemSelectionChangedEv
qmapshack:_ZN23CRouterRoutinoPathSetup6acceptEv
qmapshack:_ZN23CRouterRoutinoPathSetupC1ER11QStringList
qmapshack:_ZN23CRouterRoutinoPathSetupC2ER11QStringList
qmapshack:_ZN23CRouterRoutinoPathSetupD0Ev
qmapshack:_ZN23CRouterRoutinoPathSetupD1Ev
qmapshack:_ZN23CRouterRoutinoPathSetupD2Ev
qmapshack:_ZN23CRoutinoDatabaseBuilder11qt_metacallEN11QMetaObject4CallEiPPv
qmapshack:_ZN23CRoutinoDatabaseBuilder11qt_metacastEPKc
qmapshack:_ZN23CRoutinoDatabaseBuilder16staticMetaObjectE
qmapshack:_ZN23CRoutinoDatabaseBuilder17enabelStartButtonEv
qmapshack:_ZN23CRoutinoDatabaseBuilder17slotLinkActivatedERK4QUrl
qmapshack:_ZN23CRoutinoDatabaseBuilder20slotSelectTargetPathEv
qmapshack:_ZN23CRoutinoDatabaseBuilder21slotSelectSourceFilesEv
qmapshack:_ZN23CRoutinoDatabaseBuilder8finishedEiN8QProcess10ExitStatusE
qmapshack:_ZN23CRoutinoDatabaseBuilder9slotStartEv
qmapshack:_ZN23CRoutinoDatabaseBuilderC1EP7QWidget
qmapshack:_ZN23CRoutinoDatabaseBuilderC2EP7QWidget
qmapshack:_ZN23CRoutinoDatabaseBuilderD0Ev
qmapshack:_ZN23CRoutinoDatabaseBuilderD1Ev
qmapshack:_ZN23CRoutinoDatabaseBuilderD2Ev
qmapshack:_ZN23CSelectDoubleListWidget11qt_metacallEN11QMetaObject4CallEiPPv
qmapshack:_ZN23CSelectDoubleListWidget11qt_metacastEPKc
qmapshack:_ZN23CSelectDoubleListWidget12setAvailableERK5QListIP15QListWidgetItemE
qmapshack:_ZN23CSelectDoubleListWidget13sortAvailableEv
qmapshack:_ZN23CSelectDoubleListWidget16staticMetaObjectE
qmapshack:_ZN23CSelectDoubleListWidget5clearEv
qmapshack:_ZN23CSelectDoubleListWidget9setFilterERKPNS_11IItemFilterE
qmapshack:_ZN23CSelectDoubleListWidgetC1EP7QWidgetPNS_11IItemFilterE
qmapshack:_ZN23CSelectDoubleListWidgetC2EP7QWidgetPNS_11IItemFilterE
qmapshack:_ZN23CSelectDoubleListWidgetD0Ev
qmapshack:_ZN23CSelectDoubleListWidgetD1Ev
qmapshack:_ZN23CSelectDoubleListWidgetD2Ev
qmapshack:_ZN24CFitFieldDefinitionState5resetEv
qmapshack:_ZN24CFitFieldDefinitionState7processERh
qmapshack:_ZN24CResolveDatabaseConflict18slotButttonClickedEN10CDBProject8action_eE
qmapshack:_ZN24CResolveDatabaseConflict9getActionEv
qmapshack:_ZN24CResolveDatabaseConflictC1E7QStringP8IGisItemRN10CDBProject8action_eEP7QWidget
qmapshack:_ZN24CResolveDatabaseConflictC2E7QStringP8IGisItemRN10CDBProject8action_eEP7QWidget
qmapshack:_ZN24CSearchExplanationDialog11qt_metacallEN11QMetaObject4CallEiPPv
qmapshack:_ZN24CSearchExplanationDialog11qt_metacastEPKc
qmapshack:_ZN24CSearchExplanationDialog16staticMetaObjectE
qmapshack:_ZN24CSearchExplanationDialogC1EP7QWidget
qmapshack:_ZN24CSearchExplanationDialogC2EP7QWidget
qmapshack:_ZN25CFitComponentfieldProfileC1EP11CFitProfile7QStringRK12CFitBaseTypehdsS2_hj
qmapshack:_ZN25CFitComponentfieldProfileC1ERKS_
qmapshack:_ZN25CFitComponentfieldProfileC2EP11CFitProfile7QStringRK12CFitBaseTypehdsS2_hj
qmapshack:_ZN25CFitComponentfieldProfileC2ERKS_
qmapshack:_ZN25CGeoSearchWebConfigDialog10slotAddNewEv
qmapshack:_ZN25CGeoSearchWebConfigDialog11qt_metacallEN11QMetaObject4CallEiPPv
qmapshack:_ZN25CGeoSearchWebConfigDialog11qt_metacastEPKc
qmapshack:_ZN25CGeoSearchWebConfigDialog15setupTreeWidgetEv
qmapshack:_ZN25CGeoSearchWebConfigDialog15slotDelSelectedEv
qmapshack:_ZN25CGeoSearchWebConfigDialog16staticMetaObjectE
qmapshack:_ZN25CGeoSearchWebConfigDialog20slotSelectionChangedEv
qmapshack:_ZN25CGeoSearchWebConfigDialog6acceptEv
qmapshack:_ZN25CGeoSearchWebConfigDialog9slotResetEv
qmapshack:_ZN25CGeoSearchWebConfigDialogC1ER5QListIN13CGeoSearchWeb9service_tEEP7QWidget
qmapshack:_ZN25CGeoSearchWebConfigDialogC2ER5QListIN13CGeoSearchWeb9service_tEEP7QWidget
qmapshack:_ZN25CRouterBRouterReleaseItemC1ERK7QStringS2_S2_
qmapshack:_ZN25CRouterBRouterReleaseItemC2ERK7QStringS2_S2_
qmapshack:_ZN25CRouterBRouterSetupWizard11qt_metacallEN11QMetaObject4CallEiPPv
qmapshack:_ZN25CRouterBRouterSetupWizard11qt_metacastEPKc
qmapshack:_ZN25CRouterBRouterSetupWizard13beginProfilesEv
qmapshack:_ZN25CRouterBRouterSetupWizard14initializePageEi
qmapshack:_ZN25CRouterBRouterSetupWizard14slotSetupErrorERK7QStringS2_
qmapshack:_ZN25CRouterBRouterSetupWizard15beginChooseModeEv
qmapshack:_ZN25CRouterBRouterSetupWizard15beginLocalTilesEv
qmapshack:_ZN25CRouterBRouterSetupWizard16initLocalInstallEv
qmapshack:_ZN25CRouterBRouterSetupWizard16staticMetaObjectE
qmapshack:_ZN25CRouterBRouterSetupWizard17beginLocalDetailsEv
qmapshack:_ZN25CRouterBRouterSetupWizard17beginLocalInstallEv
qmapshack:_ZN25CRouterBRouterSetupWizard18beginOnlineDetailsEv
qmapshack:_ZN25CRouterBRouterSetupWizard18initLocalDirectoryEv
qmapshack:_ZN25CRouterBRouterSetupWizard18slotDisplayProfileERK7QStringS0_
qmapshack:_ZN25CRouterBRouterSetupWizard19beginLocalDirectoryEv
qmapshack:_ZN25CRouterBRouterSetupWizard19validateCurrentPageEv
qmapshack:_ZN25CRouterBRouterSetupWizard20slotCurrentIdChangedEi
qmapshack:_ZN25CRouterBRouterSetupWizard21slotProfilesUrlEditedEv
qmapshack:_ZN25CRouterBRouterSetupWizard21slotSegmentsUrlEditedEv
qmapshack:_ZN25CRouterBRouterSetupWizard21slotUpdateCurrentPageEv
qmapshack:_ZN25CRouterBRouterSetupWizard23slotCustomButtonClickedEi
qmapshack:_ZN25CRouterBRouterSetupWizard23slotLocalToolSelectJavaEv
qmapshack:_ZN25CRouterBRouterSetupWizard25slotOnlineConfigUrlEditedEv
qmapshack:_ZN25CRouterBRouterSetupWizard26slotOnlineServiceUrlEditedEv
qmapshack:_ZN25CRouterBRouterSetupWizard27slotBinariesUrlCursorEditedEv
qmapshack:_ZN25CRouterBRouterSetupWizard28slotLocalToolSelectDirectoryEv
qmapshack:_ZN25CRouterBRouterSetupWizard29slotLocalToolSelectBRouterJarEv
qmapshack:_ZN25CRouterBRouterSetupWizard37slotCreateOrUpdateLocalInstallClickedEv
qmapshack:_ZN25CRouterBRouterSetupWizard6acceptEv
qmapshack:_ZN25CRouterBRouterSetupWizard6rejectEv
qmapshack:_ZN25CRouterBRouterSetupWizardC1Ev
qmapshack:_ZN25CRouterBRouterSetupWizardC2Ev
qmapshack:_ZN25CRouterBRouterSetupWizardD0Ev
qmapshack:_ZN25CRouterBRouterSetupWizardD1Ev
qmapshack:_ZN25CRouterBRouterSetupWizardD2Ev
qmapshack:_ZN25CRouterBRouterTilesSelect10formatDateE
qmapshack:_ZN25CRouterBRouterTilesSelect10formatSizeEx
qmapshack:_ZN25CRouterBRouterTilesSelect10initializeEv
qmapshack:_ZN25CRouterBRouterTilesSelect10localeDateE
qmapshack:_ZN25CRouterBRouterTilesSelect10maxTileLatE
qmapshack:_ZN25CRouterBRouterTilesSelect10maxTileLonE
qmapshack:_ZN25CRouterBRouterTilesSelect10minTileLatE
qmapshack:_ZN25CRouterBRouterTilesSelect10minTileLonE
qmapshack:_ZN25CRouterBRouterTilesSelect10regExpDateE
qmapshack:_ZN25CRouterBRouterTilesSelect10regExpSizeE
qmapshack:_ZN25CRouterBRouterTilesSelect11patternDateE
qmapshack:_ZN25CRouterBRouterTilesSelect11patternSizeE
qmapshack:_ZN25CRouterBRouterTilesSelect11qt_metacallEN11QMetaObject4CallEiPPv
qmapshack:_ZN25CRouterBRouterTilesSelect11qt_metacastEPKc
qmapshack:_ZN25CRouterBRouterTilesSelect12slotDownloadEv
qmapshack:_ZN25CRouterBRouterTilesSelect12updateStatusEv
qmapshack:_ZN25CRouterBRouterTilesSelect14regExpTileNameE
qmapshack:_ZN25CRouterBRouterTilesSelect15patternTileNameE
qmapshack:_ZN25CRouterBRouterTilesSelect15slotTileClickedERK6QPoint
qmapshack:_ZN25CRouterBRouterTilesSelect16fileNameFromTileE6QPoint
qmapshack:_ZN25CRouterBRouterTilesSelect16staticMetaObjectE
qmapshack:_ZN25CRouterBRouterTilesSelect16tileFromFileNameERK7QString
qmapshack:_ZN25CRouterBRouterTilesSelect18sigCompleteChangedEv
qmapshack:_ZN25CRouterBRouterTilesSelect18slotClearSelectionEv
qmapshack:_ZN25CRouterBRouterTilesSelect18slotDeleteSelectedEv
qmapshack:_ZN25CRouterBRouterTilesSelect18slotSelectOutdatedEv
qmapshack:_ZN25CRouterBRouterTilesSelect20slotDownloadFinishedEP13QNetworkReply
qmapshack:_ZN25CRouterBRouterTilesSelect21slotDownloadReadReadyEv
qmapshack:_ZN25CRouterBRouterTilesSelect34slotLoadOnlineTilesRequestFinishedEb
qmapshack:_ZN25CRouterBRouterTilesSelect52afterSlotLoadOnlineTilesRequestFinishedRunJavascriptERK8QVariant
qmapshack:_ZN25CRouterBRouterTilesSelect6noTileE
qmapshack:_ZN25CRouterBRouterTilesSelect6updateEv
qmapshack:_ZN25CRouterBRouterTilesSelect8setSetupEP19CRouterBRouterSetup
qmapshack:_ZN25CRouterBRouterTilesSelect8tileSizeE
qmapshack:_ZN25CRouterBRouterTilesSelectC1EP7QWidget
qmapshack:_ZN25CRouterBRouterTilesSelectC2EP7QWidget
qmapshack:_ZN25CRouterBRouterTilesSelectD0Ev
qmapshack:_ZN25CRouterBRouterTilesSelectD1Ev
qmapshack:_ZN25CRouterBRouterTilesSelectD2Ev
qmapshack:_ZN25CRouterBRouterTilesStatus11qt_metacallEN11QMetaObject4CallEiPPv
qmapshack:_ZN25CRouterBRouterTilesStatus11qt_metacastEPKc
qmapshack:_ZN25CRouterBRouterTilesStatus16staticMetaObjectE
qmapshack:_ZN26CRouterBRouterDownloadPage10initializeEP9QListViewP12QTextBrowserP6QLabelP11QPushButtonS3_P19CRouterBRouterSetup
qmapshack:_ZN26CRouterBRouterDownloadPage11qt_metacallEN11QMetaObject4CallEiPPv
qmapshack:_ZN26CRouterBRouterDownloadPage11qt_metacastEPKc
qmapshack:_ZN26CRouterBRouterDownloadPage11setCompleteEb
qmapshack:_ZN26CRouterBRouterDownloadPage16staticMetaObjectE
qmapshack:_ZN26CRouterBRouterDownloadPage20sigBRouterJarChangedERK7QString
qmapshack:_ZN26CRouterBRouterDownloadPage23slotListVersionsClickedERK11QModelIndex
qmapshack:_ZN26CRouterBRouterDownloadPage28localBRouterDownloadFinishedEP13QNetworkReply
qmapshack:_ZN26CRouterBRouterDownloadPage32localBRouterVersionsLoadFinishedEP13QNetworkReply
qmapshack:_ZN26CRouterBRouterDownloadPage37slotNetworkAccessManagerReplyReceivedEP13QNetworkReply
qmapshack:_ZN26CRouterBRouterDownloadPage5beginEv
qmapshack:_ZN26CRouterBRouterDownloadPageC1Ev
qmapshack:_ZN26CRouterBRouterDownloadPageC2Ev
qmapshack:_ZN26CRouterBRouterDownloadPageD0Ev
qmapshack:_ZN26CRouterBRouterDownloadPageD1Ev
qmapshack:_ZN26CRouterBRouterDownloadPageD2Ev
qmapshack:_ZN27CFilterInterpolateElevation11qt_metacallEN11QMetaObject4CallEiPPv
qmapshack:_ZN27CFilterInterpolateElevation11qt_metacastEPKc
qmapshack:_ZN27CFilterInterpolateElevation11slotPreviewEv
qmapshack:_ZN27CFilterInterpolateElevation16staticMetaObjectE
qmapshack:_ZN27CFilterInterpolateElevation9slotApplyEv
qmapshack:_ZN27CFilterInterpolateElevationC1ER11CGisItemTrkP7QWidget
qmapshack:_ZN27CFilterInterpolateElevationC2ER11CGisItemTrkP7QWidget
qmapshack:_ZN27CFilterInterpolateElevationD0Ev
qmapshack:_ZN27CFilterInterpolateElevationD1Ev
qmapshack:_ZN27CFilterInterpolateElevationD2Ev
qmapshack:_ZN27CFitDevFieldDefinitionState5resetEv
qmapshack:_ZN27CFitDevFieldDefinitionState7processERh
qmapshack:_ZN28CFilterZeroSpeedDriftCleaner11qt_metacallEN11QMetaObject4CallEiPPv
qmapshack:_ZN28CFilterZeroSpeedDriftCleaner11qt_metacastEPKc
qmapshack:_ZN28CFilterZeroSpeedDriftCleaner16staticMetaObjectE
qmapshack:_ZN28CFilterZeroSpeedDriftCleaner8showHelpEv
qmapshack:_ZN28CFilterZeroSpeedDriftCleaner9slotApplyEv
qmapshack:_ZN28CFilterZeroSpeedDriftCleanerC1ER11CGisItemTrkP7QWidget
qmapshack:_ZN28CFilterZeroSpeedDriftCleanerC2ER11CGisItemTrkP7QWidget
qmapshack:_ZN28CFilterZeroSpeedDriftCleanerD0Ev
qmapshack:_ZN28CFilterZeroSpeedDriftCleanerD1Ev
qmapshack:_ZN28CFilterZeroSpeedDriftCleanerD2Ev
qmapshack:_ZN29CRouterBRouterTilesSelectArea10paintEventEP11QPaintEvent
qmapshack:_ZN29CRouterBRouterTilesSelectArea11qt_metacallEN11QMetaObject4CallEiPPv
qmapshack:_ZN29CRouterBRouterTilesSelectArea11qt_metacastEPKc
qmapshack:_ZN29CRouterBRouterTilesSelectArea14mouseMoveEventEP11QMouseEvent
qmapshack:_ZN29CRouterBRouterTilesSelectArea14sigTileClickedERK6QPoint
qmapshack:_ZN29CRouterBRouterTilesSelectArea15currentTilesPenE
qmapshack:_ZN29CRouterBRouterTilesSelectArea15invalidTilesPenE
qmapshack:_ZN29CRouterBRouterTilesSelectArea15mousePressEventEP11QMouseEvent
qmapshack:_ZN29CRouterBRouterTilesSelectArea16outdatedTilesPenE
qmapshack:_ZN29CRouterBRouterTilesSelectArea16selectedTilesPenE
qmapshack:_ZN29CRouterBRouterTilesSelectArea16staticMetaObjectE
qmapshack:_ZN29CRouterBRouterTilesSelectArea17currentTilesBrushE
qmapshack:_ZN29CRouterBRouterTilesSelectArea17invalidTilesBrushE
qmapshack:_ZN29CRouterBRouterTilesSelectArea17mouseReleaseEventEP11QMouseEvent
qmapshack:_ZN29CRouterBRouterTilesSelectArea18outdatedTilesBrushE
qmapshack:_ZN29CRouterBRouterTilesSelectArea18selectedTilesBrushE
qmapshack:_ZN29CRouterBRouterTilesSelectArea19outstandingTilesPenE
qmapshack:_ZN29CRouterBRouterTilesSelectArea21outstandingTilesBrushE
qmapshack:_ZN29CRouterBRouterTilesSelectArea21sigTileToolTipChangedERK6QPoint
qmapshack:_ZN29CRouterBRouterTilesSelectArea5eventEP6QEvent
qmapshack:_ZN29CRouterBRouterTilesSelectArea7gridPenE
qmapshack:_ZN29CRouterBRouterTilesSelectArea8drawGridEv
qmapshack:_ZN29CRouterBRouterTilesSelectArea9drawTilesERK4QPenRK6QBrushRK7QVectorI6QPointE
qmapshack:_ZN29CRouterBRouterTilesSelectAreaC1EP7QWidgetP7CCanvas
qmapshack:_ZN29CRouterBRouterTilesSelectAreaC2EP7QWidgetP7CCanvas
qmapshack:_ZN29CRouterBRouterTilesSelectAreaD0Ev
qmapshack:_ZN29CRouterBRouterTilesSelectAreaD1Ev
qmapshack:_ZN29CRouterBRouterTilesSelectAreaD2Ev
qmapshack:_ZN3IDB10referencesE
qmapshack:_ZN3IDB15getLastInsertIDER12QSqlDatabaseRK7QString
qmapshack:_ZN3IDB5setupERK7QString
qmapshack:_ZN3IDB7setupDBER7QString
qmapshack:_ZN3IDBC1Ev
qmapshack:_ZN3IDBC2Ev
qmapshack:_ZN3IDBD0Ev
qmapshack:_ZN3IDBD1Ev
qmapshack:_ZN3IDBD2Ev
qmapshack:_ZN3fit10Sint16TypeE
qmapshack:_ZN3fit10Sint32TypeE
qmapshack:_ZN3fit10Sint64TypeE
qmapshack:_ZN3fit10StringTypeE
qmapshack:_ZN3fit10Uint16TypeE
qmapshack:_ZN3fit10Uint32TypeE
qmapshack:_ZN3fit10Uint64TypeE
qmapshack:_ZN3fit10Uint8zTypeE
qmapshack:_ZN3fit11Float32TypeE
qmapshack:_ZN3fit11Float64TypeE
qmapshack:_ZN3fit11InvalidTypeE
qmapshack:_ZN3fit11Uint16zTypeE
qmapshack:_ZN3fit11Uint32zTypeE
qmapshack:_ZN3fit11Uint64zTypeE
qmapshack:_ZN3fit8ByteTypeE
qmapshack:_ZN3fit8EnumTypeE
qmapshack:_ZN3fit9Sint8TypeE
qmapshack:_ZN3fit9Uint8TypeE
qmapshack:_ZN4CQlb11qt_metacallEN11QMetaObject4CallEiPPv
qmapshack:_ZN4CQlb11qt_metacastEPKc
qmapshack:_ZN4CQlb16staticMetaObjectE
qmapshack:_ZN4CQlb4loadEP9QIODevice
qmapshack:_ZN4CQlb4loadERK7QString
qmapshack:_ZN4CQlb4saveEP9QIODevice
qmapshack:_ZN4CQlb4saveERK7QString
qmapshack:_ZN4CQlbC1EP7QObject
qmapshack:_ZN4CQlbC2EP7QObject
qmapshack:_ZN4CQlbD0Ev
qmapshack:_ZN4CQlbD1Ev
qmapshack:_ZN4CQlbD2Ev
qmapshack:_ZN4CQlblsER10CQlgtDiary
qmapshack:_ZN4CQlblsER10CQlgtRoute
qmapshack:_ZN4CQlblsER10CQlgtTrack
qmapshack:_ZN4CQlblsER12IQlgtOverlay
qmapshack:_ZN4CQlblsER8CQlgtWpt
qmapshack:_ZN4IDem10loadConfigER9QSettings
qmapshack:_ZN4IDem10saveConfigER9QSettings
qmapshack:_ZN4IDem11qt_metacallEN11QMetaObject4CallEiPPv
qmapshack:_ZN4IDem11qt_metacastEPKc
qmapshack:_ZN4IDem12slopePresetsE
qmapshack:_ZN4IDem16staticMetaObjectE
qmapshack:_ZN4IDem17setElevationLimitEi
qmapshack:_ZN4IDem17setSlopeStepTableEi
qmapshack:_ZN4IDem19setElevationShadeHiEi
qmapshack:_ZN4IDem20setElevationShadeLowEi
qmapshack:_ZN4IDem22slotSetFactorHillshadeEi
qmapshack:_ZN4IDem23initElevationShadeTableEv
qmapshack:_ZN4IDem23slotSetFactorSlopeShadeEi
qmapshack:_ZN4IDem27slotShowElevationShadeScaleEb
qmapshack:_ZN4IDem28setSlopeStepTableCustomValueEii
qmapshack:_ZN4IDem8getSetupEv
qmapshack:_ZN4IDemC1EP8CDemDraw
qmapshack:_ZN4IDemC2EP8CDemDraw
qmapshack:_ZN4IDemD0Ev
qmapshack:_ZN4IDemD1Ev
qmapshack:_ZN4IDemD2Ev
qmapshack:_ZN4IMap10loadConfigER9QSettings
qmapshack:_ZN4IMap10saveConfigER9QSettings
qmapshack:_ZN4IMap11qt_metacallEN11QMetaObject4CallEiPPv
qmapshack:_ZN4IMap11qt_metacastEPKc
qmapshack:_ZN4IMap16staticMetaObjectE
qmapshack:_ZN4IMap19findPolylineCloseByERK7QPointFS2_iR9QPolygonF
qmapshack:_ZN4IMap8drawTileERK6QImageR9QPolygonFR8QPainter
qmapshack:_ZN4IMap8getSetupEv
qmapshack:_ZN4IMapC1EjP8CMapDraw
qmapshack:_ZN4IMapC2EjP8CMapDraw
qmapshack:_ZN4IMapD0Ev
qmapshack:_ZN4IMapD1Ev
qmapshack:_ZN4IMapD2Ev
qmapshack:_ZN5CDraw11doesOverlapERK5QListI6QRectFERKS1_
qmapshack:_ZN5CDraw12penBorderRedE
qmapshack:_ZN5CDraw13penBorderBlueE
qmapshack:_ZN5CDraw13penBorderGrayE
qmapshack:_ZN5CDraw14brushBackWhiteE
qmapshack:_ZN5CDraw14penBorderBlackE
qmapshack:_ZN5CDraw15brushBackYellowE
qmapshack:_ZN5CDraw16createBasicArrowERK6QBrushd
qmapshack:_ZN5CDraw17brushBackSemiBlueE
qmapshack:_ZN5CDraw4textERK7QStringR8QPainterRK5QRectRK6QColor
qmapshack:_ZN5CDraw4textERK7QStringR8QPainterRK6QPointRK6QColorRK5QFont
qmapshack:_ZN5CDraw4textERK7QStringR8QPainterRK7QPointFRK6QColorRK5QFont
qmapshack:_ZN5CDraw5nogosERK9QPolygonFRK6QRectFR8QPainteri
qmapshack:_ZN5CDraw6arrowsERK9QPolygonFRK6QRectFR8QPainteriid
qmapshack:_ZN5CDraw6bubbleER8QPainterRK5QRectRK6QPointRK6QColor
qmapshack:_ZN5CDraw6bubbleER8QPainterRK5QRectRK6QPointRK6QColorifRK4QPen
qmapshack:_ZN5CDraw6numberEiRK6QColor
qmapshack:_ZN5CDraw6numberEiiR8QPainterRK7QPointFRK6QColor
qmapshack:_ZN5CGrid10loadConfigER9QSettings
qmapshack:_ZN5CGrid10saveConfigER9QSettings
qmapshack:_ZN5CGrid11qt_metacallEN11QMetaObject4CallEiPPv
qmapshack:_ZN5CGrid11qt_metacastEPKc
qmapshack:_ZN5CGrid13findGridSpaceEddRdS0_
qmapshack:_ZN5CGrid14convertPos2StrERK7QPointFR7QStringb
qmapshack:_ZN5CGrid15setProjAndColorERK7QStringRK6QColor
qmapshack:_ZN5CGrid16calcIntersectionEddddddddRdS0_
qmapshack:_ZN5CGrid16staticMetaObjectE
qmapshack:_ZN5CGrid4drawER8QPainterRK5QRect
qmapshack:_ZN5CGridC1EP8CMapDraw
qmapshack:_ZN5CGridC2EP8CMapDraw
qmapshack:_ZN5CGridD0Ev
qmapshack:_ZN5CGridD1Ev
qmapshack:_ZN5CGridD2Ev
qmapshack:_ZN5CHelp11qt_metacallEN11QMetaObject4CallEiPPv
qmapshack:_ZN5CHelp11qt_metacastEPKc
qmapshack:_ZN5CHelp16staticMetaObjectE
qmapshack:_ZN5CHelpC1ERK7QStringS2_P7QWidget
qmapshack:_ZN5CHelpC2ERK7QStringS2_P7QWidget
qmapshack:_ZN5CHelpD0Ev
qmapshack:_ZN5CHelpD1Ev
qmapshack:_ZN5CHelpD2Ev
qmapshack:_ZN5CPlot10updateDataEv
qmapshack:_ZN5CPlot11qt_metacallEN11QMetaObject4CallEiPPv
qmapshack:_ZN5CPlot11qt_metacastEPKc
qmapshack:_ZN5CPlot13setMouseFocusEPKN10CTrackData7trkpt_tE
qmapshack:_ZN5CPlot16staticMetaObjectE
qmapshack:_ZN5CPlot5setupERKN12CPropertyTrk10property_tE
qmapshack:_ZN5CPlot9setLimitsEv
qmapshack:_ZN5CPlotC1EP11CGisItemTrkR6CLimitN5IPlot6mode_eEP7QWidget
qmapshack:_ZN5CPlotC1EP11CGisItemTrkR6CLimitN9CPlotData10axistype_eERK7QStringS8_dSt8functionIFdRKN10CTrackData7trkpt_tEEESF_P7QWidget
qmapshack:_ZN5CPlotC2EP11CGisItemTrkR6CLimitN5IPlot6mode_eEP7QWidget
qmapshack:_ZN5CPlotC2EP11CGisItemTrkR6CLimitN9CPlotData10axistype_eERK7QStringS8_dSt8functionIFdRKN10CTrackData7trkpt_tEEESF_P7QWidget
qmapshack:_ZN5CProj12validProjStrE7QStringbSt8functionIFvRKS0_EE
qmapshack:_ZN5CProj4initEPKcS1_
qmapshack:_ZN5CProjC1ERK7QStringS2_
qmapshack:_ZN5CProjC2ERK7QStringS2_
qmapshack:_ZN5CProjD0Ev
qmapshack:_ZN5CProjD1Ev
qmapshack:_ZN5CProjD2Ev
qmapshack:_ZN5IItemC1Ey
qmapshack:_ZN5IItemC2Ey
qmapshack:_ZN5IItemD0Ev
qmapshack:_ZN5IItemD1Ev
qmapshack:_ZN5IItemD2Ev
qmapshack:_ZN5IPlot10drawLabelsER8QPainter
qmapshack:_ZN5IPlot10drawLegendER8QPainter
qmapshack:_ZN5IPlot10drawXScaleER8QPainter
qmapshack:_ZN5IPlot10drawYScaleER8QPainter
qmapshack:_ZN5IPlot10enterEventEP6QEvent
qmapshack:_ZN5IPlot10leaveEventEP6QEvent
qmapshack:_ZN5IPlot10paintEventEP11QPaintEvent
qmapshack:_ZN5IPlot10slotAddWptEv
qmapshack:_ZN5IPlot10slotCutTrkEv
qmapshack:_ZN5IPlot10wheelEventEP11QWheelEvent
qmapshack:_ZN5IPlot11qt_metacallEN11QMetaObject4CallEiPPv
qmapshack:_ZN5IPlot11qt_metacastEPKc
qmapshack:_ZN5IPlot11resizeEventEP12QResizeEvent
qmapshack:_ZN5IPlot12setXTicScaleEd
qmapshack:_ZN5IPlot12slotActivityEv
qmapshack:_ZN5IPlot13drawTagLabelsER8QPainter
qmapshack:_ZN5IPlot13keyPressEventEP9QKeyEvent
qmapshack:_ZN5IPlot13setMouseFocusEdN11CGisItemTrk11focusmode_eE
qmapshack:_ZN5IPlot13setSizeXLabelEv
qmapshack:_ZN5IPlot13setSizeYLabelEv
qmapshack:_ZN5IPlot13slotResetZoomEv
qmapshack:_ZN5IPlot13slotStopRangeEv
qmapshack:_ZN5IPlot14drawActivitiesER8QPainter
qmapshack:_ZN5IPlot14drawDecorationER8QPainter
qmapshack:_ZN5IPlot14mouseMoveEventEP11QMouseEvent
qmapshack:_ZN5IPlot14slotHidePointsEv
qmapshack:_ZN5IPlot14slotShowPointsEv
qmapshack:_ZN5IPlot15mousePressEventEP11QMouseEvent
qmapshack:_ZN5IPlot15setSizeDrawAreaEv
qmapshack:_ZN5IPlot15setSizeIconAreaEv
qmapshack:_ZN5IPlot15slotContextMenuERK6QPoint
qmapshack:_ZN5IPlot16setSizeTrackInfoEv
qmapshack:_ZN5IPlot16slotAddTrkPtInfoEv
qmapshack:_ZN5IPlot16staticMetaObjectE
qmapshack:_ZN5IPlot17mouseReleaseEventEP11QMouseEvent
qmapshack:_ZN5IPlot18setMouseRangeFocusEPKN10CTrackData7trkpt_tES3_
qmapshack:_ZN5IPlot18sigMouseClickStateEi
qmapshack:_ZN5IPlot23mouseReleaseEventNormalEP11QMouseEvent
qmapshack:_ZN5IPlot23mouseReleaseEventSimpleEP11QMouseEvent
qmapshack:_ZN5IPlot25graphAreaContainsMousePosER6QPoint
qmapshack:_ZN5IPlot3cntE
qmapshack:_ZN5IPlot4drawER8QPainter
qmapshack:_ZN5IPlot4drawEv
qmapshack:_ZN5IPlot4pensE
qmapshack:_ZN5IPlot4saveER6QImagePKN10CTrackData7trkpt_tE
qmapshack:_ZN5IPlot5clearEv
qmapshack:_ZN5IPlot6colorsE
qmapshack:_ZN5IPlot7addLineERK9QPolygonFRK7QString
qmapshack:_ZN5IPlot7newLineERK9QPolygonFRK7QString
qmapshack:_ZN5IPlot7setLRTBEv
qmapshack:_ZN5IPlot8drawDataER8QPainter
qmapshack:_ZN5IPlot8drawTagsER8QPainter
qmapshack:_ZN5IPlot8drawXTicER8QPainter
qmapshack:_ZN5IPlot8drawYTicER8QPainter
qmapshack:_ZN5IPlot8pensThinE
qmapshack:_ZN5IPlot8setSizesEv
qmapshack:_ZN5IPlot8slotCopyEv
qmapshack:_ZN5IPlot8slotSaveEv
qmapshack:_ZN5IPlot9drawGridXER8QPainter
qmapshack:_ZN5IPlot9drawGridYER8QPainter
qmapshack:_ZN5IPlot9resetZoomEv
qmapshack:_ZN5IPlot9setLimitsEv
qmapshack:_ZN5IPlot9setXLabelERK7QString
qmapshack:_ZN5IPlot9setYLabelERK7QString
qmapshack:_ZN5IPlotC1EP11CGisItemTrkN9CPlotData10axistype_eENS_6mode_eEP7QWidget
qmapshack:_ZN5IPlotC2EP11CGisItemTrkN9CPlotData10axistype_eENS_6mode_eEP7QWidget
qmapshack:_ZN5IPlotD0Ev
qmapshack:_ZN5IPlotD1Ev
qmapshack:_ZN5IPlotD2Ev
qmapshack:_ZN5IUnit10slope2unitEdRdR7QString
qmapshack:_ZN5IUnit11coordFormatE
qmapshack:_ZN5IUnit11qt_metacallEN11QMetaObject4CallEiPPv
qmapshack:_ZN5IUnit11qt_metacastEPKc
qmapshack:_ZN5IUnit11setUnitTypeENS_6type_eEP7QObject
qmapshack:_ZN5IUnit11tblTimezoneE
qmapshack:_ZN5IUnit12areaToMKSMapE
qmapshack:_ZN5IUnit12pos2timezoneERK7QPointF
qmapshack:_ZN5IUnit12slope2stringEdR7QStringS1_
qmapshack:_ZN5IUnit12slopeConvertENS_12slope_mode_eEd
qmapshack:_ZN5IUnit12timeToMKSMapE
qmapshack:_ZN5IUnit12timeZoneModeE
qmapshack:_ZN5IUnit13speedToMKSMapE
qmapshack:_ZN5IUnit14parseTimestampERK7QStringR9QDateTime
qmapshack:_ZN5IUnit14parseTimestampERK7QStringRi
qmapshack:_ZN5IUnit14useShortFormatE
qmapshack:_ZN5IUnit15datetime2stringERK9QDateTimeNS_13time_format_eERK7QPointF
qmapshack:_ZN5IUnit16distanceToMKSMapE
qmapshack:_ZN5IUnit16staticMetaObjectE
qmapshack:_ZN5IUnit18isValidCoordStringERK7QString
qmapshack:_ZN5IUnit6m_selfE
qmapshack:_ZN5IUnit7convertERdR7QStringRKS1_
qmapshack:_ZN5IUnit8degToStrERKdS1_R7QString
qmapshack:_ZN5IUnit8reCoord1E
qmapshack:_ZN5IUnit8reCoord2E
qmapshack:_ZN5IUnit8reCoord3E
qmapshack:_ZN5IUnit8reCoord4E
qmapshack:_ZN5IUnit8reCoord5E
qmapshack:_ZN5IUnit8strToDegERK7QStringRdS3_
qmapshack:_ZN5IUnit8timeZoneE
qmapshack:_ZN5IUnit9slopeModeE
qmapshack:_ZN5IUnitC1ERKNS_6type_eERK7QStringdS5_dS5_dP7QObject
qmapshack:_ZN5IUnitC2ERKNS_6type_eERK7QStringdS5_dS5_dP7QObject
qmapshack:_ZN6CAboutC1EP7QWidget
qmapshack:_ZN6CAboutC2EP7QWidget
qmapshack:_ZN6CAboutD0Ev
qmapshack:_ZN6CAboutD1Ev
qmapshack:_ZN6CAboutD2Ev
qmapshack:_ZN6CLimit10sigChangedEv
qmapshack:_ZN6CLimit11qt_metacallEN11QMetaObject4CallEiPPv
qmapshack:_ZN6CLimit11qt_metacastEPKc
qmapshack:_ZN6CLimit16staticMetaObjectE
qmapshack:_ZN6CLimit6setMaxERKd
qmapshack:_ZN6CLimit6setMinERKd
qmapshack:_ZN6CLimit7setModeENS_6mode_eE
qmapshack:_ZN6CLimit9allLimitsE
qmapshack:_ZN6CLimit9setSourceERK7QString
qmapshack:_ZN6CLimit9updateSysERK7QString
qmapshack:_ZN6CLimit9updateSysEv
qmapshack:_ZN6CLimitC1ERK7QStringSt8functionIFdS2_EES5_S5_S5_S3_IFS0_S2_EES3_IFvvEE
qmapshack:_ZN6CLimitC2ERK7QStringSt8functionIFdS2_EES5_S5_S5_S3_IFS0_S2_EES3_IFvvEE
qmapshack:_ZN6CLimitD0Ev
qmapshack:_ZN6CLimitD1Ev
qmapshack:_ZN6CLimitD2Ev
qmapshack:_ZN6CQmsDb22addFolder2ItemRelationEyy
qmapshack:_ZN6CQmsDb24addFolder2FolderRelationEyy
qmapshack:_ZN6CQmsDb5storeER8IGisItem
qmapshack:_ZN6CQmsDb6addRteER10CQlgtRoute
qmapshack:_ZN6CQmsDb6addTrkER10CQlgtTrack
qmapshack:_ZN6CQmsDb6addTrkER12IQlgtOverlay
qmapshack:_ZN6CQmsDb6addWptER8CQlgtWpt
qmapshack:_ZN6CQmsDb7addAreaER12IQlgtOverlay
qmapshack:_ZN6CQmsDb9addFolderER11CQlgtFolder
qmapshack:_ZN6CQmsDbC1ERK7QStringP15CImportDatabase
qmapshack:_ZN6CQmsDbC2ERK7QStringP15CImportDatabase
qmapshack:_ZN6CQmsDbD0Ev
qmapshack:_ZN6CQmsDbD1Ev
qmapshack:_ZN6CQmsDbD2Ev
qmapshack:_ZN6CRtAis11qt_metacallEN11QMetaObject4CallEiPPv
qmapshack:_ZN6CRtAis11qt_metacastEPKc
qmapshack:_ZN6CRtAis12loadSettingsER9QSettings
qmapshack:_ZN6CRtAis13getShipByMmsiERK7QString
qmapshack:_ZN6CRtAis16slotSetShowNamesEb
qmapshack:_ZN6CRtAis16staticMetaObjectE
qmapshack:_ZN6CRtAis22registerWithTreeWidgetEv
qmapshack:_ZN6CRtAis7hasShipERK7QString
qmapshack:_ZN6CRtAis7strIconE
qmapshack:_ZN6CRtAis8drawItemER8QPainterRK9QPolygonFR5QListI6QRectFEP7CRtDraw
qmapshack:_ZN6CRtAis8fastDrawER8QPainterRK6QRectFP7CRtDraw
qmapshack:_ZN6CRtAis9mouseMoveERK7QPointF
qmapshack:_ZN6CRtAisC1EP11QTreeWidget
qmapshack:_ZN6CRtAisC2EP11QTreeWidget
qmapshack:_ZN6CValue7setModeENS_6mode_eE
qmapshack:_ZN6CValue9allValuesE
qmapshack:_ZN6CValue9updateSysERK7QStringRK8QVariant
qmapshack:_ZN6CValueC1ERK7QStringRK8QVariantSt8functionIFvvEES6_IFvS5_EE
qmapshack:_ZN6CValueC2ERK7QStringRK8QVariantSt8functionIFvvEES6_IFvS5_EE
qmapshack:_ZN6CValueD0Ev
qmapshack:_ZN6CValueD1Ev
qmapshack:_ZN6CValueD2Ev
qmapshack:_ZN6CValueaSERK8QVariant
qmapshack:_ZN6IMouse11qt_metacallEN11QMetaObject4CallEiPPv
qmapshack:_ZN6IMouse11qt_metacastEPKc
qmapshack:_ZN6IMouse12mouseDraggedERK6QPointS2_S2_
qmapshack:_ZN6IMouse14startMouseMoveERK6QPoint
qmapshack:_ZN6IMouse15rightButtonDownERK6QPoint
qmapshack:_ZN6IMouse16staticMetaObjectE
qmapshack:_ZN6IMouseC1EP8CGisDrawP7CCanvasP13CMouseAdapter
qmapshack:_ZN6IMouseC2EP8CGisDrawP7CCanvasP13CMouseAdapter
qmapshack:_ZN6IMouseD0Ev
qmapshack:_ZN6IMouseD1Ev
qmapshack:_ZN6IMouseD2Ev
qmapshack:_ZN6ITrack10updateDataEv
qmapshack:_ZN6ITrack15setupProjectionERK6QRectF
qmapshack:_ZN6ITrack4drawER8QPainter
qmapshack:_ZN6ITrack4drawEv
qmapshack:_ZN6ITrack4saveER6QImagePKN10CTrackData7trkpt_tE
qmapshack:_ZN6ITrack7setSizeEii
qmapshack:_ZN6ITrack8setTrackEP11CGisItemTrk
qmapshack:_ZN6ITrack8setTrackERK9QPolygonF
qmapshack:_ZN7CCanvas10abortMouseEv
qmapshack:_ZN7CCanvas10enterEventEP6QEvent
qmapshack:_ZN7CCanvas10leaveEventEP6QEvent
qmapshack:_ZN7CCanvas10loadConfigER9QSettings
qmapshack:_ZN7CCanvas10paintEventEP11QPaintEvent
qmapshack:_ZN7CCanvas10resetMouseEv
qmapshack:_ZN7CCanvas10saveConfigER9QSettings
qmapshack:_ZN7CCanvas10wheelEventEP11QWheelEvent
qmapshack:_ZN7CCanvas11displayInfoERK6QPoint
qmapshack:_ZN7CCanvas11qt_metacallEN11QMetaObject4CallEiPPv
qmapshack:_ZN7CCanvas11qt_metacastEPKc
qmapshack:_ZN7CCanvas11resizeEventEP12QResizeEvent
qmapshack:_ZN7CCanvas11showProfileEb
qmapshack:_ZN7CCanvas11slotToolTipEv
qmapshack:_ZN7CCanvas12gestureEventEP13QGestureEvent
qmapshack:_ZN7CCanvas12reportStatusERK7QStringS2_
qmapshack:_ZN7CCanvas13buildHelpTextEv
qmapshack:_ZN7CCanvas13getProjectionEv
qmapshack:_ZN7CCanvas13getScalesTypeEv
qmapshack:_ZN7CCanvas13keyPressEventEP9QKeyEvent
qmapshack:_ZN7CCanvas13setMousePrintEv
qmapshack:_ZN7CCanvas13setMouseRulerEv
qmapshack:_ZN7CCanvas13setProjectionERK7QString
qmapshack:_ZN7CCanvas14followPositionERK7QPointF
qmapshack:_ZN7CCanvas14mouseMoveEventEP11QMouseEvent
qmapshack:_ZN7CCanvas14setMouseSelectEv
qmapshack:_ZN7CCanvas14sigMoveAndZoomEiRK7QPointF
qmapshack:_ZN7CCanvas15gisLayerOpacityE
qmapshack:_ZN7CCanvas15mousePressEventEP11QMouseEvent
qmapshack:_ZN7CCanvas15setMouseEditRteER11CGisItemRte
qmapshack:_ZN7CCanvas15setMouseEditRteERK7QPointF
qmapshack:_ZN7CCanvas15setMouseEditTrkER11CGisItemTrk
qmapshack:_ZN7CCanvas15setMouseEditTrkERK7QPointF
qmapshack:_ZN7CCanvas15setMouseMoveWptER11CGisItemWpt
qmapshack:_ZN7CCanvas16setMouseEditAreaER15CGisItemOvlArea
qmapshack:_ZN7CCanvas16setMouseEditAreaERK7QPointF
qmapshack:_ZN7CCanvas16setMouseRangeTrkER11CGisItemTrk
qmapshack:_ZN7CCanvas16sigMousePositionERK7QPointFdd
qmapshack:_ZN7CCanvas16staticMetaObjectE
qmapshack:_ZN7CCanvas17mouseReleaseEventEP11QMouseEvent
qmapshack:_ZN7CCanvas17mouseTrackingLostEv
qmapshack:_ZN7CCanvas17setMouseRadiusWptER11CGisItemWpt
qmapshack:_ZN7CCanvas17setMouseWptBubbleERKN8IGisItem5key_tE
qmapshack:_ZN7CCanvas17setOverrideCursorERK7QCursorRK7QString
qmapshack:_ZN7CCanvas18convertGridPos2StrERK7QPointFR7QStringb
qmapshack:_ZN7CCanvas18drawStatusMessagesER8QPainter
qmapshack:_ZN7CCanvas18drawTrackStatisticER8QPainter
qmapshack:_ZN7CCanvas18linkMapViewEnabledEv
qmapshack:_ZN7CCanvas18setDrawContextSizeERK5QSize
qmapshack:_ZN7CCanvas19findPolylineCloseByERK7QPointFS2_iR9QPolygonF
qmapshack:_ZN7CCanvas19setSizeTrackProfileEv
qmapshack:_ZN7CCanvas19showProfileAsWindowEv
qmapshack:_ZN7CCanvas19slotUpdateTrackInfoEb
qmapshack:_ZN7CCanvas20changeOverrideCursorERK7QCursorRK7QString
qmapshack:_ZN7CCanvas20saveSizeTrackProfileEv
qmapshack:_ZN7CCanvas20setupBackgroundColorEv
qmapshack:_ZN7CCanvas21mouseDoubleClickEventEP11QMouseEvent
qmapshack:_ZN7CCanvas21restoreOverrideCursorERK7QString
qmapshack:_ZN7CCanvas21slotCheckTrackOnFocusEv
qmapshack:_ZN7CCanvas21triggerCompleteUpdateENS_8redraw_eE
qmapshack:_ZN7CCanvas25slotTriggerCompleteUpdateENS_8redraw_eE
qmapshack:_ZN7CCanvas4zoomEi
qmapshack:_ZN7CCanvas5eventEP6QEvent
qmapshack:_ZN7CCanvas5printER8QPainterRK6QRectFRK7QPointFb
qmapshack:_ZN7CCanvas5setupEv
qmapshack:_ZN7CCanvas6moveToERK7QPointF
qmapshack:_ZN7CCanvas6setMapERK7QString
qmapshack:_ZN7CCanvas6zoomToERK6QRectF
qmapshack:_ZN7CCanvas7moveMapERK7QPointF
qmapshack:_ZN7CCanvas7setZoomEbRNS_8redraw_eE
qmapshack:_ZN7CCanvas7sigMoveEv
qmapshack:_ZN7CCanvas7sigZoomEv
qmapshack:_ZN7CCanvas9drawScaleER8QPainter6QRectF
qmapshack:_ZN7CCanvas9setScalesENS_13scales_type_eE
qmapshack:_ZN7CCanvas9setupGridEv
qmapshack:_ZN7CCanvas9sigResizeERK5QSize
qmapshack:_ZN7CCanvasC1EP7QWidgetRK7QString
qmapshack:_ZN7CCanvasC2EP7QWidgetRK7QString
qmapshack:_ZN7CCanvasD0Ev
qmapshack:_ZN7CCanvasD1Ev
qmapshack:_ZN7CCanvasD2Ev
qmapshack:_ZN7CCutTrk11qt_metacallEN11QMetaObject4CallEiPPv
qmapshack:_ZN7CCutTrk11qt_metacastEPKc
qmapshack:_ZN7CCutTrk11slotClickedEv
qmapshack:_ZN7CCutTrk16staticMetaObjectE
qmapshack:_ZN7CCutTrk6acceptEv
qmapshack:_ZN7CCutTrkC1EP7QWidget
qmapshack:_ZN7CCutTrkC2EP7QWidget
qmapshack:_ZN7CDBItem6removeEv
qmapshack:_ZN7CDBItem6toggleEv
qmapshack:_ZN7CDBItem9updateAgeEv
qmapshack:_ZN7CDBItemC1ER12QSqlDatabaseyP9IDBFolder
qmapshack:_ZN7CDBItemC2ER12QSqlDatabaseyP9IDBFolder
qmapshack:_ZN7CDemVRT10getSlopeAtERK7QPointFb
qmapshack:_ZN7CDemVRT11qt_metacallEN11QMetaObject4CallEiPPv
qmapshack:_ZN7CDemVRT11qt_metacastEPKc
qmapshack:_ZN7CDemVRT14getElevationAtERK7QPointFb
qmapshack:_ZN7CDemVRT15slotNeedsRedrawEv
qmapshack:_ZN7CDemVRT16staticMetaObjectE
qmapshack:_ZN7CDemVRT4drawERN12IDrawContext8buffer_tE
qmapshack:_ZN7CDemVRTC1ERK7QStringP8CDemDraw
qmapshack:_ZN7CDemVRTC2ERK7QStringP8CDemDraw
qmapshack:_ZN7CDemVRTD0Ev
qmapshack:_ZN7CDemVRTD1Ev
qmapshack:_ZN7CDemVRTD2Ev
qmapshack:_ZN7CDemWCSC1ERK7QStringP8CDemDraw
qmapshack:_ZN7CDemWCSC2ERK7QStringP8CDemDraw
qmapshack:_ZN7CMapIMG10drawLabelsER8QPainterRK7QVectorINS_8strlbl_tEE
qmapshack:_ZN7CMapIMG10drawPointsER8QPainterR7QVectorI12CGarminPointERS2_I6QRectFE
qmapshack:_ZN7CMapIMG10loadConfigER9QSettings
qmapshack:_ZN7CMapIMG10loadSubDivER8CFileExtRKNS_13subdiv_desc_tEP13IGarminStrTblRK10QByteArraybRK6QRectFR7QVectorI14CGarminPolygonESG_RSD_I12CGarminPointESJ_
qmapshack:_ZN7CMapIMG10readBasicsEv
qmapshack:_ZN7CMapIMG10scale2bitsERK7QPointF
qmapshack:_ZN7CMapIMG11collectTextERK14CGarminPolygonRK9QPolygonFRK5QFontRK13QFontMetricsFi
qmapshack:_ZN7CMapIMG11qt_metacallEN11QMetaObject4CallEiPPv
qmapshack:_ZN7CMapIMG11qt_metacastEPKc
qmapshack:_ZN7CMapIMG12drawPolygonsER8QPainterR7QVectorI14CGarminPolygonE
qmapshack:_ZN7CMapIMG13drawPolylinesER8QPainterR7QVectorI14CGarminPolygonERK7QPointF
qmapshack:_ZN7CMapIMG15loadVisibleDataEbR7QVectorI14CGarminPolygonES3_RS0_I12CGarminPointES6_jRK6QRectFR8QPainter
qmapshack:_ZN7CMapIMG15slotSetTypeFileERK7QString
qmapshack:_ZN7CMapIMG16staticMetaObjectE
qmapshack:_ZN7CMapIMG17readSubfileBasicsERNS_14subfile_desc_tER8CFileExt
qmapshack:_ZN7CMapIMG19findPolylineCloseByERK7QPointFS2_iR9QPolygonF
qmapshack:_ZN7CMapIMG21processPrimaryMapDataEv
qmapshack:_ZN7CMapIMG4drawERN12IDrawContext8buffer_tE
qmapshack:_ZN7CMapIMG8addLabelERK12CGarminPointRK5QRectN10CGarminTyp12label_type_eE
qmapshack:_ZN7CMapIMG8drawLineER8QPainterR14CGarminPolygonRKN10CGarminTyp17polyline_propertyERK13QFontMetricsFRK5QFontRK7QPointF
qmapshack:_ZN7CMapIMG8drawLineER8QPainterRK14CGarminPolygon
qmapshack:_ZN7CMapIMG8drawPoisER8QPainterR7QVectorI12CGarminPointERS2_I6QRectFE
qmapshack:_ZN7CMapIMG8drawTextER8QPainter
qmapshack:_ZN7CMapIMG8readFileER8CFileExtjjR10QByteArray
qmapshack:_ZN7CMapIMG8setupTypEv
qmapshack:_ZN7CMapIMGC1ERK7QStringP8CMapDraw
qmapshack:_ZN7CMapIMGC2ERK7QStringP8CMapDraw
qmapshack:_ZN7CMapJNX11scale2levelEdRKNS_6file_tE
qmapshack:_ZN7CMapJNX4drawERN12IDrawContext8buffer_tE
qmapshack:_ZN7CMapJNX8readFileERK7QStringRi
qmapshack:_ZN7CMapJNXC1ERK7QStringP8CMapDraw
qmapshack:_ZN7CMapJNXC2ERK7QStringP8CMapDraw
qmapshack:_ZN7CMapMAP10readBasicsEv
qmapshack:_ZN7CMapMAP4drawERN12IDrawContext8buffer_tE
qmapshack:_ZN7CMapMAPC1ERK7QStringP8CMapDraw
qmapshack:_ZN7CMapMAPC2ERK7QStringP8CMapDraw
qmapshack:_ZN7CMapMAPD0Ev
qmapshack:_ZN7CMapMAPD1Ev
qmapshack:_ZN7CMapMAPD2Ev
qmapshack:_ZN7CMapTMS10loadConfigER9QSettings
qmapshack:_ZN7CMapTMS10saveConfigER9QSettings
qmapshack:_ZN7CMapTMS11qt_metacallEN11QMetaObject4CallEiPPv
qmapshack:_ZN7CMapTMS11qt_metacastEPKc
qmapshack:_ZN7CMapTMS16staticMetaObjectE
qmapshack:_ZN7CMapTMS17slotLayersChangedEP15QListWidgetItem
qmapshack:_ZN7CMapTMS4drawERN12IDrawContext8buffer_tE
qmapshack:_ZN7CMapTMS9createUrlERKNS_7layer_tEiii
qmapshack:_ZN7CMapTMS9getLayersER11QListWidget
qmapshack:_ZN7CMapTMSC1ERK7QStringP8CMapDraw
qmapshack:_ZN7CMapTMSC2ERK7QStringP8CMapDraw
qmapshack:_ZN7CMapVRT11qt_metacallEN11QMetaObject4CallEiPPv
qmapshack:_ZN7CMapVRT11qt_metacastEPKc
qmapshack:_ZN7CMapVRT16staticMetaObjectE
qmapshack:_ZN7CMapVRT16testForOverviewsERK7QString
qmapshack:_ZN7CMapVRT4drawERN12IDrawContext8buffer_tE
qmapshack:_ZN7CMapVRTC1ERK7QStringP8CMapDraw
qmapshack:_ZN7CMapVRTC2ERK7QStringP8CMapDraw
qmapshack:_ZN7CMapVRTD0Ev
qmapshack:_ZN7CMapVRTD1Ev
qmapshack:_ZN7CMapVRTD2Ev
qmapshack:_ZN7CQlgtDb11xferFoldersEv
qmapshack:_ZN7CQlgtDb14printStatisticEv
qmapshack:_ZN7CQlgtDb5startERK7QString
qmapshack:_ZN7CQlgtDb6initDBEv
qmapshack:_ZN7CQlgtDb8xferItemEy
qmapshack:_ZN7CQlgtDb9migrateDBEi
qmapshack:_ZN7CQlgtDb9xferItemsEv
qmapshack:_ZN7CQlgtDbC1ERK7QStringP15CImportDatabase
qmapshack:_ZN7CQlgtDbC2ERK7QStringP15CImportDatabase
qmapshack:_ZN7CQlgtDbD0Ev
qmapshack:_ZN7CQlgtDbD1Ev
qmapshack:_ZN7CQlgtDbD2Ev
qmapshack:_ZN7CRtDraw4drawER8QPainterRK5QRect
qmapshack:_ZN7CRtDraw5drawtERN12IDrawContext8buffer_tE
qmapshack:_ZN7CRtDrawC1EP7CCanvas
qmapshack:_ZN7CRtDrawC2EP7CCanvas
qmapshack:_ZN7CSearch10searchModeE
qmapshack:_ZN7CSearch11adjustUnitsERK13searchValue_tRS0_
qmapshack:_ZN7CSearch12improveQueryEv
qmapshack:_ZN7CSearch15caseSensitivityE
qmapshack:_ZN7CSearch15getSearchResultEP8IGisItem
qmapshack:_ZN7CSearch20keywordSearchTypeMapE
qmapshack:_ZN7CSearch21searchPropertyEnumMapE
qmapshack:_ZN7CSearch23initSearchTypeLambdaMapEv
qmapshack:_ZN7CSearch23keywordSearchExampleMapE
qmapshack:_ZN7CSearch24initKeywordSearchTypeMapEv
qmapshack:_ZN7CSearch24searchPropertyMeaningMapE
qmapshack:_ZN7CSearch25initSearchPropertyEnumMapEv
qmapshack:_ZN7CSearch27initKeywordSearchExampleMapEv
qmapshack:_ZN7CSearch28initSearchPropertyMeaningMapEv
qmapshack:_ZN7CSearchC1E7QString
qmapshack:_ZN7CSearchC2E7QString
qmapshack:_ZN7IDevice12getItemByKeyERKN8IGisItem5key_tE
qmapshack:_ZN7IDevice12getNogoAreasER5QListIP8IGisItemE
qmapshack:_ZN7IDevice13editItemByKeyERKN8IGisItem5key_tE
qmapshack:_ZN7IDevice13getItemsByPosERK7QPointFR5QListIP8IGisItemE
qmapshack:_ZN7IDevice13updateProjectEP11IGisProject
qmapshack:_ZN7IDevice14getItemsByAreaERK6QRectFjR5QListIP8IGisItemE
qmapshack:_ZN7IDevice14getItemsByKeysERK5QListIN8IGisItem5key_tEERS0_IPS1_E
qmapshack:_ZN7IDevice15getProjectByKeyERK7QString
qmapshack:_ZN7IDevice19insertCopyOfProjectEP11IGisProjectRi
qmapshack:_ZN7IDevice22testForExternalProjectERK7QString
qmapshack:_ZN7IDevice3cntE
qmapshack:_ZN7IDevice5mountERK7QString
qmapshack:_ZN7IDevice6umountERK7QString
qmapshack:_ZN7IDevice8drawItemER8QPainterRK6QRectFP8CGisDraw
qmapshack:_ZN7IDevice8drawItemER8QPainterRK9QPolygonFR5QListI6QRectFEP8CGisDraw
qmapshack:_ZN7IDevice9drawLabelER8QPainterRK9QPolygonFR5QListI6QRectFERK13QFontMetricsFP8CGisDraw
qmapshack:_ZN7IDeviceC1ERK7QStringNS_6type_eES2_P11QTreeWidget
qmapshack:_ZN7IDeviceC1ERK7QStringNS_6type_eES2_P13CDeviceGarmin
qmapshack:_ZN7IDeviceC2ERK7QStringNS_6type_eES2_P11QTreeWidget
qmapshack:_ZN7IDeviceC2ERK7QStringNS_6type_eES2_P13CDeviceGarmin
qmapshack:_ZN7IDeviceD0Ev
qmapshack:_ZN7IDeviceD1Ev
qmapshack:_ZN7IDeviceD2Ev
qmapshack:_ZN7ILineOp11qt_metacallEN11QMetaObject4CallEiPPv
qmapshack:_ZN7ILineOp11qt_metacastEPKc
qmapshack:_ZN7ILineOp12scaleChangedEv
qmapshack:_ZN7ILineOp14leftButtonDownERK6QPoint
qmapshack:_ZN7ILineOp14startMouseMoveERK7QPointF
qmapshack:_ZN7ILineOp15updateLeadLinesEi
qmapshack:_ZN7ILineOp16staticMetaObjectE
qmapshack:_ZN7ILineOp17finalizeOperationEi
qmapshack:_ZN7ILineOp18slotTimeoutRoutingEv
qmapshack:_ZN7ILineOp19startDelayedRoutingEv
qmapshack:_ZN7ILineOp20cancelDelayedRoutingEv
qmapshack:_ZN7ILineOp20drawSinglePointLargeERK7QPointFR8QPainter
qmapshack:_ZN7ILineOp20drawSinglePointSmallERK7QPointFR8QPainter
qmapshack:_ZN7ILineOp6drawBgER8QPainter
qmapshack:_ZN7ILineOp9mouseMoveERK6QPoint
qmapshack:_ZN7ILineOpC1ER8SGisLineP8CGisDrawP7CCanvasP14IMouseEditLine
qmapshack:_ZN7ILineOpC2ER8SGisLineP8CGisDrawP7CCanvasP14IMouseEditLine
qmapshack:_ZN7ILineOpD0Ev
qmapshack:_ZN7ILineOpD1Ev
qmapshack:_ZN7ILineOpD2Ev
qmapshack:_ZN7IRouter11qt_metacallEN11QMetaObject4CallEiPPv
qmapshack:_ZN7IRouter11qt_metacastEPKc
qmapshack:_ZN7IRouter16staticMetaObjectE
qmapshack:_ZN7IRouterC1EbP7QWidget
qmapshack:_ZN7IRouterC2EbP7QWidget
qmapshack:_ZN7IRouterD0Ev
qmapshack:_ZN7IRouterD1Ev
qmapshack:_ZN7IRouterD2Ev
qmapshack:_ZN7IRtInfo11qt_metacallEN11QMetaObject4CallEiPPv
qmapshack:_ZN7IRtInfo11qt_metacastEPKc
qmapshack:_ZN7IRtInfo11slotToTrackEv
qmapshack:_ZN7IRtInfo15slotResetRecordEv
qmapshack:_ZN7IRtInfo15slotSetFilenameEv
qmapshack:_ZN7IRtInfo16staticMetaObjectE
qmapshack:_ZN7IRtInfo4drawER8QPainterRK9QPolygonFR5QListI6QRectFEP7CRtDraw
qmapshack:_ZN7IRtInfoC1EP9IRtSourceP7QWidget
qmapshack:_ZN7IRtInfoC2EP9IRtSourceP7QWidget
qmapshack:_ZN7IScrOpt10enterEventEP6QEvent
qmapshack:_ZN7IScrOpt10leaveEventEP6QEvent
qmapshack:_ZN7IScrOpt17slotLinkActivatedERK7QString
qmapshack:_ZN7IScrOpt6moveToERK6QPoint
qmapshack:_ZN7IScrOpt9mouseMoveERK6QPoint
qmapshack:_ZN7IScrOptC1EP6IMouse
qmapshack:_ZN7IScrOptC2EP6IMouse
qmapshack:_ZN7IScrOptD0Ev
qmapshack:_ZN7IScrOptD1Ev
qmapshack:_ZN7IScrOptD2Ev
qmapshack:_ZN7pointDPC1ERKdS1_S1_
qmapshack:_ZN7pointDPC1Ev
qmapshack:_ZN7pointDPC2ERKdS1_S1_
qmapshack:_ZN7pointDPC2Ev
qmapshack:_ZN8CDemDraw10getSlopeAtERK7QPointFb
qmapshack:_ZN8CDemDraw10getSlopeAtERK9QPolygonFRS0_
qmapshack:_ZN8CDemDraw10loadConfigER9QSettings
qmapshack:_ZN8CDemDraw10saveConfigER9QSettings
qmapshack:_ZN8CDemDraw11loadDemPathER9QSettings
qmapshack:_ZN8CDemDraw11saveDemPathER9QSettings
qmapshack:_ZN8CDemDraw12buildMapListEv
qmapshack:_ZN8CDemDraw12setupDemPathERK11QStringList
qmapshack:_ZN8CDemDraw12setupDemPathERK7QString
qmapshack:_ZN8CDemDraw12setupDemPathEv
qmapshack:_ZN8CDemDraw13setProjectionERK7QString
qmapshack:_ZN8CDemDraw14getElevationAtER8SGisLine
qmapshack:_ZN8CDemDraw14getElevationAtERK7QPointFb
qmapshack:_ZN8CDemDraw14getElevationAtERK9QPolygonFRS0_
qmapshack:_ZN8CDemDraw16supportedFormatsE
qmapshack:_ZN8CDemDraw18saveActiveMapsListER11QStringList
qmapshack:_ZN8CDemDraw18saveActiveMapsListER11QStringListR9QSettings
qmapshack:_ZN8CDemDraw20loadConfigForDemItemEP8CDemItem
qmapshack:_ZN8CDemDraw21restoreActiveMapsListERK11QStringList
qmapshack:_ZN8CDemDraw21restoreActiveMapsListERK11QStringListR9QSettings
qmapshack:_ZN8CDemDraw4demsE
qmapshack:_ZN8CDemDraw5drawtERN12IDrawContext8buffer_tE
qmapshack:_ZN8CDemDraw8demPathsE
qmapshack:_ZN8CDemDrawC1EP7CCanvas
qmapshack:_ZN8CDemDrawC2EP7CCanvas
qmapshack:_ZN8CDemDrawD0Ev
qmapshack:_ZN8CDemDrawD1Ev
qmapshack:_ZN8CDemDrawD2Ev
qmapshack:_ZN8CDemItem10deactivateEv
qmapshack:_ZN8CDemItem10loadConfigER9QSettings
qmapshack:_ZN8CDemItem10saveConfigER9QSettings
qmapshack:_ZN8CDemItem10updateIconEv
qmapshack:_ZN8CDemItem11isActivatedEv
qmapshack:_ZN8CDemItem12moveToBottomEv
qmapshack:_ZN8CDemItem12showChildrenEb
qmapshack:_ZN8CDemItem14toggleActivateEv
qmapshack:_ZN8CDemItem15mutexActiveDemsE
qmapshack:_ZN8CDemItem8activateEv
qmapshack:_ZN8CDemItem9moveToTopEv
qmapshack:_ZN8CDemItemC1EP11QTreeWidgetP8CDemDraw
qmapshack:_ZN8CDemItemC2EP11QTreeWidgetP8CDemDraw
qmapshack:_ZN8CDemItemD0Ev
qmapshack:_ZN8CDemItemD1Ev
qmapshack:_ZN8CDemItemD2Ev
qmapshack:_ZN8CDemList10sigChangedEv
qmapshack:_ZN8CDemList10slotFilterERK7QString
qmapshack:_ZN8CDemList10slotMoveUpEv
qmapshack:_ZN8CDemList11qt_metacallEN11QMetaObject4CallEiPPv
qmapshack:_ZN8CDemList11qt_metacastEPKc
qmapshack:_ZN8CDemList11slotDemHonkEv
qmapshack:_ZN8CDemList12slotActivateEv
qmapshack:_ZN8CDemList12slotMoveDownEv
qmapshack:_ZN8CDemList13slotReloadDemEv
qmapshack:_ZN8CDemList14updateHelpTextEv
qmapshack:_ZN8CDemList15slotContextMenuERK6QPoint
qmapshack:_ZN8CDemList16staticMetaObjectE
qmapshack:_ZN8CDemList4itemEi
qmapshack:_ZN8CDemList4sortEv
qmapshack:_ZN8CDemList5clearEv
qmapshack:_ZN8CDemList5countEv
qmapshack:_ZN8CDemListC1EP7QWidget
qmapshack:_ZN8CDemListC2EP7QWidget
qmapshack:_ZN8CDemListD0Ev
qmapshack:_ZN8CDemListD1Ev
qmapshack:_ZN8CDemListD2Ev
qmapshack:_ZN8CFileExt3cntE
qmapshack:_ZN8CGisDraw4drawER8QPainterRK5QRect
qmapshack:_ZN8CGisDraw5drawtERN12IDrawContext8buffer_tE
qmapshack:_ZN8CGisDrawC1EP7CCanvas
qmapshack:_ZN8CGisDrawC2EP7CCanvas
qmapshack:_ZN8CMapDraw10getToolTipERK6QPointR7QString
qmapshack:_ZN8CMapDraw10loadConfigER9QSettings
qmapshack:_ZN8CMapDraw10saveConfigER9QSettings
qmapshack:_ZN8CMapDraw11loadMapPathER9QSettings
qmapshack:_ZN8CMapDraw11qt_metacallEN11QMetaObject4CallEiPPv
qmapshack:_ZN8CMapDraw11qt_metacastEPKc
qmapshack:_ZN8CMapDraw11saveMapPathER9QSettings
qmapshack:_ZN8CMapDraw12buildMapListERK7QString
qmapshack:_ZN8CMapDraw12buildMapListEv
qmapshack:_ZN8CMapDraw12setupMapPathERK11QStringList
qmapshack:_ZN8CMapDraw12setupMapPathERK7QString
qmapshack:_ZN8CMapDraw12setupMapPathEv
qmapshack:_ZN8CMapDraw13createMapItemERK7QStringR4QSetIS0_E
qmapshack:_ZN8CMapDraw13setProjectionERK7QString
qmapshack:_ZN8CMapDraw16staticMetaObjectE
qmapshack:_ZN8CMapDraw16supportedFormatsE
qmapshack:_ZN8CMapDraw18saveActiveMapsListER11QStringList
qmapshack:_ZN8CMapDraw18saveActiveMapsListER11QStringListR9QSettings
qmapshack:_ZN8CMapDraw19findPolylineCloseByERK7QPointFS2_iR9QPolygonF
qmapshack:_ZN8CMapDraw20loadConfigForMapItemEP8CMapItem
qmapshack:_ZN8CMapDraw20reportStatusToCanvasERK7QStringS2_
qmapshack:_ZN8CMapDraw20sigActiveMapsChangedEb
qmapshack:_ZN8CMapDraw21restoreActiveMapsListERK11QStringList
qmapshack:_ZN8CMapDraw21restoreActiveMapsListERK11QStringListR9QSettings
qmapshack:_ZN8CMapDraw4mapsE
qmapshack:_ZN8CMapDraw5drawtERN12IDrawContext8buffer_tE
qmapshack:_ZN8CMapDraw7getInfoERK6QPointR7QString
qmapshack:_ZN8CMapDraw8mapPathsE
qmapshack:_ZN8CMapDraw9cachePathE
qmapshack:_ZN8CMapDrawC1EP7CCanvas
qmapshack:_ZN8CMapDrawC2EP7CCanvas
qmapshack:_ZN8CMapDrawD0Ev
qmapshack:_ZN8CMapDrawD1Ev
qmapshack:_ZN8CMapDrawD2Ev
qmapshack:_ZN8CMapGEMF11qt_metacallEN11QMetaObject4CallEiPPv
qmapshack:_ZN8CMapGEMF11qt_metacastEPKc
qmapshack:_ZN8CMapGEMF16staticMetaObjectE
qmapshack:_ZN8CMapGEMF22getFilenameFromAddressEyR7QString
qmapshack:_ZN8CMapGEMF4drawERN12IDrawContext8buffer_tE
qmapshack:_ZN8CMapGEMF7getTileEjjj
qmapshack:_ZN8CMapGEMFC1ERK7QStringP8CMapDraw
qmapshack:_ZN8CMapGEMFC2ERK7QStringP8CMapDraw
qmapshack:_ZN8CMapItem10deactivateEv
qmapshack:_ZN8CMapItem10loadConfigER9QSettings
qmapshack:_ZN8CMapItem10updateIconEv
qmapshack:_ZN8CMapItem11isActivatedEv
qmapshack:_ZN8CMapItem11setFilenameERK7QString
qmapshack:_ZN8CMapItem12moveToBottomEv
qmapshack:_ZN8CMapItem12showChildrenEb
qmapshack:_ZN8CMapItem14toggleActivateEv
qmapshack:_ZN8CMapItem15mutexActiveMapsE
qmapshack:_ZN8CMapItem8activateEv
qmapshack:_ZN8CMapItem9moveToTopEv
qmapshack:_ZN8CMapItemC1EP11QTreeWidgetP8CMapDraw
qmapshack:_ZN8CMapItemC2EP11QTreeWidgetP8CMapDraw
qmapshack:_ZN8CMapItemD0Ev
qmapshack:_ZN8CMapItemD1Ev
qmapshack:_ZN8CMapItemD2Ev
qmapshack:_ZN8CMapList10sigChangedEv
qmapshack:_ZN8CMapList10slotFilterERK7QString
qmapshack:_ZN8CMapList10slotMoveUpEv
qmapshack:_ZN8CMapList11qt_metacallEN11QMetaObject4CallEiPPv
qmapshack:_ZN8CMapList11qt_metacastEPKc
qmapshack:_ZN8CMapList11slotMapHonkEv
qmapshack:_ZN8CMapList12slotActivateEv
qmapshack:_ZN8CMapList12slotMoveDownEv
qmapshack:_ZN8CMapList14slotReloadMapsEv
qmapshack:_ZN8CMapList14updateHelpTextEv
qmapshack:_ZN8CMapList15slotContextMenuERK6QPoint
qmapshack:_ZN8CMapList16staticMetaObjectE
qmapshack:_ZN8CMapList4itemEi
qmapshack:_ZN8CMapList4sortEv
qmapshack:_ZN8CMapList5clearEv
qmapshack:_ZN8CMapList5countEv
qmapshack:_ZN8CMapListC1EP7QWidget
qmapshack:_ZN8CMapListC2EP7QWidget
qmapshack:_ZN8CMapListD0Ev
qmapshack:_ZN8CMapListD1Ev
qmapshack:_ZN8CMapListD2Ev
qmapshack:_ZN8CMapRMAP11qt_metacallEN11QMetaObject4CallEiPPv
qmapshack:_ZN8CMapRMAP11qt_metacastEPKc
qmapshack:_ZN8CMapRMAP13findBestLevelERK7QPointF
qmapshack:_ZN8CMapRMAP13setProjectionERK7QStringS2_
qmapshack:_ZN8CMapRMAP16staticMetaObjectE
qmapshack:_ZN8CMapRMAP4drawERN12IDrawContext8buffer_tE
qmapshack:_ZN8CMapRMAPC1ERK7QStringP8CMapDraw
qmapshack:_ZN8CMapRMAPC2ERK7QStringP8CMapDraw
qmapshack:_ZN8CMapWMTS10loadConfigER9QSettings
qmapshack:_ZN8CMapWMTS10saveConfigER9QSettings
qmapshack:_ZN8CMapWMTS11qt_metacallEN11QMetaObject4CallEiPPv
qmapshack:_ZN8CMapWMTS11qt_metacastEPKc
qmapshack:_ZN8CMapWMTS16staticMetaObjectE
qmapshack:_ZN8CMapWMTS17slotLayersChangedEP15QListWidgetItem
qmapshack:_ZN8CMapWMTS4drawERN12IDrawContext8buffer_tE
qmapshack:_ZN8CMapWMTS9getLayersER11QListWidget
qmapshack:_ZN8CMapWMTSC1ERK7QStringP8CMapDraw
qmapshack:_ZN8CMapWMTSC2ERK7QStringP8CMapDraw
qmapshack:_ZN8CPoiDraw10getToolTipERK6QPointR7QString
qmapshack:_ZN8CPoiDraw10loadConfigER9QSettings
qmapshack:_ZN8CPoiDraw10saveConfigER9QSettings
qmapshack:_ZN8CPoiDraw11loadPoiPathER9QSettings
qmapshack:_ZN8CPoiDraw11savePoiPathER9QSettings
qmapshack:_ZN8CPoiDraw12buildPoiListEv
qmapshack:_ZN8CPoiDraw12setupPoiPathERK11QStringList
qmapshack:_ZN8CPoiDraw12setupPoiPathERK7QString
qmapshack:_ZN8CPoiDraw12setupPoiPathEv
qmapshack:_ZN8CPoiDraw13setProjectionERK7QString
qmapshack:_ZN8CPoiDraw16supportedFormatsE
qmapshack:_ZN8CPoiDraw18saveActivePoisListER11QStringList
qmapshack:_ZN8CPoiDraw18saveActivePoisListER11QStringListR9QSettings
qmapshack:_ZN8CPoiDraw20loadConfigForPoiItemEP12CPoiFileItem
qmapshack:_ZN8CPoiDraw21restoreActivePoisListERK11QStringList
qmapshack:_ZN8CPoiDraw21restoreActivePoisListERK11QStringListR9QSettings
qmapshack:_ZN8CPoiDraw4poisE
qmapshack:_ZN8CPoiDraw5drawtERN12IDrawContext8buffer_tE
qmapshack:_ZN8CPoiDraw8poiPathsE
qmapshack:_ZN8CPoiDrawC1EP7CCanvas
qmapshack:_ZN8CPoiDrawC2EP7CCanvas
qmapshack:_ZN8CPoiDrawD0Ev
qmapshack:_ZN8CPoiDrawD1Ev
qmapshack:_ZN8CPoiDrawD2Ev
qmapshack:_ZN8CPoiList10sigChangedEv
qmapshack:_ZN8CPoiList11qt_metacallEN11QMetaObject4CallEiPPv
qmapshack:_ZN8CPoiList11qt_metacastEPKc
qmapshack:_ZN8CPoiList12slotActivateEv
qmapshack:_ZN8CPoiList13slotReloadPoiEv
qmapshack:_ZN8CPoiList14updateHelpTextEv
qmapshack:_ZN8CPoiList15slotContextMenuERK6QPoint
qmapshack:_ZN8CPoiList16staticMetaObjectE
qmapshack:_ZN8CPoiList4itemEi
qmapshack:_ZN8CPoiList4sortEv
qmapshack:_ZN8CPoiList5clearEv
qmapshack:_ZN8CPoiList5countEv
qmapshack:_ZN8CPoiListC1EP7QWidget
qmapshack:_ZN8CPoiListC2EP7QWidget
qmapshack:_ZN8CProjWpt11qt_metacallEN11QMetaObject4CallEiPPv
qmapshack:_ZN8CProjWpt11qt_metacastEPKc
qmapshack:_ZN8CProjWpt14slotChangeIconEv
qmapshack:_ZN8CProjWpt14slotChangeNameEv
qmapshack:_ZN8CProjWpt16staticMetaObjectE
qmapshack:_ZN8CProjWpt6acceptEv
qmapshack:_ZN8CProjWptC1ER11CGisItemWptP7QWidget
qmapshack:_ZN8CProjWptC2ER11CGisItemWptP7QWidget
qmapshack:_ZN8CProjWptD0Ev
qmapshack:_ZN8CProjWptD1Ev
qmapshack:_ZN8CProjWptD2Ev
qmapshack:_ZN8CQlgtWpt7setIconERK7QString
qmapshack:_ZN8CQlgtWptC1EyP7QObject
qmapshack:_ZN8CQlgtWptC2EyP7QObject
qmapshack:_ZN8CQlgtWptD0Ev
qmapshack:_ZN8CQlgtWptD1Ev
qmapshack:_ZN8CQlgtWptD2Ev
qmapshack:_ZN8CWebPage11linkClickedERK4QUrl
qmapshack:_ZN8CWebPage11qt_metacallEN11QMetaObject4CallEiPPv
qmapshack:_ZN8CWebPage11qt_metacastEPKc
qmapshack:_ZN8CWebPage16staticMetaObjectE
qmapshack:_ZN8IDBMysql13migrateDB4to5Ev
qmapshack:_ZN8IDBMysql13migrateDB5to6Ev
qmapshack:_ZN8IDBMysql6initDBEv
qmapshack:_ZN8IDBMysql7setupDBERK7QStringS2_S2_S2_bS2_S2_
qmapshack:_ZN8IDBMysql9migrateDBEi
qmapshack:_ZN8IDBMysqlC1Ev
qmapshack:_ZN8IDBMysqlC2Ev
qmapshack:_ZN8IDemProp11qt_metacallEN11QMetaObject4CallEiPPv
qmapshack:_ZN8IDemProp11qt_metacastEPKc
qmapshack:_ZN8IDemProp16staticMetaObjectE
qmapshack:_ZN8IDemPropC1EP4IDemP8CDemDraw
qmapshack:_ZN8IDemPropC2EP4IDemP8CDemDraw
qmapshack:_ZN8IDemPropD0Ev
qmapshack:_ZN8IDemPropD1Ev
qmapshack:_ZN8IDemPropD2Ev
qmapshack:_ZN8IGisItem10createTextEbRK7QStringRK5QListINS_6link_tEES2_
qmapshack:_ZN8IGisItem10createTextEbRK7QStringS2_RK5QListINS_6link_tEES2_
qmapshack:_ZN8IGisItem10loadFromDbEyR12QSqlDatabase
qmapshack:_ZN8IGisItem10mutexItemsE
qmapshack:_ZN8IGisItem10newGisItemEjyR12QSqlDatabaseP11IGisProject
qmapshack:_ZN8IGisItem10removeHtmlERK7QString
qmapshack:_ZN8IGisItem11addKeywordsERK4QSetI7QStringE
qmapshack:_ZN8IGisItem11loadHistoryEi
qmapshack:_ZN8IGisItem11selectColorEP7QWidget
qmapshack:_ZN8IGisItem11setNogoFlagEb
qmapshack:_ZN8IGisItem12getColorMenuERK7QStringP7QObjectPKcP7QWidget
qmapshack:_ZN8IGisItem12setupHistoryEv
qmapshack:_ZN8IGisItem12updateFromDBEyR12QSqlDatabase
qmapshack:_ZN8IGisItem13squashHistoryEv
qmapshack:_ZN8IGisItem13updateHistoryEv
qmapshack:_ZN8IGisItem14removeKeywordsERK4QSetI7QStringE
qmapshack:_ZN8IGisItem15cutHistoryAfterEv
qmapshack:_ZN8IGisItem15setReadOnlyModeEb
qmapshack:_ZN8IGisItem16cutHistoryBeforeEv
qmapshack:_ZN8IGisItem16updateDecorationEjj
qmapshack:_ZN8IGisItem17getNameAndProjectER7QStringRP11IGisProjectRKS0_
qmapshack:_ZN8IGisItem19getLastDatabaseHashEv
qmapshack:_ZN8IGisItem19getNogoTextureBrushEv
qmapshack:_ZN8IGisItem19setLastDatabaseHashEyR12QSqlDatabase
qmapshack:_ZN8IGisItem19splitLineToViewportERK9QPolygonFRK6QRectFR5QListIS0_E
qmapshack:_ZN8IGisItem4initEv
qmapshack:_ZN8IGisItem5noKeyE
qmapshack:_ZN8IGisItem6noNameE
qmapshack:_ZN8IGisItem6toLinkEbRK7QStringS2_S2_
qmapshack:_ZN8IGisItem7changedERK7QStringS2_
qmapshack:_ZN8IGisItem7getHashEv
qmapshack:_ZN8IGisItem7readWptERK8QDomNodeRNS_5wpt_tE
qmapshack:_ZN8IGisItem7setIconERK7QPixmap
qmapshack:_ZN8IGisItem7setNogoEb
qmapshack:_ZN8IGisItem8colorMapE
qmapshack:_ZN8IGisItem8html2DevERK7QStringb
qmapshack:_ZN8IGisItem8isWithinERK6QRectFjRK9QPolygonF
qmapshack:_ZN8IGisItem8showIconEv
qmapshack:_ZN8IGisItem8writeWptER11QDomElementRKNS_5wpt_tEb
qmapshack:_ZN8IGisItem9color2strERK6QColor
qmapshack:_ZN8IGisItem9isVisibleERK6QRectFRK9QPolygonFP8CGisDraw
qmapshack:_ZN8IGisItem9isVisibleERK7QPointFRK9QPolygonFP8CGisDraw
qmapshack:_ZN8IGisItem9setRatingEd
qmapshack:_ZN8IGisItem9str2colorERK7QString
qmapshack:_ZN8IGisItemC1EP11IGisProjectNS_6type_eEi
qmapshack:_ZN8IGisItemC2EP11IGisProjectNS_6type_eEi
qmapshack:_ZN8IGisItemD0Ev
qmapshack:_ZN8IGisItemD1Ev
qmapshack:_ZN8IGisItemD2Ev
qmapshack:_ZN8IGisLine7point_t14resetElevationEv
qmapshack:_ZN8IMapProp11qt_metacallEN11QMetaObject4CallEiPPv
qmapshack:_ZN8IMapProp11qt_metacastEPKc
qmapshack:_ZN8IMapProp16staticMetaObjectE
qmapshack:_ZN8IMapPropC1EP4IMapP8CMapDraw
qmapshack:_ZN8IMapPropC2EP4IMapP8CMapDraw
qmapshack:_ZN8IMapPropD0Ev
qmapshack:_ZN8IMapPropD1Ev
qmapshack:_ZN8IMapPropD2Ev
qmapshack:_ZN8IPoiFile11qt_metacallEN11QMetaObject4CallEiPPv
qmapshack:_ZN8IPoiFile11qt_metacastEPKc
qmapshack:_ZN8IPoiFile14_iconHighlightE
qmapshack:_ZN8IPoiFile16staticMetaObjectE
qmapshack:_ZN8IPoiFile4initEv
qmapshack:_ZN8IPoiFile8getSetupEv
qmapshack:_ZN8IPoiFile9_iconSizeE
qmapshack:_ZN8IPoiFileC1EP8CPoiDraw
qmapshack:_ZN8IPoiFileC2EP8CPoiDraw
qmapshack:_ZN8IPoiProp11qt_metacallEN11QMetaObject4CallEiPPv
qmapshack:_ZN8IPoiProp11qt_metacastEPKc
qmapshack:_ZN8IPoiProp16staticMetaObjectE
qmapshack:_ZN8IPoiPropC1EP8IPoiFileP8CPoiDraw
qmapshack:_ZN8IPoiPropC2EP8IPoiFileP8CPoiDraw
qmapshack:_ZN8SGisLine11updatePixelEP8CGisDraw
qmapshack:_ZN8SGisLine15updateElevationEP8CDemDraw
qmapshack:_ZN8SGisLineC1ERK9QPolygonF
qmapshack:_ZN8SGisLineC2ERK9QPolygonF
qmapshack:_ZN9CFitField10setProfileEPK16CFitFieldProfile
qmapshack:_ZN9CFitField19applyScaleAndOffsetEv
qmapshack:_ZN9CFitFieldC1ERK19CFitFieldDefinitionPK16CFitFieldProfile8QVariantb
qmapshack:_ZN9CFitFieldC1ERKS_
qmapshack:_ZN9CFitFieldC1EthPK16CFitFieldProfile8QVariantb
qmapshack:_ZN9CFitFieldC1Ev
qmapshack:_ZN9CFitFieldC2ERK19CFitFieldDefinitionPK16CFitFieldProfile8QVariantb
qmapshack:_ZN9CFitFieldC2ERKS_
qmapshack:_ZN9CFitFieldC2EthPK16CFitFieldProfile8QVariantb
qmapshack:_ZN9CFitFieldC2Ev
qmapshack:_ZN9CLineEdit10initializeEv
qmapshack:_ZN9CLineEdit11qt_metacallEN11QMetaObject4CallEiPPv
qmapshack:_ZN9CLineEdit11qt_metacastEPKc
qmapshack:_ZN9CLineEdit11setReadOnlyEb
qmapshack:_ZN9CLineEdit11updateStyleEv
qmapshack:_ZN9CLineEdit12focusInEventEP11QFocusEvent
qmapshack:_ZN9CLineEdit13focusOutEventEP11QFocusEvent
qmapshack:_ZN9CLineEdit16staticMetaObjectE
qmapshack:_ZN9CLineEditC1EP7QWidget
qmapshack:_ZN9CLineEditC2EP7QWidget
qmapshack:_ZN9CPlotAxis11qt_metacallEN11QMetaObject4CallEiPPv
qmapshack:_ZN9CPlotAxis11qt_metacastEPKc
qmapshack:_ZN9CPlotAxis13getScaleWidthERK12QFontMetrics
qmapshack:_ZN9CPlotAxis16staticMetaObjectE
qmapshack:_ZN9CPlotAxis4calcEv
qmapshack:_ZN9CPlotAxis4moveEi
qmapshack:_ZN9CPlotAxis4zoomEbi
qmapshack:_ZN9CPlotAxis6fmtdblEd
qmapshack:_ZN9CPlotAxis6fmtsglEd
qmapshack:_ZN9CPlotAxis7ticmarkEPKNS_5tic_tE
qmapshack:_ZN9CPlotAxis8setScaleEj
qmapshack:_ZN9CPlotAxis9getLimitsERdS0_S0_S0_
qmapshack:_ZN9CPlotAxis9resetZoomEv
qmapshack:_ZN9CPlotAxis9setLimitsEdd
qmapshack:_ZN9CPlotAxis9setMinMaxEdd
qmapshack:_ZN9CPlotData12setXAxisTypeENS_10axistype_eE
qmapshack:_ZN9CPlotData9setLimitsEv
qmapshack:_ZN9CPlotDataC1ENS_10axistype_eEP7QObject
qmapshack:_ZN9CPlotDataC2ENS_10axistype_eEP7QObject
qmapshack:_ZN9CPlotDataD0Ev
qmapshack:_ZN9CPlotDataD1Ev
qmapshack:_ZN9CPlotDataD2Ev
qmapshack:_ZN9CShiftReg3getERiS0_
qmapshack:_ZN9CShiftReg4fillEj
qmapshack:_ZN9CShiftRegC1EPKhjjjbR11sign_info_t
qmapshack:_ZN9CShiftRegC2EPKhjjjbR11sign_info_t
qmapshack:_ZN9CTableTrk10updateDataEv
qmapshack:_ZN9CTableTrk11qt_metacallEN11QMetaObject4CallEiPPv
qmapshack:_ZN9CTableTrk11qt_metacastEPKc
qmapshack:_ZN9CTableTrk11showTopItemEv
qmapshack:_ZN9CTableTrk15showNextInvalidEv
qmapshack:_ZN9CTableTrk15showPrevInvalidEv
qmapshack:_ZN9CTableTrk16staticMetaObjectE
qmapshack:_ZN9CTableTrk21slotItemDoubleClickedEP15QTreeWidgetItemi
qmapshack:_ZN9CTableTrk24slotItemSelectionChangedEv
qmapshack:_ZN9CTableTrk8setTrackEP11CGisItemTrk
qmapshack:_ZN9CTableTrkC1EP7QWidget
qmapshack:_ZN9CTableTrkC2EP7QWidget
qmapshack:_ZN9CTableTrkD0Ev
qmapshack:_ZN9CTableTrkD1Ev
qmapshack:_ZN9CTableTrkD2Ev
qmapshack:_ZN9CTextEdit11qt_metacallEN11QMetaObject4CallEiPPv
qmapshack:_ZN9CTextEdit11qt_metacastEPKc
qmapshack:_ZN9CTextEdit13keyPressEventEP9QKeyEvent
qmapshack:_ZN9CTextEdit13setPastePlainEb
qmapshack:_ZN9CTextEdit16staticMetaObjectE
qmapshack:_ZN9CTextEdit5pasteEv
qmapshack:_ZN9CTextEditC1EP7QWidget
qmapshack:_ZN9CTextEditC2EP7QWidget
qmapshack:_ZN9IAppSetup11prepareGdalE7QStringS0_
qmapshack:_ZN9IAppSetup14initLogHandlerEv
qmapshack:_ZN9IAppSetup16processArgumentsEv
qmapshack:_ZN9IAppSetup17prepareTranslatorE7QStringS0_
qmapshack:_ZN9IAppSetup19getPlatformInstanceEv
qmapshack:_ZN9IAppSetup4pathE7QStringS0_bS0_
qmapshack:_ZN9IAppSetup8instanceE
qmapshack:_ZN9IDBFolder11addChildrenERK4QSetI7QStringEbb
qmapshack:_ZN9IDBFolder11exportToGpxEv
qmapshack:_ZN9IDBFolder11getDBFolderEv
qmapshack:_ZN9IDBFolder11setupFromDBEv
qmapshack:_ZN9IDBFolder13addFolderToDbENS_6type_eERK7QStringyR12QSqlDatabase
qmapshack:_ZN9IDBFolder14addItemsSortedER5QListIP7CDBItemE
qmapshack:_ZN9IDBFolder16updateItemsOnWksEv
qmapshack:_ZN9IDBFolder17setChildIndicatorEv
qmapshack:_ZN9IDBFolder18createFolderByTypeER12QSqlDatabaseiyP15QTreeWidgetItem
qmapshack:_ZN9IDBFolder6removeEv
qmapshack:_ZN9IDBFolder6removeEyy
qmapshack:_ZN9IDBFolder6toggleEv
qmapshack:_ZN9IDBFolder6updateEP14CEvtW2DAckInfo
qmapshack:_ZN9IDBFolder6updateEv
qmapshack:_ZN9IDBFolder7setNameERK7QString
qmapshack:_ZN9IDBFolder9addFolderENS_6type_eERK7QString
qmapshack:_ZN9IDBFolder9expandingEv
qmapshack:_ZN9IDBFolder9getFolderEy
qmapshack:_ZN9IDBFolder9getNameExER12QSqlDatabaseyRK7QString
qmapshack:_ZN9IDBFolder9getNameExERK7QStringy
qmapshack:_ZN9IDBFolderC1EbR12QSqlDatabaseNS_6type_eEyP11QTreeWidget
qmapshack:_ZN9IDBFolderC1EbR12QSqlDatabaseNS_6type_eEyP15QTreeWidgetItem
qmapshack:_ZN9IDBFolderC2EbR12QSqlDatabaseNS_6type_eEyP11QTreeWidget
qmapshack:_ZN9IDBFolderC2EbR12QSqlDatabaseNS_6type_eEyP15QTreeWidgetItem
qmapshack:_ZN9IDBFolderD0Ev
qmapshack:_ZN9IDBFolderD1Ev
qmapshack:_ZN9IDBFolderD2Ev
qmapshack:_ZN9IDBSqlite13migrateDB1to2Ev
qmapshack:_ZN9IDBSqlite13migrateDB2to3Ev
qmapshack:_ZN9IDBSqlite13migrateDB3to4Ev
qmapshack:_ZN9IDBSqlite13migrateDB4to5Ev
qmapshack:_ZN9IDBSqlite13migrateDB5to6Ev
qmapshack:_ZN9IDBSqlite6initDBEv
qmapshack:_ZN9IDBSqlite7setupDBERK7QStringS2_RS0_
qmapshack:_ZN9IDBSqlite9migrateDBEi
qmapshack:_ZN9IDBSqliteC1Ev
qmapshack:_ZN9IDBSqliteC2Ev
qmapshack:_ZN9IRtRecord10writeEntryERK10QByteArray
qmapshack:_ZN9IRtRecord11qt_metacallEN11QMetaObject4CallEiPPv
qmapshack:_ZN9IRtRecord11qt_metacastEPKc
qmapshack:_ZN9IRtRecord16staticMetaObjectE
qmapshack:_ZN9IRtRecord4drawER8QPainterRK9QPolygonFR5QListI6QRectFEP7CRtDraw
qmapshack:_ZN9IRtRecord5resetEv
qmapshack:_ZN9IRtRecord7setFileERK7QString
qmapshack:_ZN9IRtRecord8readFileERK7QString
qmapshack:_ZN9IRtRecord9readEntryER10QByteArray
qmapshack:_ZN9IRtRecordC1EP7QObject
qmapshack:_ZN9IRtRecordC2EP7QObject
qmapshack:_ZN9IRtSource10sigChangedEv
qmapshack:_ZN9IRtSource11qt_metacallEN11QMetaObject4CallEiPPv
qmapshack:_ZN9IRtSource11qt_metacastEPKc
qmapshack:_ZN9IRtSource12loadSettingsER9QSettings
qmapshack:_ZN9IRtSource16staticMetaObjectE
qmapshack:_ZN9IRtSource5mutexE
qmapshack:_ZN9IRtSource6createEiP11QTreeWidget
qmapshack:_ZN9IRtSourceC1ENS_6type_eEbP11QTreeWidget
qmapshack:_ZN9IRtSourceC2ENS_6type_eEbP11QTreeWidget
qmapshack:_ZNK10CDBProjectrsER11QDataStream
qmapshack:_ZNK10CDiskCache10metaObjectEv
qmapshack:_ZNK10CDiskCache8containsERK7QString
qmapshack:_ZNK10CFitStream11hasMoreMesgEv
qmapshack:_ZNK10CFitStream8lastMesgEv
qmapshack:_ZNK10CGeoSearch10metaObjectEv
qmapshack:_ZNK10CGeoSearch13requestGoogleER7QString
qmapshack:_ZNK10CGeoSearch16requestNominatimER7QString
qmapshack:_ZNK10CGeoSearch21requestGeonamesSearchER7QString
qmapshack:_ZNK10CGeoSearch22requestGeonamesAddressER7QString
qmapshack:_ZNK10CGisListDB10metaObjectEv
qmapshack:_ZNK10CGridSetup10metaObjectEv
qmapshack:_ZNK10CHelpIndex10metaObjectEv
qmapshack:_ZNK10CRtAisInfo10metaObjectEv
qmapshack:_ZNK10CRtAisInfo12saveSettingsER9QSettings
qmapshack:_ZNK10CRtAisInfo8slotHelpEv
qmapshack:_ZNK10CRtOpenSky10metaObjectEv
qmapshack:_ZNK10CRtOpenSky12getShowNamesEv
qmapshack:_ZNK10CRtOpenSky12getTimestampEv
qmapshack:_ZNK10CRtOpenSky12saveSettingsER9QSettings
qmapshack:_ZNK10CRtOpenSky14getDescriptionEv
qmapshack:_ZNK10CRtOpenSky16getAircraftByKeyERK7QStringRb
qmapshack:_ZNK10CRtOpenSky20getNumberOfAircraftsEv
qmapshack:_ZNK10CScrOptRte10metaObjectEv
qmapshack:_ZNK10CScrOptTrk10metaObjectEv
qmapshack:_ZNK10CScrOptWpt10metaObjectEv
qmapshack:_ZNK10CTrackData11getPolylineER8SGisLine
qmapshack:_ZNK10CTrackData11getPolylineER9QPolygonF
qmapshack:_ZNK10CTrackData14getPolylineDegER9QPolygonF
qmapshack:_ZNK10CTrackData16getPolylineRangeER8SGisLineiib
qmapshack:_ZNK10CTrackData18isTrkPtLastVisibleEi
qmapshack:_ZNK10CTrackData19getTrkPtByConditionESt8functionIFbRKNS_7trkpt_tEEE
qmapshack:_ZNK10CTrackData19isTrkPtFirstVisibleEi
qmapshack:_ZNK10CTrackData20getTrkPtByTotalIndexEi
qmapshack:_ZNK10CTrackData22getTrkPtByVisibleIndexEi
qmapshack:_ZNK10IMapOnline10metaObjectEv
qmapshack:_ZNK10IToolShell10metaObjectEv
qmapshack:_ZNK11CCombineTrk10metaObjectEv
qmapshack:_ZNK11CDetailsPrj10getWptInfoERK11CGisItemTrk
qmapshack:_ZNK11CDetailsPrj10metaObjectEv
qmapshack:_ZNK11CDetailsPrj13getStatisticsERK10wpt_info_t
qmapshack:_ZNK11CDetailsPrj14getNameAndTimeERK10wpt_info_tRK11CGisItemTrk
qmapshack:_ZNK11CDetailsPrj8getImageERK10wpt_info_t
qmapshack:_ZNK11CDetailsRte10metaObjectEv
qmapshack:_ZNK11CDetailsTrk10metaObjectEv
qmapshack:_ZNK11CDetailsWpt10metaObjectEv
qmapshack:_ZNK11CFadingIcon10metaObjectEv
qmapshack:_ZNK11CFitDecoder11getMessagesEv
qmapshack:_ZNK11CFitMessage11messageInfoEv
qmapshack:_ZNK11CFitMessage13getFieldValueEh
qmapshack:_ZNK11CFitMessage17isFieldValueValidEh
qmapshack:_ZNK11CFitMessage7isValidEv
qmapshack:_ZNK11CFitMessage8hasFieldEh
qmapshack:_ZNK11CFitProfile8getFieldEh
qmapshack:_ZNK11CGisItemRte19getPolylineFromDataER8SGisLine
qmapshack:_ZNK11CGisItemRte22getPolylineDegFromDataER9QPolygonF
qmapshack:_ZNK11CGisItemRte7getInfoEj
qmapshack:_ZNK11CGisItemRtersER11QDataStream
qmapshack:_ZNK11CGisItemTrk10getMaxPropERK7QString
qmapshack:_ZNK11CGisItemTrk10getMinPropERK7QString
qmapshack:_ZNK11CGisItemTrk11getUnitPropERK7QString
qmapshack:_ZNK11CGisItemTrk12getElevationEi
qmapshack:_ZNK11CGisItemTrk12getInfoRangeERKN10CTrackData7trkpt_tES3_
qmapshack:_ZNK11CGisItemTrk12getInfoRangeEv
qmapshack:_ZNK11CGisItemTrk12getInfoTrkPtERKN10CTrackData7trkpt_tE
qmapshack:_ZNK11CGisItemTrk13drawColorizedER8QPainter
qmapshack:_ZNK11CGisItemTrk13getInfoLimitsEv
qmapshack:_ZNK11CGisItemTrk13getMouseRangeERPKN10CTrackData7trkpt_tES4_
qmapshack:_ZNK11CGisItemTrk13getMouseRangeERiS0_b
qmapshack:_ZNK11CGisItemTrk15getColorizeUnitEv
qmapshack:_ZNK11CGisItemTrk15getInfoProgressERKN10CTrackData7trkpt_tE
qmapshack:_ZNK11CGisItemTrk15isRangeSelectedEv
qmapshack:_ZNK11CGisItemTrk18copySelectedPointsEv
qmapshack:_ZNK11CGisItemTrk19getPolylineFromDataER8SGisLine
qmapshack:_ZNK11CGisItemTrk19getPolylineFromDataER9QPolygonF
qmapshack:_ZNK11CGisItemTrk20filterGetSlopeLimitsERdS0_
qmapshack:_ZNK11CGisItemTrk22getExistingDataSourcesEv
qmapshack:_ZNK11CGisItemTrk22getPolylineDegFromDataER9QPolygonF
qmapshack:_ZNK11CGisItemTrk23drawColorizedByActivityER8QPainter
qmapshack:_ZNK11CGisItemTrk24getPolylineRangeFromDataER8SGisLineiib
qmapshack:_ZNK11CGisItemTrk6getMaxERK7QString
qmapshack:_ZNK11CGisItemTrk6getMinERK7QString
qmapshack:_ZNK11CGisItemTrk6setPenER8QPainterR4QPenN10CTrackData7trkpt_t7act20_eE
qmapshack:_ZNK11CGisItemTrk7getInfoEj
qmapshack:_ZNK11CGisItemTrkrsER11QDataStream
qmapshack:_ZNK11CGisItemWpt10geocache_t12getLastFoundEv
qmapshack:_ZNK11CGisItemWpt10geocache_t7getLogsEv
qmapshack:_ZNK11CGisItemWpt6genKeyEv
qmapshack:_ZNK11CGisItemWpt7getInfoEj
qmapshack:_ZNK11CGisItemWptrsER11QDataStream
qmapshack:_ZNK11CGisListWks10metaObjectEv
qmapshack:_ZNK11CGisListWks16getAllDeviceKeysEv
qmapshack:_ZNK11CGisSummary10metaObjectEv
qmapshack:_ZNK11CHelpSearch10metaObjectEv
qmapshack:_ZNK11CInvalidTrk10metaObjectEv
qmapshack:_ZNK11CListTrkPts10metaObjectEv
qmapshack:_ZNK11CMainWindow10getSlopeAtERK7QPointF
qmapshack:_ZNK11CMainWindow10getSlopeAtERK9QPolygonFRS0_
qmapshack:_ZNK11CMainWindow10metaObjectEv
qmapshack:_ZNK11CMainWindow12docksVisibleEv
qmapshack:_ZNK11CMainWindow12isMapToolTipEv
qmapshack:_ZNK11CMainWindow13isGridVisibleEv
qmapshack:_ZNK11CMainWindow14flipMouseWheelEv
qmapshack:_ZNK11CMainWindow14getElevationAtER8SGisLine
qmapshack:_ZNK11CMainWindow14getElevationAtERK7QPointF
qmapshack:_ZNK11CMainWindow14getElevationAtERK9QPolygonFRS0_
qmapshack:_ZNK11CMainWindow14isScaleVisibleEv
qmapshack:_ZNK11CMainWindow15profileIsWindowEv
qmapshack:_ZNK11CMainWindow16getVisibleCanvasEv
qmapshack:_ZNK11CMainWindow18isShowTrackProfileEv
qmapshack:_ZNK11CMainWindow18isShowTrackSummaryEv
qmapshack:_ZNK11CMainWindow19isShowMinMaxSummaryEv
qmapshack:_ZNK11CMainWindow20isShowTrackHighlightEv
qmapshack:_ZNK11CMainWindow20isShowTrackInfoTableEv
qmapshack:_ZNK11CMainWindow21isShowTrackInfoPointsEv
qmapshack:_ZNK11CMainWindow23isShowMinMaxTrackLabelsEv
qmapshack:_ZNK11CMainWindow7isNightEv
qmapshack:_ZNK11CMainWindow9getCanvasEv
qmapshack:_ZNK11CMainWindow9isPoiTextEv
qmapshack:_ZNK11CMainWindow9showDocksEv
qmapshack:_ZNK11CMousePrint10metaObjectEv
qmapshack:_ZNK11CMouseRuler10metaObjectEv
qmapshack:_ZNK11CPhotoAlbum10metaObjectEv
qmapshack:_ZNK11CPoiFilePOI10getToolTipERK6QPointR7QString
qmapshack:_ZNK11CPoiFilePOI14findPoiCloseByERK6QPointR4QSetI8IPoiItemER5QListI7QPointFE
qmapshack:_ZNK11CPoiFilePOI16overlapsWithIconERK6QRectF
qmapshack:_ZNK11CPoiFilePOI18getPoiGroupCloseByERK6QPointRNS_10poiGroup_tE
qmapshack:_ZNK11CPoiItemPOI10getRawDataEv
qmapshack:_ZNK11CPoiItemPOI11getCategoryEv
qmapshack:_ZNK11CPoiItemPOI14getCoordinatesEv
qmapshack:_ZNK11CPoiItemPOI5toPoiEv
qmapshack:_ZNK11CPoiItemPOI6getEleEv
qmapshack:_ZNK11CPoiItemPOI6getKeyEv
qmapshack:_ZNK11CPoiItemPOI7getDataEv
qmapshack:_ZNK11CPoiItemPOI7getDescEv
qmapshack:_ZNK11CPoiItemPOI7getNameEb
qmapshack:_ZNK11CPoiItemPOI8getLinksEv
qmapshack:_ZNK11CProjWizard10metaObjectEv
qmapshack:_ZNK11CScaleLabel10metaObjectEv
qmapshack:_ZNK11CSelDevices10metaObjectEv
qmapshack:_ZNK11CTimeDialog10metaObjectEv
qmapshack:_ZNK11CUnitMetric10meter2areaEdR7QStringS1_
qmapshack:_ZNK11CUnitMetric10meter2areaEdRdR7QString
qmapshack:_ZNK11CUnitMetric10meter2unitEdRdR7QString
qmapshack:_ZNK11CUnitMetric11meter2speedEdR7QStringS1_
qmapshack:_ZNK11CUnitMetric11meter2speedEdRdR7QString
qmapshack:_ZNK11CUnitMetric14meter2distanceEdR7QStringS1_
qmapshack:_ZNK11CUnitMetric14meter2distanceEdRdR7QString
qmapshack:_ZNK11CUnitMetric15elevation2meterERK7QString
qmapshack:_ZNK11CUnitNautic10meter2areaEdR7QStringS1_
qmapshack:_ZNK11CUnitNautic10meter2areaEdRdR7QString
qmapshack:_ZNK11CUnitNautic10meter2unitEdRdR7QString
qmapshack:_ZNK11CUnitNautic11meter2speedEdR7QStringS1_
qmapshack:_ZNK11CUnitNautic11meter2speedEdRdR7QString
qmapshack:_ZNK11CUnitNautic14meter2distanceEdR7QStringS1_
qmapshack:_ZNK11CUnitNautic14meter2distanceEdRdR7QString
qmapshack:_ZNK11CUnitNautic15elevation2meterERK7QString
qmapshack:_ZNK11IDrawObject10drawTileHQERK6QImageR9QPolygonFR8QPainterR12IDrawContextRK5CProj
qmapshack:_ZNK11IDrawObject10drawTileLQERK6QImageR9QPolygonFR8QPainterR12IDrawContextRK5CProj
qmapshack:_ZNK11IDrawObject10metaObjectEv
qmapshack:_ZNK11IDrawObject12isOutOfScaleERK7QPointF
qmapshack:_ZNK11IGisProject10isOnDeviceEv
qmapshack:_ZNK11IGisProject12getDeviceKeyEv
qmapshack:_ZNK11IGisProject12getNogoAreasER5QListIP8IGisItemE
qmapshack:_ZNK11IGisProject6genKeyEv
qmapshack:_ZNK11IGisProject7getIconEv
qmapshack:_ZNK11IGisProject7getInfoEv
qmapshack:_ZNK11IGisProject7getNameEv
qmapshack:_ZNK11IGisProject9getNameExEv
qmapshack:_ZNK11IGisProject9isChangedEv
qmapshack:_ZNK11IGisProject9isVisibleEv
qmapshack:_ZNK11IGisProject9sortItemsER5QListIP8IGisItemE
qmapshack:_ZNK11IGisProjectrsER11QDataStream
qmapshack:_ZNK12CActivityTrk12printSummaryER7QString
qmapshack:_ZNK12CActivityTrk16getActivityNamesER11QStringList
qmapshack:_ZNK12CActivityTrk5sumUpER4QMapIN10CTrackData7trkpt_t7act20_eENS_9summary_tEE
qmapshack:_ZNK12CCanvasSetup10metaObjectEv
qmapshack:_ZNK12CColorLegend10metaObjectEv
qmapshack:_ZNK12CFilterReset10metaObjectEv
qmapshack:_ZNK12CFilterSpeed10metaObjectEv
qmapshack:_ZNK12CFitBaseType11isSignedIntEv
qmapshack:_ZNK12CFitBaseType13baseTypeFieldEv
qmapshack:_ZNK12CFitBaseType13isUnsignedIntEv
qmapshack:_ZNK12CFitBaseType15isSizeUndefinedEv
qmapshack:_ZNK12CFitBaseType17invalidValueBytesEv
qmapshack:_ZNK12CFitBaseType2nrEv
qmapshack:_ZNK12CFitBaseType4nameEv
qmapshack:_ZNK12CFitBaseType4sizeEv
qmapshack:_ZNK12CFitBaseType6isByteEv
qmapshack:_ZNK12CFitBaseType7isFloatEv
qmapshack:_ZNK12CFitBaseType8isNumberEv
qmapshack:_ZNK12CFitBaseType8isStringEv
qmapshack:_ZNK12CFitBaseType9isIntegerEv
qmapshack:_ZNK12CGarminPoint12getLabelTextEv
qmapshack:_ZNK12CGisDatabase10metaObjectEv
qmapshack:_ZNK12CGisItemRate10metaObjectEv
qmapshack:_ZNK12CGisItemRate11getKeywordsEv
qmapshack:_ZNK12CGisItemRate16getAddedKeywordsEv
qmapshack:_ZNK12CGisItemRate18getRemovedKeywordsEv
qmapshack:_ZNK12CHelpBrowser10metaObjectEv
qmapshack:_ZNK12CInputDialog10metaObjectEv
qmapshack:_ZNK12CLinksDialog10metaObjectEv
qmapshack:_ZNK12CMouseNormal10metaObjectEv
qmapshack:_ZNK12CMouseNormal10slotAddPoiERK8IPoiItem
qmapshack:_ZNK12CMouseNormal10slotAddRteEv
qmapshack:_ZNK12CMouseNormal10slotAddTrkEv
qmapshack:_ZNK12CMouseNormal10slotAddWptEv
qmapshack:_ZNK12CMouseNormal11slotAddAreaEv
qmapshack:_ZNK12CMouseNormal12stopTrackingEv
qmapshack:_ZNK12CMouseNormal14slotSelectAreaEv
qmapshack:_ZNK12CMouseNormal16slotCopyPositionEv
qmapshack:_ZNK12CMouseNormal20slotCopyPositionGridEv
qmapshack:_ZNK12CMouseNormal9slotRulerEv
qmapshack:_ZNK12CMouseSelect10metaObjectEv
qmapshack:_ZNK12CMouseSelect10slotDeleteEv
qmapshack:_ZNK12CMouseSelect10slotSymWptEv
qmapshack:_ZNK12CMouseSelect12slotColorTrkEv
qmapshack:_ZNK12CMouseSelect13slotEleWptTrkEv
qmapshack:_ZNK12CMouseSelect14slotCombineTrkEv
qmapshack:_ZNK12CMouseSelect14slotEditPrxWptEv
qmapshack:_ZNK12CMouseSelect15slotActivityTrkEv
qmapshack:_ZNK12CMouseSelect8slotCopyEv
qmapshack:_ZNK12CMouseSelect9slotRouteEv
qmapshack:_ZNK12CPhotoViewer10metaObjectEv
qmapshack:_ZNK12CPlotProfile10metaObjectEv
qmapshack:_ZNK12CPoiCategory10checkStateEv
qmapshack:_ZNK12CPrintDialog10metaObjectEv
qmapshack:_ZNK12CPropertyTrk12fillComboBoxEP9QComboBox
qmapshack:_ZNK12CPropertyTrk12propBySourceERK7QString
qmapshack:_ZNK12CPropertyTrk9setupPlotEP5CPlotRK7QString
qmapshack:_ZNK12CRouterSetup10metaObjectEv
qmapshack:_ZNK12CRtAisRecord10metaObjectEv
qmapshack:_ZNK12CRtGpsTether10metaObjectEv
qmapshack:_ZNK12CRtGpsTether12saveSettingsER9QSettings
qmapshack:_ZNK12CRtGpsTether14getDescriptionEv
qmapshack:_ZNK12CRtWorkspace10metaObjectEv
qmapshack:_ZNK12CRtWorkspace15hasSourceOfTypeEi
qmapshack:_ZNK12CRtWorkspace4drawER8QPainterRK9QPolygonFP7CRtDraw
qmapshack:_ZNK12CRtWorkspace8fastDrawER8QPainterRK6QRectFP7CRtDraw
qmapshack:_ZNK12CScrOptRuler10metaObjectEv
qmapshack:_ZNK12CSetupFolder10metaObjectEv
qmapshack:_ZNK12CTinySpinBox10metaObjectEv
qmapshack:_ZNK12IDBFolderSql14announceChangeEv
qmapshack:_ZNK12IDrawContext10metaObjectEv
qmapshack:_ZNK12IDrawContext11needsRedrawEv
qmapshack:_ZNK12IDrawContext12convertM2RadER7QPointF
qmapshack:_ZNK12IDrawContext12convertRad2MER7QPointF
qmapshack:_ZNK12IDrawContext13convertPx2RadER7QPointF
qmapshack:_ZNK12IDrawContext13convertRad2PxER7QPointF
qmapshack:_ZNK12IDrawContext13convertRad2PxER9QPolygonF
qmapshack:_ZNK12IDrawContext13getProjectionEv
qmapshack:_ZNK12IMouseSelect10metaObjectEv
qmapshack:_ZNK12IMouseSelect10rectRad2PxERK6QRectFRS0_
qmapshack:_ZNK12IMouseSelect11rectRad2DegERK6QRectFRS0_
qmapshack:_ZNK13CActionSelect10metaObjectEv
qmapshack:_ZNK13CActionSelect9getActionEv
qmapshack:_ZNK13CCanvasSelect10metaObjectEv
qmapshack:_ZNK13CDemPathSetup10metaObjectEv
qmapshack:_ZNK13CDemPropSetup10metaObjectEv
qmapshack:_ZNK13CFilterDelete10metaObjectEv
qmapshack:_ZNK13CFilterMedian10metaObjectEv
qmapshack:_ZNK13CGeoSearchWeb10metaObjectEv
qmapshack:_ZNK13CGeoSearchWeb13slotSearchWebEi7QPointF
qmapshack:_ZNK13CGeoSearchWeb7getMenuERK7QPointFP7QWidgetb
qmapshack:_ZNK13CGisWorkspace10metaObjectEv
qmapshack:_ZNK13CGisWorkspace11addPoiAsWptERK8IPoiItemP11IGisProject
qmapshack:_ZNK13CGisWorkspace11addPoiAsWptERK8IPoiItemR10tristate_eP11IGisProject
qmapshack:_ZNK13CGisWorkspace11addWptByPosERK7QPointFRK7QStringS5_
qmapshack:_ZNK13CGisWorkspace12addPoisAsWptERK4QSetI8IPoiItemEP11IGisProject
qmapshack:_ZNK13CGisWorkspace13areTagsHiddenEv
qmapshack:_ZNK13CMapPathSetup10metaObjectEv
qmapshack:_ZNK13CMapPropSetup10metaObjectEv
qmapshack:_ZNK13CMouseAdapter10metaObjectEv
qmapshack:_ZNK13CMouseAdaptercvRK7QCursorEv
qmapshack:_ZNK13CMouseEditRte10getGisLineEv
qmapshack:_ZNK13CMouseEditRte10metaObjectEv
qmapshack:_ZNK13CMouseEditTrk10getGisLineEv
qmapshack:_ZNK13CMouseEditTrk10metaObjectEv
qmapshack:_ZNK13CPlotAxisTime10metaObjectEv
qmapshack:_ZNK13CPoiPathSetup10metaObjectEv
qmapshack:_ZNK13CPoiPropSetup10metaObjectEv
qmapshack:_ZNK13CScrOptSelect10metaObjectEv
qmapshack:_ZNK13CTableTrkInfo10metaObjectEv
qmapshack:_ZNK13CUnitAviation10meter2areaEdR7QStringS1_
qmapshack:_ZNK13CUnitAviation10meter2areaEdRdR7QString
qmapshack:_ZNK13CUnitAviation10meter2unitEdRdR7QString
qmapshack:_ZNK13CUnitAviation14meter2distanceEdR7QStringS1_
qmapshack:_ZNK13CUnitAviation14meter2distanceEdRdR7QString
qmapshack:_ZNK13CUnitAviation15elevation2meterERK7QString
qmapshack:_ZNK13CUnitImperial10meter2areaEdR7QStringS1_
qmapshack:_ZNK13CUnitImperial10meter2areaEdRdR7QString
qmapshack:_ZNK13CUnitImperial10meter2unitEdRdR7QString
qmapshack:_ZNK13CUnitImperial14meter2distanceEdR7QStringS1_
qmapshack:_ZNK13CUnitImperial14meter2distanceEdRdR7QString
qmapshack:_ZNK13CUnitImperial15elevation2meterERK7QString
qmapshack:_ZNK13IMapPropSetup10metaObjectEv
qmapshack:_ZNK14CDBFolderMysql10metaObjectEv
qmapshack:_ZNK14CDBFolderMysql9getDBInfoEv
qmapshack:_ZNK14CDemTreeWidget10metaObjectEv
qmapshack:_ZNK14CDoubleSpinBox10metaObjectEv
qmapshack:_ZNK14CEnergyCycling7isValidEv
qmapshack:_ZNK14CFilterInvalid10metaObjectEv
qmapshack:_ZNK14CFilterNewDate10metaObjectEv
qmapshack:_ZNK14CGarminPolygon12getLabelTextEv
qmapshack:_ZNK14CMapTreeWidget10metaObjectEv
qmapshack:_ZNK14CMapVrtBuilder10metaObjectEv
qmapshack:_ZNK14CMouseEditArea10getGisLineEv
qmapshack:_ZNK14CMouseEditArea10metaObjectEv
qmapshack:_ZNK14CMouseRangeTrk10metaObjectEv
qmapshack:_ZNK14CPoiTreeWidget10metaObjectEv
qmapshack:_ZNK14CRouterBRouter10getRequestERK7QVectorI7QPointFERK5QListIP8IGisItemE
qmapshack:_ZNK14CRouterBRouter10metaObjectEv
qmapshack:_ZNK14CRouterBRouter12updateDialogEv
qmapshack:_ZNK14CRouterBRouter16isMinimumVersionEiii
qmapshack:_ZNK14CRouterBRouter16slotDisplayErrorERK7QStringS2_
qmapshack:_ZNK14CRouterBRouter17slotToggleBRouterEv
qmapshack:_ZNK14CRouterBRouter17slotToggleConsoleEv
qmapshack:_ZNK14CRouterBRouter18slotCloseStatusMsgEv
qmapshack:_ZNK14CRouterBRouter19updateBRouterStatusEv
qmapshack:_ZNK14CRouterBRouter26slotToolProfileInfoClickedEv
qmapshack:_ZNK14CRouterRoutino10metaObjectEv
qmapshack:_ZNK14CRtOpenSkyInfo10metaObjectEv
qmapshack:_ZNK14CRtOpenSkyInfo12saveSettingsER9QSettings
qmapshack:_ZNK14CScrOptOvlArea10metaObjectEv
qmapshack:_ZNK14CSetupDatabase10metaObjectEv
qmapshack:_ZNK14CSetupDatabase8noPasswdEv
qmapshack:_ZNK14CToolBarConfig10metaObjectEv
qmapshack:_ZNK14CToolBarConfig12saveSettingsEv
qmapshack:_ZNK14CToolBarConfig16availableActionsEv
qmapshack:_ZNK14CToolBarConfig17configuredActionsEv
qmapshack:_ZNK14CWptIconDialog10metaObjectEv
qmapshack:_ZNK14IDeviceWatcher10metaObjectEv
qmapshack:_ZNK14IMouseEditLine10metaObjectEv
qmapshack:_ZNK14IMouseEditLine14useAutoRoutingEv
qmapshack:_ZNK14IMouseEditLine15useTrackRoutingEv
qmapshack:_ZNK14IMouseEditLine16useVectorRoutingEv
qmapshack:_ZNK15CDBFolderSqlite10metaObjectEv
qmapshack:_ZNK15CDBFolderSqlite9getDBInfoEv
qmapshack:_ZNK15CDateTimeEditor10metaObjectEv
qmapshack:_ZNK15CDateTimeEditor11getCharSizeEv
qmapshack:_ZNK15CDateTimeEditor15initStyleOptionEP17QStyleOptionFrame
qmapshack:_ZNK15CDateTimeEditor15minimumSizeHintEv
qmapshack:_ZNK15CDateTimeEditor16getCharacterRectEi
qmapshack:_ZNK15CDateTimeEditor26getNearestEditablePositionERK6QPoint
qmapshack:_ZNK15CDateTimeEditor8sizeHintEv
qmapshack:_ZNK15CDateTimeEditor9getNumberENS_5GroupE
qmapshack:_ZNK15CDetailsOvlArea10metaObjectEv
qmapshack:_ZNK15CExportDatabase10metaObjectEv
qmapshack:_ZNK15CFilterLoopsCut10metaObjectEv
qmapshack:_ZNK15CFilterSubPt2Pt10metaObjectEv
qmapshack:_ZNK15CGisItemOvlArea19getPolylineFromDataER8SGisLine
qmapshack:_ZNK15CGisItemOvlArea22getPolylineDegFromDataER9QPolygonF
qmapshack:_ZNK15CGisItemOvlArea7getInfoEj
qmapshack:_ZNK15CGisItemOvlArearsER11QDataStream
qmapshack:_ZNK15CImportDatabase10metaObjectEv
qmapshack:_ZNK15CKnownExtension7getNameERK7QString
qmapshack:_ZNK15CKnownExtension8toStringEdbRK7QString
qmapshack:_ZNK15CMouseRadiusWpt10metaObjectEv
qmapshack:_ZNK15CMouseWptBubble10metaObjectEv
qmapshack:_ZNK15CPositionDialog10metaObjectEv
qmapshack:_ZNK15CProgressDialog10metaObjectEv
qmapshack:_ZNK15CRangeToolSetup10metaObjectEv
qmapshack:_ZNK15CRouterMapQuest10metaObjectEv
qmapshack:_ZNK15CRtSelectSource10metaObjectEv
qmapshack:_ZNK15CScrOptEditLine10metaObjectEv
qmapshack:_ZNK15CScrOptRangeTrk10metaObjectEv
qmapshack:_ZNK15CSearchDatabase10metaObjectEv
qmapshack:_ZNK15CSearchLineEdit10metaObjectEv
qmapshack:_ZNK15CSelectDBFolder10metaObjectEv
qmapshack:_ZNK15CSetupWorkspace10metaObjectEv
qmapshack:_ZNK15CTemplateWidget10metaObjectEv
qmapshack:_ZNK15CTextEditWidget10metaObjectEv
qmapshack:_ZNK15CTrkToRteDialog10metaObjectEv
qmapshack:_ZNK16CDetailsGeoCache10metaObjectEv
qmapshack:_ZNK16CElevationDialog10metaObjectEv
qmapshack:_ZNK16CFilterSpeedHike10metaObjectEv
qmapshack:_ZNK16CFitFieldProfile10getProfileEv
qmapshack:_ZNK16CFitFieldProfile11getBaseTypeEv
qmapshack:_ZNK16CFitFieldProfile12getSubfieldsEv
qmapshack:_ZNK16CFitFieldProfile12hasSubfieldsEv
qmapshack:_ZNK16CFitFieldProfile13getComponentsEv
qmapshack:_ZNK16CFitFieldProfile13getDevDataIdxEv
qmapshack:_ZNK16CFitFieldProfile13hasComponentsEv
qmapshack:_ZNK16CFitFieldProfile14getFieldDefNumEv
qmapshack:_ZNK16CFitFieldProfile15getDevProfileIdEv
qmapshack:_ZNK16CFitFieldProfile17hasScaleAndOffsetEv
qmapshack:_ZNK16CFitFieldProfile7getNameEv
qmapshack:_ZNK16CFitFieldProfile8getScaleEv
qmapshack:_ZNK16CFitFieldProfile8getUnitsEv
qmapshack:_ZNK16CFitFieldProfile9getOffsetEv
qmapshack:_ZNK16CGeoSearchConfig10metaObjectEv
qmapshack:_ZNK16CGeoSearchConfig14getCurrentIconEv
qmapshack:_ZNK16CGeoSearchConfig4saveEv
qmapshack:_ZNK16CGisSummarySetup10metaObjectEv
qmapshack:_ZNK16CGisSummarySetup12writeResultsEN11CGisSummary10dropzone_eEP9QLineEditP11QListWidget
qmapshack:_ZNK16CPoiIconCategory7getIconERK11QStringList
qmapshack:_ZNK16CRtGpsTetherInfo10getHeadingEv
qmapshack:_ZNK16CRtGpsTetherInfo10metaObjectEv
qmapshack:_ZNK16CRtGpsTetherInfo11getPositionEv
qmapshack:_ZNK16CRtGpsTetherInfo12saveSettingsER9QSettings
qmapshack:_ZNK16CRtGpsTetherInfo8slotHelpEv
qmapshack:_ZNK16CRtOpenSkyRecord10metaObjectEv
qmapshack:_ZNK16CScrOptRangeLine10metaObjectEv
qmapshack:_ZNK16CScrOptRangeTool10metaObjectEv
qmapshack:_ZNK16CScrOptWptRadius10metaObjectEv
qmapshack:_ZNK17CCoordFormatSetup10metaObjectEv
qmapshack:_ZNK17CFilterSpeedConst10metaObjectEv
qmapshack:_ZNK17CFilterSpeedCycle10metaObjectEv
qmapshack:_ZNK17CFilterSplitTrack10metaObjectEv
qmapshack:_ZNK17CFitProfileLookup10metaObjectEv
qmapshack:_ZNK17CScreenshotDialog10metaObjectEv
qmapshack:_ZNK17CSelectCopyAction10metaObjectEv
qmapshack:_ZNK17CSelectSaveAction10metaObjectEv
qmapshack:_ZNK17CSetupIconAndName10metaObjectEv
qmapshack:_ZNK18CFilterObscureDate10metaObjectEv
qmapshack:_ZNK18CHistoryListWidget10metaObjectEv
qmapshack:_ZNK18CLineOpSelectRange10metaObjectEv
qmapshack:_ZNK18CRouterBRouterInfo10metaObjectEv
qmapshack:_ZNK18CRouterBRouterInfo7setInfoERK7QString
qmapshack:_ZNK18CRouterBRouterInfo8setLabelERK7QString
qmapshack:_ZNK18CRtGpsTetherRecord10metaObjectEv
qmapshack:_ZNK19CCreateRouteFromWpt10metaObjectEv
qmapshack:_ZNK19CDeviceWatcherLinux10metaObjectEv
qmapshack:_ZNK19CFilterSplitSegment10metaObjectEv
qmapshack:_ZNK19CFilterTerrainSlope10metaObjectEv
qmapshack:_ZNK19CFitFieldDefinition11getBaseTypeEv
qmapshack:_ZNK19CFitFieldDefinition13getDevDataIdxEv
qmapshack:_ZNK19CFitFieldDefinition15getDevProfileIdEv
qmapshack:_ZNK19CFitFieldDefinition20getEndianAbilityFlagEv
qmapshack:_ZNK19CFitFieldDefinition7getSizeEv
qmapshack:_ZNK19CFitFieldDefinition7getTypeEv
qmapshack:_ZNK19CFitFieldDefinition8getDefNrEv
qmapshack:_ZNK19CFitFieldDefinition9fieldInfoEv
qmapshack:_ZNK19CFitSubfieldProfile23getReferencedFieldDefNrEv
qmapshack:_ZNK19CFitSubfieldProfile23getReferencedFieldValueEv
qmapshack:_ZNK19CGisSummaryDropZone10metaObjectEv
qmapshack:_ZNK19CRouterBRouterLocal10metaObjectEv
qmapshack:_ZNK19CRouterBRouterLocal11stopBRouterEv
qmapshack:_ZNK19CRouterBRouterLocal14isBRouterErrorEv
qmapshack:_ZNK19CRouterBRouterLocal17getBRouterVersionEv
qmapshack:_ZNK19CRouterBRouterLocal19isBRouterNotRunningEv
qmapshack:_ZNK19CRouterBRouterLocal20usesLocalBindaddressEv
qmapshack:_ZNK19CRouterBRouterLocal24updateLocalBRouterStatusEv
qmapshack:_ZNK19CRouterBRouterSetup10metaObjectEv
qmapshack:_ZNK19CRouterBRouterSetup11getProfilesEv
qmapshack:_ZNK19CRouterBRouterSetup12getConfigUrlEv
qmapshack:_ZNK19CRouterBRouterSetup13getProfileDirENS_6mode_eE
qmapshack:_ZNK19CRouterBRouterSetup13getServiceUrlEv
qmapshack:_ZNK19CRouterBRouterSetup14getBinariesUrlEv
qmapshack:_ZNK19CRouterBRouterSetup14getDownloadDirEv
qmapshack:_ZNK19CRouterBRouterSetup14getSegmentsUrlEv
qmapshack:_ZNK19CRouterBRouterSetup14modeFromStringERK7QString
qmapshack:_ZNK19CRouterBRouterSetup14stringFromModeENS_6mode_eE
qmapshack:_ZNK19CRouterBRouterSetup16loadOnlineConfigEb
qmapshack:_ZNK19CRouterBRouterSetup17loadOnlineVersionEv
qmapshack:_ZNK19CRouterBRouterSetup22loadExpertBinariesPageEv
qmapshack:_ZNK19CRouterBRouterSetup22loadExpertSegmentsPageEv
qmapshack:_ZNK19CRouterBRouterSetup22loadOnlineProfileAsyncERK7QStringNS_16profileRequest_eE
qmapshack:_ZNK19CRouterBRouterSetup23installLocalBRouterFileERK9QFileInfoRK4QDirR11QStringList
qmapshack:_ZNK19CRouterBRouterSetup23loadLocalOnlineProfilesEb
qmapshack:_ZNK19CRouterBRouterSetup24isLocalBRouterDefaultDirEv
qmapshack:_ZNK19CRouterBRouterSetup25displayOnlineProfileAsyncERK7QString
qmapshack:_ZNK19CRouterBRouterSetup8findJavaEv
qmapshack:_ZNK19CToolBarSetupDialog10metaObjectEv
qmapshack:_ZNK19CToolBarSetupDialog17slotButtonClickedEP15QAbstractButton
qmapshack:_ZNK19CToolBarSetupDialog9configureEv
qmapshack:_ZNK20CDeviceGarminArchive10metaObjectEv
qmapshack:_ZNK20CEnergyCyclingDialog10metaObjectEv
qmapshack:_ZNK20CFilterDouglasPeuker10metaObjectEv
qmapshack:_ZNK20CSelectActivityColor10metaObjectEv
qmapshack:_ZNK20CSelectProjectDialog10metaObjectEv
qmapshack:_ZNK21CExportDatabaseThread10metaObjectEv
qmapshack:_ZNK21CExportDatabaseThread12getKeepGoingEv
qmapshack:_ZNK21CExportDatabaseThread14simplifyStringERK7QString
qmapshack:_ZNK21CFitDefinitionMessage11messageInfoEv
qmapshack:_ZNK21CFitDefinitionMessage15getFieldByIndexEt
qmapshack:_ZNK21CFitDefinitionMessage18getArchitectureBitEv
qmapshack:_ZNK21CFitDefinitionMessage18getDevFieldByIndexEt
qmapshack:_ZNK21CFitDefinitionMessage8getFieldEh
qmapshack:_ZNK21CFitDefinitionMessage8hasFieldEh
qmapshack:_ZNK22CFilterDeleteExtension10metaObjectEv
qmapshack:_ZNK22CFilterOffsetElevation10metaObjectEv
qmapshack:_ZNK22CFitDevFieldDefinition10getFieldNrEv
qmapshack:_ZNK22CFitDevFieldDefinition15getDevDataIndexEv
qmapshack:_ZNK22CFitDevFieldDefinition7getSizeEv
qmapshack:_ZNK22CFitDevFieldDefinition9fieldInfoEv
qmapshack:_ZNK22CTextEditWidgetSelMenu10metaObjectEv
qmapshack:_ZNK23CFilterChangeStartPoint10metaObjectEv
qmapshack:_ZNK23CFilterReplaceElevation10metaObjectEv
qmapshack:_ZNK23CRouterBRouterSetupPage10isCompleteEv
qmapshack:_ZNK23CRouterBRouterSetupPage10metaObjectEv
qmapshack:_ZNK23CRouterBRouterTilesPage10isCompleteEv
qmapshack:_ZNK23CRouterBRouterTilesPage10metaObjectEv
qmapshack:_ZNK23CRouterBRouterTilesPage12raiseWarningEv
qmapshack:_ZNK23CRouterBRouterTilesPage8setSetupEP19CRouterBRouterSetup
qmapshack:_ZNK23CRouterBRouterTilesPage9beginPageEv
qmapshack:_ZNK23CRouterBRouterToolShell10metaObjectEv
qmapshack:_ZNK23CRouterRoutinoPathSetup10metaObjectEv
qmapshack:_ZNK23CRoutinoDatabaseBuilder10metaObjectEv
qmapshack:_ZNK23CSelectDoubleListWidget10metaObjectEv
qmapshack:_ZNK23CSelectDoubleListWidget10slotRemoveEv
qmapshack:_ZNK23CSelectDoubleListWidget11setSelectedERK5QListIP15QListWidgetItemE
qmapshack:_ZNK23CSelectDoubleListWidget13updateButtonsEv
qmapshack:_ZNK23CSelectDoubleListWidget16setLabelSelectedERK7QString
qmapshack:_ZNK23CSelectDoubleListWidget17setLabelAvailableERK7QString
qmapshack:_ZNK23CSelectDoubleListWidget19slotSelectedClickedERK11QModelIndex
qmapshack:_ZNK23CSelectDoubleListWidget20slotAvailableClickedERK11QModelIndex
qmapshack:_ZNK23CSelectDoubleListWidget6slotUpEv
qmapshack:_ZNK23CSelectDoubleListWidget7slotAddEv
qmapshack:_ZNK23CSelectDoubleListWidget8selectedEv
qmapshack:_ZNK23CSelectDoubleListWidget8slotDownEv
qmapshack:_ZNK24CSearchExplanationDialog10metaObjectEv
qmapshack:_ZNK25CFitComponentfieldProfile10getBitmaskEv
qmapshack:_ZNK25CFitComponentfieldProfile11getBaseTypeEv
qmapshack:_ZNK25CFitComponentfieldProfile14getFieldDefNumEv
qmapshack:_ZNK25CFitComponentfieldProfile7getBitsEv
qmapshack:_ZNK25CFitComponentfieldProfile7getNameEv
qmapshack:_ZNK25CGeoSearchWebConfigDialog10metaObjectEv
qmapshack:_ZNK25CRouterBRouterSetupWizard10metaObjectEv
qmapshack:_ZNK25CRouterBRouterSetupWizard14initLocalTilesEv
qmapshack:_ZNK25CRouterBRouterSetupWizard14updateProfilesEv
qmapshack:_ZNK25CRouterBRouterSetupWizard16selectedProfilesEPK9QListView
qmapshack:_ZNK25CRouterBRouterSetupWizard17resetLocalDetailsEv
qmapshack:_ZNK25CRouterBRouterSetupWizard17updateProfileViewEP9QListViewRK11QStringList
qmapshack:_ZNK25CRouterBRouterSetupWizard18resetOnlineDetailsEv
qmapshack:_ZNK25CRouterBRouterSetupWizard18slotProfileClickedERK11QModelIndex
qmapshack:_ZNK25CRouterBRouterSetupWizard18updateLocalDetailsEv
qmapshack:_ZNK25CRouterBRouterSetupWizard19updateOnlineDetailsEv
qmapshack:_ZNK25CRouterBRouterSetupWizard20slotProfileUpClickedEv
qmapshack:_ZNK25CRouterBRouterSetupWizard20updateLocalDirectoryEv
qmapshack:_ZNK25CRouterBRouterSetupWizard20validateLocalDetailsEv
qmapshack:_ZNK25CRouterBRouterSetupWizard21slotAddProfileClickedEv
qmapshack:_ZNK25CRouterBRouterSetupWizard21slotDelProfileClickedEv
qmapshack:_ZNK25CRouterBRouterSetupWizard21slotLocalPushFindJavaEv
qmapshack:_ZNK25CRouterBRouterSetupWizard21slotRadioLocalClickedEv
qmapshack:_ZNK25CRouterBRouterSetupWizard21validateOnlineDetailsEv
qmapshack:_ZNK25CRouterBRouterSetupWizard22slotCheckExpertClickedEv
qmapshack:_ZNK25CRouterBRouterSetupWizard22slotProfileDownClickedEv
qmapshack:_ZNK25CRouterBRouterSetupWizard22slotRadioOnlineClickedEv
qmapshack:_ZNK25CRouterBRouterSetupWizard24slotLocalDirectoryEditedEv
qmapshack:_ZNK25CRouterBRouterSetupWizard25slotLocalBRouterJarEditedEv
qmapshack:_ZNK25CRouterBRouterSetupWizard27slotAvailableProfileClickedERK11QModelIndex
qmapshack:_ZNK25CRouterBRouterSetupWizard29slotLocalJavaExecutableEditedEv
qmapshack:_ZNK25CRouterBRouterSetupWizard29slotOnlineConfigButtonClickedEv
qmapshack:_ZNK25CRouterBRouterSetupWizard6nextIdEv
qmapshack:_ZNK25CRouterBRouterTilesSelect10clearErrorEv
qmapshack:_ZNK25CRouterBRouterTilesSelect10metaObjectEv
qmapshack:_ZNK25CRouterBRouterTilesSelect11segmentsDirEv
qmapshack:_ZNK25CRouterBRouterTilesSelect11updateTilesEv
qmapshack:_ZNK25CRouterBRouterTilesSelect13getTileStatusE6QPoint
qmapshack:_ZNK25CRouterBRouterTilesSelect13segmentsErrorERK7QString
qmapshack:_ZNK25CRouterBRouterTilesSelect13updateButtonsEv
qmapshack:_ZNK25CRouterBRouterTilesSelect14cancelDownloadEv
qmapshack:_ZNK25CRouterBRouterTilesSelect22slotTileToolTipChangedERK6QPoint
qmapshack:_ZNK25CRouterBRouterTilesSelect5errorERK7QString
qmapshack:_ZNK25CRouterBRouterTilesStatus10metaObjectEv
qmapshack:_ZNK26CRouterBRouterDownloadPage10isCompleteEv
qmapshack:_ZNK26CRouterBRouterDownloadPage10metaObjectEv
qmapshack:_ZNK26CRouterBRouterDownloadPage11updateModelEv
qmapshack:_ZNK26CRouterBRouterDownloadPage30slotLocalDownloadButtonClickedEv
qmapshack:_ZNK27CFilterInterpolateElevation10metaObjectEv
qmapshack:_ZNK28CFilterZeroSpeedDriftCleaner10metaObjectEv
qmapshack:_ZNK29CRouterBRouterTilesSelectArea10metaObjectEv
qmapshack:_ZNK29CRouterBRouterTilesSelectArea11gridPolygonERK6QPoint
qmapshack:_ZNK29CRouterBRouterTilesSelectArea11tilePolygonERK6QPoint
qmapshack:_ZNK29CRouterBRouterTilesSelectArea14tileUnderMouseERK7QPointF
qmapshack:_ZNK4CQlb10metaObjectEv
qmapshack:_ZNK4IDem10metaObjectEv
qmapshack:_ZNK4IDem10slopecolorER7QVectorIfEddR6QImage
qmapshack:_ZNK4IDem11hillshadingER7QVectorIfEddR6QImage
qmapshack:_ZNK4IDem12slopeShadingER7QVectorIfEddR6QImage
qmapshack:_ZNK4IDem14elevationLimitER7QVectorIfEddR6QImage
qmapshack:_ZNK4IDem16elevationShadingER7QVectorIfEddR6QImage
qmapshack:_ZNK4IDem19slopeOfWindowInterpEPfNS_9winsize_eEdd
qmapshack:_ZNK4IDem20getFactorHillshadingEv
qmapshack:_ZNK4IDem21getFactorSlopeShadingEv
qmapshack:_ZNK4IDem24getCurrentSlopeStepTableEv
qmapshack:_ZNK4IDem8drawTileER6QImageR9QPolygonFR8QPainter
qmapshack:_ZNK4IMap10metaObjectEv
qmapshack:_ZNK4IMap12convertM2RadER7QPointF
qmapshack:_ZNK4IMap12convertRad2MER7QPointF
qmapshack:_ZNK5CGrid10metaObjectEv
qmapshack:_ZNK5CHelp10metaObjectEv
qmapshack:_ZNK5CPlot10metaObjectEv
qmapshack:_ZNK5CProj10_isLatLongERK7QString
qmapshack:_ZNK5CProj10_transformERdS0_12PJ_DIRECTION
qmapshack:_ZNK5CProj9transformER7QPointF12PJ_DIRECTION
qmapshack:_ZNK5CProj9transformER9QPolygonF12PJ_DIRECTION
qmapshack:_ZNK5CProj9transformERdS0_12PJ_DIRECTION
qmapshack:_ZNK5IPlot10metaObjectEv
qmapshack:_ZNK5IPlot12getBasePointEi
qmapshack:_ZNK5IPlot17getVisiblePolygonERK9QPolygonFRS0_
qmapshack:_ZNK5IPlot8isZoomedEv
qmapshack:_ZNK5IUnit10metaObjectEv
qmapshack:_ZNK5IUnit10meter2baseEdR7QStringS1_
qmapshack:_ZNK5IUnit11meter2speedEdR7QStringS1_
qmapshack:_ZNK5IUnit11meter2speedEdRdR7QString
qmapshack:_ZNK5IUnit12seconds2timeEjR7QStringS1_
qmapshack:_ZNK5IUnit15meter2elevationEdR7QStringS1_
qmapshack:_ZNK5IUnit15meter2elevationEdRdR7QString
qmapshack:_ZNK6CLimit10metaObjectEv
qmapshack:_ZNK6CLimit6getMaxEv
qmapshack:_ZNK6CLimit6getMinEv
qmapshack:_ZNK6CLimit7getUnitEv
qmapshack:_ZNK6CRtAis10metaObjectEv
qmapshack:_ZNK6CRtAis12getShowNamesEv
qmapshack:_ZNK6CRtAis12saveSettingsER9QSettings
qmapshack:_ZNK6CRtAis14getDescriptionEv
qmapshack:_ZNK6CRtAis16getNumberOfShipsEv
qmapshack:_ZNK6CValue3valEv
qmapshack:_ZNK6IMouse10metaObjectEv
qmapshack:_ZNK7CCanvas10findPoisInERK6QRectFR4QSetI8IPoiItemER5QListI7QPointFE
qmapshack:_ZNK7CCanvas10getSlopeAtERK7QPointF
qmapshack:_ZNK7CCanvas10getSlopeAtERK9QPolygonFRS0_
qmapshack:_ZNK7CCanvas10metaObjectEv
qmapshack:_ZNK7CCanvas13convertPx2RadER7QPointF
qmapshack:_ZNK7CCanvas13convertRad2PxER7QPointF
qmapshack:_ZNK7CCanvas14findPoiCloseByERK6QPointR4QSetI8IPoiItemER5QListI7QPointFE
qmapshack:_ZNK7CCanvas14getElevationAtER8SGisLine
qmapshack:_ZNK7CCanvas14getElevationAtERK7QPointF
qmapshack:_ZNK7CCanvas14getElevationAtERK9QPolygonFRS0_
qmapshack:_ZNK7CCanvas18isShowTrackProfileEv
qmapshack:_ZNK7CCanvas18isShowTrackSummaryEv
qmapshack:_ZNK7CCanvas19isShowMinMaxSummaryEv
qmapshack:_ZNK7CCanvas20isShowTrackHighlightEv
qmapshack:_ZNK7CCanvas20isShowTrackInfoTableEv
qmapshack:_ZNK7CCanvas21isShowTrackInfoPointsEv
qmapshack:_ZNK7CCutTrk10metaObjectEv
qmapshack:_ZNK7CDBItem7getNameEv
qmapshack:_ZNK7CDemVRT10metaObjectEv
qmapshack:_ZNK7CDemVRT23drawElevationShadeScaleER8QPainter
qmapshack:_ZNK7CDemVRT8drawTileEiiiiddR8QPainter
qmapshack:_ZNK7CMapIMG10getToolTipERK6QPointR7QString
qmapshack:_ZNK7CMapIMG10metaObjectEv
qmapshack:_ZNK7CMapIMG13getInfoPointsERK7QVectorI12CGarminPointERK6QPointR9QMultiMapI7QStringS9_E
qmapshack:_ZNK7CMapIMG14findPOICloseByERK6QPointR8IPoiItem
qmapshack:_ZNK7CMapIMG15getInfoPolygonsERK6QPointR9QMultiMapI7QStringS4_E
qmapshack:_ZNK7CMapIMG16getInfoPolylinesERK6QPointR9QMultiMapI7QStringS4_E
qmapshack:_ZNK7CMapIMG27intersectsWithExistingLabelERK5QRect
qmapshack:_ZNK7CMapTMS10metaObjectEv
qmapshack:_ZNK7CMapVRT10metaObjectEv
qmapshack:_ZNK7IDevice7getNameEv
qmapshack:_ZNK7ILineOp10metaObjectEv
qmapshack:_ZNK7ILineOp10tryRoutingERN8IGisLine7point_tES2_
qmapshack:_ZNK7ILineOp12drawLeadLineERK9QPolygonFR8QPainter
qmapshack:_ZNK7ILineOp13isCloseToLineERK6QPoint
qmapshack:_ZNK7ILineOp23showRoutingErrorMessageERK7QString
qmapshack:_ZNK7ILineOp9isCloseToERK6QPoint
qmapshack:_ZNK7IRouter10metaObjectEv
qmapshack:_ZNK7IRtInfo10metaObjectEv
qmapshack:_ZNK8CDemList10metaObjectEv
qmapshack:_ZNK8CMapDraw10metaObjectEv
qmapshack:_ZNK8CMapDraw14findPOICloseByERK6QPoint
qmapshack:_ZNK8CMapGEMF10metaObjectEv
qmapshack:_ZNK8CMapItem10saveConfigER9QSettings
qmapshack:_ZNK8CMapList10metaObjectEv
qmapshack:_ZNK8CMapRMAP10metaObjectEv
qmapshack:_ZNK8CMapWMTS10metaObjectEv
qmapshack:_ZNK8CPoiDraw10findPoisInERK6QRectFR4QSetI8IPoiItemER5QListI7QPointFE
qmapshack:_ZNK8CPoiDraw14findPoiCloseByERK6QPointR4QSetI8IPoiItemER5QListI7QPointFE
qmapshack:_ZNK8CPoiList10metaObjectEv
qmapshack:_ZNK8CProjWpt10metaObjectEv
qmapshack:_ZNK8CWebPage10metaObjectEv
qmapshack:_ZNK8IDemProp10metaObjectEv
qmapshack:_ZNK8IGisItem10isOnDeviceEv
qmapshack:_ZNK8IGisItem10isReadOnlyEv
qmapshack:_ZNK8IGisItem11getKeywordsEv
qmapshack:_ZNK8IGisItem16getParentProjectEv
qmapshack:_ZNK8IGisItem17getKeywordsSortedEv
qmapshack:_ZNK8IGisItem20getRatingKeywordInfoEv
qmapshack:_ZNK8IGisItem6genKeyEv
qmapshack:_ZNK8IGisItem6getKeyEv
qmapshack:_ZNK8IGisItem9getNameExEv
qmapshack:_ZNK8IGisItem9getRatingEv
qmapshack:_ZNK8IGisItem9isChangedEv
qmapshack:_ZNK8IGisItem9isTaintedEv
qmapshack:_ZNK8IMapProp10metaObjectEv
qmapshack:_ZNK8IPoiFile10metaObjectEv
qmapshack:_ZNK8IPoiProp10metaObjectEv
qmapshack:_ZNK9CFitField9fieldInfoEv
qmapshack:_ZNK9CLineEdit10metaObjectEv
qmapshack:_ZNK9CPlotAxis10metaObjectEv
qmapshack:_ZNK9CTableTrk10metaObjectEv
qmapshack:_ZNK9CTextEdit10metaObjectEv
qmapshack:_ZNK9IDBFolder13isSiblingFromEPS_
qmapshack:_ZNK9IDBFolder13showLostFoundEv
qmapshack:_ZNK9IDBFolder14showCheckBoxesEv
qmapshack:_ZNK9IDBFolder15getBoolPropertyEPKcb
qmapshack:_ZNK9IDBFolder7getNameEv
qmapshack:_ZNK9IDBFolder9getDBHostEv
qmapshack:_ZNK9IDBFolder9getDBNameEv
qmapshack:_ZNK9IDBFolder9showItemsEv
qmapshack:_ZNK9IDBFolder9sortItemsER5QListIP7CDBItemE
qmapshack:_ZNK9IDBFolderltERK15QTreeWidgetItem
qmapshack:_ZNK9IRtRecord10metaObjectEv
qmapshack:_ZNK9IRtSource10metaObjectEv
qmapshack:_ZNK9IRtSource12saveSettingsER9QSettings
qmapshack:_ZThn104_N16CScrOptRangeTool10updateDataEv
qmapshack:_ZThn104_N16CScrOptRangeTool13setMouseFocusEPKN10CTrackData7trkpt_tE
qmapshack:_ZThn104_N16CScrOptRangeTool18setMouseClickFocusEPKN10CTrackData7trkpt_tE
qmapshack:_ZThn104_N16CScrOptRangeTool18setMouseRangeFocusEPKN10CTrackData7trkpt_tES3_
qmapshack:_ZThn104_N16CScrOptRangeToolD0Ev
qmapshack:_ZThn104_N16CScrOptRangeToolD1Ev
qmapshack:_ZThn16_N10CGeoSearchD0Ev
qmapshack:_ZThn16_N10CGeoSearchD1Ev
qmapshack:_ZThn16_N10CGisListDBD0Ev
qmapshack:_ZThn16_N10CGisListDBD1Ev
qmapshack:_ZThn16_N10CGridSetupD0Ev
qmapshack:_ZThn16_N10CGridSetupD1Ev
qmapshack:_ZThn16_N10CPlotTrackD0Ev
qmapshack:_ZThn16_N10CPlotTrackD1Ev
qmapshack:_ZThn16_N10CQlgtDiaryD0Ev
qmapshack:_ZThn16_N10CQlgtDiaryD1Ev
qmapshack:_ZThn16_N10CQlgtRouteD0Ev
qmapshack:_ZThn16_N10CQlgtRouteD1Ev
qmapshack:_ZThn16_N10CQlgtTrackD0Ev
qmapshack:_ZThn16_N10CQlgtTrackD1Ev
qmapshack:_ZThn16_N10CRtAisInfoD0Ev
qmapshack:_ZThn16_N10CRtAisInfoD1Ev
qmapshack:_ZThn16_N10CScrOptRteD0Ev
qmapshack:_ZThn16_N10CScrOptRteD1Ev
qmapshack:_ZThn16_N10CScrOptTrkD0Ev
qmapshack:_ZThn16_N10CScrOptTrkD1Ev
qmapshack:_ZThn16_N10CScrOptWptD0Ev
qmapshack:_ZThn16_N10CScrOptWptD1Ev
qmapshack:_ZThn16_N10IToolShellD0Ev
qmapshack:_ZThn16_N10IToolShellD1Ev
qmapshack:_ZThn16_N11CCombineTrkD0Ev
qmapshack:_ZThn16_N11CCombineTrkD1Ev
qmapshack:_ZThn16_N11CDetailsPrjD0Ev
qmapshack:_ZThn16_N11CDetailsPrjD1Ev
qmapshack:_ZThn16_N11CDetailsRteD0Ev
qmapshack:_ZThn16_N11CDetailsRteD1Ev
qmapshack:_ZThn16_N11CDetailsTrkD0Ev
qmapshack:_ZThn16_N11CDetailsTrkD1Ev
qmapshack:_ZThn16_N11CDetailsWptD0Ev
qmapshack:_ZThn16_N11CDetailsWptD1Ev
qmapshack:_ZThn16_N11CFadingIconD0Ev
qmapshack:_ZThn16_N11CFadingIconD1Ev
qmapshack:_ZThn16_N11CGisListWksD0Ev
qmapshack:_ZThn16_N11CGisListWksD1Ev
qmapshack:_ZThn16_N11CGisSummaryD0Ev
qmapshack:_ZThn16_N11CGisSummaryD1Ev
qmapshack:_ZThn16_N11CInvalidTrkD0Ev
qmapshack:_ZThn16_N11CInvalidTrkD1Ev
qmapshack:_ZThn16_N11CListTrkPtsD0Ev
qmapshack:_ZThn16_N11CListTrkPtsD1Ev
qmapshack:_ZThn16_N11CMainWindowD0Ev
qmapshack:_ZThn16_N11CMainWindowD1Ev
qmapshack:_ZThn16_N11CPhotoAlbumD0Ev
qmapshack:_ZThn16_N11CPhotoAlbumD1Ev
qmapshack:_ZThn16_N11CProjWizardD0Ev
qmapshack:_ZThn16_N11CProjWizardD1Ev
qmapshack:_ZThn16_N11CSelDevicesD0Ev
qmapshack:_ZThn16_N11CSelDevicesD1Ev
qmapshack:_ZThn16_N12CCanvasSetupD0Ev
qmapshack:_ZThn16_N12CCanvasSetupD1Ev
qmapshack:_ZThn16_N12CColorLegendD0Ev
qmapshack:_ZThn16_N12CColorLegendD1Ev
qmapshack:_ZThn16_N12CFilterSpeedD0Ev
qmapshack:_ZThn16_N12CFilterSpeedD1Ev
qmapshack:_ZThn16_N12CGisDatabaseD0Ev
qmapshack:_ZThn16_N12CGisDatabaseD1Ev
qmapshack:_ZThn16_N12CGisItemRateD0Ev
qmapshack:_ZThn16_N12CGisItemRateD1Ev
qmapshack:_ZThn16_N12CInputDialogD0Ev
qmapshack:_ZThn16_N12CInputDialogD1Ev
qmapshack:_ZThn16_N12CLinksDialogD0Ev
qmapshack:_ZThn16_N12CLinksDialogD1Ev
qmapshack:_ZThn16_N12CPhotoViewerD0Ev
qmapshack:_ZThn16_N12CPhotoViewerD1Ev
qmapshack:_ZThn16_N12CPlotProfileD0Ev
qmapshack:_ZThn16_N12CPlotProfileD1Ev
qmapshack:_ZThn16_N12CPrintDialogD0Ev
qmapshack:_ZThn16_N12CPrintDialogD1Ev
qmapshack:_ZThn16_N12CRouterSetupD0Ev
qmapshack:_ZThn16_N12CRouterSetupD1Ev
qmapshack:_ZThn16_N12CRtWorkspaceD0Ev
qmapshack:_ZThn16_N12CRtWorkspaceD1Ev
qmapshack:_ZThn16_N12CScrOptRulerD0Ev
qmapshack:_ZThn16_N12CScrOptRulerD1Ev
qmapshack:_ZThn16_N12CSetupFolderD0Ev
qmapshack:_ZThn16_N12CSetupFolderD1Ev
qmapshack:_ZThn16_N12IQlgtOverlayD0Ev
qmapshack:_ZThn16_N12IQlgtOverlayD1Ev
qmapshack:_ZThn16_N13CDemPathSetupD0Ev
qmapshack:_ZThn16_N13CDemPathSetupD1Ev
qmapshack:_ZThn16_N13CDemPropSetupD0Ev
qmapshack:_ZThn16_N13CDemPropSetupD1Ev
qmapshack:_ZThn16_N13CFilterMedianD0Ev
qmapshack:_ZThn16_N13CFilterMedianD1Ev
qmapshack:_ZThn16_N13CGisWorkspaceD0Ev
qmapshack:_ZThn16_N13CGisWorkspaceD1Ev
qmapshack:_ZThn16_N13CMapPathSetupD0Ev
qmapshack:_ZThn16_N13CMapPathSetupD1Ev
qmapshack:_ZThn16_N13CMapPropSetupD0Ev
qmapshack:_ZThn16_N13CMapPropSetupD1Ev
qmapshack:_ZThn16_N13CScrOptSelectD0Ev
qmapshack:_ZThn16_N13CScrOptSelectD1Ev
qmapshack:_ZThn16_N13CTableTrkInfoD0Ev
qmapshack:_ZThn16_N13CTableTrkInfoD1Ev
qmapshack:_ZThn16_N14CMapVrtBuilderD0Ev
qmapshack:_ZThn16_N14CMapVrtBuilderD1Ev
qmapshack:_ZThn16_N14CRouterBRouterD0Ev
qmapshack:_ZThn16_N14CRouterBRouterD1Ev
qmapshack:_ZThn16_N14CRouterRoutinoD0Ev
qmapshack:_ZThn16_N14CRouterRoutinoD1Ev
qmapshack:_ZThn16_N14CScrOptOvlAreaD0Ev
qmapshack:_ZThn16_N14CScrOptOvlAreaD1Ev
qmapshack:_ZThn16_N14CSetupDatabaseD0Ev
qmapshack:_ZThn16_N14CSetupDatabaseD1Ev
qmapshack:_ZThn16_N14CTimeZoneSetupD0Ev
qmapshack:_ZThn16_N14CTimeZoneSetupD1Ev
qmapshack:_ZThn16_N14CWptIconDialogD0Ev
qmapshack:_ZThn16_N14CWptIconDialogD1Ev
qmapshack:_ZThn16_N15CDetailsOvlAreaD0Ev
qmapshack:_ZThn16_N15CDetailsOvlAreaD1Ev
qmapshack:_ZThn16_N15CExportDatabaseD0Ev
qmapshack:_ZThn16_N15CExportDatabaseD1Ev
qmapshack:_ZThn16_N15CFilterLoopsCutD0Ev
qmapshack:_ZThn16_N15CFilterLoopsCutD1Ev
qmapshack:_ZThn16_N15CImportDatabaseD0Ev
qmapshack:_ZThn16_N15CImportDatabaseD1Ev
qmapshack:_ZThn16_N15CPositionDialogD0Ev
qmapshack:_ZThn16_N15CPositionDialogD1Ev
qmapshack:_ZThn16_N15CProgressDialogD0Ev
qmapshack:_ZThn16_N15CProgressDialogD1Ev
qmapshack:_ZThn16_N15CRouterMapQuestD0Ev
qmapshack:_ZThn16_N15CRouterMapQuestD1Ev
qmapshack:_ZThn16_N15CRtSelectSourceD0Ev
qmapshack:_ZThn16_N15CRtSelectSourceD1Ev
qmapshack:_ZThn16_N15CScrOptEditLineD0Ev
qmapshack:_ZThn16_N15CScrOptEditLineD1Ev
qmapshack:_ZThn16_N15CScrOptRangeTrkD0Ev
qmapshack:_ZThn16_N15CScrOptRangeTrkD1Ev
qmapshack:_ZThn16_N15CSelectDBFolderD0Ev
qmapshack:_ZThn16_N15CSelectDBFolderD1Ev
qmapshack:_ZThn16_N15CSetupWorkspaceD0Ev
qmapshack:_ZThn16_N15CSetupWorkspaceD1Ev
qmapshack:_ZThn16_N15CTextEditWidgetD0Ev
qmapshack:_ZThn16_N15CTextEditWidgetD1Ev
qmapshack:_ZThn16_N15CTrkToRteDialogD0Ev
qmapshack:_ZThn16_N15CTrkToRteDialogD1Ev
qmapshack:_ZThn16_N16CDetailsGeoCacheD0Ev
qmapshack:_ZThn16_N16CDetailsGeoCacheD1Ev
qmapshack:_ZThn16_N16CElevationDialogD0Ev
qmapshack:_ZThn16_N16CElevationDialogD1Ev
qmapshack:_ZThn16_N16CRtGpsTetherInfoD0Ev
qmapshack:_ZThn16_N16CRtGpsTetherInfoD1Ev
qmapshack:_ZThn16_N16CScrOptRangeLineD0Ev
qmapshack:_ZThn16_N16CScrOptRangeLineD1Ev
qmapshack:_ZThn16_N16CScrOptRangeToolD0Ev
qmapshack:_ZThn16_N16CScrOptRangeToolD1Ev
qmapshack:_ZThn16_N16CScrOptUnclutterD0Ev
qmapshack:_ZThn16_N16CScrOptUnclutterD1Ev
qmapshack:_ZThn16_N16CScrOptWptRadiusD0Ev
qmapshack:_ZThn16_N16CScrOptWptRadiusD1Ev
qmapshack:_ZThn16_N17CCoordFormatSetupD0Ev
qmapshack:_ZThn16_N17CCoordFormatSetupD1Ev
qmapshack:_ZThn16_N17CFilterSplitTrackD0Ev
qmapshack:_ZThn16_N17CFilterSplitTrackD1Ev
qmapshack:_ZThn16_N17CSelectCopyActionD0Ev
qmapshack:_ZThn16_N17CSelectCopyActionD1Ev
qmapshack:_ZThn16_N17CSelectSaveActionD0Ev
qmapshack:_ZThn16_N17CSelectSaveActionD1Ev
qmapshack:_ZThn16_N18CFilterObscureDateD0Ev
qmapshack:_ZThn16_N18CFilterObscureDateD1Ev
qmapshack:_ZThn16_N18CHistoryListWidgetD0Ev
qmapshack:_ZThn16_N18CHistoryListWidgetD1Ev
qmapshack:_ZThn16_N18CRouterBRouterInfoD0Ev
qmapshack:_ZThn16_N18CRouterBRouterInfoD1Ev
qmapshack:_ZThn16_N19CCreateRouteFromWptD0Ev
qmapshack:_ZThn16_N19CCreateRouteFromWptD1Ev
qmapshack:_ZThn16_N19CToolBarSetupDialog11CItemFilter13shouldBeMovedEP15QListWidgetItem
qmapshack:_ZThn16_N19CToolBarSetupDialogD0Ev
qmapshack:_ZThn16_N19CToolBarSetupDialogD1Ev
qmapshack:_ZThn16_N20CEnergyCyclingDialogD0Ev
qmapshack:_ZThn16_N20CEnergyCyclingDialogD1Ev
qmapshack:_ZThn16_N20CFilterDouglasPeukerD0Ev
qmapshack:_ZThn16_N20CFilterDouglasPeukerD1Ev
qmapshack:_ZThn16_N20CSelectActivityColorD0Ev
qmapshack:_ZThn16_N20CSelectActivityColorD1Ev
qmapshack:_ZThn16_N20CSelectProjectDialogD0Ev
qmapshack:_ZThn16_N20CSelectProjectDialogD1Ev
qmapshack:_ZThn16_N22CFilterOffsetElevationD0Ev
qmapshack:_ZThn16_N22CFilterOffsetElevationD1Ev
qmapshack:_ZThn16_N23CRouterBRouterSetupPageD0Ev
qmapshack:_ZThn16_N23CRouterBRouterSetupPageD1Ev
qmapshack:_ZThn16_N23CRouterBRouterTilesPageD0Ev
qmapshack:_ZThn16_N23CRouterBRouterTilesPageD1Ev
qmapshack:_ZThn16_N23CRouterBRouterToolShellD0Ev
qmapshack:_ZThn16_N23CRouterBRouterToolShellD1Ev
qmapshack:_ZThn16_N23CRouterRoutinoPathSetupD0Ev
qmapshack:_ZThn16_N23CRouterRoutinoPathSetupD1Ev
qmapshack:_ZThn16_N23CRoutinoDatabaseBuilderD0Ev
qmapshack:_ZThn16_N23CRoutinoDatabaseBuilderD1Ev
qmapshack:_ZThn16_N23CSelectDoubleListWidgetD0Ev
qmapshack:_ZThn16_N23CSelectDoubleListWidgetD1Ev
qmapshack:_ZThn16_N25CRouterBRouterSetupWizardD0Ev
qmapshack:_ZThn16_N25CRouterBRouterSetupWizardD1Ev
qmapshack:_ZThn16_N25CRouterBRouterTilesSelectD0Ev
qmapshack:_ZThn16_N25CRouterBRouterTilesSelectD1Ev
qmapshack:_ZThn16_N26CRouterBRouterDownloadPageD0Ev
qmapshack:_ZThn16_N26CRouterBRouterDownloadPageD1Ev
qmapshack:_ZThn16_N27CFilterInterpolateElevationD0Ev
qmapshack:_ZThn16_N27CFilterInterpolateElevationD1Ev
qmapshack:_ZThn16_N28CFilterZeroSpeedDriftCleanerD0Ev
qmapshack:_ZThn16_N28CFilterZeroSpeedDriftCleanerD1Ev
qmapshack:_ZThn16_N29CRouterBRouterTilesSelectAreaD0Ev
qmapshack:_ZThn16_N29CRouterBRouterTilesSelectAreaD1Ev
qmapshack:_ZThn16_N5CHelpD0Ev
qmapshack:_ZThn16_N5CHelpD1Ev
qmapshack:_ZThn16_N5IPlotD0Ev
qmapshack:_ZThn16_N5IPlotD1Ev
qmapshack:_ZThn16_N6CAboutD0Ev
qmapshack:_ZThn16_N6CAboutD1Ev
qmapshack:_ZThn16_N6CQmsDbD0Ev
qmapshack:_ZThn16_N6CQmsDbD1Ev
qmapshack:_ZThn16_N7CCanvasD0Ev
qmapshack:_ZThn16_N7CCanvasD1Ev
qmapshack:_ZThn16_N7IRouterD0Ev
qmapshack:_ZThn16_N7IRouterD1Ev
qmapshack:_ZThn16_N7IScrOptD0Ev
qmapshack:_ZThn16_N7IScrOptD1Ev
qmapshack:_ZThn16_N8CDemListD0Ev
qmapshack:_ZThn16_N8CDemListD1Ev
qmapshack:_ZThn16_N8CMapListD0Ev
qmapshack:_ZThn16_N8CMapListD1Ev
qmapshack:_ZThn16_N8CProjWptD0Ev
qmapshack:_ZThn16_N8CProjWptD1Ev
qmapshack:_ZThn16_N8CQlgtWptD0Ev
qmapshack:_ZThn16_N8CQlgtWptD1Ev
qmapshack:_ZThn16_N8IDemPropD0Ev
qmapshack:_ZThn16_N8IDemPropD1Ev
qmapshack:_ZThn16_N8IMapPropD0Ev
qmapshack:_ZThn16_N8IMapPropD1Ev
qmapshack:_ZThn16_N9CTableTrkD0Ev
qmapshack:_ZThn16_N9CTableTrkD1Ev
qmapshack:_ZThn224_N11CGisItemRte19setDataFromPolylineERK8SGisLine
qmapshack:_ZThn224_N11CGisItemRteD0Ev
qmapshack:_ZThn224_N11CGisItemRteD1Ev
qmapshack:_ZThn224_N11CGisItemTrk19setDataFromPolylineERK8SGisLine
qmapshack:_ZThn224_N11CGisItemTrkD0Ev
qmapshack:_ZThn224_N11CGisItemTrkD1Ev
qmapshack:_ZThn224_N15CGisItemOvlArea19setDataFromPolylineERK8SGisLine
qmapshack:_ZThn224_N15CGisItemOvlAreaD0Ev
qmapshack:_ZThn224_N15CGisItemOvlAreaD1Ev
qmapshack:_ZThn224_NK11CGisItemRte19getPolylineFromDataER8SGisLine
qmapshack:_ZThn224_NK11CGisItemRte22getPolylineDegFromDataER9QPolygonF
qmapshack:_ZThn224_NK11CGisItemTrk19getPolylineFromDataER8SGisLine
qmapshack:_ZThn224_NK11CGisItemTrk22getPolylineDegFromDataER9QPolygonF
qmapshack:_ZThn224_NK15CGisItemOvlArea19getPolylineFromDataER8SGisLine
qmapshack:_ZThn224_NK15CGisItemOvlArea22getPolylineDegFromDataER9QPolygonF
qmapshack:_ZThn48_N10CPlotTrackD0Ev
qmapshack:_ZThn48_N10CPlotTrackD1Ev
qmapshack:_ZThn48_N11CDetailsPrj10updateDataEv
qmapshack:_ZThn48_N11CDetailsPrjD0Ev
qmapshack:_ZThn48_N11CDetailsPrjD1Ev
qmapshack:_ZThn48_N11CDetailsTrk10updateDataEv
qmapshack:_ZThn48_N11CDetailsTrk13setMouseFocusEPKN10CTrackData7trkpt_tE
qmapshack:_ZThn48_N11CDetailsTrk18setMouseClickFocusEPKN10CTrackData7trkpt_tE
qmapshack:_ZThn48_N11CDetailsTrk18setMouseRangeFocusEPKN10CTrackData7trkpt_tES3_
qmapshack:_ZThn48_N11CDetailsTrkD0Ev
qmapshack:_ZThn48_N11CDetailsTrkD1Ev
qmapshack:_ZThn48_N11CListTrkPts10updateDataEv
qmapshack:_ZThn48_N11CListTrkPts13setMouseFocusEPKN10CTrackData7trkpt_tE
qmapshack:_ZThn48_N11CListTrkPts18setMouseRangeFocusEPKN10CTrackData7trkpt_tES3_
qmapshack:_ZThn48_N11CListTrkPtsD0Ev
qmapshack:_ZThn48_N11CListTrkPtsD1Ev
qmapshack:_ZThn48_N12CColorLegend10updateDataEv
qmapshack:_ZThn48_N12CColorLegend13setMouseFocusEPKN10CTrackData7trkpt_tE
qmapshack:_ZThn48_N12CColorLegendD0Ev
qmapshack:_ZThn48_N12CColorLegendD1Ev
qmapshack:_ZThn48_N12CPlotProfile10updateDataEv
qmapshack:_ZThn48_N12CPlotProfile13setMouseFocusEPKN10CTrackData7trkpt_tE
qmapshack:_ZThn48_N12CPlotProfileD0Ev
qmapshack:_ZThn48_N12CPlotProfileD1Ev
qmapshack:_ZThn48_N13CTableTrkInfo10updateDataEv
qmapshack:_ZThn48_N13CTableTrkInfoD0Ev
qmapshack:_ZThn48_N13CTableTrkInfoD1Ev
qmapshack:_ZThn48_N20CSelectActivityColor10updateDataEv
qmapshack:_ZThn48_N20CSelectActivityColorD0Ev
qmapshack:_ZThn48_N20CSelectActivityColorD1Ev
qmapshack:_ZThn48_N5CPlot10updateDataEv
qmapshack:_ZThn48_N5CPlot13setMouseFocusEPKN10CTrackData7trkpt_tE
qmapshack:_ZThn48_N5IPlot18setMouseRangeFocusEPKN10CTrackData7trkpt_tES3_
qmapshack:_ZThn48_N5IPlotD0Ev
qmapshack:_ZThn48_N5IPlotD1Ev
qmapshack:_ZThn48_N9CTableTrk10updateDataEv
qmapshack:_ZThn48_N9CTableTrkD0Ev
qmapshack:_ZThn48_N9CTableTrkD1Ev
qmapshack:_ZThn96_N14CDBFolderMysql11qt_metacallEN11QMetaObject4CallEiPPv
qmapshack:_ZThn96_N14CDBFolderMysql11qt_metacastEPKc
qmapshack:_ZThn96_N15CDBFolderSqlite11qt_metacallEN11QMetaObject4CallEiPPv
qmapshack:_ZThn96_N15CDBFolderSqlite11qt_metacastEPKc
qmapshack:_ZThn96_NK14CDBFolderMysql10metaObjectEv
qmapshack:_ZThn96_NK15CDBFolderSqlite10metaObjectEv
qmapshack:_ZdvRK7QPointFS1_
qmapshack:_ZlsR11QDataStreamR10CQlgtDiary
qmapshack:_ZlsR11QDataStreamR10CQlgtRoute
qmapshack:_ZlsR11QDataStreamR10CQlgtTrack
qmapshack:_ZlsR11QDataStreamR12IQlgtOverlay
qmapshack:_ZlsR11QDataStreamR6CFlags
qmapshack:_ZlsR11QDataStreamR8CQlgtWpt
qmapshack:_ZlsR11QDataStreamRK6CLimit
qmapshack:_ZlsR11QDataStreamRK6CValue
qmapshack:_ZlsR11QDataStreamRKN10CTrackData7trkpt_tE
qmapshack:_ZlsR11QDataStreamRKN10CTrackData8trkseg_tE
qmapshack:_ZlsR11QDataStreamRKN11CGisItemRte7rtept_tE
qmapshack:_ZlsR11QDataStreamRKN11CGisItemRte7subpt_tE
qmapshack:_ZlsR11QDataStreamRKN11CGisItemWpt10geocache_tE
qmapshack:_ZlsR11QDataStreamRKN11CGisItemWpt13geocachelog_tE
qmapshack:_ZlsR11QDataStreamRKN11CGisItemWpt7image_tE
qmapshack:_ZlsR11QDataStreamRKN11IGisProject11copyright_tE
qmapshack:_ZlsR11QDataStreamRKN11IGisProject8person_tE
qmapshack:_ZlsR11QDataStreamRKN14CEnergyCycling12energy_set_tE
qmapshack:_ZlsR11QDataStreamRKN8IGisItem15history_event_tE
qmapshack:_ZlsR11QDataStreamRKN8IGisItem5wpt_tE
qmapshack:_ZlsR11QDataStreamRKN8IGisItem6link_tE
qmapshack:_ZlsR11QDataStreamRKN8IGisItem9history_tE
qmapshack:_ZmlRK7QPointFS1_
qmapshack:_ZrsR11QDataStreamR10CQlgtDiary
qmapshack:_ZrsR11QDataStreamR10CQlgtRoute
qmapshack:_ZrsR11QDataStreamR10CQlgtTrack
qmapshack:_ZrsR11QDataStreamR12IQlgtOverlay
qmapshack:_ZrsR11QDataStreamR4intX
qmapshack:_ZrsR11QDataStreamR4utf8
qmapshack:_ZrsR11QDataStreamR5uintX
qmapshack:_ZrsR11QDataStreamR6CFlags
qmapshack:_ZrsR11QDataStreamR6CLimit
qmapshack:_ZrsR11QDataStreamR6CValue
qmapshack:_ZrsR11QDataStreamR8CQlgtWpt
qmapshack:_ZrsR11QDataStreamRN10CTrackData7trkpt_tE
qmapshack:_ZrsR11QDataStreamRN10CTrackData8trkseg_tE
qmapshack:_ZrsR11QDataStreamRN11CGisItemRte7rtept_tE
qmapshack:_ZrsR11QDataStreamRN11CGisItemRte7subpt_tE
qmapshack:_ZrsR11QDataStreamRN11CGisItemWpt10geocache_tE
qmapshack:_ZrsR11QDataStreamRN11CGisItemWpt13geocachelog_tE
qmapshack:_ZrsR11QDataStreamRN11CGisItemWpt7image_tE
qmapshack:_ZrsR11QDataStreamRN11IGisProject11copyright_tE
qmapshack:_ZrsR11QDataStreamRN11IGisProject8person_tE
qmapshack:_ZrsR11QDataStreamRN14CEnergyCycling12energy_set_tE
qmapshack:_ZrsR11QDataStreamRN8IGisItem15history_event_tE
qmapshack:_ZrsR11QDataStreamRN8IGisItem5wpt_tE
qmapshack:_ZrsR11QDataStreamRN8IGisItem6link_tE
qmapshack:_ZrsR11QDataStreamRN8IGisItem9history_tE
qmapshack:__bss_start
qmapshack:__data_start
qmapshack:_edata
qmapshack:_end
qmapshack:_start
qmapshack:asDatumInfoList
qmapshack:asSpheroidInfoList
qmapshack:decoderStateNames
qmapshack:fitLookupInstance
qmapshack:main
qmapshack:qlOpts
qmapshack:wptIconNames
qmaptool:NOPOINT
qmaptool:NOPOINTF
qmaptool:_IO_stdin_used
qmaptool:_Z11sortByScaleP15QTreeWidgetItemS0_
qmaptool:_Z17GPS_Math_Distancedddd
qmaptool:_Z17GPS_Math_DistanceddddRdS_
qmaptool:_Z22GPS_Math_DegMin_To_DegbidRd
qmaptool:_Z22GPS_Math_Deg_To_DegMindPiPd
qmaptool:_Z22GPS_Math_DistanceQuickdddd
qmaptool:_Z23GPS_Math_DouglasPeuckerR7QVectorI7pointDPEd
qmaptool:_Z23GPS_Math_Wpt_ProjectionRK7QPointFdd
qmaptool:_Z24GPS_Math_LineCrossesRectRK7QPointFS1_RK6QRectF
qmaptool:_Z24qInitResources_resourcesv
qmaptool:_Z25GPS_Math_DegMinSec_To_DegbiidRd
qmaptool:_Z26GPS_Math_DistPointPolylineRK9QPolygonFRK7QPointF
qmaptool:_Z26GPS_Math_DistPointPolylineRK9QPolygonFRK7QPointFd
qmaptool:_Z27qCleanupResources_resourcesv
qmaptool:_ZN10CGridPoint11getCursorFxEv
qmaptool:_ZN10CGridPoint12leaveEventFxEP6QEvent
qmaptool:_ZN10CGridPoint12registerItemEP11CItemRefMap
qmaptool:_ZN10CGridPoint16mouseMoveEventFxEP11QMouseEvent
qmaptool:_ZN10CGridPoint19mouseReleaseEventFxEP11QMouseEvent
qmaptool:_ZN10CGridPoint6drawFxER8QPainterN7CCanvas8redraw_eE
qmaptool:_ZN10CGridPointC1Ev
qmaptool:_ZN10CGridPointC2Ev
qmaptool:_ZN10CHelpIndex10slotSearchERK7QString
qmaptool:_ZN10CHelpIndex11qt_metacallEN11QMetaObject4CallEiPPv
qmaptool:_ZN10CHelpIndex11qt_metacastEPKc
qmaptool:_ZN10CHelpIndex16staticMetaObjectE
qmaptool:_ZN10CHelpIndexC1EP11QHelpEngineP7QWidget
qmaptool:_ZN10CHelpIndexC2EP11QHelpEngineP7QWidget
qmaptool:_ZN10CToolStack12setupChangedEv
qmaptool:_ZN10CToolStack15slotToolChangedEi
qmaptool:_ZN10CToolStackC1EP7QWidget
qmaptool:_ZN10CToolStackC2EP7QWidget
qmaptool:_ZN11CGridPlacer10sigChangedEv
qmaptool:_ZN11CGridPlacer10sigSetAreaERK6QRectF
qmaptool:_ZN11CGridPlacer11getCursorFxEv
qmaptool:_ZN11CGridPlacer11qt_metacallEN11QMetaObject4CallEiPPv
qmaptool:_ZN11CGridPlacer11qt_metacastEPKc
qmaptool:_ZN11CGridPlacer11slotSetAreaEv
qmaptool:_ZN11CGridPlacer12leaveEventFxEP6QEvent
qmaptool:_ZN11CGridPlacer12loadSettingsER9QSettings
qmaptool:_ZN11CGridPlacer12registerItemEP11CItemRefMap
qmaptool:_ZN11CGridPlacer12saveSettingsER9QSettings
qmaptool:_ZN11CGridPlacer12slotSetPointEib
qmaptool:_ZN11CGridPlacer12updateStatusEv
qmaptool:_ZN11CGridPlacer16mouseMoveEventFxEP11QMouseEvent
qmaptool:_ZN11CGridPlacer16staticMetaObjectE
qmaptool:_ZN11CGridPlacer19mouseReleaseEventFxEP11QMouseEvent
qmaptool:_ZN11CGridPlacer6drawFxER8QPainterN7CCanvas8redraw_eE
qmaptool:_ZN11CGridPlacer9slotResetEv
qmaptool:_ZN11CGridPlacerC1EP7QWidget
qmaptool:_ZN11CGridPlacerC2EP7QWidget
qmaptool:_ZN11CGridSetRef10sigChangedEv
qmaptool:_ZN11CGridSetRef11qt_metacallEN11QMetaObject4CallEiPPv
qmaptool:_ZN11CGridSetRef11qt_metacastEPKc
qmaptool:_ZN11CGridSetRef12loadSettingsER9QSettings
qmaptool:_ZN11CGridSetRef12saveSettingsER9QSettings
qmaptool:_ZN11CGridSetRef16staticMetaObjectE
qmaptool:_ZN11CGridSetRef17slotSetupGridProjEv
qmaptool:_ZN11CGridSetRef4isOkEv
qmaptool:_ZN11CGridSetRef9slotResetEv
qmaptool:_ZN11CGridSetRefC1EP7QWidget
qmaptool:_ZN11CGridSetRefC2EP7QWidget
qmaptool:_ZN11CHelpSearch10slotSearchEv
qmaptool:_ZN11CHelpSearch11qt_metacallEN11QMetaObject4CallEiPPv
qmaptool:_ZN11CHelpSearch11qt_metacastEPKc
qmaptool:_ZN11CHelpSearch16staticMetaObjectE
qmaptool:_ZN11CHelpSearchC1EP11QHelpEngineP7QWidget
qmaptool:_ZN11CHelpSearchC2EP11QHelpEngineP7QWidget
qmaptool:_ZN11CItemCutMap11getCursorFxEv
qmaptool:_ZN11CItemCutMap12leaveEventFxEP6QEvent
qmaptool:_ZN11CItemCutMap12loadSettingsER9QSettings
qmaptool:_ZN11CItemCutMap12saveSettingsER9QSettings
qmaptool:_ZN11CItemCutMap16mouseMoveEventFxEP11QMouseEvent
qmaptool:_ZN11CItemCutMap19mouseReleaseEventFxEP11QMouseEvent
qmaptool:_ZN11CItemCutMap6drawFxER8QPainterN7CCanvas8redraw_eE
qmaptool:_ZN11CItemCutMap7toFrontEv
qmaptool:_ZN11CItemCutMapC1ERK7QStringP14QStackedWidgetP11QListWidget
qmaptool:_ZN11CItemCutMapC2ERK7QStringP14QStackedWidgetP11QListWidget
qmaptool:_ZN11CItemCutMapD0Ev
qmaptool:_ZN11CItemCutMapD1Ev
qmaptool:_ZN11CItemCutMapD2Ev
qmaptool:_ZN11CItemRefMap11getCursorFxEv
qmaptool:_ZN11CItemRefMap12addRefPointsER5QListIP19COverlayRefMapPointE
qmaptool:_ZN11CItemRefMap12leaveEventFxEP6QEvent
qmaptool:_ZN11CItemRefMap12loadSettingsER9QSettings
qmaptool:_ZN11CItemRefMap12saveSettingsER9QSettings
qmaptool:_ZN11CItemRefMap15keyPressEventFxEP9QKeyEvent
qmaptool:_ZN11CItemRefMap16mouseMoveEventFxEP11QMouseEvent
qmaptool:_ZN11CItemRefMap19mouseReleaseEventFxEP11QMouseEvent
qmaptool:_ZN11CItemRefMap6drawFxER8QPainterN7CCanvas8redraw_eE
qmaptool:_ZN11CItemRefMap7toFrontEv
qmaptool:_ZN11CItemRefMapC1ERK7QStringP14QStackedWidgetP11QListWidget
qmaptool:_ZN11CItemRefMapC2ERK7QStringP14QStackedWidgetP11QListWidget
qmaptool:_ZN11CItemRefMapD0Ev
qmaptool:_ZN11CItemRefMapD1Ev
qmaptool:_ZN11CItemRefMapD2Ev
qmaptool:_ZN11CLogHandler11logfileNameEv
qmaptool:_ZN11CLogHandler12appendToFileE9QtMsgType7QString
qmaptool:_ZN11CLogHandler14initLogHandlerE7QStringbb
qmaptool:_ZN11CLogHandler14printToConsoleE9QtMsgType7QString
qmaptool:_ZN11CLogHandler15printLoggerInfoEv
qmaptool:_ZN11CLogHandler3logE9QtMsgTypeRK18QMessageLogContextRK7QString
qmaptool:_ZN11CLogHandlerC1E7QStringbb
qmaptool:_ZN11CLogHandlerC2E7QStringbb
qmaptool:_ZN11CMainWindow11qt_metacallEN11QMetaObject4CallEiPPv
qmaptool:_ZN11CMainWindow11qt_metacastEPKc
qmaptool:_ZN11CMainWindow11showToolBoxEv
qmaptool:_ZN11CMainWindow13startGridToolEP11CItemRefMap
qmaptool:_ZN11CMainWindow14slotSetupUnitsEv
qmaptool:_ZN11CMainWindow16makeShellVisibleEv
qmaptool:_ZN11CMainWindow16slotSetupChangedEv
qmaptool:_ZN11CMainWindow16staticMetaObjectE
qmaptool:_ZN11CMainWindow17prepareMenuForMacEv
qmaptool:_ZN11CMainWindow17slotSetupExtToolsEv
qmaptool:_ZN11CMainWindow20slotSetupCoordFormatEv
qmaptool:_ZN11CMainWindow5pSelfE
qmaptool:_ZN11CMainWindow7getUserEv
qmaptool:_ZN11CMainWindow8slotHelpEv
qmaptool:_ZN11CMainWindow9slotAboutEv
qmaptool:_ZN11CMainWindowC1Ev
qmaptool:_ZN11CMainWindowC2Ev
qmaptool:_ZN11CMainWindowD0Ev
qmaptool:_ZN11CMainWindowD1Ev
qmaptool:_ZN11CMainWindowD2Ev
qmaptool:_ZN11CProjWizard10slotChangeEv
qmaptool:_ZN11CProjWizard11qt_metacallEN11QMetaObject4CallEiPPv
qmaptool:_ZN11CProjWizard11qt_metacastEPKc
qmaptool:_ZN11CProjWizard12validProjStrE7QString
qmaptool:_ZN11CProjWizard16staticMetaObjectE
qmaptool:_ZN11CProjWizard6acceptEv
qmaptool:_ZN11CProjWizard9findDatumERK7QString
qmaptool:_ZN11CProjWizardC1ER9QLineEditP7QWidget
qmaptool:_ZN11CProjWizardC2ER9QLineEditP7QWidget
qmaptool:_ZN11CProjWizardD0Ev
qmaptool:_ZN11CProjWizardD1Ev
qmaptool:_ZN11CProjWizardD2Ev
qmaptool:_ZN11CToolCutMap11qt_metacallEN11QMetaObject4CallEiPPv
qmaptool:_ZN11CToolCutMap11qt_metacastEPKc
qmaptool:_ZN11CToolCutMap11slotAddItemERK7QStringP11QListWidget
qmaptool:_ZN11CToolCutMap12setupChangedEv
qmaptool:_ZN11CToolCutMap12slotFinishedEi
qmaptool:_ZN11CToolCutMap16staticMetaObjectE
qmaptool:_ZN11CToolCutMap20slotSomethingChangedEv
qmaptool:_ZN11CToolCutMap23slotMapSelectionChangedEv
qmaptool:_ZN11CToolCutMap8buildCmdER5QListI9CShellCmdEPK5IItem
qmaptool:_ZN11CToolCutMap9slotStartEv
qmaptool:_ZN11CToolCutMapC1EP7QWidget
qmaptool:_ZN11CToolCutMapC2EP7QWidget
qmaptool:_ZN11CToolCutMapD0Ev
qmaptool:_ZN11CToolCutMapD1Ev
qmaptool:_ZN11CToolCutMapD2Ev
qmaptool:_ZN11CToolExport11qt_metacallEN11QMetaObject4CallEiPPv
qmaptool:_ZN11CToolExport11qt_metacastEPKc
qmaptool:_ZN11CToolExport12setupChangedEv
qmaptool:_ZN11CToolExport12slotFinishedEi
qmaptool:_ZN11CToolExport13buildCmdFinalER5QListI9CShellCmdE
qmaptool:_ZN11CToolExport16buildCmdFinalJnxER5QListI9CShellCmdE
qmaptool:_ZN11CToolExport16staticMetaObjectE
qmaptool:_ZN11CToolExport17buildCmdFinalRmapER5QListI9CShellCmdE
qmaptool:_ZN11CToolExport18slotSelectFilenameEv
qmaptool:_ZN11CToolExport20slotSomethingChangedEv
qmaptool:_ZN11CToolExport23slotMapSelectionChangedEv
qmaptool:_ZN11CToolExport8buildCmdER5QListI9CShellCmdEPK5IItem
qmaptool:_ZN11CToolExport9slotStartEv
qmaptool:_ZN11CToolExportC1EP7QWidget
qmaptool:_ZN11CToolExportC2EP7QWidget
qmaptool:_ZN11CToolExportD0Ev
qmaptool:_ZN11CToolExportD1Ev
qmaptool:_ZN11CToolExportD2Ev
qmaptool:_ZN11CToolRefMap11qt_metacallEN11QMetaObject4CallEiPPv
qmaptool:_ZN11CToolRefMap11qt_metacastEPKc
qmaptool:_ZN11CToolRefMap11slotAddItemERK7QStringP11QListWidget
qmaptool:_ZN11CToolRefMap12setupChangedEv
qmaptool:_ZN11CToolRefMap12slotFinishedEi
qmaptool:_ZN11CToolRefMap16staticMetaObjectE
qmaptool:_ZN11CToolRefMap20slotSomethingChangedEv
qmaptool:_ZN11CToolRefMap23slotMapSelectionChangedEv
qmaptool:_ZN11CToolRefMap8buildCmdER5QListI9CShellCmdEPK5IItem
qmaptool:_ZN11CToolRefMap9slotStartEv
qmaptool:_ZN11CToolRefMapC1EP7QWidget
qmaptool:_ZN11CToolRefMapC2EP7QWidget
qmaptool:_ZN11CToolRefMapD0Ev
qmaptool:_ZN11CToolRefMapD1Ev
qmaptool:_ZN11CToolRefMapD2Ev
qmaptool:_ZN11CUnitMetricC1EP7QObject
qmaptool:_ZN11CUnitMetricC2EP7QObject
qmaptool:_ZN11CUnitNauticC1EP7QObject
qmaptool:_ZN11CUnitNauticC2EP7QObject
qmaptool:_ZN11CUnitsSetup6acceptEv
qmaptool:_ZN11CUnitsSetupC1EP7QWidget
qmaptool:_ZN11CUnitsSetupC2EP7QWidget
qmaptool:_ZN12CAppSetupMac10extendPathEv
qmaptool:_ZN12CAppSetupMac10relGdalDirE
qmaptool:_ZN12CAppSetupMac10relHelpDirE
qmaptool:_ZN12CAppSetupMac10relProjDirE
qmaptool:_ZN12CAppSetupMac12initQMapToolEv
qmaptool:_ZN12CAppSetupMac12userDataPathE7QString
qmaptool:_ZN12CAppSetupMac14findExecutableERK7QString
qmaptool:_ZN12CAppSetupMac16defaultCachePathEv
qmaptool:_ZN12CAppSetupMac17getApplicationDirE7QString
qmaptool:_ZN12CAppSetupMac17migrateDirContentE7QString
qmaptool:_ZN12CAppSetupMac17relTranslationDirE
qmaptool:_ZN12CAppSetupMac6logDirEv
qmaptool:_ZN12CAppSetupMac8helpFileEv
qmaptool:_ZN12CAppSetupMac9relBinDirE
qmaptool:_ZN12CAppSetupMac9relLogDirE
qmaptool:_ZN12CAppSetupWin12initQMapToolEv
qmaptool:_ZN12CAppSetupWin12userDataPathE7QString
qmaptool:_ZN12CAppSetupWin14findExecutableERK7QString
qmaptool:_ZN12CAppSetupWin16defaultCachePathEv
qmaptool:_ZN12CAppSetupWin6logDirEv
qmaptool:_ZN12CAppSetupWin8helpFileEv
qmaptool:_ZN12CGridSelArea10sigChangedEv
qmaptool:_ZN12CGridSelArea11getCursorFxEv
qmaptool:_ZN12CGridSelArea11qt_metacallEN11QMetaObject4CallEiPPv
qmaptool:_ZN12CGridSelArea11qt_metacastEPKc
qmaptool:_ZN12CGridSelArea11slotSetAreaERK6QRectF
qmaptool:_ZN12CGridSelArea12leaveEventFxEP6QEvent
qmaptool:_ZN12CGridSelArea12loadSettingsER9QSettings
qmaptool:_ZN12CGridSelArea12registerItemEP11CItemRefMap
qmaptool:_ZN12CGridSelArea12saveSettingsER9QSettings
qmaptool:_ZN12CGridSelArea16mouseMoveEventFxEP11QMouseEvent
qmaptool:_ZN12CGridSelArea16staticMetaObjectE
qmaptool:_ZN12CGridSelArea19mouseReleaseEventFxEP11QMouseEvent
qmaptool:_ZN12CGridSelArea6drawFxER8QPainterN7CCanvas8redraw_eE
qmaptool:_ZN12CGridSelArea9slotResetEv
qmaptool:_ZN12CGridSelAreaC1EP7QWidget
qmaptool:_ZN12CGridSelAreaC2EP7QWidget
qmaptool:_ZN12CHelpBrowser11qt_metacallEN11QMetaObject4CallEiPPv
qmaptool:_ZN12CHelpBrowser11qt_metacastEPKc
qmaptool:_ZN12CHelpBrowser12loadResourceEiRK4QUrl
qmaptool:_ZN12CHelpBrowser16staticMetaObjectE
qmaptool:_ZN12CHelpBrowser9setSourceERK4QUrl
qmaptool:_ZN12CHelpBrowserC1EP11QHelpEngineP7QWidget
qmaptool:_ZN12CHelpBrowserC2EP11QHelpEngineP7QWidget
qmaptool:_ZN12IDrawContext10slotResizeERK5QSize
qmaptool:_ZN12IDrawContext11qt_metacallEN11QMetaObject4CallEiPPv
qmaptool:_ZN12IDrawContext11qt_metacastEPKc
qmaptool:_ZN12IDrawContext12loadSettingsER9QSettings
qmaptool:_ZN12IDrawContext16staticMetaObjectE
qmaptool:_ZN12IDrawContext3runEv
qmaptool:_ZN12IDrawContext4drawER8QPainterN7CCanvas8redraw_eE
qmaptool:_ZN12IDrawContext4initEv
qmaptool:_ZN12IDrawContext4moveERK7QPointF
qmaptool:_ZN12IDrawContext4zoomEbRK7QPointF
qmaptool:_ZN12IDrawContext4zoomEi
qmaptool:_ZN12IDrawContext5mutexE
qmaptool:_ZN12IDrawContext6scalesE
qmaptool:_ZN12IDrawContext7sigDrawER8QPainter
qmaptool:_ZN12IDrawContextC1EP7CCanvasP7QObject
qmaptool:_ZN12IDrawContextC2EP7CCanvasP7QObject
qmaptool:_ZN13CItemMapLayer11qt_metacallEN11QMetaObject4CallEiPPv
qmaptool:_ZN13CItemMapLayer11qt_metacastEPKc
qmaptool:_ZN13CItemMapLayer11updateLayerEv
qmaptool:_ZN13CItemMapLayer16staticMetaObjectE
qmaptool:_ZN13CItemMapLayer17drawBoundingBoxesER8QPainterP12IDrawContext
qmaptool:_ZN13CItemMapLayer6addMapEP8CItemMap
qmaptool:_ZN13CItemMapLayer6drawFxER8QPainterN7CCanvas8redraw_eE
qmaptool:_ZN13CItemMapLayerC1EP11QTreeWidget
qmaptool:_ZN13CItemMapLayerC2EP11QTreeWidget
qmaptool:_ZN13CUnitImperial12footPerMeterE
qmaptool:_ZN13CUnitImperial12milePerMeterE
qmaptool:_ZN13CUnitImperial24meterPerSecToMilePerHourE
qmaptool:_ZN13CUnitImperialC1EP7QObject
qmaptool:_ZN13CUnitImperialC2EP7QObject
qmaptool:_ZN14CAppSetupLinux12initQMapToolEv
qmaptool:_ZN14CAppSetupLinux12userDataPathE7QString
qmaptool:_ZN14CAppSetupLinux16defaultCachePathEv
qmaptool:_ZN14CAppSetupLinux6logDirEv
qmaptool:_ZN14CAppSetupLinux8helpFileEv
qmaptool:_ZN14COverlayCutMap10mouseResetEv
qmaptool:_ZN14COverlayCutMap11getCursorFxEv
qmaptool:_ZN14COverlayCutMap11qt_metacallEN11QMetaObject4CallEiPPv
qmaptool:_ZN14COverlayCutMap11qt_metacastEPKc
qmaptool:_ZN14COverlayCutMap11slotSetModeENS_6mode_eEb
qmaptool:_ZN14COverlayCutMap12loadSettingsER9QSettings
qmaptool:_ZN14COverlayCutMap12saveSettingsER9QSettings
qmaptool:_ZN14COverlayCutMap13slotLoadShapeEv
qmaptool:_ZN14COverlayCutMap13slotResetMaskEv
qmaptool:_ZN14COverlayCutMap13slotSaveShapeEv
qmaptool:_ZN14COverlayCutMap14storeToHistoryERK9QPolygonF
qmaptool:_ZN14COverlayCutMap16mouseMoveEventFxEP11QMouseEvent
qmaptool:_ZN14COverlayCutMap16staticMetaObjectE
qmaptool:_ZN14COverlayCutMap17mouseMovePointAddERK7QPointF
qmaptool:_ZN14COverlayCutMap17mouseMovePointDelERK7QPointF
qmaptool:_ZN14COverlayCutMap18mouseMovePointMoveERK7QPointF
qmaptool:_ZN14COverlayCutMap18restoreFromHistoryER9QPolygonF
qmaptool:_ZN14COverlayCutMap19mouseReleaseEventFxEP11QMouseEvent
qmaptool:_ZN14COverlayCutMap20mouseReleasePointAddERK7QPointFN2Qt11MouseButtonE
qmaptool:_ZN14COverlayCutMap20mouseReleasePointDelERK7QPointFN2Qt11MouseButtonE
qmaptool:_ZN14COverlayCutMap21mouseReleasePointMoveERK7QPointFN2Qt11MouseButtonE
qmaptool:_ZN14COverlayCutMap6drawFxER8QPainterN7CCanvas8redraw_eE
qmaptool:_ZN14COverlayCutMap9abortStepEv
qmaptool:_ZN14COverlayCutMap9saveShapeERK7QString
qmaptool:_ZN14COverlayCutMap9updateGuiEv
qmaptool:_ZN14COverlayCutMapC1EP11CItemCutMapP14QStackedWidget
qmaptool:_ZN14COverlayCutMapC2EP11CItemCutMapP14QStackedWidget
qmaptool:_ZN14COverlayRefMap11getCursorFxEv
qmaptool:_ZN14COverlayRefMap11qt_metacallEN11QMetaObject4CallEiPPv
qmaptool:_ZN14COverlayRefMap11qt_metacastEPKc
qmaptool:_ZN14COverlayRefMap11slotLoadGcpEv
qmaptool:_ZN14COverlayRefMap11slotSaveGcpEv
qmaptool:_ZN14COverlayRefMap11slotSetModeENS_6mode_eEb
qmaptool:_ZN14COverlayRefMap12addRefPointsER5QListIP19COverlayRefMapPointE
qmaptool:_ZN14COverlayRefMap12loadSettingsER9QSettings
qmaptool:_ZN14COverlayRefMap12saveSettingsER9QSettings
qmaptool:_ZN14COverlayRefMap12slotGridToolEv
qmaptool:_ZN14COverlayRefMap12slotResetRefEv
qmaptool:_ZN14COverlayRefMap14slotProjWizardEv
qmaptool:_ZN14COverlayRefMap15keyPressEventFxEP9QKeyEvent
qmaptool:_ZN14COverlayRefMap16mouseMoveEventFxEP11QMouseEvent
qmaptool:_ZN14COverlayRefMap16slotDelRefPointsEv
qmaptool:_ZN14COverlayRefMap16staticMetaObjectE
qmaptool:_ZN14COverlayRefMap17mouseMovePointAddERK7QPointF
qmaptool:_ZN14COverlayRefMap17mouseMovePointDelERK7QPointF
qmaptool:_ZN14COverlayRefMap17slotSortRefPointsEv
qmaptool:_ZN14COverlayRefMap18mouseMovePointMoveERK7QPointF
qmaptool:_ZN14COverlayRefMap19mouseReleaseEventFxEP11QMouseEvent
qmaptool:_ZN14COverlayRefMap20mouseReleasePointAddERK7QPointFN2Qt11MouseButtonE
qmaptool:_ZN14COverlayRefMap20mouseReleasePointDelERK7QPointFN2Qt11MouseButtonE
qmaptool:_ZN14COverlayRefMap20slotSelectionChangedEv
qmaptool:_ZN14COverlayRefMap21mouseReleasePointMoveERK7QPointFN2Qt11MouseButtonE
qmaptool:_ZN14COverlayRefMap6drawFxER8QPainterN7CCanvas8redraw_eE
qmaptool:_ZN14COverlayRefMap9abortStepEv
qmaptool:_ZN14COverlayRefMap9isCloseToE7QPointF
qmaptool:_ZN14COverlayRefMap9updateGuiEv
qmaptool:_ZN14COverlayRefMapC1EP11CItemRefMapP14QStackedWidget
qmaptool:_ZN14COverlayRefMapC2EP11CItemRefMapP14QStackedWidget
qmaptool:_ZN14CSetupExtTools11qt_metacallEN11QMetaObject4CallEiPPv
qmaptool:_ZN14CSetupExtTools11qt_metacastEPKc
qmaptool:_ZN14CSetupExtTools16staticMetaObjectE
qmaptool:_ZN14CSetupExtTools20slotSetPathXOverrideERK7QStringSt8functionIFvS2_EE
qmaptool:_ZN14CSetupExtTools22slotResetPathXOverrideESt8functionIFvvEE
qmaptool:_ZN14CSetupExtTools8setupGuiEv
qmaptool:_ZN14CSetupExtToolsC1EP7QWidget
qmaptool:_ZN14CSetupExtToolsC2EP7QWidget
qmaptool:_ZN14CTimeZoneSetup6acceptEv
qmaptool:_ZN14CTimeZoneSetupC1EP7QWidget
qmaptool:_ZN14CTimeZoneSetupC2EP7QWidget
qmaptool:_ZN14CTimeZoneSetupD0Ev
qmaptool:_ZN14CTimeZoneSetupD1Ev
qmaptool:_ZN14CTimeZoneSetupD2Ev
qmaptool:_ZN14CToolExportJnx11qt_metacallEN11QMetaObject4CallEiPPv
qmaptool:_ZN14CToolExportJnx11qt_metacastEPKc
qmaptool:_ZN14CToolExportJnx16staticMetaObjectE
qmaptool:_ZN14CToolExportJnxC1Ev
qmaptool:_ZN14CToolExportJnxC2Ev
qmaptool:_ZN14CToolPalettize11qt_metacallEN11QMetaObject4CallEiPPv
qmaptool:_ZN14CToolPalettize11qt_metacastEPKc
qmaptool:_ZN14CToolPalettize11slotAddItemERK7QStringP11QListWidget
qmaptool:_ZN14CToolPalettize12setupChangedEv
qmaptool:_ZN14CToolPalettize12slotFinishedEi
qmaptool:_ZN14CToolPalettize13buildCmdFinalER5QListI9CShellCmdE
qmaptool:_ZN14CToolPalettize16staticMetaObjectE
qmaptool:_ZN14CToolPalettize18slotSelectFilenameEv
qmaptool:_ZN14CToolPalettize20slotSomethingChangedEv
qmaptool:_ZN14CToolPalettize23slotMapSelectionChangedEv
qmaptool:_ZN14CToolPalettize8buildCmdER5QListI9CShellCmdEPK5IItem
qmaptool:_ZN14CToolPalettize9slotStartEv
qmaptool:_ZN14CToolPalettizeC1EP7QWidget
qmaptool:_ZN14CToolPalettizeC2EP7QWidget
qmaptool:_ZN14CToolPalettizeD0Ev
qmaptool:_ZN14CToolPalettizeD1Ev
qmaptool:_ZN14CToolPalettizeD2Ev
qmaptool:_ZN15CDialogRefPoint11qt_metacallEN11QMetaObject4CallEiPPv
qmaptool:_ZN15CDialogRefPoint11qt_metacastEPKc
qmaptool:_ZN15CDialogRefPoint16slotEditPositionERK7QString
qmaptool:_ZN15CDialogRefPoint16staticMetaObjectE
qmaptool:_ZN15CDialogRefPoint6acceptEv
qmaptool:_ZN15CDialogRefPointC1ER7QPointFS1_P7QWidget
qmaptool:_ZN15CDialogRefPointC2ER7QPointFS1_P7QWidget
qmaptool:_ZN15CItemListWidget10sigAddItemERK7QStringP11QListWidget
qmaptool:_ZN15CItemListWidget10sigChangedEv
qmaptool:_ZN15CItemListWidget11currentItemEv
qmaptool:_ZN15CItemListWidget11qt_metacallEN11QMetaObject4CallEiPPv
qmaptool:_ZN15CItemListWidget11qt_metacastEPKc
qmaptool:_ZN15CItemListWidget12loadSettingsER9QSettings
qmaptool:_ZN15CItemListWidget12saveSettingsER9QSettings
qmaptool:_ZN15CItemListWidget14slotDeleteFileEv
qmaptool:_ZN15CItemListWidget15slotDeleteFilesEv
qmaptool:_ZN15CItemListWidget16staticMetaObjectE
qmaptool:_ZN15CItemListWidget18slotLoadCurrentMapEv
qmaptool:_ZN15CItemListWidget19sigSelectionChangedEv
qmaptool:_ZN15CItemListWidget20slotSelectionChangedEv
qmaptool:_ZN15CItemListWidget4itemEi
qmaptool:_ZN15CItemListWidget8addFilesERK11QStringList
qmaptool:_ZN15CItemListWidget9slotFilesEv
qmaptool:_ZN15CItemListWidgetC1EP7QWidget
qmaptool:_ZN15CItemListWidgetC2EP7QWidget
qmaptool:_ZN15CItemTreeWidget10sigChangedEv
qmaptool:_ZN15CItemTreeWidget11currentItemEv
qmaptool:_ZN15CItemTreeWidget11qt_metacallEN11QMetaObject4CallEiPPv
qmaptool:_ZN15CItemTreeWidget11qt_metacastEPKc
qmaptool:_ZN15CItemTreeWidget12loadSettingsER9QSettings
qmaptool:_ZN15CItemTreeWidget12saveSettingsER9QSettings
qmaptool:_ZN15CItemTreeWidget13findMapByHashERK7QString
qmaptool:_ZN15CItemTreeWidget14slotDeleteFileEv
qmaptool:_ZN15CItemTreeWidget15slotDeleteFilesEv
qmaptool:_ZN15CItemTreeWidget16staticMetaObjectE
qmaptool:_ZN15CItemTreeWidget19sigSelectionChangedEv
qmaptool:_ZN15CItemTreeWidget20slotSelectionChangedEv
qmaptool:_ZN15CItemTreeWidget6drawFxER8QPainterN7CCanvas8redraw_eE
qmaptool:_ZN15CItemTreeWidget8addFilesERK11QStringList
qmaptool:_ZN15CItemTreeWidget9slotFilesEv
qmaptool:_ZN15CItemTreeWidgetC1EP7QWidget
qmaptool:_ZN15CItemTreeWidgetC2EP7QWidget
qmaptool:_ZN16CDrawContextProj11qt_metacallEN11QMetaObject4CallEiPPv
qmaptool:_ZN16CDrawContextProj11qt_metacastEPKc
qmaptool:_ZN16CDrawContextProj13setSourceFileERK7QStringb
qmaptool:_ZN16CDrawContextProj16staticMetaObjectE
qmaptool:_ZN16CDrawContextProj5drawtERN12IDrawContext8buffer_tE
qmaptool:_ZN16CDrawContextProjC1EP7CCanvasP7QObject
qmaptool:_ZN16CDrawContextProjC2EP7CCanvasP7QObject
qmaptool:_ZN16COverlayGridTool10sigChangedEb
qmaptool:_ZN16COverlayGridTool11getCursorFxEv
qmaptool:_ZN16COverlayGridTool11qt_metacallEN11QMetaObject4CallEiPPv
qmaptool:_ZN16COverlayGridTool11qt_metacastEPKc
qmaptool:_ZN16COverlayGridTool11slotSetAreaERK6QRectF
qmaptool:_ZN16COverlayGridTool12leaveEventFxEP6QEvent
qmaptool:_ZN16COverlayGridTool12registerItemEP11CItemRefMap
qmaptool:_ZN16COverlayGridTool13slotCalculateEv
qmaptool:_ZN16COverlayGridTool14slotCheckInputEv
qmaptool:_ZN16COverlayGridTool16mouseMoveEventFxEP11QMouseEvent
qmaptool:_ZN16COverlayGridTool16staticMetaObjectE
qmaptool:_ZN16COverlayGridTool19mouseReleaseEventFxEP11QMouseEvent
qmaptool:_ZN16COverlayGridTool6drawFxER8QPainterN7CCanvas8redraw_eE
qmaptool:_ZN16COverlayGridTool9slotResetEv
qmaptool:_ZN16COverlayGridToolC1EP7QWidget
qmaptool:_ZN16COverlayGridToolC2EP7QWidget
qmaptool:_ZN16CToolAddOverview11qt_metacallEN11QMetaObject4CallEiPPv
qmaptool:_ZN16CToolAddOverview11qt_metacastEPKc
qmaptool:_ZN16CToolAddOverview11slotAddItemERK7QStringP11QListWidget
qmaptool:_ZN16CToolAddOverview12setupChangedEv
qmaptool:_ZN16CToolAddOverview12slotFinishedEi
qmaptool:_ZN16CToolAddOverview16staticMetaObjectE
qmaptool:_ZN16CToolAddOverview20slotSelectionChangedEv
qmaptool:_ZN16CToolAddOverview23slotMapSelectionChangedEv
qmaptool:_ZN16CToolAddOverview8buildCmdER5QListI9CShellCmdEPK5IItem
qmaptool:_ZN16CToolAddOverview9slotStartEv
qmaptool:_ZN16CToolAddOverviewC1EP7QWidget
qmaptool:_ZN16CToolAddOverviewC2EP7QWidget
qmaptool:_ZN16CToolAddOverviewD0Ev
qmaptool:_ZN16CToolAddOverviewD1Ev
qmaptool:_ZN16CToolAddOverviewD2Ev
qmaptool:_ZN17CCommandProcessor14processOptionsERK11QStringList
qmaptool:_ZN17CCoordFormatSetup11qt_metacallEN11QMetaObject4CallEiPPv
qmaptool:_ZN17CCoordFormatSetup11qt_metacastEPKc
qmaptool:_ZN17CCoordFormatSetup16staticMetaObjectE
qmaptool:_ZN17CCoordFormatSetup6acceptEv
qmaptool:_ZN17CCoordFormatSetupC1EP7QWidget
qmaptool:_ZN17CCoordFormatSetupC2EP7QWidget
qmaptool:_ZN17CCoordFormatSetupD0Ev
qmaptool:_ZN17CCoordFormatSetupD1Ev
qmaptool:_ZN17CCoordFormatSetupD2Ev
qmaptool:_ZN17CDrawContextPixel11qt_metacallEN11QMetaObject4CallEiPPv
qmaptool:_ZN17CDrawContextPixel11qt_metacastEPKc
qmaptool:_ZN17CDrawContextPixel13setSourceFileERK7QStringb
qmaptool:_ZN17CDrawContextPixel16staticMetaObjectE
qmaptool:_ZN17CDrawContextPixel5drawtERN12IDrawContext8buffer_tE
qmaptool:_ZN17CDrawContextPixelC1EP7CCanvasP7QObject
qmaptool:_ZN17CDrawContextPixelC2EP7CCanvasP7QObject
qmaptool:_ZN17CDrawContextPixelD0Ev
qmaptool:_ZN17CDrawContextPixelD1Ev
qmaptool:_ZN17CDrawContextPixelD2Ev
qmaptool:_ZN17CToolGDALGroupBox11enablePartsEj
qmaptool:_ZN17CToolGDALGroupBox11qt_metacallEN11QMetaObject4CallEiPPv
qmaptool:_ZN17CToolGDALGroupBox11qt_metacastEPKc
qmaptool:_ZN17CToolGDALGroupBox12getArgsTiledERK11QStringList
qmaptool:_ZN17CToolGDALGroupBox12loadSettingsER9QSettings
qmaptool:_ZN17CToolGDALGroupBox12saveSettingsER9QSettings
qmaptool:_ZN17CToolGDALGroupBox16staticMetaObjectE
qmaptool:_ZN17CToolGDALGroupBox17getArgsResamplingERK11QStringList
qmaptool:_ZN17CToolGDALGroupBox18getArgsCompressionERK11QStringList
qmaptool:_ZN17CToolGDALGroupBox7getArgsEv
qmaptool:_ZN17CToolGDALGroupBoxC1EP7QWidget
qmaptool:_ZN17CToolGDALGroupBoxC2EP7QWidget
qmaptool:_ZN19COverlayRefMapPoint8setIndexEi
qmaptool:_ZN19COverlayRefMapPoint8setPtPtxERK7QPointF
qmaptool:_ZN19COverlayRefMapPoint8setPtRefERK7QPointF
qmaptool:_ZN19COverlayRefMapPointC1EiRK7QPointFS2_P11QTreeWidget
qmaptool:_ZN19COverlayRefMapPointC2EiRK7QPointFS2_P11QTreeWidget
qmaptool:_ZN20CSingleInstanceProxy17slotNewConnectionEv
qmaptool:_ZN20CSingleInstanceProxyC1E11QStringList
qmaptool:_ZN20CSingleInstanceProxyC2E11QStringList
qmaptool:_ZN20CSingleInstanceProxyD0Ev
qmaptool:_ZN20CSingleInstanceProxyD1Ev
qmaptool:_ZN20CSingleInstanceProxyD2Ev
qmaptool:_ZN21CToolOverviewGroupBox11qt_metacallEN11QMetaObject4CallEiPPv
qmaptool:_ZN21CToolOverviewGroupBox11qt_metacastEPKc
qmaptool:_ZN21CToolOverviewGroupBox12loadSettingsER9QSettings
qmaptool:_ZN21CToolOverviewGroupBox12saveSettingsER9QSettings
qmaptool:_ZN21CToolOverviewGroupBox16staticMetaObjectE
qmaptool:_ZN21CToolOverviewGroupBox8buildCmdER5QListI9CShellCmdERK7QStringS6_
qmaptool:_ZN21CToolOverviewGroupBoxC1EP7QWidget
qmaptool:_ZN21CToolOverviewGroupBoxC2EP7QWidget
qmaptool:_ZN5CDraw13drawRectangleER8QPainterRK6QRectFRK4QPenRK6QBrush
qmaptool:_ZN5CDraw13drawRectangleER8QPainterRK6QRectFRKN2Qt11GlobalColorES8_
qmaptool:_ZN5CDraw13penBorderBlueE
qmaptool:_ZN5CDraw13penBorderGrayE
qmaptool:_ZN5CDraw14brushBackWhiteE
qmaptool:_ZN5CDraw14penBorderBlackE
qmaptool:_ZN5CDraw15brushBackYellowE
qmaptool:_ZN5CDraw16createBasicArrowERK6QBrushd
qmaptool:_ZN5CDraw16drawCrossHairDotER8QPainterRK7QPointF
qmaptool:_ZN5CDraw4textERK7QStringR8QPainterRK5QRectRK6QColor
qmaptool:_ZN5CDraw4textERK7QStringR8QPainterRK6QPointRK6QColorRK5QFont
qmaptool:_ZN5CDraw6arrowsERK9QPolygonFRK6QRectFR8QPainteriid
qmaptool:_ZN5CDraw6bubbleER8QPainterRK5QRectRK6QPointif
qmaptool:_ZN5CHelp11qt_metacallEN11QMetaObject4CallEiPPv
qmaptool:_ZN5CHelp11qt_metacastEPKc
qmaptool:_ZN5CHelp16staticMetaObjectE
qmaptool:_ZN5CHelpC1ERK7QStringS2_P7QWidget
qmaptool:_ZN5CHelpC2ERK7QStringS2_P7QWidget
qmaptool:_ZN5CHelpD0Ev
qmaptool:_ZN5CHelpD1Ev
qmaptool:_ZN5CHelpD2Ev
qmaptool:_ZN5CProj12validProjStrE7QStringbSt8functionIFvRKS0_EE
qmaptool:_ZN5CProj4initEPKcS1_
qmaptool:_ZN5CProjC1ERK7QStringS2_
qmaptool:_ZN5CProjC2ERK7QStringS2_
qmaptool:_ZN5CProjD0Ev
qmaptool:_ZN5CProjD1Ev
qmaptool:_ZN5CProjD2Ev
qmaptool:_ZN5IItem10sigChangedEv
qmaptool:_ZN5IItem11qt_metacallEN11QMetaObject4CallEiPPv
qmaptool:_ZN5IItem11qt_metacastEPKc
qmaptool:_ZN5IItem12loadSettingsER9QSettings
qmaptool:_ZN5IItem12saveSettingsER9QSettings
qmaptool:_ZN5IItem12wheelEventFxEP11QWheelEvent
qmaptool:_ZN5IItem16mouseMoveEventFxEP11QMouseEvent
qmaptool:_ZN5IItem16staticMetaObjectE
qmaptool:_ZN5IItem17mousePressEventFxEP11QMouseEvent
qmaptool:_ZN5IItem19mouseReleaseEventFxEP11QMouseEvent
qmaptool:_ZN5IItem6drawFxER8QPainterN7CCanvas8redraw_eE
qmaptool:_ZN5IItem6reloadEv
qmaptool:_ZN5IItemC1ERK7QString
qmaptool:_ZN5IItemC2ERK7QString
qmaptool:_ZN5IUnit11coordFormatE
qmaptool:_ZN5IUnit11qt_metacallEN11QMetaObject4CallEiPPv
qmaptool:_ZN5IUnit11qt_metacastEPKc
qmaptool:_ZN5IUnit11setUnitTypeENS_6type_eEP7QObject
qmaptool:_ZN5IUnit11tblTimezoneE
qmaptool:_ZN5IUnit12pos2timezoneERK7QPointF
qmaptool:_ZN5IUnit12timeZoneModeE
qmaptool:_ZN5IUnit14parseTimestampERK7QStringR9QDateTime
qmaptool:_ZN5IUnit14parseTimestampERK7QStringRi
qmaptool:_ZN5IUnit14useShortFormatE
qmaptool:_ZN5IUnit15datetime2stringERK9QDateTimebRK7QPointF
qmaptool:_ZN5IUnit16staticMetaObjectE
qmaptool:_ZN5IUnit18isValidCoordStringERK7QString
qmaptool:_ZN5IUnit6m_selfE
qmaptool:_ZN5IUnit8degToStrERKdS1_R7QString
qmaptool:_ZN5IUnit8reCoord1E
qmaptool:_ZN5IUnit8reCoord2E
qmaptool:_ZN5IUnit8reCoord3E
qmaptool:_ZN5IUnit8reCoord4E
qmaptool:_ZN5IUnit8reCoord5E
qmaptool:_ZN5IUnit8strToDegERK7QStringRdS3_
qmaptool:_ZN5IUnit8timeZoneE
qmaptool:_ZN5IUnitC1ERKNS_6type_eERK7QStringdS5_dP7QObject
qmaptool:_ZN5IUnitC2ERKNS_6type_eERK7QStringdS5_dP7QObject
qmaptool:_ZN6CAbout11qt_metacallEN11QMetaObject4CallEiPPv
qmaptool:_ZN6CAbout11qt_metacastEPKc
qmaptool:_ZN6CAbout16staticMetaObjectE
qmaptool:_ZN6CAboutC1EP7QWidget
qmaptool:_ZN6CAboutC2EP7QWidget
qmaptool:_ZN6CShell10slotCancelEv
qmaptool:_ZN6CShell10slotStderrEv
qmaptool:_ZN6CShell10slotStdoutEv
qmaptool:_ZN6CShell11nextCommandEv
qmaptool:_ZN6CShell11qt_metacallEN11QMetaObject4CallEiPPv
qmaptool:_ZN6CShell11qt_metacastEPKc
qmaptool:_ZN6CShell12slotFinishedEiN8QProcess10ExitStatusE
qmaptool:_ZN6CShell14sigFinishedJobEi
qmaptool:_ZN6CShell16staticMetaObjectE
qmaptool:_ZN6CShell5pSelfE
qmaptool:_ZN6CShell6stdErrERK7QString
qmaptool:_ZN6CShell6stdOutERK7QString
qmaptool:_ZN6CShell7executeE5QListI9CShellCmdE
qmaptool:_ZN6CShell9slotErrorEN8QProcess12ProcessErrorE
qmaptool:_ZN6CShellC1EP7QWidget
qmaptool:_ZN6CShellC2EP7QWidget
qmaptool:_ZN7CCanvas10enterEventEP6QEvent
qmaptool:_ZN7CCanvas10leaveEventEP6QEvent
qmaptool:_ZN7CCanvas10paintEventEP11QPaintEvent
qmaptool:_ZN7CCanvas10wheelEventEP11QWheelEvent
qmaptool:_ZN7CCanvas11qt_metacallEN11QMetaObject4CallEiPPv
qmaptool:_ZN7CCanvas11qt_metacastEPKc
qmaptool:_ZN7CCanvas11resizeEventEP12QResizeEvent
qmaptool:_ZN7CCanvas13keyPressEventEP9QKeyEvent
qmaptool:_ZN7CCanvas14mouseMoveEventEP11QMouseEvent
qmaptool:_ZN7CCanvas14sigChangedSizeERK5QSize
qmaptool:_ZN7CCanvas15mousePressEventEP11QMouseEvent
qmaptool:_ZN7CCanvas16staticMetaObjectE
qmaptool:_ZN7CCanvas17mouseReleaseEventEP11QMouseEvent
qmaptool:_ZN7CCanvas17setOverrideCursorERK7QCursorRK7QString
qmaptool:_ZN7CCanvas20changeOverrideCursorERK7QCursorRK7QString
qmaptool:_ZN7CCanvas21mouseDoubleClickEventEP11QMouseEvent
qmaptool:_ZN7CCanvas21restoreOverrideCursorERK7QString
qmaptool:_ZN7CCanvas21slotHideLoadIndicatorEv
qmaptool:_ZN7CCanvas21slotShowLoadIndicatorEv
qmaptool:_ZN7CCanvas25slotTriggerCompleteUpdateENS_8redraw_eE
qmaptool:_ZN7CCanvasC1EP7QWidget
qmaptool:_ZN7CCanvasC2EP7QWidget
qmaptool:_ZN7pointDPC1ERKdS1_S1_
qmaptool:_ZN7pointDPC1Ev
qmaptool:_ZN7pointDPC2ERKdS1_S1_
qmaptool:_ZN7pointDPC2Ev
qmaptool:_ZN8CItemMap15drawBoundingBoxER8QPainterP12IDrawContext
qmaptool:_ZN8CItemMap6reloadEv
qmaptool:_ZN8CItemMapC1ERK7QString
qmaptool:_ZN8CItemMapC2ERK7QString
qmaptool:_ZN8CItemMapD0Ev
qmaptool:_ZN8CItemMapD1Ev
qmaptool:_ZN8CItemMapD2Ev
qmaptool:_ZN8CToolBox12setupChangedEv
qmaptool:_ZN8CToolBox15slotToolChangedEi
qmaptool:_ZN8CToolBoxC1EP7QWidget
qmaptool:_ZN8CToolBoxC2EP7QWidget
qmaptool:_ZN8IOverlay10sigChangedEv
qmaptool:_ZN8IOverlay11qt_metacallEN11QMetaObject4CallEiPPv
qmaptool:_ZN8IOverlay11qt_metacastEPKc
qmaptool:_ZN8IOverlay16staticMetaObjectE
qmaptool:_ZN8IOverlay7toFrontEv
qmaptool:_ZN8IOverlayC1EP14QStackedWidget
qmaptool:_ZN8IOverlayC2EP14QStackedWidget
qmaptool:_ZN8IToolGui11qt_metacallEN11QMetaObject4CallEiPPv
qmaptool:_ZN8IToolGui11qt_metacastEPKc
qmaptool:_ZN8IToolGui14createTempFileERK7QString
qmaptool:_ZN8IToolGui16staticMetaObjectE
qmaptool:_ZN8IToolGui5startEP15CItemListWidgetb
qmaptool:_ZN8IToolGui5startEP15CItemTreeWidget
qmaptool:_ZN8IToolGui8finishedEi
qmaptool:_ZN8IToolGuiC1EP7QWidget
qmaptool:_ZN8IToolGuiC2EP7QWidget
qmaptool:_ZN9CGdalFile4loadERK7QString
qmaptool:_ZN9CGdalFile6unloadEv
qmaptool:_ZN9CGdalFileC1ENS_6type_eE
qmaptool:_ZN9CGdalFileC2ENS_6type_eE
qmaptool:_ZN9CItemFile6reloadEv
qmaptool:_ZN9CItemFileC1ERK7QStringP11QListWidget
qmaptool:_ZN9CItemFileC2ERK7QStringP11QListWidget
qmaptool:_ZN9CShellCmdC1ERK7QStringRK11QStringList
qmaptool:_ZN9CShellCmdC2ERK7QStringRK11QStringList
qmaptool:_ZN9CToolGrid10slotCancelEv
qmaptool:_ZN9CToolGrid11getCursorFxEv
qmaptool:_ZN9CToolGrid11qt_metacallEN11QMetaObject4CallEiPPv
qmaptool:_ZN9CToolGrid11qt_metacastEPKc
qmaptool:_ZN9CToolGrid12leaveEventFxEP6QEvent
qmaptool:_ZN9CToolGrid12registerItemEP11CItemRefMap
qmaptool:_ZN9CToolGrid12wheelEventFxEP11QWheelEvent
qmaptool:_ZN9CToolGrid16mouseMoveEventFxEP11QMouseEvent
qmaptool:_ZN9CToolGrid16staticMetaObjectE
qmaptool:_ZN9CToolGrid17mousePressEventFxEP11QMouseEvent
qmaptool:_ZN9CToolGrid19mouseReleaseEventFxEP11QMouseEvent
qmaptool:_ZN9CToolGrid6drawFxER8QPainterN7CCanvas8redraw_eE
qmaptool:_ZN9CToolGrid6slotOkEv
qmaptool:_ZN9CToolGridC1EP7QWidget
qmaptool:_ZN9CToolGridC2EP7QWidget
qmaptool:_ZN9IAppSetup11prepareGdalE7QStringS0_
qmaptool:_ZN9IAppSetup11qt_metacallEN11QMetaObject4CallEiPPv
qmaptool:_ZN9IAppSetup11qt_metacastEPKc
qmaptool:_ZN9IAppSetup14createInstanceEP7QObject
qmaptool:_ZN9IAppSetup14initLogHandlerEv
qmaptool:_ZN9IAppSetup15sigSetupChangedEv
qmaptool:_ZN9IAppSetup16prepareToolPathsEv
qmaptool:_ZN9IAppSetup16processArgumentsEv
qmaptool:_ZN9IAppSetup16staticMetaObjectE
qmaptool:_ZN9IAppSetup17prepareTranslatorE7QStringS0_
qmaptool:_ZN9IAppSetup4pathE7QStringS0_bS0_
qmaptool:_ZN9IAppSetup4selfEv
qmaptool:_ZN9IAppSetup5pSelfE
qmaptool:_ZN9IAppSetupD0Ev
qmaptool:_ZN9IAppSetupD1Ev
qmaptool:_ZN9IAppSetupD2Ev
qmaptool:_ZNK10CHelpIndex10metaObjectEv
qmaptool:_ZNK11CGridPlacer10metaObjectEv
qmaptool:_ZNK11CGridSetRef10metaObjectEv
qmaptool:_ZNK11CHelpSearch10metaObjectEv
qmaptool:_ZNK11CItemCutMap4isOkEv
qmaptool:_ZNK11CItemCutMap9saveShapeERK7QString
qmaptool:_ZNK11CItemRefMap12getRefPointsEv
qmaptool:_ZNK11CItemRefMap16getMapProjectionEv
qmaptool:_ZNK11CItemRefMap4isOkEv
qmaptool:_ZNK11CMainWindow10metaObjectEv
qmaptool:_ZNK11CProjWizard10metaObjectEv
qmaptool:_ZNK11CToolCutMap10metaObjectEv
qmaptool:_ZNK11CToolExport10metaObjectEv
qmaptool:_ZNK11CToolRefMap10metaObjectEv
qmaptool:_ZNK11CUnitMetric10meter2areaEdR7QStringS1_
qmaptool:_ZNK11CUnitMetric10meter2unitEdRdR7QString
qmaptool:_ZNK11CUnitMetric11meter2speedEdR7QStringS1_
qmaptool:_ZNK11CUnitMetric14meter2distanceEdR7QStringS1_
qmaptool:_ZNK11CUnitMetric15elevation2meterERK7QString
qmaptool:_ZNK11CUnitMetric15meter2elevationEdR7QStringS1_
qmaptool:_ZNK11CUnitNautic10meter2areaEdR7QStringS1_
qmaptool:_ZNK11CUnitNautic10meter2unitEdRdR7QString
qmaptool:_ZNK11CUnitNautic11meter2speedEdR7QStringS1_
qmaptool:_ZNK11CUnitNautic14meter2distanceEdR7QStringS1_
qmaptool:_ZNK11CUnitNautic15elevation2meterERK7QString
qmaptool:_ZNK11CUnitNautic15meter2elevationEdR7QStringS1_
qmaptool:_ZNK12CGridSelArea10metaObjectEv
qmaptool:_ZNK12CHelpBrowser10metaObjectEv
qmaptool:_ZNK12IDrawContext10metaObjectEv
qmaptool:_ZNK12IDrawContext11needsRedrawEv
qmaptool:_ZNK12IDrawContext12saveSettingsER9QSettings
qmaptool:_ZNK12IDrawContext17convertMap2ScreenER6QRectF
qmaptool:_ZNK12IDrawContext17convertMap2ScreenER7QPointF
qmaptool:_ZNK12IDrawContext17convertMap2ScreenER9QPolygonF
qmaptool:_ZNK12IDrawContext17convertScreen2MapER7QPointF
qmaptool:_ZNK13CItemMapLayer10metaObjectEv
qmaptool:_ZNK13CItemMapLayer13getProjectionEv
qmaptool:_ZNK13CUnitImperial10meter2areaEdR7QStringS1_
qmaptool:_ZNK13CUnitImperial10meter2unitEdRdR7QString
qmaptool:_ZNK13CUnitImperial14meter2distanceEdR7QStringS1_
qmaptool:_ZNK13CUnitImperial15elevation2meterERK7QString
qmaptool:_ZNK13CUnitImperial15meter2elevationEdR7QStringS1_
qmaptool:_ZNK14COverlayCutMap10metaObjectEv
qmaptool:_ZNK14COverlayCutMap13isCloseToLineE7QPointF9QPolygonFRiS2_
qmaptool:_ZNK14COverlayCutMap9isCloseToE7QPointF9QPolygonFRi
qmaptool:_ZNK14COverlayRefMap10metaObjectEv
qmaptool:_ZNK14COverlayRefMap12getRefPointsEv
qmaptool:_ZNK14COverlayRefMap16getMapProjectionEv
qmaptool:_ZNK14COverlayRefMap4isOkEv
qmaptool:_ZNK14CSetupExtTools10metaObjectEv
qmaptool:_ZNK14CToolExportJnx10metaObjectEv
qmaptool:_ZNK14CToolPalettize10metaObjectEv
qmaptool:_ZNK15CDialogRefPoint10metaObjectEv
qmaptool:_ZNK15CItemListWidget10metaObjectEv
qmaptool:_ZNK15CItemTreeWidget10metaObjectEv
qmaptool:_ZNK16CDrawContextProj10metaObjectEv
qmaptool:_ZNK16CDrawContextProj16convertCoord2MapER7QPointF
qmaptool:_ZNK16CDrawContextProj16convertMap2CoordER7QPointF
qmaptool:_ZNK16COverlayGridTool10metaObjectEv
qmaptool:_ZNK16CToolAddOverview10metaObjectEv
qmaptool:_ZNK17CCoordFormatSetup10metaObjectEv
qmaptool:_ZNK17CDrawContextPixel10metaObjectEv
qmaptool:_ZNK17CDrawContextPixel15convertMap2ProjER7QPointF
qmaptool:_ZNK17CDrawContextPixel15convertProj2MapER7QPointF
qmaptool:_ZNK17CDrawContextPixel16convertCoord2MapER7QPointF
qmaptool:_ZNK17CDrawContextPixel16convertMap2CoordER7QPointF
qmaptool:_ZNK17CToolGDALGroupBox10metaObjectEv
qmaptool:_ZNK21CToolOverviewGroupBox10metaObjectEv
qmaptool:_ZNK5CHelp10metaObjectEv
qmaptool:_ZNK5CProj10_isLatLongERK7QString
qmaptool:_ZNK5CProj10_transformERdS0_12PJ_DIRECTION
qmaptool:_ZNK5CProj9transformER7QPointF12PJ_DIRECTION
qmaptool:_ZNK5CProj9transformER9QPolygonF12PJ_DIRECTION
qmaptool:_ZNK5CProj9transformERdS0_12PJ_DIRECTION
qmaptool:_ZNK5IItem10metaObjectEv
qmaptool:_ZNK5IUnit10metaObjectEv
qmaptool:_ZNK5IUnit11meter2speedEdR7QStringS1_
qmaptool:_ZNK5IUnit12seconds2timeEjR7QStringS1_
qmaptool:_ZNK6CAbout10metaObjectEv
qmaptool:_ZNK6CShell10metaObjectEv
qmaptool:_ZNK7CCanvas10metaObjectEv
qmaptool:_ZNK8CItemMap8getScaleEv
qmaptool:_ZNK8IOverlay10metaObjectEv
qmaptool:_ZNK8IToolGui10metaObjectEv
qmaptool:_ZNK9CGdalFile13getProjectionEv
qmaptool:_ZNK9CGdalFile7getInfoEv
qmaptool:_ZNK9CToolGrid10metaObjectEv
qmaptool:_ZNK9IAppSetup10metaObjectEv
qmaptool:_ZThn16_N11CItemCutMap11getCursorFxEv
qmaptool:_ZThn16_N11CItemCutMap12leaveEventFxEP6QEvent
qmaptool:_ZThn16_N11CItemCutMap16mouseMoveEventFxEP11QMouseEvent
qmaptool:_ZThn16_N11CItemCutMap19mouseReleaseEventFxEP11QMouseEvent
qmaptool:_ZThn16_N11CItemCutMap6drawFxER8QPainterN7CCanvas8redraw_eE
qmaptool:_ZThn16_N11CItemCutMapD0Ev
qmaptool:_ZThn16_N11CItemCutMapD1Ev
qmaptool:_ZThn16_N11CItemRefMap11getCursorFxEv
qmaptool:_ZThn16_N11CItemRefMap12leaveEventFxEP6QEvent
qmaptool:_ZThn16_N11CItemRefMap15keyPressEventFxEP9QKeyEvent
qmaptool:_ZThn16_N11CItemRefMap16mouseMoveEventFxEP11QMouseEvent
qmaptool:_ZThn16_N11CItemRefMap19mouseReleaseEventFxEP11QMouseEvent
qmaptool:_ZThn16_N11CItemRefMap6drawFxER8QPainterN7CCanvas8redraw_eE
qmaptool:_ZThn16_N11CItemRefMapD0Ev
qmaptool:_ZThn16_N11CItemRefMapD1Ev
qmaptool:_ZThn16_N11CMainWindowD0Ev
qmaptool:_ZThn16_N11CMainWindowD1Ev
qmaptool:_ZThn16_N11CProjWizardD0Ev
qmaptool:_ZThn16_N11CProjWizardD1Ev
qmaptool:_ZThn16_N11CToolCutMapD0Ev
qmaptool:_ZThn16_N11CToolCutMapD1Ev
qmaptool:_ZThn16_N11CToolExportD0Ev
qmaptool:_ZThn16_N11CToolExportD1Ev
qmaptool:_ZThn16_N11CToolRefMapD0Ev
qmaptool:_ZThn16_N11CToolRefMapD1Ev
qmaptool:_ZThn16_N13CItemMapLayer6drawFxER8QPainterN7CCanvas8redraw_eE
qmaptool:_ZThn16_N14CTimeZoneSetupD0Ev
qmaptool:_ZThn16_N14CTimeZoneSetupD1Ev
qmaptool:_ZThn16_N14CToolPalettizeD0Ev
qmaptool:_ZThn16_N14CToolPalettizeD1Ev
qmaptool:_ZThn16_N16CToolAddOverviewD0Ev
qmaptool:_ZThn16_N16CToolAddOverviewD1Ev
qmaptool:_ZThn16_N17CCoordFormatSetupD0Ev
qmaptool:_ZThn16_N17CCoordFormatSetupD1Ev
qmaptool:_ZThn16_N5CHelpD0Ev
qmaptool:_ZThn16_N5CHelpD1Ev
qmaptool:_ZThn16_N5IItem12wheelEventFxEP11QWheelEvent
qmaptool:_ZThn16_N5IItem16mouseMoveEventFxEP11QMouseEvent
qmaptool:_ZThn16_N5IItem17mousePressEventFxEP11QMouseEvent
qmaptool:_ZThn16_N5IItem19mouseReleaseEventFxEP11QMouseEvent
qmaptool:_ZThn16_N5IItem6drawFxER8QPainterN7CCanvas8redraw_eE
qmaptool:_ZThn480_N17CDrawContextPixelD0Ev
qmaptool:_ZThn480_N17CDrawContextPixelD1Ev
qmaptool:_ZThn48_N9CToolGrid11getCursorFxEv
qmaptool:_ZThn48_N9CToolGrid12leaveEventFxEP6QEvent
qmaptool:_ZThn48_N9CToolGrid12wheelEventFxEP11QWheelEvent
qmaptool:_ZThn48_N9CToolGrid16mouseMoveEventFxEP11QMouseEvent
qmaptool:_ZThn48_N9CToolGrid17mousePressEventFxEP11QMouseEvent
qmaptool:_ZThn48_N9CToolGrid19mouseReleaseEventFxEP11QMouseEvent
qmaptool:_ZThn48_N9CToolGrid6drawFxER8QPainterN7CCanvas8redraw_eE
qmaptool:_ZThn568_N8CItemMap6reloadEv
qmaptool:_ZThn568_N8CItemMapD0Ev
qmaptool:_ZThn568_N8CItemMapD1Ev
qmaptool:_ZThn584_N8CItemMapD0Ev
qmaptool:_ZThn584_N8CItemMapD1Ev
qmaptool:_ZThn632_N8CItemMapD0Ev
qmaptool:_ZThn632_N8CItemMapD1Ev
qmaptool:_ZThn64_N11CItemCutMapD0Ev
qmaptool:_ZThn64_N11CItemCutMapD1Ev
qmaptool:_ZThn64_N11CItemRefMapD0Ev
qmaptool:_ZThn64_N11CItemRefMapD1Ev
qmaptool:_ZThn64_N11CToolCutMap12setupChangedEv
qmaptool:_ZThn64_N11CToolCutMapD0Ev
qmaptool:_ZThn64_N11CToolCutMapD1Ev
qmaptool:_ZThn64_N11CToolExport12setupChangedEv
qmaptool:_ZThn64_N11CToolExportD0Ev
qmaptool:_ZThn64_N11CToolExportD1Ev
qmaptool:_ZThn64_N11CToolRefMap12setupChangedEv
qmaptool:_ZThn64_N11CToolRefMapD0Ev
qmaptool:_ZThn64_N11CToolRefMapD1Ev
qmaptool:_ZThn64_N14CToolPalettize12setupChangedEv
qmaptool:_ZThn64_N14CToolPalettizeD0Ev
qmaptool:_ZThn64_N14CToolPalettizeD1Ev
qmaptool:_ZThn64_N16CToolAddOverview12setupChangedEv
qmaptool:_ZThn64_N16CToolAddOverviewD0Ev
qmaptool:_ZThn64_N16CToolAddOverviewD1Ev
qmaptool:_ZdvRK7QPointFS1_
qmaptool:_ZmlRK7QPointFS1_
qmaptool:__bss_start
qmaptool:__data_start
qmaptool:_edata
qmaptool:_end
qmaptool:_start
qmaptool:asDatumInfoList
qmaptool:asSpheroidInfoList
qmaptool:main
qmaptool:qlOpts
qmt_map2jnx:_IO_stdin_used
qmt_map2jnx:_Z8get_argviPPc
qmt_map2jnx:_Z8readTilejjjjR6file_tPj
qmt_map2jnx:_ZN5CProj12validProjStrE7QStringbSt8functionIFvRKS0_EE
qmt_map2jnx:_ZN5CProj4initEPKcS1_
qmt_map2jnx:_ZN5CProjC1ERK7QStringS2_
qmt_map2jnx:_ZN5CProjC2ERK7QStringS2_
qmt_map2jnx:_ZN5CProjD0Ev
qmt_map2jnx:_ZN5CProjD1Ev
qmt_map2jnx:_ZN5CProjD2Ev
qmt_map2jnx:_ZNK5CProj10_isLatLongERK7QString
qmt_map2jnx:_ZNK5CProj10_transformERdS0_12PJ_DIRECTION
qmt_map2jnx:_ZNK5CProj9transformER7QPointF12PJ_DIRECTION
qmt_map2jnx:_ZNK5CProj9transformER9QPolygonF12PJ_DIRECTION
qmt_map2jnx:_ZNK5CProj9transformERdS0_12PJ_DIRECTION
qmt_map2jnx:__bss_start
qmt_map2jnx:__data_start
qmt_map2jnx:_edata
qmt_map2jnx:_end
qmt_map2jnx:_start
qmt_map2jnx:main
qmt_rgb2pct:_IO_stdin_used
qmt_rgb2pct:_Z18printStderrQStringRK7QString
qmt_rgb2pct:_Z18printStdoutQStringRK7QString
qmt_rgb2pct:_ZN4CApp14saveColorTableEP14GDALColorTableR7QString
qmt_rgb2pct:_ZN4CApp16createColorTableEiRK7QStringP11GDALDataset
qmt_rgb2pct:_ZN4CApp4execEv
qmt_rgb2pct:_ZN4CApp7noColorE
qmt_rgb2pct:_ZN4CApp9ditherMapEP11GDALDatasetRK7QStringP14GDALColorTable
qmt_rgb2pct:_ZN4CAppC1EiRK7QStringS2_S2_S2_
qmt_rgb2pct:_ZN4CAppC2EiRK7QStringS2_S2_S2_
qmt_rgb2pct:__bss_start
qmt_rgb2pct:__data_start
qmt_rgb2pct:_edata
qmt_rgb2pct:_end
qmt_rgb2pct:_start
qmt_rgb2pct:main
