libnumbertext-1.0.so.0:_Z8readfileRKNSt7__cxx1112basic_stringIcSt11char_traitsIcESaIcEEERNS0_IwS1_IwESaIwEEE
libnumbertext-1.0.so.0:_ZN10Numbertext10numbertextERNSt7__cxx1112basic_stringIcSt11char_traitsIcESaIcEEERKS5_
libnumbertext-1.0.so.0:_ZN10Numbertext10numbertextERNSt7__cxx1112basic_stringIwSt11char_traitsIwESaIwEEERKNS1_IcS2_IcESaIcEEE
libnumbertext-1.0.so.0:_ZN10Numbertext10numbertextEiRKNSt7__cxx1112basic_stringIcSt11char_traitsIcESaIcEEE
libnumbertext-1.0.so.0:_ZN10Numbertext14string2wstringERKNSt7__cxx1112basic_stringIcSt11char_traitsIcESaIcEEE
libnumbertext-1.0.so.0:_ZN10Numbertext14wstring2stringERKNSt7__cxx1112basic_stringIwSt11char_traitsIwESaIwEEE
libnumbertext-1.0.so.0:_ZN10Numbertext4loadENSt7__cxx1112basic_stringIcSt11char_traitsIcESaIcEEES5_
libnumbertext-1.0.so.0:_ZN10NumbertextC1Ev
libnumbertext-1.0.so.0:_ZN10NumbertextC2Ev
libnumbertext-1.0.so.0:_ZN5Soros1cB5cxx11E
libnumbertext-1.0.so.0:_ZN5Soros1mB5cxx11E
libnumbertext-1.0.so.0:_ZN5Soros2c2B5cxx11E
libnumbertext-1.0.so.0:_ZN5Soros2m2B5cxx11E
libnumbertext-1.0.so.0:_ZN5Soros3runERNSt7__cxx1112basic_stringIwSt11char_traitsIwESaIwEEE
libnumbertext-1.0.so.0:_ZN5Soros3runERNSt7__cxx1112basic_stringIwSt11char_traitsIwESaIwEEERibb
libnumbertext-1.0.so.0:_ZN5Soros4funcB5cxx11E
libnumbertext-1.0.so.0:_ZN5Soros4pipeB5cxx11E
libnumbertext-1.0.so.0:_ZN5Soros5slashB5cxx11E
libnumbertext-1.0.so.0:_ZN5Soros7replaceERNSt7__cxx1112basic_stringIwSt11char_traitsIwESaIwEEERKS5_S8_
libnumbertext-1.0.so.0:_ZN5Soros9translateENSt7__cxx1112basic_stringIwSt11char_traitsIwESaIwEEES5_RKS5_S7_
libnumbertext-1.0.so.0:_ZN5SorosC1ENSt7__cxx1112basic_stringIwSt11char_traitsIwESaIwEEES5_
libnumbertext-1.0.so.0:_ZN5SorosC2ENSt7__cxx1112basic_stringIwSt11char_traitsIwESaIwEEES5_
