KGlobalAccelDXcb.so:qt_plugin_instance
KGlobalAccelDXcb.so:qt_plugin_query_metadata_v2
libKGlobalAccelD.so.0:_ZN13KGlobalAccelD10doRegisterERK5QListI7QStringE
libKGlobalAccelD.so.0:_ZN13KGlobalAccelD10unregisterERK7QStringS2_
libKGlobalAccelD.so.0:_ZN13KGlobalAccelD11qt_metacallEN11QMetaObject4CallEiPPv
libKGlobalAccelD.so.0:_ZN13KGlobalAccelD11qt_metacastEPKc
libKGlobalAccelD.so.0:_ZN13KGlobalAccelD11setInactiveERK5QListI7QStringE
libKGlobalAccelD.so.0:_ZN13KGlobalAccelD15setShortcutKeysERK5QListI7QStringERKS0_I12QKeySequenceEj
libKGlobalAccelD.so.0:_ZN13KGlobalAccelD16staticMetaObjectE
libKGlobalAccelD.so.0:_ZN13KGlobalAccelD20blockGlobalShortcutsEb
libKGlobalAccelD.so.0:_ZN13KGlobalAccelD20yourShortcutsChangedERK5QListI7QStringERKS0_I12QKeySequenceE
libKGlobalAccelD.so.0:_ZN13KGlobalAccelD22setForeignShortcutKeysERK5QListI7QStringERKS0_I12QKeySequenceE
libKGlobalAccelD.so.0:_ZN13KGlobalAccelD29activateGlobalShortcutContextERK7QStringS2_
libKGlobalAccelD.so.0:_ZN13KGlobalAccelD4initEv
libKGlobalAccelD.so.0:_ZN13KGlobalAccelDC1EP7QObject
libKGlobalAccelD.so.0:_ZN13KGlobalAccelDC2EP7QObject
libKGlobalAccelD.so.0:_ZN13KGlobalAccelDD0Ev
libKGlobalAccelD.so.0:_ZN13KGlobalAccelDD1Ev
libKGlobalAccelD.so.0:_ZN13KGlobalAccelDD2Ev
libKGlobalAccelD.so.0:_ZN21KGlobalAccelInterface10keyPressedEi
libKGlobalAccelD.so.0:_ZN21KGlobalAccelInterface10ungrabKeysEv
libKGlobalAccelD.so.0:_ZN21KGlobalAccelInterface11keyReleasedEi
libKGlobalAccelD.so.0:_ZN21KGlobalAccelInterface11qt_metacallEN11QMetaObject4CallEiPPv
libKGlobalAccelD.so.0:_ZN21KGlobalAccelInterface11qt_metacastEPKc
libKGlobalAccelD.so.0:_ZN21KGlobalAccelInterface11setRegistryEP23GlobalShortcutsRegistry
libKGlobalAccelD.so.0:_ZN21KGlobalAccelInterface16staticMetaObjectE
libKGlobalAccelD.so.0:_ZN21KGlobalAccelInterface8grabKeysEv
libKGlobalAccelD.so.0:_ZN21KGlobalAccelInterfaceC1EP7QObject
libKGlobalAccelD.so.0:_ZN21KGlobalAccelInterfaceC2EP7QObject
libKGlobalAccelD.so.0:_ZN21KGlobalAccelInterfaceD0Ev
libKGlobalAccelD.so.0:_ZN21KGlobalAccelInterfaceD1Ev
libKGlobalAccelD.so.0:_ZN21KGlobalAccelInterfaceD2Ev
libKGlobalAccelD.so.0:_ZN23GlobalShortcutsRegistry10keyPressedEi
libKGlobalAccelD.so.0:_ZN23GlobalShortcutsRegistry10ungrabKeysEv
libKGlobalAccelD.so.0:_ZN23GlobalShortcutsRegistry11keyReleasedEi
libKGlobalAccelD.so.0:_ZN23GlobalShortcutsRegistry11qt_metacallEN11QMetaObject4CallEiPPv
libKGlobalAccelD.so.0:_ZN23GlobalShortcutsRegistry11qt_metacastEPKc
libKGlobalAccelD.so.0:_ZN23GlobalShortcutsRegistry11registerKeyERK12QKeySequenceP14GlobalShortcut
libKGlobalAccelD.so.0:_ZN23GlobalShortcutsRegistry11setDBusPathERK15QDBusObjectPath
libKGlobalAccelD.so.0:_ZN23GlobalShortcutsRegistry12getComponentERK7QString
libKGlobalAccelD.so.0:_ZN23GlobalShortcutsRegistry12loadSettingsEv
libKGlobalAccelD.so.0:_ZN23GlobalShortcutsRegistry13migrateConfigEv
libKGlobalAccelD.so.0:_ZN23GlobalShortcutsRegistry13unregisterKeyERK12QKeySequenceP14GlobalShortcut
libKGlobalAccelD.so.0:_ZN23GlobalShortcutsRegistry13writeSettingsEv
libKGlobalAccelD.so.0:_ZN23GlobalShortcutsRegistry15createComponentERK7QStringS2_
libKGlobalAccelD.so.0:_ZN23GlobalShortcutsRegistry16staticMetaObjectE
libKGlobalAccelD.so.0:_ZN23GlobalShortcutsRegistry17activateShortcutsEv
libKGlobalAccelD.so.0:_ZN23GlobalShortcutsRegistry17registerComponentESt10unique_ptrI9ComponentPFvPS1_EE
libKGlobalAccelD.so.0:_ZN23GlobalShortcutsRegistry19deactivateShortcutsEb
libKGlobalAccelD.so.0:_ZN23GlobalShortcutsRegistry19unregisterComponentEP9Component
libKGlobalAccelD.so.0:_ZN23GlobalShortcutsRegistry28createServiceActionComponentE28QExplicitlySharedDataPointerI8KServiceE
libKGlobalAccelD.so.0:_ZN23GlobalShortcutsRegistry28createServiceActionComponentERK7QString
libKGlobalAccelD.so.0:_ZN23GlobalShortcutsRegistry4selfEv
libKGlobalAccelD.so.0:_ZN23GlobalShortcutsRegistry5clearEv
libKGlobalAccelD.so.0:_ZN23GlobalShortcutsRegistry8grabKeysEv
libKGlobalAccelD.so.0:_ZN23GlobalShortcutsRegistryC1Ev
libKGlobalAccelD.so.0:_ZN23GlobalShortcutsRegistryC2Ev
libKGlobalAccelD.so.0:_ZN23GlobalShortcutsRegistryD0Ev
libKGlobalAccelD.so.0:_ZN23GlobalShortcutsRegistryD1Ev
libKGlobalAccelD.so.0:_ZN23GlobalShortcutsRegistryD2Ev
libKGlobalAccelD.so.0:_ZN5Utils10reverseKeyERK12QKeySequence
libKGlobalAccelD.so.0:_ZN5Utils14matchSequencesERK12QKeySequenceRK5QListIS0_E
libKGlobalAccelD.so.0:_ZN5Utils7cropKeyERK12QKeySequencei
libKGlobalAccelD.so.0:_ZN5Utils9mangleKeyERK12QKeySequence
libKGlobalAccelD.so.0:_ZNK13KGlobalAccelD10actionListERK12QKeySequence
libKGlobalAccelD.so.0:_ZNK13KGlobalAccelD10metaObjectEv
libKGlobalAccelD.so.0:_ZNK13KGlobalAccelD12getComponentERK7QString
libKGlobalAccelD.so.0:_ZNK13KGlobalAccelD12shortcutKeysERK5QListI7QStringE
libKGlobalAccelD.so.0:_ZNK13KGlobalAccelD13allComponentsEv
libKGlobalAccelD.so.0:_ZNK13KGlobalAccelD17allMainComponentsEv
libKGlobalAccelD.so.0:_ZNK13KGlobalAccelD19defaultShortcutKeysERK5QListI7QStringE
libKGlobalAccelD.so.0:_ZNK13KGlobalAccelD20globalShortcutsByKeyERK12QKeySequenceN12KGlobalAccel9MatchTypeE
libKGlobalAccelD.so.0:_ZNK13KGlobalAccelD21scheduleWriteSettingsEv
libKGlobalAccelD.so.0:_ZNK13KGlobalAccelD22allActionsForComponentERK5QListI7QStringE
libKGlobalAccelD.so.0:_ZNK13KGlobalAccelD23globalShortcutAvailableERK12QKeySequenceRK7QString
libKGlobalAccelD.so.0:_ZNK21KGlobalAccelInterface10metaObjectEv
libKGlobalAccelD.so.0:_ZNK23GlobalShortcutsRegistry10metaObjectEv
libKGlobalAccelD.so.0:_ZNK23GlobalShortcutsRegistry16getShortcutByKeyERK12QKeySequenceN12KGlobalAccel9MatchTypeE
libKGlobalAccelD.so.0:_ZNK23GlobalShortcutsRegistry17allComponentNamesEv
libKGlobalAccelD.so.0:_ZNK23GlobalShortcutsRegistry17getShortcutsByKeyERK12QKeySequenceN12KGlobalAccel9MatchTypeE
libKGlobalAccelD.so.0:_ZNK23GlobalShortcutsRegistry19componentsDbusPathsEv
libKGlobalAccelD.so.0:_ZNK23GlobalShortcutsRegistry19isShortcutAvailableERK12QKeySequenceRK7QStringS5_
libKGlobalAccelD.so.0:_ZNK23GlobalShortcutsRegistry8dbusPathEv
