UNKNOWN:_ZTI18OsiSolverInterface
UNKNOWN:_ZTI21OsiClpSolverInterface
UNKNOWN:_ZTV9CglClique
libCbc.so.3:_ZN11CbcRoundingC1ER8CbcModel
libCbc.so.3:_ZN11CbcRoundingD1Ev
libCbc.so.3:_ZN16CbcHeuristicRINSC1ER8CbcModel
libCbc.so.3:_ZN16CbcHeuristicRINSD1Ev
libCbc.so.3:_ZN17CbcHeuristicFPumpC1ER8CbcModeldb
libCbc.so.3:_ZN17CbcHeuristicFPumpD1Ev
libCbc.so.3:_ZN17CbcHeuristicLocalC1ER8CbcModel
libCbc.so.3:_ZN17CbcHeuristicLocalD1Ev
libCbc.so.3:_ZN23CbcHeuristicGreedyCoverC1ER8CbcModel
libCbc.so.3:_ZN23CbcHeuristicGreedyCoverD1Ev
libCbc.so.3:_ZN8CbcModel11setLogLevelEi
libCbc.so.3:_ZN8CbcModel12addHeuristicEP12CbcHeuristicPKci
libCbc.so.3:_ZN8CbcModel12initialSolveEv
libCbc.so.3:_ZN8CbcModel14branchAndBoundEi
libCbc.so.3:_ZN8CbcModel15addCutGeneratorEP15CglCutGeneratoriPKcbbbiii
libCbc.so.3:_ZN8CbcModel15setNumberStrongEi
libCbc.so.3:_ZN8CbcModelC1ERK18OsiSolverInterface
libCbc.so.3:_ZNK8CbcModel11isAbandonedEv
libCbc.so.3:_ZNK8CbcModel15isProvenOptimalEv
libCbc.so.3:_ZNK8CbcModel21isContinuousUnboundedEv
libCbc.so.3:_ZNK8CbcModel23isInitialSolveAbandonedEv
libCbc.so.3:_ZNK8CbcModel27isInitialSolveProvenOptimalEv
libCbc.so.3:_ZNK8CbcModel34isInitialSolveProvenDualInfeasibleEv
libCbc.so.3:_ZNK8CbcModel36isInitialSolveProvenPrimalInfeasibleEv
libCgl.so.1:_ZN10CglOddHole17setMaximumEntriesEi
libCgl.so.1:_ZN10CglOddHole19setMinimumViolationEd
libCgl.so.1:_ZN10CglOddHole22setMinimumViolationPerEd
libCgl.so.1:_ZN10CglOddHoleC1Ev
libCgl.so.1:_ZN10CglOddHoleD1Ev
libCgl.so.1:_ZN10CglProbing10setMaxLookEi
libCgl.so.1:_ZN10CglProbing10setMaxPassEi
libCgl.so.1:_ZN10CglProbing10setRowCutsEi
libCgl.so.1:_ZN10CglProbing11setMaxProbeEi
libCgl.so.1:_ZN10CglProbing17setUsingObjectiveEi
libCgl.so.1:_ZN10CglProbingC1Ev
libCgl.so.1:_ZN10CglProbingD1Ev
libCgl.so.1:_ZN12CglFlowCoverC1Ev
libCgl.so.1:_ZN12CglFlowCoverD1Ev
libCgl.so.1:_ZN15CglCutGeneratorD2Ev
libCgl.so.1:_ZN16CglKnapsackCoverC1Ev
libCgl.so.1:_ZN16CglKnapsackCoverD1Ev
libCgl.so.1:_ZN23CglMixedIntegerRoundingC1Ev
libCgl.so.1:_ZN23CglMixedIntegerRoundingD1Ev
libCgl.so.1:_ZN9CglCliqueC1Ebb
libCgl.so.1:_ZN9CglGomory8setLimitEi
libCgl.so.1:_ZN9CglGomoryC1Ev
libCgl.so.1:_ZN9CglGomoryD1Ev
libClp.so.1:_ZN10ClpSimplex11setRowLowerEid
libClp.so.1:_ZN10ClpSimplex11setRowUpperEid
libClp.so.1:_ZN10ClpSimplex14setColumnLowerEid
libClp.so.1:_ZN10ClpSimplex14setColumnUpperEid
libClp.so.1:_ZN10ClpSimplex23setObjectiveCoefficientEid
libClp.so.1:_ZN10ClpSimplex4dualEii
libClp.so.1:_ZN10ClpSimplex6primalEii
libClp.so.1:_ZN10ClpSimplex7barrierEb
libClp.so.1:_ZN10ClpSimplexC1ERKS_i
libClp.so.1:_ZN10ClpSimplexC1Eb
libClp.so.1:_ZN10ClpSimplexD1Ev
libClp.so.1:_ZN8ClpModel10deleteRowsEiPKi
libClp.so.1:_ZN8ClpModel10setRowNameEiRNSt7__cxx1112basic_stringIcSt11char_traitsIcESaIcEEE
libClp.so.1:_ZN8ClpModel13deleteColumnsEiPKi
libClp.so.1:_ZN8ClpModel13setColumnNameEiRNSt7__cxx1112basic_stringIcSt11char_traitsIcESaIcEEE
libClp.so.1:_ZN8ClpModel24setOptimizationDirectionEd
libClp.so.1:_ZN8ClpModel6addRowEiPKiPKddd
libClp.so.1:_ZN8ClpModel9addColumnEiPKiPKdddd
libClp.so.1:_ZNK10ClpSimplex16infeasibilityRayEb
libClp.so.1:_ZNK8ClpModel10getRowNameB5cxx11Ei
libClp.so.1:_ZNK8ClpModel12unboundedRayEv
libClp.so.1:_ZNK8ClpModel13getColumnNameB5cxx11Ei
libCoinUtils.so.3:_ZN13CoinBaseModel14setProblemNameEPKc
libCoinUtils.so.3:_ZN18CoinMessageHandler11setLogLevelEi
libCoinUtils.so.3:_ZN9CoinModel10setElementEiid
libCoinUtils.so.3:_ZN9CoinModel10setRowNameEiPKc
libCoinUtils.so.3:_ZN9CoinModel11setRowLowerEid
libCoinUtils.so.3:_ZN9CoinModel11setRowUpperEid
libCoinUtils.so.3:_ZN9CoinModel12deleteColumnEi
libCoinUtils.so.3:_ZN9CoinModel13setColumnNameEiPKc
libCoinUtils.so.3:_ZN9CoinModel14setColumnLowerEid
libCoinUtils.so.3:_ZN9CoinModel14setColumnUpperEid
libCoinUtils.so.3:_ZN9CoinModel18setColumnIsIntegerEib
libCoinUtils.so.3:_ZN9CoinModel18setColumnObjectiveEid
libCoinUtils.so.3:_ZN9CoinModel6addRowEiPKiPKdddPKc
libCoinUtils.so.3:_ZN9CoinModel6getRowEiPiPd
libCoinUtils.so.3:_ZN9CoinModel9addColumnEiPKiPKddddPKcb
libCoinUtils.so.3:_ZN9CoinModel9deleteRowEi
libCoinUtils.so.3:_ZN9CoinModel9getColumnEiPiPd
libCoinUtils.so.3:_ZN9CoinModelC1ERKS_
libCoinUtils.so.3:_ZN9CoinModelC1Ev
libCoinUtils.so.3:_ZNK9CoinModel10getElementEii
libCoinUtils.so.3:_ZNK9CoinModel10getRowNameEi
libCoinUtils.so.3:_ZNK9CoinModel11getRowLowerEi
libCoinUtils.so.3:_ZNK9CoinModel11getRowUpperEi
libCoinUtils.so.3:_ZNK9CoinModel13getColumnNameEi
libCoinUtils.so.3:_ZNK9CoinModel14getColumnLowerEi
libCoinUtils.so.3:_ZNK9CoinModel14getColumnUpperEi
libCoinUtils.so.3:_ZNK9CoinModel18getColumnIsIntegerEi
libCoinUtils.so.3:_ZNK9CoinModel18getColumnObjectiveEi
libCoinUtils.so.3:_ZNK9CoinModel3rowEPKc
libCoinUtils.so.3:_ZNK9CoinModel6columnEPKc
libOsiClp.so.1:_ZN21OsiClpSolverInterface19setupForRepeatedUseEii
libOsiClp.so.1:_ZN21OsiClpSolverInterfaceC1Ev
libc.so.6:__cxa_atexit
libc.so.6:__libc_start_main
libc.so.6:__stack_chk_fail
libc.so.6:ctime_r
libc.so.6:exit
libc.so.6:getpid
libc.so.6:gettimeofday
libc.so.6:memcmp
libc.so.6:memcpy
libc.so.6:memmove
libc.so.6:memset
libc.so.6:pthread_mutex_destroy
libc.so.6:pthread_mutex_init
libc.so.6:pthread_mutex_lock
libc.so.6:pthread_mutex_unlock
libc.so.6:strlen
libc.so.6:sysconf
libc.so.6:time
libc.so.6:times
libgcc_s.so.1:_Unwind_Resume
libglpk.so.40:glp_add_cols
libglpk.so.40:glp_add_rows
libglpk.so.40:glp_adv_basis
libglpk.so.40:glp_btran
libglpk.so.40:glp_copy_prob
libglpk.so.40:glp_create_index
libglpk.so.40:glp_create_prob
libglpk.so.40:glp_del_cols
libglpk.so.40:glp_del_rows
libglpk.so.40:glp_delete_prob
libglpk.so.40:glp_erase_prob
libglpk.so.40:glp_eval_tab_col
libglpk.so.40:glp_find_col
libglpk.so.40:glp_find_row
libglpk.so.40:glp_free_env
libglpk.so.40:glp_get_bhead
libglpk.so.40:glp_get_col_bind
libglpk.so.40:glp_get_col_dual
libglpk.so.40:glp_get_col_kind
libglpk.so.40:glp_get_col_lb
libglpk.so.40:glp_get_col_name
libglpk.so.40:glp_get_col_prim
libglpk.so.40:glp_get_col_stat
libglpk.so.40:glp_get_col_type
libglpk.so.40:glp_get_col_ub
libglpk.so.40:glp_get_dual_stat
libglpk.so.40:glp_get_mat_col
libglpk.so.40:glp_get_mat_row
libglpk.so.40:glp_get_num_cols
libglpk.so.40:glp_get_num_rows
libglpk.so.40:glp_get_obj_coef
libglpk.so.40:glp_get_obj_dir
libglpk.so.40:glp_get_obj_val
libglpk.so.40:glp_get_prim_stat
libglpk.so.40:glp_get_rii
libglpk.so.40:glp_get_row_bind
libglpk.so.40:glp_get_row_dual
libglpk.so.40:glp_get_row_lb
libglpk.so.40:glp_get_row_name
libglpk.so.40:glp_get_row_prim
libglpk.so.40:glp_get_row_stat
libglpk.so.40:glp_get_row_type
libglpk.so.40:glp_get_row_ub
libglpk.so.40:glp_get_sjj
libglpk.so.40:glp_get_status
libglpk.so.40:glp_get_unbnd_ray
libglpk.so.40:glp_init_iocp
libglpk.so.40:glp_init_smcp
libglpk.so.40:glp_intopt
libglpk.so.40:glp_mip_col_val
libglpk.so.40:glp_mip_obj_val
libglpk.so.40:glp_mip_status
libglpk.so.40:glp_set_col_bnds
libglpk.so.40:glp_set_col_kind
libglpk.so.40:glp_set_col_name
libglpk.so.40:glp_set_mat_col
libglpk.so.40:glp_set_mat_row
libglpk.so.40:glp_set_obj_coef
libglpk.so.40:glp_set_obj_dir
libglpk.so.40:glp_set_row_bnds
libglpk.so.40:glp_set_row_name
libglpk.so.40:glp_simplex
libglpk.so.40:glp_term_out
libglpk.so.40:glp_write_lp
libglpk.so.40:glp_write_mps
libm.so.6:log
libm.so.6:sqrt
libstdc++.so.6:_ZNKSt5ctypeIcE13_M_widen_initEv
libstdc++.so.6:_ZNKSt7__cxx1115basic_stringbufIcSt11char_traitsIcESaIcEE3strEv
libstdc++.so.6:_ZNSdD2Ev
libstdc++.so.6:_ZNSi10_M_extractIdEERSiRT_
libstdc++.so.6:_ZNSi10_M_extractIeEERSiRT_
libstdc++.so.6:_ZNSi10_M_extractIxEERSiRT_
libstdc++.so.6:_ZNSi3getERc
libstdc++.so.6:_ZNSirsERi
libstdc++.so.6:_ZNSo3putEc
libstdc++.so.6:_ZNSo5flushEv
libstdc++.so.6:_ZNSo9_M_insertIbEERSoT_
libstdc++.so.6:_ZNSo9_M_insertIdEERSoT_
libstdc++.so.6:_ZNSo9_M_insertIeEERSoT_
libstdc++.so.6:_ZNSo9_M_insertIxEERSoT_
libstdc++.so.6:_ZNSolsEi
libstdc++.so.6:_ZNSt13basic_filebufIcSt11char_traitsIcEE4openEPKcSt13_Ios_Openmode
libstdc++.so.6:_ZNSt13basic_filebufIcSt11char_traitsIcEEC1Ev
libstdc++.so.6:_ZNSt13basic_filebufIcSt11char_traitsIcEED1Ev
libstdc++.so.6:_ZNSt14basic_ifstreamIcSt11char_traitsIcEE4openEPKcSt13_Ios_Openmode
libstdc++.so.6:_ZNSt14basic_ifstreamIcSt11char_traitsIcEEC1Ev
libstdc++.so.6:_ZNSt14basic_ifstreamIcSt11char_traitsIcEED1Ev
libstdc++.so.6:_ZNSt14basic_ofstreamIcSt11char_traitsIcEE4openEPKcSt13_Ios_Openmode
libstdc++.so.6:_ZNSt14basic_ofstreamIcSt11char_traitsIcEEC1EPKcSt13_Ios_Openmode
libstdc++.so.6:_ZNSt14basic_ofstreamIcSt11char_traitsIcEEC1Ev
libstdc++.so.6:_ZNSt14basic_ofstreamIcSt11char_traitsIcEED1Ev
libstdc++.so.6:_ZNSt6localeC1Ev
libstdc++.so.6:_ZNSt6localeD1Ev
libstdc++.so.6:_ZNSt7__cxx1112basic_stringIcSt11char_traitsIcESaIcEE10_M_disposeEv
libstdc++.so.6:_ZNSt7__cxx1112basic_stringIcSt11char_traitsIcESaIcEE10_M_replaceEmmPKcm
libstdc++.so.6:_ZNSt7__cxx1112basic_stringIcSt11char_traitsIcESaIcEE7reserveEm
libstdc++.so.6:_ZNSt7__cxx1112basic_stringIcSt11char_traitsIcESaIcEE9_M_appendEPKcm
libstdc++.so.6:_ZNSt7__cxx1112basic_stringIcSt11char_traitsIcESaIcEE9_M_assignERKS4_
libstdc++.so.6:_ZNSt7__cxx1112basic_stringIcSt11char_traitsIcESaIcEE9_M_createERmm
libstdc++.so.6:_ZNSt7__cxx1112basic_stringIcSt11char_traitsIcESaIcEEC1EOS4_
libstdc++.so.6:_ZNSt7__cxx1115basic_stringbufIcSt11char_traitsIcESaIcEE7_M_syncEPcmm
libstdc++.so.6:_ZNSt7__cxx1118basic_stringstreamIcSt11char_traitsIcESaIcEED1Ev
libstdc++.so.6:_ZNSt7__cxx1119basic_istringstreamIcSt11char_traitsIcESaIcEED1Ev
libstdc++.so.6:_ZNSt7__cxx1119basic_ostringstreamIcSt11char_traitsIcESaIcEEC1Ev
libstdc++.so.6:_ZNSt7__cxx1119basic_ostringstreamIcSt11char_traitsIcESaIcEED1Ev
libstdc++.so.6:_ZNSt8__detail15_List_node_base7_M_hookEPS0_
libstdc++.so.6:_ZNSt8__detail15_List_node_base9_M_unhookEv
libstdc++.so.6:_ZNSt8ios_baseC2Ev
libstdc++.so.6:_ZNSt8ios_baseD2Ev
libstdc++.so.6:_ZNSt9basic_iosIcSt11char_traitsIcEE4initEPSt15basic_streambufIcS1_E
libstdc++.so.6:_ZNSt9basic_iosIcSt11char_traitsIcEE5clearESt12_Ios_Iostate
libstdc++.so.6:_ZNSt9exceptionD2Ev
libstdc++.so.6:_ZSt16__ostream_insertIcSt11char_traitsIcEERSt13basic_ostreamIT_T0_ES6_PKS3_l
libstdc++.so.6:_ZSt16__throw_bad_castv
libstdc++.so.6:_ZSt18_Rb_tree_decrementPSt18_Rb_tree_node_base
libstdc++.so.6:_ZSt18_Rb_tree_incrementPSt18_Rb_tree_node_base
libstdc++.so.6:_ZSt19__throw_logic_errorPKc
libstdc++.so.6:_ZSt20__throw_length_errorPKc
libstdc++.so.6:_ZSt21ios_base_library_initv
libstdc++.so.6:_ZSt24__throw_out_of_range_fmtPKcz
libstdc++.so.6:_ZSt28_Rb_tree_rebalance_for_erasePSt18_Rb_tree_node_baseRS_
libstdc++.so.6:_ZSt28__throw_bad_array_new_lengthv
libstdc++.so.6:_ZSt29_Rb_tree_insert_and_rebalancebPSt18_Rb_tree_node_baseS0_RS_
libstdc++.so.6:_ZSt3cin
libstdc++.so.6:_ZSt4cerr
libstdc++.so.6:_ZSt4cout
libstdc++.so.6:_ZSt7getlineIcSt11char_traitsIcESaIcEERSt13basic_istreamIT_T0_ES7_RNSt7__cxx1112basic_stringIS4_S5_T1_EES4_
libstdc++.so.6:_ZStlsISt11char_traitsIcEERSt13basic_ostreamIcT_ES5_PKc
libstdc++.so.6:_ZStlsISt11char_traitsIcEERSt13basic_ostreamIcT_ES5_c
libstdc++.so.6:_ZStrsIcSt11char_traitsIcEERSt13basic_istreamIT_T0_ES6_RS3_
libstdc++.so.6:_ZStrsIcSt11char_traitsIcESaIcEERSt13basic_istreamIT_T0_ES7_RNSt7__cxx1112basic_stringIS4_S5_T1_EE
libstdc++.so.6:_ZTISt9exception
libstdc++.so.6:_ZTTNSt7__cxx1118basic_stringstreamIcSt11char_traitsIcESaIcEEE
libstdc++.so.6:_ZTTNSt7__cxx1119basic_istringstreamIcSt11char_traitsIcESaIcEEE
libstdc++.so.6:_ZTTNSt7__cxx1119basic_ostringstreamIcSt11char_traitsIcESaIcEEE
libstdc++.so.6:_ZTTSt14basic_ofstreamIcSt11char_traitsIcEE
libstdc++.so.6:_ZTVN10__cxxabiv117__class_type_infoE
libstdc++.so.6:_ZTVN10__cxxabiv120__si_class_type_infoE
libstdc++.so.6:_ZTVN10__cxxabiv121__vmi_class_type_infoE
libstdc++.so.6:_ZTVNSt7__cxx1115basic_stringbufIcSt11char_traitsIcESaIcEEE
libstdc++.so.6:_ZTVNSt7__cxx1118basic_stringstreamIcSt11char_traitsIcESaIcEEE
libstdc++.so.6:_ZTVNSt7__cxx1119basic_istringstreamIcSt11char_traitsIcESaIcEEE
libstdc++.so.6:_ZTVNSt7__cxx1119basic_ostringstreamIcSt11char_traitsIcESaIcEEE
libstdc++.so.6:_ZTVSt14basic_ofstreamIcSt11char_traitsIcEE
libstdc++.so.6:_ZTVSt15basic_streambufIcSt11char_traitsIcEE
libstdc++.so.6:_ZTVSt9basic_iosIcSt11char_traitsIcEE
libstdc++.so.6:_ZdaPv
libstdc++.so.6:_ZdlPvm
libstdc++.so.6:_Znwm
libstdc++.so.6:__cxa_allocate_exception
libstdc++.so.6:__cxa_begin_catch
libstdc++.so.6:__cxa_call_terminate
libstdc++.so.6:__cxa_end_catch
libstdc++.so.6:__cxa_free_exception
libstdc++.so.6:__cxa_rethrow
libstdc++.so.6:__cxa_throw
libstdc++.so.6:__dynamic_cast
libstdc++.so.6:__gxx_personality_v0
