libKF5JsEmbed.so.5:_ZN3KJS7UStringC1ERK7QString
libKF5JsEmbed.so.5:_ZN3KJS7UStringC2ERK7QString
libKF5JsEmbed.so.5:_ZN8KJSEmbed10extractIntEPN3KJS9ExecStateEPNS0_7JSValueEi
libKF5JsEmbed.so.5:_ZN8KJSEmbed10extractIntEPN3KJS9ExecStateERKNS0_4ListEii
libKF5JsEmbed.so.5:_ZN8KJSEmbed11ActionGroup10bindMethodEPN3KJS9ExecStateERNS_11PointerBaseE
libKF5JsEmbed.so.5:_ZN8KJSEmbed11ActionGroup10ctorMethodEPN3KJS9ExecStateERKNS1_4ListE
libKF5JsEmbed.so.5:_ZN8KJSEmbed11ActionGroupC1EPN3KJS9ExecStateEP12QActionGroup
libKF5JsEmbed.so.5:_ZN8KJSEmbed11ActionGroupC2EPN3KJS9ExecStateEP12QActionGroup
libKF5JsEmbed.so.5:_ZN8KJSEmbed11SlotBinding14callAsFunctionEPN3KJS9ExecStateEPNS1_8JSObjectERKNS1_4ListE
libKF5JsEmbed.so.5:_ZN8KJSEmbed11SlotBindingC1EPN3KJS9ExecStateERK11QMetaMethod
libKF5JsEmbed.so.5:_ZN8KJSEmbed11SlotBindingC2EPN3KJS9ExecStateERK11QMetaMethod
libKF5JsEmbed.so.5:_ZN8KJSEmbed11SvgRenderer10bindMethodEPN3KJS9ExecStateERNS_11PointerBaseE
libKF5JsEmbed.so.5:_ZN8KJSEmbed11SvgRenderer10ctorMethodEPN3KJS9ExecStateERKNS1_4ListE
libKF5JsEmbed.so.5:_ZN8KJSEmbed11SvgRendererC1EPN3KJS9ExecStateEP12QSvgRenderer
libKF5JsEmbed.so.5:_ZN8KJSEmbed11SvgRendererC2EPN3KJS9ExecStateEP12QSvgRenderer
libKF5JsEmbed.so.5:_ZN8KJSEmbed11extractBoolEPN3KJS9ExecStateERKNS0_4ListEib
libKF5JsEmbed.so.5:_ZN8KJSEmbed12ProxyBindingC1EPN3KJS9ExecStateE
libKF5JsEmbed.so.5:_ZN8KJSEmbed12ProxyBindingC2EPN3KJS9ExecStateE
libKF5JsEmbed.so.5:_ZN8KJSEmbed12extractFloatEPN3KJS9ExecStateEPNS0_7JSValueEf
libKF5JsEmbed.so.5:_ZN8KJSEmbed12extractFloatEPN3KJS9ExecStateERKNS0_4ListEif
libKF5JsEmbed.so.5:_ZN8KJSEmbed12extractQDateEPN3KJS9ExecStateEPNS0_7JSValueERK5QDate
libKF5JsEmbed.so.5:_ZN8KJSEmbed12extractQDateEPN3KJS9ExecStateERKNS0_4ListEiRK5QDate
libKF5JsEmbed.so.5:_ZN8KJSEmbed12extractQTimeEPN3KJS9ExecStateEPNS0_7JSValueERK5QTime
libKF5JsEmbed.so.5:_ZN8KJSEmbed12extractQTimeEPN3KJS9ExecStateERKNS0_4ListEiRK5QTime
libKF5JsEmbed.so.5:_ZN8KJSEmbed13ObjectBinding12setOwnershipENS0_9OwnershipE
libKF5JsEmbed.so.5:_ZN8KJSEmbed13ObjectBindingD0Ev
libKF5JsEmbed.so.5:_ZN8KJSEmbed13ObjectBindingD1Ev
libKF5JsEmbed.so.5:_ZN8KJSEmbed13ObjectBindingD2Ev
libKF5JsEmbed.so.5:_ZN8KJSEmbed13StaticBinding14callAsFunctionEPN3KJS9ExecStateEPNS1_8JSObjectERKNS1_4ListE
libKF5JsEmbed.so.5:_ZN8KJSEmbed13StaticBinding7publishEPN3KJS9ExecStateEPNS1_8JSObjectEPKNS_6MethodE
libKF5JsEmbed.so.5:_ZN8KJSEmbed13StaticBindingC1EPN3KJS9ExecStateEPKNS_6MethodE
libKF5JsEmbed.so.5:_ZN8KJSEmbed13StaticBindingC2EPN3KJS9ExecStateEPKNS_6MethodE
libKF5JsEmbed.so.5:_ZN8KJSEmbed13createQObjectEPN3KJS9ExecStateEP7QObjectNS_13ObjectBinding9OwnershipE
libKF5JsEmbed.so.5:_ZN8KJSEmbed13extractDoubleEPN3KJS9ExecStateEPNS0_7JSValueEd
libKF5JsEmbed.so.5:_ZN8KJSEmbed13extractDoubleEPN3KJS9ExecStateERKNS0_4ListEid
libKF5JsEmbed.so.5:_ZN8KJSEmbed14QObjectBinding11watchObjectEP7QObject
libKF5JsEmbed.so.5:_ZN8KJSEmbed14QObjectBinding14propertyGetterEPN3KJS9ExecStateEPNS1_8JSObjectERKNS1_10IdentifierERKNS1_12PropertySlotE
libKF5JsEmbed.so.5:_ZN8KJSEmbed14QObjectBinding14publishQObjectEPN3KJS9ExecStateEPNS1_8JSObjectEP7QObject
libKF5JsEmbed.so.5:_ZN8KJSEmbed14QObjectBinding18getOwnPropertySlotEPN3KJS9ExecStateERKNS1_10IdentifierERNS1_12PropertySlotE
libKF5JsEmbed.so.5:_ZN8KJSEmbed14QObjectBinding3putEPN3KJS9ExecStateERKNS1_10IdentifierEPNS1_7JSValueEi
libKF5JsEmbed.so.5:_ZN8KJSEmbed14QObjectBinding9setAccessE6QFlagsINS0_6AccessEE
libKF5JsEmbed.so.5:_ZN8KJSEmbed14QObjectBindingC1EPN3KJS9ExecStateEP7QObject
libKF5JsEmbed.so.5:_ZN8KJSEmbed14QObjectBindingC2EPN3KJS9ExecStateEP7QObject
libKF5JsEmbed.so.5:_ZN8KJSEmbed14QObjectBindingD0Ev
libKF5JsEmbed.so.5:_ZN8KJSEmbed14QObjectBindingD1Ev
libKF5JsEmbed.so.5:_ZN8KJSEmbed14QObjectBindingD2Ev
libKF5JsEmbed.so.5:_ZN8KJSEmbed14QWidgetBinding10bindMethodEPN3KJS9ExecStateERNS_11PointerBaseE
libKF5JsEmbed.so.5:_ZN8KJSEmbed14QWidgetBinding10ctorMethodEPN3KJS9ExecStateERKNS1_4ListE
libKF5JsEmbed.so.5:_ZN8KJSEmbed14QWidgetBindingC1EPN3KJS9ExecStateEP7QWidget
libKF5JsEmbed.so.5:_ZN8KJSEmbed14QWidgetBindingC2EPN3KJS9ExecStateEP7QWidget
libKF5JsEmbed.so.5:_ZN8KJSEmbed14VariantBinding7pointerEv
libKF5JsEmbed.so.5:_ZN8KJSEmbed14VariantBinding8setValueERK8QVariant
libKF5JsEmbed.so.5:_ZN8KJSEmbed14VariantBindingC1EPN3KJS9ExecStateERK8QVariant
libKF5JsEmbed.so.5:_ZN8KJSEmbed14VariantBindingC2EPN3KJS9ExecStateERK8QVariant
libKF5JsEmbed.so.5:_ZN8KJSEmbed14convertToValueEPN3KJS9ExecStateERK8QVariant
libKF5JsEmbed.so.5:_ZN8KJSEmbed14extractQStringEPN3KJS9ExecStateEPNS0_7JSValueE7QString
libKF5JsEmbed.so.5:_ZN8KJSEmbed14extractQStringEPN3KJS9ExecStateERKNS0_4ListEi7QString
libKF5JsEmbed.so.5:_ZN8KJSEmbed14extractVariantEPN3KJS9ExecStateEPNS0_7JSValueE
libKF5JsEmbed.so.5:_ZN8KJSEmbed15SettingsBinding10bindMethodEPN3KJS9ExecStateERNS_11PointerBaseE
libKF5JsEmbed.so.5:_ZN8KJSEmbed15SettingsBinding10ctorMethodEPN3KJS9ExecStateERKNS1_4ListE
libKF5JsEmbed.so.5:_ZN8KJSEmbed15SettingsBindingC1EPN3KJS9ExecStateEP9QSettings
libKF5JsEmbed.so.5:_ZN8KJSEmbed15SettingsBindingC2EPN3KJS9ExecStateEP9QSettings
libKF5JsEmbed.so.5:_ZN8KJSEmbed15UiLoaderBinding10bindMethodEPN3KJS9ExecStateERNS_11PointerBaseE
libKF5JsEmbed.so.5:_ZN8KJSEmbed15UiLoaderBinding10ctorMethodEPN3KJS9ExecStateERKNS1_4ListE
libKF5JsEmbed.so.5:_ZN8KJSEmbed15UiLoaderBindingC1EPN3KJS9ExecStateEP9QUiLoader
libKF5JsEmbed.so.5:_ZN8KJSEmbed15UiLoaderBindingC2EPN3KJS9ExecStateEP9QUiLoader
libKF5JsEmbed.so.5:_ZN8KJSEmbed16convertToVariantEPN3KJS9ExecStateEPNS0_7JSValueE
libKF5JsEmbed.so.5:_ZN8KJSEmbed16extractQDateTimeEPN3KJS9ExecStateEPNS0_7JSValueERK9QDateTime
libKF5JsEmbed.so.5:_ZN8KJSEmbed16extractQDateTimeEPN3KJS9ExecStateERKNS0_4ListEiRK9QDateTime
libKF5JsEmbed.so.5:_ZN8KJSEmbed17StaticConstructor11constructorERKN3KJS7UStringE
libKF5JsEmbed.so.5:_ZN8KJSEmbed17StaticConstructor15setDefaultValueEPN3KJS7JSValueE
libKF5JsEmbed.so.5:_ZN8KJSEmbed17StaticConstructor3addEPN3KJS9ExecStateEPNS1_8JSObjectEPKNS_11ConstructorE
libKF5JsEmbed.so.5:_ZN8KJSEmbed17StaticConstructor4bindEPN3KJS9ExecStateERK7QStringRNS_11PointerBaseE
libKF5JsEmbed.so.5:_ZN8KJSEmbed17StaticConstructor7methodsERKN3KJS7UStringE
libKF5JsEmbed.so.5:_ZN8KJSEmbed17StaticConstructor9constructEPN3KJS9ExecStateEPNS1_8JSObjectERKNS1_7UStringERKNS1_4ListE
libKF5JsEmbed.so.5:_ZN8KJSEmbed17StaticConstructor9constructEPN3KJS9ExecStateERKNS1_4ListE
libKF5JsEmbed.so.5:_ZN8KJSEmbed17StaticConstructorC1EPN3KJS9ExecStateEPKNS_11ConstructorE
libKF5JsEmbed.so.5:_ZN8KJSEmbed17StaticConstructorC2EPN3KJS9ExecStateEPKNS_11ConstructorE
libKF5JsEmbed.so.5:_ZN8KJSEmbed17convertArrayToMapEPN3KJS9ExecStateEPNS0_7JSValueE
libKF5JsEmbed.so.5:_ZN8KJSEmbed17extractQByteArrayEPN3KJS9ExecStateEPNS0_7JSValueERK10QByteArray
libKF5JsEmbed.so.5:_ZN8KJSEmbed17extractQByteArrayEPN3KJS9ExecStateERKNS0_4ListEiRK10QByteArray
libKF5JsEmbed.so.5:_ZN8KJSEmbed18ApplicationBinding10bindMethodEPN3KJS9ExecStateERNS_11PointerBaseE
libKF5JsEmbed.so.5:_ZN8KJSEmbed18ApplicationBinding10ctorMethodEPN3KJS9ExecStateERKNS1_4ListE
libKF5JsEmbed.so.5:_ZN8KJSEmbed18ApplicationBindingC1EPN3KJS9ExecStateEP12QApplication
libKF5JsEmbed.so.5:_ZN8KJSEmbed18ApplicationBindingC2EPN3KJS9ExecStateEP12QApplication
libKF5JsEmbed.so.5:_ZN8KJSEmbed18convertArrayToListEPN3KJS9ExecStateEPNS0_7JSValueE
libKF5JsEmbed.so.5:_ZN8KJSEmbed18extractQStringListEPN3KJS9ExecStateEPNS0_7JSValueERK11QStringList
libKF5JsEmbed.so.5:_ZN8KJSEmbed18extractQStringListEPN3KJS9ExecStateERKNS0_4ListEiRK11QStringList
libKF5JsEmbed.so.5:_ZN8KJSEmbed22CoreApplicationBinding10bindMethodEPN3KJS9ExecStateERNS_11PointerBaseE
libKF5JsEmbed.so.5:_ZN8KJSEmbed22CoreApplicationBinding10ctorMethodEPN3KJS9ExecStateERKNS1_4ListE
libKF5JsEmbed.so.5:_ZN8KJSEmbed22CoreApplicationBindingC1EPN3KJS9ExecStateEP16QCoreApplication
libKF5JsEmbed.so.5:_ZN8KJSEmbed22CoreApplicationBindingC2EPN3KJS9ExecStateEP16QCoreApplication
libKF5JsEmbed.so.5:_ZN8KJSEmbed24convertArrayToStringListEPN3KJS9ExecStateEPNS0_7JSValueE
libKF5JsEmbed.so.5:_ZN8KJSEmbed5coninEv
libKF5JsEmbed.so.5:_ZN8KJSEmbed6Action10bindMethodEPN3KJS9ExecStateERNS_11PointerBaseE
libKF5JsEmbed.so.5:_ZN8KJSEmbed6Action10ctorMethodEPN3KJS9ExecStateERKNS1_4ListE
libKF5JsEmbed.so.5:_ZN8KJSEmbed6ActionC1EPN3KJS9ExecStateEP7QAction
libKF5JsEmbed.so.5:_ZN8KJSEmbed6ActionC2EPN3KJS9ExecStateEP7QAction
libKF5JsEmbed.so.5:_ZN8KJSEmbed6Engine10callMethodEPN3KJS8JSObjectERKNS1_7UStringERKNS1_4ListE
libKF5JsEmbed.so.5:_ZN8KJSEmbed6Engine10callMethodERKN3KJS7UStringERKNS1_4ListE
libKF5JsEmbed.so.5:_ZN8KJSEmbed6Engine7executeERKN3KJS7UStringE
libKF5JsEmbed.so.5:_ZN8KJSEmbed6Engine7runFileEPN3KJS11InterpreterERKNS1_7UStringE
libKF5JsEmbed.so.5:_ZN8KJSEmbed6Engine7runFileERKN3KJS7UStringE
libKF5JsEmbed.so.5:_ZN8KJSEmbed6EngineC1Eb
libKF5JsEmbed.so.5:_ZN8KJSEmbed6EngineC2Eb
libKF5JsEmbed.so.5:_ZN8KJSEmbed6EngineD0Ev
libKF5JsEmbed.so.5:_ZN8KJSEmbed6EngineD1Ev
libKF5JsEmbed.so.5:_ZN8KJSEmbed6EngineD2Ev
libKF5JsEmbed.so.5:_ZN8KJSEmbed6Layout10bindMethodEPN3KJS9ExecStateERNS_11PointerBaseE
libKF5JsEmbed.so.5:_ZN8KJSEmbed6Layout10ctorMethodEPN3KJS9ExecStateERKNS1_4ListE
libKF5JsEmbed.so.5:_ZN8KJSEmbed6LayoutC1EPN3KJS9ExecStateEP7QLayout
libKF5JsEmbed.so.5:_ZN8KJSEmbed6LayoutC2EPN3KJS9ExecStateEP7QLayout
libKF5JsEmbed.so.5:_ZN8KJSEmbed6conerrEv
libKF5JsEmbed.so.5:_ZN8KJSEmbed6conoutEv
libKF5JsEmbed.so.5:_ZN8KJSEmbed9SlotProxy10callMethodERK10QByteArrayPPv
libKF5JsEmbed.so.5:_ZN8KJSEmbed9SlotProxy11qt_metacallEN11QMetaObject4CallEiPPv
libKF5JsEmbed.so.5:_ZN8KJSEmbed9SlotProxy11qt_metacastEPKc
libKF5JsEmbed.so.5:_ZN8KJSEmbed9SlotProxy16convertArgumentsEPN3KJS9ExecStateEPPv
libKF5JsEmbed.so.5:_ZN8KJSEmbed9SlotProxyC1EPN3KJS8JSObjectEPNS1_11InterpreterEP7QObjectRK10QByteArray
libKF5JsEmbed.so.5:_ZN8KJSEmbed9SlotProxyC2EPN3KJS8JSObjectEPNS1_11InterpreterEP7QObjectRK10QByteArray
libKF5JsEmbed.so.5:_ZN8KJSEmbed9SlotProxyD0Ev
libKF5JsEmbed.so.5:_ZN8KJSEmbed9SlotProxyD1Ev
libKF5JsEmbed.so.5:_ZN8KJSEmbed9SlotProxyD2Ev
libKF5JsEmbed.so.5:_ZN8KJSEmbed9SvgWidget10bindMethodEPN3KJS9ExecStateERNS_11PointerBaseE
libKF5JsEmbed.so.5:_ZN8KJSEmbed9SvgWidget10ctorMethodEPN3KJS9ExecStateERKNS1_4ListE
libKF5JsEmbed.so.5:_ZN8KJSEmbed9SvgWidgetC1EPN3KJS9ExecStateEP10QSvgWidget
libKF5JsEmbed.so.5:_ZN8KJSEmbed9SvgWidgetC2EPN3KJS9ExecStateEP10QSvgWidget
libKF5JsEmbed.so.5:_ZNK3KJS10Identifier7qstringEv
libKF5JsEmbed.so.5:_ZNK3KJS7UString7qstringEv
libKF5JsEmbed.so.5:_ZNK8KJSEmbed13ObjectBinding4typeEv
libKF5JsEmbed.so.5:_ZNK8KJSEmbed13ObjectBinding8toStringEPN3KJS9ExecStateE
libKF5JsEmbed.so.5:_ZNK8KJSEmbed13ObjectBinding8typeNameEv
libKF5JsEmbed.so.5:_ZNK8KJSEmbed13ObjectBinding9classNameEv
libKF5JsEmbed.so.5:_ZNK8KJSEmbed13ObjectBinding9ownershipEv
libKF5JsEmbed.so.5:_ZNK8KJSEmbed14QObjectBinding6accessEv
libKF5JsEmbed.so.5:_ZNK8KJSEmbed14QObjectBinding6canPutEPN3KJS9ExecStateERKNS1_10IdentifierE
libKF5JsEmbed.so.5:_ZNK8KJSEmbed14QObjectBinding8toStringEPN3KJS9ExecStateE
libKF5JsEmbed.so.5:_ZNK8KJSEmbed14QObjectBinding9classNameEv
libKF5JsEmbed.so.5:_ZNK8KJSEmbed14VariantBinding3argEPKc
libKF5JsEmbed.so.5:_ZNK8KJSEmbed14VariantBinding7variantEv
libKF5JsEmbed.so.5:_ZNK8KJSEmbed14VariantBinding8toStringEPN3KJS9ExecStateE
libKF5JsEmbed.so.5:_ZNK8KJSEmbed14VariantBinding9classNameEv
libKF5JsEmbed.so.5:_ZNK8KJSEmbed17StaticConstructor12defaultValueEPN3KJS9ExecStateENS1_6JSTypeE
libKF5JsEmbed.so.5:_ZNK8KJSEmbed6Engine10completionEv
libKF5JsEmbed.so.5:_ZNK8KJSEmbed6Engine11interpreterEv
libKF5JsEmbed.so.5:_ZNK8KJSEmbed6Engine17isBindingsEnabledEv
libKF5JsEmbed.so.5:_ZNK8KJSEmbed6Engine9addObjectEP7QObjectPN3KJS8JSObjectERKNS3_7UStringE
libKF5JsEmbed.so.5:_ZNK8KJSEmbed6Engine9addObjectEP7QObjectRKN3KJS7UStringE
libKF5JsEmbed.so.5:_ZNK8KJSEmbed6Engine9constructERKN3KJS7UStringERKNS1_4ListE
libKF5JsEmbed.so.5:_ZNK8KJSEmbed9SlotProxy10metaObjectEv
