js140:abort
js140:clearenv
js140:getenv
js140:putenv
js140:setenv
js140:unsetenv
libmozjs-140.so:BIG5_ENCODING
libmozjs-140.so:EUC_JP_ENCODING
libmozjs-140.so:EUC_KR_ENCODING
libmozjs-140.so:GB18030_ENCODING
libmozjs-140.so:GBK_ENCODING
libmozjs-140.so:IBM866_ENCODING
libmozjs-140.so:ICU4XAnyCalendarKind_bcp47
libmozjs-140.so:ICU4XAnyCalendarKind_destroy
libmozjs-140.so:ICU4XAnyCalendarKind_get_for_bcp47
libmozjs-140.so:ICU4XAnyCalendarKind_get_for_locale
libmozjs-140.so:ICU4XCalendar_create_for_locale
libmozjs-140.so:ICU4XCalendar_kind
libmozjs-140.so:ICU4XDataProvider_create_empty
libmozjs-140.so:ICU4XDataProvider_enable_locale_fallback
libmozjs-140.so:ICU4XDataProvider_fork_by_key
libmozjs-140.so:ICU4XDataProvider_fork_by_locale
libmozjs-140.so:ICU4XDateTime_calendar
libmozjs-140.so:ICU4XDateTime_create_from_codes_in_calendar
libmozjs-140.so:ICU4XDateTime_create_from_date_and_time
libmozjs-140.so:ICU4XDateTime_create_from_iso_in_calendar
libmozjs-140.so:ICU4XDateTime_date
libmozjs-140.so:ICU4XDateTime_day_of_month
libmozjs-140.so:ICU4XDateTime_day_of_week
libmozjs-140.so:ICU4XDateTime_day_of_year
libmozjs-140.so:ICU4XDateTime_days_in_month
libmozjs-140.so:ICU4XDateTime_days_in_year
libmozjs-140.so:ICU4XDateTime_destroy
libmozjs-140.so:ICU4XDateTime_era
libmozjs-140.so:ICU4XDateTime_hour
libmozjs-140.so:ICU4XDateTime_minute
libmozjs-140.so:ICU4XDateTime_month_code
libmozjs-140.so:ICU4XDateTime_months_in_year
libmozjs-140.so:ICU4XDateTime_nanosecond
libmozjs-140.so:ICU4XDateTime_ordinal_month
libmozjs-140.so:ICU4XDateTime_second
libmozjs-140.so:ICU4XDateTime_time
libmozjs-140.so:ICU4XDateTime_to_calendar
libmozjs-140.so:ICU4XDateTime_to_iso
libmozjs-140.so:ICU4XDateTime_week_of_month
libmozjs-140.so:ICU4XDateTime_week_of_year
libmozjs-140.so:ICU4XDateTime_year_in_era
libmozjs-140.so:ICU4XDate_calendar
libmozjs-140.so:ICU4XDate_to_calendar
libmozjs-140.so:ICU4XDate_week_of_month
libmozjs-140.so:ICU4XError_destroy
libmozjs-140.so:ICU4XGraphemeClusterBreakIteratorUtf8_destroy
libmozjs-140.so:ICU4XGraphemeClusterBreakIteratorUtf8_next
libmozjs-140.so:ICU4XGraphemeClusterSegmenter_segment_utf8
libmozjs-140.so:ICU4XIsoDateTime_crate_from_date_and_time
libmozjs-140.so:ICU4XIsoDateTime_create
libmozjs-140.so:ICU4XIsoDateTime_create_from_minutes_since_local_unix_epoch
libmozjs-140.so:ICU4XIsoDateTime_date
libmozjs-140.so:ICU4XIsoDateTime_day_of_month
libmozjs-140.so:ICU4XIsoDateTime_day_of_week
libmozjs-140.so:ICU4XIsoDateTime_day_of_year
libmozjs-140.so:ICU4XIsoDateTime_days_in_month
libmozjs-140.so:ICU4XIsoDateTime_days_in_year
libmozjs-140.so:ICU4XIsoDateTime_destroy
libmozjs-140.so:ICU4XIsoDateTime_hour
libmozjs-140.so:ICU4XIsoDateTime_is_in_leap_year
libmozjs-140.so:ICU4XIsoDateTime_local_unix_epoch
libmozjs-140.so:ICU4XIsoDateTime_minute
libmozjs-140.so:ICU4XIsoDateTime_minutes_since_local_unix_epoch
libmozjs-140.so:ICU4XIsoDateTime_month
libmozjs-140.so:ICU4XIsoDateTime_months_in_year
libmozjs-140.so:ICU4XIsoDateTime_nanosecond
libmozjs-140.so:ICU4XIsoDateTime_second
libmozjs-140.so:ICU4XIsoDateTime_time
libmozjs-140.so:ICU4XIsoDateTime_to_any
libmozjs-140.so:ICU4XIsoDateTime_to_calendar
libmozjs-140.so:ICU4XIsoDateTime_week_of_month
libmozjs-140.so:ICU4XIsoDateTime_week_of_year
libmozjs-140.so:ICU4XIsoDateTime_year
libmozjs-140.so:ICU4XIsoDate_create
libmozjs-140.so:ICU4XIsoDate_create_for_unix_epoch
libmozjs-140.so:ICU4XIsoDate_day_of_week
libmozjs-140.so:ICU4XIsoDate_day_of_year
libmozjs-140.so:ICU4XIsoDate_days_in_month
libmozjs-140.so:ICU4XIsoDate_days_in_year
libmozjs-140.so:ICU4XIsoDate_is_in_leap_year
libmozjs-140.so:ICU4XIsoDate_months_in_year
libmozjs-140.so:ICU4XIsoDate_to_any
libmozjs-140.so:ICU4XIsoDate_to_calendar
libmozjs-140.so:ICU4XIsoDate_week_of_month
libmozjs-140.so:ICU4XIsoDate_week_of_year
libmozjs-140.so:ICU4XIsoWeekday_destroy
libmozjs-140.so:ICU4XLineBreakIteratorLatin1_destroy
libmozjs-140.so:ICU4XLineBreakIteratorLatin1_next
libmozjs-140.so:ICU4XLineBreakIteratorUtf16_destroy
libmozjs-140.so:ICU4XLineBreakIteratorUtf16_next
libmozjs-140.so:ICU4XLineBreakIteratorUtf8_destroy
libmozjs-140.so:ICU4XLineBreakIteratorUtf8_next
libmozjs-140.so:ICU4XLineBreakOptionsV1_destroy
libmozjs-140.so:ICU4XLineBreakStrictness_destroy
libmozjs-140.so:ICU4XLineBreakWordOption_destroy
libmozjs-140.so:ICU4XLineSegmenter_create_auto
libmozjs-140.so:ICU4XLineSegmenter_create_auto_with_options_v1
libmozjs-140.so:ICU4XLineSegmenter_create_dictionary
libmozjs-140.so:ICU4XLineSegmenter_create_dictionary_with_options_v1
libmozjs-140.so:ICU4XLineSegmenter_create_lstm
libmozjs-140.so:ICU4XLineSegmenter_create_lstm_with_options_v1
libmozjs-140.so:ICU4XLineSegmenter_destroy
libmozjs-140.so:ICU4XLineSegmenter_segment_latin1
libmozjs-140.so:ICU4XLineSegmenter_segment_utf16
libmozjs-140.so:ICU4XLineSegmenter_segment_utf8
libmozjs-140.so:ICU4XLocale_basename
libmozjs-140.so:ICU4XLocale_canonicalize
libmozjs-140.so:ICU4XLocale_clone
libmozjs-140.so:ICU4XLocale_create_from_string
libmozjs-140.so:ICU4XLocale_create_und
libmozjs-140.so:ICU4XLocale_destroy
libmozjs-140.so:ICU4XLocale_get_unicode_extension
libmozjs-140.so:ICU4XLocale_language
libmozjs-140.so:ICU4XLocale_normalizing_eq
libmozjs-140.so:ICU4XLocale_region
libmozjs-140.so:ICU4XLocale_script
libmozjs-140.so:ICU4XLocale_set_language
libmozjs-140.so:ICU4XLocale_set_region
libmozjs-140.so:ICU4XLocale_set_script
libmozjs-140.so:ICU4XLocale_strict_cmp
libmozjs-140.so:ICU4XLocale_strict_cmp_
libmozjs-140.so:ICU4XLocale_to_string
libmozjs-140.so:ICU4XLocale_total_cmp
libmozjs-140.so:ICU4XLocale_total_cmp_
libmozjs-140.so:ICU4XOrdering_destroy
libmozjs-140.so:ICU4XSegmenterWordType_destroy
libmozjs-140.so:ICU4XSegmenterWordType_is_word_like
libmozjs-140.so:ICU4XSentenceBreakIteratorUtf8_destroy
libmozjs-140.so:ICU4XSentenceBreakIteratorUtf8_next
libmozjs-140.so:ICU4XSentenceSegmenter_segment_utf8
libmozjs-140.so:ICU4XTime_create
libmozjs-140.so:ICU4XTime_create_midnight
libmozjs-140.so:ICU4XTime_destroy
libmozjs-140.so:ICU4XTime_hour
libmozjs-140.so:ICU4XTime_minute
libmozjs-140.so:ICU4XTime_nanosecond
libmozjs-140.so:ICU4XTime_second
libmozjs-140.so:ICU4XWeekCalculator_create
libmozjs-140.so:ICU4XWeekCalculator_first_weekday
libmozjs-140.so:ICU4XWeekCalculator_min_week_days
libmozjs-140.so:ICU4XWeekCalculator_weekend
libmozjs-140.so:ICU4XWeekOf_destroy
libmozjs-140.so:ICU4XWeekRelativeUnit_destroy
libmozjs-140.so:ICU4XWeekendContainsDay_destroy
libmozjs-140.so:ICU4XWordBreakIteratorLatin1_word_type
libmozjs-140.so:ICU4XWordBreakIteratorUtf16_word_type
libmozjs-140.so:ICU4XWordBreakIteratorUtf8_destroy
libmozjs-140.so:ICU4XWordBreakIteratorUtf8_is_word_like
libmozjs-140.so:ICU4XWordBreakIteratorUtf8_next
libmozjs-140.so:ICU4XWordBreakIteratorUtf8_word_type
libmozjs-140.so:ICU4XWordSegmenter_create_dictionary
libmozjs-140.so:ICU4XWordSegmenter_create_lstm
libmozjs-140.so:ICU4XWordSegmenter_segment_utf8
libmozjs-140.so:ISO_2022_JP_ENCODING
libmozjs-140.so:ISO_8859_10_ENCODING
libmozjs-140.so:ISO_8859_13_ENCODING
libmozjs-140.so:ISO_8859_14_ENCODING
libmozjs-140.so:ISO_8859_15_ENCODING
libmozjs-140.so:ISO_8859_16_ENCODING
libmozjs-140.so:ISO_8859_2_ENCODING
libmozjs-140.so:ISO_8859_3_ENCODING
libmozjs-140.so:ISO_8859_4_ENCODING
libmozjs-140.so:ISO_8859_5_ENCODING
libmozjs-140.so:ISO_8859_6_ENCODING
libmozjs-140.so:ISO_8859_7_ENCODING
libmozjs-140.so:ISO_8859_8_ENCODING
libmozjs-140.so:ISO_8859_8_I_ENCODING
libmozjs-140.so:KOI8_R_ENCODING
libmozjs-140.so:KOI8_U_ENCODING
libmozjs-140.so:MACINTOSH_ENCODING
libmozjs-140.so:MOZ_CrashPrintf
libmozjs-140.so:MozDescribeCodeAddress
libmozjs-140.so:MozFormatCodeAddress
libmozjs-140.so:MozFormatCodeAddressDetails
libmozjs-140.so:MozStackWalk
libmozjs-140.so:MozTagAnonymousMemory
libmozjs-140.so:MozTaggedAnonymousMmap
libmozjs-140.so:MozWalkTheStack
libmozjs-140.so:MozWalkTheStackWithWriter
libmozjs-140.so:REPLACEMENT_ENCODING
libmozjs-140.so:SHIFT_JIS_ENCODING
libmozjs-140.so:UTF_16BE_ENCODING
libmozjs-140.so:UTF_16LE_ENCODING
libmozjs-140.so:UTF_8_ENCODING
libmozjs-140.so:WINDOWS_1250_ENCODING
libmozjs-140.so:WINDOWS_1251_ENCODING
libmozjs-140.so:WINDOWS_1252_ENCODING
libmozjs-140.so:WINDOWS_1253_ENCODING
libmozjs-140.so:WINDOWS_1254_ENCODING
libmozjs-140.so:WINDOWS_1255_ENCODING
libmozjs-140.so:WINDOWS_1256_ENCODING
libmozjs-140.so:WINDOWS_1257_ENCODING
libmozjs-140.so:WINDOWS_1258_ENCODING
libmozjs-140.so:WINDOWS_874_ENCODING
libmozjs-140.so:X_MAC_CYRILLIC_ENCODING
libmozjs-140.so:X_USER_DEFINED_ENCODING
libmozjs-140.so:_RNvNtCsknYBJus7Eq0_3std9panicking11EMPTY_PANIC
libmozjs-140.so:_RNvNtNtNtNtCsknYBJus7Eq0_3std3sys4args4unix3imp15ARGV_INIT_ARRAY
libmozjs-140.so:_Z10JS_MaybeGCP9JSContext
libmozjs-140.so:_Z10JS_reallocP9JSContextPvmm
libmozjs-140.so:_Z11JS_IsNativeP8JSObject
libmozjs-140.so:_Z11JS_ShutDownv
libmozjs-140.so:_Z11JS_smprintfPKcz
libmozjs-140.so:_Z11js_StopPerfv
libmozjs-140.so:_Z12JS_CharsToIdP9JSContextN2JS12TwoByteCharsENS1_13MutableHandleINS1_11PropertyKeyEEE
libmozjs-140.so:_Z12JS_EnumerateP9JSContextN2JS6HandleIP8JSObjectEENS1_13MutableHandleINS1_8GCVectorINS1_11PropertyKeyELm0EN2js15TempAllocPolicyEEEEE
libmozjs-140.so:_Z12JS_IdToValueP9JSContextN2JS11PropertyKeyENS1_13MutableHandleINS1_5ValueEEE
libmozjs-140.so:_Z12JS_IndexToIdP9JSContextjN2JS13MutableHandleINS1_11PropertyKeyEEE
libmozjs-140.so:_Z12JS_InitClassP9JSContextN2JS6HandleIP8JSObjectEEPK7JSClassS5_PKcPFbS0_jPNS1_5ValueEEjPK14JSPropertySpecPK14JSFunctionSpecSH_SK_
libmozjs-140.so:_Z12JS_NewObjectP9JSContextPK7JSClass
libmozjs-140.so:_Z12JS_ParseJSONP9JSContextN2JS6HandleIP8JSStringEENS1_13MutableHandleINS1_5ValueEEE
libmozjs-140.so:_Z12JS_ParseJSONP9JSContextPKDsjN2JS13MutableHandleINS3_5ValueEEE
libmozjs-140.so:_Z12JS_ParseJSONP9JSContextPKhjN2JS13MutableHandleINS3_5ValueEEE
libmozjs-140.so:_Z12JS_ReadBytesP23JSStructuredCloneReaderPvm
libmozjs-140.so:_Z12JS_StringifyP9JSContextN2JS13MutableHandleINS1_5ValueEEENS1_6HandleIP8JSObjectEENS5_IS3_EEPFbPKDsjPvESC_
libmozjs-140.so:_Z12JS_ValueToIdP9JSContextN2JS6HandleINS1_5ValueEEENS1_13MutableHandleINS1_11PropertyKeyEEE
libmozjs-140.so:_Z12JS_WrapValueP9JSContextN2JS13MutableHandleINS1_5ValueEEE
libmozjs-140.so:_Z12JS_vsmprintfPKcP13__va_list_tag
libmozjs-140.so:_Z12js_StartPerfPKc
libmozjs-140.so:_Z13JS_GetElementP9JSContextN2JS6HandleIP8JSObjectEEjNS1_13MutableHandleINS1_5ValueEEE
libmozjs-140.so:_Z13JS_GetRuntimeP9JSContext
libmozjs-140.so:_Z13JS_HasElementP9JSContextN2JS6HandleIP8JSObjectEEjPb
libmozjs-140.so:_Z13JS_InstanceOfP9JSContextN2JS6HandleIP8JSObjectEEPK7JSClassPNS1_8CallArgsE
libmozjs-140.so:_Z13JS_NewContextjP9JSRuntime
libmozjs-140.so:_Z13JS_ReadDoubleP23JSStructuredCloneReaderPd
libmozjs-140.so:_Z13JS_ReadStringP23JSStructuredCloneReaderN2JS13MutableHandleIP8JSStringEE
libmozjs-140.so:_Z13JS_SetElementP9JSContextN2JS6HandleIP8JSObjectEEjNS2_INS1_5ValueEEE
libmozjs-140.so:_Z13JS_SetElementP9JSContextN2JS6HandleIP8JSObjectEEjNS2_IP8JSStringEE
libmozjs-140.so:_Z13JS_SetElementP9JSContextN2JS6HandleIP8JSObjectEEjS5_
libmozjs-140.so:_Z13JS_SetElementP9JSContextN2JS6HandleIP8JSObjectEEjd
libmozjs-140.so:_Z13JS_SetElementP9JSContextN2JS6HandleIP8JSObjectEEji
libmozjs-140.so:_Z13JS_SetElementP9JSContextN2JS6HandleIP8JSObjectEEjj
libmozjs-140.so:_Z13JS_StringToIdP9JSContextN2JS6HandleIP8JSStringEENS1_13MutableHandleINS1_11PropertyKeyEEE
libmozjs-140.so:_Z13JS_WrapObjectP9JSContextN2JS13MutableHandleIP8JSObjectEE
libmozjs-140.so:_Z13JS_WriteBytesP23JSStructuredCloneWriterPKvm
libmozjs-140.so:_Z14JS_CloneObjectP9JSContextN2JS6HandleIP8JSObjectEES5_
libmozjs-140.so:_Z14JS_DecodeBytesP9JSContextPKcmPDsPm
libmozjs-140.so:_Z14JS_DumpProfilePKcS0_
libmozjs-140.so:_Z14JS_GetPropertyP9JSContextN2JS6HandleIP8JSObjectEEPKcNS1_13MutableHandleINS1_5ValueEEE
libmozjs-140.so:_Z14JS_HasInstanceP9JSContextN2JS6HandleIP8JSObjectEENS2_INS1_5ValueEEEPb
libmozjs-140.so:_Z14JS_HasPropertyP9JSContextN2JS6HandleIP8JSObjectEEPKcPb
libmozjs-140.so:_Z14JS_NewDataViewP9JSContextN2JS6HandleIP8JSObjectEEmm
libmozjs-140.so:_Z14JS_NewFunctionP9JSContextPFbS0_jPN2JS5ValueEEjjPKc
libmozjs-140.so:_Z14JS_NewUCStringP9JSContextN7mozilla9UniquePtrIA_DsN2JS10FreePolicyEEEm
libmozjs-140.so:_Z14JS_SetPropertyP9JSContextN2JS6HandleIP8JSObjectEEPKcNS2_INS1_5ValueEEE
libmozjs-140.so:_Z14JS_TypeOfValueP9JSContextN2JS6HandleINS1_5ValueEEE
libmozjs-140.so:_Z14JS_WriteDoubleP23JSStructuredCloneWriterd
libmozjs-140.so:_Z14JS_WriteStringP23JSStructuredCloneWriterN2JS6HandleIP8JSStringEE
libmozjs-140.so:_Z14JS_string_freeP9JSContextPv
libmozjs-140.so:_Z15JS_AssignObjectP9JSContextN2JS6HandleIP8JSObjectEES5_
libmozjs-140.so:_Z15JS_CallFunctionP9JSContextN2JS6HandleIP8JSObjectEENS2_IP10JSFunctionEERKNS1_16HandleValueArrayENS1_13MutableHandleINS1_5ValueEEE
libmozjs-140.so:_Z15JS_DefineObjectP9JSContextN2JS6HandleIP8JSObjectEEPKcPK7JSClassj
libmozjs-140.so:_Z15JS_FreezeObjectP9JSContextN2JS6HandleIP8JSObjectEE
libmozjs-140.so:_Z15JS_GetErrorTypeRKN2JS5ValueE
libmozjs-140.so:_Z15JS_GetPrototypeP9JSContextN2JS6HandleIP8JSObjectEENS1_13MutableHandleIS4_EE
libmozjs-140.so:_Z15JS_IdToProtoKeyP9JSContextN2JS6HandleINS1_11PropertyKeyEEE
libmozjs-140.so:_Z15JS_IsExtensibleP9JSContextN2JS6HandleIP8JSObjectEEPb
libmozjs-140.so:_Z15JS_IsIdentifierP9JSContextN2JS6HandleIP8JSStringEEPb
libmozjs-140.so:_Z15JS_IsIdentifierPKDsm
libmozjs-140.so:_Z15JS_NewInt8ArrayP9JSContextm
libmozjs-140.so:_Z15JS_SetPrototypeP9JSContextN2JS6HandleIP8JSObjectEES5_
libmozjs-140.so:_Z16JS_AtomizeStringP9JSContextPKc
libmozjs-140.so:_Z16JS_ConcatStringsP9JSContextN2JS6HandleIP8JSStringEES5_
libmozjs-140.so:_Z16JS_DefineElementP9JSContextN2JS6HandleIP8JSObjectEEjNS2_INS1_5ValueEEEj
libmozjs-140.so:_Z16JS_DefineElementP9JSContextN2JS6HandleIP8JSObjectEEjNS2_IP8JSStringEEj
libmozjs-140.so:_Z16JS_DefineElementP9JSContextN2JS6HandleIP8JSObjectEEjS5_S5_j
libmozjs-140.so:_Z16JS_DefineElementP9JSContextN2JS6HandleIP8JSObjectEEjS5_j
libmozjs-140.so:_Z16JS_DefineElementP9JSContextN2JS6HandleIP8JSObjectEEjdj
libmozjs-140.so:_Z16JS_DefineElementP9JSContextN2JS6HandleIP8JSObjectEEjij
libmozjs-140.so:_Z16JS_DefineElementP9JSContextN2JS6HandleIP8JSObjectEEjjj
libmozjs-140.so:_Z16JS_DeleteElementP9JSContextN2JS6HandleIP8JSObjectEEj
libmozjs-140.so:_Z16JS_DeleteElementP9JSContextN2JS6HandleIP8JSObjectEEjRNS1_14ObjectOpResultE
libmozjs-140.so:_Z16JS_DoubleIsInt32dPi
libmozjs-140.so:_Z16JS_ExecuteScriptP9JSContextN2JS6HandleIP8JSScriptEE
libmozjs-140.so:_Z16JS_ExecuteScriptP9JSContextN2JS6HandleIP8JSScriptEENS1_13MutableHandleINS1_5ValueEEE
libmozjs-140.so:_Z16JS_ExecuteScriptP9JSContextRKN2JS16EnvironmentChainENS1_6HandleIP8JSScriptEE
libmozjs-140.so:_Z16JS_ExecuteScriptP9JSContextRKN2JS16EnvironmentChainENS1_6HandleIP8JSScriptEENS1_13MutableHandleINS1_5ValueEEE
libmozjs-140.so:_Z16JS_GetFunctionIdP9JSContextN2JS6HandleIP10JSFunctionEENS1_13MutableHandleIP8JSStringEE
libmozjs-140.so:_Z16JS_GetUCPropertyP9JSContextN2JS6HandleIP8JSObjectEEPKDsmNS1_13MutableHandleINS1_5ValueEEE
libmozjs-140.so:_Z16JS_HasUCPropertyP9JSContextN2JS6HandleIP8JSObjectEEPKDsmPb
libmozjs-140.so:_Z16JS_IsConstructorP10JSFunction
libmozjs-140.so:_Z16JS_IsDeadWrapperP8JSObject
libmozjs-140.so:_Z16JS_NewInt16ArrayP9JSContextm
libmozjs-140.so:_Z16JS_NewInt32ArrayP9JSContextm
libmozjs-140.so:_Z16JS_NewUint8ArrayP9JSContextm
libmozjs-140.so:_Z16JS_SetGCCallbackP9JSContextPFvS0_10JSGCStatusN2JS8GCReasonEPvES4_
libmozjs-140.so:_Z16JS_SetUCPropertyP9JSContextN2JS6HandleIP8JSObjectEEPKDsmNS2_INS1_5ValueEEE
libmozjs-140.so:_Z16JS_StopProfilingPKc
libmozjs-140.so:_Z16JS_ValueToObjectP9JSContextN2JS6HandleINS1_5ValueEEENS1_13MutableHandleIP8JSObjectEE
libmozjs-140.so:_Z16JS_ValueToSourceP9JSContextN2JS6HandleINS1_5ValueEEE
libmozjs-140.so:_Z16JS_string_mallocP9JSContextm
libmozjs-140.so:_Z17JS_AtomizeStringNP9JSContextPKcm
libmozjs-140.so:_Z17JS_CompareStringsP9JSContextP8JSStringS2_Pi
libmozjs-140.so:_Z17JS_DefineFunctionP9JSContextN2JS6HandleIP8JSObjectEEPKcPFbS0_jPNS1_5ValueEEjj
libmozjs-140.so:_Z17JS_DefinePropertyP9JSContextN2JS6HandleIP8JSObjectEEPKcNS2_INS1_5ValueEEEj
libmozjs-140.so:_Z17JS_DefinePropertyP9JSContextN2JS6HandleIP8JSObjectEEPKcNS2_IP8JSStringEEj
libmozjs-140.so:_Z17JS_DefinePropertyP9JSContextN2JS6HandleIP8JSObjectEEPKcPFbS0_jPNS1_5ValueEESB_j
libmozjs-140.so:_Z17JS_DefinePropertyP9JSContextN2JS6HandleIP8JSObjectEEPKcS5_S5_j
libmozjs-140.so:_Z17JS_DefinePropertyP9JSContextN2JS6HandleIP8JSObjectEEPKcS5_j
libmozjs-140.so:_Z17JS_DefinePropertyP9JSContextN2JS6HandleIP8JSObjectEEPKcdj
libmozjs-140.so:_Z17JS_DefinePropertyP9JSContextN2JS6HandleIP8JSObjectEEPKcij
libmozjs-140.so:_Z17JS_DefinePropertyP9JSContextN2JS6HandleIP8JSObjectEEPKcjj
libmozjs-140.so:_Z17JS_DeletePropertyP9JSContextN2JS6HandleIP8JSObjectEEPKc
libmozjs-140.so:_Z17JS_DeletePropertyP9JSContextN2JS6HandleIP8JSObjectEEPKcRNS1_14ObjectOpResultE
libmozjs-140.so:_Z17JS_DestroyContextP9JSContext
libmozjs-140.so:_Z17JS_DropPrincipalsP9JSContextP12JSPrincipals
libmozjs-140.so:_Z17JS_GetClassObjectP9JSContext10JSProtoKeyN2JS13MutableHandleIP8JSObjectEE
libmozjs-140.so:_Z17JS_GetConstructorP9JSContextN2JS6HandleIP8JSObjectEE
libmozjs-140.so:_Z17JS_GetEmptyStringP9JSContext
libmozjs-140.so:_Z17JS_GetGCParameterP9JSContext12JSGCParamKey
libmozjs-140.so:_Z17JS_HasOwnPropertyP9JSContextN2JS6HandleIP8JSObjectEEPKcPb
libmozjs-140.so:_Z17JS_HoldPrincipalsP12JSPrincipals
libmozjs-140.so:_Z17JS_IsGlobalObjectP8JSObject
libmozjs-140.so:_Z17JS_NewDeadWrapperP9JSContextP8JSObject
libmozjs-140.so:_Z17JS_NewPlainObjectP9JSContext
libmozjs-140.so:_Z17JS_NewStringCopyNP9JSContextPKcm
libmozjs-140.so:_Z17JS_NewStringCopyZP9JSContextPKc
libmozjs-140.so:_Z17JS_NewUint16ArrayP9JSContextm
libmozjs-140.so:_Z17JS_NewUint32ArrayP9JSContextm
libmozjs-140.so:_Z17JS_PCToLineNumberP8JSScriptPhPN2JS28LimitedColumnNumberOneOriginE
libmozjs-140.so:_Z17JS_PauseProfilersPKc
libmozjs-140.so:_Z17JS_ReadTypedArrayP23JSStructuredCloneReaderN2JS13MutableHandleINS1_5ValueEEE
libmozjs-140.so:_Z17JS_ReadUint32PairP23JSStructuredCloneReaderPjS1_
libmozjs-140.so:_Z17JS_SetGCParameterP9JSContext12JSGCParamKeyj
libmozjs-140.so:_Z17JS_StartProfilingPKci
libmozjs-140.so:_Z17JS_StringIsLinearP8JSString
libmozjs-140.so:_Z17JS_sprintf_appendON7mozilla9UniquePtrIA_cN2JS10FreePolicyEEEPKcz
libmozjs-140.so:_Z17JS_string_reallocP9JSContextPvmm
libmozjs-140.so:_Z18JS_AtomizeUCStringP9JSContextPKDs
libmozjs-140.so:_Z18JS_CopyStringCharsP9JSContextRKN7mozilla5RangeIDsEEP8JSString
libmozjs-140.so:_Z18JS_DecompileScriptP9JSContextN2JS6HandleIP8JSScriptEE
libmozjs-140.so:_Z18JS_DefineFunctionsP9JSContextN2JS6HandleIP8JSObjectEEPK14JSFunctionSpec
libmozjs-140.so:_Z18JS_GetPropertyByIdP9JSContextN2JS6HandleIP8JSObjectEENS2_INS1_11PropertyKeyEEENS1_13MutableHandleINS1_5ValueEEE
libmozjs-140.so:_Z18JS_GetStringCharAtP9JSContextP8JSStringmPDs
libmozjs-140.so:_Z18JS_GetStringLengthP8JSString
libmozjs-140.so:_Z18JS_GetZoneUserDataPN2JS4ZoneE
libmozjs-140.so:_Z18JS_HasPropertyByIdP9JSContextN2JS6HandleIP8JSObjectEENS2_INS1_11PropertyKeyEEEPb
libmozjs-140.so:_Z18JS_MarkCrossZoneIdP9JSContextN2JS11PropertyKeyE
libmozjs-140.so:_Z18JS_NewFloat16ArrayP9JSContextm
libmozjs-140.so:_Z18JS_NewFloat32ArrayP9JSContextm
libmozjs-140.so:_Z18JS_NewFloat64ArrayP9JSContextm
libmozjs-140.so:_Z18JS_NewGlobalObjectP9JSContextPK7JSClassP12JSPrincipalsN2JS21OnNewGlobalHookOptionERKNS6_12RealmOptionsE
libmozjs-140.so:_Z18JS_NewLatin1StringP9JSContextN7mozilla9UniquePtrIA_hN2JS10FreePolicyEEEm
libmozjs-140.so:_Z18JS_ReportErrorUTF8P9JSContextPKcz
libmozjs-140.so:_Z18JS_ResumeProfilersPKc
libmozjs-140.so:_Z18JS_SetFutexCanWaitP9JSContext
libmozjs-140.so:_Z18JS_SetPropertyByIdP9JSContextN2JS6HandleIP8JSObjectEENS2_INS1_11PropertyKeyEEENS2_INS1_5ValueEEE
libmozjs-140.so:_Z18JS_SetReservedSlotP8JSObjectjRKN2JS5ValueE
libmozjs-140.so:_Z18JS_SetZoneUserDataPN2JS4ZoneEPv
libmozjs-140.so:_Z18JS_StructuredCloneP9JSContextN2JS6HandleINS1_5ValueEEENS1_13MutableHandleIS3_EEPK26JSStructuredCloneCallbacksPv
libmozjs-140.so:_Z18JS_ValueToFunctionP9JSContextN2JS6HandleINS1_5ValueEEE
libmozjs-140.so:_Z18JS_WriteTypedArrayP23JSStructuredCloneWriterN2JS6HandleINS1_5ValueEEE
libmozjs-140.so:_Z18JS_WriteUint32PairP23JSStructuredCloneWriterjj
libmozjs-140.so:_Z18JS_vsprintf_appendON7mozilla9UniquePtrIA_cN2JS10FreePolicyEEEPKcP13__va_list_tag
libmozjs-140.so:_Z19JS_AtomizeUCStringNP9JSContextPKDsm
libmozjs-140.so:_Z19JS_CallFunctionNameP9JSContextN2JS6HandleIP8JSObjectEEPKcRKNS1_16HandleValueArrayENS1_13MutableHandleINS1_5ValueEEE
libmozjs-140.so:_Z19JS_CopyStringCharsZP9JSContextP8JSString
libmozjs-140.so:_Z19JS_DeepFreezeObjectP9JSContextN2JS6HandleIP8JSObjectEE
libmozjs-140.so:_Z19JS_DefinePropertiesP9JSContextN2JS6HandleIP8JSObjectEEPK14JSPropertySpec
libmozjs-140.so:_Z19JS_DefineUCFunctionP9JSContextN2JS6HandleIP8JSObjectEEPKDsmPFbS0_jPNS1_5ValueEEjj
libmozjs-140.so:_Z19JS_DefineUCPropertyP9JSContextN2JS6HandleIP8JSObjectEEPKDsmNS2_INS1_18PropertyDescriptorEEE
libmozjs-140.so:_Z19JS_DefineUCPropertyP9JSContextN2JS6HandleIP8JSObjectEEPKDsmNS2_INS1_18PropertyDescriptorEEERNS1_14ObjectOpResultE
libmozjs-140.so:_Z19JS_DefineUCPropertyP9JSContextN2JS6HandleIP8JSObjectEEPKDsmNS2_INS1_5ValueEEEj
libmozjs-140.so:_Z19JS_DefineUCPropertyP9JSContextN2JS6HandleIP8JSObjectEEPKDsmNS2_IP8JSStringEEj
libmozjs-140.so:_Z19JS_DefineUCPropertyP9JSContextN2JS6HandleIP8JSObjectEEPKDsmS5_S5_j
libmozjs-140.so:_Z19JS_DefineUCPropertyP9JSContextN2JS6HandleIP8JSObjectEEPKDsmS5_j
libmozjs-140.so:_Z19JS_DefineUCPropertyP9JSContextN2JS6HandleIP8JSObjectEEPKDsmdj
libmozjs-140.so:_Z19JS_DefineUCPropertyP9JSContextN2JS6HandleIP8JSObjectEEPKDsmij
libmozjs-140.so:_Z19JS_DefineUCPropertyP9JSContextN2JS6HandleIP8JSObjectEEPKDsmjj
libmozjs-140.so:_Z19JS_DeleteUCPropertyP9JSContextN2JS6HandleIP8JSObjectEEPKDsmRNS1_14ObjectOpResultE
libmozjs-140.so:_Z19JS_GetDefaultLocaleP9JSContext
libmozjs-140.so:_Z19JS_GetFunctionArityP10JSFunction
libmozjs-140.so:_Z19JS_GetInt8ArrayDataP8JSObjectPbRKN2JS15AutoRequireNoGCE
libmozjs-140.so:_Z19JS_GetParentRuntimeP9JSContext
libmozjs-140.so:_Z19JS_InitReflectParseP9JSContextN2JS6HandleIP8JSObjectEE
libmozjs-140.so:_Z19JS_InitReservedSlotP8JSObjectjPvmN2JS9MemoryUseE
libmozjs-140.so:_Z19JS_IsNativeFunctionP8JSObjectPFbP9JSContextjPN2JS5ValueEE
libmozjs-140.so:_Z19JS_NewBigInt64ArrayP9JSContextm
libmozjs-140.so:_Z19JS_NewUCStringCopyNP9JSContextPKDsm
libmozjs-140.so:_Z19JS_NewUCStringCopyZP9JSContextPKDs
libmozjs-140.so:_Z19JS_ObjectIsFunctionP8JSObject
libmozjs-140.so:_Z19JS_ObjectNotWrittenP23JSStructuredCloneWriterN2JS6HandleIP8JSObjectEE
libmozjs-140.so:_Z19JS_PutEscapedStringP9JSContextPcmP8JSStringc
libmozjs-140.so:_Z19JS_ReportErrorASCIIP9JSContextPKcz
libmozjs-140.so:_Z19JS_ResetGCParameterP9JSContext12JSGCParamKey
libmozjs-140.so:_Z19JS_SetDefaultLocaleP9JSRuntimePKc
libmozjs-140.so:_Z19JS_TransplantObjectP9JSContextN2JS6HandleIP8JSObjectEES5_
libmozjs-140.so:_Z19mozalloc_handle_oomm
libmozjs-140.so:_Z20JS_CallFunctionValueP9JSContextN2JS6HandleIP8JSObjectEENS2_INS1_5ValueEEERKNS1_16HandleValueArrayENS1_13MutableHandleIS6_EE
libmozjs-140.so:_Z20JS_CheckForInterruptP9JSContext
libmozjs-140.so:_Z20JS_DecompileFunctionP9JSContextN2JS6HandleIP10JSFunctionEE
libmozjs-140.so:_Z20JS_GetClassPrototypeP9JSContext10JSProtoKeyN2JS13MutableHandleIP8JSObjectEE
libmozjs-140.so:_Z20JS_GetContextPrivateP9JSContext
libmozjs-140.so:_Z20JS_GetFunctionLengthP9JSContextN2JS6HandleIP10JSFunctionEEPt
libmozjs-140.so:_Z20JS_GetFunctionObjectP10JSFunction
libmozjs-140.so:_Z20JS_GetFunctionScriptP9JSContextN2JS6HandleIP10JSFunctionEE
libmozjs-140.so:_Z20JS_GetInt16ArrayDataP8JSObjectPbRKN2JS15AutoRequireNoGCE
libmozjs-140.so:_Z20JS_GetInt32ArrayDataP8JSObjectPbRKN2JS15AutoRequireNoGCE
libmozjs-140.so:_Z20JS_GetObjectFunctionP8JSObject
libmozjs-140.so:_Z20JS_GetScriptFilenameP8JSScript
libmozjs-140.so:_Z20JS_GetUint8ArrayDataP8JSObjectPbRKN2JS15AutoRequireNoGCE
libmozjs-140.so:_Z20JS_NewBigUint64ArrayP9JSContextm
libmozjs-140.so:_Z20JS_PreventExtensionsP9JSContextN2JS6HandleIP8JSObjectEERNS1_14ObjectOpResultE
libmozjs-140.so:_Z20JS_ReportErrorLatin1P9JSContextPKcz
libmozjs-140.so:_Z20JS_ReportOutOfMemoryP9JSContext
libmozjs-140.so:_Z20JS_SetContextPrivateP9JSContextPv
libmozjs-140.so:_Z20JS_StringEqualsAsciiP9JSContextP8JSStringPKcPb
libmozjs-140.so:_Z20JS_StringEqualsAsciiP9JSContextP8JSStringPKcmPb
libmozjs-140.so:_Z21JS_AbortIfWrongThreadP9JSContext
libmozjs-140.so:_Z21JS_DefineFunctionByIdP9JSContextN2JS6HandleIP8JSObjectEENS2_INS1_11PropertyKeyEEEPFbS0_jPNS1_5ValueEEjj
libmozjs-140.so:_Z21JS_DefinePropertyByIdP9JSContextN2JS6HandleIP8JSObjectEENS2_INS1_11PropertyKeyEEENS2_INS1_18PropertyDescriptorEEE
libmozjs-140.so:_Z21JS_DefinePropertyByIdP9JSContextN2JS6HandleIP8JSObjectEENS2_INS1_11PropertyKeyEEENS2_INS1_18PropertyDescriptorEEERNS1_14ObjectOpResultE
libmozjs-140.so:_Z21JS_DefinePropertyByIdP9JSContextN2JS6HandleIP8JSObjectEENS2_INS1_11PropertyKeyEEENS2_INS1_5ValueEEEj
libmozjs-140.so:_Z21JS_DefinePropertyByIdP9JSContextN2JS6HandleIP8JSObjectEENS2_INS1_11PropertyKeyEEENS2_IP8JSStringEEj
libmozjs-140.so:_Z21JS_DefinePropertyByIdP9JSContextN2JS6HandleIP8JSObjectEENS2_INS1_11PropertyKeyEEEPFbS0_jPNS1_5ValueEESB_j
libmozjs-140.so:_Z21JS_DefinePropertyByIdP9JSContextN2JS6HandleIP8JSObjectEENS2_INS1_11PropertyKeyEEES5_S5_j
libmozjs-140.so:_Z21JS_DefinePropertyByIdP9JSContextN2JS6HandleIP8JSObjectEENS2_INS1_11PropertyKeyEEES5_j
libmozjs-140.so:_Z21JS_DefinePropertyByIdP9JSContextN2JS6HandleIP8JSObjectEENS2_INS1_11PropertyKeyEEEdj
libmozjs-140.so:_Z21JS_DefinePropertyByIdP9JSContextN2JS6HandleIP8JSObjectEENS2_INS1_11PropertyKeyEEEij
libmozjs-140.so:_Z21JS_DefinePropertyByIdP9JSContextN2JS6HandleIP8JSObjectEENS2_INS1_11PropertyKeyEEEjj
libmozjs-140.so:_Z21JS_DeletePropertyByIdP9JSContextN2JS6HandleIP8JSObjectEENS2_INS1_11PropertyKeyEEE
libmozjs-140.so:_Z21JS_DeletePropertyByIdP9JSContextN2JS6HandleIP8JSObjectEENS2_INS1_11PropertyKeyEEERNS1_14ObjectOpResultE
libmozjs-140.so:_Z21JS_EncodeStringToUTF8P9JSContextN2JS6HandleIP8JSStringEE
libmozjs-140.so:_Z21JS_EnsureLinearStringP9JSContextP8JSString
libmozjs-140.so:_Z21JS_ErrorFromExceptionP9JSContextN2JS6HandleIP8JSObjectEE
libmozjs-140.so:_Z21JS_GetLocaleCallbacksP9JSRuntime
libmozjs-140.so:_Z21JS_GetUint16ArrayDataP8JSObjectPbRKN2JS15AutoRequireNoGCE
libmozjs-140.so:_Z21JS_GetUint32ArrayDataP8JSObjectPbRKN2JS15AutoRequireNoGCE
libmozjs-140.so:_Z21JS_HasOwnPropertyByIdP9JSContextN2JS6HandleIP8JSObjectEENS2_INS1_11PropertyKeyEEEPb
libmozjs-140.so:_Z21JS_IsExceptionPendingP9JSContext
libmozjs-140.so:_Z21JS_IsTypedArrayObjectP8JSObject
libmozjs-140.so:_Z21JS_NewDependentStringP9JSContextN2JS6HandleIP8JSStringEEmm
libmozjs-140.so:_Z21JS_NewStringCopyUTF8NP9JSContextRKN2JS9UTF8CharsE
libmozjs-140.so:_Z21JS_NewStringCopyUTF8ZP9JSContextN2JS15ConstUTF8CharsZE
libmozjs-140.so:_Z21JS_ResetDefaultLocaleP9JSRuntime
libmozjs-140.so:_Z21JS_SetLocaleCallbacksP9JSRuntimePK17JSLocaleCallbacks
libmozjs-140.so:_Z21JS_ValueToConstructorP9JSContextN2JS6HandleINS1_5ValueEEE
libmozjs-140.so:_Z22JS_AddFinalizeCallbackP9JSContextPFvPN2JS9GCContextE16JSFinalizeStatusPvES5_
libmozjs-140.so:_Z22JS_AtomizeAndPinStringP9JSContextPKc
libmozjs-140.so:_Z22JS_EncodeStringToASCIIP9JSContextP8JSString
libmozjs-140.so:_Z22JS_ForwardGetElementToP9JSContextN2JS6HandleIP8JSObjectEEjS5_NS1_13MutableHandleINS1_5ValueEEE
libmozjs-140.so:_Z22JS_GetEmptyStringValueP9JSContext
libmozjs-140.so:_Z22JS_GetFloat16ArrayDataP8JSObjectPbRKN2JS15AutoRequireNoGCE
libmozjs-140.so:_Z22JS_GetFloat32ArrayDataP8JSObjectPbRKN2JS15AutoRequireNoGCE
libmozjs-140.so:_Z22JS_GetFloat64ArrayDataP8JSObjectPbRKN2JS15AutoRequireNoGCE
libmozjs-140.so:_Z22JS_GetGlobalFromScriptP8JSScript
libmozjs-140.so:_Z22JS_GetPendingExceptionP9JSContextN2JS13MutableHandleINS1_5ValueEEE
libmozjs-140.so:_Z22JS_GetScriptPrincipalsP8JSScript
libmozjs-140.so:_Z22JS_GetTypedArrayLengthP8JSObject
libmozjs-140.so:_Z22JS_IterateCompartmentsP9JSContextPvPFN2JS21CompartmentIterResultES0_S1_PNS2_11CompartmentEE
libmozjs-140.so:_Z22JS_NewExternalUCStringP9JSContextPKDsmPK25JSExternalStringCallbacks
libmozjs-140.so:_Z22JS_ReadStructuredCloneP9JSContextRK21JSStructuredCloneDatajN2JS20StructuredCloneScopeENS4_13MutableHandleINS4_5ValueEEERKNS4_15CloneDataPolicyEPK26JSStructuredCloneCallbacksPv
libmozjs-140.so:_Z22JS_ReportErrorNumberUCP9JSContextPFPK19JSErrorFormatStringPvjES4_jz
libmozjs-140.so:_Z22JS_SetNativeStackQuotaP9JSContextmmm
libmozjs-140.so:_Z22JS_SetPendingExceptionP9JSContextN2JS6HandleINS1_5ValueEEENS1_22ExceptionStackBehaviorE
libmozjs-140.so:_Z22JS_StringHasBeenPinnedP9JSContextP8JSString
libmozjs-140.so:_Z23JS_AddInterruptCallbackP9JSContextPFbS0_E
libmozjs-140.so:_Z23JS_AlreadyHasOwnElementP9JSContextN2JS6HandleIP8JSObjectEEjPb
libmozjs-140.so:_Z23JS_AtomizeAndPinStringNP9JSContextPKcm
libmozjs-140.so:_Z23JS_DefineDebuggerObjectP9JSContextN2JS6HandleIP8JSObjectEE
libmozjs-140.so:_Z23JS_EncodeStringToBufferP9JSContextP8JSStringPcm
libmozjs-140.so:_Z23JS_EncodeStringToLatin1P9JSContextP8JSString
libmozjs-140.so:_Z23JS_FindCompilationScopeP9JSContextN2JS6HandleIP8JSObjectEE
libmozjs-140.so:_Z23JS_ForwardGetPropertyToP9JSContextN2JS6HandleIP8JSObjectEENS2_INS1_11PropertyKeyEEENS2_INS1_5ValueEEENS1_13MutableHandleIS8_EE
libmozjs-140.so:_Z23JS_ForwardSetPropertyToP9JSContextN2JS6HandleIP8JSObjectEENS2_INS1_11PropertyKeyEEENS2_INS1_5ValueEEES9_RNS1_14ObjectOpResultE
libmozjs-140.so:_Z23JS_FrontendOnlyShutDownv
libmozjs-140.so:_Z23JS_GetBigInt64ArrayDataP8JSObjectPbRKN2JS15AutoRequireNoGCE
libmozjs-140.so:_Z23JS_GetFunctionDisplayIdP9JSContextN2JS6HandleIP10JSFunctionEENS1_13MutableHandleIP8JSStringEE
libmozjs-140.so:_Z23JS_GetObjectAsInt8ArrayP8JSObjectPmPbPPa
libmozjs-140.so:_Z23JS_GetSecurityCallbacksP9JSContext
libmozjs-140.so:_Z23JS_MarkCrossZoneIdValueP9JSContextRKN2JS5ValueE
libmozjs-140.so:_Z23JS_NewUint8ClampedArrayP9JSContextm
libmozjs-140.so:_Z23JS_ParseJSONWithReviverP9JSContextN2JS6HandleIP8JSStringEENS2_INS1_5ValueEEENS1_13MutableHandleIS6_EE
libmozjs-140.so:_Z23JS_ParseJSONWithReviverP9JSContextPKDsjN2JS6HandleINS3_5ValueEEENS3_13MutableHandleIS5_EE
libmozjs-140.so:_Z23JS_ResolveStandardClassP9JSContextN2JS6HandleIP8JSObjectEENS2_INS1_11PropertyKeyEEEPb
libmozjs-140.so:_Z23JS_ScriptHasMutedErrorsP8JSScript
libmozjs-140.so:_Z23JS_SetGrayGCRootsTracerP9JSContextPFbP8JSTracerRN2JS11SliceBudgetEPvES6_
libmozjs-140.so:_Z23JS_SetSecurityCallbacksP9JSContextPK19JSSecurityCallbacks
libmozjs-140.so:_Z23JS_SetTrustedPrincipalsP9JSContextP12JSPrincipals
libmozjs-140.so:_Z23JS_WriteStructuredCloneP9JSContextN2JS6HandleINS1_5ValueEEEP21JSStructuredCloneDataNS1_20StructuredCloneScopeERKNS1_15CloneDataPolicyEPK26JSStructuredCloneCallbacksPvS4_
libmozjs-140.so:_Z24JS_AddExtraGCRootsTracerP9JSContextPFvP8JSTracerPvES3_
libmozjs-140.so:_Z24JS_AlreadyHasOwnPropertyP9JSContextN2JS6HandleIP8JSObjectEEPKcPb
libmozjs-140.so:_Z24JS_ClearPendingExceptionP9JSContext
libmozjs-140.so:_Z24JS_FireOnNewGlobalObjectP9JSContextN2JS6HandleIP8JSObjectEE
libmozjs-140.so:_Z24JS_GetBigUint64ArrayDataP8JSObjectPbRKN2JS15AutoRequireNoGCE
libmozjs-140.so:_Z24JS_GetCompartmentPrivatePN2JS11CompartmentE
libmozjs-140.so:_Z24JS_GetObjectAsInt16ArrayP8JSObjectPmPbPPs
libmozjs-140.so:_Z24JS_GetObjectAsInt32ArrayP8JSObjectPmPbPPi
libmozjs-140.so:_Z24JS_GetObjectAsUint8ArrayP8JSObjectPmPbPPh
libmozjs-140.so:_Z24JS_GetPropertyDescriptorP9JSContextN2JS6HandleIP8JSObjectEEPKcNS1_13MutableHandleIN7mozilla5MaybeINS1_18PropertyDescriptorEEEEENS8_IS4_EE
libmozjs-140.so:_Z24JS_GlobalObjectTraceHookP8JSTracerP8JSObject
libmozjs-140.so:_Z24JS_IsBuiltinEvalFunctionP10JSFunction
libmozjs-140.so:_Z24JS_IsThrowingOutOfMemoryP9JSContext
libmozjs-140.so:_Z24JS_NewInt8ArrayFromArrayP9JSContextN2JS6HandleIP8JSObjectEE
libmozjs-140.so:_Z24JS_ObjectIsBoundFunctionP8JSObject
libmozjs-140.so:_Z24JS_ReportErrorNumberUTF8P9JSContextPFPK19JSErrorFormatStringPvjES4_jz
libmozjs-140.so:_Z24JS_SetCompartmentPrivatePN2JS11CompartmentEPv
libmozjs-140.so:_Z24JS_SetICUMemoryFunctionsPFPvPKvmEPFS_S1_S_mEPFvS1_S_E
libmozjs-140.so:_Z24JS_SetImmutablePrototypeP9JSContextN2JS6HandleIP8JSObjectEEPb
libmozjs-140.so:_Z25JS_GetArrayBufferViewDataP8JSObjectPbRKN2JS15AutoRequireNoGCE
libmozjs-140.so:_Z25JS_GetArrayBufferViewTypeP8JSObject
libmozjs-140.so:_Z25JS_GetBoundFunctionTargetP8JSObject
libmozjs-140.so:_Z25JS_GetObjectAsUint16ArrayP8JSObjectPmPbPPt
libmozjs-140.so:_Z25JS_GetObjectAsUint32ArrayP8JSObjectPmPbPPj
libmozjs-140.so:_Z25JS_GetPrototypeIfOrdinaryP9JSContextN2JS6HandleIP8JSObjectEEPbNS1_13MutableHandleIS4_EE
libmozjs-140.so:_Z25JS_NewInt16ArrayFromArrayP9JSContextN2JS6HandleIP8JSObjectEE
libmozjs-140.so:_Z25JS_NewInt32ArrayFromArrayP9JSContextN2JS6HandleIP8JSObjectEE
libmozjs-140.so:_Z25JS_NewInt8ArrayWithBufferP9JSContextN2JS6HandleIP8JSObjectEEml
libmozjs-140.so:_Z25JS_NewUCStringDontDeflateP9JSContextN7mozilla9UniquePtrIA_DsN2JS10FreePolicyEEEm
libmozjs-140.so:_Z25JS_NewUint8ArrayFromArrayP9JSContextN2JS6HandleIP8JSObjectEE
libmozjs-140.so:_Z25JS_PutEscapedLinearStringPcmP14JSLinearStringc
libmozjs-140.so:_Z25JS_RemoveFinalizeCallbackP9JSContextPFvPN2JS9GCContextE16JSFinalizeStatusPvE
libmozjs-140.so:_Z25JS_ReportErrorNumberASCIIP9JSContextPFPK19JSErrorFormatStringPvjES4_jz
libmozjs-140.so:_Z25JS_ResetInterruptCallbackP9JSContextb
libmozjs-140.so:_Z25JS_SetDestroyZoneCallbackP9JSContextPFvPN2JS9GCContextEPNS1_4ZoneEE
libmozjs-140.so:_Z25JS_SetWrapObjectCallbacksP9JSContextPK21JSWrapObjectCallbacks
libmozjs-140.so:_Z25JS_WrapPropertyDescriptorP9JSContextN2JS13MutableHandleIN7mozilla5MaybeINS1_18PropertyDescriptorEEEEE
libmozjs-140.so:_Z25JS_WrapPropertyDescriptorP9JSContextN2JS13MutableHandleINS1_18PropertyDescriptorEEE
libmozjs-140.so:_Z26JS_AlreadyHasOwnUCPropertyP9JSContextN2JS6HandleIP8JSObjectEEPKDsmPb
libmozjs-140.so:_Z26JS_DefineFunctionsWithHelpP9JSContextN2JS6HandleIP8JSObjectEEPK22JSFunctionSpecWithHelp
libmozjs-140.so:_Z26JS_GetObjectAsFloat16ArrayP8JSObjectPmPbPPt
libmozjs-140.so:_Z26JS_GetObjectAsFloat32ArrayP8JSObjectPmPbPPf
libmozjs-140.so:_Z26JS_GetObjectAsFloat64ArrayP8JSObjectPmPbPPd
libmozjs-140.so:_Z26JS_GetScriptBaseLineNumberP9JSContextP8JSScript
libmozjs-140.so:_Z26JS_GetStringEncodingLengthP9JSContextP8JSString
libmozjs-140.so:_Z26JS_GetStructuredCloneScopeP23JSStructuredCloneWriter
libmozjs-140.so:_Z26JS_GetTypedArrayByteLengthP8JSObject
libmozjs-140.so:_Z26JS_GetTypedArrayByteOffsetP8JSObject
libmozjs-140.so:_Z26JS_GetTypedArraySharednessP8JSObject
libmozjs-140.so:_Z26JS_GetUCPropertyDescriptorP9JSContextN2JS6HandleIP8JSObjectEEPKDsmNS1_13MutableHandleIN7mozilla5MaybeINS1_18PropertyDescriptorEEEEENS8_IS4_EE
libmozjs-140.so:_Z26JS_IsArrayBufferViewObjectP8JSObject
libmozjs-140.so:_Z26JS_LinearStringEqualsAsciiP14JSLinearStringPKc
libmozjs-140.so:_Z26JS_LinearStringEqualsAsciiP14JSLinearStringPKcm
libmozjs-140.so:_Z26JS_MayResolveStandardClassRK11JSAtomStateN2JS11PropertyKeyEP8JSObject
libmozjs-140.so:_Z26JS_NewExternalStringLatin1P9JSContextPKhmPK25JSExternalStringCallbacks
libmozjs-140.so:_Z26JS_NewInt16ArrayWithBufferP9JSContextN2JS6HandleIP8JSObjectEEml
libmozjs-140.so:_Z26JS_NewInt32ArrayWithBufferP9JSContextN2JS6HandleIP8JSObjectEEml
libmozjs-140.so:_Z26JS_NewObjectForConstructorP9JSContextPK7JSClassRKN2JS8CallArgsE
libmozjs-140.so:_Z26JS_NewObjectWithGivenProtoP9JSContextPK7JSClassN2JS6HandleIP8JSObjectEE
libmozjs-140.so:_Z26JS_NewUint16ArrayFromArrayP9JSContextN2JS6HandleIP8JSObjectEE
libmozjs-140.so:_Z26JS_NewUint32ArrayFromArrayP9JSContextN2JS6HandleIP8JSObjectEE
libmozjs-140.so:_Z26JS_NewUint8ArrayWithBufferP9JSContextN2JS6HandleIP8JSObjectEEml
libmozjs-140.so:_Z26JS_ReportErrorNumberLatin1P9JSContextPFPK19JSErrorFormatStringPvjES4_jz
libmozjs-140.so:_Z26JS_ReportErrorNumberUTF8VAP9JSContextPFPK19JSErrorFormatStringPvjES4_jP13__va_list_tag
libmozjs-140.so:_Z26JS_StringifyWithLengthHintP9JSContextN2JS13MutableHandleINS1_5ValueEEENS1_6HandleIP8JSObjectEENS5_IS3_EEPFbPKDsjPvESC_m
libmozjs-140.so:_Z27JS_DefineProfilingFunctionsP9JSContextN2JS6HandleIP8JSObjectEE
libmozjs-140.so:_Z27JS_DisableInterruptCallbackP9JSContext
libmozjs-140.so:_Z27JS_EnumerateStandardClassesP9JSContextN2JS6HandleIP8JSObjectEE
libmozjs-140.so:_Z27JS_GetArrayBufferViewBufferP9JSContextN2JS6HandleIP8JSObjectEEPb
libmozjs-140.so:_Z27JS_GetImplementationVersionv
libmozjs-140.so:_Z27JS_GetObjectAsBigInt64ArrayP8JSObjectPmPbPPl
libmozjs-140.so:_Z27JS_GetOwnPropertyDescriptorP9JSContextN2JS6HandleIP8JSObjectEEPKcNS1_13MutableHandleIN7mozilla5MaybeINS1_18PropertyDescriptorEEEEE
libmozjs-140.so:_Z27JS_GetUint8ClampedArrayDataP8JSObjectPbRKN2JS15AutoRequireNoGCE
libmozjs-140.so:_Z27JS_GlobalLexicalEnvironmentP8JSObject
libmozjs-140.so:_Z27JS_MaxMovableTypedArraySizev
libmozjs-140.so:_Z27JS_NewFloat16ArrayFromArrayP9JSContextN2JS6HandleIP8JSObjectEE
libmozjs-140.so:_Z27JS_NewFloat32ArrayFromArrayP9JSContextN2JS6HandleIP8JSObjectEE
libmozjs-140.so:_Z27JS_NewFloat64ArrayFromArrayP9JSContextN2JS6HandleIP8JSObjectEE
libmozjs-140.so:_Z27JS_NewMaybeExternalUCStringP9JSContextPKDsmPK25JSExternalStringCallbacksPb
libmozjs-140.so:_Z27JS_NewObjectWithoutMetadataP9JSContextPK7JSClassN2JS6HandleIP8JSObjectEE
libmozjs-140.so:_Z27JS_NewUint16ArrayWithBufferP9JSContextN2JS6HandleIP8JSObjectEEml
libmozjs-140.so:_Z27JS_NewUint32ArrayWithBufferP9JSContextN2JS6HandleIP8JSObjectEEml
libmozjs-140.so:_Z27JS_RemoveExtraGCRootsTracerP9JSContextPFvP8JSTracerPvES3_
libmozjs-140.so:_Z27JS_ReportAllocationOverflowP9JSContext
libmozjs-140.so:_Z27JS_ReportErrorNumberASCIIVAP9JSContextPFPK19JSErrorFormatStringPvjES4_jP13__va_list_tag
libmozjs-140.so:_Z27JS_ReportErrorNumberUCArrayP9JSContextPFPK19JSErrorFormatStringPvjES4_jPPKDs
libmozjs-140.so:_Z27JS_RequestInterruptCallbackP9JSContext
libmozjs-140.so:_Z27JS_SetSetUseCounterCallbackP9JSContextPFvP8JSObject12JSUseCounterE
libmozjs-140.so:_Z27JS_UpdateWeakPointerAfterGCP8JSTracerPN2JS4HeapIP8JSObjectEE
libmozjs-140.so:_Z28JS_AlreadyHasOwnPropertyByIdP9JSContextN2JS6HandleIP8JSObjectEENS2_INS1_11PropertyKeyEEEPb
libmozjs-140.so:_Z28JS_ExpandErrorArgumentsASCIIP9JSContextPFPK19JSErrorFormatStringPvjEjP13JSErrorReportz
libmozjs-140.so:_Z28JS_GetInt8ArrayLengthAndDataP8JSObjectPmPbRKN2JS15AutoRequireNoGCE
libmozjs-140.so:_Z28JS_GetMaybePartialFunctionIdP10JSFunction
libmozjs-140.so:_Z28JS_GetObjectAsBigUint64ArrayP8JSObjectPmPbPS1_
libmozjs-140.so:_Z28JS_GetPropertyDescriptorByIdP9JSContextN2JS6HandleIP8JSObjectEENS2_INS1_11PropertyKeyEEENS1_13MutableHandleIN7mozilla5MaybeINS1_18PropertyDescriptorEEEEENS8_IS4_EE
libmozjs-140.so:_Z28JS_IterateCompartmentsInZoneP9JSContextPN2JS4ZoneEPvPFNS1_21CompartmentIterResultES0_S4_PNS1_11CompartmentEE
libmozjs-140.so:_Z28JS_NewBigInt64ArrayFromArrayP9JSContextN2JS6HandleIP8JSObjectEE
libmozjs-140.so:_Z28JS_NewFloat16ArrayWithBufferP9JSContextN2JS6HandleIP8JSObjectEEml
libmozjs-140.so:_Z28JS_NewFloat32ArrayWithBufferP9JSContextN2JS6HandleIP8JSObjectEEml
libmozjs-140.so:_Z28JS_NewFloat64ArrayWithBufferP9JSContextN2JS6HandleIP8JSObjectEEml
libmozjs-140.so:_Z28JS_ReportErrorNumberLatin1VAP9JSContextPFPK19JSErrorFormatStringPvjES4_jP13__va_list_tag
libmozjs-140.so:_Z28JS_SetObjectsTenuredCallbackP9JSContextPFvPN2JS9GCContextEPvES4_
libmozjs-140.so:_Z29JS_GetExternalStringCallbacksP8JSString
libmozjs-140.so:_Z29JS_GetGlobalJitCompilerOptionP9JSContext19JSJitCompilerOptionPj
libmozjs-140.so:_Z29JS_GetInt16ArrayLengthAndDataP8JSObjectPmPbRKN2JS15AutoRequireNoGCE
libmozjs-140.so:_Z29JS_GetInt32ArrayLengthAndDataP8JSObjectPmPbRKN2JS15AutoRequireNoGCE
libmozjs-140.so:_Z29JS_GetObjectAsArrayBufferViewP8JSObjectPmPbPPh
libmozjs-140.so:_Z29JS_GetOwnUCPropertyDescriptorP9JSContextN2JS6HandleIP8JSObjectEEPKDsmNS1_13MutableHandleIN7mozilla5MaybeINS1_18PropertyDescriptorEEEEE
libmozjs-140.so:_Z29JS_GetUint8ArrayLengthAndDataP8JSObjectPmPbRKN2JS15AutoRequireNoGCE
libmozjs-140.so:_Z29JS_InitReadPrincipalsCallbackP9JSContextPFbS0_P23JSStructuredCloneReaderPP12JSPrincipalsE
libmozjs-140.so:_Z29JS_NewBigInt64ArrayWithBufferP9JSContextN2JS6HandleIP8JSObjectEEml
libmozjs-140.so:_Z29JS_NewBigUint64ArrayFromArrayP9JSContextN2JS6HandleIP8JSObjectEE
libmozjs-140.so:_Z29JS_NewMaybeExternalStringUTF8P9JSContextRKN2JS9UTF8CharsEPK25JSExternalStringCallbacksPb
libmozjs-140.so:_Z29JS_ReportErrorNumberUTF8ArrayP9JSContextPFPK19JSErrorFormatStringPvjES4_jPPKc
libmozjs-140.so:_Z29JS_SetGlobalJitCompilerOptionP9JSContext19JSJitCompilerOptionj
libmozjs-140.so:_Z29JS_Utf8BufferIsCompilableUnitP9JSContextN2JS6HandleIP8JSObjectEEPKcm
libmozjs-140.so:_Z30JS_AddWeakPointerZonesCallbackP9JSContextPFvP8JSTracerPvES3_
libmozjs-140.so:_Z30JS_GetArrayBufferViewFixedDataP8JSObjectPhm
libmozjs-140.so:_Z30JS_GetErrorInterceptorCallbackP9JSRuntime
libmozjs-140.so:_Z30JS_GetUint16ArrayLengthAndDataP8JSObjectPmPbRKN2JS15AutoRequireNoGCE
libmozjs-140.so:_Z30JS_GetUint32ArrayLengthAndDataP8JSObjectPmPbRKN2JS15AutoRequireNoGCE
libmozjs-140.so:_Z30JS_LinkConstructorAndPrototypeP9JSContextN2JS6HandleIP8JSObjectEES5_
libmozjs-140.so:_Z30JS_NewBigUint64ArrayWithBufferP9JSContextN2JS6HandleIP8JSObjectEEml
libmozjs-140.so:_Z30JS_NewEnumerateStandardClassesP9JSContextN2JS6HandleIP8JSObjectEENS1_13MutableHandleINS1_13StackGCVectorINS1_11PropertyKeyEN2js15TempAllocPolicyEEEEEb
libmozjs-140.so:_Z30JS_SetErrorInterceptorCallbackP9JSRuntimeP18JSErrorInterceptor
libmozjs-140.so:_Z30JS_UnsafeGetLastProfilingErrorv
libmozjs-140.so:_Z31JS_ExtensibleLexicalEnvironmentP8JSObject
libmozjs-140.so:_Z31JS_GetArrayBufferViewByteLengthP8JSObject
libmozjs-140.so:_Z31JS_GetArrayBufferViewByteOffsetP8JSObject
libmozjs-140.so:_Z31JS_GetFloat16ArrayLengthAndDataP8JSObjectPmPbRKN2JS15AutoRequireNoGCE
libmozjs-140.so:_Z31JS_GetFloat32ArrayLengthAndDataP8JSObjectPmPbRKN2JS15AutoRequireNoGCE
libmozjs-140.so:_Z31JS_GetFloat64ArrayLengthAndDataP8JSObjectPmPbRKN2JS15AutoRequireNoGCE
libmozjs-140.so:_Z31JS_GetObjectAsUint8ClampedArrayP8JSObjectPmPbPPh
libmozjs-140.so:_Z31JS_GetOwnPropertyDescriptorByIdP9JSContextN2JS6HandleIP8JSObjectEENS2_INS1_11PropertyKeyEEENS1_13MutableHandleIN7mozilla5MaybeINS1_18PropertyDescriptorEEEEE
libmozjs-140.so:_Z31JS_IsBuiltinFunctionConstructorP10JSFunction
libmozjs-140.so:_Z31JS_NewMaybeExternalStringLatin1P9JSContextPKhmPK25JSExternalStringCallbacksPb
libmozjs-140.so:_Z32JS_GetBigInt64ArrayLengthAndDataP8JSObjectPmPbRKN2JS15AutoRequireNoGCE
libmozjs-140.so:_Z32JS_GetLatin1StringCharsAndLengthP9JSContextRKN2JS15AutoRequireNoGCEP8JSStringPm
libmozjs-140.so:_Z32JS_GetTwoByteExternalStringCharsP8JSString
libmozjs-140.so:_Z32JS_InitDestroyPrincipalsCallbackP9JSContextPFvP12JSPrincipalsE
libmozjs-140.so:_Z32JS_NewUint8ClampedArrayFromArrayP9JSContextN2JS6HandleIP8JSObjectEE
libmozjs-140.so:_Z32JS_SetDestroyCompartmentCallbackP9JSContextPFvPN2JS9GCContextEPNS1_11CompartmentEE
libmozjs-140.so:_Z33JS_DeprecatedStringHasLatin1CharsP8JSString
libmozjs-140.so:_Z33JS_GetBigUint64ArrayLengthAndDataP8JSObjectPmPbRKN2JS15AutoRequireNoGCE
libmozjs-140.so:_Z33JS_GetTwoByteStringCharsAndLengthP9JSContextRKN2JS15AutoRequireNoGCEP8JSStringPm
libmozjs-140.so:_Z33JS_NewUint8ClampedArrayWithBufferP9JSContextN2JS6HandleIP8JSObjectEEml
libmozjs-140.so:_Z33JS_NondeterministicGetWeakMapKeysP9JSContextN2JS6HandleIP8JSObjectEENS1_13MutableHandleIS4_EE
libmozjs-140.so:_Z33JS_NondeterministicGetWeakSetKeysP9JSContextN2JS6HandleIP8JSObjectEENS1_13MutableHandleIS4_EE
libmozjs-140.so:_Z33JS_RemoveWeakPointerZonesCallbackP9JSContextPFvP8JSTracerPvE
libmozjs-140.so:_Z33JS_SetAccumulateTelemetryCallbackP9JSContextPFv8JSMetricjE
libmozjs-140.so:_Z34JS_EncodeStringToUTF8BufferPartialP9JSContextP8JSStringN7mozilla4SpanIcLm18446744073709551615EEE
libmozjs-140.so:_Z34JS_HasExtensibleLexicalEnvironmentP8JSObject
libmozjs-140.so:_Z34JS_RefreshCrossCompartmentWrappersP9JSContextN2JS6HandleIP8JSObjectEE
libmozjs-140.so:_Z34JS_RequestInterruptCallbackCanWaitP9JSContext
libmozjs-140.so:_Z34JS_StructuredCloneHasTransferablesR21JSStructuredCloneDataPb
libmozjs-140.so:_Z35JS_GetMaybePartialFunctionDisplayIdP10JSFunction
libmozjs-140.so:_Z35JS_TraceShapeCycleCollectorChildrenPN2JS14CallbackTracerENS_9GCCellPtrE
libmozjs-140.so:_Z36JS_AddWeakPointerCompartmentCallbackP9JSContextPFvP8JSTracerPN2JS11CompartmentEPvES6_
libmozjs-140.so:_Z36JS_CopyOwnPropertiesAndPrivateFieldsP9JSContextN2JS6HandleIP8JSObjectEES5_
libmozjs-140.so:_Z36JS_GetUint8ClampedArrayLengthAndDataP8JSObjectPmPbRKN2JS15AutoRequireNoGCE
libmozjs-140.so:_Z36JS_SetAllNonReservedSlotsToUndefinedN2JS6HandleIP8JSObjectEE
libmozjs-140.so:_Z36JS_SetOffthreadIonCompilationEnabledP9JSContextb
libmozjs-140.so:_Z38JS_UpdateWeakPointerAfterGCUnbarrieredP8JSTracerPP8JSObject
libmozjs-140.so:_Z39JS_RemoveWeakPointerCompartmentCallbackP9JSContextPFvP8JSTracerPN2JS11CompartmentEPvE
libmozjs-140.so:_Z40JS_SetGCParametersBasedOnAvailableMemoryP9JSContextj
libmozjs-140.so:_Z41JS_NewObjectWithGivenProtoAndUseAllocSiteP9JSContextPK7JSClassN2JS6HandleIP8JSObjectEE
libmozjs-140.so:_Z41JS_SetOffthreadBaselineCompilationEnabledP9JSContextb
libmozjs-140.so:_Z44JS_SetSizeOfIncludingThisCompartmentCallbackP9JSContextPFmPFmPKvEPN2JS11CompartmentEE
libmozjs-140.so:_Z47JS_NewEnumerateStandardClassesIncludingResolvedP9JSContextN2JS6HandleIP8JSObjectEENS1_13MutableHandleINS1_13StackGCVectorINS1_11PropertyKeyEN2js15TempAllocPolicyEEEEEb
libmozjs-140.so:_Z49JS_InitializePropertiesFromCompatibleNativeObjectP9JSContextN2JS6HandleIP8JSObjectEES5_
libmozjs-140.so:_Z5JS_GCP9JSContextN2JS8GCReasonE
libmozjs-140.so:_Z6JS_Nowv
libmozjs-140.so:_Z7JS_freeP9JSContextPv
libmozjs-140.so:_Z9JS_AssertPKcS0_i
libmozjs-140.so:_Z9JS_mallocP9JSContextm
libmozjs-140.so:_ZN10JSFunction13maybeRelazifyEP9JSRuntime
libmozjs-140.so:_ZN10JSFunction14getDisplayAtomEP9JSContextN2JS13MutableHandleIP6JSAtomEE
libmozjs-140.so:_ZN10JSFunction15getExplicitNameEP9JSContextN2JS13MutableHandleIP6JSAtomEE
libmozjs-140.so:_ZN10JSFunction20initWasmWithJitEntryEPPvPN2js4wasm8InstanceEPKNS3_15SuperTypeVectorES0_
libmozjs-140.so:_ZN10JSFunction22getAccessorNameForLazyEP9JSContext
libmozjs-140.so:_ZN10JSFunction22needsPrototypePropertyEv
libmozjs-140.so:_ZN10JSFunction28isBuiltinFunctionConstructorEv
libmozjs-140.so:_ZN10JSFunction30delazifySelfHostedLazyFunctionEP9JSContextN2JS6HandleIPS_EE
libmozjs-140.so:_ZN10JSFunction33delazifyLazilyInterpretedFunctionEP9JSContextN2JS6HandleIPS_EE
libmozjs-140.so:_ZN10JSFunction39hasNonConfigurablePrototypeDataPropertyEv
libmozjs-140.so:_ZN10JSFunction8initWasmEjPN2js4wasm8InstanceEPKNS1_15SuperTypeVectorEPv
libmozjs-140.so:_ZN11JSAutoRealmC1EP9JSContextP8JSObject
libmozjs-140.so:_ZN11JSAutoRealmC1EP9JSContextP8JSScript
libmozjs-140.so:_ZN11JSAutoRealmC2EP9JSContextP8JSObject
libmozjs-140.so:_ZN11JSAutoRealmC2EP9JSContextP8JSScript
libmozjs-140.so:_ZN11JSAutoRealmD1Ev
libmozjs-140.so:_ZN11JSAutoRealmD2Ev
libmozjs-140.so:_ZN12JSErrorNotes3endEv
libmozjs-140.so:_ZN12JSErrorNotes5beginEv
libmozjs-140.so:_ZN12JSErrorNotes6lengthEv
libmozjs-140.so:_ZN14ProfilingStack18ensureCapacitySlowEv
libmozjs-140.so:_ZN14ProfilingStackD1Ev
libmozjs-140.so:_ZN14ProfilingStackD2Ev
libmozjs-140.so:_ZN15MmapAccessScopeC1EPvjPKc
libmozjs-140.so:_ZN15MmapAccessScopeC2EPvjPKc
libmozjs-140.so:_ZN15MmapAccessScopeD1Ev
libmozjs-140.so:_ZN15MmapAccessScopeD2Ev
libmozjs-140.so:_ZN17double_conversion23DoubleToStringConverter13DoubleToAsciiEdNS0_8DtoaModeEiPciPbPiS4_
libmozjs-140.so:_ZN17double_conversion23DoubleToStringConverter19EcmaScriptConverterEv
libmozjs-140.so:_ZN19JSAutoNullableRealmC1EP9JSContextP8JSObject
libmozjs-140.so:_ZN19JSAutoNullableRealmC2EP9JSContextP8JSObject
libmozjs-140.so:_ZN19JSAutoNullableRealmD1Ev
libmozjs-140.so:_ZN19JSAutoNullableRealmD2Ev
libmozjs-140.so:_ZN21JSStructuredCloneData20discardTransferablesEv
libmozjs-140.so:_ZN21JSStructuredCloneDataD1Ev
libmozjs-140.so:_ZN21JSStructuredCloneDataD2Ev
libmozjs-140.so:_ZN27JSAutoStructuredCloneBuffer4readEP9JSContextN2JS13MutableHandleINS2_5ValueEEERKNS2_15CloneDataPolicyEPK26JSStructuredCloneCallbacksPv
libmozjs-140.so:_ZN27JSAutoStructuredCloneBuffer5adoptEO21JSStructuredCloneDatajPK26JSStructuredCloneCallbacksPv
libmozjs-140.so:_ZN27JSAutoStructuredCloneBuffer5clearEv
libmozjs-140.so:_ZN27JSAutoStructuredCloneBuffer5writeEP9JSContextN2JS6HandleINS2_5ValueEEEPK26JSStructuredCloneCallbacksPv
libmozjs-140.so:_ZN27JSAutoStructuredCloneBuffer5writeEP9JSContextN2JS6HandleINS2_5ValueEEES5_RKNS2_15CloneDataPolicyEPK26JSStructuredCloneCallbacksPv
libmozjs-140.so:_ZN27JSAutoStructuredCloneBuffer6giveToEP21JSStructuredCloneData
libmozjs-140.so:_ZN27JSAutoStructuredCloneBufferC1EOS_
libmozjs-140.so:_ZN27JSAutoStructuredCloneBufferC2EOS_
libmozjs-140.so:_ZN27JSAutoStructuredCloneBufferaSEOS_
libmozjs-140.so:_ZN2JS10EnterRealmEP9JSContextP8JSObject
libmozjs-140.so:_ZN2JS10IsCallableEP8JSObject
libmozjs-140.so:_ZN2JS10LeaveRealmEP9JSContextPNS_5RealmE
libmozjs-140.so:_ZN2JS10MapEntriesEP9JSContextNS_6HandleIP8JSObjectEENS_13MutableHandleINS_5ValueEEE
libmozjs-140.so:_ZN2JS10MapForEachEP9JSContextNS_6HandleIP8JSObjectEENS2_INS_5ValueEEES7_
libmozjs-140.so:_ZN2JS10ModuleLinkEP9JSContextNS_6HandleIP8JSObjectEE
libmozjs-140.so:_ZN2JS10PrintErrorEP8_IO_FILEP13JSErrorReportb
libmozjs-140.so:_ZN2JS10PrintErrorEP8_IO_FILERKNS_18ErrorReportBuilderEb
libmozjs-140.so:_ZN2JS10SetEntriesEP9JSContextNS_6HandleIP8JSObjectEENS_13MutableHandleINS_5ValueEEE
libmozjs-140.so:_ZN2JS10SetForEachEP9JSContextNS_6HandleIP8JSObjectEENS2_INS_5ValueEEES7_
libmozjs-140.so:_ZN2JS10TimeBudget18setDeadlineFromNowEv
libmozjs-140.so:_ZN2JS10ToBigInt64EPKNS_6BigIntE
libmozjs-140.so:_ZN2JS10ToGetterIdEP9JSContextNS_6HandleINS_11PropertyKeyEEENS_13MutableHandleIS3_EE
libmozjs-140.so:_ZN2JS10ToSetterIdEP9JSContextNS_6HandleINS_11PropertyKeyEEENS_13MutableHandleIS3_EE
libmozjs-140.so:_ZN2JS10WarnLatin1EP9JSContextPKcz
libmozjs-140.so:_ZN2JS11ArrayBuffer19GrowableSharedClassE
libmozjs-140.so:_ZN2JS11ArrayBuffer22FixedLengthSharedClassE
libmozjs-140.so:_ZN2JS11ArrayBuffer22ResizableUnsharedClassE
libmozjs-140.so:_ZN2JS11ArrayBuffer24FixedLengthUnsharedClassE
libmozjs-140.so:_ZN2JS11ArrayBuffer6createEP9JSContextm
libmozjs-140.so:_ZN2JS11ArrayBuffer6unwrapEP8JSObject
libmozjs-140.so:_ZN2JS11ArrayBuffer7getDataEPbRKNS_15AutoRequireNoGCE
libmozjs-140.so:_ZN2JS11Compartment10putWrapperEP9JSContextP8JSObjectS4_
libmozjs-140.so:_ZN2JS11Compartment10putWrapperEP9JSContextP8JSStringS4_
libmozjs-140.so:_ZN2JS11Compartment11sweepRealmsEPNS_9GCContextEbb
libmozjs-140.so:_ZN2JS11Compartment13removeWrapperEN2js16ObjectWrapperMap3PtrE
libmozjs-140.so:_ZN2JS11Compartment17sweepAfterMinorGCEP8JSTracer
libmozjs-140.so:_ZN2JS11Compartment18fixupAfterMovingGCEP8JSTracer
libmozjs-140.so:_ZN2JS11Compartment18getOrCreateWrapperEP9JSContextNS_6HandleIP8JSObjectEENS_13MutableHandleIS5_EE
libmozjs-140.so:_ZN2JS11Compartment19findSweepGroupEdgesEv
libmozjs-140.so:_ZN2JS11Compartment22addSizeOfIncludingThisEPFmPKvEPmS5_S5_
libmozjs-140.so:_ZN2JS11Compartment24traceWeakNativeIteratorsEP8JSTracer
libmozjs-140.so:_ZN2JS11Compartment35traceWrapperTargetsInCollectedZonesEP8JSTracerNS0_12EdgeSelectorE
libmozjs-140.so:_ZN2JS11Compartment39traceCrossCompartmentObjectWrapperEdgesEP8JSTracer
libmozjs-140.so:_ZN2JS11Compartment40getNonWrapperObjectForCurrentCompartmentEP9JSContextNS_6HandleIP8JSObjectEENS_13MutableHandleIS5_EE
libmozjs-140.so:_ZN2JS11Compartment43traceIncomingCrossCompartmentEdgesForZoneGCEP8JSTracerNS0_12EdgeSelectorE
libmozjs-140.so:_ZN2JS11Compartment48fixupCrossCompartmentObjectWrappersAfterMovingGCEP8JSTracer
libmozjs-140.so:_ZN2JS11Compartment4wrapEP9JSContextNS_13MutableHandleIN7mozilla5MaybeINS_18PropertyDescriptorEEEEE
libmozjs-140.so:_ZN2JS11Compartment4wrapEP9JSContextNS_13MutableHandleINS_18PropertyDescriptorEEE
libmozjs-140.so:_ZN2JS11Compartment4wrapEP9JSContextNS_13MutableHandleINS_8GCVectorINS_5ValueELm0EN2js15TempAllocPolicyEEEEE
libmozjs-140.so:_ZN2JS11Compartment4wrapEP9JSContextNS_13MutableHandleIP8JSObjectEE
libmozjs-140.so:_ZN2JS11Compartment4wrapEP9JSContextNS_13MutableHandleIP8JSStringEE
libmozjs-140.so:_ZN2JS11Compartment4wrapEP9JSContextNS_13MutableHandleIPNS_6BigIntEEE
libmozjs-140.so:_ZN2JS11Compartment6rewrapEP9JSContextNS_13MutableHandleIP8JSObjectEENS_6HandleIS5_EE
libmozjs-140.so:_ZN2JS11Compartment7destroyEPNS_9GCContextE
libmozjs-140.so:_ZN2JS11CompartmentC1EPNS_4ZoneEb
libmozjs-140.so:_ZN2JS11CompartmentC2EPNS_4ZoneEb
libmozjs-140.so:_ZN2JS11CreateErrorEP9JSContext9JSExnTypeNS_6HandleIP8JSObjectEENS3_IP8JSStringEEjNS_21ColumnNumberOneOriginEP13JSErrorReportS9_NS3_IN7mozilla5MaybeINS_5ValueEEEEENS_13MutableHandleISF_EE
libmozjs-140.so:_ZN2JS11DayFromTimeEd
libmozjs-140.so:_ZN2JS11DayFromYearEd
libmozjs-140.so:_ZN2JS11GetJSTimersEP9JSContext
libmozjs-140.so:_ZN2JS11IsAtomsZoneEPNS_4ZoneE
libmozjs-140.so:_ZN2JS11IsMapObjectEP9JSContextNS_6HandleIP8JSObjectEEPb
libmozjs-140.so:_ZN2JS11IsSetObjectEP9JSContextNS_6HandleIP8JSObjectEEPb
libmozjs-140.so:_ZN2JS11IsValidJSONEPKDsj
libmozjs-140.so:_ZN2JS11IsValidJSONEPKhj
libmozjs-140.so:_ZN2JS11PropertyKey12isNonIntAtomEP6JSAtom
libmozjs-140.so:_ZN2JS11PropertyKey12isNonIntAtomEP8JSString
libmozjs-140.so:_ZN2JS11PropertyKey16fromPinnedStringEP8JSString
libmozjs-140.so:_ZN2JS11SetJobQueueEP9JSContextPNS_8JobQueueE
libmozjs-140.so:_ZN2JS11SliceBudget15checkOverBudgetEv
libmozjs-140.so:_ZN2JS11SliceBudgetC1ENS_10TimeBudgetEPN7mozilla6AtomicIbLNS2_14MemoryOrderingE0EvEE
libmozjs-140.so:_ZN2JS11SliceBudgetC1ENS_10WorkBudgetE
libmozjs-140.so:_ZN2JS11SliceBudgetC2ENS_10TimeBudgetEPN7mozilla6AtomicIbLNS2_14MemoryOrderingE0EvEE
libmozjs-140.so:_ZN2JS11SliceBudgetC2ENS_10WorkBudgetE
libmozjs-140.so:_ZN2JS11ToBigUint64EPKNS_6BigIntE
libmozjs-140.so:_ZN2JS11ToPrimitiveEP9JSContextNS_6HandleIP8JSObjectEE6JSTypeNS_13MutableHandleINS_5ValueEEE
libmozjs-140.so:_ZN2JS12AddSizeOfTabEP9JSContextNS_6HandleIP8JSObjectEEPFmPKvEPNS_20ObjectPrivateVisitorEPNS_8TabSizesE
libmozjs-140.so:_ZN2JS12AutoFilename10setUnownedEPKc
libmozjs-140.so:_ZN2JS12AutoFilename15setScriptSourceEPN2js12ScriptSourceE
libmozjs-140.so:_ZN2JS12AutoFilename5resetEv
libmozjs-140.so:_ZN2JS12AutoFilename8setOwnedEON7mozilla9UniquePtrIA_cNS_10FreePolicyEEE
libmozjs-140.so:_ZN2JS12AutoGCRooter5traceEP8JSTracer
libmozjs-140.so:_ZN2JS12Dispatchable17ReleaseFailedTaskEON7mozilla9UniquePtrIS0_NS_12DeletePolicyIS0_EEEE
libmozjs-140.so:_ZN2JS12Dispatchable3RunEP9JSContextON7mozilla9UniquePtrIS0_NS_12DeletePolicyIS0_EEEENS0_17MaybeShuttingDownE
libmozjs-140.so:_ZN2JS12GetPromiseIDENS_6HandleIP8JSObjectEE
libmozjs-140.so:_ZN2JS12GetSymbolForEP9JSContextNS_6HandleIP8JSStringEE
libmozjs-140.so:_ZN2JS12LooselyEqualEP9JSContextNS_6HandleINS_5ValueEEES4_Pb
libmozjs-140.so:_ZN2JS12NewMapObjectEP9JSContext
libmozjs-140.so:_ZN2JS12NewSetObjectEP9JSContext
libmozjs-140.so:_ZN2JS12ObjectIsDateEP9JSContextNS_6HandleIP8JSObjectEEPb
libmozjs-140.so:_ZN2JS12ProtoKeyToIdEP9JSContext10JSProtoKeyNS_13MutableHandleINS_11PropertyKeyEEE
libmozjs-140.so:_ZN2JS12YearFromTimeEd
libmozjs-140.so:_ZN2JS13CompileModuleEP9JSContextRKNS_22ReadOnlyCompileOptionsERNS_10SourceTextIDsEE
libmozjs-140.so:_ZN2JS13CompileModuleEP9JSContextRKNS_22ReadOnlyCompileOptionsERNS_10SourceTextIN7mozilla8Utf8UnitEEE
libmozjs-140.so:_ZN2JS13DayWithinYearEdd
libmozjs-140.so:_ZN2JS13DecodeStencilEP9JSContextRKNS_21ReadOnlyDecodeOptionsERKN7mozilla5RangeIKhEEPPN2js8frontend32InitialStencilAndDelazificationsE
libmozjs-140.so:_ZN2JS13DecodeStencilEPN2js15FrontendContextERKNS_21ReadOnlyDecodeOptionsERKN7mozilla5RangeIKhEEPPNS0_8frontend32InitialStencilAndDelazificationsE
libmozjs-140.so:_ZN2JS13EncodeStencilEP9JSContextPN2js8frontend32InitialStencilAndDelazificationsERN7mozilla6VectorIhLm0ENS6_17MallocAllocPolicyEEE
libmozjs-140.so:_ZN2JS13ExecuteRegExpEP9JSContextNS_6HandleIP8JSObjectEES5_PKDsmPmbNS_13MutableHandleINS_5ValueEEE
libmozjs-140.so:_ZN2JS13ForOfIterator10closeThrowEv
libmozjs-140.so:_ZN2JS13ForOfIterator4initENS_6HandleINS_5ValueEEENS0_19NonIterableBehaviorE
libmozjs-140.so:_ZN2JS13ForOfIterator4nextENS_13MutableHandleINS_5ValueEEEPb
libmozjs-140.so:_ZN2JS13GetObjectZoneEP8JSObject
libmozjs-140.so:_ZN2JS13GetSymbolCodeENS_6HandleIPNS_6SymbolEEE
libmozjs-140.so:_ZN2JS13GetWasmModuleENS_6HandleIP8JSObjectEE
libmozjs-140.so:_ZN2JS13IsArrayObjectEP9JSContextNS_6HandleINS_5ValueEEEPb
libmozjs-140.so:_ZN2JS13IsArrayObjectEP9JSContextNS_6HandleIP8JSObjectEEPb
libmozjs-140.so:_ZN2JS13IsConstructorEP8JSObject
libmozjs-140.so:_ZN2JS13IsGCPoisoningEv
libmozjs-140.so:_ZN2JS13IsGCScheduledEP9JSContext
libmozjs-140.so:_ZN2JS13IterateRealmsEP9JSContextPvPFvS1_S2_PNS_5RealmERKNS_15AutoRequireNoGCEE
libmozjs-140.so:_ZN2JS13MinorGcToJSONEP9JSContext
libmozjs-140.so:_ZN2JS13MonthFromTimeEd
libmozjs-140.so:_ZN2JS13NewDateObjectEP9JSContextNS_11ClippedTimeE
libmozjs-140.so:_ZN2JS13NewDateObjectEP9JSContextiiiiii
libmozjs-140.so:_ZN2JS13PurgePCCountsEP9JSContext
libmozjs-140.so:_ZN2JS13RejectPromiseEP9JSContextNS_6HandleIP8JSObjectEENS2_INS_5ValueEEE
libmozjs-140.so:_ZN2JS13ResetTimeZoneEv
libmozjs-140.so:_ZN2JS13SizeOfStencilEPN2js8frontend32InitialStencilAndDelazificationsEPFmPKvE
libmozjs-140.so:_ZN2JS13SkipZoneForGCEP9JSContextPNS_4ZoneE
libmozjs-140.so:_ZN2JS13StencilAddRefEPN2js8frontend32InitialStencilAndDelazificationsE
libmozjs-140.so:_ZN2JS13StrictlyEqualEP9JSContextNS_6HandleINS_5ValueEEES4_Pb
libmozjs-140.so:_ZN2JS13StringIsASCIIEN7mozilla4SpanIKcLm18446744073709551615EEE
libmozjs-140.so:_ZN2JS13StringIsASCIIEPKc
libmozjs-140.so:_ZN2JS13TraceChildrenEP8JSTracerNS_9GCCellPtrE
libmozjs-140.so:_ZN2JS14AddServoSizeOfEP9JSContextPFmPKvEPNS_20ObjectPrivateVisitorEPNS_10ServoSizesE
libmozjs-140.so:_ZN2JS14BigIntToNumberEPKNS_6BigIntE
libmozjs-140.so:_ZN2JS14BigIntToStringEP9JSContextNS_6HandleIPNS_6BigIntEEEh
libmozjs-140.so:_ZN2JS14CallbackTracerC1EP9JSContextNS_10TracerKindENS_12TraceOptionsE
libmozjs-140.so:_ZN2JS14CallbackTracerC2EP9JSContextNS_10TracerKindENS_12TraceOptionsE
libmozjs-140.so:_ZN2JS14CompileOptions27setIntroductionInfoToCallerEP9JSContextPKcNS_13MutableHandleIP8JSScriptEE
libmozjs-140.so:_ZN2JS14CompileOptionsC1EP9JSContext
libmozjs-140.so:_ZN2JS14CompileOptionsC2EP9JSContext
libmozjs-140.so:_ZN2JS14ContextOptions10setFuzzingEb
libmozjs-140.so:_ZN2JS14CopyAsyncStackEP9JSContextNS_6HandleIP8JSObjectEENS2_IP8JSStringEENS_13MutableHandleIS4_EERKN7mozilla5MaybeImEE
libmozjs-140.so:_ZN2JS14GetArrayLengthEP9JSContextNS_6HandleIP8JSObjectEEPj
libmozjs-140.so:_ZN2JS14GetGCPhaseNameEj
libmozjs-140.so:_ZN2JS14GetRegExpFlagsEP9JSContextNS_6HandleIP8JSObjectEE
libmozjs-140.so:_ZN2JS14IsCyclicModuleEP8JSObject
libmozjs-140.so:_ZN2JS14IsISOStyleDateEP9JSContextRKNS_11Latin1CharsE
libmozjs-140.so:_ZN2JS14ModuleEvaluateEP9JSContextNS_6HandleIP8JSObjectEENS_13MutableHandleINS_5ValueEEE
libmozjs-140.so:_ZN2JS14ModuleIsLinkedEP8JSObject
libmozjs-140.so:_ZN2JS14NewArrayBufferEP9JSContextm
libmozjs-140.so:_ZN2JS14NewArrayObjectEP9JSContextRKNS_16HandleValueArrayE
libmozjs-140.so:_ZN2JS14NewArrayObjectEP9JSContextm
libmozjs-140.so:_ZN2JS14NumberToBigIntEP9JSContextd
libmozjs-140.so:_ZN2JS14NumberToStringEdRA32_c
libmozjs-140.so:_ZN2JS14ObjectIsRegExpEP9JSContextNS_6HandleIP8JSObjectEEPb
libmozjs-140.so:_ZN2JS14ObjectOpResult12failBadIndexEv
libmozjs-140.so:_ZN2JS14ObjectOpResult12failReadOnlyEv
libmozjs-140.so:_ZN2JS14ObjectOpResult14failCantDeleteEv
libmozjs-140.so:_ZN2JS14ObjectOpResult14failGetterOnlyEv
libmozjs-140.so:_ZN2JS14ObjectOpResult16failCantSetProtoEv
libmozjs-140.so:_ZN2JS14ObjectOpResult17failNoNamedSetterEv
libmozjs-140.so:_ZN2JS14ObjectOpResult18failBadArrayLengthEv
libmozjs-140.so:_ZN2JS14ObjectOpResult19failNoIndexedSetterEv
libmozjs-140.so:_ZN2JS14ObjectOpResult20failCantRedefinePropEv
libmozjs-140.so:_ZN2JS14ObjectOpResult21failCantSetInterposedEv
libmozjs-140.so:_ZN2JS14ObjectOpResult21failInvalidDescriptorEv
libmozjs-140.so:_ZN2JS14ObjectOpResult21failNotDataDescriptorEv
libmozjs-140.so:_ZN2JS14ObjectOpResult25failCantPreventExtensionsEv
libmozjs-140.so:_ZN2JS14ObjectOpResult27failCantDefineWindowElementEv
libmozjs-140.so:_ZN2JS14ObjectOpResult27failCantDeleteWindowElementEv
libmozjs-140.so:_ZN2JS14ObjectOpResult33failCantDefineWindowNamedPropertyEv
libmozjs-140.so:_ZN2JS14ObjectOpResult33failCantDeleteWindowNamedPropertyEv
libmozjs-140.so:_ZN2JS14ObjectOpResult35failCantDefineWindowNonConfigurableEv
libmozjs-140.so:_ZN2JS14ResolvePromiseEP9JSContextNS_6HandleIP8JSObjectEENS2_INS_5ValueEEE
libmozjs-140.so:_ZN2JS14SetArrayLengthEP9JSContextNS_6HandleIP8JSObjectEEj
libmozjs-140.so:_ZN2JS14SetBrittleModeEP9JSContextb
libmozjs-140.so:_ZN2JS14SetRegExpInputEP9JSContextNS_6HandleIP8JSObjectEENS2_IP8JSStringEE
libmozjs-140.so:_ZN2JS14SetXrayJitInfoEPNS_11XrayJitInfoE
libmozjs-140.so:_ZN2JS14StencilReleaseEPN2js8frontend32InitialStencilAndDelazificationsE
libmozjs-140.so:_ZN2JS14StringToBigIntEP9JSContextRKN7mozilla5RangeIKDsEE
libmozjs-140.so:_ZN2JS14StringToBigIntEP9JSContextRKN7mozilla5RangeIKhEE
libmozjs-140.so:_ZN2JS14UserRealmCountEP9JSContext
libmozjs-140.so:_ZN2JS15ArrayBufferView7getDataEPbRKNS_15AutoRequireNoGCE
libmozjs-140.so:_ZN2JS15CompileFunctionEP9JSContextRKNS_16EnvironmentChainERKNS_22ReadOnlyCompileOptionsEPKcjPKS9_RNS_10SourceTextIDsEE
libmozjs-140.so:_ZN2JS15CompileFunctionEP9JSContextRKNS_16EnvironmentChainERKNS_22ReadOnlyCompileOptionsEPKcjPKS9_RNS_10SourceTextIN7mozilla8Utf8UnitEEE
libmozjs-140.so:_ZN2JS15CompileUtf8FileEP9JSContextRKNS_22ReadOnlyCompileOptionsEP8_IO_FILE
libmozjs-140.so:_ZN2JS15CompileUtf8PathEP9JSContextRKNS_22ReadOnlyCompileOptionsEPKc
libmozjs-140.so:_ZN2JS15CopyArrayBufferEP9JSContextNS_6HandleIP8JSObjectEE
libmozjs-140.so:_ZN2JS15ExplainGCReasonENS_8GCReasonE
libmozjs-140.so:_ZN2JS15FormatStackDumpEP9JSContextbbb
libmozjs-140.so:_ZN2JS15GCTraceKindSizeENS_9TraceKindE
libmozjs-140.so:_ZN2JS15GetBuiltinClassEP9JSContextNS_6HandleIP8JSObjectEEPN2js7ESClassE
libmozjs-140.so:_ZN2JS15GetModuleObjectENS_6HandleIP8JSScriptEE
libmozjs-140.so:_ZN2JS15GetModuleScriptENS_6HandleIP8JSObjectEE
libmozjs-140.so:_ZN2JS15GetPromiseStateENS_6HandleIP8JSObjectEE
libmozjs-140.so:_ZN2JS15GetRealmPrivateEPNS_5RealmE
libmozjs-140.so:_ZN2JS15GetRegExpSourceEP9JSContextNS_6HandleIP8JSObjectEE
libmozjs-140.so:_ZN2JS15GetWeakMapEntryEP9JSContextNS_6HandleIP8JSObjectEENS2_INS_5ValueEEENS_13MutableHandleIS6_EE
libmozjs-140.so:_ZN2JS15IsPromiseObjectENS_6HandleIP8JSObjectEE
libmozjs-140.so:_ZN2JS15IsWeakMapObjectEP8JSObject
libmozjs-140.so:_ZN2JS15JobQueueIsEmptyEP9JSContext
libmozjs-140.so:_ZN2JS15NewRegExpObjectEP9JSContextPKcmNS_11RegExpFlagsE
libmozjs-140.so:_ZN2JS15NullHandleValueE
libmozjs-140.so:_ZN2JS15SetRealmNonLiveEPNS_5RealmE
libmozjs-140.so:_ZN2JS15SetRealmPrivateEPNS_5RealmEPv
libmozjs-140.so:_ZN2JS15SetWaitCallbackEP9JSRuntimePFPvPhEPFvS2_Em
libmozjs-140.so:_ZN2JS15SetWeakMapEntryEP9JSContextNS_6HandleIP8JSObjectEENS2_INS_5ValueEEES7_
libmozjs-140.so:_ZN2JS15TrueHandleValueE
libmozjs-140.so:_ZN2JS15TypedArray_base10fromObjectEP8JSObject
libmozjs-140.so:_ZN2JS15TypedArray_base16resizableClassesE
libmozjs-140.so:_ZN2JS15TypedArray_base18fixedLengthClassesE
libmozjs-140.so:_ZN2JS16ArrayBufferCloneEP9JSContextNS_6HandleIP8JSObjectEEmm
libmozjs-140.so:_ZN2JS16BigIntFitsNumberEPKNS_6BigIntEPd
libmozjs-140.so:_ZN2JS16BigIntIsNegativeEPKNS_6BigIntE
libmozjs-140.so:_ZN2JS16BuildStackStringEP9JSContextP12JSPrincipalsNS_6HandleIP8JSObjectEENS_13MutableHandleIP8JSStringEEmN2js11StackFormatE
libmozjs-140.so:_ZN2JS16ClearKeptObjectsEP9JSContext
libmozjs-140.so:_ZN2JS16EncodeUtf8ToWideEP9JSContextPKc
libmozjs-140.so:_ZN2JS16EncodeWideToUtf8EP9JSContextPKw
libmozjs-140.so:_ZN2JS16EvaluateUtf8PathEP9JSContextRKNS_22ReadOnlyCompileOptionsEPKcNS_13MutableHandleINS_5ValueEEE
libmozjs-140.so:_ZN2JS16FalseHandleValueE
libmozjs-140.so:_ZN2JS16GCThingTraceKindEPv
libmozjs-140.so:_ZN2JS16GetFunctionRealmEP9JSContextNS_6HandleIP8JSObjectEE
libmozjs-140.so:_ZN2JS16GetModulePrivateEP8JSObject
libmozjs-140.so:_ZN2JS16GetPromiseResultENS_6HandleIP8JSObjectEE
libmozjs-140.so:_ZN2JS16GetScriptPrivateEP8JSScript
libmozjs-140.so:_ZN2JS16InternalGCReasonENS_8GCReasonE
libmozjs-140.so:_ZN2JS16IsJSMEnvironmentEP8JSObject
libmozjs-140.so:_ZN2JS16NewPromiseObjectEP9JSContextNS_6HandleIP8JSObjectEE
libmozjs-140.so:_ZN2JS16NewWeakMapObjectEP9JSContext
libmozjs-140.so:_ZN2JS16NonIncrementalGCEP9JSContextNS_9GCOptionsENS_8GCReasonE
libmozjs-140.so:_ZN2JS16PrepareForFullGCEP9JSContext
libmozjs-140.so:_ZN2JS16PrepareZoneForGCEP9JSContextPNS_4ZoneE
libmozjs-140.so:_ZN2JS16RuntimeHeapStateEv
libmozjs-140.so:_ZN2JS16SetModulePrivateEP8JSObjectRKNS_5ValueE
libmozjs-140.so:_ZN2JS16SetScriptPrivateEP8JSScriptRKNS_5ValueE
libmozjs-140.so:_ZN2JS16SystemRealmCountEP9JSContext
libmozjs-140.so:_ZN2JS16WantEagerMajorGCEP9JSRuntime
libmozjs-140.so:_ZN2JS16WantEagerMinorGCEP9JSRuntime
libmozjs-140.so:_ZN2JS16WasIncrementalGCEP9JSRuntime
libmozjs-140.so:_ZN2JS17AddPersistentRootEP9JSRuntimeNS_8RootKindEPN2js20PersistentRootedBaseE
libmozjs-140.so:_ZN2JS17AddPersistentRootEPNS_14RootingContextENS_8RootKindEPN2js20PersistentRootedBaseE
libmozjs-140.so:_ZN2JS17ArrayBufferOrView6unwrapEP8JSObject
libmozjs-140.so:_ZN2JS17CheckRegExpSyntaxEP9JSContextPKDsmNS_11RegExpFlagsENS_13MutableHandleINS_5ValueEEE
libmozjs-140.so:_ZN2JS17CompileJsonModuleEP9JSContextRKNS_22ReadOnlyCompileOptionsERNS_10SourceTextIDsEE
libmozjs-140.so:_ZN2JS17CompileJsonModuleEP9JSContextRKNS_22ReadOnlyCompileOptionsERNS_10SourceTextIN7mozilla8Utf8UnitEEE
libmozjs-140.so:_ZN2JS17ContextOptionsRefEP9JSContext
libmozjs-140.so:_ZN2JS17DetachArrayBufferEP9JSContextNS_6HandleIP8JSObjectEE
libmozjs-140.so:_ZN2JS17DisableJitBackendEv
libmozjs-140.so:_ZN2JS17GetExceptionCauseEP8JSObject
libmozjs-140.so:_ZN2JS17GetProfiledFramesEP9JSContextPv
libmozjs-140.so:_ZN2JS17GetRealmKeyObjectEP9JSContext
libmozjs-140.so:_ZN2JS17GetSavedFrameLineEP9JSContextP12JSPrincipalsNS_6HandleIP8JSObjectEEPjNS_20SavedFrameSelfHostedE
libmozjs-140.so:_ZN2JS17HadFrontendErrorsEPN2js15FrontendContextE
libmozjs-140.so:_ZN2JS17NewJSMEnvironmentEP9JSContext
libmozjs-140.so:_ZN2JS17NewUCRegExpObjectEP9JSContextPKDsmNS_11RegExpFlagsE
libmozjs-140.so:_ZN2JS17RealmBehaviorsRefEP9JSContext
libmozjs-140.so:_ZN2JS17RealmBehaviorsRefEPNS_5RealmE
libmozjs-140.so:_ZN2JS17SetLowMemoryStateEP9JSContextb
libmozjs-140.so:_ZN2JS17StencilIsBorrowedEPN2js8frontend32InitialStencilAndDelazificationsE
libmozjs-140.so:_ZN2JS17ToJSONMaybeSafelyEP9JSContextNS_6HandleIP8JSObjectEEPFbPKDsjPvES8_
libmozjs-140.so:_ZN2JS17UnwrapArrayBufferEP8JSObject
libmozjs-140.so:_ZN2JS17Utf8ToOneUcs4CharEPKhi
libmozjs-140.so:_ZN2JS18AbortIncrementalGCEP9JSContext
libmozjs-140.so:_ZN2JS18ArrayBufferHasDataEP8JSObject
libmozjs-140.so:_ZN2JS18ClearModulePrivateEP8JSObject
libmozjs-140.so:_ZN2JS18ClearRegExpStaticsEP9JSContextNS_6HandleIP8JSObjectEE
libmozjs-140.so:_ZN2JS18CollectGlobalStatsEPNS_11GlobalStatsE
libmozjs-140.so:_ZN2JS18EncodeNarrowToUtf8EP9JSContextPKc
libmozjs-140.so:_ZN2JS18EncodeUtf8ToNarrowEP9JSContextPKc
libmozjs-140.so:_ZN2JS18ErrorReportBuilder35populateUncaughtExceptionReportUTF8EP9JSContextNS_6HandleIP8JSObjectEEz
libmozjs-140.so:_ZN2JS18ErrorReportBuilder37populateUncaughtExceptionReportUTF8VAEP9JSContextNS_6HandleIP8JSObjectEEP13__va_list_tag
libmozjs-140.so:_ZN2JS18ErrorReportBuilder4initEP9JSContextRKNS_14ExceptionStackENS0_16SniffingBehaviorE
libmozjs-140.so:_ZN2JS18ErrorReportBuilderC1EP9JSContext
libmozjs-140.so:_ZN2JS18ErrorReportBuilderC2EP9JSContext
libmozjs-140.so:_ZN2JS18ErrorReportBuilderD1Ev
libmozjs-140.so:_ZN2JS18ErrorReportBuilderD2Ev
libmozjs-140.so:_ZN2JS18FirstSubsumedFrameC1EP9JSContextb
libmozjs-140.so:_ZN2JS18FirstSubsumedFrameC2EP9JSContextb
libmozjs-140.so:_ZN2JS18GCTraceKindToAsciiENS_9TraceKindE
libmozjs-140.so:_ZN2JS18GetArrayBufferDataEP8JSObjectPbRKNS_15AutoRequireNoGCE
libmozjs-140.so:_ZN2JS18GetIsSecureContextEPNS_5RealmE
libmozjs-140.so:_ZN2JS18GetModuleNamespaceEP9JSContextNS_6HandleIP8JSObjectEE
libmozjs-140.so:_ZN2JS18GetNurseryCellZoneEPN2js2gc4CellE
libmozjs-140.so:_ZN2JS18GetRealmPrincipalsEPNS_5RealmE
libmozjs-140.so:_ZN2JS18GetWarningReporterEP9JSContext
libmozjs-140.so:_ZN2JS18GetWellKnownSymbolEP9JSContextNS_10SymbolCodeE
libmozjs-140.so:_ZN2JS18HideScriptedCallerEP9JSContext
libmozjs-140.so:_ZN2JS18IncrementalGCSliceEP9JSContextNS_8GCReasonERKNS_11SliceBudgetE
libmozjs-140.so:_ZN2JS18InitSelfHostedCodeEP9JSContextN7mozilla4SpanIKhLm18446744073709551615EEEPFbS1_S5_E
libmozjs-140.so:_ZN2JS18InstantiateOptionsC1Ev
libmozjs-140.so:_ZN2JS18InstantiateOptionsC2Ev
libmozjs-140.so:_ZN2JS18IsStencilCacheableEPN2js8frontend32InitialStencilAndDelazificationsE
libmozjs-140.so:_ZN2JS18IsWasmModuleObjectENS_6HandleIP8JSObjectEE
libmozjs-140.so:_ZN2JS18NewFrontendContextEv
libmozjs-140.so:_ZN2JS18NothingHandleValueE
libmozjs-140.so:_ZN2JS18PropertyDescriptor5traceEP8JSTracer
libmozjs-140.so:_ZN2JS18SetGCSliceCallbackEP9JSContextPFvS1_NS_10GCProgressERKNS_13GCDescriptionEE
libmozjs-140.so:_ZN2JS18SetRealmPrincipalsEPNS_5RealmEP12JSPrincipals
libmozjs-140.so:_ZN2JS18SetWarningReporterEP9JSContextPFvS1_P13JSErrorReportE
libmozjs-140.so:_ZN2JS18ShutdownAsyncTasksEP9JSContext
libmozjs-140.so:_ZN2JS18StartIncrementalGCEP9JSContextNS_9GCOptionsENS_8GCReasonERKNS_11SliceBudgetE
libmozjs-140.so:_ZN2JS19AddAssociatedMemoryEP8JSObjectmNS_9MemoryUseE
libmozjs-140.so:_ZN2JS19AddPromiseReactionsEP9JSContextNS_6HandleIP8JSObjectEES5_S5_
libmozjs-140.so:_ZN2JS19ArrayBufferCopyDataEP9JSContextNS_6HandleIP8JSObjectEEmS5_mm
libmozjs-140.so:_ZN2JS19CaptureCurrentStackEP9JSContextNS_13MutableHandleIP8JSObjectEEON7mozilla7VariantIJNS_9AllFramesENS_9MaxFramesENS_18FirstSubsumedFrameEEEENS_6HandleIS4_EE
libmozjs-140.so:_ZN2JS19ClearFrontendErrorsEPN2js15FrontendContextE
libmozjs-140.so:_ZN2JS19CollectRuntimeStatsEP9JSContextPNS_12RuntimeStatsEPNS_20ObjectPrivateVisitorEb
libmozjs-140.so:_ZN2JS19CompileFunctionUtf8EP9JSContextRKNS_16EnvironmentChainERKNS_22ReadOnlyCompileOptionsEPKcjPKS9_S9_m
libmozjs-140.so:_ZN2JS19CreateModuleRequestEP9JSContextNS_6HandleIP8JSStringEENS_10ModuleTypeE
libmozjs-140.so:_ZN2JS19CurrentGlobalOrNullEP9JSContext
libmozjs-140.so:_ZN2JS19FinishIncrementalGCEP9JSContextNS_8GCReasonE
libmozjs-140.so:_ZN2JS19GetPromiseIsHandledENS_6HandleIP8JSObjectEE
libmozjs-140.so:_ZN2JS19GetPromisePrototypeEP9JSContext
libmozjs-140.so:_ZN2JS19GetSavedFrameColumnEP9JSContextP12JSPrincipalsNS_6HandleIP8JSObjectEEPNS_27TaggedColumnNumberOneOriginENS_20SavedFrameSelfHostedE
libmozjs-140.so:_ZN2JS19GetSavedFrameParentEP9JSContextP12JSPrincipalsNS_6HandleIP8JSObjectEENS_13MutableHandleIS6_EENS_20SavedFrameSelfHostedE
libmozjs-140.so:_ZN2JS19GetSavedFrameSourceEP9JSContextP12JSPrincipalsNS_6HandleIP8JSObjectEENS_13MutableHandleIP8JSStringEENS_20SavedFrameSelfHostedE
libmozjs-140.so:_ZN2JS19IsArrayBufferObjectEP8JSObject
libmozjs-140.so:_ZN2JS19NewFunctionFromSpecEP9JSContextPK14JSFunctionSpec
libmozjs-140.so:_ZN2JS19NewFunctionFromSpecEP9JSContextPK14JSFunctionSpecNS_6HandleINS_11PropertyKeyEEE
libmozjs-140.so:_ZN2JS19OrdinaryHasInstanceEP9JSContextNS_6HandleIP8JSObjectEENS2_INS_5ValueEEEPb
libmozjs-140.so:_ZN2JS19OrdinaryToPrimitiveEP9JSContextNS_6HandleIP8JSObjectEE6JSTypeNS_13MutableHandleINS_5ValueEEE
libmozjs-140.so:_ZN2JS19OwningDecodeOptions14infallibleCopyERKNS_21ReadOnlyDecodeOptionsE
libmozjs-140.so:_ZN2JS19OwningDecodeOptions4copyEPN2js15FrontendContextERKNS_21ReadOnlyDecodeOptionsE
libmozjs-140.so:_ZN2JS19OwningDecodeOptions7releaseEv
libmozjs-140.so:_ZN2JS19OwningDecodeOptionsD1Ev
libmozjs-140.so:_ZN2JS19OwningDecodeOptionsD2Ev
libmozjs-140.so:_ZN2JS19PeakSizeOfTemporaryEPK9JSContext
libmozjs-140.so:_ZN2JS19RunHelperThreadTaskEPNS_16HelperThreadTaskE
libmozjs-140.so:_ZN2JS19SetLoggingInterfaceERNS_16LoggingInterfaceE
libmozjs-140.so:_ZN2JS19SetNativeStackQuotaEPN2js15FrontendContextEm
libmozjs-140.so:_ZN2JS19SetProcessBuildIdOpEPFbPN7mozilla6VectorIcLm0EN2js17SystemAllocPolicyEEEE
libmozjs-140.so:_ZN2JS19UpdateDebugMetadataEP9JSContextNS_6HandleIP8JSScriptEERKNS_18InstantiateOptionsENS2_INS_5ValueEEENS2_IP8JSStringEES5_S5_
libmozjs-140.so:_ZN2JS20ExceptionStackOrNullENS_6HandleIP8JSObjectEE
libmozjs-140.so:_ZN2JS20ExplainGCAbortReasonEj
libmozjs-140.so:_ZN2JS20FindSmallestEncodingERKNS_9UTF8CharsE
libmozjs-140.so:_ZN2JS20GetFrontendWarningAtEPN2js15FrontendContextEmRKNS_22ReadOnlyCompileOptionsE
libmozjs-140.so:_ZN2JS20GetModuleEnvironmentEP9JSContextNS_6HandleIP8JSObjectEE
libmozjs-140.so:_ZN2JS20GetModuleRequestTypeEP9JSContextNS_6HandleIP8JSObjectEE
libmozjs-140.so:_ZN2JS20GetModuleResolveHookEP9JSRuntime
libmozjs-140.so:_ZN2JS20GetObjectRealmOrNullEP8JSObject
libmozjs-140.so:_ZN2JS20GetRealmGlobalOrNullEPNS_5RealmE
libmozjs-140.so:_ZN2JS20GetSymbolDescriptionENS_6HandleIPNS_6SymbolEEE
libmozjs-140.so:_ZN2JS20GetWaitForAllPromiseEP9JSContextNS_6HandleINS_13StackGCVectorIP8JSObjectN2js15TempAllocPolicyEEEEE
libmozjs-140.so:_ZN2JS20InstantiationStorageD1Ev
libmozjs-140.so:_ZN2JS20InstantiationStorageD2Ev
libmozjs-140.so:_ZN2JS20NewSharedArrayBufferEP9JSContextm
libmozjs-140.so:_ZN2JS20NotifyGCRootsRemovedEP9JSContext
libmozjs-140.so:_ZN2JS20OwningCompileOptions4copyEP9JSContextRKNS_22ReadOnlyCompileOptionsE
libmozjs-140.so:_ZN2JS20OwningCompileOptions4copyEPN2js15FrontendContextERKNS_22ReadOnlyCompileOptionsE
libmozjs-140.so:_ZN2JS20OwningCompileOptions5stealEONS_19OwningDecodeOptionsE
libmozjs-140.so:_ZN2JS20OwningCompileOptions5stealEOS0_
libmozjs-140.so:_ZN2JS20OwningCompileOptions7releaseEv
libmozjs-140.so:_ZN2JS20OwningCompileOptionsC1EP9JSContext
libmozjs-140.so:_ZN2JS20OwningCompileOptionsC2EP9JSContext
libmozjs-140.so:_ZN2JS20OwningCompileOptionsD1Ev
libmozjs-140.so:_ZN2JS20OwningCompileOptionsD2Ev
libmozjs-140.so:_ZN2JS20ParseJSONWithHandlerEPKDsjPNS_16JSONParseHandlerE
libmozjs-140.so:_ZN2JS20ParseJSONWithHandlerEPKhjPNS_16JSONParseHandlerE
libmozjs-140.so:_ZN2JS20RealmCreationOptions14setLocaleCopyZEPKc
libmozjs-140.so:_ZN2JS20RealmCreationOptions21setCoopAndCoepEnabledEb
libmozjs-140.so:_ZN2JS20RealmCreationOptions22setExistingCompartmentEP8JSObject
libmozjs-140.so:_ZN2JS20RealmCreationOptions22setExistingCompartmentEPNS_11CompartmentE
libmozjs-140.so:_ZN2JS20RealmCreationOptions24setNewCompartmentAndZoneEv
libmozjs-140.so:_ZN2JS20RealmCreationOptions29setNewCompartmentInSystemZoneEv
libmozjs-140.so:_ZN2JS20RealmCreationOptions31setNewCompartmentInExistingZoneEP8JSObject
libmozjs-140.so:_ZN2JS20RealmCreationOptions32setSharedMemoryAndAtomicsEnabledEb
libmozjs-140.so:_ZN2JS20RunNurseryCollectionEP9JSRuntimeNS_8GCReasonEN7mozilla16BaseTimeDurationINS3_27TimeDurationValueCalculatorEEE
libmozjs-140.so:_ZN2JS20SetModuleResolveHookEP9JSRuntimePFP8JSObjectP9JSContextNS_6HandleINS_5ValueEEENS6_IS3_EEE
libmozjs-140.so:_ZN2JS20SetRealmNameCallbackEP9JSContextPFvS1_PNS_5RealmEPcmRKNS_15AutoRequireNoGCEE
libmozjs-140.so:_ZN2JS20SimpleStringToBigIntEP9JSContextN7mozilla4SpanIKcLm18446744073709551615EEEh
libmozjs-140.so:_ZN2JS20StopPCCountProfilingEP9JSContext
libmozjs-140.so:_ZN2JS20UndefinedHandleValueE
libmozjs-140.so:_ZN2JS20UnhideScriptedCallerEP9JSContext
libmozjs-140.so:_ZN2JS20UserCompartmentCountEP9JSContext
libmozjs-140.so:_ZN2JS21AtomsZoneIsCollectingEP9JSRuntime
libmozjs-140.so:_ZN2JS21AutoStableStringChars11initTwoByteEP9JSContextP8JSString
libmozjs-140.so:_ZN2JS21AutoStableStringChars15copyLatin1CharsEP9JSContextNS_6HandleIP14JSLinearStringEE
libmozjs-140.so:_ZN2JS21AutoStableStringChars15holdStableCharsEP14JSLinearString
libmozjs-140.so:_ZN2JS21AutoStableStringChars16copyTwoByteCharsEP9JSContextNS_6HandleIP14JSLinearStringEE
libmozjs-140.so:_ZN2JS21AutoStableStringChars25copyAndInflateLatin1CharsEP9JSContextNS_6HandleIP14JSLinearStringEE
libmozjs-140.so:_ZN2JS21AutoStableStringChars4initEP9JSContextP8JSString
libmozjs-140.so:_ZN2JS21DefaultGlobalClassOpsE
libmozjs-140.so:_ZN2JS21GetCurrentRealmOrNullEP9JSContext
libmozjs-140.so:_ZN2JS21GetModuleForNamespaceEP9JSContextNS_6HandleIP8JSObjectEE
libmozjs-140.so:_ZN2JS21GetModuleMetadataHookEP9JSRuntime
libmozjs-140.so:_ZN2JS21GetNonCCWObjectGlobalEP8JSObject
libmozjs-140.so:_ZN2JS21GetPCCountScriptCountEP9JSContext
libmozjs-140.so:_ZN2JS21GetPromiseConstructorEP9JSContext
libmozjs-140.so:_ZN2JS21GetSavedFrameSourceIdEP9JSContextP12JSPrincipalsNS_6HandleIP8JSObjectEEPjNS_20SavedFrameSelfHostedE
libmozjs-140.so:_ZN2JS21GetSelfHostedFunctionEP9JSContextPKcNS_6HandleINS_11PropertyKeyEEEj
libmozjs-140.so:_ZN2JS21GetTenuredGCThingZoneENS_9GCCellPtrE
libmozjs-140.so:_ZN2JS21GetWellKnownSymbolKeyEP9JSContextNS_10SymbolCodeE
libmozjs-140.so:_ZN2JS21InformalValueTypeNameERKNS_5ValueE
libmozjs-140.so:_ZN2JS21IsUnwrappedSavedFrameEP8JSObject
libmozjs-140.so:_ZN2JS21JobQueueMayNotBeEmptyEP9JSContext
libmozjs-140.so:_ZN2JS21PrepareForInstantiateEPN2js15FrontendContextERNS0_8frontend32InitialStencilAndDelazificationsERNS_20InstantiationStorageE
libmozjs-140.so:_ZN2JS21SetModuleMetadataHookEP9JSRuntimePFbP9JSContextNS_6HandleINS_5ValueEEENS4_IP8JSObjectEEE
libmozjs-140.so:_ZN2JS21SetTimeResolutionUsecEjb
libmozjs-140.so:_ZN2JS21StartPCCountProfilingEP9JSContext
libmozjs-140.so:_ZN2JS21VoidHandlePropertyKeyE
libmozjs-140.so:_ZN2JS22AutoSaveExceptionState4dropEv
libmozjs-140.so:_ZN2JS22AutoSaveExceptionState7restoreEv
libmozjs-140.so:_ZN2JS22AutoSaveExceptionStateC1EP9JSContext
libmozjs-140.so:_ZN2JS22AutoSaveExceptionStateC2EP9JSContext
libmozjs-140.so:_ZN2JS22AutoSaveExceptionStateD1Ev
libmozjs-140.so:_ZN2JS22AutoSaveExceptionStateD2Ev
libmozjs-140.so:_ZN2JS22ClearModuleEnvironmentEP8JSObject
libmozjs-140.so:_ZN2JS22DescribeScriptedCallerEPNS_12AutoFilenameEP9JSContextPjPNS_21ColumnNumberOneOriginE
libmozjs-140.so:_ZN2JS22DestroyFrontendContextEPN2js15FrontendContextE
libmozjs-140.so:_ZN2JS22ExecuteRegExpNoStaticsEP9JSContextNS_6HandleIP8JSObjectEEPKDsmPmbNS_13MutableHandleINS_5ValueEEE
libmozjs-140.so:_ZN2JS22ExposeScriptToDebuggerEP9JSContextNS_6HandleIP8JSScriptEE
libmozjs-140.so:_ZN2JS22FromPropertyDescriptorEP9JSContextNS_6HandleIN7mozilla5MaybeINS_18PropertyDescriptorEEEEENS_13MutableHandleINS_5ValueEEE
libmozjs-140.so:_ZN2JS22GetFrontendErrorReportEPN2js15FrontendContextERKNS_22ReadOnlyCompileOptionsE
libmozjs-140.so:_ZN2JS22GetObjectAsArrayBufferEP8JSObjectPmPPh
libmozjs-140.so:_ZN2JS22GetRealmArrayPrototypeEP9JSContext
libmozjs-140.so:_ZN2JS22GetRealmErrorPrototypeEP9JSContext
libmozjs-140.so:_ZN2JS22GetRequestedModuleTypeEP9JSContextNS_6HandleIP8JSObjectEEj
libmozjs-140.so:_ZN2JS22HadFrontendOutOfMemoryEPN2js15FrontendContextE
libmozjs-140.so:_ZN2JS22HeapValueWriteBarriersEPNS_5ValueERKS0_S3_
libmozjs-140.so:_ZN2JS22IsIncrementalGCEnabledEP9JSContext
libmozjs-140.so:_ZN2JS22IsLargeArrayBufferViewEP8JSObject
libmozjs-140.so:_ZN2JS22NewExternalArrayBufferEP9JSContextmN7mozilla9UniquePtrIvNS_21BufferContentsDeleterEEE
libmozjs-140.so:_ZN2JS22ProfilingFrameIterator12iteratorDoneEv
libmozjs-140.so:_ZN2JS22ProfilingFrameIterator12settleFramesEv
libmozjs-140.so:_ZN2JS22ProfilingFrameIterator15iteratorDestroyEv
libmozjs-140.so:_ZN2JS22ProfilingFrameIterator17iteratorConstructERKNS0_13RegisterStateE
libmozjs-140.so:_ZN2JS22ProfilingFrameIterator17iteratorConstructEv
libmozjs-140.so:_ZN2JS22ProfilingFrameIterator6settleEv
libmozjs-140.so:_ZN2JS22ProfilingFrameIteratorC1EP9JSContextRKNS0_13RegisterStateERKN7mozilla5MaybeImEE
libmozjs-140.so:_ZN2JS22ProfilingFrameIteratorC2EP9JSContextRKNS0_13RegisterStateERKN7mozilla5MaybeImEE
libmozjs-140.so:_ZN2JS22ProfilingFrameIteratorD1Ev
libmozjs-140.so:_ZN2JS22ProfilingFrameIteratorD2Ev
libmozjs-140.so:_ZN2JS22ProfilingFrameIteratorppEv
libmozjs-140.so:_ZN2JS22ReadOnlyCompileOptions27copyPODNonTransitiveOptionsERKS0_
libmozjs-140.so:_ZN2JS22RemoveAssociatedMemoryEP8JSObjectmNS_9MemoryUseE
libmozjs-140.so:_ZN2JS22SetAnyPromiseIsHandledEP9JSContextNS_6HandleIP8JSObjectEE
libmozjs-140.so:_ZN2JS22SetDOMProxyInformationEPKvPFNS_21DOMProxyShadowsResultEP9JSContextNS_6HandleIP8JSObjectEENS5_INS_11PropertyKeyEEEES1_
libmozjs-140.so:_ZN2JS22SetOutOfMemoryCallbackEP9JSContextPFvS1_PvES2_
libmozjs-140.so:_ZN2JS22SystemCompartmentCountEP9JSContext
libmozjs-140.so:_ZN2JS23CallOriginalPromiseThenEP9JSContextNS_6HandleIP8JSObjectEES5_S5_
libmozjs-140.so:_ZN2JS23ExecuteInJSMEnvironmentEP9JSContextNS_6HandleIP8JSScriptEENS2_IP8JSObjectEE
libmozjs-140.so:_ZN2JS23ExecuteInJSMEnvironmentEP9JSContextNS_6HandleIP8JSScriptEENS2_IP8JSObjectEERKNS_16EnvironmentChainE
libmozjs-140.so:_ZN2JS23GetDebuggerObservesWasmEPNS_5RealmE
libmozjs-140.so:_ZN2JS23GetFrontendWarningCountEPN2js15FrontendContextE
libmozjs-140.so:_ZN2JS23GetHelperThreadTaskNameEPNS_16HelperThreadTaskE
libmozjs-140.so:_ZN2JS23GetPCCountScriptSummaryEP9JSContextm
libmozjs-140.so:_ZN2JS23GetRealmObjectPrototypeEP9JSContext
libmozjs-140.so:_ZN2JS23GetSavedFrameAsyncCauseEP9JSContextP12JSPrincipalsNS_6HandleIP8JSObjectEENS_13MutableHandleIP8JSStringEENS_20SavedFrameSelfHostedE
libmozjs-140.so:_ZN2JS23GetScriptedCallerGlobalEP9JSContext
libmozjs-140.so:_ZN2JS23HadFrontendOverRecursedEPN2js15FrontendContextE
libmozjs-140.so:_ZN2JS23HeapBigIntWriteBarriersEPPNS_6BigIntES1_S1_
libmozjs-140.so:_ZN2JS23HeapObjectWriteBarriersEPP8JSObjectS1_S1_
libmozjs-140.so:_ZN2JS23HeapScriptWriteBarriersEPP8JSScriptS1_S1_
libmozjs-140.so:_ZN2JS23HeapStringWriteBarriersEPP8JSStringS1_S1_
libmozjs-140.so:_ZN2JS23IsArrayBufferViewSharedEP8JSObject
libmozjs-140.so:_ZN2JS23IsGenerationalGCEnabledEP9JSRuntime
libmozjs-140.so:_ZN2JS23NewStringFromUTF8BufferEP9JSContext6RefPtrIN7mozilla12StringBufferEEm
libmozjs-140.so:_ZN2JS23PrepareForIncrementalGCEP9JSContext
libmozjs-140.so:_ZN2JS23RealmCreationOptionsRefEP9JSContext
libmozjs-140.so:_ZN2JS23RealmCreationOptionsRefEPNS_5RealmE
libmozjs-140.so:_ZN2JS23SetDestroyRealmCallbackEP9JSContextPFvPNS_9GCContextEPNS_5RealmEE
libmozjs-140.so:_ZN2JS23SetLogCtorDtorFunctionsEPFvPvPKcjES4_
libmozjs-140.so:_ZN2JS23ThreadStackQuotaForSizeEm
libmozjs-140.so:_ZN2JS23UnwrapSharedArrayBufferEP8JSObject
libmozjs-140.so:_ZN2JS24CheckCompileOptionsMatchERKNS_22ReadOnlyCompileOptionsEP8JSScript
libmozjs-140.so:_ZN2JS24GetArrayBufferByteLengthEP8JSObject
libmozjs-140.so:_ZN2JS24GetPCCountScriptContentsEP9JSContextm
libmozjs-140.so:_ZN2JS24GetPendingExceptionStackEP9JSContextPNS_14ExceptionStackE
libmozjs-140.so:_ZN2JS24GetPromiseAllocationSiteENS_6HandleIP8JSObjectEE
libmozjs-140.so:_ZN2JS24GetPromiseResolutionSiteENS_6HandleIP8JSObjectEE
libmozjs-140.so:_ZN2JS24GetRequestedModulesCountEP9JSContextNS_6HandleIP8JSObjectEE
libmozjs-140.so:_ZN2JS24GetSavedFrameAsyncParentEP9JSContextP12JSPrincipalsNS_6HandleIP8JSObjectEENS_13MutableHandleIS6_EENS_20SavedFrameSelfHostedE
libmozjs-140.so:_ZN2JS24GetScriptedCallerPrivateEP9JSContext
libmozjs-140.so:_ZN2JS24GetSharedArrayBufferDataEP8JSObjectPbRKNS_15AutoRequireNoGCE
libmozjs-140.so:_ZN2JS24IdentifyStandardInstanceEP8JSObject
libmozjs-140.so:_ZN2JS24InitDispatchsToEventLoopEP9JSContextPFbPvON7mozilla9UniquePtrINS_12DispatchableENS_12DeletePolicyIS5_EEEEEPFbS2_S9_jES2_
libmozjs-140.so:_ZN2JS24InitRealmStandardClassesEP9JSContext
libmozjs-140.so:_ZN2JS24InstantiateGlobalStencilEP9JSContextRKNS_18InstantiateOptionsEPN2js8frontend32InitialStencilAndDelazificationsEPNS_20InstantiationStorageE
libmozjs-140.so:_ZN2JS24InstantiateModuleStencilEP9JSContextRKNS_18InstantiateOptionsEPN2js8frontend32InitialStencilAndDelazificationsEPNS_20InstantiationStorageE
libmozjs-140.so:_ZN2JS24IsMaybeWrappedSavedFrameEP8JSObject
libmozjs-140.so:_ZN2JS24PropertySpecNameEqualsIdEN14JSPropertySpec4NameENS_6HandleINS_11PropertyKeyEEE
libmozjs-140.so:_ZN2JS24ResetRealmMathRandomSeedEP9JSContext
libmozjs-140.so:_ZN2JS24SetPendingExceptionStackEP9JSContextRKNS_14ExceptionStackE
libmozjs-140.so:_ZN2JS24StealArrayBufferContentsEP9JSContextNS_6HandleIP8JSObjectEE
libmozjs-140.so:_ZN2JS24TransitiveCompileOptions24copyPODTransitiveOptionsERKS0_
libmozjs-140.so:_ZN2JS25AutoDisableGenerationalGCC1EP9JSContext
libmozjs-140.so:_ZN2JS25AutoDisableGenerationalGCC2EP9JSContext
libmozjs-140.so:_ZN2JS25AutoDisableGenerationalGCD1Ev
libmozjs-140.so:_ZN2JS25AutoDisableGenerationalGCD2Ev
libmozjs-140.so:_ZN2JS25CallOriginalPromiseRejectEP9JSContextNS_6HandleINS_5ValueEEE
libmozjs-140.so:_ZN2JS25ContainsSharedArrayBufferEP9JSContext
libmozjs-140.so:_ZN2JS25DeflateStringToUTF8BufferEP14JSLinearStringN7mozilla4SpanIcLm18446744073709551615EEE
libmozjs-140.so:_ZN2JS25FinishDynamicModuleImportEP9JSContextNS_6HandleIP8JSObjectEENS2_INS_5ValueEEES5_S5_
libmozjs-140.so:_ZN2JS25GetModuleRequestSpecifierEP9JSContextNS_6HandleIP8JSObjectEE
libmozjs-140.so:_ZN2JS25GetRealmFunctionPrototypeEP9JSContext
libmozjs-140.so:_ZN2JS25GetRealmIteratorPrototypeEP9JSContext
libmozjs-140.so:_ZN2JS25IdentifyStandardPrototypeEP8JSObject
libmozjs-140.so:_ZN2JS25InitConsumeStreamCallbackEP9JSContextPFbS1_NS_6HandleIP8JSObjectEENS_8MimeTypeEPNS_14StreamConsumerEEPFvS1_mE
libmozjs-140.so:_ZN2JS25IsIncrementalGCInProgressEP9JSContext
libmozjs-140.so:_ZN2JS25IsIncrementalGCInProgressEP9JSRuntime
libmozjs-140.so:_ZN2JS25IsMappedArrayBufferObjectEP8JSObject
libmozjs-140.so:_ZN2JS25IsSharedArrayBufferObjectEP8JSObject
libmozjs-140.so:_ZN2JS25MaybeRunNurseryCollectionEP9JSRuntimeNS_8GCReasonE
libmozjs-140.so:_ZN2JS25NewStringFromLatin1BufferEP9JSContext6RefPtrIN7mozilla12StringBufferEEm
libmozjs-140.so:_ZN2JS25SetCTypesActivityCallbackEP9JSContextPFvS1_NS_18CTypesActivityTypeEE
libmozjs-140.so:_ZN2JS26AutoCTypesActivityCallbackC1EP9JSContextNS_18CTypesActivityTypeES3_
libmozjs-140.so:_ZN2JS26AutoCTypesActivityCallbackC2EP9JSContextNS_18CTypesActivityTypeES3_
libmozjs-140.so:_ZN2JS26CallOriginalPromiseResolveEP9JSContextNS_6HandleINS_5ValueEEE
libmozjs-140.so:_ZN2JS26EnableRecordingAllocationsEP9JSContextPFvONS_20RecordAllocationInfoEEd
libmozjs-140.so:_ZN2JS26ForceLexicalInitializationEP9JSContextNS_6HandleIP8JSObjectEE
libmozjs-140.so:_ZN2JS26GetFirstArgumentAsTypeHintEP9JSContextRKNS_8CallArgsEP6JSType
libmozjs-140.so:_ZN2JS26GetModuleDynamicImportHookEP9JSRuntime
libmozjs-140.so:_ZN2JS26HeapObjectPostWriteBarrierEPP8JSObjectS1_S1_
libmozjs-140.so:_ZN2JS26IncrementalPreWriteBarrierENS_9GCCellPtrE
libmozjs-140.so:_ZN2JS26IncrementalPreWriteBarrierEP8JSObject
libmozjs-140.so:_ZN2JS26IsIncrementalBarrierNeededEP9JSContext
libmozjs-140.so:_ZN2JS26IsResizableArrayBufferViewEP8JSObject
libmozjs-140.so:_ZN2JS26IterateRealmsInCompartmentEP9JSContextPNS_11CompartmentEPvPFvS1_S4_PNS_5RealmERKNS_15AutoRequireNoGCEE
libmozjs-140.so:_ZN2JS26NewArrayBufferWithContentsEP9JSContextmN7mozilla9UniquePtrIvNS_10FreePolicyEEE
libmozjs-140.so:_ZN2JS26NewArrayBufferWithContentsEP9JSContextmPvNS_25NewArrayBufferOutOfMemoryE
libmozjs-140.so:_ZN2JS26NewStringFromTwoByteBufferEP9JSContext6RefPtrIN7mozilla12StringBufferEEm
libmozjs-140.so:_ZN2JS26PinArrayBufferOrViewLengthEP8JSObjectb
libmozjs-140.so:_ZN2JS26ReportUncatchableExceptionEP9JSContext
libmozjs-140.so:_ZN2JS26SetModuleDynamicImportHookEP9JSRuntimePFbP9JSContextNS_6HandleINS_5ValueEEENS4_IP8JSObjectEES9_E
libmozjs-140.so:_ZN2JS26SetSettledPromiseIsHandledEP9JSContextNS_6HandleIP8JSObjectEE
libmozjs-140.so:_ZN2JS26StealPendingExceptionStackEP9JSContextPNS_14ExceptionStackE
libmozjs-140.so:_ZN2JS26UTF8CharsToNewLatin1CharsZEP9JSContextRKNS_9UTF8CharsEPmm
libmozjs-140.so:_ZN2JS27DisableRecordingAllocationsEP9JSContext
libmozjs-140.so:_ZN2JS27GetArrayBufferLengthAndDataEP8JSObjectPmPbPPh
libmozjs-140.so:_ZN2JS27GetDeflatedUTF8StringLengthEP14JSLinearString
libmozjs-140.so:_ZN2JS27GetOptimizedEncodingBuildIdEPN7mozilla6VectorIcLm0EN2js17SystemAllocPolicyEEE
libmozjs-140.so:_ZN2JS27GetRequestedModuleSourcePosEP9JSContextNS_6HandleIP8JSObjectEEjPjPNS_21ColumnNumberOneOriginE
libmozjs-140.so:_ZN2JS27GetRequestedModuleSpecifierEP9JSContextNS_6HandleIP8JSObjectEEj
libmozjs-140.so:_ZN2JS27GetScriptTranscodingBuildIdEPN7mozilla6VectorIcLm0EN2js17SystemAllocPolicyEEE
libmozjs-140.so:_ZN2JS27IdentifyStandardConstructorEP8JSObject
libmozjs-140.so:_ZN2JS27IsDetachedArrayBufferObjectEP8JSObject
libmozjs-140.so:_ZN2JS27IterateRealmsWithPrincipalsEP9JSContextP12JSPrincipalsPvPFvS1_S4_PNS_5RealmERKNS_15AutoRequireNoGCEE
libmozjs-140.so:_ZN2JS27MaybeFreezeCtorAndPrototypeEP9JSContextNS_6HandleIP8JSObjectEES5_
libmozjs-140.so:_ZN2JS27SetHelperThreadTaskCallbackEPFvPNS_16HelperThreadTaskEEmm
libmozjs-140.so:_ZN2JS27SetProfilingThreadCallbacksEPFP14ProfilingStackPKcPvEPFvvE
libmozjs-140.so:_ZN2JS27UTF8CharsToNewTwoByteCharsZEP9JSContextRKNS_9UTF8CharsEPmm
libmozjs-140.so:_ZN2JS28AutoSetAsyncStackForNewCallsC1EP9JSContextNS_6HandleIP8JSObjectEEPKcNS0_13AsyncCallKindE
libmozjs-140.so:_ZN2JS28AutoSetAsyncStackForNewCallsC2EP9JSContextNS_6HandleIP8JSObjectEEPKcNS0_13AsyncCallKindE
libmozjs-140.so:_ZN2JS28AutoSetAsyncStackForNewCallsD1Ev
libmozjs-140.so:_ZN2JS28AutoSetAsyncStackForNewCallsD2Ev
libmozjs-140.so:_ZN2JS28CompileGlobalScriptToStencilEP9JSContextRKNS_22ReadOnlyCompileOptionsERNS_10SourceTextIDsEE
libmozjs-140.so:_ZN2JS28CompileGlobalScriptToStencilEP9JSContextRKNS_22ReadOnlyCompileOptionsERNS_10SourceTextIN7mozilla8Utf8UnitEEE
libmozjs-140.so:_ZN2JS28CompileGlobalScriptToStencilEPN2js15FrontendContextERKNS_22ReadOnlyCompileOptionsERNS_10SourceTextIDsEE
libmozjs-140.so:_ZN2JS28CompileGlobalScriptToStencilEPN2js15FrontendContextERKNS_22ReadOnlyCompileOptionsERNS_10SourceTextIN7mozilla8Utf8UnitEEE
libmozjs-140.so:_ZN2JS28CompileModuleScriptToStencilEP9JSContextRKNS_22ReadOnlyCompileOptionsERNS_10SourceTextIDsEE
libmozjs-140.so:_ZN2JS28CompileModuleScriptToStencilEP9JSContextRKNS_22ReadOnlyCompileOptionsERNS_10SourceTextIN7mozilla8Utf8UnitEEE
libmozjs-140.so:_ZN2JS28CompileModuleScriptToStencilEPN2js15FrontendContextERKNS_22ReadOnlyCompileOptionsERNS_10SourceTextIDsEE
libmozjs-140.so:_ZN2JS28CompileModuleScriptToStencilEPN2js15FrontendContextERKNS_22ReadOnlyCompileOptionsERNS_10SourceTextIN7mozilla8Utf8UnitEEE
libmozjs-140.so:_ZN2JS28GetProfilingCategoryPairInfoENS_21ProfilingCategoryPairE
libmozjs-140.so:_ZN2JS28IsProfilingEnabledForContextEP9JSContext
libmozjs-140.so:_ZN2JS28SetDoCycleCollectionCallbackEP9JSContextPFvS1_E
libmozjs-140.so:_ZN2JS28ToCompletePropertyDescriptorEP9JSContextNS_6HandleINS_5ValueEEENS_13MutableHandleINS_18PropertyDescriptorEEE
libmozjs-140.so:_ZN2JS28UnmarkGrayGCThingRecursivelyENS_9GCCellPtrE
libmozjs-140.so:_ZN2JS28UnwrapArrayBufferMaybeSharedEP8JSObject
libmozjs-140.so:_ZN2JS29AddMozDisplayNamesConstructorEP9JSContextNS_6HandleIP8JSObjectEE
libmozjs-140.so:_ZN2JS29GetArrayBufferMaybeSharedDataEP8JSObjectPbRKNS_15AutoRequireNoGCE
libmozjs-140.so:_ZN2JS29GetRealmObjectPrototypeHandleEP9JSContext
libmozjs-140.so:_ZN2JS29HadFrontendAllocationOverflowEPN2js15FrontendContextE
libmozjs-140.so:_ZN2JS29IsLargeArrayBufferMaybeSharedEP8JSObject
libmozjs-140.so:_ZN2JS29PropertySpecNameToPermanentIdEP9JSContextN14JSPropertySpec4NameEPNS_11PropertyKeyE
libmozjs-140.so:_ZN2JS29SetFilenameValidationCallbackEPFbP9JSContextPKcE
libmozjs-140.so:_ZN2JS30AbortCollectingDelazificationsENS_6HandleIP8JSObjectEE
libmozjs-140.so:_ZN2JS30AbortCollectingDelazificationsENS_6HandleIP8JSScriptEE
libmozjs-140.so:_ZN2JS30AddGCNurseryCollectionCallbackEP9JSContextPFvS1_NS_17GCNurseryProgressENS_8GCReasonEPvES4_
libmozjs-140.so:_ZN2JS30ConvertSavedFrameToPlainObjectEP9JSContextNS_6HandleIP8JSObjectEENS_20SavedFrameSelfHostedE
libmozjs-140.so:_ZN2JS30GetRealmAsyncIteratorPrototypeEP9JSContext
libmozjs-140.so:_ZN2JS30GetSharedArrayBufferByteLengthEP8JSObject
libmozjs-140.so:_ZN2JS30HasDefinedArrayBufferDetachKeyEP9JSContextNS_6HandleIP8JSObjectEEPb
libmozjs-140.so:_ZN2JS30IncrementalGCHasForegroundWorkEP9JSContext
libmozjs-140.so:_ZN2JS30IsArrayBufferObjectMaybeSharedEP8JSObject
libmozjs-140.so:_ZN2JS30SetCreateGCSliceBudgetCallbackEP9JSContextPFNS_11SliceBudgetENS_8GCReasonElE
libmozjs-140.so:_ZN2JS30SetScriptPrivateReferenceHooksEP9JSRuntimePFvRKNS_5ValueEES6_
libmozjs-140.so:_ZN2JS30StartCollectingDelazificationsEP9JSContextNS_6HandleIP8JSObjectEEPN2js8frontend32InitialStencilAndDelazificationsERb
libmozjs-140.so:_ZN2JS30StartCollectingDelazificationsEP9JSContextNS_6HandleIP8JSScriptEEPN2js8frontend32InitialStencilAndDelazificationsERb
libmozjs-140.so:_ZN2JS30ThrowOnModuleEvaluationFailureEP9JSContextNS_6HandleIP8JSObjectEENS_20ModuleErrorBehaviourE
libmozjs-140.so:_ZN2JS31AddMozDateTimeFormatConstructorEP9JSContextNS_6HandleIP8JSObjectEE
libmozjs-140.so:_ZN2JS31CreateMappedArrayBufferContentsEimm
libmozjs-140.so:_ZN2JS31FinishCollectingDelazificationsEP9JSContextNS_6HandleIP8JSObjectEERN7mozilla6VectorIhLm0ENS6_17MallocAllocPolicyEEE
libmozjs-140.so:_ZN2JS31FinishCollectingDelazificationsEP9JSContextNS_6HandleIP8JSScriptEEPPN2js8frontend32InitialStencilAndDelazificationsE
libmozjs-140.so:_ZN2JS31FinishCollectingDelazificationsEP9JSContextNS_6HandleIP8JSScriptEERN7mozilla6VectorIhLm0ENS6_17MallocAllocPolicyEEE
libmozjs-140.so:_ZN2JS31GetRealmFunctionPrototypeHandleEP9JSContext
libmozjs-140.so:_ZN2JS32AutoDebuggerJobQueueInterruption4initEP9JSContext
libmozjs-140.so:_ZN2JS32AutoDebuggerJobQueueInterruption7runJobsEv
libmozjs-140.so:_ZN2JS32AutoDebuggerJobQueueInterruptionC1Ev
libmozjs-140.so:_ZN2JS32AutoDebuggerJobQueueInterruptionC2Ev
libmozjs-140.so:_ZN2JS32AutoDebuggerJobQueueInterruptionD1Ev
libmozjs-140.so:_ZN2JS32AutoDebuggerJobQueueInterruptionD2Ev
libmozjs-140.so:_ZN2JS32EnsureNonInlineArrayBufferOrViewEP9JSContextP8JSObject
libmozjs-140.so:_ZN2JS32GetSavedFrameFunctionDisplayNameEP9JSContextP12JSPrincipalsNS_6HandleIP8JSObjectEENS_13MutableHandleIP8JSStringEENS_20SavedFrameSelfHostedE
libmozjs-140.so:_ZN2JS32LossyUTF8CharsToNewTwoByteCharsZEP9JSContextRKNS_9UTF8CharsEPmm
libmozjs-140.so:_ZN2JS32NewMappedArrayBufferWithContentsEP9JSContextmPv
libmozjs-140.so:_ZN2JS32NewStringFromKnownLiveUTF8BufferEP9JSContextPN7mozilla12StringBufferEm
libmozjs-140.so:_ZN2JS32ReleaseMappedArrayBufferContentsEPvm
libmozjs-140.so:_ZN2JS33GetJSMEnvironmentOfScriptedCallerEP9JSContext
libmozjs-140.so:_ZN2JS33GetSharedArrayBufferLengthAndDataEP8JSObjectPmPbPPh
libmozjs-140.so:_ZN2JS33IsProfileTimelineRecordingEnabledEv
libmozjs-140.so:_ZN2JS33IsResizableArrayBufferMaybeSharedEP8JSObject
libmozjs-140.so:_ZN2JS33RemoveGCNurseryCollectionCallbackEP9JSContextPFvS1_NS_17GCNurseryProgressENS_8GCReasonEPvES4_
libmozjs-140.so:_ZN2JS34AssertObjectBelongsToCurrentThreadEP8JSObject
libmozjs-140.so:_ZN2JS34DisableSpectreMitigationsAfterInitEv
libmozjs-140.so:_ZN2JS34IsAsyncStackCaptureEnabledForRealmEP9JSContext
libmozjs-140.so:_ZN2JS34NewStringFromKnownLiveLatin1BufferEP9JSContextPN7mozilla12StringBufferEm
libmozjs-140.so:_ZN2JS34SetProfileTimelineRecordingEnabledEb
libmozjs-140.so:_ZN2JS34SetPromiseRejectionTrackerCallbackEP9JSContextPFvS1_bNS_6HandleIP8JSObjectEENS_29PromiseRejectionHandlingStateEPvES7_
libmozjs-140.so:_ZN2JS35IdentifyStandardInstanceOrPrototypeEP8JSObject
libmozjs-140.so:_ZN2JS35NewArrayBufferWithUserOwnedContentsEP9JSContextmPv
libmozjs-140.so:_ZN2JS35NewStringFromKnownLiveTwoByteBufferEP9JSContextPN7mozilla12StringBufferEm
libmozjs-140.so:_ZN2JS36ConvertFrontendErrorsToRuntimeErrorsEP9JSContextPN2js15FrontendContextERKNS_22ReadOnlyCompileOptionsE
libmozjs-140.so:_ZN2JS36SetShadowRealmGlobalCreationCallbackEP9JSContextPFP8JSObjectS1_RNS_12RealmOptionsEP12JSPrincipalsNS_6HandleIS3_EEE
libmozjs-140.so:_ZN2JS37GetPromiseUserInputEventHandlingStateENS_6HandleIP8JSObjectEE
libmozjs-140.so:_ZN2JS37SetHostEnsureCanAddPrivateElementHookEP9JSContextPFbS1_NS_6HandleINS_5ValueEEEE
libmozjs-140.so:_ZN2JS37SetPromiseUserInputEventHandlingStateENS_6HandleIP8JSObjectEENS_34PromiseUserInputEventHandlingStateE
libmozjs-140.so:_ZN2JS38GetArrayBufferMaybeSharedLengthAndDataEP8JSObjectPmPbPPh
libmozjs-140.so:_ZN2JS38SetRealmReduceTimerPrecisionCallerTypeEPNS_5RealmENS_18RTPCallerTypeTokenE
libmozjs-140.so:_ZN2JS38SetShadowRealmInitializeGlobalCallbackEP9JSContextPFbS1_NS_6HandleIP8JSObjectEEE
libmozjs-140.so:_ZN2JS3dbg10IsDebuggerER8JSObject
libmozjs-140.so:_ZN2JS3dbg18GetDebuggeeGlobalsEP9JSContextR8JSObjectNS_13MutableHandleINS_13StackGCVectorIPS3_N2js15TempAllocPolicyEEEEE
libmozjs-140.so:_ZN2JS3dbg23GetDebuggerMallocSizeOfEP9JSContext
libmozjs-140.so:_ZN2JS3dbg23SetDebuggerMallocSizeOfEP9JSContextPFmPKvE
libmozjs-140.so:_ZN2JS3dbg27FireOnGarbageCollectionHookEP9JSContextON7mozilla9UniquePtrINS0_22GarbageCollectionEventENS_12DeletePolicyIS5_EEEE
libmozjs-140.so:_ZN2JS3dbg35FireOnGarbageCollectionHookRequiredEP9JSContext
libmozjs-140.so:_ZN2JS3ubi12CountDeleterclEPNS0_9CountBaseE
libmozjs-140.so:_ZN2JS3ubi13CensusHandlerclERNS0_12BreadthFirstIS1_EENS0_4NodeERKNS0_4EdgeEPNS1_8NodeDataEb
libmozjs-140.so:_ZN2JS3ubi14ParseBreakdownEP9JSContextNS_6HandleINS_5ValueEEENS_13MutableHandleINS_8GCVectorIP14JSLinearStringLm0EN2js15TempAllocPolicyEEEEE
libmozjs-140.so:_ZN2JS3ubi18AtomOrTwoByteChars12copyToBufferEN7mozilla9RangedPtrIDsEEm
libmozjs-140.so:_ZN2JS3ubi18AtomOrTwoByteChars6lengthEv
libmozjs-140.so:_ZN2JS3ubi18CoarseTypeToStringENS0_10CoarseTypeE
libmozjs-140.so:_ZN2JS3ubi18ParseCensusOptionsEP9JSContextRNS0_6CensusENS_6HandleIP8JSObjectEERN7mozilla9UniquePtrINS0_9CountTypeENS_12DeletePolicyISB_EEEE
libmozjs-140.so:_ZN2JS3ubi28ConstructSavedFrameStackSlowEP9JSContextRNS0_10StackFrameENS_13MutableHandleIP8JSObjectEE
libmozjs-140.so:_ZN2JS3ubi8ConcreteI8JSObjectE16concreteTypeNameE
libmozjs-140.so:_ZN2JS3ubi8ConcreteI8JSObjectE9constructEPvPS2_
libmozjs-140.so:_ZN2JS3ubi8ConcreteI8JSStringE16concreteTypeNameE
libmozjs-140.so:_ZN2JS3ubi8ConcreteIN2js10BaseScriptEE16concreteTypeNameE
libmozjs-140.so:_ZN2JS3ubi8ConcreteIN2js2gc11SmallBufferEE16concreteTypeNameE
libmozjs-140.so:_ZN2JS3ubi8ConcreteINS0_8RootListEE16concreteTypeNameE
libmozjs-140.so:_ZN2JS3ubi8ConcreteINS_6BigIntEE16concreteTypeNameE
libmozjs-140.so:_ZN2JS3ubi8ConcreteINS_6SymbolEE16concreteTypeNameE
libmozjs-140.so:_ZN2JS3ubi8RootList4initENS_6HandleIP8JSObjectEE
libmozjs-140.so:_ZN2JS3ubi8RootList4initERN7mozilla7HashSetIPNS_11CompartmentENS2_13DefaultHasherIS5_vEEN2js17SystemAllocPolicyEEE
libmozjs-140.so:_ZN2JS3ubi8RootList4initEv
libmozjs-140.so:_ZN2JS3ubi8RootList7addRootENS0_4NodeEPKDs
libmozjs-140.so:_ZN2JS3ubi8RootListC1EP9JSContextb
libmozjs-140.so:_ZN2JS3ubi8RootListC2EP9JSContextb
libmozjs-140.so:_ZN2JS40SetProcessLargeAllocationFailureCallbackEPFvvE
libmozjs-140.so:_ZN2JS41GetReduceMicrosecondTimePrecisionCallbackEv
libmozjs-140.so:_ZN2JS41SetReduceMicrosecondTimePrecisionCallbackEPFddNS_18RTPCallerTypeTokenEP9JSContextE
libmozjs-140.so:_ZN2JS42SetHostCleanupFinalizationRegistryCallbackEP9JSContextPFvP10JSFunctionP8JSObjectPvES6_
libmozjs-140.so:_ZN2JS42SetJSContextProfilerSampleBufferRangeStartEP9JSContextm
libmozjs-140.so:_ZN2JS45AddPromiseReactionsIgnoringUnhandledRejectionEP9JSContextNS_6HandleIP8JSObjectEES5_S5_
libmozjs-140.so:_ZN2JS4CallEP9JSContextNS_6HandleINS_5ValueEEES4_RKNS_16HandleValueArrayENS_13MutableHandleIS3_EE
libmozjs-140.so:_ZN2JS4Zone11finishRootsEv
libmozjs-140.so:_ZN2JS4Zone13changeGCStateENS_6shadow4Zone7GCStateES3_
libmozjs-140.so:_ZN2JS4Zone13createJitZoneEP9JSContext
libmozjs-140.so:_ZN2JS4Zone13sweepWeakMapsEP8JSTracer
libmozjs-140.so:_ZN2JS4Zone13traceWeakMapsEP8JSTracer
libmozjs-140.so:_ZN2JS4Zone14purgeAtomCacheEv
libmozjs-140.so:_ZN2JS4Zone14sweepUniqueIdsEv
libmozjs-140.so:_ZN2JS4Zone15clearScriptLCovEPNS_5RealmE
libmozjs-140.so:_ZN2JS4Zone15hasMarkedRealmsEv
libmozjs-140.so:_ZN2JS4Zone16addToKeptObjectsENS_6HandleIP8JSObjectEE
libmozjs-140.so:_ZN2JS4Zone16clearKeptObjectsEv
libmozjs-140.so:_ZN2JS4Zone16traceKeptObjectsEP8JSTracer
libmozjs-140.so:_ZN2JS4Zone17clearScriptCountsEPNS_5RealmE
libmozjs-140.so:_ZN2JS4Zone17sweepAfterMinorGCEP8JSTracer
libmozjs-140.so:_ZN2JS4Zone17sweepCompartmentsEPNS_9GCContextEbb
libmozjs-140.so:_ZN2JS4Zone17traceWeakCCWEdgesEP8JSTracer
libmozjs-140.so:_ZN2JS4Zone18fixupAfterMovingGCEv
libmozjs-140.so:_ZN2JS4Zone18prepareForMovingGCEv
libmozjs-140.so:_ZN2JS4Zone19findSweepGroupEdgesEPS0_
libmozjs-140.so:_ZN2JS4Zone19forceDiscardJitCodeEPNS_9GCContextERKNS0_17JitDiscardOptionsE
libmozjs-140.so:_ZN2JS4Zone19maybeDiscardJitCodeEPNS_9GCContextE
libmozjs-140.so:_ZN2JS4Zone19traceRootsInMajorGCEP8JSTracer
libmozjs-140.so:_ZN2JS4Zone19traceWeakJitScriptsEP8JSTracer
libmozjs-140.so:_ZN2JS4Zone20enterWeakMarkingModeEPN2js8GCMarkerERNS_11SliceBudgetE
libmozjs-140.so:_ZN2JS4Zone20setNurseryAllocFlagsEbbb
libmozjs-140.so:_ZN2JS4Zone21traceScriptTableRootsEP8JSTracer
libmozjs-140.so:_ZN2JS4Zone22addSizeOfIncludingThisEPFmPKvEPmPNS_9CodeSizesES5_S5_S5_S5_S5_S5_S5_S5_S5_S5_S5_
libmozjs-140.so:_ZN2JS4Zone22dropStringWrappersOnGCEv
libmozjs-140.so:_ZN2JS4Zone23clearRootsForShutdownGCEv
libmozjs-140.so:_ZN2JS4Zone24notifyObservingDebuggersEv
libmozjs-140.so:_ZN2JS4Zone26setNeedsIncrementalBarrierEb
libmozjs-140.so:_ZN2JS4Zone27beforeClearDelegateInternalEP8JSObjectS2_
libmozjs-140.so:_ZN2JS4Zone27ensureFinalizationObserversEv
libmozjs-140.so:_ZN2JS4Zone28fixupScriptMapsAfterMovingGCEP8JSTracer
libmozjs-140.so:_ZN2JS4Zone28resetAllocSitesAndInvalidateEbb
libmozjs-140.so:_ZN2JS4Zone28sweepObjectsWithWeakPointersEP8JSTracer
libmozjs-140.so:_ZN2JS4Zone30registerObjectWithWeakPointersEP8JSObject
libmozjs-140.so:_ZN2JS4Zone32sweepEphemeronTablesAfterMinorGCEv
libmozjs-140.so:_ZN2JS4Zone45fixupAllCrossCompartmentWrappersAfterMovingGCEP8JSTracer
libmozjs-140.so:_ZN2JS4Zone4initEv
libmozjs-140.so:_ZN2JS4Zone7destroyEPNS_9GCContextE
libmozjs-140.so:_ZN2JS4Zone9NotOnListE
libmozjs-140.so:_ZN2JS4ZoneC1EP9JSRuntimeNS_6shadow4Zone4KindE
libmozjs-140.so:_ZN2JS4ZoneC2EP9JSRuntimeNS_6shadow4Zone4KindE
libmozjs-140.so:_ZN2JS4ZoneD1Ev
libmozjs-140.so:_ZN2JS4ZoneD2Ev
libmozjs-140.so:_ZN2JS5Realm10traceRootsEP8JSTracerN2js2gc9GCRuntime18TraceOrMarkRuntimeE
libmozjs-140.so:_ZN2JS5Realm11finishRootsEv
libmozjs-140.so:_ZN2JS5Realm13setIsDebuggeeEv
libmozjs-140.so:_ZN2JS5Realm15clearScriptLCovEv
libmozjs-140.so:_ZN2JS5Realm15traceGlobalDataEP8JSTracer
libmozjs-140.so:_ZN2JS5Realm15unsetIsDebuggeeEv
libmozjs-140.so:_ZN2JS5Realm17clearScriptCountsEv
libmozjs-140.so:_ZN2JS5Realm17sweepAfterMinorGCEP8JSTracer
libmozjs-140.so:_ZN2JS5Realm18fixupAfterMovingGCEP8JSTracer
libmozjs-140.so:_ZN2JS5Realm19DebuggerVectorEntryC1EPN2js8DebuggerEP8JSObject
libmozjs-140.so:_ZN2JS5Realm19DebuggerVectorEntryC2EPN2js8DebuggerEP8JSObject
libmozjs-140.so:_ZN2JS5Realm19traceWeakGlobalEdgeEP8JSTracer
libmozjs-140.so:_ZN2JS5Realm20setNewObjectMetadataEP9JSContextNS_6HandleIP8JSObjectEE
libmozjs-140.so:_ZN2JS5Realm20traceWeakSavedStacksEP8JSTracer
libmozjs-140.so:_ZN2JS5Realm22addSizeOfIncludingThisEPFmPKvEPmS5_S5_S5_S5_S5_
libmozjs-140.so:_ZN2JS5Realm22isRecordingAllocationsEv
libmozjs-140.so:_ZN2JS5Realm22removeFromCompileQueueEP8JSScript
libmozjs-140.so:_ZN2JS5Realm23randomHashCodeScramblerEv
libmozjs-140.so:_ZN2JS5Realm26shouldCaptureStackForThrowEv
libmozjs-140.so:_ZN2JS5Realm26updateDebuggerObservesFlagEj
libmozjs-140.so:_ZN2JS5Realm28setAllocationMetadataBuilderEPKN2js25AllocationMetadataBuilderE
libmozjs-140.so:_ZN2JS5Realm30traceWeakDebugEnvironmentEdgesEP8JSTracer
libmozjs-140.so:_ZN2JS5Realm30updateDebuggerObservesCoverageEv
libmozjs-140.so:_ZN2JS5Realm31forgetAllocationMetadataBuilderEv
libmozjs-140.so:_ZN2JS5Realm32getOrCreateRandomNumberGeneratorEv
libmozjs-140.so:_ZN2JS5Realm4initEP9JSContextP12JSPrincipals
libmozjs-140.so:_ZN2JS5Realm5purgeEv
libmozjs-140.so:_ZN2JS5Realm7destroyEPNS_9GCContextE
libmozjs-140.so:_ZN2JS5Realm9lcovRealmEv
libmozjs-140.so:_ZN2JS5RealmC1EPNS_11CompartmentERKNS_12RealmOptionsE
libmozjs-140.so:_ZN2JS5RealmC2EPNS_11CompartmentERKNS_12RealmOptionsE
libmozjs-140.so:_ZN2JS5RealmD1Ev
libmozjs-140.so:_ZN2JS5RealmD2Ev
libmozjs-140.so:_ZN2JS6BigInt10absoluteOrEP9JSContextNS_6HandleIPS0_EES5_
libmozjs-140.so:_ZN2JS6BigInt10bitOrValueEP9JSContextNS_6HandleINS_5ValueEEES5_NS_13MutableHandleIS4_EE
libmozjs-140.so:_ZN2JS6BigInt11absoluteAddEP9JSContextNS_6HandleIPS0_EES5_b
libmozjs-140.so:_ZN2JS6BigInt11absoluteAndEP9JSContextNS_6HandleIPS0_EES5_
libmozjs-140.so:_ZN2JS6BigInt11absoluteSubEP9JSContextNS_6HandleIPS0_EES5_b
libmozjs-140.so:_ZN2JS6BigInt11absoluteXorEP9JSContextNS_6HandleIPS0_EES5_
libmozjs-140.so:_ZN2JS6BigInt11bitAndValueEP9JSContextNS_6HandleINS_5ValueEEES5_NS_13MutableHandleIS4_EE
libmozjs-140.so:_ZN2JS6BigInt11bitNotValueEP9JSContextNS_6HandleINS_5ValueEEENS_13MutableHandleIS4_EE
libmozjs-140.so:_ZN2JS6BigInt11bitXorValueEP9JSContextNS_6HandleINS_5ValueEEES5_NS_13MutableHandleIS4_EE
libmozjs-140.so:_ZN2JS6BigInt11negativeOneEP9JSContext
libmozjs-140.so:_ZN2JS6BigInt11numberValueEPKS0_
libmozjs-140.so:_ZN2JS6BigInt12looselyEqualEP9JSContextNS_6HandleIPS0_EENS3_INS_5ValueEEE
libmozjs-140.so:_ZN2JS6BigInt12rshByMaximumEP9JSContextb
libmozjs-140.so:_ZN2JS6BigInt13lshByAbsoluteEP9JSContextNS_6HandleIPS0_EES5_
libmozjs-140.so:_ZN2JS6BigInt13rshByAbsoluteEP9JSContextNS_6HandleIPS0_EES5_
libmozjs-140.so:_ZN2JS6BigInt14absoluteAddOneEP9JSContextNS_6HandleIPS0_EEb
libmozjs-140.so:_ZN2JS6BigInt14absoluteAndNotEP9JSContextNS_6HandleIPS0_EES5_
libmozjs-140.so:_ZN2JS6BigInt14absoluteSubOneEP9JSContextNS_6HandleIPS0_EEb
libmozjs-140.so:_ZN2JS6BigInt15createFromDigitEP9JSContextmbN2js2gc4HeapE
libmozjs-140.so:_ZN2JS6BigInt15createFromInt64EP9JSContextlN2js2gc4HeapE
libmozjs-140.so:_ZN2JS6BigInt15toStringGenericEP9JSContextNS_6HandleIPS0_EEj
libmozjs-140.so:_ZN2JS6BigInt16createFromDoubleEP9JSContextd
libmozjs-140.so:_ZN2JS6BigInt16createFromIntPtrEP9JSContextl
libmozjs-140.so:_ZN2JS6BigInt16createFromUint64EP9JSContextmN2js2gc4HeapE
libmozjs-140.so:_ZN2JS6BigInt18absoluteInplaceAddEPKS0_j
libmozjs-140.so:_ZN2JS6BigInt18absoluteInplaceSubEPKS0_j
libmozjs-140.so:_ZN2JS6BigInt18inplaceMultiplyAddEmm
libmozjs-140.so:_ZN2JS6BigInt18multiplyAccumulateEPKS0_mPS0_j
libmozjs-140.so:_ZN2JS6BigInt19createUninitializedEP9JSContextmbN2js2gc4HeapE
libmozjs-140.so:_ZN2JS6BigInt19internalMultiplyAddEPKS0_mmjPS0_
libmozjs-140.so:_ZN2JS6BigInt22initializeDigitsToZeroEv
libmozjs-140.so:_ZN2JS6BigInt26createFromNonZeroRawUint64EP9JSContextmb
libmozjs-140.so:_ZN2JS6BigInt27absoluteDivWithDigitDivisorEP9JSContextNS_6HandleIPS0_EEmRKN7mozilla5MaybeINS_13MutableHandleIS4_EEEEPmb
libmozjs-140.so:_ZN2JS6BigInt27absoluteLeftShiftAlwaysCopyEP9JSContextNS_6HandleIPS0_EEjNS0_13LeftShiftModeE
libmozjs-140.so:_ZN2JS6BigInt28absoluteDivWithBigIntDivisorEP9JSContextNS_6HandleIPS0_EES5_RKN7mozilla5MaybeINS_13MutableHandleIS4_EEEESC_b
libmozjs-140.so:_ZN2JS6BigInt28inplaceRightShiftLowZeroBitsEj
libmozjs-140.so:_ZN2JS6BigInt28truncateAndSubFromPowerOfTwoEP9JSContextNS_6HandleIPS0_EEmb
libmozjs-140.so:_ZN2JS6BigInt30calculateMaximumDigitsRequiredEP9JSContexthmPm
libmozjs-140.so:_ZN2JS6BigInt31destructivelyTrimHighZeroDigitsEP9JSContextPS0_
libmozjs-140.so:_ZN2JS6BigInt34calculateMaximumCharactersRequiredENS_6HandleIPS0_EEj
libmozjs-140.so:_ZN2JS6BigInt3addEP9JSContextNS_6HandleIPS0_EES5_
libmozjs-140.so:_ZN2JS6BigInt3decEP9JSContextNS_6HandleIPS0_EE
libmozjs-140.so:_ZN2JS6BigInt3divEP9JSContextNS_6HandleIPS0_EES5_
libmozjs-140.so:_ZN2JS6BigInt3incEP9JSContextNS_6HandleIPS0_EE
libmozjs-140.so:_ZN2JS6BigInt3lshEP9JSContextNS_6HandleIPS0_EES5_
libmozjs-140.so:_ZN2JS6BigInt3modEP9JSContextNS_6HandleIPS0_EES5_
libmozjs-140.so:_ZN2JS6BigInt3mulEP9JSContextNS_6HandleIPS0_EES5_
libmozjs-140.so:_ZN2JS6BigInt3negEP9JSContextNS_6HandleIPS0_EE
libmozjs-140.so:_ZN2JS6BigInt3oneEP9JSContext
libmozjs-140.so:_ZN2JS6BigInt3powEP9JSContextNS_6HandleIPS0_EES5_
libmozjs-140.so:_ZN2JS6BigInt3rshEP9JSContextNS_6HandleIPS0_EES5_
libmozjs-140.so:_ZN2JS6BigInt3subEP9JSContextNS_6HandleIPS0_EES5_
libmozjs-140.so:_ZN2JS6BigInt4copyEP9JSContextNS_6HandleIPS0_EEN2js2gc4HeapE
libmozjs-140.so:_ZN2JS6BigInt4zeroEP9JSContextN2js2gc4HeapE
libmozjs-140.so:_ZN2JS6BigInt5bitOrEP9JSContextNS_6HandleIPS0_EES5_
libmozjs-140.so:_ZN2JS6BigInt5equalEP9JSContextNS_6HandleIPS0_EENS3_IP8JSStringEE
libmozjs-140.so:_ZN2JS6BigInt5equalEPKS0_S2_
libmozjs-140.so:_ZN2JS6BigInt5equalEPKS0_d
libmozjs-140.so:_ZN2JS6BigInt6asIntNEP9JSContextNS_6HandleIPS0_EEm
libmozjs-140.so:_ZN2JS6BigInt6bitAndEP9JSContextNS_6HandleIPS0_EES5_
libmozjs-140.so:_ZN2JS6BigInt6bitNotEP9JSContextNS_6HandleIPS0_EE
libmozjs-140.so:_ZN2JS6BigInt6bitXorEP9JSContextNS_6HandleIPS0_EES5_
libmozjs-140.so:_ZN2JS6BigInt6divmodEP9JSContextNS_6HandleIPS0_EES5_NS_13MutableHandleIS4_EES7_
libmozjs-140.so:_ZN2JS6BigInt7asUintNEP9JSContextNS_6HandleIPS0_EEm
libmozjs-140.so:_ZN2JS6BigInt7compareEPKS0_S2_
libmozjs-140.so:_ZN2JS6BigInt7compareEPKS0_d
libmozjs-140.so:_ZN2JS6BigInt7isInt32EPKS0_Pi
libmozjs-140.so:_ZN2JS6BigInt7isInt64EPKS0_Pl
libmozjs-140.so:_ZN2JS6BigInt7toInt64EPKS0_
libmozjs-140.so:_ZN2JS6BigInt8addValueEP9JSContextNS_6HandleINS_5ValueEEES5_NS_13MutableHandleIS4_EE
libmozjs-140.so:_ZN2JS6BigInt8decValueEP9JSContextNS_6HandleINS_5ValueEEENS_13MutableHandleIS4_EE
libmozjs-140.so:_ZN2JS6BigInt8digitDivEmmmPm
libmozjs-140.so:_ZN2JS6BigInt8divValueEP9JSContextNS_6HandleINS_5ValueEEES5_NS_13MutableHandleIS4_EE
libmozjs-140.so:_ZN2JS6BigInt8finalizeEPNS_9GCContextE
libmozjs-140.so:_ZN2JS6BigInt8incValueEP9JSContextNS_6HandleINS_5ValueEEENS_13MutableHandleIS4_EE
libmozjs-140.so:_ZN2JS6BigInt8isIntPtrEPKS0_Pl
libmozjs-140.so:_ZN2JS6BigInt8isNumberEPKS0_Pd
libmozjs-140.so:_ZN2JS6BigInt8isUint64EPKS0_Pm
libmozjs-140.so:_ZN2JS6BigInt8lessThanEP9JSContextNS_6HandleINS_5ValueEEES5_RN7mozilla5MaybeIbEE
libmozjs-140.so:_ZN2JS6BigInt8lessThanEP9JSContextNS_6HandleIP8JSStringEENS3_IPS0_EERN7mozilla5MaybeIbEE
libmozjs-140.so:_ZN2JS6BigInt8lessThanEP9JSContextNS_6HandleIPS0_EENS3_IP8JSStringEERN7mozilla5MaybeIbEE
libmozjs-140.so:_ZN2JS6BigInt8lessThanEPKS0_S2_
libmozjs-140.so:_ZN2JS6BigInt8lessThanEPKS0_d
libmozjs-140.so:_ZN2JS6BigInt8lessThanEdPKS0_
libmozjs-140.so:_ZN2JS6BigInt8lshValueEP9JSContextNS_6HandleINS_5ValueEEES5_NS_13MutableHandleIS4_EE
libmozjs-140.so:_ZN2JS6BigInt8modValueEP9JSContextNS_6HandleINS_5ValueEEES5_NS_13MutableHandleIS4_EE
libmozjs-140.so:_ZN2JS6BigInt8mulValueEP9JSContextNS_6HandleINS_5ValueEEES5_NS_13MutableHandleIS4_EE
libmozjs-140.so:_ZN2JS6BigInt8negValueEP9JSContextNS_6HandleINS_5ValueEEENS_13MutableHandleIS4_EE
libmozjs-140.so:_ZN2JS6BigInt8powValueEP9JSContextNS_6HandleINS_5ValueEEES5_NS_13MutableHandleIS4_EE
libmozjs-140.so:_ZN2JS6BigInt8rshValueEP9JSContextNS_6HandleINS_5ValueEEES5_NS_13MutableHandleIS4_EE
libmozjs-140.so:_ZN2JS6BigInt8subValueEP9JSContextNS_6HandleINS_5ValueEEES5_NS_13MutableHandleIS4_EE
libmozjs-140.so:_ZN2JS6BigInt8toUint64EPKS0_
libmozjs-140.so:_ZN2JS6BigInt9powIntPtrEllPl
libmozjs-140.so:_ZN2JS6MapGetEP9JSContextNS_6HandleIP8JSObjectEENS2_INS_5ValueEEENS_13MutableHandleIS6_EE
libmozjs-140.so:_ZN2JS6MapHasEP9JSContextNS_6HandleIP8JSObjectEENS2_INS_5ValueEEEPb
libmozjs-140.so:_ZN2JS6MapSetEP9JSContextNS_6HandleIP8JSObjectEENS2_INS_5ValueEEES7_
libmozjs-140.so:_ZN2JS6SetAddEP9JSContextNS_6HandleIP8JSObjectEENS2_INS_5ValueEEE
libmozjs-140.so:_ZN2JS6SetHasEP9JSContextNS_6HandleIP8JSObjectEENS2_INS_5ValueEEEPb
libmozjs-140.so:_ZN2JS6Symbol11newInternalEP9JSContextNS_10SymbolCodeEjNS_6HandleIP6JSAtomEE
libmozjs-140.so:_ZN2JS6Symbol12newWellKnownEP9JSContextNS_10SymbolCodeENS_6HandleIPN2js12PropertyNameEEE
libmozjs-140.so:_ZN2JS6Symbol4for_EP9JSContextNS_6HandleIP8JSStringEE
libmozjs-140.so:_ZN2JS6Symbol4new_EP9JSContextNS_10SymbolCodeENS_6HandleIP8JSStringEE
libmozjs-140.so:_ZN2JS6ToJSONEP9JSContextNS_6HandleINS_5ValueEEENS2_IP8JSObjectEES4_PFbPKDsjPvESA_
libmozjs-140.so:_ZN2JS6detail11ComputeThisEP9JSContextPNS_5ValueENS_13MutableHandleIP8JSObjectEE
libmozjs-140.so:_ZN2JS6detail13BigIntIsInt64EPKNS_6BigIntEPl
libmozjs-140.so:_ZN2JS6detail14BigIntFromBoolEP9JSContextb
libmozjs-140.so:_ZN2JS6detail14BigIntIsUint64EPKNS_6BigIntEPm
libmozjs-140.so:_ZN2JS6detail15BigIntFromInt64EP9JSContextl
libmozjs-140.so:_ZN2JS6detail16BigIntFromUint64EP9JSContextm
libmozjs-140.so:_ZN2JS6detail16libraryInitStateE
libmozjs-140.so:_ZN2JS6detail19CallMethodIfWrappedEP9JSContextPFbNS_6HandleINS_5ValueEEEEPFbS2_RKNS_8CallArgsEESA_
libmozjs-140.so:_ZN2JS6detail19ReportSourceTooLongEP9JSContext
libmozjs-140.so:_ZN2JS6detail19ReportSourceTooLongEPN2js15FrontendContextE
libmozjs-140.so:_ZN2JS6detail24StringToLinearStringSlowEP9JSContextP8JSString
libmozjs-140.so:_ZN2JS6detail25CheckIsValidConstructibleERKNS_5ValueE
libmozjs-140.so:_ZN2JS6detail25InitWithFailureDiagnosticEbNS0_12FrontendOnlyE
libmozjs-140.so:_ZN2JS6detail26SetReservedSlotWithBarrierEP8JSObjectmRKNS_5ValueE
libmozjs-140.so:_ZN2JS6detail30ObjectGetUntypedStashedPointerEP9JSContextP8JSObject
libmozjs-140.so:_ZN2JS6detail34NewObjectWithUntypedStashedPointerEP9JSContextPvPFvS3_E
libmozjs-140.so:_ZN2JS6shadow17RegisterWeakCacheEP9JSRuntimePNS_6detail13WeakCacheBaseE
libmozjs-140.so:_ZN2JS6shadow17RegisterWeakCacheEPNS_4ZoneEPNS_6detail13WeakCacheBaseE
libmozjs-140.so:_ZN2JS7CompileEP9JSContextRKNS_22ReadOnlyCompileOptionsERNS_10SourceTextIDsEE
libmozjs-140.so:_ZN2JS7CompileEP9JSContextRKNS_22ReadOnlyCompileOptionsERNS_10SourceTextIN7mozilla8Utf8UnitEEE
libmozjs-140.so:_ZN2JS7IsArrayEP9JSContextNS_6HandleIP8JSObjectEEPNS_13IsArrayAnswerE
libmozjs-140.so:_ZN2JS7IsArrayEP9JSContextNS_6HandleIP8JSObjectEEPb
libmozjs-140.so:_ZN2JS7LogCtorEPvPKcj
libmozjs-140.so:_ZN2JS7LogDtorEPvPKcj
libmozjs-140.so:_ZN2JS7MapKeysEP9JSContextNS_6HandleIP8JSObjectEENS_13MutableHandleINS_5ValueEEE
libmozjs-140.so:_ZN2JS7MapSizeEP9JSContextNS_6HandleIP8JSObjectEE
libmozjs-140.so:_ZN2JS7SetKeysEP9JSContextNS_6HandleIP8JSObjectEENS_13MutableHandleINS_5ValueEEE
libmozjs-140.so:_ZN2JS7SetSizeEP9JSContextNS_6HandleIP8JSObjectEE
libmozjs-140.so:_ZN2JS8CallArgs20reportMoreArgsNeededEP9JSContextPKcjj
libmozjs-140.so:_ZN2JS8DataView17ResizableClassPtrE
libmozjs-140.so:_ZN2JS8DataView19FixedLengthClassPtrE
libmozjs-140.so:_ZN2JS8EvaluateEP9JSContextRKNS_16EnvironmentChainERKNS_22ReadOnlyCompileOptionsERNS_10SourceTextIDsEENS_13MutableHandleINS_5ValueEEE
libmozjs-140.so:_ZN2JS8EvaluateEP9JSContextRKNS_22ReadOnlyCompileOptionsERNS_10SourceTextIDsEENS_13MutableHandleINS_5ValueEEE
libmozjs-140.so:_ZN2JS8EvaluateEP9JSContextRKNS_22ReadOnlyCompileOptionsERNS_10SourceTextIN7mozilla8Utf8UnitEEENS_13MutableHandleINS_5ValueEEE
libmozjs-140.so:_ZN2JS8MakeDateEdjj
libmozjs-140.so:_ZN2JS8MakeDateEdjjd
libmozjs-140.so:_ZN2JS8MapClearEP9JSContextNS_6HandleIP8JSObjectEE
libmozjs-140.so:_ZN2JS8SetClearEP9JSContextNS_6HandleIP8JSObjectEE
libmozjs-140.so:_ZN2JS8ToBigIntEP9JSContextNS_6HandleINS_5ValueEEE
libmozjs-140.so:_ZN2JS8WarnUTF8EP9JSContextPKcz
libmozjs-140.so:_ZN2JS9ConstructEP9JSContextNS_6HandleINS_5ValueEEENS2_IP8JSObjectEERKNS_16HandleValueArrayENS_13MutableHandleIS6_EE
libmozjs-140.so:_ZN2JS9ConstructEP9JSContextNS_6HandleINS_5ValueEEERKNS_16HandleValueArrayENS_13MutableHandleIP8JSObjectEE
libmozjs-140.so:_ZN2JS9GCCellPtrC1ERKNS_5ValueE
libmozjs-140.so:_ZN2JS9GCCellPtrC2ERKNS_5ValueE
libmozjs-140.so:_ZN2JS9GCContext13poisonJitCodeEv
libmozjs-140.so:_ZN2JS9GCContextC1EP9JSRuntime
libmozjs-140.so:_ZN2JS9GCContextC2EP9JSRuntime
libmozjs-140.so:_ZN2JS9GCContextD1Ev
libmozjs-140.so:_ZN2JS9GCContextD2Ev
libmozjs-140.so:_ZN2JS9MapDeleteEP9JSContextNS_6HandleIP8JSObjectEENS2_INS_5ValueEEEPb
libmozjs-140.so:_ZN2JS9MapValuesEP9JSContextNS_6HandleIP8JSObjectEENS_13MutableHandleINS_5ValueEEE
libmozjs-140.so:_ZN2JS9NewSymbolEP9JSContextNS_6HandleIP8JSStringEE
libmozjs-140.so:_ZN2JS9SameValueEP9JSContextNS_6HandleINS_5ValueEEES4_Pb
libmozjs-140.so:_ZN2JS9SetDeleteEP9JSContextNS_6HandleIP8JSObjectEENS2_INS_5ValueEEEPb
libmozjs-140.so:_ZN2JS9SetValuesEP9JSContextNS_6HandleIP8JSObjectEENS_13MutableHandleINS_5ValueEEE
libmozjs-140.so:_ZN2JS9TraceRootEP8JSTracerPN2js4wasm6AnyRefEPKc
libmozjs-140.so:_ZN2JS9TraceRootEP8JSTracerPNS_11PropertyKeyEPKc
libmozjs-140.so:_ZN2JS9TraceRootEP8JSTracerPNS_5ValueEPKc
libmozjs-140.so:_ZN2JS9TraceRootEP8JSTracerPP10JSFunctionPKc
libmozjs-140.so:_ZN2JS9TraceRootEP8JSTracerPP14JSLinearStringPKc
libmozjs-140.so:_ZN2JS9TraceRootEP8JSTracerPP6JSAtomPKc
libmozjs-140.so:_ZN2JS9TraceRootEP8JSTracerPP8JSObjectPKc
libmozjs-140.so:_ZN2JS9TraceRootEP8JSTracerPP8JSScriptPKc
libmozjs-140.so:_ZN2JS9TraceRootEP8JSTracerPP8JSStringPKc
libmozjs-140.so:_ZN2JS9TraceRootEP8JSTracerPPN2js10SavedFrameEPKc
libmozjs-140.so:_ZN2JS9TraceRootEP8JSTracerPPN2js23AbstractGeneratorObjectEPKc
libmozjs-140.so:_ZN2JS9TraceRootEP8JSTracerPPNS_6BigIntEPKc
libmozjs-140.so:_ZN2JS9TraceRootEP8JSTracerPPNS_6SymbolEPKc
libmozjs-140.so:_ZN2JS9WarnASCIIEP9JSContextPKcz
libmozjs-140.so:_ZN2js10DumpBigIntEPN2JS6BigIntE
libmozjs-140.so:_ZN2js10DumpBigIntEPN2JS6BigIntEP8_IO_FILE
libmozjs-140.so:_ZN2js10DumpBigIntEPN2JS6BigIntERNS_14GenericPrinterE
libmozjs-140.so:_ZN2js10DumpObjectEP8JSObject
libmozjs-140.so:_ZN2js10DumpObjectEP8JSObjectP8_IO_FILE
libmozjs-140.so:_ZN2js10DumpObjectEP8JSObjectRNS_14GenericPrinterE
libmozjs-140.so:_ZN2js10DumpScriptEP9JSContextP8JSScript
libmozjs-140.so:_ZN2js10DumpStringEP8JSString
libmozjs-140.so:_ZN2js10DumpStringEP8JSStringP8_IO_FILE
libmozjs-140.so:_ZN2js10DumpStringEP8JSStringRNS_14GenericPrinterE
libmozjs-140.so:_ZN2js10EnqueueJobEP9JSContextN2JS6HandleIP8JSObjectEE
libmozjs-140.so:_ZN2js10JSONEscape10isSafeCharEDs
libmozjs-140.so:_ZN2js10JSONEscape11convertIntoERNS_14GenericPrinterEDs
libmozjs-140.so:_ZN2js10ProxyClassE
libmozjs-140.so:_ZN2js10ToInt8SlowEP9JSContextN2JS6HandleINS2_5ValueEEEPa
libmozjs-140.so:_ZN2js11DateIsValidEP9JSContextN2JS6HandleIP8JSObjectEEPb
libmozjs-140.so:_ZN2js11GetSCOffsetEP23JSStructuredCloneWriter
libmozjs-140.so:_ZN2js11MallocArenaE
libmozjs-140.so:_ZN2js11QuoteStringEP9JSContextP8JSStringc
libmozjs-140.so:_ZN2js11QuoteStringEPNS_8SprinterEP8JSStringc
libmozjs-140.so:_ZN2js11ToInt16SlowEP9JSContextN2JS6HandleINS2_5ValueEEEPs
libmozjs-140.so:_ZN2js11ToInt32SlowEP9JSContextN2JS6HandleINS2_5ValueEEEPi
libmozjs-140.so:_ZN2js11ToInt64SlowEP9JSContextN2JS6HandleINS2_5ValueEEEPl
libmozjs-140.so:_ZN2js11ToUint8SlowEP9JSContextN2JS6HandleINS2_5ValueEEEPh
libmozjs-140.so:_ZN2js12AppendUniqueEP9JSContextN2JS13MutableHandleINS2_13StackGCVectorINS2_11PropertyKeyENS_15TempAllocPolicyEEEEENS2_6HandleIS7_EE
libmozjs-140.so:_ZN2js12ElementAdder10appendHoleEv
libmozjs-140.so:_ZN2js12ElementAdder6appendEP9JSContextN2JS6HandleINS3_5ValueEEE
libmozjs-140.so:_ZN2js12GetRealmZoneEPN2JS5RealmE
libmozjs-140.so:_ZN2js12IsSavedFrameEP8JSObject
libmozjs-140.so:_ZN2js12IsSystemZoneEPN2JS4ZoneE
libmozjs-140.so:_ZN2js12StringEscape10isSafeCharEDs
libmozjs-140.so:_ZN2js12StringEscape11convertIntoERNS_14GenericPrinterEDs
libmozjs-140.so:_ZN2js12ToNumberSlowEP9JSContextN2JS6HandleINS2_5ValueEEEPd
libmozjs-140.so:_ZN2js12ToObjectSlowEP9JSContextN2JS6HandleINS2_5ValueEEEb
libmozjs-140.so:_ZN2js12ToStringSlowEP9JSContextN2JS6HandleINS2_5ValueEEE
libmozjs-140.so:_ZN2js12ToUint16SlowEP9JSContextN2JS6HandleINS2_5ValueEEEPt
libmozjs-140.so:_ZN2js12ToUint32SlowEP9JSContextN2JS6HandleINS2_5ValueEEEPj
libmozjs-140.so:_ZN2js12ToUint64SlowEP9JSContextN2JS6HandleINS2_5ValueEEEPm
libmozjs-140.so:_ZN2js13DumpBacktraceEP9JSContext
libmozjs-140.so:_ZN2js13DumpBacktraceEP9JSContextP8_IO_FILE
libmozjs-140.so:_ZN2js13DumpBacktraceEP9JSContextRNS_14GenericPrinterE
libmozjs-140.so:_ZN2js13IsSystemRealmEPN2JS5RealmE
libmozjs-140.so:_ZN2js13IsWindowProxyEP8JSObject
libmozjs-140.so:_ZN2js13NewDateObjectEP9JSContextiiiiii
libmozjs-140.so:_ZN2js13ProxyClassOpsE
libmozjs-140.so:_ZN2js13SetSourceHookEP9JSContextN7mozilla9UniquePtrINS_10SourceHookENS2_13DefaultDeleteIS4_EEEE
libmozjs-140.so:_ZN2js13StringPrinter11DefaultSizeE
libmozjs-140.so:_ZN2js13StringPrinter12releaseCharsEv
libmozjs-140.so:_ZN2js13StringPrinter18forwardOutOfMemoryEv
libmozjs-140.so:_ZN2js13StringPrinter3putEPKcm
libmozjs-140.so:_ZN2js13StringPrinter4initEv
libmozjs-140.so:_ZN2js13StringPrinter7reserveEm
libmozjs-140.so:_ZN2js13StringPrinter8realloc_Em
libmozjs-140.so:_ZN2js13StringPrinter9putStringEP9JSContextP8JSString
libmozjs-140.so:_ZN2js13StringPrinter9releaseJSEP9JSContext
libmozjs-140.so:_ZN2js13StringPrinterC1EmP9JSContextb
libmozjs-140.so:_ZN2js13StringPrinterC2EmP9JSContextb
libmozjs-140.so:_ZN2js13StringPrinterD1Ev
libmozjs-140.so:_ZN2js13StringPrinterD2Ev
libmozjs-140.so:_ZN2js13ToBooleanSlowEN2JS6HandleINS0_5ValueEEE
libmozjs-140.so:_ZN2js13TraceWeakMapsEPNS_13WeakMapTracerE
libmozjs-140.so:_ZN2js14GenericPrinter21setPendingOutOfMemoryEv
libmozjs-140.so:_ZN2js14GenericPrinter3putEN7mozilla4SpanIKDsLm18446744073709551615EEE
libmozjs-140.so:_ZN2js14GenericPrinter3putEN7mozilla4SpanIKhLm18446744073709551615EEE
libmozjs-140.so:_ZN2js14GenericPrinter6printfEPKcz
libmozjs-140.so:_ZN2js14GenericPrinter7vprintfEPKcP13__va_list_tag
libmozjs-140.so:_ZN2js14GenericPrinter9putStringEP9JSContextP8JSString
libmozjs-140.so:_ZN2js14GetGCHeapUsageEP9JSContext
libmozjs-140.so:_ZN2js14GetObjectProtoEP9JSContextN2JS6HandleIP8JSObjectEENS2_13MutableHandleIS5_EE
libmozjs-140.so:_ZN2js14GetStackFormatEP9JSContext
libmozjs-140.so:_ZN2js14NewProxyObjectEP9JSContextPKNS_16BaseProxyHandlerEN2JS6HandleINS5_5ValueEEEP8JSObjectRKNS_12ProxyOptionsE
libmozjs-140.so:_ZN2js14ObjectClassPtrE
libmozjs-140.so:_ZN2js14ProxyObjectOpsE
libmozjs-140.so:_ZN2js14SetStackFormatEP9JSContextNS_11StackFormatE
libmozjs-140.so:_ZN2js14SetWindowProxyEP9JSContextN2JS6HandleIP8JSObjectEES6_
libmozjs-140.so:_ZN2js15AddRawValueRootEP9JSContextPN2JS5ValueEPKc
libmozjs-140.so:_ZN2js15AllowNewWrapperEPN2JS11CompartmentEP8JSObject
libmozjs-140.so:_ZN2js15AutoEnterPolicy34reportErrorIfExceptionIsNotPendingEP9JSContextN2JS6HandleINS3_11PropertyKeyEEE
libmozjs-140.so:_ZN2js15ForwardToNativeEP9JSContextPFbS1_jPN2JS5ValueEERKNS2_8CallArgsE
libmozjs-140.so:_ZN2js15GetDOMCallbacksEP9JSContext
libmozjs-140.so:_ZN2js15GetErrorMessageEPvj
libmozjs-140.so:_ZN2js15GetPropertyKeysEP9JSContextN2JS6HandleIP8JSObjectEEjNS2_13MutableHandleINS2_13StackGCVectorINS2_11PropertyKeyENS_15TempAllocPolicyEEEEE
libmozjs-140.so:_ZN2js15JSONQuoteStringEPNS_13StringPrinterEP8JSString
libmozjs-140.so:_ZN2js15NukeNonCCWProxyEP9JSContextN2JS6HandleIP8JSObjectEE
libmozjs-140.so:_ZN2js15ProtoKeyToClassE10JSProtoKey
libmozjs-140.so:_ZN2js15SetDOMCallbacksEP9JSContextPKNS_14JSDOMCallbacksE
libmozjs-140.so:_ZN2js15TempAllocPolicy13onOutOfMemoryEmNS_13AllocFunctionEmPv
libmozjs-140.so:_ZN2js15TraceValueArrayEP8JSTracermPN2JS5ValueE
libmozjs-140.so:_ZN2js15UncheckedUnwrapEP8JSObjectbPj
libmozjs-140.so:_ZN2js15UnwrapInt8ArrayEP8JSObject
libmozjs-140.so:_ZN2js15WATStringEscape10isSafeCharEDs
libmozjs-140.so:_ZN2js15WATStringEscape11convertIntoERNS_14GenericPrinterEDs
libmozjs-140.so:_ZN2js16ForgetSourceHookEP9JSContext
libmozjs-140.so:_ZN2js16FunctionClassPtrE
libmozjs-140.so:_ZN2js16GetErrorTypeNameEP9JSContexts
libmozjs-140.so:_ZN2js16IsFunctionObjectEP8JSObject
libmozjs-140.so:_ZN2js16NukedObjectRealmEP8JSObject
libmozjs-140.so:_ZN2js16UnwrapInt16ArrayEP8JSObject
libmozjs-140.so:_ZN2js16UnwrapInt32ArrayEP8JSObject
libmozjs-140.so:_ZN2js16UnwrapUint8ArrayEP8JSObject
libmozjs-140.so:_ZN2js17GetAnyRealmInZoneEPN2JS4ZoneE
libmozjs-140.so:_ZN2js17IsArgumentsObjectEN2JS6HandleIP8JSObjectEE
libmozjs-140.so:_ZN2js17RecomputeWrappersEP9JSContextRKNS_17CompartmentFilterES4_
libmozjs-140.so:_ZN2js17ReportOutOfMemoryEP9JSContext
libmozjs-140.so:_ZN2js17ReportOutOfMemoryEPNS_15FrontendContextE
libmozjs-140.so:_ZN2js17StringBufferArenaE
libmozjs-140.so:_ZN2js17StructuredPrinter10isExpandedEv
libmozjs-140.so:_ZN2js17StructuredPrinter18putWithMaybeIndentEPKcmi
libmozjs-140.so:_ZN2js17StructuredPrinter3brkEPKcS2_
libmozjs-140.so:_ZN2js17StructuredPrinter3putEPKcm
libmozjs-140.so:_ZN2js17StructuredPrinter5flushEv
libmozjs-140.so:_ZN2js17StructuredPrinter6expandEv
libmozjs-140.so:_ZN2js17StructuredPrinter8popScopeEv
libmozjs-140.so:_ZN2js17StructuredPrinter8putBreakERKNS0_5BreakE
libmozjs-140.so:_ZN2js17StructuredPrinter9pushScopeEv
libmozjs-140.so:_ZN2js17StructuredPrinter9putIndentEi
libmozjs-140.so:_ZN2js17UnwrapUint16ArrayEP8JSObject
libmozjs-140.so:_ZN2js17UnwrapUint32ArrayEP8JSObject
libmozjs-140.so:_ZN2js18AreGCGrayBitsValidEP9JSRuntime
libmozjs-140.so:_ZN2js18EnableCodeCoverageEv
libmozjs-140.so:_ZN2js18GetStaticPrototypeEP8JSObject
libmozjs-140.so:_ZN2js18IterateGrayObjectsEPN2JS4ZoneEPFvPvNS0_9GCCellPtrERKNS0_15AutoRequireNoGCEES3_
libmozjs-140.so:_ZN2js18RemoveRawValueRootEP9JSContextPN2JS5ValueE
libmozjs-140.so:_ZN2js18ReportOverRecursedEP9JSContext
libmozjs-140.so:_ZN2js18ReportOverRecursedEPNS_15FrontendContextE
libmozjs-140.so:_ZN2js18StringIsArrayIndexEPK14JSLinearStringPj
libmozjs-140.so:_ZN2js18StringIsArrayIndexEPKDsjPj
libmozjs-140.so:_ZN2js18UnwrapFloat16ArrayEP8JSObject
libmozjs-140.so:_ZN2js18UnwrapFloat32ArrayEP8JSObject
libmozjs-140.so:_ZN2js18UnwrapFloat64ArrayEP8JSObject
libmozjs-140.so:_ZN2js19CheckedUnwrapStaticEP8JSObject
libmozjs-140.so:_ZN2js19GetScriptLineExtentEP8JSScriptPN2JS28LimitedColumnNumberOneOriginE
libmozjs-140.so:_ZN2js19GetTestingFunctionsEP9JSContext
libmozjs-140.so:_ZN2js19IsSystemCompartmentEPN2JS11CompartmentE
libmozjs-140.so:_ZN2js19ProxyClassExtensionE
libmozjs-140.so:_ZN2js19ReportIsNotFunctionEP9JSContextN2JS6HandleINS2_5ValueEEE
libmozjs-140.so:_ZN2js19SetWindowProxyClassEP9JSContextPK7JSClass
libmozjs-140.so:_ZN2js19UnwrapBigInt64ArrayEP8JSObject
libmozjs-140.so:_ZN2js20CheckedUnwrapDynamicEP8JSObjectP9JSContextb
libmozjs-140.so:_ZN2js20DumpInterpreterFrameEP9JSContextPNS_16InterpreterFrameE
libmozjs-140.so:_ZN2js20GetElementsWithAdderEP9JSContextN2JS6HandleIP8JSObjectEES6_jjPNS_12ElementAdderE
libmozjs-140.so:_ZN2js20GetRealmOriginalEvalEP9JSContextN2JS13MutableHandleIP8JSObjectEE
libmozjs-140.so:_ZN2js20NoteIntentionalCrashEv
libmozjs-140.so:_ZN2js20StopDrainingJobQueueEP9JSContext
libmozjs-140.so:_ZN2js20UnwrapBigUint64ArrayEP8JSObject
libmozjs-140.so:_ZN2js20UseInternalJobQueuesEP9JSContext
libmozjs-140.so:_ZN2js21AssertSameCompartmentEP9JSContextN2JS6HandleINS2_5ValueEEE
libmozjs-140.so:_ZN2js21AssertSameCompartmentEP9JSContextP8JSObject
libmozjs-140.so:_ZN2js21AutoAssertNoContentJSC1EP9JSContext
libmozjs-140.so:_ZN2js21AutoAssertNoContentJSC2EP9JSContext
libmozjs-140.so:_ZN2js21AutoAssertNoContentJSD1Ev
libmozjs-140.so:_ZN2js21AutoAssertNoContentJSD2Ev
libmozjs-140.so:_ZN2js21BackgroundMallocArenaE
libmozjs-140.so:_ZN2js21DateGetMsecSinceEpochEP9JSContextN2JS6HandleIP8JSObjectEEPd
libmozjs-140.so:_ZN2js21GetAllocationMetadataEP8JSObject
libmozjs-140.so:_ZN2js21GetMemoryUsageForZoneEPN2JS4ZoneE
libmozjs-140.so:_ZN2js21IsSharableCompartmentEPN2JS11CompartmentE
libmozjs-140.so:_ZN2js21MaybeGetScriptPrivateEP8JSObject
libmozjs-140.so:_ZN2js21ToWindowIfWindowProxyEP8JSObject
libmozjs-140.so:_ZN2js21UnwrapArrayBufferViewEP8JSObject
libmozjs-140.so:_ZN2js21ZoneGlobalsAreAllGrayEPN2JS4ZoneE
libmozjs-140.so:_ZN2js22GetCodeCoverageSummaryEP9JSContextPm
libmozjs-140.so:_ZN2js22ReportLargeOutOfMemoryEP9JSContext
libmozjs-140.so:_ZN2js22UnwrapOneCheckedStaticEP8JSObject
libmozjs-140.so:_ZN2js23CrossCompartmentWrapper9singletonE
libmozjs-140.so:_ZN2js23NewFunctionWithReservedEP9JSContextPFbS1_jPN2JS5ValueEEjjPKc
libmozjs-140.so:_ZN2js23NotifyAnimationActivityEP8JSObject
libmozjs-140.so:_ZN2js23RestartDrainingJobQueueEP9JSContext
libmozjs-140.so:_ZN2js23TraceGrayWrapperTargetsEP8JSTracerPN2JS4ZoneE
libmozjs-140.so:_ZN2js23UnwrapOneCheckedDynamicEN2JS6HandleIP8JSObjectEEP9JSContextb
libmozjs-140.so:_ZN2js23UnwrapUint8ClampedArrayEP8JSObject
libmozjs-140.so:_ZN2js24ArrayBufferContentsArenaE
libmozjs-140.so:_ZN2js24AutoEnterOOMUnsafeRegion10crash_implEPKc
libmozjs-140.so:_ZN2js24AutoEnterOOMUnsafeRegion10crash_implEmPKc
libmozjs-140.so:_ZN2js24AutoEnterOOMUnsafeRegion23annotateOOMSizeCallbackE
libmozjs-140.so:_ZN2js24CompartmentHasLiveGlobalEPN2JS11CompartmentE
libmozjs-140.so:_ZN2js24FunctionExtendedClassPtrE
libmozjs-140.so:_ZN2js24RemapRemoteWindowProxiesEP9JSContextPNS_29CompartmentTransplantCallbackEN2JS13MutableHandleIP8JSObjectEE
libmozjs-140.so:_ZN2js24SetContextProfilingStackEP9JSContextP14ProfilingStack
libmozjs-140.so:_ZN2js25FunctionHasNativeReservedEP8JSObject
libmozjs-140.so:_ZN2js25GetCodeCoverageSummaryAllEP9JSContextPm
libmozjs-140.so:_ZN2js25GetFunctionNativeReservedEP8JSObjectm
libmozjs-140.so:_ZN2js25RemapAllWrappersForObjectEP9JSContextN2JS6HandleIP8JSObjectEES6_
libmozjs-140.so:_ZN2js25SetFunctionNativeReservedEP8JSObjectmRKN2JS5ValueE
libmozjs-140.so:_ZN2js26CurrentThreadCanAccessZoneEPN2JS4ZoneE
libmozjs-140.so:_ZN2js26DefineFunctionWithReservedEP9JSContextP8JSObjectPKcPFbS1_jPN2JS5ValueEEjj
libmozjs-140.so:_ZN2js26GetFirstSubsumedSavedFrameEP9JSContextP12JSPrincipalsN2JS6HandleIP8JSObjectEENS4_20SavedFrameSelfHostedE
libmozjs-140.so:_ZN2js26GetObjectZoneFromAnyThreadEPK8JSObject
libmozjs-140.so:_ZN2js27EnableContextProfilingStackEP9JSContextb
libmozjs-140.so:_ZN2js27GetFirstGlobalInCompartmentEPN2JS11CompartmentE
libmozjs-140.so:_ZN2js27GetSharedMemoryUsageForZoneEPN2JS4ZoneE
libmozjs-140.so:_ZN2js27NewFunctionByIdWithReservedEP9JSContextPFbS1_jPN2JS5ValueEEjjNS2_11PropertyKeyE
libmozjs-140.so:_ZN2js27NukeCrossCompartmentWrapperEP9JSContextP8JSObject
libmozjs-140.so:_ZN2js27SetPreserveWrapperCallbacksEP9JSContextPFbS1_N2JS6HandleIP8JSObjectEEEPFbS6_E
libmozjs-140.so:_ZN2js28IsObjectInContextCompartmentEP8JSObjectPK9JSContext
libmozjs-140.so:_ZN2js28NukeCrossCompartmentWrappersEP9JSContextRKNS_17CompartmentFilterEPN2JS5RealmENS_22NukeReferencesToWindowENS_24NukeReferencesFromTargetE
libmozjs-140.so:_ZN2js28SetAllocationMetadataBuilderEP9JSContextPKNS_25AllocationMetadataBuilderE
libmozjs-140.so:_ZN2js28SetScriptEnvironmentPreparerEP9JSContextPNS_25ScriptEnvironmentPreparerE
libmozjs-140.so:_ZN2js28UncheckedUnwrapWithoutExposeEP8JSObject
libmozjs-140.so:_ZN2js29CurrentThreadCanAccessRuntimeEPK9JSRuntime
libmozjs-140.so:_ZN2js29OpaqueCrossCompartmentWrapper9singletonE
libmozjs-140.so:_ZN2js2gc10TraceRealmEP8JSTracerPN2JS5RealmEPKc
libmozjs-140.so:_ZN2js2gc12GetGCContextEP9JSContext
libmozjs-140.so:_ZN2js2gc15LockStoreBufferEP9JSRuntime
libmozjs-140.so:_ZN2js2gc17TraceExternalEdgeEP8JSTracerPN2JS11PropertyKeyEPKc
libmozjs-140.so:_ZN2js2gc17TraceExternalEdgeEP8JSTracerPN2JS5ValueEPKc
libmozjs-140.so:_ZN2js2gc17TraceExternalEdgeEP8JSTracerPP10JSFunctionPKc
libmozjs-140.so:_ZN2js2gc17TraceExternalEdgeEP8JSTracerPP14JSLinearStringPKc
libmozjs-140.so:_ZN2js2gc17TraceExternalEdgeEP8JSTracerPP6JSAtomPKc
libmozjs-140.so:_ZN2js2gc17TraceExternalEdgeEP8JSTracerPP8JSObjectPKc
libmozjs-140.so:_ZN2js2gc17TraceExternalEdgeEP8JSTracerPP8JSScriptPKc
libmozjs-140.so:_ZN2js2gc17TraceExternalEdgeEP8JSTracerPP8JSStringPKc
libmozjs-140.so:_ZN2js2gc17TraceExternalEdgeEP8JSTracerPPN2JS6BigIntEPKc
libmozjs-140.so:_ZN2js2gc17TraceExternalEdgeEP8JSTracerPPN2JS6SymbolEPKc
libmozjs-140.so:_ZN2js2gc17UnlockStoreBufferEP9JSRuntime
libmozjs-140.so:_ZN2js2gc18SetPerformanceHintEP9JSContextNS0_15PerformanceHintE
libmozjs-140.so:_ZN2js2gc19NewMemoryInfoObjectEP9JSContext
libmozjs-140.so:_ZN2js2gc23GetProfilerMemoryCountsEv
libmozjs-140.so:_ZN2js2gc29PerformIncrementalReadBarrierEN2JS9GCCellPtrE
libmozjs-140.so:_ZN2js2gc5Arena10ThingSizesE
libmozjs-140.so:_ZN2js2gc5Arena14ThingsPerArenaE
libmozjs-140.so:_ZN2js2gc5Arena17FirstThingOffsetsE
libmozjs-140.so:_ZN2js2gc6detail16CanCheckGrayBitsEPKNS0_11TenuredCellE
libmozjs-140.so:_ZN2js2gc6detail23CellIsMarkedGrayIfKnownEPKNS0_11TenuredCellE
libmozjs-140.so:_ZN2js30SetPropertyIgnoringNamedGetterEP9JSContextN2JS6HandleIP8JSObjectEENS3_INS2_11PropertyKeyEEENS3_INS2_5ValueEEESA_NS3_IN7mozilla5MaybeINS2_18PropertyDescriptorEEEEERNS2_14ObjectOpResultE
libmozjs-140.so:_ZN2js30ShouldIgnorePropertyDefinitionEP9JSContext10JSProtoKeyN2JS11PropertyKeyE
libmozjs-140.so:_ZN2js31ExecuteInFrameScriptEnvironmentEP9JSContextN2JS6HandleIP8JSObjectEENS3_IP8JSScriptEENS2_13MutableHandleIS5_EE
libmozjs-140.so:_ZN2js31GetArrayBufferViewLengthAndDataEP8JSObjectPmPbPPh
libmozjs-140.so:_ZN2js32MemoryReportingSundriesThresholdEv
libmozjs-140.so:_ZN2js32UnsafeTraceManuallyBarrieredEdgeEP8JSTracerPP8JSObjectPKc
libmozjs-140.so:_ZN2js33PrepareScriptEnvironmentAndInvokeEP9JSContextN2JS6HandleIP8JSObjectEERNS_25ScriptEnvironmentPreparer7ClosureE
libmozjs-140.so:_ZN2js34NukeRemovedCrossCompartmentWrapperEP9JSContextP8JSObject
libmozjs-140.so:_ZN2js34UninlinedIsCrossCompartmentWrapperEPK8JSObject
libmozjs-140.so:_ZN2js35NewFunctionByIdWithReservedAndProtoEP9JSContextPFbS1_jPN2JS5ValueEENS2_6HandleIP8JSObjectEEjjNS2_11PropertyKeyE
libmozjs-140.so:_ZN2js35NukeCrossCompartmentWrapperIfExistsEP9JSContextPN2JS11CompartmentEP8JSObject
libmozjs-140.so:_ZN2js35RegisterContextProfilingEventMarkerEP9JSContextPFvN7mozilla14MarkerCategoryEPKcS5_EPFvS3_S5_NS2_9TimeStampES5_E
libmozjs-140.so:_ZN2js37IsCompartmentZoneSweepingOrCompactingEPN2JS11CompartmentE
libmozjs-140.so:_ZN2js6DumpIdEN2JS11PropertyKeyE
libmozjs-140.so:_ZN2js6DumpIdEN2JS11PropertyKeyEP8_IO_FILE
libmozjs-140.so:_ZN2js6DumpPCEP9JSContext
libmozjs-140.so:_ZN2js6detail12IsWindowSlowEP8JSObject
libmozjs-140.so:_ZN2js6detail15SetValueInProxyEPN2JS5ValueERKS2_
libmozjs-140.so:_ZN2js6detail25ToWindowProxyIfWindowSlowEP8JSObject
libmozjs-140.so:_ZN2js7DumpFmtEP8_IO_FILEPKcz
libmozjs-140.so:_ZN2js7DumpFmtEPKcz
libmozjs-140.so:_ZN2js7RunJobsEP9JSContext
libmozjs-140.so:_ZN2js7Wrapper12defaultProtoE
libmozjs-140.so:_ZN2js7Wrapper13wrappedObjectEP8JSObject
libmozjs-140.so:_ZN2js7Wrapper22singletonWithPrototypeE
libmozjs-140.so:_ZN2js7Wrapper3NewEP9JSContextP8JSObjectPKS0_RKNS_14WrapperOptionsE
libmozjs-140.so:_ZN2js7Wrapper5RenewEP8JSObjectS2_PKS0_
libmozjs-140.so:_ZN2js7Wrapper6familyE
libmozjs-140.so:_ZN2js7Wrapper9singletonE
libmozjs-140.so:_ZN2js8DumpAtomEP6JSAtom
libmozjs-140.so:_ZN2js8DumpAtomEP6JSAtomP8_IO_FILE
libmozjs-140.so:_ZN2js8DumpAtomEP6JSAtomRNS_14GenericPrinterE
libmozjs-140.so:_ZN2js8DumpHeapEP9JSContextP8_IO_FILENS_24DumpHeapNurseryBehaviourEPFmPKvE
libmozjs-140.so:_ZN2js8Fprinter3putEPKcm
libmozjs-140.so:_ZN2js8Fprinter4initEP8_IO_FILE
libmozjs-140.so:_ZN2js8Fprinter4initEPKc
libmozjs-140.so:_ZN2js8Fprinter5flushEv
libmozjs-140.so:_ZN2js8Fprinter6finishEv
libmozjs-140.so:_ZN2js8FprinterC1EP8_IO_FILE
libmozjs-140.so:_ZN2js8FprinterC2EP8_IO_FILE
libmozjs-140.so:_ZN2js9DumpCharsEPKDsm
libmozjs-140.so:_ZN2js9DumpCharsEPKDsmP8_IO_FILE
libmozjs-140.so:_ZN2js9DumpCharsEPKDsmRNS_14GenericPrinterE
libmozjs-140.so:_ZN2js9DumpValueERKN2JS5ValueE
libmozjs-140.so:_ZN2js9DumpValueERKN2JS5ValueEP8_IO_FILE
libmozjs-140.so:_ZN2js9LSprinter3putEPKcm
libmozjs-140.so:_ZN2js9LSprinter5clearEv
libmozjs-140.so:_ZN2js9LSprinterC1EPNS_9LifoAllocE
libmozjs-140.so:_ZN2js9LSprinterC2EPNS_9LifoAllocE
libmozjs-140.so:_ZN2js9LSprinterD1Ev
libmozjs-140.so:_ZN2js9LSprinterD2Ev
libmozjs-140.so:_ZN3fmt3v1112report_errorEPKc
libmozjs-140.so:_ZN3fmt3v1115vprint_bufferedEP8_IO_FILENS0_17basic_string_viewIcEENS0_17basic_format_argsINS0_7contextEEE
libmozjs-140.so:_ZN3fmt3v1119report_system_errorEiPKc
libmozjs-140.so:_ZN3fmt3v116detail10vformat_toERNS1_6bufferIcEENS0_17basic_string_viewIcEENS0_17basic_format_argsINS0_7contextEEENS1_10locale_refE
libmozjs-140.so:_ZN3fmt3v116detail11assert_failEPKciS3_
libmozjs-140.so:_ZN3fmt3v116detail12is_printableEj
libmozjs-140.so:_ZN3fmt3v116detail13utf8_to_utf16C1ENS0_17basic_string_viewIcEE
libmozjs-140.so:_ZN3fmt3v116detail13utf8_to_utf16C2ENS0_17basic_string_viewIcEE
libmozjs-140.so:_ZN3fmt3v116detail13write_consoleEiNS0_17basic_string_viewIcEE
libmozjs-140.so:_ZN3fmt3v116detail15do_report_errorEPFvRNS1_6bufferIcEEiPKcEiS6_
libmozjs-140.so:_ZN3fmt3v116detail17format_error_codeERNS1_6bufferIcEEiNS0_17basic_string_viewIcEE
libmozjs-140.so:_ZN3fmt3v116detail5printEP8_IO_FILENS0_17basic_string_viewIcEE
libmozjs-140.so:_ZN3fmt3v116detail9dragonbox16get_cached_powerEi
libmozjs-140.so:_ZN3fmt3v116vprintENS0_17basic_string_viewIcEENS0_17basic_format_argsINS0_7contextEEE
libmozjs-140.so:_ZN3fmt3v116vprintEP8_IO_FILENS0_17basic_string_viewIcEENS0_17basic_format_argsINS0_7contextEEE
libmozjs-140.so:_ZN3fmt3v117vformatB5cxx11ENS0_17basic_string_viewIcEENS0_17basic_format_argsINS0_7contextEEE
libmozjs-140.so:_ZN3fmt3v118vprintlnEP8_IO_FILENS0_17basic_string_viewIcEENS0_17basic_format_argsINS0_7contextEEE
libmozjs-140.so:_ZN4Flow4InitEv
libmozjs-140.so:_ZN5blink7Decimal10fromDoubleEd
libmozjs-140.so:_ZN5blink7Decimal10fromStringERKNSt7__cxx1112basic_stringIcSt11char_traitsIcESaIcEEE
libmozjs-140.so:_ZN5blink7Decimal13alignOperandsERKS0_S2_
libmozjs-140.so:_ZN5blink7Decimal4zeroENS0_4SignE
libmozjs-140.so:_ZN5blink7Decimal8infinityENS0_4SignE
libmozjs-140.so:_ZN5blink7DecimalC1ENS0_4SignEim
libmozjs-140.so:_ZN5blink7DecimalC1ERKS0_
libmozjs-140.so:_ZN5blink7DecimalC1Ei
libmozjs-140.so:_ZN5blink7DecimalC2ENS0_4SignEim
libmozjs-140.so:_ZN5blink7DecimalC2ERKS0_
libmozjs-140.so:_ZN5blink7DecimalC2Ei
libmozjs-140.so:_ZN5blink7DecimalaSERKS0_
libmozjs-140.so:_ZN5blink7DecimaldVERKS0_
libmozjs-140.so:_ZN5blink7DecimalmIERKS0_
libmozjs-140.so:_ZN5blink7DecimalmLERKS0_
libmozjs-140.so:_ZN5blink7DecimalpLERKS0_
libmozjs-140.so:_ZN7mozilla10ToLogLevelEi
libmozjs-140.so:_ZN7mozilla11sse_private11aes_enabledE
libmozjs-140.so:_ZN7mozilla11sse_private11avx_enabledE
libmozjs-140.so:_ZN7mozilla11sse_private12avx2_enabledE
libmozjs-140.so:_ZN7mozilla11sse_private12fma3_enabledE
libmozjs-140.so:_ZN7mozilla11sse_private12sse3_enabledE
libmozjs-140.so:_ZN7mozilla11sse_private13sse4a_enabledE
libmozjs-140.so:_ZN7mozilla11sse_private13ssse3_enabledE
libmozjs-140.so:_ZN7mozilla11sse_private14sse4_1_enabledE
libmozjs-140.so:_ZN7mozilla11sse_private14sse4_2_enabledE
libmozjs-140.so:_ZN7mozilla11sse_private15avxvnni_enabledE
libmozjs-140.so:_ZN7mozilla11sse_private16has_constant_tscE
libmozjs-140.so:_ZN7mozilla12PrintfTarget12appendIntDecEi
libmozjs-140.so:_ZN7mozilla12PrintfTarget12appendIntDecEj
libmozjs-140.so:_ZN7mozilla12PrintfTarget12appendIntDecEl
libmozjs-140.so:_ZN7mozilla12PrintfTarget12appendIntDecEm
libmozjs-140.so:_ZN7mozilla12PrintfTarget12appendIntHexEj
libmozjs-140.so:_ZN7mozilla12PrintfTarget12appendIntHexEm
libmozjs-140.so:_ZN7mozilla12PrintfTarget12appendIntOctEj
libmozjs-140.so:_ZN7mozilla12PrintfTarget12appendIntOctEm
libmozjs-140.so:_ZN7mozilla12PrintfTarget5printEPKcz
libmozjs-140.so:_ZN7mozilla12PrintfTarget6vprintEPKcP13__va_list_tag
libmozjs-140.so:_ZN7mozilla12PrintfTargetC1Ev
libmozjs-140.so:_ZN7mozilla12PrintfTargetC2Ev
libmozjs-140.so:_ZN7mozilla12RandomUint64Ev
libmozjs-140.so:_ZN7mozilla12baseprofiler23profiler_is_main_threadEv
libmozjs-140.so:_ZN7mozilla12baseprofiler23profiler_main_thread_idEv
libmozjs-140.so:_ZN7mozilla12baseprofiler26profiler_current_thread_idEv
libmozjs-140.so:_ZN7mozilla12baseprofiler27profiler_current_process_idEv
libmozjs-140.so:_ZN7mozilla12baseprofiler28profiler_init_main_thread_idEv
libmozjs-140.so:_ZN7mozilla14AwakeTimeStamp3NowEv
libmozjs-140.so:_ZN7mozilla14AwakeTimeStamp8NowLoResEv
libmozjs-140.so:_ZN7mozilla14AwakeTimeStampmIERKNS_17AwakeTimeDurationE
libmozjs-140.so:_ZN7mozilla14AwakeTimeStamppLERKNS_17AwakeTimeDurationE
libmozjs-140.so:_ZN7mozilla14DemangleSymbolEPKcPci
libmozjs-140.so:_ZN7mozilla15ProcessUptimeMsEv
libmozjs-140.so:_ZN7mozilla16InitializeUptimeEv
libmozjs-140.so:_ZN7mozilla17AwakeTimeDuration11FromSecondsEm
libmozjs-140.so:_ZN7mozilla17AwakeTimeDuration16FromMicrosecondsEm
libmozjs-140.so:_ZN7mozilla17AwakeTimeDuration16FromMillisecondsEm
libmozjs-140.so:_ZN7mozilla17RandomUint64OrDieEv
libmozjs-140.so:_ZN7mozilla19DuplicateFileHandleEi
libmozjs-140.so:_ZN7mozilla21FramePointerStackWalkEPFvjPvS0_S0_EjS0_PS0_S0_
libmozjs-140.so:_ZN7mozilla21NowExcludingSuspendMsEv
libmozjs-140.so:_ZN7mozilla21NowIncludingSuspendMsEv
libmozjs-140.so:_ZN7mozilla22IsFloat32RepresentableEd
libmozjs-140.so:_ZN7mozilla25GenerateRandomBytesFromOSEPvm
libmozjs-140.so:_ZN7mozilla29BaseTimeDurationPlatformUtils17ResolutionInTicksEv
libmozjs-140.so:_ZN7mozilla29BaseTimeDurationPlatformUtils18ToSecondsSigDigitsEl
libmozjs-140.so:_ZN7mozilla29BaseTimeDurationPlatformUtils21TicksFromMillisecondsEd
libmozjs-140.so:_ZN7mozilla29BaseTimeDurationPlatformUtils9ToSecondsEl
libmozjs-140.so:_ZN7mozilla30RegisterProfilerLabelEnterExitEPFPvPKcS2_S0_EPFvS0_E
libmozjs-140.so:_ZN7mozilla31ProcessUptimeExcludingSuspendMsEv
libmozjs-140.so:_ZN7mozilla4SIMD10memchr2x16EPKDsDsDsm
libmozjs-140.so:_ZN7mozilla4SIMD11memchr8AVX2EPKccm
libmozjs-140.so:_ZN7mozilla4SIMD11memchr8SSE2EPKccm
libmozjs-140.so:_ZN7mozilla4SIMD12memchr16AVX2EPKDsDsm
libmozjs-140.so:_ZN7mozilla4SIMD12memchr16SSE2EPKDsDsm
libmozjs-140.so:_ZN7mozilla4SIMD12memchr32AVX2EPKjjm
libmozjs-140.so:_ZN7mozilla4SIMD12memchr64AVX2EPKmmm
libmozjs-140.so:_ZN7mozilla4SIMD7memchr8EPKccm
libmozjs-140.so:_ZN7mozilla4SIMD8memchr16EPKDsDsm
libmozjs-140.so:_ZN7mozilla4SIMD8memchr32EPKjjm
libmozjs-140.so:_ZN7mozilla4SIMD8memchr64EPKmmm
libmozjs-140.so:_ZN7mozilla4SIMD9memchr2x8EPKcccm
libmozjs-140.so:_ZN7mozilla6UnusedE
libmozjs-140.so:_ZN7mozilla6detail10RWLockImpl10readUnlockEv
libmozjs-140.so:_ZN7mozilla6detail10RWLockImpl11tryReadLockEv
libmozjs-140.so:_ZN7mozilla6detail10RWLockImpl11writeUnlockEv
libmozjs-140.so:_ZN7mozilla6detail10RWLockImpl12tryWriteLockEv
libmozjs-140.so:_ZN7mozilla6detail10RWLockImpl8readLockEv
libmozjs-140.so:_ZN7mozilla6detail10RWLockImpl9writeLockEv
libmozjs-140.so:_ZN7mozilla6detail10RWLockImplC1Ev
libmozjs-140.so:_ZN7mozilla6detail10RWLockImplC2Ev
libmozjs-140.so:_ZN7mozilla6detail10RWLockImplD1Ev
libmozjs-140.so:_ZN7mozilla6detail10RWLockImplD2Ev
libmozjs-140.so:_ZN7mozilla6detail11IsValidUtf8EPKvm
libmozjs-140.so:_ZN7mozilla6detail14gChaosFeaturesE
libmozjs-140.so:_ZN7mozilla6detail15gTwoCharEscapesE
libmozjs-140.so:_ZN7mozilla6detail17FileHandleDeleterclENS0_16FileHandleHelperE
libmozjs-140.so:_ZN7mozilla6detail17gChaosModeCounterE
libmozjs-140.so:_ZN7mozilla6detail21ConditionVariableImpl10notify_allEv
libmozjs-140.so:_ZN7mozilla6detail21ConditionVariableImpl10notify_oneEv
libmozjs-140.so:_ZN7mozilla6detail21ConditionVariableImpl4waitERNS0_9MutexImplE
libmozjs-140.so:_ZN7mozilla6detail21ConditionVariableImpl8wait_forERNS0_9MutexImplERKNS_16BaseTimeDurationINS_27TimeDurationValueCalculatorEEE
libmozjs-140.so:_ZN7mozilla6detail21ConditionVariableImplC1Ev
libmozjs-140.so:_ZN7mozilla6detail21ConditionVariableImplC2Ev
libmozjs-140.so:_ZN7mozilla6detail21ConditionVariableImplD1Ev
libmozjs-140.so:_ZN7mozilla6detail21ConditionVariableImplD2Ev
libmozjs-140.so:_ZN7mozilla6detail23InvalidArrayIndex_CRASHEmm
libmozjs-140.so:_ZN7mozilla6detail9MutexImpl4lockEv
libmozjs-140.so:_ZN7mozilla6detail9MutexImpl6unlockEv
libmozjs-140.so:_ZN7mozilla6detail9MutexImpl7tryLockEv
libmozjs-140.so:_ZN7mozilla6detail9MutexImplC1Ev
libmozjs-140.so:_ZN7mozilla6detail9MutexImplC2Ev
libmozjs-140.so:_ZN7mozilla6detail9MutexImplD1Ev
libmozjs-140.so:_ZN7mozilla6detail9MutexImplD2Ev
libmozjs-140.so:_ZN7mozilla6xgetbvEj
libmozjs-140.so:_ZN7mozilla7SHA1Sum6finishERA20_h
libmozjs-140.so:_ZN7mozilla7SHA1Sum6updateEPKvj
libmozjs-140.so:_ZN7mozilla7SHA1SumC1Ev
libmozjs-140.so:_ZN7mozilla7SHA1SumC2Ev
libmozjs-140.so:_ZN7mozilla8profiler6detail12FilterHasPidEPKcNS_12baseprofiler21BaseProfilerProcessIdE
libmozjs-140.so:_ZN7mozilla8profiler6detail17FiltersExcludePidENS_4SpanIKPKcLm18446744073709551615EEENS_12baseprofiler21BaseProfilerProcessIdE
libmozjs-140.so:_ZN7mozilla9HashBytesEPKvm
libmozjs-140.so:_ZN7mozilla9TimeStamp14FirstTimeStampEv
libmozjs-140.so:_ZN7mozilla9TimeStamp15ProcessCreationEv
libmozjs-140.so:_ZN7mozilla9TimeStamp20ComputeProcessUptimeEv
libmozjs-140.so:_ZN7mozilla9TimeStamp20RecordProcessRestartEv
libmozjs-140.so:_ZN7mozilla9TimeStamp3NowEb
libmozjs-140.so:_ZN7mozilla9TimeStamp7StartupEv
libmozjs-140.so:_ZN7mozilla9TimeStamp8ShutdownEv
libmozjs-140.so:_ZN8JSObject13traceChildrenEP8JSTracer
libmozjs-140.so:_ZN8JSObject17setProtoUncheckedEP9JSContextN2JS6HandleIPS_EENS3_IN2js11TaggedProtoEEE
libmozjs-140.so:_ZN8JSObject19nonNativeSetElementEP9JSContextN2JS6HandleIPS_EEjNS3_INS2_5ValueEEES7_RNS2_14ObjectOpResultE
libmozjs-140.so:_ZN8JSObject20nonNativeSetPropertyEP9JSContextN2JS6HandleIPS_EENS3_INS2_11PropertyKeyEEENS3_INS2_5ValueEEES9_RNS2_14ObjectOpResultE
libmozjs-140.so:_ZN8JSObject21reshapeForTeleportingEP9JSContextN2JS6HandleIPS_EE
libmozjs-140.so:_ZN8JSObject22addSizeOfExcludingThisEPFmPKvEPN2JS9ClassInfoEPNS4_12RuntimeSizesE
libmozjs-140.so:_ZN8JSObject4swapEP9JSContextN2JS6HandleIPS_EES5_RN2js24AutoEnterOOMUnsafeRegionE
libmozjs-140.so:_ZN8JSObject7setFlagEP9JSContextN2JS6HandleIPS_EEN2js10ObjectFlagE
libmozjs-140.so:_ZN8JSScript10sourceDataEP9JSContextN2JS6HandleIPS_EE
libmozjs-140.so:_ZN8JSScript11fromStencilEP9JSContextRN2js8frontend20CompilationAtomCacheERKNS3_18CompilationStencilERNS3_19CompilationGCOutputENS3_10TypedIndexINS3_13ScriptStencilEEE
libmozjs-140.so:_ZN8JSScript11getHitCountEPh
libmozjs-140.so:_ZN8JSScript12AutoDelazify10dropScriptEv
libmozjs-140.so:_ZN8JSScript12AutoDelazify10holdScriptEN2JS6HandleIP10JSFunctionEE
libmozjs-140.so:_ZN8JSScript12addIonCountsEPN2js3jit15IonScriptCountsE
libmozjs-140.so:_ZN8JSScript12getIonCountsEv
libmozjs-140.so:_ZN8JSScript14getThrowCountsEPh
libmozjs-140.so:_ZN8JSScript15createJitScriptEP9JSContext
libmozjs-140.so:_ZN8JSScript15formalIsAliasedEj
libmozjs-140.so:_ZN8JSScript15getScriptCountsEv
libmozjs-140.so:_ZN8JSScript16initScriptCountsEP9JSContext
libmozjs-140.so:_ZN8JSScript16maybeGetPCCountsEPh
libmozjs-140.so:_ZN8JSScript16releaseJitScriptEPN2JS9GCContextE
libmozjs-140.so:_ZN8JSScript16updateJitCodeRawEP9JSRuntime
libmozjs-140.so:_ZN8JSScript17resetScriptCountsEv
libmozjs-140.so:_ZN8JSScript18calculateLiveFixedEPh
libmozjs-140.so:_ZN8JSScript19destroyScriptCountsEv
libmozjs-140.so:_ZN8JSScript19maybeGetThrowCountsEPh
libmozjs-140.so:_ZN8JSScript19releaseScriptCountsEPN2js12ScriptCountsE
libmozjs-140.so:_ZN8JSScript20anyFormalIsForwardedEv
libmozjs-140.so:_ZN8JSScript20fullyInitFromStencilEP9JSContextRKN2js8frontend20CompilationAtomCacheERKNS3_18CompilationStencilERNS3_19CompilationGCOutputEN2JS6HandleIPS_EENS3_10TypedIndexINS3_13ScriptStencilEEE
libmozjs-140.so:_ZN8JSScript21maybeReleaseJitScriptEPN2JS9GCContextE
libmozjs-140.so:_ZN8JSScript23createPrivateScriptDataEP9JSContextN2JS6HandleIPS_EEj
libmozjs-140.so:_ZN8JSScript24mayReadFrameArgsDirectlyEv
libmozjs-140.so:_ZN8JSScript26releaseJitScriptOnFinalizeEPN2JS9GCContextE
libmozjs-140.so:_ZN8JSScript28formalLivesInArgumentsObjectEj
libmozjs-140.so:_ZN8JSScript39resetWarmUpCounterToDelayIonCompilationEv
libmozjs-140.so:_ZN8JSScript6CreateEP9JSContextN2JS6HandleIP10JSFunctionEENS3_IPN2js18ScriptSourceObjectEEERKNS7_12SourceExtentENS7_20ImmutableScriptFlagsE
libmozjs-140.so:_ZN8JSScript8hasLoopsEv
libmozjs-140.so:_ZN8JSScript8relazifyEP9JSRuntime
libmozjs-140.so:_ZN8JSString19sizeOfExcludingThisEPFmPKvE
libmozjs-140.so:_ZN8JSString21tryReplaceWithAtomRefEP6JSAtom
libmozjs-140.so:_ZN8JSString23fillWithRepresentativesEP9JSContextN2JS6HandleIPN2js11ArrayObjectEEE
libmozjs-140.so:_ZN9JSContext10setRuntimeEP9JSRuntime
libmozjs-140.so:_ZN9JSContext13currentScriptEPPhNS_15AllowCrossRealmE
libmozjs-140.so:_ZN9JSContext13onOutOfMemoryEv
libmozjs-140.so:_ZN9JSContext14getCodeForEvalEN2JS6HandleIP8JSObjectEENS0_13MutableHandleIP8JSStringEE
libmozjs-140.so:_ZN9JSContext14onOverRecursedEv
libmozjs-140.so:_ZN9JSContext15handleInterruptEv
libmozjs-140.so:_ZN9JSContext16requestInterruptEN2js15InterruptReasonE
libmozjs-140.so:_ZN9JSContext17initJitStackLimitEv
libmozjs-140.so:_ZN9JSContext18alreadyReportedOOMEv
libmozjs-140.so:_ZN9JSContext18isClosingGeneratorEv
libmozjs-140.so:_ZN9JSContext18resetJitStackLimitEv
libmozjs-140.so:_ZN9JSContext19getPendingExceptionEN2JS13MutableHandleINS0_5ValueEEE
libmozjs-140.so:_ZN9JSContext19setPendingExceptionEN2JS6HandleINS0_5ValueEEEN2js18ShouldCaptureStackE
libmozjs-140.so:_ZN9JSContext19setPendingExceptionEN2JS6HandleINS0_5ValueEEENS1_IPN2js10SavedFrameEEE
libmozjs-140.so:_ZN9JSContext20alreadyReportedErrorEv
libmozjs-140.so:_ZN9JSContext20stackLimitForJitCodeEN2JS9StackKindE
libmozjs-140.so:_ZN9JSContext21clearPendingInterruptEN2js15InterruptReasonE
libmozjs-140.so:_ZN9JSContext22recoverFromOutOfMemoryEv
libmozjs-140.so:_ZN9JSContext23isRuntimeCodeGenEnabledEN2JS11RuntimeCodeENS0_6HandleIP8JSStringEENS0_15CompilationTypeENS2_INS0_13StackGCVectorIS4_N2js15TempAllocPolicyEEEEES5_NS2_INS7_INS0_5ValueES9_EEEENS2_ISC_EEPb
libmozjs-140.so:_ZN9JSContext24getPendingExceptionStackEN2JS13MutableHandleINS0_5ValueEEE
libmozjs-140.so:_ZN9JSContext24getPendingExceptionStackEv
libmozjs-140.so:_ZN9JSContext24reportAllocationOverflowEv
libmozjs-140.so:_ZN9JSContext26isThrowingDebuggeeWouldRunEv
libmozjs-140.so:_ZN9JSContext28stackKindForCurrentPrincipalEv
libmozjs-140.so:_ZN9JSContext29stackLimitForCurrentPrincipalEv
libmozjs-140.so:_ZN9JSContext4initEv
libmozjs-140.so:_ZN9JSContext5traceEP8JSTracer
libmozjs-140.so:_ZN9JSContextC1EP9JSRuntimeRKN2JS14ContextOptionsE
libmozjs-140.so:_ZN9JSContextC2EP9JSRuntimeRKN2JS14ContextOptionsE
libmozjs-140.so:_ZN9JSContextD1Ev
libmozjs-140.so:_ZN9JSContextD2Ev
libmozjs-140.so:_ZN9JSRuntime11finishAtomsEv
libmozjs-140.so:_ZN9JSRuntime12addTelemetryE8JSMetricj
libmozjs-140.so:_ZN9JSRuntime13onOutOfMemoryEN2js13AllocFunctionEmmPvP9JSContext
libmozjs-140.so:_ZN9JSRuntime13setUseCounterEP8JSObject12JSUseCounter
libmozjs-140.so:_ZN9JSRuntime14destroyRuntimeEv
libmozjs-140.so:_ZN9JSRuntime14randomHashCodeEv
libmozjs-140.so:_ZN9JSRuntime15initializeAtomsEP9JSContext
libmozjs-140.so:_ZN9JSRuntime16createJitRuntimeEP9JSContext
libmozjs-140.so:_ZN9JSRuntime16getDefaultLocaleEv
libmozjs-140.so:_ZN9JSRuntime16setDefaultLocaleEPKc
libmozjs-140.so:_ZN9JSRuntime17enqueuePromiseJobEP9JSContextN2JS6HandleIP10JSFunctionEENS3_IP8JSObjectEES9_
libmozjs-140.so:_ZN9JSRuntime17finishSelfHostingEv
libmozjs-140.so:_ZN9JSRuntime17liveRuntimesCountE
libmozjs-140.so:_ZN9JSRuntime18getSelfHostedValueEP9JSContextN2JS6HandleIPN2js12PropertyNameEEENS2_13MutableHandleINS2_5ValueEEE
libmozjs-140.so:_ZN9JSRuntime18onOutOfMemoryCanGCEN2js13AllocFunctionEmmPv
libmozjs-140.so:_ZN9JSRuntime18randomKeyGeneratorEv
libmozjs-140.so:_ZN9JSRuntime18resetDefaultLocaleEv
libmozjs-140.so:_ZN9JSRuntime19activeGCInAtomsZoneEv
libmozjs-140.so:_ZN9JSRuntime19traceSharedIntlDataEP8JSTracer
libmozjs-140.so:_ZN9JSRuntime20setTelemetryCallbackEPS_PFv8JSMetricjE
libmozjs-140.so:_ZN9JSRuntime20tracePersistentRootsEP8JSTracer
libmozjs-140.so:_ZN9JSRuntime21finishPersistentRootsEv
libmozjs-140.so:_ZN9JSRuntime21scriptDataTableHolderEv
libmozjs-140.so:_ZN9JSRuntime21setSelfHostingStencilEN2JS13MutableHandleIN7mozilla9UniquePtrIN2js8frontend16CompilationInputENS0_12DeletePolicyIS6_EEEEEEO6RefPtrINS5_18CompilationStencilEE
libmozjs-140.so:_ZN9JSRuntime21setUseCounterCallbackEPS_PFvP8JSObject12JSUseCounterE
libmozjs-140.so:_ZN9JSRuntime22addSizeOfIncludingThisEPFmPKvEPN2JS12RuntimeSizesE
libmozjs-140.so:_ZN9JSRuntime22forkRandomKeyGeneratorEv
libmozjs-140.so:_ZN9JSRuntime22initSelfHostingStencilEP9JSContextN7mozilla4SpanIKhLm18446744073709551615EEEPFbS1_S5_E
libmozjs-140.so:_ZN9JSRuntime23clearSelfHostedJitCacheEv
libmozjs-140.so:_ZN9JSRuntime23randomHashCodeScramblerEv
libmozjs-140.so:_ZN9JSRuntime23traceSelfHostingStencilEP8JSTracer
libmozjs-140.so:_ZN9JSRuntime24stopRecordingAllocationsEv
libmozjs-140.so:_ZN9JSRuntime25startRecordingAllocationsEdPFvON2JS20RecordAllocationInfoEE
libmozjs-140.so:_ZN9JSRuntime26decrementNumDebuggeeRealmsEv
libmozjs-140.so:_ZN9JSRuntime26delazifySelfHostedFunctionEP9JSContextN2JS6HandleIPN2js12PropertyNameEEENS3_IP10JSFunctionEE
libmozjs-140.so:_ZN9JSRuntime26incrementNumDebuggeeRealmsEv
libmozjs-140.so:_ZN9JSRuntime26initSelfHostingFromStencilEP9JSContext
libmozjs-140.so:_ZN9JSRuntime27addUnhandledRejectedPromiseEP9JSContextN2JS6HandleIP8JSObjectEE
libmozjs-140.so:_ZN9JSRuntime29getSelfHostedScriptIndexRangeEPN2js12PropertyNameE
libmozjs-140.so:_ZN9JSRuntime30removeUnhandledRejectedPromiseEP9JSContextN2JS6HandleIP8JSObjectEE
libmozjs-140.so:_ZN9JSRuntime33ensureRealmIsRecordingAllocationsEN2JS6HandleIPN2js12GlobalObjectEEE
libmozjs-140.so:_ZN9JSRuntime34getSelfHostedFunctionGeneratorKindEPN2js12PropertyNameE
libmozjs-140.so:_ZN9JSRuntime40assertSelfHostedFunctionHasCanonicalNameEN2JS6HandleIPN2js12PropertyNameEEE
libmozjs-140.so:_ZN9JSRuntime43decrementNumDebuggeeRealmsObservingCoverageEv
libmozjs-140.so:_ZN9JSRuntime43incrementNumDebuggeeRealmsObservingCoverageEv
libmozjs-140.so:_ZN9JSRuntime4initEP9JSContextj
libmozjs-140.so:_ZN9JSRuntimeC1EPS_
libmozjs-140.so:_ZN9JSRuntimeC2EPS_
libmozjs-140.so:_ZN9JSRuntimeD1Ev
libmozjs-140.so:_ZN9JSRuntimeD2Ev
libmozjs-140.so:_ZNK10JSFunction13wasmFuncIndexEv
libmozjs-140.so:_ZNK10JSFunction15needsCallObjectEv
libmozjs-140.so:_ZNK10JSFunction19isSyntheticFunctionEv
libmozjs-140.so:_ZNK10JSFunction20wasmCheckedCallEntryEv
libmozjs-140.so:_ZNK10JSFunction22wasmUncheckedCallEntryEv
libmozjs-140.so:_ZNK10JSFunction25isDerivedClassConstructorEv
libmozjs-140.so:_ZNK10JSFunction27needsNamedLambdaEnvironmentEv
libmozjs-140.so:_ZNK10JSFunction28needsExtraBodyVarEnvironmentEv
libmozjs-140.so:_ZNK10JSFunction29clonedSelfHostedGeneratorKindEv
libmozjs-140.so:_ZNK14JSPropertySpec8getValueEP9JSContextN2JS13MutableHandleINS2_5ValueEEE
libmozjs-140.so:_ZNK17double_conversion23DoubleToStringConverter11ToPrecisionEdiPNS_13StringBuilderE
libmozjs-140.so:_ZNK17double_conversion23DoubleToStringConverter13ToExponentialEdiPNS_13StringBuilderE
libmozjs-140.so:_ZNK17double_conversion23DoubleToStringConverter19HandleSpecialValuesEdPNS_13StringBuilderE
libmozjs-140.so:_ZNK17double_conversion23DoubleToStringConverter20ToShortestIeeeNumberEdPNS_13StringBuilderENS0_8DtoaModeE
libmozjs-140.so:_ZNK17double_conversion23DoubleToStringConverter27CreateDecimalRepresentationEPKciiiPNS_13StringBuilderE
libmozjs-140.so:_ZNK17double_conversion23DoubleToStringConverter31CreateExponentialRepresentationEPKciiPNS_13StringBuilderE
libmozjs-140.so:_ZNK17double_conversion23DoubleToStringConverter7ToFixedEdiPNS_13StringBuilderE
libmozjs-140.so:_ZNK17double_conversion23StringToDoubleConverter13StringToFloatEPKciPi
libmozjs-140.so:_ZNK17double_conversion23StringToDoubleConverter13StringToFloatEPKtiPi
libmozjs-140.so:_ZNK17double_conversion23StringToDoubleConverter14StringToDoubleEPKciPi
libmozjs-140.so:_ZNK17double_conversion23StringToDoubleConverter14StringToDoubleEPKtiPi
libmozjs-140.so:_ZNK2JS11Compartment11firstGlobalEv
libmozjs-140.so:_ZNK2JS11PropertyKey13isPrivateNameEv
libmozjs-140.so:_ZNK2JS11PropertyKey17isWellKnownSymbolENS_10SymbolCodeE
libmozjs-140.so:_ZNK2JS11SliceBudget8describeEPcm
libmozjs-140.so:_ZNK2JS12AutoFilename3getEv
libmozjs-140.so:_ZNK2JS13GCDescription12lastSliceEndEP9JSContext
libmozjs-140.so:_ZNK2JS13GCDescription14lastSliceStartEP9JSContext
libmozjs-140.so:_ZNK2JS13GCDescription18formatJSONProfilerEP9JSContext
libmozjs-140.so:_ZNK2JS13GCDescription18formatSliceMessageEP9JSContext
libmozjs-140.so:_ZNK2JS13GCDescription19sliceToJSONProfilerEP9JSContext
libmozjs-140.so:_ZNK2JS13GCDescription20formatSummaryMessageEP9JSContext
libmozjs-140.so:_ZNK2JS13GCDescription7endTimeEP9JSContext
libmozjs-140.so:_ZNK2JS13GCDescription9startTimeEP9JSContext
libmozjs-140.so:_ZNK2JS13GCDescription9toGCEventEP9JSContext
libmozjs-140.so:_ZNK2JS14CompileOptions34warnAboutConflictingDelazificationEv
libmozjs-140.so:_ZNK2JS15ArrayBufferView10isDetachedEv
libmozjs-140.so:_ZNK2JS15ArrayBufferView11isResizableEv
libmozjs-140.so:_ZNK2JS17ArrayBufferOrView10isDetachedEv
libmozjs-140.so:_ZNK2JS17ArrayBufferOrView11isResizableEv
libmozjs-140.so:_ZNK2JS18ProfiledFrameRange4IterdeEv
libmozjs-140.so:_ZNK2JS19OwningDecodeOptions19sizeOfExcludingThisEPFmPKvE
libmozjs-140.so:_ZNK2JS19ProfiledFrameHandle7realmIDEv
libmozjs-140.so:_ZNK2JS19ProfiledFrameHandle9frameKindEv
libmozjs-140.so:_ZNK2JS20OwningCompileOptions19sizeOfExcludingThisEPFmPKvE
libmozjs-140.so:_ZNK2JS20RealmCreationOptions21getCoopAndCoepEnabledEv
libmozjs-140.so:_ZNK2JS20RealmCreationOptions32getSharedMemoryAndAtomicsEnabledEv
libmozjs-140.so:_ZNK2JS22ProfilingFrameIterator12extractStackEPNS0_5FrameEjj
libmozjs-140.so:_ZNK2JS22ProfilingFrameIterator12stackAddressEv
libmozjs-140.so:_ZNK2JS22ProfilingFrameIterator20getCppEntryRegistersEv
libmozjs-140.so:_ZNK2JS22ProfilingFrameIterator24getPhysicalFrameAndEntryEPPKN2js3jit18JitcodeGlobalEntryE
libmozjs-140.so:_ZNK2JS22ProfilingFrameIterator28getPhysicalFrameWithoutLabelEv
libmozjs-140.so:_ZNK2JS22ProfilingFrameIterator6isWasmEv
libmozjs-140.so:_ZNK2JS22ProfilingFrameIterator7isJSJitEv
libmozjs-140.so:_ZNK2JS3ubi8BackEdge5cloneEv
libmozjs-140.so:_ZNK2JS3ubi8ConcreteI8JSObjectE11compartmentEv
libmozjs-140.so:_ZNK2JS3ubi8ConcreteI8JSObjectE15allocationStackEv
libmozjs-140.so:_ZNK2JS3ubi8ConcreteI8JSObjectE17jsObjectClassNameEv
libmozjs-140.so:_ZNK2JS3ubi8ConcreteI8JSObjectE18hasAllocationStackEv
libmozjs-140.so:_ZNK2JS3ubi8ConcreteI8JSObjectE4sizeEPFmPKvE
libmozjs-140.so:_ZNK2JS3ubi8ConcreteI8JSObjectE5realmEv
libmozjs-140.so:_ZNK2JS3ubi8ConcreteI8JSStringE4sizeEPFmPKvE
libmozjs-140.so:_ZNK2JS3ubi8ConcreteIN2js10BaseScriptEE14scriptFilenameEv
libmozjs-140.so:_ZNK2JS3ubi8ConcreteIN2js10BaseScriptEE4sizeEPFmPKvE
libmozjs-140.so:_ZNK2JS3ubi8ConcreteIN2js2gc11SmallBufferEE4sizeEPFmPKvE
libmozjs-140.so:_ZNK2JS3ubi8ConcreteINS0_8RootListEE5edgesEP9JSContextb
libmozjs-140.so:_ZNK2JS3ubi8ConcreteINS_6BigIntEE4sizeEPFmPKvE
libmozjs-140.so:_ZNK2JS3ubi8ConcreteINS_6SymbolEE4sizeEPFmPKvE
libmozjs-140.so:_ZNK2JS3ubi8ConcreteIvE10coarseTypeEv
libmozjs-140.so:_ZNK2JS3ubi8ConcreteIvE11compartmentEv
libmozjs-140.so:_ZNK2JS3ubi8ConcreteIvE4sizeEPFmPKvE
libmozjs-140.so:_ZNK2JS3ubi8ConcreteIvE4zoneEv
libmozjs-140.so:_ZNK2JS3ubi8ConcreteIvE5edgesEP9JSContextb
libmozjs-140.so:_ZNK2JS3ubi8ConcreteIvE5realmEv
libmozjs-140.so:_ZNK2JS3ubi8ConcreteIvE8typeNameEv
libmozjs-140.so:_ZNK2JS4Zone19initialMarkingStateEv
libmozjs-140.so:_ZNK2JS4Zone8isOnListEv
libmozjs-140.so:_ZNK2JS4Zone8nextZoneEv
libmozjs-140.so:_ZNK2JS5Realm23collectCoverageForDebugEv
libmozjs-140.so:_ZNK2JS5Realm9getLocaleEv
libmozjs-140.so:_ZNK2JS6BigInt19sizeOfExcludingThisEPFmPKvE
libmozjs-140.so:_ZNK2JS6BigInt28sizeOfExcludingThisInNurseryEPFmPKvE
libmozjs-140.so:_ZNK2JS6BigInt4hashEv
libmozjs-140.so:_ZNK2JS9GCCellPtr13outOfLineKindEv
libmozjs-140.so:_ZNK2js13StringPrinter15checkInvariantsEv
libmozjs-140.so:_ZNK2js13StringPrinter6lengthEv
libmozjs-140.so:_ZNK2js15TempAllocPolicy19reportAllocOverflowEv
libmozjs-140.so:_ZNK2js16BaseProxyHandler10isCallableEP8JSObject
libmozjs-140.so:_ZNK2js16BaseProxyHandler10nativeCallEP9JSContextPFbN2JS6HandleINS3_5ValueEEEEPFbS2_RKNS3_8CallArgsEESB_
libmozjs-140.so:_ZNK2js16BaseProxyHandler11getElementsEP9JSContextN2JS6HandleIP8JSObjectEEjjPNS_12ElementAdderE
libmozjs-140.so:_ZNK2js16BaseProxyHandler11objectMovedEP8JSObjectS2_
libmozjs-140.so:_ZNK2js16BaseProxyHandler12fun_toStringEP9JSContextN2JS6HandleIP8JSObjectEEb
libmozjs-140.so:_ZNK2js16BaseProxyHandler12getPrototypeEP9JSContextN2JS6HandleIP8JSObjectEENS3_13MutableHandleIS6_EE
libmozjs-140.so:_ZNK2js16BaseProxyHandler12setPrototypeEP9JSContextN2JS6HandleIP8JSObjectEES7_RNS3_14ObjectOpResultE
libmozjs-140.so:_ZNK2js16BaseProxyHandler13isConstructorEP8JSObject
libmozjs-140.so:_ZNK2js16BaseProxyHandler15getBuiltinClassEP9JSContextN2JS6HandleIP8JSObjectEEPNS_7ESClassE
libmozjs-140.so:_ZNK2js16BaseProxyHandler15regexp_toSharedEP9JSContextN2JS6HandleIP8JSObjectEE
libmozjs-140.so:_ZNK2js16BaseProxyHandler16boxedValue_unboxEP9JSContextN2JS6HandleIP8JSObjectEENS3_13MutableHandleINS3_5ValueEEE
libmozjs-140.so:_ZNK2js16BaseProxyHandler21setImmutablePrototypeEP9JSContextN2JS6HandleIP8JSObjectEEPb
libmozjs-140.so:_ZNK2js16BaseProxyHandler28getOwnEnumerablePropertyKeysEP9JSContextN2JS6HandleIP8JSObjectEENS3_13MutableHandleINS3_13StackGCVectorINS3_11PropertyKeyENS_15TempAllocPolicyEEEEE
libmozjs-140.so:_ZNK2js16BaseProxyHandler3getEP9JSContextN2JS6HandleIP8JSObjectEENS4_INS3_5ValueEEENS4_INS3_11PropertyKeyEEENS3_13MutableHandleIS8_EE
libmozjs-140.so:_ZNK2js16BaseProxyHandler3hasEP9JSContextN2JS6HandleIP8JSObjectEENS4_INS3_11PropertyKeyEEEPb
libmozjs-140.so:_ZNK2js16BaseProxyHandler3setEP9JSContextN2JS6HandleIP8JSObjectEENS4_INS3_11PropertyKeyEEENS4_INS3_5ValueEEESB_RNS3_14ObjectOpResultE
libmozjs-140.so:_ZNK2js16BaseProxyHandler4callEP9JSContextN2JS6HandleIP8JSObjectEERKNS3_8CallArgsE
libmozjs-140.so:_ZNK2js16BaseProxyHandler5enterEP9JSContextN2JS6HandleIP8JSObjectEENS4_INS3_11PropertyKeyEEEjbPb
libmozjs-140.so:_ZNK2js16BaseProxyHandler5traceEP8JSTracerP8JSObject
libmozjs-140.so:_ZNK2js16BaseProxyHandler6hasOwnEP9JSContextN2JS6HandleIP8JSObjectEENS4_INS3_11PropertyKeyEEEPb
libmozjs-140.so:_ZNK2js16BaseProxyHandler7isArrayEP9JSContextN2JS6HandleIP8JSObjectEEPNS3_13IsArrayAnswerE
libmozjs-140.so:_ZNK2js16BaseProxyHandler8finalizeEPN2JS9GCContextEP8JSObject
libmozjs-140.so:_ZNK2js16BaseProxyHandler9classNameEP9JSContextN2JS6HandleIP8JSObjectEE
libmozjs-140.so:_ZNK2js16BaseProxyHandler9constructEP9JSContextN2JS6HandleIP8JSObjectEERKNS3_8CallArgsE
libmozjs-140.so:_ZNK2js16BaseProxyHandler9enumerateEP9JSContextN2JS6HandleIP8JSObjectEENS3_13MutableHandleINS3_13StackGCVectorINS3_11PropertyKeyENS_15TempAllocPolicyEEEEE
libmozjs-140.so:_ZNK2js19ProfilingStackFrame2pcEv
libmozjs-140.so:_ZNK2js19ProfilingStackFrame6scriptEv
libmozjs-140.so:_ZNK2js19ProfilingStackFrame8functionEv
libmozjs-140.so:_ZNK2js22ForwardingProxyHandler10isCallableEP8JSObject
libmozjs-140.so:_ZNK2js22ForwardingProxyHandler10nativeCallEP9JSContextPFbN2JS6HandleINS3_5ValueEEEEPFbS2_RKNS3_8CallArgsEESB_
libmozjs-140.so:_ZNK2js22ForwardingProxyHandler12fun_toStringEP9JSContextN2JS6HandleIP8JSObjectEEb
libmozjs-140.so:_ZNK2js22ForwardingProxyHandler12getPrototypeEP9JSContextN2JS6HandleIP8JSObjectEENS3_13MutableHandleIS6_EE
libmozjs-140.so:_ZNK2js22ForwardingProxyHandler12isExtensibleEP9JSContextN2JS6HandleIP8JSObjectEEPb
libmozjs-140.so:_ZNK2js22ForwardingProxyHandler12setPrototypeEP9JSContextN2JS6HandleIP8JSObjectEES7_RNS3_14ObjectOpResultE
libmozjs-140.so:_ZNK2js22ForwardingProxyHandler13isConstructorEP8JSObject
libmozjs-140.so:_ZNK2js22ForwardingProxyHandler14definePropertyEP9JSContextN2JS6HandleIP8JSObjectEENS4_INS3_11PropertyKeyEEENS4_INS3_18PropertyDescriptorEEERNS3_14ObjectOpResultE
libmozjs-140.so:_ZNK2js22ForwardingProxyHandler15getBuiltinClassEP9JSContextN2JS6HandleIP8JSObjectEEPNS_7ESClassE
libmozjs-140.so:_ZNK2js22ForwardingProxyHandler15ownPropertyKeysEP9JSContextN2JS6HandleIP8JSObjectEENS3_13MutableHandleINS3_13StackGCVectorINS3_11PropertyKeyENS_15TempAllocPolicyEEEEE
libmozjs-140.so:_ZNK2js22ForwardingProxyHandler15regexp_toSharedEP9JSContextN2JS6HandleIP8JSObjectEE
libmozjs-140.so:_ZNK2js22ForwardingProxyHandler16boxedValue_unboxEP9JSContextN2JS6HandleIP8JSObjectEENS3_13MutableHandleINS3_5ValueEEE
libmozjs-140.so:_ZNK2js22ForwardingProxyHandler17preventExtensionsEP9JSContextN2JS6HandleIP8JSObjectEERNS3_14ObjectOpResultE
libmozjs-140.so:_ZNK2js22ForwardingProxyHandler21setImmutablePrototypeEP9JSContextN2JS6HandleIP8JSObjectEEPb
libmozjs-140.so:_ZNK2js22ForwardingProxyHandler22getPrototypeIfOrdinaryEP9JSContextN2JS6HandleIP8JSObjectEEPbNS3_13MutableHandleIS6_EE
libmozjs-140.so:_ZNK2js22ForwardingProxyHandler24getOwnPropertyDescriptorEP9JSContextN2JS6HandleIP8JSObjectEENS4_INS3_11PropertyKeyEEENS3_13MutableHandleIN7mozilla5MaybeINS3_18PropertyDescriptorEEEEE
libmozjs-140.so:_ZNK2js22ForwardingProxyHandler28getOwnEnumerablePropertyKeysEP9JSContextN2JS6HandleIP8JSObjectEENS3_13MutableHandleINS3_13StackGCVectorINS3_11PropertyKeyENS_15TempAllocPolicyEEEEE
libmozjs-140.so:_ZNK2js22ForwardingProxyHandler3getEP9JSContextN2JS6HandleIP8JSObjectEENS4_INS3_5ValueEEENS4_INS3_11PropertyKeyEEENS3_13MutableHandleIS8_EE
libmozjs-140.so:_ZNK2js22ForwardingProxyHandler3hasEP9JSContextN2JS6HandleIP8JSObjectEENS4_INS3_11PropertyKeyEEEPb
libmozjs-140.so:_ZNK2js22ForwardingProxyHandler3setEP9JSContextN2JS6HandleIP8JSObjectEENS4_INS3_11PropertyKeyEEENS4_INS3_5ValueEEESB_RNS3_14ObjectOpResultE
libmozjs-140.so:_ZNK2js22ForwardingProxyHandler4callEP9JSContextN2JS6HandleIP8JSObjectEERKNS3_8CallArgsE
libmozjs-140.so:_ZNK2js22ForwardingProxyHandler6hasOwnEP9JSContextN2JS6HandleIP8JSObjectEENS4_INS3_11PropertyKeyEEEPb
libmozjs-140.so:_ZNK2js22ForwardingProxyHandler7delete_EP9JSContextN2JS6HandleIP8JSObjectEENS4_INS3_11PropertyKeyEEERNS3_14ObjectOpResultE
libmozjs-140.so:_ZNK2js22ForwardingProxyHandler7isArrayEP9JSContextN2JS6HandleIP8JSObjectEEPNS3_13IsArrayAnswerE
libmozjs-140.so:_ZNK2js22ForwardingProxyHandler9classNameEP9JSContextN2JS6HandleIP8JSObjectEE
libmozjs-140.so:_ZNK2js22ForwardingProxyHandler9constructEP9JSContextN2JS6HandleIP8JSObjectEERKNS3_8CallArgsE
libmozjs-140.so:_ZNK2js22ForwardingProxyHandler9enumerateEP9JSContextN2JS6HandleIP8JSObjectEENS3_13MutableHandleINS3_13StackGCVectorINS3_11PropertyKeyENS_15TempAllocPolicyEEEEE
libmozjs-140.so:_ZNK2js23AutoCheckRecursionLimit28stackKindForCurrentPrincipalEP9JSContext
libmozjs-140.so:_ZNK2js23CrossCompartmentWrapper10nativeCallEP9JSContextPFbN2JS6HandleINS3_5ValueEEEEPFbS2_RKNS3_8CallArgsEESB_
libmozjs-140.so:_ZNK2js23CrossCompartmentWrapper12fun_toStringEP9JSContextN2JS6HandleIP8JSObjectEEb
libmozjs-140.so:_ZNK2js23CrossCompartmentWrapper12getPrototypeEP9JSContextN2JS6HandleIP8JSObjectEENS3_13MutableHandleIS6_EE
libmozjs-140.so:_ZNK2js23CrossCompartmentWrapper12isExtensibleEP9JSContextN2JS6HandleIP8JSObjectEEPb
libmozjs-140.so:_ZNK2js23CrossCompartmentWrapper12setPrototypeEP9JSContextN2JS6HandleIP8JSObjectEES7_RNS3_14ObjectOpResultE
libmozjs-140.so:_ZNK2js23CrossCompartmentWrapper14definePropertyEP9JSContextN2JS6HandleIP8JSObjectEENS4_INS3_11PropertyKeyEEENS4_INS3_18PropertyDescriptorEEERNS3_14ObjectOpResultE
libmozjs-140.so:_ZNK2js23CrossCompartmentWrapper15ownPropertyKeysEP9JSContextN2JS6HandleIP8JSObjectEENS3_13MutableHandleINS3_13StackGCVectorINS3_11PropertyKeyENS_15TempAllocPolicyEEEEE
libmozjs-140.so:_ZNK2js23CrossCompartmentWrapper15regexp_toSharedEP9JSContextN2JS6HandleIP8JSObjectEE
libmozjs-140.so:_ZNK2js23CrossCompartmentWrapper16boxedValue_unboxEP9JSContextN2JS6HandleIP8JSObjectEENS3_13MutableHandleINS3_5ValueEEE
libmozjs-140.so:_ZNK2js23CrossCompartmentWrapper17preventExtensionsEP9JSContextN2JS6HandleIP8JSObjectEERNS3_14ObjectOpResultE
libmozjs-140.so:_ZNK2js23CrossCompartmentWrapper21setImmutablePrototypeEP9JSContextN2JS6HandleIP8JSObjectEEPb
libmozjs-140.so:_ZNK2js23CrossCompartmentWrapper22getPrototypeIfOrdinaryEP9JSContextN2JS6HandleIP8JSObjectEEPbNS3_13MutableHandleIS6_EE
libmozjs-140.so:_ZNK2js23CrossCompartmentWrapper24getOwnPropertyDescriptorEP9JSContextN2JS6HandleIP8JSObjectEENS4_INS3_11PropertyKeyEEENS3_13MutableHandleIN7mozilla5MaybeINS3_18PropertyDescriptorEEEEE
libmozjs-140.so:_ZNK2js23CrossCompartmentWrapper28getOwnEnumerablePropertyKeysEP9JSContextN2JS6HandleIP8JSObjectEENS3_13MutableHandleINS3_13StackGCVectorINS3_11PropertyKeyENS_15TempAllocPolicyEEEEE
libmozjs-140.so:_ZNK2js23CrossCompartmentWrapper3getEP9JSContextN2JS6HandleIP8JSObjectEENS4_INS3_5ValueEEENS4_INS3_11PropertyKeyEEENS3_13MutableHandleIS8_EE
libmozjs-140.so:_ZNK2js23CrossCompartmentWrapper3hasEP9JSContextN2JS6HandleIP8JSObjectEENS4_INS3_11PropertyKeyEEEPb
libmozjs-140.so:_ZNK2js23CrossCompartmentWrapper3setEP9JSContextN2JS6HandleIP8JSObjectEENS4_INS3_11PropertyKeyEEENS4_INS3_5ValueEEESB_RNS3_14ObjectOpResultE
libmozjs-140.so:_ZNK2js23CrossCompartmentWrapper4callEP9JSContextN2JS6HandleIP8JSObjectEERKNS3_8CallArgsE
libmozjs-140.so:_ZNK2js23CrossCompartmentWrapper6hasOwnEP9JSContextN2JS6HandleIP8JSObjectEENS4_INS3_11PropertyKeyEEEPb
libmozjs-140.so:_ZNK2js23CrossCompartmentWrapper7delete_EP9JSContextN2JS6HandleIP8JSObjectEENS4_INS3_11PropertyKeyEEERNS3_14ObjectOpResultE
libmozjs-140.so:_ZNK2js23CrossCompartmentWrapper9classNameEP9JSContextN2JS6HandleIP8JSObjectEE
libmozjs-140.so:_ZNK2js23CrossCompartmentWrapper9constructEP9JSContextN2JS6HandleIP8JSObjectEERKNS3_8CallArgsE
libmozjs-140.so:_ZNK2js23CrossCompartmentWrapper9enumerateEP9JSContextN2JS6HandleIP8JSObjectEENS3_13MutableHandleINS3_13StackGCVectorINS3_11PropertyKeyENS_15TempAllocPolicyEEEEE
libmozjs-140.so:_ZNK2js29OpaqueCrossCompartmentWrapper12fun_toStringEP9JSContextN2JS6HandleIP8JSObjectEEb
libmozjs-140.so:_ZNK2js29OpaqueCrossCompartmentWrapper12getPrototypeEP9JSContextN2JS6HandleIP8JSObjectEENS3_13MutableHandleIS6_EE
libmozjs-140.so:_ZNK2js29OpaqueCrossCompartmentWrapper12isExtensibleEP9JSContextN2JS6HandleIP8JSObjectEEPb
libmozjs-140.so:_ZNK2js29OpaqueCrossCompartmentWrapper12setPrototypeEP9JSContextN2JS6HandleIP8JSObjectEES7_RNS3_14ObjectOpResultE
libmozjs-140.so:_ZNK2js29OpaqueCrossCompartmentWrapper14definePropertyEP9JSContextN2JS6HandleIP8JSObjectEENS4_INS3_11PropertyKeyEEENS4_INS3_18PropertyDescriptorEEERNS3_14ObjectOpResultE
libmozjs-140.so:_ZNK2js29OpaqueCrossCompartmentWrapper15getBuiltinClassEP9JSContextN2JS6HandleIP8JSObjectEEPNS_7ESClassE
libmozjs-140.so:_ZNK2js29OpaqueCrossCompartmentWrapper15ownPropertyKeysEP9JSContextN2JS6HandleIP8JSObjectEENS3_13MutableHandleINS3_13StackGCVectorINS3_11PropertyKeyENS_15TempAllocPolicyEEEEE
libmozjs-140.so:_ZNK2js29OpaqueCrossCompartmentWrapper17preventExtensionsEP9JSContextN2JS6HandleIP8JSObjectEERNS3_14ObjectOpResultE
libmozjs-140.so:_ZNK2js29OpaqueCrossCompartmentWrapper21setImmutablePrototypeEP9JSContextN2JS6HandleIP8JSObjectEEPb
libmozjs-140.so:_ZNK2js29OpaqueCrossCompartmentWrapper22getPrototypeIfOrdinaryEP9JSContextN2JS6HandleIP8JSObjectEEPbNS3_13MutableHandleIS6_EE
libmozjs-140.so:_ZNK2js29OpaqueCrossCompartmentWrapper24getOwnPropertyDescriptorEP9JSContextN2JS6HandleIP8JSObjectEENS4_INS3_11PropertyKeyEEENS3_13MutableHandleIN7mozilla5MaybeINS3_18PropertyDescriptorEEEEE
libmozjs-140.so:_ZNK2js29OpaqueCrossCompartmentWrapper28getOwnEnumerablePropertyKeysEP9JSContextN2JS6HandleIP8JSObjectEENS3_13MutableHandleINS3_13StackGCVectorINS3_11PropertyKeyENS_15TempAllocPolicyEEEEE
libmozjs-140.so:_ZNK2js29OpaqueCrossCompartmentWrapper3getEP9JSContextN2JS6HandleIP8JSObjectEENS4_INS3_5ValueEEENS4_INS3_11PropertyKeyEEENS3_13MutableHandleIS8_EE
libmozjs-140.so:_ZNK2js29OpaqueCrossCompartmentWrapper3hasEP9JSContextN2JS6HandleIP8JSObjectEENS4_INS3_11PropertyKeyEEEPb
libmozjs-140.so:_ZNK2js29OpaqueCrossCompartmentWrapper3setEP9JSContextN2JS6HandleIP8JSObjectEENS4_INS3_11PropertyKeyEEENS4_INS3_5ValueEEESB_RNS3_14ObjectOpResultE
libmozjs-140.so:_ZNK2js29OpaqueCrossCompartmentWrapper4callEP9JSContextN2JS6HandleIP8JSObjectEERKNS3_8CallArgsE
libmozjs-140.so:_ZNK2js29OpaqueCrossCompartmentWrapper6hasOwnEP9JSContextN2JS6HandleIP8JSObjectEENS4_INS3_11PropertyKeyEEEPb
libmozjs-140.so:_ZNK2js29OpaqueCrossCompartmentWrapper7delete_EP9JSContextN2JS6HandleIP8JSObjectEENS4_INS3_11PropertyKeyEEERNS3_14ObjectOpResultE
libmozjs-140.so:_ZNK2js29OpaqueCrossCompartmentWrapper7isArrayEP9JSContextN2JS6HandleIP8JSObjectEEPNS3_13IsArrayAnswerE
libmozjs-140.so:_ZNK2js29OpaqueCrossCompartmentWrapper9classNameEP9JSContextN2JS6HandleIP8JSObjectEE
libmozjs-140.so:_ZNK2js29OpaqueCrossCompartmentWrapper9constructEP9JSContextN2JS6HandleIP8JSObjectEERKNS3_8CallArgsE
libmozjs-140.so:_ZNK2js29OpaqueCrossCompartmentWrapper9enumerateEP9JSContextN2JS6HandleIP8JSObjectEENS3_13MutableHandleINS3_13StackGCVectorINS3_11PropertyKeyENS_15TempAllocPolicyEEEEE
libmozjs-140.so:_ZNK2js7Wrapper20finalizeInBackgroundERKN2JS5ValueE
libmozjs-140.so:_ZNK2js9LSprinter10exportIntoERNS_14GenericPrinterE
libmozjs-140.so:_ZNK5blink7Decimal3absEv
libmozjs-140.so:_ZNK5blink7Decimal4ceilEv
libmozjs-140.so:_ZNK5blink7Decimal5floorEv
libmozjs-140.so:_ZNK5blink7Decimal5roundEv
libmozjs-140.so:_ZNK5blink7Decimal8toDoubleEv
libmozjs-140.so:_ZNK5blink7Decimal8toStringB5cxx11Ev
libmozjs-140.so:_ZNK5blink7Decimal9compareToERKS0_
libmozjs-140.so:_ZNK5blink7Decimal9remainderERKS0_
libmozjs-140.so:_ZNK5blink7DecimaldvERKS0_
libmozjs-140.so:_ZNK5blink7DecimaleqERKS0_
libmozjs-140.so:_ZNK5blink7DecimalgeERKS0_
libmozjs-140.so:_ZNK5blink7DecimalgtERKS0_
libmozjs-140.so:_ZNK5blink7DecimalleERKS0_
libmozjs-140.so:_ZNK5blink7DecimalltERKS0_
libmozjs-140.so:_ZNK5blink7DecimalmiERKS0_
libmozjs-140.so:_ZNK5blink7DecimalmlERKS0_
libmozjs-140.so:_ZNK5blink7DecimalneERKS0_
libmozjs-140.so:_ZNK5blink7DecimalngEv
libmozjs-140.so:_ZNK5blink7DecimalplERKS0_
libmozjs-140.so:_ZNK6JSAtom12getIndexSlowEv
libmozjs-140.so:_ZNK7mozilla14AwakeTimeStampmiERKNS_17AwakeTimeDurationE
libmozjs-140.so:_ZNK7mozilla14AwakeTimeStampmiERKS0_
libmozjs-140.so:_ZNK7mozilla14AwakeTimeStampplERKNS_17AwakeTimeDurationE
libmozjs-140.so:_ZNK7mozilla17AwakeTimeDuration14ToMicrosecondsEv
libmozjs-140.so:_ZNK7mozilla17AwakeTimeDuration14ToMillisecondsEv
libmozjs-140.so:_ZNK7mozilla17AwakeTimeDuration9ToSecondsEv
libmozjs-140.so:_ZNK8JSObject18allocKindForTenureERKN2js7NurseryE
libmozjs-140.so:_ZNK8JSObject21isBackgroundFinalizedEv
libmozjs-140.so:_ZNK8JSObject28sizeOfIncludingThisInNurseryEv
libmozjs-140.so:_ZNK8JSObject2isIN2js21ArrayBufferViewObjectEEEbv
libmozjs-140.so:_ZNK8JSObject2isIN2js21DebugEnvironmentProxyEEEbv
libmozjs-140.so:_ZNK8JSObject2isIN2js23AbstractGeneratorObjectEEEbv
libmozjs-140.so:_ZNK8JSObject2isIN2js28ArrayBufferObjectMaybeSharedEEEbv
libmozjs-140.so:_ZNK8JSObject9allocKindEv
libmozjs-140.so:_ZNK8JSScript11lookupScopeEPKh
libmozjs-140.so:_ZNK8JSScript12isGlobalCodeEv
libmozjs-140.so:_ZNK8JSScript14innermostScopeEPKh
libmozjs-140.so:_ZNK8JSScript15uninlinedGlobalEv
libmozjs-140.so:_ZNK8JSScript18addSizeOfJitScriptEPFmPKvEPmS4_
libmozjs-140.so:_ZNK8JSScript20needsBodyEnvironmentEv
libmozjs-140.so:_ZNK8JSScript22isDirectEvalInFunctionEv
libmozjs-140.so:_ZNK8JSScript23numAlwaysLiveFixedSlotsEv
libmozjs-140.so:_ZNK8JSScript25functionExtraBodyVarScopeEv
libmozjs-140.so:_ZNK8JSScript25functionHasParameterExprsEv
libmozjs-140.so:_ZNK8JSScript6moduleEv
libmozjs-140.so:_ZNK8JSScript7numArgsEv
libmozjs-140.so:_ZNK8JSScript8isModuleEv
libmozjs-140.so:_ZNK8JSString17encodeUTF8PartialERKN2JS15AutoRequireNoGCEN7mozilla4SpanIcLm18446744073709551615EEE
libmozjs-140.so:_ZNK9JSContext19sizeOfExcludingThisEPFmPKvE
libmozjs-140.so:_ZNK9JSContext19sizeOfIncludingThisEPFmPKvE
libmozjs-140.so:_ZNK9JSRuntime18getHostDefinedDataEP9JSContextN2JS13MutableHandleIP8JSObjectEE
libmozjs-140.so:abort
libmozjs-140.so:clearenv
libmozjs-140.so:decoder_decode_to_utf16
libmozjs-140.so:decoder_decode_to_utf16_without_replacement
libmozjs-140.so:decoder_decode_to_utf8
libmozjs-140.so:decoder_decode_to_utf8_without_replacement
libmozjs-140.so:decoder_encoding
libmozjs-140.so:decoder_free
libmozjs-140.so:decoder_latin1_byte_compatible_up_to
libmozjs-140.so:decoder_max_utf16_buffer_length
libmozjs-140.so:decoder_max_utf8_buffer_length
libmozjs-140.so:decoder_max_utf8_buffer_length_without_replacement
libmozjs-140.so:diplomat_alloc
libmozjs-140.so:diplomat_buffer_writeable_create
libmozjs-140.so:diplomat_buffer_writeable_destroy
libmozjs-140.so:diplomat_buffer_writeable_get_bytes
libmozjs-140.so:diplomat_buffer_writeable_len
libmozjs-140.so:diplomat_free
libmozjs-140.so:encoder_encode_from_utf16
libmozjs-140.so:encoder_encode_from_utf16_without_replacement
libmozjs-140.so:encoder_encode_from_utf8
libmozjs-140.so:encoder_encode_from_utf8_without_replacement
libmozjs-140.so:encoder_encoding
libmozjs-140.so:encoder_free
libmozjs-140.so:encoder_has_pending_state
libmozjs-140.so:encoder_max_buffer_length_from_utf16_if_no_unmappables
libmozjs-140.so:encoder_max_buffer_length_from_utf16_without_replacement
libmozjs-140.so:encoder_max_buffer_length_from_utf8_if_no_unmappables
libmozjs-140.so:encoder_max_buffer_length_from_utf8_without_replacement
libmozjs-140.so:encoding_can_encode_everything
libmozjs-140.so:encoding_for_bom
libmozjs-140.so:encoding_for_label
libmozjs-140.so:encoding_for_label_no_replacement
libmozjs-140.so:encoding_is_ascii_compatible
libmozjs-140.so:encoding_is_single_byte
libmozjs-140.so:encoding_iso_2022_jp_ascii_valid_up_to
libmozjs-140.so:encoding_mem_check_str_for_latin1_and_bidi
libmozjs-140.so:encoding_mem_check_utf16_for_latin1_and_bidi
libmozjs-140.so:encoding_mem_check_utf8_for_latin1_and_bidi
libmozjs-140.so:encoding_mem_convert_latin1_to_utf8
libmozjs-140.so:encoding_mem_convert_str_to_utf16
libmozjs-140.so:encoding_mem_convert_utf8_to_latin1_lossy
libmozjs-140.so:encoding_mem_convert_utf8_to_utf16_without_replacement
libmozjs-140.so:encoding_mem_copy_ascii_to_ascii
libmozjs-140.so:encoding_mem_copy_ascii_to_basic_latin
libmozjs-140.so:encoding_mem_copy_basic_latin_to_ascii
libmozjs-140.so:encoding_mem_is_char_bidi
libmozjs-140.so:encoding_mem_is_str_bidi
libmozjs-140.so:encoding_mem_is_str_latin1
libmozjs-140.so:encoding_mem_is_utf16_bidi
libmozjs-140.so:encoding_mem_is_utf16_code_unit_bidi
libmozjs-140.so:encoding_mem_is_utf8_bidi
libmozjs-140.so:encoding_mem_str_latin1_up_to
libmozjs-140.so:encoding_mem_utf8_latin1_up_to
libmozjs-140.so:encoding_name
libmozjs-140.so:encoding_new_decoder
libmozjs-140.so:encoding_new_decoder_into
libmozjs-140.so:encoding_new_decoder_with_bom_removal
libmozjs-140.so:encoding_new_decoder_with_bom_removal_into
libmozjs-140.so:encoding_new_decoder_without_bom_handling
libmozjs-140.so:encoding_new_decoder_without_bom_handling_into
libmozjs-140.so:encoding_new_encoder
libmozjs-140.so:encoding_new_encoder_into
libmozjs-140.so:encoding_output_encoding
libmozjs-140.so:fprint_stderr
libmozjs-140.so:fprintf_stderr
libmozjs-140.so:gMozCrashReason
libmozjs-140.so:gMozillaPoisonBase
libmozjs-140.so:gMozillaPoisonSize
libmozjs-140.so:gMozillaPoisonValue
libmozjs-140.so:gOOMAllocationSize
libmozjs-140.so:gProcessUUID
libmozjs-140.so:getenv
libmozjs-140.so:moz_arena_calloc
libmozjs-140.so:moz_arena_free
libmozjs-140.so:moz_arena_malloc
libmozjs-140.so:moz_arena_memalign
libmozjs-140.so:moz_arena_realloc
libmozjs-140.so:moz_create_arena_with_params
libmozjs-140.so:moz_dispose_arena
libmozjs-140.so:moz_malloc_enclosing_size_of
libmozjs-140.so:moz_malloc_size_of
libmozjs-140.so:moz_malloc_usable_size
libmozjs-140.so:moz_xcalloc
libmozjs-140.so:moz_xmalloc
libmozjs-140.so:moz_xmemalign
libmozjs-140.so:moz_xmemdup
libmozjs-140.so:moz_xrealloc
libmozjs-140.so:moz_xstrdup
libmozjs-140.so:moz_xstrndup
libmozjs-140.so:mozalloc_abort
libmozjs-140.so:mozjs_140
libmozjs-140.so:print_stderr
libmozjs-140.so:printf_stderr
libmozjs-140.so:putenv
libmozjs-140.so:rust_eh_personality
libmozjs-140.so:setenv
libmozjs-140.so:unsetenv
libmozjs-140.so:vprintf_stderr
libmozjs-140.so:wasm_text_to_binary
