liblog4cpp.so.5:_ZN7log4cpp10Properties20_substituteVariablesERNSt7__cxx1112basic_stringIcSt11char_traitsIcESaIcEEE
liblog4cpp.so.5:_ZN7log4cpp10Properties4loadERSi
liblog4cpp.so.5:_ZN7log4cpp10Properties4saveERSo
liblog4cpp.so.5:_ZN7log4cpp10Properties6getIntERKNSt7__cxx1112basic_stringIcSt11char_traitsIcESaIcEEEi
liblog4cpp.so.5:_ZN7log4cpp10Properties7getBoolERKNSt7__cxx1112basic_stringIcSt11char_traitsIcESaIcEEEb
liblog4cpp.so.5:_ZN7log4cpp10Properties9getStringERKNSt7__cxx1112basic_stringIcSt11char_traitsIcESaIcEEEPKc
liblog4cpp.so.5:_ZN7log4cpp10PropertiesC1Ev
liblog4cpp.so.5:_ZN7log4cpp10PropertiesC2Ev
liblog4cpp.so.5:_ZN7log4cpp10PropertiesD0Ev
liblog4cpp.so.5:_ZN7log4cpp10PropertiesD1Ev
liblog4cpp.so.5:_ZN7log4cpp10PropertiesD2Ev
liblog4cpp.so.5:_ZN7log4cpp10StringUtil4trimERKNSt7__cxx1112basic_stringIcSt11char_traitsIcESaIcEEE
liblog4cpp.so.5:_ZN7log4cpp10StringUtil5splitERSt6vectorINSt7__cxx1112basic_stringIcSt11char_traitsIcESaIcEEESaIS7_EERKS7_cj
liblog4cpp.so.5:_ZN7log4cpp10StringUtil5vformB5cxx11EPKcP13__va_list_tag
liblog4cpp.so.5:_ZN7log4cpp11BasicLayout6formatB5cxx11ERKNS_12LoggingEventE
liblog4cpp.so.5:_ZN7log4cpp11BasicLayoutC1Ev
liblog4cpp.so.5:_ZN7log4cpp11BasicLayoutC2Ev
liblog4cpp.so.5:_ZN7log4cpp11BasicLayoutD0Ev
liblog4cpp.so.5:_ZN7log4cpp11BasicLayoutD1Ev
liblog4cpp.so.5:_ZN7log4cpp11BasicLayoutD2Ev
liblog4cpp.so.5:_ZN7log4cpp12FileAppender5closeEv
liblog4cpp.so.5:_ZN7log4cpp12FileAppender6reopenEv
liblog4cpp.so.5:_ZN7log4cpp12FileAppender7_appendERKNS_12LoggingEventE
liblog4cpp.so.5:_ZN7log4cpp12FileAppender7setModeEj
liblog4cpp.so.5:_ZN7log4cpp12FileAppender9setAppendEb
liblog4cpp.so.5:_ZN7log4cpp12FileAppenderC1ERKNSt7__cxx1112basic_stringIcSt11char_traitsIcESaIcEEES8_bj
liblog4cpp.so.5:_ZN7log4cpp12FileAppenderC1ERKNSt7__cxx1112basic_stringIcSt11char_traitsIcESaIcEEEi
liblog4cpp.so.5:_ZN7log4cpp12FileAppenderC2ERKNSt7__cxx1112basic_stringIcSt11char_traitsIcESaIcEEES8_bj
liblog4cpp.so.5:_ZN7log4cpp12FileAppenderC2ERKNSt7__cxx1112basic_stringIcSt11char_traitsIcESaIcEEEi
liblog4cpp.so.5:_ZN7log4cpp12FileAppenderD0Ev
liblog4cpp.so.5:_ZN7log4cpp12FileAppenderD1Ev
liblog4cpp.so.5:_ZN7log4cpp12FileAppenderD2Ev
liblog4cpp.so.5:_ZN7log4cpp12LoggingEventC1ERKNSt7__cxx1112basic_stringIcSt11char_traitsIcESaIcEEES8_S8_i
liblog4cpp.so.5:_ZN7log4cpp12LoggingEventC2ERKNSt7__cxx1112basic_stringIcSt11char_traitsIcESaIcEEES8_S8_i
liblog4cpp.so.5:_ZN7log4cpp12SimpleLayout6formatB5cxx11ERKNS_12LoggingEventE
liblog4cpp.so.5:_ZN7log4cpp12SimpleLayoutC1Ev
liblog4cpp.so.5:_ZN7log4cpp12SimpleLayoutC2Ev
liblog4cpp.so.5:_ZN7log4cpp12SimpleLayoutD0Ev
liblog4cpp.so.5:_ZN7log4cpp12SimpleLayoutD1Ev
liblog4cpp.so.5:_ZN7log4cpp12SimpleLayoutD2Ev
liblog4cpp.so.5:_ZN7log4cpp13AbortAppender5closeEv
liblog4cpp.so.5:_ZN7log4cpp13AbortAppender6reopenEv
liblog4cpp.so.5:_ZN7log4cpp13AbortAppender7_appendERKNS_12LoggingEventE
liblog4cpp.so.5:_ZN7log4cpp13AbortAppender9setLayoutEPNS_6LayoutE
liblog4cpp.so.5:_ZN7log4cpp13AbortAppenderC1ERKNSt7__cxx1112basic_stringIcSt11char_traitsIcESaIcEEE
liblog4cpp.so.5:_ZN7log4cpp13AbortAppenderC2ERKNSt7__cxx1112basic_stringIcSt11char_traitsIcESaIcEEE
liblog4cpp.so.5:_ZN7log4cpp13AbortAppenderD0Ev
liblog4cpp.so.5:_ZN7log4cpp13AbortAppenderD1Ev
liblog4cpp.so.5:_ZN7log4cpp13AbortAppenderD2Ev
liblog4cpp.so.5:_ZN7log4cpp13PatternLayout20setConversionPatternERKNSt7__cxx1112basic_stringIcSt11char_traitsIcESaIcEEE
liblog4cpp.so.5:_ZN7log4cpp13PatternLayout22clearConversionPatternEv
liblog4cpp.so.5:_ZN7log4cpp13PatternLayout23TTCC_CONVERSION_PATTERNE
liblog4cpp.so.5:_ZN7log4cpp13PatternLayout24BASIC_CONVERSION_PATTERNE
liblog4cpp.so.5:_ZN7log4cpp13PatternLayout25SIMPLE_CONVERSION_PATTERNE
liblog4cpp.so.5:_ZN7log4cpp13PatternLayout26DEFAULT_CONVERSION_PATTERNE
liblog4cpp.so.5:_ZN7log4cpp13PatternLayout6formatB5cxx11ERKNS_12LoggingEventE
liblog4cpp.so.5:_ZN7log4cpp13PatternLayoutC1Ev
liblog4cpp.so.5:_ZN7log4cpp13PatternLayoutC2Ev
liblog4cpp.so.5:_ZN7log4cpp13PatternLayoutD0Ev
liblog4cpp.so.5:_ZN7log4cpp13PatternLayoutD1Ev
liblog4cpp.so.5:_ZN7log4cpp13PatternLayoutD2Ev
liblog4cpp.so.5:_ZN7log4cpp14CategoryStream5flushEv
liblog4cpp.so.5:_ZN7log4cpp14CategoryStream5widthEl
liblog4cpp.so.5:_ZN7log4cpp14CategoryStreamC1ERNS_8CategoryEi
liblog4cpp.so.5:_ZN7log4cpp14CategoryStreamC2ERNS_8CategoryEi
liblog4cpp.so.5:_ZN7log4cpp14CategoryStreamD1Ev
liblog4cpp.so.5:_ZN7log4cpp14CategoryStreamD2Ev
liblog4cpp.so.5:_ZN7log4cpp14CategoryStreamlsEPFRS0_S1_E
liblog4cpp.so.5:_ZN7log4cpp14CategoryStreamlsEPKc
liblog4cpp.so.5:_ZN7log4cpp14LayoutAppender10_getLayoutEv
liblog4cpp.so.5:_ZN7log4cpp14LayoutAppender9setLayoutEPNS_6LayoutE
liblog4cpp.so.5:_ZN7log4cpp14LayoutAppenderC1ERKNSt7__cxx1112basic_stringIcSt11char_traitsIcESaIcEEE
liblog4cpp.so.5:_ZN7log4cpp14LayoutAppenderC2ERKNSt7__cxx1112basic_stringIcSt11char_traitsIcESaIcEEE
liblog4cpp.so.5:_ZN7log4cpp14LayoutAppenderD0Ev
liblog4cpp.so.5:_ZN7log4cpp14LayoutAppenderD1Ev
liblog4cpp.so.5:_ZN7log4cpp14LayoutAppenderD2Ev
liblog4cpp.so.5:_ZN7log4cpp14LayoutsFactory11getInstanceEv
liblog4cpp.so.5:_ZN7log4cpp14LayoutsFactory15registerCreatorERKNSt7__cxx1112basic_stringIcSt11char_traitsIcESaIcEEEPFSt8auto_ptrINS_6LayoutEERKNS_13FactoryParamsEE
liblog4cpp.so.5:_ZN7log4cpp14LayoutsFactory6createERKNSt7__cxx1112basic_stringIcSt11char_traitsIcESaIcEEERKNS_13FactoryParamsE
liblog4cpp.so.5:_ZN7log4cpp14SyslogAppender16toSyslogPriorityEi
liblog4cpp.so.5:_ZN7log4cpp14SyslogAppender4openEv
liblog4cpp.so.5:_ZN7log4cpp14SyslogAppender5closeEv
liblog4cpp.so.5:_ZN7log4cpp14SyslogAppender6reopenEv
liblog4cpp.so.5:_ZN7log4cpp14SyslogAppender7_appendERKNS_12LoggingEventE
liblog4cpp.so.5:_ZN7log4cpp14SyslogAppenderC1ERKNSt7__cxx1112basic_stringIcSt11char_traitsIcESaIcEEES8_i
liblog4cpp.so.5:_ZN7log4cpp14SyslogAppenderC2ERKNSt7__cxx1112basic_stringIcSt11char_traitsIcESaIcEEES8_i
liblog4cpp.so.5:_ZN7log4cpp14SyslogAppenderD0Ev
liblog4cpp.so.5:_ZN7log4cpp14SyslogAppenderD1Ev
liblog4cpp.so.5:_ZN7log4cpp14SyslogAppenderD2Ev
liblog4cpp.so.5:_ZN7log4cpp15OstreamAppender5closeEv
liblog4cpp.so.5:_ZN7log4cpp15OstreamAppender6reopenEv
liblog4cpp.so.5:_ZN7log4cpp15OstreamAppender7_appendERKNS_12LoggingEventE
liblog4cpp.so.5:_ZN7log4cpp15OstreamAppenderC1ERKNSt7__cxx1112basic_stringIcSt11char_traitsIcESaIcEEEPSo
liblog4cpp.so.5:_ZN7log4cpp15OstreamAppenderC2ERKNSt7__cxx1112basic_stringIcSt11char_traitsIcESaIcEEEPSo
liblog4cpp.so.5:_ZN7log4cpp15OstreamAppenderD0Ev
liblog4cpp.so.5:_ZN7log4cpp15OstreamAppenderD1Ev
liblog4cpp.so.5:_ZN7log4cpp15OstreamAppenderD2Ev
liblog4cpp.so.5:_ZN7log4cpp16AppenderSkeleton12getThresholdEv
liblog4cpp.so.5:_ZN7log4cpp16AppenderSkeleton12setThresholdEi
liblog4cpp.so.5:_ZN7log4cpp16AppenderSkeleton6reopenEv
liblog4cpp.so.5:_ZN7log4cpp16AppenderSkeleton8doAppendERKNS_12LoggingEventE
liblog4cpp.so.5:_ZN7log4cpp16AppenderSkeleton9getFilterEv
liblog4cpp.so.5:_ZN7log4cpp16AppenderSkeleton9setFilterEPNS_6FilterE
liblog4cpp.so.5:_ZN7log4cpp16AppenderSkeletonC1ERKNSt7__cxx1112basic_stringIcSt11char_traitsIcESaIcEEE
liblog4cpp.so.5:_ZN7log4cpp16AppenderSkeletonC2ERKNSt7__cxx1112basic_stringIcSt11char_traitsIcESaIcEEE
liblog4cpp.so.5:_ZN7log4cpp16AppenderSkeletonD0Ev
liblog4cpp.so.5:_ZN7log4cpp16AppenderSkeletonD1Ev
liblog4cpp.so.5:_ZN7log4cpp16AppenderSkeletonD2Ev
liblog4cpp.so.5:_ZN7log4cpp16AppendersFactory11getInstanceEv
liblog4cpp.so.5:_ZN7log4cpp16AppendersFactory15registerCreatorERKNSt7__cxx1112basic_stringIcSt11char_traitsIcESaIcEEEPFSt8auto_ptrINS_8AppenderEERKNS_13FactoryParamsEE
liblog4cpp.so.5:_ZN7log4cpp16AppendersFactory6createERKNSt7__cxx1112basic_stringIcSt11char_traitsIcESaIcEEERKNS_13FactoryParamsE
liblog4cpp.so.5:_ZN7log4cpp16ConfigureFailureC1ERKNSt7__cxx1112basic_stringIcSt11char_traitsIcESaIcEEE
liblog4cpp.so.5:_ZN7log4cpp16ConfigureFailureC2ERKNSt7__cxx1112basic_stringIcSt11char_traitsIcESaIcEEE
liblog4cpp.so.5:_ZN7log4cpp17BasicConfigurator9configureEv
liblog4cpp.so.5:_ZN7log4cpp17BufferingAppender4dumpEv
liblog4cpp.so.5:_ZN7log4cpp17BufferingAppender7_appendERKNS_12LoggingEventE
liblog4cpp.so.5:_ZN7log4cpp17BufferingAppenderC1ENSt7__cxx1112basic_stringIcSt11char_traitsIcESaIcEEEmSt8auto_ptrINS_8AppenderEES7_INS_24TriggeringEventEvaluatorEE
liblog4cpp.so.5:_ZN7log4cpp17BufferingAppenderC2ENSt7__cxx1112basic_stringIcSt11char_traitsIcESaIcEEEmSt8auto_ptrINS_8AppenderEES7_INS_24TriggeringEventEvaluatorEE
liblog4cpp.so.5:_ZN7log4cpp18SimpleConfigurator9configureERKNSt7__cxx1112basic_stringIcSt11char_traitsIcESaIcEEE
liblog4cpp.so.5:_ZN7log4cpp18SimpleConfigurator9configureERSi
liblog4cpp.so.5:_ZN7log4cpp18TimeStampComponent11FORMAT_DATEE
liblog4cpp.so.5:_ZN7log4cpp18TimeStampComponent14FORMAT_ISO8601E
liblog4cpp.so.5:_ZN7log4cpp18TimeStampComponent15FORMAT_ABSOLUTEE
liblog4cpp.so.5:_ZN7log4cpp19HierarchyMaintainer11getInstanceERKNSt7__cxx1112basic_stringIcSt11char_traitsIcESaIcEEE
liblog4cpp.so.5:_ZN7log4cpp19HierarchyMaintainer12_getInstanceERKNSt7__cxx1112basic_stringIcSt11char_traitsIcESaIcEEE
liblog4cpp.so.5:_ZN7log4cpp19HierarchyMaintainer19deleteAllCategoriesEv
liblog4cpp.so.5:_ZN7log4cpp19HierarchyMaintainer19getExistingInstanceERKNSt7__cxx1112basic_stringIcSt11char_traitsIcESaIcEEE
liblog4cpp.so.5:_ZN7log4cpp19HierarchyMaintainer20_getExistingInstanceERKNSt7__cxx1112basic_stringIcSt11char_traitsIcESaIcEEE
liblog4cpp.so.5:_ZN7log4cpp19HierarchyMaintainer20getDefaultMaintainerEv
liblog4cpp.so.5:_ZN7log4cpp19HierarchyMaintainer25register_shutdown_handlerEPFvvE
liblog4cpp.so.5:_ZN7log4cpp19HierarchyMaintainer8shutdownEv
liblog4cpp.so.5:_ZN7log4cpp19HierarchyMaintainerC1Ev
liblog4cpp.so.5:_ZN7log4cpp19HierarchyMaintainerC2Ev
liblog4cpp.so.5:_ZN7log4cpp19HierarchyMaintainerD0Ev
liblog4cpp.so.5:_ZN7log4cpp19HierarchyMaintainerD1Ev
liblog4cpp.so.5:_ZN7log4cpp19HierarchyMaintainerD2Ev
liblog4cpp.so.5:_ZN7log4cpp19RollingFileAppender17setMaxBackupIndexEj
liblog4cpp.so.5:_ZN7log4cpp19RollingFileAppender18setMaximumFileSizeEm
liblog4cpp.so.5:_ZN7log4cpp19RollingFileAppender7_appendERKNS_12LoggingEventE
liblog4cpp.so.5:_ZN7log4cpp19RollingFileAppender8rollOverEv
liblog4cpp.so.5:_ZN7log4cpp19RollingFileAppenderC1ERKNSt7__cxx1112basic_stringIcSt11char_traitsIcESaIcEEES8_mjbj
liblog4cpp.so.5:_ZN7log4cpp19RollingFileAppenderC2ERKNSt7__cxx1112basic_stringIcSt11char_traitsIcESaIcEEES8_mjbj
liblog4cpp.so.5:_ZN7log4cpp19StringQueueAppender10popMessageB5cxx11Ev
liblog4cpp.so.5:_ZN7log4cpp19StringQueueAppender5closeEv
liblog4cpp.so.5:_ZN7log4cpp19StringQueueAppender6reopenEv
liblog4cpp.so.5:_ZN7log4cpp19StringQueueAppender7_appendERKNS_12LoggingEventE
liblog4cpp.so.5:_ZN7log4cpp19StringQueueAppender8getQueueB5cxx11Ev
liblog4cpp.so.5:_ZN7log4cpp19StringQueueAppenderC1ERKNSt7__cxx1112basic_stringIcSt11char_traitsIcESaIcEEE
liblog4cpp.so.5:_ZN7log4cpp19StringQueueAppenderC2ERKNSt7__cxx1112basic_stringIcSt11char_traitsIcESaIcEEE
liblog4cpp.so.5:_ZN7log4cpp19StringQueueAppenderD0Ev
liblog4cpp.so.5:_ZN7log4cpp19StringQueueAppenderD1Ev
liblog4cpp.so.5:_ZN7log4cpp19StringQueueAppenderD2Ev
liblog4cpp.so.5:_ZN7log4cpp19create_basic_layoutERKNS_13FactoryParamsE
liblog4cpp.so.5:_ZN7log4cpp20FixedContextCategory10setContextERKNSt7__cxx1112basic_stringIcSt11char_traitsIcESaIcEEE
liblog4cpp.so.5:_ZN7log4cpp20FixedContextCategory11addAppenderEPNS_8AppenderE
liblog4cpp.so.5:_ZN7log4cpp20FixedContextCategory11addAppenderERNS_8AppenderE
liblog4cpp.so.5:_ZN7log4cpp20FixedContextCategory13callAppendersERKNS_12LoggingEventE
liblog4cpp.so.5:_ZN7log4cpp20FixedContextCategory13setAdditivityEb
liblog4cpp.so.5:_ZN7log4cpp20FixedContextCategory18removeAllAppendersEv
liblog4cpp.so.5:_ZN7log4cpp20FixedContextCategory20_logUnconditionally2EiRKNSt7__cxx1112basic_stringIcSt11char_traitsIcESaIcEEE
liblog4cpp.so.5:_ZN7log4cpp20FixedContextCategoryC1ERKNSt7__cxx1112basic_stringIcSt11char_traitsIcESaIcEEES8_
liblog4cpp.so.5:_ZN7log4cpp20FixedContextCategoryC2ERKNSt7__cxx1112basic_stringIcSt11char_traitsIcESaIcEEES8_
liblog4cpp.so.5:_ZN7log4cpp20FixedContextCategoryD0Ev
liblog4cpp.so.5:_ZN7log4cpp20FixedContextCategoryD1Ev
liblog4cpp.so.5:_ZN7log4cpp20FixedContextCategoryD2Ev
liblog4cpp.so.5:_ZN7log4cpp20PropertyConfigurator9configureERKNSt7__cxx1112basic_stringIcSt11char_traitsIcESaIcEEE
liblog4cpp.so.5:_ZN7log4cpp20RemoteSyslogAppender16toSyslogPriorityEi
liblog4cpp.so.5:_ZN7log4cpp20RemoteSyslogAppender4openEv
liblog4cpp.so.5:_ZN7log4cpp20RemoteSyslogAppender5closeEv
liblog4cpp.so.5:_ZN7log4cpp20RemoteSyslogAppender6reopenEv
liblog4cpp.so.5:_ZN7log4cpp20RemoteSyslogAppender7_appendERKNS_12LoggingEventE
liblog4cpp.so.5:_ZN7log4cpp20RemoteSyslogAppenderC1ERKNSt7__cxx1112basic_stringIcSt11char_traitsIcESaIcEEES8_S8_ii
liblog4cpp.so.5:_ZN7log4cpp20RemoteSyslogAppenderC2ERKNSt7__cxx1112basic_stringIcSt11char_traitsIcESaIcEEES8_S8_ii
liblog4cpp.so.5:_ZN7log4cpp20RemoteSyslogAppenderD0Ev
liblog4cpp.so.5:_ZN7log4cpp20RemoteSyslogAppenderD1Ev
liblog4cpp.so.5:_ZN7log4cpp20RemoteSyslogAppenderD2Ev
liblog4cpp.so.5:_ZN7log4cpp20create_file_appenderERKNS_13FactoryParamsE
liblog4cpp.so.5:_ZN7log4cpp20create_simple_layoutERKNS_13FactoryParamsE
liblog4cpp.so.5:_ZN7log4cpp21create_abort_appenderERKNS_13FactoryParamsE
liblog4cpp.so.5:_ZN7log4cpp21create_pattern_layoutERKNS_13FactoryParamsE
liblog4cpp.so.5:_ZN7log4cpp22create_level_evaluatorERKNS_13FactoryParamsE
liblog4cpp.so.5:_ZN7log4cpp22create_syslog_appenderERKNS_13FactoryParamsE
liblog4cpp.so.5:_ZN7log4cpp24DailyRollingFileAppender16setMaxDaysToKeepEj
liblog4cpp.so.5:_ZN7log4cpp24DailyRollingFileAppender20maxDaysToKeepDefaultE
liblog4cpp.so.5:_ZN7log4cpp24DailyRollingFileAppender7_appendERKNS_12LoggingEventE
liblog4cpp.so.5:_ZN7log4cpp24DailyRollingFileAppender8rollOverEv
liblog4cpp.so.5:_ZN7log4cpp24DailyRollingFileAppenderC1ERKNSt7__cxx1112basic_stringIcSt11char_traitsIcESaIcEEES8_jbj
liblog4cpp.so.5:_ZN7log4cpp24DailyRollingFileAppenderC2ERKNSt7__cxx1112basic_stringIcSt11char_traitsIcESaIcEEES8_jbj
liblog4cpp.so.5:_ZN7log4cpp24PropertyConfiguratorImpl11doConfigureERKNSt7__cxx1112basic_stringIcSt11char_traitsIcESaIcEEE
liblog4cpp.so.5:_ZN7log4cpp24PropertyConfiguratorImpl11doConfigureERSi
liblog4cpp.so.5:_ZN7log4cpp24PropertyConfiguratorImpl17configureCategoryERKNSt7__cxx1112basic_stringIcSt11char_traitsIcESaIcEEE
liblog4cpp.so.5:_ZN7log4cpp24PropertyConfiguratorImpl19instantiateAppenderERKNSt7__cxx1112basic_stringIcSt11char_traitsIcESaIcEEE
liblog4cpp.so.5:_ZN7log4cpp24PropertyConfiguratorImpl23instantiateAllAppendersEv
liblog4cpp.so.5:_ZN7log4cpp24PropertyConfiguratorImpl9setLayoutEPNS_8AppenderERKNSt7__cxx1112basic_stringIcSt11char_traitsIcESaIcEEE
liblog4cpp.so.5:_ZN7log4cpp24PropertyConfiguratorImplC1Ev
liblog4cpp.so.5:_ZN7log4cpp24PropertyConfiguratorImplC2Ev
liblog4cpp.so.5:_ZN7log4cpp24PropertyConfiguratorImplD0Ev
liblog4cpp.so.5:_ZN7log4cpp24PropertyConfiguratorImplD1Ev
liblog4cpp.so.5:_ZN7log4cpp24PropertyConfiguratorImplD2Ev
liblog4cpp.so.5:_ZN7log4cpp25create_roll_file_appenderERKNS_13FactoryParamsE
liblog4cpp.so.5:_ZN7log4cpp26create_pass_through_layoutERKNS_13FactoryParamsE
liblog4cpp.so.5:_ZN7log4cpp29create_remote_syslog_appenderERKNS_13FactoryParamsE
liblog4cpp.so.5:_ZN7log4cpp31TriggeringEventEvaluatorFactory11getInstanceEv
liblog4cpp.so.5:_ZN7log4cpp31TriggeringEventEvaluatorFactory15registerCreatorERKNSt7__cxx1112basic_stringIcSt11char_traitsIcESaIcEEEPFSt8auto_ptrINS_24TriggeringEventEvaluatorEERKNS_13FactoryParamsEE
liblog4cpp.so.5:_ZN7log4cpp31TriggeringEventEvaluatorFactory6createERKNSt7__cxx1112basic_stringIcSt11char_traitsIcESaIcEEERKNS_13FactoryParamsE
liblog4cpp.so.5:_ZN7log4cpp31create_daily_roll_file_appenderERKNS_13FactoryParamsE
liblog4cpp.so.5:_ZN7log4cpp3NDC10cloneStackEv
liblog4cpp.so.5:_ZN7log4cpp3NDC11_cloneStackEv
liblog4cpp.so.5:_ZN7log4cpp3NDC11emptyStringB5cxx11E
liblog4cpp.so.5:_ZN7log4cpp3NDC11setMaxDepthEi
liblog4cpp.so.5:_ZN7log4cpp3NDC12_setMaxDepthEi
liblog4cpp.so.5:_ZN7log4cpp3NDC17DiagnosticContextC1ERKNSt7__cxx1112basic_stringIcSt11char_traitsIcESaIcEEE
liblog4cpp.so.5:_ZN7log4cpp3NDC17DiagnosticContextC1ERKNSt7__cxx1112basic_stringIcSt11char_traitsIcESaIcEEERKS1_
liblog4cpp.so.5:_ZN7log4cpp3NDC17DiagnosticContextC2ERKNSt7__cxx1112basic_stringIcSt11char_traitsIcESaIcEEE
liblog4cpp.so.5:_ZN7log4cpp3NDC17DiagnosticContextC2ERKNSt7__cxx1112basic_stringIcSt11char_traitsIcESaIcEEERKS1_
liblog4cpp.so.5:_ZN7log4cpp3NDC3getB5cxx11Ev
liblog4cpp.so.5:_ZN7log4cpp3NDC3popB5cxx11Ev
liblog4cpp.so.5:_ZN7log4cpp3NDC4_popB5cxx11Ev
liblog4cpp.so.5:_ZN7log4cpp3NDC4pushERKNSt7__cxx1112basic_stringIcSt11char_traitsIcESaIcEEE
liblog4cpp.so.5:_ZN7log4cpp3NDC5_pushERKNSt7__cxx1112basic_stringIcSt11char_traitsIcESaIcEEE
liblog4cpp.so.5:_ZN7log4cpp3NDC5clearEv
liblog4cpp.so.5:_ZN7log4cpp3NDC6_clearEv
liblog4cpp.so.5:_ZN7log4cpp3NDC6getNDCEv
liblog4cpp.so.5:_ZN7log4cpp3NDC7inheritEPSt6vectorINS0_17DiagnosticContextESaIS2_EE
liblog4cpp.so.5:_ZN7log4cpp3NDC8_inheritEPSt6vectorINS0_17DiagnosticContextESaIS2_EE
liblog4cpp.so.5:_ZN7log4cpp3NDC8getDepthEv
liblog4cpp.so.5:_ZN7log4cpp3NDC9isUsedNDCE
liblog4cpp.so.5:_ZN7log4cpp3NDCC1Ev
liblog4cpp.so.5:_ZN7log4cpp3NDCC2Ev
liblog4cpp.so.5:_ZN7log4cpp3NDCD0Ev
liblog4cpp.so.5:_ZN7log4cpp3NDCD1Ev
liblog4cpp.so.5:_ZN7log4cpp3NDCD2Ev
liblog4cpp.so.5:_ZN7log4cpp3eolERNS_14CategoryStreamE
liblog4cpp.so.5:_ZN7log4cpp4leftERNS_14CategoryStreamE
liblog4cpp.so.5:_ZN7log4cpp6Filter13getEndOfChainEv
liblog4cpp.so.5:_ZN7log4cpp6Filter16getChainedFilterEv
liblog4cpp.so.5:_ZN7log4cpp6Filter16setChainedFilterEPS0_
liblog4cpp.so.5:_ZN7log4cpp6Filter19appendChainedFilterEPS0_
liblog4cpp.so.5:_ZN7log4cpp6Filter6decideERKNS_12LoggingEventE
liblog4cpp.so.5:_ZN7log4cpp6FilterC1Ev
liblog4cpp.so.5:_ZN7log4cpp6FilterC2Ev
liblog4cpp.so.5:_ZN7log4cpp6FilterD0Ev
liblog4cpp.so.5:_ZN7log4cpp6FilterD1Ev
liblog4cpp.so.5:_ZN7log4cpp6FilterD2Ev
liblog4cpp.so.5:_ZN7log4cpp8Appender11getAppenderERKNSt7__cxx1112basic_stringIcSt11char_traitsIcESaIcEEE
liblog4cpp.so.5:_ZN7log4cpp8Appender12_addAppenderEPS0_
liblog4cpp.so.5:_ZN7log4cpp8Appender15_removeAppenderEPS0_
liblog4cpp.so.5:_ZN7log4cpp8Appender16_getAllAppendersB5cxx11Ev
liblog4cpp.so.5:_ZN7log4cpp8Appender18AppenderMapStorageC1Ev
liblog4cpp.so.5:_ZN7log4cpp8Appender18AppenderMapStorageC2Ev
liblog4cpp.so.5:_ZN7log4cpp8Appender18AppenderMapStorageD1Ev
liblog4cpp.so.5:_ZN7log4cpp8Appender18AppenderMapStorageD2Ev
liblog4cpp.so.5:_ZN7log4cpp8Appender19_deleteAllAppendersEv
liblog4cpp.so.5:_ZN7log4cpp8Appender25_deleteAllAppendersWOLockERSt6vectorIPS0_SaIS2_EE
liblog4cpp.so.5:_ZN7log4cpp8Appender27_appenderMapStorageInstanceE
liblog4cpp.so.5:_ZN7log4cpp8Appender29AppenderMapStorageInitializerC1Ev
liblog4cpp.so.5:_ZN7log4cpp8Appender29AppenderMapStorageInitializerC2Ev
liblog4cpp.so.5:_ZN7log4cpp8Appender29AppenderMapStorageInitializerD1Ev
liblog4cpp.so.5:_ZN7log4cpp8Appender29AppenderMapStorageInitializerD2Ev
liblog4cpp.so.5:_ZN7log4cpp8Appender8closeAllEv
liblog4cpp.so.5:_ZN7log4cpp8Appender9reopenAllEv
liblog4cpp.so.5:_ZN7log4cpp8AppenderC1ERKNSt7__cxx1112basic_stringIcSt11char_traitsIcESaIcEEE
liblog4cpp.so.5:_ZN7log4cpp8AppenderC2ERKNSt7__cxx1112basic_stringIcSt11char_traitsIcESaIcEEE
liblog4cpp.so.5:_ZN7log4cpp8AppenderD0Ev
liblog4cpp.so.5:_ZN7log4cpp8AppenderD1Ev
liblog4cpp.so.5:_ZN7log4cpp8AppenderD2Ev
liblog4cpp.so.5:_ZN7log4cpp8Category11addAppenderEPNS_8AppenderE
liblog4cpp.so.5:_ZN7log4cpp8Category11addAppenderERNS_8AppenderE
liblog4cpp.so.5:_ZN7log4cpp8Category11getInstanceERKNSt7__cxx1112basic_stringIcSt11char_traitsIcESaIcEEE
liblog4cpp.so.5:_ZN7log4cpp8Category11setPriorityEi
liblog4cpp.so.5:_ZN7log4cpp8Category12ownsAppenderEPNS_8AppenderERSt17_Rb_tree_iteratorISt4pairIKS2_bEE
liblog4cpp.so.5:_ZN7log4cpp8Category13callAppendersERKNS_12LoggingEventE
liblog4cpp.so.5:_ZN7log4cpp8Category13setAdditivityEb
liblog4cpp.so.5:_ZN7log4cpp8Category14removeAppenderEPNS_8AppenderE
liblog4cpp.so.5:_ZN7log4cpp8Category14shutdownForcedEv
liblog4cpp.so.5:_ZN7log4cpp8Category15getRootPriorityEv
liblog4cpp.so.5:_ZN7log4cpp8Category15setRootPriorityEi
liblog4cpp.so.5:_ZN7log4cpp8Category18removeAllAppendersEv
liblog4cpp.so.5:_ZN7log4cpp8Category19_logUnconditionallyEiPKcP13__va_list_tag
liblog4cpp.so.5:_ZN7log4cpp8Category20_logUnconditionally2EiRKNSt7__cxx1112basic_stringIcSt11char_traitsIcESaIcEEE
liblog4cpp.so.5:_ZN7log4cpp8Category20getCurrentCategoriesEv
liblog4cpp.so.5:_ZN7log4cpp8Category3logEiPKcz
liblog4cpp.so.5:_ZN7log4cpp8Category3logEiRKNSt7__cxx1112basic_stringIcSt11char_traitsIcESaIcEEE
liblog4cpp.so.5:_ZN7log4cpp8Category4critEPKcz
liblog4cpp.so.5:_ZN7log4cpp8Category4critERKNSt7__cxx1112basic_stringIcSt11char_traitsIcESaIcEEE
liblog4cpp.so.5:_ZN7log4cpp8Category4infoEPKcz
liblog4cpp.so.5:_ZN7log4cpp8Category4infoERKNSt7__cxx1112basic_stringIcSt11char_traitsIcESaIcEEE
liblog4cpp.so.5:_ZN7log4cpp8Category4warnEPKcz
liblog4cpp.so.5:_ZN7log4cpp8Category4warnERKNSt7__cxx1112basic_stringIcSt11char_traitsIcESaIcEEE
liblog4cpp.so.5:_ZN7log4cpp8Category5alertEPKcz
liblog4cpp.so.5:_ZN7log4cpp8Category5alertERKNSt7__cxx1112basic_stringIcSt11char_traitsIcESaIcEEE
liblog4cpp.so.5:_ZN7log4cpp8Category5debugEPKcz
liblog4cpp.so.5:_ZN7log4cpp8Category5debugERKNSt7__cxx1112basic_stringIcSt11char_traitsIcESaIcEEE
liblog4cpp.so.5:_ZN7log4cpp8Category5emergEPKcz
liblog4cpp.so.5:_ZN7log4cpp8Category5emergERKNSt7__cxx1112basic_stringIcSt11char_traitsIcESaIcEEE
liblog4cpp.so.5:_ZN7log4cpp8Category5errorEPKcz
liblog4cpp.so.5:_ZN7log4cpp8Category5errorERKNSt7__cxx1112basic_stringIcSt11char_traitsIcESaIcEEE
liblog4cpp.so.5:_ZN7log4cpp8Category5fatalEPKcz
liblog4cpp.so.5:_ZN7log4cpp8Category5fatalERKNSt7__cxx1112basic_stringIcSt11char_traitsIcESaIcEEE
liblog4cpp.so.5:_ZN7log4cpp8Category5logvaEiPKcP13__va_list_tag
liblog4cpp.so.5:_ZN7log4cpp8Category6existsERKNSt7__cxx1112basic_stringIcSt11char_traitsIcESaIcEEE
liblog4cpp.so.5:_ZN7log4cpp8Category6noticeEPKcz
liblog4cpp.so.5:_ZN7log4cpp8Category6noticeERKNSt7__cxx1112basic_stringIcSt11char_traitsIcESaIcEEE
liblog4cpp.so.5:_ZN7log4cpp8Category7getRootEv
liblog4cpp.so.5:_ZN7log4cpp8Category8shutdownEv
liblog4cpp.so.5:_ZN7log4cpp8Category9getParentEv
liblog4cpp.so.5:_ZN7log4cpp8Category9getStreamEi
liblog4cpp.so.5:_ZN7log4cpp8CategoryC1ERKNSt7__cxx1112basic_stringIcSt11char_traitsIcESaIcEEEPS0_i
liblog4cpp.so.5:_ZN7log4cpp8CategoryC2ERKNSt7__cxx1112basic_stringIcSt11char_traitsIcESaIcEEEPS0_i
liblog4cpp.so.5:_ZN7log4cpp8CategoryD0Ev
liblog4cpp.so.5:_ZN7log4cpp8CategoryD1Ev
liblog4cpp.so.5:_ZN7log4cpp8CategoryD2Ev
liblog4cpp.so.5:_ZN7log4cpp8CategorylsEi
liblog4cpp.so.5:_ZN7log4cpp8Priority12MESSAGE_SIZEE
liblog4cpp.so.5:_ZN7log4cpp8Priority15getPriorityNameB5cxx11Ei
liblog4cpp.so.5:_ZN7log4cpp8Priority16getPriorityValueERKNSt7__cxx1112basic_stringIcSt11char_traitsIcESaIcEEE
liblog4cpp.so.5:_ZN7log4cpp9TimeStamp11_startStampE
liblog4cpp.so.5:_ZN7log4cpp9TimeStampC1Ejj
liblog4cpp.so.5:_ZN7log4cpp9TimeStampC1Ev
liblog4cpp.so.5:_ZN7log4cpp9TimeStampC2Ejj
liblog4cpp.so.5:_ZN7log4cpp9TimeStampC2Ev
liblog4cpp.so.5:_ZN7log4cpp9localtimeEPKlP2tm
liblog4cpp.so.5:_ZN7log4cpp9threading11getThreadIdB5cxx11Ev
liblog4cpp.so.5:_ZNK7log4cpp12FileAppender7getModeEv
liblog4cpp.so.5:_ZNK7log4cpp12FileAppender9getAppendEv
liblog4cpp.so.5:_ZNK7log4cpp13AbortAppender14requiresLayoutEv
liblog4cpp.so.5:_ZNK7log4cpp13FactoryParams4findERKNSt7__cxx1112basic_stringIcSt11char_traitsIcESaIcEEE
liblog4cpp.so.5:_ZNK7log4cpp13FactoryParamsixERKNSt7__cxx1112basic_stringIcSt11char_traitsIcESaIcEEE
liblog4cpp.so.5:_ZNK7log4cpp13PatternLayout20getConversionPatternB5cxx11Ev
liblog4cpp.so.5:_ZNK7log4cpp14LayoutAppender14requiresLayoutEv
liblog4cpp.so.5:_ZNK7log4cpp14LayoutsFactory8registedERKNSt7__cxx1112basic_stringIcSt11char_traitsIcESaIcEEE
liblog4cpp.so.5:_ZNK7log4cpp16AppendersFactory10registeredERKNSt7__cxx1112basic_stringIcSt11char_traitsIcESaIcEEE
liblog4cpp.so.5:_ZNK7log4cpp19HierarchyMaintainer20getCurrentCategoriesEv
liblog4cpp.so.5:_ZNK7log4cpp19RollingFileAppender14getMaxFileSizeEv
liblog4cpp.so.5:_ZNK7log4cpp19RollingFileAppender17getMaxBackupIndexEv
liblog4cpp.so.5:_ZNK7log4cpp19StringQueueAppender8getQueueB5cxx11Ev
liblog4cpp.so.5:_ZNK7log4cpp19StringQueueAppender9queueSizeEv
liblog4cpp.so.5:_ZNK7log4cpp20FixedContextCategory10getContextB5cxx11Ev
liblog4cpp.so.5:_ZNK7log4cpp20FixedContextCategory11getAppenderERKNSt7__cxx1112basic_stringIcSt11char_traitsIcESaIcEEE
liblog4cpp.so.5:_ZNK7log4cpp20FixedContextCategory11getAppenderEv
liblog4cpp.so.5:_ZNK7log4cpp20FixedContextCategory11getPriorityEv
liblog4cpp.so.5:_ZNK7log4cpp20FixedContextCategory12ownsAppenderEPNS_8AppenderE
liblog4cpp.so.5:_ZNK7log4cpp20FixedContextCategory12ownsAppenderEv
liblog4cpp.so.5:_ZNK7log4cpp20FixedContextCategory13getAdditivityEv
liblog4cpp.so.5:_ZNK7log4cpp20FixedContextCategory15getAllAppendersEv
liblog4cpp.so.5:_ZNK7log4cpp20FixedContextCategory18getChainedPriorityEv
liblog4cpp.so.5:_ZNK7log4cpp24DailyRollingFileAppender16getMaxDaysToKeepEv
liblog4cpp.so.5:_ZNK7log4cpp24PropertyConfiguratorImpl13getCategoriesERSt6vectorINSt7__cxx1112basic_stringIcSt11char_traitsIcESaIcEEESaIS7_EE
liblog4cpp.so.5:_ZNK7log4cpp31TriggeringEventEvaluatorFactory10registeredERKNSt7__cxx1112basic_stringIcSt11char_traitsIcESaIcEEE
liblog4cpp.so.5:_ZNK7log4cpp3NDC4_getB5cxx11Ev
liblog4cpp.so.5:_ZNK7log4cpp3NDC9_getDepthEv
liblog4cpp.so.5:_ZNK7log4cpp8Category11getAppenderERKNSt7__cxx1112basic_stringIcSt11char_traitsIcESaIcEEE
liblog4cpp.so.5:_ZNK7log4cpp8Category11getAppenderEv
liblog4cpp.so.5:_ZNK7log4cpp8Category11getPriorityEv
liblog4cpp.so.5:_ZNK7log4cpp8Category12ownsAppenderEPNS_8AppenderE
liblog4cpp.so.5:_ZNK7log4cpp8Category13getAdditivityEv
liblog4cpp.so.5:_ZNK7log4cpp8Category15getAllAppendersEv
liblog4cpp.so.5:_ZNK7log4cpp8Category17isPriorityEnabledEi
liblog4cpp.so.5:_ZNK7log4cpp8Category18getChainedPriorityEv
liblog4cpp.so.5:_ZNK7log4cpp8Category7getNameB5cxx11Ev
liblog4cpp.so.5:_ZNK7log4cpp8Category9getParentEv
