KIconEnginePlugin.so:_ZTI11KIconEngine
KIconEnginePlugin.so:_ZTS11KIconEngine
KIconEnginePlugin.so:_ZTV11KIconEngine
KIconEnginePlugin.so:qt_plugin_instance
KIconEnginePlugin.so:qt_plugin_query_metadata
kiconthemes5widgets.so:qt_plugin_instance
kiconthemes5widgets.so:qt_plugin_query_metadata
libKF5IconThemes.so.5:_Z10BarIconSetRK7QStringi
libKF5IconThemes.so.5:_Z11DesktopIconRK7QStringiiRK11QStringList
libKF5IconThemes.so.5:_Z11MainBarIconRK7QStringiiRK11QStringList
libKF5IconThemes.so.5:_Z11UserIconSetRK7QString
libKF5IconThemes.so.5:_Z12SmallIconSetRK7QStringi
libKF5IconThemes.so.5:_Z14DesktopIconSetRK7QStringi
libKF5IconThemes.so.5:_Z14MainBarIconSetRK7QStringi
libKF5IconThemes.so.5:_Z7BarIconRK7QStringiiRK11QStringList
libKF5IconThemes.so.5:_Z8IconSizeN11KIconLoader5GroupE
libKF5IconThemes.so.5:_Z8UserIconRK7QStringiRK11QStringList
libKF5IconThemes.so.5:_Z9SmallIconRK7QStringiiRK11QStringList
libKF5IconThemes.so.5:_Z9uintToHexjP5QChar
libKF5IconThemes.so.5:_ZN10KIconTheme11reconfigureEv
libKF5IconThemes.so.5:_ZN10KIconTheme16defaultThemeNameEv
libKF5IconThemes.so.5:_ZN10KIconTheme18forceThemeForTestsERK7QString
libKF5IconThemes.so.5:_ZN10KIconTheme24assignIconsToContextMenuENS_12ContextMenusE5QListIP7QActionE
libKF5IconThemes.so.5:_ZN10KIconTheme4listEv
libKF5IconThemes.so.5:_ZN10KIconTheme7currentEv
libKF5IconThemes.so.5:_ZN10KIconThemeC1ERK7QStringS2_S2_
libKF5IconThemes.so.5:_ZN10KIconThemeC2ERK7QStringS2_S2_
libKF5IconThemes.so.5:_ZN10KIconThemeD1Ev
libKF5IconThemes.so.5:_ZN10KIconThemeD2Ev
libKF5IconThemes.so.5:_ZN11KIconButton11iconChangedERK7QString
libKF5IconThemes.so.5:_ZN11KIconButton11qt_metacallEN11QMetaObject4CallEiPPv
libKF5IconThemes.so.5:_ZN11KIconButton11qt_metacastEPKc
libKF5IconThemes.so.5:_ZN11KIconButton11setIconSizeEi
libKF5IconThemes.so.5:_ZN11KIconButton11setIconTypeEN11KIconLoader5GroupENS0_7ContextEb
libKF5IconThemes.so.5:_ZN11KIconButton16staticMetaObjectE
libKF5IconThemes.so.5:_ZN11KIconButton17setButtonIconSizeEi
libKF5IconThemes.so.5:_ZN11KIconButton17setStrictIconSizeEb
libKF5IconThemes.so.5:_ZN11KIconButton7setIconERK5QIcon
libKF5IconThemes.so.5:_ZN11KIconButton7setIconERK7QString
libKF5IconThemes.so.5:_ZN11KIconButton9resetIconEv
libKF5IconThemes.so.5:_ZN11KIconButtonC1EP11KIconLoaderP7QWidget
libKF5IconThemes.so.5:_ZN11KIconButtonC1EP7QWidget
libKF5IconThemes.so.5:_ZN11KIconButtonC2EP11KIconLoaderP7QWidget
libKF5IconThemes.so.5:_ZN11KIconButtonC2EP7QWidget
libKF5IconThemes.so.5:_ZN11KIconButtonD0Ev
libKF5IconThemes.so.5:_ZN11KIconButtonD1Ev
libKF5IconThemes.so.5:_ZN11KIconButtonD2Ev
libKF5IconThemes.so.5:_ZN11KIconDialog10openDialogEv
libKF5IconThemes.so.5:_ZN11KIconDialog10showDialogEv
libKF5IconThemes.so.5:_ZN11KIconDialog11newIconNameERK7QString
libKF5IconThemes.so.5:_ZN11KIconDialog11qt_metacallEN11QMetaObject4CallEiPPv
libKF5IconThemes.so.5:_ZN11KIconDialog11qt_metacastEPKc
libKF5IconThemes.so.5:_ZN11KIconDialog11setIconSizeEi
libKF5IconThemes.so.5:_ZN11KIconDialog16staticMetaObjectE
libKF5IconThemes.so.5:_ZN11KIconDialog17setCustomLocationERK7QString
libKF5IconThemes.so.5:_ZN11KIconDialog17setStrictIconSizeEb
libKF5IconThemes.so.5:_ZN11KIconDialog5setupEN11KIconLoader5GroupENS0_7ContextEbibbb
libKF5IconThemes.so.5:_ZN11KIconDialog6slotOkEv
libKF5IconThemes.so.5:_ZN11KIconDialog7getIconEN11KIconLoader5GroupENS0_7ContextEbibP7QWidgetRK7QString
libKF5IconThemes.so.5:_ZN11KIconDialogC1EP11KIconLoaderP7QWidget
libKF5IconThemes.so.5:_ZN11KIconDialogC1EP7QWidget
libKF5IconThemes.so.5:_ZN11KIconDialogC2EP11KIconLoaderP7QWidget
libKF5IconThemes.so.5:_ZN11KIconDialogC2EP7QWidget
libKF5IconThemes.so.5:_ZN11KIconDialogD0Ev
libKF5IconThemes.so.5:_ZN11KIconDialogD1Ev
libKF5IconThemes.so.5:_ZN11KIconDialogD2Ev
libKF5IconThemes.so.5:_ZN11KIconEffect10deSaturateER6QImagef
libKF5IconThemes.so.5:_ZN11KIconEffect12toMonochromeER6QImageRK6QColorS4_f
libKF5IconThemes.so.5:_ZN11KIconEffect15semiTransparentER6QImage
libKF5IconThemes.so.5:_ZN11KIconEffect15semiTransparentER7QPixmap
libKF5IconThemes.so.5:_ZN11KIconEffect4initEv
libKF5IconThemes.so.5:_ZN11KIconEffect6toGrayER6QImagef
libKF5IconThemes.so.5:_ZN11KIconEffect7overlayER6QImageS1_
libKF5IconThemes.so.5:_ZN11KIconEffect7toGammaER6QImagef
libKF5IconThemes.so.5:_ZN11KIconEffect8colorizeER6QImageRK6QColorf
libKF5IconThemes.so.5:_ZN11KIconEffectC1Ev
libKF5IconThemes.so.5:_ZN11KIconEffectC2Ev
libKF5IconThemes.so.5:_ZN11KIconEffectD1Ev
libKF5IconThemes.so.5:_ZN11KIconEffectD2Ev
libKF5IconThemes.so.5:_ZN11KIconEngine10actualSizeERK5QSizeN5QIcon4ModeENS3_5StateE
libKF5IconThemes.so.5:_ZN11KIconEngine12createPixmapERK5QSizedN5QIcon4ModeENS3_5StateE
libKF5IconThemes.so.5:_ZN11KIconEngine12virtual_hookEiPv
libKF5IconThemes.so.5:_ZN11KIconEngine4readER11QDataStream
libKF5IconThemes.so.5:_ZN11KIconEngine5paintEP8QPainterRK5QRectN5QIcon4ModeENS5_5StateE
libKF5IconThemes.so.5:_ZN11KIconEngine6pixmapERK5QSizeN5QIcon4ModeENS3_5StateE
libKF5IconThemes.so.5:_ZN11KIconEngineC1ERK7QStringP11KIconLoader
libKF5IconThemes.so.5:_ZN11KIconEngineC1ERK7QStringP11KIconLoaderRK11QStringList
libKF5IconThemes.so.5:_ZN11KIconEngineC2ERK7QStringP11KIconLoader
libKF5IconThemes.so.5:_ZN11KIconEngineC2ERK7QStringP11KIconLoaderRK11QStringList
libKF5IconThemes.so.5:_ZN11KIconLoader10emitChangeENS_5GroupE
libKF5IconThemes.so.5:_ZN11KIconLoader11iconChangedEi
libKF5IconThemes.so.5:_ZN11KIconLoader11loadIconSetERK7QStringNS_5GroupEib
libKF5IconThemes.so.5:_ZN11KIconLoader11qt_metacallEN11QMetaObject4CallEiPPv
libKF5IconThemes.so.5:_ZN11KIconLoader11qt_metacastEPKc
libKF5IconThemes.so.5:_ZN11KIconLoader11reconfigureERK7QStringRK11QStringList
libKF5IconThemes.so.5:_ZN11KIconLoader12resetPaletteEv
libKF5IconThemes.so.5:_ZN11KIconLoader13newIconLoaderEv
libKF5IconThemes.so.5:_ZN11KIconLoader16setCustomPaletteERK8QPalette
libKF5IconThemes.so.5:_ZN11KIconLoader16staticMetaObjectE
libKF5IconThemes.so.5:_ZN11KIconLoader25iconLoaderSettingsChangedEv
libKF5IconThemes.so.5:_ZN11KIconLoader6globalEv
libKF5IconThemes.so.5:_ZN11KIconLoader7unknownEv
libKF5IconThemes.so.5:_ZN11KIconLoader9addAppDirERK7QStringS2_
libKF5IconThemes.so.5:_ZN11KIconLoaderC1ERK7QStringRK11QStringListP7QObject
libKF5IconThemes.so.5:_ZN11KIconLoaderC2ERK7QStringRK11QStringListP7QObject
libKF5IconThemes.so.5:_ZN11KIconLoaderD0Ev
libKF5IconThemes.so.5:_ZN11KIconLoaderD1Ev
libKF5IconThemes.so.5:_ZN11KIconLoaderD2Ev
libKF5IconThemes.so.5:_ZN3KDE4iconERK7QStringP11KIconLoader
libKF5IconThemes.so.5:_ZN3KDE4iconERK7QStringRK11QStringListP11KIconLoader
libKF5IconThemes.so.5:_ZNK10KIconTheme10hasContextEN11KIconLoader7ContextE
libKF5IconThemes.so.5:_ZNK10KIconTheme10queryIconsEiN11KIconLoader7ContextE
libKF5IconThemes.so.5:_ZNK10KIconTheme10querySizesEN11KIconLoader5GroupE
libKF5IconThemes.so.5:_ZNK10KIconTheme10screenshotEv
libKF5IconThemes.so.5:_ZNK10KIconTheme11defaultSizeEN11KIconLoader5GroupE
libKF5IconThemes.so.5:_ZNK10KIconTheme11descriptionEv
libKF5IconThemes.so.5:_ZNK10KIconTheme12internalNameEv
libKF5IconThemes.so.5:_ZNK10KIconTheme14iconPathByNameERK7QStringiN11KIconLoader9MatchTypeE
libKF5IconThemes.so.5:_ZNK10KIconTheme14iconPathByNameERK7QStringiN11KIconLoader9MatchTypeEd
libKF5IconThemes.so.5:_ZNK10KIconTheme18followsColorSchemeEv
libKF5IconThemes.so.5:_ZNK10KIconTheme19queryIconsByContextEiN11KIconLoader7ContextE
libKF5IconThemes.so.5:_ZNK10KIconTheme3dirEv
libKF5IconThemes.so.5:_ZNK10KIconTheme4nameEv
libKF5IconThemes.so.5:_ZNK10KIconTheme5depthEv
libKF5IconThemes.so.5:_ZNK10KIconTheme7exampleEv
libKF5IconThemes.so.5:_ZNK10KIconTheme7isValidEv
libKF5IconThemes.so.5:_ZNK10KIconTheme8iconPathERK7QStringiN11KIconLoader9MatchTypeE
libKF5IconThemes.so.5:_ZNK10KIconTheme8iconPathERK7QStringiN11KIconLoader9MatchTypeEd
libKF5IconThemes.so.5:_ZNK10KIconTheme8inheritsEv
libKF5IconThemes.so.5:_ZNK10KIconTheme8isHiddenEv
libKF5IconThemes.so.5:_ZNK11KIconButton10metaObjectEv
libKF5IconThemes.so.5:_ZNK11KIconButton14buttonIconSizeEv
libKF5IconThemes.so.5:_ZNK11KIconButton14strictIconSizeEv
libKF5IconThemes.so.5:_ZNK11KIconButton4iconEv
libKF5IconThemes.so.5:_ZNK11KIconButton8iconSizeEv
libKF5IconThemes.so.5:_ZNK11KIconDialog10metaObjectEv
libKF5IconThemes.so.5:_ZNK11KIconDialog14strictIconSizeEv
libKF5IconThemes.so.5:_ZNK11KIconDialog8iconSizeEv
libKF5IconThemes.so.5:_ZNK11KIconEffect11fingerprintEii
libKF5IconThemes.so.5:_ZNK11KIconEffect12doublePixelsERK6QImage
libKF5IconThemes.so.5:_ZNK11KIconEffect5applyERK6QImageifRK6QColorS5_b
libKF5IconThemes.so.5:_ZNK11KIconEffect5applyERK6QImageifRK6QColorb
libKF5IconThemes.so.5:_ZNK11KIconEffect5applyERK6QImageii
libKF5IconThemes.so.5:_ZNK11KIconEffect5applyERK7QPixmapifRK6QColorS5_b
libKF5IconThemes.so.5:_ZNK11KIconEffect5applyERK7QPixmapifRK6QColorb
libKF5IconThemes.so.5:_ZNK11KIconEffect5applyERK7QPixmapii
libKF5IconThemes.so.5:_ZNK11KIconEffect9hasEffectEii
libKF5IconThemes.so.5:_ZNK11KIconEngine14availableSizesEN5QIcon4ModeENS0_5StateE
libKF5IconThemes.so.5:_ZNK11KIconEngine3keyEv
libKF5IconThemes.so.5:_ZNK11KIconEngine5cloneEv
libKF5IconThemes.so.5:_ZNK11KIconEngine5writeER11QDataStream
libKF5IconThemes.so.5:_ZNK11KIconEngine8iconNameEv
libKF5IconThemes.so.5:_ZNK11KIconLoader10hasContextENS_7ContextE
libKF5IconThemes.so.5:_ZNK11KIconLoader10iconEffectEv
libKF5IconThemes.so.5:_ZNK11KIconLoader10metaObjectEv
libKF5IconThemes.so.5:_ZNK11KIconLoader10queryIconsEiNS_7ContextE
libKF5IconThemes.so.5:_ZNK11KIconLoader11currentSizeENS_5GroupE
libKF5IconThemes.so.5:_ZNK11KIconLoader11searchPathsEv
libKF5IconThemes.so.5:_ZNK11KIconLoader12drawOverlaysERK11QStringListR7QPixmapNS_5GroupEi
libKF5IconThemes.so.5:_ZNK11KIconLoader12loadAnimatedERK7QStringNS_5GroupEi
libKF5IconThemes.so.5:_ZNK11KIconLoader13alphaBlendingENS_5GroupE
libKF5IconThemes.so.5:_ZNK11KIconLoader13customPaletteEv
libKF5IconThemes.so.5:_ZNK11KIconLoader14loadScaledIconERK7QStringNS_5GroupEdRK5QSizeiRK11QStringListPS0_b
libKF5IconThemes.so.5:_ZNK11KIconLoader14loadScaledIconERK7QStringNS_5GroupEdiiRK11QStringListPS0_b
libKF5IconThemes.so.5:_ZNK11KIconLoader15queryIconsByDirERK7QString
libKF5IconThemes.so.5:_ZNK11KIconLoader16loadMimeTypeIconERK7QStringNS_5GroupEiiRK11QStringListPS0_
libKF5IconThemes.so.5:_ZNK11KIconLoader18loadPixmapSequenceERK7QStringi
libKF5IconThemes.so.5:_ZNK11KIconLoader19queryIconsByContextEiNS_7ContextE
libKF5IconThemes.so.5:_ZNK11KIconLoader5themeEv
libKF5IconThemes.so.5:_ZNK11KIconLoader7hasIconERK7QString
libKF5IconThemes.so.5:_ZNK11KIconLoader8iconPathERK7QStringib
libKF5IconThemes.so.5:_ZNK11KIconLoader8iconPathERK7QStringibd
libKF5IconThemes.so.5:_ZNK11KIconLoader8loadIconERK7QStringNS_5GroupEiiRK11QStringListPS0_b
libKF5IconThemes.so.5:_ZNK11KIconLoader9loadMovieERK7QStringNS_5GroupEiP7QObject
libKF5IconThemes.so.5:_ZNK11KIconLoader9moviePathERK7QStringNS_5GroupEi
libKF5IconThemes.so.5:_ZTI11KIconButton
libKF5IconThemes.so.5:_ZTI11KIconDialog
libKF5IconThemes.so.5:_ZTI11KIconEngine
libKF5IconThemes.so.5:_ZTI11KIconLoader
libKF5IconThemes.so.5:_ZTS11KIconButton
libKF5IconThemes.so.5:_ZTS11KIconDialog
libKF5IconThemes.so.5:_ZTS11KIconEngine
libKF5IconThemes.so.5:_ZTS11KIconLoader
libKF5IconThemes.so.5:_ZTV11KIconButton
libKF5IconThemes.so.5:_ZTV11KIconDialog
libKF5IconThemes.so.5:_ZTV11KIconEngine
libKF5IconThemes.so.5:_ZTV11KIconLoader
libKF5IconThemes.so.5:_ZThn16_N11KIconButtonD0Ev
libKF5IconThemes.so.5:_ZThn16_N11KIconButtonD1Ev
libKF5IconThemes.so.5:_ZThn16_N11KIconDialogD0Ev
libKF5IconThemes.so.5:_ZThn16_N11KIconDialogD1Ev
libKF5IconThemes.so.5:kiconloader_ms_between_checks
