UNKNOWN:_ZN19KIdentityManagement15IdentityManagerC1EbP7QObjectPKc
UNKNOWN:_ZN7Akonadi16AttributeFactory17registerAttributeESt10unique_ptrINS_9AttributeESt14default_deleteIS2_EE
UNKNOWN:_ZN7Akonadi16AttributeFactory4selfEv
UNKNOWN:_ZN7Akonadi20ItemSerializerPlugin5applyERNS_4ItemERKS1_
UNKNOWN:_ZN7Akonadi20ItemSerializerPluginD2Ev
UNKNOWN:_ZN7Akonadi4Item11FullPayloadE
UNKNOWN:_ZN7Akonadi4Item11setMimeTypeERK7QString
UNKNOWN:_ZN7Akonadi4Item16setPayloadBaseV2EiiRSt10unique_ptrINS_8Internal11PayloadBaseESt14default_deleteIS3_EE
UNKNOWN:_ZN7Akonadi4Item9attributeERK10QByteArray
UNKNOWN:_ZN7Akonadi9AttributeD2Ev
UNKNOWN:_ZN9KCalUtils18IncidenceFormatter16recurrenceStringERK14QSharedPointerIN13KCalendarCore9IncidenceEE
UNKNOWN:_ZNK19KIdentityManagement15IdentityManager15identityForUoidEj
UNKNOWN:_ZNK19KIdentityManagement15IdentityManager3endEv
UNKNOWN:_ZNK19KIdentityManagement15IdentityManager5beginEv
UNKNOWN:_ZNK19KIdentityManagement8Identity12identityNameEv
UNKNOWN:_ZNK19KIdentityManagement8Identity4uoidEv
UNKNOWN:_ZNK19KIdentityManagement8Identity6isNullEv
UNKNOWN:_ZNK7Akonadi20ItemSerializerPlugin14availablePartsERKNS_4ItemE
UNKNOWN:_ZNK7Akonadi20ItemSerializerPlugin19allowedForeignPartsERKNS_4ItemE
UNKNOWN:_ZNK7Akonadi20ItemSerializerPlugin5partsERKNS_4ItemE
UNKNOWN:_ZNK7Akonadi4Item10hasPayloadEv
UNKNOWN:_ZNK7Akonadi4Item12hasAttributeERK10QByteArray
UNKNOWN:_ZNK7Akonadi4Item13payloadBaseV2Eii
UNKNOWN:_ZNK7Akonadi4Item16ensureMetaTypeIdEi
UNKNOWN:_ZNK7Akonadi4Item21throwPayloadExceptionEii
UNKNOWN:_ZNK7Akonadi4Item8revisionEv
UNKNOWN:_ZTIN7Akonadi20ItemSerializerPluginE
UNKNOWN:_ZTIN7Akonadi9AttributeE
UNKNOWN:_ZTIN9KAlarmCal14EventAttributeE
libKF5CalendarCore.so.5:_ZN13KCalendarCore10ICalFormat10fromStringEPNS_14RecurrenceRuleERK7QString
libKF5CalendarCore.so.5:_ZN13KCalendarCore10ICalFormat10fromStringERK7QString
libKF5CalendarCore.so.5:_ZN13KCalendarCore10ICalFormat8toStringERK14QSharedPointerINS_9IncidenceEE
libKF5CalendarCore.so.5:_ZN13KCalendarCore10ICalFormatC1Ev
libKF5CalendarCore.so.5:_ZN13KCalendarCore10ICalFormatD1Ev
libKF5CalendarCore.so.5:_ZN13KCalendarCore10Recurrence10setEndDateERK5QDate
libKF5CalendarCore.so.5:_ZN13KCalendarCore10Recurrence10setExDatesERK5QListI5QDateE
libKF5CalendarCore.so.5:_ZN13KCalendarCore10Recurrence10shiftTimesERK9QTimeZoneS3_
libKF5CalendarCore.so.5:_ZN13KCalendarCore10Recurrence11deleteRRuleEPNS_14RecurrenceRuleE
libKF5CalendarCore.so.5:_ZN13KCalendarCore10Recurrence11setDurationEi
libKF5CalendarCore.so.5:_ZN13KCalendarCore10Recurrence11setMinutelyEi
libKF5CalendarCore.so.5:_ZN13KCalendarCore10Recurrence11unsetRecursEv
libKF5CalendarCore.so.5:_ZN13KCalendarCore10Recurrence12addYearlyDayEi
libKF5CalendarCore.so.5:_ZN13KCalendarCore10Recurrence12addYearlyPosEsRK9QBitArray
libKF5CalendarCore.so.5:_ZN13KCalendarCore10Recurrence12setFrequencyEi
libKF5CalendarCore.so.5:_ZN13KCalendarCore10Recurrence13addExDateTimeERK9QDateTime
libKF5CalendarCore.so.5:_ZN13KCalendarCore10Recurrence13addMonthlyPosEsRK9QBitArray
libKF5CalendarCore.so.5:_ZN13KCalendarCore10Recurrence13addMonthlyPosEst
libKF5CalendarCore.so.5:_ZN13KCalendarCore10Recurrence13addWeeklyDaysERK9QBitArray
libKF5CalendarCore.so.5:_ZN13KCalendarCore10Recurrence13addYearlyDateEi
libKF5CalendarCore.so.5:_ZN13KCalendarCore10Recurrence14addMonthlyDateEs
libKF5CalendarCore.so.5:_ZN13KCalendarCore10Recurrence14addYearlyMonthEs
libKF5CalendarCore.so.5:_ZN13KCalendarCore10Recurrence14recurrenceTypeEPKNS_14RecurrenceRuleE
libKF5CalendarCore.so.5:_ZN13KCalendarCore10Recurrence14setEndDateTimeERK9QDateTime
libKF5CalendarCore.so.5:_ZN13KCalendarCore10Recurrence14setExDateTimesERK5QListI9QDateTimeE
libKF5CalendarCore.so.5:_ZN13KCalendarCore10Recurrence16setRecurReadOnlyEb
libKF5CalendarCore.so.5:_ZN13KCalendarCore10Recurrence16setStartDateTimeERK9QDateTimeb
libKF5CalendarCore.so.5:_ZN13KCalendarCore10Recurrence17recurrenceChangedEPNS_14RecurrenceRuleE
libKF5CalendarCore.so.5:_ZN13KCalendarCore10Recurrence20setNewRecurrenceTypeENS_14RecurrenceRule10PeriodTypeEi
libKF5CalendarCore.so.5:_ZN13KCalendarCore10Recurrence5clearEv
libKF5CalendarCore.so.5:_ZN13KCalendarCore10Recurrence8addRRuleEPNS_14RecurrenceRuleE
libKF5CalendarCore.so.5:_ZN13KCalendarCore10Recurrence8setDailyEi
libKF5CalendarCore.so.5:_ZN13KCalendarCore10Recurrence9addExDateERK5QDate
libKF5CalendarCore.so.5:_ZN13KCalendarCore10Recurrence9setAllDayEb
libKF5CalendarCore.so.5:_ZN13KCalendarCore10RecurrenceC1Ev
libKF5CalendarCore.so.5:_ZN13KCalendarCore10RecurrenceC2ERKS0_
libKF5CalendarCore.so.5:_ZN13KCalendarCore10RecurrenceC2Ev
libKF5CalendarCore.so.5:_ZN13KCalendarCore10RecurrenceD1Ev
libKF5CalendarCore.so.5:_ZN13KCalendarCore10RecurrenceD2Ev
libKF5CalendarCore.so.5:_ZN13KCalendarCore13IncidenceBase10endUpdatesEv
libKF5CalendarCore.so.5:_ZN13KCalendarCore13IncidenceBase12startUpdatesEv
libKF5CalendarCore.so.5:_ZN13KCalendarCore13IncidenceBase6setUidERK7QString
libKF5CalendarCore.so.5:_ZN13KCalendarCore14RecurrenceRule10setStartDtERK9QDateTime
libKF5CalendarCore.so.5:_ZN13KCalendarCore14RecurrenceRule11setByMonthsERK5QListIiE
libKF5CalendarCore.so.5:_ZN13KCalendarCore14RecurrenceRule11setDurationEi
libKF5CalendarCore.so.5:_ZN13KCalendarCore14RecurrenceRule12setFrequencyEi
libKF5CalendarCore.so.5:_ZN13KCalendarCore14RecurrenceRule13setByYearDaysERK5QListIiE
libKF5CalendarCore.so.5:_ZN13KCalendarCore14RecurrenceRule14setByMonthDaysERK5QListIiE
libKF5CalendarCore.so.5:_ZN13KCalendarCore14RecurrenceRule17setRecurrenceTypeENS0_10PeriodTypeE
libKF5CalendarCore.so.5:_ZN13KCalendarCore14RecurrenceRule8setEndDtERK9QDateTime
libKF5CalendarCore.so.5:_ZN13KCalendarCore14RecurrenceRule9setAllDayEb
libKF5CalendarCore.so.5:_ZN13KCalendarCore14RecurrenceRule9setByDaysERK5QListINS0_7WDayPosEE
libKF5CalendarCore.so.5:_ZN13KCalendarCore14RecurrenceRuleC1ERKS0_
libKF5CalendarCore.so.5:_ZN13KCalendarCore14RecurrenceRuleC1Ev
libKF5CalendarCore.so.5:_ZN13KCalendarCore14RecurrenceRuleD1Ev
libKF5CalendarCore.so.5:_ZN13KCalendarCore16CustomProperties17setCustomPropertyERK10QByteArrayS3_RK7QString
libKF5CalendarCore.so.5:_ZN13KCalendarCore16CustomProperties19setCustomPropertiesERK4QMapI10QByteArray7QStringE
libKF5CalendarCore.so.5:_ZN13KCalendarCore16CustomProperties20removeCustomPropertyERK10QByteArrayS3_
libKF5CalendarCore.so.5:_ZN13KCalendarCore5Alarm10setEnabledEb
libKF5CalendarCore.so.5:_ZN13KCalendarCore5Alarm13setAudioAlarmERK7QString
libKF5CalendarCore.so.5:_ZN13KCalendarCore5Alarm13setEmailAlarmERK7QStringS3_RK7QVectorINS_6PersonEERK11QStringList
libKF5CalendarCore.so.5:_ZN13KCalendarCore5Alarm13setSnoozeTimeERKNS_8DurationE
libKF5CalendarCore.so.5:_ZN13KCalendarCore5Alarm14setRepeatCountEi
libKF5CalendarCore.so.5:_ZN13KCalendarCore5Alarm14setStartOffsetERKNS_8DurationE
libKF5CalendarCore.so.5:_ZN13KCalendarCore5Alarm15setDisplayAlarmERK7QString
libKF5CalendarCore.so.5:_ZN13KCalendarCore5Alarm17setProcedureAlarmERK7QStringS3_
libKF5CalendarCore.so.5:_ZN13KCalendarCore5Alarm7setTimeERK9QDateTime
libKF5CalendarCore.so.5:_ZN13KCalendarCore5Event15setTransparencyENS0_12TransparencyE
libKF5CalendarCore.so.5:_ZN13KCalendarCore5Event8setDtEndERK9QDateTime
libKF5CalendarCore.so.5:_ZN13KCalendarCore5EventC1Ev
libKF5CalendarCore.so.5:_ZN13KCalendarCore6PersonC1ERKS0_
libKF5CalendarCore.so.5:_ZN13KCalendarCore6PersonD1Ev
libKF5CalendarCore.so.5:_ZN13KCalendarCore8DurationC1ERKS0_
libKF5CalendarCore.so.5:_ZN13KCalendarCore8DurationC1EiNS0_4TypeE
libKF5CalendarCore.so.5:_ZN13KCalendarCore8DurationC1Ev
libKF5CalendarCore.so.5:_ZN13KCalendarCore8DurationD1Ev
libKF5CalendarCore.so.5:_ZN13KCalendarCore8DurationaSERKS0_
libKF5CalendarCore.so.5:_ZN13KCalendarCore8DurationmLEi
libKF5CalendarCore.so.5:_ZN13KCalendarCore9Incidence10setCreatedERK9QDateTime
libKF5CalendarCore.so.5:_ZN13KCalendarCore9Incidence10setSummaryERK7QString
libKF5CalendarCore.so.5:_ZN13KCalendarCore9Incidence11clearAlarmsEv
libKF5CalendarCore.so.5:_ZN13KCalendarCore9Incidence11setRevisionEi
libKF5CalendarCore.so.5:_ZN13KCalendarCore9Incidence13setCategoriesERK11QStringList
libKF5CalendarCore.so.5:_ZN13KCalendarCore9Incidence15clearRecurrenceEv
libKF5CalendarCore.so.5:_ZN13KCalendarCore9Incidence15setCustomStatusERK7QString
libKF5CalendarCore.so.5:_ZN13KCalendarCore9Incidence8newAlarmEv
libKF5CalendarCore.so.5:_ZNK13KCalendarCore10CalStorage8calendarEv
libKF5CalendarCore.so.5:_ZNK13KCalendarCore10Recurrence10durationToERK5QDate
libKF5CalendarCore.so.5:_ZNK13KCalendarCore10Recurrence10durationToERK9QDateTime
libKF5CalendarCore.so.5:_ZNK13KCalendarCore10Recurrence10rDateTimesEv
libKF5CalendarCore.so.5:_ZNK13KCalendarCore10Recurrence10yearMonthsEv
libKF5CalendarCore.so.5:_ZNK13KCalendarCore10Recurrence11endDateTimeEv
libKF5CalendarCore.so.5:_ZNK13KCalendarCore10Recurrence11exDateTimesEv
libKF5CalendarCore.so.5:_ZNK13KCalendarCore10Recurrence12defaultRRuleEb
libKF5CalendarCore.so.5:_ZNK13KCalendarCore10Recurrence12recurTimesOnERK5QDateRK9QTimeZone
libKF5CalendarCore.so.5:_ZNK13KCalendarCore10Recurrence13recurReadOnlyEv
libKF5CalendarCore.so.5:_ZNK13KCalendarCore10Recurrence13startDateTimeEv
libKF5CalendarCore.so.5:_ZNK13KCalendarCore10Recurrence13yearPositionsEv
libKF5CalendarCore.so.5:_ZNK13KCalendarCore10Recurrence14monthPositionsEv
libKF5CalendarCore.so.5:_ZNK13KCalendarCore10Recurrence15getNextDateTimeERK9QDateTime
libKF5CalendarCore.so.5:_ZNK13KCalendarCore10Recurrence15timesInIntervalERK9QDateTimeS3_
libKF5CalendarCore.so.5:_ZNK13KCalendarCore10Recurrence17defaultRRuleConstEv
libKF5CalendarCore.so.5:_ZNK13KCalendarCore10Recurrence19getPreviousDateTimeERK9QDateTime
libKF5CalendarCore.so.5:_ZNK13KCalendarCore10Recurrence4daysEv
libKF5CalendarCore.so.5:_ZNK13KCalendarCore10Recurrence6allDayEv
libKF5CalendarCore.so.5:_ZNK13KCalendarCore10Recurrence6rDatesEv
libKF5CalendarCore.so.5:_ZNK13KCalendarCore10Recurrence6rRulesEv
libKF5CalendarCore.so.5:_ZNK13KCalendarCore10Recurrence6recursEv
libKF5CalendarCore.so.5:_ZNK13KCalendarCore10Recurrence7endDateEv
libKF5CalendarCore.so.5:_ZNK13KCalendarCore10Recurrence7exDatesEv
libKF5CalendarCore.so.5:_ZNK13KCalendarCore10Recurrence8durationEv
libKF5CalendarCore.so.5:_ZNK13KCalendarCore10Recurrence8recursAtERK9QDateTime
libKF5CalendarCore.so.5:_ZNK13KCalendarCore10Recurrence8recursOnERK5QDateRK9QTimeZone
libKF5CalendarCore.so.5:_ZNK13KCalendarCore10Recurrence8yearDaysEv
libKF5CalendarCore.so.5:_ZNK13KCalendarCore10Recurrence9frequencyEv
libKF5CalendarCore.so.5:_ZNK13KCalendarCore10Recurrence9monthDaysEv
libKF5CalendarCore.so.5:_ZNK13KCalendarCore10Recurrence9startDateEv
libKF5CalendarCore.so.5:_ZNK13KCalendarCore10Recurrence9yearDatesEv
libKF5CalendarCore.so.5:_ZNK13KCalendarCore10RecurrenceeqERKS0_
libKF5CalendarCore.so.5:_ZNK13KCalendarCore11FileStorage8fileNameEv
libKF5CalendarCore.so.5:_ZNK13KCalendarCore13IncidenceBase10isReadOnlyEv
libKF5CalendarCore.so.5:_ZNK13KCalendarCore13IncidenceBase3uidEv
libKF5CalendarCore.so.5:_ZNK13KCalendarCore13IncidenceBase6allDayEv
libKF5CalendarCore.so.5:_ZNK13KCalendarCore14RecurrenceRule10byYearDaysEv
libKF5CalendarCore.so.5:_ZNK13KCalendarCore14RecurrenceRule10durationToERK5QDate
libKF5CalendarCore.so.5:_ZNK13KCalendarCore14RecurrenceRule10durationToERK9QDateTime
libKF5CalendarCore.so.5:_ZNK13KCalendarCore14RecurrenceRule11byMonthDaysEv
libKF5CalendarCore.so.5:_ZNK13KCalendarCore14RecurrenceRule11getNextDateERK9QDateTime
libKF5CalendarCore.so.5:_ZNK13KCalendarCore14RecurrenceRule13byWeekNumbersEv
libKF5CalendarCore.so.5:_ZNK13KCalendarCore14RecurrenceRule14recurrenceTypeEv
libKF5CalendarCore.so.5:_ZNK13KCalendarCore14RecurrenceRule15getPreviousDateERK9QDateTime
libKF5CalendarCore.so.5:_ZNK13KCalendarCore14RecurrenceRule5endDtEPb
libKF5CalendarCore.so.5:_ZNK13KCalendarCore14RecurrenceRule6byDaysEv
libKF5CalendarCore.so.5:_ZNK13KCalendarCore14RecurrenceRule7WDayPos3dayEv
libKF5CalendarCore.so.5:_ZNK13KCalendarCore14RecurrenceRule7WDayPos3posEv
libKF5CalendarCore.so.5:_ZNK13KCalendarCore14RecurrenceRule7byHoursEv
libKF5CalendarCore.so.5:_ZNK13KCalendarCore14RecurrenceRule7startDtEv
libKF5CalendarCore.so.5:_ZNK13KCalendarCore14RecurrenceRule8byMonthsEv
libKF5CalendarCore.so.5:_ZNK13KCalendarCore14RecurrenceRule8bySetPosEv
libKF5CalendarCore.so.5:_ZNK13KCalendarCore14RecurrenceRule8durationEv
libKF5CalendarCore.so.5:_ZNK13KCalendarCore14RecurrenceRule8recursOnERK5QDateRK9QTimeZone
libKF5CalendarCore.so.5:_ZNK13KCalendarCore14RecurrenceRule9byMinutesEv
libKF5CalendarCore.so.5:_ZNK13KCalendarCore14RecurrenceRule9bySecondsEv
libKF5CalendarCore.so.5:_ZNK13KCalendarCore14RecurrenceRule9frequencyEv
libKF5CalendarCore.so.5:_ZNK13KCalendarCore16CustomProperties14customPropertyERK10QByteArrayS3_
libKF5CalendarCore.so.5:_ZNK13KCalendarCore16CustomProperties16customPropertiesEv
libKF5CalendarCore.so.5:_ZNK13KCalendarCore4Todo10hasDueDateEv
libKF5CalendarCore.so.5:_ZNK13KCalendarCore4Todo12hasStartDateEv
libKF5CalendarCore.so.5:_ZNK13KCalendarCore4Todo5dtDueEb
libKF5CalendarCore.so.5:_ZNK13KCalendarCore4Todo7dtStartEb
libKF5CalendarCore.so.5:_ZNK13KCalendarCore5Alarm10snoozeTimeEv
libKF5CalendarCore.so.5:_ZNK13KCalendarCore5Alarm11mailSubjectEv
libKF5CalendarCore.so.5:_ZNK13KCalendarCore5Alarm11programFileEv
libKF5CalendarCore.so.5:_ZNK13KCalendarCore5Alarm11repeatCountEv
libKF5CalendarCore.so.5:_ZNK13KCalendarCore5Alarm11startOffsetEv
libKF5CalendarCore.so.5:_ZNK13KCalendarCore5Alarm13mailAddressesEv
libKF5CalendarCore.so.5:_ZNK13KCalendarCore5Alarm14hasStartOffsetEv
libKF5CalendarCore.so.5:_ZNK13KCalendarCore5Alarm15mailAttachmentsEv
libKF5CalendarCore.so.5:_ZNK13KCalendarCore5Alarm16programArgumentsEv
libKF5CalendarCore.so.5:_ZNK13KCalendarCore5Alarm4textEv
libKF5CalendarCore.so.5:_ZNK13KCalendarCore5Alarm4timeEv
libKF5CalendarCore.so.5:_ZNK13KCalendarCore5Alarm4typeEv
libKF5CalendarCore.so.5:_ZNK13KCalendarCore5Alarm8mailTextEv
libKF5CalendarCore.so.5:_ZNK13KCalendarCore5Alarm9audioFileEv
libKF5CalendarCore.so.5:_ZNK13KCalendarCore6Person4nameEv
libKF5CalendarCore.so.5:_ZNK13KCalendarCore6Person5emailEv
libKF5CalendarCore.so.5:_ZNK13KCalendarCore6PersoneqERKS0_
libKF5CalendarCore.so.5:_ZNK13KCalendarCore8Calendar9productIdEv
libKF5CalendarCore.so.5:_ZNK13KCalendarCore8Duration3endERK9QDateTime
libKF5CalendarCore.so.5:_ZNK13KCalendarCore8Duration5valueEv
libKF5CalendarCore.so.5:_ZNK13KCalendarCore8Duration6asDaysEv
libKF5CalendarCore.so.5:_ZNK13KCalendarCore8Duration6isNullEv
libKF5CalendarCore.so.5:_ZNK13KCalendarCore8Duration7isDailyEv
libKF5CalendarCore.so.5:_ZNK13KCalendarCore8Duration9asSecondsEv
libKF5CalendarCore.so.5:_ZNK13KCalendarCore8DurationeqERKS0_
libKF5CalendarCore.so.5:_ZNK13KCalendarCore8DurationltERKS0_
libKF5CalendarCore.so.5:_ZNK13KCalendarCore9Incidence10categoriesEv
libKF5CalendarCore.so.5:_ZNK13KCalendarCore9Incidence10recurrenceEv
libKF5CalendarCore.so.5:_ZNK13KCalendarCore9Incidence11descriptionEv
libKF5CalendarCore.so.5:_ZNK13KCalendarCore9Incidence12customStatusEv
libKF5CalendarCore.so.5:_ZNK13KCalendarCore9Incidence6alarmsEv
libKF5CalendarCore.so.5:_ZNK13KCalendarCore9Incidence7createdEv
libKF5CalendarCore.so.5:_ZNK13KCalendarCore9Incidence7summaryEv
libKF5CalendarCore.so.5:_ZNK13KCalendarCore9Incidence8locationEv
libKF5CalendarCore.so.5:_ZNK13KCalendarCore9Incidence8revisionEv
libKF5CalendarCore.so.5:_ZTIN13KCalendarCore10RecurrenceE
libKF5Holidays.so.5:_ZN9KHolidays13HolidayRegionC1ERK7QString
libKF5Holidays.so.5:_ZN9KHolidays13HolidayRegionD1Ev
libKF5Holidays.so.5:_ZNK9KHolidays13HolidayRegion10regionCodeEv
libKF5Holidays.so.5:_ZNK9KHolidays13HolidayRegion7isValidEv
libKF5Holidays.so.5:_ZNK9KHolidays13HolidayRegion9isHolidayERK5QDate
libKF5I18n.so.5:_Z6ki18ndPKcS0_
libKF5I18n.so.5:_Z7ki18ndcPKcS0_S0_
libKF5I18n.so.5:_Z8ki18ndcpPKcS0_S0_S0_
libKF5I18n.so.5:_ZN16KLocalizedStringD1Ev
libKF5I18n.so.5:_ZNK16KLocalizedString4subsERK7QStringi5QChar
libKF5I18n.so.5:_ZNK16KLocalizedString4subsEiii5QChar
libKF5I18n.so.5:_ZNK16KLocalizedString8toStringEv
libQt5Core.so.5:_Z7qstrcmpRK10QByteArrayPKc
libQt5Core.so.5:_Z7qstrcmpRK10QByteArrayS1_
libQt5Core.so.5:_Z9qBadAllocv
libQt5Core.so.5:_ZN10QArrayData10deallocateEPS_mm
libQt5Core.so.5:_ZN10QArrayData11shared_nullE
libQt5Core.so.5:_ZN10QArrayData8allocateEmmm6QFlagsINS_16AllocationOptionEE
libQt5Core.so.5:_ZN10QByteArray11reallocDataEj6QFlagsIN10QArrayData16AllocationOptionEE
libQt5Core.so.5:_ZN10QByteArray17simplified_helperERKS_
libQt5Core.so.5:_ZN10QByteArray6appendEPKc
libQt5Core.so.5:_ZN10QByteArray6appendERKS_
libQt5Core.so.5:_ZN10QByteArray6appendEc
libQt5Core.so.5:_ZN10QByteArray6numberEii
libQt5Core.so.5:_ZN10QByteArray6numberEji
libQt5Core.so.5:_ZN10QByteArray6resizeEi
libQt5Core.so.5:_ZN10QByteArrayC1EPKci
libQt5Core.so.5:_ZN10QByteArrayC1EiN2Qt14InitializationE
libQt5Core.so.5:_ZN10QByteArrayaSERKS_
libQt5Core.so.5:_ZN11QDataStreamlsEa
libQt5Core.so.5:_ZN11QDataStreamlsEi
libQt5Core.so.5:_ZN11QDataStreamrsERa
libQt5Core.so.5:_ZN11QDataStreamrsERi
libQt5Core.so.5:_ZN11QFileDevice5closeEv
libQt5Core.so.5:_ZN11QMetaObject14normalizedTypeEPKc
libQt5Core.so.5:_ZN11QTextStream7readAllEv
libQt5Core.so.5:_ZN11QTextStream8setCodecEPKc
libQt5Core.so.5:_ZN11QTextStreamC1EP9QIODevice
libQt5Core.so.5:_ZN11QTextStreamD1Ev
libQt5Core.so.5:_ZN11QTextStreamlsEPKc
libQt5Core.so.5:_ZN11QTextStreamlsEPKv
libQt5Core.so.5:_ZN11QTextStreamlsERK7QString
libQt5Core.so.5:_ZN11QTextStreamlsEc
libQt5Core.so.5:_ZN11QTextStreamlsEf
libQt5Core.so.5:_ZN11QTextStreamlsEi
libQt5Core.so.5:_ZN11QTextStreamlsEj
libQt5Core.so.5:_ZN11QTextStreamlsEx
libQt5Core.so.5:_ZN12QMapDataBase10createDataEv
libQt5Core.so.5:_ZN12QMapDataBase10createNodeEiiP12QMapNodeBaseb
libQt5Core.so.5:_ZN12QMapDataBase11shared_nullE
libQt5Core.so.5:_ZN12QMapDataBase18recalcMostLeftNodeEv
libQt5Core.so.5:_ZN12QMapDataBase20freeNodeAndRebalanceEP12QMapNodeBase
libQt5Core.so.5:_ZN12QMapDataBase8freeDataEPS_
libQt5Core.so.5:_ZN12QMapDataBase8freeTreeEP12QMapNodeBasei
libQt5Core.so.5:_ZN15QtSharedPointer20ExternalRefCountData9getAndRefEPK7QObject
libQt5Core.so.5:_ZN16QDebugStateSaverC1ER6QDebug
libQt5Core.so.5:_ZN16QDebugStateSaverD1Ev
libQt5Core.so.5:_ZN16QLoggingCategoryC1EPKc9QtMsgType
libQt5Core.so.5:_ZN16QLoggingCategoryD1Ev
libQt5Core.so.5:_ZN21QAbstractConcatenable14appendLatin1ToEPKciP5QChar
libQt5Core.so.5:_ZN2Qt3hexER11QTextStream
libQt5Core.so.5:_ZN2Qt8showbaseER11QTextStream
libQt5Core.so.5:_ZN5QChar14isSpace_helperEj
libQt5Core.so.5:_ZN5QChar23isLetterOrNumber_helperEj
libQt5Core.so.5:_ZN5QChar8categoryEj
libQt5Core.so.5:_ZN5QDate10fromStringERK7QStringN2Qt10DateFormatE
libQt5Core.so.5:_ZN5QDate10isLeapYearEi
libQt5Core.so.5:_ZN5QDate7setDateEiii
libQt5Core.so.5:_ZN5QDateC1Eiii
libQt5Core.so.5:_ZN5QFile4openE6QFlagsIN9QIODevice12OpenModeFlagEE
libQt5Core.so.5:_ZN5QFileC1ERK7QString
libQt5Core.so.5:_ZN5QFileD1Ev
libQt5Core.so.5:_ZN5QTimeC1Eiiii
libQt5Core.so.5:_ZN6QDebug11resetFormatEv
libQt5Core.so.5:_ZN6QDebug12putByteArrayEPKcmNS_13Latin1ContentE
libQt5Core.so.5:_ZN6QDebug9putStringEPK5QCharm
libQt5Core.so.5:_ZN6QDebugD1Ev
libQt5Core.so.5:_ZN7QLocaleC1ERK7QString
libQt5Core.so.5:_ZN7QLocaleC1Ev
libQt5Core.so.5:_ZN7QLocaleD1Ev
libQt5Core.so.5:_ZN7QObject10childEventEP11QChildEvent
libQt5Core.so.5:_ZN7QObject10timerEventEP11QTimerEvent
libQt5Core.so.5:_ZN7QObject11customEventEP6QEvent
libQt5Core.so.5:_ZN7QObject11eventFilterEPS_P6QEvent
libQt5Core.so.5:_ZN7QObject11qt_metacallEN11QMetaObject4CallEiPPv
libQt5Core.so.5:_ZN7QObject11qt_metacastEPKc
libQt5Core.so.5:_ZN7QObject13connectNotifyERK11QMetaMethod
libQt5Core.so.5:_ZN7QObject16disconnectNotifyERK11QMetaMethod
libQt5Core.so.5:_ZN7QObject16staticMetaObjectE
libQt5Core.so.5:_ZN7QObject5eventEP6QEvent
libQt5Core.so.5:_ZN7QObjectC2EPS_
libQt5Core.so.5:_ZN7QObjectD2Ev
libQt5Core.so.5:_ZN7QRegExp13capturedTextsEv
libQt5Core.so.5:_ZN7QRegExpC1ERK7QStringN2Qt15CaseSensitivityENS_13PatternSyntaxE
libQt5Core.so.5:_ZN7QRegExpD1Ev
libQt5Core.so.5:_ZN7QString11reallocDataEjb
libQt5Core.so.5:_ZN7QString13toUtf8_helperERKS_
libQt5Core.so.5:_ZN7QString14toLower_helperERKS_
libQt5Core.so.5:_ZN7QString14toUpper_helperERKS_
libQt5Core.so.5:_ZN7QString14trimmed_helperERKS_
libQt5Core.so.5:_ZN7QString14trimmed_helperERS_
libQt5Core.so.5:_ZN7QString15fromUtf8_helperEPKci
libQt5Core.so.5:_ZN7QString15toLatin1_helperERKS_
libQt5Core.so.5:_ZN7QString17fromLatin1_helperEPKci
libQt5Core.so.5:_ZN7QString17simplified_helperERKS_
libQt5Core.so.5:_ZN7QString18toLocal8Bit_helperEPK5QChari
libQt5Core.so.5:_ZN7QString4chopEi
libQt5Core.so.5:_ZN7QString6appendE13QLatin1String
libQt5Core.so.5:_ZN7QString6appendEPK5QChari
libQt5Core.so.5:_ZN7QString6appendERKS_
libQt5Core.so.5:_ZN7QString6numberEdci
libQt5Core.so.5:_ZN7QString6numberEii
libQt5Core.so.5:_ZN7QString6numberEji
libQt5Core.so.5:_ZN7QString6numberExi
libQt5Core.so.5:_ZN7QString6removeEii
libQt5Core.so.5:_ZN7QString6resizeEi
libQt5Core.so.5:_ZN7QString7replaceEiiRKS_
libQt5Core.so.5:_ZN7QString8asprintfEPKcz
libQt5Core.so.5:_ZN7QString8truncateEi
libQt5Core.so.5:_ZN7QStringC1E5QChar
libQt5Core.so.5:_ZN7QStringC1EiN2Qt14InitializationE
libQt5Core.so.5:_ZN7QStringaSE13QLatin1String
libQt5Core.so.5:_ZN7QStringaSERKS_
libQt5Core.so.5:_ZN9QBitArrayC1Eib
libQt5Core.so.5:_ZN9QDateTime10fromStringERK7QStringN2Qt10DateFormatE
libQt5Core.so.5:_ZN9QDateTime11setTimeSpecEN2Qt8TimeSpecE
libQt5Core.so.5:_ZN9QDateTime11setTimeZoneERK9QTimeZone
libQt5Core.so.5:_ZN9QDateTime15currentDateTimeEv
libQt5Core.so.5:_ZN9QDateTime16setOffsetFromUtcEi
libQt5Core.so.5:_ZN9QDateTime18currentDateTimeUtcEv
libQt5Core.so.5:_ZN9QDateTime18setMSecsSinceEpochEx
libQt5Core.so.5:_ZN9QDateTime7setDateERK5QDate
libQt5Core.so.5:_ZN9QDateTime7setTimeERK5QTime
libQt5Core.so.5:_ZN9QDateTimeC1EOS_
libQt5Core.so.5:_ZN9QDateTimeC1ERK5QDateRK5QTimeN2Qt8TimeSpecE
libQt5Core.so.5:_ZN9QDateTimeC1ERK5QDateRK5QTimeRK9QTimeZone
libQt5Core.so.5:_ZN9QDateTimeC1ERKS_
libQt5Core.so.5:_ZN9QDateTimeC1Ev
libQt5Core.so.5:_ZN9QDateTimeD1Ev
libQt5Core.so.5:_ZN9QDateTimeaSERKS_
libQt5Core.so.5:_ZN9QFileInfoC1ERK7QString
libQt5Core.so.5:_ZN9QFileInfoD1Ev
libQt5Core.so.5:_ZN9QIODevice5writeEPKc
libQt5Core.so.5:_ZN9QIODevice5writeEPKcx
libQt5Core.so.5:_ZN9QIODevice7readAllEv
libQt5Core.so.5:_ZN9QListData11detach_growEPii
libQt5Core.so.5:_ZN9QListData11shared_nullE
libQt5Core.so.5:_ZN9QListData6appendERKS_
libQt5Core.so.5:_ZN9QListData6appendEv
libQt5Core.so.5:_ZN9QListData6detachEi
libQt5Core.so.5:_ZN9QListData6removeEi
libQt5Core.so.5:_ZN9QListData7disposeEPNS_4DataE
libQt5Core.so.5:_ZN9QListData7reallocEi
libQt5Core.so.5:_ZN9QMetaType22registerNormalizedTypeERK10QByteArrayPFvPvEPFS3_S3_PKvEi6QFlagsINS_8TypeFlagEEPK11QMetaObject
libQt5Core.so.5:_ZN9QTimeZone14systemTimeZoneEv
libQt5Core.so.5:_ZN9QTimeZone20availableTimeZoneIdsEv
libQt5Core.so.5:_ZN9QTimeZone3utcEv
libQt5Core.so.5:_ZN9QTimeZoneC1ERK10QByteArray
libQt5Core.so.5:_ZN9QTimeZoneC1ERKS_
libQt5Core.so.5:_ZN9QTimeZoneC1Ei
libQt5Core.so.5:_ZN9QTimeZoneC1Ev
libQt5Core.so.5:_ZN9QTimeZoneD1Ev
libQt5Core.so.5:_ZN9QTimeZoneaSERKS_
libQt5Core.so.5:_ZN9QtPrivate12argToQStringE11QStringViewmPPKNS_7ArgBaseE
libQt5Core.so.5:_ZN9QtPrivate16QStringList_joinEPK11QStringListPK5QChari
libQt5Core.so.5:_ZN9QtPrivate20QStringList_containsEPK11QStringListRK7QStringN2Qt15CaseSensitivityE
libQt5Core.so.5:_ZNK10QByteArray10startsWithERKS_
libQt5Core.so.5:_ZNK10QByteArray5splitEc
libQt5Core.so.5:_ZNK10QByteArray5toIntEPbi
libQt5Core.so.5:_ZNK10QByteArray6isNullEv
libQt5Core.so.5:_ZNK10QByteArray8endsWithEc
libQt5Core.so.5:_ZNK10QStringRef10startsWithE5QCharN2Qt15CaseSensitivityE
libQt5Core.so.5:_ZNK10QStringRef5toIntEPbi
libQt5Core.so.5:_ZNK10QStringRef6toUIntEPbi
libQt5Core.so.5:_ZNK11QObjectData17dynamicMetaObjectEv
libQt5Core.so.5:_ZNK12QMapNodeBase12previousNodeEv
libQt5Core.so.5:_ZNK12QMapNodeBase8nextNodeEv
libQt5Core.so.5:_ZNK14QMessageLogger5debugEv
libQt5Core.so.5:_ZNK14QMessageLogger7warningEv
libQt5Core.so.5:_ZNK14QMessageLogger8criticalEv
libQt5Core.so.5:_ZNK5QDate3dayEv
libQt5Core.so.5:_ZNK5QDate4yearEv
libQt5Core.so.5:_ZNK5QDate5monthEv
libQt5Core.so.5:_ZNK5QDate6daysToERKS_
libQt5Core.so.5:_ZNK5QDate7addDaysEx
libQt5Core.so.5:_ZNK5QDate8addYearsEi
libQt5Core.so.5:_ZNK5QDate9addMonthsEi
libQt5Core.so.5:_ZNK5QDate9dayOfWeekEv
libQt5Core.so.5:_ZNK5QDate9dayOfYearEv
libQt5Core.so.5:_ZNK5QTime4hourEv
libQt5Core.so.5:_ZNK5QTime4msecEv
libQt5Core.so.5:_ZNK5QTime6minuteEv
libQt5Core.so.5:_ZNK5QTime6secondEv
libQt5Core.so.5:_ZNK5QTime6secsToERKS_
libQt5Core.so.5:_ZNK5QTime7isValidEv
libQt5Core.so.5:_ZNK7QLocale12decimalPointEv
libQt5Core.so.5:_ZNK7QLocale14firstDayOfWeekEv
libQt5Core.so.5:_ZNK7QLocale6amTextEv
libQt5Core.so.5:_ZNK7QLocale6pmTextEv
libQt5Core.so.5:_ZNK7QLocale7dayNameEiNS_10FormatTypeE
libQt5Core.so.5:_ZNK7QLocale8toStringERK5QDateNS_10FormatTypeE
libQt5Core.so.5:_ZNK7QLocale8toStringERK9QDateTimeNS_10FormatTypeE
libQt5Core.so.5:_ZNK7QLocale8toStringEx
libQt5Core.so.5:_ZNK7QLocale8toStringEy
libQt5Core.so.5:_ZNK7QLocale9monthNameEiNS_10FormatTypeE
libQt5Core.so.5:_ZNK7QRegExp13capturedTextsEv
libQt5Core.so.5:_ZNK7QRegExp13matchedLengthEv
libQt5Core.so.5:_ZNK7QRegExp7indexInERK7QStringiNS_9CaretModeE
libQt5Core.so.5:_ZNK7QString10startsWithE13QLatin1StringN2Qt15CaseSensitivityE
libQt5Core.so.5:_ZNK7QString10startsWithE5QCharN2Qt15CaseSensitivityE
libQt5Core.so.5:_ZNK7QString10startsWithERKS_N2Qt15CaseSensitivityE
libQt5Core.so.5:_ZNK7QString10toLongLongEPbi
libQt5Core.so.5:_ZNK7QString3argERKS_i5QChar
libQt5Core.so.5:_ZNK7QString3argEci5QChar
libQt5Core.so.5:_ZNK7QString3argExii5QChar
libQt5Core.so.5:_ZNK7QString3midEii
libQt5Core.so.5:_ZNK7QString4leftEi
libQt5Core.so.5:_ZNK7QString5countE5QCharN2Qt15CaseSensitivityE
libQt5Core.so.5:_ZNK7QString5splitE5QChar6QFlagsIN2Qt18SplitBehaviorFlagsEENS2_15CaseSensitivityE
libQt5Core.so.5:_ZNK7QString5splitERKS_6QFlagsIN2Qt18SplitBehaviorFlagsEENS3_15CaseSensitivityE
libQt5Core.so.5:_ZNK7QString5toIntEPbi
libQt5Core.so.5:_ZNK7QString6midRefEii
libQt5Core.so.5:_ZNK7QString6toUIntEPbi
libQt5Core.so.5:_ZNK7QString7indexOfE5QChariN2Qt15CaseSensitivityE
libQt5Core.so.5:_ZNK7QString7indexOfERKS_iN2Qt15CaseSensitivityE
libQt5Core.so.5:_ZNK7QString7leftRefEi
libQt5Core.so.5:_ZNK7QString7sectionERKS_ii6QFlagsINS_11SectionFlagEE
libQt5Core.so.5:_ZNK7QString7toFloatEPb
libQt5Core.so.5:_ZNK7QString8endsWithE5QCharN2Qt15CaseSensitivityE
libQt5Core.so.5:_ZNK7QString8rightRefEi
libQt5Core.so.5:_ZNK7QStringeqE13QLatin1String
libQt5Core.so.5:_ZNK9QBitArray5countEb
libQt5Core.so.5:_ZNK9QDateTime10toTimeSpecEN2Qt8TimeSpecE
libQt5Core.so.5:_ZNK9QDateTime10toTimeZoneERK9QTimeZone
libQt5Core.so.5:_ZNK9QDateTime13offsetFromUtcEv
libQt5Core.so.5:_ZNK9QDateTime15toOffsetFromUtcEi
libQt5Core.so.5:_ZNK9QDateTime16toSecsSinceEpochEv
libQt5Core.so.5:_ZNK9QDateTime4dateEv
libQt5Core.so.5:_ZNK9QDateTime4timeEv
libQt5Core.so.5:_ZNK9QDateTime6isNullEv
libQt5Core.so.5:_ZNK9QDateTime6secsToERKS_
libQt5Core.so.5:_ZNK9QDateTime7addDaysEx
libQt5Core.so.5:_ZNK9QDateTime7addSecsEx
libQt5Core.so.5:_ZNK9QDateTime7isValidEv
libQt5Core.so.5:_ZNK9QDateTime7msecsToERKS_
libQt5Core.so.5:_ZNK9QDateTime8addMSecsEx
libQt5Core.so.5:_ZNK9QDateTime8addYearsEi
libQt5Core.so.5:_ZNK9QDateTime8timeSpecEv
libQt5Core.so.5:_ZNK9QDateTime8timeZoneEv
libQt5Core.so.5:_ZNK9QDateTime8toStringERK7QString
libQt5Core.so.5:_ZNK9QDateTimeeqERKS_
libQt5Core.so.5:_ZNK9QDateTimeltERKS_
libQt5Core.so.5:_ZNK9QFileInfo4sizeEv
libQt5Core.so.5:_ZNK9QTimeZone11transitionsERK9QDateTimeS2_
libQt5Core.so.5:_ZNK9QTimeZone12abbreviationERK9QDateTime
libQt5Core.so.5:_ZNK9QTimeZone13offsetFromUtcERK9QDateTime
libQt5Core.so.5:_ZNK9QTimeZone18previousTransitionERK9QDateTime
libQt5Core.so.5:_ZNK9QTimeZone2idEv
libQt5Core.so.5:_ZNK9QTimeZone7isValidEv
libQt5Core.so.5:_ZNK9QTimeZoneeqERKS_
libQt5Core.so.5:_ZNK9QTimeZoneneERKS_
libQt5Core.so.5:_ZTI7QObject
libQt5Core.so.5:_ZeqRK7QStringS1_
libQt5Core.so.5:_ZlsR11QDataStreamRK10QByteArray
libQt5Core.so.5:_ZlsR11QDataStreamRK5QDate
libQt5Core.so.5:_ZlsR11QDataStreamRK5QTime
libQt5Core.so.5:_ZltRK7QStringS1_
libQt5Core.so.5:_ZrsR11QDataStreamR10QByteArray
libQt5Core.so.5:_ZrsR11QDataStreamR5QDate
libQt5Core.so.5:_ZrsR11QDataStreamR5QTime
libQt5Core.so.5:qt_version_tag
libQt5Gui.so.5:_ZN5QFont10fromStringERK7QString
libQt5Gui.so.5:_ZN5QFontC1ERKS_
libQt5Gui.so.5:_ZN5QFontC1Ev
libQt5Gui.so.5:_ZN5QFontD1Ev
libQt5Gui.so.5:_ZN5QFontaSERKS_
libQt5Gui.so.5:_ZN6QColor13setNamedColorERK7QString
libQt5Gui.so.5:_ZN6QColor6setRgbEiiii
libQt5Gui.so.5:_ZN6QColoraSERKS_
libQt5Gui.so.5:_ZNK5QFont8toStringEv
libQt5Gui.so.5:_ZNK5QFontneERKS_
libQt5Gui.so.5:_ZNK6QColor3redEv
libQt5Gui.so.5:_ZNK6QColor4blueEv
libQt5Gui.so.5:_ZNK6QColor4nameEv
libQt5Gui.so.5:_ZNK6QColor5alphaEv
libQt5Gui.so.5:_ZNK6QColor5greenEv
libQt5Gui.so.5:_ZNK6QColoreqERKS_
libQt5Gui.so.5:_ZNK6QColorneERKS_
libc.so.6:__cxa_atexit
libc.so.6:__stack_chk_fail
libc.so.6:isalpha
libc.so.6:localtime
libc.so.6:memcmp
libc.so.6:memcpy
libc.so.6:strcmp
libc.so.6:strlen
libc.so.6:toupper
libgcc_s.so.1:_Unwind_Resume
libstdc++.so.6:_ZTVN10__cxxabiv117__class_type_infoE
libstdc++.so.6:_ZTVN10__cxxabiv120__si_class_type_infoE
libstdc++.so.6:_ZTVN10__cxxabiv121__vmi_class_type_infoE
libstdc++.so.6:_ZdlPv
libstdc++.so.6:_ZdlPvm
libstdc++.so.6:_Znwm
libstdc++.so.6:__cxa_begin_catch
libstdc++.so.6:__cxa_end_catch
libstdc++.so.6:__cxa_guard_abort
libstdc++.so.6:__cxa_guard_acquire
libstdc++.so.6:__cxa_guard_release
libstdc++.so.6:__cxa_rethrow
libstdc++.so.6:__dynamic_cast
libstdc++.so.6:__gxx_personality_v0
