qtractor:_IO_stdin_used
qtractor:_Z23qInitResources_qtractorv
qtractor:_Z26qCleanupResources_qtractorv
qtractor:_Z26qtractor_lv2_midnam_updatePv
qtractor:_Z28qtractor_lv2_program_changedPvi
qtractor:_Z5qHashRKN16qtractorFileList3KeyE
qtractor:_Z5qHashRKN16qtractorMidiClip3KeyE
qtractor:_Z5qHashRKN16qtractorMidiClip7FileKeyE
qtractor:_Z5qHashRKN17qtractorAudioClip3KeyE
qtractor:_ZN11qtractorBus10setBusModeENS_7BusModeE
qtractor:_ZN11qtractorBus10setBusNameERK7QString
qtractor:_ZN11qtractorBus10setMonitorEb
qtractor:_ZN11qtractorBus11Connections4loadEP14qtractorEngine
qtractor:_ZN11qtractorBus11Connections4saveEP14qtractorEngine
qtractor:_ZN11qtractorBus11Connections4saveEPS_
qtractor:_ZN11qtractorBus11Connections5clearEv
qtractor:_ZN11qtractorBus12loadConnectsERNS_11ConnectListEP16qtractorDocumentP11QDomElement
qtractor:_ZN11qtractorBus12saveConnectsERNS_11ConnectListEP16qtractorDocumentP11QDomElement
qtractor:_ZN11qtractorBus13loadCurveFileEP11QDomElementNS_7BusModeEP17qtractorCurveFile
qtractor:_ZN11qtractorBus13updateBusNameEv
qtractor:_ZN11qtractorBus14mapControllersENS_7BusModeE
qtractor:_ZN11qtractorBus15busModeFromTextERK7QString
qtractor:_ZN11qtractorBus15loadControllersEP11QDomElementNS_7BusModeE
qtractor:_ZN11qtractorBus15textFromBusModeENS_7BusModeE
qtractor:_ZN11qtractorBus19monitorChangeNotifyEb
qtractor:_ZN11qtractorBus8Connects4loadEPS_
qtractor:_ZN11qtractorBus8Connects4saveEPS_
qtractor:_ZN11qtractorBus8Connects5clearEv
qtractor:_ZN11qtractorBusC1EP14qtractorEngineRK7QStringNS_7BusModeEb
qtractor:_ZN11qtractorBusC2EP14qtractorEngineRK7QStringNS_7BusModeEb
qtractor:_ZN11qtractorBusD0Ev
qtractor:_ZN11qtractorBusD1Ev
qtractor:_ZN11qtractorBusD2Ev
qtractor:_ZN12qtractorClip11loadElementEP16qtractorDocumentP11QDomElement
qtractor:_ZN12qtractorClip11queryEditorEv
qtractor:_ZN12qtractorClip11saveElementEP16qtractorDocumentP11QDomElement
qtractor:_ZN12qtractorClip11setFilenameERK7QString
qtractor:_ZN12qtractorClip11setTakeInfoEPNS_8TakeInfoE
qtractor:_ZN12qtractorClip11startEditorEP7QWidget
qtractor:_ZN12qtractorClip12setClipStartEm
qtractor:_ZN12qtractorClip12updateEditorEb
qtractor:_ZN12qtractorClip13setClipLengthEm
qtractor:_ZN12qtractorClip13setClipOffsetEm
qtractor:_ZN12qtractorClip13setClipSelectEmm
qtractor:_ZN12qtractorClip13setFadeInTypeENS_8FadeTypeE
qtractor:_ZN12qtractorClip14drawClipRecordEP8QPainterRK5QRectm
qtractor:_ZN12qtractorClip14setFadeOutTypeENS_8FadeTypeE
qtractor:_ZN12qtractorClip14updateClipTimeEv
qtractor:_ZN12qtractorClip15setClipSelectedEb
qtractor:_ZN12qtractorClip15setFadeInLengthEm
qtractor:_ZN12qtractorClip16setFadeOutLengthEm
qtractor:_ZN12qtractorClip16textFromFadeTypeENS_8FadeTypeE
qtractor:_ZN12qtractorClip17createFadeFunctorENS_8FadeModeENS_8FadeTypeE
qtractor:_ZN12qtractorClip18fadeInTypeFromTextERK7QString
qtractor:_ZN12qtractorClip19fadeOutTypeFromTextERK7QString
qtractor:_ZN12qtractorClip20updateEditorContentsEv
qtractor:_ZN12qtractorClip5clearEv
qtractor:_ZN12qtractorClip8TakeInfo14selectClipPartEP19qtractorClipCommandP13qtractorTrackNS0_8ClipPartEmmm
qtractor:_ZN12qtractorClip8TakeInfo5resetEP19qtractorClipCommandb
qtractor:_ZN12qtractorClip8TakeInfo6selectEP19qtractorClipCommandP13qtractorTracki
qtractor:_ZN12qtractorClip8drawClipEP8QPainterRK5QRectm
qtractor:_ZN12qtractorClipC1EP13qtractorTrack
qtractor:_ZN12qtractorClipC2EP13qtractorTrack
qtractor:_ZN12qtractorClipD0Ev
qtractor:_ZN12qtractorClipD1Ev
qtractor:_ZN12qtractorClipD2Ev
qtractor:_ZN13qtractorCurve10insertNodeEPNS_4NodeE
qtractor:_ZN13qtractorCurve10removeNodeEPNS_4NodeE
qtractor:_ZN13qtractorCurve10setCaptureEb
qtractor:_ZN13qtractorCurve10setProcessEb
qtractor:_ZN13qtractorCurve10unlinkNodeEPNS_4NodeE
qtractor:_ZN13qtractorCurve10updateNodeEPNS_4NodeE
qtractor:_ZN13qtractorCurve12updateNodeExEPNS_4NodeE
qtractor:_ZN13qtractorCurve15setDefaultValueEf
qtractor:_ZN13qtractorCurve16readMidiSequenceEP20qtractorMidiSequenceN17qtractorMidiEvent9EventTypeEttP17qtractorTimeScale
qtractor:_ZN13qtractorCurve5clearEv
qtractor:_ZN13qtractorCurve5valueEm
qtractor:_ZN13qtractorCurve6Cursor4seekEm
qtractor:_ZN13qtractorCurve6Cursor5resetEPNS_4NodeE
qtractor:_ZN13qtractorCurve6updateEv
qtractor:_ZN13qtractorCurve7addNodeEmfP21qtractorCurveEditList
qtractor:_ZN13qtractorCurve9copyNodesEPS_
qtractor:_ZN13qtractorCurve9setLengthEm
qtractor:_ZN13qtractorCurve9setLockedEb
qtractor:_ZN13qtractorCurveC1EP17qtractorCurveListP15qtractorSubjectNS_4ModeEj
qtractor:_ZN13qtractorCurveC2EP17qtractorCurveListP15qtractorSubjectNS_4ModeEj
qtractor:_ZN13qtractorCurveD1Ev
qtractor:_ZN13qtractorCurveD2Ev
qtractor:_ZN13qtractorFiles10closeEventEP11QCloseEvent
qtractor:_ZN13qtractorFiles11addMidiFileERK7QString
qtractor:_ZN13qtractorFiles11cleanupSlotEv
qtractor:_ZN13qtractorFiles11cutItemSlotEv
qtractor:_ZN13qtractorFiles11qt_metacallEN11QMetaObject4CallEiPPv
qtractor:_ZN13qtractorFiles11qt_metacastEPKc
qtractor:_ZN13qtractorFiles12addAudioFileERK7QString
qtractor:_ZN13qtractorFiles12copyItemSlotEv
qtractor:_ZN13qtractorFiles12newGroupSlotEv
qtractor:_ZN13qtractorFiles12openFileSlotEv
qtractor:_ZN13qtractorFiles12pageMidiSlotEv
qtractor:_ZN13qtractorFiles12setPlayStateEb
qtractor:_ZN13qtractorFiles13pageAudioSlotEv
qtractor:_ZN13qtractorFiles13pasteItemSlotEv
qtractor:_ZN13qtractorFiles13stabilizeSlotEv
qtractor:_ZN13qtractorFiles14removeItemSlotEv
qtractor:_ZN13qtractorFiles14renameItemSlotEv
qtractor:_ZN13qtractorFiles14selectMidiFileERK7QStringi
qtractor:_ZN13qtractorFiles15selectAudioFileERK7QString
qtractor:_ZN13qtractorFiles16contextMenuEventEP17QContextMenuEvent
qtractor:_ZN13qtractorFiles16staticMetaObjectE
qtractor:_ZN13qtractorFiles5clearEv
qtractor:_ZN13qtractorFiles8playSlotEb
qtractor:_ZN13qtractorFilesC1EP7QWidget
qtractor:_ZN13qtractorFilesC2EP7QWidget
qtractor:_ZN13qtractorFilesD0Ev
qtractor:_ZN13qtractorFilesD1Ev
qtractor:_ZN13qtractorFilesD2Ev
qtractor:_ZN13qtractorMeterC1EP7QWidget
qtractor:_ZN13qtractorMeterC2EP7QWidget
qtractor:_ZN13qtractorMeterD0Ev
qtractor:_ZN13qtractorMeterD1Ev
qtractor:_ZN13qtractorMeterD2Ev
qtractor:_ZN13qtractorMixer10closeEventEP11QCloseEvent
qtractor:_ZN13qtractorMixer11qt_metacallEN11QMetaObject4CallEiPPv
qtractor:_ZN13qtractorMixer11qt_metacastEPKc
qtractor:_ZN13qtractorMixer11updateBusesEb
qtractor:_ZN13qtractorMixer12updateTracksEb
qtractor:_ZN13qtractorMixer13keyPressEventEP9QKeyEvent
qtractor:_ZN13qtractorMixer14loadMixerStateEv
qtractor:_ZN13qtractorMixer14saveMixerStateEv
qtractor:_ZN13qtractorMixer14updateBusStripEP17qtractorMixerRackP11qtractorBusNS2_7BusModeEb
qtractor:_ZN13qtractorMixer16staticMetaObjectE
qtractor:_ZN13qtractorMixer16updateTrackStripEP13qtractorTrackb
qtractor:_ZN13qtractorMixer16updateWorkspacesEv
qtractor:_ZN13qtractorMixer22updateMidiManagerStripEP19qtractorMidiManager
qtractor:_ZN13qtractorMixer5clearEv
qtractor:_ZN13qtractorMixerC1EP7QWidget6QFlagsIN2Qt10WindowTypeEE
qtractor:_ZN13qtractorMixerC2EP7QWidget6QFlagsIN2Qt10WindowTypeEE
qtractor:_ZN13qtractorMixerD0Ev
qtractor:_ZN13qtractorMixerD1Ev
qtractor:_ZN13qtractorMixerD2Ev
qtractor:_ZN13qtractorTrack10Properties4copyERKS0_
qtractor:_ZN13qtractorTrack10Properties5clearEv
qtractor:_ZN13qtractorTrack10insertClipEP12qtractorClip
qtractor:_ZN13qtractorTrack10propertiesEv
qtractor:_ZN13qtractorTrack10removeClipEP12qtractorClip
qtractor:_ZN13qtractorTrack10setMidiTagEt
qtractor:_ZN13qtractorTrack10setMonitorEb
qtractor:_ZN13qtractorTrack10setPanningEf
qtractor:_ZN13qtractorTrack10syncThreadEv
qtractor:_ZN13qtractorTrack10trackColorEi
qtractor:_ZN13qtractorTrack10unlinkClipEP12qtractorClip
qtractor:_ZN13qtractorTrack11loadElementEP16qtractorDocumentP11QDomElement
qtractor:_ZN13qtractorTrack11setMidiBankEi
qtractor:_ZN13qtractorTrack11setMidiOmniEb
qtractor:_ZN13qtractorTrack11setMidiProgEi
qtractor:_ZN13qtractorTrack11updateTrackEv
qtractor:_ZN13qtractorTrack12setMidiDrumsEb
qtractor:_ZN13qtractorTrack12setMidiPatchEP22qtractorInstrumentList
qtractor:_ZN13qtractorTrack12setTrackIconERK7QString
qtractor:_ZN13qtractorTrack12setTrackNameERK7QString
qtractor:_ZN13qtractorTrack12setTrackTypeENS_9TrackTypeE
qtractor:_ZN13qtractorTrack12updateHeightEv
qtractor:_ZN13qtractorTrack13loadCurveFileEP11QDomElementP17qtractorCurveFile
qtractor:_ZN13qtractorTrack13process_curveEm
qtractor:_ZN13qtractorTrack13setBackgroundERK6QColor
qtractor:_ZN13qtractorTrack13setClipRecordEP12qtractorClip
qtractor:_ZN13qtractorTrack13setForegroundERK6QColor
qtractor:_ZN13qtractorTrack13setPropertiesERKNS_10PropertiesE
qtractor:_ZN13qtractorTrack13setZoomHeightEi
qtractor:_ZN13qtractorTrack14mapControllersEv
qtractor:_ZN13qtractorTrack14process_exportEP12qtractorClipmm
qtractor:_ZN13qtractorTrack14process_recordEmm
qtractor:_ZN13qtractorTrack14setMidiChannelEt
qtractor:_ZN13qtractorTrack14setMidiNoteMaxEh
qtractor:_ZN13qtractorTrack14setMidiNoteMinEh
qtractor:_ZN13qtractorTrack15loadControllersEP11QDomElement
qtractor:_ZN13qtractorTrack15resetPropertiesEv
qtractor:_ZN13qtractorTrack15setClipRecordExEb
qtractor:_ZN13qtractorTrack15setCurrentCurveEP13qtractorCurve
qtractor:_ZN13qtractorTrack15setInputBusNameERK7QString
qtractor:_ZN13qtractorTrack15updateMidiClipsEv
qtractor:_ZN13qtractorTrack15updateMidiTrackEv
qtractor:_ZN13qtractorTrack15updateTrackNameEv
qtractor:_ZN13qtractorTrack16setOutputBusNameERK7QString
qtractor:_ZN13qtractorTrack16updateZoomHeightEv
qtractor:_ZN13qtractorTrack17stateChangeNotifyENS_8ToolTypeEb
qtractor:_ZN13qtractorTrack17textFromTrackTypeENS_9TrackTypeE
qtractor:_ZN13qtractorTrack17trackTypeFromTextERK7QString
qtractor:_ZN13qtractorTrack17updateClipEditorsEv
qtractor:_ZN13qtractorTrack18refreshPluginFormsEv
qtractor:_ZN13qtractorTrack18setClipRecordStartEm
qtractor:_ZN13qtractorTrack19monitorChangeNotifyEb
qtractor:_ZN13qtractorTrack20setMidiBankSelMethodEi
qtractor:_ZN13qtractorTrack20setPluginListLatencyEb
qtractor:_ZN13qtractorTrack20trackColorSaturationEv
qtractor:_ZN13qtractorTrack23g_iTrackColorSaturationE
qtractor:_ZN13qtractorTrack23setTrackColorSaturationEi
qtractor:_ZN13qtractorTrack4openEv
qtractor:_ZN13qtractorTrack5clearEv
qtractor:_ZN13qtractorTrack5closeEv
qtractor:_ZN13qtractorTrack7addClipEP12qtractorClip
qtractor:_ZN13qtractorTrack7processEP12qtractorClipmm
qtractor:_ZN13qtractorTrack7setGainEf
qtractor:_ZN13qtractorTrack7setLoopEmm
qtractor:_ZN13qtractorTrack7setMuteEb
qtractor:_ZN13qtractorTrack7setSoloEb
qtractor:_ZN13qtractorTrack9drawTrackEP8QPainterRK5QRectmmP12qtractorClip
qtractor:_ZN13qtractorTrack9setHeightEi
qtractor:_ZN13qtractorTrack9setRecordEb
qtractor:_ZN13qtractorTrackC1EP15qtractorSessionNS_9TrackTypeE
qtractor:_ZN13qtractorTrackC2EP15qtractorSessionNS_9TrackTypeE
qtractor:_ZN13qtractorTrackD1Ev
qtractor:_ZN13qtractorTrackD2Ev
qtractor:_ZN14qtractorEngine10setPlayingEb
qtractor:_ZN14qtractorEngine11removeBusExEP11qtractorBus
qtractor:_ZN14qtractorEngine13clearConnectsEv
qtractor:_ZN14qtractorEngine14updateConnectsEP11qtractorBus
qtractor:_ZN14qtractorEngine14updateConnectsEv
qtractor:_ZN14qtractorEngine4openEv
qtractor:_ZN14qtractorEngine5clearEv
qtractor:_ZN14qtractorEngine5closeEv
qtractor:_ZN14qtractorEngine6addBusEP11qtractorBus
qtractor:_ZN14qtractorEngine7moveBusEP11qtractorBusS1_
qtractor:_ZN14qtractorEngine8addBusExEP11qtractorBus
qtractor:_ZN14qtractorEngine9removeBusEP11qtractorBus
qtractor:_ZN14qtractorEngineC1EP15qtractorSessionN13qtractorTrack9TrackTypeE
qtractor:_ZN14qtractorEngineC2EP15qtractorSessionN13qtractorTrack9TrackTypeE
qtractor:_ZN14qtractorEngineD0Ev
qtractor:_ZN14qtractorEngineD1Ev
qtractor:_ZN14qtractorEngineD2Ev
qtractor:_ZN14qtractorPlugin10clearItemsEv
qtractor:_ZN14qtractorPlugin10loadValuesEP11QDomElementRNS_6ValuesE
qtractor:_ZN14qtractorPlugin10removeItemEP22qtractorPluginListItem
qtractor:_ZN14qtractorPlugin10savePluginEP16qtractorDocumentP11QDomElement
qtractor:_ZN14qtractorPlugin10saveValuesEP12QDomDocumentP11QDomElement
qtractor:_ZN14qtractorPlugin11addPropertyEPNS_8PropertyE
qtractor:_ZN14qtractorPlugin11loadConfigsEP11QDomElementR5QHashI7QStringS3_ES5_
qtractor:_ZN14qtractorPlugin11refreshFormEv
qtractor:_ZN14qtractorPlugin11saveConfigsEP12QDomDocumentP11QDomElement
qtractor:_ZN14qtractorPlugin12freezeValuesEv
qtractor:_ZN14qtractorPlugin12g_sDefPresetE
qtractor:_ZN14qtractorPlugin12loadPresetExERK7QString
qtractor:_ZN14qtractorPlugin12savePluginExEP16qtractorDocumentP11QDomElement
qtractor:_ZN14qtractorPlugin12setActivatedEb
qtractor:_ZN14qtractorPlugin12setInstancesEt
qtractor:_ZN14qtractorPlugin12setValueListERK11QStringList
qtractor:_ZN14qtractorPlugin13freezeConfigsEv
qtractor:_ZN14qtractorPlugin13freezeFormPosEv
qtractor:_ZN14qtractorPlugin13loadCurveFileEP11QDomElementP17qtractorCurveFile
qtractor:_ZN14qtractorPlugin13realizeValuesEv
qtractor:_ZN14qtractorPlugin13releaseValuesEv
qtractor:_ZN14qtractorPlugin13saveCurveFileEP16qtractorDocumentP11QDomElementP17qtractorCurveFile
qtractor:_ZN14qtractorPlugin14applyCurveFileEP17qtractorCurveFile
qtractor:_ZN14qtractorPlugin14loadPresetFileERK7QString
qtractor:_ZN14qtractorPlugin14mapControllersERK5QListIPN19qtractorMidiControl10ControllerEE
qtractor:_ZN14qtractorPlugin14realizeConfigsEv
qtractor:_ZN14qtractorPlugin14releaseConfigsEv
qtractor:_ZN14qtractorPlugin14savePresetFileERK7QString
qtractor:_ZN14qtractorPlugin14setActivatedExEb
qtractor:_ZN14qtractorPlugin15loadControllersEP11QDomElementR5QListIPN19qtractorMidiControl10ControllerEE
qtractor:_ZN14qtractorPlugin15saveControllersEP16qtractorDocumentP11QDomElement
qtractor:_ZN14qtractorPlugin15updateActivatedEb
qtractor:_ZN14qtractorPlugin16ActivateObserver6updateEb
qtractor:_ZN14qtractorPlugin16ActivateObserverC1EPS_
qtractor:_ZN14qtractorPlugin16ActivateObserverC2EPS_
qtractor:_ZN14qtractorPlugin16loadPresetFileExERK7QString
qtractor:_ZN14qtractorPlugin16toggleFormEditorEb
qtractor:_ZN14qtractorPlugin16updateParamValueEmfb
qtractor:_ZN14qtractorPlugin17updateActivatedExEb
qtractor:_ZN14qtractorPlugin17updateEditorTitleEv
qtractor:_ZN14qtractorPlugin20autoDeactivatePluginEb
qtractor:_ZN14qtractorPlugin20updateFormDirtyCountEv
qtractor:_ZN14qtractorPlugin23updateDirectAccessParamEv
qtractor:_ZN14qtractorPlugin24updateFormAuxSendBusNameEv
qtractor:_ZN14qtractorPlugin25setDirectAccessParamIndexEl
qtractor:_ZN14qtractorPlugin5Param11updateValueEfb
qtractor:_ZN14qtractorPlugin5Param6updateEfb
qtractor:_ZN14qtractorPlugin5Param8Observer6updateEb
qtractor:_ZN14qtractorPlugin5Param8ObserverC1EPS0_
qtractor:_ZN14qtractorPlugin5Param8ObserverC2EPS0_
qtractor:_ZN14qtractorPlugin5Param8setValueEfb
qtractor:_ZN14qtractorPlugin5resetEv
qtractor:_ZN14qtractorPlugin7addItemEP22qtractorPluginListItem
qtractor:_ZN14qtractorPlugin8Property10setVariantERK8QVariantb
qtractor:_ZN14qtractorPlugin8Property6updateEfb
qtractor:_ZN14qtractorPlugin8addParamEPNS_5ParamE
qtractor:_ZN14qtractorPlugin8openFormEP7QWidget
qtractor:_ZN14qtractorPlugin9closeFormEv
qtractor:_ZN14qtractorPlugin9setPresetERK7QString
qtractor:_ZN14qtractorPluginC1EP18qtractorPluginListP18qtractorPluginType
qtractor:_ZN14qtractorPluginC2EP18qtractorPluginListP18qtractorPluginType
qtractor:_ZN14qtractorPluginD0Ev
qtractor:_ZN14qtractorPluginD1Ev
qtractor:_ZN14qtractorPluginD2Ev
qtractor:_ZN14qtractorTracks10mergeClipsEv
qtractor:_ZN14qtractorTracks10selectNoneEv
qtractor:_ZN14qtractorTracks10unlinkClipEP12qtractorClip
qtractor:_ZN14qtractorTracks11clearSelectEb
qtractor:_ZN14qtractorTracks11exportClipsEv
qtractor:_ZN14qtractorTracks11importClipsE11QStringListm
qtractor:_ZN14qtractorTracks11qt_metacallEN11QMetaObject4CallEiPPv
qtractor:_ZN14qtractorTracks11qt_metacastEPKc
qtractor:_ZN14qtractorTracks11rangeClipExEP12qtractorClipb
qtractor:_ZN14qtractorTracks11removeTrackEP13qtractorTrack
qtractor:_ZN14qtractorTracks11setZoomModeEi
qtractor:_ZN14qtractorTracks11splitSelectEv
qtractor:_ZN14qtractorTracks11updateTrackEP13qtractorTrack
qtractor:_ZN14qtractorTracks12cutClipboardEv
qtractor:_ZN14qtractorTracks12deleteSelectEv
qtractor:_ZN14qtractorTracks12selectInvertEv
qtractor:_ZN14qtractorTracks12updateSelectEv
qtractor:_ZN14qtractorTracks13addMidiTracksERK11QStringListmP13qtractorTrack
qtractor:_ZN14qtractorTracks13copyClipboardEv
qtractor:_ZN14qtractorTracks13crossFadeClipEP12qtractorClip
qtractor:_ZN14qtractorTracks13normalizeClipEP12qtractorClip
qtractor:_ZN14qtractorTracks14addAudioTracksERK11QStringListmmmP13qtractorTrack
qtractor:_ZN14qtractorTracks14pasteClipboardEv
qtractor:_ZN14qtractorTracks14updateContentsEb
qtractor:_ZN14qtractorTracks14zoomCenterPostERKNS_10ZoomCenterE
qtractor:_ZN14qtractorTracks15executeClipToolEiP12qtractorClip
qtractor:_ZN14qtractorTracks15insertEditRangeEP13qtractorTrack
qtractor:_ZN14qtractorTracks15removeEditRangeEP13qtractorTrack
qtractor:_ZN14qtractorTracks15selectEditRangeEb
qtractor:_ZN14qtractorTracks15updateMidiTrackEP13qtractorTrack
qtractor:_ZN14qtractorTracks15updateTrackListEP13qtractorTrack
qtractor:_ZN14qtractorTracks15updateTrackViewEv
qtractor:_ZN14qtractorTracks16mergeExportClipsEP19qtractorClipCommand
qtractor:_ZN14qtractorTracks16staticMetaObjectE
qtractor:_ZN14qtractorTracks16verticalZoomStepEi
qtractor:_ZN14qtractorTracks17dirtyChangeNotifyEv
qtractor:_ZN14qtractorTracks17viewZoomResetSlotEv
qtractor:_ZN14qtractorTracks18horizontalZoomStepEi
qtractor:_ZN14qtractorTracks18selectCurrentTrackEb
qtractor:_ZN14qtractorTracks18verticalZoomInSlotEv
qtractor:_ZN14qtractorTracks19addMidiTrackChannelERK7QStringimP13qtractorTrack
qtractor:_ZN14qtractorTracks19singleTrackSelectedEv
qtractor:_ZN14qtractorTracks19updateMidiTrackItemEP19qtractorMidiManager
qtractor:_ZN14qtractorTracks19verticalZoomOutSlotEv
qtractor:_ZN14qtractorTracks20contentsChangeNotifyEv
qtractor:_ZN14qtractorTracks20horizontalZoomInSlotEv
qtractor:_ZN14qtractorTracks20mergeExportMidiClipsEP19qtractorClipCommand
qtractor:_ZN14qtractorTracks20normalizeClipCommandEP19qtractorClipCommandP12qtractorClip
qtractor:_ZN14qtractorTracks20pasteRepeatClipboardEv
qtractor:_ZN14qtractorTracks20updateContentsRecordEv
qtractor:_ZN14qtractorTracks21horizontalZoomOutSlotEv
qtractor:_ZN14qtractorTracks21mergeExportAudioClipsEP19qtractorClipCommand
qtractor:_ZN14qtractorTracks21selectionChangeNotifyEv
qtractor:_ZN14qtractorTracks22executeClipToolCommandEP23qtractorClipToolCommandP12qtractorClipP21qtractorMidiToolsForm
qtractor:_ZN14qtractorTracks23selectCurrentTrackRangeEb
qtractor:_ZN14qtractorTracks5clearEv
qtractor:_ZN14qtractorTracks6zoomInEv
qtractor:_ZN14qtractorTracks7newClipEv
qtractor:_ZN14qtractorTracks7zoomOutEv
qtractor:_ZN14qtractorTracks8addTrackEv
qtractor:_ZN14qtractorTracks8editClipEP12qtractorClip
qtractor:_ZN14qtractorTracks8loopClipEP12qtractorClip
qtractor:_ZN14qtractorTracks9copyTrackEP13qtractorTrack
qtractor:_ZN14qtractorTracks9editTrackEP13qtractorTrack
qtractor:_ZN14qtractorTracks9rangeClipEP12qtractorClip
qtractor:_ZN14qtractorTracks9selectAllEv
qtractor:_ZN14qtractorTracks9splitClipEP12qtractorClip
qtractor:_ZN14qtractorTracks9tempoClipEP12qtractorClip
qtractor:_ZN14qtractorTracks9zoomResetEv
qtractor:_ZN14qtractorTracksC1EP7QWidget
qtractor:_ZN14qtractorTracksC2EP7QWidget
qtractor:_ZN14qtractorTracksD0Ev
qtractor:_ZN14qtractorTracksD1Ev
qtractor:_ZN14qtractorTracksD2Ev
qtractor:_ZN15qtractorBusForm11contextMenuERK6QPoint
qtractor:_ZN15qtractorBusForm11moveDownBusEv
qtractor:_ZN15qtractorBusForm11qt_metacallEN11QMetaObject4CallEiPPv
qtractor:_ZN15qtractorBusForm11qt_metacastEPKc
qtractor:_ZN15qtractorBusForm12refreshBusesEv
qtractor:_ZN15qtractorBusForm13stabilizeFormEv
qtractor:_ZN15qtractorBusForm14addInputPluginEv
qtractor:_ZN15qtractorBusForm15addOutputPluginEv
qtractor:_ZN15qtractorBusForm15updateMidiSysexEv
qtractor:_ZN15qtractorBusForm16resetPluginListsEv
qtractor:_ZN15qtractorBusForm16staticMetaObjectE
qtractor:_ZN15qtractorBusForm17moveUpInputPluginEv
qtractor:_ZN15qtractorBusForm17removeInputPluginEv
qtractor:_ZN15qtractorBusForm18moveUpOutputPluginEv
qtractor:_ZN15qtractorBusForm18removeOutputPluginEv
qtractor:_ZN15qtractorBusForm19moveDownInputPluginEv
qtractor:_ZN15qtractorBusForm20moveDownOutputPluginEv
qtractor:_ZN15qtractorBusForm21updateMidiInstrumentsEv
qtractor:_ZN15qtractorBusForm3busEv
qtractor:_ZN15qtractorBusForm6rejectEv
qtractor:_ZN15qtractorBusForm6setBusEP11qtractorBus
qtractor:_ZN15qtractorBusForm7changedEv
qtractor:_ZN15qtractorBusForm7isDirtyEv
qtractor:_ZN15qtractorBusForm7showBusEP11qtractorBus
qtractor:_ZN15qtractorBusForm9createBusEv
qtractor:_ZN15qtractorBusForm9deleteBusEv
qtractor:_ZN15qtractorBusForm9midiSysexEv
qtractor:_ZN15qtractorBusForm9moveUpBusEv
qtractor:_ZN15qtractorBusForm9selectBusEv
qtractor:_ZN15qtractorBusForm9updateBusEP11qtractorBus
qtractor:_ZN15qtractorBusForm9updateBusEv
qtractor:_ZN15qtractorBusFormC1EP7QWidget
qtractor:_ZN15qtractorBusFormC2EP7QWidget
qtractor:_ZN15qtractorConnect11contextMenuERK6QPoint
qtractor:_ZN15qtractorConnect11qt_metacallEN11QMetaObject4CallEiPPv
qtractor:_ZN15qtractorConnect11qt_metacastEPKc
qtractor:_ZN15qtractorConnect13disconnectAllEv
qtractor:_ZN15qtractorConnect14connectChangedEv
qtractor:_ZN15qtractorConnect14connectPortsExEP20qtractorPortListItemS1_
qtractor:_ZN15qtractorConnect14updateContentsEb
qtractor:_ZN15qtractorConnect15connectSelectedEv
qtractor:_ZN15qtractorConnect15contentsChangedEv
qtractor:_ZN15qtractorConnect15disconnectAllExEv
qtractor:_ZN15qtractorConnect16canDisconnectAllEv
qtractor:_ZN15qtractorConnect16staticMetaObjectE
qtractor:_ZN15qtractorConnect17connectSelectedExEv
qtractor:_ZN15qtractorConnect17disconnectPortsExEP20qtractorPortListItemS1_
qtractor:_ZN15qtractorConnect18canConnectSelectedEv
qtractor:_ZN15qtractorConnect18disconnectSelectedEv
qtractor:_ZN15qtractorConnect20disconnectSelectedExEv
qtractor:_ZN15qtractorConnect21canDisconnectSelectedEv
qtractor:_ZN15qtractorConnect7refreshEv
qtractor:_ZN15qtractorConnectC1EP22qtractorClientListViewS1_P21qtractorConnectorView
qtractor:_ZN15qtractorConnectC2EP22qtractorClientListViewS1_P21qtractorConnectorView
qtractor:_ZN15qtractorConnectD0Ev
qtractor:_ZN15qtractorConnectD1Ev
qtractor:_ZN15qtractorConnectD2Ev
qtractor:_ZN15qtractorMidiBus10setPanningEP13qtractorTrackf
qtractor:_ZN15qtractorMidiBus11loadElementEP16qtractorDocumentP11QDomElement
qtractor:_ZN15qtractorMidiBus11loadMidiMapEP16qtractorDocumentP11QDomElement
qtractor:_ZN15qtractorMidiBus13loadSysexListEP16qtractorDocumentP11QDomElement
qtractor:_ZN15qtractorMidiBus13updateBusModeEv
qtractor:_ZN15qtractorMidiBus13updateBusNameEv
qtractor:_ZN15qtractorMidiBus15exportSysexListEP20qtractorMidiSequence
qtractor:_ZN15qtractorMidiBus15importSysexListEP20qtractorMidiSequence
qtractor:_ZN15qtractorMidiBus15setMasterVolumeEf
qtractor:_ZN15qtractorMidiBus16setMasterPanningEf
qtractor:_ZN15qtractorMidiBus16updatePluginListEP18qtractorPluginListi
qtractor:_ZN15qtractorMidiBus17setInstrumentNameERK7QString
qtractor:_ZN15qtractorMidiBus4openEv
qtractor:_ZN15qtractorMidiBus5closeEv
qtractor:_ZN15qtractorMidiBus8setPatchEtRK7QStringiiiP13qtractorTrack
qtractor:_ZN15qtractorMidiBus9setVolumeEP13qtractorTrackf
qtractor:_ZN15qtractorMidiBusC1EP18qtractorMidiEngineRK7QStringN11qtractorBus7BusModeEb
qtractor:_ZN15qtractorMidiBusC2EP18qtractorMidiEngineRK7QStringN11qtractorBus7BusModeEb
qtractor:_ZN15qtractorMidiBusD0Ev
qtractor:_ZN15qtractorMidiBusD1Ev
qtractor:_ZN15qtractorMidiBusD2Ev
qtractor:_ZN15qtractorMidiRpn5flushEv
qtractor:_ZN15qtractorMidiRpn7dequeueERNS_5EventE
qtractor:_ZN15qtractorMidiRpn7processERKNS_5EventE
qtractor:_ZN15qtractorMidiRpnC1Ev
qtractor:_ZN15qtractorMidiRpnC2Ev
qtractor:_ZN15qtractorMidiRpnD1Ev
qtractor:_ZN15qtractorMidiRpnD2Ev
qtractor:_ZN15qtractorOptions10g_pOptionsE
qtractor:_ZN15qtractorOptions10parse_argsERK11QStringList
qtractor:_ZN15qtractorOptions11getInstanceEv
qtractor:_ZN15qtractorOptions11loadOptionsEv
qtractor:_ZN15qtractorOptions11print_usageERK7QString
qtractor:_ZN15qtractorOptions11saveOptionsEv
qtractor:_ZN15qtractorOptions17loadActionControlEP7QObject
qtractor:_ZN15qtractorOptions17loadSplitterSizesEP9QSplitterR5QListIiE
qtractor:_ZN15qtractorOptions17saveActionControlEP7QObject
qtractor:_ZN15qtractorOptions17saveSplitterSizesEP9QSplitter
qtractor:_ZN15qtractorOptions18loadWidgetGeometryEP7QWidgetb
qtractor:_ZN15qtractorOptions18saveWidgetGeometryEP7QWidgetb
qtractor:_ZN15qtractorOptions19loadActionShortcutsEP7QObject
qtractor:_ZN15qtractorOptions19loadComboBoxHistoryEP9QComboBoxi
qtractor:_ZN15qtractorOptions19saveActionShortcutsEP7QObject
qtractor:_ZN15qtractorOptions19saveComboBoxHistoryEP9QComboBoxi
qtractor:_ZN15qtractorOptions8settingsEv
qtractor:_ZN15qtractorOptionsC1Ev
qtractor:_ZN15qtractorOptionsC2Ev
qtractor:_ZN15qtractorOptionsD1Ev
qtractor:_ZN15qtractorOptionsD2Ev
qtractor:_ZN15qtractorSession10Properties4copyERKS0_
qtractor:_ZN15qtractorSession10Properties5clearEv
qtractor:_ZN15qtractorSession10g_pSessionE
qtractor:_ZN15qtractorSession10propertiesEv
qtractor:_ZN15qtractorSession10setPlayingEb
qtractor:_ZN15qtractorSession11getInstanceEv
qtractor:_ZN15qtractorSession11insertTrackEP13qtractorTrackS1_
qtractor:_ZN15qtractorSession11loadElementEPNS_8DocumentEP11QDomElement
qtractor:_ZN15qtractorSession11saveElementEPNS_8DocumentEP11QDomElement
qtractor:_ZN15qtractorSession11setBeatTypeEt
qtractor:_ZN15qtractorSession11setEditHeadEm
qtractor:_ZN15qtractorSession11setEditTailEm
qtractor:_ZN15qtractorSession11setPlayHeadEm
qtractor:_ZN15qtractorSession11trackRecordEP13qtractorTrackbmm
qtractor:_ZN15qtractorSession11unlinkTrackEP13qtractorTrack
qtractor:_ZN15qtractorSession11updateTrackEP13qtractorTrack
qtractor:_ZN15qtractorSession12setRecordingEb
qtractor:_ZN15qtractorSession13beatFromFrameEm
qtractor:_ZN15qtractorSession13frameFromBeatEj
qtractor:_ZN15qtractorSession13frameFromTickEm
qtractor:_ZN15qtractorSession13pixelFromTickEm
qtractor:_ZN15qtractorSession13process_curveEm
qtractor:_ZN15qtractorSession13renameSessionERK7QStringS2_
qtractor:_ZN15qtractorSession13setClientNameERK7QString
qtractor:_ZN15qtractorSession13setMuteTracksEb
qtractor:_ZN15qtractorSession13setPlayHeadExEm
qtractor:_ZN15qtractorSession13setSampleRateEj
qtractor:_ZN15qtractorSession13setSessionDirERK7QString
qtractor:_ZN15qtractorSession13setSoloTracksEb
qtractor:_ZN15qtractorSession13tickFromFrameEm
qtractor:_ZN15qtractorSession13tickFromPixelEj
qtractor:_ZN15qtractorSession13updateSessionEmm
qtractor:_ZN15qtractorSession14acquireMidiTagEP13qtractorTrack
qtractor:_ZN15qtractorSession14addMidiManagerEP19qtractorMidiManager
qtractor:_ZN15qtractorSession14createFilePathERK7QStringS2_b
qtractor:_ZN15qtractorSession14process_recordEmm
qtractor:_ZN15qtractorSession14releaseMidiTagEP13qtractorTrack
qtractor:_ZN15qtractorSession14setBeatDivisorEt
qtractor:_ZN15qtractorSession14setBeatsPerBarEt
qtractor:_ZN15qtractorSession14setDescriptionERK7QString
qtractor:_ZN15qtractorSession14setSessionNameERK7QString
qtractor:_ZN15qtractorSession14setSnapPerBeatEt
qtractor:_ZN15qtractorSession15acquireFilePathERK7QString
qtractor:_ZN15qtractorSession15releaseFilePathERK7QString
qtractor:_ZN15qtractorSession15resetAllPluginsEv
qtractor:_ZN15qtractorSession15setCurrentTrackEP13qtractorTrack
qtractor:_ZN15qtractorSession15setRecordTracksEb
qtractor:_ZN15qtractorSession15setTicksPerBeatEt
qtractor:_ZN15qtractorSession15setVerticalZoomEt
qtractor:_ZN15qtractorSession15updateTimeScaleEv
qtractor:_ZN15qtractorSession16acquireTrackNameEP13qtractorTrack
qtractor:_ZN15qtractorSession16frameFromSongPosEt
qtractor:_ZN15qtractorSession16releaseTrackNameEP13qtractorTrack
qtractor:_ZN15qtractorSession16setPixelsPerBeatEt
qtractor:_ZN15qtractorSession16songPosFromFrameEm
qtractor:_ZN15qtractorSession16updateSampleRateEj
qtractor:_ZN15qtractorSession17removeMidiManagerEP19qtractorMidiManager
qtractor:_ZN15qtractorSession17setAutoDeactivateEb
qtractor:_ZN15qtractorSession17setHorizontalZoomEt
qtractor:_ZN15qtractorSession17updateTimeScaleExEv
qtractor:_ZN15qtractorSession18frameFromTickRangeEmmb
qtractor:_ZN15qtractorSession18setAutoTimeStretchEb
qtractor:_ZN15qtractorSession18tickFromFrameRangeEmmb
qtractor:_ZN15qtractorSession19createSessionCursorEmN13qtractorTrack9TrackTypeE
qtractor:_ZN15qtractorSession19unlinkSessionCursorEP21qtractorSessionCursor
qtractor:_ZN15qtractorSession20setLoopRecordingModeEi
qtractor:_ZN15qtractorSession20updateTimeResolutionEv
qtractor:_ZN15qtractorSession21acquireTrackCurveListEP13qtractorTrack
qtractor:_ZN15qtractorSession21autoDeactivatePluginsEb
qtractor:_ZN15qtractorSession21releaseTrackCurveListEP13qtractorTrack
qtractor:_ZN15qtractorSession23resetAllMidiControllersEb
qtractor:_ZN15qtractorSession23setPlayHeadAutoBackwardEm
qtractor:_ZN15qtractorSession25undoAutoDeactivatePluginsEv
qtractor:_ZN15qtractorSession4initEv
qtractor:_ZN15qtractorSession4lockEv
qtractor:_ZN15qtractorSession4openEv
qtractor:_ZN15qtractorSession4seekEmb
qtractor:_ZN15qtractorSession5clearEv
qtractor:_ZN15qtractorSession5closeEv
qtractor:_ZN15qtractorSession6unlockEv
qtractor:_ZN15qtractorSession7acquireEv
qtractor:_ZN15qtractorSession7executeEP15qtractorCommand
qtractor:_ZN15qtractorSession7processEP21qtractorSessionCursormm
qtractor:_ZN15qtractorSession7releaseEv
qtractor:_ZN15qtractorSession7setLoopEmm
qtractor:_ZN15qtractorSession8Document11loadElementEP11QDomElement
qtractor:_ZN15qtractorSession8Document11saveElementEP11QDomElement
qtractor:_ZN15qtractorSession8DocumentC1EP12QDomDocumentPS_P13qtractorFiles
qtractor:_ZN15qtractorSession8DocumentC2EP12QDomDocumentPS_P13qtractorFiles
qtractor:_ZN15qtractorSession8DocumentD0Ev
qtractor:_ZN15qtractorSession8DocumentD1Ev
qtractor:_ZN15qtractorSession8DocumentD2Ev
qtractor:_ZN15qtractorSession8addTrackEP13qtractorTrack
qtractor:_ZN15qtractorSession8sanitizeERK7QString
qtractor:_ZN15qtractorSession8setPunchEmm
qtractor:_ZN15qtractorSession8setTempoEf
qtractor:_ZN15qtractorSession8shutdownEv
qtractor:_ZN15qtractorSession8tickSnapEm
qtractor:_ZN15qtractorSession9frameSnapEm
qtractor:_ZN15qtractorSession9moveTrackEP13qtractorTrackS1_
qtractor:_ZN15qtractorSession9pixelSnapEj
qtractor:_ZN15qtractorSession9stabilizeEi
qtractor:_ZN15qtractorSession9timeScaleEv
qtractor:_ZN15qtractorSession9trackMuteEP13qtractorTrackb
qtractor:_ZN15qtractorSession9trackSoloEP13qtractorTrackb
qtractor:_ZN15qtractorSessionC1Ev
qtractor:_ZN15qtractorSessionC2Ev
qtractor:_ZN15qtractorSessionD1Ev
qtractor:_ZN15qtractorSessionD2Ev
qtractor:_ZN15qtractorSpinBox10g_editModeE
qtractor:_ZN15qtractorSpinBox11qt_metacallEN11QMetaObject4CallEiPPv
qtractor:_ZN15qtractorSpinBox11qt_metacastEPKc
qtractor:_ZN15qtractorSpinBox11setEditModeENS_8EditModeE
qtractor:_ZN15qtractorSpinBox14valueChangedExEd
qtractor:_ZN15qtractorSpinBox16staticMetaObjectE
qtractor:_ZN15qtractorSpinBox19lineEditTextChangedERK7QString
qtractor:_ZN15qtractorSpinBox19spinBoxValueChangedEd
qtractor:_ZN15qtractorSpinBox22spinBoxEditingFinishedEv
qtractor:_ZN15qtractorSpinBox8editModeEv
qtractor:_ZN15qtractorSpinBoxC1EP7QWidget
qtractor:_ZN15qtractorSpinBoxC2EP7QWidget
qtractor:_ZN15qtractorSubject10clearQueueEv
qtractor:_ZN15qtractorSubject10flushQueueEb
qtractor:_ZN15qtractorSubject10resetQueueEv
qtractor:_ZN15qtractorSubject6notifyEP16qtractorObserverb
qtractor:_ZN15qtractorSubject8setValueEfP16qtractorObserver
qtractor:_ZN15qtractorSubjectC1Eff
qtractor:_ZN15qtractorSubjectC2Eff
qtractor:_ZN15qtractorSubjectD1Ev
qtractor:_ZN15qtractorSubjectD2Ev
qtractor:_ZN15qtractorZipFile10extractAllEv
qtractor:_ZN15qtractorZipFile10processAllEv
qtractor:_ZN15qtractorZipFile11extractFileERK7QString
qtractor:_ZN15qtractorZipFile12addDirectoryERK7QString
qtractor:_ZN15qtractorZipFile5closeEv
qtractor:_ZN15qtractorZipFile7addFileERK7QStringS2_
qtractor:_ZN15qtractorZipFile9setPrefixERK7QString
qtractor:_ZN15qtractorZipFileC1EP9QIODevice
qtractor:_ZN15qtractorZipFileC1ERK7QString6QFlagsIN9QIODevice12OpenModeFlagEE
qtractor:_ZN15qtractorZipFileC2EP9QIODevice
qtractor:_ZN15qtractorZipFileC2ERK7QString6QFlagsIN9QIODevice12OpenModeFlagEE
qtractor:_ZN15qtractorZipFileD1Ev
qtractor:_ZN15qtractorZipFileD2Ev
qtractor:_ZN16qtractorAudioBus11autoConnectEv
qtractor:_ZN16qtractorAudioBus11loadElementEP16qtractorDocumentP11QDomElement
qtractor:_ZN16qtractorAudioBus11setChannelsEt
qtractor:_ZN16qtractorAudioBus13buffer_commitEj
qtractor:_ZN16qtractorAudioBus13updateBusModeEv
qtractor:_ZN16qtractorAudioBus13updateBusNameEv
qtractor:_ZN16qtractorAudioBus14buffer_prepareEjPS_
qtractor:_ZN16qtractorAudioBus14process_commitEj
qtractor:_ZN16qtractorAudioBus14setAutoConnectEb
qtractor:_ZN16qtractorAudioBus15process_monitorEj
qtractor:_ZN16qtractorAudioBus15process_prepareEj
qtractor:_ZN16qtractorAudioBus16updatePluginListEP18qtractorPluginListi
qtractor:_ZN16qtractorAudioBus4openEv
qtractor:_ZN16qtractorAudioBus5closeEv
qtractor:_ZN16qtractorAudioBusC1EP19qtractorAudioEngineRK7QStringN11qtractorBus7BusModeEbt
qtractor:_ZN16qtractorAudioBusC2EP19qtractorAudioEngineRK7QStringN11qtractorBus7BusModeEbt
qtractor:_ZN16qtractorAudioBusD0Ev
qtractor:_ZN16qtractorAudioBusD1Ev
qtractor:_ZN16qtractorAudioBusD2Ev
qtractor:_ZN16qtractorClipForm11fileChangedERK7QStringt
qtractor:_ZN16qtractorClipForm11qt_metacallEN11QMetaObject4CallEiPPv
qtractor:_ZN16qtractorClipForm11qt_metacastEPKc
qtractor:_ZN16qtractorClipForm13formatChangedEi
qtractor:_ZN16qtractorClipForm13initFadeTypesEv
qtractor:_ZN16qtractorClipForm13stabilizeFormEv
qtractor:_ZN16qtractorClipForm14browseFilenameEv
qtractor:_ZN16qtractorClipForm15filenameChangedERK7QString
qtractor:_ZN16qtractorClipForm16clipStartChangedEm
qtractor:_ZN16qtractorClipForm16staticMetaObjectE
qtractor:_ZN16qtractorClipForm19trackChannelChangedEi
qtractor:_ZN16qtractorClipForm6acceptEv
qtractor:_ZN16qtractorClipForm6rejectEv
qtractor:_ZN16qtractorClipForm7changedEv
qtractor:_ZN16qtractorClipForm7setClipEP12qtractorClipb
qtractor:_ZN16qtractorClipFormC1EP7QWidget
qtractor:_ZN16qtractorClipFormC2EP7QWidget
qtractor:_ZN16qtractorClipFormD0Ev
qtractor:_ZN16qtractorClipFormD1Ev
qtractor:_ZN16qtractorClipFormD2Ev
qtractor:_ZN16qtractorDocument10archiveExtEv
qtractor:_ZN16qtractorDocument10defaultExtEv
qtractor:_ZN16qtractorDocument11g_pDocumentE
qtractor:_ZN16qtractorDocument11templateExtEv
qtractor:_ZN16qtractorDocument12boolFromTextERK7QString
qtractor:_ZN16qtractorDocument12textFromBoolEb
qtractor:_ZN16qtractorDocument13g_sArchiveExtE
qtractor:_ZN16qtractorDocument13g_sDefaultExtE
qtractor:_ZN16qtractorDocument13setArchiveExtERK7QString
qtractor:_ZN16qtractorDocument13setDefaultExtERK7QString
qtractor:_ZN16qtractorDocument14g_sTemplateExtE
qtractor:_ZN16qtractorDocument14setTemplateExtERK7QString
qtractor:_ZN16qtractorDocument15saveTextElementERK7QStringS2_P11QDomElement
qtractor:_ZN16qtractorDocument17extractedArchivesEv
qtractor:_ZN16qtractorDocument19g_extractedArchivesE
qtractor:_ZN16qtractorDocument22clearExtractedArchivesEb
qtractor:_ZN16qtractorDocument4loadERK7QStringNS_5FlagsE
qtractor:_ZN16qtractorDocument4saveERK7QStringNS_5FlagsE
qtractor:_ZN16qtractorDocument7addFileERK7QString
qtractor:_ZN16qtractorDocument7addFileERK7QStringS2_
qtractor:_ZN16qtractorDocument8setFlagsENS_5FlagsE
qtractor:_ZN16qtractorDocumentC1EP12QDomDocumentRK7QStringNS_5FlagsE
qtractor:_ZN16qtractorDocumentC2EP12QDomDocumentRK7QStringNS_5FlagsE
qtractor:_ZN16qtractorDocumentD0Ev
qtractor:_ZN16qtractorDocumentD1Ev
qtractor:_ZN16qtractorDocumentD2Ev
qtractor:_ZN16qtractorFileList10removeItemEPNS_4ItemE
qtractor:_ZN16qtractorFileList11addClipItemENS_4TypeEP12qtractorClipb
qtractor:_ZN16qtractorFileList11addClipItemENS_4TypeERK7QStringb
qtractor:_ZN16qtractorFileList11addFileItemENS_4TypeEP20qtractorFileListItemb
qtractor:_ZN16qtractorFileList14removeClipItemENS_4TypeEP12qtractorClip
qtractor:_ZN16qtractorFileList14removeClipItemENS_4TypeERK7QString
qtractor:_ZN16qtractorFileList14removeFileItemENS_4TypeEP20qtractorFileListItem
qtractor:_ZN16qtractorFileList5clearEv
qtractor:_ZN16qtractorFileList7addItemENS_4TypeERK7QStringb
qtractor:_ZN16qtractorFileList7cleanupEb
qtractor:_ZN16qtractorMainForm10alsaNotifyEv
qtractor:_ZN16qtractorMainForm10clipExportEv
qtractor:_ZN16qtractorMainForm10clipImportEv
qtractor:_ZN16qtractorMainForm10clipUnlinkEv
qtractor:_ZN16qtractorMainForm10closeEventEP11QCloseEvent
qtractor:_ZN16qtractorMainForm10editDeleteEv
qtractor:_ZN16qtractorMainForm10fileSaveAsEv
qtractor:_ZN16qtractorMainForm10newSessionEv
qtractor:_ZN16qtractorMainForm10queryCloseEv
qtractor:_ZN16qtractorMainForm10setPlayingEb
qtractor:_ZN16qtractorMainForm10setRollingEi
qtractor:_ZN16qtractorMainForm10setShuttleEf
qtractor:_ZN16qtractorMainForm10setSongPosEt
qtractor:_ZN16qtractorMainForm10viewZoomInEv
qtractor:_ZN16qtractorMainForm11addMidiFileERK7QString
qtractor:_ZN16qtractorMainForm11clipLoopSetEv
qtractor:_ZN16qtractorMainForm11editSessionEv
qtractor:_ZN16qtractorMainForm11g_pMainFormE
qtractor:_ZN16qtractorMainForm11getInstanceEv
qtractor:_ZN16qtractorMainForm11helpAboutQtEv
qtractor:_ZN16qtractorMainForm11openSessionEv
qtractor:_ZN16qtractorMainForm11qt_metacallEN11QMetaObject4CallEiPPv
qtractor:_ZN16qtractorMainForm11qt_metacastEPKc
qtractor:_ZN16qtractorMainForm11saveSessionEb
qtractor:_ZN16qtractorMainForm11trackInputsEv
qtractor:_ZN16qtractorMainForm11trackMoveUpEv
qtractor:_ZN16qtractorMainForm11trackRemoveEv
qtractor:_ZN16qtractorMainForm11viewMenubarEb
qtractor:_ZN16qtractorMainForm11viewOptionsEv
qtractor:_ZN16qtractorMainForm11viewRefreshEv
qtractor:_ZN16qtractorMainForm11viewZoomAllEv
qtractor:_ZN16qtractorMainForm11viewZoomOutEv
qtractor:_ZN16qtractorMainForm12activateFileERK7QString
qtractor:_ZN16qtractorMainForm12addAudioFileERK7QString
qtractor:_ZN16qtractorMainForm12autoSaveAsapEv
qtractor:_ZN16qtractorMainForm12autoSaveOpenEv
qtractor:_ZN16qtractorMainForm12clipRangeSetEv
qtractor:_ZN16qtractorMainForm12clipRecordExEb
qtractor:_ZN16qtractorMainForm12clipTakeLastEv
qtractor:_ZN16qtractorMainForm12clipTakeNextEv
qtractor:_ZN16qtractorMainForm12clipTakePrevEv
qtractor:_ZN16qtractorMainForm12closeSessionEv
qtractor:_ZN16qtractorMainForm12setRecordingEb
qtractor:_ZN16qtractorMainForm12startSessionEv
qtractor:_ZN16qtractorMainForm12trackMoveTopEv
qtractor:_ZN16qtractorMainForm12trackOutputsEv
qtractor:_ZN16qtractorMainForm12viewMessagesEb
qtractor:_ZN16qtractorMainForm12viewSnapGridEb
qtractor:_ZN16qtractorMainForm12viewTempoMapEv
qtractor:_ZN16qtractorMainForm12viewToolTipsEb
qtractor:_ZN16qtractorMainForm13addEditorFormEP22qtractorMidiEditorForm
qtractor:_ZN16qtractorMainForm13autoSaveCloseEv
qtractor:_ZN16qtractorMainForm13autoSaveResetEv
qtractor:_ZN16qtractorMainForm13clearFilenameEv
qtractor:_ZN16qtractorMainForm13clipCrossFadeEv
qtractor:_ZN16qtractorMainForm13clipNormalizeEv
qtractor:_ZN16qtractorMainForm13clipTakeFirstEv
qtractor:_ZN16qtractorMainForm13clipTakeRangeEv
qtractor:_ZN16qtractorMainForm13clipTakeResetEv
qtractor:_ZN16qtractorMainForm13editSelectAllEv
qtractor:_ZN16qtractorMainForm13fastTimerSlotEv
qtractor:_ZN16qtractorMainForm13helpShortcutsEv
qtractor:_ZN16qtractorMainForm13midiClkNotifyEf
qtractor:_ZN16qtractorMainForm13midiCtlNotifyERK16qtractorCtlEvent
qtractor:_ZN16qtractorMainForm13midiMmcNotifyERK16qtractorMmcEvent
qtractor:_ZN16qtractorMainForm13midiSppNotifyEit
qtractor:_ZN16qtractorMainForm13slowTimerSlotEv
qtractor:_ZN16qtractorMainForm13stabilizeFormEv
qtractor:_ZN16qtractorMainForm13trackHeightUpEv
qtractor:_ZN16qtractorMainForm13trackMoveDownEv
qtractor:_ZN16qtractorMainForm13transportLoopEv
qtractor:_ZN16qtractorMainForm13transportPlayEv
qtractor:_ZN16qtractorMainForm13transportStopEv
qtractor:_ZN16qtractorMainForm13viewSnapZebraEb
qtractor:_ZN16qtractorMainForm13viewStatusbarEb
qtractor:_ZN16qtractorMainForm13viewZoomResetEv
qtractor:_ZN16qtractorMainForm14appendMessagesERK7QString
qtractor:_ZN16qtractorMainForm14clipTakeSelectEP7QAction
qtractor:_ZN16qtractorMainForm14dragEnterEventEP15QDragEnterEvent
qtractor:_ZN16qtractorMainForm14editSelectNoneEv
qtractor:_ZN16qtractorMainForm14fileOpenRecentEv
qtractor:_ZN16qtractorMainForm14filePropertiesEv
qtractor:_ZN16qtractorMainForm14handle_sigtermEv
qtractor:_ZN16qtractorMainForm14handle_sigusr1Ev
qtractor:_ZN16qtractorMainForm14hideNsmSessionEv
qtractor:_ZN16qtractorMainForm14openNsmSessionEv
qtractor:_ZN16qtractorMainForm14saveNsmSessionEv
qtractor:_ZN16qtractorMainForm14selectMidiFileERK7QStringib
qtractor:_ZN16qtractorMainForm14showNsmSessionEv
qtractor:_ZN16qtractorMainForm14trackCurveModeEP7QAction
qtractor:_ZN16qtractorMainForm14trackDuplicateEv
qtractor:_ZN16qtractorMainForm14trackStateMuteEb
qtractor:_ZN16qtractorMainForm14trackStateSoloEb
qtractor:_ZN16qtractorMainForm14transportMetroEv
qtractor:_ZN16qtractorMainForm14transportPanicEv
qtractor:_ZN16qtractorMainForm14transportPunchEv
qtractor:_ZN16qtractorMainForm14updateClipMenuEv
qtractor:_ZN16qtractorMainForm14updateContentsEP18qtractorMidiEditorb
qtractor:_ZN16qtractorMainForm14updateSnapMenuEv
qtractor:_ZN16qtractorMainForm14updateTakeMenuEv
qtractor:_ZN16qtractorMainForm14updateTimebaseEv
qtractor:_ZN16qtractorMainForm14updateZoomMenuEv
qtractor:_ZN16qtractorMainForm14viewFileSystemEb
qtractor:_ZN16qtractorMainForm15audioBuffNotifyEj
qtractor:_ZN16qtractorMainForm15audioPeakNotifyEv
qtractor:_ZN16qtractorMainForm15audioPortNotifyEv
qtractor:_ZN16qtractorMainForm15audioPropNotifyEv
qtractor:_ZN16qtractorMainForm15audioSessNotifyEPv
qtractor:_ZN16qtractorMainForm15audioShutNotifyEv
qtractor:_ZN16qtractorMainForm15audioSyncNotifyEmb
qtractor:_ZN16qtractorMainForm15audioXrunNotifyEv
qtractor:_ZN16qtractorMainForm15autoSaveSessionEv
qtractor:_ZN16qtractorMainForm15clipTempoAdjustEv
qtractor:_ZN16qtractorMainForm15clipToolsResizeEv
qtractor:_ZN16qtractorMainForm15contentsChangedEv
qtractor:_ZN16qtractorMainForm15dirtyNotifySlotEv
qtractor:_ZN16qtractorMainForm15editInsertRangeEv
qtractor:_ZN16qtractorMainForm15editPasteRepeatEv
qtractor:_ZN16qtractorMainForm15editRemoveRangeEv
qtractor:_ZN16qtractorMainForm15editSelectRangeEv
qtractor:_ZN16qtractorMainForm15editSelectTrackEv
qtractor:_ZN16qtractorMainForm15loadSessionFileERK7QString
qtractor:_ZN16qtractorMainForm15selectAudioFileERK7QStringib
qtractor:_ZN16qtractorMainForm15trackCurveClearEv
qtractor:_ZN16qtractorMainForm15trackCurveColorEv
qtractor:_ZN16qtractorMainForm15trackExportMidiEv
qtractor:_ZN16qtractorMainForm15trackHeightDownEv
qtractor:_ZN16qtractorMainForm15trackImportMidiEv
qtractor:_ZN16qtractorMainForm15trackMoveBottomEv
qtractor:_ZN16qtractorMainForm15trackPropertiesEv
qtractor:_ZN16qtractorMainForm15transportFollowEv
qtractor:_ZN16qtractorMainForm15transportRecordEv
qtractor:_ZN16qtractorMainForm15transportRewindEv
qtractor:_ZN16qtractorMainForm15updateCurveMenuEv
qtractor:_ZN16qtractorMainForm15updateTrackMenuEv
qtractor:_ZN16qtractorMainForm15viewConnectionsEb
qtractor:_ZN16qtractorMainForm15viewControllersEv
qtractor:_ZN16qtractorMainForm15viewInstrumentsEv
qtractor:_ZN16qtractorMainForm15viewToolbarEditEb
qtractor:_ZN16qtractorMainForm15viewToolbarFileEb
qtractor:_ZN16qtractorMainForm15viewToolbarTimeEb
qtractor:_ZN16qtractorMainForm15viewToolbarViewEb
qtractor:_ZN16qtractorMainForm16activateMidiFileERK7QStringi
qtractor:_ZN16qtractorMainForm16changeNotifySlotEP18qtractorMidiEditor
qtractor:_ZN16qtractorMainForm16clipToolsRescaleEv
qtractor:_ZN16qtractorMainForm16contextMenuEventEP17QContextMenuEvent
qtractor:_ZN16qtractorMainForm16editSelectInvertEv
qtractor:_ZN16qtractorMainForm16removeEditorFormEP22qtractorMidiEditorForm
qtractor:_ZN16qtractorMainForm16saveNsmSessionExEb
qtractor:_ZN16qtractorMainForm16staticMetaObjectE
qtractor:_ZN16qtractorMainForm16trackAutoMonitorEb
qtractor:_ZN16qtractorMainForm16trackCurveLockedEb
qtractor:_ZN16qtractorMainForm16trackCurveSelectEP7QActionb
qtractor:_ZN16qtractorMainForm16trackCurveSelectEb
qtractor:_ZN16qtractorMainForm16trackExportAudioEv
qtractor:_ZN16qtractorMainForm16trackHeightResetEv
qtractor:_ZN16qtractorMainForm16trackImportAudioEv
qtractor:_ZN16qtractorMainForm16trackStateRecordEb
qtractor:_ZN16qtractorMainForm16transportForwardEv
qtractor:_ZN16qtractorMainForm16transportLoopSetEv
qtractor:_ZN16qtractorMainForm16updateDirtyCountEb
qtractor:_ZN16qtractorMainForm16updateExportMenuEv
qtractor:_ZN16qtractorMainForm16updateMidiPlayerEv
qtractor:_ZN16qtractorMainForm16updateNotifySlotEj
qtractor:_ZN16qtractorMainForm16updateSessionPreEv
qtractor:_ZN16qtractorMainForm16viewToolbarThumbEb
qtractor:_ZN16qtractorMainForm16viewToolbarTrackEb
qtractor:_ZN16qtractorMainForm16viewZoomVerticalEv
qtractor:_ZN16qtractorMainForm17activateAudioFileERK7QStringi
qtractor:_ZN16qtractorMainForm17clipToolsQuantizeEv
qtractor:_ZN16qtractorMainForm17loadSessionFileExERK7QStringib
qtractor:_ZN16qtractorMainForm17saveSessionFileExERK7QStringib
qtractor:_ZN16qtractorMainForm17sessionBackupPathERK7QString
qtractor:_ZN16qtractorMainForm17trackCurveCaptureEb
qtractor:_ZN16qtractorMainForm17trackCurveProcessEb
qtractor:_ZN16qtractorMainForm17trackNavigateLastEv
qtractor:_ZN16qtractorMainForm17trackNavigateNextEv
qtractor:_ZN16qtractorMainForm17trackNavigateNoneEv
qtractor:_ZN16qtractorMainForm17trackNavigatePrevEv
qtractor:_ZN16qtractorMainForm17trackStateMonitorEb
qtractor:_ZN16qtractorMainForm17transportBackwardEv
qtractor:_ZN16qtractorMainForm17transportContinueEv
qtractor:_ZN16qtractorMainForm17transportModeFullEv
qtractor:_ZN16qtractorMainForm17transportModeNoneEv
qtractor:_ZN16qtractorMainForm17transportPunchSetEv
qtractor:_ZN16qtractorMainForm17updateAudioPlayerEv
qtractor:_ZN16qtractorMainForm17updateEditorFormsEv
qtractor:_ZN16qtractorMainForm17updateMidiControlEv
qtractor:_ZN16qtractorMainForm17updateRecentFilesERK7QString
qtractor:_ZN16qtractorMainForm17updateSessionPostEv
qtractor:_ZN16qtractorMainForm18appendMessagesTextERK7QString
qtractor:_ZN16qtractorMainForm18clipToolsNormalizeEv
qtractor:_ZN16qtractorMainForm18clipToolsRandomizeEv
qtractor:_ZN16qtractorMainForm18clipToolsTimeshiftEv
qtractor:_ZN16qtractorMainForm18clipToolsTransposeEv
qtractor:_ZN16qtractorMainForm18editSelectModeClipEv
qtractor:_ZN16qtractorMainForm18editSelectModeRectEv
qtractor:_ZN16qtractorMainForm18snapPerBeatChangedEi
qtractor:_ZN16qtractorMainForm18trackCurveClearAllEv
qtractor:_ZN16qtractorMainForm18trackNavigateFirstEv
qtractor:_ZN16qtractorMainForm18transportModeSlaveEv
qtractor:_ZN16qtractorMainForm18updateMessagesFontEv
qtractor:_ZN16qtractorMainForm18updateSyncViewHoldEv
qtractor:_ZN16qtractorMainForm18viewToolbarOptionsEb
qtractor:_ZN16qtractorMainForm18viewZoomHorizontalEv
qtractor:_ZN16qtractorMainForm19appendMessagesColorERK7QStringRK6QColor
qtractor:_ZN16qtractorMainForm19appendMessagesErrorERK7QString
qtractor:_ZN16qtractorMainForm19checkRestartSessionEv
qtractor:_ZN16qtractorMainForm19editSelectModeCurveEv
qtractor:_ZN16qtractorMainForm19editSelectModeRangeEv
qtractor:_ZN16qtractorMainForm19selectionNotifySlotEP18qtractorMidiEditor
qtractor:_ZN16qtractorMainForm19trackAutoDeactivateEb
qtractor:_ZN16qtractorMainForm19trackCurveLockedAllEb
qtractor:_ZN16qtractorMainForm19transportModeMasterEv
qtractor:_ZN16qtractorMainForm19updateCurveModeMenuEv
qtractor:_ZN16qtractorMainForm19updateDisplayFormatEv
qtractor:_ZN16qtractorMainForm19updateMessagesLimitEv
qtractor:_ZN16qtractorMainForm19updateMidiMetronomeEv
qtractor:_ZN16qtractorMainForm19updateTransportTimeEm
qtractor:_ZN16qtractorMainForm20editInsertTrackRangeEv
qtractor:_ZN16qtractorMainForm20editRemoveTrackRangeEv
qtractor:_ZN16qtractorMainForm20editSelectTrackRangeEv
qtractor:_ZN16qtractorMainForm20trackCurveCaptureAllEb
qtractor:_ZN16qtractorMainForm20trackCurveProcessAllEb
qtractor:_ZN16qtractorMainForm20transportFastForwardEv
qtractor:_ZN16qtractorMainForm20transportTimeChangedEm
qtractor:_ZN16qtractorMainForm20updateAudioMetronomeEv
qtractor:_ZN16qtractorMainForm20updateMidiQueueTimerEv
qtractor:_ZN16qtractorMainForm20updatePeakAutoRemoveEv
qtractor:_ZN16qtractorMainForm20updateTakeSelectMenuEv
qtractor:_ZN16qtractorMainForm20viewToolbarTransportEb
qtractor:_ZN16qtractorMainForm21mixerSelectionChangedEv
qtractor:_ZN16qtractorMainForm21trackCurveLogarithmicEb
qtractor:_ZN16qtractorMainForm21trackSelectionChangedEv
qtractor:_ZN16qtractorMainForm21transportAutoBackwardEv
qtractor:_ZN16qtractorMainForm21transportTempoChangedEftt
qtractor:_ZN16qtractorMainForm21transportTimeFinishedEv
qtractor:_ZN16qtractorMainForm21updateMessagesCaptureEv
qtractor:_ZN16qtractorMainForm21updateRecentFilesMenuEv
qtractor:_ZN16qtractorMainForm22transportTempoFinishedEv
qtractor:_ZN16qtractorMainForm22updateCustomColorThemeEv
qtractor:_ZN16qtractorMainForm22updateCustomStyleThemeEv
qtractor:_ZN16qtractorMainForm22updateMidiControlModesEv
qtractor:_ZN16qtractorMainForm22updateMidiDriftCorrectEv
qtractor:_ZN16qtractorMainForm22updateTransportModePreEv
qtractor:_ZN16qtractorMainForm23updateTransportModePostEv
qtractor:_ZN16qtractorMainForm25transportTempoContextMenuERK6QPoint
qtractor:_ZN16qtractorMainForm25updateTrackInstrumentMenuEv
qtractor:_ZN16qtractorMainForm26transportTimeFormatChangedEi
qtractor:_ZN16qtractorMainForm5setupEP15qtractorOptions
qtractor:_ZN16qtractorMainForm7clipNewEv
qtractor:_ZN16qtractorMainForm7editCutEv
qtractor:_ZN16qtractorMainForm7fileNewEv
qtractor:_ZN16qtractorMainForm7setStepEi
qtractor:_ZN16qtractorMainForm8clipEditEv
qtractor:_ZN16qtractorMainForm8editCopyEv
qtractor:_ZN16qtractorMainForm8editRedoEv
qtractor:_ZN16qtractorMainForm8editUndoEv
qtractor:_ZN16qtractorMainForm8fileExitEv
qtractor:_ZN16qtractorMainForm8fileOpenEv
qtractor:_ZN16qtractorMainForm8fileSaveEv
qtractor:_ZN16qtractorMainForm8setTrackEiib
qtractor:_ZN16qtractorMainForm8trackAddEv
qtractor:_ZN16qtractorMainForm8viewSnapEv
qtractor:_ZN16qtractorMainForm9clipMergeEv
qtractor:_ZN16qtractorMainForm9clipSplitEv
qtractor:_ZN16qtractorMainForm9dropEventEP10QDropEvent
qtractor:_ZN16qtractorMainForm9editPasteEv
qtractor:_ZN16qtractorMainForm9editSplitEv
qtractor:_ZN16qtractorMainForm9helpAboutEv
qtractor:_ZN16qtractorMainForm9hideEventEP10QHideEvent
qtractor:_ZN16qtractorMainForm9setLocateEm
qtractor:_ZN16qtractorMainForm9showEventEP10QShowEvent
qtractor:_ZN16qtractorMainForm9viewBusesEv
qtractor:_ZN16qtractorMainForm9viewFilesEb
qtractor:_ZN16qtractorMainForm9viewMixerEb
qtractor:_ZN16qtractorMainFormC1EP7QWidget6QFlagsIN2Qt10WindowTypeEE
qtractor:_ZN16qtractorMainFormC2EP7QWidget6QFlagsIN2Qt10WindowTypeEE
qtractor:_ZN16qtractorMainFormD0Ev
qtractor:_ZN16qtractorMainFormD1Ev
qtractor:_ZN16qtractorMainFormD2Ev
qtractor:_ZN16qtractorMessages10closeEventEP11QCloseEvent
qtractor:_ZN16qtractorMessages10setLoggingEbRK7QString
qtractor:_ZN16qtractorMessages11qt_metacallEN11QMetaObject4CallEiPPv
qtractor:_ZN16qtractorMessages11qt_metacastEPKc
qtractor:_ZN16qtractorMessages12stdoutNotifyEi
qtractor:_ZN16qtractorMessages14appendMessagesERK7QString
qtractor:_ZN16qtractorMessages15setMessagesFontERK5QFont
qtractor:_ZN16qtractorMessages16setMessagesLimitEi
qtractor:_ZN16qtractorMessages16staticMetaObjectE
qtractor:_ZN16qtractorMessages17appendMessagesLogERK7QString
qtractor:_ZN16qtractorMessages17flushStdoutBufferEv
qtractor:_ZN16qtractorMessages17setCaptureEnabledEb
qtractor:_ZN16qtractorMessages18appendMessagesLineERK7QString
qtractor:_ZN16qtractorMessages18appendMessagesTextERK7QString
qtractor:_ZN16qtractorMessages18appendStdoutBufferERK7QString
qtractor:_ZN16qtractorMessages19appendMessagesColorERK7QStringRK6QColor
qtractor:_ZN16qtractorMessages19processStdoutBufferEv
qtractor:_ZN16qtractorMessages5clearEv
qtractor:_ZN16qtractorMessagesC1EP7QWidget
qtractor:_ZN16qtractorMessagesC2EP7QWidget
qtractor:_ZN16qtractorMessagesD0Ev
qtractor:_ZN16qtractorMessagesD1Ev
qtractor:_ZN16qtractorMessagesD2Ev
qtractor:_ZN16qtractorMidiClip10setDirtyExEb
qtractor:_ZN16qtractorMidiClip11g_hashFilesE
qtractor:_ZN16qtractorMidiClip11g_hashTableE
qtractor:_ZN16qtractorMidiClip11queryEditorEv
qtractor:_ZN16qtractorMidiClip11startEditorEP7QWidget
qtractor:_ZN16qtractorMidiClip12openMidiFileERK7QStringii
qtractor:_ZN16qtractorMidiClip12saveCopyFileEb
qtractor:_ZN16qtractorMidiClip12updateEditorEb
qtractor:_ZN16qtractorMidiClip13closeMidiFileEv
qtractor:_ZN16qtractorMidiClip13defaultFormatEv
qtractor:_ZN16qtractorMidiClip13insertHashKeyEv
qtractor:_ZN16qtractorMidiClip13removeHashKeyEv
qtractor:_ZN16qtractorMidiClip13setFilenameExERK7QStringb
qtractor:_ZN16qtractorMidiClip13updateHashKeyEv
qtractor:_ZN16qtractorMidiClip14clearHashTableEv
qtractor:_ZN16qtractorMidiClip14createMidiFileERK7QStringi
qtractor:_ZN16qtractorMidiClip14process_exportEmm
qtractor:_ZN16qtractorMidiClip14relinkHashDataEv
qtractor:_ZN16qtractorMidiClip14unlinkHashDataEv
qtractor:_ZN16qtractorMidiClip14updateEditorExEb
qtractor:_ZN16qtractorMidiClip15loadClipElementEP16qtractorDocumentP11QDomElement
qtractor:_ZN16qtractorMidiClip15saveClipElementEP16qtractorDocumentP11QDomElement
qtractor:_ZN16qtractorMidiClip15setClipLengthExEm
qtractor:_ZN16qtractorMidiClip16g_iDefaultFormatE
qtractor:_ZN16qtractorMidiClip16setDefaultFormatEt
qtractor:_ZN16qtractorMidiClip20updateEditorContentsEv
qtractor:_ZN16qtractorMidiClip22createFilePathRevisionEb
qtractor:_ZN16qtractorMidiClip4drawEP8QPainterRK5QRectm
qtractor:_ZN16qtractorMidiClip4openEv
qtractor:_ZN16qtractorMidiClip4seekEm
qtractor:_ZN16qtractorMidiClip5closeEv
qtractor:_ZN16qtractorMidiClip5resetEb
qtractor:_ZN16qtractorMidiClip6updateEv
qtractor:_ZN16qtractorMidiClip7processEmm
qtractor:_ZN16qtractorMidiClip7setLoopEmm
qtractor:_ZN16qtractorMidiClipC1EP13qtractorTrack
qtractor:_ZN16qtractorMidiClipC1ERKS_
qtractor:_ZN16qtractorMidiClipC2EP13qtractorTrack
qtractor:_ZN16qtractorMidiClipC2ERKS_
qtractor:_ZN16qtractorMidiClipD0Ev
qtractor:_ZN16qtractorMidiClipD1Ev
qtractor:_ZN16qtractorMidiClipD2Ev
qtractor:_ZN16qtractorMidiFile10readTracksEPP20qtractorMidiSequencett
qtractor:_ZN16qtractorMidiFile10writeTrackEP20qtractorMidiSequence
qtractor:_ZN16qtractorMidiFile11writeHeaderEttt
qtractor:_ZN16qtractorMidiFile11writeMarkerEPN21qtractorMidiFileTempo6MarkerEm
qtractor:_ZN16qtractorMidiFile11writeTracksEPP20qtractorMidiSequencet
qtractor:_ZN16qtractorMidiFile12saveCopyFileERK7QStringS2_ttP20qtractorMidiSequenceP17qtractorTimeScalem
qtractor:_ZN16qtractorMidiFile17readTrackDurationEt
qtractor:_ZN16qtractorMidiFile22createFilePathRevisionERK7QStringi
qtractor:_ZN16qtractorMidiFile4openERK7QStringi
qtractor:_ZN16qtractorMidiFile5closeEv
qtractor:_ZN16qtractorMidiFile7readIntEt
qtractor:_ZN16qtractorMidiFile8readDataEPht
qtractor:_ZN16qtractorMidiFile8writeIntEit
qtractor:_ZN16qtractorMidiFile9readTrackEP20qtractorMidiSequencet
qtractor:_ZN16qtractorMidiFile9writeDataEPht
qtractor:_ZN16qtractorMidiFile9writeNodeEPN21qtractorMidiFileTempo4NodeEm
qtractor:_ZN16qtractorMidiFileC1Ev
qtractor:_ZN16qtractorMidiFileC2Ev
qtractor:_ZN16qtractorMidiFileD1Ev
qtractor:_ZN16qtractorMidiFileD2Ev
qtractor:_ZN17qtractorAudioClip11g_hashTableE
qtractor:_ZN17qtractorAudioClip13insertHashKeyEv
qtractor:_ZN17qtractorAudioClip13openAudioFileERK7QStringi
qtractor:_ZN17qtractorAudioClip13removeHashKeyEv
qtractor:_ZN17qtractorAudioClip13updateHashKeyEv
qtractor:_ZN17qtractorAudioClip14clearHashTableEv
qtractor:_ZN17qtractorAudioClip14closeAudioFileEv
qtractor:_ZN17qtractorAudioClip14process_exportEmm
qtractor:_ZN17qtractorAudioClip14relinkHashDataEv
qtractor:_ZN17qtractorAudioClip14unlinkHashDataEv
qtractor:_ZN17qtractorAudioClip15loadClipElementEP16qtractorDocumentP11QDomElement
qtractor:_ZN17qtractorAudioClip15saveClipElementEP16qtractorDocumentP11QDomElement
qtractor:_ZN17qtractorAudioClip16updateFractGainsEP19qtractorAudioBuffer
qtractor:_ZN17qtractorAudioClip4drawEP8QPainterRK5QRectm
qtractor:_ZN17qtractorAudioClip4openEv
qtractor:_ZN17qtractorAudioClip4seekEm
qtractor:_ZN17qtractorAudioClip5closeEv
qtractor:_ZN17qtractorAudioClip5resetEb
qtractor:_ZN17qtractorAudioClip5writeEPPfjtj
qtractor:_ZN17qtractorAudioClip7processEmm
qtractor:_ZN17qtractorAudioClip7setLoopEmm
qtractor:_ZN17qtractorAudioClipC1EP13qtractorTrack
qtractor:_ZN17qtractorAudioClipC1ERKS_
qtractor:_ZN17qtractorAudioClipC2EP13qtractorTrack
qtractor:_ZN17qtractorAudioClipC2ERKS_
qtractor:_ZN17qtractorAudioClipD0Ev
qtractor:_ZN17qtractorAudioClipD1Ev
qtractor:_ZN17qtractorAudioClipD2Ev
qtractor:_ZN17qtractorAudioPeak10peakFramesEmmi
qtractor:_ZN17qtractorAudioPeakC1EP21qtractorAudioPeakFile
qtractor:_ZN17qtractorAudioPeakC1ERKS_
qtractor:_ZN17qtractorAudioPeakC2EP21qtractorAudioPeakFile
qtractor:_ZN17qtractorAudioPeakC2ERKS_
qtractor:_ZN17qtractorAudioPeakD1Ev
qtractor:_ZN17qtractorAudioPeakD2Ev
qtractor:_ZN17qtractorCurveFile12modeFromTextERK7QString
qtractor:_ZN17qtractorCurveFile12textFromModeEN13qtractorCurve4ModeE
qtractor:_ZN17qtractorCurveFile4loadEP11QDomElement
qtractor:_ZN17qtractorCurveFile5applyEP17qtractorTimeScale
qtractor:_ZN17qtractorLv2Plugin10deactivateEv
qtractor:_ZN17qtractorLv2Plugin10idleEditorEv
qtractor:_ZN17qtractorLv2Plugin10loadPresetERK7QString
qtractor:_ZN17qtractorLv2Plugin10openEditorEP7QWidget
qtractor:_ZN17qtractorLv2Plugin10savePresetERK7QString
qtractor:_ZN17qtractorLv2Plugin10updateTimeEP19qtractorAudioEngine
qtractor:_ZN17qtractorLv2Plugin11closeEditorEv
qtractor:_ZN17qtractorLv2Plugin11setChannelsEt
qtractor:_ZN17qtractorLv2Plugin11updateParamEPN14qtractorPlugin5ParamEfb
qtractor:_ZN17qtractorLv2Plugin12deletePresetERK7QString
qtractor:_ZN17qtractorLv2Plugin12lv2_ui_touchEjb
qtractor:_ZN17qtractorLv2Plugin12lv2_urid_mapEPKc
qtractor:_ZN17qtractorLv2Plugin13closeEditorExEv
qtractor:_ZN17qtractorLv2Plugin13freezeConfigsEv
qtractor:_ZN17qtractorLv2Plugin13idleEditorAllEv
qtractor:_ZN17qtractorLv2Plugin13loadEditorPosEv
qtractor:_ZN17qtractorLv2Plugin13lv2_ui_resizeERK5QSize
qtractor:_ZN17qtractorLv2Plugin13saveEditorPosEv
qtractor:_ZN17qtractorLv2Plugin13selectProgramEii
qtractor:_ZN17qtractorLv2Plugin14lv2_state_saveEv
qtractor:_ZN17qtractorLv2Plugin14lv2_urid_unmapEj
qtractor:_ZN17qtractorLv2Plugin14realizeConfigsEv
qtractor:_ZN17qtractorLv2Plugin14releaseConfigsEv
qtractor:_ZN17qtractorLv2Plugin14setEditorTitleERK7QString
qtractor:_ZN17qtractorLv2Plugin14updateTimePostEv
qtractor:_ZN17qtractorLv2Plugin15lv2_state_storeEjPKvmjj
qtractor:_ZN17qtractorLv2Plugin16setEditorVisibleEb
qtractor:_ZN17qtractorLv2Plugin17lv2_midnam_updateEv
qtractor:_ZN17qtractorLv2Plugin17lv2_state_restoreERK7QString
qtractor:_ZN17qtractorLv2Plugin17lv2_ui_port_eventEjjjPKv
qtractor:_ZN17qtractorLv2Plugin17lv2_ui_port_indexEPKc
qtractor:_ZN17qtractorLv2Plugin17lv2_ui_port_writeEjjjPKv
qtractor:_ZN17qtractorLv2Plugin17updateInstrumentsEv
qtractor:_ZN17qtractorLv2Plugin18lv2_state_retrieveEjPmPjS1_
qtractor:_ZN17qtractorLv2Plugin18lv2_ui_instantiateEPKcS1_S1_S1_S1_S1_
qtractor:_ZN17qtractorLv2Plugin19lv2_program_changedEi
qtractor:_ZN17qtractorLv2Plugin19lv2_property_updateEj
qtractor:_ZN17qtractorLv2Plugin19updateEditorTitleExEv
qtractor:_ZN17qtractorLv2Plugin20lv2_patch_propertiesEPKc
qtractor:_ZN17qtractorLv2Plugin20lv2_property_changedEjPK8LV2_Atom
qtractor:_ZN17qtractorLv2Plugin20lv2_ui_request_valueEjjPKPK11LV2_Feature
qtractor:_ZN17qtractorLv2Plugin21lv2_ui_extension_dataEPKc
qtractor:_ZN17qtractorLv2Plugin22lv2_state_load_defaultEv
qtractor:_ZN17qtractorLv2Plugin25lv2_time_position_changedEv
qtractor:_ZN17qtractorLv2Plugin5ParamC1EPS_m
qtractor:_ZN17qtractorLv2Plugin5ParamC2EPS_m
qtractor:_ZN17qtractorLv2Plugin7processEPPfS1_j
qtractor:_ZN17qtractorLv2Plugin8Property6updateEfb
qtractor:_ZN17qtractorLv2Plugin8PropertyC1EPS_mPK12LilvNodeImpl
qtractor:_ZN17qtractorLv2Plugin8PropertyC2EPS_mPK12LilvNodeImpl
qtractor:_ZN17qtractorLv2Plugin8activateEv
qtractor:_ZN17qtractorLv2PluginC1EP18qtractorPluginListP21qtractorLv2PluginType
qtractor:_ZN17qtractorLv2PluginC2EP18qtractorPluginListP21qtractorLv2PluginType
qtractor:_ZN17qtractorLv2PluginD0Ev
qtractor:_ZN17qtractorLv2PluginD1Ev
qtractor:_ZN17qtractorLv2PluginD2Ev
qtractor:_ZN17qtractorLv2Worker15g_pWorkerThreadE
qtractor:_ZN17qtractorLv2Worker17g_iWorkerRefCountE
qtractor:_ZN17qtractorLv2Worker6commitEv
qtractor:_ZN17qtractorLv2Worker7processEv
qtractor:_ZN17qtractorLv2Worker7respondEjPKv
qtractor:_ZN17qtractorLv2Worker8scheduleEjPKv
qtractor:_ZN17qtractorLv2WorkerC1EP17qtractorLv2PluginPKPK11LV2_Feature
qtractor:_ZN17qtractorLv2WorkerC2EP17qtractorLv2PluginPKPK11LV2_Feature
qtractor:_ZN17qtractorLv2WorkerD1Ev
qtractor:_ZN17qtractorLv2WorkerD2Ev
qtractor:_ZN17qtractorMidiMeter10setMonitorEP15qtractorMonitor
qtractor:_ZN17qtractorMidiMeter11resizeEventEP12QResizeEvent
qtractor:_ZN17qtractorMidiMeter12defaultColorEi
qtractor:_ZN17qtractorMidiMeter12updatePixmapEv
qtractor:_ZN17qtractorMidiMeter14setMidiMonitorEP19qtractorMidiMonitor
qtractor:_ZN17qtractorMidiMeter15g_currentColorsE
qtractor:_ZN17qtractorMidiMeter15g_defaultColorsE
qtractor:_ZN17qtractorMidiMeter5colorEi
qtractor:_ZN17qtractorMidiMeter5resetEv
qtractor:_ZN17qtractorMidiMeter8setColorEiRK6QColor
qtractor:_ZN17qtractorMidiMeterC1EP19qtractorMidiMonitorP7QWidget
qtractor:_ZN17qtractorMidiMeterC2EP19qtractorMidiMonitorP7QWidget
qtractor:_ZN17qtractorMidiMeterD0Ev
qtractor:_ZN17qtractorMidiMeterD1Ev
qtractor:_ZN17qtractorMidiMeterD2Ev
qtractor:_ZN17qtractorMidiTimer3Key12setAlsaTimerEi
qtractor:_ZN17qtractorMidiTimer3Key12setAlsaTimerEiiii
qtractor:_ZN17qtractorMidiTimerC1Ev
qtractor:_ZN17qtractorMidiTimerC2Ev
qtractor:_ZN17qtractorMidiTimerD1Ev
qtractor:_ZN17qtractorMidiTimerD2Ev
qtractor:_ZN17qtractorMixerRack10markStripsEi
qtractor:_ZN17qtractorMixerRack11cleanStripsEi
qtractor:_ZN17qtractorMixerRack11qt_metacallEN11QMetaObject4CallEiPPv
qtractor:_ZN17qtractorMixerRack11qt_metacastEPKc
qtractor:_ZN17qtractorMixerRack11removeStripEP18qtractorMixerStrip
qtractor:_ZN17qtractorMixerRack11updateStripEP18qtractorMixerStripP15qtractorMonitor
qtractor:_ZN17qtractorMixerRack13busInputsSlotEv
qtractor:_ZN17qtractorMixerRack13ensureVisibleEiiii
qtractor:_ZN17qtractorMixerRack14busMonitorSlotEv
qtractor:_ZN17qtractorMixerRack14busOutputsSlotEv
qtractor:_ZN17qtractorMixerRack16selectionChangedEv
qtractor:_ZN17qtractorMixerRack16setSelectEnabledEb
qtractor:_ZN17qtractorMixerRack16setSelectedStripEP18qtractorMixerStrip
qtractor:_ZN17qtractorMixerRack16staticMetaObjectE
qtractor:_ZN17qtractorMixerRack17busPropertiesSlotEv
qtractor:_ZN17qtractorMixerRack5clearEv
qtractor:_ZN17qtractorMixerRack8addStripEP18qtractorMixerStrip
qtractor:_ZN17qtractorMixerRackC1EP13qtractorMixerRK7QString
qtractor:_ZN17qtractorMixerRackC2EP13qtractorMixerRK7QString
qtractor:_ZN17qtractorMixerRackD0Ev
qtractor:_ZN17qtractorMixerRackD1Ev
qtractor:_ZN17qtractorMixerRackD2Ev
qtractor:_ZN17qtractorNsmClient10nsm_loadedEv
qtractor:_ZN17qtractorNsmClient10open_replyENS_9ReplyCodeE
qtractor:_ZN17qtractorNsmClient10save_replyENS_9ReplyCodeE
qtractor:_ZN17qtractorNsmClient11qt_metacallEN11QMetaObject4CallEiPPv
qtractor:_ZN17qtractorNsmClient11qt_metacastEPKc
qtractor:_ZN17qtractorNsmClient16staticMetaObjectE
qtractor:_ZN17qtractorNsmClient18nsm_announce_errorEPKc
qtractor:_ZN17qtractorNsmClient18nsm_announce_replyEPKcS1_S1_
qtractor:_ZN17qtractorNsmClient4hideEv
qtractor:_ZN17qtractorNsmClient4openEv
qtractor:_ZN17qtractorNsmClient4saveEv
qtractor:_ZN17qtractorNsmClient4showEv
qtractor:_ZN17qtractorNsmClient5dirtyEb
qtractor:_ZN17qtractorNsmClient5replyERK7QStringNS_9ReplyCodeE
qtractor:_ZN17qtractorNsmClient6activeEb
qtractor:_ZN17qtractorNsmClient6loadedEv
qtractor:_ZN17qtractorNsmClient7messageEiRK7QString
qtractor:_ZN17qtractorNsmClient7visibleEb
qtractor:_ZN17qtractorNsmClient8announceERK7QStringS2_
qtractor:_ZN17qtractorNsmClient8nsm_hideEv
qtractor:_ZN17qtractorNsmClient8nsm_openEPKcS1_S1_
qtractor:_ZN17qtractorNsmClient8nsm_saveEv
qtractor:_ZN17qtractorNsmClient8nsm_showEv
qtractor:_ZN17qtractorNsmClient8progressEf
qtractor:_ZN17qtractorNsmClientC1ERK7QStringP7QObject
qtractor:_ZN17qtractorNsmClientC2ERK7QStringP7QObject
qtractor:_ZN17qtractorNsmClientD0Ev
qtractor:_ZN17qtractorNsmClientD1Ev
qtractor:_ZN17qtractorNsmClientD2Ev
qtractor:_ZN17qtractorThumbView10paintEventEP11QPaintEvent
qtractor:_ZN17qtractorThumbView10updateViewEi
qtractor:_ZN17qtractorThumbView11qt_metacallEN11QMetaObject4CallEiPPv
qtractor:_ZN17qtractorThumbView11qt_metacastEPKc
qtractor:_ZN17qtractorThumbView11resizeEventEP12QResizeEvent
qtractor:_ZN17qtractorThumbView11updateThumbEi
qtractor:_ZN17qtractorThumbView12setPlayHeadXEi
qtractor:_ZN17qtractorThumbView13keyPressEventEP9QKeyEvent
qtractor:_ZN17qtractorThumbView14mouseMoveEventEP11QMouseEvent
qtractor:_ZN17qtractorThumbView14resetDragStateEv
qtractor:_ZN17qtractorThumbView14updateContentsEv
qtractor:_ZN17qtractorThumbView14updatePlayHeadEm
qtractor:_ZN17qtractorThumbView15mousePressEventEP11QMouseEvent
qtractor:_ZN17qtractorThumbView16staticMetaObjectE
qtractor:_ZN17qtractorThumbView17mouseReleaseEventEP11QMouseEvent
qtractor:_ZN17qtractorThumbViewC1EP7QWidget
qtractor:_ZN17qtractorThumbViewC2EP7QWidget
qtractor:_ZN17qtractorTimeScale10removeNodeEPNS_4NodeE
qtractor:_ZN17qtractorTimeScale10updateNodeEPNS_4NodeE
qtractor:_ZN17qtractorTimeScale11updateScaleEv
qtractor:_ZN17qtractorTimeScale12MarkerCursor5resetEPNS_6MarkerE
qtractor:_ZN17qtractorTimeScale12MarkerCursor7seekBarEt
qtractor:_ZN17qtractorTimeScale12MarkerCursor8seekBeatEj
qtractor:_ZN17qtractorTimeScale12MarkerCursor8seekTickEm
qtractor:_ZN17qtractorTimeScale12MarkerCursor9seekFrameEm
qtractor:_ZN17qtractorTimeScale12MarkerCursor9seekPixelEi
qtractor:_ZN17qtractorTimeScale12removeMarkerEPNS_6MarkerE
qtractor:_ZN17qtractorTimeScale12textFromTickEmbm
qtractor:_ZN17qtractorTimeScale12tickFromTextERK7QStringbm
qtractor:_ZN17qtractorTimeScale12updateMarkerEPNS_6MarkerE
qtractor:_ZN17qtractorTimeScale13frameFromTextERK7QStringbm
qtractor:_ZN17qtractorTimeScale13indexFromSnapEt
qtractor:_ZN17qtractorTimeScale13snapFromIndexEi
qtractor:_ZN17qtractorTimeScale13textFromFrameEmbm
qtractor:_ZN17qtractorTimeScale13updateMarkersEPNS_4NodeE
qtractor:_ZN17qtractorTimeScale15addKeySignatureEmii
qtractor:_ZN17qtractorTimeScale15frameFromTextExENS_13DisplayFormatERK7QStringbm
qtractor:_ZN17qtractorTimeScale15textFromFrameExENS_13DisplayFormatEmbm
qtractor:_ZN17qtractorTimeScale16keySignatureNameEiic
qtractor:_ZN17qtractorTimeScale18frameFromTickRangeEmmb
qtractor:_ZN17qtractorTimeScale18tickFromFrameRangeEmmb
qtractor:_ZN17qtractorTimeScale4Node10setTempoExEft
qtractor:_ZN17qtractorTimeScale4Node5resetEPS0_
qtractor:_ZN17qtractorTimeScale4Node6updateEv
qtractor:_ZN17qtractorTimeScale4copyERKS_
qtractor:_ZN17qtractorTimeScale4syncERKS_
qtractor:_ZN17qtractorTimeScale5clearEv
qtractor:_ZN17qtractorTimeScale5resetEv
qtractor:_ZN17qtractorTimeScale6Cursor5resetEPNS_4NodeE
qtractor:_ZN17qtractorTimeScale6Cursor7seekBarEt
qtractor:_ZN17qtractorTimeScale6Cursor8seekBeatEj
qtractor:_ZN17qtractorTimeScale6Cursor8seekTickEm
qtractor:_ZN17qtractorTimeScale6Cursor9seekFrameEm
qtractor:_ZN17qtractorTimeScale6Cursor9seekPixelEi
qtractor:_ZN17qtractorTimeScale7addNodeEmfttt
qtractor:_ZN17qtractorTimeScale9addMarkerEmRK7QStringRK6QColor
qtractor:_ZN17qtractorTimeScale9snapItemsEi
qtractor:_ZN17qtractorTrackForm11bankChangedEv
qtractor:_ZN17qtractorTrackForm11progChangedEv
qtractor:_ZN17qtractorTrackForm11qt_metacallEN11QMetaObject4CallEiPPv
qtractor:_ZN17qtractorTrackForm11qt_metacastEPKc
qtractor:_ZN17qtractorTrackForm11updateBanksERK7QStringiii
qtractor:_ZN17qtractorTrackForm12moveUpPluginEv
qtractor:_ZN17qtractorTrackForm12removePluginEv
qtractor:_ZN17qtractorTrackForm13stabilizeFormEv
qtractor:_ZN17qtractorTrackForm13updateChannelEiiii
qtractor:_ZN17qtractorTrackForm14busNameClickedEv
qtractor:_ZN17qtractorTrackForm14channelChangedEi
qtractor:_ZN17qtractorTrackForm14moveDownPluginEv
qtractor:_ZN17qtractorTrackForm14setMidiProgramEii
qtractor:_ZN17qtractorTrackForm14updateBanksAddERK5QIconP19qtractorMidiManagerRK7QStringiRi
qtractor:_ZN17qtractorTrackForm14updateProgramsERK7QStringii
qtractor:_ZN17qtractorTrackForm15trackIconActionEv
qtractor:_ZN17qtractorTrackForm15updateColorItemEP9QComboBoxRK6QColor
qtractor:_ZN17qtractorTrackForm15updateColorTextEP9QComboBoxRK6QColor
qtractor:_ZN17qtractorTrackForm15updateTrackTypeEN13qtractorTrack9TrackTypeE
qtractor:_ZN17qtractorTrackForm16staticMetaObjectE
qtractor:_ZN17qtractorTrackForm16trackIconChangedEv
qtractor:_ZN17qtractorTrackForm16trackIconClickedEv
qtractor:_ZN17qtractorTrackForm16trackTypeChangedEv
qtractor:_ZN17qtractorTrackForm17addIconMenuActionERK7QStringS2_
qtractor:_ZN17qtractorTrackForm17instrumentChangedEi
qtractor:_ZN17qtractorTrackForm17pluginListChangedEv
qtractor:_ZN17qtractorTrackForm17updateInstrumentsEv
qtractor:_ZN17qtractorTrackForm17updateProgramsAddERK5QIconP19qtractorMidiManagerRK7QStringiiRi
qtractor:_ZN17qtractorTrackForm19g_sMidiInputBusNameE
qtractor:_ZN17qtractorTrackForm19inputBusNameChangedEi
qtractor:_ZN17qtractorTrackForm19loadDefaultBusNamesEN13qtractorTrack9TrackTypeE
qtractor:_ZN17qtractorTrackForm19updateOutputBusNameERK7QString
qtractor:_ZN17qtractorTrackForm20bankSelMethodChangedEi
qtractor:_ZN17qtractorTrackForm20g_sAudioInputBusNameE
qtractor:_ZN17qtractorTrackForm20g_sMidiOutputBusNameE
qtractor:_ZN17qtractorTrackForm20outputBusNameChangedEi
qtractor:_ZN17qtractorTrackForm20updateInstrumentsAddERK5QIconP19qtractorMidiManager
qtractor:_ZN17qtractorTrackForm21g_sAudioOutputBusNameE
qtractor:_ZN17qtractorTrackForm21selectBackgroundColorEv
qtractor:_ZN17qtractorTrackForm21selectForegroundColorEv
qtractor:_ZN17qtractorTrackForm22backgroundColorChangedERK7QString
qtractor:_ZN17qtractorTrackForm22foregroundColorChangedERK7QString
qtractor:_ZN17qtractorTrackForm6acceptEv
qtractor:_ZN17qtractorTrackForm6rejectEv
qtractor:_ZN17qtractorTrackForm7changedEv
qtractor:_ZN17qtractorTrackForm8setTrackEP13qtractorTrack
qtractor:_ZN17qtractorTrackForm9addPluginEv
qtractor:_ZN17qtractorTrackForm9colorItemEP9QComboBox
qtractor:_ZN17qtractorTrackFormC1EP7QWidget
qtractor:_ZN17qtractorTrackFormC2EP7QWidget
qtractor:_ZN17qtractorTrackFormD0Ev
qtractor:_ZN17qtractorTrackFormD1Ev
qtractor:_ZN17qtractorTrackFormD2Ev
qtractor:_ZN17qtractorTrackList10trackRowAtERK6QPoint
qtractor:_ZN17qtractorTrackList10wheelEventEP11QWheelEvent
qtractor:_ZN17qtractorTrackList11HeaderModelC1EP7QObject
qtractor:_ZN17qtractorTrackList11HeaderModelC2EP7QObject
qtractor:_ZN17qtractorTrackList11clearSelectEv
qtractor:_ZN17qtractorTrackList11insertTrackEiP13qtractorTrack
qtractor:_ZN17qtractorTrackList11qt_metacallEN11QMetaObject4CallEiPPv
qtractor:_ZN17qtractorTrackList11qt_metacastEPKc
qtractor:_ZN17qtractorTrackList11removeTrackEi
qtractor:_ZN17qtractorTrackList11resizeEventEP12QResizeEvent
qtractor:_ZN17qtractorTrackList11selectTrackEibb
qtractor:_ZN17qtractorTrackList11updateIconsEv
qtractor:_ZN17qtractorTrackList11updateItemsEv
qtractor:_ZN17qtractorTrackList11updateTrackEP13qtractorTrack
qtractor:_ZN17qtractorTrackList12drawContentsEP8QPainterRK5QRect
qtractor:_ZN17qtractorTrackList12updateHeaderEv
qtractor:_ZN17qtractorTrackList12updatePixmapEii
qtractor:_ZN17qtractorTrackList12updateSelectEb
qtractor:_ZN17qtractorTrackList13dragMoveEventEP14QDragMoveEvent
qtractor:_ZN17qtractorTrackList13keyPressEventEP9QKeyEvent
qtractor:_ZN17qtractorTrackList13trackColumnAtERK6QPoint
qtractor:_ZN17qtractorTrackList14dragEnterEventEP15QDragEnterEvent
qtractor:_ZN17qtractorTrackList14mouseMoveEventEP11QMouseEvent
qtractor:_ZN17qtractorTrackList14moveRubberBandERK5QRect
qtractor:_ZN17qtractorTrackList14moveRubberBandERK6QPoint
qtractor:_ZN17qtractorTrackList14resetDragStateEv
qtractor:_ZN17qtractorTrackList14updateContentsERK5QRect
qtractor:_ZN17qtractorTrackList14updateContentsEv
qtractor:_ZN17qtractorTrackList15mousePressEventEP11QMouseEvent
qtractor:_ZN17qtractorTrackList15resetHeaderSizeEi
qtractor:_ZN17qtractorTrackList15setCurrentTrackEP13qtractorTrack
qtractor:_ZN17qtractorTrackList16contextMenuEventEP17QContextMenuEvent
qtractor:_ZN17qtractorTrackList16selectionChangedEv
qtractor:_ZN17qtractorTrackList16staticMetaObjectE
qtractor:_ZN17qtractorTrackList16updateHeaderSizeEiii
qtractor:_ZN17qtractorTrackList17ensureVisibleRectERK5QRect
qtractor:_ZN17qtractorTrackList17mouseReleaseEventEP11QMouseEvent
qtractor:_ZN17qtractorTrackList18setCurrentTrackRowEi
qtractor:_ZN17qtractorTrackList18updateTrackButtonsEv
qtractor:_ZN17qtractorTrackList19contentsYMovingSlotEii
qtractor:_ZN17qtractorTrackList19updateMidiTrackItemEP19qtractorMidiManager
qtractor:_ZN17qtractorTrackList20updateContentsHeightEv
qtractor:_ZN17qtractorTrackList21mouseDoubleClickEventEP11QMouseEvent
qtractor:_ZN17qtractorTrackList4Item10updateIconEPS_
qtractor:_ZN17qtractorTrackList4Item10updateItemEPS_
qtractor:_ZN17qtractorTrackList4Item12updateMetersEPS_b
qtractor:_ZN17qtractorTrackList4Item13updateButtonsEPS_b
qtractor:_ZN17qtractorTrackList4Item13updatePluginsEPS_b
qtractor:_ZN17qtractorTrackList4ItemC1EP13qtractorTrack
qtractor:_ZN17qtractorTrackList4ItemC2EP13qtractorTrack
qtractor:_ZN17qtractorTrackList4ItemD1Ev
qtractor:_ZN17qtractorTrackList4ItemD2Ev
qtractor:_ZN17qtractorTrackList5clearEv
qtractor:_ZN17qtractorTrackList9dropEventEP10QDropEvent
qtractor:_ZN17qtractorTrackListC1EP14qtractorTracksP7QWidget
qtractor:_ZN17qtractorTrackListC2EP14qtractorTracksP7QWidget
qtractor:_ZN17qtractorTrackListD0Ev
qtractor:_ZN17qtractorTrackListD1Ev
qtractor:_ZN17qtractorTrackListD2Ev
qtractor:_ZN17qtractorTrackTime10wheelEventEP11QWheelEvent
qtractor:_ZN17qtractorTrackTime11eventFilterEP7QObjectP6QEvent
qtractor:_ZN17qtractorTrackTime11qt_metacallEN11QMetaObject4CallEiPPv
qtractor:_ZN17qtractorTrackTime11qt_metacastEPKc
qtractor:_ZN17qtractorTrackTime11resizeEventEP12QResizeEvent
qtractor:_ZN17qtractorTrackTime12drawContentsEP8QPainterRK5QRect
qtractor:_ZN17qtractorTrackTime12updatePixmapEii
qtractor:_ZN17qtractorTrackTime13dragHeadStartERK6QPoint
qtractor:_ZN17qtractorTrackTime13keyPressEventEP9QKeyEvent
qtractor:_ZN17qtractorTrackTime14mouseMoveEventEP11QMouseEvent
qtractor:_ZN17qtractorTrackTime14resetDragStateEv
qtractor:_ZN17qtractorTrackTime14updateContentsERK5QRect
qtractor:_ZN17qtractorTrackTime14updateContentsEv
qtractor:_ZN17qtractorTrackTime15mousePressEventEP11QMouseEvent
qtractor:_ZN17qtractorTrackTime16contextMenuEventEP17QContextMenuEvent
qtractor:_ZN17qtractorTrackTime16staticMetaObjectE
qtractor:_ZN17qtractorTrackTime17mouseReleaseEventEP11QMouseEvent
qtractor:_ZN17qtractorTrackTime19contentsXMovingSlotEii
qtractor:_ZN17qtractorTrackTime21mouseDoubleClickEventEP11QMouseEvent
qtractor:_ZN17qtractorTrackTimeC1EP14qtractorTracksP7QWidget
qtractor:_ZN17qtractorTrackTimeC2EP14qtractorTracksP7QWidget
qtractor:_ZN17qtractorTrackView10selectClipEb
qtractor:_ZN17qtractorTrackView10updateRectERK5QRect
qtractor:_ZN17qtractorTrackView10wheelEventEP11QWheelEvent
qtractor:_ZN17qtractorTrackView11clearSelectEb
qtractor:_ZN17qtractorTrackView11dragTimeoutEv
qtractor:_ZN17qtractorTrackView11eventFilterEP7QObjectP6QEvent
qtractor:_ZN17qtractorTrackView11g_clipboardE
qtractor:_ZN17qtractorTrackView11isClipboardEv
qtractor:_ZN17qtractorTrackView11qt_metacallEN11QMetaObject4CallEiPPv
qtractor:_ZN17qtractorTrackView11qt_metacastEPKc
qtractor:_ZN17qtractorTrackView11resizeEventEP12QResizeEvent
qtractor:_ZN17qtractorTrackView11selectFlagsE6QFlagsIN2Qt16KeyboardModifierEE
qtractor:_ZN17qtractorTrackView11setDropSpanEb
qtractor:_ZN17qtractorTrackView11setEditHeadEm
qtractor:_ZN17qtractorTrackView11setEditTailEm
qtractor:_ZN17qtractorTrackView11setPlayHeadEmb
qtractor:_ZN17qtractorTrackView11setSnapGridEb
qtractor:_ZN17qtractorTrackView11setToolTipsEb
qtractor:_ZN17qtractorTrackView12dragClipDropERK6QPointbPK9QMimeData
qtractor:_ZN17qtractorTrackView12dragClipMoveERK6QPointb
qtractor:_ZN17qtractorTrackView12drawContentsEP8QPainterRK5QRect
qtractor:_ZN17qtractorTrackView12setCurveEditEb
qtractor:_ZN17qtractorTrackView12setSnapZebraEb
qtractor:_ZN17qtractorTrackView12updatePixmapEii
qtractor:_ZN17qtractorTrackView12updateSelectEv
qtractor:_ZN17qtractorTrackView13dragClipStartERK6QPointRK6QFlagsIN2Qt16KeyboardModifierEEbP5QRect
qtractor:_ZN17qtractorTrackView13dragCurveMoveERK6QPointb
qtractor:_ZN17qtractorTrackView13dragCurveNodeERK6QPointRK6QFlagsIN2Qt16KeyboardModifierEE
qtractor:_ZN17qtractorTrackView13dragMoveEventEP14QDragMoveEvent
qtractor:_ZN17qtractorTrackView13drawPositionXERiib
qtractor:_ZN17qtractorTrackView13ensureVisibleEiiii
qtractor:_ZN17qtractorTrackView13focusOutEventEP11QFocusEvent
qtractor:_ZN17qtractorTrackView13keyPressEventEP9QKeyEvent
qtractor:_ZN17qtractorTrackView13selectClipAllEv
qtractor:_ZN17qtractorTrackView13setSelectModeENS_10SelectModeE
qtractor:_ZN17qtractorTrackView14clearClipboardEv
qtractor:_ZN17qtractorTrackView14dragEnterEventEP15QDragEnterEvent
qtractor:_ZN17qtractorTrackView14dragLeaveEventEP15QDragLeaveEvent
qtractor:_ZN17qtractorTrackView14mouseMoveEventEP11QMouseEvent
qtractor:_ZN17qtractorTrackView14moveClipSelectEP13qtractorTrack
qtractor:_ZN17qtractorTrackView14pasteClipboardEtm
qtractor:_ZN17qtractorTrackView14resetDragStateEv
qtractor:_ZN17qtractorTrackView14selectClipFileEN13qtractorTrack9TrackTypeERK7QStringib
qtractor:_ZN17qtractorTrackView14selectClipRectERK5QRectNS_10SelectModeEiNS_10SelectEditE
qtractor:_ZN17qtractorTrackView14selectCurveAllEv
qtractor:_ZN17qtractorTrackView14updateContentsERK5QRect
qtractor:_ZN17qtractorTrackView14updateContentsEv
qtractor:_ZN17qtractorTrackView15dragClipStartExERK6QPointRK6QFlagsIN2Qt16KeyboardModifierEEP12qtractorClipRK5QRect
qtractor:_ZN17qtractorTrackView15mousePressEventEP11QMouseEvent
qtractor:_ZN17qtractorTrackView15moveCurveSelectERK6QPoint
qtractor:_ZN17qtractorTrackView15pasteClipSelectEP13qtractorTrack
qtractor:_ZN17qtractorTrackView15queryClipSelectEP12qtractorClip
qtractor:_ZN17qtractorTrackView15selectClipTrackEP13qtractorTrackb
qtractor:_ZN17qtractorTrackView15selectCurveRectERK5QRectNS_10SelectModeEiNS_10SelectEditE
qtractor:_ZN17qtractorTrackView15setSyncViewHoldEb
qtractor:_ZN17qtractorTrackView16canClipDropEventEP10QDropEvent
qtractor:_ZN17qtractorTrackView16dragClipFadeDropERK6QPoint
qtractor:_ZN17qtractorTrackView16dragClipFadeMoveERK6QPoint
qtractor:_ZN17qtractorTrackView16pasteCurveSelectERK6QPoint
qtractor:_ZN17qtractorTrackView16selectClipInvertEv
qtractor:_ZN17qtractorTrackView16selectCurveTrackEP13qtractorTrackb
qtractor:_ZN17qtractorTrackView16staticMetaObjectE
qtractor:_ZN17qtractorTrackView16updateClipSelectEv
qtractor:_ZN17qtractorTrackView17dragClipDropEventEP10QDropEvent
qtractor:_ZN17qtractorTrackView17executeClipSelectENS_7CommandEP12qtractorClip
qtractor:_ZN17qtractorTrackView17mouseReleaseEventEP11QMouseEvent
qtractor:_ZN17qtractorTrackView17openEditCurveNodeEP13qtractorCurvePNS0_4NodeE
qtractor:_ZN17qtractorTrackView17selectCurveInvertEv
qtractor:_ZN17qtractorTrackView17setSyncViewHoldOnEb
qtractor:_ZN17qtractorTrackView17updateCurveSelectEv
qtractor:_ZN17qtractorTrackView18closeEditCurveNodeEv
qtractor:_ZN17qtractorTrackView18dragClipRepeatLeftERK6QPoint
qtractor:_ZN17qtractorTrackView18dragClipResizeDropERK6QPointb
qtractor:_ZN17qtractorTrackView18dragClipResizeMoveERK6QPoint
qtractor:_ZN17qtractorTrackView18dragClipSelectMoveERK6QPoint
qtractor:_ZN17qtractorTrackView18ensureVisibleFrameEm
qtractor:_ZN17qtractorTrackView18executeCurveSelectENS_7CommandE
qtractor:_ZN17qtractorTrackView19contentsYMovingSlotEii
qtractor:_ZN17qtractorTrackView19dragClipRepeatRightERK6QPoint
qtractor:_ZN17qtractorTrackView19singleTrackSelectedEv
qtractor:_ZN17qtractorTrackView19updateContentsWidthEi
qtractor:_ZN17qtractorTrackView20editCurveNodeChangedEv
qtractor:_ZN17qtractorTrackView20selectClipTrackRangeEP13qtractorTrackb
qtractor:_ZN17qtractorTrackView20singleTrackClipboardEv
qtractor:_ZN17qtractorTrackView20updateContentsHeightEv
qtractor:_ZN17qtractorTrackView20updateContentsRecordEv
qtractor:_ZN17qtractorTrackView21editCurveNodeFinishedEv
qtractor:_ZN17qtractorTrackView21mouseDoubleClickEventEP11QMouseEvent
qtractor:_ZN17qtractorTrackView21selectCurveTrackRangeEP13qtractorTrackb
qtractor:_ZN17qtractorTrackView23setPlayHeadAutoBackwardEm
qtractor:_ZN17qtractorTrackView5clearEv
qtractor:_ZN17qtractorTrackView7keyStepEiRK6QFlagsIN2Qt16KeyboardModifierEE
qtractor:_ZN17qtractorTrackView8dropClipERK6QPointPK9QMimeData
qtractor:_ZN17qtractorTrackView9ClipBoard5clearEv
qtractor:_ZN17qtractorTrackView9ClipBoard7addClipEP12qtractorClipRK5QRectmmm
qtractor:_ZN17qtractorTrackView9ClipBoard7addNodeEPN13qtractorCurve4NodeERK5QRectmf
qtractor:_ZN17qtractorTrackView9cloneClipEP12qtractorClip
qtractor:_ZN17qtractorTrackView9dropEventEP10QDropEvent
qtractor:_ZN17qtractorTrackViewC1EP14qtractorTracksP7QWidget
qtractor:_ZN17qtractorTrackViewC2EP14qtractorTracksP7QWidget
qtractor:_ZN17qtractorTrackViewD0Ev
qtractor:_ZN17qtractorTrackViewD1Ev
qtractor:_ZN17qtractorTrackViewD2Ev
qtractor:_ZN17qtractorVstPlugin10deactivateEv
qtractor:_ZN17qtractorVstPlugin10findPluginEP8_AEffect
qtractor:_ZN17qtractorVstPlugin10idleEditorEv
qtractor:_ZN17qtractorVstPlugin10openEditorEP7QWidget
qtractor:_ZN17qtractorVstPlugin11closeEditorEv
qtractor:_ZN17qtractorVstPlugin11setChannelsEt
qtractor:_ZN17qtractorVstPlugin11updateParamEPN14qtractorPlugin5ParamEfb
qtractor:_ZN17qtractorVstPlugin12resizeEditorEii
qtractor:_ZN17qtractorVstPlugin13freezeConfigsEv
qtractor:_ZN17qtractorVstPlugin13idleEditorAllEv
qtractor:_ZN17qtractorVstPlugin13selectProgramEii
qtractor:_ZN17qtractorVstPlugin14loadPresetFileERK7QString
qtractor:_ZN17qtractorVstPlugin14releaseConfigsEv
qtractor:_ZN17qtractorVstPlugin14savePresetFileERK7QString
qtractor:_ZN17qtractorVstPlugin14setEditorTitleERK7QString
qtractor:_ZN17qtractorVstPlugin16setEditorVisibleEb
qtractor:_ZN17qtractorVstPlugin17updateParamValuesEb
qtractor:_ZN17qtractorVstPlugin5ParamC1EPS_m
qtractor:_ZN17qtractorVstPlugin5ParamC2EPS_m
qtractor:_ZN17qtractorVstPlugin7processEPPfS1_j
qtractor:_ZN17qtractorVstPlugin8activateEv
qtractor:_ZN17qtractorVstPlugin9configureERK7QStringS2_
qtractor:_ZN17qtractorVstPluginC1EP18qtractorPluginListP21qtractorVstPluginType
qtractor:_ZN17qtractorVstPluginC2EP18qtractorPluginListP21qtractorVstPluginType
qtractor:_ZN17qtractorVstPluginD0Ev
qtractor:_ZN17qtractorVstPluginD1Ev
qtractor:_ZN17qtractorVstPluginD2Ev
qtractor:_ZN17qtractorVstPreset10load_chunkER5QFilei
qtractor:_ZN17qtractorVstPreset10save_chunkER5QFileRKNS_5ChunkE
qtractor:_ZN17qtractorVstPreset15load_bank_chunkER5QFile
qtractor:_ZN17qtractorVstPreset15load_bank_progsER5QFile
qtractor:_ZN17qtractorVstPreset15load_prog_chunkER5QFile
qtractor:_ZN17qtractorVstPreset15save_bank_chunkER5QFileRKNS_5ChunkE
qtractor:_ZN17qtractorVstPreset15save_bank_progsER5QFile
qtractor:_ZN17qtractorVstPreset15save_prog_chunkER5QFileRKNS_5ChunkE
qtractor:_ZN17qtractorVstPreset16load_prog_paramsER5QFile
qtractor:_ZN17qtractorVstPreset16save_prog_paramsER5QFile
qtractor:_ZN17qtractorVstPreset4loadERK7QString
qtractor:_ZN17qtractorVstPreset4saveERK7QString
qtractor:_ZN17qtractorVstPreset9get_chunkERNS_5ChunkEi
qtractor:_ZN17qtractorVstPresetC1EP17qtractorVstPlugin
qtractor:_ZN17qtractorVstPresetC2EP17qtractorVstPlugin
qtractor:_ZN17qtractorZipDevice10extractAllEv
qtractor:_ZN17qtractorZipDevice10processAllEv
qtractor:_ZN17qtractorZipDevice12extractEntryERK7QStringRK10FileHeader
qtractor:_ZN17qtractorZipDevice12processEntryERK7QStringR10FileHeader
qtractor:_ZN17qtractorZipDevice8addEntryENS_9EntryTypeERK7QStringS3_
qtractor:_ZN17qtractorZipDevice9scanFilesEv
qtractor:_ZN17qtractorZipDevice9setPrefixERK7QString
qtractor:_ZN18qtractorAudioMeter10setMonitorEP15qtractorMonitor
qtractor:_ZN18qtractorAudioMeter11resizeEventEP12QResizeEvent
qtractor:_ZN18qtractorAudioMeter12defaultColorEi
qtractor:_ZN18qtractorAudioMeter12updatePixmapEv
qtractor:_ZN18qtractorAudioMeter15g_currentColorsE
qtractor:_ZN18qtractorAudioMeter15g_defaultColorsE
qtractor:_ZN18qtractorAudioMeter15setAudioMonitorEP20qtractorAudioMonitor
qtractor:_ZN18qtractorAudioMeter5colorEi
qtractor:_ZN18qtractorAudioMeter5resetEv
qtractor:_ZN18qtractorAudioMeter8setColorEiRK6QColor
qtractor:_ZN18qtractorAudioMeterC1EP20qtractorAudioMonitorP7QWidget
qtractor:_ZN18qtractorAudioMeterC2EP20qtractorAudioMonitorP7QWidget
qtractor:_ZN18qtractorAudioMeterD0Ev
qtractor:_ZN18qtractorAudioMeterD1Ev
qtractor:_ZN18qtractorAudioMeterD2Ev
qtractor:_ZN18qtractorBusCommand9createBusEv
qtractor:_ZN18qtractorBusCommand9deleteBusEv
qtractor:_ZN18qtractorBusCommand9updateBusEv
qtractor:_ZN18qtractorBusCommandC1ERK7QStringP11qtractorBusNS3_7BusModeE
qtractor:_ZN18qtractorBusCommandC2ERK7QStringP11qtractorBusNS3_7BusModeE
qtractor:_ZN18qtractorClipSelect10selectItemEP12qtractorClipRK5QRectb
qtractor:_ZN18qtractorClipSelect11singleTrackEv
qtractor:_ZN18qtractorClipSelect5clearEv
qtractor:_ZN18qtractorClipSelect5resetEv
qtractor:_ZN18qtractorClipSelect7addItemEP12qtractorClipRK5QRectm
qtractor:_ZN18qtractorClipSelectC1Ev
qtractor:_ZN18qtractorClipSelectC2Ev
qtractor:_ZN18qtractorClipSelectD1Ev
qtractor:_ZN18qtractorClipSelectD2Ev
qtractor:_ZN18qtractorExportForm11qt_metacallEN11QMetaObject4CallEiPPv
qtractor:_ZN18qtractorExportForm11qt_metacastEPKc
qtractor:_ZN18qtractorExportForm12rangeChangedEv
qtractor:_ZN18qtractorExportForm12valueChangedEv
qtractor:_ZN18qtractorExportForm13formatChangedEi
qtractor:_ZN18qtractorExportForm13setExportTypeEN13qtractorTrack9TrackTypeE
qtractor:_ZN18qtractorExportForm13stabilizeFormEv
qtractor:_ZN18qtractorExportForm14setExportTitleERK7QString
qtractor:_ZN18qtractorExportForm16staticMetaObjectE
qtractor:_ZN18qtractorExportForm17exportPathChangedERK7QString
qtractor:_ZN18qtractorExportForm17exportPathClickedEv
qtractor:_ZN18qtractorExportForm17saveExportOptionsEv
qtractor:_ZN18qtractorExportForm21audioExportTypeUpdateEi
qtractor:_ZN18qtractorExportForm22audioExportTypeChangedEi
qtractor:_ZN18qtractorExportFormC1EP7QWidget
qtractor:_ZN18qtractorExportFormC2EP7QWidget
qtractor:_ZN18qtractorExportFormD0Ev
qtractor:_ZN18qtractorExportFormD1Ev
qtractor:_ZN18qtractorExportFormD2Ev
qtractor:_ZN18qtractorFileSystem10closeEventEP11QCloseEvent
qtractor:_ZN18qtractorFileSystem11cdUpClickedEv
qtractor:_ZN18qtractorFileSystem11homeClickedEv
qtractor:_ZN18qtractorFileSystem11qt_metacallEN11QMetaObject4CallEiPPv
qtractor:_ZN18qtractorFileSystem11qt_metacastEPKc
qtractor:_ZN18qtractorFileSystem11setRootPathERK7QString
qtractor:_ZN18qtractorFileSystem12activateFileERK7QString
qtractor:_ZN18qtractorFileSystem12restoreStateERK10QByteArray
qtractor:_ZN18qtractorFileSystem12setPlayStateEb
qtractor:_ZN18qtractorFileSystem12updateFilterEv
qtractor:_ZN18qtractorFileSystem13filterChangedEv
qtractor:_ZN18qtractorFileSystem14updateRootPathERK7QString
qtractor:_ZN18qtractorFileSystem14updateRootPathEv
qtractor:_ZN18qtractorFileSystem16contextMenuEventEP17QContextMenuEvent
qtractor:_ZN18qtractorFileSystem16staticMetaObjectE
qtractor:_ZN18qtractorFileSystem17rootPathActivatedERK7QString
qtractor:_ZN18qtractorFileSystem17treeViewActivatedERK11QModelIndex
qtractor:_ZN18qtractorFileSystem19restoreStateLoadingERK7QString
qtractor:_ZN18qtractorFileSystem19restoreStateTimeoutEv
qtractor:_ZN18qtractorFileSystem8playSlotEb
qtractor:_ZN18qtractorFileSystem8setFlagsENS_5FlagsEb
qtractor:_ZN18qtractorFileSystem9activatedERK7QString
qtractor:_ZN18qtractorFileSystemC1EP7QWidget
qtractor:_ZN18qtractorFileSystemC2EP7QWidget
qtractor:_ZN18qtractorFileSystemD0Ev
qtractor:_ZN18qtractorFileSystemD1Ev
qtractor:_ZN18qtractorFileSystemD2Ev
qtractor:_ZN18qtractorMessageBox11qt_metacallEN11QMetaObject4CallEiPPv
qtractor:_ZN18qtractorMessageBox11qt_metacastEPKc
qtractor:_ZN18qtractorMessageBox13setIconPixmapERK7QPixmap
qtractor:_ZN18qtractorMessageBox15addCustomButtonEP15QAbstractButton
qtractor:_ZN18qtractorMessageBox15addCustomSpacerEv
qtractor:_ZN18qtractorMessageBox16staticMetaObjectE
qtractor:_ZN18qtractorMessageBox18setStandardButtonsE6QFlagsIN11QMessageBox14StandardButtonEE
qtractor:_ZN18qtractorMessageBox21standardButtonClickedEP15QAbstractButton
qtractor:_ZN18qtractorMessageBox7setIconEN11QMessageBox4IconE
qtractor:_ZN18qtractorMessageBox7setTextERK7QString
qtractor:_ZN18qtractorMessageBox9addButtonEP15QAbstractButtonN11QMessageBox10ButtonRoleE
qtractor:_ZN18qtractorMessageBoxC1EP7QWidget6QFlagsIN2Qt10WindowTypeEE
qtractor:_ZN18qtractorMessageBoxC2EP7QWidget6QFlagsIN2Qt10WindowTypeEE
qtractor:_ZN18qtractorMeterScale10paintEventEP11QPaintEvent
qtractor:_ZN18qtractorMeterScale13drawLineLabelEP8QPainteriRK7QString
qtractor:_ZN18qtractorMeterScaleC1EP13qtractorMeter
qtractor:_ZN18qtractorMeterScaleC2EP13qtractorMeter
qtractor:_ZN18qtractorMeterValue10refreshAllEv
qtractor:_ZN18qtractorMeterValue8g_iStampE
qtractor:_ZN18qtractorMeterValue8g_valuesE
qtractor:_ZN18qtractorMeterValue9updateAllEv
qtractor:_ZN18qtractorMeterValueC1EP13qtractorMeter
qtractor:_ZN18qtractorMeterValueC2EP13qtractorMeter
qtractor:_ZN18qtractorMeterValueD0Ev
qtractor:_ZN18qtractorMeterValueD1Ev
qtractor:_ZN18qtractorMeterValueD2Ev
qtractor:_ZN18qtractorMidiCursor4seekEP20qtractorMidiSequencem
qtractor:_ZN18qtractorMidiCursor5clearEv
qtractor:_ZN18qtractorMidiCursor5resetEP20qtractorMidiSequencem
qtractor:_ZN18qtractorMidiCursorC1Ev
qtractor:_ZN18qtractorMidiCursorC2Ev
qtractor:_ZN18qtractorMidiEditor10selectRectEP18qtractorScrollViewRK5QRectbb
qtractor:_ZN18qtractorMidiEditor11clearSelectEv
qtractor:_ZN18qtractorMidiEditor11executeToolEi
qtractor:_ZN18qtractorMidiEditor11g_clipboardE
qtractor:_ZN18qtractorMidiEditor11isClipboardEv
qtractor:_ZN18qtractorMidiEditor11qt_metacallEN11QMetaObject4CallEiPPv
qtractor:_ZN18qtractorMidiEditor11qt_metacastEPKc
qtractor:_ZN18qtractorMidiEditor11redoCommandEv
qtractor:_ZN18qtractorMidiEditor11resizeEventEP17qtractorMidiEventliP23qtractorMidiEditCommand
qtractor:_ZN18qtractorMidiEditor11selectEventEP17qtractorMidiEventb
qtractor:_ZN18qtractorMidiEditor11selectRangeEP18qtractorScrollViewbb
qtractor:_ZN18qtractorMidiEditor11setDrumModeEb
qtractor:_ZN18qtractorMidiEditor11setEditHeadEmb
qtractor:_ZN18qtractorMidiEditor11setEditModeEb
qtractor:_ZN18qtractorMidiEditor11setEditTailEmb
qtractor:_ZN18qtractorMidiEditor11setMidiClipEP16qtractorMidiClip
qtractor:_ZN18qtractorMidiEditor11setPlayHeadEmb
qtractor:_ZN18qtractorMidiEditor11setSnapGridEb
qtractor:_ZN18qtractorMidiEditor11setSyncViewEb
qtractor:_ZN18qtractorMidiEditor11setToolTipsEb
qtractor:_ZN18qtractorMidiEditor11setZoomModeEi
qtractor:_ZN18qtractorMidiEditor11snapToScaleEhii
qtractor:_ZN18qtractorMidiEditor11undoCommandEv
qtractor:_ZN18qtractorMidiEditor11updateEventEP17qtractorMidiEvent
qtractor:_ZN18qtractorMidiEditor12cutClipboardEv
qtractor:_ZN18qtractorMidiEditor12deleteSelectEv
qtractor:_ZN18qtractorMidiEditor12scaleTabNoteEii
qtractor:_ZN18qtractorMidiEditor12setNoteColorEb
qtractor:_ZN18qtractorMidiEditor12setNoteNamesEb
qtractor:_ZN18qtractorMidiEditor12setSendNotesEb
qtractor:_ZN18qtractorMidiEditor12setSnapZebraEb
qtractor:_ZN18qtractorMidiEditor12updateSelectEb
qtractor:_ZN18qtractorMidiEditor13copyClipboardEv
qtractor:_ZN18qtractorMidiEditor13dragEditEventEP18qtractorScrollViewRK6QPointRK6QFlagsIN2Qt16KeyboardModifierEE
qtractor:_ZN18qtractorMidiEditor13dragMoveEventEP18qtractorScrollViewRK6QPointRK6QFlagsIN2Qt16KeyboardModifierEE
qtractor:_ZN18qtractorMidiEditor13dragMoveStartEP18qtractorScrollViewRK6QPointRK6QFlagsIN2Qt16KeyboardModifierEE
qtractor:_ZN18qtractorMidiEditor13drawPositionXERiib
qtractor:_ZN18qtractorMidiEditor13ensureVisibleEP18qtractorScrollViewRK6QPoint
qtractor:_ZN18qtractorMidiEditor13scaleKeyNamesEv
qtractor:_ZN18qtractorMidiEditor13setBackgroundERK6QColor
qtractor:_ZN18qtractorMidiEditor13setForegroundERK6QColor
qtractor:_ZN18qtractorMidiEditor13setGhostTrackEP13qtractorTrack
qtractor:_ZN18qtractorMidiEditor13setValueColorEb
qtractor:_ZN18qtractorMidiEditor14centerContentsEv
qtractor:_ZN18qtractorMidiEditor14dragMoveCommitEP18qtractorScrollViewRK6QPointRK6QFlagsIN2Qt16KeyboardModifierEE
qtractor:_ZN18qtractorMidiEditor14dragMoveFilterEP18qtractorScrollViewP7QObjectP6QEvent
qtractor:_ZN18qtractorMidiEditor14dragMoveUpdateEP18qtractorScrollViewRK6QPointRK6QFlagsIN2Qt16KeyboardModifierEE
qtractor:_ZN18qtractorMidiEditor14paintDragStateEP18qtractorScrollViewP8QPainter
qtractor:_ZN18qtractorMidiEditor14pasteClipboardEtm
qtractor:_ZN18qtractorMidiEditor14resetDragStateEP18qtractorScrollView
qtractor:_ZN18qtractorMidiEditor14scaleTypeNamesEv
qtractor:_ZN18qtractorMidiEditor14sendNoteSignalEii
qtractor:_ZN18qtractorMidiEditor14updateContentsEv
qtractor:_ZN18qtractorMidiEditor14updateDragMoveEP18qtractorScrollViewRK6QPoint
qtractor:_ZN18qtractorMidiEditor14zoomCenterPostERKNS_10ZoomCenterE
qtractor:_ZN18qtractorMidiEditor15defaultNoteNameEhb
qtractor:_ZN18qtractorMidiEditor15defaultRpnNamesEv
qtractor:_ZN18qtractorMidiEditor15executeDragMoveEP18qtractorScrollViewRK6QPoint
qtractor:_ZN18qtractorMidiEditor15insertEditRangeEv
qtractor:_ZN18qtractorMidiEditor15removeEditRangeEv
qtractor:_ZN18qtractorMidiEditor15setEditModeDrawEb
qtractor:_ZN18qtractorMidiEditor15setNoteDurationEb
qtractor:_ZN18qtractorMidiEditor15setSyncViewHoldEb
qtractor:_ZN18qtractorMidiEditor15setVerticalZoomEt
qtractor:_ZN18qtractorMidiEditor15updateTimeScaleEv
qtractor:_ZN18qtractorMidiEditor16defaultNrpnNamesEv
qtractor:_ZN18qtractorMidiEditor16executeDragPasteEP18qtractorScrollViewRK6QPoint
qtractor:_ZN18qtractorMidiEditor16setVerticalSizesERK5QListIiE
qtractor:_ZN18qtractorMidiEditor16staticMetaObjectE
qtractor:_ZN18qtractorMidiEditor16updateDragResizeEP18qtractorScrollViewRK6QPoint
qtractor:_ZN18qtractorMidiEditor16updateDragSelectEP18qtractorScrollViewRK5QRecti
qtractor:_ZN18qtractorMidiEditor16updateNotifySlotEj
qtractor:_ZN18qtractorMidiEditor16verticalZoomStepEi
qtractor:_ZN18qtractorMidiEditor17executeDragResizeEP18qtractorScrollViewRK6QPoint
qtractor:_ZN18qtractorMidiEditor17setHorizontalZoomEt
qtractor:_ZN18qtractorMidiEditor17setSnapToScaleKeyEi
qtractor:_ZN18qtractorMidiEditor17setSyncViewHoldOnEb
qtractor:_ZN18qtractorMidiEditor17updateDragRescaleEP18qtractorScrollViewRK6QPoint
qtractor:_ZN18qtractorMidiEditor18changeNotifySignalEPS_
qtractor:_ZN18qtractorMidiEditor18ensureVisibleFrameEP18qtractorScrollViewm
qtractor:_ZN18qtractorMidiEditor18executeDragRescaleEP18qtractorScrollViewRK6QPoint
qtractor:_ZN18qtractorMidiEditor18horizontalZoomStepEi
qtractor:_ZN18qtractorMidiEditor18selectNotifySignalEPS_
qtractor:_ZN18qtractorMidiEditor18setHorizontalSizesERK5QListIiE
qtractor:_ZN18qtractorMidiEditor18setSnapToScaleTypeEi
qtractor:_ZN18qtractorMidiEditor18verticalZoomInSlotEv
qtractor:_ZN18qtractorMidiEditor19initDefaultRpnNamesEv
qtractor:_ZN18qtractorMidiEditor19verticalZoomOutSlotEv
qtractor:_ZN18qtractorMidiEditor20defaultControl14NameEh
qtractor:_ZN18qtractorMidiEditor20horizontalZoomInSlotEv
qtractor:_ZN18qtractorMidiEditor20initDefaultNoteNamesEv
qtractor:_ZN18qtractorMidiEditor20initDefaultNrpnNamesEv
qtractor:_ZN18qtractorMidiEditor20verticalSplitterSlotEv
qtractor:_ZN18qtractorMidiEditor21defaultControllerNameEh
qtractor:_ZN18qtractorMidiEditor21horizontalZoomOutSlotEv
qtractor:_ZN18qtractorMidiEditor21selectionChangeNotifyEv
qtractor:_ZN18qtractorMidiEditor21updateDefaultRpnNamesEv
qtractor:_ZN18qtractorMidiEditor21updateDragEventResizeERK6QPoint
qtractor:_ZN18qtractorMidiEditor21updateInstrumentNamesEv
qtractor:_ZN18qtractorMidiEditor21verticalZoomResetSlotEv
qtractor:_ZN18qtractorMidiEditor22executeDragEventResizeERK6QPoint
qtractor:_ZN18qtractorMidiEditor22horizontalSplitterSlotEv
qtractor:_ZN18qtractorMidiEditor22updateDefaultNrpnNamesEv
qtractor:_ZN18qtractorMidiEditor23horizontalZoomResetSlotEv
qtractor:_ZN18qtractorMidiEditor25initDefaultControl14NamesEv
qtractor:_ZN18qtractorMidiEditor26initDefaultControllerNamesEv
qtractor:_ZN18qtractorMidiEditor26updateDefaultDrumNoteNamesEv
qtractor:_ZN18qtractorMidiEditor28updateDefaultControllerNamesEv
qtractor:_ZN18qtractorMidiEditor5clearEv
qtractor:_ZN18qtractorMidiEditor5resetEb
qtractor:_ZN18qtractorMidiEditor6zoomInEv
qtractor:_ZN18qtractorMidiEditor7eventAtEP18qtractorScrollViewRK6QPointP5QRect
qtractor:_ZN18qtractorMidiEditor7keyStepEiRK6QFlagsIN2Qt16KeyboardModifierEE
qtractor:_ZN18qtractorMidiEditor7zoomOutEv
qtractor:_ZN18qtractorMidiEditor8focusOutEP18qtractorScrollView
qtractor:_ZN18qtractorMidiEditor8keyPressEP18qtractorScrollViewiRK6QFlagsIN2Qt16KeyboardModifierEE
qtractor:_ZN18qtractorMidiEditor8sendNoteEii
qtractor:_ZN18qtractorMidiEditor9seekEventEP20qtractorMidiSequencem
qtractor:_ZN18qtractorMidiEditor9selectAllEP18qtractorScrollViewbb
qtractor:_ZN18qtractorMidiEditor9setLengthEm
qtractor:_ZN18qtractorMidiEditor9setOffsetEm
qtractor:_ZN18qtractorMidiEditor9zoomResetEv
qtractor:_ZN18qtractorMidiEditorC1EP7QWidget
qtractor:_ZN18qtractorMidiEditorC2EP7QWidget
qtractor:_ZN18qtractorMidiEditorD0Ev
qtractor:_ZN18qtractorMidiEditorD1Ev
qtractor:_ZN18qtractorMidiEditorD2Ev
qtractor:_ZN18qtractorMidiEngine10deactivateEv
qtractor:_ZN18qtractorMidiEngine10driftCheckEv
qtractor:_ZN18qtractorMidiEngine10fileExportERK7QStringRK5QListIP15qtractorMidiBusEmmi
qtractor:_ZN18qtractorMidiEngine10openPlayerERK7QStringi
qtractor:_ZN18qtractorMidiEngine10resetDriftEv
qtractor:_ZN18qtractorMidiEngine10resetTempoEv
qtractor:_ZN18qtractorMidiEngine10setMmcModeEN11qtractorBus7BusModeE
qtractor:_ZN18qtractorMidiEngine10setSppModeEN11qtractorBus7BusModeE
qtractor:_ZN18qtractorMidiEngine11addInputBusEP15qtractorMidiBus
qtractor:_ZN18qtractorMidiEngine11closePlayerEv
qtractor:_ZN18qtractorMidiEngine11loadElementEP16qtractorDocumentP11QDomElement
qtractor:_ZN18qtractorMidiEngine11restartLoopEv
qtractor:_ZN18qtractorMidiEngine11setMetroBarEiim
qtractor:_ZN18qtractorMidiEngine11setMetroBusEb
qtractor:_ZN18qtractorMidiEngine12openMetroBusEv
qtractor:_ZN18qtractorMidiEngine12processMetroEmm
qtractor:_ZN18qtractorMidiEngine12setAlsaTimerEi
qtractor:_ZN18qtractorMidiEngine12setClockModeEN11qtractorBus7BusModeE
qtractor:_ZN18qtractorMidiEngine12setMetroBeatEiim
qtractor:_ZN18qtractorMidiEngine12setMetronomeEb
qtractor:_ZN18qtractorMidiEngine12setMmcDeviceEh
qtractor:_ZN18qtractorMidiEngine12setPlayerBusEb
qtractor:_ZN18qtractorMidiEngine12setReadAheadEj
qtractor:_ZN18qtractorMidiEngine13alsaNotifyAckEv
qtractor:_ZN18qtractorMidiEngine13closeMetroBusEv
qtractor:_ZN18qtractorMidiEngine13openPlayerBusEv
qtractor:_ZN18qtractorMidiEngine13resetMetroBusEv
qtractor:_ZN18qtractorMidiEngine13setControlBusEb
qtractor:_ZN18qtractorMidiEngine14addInputBufferEiP23qtractorMidiInputBuffer
qtractor:_ZN18qtractorMidiEngine14closePlayerBusEv
qtractor:_ZN18qtractorMidiEngine14createMetroBusEv
qtractor:_ZN18qtractorMidiEngine14deleteMetroBusEv
qtractor:_ZN18qtractorMidiEngine14openControlBusEv
qtractor:_ZN18qtractorMidiEngine14removeInputBusEP15qtractorMidiBus
qtractor:_ZN18qtractorMidiEngine14setMetroOffsetEm
qtractor:_ZN18qtractorMidiEngine14updateConnectsEv
qtractor:_ZN18qtractorMidiEngine15clearSysexCacheEv
qtractor:_ZN18qtractorMidiEngine15closeControlBusEv
qtractor:_ZN18qtractorMidiEngine15createPlayerBusEv
qtractor:_ZN18qtractorMidiEngine15deletePlayerBusEv
qtractor:_ZN18qtractorMidiEngine15resetControlBusEv
qtractor:_ZN18qtractorMidiEngine15setDriftCorrectEb
qtractor:_ZN18qtractorMidiEngine15setMetroChannelEt
qtractor:_ZN18qtractorMidiEngine15setMetroEnabledEb
qtractor:_ZN18qtractorMidiEngine15shutOffAllBusesEb
qtractor:_ZN18qtractorMidiEngine16createControlBusEv
qtractor:_ZN18qtractorMidiEngine16deleteControlBusEv
qtractor:_ZN18qtractorMidiEngine16resetAllMonitorsEv
qtractor:_ZN18qtractorMidiEngine16shutOffAllTracksEv
qtractor:_ZN18qtractorMidiEngine17removeInputBufferEi
qtractor:_ZN18qtractorMidiEngine18setCaptureQuantizeEt
qtractor:_ZN18qtractorMidiEngine19resetAllControllersEb
qtractor:_ZN18qtractorMidiEngine4initEv
qtractor:_ZN18qtractorMidiEngine4stopEv
qtractor:_ZN18qtractorMidiEngine4syncEv
qtractor:_ZN18qtractorMidiEngine5cleanEv
qtractor:_ZN18qtractorMidiEngine5flushEv
qtractor:_ZN18qtractorMidiEngine5startEv
qtractor:_ZN18qtractorMidiEngine7captureEP13snd_seq_event
qtractor:_ZN18qtractorMidiEngine7enqueueEP13qtractorTrackP17qtractorMidiEventmf
qtractor:_ZN18qtractorMidiEngine8activateEv
qtractor:_ZN18qtractorMidiEngine9metroMuteEb
qtractor:_ZN18qtractorMidiEngine9trackMuteEP13qtractorTrackb
qtractor:_ZN18qtractorMidiEngineC1EP15qtractorSession
qtractor:_ZN18qtractorMidiEngineC2EP15qtractorSession
qtractor:_ZN18qtractorMidiPlayer4openERK7QStringi
qtractor:_ZN18qtractorMidiPlayer5closeEv
qtractor:_ZN18qtractorMidiPlayer7enqueueEtP17qtractorMidiEventmf
qtractor:_ZN18qtractorMidiPlayer7processEmm
qtractor:_ZN18qtractorMidiPlayerC1EP15qtractorMidiBus
qtractor:_ZN18qtractorMidiPlayerC2EP15qtractorMidiBus
qtractor:_ZN18qtractorMidiPlayerD1Ev
qtractor:_ZN18qtractorMidiPlayerD2Ev
qtractor:_ZN18qtractorMixerMeter10setPanningEf
qtractor:_ZN18qtractorMixerMeter11qt_metacallEN11QMetaObject4CallEiPPv
qtractor:_ZN18qtractorMixerMeter11qt_metacastEPKc
qtractor:_ZN18qtractorMixerMeter14setGainSubjectEP15qtractorSubject
qtractor:_ZN18qtractorMixerMeter16staticMetaObjectE
qtractor:_ZN18qtractorMixerMeter17setPanningSubjectEP15qtractorSubject
qtractor:_ZN18qtractorMixerMeter19midiControlMenuSlotERK6QPoint
qtractor:_ZN18qtractorMixerMeter20addMidiControlActionEP7QWidgetP27qtractorMidiControlObserver
qtractor:_ZN18qtractorMixerMeter21midiControlActionSlotEv
qtractor:_ZN18qtractorMixerMeter7setGainEf
qtractor:_ZN18qtractorMixerMeterC1EP7QWidget
qtractor:_ZN18qtractorMixerMeterC2EP7QWidget
qtractor:_ZN18qtractorMixerMeterD0Ev
qtractor:_ZN18qtractorMixerMeterD1Ev
qtractor:_ZN18qtractorMixerMeterD2Ev
qtractor:_ZN18qtractorMixerStrip10busMonitorEb
qtractor:_ZN18qtractorMixerStrip10setMonitorEP15qtractorMonitor
qtractor:_ZN18qtractorMixerStrip10updateNameEv
qtractor:_ZN18qtractorMixerStrip11qt_metacallEN11QMetaObject4CallEiPPv
qtractor:_ZN18qtractorMixerStrip11qt_metacastEPKc
qtractor:_ZN18qtractorMixerStrip11setSelectedEb
qtractor:_ZN18qtractorMixerStrip12trackMonitorEb
qtractor:_ZN18qtractorMixerStrip13busButtonSlotEv
qtractor:_ZN18qtractorMixerStrip14busConnectionsEN11qtractorBus7BusModeE
qtractor:_ZN18qtractorMixerStrip14initMixerStripEv
qtractor:_ZN18qtractorMixerStrip15gainChangedSlotEf
qtractor:_ZN18qtractorMixerStrip15mousePressEventEP11QMouseEvent
qtractor:_ZN18qtractorMixerStrip15updateMidiLabelEv
qtractor:_ZN18qtractorMixerStrip16staticMetaObjectE
qtractor:_ZN18qtractorMixerStrip17updateMidiManagerEP19qtractorMidiManager
qtractor:_ZN18qtractorMixerStrip18panningChangedSlotEf
qtractor:_ZN18qtractorMixerStrip21mouseDoubleClickEventEP11QMouseEvent
qtractor:_ZN18qtractorMixerStrip5clearEv
qtractor:_ZN18qtractorMixerStrip6setBusEP11qtractorBus
qtractor:_ZN18qtractorMixerStrip8setTrackEP13qtractorTrack
qtractor:_ZN18qtractorMixerStripC1EP17qtractorMixerRackP11qtractorBusNS2_7BusModeE
qtractor:_ZN18qtractorMixerStripC1EP17qtractorMixerRackP13qtractorTrack
qtractor:_ZN18qtractorMixerStripC2EP17qtractorMixerRackP11qtractorBusNS2_7BusModeE
qtractor:_ZN18qtractorMixerStripC2EP17qtractorMixerRackP13qtractorTrack
qtractor:_ZN18qtractorMixerStripD0Ev
qtractor:_ZN18qtractorMixerStripD1Ev
qtractor:_ZN18qtractorMixerStripD2Ev
qtractor:_ZN18qtractorPluginFile10removeFileEPS_
qtractor:_ZN18qtractorPluginFile4openEv
qtractor:_ZN18qtractorPluginFile5closeEv
qtractor:_ZN18qtractorPluginFile7addFileERK7QString
qtractor:_ZN18qtractorPluginFile7g_filesE
qtractor:_ZN18qtractorPluginFile7resolveEPKc
qtractor:_ZN18qtractorPluginForm11qt_metacallEN11QMetaObject4CallEiPPv
qtractor:_ZN18qtractorPluginForm11qt_metacastEPKc
qtractor:_ZN18qtractorPluginForm11returnsSlotEv
qtractor:_ZN18qtractorPluginForm12activateSlotEb
qtractor:_ZN18qtractorPluginForm12toggleEditorEb
qtractor:_ZN18qtractorPluginForm13keyPressEventEP9QKeyEvent
qtractor:_ZN18qtractorPluginForm14loadPresetSlotEi
qtractor:_ZN18qtractorPluginForm14openPresetSlotEv
qtractor:_ZN18qtractorPluginForm14savePresetSlotEv
qtractor:_ZN18qtractorPluginForm15updateActivatedEv
qtractor:_ZN18qtractorPluginForm16changePresetSlotERK7QString
qtractor:_ZN18qtractorPluginForm16deletePresetSlotEv
qtractor:_ZN18qtractorPluginForm16staticMetaObjectE
qtractor:_ZN18qtractorPluginForm16updateDirtyCountEv
qtractor:_ZN18qtractorPluginForm18currentChangedSlotEi
qtractor:_ZN18qtractorPluginForm19midiControlMenuSlotERK6QPoint
qtractor:_ZN18qtractorPluginForm20addMidiControlActionEP7QWidgetP27qtractorMidiControlObserver
qtractor:_ZN18qtractorPluginForm20updateAuxSendBusNameEv
qtractor:_ZN18qtractorPluginForm21midiControlActionSlotEv
qtractor:_ZN18qtractorPluginForm22updateLatencyTextLabelEv
qtractor:_ZN18qtractorPluginForm23clickAuxSendBusNameSlotEv
qtractor:_ZN18qtractorPluginForm24changeAuxSendBusNameSlotEi
qtractor:_ZN18qtractorPluginForm27changeDirectAccessParamSlotEv
qtractor:_ZN18qtractorPluginForm27updateDirectAccessParamSlotEv
qtractor:_ZN18qtractorPluginForm5clearEv
qtractor:_ZN18qtractorPluginForm7refreshEv
qtractor:_ZN18qtractorPluginForm8editSlotEb
qtractor:_ZN18qtractorPluginForm9hideEventEP10QHideEvent
qtractor:_ZN18qtractorPluginForm9sendsSlotEv
qtractor:_ZN18qtractorPluginForm9setPluginEP14qtractorPlugin
qtractor:_ZN18qtractorPluginForm9setPresetERK7QString
qtractor:_ZN18qtractorPluginForm9showEventEP10QShowEvent
qtractor:_ZN18qtractorPluginForm9stabilizeEv
qtractor:_ZN18qtractorPluginFormC1EP7QWidget6QFlagsIN2Qt10WindowTypeEE
qtractor:_ZN18qtractorPluginFormC2EP7QWidget6QFlagsIN2Qt10WindowTypeEE
qtractor:_ZN18qtractorPluginFormD0Ev
qtractor:_ZN18qtractorPluginFormD1Ev
qtractor:_ZN18qtractorPluginFormD2Ev
qtractor:_ZN18qtractorPluginList10WaitCursorC1Ev
qtractor:_ZN18qtractorPluginList10WaitCursorC2Ev
qtractor:_ZN18qtractorPluginList10WaitCursorD1Ev
qtractor:_ZN18qtractorPluginList10WaitCursorD2Ev
qtractor:_ZN18qtractorPluginList10copyPluginEP14qtractorPlugin
qtractor:_ZN18qtractorPluginList10loadPluginEP11QDomElement
qtractor:_ZN18qtractorPluginList10movePluginEP14qtractorPluginS1_
qtractor:_ZN18qtractorPluginList10removeViewEP22qtractorPluginListView
qtractor:_ZN18qtractorPluginList11loadElementEP16qtractorDocumentP11QDomElement
qtractor:_ZN18qtractorPluginList11saveElementEP16qtractorDocumentP11QDomElement
qtractor:_ZN18qtractorPluginList11setChannelsEtj
qtractor:_ZN18qtractorPluginList12insertPluginEP14qtractorPluginS1_
qtractor:_ZN18qtractorPluginList12removePluginEP14qtractorPlugin
qtractor:_ZN18qtractorPluginList12resetBuffersEv
qtractor:_ZN18qtractorPluginList12resetLatencyEv
qtractor:_ZN18qtractorPluginList13resetChannelsEtb
qtractor:_ZN18qtractorPluginList13setChannelsExEt
qtractor:_ZN18qtractorPluginList14createUniqueIDEP18qtractorPluginType
qtractor:_ZN18qtractorPluginList19setEditorVisibleAllEb
qtractor:_ZN18qtractorPluginList21autoDeactivatePluginsEbb
qtractor:_ZN18qtractorPluginList7addViewEP22qtractorPluginListView
qtractor:_ZN18qtractorPluginList7processEPPfj
qtractor:_ZN18qtractorPluginList7setNameERK7QString
qtractor:_ZN18qtractorPluginList8Document11loadElementEP11QDomElement
qtractor:_ZN18qtractorPluginList8Document11saveElementEP11QDomElement
qtractor:_ZN18qtractorPluginList8Document4loadERK7QString
qtractor:_ZN18qtractorPluginList8Document4saveERK7QString
qtractor:_ZN18qtractorPluginList8DocumentC1EP12QDomDocumentPS_
qtractor:_ZN18qtractorPluginList8DocumentC2EP12QDomDocumentPS_
qtractor:_ZN18qtractorPluginList8DocumentD0Ev
qtractor:_ZN18qtractorPluginList8DocumentD1Ev
qtractor:_ZN18qtractorPluginList8DocumentD2Ev
qtractor:_ZN18qtractorPluginList9addPluginEP14qtractorPlugin
qtractor:_ZN18qtractorPluginListC1Etj
qtractor:_ZN18qtractorPluginListC2Etj
qtractor:_ZN18qtractorPluginListD1Ev
qtractor:_ZN18qtractorPluginListD2Ev
qtractor:_ZN18qtractorPluginType12hintFromTextERK7QString
qtractor:_ZN18qtractorPluginType12textFromHintENS_4HintE
qtractor:_ZN18qtractorRubberBand12setThicknessEi
qtractor:_ZN18qtractorRubberBandC1EN11QRubberBand5ShapeEP7QWidgeti
qtractor:_ZN18qtractorRubberBandC2EN11QRubberBand5ShapeEP7QWidgeti
qtractor:_ZN18qtractorRubberBandD0Ev
qtractor:_ZN18qtractorRubberBandD1Ev
qtractor:_ZN18qtractorRubberBandD2Ev
qtractor:_ZN18qtractorScrollView10paintEventEP11QPaintEvent
qtractor:_ZN18qtractorScrollView10wheelEventEP11QWheelEvent
qtractor:_ZN18qtractorScrollView11qt_metacallEN11QMetaObject4CallEiPPv
qtractor:_ZN18qtractorScrollView11qt_metacastEPKc
qtractor:_ZN18qtractorScrollView11resizeEventEP12QResizeEvent
qtractor:_ZN18qtractorScrollView13ensureVisibleEiiii
qtractor:_ZN18qtractorScrollView14contentsMovingEii
qtractor:_ZN18qtractorScrollView14resizeContentsEii
qtractor:_ZN18qtractorScrollView14setContentsPosEii
qtractor:_ZN18qtractorScrollView14updateContentsERK5QRect
qtractor:_ZN18qtractorScrollView14updateContentsEv
qtractor:_ZN18qtractorScrollView16scrollContentsByEii
qtractor:_ZN18qtractorScrollView16staticMetaObjectE
qtractor:_ZN18qtractorScrollView16updateScrollBarsEv
qtractor:_ZN18qtractorScrollViewC1EP7QWidget
qtractor:_ZN18qtractorScrollViewC2EP7QWidget
qtractor:_ZN18qtractorScrollViewD0Ev
qtractor:_ZN18qtractorScrollViewD1Ev
qtractor:_ZN18qtractorScrollViewD2Ev
qtractor:_ZN19qtractorApplication11qt_metacallEN11QMetaObject4CallEiPPv
qtractor:_ZN19qtractorApplication11qt_metacastEPKc
qtractor:_ZN19qtractorApplication13setMainWidgetEP7QWidget
qtractor:_ZN19qtractorApplication16staticMetaObjectE
qtractor:_ZN19qtractorApplication5setupEv
qtractor:_ZN19qtractorApplicationC1ERiPPc
qtractor:_ZN19qtractorApplicationC2ERiPPc
qtractor:_ZN19qtractorApplicationD0Ev
qtractor:_ZN19qtractorApplicationD1Ev
qtractor:_ZN19qtractorApplicationD2Ev
qtractor:_ZN19qtractorAudioBuffer10readBufferEj
qtractor:_ZN19qtractorAudioBuffer10setPanningEf
qtractor:_ZN19qtractorAudioBuffer10syncExportEv
qtractor:_ZN19qtractorAudioBuffer11flushFramesEPPfj
qtractor:_ZN19qtractorAudioBuffer11setPeakFileEP21qtractorAudioPeakFile
qtractor:_ZN19qtractorAudioBuffer11setSyncFlagENS_8SyncFlagEb
qtractor:_ZN19qtractorAudioBuffer11writeBufferEj
qtractor:_ZN19qtractorAudioBuffer11writeFramesEPPfj
qtractor:_ZN19qtractorAudioBuffer13readMixFramesEPPfjtjf
qtractor:_ZN19qtractorAudioBuffer13setPitchShiftEf
qtractor:_ZN19qtractorAudioBuffer14setTimeStretchEf
qtractor:_ZN19qtractorAudioBuffer15deleteIOBuffersEv
qtractor:_ZN19qtractorAudioBuffer17setWsolaQuickSeekEb
qtractor:_ZN19qtractorAudioBuffer19defaultResampleTypeEv
qtractor:_ZN19qtractorAudioBuffer19setWsolaTimeStretchEb
qtractor:_ZN19qtractorAudioBuffer22g_iDefaultResampleTypeE
qtractor:_ZN19qtractorAudioBuffer22setDefaultResampleTypeEi
qtractor:_ZN19qtractorAudioBuffer23isDefaultWsolaQuickSeekEv
qtractor:_ZN19qtractorAudioBuffer24g_bDefaultWsolaQuickSeekE
qtractor:_ZN19qtractorAudioBuffer24setDefaultWsolaQuickSeekEb
qtractor:_ZN19qtractorAudioBuffer25isDefaultWsolaTimeStretchEv
qtractor:_ZN19qtractorAudioBuffer26g_bDefaultWsolaTimeStretchE
qtractor:_ZN19qtractorAudioBuffer26setDefaultWsolaTimeStretchEb
qtractor:_ZN19qtractorAudioBuffer4openERK7QStringi
qtractor:_ZN19qtractorAudioBuffer4readEPPfjj
qtractor:_ZN19qtractorAudioBuffer4seekEm
qtractor:_ZN19qtractorAudioBuffer4syncEv
qtractor:_ZN19qtractorAudioBuffer5closeEv
qtractor:_ZN19qtractorAudioBuffer5resetEb
qtractor:_ZN19qtractorAudioBuffer5writeEPPfjtj
qtractor:_ZN19qtractorAudioBuffer6inSyncEmm
qtractor:_ZN19qtractorAudioBuffer7readMixEPPfjtjf
qtractor:_ZN19qtractorAudioBuffer7setGainEf
qtractor:_ZN19qtractorAudioBuffer7setLoopEmm
qtractor:_ZN19qtractorAudioBuffer8initSyncEv
qtractor:_ZN19qtractorAudioBuffer8readSyncEv
qtractor:_ZN19qtractorAudioBuffer8seekSyncEm
qtractor:_ZN19qtractorAudioBuffer9setLengthEm
qtractor:_ZN19qtractorAudioBuffer9setOffsetEm
qtractor:_ZN19qtractorAudioBuffer9writeSyncEv
qtractor:_ZN19qtractorAudioBufferC1EP25qtractorAudioBufferThreadt
qtractor:_ZN19qtractorAudioBufferC2EP25qtractorAudioBufferThreadt
qtractor:_ZN19qtractorAudioBufferD1Ev
qtractor:_ZN19qtractorAudioBufferD2Ev
qtractor:_ZN19qtractorAudioEngine10deactivateEv
qtractor:_ZN19qtractorAudioEngine10fileExportERK7QStringRK5QListIP16qtractorAudioBusEmmi
qtractor:_ZN19qtractorAudioEngine10openPlayerERK7QString
qtractor:_ZN19qtractorAudioEngine10resetMetroEv
qtractor:_ZN19qtractorAudioEngine11closePlayerEv
qtractor:_ZN19qtractorAudioEngine11loadElementEP16qtractorDocumentP11QDomElement
qtractor:_ZN19qtractorAudioEngine11setMetroBusEb
qtractor:_ZN19qtractorAudioEngine11setTimebaseEb
qtractor:_ZN19qtractorAudioEngine12openMetroBusEv
qtractor:_ZN19qtractorAudioEngine12setExportingEb
qtractor:_ZN19qtractorAudioEngine12setFreewheelEb
qtractor:_ZN19qtractorAudioEngine12setMetronomeEb
qtractor:_ZN19qtractorAudioEngine12setPlayerBusEb
qtractor:_ZN19qtractorAudioEngine12setSessionIdERK7QString
qtractor:_ZN19qtractorAudioEngine13closeMetroBusEv
qtractor:_ZN19qtractorAudioEngine13openPlayerBusEv
qtractor:_ZN19qtractorAudioEngine13resetMetroBusEv
qtractor:_ZN19qtractorAudioEngine13resetTimebaseEv
qtractor:_ZN19qtractorAudioEngine14closePlayerBusEv
qtractor:_ZN19qtractorAudioEngine14createMetroBusEv
qtractor:_ZN19qtractorAudioEngine14deleteMetroBusEv
qtractor:_ZN19qtractorAudioEngine14process_exportEj
qtractor:_ZN19qtractorAudioEngine14resetPlayerBusEv
qtractor:_ZN19qtractorAudioEngine14setMetroOffsetEm
qtractor:_ZN19qtractorAudioEngine14updateConnectsEv
qtractor:_ZN19qtractorAudioEngine15createPlayerBusEv
qtractor:_ZN19qtractorAudioEngine15deletePlayerBusEv
qtractor:_ZN19qtractorAudioEngine15notifyBuffEventEj
qtractor:_ZN19qtractorAudioEngine15notifyPortEventEv
qtractor:_ZN19qtractorAudioEngine15notifyPropEventEv
qtractor:_ZN19qtractorAudioEngine15notifySessEventEPv
qtractor:_ZN19qtractorAudioEngine15notifyShutEventEv
qtractor:_ZN19qtractorAudioEngine15notifySyncEventEmb
qtractor:_ZN19qtractorAudioEngine15notifyXrunEventEv
qtractor:_ZN19qtractorAudioEngine15setMetroBarGainEf
qtractor:_ZN19qtractorAudioEngine15setMetroEnabledEb
qtractor:_ZN19qtractorAudioEngine16resetAllMonitorsEv
qtractor:_ZN19qtractorAudioEngine16setMetroBeatGainEf
qtractor:_ZN19qtractorAudioEngine16setTransportModeEN11qtractorBus7BusModeE
qtractor:_ZN19qtractorAudioEngine19setMetroAutoConnectEb
qtractor:_ZN19qtractorAudioEngine19setMetroBarFilenameERK7QString
qtractor:_ZN19qtractorAudioEngine19setTransportLatencyEj
qtractor:_ZN19qtractorAudioEngine20setMasterAutoConnectEb
qtractor:_ZN19qtractorAudioEngine20setMetroBeatFilenameERK7QString
qtractor:_ZN19qtractorAudioEngine20setPlayerAutoConnectEb
qtractor:_ZN19qtractorAudioEngine4initEv
qtractor:_ZN19qtractorAudioEngine4stopEv
qtractor:_ZN19qtractorAudioEngine5cleanEv
qtractor:_ZN19qtractorAudioEngine5startEv
qtractor:_ZN19qtractorAudioEngine7processEj
qtractor:_ZN19qtractorAudioEngine8activateEv
qtractor:_ZN19qtractorAudioEngine8timebaseEP14_jack_positioni
qtractor:_ZN19qtractorAudioEngine9trackMuteEP13qtractorTrackb
qtractor:_ZN19qtractorAudioEngineC1EP15qtractorSession
qtractor:_ZN19qtractorAudioEngineC2EP15qtractorSession
qtractor:_ZN19qtractorClipCommand10fadeInClipEP12qtractorClipmNS0_8FadeTypeE
qtractor:_ZN19qtractorClipCommand10removeClipEP12qtractorClip
qtractor:_ZN19qtractorClipCommand10renameClipEP12qtractorClipRK7QString
qtractor:_ZN19qtractorClipCommand10reopenClipEP12qtractorClipb
qtractor:_ZN19qtractorClipCommand10resizeClipEP12qtractorClipmmmff
qtractor:_ZN19qtractorClipCommand11fadeOutClipEP12qtractorClipmNS0_8FadeTypeE
qtractor:_ZN19qtractorClipCommand11panningClipEP12qtractorClipf
qtractor:_ZN19qtractorClipCommand12takeInfoClipEP12qtractorClipPNS0_8TakeInfoE
qtractor:_ZN19qtractorClipCommand13addClipRecordEP13qtractorTrackm
qtractor:_ZN19qtractorClipCommand14pitchShiftClipEP12qtractorClipf
qtractor:_ZN19qtractorClipCommand15timeStretchClipEP12qtractorClipf
qtractor:_ZN19qtractorClipCommand17addClipRecordTakeEP13qtractorTrackP12qtractorClipmmmPNS2_8TakePartE
qtractor:_ZN19qtractorClipCommand21createMidiEditCommandEP16qtractorMidiClipf
qtractor:_ZN19qtractorClipCommand4redoEv
qtractor:_ZN19qtractorClipCommand4undoEv
qtractor:_ZN19qtractorClipCommand7addClipEP12qtractorClipP13qtractorTrack
qtractor:_ZN19qtractorClipCommand7executeEb
qtractor:_ZN19qtractorClipCommand8addTrackEP13qtractorTrack
qtractor:_ZN19qtractorClipCommand8fileClipEP12qtractorClipRK7QStringt
qtractor:_ZN19qtractorClipCommand8gainClipEP12qtractorClipf
qtractor:_ZN19qtractorClipCommand8moveClipEP12qtractorClipP13qtractorTrackmmm
qtractor:_ZN19qtractorClipCommand9resetClipEP12qtractorClip
qtractor:_ZN19qtractorClipCommand9wsolaClipEP12qtractorClipbb
qtractor:_ZN19qtractorClipCommandC1ERK7QString
qtractor:_ZN19qtractorClipCommandC2ERK7QString
qtractor:_ZN19qtractorClipCommandD0Ev
qtractor:_ZN19qtractorClipCommandD1Ev
qtractor:_ZN19qtractorClipCommandD2Ev
qtractor:_ZN19qtractorCommandList11qt_metacallEN11QMetaObject4CallEiPPv
qtractor:_ZN19qtractorCommandList11qt_metacastEPKc
qtractor:_ZN19qtractorCommandList16staticMetaObjectE
qtractor:_ZN19qtractorCommandList17removeLastCommandEv
qtractor:_ZN19qtractorCommandList18updateNotifySignalEj
qtractor:_ZN19qtractorCommandList4execEP15qtractorCommand
qtractor:_ZN19qtractorCommandList4pushEP15qtractorCommand
qtractor:_ZN19qtractorCommandList4redoEv
qtractor:_ZN19qtractorCommandList4undoEv
qtractor:_ZN19qtractorCommandList5clearEv
qtractor:_ZN19qtractorCommandList7backoutEP15qtractorCommand
qtractor:_ZN19qtractorCommandListC1Ev
qtractor:_ZN19qtractorCommandListC2Ev
qtractor:_ZN19qtractorCommandListD0Ev
qtractor:_ZN19qtractorCommandListD1Ev
qtractor:_ZN19qtractorCommandListD2Ev
qtractor:_ZN19qtractorConnectForm10audioResetEv
qtractor:_ZN19qtractorConnectForm10midiUpdateEb
qtractor:_ZN19qtractorConnectForm11audioUpdateEb
qtractor:_ZN19qtractorConnectForm11qt_metacallEN11QMetaObject4CallEiPPv
qtractor:_ZN19qtractorConnectForm11qt_metacastEPKc
qtractor:_ZN19qtractorConnectForm13midiStabilizeEv
qtractor:_ZN19qtractorConnectForm14audioStabilizeEv
qtractor:_ZN19qtractorConnectForm14connectChangedEv
qtractor:_ZN19qtractorConnectForm16staticMetaObjectE
qtractor:_ZN19qtractorConnectForm17midiDisconnectAllEv
qtractor:_ZN19qtractorConnectForm18audioDisconnectAllEv
qtractor:_ZN19qtractorConnectForm18midiConnectChangedEv
qtractor:_ZN19qtractorConnectForm18midiIClientChangedEv
qtractor:_ZN19qtractorConnectForm18midiOClientChangedEv
qtractor:_ZN19qtractorConnectForm19audioConnectChangedEv
qtractor:_ZN19qtractorConnectForm19audioIClientChangedEv
qtractor:_ZN19qtractorConnectForm19audioOClientChangedEv
qtractor:_ZN19qtractorConnectForm19midiConnectSelectedEv
qtractor:_ZN19qtractorConnectForm20audioConnectSelectedEv
qtractor:_ZN19qtractorConnectForm21updateClientsComboBoxEP9QComboBoxP22qtractorClientListViewRK5QIcon
qtractor:_ZN19qtractorConnectForm22midiDisconnectSelectedEv
qtractor:_ZN19qtractorConnectForm23audioDisconnectSelectedEv
qtractor:_ZN19qtractorConnectForm9midiResetEv
qtractor:_ZN19qtractorConnectFormC1EP7QWidget6QFlagsIN2Qt10WindowTypeEE
qtractor:_ZN19qtractorConnectFormC2EP7QWidget6QFlagsIN2Qt10WindowTypeEE
qtractor:_ZN19qtractorConnectFormD0Ev
qtractor:_ZN19qtractorConnectFormD1Ev
qtractor:_ZN19qtractorConnectFormD2Ev
qtractor:_ZN19qtractorConnections10closeEventEP11QCloseEvent
qtractor:_ZN19qtractorConnections11qt_metacallEN11QMetaObject4CallEiPPv
qtractor:_ZN19qtractorConnections11qt_metacastEPKc
qtractor:_ZN19qtractorConnections13keyPressEventEP9QKeyEvent
qtractor:_ZN19qtractorConnections16staticMetaObjectE
qtractor:_ZN19qtractorConnections5clearEv
qtractor:_ZN19qtractorConnections5resetEv
qtractor:_ZN19qtractorConnections7refreshEv
qtractor:_ZN19qtractorConnections7showBusEP11qtractorBusNS0_7BusModeE
qtractor:_ZN19qtractorConnectionsC1EP7QWidget6QFlagsIN2Qt10WindowTypeEE
qtractor:_ZN19qtractorConnectionsC2EP7QWidget6QFlagsIN2Qt10WindowTypeEE
qtractor:_ZN19qtractorConnectionsD0Ev
qtractor:_ZN19qtractorConnectionsD1Ev
qtractor:_ZN19qtractorConnectionsD2Ev
qtractor:_ZN19qtractorCurveSelect10removeItemEPN13qtractorCurve4NodeE
qtractor:_ZN19qtractorCurveSelect10selectItemEP13qtractorCurvePNS0_4NodeERK5QRectbb
qtractor:_ZN19qtractorCurveSelect5clearEv
qtractor:_ZN19qtractorCurveSelect6commitEv
qtractor:_ZN19qtractorCurveSelect6updateEb
qtractor:_ZN19qtractorCurveSelect7addItemEPN13qtractorCurve4NodeERK5QRect
qtractor:_ZN19qtractorCurveSelect8findItemEPN13qtractorCurve4NodeE
qtractor:_ZN19qtractorCurveSelectC1Ev
qtractor:_ZN19qtractorCurveSelectC2Ev
qtractor:_ZN19qtractorCurveSelectD1Ev
qtractor:_ZN19qtractorCurveSelectD2Ev
qtractor:_ZN19qtractorMessageList11g_pInstanceE
qtractor:_ZN19qtractorMessageList5clearEv
qtractor:_ZN19qtractorMessageList5itemsEv
qtractor:_ZN19qtractorMessageList6appendERK7QString
qtractor:_ZN19qtractorMessageList7isEmptyEv
qtractor:_ZN19qtractorMessageListC1Ev
qtractor:_ZN19qtractorMessageListC2Ev
qtractor:_ZN19qtractorMessageListD1Ev
qtractor:_ZN19qtractorMessageListD2Ev
qtractor:_ZN19qtractorMidiConnect11createIconsEv
qtractor:_ZN19qtractorMidiConnect11deleteIconsEv
qtractor:_ZN19qtractorMidiConnect12connectPortsEP20qtractorPortListItemS1_
qtractor:_ZN19qtractorMidiConnect15disconnectPortsEP20qtractorPortListItemS1_
qtractor:_ZN19qtractorMidiConnect16g_iIconsRefCountE
qtractor:_ZN19qtractorMidiConnect17updateConnectionsEv
qtractor:_ZN19qtractorMidiConnect21disconnectPortsUpdateEP20qtractorPortListItemS1_
qtractor:_ZN19qtractorMidiConnect4iconEi
qtractor:_ZN19qtractorMidiConnect9g_apIconsE
qtractor:_ZN19qtractorMidiConnectC1EP26qtractorMidiClientListViewS1_P21qtractorConnectorView
qtractor:_ZN19qtractorMidiConnectC2EP26qtractorMidiClientListViewS1_P21qtractorConnectorView
qtractor:_ZN19qtractorMidiConnectD0Ev
qtractor:_ZN19qtractorMidiConnectD1Ev
qtractor:_ZN19qtractorMidiConnectD2Ev
qtractor:_ZN19qtractorMidiControl11getInstanceEv
qtractor:_ZN19qtractorMidiControl11keyFromTextERK7QString
qtractor:_ZN19qtractorMidiControl11loadElementEPNS_8DocumentEP11QDomElement
qtractor:_ZN19qtractorMidiControl11saveElementEPNS_8DocumentEP11QDomElement
qtractor:_ZN19qtractorMidiControl11textFromKeyEt
qtractor:_ZN19qtractorMidiControl12loadDocumentERK7QString
qtractor:_ZN19qtractorMidiControl12nameFromTypeEN17qtractorMidiEvent9EventTypeE
qtractor:_ZN19qtractorMidiControl12processEventERK16qtractorCtlEvent
qtractor:_ZN19qtractorMidiControl12saveDocumentERK7QString
qtractor:_ZN19qtractorMidiControl12textFromTypeEN17qtractorMidiEvent9EventTypeE
qtractor:_ZN19qtractorMidiControl12typeFromNameERK7QString
qtractor:_ZN19qtractorMidiControl12typeFromTextERK7QString
qtractor:_ZN19qtractorMidiControl14g_pMidiControlE
qtractor:_ZN19qtractorMidiControl15clearControlMapEv
qtractor:_ZN19qtractorMidiControl15commandFromNameERK7QString
qtractor:_ZN19qtractorMidiControl15commandFromTextERK7QString
qtractor:_ZN19qtractorMidiControl15loadControllersEP11QDomElementR5QListIPNS_10ControllerEE
qtractor:_ZN19qtractorMidiControl15mapChannelParamEN17qtractorMidiEvent9EventTypeEttNS_7CommandEii
qtractor:_ZN19qtractorMidiControl15mapChannelTrackEN17qtractorMidiEvent9EventTypeEtNS_7CommandEii
qtractor:_ZN19qtractorMidiControl15mapMidiObserverEP27qtractorMidiControlObserver
qtractor:_ZN19qtractorMidiControl15nameFromCommandENS_7CommandE
qtractor:_ZN19qtractorMidiControl15saveControllersEP16qtractorDocumentP11QDomElementRK5QListIPNS_10ControllerEE
qtractor:_ZN19qtractorMidiControl15textFromCommandENS_7CommandE
qtractor:_ZN19qtractorMidiControl16initCommandNamesEv
qtractor:_ZN19qtractorMidiControl16initControlTypesEv
qtractor:_ZN19qtractorMidiControl17unmapChannelParamEN17qtractorMidiEvent9EventTypeEtt
qtractor:_ZN19qtractorMidiControl17unmapMidiObserverEP27qtractorMidiControlObserver
qtractor:_ZN19qtractorMidiControl19processTrackCommandENS_7CommandEib
qtractor:_ZN19qtractorMidiControl19processTrackCommandENS_7CommandEifb
qtractor:_ZN19qtractorMidiControl19sendTrackControllerEiNS_7CommandEfb
qtractor:_ZN19qtractorMidiControl20mapChannelParamTrackEN17qtractorMidiEvent9EventTypeEttNS_7CommandEii
qtractor:_ZN19qtractorMidiControl5clearEv
qtractor:_ZN19qtractorMidiControl6isSyncEv
qtractor:_ZN19qtractorMidiControl7g_bSyncE
qtractor:_ZN19qtractorMidiControl7setSyncEb
qtractor:_ZN19qtractorMidiControl8Document4loadERK7QString
qtractor:_ZN19qtractorMidiControl8Document4saveERK7QString
qtractor:_ZN19qtractorMidiControl9findEventERK16qtractorCtlEvent
qtractor:_ZN19qtractorMidiControlC1Ev
qtractor:_ZN19qtractorMidiControlC2Ev
qtractor:_ZN19qtractorMidiControlD1Ev
qtractor:_ZN19qtractorMidiControlD2Ev
qtractor:_ZN19qtractorMidiManager11processSyncEv
qtractor:_ZN19qtractorMidiManager13setControllerEtii
qtractor:_ZN19qtractorMidiManager15vst_events_copyEP10_VstEvents
qtractor:_ZN19qtractorMidiManager15vst_events_swapEv
qtractor:_ZN19qtractorMidiManager16swapEventBuffersEv
qtractor:_ZN19qtractorMidiManager17createMidiManagerEP18qtractorPluginList
qtractor:_ZN19qtractorMidiManager17deleteMidiManagerEPS_
qtractor:_ZN19qtractorMidiManager17g_bAudioOutputBusE
qtractor:_ZN19qtractorMidiManager17resetInputBuffersEv
qtractor:_ZN19qtractorMidiManager17setAudioOutputBusEb
qtractor:_ZN19qtractorMidiManager17updateInstrumentsEv
qtractor:_ZN19qtractorMidiManager18processInputBufferEP23qtractorMidiInputBufferm
qtractor:_ZN19qtractorMidiManager18resetOutputBuffersEv
qtractor:_ZN19qtractorMidiManager19processEventBuffersEv
qtractor:_ZN19qtractorMidiManager19resetAudioOutputBusEv
qtractor:_ZN19qtractorMidiManager20createAudioOutputBusEv
qtractor:_ZN19qtractorMidiManager20deleteAudioOutputBusEv
qtractor:_ZN19qtractorMidiManager20lv2_atom_buffer_swapEv
qtractor:_ZN19qtractorMidiManager21setAudioOutputMonitorEb
qtractor:_ZN19qtractorMidiManager22lv2_atom_buffer_resizeEj
qtractor:_ZN19qtractorMidiManager23isDefaultAudioOutputBusEv
qtractor:_ZN19qtractorMidiManager23setAudioOutputMonitorExEb
qtractor:_ZN19qtractorMidiManager24setDefaultAudioOutputBusEb
qtractor:_ZN19qtractorMidiManager25g_bAudioOutputAutoConnectE
qtractor:_ZN19qtractorMidiManager31isDefaultAudioOutputAutoConnectEv
qtractor:_ZN19qtractorMidiManager32setDefaultAudioOutputAutoConnectEb
qtractor:_ZN19qtractorMidiManager5clearEv
qtractor:_ZN19qtractorMidiManager5resetEv
qtractor:_ZN19qtractorMidiManager6directEP13snd_seq_event
qtractor:_ZN19qtractorMidiManager6queuedEP13snd_seq_eventmm
qtractor:_ZN19qtractorMidiManager7processEmm
qtractor:_ZN19qtractorMidiManager7shutOffEt
qtractor:_ZN19qtractorMidiManagerC1EP18qtractorPluginListj
qtractor:_ZN19qtractorMidiManagerC2EP18qtractorPluginListj
qtractor:_ZN19qtractorMidiManagerD1Ev
qtractor:_ZN19qtractorMidiManagerD2Ev
qtractor:_ZN19qtractorMidiMonitor11count_stampEm
qtractor:_ZN19qtractorMidiMonitor11g_iTimeSlotE
qtractor:_ZN19qtractorMidiMonitor11value_stampEm
qtractor:_ZN19qtractorMidiMonitor12g_iFrameSlotE
qtractor:_ZN19qtractorMidiMonitor12g_iTimeSplitE
qtractor:_ZN19qtractorMidiMonitor5clearEv
qtractor:_ZN19qtractorMidiMonitor5resetEv
qtractor:_ZN19qtractorMidiMonitor6updateEv
qtractor:_ZN19qtractorMidiMonitor7enqueueEN17qtractorMidiEvent9EventTypeEhm
qtractor:_ZN19qtractorMidiMonitor9resetTimeEP17qtractorTimeScalem
qtractor:_ZN19qtractorMidiMonitor9splitTimeEP17qtractorTimeScalemm
qtractor:_ZN19qtractorMidiMonitorC1ERKS_
qtractor:_ZN19qtractorMidiMonitorC1Eff
qtractor:_ZN19qtractorMidiMonitorC2ERKS_
qtractor:_ZN19qtractorMidiMonitorC2Eff
qtractor:_ZN19qtractorMidiMonitorD0Ev
qtractor:_ZN19qtractorMidiMonitorD1Ev
qtractor:_ZN19qtractorMidiMonitorD2Ev
qtractor:_ZN19qtractorOptionsForm10setOptionsEP15qtractorOptions
qtractor:_ZN19qtractorOptionsForm11qt_metacallEN11QMetaObject4CallEiPPv
qtractor:_ZN19qtractorOptionsForm11qt_metacastEPKc
qtractor:_ZN19qtractorOptionsForm13addPluginPathEv
qtractor:_ZN19qtractorOptionsForm13stabilizeFormEv
qtractor:_ZN19qtractorOptionsForm15updateColorTextEP9QLineEditRK6QColor
qtractor:_ZN19qtractorOptionsForm16changePluginPathERK7QString
qtractor:_ZN19qtractorOptionsForm16choosePluginPathEv
qtractor:_ZN19qtractorOptionsForm16choosePluginTypeEi
qtractor:_ZN19qtractorOptionsForm16moveUpPluginPathEv
qtractor:_ZN19qtractorOptionsForm16removePluginPathEv
qtractor:_ZN19qtractorOptionsForm16resetMeterColorsEv
qtractor:_ZN19qtractorOptionsForm16selectPluginPathEv
qtractor:_ZN19qtractorOptionsForm16staticMetaObjectE
qtractor:_ZN19qtractorOptionsForm18chooseLv2PresetDirEv
qtractor:_ZN19qtractorOptionsForm18chooseMessagesFontEv
qtractor:_ZN19qtractorOptionsForm18initSessionFormatsEv
qtractor:_ZN19qtractorOptionsForm18moveDownPluginPathEv
qtractor:_ZN19qtractorOptionsForm20changeMidiMeterColorERK7QString
qtractor:_ZN19qtractorOptionsForm20changeMidiMeterLevelEi
qtractor:_ZN19qtractorOptionsForm20chooseMidiMeterColorEv
qtractor:_ZN19qtractorOptionsForm20displayFormatChangedEi
qtractor:_ZN19qtractorOptionsForm20getOpenAudioFileNameERK7QStringS2_
qtractor:_ZN19qtractorOptionsForm20updateMetroNoteNamesEv
qtractor:_ZN19qtractorOptionsForm21changeAudioMeterColorERK7QString
qtractor:_ZN19qtractorOptionsForm21changeAudioMeterLevelEi
qtractor:_ZN19qtractorOptionsForm21chooseAudioMeterColorEv
qtractor:_ZN19qtractorOptionsForm21chooseMessagesLogPathEv
qtractor:_ZN19qtractorOptionsForm21editCustomColorThemesEv
qtractor:_ZN19qtractorOptionsForm22chooseMetroBarFilenameEv
qtractor:_ZN19qtractorOptionsForm22resetCustomColorThemesERK7QString
qtractor:_ZN19qtractorOptionsForm22resetCustomStyleThemesERK7QString
qtractor:_ZN19qtractorOptionsForm23audioCaptureTypeChangedEi
qtractor:_ZN19qtractorOptionsForm23chooseMetroBeatFilenameEv
qtractor:_ZN19qtractorOptionsForm25chooseSessionTemplatePathEv
qtractor:_ZN19qtractorOptionsForm6acceptEv
qtractor:_ZN19qtractorOptionsForm6rejectEv
qtractor:_ZN19qtractorOptionsForm7changedEv
qtractor:_ZN19qtractorOptionsFormC1EP7QWidget
qtractor:_ZN19qtractorOptionsFormC2EP7QWidget
qtractor:_ZN19qtractorOptionsFormD0Ev
qtractor:_ZN19qtractorOptionsFormD1Ev
qtractor:_ZN19qtractorOptionsFormD2Ev
qtractor:_ZN19qtractorPaletteForm10RoleEditor11qt_metacallEN11QMetaObject4CallEiPPv
qtractor:_ZN19qtractorPaletteForm10RoleEditor11qt_metacastEPKc
qtractor:_ZN19qtractorPaletteForm10RoleEditor13resetPropertyEv
qtractor:_ZN19qtractorPaletteForm10RoleEditor16staticMetaObjectE
qtractor:_ZN19qtractorPaletteForm10RoleEditor7changedEP7QWidget
qtractor:_ZN19qtractorPaletteForm10RoleEditor8setLabelERK7QString
qtractor:_ZN19qtractorPaletteForm10RoleEditor9setEditedEb
qtractor:_ZN19qtractorPaletteForm10RoleEditorC1EP7QWidget
qtractor:_ZN19qtractorPaletteForm10RoleEditorC2EP7QWidget
qtractor:_ZN19qtractorPaletteForm10setPaletteERK8QPalette
qtractor:_ZN19qtractorPaletteForm10setPaletteERK8QPaletteS2_
qtractor:_ZN19qtractorPaletteForm11ColorButton10paintEventEP11QPaintEvent
qtractor:_ZN19qtractorPaletteForm11ColorButton11chooseColorEv
qtractor:_ZN19qtractorPaletteForm11ColorButton11qt_metacallEN11QMetaObject4CallEiPPv
qtractor:_ZN19qtractorPaletteForm11ColorButton11qt_metacastEPKc
qtractor:_ZN19qtractorPaletteForm11ColorButton16staticMetaObjectE
qtractor:_ZN19qtractorPaletteForm11ColorButton7changedEv
qtractor:_ZN19qtractorPaletteForm11ColorButton8setBrushERK6QBrush
qtractor:_ZN19qtractorPaletteForm11ColorButtonC1EP7QWidget
qtractor:_ZN19qtractorPaletteForm11ColorButtonC2EP7QWidget
qtractor:_ZN19qtractorPaletteForm11ColorEditor11qt_metacallEN11QMetaObject4CallEiPPv
qtractor:_ZN19qtractorPaletteForm11ColorEditor11qt_metacastEPKc
qtractor:_ZN19qtractorPaletteForm11ColorEditor12colorChangedEv
qtractor:_ZN19qtractorPaletteForm11ColorEditor16staticMetaObjectE
qtractor:_ZN19qtractorPaletteForm11ColorEditor7changedEP7QWidget
qtractor:_ZN19qtractorPaletteForm11ColorEditor8setColorERK6QColor
qtractor:_ZN19qtractorPaletteForm11ColorEditorC1EP7QWidget
qtractor:_ZN19qtractorPaletteForm11ColorEditorC2EP7QWidget
qtractor:_ZN19qtractorPaletteForm11qt_metacallEN11QMetaObject4CallEiPPv
qtractor:_ZN19qtractorPaletteForm11qt_metacastEPKc
qtractor:_ZN19qtractorPaletteForm11resizeEventEP12QResizeEvent
qtractor:_ZN19qtractorPaletteForm11setSettingsEP9QSettingsb
qtractor:_ZN19qtractorPaletteForm12PaletteModel10setPaletteERK8QPaletteS3_
qtractor:_ZN19qtractorPaletteForm12PaletteModel11qt_metacallEN11QMetaObject4CallEiPPv
qtractor:_ZN19qtractorPaletteForm12PaletteModel11qt_metacastEPKc
qtractor:_ZN19qtractorPaletteForm12PaletteModel14paletteChangedERK8QPalette
qtractor:_ZN19qtractorPaletteForm12PaletteModel16staticMetaObjectE
qtractor:_ZN19qtractorPaletteForm12PaletteModel7setDataERK11QModelIndexRK8QVarianti
qtractor:_ZN19qtractorPaletteForm12PaletteModelC1EP7QObject
qtractor:_ZN19qtractorPaletteForm12PaletteModelC2EP7QObject
qtractor:_ZN19qtractorPaletteForm12namedPaletteEP9QSettingsRK7QStringR8QPaletteb
qtractor:_ZN19qtractorPaletteForm12namedPaletteERK7QStringR8QPalette
qtractor:_ZN19qtractorPaletteForm13setDefaultDirERK7QString
qtractor:_ZN19qtractorPaletteForm14paletteChangedERK8QPalette
qtractor:_ZN19qtractorPaletteForm14setPaletteNameERK7QString
qtractor:_ZN19qtractorPaletteForm14setShowDetailsEb
qtractor:_ZN19qtractorPaletteForm16nameComboChangedERK7QString
qtractor:_ZN19qtractorPaletteForm16namedPaletteListEP9QSettings
qtractor:_ZN19qtractorPaletteForm16namedPaletteListEv
qtractor:_ZN19qtractorPaletteForm16saveNamedPaletteERK7QStringRK8QPalette
qtractor:_ZN19qtractorPaletteForm16staticMetaObjectE
qtractor:_ZN19qtractorPaletteForm17saveButtonClickedEv
qtractor:_ZN19qtractorPaletteForm18deleteNamedPaletteERK7QString
qtractor:_ZN19qtractorPaletteForm18resetButtonClickedEv
qtractor:_ZN19qtractorPaletteForm19deleteButtonClickedEv
qtractor:_ZN19qtractorPaletteForm19detailsCheckClickedEv
qtractor:_ZN19qtractorPaletteForm19exportButtonClickedEv
qtractor:_ZN19qtractorPaletteForm19importButtonClickedEv
qtractor:_ZN19qtractorPaletteForm19updateDialogButtonsEv
qtractor:_ZN19qtractorPaletteForm20updateGenerateButtonEv
qtractor:_ZN19qtractorPaletteForm21generateButtonChangedEv
qtractor:_ZN19qtractorPaletteForm22updateNamedPaletteListEv
qtractor:_ZN19qtractorPaletteForm6acceptEv
qtractor:_ZN19qtractorPaletteForm6rejectEv
qtractor:_ZN19qtractorPaletteForm9colorRoleERK7QString
qtractor:_ZN19qtractorPaletteForm9showEventEP10QShowEvent
qtractor:_ZN19qtractorPaletteFormC1EP7QWidgetRK8QPalette
qtractor:_ZN19qtractorPaletteFormC2EP7QWidgetRK8QPalette
qtractor:_ZN19qtractorPaletteFormD0Ev
qtractor:_ZN19qtractorPaletteFormD1Ev
qtractor:_ZN19qtractorPaletteFormD2Ev
qtractor:_ZN19qtractorSessionForm10propertiesEv
qtractor:_ZN19qtractorSessionForm10setSessionEP15qtractorSession
qtractor:_ZN19qtractorSessionForm11qt_metacallEN11QMetaObject4CallEiPPv
qtractor:_ZN19qtractorSessionForm11qt_metacastEPKc
qtractor:_ZN19qtractorSessionForm13stabilizeFormEv
qtractor:_ZN19qtractorSessionForm16browseSessionDirEv
qtractor:_ZN19qtractorSessionForm16changeSessionDirERK7QString
qtractor:_ZN19qtractorSessionForm16staticMetaObjectE
qtractor:_ZN19qtractorSessionForm17changeSessionNameERK7QString
qtractor:_ZN19qtractorSessionForm20changeAutoSessionDirEb
qtractor:_ZN19qtractorSessionForm6acceptEv
qtractor:_ZN19qtractorSessionForm6rejectEv
qtractor:_ZN19qtractorSessionForm7changedEv
qtractor:_ZN19qtractorSessionFormC1EP7QWidget
qtractor:_ZN19qtractorSessionFormC2EP7QWidget
qtractor:_ZN19qtractorSessionFormD0Ev
qtractor:_ZN19qtractorSessionFormD1Ev
qtractor:_ZN19qtractorSessionFormD2Ev
qtractor:_ZN19qtractorTimeSpinBox10setMaximumEm
qtractor:_ZN19qtractorTimeSpinBox10setMinimumEm
qtractor:_ZN19qtractorTimeSpinBox10updateTextEv
qtractor:_ZN19qtractorTimeSpinBox11qt_metacallEN11QMetaObject4CallEiPPv
qtractor:_ZN19qtractorTimeSpinBox11qt_metacastEPKc
qtractor:_ZN19qtractorTimeSpinBox11updateValueEmb
qtractor:_ZN19qtractorTimeSpinBox12setTimeScaleEP17qtractorTimeScale
qtractor:_ZN19qtractorTimeSpinBox12valueChangedERK7QString
qtractor:_ZN19qtractorTimeSpinBox12valueChangedEm
qtractor:_ZN19qtractorTimeSpinBox13keyPressEventEP9QKeyEvent
qtractor:_ZN19qtractorTimeSpinBox13setDeltaValueEbm
qtractor:_ZN19qtractorTimeSpinBox16contextMenuEventEP17QContextMenuEvent
qtractor:_ZN19qtractorTimeSpinBox16setDisplayFormatEN17qtractorTimeScale13DisplayFormatE
qtractor:_ZN19qtractorTimeSpinBox16staticMetaObjectE
qtractor:_ZN19qtractorTimeSpinBox16valueChangedSlotERK7QString
qtractor:_ZN19qtractorTimeSpinBox19editingFinishedSlotEv
qtractor:_ZN19qtractorTimeSpinBox19updateDisplayFormatEv
qtractor:_ZN19qtractorTimeSpinBox20displayFormatChangedEi
qtractor:_ZN19qtractorTimeSpinBox6stepByEi
qtractor:_ZN19qtractorTimeSpinBox8setValueEmb
qtractor:_ZN19qtractorTimeSpinBox9showEventEP10QShowEvent
qtractor:_ZN19qtractorTimeSpinBoxC1EP7QWidget
qtractor:_ZN19qtractorTimeSpinBoxC2EP7QWidget
qtractor:_ZN19qtractorTrackButton11qt_metacallEN11QMetaObject4CallEiPPv
qtractor:_ZN19qtractorTrackButton11qt_metacastEPKc
qtractor:_ZN19qtractorTrackButton11toggledSlotEb
qtractor:_ZN19qtractorTrackButton11updateTrackEv
qtractor:_ZN19qtractorTrackButton11updateValueEf
qtractor:_ZN19qtractorTrackButton16staticMetaObjectE
qtractor:_ZN19qtractorTrackButton17updateTrackButtonEv
qtractor:_ZN19qtractorTrackButton8setTrackEP13qtractorTrack
qtractor:_ZN19qtractorTrackButtonC1EP13qtractorTrackNS0_8ToolTypeEP7QWidget
qtractor:_ZN19qtractorTrackButtonC2EP13qtractorTrackNS0_8ToolTypeEP7QWidget
qtractor:_ZN20qtractorAudioConnect11createIconsEv
qtractor:_ZN20qtractorAudioConnect11deleteIconsEv
qtractor:_ZN20qtractorAudioConnect12connectPortsEP20qtractorPortListItemS1_
qtractor:_ZN20qtractorAudioConnect15disconnectPortsEP20qtractorPortListItemS1_
qtractor:_ZN20qtractorAudioConnect16g_iIconsRefCountE
qtractor:_ZN20qtractorAudioConnect17updateConnectionsEv
qtractor:_ZN20qtractorAudioConnect21disconnectPortsUpdateEP20qtractorPortListItemS1_
qtractor:_ZN20qtractorAudioConnect4iconEi
qtractor:_ZN20qtractorAudioConnect9g_apIconsE
qtractor:_ZN20qtractorAudioConnectC1EP27qtractorAudioClientListViewS1_P21qtractorConnectorView
qtractor:_ZN20qtractorAudioConnectC2EP27qtractorAudioClientListViewS1_P21qtractorConnectorView
qtractor:_ZN20qtractorAudioConnectD0Ev
qtractor:_ZN20qtractorAudioConnectD1Ev
qtractor:_ZN20qtractorAudioConnectD2Ev
qtractor:_ZN20qtractorAudioMadFile15createFrameListERK7QString
qtractor:_ZN20qtractorAudioMadFile4openERK7QStringi
qtractor:_ZN20qtractorAudioMadFile4readEPPfj
qtractor:_ZN20qtractorAudioMadFile4seekEm
qtractor:_ZN20qtractorAudioMadFile5closeEv
qtractor:_ZN20qtractorAudioMadFile5inputEv
qtractor:_ZN20qtractorAudioMadFile5writeEPPfj
qtractor:_ZN20qtractorAudioMadFile6decodeEv
qtractor:_ZN20qtractorAudioMadFile7g_mutexE
qtractor:_ZN20qtractorAudioMadFileC1Ej
qtractor:_ZN20qtractorAudioMadFileC2Ej
qtractor:_ZN20qtractorAudioMadFileD0Ev
qtractor:_ZN20qtractorAudioMadFileD1Ev
qtractor:_ZN20qtractorAudioMadFileD2Ev
qtractor:_ZN20qtractorAudioMonitor11setChannelsEt
qtractor:_ZN20qtractorAudioMonitor13process_meterEPPfjt
qtractor:_ZN20qtractorAudioMonitor5resetEv
qtractor:_ZN20qtractorAudioMonitor6updateEv
qtractor:_ZN20qtractorAudioMonitor7processEPPfjt
qtractor:_ZN20qtractorAudioMonitorC1ERKS_
qtractor:_ZN20qtractorAudioMonitorC1Etff
qtractor:_ZN20qtractorAudioMonitorC2ERKS_
qtractor:_ZN20qtractorAudioMonitorC2Etff
qtractor:_ZN20qtractorAudioMonitorD0Ev
qtractor:_ZN20qtractorAudioMonitorD1Ev
qtractor:_ZN20qtractorAudioMonitorD2Ev
qtractor:_ZN20qtractorAudioSndFile13isValidFormatEii
qtractor:_ZN20qtractorAudioSndFile16allocBufferCheckEj
qtractor:_ZN20qtractorAudioSndFile4openERK7QStringi
qtractor:_ZN20qtractorAudioSndFile4readEPPfj
qtractor:_ZN20qtractorAudioSndFile4seekEm
qtractor:_ZN20qtractorAudioSndFile5closeEv
qtractor:_ZN20qtractorAudioSndFile5writeEPPfj
qtractor:_ZN20qtractorAudioSndFile6formatEii
qtractor:_ZN20qtractorAudioSndFileC1Etjji
qtractor:_ZN20qtractorAudioSndFileC2Etjji
qtractor:_ZN20qtractorAudioSndFileD0Ev
qtractor:_ZN20qtractorAudioSndFileD1Ev
qtractor:_ZN20qtractorAudioSndFileD2Ev
qtractor:_ZN20qtractorCurveCommandC1ERK7QStringP13qtractorCurve
qtractor:_ZN20qtractorCurveCommandC2ERK7QStringP13qtractorCurve
qtractor:_ZN20qtractorFileListItemC1ERK7QString
qtractor:_ZN20qtractorFileListItemC2ERK7QString
qtractor:_ZN20qtractorFileListItemD0Ev
qtractor:_ZN20qtractorFileListItemD1Ev
qtractor:_ZN20qtractorFileListItemD2Ev
qtractor:_ZN20qtractorFileListView10removeItemEv
qtractor:_ZN20qtractorFileListView10renameItemEv
qtractor:_ZN20qtractorFileListView11addFileItemERK7QStringP21qtractorFileGroupItem
qtractor:_ZN20qtractorFileListView11cleanupItemEP15QTreeWidgetItem
qtractor:_ZN20qtractorFileListView11eventFilterEP7QObjectP6QEvent
qtractor:_ZN20qtractorFileListView11loadElementEP16qtractorDocumentP11QDomElement
qtractor:_ZN20qtractorFileListView11qt_metacallEN11QMetaObject4CallEiPPv
qtractor:_ZN20qtractorFileListView11qt_metacastEPKc
qtractor:_ZN20qtractorFileListView11saveElementEP16qtractorDocumentP11QDomElement
qtractor:_ZN20qtractorFileListView11setFileTypeEN16qtractorFileList4TypeE
qtractor:_ZN20qtractorFileListView11timeoutSlotEv
qtractor:_ZN20qtractorFileListView12activateItemEP15QTreeWidgetItem
qtractor:_ZN20qtractorFileListView12addGroupItemERK7QStringP21qtractorFileGroupItem
qtractor:_ZN20qtractorFileListView12dragDropItemERK6QPoint
qtractor:_ZN20qtractorFileListView12setRecentDirERK7QString
qtractor:_ZN20qtractorFileListView13dragMoveEventEP14QDragMoveEvent
qtractor:_ZN20qtractorFileListView13openFileNamesEv
qtractor:_ZN20qtractorFileListView14canDecodeEventEP10QDropEvent
qtractor:_ZN20qtractorFileListView14dragEnterEventEP15QDragEnterEvent
qtractor:_ZN20qtractorFileListView14dragLeaveEventEP15QDragLeaveEvent
qtractor:_ZN20qtractorFileListView14mouseMoveEventEP11QMouseEvent
qtractor:_ZN20qtractorFileListView14moveRubberBandEP15QTreeWidgetItemb
qtractor:_ZN20qtractorFileListView14selectFileItemERK7QStringi
qtractor:_ZN20qtractorFileListView15contentsChangedEv
qtractor:_ZN20qtractorFileListView15itemClickedSlotEP15QTreeWidgetItem
qtractor:_ZN20qtractorFileListView15itemRenamedSlotEv
qtractor:_ZN20qtractorFileListView15loadListElementEP16qtractorDocumentP11QDomElementP15QTreeWidgetItem
qtractor:_ZN20qtractorFileListView15mousePressEventEP11QMouseEvent
qtractor:_ZN20qtractorFileListView15saveListElementEP16qtractorDocumentP11QDomElementP15QTreeWidgetItem
qtractor:_ZN20qtractorFileListView16itemExpandedSlotEP15QTreeWidgetItem
qtractor:_ZN20qtractorFileListView16staticMetaObjectE
qtractor:_ZN20qtractorFileListView17ensureVisibleItemEP15QTreeWidgetItem
qtractor:_ZN20qtractorFileListView17itemActivatedSlotEP15QTreeWidgetItem
qtractor:_ZN20qtractorFileListView17itemCollapsedSlotEP15QTreeWidgetItem
qtractor:_ZN20qtractorFileListView17mouseReleaseEventEP11QMouseEvent
qtractor:_ZN20qtractorFileListView18setAutoOpenTimeoutEi
qtractor:_ZN20qtractorFileListView5clearEv
qtractor:_ZN20qtractorFileListView7cleanupEv
qtractor:_ZN20qtractorFileListView8copyItemEb
qtractor:_ZN20qtractorFileListView8dropItemEP15QTreeWidgetItemS1_b
qtractor:_ZN20qtractorFileListView8newGroupEv
qtractor:_ZN20qtractorFileListView8openFileEv
qtractor:_ZN20qtractorFileListView8selectedERK7QStringib
qtractor:_ZN20qtractorFileListView9activatedERK7QStringi
qtractor:_ZN20qtractorFileListView9dropEventEP10QDropEvent
qtractor:_ZN20qtractorFileListView9pasteItemEv
qtractor:_ZN20qtractorFileListViewC1EN16qtractorFileList4TypeEP7QWidget
qtractor:_ZN20qtractorFileListViewC2EN16qtractorFileList4TypeEP7QWidget
qtractor:_ZN20qtractorFileListViewD0Ev
qtractor:_ZN20qtractorFileListViewD1Ev
qtractor:_ZN20qtractorFileListViewD2Ev
qtractor:_ZN20qtractorLadspaPlugin10deactivateEv
qtractor:_ZN20qtractorLadspaPlugin11setChannelsEt
qtractor:_ZN20qtractorLadspaPlugin5ParamC1EPS_m
qtractor:_ZN20qtractorLadspaPlugin5ParamC2EPS_m
qtractor:_ZN20qtractorLadspaPlugin7processEPPfS1_j
qtractor:_ZN20qtractorLadspaPlugin8activateEv
qtractor:_ZN20qtractorLadspaPluginC1EP18qtractorPluginListP24qtractorLadspaPluginType
qtractor:_ZN20qtractorLadspaPluginC2EP18qtractorPluginListP24qtractorLadspaPluginType
qtractor:_ZN20qtractorLadspaPluginD0Ev
qtractor:_ZN20qtractorLadspaPluginD1Ev
qtractor:_ZN20qtractorLadspaPluginD2Ev
qtractor:_ZN20qtractorMidiEditList10dragNoteOnERK6QPointi
qtractor:_ZN20qtractorMidiEditList10dragNoteOnEii
qtractor:_ZN20qtractorMidiEditList10wheelEventEP11QWheelEvent
qtractor:_ZN20qtractorMidiEditList11dragNoteOffEv
qtractor:_ZN20qtractorMidiEditList11eventFilterEP7QObjectP6QEvent
qtractor:_ZN20qtractorMidiEditList11qt_metacallEN11QMetaObject4CallEiPPv
qtractor:_ZN20qtractorMidiEditList11qt_metacastEPKc
qtractor:_ZN20qtractorMidiEditList11resizeEventEP12QResizeEvent
qtractor:_ZN20qtractorMidiEditList12drawContentsEP8QPainterRK5QRect
qtractor:_ZN20qtractorMidiEditList12updatePixmapEii
qtractor:_ZN20qtractorMidiEditList13keyPressEventEP9QKeyEvent
qtractor:_ZN20qtractorMidiEditList13setItemHeightEt
qtractor:_ZN20qtractorMidiEditList14mouseMoveEventEP11QMouseEvent
qtractor:_ZN20qtractorMidiEditList14resetDragStateEv
qtractor:_ZN20qtractorMidiEditList14updateContentsERK5QRect
qtractor:_ZN20qtractorMidiEditList14updateContentsEv
qtractor:_ZN20qtractorMidiEditList15mousePressEventEP11QMouseEvent
qtractor:_ZN20qtractorMidiEditList16staticMetaObjectE
qtractor:_ZN20qtractorMidiEditList17mouseReleaseEventEP11QMouseEvent
qtractor:_ZN20qtractorMidiEditList19contentsYMovingSlotEii
qtractor:_ZN20qtractorMidiEditList20updateContentsHeightEv
qtractor:_ZN20qtractorMidiEditListC1EP18qtractorMidiEditorP7QWidget
qtractor:_ZN20qtractorMidiEditListC2EP18qtractorMidiEditorP7QWidget
qtractor:_ZN20qtractorMidiEditListD0Ev
qtractor:_ZN20qtractorMidiEditListD1Ev
qtractor:_ZN20qtractorMidiEditListD2Ev
qtractor:_ZN20qtractorMidiEditTime10wheelEventEP11QWheelEvent
qtractor:_ZN20qtractorMidiEditTime11eventFilterEP7QObjectP6QEvent
qtractor:_ZN20qtractorMidiEditTime11qt_metacallEN11QMetaObject4CallEiPPv
qtractor:_ZN20qtractorMidiEditTime11qt_metacastEPKc
qtractor:_ZN20qtractorMidiEditTime11resizeEventEP12QResizeEvent
qtractor:_ZN20qtractorMidiEditTime12drawContentsEP8QPainterRK5QRect
qtractor:_ZN20qtractorMidiEditTime12updatePixmapEii
qtractor:_ZN20qtractorMidiEditTime13dragHeadStartERK6QPoint
qtractor:_ZN20qtractorMidiEditTime13keyPressEventEP9QKeyEvent
qtractor:_ZN20qtractorMidiEditTime14mouseMoveEventEP11QMouseEvent
qtractor:_ZN20qtractorMidiEditTime14resetDragStateEv
qtractor:_ZN20qtractorMidiEditTime14updateContentsERK5QRect
qtractor:_ZN20qtractorMidiEditTime14updateContentsEv
qtractor:_ZN20qtractorMidiEditTime15mousePressEventEP11QMouseEvent
qtractor:_ZN20qtractorMidiEditTime16contextMenuEventEP17QContextMenuEvent
qtractor:_ZN20qtractorMidiEditTime16staticMetaObjectE
qtractor:_ZN20qtractorMidiEditTime17mouseReleaseEventEP11QMouseEvent
qtractor:_ZN20qtractorMidiEditTime19contentsXMovingSlotEii
qtractor:_ZN20qtractorMidiEditTime21mouseDoubleClickEventEP11QMouseEvent
qtractor:_ZN20qtractorMidiEditTimeC1EP18qtractorMidiEditorP7QWidget
qtractor:_ZN20qtractorMidiEditTimeC2EP18qtractorMidiEditorP7QWidget
qtractor:_ZN20qtractorMidiEditView10dragNoteOnEii
qtractor:_ZN20qtractorMidiEditView10drawEventsER8QPainteriiP20qtractorMidiSequencemmmmbRK6QColorS6_i
qtractor:_ZN20qtractorMidiEditView10wheelEventEP11QWheelEvent
qtractor:_ZN20qtractorMidiEditView11dragNoteOffEv
qtractor:_ZN20qtractorMidiEditView11eventFilterEP7QObjectP6QEvent
qtractor:_ZN20qtractorMidiEditView11qt_metacallEN11QMetaObject4CallEiPPv
qtractor:_ZN20qtractorMidiEditView11qt_metacastEPKc
qtractor:_ZN20qtractorMidiEditView11resizeEventEP12QResizeEvent
qtractor:_ZN20qtractorMidiEditView12drawContentsEP8QPainterRK5QRect
qtractor:_ZN20qtractorMidiEditView12setEventTypeEN17qtractorMidiEvent9EventTypeE
qtractor:_ZN20qtractorMidiEditView12updatePixmapEii
qtractor:_ZN20qtractorMidiEditView13focusOutEventEP11QFocusEvent
qtractor:_ZN20qtractorMidiEditView13keyPressEventEP9QKeyEvent
qtractor:_ZN20qtractorMidiEditView14mouseMoveEventEP11QMouseEvent
qtractor:_ZN20qtractorMidiEditView14updateContentsERK5QRect
qtractor:_ZN20qtractorMidiEditView14updateContentsEv
qtractor:_ZN20qtractorMidiEditView15mousePressEventEP11QMouseEvent
qtractor:_ZN20qtractorMidiEditView15setVBarGeometryER10QScrollBariiii
qtractor:_ZN20qtractorMidiEditView16staticMetaObjectE
qtractor:_ZN20qtractorMidiEditView17mouseReleaseEventEP11QMouseEvent
qtractor:_ZN20qtractorMidiEditView19contentsXMovingSlotEii
qtractor:_ZN20qtractorMidiEditView19contentsYMovingSlotEii
qtractor:_ZN20qtractorMidiEditView19updateContentsWidthEi
qtractor:_ZN20qtractorMidiEditView20updateContentsHeightEv
qtractor:_ZN20qtractorMidiEditViewC1EP18qtractorMidiEditorP7QWidget
qtractor:_ZN20qtractorMidiEditViewC2EP18qtractorMidiEditorP7QWidget
qtractor:_ZN20qtractorMidiEditViewD0Ev
qtractor:_ZN20qtractorMidiEditViewD1Ev
qtractor:_ZN20qtractorMidiEditViewD2Ev
qtractor:_ZN20qtractorMidiFileItemC1ERK7QStringP16qtractorMidiFile
qtractor:_ZN20qtractorMidiFileItemC2ERK7QStringP16qtractorMidiFile
qtractor:_ZN20qtractorMidiInputRpn7dequeueEP13snd_seq_event
qtractor:_ZN20qtractorMidiInputRpn7processEPK13snd_seq_event
qtractor:_ZN20qtractorMidiInputRpnC1Ev
qtractor:_ZN20qtractorMidiInputRpnC2Ev
qtractor:_ZN20qtractorMidiListView11qt_metacallEN11QMetaObject4CallEiPPv
qtractor:_ZN20qtractorMidiListView11qt_metacastEPKc
qtractor:_ZN20qtractorMidiListView14createFileItemERK7QString
qtractor:_ZN20qtractorMidiListView16getOpenFileNamesEv
qtractor:_ZN20qtractorMidiListView16staticMetaObjectE
qtractor:_ZN20qtractorMidiListViewC1EP7QWidget
qtractor:_ZN20qtractorMidiListViewC2EP7QWidget
qtractor:_ZN20qtractorMidiMeterLed12g_pLedPixmapE
qtractor:_ZN20qtractorMidiMeterLed14g_iLedRefCountE
qtractor:_ZN20qtractorMidiMeterLed7refreshEm
qtractor:_ZN20qtractorMidiMeterLedC1EP17qtractorMidiMeter
qtractor:_ZN20qtractorMidiMeterLedC2EP17qtractorMidiMeter
qtractor:_ZN20qtractorMidiMeterLedD0Ev
qtractor:_ZN20qtractorMidiMeterLedD1Ev
qtractor:_ZN20qtractorMidiMeterLedD2Ev
qtractor:_ZN20qtractorMidiPortItemC1EP22qtractorMidiClientItem
qtractor:_ZN20qtractorMidiPortItemC2EP22qtractorMidiClientItem
qtractor:_ZN20qtractorMidiPortItemD0Ev
qtractor:_ZN20qtractorMidiPortItemD1Ev
qtractor:_ZN20qtractorMidiPortItemD2Ev
qtractor:_ZN20qtractorMidiSequence10copyEventsEPS_
qtractor:_ZN20qtractorMidiSequence11insertEventEP17qtractorMidiEvent
qtractor:_ZN20qtractorMidiSequence11removeEventEP17qtractorMidiEvent
qtractor:_ZN20qtractorMidiSequence11unlinkEventEP17qtractorMidiEvent
qtractor:_ZN20qtractorMidiSequence13replaceEventsEPS_mm
qtractor:_ZN20qtractorMidiSequence5clearEv
qtractor:_ZN20qtractorMidiSequence5closeEv
qtractor:_ZN20qtractorMidiSequence8addEventEP17qtractorMidiEvent
qtractor:_ZN20qtractorMidiSequenceC1ERK7QStringtt
qtractor:_ZN20qtractorMidiSequenceC2ERK7QStringtt
qtractor:_ZN20qtractorMidiSequenceD1Ev
qtractor:_ZN20qtractorMidiSequenceD2Ev
qtractor:_ZN20qtractorMidiSyncItem11setWaitSyncEb
qtractor:_ZN20qtractorMidiSyncItem13g_pSyncThreadE
qtractor:_ZN20qtractorMidiSyncItem21g_iSyncThreadRefCountE
qtractor:_ZN20qtractorMidiSyncItem8syncItemEPS_
qtractor:_ZN20qtractorMidiSyncItemC1Ev
qtractor:_ZN20qtractorMidiSyncItemC2Ev
qtractor:_ZN20qtractorMidiSyncItemD0Ev
qtractor:_ZN20qtractorMidiSyncItemD1Ev
qtractor:_ZN20qtractorMidiSyncItemD2Ev
qtractor:_ZN20qtractorPortListItem10addConnectEPS_
qtractor:_ZN20qtractorPortListItem11findConnectEPS_
qtractor:_ZN20qtractorPortListItem11setPortNameERK7QString
qtractor:_ZN20qtractorPortListItem11setPortTextERK7QString
qtractor:_ZN20qtractorPortListItem13cleanConnectsEv
qtractor:_ZN20qtractorPortListItem13removeConnectEPS_
qtractor:_ZN20qtractorPortListItem14clientPortNameEv
qtractor:_ZN20qtractorPortListItem14markClientPortEi
qtractor:_ZN20qtractorPortListItem14updatePortNameEv
qtractor:_ZN20qtractorPortListItem8markPortEi
qtractor:_ZN20qtractorPortListItem9setHiliteEb
qtractor:_ZN20qtractorPortListItemC1EP22qtractorClientListItem
qtractor:_ZN20qtractorPortListItemC2EP22qtractorClientListItem
qtractor:_ZN20qtractorPortListItemD0Ev
qtractor:_ZN20qtractorPortListItemD1Ev
qtractor:_ZN20qtractorPortListItemD2Ev
qtractor:_ZN20qtractorShortcutForm11qt_metacallEN11QMetaObject4CallEiPPv
qtractor:_ZN20qtractorShortcutForm11qt_metacastEPKc
qtractor:_ZN20qtractorShortcutForm12commitEditorEP31qtractorShortcutTableItemEditor
qtractor:_ZN20qtractorShortcutForm13stabilizeFormEv
qtractor:_ZN20qtractorShortcutForm16setActionControlEP21qtractorActionControl
qtractor:_ZN20qtractorShortcutForm16staticMetaObjectE
qtractor:_ZN20qtractorShortcutForm21actionControlAcceptedEv
qtractor:_ZN20qtractorShortcutForm21actionShortcutChangedEP15QTreeWidgetItemi
qtractor:_ZN20qtractorShortcutForm22actionControlActivatedEv
qtractor:_ZN20qtractorShortcutForm23actionShortcutActivatedEP15QTreeWidgetItemi
qtractor:_ZN20qtractorShortcutForm26actionControlMenuRequestedERK6QPoint
qtractor:_ZN20qtractorShortcutForm6acceptEv
qtractor:_ZN20qtractorShortcutForm6rejectEv
qtractor:_ZN20qtractorShortcutFormC1ERK5QListIP7QActionEP7QWidget
qtractor:_ZN20qtractorShortcutFormC2ERK5QListIP7QActionEP7QWidget
qtractor:_ZN20qtractorShortcutFormD0Ev
qtractor:_ZN20qtractorShortcutFormD1Ev
qtractor:_ZN20qtractorShortcutFormD2Ev
qtractor:_ZN20qtractorTempoSpinBox10updateTextEv
qtractor:_ZN20qtractorTempoSpinBox11qt_metacallEN11QMetaObject4CallEiPPv
qtractor:_ZN20qtractorTempoSpinBox11qt_metacastEPKc
qtractor:_ZN20qtractorTempoSpinBox11updateValueEfttb
qtractor:_ZN20qtractorTempoSpinBox12valueChangedERK7QString
qtractor:_ZN20qtractorTempoSpinBox12valueChangedEftt
qtractor:_ZN20qtractorTempoSpinBox13keyPressEventEP9QKeyEvent
qtractor:_ZN20qtractorTempoSpinBox14setBeatDivisorEtb
qtractor:_ZN20qtractorTempoSpinBox14setBeatsPerBarEtb
qtractor:_ZN20qtractorTempoSpinBox16staticMetaObjectE
qtractor:_ZN20qtractorTempoSpinBox16valueChangedSlotERK7QString
qtractor:_ZN20qtractorTempoSpinBox19editingFinishedSlotEv
qtractor:_ZN20qtractorTempoSpinBox6stepByEi
qtractor:_ZN20qtractorTempoSpinBox8setTempoEfb
qtractor:_ZN20qtractorTempoSpinBox9showEventEP10QShowEvent
qtractor:_ZN20qtractorTempoSpinBoxC1EP7QWidget
qtractor:_ZN20qtractorTempoSpinBoxC2EP7QWidget
qtractor:_ZN20qtractorTrackCommand11removeTrackEv
qtractor:_ZN20qtractorTrackCommand8addTrackEv
qtractor:_ZN20qtractorTrackCommandC1ERK7QStringP13qtractorTrackS4_
qtractor:_ZN20qtractorTrackCommandC2ERK7QStringP13qtractorTrackS4_
qtractor:_ZN20qtractorTrackCommandD0Ev
qtractor:_ZN20qtractorTrackCommandD1Ev
qtractor:_ZN20qtractorTrackCommandD2Ev
qtractor:_ZN21qtractorActionControl11getInstanceEv
qtractor:_ZN21qtractorActionControl11qt_metacallEN11QMetaObject4CallEiPPv
qtractor:_ZN21qtractorActionControl11qt_metacastEPKc
qtractor:_ZN21qtractorActionControl12MidiObserver6updateEb
qtractor:_ZN21qtractorActionControl12MidiObserverC1EP7QAction
qtractor:_ZN21qtractorActionControl12MidiObserverC2EP7QAction
qtractor:_ZN21qtractorActionControl13triggeredSlotEb
qtractor:_ZN21qtractorActionControl14menuActionTextEP7QActionRK7QString
qtractor:_ZN21qtractorActionControl15addMidiObserverEP7QAction
qtractor:_ZN21qtractorActionControl15getMidiObserverEP7QAction
qtractor:_ZN21qtractorActionControl16g_pActionControlE
qtractor:_ZN21qtractorActionControl16staticMetaObjectE
qtractor:_ZN21qtractorActionControl18removeMidiObserverEP7QAction
qtractor:_ZN21qtractorActionControl5clearEv
qtractor:_ZN21qtractorActionControlC1EP7QObject
qtractor:_ZN21qtractorActionControlC2EP7QObject
qtractor:_ZN21qtractorActionControlD0Ev
qtractor:_ZN21qtractorActionControlD1Ev
qtractor:_ZN21qtractorActionControlD2Ev
qtractor:_ZN21qtractorAudioFileItemC1ERK7QStringP17qtractorAudioFile
qtractor:_ZN21qtractorAudioFileItemC2ERK7QStringP17qtractorAudioFile
qtractor:_ZN21qtractorAudioListView11qt_metacallEN11QMetaObject4CallEiPPv
qtractor:_ZN21qtractorAudioListView11qt_metacastEPKc
qtractor:_ZN21qtractorAudioListView14createFileItemERK7QString
qtractor:_ZN21qtractorAudioListView16getOpenFileNamesEv
qtractor:_ZN21qtractorAudioListView16staticMetaObjectE
qtractor:_ZN21qtractorAudioListViewC1EP7QWidget
qtractor:_ZN21qtractorAudioListViewC2EP7QWidget
qtractor:_ZN21qtractorAudioPeakFile10closeWriteEv
qtractor:_ZN21qtractorAudioPeakFile10readBufferEjmj
qtractor:_ZN21qtractorAudioPeakFile10writeFrameEv
qtractor:_ZN21qtractorAudioPeakFile11setWaitSyncEb
qtractor:_ZN21qtractorAudioPeakFile4readEmj
qtractor:_ZN21qtractorAudioPeakFile5writeEPPfj
qtractor:_ZN21qtractorAudioPeakFile6addRefEv
qtractor:_ZN21qtractorAudioPeakFile6periodEv
qtractor:_ZN21qtractorAudioPeakFile6removeEv
qtractor:_ZN21qtractorAudioPeakFile7cleanupEb
qtractor:_ZN21qtractorAudioPeakFile8channelsEv
qtractor:_ZN21qtractorAudioPeakFile8openReadEv
qtractor:_ZN21qtractorAudioPeakFile8peakNameERK7QStringf
qtractor:_ZN21qtractorAudioPeakFile9closeReadEv
qtractor:_ZN21qtractorAudioPeakFile9openWriteEtj
qtractor:_ZN21qtractorAudioPeakFile9removeRefEv
qtractor:_ZN21qtractorAudioPeakFileC1ERK7QStringf
qtractor:_ZN21qtractorAudioPeakFileC2ERK7QStringf
qtractor:_ZN21qtractorAudioPeakFileD1Ev
qtractor:_ZN21qtractorAudioPeakFileD2Ev
qtractor:_ZN21qtractorAudioPortItem14updatePortNameEv
qtractor:_ZN21qtractorAudioPortItemC1EP23qtractorAudioClientItemm
qtractor:_ZN21qtractorAudioPortItemC2EP23qtractorAudioClientItemm
qtractor:_ZN21qtractorAudioPortItemD0Ev
qtractor:_ZN21qtractorAudioPortItemD1Ev
qtractor:_ZN21qtractorAudioPortItemD2Ev
qtractor:_ZN21qtractorConnectorView10paintEventEP11QPaintEvent
qtractor:_ZN21qtractorConnectorView10setBindingEP15qtractorConnect
qtractor:_ZN21qtractorConnectorView11qt_metacallEN11QMetaObject4CallEiPPv
qtractor:_ZN21qtractorConnectorView11qt_metacastEPKc
qtractor:_ZN21qtractorConnectorView15contentsChangedEv
qtractor:_ZN21qtractorConnectorView16contextMenuEventEP17QContextMenuEvent
qtractor:_ZN21qtractorConnectorView16staticMetaObjectE
qtractor:_ZN21qtractorConnectorView18drawConnectionLineEP8QPainteriiiiiiRK4QPen
qtractor:_ZN21qtractorConnectorViewC1EP7QWidget
qtractor:_ZN21qtractorConnectorViewC2EP7QWidget
qtractor:_ZN21qtractorConnectorViewD0Ev
qtractor:_ZN21qtractorConnectorViewD1Ev
qtractor:_ZN21qtractorConnectorViewD2Ev
qtractor:_ZN21qtractorCurveEditList7executeEb
qtractor:_ZN21qtractorEditRangeForm11qt_metacallEN11QMetaObject4CallEiPPv
qtractor:_ZN21qtractorEditRangeForm11qt_metacastEPKc
qtractor:_ZN21qtractorEditRangeForm12rangeChangedEv
qtractor:_ZN21qtractorEditRangeForm12valueChangedEv
qtractor:_ZN21qtractorEditRangeForm13formatChangedEi
qtractor:_ZN21qtractorEditRangeForm13stabilizeFormEv
qtractor:_ZN21qtractorEditRangeForm13updateOptionsEv
qtractor:_ZN21qtractorEditRangeForm14optionsChangedEv
qtractor:_ZN21qtractorEditRangeForm16staticMetaObjectE
qtractor:_ZN21qtractorEditRangeForm17setSelectionRangeEmm
qtractor:_ZN21qtractorEditRangeForm6acceptEv
qtractor:_ZN21qtractorEditRangeForm9setOptionENS_6OptionEb
qtractor:_ZN21qtractorEditRangeFormC1EP7QWidget
qtractor:_ZN21qtractorEditRangeFormC2EP7QWidget
qtractor:_ZN21qtractorEditRangeFormD0Ev
qtractor:_ZN21qtractorEditRangeFormD1Ev
qtractor:_ZN21qtractorEditRangeFormD2Ev
qtractor:_ZN21qtractorFileGroupItem7setNameERK7QString
qtractor:_ZN21qtractorFileGroupItem7setOpenEb
qtractor:_ZN21qtractorFileGroupItemC1ERK7QStringi
qtractor:_ZN21qtractorFileGroupItemC2ERK7QStringi
qtractor:_ZN21qtractorFileGroupItemD0Ev
qtractor:_ZN21qtractorFileGroupItemD1Ev
qtractor:_ZN21qtractorFileGroupItemD2Ev
qtractor:_ZN21qtractorLv2PluginType10createTypeERK7QString
qtractor:_ZN21qtractorLv2PluginType10lv2_pluginERK7QString
qtractor:_ZN21qtractorLv2PluginType11lv2_pluginsEv
qtractor:_ZN21qtractorLv2PluginType4openEv
qtractor:_ZN21qtractorLv2PluginType5closeEv
qtractor:_ZN21qtractorLv2PluginType8lv2_openEv
qtractor:_ZN21qtractorLv2PluginType9aboutTextEv
qtractor:_ZN21qtractorLv2PluginType9lv2_closeEv
qtractor:_ZN21qtractorMidiEditEvent10drawEventsER8QPainteriiP20qtractorMidiSequencemmmmbRK6QColorS6_i
qtractor:_ZN21qtractorMidiEditEvent10wheelEventEP11QWheelEvent
qtractor:_ZN21qtractorMidiEditEvent11eventFilterEP7QObjectP6QEvent
qtractor:_ZN21qtractorMidiEditEvent11qt_metacallEN11QMetaObject4CallEiPPv
qtractor:_ZN21qtractorMidiEditEvent11qt_metacastEPKc
qtractor:_ZN21qtractorMidiEditEvent11resizeEventEP12QResizeEvent
qtractor:_ZN21qtractorMidiEditEvent12drawContentsEP8QPainterRK5QRect
qtractor:_ZN21qtractorMidiEditEvent12setEventTypeEN17qtractorMidiEvent9EventTypeE
qtractor:_ZN21qtractorMidiEditEvent12updatePixmapEii
qtractor:_ZN21qtractorMidiEditEvent13focusOutEventEP11QFocusEvent
qtractor:_ZN21qtractorMidiEditEvent13keyPressEventEP9QKeyEvent
qtractor:_ZN21qtractorMidiEditEvent13setEventParamEt
qtractor:_ZN21qtractorMidiEditEvent14mouseMoveEventEP11QMouseEvent
qtractor:_ZN21qtractorMidiEditEvent14updateContentsERK5QRect
qtractor:_ZN21qtractorMidiEditEvent14updateContentsEv
qtractor:_ZN21qtractorMidiEditEvent15mousePressEventEP11QMouseEvent
qtractor:_ZN21qtractorMidiEditEvent16staticMetaObjectE
qtractor:_ZN21qtractorMidiEditEvent17mouseReleaseEventEP11QMouseEvent
qtractor:_ZN21qtractorMidiEditEvent19contentsXMovingSlotEii
qtractor:_ZN21qtractorMidiEditEventC1EP18qtractorMidiEditorP7QWidget
qtractor:_ZN21qtractorMidiEditEventC2EP18qtractorMidiEditorP7QWidget
qtractor:_ZN21qtractorMidiEditEventD0Ev
qtractor:_ZN21qtractorMidiEditEventD1Ev
qtractor:_ZN21qtractorMidiEditEventD2Ev
qtractor:_ZN21qtractorMidiEventList10closeEventEP11QCloseEvent
qtractor:_ZN21qtractorMidiEventList11qt_metacallEN11QMetaObject4CallEiPPv
qtractor:_ZN21qtractorMidiEventList11qt_metacastEPKc
qtractor:_ZN21qtractorMidiEventList16changeNotifySlotEP18qtractorMidiEditor
qtractor:_ZN21qtractorMidiEventList16contextMenuEventEP17QContextMenuEvent
qtractor:_ZN21qtractorMidiEventList16selectNotifySlotEP18qtractorMidiEditor
qtractor:_ZN21qtractorMidiEventList16staticMetaObjectE
qtractor:_ZN21qtractorMidiEventList20selectionChangedSlotERK14QItemSelectionS2_
qtractor:_ZN21qtractorMidiEventList21currentRowChangedSlotERK11QModelIndexS2_
qtractor:_ZN21qtractorMidiEventList7refreshEv
qtractor:_ZN21qtractorMidiEventList9setEditorEP18qtractorMidiEditor
qtractor:_ZN21qtractorMidiEventList9showEventEP10QShowEvent
qtractor:_ZN21qtractorMidiEventListC1EP7QWidget
qtractor:_ZN21qtractorMidiEventListC2EP7QWidget
qtractor:_ZN21qtractorMidiEventListD0Ev
qtractor:_ZN21qtractorMidiEventListD1Ev
qtractor:_ZN21qtractorMidiEventListD2Ev
qtractor:_ZN21qtractorMidiFileTempo10removeNodeEPNS_4NodeE
qtractor:_ZN21qtractorMidiFileTempo10updateNodeEPNS_4NodeE
qtractor:_ZN21qtractorMidiFileTempo12removeMarkerEPNS_6MarkerE
qtractor:_ZN21qtractorMidiFileTempo13fromTimeScaleEP17qtractorTimeScalem
qtractor:_ZN21qtractorMidiFileTempo13intoTimeScaleEP17qtractorTimeScalem
qtractor:_ZN21qtractorMidiFileTempo4Node5resetEPS0_
qtractor:_ZN21qtractorMidiFileTempo4Node6updateEP16qtractorMidiFile
qtractor:_ZN21qtractorMidiFileTempo5clearEv
qtractor:_ZN21qtractorMidiFileTempo7addNodeEmftt
qtractor:_ZN21qtractorMidiFileTempo9addMarkerEmRK7QStringii
qtractor:_ZN21qtractorMidiSysexForm10deleteSlotEv
qtractor:_ZN21qtractorMidiSysexForm10exportSlotEv
qtractor:_ZN21qtractorMidiSysexForm10importSlotEv
qtractor:_ZN21qtractorMidiSysexForm10moveUpSlotEv
qtractor:_ZN21qtractorMidiSysexForm10removeSlotEv
qtractor:_ZN21qtractorMidiSysexForm10sysexGroupEv
qtractor:_ZN21qtractorMidiSysexForm10updateSlotEv
qtractor:_ZN21qtractorMidiSysexForm11nameChangedERK7QString
qtractor:_ZN21qtractorMidiSysexForm11qt_metacallEN11QMetaObject4CallEiPPv
qtractor:_ZN21qtractorMidiSysexForm11qt_metacastEPKc
qtractor:_ZN21qtractorMidiSysexForm11refreshFormEv
qtractor:_ZN21qtractorMidiSysexForm11textChangedEv
qtractor:_ZN21qtractorMidiSysexForm12moveDownSlotEv
qtractor:_ZN21qtractorMidiSysexForm12refreshSysexEv
qtractor:_ZN21qtractorMidiSysexForm12setSysexListEP21qtractorMidiSysexList
qtractor:_ZN21qtractorMidiSysexForm13loadSysexFileERK7QString
qtractor:_ZN21qtractorMidiSysexForm13saveSysexFileERK7QString
qtractor:_ZN21qtractorMidiSysexForm13stabilizeFormEv
qtractor:_ZN21qtractorMidiSysexForm14loadSysexItemsER5QListIP15QTreeWidgetItemERK7QString
qtractor:_ZN21qtractorMidiSysexForm16staticMetaObjectE
qtractor:_ZN21qtractorMidiSysexForm5clickEP15QAbstractButton
qtractor:_ZN21qtractorMidiSysexForm6acceptEv
qtractor:_ZN21qtractorMidiSysexForm6rejectEv
qtractor:_ZN21qtractorMidiSysexForm7addSlotEv
qtractor:_ZN21qtractorMidiSysexForm8loadSlotEi
qtractor:_ZN21qtractorMidiSysexForm8openSlotEv
qtractor:_ZN21qtractorMidiSysexForm8saveSlotEv
qtractor:_ZN21qtractorMidiSysexForm9clearSlotEv
qtractor:_ZN21qtractorMidiSysexFormC1EP7QWidget
qtractor:_ZN21qtractorMidiSysexFormC2EP7QWidget
qtractor:_ZN21qtractorMidiSysexFormD0Ev
qtractor:_ZN21qtractorMidiSysexFormD1Ev
qtractor:_ZN21qtractorMidiSysexFormD2Ev
qtractor:_ZN21qtractorMidiThumbView10paintEventEP11QPaintEvent
qtractor:_ZN21qtractorMidiThumbView10updateViewEi
qtractor:_ZN21qtractorMidiThumbView11qt_metacallEN11QMetaObject4CallEiPPv
qtractor:_ZN21qtractorMidiThumbView11qt_metacastEPKc
qtractor:_ZN21qtractorMidiThumbView11resizeEventEP12QResizeEvent
qtractor:_ZN21qtractorMidiThumbView11updateThumbEi
qtractor:_ZN21qtractorMidiThumbView12setPlayHeadXEi
qtractor:_ZN21qtractorMidiThumbView13keyPressEventEP9QKeyEvent
qtractor:_ZN21qtractorMidiThumbView14mouseMoveEventEP11QMouseEvent
qtractor:_ZN21qtractorMidiThumbView14resetDragStateEv
qtractor:_ZN21qtractorMidiThumbView14updateContentsEv
qtractor:_ZN21qtractorMidiThumbView14updatePlayHeadEm
qtractor:_ZN21qtractorMidiThumbView15mousePressEventEP11QMouseEvent
qtractor:_ZN21qtractorMidiThumbView16staticMetaObjectE
qtractor:_ZN21qtractorMidiThumbView17mouseReleaseEventEP11QMouseEvent
qtractor:_ZN21qtractorMidiThumbViewC1EP18qtractorMidiEditorP7QWidget
qtractor:_ZN21qtractorMidiThumbViewC2EP18qtractorMidiEditorP7QWidget
qtractor:_ZN21qtractorMidiToolsForm10loadPresetERK7QString
qtractor:_ZN21qtractorMidiToolsForm10presetSaveEv
qtractor:_ZN21qtractorMidiToolsForm10savePresetERK7QString
qtractor:_ZN21qtractorMidiToolsForm11editCommandEP16qtractorMidiClipP22qtractorMidiEditSelectmmm
qtractor:_ZN21qtractorMidiToolsForm11qt_metacallEN11QMetaObject4CallEiPPv
qtractor:_ZN21qtractorMidiToolsForm11qt_metacastEPKc
qtractor:_ZN21qtractorMidiToolsForm12presetDeleteEv
qtractor:_ZN21qtractorMidiToolsForm12setToolIndexEi
qtractor:_ZN21qtractorMidiToolsForm13formatChangedEi
qtractor:_ZN21qtractorMidiToolsForm13presetChangedERK7QString
qtractor:_ZN21qtractorMidiToolsForm13stabilizeFormEv
qtractor:_ZN21qtractorMidiToolsForm14refreshPresetsEv
qtractor:_ZN21qtractorMidiToolsForm15presetActivatedEi
qtractor:_ZN21qtractorMidiToolsForm16staticMetaObjectE
qtractor:_ZN21qtractorMidiToolsForm22timeshiftSliderChangedEi
qtractor:_ZN21qtractorMidiToolsForm23timeshiftSpinBoxChangedEd
qtractor:_ZN21qtractorMidiToolsForm6acceptEv
qtractor:_ZN21qtractorMidiToolsForm6rejectEv
qtractor:_ZN21qtractorMidiToolsForm7changedEv
qtractor:_ZN21qtractorMidiToolsFormC1EP7QWidget
qtractor:_ZN21qtractorMidiToolsFormC2EP7QWidget
qtractor:_ZN21qtractorMidiToolsFormD0Ev
qtractor:_ZN21qtractorMidiToolsFormD1Ev
qtractor:_ZN21qtractorMidiToolsFormD2Ev
qtractor:_ZN21qtractorMonitorButton11qt_metacallEN11QMetaObject4CallEiPPv
qtractor:_ZN21qtractorMonitorButton11qt_metacastEPKc
qtractor:_ZN21qtractorMonitorButton11toggledSlotEb
qtractor:_ZN21qtractorMonitorButton11updateValueEf
qtractor:_ZN21qtractorMonitorButton13updateMonitorEv
qtractor:_ZN21qtractorMonitorButton16staticMetaObjectE
qtractor:_ZN21qtractorMonitorButton17initMonitorButtonEv
qtractor:_ZN21qtractorMonitorButton6setBusEP11qtractorBus
qtractor:_ZN21qtractorMonitorButton8setTrackEP13qtractorTrack
qtractor:_ZN21qtractorMonitorButtonC1EP11qtractorBusP7QWidget
qtractor:_ZN21qtractorMonitorButtonC1EP13qtractorTrackP7QWidget
qtractor:_ZN21qtractorMonitorButtonC2EP11qtractorBusP7QWidget
qtractor:_ZN21qtractorMonitorButtonC2EP13qtractorTrackP7QWidget
qtractor:_ZN21qtractorPluginCommand10addPluginsEv
qtractor:_ZN21qtractorPluginCommand13removePluginsEv
qtractor:_ZN21qtractorPluginCommandC1ERK7QStringP14qtractorPlugin
qtractor:_ZN21qtractorPluginCommandC2ERK7QStringP14qtractorPlugin
qtractor:_ZN21qtractorPluginCommandD0Ev
qtractor:_ZN21qtractorPluginCommandD1Ev
qtractor:_ZN21qtractorPluginCommandD2Ev
qtractor:_ZN21qtractorPluginFactory11getInstanceEv
qtractor:_ZN21qtractorPluginFactory11pluginPathsEN18qtractorPluginType4HintE
qtractor:_ZN21qtractorPluginFactory11qt_metacallEN11QMetaObject4CallEiPPv
qtractor:_ZN21qtractorPluginFactory11qt_metacastEPKc
qtractor:_ZN21qtractorPluginFactory12createPluginEP18qtractorPluginListRK7QStringmN18qtractorPluginType4HintE
qtractor:_ZN21qtractorPluginFactory16g_pPluginFactoryE
qtractor:_ZN21qtractorPluginFactory16staticMetaObjectE
qtractor:_ZN21qtractorPluginFactory17updatePluginPathsEv
qtractor:_ZN21qtractorPluginFactory4scanEv
qtractor:_ZN21qtractorPluginFactory5clearEv
qtractor:_ZN21qtractorPluginFactory5resetEv
qtractor:_ZN21qtractorPluginFactory7Scanner11qt_metacallEN11QMetaObject4CallEiPPv
qtractor:_ZN21qtractorPluginFactory7Scanner11qt_metacastEPKc
qtractor:_ZN21qtractorPluginFactory7Scanner11stderr_slotEv
qtractor:_ZN21qtractorPluginFactory7Scanner11stdout_slotEv
qtractor:_ZN21qtractorPluginFactory7Scanner16staticMetaObjectE
qtractor:_ZN21qtractorPluginFactory7Scanner4openEb
qtractor:_ZN21qtractorPluginFactory7Scanner5closeEv
qtractor:_ZN21qtractorPluginFactory7Scanner5startEv
qtractor:_ZN21qtractorPluginFactory7Scanner8addTypesEN18qtractorPluginType4HintERK7QString
qtractor:_ZN21qtractorPluginFactory7Scanner8addTypesERK11QStringList
qtractor:_ZN21qtractorPluginFactory7Scanner9exit_slotEiN8QProcess10ExitStatusE
qtractor:_ZN21qtractorPluginFactory7ScannerC1EN18qtractorPluginType4HintEP7QObject
qtractor:_ZN21qtractorPluginFactory7ScannerC2EN18qtractorPluginType4HintEP7QObject
qtractor:_ZN21qtractorPluginFactory7scannedEi
qtractor:_ZN21qtractorPluginFactory8addFilesEN18qtractorPluginType4HintERK11QStringList
qtractor:_ZN21qtractorPluginFactory8addFilesEN18qtractorPluginType4HintERK7QString
qtractor:_ZN21qtractorPluginFactory8addTypesEN18qtractorPluginType4HintEP18qtractorPluginFilem
qtractor:_ZN21qtractorPluginFactory8addTypesEN18qtractorPluginType4HintERK7QString
qtractor:_ZN21qtractorPluginFactory8clearAllEv
qtractor:_ZN21qtractorPluginFactory9startScanEN18qtractorPluginType4HintE
qtractor:_ZN21qtractorPluginFactoryC1EP7QObject
qtractor:_ZN21qtractorPluginFactoryC2EP7QObject
qtractor:_ZN21qtractorPluginFactoryD0Ev
qtractor:_ZN21qtractorPluginFactoryD1Ev
qtractor:_ZN21qtractorPluginFactoryD2Ev
qtractor:_ZN21qtractorSessionCursor10resetClipsEv
qtractor:_ZN21qtractorSessionCursor11removeTrackEP13qtractorTrack
qtractor:_ZN21qtractorSessionCursor11removeTrackEj
qtractor:_ZN21qtractorSessionCursor11setSyncTypeEN13qtractorTrack9TrackTypeE
qtractor:_ZN21qtractorSessionCursor11updateClipsEPP12qtractorClipj
qtractor:_ZN21qtractorSessionCursor11updateTrackEP13qtractorTrack
qtractor:_ZN21qtractorSessionCursor15updateTrackClipEP13qtractorTrack
qtractor:_ZN21qtractorSessionCursor4seekEmb
qtractor:_ZN21qtractorSessionCursor5resetEv
qtractor:_ZN21qtractorSessionCursor7processEj
qtractor:_ZN21qtractorSessionCursor8addTrackEP13qtractorTrack
qtractor:_ZN21qtractorSessionCursorC1EP15qtractorSessionmN13qtractorTrack9TrackTypeE
qtractor:_ZN21qtractorSessionCursorC2EP15qtractorSessionmN13qtractorTrack9TrackTypeE
qtractor:_ZN21qtractorSessionCursorD1Ev
qtractor:_ZN21qtractorSessionCursorD2Ev
qtractor:_ZN21qtractorTakeRangeForm11qt_metacallEN11QMetaObject4CallEiPPv
qtractor:_ZN21qtractorTakeRangeForm11qt_metacastEPKc
qtractor:_ZN21qtractorTakeRangeForm12rangeChangedEv
qtractor:_ZN21qtractorTakeRangeForm12valueChangedEv
qtractor:_ZN21qtractorTakeRangeForm13formatChangedEi
qtractor:_ZN21qtractorTakeRangeForm13stabilizeFormEv
qtractor:_ZN21qtractorTakeRangeForm16staticMetaObjectE
qtractor:_ZN21qtractorTakeRangeForm17updateCurrentTakeEv
qtractor:_ZN21qtractorTakeRangeForm7setClipEP12qtractorClip
qtractor:_ZN21qtractorTakeRangeFormC1EP7QWidget
qtractor:_ZN21qtractorTakeRangeFormC2EP7QWidget
qtractor:_ZN21qtractorTakeRangeFormD0Ev
qtractor:_ZN21qtractorTakeRangeFormD1Ev
qtractor:_ZN21qtractorTakeRangeFormD2Ev
qtractor:_ZN21qtractorTimeScaleForm10barChangedEi
qtractor:_ZN21qtractorTimeScaleForm10removeItemEv
qtractor:_ZN21qtractorTimeScaleForm10selectItemEv
qtractor:_ZN21qtractorTimeScaleForm10updateItemEv
qtractor:_ZN21qtractorTimeScaleForm11contextMenuERK6QPoint
qtractor:_ZN21qtractorTimeScaleForm11markerColorEv
qtractor:_ZN21qtractorTimeScaleForm11modeChangedEi
qtractor:_ZN21qtractorTimeScaleForm11qt_metacallEN11QMetaObject4CallEiPPv
qtractor:_ZN21qtractorTimeScaleForm11qt_metacastEPKc
qtractor:_ZN21qtractorTimeScaleForm11tempoFactorEv
qtractor:_ZN21qtractorTimeScaleForm11timeChangedEm
qtractor:_ZN21qtractorTimeScaleForm12refreshItemsEv
qtractor:_ZN21qtractorTimeScaleForm12setTimeScaleEP17qtractorTimeScale
qtractor:_ZN21qtractorTimeScaleForm12tempoChangedEv
qtractor:_ZN21qtractorTimeScaleForm13stabilizeFormEv
qtractor:_ZN21qtractorTimeScaleForm14setCurrentItemEPN17qtractorTimeScale4NodeEm
qtractor:_ZN21qtractorTimeScaleForm16setCurrentMarkerEPN17qtractorTimeScale6MarkerE
qtractor:_ZN21qtractorTimeScaleForm16staticMetaObjectE
qtractor:_ZN21qtractorTimeScaleForm18ensureVisibleFrameEm
qtractor:_ZN21qtractorTimeScaleForm19updateKeySignaturesEii
qtractor:_ZN21qtractorTimeScaleForm22setCurrentKeySignatureEPN17qtractorTimeScale6MarkerE
qtractor:_ZN21qtractorTimeScaleForm6rejectEv
qtractor:_ZN21qtractorTimeScaleForm7addItemEv
qtractor:_ZN21qtractorTimeScaleForm7changedEv
qtractor:_ZN21qtractorTimeScaleForm7isDirtyEv
qtractor:_ZN21qtractorTimeScaleForm7refreshEv
qtractor:_ZN21qtractorTimeScaleForm8setFrameEm
qtractor:_ZN21qtractorTimeScaleForm8tempoTapEv
qtractor:_ZN21qtractorTimeScaleFormC1EP7QWidget
qtractor:_ZN21qtractorTimeScaleFormC2EP7QWidget
qtractor:_ZN21qtractorTimeStretcher5flushEv
qtractor:_ZN21qtractorTimeStretcher5resetEv
qtractor:_ZN21qtractorTimeStretcher7processEPPfj
qtractor:_ZN21qtractorTimeStretcher8retrieveEPPfj
qtractor:_ZN21qtractorTimeStretcherC1Etjffjj
qtractor:_ZN21qtractorTimeStretcherC2Etjffjj
qtractor:_ZN21qtractorTimeStretcherD1Ev
qtractor:_ZN21qtractorTimeStretcherD2Ev
qtractor:_ZN21qtractorVstPluginType10createTypeEP18qtractorPluginFilem
qtractor:_ZN21qtractorVstPluginType10vst_effectEP18qtractorPluginFile
qtractor:_ZN21qtractorVstPluginType4openEv
qtractor:_ZN21qtractorVstPluginType5closeEv
qtractor:_ZN21qtractorVstPluginType6Effect4openEP18qtractorPluginFilem
qtractor:_ZN21qtractorVstPluginType6Effect5closeEv
qtractor:_ZN21qtractorVstPluginType9aboutTextEv
qtractor:_ZN22qtractorBusGainCommand4redoEv
qtractor:_ZN22qtractorBusGainCommandC1EP11qtractorBusNS0_7BusModeEf
qtractor:_ZN22qtractorBusGainCommandC2EP11qtractorBusNS0_7BusModeEf
qtractor:_ZN22qtractorClientListItem10markClientEi
qtractor:_ZN22qtractorClientListItem12findPortItemERK7QString
qtractor:_ZN22qtractorClientListItem13setClientNameERK7QString
qtractor:_ZN22qtractorClientListItem13setClientTextERK7QString
qtractor:_ZN22qtractorClientListItem15markClientPortsEi
qtractor:_ZN22qtractorClientListItem16cleanClientPortsEi
qtractor:_ZN22qtractorClientListItem16updateClientNameEv
qtractor:_ZN22qtractorClientListItem7setOpenEb
qtractor:_ZN22qtractorClientListItem9setHiliteEb
qtractor:_ZN22qtractorClientListItemC1EP22qtractorClientListView
qtractor:_ZN22qtractorClientListItemC2EP22qtractorClientListView
qtractor:_ZN22qtractorClientListItemD0Ev
qtractor:_ZN22qtractorClientListItemD1Ev
qtractor:_ZN22qtractorClientListItemD2Ev
qtractor:_ZN22qtractorClientListView10isPortNameERK7QString
qtractor:_ZN22qtractorClientListView10setBindingEP15qtractorConnect
qtractor:_ZN22qtractorClientListView10setOpenAllEb
qtractor:_ZN22qtractorClientListView11eventFilterEP7QObjectP6QEvent
qtractor:_ZN22qtractorClientListView11qt_metacallEN11QMetaObject4CallEiPPv
qtractor:_ZN22qtractorClientListView11qt_metacastEPKc
qtractor:_ZN22qtractorClientListView11setPortNameERK7QString
qtractor:_ZN22qtractorClientListView11setReadableEb
qtractor:_ZN22qtractorClientListView11timeoutSlotEv
qtractor:_ZN22qtractorClientListView12dragDropItemERK6QPoint
qtractor:_ZN22qtractorClientListView12isClientNameERK7QString
qtractor:_ZN22qtractorClientListView13dragMoveEventEP14QDragMoveEvent
qtractor:_ZN22qtractorClientListView13setClientNameERK7QString
qtractor:_ZN22qtractorClientListView14dragEnterEventEP15QDragEnterEvent
qtractor:_ZN22qtractorClientListView14dragLeaveEventEP15QDragLeaveEvent
qtractor:_ZN22qtractorClientListView14findClientItemERK7QString
qtractor:_ZN22qtractorClientListView14mouseMoveEventEP11QMouseEvent
qtractor:_ZN22qtractorClientListView15markClientPortsEi
qtractor:_ZN22qtractorClientListView15mousePressEventEP11QMouseEvent
qtractor:_ZN22qtractorClientListView16cleanClientPortsEi
qtractor:_ZN22qtractorClientListView16contextMenuEventEP17QContextMenuEvent
qtractor:_ZN22qtractorClientListView16staticMetaObjectE
qtractor:_ZN22qtractorClientListView17hiliteClientPortsEv
qtractor:_ZN22qtractorClientListView18findClientPortItemERK7QString
qtractor:_ZN22qtractorClientListView18setAutoOpenTimeoutEi
qtractor:_ZN22qtractorClientListView5clearEv
qtractor:_ZN22qtractorClientListView7refreshEv
qtractor:_ZN22qtractorClientListView8lessThanERK15QTreeWidgetItemS2_i
qtractor:_ZN22qtractorClientListView9dropEventEP10QDropEvent
qtractor:_ZN22qtractorClientListViewC1EP7QWidget
qtractor:_ZN22qtractorClientListViewC2EP7QWidget
qtractor:_ZN22qtractorClientListViewD0Ev
qtractor:_ZN22qtractorClientListViewD1Ev
qtractor:_ZN22qtractorClientListViewD2Ev
qtractor:_ZN22qtractorCurveListProxy11qt_metacallEN11QMetaObject4CallEiPPv
qtractor:_ZN22qtractorCurveListProxy11qt_metacastEPKc
qtractor:_ZN22qtractorCurveListProxy16staticMetaObjectE
qtractor:_ZN22qtractorCurveListProxy6updateEv
qtractor:_ZN22qtractorExportClipForm11qt_metacallEN11QMetaObject4CallEiPPv
qtractor:_ZN22qtractorExportClipForm11qt_metacastEPKc
qtractor:_ZN22qtractorExportClipForm13setExportPathERK7QString
qtractor:_ZN22qtractorExportClipForm16staticMetaObjectE
qtractor:_ZN22qtractorExportClipForm6acceptEv
qtractor:_ZN22qtractorExportClipFormC1EP7QWidget
qtractor:_ZN22qtractorExportClipFormC2EP7QWidget
qtractor:_ZN22qtractorExportClipFormD0Ev
qtractor:_ZN22qtractorExportClipFormD1Ev
qtractor:_ZN22qtractorExportClipFormD2Ev
qtractor:_ZN22qtractorInstrumentForm10exportSlotEv
qtractor:_ZN22qtractorInstrumentForm10importSlotEv
qtractor:_ZN22qtractorInstrumentForm10moveUpSlotEv
qtractor:_ZN22qtractorInstrumentForm10reloadSlotEv
qtractor:_ZN22qtractorInstrumentForm10removeSlotEv
qtractor:_ZN22qtractorInstrumentForm11qt_metacallEN11QMetaObject4CallEiPPv
qtractor:_ZN22qtractorInstrumentForm11qt_metacastEPKc
qtractor:_ZN22qtractorInstrumentForm11refreshFormEv
qtractor:_ZN22qtractorInstrumentForm11reloadFilesERK11QStringList
qtractor:_ZN22qtractorInstrumentForm12itemExpandedEP15QTreeWidgetItem
qtractor:_ZN22qtractorInstrumentForm12moveDownSlotEv
qtractor:_ZN22qtractorInstrumentForm13itemCollapsedEP15QTreeWidgetItem
qtractor:_ZN22qtractorInstrumentForm13stabilizeFormEv
qtractor:_ZN22qtractorInstrumentForm14setInstrumentsEP22qtractorInstrumentList
qtractor:_ZN22qtractorInstrumentForm16staticMetaObjectE
qtractor:_ZN22qtractorInstrumentForm18listInstrumentDataEP15QTreeWidgetItemRK22qtractorInstrumentData
qtractor:_ZN22qtractorInstrumentForm22listInstrumentDataListEP15QTreeWidgetItemRK26qtractorInstrumentDataListRK5QIcon
qtractor:_ZN22qtractorInstrumentForm6acceptEv
qtractor:_ZN22qtractorInstrumentForm6rejectEv
qtractor:_ZN22qtractorInstrumentFormC1EP7QWidget
qtractor:_ZN22qtractorInstrumentFormC2EP7QWidget
qtractor:_ZN22qtractorInstrumentFormD0Ev
qtractor:_ZN22qtractorInstrumentFormD1Ev
qtractor:_ZN22qtractorInstrumentFormD2Ev
qtractor:_ZN22qtractorInstrumentList13loadSoundFontEP5QFile
qtractor:_ZN22qtractorInstrumentList13mergeDataListER26qtractorInstrumentDataListRKS0_
qtractor:_ZN22qtractorInstrumentList17loadMidiPatchBankEP11QDomElementR18qtractorInstrumentRK7QString
qtractor:_ZN22qtractorInstrumentList19loadMidiDeviceNamesEP11QDomElement
qtractor:_ZN22qtractorInstrumentList20loadMidiNameDocumentERK12QDomDocument
qtractor:_ZN22qtractorInstrumentList20loadMidiNoteNameListEP11QDomElementRK7QString
qtractor:_ZN22qtractorInstrumentList20loadSoundFontPresetsEP5QFilei
qtractor:_ZN22qtractorInstrumentList21loadMidiPatchNameListEP11QDomElementR18qtractorInstrumentRK7QString
qtractor:_ZN22qtractorInstrumentList22loadMidiChannelNameSetEP11QDomElementR18qtractorInstrument
qtractor:_ZN22qtractorInstrumentList23loadMidiControlNameListEP11QDomElementRK7QString
qtractor:_ZN22qtractorInstrumentList4loadERK7QString
qtractor:_ZN22qtractorInstrumentList5mergeERKS_
qtractor:_ZN22qtractorInstrumentList8clearAllEv
qtractor:_ZN22qtractorInstrumentMenu11qt_metacallEN11QMetaObject4CallEiPPv
qtractor:_ZN22qtractorInstrumentMenu11qt_metacastEPKc
qtractor:_ZN22qtractorInstrumentMenu14updateBankMenuEv
qtractor:_ZN22qtractorInstrumentMenu14updateProgMenuEv
qtractor:_ZN22qtractorInstrumentMenu15updateTrackMenuEP13qtractorTrackP5QMenu
qtractor:_ZN22qtractorInstrumentMenu16staticMetaObjectE
qtractor:_ZN22qtractorInstrumentMenu19progActionTriggeredEb
qtractor:_ZN22qtractorInstrumentMenu19scrollableMenuStyleEv
qtractor:_ZN22qtractorInstrumentMenuC1EP7QObject
qtractor:_ZN22qtractorInstrumentMenuC2EP7QObject
qtractor:_ZN22qtractorMidiClientItem12findPortItemEi
qtractor:_ZN22qtractorMidiClientItemC1EP26qtractorMidiClientListView
qtractor:_ZN22qtractorMidiClientItemC2EP26qtractorMidiClientListView
qtractor:_ZN22qtractorMidiClientItemD0Ev
qtractor:_ZN22qtractorMidiClientItemD1Ev
qtractor:_ZN22qtractorMidiClientItemD2Ev
qtractor:_ZN22qtractorMidiComboMeter10setMonitorEP15qtractorMonitor
qtractor:_ZN22qtractorMidiComboMeter11qt_metacallEN11QMetaObject4CallEiPPv
qtractor:_ZN22qtractorMidiComboMeter11qt_metacastEPKc
qtractor:_ZN22qtractorMidiComboMeter11resizeEventEP12QResizeEvent
qtractor:_ZN22qtractorMidiComboMeter14setMidiMonitorEP19qtractorMidiMonitor
qtractor:_ZN22qtractorMidiComboMeter16staticMetaObjectE
qtractor:_ZN22qtractorMidiComboMeter21setAudioOutputMonitorEP26qtractorAudioOutputMonitor
qtractor:_ZN22qtractorMidiComboMeter5resetEv
qtractor:_ZN22qtractorMidiComboMeterC1EP19qtractorMidiMonitorP7QWidget
qtractor:_ZN22qtractorMidiComboMeterC2EP19qtractorMidiMonitorP7QWidget
qtractor:_ZN22qtractorMidiComboMeterD0Ev
qtractor:_ZN22qtractorMidiComboMeterD1Ev
qtractor:_ZN22qtractorMidiComboMeterD2Ev
qtractor:_ZN22qtractorMidiEditSelect10selectItemEP17qtractorMidiEventRK5QRectS4_bb
qtractor:_ZN22qtractorMidiEditSelect5clearEv
qtractor:_ZN22qtractorMidiEditSelect6commitEv
qtractor:_ZN22qtractorMidiEditSelect6updateEb
qtractor:_ZN22qtractorMidiEditSelect7addItemEP17qtractorMidiEventRK5QRectS4_m
qtractor:_ZN22qtractorMidiEditSelect8findItemEP17qtractorMidiEvent
qtractor:_ZN22qtractorMidiEditSelectC1Ev
qtractor:_ZN22qtractorMidiEditSelectC2Ev
qtractor:_ZN22qtractorMidiEditSelectD1Ev
qtractor:_ZN22qtractorMidiEditSelectD2Ev
qtractor:_ZN22qtractorMidiEditorForm10closeEventEP11QCloseEvent
qtractor:_ZN22qtractorMidiEditorForm10editDeleteEv
qtractor:_ZN22qtractorMidiEditorForm10editModeOnEv
qtractor:_ZN22qtractorMidiEditorForm10fileSaveAsEv
qtractor:_ZN22qtractorMidiEditorForm10fileUnlinkEv
qtractor:_ZN22qtractorMidiEditorForm10posChangedEv
qtractor:_ZN22qtractorMidiEditorForm10queryCloseEv
qtractor:_ZN22qtractorMidiEditorForm10viewEventsEb
qtractor:_ZN22qtractorMidiEditorForm10viewFollowEb
qtractor:_ZN22qtractorMidiEditorForm10viewZoomInEv
qtractor:_ZN22qtractorMidiEditorForm11editModeOffEv
qtractor:_ZN22qtractorMidiEditorForm11fileLoopSetEv
qtractor:_ZN22qtractorMidiEditorForm11helpAboutQtEv
qtractor:_ZN22qtractorMidiEditorForm11qt_metacallEN11QMetaObject4CallEiPPv
qtractor:_ZN22qtractorMidiEditorForm11qt_metacastEPKc
qtractor:_ZN22qtractorMidiEditorForm11sizeChangedEv
qtractor:_ZN22qtractorMidiEditorForm11toolsResizeEv
qtractor:_ZN22qtractorMidiEditorForm11viewMenubarEb
qtractor:_ZN22qtractorMidiEditorForm11viewPreviewEb
qtractor:_ZN22qtractorMidiEditorForm11viewRefreshEv
qtractor:_ZN22qtractorMidiEditorForm11viewZoomAllEv
qtractor:_ZN22qtractorMidiEditorForm11viewZoomOutEv
qtractor:_ZN22qtractorMidiEditorForm12editModeDrawEb
qtractor:_ZN22qtractorMidiEditorForm12fileRangeSetEv
qtractor:_ZN22qtractorMidiEditorForm12fileRecordExEb
qtractor:_ZN22qtractorMidiEditorForm12saveClipFileEb
qtractor:_ZN22qtractorMidiEditorForm12toolsRescaleEv
qtractor:_ZN22qtractorMidiEditorForm12viewDrumModeEb
qtractor:_ZN22qtractorMidiEditorForm12viewNoteTypeEv
qtractor:_ZN22qtractorMidiEditorForm12viewScaleKeyEv
qtractor:_ZN22qtractorMidiEditorForm12viewSnapGridEb
qtractor:_ZN22qtractorMidiEditorForm12viewToolTipsEb
qtractor:_ZN22qtractorMidiEditorForm13editSelectAllEv
qtractor:_ZN22qtractorMidiEditorForm13helpShortcutsEv
qtractor:_ZN22qtractorMidiEditorForm13resetTimeSig2Ett
qtractor:_ZN22qtractorMidiEditorForm13stabilizeFormEv
qtractor:_ZN22qtractorMidiEditorForm13toolsQuantizeEv
qtractor:_ZN22qtractorMidiEditorForm13viewNoteColorEb
qtractor:_ZN22qtractorMidiEditorForm13viewNoteNamesEb
qtractor:_ZN22qtractorMidiEditorForm13viewScaleTypeEv
qtractor:_ZN22qtractorMidiEditorForm13viewSnapZebraEb
qtractor:_ZN22qtractorMidiEditorForm13viewStatusbarEb
qtractor:_ZN22qtractorMidiEditorForm13viewValueTypeEv
qtractor:_ZN22qtractorMidiEditorForm13viewZoomResetEv
qtractor:_ZN22qtractorMidiEditorForm14editSelectNoneEv
qtractor:_ZN22qtractorMidiEditorForm14filePropertiesEv
qtractor:_ZN22qtractorMidiEditorForm14toolsNormalizeEv
qtractor:_ZN22qtractorMidiEditorForm14toolsRandomizeEv
qtractor:_ZN22qtractorMidiEditorForm14toolsTimeshiftEv
qtractor:_ZN22qtractorMidiEditorForm14toolsTransposeEv
qtractor:_ZN22qtractorMidiEditorForm14updatePlayHeadEm
qtractor:_ZN22qtractorMidiEditorForm14updateSnapMenuEv
qtractor:_ZN22qtractorMidiEditorForm14updateZoomMenuEv
qtractor:_ZN22qtractorMidiEditorForm14viewGhostTrackEv
qtractor:_ZN22qtractorMidiEditorForm14viewValueColorEb
qtractor:_ZN22qtractorMidiEditorForm15contentsChangedEP18qtractorMidiEditor
qtractor:_ZN22qtractorMidiEditorForm15editInsertRangeEv
qtractor:_ZN22qtractorMidiEditorForm15editPasteRepeatEv
qtractor:_ZN22qtractorMidiEditorForm15editRemoveRangeEv
qtractor:_ZN22qtractorMidiEditorForm15editSelectRangeEv
qtractor:_ZN22qtractorMidiEditorForm15fileTrackInputsEv
qtractor:_ZN22qtractorMidiEditorForm15resetDirtyCountEv
qtractor:_ZN22qtractorMidiEditorForm15updateScaleMenuEv
qtractor:_ZN22qtractorMidiEditorForm15updateTimeScaleEv
qtractor:_ZN22qtractorMidiEditorForm15viewToolbarEditEb
qtractor:_ZN22qtractorMidiEditorForm15viewToolbarFileEb
qtractor:_ZN22qtractorMidiEditorForm15viewToolbarTimeEb
qtractor:_ZN22qtractorMidiEditorForm15viewToolbarViewEb
qtractor:_ZN22qtractorMidiEditorForm15viewTypeChangedEi
qtractor:_ZN22qtractorMidiEditorForm16contextMenuEventEP17QContextMenuEvent
qtractor:_ZN22qtractorMidiEditorForm16editSelectInvertEv
qtractor:_ZN22qtractorMidiEditorForm16eventTypeChangedEi
qtractor:_ZN22qtractorMidiEditorForm16fileTrackOutputsEv
qtractor:_ZN22qtractorMidiEditorForm16selectionChangedEP18qtractorMidiEditor
qtractor:_ZN22qtractorMidiEditorForm16staticMetaObjectE
qtractor:_ZN22qtractorMidiEditorForm16viewNoteDurationEb
qtractor:_ZN22qtractorMidiEditorForm16viewToolbarScaleEb
qtractor:_ZN22qtractorMidiEditorForm16viewToolbarThumbEb
qtractor:_ZN22qtractorMidiEditorForm16viewZoomVerticalEv
qtractor:_ZN22qtractorMidiEditorForm17eventParamChangedEi
qtractor:_ZN22qtractorMidiEditorForm18snapPerBeatChangedEi
qtractor:_ZN22qtractorMidiEditorForm18updateNoteTypeMenuEv
qtractor:_ZN22qtractorMidiEditorForm18viewZoomHorizontalEv
qtractor:_ZN22qtractorMidiEditorForm19fileTrackPropertiesEv
qtractor:_ZN22qtractorMidiEditorForm19updateValueTypeMenuEv
qtractor:_ZN22qtractorMidiEditorForm20timeSig2ResetClickedEv
qtractor:_ZN22qtractorMidiEditorForm20transportTimeChangedEm
qtractor:_ZN22qtractorMidiEditorForm20updateGhostTrackMenuEv
qtractor:_ZN22qtractorMidiEditorForm20viewToolbarTransportEb
qtractor:_ZN22qtractorMidiEditorForm21snapToScaleKeyChangedEi
qtractor:_ZN22qtractorMidiEditorForm21transportTempoChangedEftt
qtractor:_ZN22qtractorMidiEditorForm21transportTimeFinishedEv
qtractor:_ZN22qtractorMidiEditorForm21updateInstrumentNamesEv
qtractor:_ZN22qtractorMidiEditorForm22snapToScaleTypeChangedEi
qtractor:_ZN22qtractorMidiEditorForm22transportTempoFinishedEv
qtractor:_ZN22qtractorMidiEditorForm25transportTempoContextMenuERK6QPoint
qtractor:_ZN22qtractorMidiEditorForm25updateTrackInstrumentMenuEv
qtractor:_ZN22qtractorMidiEditorForm26transportTimeFormatChangedEi
qtractor:_ZN22qtractorMidiEditorForm5setupEP16qtractorMidiClip
qtractor:_ZN22qtractorMidiEditorForm7editCutEv
qtractor:_ZN22qtractorMidiEditorForm8editCopyEv
qtractor:_ZN22qtractorMidiEditorForm8editRedoEv
qtractor:_ZN22qtractorMidiEditorForm8editUndoEv
qtractor:_ZN22qtractorMidiEditorForm8fileSaveEv
qtractor:_ZN22qtractorMidiEditorForm8sendNoteEii
qtractor:_ZN22qtractorMidiEditorForm8viewSnapEv
qtractor:_ZN22qtractorMidiEditorForm9editPasteEv
qtractor:_ZN22qtractorMidiEditorForm9fileCloseEv
qtractor:_ZN22qtractorMidiEditorForm9helpAboutEv
qtractor:_ZN22qtractorMidiEditorForm9querySaveERK7QStringP7QWidget
qtractor:_ZN22qtractorMidiEditorFormC1EP7QWidget6QFlagsIN2Qt10WindowTypeEE
qtractor:_ZN22qtractorMidiEditorFormC2EP7QWidget6QFlagsIN2Qt10WindowTypeEE
qtractor:_ZN22qtractorMidiEditorFormD0Ev
qtractor:_ZN22qtractorMidiEditorFormD1Ev
qtractor:_ZN22qtractorMidiEditorFormD2Ev
qtractor:_ZN22qtractorMidiMeterScale10paintScaleEP8QPainter
qtractor:_ZN22qtractorMidiMeterScaleC1EP17qtractorMidiMeter
qtractor:_ZN22qtractorMidiMeterScaleC2EP17qtractorMidiMeter
qtractor:_ZN22qtractorMidiMeterValue10paintEventEP11QPaintEvent
qtractor:_ZN22qtractorMidiMeterValue11resizeEventEP12QResizeEvent
qtractor:_ZN22qtractorMidiMeterValue7refreshEm
qtractor:_ZN22qtractorMidiMeterValueC1EP17qtractorMidiMeter
qtractor:_ZN22qtractorMidiMeterValueC2EP17qtractorMidiMeter
qtractor:_ZN22qtractorMidiMixerMeter10setMonitorEP15qtractorMonitor
qtractor:_ZN22qtractorMidiMixerMeter10updateGainEv
qtractor:_ZN22qtractorMidiMixerMeter11qt_metacallEN11QMetaObject4CallEiPPv
qtractor:_ZN22qtractorMidiMixerMeter11qt_metacastEPKc
qtractor:_ZN22qtractorMidiMixerMeter11resizeEventEP12QResizeEvent
qtractor:_ZN22qtractorMidiMixerMeter13updatePanningEv
qtractor:_ZN22qtractorMidiMixerMeter14setMidiMonitorEP19qtractorMidiMonitor
qtractor:_ZN22qtractorMidiMixerMeter16staticMetaObjectE
qtractor:_ZN22qtractorMidiMixerMeter21setAudioOutputMonitorEP26qtractorAudioOutputMonitor
qtractor:_ZN22qtractorMidiMixerMeter5resetEv
qtractor:_ZN22qtractorMidiMixerMeterC1EP19qtractorMidiMonitorP7QWidget
qtractor:_ZN22qtractorMidiMixerMeterC2EP19qtractorMidiMonitorP7QWidget
qtractor:_ZN22qtractorMidiMixerMeterD0Ev
qtractor:_ZN22qtractorMidiMixerMeterD1Ev
qtractor:_ZN22qtractorMidiMixerMeterD2Ev
qtractor:_ZN22qtractorMidiSyncThread11setRunStateEb
qtractor:_ZN22qtractorMidiSyncThread3runEv
qtractor:_ZN22qtractorMidiSyncThread4syncEP20qtractorMidiSyncItem
qtractor:_ZN22qtractorMidiSyncThreadC1Ej
qtractor:_ZN22qtractorMidiSyncThreadC2Ej
qtractor:_ZN22qtractorMidiSyncThreadD0Ev
qtractor:_ZN22qtractorMidiSyncThreadD1Ev
qtractor:_ZN22qtractorMidiSyncThreadD2Ev
qtractor:_ZN22qtractorMoveBusCommand4redoEv
qtractor:_ZN22qtractorMoveBusCommandC1EP11qtractorBusS1_
qtractor:_ZN22qtractorMoveBusCommandC2EP11qtractorBusS1_
qtractor:_ZN22qtractorObserverSlider10wheelEventEP11QWheelEvent
qtractor:_ZN22qtractorObserverSlider11qt_metacallEN11QMetaObject4CallEiPPv
qtractor:_ZN22qtractorObserverSlider11qt_metacastEPKc
qtractor:_ZN22qtractorObserverSlider11updateValueEf
qtractor:_ZN22qtractorObserverSlider12valueChangedEf
qtractor:_ZN22qtractorObserverSlider13sliderChangedEi
qtractor:_ZN22qtractorObserverSlider15mousePressEventEP11QMouseEvent
qtractor:_ZN22qtractorObserverSlider16staticMetaObjectE
qtractor:_ZN22qtractorObserverSliderC1EP7QWidget
qtractor:_ZN22qtractorObserverSliderC2EP7QWidget
qtractor:_ZN22qtractorPluginListItem15updateActivatedEv
qtractor:_ZN22qtractorPluginListItemC1EP14qtractorPlugin
qtractor:_ZN22qtractorPluginListItemC2EP14qtractorPlugin
qtractor:_ZN22qtractorPluginListItemD0Ev
qtractor:_ZN22qtractorPluginListItemD1Ev
qtractor:_ZN22qtractorPluginListItemD2Ev
qtractor:_ZN22qtractorPluginListView10decodeItemEPK9QMimeData
qtractor:_ZN22qtractorPluginListView10dropCancelEv
qtractor:_ZN22qtractorPluginListView10editPluginEv
qtractor:_ZN22qtractorPluginListView10encodeItemEP9QMimeDataP22qtractorPluginListItem
qtractor:_ZN22qtractorPluginListView10pluginItemEP14qtractorPlugin
qtractor:_ZN22qtractorPluginListView10wheelEventEP11QWheelEvent
qtractor:_ZN22qtractorPluginListView11canDropItemEP10QDropEvent
qtractor:_ZN22qtractorPluginListView11eventFilterEP7QObjectP6QEvent
qtractor:_ZN22qtractorPluginListView11qt_metacallEN11QMetaObject4CallEiPPv
qtractor:_ZN22qtractorPluginListView11qt_metacastEPKc
qtractor:_ZN22qtractorPluginListView12audioOutputsEv
qtractor:_ZN22qtractorPluginListView12canDropEventEP10QDropEvent
qtractor:_ZN22qtractorPluginListView12g_pItemIconsE
qtractor:_ZN22qtractorPluginListView12moveUpPluginEv
qtractor:_ZN22qtractorPluginListView12removePluginEv
qtractor:_ZN22qtractorPluginListView13canDecodeItemEPK9QMimeData
qtractor:_ZN22qtractorPluginListView13dragMoveEventEP14QDragMoveEvent
qtractor:_ZN22qtractorPluginListView13exportPluginsEv
qtractor:_ZN22qtractorPluginListView13importPluginsEv
qtractor:_ZN22qtractorPluginListView13setPluginListEP18qtractorPluginList
qtractor:_ZN22qtractorPluginListView14activatePluginEv
qtractor:_ZN22qtractorPluginListView14audioOutputBusEv
qtractor:_ZN22qtractorPluginListView14dragEnterEventEP15QDragEnterEvent
qtractor:_ZN22qtractorPluginListView14dragLeaveEventEP15QDragLeaveEvent
qtractor:_ZN22qtractorPluginListView14mouseMoveEventEP11QMouseEvent
qtractor:_ZN22qtractorPluginListView14moveDownPluginEv
qtractor:_ZN22qtractorPluginListView14moveRubberBandEP22qtractorPluginListItem
qtractor:_ZN22qtractorPluginListView15contentsChangedEv
qtractor:_ZN22qtractorPluginListView15g_iItemRefCountE
qtractor:_ZN22qtractorPluginListView15insertPluginBusEP14qtractorPlugini
qtractor:_ZN22qtractorPluginListView15insertPluginBusEi
qtractor:_ZN22qtractorPluginListView15mousePressEventEP11QMouseEvent
qtractor:_ZN22qtractorPluginListView16contextMenuEventEP17QContextMenuEvent
qtractor:_ZN22qtractorPluginListView16dragDirectAccessERK6QPoint
qtractor:_ZN22qtractorPluginListView16loadPresetPluginEv
qtractor:_ZN22qtractorPluginListView16propertiesPluginEv
qtractor:_ZN22qtractorPluginListView16removeAllPluginsEv
qtractor:_ZN22qtractorPluginListView16setTinyScrollBarEb
qtractor:_ZN22qtractorPluginListView16staticMetaObjectE
qtractor:_ZN22qtractorPluginListView17ensureVisibleItemEP22qtractorPluginListItem
qtractor:_ZN22qtractorPluginListView17itemActivatedSlotEP15QListWidgetItem
qtractor:_ZN22qtractorPluginListView17mouseReleaseEventEP11QMouseEvent
qtractor:_ZN22qtractorPluginListView17resetDirectAccessERK6QPoint
qtractor:_ZN22qtractorPluginListView18activateAllPluginsEv
qtractor:_ZN22qtractorPluginListView18audioOutputBusNameEv
qtractor:_ZN22qtractorPluginListView18directAccessPluginEv
qtractor:_ZN22qtractorPluginListView18insertPluginInputsEv
qtractor:_ZN22qtractorPluginListView19addMidiInsertPluginEv
qtractor:_ZN22qtractorPluginListView19insertPluginOutputsEv
qtractor:_ZN22qtractorPluginListView20addAudioInsertPluginEv
qtractor:_ZN22qtractorPluginListView20addMidiAuxSendPluginEv
qtractor:_ZN22qtractorPluginListView20deactivateAllPluginsEv
qtractor:_ZN22qtractorPluginListView21addAudioAuxSendPluginEv
qtractor:_ZN22qtractorPluginListView21itemDoubleClickedSlotEP15QListWidgetItem
qtractor:_ZN22qtractorPluginListView22audioOutputAutoConnectEv
qtractor:_ZN22qtractorPluginListView5clearEv
qtractor:_ZN22qtractorPluginListView7refreshEv
qtractor:_ZN22qtractorPluginListView8copyItemEP22qtractorPluginListItemS1_
qtractor:_ZN22qtractorPluginListView8dropCopyEv
qtractor:_ZN22qtractorPluginListView8dropMoveEv
qtractor:_ZN22qtractorPluginListView8itemIconEi
qtractor:_ZN22qtractorPluginListView8moveItemEP22qtractorPluginListItemS1_
qtractor:_ZN22qtractorPluginListView9addPluginEv
qtractor:_ZN22qtractorPluginListView9dropEventEP10QDropEvent
qtractor:_ZN22qtractorPluginListViewC1EP7QWidget
qtractor:_ZN22qtractorPluginListViewC2EP7QWidget
qtractor:_ZN22qtractorPluginListViewD0Ev
qtractor:_ZN22qtractorPluginListViewD1Ev
qtractor:_ZN22qtractorPluginListViewD2Ev
qtractor:_ZN22qtractorSessionCommandC1ERK7QStringP15qtractorSession
qtractor:_ZN22qtractorSessionCommandC2ERK7QStringP15qtractorSession
qtractor:_ZN22qtractorSessionCommandD0Ev
qtractor:_ZN22qtractorSessionCommandD1Ev
qtractor:_ZN22qtractorSessionCommandD2Ev
qtractor:_ZN23qtractorAddTrackCommand4redoEv
qtractor:_ZN23qtractorAddTrackCommand4undoEv
qtractor:_ZN23qtractorAddTrackCommandC1EP13qtractorTrackS1_
qtractor:_ZN23qtractorAddTrackCommandC2EP13qtractorTrackS1_
qtractor:_ZN23qtractorAudioClientItem16updateClientNameEv
qtractor:_ZN23qtractorAudioClientItemC1EP27qtractorAudioClientListView
qtractor:_ZN23qtractorAudioClientItemC2EP27qtractorAudioClientListView
qtractor:_ZN23qtractorAudioClientItemD0Ev
qtractor:_ZN23qtractorAudioClientItemD1Ev
qtractor:_ZN23qtractorAudioClientItemD2Ev
qtractor:_ZN23qtractorAudioMeterScale10paintScaleEP8QPainter
qtractor:_ZN23qtractorAudioMeterScaleC1EP18qtractorAudioMeter
qtractor:_ZN23qtractorAudioMeterScaleC2EP18qtractorAudioMeter
qtractor:_ZN23qtractorAudioMeterValue10paintEventEP11QPaintEvent
qtractor:_ZN23qtractorAudioMeterValue11resizeEventEP12QResizeEvent
qtractor:_ZN23qtractorAudioMeterValue7refreshEm
qtractor:_ZN23qtractorAudioMeterValueC1EP18qtractorAudioMetert
qtractor:_ZN23qtractorAudioMeterValueC2EP18qtractorAudioMetert
qtractor:_ZN23qtractorAudioMixerMeter10setMonitorEP15qtractorMonitor
qtractor:_ZN23qtractorAudioMixerMeter10updateGainEv
qtractor:_ZN23qtractorAudioMixerMeter11qt_metacallEN11QMetaObject4CallEiPPv
qtractor:_ZN23qtractorAudioMixerMeter11qt_metacastEPKc
qtractor:_ZN23qtractorAudioMixerMeter13updatePanningEv
qtractor:_ZN23qtractorAudioMixerMeter15setAudioMonitorEP20qtractorAudioMonitor
qtractor:_ZN23qtractorAudioMixerMeter16staticMetaObjectE
qtractor:_ZN23qtractorAudioMixerMeter5resetEv
qtractor:_ZN23qtractorAudioMixerMeterC1EP20qtractorAudioMonitorP7QWidget
qtractor:_ZN23qtractorAudioMixerMeterC2EP20qtractorAudioMonitorP7QWidget
qtractor:_ZN23qtractorAudioMixerMeterD0Ev
qtractor:_ZN23qtractorAudioMixerMeterD1Ev
qtractor:_ZN23qtractorAudioMixerMeterD2Ev
qtractor:_ZN23qtractorAudioPeakThread11setRunStateEb
qtractor:_ZN23qtractorAudioPeakThread12openPeakFileEv
qtractor:_ZN23qtractorAudioPeakThread13closePeakFileEv
qtractor:_ZN23qtractorAudioPeakThread13writePeakFileEv
qtractor:_ZN23qtractorAudioPeakThread3runEv
qtractor:_ZN23qtractorAudioPeakThread4syncEP21qtractorAudioPeakFile
qtractor:_ZN23qtractorAudioPeakThreadC1Ej
qtractor:_ZN23qtractorAudioPeakThreadC2Ej
qtractor:_ZN23qtractorAudioPeakThreadD0Ev
qtractor:_ZN23qtractorAudioPeakThreadD1Ev
qtractor:_ZN23qtractorAudioPeakThreadD2Ev
qtractor:_ZN23qtractorAudioVorbisFile4openERK7QStringi
qtractor:_ZN23qtractorAudioVorbisFile4readEPPfj
qtractor:_ZN23qtractorAudioVorbisFile4seekEm
qtractor:_ZN23qtractorAudioVorbisFile5closeEv
qtractor:_ZN23qtractorAudioVorbisFile5flushEb
qtractor:_ZN23qtractorAudioVorbisFile5writeEPPfj
qtractor:_ZN23qtractorAudioVorbisFile7qualityEi
qtractor:_ZN23qtractorAudioVorbisFileC1Etjji
qtractor:_ZN23qtractorAudioVorbisFileC2Etjji
qtractor:_ZN23qtractorAudioVorbisFileD0Ev
qtractor:_ZN23qtractorAudioVorbisFileD1Ev
qtractor:_ZN23qtractorAudioVorbisFileD2Ev
qtractor:_ZN23qtractorClipTakeCommand7executeEb
qtractor:_ZN23qtractorClipTakeCommandC1EPN12qtractorClip8TakeInfoEP13qtractorTracki
qtractor:_ZN23qtractorClipTakeCommandC2EPN12qtractorClip8TakeInfoEP13qtractorTracki
qtractor:_ZN23qtractorClipToolCommand15swapMidiClipCtxEP16qtractorMidiClip
qtractor:_ZN23qtractorClipToolCommand18addMidiEditCommandEP23qtractorMidiEditCommand
qtractor:_ZN23qtractorClipToolCommand4redoEv
qtractor:_ZN23qtractorClipToolCommand4undoEv
qtractor:_ZN23qtractorClipToolCommandC1ERK7QString
qtractor:_ZN23qtractorClipToolCommandC2ERK7QString
qtractor:_ZN23qtractorClipToolCommandD0Ev
qtractor:_ZN23qtractorClipToolCommandD1Ev
qtractor:_ZN23qtractorClipToolCommandD2Ev
qtractor:_ZN23qtractorDummyPluginType10createTypeERK7QString
qtractor:_ZN23qtractorDummyPluginType4openEv
qtractor:_ZN23qtractorDummyPluginType5closeEv
qtractor:_ZN23qtractorDummyPluginTypeC1ERK7QStringmN18qtractorPluginType4HintE
qtractor:_ZN23qtractorDummyPluginTypeC2ERK7QStringmN18qtractorPluginType4HintE
qtractor:_ZN23qtractorExportTrackForm11qt_metacallEN11QMetaObject4CallEiPPv
qtractor:_ZN23qtractorExportTrackForm11qt_metacastEPKc
qtractor:_ZN23qtractorExportTrackForm13stabilizeFormEv
qtractor:_ZN23qtractorExportTrackForm16staticMetaObjectE
qtractor:_ZN23qtractorExportTrackForm6acceptEv
qtractor:_ZN23qtractorExportTrackForm6rejectEv
qtractor:_ZN23qtractorExportTrackFormC1EP7QWidget
qtractor:_ZN23qtractorExportTrackFormC2EP7QWidget
qtractor:_ZN23qtractorExportTrackFormD0Ev
qtractor:_ZN23qtractorExportTrackFormD1Ev
qtractor:_ZN23qtractorExportTrackFormD2Ev
qtractor:_ZN23qtractorFileChannelDrag6decodeEPK9QMimeData
qtractor:_ZN23qtractorFileChannelDrag6encodeEP9QMimeDataRK5QListINS_4ItemEE
qtractor:_ZN23qtractorFileChannelDrag9canDecodeEPK9QMimeData
qtractor:_ZN23qtractorFileChannelItemC1EP20qtractorFileListItemRK7QStringt
qtractor:_ZN23qtractorFileChannelItemC2EP20qtractorFileListItemRK7QStringt
qtractor:_ZN23qtractorFileChannelItemD0Ev
qtractor:_ZN23qtractorFileChannelItemD1Ev
qtractor:_ZN23qtractorFileChannelItemD2Ev
qtractor:_ZN23qtractorLv2WorkerThread11setRunStateEb
qtractor:_ZN23qtractorLv2WorkerThread3runEv
qtractor:_ZN23qtractorLv2WorkerThread4syncEP17qtractorLv2Worker
qtractor:_ZN23qtractorLv2WorkerThreadC1Ej
qtractor:_ZN23qtractorLv2WorkerThreadC2Ej
qtractor:_ZN23qtractorLv2WorkerThreadD0Ev
qtractor:_ZN23qtractorLv2WorkerThreadD1Ev
qtractor:_ZN23qtractorLv2WorkerThreadD2Ev
qtractor:_ZN23qtractorMidiChannelItemC1EP20qtractorMidiFileItemRK7QStringt
qtractor:_ZN23qtractorMidiChannelItemC2EP20qtractorMidiFileItemRK7QStringt
qtractor:_ZN23qtractorMidiControlForm10exportSlotEv
qtractor:_ZN23qtractorMidiControlForm10importSlotEv
qtractor:_ZN23qtractorMidiControlForm10moveUpSlotEv
qtractor:_ZN23qtractorMidiControlForm10reloadSlotEv
qtractor:_ZN23qtractorMidiControlForm10removeSlotEv
qtractor:_ZN23qtractorMidiControlForm11qt_metacallEN11QMetaObject4CallEiPPv
qtractor:_ZN23qtractorMidiControlForm11qt_metacastEPKc
qtractor:_ZN23qtractorMidiControlForm12moveDownSlotEv
qtractor:_ZN23qtractorMidiControlForm12refreshFilesEv
qtractor:_ZN23qtractorMidiControlForm13stabilizeFormEv
qtractor:_ZN23qtractorMidiControlForm14keyChangedSlotEv
qtractor:_ZN23qtractorMidiControlForm15typeChangedSlotEv
qtractor:_ZN23qtractorMidiControlForm16staticMetaObjectE
qtractor:_ZN23qtractorMidiControlForm16valueChangedSlotEv
qtractor:_ZN23qtractorMidiControlForm17refreshControlMapEv
qtractor:_ZN23qtractorMidiControlForm18stabilizeKeyChangeEv
qtractor:_ZN23qtractorMidiControlForm19stabilizeTypeChangeEv
qtractor:_ZN23qtractorMidiControlForm20stabilizeValueChangeEv
qtractor:_ZN23qtractorMidiControlForm6rejectEv
qtractor:_ZN23qtractorMidiControlForm7mapSlotEv
qtractor:_ZN23qtractorMidiControlForm8syncSlotEb
qtractor:_ZN23qtractorMidiControlForm9unmapSlotEv
qtractor:_ZN23qtractorMidiControlFormC1EP7QWidget6QFlagsIN2Qt10WindowTypeEE
qtractor:_ZN23qtractorMidiControlFormC2EP7QWidget6QFlagsIN2Qt10WindowTypeEE
qtractor:_ZN23qtractorMidiControlFormD0Ev
qtractor:_ZN23qtractorMidiControlFormD1Ev
qtractor:_ZN23qtractorMidiControlFormD2Ev
qtractor:_ZN23qtractorMidiEditCommand11insertEventEP17qtractorMidiEvent
qtractor:_ZN23qtractorMidiEditCommand11removeEventEP17qtractorMidiEvent
qtractor:_ZN23qtractorMidiEditCommand15resizeEventTimeEP17qtractorMidiEventmm
qtractor:_ZN23qtractorMidiEditCommand16resizeEventValueEP17qtractorMidiEventi
qtractor:_ZN23qtractorMidiEditCommand4redoEv
qtractor:_ZN23qtractorMidiEditCommand4undoEv
qtractor:_ZN23qtractorMidiEditCommand6adjustEv
qtractor:_ZN23qtractorMidiEditCommand7executeEb
qtractor:_ZN23qtractorMidiEditCommand9moveEventEP17qtractorMidiEventim
qtractor:_ZN23qtractorMidiEditCommandC1EP16qtractorMidiClipRK7QString
qtractor:_ZN23qtractorMidiEditCommandC2EP16qtractorMidiClipRK7QString
qtractor:_ZN23qtractorMidiEditCommandD0Ev
qtractor:_ZN23qtractorMidiEditCommandD1Ev
qtractor:_ZN23qtractorMidiEditCommandD2Ev
qtractor:_ZN23qtractorMidiEngineProxy11qt_metacallEN11QMetaObject4CallEiPPv
qtractor:_ZN23qtractorMidiEngineProxy11qt_metacastEPKc
qtractor:_ZN23qtractorMidiEngineProxy16staticMetaObjectE
qtractor:_ZN23qtractorMidiEngineProxy8clkEventEf
qtractor:_ZN23qtractorMidiEngineProxy8ctlEventERK16qtractorCtlEvent
qtractor:_ZN23qtractorMidiEngineProxy8mmcEventERK16qtractorMmcEvent
qtractor:_ZN23qtractorMidiEngineProxy8sppEventEit
qtractor:_ZN23qtractorMidiInputBuffer7enqueueEP13snd_seq_eventm
qtractor:_ZN23qtractorMidiInputThread11setRunStateEb
qtractor:_ZN23qtractorMidiInputThread3runEv
qtractor:_ZN23qtractorMidiInputThreadC1EP18qtractorMidiEngine
qtractor:_ZN23qtractorMidiInputThreadC2EP18qtractorMidiEngine
qtractor:_ZN23qtractorMidiInputThreadD0Ev
qtractor:_ZN23qtractorMidiInputThreadD1Ev
qtractor:_ZN23qtractorMidiInputThreadD2Ev
qtractor:_ZN23qtractorMixerRackWidget11qt_metacallEN11QMetaObject4CallEiPPv
qtractor:_ZN23qtractorMixerRackWidget11qt_metacastEPKc
qtractor:_ZN23qtractorMixerRackWidget11removeStripEP18qtractorMixerStrip
qtractor:_ZN23qtractorMixerRackWidget11resizeEventEP12QResizeEvent
qtractor:_ZN23qtractorMixerRackWidget15mousePressEventEP11QMouseEvent
qtractor:_ZN23qtractorMixerRackWidget15updateWorkspaceEv
qtractor:_ZN23qtractorMixerRackWidget16contextMenuEventEP17QContextMenuEvent
qtractor:_ZN23qtractorMixerRackWidget16staticMetaObjectE
qtractor:_ZN23qtractorMixerRackWidget8addStripEP18qtractorMixerStrip
qtractor:_ZN23qtractorMixerRackWidgetC1EP17qtractorMixerRack
qtractor:_ZN23qtractorMixerRackWidgetC2EP17qtractorMixerRack
qtractor:_ZN23qtractorMixerRackWidgetD0Ev
qtractor:_ZN23qtractorMixerRackWidgetD1Ev
qtractor:_ZN23qtractorMixerRackWidgetD2Ev
qtractor:_ZN23qtractorObserverSpinBox11qt_metacallEN11QMetaObject4CallEiPPv
qtractor:_ZN23qtractorObserverSpinBox11qt_metacastEPKc
qtractor:_ZN23qtractorObserverSpinBox11updateValueEf
qtractor:_ZN23qtractorObserverSpinBox12valueChangedEf
qtractor:_ZN23qtractorObserverSpinBox14spinBoxChangedEd
qtractor:_ZN23qtractorObserverSpinBox16staticMetaObjectE
qtractor:_ZN23qtractorObserverSpinBoxC1EP7QWidget
qtractor:_ZN23qtractorObserverSpinBoxC2EP7QWidget
qtractor:_ZN23qtractorPasteRepeatForm11qt_metacallEN11QMetaObject4CallEiPPv
qtractor:_ZN23qtractorPasteRepeatForm11qt_metacastEPKc
qtractor:_ZN23qtractorPasteRepeatForm13formatChangedEi
qtractor:_ZN23qtractorPasteRepeatForm13stabilizeFormEv
qtractor:_ZN23qtractorPasteRepeatForm14setRepeatCountEt
qtractor:_ZN23qtractorPasteRepeatForm15setRepeatPeriodEm
qtractor:_ZN23qtractorPasteRepeatForm16staticMetaObjectE
qtractor:_ZN23qtractorPasteRepeatForm6acceptEv
qtractor:_ZN23qtractorPasteRepeatForm6rejectEv
qtractor:_ZN23qtractorPasteRepeatForm7changedEv
qtractor:_ZN23qtractorPasteRepeatFormC1EP7QWidget
qtractor:_ZN23qtractorPasteRepeatFormC2EP7QWidget
qtractor:_ZN23qtractorPasteRepeatFormD0Ev
qtractor:_ZN23qtractorPasteRepeatFormD1Ev
qtractor:_ZN23qtractorPasteRepeatFormD2Ev
qtractor:_ZN23qtractorTempoAdjustForm11qt_metacallEN11QMetaObject4CallEiPPv
qtractor:_ZN23qtractorTempoAdjustForm11qt_metacastEPKc
qtractor:_ZN23qtractorTempoAdjustForm11tempoAdjustEv
qtractor:_ZN23qtractorTempoAdjustForm11tempoDetectEv
qtractor:_ZN23qtractorTempoAdjustForm12tempoChangedEv
qtractor:_ZN23qtractorTempoAdjustForm13formatChangedEi
qtractor:_ZN23qtractorTempoAdjustForm13setRangeBeatsEt
qtractor:_ZN23qtractorTempoAdjustForm13setRangeStartEm
qtractor:_ZN23qtractorTempoAdjustForm13stabilizeFormEv
qtractor:_ZN23qtractorTempoAdjustForm14setRangeLengthEm
qtractor:_ZN23qtractorTempoAdjustForm16staticMetaObjectE
qtractor:_ZN23qtractorTempoAdjustForm16updateRangeBeatsEt
qtractor:_ZN23qtractorTempoAdjustForm16updateRangeStartEm
qtractor:_ZN23qtractorTempoAdjustForm17rangeBeatsChangedEi
qtractor:_ZN23qtractorTempoAdjustForm17rangeStartChangedEm
qtractor:_ZN23qtractorTempoAdjustForm17updateRangeLengthEm
qtractor:_ZN23qtractorTempoAdjustForm17updateRangeSelectEv
qtractor:_ZN23qtractorTempoAdjustForm18rangeLengthChangedEm
qtractor:_ZN23qtractorTempoAdjustForm6acceptEv
qtractor:_ZN23qtractorTempoAdjustForm6rejectEv
qtractor:_ZN23qtractorTempoAdjustForm7changedEv
qtractor:_ZN23qtractorTempoAdjustForm7setClipEP12qtractorClip
qtractor:_ZN23qtractorTempoAdjustForm8tempoTapEv
qtractor:_ZN23qtractorTempoAdjustFormC1EP7QWidget
qtractor:_ZN23qtractorTempoAdjustFormC2EP7QWidget
qtractor:_ZN23qtractorTempoAdjustFormD0Ev
qtractor:_ZN23qtractorTempoAdjustFormD1Ev
qtractor:_ZN23qtractorTempoAdjustFormD2Ev
qtractor:_ZN24qtractorAddPluginCommand4redoEv
qtractor:_ZN24qtractorAddPluginCommand4undoEv
qtractor:_ZN24qtractorAddPluginCommandC1EP14qtractorPlugin
qtractor:_ZN24qtractorAddPluginCommandC2EP14qtractorPlugin
qtractor:_ZN24qtractorAudioEngineProxy11qt_metacallEN11QMetaObject4CallEiPPv
qtractor:_ZN24qtractorAudioEngineProxy11qt_metacastEPKc
qtractor:_ZN24qtractorAudioEngineProxy16staticMetaObjectE
qtractor:_ZN24qtractorAudioEngineProxy9buffEventEj
qtractor:_ZN24qtractorAudioEngineProxy9portEventEv
qtractor:_ZN24qtractorAudioEngineProxy9propEventEv
qtractor:_ZN24qtractorAudioEngineProxy9sessEventEPv
qtractor:_ZN24qtractorAudioEngineProxy9shutEventEv
qtractor:_ZN24qtractorAudioEngineProxy9syncEventEmb
qtractor:_ZN24qtractorAudioEngineProxy9xrunEventEv
qtractor:_ZN24qtractorAudioFileFactory10defaultExtEv
qtractor:_ZN24qtractorAudioFileFactory11g_pInstanceE
qtractor:_ZN24qtractorAudioFileFactory11getInstanceEv
qtractor:_ZN24qtractorAudioFileFactory12newAudioFileERK7QStringtjji
qtractor:_ZN24qtractorAudioFileFactory13defaultFormatEv
qtractor:_ZN24qtractorAudioFileFactory13isValidFormatEPKNS_10FileFormatEi
qtractor:_ZN24qtractorAudioFileFactory14defaultQualityEv
qtractor:_ZN24qtractorAudioFileFactory14setDefaultTypeERK7QStringiii
qtractor:_ZN24qtractorAudioFileFactory15createAudioFileERK7QStringtjji
qtractor:_ZN24qtractorAudioFileFactory4extsEv
qtractor:_ZN24qtractorAudioFileFactory5typesEv
qtractor:_ZN24qtractorAudioFileFactory7filtersEv
qtractor:_ZN24qtractorAudioFileFactory7formatsEv
qtractor:_ZN24qtractorAudioFileFactoryC1Ev
qtractor:_ZN24qtractorAudioFileFactoryC2Ev
qtractor:_ZN24qtractorAudioFileFactoryD1Ev
qtractor:_ZN24qtractorAudioFileFactoryD2Ev
qtractor:_ZN24qtractorAudioPeakFactory10createPeakERK7QStringf
qtractor:_ZN24qtractorAudioPeakFactory11getInstanceEv
qtractor:_ZN24qtractorAudioPeakFactory11qt_metacallEN11QMetaObject4CallEiPPv
qtractor:_ZN24qtractorAudioPeakFactory11qt_metacastEPKc
qtractor:_ZN24qtractorAudioPeakFactory13setAutoRemoveEb
qtractor:_ZN24qtractorAudioPeakFactory13setPeakPeriodEt
qtractor:_ZN24qtractorAudioPeakFactory14g_pPeakFactoryE
qtractor:_ZN24qtractorAudioPeakFactory15notifyPeakEventEv
qtractor:_ZN24qtractorAudioPeakFactory16staticMetaObjectE
qtractor:_ZN24qtractorAudioPeakFactory4syncEP21qtractorAudioPeakFile
qtractor:_ZN24qtractorAudioPeakFactory7cleanupEv
qtractor:_ZN24qtractorAudioPeakFactory9peakEventEv
qtractor:_ZN24qtractorAudioPeakFactoryC1EP7QObject
qtractor:_ZN24qtractorAudioPeakFactoryC2EP7QObject
qtractor:_ZN24qtractorAudioPeakFactoryD0Ev
qtractor:_ZN24qtractorAudioPeakFactoryD1Ev
qtractor:_ZN24qtractorAudioPeakFactoryD2Ev
qtractor:_ZN24qtractorClipRangeCommand17addSessionCommandEP22qtractorSessionCommand
qtractor:_ZN24qtractorClipRangeCommand19addCurveEditCommandEP24qtractorCurveEditCommand
qtractor:_ZN24qtractorClipRangeCommand23addTimeScaleNodeCommandEP28qtractorTimeScaleNodeCommand
qtractor:_ZN24qtractorClipRangeCommand25addTimeScaleMarkerCommandEP30qtractorTimeScaleMarkerCommand
qtractor:_ZN24qtractorClipRangeCommand7executeEb
qtractor:_ZN24qtractorClipRangeCommandC1ERK7QString
qtractor:_ZN24qtractorClipRangeCommandC2ERK7QString
qtractor:_ZN24qtractorClipRangeCommandD0Ev
qtractor:_ZN24qtractorClipRangeCommandD1Ev
qtractor:_ZN24qtractorClipRangeCommandD2Ev
qtractor:_ZN24qtractorCopyTrackCommand4redoEv
qtractor:_ZN24qtractorCopyTrackCommand4undoEv
qtractor:_ZN24qtractorCopyTrackCommandC1EP13qtractorTrackS1_
qtractor:_ZN24qtractorCopyTrackCommandC2EP13qtractorTrackS1_
qtractor:_ZN24qtractorCreateBusCommand4redoEv
qtractor:_ZN24qtractorCreateBusCommand4undoEv
qtractor:_ZN24qtractorCreateBusCommandC1Ev
qtractor:_ZN24qtractorCreateBusCommandC2Ev
qtractor:_ZN24qtractorCurveBaseCommand4redoEv
qtractor:_ZN24qtractorCurveBaseCommand4undoEv
qtractor:_ZN24qtractorCurveBaseCommand7executeEb
qtractor:_ZN24qtractorCurveBaseCommandC1ERK7QString
qtractor:_ZN24qtractorCurveBaseCommandC2ERK7QString
qtractor:_ZN24qtractorCurveEditCommand10removeNodeEPN13qtractorCurve4NodeE
qtractor:_ZN24qtractorCurveEditCommand11addEditListEP21qtractorCurveEditList
qtractor:_ZN24qtractorCurveEditCommand7addNodeEPN13qtractorCurve4NodeE
qtractor:_ZN24qtractorCurveEditCommand7executeEb
qtractor:_ZN24qtractorCurveEditCommand8moveNodeEPN13qtractorCurve4NodeEmf
qtractor:_ZN24qtractorCurveEditCommandC1EP13qtractorCurve
qtractor:_ZN24qtractorCurveEditCommandC1ERK7QStringP13qtractorCurve
qtractor:_ZN24qtractorCurveEditCommandC2EP13qtractorCurve
qtractor:_ZN24qtractorCurveEditCommandC2ERK7QStringP13qtractorCurve
qtractor:_ZN24qtractorCurveEditCommandD0Ev
qtractor:_ZN24qtractorCurveEditCommandD1Ev
qtractor:_ZN24qtractorCurveEditCommandD2Ev
qtractor:_ZN24qtractorCurveListCommandC1ERK7QStringP17qtractorCurveList
qtractor:_ZN24qtractorCurveListCommandC2ERK7QStringP17qtractorCurveList
qtractor:_ZN24qtractorCurveModeCommand7executeEb
qtractor:_ZN24qtractorCurveModeCommandC1EP13qtractorCurveNS0_4ModeE
qtractor:_ZN24qtractorCurveModeCommandC2EP13qtractorCurveNS0_4ModeE
qtractor:_ZN24qtractorDeleteBusCommand4redoEv
qtractor:_ZN24qtractorDeleteBusCommand4undoEv
qtractor:_ZN24qtractorDeleteBusCommandC1EP11qtractorBus
qtractor:_ZN24qtractorDeleteBusCommandC2EP11qtractorBus
qtractor:_ZN24qtractorEditTrackCommand4redoEv
qtractor:_ZN24qtractorEditTrackCommand4undoEv
qtractor:_ZN24qtractorEditTrackCommandC1EP13qtractorTrackRKNS0_10PropertiesE
qtractor:_ZN24qtractorEditTrackCommandC2EP13qtractorTrackRKNS0_10PropertiesE
qtractor:_ZN24qtractorInsertPluginType12createPluginEP18qtractorPluginListt
qtractor:_ZN24qtractorLadspaPluginType10createTypeEP18qtractorPluginFilem
qtractor:_ZN24qtractorLadspaPluginType17ladspa_descriptorEP18qtractorPluginFilem
qtractor:_ZN24qtractorLadspaPluginType4openEv
qtractor:_ZN24qtractorLadspaPluginType5closeEv
qtractor:_ZN24qtractorLadspaPluginType9aboutTextEv
qtractor:_ZN24qtractorMidiInsertPlugin10deactivateEv
qtractor:_ZN24qtractorMidiInsertPlugin11setChannelsEt
qtractor:_ZN24qtractorMidiInsertPlugin13freezeConfigsEi
qtractor:_ZN24qtractorMidiInsertPlugin13freezeConfigsEv
qtractor:_ZN24qtractorMidiInsertPlugin14releaseConfigsEv
qtractor:_ZN24qtractorMidiInsertPlugin7processEPPfS1_j
qtractor:_ZN24qtractorMidiInsertPlugin8activateEv
qtractor:_ZN24qtractorMidiInsertPlugin9configureERK7QStringS2_
qtractor:_ZN24qtractorMidiInsertPluginC1EP18qtractorPluginListP24qtractorInsertPluginType
qtractor:_ZN24qtractorMidiInsertPluginC2EP18qtractorPluginListP24qtractorInsertPluginType
qtractor:_ZN24qtractorMidiInsertPluginD0Ev
qtractor:_ZN24qtractorMidiInsertPluginD1Ev
qtractor:_ZN24qtractorMidiInsertPluginD2Ev
qtractor:_ZN24qtractorMidiOutputBuffer11processSyncEv
qtractor:_ZN24qtractorMidiOutputThread11processSyncEv
qtractor:_ZN24qtractorMidiOutputThread11setRunStateEb
qtractor:_ZN24qtractorMidiOutputThread12setReadAheadEj
qtractor:_ZN24qtractorMidiOutputThread14midiCursorSyncEb
qtractor:_ZN24qtractorMidiOutputThread3runEv
qtractor:_ZN24qtractorMidiOutputThread4syncEv
qtractor:_ZN24qtractorMidiOutputThread7processEv
qtractor:_ZN24qtractorMidiOutputThread9flushSyncEv
qtractor:_ZN24qtractorMidiOutputThread9metroSyncEm
qtractor:_ZN24qtractorMidiOutputThread9trackSyncEP13qtractorTrackm
qtractor:_ZN24qtractorMidiOutputThreadC1EP18qtractorMidiEnginej
qtractor:_ZN24qtractorMidiOutputThreadC2EP18qtractorMidiEnginej
qtractor:_ZN24qtractorMidiOutputThreadD0Ev
qtractor:_ZN24qtractorMidiOutputThreadD1Ev
qtractor:_ZN24qtractorMidiOutputThreadD2Ev
qtractor:_ZN24qtractorMidiPlayerThread11setRunStateEb
qtractor:_ZN24qtractorMidiPlayerThread3runEv
qtractor:_ZN24qtractorMidiPlayerThreadC1EP18qtractorMidiPlayer
qtractor:_ZN24qtractorMidiPlayerThreadC2EP18qtractorMidiPlayer
qtractor:_ZN24qtractorMidiPlayerThreadD0Ev
qtractor:_ZN24qtractorMidiPlayerThreadD1Ev
qtractor:_ZN24qtractorMidiPlayerThreadD2Ev
qtractor:_ZN24qtractorMoveTrackCommand4redoEv
qtractor:_ZN24qtractorMoveTrackCommand4undoEv
qtractor:_ZN24qtractorMoveTrackCommandC1EP13qtractorTrackS1_
qtractor:_ZN24qtractorMoveTrackCommandC2EP13qtractorTrackS1_
qtractor:_ZN24qtractorObserverCheckBox11qt_metacallEN11QMetaObject4CallEiPPv
qtractor:_ZN24qtractorObserverCheckBox11qt_metacastEPKc
qtractor:_ZN24qtractorObserverCheckBox11updateValueEf
qtractor:_ZN24qtractorObserverCheckBox12valueChangedEf
qtractor:_ZN24qtractorObserverCheckBox15checkBoxChangedEb
qtractor:_ZN24qtractorObserverCheckBox16staticMetaObjectE
qtractor:_ZN24qtractorObserverCheckBoxC1EP7QWidget
qtractor:_ZN24qtractorObserverCheckBoxC2EP7QWidget
qtractor:_ZN24qtractorPluginSelectForm11qt_metacallEN11QMetaObject4CallEiPPv
qtractor:_ZN24qtractorPluginSelectForm11qt_metacastEPKc
qtractor:_ZN24qtractorPluginSelectForm13setPluginListEP18qtractorPluginList
qtractor:_ZN24qtractorPluginSelectForm15typeHintChangedEi
qtractor:_ZN24qtractorPluginSelectForm16staticMetaObjectE
qtractor:_ZN24qtractorPluginSelectForm5resetEv
qtractor:_ZN24qtractorPluginSelectForm6acceptEv
qtractor:_ZN24qtractorPluginSelectForm6rescanEv
qtractor:_ZN24qtractorPluginSelectForm7refreshEv
qtractor:_ZN24qtractorPluginSelectForm7scannedEi
qtractor:_ZN24qtractorPluginSelectForm9stabilizeEv
qtractor:_ZN24qtractorPluginSelectFormC1EP7QWidget
qtractor:_ZN24qtractorPluginSelectFormC2EP7QWidget
qtractor:_ZN24qtractorPluginSelectFormD0Ev
qtractor:_ZN24qtractorPluginSelectFormD1Ev
qtractor:_ZN24qtractorPluginSelectFormD2Ev
qtractor:_ZN24qtractorTimeScaleCommand14addNodeCommandEP28qtractorTimeScaleNodeCommand
qtractor:_ZN24qtractorTimeScaleCommand4redoEv
qtractor:_ZN24qtractorTimeScaleCommand4undoEv
qtractor:_ZN24qtractorTimeScaleCommandC1ERK7QString
qtractor:_ZN24qtractorTimeScaleCommandC2ERK7QString
qtractor:_ZN24qtractorTimeScaleCommandD0Ev
qtractor:_ZN24qtractorTimeScaleCommandD1Ev
qtractor:_ZN24qtractorTimeScaleCommandD2Ev
qtractor:_ZN24qtractorTrackGainCommand4redoEv
qtractor:_ZN24qtractorTrackGainCommandC1EP13qtractorTrackfb
qtractor:_ZN24qtractorTrackGainCommandC2EP13qtractorTrackfb
qtractor:_ZN24qtractorTrackListButtons18updateTrackButtonsEv
qtractor:_ZN24qtractorTrackListButtonsC1EP13qtractorTrackP7QWidget
qtractor:_ZN24qtractorTrackListButtonsC2EP13qtractorTrackP7QWidget
qtractor:_ZN24qtractorUpdateBusCommand4redoEv
qtractor:_ZN24qtractorUpdateBusCommandC1EP11qtractorBus
qtractor:_ZN24qtractorUpdateBusCommandC2EP11qtractorBus
qtractor:_ZN25qtractorAudioBufferThread10syncExportEv
qtractor:_ZN25qtractorAudioBufferThread11setRunStateEb
qtractor:_ZN25qtractorAudioBufferThread13checkSyncSizeEj
qtractor:_ZN25qtractorAudioBufferThread3runEv
qtractor:_ZN25qtractorAudioBufferThread4syncEP19qtractorAudioBuffer
qtractor:_ZN25qtractorAudioBufferThread7processEv
qtractor:_ZN25qtractorAudioBufferThreadC1Ej
qtractor:_ZN25qtractorAudioBufferThreadC2Ej
qtractor:_ZN25qtractorAudioBufferThreadD0Ev
qtractor:_ZN25qtractorAudioBufferThreadD1Ev
qtractor:_ZN25qtractorAudioBufferThreadD2Ev
qtractor:_ZN25qtractorAudioInsertPlugin10deactivateEv
qtractor:_ZN25qtractorAudioInsertPlugin11setChannelsEt
qtractor:_ZN25qtractorAudioInsertPlugin13freezeConfigsEi
qtractor:_ZN25qtractorAudioInsertPlugin13freezeConfigsEv
qtractor:_ZN25qtractorAudioInsertPlugin14releaseConfigsEv
qtractor:_ZN25qtractorAudioInsertPlugin7processEPPfS1_j
qtractor:_ZN25qtractorAudioInsertPlugin8activateEv
qtractor:_ZN25qtractorAudioInsertPlugin9configureERK7QStringS2_
qtractor:_ZN25qtractorAudioInsertPluginC1EP18qtractorPluginListP24qtractorInsertPluginType
qtractor:_ZN25qtractorAudioInsertPluginC2EP18qtractorPluginListP24qtractorInsertPluginType
qtractor:_ZN25qtractorAudioInsertPluginD0Ev
qtractor:_ZN25qtractorAudioInsertPluginD1Ev
qtractor:_ZN25qtractorAudioInsertPluginD2Ev
qtractor:_ZN25qtractorAuxSendPluginType12createPluginEP18qtractorPluginListt
qtractor:_ZN25qtractorBusMonitorCommand4redoEv
qtractor:_ZN25qtractorBusMonitorCommandC1EP11qtractorBusb
qtractor:_ZN25qtractorBusMonitorCommandC2EP11qtractorBusb
qtractor:_ZN25qtractorBusPanningCommand4redoEv
qtractor:_ZN25qtractorBusPanningCommandC1EP11qtractorBusNS0_7BusModeEf
qtractor:_ZN25qtractorBusPanningCommandC2EP11qtractorBusNS0_7BusModeEf
qtractor:_ZN25qtractorCurveClearCommandC1EP13qtractorCurve
qtractor:_ZN25qtractorCurveClearCommandC2EP13qtractorCurve
qtractor:_ZN25qtractorCurveColorCommand7executeEb
qtractor:_ZN25qtractorCurveColorCommandC1EP13qtractorCurveRK6QColor
qtractor:_ZN25qtractorCurveColorCommandC2EP13qtractorCurveRK6QColor
qtractor:_ZN25qtractorMidiAuxSendPlugin10deactivateEv
qtractor:_ZN25qtractorMidiAuxSendPlugin11setChannelsEt
qtractor:_ZN25qtractorMidiAuxSendPlugin13freezeConfigsEv
qtractor:_ZN25qtractorMidiAuxSendPlugin14releaseConfigsEv
qtractor:_ZN25qtractorMidiAuxSendPlugin14setMidiBusNameERK7QString
qtractor:_ZN25qtractorMidiAuxSendPlugin7processEPPfS1_j
qtractor:_ZN25qtractorMidiAuxSendPlugin8activateEv
qtractor:_ZN25qtractorMidiAuxSendPlugin9configureERK7QStringS2_
qtractor:_ZN25qtractorMidiAuxSendPluginC1EP18qtractorPluginListP25qtractorAuxSendPluginType
qtractor:_ZN25qtractorMidiAuxSendPluginC2EP18qtractorPluginListP25qtractorAuxSendPluginType
qtractor:_ZN25qtractorMidiAuxSendPluginD0Ev
qtractor:_ZN25qtractorMidiAuxSendPluginD1Ev
qtractor:_ZN25qtractorMidiAuxSendPluginD2Ev
qtractor:_ZN25qtractorMidiControlButton11qt_metacallEN11QMetaObject4CallEiPPv
qtractor:_ZN25qtractorMidiControlButton11qt_metacastEPKc
qtractor:_ZN25qtractorMidiControlButton16staticMetaObjectE
qtractor:_ZN25qtractorMidiControlButton19midiControlMenuSlotERK6QPoint
qtractor:_ZN25qtractorMidiControlButton20addMidiControlActionEP27qtractorMidiControlObserver
qtractor:_ZN25qtractorMidiControlButton21midiControlActionSlotEv
qtractor:_ZN25qtractorMidiControlButtonC1EP7QWidget
qtractor:_ZN25qtractorMidiControlButtonC2EP7QWidget
qtractor:_ZN25qtractorMidiEventListView11qt_metacallEN11QMetaObject4CallEiPPv
qtractor:_ZN25qtractorMidiEventListView11qt_metacastEPKc
qtractor:_ZN25qtractorMidiEventListView11selectEventEP17qtractorMidiEventb
qtractor:_ZN25qtractorMidiEventListView16staticMetaObjectE
qtractor:_ZN25qtractorMidiEventListView7refreshEv
qtractor:_ZN25qtractorMidiEventListView9setEditorEP18qtractorMidiEditor
qtractor:_ZN25qtractorMidiEventListViewC1EP7QWidget
qtractor:_ZN25qtractorMidiEventListViewC2EP7QWidget
qtractor:_ZN25qtractorMidiEventListViewD0Ev
qtractor:_ZN25qtractorMidiEventListViewD1Ev
qtractor:_ZN25qtractorMidiEventListViewD2Ev
qtractor:_ZN25qtractorMovePluginCommand4redoEv
qtractor:_ZN25qtractorMovePluginCommand4undoEv
qtractor:_ZN25qtractorMovePluginCommandC1EP14qtractorPluginS1_P18qtractorPluginList
qtractor:_ZN25qtractorMovePluginCommandC2EP14qtractorPluginS1_P18qtractorPluginList
qtractor:_ZN25qtractorPluginParamWidget11eventFilterEP7QObjectP6QEvent
qtractor:_ZN25qtractorPluginParamWidget11qt_metacallEN11QMetaObject4CallEiPPv
qtractor:_ZN25qtractorPluginParamWidget11qt_metacastEPKc
qtractor:_ZN25qtractorPluginParamWidget11updateValueEf
qtractor:_ZN25qtractorPluginParamWidget15propertyChangedEv
qtractor:_ZN25qtractorPluginParamWidget16staticMetaObjectE
qtractor:_ZN25qtractorPluginParamWidget17toolButtonClickedEv
qtractor:_ZN25qtractorPluginParamWidget17updateCurveButtonEv
qtractor:_ZN25qtractorPluginParamWidget18curveButtonClickedEv
qtractor:_ZN25qtractorPluginParamWidget7refreshEv
qtractor:_ZN25qtractorPluginParamWidgetC1EPN14qtractorPlugin5ParamEP7QWidget
qtractor:_ZN25qtractorPluginParamWidgetC2EPN14qtractorPlugin5ParamEP7QWidget
qtractor:_ZN25qtractorTrackStateCommand4redoEv
qtractor:_ZN25qtractorTrackStateCommand4undoEv
qtractor:_ZN25qtractorTrackStateCommandC1EP13qtractorTrackNS0_8ToolTypeEbb
qtractor:_ZN25qtractorTrackStateCommandC2EP13qtractorTrackNS0_8ToolTypeEbb
qtractor:_ZN25qtractorTrackStateCommandD0Ev
qtractor:_ZN25qtractorTrackStateCommandD1Ev
qtractor:_ZN25qtractorTrackStateCommandD2Ev
qtractor:_ZN26qtractorAudioAuxSendPlugin10deactivateEv
qtractor:_ZN26qtractorAudioAuxSendPlugin11setChannelsEt
qtractor:_ZN26qtractorAudioAuxSendPlugin13freezeConfigsEv
qtractor:_ZN26qtractorAudioAuxSendPlugin14releaseConfigsEv
qtractor:_ZN26qtractorAudioAuxSendPlugin15setAudioBusNameERK7QString
qtractor:_ZN26qtractorAudioAuxSendPlugin7processEPPfS1_j
qtractor:_ZN26qtractorAudioAuxSendPlugin8activateEv
qtractor:_ZN26qtractorAudioAuxSendPlugin9configureERK7QStringS2_
qtractor:_ZN26qtractorAudioAuxSendPluginC1EP18qtractorPluginListP25qtractorAuxSendPluginType
qtractor:_ZN26qtractorAudioAuxSendPluginC2EP18qtractorPluginListP25qtractorAuxSendPluginType
qtractor:_ZN26qtractorAudioAuxSendPluginD0Ev
qtractor:_ZN26qtractorAudioAuxSendPluginD1Ev
qtractor:_ZN26qtractorAudioAuxSendPluginD2Ev
qtractor:_ZN26qtractorAudioOutputMonitor11setChannelsEt
qtractor:_ZN26qtractorAudioOutputMonitor13addAudioMeterEP18qtractorAudioMeter
qtractor:_ZN26qtractorAudioOutputMonitor16removeAudioMeterEP18qtractorAudioMeter
qtractor:_ZN26qtractorAudioOutputMonitorC1Etff
qtractor:_ZN26qtractorAudioOutputMonitorC2Etff
qtractor:_ZN26qtractorAudioOutputMonitorD0Ev
qtractor:_ZN26qtractorAudioOutputMonitorD1Ev
qtractor:_ZN26qtractorAudioOutputMonitorD2Ev
qtractor:_ZN26qtractorCurveSelectCommand7executeEb
qtractor:_ZN26qtractorCurveSelectCommandC1EP17qtractorCurveListP13qtractorCurve
qtractor:_ZN26qtractorCurveSelectCommandC2EP17qtractorCurveListP13qtractorCurve
qtractor:_ZN26qtractorImportTrackCommand4redoEv
qtractor:_ZN26qtractorImportTrackCommand4undoEv
qtractor:_ZN26qtractorImportTrackCommand8addTrackEP13qtractorTrack
qtractor:_ZN26qtractorImportTrackCommandC1EP13qtractorTrack
qtractor:_ZN26qtractorImportTrackCommandC2EP13qtractorTrack
qtractor:_ZN26qtractorImportTrackCommandD0Ev
qtractor:_ZN26qtractorImportTrackCommandD1Ev
qtractor:_ZN26qtractorImportTrackCommandD2Ev
qtractor:_ZN26qtractorMidiClientListView14findClientItemEi
qtractor:_ZN26qtractorMidiClientListView17updateClientPortsEv
qtractor:_ZN26qtractorMidiClientListView18findClientPortItemEii
qtractor:_ZN26qtractorMidiClientListViewC1EP7QWidget
qtractor:_ZN26qtractorMidiClientListViewC2EP7QWidget
qtractor:_ZN26qtractorMidiClientListViewD0Ev
qtractor:_ZN26qtractorMidiClientListViewD1Ev
qtractor:_ZN26qtractorMidiClientListViewD2Ev
qtractor:_ZN26qtractorMidiEditEventScale10paintEventEP11QPaintEvent
qtractor:_ZN26qtractorMidiEditEventScale11qt_metacallEN11QMetaObject4CallEiPPv
qtractor:_ZN26qtractorMidiEditEventScale11qt_metacastEPKc
qtractor:_ZN26qtractorMidiEditEventScale16staticMetaObjectE
qtractor:_ZN26qtractorMidiEditEventScaleC1EP18qtractorMidiEditorP7QWidget
qtractor:_ZN26qtractorMidiEditEventScaleC2EP18qtractorMidiEditorP7QWidget
qtractor:_ZN26qtractorMidiEditEventScaleD0Ev
qtractor:_ZN26qtractorMidiEditEventScaleD1Ev
qtractor:_ZN26qtractorMidiEditEventScaleD2Ev
qtractor:_ZN26qtractorMidiEventListModel11qt_metacallEN11QMetaObject4CallEiPPv
qtractor:_ZN26qtractorMidiEventListModel11qt_metacastEPKc
qtractor:_ZN26qtractorMidiEventListModel16staticMetaObjectE
qtractor:_ZN26qtractorMidiEventListModel5resetEv
qtractor:_ZN26qtractorMidiEventListModelC1EP18qtractorMidiEditorP7QObject
qtractor:_ZN26qtractorMidiEventListModelC2EP18qtractorMidiEditorP7QObject
qtractor:_ZN26qtractorPluginParamCommand4redoEv
qtractor:_ZN26qtractorPluginParamCommand4undoEv
qtractor:_ZN26qtractorPluginParamCommandC1EPN14qtractorPlugin5ParamEfb
qtractor:_ZN26qtractorPluginParamCommandC2EPN14qtractorPlugin5ParamEfb
qtractor:_ZN26qtractorRemoveTrackCommand4redoEv
qtractor:_ZN26qtractorRemoveTrackCommand4undoEv
qtractor:_ZN26qtractorRemoveTrackCommandC1EP13qtractorTrack
qtractor:_ZN26qtractorRemoveTrackCommandC2EP13qtractorTrack
qtractor:_ZN26qtractorResetPluginCommand4redoEv
qtractor:_ZN26qtractorResetPluginCommand4undoEv
qtractor:_ZN26qtractorResetPluginCommandC1EP14qtractorPlugin
qtractor:_ZN26qtractorResetPluginCommandC2EP14qtractorPlugin
qtractor:_ZN26qtractorResizeTrackCommand4redoEv
qtractor:_ZN26qtractorResizeTrackCommand4undoEv
qtractor:_ZN26qtractorResizeTrackCommandC1EP13qtractorTracki
qtractor:_ZN26qtractorResizeTrackCommandC2EP13qtractorTracki
qtractor:_ZN26qtractorSessionEditCommand4redoEv
qtractor:_ZN26qtractorSessionEditCommand4undoEv
qtractor:_ZN26qtractorSessionEditCommandC1EP15qtractorSessionRKNS0_10PropertiesE
qtractor:_ZN26qtractorSessionEditCommandC2EP15qtractorSessionRKNS0_10PropertiesE
qtractor:_ZN26qtractorSessionEditCommandD0Ev
qtractor:_ZN26qtractorSessionEditCommandD1Ev
qtractor:_ZN26qtractorSessionEditCommandD2Ev
qtractor:_ZN26qtractorSessionLoopCommand4redoEv
qtractor:_ZN26qtractorSessionLoopCommand4undoEv
qtractor:_ZN26qtractorSessionLoopCommandC1EP15qtractorSessionmm
qtractor:_ZN26qtractorSessionLoopCommandC2EP15qtractorSessionmm
qtractor:_ZN26qtractorWsolaTimeStretcher10FifoBuffer11setChannelsEt
qtractor:_ZN26qtractorWsolaTimeStretcher10FifoBuffer11writeFramesEPPfjj
qtractor:_ZN26qtractorWsolaTimeStretcher10FifoBuffer13receiveFramesEPPfjj
qtractor:_ZN26qtractorWsolaTimeStretcher10FifoBuffer13receiveFramesEj
qtractor:_ZN26qtractorWsolaTimeStretcher10FifoBuffer14ensureCapacityEj
qtractor:_ZN26qtractorWsolaTimeStretcher10FifoBuffer9putFramesEPPfjj
qtractor:_ZN26qtractorWsolaTimeStretcher10FifoBuffer9putFramesEj
qtractor:_ZN26qtractorWsolaTimeStretcher10FifoBufferC1Et
qtractor:_ZN26qtractorWsolaTimeStretcher10FifoBufferC2Et
qtractor:_ZN26qtractorWsolaTimeStretcher10FifoBufferD1Ev
qtractor:_ZN26qtractorWsolaTimeStretcher10FifoBufferD2Ev
qtractor:_ZN26qtractorWsolaTimeStretcher10clearInputEv
qtractor:_ZN26qtractorWsolaTimeStretcher10flushInputEv
qtractor:_ZN26qtractorWsolaTimeStretcher11setChannelsEt
qtractor:_ZN26qtractorWsolaTimeStretcher12setQuickSeekEb
qtractor:_ZN26qtractorWsolaTimeStretcher13getParametersEPjS0_S0_S0_
qtractor:_ZN26qtractorWsolaTimeStretcher13processFramesEv
qtractor:_ZN26qtractorWsolaTimeStretcher13receiveFramesEPPfj
qtractor:_ZN26qtractorWsolaTimeStretcher13setParametersEjjjj
qtractor:_ZN26qtractorWsolaTimeStretcher14clearMidBufferEv
qtractor:_ZN26qtractorWsolaTimeStretcher17calcOverlapLengthEv
qtractor:_ZN26qtractorWsolaTimeStretcher20calcSeekWindowLengthEv
qtractor:_ZN26qtractorWsolaTimeStretcher22calcCrossCorrReferenceEv
qtractor:_ZN26qtractorWsolaTimeStretcher23seekBestOverlapPositionEv
qtractor:_ZN26qtractorWsolaTimeStretcher5clearEv
qtractor:_ZN26qtractorWsolaTimeStretcher8setTempoEf
qtractor:_ZN26qtractorWsolaTimeStretcher9putFramesEPPfj
qtractor:_ZN26qtractorWsolaTimeStretcherC1Etj
qtractor:_ZN26qtractorWsolaTimeStretcherC2Etj
qtractor:_ZN26qtractorWsolaTimeStretcherD1Ev
qtractor:_ZN26qtractorWsolaTimeStretcherD2Ev
qtractor:_ZN27qtractorAudioClientListView17updateClientPortsEv
qtractor:_ZN27qtractorAudioClientListViewC1EP7QWidget
qtractor:_ZN27qtractorAudioClientListViewC2EP7QWidget
qtractor:_ZN27qtractorAudioClientListViewD0Ev
qtractor:_ZN27qtractorAudioClientListViewD1Ev
qtractor:_ZN27qtractorAudioClientListViewD2Ev
qtractor:_ZN27qtractorClipRecordExCommand4redoEv
qtractor:_ZN27qtractorClipRecordExCommand4undoEv
qtractor:_ZN27qtractorClipRecordExCommandC1EP12qtractorClipb
qtractor:_ZN27qtractorClipRecordExCommandC2EP12qtractorClipb
qtractor:_ZN27qtractorCurveCaptureCommand7executeEb
qtractor:_ZN27qtractorCurveCaptureCommandC1EP13qtractorCurveb
qtractor:_ZN27qtractorCurveCaptureCommandC2EP13qtractorCurveb
qtractor:_ZN27qtractorCurveProcessCommand7executeEb
qtractor:_ZN27qtractorCurveProcessCommandC1EP13qtractorCurveb
qtractor:_ZN27qtractorCurveProcessCommandC2EP13qtractorCurveb
qtractor:_ZN27qtractorInsertPluginCommand4redoEv
qtractor:_ZN27qtractorInsertPluginCommand4undoEv
qtractor:_ZN27qtractorInsertPluginCommandC1ERK7QStringP14qtractorPluginS4_
qtractor:_ZN27qtractorInsertPluginCommandC2ERK7QStringP14qtractorPluginS4_
qtractor:_ZN27qtractorMidiControlObserver12setMidiValueEt
qtractor:_ZN27qtractorMidiControlObserver6updateEb
qtractor:_ZN27qtractorMidiControlObserverC1EP15qtractorSubject
qtractor:_ZN27qtractorMidiControlObserverC2EP15qtractorSubject
qtractor:_ZN27qtractorMidiControlObserverD0Ev
qtractor:_ZN27qtractorMidiControlObserverD1Ev
qtractor:_ZN27qtractorMidiControlObserverD2Ev
qtractor:_ZN27qtractorPresetPluginCommand4redoEv
qtractor:_ZN27qtractorPresetPluginCommand4undoEv
qtractor:_ZN27qtractorPresetPluginCommandC1EP14qtractorPluginRK7QStringRK11QStringList
qtractor:_ZN27qtractorPresetPluginCommandC2EP14qtractorPluginRK7QStringRK11QStringList
qtractor:_ZN27qtractorRemovePluginCommand4redoEv
qtractor:_ZN27qtractorRemovePluginCommand4undoEv
qtractor:_ZN27qtractorRemovePluginCommandC1EP14qtractorPlugin
qtractor:_ZN27qtractorRemovePluginCommandC2EP14qtractorPlugin
qtractor:_ZN27qtractorSessionPunchCommand4redoEv
qtractor:_ZN27qtractorSessionPunchCommand4undoEv
qtractor:_ZN27qtractorSessionPunchCommandC1EP15qtractorSessionmm
qtractor:_ZN27qtractorSessionPunchCommandC2EP15qtractorSessionmm
qtractor:_ZN27qtractorTrackControlCommand19midiControlFeedbackEv
qtractor:_ZN27qtractorTrackControlCommandC1ERK7QStringP13qtractorTrackb
qtractor:_ZN27qtractorTrackControlCommandC2ERK7QStringP13qtractorTrackb
qtractor:_ZN27qtractorTrackMonitorCommand4redoEv
qtractor:_ZN27qtractorTrackMonitorCommandC1EP13qtractorTrackbb
qtractor:_ZN27qtractorTrackMonitorCommandC2EP13qtractorTrackbb
qtractor:_ZN27qtractorTrackMonitorCommandD0Ev
qtractor:_ZN27qtractorTrackMonitorCommandD1Ev
qtractor:_ZN27qtractorTrackMonitorCommandD2Ev
qtractor:_ZN27qtractorTrackPanningCommand4redoEv
qtractor:_ZN27qtractorTrackPanningCommandC1EP13qtractorTrackfb
qtractor:_ZN27qtractorTrackPanningCommandC2EP13qtractorTrackfb
qtractor:_ZN28qtractorAuxSendPluginCommand4redoEv
qtractor:_ZN28qtractorAuxSendPluginCommand4undoEv
qtractor:_ZN28qtractorAuxSendPluginCommandC1EP14qtractorPluginRK7QString
qtractor:_ZN28qtractorAuxSendPluginCommandC2EP14qtractorPluginRK7QString
qtractor:_ZN28qtractorCurveClearAllCommand7executeEb
qtractor:_ZN28qtractorCurveClearAllCommandC1EP17qtractorCurveList
qtractor:_ZN28qtractorCurveClearAllCommandC2EP17qtractorCurveList
qtractor:_ZN28qtractorCurveClearAllCommandD0Ev
qtractor:_ZN28qtractorCurveClearAllCommandD1Ev
qtractor:_ZN28qtractorCurveClearAllCommandD2Ev
qtractor:_ZN28qtractorCurveEditListCommand7executeEb
qtractor:_ZN28qtractorCurveEditListCommandC1EP17qtractorCurveList
qtractor:_ZN28qtractorCurveEditListCommandC2EP17qtractorCurveList
qtractor:_ZN28qtractorCurveEditListCommandD0Ev
qtractor:_ZN28qtractorCurveEditListCommandD1Ev
qtractor:_ZN28qtractorCurveEditListCommandD2Ev
qtractor:_ZN28qtractorImportPluginsCommand4redoEv
qtractor:_ZN28qtractorImportPluginsCommand4undoEv
qtractor:_ZN28qtractorImportPluginsCommandC1Ev
qtractor:_ZN28qtractorImportPluginsCommandC2Ev
qtractor:_ZN28qtractorImportPluginsCommandD0Ev
qtractor:_ZN28qtractorImportPluginsCommandD1Ev
qtractor:_ZN28qtractorImportPluginsCommandD2Ev
qtractor:_ZN28qtractorMidiControlTypeGroup11qt_metacallEN11QMetaObject4CallEiPPv
qtractor:_ZN28qtractorMidiControlTypeGroup11qt_metacastEPKc
qtractor:_ZN28qtractorMidiControlTypeGroup14setControlTypeEN17qtractorMidiEvent9EventTypeE
qtractor:_ZN28qtractorMidiControlTypeGroup15setControlParamEt
qtractor:_ZN28qtractorMidiControlTypeGroup16staticMetaObjectE
qtractor:_ZN28qtractorMidiControlTypeGroup17updateControlTypeEi
qtractor:_ZN28qtractorMidiControlTypeGroup18controlTypeChangedEi
qtractor:_ZN28qtractorMidiControlTypeGroup19activateControlTypeEi
qtractor:_ZN28qtractorMidiControlTypeGroup19controlParamChangedEi
qtractor:_ZN28qtractorMidiControlTypeGroup20activateControlParamEi
qtractor:_ZN28qtractorMidiControlTypeGroup24editControlParamFinishedEv
qtractor:_ZN28qtractorMidiControlTypeGroupC1EP18qtractorMidiEditorP9QComboBoxS3_P6QLabel
qtractor:_ZN28qtractorMidiControlTypeGroupC2EP18qtractorMidiEditorP9QComboBoxS3_P6QLabel
qtractor:_ZN28qtractorMidiInsertPluginType4openEv
qtractor:_ZN28qtractorMidiInsertPluginType5closeEv
qtractor:_ZN28qtractorMidiInsertPluginType9aboutTextEv
qtractor:_ZN28qtractorPluginProgramCommand4redoEv
qtractor:_ZN28qtractorPluginProgramCommand4undoEv
qtractor:_ZN28qtractorPluginProgramCommandC1EP14qtractorPluginii
qtractor:_ZN28qtractorPluginProgramCommandC2EP14qtractorPluginii
qtractor:_ZN28qtractorTimeScaleNodeCommand10removeNodeEv
qtractor:_ZN28qtractorTimeScaleNodeCommand10updateNodeEv
qtractor:_ZN28qtractorTimeScaleNodeCommand17createClipCommandEPN17qtractorTimeScale4NodeEff
qtractor:_ZN28qtractorTimeScaleNodeCommand20addCurveEditCommandsEPN17qtractorTimeScale4NodeEff
qtractor:_ZN28qtractorTimeScaleNodeCommand7addNodeEv
qtractor:_ZN28qtractorTimeScaleNodeCommandC1ERK7QStringP17qtractorTimeScalemfttt
qtractor:_ZN28qtractorTimeScaleNodeCommandC2ERK7QStringP17qtractorTimeScalemfttt
qtractor:_ZN28qtractorTimeScaleNodeCommandD0Ev
qtractor:_ZN28qtractorTimeScaleNodeCommandD1Ev
qtractor:_ZN28qtractorTimeScaleNodeCommandD2Ev
qtractor:_ZN29qtractorActivatePluginCommand4redoEv
qtractor:_ZN29qtractorActivatePluginCommand4undoEv
qtractor:_ZN29qtractorActivatePluginCommandC1EP14qtractorPluginb
qtractor:_ZN29qtractorActivatePluginCommandC2EP14qtractorPluginb
qtractor:_ZN29qtractorAudioFileTypeComboBox14setCurrentTypeERK7QStringi
qtractor:_ZN29qtractorAudioFileTypeComboBoxC1EP7QWidget
qtractor:_ZN29qtractorAudioFileTypeComboBoxC2EP7QWidget
qtractor:_ZN29qtractorAudioInsertPluginType4openEv
qtractor:_ZN29qtractorAudioInsertPluginType5closeEv
qtractor:_ZN29qtractorAudioInsertPluginType9aboutTextEv
qtractor:_ZN29qtractorAudioOutputBusCommand4redoEv
qtractor:_ZN29qtractorAudioOutputBusCommand4undoEv
qtractor:_ZN29qtractorAudioOutputBusCommandC1EP19qtractorMidiManagerbbRK7QString
qtractor:_ZN29qtractorAudioOutputBusCommandC2EP19qtractorMidiManagerbbRK7QString
qtractor:_ZN29qtractorMidiAuxSendPluginType4openEv
qtractor:_ZN29qtractorMidiAuxSendPluginType5closeEv
qtractor:_ZN29qtractorMidiAuxSendPluginType9aboutTextEv
qtractor:_ZN29qtractorMidiEventItemDelegate11qt_metacallEN11QMetaObject4CallEiPPv
qtractor:_ZN29qtractorMidiEventItemDelegate11qt_metacastEPKc
qtractor:_ZN29qtractorMidiEventItemDelegate16staticMetaObjectE
qtractor:_ZN29qtractorMidiEventItemDelegateC1EP7QObject
qtractor:_ZN29qtractorMidiEventItemDelegateC2EP7QObject
qtractor:_ZN29qtractorPluginPropertyCommand4redoEv
qtractor:_ZN29qtractorPluginPropertyCommand4undoEv
qtractor:_ZN29qtractorPluginPropertyCommandC1EPN14qtractorPlugin8PropertyERK8QVariant
qtractor:_ZN29qtractorPluginPropertyCommandC2EPN14qtractorPlugin8PropertyERK8QVariant
qtractor:_ZN29qtractorShortcutTableItemEdit11qt_metacallEN11QMetaObject4CallEiPPv
qtractor:_ZN29qtractorShortcutTableItemEdit11qt_metacastEPKc
qtractor:_ZN29qtractorShortcutTableItemEdit13keyPressEventEP9QKeyEvent
qtractor:_ZN29qtractorShortcutTableItemEdit15editingCanceledEv
qtractor:_ZN29qtractorShortcutTableItemEdit16staticMetaObjectE
qtractor:_ZN30qtractorAddInsertPluginCommand4redoEv
qtractor:_ZN30qtractorAddInsertPluginCommand4undoEv
qtractor:_ZN30qtractorAddInsertPluginCommandC1EP14qtractorPlugin
qtractor:_ZN30qtractorAddInsertPluginCommandC2EP14qtractorPlugin
qtractor:_ZN30qtractorAudioAuxSendPluginType4openEv
qtractor:_ZN30qtractorAudioAuxSendPluginType5closeEv
qtractor:_ZN30qtractorAudioAuxSendPluginType9aboutTextEv
qtractor:_ZN30qtractorCurveCaptureAllCommand7executeEb
qtractor:_ZN30qtractorCurveCaptureAllCommandC1EP17qtractorCurveListb
qtractor:_ZN30qtractorCurveCaptureAllCommandC2EP17qtractorCurveListb
qtractor:_ZN30qtractorCurveProcessAllCommand7executeEb
qtractor:_ZN30qtractorCurveProcessAllCommandC1EP17qtractorCurveListb
qtractor:_ZN30qtractorCurveProcessAllCommandC2EP17qtractorCurveListb
qtractor:_ZN30qtractorMidiFileFormatComboBoxC1EP7QWidget
qtractor:_ZN30qtractorMidiFileFormatComboBoxC2EP7QWidget
qtractor:_ZN30qtractorTimeScaleMarkerCommand12removeMarkerEv
qtractor:_ZN30qtractorTimeScaleMarkerCommand12updateMarkerEv
qtractor:_ZN30qtractorTimeScaleMarkerCommand15addKeySignatureEv
qtractor:_ZN30qtractorTimeScaleMarkerCommand18updateKeySignatureEv
qtractor:_ZN30qtractorTimeScaleMarkerCommand9addMarkerEv
qtractor:_ZN30qtractorTimeScaleMarkerCommandC1ERK7QStringP17qtractorTimeScalemS2_RK6QColorii
qtractor:_ZN30qtractorTimeScaleMarkerCommandC2ERK7QStringP17qtractorTimeScalemS2_RK6QColorii
qtractor:_ZN30qtractorTrackInstrumentCommand4redoEv
qtractor:_ZN30qtractorTrackInstrumentCommandC1EP13qtractorTrackRK7QStringii
qtractor:_ZN30qtractorTrackInstrumentCommandC2EP13qtractorTrackRK7QStringii
qtractor:_ZN31qtractorAddAuxSendPluginCommand4redoEv
qtractor:_ZN31qtractorAddAuxSendPluginCommand4undoEv
qtractor:_ZN31qtractorAddAuxSendPluginCommandC1EP14qtractorPlugin
qtractor:_ZN31qtractorAddAuxSendPluginCommandC2EP14qtractorPlugin
qtractor:_ZN31qtractorAudioFileFormatComboBoxC1EP7QWidget
qtractor:_ZN31qtractorAudioFileFormatComboBoxC2EP7QWidget
qtractor:_ZN31qtractorCurveCaptureListCommand12addCurveListEP17qtractorCurveList
qtractor:_ZN31qtractorCurveCaptureListCommand4redoEv
qtractor:_ZN31qtractorCurveCaptureListCommand4undoEv
qtractor:_ZN31qtractorCurveCaptureListCommandC1Ev
qtractor:_ZN31qtractorCurveCaptureListCommandC2Ev
qtractor:_ZN31qtractorCurveCaptureListCommandD0Ev
qtractor:_ZN31qtractorCurveCaptureListCommandD1Ev
qtractor:_ZN31qtractorCurveCaptureListCommandD2Ev
qtractor:_ZN31qtractorCurveLogarithmicCommand7executeEb
qtractor:_ZN31qtractorCurveLogarithmicCommandC1EP13qtractorCurveb
qtractor:_ZN31qtractorCurveLogarithmicCommandC2EP13qtractorCurveb
qtractor:_ZN31qtractorMidiControlObserverForm10closeEventEP11QCloseEvent
qtractor:_ZN31qtractorMidiControlObserverForm11getInstanceEv
qtractor:_ZN31qtractorMidiControlObserverForm11qt_metacallEN11QMetaObject4CallEiPPv
qtractor:_ZN31qtractorMidiControlObserverForm11qt_metacastEPKc
qtractor:_ZN31qtractorMidiControlObserverForm12processEventERK16qtractorCtlEvent
qtractor:_ZN31qtractorMidiControlObserverForm12showInstanceEP27qtractorMidiControlObserverP7QWidget6QFlagsIN2Qt10WindowTypeEE
qtractor:_ZN31qtractorMidiControlObserverForm12showInstanceEP7QActionP7QWidget6QFlagsIN2Qt10WindowTypeEE
qtractor:_ZN31qtractorMidiControlObserverForm13stabilizeFormEv
qtractor:_ZN31qtractorMidiControlObserverForm15midiControlMenuEP7QWidgetRK6QPoint
qtractor:_ZN31qtractorMidiControlObserverForm15setMidiObserverEP27qtractorMidiControlObserver
qtractor:_ZN31qtractorMidiControlObserverForm16staticMetaObjectE
qtractor:_ZN31qtractorMidiControlObserverForm17midiControlActionEP7QWidgetP7QAction
qtractor:_ZN31qtractorMidiControlObserverForm18addMidiControlMenuEP5QMenuP27qtractorMidiControlObserver
qtractor:_ZN31qtractorMidiControlObserverForm19g_pMidiObserverFormE
qtractor:_ZN31qtractorMidiControlObserverForm20addMidiControlActionEP7QWidgetS1_P27qtractorMidiControlObserver
qtractor:_ZN31qtractorMidiControlObserverForm21setMidiObserverActionEP7QAction
qtractor:_ZN31qtractorMidiControlObserverForm5clickEP15QAbstractButton
qtractor:_ZN31qtractorMidiControlObserverForm5resetEv
qtractor:_ZN31qtractorMidiControlObserverForm6acceptEv
qtractor:_ZN31qtractorMidiControlObserverForm6changeEv
qtractor:_ZN31qtractorMidiControlObserverForm6inputsEv
qtractor:_ZN31qtractorMidiControlObserverForm6rejectEv
qtractor:_ZN31qtractorMidiControlObserverForm7outputsEv
qtractor:_ZN31qtractorMidiControlObserverFormC1EP7QWidget6QFlagsIN2Qt10WindowTypeEE
qtractor:_ZN31qtractorMidiControlObserverFormC2EP7QWidget6QFlagsIN2Qt10WindowTypeEE
qtractor:_ZN31qtractorMidiControlObserverFormD0Ev
qtractor:_ZN31qtractorMidiControlObserverFormD1Ev
qtractor:_ZN31qtractorMidiControlObserverFormD2Ev
qtractor:_ZN31qtractorShortcutTableItemEditor11qt_metacallEN11QMetaObject4CallEiPPv
qtractor:_ZN31qtractorShortcutTableItemEditor11qt_metacastEPKc
qtractor:_ZN31qtractorShortcutTableItemEditor14setDefaultTextERK7QString
qtractor:_ZN31qtractorShortcutTableItemEditor15editingCanceledEv
qtractor:_ZN31qtractorShortcutTableItemEditor15editingFinishedEv
qtractor:_ZN31qtractorShortcutTableItemEditor16staticMetaObjectE
qtractor:_ZN31qtractorShortcutTableItemEditor5clearEv
qtractor:_ZN31qtractorShortcutTableItemEditor6cancelEv
qtractor:_ZN31qtractorShortcutTableItemEditor6finishEv
qtractor:_ZN31qtractorShortcutTableItemEditor7changedERK7QString
qtractor:_ZN31qtractorShortcutTableItemEditor7setTextERK7QString
qtractor:_ZN31qtractorShortcutTableItemEditorC1EP7QWidget
qtractor:_ZN31qtractorShortcutTableItemEditorC2EP7QWidget
qtractor:_ZN31qtractorTimeScaleAddNodeCommand4redoEv
qtractor:_ZN31qtractorTimeScaleAddNodeCommand4undoEv
qtractor:_ZN31qtractorTimeScaleAddNodeCommandC1EP17qtractorTimeScalemfttt
qtractor:_ZN31qtractorTimeScaleAddNodeCommandC2EP17qtractorTimeScalemfttt
qtractor:_ZN32qtractorDirectAccessParamCommand4redoEv
qtractor:_ZN32qtractorDirectAccessParamCommand4undoEv
qtractor:_ZN32qtractorDirectAccessParamCommandC1EP14qtractorPluginl
qtractor:_ZN32qtractorDirectAccessParamCommandC2EP14qtractorPluginl
qtractor:_ZN32qtractorPluginParamValuesCommand16updateParamValueEPN14qtractorPlugin5ParamEfb
qtractor:_ZN32qtractorPluginParamValuesCommand4redoEv
qtractor:_ZN32qtractorPluginParamValuesCommand4undoEv
qtractor:_ZN32qtractorPluginParamValuesCommandC1ERK7QString
qtractor:_ZN32qtractorPluginParamValuesCommandC2ERK7QString
qtractor:_ZN32qtractorPluginParamValuesCommandD0Ev
qtractor:_ZN32qtractorPluginParamValuesCommandD1Ev
qtractor:_ZN32qtractorPluginParamValuesCommandD2Ev
qtractor:_ZN32qtractorTimeScaleMoveNodeCommand4redoEv
qtractor:_ZN32qtractorTimeScaleMoveNodeCommand4undoEv
qtractor:_ZN32qtractorTimeScaleMoveNodeCommandC1EP17qtractorTimeScalePNS0_4NodeEm
qtractor:_ZN32qtractorTimeScaleMoveNodeCommandC2EP17qtractorTimeScalePNS0_4NodeEm
qtractor:_ZN32qtractorTimeScaleTimeSig2Command4redoEv
qtractor:_ZN32qtractorTimeScaleTimeSig2Command4undoEv
qtractor:_ZN32qtractorTimeScaleTimeSig2CommandC1EP17qtractorTimeScaleP16qtractorMidiCliptt
qtractor:_ZN32qtractorTimeScaleTimeSig2CommandC2EP17qtractorTimeScaleP16qtractorMidiCliptt
qtractor:_ZN33qtractorShortcutTableItemDelegate11qt_metacallEN11QMetaObject4CallEiPPv
qtractor:_ZN33qtractorShortcutTableItemDelegate11qt_metacastEPKc
qtractor:_ZN33qtractorShortcutTableItemDelegate12commitEditorEv
qtractor:_ZN33qtractorShortcutTableItemDelegate16staticMetaObjectE
qtractor:_ZN33qtractorShortcutTableItemDelegateC1EP20qtractorShortcutForm
qtractor:_ZN33qtractorShortcutTableItemDelegateC2EP20qtractorShortcutForm
qtractor:_ZN33qtractorTimeScaleAddMarkerCommand4redoEv
qtractor:_ZN33qtractorTimeScaleAddMarkerCommand4undoEv
qtractor:_ZN33qtractorTimeScaleAddMarkerCommandC1EP17qtractorTimeScalemRK7QStringRK6QColor
qtractor:_ZN33qtractorTimeScaleAddMarkerCommandC2EP17qtractorTimeScalemRK7QStringRK6QColor
qtractor:_ZN34qtractorMidiControlObserverCommandC1ERK7QStringP27qtractorMidiControlObserver
qtractor:_ZN34qtractorMidiControlObserverCommandC2ERK7QStringP27qtractorMidiControlObserver
qtractor:_ZN34qtractorTimeScaleMoveMarkerCommand4redoEv
qtractor:_ZN34qtractorTimeScaleMoveMarkerCommand4undoEv
qtractor:_ZN34qtractorTimeScaleMoveMarkerCommandC1EP17qtractorTimeScalePNS0_6MarkerEm
qtractor:_ZN34qtractorTimeScaleMoveMarkerCommandC2EP17qtractorTimeScalePNS0_6MarkerEm
qtractor:_ZN34qtractorTimeScaleRemoveNodeCommand4redoEv
qtractor:_ZN34qtractorTimeScaleRemoveNodeCommand4undoEv
qtractor:_ZN34qtractorTimeScaleRemoveNodeCommandC1EP17qtractorTimeScalePNS0_4NodeE
qtractor:_ZN34qtractorTimeScaleRemoveNodeCommandC2EP17qtractorTimeScalePNS0_4NodeE
qtractor:_ZN34qtractorTimeScaleUpdateNodeCommand4redoEv
qtractor:_ZN34qtractorTimeScaleUpdateNodeCommand4undoEv
qtractor:_ZN34qtractorTimeScaleUpdateNodeCommandC1EP17qtractorTimeScalemfttt
qtractor:_ZN34qtractorTimeScaleUpdateNodeCommandC2EP17qtractorTimeScalemfttt
qtractor:_ZN36qtractorTimeScaleRemoveMarkerCommand4redoEv
qtractor:_ZN36qtractorTimeScaleRemoveMarkerCommand4undoEv
qtractor:_ZN36qtractorTimeScaleRemoveMarkerCommandC1EP17qtractorTimeScalePNS0_6MarkerE
qtractor:_ZN36qtractorTimeScaleRemoveMarkerCommandC2EP17qtractorTimeScalePNS0_6MarkerE
qtractor:_ZN36qtractorTimeScaleUpdateMarkerCommand4redoEv
qtractor:_ZN36qtractorTimeScaleUpdateMarkerCommand4undoEv
qtractor:_ZN36qtractorTimeScaleUpdateMarkerCommandC1EP17qtractorTimeScalemRK7QStringRK6QColor
qtractor:_ZN36qtractorTimeScaleUpdateMarkerCommandC2EP17qtractorTimeScalemRK7QStringRK6QColor
qtractor:_ZN39qtractorTimeScaleAddKeySignatureCommand4redoEv
qtractor:_ZN39qtractorTimeScaleAddKeySignatureCommand4undoEv
qtractor:_ZN39qtractorTimeScaleAddKeySignatureCommandC1EP17qtractorTimeScalemii
qtractor:_ZN39qtractorTimeScaleAddKeySignatureCommandC2EP17qtractorTimeScalemii
qtractor:_ZN42qtractorTimeScaleRemoveKeySignatureCommand4redoEv
qtractor:_ZN42qtractorTimeScaleRemoveKeySignatureCommand4undoEv
qtractor:_ZN42qtractorTimeScaleRemoveKeySignatureCommandC1EP17qtractorTimeScalePNS0_6MarkerE
qtractor:_ZN42qtractorTimeScaleRemoveKeySignatureCommandC2EP17qtractorTimeScalePNS0_6MarkerE
qtractor:_ZN42qtractorTimeScaleUpdateKeySignatureCommand4redoEv
qtractor:_ZN42qtractorTimeScaleUpdateKeySignatureCommand4undoEv
qtractor:_ZN42qtractorTimeScaleUpdateKeySignatureCommandC1EP17qtractorTimeScalemii
qtractor:_ZN42qtractorTimeScaleUpdateKeySignatureCommandC2EP17qtractorTimeScalemii
qtractor:_ZNK11qtractorBus13saveCurveFileEP16qtractorDocumentP11QDomElementNS_7BusModeEP17qtractorCurveFile
qtractor:_ZNK11qtractorBus14applyCurveFileENS_7BusModeEP17qtractorCurveFile
qtractor:_ZNK11qtractorBus14monitorSubjectEv
qtractor:_ZNK11qtractorBus15monitorObserverEv
qtractor:_ZNK11qtractorBus15saveControllersEP16qtractorDocumentP11QDomElementNS_7BusModeE
qtractor:_ZNK11qtractorBus6engineEv
qtractor:_ZNK11qtractorBus7busModeEv
qtractor:_ZNK11qtractorBus7busNameEv
qtractor:_ZNK11qtractorBus7busTypeEv
qtractor:_ZNK11qtractorBus9isMonitorEv
qtractor:_ZNK12qtractorClip13fadeInOutGainEm
qtractor:_ZNK12qtractorClip13shortClipNameERK7QString
qtractor:_ZNK12qtractorClip14isClipSelectedEv
qtractor:_ZNK12qtractorClip16relativeFilenameEP16qtractorDocument
qtractor:_ZNK12qtractorClip7toolTipEv
qtractor:_ZNK12qtractorClip8TakeInfo9takeCountEv
qtractor:_ZNK12qtractorClip8filenameEv
qtractor:_ZNK12qtractorClip8takeInfoEv
qtractor:_ZNK12qtractorClip9clipTitleEv
qtractor:_ZNK13qtractorCurve14isMinFrameDistEPNS_4NodeEmf
qtractor:_ZNK13qtractorCurve14scaleFromValueEf
qtractor:_ZNK13qtractorCurve14valueFromScaleEf
qtractor:_ZNK13qtractorCurve17writeMidiSequenceEP20qtractorMidiSequenceN17qtractorMidiEvent9EventTypeEttP17qtractorTimeScale
qtractor:_ZNK13qtractorCurve5valueEPKNS_4NodeEm
qtractor:_ZNK13qtractorFiles10metaObjectEv
qtractor:_ZNK13qtractorFiles11isPlayStateEv
qtractor:_ZNK13qtractorFiles12midiListViewEv
qtractor:_ZNK13qtractorFiles13audioListViewEv
qtractor:_ZNK13qtractorFiles14isFileSelectedEv
qtractor:_ZNK13qtractorFiles19currentFileListViewEv
qtractor:_ZNK13qtractorFiles8hasFocusEv
qtractor:_ZNK13qtractorMixer10metaObjectEv
qtractor:_ZNK13qtractorMixer24findAudioOutputBusStripsEP16qtractorAudioBus
qtractor:_ZNK13qtractorTrack10backgroundEv
qtractor:_ZNK13qtractorTrack10clipRecordEv
qtractor:_ZNK13qtractorTrack10foregroundEv
qtractor:_ZNK13qtractorTrack10isMidiOmniEv
qtractor:_ZNK13qtractorTrack10pluginListEv
qtractor:_ZNK13qtractorTrack10takeInfoIdEPNS_8TakeInfoE
qtractor:_ZNK13qtractorTrack10zoomHeightEv
qtractor:_ZNK13qtractorTrack11isMidiDrumsEv
qtractor:_ZNK13qtractorTrack11midiChannelEv
qtractor:_ZNK13qtractorTrack11midiNoteMaxEv
qtractor:_ZNK13qtractorTrack11midiNoteMinEv
qtractor:_ZNK13qtractorTrack11muteSubjectEv
qtractor:_ZNK13qtractorTrack11prevPanningEv
qtractor:_ZNK13qtractorTrack11saveElementEP16qtractorDocumentP11QDomElement
qtractor:_ZNK13qtractorTrack11soloSubjectEv
qtractor:_ZNK13qtractorTrack11takeInfoAddEiPNS_8TakeInfoE
qtractor:_ZNK13qtractorTrack11takeInfoNewEPNS_8TakeInfoE
qtractor:_ZNK13qtractorTrack12currentCurveEv
qtractor:_ZNK13qtractorTrack12inputBusNameEv
qtractor:_ZNK13qtractorTrack12muteObserverEv
qtractor:_ZNK13qtractorTrack12soloObserverEv
qtractor:_ZNK13qtractorTrack13clearTakeInfoEv
qtractor:_ZNK13qtractorTrack13clipRecordEndEm
qtractor:_ZNK13qtractorTrack13outputBusNameEv
qtractor:_ZNK13qtractorTrack13recordSubjectEv
qtractor:_ZNK13qtractorTrack13saveCurveFileEP16qtractorDocumentP11QDomElementP17qtractorCurveFile
qtractor:_ZNK13qtractorTrack14applyCurveFileEP17qtractorCurveFile
qtractor:_ZNK13qtractorTrack14isClipRecordExEv
qtractor:_ZNK13qtractorTrack14monitorSubjectEv
qtractor:_ZNK13qtractorTrack14recordObserverEv
qtractor:_ZNK13qtractorTrack14zoomHeightBaseEv
qtractor:_ZNK13qtractorTrack15clipRecordStartEv
qtractor:_ZNK13qtractorTrack15monitorObserverEv
qtractor:_ZNK13qtractorTrack15saveControllersEP16qtractorDocumentP11QDomElement
qtractor:_ZNK13qtractorTrack17midiBankSelMethodEv
qtractor:_ZNK13qtractorTrack19isPluginListLatencyEv
qtractor:_ZNK13qtractorTrack4gainEv
qtractor:_ZNK13qtractorTrack5clipsEv
qtractor:_ZNK13qtractorTrack6heightEv
qtractor:_ZNK13qtractorTrack6isMuteEv
qtractor:_ZNK13qtractorTrack6isSoloEv
qtractor:_ZNK13qtractorTrack7midiTagEv
qtractor:_ZNK13qtractorTrack7monitorEv
qtractor:_ZNK13qtractorTrack7panningEv
qtractor:_ZNK13qtractorTrack7sessionEv
qtractor:_ZNK13qtractorTrack8inputBusEv
qtractor:_ZNK13qtractorTrack8isRecordEv
qtractor:_ZNK13qtractorTrack8midiBankEv
qtractor:_ZNK13qtractorTrack8midiProgEv
qtractor:_ZNK13qtractorTrack8prevGainEv
qtractor:_ZNK13qtractorTrack8takeInfoEi
qtractor:_ZNK13qtractorTrack9curveFileEv
qtractor:_ZNK13qtractorTrack9curveListEv
qtractor:_ZNK13qtractorTrack9isMonitorEv
qtractor:_ZNK13qtractorTrack9outputBusEv
qtractor:_ZNK13qtractorTrack9trackIconEv
qtractor:_ZNK13qtractorTrack9trackNameEv
qtractor:_ZNK13qtractorTrack9trackTypeEv
qtractor:_ZNK14qtractorEngine10clientNameEv
qtractor:_ZNK14qtractorEngine11isActivatedEv
qtractor:_ZNK14qtractorEngine12findInputBusERK7QString
qtractor:_ZNK14qtractorEngine13findOutputBusERK7QString
qtractor:_ZNK14qtractorEngine13sessionCursorEv
qtractor:_ZNK14qtractorEngine5busesEv
qtractor:_ZNK14qtractorEngine7busesExEv
qtractor:_ZNK14qtractorEngine7findBusERK7QString
qtractor:_ZNK14qtractorEngine7sessionEv
qtractor:_ZNK14qtractorEngine8syncTypeEv
qtractor:_ZNK14qtractorEngine9findBusExERK7QString
qtractor:_ZNK14qtractorEngine9isPlayingEv
qtractor:_ZNK14qtractorPlugin10presetListEv
qtractor:_ZNK14qtractorPlugin11isActivatedEv
qtractor:_ZNK14qtractorPlugin11presetGroupEv
qtractor:_ZNK14qtractorPlugin12presetPrefixEv
qtractor:_ZNK14qtractorPlugin13isActivatedExEv
qtractor:_ZNK14qtractorPlugin13isFormVisibleEv
qtractor:_ZNK14qtractorPlugin13moveWidgetPosEP7QWidgetRK6QPoint
qtractor:_ZNK14qtractorPlugin13paramFromNameERK7QString
qtractor:_ZNK14qtractorPlugin17directAccessParamEv
qtractor:_ZNK14qtractorPlugin19isDirectAccessParamEv
qtractor:_ZNK14qtractorPlugin22directAccessParamIndexEv
qtractor:_ZNK14qtractorPlugin27canBeConnectedToOtherTracksEv
qtractor:_ZNK14qtractorPlugin6presetEv
qtractor:_ZNK14qtractorPlugin8channelsEv
qtractor:_ZNK14qtractorPlugin9valueListEv
qtractor:_ZNK14qtractorTracks10isSelectedEv
qtractor:_ZNK14qtractorTracks10metaObjectEv
qtractor:_ZNK14qtractorTracks11currentClipEv
qtractor:_ZNK14qtractorTracks12currentTrackEv
qtractor:_ZNK14qtractorTracks13zoomCenterPreERNS_10ZoomCenterE
qtractor:_ZNK14qtractorTracks14isClipSelectedEv
qtractor:_ZNK14qtractorTracks15isCurveSelectedEv
qtractor:_ZNK14qtractorTracks17clipSelectedRangeERmS0_
qtractor:_ZNK14qtractorTracks20insertEditRangeTrackEP24qtractorClipRangeCommandP13qtractorTrackmmj
qtractor:_ZNK14qtractorTracks20removeEditRangeTrackEP24qtractorClipRangeCommandP13qtractorTrackmmj
qtractor:_ZNK14qtractorTracks8zoomModeEv
qtractor:_ZNK14qtractorTracks8zoomStepEv
qtractor:_ZNK14qtractorTracks9trackListEv
qtractor:_ZNK14qtractorTracks9trackTimeEv
qtractor:_ZNK14qtractorTracks9trackViewEv
qtractor:_ZNK15qtractorBusForm10metaObjectEv
qtractor:_ZNK15qtractorBusForm5flagsEv
qtractor:_ZNK15qtractorConnect10metaObjectEv
qtractor:_ZNK15qtractorMidiBus10monitor_inEv
qtractor:_ZNK15qtractorMidiBus11monitor_outEv
qtractor:_ZNK15qtractorMidiBus11saveElementEP16qtractorDocumentP11QDomElement
qtractor:_ZNK15qtractorMidiBus11saveMidiMapEP16qtractorDocumentP11QDomElement
qtractor:_ZNK15qtractorMidiBus13pluginList_inEv
qtractor:_ZNK15qtractorMidiBus13saveSysexListEP16qtractorDocumentP11QDomElement
qtractor:_ZNK15qtractorMidiBus13sendSysexListEv
qtractor:_ZNK15qtractorMidiBus13setControllerEP13qtractorTrackii
qtractor:_ZNK15qtractorMidiBus13setControllerEtii
qtractor:_ZNK15qtractorMidiBus14instrumentNameEv
qtractor:_ZNK15qtractorMidiBus14midiMonitor_inEv
qtractor:_ZNK15qtractorMidiBus14pluginList_outEv
qtractor:_ZNK15qtractorMidiBus14updateConnectsEN11qtractorBus7BusModeERNS0_11ConnectListEb
qtractor:_ZNK15qtractorMidiBus15midiMonitor_outEv
qtractor:_ZNK15qtractorMidiBus15setControllerExEtiiP13qtractorTrack
qtractor:_ZNK15qtractorMidiBus16createPluginListEi
qtractor:_ZNK15qtractorMidiBus20updatePluginListNameEP18qtractorPluginListi
qtractor:_ZNK15qtractorMidiBus7shutOffEb
qtractor:_ZNK15qtractorMidiBus8alsaPortEv
qtractor:_ZNK15qtractorMidiBus8sendNoteEP13qtractorTrackii
qtractor:_ZNK15qtractorMidiBus9sendEventEN17qtractorMidiEvent9EventTypeEttt
qtractor:_ZNK15qtractorMidiBus9sendSysexEPhj
qtractor:_ZNK15qtractorMidiBus9sysexListEv
qtractor:_ZNK15qtractorMidiRpn9isPendingEv
qtractor:_ZNK15qtractorSession10clientNameEv
qtractor:_ZNK15qtractorSession10isPunchingEv
qtractor:_ZNK15qtractorSession10midiEngineEv
qtractor:_ZNK15qtractorSession10midiRecordEv
qtractor:_ZNK15qtractorSession10muteTracksEv
qtractor:_ZNK15qtractorSession10sampleRateEv
qtractor:_ZNK15qtractorSession10sessionDirEv
qtractor:_ZNK15qtractorSession10sessionEndEv
qtractor:_ZNK15qtractorSession10soloTracksEv
qtractor:_ZNK15qtractorSession11audioEngineEv
qtractor:_ZNK15qtractorSession11audioRecordEv
qtractor:_ZNK15qtractorSession11beatDivisorEv
qtractor:_ZNK15qtractorSession11beatsPerBarEv
qtractor:_ZNK15qtractorSession11descriptionEv
qtractor:_ZNK15qtractorSession11frameTimeExEv
qtractor:_ZNK15qtractorSession11instrumentsEv
qtractor:_ZNK15qtractorSession11isActivatedEv
qtractor:_ZNK15qtractorSession11isRecordingEv
qtractor:_ZNK15qtractorSession11loopEndTimeEv
qtractor:_ZNK15qtractorSession11punchInTimeEv
qtractor:_ZNK15qtractorSession11sessionNameEv
qtractor:_ZNK15qtractorSession11snapPerBeatEv
qtractor:_ZNK15qtractorSession12currentTrackEv
qtractor:_ZNK15qtractorSession12midiManagersEv
qtractor:_ZNK15qtractorSession12punchOutTimeEv
qtractor:_ZNK15qtractorSession12recordTracksEv
qtractor:_ZNK15qtractorSession12sessionStartEv
qtractor:_ZNK15qtractorSession12ticksPerBeatEv
qtractor:_ZNK15qtractorSession12verticalZoomEv
qtractor:_ZNK15qtractorSession13loopStartTimeEv
qtractor:_ZNK15qtractorSession13pixelsPerBeatEv
qtractor:_ZNK15qtractorSession14frameFromPixelEj
qtractor:_ZNK15qtractorSession14horizontalZoomEv
qtractor:_ZNK15qtractorSession14isTrackMonitorEP13qtractorTrack
qtractor:_ZNK15qtractorSession14pixelFromFrameEm
qtractor:_ZNK15qtractorSession15frameFromLocateEm
qtractor:_ZNK15qtractorSession15locateFromFrameEm
qtractor:_ZNK15qtractorSession15uniqueTrackNameERK7QString
qtractor:_ZNK15qtractorSession16audioPeakFactoryEv
qtractor:_ZNK15qtractorSession16isAutoDeactivateEv
qtractor:_ZNK15qtractorSession17isAutoTimeStretchEv
qtractor:_ZNK15qtractorSession17loopRecordingModeEv
qtractor:_ZNK15qtractorSession18findTrackCurveListEP17qtractorCurveList
qtractor:_ZNK15qtractorSession18isTrackMidiChannelEP13qtractorTrackt
qtractor:_ZNK15qtractorSession20playHeadAutoBackwardEv
qtractor:_ZNK15qtractorSession25canTrackBeAutoDeactivatedEP13qtractorTrack
qtractor:_ZNK15qtractorSession5filesEv
qtractor:_ZNK15qtractorSession5tempoEv
qtractor:_ZNK15qtractorSession6isBusyEv
qtractor:_ZNK15qtractorSession6tracksEv
qtractor:_ZNK15qtractorSession7loopEndEv
qtractor:_ZNK15qtractorSession7midiTagEv
qtractor:_ZNK15qtractorSession7punchInEv
qtractor:_ZNK15qtractorSession7trackAtEi
qtractor:_ZNK15qtractorSession8Document5filesEv
qtractor:_ZNK15qtractorSession8Document7sessionEv
qtractor:_ZNK15qtractorSession8beatTypeEv
qtractor:_ZNK15qtractorSession8commandsEv
qtractor:_ZNK15qtractorSession8editHeadEv
qtractor:_ZNK15qtractorSession8editTailEv
qtractor:_ZNK15qtractorSession8playHeadEv
qtractor:_ZNK15qtractorSession8punchOutEv
qtractor:_ZNK15qtractorSession9findTrackERK7QString
qtractor:_ZNK15qtractorSession9frameTimeEv
qtractor:_ZNK15qtractorSession9isLoopingEv
qtractor:_ZNK15qtractorSession9isPlayingEv
qtractor:_ZNK15qtractorSession9loopStartEv
qtractor:_ZNK15qtractorSpinBox10metaObjectEv
qtractor:_ZNK15qtractorSpinBox8validateER7QStringRi
qtractor:_ZNK15qtractorZipFile10isReadableEv
qtractor:_ZNK15qtractorZipFile10isWritableEv
qtractor:_ZNK15qtractorZipFile14totalProcessedEv
qtractor:_ZNK15qtractorZipFile15totalCompressedEv
qtractor:_ZNK15qtractorZipFile17totalUncompressedEv
qtractor:_ZNK15qtractorZipFile5aliasERK7QStringS2_b
qtractor:_ZNK15qtractorZipFile6existsEv
qtractor:_ZNK15qtractorZipFile6prefixEv
qtractor:_ZNK15qtractorZipFile6statusEv
qtractor:_ZNK16qtractorAudioBus10latency_inEv
qtractor:_ZNK16qtractorAudioBus10monitor_inEv
qtractor:_ZNK16qtractorAudioBus11latency_outEv
qtractor:_ZNK16qtractorAudioBus11monitor_outEv
qtractor:_ZNK16qtractorAudioBus11saveElementEP16qtractorDocumentP11QDomElement
qtractor:_ZNK16qtractorAudioBus13isAutoConnectEv
qtractor:_ZNK16qtractorAudioBus13pluginList_inEv
qtractor:_ZNK16qtractorAudioBus14pluginList_outEv
qtractor:_ZNK16qtractorAudioBus14updateConnectsEN11qtractorBus7BusModeERNS0_11ConnectListEb
qtractor:_ZNK16qtractorAudioBus15audioMonitor_inEv
qtractor:_ZNK16qtractorAudioBus16audioMonitor_outEv
qtractor:_ZNK16qtractorAudioBus16createPluginListEi
qtractor:_ZNK16qtractorAudioBus20updatePluginListNameEP18qtractorPluginListi
qtractor:_ZNK16qtractorAudioBus8channelsEv
qtractor:_ZNK16qtractorClipForm10metaObjectEv
qtractor:_ZNK16qtractorClipForm17fadeTypeFromIndexEi
qtractor:_ZNK16qtractorClipForm17indexFromFadeTypeEN12qtractorClip8FadeTypeE
qtractor:_ZNK16qtractorClipForm4clipEv
qtractor:_ZNK16qtractorClipForm9trackTypeEv
qtractor:_ZNK16qtractorDocument10isTemplateEv
qtractor:_ZNK16qtractorDocument11isTemporaryEv
qtractor:_ZNK16qtractorDocument5flagsEv
qtractor:_ZNK16qtractorDocument7tagNameEv
qtractor:_ZNK16qtractorDocument8documentEv
qtractor:_ZNK16qtractorDocument9isArchiveEv
qtractor:_ZNK16qtractorDocument9isSymLinkEv
qtractor:_ZNK16qtractorFileList12findFileItemENS_4TypeERK7QString
qtractor:_ZNK16qtractorFileList8findItemENS_4TypeERK7QString
qtractor:_ZNK16qtractorMainForm10fileSystemEv
qtractor:_ZNK16qtractorMainForm10metaObjectEv
qtractor:_ZNK16qtractorMainForm10sessionDirERK7QString
qtractor:_ZNK16qtractorMainForm11connectionsEv
qtractor:_ZNK16qtractorMainForm11sessionNameERK7QString
qtractor:_ZNK16qtractorMainForm12untitledNameEv
qtractor:_ZNK16qtractorMainForm15playHeadForwardEv
qtractor:_ZNK16qtractorMainForm16playHeadBackwardEv
qtractor:_ZNK16qtractorMainForm23trackCurveModeMenuResetEP5QMenu
qtractor:_ZNK16qtractorMainForm25trackCurveSelectMenuResetEP5QMenu
qtractor:_ZNK16qtractorMainForm26trackCurveSelectMenuActionEP5QMenuP27qtractorMidiControlObserverP15qtractorSubject
qtractor:_ZNK16qtractorMainForm5filesEv
qtractor:_ZNK16qtractorMainForm5mixerEv
qtractor:_ZNK16qtractorMainForm6tracksEv
qtractor:_ZNK16qtractorMainForm7rollingEv
qtractor:_ZNK16qtractorMainForm9thumbViewEv
qtractor:_ZNK16qtractorMessages10metaObjectEv
qtractor:_ZNK16qtractorMessages11stdoutBlockEib
qtractor:_ZNK16qtractorMessages12messagesFontEv
qtractor:_ZNK16qtractorMessages13messagesLimitEv
qtractor:_ZNK16qtractorMessages16isCaptureEnabledEv
qtractor:_ZNK16qtractorMessages9isLoggingEv
qtractor:_ZNK16qtractorMidiClip10clipExportEPFvP20qtractorMidiSequencePvES2_mm
qtractor:_ZNK16qtractorMidiClip11linkedClipsEv
qtractor:_ZNK16qtractorMidiClip12isHashLinkedEv
qtractor:_ZNK16qtractorMidiClip12isLinkedClipEPS_
qtractor:_ZNK16qtractorMidiClip14enqueue_exportEP13qtractorTrackP17qtractorMidiEventmf
qtractor:_ZNK16qtractorMidiClip7toolTipEv
qtractor:_ZNK16qtractorMmcEvent4isOnEv
qtractor:_ZNK16qtractorMmcEvent4scmdEv
qtractor:_ZNK16qtractorMmcEvent4stepEv
qtractor:_ZNK16qtractorMmcEvent5trackEv
qtractor:_ZNK16qtractorMmcEvent6locateEv
qtractor:_ZNK16qtractorMmcEvent7shuttleEv
qtractor:_ZNK17qtractorAudioClip10clipExportEPFvPPfjPvES2_mm
qtractor:_ZNK17qtractorAudioClip12isHashLinkedEv
qtractor:_ZNK17qtractorAudioClip7toolTipEv
qtractor:_ZNK17qtractorAudioClip9isOverlapEj
qtractor:_ZNK17qtractorCurveFile4saveEP16qtractorDocumentP11QDomElementP17qtractorTimeScale
qtractor:_ZNK17qtractorLv2Plugin10getProgramEiRN14qtractorPlugin7ProgramE
qtractor:_ZNK17qtractorLv2Plugin10lv2_handleEt
qtractor:_ZNK17qtractorLv2Plugin10lv2_pluginEv
qtractor:_ZNK17qtractorLv2Plugin10presetListEv
qtractor:_ZNK17qtractorLv2Plugin12lv2_instanceEt
qtractor:_ZNK17qtractorLv2Plugin15isEditorVisibleEv
qtractor:_ZNK17qtractorLv2Plugin16isReadOnlyPresetERK7QString
qtractor:_ZNK17qtractorLv2Plugin18lv2_state_save_dirEv
qtractor:_ZNK17qtractorLv2Plugin19lv2_state_interfaceEt
qtractor:_ZNK17qtractorLv2Plugin20lv2_worker_interfaceEt
qtractor:_ZNK17qtractorLv2Plugin21lv2_midnam_descriptorEt
qtractor:_ZNK17qtractorLv2Plugin23lv2_programs_descriptorEt
qtractor:_ZNK17qtractorLv2Plugin5Param12isSampleRateEv
qtractor:_ZNK17qtractorLv2Plugin5Param13isLogarithmicEv
qtractor:_ZNK17qtractorLv2Plugin5Param14isBoundedAboveEv
qtractor:_ZNK17qtractorLv2Plugin5Param14isBoundedBelowEv
qtractor:_ZNK17qtractorLv2Plugin5Param14isDefaultValueEv
qtractor:_ZNK17qtractorLv2Plugin5Param7displayEv
qtractor:_ZNK17qtractorLv2Plugin5Param9isDisplayEv
qtractor:_ZNK17qtractorLv2Plugin5Param9isIntegerEv
qtractor:_ZNK17qtractorLv2Plugin5Param9isToggledEv
qtractor:_ZNK17qtractorLv2Plugin8Property12isSampleRateEv
qtractor:_ZNK17qtractorLv2Plugin8Property13isLogarithmicEv
qtractor:_ZNK17qtractorLv2Plugin8Property14isBoundedAboveEv
qtractor:_ZNK17qtractorLv2Plugin8Property14isBoundedBelowEv
qtractor:_ZNK17qtractorLv2Plugin8Property14isDefaultValueEv
qtractor:_ZNK17qtractorLv2Plugin8Property6isPathEv
qtractor:_ZNK17qtractorLv2Plugin8Property8isStringEv
qtractor:_ZNK17qtractorLv2Plugin8Property9isDisplayEv
qtractor:_ZNK17qtractorLv2Plugin8Property9isIntegerEv
qtractor:_ZNK17qtractorLv2Plugin8Property9isToggledEv
qtractor:_ZNK17qtractorMidiMeter11midiMonitorEv
qtractor:_ZNK17qtractorMidiMeter6pixmapEv
qtractor:_ZNK17qtractorMidiMeter7monitorEv
qtractor:_ZNK17qtractorMidiTimer3keyEi
qtractor:_ZNK17qtractorMidiTimer4nameEi
qtractor:_ZNK17qtractorMidiTimer5countEv
qtractor:_ZNK17qtractorMidiTimer7indexOfEi
qtractor:_ZNK17qtractorMixerRack10metaObjectEv
qtractor:_ZNK17qtractorMixerRack20findMidiManagerStripEP19qtractorMidiManager
qtractor:_ZNK17qtractorMixerRack24findAudioOutputBusStripsEP16qtractorAudioBus
qtractor:_ZNK17qtractorMixerRack9findStripEP15qtractorMonitor
qtractor:_ZNK17qtractorNsmClient10metaObjectEv
qtractor:_ZNK17qtractorNsmClient12capabilitiesEv
qtractor:_ZNK17qtractorNsmClient12display_nameEv
qtractor:_ZNK17qtractorNsmClient7managerEv
qtractor:_ZNK17qtractorNsmClient9client_idEv
qtractor:_ZNK17qtractorNsmClient9is_activeEv
qtractor:_ZNK17qtractorNsmClient9path_nameEv
qtractor:_ZNK17qtractorThumbView10metaObjectEv
qtractor:_ZNK17qtractorTimeScale4Node12beatsPerBar2Ev
qtractor:_ZNK17qtractorTimeScale4Node13ticksPerBeat2Ev
qtractor:_ZNK17qtractorTimeScale4Node7tempoExEt
qtractor:_ZNK17qtractorTimeScale4Node8tickSnapEmt
qtractor:_ZNK17qtractorTrackForm10metaObjectEv
qtractor:_ZNK17qtractorTrackForm10propertiesEv
qtractor:_ZNK17qtractorTrackForm19saveDefaultBusNamesEN13qtractorTrack9TrackTypeE
qtractor:_ZNK17qtractorTrackForm5trackEv
qtractor:_ZNK17qtractorTrackForm7midiBusEv
qtractor:_ZNK17qtractorTrackForm8midiBankEv
qtractor:_ZNK17qtractorTrackForm8midiProgEv
qtractor:_ZNK17qtractorTrackForm9trackTypeEv
qtractor:_ZNK17qtractorTrackList10metaObjectEv
qtractor:_ZNK17qtractorTrackList11HeaderModel10headerDataEiN2Qt11OrientationEi
qtractor:_ZNK17qtractorTrackList12currentTrackEv
qtractor:_ZNK17qtractorTrackList13trackRowCountEv
qtractor:_ZNK17qtractorTrackList14selectedTracksEP13qtractorTrackb
qtractor:_ZNK17qtractorTrackList15currentTrackRowEv
qtractor:_ZNK17qtractorTrackList4Item19updateBankProgNamesEP19qtractorMidiManagerRK7QStringRS3_S6_
qtractor:_ZNK17qtractorTrackList5trackEi
qtractor:_ZNK17qtractorTrackList6headerEv
qtractor:_ZNK17qtractorTrackList6tracksEv
qtractor:_ZNK17qtractorTrackList8drawCellEP8QPainteriiRK5QRect
qtractor:_ZNK17qtractorTrackList8trackRowEP13qtractorTrack
qtractor:_ZNK17qtractorTrackList9trackRectEi
qtractor:_ZNK17qtractorTrackTime10metaObjectEv
qtractor:_ZNK17qtractorTrackTime11showToolTipERK5QRect
qtractor:_ZNK17qtractorTrackTime11showToolTipEm
qtractor:_ZNK17qtractorTrackView10clipSelectEv
qtractor:_ZNK17qtractorTrackView10isDropSpanEv
qtractor:_ZNK17qtractorTrackView10isSnapGridEv
qtractor:_ZNK17qtractorTrackView10isToolTipsEv
qtractor:_ZNK17qtractorTrackView10metaObjectEv
qtractor:_ZNK17qtractorTrackView10selectModeEv
qtractor:_ZNK17qtractorTrackView11clipAtTrackERK6QPointP5QRectP13qtractorTrackPNS_13TrackViewInfoE
qtractor:_ZNK17qtractorTrackView11currentClipEv
qtractor:_ZNK17qtractorTrackView11isCurveEditEv
qtractor:_ZNK17qtractorTrackView11isSnapZebraEv
qtractor:_ZNK17qtractorTrackView11nodeAtTrackERK6QPointP13qtractorTrackPNS_13TrackViewInfoE
qtractor:_ZNK17qtractorTrackView11nodeToolTipEP13qtractorCurvePNS0_4NodeE
qtractor:_ZNK17qtractorTrackView11pastePeriodEv
qtractor:_ZNK17qtractorTrackView11showToolTipERK5QRecti
qtractor:_ZNK17qtractorTrackView13sessionCursorEv
qtractor:_ZNK17qtractorTrackView14hideClipSelectEv
qtractor:_ZNK17qtractorTrackView14isClipSelectedEv
qtractor:_ZNK17qtractorTrackView14isSyncViewHoldEv
qtractor:_ZNK17qtractorTrackView14moveRubberBandEPP18qtractorRubberBandRK5QRecti
qtractor:_ZNK17qtractorTrackView14showClipSelectEv
qtractor:_ZNK17qtractorTrackView15isCurveSelectedEv
qtractor:_ZNK17qtractorTrackView17hideClipDropRectsEv
qtractor:_ZNK17qtractorTrackView17showClipDropRectsEv
qtractor:_ZNK17qtractorTrackView19updateClipDropRectsEii
qtractor:_ZNK17qtractorTrackView21playHeadAutoBackwardXEv
qtractor:_ZNK17qtractorTrackView6clipAtERK6QPointbP5QRect
qtractor:_ZNK17qtractorTrackView6nodeAtERK6QPoint
qtractor:_ZNK17qtractorTrackView7trackAtERK6QPointbPNS_13TrackViewInfoE
qtractor:_ZNK17qtractorTrackView8clipInfoEP12qtractorClipP5QRectPNS_13TrackViewInfoE
qtractor:_ZNK17qtractorTrackView9editHeadXEv
qtractor:_ZNK17qtractorTrackView9editTailXEv
qtractor:_ZNK17qtractorTrackView9playHeadXEv
qtractor:_ZNK17qtractorTrackView9trackInfoEP13qtractorTrackPNS_13TrackViewInfoE
qtractor:_ZNK17qtractorVstPlugin10getProgramEiRN14qtractorPlugin7ProgramE
qtractor:_ZNK17qtractorVstPlugin10vst_effectEt
qtractor:_ZNK17qtractorVstPlugin12editorWidgetEv
qtractor:_ZNK17qtractorVstPlugin12vst_dispatchEtlllPvf
qtractor:_ZNK17qtractorVstPlugin15isEditorVisibleEv
qtractor:_ZNK17qtractorVstPlugin5Param12isSampleRateEv
qtractor:_ZNK17qtractorVstPlugin5Param13isLogarithmicEv
qtractor:_ZNK17qtractorVstPlugin5Param14isBoundedAboveEv
qtractor:_ZNK17qtractorVstPlugin5Param14isBoundedBelowEv
qtractor:_ZNK17qtractorVstPlugin5Param14isDefaultValueEv
qtractor:_ZNK17qtractorVstPlugin5Param7displayEv
qtractor:_ZNK17qtractorVstPlugin5Param9isDisplayEv
qtractor:_ZNK17qtractorVstPlugin5Param9isIntegerEv
qtractor:_ZNK17qtractorVstPlugin5Param9isToggledEv
qtractor:_ZNK17qtractorVstPlugin7latencyEv
qtractor:_ZNK17qtractorZipDevice5aliasERK7QStringS2_b
qtractor:_ZNK17qtractorZipDevice6prefixEv
qtractor:_ZNK18qtractorAudioMeter12audioMonitorEv
qtractor:_ZNK18qtractorAudioMeter6pixmapEv
qtractor:_ZNK18qtractorAudioMeter7monitorEv
qtractor:_ZNK18qtractorAudioMeter9iec_levelEi
qtractor:_ZNK18qtractorAudioMeter9iec_scaleEf
qtractor:_ZNK18qtractorBusCommand5meterEv
qtractor:_ZNK18qtractorClipSelect4rectEv
qtractor:_ZNK18qtractorClipSelect5itemsEv
qtractor:_ZNK18qtractorClipSelect8findItemEP12qtractorClip
qtractor:_ZNK18qtractorExportForm10exportTypeEv
qtractor:_ZNK18qtractorExportForm10metaObjectEv
qtractor:_ZNK18qtractorExportForm11exportTitleEv
qtractor:_ZNK18qtractorExportForm16midiExportFormatEv
qtractor:_ZNK18qtractorExportForm17audioExportFormatEv
qtractor:_ZNK18qtractorExportForm9exportExtEv
qtractor:_ZNK18qtractorFileSystem10metaObjectEv
qtractor:_ZNK18qtractorFileSystem11isPlayStateEv
qtractor:_ZNK18qtractorFileSystem5flagsEv
qtractor:_ZNK18qtractorFileSystem8rootPathEv
qtractor:_ZNK18qtractorFileSystem9saveStateEv
qtractor:_ZNK18qtractorInstrument5notesEii
qtractor:_ZNK18qtractorInstrument5patchEi
qtractor:_ZNK18qtractorInstrument6isDrumEii
qtractor:_ZNK18qtractorMessageBox10iconPixmapEv
qtractor:_ZNK18qtractorMessageBox10metaObjectEv
qtractor:_ZNK18qtractorMessageBox15standardButtonsEv
qtractor:_ZNK18qtractorMessageBox4iconEv
qtractor:_ZNK18qtractorMessageBox4textEv
qtractor:_ZNK18qtractorMeterScale5meterEv
qtractor:_ZNK18qtractorMidiEditor10backgroundEv
qtractor:_ZNK18qtractorMidiEditor10foregroundEv
qtractor:_ZNK18qtractorMidiEditor10ghostTrackEv
qtractor:_ZNK18qtractorMidiEditor10isDrumModeEv
qtractor:_ZNK18qtractorMidiEditor10isEditModeEv
qtractor:_ZNK18qtractorMidiEditor10isSelectedEv
qtractor:_ZNK18qtractorMidiEditor10isSnapGridEv
qtractor:_ZNK18qtractorMidiEditor10isSyncViewEv
qtractor:_ZNK18qtractorMidiEditor10isToolTipsEv
qtractor:_ZNK18qtractorMidiEditor10metaObjectEv
qtractor:_ZNK18qtractorMidiEditor10timeOffsetEv
qtractor:_ZNK18qtractorMidiEditor10valueDeltaEP18qtractorScrollView
qtractor:_ZNK18qtractorMidiEditor11isNoteColorEv
qtractor:_ZNK18qtractorMidiEditor11isNoteNamesEv
qtractor:_ZNK18qtractorMidiEditor11isSendNotesEv
qtractor:_ZNK18qtractorMidiEditor11isSnapZebraEv
qtractor:_ZNK18qtractorMidiEditor11pastePeriodEv
qtractor:_ZNK18qtractorMidiEditor11programNameEh
qtractor:_ZNK18qtractorMidiEditor11safeValue14Ei
qtractor:_ZNK18qtractorMidiEditor11showToolTipEP18qtractorScrollViewRK5QRect
qtractor:_ZNK18qtractorMidiEditor12eventToolTipEP17qtractorMidiEventlii
qtractor:_ZNK18qtractorMidiEditor12isClipRecordEv
qtractor:_ZNK18qtractorMidiEditor12isInsertableEv
qtractor:_ZNK18qtractorMidiEditor12isSelectableEv
qtractor:_ZNK18qtractorMidiEditor12isValueColorEv
qtractor:_ZNK18qtractorMidiEditor12trackChannelEv
qtractor:_ZNK18qtractorMidiEditor12verticalZoomEv
qtractor:_ZNK18qtractorMidiEditor13control14NameEh
qtractor:_ZNK18qtractorMidiEditor13safePitchBendEi
qtractor:_ZNK18qtractorMidiEditor13verticalSizesEv
qtractor:_ZNK18qtractorMidiEditor13zoomCenterPreERNS_10ZoomCenterE
qtractor:_ZNK18qtractorMidiEditor14controllerNameEh
qtractor:_ZNK18qtractorMidiEditor14editEventFrameEv
qtractor:_ZNK18qtractorMidiEditor14editEventScaleEv
qtractor:_ZNK18qtractorMidiEditor14editListHeaderEv
qtractor:_ZNK18qtractorMidiEditor14horizontalZoomEv
qtractor:_ZNK18qtractorMidiEditor14isEditModeDrawEv
qtractor:_ZNK18qtractorMidiEditor14isNoteDurationEv
qtractor:_ZNK18qtractorMidiEditor14isSyncViewHoldEv
qtractor:_ZNK18qtractorMidiEditor14selectedEventsEv
qtractor:_ZNK18qtractorMidiEditor14snapToScaleKeyEv
qtractor:_ZNK18qtractorMidiEditor15horizontalSizesEv
qtractor:_ZNK18qtractorMidiEditor15snapToScaleTypeEv
qtractor:_ZNK18qtractorMidiEditor16updateEventRectsEP17qtractorMidiEventR5QRectS3_
qtractor:_ZNK18qtractorMidiEditor17isDragEventResizeE6QFlagsIN2Qt16KeyboardModifierEE
qtractor:_ZNK18qtractorMidiEditor6formatEv
qtractor:_ZNK18qtractorMidiEditor6lengthEv
qtractor:_ZNK18qtractorMidiEditor6offsetEv
qtractor:_ZNK18qtractorMidiEditor7canRedoEv
qtractor:_ZNK18qtractorMidiEditor7canUndoEv
qtractor:_ZNK18qtractorMidiEditor8commandsEv
qtractor:_ZNK18qtractorMidiEditor8editListEv
qtractor:_ZNK18qtractorMidiEditor8editTimeEv
qtractor:_ZNK18qtractorMidiEditor8editViewEv
qtractor:_ZNK18qtractorMidiEditor8filenameEv
qtractor:_ZNK18qtractorMidiEditor8midiClipEv
qtractor:_ZNK18qtractorMidiEditor8noteNameEh
qtractor:_ZNK18qtractorMidiEditor8rpnNamesEv
qtractor:_ZNK18qtractorMidiEditor8safeNoteEi
qtractor:_ZNK18qtractorMidiEditor8sequenceEv
qtractor:_ZNK18qtractorMidiEditor8timeSnapEl
qtractor:_ZNK18qtractorMidiEditor8zoomModeEv
qtractor:_ZNK18qtractorMidiEditor8zoomStepEv
qtractor:_ZNK18qtractorMidiEditor9editEventEv
qtractor:_ZNK18qtractorMidiEditor9editHeadXEv
qtractor:_ZNK18qtractorMidiEditor9editTailXEv
qtractor:_ZNK18qtractorMidiEditor9noteDeltaEP18qtractorScrollView
qtractor:_ZNK18qtractorMidiEditor9nrpnNamesEv
qtractor:_ZNK18qtractorMidiEditor9playHeadXEv
qtractor:_ZNK18qtractorMidiEditor9safeValueEi
qtractor:_ZNK18qtractorMidiEditor9thumbViewEv
qtractor:_ZNK18qtractorMidiEditor9timeDeltaEP18qtractorScrollView
qtractor:_ZNK18qtractorMidiEditor9timeScaleEv
qtractor:_ZNK18qtractorMidiEngine10alsaClientEv
qtractor:_ZNK18qtractorMidiEngine10isMetroBusEv
qtractor:_ZNK18qtractorMidiEngine11isMetronomeEv
qtractor:_ZNK18qtractorMidiEngine11isPlayerBusEv
qtractor:_ZNK18qtractorMidiEngine11metroCursorEv
qtractor:_ZNK18qtractorMidiEngine11metroOffsetEv
qtractor:_ZNK18qtractorMidiEngine11saveElementEP16qtractorDocumentP11QDomElement
qtractor:_ZNK18qtractorMidiEngine11timeStartExEv
qtractor:_ZNK18qtractorMidiEngine12alsaNotifierEv
qtractor:_ZNK18qtractorMidiEngine12isControlBusEv
qtractor:_ZNK18qtractorMidiEngine12isPlayerOpenEv
qtractor:_ZNK18qtractorMidiEngine12metroBarNoteEv
qtractor:_ZNK18qtractorMidiEngine12metroChannelEv
qtractor:_ZNK18qtractorMidiEngine13controlBus_inEv
qtractor:_ZNK18qtractorMidiEngine13metroBeatNoteEv
qtractor:_ZNK18qtractorMidiEngine13sendMmcLocateEm
qtractor:_ZNK18qtractorMidiEngine14controlBus_outEv
qtractor:_ZNK18qtractorMidiEngine14isDriftCorrectEv
qtractor:_ZNK18qtractorMidiEngine14isMetroEnabledEv
qtractor:_ZNK18qtractorMidiEngine14sendMmcCommandEN16qtractorMmcEvent7CommandEPht
qtractor:_ZNK18qtractorMidiEngine14sendSppCommandEit
qtractor:_ZNK18qtractorMidiEngine15captureQuantizeEv
qtractor:_ZNK18qtractorMidiEngine16metroBarDurationEv
qtractor:_ZNK18qtractorMidiEngine16metroBarVelocityEv
qtractor:_ZNK18qtractorMidiEngine17metroBeatDurationEv
qtractor:_ZNK18qtractorMidiEngine17metroBeatVelocityEv
qtractor:_ZNK18qtractorMidiEngine18sendMmcMaskedWriteEN16qtractorMmcEvent10SubCommandEib
qtractor:_ZNK18qtractorMidiEngine21isResetAllControllersEv
qtractor:_ZNK18qtractorMidiEngine5proxyEv
qtractor:_ZNK18qtractorMidiEngine7alsaSeqEv
qtractor:_ZNK18qtractorMidiEngine7mmcModeEv
qtractor:_ZNK18qtractorMidiEngine7sppModeEv
qtractor:_ZNK18qtractorMidiEngine9alsaQueueEv
qtractor:_ZNK18qtractorMidiEngine9alsaTimerEv
qtractor:_ZNK18qtractorMidiEngine9clockModeEv
qtractor:_ZNK18qtractorMidiEngine9mmcDeviceEv
qtractor:_ZNK18qtractorMidiEngine9readAheadEv
qtractor:_ZNK18qtractorMidiEngine9timeStartEv
qtractor:_ZNK18qtractorMidiPlayer10queueFrameEv
qtractor:_ZNK18qtractorMidiPlayer10sampleRateEv
qtractor:_ZNK18qtractorMidiPlayer6isOpenEv
qtractor:_ZNK18qtractorMidiPlayer9queueTimeEv
qtractor:_ZNK18qtractorMixerMeter10metaObjectEv
qtractor:_ZNK18qtractorMixerMeter11gainSubjectEv
qtractor:_ZNK18qtractorMixerMeter11prevPanningEv
qtractor:_ZNK18qtractorMixerMeter14panningSubjectEv
qtractor:_ZNK18qtractorMixerMeter4gainEv
qtractor:_ZNK18qtractorMixerMeter7panningEv
qtractor:_ZNK18qtractorMixerMeter8prevGainEv
qtractor:_ZNK18qtractorMixerStrip10metaObjectEv
qtractor:_ZNK18qtractorMixerStrip11midiManagerEv
qtractor:_ZNK18qtractorMixerStrip7monitorEv
qtractor:_ZNK18qtractorPluginForm10metaObjectEv
qtractor:_ZNK18qtractorPluginForm6pluginEv
qtractor:_ZNK18qtractorPluginForm6presetEv
qtractor:_ZNK18qtractorPluginList10isUniqueIDEP18qtractorPluginType
qtractor:_ZNK18qtractorPluginList15checkPluginFileER7QStringN18qtractorPluginType4HintE
qtractor:_ZNK18qtractorPluginList17isAutoDeactivatedEv
qtractor:_ZNK18qtractorPluginList8Document10pluginListEv
qtractor:_ZNK18qtractorPluginType8filenameEv
qtractor:_ZNK18qtractorPluginType9instancesEtb
qtractor:_ZNK18qtractorRubberBand5Style9styleHintEN6QStyle9StyleHintEPK12QStyleOptionPK7QWidgetP16QStyleHintReturn
qtractor:_ZNK18qtractorRubberBand9thicknessEv
qtractor:_ZNK18qtractorScrollView10metaObjectEv
qtractor:_ZNK18qtractorScrollView18contentsToViewportERK6QPoint
qtractor:_ZNK18qtractorScrollView18viewportToContentsERK6QPoint
qtractor:_ZNK19qtractorApplication10metaObjectEv
qtractor:_ZNK19qtractorAudioBuffer10bufferSizeEv
qtractor:_ZNK19qtractorAudioBuffer10fileLengthEv
qtractor:_ZNK19qtractorAudioBuffer10isSyncFlagENS_8SyncFlagE
qtractor:_ZNK19qtractorAudioBuffer10pitchShiftEv
qtractor:_ZNK19qtractorAudioBuffer11channelGainEt
qtractor:_ZNK19qtractorAudioBuffer11timeStretchEv
qtractor:_ZNK19qtractorAudioBuffer12isPitchShiftEv
qtractor:_ZNK19qtractorAudioBuffer13isTimeStretchEv
qtractor:_ZNK19qtractorAudioBuffer13resampleRatioEv
qtractor:_ZNK19qtractorAudioBuffer16isWsolaQuickSeekEv
qtractor:_ZNK19qtractorAudioBuffer18isWsolaTimeStretchEv
qtractor:_ZNK19qtractorAudioBuffer4fileEv
qtractor:_ZNK19qtractorAudioBuffer4gainEv
qtractor:_ZNK19qtractorAudioBuffer6framesEv
qtractor:_ZNK19qtractorAudioBuffer6lengthEv
qtractor:_ZNK19qtractorAudioBuffer6offsetEv
qtractor:_ZNK19qtractorAudioBuffer7loopEndEv
qtractor:_ZNK19qtractorAudioBuffer7panningEv
qtractor:_ZNK19qtractorAudioBuffer8channelsEv
qtractor:_ZNK19qtractorAudioBuffer8framesInEm
qtractor:_ZNK19qtractorAudioBuffer8peakFileEv
qtractor:_ZNK19qtractorAudioBuffer9framesOutEm
qtractor:_ZNK19qtractorAudioBuffer9loopStartEv
qtractor:_ZNK19qtractorAudioEngine10bufferSizeEv
qtractor:_ZNK19qtractorAudioEngine10isMetroBusEv
qtractor:_ZNK19qtractorAudioEngine10isTimebaseEv
qtractor:_ZNK19qtractorAudioEngine10jackClientEv
qtractor:_ZNK19qtractorAudioEngine10sampleRateEv
qtractor:_ZNK19qtractorAudioEngine11exportStartEv
qtractor:_ZNK19qtractorAudioEngine11isExportingEv
qtractor:_ZNK19qtractorAudioEngine11isFreewheelEv
qtractor:_ZNK19qtractorAudioEngine11isMetronomeEv
qtractor:_ZNK19qtractorAudioEngine11isPlayerBusEv
qtractor:_ZNK19qtractorAudioEngine11metroOffsetEv
qtractor:_ZNK19qtractorAudioEngine11saveElementEP16qtractorDocumentP11QDomElement
qtractor:_ZNK19qtractorAudioEngine12bufferOffsetEv
qtractor:_ZNK19qtractorAudioEngine12exportLengthEv
qtractor:_ZNK19qtractorAudioEngine12exportOffsetEv
qtractor:_ZNK19qtractorAudioEngine12isPlayerOpenEv
qtractor:_ZNK19qtractorAudioEngine12isTimebaseExEv
qtractor:_ZNK19qtractorAudioEngine12metroBarGainEv
qtractor:_ZNK19qtractorAudioEngine12metro_offsetEm
qtractor:_ZNK19qtractorAudioEngine13jackFrameTimeEv
qtractor:_ZNK19qtractorAudioEngine13metroBeatGainEv
qtractor:_ZNK19qtractorAudioEngine13transportModeEv
qtractor:_ZNK19qtractorAudioEngine14isMetroEnabledEv
qtractor:_ZNK19qtractorAudioEngine16metroBarFilenameEv
qtractor:_ZNK19qtractorAudioEngine16transportLatencyEv
qtractor:_ZNK19qtractorAudioEngine17metroBeatFilenameEv
qtractor:_ZNK19qtractorAudioEngine18isMetroAutoConnectEv
qtractor:_ZNK19qtractorAudioEngine19isMasterAutoConnectEv
qtractor:_ZNK19qtractorAudioEngine19isPlayerAutoConnectEv
qtractor:_ZNK19qtractorAudioEngine5proxyEv
qtractor:_ZNK19qtractorAudioEngine9sessionIdEv
qtractor:_ZNK19qtractorClipCommand7isEmptyEv
qtractor:_ZNK19qtractorCommandList10metaObjectEv
qtractor:_ZNK19qtractorCommandList11lastCommandEv
qtractor:_ZNK19qtractorCommandList11nextCommandEv
qtractor:_ZNK19qtractorCommandList12updateActionEP7QActionP15qtractorCommand
qtractor:_ZNK19qtractorConnectForm10metaObjectEv
qtractor:_ZNK19qtractorConnections10metaObjectEv
qtractor:_ZNK19qtractorConnections11connectFormEv
qtractor:_ZNK19qtractorMidiConnect7alsaSeqEv
qtractor:_ZNK19qtractorMidiControl14sendControllerEN17qtractorMidiEvent9EventTypeEttt
qtractor:_ZNK19qtractorMidiControl16findMidiObserverEN17qtractorMidiEvent9EventTypeEtt
qtractor:_ZNK19qtractorMidiControl18sendAllControllersEi
qtractor:_ZNK19qtractorMidiControl19sendTrackControllerEN17qtractorMidiEvent9EventTypeEP13qtractorTrackNS_7CommandEtt
qtractor:_ZNK19qtractorMidiControl20isChannelParamMappedEN17qtractorMidiEvent9EventTypeEtt
qtractor:_ZNK19qtractorMidiControl20isMidiObserverMappedEP27qtractorMidiControlObserver
qtractor:_ZNK19qtractorOptionsForm10metaObjectEv
qtractor:_ZNK19qtractorOptionsForm18isDirtyMeterColorsEv
qtractor:_ZNK19qtractorOptionsForm24isDirtyCustomColorThemesEv
qtractor:_ZNK19qtractorOptionsForm7optionsEv
qtractor:_ZNK19qtractorPaletteForm10RoleEditor10metaObjectEv
qtractor:_ZNK19qtractorPaletteForm10RoleEditor6editedEv
qtractor:_ZNK19qtractorPaletteForm10defaultDirEv
qtractor:_ZNK19qtractorPaletteForm10metaObjectEv
qtractor:_ZNK19qtractorPaletteForm11ColorButton10metaObjectEv
qtractor:_ZNK19qtractorPaletteForm11ColorButton5brushEv
qtractor:_ZNK19qtractorPaletteForm11ColorEditor10metaObjectEv
qtractor:_ZNK19qtractorPaletteForm11ColorEditor5colorEv
qtractor:_ZNK19qtractorPaletteForm11ColorEditor7changedEv
qtractor:_ZNK19qtractorPaletteForm11paletteNameEv
qtractor:_ZNK19qtractorPaletteForm12PaletteModel10headerDataEiN2Qt11OrientationEi
qtractor:_ZNK19qtractorPaletteForm12PaletteModel10metaObjectEv
qtractor:_ZNK19qtractorPaletteForm12PaletteModel11columnCountERK11QModelIndex
qtractor:_ZNK19qtractorPaletteForm12PaletteModel13columnToGroupEi
qtractor:_ZNK19qtractorPaletteForm12PaletteModel13groupToColumnEN8QPalette10ColorGroupE
qtractor:_ZNK19qtractorPaletteForm12PaletteModel4dataERK11QModelIndexi
qtractor:_ZNK19qtractorPaletteForm12PaletteModel5flagsERK11QModelIndex
qtractor:_ZNK19qtractorPaletteForm12PaletteModel7paletteEv
qtractor:_ZNK19qtractorPaletteForm12PaletteModel8rowCountERK11QModelIndex
qtractor:_ZNK19qtractorPaletteForm13ColorDelegate12createEditorEP7QWidgetRK20QStyleOptionViewItemRK11QModelIndex
qtractor:_ZNK19qtractorPaletteForm13ColorDelegate12setModelDataEP7QWidgetP18QAbstractItemModelRK11QModelIndex
qtractor:_ZNK19qtractorPaletteForm13ColorDelegate13setEditorDataEP7QWidgetRK11QModelIndex
qtractor:_ZNK19qtractorPaletteForm13ColorDelegate20updateEditorGeometryEP7QWidgetRK20QStyleOptionViewItemRK11QModelIndex
qtractor:_ZNK19qtractorPaletteForm13ColorDelegate5paintEP8QPainterRK20QStyleOptionViewItemRK11QModelIndex
qtractor:_ZNK19qtractorPaletteForm13ColorDelegate8sizeHintERK20QStyleOptionViewItemRK11QModelIndex
qtractor:_ZNK19qtractorPaletteForm13isShowDetailsEv
qtractor:_ZNK19qtractorPaletteForm7isDirtyEv
qtractor:_ZNK19qtractorPaletteForm7paletteEv
qtractor:_ZNK19qtractorPaletteForm8settingsEv
qtractor:_ZNK19qtractorSessionForm10metaObjectEv
qtractor:_ZNK19qtractorTimeSpinBox10deltaValueEv
qtractor:_ZNK19qtractorTimeSpinBox10metaObjectEv
qtractor:_ZNK19qtractorTimeSpinBox11stepEnabledEv
qtractor:_ZNK19qtractorTimeSpinBox12isDeltaValueEv
qtractor:_ZNK19qtractorTimeSpinBox13displayFormatEv
qtractor:_ZNK19qtractorTimeSpinBox13textFromValueEm
qtractor:_ZNK19qtractorTimeSpinBox13valueFromTextERK7QString
qtractor:_ZNK19qtractorTimeSpinBox13valueFromTextEv
qtractor:_ZNK19qtractorTimeSpinBox5fixupER7QString
qtractor:_ZNK19qtractorTimeSpinBox5valueEv
qtractor:_ZNK19qtractorTimeSpinBox7maximumEv
qtractor:_ZNK19qtractorTimeSpinBox7minimumEv
qtractor:_ZNK19qtractorTimeSpinBox8validateER7QStringRi
qtractor:_ZNK19qtractorTimeSpinBox9timeScaleEv
qtractor:_ZNK19qtractorTrackButton10metaObjectEv
qtractor:_ZNK19qtractorTrackButton5trackEv
qtractor:_ZNK19qtractorTrackButton8toolTypeEv
qtractor:_ZNK20qtractorAudioConnect10jackClientEv
qtractor:_ZNK20qtractorAudioMadFile10sampleRateEv
qtractor:_ZNK20qtractorAudioMadFile4modeEv
qtractor:_ZNK20qtractorAudioMadFile6framesEv
qtractor:_ZNK20qtractorAudioMadFile8channelsEv
qtractor:_ZNK20qtractorAudioMadFile8readableEv
qtractor:_ZNK20qtractorAudioMadFile8writableEv
qtractor:_ZNK20qtractorAudioMonitor11value_stampEtm
qtractor:_ZNK20qtractorAudioMonitor8channelsEv
qtractor:_ZNK20qtractorAudioSndFile10sampleRateEv
qtractor:_ZNK20qtractorAudioSndFile4modeEv
qtractor:_ZNK20qtractorAudioSndFile6framesEv
qtractor:_ZNK20qtractorAudioSndFile8channelsEv
qtractor:_ZNK20qtractorFileListItem4pathEv
qtractor:_ZNK20qtractorFileListView10metaObjectEv
qtractor:_ZNK20qtractorFileListView11canDropItemEP15QTreeWidgetItem
qtractor:_ZNK20qtractorFileListView12findFileItemERK7QString
qtractor:_ZNK20qtractorFileListView13findGroupItemERK7QString
qtractor:_ZNK20qtractorFileListView15autoOpenTimeoutEv
qtractor:_ZNK20qtractorFileListView15currentFileItemEv
qtractor:_ZNK20qtractorFileListView16currentGroupItemEv
qtractor:_ZNK20qtractorFileListView8fileTypeEv
qtractor:_ZNK20qtractorFileListView8findItemERK7QStringi
qtractor:_ZNK20qtractorFileListView9groupItemEP15QTreeWidgetItem
qtractor:_ZNK20qtractorFileListView9recentDirEv
qtractor:_ZNK20qtractorLadspaPlugin13ladspa_handleEt
qtractor:_ZNK20qtractorLadspaPlugin17ladspa_descriptorEv
qtractor:_ZNK20qtractorLadspaPlugin5Param12isSampleRateEv
qtractor:_ZNK20qtractorLadspaPlugin5Param13isLogarithmicEv
qtractor:_ZNK20qtractorLadspaPlugin5Param14isBoundedAboveEv
qtractor:_ZNK20qtractorLadspaPlugin5Param14isBoundedBelowEv
qtractor:_ZNK20qtractorLadspaPlugin5Param14isDefaultValueEv
qtractor:_ZNK20qtractorLadspaPlugin5Param9isDisplayEv
qtractor:_ZNK20qtractorLadspaPlugin5Param9isIntegerEv
qtractor:_ZNK20qtractorLadspaPlugin5Param9isToggledEv
qtractor:_ZNK20qtractorMidiEditList10itemHeightEv
qtractor:_ZNK20qtractorMidiEditList10metaObjectEv
qtractor:_ZNK20qtractorMidiEditList6noteAtERK6QPoint
qtractor:_ZNK20qtractorMidiEditList8notePathEi
qtractor:_ZNK20qtractorMidiEditTime10metaObjectEv
qtractor:_ZNK20qtractorMidiEditTime11showToolTipERK5QRect
qtractor:_ZNK20qtractorMidiEditTime11showToolTipEm
qtractor:_ZNK20qtractorMidiEditView10metaObjectEv
qtractor:_ZNK20qtractorMidiEditView9eventTypeEv
qtractor:_ZNK20qtractorMidiFileItem7toolTipEv
qtractor:_ZNK20qtractorMidiListView10metaObjectEv
qtractor:_ZNK20qtractorMidiPortItem10alsaClientEv
qtractor:_ZNK20qtractorMidiPortItem8alsaPortEv
qtractor:_ZNK20qtractorMidiSyncItem10isWaitSyncEv
qtractor:_ZNK20qtractorPortListItem10clientItemEv
qtractor:_ZNK20qtractorPortListItem10clientNameEv
qtractor:_ZNK20qtractorPortListItem8connectsEv
qtractor:_ZNK20qtractorPortListItem8isHiliteEv
qtractor:_ZNK20qtractorPortListItem8portMarkEv
qtractor:_ZNK20qtractorPortListItem8portNameEv
qtractor:_ZNK20qtractorPortListItem8portTextEv
qtractor:_ZNK20qtractorPortListItemltERK15QTreeWidgetItem
qtractor:_ZNK20qtractorShortcutForm10metaObjectEv
qtractor:_ZNK20qtractorShortcutForm11tableWidgetEv
qtractor:_ZNK20qtractorShortcutForm13actionControlEv
qtractor:_ZNK20qtractorShortcutForm17actionControlTextEP7QAction
qtractor:_ZNK20qtractorShortcutForm20isDirtyActionControlEv
qtractor:_ZNK20qtractorShortcutForm22isDirtyActionShortcutsEv
qtractor:_ZNK20qtractorTempoSpinBox10metaObjectEv
qtractor:_ZNK20qtractorTempoSpinBox11beatDivisorEv
qtractor:_ZNK20qtractorTempoSpinBox11beatsPerBarEv
qtractor:_ZNK20qtractorTempoSpinBox11stepEnabledEv
qtractor:_ZNK20qtractorTempoSpinBox13tempoFromTextERK7QString
qtractor:_ZNK20qtractorTempoSpinBox13textFromValueEftt
qtractor:_ZNK20qtractorTempoSpinBox19beatDivisorFromTextERK7QString
qtractor:_ZNK20qtractorTempoSpinBox19beatsPerBarFromTextERK7QString
qtractor:_ZNK20qtractorTempoSpinBox5fixupER7QString
qtractor:_ZNK20qtractorTempoSpinBox5tempoEv
qtractor:_ZNK20qtractorTempoSpinBox8validateER7QStringRi
qtractor:_ZNK21qtractorActionControl10metaObjectEv
qtractor:_ZNK21qtractorAudioFileItem7toolTipEv
qtractor:_ZNK21qtractorAudioListView10metaObjectEv
qtractor:_ZNK21qtractorAudioPeakFile10isWaitSyncEv
qtractor:_ZNK21qtractorAudioPeakFile11timeStretchEv
qtractor:_ZNK21qtractorAudioPeakFile4nameEv
qtractor:_ZNK21qtractorAudioPeakFile8filenameEv
qtractor:_ZNK21qtractorAudioPeakFile8peakNameEv
qtractor:_ZNK21qtractorConnectorView10metaObjectEv
qtractor:_ZNK21qtractorConnectorView5itemYEP15QTreeWidgetItem
qtractor:_ZNK21qtractorConnectorView7bindingEv
qtractor:_ZNK21qtractorEditRangeForm10metaObjectEv
qtractor:_ZNK21qtractorEditRangeForm10rangeStartEv
qtractor:_ZNK21qtractorEditRangeForm12rangeOptionsEv
qtractor:_ZNK21qtractorEditRangeForm8isOptionENS_6OptionE
qtractor:_ZNK21qtractorEditRangeForm8rangeEndEv
qtractor:_ZNK21qtractorFileGroupItem4nameEv
qtractor:_ZNK21qtractorFileGroupItem6isOpenEv
qtractor:_ZNK21qtractorFileGroupItem7toolTipEv
qtractor:_ZNK21qtractorFileGroupItem8listViewEv
qtractor:_ZNK21qtractorFileGroupItem9groupItemEv
qtractor:_ZNK21qtractorLv2PluginType21lv2_ui_show_interfaceEP10LilvUIImpl
qtractor:_ZNK21qtractorMidiEditEvent10eventParamEv
qtractor:_ZNK21qtractorMidiEditEvent10metaObjectEv
qtractor:_ZNK21qtractorMidiEditEvent9eventTypeEv
qtractor:_ZNK21qtractorMidiEventList10metaObjectEv
qtractor:_ZNK21qtractorMidiEventList6editorEv
qtractor:_ZNK21qtractorMidiFileTempo10seekMarkerEm
qtractor:_ZNK21qtractorMidiFileTempo8seekNodeEm
qtractor:_ZNK21qtractorMidiSysexForm10metaObjectEv
qtractor:_ZNK21qtractorMidiSysexForm14saveSysexItemsERK5QListIP15QTreeWidgetItemERK7QString
qtractor:_ZNK21qtractorMidiSysexForm9sysexListEv
qtractor:_ZNK21qtractorMidiThumbView10metaObjectEv
qtractor:_ZNK21qtractorMidiToolsForm10metaObjectEv
qtractor:_ZNK21qtractorMidiToolsForm9toolIndexEv
qtractor:_ZNK21qtractorMonitorButton10metaObjectEv
qtractor:_ZNK21qtractorPluginFactory10metaObjectEv
qtractor:_ZNK21qtractorPluginFactory7Scanner10metaObjectEv
qtractor:_ZNK21qtractorPluginFactory7Scanner13cacheFilePathEv
qtractor:_ZNK21qtractorSessionCursor11frameTimeExEv
qtractor:_ZNK21qtractorSessionCursor4clipEj
qtractor:_ZNK21qtractorSessionCursor5frameEv
qtractor:_ZNK21qtractorSessionCursor7sessionEv
qtractor:_ZNK21qtractorSessionCursor8seekClipEP13qtractorTrackP12qtractorClipm
qtractor:_ZNK21qtractorSessionCursor8syncTypeEv
qtractor:_ZNK21qtractorSessionCursor9frameTimeEv
qtractor:_ZNK21qtractorTakeRangeForm10metaObjectEv
qtractor:_ZNK21qtractorTakeRangeForm11currentTakeEv
qtractor:_ZNK21qtractorTakeRangeForm4clipEv
qtractor:_ZNK21qtractorTakeRangeForm7takeEndEv
qtractor:_ZNK21qtractorTakeRangeForm9takeStartEv
qtractor:_ZNK21qtractorTimeScaleForm10metaObjectEv
qtractor:_ZNK21qtractorTimeScaleForm3barEv
qtractor:_ZNK21qtractorTimeScaleForm5flagsEv
qtractor:_ZNK21qtractorTimeScaleForm5frameEv
qtractor:_ZNK21qtractorTimeScaleForm9timeScaleEv
qtractor:_ZNK21qtractorTimeStretcher9availableEv
qtractor:_ZNK21qtractorVstPluginType12vst_dispatchElllPvf
qtractor:_ZNK21qtractorVstPluginType6Effect12vst_dispatchElllPvf
qtractor:_ZNK21qtractorVstPluginType9vst_canDoEPKc
qtractor:_ZNK22qtractorClientListItem10clientMarkEv
qtractor:_ZNK22qtractorClientListItem10clientNameEv
qtractor:_ZNK22qtractorClientListItem10clientTextEv
qtractor:_ZNK22qtractorClientListItem10isReadableEv
qtractor:_ZNK22qtractorClientListItem6isOpenEv
qtractor:_ZNK22qtractorClientListItem8isHiliteEv
qtractor:_ZNK22qtractorClientListItemltERK15QTreeWidgetItem
qtractor:_ZNK22qtractorClientListView10clientNameEv
qtractor:_ZNK22qtractorClientListView10isReadableEv
qtractor:_ZNK22qtractorClientListView10metaObjectEv
qtractor:_ZNK22qtractorClientListView11clientNamesEv
qtractor:_ZNK22qtractorClientListView15autoOpenTimeoutEv
qtractor:_ZNK22qtractorClientListView7bindingEv
qtractor:_ZNK22qtractorClientListView8portNameEv
qtractor:_ZNK22qtractorCurveListProxy10metaObjectEv
qtractor:_ZNK22qtractorExportClipForm10exportPathEv
qtractor:_ZNK22qtractorExportClipForm10metaObjectEv
qtractor:_ZNK22qtractorExportClipForm13windowTitleExERK7QStringS2_
qtractor:_ZNK22qtractorInstrumentForm10metaObjectEv
qtractor:_ZNK22qtractorInstrumentForm11instrumentsEv
qtractor:_ZNK22qtractorInstrumentForm13bankSelMethodEi
qtractor:_ZNK22qtractorInstrumentList12saveDataListER11QTextStreamRK26qtractorInstrumentDataList
qtractor:_ZNK22qtractorInstrumentList4saveERK7QString
qtractor:_ZNK22qtractorInstrumentList5filesEv
qtractor:_ZNK22qtractorInstrumentList8saveDataER11QTextStreamRK22qtractorInstrumentData
qtractor:_ZNK22qtractorInstrumentMenu10metaObjectEv
qtractor:_ZNK22qtractorInstrumentMenu11bankMenuAddEP5QMenuRK5QIconP19qtractorMidiManagerRK7QStringi
qtractor:_ZNK22qtractorInstrumentMenu11progMenuAddEP5QMenuRK5QIconP19qtractorMidiManagerRK7QStringii
qtractor:_ZNK22qtractorInstrumentMenu12trackMenuAddEP5QMenuRK5QIconP19qtractorMidiManagerRK7QString
qtractor:_ZNK22qtractorInstrumentMenu13bankMenuResetEP5QMenu
qtractor:_ZNK22qtractorInstrumentMenu13progMenuResetEP5QMenu
qtractor:_ZNK22qtractorInstrumentMenu14trackMenuResetEP5QMenu
qtractor:_ZNK22qtractorMidiClientItem10alsaClientEv
qtractor:_ZNK22qtractorMidiComboMeter10audioMeterEv
qtractor:_ZNK22qtractorMidiComboMeter10metaObjectEv
qtractor:_ZNK22qtractorMidiComboMeter11midiMonitorEv
qtractor:_ZNK22qtractorMidiComboMeter18audioOutputMonitorEv
qtractor:_ZNK22qtractorMidiComboMeter7monitorEv
qtractor:_ZNK22qtractorMidiComboMeter9midiMeterEv
qtractor:_ZNK22qtractorMidiEditorForm10metaObjectEv
qtractor:_ZNK22qtractorMidiEditorForm10timeOffsetEv
qtractor:_ZNK22qtractorMidiEditorForm12trackChannelEv
qtractor:_ZNK22qtractorMidiEditorForm6editorEv
qtractor:_ZNK22qtractorMidiEditorForm6formatEv
qtractor:_ZNK22qtractorMidiEditorForm8editMenuEv
qtractor:_ZNK22qtractorMidiEditorForm8filenameEv
qtractor:_ZNK22qtractorMidiEditorForm8midiClipEv
qtractor:_ZNK22qtractorMidiEditorForm8sequenceEv
qtractor:_ZNK22qtractorMidiEditorForm9timeScaleEv
qtractor:_ZNK22qtractorMidiMixerMeter10metaObjectEv
qtractor:_ZNK22qtractorMidiMixerMeter11midiMonitorEv
qtractor:_ZNK22qtractorMidiMixerMeter18audioOutputMonitorEv
qtractor:_ZNK22qtractorMidiMixerMeter7monitorEv
qtractor:_ZNK22qtractorMidiSyncThread8runStateEv
qtractor:_ZNK22qtractorObserverSlider10metaObjectEv
qtractor:_ZNK22qtractorPluginListItem6pluginEv
qtractor:_ZNK22qtractorPluginListView10metaObjectEv
qtractor:_ZNK22qtractorPluginListView10pluginListEv
qtractor:_ZNK22qtractorPluginListView8sizeHintEv
qtractor:_ZNK23qtractorAudioMixerMeter10metaObjectEv
qtractor:_ZNK23qtractorAudioMixerMeter12audioMonitorEv
qtractor:_ZNK23qtractorAudioMixerMeter7monitorEv
qtractor:_ZNK23qtractorAudioPeakThread15notifyPeakEventEv
qtractor:_ZNK23qtractorAudioPeakThread8runStateEv
qtractor:_ZNK23qtractorAudioVorbisFile10sampleRateEv
qtractor:_ZNK23qtractorAudioVorbisFile4modeEv
qtractor:_ZNK23qtractorAudioVorbisFile6framesEv
qtractor:_ZNK23qtractorAudioVorbisFile8channelsEv
qtractor:_ZNK23qtractorClipToolCommand16isLinkedMidiClipEP16qtractorMidiClip
qtractor:_ZNK23qtractorClipToolCommand7isEmptyEv
qtractor:_ZNK23qtractorExportTrackForm10metaObjectEv
qtractor:_ZNK23qtractorExportTrackForm13windowTitleExERK7QStringS2_
qtractor:_ZNK23qtractorFileChannelItem4pathEv
qtractor:_ZNK23qtractorFileChannelItem7channelEv
qtractor:_ZNK23qtractorLv2WorkerThread8runStateEv
qtractor:_ZNK23qtractorMidiChannelItem7toolTipEv
qtractor:_ZNK23qtractorMidiControlForm10metaObjectEv
qtractor:_ZNK23qtractorMidiControlForm13paramFromTextEN17qtractorMidiEvent9EventTypeERK7QString
qtractor:_ZNK23qtractorMidiControlForm13textFromParamEN17qtractorMidiEvent9EventTypeEt
qtractor:_ZNK23qtractorMidiControlForm15channelFromTextERK7QString
qtractor:_ZNK23qtractorMidiControlForm15textFromChannelEt
qtractor:_ZNK23qtractorMidiEditCommand9findEventEP17qtractorMidiEventNS_11CommandTypeE
qtractor:_ZNK23qtractorMidiEngineProxy10metaObjectEv
qtractor:_ZNK23qtractorMidiInputThread8runStateEv
qtractor:_ZNK23qtractorMixerRackWidget10metaObjectEv
qtractor:_ZNK23qtractorObserverSpinBox10metaObjectEv
qtractor:_ZNK23qtractorPasteRepeatForm10metaObjectEv
qtractor:_ZNK23qtractorPasteRepeatForm11repeatCountEv
qtractor:_ZNK23qtractorPasteRepeatForm12repeatPeriodEv
qtractor:_ZNK23qtractorTempoAdjustForm10metaObjectEv
qtractor:_ZNK23qtractorTempoAdjustForm10rangeBeatsEv
qtractor:_ZNK23qtractorTempoAdjustForm10rangeStartEv
qtractor:_ZNK23qtractorTempoAdjustForm11beatDivisorEv
qtractor:_ZNK23qtractorTempoAdjustForm11beatsPerBarEv
qtractor:_ZNK23qtractorTempoAdjustForm11rangeLengthEv
qtractor:_ZNK23qtractorTempoAdjustForm4clipEv
qtractor:_ZNK23qtractorTempoAdjustForm5tempoEv
qtractor:_ZNK23qtractorTempoAdjustForm9audioClipEv
qtractor:_ZNK23qtractorTempoAdjustForm9timeScaleEv
qtractor:_ZNK24qtractorAudioEngineProxy10metaObjectEv
qtractor:_ZNK24qtractorAudioPeakFactory10metaObjectEv
qtractor:_ZNK24qtractorAudioPeakFactory10peakPeriodEv
qtractor:_ZNK24qtractorAudioPeakFactory12isAutoRemoveEv
qtractor:_ZNK24qtractorCopyTrackCommand10cloneCurveEP17qtractorCurveListP15qtractorSubjectP13qtractorCurve
qtractor:_ZNK24qtractorCurveEditCommand7isEmptyEv
qtractor:_ZNK24qtractorMidiInsertPlugin7midiBusEv
qtractor:_ZNK24qtractorMidiOutputThread8runStateEv
qtractor:_ZNK24qtractorMidiOutputThread9readAheadEv
qtractor:_ZNK24qtractorMidiPlayerThread8runStateEv
qtractor:_ZNK24qtractorObserverCheckBox10metaObjectEv
qtractor:_ZNK24qtractorPluginSelectForm10metaObjectEv
qtractor:_ZNK24qtractorPluginSelectForm10pluginListEv
qtractor:_ZNK24qtractorPluginSelectForm11pluginCountEv
qtractor:_ZNK24qtractorPluginSelectForm11pluginIndexEi
qtractor:_ZNK24qtractorPluginSelectForm14pluginFilenameEi
qtractor:_ZNK24qtractorPluginSelectForm14pluginTypeHintEi
qtractor:_ZNK24qtractorPluginSelectForm17isPluginActivatedEv
qtractor:_ZNK25qtractorAudioBufferThread8runStateEv
qtractor:_ZNK25qtractorAudioInsertPlugin8audioBusEv
qtractor:_ZNK25qtractorMidiAuxSendPlugin11midiBusNameEv
qtractor:_ZNK25qtractorMidiAuxSendPlugin17updateMidiBusNameEv
qtractor:_ZNK25qtractorMidiControlButton10metaObjectEv
qtractor:_ZNK25qtractorMidiEventListView10metaObjectEv
qtractor:_ZNK25qtractorMidiEventListView12eventOfIndexERK11QModelIndex
qtractor:_ZNK25qtractorMidiEventListView12indexOfEventEP17qtractorMidiEvent
qtractor:_ZNK25qtractorMidiEventListView13indexFromTickEm
qtractor:_ZNK25qtractorMidiEventListView13tickFromIndexERK11QModelIndex
qtractor:_ZNK25qtractorMidiEventListView14frameFromIndexERK11QModelIndex
qtractor:_ZNK25qtractorMidiEventListView14indexFromFrameEm
qtractor:_ZNK25qtractorMidiEventListView6editorEv
qtractor:_ZNK25qtractorPluginParamWidget10metaObjectEv
qtractor:_ZNK25qtractorPluginParamWidget8propertyEv
qtractor:_ZNK26qtractorAudioAuxSendPlugin12audioBusNameEv
qtractor:_ZNK26qtractorAudioAuxSendPlugin18updateAudioBusNameEv
qtractor:_ZNK26qtractorMidiClientListView7alsaSeqEv
qtractor:_ZNK26qtractorMidiEditEventScale10metaObjectEv
qtractor:_ZNK26qtractorMidiEventListModel10headerDataEiN2Qt11OrientationEi
qtractor:_ZNK26qtractorMidiEventListModel10metaObjectEv
qtractor:_ZNK26qtractorMidiEventListModel11columnCountERK11QModelIndex
qtractor:_ZNK26qtractorMidiEventListModel11itemDisplayERK11QModelIndex
qtractor:_ZNK26qtractorMidiEventListModel11itemToolTipERK11QModelIndex
qtractor:_ZNK26qtractorMidiEventListModel12eventOfIndexERK11QModelIndex
qtractor:_ZNK26qtractorMidiEventListModel12indexOfEventEP17qtractorMidiEvent
qtractor:_ZNK26qtractorMidiEventListModel13indexFromTickEm
qtractor:_ZNK26qtractorMidiEventListModel13tickFromIndexERK11QModelIndex
qtractor:_ZNK26qtractorMidiEventListModel14frameFromIndexERK11QModelIndex
qtractor:_ZNK26qtractorMidiEventListModel14indexFromFrameEm
qtractor:_ZNK26qtractorMidiEventListModel15columnAlignmentEi
qtractor:_ZNK26qtractorMidiEventListModel4dataERK11QModelIndexi
qtractor:_ZNK26qtractorMidiEventListModel5flagsERK11QModelIndex
qtractor:_ZNK26qtractorMidiEventListModel5indexEiiRK11QModelIndex
qtractor:_ZNK26qtractorMidiEventListModel6editorEv
qtractor:_ZNK26qtractorMidiEventListModel6parentERK11QModelIndex
qtractor:_ZNK26qtractorMidiEventListModel7eventAtEi
qtractor:_ZNK26qtractorMidiEventListModel8rowCountERK11QModelIndex
qtractor:_ZNK26qtractorWsolaTimeStretcher10FifoBuffer10readFramesEPPfjj
qtractor:_ZNK26qtractorWsolaTimeStretcher11isQuickSeekEv
qtractor:_ZNK26qtractorWsolaTimeStretcher5tempoEv
qtractor:_ZNK26qtractorWsolaTimeStretcher6framesEv
qtractor:_ZNK26qtractorWsolaTimeStretcher8channelsEv
qtractor:_ZNK27qtractorAudioClientListView10jackClientEv
qtractor:_ZNK27qtractorMidiControlObserver14scaleFromValueEfb
qtractor:_ZNK27qtractorMidiControlObserver14valueFromScaleEfb
qtractor:_ZNK27qtractorMidiControlObserver9midiScaleEv
qtractor:_ZNK27qtractorMidiControlObserver9midiValueEv
qtractor:_ZNK28qtractorCurveClearAllCommand7isEmptyEv
qtractor:_ZNK28qtractorCurveEditListCommand7isEmptyEv
qtractor:_ZNK28qtractorMidiControlTypeGroup10metaObjectEv
qtractor:_ZNK28qtractorMidiControlTypeGroup11controlTypeEv
qtractor:_ZNK28qtractorMidiControlTypeGroup12controlParamEv
qtractor:_ZNK28qtractorMidiControlTypeGroup20controlTypeFromIndexEi
qtractor:_ZNK28qtractorMidiControlTypeGroup20indexFromControlTypeEN17qtractorMidiEvent9EventTypeE
qtractor:_ZNK28qtractorMidiControlTypeGroup21controlParamFromIndexEi
qtractor:_ZNK28qtractorMidiControlTypeGroup21indexFromControlParamEt
qtractor:_ZNK29qtractorAudioFileTypeComboBox10currentExtEPKv
qtractor:_ZNK29qtractorAudioFileTypeComboBox11currentTypeEPKv
qtractor:_ZNK29qtractorAudioFileTypeComboBox13currentHandleEv
qtractor:_ZNK29qtractorAudioFileTypeComboBox7indexOfERK7QStringi
qtractor:_ZNK29qtractorAudioFileTypeComboBox8handleOfEi
qtractor:_ZNK29qtractorMidiEventItemDelegate10metaObjectEv
qtractor:_ZNK29qtractorMidiEventItemDelegate12createEditorEP7QWidgetRK20QStyleOptionViewItemRK11QModelIndex
qtractor:_ZNK29qtractorMidiEventItemDelegate12setModelDataEP7QWidgetP18QAbstractItemModelRK11QModelIndex
qtractor:_ZNK29qtractorMidiEventItemDelegate13setEditorDataEP7QWidgetRK11QModelIndex
qtractor:_ZNK29qtractorMidiEventItemDelegate5paintEP8QPainterRK20QStyleOptionViewItemRK11QModelIndex
qtractor:_ZNK29qtractorMidiEventItemDelegate8sizeHintERK20QStyleOptionViewItemRK11QModelIndex
qtractor:_ZNK29qtractorShortcutTableItemEdit10metaObjectEv
qtractor:_ZNK31qtractorCurveCaptureListCommand7isEmptyEv
qtractor:_ZNK31qtractorMidiControlObserverForm10metaObjectEv
qtractor:_ZNK31qtractorMidiControlObserverForm12midiObserverEv
qtractor:_ZNK31qtractorMidiControlObserverForm18midiObserverActionEv
qtractor:_ZNK31qtractorShortcutTableItemEditor10metaObjectEv
qtractor:_ZNK31qtractorShortcutTableItemEditor11defaultTextEv
qtractor:_ZNK31qtractorShortcutTableItemEditor4textEv
qtractor:_ZNK32qtractorPluginParamValuesCommand7isEmptyEv
qtractor:_ZNK33qtractorShortcutTableItemDelegate10metaObjectEv
qtractor:_ZNK33qtractorShortcutTableItemDelegate12createEditorEP7QWidgetRK20QStyleOptionViewItemRK11QModelIndex
qtractor:_ZNK33qtractorShortcutTableItemDelegate12setModelDataEP7QWidgetP18QAbstractItemModelRK11QModelIndex
qtractor:_ZNK33qtractorShortcutTableItemDelegate13setEditorDataEP7QWidgetRK11QModelIndex
qtractor:_ZNK33qtractorShortcutTableItemDelegate5paintEP8QPainterRK20QStyleOptionViewItemRK11QModelIndex
qtractor:_ZNK33qtractorShortcutTableItemDelegate8sizeHintERK20QStyleOptionViewItemRK11QModelIndex
qtractor:_ZNK34qtractorMidiControlObserverCommand15mapMidiObserverEv
qtractor:_ZNK34qtractorMidiControlObserverCommand17unmapMidiObserverEv
qtractor:_ZThn16_N13qtractorFilesD0Ev
qtractor:_ZThn16_N13qtractorFilesD1Ev
qtractor:_ZThn16_N13qtractorMeterD0Ev
qtractor:_ZThn16_N13qtractorMeterD1Ev
qtractor:_ZThn16_N13qtractorMixerD0Ev
qtractor:_ZThn16_N13qtractorMixerD1Ev
qtractor:_ZThn16_N14qtractorTracksD0Ev
qtractor:_ZThn16_N14qtractorTracksD1Ev
qtractor:_ZThn16_N16qtractorClipFormD0Ev
qtractor:_ZThn16_N16qtractorClipFormD1Ev
qtractor:_ZThn16_N16qtractorMainFormD0Ev
qtractor:_ZThn16_N16qtractorMainFormD1Ev
qtractor:_ZThn16_N16qtractorMessagesD0Ev
qtractor:_ZThn16_N16qtractorMessagesD1Ev
qtractor:_ZThn16_N17qtractorMidiMeterD0Ev
qtractor:_ZThn16_N17qtractorMidiMeterD1Ev
qtractor:_ZThn16_N17qtractorMixerRackD0Ev
qtractor:_ZThn16_N17qtractorMixerRackD1Ev
qtractor:_ZThn16_N17qtractorTrackFormD0Ev
qtractor:_ZThn16_N17qtractorTrackFormD1Ev
qtractor:_ZThn16_N17qtractorTrackListD0Ev
qtractor:_ZThn16_N17qtractorTrackListD1Ev
qtractor:_ZThn16_N17qtractorTrackViewD0Ev
qtractor:_ZThn16_N17qtractorTrackViewD1Ev
qtractor:_ZThn16_N18qtractorAudioMeterD0Ev
qtractor:_ZThn16_N18qtractorAudioMeterD1Ev
qtractor:_ZThn16_N18qtractorExportFormD0Ev
qtractor:_ZThn16_N18qtractorExportFormD1Ev
qtractor:_ZThn16_N18qtractorFileSystemD0Ev
qtractor:_ZThn16_N18qtractorFileSystemD1Ev
qtractor:_ZThn16_N18qtractorMeterValueD0Ev
qtractor:_ZThn16_N18qtractorMeterValueD1Ev
qtractor:_ZThn16_N18qtractorMidiEditorD0Ev
qtractor:_ZThn16_N18qtractorMidiEditorD1Ev
qtractor:_ZThn16_N18qtractorMixerMeterD0Ev
qtractor:_ZThn16_N18qtractorMixerMeterD1Ev
qtractor:_ZThn16_N18qtractorMixerStripD0Ev
qtractor:_ZThn16_N18qtractorMixerStripD1Ev
qtractor:_ZThn16_N18qtractorPluginFormD0Ev
qtractor:_ZThn16_N18qtractorPluginFormD1Ev
qtractor:_ZThn16_N18qtractorRubberBandD0Ev
qtractor:_ZThn16_N18qtractorRubberBandD1Ev
qtractor:_ZThn16_N18qtractorScrollViewD0Ev
qtractor:_ZThn16_N18qtractorScrollViewD1Ev
qtractor:_ZThn16_N19qtractorConnectFormD0Ev
qtractor:_ZThn16_N19qtractorConnectFormD1Ev
qtractor:_ZThn16_N19qtractorConnectionsD0Ev
qtractor:_ZThn16_N19qtractorConnectionsD1Ev
qtractor:_ZThn16_N19qtractorOptionsFormD0Ev
qtractor:_ZThn16_N19qtractorOptionsFormD1Ev
qtractor:_ZThn16_N19qtractorPaletteFormD0Ev
qtractor:_ZThn16_N19qtractorPaletteFormD1Ev
qtractor:_ZThn16_N19qtractorSessionFormD0Ev
qtractor:_ZThn16_N19qtractorSessionFormD1Ev
qtractor:_ZThn16_N20qtractorFileListViewD0Ev
qtractor:_ZThn16_N20qtractorFileListViewD1Ev
qtractor:_ZThn16_N20qtractorMidiEditListD0Ev
qtractor:_ZThn16_N20qtractorMidiEditListD1Ev
qtractor:_ZThn16_N20qtractorMidiEditViewD0Ev
qtractor:_ZThn16_N20qtractorMidiEditViewD1Ev
qtractor:_ZThn16_N20qtractorMidiMeterLedD0Ev
qtractor:_ZThn16_N20qtractorMidiMeterLedD1Ev
qtractor:_ZThn16_N20qtractorShortcutFormD0Ev
qtractor:_ZThn16_N20qtractorShortcutFormD1Ev
qtractor:_ZThn16_N21qtractorConnectorViewD0Ev
qtractor:_ZThn16_N21qtractorConnectorViewD1Ev
qtractor:_ZThn16_N21qtractorEditRangeFormD0Ev
qtractor:_ZThn16_N21qtractorEditRangeFormD1Ev
qtractor:_ZThn16_N21qtractorMidiEditEventD0Ev
qtractor:_ZThn16_N21qtractorMidiEditEventD1Ev
qtractor:_ZThn16_N21qtractorMidiEventListD0Ev
qtractor:_ZThn16_N21qtractorMidiEventListD1Ev
qtractor:_ZThn16_N21qtractorMidiSysexFormD0Ev
qtractor:_ZThn16_N21qtractorMidiSysexFormD1Ev
qtractor:_ZThn16_N21qtractorMidiToolsFormD0Ev
qtractor:_ZThn16_N21qtractorMidiToolsFormD1Ev
qtractor:_ZThn16_N21qtractorTakeRangeFormD0Ev
qtractor:_ZThn16_N21qtractorTakeRangeFormD1Ev
qtractor:_ZThn16_N22qtractorClientListViewD0Ev
qtractor:_ZThn16_N22qtractorClientListViewD1Ev
qtractor:_ZThn16_N22qtractorExportClipFormD0Ev
qtractor:_ZThn16_N22qtractorExportClipFormD1Ev
qtractor:_ZThn16_N22qtractorInstrumentFormD0Ev
qtractor:_ZThn16_N22qtractorInstrumentFormD1Ev
qtractor:_ZThn16_N22qtractorMidiComboMeterD0Ev
qtractor:_ZThn16_N22qtractorMidiComboMeterD1Ev
qtractor:_ZThn16_N22qtractorMidiEditorFormD0Ev
qtractor:_ZThn16_N22qtractorMidiEditorFormD1Ev
qtractor:_ZThn16_N22qtractorMidiMixerMeterD0Ev
qtractor:_ZThn16_N22qtractorMidiMixerMeterD1Ev
qtractor:_ZThn16_N22qtractorPluginListViewD0Ev
qtractor:_ZThn16_N22qtractorPluginListViewD1Ev
qtractor:_ZThn16_N23qtractorAudioMixerMeterD0Ev
qtractor:_ZThn16_N23qtractorAudioMixerMeterD1Ev
qtractor:_ZThn16_N23qtractorExportTrackFormD0Ev
qtractor:_ZThn16_N23qtractorExportTrackFormD1Ev
qtractor:_ZThn16_N23qtractorMidiControlFormD0Ev
qtractor:_ZThn16_N23qtractorMidiControlFormD1Ev
qtractor:_ZThn16_N23qtractorMixerRackWidgetD0Ev
qtractor:_ZThn16_N23qtractorMixerRackWidgetD1Ev
qtractor:_ZThn16_N23qtractorPasteRepeatFormD0Ev
qtractor:_ZThn16_N23qtractorPasteRepeatFormD1Ev
qtractor:_ZThn16_N23qtractorTempoAdjustFormD0Ev
qtractor:_ZThn16_N23qtractorTempoAdjustFormD1Ev
qtractor:_ZThn16_N24qtractorPluginSelectFormD0Ev
qtractor:_ZThn16_N24qtractorPluginSelectFormD1Ev
qtractor:_ZThn16_N25qtractorMidiEventListViewD0Ev
qtractor:_ZThn16_N25qtractorMidiEventListViewD1Ev
qtractor:_ZThn16_N26qtractorMidiClientListViewD0Ev
qtractor:_ZThn16_N26qtractorMidiClientListViewD1Ev
qtractor:_ZThn16_N26qtractorMidiEditEventScaleD0Ev
qtractor:_ZThn16_N26qtractorMidiEditEventScaleD1Ev
qtractor:_ZThn16_N27qtractorAudioClientListViewD0Ev
qtractor:_ZThn16_N27qtractorAudioClientListViewD1Ev
qtractor:_ZThn16_N31qtractorMidiControlObserverFormD0Ev
qtractor:_ZThn16_N31qtractorMidiControlObserverFormD1Ev
qtractor:__bss_start
qtractor:__data_start
qtractor:_edata
qtractor:_end
qtractor:_start
qtractor:main
qtractor_plugin_scan:_IO_stdin_used
qtractor_plugin_scan:_ZN17qtractor_vst_scan15open_descriptorEm
qtractor_plugin_scan:_ZN17qtractor_vst_scan16close_descriptorEv
qtractor_plugin_scan:_ZN17qtractor_vst_scan4openERK7QString
qtractor_plugin_scan:_ZN17qtractor_vst_scan5closeEv
qtractor_plugin_scan:_ZN17qtractor_vst_scanC1Ev
qtractor_plugin_scan:_ZN17qtractor_vst_scanC2Ev
qtractor_plugin_scan:_ZN17qtractor_vst_scanD1Ev
qtractor_plugin_scan:_ZN17qtractor_vst_scanD2Ev
qtractor_plugin_scan:_ZN20qtractor_ladspa_scan15open_descriptorEm
qtractor_plugin_scan:_ZN20qtractor_ladspa_scan16close_descriptorEv
qtractor_plugin_scan:_ZN20qtractor_ladspa_scan4openERK7QString
qtractor_plugin_scan:_ZN20qtractor_ladspa_scan5closeEv
qtractor_plugin_scan:_ZN20qtractor_ladspa_scanC1Ev
qtractor_plugin_scan:_ZN20qtractor_ladspa_scanC2Ev
qtractor_plugin_scan:_ZN20qtractor_ladspa_scanD1Ev
qtractor_plugin_scan:_ZN20qtractor_ladspa_scanD2Ev
qtractor_plugin_scan:_ZNK17qtractor_vst_scan10numOutputsEv
qtractor_plugin_scan:_ZNK17qtractor_vst_scan11numProgramsEv
qtractor_plugin_scan:_ZNK17qtractor_vst_scan12vst_dispatchElllPvf
qtractor_plugin_scan:_ZNK17qtractor_vst_scan13numMidiInputsEv
qtractor_plugin_scan:_ZNK17qtractor_vst_scan14numMidiOutputsEv
qtractor_plugin_scan:_ZNK17qtractor_vst_scan16hasProgramChunksEv
qtractor_plugin_scan:_ZNK17qtractor_vst_scan5canDoEPKc
qtractor_plugin_scan:_ZNK17qtractor_vst_scan6isOpenEv
qtractor_plugin_scan:_ZNK17qtractor_vst_scan8uniqueIDEv
qtractor_plugin_scan:_ZNK17qtractor_vst_scan9hasEditorEv
qtractor_plugin_scan:_ZNK17qtractor_vst_scan9numInputsEv
qtractor_plugin_scan:_ZNK17qtractor_vst_scan9numParamsEv
qtractor_plugin_scan:_ZNK20qtractor_ladspa_scan10isRealtimeEv
qtractor_plugin_scan:_ZNK20qtractor_ladspa_scan6isOpenEv
qtractor_plugin_scan:_ZNK20qtractor_ladspa_scan8uniqueIDEv
qtractor_plugin_scan:__bss_start
qtractor_plugin_scan:__data_start
qtractor_plugin_scan:_edata
qtractor_plugin_scan:_end
qtractor_plugin_scan:_start
qtractor_plugin_scan:main
