kcm_powerdevilprofilesconfig.so:qt_plugin_instance
kcm_powerdevilprofilesconfig.so:qt_plugin_query_metadata_v2
libpowerdevilconfigcommonprivate.so.6:_ZN14SleepModeModel11qt_metacallEN11QMetaObject4CallEiPPv
libpowerdevilconfigcommonprivate.so.6:_ZN14SleepModeModel11qt_metacastEPKc
libpowerdevilconfigcommonprivate.so.6:_ZN14SleepModeModel16staticMetaObjectE
libpowerdevilconfigcommonprivate.so.6:_ZN14SleepModeModelC1EP7QObjectPN10PowerDevil15PowerManagementE
libpowerdevilconfigcommonprivate.so.6:_ZN14SleepModeModelC2EP7QObjectPN10PowerDevil15PowerManagementE
libpowerdevilconfigcommonprivate.so.6:_ZN17PowerProfileModel11qt_metacallEN11QMetaObject4CallEiPPv
libpowerdevilconfigcommonprivate.so.6:_ZN17PowerProfileModel11qt_metacastEPKc
libpowerdevilconfigcommonprivate.so.6:_ZN17PowerProfileModel16staticMetaObjectE
libpowerdevilconfigcommonprivate.so.6:_ZN17PowerProfileModelC1EP7QObject
libpowerdevilconfigcommonprivate.so.6:_ZN17PowerProfileModelC2EP7QObject
libpowerdevilconfigcommonprivate.so.6:_ZN22PowerButtonActionModel11qt_metacallEN11QMetaObject4CallEiPPv
libpowerdevilconfigcommonprivate.so.6:_ZN22PowerButtonActionModel11qt_metacastEPKc
libpowerdevilconfigcommonprivate.so.6:_ZN22PowerButtonActionModel12appendActionEN10PowerDevil17PowerButtonActionEPNS0_15PowerManagementE
libpowerdevilconfigcommonprivate.so.6:_ZN22PowerButtonActionModel16staticMetaObjectE
libpowerdevilconfigcommonprivate.so.6:_ZN22PowerButtonActionModelC1EP7QObjectPN10PowerDevil15PowerManagementESt16initializer_listINS2_17PowerButtonActionEE
libpowerdevilconfigcommonprivate.so.6:_ZN22PowerButtonActionModelC2EP7QObjectPN10PowerDevil15PowerManagementESt16initializer_listINS2_17PowerButtonActionEE
libpowerdevilconfigcommonprivate.so.6:_ZNK14SleepModeModel10metaObjectEv
libpowerdevilconfigcommonprivate.so.6:_ZNK14SleepModeModel4dataERK11QModelIndexi
libpowerdevilconfigcommonprivate.so.6:_ZNK14SleepModeModel8rowCountERK11QModelIndex
libpowerdevilconfigcommonprivate.so.6:_ZNK14SleepModeModel9roleNamesEv
libpowerdevilconfigcommonprivate.so.6:_ZNK17PowerProfileModel10metaObjectEv
libpowerdevilconfigcommonprivate.so.6:_ZNK17PowerProfileModel4dataERK11QModelIndexi
libpowerdevilconfigcommonprivate.so.6:_ZNK17PowerProfileModel8rowCountERK11QModelIndex
libpowerdevilconfigcommonprivate.so.6:_ZNK17PowerProfileModel9roleNamesEv
libpowerdevilconfigcommonprivate.so.6:_ZNK22PowerButtonActionModel10metaObjectEv
libpowerdevilconfigcommonprivate.so.6:_ZNK22PowerButtonActionModel4dataERK11QModelIndexi
libpowerdevilconfigcommonprivate.so.6:_ZNK22PowerButtonActionModel8rowCountERK11QModelIndex
libpowerdevilconfigcommonprivate.so.6:_ZNK22PowerButtonActionModel9roleNamesEv
libpowerdevilconfigcommonprivate.so.6:_ZTI14SleepModeModel
libpowerdevilconfigcommonprivate.so.6:_ZTI17PowerProfileModel
libpowerdevilconfigcommonprivate.so.6:_ZTI22PowerButtonActionModel
libpowerdevilconfigcommonprivate.so.6:_ZTS14SleepModeModel
libpowerdevilconfigcommonprivate.so.6:_ZTS17PowerProfileModel
libpowerdevilconfigcommonprivate.so.6:_ZTS22PowerButtonActionModel
libpowerdevilconfigcommonprivate.so.6:_ZTV14SleepModeModel
libpowerdevilconfigcommonprivate.so.6:_ZTV17PowerProfileModel
libpowerdevilconfigcommonprivate.so.6:_ZTV22PowerButtonActionModel
libpowerdevilcore.so.2:_ZN10PowerDevil11PolicyAgent11qt_metacallEN11QMetaObject4CallEiPPv
libpowerdevilcore.so.2:_ZN10PowerDevil11PolicyAgent11qt_metacastEPKc
libpowerdevilcore.so.2:_ZN10PowerDevil11PolicyAgent13AddInhibitionEjRK7QStringS3_
libpowerdevilcore.so.2:_ZN10PowerDevil11PolicyAgent13HasInhibitionEj
libpowerdevilcore.so.2:_ZN10PowerDevil11PolicyAgent16staticMetaObjectE
libpowerdevilcore.so.2:_ZN10PowerDevil11PolicyAgent17ReleaseInhibitionEj
libpowerdevilcore.so.2:_ZN10PowerDevil11PolicyAgent18InhibitionsChangedERK5QListISt4pairI7QStringS3_EERKS1_IS3_E
libpowerdevilcore.so.2:_ZN10PowerDevil11PolicyAgent18requirePolicyCheckE6QFlagsINS0_14RequiredPolicyEE
libpowerdevilcore.so.2:_ZN10PowerDevil11PolicyAgent19unavailablePoliciesEv
libpowerdevilcore.so.2:_ZN10PowerDevil11PolicyAgent20sessionActiveChangedEb
libpowerdevilcore.so.2:_ZN10PowerDevil11PolicyAgent21onServiceUnregisteredERK7QString
libpowerdevilcore.so.2:_ZN10PowerDevil11PolicyAgent21releaseAllInhibitionsEv
libpowerdevilcore.so.2:_ZN10PowerDevil11PolicyAgent22checkLogindInhibitionsEv
libpowerdevilcore.so.2:_ZN10PowerDevil11PolicyAgent22onActiveSessionChangedERK7QString
libpowerdevilcore.so.2:_ZN10PowerDevil11PolicyAgent22onActiveSessionChangedERK7QStringRK4QMapIS1_8QVariantERK5QListIS1_E
libpowerdevilcore.so.2:_ZN10PowerDevil11PolicyAgent22setupSystemdInhibitionEv
libpowerdevilcore.so.2:_ZN10PowerDevil11PolicyAgent23addInhibitionTypeHelperEj6QFlagsINS0_14RequiredPolicyEE
libpowerdevilcore.so.2:_ZN10PowerDevil11PolicyAgent24onManagerPropertyChangedERK7QStringRK4QMapIS1_8QVariantERK5QListIS1_E
libpowerdevilcore.so.2:_ZN10PowerDevil11PolicyAgent25screenLockerActiveChangedEb
libpowerdevilcore.so.2:_ZN10PowerDevil11PolicyAgent26onScreenLockerOwnerChangedERK7QStringS3_S3_
libpowerdevilcore.so.2:_ZN10PowerDevil11PolicyAgent26onSessionHandlerRegisteredERK7QString
libpowerdevilcore.so.2:_ZN10PowerDevil11PolicyAgent26unavailablePoliciesChangedE6QFlagsINS0_14RequiredPolicyEE
libpowerdevilcore.so.2:_ZN10PowerDevil11PolicyAgent27onScreenLockerActiveChangedEb
libpowerdevilcore.so.2:_ZN10PowerDevil11PolicyAgent28onSessionHandlerUnregisteredERK7QString
libpowerdevilcore.so.2:_ZN10PowerDevil11PolicyAgent36addInhibitionWithExplicitDBusServiceEjRK7QStringS3_S3_
libpowerdevilcore.so.2:_ZN10PowerDevil11PolicyAgent4initEv
libpowerdevilcore.so.2:_ZN10PowerDevil11PolicyAgent8instanceEv
libpowerdevilcore.so.2:_ZN10PowerDevil11PolicyAgentC1EP7QObject
libpowerdevilcore.so.2:_ZN10PowerDevil11PolicyAgentC2EP7QObject
libpowerdevilcore.so.2:_ZN10PowerDevil11PolicyAgentD0Ev
libpowerdevilcore.so.2:_ZN10PowerDevil11PolicyAgentD1Ev
libpowerdevilcore.so.2:_ZN10PowerDevil11PolicyAgentD2Ev
libpowerdevilcore.so.2:_ZN10PowerDevil13migrateConfigEbbb
libpowerdevilcore.so.2:_ZN10PowerDevil14GlobalDefaults28defaultBatteryCriticalActionEbb
libpowerdevilcore.so.2:_ZN10PowerDevil14GlobalSettings11itemChangedEy
libpowerdevilcore.so.2:_ZN10PowerDevil14GlobalSettings11qt_metacallEN11QMetaObject4CallEiPPv
libpowerdevilcore.so.2:_ZN10PowerDevil14GlobalSettings11qt_metacastEPKc
libpowerdevilcore.so.2:_ZN10PowerDevil14GlobalSettings16staticMetaObjectE
libpowerdevilcore.so.2:_ZN10PowerDevil14GlobalSettings22BatteryLowLevelChangedEv
libpowerdevilcore.so.2:_ZN10PowerDevil14GlobalSettings27BatteryCriticalLevelChangedEv
libpowerdevilcore.so.2:_ZN10PowerDevil14GlobalSettings28BatteryCriticalActionChangedEv
libpowerdevilcore.so.2:_ZN10PowerDevil14GlobalSettings28pausePlayersOnSuspendChangedEv
libpowerdevilcore.so.2:_ZN10PowerDevil14GlobalSettings32PeripheralBatteryLowLevelChangedEv
libpowerdevilcore.so.2:_ZN10PowerDevil14GlobalSettingsC1EbbP7QObject
libpowerdevilcore.so.2:_ZN10PowerDevil14GlobalSettingsC2EbbP7QObject
libpowerdevilcore.so.2:_ZN10PowerDevil14GlobalSettingsD0Ev
libpowerdevilcore.so.2:_ZN10PowerDevil14GlobalSettingsD1Ev
libpowerdevilcore.so.2:_ZN10PowerDevil14GlobalSettingsD2Ev
libpowerdevilcore.so.2:_ZN10PowerDevil15PowerManagement11qt_metacallEN11QMetaObject4CallEiPPv
libpowerdevilcore.so.2:_ZN10PowerDevil15PowerManagement11qt_metacastEPKc
libpowerdevilcore.so.2:_ZN10PowerDevil15PowerManagement13hybridSuspendEv
libpowerdevilcore.so.2:_ZN10PowerDevil15PowerManagement16isVirtualMachineEv
libpowerdevilcore.so.2:_ZN10PowerDevil15PowerManagement16staticMetaObjectE
libpowerdevilcore.so.2:_ZN10PowerDevil15PowerManagement17canSuspendChangedEv
libpowerdevilcore.so.2:_ZN10PowerDevil15PowerManagement19canHibernateChangedEv
libpowerdevilcore.so.2:_ZN10PowerDevil15PowerManagement20suspendThenHibernateEv
libpowerdevilcore.so.2:_ZN10PowerDevil15PowerManagement23canHybridSuspendChangedEv
libpowerdevilcore.so.2:_ZN10PowerDevil15PowerManagement30canSuspendThenHibernateChangedEv
libpowerdevilcore.so.2:_ZN10PowerDevil15PowerManagement7Private13setCanSuspendEb
libpowerdevilcore.so.2:_ZN10PowerDevil15PowerManagement7Private14updatePropertyERK7QStringMS1_FvbE
libpowerdevilcore.so.2:_ZN10PowerDevil15PowerManagement7Private15setCanHibernateEb
libpowerdevilcore.so.2:_ZN10PowerDevil15PowerManagement7Private19setCanHybridSuspendEb
libpowerdevilcore.so.2:_ZN10PowerDevil15PowerManagement7Private26setCanSuspendThenHibernateEb
libpowerdevilcore.so.2:_ZN10PowerDevil15PowerManagement7Private6updateEv
libpowerdevilcore.so.2:_ZN10PowerDevil15PowerManagement7PrivateC1EPS0_
libpowerdevilcore.so.2:_ZN10PowerDevil15PowerManagement7PrivateC2EPS0_
libpowerdevilcore.so.2:_ZN10PowerDevil15PowerManagement7suspendEv
libpowerdevilcore.so.2:_ZN10PowerDevil15PowerManagement8instanceEv
libpowerdevilcore.so.2:_ZN10PowerDevil15PowerManagement9hibernateEv
libpowerdevilcore.so.2:_ZN10PowerDevil15PowerManagementC1Ev
libpowerdevilcore.so.2:_ZN10PowerDevil15PowerManagementC2Ev
libpowerdevilcore.so.2:_ZN10PowerDevil15PowerManagementD0Ev
libpowerdevilcore.so.2:_ZN10PowerDevil15PowerManagementD1Ev
libpowerdevilcore.so.2:_ZN10PowerDevil15PowerManagementD2Ev
libpowerdevilcore.so.2:_ZN10PowerDevil15ProfileDefaults16defaultLidActionEbb
libpowerdevilcore.so.2:_ZN10PowerDevil15ProfileDefaults22defaultAutoSuspendTypeEv
libpowerdevilcore.so.2:_ZN10PowerDevil15ProfileDefaults22defaultPowerDownActionEv
libpowerdevilcore.so.2:_ZN10PowerDevil15ProfileDefaults24defaultAutoSuspendActionEbb
libpowerdevilcore.so.2:_ZN10PowerDevil15ProfileDefaults24defaultDisplayBrightnessERK7QString
libpowerdevilcore.so.2:_ZN10PowerDevil15ProfileDefaults24defaultPowerButtonActionEb
libpowerdevilcore.so.2:_ZN10PowerDevil15ProfileDefaults25defaultDimDisplayWhenIdleEv
libpowerdevilcore.so.2:_ZN10PowerDevil15ProfileDefaults26defaultAutoSuspendWhenIdleEbb
libpowerdevilcore.so.2:_ZN10PowerDevil15ProfileDefaults29defaultTurnOffDisplayWhenIdleEv
libpowerdevilcore.so.2:_ZN10PowerDevil15ProfileDefaults31defaultDimDisplayIdleTimeoutSecERK7QStringb
libpowerdevilcore.so.2:_ZN10PowerDevil15ProfileDefaults31defaultLockBeforeTurnOffDisplayEb
libpowerdevilcore.so.2:_ZN10PowerDevil15ProfileDefaults32defaultAutoSuspendIdleTimeoutSecERK7QStringb
libpowerdevilcore.so.2:_ZN10PowerDevil15ProfileDefaults35defaultTurnOffDisplayIdleTimeoutSecERK7QStringb
libpowerdevilcore.so.2:_ZN10PowerDevil15ProfileDefaults42defaultUseProfileSpecificDisplayBrightnessERK7QString
libpowerdevilcore.so.2:_ZN10PowerDevil15ProfileSettings11itemChangedEy
libpowerdevilcore.so.2:_ZN10PowerDevil15ProfileSettings11qt_metacallEN11QMetaObject4CallEiPPv
libpowerdevilcore.so.2:_ZN10PowerDevil15ProfileSettings11qt_metacastEPKc
libpowerdevilcore.so.2:_ZN10PowerDevil15ProfileSettings16LidActionChangedEv
libpowerdevilcore.so.2:_ZN10PowerDevil15ProfileSettings16SleepModeChangedEv
libpowerdevilcore.so.2:_ZN10PowerDevil15ProfileSettings16staticMetaObjectE
libpowerdevilcore.so.2:_ZN10PowerDevil15ProfileSettings19PowerProfileChangedEv
libpowerdevilcore.so.2:_ZN10PowerDevil15ProfileSettings22PowerDownActionChangedEv
libpowerdevilcore.so.2:_ZN10PowerDevil15ProfileSettings24AutoSuspendActionChangedEv
libpowerdevilcore.so.2:_ZN10PowerDevil15ProfileSettings24DisplayBrightnessChangedEv
libpowerdevilcore.so.2:_ZN10PowerDevil15ProfileSettings24PowerButtonActionChangedEv
libpowerdevilcore.so.2:_ZN10PowerDevil15ProfileSettings25DimDisplayWhenIdleChangedEv
libpowerdevilcore.so.2:_ZN10PowerDevil15ProfileSettings25IdleTimeoutCommandChangedEv
libpowerdevilcore.so.2:_ZN10PowerDevil15ProfileSettings25KeyboardBrightnessChangedEv
libpowerdevilcore.so.2:_ZN10PowerDevil15ProfileSettings25ProfileLoadCommandChangedEv
libpowerdevilcore.so.2:_ZN10PowerDevil15ProfileSettings27ProfileUnloadCommandChangedEv
libpowerdevilcore.so.2:_ZN10PowerDevil15ProfileSettings29TurnOffDisplayWhenIdleChangedEv
libpowerdevilcore.so.2:_ZN10PowerDevil15ProfileSettings30RunScriptIdleTimeoutSecChangedEv
libpowerdevilcore.so.2:_ZN10PowerDevil15ProfileSettings31DimDisplayIdleTimeoutSecChangedEv
libpowerdevilcore.so.2:_ZN10PowerDevil15ProfileSettings31LockBeforeTurnOffDisplayChangedEv
libpowerdevilcore.so.2:_ZN10PowerDevil15ProfileSettings32AutoSuspendIdleTimeoutSecChangedEv
libpowerdevilcore.so.2:_ZN10PowerDevil15ProfileSettings35TurnOffDisplayIdleTimeoutSecChangedEv
libpowerdevilcore.so.2:_ZN10PowerDevil15ProfileSettings42UseProfileSpecificDisplayBrightnessChangedEv
libpowerdevilcore.so.2:_ZN10PowerDevil15ProfileSettings43UseProfileSpecificKeyboardBrightnessChangedEv
libpowerdevilcore.so.2:_ZN10PowerDevil15ProfileSettings45TurnOffDisplayIdleTimeoutWhenLockedSecChangedEv
libpowerdevilcore.so.2:_ZN10PowerDevil15ProfileSettings49InhibitLidActionWhenExternalMonitorPresentChangedEv
libpowerdevilcore.so.2:_ZN10PowerDevil15ProfileSettingsC1ERK7QStringbbbP7QObject
libpowerdevilcore.so.2:_ZN10PowerDevil15ProfileSettingsC2ERK7QStringbbbP7QObject
libpowerdevilcore.so.2:_ZN10PowerDevil15ProfileSettingsD0Ev
libpowerdevilcore.so.2:_ZN10PowerDevil15ProfileSettingsD1Ev
libpowerdevilcore.so.2:_ZN10PowerDevil15ProfileSettingsD2Ev
libpowerdevilcore.so.2:_ZN10PowerDevil16ActivitySettings11itemChangedEy
libpowerdevilcore.so.2:_ZN10PowerDevil16ActivitySettings11qt_metacallEN11QMetaObject4CallEiPPv
libpowerdevilcore.so.2:_ZN10PowerDevil16ActivitySettings11qt_metacastEPKc
libpowerdevilcore.so.2:_ZN10PowerDevil16ActivitySettings16staticMetaObjectE
libpowerdevilcore.so.2:_ZN10PowerDevil16ActivitySettings21InhibitSuspendChangedEv
libpowerdevilcore.so.2:_ZN10PowerDevil16ActivitySettings30InhibitScreenManagementChangedEv
libpowerdevilcore.so.2:_ZN10PowerDevil16ActivitySettingsC1ERK7QStringP7QObject
libpowerdevilcore.so.2:_ZN10PowerDevil16ActivitySettingsC2ERK7QStringP7QObject
libpowerdevilcore.so.2:_ZN10PowerDevil16ActivitySettingsD0Ev
libpowerdevilcore.so.2:_ZN10PowerDevil16ActivitySettingsD1Ev
libpowerdevilcore.so.2:_ZN10PowerDevil16ActivitySettingsD2Ev
libpowerdevilcore.so.2:_ZN10PowerDevil16BackendInterface11qt_metacallEN11QMetaObject4CallEiPPv
libpowerdevilcore.so.2:_ZN10PowerDevil16BackendInterface11qt_metacastEPKc
libpowerdevilcore.so.2:_ZN10PowerDevil16BackendInterface12backendReadyEv
libpowerdevilcore.so.2:_ZN10PowerDevil16BackendInterface16staticMetaObjectE
libpowerdevilcore.so.2:_ZN10PowerDevil16BackendInterface17setBackendIsReadyEv
libpowerdevilcore.so.2:_ZN10PowerDevil16BackendInterface21screenBrightnessStepsEv
libpowerdevilcore.so.2:_ZN10PowerDevil16BackendInterface23keyboardBrightnessStepsEv
libpowerdevilcore.so.2:_ZN10PowerDevil16BackendInterface23screenBrightnessChangedERKNS_15BrightnessLogic14BrightnessInfoE
libpowerdevilcore.so.2:_ZN10PowerDevil16BackendInterface25keyboardBrightnessChangedERKNS_15BrightnessLogic14BrightnessInfoE
libpowerdevilcore.so.2:_ZN10PowerDevil16BackendInterface25onScreenBrightnessChangedEii
libpowerdevilcore.so.2:_ZN10PowerDevil16BackendInterface27onKeyboardBrightnessChangedEiib
libpowerdevilcore.so.2:_ZN10PowerDevil16BackendInterface33calculateNextScreenBrightnessStepEiiNS_15BrightnessLogic17BrightnessKeyTypeE
libpowerdevilcore.so.2:_ZN10PowerDevil16BackendInterface35calculateNextKeyboardBrightnessStepEiiNS_15BrightnessLogic17BrightnessKeyTypeE
libpowerdevilcore.so.2:_ZN10PowerDevil16BackendInterfaceC2EP7QObject
libpowerdevilcore.so.2:_ZN10PowerDevil16BackendInterfaceD0Ev
libpowerdevilcore.so.2:_ZN10PowerDevil16BackendInterfaceD1Ev
libpowerdevilcore.so.2:_ZN10PowerDevil16BackendInterfaceD2Ev
libpowerdevilcore.so.2:_ZN10PowerDevil16staticMetaObjectE
libpowerdevilcore.so.2:_ZN10PowerDevil23KWinKScreenHelperEffect10checkValidEv
libpowerdevilcore.so.2:_ZN10PowerDevil23KWinKScreenHelperEffect11qt_metacallEN11QMetaObject4CallEiPPv
libpowerdevilcore.so.2:_ZN10PowerDevil23KWinKScreenHelperEffect11qt_metacastEPKc
libpowerdevilcore.so.2:_ZN10PowerDevil23KWinKScreenHelperEffect12stateChangedENS0_5StateE
libpowerdevilcore.so.2:_ZN10PowerDevil23KWinKScreenHelperEffect16staticMetaObjectE
libpowerdevilcore.so.2:_ZN10PowerDevil23KWinKScreenHelperEffect17nativeEventFilterERK10QByteArrayPvPx
libpowerdevilcore.so.2:_ZN10PowerDevil23KWinKScreenHelperEffect17setEffectPropertyEl
libpowerdevilcore.so.2:_ZN10PowerDevil23KWinKScreenHelperEffect4stopEv
libpowerdevilcore.so.2:_ZN10PowerDevil23KWinKScreenHelperEffect5startEv
libpowerdevilcore.so.2:_ZN10PowerDevil23KWinKScreenHelperEffect8fadedOutEv
libpowerdevilcore.so.2:_ZN10PowerDevil23KWinKScreenHelperEffectC1EP7QObject
libpowerdevilcore.so.2:_ZN10PowerDevil23KWinKScreenHelperEffectC2EP7QObject
libpowerdevilcore.so.2:_ZN10PowerDevil23KWinKScreenHelperEffectD0Ev
libpowerdevilcore.so.2:_ZN10PowerDevil23KWinKScreenHelperEffectD1Ev
libpowerdevilcore.so.2:_ZN10PowerDevil23KWinKScreenHelperEffectD2Ev
libpowerdevilcore.so.2:_ZN10PowerDevil4Core11clearWakeupEi
libpowerdevilcore.so.2:_ZN10PowerDevil4Core11initActionsEv
libpowerdevilcore.so.2:_ZN10PowerDevil4Core11loadProfileEb
libpowerdevilcore.so.2:_ZN10PowerDevil4Core11qt_metacallEN11QMetaObject4CallEiPPv
libpowerdevilcore.so.2:_ZN10PowerDevil4Core11qt_metacastEPKc
libpowerdevilcore.so.2:_ZN10PowerDevil4Core13lidControllerEv
libpowerdevilcore.so.2:_ZN10PowerDevil4Core13onDeviceAddedERK7QString
libpowerdevilcore.so.2:_ZN10PowerDevil4Core13refreshStatusEv
libpowerdevilcore.so.2:_ZN10PowerDevil4Core14onBackendReadyEv
libpowerdevilcore.so.2:_ZN10PowerDevil4Core14profileChangedERK7QString
libpowerdevilcore.so.2:_ZN10PowerDevil4Core14scheduleWakeupERK7QStringRK15QDBusObjectPathx
libpowerdevilcore.so.2:_ZN10PowerDevil4Core15onDeviceRemovedERK7QString
libpowerdevilcore.so.2:_ZN10PowerDevil4Core16emitNotificationERK7QStringS3_S3_S3_
libpowerdevilcore.so.2:_ZN10PowerDevil4Core16handleLowBatteryEi
libpowerdevilcore.so.2:_ZN10PowerDevil4Core16lidClosedChangedEb
libpowerdevilcore.so.2:_ZN10PowerDevil4Core16onAboutToSuspendEv
libpowerdevilcore.so.2:_ZN10PowerDevil4Core16staticMetaObjectE
libpowerdevilcore.so.2:_ZN10PowerDevil4Core17batteryControllerEv
libpowerdevilcore.so.2:_ZN10PowerDevil4Core17isActionSupportedERK7QString
libpowerdevilcore.so.2:_ZN10PowerDevil4Core17suspendControllerEv
libpowerdevilcore.so.2:_ZN10PowerDevil4Core18onLidClosedChangedEb
libpowerdevilcore.so.2:_ZN10PowerDevil4Core18onResumingFromIdleEv
libpowerdevilcore.so.2:_ZN10PowerDevil4Core19backendCapabilitiesEv
libpowerdevilcore.so.2:_ZN10PowerDevil4Core19onServiceRegisteredERK7QString
libpowerdevilcore.so.2:_ZN10PowerDevil4Core19readChargeThresholdEv
libpowerdevilcore.so.2:_ZN10PowerDevil4Core19timerfdEventHandlerEv
libpowerdevilcore.so.2:_ZN10PowerDevil4Core20emitRichNotificationERK7QStringS3_S3_
libpowerdevilcore.so.2:_ZN10PowerDevil4Core20reparseConfigurationEv
libpowerdevilcore.so.2:_ZN10PowerDevil4Core21configurationReloadedEv
libpowerdevilcore.so.2:_ZN10PowerDevil4Core21handleCriticalBatteryEi
libpowerdevilcore.so.2:_ZN10PowerDevil4Core21onKIdleTimeoutReachedEii
libpowerdevilcore.so.2:_ZN10PowerDevil4Core21onNotificationTimeoutEv
libpowerdevilcore.so.2:_ZN10PowerDevil4Core21registerActionTimeoutEPNS_6ActionENSt6chrono8durationIlSt5ratioILl1ELl1000EEEE
libpowerdevilcore.so.2:_ZN10PowerDevil4Core22unloadAllActiveActionsEv
libpowerdevilcore.so.2:_ZN10PowerDevil4Core23onAcAdapterStateChangedEN17BatteryController14AcAdapterStateE
libpowerdevilcore.so.2:_ZN10PowerDevil4Core24unregisterActionTimeoutsEPNS_6ActionE
libpowerdevilcore.so.2:_ZN10PowerDevil4Core26chargeStopThresholdChangedEi
libpowerdevilcore.so.2:_ZN10PowerDevil4Core26resetAndScheduleNextWakeupEv
libpowerdevilcore.so.2:_ZN10PowerDevil4Core26updateBatteryNotificationsEi
libpowerdevilcore.so.2:_ZN10PowerDevil4Core27batteryRemainingTimeChangedEy
libpowerdevilcore.so.2:_ZN10PowerDevil4Core27chargeStartThresholdChangedEi
libpowerdevilcore.so.2:_ZN10PowerDevil4Core27onBatteryChargeStateChangedEiRK7QString
libpowerdevilcore.so.2:_ZN10PowerDevil4Core28triggerCriticalBatteryActionEv
libpowerdevilcore.so.2:_ZN10PowerDevil4Core29onBatteryChargePercentChangedEiRK7QString
libpowerdevilcore.so.2:_ZN10PowerDevil4Core29onBatteryRemainingTimeChangedEy
libpowerdevilcore.so.2:_ZN10PowerDevil4Core29onCriticalBatteryTimerExpiredEv
libpowerdevilcore.so.2:_ZN10PowerDevil4Core35smoothedBatteryRemainingTimeChangedEy
libpowerdevilcore.so.2:_ZN10PowerDevil4Core36emitBatteryChargePercentNotificationEiiRK7QString6QFlagsINS0_22ChargeNotificationFlagEE
libpowerdevilcore.so.2:_ZN10PowerDevil4Core37onSmoothedBatteryRemainingTimeChangedEy
libpowerdevilcore.so.2:_ZN10PowerDevil4Core6actionE7QString
libpowerdevilcore.so.2:_ZN10PowerDevil4Core6wakeupEv
libpowerdevilcore.so.2:_ZN10PowerDevil4Core7backendEv
libpowerdevilcore.so.2:_ZN10PowerDevil4Core8loadCoreEPNS_16BackendInterfaceE
libpowerdevilcore.so.2:_ZN10PowerDevil4Core9coreReadyEv
libpowerdevilcore.so.2:_ZN10PowerDevil4CoreC1EP7QObject
libpowerdevilcore.so.2:_ZN10PowerDevil4CoreC2EP7QObject
libpowerdevilcore.so.2:_ZN10PowerDevil4CoreD0Ev
libpowerdevilcore.so.2:_ZN10PowerDevil4CoreD1Ev
libpowerdevilcore.so.2:_ZN10PowerDevil4CoreD2Ev
libpowerdevilcore.so.2:_ZN10PowerDevil6Action11isSupportedEv
libpowerdevilcore.so.2:_ZN10PowerDevil6Action11qt_metacallEN11QMetaObject4CallEiPPv
libpowerdevilcore.so.2:_ZN10PowerDevil6Action11qt_metacastEPKc
libpowerdevilcore.so.2:_ZN10PowerDevil6Action12unloadActionEv
libpowerdevilcore.so.2:_ZN10PowerDevil6Action13onIdleTimeoutENSt6chrono8durationIlSt5ratioILl1ELl1000EEEE
libpowerdevilcore.so.2:_ZN10PowerDevil6Action13onProfileLoadERK7QStringS3_
libpowerdevilcore.so.2:_ZN10PowerDevil6Action15onProfileUnloadEv
libpowerdevilcore.so.2:_ZN10PowerDevil6Action16onWakeupFromIdleEv
libpowerdevilcore.so.2:_ZN10PowerDevil6Action16staticMetaObjectE
libpowerdevilcore.so.2:_ZN10PowerDevil6Action19registerIdleTimeoutENSt6chrono8durationIlSt5ratioILl1ELl1000EEEE
libpowerdevilcore.so.2:_ZN10PowerDevil6Action19setRequiredPoliciesE6QFlagsINS_11PolicyAgent14RequiredPolicyEE
libpowerdevilcore.so.2:_ZN10PowerDevil6Action22unregisterIdleTimeoutsEv
libpowerdevilcore.so.2:_ZN10PowerDevil6Action4coreEv
libpowerdevilcore.so.2:_ZN10PowerDevil6Action7triggerERK4QMapI7QString8QVariantE
libpowerdevilcore.so.2:_ZN10PowerDevil6ActionC2EP7QObject
libpowerdevilcore.so.2:_ZN10PowerDevil6ActionD0Ev
libpowerdevilcore.so.2:_ZN10PowerDevil6ActionD1Ev
libpowerdevilcore.so.2:_ZN10PowerDevil6ActionD2Ev
libpowerdevilcore.so.2:_ZN13LidController11qt_metacallEN11QMetaObject4CallEiPPv
libpowerdevilcore.so.2:_ZN13LidController11qt_metacastEPKc
libpowerdevilcore.so.2:_ZN13LidController16lidClosedChangedEb
libpowerdevilcore.so.2:_ZN13LidController16staticMetaObjectE
libpowerdevilcore.so.2:_ZN13LidController19onPropertiesChangedERK7QStringRK4QMapIS0_8QVariantERK5QListIS0_E
libpowerdevilcore.so.2:_ZN13LidControllerC1Ev
libpowerdevilcore.so.2:_ZN13LidControllerC2Ev
libpowerdevilcore.so.2:_ZN17BatteryController11qt_metacallEN11QMetaObject4CallEiPPv
libpowerdevilcore.so.2:_ZN17BatteryController11qt_metacastEPKc
libpowerdevilcore.so.2:_ZN17BatteryController14setBatteryRateEdy
libpowerdevilcore.so.2:_ZN17BatteryController15slotDeviceAddedERK15QDBusObjectPath
libpowerdevilcore.so.2:_ZN17BatteryController16staticMetaObjectE
libpowerdevilcore.so.2:_ZN17BatteryController17slotDeviceRemovedERK15QDBusObjectPath
libpowerdevilcore.so.2:_ZN17BatteryController17updateDevicePropsEv
libpowerdevilcore.so.2:_ZN17BatteryController19onPropertiesChangedERK7QStringRK4QMapIS0_8QVariantERK5QListIS0_E
libpowerdevilcore.so.2:_ZN17BatteryController21acAdapterStateChangedENS_14AcAdapterStateE
libpowerdevilcore.so.2:_ZN17BatteryController27batteryRemainingTimeChangedEy
libpowerdevilcore.so.2:_ZN17BatteryController35smoothedBatteryRemainingTimeChangedEy
libpowerdevilcore.so.2:_ZN17BatteryController9addDeviceERK7QString
libpowerdevilcore.so.2:_ZN17BatteryControllerC1Ev
libpowerdevilcore.so.2:_ZN17BatteryControllerC2Ev
libpowerdevilcore.so.2:_ZN17SuspendController11qt_metacallEN11QMetaObject4CallEiPPv
libpowerdevilcore.so.2:_ZN17SuspendController11qt_metacastEPKc
libpowerdevilcore.so.2:_ZN17SuspendController13hybridSuspendEv
libpowerdevilcore.so.2:_ZN17SuspendController14aboutToSuspendEv
libpowerdevilcore.so.2:_ZN17SuspendController16staticMetaObjectE
libpowerdevilcore.so.2:_ZN17SuspendController17resumeFromSuspendEv
libpowerdevilcore.so.2:_ZN17SuspendController20suspendThenHibernateEv
libpowerdevilcore.so.2:_ZN17SuspendController25slotLogin1PrepareForSleepEb
libpowerdevilcore.so.2:_ZN17SuspendController7suspendEv
libpowerdevilcore.so.2:_ZN17SuspendController9hibernateEv
libpowerdevilcore.so.2:_ZN17SuspendControllerC1Ev
libpowerdevilcore.so.2:_ZN17SuspendControllerC2Ev
libpowerdevilcore.so.2:_ZN19BrightnessOSDWidget4showEiN10PowerDevil16BackendInterface21BrightnessControlTypeE
libpowerdevilcore.so.2:_ZNK10PowerDevil11PolicyAgent10metaObjectEv
libpowerdevilcore.so.2:_ZNK10PowerDevil11PolicyAgent15ListInhibitionsEv
libpowerdevilcore.so.2:_ZNK10PowerDevil11PolicyAgent18screenLockerActiveEv
libpowerdevilcore.so.2:_ZNK10PowerDevil11PolicyAgent20getNamedPathPropertyERK7QStringS3_S3_
libpowerdevilcore.so.2:_ZNK10PowerDevil14GlobalSettings10metaObjectEv
libpowerdevilcore.so.2:_ZNK10PowerDevil14GlobalSettings34defaultBatteryLowLevelValue_helperEv
libpowerdevilcore.so.2:_ZNK10PowerDevil14GlobalSettings39defaultBatteryCriticalLevelValue_helperEv
libpowerdevilcore.so.2:_ZNK10PowerDevil14GlobalSettings40defaultBatteryCriticalActionValue_helperEv
libpowerdevilcore.so.2:_ZNK10PowerDevil14GlobalSettings40defaultPausePlayersOnSuspendValue_helperEv
libpowerdevilcore.so.2:_ZNK10PowerDevil14GlobalSettings44defaultPeripheralBatteryLowLevelValue_helperEv
libpowerdevilcore.so.2:_ZNK10PowerDevil15PowerManagement10canSuspendEv
libpowerdevilcore.so.2:_ZNK10PowerDevil15PowerManagement10metaObjectEv
libpowerdevilcore.so.2:_ZNK10PowerDevil15PowerManagement12canHibernateEv
libpowerdevilcore.so.2:_ZNK10PowerDevil15PowerManagement16canHybridSuspendEv
libpowerdevilcore.so.2:_ZNK10PowerDevil15PowerManagement23canSuspendThenHibernateEv
libpowerdevilcore.so.2:_ZNK10PowerDevil15ProfileSettings10metaObjectEv
libpowerdevilcore.so.2:_ZNK10PowerDevil15ProfileSettings28defaultLidActionValue_helperEv
libpowerdevilcore.so.2:_ZNK10PowerDevil15ProfileSettings28defaultSleepModeValue_helperEv
libpowerdevilcore.so.2:_ZNK10PowerDevil15ProfileSettings34defaultPowerDownActionValue_helperEv
libpowerdevilcore.so.2:_ZNK10PowerDevil15ProfileSettings36defaultAutoSuspendActionValue_helperEv
libpowerdevilcore.so.2:_ZNK10PowerDevil15ProfileSettings36defaultDisplayBrightnessValue_helperEv
libpowerdevilcore.so.2:_ZNK10PowerDevil15ProfileSettings36defaultPowerButtonActionValue_helperEv
libpowerdevilcore.so.2:_ZNK10PowerDevil15ProfileSettings37defaultDimDisplayWhenIdleValue_helperEv
libpowerdevilcore.so.2:_ZNK10PowerDevil15ProfileSettings37defaultKeyboardBrightnessValue_helperEv
libpowerdevilcore.so.2:_ZNK10PowerDevil15ProfileSettings41defaultTurnOffDisplayWhenIdleValue_helperEv
libpowerdevilcore.so.2:_ZNK10PowerDevil15ProfileSettings42defaultRunScriptIdleTimeoutSecValue_helperEv
libpowerdevilcore.so.2:_ZNK10PowerDevil15ProfileSettings43defaultDimDisplayIdleTimeoutSecValue_helperEv
libpowerdevilcore.so.2:_ZNK10PowerDevil15ProfileSettings43defaultLockBeforeTurnOffDisplayValue_helperEv
libpowerdevilcore.so.2:_ZNK10PowerDevil15ProfileSettings44defaultAutoSuspendIdleTimeoutSecValue_helperEv
libpowerdevilcore.so.2:_ZNK10PowerDevil15ProfileSettings47defaultTurnOffDisplayIdleTimeoutSecValue_helperEv
libpowerdevilcore.so.2:_ZNK10PowerDevil15ProfileSettings54defaultUseProfileSpecificDisplayBrightnessValue_helperEv
libpowerdevilcore.so.2:_ZNK10PowerDevil15ProfileSettings55defaultUseProfileSpecificKeyboardBrightnessValue_helperEv
libpowerdevilcore.so.2:_ZNK10PowerDevil15ProfileSettings57defaultTurnOffDisplayIdleTimeoutWhenLockedSecValue_helperEv
libpowerdevilcore.so.2:_ZNK10PowerDevil15ProfileSettings61defaultInhibitLidActionWhenExternalMonitorPresentValue_helperEv
libpowerdevilcore.so.2:_ZNK10PowerDevil16ActivitySettings10metaObjectEv
libpowerdevilcore.so.2:_ZNK10PowerDevil16ActivitySettings33defaultInhibitSuspendValue_helperEv
libpowerdevilcore.so.2:_ZNK10PowerDevil16ActivitySettings42defaultInhibitScreenManagementValue_helperEv
libpowerdevilcore.so.2:_ZNK10PowerDevil16BackendInterface10metaObjectEv
libpowerdevilcore.so.2:_ZNK10PowerDevil23KWinKScreenHelperEffect10metaObjectEv
libpowerdevilcore.so.2:_ZNK10PowerDevil4Core10hasDualGpuEv
libpowerdevilcore.so.2:_ZNK10PowerDevil4Core10metaObjectEv
libpowerdevilcore.so.2:_ZNK10PowerDevil4Core11isLidClosedEv
libpowerdevilcore.so.2:_ZNK10PowerDevil4Core12isLidPresentEv
libpowerdevilcore.so.2:_ZNK10PowerDevil4Core14currentProfileEv
libpowerdevilcore.so.2:_ZNK10PowerDevil4Core19chargeStopThresholdEv
libpowerdevilcore.so.2:_ZNK10PowerDevil4Core20batteryRemainingTimeEv
libpowerdevilcore.so.2:_ZNK10PowerDevil4Core20chargeStartThresholdEv
libpowerdevilcore.so.2:_ZNK10PowerDevil4Core20currentChargePercentEv
libpowerdevilcore.so.2:_ZNK10PowerDevil4Core28smoothedBatteryRemainingTimeEv
libpowerdevilcore.so.2:_ZNK10PowerDevil6Action10metaObjectEv
libpowerdevilcore.so.2:_ZNK10PowerDevil6Action7backendEv
libpowerdevilcore.so.2:_ZNK13LidController10metaObjectEv
libpowerdevilcore.so.2:_ZNK13LidController11isLidClosedEv
libpowerdevilcore.so.2:_ZNK13LidController12isLidPresentEv
libpowerdevilcore.so.2:_ZNK17BatteryController10metaObjectEv
libpowerdevilcore.so.2:_ZNK17BatteryController14acAdapterStateEv
libpowerdevilcore.so.2:_ZNK17BatteryController20batteryRemainingTimeEv
libpowerdevilcore.so.2:_ZNK17BatteryController28smoothedBatteryRemainingTimeEv
libpowerdevilcore.so.2:_ZNK17SuspendController10canSuspendEv
libpowerdevilcore.so.2:_ZNK17SuspendController10metaObjectEv
libpowerdevilcore.so.2:_ZNK17SuspendController12canHibernateEv
libpowerdevilcore.so.2:_ZNK17SuspendController16canHybridSuspendEv
libpowerdevilcore.so.2:_ZNK17SuspendController23canSuspendThenHibernateEv
libpowerdevilcore.so.2:_ZTI13LidController
libpowerdevilcore.so.2:_ZTI17BatteryController
libpowerdevilcore.so.2:_ZTI17SuspendController
libpowerdevilcore.so.2:_ZTIN10PowerDevil11PolicyAgentE
libpowerdevilcore.so.2:_ZTIN10PowerDevil14GlobalSettingsE
libpowerdevilcore.so.2:_ZTIN10PowerDevil15PowerManagementE
libpowerdevilcore.so.2:_ZTIN10PowerDevil15ProfileSettingsE
libpowerdevilcore.so.2:_ZTIN10PowerDevil16ActivitySettingsE
libpowerdevilcore.so.2:_ZTIN10PowerDevil16BackendInterfaceE
libpowerdevilcore.so.2:_ZTIN10PowerDevil23KWinKScreenHelperEffectE
libpowerdevilcore.so.2:_ZTIN10PowerDevil4CoreE
libpowerdevilcore.so.2:_ZTIN10PowerDevil6ActionE
libpowerdevilcore.so.2:_ZTS13LidController
libpowerdevilcore.so.2:_ZTS17BatteryController
libpowerdevilcore.so.2:_ZTS17SuspendController
libpowerdevilcore.so.2:_ZTSN10PowerDevil11PolicyAgentE
libpowerdevilcore.so.2:_ZTSN10PowerDevil14GlobalSettingsE
libpowerdevilcore.so.2:_ZTSN10PowerDevil15PowerManagementE
libpowerdevilcore.so.2:_ZTSN10PowerDevil15ProfileSettingsE
libpowerdevilcore.so.2:_ZTSN10PowerDevil16ActivitySettingsE
libpowerdevilcore.so.2:_ZTSN10PowerDevil16BackendInterfaceE
libpowerdevilcore.so.2:_ZTSN10PowerDevil23KWinKScreenHelperEffectE
libpowerdevilcore.so.2:_ZTSN10PowerDevil4CoreE
libpowerdevilcore.so.2:_ZTSN10PowerDevil6ActionE
libpowerdevilcore.so.2:_ZTV13LidController
libpowerdevilcore.so.2:_ZTV17BatteryController
libpowerdevilcore.so.2:_ZTV17SuspendController
libpowerdevilcore.so.2:_ZTVN10PowerDevil11PolicyAgentE
libpowerdevilcore.so.2:_ZTVN10PowerDevil14GlobalSettingsE
libpowerdevilcore.so.2:_ZTVN10PowerDevil15PowerManagementE
libpowerdevilcore.so.2:_ZTVN10PowerDevil15ProfileSettingsE
libpowerdevilcore.so.2:_ZTVN10PowerDevil16ActivitySettingsE
libpowerdevilcore.so.2:_ZTVN10PowerDevil16BackendInterfaceE
libpowerdevilcore.so.2:_ZTVN10PowerDevil23KWinKScreenHelperEffectE
libpowerdevilcore.so.2:_ZTVN10PowerDevil4CoreE
libpowerdevilcore.so.2:_ZTVN10PowerDevil6ActionE
libpowerdevilcore.so.2:_ZThn16_N10PowerDevil23KWinKScreenHelperEffect17nativeEventFilterERK10QByteArrayPvPx
libpowerdevilcore.so.2:_ZThn16_N10PowerDevil23KWinKScreenHelperEffectD0Ev
libpowerdevilcore.so.2:_ZThn16_N10PowerDevil23KWinKScreenHelperEffectD1Ev
powerdevil_brightnesscontrolaction.so:qt_plugin_instance
powerdevil_brightnesscontrolaction.so:qt_plugin_query_metadata_v2
powerdevil_dimdisplayaction.so:qt_plugin_instance
powerdevil_dimdisplayaction.so:qt_plugin_query_metadata_v2
powerdevil_dpmsaction.so:qt_plugin_instance
powerdevil_dpmsaction.so:qt_plugin_query_metadata_v2
powerdevil_handlebuttoneventsaction.so:qt_plugin_instance
powerdevil_handlebuttoneventsaction.so:qt_plugin_query_metadata_v2
powerdevil_keyboardbrightnesscontrolaction.so:qt_plugin_instance
powerdevil_keyboardbrightnesscontrolaction.so:qt_plugin_query_metadata_v2
powerdevil_powerprofileaction.so:qt_plugin_instance
powerdevil_powerprofileaction.so:qt_plugin_query_metadata_v2
powerdevil_runscriptaction.so:qt_plugin_instance
powerdevil_runscriptaction.so:qt_plugin_query_metadata_v2
powerdevil_suspendsessionaction.so:qt_plugin_instance
powerdevil_suspendsessionaction.so:qt_plugin_query_metadata_v2
powerdevilupowerbackend.so:_ZN23PowerDevilUPowerBackend11qt_metacallEN11QMetaObject4CallEiPPv
powerdevilupowerbackend.so:_ZN23PowerDevilUPowerBackend11qt_metacastEPKc
powerdevilupowerbackend.so:_ZN23PowerDevilUPowerBackend15onDeviceChangedERKN6UdevQt6DeviceE
powerdevilupowerbackend.so:_ZN23PowerDevilUPowerBackend16staticMetaObjectE
powerdevilupowerbackend.so:_ZN23PowerDevilUPowerBackend18initWithBrightnessEb
powerdevilupowerbackend.so:_ZN23PowerDevilUPowerBackend19setScreenBrightnessEi
powerdevilupowerbackend.so:_ZN23PowerDevilUPowerBackend21animationValueChangedERK8QVariant
powerdevilupowerbackend.so:_ZN23PowerDevilUPowerBackend21setKeyboardBrightnessEi
powerdevilupowerbackend.so:_ZN23PowerDevilUPowerBackend24brightnessSupportQueriedEb
powerdevilupowerbackend.so:_ZN23PowerDevilUPowerBackend24setKeyboardBrightnessOffEv
powerdevilupowerbackend.so:_ZN23PowerDevilUPowerBackend26screenBrightnessKeyPressedEN10PowerDevil15BrightnessLogic17BrightnessKeyTypeE
powerdevilupowerbackend.so:_ZN23PowerDevilUPowerBackend27onKeyboardBrightnessChangedEiRK7QString
powerdevilupowerbackend.so:_ZN23PowerDevilUPowerBackend27slotScreenBrightnessChangedEv
powerdevilupowerbackend.so:_ZN23PowerDevilUPowerBackend28keyboardBrightnessKeyPressedEN10PowerDevil15BrightnessLogic17BrightnessKeyTypeE
powerdevilupowerbackend.so:_ZN23PowerDevilUPowerBackend4initEv
powerdevilupowerbackend.so:_ZN23PowerDevilUPowerBackendC1EP7QObject
powerdevilupowerbackend.so:_ZN23PowerDevilUPowerBackendC2EP7QObject
powerdevilupowerbackend.so:_ZN23PowerDevilUPowerBackendD0Ev
powerdevilupowerbackend.so:_ZN23PowerDevilUPowerBackendD1Ev
powerdevilupowerbackend.so:_ZN23PowerDevilUPowerBackendD2Ev
powerdevilupowerbackend.so:_ZNK23PowerDevilUPowerBackend10metaObjectEv
powerdevilupowerbackend.so:_ZNK23PowerDevilUPowerBackend16screenBrightnessEv
powerdevilupowerbackend.so:_ZNK23PowerDevilUPowerBackend18keyboardBrightnessEv
powerdevilupowerbackend.so:_ZNK23PowerDevilUPowerBackend19screenBrightnessMaxEv
powerdevilupowerbackend.so:_ZNK23PowerDevilUPowerBackend21keyboardBrightnessMaxEv
powerdevilupowerbackend.so:_ZNK23PowerDevilUPowerBackend25screenBrightnessAvailableEv
powerdevilupowerbackend.so:_ZNK23PowerDevilUPowerBackend27keyboardBrightnessAvailableEv
powerdevilupowerbackend.so:_ZTI23PowerDevilUPowerBackend
powerdevilupowerbackend.so:_ZTS23PowerDevilUPowerBackend
powerdevilupowerbackend.so:_ZTV23PowerDevilUPowerBackend
powerdevilupowerbackend.so:qt_plugin_instance
powerdevilupowerbackend.so:qt_plugin_query_metadata_v2
