libKPim5KontactInterface.so.5:_ZN16KontactInterface16UniqueAppHandler10mainWidgetEv
libKPim5KontactInterface.so.5:_ZN16KontactInterface16UniqueAppHandler11newInstanceERK10QByteArrayRK11QStringListRK7QString
libKPim5KontactInterface.so.5:_ZN16KontactInterface16UniqueAppHandler11qt_metacallEN11QMetaObject4CallEiPPv
libKPim5KontactInterface.so.5:_ZN16KontactInterface16UniqueAppHandler11qt_metacastEPKc
libKPim5KontactInterface.so.5:_ZN16KontactInterface16UniqueAppHandler13setMainWidgetEP7QWidget
libKPim5KontactInterface.so.5:_ZN16KontactInterface16UniqueAppHandler16staticMetaObjectE
libKPim5KontactInterface.so.5:_ZN16KontactInterface16UniqueAppHandler4loadEv
libKPim5KontactInterface.so.5:_ZN16KontactInterface16UniqueAppHandler8activateERK11QStringListRK7QString
libKPim5KontactInterface.so.5:_ZN16KontactInterface16UniqueAppHandlerC1EPNS_6PluginE
libKPim5KontactInterface.so.5:_ZN16KontactInterface16UniqueAppHandlerC2EPNS_6PluginE
libKPim5KontactInterface.so.5:_ZN16KontactInterface16UniqueAppHandlerD0Ev
libKPim5KontactInterface.so.5:_ZN16KontactInterface16UniqueAppHandlerD1Ev
libKPim5KontactInterface.so.5:_ZN16KontactInterface16UniqueAppHandlerD2Ev
libKPim5KontactInterface.so.5:_ZN16KontactInterface16UniqueAppWatcher11qt_metacallEN11QMetaObject4CallEiPPv
libKPim5KontactInterface.so.5:_ZN16KontactInterface16UniqueAppWatcher11qt_metacastEPKc
libKPim5KontactInterface.so.5:_ZN16KontactInterface16UniqueAppWatcher16staticMetaObjectE
libKPim5KontactInterface.so.5:_ZN16KontactInterface16UniqueAppWatcher22slotApplicationRemovedERK7QStringS3_S3_
libKPim5KontactInterface.so.5:_ZN16KontactInterface16UniqueAppWatcherC1EPNS_27UniqueAppHandlerFactoryBaseEPNS_6PluginE
libKPim5KontactInterface.so.5:_ZN16KontactInterface16UniqueAppWatcherC2EPNS_27UniqueAppHandlerFactoryBaseEPNS_6PluginE
libKPim5KontactInterface.so.5:_ZN16KontactInterface16UniqueAppWatcherD0Ev
libKPim5KontactInterface.so.5:_ZN16KontactInterface16UniqueAppWatcherD1Ev
libKPim5KontactInterface.so.5:_ZN16KontactInterface16UniqueAppWatcherD2Ev
libKPim5KontactInterface.so.5:_ZN16KontactInterface20PimUniqueApplication11newInstanceERK10QByteArrayRK11QStringListRK7QString
libKPim5KontactInterface.so.5:_ZN16KontactInterface20PimUniqueApplication11newInstanceEv
libKPim5KontactInterface.so.5:_ZN16KontactInterface20PimUniqueApplication11qt_metacallEN11QMetaObject4CallEiPPv
libKPim5KontactInterface.so.5:_ZN16KontactInterface20PimUniqueApplication11qt_metacastEPKc
libKPim5KontactInterface.so.5:_ZN16KontactInterface20PimUniqueApplication12setAboutDataER10KAboutData
libKPim5KontactInterface.so.5:_ZN16KontactInterface20PimUniqueApplication16staticMetaObjectE
libKPim5KontactInterface.so.5:_ZN16KontactInterface20PimUniqueApplication5startERK11QStringList
libKPim5KontactInterface.so.5:_ZN16KontactInterface20PimUniqueApplication8activateERK11QStringListRK7QString
libKPim5KontactInterface.so.5:_ZN16KontactInterface20PimUniqueApplicationC1ERiPPPc
libKPim5KontactInterface.so.5:_ZN16KontactInterface20PimUniqueApplicationC2ERiPPPc
libKPim5KontactInterface.so.5:_ZN16KontactInterface20PimUniqueApplicationD0Ev
libKPim5KontactInterface.so.5:_ZN16KontactInterface20PimUniqueApplicationD1Ev
libKPim5KontactInterface.so.5:_ZN16KontactInterface20PimUniqueApplicationD2Ev
libKPim5KontactInterface.so.5:_ZN16KontactInterface4Core10createPartEPKc
libKPim5KontactInterface.so.5:_ZN16KontactInterface4Core10dayChangedERK5QDate
libKPim5KontactInterface.so.5:_ZN16KontactInterface4Core11qt_metacallEN11QMetaObject4CallEiPPv
libKPim5KontactInterface.so.5:_ZN16KontactInterface4Core11qt_metacastEPKc
libKPim5KontactInterface.so.5:_ZN16KontactInterface4Core16staticMetaObjectE
libKPim5KontactInterface.so.5:_ZN16KontactInterface4CoreC1EP7QWidget6QFlagsIN2Qt10WindowTypeEE
libKPim5KontactInterface.so.5:_ZN16KontactInterface4CoreC2EP7QWidget6QFlagsIN2Qt10WindowTypeEE
libKPim5KontactInterface.so.5:_ZN16KontactInterface4CoreD0Ev
libKPim5KontactInterface.so.5:_ZN16KontactInterface4CoreD1Ev
libKPim5KontactInterface.so.5:_ZN16KontactInterface4CoreD2Ev
libKPim5KontactInterface.so.5:_ZN16KontactInterface6Plugin11qt_metacallEN11QMetaObject4CallEiPPv
libKPim5KontactInterface.so.5:_ZN16KontactInterface6Plugin11qt_metacastEPKc
libKPim5KontactInterface.so.5:_ZN16KontactInterface6Plugin11setDisabledEb
libKPim5KontactInterface.so.5:_ZN16KontactInterface6Plugin12virtual_hookEiPv
libKPim5KontactInterface.so.5:_ZN16KontactInterface6Plugin13aboutToSelectEv
libKPim5KontactInterface.so.5:_ZN16KontactInterface6Plugin13configUpdatedEv
libKPim5KontactInterface.so.5:_ZN16KontactInterface6Plugin13setIdentifierERK7QString
libKPim5KontactInterface.so.5:_ZN16KontactInterface6Plugin14readPropertiesERK12KConfigGroup
libKPim5KontactInterface.so.5:_ZN16KontactInterface6Plugin14registerClientEv
libKPim5KontactInterface.so.5:_ZN16KontactInterface6Plugin14savePropertiesER12KConfigGroup
libKPim5KontactInterface.so.5:_ZN16KontactInterface6Plugin15insertNewActionEP7QAction
libKPim5KontactInterface.so.5:_ZN16KontactInterface6Plugin15shortcutChangedEv
libKPim5KontactInterface.so.5:_ZN16KontactInterface6Plugin16insertSyncActionEP7QAction
libKPim5KontactInterface.so.5:_ZN16KontactInterface6Plugin16processDropEventEP10QDropEvent
libKPim5KontactInterface.so.5:_ZN16KontactInterface6Plugin16setShowInSideBarEb
libKPim5KontactInterface.so.5:_ZN16KontactInterface6Plugin16staticMetaObjectE
libKPim5KontactInterface.so.5:_ZN16KontactInterface6Plugin17bringToForegroundEv
libKPim5KontactInterface.so.5:_ZN16KontactInterface6Plugin17setExecutableNameERK7QString
libKPim5KontactInterface.so.5:_ZN16KontactInterface6Plugin17slotConfigUpdatedEv
libKPim5KontactInterface.so.5:_ZN16KontactInterface6Plugin18setPartLibraryNameERK10QByteArray
libKPim5KontactInterface.so.5:_ZN16KontactInterface6Plugin19createSummaryWidgetEP7QWidget
libKPim5KontactInterface.so.5:_ZN16KontactInterface6Plugin4partEv
libKPim5KontactInterface.so.5:_ZN16KontactInterface6Plugin6selectEv
libKPim5KontactInterface.so.5:_ZN16KontactInterface6Plugin7setIconERK7QString
libKPim5KontactInterface.so.5:_ZN16KontactInterface6Plugin8loadPartEv
libKPim5KontactInterface.so.5:_ZN16KontactInterface6Plugin8setTitleERK7QString
libKPim5KontactInterface.so.5:_ZN16KontactInterface6Plugin9aboutDataEv
libKPim5KontactInterface.so.5:_ZN16KontactInterface6PluginC1EPNS_4CoreEP7QObjectRK15KPluginMetaDataPKcS9_
libKPim5KontactInterface.so.5:_ZN16KontactInterface6PluginC2EPNS_4CoreEP7QObjectRK15KPluginMetaDataPKcS9_
libKPim5KontactInterface.so.5:_ZN16KontactInterface6PluginD0Ev
libKPim5KontactInterface.so.5:_ZN16KontactInterface6PluginD1Ev
libKPim5KontactInterface.so.5:_ZN16KontactInterface6PluginD2Ev
libKPim5KontactInterface.so.5:_ZN16KontactInterface7Summary11qt_metacallEN11QMetaObject4CallEiPPv
libKPim5KontactInterface.so.5:_ZN16KontactInterface7Summary11qt_metacastEPKc
libKPim5KontactInterface.so.5:_ZN16KontactInterface7Summary12createHeaderEP7QWidgetRK7QStringS5_
libKPim5KontactInterface.so.5:_ZN16KontactInterface7Summary13configChangedEv
libKPim5KontactInterface.so.5:_ZN16KontactInterface7Summary13updateSummaryEb
libKPim5KontactInterface.so.5:_ZN16KontactInterface7Summary14dragEnterEventEP15QDragEnterEvent
libKPim5KontactInterface.so.5:_ZN16KontactInterface7Summary14mouseMoveEventEP11QMouseEvent
libKPim5KontactInterface.so.5:_ZN16KontactInterface7Summary15mousePressEventEP11QMouseEvent
libKPim5KontactInterface.so.5:_ZN16KontactInterface7Summary16staticMetaObjectE
libKPim5KontactInterface.so.5:_ZN16KontactInterface7Summary20summaryWidgetDroppedEP7QWidgetP7QObjecti
libKPim5KontactInterface.so.5:_ZN16KontactInterface7Summary7messageERK7QString
libKPim5KontactInterface.so.5:_ZN16KontactInterface7Summary9dropEventEP10QDropEvent
libKPim5KontactInterface.so.5:_ZN16KontactInterface7SummaryC1EP7QWidget
libKPim5KontactInterface.so.5:_ZN16KontactInterface7SummaryC2EP7QWidget
libKPim5KontactInterface.so.5:_ZN16KontactInterface7SummaryD0Ev
libKPim5KontactInterface.so.5:_ZN16KontactInterface7SummaryD1Ev
libKPim5KontactInterface.so.5:_ZN16KontactInterface7SummaryD2Ev
libKPim5KontactInterface.so.5:_ZNK16KontactInterface16UniqueAppHandler10metaObjectEv
libKPim5KontactInterface.so.5:_ZNK16KontactInterface16UniqueAppHandler6pluginEv
libKPim5KontactInterface.so.5:_ZNK16KontactInterface16UniqueAppWatcher10metaObjectEv
libKPim5KontactInterface.so.5:_ZNK16KontactInterface16UniqueAppWatcher19isRunningStandaloneEv
libKPim5KontactInterface.so.5:_ZNK16KontactInterface20PimUniqueApplication10metaObjectEv
libKPim5KontactInterface.so.5:_ZNK16KontactInterface20PimUniqueApplication7cmdArgsEv
libKPim5KontactInterface.so.5:_ZNK16KontactInterface4Core10metaObjectEv
libKPim5KontactInterface.so.5:_ZNK16KontactInterface4Core16lastErrorMessageEv
libKPim5KontactInterface.so.5:_ZNK16KontactInterface6Plugin10identifierEv
libKPim5KontactInterface.so.5:_ZNK16KontactInterface6Plugin10metaObjectEv
libKPim5KontactInterface.so.5:_ZNK16KontactInterface6Plugin10newActionsEv
libKPim5KontactInterface.so.5:_ZNK16KontactInterface6Plugin10queryCloseEv
libKPim5KontactInterface.so.5:_ZNK16KontactInterface6Plugin11syncActionsEv
libKPim5KontactInterface.so.5:_ZNK16KontactInterface6Plugin13showInSideBarEv
libKPim5KontactInterface.so.5:_ZNK16KontactInterface6Plugin14executableNameEv
libKPim5KontactInterface.so.5:_ZNK16KontactInterface6Plugin17canDecodeMimeDataEPK9QMimeData
libKPim5KontactInterface.so.5:_ZNK16KontactInterface6Plugin19isRunningStandaloneEv
libKPim5KontactInterface.so.5:_ZNK16KontactInterface6Plugin23invisibleToolbarActionsEv
libKPim5KontactInterface.so.5:_ZNK16KontactInterface6Plugin4coreEv
libKPim5KontactInterface.so.5:_ZNK16KontactInterface6Plugin4iconEv
libKPim5KontactInterface.so.5:_ZNK16KontactInterface6Plugin5titleEv
libKPim5KontactInterface.so.5:_ZNK16KontactInterface6Plugin6weightEv
libKPim5KontactInterface.so.5:_ZNK16KontactInterface6Plugin8disabledEv
libKPim5KontactInterface.so.5:_ZNK16KontactInterface7Summary10metaObjectEv
libKPim5KontactInterface.so.5:_ZNK16KontactInterface7Summary13configModulesEv
libKPim5KontactInterface.so.5:_ZNK16KontactInterface7Summary13summaryHeightEv
libKPim5KontactInterface.so.5:_ZThn16_N16KontactInterface4CoreD0Ev
libKPim5KontactInterface.so.5:_ZThn16_N16KontactInterface4CoreD1Ev
libKPim5KontactInterface.so.5:_ZThn16_N16KontactInterface7SummaryD0Ev
libKPim5KontactInterface.so.5:_ZThn16_N16KontactInterface7SummaryD1Ev
libKPim5KontactInterface.so.5:_ZThn56_N16KontactInterface4CoreD0Ev
libKPim5KontactInterface.so.5:_ZThn56_N16KontactInterface4CoreD1Ev
libKPim5KontactInterface.so.5:_ZTv0_n128_N16KontactInterface6Plugin12virtual_hookEiPv
libKPim5KontactInterface.so.5:_ZTv0_n24_N16KontactInterface4CoreD0Ev
libKPim5KontactInterface.so.5:_ZTv0_n24_N16KontactInterface4CoreD1Ev
libKPim5KontactInterface.so.5:_ZTv0_n24_N16KontactInterface6PluginD0Ev
libKPim5KontactInterface.so.5:_ZTv0_n24_N16KontactInterface6PluginD1Ev
libKPim5KontactInterface.so.5:_ZTv0_n32_N16KontactInterface4CoreD0Ev
libKPim5KontactInterface.so.5:_ZTv0_n32_N16KontactInterface4CoreD1Ev
