liboauth2plugin.so:_ZN14OAuth2PluginNS10BasePlugin11postRequestERK15QNetworkRequestRK10QByteArray
liboauth2plugin.so:_ZN14OAuth2PluginNS10BasePlugin11qt_metacallEN11QMetaObject4CallEiPPv
liboauth2plugin.so:_ZN14OAuth2PluginNS10BasePlugin11qt_metacastEPKc
liboauth2plugin.so:_ZN14OAuth2PluginNS10BasePlugin11serverReplyEP13QNetworkReply
liboauth2plugin.so:_ZN14OAuth2PluginNS10BasePlugin13statusChangedE15AuthPluginStateRK7QString
liboauth2plugin.so:_ZN14OAuth2PluginNS10BasePlugin14handleUiErrorsERKN6SignOn13UiSessionDataE
liboauth2plugin.so:_ZN14OAuth2PluginNS10BasePlugin14onNetworkErrorEN13QNetworkReply12NetworkErrorE
liboauth2plugin.so:_ZN14OAuth2PluginNS10BasePlugin14onPostFinishedEv
liboauth2plugin.so:_ZN14OAuth2PluginNS10BasePlugin15handleSslErrorsE5QListI9QSslErrorE
liboauth2plugin.so:_ZN14OAuth2PluginNS10BasePlugin16staticMetaObjectE
liboauth2plugin.so:_ZN14OAuth2PluginNS10BasePlugin18handleNetworkErrorEP13QNetworkReplyNS1_12NetworkErrorE
liboauth2plugin.so:_ZN14OAuth2PluginNS10BasePlugin18userActionRequiredERKN6SignOn13UiSessionDataE
liboauth2plugin.so:_ZN14OAuth2PluginNS10BasePlugin23setNetworkAccessManagerEP21QNetworkAccessManager
liboauth2plugin.so:_ZN14OAuth2PluginNS10BasePlugin5errorERKN6SignOn5ErrorE
liboauth2plugin.so:_ZN14OAuth2PluginNS10BasePlugin5storeERKN6SignOn11SessionDataE
liboauth2plugin.so:_ZN14OAuth2PluginNS10BasePlugin6cancelEv
liboauth2plugin.so:_ZN14OAuth2PluginNS10BasePlugin6resultERKN6SignOn11SessionDataE
liboauth2plugin.so:_ZN14OAuth2PluginNS10BasePlugin7refreshERKN6SignOn13UiSessionDataE
liboauth2plugin.so:_ZN14OAuth2PluginNS10BasePlugin9refreshedERKN6SignOn13UiSessionDataE
liboauth2plugin.so:_ZN14OAuth2PluginNS10BasePluginC2EP7QObject
liboauth2plugin.so:_ZN14OAuth2PluginNS10BasePluginD0Ev
liboauth2plugin.so:_ZN14OAuth2PluginNS10BasePluginD1Ev
liboauth2plugin.so:_ZN14OAuth2PluginNS10BasePluginD2Ev
liboauth2plugin.so:_ZN14OAuth2PluginNS12OAuth1Plugin10mechanismsEv
liboauth2plugin.so:_ZN14OAuth2PluginNS12OAuth1Plugin11qt_metacallEN11QMetaObject4CallEiPPv
liboauth2plugin.so:_ZN14OAuth2PluginNS12OAuth1Plugin11qt_metacastEPKc
liboauth2plugin.so:_ZN14OAuth2PluginNS12OAuth1Plugin11serverReplyEP13QNetworkReply
liboauth2plugin.so:_ZN14OAuth2PluginNS12OAuth1Plugin12hashHMACSHA1ERK10QByteArrayS3_
liboauth2plugin.so:_ZN14OAuth2PluginNS12OAuth1Plugin13validateInputERKN6SignOn11SessionDataERK7QString
liboauth2plugin.so:_ZN14OAuth2PluginNS12OAuth1Plugin14parseTextReplyERK10QByteArray
liboauth2plugin.so:_ZN14OAuth2PluginNS12OAuth1Plugin16staticMetaObjectE
liboauth2plugin.so:_ZN14OAuth2PluginNS12OAuth1Plugin17handleOAuth1ErrorERK10QByteArray
liboauth2plugin.so:_ZN14OAuth2PluginNS12OAuth1Plugin18createOAuth1HeaderERK7QStringNS_16OAuth1PluginDataE
liboauth2plugin.so:_ZN14OAuth2PluginNS12OAuth1Plugin18userActionFinishedERKN6SignOn13UiSessionDataE
liboauth2plugin.so:_ZN14OAuth2PluginNS12OAuth1Plugin21oauth1responseFromMapERK4QMapI7QString8QVariantE
liboauth2plugin.so:_ZN14OAuth2PluginNS12OAuth1Plugin21sendOAuth1AuthRequestEv
liboauth2plugin.so:_ZN14OAuth2PluginNS12OAuth1Plugin21sendOAuth1PostRequestEv
liboauth2plugin.so:_ZN14OAuth2PluginNS12OAuth1Plugin22respondWithStoredTokenERK4QMapI7QString8QVariantERKS2_
liboauth2plugin.so:_ZN14OAuth2PluginNS12OAuth1Plugin24handleOAuth1ProblemErrorERK7QString
liboauth2plugin.so:_ZN14OAuth2PluginNS12OAuth1Plugin28constructSignatureBaseStringERK7QStringRKNS_16OAuth1PluginDataES3_S3_
liboauth2plugin.so:_ZN14OAuth2PluginNS12OAuth1Plugin7processERKN6SignOn11SessionDataERK7QString
liboauth2plugin.so:_ZN14OAuth2PluginNS12OAuth1Plugin9urlEncodeE7QString
liboauth2plugin.so:_ZN14OAuth2PluginNS12OAuth1PluginC1EP7QObject
liboauth2plugin.so:_ZN14OAuth2PluginNS12OAuth1PluginC2EP7QObject
liboauth2plugin.so:_ZN14OAuth2PluginNS12OAuth1PluginD0Ev
liboauth2plugin.so:_ZN14OAuth2PluginNS12OAuth1PluginD1Ev
liboauth2plugin.so:_ZN14OAuth2PluginNS12OAuth1PluginD2Ev
liboauth2plugin.so:_ZN14OAuth2PluginNS12OAuth2Plugin10getAuthUrlEv
liboauth2plugin.so:_ZN14OAuth2PluginNS12OAuth2Plugin10mechanismsEv
liboauth2plugin.so:_ZN14OAuth2PluginNS12OAuth2Plugin10parseReplyERK10QByteArrayS3_
liboauth2plugin.so:_ZN14OAuth2PluginNS12OAuth2Plugin11getTokenUrlEv
liboauth2plugin.so:_ZN14OAuth2PluginNS12OAuth2Plugin11qt_metacallEN11QMetaObject4CallEiPPv
liboauth2plugin.so:_ZN14OAuth2PluginNS12OAuth2Plugin11qt_metacastEPKc
liboauth2plugin.so:_ZN14OAuth2PluginNS12OAuth2Plugin11serverReplyEP13QNetworkReply
liboauth2plugin.so:_ZN14OAuth2PluginNS12OAuth2Plugin13storeResponseERKNS_21OAuth2PluginTokenDataE
liboauth2plugin.so:_ZN14OAuth2PluginNS12OAuth2Plugin13validateInputERKN6SignOn11SessionDataERK7QString
liboauth2plugin.so:_ZN14OAuth2PluginNS12OAuth2Plugin14parseJSONReplyERK10QByteArray
liboauth2plugin.so:_ZN14OAuth2PluginNS12OAuth2Plugin14parseTextReplyERK10QByteArray
liboauth2plugin.so:_ZN14OAuth2PluginNS12OAuth2Plugin16staticMetaObjectE
liboauth2plugin.so:_ZN14OAuth2PluginNS12OAuth2Plugin17handleOAuth2ErrorERK10QByteArray
liboauth2plugin.so:_ZN14OAuth2PluginNS12OAuth2Plugin18handleNetworkErrorEP13QNetworkReplyNS1_12NetworkErrorE
liboauth2plugin.so:_ZN14OAuth2PluginNS12OAuth2Plugin18refreshOAuth2TokenERK7QString
liboauth2plugin.so:_ZN14OAuth2PluginNS12OAuth2Plugin18userActionFinishedERKN6SignOn13UiSessionDataE
liboauth2plugin.so:_ZN14OAuth2PluginNS12OAuth2Plugin21sendOAuth2AuthRequestEv
liboauth2plugin.so:_ZN14OAuth2PluginNS12OAuth2Plugin21sendOAuth2PostRequestER9QUrlQueryNS_9GrantType1eE
liboauth2plugin.so:_ZN14OAuth2PluginNS12OAuth2Plugin22respondWithStoredTokenERK4QMapI7QString8QVariantERK5QListIS2_E
liboauth2plugin.so:_ZN14OAuth2PluginNS12OAuth2Plugin7processERKN6SignOn11SessionDataERK7QString
liboauth2plugin.so:_ZN14OAuth2PluginNS12OAuth2Plugin9urlEncodeE7QString
liboauth2plugin.so:_ZN14OAuth2PluginNS12OAuth2PluginC1EP7QObject
liboauth2plugin.so:_ZN14OAuth2PluginNS12OAuth2PluginC2EP7QObject
liboauth2plugin.so:_ZN14OAuth2PluginNS12OAuth2PluginD0Ev
liboauth2plugin.so:_ZN14OAuth2PluginNS12OAuth2PluginD1Ev
liboauth2plugin.so:_ZN14OAuth2PluginNS12OAuth2PluginD2Ev
liboauth2plugin.so:_ZN14OAuth2PluginNS17BasePluginPrivate12disposeReplyEv
liboauth2plugin.so:_ZN14OAuth2PluginNS17BasePluginPrivateC1EPNS_10BasePluginE
liboauth2plugin.so:_ZN14OAuth2PluginNS17BasePluginPrivateC2EPNS_10BasePluginE
liboauth2plugin.so:_ZN14OAuth2PluginNS17BasePluginPrivateD1Ev
liboauth2plugin.so:_ZN14OAuth2PluginNS17BasePluginPrivateD2Ev
liboauth2plugin.so:_ZN14OAuth2PluginNS6Plugin11qt_metacallEN11QMetaObject4CallEiPPv
liboauth2plugin.so:_ZN14OAuth2PluginNS6Plugin11qt_metacastEPKc
liboauth2plugin.so:_ZN14OAuth2PluginNS6Plugin16staticMetaObjectE
liboauth2plugin.so:_ZN14OAuth2PluginNS6Plugin18userActionFinishedERKN6SignOn13UiSessionDataE
liboauth2plugin.so:_ZN14OAuth2PluginNS6Plugin6cancelEv
liboauth2plugin.so:_ZN14OAuth2PluginNS6Plugin7processERKN6SignOn11SessionDataERK7QString
liboauth2plugin.so:_ZN14OAuth2PluginNS6Plugin7refreshERKN6SignOn13UiSessionDataE
liboauth2plugin.so:_ZN14OAuth2PluginNS6PluginC1EP7QObject
liboauth2plugin.so:_ZN14OAuth2PluginNS6PluginC2EP7QObject
liboauth2plugin.so:_ZN14OAuth2PluginNS6PluginD0Ev
liboauth2plugin.so:_ZN14OAuth2PluginNS6PluginD1Ev
liboauth2plugin.so:_ZN14OAuth2PluginNS6PluginD2Ev
liboauth2plugin.so:_ZNK14OAuth2PluginNS10BasePlugin10metaObjectEv
liboauth2plugin.so:_ZNK14OAuth2PluginNS10BasePlugin20networkAccessManagerEv
liboauth2plugin.so:_ZNK14OAuth2PluginNS12OAuth1Plugin10metaObjectEv
liboauth2plugin.so:_ZNK14OAuth2PluginNS12OAuth2Plugin10metaObjectEv
liboauth2plugin.so:_ZNK14OAuth2PluginNS6Plugin10mechanismsEv
liboauth2plugin.so:_ZNK14OAuth2PluginNS6Plugin10metaObjectEv
liboauth2plugin.so:_ZNK14OAuth2PluginNS6Plugin4typeEv
liboauth2plugin.so:_ZTVN14OAuth2PluginNS10BasePluginE
liboauth2plugin.so:_ZTVN14OAuth2PluginNS12OAuth1PluginE
liboauth2plugin.so:_ZTVN14OAuth2PluginNS12OAuth2PluginE
liboauth2plugin.so:_ZTVN14OAuth2PluginNS6PluginE
liboauth2plugin.so:auth_plugin_instance
