UNKNOWN:_ZNK6Attica7ListJobINS_7CommentEE8itemListEv
libAppStreamQt.so.3:_ZN9AppStream10LaunchableD1Ev
libAppStreamQt.so.3:_ZN9AppStream10ScreenshotD1Ev
libAppStreamQt.so.3:_ZN9AppStream10SystemInfo24currentDistroComponentIdEv
libAppStreamQt.so.3:_ZN9AppStream10SystemInfo25hasDeviceMatchingModaliasERK7QString
libAppStreamQt.so.3:_ZN9AppStream10SystemInfoC1Ev
libAppStreamQt.so.3:_ZN9AppStream10SystemInfoD1Ev
libAppStreamQt.so.3:_ZN9AppStream11ReleaseListD1Ev
libAppStreamQt.so.3:_ZN9AppStream12ComponentBox5eraseENS0_8iteratorE
libAppStreamQt.so.3:_ZN9AppStream12ComponentBoxC1E6QFlagsINS0_4FlagEE
libAppStreamQt.so.3:_ZN9AppStream12ComponentBoxC1ERKS0_
libAppStreamQt.so.3:_ZN9AppStream12ComponentBoxD1Ev
libAppStreamQt.so.3:_ZN9AppStream12ComponentBoxaSERKS0_
libAppStreamQt.so.3:_ZN9AppStream12ComponentBoxpLERKS0_
libAppStreamQt.so.3:_ZN9AppStream13ContentRatingD1Ev
libAppStreamQt.so.3:_ZN9AppStream4Icon6setUrlERK4QUrl
libAppStreamQt.so.3:_ZN9AppStream4Icon7setKindENS0_4KindE
libAppStreamQt.so.3:_ZN9AppStream4IconC1ERKS0_
libAppStreamQt.so.3:_ZN9AppStream4IconC1Ev
libAppStreamQt.so.3:_ZN9AppStream4IconD1Ev
libAppStreamQt.so.3:_ZN9AppStream4Pool12loadFinishedEb
libAppStreamQt.so.3:_ZN9AppStream4Pool16staticMetaObjectE
libAppStreamQt.so.3:_ZN9AppStream4Pool20addExtraDataLocationERK7QStringNS_8Metadata11FormatStyleE
libAppStreamQt.so.3:_ZN9AppStream4Pool23setLoadStdDataLocationsEb
libAppStreamQt.so.3:_ZN9AppStream4Pool4loadEv
libAppStreamQt.so.3:_ZN9AppStream4Pool9loadAsyncEv
libAppStreamQt.so.3:_ZN9AppStream4PoolC1EP7QObject
libAppStreamQt.so.3:_ZN9AppStream4PoolD1Ev
libAppStreamQt.so.3:_ZN9AppStream4SPDX10licenseUrlERK7QString
libAppStreamQt.so.3:_ZN9AppStream4SPDX11isLicenseIdERK7QString
libAppStreamQt.so.3:_ZN9AppStream4SPDX13isFreeLicenseERK7QString
libAppStreamQt.so.3:_ZN9AppStream4SPDX15tokenizeLicenseERK7QString
libAppStreamQt.so.3:_ZN9AppStream4SPDX8asSpdxIdERK7QString
libAppStreamQt.so.3:_ZN9AppStream5ImageC1ERKS0_
libAppStreamQt.so.3:_ZN9AppStream5ImageC1Ev
libAppStreamQt.so.3:_ZN9AppStream5ImageD1Ev
libAppStreamQt.so.3:_ZN9AppStream5Utils12vercmpSimpleERK7QStringS3_
libAppStreamQt.so.3:_ZN9AppStream6Bundle5setIdERK7QString
libAppStreamQt.so.3:_ZN9AppStream6Bundle7setKindENS0_4KindE
libAppStreamQt.so.3:_ZN9AppStream6BundleC1Ev
libAppStreamQt.so.3:_ZN9AppStream6BundleD1Ev
libAppStreamQt.so.3:_ZN9AppStream7ReleaseC1ERKS0_
libAppStreamQt.so.3:_ZN9AppStream7ReleaseD1Ev
libAppStreamQt.so.3:_ZN9AppStream7ReleaseaSERKS0_
libAppStreamQt.so.3:_ZN9AppStream8Metadata14setFormatStyleENS0_11FormatStyleE
libAppStreamQt.so.3:_ZN9AppStream8Metadata16staticMetaObjectE
libAppStreamQt.so.3:_ZN9AppStream8Metadata5parseERK7QStringNS0_10FormatKindE
libAppStreamQt.so.3:_ZN9AppStream8Metadata9parseFileERK7QStringNS0_10FormatKindE
libAppStreamQt.so.3:_ZN9AppStream8MetadataC1ERKS0_
libAppStreamQt.so.3:_ZN9AppStream8MetadataC1Ev
libAppStreamQt.so.3:_ZN9AppStream8MetadataD1Ev
libAppStreamQt.so.3:_ZN9AppStream8ProvidedD1Ev
libAppStreamQt.so.3:_ZN9AppStream9Component10setSummaryERK7QStringS3_
libAppStreamQt.so.3:_ZN9AppStream9Component14setDescriptionERK7QStringS3_
libAppStreamQt.so.3:_ZN9AppStream9Component5setIdERK7QString
libAppStreamQt.so.3:_ZN9AppStream9Component6addUrlENS0_7UrlKindERK7QString
libAppStreamQt.so.3:_ZN9AppStream9Component7addIconERKNS_4IconE
libAppStreamQt.so.3:_ZN9AppStream9Component7setNameERK7QStringS3_
libAppStreamQt.so.3:_ZN9AppStream9ComponentC1ERKS0_
libAppStreamQt.so.3:_ZN9AppStream9ComponentC1Ev
libAppStreamQt.so.3:_ZN9AppStream9ComponentD1Ev
libAppStreamQt.so.3:_ZN9AppStream9ComponentaSERKS0_
libAppStreamQt.so.3:_ZN9AppStream9DeveloperD1Ev
libAppStreamQt.so.3:_ZNK9AppStream10Launchable7entriesEv
libAppStreamQt.so.3:_ZNK9AppStream10Screenshot6imagesEv
libAppStreamQt.so.3:_ZNK9AppStream10Screenshot9mediaKindEv
libAppStreamQt.so.3:_ZNK9AppStream11ReleaseList7entriesEv
libAppStreamQt.so.3:_ZNK9AppStream11ReleaseList7isEmptyEv
libAppStreamQt.so.3:_ZNK9AppStream11ReleaseList9indexSafeEj
libAppStreamQt.so.3:_ZNK9AppStream12ComponentBox4sizeEv
libAppStreamQt.so.3:_ZNK9AppStream12ComponentBox7isEmptyEv
libAppStreamQt.so.3:_ZNK9AppStream12ComponentBox8iteratordeEv
libAppStreamQt.so.3:_ZNK9AppStream12ComponentBox9indexSafeEj
libAppStreamQt.so.3:_ZNK9AppStream13ContentRating10minimumAgeEv
libAppStreamQt.so.3:_ZNK9AppStream13ContentRating11descriptionERK7QString
libAppStreamQt.so.3:_ZNK9AppStream13ContentRating5valueERK7QString
libAppStreamQt.so.3:_ZNK9AppStream13ContentRating9ratingIdsEv
libAppStreamQt.so.3:_ZNK9AppStream4Icon3urlEv
libAppStreamQt.so.3:_ZNK9AppStream4Icon4kindEv
libAppStreamQt.so.3:_ZNK9AppStream4Icon4nameEv
libAppStreamQt.so.3:_ZNK9AppStream4Icon4sizeEv
libAppStreamQt.so.3:_ZNK9AppStream4Pool10componentsEv
libAppStreamQt.so.3:_ZNK9AppStream4Pool14componentsByIdERK7QString
libAppStreamQt.so.3:_ZNK9AppStream4Pool16componentsByKindENS_9Component4KindE
libAppStreamQt.so.3:_ZNK9AppStream4Pool19componentsByExtendsERK7QString
libAppStreamQt.so.3:_ZNK9AppStream4Pool20componentsByBundleIdENS_6Bundle4KindERK7QStringb
libAppStreamQt.so.3:_ZNK9AppStream4Pool20componentsByProvidedENS_8Provided4KindERK7QString
libAppStreamQt.so.3:_ZNK9AppStream4Pool22componentsByCategoriesERK5QListI7QStringE
libAppStreamQt.so.3:_ZNK9AppStream4Pool22componentsByLaunchableENS_10Launchable4KindERK7QString
libAppStreamQt.so.3:_ZNK9AppStream4Pool6searchERK7QString
libAppStreamQt.so.3:_ZNK9AppStream4Pool9lastErrorEv
libAppStreamQt.so.3:_ZNK9AppStream5Image3urlEv
libAppStreamQt.so.3:_ZNK9AppStream5Image4kindEv
libAppStreamQt.so.3:_ZNK9AppStream5Image4sizeEv
libAppStreamQt.so.3:_ZNK9AppStream6Bundle2idEv
libAppStreamQt.so.3:_ZNK9AppStream6Bundle7isEmptyEv
libAppStreamQt.so.3:_ZNK9AppStream7Release11descriptionEv
libAppStreamQt.so.3:_ZNK9AppStream7Release12timestampEolEv
libAppStreamQt.so.3:_ZNK9AppStream7Release4kindEv
libAppStreamQt.so.3:_ZNK9AppStream7Release7versionEv
libAppStreamQt.so.3:_ZNK9AppStream7Release9timestampEv
libAppStreamQt.so.3:_ZNK9AppStream8Metadata10componentsEv
libAppStreamQt.so.3:_ZNK9AppStream8Metadata9componentEv
libAppStreamQt.so.3:_ZNK9AppStream8Provided5itemsEv
libAppStreamQt.so.3:_ZNK9AppStream9Component10launchableENS_10Launchable4KindE
libAppStreamQt.so.3:_ZNK9AppStream9Component11customValueERK7QString
libAppStreamQt.so.3:_ZNK9AppStream9Component11descriptionEv
libAppStreamQt.so.3:_ZNK9AppStream9Component11hasCategoryERK7QString
libAppStreamQt.so.3:_ZNK9AppStream9Component12packageNamesEv
libAppStreamQt.so.3:_ZNK9AppStream9Component12projectGroupEv
libAppStreamQt.so.3:_ZNK9AppStream9Component13releasesPlainEv
libAppStreamQt.so.3:_ZNK9AppStream9Component14contentRatingsEv
libAppStreamQt.so.3:_ZNK9AppStream9Component14projectLicenseEv
libAppStreamQt.so.3:_ZNK9AppStream9Component14screenshotsAllEv
libAppStreamQt.so.3:_ZNK9AppStream9Component21compulsoryForDesktopsEv
libAppStreamQt.so.3:_ZNK9AppStream9Component22isCompulsoryForDesktopERK7QString
libAppStreamQt.so.3:_ZNK9AppStream9Component2idEv
libAppStreamQt.so.3:_ZNK9AppStream9Component3urlENS0_7UrlKindE
libAppStreamQt.so.3:_ZNK9AppStream9Component4kindEv
libAppStreamQt.so.3:_ZNK9AppStream9Component4nameEv
libAppStreamQt.so.3:_ZNK9AppStream9Component5iconsEv
libAppStreamQt.so.3:_ZNK9AppStream9Component6bundleENS_6Bundle4KindE
libAppStreamQt.so.3:_ZNK9AppStream9Component7extendsEv
libAppStreamQt.so.3:_ZNK9AppStream9Component7isValidEv
libAppStreamQt.so.3:_ZNK9AppStream9Component7summaryEv
libAppStreamQt.so.3:_ZNK9AppStream9Component8providedENS_8Provided4KindE
libAppStreamQt.so.3:_ZNK9AppStream9Component9addBundleERKNS_6BundleE
libAppStreamQt.so.3:_ZNK9AppStream9Component9developerEv
libAppStreamQt.so.3:_ZNK9AppStream9Component9sortScoreEv
libAppStreamQt.so.3:_ZNK9AppStream9Developer4nameEv
libKF6Attica.so.6:_ZN6Attica7BaseJob16staticMetaObjectE
libKF6Attica.so.6:_ZN6Attica7BaseJob5startEv
libKF6Attica.so.6:_ZN6Attica7BaseJob8finishedEPS0_
libKF6Attica.so.6:_ZN6Attica7CommentD1Ev
libKF6Attica.so.6:_ZN6Attica8Provider13addNewCommentENS_7Comment4TypeERK7QStringS5_S5_S5_S5_
libKF6Attica.so.6:_ZN6Attica8Provider14hasCredentialsEv
libKF6Attica.so.6:_ZN6Attica8Provider14voteForCommentERK7QStringj
libKF6Attica.so.6:_ZN6Attica8Provider14voteForContentERK7QStringj
libKF6Attica.so.6:_ZN6Attica8Provider15loadCredentialsER7QStringS2_
libKF6Attica.so.6:_ZN6Attica8Provider15requestCommentsENS_7Comment4TypeERK7QStringS5_ii
libKF6Attica.so.6:_ZN6Attica8Provider15saveCredentialsERK7QStringS3_
libKF6Attica.so.6:_ZN6Attica8ProviderC1ERKS0_
libKF6Attica.so.6:_ZN6Attica8ProviderC1Ev
libKF6Attica.so.6:_ZN6Attica8ProviderD1Ev
libKF6Attica.so.6:_ZNK6Attica7Comment10childCountEv
libKF6Attica.so.6:_ZNK6Attica7Comment2idEv
libKF6Attica.so.6:_ZNK6Attica7Comment4dateEv
libKF6Attica.so.6:_ZNK6Attica7Comment4textEv
libKF6Attica.so.6:_ZNK6Attica7Comment4userEv
libKF6Attica.so.6:_ZNK6Attica7Comment5scoreEv
libKF6Attica.so.6:_ZNK6Attica7Comment7subjectEv
libKF6Attica.so.6:_ZNK6Attica7Comment8childrenEv
libKF6Attica.so.6:_ZNK6Attica8Provider4nameEv
libKF6Attica.so.6:_ZNK6Attica8Provider7baseUrlEv
libKF6ConfigCore.so.6:_ZN11KConfigBase5groupERK7QString
libKF6ConfigCore.so.6:_ZN12KConfigGroup10writeEntryEPKcRK5QListI7QStringE6QFlagsIN11KConfigBase15WriteConfigFlagEE
libKF6ConfigCore.so.6:_ZN12KConfigGroup10writeEntryEPKcRK7QString6QFlagsIN11KConfigBase15WriteConfigFlagEE
libKF6ConfigCore.so.6:_ZN12KConfigGroup10writeEntryEPKcRK8QVariant6QFlagsIN11KConfigBase15WriteConfigFlagEE
libKF6ConfigCore.so.6:_ZN12KConfigGroup11deleteEntryEPKc6QFlagsIN11KConfigBase15WriteConfigFlagEE
libKF6ConfigCore.so.6:_ZN12KConfigGroup12moveValuesToERK5QListIPKcERS_6QFlagsIN11KConfigBase15WriteConfigFlagEE
libKF6ConfigCore.so.6:_ZN12KConfigGroup6configEv
libKF6ConfigCore.so.6:_ZN12KConfigGroupC1EP11KConfigBaseRK7QString
libKF6ConfigCore.so.6:_ZN12KConfigGroupC1ERK28QExplicitlySharedDataPointerI13KSharedConfigERK7QString
libKF6ConfigCore.so.6:_ZN12KConfigGroupD1Ev
libKF6ConfigCore.so.6:_ZN12KDesktopFileC1ERK7QString
libKF6ConfigCore.so.6:_ZN12KDesktopFileD1Ev
libKF6ConfigCore.so.6:_ZN13KSharedConfig10openConfigERK7QString6QFlagsIN7KConfig8OpenFlagEEN14QStandardPaths16StandardLocationE
libKF6ConfigCore.so.6:_ZN13KSharedConfig15openStateConfigERK7QString
libKF6ConfigCore.so.6:_ZN14KConfigWatcher13configChangedERK12KConfigGroupRK5QListI10QByteArrayE
libKF6ConfigCore.so.6:_ZN14KConfigWatcher16staticMetaObjectE
libKF6ConfigCore.so.6:_ZN14KConfigWatcher6createERK28QExplicitlySharedDataPointerI13KSharedConfigE
libKF6ConfigCore.so.6:_ZN19KCoreConfigSkeleton11setDefaultsEv
libKF6ConfigCore.so.6:_ZN19KCoreConfigSkeleton11useDefaultsEb
libKF6ConfigCore.so.6:_ZN19KCoreConfigSkeleton12ItemDateTimeC1ERK7QStringS3_R9QDateTimeRKS4_
libKF6ConfigCore.so.6:_ZN19KCoreConfigSkeleton14usrSetDefaultsEv
libKF6ConfigCore.so.6:_ZN19KCoreConfigSkeleton14usrUseDefaultsEb
libKF6ConfigCore.so.6:_ZN19KCoreConfigSkeleton15setCurrentGroupERK7QString
libKF6ConfigCore.so.6:_ZN19KCoreConfigSkeleton4readEv
libKF6ConfigCore.so.6:_ZN19KCoreConfigSkeleton4saveEv
libKF6ConfigCore.so.6:_ZN19KCoreConfigSkeleton6configEv
libKF6ConfigCore.so.6:_ZN19KCoreConfigSkeleton7ItemIntC1ERK7QStringS3_Rii
libKF6ConfigCore.so.6:_ZN19KCoreConfigSkeleton7addItemEP19KConfigSkeletonItemRK7QString
libKF6ConfigCore.so.6:_ZN19KCoreConfigSkeleton7usrReadEv
libKF6ConfigCore.so.6:_ZN19KCoreConfigSkeleton7usrSaveEv
libKF6ConfigCore.so.6:_ZN19KCoreConfigSkeleton8ItemBoolC1ERK7QStringS3_Rbb
libKF6ConfigCore.so.6:_ZN19KCoreConfigSkeletonD2Ev
libKF6ConfigCore.so.6:_ZN29KConfigCompilerSignallingItem13setWriteFlagsE6QFlagsIN11KConfigBase15WriteConfigFlagEE
libKF6ConfigCore.so.6:_ZN29KConfigCompilerSignallingItemC1EP19KConfigSkeletonItemP7QObjectMS2_FvyEy
libKF6ConfigCore.so.6:_ZN7KConfig4syncEv
libKF6ConfigCore.so.6:_ZN7KConfigC1ERK7QString6QFlagsINS_8OpenFlagEEN14QStandardPaths16StandardLocationE
libKF6ConfigCore.so.6:_ZN7KConfigD1Ev
libKF6ConfigCore.so.6:_ZNK11KConfigBase5groupERK7QString
libKF6ConfigCore.so.6:_ZNK11KConfigBase8hasGroupERK7QString
libKF6ConfigCore.so.6:_ZNK12KConfigGroup4nameEv
libKF6ConfigCore.so.6:_ZNK12KConfigGroup6configEv
libKF6ConfigCore.so.6:_ZNK12KConfigGroup6existsEv
libKF6ConfigCore.so.6:_ZNK12KConfigGroup6hasKeyEPKc
libKF6ConfigCore.so.6:_ZNK12KConfigGroup7keyListEv
libKF6ConfigCore.so.6:_ZNK12KConfigGroup9readEntryEPKcRK5QListI7QStringE
libKF6ConfigCore.so.6:_ZNK12KConfigGroup9readEntryEPKcRK7QString
libKF6ConfigCore.so.6:_ZNK12KConfigGroup9readEntryEPKcRK8QVariant
libKF6ConfigCore.so.6:_ZNK12KConfigGroup9readEntryEPKcS1_
libKF6ConfigCore.so.6:_ZNK12KConfigGroup9readEntryERK7QStringPKc
libKF6ConfigCore.so.6:_ZNK12KDesktopFile11readCommentEv
libKF6ConfigCore.so.6:_ZNK12KDesktopFile8readIconEv
libKF6ConfigCore.so.6:_ZNK12KDesktopFile8readNameEv
libKF6ConfigCore.so.6:_ZNK19KCoreConfigSkeleton11isImmutableERK7QString
libKF6ConfigCore.so.6:_ZNK19KCoreConfigSkeleton12currentGroupEv
libKF6ConfigCore.so.6:_ZNK19KCoreConfigSkeleton12sharedConfigEv
libKF6ConfigCore.so.6:_ZNK7KConfig4nameEv
libKF6ConfigGui.so.6:_ZN15KConfigSkeleton11qt_metacallEN11QMetaObject4CallEiPPv
libKF6ConfigGui.so.6:_ZN15KConfigSkeleton11qt_metacastEPKc
libKF6ConfigGui.so.6:_ZN15KConfigSkeleton16staticMetaObjectE
libKF6ConfigGui.so.6:_ZN15KConfigSkeletonC2E28QExplicitlySharedDataPointerI13KSharedConfigEP7QObject
libKF6ConfigGui.so.6:_ZN15KConfigSkeletonC2ERK7QStringP7QObject
libKF6ConfigGui.so.6:_ZTI15KConfigSkeleton
libKF6CoreAddons.so.6:_ZN10KAboutData13setTranslatorERK7QStringS2_
libKF6CoreAddons.so.6:_ZN10KAboutData14setProductNameERK10QByteArray
libKF6CoreAddons.so.6:_ZN10KAboutData14setProgramLogoERK8QVariant
libKF6CoreAddons.so.6:_ZN10KAboutData15applicationDataEv
libKF6CoreAddons.so.6:_ZN10KAboutData16setupCommandLineEP18QCommandLineParser
libKF6CoreAddons.so.6:_ZN10KAboutData16staticMetaObjectE
libKF6CoreAddons.so.6:_ZN10KAboutData18processCommandLineEP18QCommandLineParser
libKF6CoreAddons.so.6:_ZN10KAboutData18setApplicationDataERKS_
libKF6CoreAddons.so.6:_ZN10KAboutData9addAuthorERK7QStringS2_S2_S2_RK4QUrl
libKF6CoreAddons.so.6:_ZN10KAboutDataC1ERK7QStringS2_S2_
libKF6CoreAddons.so.6:_ZN10KAboutDataC1ERK7QStringS2_S2_S2_N13KAboutLicense10LicenseKeyES2_S2_S2_S2_
libKF6CoreAddons.so.6:_ZN10KAboutDataC1ERKS_
libKF6CoreAddons.so.6:_ZN10KAboutDataD1Ev
libKF6CoreAddons.so.6:_ZN10KAboutDataaSERKS_
libKF6CoreAddons.so.6:_ZN10KOSReleaseC1ERK7QString
libKF6CoreAddons.so.6:_ZN10KOSReleaseD1Ev
libKF6CoreAddons.so.6:_ZN12KAboutPerson16staticMetaObjectE
libKF6CoreAddons.so.6:_ZN12KAboutPersonC1ERK7QStringS2_S2_S2_RK4QUrl
libKF6CoreAddons.so.6:_ZN12KAboutPersonC1ERKS_
libKF6CoreAddons.so.6:_ZN12KAboutPersonD1Ev
libKF6CoreAddons.so.6:_ZN12KAboutPersonaSERKS_
libKF6CoreAddons.so.6:_ZN13KAboutLicense16staticMetaObjectE
libKF6CoreAddons.so.6:_ZN13KAboutLicenseC1ERKS_
libKF6CoreAddons.so.6:_ZN13KAboutLicenseC1Ev
libKF6CoreAddons.so.6:_ZN13KAboutLicenseD1Ev
libKF6CoreAddons.so.6:_ZN13KAboutLicenseaSERKS_
libKF6CoreAddons.so.6:_ZN14KPluginFactory11qt_metacallEN11QMetaObject4CallEiPPv
libKF6CoreAddons.so.6:_ZN14KPluginFactory11qt_metacastEPKc
libKF6CoreAddons.so.6:_ZN14KPluginFactory14registerPluginEPK11QMetaObjectPFP7QObjectP7QWidgetS4_RK15KPluginMetaDataRK5QListI8QVariantEE
libKF6CoreAddons.so.6:_ZN14KPluginFactory16staticMetaObjectE
libKF6CoreAddons.so.6:_ZN14KPluginFactory6createEPKcP7QWidgetP7QObjectRK5QListI8QVariantE
libKF6CoreAddons.so.6:_ZN14KPluginFactoryC2Ev
libKF6CoreAddons.so.6:_ZN14KPluginFactoryD2Ev
libKF6CoreAddons.so.6:_ZN4KJob10emitResultEv
libKF6CoreAddons.so.6:_ZN4KJob10setPercentEm
libKF6CoreAddons.so.6:_ZN4KJob11descriptionEPS_RK7QStringRKSt4pairIS1_S1_ES7_
libKF6CoreAddons.so.6:_ZN4KJob11qt_metacallEN11QMetaObject4CallEiPPv
libKF6CoreAddons.so.6:_ZN4KJob11qt_metacastEPKc
libKF6CoreAddons.so.6:_ZN4KJob13setUiDelegateEP14KJobUiDelegate
libKF6CoreAddons.so.6:_ZN4KJob14setTotalAmountENS_4UnitEy
libKF6CoreAddons.so.6:_ZN4KJob16staticMetaObjectE
libKF6CoreAddons.so.6:_ZN4KJob18setProcessedAmountENS_4UnitEy
libKF6CoreAddons.so.6:_ZN4KJob6doKillEv
libKF6CoreAddons.so.6:_ZN4KJob6resultEPS_NS_14QPrivateSignalE
libKF6CoreAddons.so.6:_ZN4KJob8doResumeEv
libKF6CoreAddons.so.6:_ZN4KJob8finishedEPS_NS_14QPrivateSignalE
libKF6CoreAddons.so.6:_ZN4KJob8setErrorEi
libKF6CoreAddons.so.6:_ZN4KJob9doSuspendEv
libKF6CoreAddons.so.6:_ZN4KJobC2EP7QObject
libKF6CoreAddons.so.6:_ZN4KJobD2Ev
libKF6CoreAddons.so.6:_ZN5KUserC1ENS_7UIDModeE
libKF6CoreAddons.so.6:_ZN5KUserD1Ev
libKF6CoreAddons.so.6:_ZN7KFormatC1ERK7QLocale
libKF6CoreAddons.so.6:_ZN7KFormatD1Ev
libKF6CoreAddons.so.6:_ZNK10KOSRelease10prettyNameEv
libKF6CoreAddons.so.6:_ZNK10KOSRelease12bugReportUrlEv
libKF6CoreAddons.so.6:_ZNK10KOSRelease2idEv
libKF6CoreAddons.so.6:_ZNK10KOSRelease4nameEv
libKF6CoreAddons.so.6:_ZNK10KOSRelease6idLikeEv
libKF6CoreAddons.so.6:_ZNK10KOSRelease9versionIdEv
libKF6CoreAddons.so.6:_ZNK4KJob10metaObjectEv
libKF6CoreAddons.so.6:_ZNK4KJob11errorStringEv
libKF6CoreAddons.so.6:_ZNK4KJob11totalAmountENS_4UnitE
libKF6CoreAddons.so.6:_ZNK4KJob5errorEv
libKF6CoreAddons.so.6:_ZNK5KUser8propertyENS_12UserPropertyE
libKF6CoreAddons.so.6:_ZNK5KUser9loginNameEv
libKF6CoreAddons.so.6:_ZNK7KFormat14formatByteSizeEdiNS_17BinaryUnitDialectENS_15BinarySizeUnitsE
libKF6CoreAddons.so.6:_ZNK7KFormat22formatRelativeDateTimeERK9QDateTimeN7QLocale10FormatTypeE
libKF6CoreAddons.so.6:_ZNK7KFormat22formatSpelloutDurationEy
libKF6CoreAddons.so.6:_ZTI14KPluginFactory
libKF6CoreAddons.so.6:_ZTI4KJob
libKF6Crash.so.6:_ZN6KCrash10initializeEv
libKF6Crash.so.6:_ZN6KCrash15setErrorMessageERK7QString
libKF6Crash.so.6:_ZN6KCrash8setFlagsE6QFlagsINS_9CrashFlagEE
libKF6DBusAddons.so.6:_ZN12KDBusService16staticMetaObjectE
libKF6DBusAddons.so.6:_ZN12KDBusService17activateRequestedERK5QListI7QStringERKS1_
libKF6DBusAddons.so.6:_ZN12KDBusServiceC1E6QFlagsINS_13StartupOptionEEP7QObject
libKF6DBusAddons.so.6:_ZN12KDBusServiceD1Ev
libKF6I18n.so.6:_Z5ki18nPKc
libKF6I18n.so.6:_Z6ki18ncPKcS0_
libKF6I18n.so.6:_Z6ki18ndPKcS0_
libKF6I18n.so.6:_Z7ki18ndcPKcS0_S0_
libKF6I18n.so.6:_Z7ki18ndpPKcS0_S0_
libKF6I18n.so.6:_Z7kxi18ncPKcS0_
libKF6I18n.so.6:_Z8kxi18ndcPKcS0_S0_
libKF6I18n.so.6:_ZN16KLocalizedString20setApplicationDomainERK10QByteArray
libKF6I18n.so.6:_ZN16KLocalizedStringD1Ev
libKF6I18n.so.6:_ZNK16KLocalizedString4subsERK7QStringi5QChar
libKF6I18n.so.6:_ZNK16KLocalizedString4subsEiii5QChar
libKF6I18n.so.6:_ZNK16KLocalizedString4subsExii5QChar
libKF6I18n.so.6:_ZNK16KLocalizedString8toStringEv
libKF6I18nQml.so.6:_ZN20KLocalizedQmlContextC1EP7QObject
libKF6IconThemes.so.6:_ZN11KIconLoader6globalEv
libKF6IconThemes.so.6:_ZNK11KIconLoader10queryIconsEv
libKF6IdleTime.so.6:_ZN9KIdleTime14addIdleTimeoutEi
libKF6IdleTime.so.6:_ZN9KIdleTime14timeoutReachedEii
libKF6IdleTime.so.6:_ZN9KIdleTime16staticMetaObjectE
libKF6IdleTime.so.6:_ZN9KIdleTime17removeIdleTimeoutEi
libKF6IdleTime.so.6:_ZN9KIdleTime8instanceEv
libKF6JobWidgets.so.6:_ZN21KUiServerV2JobTrackerC1EP7QObject
libKF6JobWidgets.so.6:_ZN26KNotificationJobUiDelegateC1E6QFlagsIN14KJobUiDelegate4FlagEE
libKF6KCMUtilsCore.so.6:_ZN12KCModuleData11qt_metacallEN11QMetaObject4CallEiPPv
libKF6KCMUtilsCore.so.6:_ZN12KCModuleData11qt_metacastEPKc
libKF6KCMUtilsCore.so.6:_ZN12KCModuleData16revertToDefaultsEv
libKF6KCMUtilsCore.so.6:_ZN12KCModuleData16staticMetaObjectE
libKF6KCMUtilsCore.so.6:_ZN12KCModuleData21autoRegisterSkeletonsEv
libKF6KCMUtilsCore.so.6:_ZN12KCModuleDataC2EP7QObject
libKF6KCMUtilsCore.so.6:_ZN12KCModuleDataD2Ev
libKF6KCMUtilsCore.so.6:_ZNK12KCModuleData10isDefaultsEv
libKF6KCMUtilsCore.so.6:_ZNK12KCModuleData12matchesQueryERK7QString
libKF6KCMUtilsCore.so.6:_ZTI12KCModuleData
libKF6KCMUtilsQuick.so.6:_ZN25KQuickManagedConfigModule11qt_metacallEN11QMetaObject4CallEiPPv
libKF6KCMUtilsQuick.so.6:_ZN25KQuickManagedConfigModule11qt_metacastEPKc
libKF6KCMUtilsQuick.so.6:_ZN25KQuickManagedConfigModule16staticMetaObjectE
libKF6KCMUtilsQuick.so.6:_ZN25KQuickManagedConfigModule4loadEv
libKF6KCMUtilsQuick.so.6:_ZN25KQuickManagedConfigModule4saveEv
libKF6KCMUtilsQuick.so.6:_ZN25KQuickManagedConfigModule8defaultsEv
libKF6KCMUtilsQuick.so.6:_ZN25KQuickManagedConfigModuleC2EP7QObjectRK15KPluginMetaData
libKF6KCMUtilsQuick.so.6:_ZN25KQuickManagedConfigModuleD2Ev
libKF6KCMUtilsQuick.so.6:_ZNK25KQuickManagedConfigModule10isDefaultsEv
libKF6KCMUtilsQuick.so.6:_ZNK25KQuickManagedConfigModule12isSaveNeededEv
libKF6KCMUtilsQuick.so.6:_ZTI25KQuickManagedConfigModule
libKF6KIOCore.so.6:_ZN16KProtocolManager20reparseConfigurationEv
libKF6KIOCore.so.6:_ZN3KIO19fileSystemFreeSpaceERK4QUrl
libKF6KIOCore.so.6:_ZN3KIO9file_copyERK4QUrlS2_i6QFlagsINS_7JobFlagEE
libKF6KIOCore.so.6:_ZN3KIO9storedGetERK4QUrlNS_8LoadTypeE6QFlagsINS_7JobFlagEE
libKF6KIOCore.so.6:_ZNK3KIO17StoredTransferJob4dataEv
libKF6KIOCore.so.6:_ZNK3KIO22FileSystemFreeSpaceJob13availableSizeEv
libKF6KIOGui.so.6:_ZN10KUriFilter15filterSearchUriER14KUriFilterData6QFlagsINS_16SearchFilterTypeEE
libKF6KIOGui.so.6:_ZN10KUriFilter4selfEv
libKF6KIOGui.so.6:_ZN14KUriFilterDataC1ERK7QString
libKF6KIOGui.so.6:_ZN14KUriFilterDataD1Ev
libKF6KIOGui.so.6:_ZN3KIO18CommandLauncherJob12setStartupIdERK10QByteArray
libKF6KIOGui.so.6:_ZN3KIO18CommandLauncherJob14setDesktopNameERK7QString
libKF6KIOGui.so.6:_ZN3KIO18CommandLauncherJobC1ERK7QStringRK5QListIS1_EP7QObject
libKF6KIOGui.so.6:_ZN3KIO22ApplicationLauncherJob12setStartupIdERK10QByteArray
libKF6KIOGui.so.6:_ZN3KIO22ApplicationLauncherJobC1ERK28QExplicitlySharedDataPointerI8KServiceEP7QObject
libKF6KIOGui.so.6:_ZNK14KUriFilterData3uriEv
libKF6NewStuffCore.so.6:_ZN7KNSCore10EngineBase12setTagFilterERK5QListI7QStringE
libKF6NewStuffCore.so.6:_ZN7KNSCore10EngineBase13providerAddedEPNS_12ProviderCoreE
libKF6NewStuffCore.so.6:_ZN7KNSCore10EngineBase15signalErrorCodeENS_9ErrorCode9ErrorCodeERK7QStringRK8QVariant
libKF6NewStuffCore.so.6:_ZN7KNSCore10EngineBase16staticMetaObjectE
libKF6NewStuffCore.so.6:_ZN7KNSCore10EngineBase19categoriesMetadata2Ev
libKF6NewStuffCore.so.6:_ZN7KNSCore10EngineBase20availableConfigFilesEv
libKF6NewStuffCore.so.6:_ZN7KNSCore10EngineBase30signalCategoriesMetadataLoadedERK5QListINS_16CategoryMetadataEE
libKF6NewStuffCore.so.6:_ZN7KNSCore10EngineBase6searchERKNS_13SearchRequestE
libKF6NewStuffCore.so.6:_ZN7KNSCore10EngineBaseC1EP7QObject
libKF6NewStuffCore.so.6:_ZN7KNSCore11Transaction13installLatestEPNS_10EngineBaseERKNS_5EntryE
libKF6NewStuffCore.so.6:_ZN7KNSCore11Transaction15signalErrorCodeENS_9ErrorCode9ErrorCodeERK7QStringRK8QVariant
libKF6NewStuffCore.so.6:_ZN7KNSCore11Transaction16signalEntryEventERKNS_5EntryENS1_10EntryEventE
libKF6NewStuffCore.so.6:_ZN7KNSCore11Transaction16staticMetaObjectE
libKF6NewStuffCore.so.6:_ZN7KNSCore11Transaction5adoptEPNS_10EngineBaseERKNS_5EntryE
libKF6NewStuffCore.so.6:_ZN7KNSCore11Transaction8finishedEv
libKF6NewStuffCore.so.6:_ZN7KNSCore11Transaction9uninstallEPNS_10EngineBaseERKNS_5EntryE
libKF6NewStuffCore.so.6:_ZN7KNSCore13ResultsStream12entriesFoundERK5QListINS_5EntryEE
libKF6NewStuffCore.so.6:_ZN7KNSCore13ResultsStream16staticMetaObjectE
libKF6NewStuffCore.so.6:_ZN7KNSCore13ResultsStream5fetchEv
libKF6NewStuffCore.so.6:_ZN7KNSCore13ResultsStream8finishedEv
libKF6NewStuffCore.so.6:_ZN7KNSCore13ResultsStream9fetchMoreEv
libKF6NewStuffCore.so.6:_ZN7KNSCore13SearchRequestC1ENS_8SortModeENS_6FilterERK7QStringRK5QListIS3_Eii
libKF6NewStuffCore.so.6:_ZN7KNSCore15QuestionManager11askQuestionEPNS_8QuestionE
libKF6NewStuffCore.so.6:_ZN7KNSCore15QuestionManager16staticMetaObjectE
libKF6NewStuffCore.so.6:_ZN7KNSCore15QuestionManager8instanceEv
libKF6NewStuffCore.so.6:_ZN7KNSCore5Entry16staticMetaObjectE
libKF6NewStuffCore.so.6:_ZN7KNSCore5EntryC1ERKS0_
libKF6NewStuffCore.so.6:_ZN7KNSCore5EntryC1Ev
libKF6NewStuffCore.so.6:_ZN7KNSCore5EntryD1Ev
libKF6NewStuffCore.so.6:_ZN7KNSCore5EntryaSERKS0_
libKF6NewStuffCore.so.6:_ZN7KNSCore6AuthorD1Ev
libKF6NewStuffCore.so.6:_ZN7KNSCore8Question11setResponseENS0_8ResponseE
libKF6NewStuffCore.so.6:_ZN7KNSCore8Question16staticMetaObjectE
libKF6NewStuffCore.so.6:_ZN7KNSCore9ErrorCode16staticMetaObjectE
libKF6NewStuffCore.so.6:_ZN7KNSCorelsE6QDebugRKNS_5EntryE
libKF6NewStuffCore.so.6:_ZNK7KNSCore10EngineBase15atticaProvidersEv
libKF6NewStuffCore.so.6:_ZNK7KNSCore10EngineBase18hasAdoptionCommandEv
libKF6NewStuffCore.so.6:_ZNK7KNSCore10EngineBase8useLabelEv
libKF6NewStuffCore.so.6:_ZNK7KNSCore10EngineBase9tagFilterEv
libKF6NewStuffCore.so.6:_ZNK7KNSCore16CategoryMetadata11displayNameEv
libKF6NewStuffCore.so.6:_ZNK7KNSCore16CategoryMetadata2idEv
libKF6NewStuffCore.so.6:_ZNK7KNSCore16CategoryMetadata4nameEv
libKF6NewStuffCore.so.6:_ZNK7KNSCore5Entry10previewUrlENS0_11PreviewTypeE
libKF6NewStuffCore.so.6:_ZNK7KNSCore5Entry10providerIdEv
libKF6NewStuffCore.so.6:_ZNK7KNSCore5Entry11releaseDateEv
libKF6NewStuffCore.so.6:_ZNK7KNSCore5Entry12donationLinkEv
libKF6NewStuffCore.so.6:_ZNK7KNSCore5Entry12shortSummaryEv
libKF6NewStuffCore.so.6:_ZNK7KNSCore5Entry13updateVersionEv
libKF6NewStuffCore.so.6:_ZNK7KNSCore5Entry16numberOfCommentsEv
libKF6NewStuffCore.so.6:_ZNK7KNSCore5Entry17updateReleaseDateEv
libKF6NewStuffCore.so.6:_ZNK7KNSCore5Entry27downloadLinkInformationListEv
libKF6NewStuffCore.so.6:_ZNK7KNSCore5Entry4nameEv
libKF6NewStuffCore.so.6:_ZNK7KNSCore5Entry6authorEv
libKF6NewStuffCore.so.6:_ZNK7KNSCore5Entry6ratingEv
libKF6NewStuffCore.so.6:_ZNK7KNSCore5Entry6statusEv
libKF6NewStuffCore.so.6:_ZNK7KNSCore5Entry7licenseEv
libKF6NewStuffCore.so.6:_ZNK7KNSCore5Entry7summaryEv
libKF6NewStuffCore.so.6:_ZNK7KNSCore5Entry7versionEv
libKF6NewStuffCore.so.6:_ZNK7KNSCore5Entry8categoryEv
libKF6NewStuffCore.so.6:_ZNK7KNSCore5Entry8homepageEv
libKF6NewStuffCore.so.6:_ZNK7KNSCore5Entry8uniqueIdEv
libKF6NewStuffCore.so.6:_ZNK7KNSCore5Entry9changelogEv
libKF6NewStuffCore.so.6:_ZNK7KNSCore5EntryeqERKS0_
libKF6NewStuffCore.so.6:_ZNK7KNSCore5EntryltERKS0_
libKF6NewStuffCore.so.6:_ZNK7KNSCore6Author4nameEv
libKF6NewStuffCore.so.6:_ZNK7KNSCore8Question12questionTypeEv
libKF6NewStuffCore.so.6:_ZNK7KNSCore8Question5entryEv
libKF6NewStuffCore.so.6:_ZNK7KNSCore8Question5titleEv
libKF6NewStuffCore.so.6:_ZNK7KNSCore8Question8questionEv
libKF6Notifications.so.6:_ZN13KNotification11setIconNameERK7QString
libKF6Notifications.so.6:_ZN13KNotification16addDefaultActionERK7QString
libKF6Notifications.so.6:_ZN13KNotification16setComponentNameERK7QString
libKF6Notifications.so.6:_ZN13KNotification5closeEv
libKF6Notifications.so.6:_ZN13KNotification5eventERK7QStringS2_RK7QPixmapRK6QFlagsINS_16NotificationFlagEES2_
libKF6Notifications.so.6:_ZN13KNotification5eventERK7QStringS2_S2_S2_RK6QFlagsINS_16NotificationFlagEES2_
libKF6Notifications.so.6:_ZN13KNotification7setHintERK7QStringRK8QVariant
libKF6Notifications.so.6:_ZN13KNotification7setTextERK7QString
libKF6Notifications.so.6:_ZN13KNotification8setTitleERK7QString
libKF6Notifications.so.6:_ZN13KNotification9addActionERK7QString
libKF6Notifications.so.6:_ZN13KNotification9sendEventEv
libKF6Notifications.so.6:_ZN13KNotificationC1ERK7QString6QFlagsINS_16NotificationFlagEEP7QObject
libKF6Notifications.so.6:_ZN19KNotificationAction16staticMetaObjectE
libKF6Notifications.so.6:_ZN19KNotificationAction9activatedEv
libKF6Notifications.so.6:_ZNK13KNotification18xdgActivationTokenEv
libKF6Service.so.6:_ZN8KService18serviceByStorageIdERK7QString
libKF6Service.so.6:_ZN8KService20serviceByDesktopNameERK7QString
libKF6Service.so.6:_ZN8KServiceC1ERK7QString
libKF6Service.so.6:_ZNK12KSycocaEntry4nameEv
libKF6StatusNotifierItem.so.6:_ZN19KStatusNotifierItem10setToolTipERK7QStringS2_S2_
libKF6StatusNotifierItem.so.6:_ZN19KStatusNotifierItem13setIconByNameERK7QString
libKF6StatusNotifierItem.so.6:_ZN19KStatusNotifierItem14setContextMenuEP5QMenu
libKF6StatusNotifierItem.so.6:_ZN19KStatusNotifierItem15setToolTipTitleERK7QString
libKF6StatusNotifierItem.so.6:_ZN19KStatusNotifierItem16staticMetaObjectE
libKF6StatusNotifierItem.so.6:_ZN19KStatusNotifierItem17activateRequestedEbRK6QPoint
libKF6StatusNotifierItem.so.6:_ZN19KStatusNotifierItem18setToolTipSubTitleERK7QString
libKF6StatusNotifierItem.so.6:_ZN19KStatusNotifierItem25setStandardActionsEnabledEb
libKF6StatusNotifierItem.so.6:_ZN19KStatusNotifierItem8setTitleERK7QString
libKF6StatusNotifierItem.so.6:_ZN19KStatusNotifierItem9setStatusENS_10ItemStatusE
libKF6StatusNotifierItem.so.6:_ZN19KStatusNotifierItemC1EP7QObject
libKF6StatusNotifierItem.so.6:_ZN19KStatusNotifierItemC1ERK7QStringP7QObject
libKF6StatusNotifierItem.so.6:_ZNK19KStatusNotifierItem13providedTokenEv
libKF6WidgetsAddons.so.6:_ZN15KPasswordDialog16staticMetaObjectE
libKF6WidgetsAddons.so.6:_ZN15KPasswordDialog22gotUsernameAndPasswordERK7QStringS2_b
libKF6WidgetsAddons.so.6:_ZN15KPasswordDialog9setPromptERK7QString
libKF6WidgetsAddons.so.6:_ZN15KPasswordDialogC1EP7QWidgetRK6QFlagsINS_19KPasswordDialogFlagEE
libKF6WindowSystem.so.6:_ZN13KWindowSystem13isPlatformX11Ev
libKF6WindowSystem.so.6:_ZN13KWindowSystem14activateWindowEP7QWindowl
libKF6WindowSystem.so.6:_ZN13KWindowSystem15updateStartupIdEP7QWindow
libKirigamiApp.so.6:_ZN11KirigamiAppC1Ev
libKirigamiApp.so.6:_ZN11KirigamiAppD1Ev
libQCoro6Core.so.0:_ZN5QCoro6detail10QCoroTimer23WaitForTimeoutOperation13await_suspendENSt7__n486116coroutine_handleIvEE
libQCoro6Core.so.0:_ZN5QCoro6detail10QCoroTimer23WaitForTimeoutOperationC1ER6QTimer
libQCoro6Core.so.0:_ZNK5QCoro6detail10QCoroTimer23WaitForTimeoutOperation11await_readyEv
libQCoro6Core.so.0:_ZNK5QCoro6detail10QCoroTimer23WaitForTimeoutOperation12await_resumeEv
libQt6Core.so.6:_Z13comparesEqualRK4QUrlS1_
libQt6Core.so.6:_Z15compareThreeWayRK9QDateTimeS1_
libQt6Core.so.6:_Z20qEnvironmentVariablePKc
libQt6Core.so.6:_Z21qRegisterResourceDataiPKhS0_S0_
libQt6Core.so.6:_Z23qUnregisterResourceDataiPKhS0_S0_
libQt6Core.so.6:_Z25qEnvironmentVariableIsSetPKc
libQt6Core.so.6:_Z26qt_QMetaEnum_debugOperatorR6QDebugxPK11QMetaObjectPKc
libQt6Core.so.6:_Z28qEnvironmentVariableIntValuePKcPb
libQt6Core.so.6:_Z5qHash11QStringViewm
libQt6Core.so.6:_Z5qHash13QLatin1Stringm
libQt6Core.so.6:_Z5qHash14QByteArrayViewm
libQt6Core.so.6:_Z7qgetenvPKc
libQt6Core.so.6:_Z7qstrcmpPKcS0_
libQt6Core.so.6:_Z9qBadAllocv
libQt6Core.so.6:_ZN10QArrayData10deallocateEPS_xx
libQt6Core.so.6:_ZN10QArrayData19reallocateUnalignedEPS_PvxxNS_16AllocationOptionE
libQt6Core.so.6:_ZN10QArrayData8allocateEPPS_xxxNS_16AllocationOptionE
libQt6Core.so.6:_ZN10QByteArray11reallocDataExN10QArrayData16AllocationOptionE
libQt6Core.so.6:_ZN10QByteArray6_emptyE
libQt6Core.so.6:_ZN10QByteArray6appendEc
libQt6Core.so.6:_ZN10QByteArray6insertEx14QByteArrayView
libQt6Core.so.6:_ZN10QByteArray6resizeEx
libQt6Core.so.6:_ZN10QByteArrayC1EPKcx
libQt6Core.so.6:_ZN10QByteArrayC1ExN2Qt14InitializationE
libQt6Core.so.6:_ZN10QByteArrayaSEPKc
libQt6Core.so.6:_ZN10QJsonArray6appendERK10QJsonValue
libQt6Core.so.6:_ZN10QJsonArray6detachEx
libQt6Core.so.6:_ZN10QJsonArray8removeAtEx
libQt6Core.so.6:_ZN10QJsonArrayC1ESt16initializer_listI10QJsonValueE
libQt6Core.so.6:_ZN10QJsonArrayC1Ev
libQt6Core.so.6:_ZN10QJsonArrayD1Ev
libQt6Core.so.6:_ZN10QJsonValue11fromVariantERK8QVariant
libQt6Core.so.6:_ZN10QJsonValueC1EO10QJsonArray
libQt6Core.so.6:_ZN10QJsonValueC1EO11QJsonObject
libQt6Core.so.6:_ZN10QJsonValueC1EOS_
libQt6Core.so.6:_ZN10QJsonValueC1ERK11QJsonObject
libQt6Core.so.6:_ZN10QJsonValueC1ERK7QString
libQt6Core.so.6:_ZN10QJsonValueC1ERKS_
libQt6Core.so.6:_ZN10QJsonValueC1Ed
libQt6Core.so.6:_ZN10QJsonValueC1Ei
libQt6Core.so.6:_ZN10QJsonValueD1Ev
libQt6Core.so.6:_ZN11QBasicMutex12lockInternalEv
libQt6Core.so.6:_ZN11QBasicMutex14unlockInternalEv
libQt6Core.so.6:_ZN11QBasicMutex15destroyInternalEPv
libQt6Core.so.6:_ZN11QDataStream11resetStatusEv
libQt6Core.so.6:_ZN11QDataStream9setStatusENS_6StatusE
libQt6Core.so.6:_ZN11QDataStreamlsEi
libQt6Core.so.6:_ZN11QDataStreamlsEx
libQt6Core.so.6:_ZN11QDataStreamrsERi
libQt6Core.so.6:_ZN11QDataStreamrsERx
libQt6Core.so.6:_ZN11QFileDevice5closeEv
libQt6Core.so.6:_ZN11QJsonObject6insertE13QLatin1StringRK10QJsonValue
libQt6Core.so.6:_ZN11QJsonObjectC1ESt16initializer_listISt4pairI7QString10QJsonValueEE
libQt6Core.so.6:_ZN11QJsonObjectC1Ev
libQt6Core.so.6:_ZN11QJsonObjectD1Ev
libQt6Core.so.6:_ZN11QJsonObjectixE13QLatin1String
libQt6Core.so.6:_ZN11QMetaMethod10invokeImplES_PvN2Qt14ConnectionTypeExPKPKvPKPKcPKPKN9QtPrivate18QMetaTypeInterfaceE
libQt6Core.so.6:_ZN11QMetaObject10ConnectionC1Ev
libQt6Core.so.6:_ZN11QMetaObject10ConnectionD1Ev
libQt6Core.so.6:_ZN11QMetaObject14normalizedTypeEPKc
libQt6Core.so.6:_ZN11QMetaObject16invokeMethodImplEP7QObjectPN9QtPrivate15QSlotObjectBaseEN2Qt14ConnectionTypeExPKPKvPKPKcPKPKNS2_18QMetaTypeInterfaceE
libQt6Core.so.6:_ZN11QMetaObject8activateEP7QObjectPKS_iPPv
libQt6Core.so.6:_ZN11QTextStream12readLineIntoEP7QStringx
libQt6Core.so.6:_ZN11QTextStream4seekEx
libQt6Core.so.6:_ZN11QTextStream7readAllEv
libQt6Core.so.6:_ZN11QTextStreamC1EP8_IO_FILE6QFlagsIN13QIODeviceBase12OpenModeFlagEE
libQt6Core.so.6:_ZN11QTextStreamC1EP9QIODevice
libQt6Core.so.6:_ZN11QTextStreamD1Ev
libQt6Core.so.6:_ZN11QTextStreamlsEPKc
libQt6Core.so.6:_ZN11QTextStreamlsEPKv
libQt6Core.so.6:_ZN11QTextStreamlsERK7QString
libQt6Core.so.6:_ZN11QTextStreamlsEc
libQt6Core.so.6:_ZN11QTextStreamlsEi
libQt6Core.so.6:_ZN11QTextStreamlsEj
libQt6Core.so.6:_ZN11QTextStreamlsEx
libQt6Core.so.6:_ZN11QThreadPool11qt_metacallEN11QMetaObject4CallEiPPv
libQt6Core.so.6:_ZN11QThreadPool11qt_metacastEPKc
libQt6Core.so.6:_ZN11QThreadPool11waitForDoneE14QDeadlineTimer
libQt6Core.so.6:_ZN11QThreadPool14globalInstanceEv
libQt6Core.so.6:_ZN11QThreadPool17setMaxThreadCountEi
libQt6Core.so.6:_ZN11QThreadPool5clearEv
libQt6Core.so.6:_ZN11QThreadPool5startEP9QRunnablei
libQt6Core.so.6:_ZN11QThreadPool7tryTakeEP9QRunnable
libQt6Core.so.6:_ZN11QThreadPoolC1EP7QObject
libQt6Core.so.6:_ZN11QThreadPoolC2EP7QObject
libQt6Core.so.6:_ZN11QThreadPoolD1Ev
libQt6Core.so.6:_ZN11QThreadPoolD2Ev
libQt6Core.so.6:_ZN12QDirIterator4nextEv
libQt6Core.so.6:_ZN12QDirIteratorC1ERK7QString6QFlagsIN4QDir6FilterEES3_INS_12IteratorFlagEE
libQt6Core.so.6:_ZN12QDirIteratorC1ERK7QString6QFlagsINS_12IteratorFlagEE
libQt6Core.so.6:_ZN12QDirIteratorD1Ev
libQt6Core.so.6:_ZN12QStorageInfoC1ERK7QString
libQt6Core.so.6:_ZN12QStorageInfoD1Ev
libQt6Core.so.6:_ZN13QJsonDocument8fromJsonERK10QByteArrayP15QJsonParseError
libQt6Core.so.6:_ZN13QJsonDocumentC1ERK11QJsonObject
libQt6Core.so.6:_ZN13QJsonDocumentD1Ev
libQt6Core.so.6:_ZN13QMimeDatabaseC1Ev
libQt6Core.so.6:_ZN13QMimeDatabaseD1Ev
libQt6Core.so.6:_ZN13QPluginLoader4loadEv
libQt6Core.so.6:_ZN13QPluginLoader8instanceEv
libQt6Core.so.6:_ZN13QPluginLoaderC1ERK7QStringP7QObject
libQt6Core.so.6:_ZN13QPluginLoaderD1Ev
libQt6Core.so.6:_ZN14QDeadlineTimerC1ExN2Qt9TimerTypeE
libQt6Core.so.6:_ZN14QStandardPaths14findExecutableERK7QStringRK5QListIS0_E
libQt6Core.so.6:_ZN14QStandardPaths16writableLocationENS_16StandardLocationE
libQt6Core.so.6:_ZN14QStandardPaths17isTestModeEnabledEv
libQt6Core.so.6:_ZN14QStandardPaths18setTestModeEnabledEb
libQt6Core.so.6:_ZN14QStandardPaths6locateENS_16StandardLocationERK7QString6QFlagsINS_12LocateOptionEE
libQt6Core.so.6:_ZN14QTemporaryFile13setAutoRemoveEb
libQt6Core.so.6:_ZN14QTemporaryFileC1Ev
libQt6Core.so.6:_ZN14QTemporaryFileD1Ev
libQt6Core.so.6:_ZN14QWaitCondition4waitEP6QMutex14QDeadlineTimer
libQt6Core.so.6:_ZN14QWaitCondition7wakeAllEv
libQt6Core.so.6:_ZN14QWaitConditionC1Ev
libQt6Core.so.6:_ZN14QWaitConditionD1Ev
libQt6Core.so.6:_ZN15QtSharedPointer20ExternalRefCountData16setQObjectSharedEPK7QObjectb
libQt6Core.so.6:_ZN15QtSharedPointer20ExternalRefCountData9getAndRefEPK7QObject
libQt6Core.so.6:_ZN16QCollatorSortKeyC1ERKS_
libQt6Core.so.6:_ZN16QCollatorSortKeyD1Ev
libQt6Core.so.6:_ZN16QCoreApplication11aboutToQuitENS_14QPrivateSignalE
libQt6Core.so.6:_ZN16QCoreApplication12libraryPathsEv
libQt6Core.so.6:_ZN16QCoreApplication12setAttributeEN2Qt20ApplicationAttributeEb
libQt6Core.so.6:_ZN16QCoreApplication16staticMetaObjectE
libQt6Core.so.6:_ZN16QCoreApplication18setQuitLockEnabledEb
libQt6Core.so.6:_ZN16QCoreApplication21setOrganizationDomainERK7QString
libQt6Core.so.6:_ZN16QCoreApplication4exitEi
libQt6Core.so.6:_ZN16QCoreApplication4quitEv
libQt6Core.so.6:_ZN16QCoreApplication4selfE
libQt6Core.so.6:_ZN16QCoreApplication9postEventEP7QObjectP6QEventi
libQt6Core.so.6:_ZN16QDebugStateSaverC1ER6QDebug
libQt6Core.so.6:_ZN16QDebugStateSaverD1Ev
libQt6Core.so.6:_ZN16QLoggingCategoryC1EPKc9QtMsgType
libQt6Core.so.6:_ZN16QLoggingCategoryD1Ev
libQt6Core.so.6:_ZN16QXmlStreamReader15readElementTextENS_24ReadElementTextBehaviourE
libQt6Core.so.6:_ZN16QXmlStreamReader18skipCurrentElementEv
libQt6Core.so.6:_ZN16QXmlStreamReader20readNextStartElementEv
libQt6Core.so.6:_ZN16QXmlStreamReader8readNextEv
libQt6Core.so.6:_ZN16QXmlStreamReaderC1EP9QIODevice
libQt6Core.so.6:_ZN16QXmlStreamReaderD1Ev
libQt6Core.so.6:_ZN18QAbstractItemModel10insertRowsEiiRK11QModelIndex
libQt6Core.so.6:_ZN18QAbstractItemModel10modelResetENS_14QPrivateSignalE
libQt6Core.so.6:_ZN18QAbstractItemModel10removeRowsEiiRK11QModelIndex
libQt6Core.so.6:_ZN18QAbstractItemModel11dataChangedERK11QModelIndexS2_RK5QListIiE
libQt6Core.so.6:_ZN18QAbstractItemModel11moveColumnsERK11QModelIndexiiS2_i
libQt6Core.so.6:_ZN18QAbstractItemModel11rowsRemovedERK11QModelIndexiiNS_14QPrivateSignalE
libQt6Core.so.6:_ZN18QAbstractItemModel11setItemDataERK11QModelIndexRK4QMapIi8QVariantE
libQt6Core.so.6:_ZN18QAbstractItemModel12rowsInsertedERK11QModelIndexiiNS_14QPrivateSignalE
libQt6Core.so.6:_ZN18QAbstractItemModel13clearItemDataERK11QModelIndex
libQt6Core.so.6:_ZN18QAbstractItemModel13endInsertRowsEv
libQt6Core.so.6:_ZN18QAbstractItemModel13endRemoveRowsEv
libQt6Core.so.6:_ZN18QAbstractItemModel13endResetModelEv
libQt6Core.so.6:_ZN18QAbstractItemModel13insertColumnsEiiRK11QModelIndex
libQt6Core.so.6:_ZN18QAbstractItemModel13removeColumnsEiiRK11QModelIndex
libQt6Core.so.6:_ZN18QAbstractItemModel13setHeaderDataEiN2Qt11OrientationERK8QVarianti
libQt6Core.so.6:_ZN18QAbstractItemModel15beginInsertRowsERK11QModelIndexii
libQt6Core.so.6:_ZN18QAbstractItemModel15beginRemoveRowsERK11QModelIndexii
libQt6Core.so.6:_ZN18QAbstractItemModel15beginResetModelEv
libQt6Core.so.6:_ZN18QAbstractItemModel16staticMetaObjectE
libQt6Core.so.6:_ZN18QAbstractItemModel17resetInternalDataEv
libQt6Core.so.6:_ZN18QAbstractItemModel4sortEiN2Qt9SortOrderE
libQt6Core.so.6:_ZN18QAbstractItemModel6revertEv
libQt6Core.so.6:_ZN18QAbstractItemModel6submitEv
libQt6Core.so.6:_ZN18QAbstractItemModel7setDataERK11QModelIndexRK8QVarianti
libQt6Core.so.6:_ZN18QAbstractItemModel8moveRowsERK11QModelIndexiiS2_i
libQt6Core.so.6:_ZN18QAbstractItemModel9fetchMoreERK11QModelIndex
libQt6Core.so.6:_ZN18QAbstractListModel11qt_metacallEN11QMetaObject4CallEiPPv
libQt6Core.so.6:_ZN18QAbstractListModel11qt_metacastEPKc
libQt6Core.so.6:_ZN18QAbstractListModel12dropMimeDataEPK9QMimeDataN2Qt10DropActionEiiRK11QModelIndex
libQt6Core.so.6:_ZN18QAbstractListModel16staticMetaObjectE
libQt6Core.so.6:_ZN18QAbstractListModelC2EP7QObject
libQt6Core.so.6:_ZN18QAbstractListModelD2Ev
libQt6Core.so.6:_ZN18QCommandLineOptionC1ERK7QStringS2_S2_S2_
libQt6Core.so.6:_ZN18QCommandLineOptionD1Ev
libQt6Core.so.6:_ZN18QCommandLineParser21addPositionalArgumentERK7QStringS2_S2_
libQt6Core.so.6:_ZN18QCommandLineParser5parseERK5QListI7QStringE
libQt6Core.so.6:_ZN18QCommandLineParser7processERK16QCoreApplication
libQt6Core.so.6:_ZN18QCommandLineParser9addOptionERK18QCommandLineOption
libQt6Core.so.6:_ZN18QCommandLineParserC1Ev
libQt6Core.so.6:_ZN18QCommandLineParserD1Ev
libQt6Core.so.6:_ZN18QCryptographicHash4hashE14QByteArrayViewNS_9AlgorithmE
libQt6Core.so.6:_ZN18QCryptographicHash7addDataE14QByteArrayView
libQt6Core.so.6:_ZN18QCryptographicHash7addDataEP9QIODevice
libQt6Core.so.6:_ZN18QCryptographicHashC1ENS_9AlgorithmE
libQt6Core.so.6:_ZN18QCryptographicHashD1Ev
libQt6Core.so.6:_ZN18QFileSystemWatcher10removePathERK7QString
libQt6Core.so.6:_ZN18QFileSystemWatcher11fileChangedERK7QStringNS_14QPrivateSignalE
libQt6Core.so.6:_ZN18QFileSystemWatcher16staticMetaObjectE
libQt6Core.so.6:_ZN18QFileSystemWatcher7addPathERK7QString
libQt6Core.so.6:_ZN18QFileSystemWatcherC1EP7QObject
libQt6Core.so.6:_ZN18QFileSystemWatcherD1Ev
libQt6Core.so.6:_ZN18QFutureWatcherBase11qt_metacallEN11QMetaObject4CallEiPPv
libQt6Core.so.6:_ZN18QFutureWatcherBase11qt_metacastEPKc
libQt6Core.so.6:_ZN18QFutureWatcherBase13connectNotifyERK11QMetaMethod
libQt6Core.so.6:_ZN18QFutureWatcherBase16disconnectNotifyERK11QMetaMethod
libQt6Core.so.6:_ZN18QFutureWatcherBase16staticMetaObjectE
libQt6Core.so.6:_ZN18QFutureWatcherBase22connectOutputInterfaceEv
libQt6Core.so.6:_ZN18QFutureWatcherBase25disconnectOutputInterfaceEb
libQt6Core.so.6:_ZN18QFutureWatcherBase5eventEP6QEvent
libQt6Core.so.6:_ZN18QFutureWatcherBase8finishedEv
libQt6Core.so.6:_ZN18QFutureWatcherBaseC2EP7QObject
libQt6Core.so.6:_ZN18QJsonValueConstRef14concreteStringES_RK7QString
libQt6Core.so.6:_ZN18QJsonValueConstRef8concreteES_
libQt6Core.so.6:_ZN18QJsonValueConstRef9objectKeyES_
libQt6Core.so.6:_ZN18QRegularExpressionC1ERK7QString6QFlagsINS_13PatternOptionEE
libQt6Core.so.6:_ZN18QRegularExpressionC1Ev
libQt6Core.so.6:_ZN18QRegularExpressionD1Ev
libQt6Core.so.6:_ZN19QAbstractProxyModel11setItemDataERK11QModelIndexRK4QMapIi8QVariantE
libQt6Core.so.6:_ZN19QAbstractProxyModel13clearItemDataERK11QModelIndex
libQt6Core.so.6:_ZN19QAbstractProxyModel16staticMetaObjectE
libQt6Core.so.6:_ZN19QAbstractProxyModel18sourceModelChangedENS_14QPrivateSignalE
libQt6Core.so.6:_ZN19QAbstractProxyModel6revertEv
libQt6Core.so.6:_ZN19QAbstractProxyModel6submitEv
libQt6Core.so.6:_ZN19QUnhandledExceptionC1ENSt15__exception_ptr13exception_ptrE
libQt6Core.so.6:_ZN19QUnhandledExceptionD1Ev
libQt6Core.so.6:_ZN20QFutureInterfaceBase11setRunnableEP9QRunnable
libQt6Core.so.6:_ZN20QFutureInterfaceBase13reportStartedEv
libQt6Core.so.6:_ZN20QFutureInterfaceBase13setThreadPoolEP11QThreadPool
libQt6Core.so.6:_ZN20QFutureInterfaceBase13waitForResultEi
libQt6Core.so.6:_ZN20QFutureInterfaceBase14exceptionStoreEv
libQt6Core.so.6:_ZN20QFutureInterfaceBase14reportCanceledEv
libQt6Core.so.6:_ZN20QFutureInterfaceBase14reportFinishedEv
libQt6Core.so.6:_ZN20QFutureInterfaceBase14setLaunchAsyncEb
libQt6Core.so.6:_ZN20QFutureInterfaceBase15reportExceptionENSt15__exception_ptr13exception_ptrE
libQt6Core.so.6:_ZN20QFutureInterfaceBase15reportExceptionERK10QException
libQt6Core.so.6:_ZN20QFutureInterfaceBase15resultStoreBaseEv
libQt6Core.so.6:_ZN20QFutureInterfaceBase15setContinuationESt8functionIFvRKS_EE
libQt6Core.so.6:_ZN20QFutureInterfaceBase15setContinuationESt8functionIFvRKS_EEP27QFutureInterfaceBasePrivate
libQt6Core.so.6:_ZN20QFutureInterfaceBase17cleanContinuationEv
libQt6Core.so.6:_ZN20QFutureInterfaceBase18reportResultsReadyEii
libQt6Core.so.6:_ZN20QFutureInterfaceBase4swapERS_
libQt6Core.so.6:_ZN20QFutureInterfaceBase6cancelENS_10CancelModeE
libQt6Core.so.6:_ZN20QFutureInterfaceBase6cancelEv
libQt6Core.so.6:_ZN20QFutureInterfaceBaseC1ERKS_
libQt6Core.so.6:_ZN20QFutureInterfaceBaseC2ENS_5StateE
libQt6Core.so.6:_ZN20QFutureInterfaceBaseC2ERKS_
libQt6Core.so.6:_ZN20QFutureInterfaceBaseD1Ev
libQt6Core.so.6:_ZN20QFutureInterfaceBaseD2Ev
libQt6Core.so.6:_ZN21QAbstractConcatenable14appendLatin1ToE13QLatin1StringP5QChar
libQt6Core.so.6:_ZN21QSortFilterProxyModel10insertRowsEiiRK11QModelIndex
libQt6Core.so.6:_ZN21QSortFilterProxyModel10removeRowsEiiRK11QModelIndex
libQt6Core.so.6:_ZN21QSortFilterProxyModel11qt_metacallEN11QMetaObject4CallEiPPv
libQt6Core.so.6:_ZN21QSortFilterProxyModel11qt_metacastEPKc
libQt6Core.so.6:_ZN21QSortFilterProxyModel12dropMimeDataEPK9QMimeDataN2Qt10DropActionEiiRK11QModelIndex
libQt6Core.so.6:_ZN21QSortFilterProxyModel13insertColumnsEiiRK11QModelIndex
libQt6Core.so.6:_ZN21QSortFilterProxyModel13removeColumnsEiiRK11QModelIndex
libQt6Core.so.6:_ZN21QSortFilterProxyModel13setHeaderDataEiN2Qt11OrientationERK8QVarianti
libQt6Core.so.6:_ZN21QSortFilterProxyModel14setSourceModelEP18QAbstractItemModel
libQt6Core.so.6:_ZN21QSortFilterProxyModel16staticMetaObjectE
libQt6Core.so.6:_ZN21QSortFilterProxyModel20invalidateRowsFilterEv
libQt6Core.so.6:_ZN21QSortFilterProxyModel4sortEiN2Qt9SortOrderE
libQt6Core.so.6:_ZN21QSortFilterProxyModel7setDataERK11QModelIndexRK8QVarianti
libQt6Core.so.6:_ZN21QSortFilterProxyModel9fetchMoreERK11QModelIndex
libQt6Core.so.6:_ZN21QSortFilterProxyModelC2EP7QObject
libQt6Core.so.6:_ZN21QSortFilterProxyModelD2Ev
libQt6Core.so.6:_ZN23QRegularExpressionMatchD1Ev
libQt6Core.so.6:_ZN28QConcatenateTablesProxyModel11qt_metacallEN11QMetaObject4CallEiPPv
libQt6Core.so.6:_ZN28QConcatenateTablesProxyModel11qt_metacastEPKc
libQt6Core.so.6:_ZN28QConcatenateTablesProxyModel11setItemDataERK11QModelIndexRK4QMapIi8QVariantE
libQt6Core.so.6:_ZN28QConcatenateTablesProxyModel12dropMimeDataEPK9QMimeDataN2Qt10DropActionEiiRK11QModelIndex
libQt6Core.so.6:_ZN28QConcatenateTablesProxyModel14addSourceModelEP18QAbstractItemModel
libQt6Core.so.6:_ZN28QConcatenateTablesProxyModel16staticMetaObjectE
libQt6Core.so.6:_ZN28QConcatenateTablesProxyModel7setDataERK11QModelIndexRK8QVarianti
libQt6Core.so.6:_ZN28QConcatenateTablesProxyModelC2EP7QObject
libQt6Core.so.6:_ZN28QConcatenateTablesProxyModelD2Ev
libQt6Core.so.6:_ZN2Qt16staticMetaObjectE
libQt6Core.so.6:_ZN31QRegularExpressionMatchIterator4nextEv
libQt6Core.so.6:_ZN31QRegularExpressionMatchIteratorD1Ev
libQt6Core.so.6:_ZN4QDir11currentPathEv
libQt6Core.so.6:_ZN4QDir14isRelativePathERK7QString
libQt6Core.so.6:_ZN4QDir17removeRecursivelyEv
libQt6Core.so.6:_ZN4QDir8homePathEv
libQt6Core.so.6:_ZN4QDirC1ERK7QString
libQt6Core.so.6:_ZN4QDirD1Ev
libQt6Core.so.6:_ZN4QUrl13fromLocalFileERK7QString
libQt6Core.so.6:_ZN4QUrl13fromUserInputERK7QStringS2_6QFlagsINS_25UserInputResolutionOptionEE
libQt6Core.so.6:_ZN4QUrl7setPathERK7QStringNS_11ParsingModeE
libQt6Core.so.6:_ZN4QUrl8setQueryERK9QUrlQuery
libQt6Core.so.6:_ZN4QUrl9setSchemeERK7QString
libQt6Core.so.6:_ZN4QUrlC1ERK7QStringNS_11ParsingModeE
libQt6Core.so.6:_ZN4QUrlC1ERKS_
libQt6Core.so.6:_ZN4QUrlC1Ev
libQt6Core.so.6:_ZN4QUrlD1Ev
libQt6Core.so.6:_ZN4QUrlaSERKS_
libQt6Core.so.6:_ZN5QChar7toUpperEDi
libQt6Core.so.6:_ZN5QChar8categoryEDi
libQt6Core.so.6:_ZN5QFile11setFileNameERK7QString
libQt6Core.so.6:_ZN5QFile4openE6QFlagsIN13QIODeviceBase12OpenModeFlagEE
libQt6Core.so.6:_ZN5QFile6existsERK7QString
libQt6Core.so.6:_ZN5QFile6removeERK7QString
libQt6Core.so.6:_ZN5QFile6removeEv
libQt6Core.so.6:_ZN5QFileC1ERK7QString
libQt6Core.so.6:_ZN5QFileC1Ev
libQt6Core.so.6:_ZN5QFileD1Ev
libQt6Core.so.6:_ZN6QDebug12putByteArrayEPKcmNS_13Latin1ContentE
libQt6Core.so.6:_ZN6QDebug9putStringEPK5QCharm
libQt6Core.so.6:_ZN6QDebugD1Ev
libQt6Core.so.6:_ZN6QEventC1ENS_4TypeE
libQt6Core.so.6:_ZN6QTimer11setIntervalENSt6chrono8durationIlSt5ratioILl1ELl1000EEEE
libQt6Core.so.6:_ZN6QTimer11setIntervalEi
libQt6Core.so.6:_ZN6QTimer13setSingleShotEb
libQt6Core.so.6:_ZN6QTimer14singleShotImplENSt6chrono8durationIlSt5ratioILl1ELl1000000000EEEEN2Qt9TimerTypeEPK7QObjectPN9QtPrivate15QSlotObjectBaseE
libQt6Core.so.6:_ZN6QTimer16staticMetaObjectE
libQt6Core.so.6:_ZN6QTimer4stopEv
libQt6Core.so.6:_ZN6QTimer5startENSt6chrono8durationIlSt5ratioILl1ELl1000EEEE
libQt6Core.so.6:_ZN6QTimer5startEi
libQt6Core.so.6:_ZN6QTimer5startEv
libQt6Core.so.6:_ZN6QTimer7timeoutENS_14QPrivateSignalE
libQt6Core.so.6:_ZN6QTimerC1EP7QObject
libQt6Core.so.6:_ZN6QTimerD1Ev
libQt6Core.so.6:_ZN7QLocale6systemEv
libQt6Core.so.6:_ZN7QLocaleC1Ev
libQt6Core.so.6:_ZN7QLocaleD1Ev
libQt6Core.so.6:_ZN7QObject10childEventEP11QChildEvent
libQt6Core.so.6:_ZN7QObject10disconnectEPKS_PKcS1_S3_
libQt6Core.so.6:_ZN7QObject10disconnectERKN11QMetaObject10ConnectionE
libQt6Core.so.6:_ZN7QObject10timerEventEP11QTimerEvent
libQt6Core.so.6:_ZN7QObject11connectImplEPKS_PPvS1_S3_PN9QtPrivate15QSlotObjectBaseEN2Qt14ConnectionTypeEPKiPK11QMetaObject
libQt6Core.so.6:_ZN7QObject11customEventEP6QEvent
libQt6Core.so.6:_ZN7QObject11deleteLaterEv
libQt6Core.so.6:_ZN7QObject11eventFilterEPS_P6QEvent
libQt6Core.so.6:_ZN7QObject11qt_metacallEN11QMetaObject4CallEiPPv
libQt6Core.so.6:_ZN7QObject11qt_metacastEPKc
libQt6Core.so.6:_ZN7QObject13connectNotifyERK11QMetaMethod
libQt6Core.so.6:_ZN7QObject13doSetPropertyEPKcPK8QVariantPS2_
libQt6Core.so.6:_ZN7QObject14disconnectImplEPKS_PPvS1_S3_PK11QMetaObject
libQt6Core.so.6:_ZN7QObject15doSetObjectNameERK7QString
libQt6Core.so.6:_ZN7QObject16disconnectNotifyERK11QMetaMethod
libQt6Core.so.6:_ZN7QObject16staticMetaObjectE
libQt6Core.so.6:_ZN7QObject18installEventFilterEPS_
libQt6Core.so.6:_ZN7QObject5eventEP6QEvent
libQt6Core.so.6:_ZN7QObject9destroyedEPS_
libQt6Core.so.6:_ZN7QObject9setParentEPS_
libQt6Core.so.6:_ZN7QObjectC1EPS_
libQt6Core.so.6:_ZN7QObjectC2EPS_
libQt6Core.so.6:_ZN7QObjectD2Ev
libQt6Core.so.6:_ZN7QString10fromLatin1E14QByteArrayView
libQt6Core.so.6:_ZN7QString11reallocDataExN10QArrayData16AllocationOptionE
libQt6Core.so.6:_ZN7QString13fromLocal8BitE14QByteArrayView
libQt6Core.so.6:_ZN7QString13toUtf8_helperERKS_
libQt6Core.so.6:_ZN7QString14toLower_helperERS_
libQt6Core.so.6:_ZN7QString14toUpper_helperERKS_
libQt6Core.so.6:_ZN7QString14toUpper_helperERS_
libQt6Core.so.6:_ZN7QString14trimmed_helperERS_
libQt6Core.so.6:_ZN7QString15toLatin1_helperERKS_
libQt6Core.so.6:_ZN7QString17toIntegral_helperE11QStringViewPbi
libQt6Core.so.6:_ZN7QString17toIntegral_helperE11QStringViewPbj
libQt6Core.so.6:_ZN7QString18toLocal8Bit_helperEPK5QCharx
libQt6Core.so.6:_ZN7QString6_emptyE
libQt6Core.so.6:_ZN7QString6appendE13QLatin1String
libQt6Core.so.6:_ZN7QString6appendE20QBasicUtf8StringViewILb0EE
libQt6Core.so.6:_ZN7QString6appendE5QChar
libQt6Core.so.6:_ZN7QString6appendEPK5QCharx
libQt6Core.so.6:_ZN7QString6appendERKS_
libQt6Core.so.6:_ZN7QString6insertEx5QChar
libQt6Core.so.6:_ZN7QString6numberEii
libQt6Core.so.6:_ZN7QString6numberEyi
libQt6Core.so.6:_ZN7QString6removeE13QLatin1StringN2Qt15CaseSensitivityE
libQt6Core.so.6:_ZN7QString6removeE5QCharN2Qt15CaseSensitivityE
libQt6Core.so.6:_ZN7QString6resizeEx
libQt6Core.so.6:_ZN7QString7replaceE5QChar13QLatin1StringN2Qt15CaseSensitivityE
libQt6Core.so.6:_ZN7QString7replaceE5QCharS0_N2Qt15CaseSensitivityE
libQt6Core.so.6:_ZN7QString7replaceERK18QRegularExpressionRKS_
libQt6Core.so.6:_ZN7QString7replaceERKS_S1_N2Qt15CaseSensitivityE
libQt6Core.so.6:_ZN7QString7replaceExxRKS_
libQt6Core.so.6:_ZN7QString8fromUtf8E14QByteArrayView
libQt6Core.so.6:_ZN7QString8truncateEx
libQt6Core.so.6:_ZN7QStringC1E5QChar
libQt6Core.so.6:_ZN7QStringC1ExN2Qt14InitializationE
libQt6Core.so.6:_ZN7QStringC2EPK5QCharx
libQt6Core.so.6:_ZN7QStringaSE13QLatin1String
libQt6Core.so.6:_ZN7QStringaSERKS_
libQt6Core.so.6:_ZN7QThread11qt_metacallEN11QMetaObject4CallEiPPv
libQt6Core.so.6:_ZN7QThread11qt_metacastEPKc
libQt6Core.so.6:_ZN7QThread16staticMetaObjectE
libQt6Core.so.6:_ZN7QThread5eventEP6QEvent
libQt6Core.so.6:_ZN7QThread5startENS_8PriorityE
libQt6Core.so.6:_ZN7QThread8finishedENS_14QPrivateSignalE
libQt6Core.so.6:_ZN7QThreadC2EP7QObject
libQt6Core.so.6:_ZN7QThreadD2Ev
libQt6Core.so.6:_ZN8QLibrary9isLibraryERK7QString
libQt6Core.so.6:_ZN8QProcess13errorOccurredENS_12ProcessErrorE
libQt6Core.so.6:_ZN8QProcess13startDetachedERK7QStringRK5QListIS0_ES2_Px
libQt6Core.so.6:_ZN8QProcess16staticMetaObjectE
libQt6Core.so.6:_ZN8QProcess5startERK7QStringRK5QListIS0_E6QFlagsIN13QIODeviceBase12OpenModeFlagEE
libQt6Core.so.6:_ZN8QProcess8finishedEiNS_10ExitStatusE
libQt6Core.so.6:_ZN8QProcessC1EP7QObject
libQt6Core.so.6:_ZN8QSysInfo22currentCpuArchitectureEv
libQt6Core.so.6:_ZN8QVariant13moveConstructE9QMetaTypePv
libQt6Core.so.6:_ZN8QVariant7compareERKS_S1_
libQt6Core.so.6:_ZN8QVariantC1E13QLatin1String
libQt6Core.so.6:_ZN8QVariantC1E5QSize
libQt6Core.so.6:_ZN8QVariantC1E9QMetaTypePKv
libQt6Core.so.6:_ZN8QVariantC1ERK4QMapI7QStringS_E
libQt6Core.so.6:_ZN8QVariantC1ERK4QUrl
libQt6Core.so.6:_ZN8QVariantC1ERK7QString
libQt6Core.so.6:_ZN8QVariantC1ERK9QDateTime
libQt6Core.so.6:_ZN8QVariantC1ERKS_
libQt6Core.so.6:_ZN8QVariantC1Eb
libQt6Core.so.6:_ZN8QVariantC1Ed
libQt6Core.so.6:_ZN8QVariantC1Ef
libQt6Core.so.6:_ZN8QVariantC1Ei
libQt6Core.so.6:_ZN8QVariantC1Ej
libQt6Core.so.6:_ZN8QVariantC1Ex
libQt6Core.so.6:_ZN8QVariantC1Ey
libQt6Core.so.6:_ZN8QVariantD1Ev
libQt6Core.so.6:_ZN8QVariantaSERKS_
libQt6Core.so.6:_ZN9QCollator14defaultSortKeyE11QStringView
libQt6Core.so.6:_ZN9QCollatorC1Ev
libQt6Core.so.6:_ZN9QCollatorD1Ev
libQt6Core.so.6:_ZN9QDateTime15currentDateTimeEv
libQt6Core.so.6:_ZN9QDateTime17setSecsSinceEpochEx
libQt6Core.so.6:_ZN9QDateTime18currentDateTimeUtcEv
libQt6Core.so.6:_ZN9QDateTime18fromSecsSinceEpochEx
libQt6Core.so.6:_ZN9QDateTimeC1EOS_
libQt6Core.so.6:_ZN9QDateTimeC1ERKS_
libQt6Core.so.6:_ZN9QDateTimeC1Ev
libQt6Core.so.6:_ZN9QDateTimeD1Ev
libQt6Core.so.6:_ZN9QDateTimeaSERKS_
libQt6Core.so.6:_ZN9QFileInfo6existsERK7QString
libQt6Core.so.6:_ZN9QFileInfoC1ERK7QString
libQt6Core.so.6:_ZN9QFileInfoD1Ev
libQt6Core.so.6:_ZN9QHashSeed10globalSeedEv
libQt6Core.so.6:_ZN9QIODevice16staticMetaObjectE
libQt6Core.so.6:_ZN9QIODevice5writeERK10QByteArray
libQt6Core.so.6:_ZN9QIODevice7readAllEv
libQt6Core.so.6:_ZN9QIODevice9readyReadEv
libQt6Core.so.6:_ZN9QMetaType14registerHelperEPKN9QtPrivate18QMetaTypeInterfaceE
libQt6Core.so.6:_ZN9QMetaType25registerConverterFunctionERKSt8functionIFbPKvPvEES_S_
libQt6Core.so.6:_ZN9QMetaType25registerNormalizedTypedefERK10QByteArrayS_
libQt6Core.so.6:_ZN9QMetaType27registerMutableViewFunctionERKSt8functionIFbPvS1_EES_S_
libQt6Core.so.6:_ZN9QMetaType27unregisterConverterFunctionES_S_
libQt6Core.so.6:_ZN9QMetaType29unregisterMutableViewFunctionES_S_
libQt6Core.so.6:_ZN9QMetaType30hasRegisteredConverterFunctionES_S_
libQt6Core.so.6:_ZN9QMetaType7convertES_PKvS_Pv
libQt6Core.so.6:_ZN9QMetaTypeC1Ei
libQt6Core.so.6:_ZN9QMimeTypeD1Ev
libQt6Core.so.6:_ZN9QRunnableD2Ev
libQt6Core.so.6:_ZN9QSettings10beginGroupE14QAnyStringView
libQt6Core.so.6:_ZN9QSettingsC1ERK7QStringNS_6FormatEP7QObject
libQt6Core.so.6:_ZN9QSettingsD1Ev
libQt6Core.so.6:_ZN9QUrlQuery12addQueryItemERK7QStringS2_
libQt6Core.so.6:_ZN9QUrlQueryC1ERK4QUrl
libQt6Core.so.6:_ZN9QUrlQueryC1Ev
libQt6Core.so.6:_ZN9QUrlQueryD1Ev
libQt6Core.so.6:_ZN9QtPrivate10findStringE11QStringViewx13QLatin1StringN2Qt15CaseSensitivityE
libQt6Core.so.6:_ZN9QtPrivate10findStringE11QStringViewxS0_N2Qt15CaseSensitivityE
libQt6Core.so.6:_ZN9QtPrivate10startsWithE11QStringView13QLatin1StringN2Qt15CaseSensitivityE
libQt6Core.so.6:_ZN9QtPrivate10startsWithE14QByteArrayViewS0_
libQt6Core.so.6:_ZN9QtPrivate11lastIndexOfE11QStringViewxDsN2Qt15CaseSensitivityE
libQt6Core.so.6:_ZN9QtPrivate11lastIndexOfE13QLatin1Stringx11QStringViewN2Qt15CaseSensitivityE
libQt6Core.so.6:_ZN9QtPrivate12argToQStringE14QAnyStringViewmPPKNS_7ArgBaseE
libQt6Core.so.6:_ZN9QtPrivate12equalStringsE11QStringView13QLatin1String
libQt6Core.so.6:_ZN9QtPrivate12equalStringsE11QStringView20QBasicUtf8StringViewILb0EE
libQt6Core.so.6:_ZN9QtPrivate12equalStringsE11QStringViewS0_
libQt6Core.so.6:_ZN9QtPrivate12equalStringsE13QLatin1String11QStringView
libQt6Core.so.6:_ZN9QtPrivate13convertToUtf8E11QStringView
libQt6Core.so.6:_ZN9QtPrivate14compareStringsE11QStringViewS0_N2Qt15CaseSensitivityE
libQt6Core.so.6:_ZN9QtPrivate15ResultStoreBase9addResultEiPKv
libQt6Core.so.6:_ZN9QtPrivate16QStringList_joinEPK5QListI7QStringEPK5QCharx
libQt6Core.so.6:_ZN9QtPrivate16QStringList_joinERK5QListI7QStringE13QLatin1String
libQt6Core.so.6:_ZN9QtPrivate16QStringList_sortEP5QListI7QStringEN2Qt15CaseSensitivityE
libQt6Core.so.6:_ZN9QtPrivate19QStringList_indexOfERK5QListI7QStringE11QStringViewxN2Qt15CaseSensitivityE
libQt6Core.so.6:_ZN9QtPrivate20QStringList_containsEPK5QListI7QStringE11QStringViewN2Qt15CaseSensitivityE
libQt6Core.so.6:_ZN9QtPrivate21watchContinuationImplEPK7QObjectPNS_15QSlotObjectBaseER20QFutureInterfaceBase
libQt6Core.so.6:_ZN9QtPrivate25QMetaTypeInterfaceWrapperI10QByteArrayE8metaTypeE
libQt6Core.so.6:_ZN9QtPrivate25QMetaTypeInterfaceWrapperI10QJsonArrayE8metaTypeE
libQt6Core.so.6:_ZN9QtPrivate25QMetaTypeInterfaceWrapperI4QUrlE8metaTypeE
libQt6Core.so.6:_ZN9QtPrivate25QMetaTypeInterfaceWrapperI5QDateE8metaTypeE
libQt6Core.so.6:_ZN9QtPrivate25QMetaTypeInterfaceWrapperI5QListI10QByteArrayEE8metaTypeE
libQt6Core.so.6:_ZN9QtPrivate25QMetaTypeInterfaceWrapperI5QListI7QStringEE8metaTypeE
libQt6Core.so.6:_ZN9QtPrivate25QMetaTypeInterfaceWrapperI5QListI8QVariantEE8metaTypeE
libQt6Core.so.6:_ZN9QtPrivate25QMetaTypeInterfaceWrapperI7QStringE8metaTypeE
libQt6Core.so.6:_ZN9QtPrivate25QMetaTypeInterfaceWrapperI8QVariantE8metaTypeE
libQt6Core.so.6:_ZN9QtPrivate25QMetaTypeInterfaceWrapperI9QDateTimeE8metaTypeE
libQt6Core.so.6:_ZN9QtPrivate25QMetaTypeInterfaceWrapperIP7QObjectE8metaTypeE
libQt6Core.so.6:_ZN9QtPrivate25QMetaTypeInterfaceWrapperIbE8metaTypeE
libQt6Core.so.6:_ZN9QtPrivate25QMetaTypeInterfaceWrapperIdE8metaTypeE
libQt6Core.so.6:_ZN9QtPrivate25QMetaTypeInterfaceWrapperIfE8metaTypeE
libQt6Core.so.6:_ZN9QtPrivate25QMetaTypeInterfaceWrapperIiE8metaTypeE
libQt6Core.so.6:_ZN9QtPrivate25QMetaTypeInterfaceWrapperIjE8metaTypeE
libQt6Core.so.6:_ZN9QtPrivate25QMetaTypeInterfaceWrapperImE8metaTypeE
libQt6Core.so.6:_ZN9QtPrivate25QMetaTypeInterfaceWrapperIxE8metaTypeE
libQt6Core.so.6:_ZN9QtPrivate25QMetaTypeInterfaceWrapperIyE8metaTypeE
libQt6Core.so.6:_ZN9QtPrivate28QStringList_removeDuplicatesEP5QListI7QStringE
libQt6Core.so.6:_ZN9QtPrivate52hasRegisteredConverterFunctionToIterableMetaSequenceE9QMetaType
libQt6Core.so.6:_ZN9QtPrivate54hasRegisteredMutableViewFunctionToIterableMetaSequenceE9QMetaType
libQt6Core.so.6:_ZN9QtPrivate55hasRegisteredConverterFunctionToIterableMetaAssociationE9QMetaType
libQt6Core.so.6:_ZN9QtPrivate57hasRegisteredMutableViewFunctionToIterableMetaAssociationE9QMetaType
libQt6Core.so.6:_ZN9QtPrivate7trimmedE11QStringView
libQt6Core.so.6:_ZN9QtPrivate8endsWithE13QLatin1StringS0_N2Qt15CaseSensitivityE
libQt6Core.so.6:_ZN9QtPrivate8endsWithE14QByteArrayViewS0_
libQt6Core.so.6:_ZN9QtPrivate8qustrchrE11QStringViewDs
libQt6Core.so.6:_ZNK10QByteArray5toHexEc
libQt6Core.so.6:_ZNK10QJsonArray4sizeEv
libQt6Core.so.6:_ZNK10QJsonValue5toIntEi
libQt6Core.so.6:_ZNK10QJsonValue8toObjectEv
libQt6Core.so.6:_ZNK10QJsonValue8toStringEv
libQt6Core.so.6:_ZNK11QDataStream26isDeviceTransactionStartedEv
libQt6Core.so.6:_ZNK11QJsonObject4sizeEv
libQt6Core.so.6:_ZNK11QJsonObject5valueE13QLatin1String
libQt6Core.so.6:_ZNK11QJsonObject7isEmptyEv
libQt6Core.so.6:_ZNK11QMetaObject10Connection18isConnected_helperEv
libQt6Core.so.6:_ZNK11QMetaObject10enumeratorEi
libQt6Core.so.6:_ZNK11QMetaObject13propertyCountEv
libQt6Core.so.6:_ZNK11QMetaObject14propertyOffsetEv
libQt6Core.so.6:_ZNK11QMetaObject15indexOfPropertyEPKc
libQt6Core.so.6:_ZNK11QMetaObject17indexOfEnumeratorEPKc
libQt6Core.so.6:_ZNK11QMetaObject4castEPK7QObject
libQt6Core.so.6:_ZNK11QMetaObject8propertyEi
libQt6Core.so.6:_ZNK11QMetaObject9classNameEv
libQt6Core.so.6:_ZNK11QObjectData17dynamicMetaObjectEv
libQt6Core.so.6:_ZNK11QStringView5splitE5QChar6QFlagsIN2Qt18SplitBehaviorFlagsEENS2_15CaseSensitivityE
libQt6Core.so.6:_ZNK11QThreadPool10metaObjectEv
libQt6Core.so.6:_ZNK11QThreadPool17activeThreadCountEv
libQt6Core.so.6:_ZNK12QDirIterator7hasNextEv
libQt6Core.so.6:_ZNK12QDirIterator8fileInfoEv
libQt6Core.so.6:_ZNK12QDirIterator8fileNameEv
libQt6Core.so.6:_ZNK12QStorageInfo10bytesTotalEv
libQt6Core.so.6:_ZNK13QJsonDocument5arrayEv
libQt6Core.so.6:_ZNK13QJsonDocument6objectEv
libQt6Core.so.6:_ZNK13QJsonDocument6toJsonENS_10JsonFormatE
libQt6Core.so.6:_ZNK13QJsonValueRef8toObjectEv
libQt6Core.so.6:_ZNK13QMetaProperty12notifySignalEv
libQt6Core.so.6:_ZNK13QMetaProperty4nameEv
libQt6Core.so.6:_ZNK13QMetaProperty4readEPK7QObject
libQt6Core.so.6:_ZNK13QMimeDatabase14mimeTypeForUrlERK4QUrl
libQt6Core.so.6:_ZNK13QMimeDatabase15mimeTypeForFileERK7QStringNS_9MatchModeE
libQt6Core.so.6:_ZNK13QPluginLoader11errorStringEv
libQt6Core.so.6:_ZNK13QPluginLoader8metaDataEv
libQt6Core.so.6:_ZNK14QMessageLogger4infoEv
libQt6Core.so.6:_ZNK14QMessageLogger5debugEv
libQt6Core.so.6:_ZNK14QMessageLogger5fatalEPKcz
libQt6Core.so.6:_ZNK14QMessageLogger7warningEv
libQt6Core.so.6:_ZNK14QTemporaryFile8fileNameEv
libQt6Core.so.6:_ZNK15QJsonParseError11errorStringEv
libQt6Core.so.6:_ZNK16QCollatorSortKey7compareERKS_
libQt6Core.so.6:_ZNK16QXmlStreamReader10lineNumberEv
libQt6Core.so.6:_ZNK16QXmlStreamReader11errorStringEv
libQt6Core.so.6:_ZNK16QXmlStreamReader11tokenStringEv
libQt6Core.so.6:_ZNK16QXmlStreamReader4nameEv
libQt6Core.so.6:_ZNK16QXmlStreamReader4textEv
libQt6Core.so.6:_ZNK16QXmlStreamReader5atEndEv
libQt6Core.so.6:_ZNK16QXmlStreamReader5errorEv
libQt6Core.so.6:_ZNK16QXmlStreamReader9tokenTypeEv
libQt6Core.so.6:_ZNK18QAbstractItemModel10headerDataEiN2Qt11OrientationEi
libQt6Core.so.6:_ZNK18QAbstractItemModel11hasChildrenERK11QModelIndex
libQt6Core.so.6:_ZNK18QAbstractItemModel12canFetchMoreERK11QModelIndex
libQt6Core.so.6:_ZNK18QAbstractItemModel15canDropMimeDataEPK9QMimeDataN2Qt10DropActionEiiRK11QModelIndex
libQt6Core.so.6:_ZNK18QAbstractItemModel20supportedDragActionsEv
libQt6Core.so.6:_ZNK18QAbstractItemModel20supportedDropActionsEv
libQt6Core.so.6:_ZNK18QAbstractItemModel4spanERK11QModelIndex
libQt6Core.so.6:_ZNK18QAbstractItemModel5buddyERK11QModelIndex
libQt6Core.so.6:_ZNK18QAbstractItemModel5matchERK11QModelIndexiRK8QVarianti6QFlagsIN2Qt9MatchFlagEE
libQt6Core.so.6:_ZNK18QAbstractItemModel7siblingEiiRK11QModelIndex
libQt6Core.so.6:_ZNK18QAbstractItemModel8itemDataERK11QModelIndex
libQt6Core.so.6:_ZNK18QAbstractItemModel8mimeDataERK5QListI11QModelIndexE
libQt6Core.so.6:_ZNK18QAbstractItemModel9mimeTypesEv
libQt6Core.so.6:_ZNK18QAbstractItemModel9multiDataERK11QModelIndex18QModelRoleDataSpan
libQt6Core.so.6:_ZNK18QAbstractItemModel9roleNamesEv
libQt6Core.so.6:_ZNK18QAbstractListModel10metaObjectEv
libQt6Core.so.6:_ZNK18QAbstractListModel11columnCountERK11QModelIndex
libQt6Core.so.6:_ZNK18QAbstractListModel11hasChildrenERK11QModelIndex
libQt6Core.so.6:_ZNK18QAbstractListModel5flagsERK11QModelIndex
libQt6Core.so.6:_ZNK18QAbstractListModel5indexEiiRK11QModelIndex
libQt6Core.so.6:_ZNK18QAbstractListModel6parentERK11QModelIndex
libQt6Core.so.6:_ZNK18QAbstractListModel7siblingEiiRK11QModelIndex
libQt6Core.so.6:_ZNK18QCommandLineParser11optionNamesEv
libQt6Core.so.6:_ZNK18QCommandLineParser19positionalArgumentsEv
libQt6Core.so.6:_ZNK18QCommandLineParser5isSetERK18QCommandLineOption
libQt6Core.so.6:_ZNK18QCommandLineParser5isSetERK7QString
libQt6Core.so.6:_ZNK18QCommandLineParser5valueERK18QCommandLineOption
libQt6Core.so.6:_ZNK18QCommandLineParser5valueERK7QString
libQt6Core.so.6:_ZNK18QCryptographicHash6resultEv
libQt6Core.so.6:_ZNK18QFutureWatcherBase10metaObjectEv
libQt6Core.so.6:_ZNK18QJsonValueConstRef8toObjectEv
libQt6Core.so.6:_ZNK18QRegularExpression11errorStringEv
libQt6Core.so.6:_ZNK18QRegularExpression11globalMatchERK7QStringxNS_9MatchTypeE6QFlagsINS_11MatchOptionEE
libQt6Core.so.6:_ZNK18QRegularExpression5matchERK7QStringxNS_9MatchTypeE6QFlagsINS_11MatchOptionEE
libQt6Core.so.6:_ZNK18QRegularExpression7isValidEv
libQt6Core.so.6:_ZNK18QRegularExpression7patternEv
libQt6Core.so.6:_ZNK19QAbstractProxyModel11sourceModelEv
libQt6Core.so.6:_ZNK19QAbstractProxyModel15canDropMimeDataEPK9QMimeDataN2Qt10DropActionEiiRK11QModelIndex
libQt6Core.so.6:_ZNK19QAbstractProxyModel20supportedDragActionsEv
libQt6Core.so.6:_ZNK19QAbstractProxyModel8itemDataERK11QModelIndex
libQt6Core.so.6:_ZNK19QAbstractProxyModel9roleNamesEv
libQt6Core.so.6:_ZNK20QFutureInterfaceBase10isCanceledEv
libQt6Core.so.6:_ZNK20QFutureInterfaceBase10isFinishedEv
libQt6Core.so.6:_ZNK20QFutureInterfaceBase10queryStateENS_5StateE
libQt6Core.so.6:_ZNK20QFutureInterfaceBase12hasExceptionEv
libQt6Core.so.6:_ZNK20QFutureInterfaceBase15isChainCanceledEv
libQt6Core.so.6:_ZNK20QFutureInterfaceBase15resultStoreBaseEv
libQt6Core.so.6:_ZNK20QFutureInterfaceBase15runContinuationEv
libQt6Core.so.6:_ZNK20QFutureInterfaceBase4refTEv
libQt6Core.so.6:_ZNK20QFutureInterfaceBase5mutexEv
libQt6Core.so.6:_ZNK20QFutureInterfaceBase6derefTEv
libQt6Core.so.6:_ZNK20QFutureInterfaceBase9loadStateEv
libQt6Core.so.6:_ZNK21QSortFilterProxyModel10headerDataEiN2Qt11OrientationEi
libQt6Core.so.6:_ZNK21QSortFilterProxyModel11columnCountERK11QModelIndex
libQt6Core.so.6:_ZNK21QSortFilterProxyModel11hasChildrenERK11QModelIndex
libQt6Core.so.6:_ZNK21QSortFilterProxyModel11mapToSourceERK11QModelIndex
libQt6Core.so.6:_ZNK21QSortFilterProxyModel12canFetchMoreERK11QModelIndex
libQt6Core.so.6:_ZNK21QSortFilterProxyModel13mapFromSourceERK11QModelIndex
libQt6Core.so.6:_ZNK21QSortFilterProxyModel19filterAcceptsColumnEiRK11QModelIndex
libQt6Core.so.6:_ZNK21QSortFilterProxyModel20mapSelectionToSourceERK14QItemSelection
libQt6Core.so.6:_ZNK21QSortFilterProxyModel20supportedDropActionsEv
libQt6Core.so.6:_ZNK21QSortFilterProxyModel22mapSelectionFromSourceERK14QItemSelection
libQt6Core.so.6:_ZNK21QSortFilterProxyModel4dataERK11QModelIndexi
libQt6Core.so.6:_ZNK21QSortFilterProxyModel4spanERK11QModelIndex
libQt6Core.so.6:_ZNK21QSortFilterProxyModel5buddyERK11QModelIndex
libQt6Core.so.6:_ZNK21QSortFilterProxyModel5flagsERK11QModelIndex
libQt6Core.so.6:_ZNK21QSortFilterProxyModel5indexEiiRK11QModelIndex
libQt6Core.so.6:_ZNK21QSortFilterProxyModel5matchERK11QModelIndexiRK8QVarianti6QFlagsIN2Qt9MatchFlagEE
libQt6Core.so.6:_ZNK21QSortFilterProxyModel6parentERK11QModelIndex
libQt6Core.so.6:_ZNK21QSortFilterProxyModel7siblingEiiRK11QModelIndex
libQt6Core.so.6:_ZNK21QSortFilterProxyModel8lessThanERK11QModelIndexS2_
libQt6Core.so.6:_ZNK21QSortFilterProxyModel8mimeDataERK5QListI11QModelIndexE
libQt6Core.so.6:_ZNK21QSortFilterProxyModel8rowCountERK11QModelIndex
libQt6Core.so.6:_ZNK21QSortFilterProxyModel9mimeTypesEv
libQt6Core.so.6:_ZNK23QRegularExpressionMatch12capturedViewEi
libQt6Core.so.6:_ZNK23QRegularExpressionMatch13capturedStartEi
libQt6Core.so.6:_ZNK23QRegularExpressionMatch14capturedLengthEi
libQt6Core.so.6:_ZNK23QRegularExpressionMatch17lastCapturedIndexEv
libQt6Core.so.6:_ZNK23QRegularExpressionMatch7isValidEv
libQt6Core.so.6:_ZNK23QRegularExpressionMatch8capturedEi
libQt6Core.so.6:_ZNK23QRegularExpressionMatch8hasMatchEv
libQt6Core.so.6:_ZNK28QConcatenateTablesProxyModel10headerDataEiN2Qt11OrientationEi
libQt6Core.so.6:_ZNK28QConcatenateTablesProxyModel11columnCountERK11QModelIndex
libQt6Core.so.6:_ZNK28QConcatenateTablesProxyModel11mapToSourceERK11QModelIndex
libQt6Core.so.6:_ZNK28QConcatenateTablesProxyModel15canDropMimeDataEPK9QMimeDataN2Qt10DropActionEiiRK11QModelIndex
libQt6Core.so.6:_ZNK28QConcatenateTablesProxyModel4dataERK11QModelIndexi
libQt6Core.so.6:_ZNK28QConcatenateTablesProxyModel4spanERK11QModelIndex
libQt6Core.so.6:_ZNK28QConcatenateTablesProxyModel5flagsERK11QModelIndex
libQt6Core.so.6:_ZNK28QConcatenateTablesProxyModel5indexEiiRK11QModelIndex
libQt6Core.so.6:_ZNK28QConcatenateTablesProxyModel6parentERK11QModelIndex
libQt6Core.so.6:_ZNK28QConcatenateTablesProxyModel8itemDataERK11QModelIndex
libQt6Core.so.6:_ZNK28QConcatenateTablesProxyModel8mimeDataERK5QListI11QModelIndexE
libQt6Core.so.6:_ZNK28QConcatenateTablesProxyModel8rowCountERK11QModelIndex
libQt6Core.so.6:_ZNK28QConcatenateTablesProxyModel9mimeTypesEv
libQt6Core.so.6:_ZNK28QConcatenateTablesProxyModel9roleNamesEv
libQt6Core.so.6:_ZNK31QRegularExpressionMatchIterator7hasNextEv
libQt6Core.so.6:_ZNK4QDir16absoluteFilePathERK7QString
libQt6Core.so.6:_ZNK4QDir5mkdirERK7QString
libQt6Core.so.6:_ZNK4QDir6existsEv
libQt6Core.so.6:_ZNK4QDir6mkpathERK7QString
libQt6Core.so.6:_ZNK4QDir8filePathERK7QString
libQt6Core.so.6:_ZNK4QDir9entryListE6QFlagsINS_6FilterEES0_INS_8SortFlagEE
libQt6Core.so.6:_ZNK4QUrl11isLocalFileEv
libQt6Core.so.6:_ZNK4QUrl11toLocalFileEv
libQt6Core.so.6:_ZNK4QUrl15toDisplayStringE12QUrlTwoFlagsINS_19UrlFormattingOptionENS_25ComponentFormattingOptionEE
libQt6Core.so.6:_ZNK4QUrl4hostE6QFlagsINS_25ComponentFormattingOptionEE
libQt6Core.so.6:_ZNK4QUrl4pathE6QFlagsINS_25ComponentFormattingOptionEE
libQt6Core.so.6:_ZNK4QUrl6schemeEv
libQt6Core.so.6:_ZNK4QUrl7isEmptyEv
libQt6Core.so.6:_ZNK4QUrl7isValidEv
libQt6Core.so.6:_ZNK4QUrl8fileNameE6QFlagsINS_25ComponentFormattingOptionEE
libQt6Core.so.6:_ZNK4QUrl8hasQueryEv
libQt6Core.so.6:_ZNK4QUrl8toStringE12QUrlTwoFlagsINS_19UrlFormattingOptionENS_25ComponentFormattingOptionEE
libQt6Core.so.6:_ZNK5QDate8toStringEN2Qt10DateFormatE
libQt6Core.so.6:_ZNK5QFile4sizeEv
libQt6Core.so.6:_ZNK5QFile8fileNameEv
libQt6Core.so.6:_ZNK6QTimer8intervalEv
libQt6Core.so.6:_ZNK6QTimer8isActiveEv
libQt6Core.so.6:_ZNK7QLocale4nameENS_12TagSeparatorE
libQt6Core.so.6:_ZNK7QLocale8toStringERK9QDateTimeNS_10FormatTypeE
libQt6Core.so.6:_ZNK7QObject10metaObjectEv
libQt6Core.so.6:_ZNK7QObject10objectNameEv
libQt6Core.so.6:_ZNK7QObject6senderEv
libQt6Core.so.6:_ZNK7QObject8propertyEPKc
libQt6Core.so.6:_ZNK7QString10startsWithE13QLatin1StringN2Qt15CaseSensitivityE
libQt6Core.so.6:_ZNK7QString10startsWithE5QCharN2Qt15CaseSensitivityE
libQt6Core.so.6:_ZNK7QString10startsWithERKS_N2Qt15CaseSensitivityE
libQt6Core.so.6:_ZNK7QString13toHtmlEscapedEv
libQt6Core.so.6:_ZNK7QString18localeAwareCompareERKS_
libQt6Core.so.6:_ZNK7QString5splitE5QChar6QFlagsIN2Qt18SplitBehaviorFlagsEENS2_15CaseSensitivityE
libQt6Core.so.6:_ZNK7QString7compareERKS_N2Qt15CaseSensitivityE
libQt6Core.so.6:_ZNK7QString7indexOfE13QLatin1StringxN2Qt15CaseSensitivityE
libQt6Core.so.6:_ZNK7QString7indexOfERKS_xN2Qt15CaseSensitivityE
libQt6Core.so.6:_ZNK7QString7sectionERKS_xx6QFlagsINS_11SectionFlagEE
libQt6Core.so.6:_ZNK7QString8arg_implE14QAnyStringViewi5QChar
libQt6Core.so.6:_ZNK7QString8endsWithE13QLatin1StringN2Qt15CaseSensitivityE
libQt6Core.so.6:_ZNK8QVariant12qdebugHelperE6QDebug
libQt6Core.so.6:_ZNK8QVariant5toIntEPb
libQt6Core.so.6:_ZNK8QVariant6equalsERKS_
libQt6Core.so.6:_ZNK8QVariant6isNullEv
libQt6Core.so.6:_ZNK8QVariant6toBoolEv
libQt6Core.so.6:_ZNK8QVariant6toListEv
libQt6Core.so.6:_ZNK8QVariant8metaTypeEv
libQt6Core.so.6:_ZNK8QVariant8toStringEv
libQt6Core.so.6:_ZNK9QCollator7compareE11QStringViewS0_
libQt6Core.so.6:_ZNK9QDateTime16toSecsSinceEpochEv
libQt6Core.so.6:_ZNK9QDateTime4dateEv
libQt6Core.so.6:_ZNK9QDateTime5toUTCEv
libQt6Core.so.6:_ZNK9QDateTime6daysToERKS_
libQt6Core.so.6:_ZNK9QDateTime6equalsERKS_
libQt6Core.so.6:_ZNK9QDateTime6isNullEv
libQt6Core.so.6:_ZNK9QDateTime6secsToERKS_
libQt6Core.so.6:_ZNK9QDateTime7addSecsEx
libQt6Core.so.6:_ZNK9QDateTime7isValidEv
libQt6Core.so.6:_ZNK9QDateTime7msecsToERKS_
libQt6Core.so.6:_ZNK9QDateTime8toStringEN2Qt10DateFormatE
libQt6Core.so.6:_ZNK9QFileInfo4sizeEv
libQt6Core.so.6:_ZNK9QFileInfo6existsEv
libQt6Core.so.6:_ZNK9QFileInfo8baseNameEv
libQt6Core.so.6:_ZNK9QFileInfo8fileNameEv
libQt6Core.so.6:_ZNK9QFileInfo8fileTimeEN11QFileDevice8FileTimeE
libQt6Core.so.6:_ZNK9QIODevice11errorStringEv
libQt6Core.so.6:_ZNK9QIODevice6isOpenEv
libQt6Core.so.6:_ZNK9QMetaEnum10valueToKeyEy
libQt6Core.so.6:_ZNK9QMimeType4nameEv
libQt6Core.so.6:_ZNK9QMimeType7isValidEv
libQt6Core.so.6:_ZNK9QMimeType8inheritsERK7QString
libQt6Core.so.6:_ZNK9QSettings5valueE14QAnyStringView
libQt6Core.so.6:_ZNK9QUrlQuery14queryItemValueERK7QString6QFlagsIN4QUrl25ComponentFormattingOptionEE
libQt6Core.so.6:_ZNK9QtPrivate14ExceptionStore9exceptionEv
libQt6Core.so.6:_ZNK9QtPrivate15ResultStoreBase10filterModeEv
libQt6Core.so.6:_ZNK9QtPrivate15ResultStoreBase23containsValidResultItemEi
libQt6Core.so.6:_ZNK9QtPrivate15ResultStoreBase5countEv
libQt6Core.so.6:_ZNK9QtPrivate15ResultStoreBase8resultAtEi
libQt6Core.so.6:_ZNKR10QByteArray3midExx
libQt6Core.so.6:_ZNKR7QString3midExx
libQt6Core.so.6:_ZTI10QException
libQt6Core.so.6:_ZTI11QThreadPool
libQt6Core.so.6:_ZTI18QAbstractListModel
libQt6Core.so.6:_ZTI18QFutureWatcherBase
libQt6Core.so.6:_ZTI20QFutureInterfaceBase
libQt6Core.so.6:_ZTI21QSortFilterProxyModel
libQt6Core.so.6:_ZTI28QConcatenateTablesProxyModel
libQt6Core.so.6:_ZTI7QObject
libQt6Core.so.6:_ZTI7QThread
libQt6Core.so.6:_ZTI9QRunnable
libQt6Core.so.6:_ZTVN9QRunnable16QGenericRunnableE
libQt6Core.so.6:_Zls6QDebugPK7QObject
libQt6Core.so.6:_Zls6QDebugRK11QJsonObject
libQt6Core.so.6:_Zls6QDebugRK4QUrl
libQt6Core.so.6:_Zls6QDebugRK9QDateTime
libQt6Core.so.6:_ZlsR11QDataStreamRK7QString
libQt6Core.so.6:_ZlsR11QDataStreamRK8QVariant
libQt6Core.so.6:_ZrsR11QDataStreamR7QString
libQt6Core.so.6:_ZrsR11QDataStreamR8QVariant
libQt6Core.so.6:qt_resourceFeatureZstd
libQt6Core.so.6:qt_version_tag
libQt6DBus.so.6:_Z41qRegisterNormalizedMetaType_QDBusArgumentRK10QByteArray
libQt6DBus.so.6:_Z43qRegisterNormalizedMetaType_QDBusObjectPathRK10QByteArray
libQt6DBus.so.6:_Z51qRegisterNormalizedMetaType_QDBusUnixFileDescriptorRK10QByteArray
libQt6DBus.so.6:_ZN12QDBusMessage12createSignalERK7QStringS2_S2_
libQt6DBus.so.6:_ZN12QDBusMessage12setArgumentsERK5QListI8QVariantE
libQt6DBus.so.6:_ZN12QDBusMessage16createMethodCallERK7QStringS2_S2_S2_
libQt6DBus.so.6:_ZN12QDBusMessageC1Ev
libQt6DBus.so.6:_ZN12QDBusMessageD1Ev
libQt6DBus.so.6:_ZN13QDBusArgumentC1ERKS_
libQt6DBus.so.6:_ZN13QDBusArgumentC1Ev
libQt6DBus.so.6:_ZN13QDBusArgumentD1Ev
libQt6DBus.so.6:_ZN15QDBusConnection10sessionBusEv
libQt6DBus.so.6:_ZN15QDBusConnection7connectERK7QStringS2_S2_S2_P7QObjectPKc
libQt6DBus.so.6:_ZN15QDBusConnection9systemBusEv
libQt6DBus.so.6:_ZN15QDBusConnectionD1Ev
libQt6DBus.so.6:_ZN15QDBusObjectPath7doCheckEv
libQt6DBus.so.6:_ZN16QDBusPendingCall15waitForFinishedEv
libQt6DBus.so.6:_ZN16QDBusPendingCallC2ERKS_
libQt6DBus.so.6:_ZN16QDBusPendingCallD1Ev
libQt6DBus.so.6:_ZN21QDBusPendingReplyBase12setMetaTypesEiPK9QMetaType
libQt6DBus.so.6:_ZN21QDBusPendingReplyBase6assignERK12QDBusMessage
libQt6DBus.so.6:_ZN21QDBusPendingReplyBase6assignERK16QDBusPendingCall
libQt6DBus.so.6:_ZN21QDBusPendingReplyBaseC2Ev
libQt6DBus.so.6:_ZN21QDBusPendingReplyBaseD2Ev
libQt6DBus.so.6:_ZN22QDBusAbstractInterface11qt_metacallEN11QMetaObject4CallEiPPv
libQt6DBus.so.6:_ZN22QDBusAbstractInterface11qt_metacastEPKc
libQt6DBus.so.6:_ZN22QDBusAbstractInterface13connectNotifyERK11QMetaMethod
libQt6DBus.so.6:_ZN22QDBusAbstractInterface16disconnectNotifyERK11QMetaMethod
libQt6DBus.so.6:_ZN22QDBusAbstractInterface16staticMetaObjectE
libQt6DBus.so.6:_ZN22QDBusAbstractInterface25asyncCallWithArgumentListERK7QStringRK5QListI8QVariantE
libQt6DBus.so.6:_ZN22QDBusAbstractInterfaceC2ERK7QStringS2_PKcRK15QDBusConnectionP7QObject
libQt6DBus.so.6:_ZN22QDBusAbstractInterfaceD2Ev
libQt6DBus.so.6:_ZN23QDBusPendingCallWatcher16staticMetaObjectE
libQt6DBus.so.6:_ZN23QDBusPendingCallWatcher8finishedEPS_
libQt6DBus.so.6:_ZN23QDBusPendingCallWatcherC1ERK16QDBusPendingCallP7QObject
libQt6DBus.so.6:_ZN23QDBusUnixFileDescriptorC1ERKS_
libQt6DBus.so.6:_ZN23QDBusUnixFileDescriptorC1Ev
libQt6DBus.so.6:_ZN23QDBusUnixFileDescriptorD1Ev
libQt6DBus.so.6:_ZNK10QDBusError7messageEv
libQt6DBus.so.6:_ZNK13QDBusArgumentrsER15QDBusObjectPath
libQt6DBus.so.6:_ZNK13QDBusArgumentrsER7QString
libQt6DBus.so.6:_ZNK13QDBusArgumentrsERj
libQt6DBus.so.6:_ZNK15QDBusConnection4sendERK12QDBusMessage
libQt6DBus.so.6:_ZNK15QDBusConnection9asyncCallERK12QDBusMessagei
libQt6DBus.so.6:_ZNK15QDBusConnection9interfaceEv
libQt6DBus.so.6:_ZNK16QDBusPendingCall5errorEv
libQt6DBus.so.6:_ZNK16QDBusPendingCall5replyEv
libQt6DBus.so.6:_ZNK16QDBusPendingCall7isErrorEv
libQt6DBus.so.6:_ZNK21QDBusPendingReplyBase10argumentAtEi
libQt6DBus.so.6:_ZNK24QDBusConnectionInterface19isServiceRegisteredERK7QString
libQt6DBus.so.6:_ZTI22QDBusAbstractInterface
libQt6DBus.so.6:_Zls6QDebugRK10QDBusError
libQt6DBus.so.6:_Zls6QDebugRK15QDBusObjectPath
libQt6Gui.so.6:_ZN10QClipboard7setTextERK7QStringNS_4ModeE
libQt6Gui.so.6:_ZN13QStandardItem10setEnabledEb
libQt6Gui.so.6:_ZN13QStandardItem12setCheckableEb
libQt6Gui.so.6:_ZN13QStandardItem4readER11QDataStream
libQt6Gui.so.6:_ZN13QStandardItem7setDataERK8QVarianti
libQt6Gui.so.6:_ZN13QStandardItemC1ERK7QString
libQt6Gui.so.6:_ZN13QStandardItemC2ERK7QString
libQt6Gui.so.6:_ZN13QStandardItemD2Ev
libQt6Gui.so.6:_ZN15QGuiApplication10windowIconEv
libQt6Gui.so.6:_ZN15QGuiApplication13setWindowIconERK5QIcon
libQt6Gui.so.6:_ZN15QGuiApplication15desktopFileNameEv
libQt6Gui.so.6:_ZN15QGuiApplication16staticMetaObjectE
libQt6Gui.so.6:_ZN15QGuiApplication17commitDataRequestER15QSessionManager
libQt6Gui.so.6:_ZN15QGuiApplication9clipboardEv
libQt6Gui.so.6:_ZN15QSessionManager6cancelEv
libQt6Gui.so.6:_ZN16QDesktopServices7openUrlERK4QUrl
libQt6Gui.so.6:_ZN18QStandardItemModel10insertRowsEiiRK11QModelIndex
libQt6Gui.so.6:_ZN18QStandardItemModel10removeRowsEiiRK11QModelIndex
libQt6Gui.so.6:_ZN18QStandardItemModel11qt_metacallEN11QMetaObject4CallEiPPv
libQt6Gui.so.6:_ZN18QStandardItemModel11qt_metacastEPKc
libQt6Gui.so.6:_ZN18QStandardItemModel11setItemDataERK11QModelIndexRK4QMapIi8QVariantE
libQt6Gui.so.6:_ZN18QStandardItemModel12dropMimeDataEPK9QMimeDataN2Qt10DropActionEiiRK11QModelIndex
libQt6Gui.so.6:_ZN18QStandardItemModel13clearItemDataERK11QModelIndex
libQt6Gui.so.6:_ZN18QStandardItemModel13insertColumnsEiiRK11QModelIndex
libQt6Gui.so.6:_ZN18QStandardItemModel13removeColumnsEiiRK11QModelIndex
libQt6Gui.so.6:_ZN18QStandardItemModel13setHeaderDataEiN2Qt11OrientationERK8QVarianti
libQt6Gui.so.6:_ZN18QStandardItemModel16staticMetaObjectE
libQt6Gui.so.6:_ZN18QStandardItemModel4sortEiN2Qt9SortOrderE
libQt6Gui.so.6:_ZN18QStandardItemModel7setDataERK11QModelIndexRK8QVarianti
libQt6Gui.so.6:_ZN18QStandardItemModel7takeRowEi
libQt6Gui.so.6:_ZN18QStandardItemModel9appendRowERK5QListIP13QStandardItemE
libQt6Gui.so.6:_ZN18QStandardItemModel9insertRowEiRK5QListIP13QStandardItemE
libQt6Gui.so.6:_ZN18QStandardItemModelC1EP7QObject
libQt6Gui.so.6:_ZN18QStandardItemModelC2EP7QObject
libQt6Gui.so.6:_ZN18QStandardItemModelD2Ev
libQt6Gui.so.6:_ZN5QIcon7addFileERK7QStringRK5QSizeNS_4ModeENS_5StateE
libQt6Gui.so.6:_ZN5QIcon9fromThemeERK7QString
libQt6Gui.so.6:_ZN5QIconC1ERK7QPixmap
libQt6Gui.so.6:_ZN5QIconC1ERKS_
libQt6Gui.so.6:_ZN5QIconC1Ev
libQt6Gui.so.6:_ZN5QIconD1Ev
libQt6Gui.so.6:_ZN6QImageD1Ev
libQt6Gui.so.6:_ZN7QAction16staticMetaObjectE
libQt6Gui.so.6:_ZN7QAction9triggeredEb
libQt6Gui.so.6:_ZN7QActionC1ERK7QStringP7QObject
libQt6Gui.so.6:_ZN7QPixmap12loadFromDataEPKhjPKc6QFlagsIN2Qt19ImageConversionFlagEE
libQt6Gui.so.6:_ZN7QPixmapC1ERK7QStringPKc6QFlagsIN2Qt19ImageConversionFlagEE
libQt6Gui.so.6:_ZN7QPixmapC1Ev
libQt6Gui.so.6:_ZN7QPixmapD1Ev
libQt6Gui.so.6:_ZN7QPixmapaSERKS_
libQt6Gui.so.6:_ZN7QWindow4hideEv
libQt6Gui.so.6:_ZN7QWindow4showEv
libQt6Gui.so.6:_ZNK13QStandardItem3rowEv
libQt6Gui.so.6:_ZNK13QStandardItem4dataEi
libQt6Gui.so.6:_ZNK13QStandardItem4typeEv
libQt6Gui.so.6:_ZNK13QStandardItem5cloneEv
libQt6Gui.so.6:_ZNK13QStandardItem5flagsEv
libQt6Gui.so.6:_ZNK13QStandardItem5modelEv
libQt6Gui.so.6:_ZNK13QStandardItem5writeER11QDataStream
libQt6Gui.so.6:_ZNK13QStandardItem9multiDataE18QModelRoleDataSpan
libQt6Gui.so.6:_ZNK13QStandardItemltERKS_
libQt6Gui.so.6:_ZNK18QStandardItemModel10headerDataEiN2Qt11OrientationEi
libQt6Gui.so.6:_ZNK18QStandardItemModel10metaObjectEv
libQt6Gui.so.6:_ZNK18QStandardItemModel11columnCountERK11QModelIndex
libQt6Gui.so.6:_ZNK18QStandardItemModel11hasChildrenERK11QModelIndex
libQt6Gui.so.6:_ZNK18QStandardItemModel13itemFromIndexERK11QModelIndex
libQt6Gui.so.6:_ZNK18QStandardItemModel20supportedDropActionsEv
libQt6Gui.so.6:_ZNK18QStandardItemModel4dataERK11QModelIndexi
libQt6Gui.so.6:_ZNK18QStandardItemModel4itemEii
libQt6Gui.so.6:_ZNK18QStandardItemModel5flagsERK11QModelIndex
libQt6Gui.so.6:_ZNK18QStandardItemModel5indexEiiRK11QModelIndex
libQt6Gui.so.6:_ZNK18QStandardItemModel6parentERK11QModelIndex
libQt6Gui.so.6:_ZNK18QStandardItemModel8itemDataERK11QModelIndex
libQt6Gui.so.6:_ZNK18QStandardItemModel8mimeDataERK5QListI11QModelIndexE
libQt6Gui.so.6:_ZNK18QStandardItemModel8rowCountERK11QModelIndex
libQt6Gui.so.6:_ZNK18QStandardItemModel9mimeTypesEv
libQt6Gui.so.6:_ZNK18QStandardItemModel9multiDataERK11QModelIndex18QModelRoleDataSpan
libQt6Gui.so.6:_ZNK18QStandardItemModel9roleNamesEv
libQt6Gui.so.6:_ZNK5QIcon4nameEv
libQt6Gui.so.6:_ZNK5QIcon6isNullEv
libQt6Gui.so.6:_ZNK5QIcon6pixmapERK5QSizeNS_4ModeENS_5StateE
libQt6Gui.so.6:_ZNK5QIconcv8QVariantEv
libQt6Gui.so.6:_ZNK6QImage4saveERK7QStringPKci
libQt6Gui.so.6:_ZNK7QPixmap6isNullEv
libQt6Gui.so.6:_ZNK7QPixmap7toImageEv
libQt6Gui.so.6:_ZTI13QStandardItem
libQt6Gui.so.6:_ZTI18QStandardItemModel
libQt6Gui.so.6:_Zls6QDebugRK5QIcon
libQt6Gui.so.6:_ZlsR11QDataStreamRK5QIcon
libQt6Gui.so.6:_ZrsR11QDataStreamR5QIcon
libQt6Network.so.6:_ZN13QNetworkReply16staticMetaObjectE
libQt6Network.so.6:_ZN13QNetworkReply8finishedEv
libQt6Network.so.6:_ZN15QNetworkRequest12setAttributeENS_9AttributeERK8QVariant
libQt6Network.so.6:_ZN15QNetworkRequest20setOriginatingObjectEP7QObject
libQt6Network.so.6:_ZN15QNetworkRequest9setHeaderENS_12KnownHeadersERK8QVariant
libQt6Network.so.6:_ZN15QNetworkRequestC1ERK4QUrl
libQt6Network.so.6:_ZN15QNetworkRequestC1ERKS_
libQt6Network.so.6:_ZN15QNetworkRequestD1Ev
libQt6Network.so.6:_ZN17QNetworkDiskCache17setCacheDirectoryERK7QString
libQt6Network.so.6:_ZN17QNetworkDiskCache19setMaximumCacheSizeEx
libQt6Network.so.6:_ZN17QNetworkDiskCacheC1EP7QObject
libQt6Network.so.6:_ZN19QNetworkInformation16staticMetaObjectE
libQt6Network.so.6:_ZN19QNetworkInformation19reachabilityChangedENS_12ReachabilityE
libQt6Network.so.6:_ZN19QNetworkInformation21loadBackendByFeaturesE6QFlagsINS_7FeatureEE
libQt6Network.so.6:_ZN19QNetworkInformation22transportMediumChangedENS_15TransportMediumE
libQt6Network.so.6:_ZN19QNetworkInformation28isBehindCaptivePortalChangedEb
libQt6Network.so.6:_ZN19QNetworkInformation8instanceEv
libQt6Network.so.6:_ZN21QNetworkAccessManager11qt_metacallEN11QMetaObject4CallEiPPv
libQt6Network.so.6:_ZN21QNetworkAccessManager11qt_metacastEPKc
libQt6Network.so.6:_ZN21QNetworkAccessManager13createRequestENS_9OperationERK15QNetworkRequestP9QIODevice
libQt6Network.so.6:_ZN21QNetworkAccessManager16staticMetaObjectE
libQt6Network.so.6:_ZN21QNetworkAccessManager18setTransferTimeoutENSt6chrono8durationIlSt5ratioILl1ELl1000EEEE
libQt6Network.so.6:_ZN21QNetworkAccessManager3getERK15QNetworkRequest
libQt6Network.so.6:_ZN21QNetworkAccessManager3putERK15QNetworkRequestRK10QByteArray
libQt6Network.so.6:_ZN21QNetworkAccessManager4postERK15QNetworkRequestRK10QByteArray
libQt6Network.so.6:_ZN21QNetworkAccessManager8setCacheEP21QAbstractNetworkCache
libQt6Network.so.6:_ZN21QNetworkAccessManagerC1EP7QObject
libQt6Network.so.6:_ZN21QNetworkAccessManagerC2EP7QObject
libQt6Network.so.6:_ZN21QNetworkAccessManagerD2Ev
libQt6Network.so.6:_ZNK13QNetworkReply14rawHeaderPairsEv
libQt6Network.so.6:_ZNK13QNetworkReply3urlEv
libQt6Network.so.6:_ZNK13QNetworkReply5errorEv
libQt6Network.so.6:_ZNK19QNetworkInformation12reachabilityEv
libQt6Network.so.6:_ZNK19QNetworkInformation15transportMediumEv
libQt6Network.so.6:_ZNK19QNetworkInformation21isBehindCaptivePortalEv
libQt6Network.so.6:_ZNK19QNetworkInformation8supportsE6QFlagsINS_7FeatureEE
libQt6Network.so.6:_ZNK19QNetworkInformation9isMeteredEv
libQt6Network.so.6:_ZNK21QNetworkAccessManager16supportedSchemesEv
libQt6Network.so.6:_ZTI21QNetworkAccessManager
libQt6Qml.so.6:_Z16qmlProtectModulePKci
libQt6Qml.so.6:_ZN10QQmlEngine16staticMetaObjectE
libQt6Qml.so.6:_ZN10QQmlEngine17singletonInstanceI8QJSValueEET_14QAnyStringViewS3_
libQt6Qml.so.6:_ZN10QQmlEngine30setNetworkAccessManagerFactoryEP31QQmlNetworkAccessManagerFactory
libQt6Qml.so.6:_ZN10QQmlEngine4quitEv
libQt6Qml.so.6:_ZN10QQmlEngine8warningsERK5QListI9QQmlErrorE
libQt6Qml.so.6:_ZN11QQmlContext16setContextObjectEP7QObject
libQt6Qml.so.6:_ZN11QQmlContext18setContextPropertyERK7QStringP7QObject
libQt6Qml.so.6:_ZN11QQmlPrivate11qmlregisterENS_16RegistrationTypeEPv
libQt6Qml.so.6:_ZN11QQmlPrivate24SingletonInstanceFunctorclEP10QQmlEngineP9QJSEngine
libQt6Qml.so.6:_ZN11QQmlPrivate30qdeclarativeelement_destructorEP7QObject
libQt6Qml.so.6:_ZN13QQmlComponent11beginCreateEP11QQmlContext
libQt6Qml.so.6:_ZN13QQmlComponent14completeCreateEv
libQt6Qml.so.6:_ZN13QQmlComponent20setInitialPropertiesEP7QObjectRK4QMapI7QString8QVariantE
libQt6Qml.so.6:_ZN13QQmlComponentC1EP10QQmlEngine14QAnyStringViewS2_P7QObject
libQt6Qml.so.6:_ZN13QQmlComponentC1EP10QQmlEngineRK4QUrlP7QObject
libQt6Qml.so.6:_ZN13QQmlComponentD1Ev
libQt6Qml.so.6:_ZN16QQmlParserStatusC2Ev
libQt6Qml.so.6:_ZN16QQmlParserStatusD2Ev
libQt6Qml.so.6:_ZN19QQmlExtensionPlugin11qt_metacallEN11QMetaObject4CallEiPPv
libQt6Qml.so.6:_ZN19QQmlExtensionPlugin11qt_metacastEPKc
libQt6Qml.so.6:_ZN19QQmlExtensionPlugin15unregisterTypesEv
libQt6Qml.so.6:_ZN19QQmlExtensionPlugin16initializeEngineEP10QQmlEnginePKc
libQt6Qml.so.6:_ZN19QQmlExtensionPlugin16staticMetaObjectE
libQt6Qml.so.6:_ZN19QQmlExtensionPluginC2EP7QObject
libQt6Qml.so.6:_ZN19QQmlExtensionPluginD2Ev
libQt6Qml.so.6:_ZN21QQmlApplicationEngineC1EP7QObject
libQt6Qml.so.6:_ZN31QQmlNetworkAccessManagerFactoryD2Ev
libQt6Qml.so.6:_ZN8QJSValueD1Ev
libQt6Qml.so.6:_ZN9QJSEngine18setObjectOwnershipEP7QObjectNS_15ObjectOwnershipE
libQt6Qml.so.6:_ZN9QQmlErrorC1ERKS_
libQt6Qml.so.6:_ZN9QQmlErrorD1Ev
libQt6Qml.so.6:_ZNK10QQmlEngine11rootContextEv
libQt6Qml.so.6:_ZNK10QQmlEngine27networkAccessManagerFactoryEv
libQt6Qml.so.6:_ZNK13QQmlComponent11errorStringEv
libQt6Qml.so.6:_ZNK13QQmlComponent6errorsEv
libQt6Qml.so.6:_ZNK8QJSValue9toQObjectEv
libQt6Qml.so.6:_ZNK9QQmlError3urlEv
libQt6Qml.so.6:_ZTI16QQmlParserStatus
libQt6Qml.so.6:_ZTI19QQmlExtensionPlugin
libQt6Qml.so.6:_ZTI31QQmlNetworkAccessManagerFactory
libQt6Qml.so.6:_ZThn16_N19QQmlExtensionPlugin16initializeEngineEP10QQmlEnginePKc
libQt6Qml.so.6:_Zls6QDebugRK9QQmlError
libQt6Quick.so.6:_ZN10QQuickItem10setVisibleEb
libQt6Quick.so.6:_ZN10QQuickItem16staticMetaObjectE
libQt6Quick.so.6:_ZN10QQuickView16staticMetaObjectE
libQt6Quick.so.6:_ZN12QQuickWindow14setGraphicsApiEN20QSGRendererInterface11GraphicsApiE
libQt6Quick.so.6:_ZN12QQuickWindow15sceneGraphErrorENS_15SceneGraphErrorERK7QString
libQt6Quick.so.6:_ZN12QQuickWindow16staticMetaObjectE
libQt6Quick.so.6:_ZNK10QQuickItem9isVisibleEv
libQt6WebView.so.6:_ZN9QtWebView10initializeEv
libQt6Widgets.so.6:_ZN12QApplication4execEv
libQt6Widgets.so.6:_ZN12QApplicationC1ERiPPci
libQt6Widgets.so.6:_ZN12QApplicationD1Ev
libQt6Widgets.so.6:_ZN5QMenu12addSeparatorEv
libQt6Widgets.so.6:_ZN5QMenuC1EP7QWidget
libQt6Widgets.so.6:_ZN7QWidget9addActionEP7QAction
libQt6Widgets.so.6:_ZN7QWidget9addActionERK5QIconRK7QString
libc.so.6:__cxa_atexit
libc.so.6:__libc_single_threaded
libc.so.6:__libc_start_main
libc.so.6:__stack_chk_fail
libc.so.6:abort
libc.so.6:getuid
libc.so.6:memcmp
libc.so.6:memcpy
libc.so.6:memmove
libc.so.6:memset
libc.so.6:stdout
libc.so.6:strcmp
libc.so.6:strlen
libc.so.6:umask
libflatpak.so.0:flatpak_bundle_ref_get_appstream
libflatpak.so.0:flatpak_bundle_ref_get_icon
libflatpak.so.0:flatpak_bundle_ref_get_installed_size
libflatpak.so.0:flatpak_bundle_ref_get_metadata
libflatpak.so.0:flatpak_bundle_ref_get_origin
libflatpak.so.0:flatpak_bundle_ref_new
libflatpak.so.0:flatpak_get_default_arch
libflatpak.so.0:flatpak_get_system_installations
libflatpak.so.0:flatpak_installation_add_remote
libflatpak.so.0:flatpak_installation_create_monitor
libflatpak.so.0:flatpak_installation_fetch_remote_ref_sync_full
libflatpak.so.0:flatpak_installation_get_display_name
libflatpak.so.0:flatpak_installation_get_installed_ref
libflatpak.so.0:flatpak_installation_get_is_user
libflatpak.so.0:flatpak_installation_get_path
libflatpak.so.0:flatpak_installation_get_remote_by_name
libflatpak.so.0:flatpak_installation_list_installed_refs
libflatpak.so.0:flatpak_installation_list_installed_refs_for_update
libflatpak.so.0:flatpak_installation_list_remote_refs_sync
libflatpak.so.0:flatpak_installation_list_remotes
libflatpak.so.0:flatpak_installation_list_unused_refs
libflatpak.so.0:flatpak_installation_modify_remote
libflatpak.so.0:flatpak_installation_new_for_path
libflatpak.so.0:flatpak_installation_new_system
libflatpak.so.0:flatpak_installation_new_user
libflatpak.so.0:flatpak_installation_remove_remote
libflatpak.so.0:flatpak_installation_update_appstream_full_sync
libflatpak.so.0:flatpak_installed_ref_get_appdata_name
libflatpak.so.0:flatpak_installed_ref_get_appdata_version
libflatpak.so.0:flatpak_installed_ref_get_installed_size
libflatpak.so.0:flatpak_installed_ref_get_latest_commit
libflatpak.so.0:flatpak_installed_ref_get_origin
libflatpak.so.0:flatpak_installed_ref_load_appdata
libflatpak.so.0:flatpak_ref_format_ref_cached
libflatpak.so.0:flatpak_ref_get_arch
libflatpak.so.0:flatpak_ref_get_branch
libflatpak.so.0:flatpak_ref_get_commit
libflatpak.so.0:flatpak_ref_get_kind
libflatpak.so.0:flatpak_ref_get_name
libflatpak.so.0:flatpak_ref_parse
libflatpak.so.0:flatpak_remote_get_appstream_dir
libflatpak.so.0:flatpak_remote_get_appstream_timestamp
libflatpak.so.0:flatpak_remote_get_disabled
libflatpak.so.0:flatpak_remote_get_icon
libflatpak.so.0:flatpak_remote_get_name
libflatpak.so.0:flatpak_remote_get_noenumerate
libflatpak.so.0:flatpak_remote_get_prio
libflatpak.so.0:flatpak_remote_get_title
libflatpak.so.0:flatpak_remote_get_url
libflatpak.so.0:flatpak_remote_new
libflatpak.so.0:flatpak_remote_ref_get_download_size
libflatpak.so.0:flatpak_remote_ref_get_eol
libflatpak.so.0:flatpak_remote_ref_get_installed_size
libflatpak.so.0:flatpak_remote_ref_get_metadata
libflatpak.so.0:flatpak_remote_set_default_branch
libflatpak.so.0:flatpak_remote_set_disabled
libflatpak.so.0:flatpak_remote_set_gpg_key
libflatpak.so.0:flatpak_remote_set_gpg_verify
libflatpak.so.0:flatpak_remote_set_noenumerate
libflatpak.so.0:flatpak_remote_set_prio
libflatpak.so.0:flatpak_remote_set_title
libflatpak.so.0:flatpak_remote_set_url
libflatpak.so.0:flatpak_transaction_abort_webflow
libflatpak.so.0:flatpak_transaction_add_install
libflatpak.so.0:flatpak_transaction_add_install_bundle
libflatpak.so.0:flatpak_transaction_add_install_flatpakref
libflatpak.so.0:flatpak_transaction_add_rebase_and_uninstall
libflatpak.so.0:flatpak_transaction_add_uninstall
libflatpak.so.0:flatpak_transaction_add_update
libflatpak.so.0:flatpak_transaction_get_current_operation
libflatpak.so.0:flatpak_transaction_get_installation
libflatpak.so.0:flatpak_transaction_get_operations
libflatpak.so.0:flatpak_transaction_new_for_installation
libflatpak.so.0:flatpak_transaction_operation_get_ref
libflatpak.so.0:flatpak_transaction_progress_get_bytes_transferred
libflatpak.so.0:flatpak_transaction_progress_get_is_estimating
libflatpak.so.0:flatpak_transaction_progress_get_progress
libflatpak.so.0:flatpak_transaction_progress_get_start_time
libflatpak.so.0:flatpak_transaction_progress_set_update_frequency
libflatpak.so.0:flatpak_transaction_run
libfwupd.so.3:fwupd_checksum_get_by_kind
libfwupd.so.3:fwupd_client_connect
libfwupd.so.3:fwupd_client_get_details
libfwupd.so.3:fwupd_client_get_devices
libfwupd.so.3:fwupd_client_get_devices_async
libfwupd.so.3:fwupd_client_get_devices_finish
libfwupd.so.3:fwupd_client_get_percentage
libfwupd.so.3:fwupd_client_get_releases
libfwupd.so.3:fwupd_client_get_remote_by_id
libfwupd.so.3:fwupd_client_get_remotes
libfwupd.so.3:fwupd_client_get_remotes_async
libfwupd.so.3:fwupd_client_get_remotes_finish
libfwupd.so.3:fwupd_client_get_upgrades
libfwupd.so.3:fwupd_client_get_user_agent
libfwupd.so.3:fwupd_client_install
libfwupd.so.3:fwupd_client_modify_remote
libfwupd.so.3:fwupd_client_new
libfwupd.so.3:fwupd_client_refresh_remote_async
libfwupd.so.3:fwupd_client_refresh_remote_finish
libfwupd.so.3:fwupd_client_set_user_agent_for_package
libfwupd.so.3:fwupd_client_unlock
libfwupd.so.3:fwupd_device_add_release
libfwupd.so.3:fwupd_device_get_created
libfwupd.so.3:fwupd_device_get_icons
libfwupd.so.3:fwupd_device_get_id
libfwupd.so.3:fwupd_device_get_name
libfwupd.so.3:fwupd_device_get_release_default
libfwupd.so.3:fwupd_device_get_summary
libfwupd.so.3:fwupd_device_get_vendor
libfwupd.so.3:fwupd_device_get_version
libfwupd.so.3:fwupd_device_has_flag
libfwupd.so.3:fwupd_error_quark
libfwupd.so.3:fwupd_release_get_appstream_id
libfwupd.so.3:fwupd_release_get_checksums
libfwupd.so.3:fwupd_release_get_description
libfwupd.so.3:fwupd_release_get_homepage
libfwupd.so.3:fwupd_release_get_license
libfwupd.so.3:fwupd_release_get_locations
libfwupd.so.3:fwupd_release_get_remote_id
libfwupd.so.3:fwupd_release_get_size
libfwupd.so.3:fwupd_release_get_summary
libfwupd.so.3:fwupd_release_get_vendor
libfwupd.so.3:fwupd_release_get_version
libfwupd.so.3:fwupd_remote_get_agreement
libfwupd.so.3:fwupd_remote_get_id
libfwupd.so.3:fwupd_remote_get_kind
libfwupd.so.3:fwupd_remote_get_title
libfwupd.so.3:fwupd_remote_has_flag
libgcc_s.so.1:_Unwind_Resume
libgio-2.0.so.0:g_cancellable_cancel
libgio-2.0.so.0:g_cancellable_is_cancelled
libgio-2.0.so.0:g_cancellable_new
libgio-2.0.so.0:g_cancellable_reset
libgio-2.0.so.0:g_converter_input_stream_new
libgio-2.0.so.0:g_file_get_path
libgio-2.0.so.0:g_file_load_bytes
libgio-2.0.so.0:g_file_new_for_path
libgio-2.0.so.0:g_input_stream_read_bytes
libgio-2.0.so.0:g_memory_input_stream_new_from_bytes
libgio-2.0.so.0:g_zlib_decompressor_new
libglib-2.0.so.0:g_base64_decode
libglib-2.0.so.0:g_bytes_get_data
libglib-2.0.so.0:g_bytes_new
libglib-2.0.so.0:g_bytes_unref
libglib-2.0.so.0:g_clear_error
libglib-2.0.so.0:g_error_free
libglib-2.0.so.0:g_error_matches
libglib-2.0.so.0:g_free
libglib-2.0.so.0:g_get_monotonic_time
libglib-2.0.so.0:g_list_free_full
libglib-2.0.so.0:g_list_index
libglib-2.0.so.0:g_list_length
libglib-2.0.so.0:g_ptr_array_unref
libglib-2.0.so.0:g_strcmp0
libglib-2.0.so.0:g_strv_length
libgobject-2.0.so.0:g_object_ref
libgobject-2.0.so.0:g_object_unref
libgobject-2.0.so.0:g_signal_connect_data
libm.so.6:ceil
libm.so.6:floor
libm.so.6:log10
libm.so.6:pow
libm.so.6:sqrt
libmarkdown.so.3:mkd3_compile
libmarkdown.so.3:mkd3_string
libmarkdown.so.3:mkd_cleanup
libmarkdown.so.3:mkd_document
libmarkdown.so.3:mkd_flags
libmarkdown.so.3:mkd_free_flags
libmarkdown.so.3:mkd_set_flag_num
libpackagekitqt6.so.1:_ZN10PackageKit11Transaction10repoDetailERK7QStringS3_b
libpackagekitqt6.so.1:_ZN10PackageKit11Transaction11packageNameERK7QString
libpackagekitqt6.so.1:_ZN10PackageKit11Transaction11roleChangedEv
libpackagekitqt6.so.1:_ZN10PackageKit11Transaction12eulaRequiredERK7QStringS3_S3_S3_
libpackagekitqt6.so.1:_ZN10PackageKit11Transaction12itemProgressERK7QStringNS0_6StatusEj
libpackagekitqt6.so.1:_ZN10PackageKit11Transaction12speedChangedEv
libpackagekitqt6.so.1:_ZN10PackageKit11Transaction12updateDetailERK7QStringRK5QListIS1_ES7_S7_S7_S7_NS0_7RestartES3_S3_NS0_11UpdateStateERK9QDateTimeSC_
libpackagekitqt6.so.1:_ZN10PackageKit11Transaction13statusChangedEv
libpackagekitqt6.so.1:_ZN10PackageKit11Transaction14requireRestartENS0_7RestartERK7QString
libpackagekitqt6.so.1:_ZN10PackageKit11Transaction16staticMetaObjectE
libpackagekitqt6.so.1:_ZN10PackageKit11Transaction17percentageChangedEv
libpackagekitqt6.so.1:_ZN10PackageKit11Transaction18allowCancelChangedEv
libpackagekitqt6.so.1:_ZN10PackageKit11Transaction19mediaChangeRequiredENS0_9MediaTypeERK7QStringS4_
libpackagekitqt6.so.1:_ZN10PackageKit11Transaction20remainingTimeChangedEv
libpackagekitqt6.so.1:_ZN10PackageKit11Transaction21repoSignatureRequiredERK7QStringS3_S3_S3_S3_S3_S3_NS0_7SigTypeE
libpackagekitqt6.so.1:_ZN10PackageKit11Transaction5filesERK7QStringRK5QListIS1_E
libpackagekitqt6.so.1:_ZN10PackageKit11Transaction6cancelEv
libpackagekitqt6.so.1:_ZN10PackageKit11Transaction7detailsERKNS_7DetailsE
libpackagekitqt6.so.1:_ZN10PackageKit11Transaction7packageENS0_4InfoERK7QStringS4_
libpackagekitqt6.so.1:_ZN10PackageKit11Transaction8finishedENS0_4ExitEj
libpackagekitqt6.so.1:_ZN10PackageKit11Transaction8setHintsERK5QListI7QStringE
libpackagekitqt6.so.1:_ZN10PackageKit11Transaction8setHintsERK7QString
libpackagekitqt6.so.1:_ZN10PackageKit11Transaction9errorCodeENS0_5ErrorERK7QString
libpackagekitqt6.so.1:_ZN10PackageKit11TransactionC1ERK15QDBusObjectPath
libpackagekitqt6.so.1:_ZN10PackageKit6Daemon10acceptEulaERK7QString
libpackagekitqt6.so.1:_ZN10PackageKit6Daemon10getDetailsERK5QListI7QStringE
libpackagekitqt6.so.1:_ZN10PackageKit6Daemon10getUpdatesE6QFlagsINS_11Transaction6FilterEE
libpackagekitqt6.so.1:_ZN10PackageKit6Daemon10repoEnableERK7QStringb
libpackagekitqt6.so.1:_ZN10PackageKit6Daemon10repoRemoveERK7QStringb6QFlagsINS_11Transaction15TransactionFlagEE
libpackagekitqt6.so.1:_ZN10PackageKit6Daemon11backendNameEv
libpackagekitqt6.so.1:_ZN10PackageKit6Daemon11getRepoListE6QFlagsINS_11Transaction6FilterEE
libpackagekitqt6.so.1:_ZN10PackageKit6Daemon11installFileERK7QString6QFlagsINS_11Transaction15TransactionFlagEE
libpackagekitqt6.so.1:_ZN10PackageKit6Daemon11packageArchERK7QString
libpackagekitqt6.so.1:_ZN10PackageKit6Daemon11packageDataERK7QString
libpackagekitqt6.so.1:_ZN10PackageKit6Daemon11packageNameERK7QString
libpackagekitqt6.so.1:_ZN10PackageKit6Daemon12refreshCacheEb
libpackagekitqt6.so.1:_ZN10PackageKit6Daemon12repairSystemE6QFlagsINS_11Transaction15TransactionFlagEE
libpackagekitqt6.so.1:_ZN10PackageKit6Daemon13getFilesLocalERK7QString
libpackagekitqt6.so.1:_ZN10PackageKit6Daemon13upgradeSystemERK7QStringNS_11Transaction11UpgradeKindE6QFlagsINS4_15TransactionFlagEE
libpackagekitqt6.so.1:_ZN10PackageKit6Daemon14packageVersionERK7QString
libpackagekitqt6.so.1:_ZN10PackageKit6Daemon14removePackagesERK5QListI7QStringEbb6QFlagsINS_11Transaction15TransactionFlagEE
libpackagekitqt6.so.1:_ZN10PackageKit6Daemon14updatePackagesERK5QListI7QStringE6QFlagsINS_11Transaction15TransactionFlagEE
libpackagekitqt6.so.1:_ZN10PackageKit6Daemon14updatesChangedEv
libpackagekitqt6.so.1:_ZN10PackageKit6Daemon15getDetailsLocalERK7QString
libpackagekitqt6.so.1:_ZN10PackageKit6Daemon15installPackagesERK5QListI7QStringE6QFlagsINS_11Transaction15TransactionFlagEE
libpackagekitqt6.so.1:_ZN10PackageKit6Daemon15repoListChangedEv
libpackagekitqt6.so.1:_ZN10PackageKit6Daemon16installSignatureENS_11Transaction7SigTypeERK7QStringS5_
libpackagekitqt6.so.1:_ZN10PackageKit6Daemon16isRunningChangedEv
libpackagekitqt6.so.1:_ZN10PackageKit6Daemon16restartScheduledEv
libpackagekitqt6.so.1:_ZN10PackageKit6Daemon16staticMetaObjectE
libpackagekitqt6.so.1:_ZN10PackageKit6Daemon17getUpdatesDetailsERK5QListI7QStringE
libpackagekitqt6.so.1:_ZN10PackageKit6Daemon18getTimeSinceActionENS_11Transaction4RoleE
libpackagekitqt6.so.1:_ZN10PackageKit6Daemon19networkStateChangedEv
libpackagekitqt6.so.1:_ZN10PackageKit6Daemon22transactionListChangedERK5QListI7QStringE
libpackagekitqt6.so.1:_ZN10PackageKit6Daemon5rolesEv
libpackagekitqt6.so.1:_ZN10PackageKit6Daemon6globalEv
libpackagekitqt6.so.1:_ZN10PackageKit6Daemon7resolveERK5QListI7QStringE6QFlagsINS_11Transaction6FilterEE
libpackagekitqt6.so.1:_ZN10PackageKit6Daemon7resolveERK7QString6QFlagsINS_11Transaction6FilterEE
libpackagekitqt6.so.1:_ZN10PackageKit6Daemon8setHintsERK5QListI7QStringE
libpackagekitqt6.so.1:_ZN10PackageKit6Daemon8setProxyERK7QStringS3_S3_S3_S3_S3_
libpackagekitqt6.so.1:_ZN10PackageKit6Daemon9dependsOnERK7QString6QFlagsINS_11Transaction6FilterEEb
libpackagekitqt6.so.1:_ZN10PackageKit6Daemon9isRunningEv
libpackagekitqt6.so.1:_ZN10PackageKit7DetailsC1Ev
libpackagekitqt6.so.1:_ZN10PackageKit7Offline12clearResultsEv
libpackagekitqt6.so.1:_ZN10PackageKit7Offline14triggerUpgradeENS0_6ActionE
libpackagekitqt6.so.1:_ZN10PackageKit7Offline16staticMetaObjectE
libpackagekitqt6.so.1:_ZN10PackageKit7Offline7changedEv
libpackagekitqt6.so.1:_ZN10PackageKit7Offline7triggerENS0_6ActionE
libpackagekitqt6.so.1:_ZN10PackageKit8BitfieldD1Ev
libpackagekitqt6.so.1:_ZNK10PackageKit11Transaction10percentageEv
libpackagekitqt6.so.1:_ZNK10PackageKit11Transaction11allowCancelEv
libpackagekitqt6.so.1:_ZNK10PackageKit11Transaction13remainingTimeEv
libpackagekitqt6.so.1:_ZNK10PackageKit11Transaction16transactionFlagsEv
libpackagekitqt6.so.1:_ZNK10PackageKit11Transaction3tidEv
libpackagekitqt6.so.1:_ZNK10PackageKit11Transaction4roleEv
libpackagekitqt6.so.1:_ZNK10PackageKit11Transaction5speedEv
libpackagekitqt6.so.1:_ZNK10PackageKit11Transaction6statusEv
libpackagekitqt6.so.1:_ZNK10PackageKit6Daemon7offlineEv
libpackagekitqt6.so.1:_ZNK10PackageKit7Details11descriptionEv
libpackagekitqt6.so.1:_ZNK10PackageKit7Details3urlEv
libpackagekitqt6.so.1:_ZNK10PackageKit7Details4sizeEv
libpackagekitqt6.so.1:_ZNK10PackageKit7Details7licenseEv
libpackagekitqt6.so.1:_ZNK10PackageKit7Details9packageIdEv
libpackagekitqt6.so.1:_ZNK10PackageKit7Offline13triggerActionEv
libpackagekitqt6.so.1:_ZNK10PackageKit7Offline14updatePreparedEv
libpackagekitqt6.so.1:_ZNK10PackageKit7Offline15updateTriggeredEv
libpackagekitqt6.so.1:_ZNK10PackageKit7Offline15upgradePreparedEv
libpackagekitqt6.so.1:_ZNK10PackageKit7Offline16upgradeTriggeredEv
libpackagekitqt6.so.1:_ZNK10PackageKit8BitfieldanEy
libstdc++.so.6:_ZNSt15__exception_ptr13exception_ptr10_M_releaseEv
libstdc++.so.6:_ZNSt15__exception_ptr13exception_ptr9_M_addrefEv
libstdc++.so.6:_ZNSt6chrono3_V212steady_clock3nowEv
libstdc++.so.6:_ZNSt9exceptionD2Ev
libstdc++.so.6:_ZSt17current_exceptionv
libstdc++.so.6:_ZSt17rethrow_exceptionNSt15__exception_ptr13exception_ptrE
libstdc++.so.6:_ZSt18_Rb_tree_decrementPSt18_Rb_tree_node_base
libstdc++.so.6:_ZSt18_Rb_tree_incrementPSt18_Rb_tree_node_base
libstdc++.so.6:_ZSt20__throw_length_errorPKc
libstdc++.so.6:_ZSt25__throw_bad_function_callv
libstdc++.so.6:_ZSt28_Rb_tree_rebalance_for_erasePSt18_Rb_tree_node_baseRS_
libstdc++.so.6:_ZSt29_Rb_tree_insert_and_rebalancebPSt18_Rb_tree_node_baseS0_RS_
libstdc++.so.6:_ZSt9terminatev
libstdc++.so.6:_ZTISt9exception
libstdc++.so.6:_ZTVN10__cxxabiv117__class_type_infoE
libstdc++.so.6:_ZTVN10__cxxabiv120__si_class_type_infoE
libstdc++.so.6:_ZTVN10__cxxabiv121__vmi_class_type_infoE
libstdc++.so.6:_ZdaPv
libstdc++.so.6:_ZdaPvm
libstdc++.so.6:_ZdlPv
libstdc++.so.6:_ZdlPvm
libstdc++.so.6:_Znam
libstdc++.so.6:_Znwm
libstdc++.so.6:__cxa_allocate_exception
libstdc++.so.6:__cxa_begin_catch
libstdc++.so.6:__cxa_end_catch
libstdc++.so.6:__cxa_guard_abort
libstdc++.so.6:__cxa_guard_acquire
libstdc++.so.6:__cxa_guard_release
libstdc++.so.6:__cxa_pure_virtual
libstdc++.so.6:__cxa_rethrow
libstdc++.so.6:__cxa_throw
libstdc++.so.6:__dynamic_cast
libstdc++.so.6:__gxx_personality_v0
