UNKNOWN:_ZN5boost7archive18text_iarchive_implINS0_13text_iarchiveEE13load_overrideERNS0_15class_name_typeE
UNKNOWN:_ZN5boost7archive18text_iarchive_implINS0_13text_iarchiveEE4loadERNSt7__cxx1112basic_stringIcSt11char_traitsIcESaIcEEE
UNKNOWN:_ZN5boost7archive18text_iarchive_implINS0_13text_iarchiveEEC2ERSij
UNKNOWN:_ZN5boost7archive18text_oarchive_implINS0_13text_oarchiveEE4saveERKNSt7__cxx1112basic_stringIcSt11char_traitsIcESaIcEEE
UNKNOWN:_ZN5boost7archive18text_oarchive_implINS0_13text_oarchiveEEC2ERSoj
UNKNOWN:_ZN5boost7archive19basic_text_oarchiveINS0_13text_oarchiveEE8newtokenEv
UNKNOWN:_ZN5boost7archive21basic_text_iprimitiveISiED2Ev
UNKNOWN:_ZN5boost7archive21basic_text_oprimitiveISoED2Ev
UNKNOWN:_ZN5boost7archive6detail22archive_serializer_mapINS0_13text_iarchiveEE4findERKNS_13serialization18extended_type_infoE
UNKNOWN:_ZN5boost7archive6detail22archive_serializer_mapINS0_13text_iarchiveEE5eraseEPKNS1_16basic_serializerE
UNKNOWN:_ZN5boost7archive6detail22archive_serializer_mapINS0_13text_iarchiveEE6insertEPKNS1_16basic_serializerE
UNKNOWN:_ZN5boost7archive6detail22archive_serializer_mapINS0_13text_oarchiveEE4findERKNS_13serialization18extended_type_infoE
UNKNOWN:_ZN5boost7archive6detail22archive_serializer_mapINS0_13text_oarchiveEE5eraseEPKNS1_16basic_serializerE
UNKNOWN:_ZN5boost7archive6detail22archive_serializer_mapINS0_13text_oarchiveEE6insertEPKNS1_16basic_serializerE
libX11.so.6:XChangeWindowAttributes
libX11.so.6:XCloseDisplay
libX11.so.6:XCreateFontCursor
libX11.so.6:XCreateGC
libX11.so.6:XCreatePixmap
libX11.so.6:XCreateSimpleWindow
libX11.so.6:XDestroyWindow
libX11.so.6:XDrawLine
libX11.so.6:XFillRectangle
libX11.so.6:XFlush
libX11.so.6:XFree
libX11.so.6:XFreeCursor
libX11.so.6:XFreeEventData
libX11.so.6:XFreeExtensionList
libX11.so.6:XFreeGC
libX11.so.6:XFreeModifiermap
libX11.so.6:XFreePixmap
libX11.so.6:XGetClassHint
libX11.so.6:XGetErrorDatabaseText
libX11.so.6:XGetErrorText
libX11.so.6:XGetEventData
libX11.so.6:XGetKeyboardMapping
libX11.so.6:XGetModifierMapping
libX11.so.6:XGetPointerMapping
libX11.so.6:XGetWMHints
libX11.so.6:XGetWindowAttributes
libX11.so.6:XGetWindowProperty
libX11.so.6:XGrabPointer
libX11.so.6:XInternAtom
libX11.so.6:XKeysymToKeycode
libX11.so.6:XListExtensions
libX11.so.6:XMapRaised
libX11.so.6:XNextEvent
libX11.so.6:XOpenDisplay
libX11.so.6:XPending
libX11.so.6:XQueryExtension
libX11.so.6:XQueryPointer
libX11.so.6:XQueryTree
libX11.so.6:XRefreshKeyboardMapping
libX11.so.6:XSelectInput
libX11.so.6:XSendEvent
libX11.so.6:XSetErrorHandler
libX11.so.6:XSetForeground
libX11.so.6:XSetIOErrorHandler
libX11.so.6:XStringToKeysym
libX11.so.6:XUngrabKey
libX11.so.6:XUngrabPointer
libX11.so.6:XUnmapWindow
libX11.so.6:XkbBell
libX11.so.6:XkbKeycodeToKeysym
libXext.so.6:XShapeCombineMask
libXext.so.6:XShapeCombineRectangles
libXfixes.so.3:XFixesHideCursor
libXfixes.so.3:XFixesShowCursor
libXi.so.6:XIFreeDeviceInfo
libXi.so.6:XIGetProperty
libXi.so.6:XIGrabButton
libXi.so.6:XIGrabDevice
libXi.so.6:XIQueryDevice
libXi.so.6:XIQueryVersion
libXi.so.6:XISelectEvents
libXi.so.6:XISetClientPointer
libXi.so.6:XIUngrabButton
libXi.so.6:XIUngrabDevice
libXtst.so.6:XTestFakeButtonEvent
libXtst.so.6:XTestFakeKeyEvent
libXtst.so.6:XTestFakeMotionEvent
libXtst.so.6:XTestGrabControl
libatkmm-1.6.so.1:_ZN3Atk11Implementor21ref_accessibile_vfuncEv
libboost_serialization.so.1.72.0:_ZN5boost13serialization11void_upcastERKNS0_18extended_type_infoES3_PKv
libboost_serialization.so.1.72.0:_ZN5boost13serialization13typeid_system27extended_type_info_typeid_013type_registerERKSt9type_info
libboost_serialization.so.1.72.0:_ZN5boost13serialization13typeid_system27extended_type_info_typeid_015type_unregisterEv
libboost_serialization.so.1.72.0:_ZN5boost13serialization13typeid_system27extended_type_info_typeid_0C2EPKc
libboost_serialization.so.1.72.0:_ZN5boost13serialization13typeid_system27extended_type_info_typeid_0D2Ev
libboost_serialization.so.1.72.0:_ZN5boost13serialization13void_downcastERKNS0_18extended_type_infoES3_PKv
libboost_serialization.so.1.72.0:_ZN5boost7archive17archive_exceptionC1ENS1_14exception_codeEPKcS4_
libboost_serialization.so.1.72.0:_ZN5boost7archive17archive_exceptionC1ERKS1_
libboost_serialization.so.1.72.0:_ZN5boost7archive17archive_exceptionD1Ev
libboost_serialization.so.1.72.0:_ZN5boost7archive6detail14basic_iarchive11load_objectEPvRKNS1_17basic_iserializerE
libboost_serialization.so.1.72.0:_ZN5boost7archive6detail14basic_iarchive12load_pointerERPvPKNS1_25basic_pointer_iserializerEPFS7_RKNS_13serialization18extended_type_infoEE
libboost_serialization.so.1.72.0:_ZN5boost7archive6detail14basic_iarchive19next_object_pointerEPv
libboost_serialization.so.1.72.0:_ZN5boost7archive6detail14basic_iarchive20reset_object_addressEPKvS4_
libboost_serialization.so.1.72.0:_ZN5boost7archive6detail14basic_iarchive25register_basic_serializerERKNS1_17basic_iserializerE
libboost_serialization.so.1.72.0:_ZN5boost7archive6detail14basic_iarchiveD2Ev
libboost_serialization.so.1.72.0:_ZN5boost7archive6detail14basic_oarchive11save_objectEPKvRKNS1_17basic_oserializerE
libboost_serialization.so.1.72.0:_ZN5boost7archive6detail14basic_oarchive12end_preambleEv
libboost_serialization.so.1.72.0:_ZN5boost7archive6detail14basic_oarchive12save_pointerEPKvPKNS1_25basic_pointer_oserializerE
libboost_serialization.so.1.72.0:_ZN5boost7archive6detail14basic_oarchive25register_basic_serializerERKNS1_17basic_oserializerE
libboost_serialization.so.1.72.0:_ZN5boost7archive6detail14basic_oarchiveD2Ev
libboost_serialization.so.1.72.0:_ZN5boost7archive6detail17basic_iserializerC2ERKNS_13serialization18extended_type_infoE
libboost_serialization.so.1.72.0:_ZN5boost7archive6detail17basic_iserializerD2Ev
libboost_serialization.so.1.72.0:_ZN5boost7archive6detail17basic_oserializerC2ERKNS_13serialization18extended_type_infoE
libboost_serialization.so.1.72.0:_ZN5boost7archive6detail17basic_oserializerD2Ev
libboost_serialization.so.1.72.0:_ZN5boost7archive6detail25basic_pointer_iserializerC2ERKNS_13serialization18extended_type_infoE
libboost_serialization.so.1.72.0:_ZN5boost7archive6detail25basic_pointer_iserializerD2Ev
libboost_serialization.so.1.72.0:_ZN5boost7archive6detail25basic_pointer_oserializerC2ERKNS_13serialization18extended_type_infoE
libboost_serialization.so.1.72.0:_ZN5boost7archive6detail25basic_pointer_oserializerD2Ev
libboost_serialization.so.1.72.0:_ZNK5boost13serialization13typeid_system27extended_type_info_typeid_012is_less_thanERKNS0_18extended_type_infoE
libboost_serialization.so.1.72.0:_ZNK5boost13serialization13typeid_system27extended_type_info_typeid_022get_extended_type_infoERKSt9type_info
libboost_serialization.so.1.72.0:_ZNK5boost13serialization13typeid_system27extended_type_info_typeid_08is_equalERKNS0_18extended_type_infoE
libboost_serialization.so.1.72.0:_ZNK5boost13serialization16void_cast_detail11void_caster18recursive_registerEb
libboost_serialization.so.1.72.0:_ZNK5boost13serialization16void_cast_detail11void_caster20recursive_unregisterEv
libboost_serialization.so.1.72.0:_ZNK5boost13serialization18extended_type_info12key_registerEv
libboost_serialization.so.1.72.0:_ZNK5boost13serialization18extended_type_info14key_unregisterEv
libboost_serialization.so.1.72.0:_ZNK5boost13serialization18extended_type_infoeqERKS1_
libboost_serialization.so.1.72.0:_ZNK5boost7archive6detail14basic_iarchive19get_library_versionEv
libc.so.6:__assert_fail
libc.so.6:__cxa_atexit
libc.so.6:__libc_start_main
libc.so.6:__stack_chk_fail
libc.so.6:abort
libc.so.6:asprintf
libc.so.6:bind_textdomain_codeset
libc.so.6:bindtextdomain
libc.so.6:calloc
libc.so.6:execlp
libc.so.6:exit
libc.so.6:fclose
libc.so.6:fopen
libc.so.6:fork
libc.so.6:fprintf
libc.so.6:free
libc.so.6:getenv
libc.so.6:gettext
libc.so.6:gettimeofday
libc.so.6:lstat
libc.so.6:malloc
libc.so.6:memcmp
libc.so.6:memcpy
libc.so.6:memmove
libc.so.6:mkdir
libc.so.6:ngettext
libc.so.6:printf
libc.so.6:putchar
libc.so.6:puts
libc.so.6:readlink
libc.so.6:realpath
libc.so.6:remove
libc.so.6:rename
libc.so.6:setenv
libc.so.6:snprintf
libc.so.6:strcmp
libc.so.6:strlen
libc.so.6:textdomain
libc.so.6:unsetenv
libcairomm-1.0.so.1:_ZN5Cairo10PdfSurface6createENSt7__cxx1112basic_stringIcSt11char_traitsIcESaIcEEEdd
libcairomm-1.0.so.1:_ZN5Cairo10SvgSurface6createENSt7__cxx1112basic_stringIcSt11char_traitsIcESaIcEEEdd
libcairomm-1.0.so.1:_ZN5Cairo12ImageSurface6createEPhNS_6FormatEiii
libcairomm-1.0.so.1:_ZN5Cairo6Region6createEv
libcairomm-1.0.so.1:_ZN5Cairo7Context12set_line_capENS_7LineCapE
libcairomm-1.0.so.1:_ZN5Cairo7Context12set_operatorENS_8OperatorE
libcairomm-1.0.so.1:_ZN5Cairo7Context13set_font_sizeEd
libcairomm-1.0.so.1:_ZN5Cairo7Context13set_line_joinENS_8LineJoinE
libcairomm-1.0.so.1:_ZN5Cairo7Context14set_line_widthEd
libcairomm-1.0.so.1:_ZN5Cairo7Context15set_source_rgbaEdddd
libcairomm-1.0.so.1:_ZN5Cairo7Context15stroke_preserveEv
libcairomm-1.0.so.1:_ZN5Cairo7Context4fillEv
libcairomm-1.0.so.1:_ZN5Cairo7Context4saveEv
libcairomm-1.0.so.1:_ZN5Cairo7Context5paintEv
libcairomm-1.0.so.1:_ZN5Cairo7Context5scaleEdd
libcairomm-1.0.so.1:_ZN5Cairo7Context6createERKNS_6RefPtrINS_7SurfaceEEE
libcairomm-1.0.so.1:_ZN5Cairo7Context6strokeEv
libcairomm-1.0.so.1:_ZN5Cairo7Context7line_toEdd
libcairomm-1.0.so.1:_ZN5Cairo7Context7move_toEdd
libcairomm-1.0.so.1:_ZN5Cairo7Context7restoreEv
libcairomm-1.0.so.1:_ZN5Cairo7Context8curve_toEdddddd
libcairomm-1.0.so.1:_ZN5Cairo7Context9rectangleEdddd
libcairomm-1.0.so.1:_ZN5Cairo7Context9show_textERKNSt7__cxx1112basic_stringIcSt11char_traitsIcESaIcEEE
libcairomm-1.0.so.1:_ZN5Cairo7Context9translateEdd
libcairomm-1.0.so.1:_ZNK5Cairo7Context16get_text_extentsERKNSt7__cxx1112basic_stringIcSt11char_traitsIcESaIcEEER20cairo_text_extents_t
libdbus-glib-1.so.2:dbus_g_bus_get
libdbus-glib-1.so.2:dbus_g_proxy_call_no_reply
libdbus-glib-1.so.2:dbus_g_proxy_new_for_name
libgcc_s.so.1:_Unwind_Resume
libgdk-3.so.0:gdk_event_get_time
libgdk-3.so.0:gdk_keyboard_grab
libgdk-3.so.0:gdk_keyboard_ungrab
libgdk-3.so.0:gdk_modifier_type_get_type
libgdk-3.so.0:gdk_screen_height
libgdk-3.so.0:gdk_screen_width
libgdkmm-3.0.so.1:_ZN3Gdk11DragContext8set_iconERKN4Glib6RefPtrINS_6PixbufEEEii
libgdkmm-3.0.so.1:_ZN3Gdk4RGBAC1ERKN4Glib7ustringE
libgdkmm-3.0.so.1:_ZN3Gdk4RGBAD1Ev
libgdkmm-3.0.so.1:_ZN3Gdk5Color7set_redEt
libgdkmm-3.0.so.1:_ZN3Gdk5Color7set_rgbEttt
libgdkmm-3.0.so.1:_ZN3Gdk5Color8set_blueEt
libgdkmm-3.0.so.1:_ZN3Gdk5Color9set_greenEt
libgdkmm-3.0.so.1:_ZN3Gdk5ColorC1EOS0_
libgdkmm-3.0.so.1:_ZN3Gdk5ColorC1ERKN4Glib7ustringE
libgdkmm-3.0.so.1:_ZN3Gdk5ColorC1ERKS0_
libgdkmm-3.0.so.1:_ZN3Gdk5ColorC1Ev
libgdkmm-3.0.so.1:_ZN3Gdk5ColorD1Ev
libgdkmm-3.0.so.1:_ZN3Gdk5ColoraSEOS0_
libgdkmm-3.0.so.1:_ZN3Gdk5ColoraSERKS0_
libgdkmm-3.0.so.1:_ZN3Gdk6Pixbuf13get_base_typeEv
libgdkmm-3.0.so.1:_ZN3Gdk6Pixbuf4fillEj
libgdkmm-3.0.so.1:_ZN3Gdk6Pixbuf6createENS_10ColorspaceEbiii
libgdkmm-3.0.so.1:_ZN3Gdk6Screen15get_rgba_visualEv
libgdkmm-3.0.so.1:_ZN3Gdk6Screen19signal_size_changedEv
libgdkmm-3.0.so.1:_ZN3Gdk6Window13set_type_hintENS_14WindowTypeHintE
libgdkmm-3.0.so.1:_ZN3Gdk6Window15invalidate_rectERKNS_9RectangleEb
libgdkmm-3.0.so.1:_ZN3Gdk6Window26input_shape_combine_regionERKN5Cairo6RefPtrINS1_6RegionEEEii
libgdkmm-3.0.so.1:_ZN3Gdk6Window5lowerEv
libgdkmm-3.0.so.1:_ZN3Gdk7Display11get_defaultEv
libgdkmm-3.0.so.1:_ZN3Gdk7Display18get_default_screenEv
libgdkmm-3.0.so.1:_ZN3Gdk9RectangleC1Eiiii
libgdkmm-3.0.so.1:_ZN3GdkeqERKNS_5ColorES2_
libgdkmm-3.0.so.1:_ZNK3Gdk5Color10get_blue_pEv
libgdkmm-3.0.so.1:_ZNK3Gdk5Color11get_green_pEv
libgdkmm-3.0.so.1:_ZNK3Gdk5Color7get_redEv
libgdkmm-3.0.so.1:_ZNK3Gdk5Color8get_blueEv
libgdkmm-3.0.so.1:_ZNK3Gdk5Color9get_greenEv
libgdkmm-3.0.so.1:_ZNK3Gdk5Color9get_red_pEv
libgdkmm-3.0.so.1:_ZNK3Gdk6Pixbuf10get_heightEv
libgdkmm-3.0.so.1:_ZNK3Gdk6Pixbuf10get_pixelsEv
libgdkmm-3.0.so.1:_ZNK3Gdk6Pixbuf13get_rowstrideEv
libgdkmm-3.0.so.1:_ZNK3Gdk6Pixbuf21saturate_and_pixelateERKN4Glib6RefPtrIS0_EEfb
libgdkmm-3.0.so.1:_ZNK3Gdk6Pixbuf9get_widthEv
libgdkmm-3.0.so.1:_ZNK3Gdk9Rectangle5get_xEv
libgdkmm-3.0.so.1:_ZNK3Gdk9Rectangle5get_yEv
libgio-2.0.so.0:g_action_get_type
libgio-2.0.so.0:g_action_map_add_action
libgio-2.0.so.0:g_action_map_get_type
libgio-2.0.so.0:g_simple_action_new_stateful
libgio-2.0.so.0:g_simple_action_set_state
libgiomm-2.4.so.1:_ZN3Gio11ActionGroup15on_action_addedERKN4Glib7ustringE
libgiomm-2.4.so.1:_ZN3Gio11ActionGroup17on_action_removedERKN4Glib7ustringE
libgiomm-2.4.so.1:_ZN3Gio11ActionGroup21activate_action_vfuncERKN4Glib7ustringERKNS1_11VariantBaseE
libgiomm-2.4.so.1:_ZN3Gio11ActionGroup23on_action_state_changedERKN4Glib7ustringERKNS1_11VariantBaseE
libgiomm-2.4.so.1:_ZN3Gio11ActionGroup25change_action_state_vfuncERKN4Glib7ustringERKNS1_11VariantBaseE
libgiomm-2.4.so.1:_ZN3Gio11ActionGroup25on_action_enabled_changedERKN4Glib7ustringEb
libgiomm-2.4.so.1:_ZN3Gio11Application10on_startupEv
libgiomm-2.4.so.1:_ZN3Gio11Application11on_activateEv
libgiomm-2.4.so.1:_ZN3Gio11Application15on_command_lineERKN4Glib6RefPtrINS_22ApplicationCommandLineEEE
libgiomm-2.4.so.1:_ZN3Gio11Application16after_emit_vfuncERKN4Glib11VariantBaseE
libgiomm-2.4.so.1:_ZN3Gio11Application17before_emit_vfuncERKN4Glib11VariantBaseE
libgiomm-2.4.so.1:_ZN3Gio11Application18run_mainloop_vfuncEv
libgiomm-2.4.so.1:_ZN3Gio11Application19quit_mainloop_vfuncEv
libgiomm-2.4.so.1:_ZN3Gio11Application20register_applicationEv
libgiomm-2.4.so.1:_ZN3Gio11Application24local_command_line_vfuncERPPcRi
libgiomm-2.4.so.1:_ZN3Gio11Application4holdEv
libgiomm-2.4.so.1:_ZN3Gio11Application4quitEv
libgiomm-2.4.so.1:_ZN3Gio11Application7on_openERKSt6vectorIN4Glib6RefPtrINS_4FileEEESaIS5_EERKNS2_7ustringE
libgiomm-2.4.so.1:_ZN3Gio11Application8activateEv
libgiomm-2.4.so.1:_ZN3Gio12SimpleAction15signal_activateEv
libgiomm-2.4.so.1:_ZN3Gio12SimpleAction6createERKN4Glib7ustringE
libgiomm-2.4.so.1:_ZN3Gio22ApplicationCommandLine5printERKN4Glib7ustringE
libgiomm-2.4.so.1:_ZN3Gio4Menu6appendERKN4Glib7ustringES4_
libgiomm-2.4.so.1:_ZN3Gio4Menu6createEv
libgiomm-2.4.so.1:_ZN3Gio9ActionMap10add_actionERKN4Glib6RefPtrINS_6ActionEEE
libgiomm-2.4.so.1:_ZN3Gio9ActionMap19remove_action_vfuncERKN4Glib7ustringE
libgiomm-2.4.so.1:_ZNK3Gio11ActionGroup16has_action_vfuncERKN4Glib7ustringE
libgiomm-2.4.so.1:_ZNK3Gio11ActionGroup18list_actions_vfuncEv
libgiomm-2.4.so.1:_ZNK3Gio11ActionGroup22get_action_state_vfuncERKN4Glib7ustringE
libgiomm-2.4.so.1:_ZNK3Gio11ActionGroup24get_action_enabled_vfuncERKN4Glib7ustringE
libgiomm-2.4.so.1:_ZNK3Gio11ActionGroup27get_action_state_hint_vfuncERKN4Glib7ustringE
libgiomm-2.4.so.1:_ZNK3Gio11ActionGroup27get_action_state_type_vfuncERKN4Glib7ustringE
libgiomm-2.4.so.1:_ZNK3Gio11ActionGroup31get_action_parameter_type_vfuncERKN4Glib7ustringE
libgiomm-2.4.so.1:_ZNK3Gio22ApplicationCommandLine13get_argumentsERi
libgiomm-2.4.so.1:_ZNK3Gio9ActionMap16add_action_vfuncEN4Glib6RefPtrINS_6ActionEEE
libgiomm-2.4.so.1:_ZNK3Gio9ActionMap19lookup_action_vfuncERKN4Glib7ustringE
libglib-2.0.so.0:g_dgettext
libglib-2.0.so.0:g_error_free
libglib-2.0.so.0:g_free
libglib-2.0.so.0:g_log
libglib-2.0.so.0:g_malloc0_n
libglib-2.0.so.0:g_once_init_enter
libglib-2.0.so.0:g_once_init_leave
libglib-2.0.so.0:g_return_if_fail_warning
libglib-2.0.so.0:g_slice_alloc
libglib-2.0.so.0:g_slice_free1
libglib-2.0.so.0:g_strdup
libglib-2.0.so.0:g_unichar_to_utf8
libglib-2.0.so.0:g_variant_new
libglib-2.0.so.0:g_variant_new_boolean
libglibmm-2.4.so.1:_ZN4Glib10ObjectBase10set_manageEv
libglibmm-2.4.so.1:_ZN4Glib10ObjectBase15destroy_notify_Ev
libglibmm-2.4.so.1:_ZN4Glib10ObjectBaseC2EPKc
libglibmm-2.4.so.1:_ZN4Glib10ObjectBaseC2Ev
libglibmm-2.4.so.1:_ZN4Glib10ObjectBaseD2Ev
libglibmm-2.4.so.1:_ZN4Glib10SignalIdle7connectERKN4sigc4slotIbNS1_3nilES3_S3_S3_S3_S3_S3_EEi
libglibmm-2.4.so.1:_ZN4Glib11signal_idleEv
libglibmm-2.4.so.1:_ZN4Glib13SignalTimeout7connectERKN4sigc4slotIbNS1_3nilES3_S3_S3_S3_S3_S3_EEji
libglibmm-2.4.so.1:_ZN4Glib14signal_timeoutEv
libglibmm-2.4.so.1:_ZN4Glib15ConstructParamsC1ERKNS_5ClassEPKcz
libglibmm-2.4.so.1:_ZN4Glib15ConstructParamsD1Ev
libglibmm-2.4.so.1:_ZN4Glib16ValueBase_Object10set_objectEPNS_10ObjectBaseE
libglibmm-2.4.so.1:_ZN4Glib16ValueBase_String10value_typeEv
libglibmm-2.4.so.1:_ZN4Glib17SignalProxyNormal13connect_impl_EbON4sigc9slot_baseEb
libglibmm-2.4.so.1:_ZN4Glib17SignalProxyNormalD2Ev
libglibmm-2.4.so.1:_ZN4Glib18PropertyProxy_Base13set_property_ERKNS_9ValueBaseE
libglibmm-2.4.so.1:_ZN4Glib18PropertyProxy_Base14signal_changedEv
libglibmm-2.4.so.1:_ZN4Glib19SignalProxyProperty7connectEON4sigc4slotIvNS1_3nilES3_S3_S3_S3_S3_S3_EE
libglibmm-2.4.so.1:_ZN4Glib19SignalProxyPropertyD1Ev
libglibmm-2.4.so.1:_ZN4Glib26custom_boxed_type_registerEPKcPFvP7_GValueES5_PFvPKS2_S3_E
libglibmm-2.4.so.1:_ZN4Glib28custom_pointer_type_registerEPKc
libglibmm-2.4.so.1:_ZN4Glib29get_unichar_from_std_iteratorEN9__gnu_cxx17__normal_iteratorIPKcNSt7__cxx1112basic_stringIcSt11char_traitsIcESaIcEEEEE
libglibmm-2.4.so.1:_ZN4Glib5ValueINS_7ustringEE3setERKS1_
libglibmm-2.4.so.1:_ZN4Glib5ValueINSt7__cxx1112basic_stringIcSt11char_traitsIcESaIcEEEE3setERKS6_
libglibmm-2.4.so.1:_ZN4Glib5ValueIbE10value_typeEv
libglibmm-2.4.so.1:_ZN4Glib5ValueIbE3setEb
libglibmm-2.4.so.1:_ZN4Glib5ValueIiE10value_typeEv
libglibmm-2.4.so.1:_ZN4Glib5ValueIiE3setEi
libglibmm-2.4.so.1:_ZN4Glib6Source6attachEv
libglibmm-2.4.so.1:_ZN4Glib7ustring12FormatStreamC1Ev
libglibmm-2.4.so.1:_ZN4Glib7ustring12FormatStreamD1Ev
libglibmm-2.4.so.1:_ZN4Glib7ustring12compose_argvERKS0_iPKPS1_
libglibmm-2.4.so.1:_ZN4Glib7ustring3endB5cxx11Ev
libglibmm-2.4.so.1:_ZN4Glib7ustring5beginB5cxx11Ev
libglibmm-2.4.so.1:_ZN4Glib7ustringC1EONSt7__cxx1112basic_stringIcSt11char_traitsIcESaIcEEE
libglibmm-2.4.so.1:_ZN4Glib7ustringC1EPKc
libglibmm-2.4.so.1:_ZN4Glib7ustringC1ERKNSt7__cxx1112basic_stringIcSt11char_traitsIcESaIcEEE
libglibmm-2.4.so.1:_ZN4Glib7ustringC1ERKS0_
libglibmm-2.4.so.1:_ZN4Glib7ustringC1ERKS0_mm
libglibmm-2.4.so.1:_ZN4Glib7ustringC1Ev
libglibmm-2.4.so.1:_ZN4Glib7ustringD1Ev
libglibmm-2.4.so.1:_ZN4Glib7ustringaSEOS0_
libglibmm-2.4.so.1:_ZN4Glib7ustringaSEPKc
libglibmm-2.4.so.1:_ZN4Glib7ustringaSERKNSt7__cxx1112basic_stringIcSt11char_traitsIcESaIcEEE
libglibmm-2.4.so.1:_ZN4Glib7ustringpLEPKc
libglibmm-2.4.so.1:_ZN4Glib7ustringpLERKS0_
libglibmm-2.4.so.1:_ZN4Glib8IOSource6createEiNS_11IOConditionE
libglibmm-2.4.so.1:_ZN4Glib8IOSource7connectERKN4sigc4slotIbNS_11IOConditionENS1_3nilES4_S4_S4_S4_S4_EE
libglibmm-2.4.so.1:_ZN4Glib9ValueBase4initEm
libglibmm-2.4.so.1:_ZN4Glib9ValueBaseC2Ev
libglibmm-2.4.so.1:_ZN4Glib9ValueBaseD2Ev
libglibmm-2.4.so.1:_ZN4GliblsERSt13basic_ostreamIwSt11char_traitsIwEERKNS_7ustringE
libglibmm-2.4.so.1:_ZNK4Glib10ObjectBase11unreferenceEv
libglibmm-2.4.so.1:_ZNK4Glib10ObjectBase9referenceEv
libglibmm-2.4.so.1:_ZNK4Glib16ValueBase_Object15get_object_copyEv
libglibmm-2.4.so.1:_ZNK4Glib16ValueBase_String11get_cstringEv
libglibmm-2.4.so.1:_ZNK4Glib18PropertyProxy_Base13get_property_ERNS_9ValueBaseE
libglibmm-2.4.so.1:_ZNK4Glib5ValueIbE3getEv
libglibmm-2.4.so.1:_ZNK4Glib6Source11unreferenceEv
libglibmm-2.4.so.1:_ZNK4Glib7ustring12FormatStream9to_stringEv
libglibmm-2.4.so.1:_ZNK4Glib7ustring4sizeEv
libglibmm-2.4.so.1:_ZNK4Glib7ustring5c_strEv
libglibmm-2.4.so.1:_ZNK4Glib7ustring7compareEPKc
libglibmm-2.4.so.1:_ZNK4Glib7ustring7compareERKS0_
libgobject-2.0.so.0:g_enum_register_static
libgobject-2.0.so.0:g_object_class_install_property
libgobject-2.0.so.0:g_object_get
libgobject-2.0.so.0:g_object_new
libgobject-2.0.so.0:g_object_notify
libgobject-2.0.so.0:g_object_ref
libgobject-2.0.so.0:g_object_ref_sink
libgobject-2.0.so.0:g_object_set
libgobject-2.0.so.0:g_object_unref
libgobject-2.0.so.0:g_param_spec_boolean
libgobject-2.0.so.0:g_signal_connect_data
libgobject-2.0.so.0:g_signal_connect_object
libgobject-2.0.so.0:g_signal_emit_by_name
libgobject-2.0.so.0:g_signal_new
libgobject-2.0.so.0:g_type_add_interface_static
libgobject-2.0.so.0:g_type_check_class_cast
libgobject-2.0.so.0:g_type_check_instance_cast
libgobject-2.0.so.0:g_type_class_add_private
libgobject-2.0.so.0:g_type_class_peek_parent
libgobject-2.0.so.0:g_type_instance_get_private
libgobject-2.0.so.0:g_type_interface_peek_parent
libgobject-2.0.so.0:g_type_name
libgobject-2.0.so.0:g_type_register_static
libgobject-2.0.so.0:g_value_get_boolean
libgobject-2.0.so.0:g_value_get_flags
libgobject-2.0.so.0:g_value_get_string
libgobject-2.0.so.0:g_value_get_uint
libgobject-2.0.so.0:g_value_set_boolean
libgtk-3.so.0:gtk_accelerator_get_default_mod_mask
libgtk-3.so.0:gtk_cell_editable_editing_done
libgtk-3.so.0:gtk_cell_editable_get_type
libgtk-3.so.0:gtk_cell_editable_remove_widget
libgtk-3.so.0:gtk_cell_renderer_get_type
libgtk-3.so.0:gtk_cell_renderer_text_get_type
libgtk-3.so.0:gtk_combo_box_get_active
libgtk-3.so.0:gtk_combo_box_text_append_text
libgtk-3.so.0:gtk_combo_box_text_get_type
libgtk-3.so.0:gtk_container_add
libgtk-3.so.0:gtk_event_box_get_type
libgtk-3.so.0:gtk_get_major_version
libgtk-3.so.0:gtk_get_minor_version
libgtk-3.so.0:gtk_grab_add
libgtk-3.so.0:gtk_grab_remove
libgtk-3.so.0:gtk_label_new
libgtk-3.so.0:gtk_main
libgtk-3.so.0:gtk_main_quit
libgtk-3.so.0:gtk_misc_set_alignment
libgtk-3.so.0:gtk_style_context_get_background_color
libgtk-3.so.0:gtk_style_context_get_color
libgtk-3.so.0:gtk_tree_model_get_path
libgtk-3.so.0:gtk_tree_path_free
libgtk-3.so.0:gtk_tree_path_get_depth
libgtk-3.so.0:gtk_tree_path_to_string
libgtk-3.so.0:gtk_tree_view_append_column
libgtk-3.so.0:gtk_tree_view_column_new_with_attributes
libgtk-3.so.0:gtk_tree_view_column_set_cell_data_func
libgtk-3.so.0:gtk_tree_view_column_set_resizable
libgtk-3.so.0:gtk_widget_get_style_context
libgtk-3.so.0:gtk_widget_get_type
libgtk-3.so.0:gtk_widget_get_window
libgtk-3.so.0:gtk_widget_override_background_color
libgtk-3.so.0:gtk_widget_override_color
libgtk-3.so.0:gtk_widget_set_visual
libgtk-3.so.0:gtk_widget_show_all
libgtkmm-3.0.so.1:_ZN3Gtk10AccelGroup9get_labelEjN3Gdk12ModifierTypeE
libgtkmm-3.0.so.1:_ZN3Gtk10Adjustment20signal_value_changedEv
libgtkmm-3.0.so.1:_ZN3Gtk10Adjustment9set_valueEd
libgtkmm-3.0.so.1:_ZN3Gtk10CellLayout14get_first_cellEv
libgtkmm-3.0.so.1:_ZN3Gtk10CellLayoutC2Ev
libgtkmm-3.0.so.1:_ZN3Gtk10CellLayoutD2Ev
libgtkmm-3.0.so.1:_ZN3Gtk10StatusIcon15signal_activateEv
libgtkmm-3.0.so.1:_ZN3Gtk10StatusIcon17signal_popup_menuEv
libgtkmm-3.0.so.1:_ZN3Gtk10StatusIcon19signal_size_changedEv
libgtkmm-3.0.so.1:_ZN3Gtk10StatusIcon22popup_menu_at_positionERNS_4MenuEjj
libgtkmm-3.0.so.1:_ZN3Gtk10StatusIcon3setERKN4Glib6RefPtrIN3Gdk6PixbufEEE
libgtkmm-3.0.so.1:_ZN3Gtk10StatusIcon6createERKN4Glib7ustringE
libgtkmm-3.0.so.1:_ZN3Gtk11AboutDialog11set_versionERKN4Glib7ustringE
libgtkmm-3.0.so.1:_ZN3Gtk11AboutDialog13get_base_typeEv
libgtkmm-3.0.so.1:_ZN3Gtk11AboutDialog16set_program_nameERKN4Glib7ustringE
libgtkmm-3.0.so.1:_ZN3Gtk11AboutDialog8set_logoERKN4Glib6RefPtrIN3Gdk6PixbufEEE
libgtkmm-3.0.so.1:_ZN3Gtk11Application10add_windowERNS_6WindowE
libgtkmm-3.0.so.1:_ZN3Gtk11Application12set_app_menuERKN4Glib6RefPtrIN3Gio9MenuModelEEE
libgtkmm-3.0.so.1:_ZN3Gtk11Application15on_window_addedEPNS_6WindowE
libgtkmm-3.0.so.1:_ZN3Gtk11Application17on_window_removedEPNS_6WindowE
libgtkmm-3.0.so.1:_ZN3Gtk11Application3runEiPPc
libgtkmm-3.0.so.1:_ZN3Gtk11ApplicationC2ERiRPPcRKN4Glib7ustringEN3Gio16ApplicationFlagsE
libgtkmm-3.0.so.1:_ZN3Gtk11ApplicationD2Ev
libgtkmm-3.0.so.1:_ZN3Gtk11CheckButton13get_base_typeEv
libgtkmm-3.0.so.1:_ZN3Gtk11ColorButton13get_base_typeEv
libgtkmm-3.0.so.1:_ZN3Gtk11ColorButton13set_use_alphaEb
libgtkmm-3.0.so.1:_ZN3Gtk11ColorButton16signal_color_setEv
libgtkmm-3.0.so.1:_ZN3Gtk11ColorButton9set_alphaEt
libgtkmm-3.0.so.1:_ZN3Gtk11ColorButton9set_colorERKN3Gdk5ColorE
libgtkmm-3.0.so.1:_ZN3Gtk11RadioButton13get_base_typeEv
libgtkmm-3.0.so.1:_ZN3Gtk12CellRenderer18property_sensitiveEv
libgtkmm-3.0.so.1:_ZN3Gtk12CellRenderer22signal_editing_startedEv
libgtkmm-3.0.so.1:_ZN3Gtk12CellRenderer23signal_editing_canceledEv
libgtkmm-3.0.so.1:_ZN3Gtk12ComboBoxText6appendERKN4Glib7ustringE
libgtkmm-3.0.so.1:_ZN3Gtk12ComboBoxTextC1Eb
libgtkmm-3.0.so.1:_ZN3Gtk12StyleContext12render_frameERKN5Cairo6RefPtrINS1_7ContextEEEdddd
libgtkmm-3.0.so.1:_ZN3Gtk12StyleContext17render_backgroundERKN5Cairo6RefPtrINS1_7ContextEEEdddd
libgtkmm-3.0.so.1:_ZN3Gtk12StyleContext9add_classERKN4Glib7ustringE
libgtkmm-3.0.so.1:_ZN3Gtk12ToggleButton10set_activeEb
libgtkmm-3.0.so.1:_ZN3Gtk12ToggleButton13get_base_typeEv
libgtkmm-3.0.so.1:_ZN3Gtk12ToggleButton14signal_toggledEv
libgtkmm-3.0.so.1:_ZN3Gtk12TreeDragDest24drag_data_received_vfuncERKNS_8TreePathERKNS_13SelectionDataE
libgtkmm-3.0.so.1:_ZN3Gtk12TreeIterBaseC2ERKS0_
libgtkmm-3.0.so.1:_ZN3Gtk12TreeSortable13set_sort_funcERKNS_19TreeModelColumnBaseERKN4sigc4slotIiRKNS_8TreeIterES8_NS4_3nilES9_S9_S9_S9_EE
libgtkmm-3.0.so.1:_ZN3Gtk12TreeSortable15set_sort_columnERKNS_19TreeModelColumnBaseENS_8SortTypeE
libgtkmm-3.0.so.1:_ZN3Gtk12TreeSortable15set_sort_columnEiNS_8SortTypeE
libgtkmm-3.0.so.1:_ZN3Gtk12TreeSortable19set_sort_func_vfuncEiPFiP13_GtkTreeModelP12_GtkTreeIterS4_PvES5_PFvS5_E
libgtkmm-3.0.so.1:_ZN3Gtk12TreeSortable21set_default_sort_funcERKN4sigc4slotIiRKNS_8TreeIterES5_NS1_3nilES6_S6_S6_S6_EE
libgtkmm-3.0.so.1:_ZN3Gtk12TreeSortable22on_sort_column_changedEv
libgtkmm-3.0.so.1:_ZN3Gtk12TreeSortable24set_sort_column_id_vfuncEiNS_8SortTypeE
libgtkmm-3.0.so.1:_ZN3Gtk12TreeSortable27set_default_sort_func_vfuncEPFiP13_GtkTreeModelP12_GtkTreeIterS4_PvES5_PFvS5_E
libgtkmm-3.0.so.1:_ZN3Gtk13CheckMenuItem10set_activeEb
libgtkmm-3.0.so.1:_ZN3Gtk13CheckMenuItem14signal_toggledEv
libgtkmm-3.0.so.1:_ZN3Gtk13CheckMenuItemC1ERKN4Glib7ustringEb
libgtkmm-3.0.so.1:_ZN3Gtk13ImageMenuItemC1ERKNS_7StockIDE
libgtkmm-3.0.so.1:_ZN3Gtk13MessageDialog11set_messageERKN4Glib7ustringEb
libgtkmm-3.0.so.1:_ZN3Gtk13MessageDialog13get_base_typeEv
libgtkmm-3.0.so.1:_ZN3Gtk13MessageDialog18set_secondary_textERKN4Glib7ustringEb
libgtkmm-3.0.so.1:_ZN3Gtk13MessageDialogC1ERNS_6WindowERKN4Glib7ustringEbNS_11MessageTypeENS_11ButtonsTypeEb
libgtkmm-3.0.so.1:_ZN3Gtk13MessageDialogD1Ev
libgtkmm-3.0.so.1:_ZN3Gtk13TreeSelection12get_selectedEv
libgtkmm-3.0.so.1:_ZN3Gtk13TreeSelection12unselect_allEv
libgtkmm-3.0.so.1:_ZN3Gtk13TreeSelection14signal_changedEv
libgtkmm-3.0.so.1:_ZN3Gtk13TreeSelection19set_select_functionERKN4sigc4slotIbRKN4Glib6RefPtrINS_9TreeModelEEERKNS_8TreePathEbNS1_3nilESC_SC_SC_EE
libgtkmm-3.0.so.1:_ZN3Gtk13TreeSelection6selectERKNS_8TreePathE
libgtkmm-3.0.so.1:_ZN3Gtk13TreeSelection8set_modeENS_13SelectionModeE
libgtkmm-3.0.so.1:_ZN3Gtk14ScrolledWindow13get_base_typeEv
libgtkmm-3.0.so.1:_ZN3Gtk14TreeDragSource22drag_data_delete_vfuncERKNS_8TreePathE
libgtkmm-3.0.so.1:_ZN3Gtk14TreeViewColumn10pack_startERNS_12CellRendererEb
libgtkmm-3.0.so.1:_ZN3Gtk14TreeViewColumn10set_expandEb
libgtkmm-3.0.so.1:_ZN3Gtk14TreeViewColumn11class_init_Ev
libgtkmm-3.0.so.1:_ZN3Gtk14TreeViewColumn12set_rendererERNS_12CellRendererERKNS_19TreeModelColumnBaseE
libgtkmm-3.0.so.1:_ZN3Gtk14TreeViewColumn13add_attributeERKN4Glib18PropertyProxy_BaseERKNS_19TreeModelColumnBaseE
libgtkmm-3.0.so.1:_ZN3Gtk14TreeViewColumn13set_resizableEb
libgtkmm-3.0.so.1:_ZN3Gtk14TreeViewColumn15set_sort_columnERKNS_19TreeModelColumnBaseE
libgtkmm-3.0.so.1:_ZN3Gtk14TreeViewColumn18set_cell_data_funcERNS_12CellRendererERKN4sigc4slotIvPS1_RKNS_8TreeIterENS3_3nilES9_S9_S9_S9_EE
libgtkmm-3.0.so.1:_ZN3Gtk16CellRendererText13property_textEv
libgtkmm-3.0.so.1:_ZN3Gtk16CellRendererText13signal_editedEv
libgtkmm-3.0.so.1:_ZN3Gtk16CellRendererText15property_weightEv
libgtkmm-3.0.so.1:_ZN3Gtk16CellRendererText17property_editableEv
libgtkmm-3.0.so.1:_ZN3Gtk16CellRendererTextC1Ev
libgtkmm-3.0.so.1:_ZN3Gtk16TreeNodeChildren3endEv
libgtkmm-3.0.so.1:_ZN3Gtk16TreeNodeChildren5beginEv
libgtkmm-3.0.so.1:_ZN3Gtk16TreeRowReferenceC1ERKN4Glib6RefPtrINS_9TreeModelEEERKNS_8TreePathE
libgtkmm-3.0.so.1:_ZN3Gtk16TreeRowReferenceC1ERKS0_
libgtkmm-3.0.so.1:_ZN3Gtk16TreeRowReferenceD1Ev
libgtkmm-3.0.so.1:_ZN3Gtk17CellRendererCombo14property_modelEv
libgtkmm-3.0.so.1:_ZN3Gtk17CellRendererCombo18property_has_entryEv
libgtkmm-3.0.so.1:_ZN3Gtk17CellRendererCombo20property_text_columnEv
libgtkmm-3.0.so.1:_ZN3Gtk17CellRendererComboC1Ev
libgtkmm-3.0.so.1:_ZN3Gtk17SeparatorMenuItemC1Ev
libgtkmm-3.0.so.1:_ZN3Gtk18CellRendererToggle14signal_toggledEv
libgtkmm-3.0.so.1:_ZN3Gtk18CellRendererToggle20property_activatableEv
libgtkmm-3.0.so.1:_ZN3Gtk19TreeModelColumnBaseC2Em
libgtkmm-3.0.so.1:_ZN3Gtk21TreeModelColumnRecord3addERNS_19TreeModelColumnBaseE
libgtkmm-3.0.so.1:_ZN3Gtk21TreeModelColumnRecordC2Ev
libgtkmm-3.0.so.1:_ZN3Gtk21TreeModelColumnRecordD2Ev
libgtkmm-3.0.so.1:_ZN3Gtk23CellRenderer_Generation21generate_cellrendererIN4Glib6RefPtrIN3Gdk6PixbufEEEEEPNS_12CellRendererEb
libgtkmm-3.0.so.1:_ZN3Gtk23CellRenderer_Generation21generate_cellrendererIbEEPNS_12CellRendererEb
libgtkmm-3.0.so.1:_ZN3Gtk3Bin13get_base_typeEv
libgtkmm-3.0.so.1:_ZN3Gtk3Bin9get_childEv
libgtkmm-3.0.so.1:_ZN3Gtk4HBox13get_base_typeEv
libgtkmm-3.0.so.1:_ZN3Gtk4Main4quitEv
libgtkmm-3.0.so.1:_ZN3Gtk4MenuC1Ev
libgtkmm-3.0.so.1:_ZN3Gtk4MenuD1Ev
libgtkmm-3.0.so.1:_ZN3Gtk4Misc11set_paddingEii
libgtkmm-3.0.so.1:_ZN3Gtk5Frame13get_base_typeEv
libgtkmm-3.0.so.1:_ZN3Gtk5ImageC1ERKN4Glib6RefPtrIN3Gdk6PixbufEEE
libgtkmm-3.0.so.1:_ZN3Gtk5Label13get_base_typeEv
libgtkmm-3.0.so.1:_ZN3Gtk5Label14set_use_markupEb
libgtkmm-3.0.so.1:_ZN3Gtk5Label8set_textERKN4Glib7ustringE
libgtkmm-3.0.so.1:_ZN3Gtk5LabelC1ERKN4Glib7ustringEb
libgtkmm-3.0.so.1:_ZN3Gtk5Paned12set_positionEi
libgtkmm-3.0.so.1:_ZN3Gtk5Paned21property_position_setEv
libgtkmm-3.0.so.1:_ZN3Gtk6Button12signal_enterEv
libgtkmm-3.0.so.1:_ZN3Gtk6Button12signal_leaveEv
libgtkmm-3.0.so.1:_ZN3Gtk6Button13get_base_typeEv
libgtkmm-3.0.so.1:_ZN3Gtk6Button14signal_clickedEv
libgtkmm-3.0.so.1:_ZN3Gtk6Dialog3runEv
libgtkmm-3.0.so.1:_ZN3Gtk6Dialog8responseEi
libgtkmm-3.0.so.1:_ZN3Gtk6Object10set_manageEv
libgtkmm-3.0.so.1:_ZN3Gtk6Object15destroy_notify_Ev
libgtkmm-3.0.so.1:_ZN3Gtk6ObjectC2ERKN4Glib15ConstructParamsE
libgtkmm-3.0.so.1:_ZN3Gtk6ObjectD2Ev
libgtkmm-3.0.so.1:_ZN3Gtk6VPaned13get_base_typeEv
libgtkmm-3.0.so.1:_ZN3Gtk6Widget10get_windowEv
libgtkmm-3.0.so.1:_ZN3Gtk6Widget10grab_focusEv
libgtkmm-3.0.so.1:_ZN3Gtk6Widget10on_realizeEv
libgtkmm-3.0.so.1:_ZN3Gtk6Widget10set_eventsEN3Gdk9EventMaskE
libgtkmm-3.0.so.1:_ZN3Gtk6Widget11on_drag_endERKN4Glib6RefPtrIN3Gdk11DragContextEEE
libgtkmm-3.0.so.1:_ZN3Gtk6Widget11set_visibleEb
libgtkmm-3.0.so.1:_ZN3Gtk6Widget11signal_drawEv
libgtkmm-3.0.so.1:_ZN3Gtk6Widget12on_drag_dropERKN4Glib6RefPtrIN3Gdk11DragContextEEEiij
libgtkmm-3.0.so.1:_ZN3Gtk6Widget12on_map_eventEP12_GdkEventAny
libgtkmm-3.0.so.1:_ZN3Gtk6Widget12on_unrealizeEv
libgtkmm-3.0.so.1:_ZN3Gtk6Widget13get_base_typeEv
libgtkmm-3.0.so.1:_ZN3Gtk6Widget13on_drag_beginERKN4Glib6RefPtrIN3Gdk11DragContextEEE
libgtkmm-3.0.so.1:_ZN3Gtk6Widget13on_drag_leaveERKN4Glib6RefPtrIN3Gdk11DragContextEEEj
libgtkmm-3.0.so.1:_ZN3Gtk6Widget13on_grab_focusEv
libgtkmm-3.0.so.1:_ZN3Gtk6Widget13set_sensitiveEb
libgtkmm-3.0.so.1:_ZN3Gtk6Widget14on_drag_motionERKN4Glib6RefPtrIN3Gdk11DragContextEEEiij
libgtkmm-3.0.so.1:_ZN3Gtk6Widget14on_grab_notifyEb
libgtkmm-3.0.so.1:_ZN3Gtk6Widget14on_unmap_eventEP12_GdkEventAny
libgtkmm-3.0.so.1:_ZN3Gtk6Widget14override_colorERKN3Gdk4RGBAENS_10StateFlagsE
libgtkmm-3.0.so.1:_ZN3Gtk6Widget14show_all_vfuncEv
libgtkmm-3.0.so.1:_ZN3Gtk6Widget15on_child_notifyEP11_GParamSpec
libgtkmm-3.0.so.1:_ZN3Gtk6Widget15on_delete_eventEP12_GdkEventAny
libgtkmm-3.0.so.1:_ZN3Gtk6Widget15on_scroll_eventEP15_GdkEventScroll
libgtkmm-3.0.so.1:_ZN3Gtk6Widget16on_drag_data_getERKN4Glib6RefPtrIN3Gdk11DragContextEEERNS_13SelectionDataEjj
libgtkmm-3.0.so.1:_ZN3Gtk6Widget16on_selection_getERNS_13SelectionDataEjj
libgtkmm-3.0.so.1:_ZN3Gtk6Widget16on_size_allocateERN3Gdk9RectangleE
libgtkmm-3.0.so.1:_ZN3Gtk6Widget16on_state_changedENS_9StateTypeE
libgtkmm-3.0.so.1:_ZN3Gtk6Widget16on_style_updatedEv
libgtkmm-3.0.so.1:_ZN3Gtk6Widget17get_style_contextEv
libgtkmm-3.0.so.1:_ZN3Gtk6Widget17on_focus_in_eventEP14_GdkEventFocus
libgtkmm-3.0.so.1:_ZN3Gtk6Widget17on_parent_changedEPS0_
libgtkmm-3.0.so.1:_ZN3Gtk6Widget17on_screen_changedERKN4Glib6RefPtrIN3Gdk6ScreenEEE
libgtkmm-3.0.so.1:_ZN3Gtk6Widget17set_app_paintableEb
libgtkmm-3.0.so.1:_ZN3Gtk6Widget18on_configure_eventEP18_GdkEventConfigure
libgtkmm-3.0.so.1:_ZN3Gtk6Widget18on_focus_out_eventEP14_GdkEventFocus
libgtkmm-3.0.so.1:_ZN3Gtk6Widget18on_key_press_eventEP12_GdkEventKey
libgtkmm-3.0.so.1:_ZN3Gtk6Widget18render_icon_pixbufERKNS_7StockIDENS_8IconSizeE
libgtkmm-3.0.so.1:_ZN3Gtk6Widget19on_drag_data_deleteERKN4Glib6RefPtrIN3Gdk11DragContextEEE
libgtkmm-3.0.so.1:_ZN3Gtk6Widget20get_accessible_vfuncEv
libgtkmm-3.0.so.1:_ZN3Gtk6Widget20on_direction_changedENS_13TextDirectionE
libgtkmm-3.0.so.1:_ZN3Gtk6Widget20on_hierarchy_changedEPS0_
libgtkmm-3.0.so.1:_ZN3Gtk6Widget20on_key_release_eventEP12_GdkEventKey
libgtkmm-3.0.so.1:_ZN3Gtk6Widget20on_mnemonic_activateEb
libgtkmm-3.0.so.1:_ZN3Gtk6Widget21on_button_press_eventEP15_GdkEventButton
libgtkmm-3.0.so.1:_ZN3Gtk6Widget21on_drag_data_receivedERKN4Glib6RefPtrIN3Gdk11DragContextEEEiiRKNS_13SelectionDataEjj
libgtkmm-3.0.so.1:_ZN3Gtk6Widget21on_enter_notify_eventEP17_GdkEventCrossing
libgtkmm-3.0.so.1:_ZN3Gtk6Widget21on_leave_notify_eventEP17_GdkEventCrossing
libgtkmm-3.0.so.1:_ZN3Gtk6Widget21on_proximity_in_eventEP18_GdkEventProximity
libgtkmm-3.0.so.1:_ZN3Gtk6Widget21on_selection_receivedERKNS_13SelectionDataEj
libgtkmm-3.0.so.1:_ZN3Gtk6Widget21on_window_state_eventEP20_GdkEventWindowState
libgtkmm-3.0.so.1:_ZN3Gtk6Widget22on_motion_notify_eventEP15_GdkEventMotion
libgtkmm-3.0.so.1:_ZN3Gtk6Widget22on_proximity_out_eventEP18_GdkEventProximity
libgtkmm-3.0.so.1:_ZN3Gtk6Widget23on_button_release_eventEP15_GdkEventButton
libgtkmm-3.0.so.1:_ZN3Gtk6Widget24on_property_notify_eventEP17_GdkEventProperty
libgtkmm-3.0.so.1:_ZN3Gtk6Widget24on_selection_clear_eventEP18_GdkEventSelection
libgtkmm-3.0.so.1:_ZN3Gtk6Widget25on_selection_notify_eventEP18_GdkEventSelection
libgtkmm-3.0.so.1:_ZN3Gtk6Widget25override_background_colorERKN3Gdk4RGBAENS_10StateFlagsE
libgtkmm-3.0.so.1:_ZN3Gtk6Widget25signal_button_press_eventEv
libgtkmm-3.0.so.1:_ZN3Gtk6Widget26on_selection_request_eventEP18_GdkEventSelection
libgtkmm-3.0.so.1:_ZN3Gtk6Widget26on_visibility_notify_eventEP19_GdkEventVisibility
libgtkmm-3.0.so.1:_ZN3Gtk6Widget39dispatch_child_properties_changed_vfuncEjPP11_GParamSpec
libgtkmm-3.0.so.1:_ZN3Gtk6Widget4hideEv
libgtkmm-3.0.so.1:_ZN3Gtk6Widget4showEv
libgtkmm-3.0.so.1:_ZN3Gtk6Widget6on_mapEv
libgtkmm-3.0.so.1:_ZN3Gtk6Widget7on_drawERKN5Cairo6RefPtrINS1_7ContextEEE
libgtkmm-3.0.so.1:_ZN3Gtk6Widget7on_hideEv
libgtkmm-3.0.so.1:_ZN3Gtk6Widget7on_showEv
libgtkmm-3.0.so.1:_ZN3Gtk6Widget7realizeEv
libgtkmm-3.0.so.1:_ZN3Gtk6Widget8on_eventEP9_GdkEvent
libgtkmm-3.0.so.1:_ZN3Gtk6Widget8on_focusENS_13DirectionTypeE
libgtkmm-3.0.so.1:_ZN3Gtk6Widget8on_unmapEv
libgtkmm-3.0.so.1:_ZN3Gtk6Widget8show_allEv
libgtkmm-3.0.so.1:_ZN3Gtk6Window10get_screenEv
libgtkmm-3.0.so.1:_ZN3Gtk6Window10set_manageEv
libgtkmm-3.0.so.1:_ZN3Gtk6Window11set_opacityEd
libgtkmm-3.0.so.1:_ZN3Gtk6Window12on_set_focusEPNS_6WidgetE
libgtkmm-3.0.so.1:_ZN3Gtk6Window13get_base_typeEv
libgtkmm-3.0.so.1:_ZN3Gtk6Window13set_icon_listERKSt6vectorIN4Glib6RefPtrIN3Gdk6PixbufEEESaIS6_EE
libgtkmm-3.0.so.1:_ZN3Gtk6Window13set_resizableEb
libgtkmm-3.0.so.1:_ZN3Gtk6Window13set_type_hintEN3Gdk14WindowTypeHintE
libgtkmm-3.0.so.1:_ZN3Gtk6Window16set_accept_focusEb
libgtkmm-3.0.so.1:_ZN3Gtk6Window4moveEii
libgtkmm-3.0.so.1:_ZN3Gtk6Window5raiseEv
libgtkmm-3.0.so.1:_ZN3Gtk6Window6resizeEii
libgtkmm-3.0.so.1:_ZN3Gtk6WindowC2ENS_10WindowTypeE
libgtkmm-3.0.so.1:_ZN3Gtk6WindowD2Ev
libgtkmm-3.0.so.1:_ZN3Gtk7Builder10get_objectERKN4Glib7ustringE
libgtkmm-3.0.so.1:_ZN3Gtk7Builder18create_from_stringERKN4Glib7ustringE
libgtkmm-3.0.so.1:_ZN3Gtk7Builder18get_widget_checkedERKN4Glib7ustringEm
libgtkmm-3.0.so.1:_ZN3Gtk7StockIDC1ERKNS_14BuiltinStockIDE
libgtkmm-3.0.so.1:_ZN3Gtk7StockIDD1Ev
libgtkmm-3.0.so.1:_ZN3Gtk8ComboBox10set_activeEi
libgtkmm-3.0.so.1:_ZN3Gtk8ComboBox13get_base_typeEv
libgtkmm-3.0.so.1:_ZN3Gtk8ComboBox14signal_changedEv
libgtkmm-3.0.so.1:_ZN3Gtk8ComboBox9get_modelEv
libgtkmm-3.0.so.1:_ZN3Gtk8EventBox13get_base_typeEv
libgtkmm-3.0.so.1:_ZN3Gtk8Expander13get_base_typeEv
libgtkmm-3.0.so.1:_ZN3Gtk8Expander17property_expandedEv
libgtkmm-3.0.so.1:_ZN3Gtk8MenuItem15signal_activateEv
libgtkmm-3.0.so.1:_ZN3Gtk8TreeItermmEi
libgtkmm-3.0.so.1:_ZN3Gtk8TreeItermmEv
libgtkmm-3.0.so.1:_ZN3Gtk8TreeIterppEi
libgtkmm-3.0.so.1:_ZN3Gtk8TreeIterppEv
libgtkmm-3.0.so.1:_ZN3Gtk8TreePath23get_from_selection_dataERKNS_13SelectionDataERN4Glib6RefPtrINS_9TreeModelEEERS0_
libgtkmm-3.0.so.1:_ZN3Gtk8TreePath2upEv
libgtkmm-3.0.so.1:_ZN3Gtk8TreePathC1ERKN4Glib7ustringE
libgtkmm-3.0.so.1:_ZN3Gtk8TreePathC1ERKNS_8TreeIterE
libgtkmm-3.0.so.1:_ZN3Gtk8TreePathC1Ev
libgtkmm-3.0.so.1:_ZN3Gtk8TreePathD1Ev
libgtkmm-3.0.so.1:_ZN3Gtk8TreePathaSERKS0_
libgtkmm-3.0.so.1:_ZN3Gtk8TreeView10expand_allEv
libgtkmm-3.0.so.1:_ZN3Gtk8TreeView10get_columnEi
libgtkmm-3.0.so.1:_ZN3Gtk8TreeView10get_cursorERNS_8TreePathERPNS_14TreeViewColumnE
libgtkmm-3.0.so.1:_ZN3Gtk8TreeView10set_cursorERKNS_8TreePathE
libgtkmm-3.0.so.1:_ZN3Gtk8TreeView10set_cursorERKNS_8TreePathERNS_14TreeViewColumnEb
libgtkmm-3.0.so.1:_ZN3Gtk8TreeView13append_columnERKN4Glib7ustringERNS_12CellRendererE
libgtkmm-3.0.so.1:_ZN3Gtk8TreeView13append_columnERNS_14TreeViewColumnE
libgtkmm-3.0.so.1:_ZN3Gtk8TreeView13get_base_typeEv
libgtkmm-3.0.so.1:_ZN3Gtk8TreeView13get_selectionEv
libgtkmm-3.0.so.1:_ZN3Gtk8TreeView13scroll_to_rowERKNS_8TreePathE
libgtkmm-3.0.so.1:_ZN3Gtk8TreeView14expand_to_pathERKNS_8TreePathE
libgtkmm-3.0.so.1:_ZN3Gtk8TreeView15on_row_expandedERKNS_8TreeIterERKNS_8TreePathE
libgtkmm-3.0.so.1:_ZN3Gtk8TreeView16on_row_activatedERKNS_8TreePathEPNS_14TreeViewColumnE
libgtkmm-3.0.so.1:_ZN3Gtk8TreeView16on_row_collapsedERKNS_8TreeIterERKNS_8TreePathE
libgtkmm-3.0.so.1:_ZN3Gtk8TreeView17on_cursor_changedEv
libgtkmm-3.0.so.1:_ZN3Gtk8TreeView18on_columns_changedEv
libgtkmm-3.0.so.1:_ZN3Gtk8TreeView18on_test_expand_rowERKNS_8TreeIterERKNS_8TreePathE
libgtkmm-3.0.so.1:_ZN3Gtk8TreeView20on_test_collapse_rowERKNS_8TreeIterERKNS_8TreePathE
libgtkmm-3.0.so.1:_ZN3Gtk8TreeView20signal_row_activatedEv
libgtkmm-3.0.so.1:_ZN3Gtk8TreeView21signal_cursor_changedEv
libgtkmm-3.0.so.1:_ZN3Gtk8TreeView22enable_model_drag_destEN3Gdk10DragActionE
libgtkmm-3.0.so.1:_ZN3Gtk8TreeView24enable_model_drag_sourceEN3Gdk12ModifierTypeENS1_10DragActionE
libgtkmm-3.0.so.1:_ZN3Gtk8TreeView24get_column_cell_rendererEi
libgtkmm-3.0.so.1:_ZN3Gtk8TreeView52_auto_store_on_cellrenderer_toggle_edited_with_modelERKN4Glib7ustringEiRKNS1_6RefPtrINS_9TreeModelEEE
libgtkmm-3.0.so.1:_ZN3Gtk8TreeView9get_modelEv
libgtkmm-3.0.so.1:_ZN3Gtk8TreeView9set_modelERKN4Glib6RefPtrINS_9TreeModelEEE
libgtkmm-3.0.so.1:_ZN3Gtk8TreeViewC2Ev
libgtkmm-3.0.so.1:_ZN3Gtk8TreeViewD2Ev
libgtkmm-3.0.so.1:_ZN3Gtk9Container12forall_vfuncEiPFvP10_GtkWidgetPvES3_
libgtkmm-3.0.so.1:_ZN3Gtk9Container12get_childrenEv
libgtkmm-3.0.so.1:_ZN3Gtk9Container15on_check_resizeEv
libgtkmm-3.0.so.1:_ZN3Gtk9Container16set_border_widthEj
libgtkmm-3.0.so.1:_ZN3Gtk9Container18on_set_focus_childEPNS_6WidgetE
libgtkmm-3.0.so.1:_ZN3Gtk9Container20composite_name_vfuncEP10_GtkWidget
libgtkmm-3.0.so.1:_ZN3Gtk9Container24set_child_property_vfuncEP10_GtkWidgetjPK7_GValueP11_GParamSpec
libgtkmm-3.0.so.1:_ZN3Gtk9Container3addERNS_6WidgetE
libgtkmm-3.0.so.1:_ZN3Gtk9Container6on_addEPNS_6WidgetE
libgtkmm-3.0.so.1:_ZN3Gtk9Container9on_removeEPNS_6WidgetE
libgtkmm-3.0.so.1:_ZN3Gtk9ListStore13get_base_typeEv
libgtkmm-3.0.so.1:_ZN3Gtk9ListStore14set_value_implERKNS_8TreeIterEiRKN4Glib9ValueBaseE
libgtkmm-3.0.so.1:_ZN3Gtk9ListStore5clearEv
libgtkmm-3.0.so.1:_ZN3Gtk9ListStore5eraseERKNS_8TreeIterE
libgtkmm-3.0.so.1:_ZN3Gtk9ListStore6appendEv
libgtkmm-3.0.so.1:_ZN3Gtk9ListStore6createERKNS_21TreeModelColumnRecordE
libgtkmm-3.0.so.1:_ZN3Gtk9ListStore7prependEv
libgtkmm-3.0.so.1:_ZN3Gtk9ListStoreC2ERKNS_21TreeModelColumnRecordE
libgtkmm-3.0.so.1:_ZN3Gtk9ListStoreD2Ev
libgtkmm-3.0.so.1:_ZN3Gtk9MenuShell6appendERNS_8MenuItemE
libgtkmm-3.0.so.1:_ZN3Gtk9TreeModel12foreach_iterERKN4sigc4slotIbRKNS_8TreeIterENS1_3nilES6_S6_S6_S6_S6_EE
libgtkmm-3.0.so.1:_ZN3Gtk9TreeModel13get_base_typeEv
libgtkmm-3.0.so.1:_ZN3Gtk9TreeModel14on_row_changedERKNS_8TreePathERKNS_8TreeIterE
libgtkmm-3.0.so.1:_ZN3Gtk9TreeModel14on_row_deletedERKNS_8TreePathE
libgtkmm-3.0.so.1:_ZN3Gtk9TreeModel14set_value_implERKNS_8TreeIterEiRKN4Glib9ValueBaseE
libgtkmm-3.0.so.1:_ZN3Gtk9TreeModel15on_row_insertedERKNS_8TreePathERKNS_8TreeIterE
libgtkmm-3.0.so.1:_ZN3Gtk9TreeModel17on_rows_reorderedERKNS_8TreePathERKNS_8TreeIterEPi
libgtkmm-3.0.so.1:_ZN3Gtk9TreeModel18signal_row_changedEv
libgtkmm-3.0.so.1:_ZN3Gtk9TreeModel24on_row_has_child_toggledERKNS_8TreePathERKNS_8TreeIterE
libgtkmm-3.0.so.1:_ZN3Gtk9TreeModel7foreachERKN4sigc4slotIbRKNS_8TreePathERKNS_8TreeIterENS1_3nilES9_S9_S9_S9_EE
libgtkmm-3.0.so.1:_ZN3Gtk9TreeModel8childrenEv
libgtkmm-3.0.so.1:_ZN3Gtk9TreeModel8get_iterERKN4Glib7ustringE
libgtkmm-3.0.so.1:_ZN3Gtk9TreeModel8get_iterERKNS_8TreePathE
libgtkmm-3.0.so.1:_ZN3Gtk9TreeStore14set_value_implERKNS_8TreeIterEiRKN4Glib9ValueBaseE
libgtkmm-3.0.so.1:_ZN3Gtk9TreeStore5eraseERKNS_8TreeIterE
libgtkmm-3.0.so.1:_ZN3Gtk9TreeStore6appendERKNS_16TreeNodeChildrenE
libgtkmm-3.0.so.1:_ZN3Gtk9TreeStoreC2ERKNS_21TreeModelColumnRecordE
libgtkmm-3.0.so.1:_ZN3Gtk9TreeStoreD2Ev
libgtkmm-3.0.so.1:_ZN3GtkneERKNS_8TreePathES2_
libgtkmm-3.0.so.1:_ZNK3Gtk10Adjustment9get_valueEv
libgtkmm-3.0.so.1:_ZNK3Gtk10StatusIcon8get_sizeEv
libgtkmm-3.0.so.1:_ZNK3Gtk11ColorButton9get_alphaEv
libgtkmm-3.0.so.1:_ZNK3Gtk11ColorButton9get_colorEv
libgtkmm-3.0.so.1:_ZNK3Gtk12ToggleButton10get_activeEv
libgtkmm-3.0.so.1:_ZNK3Gtk12TreeDragDest23row_drop_possible_vfuncERKNS_8TreePathERKNS_13SelectionDataE
libgtkmm-3.0.so.1:_ZNK3Gtk12TreeSortable18get_sort_column_idERiRNS_8SortTypeE
libgtkmm-3.0.so.1:_ZNK3Gtk12TreeSortable24get_sort_column_id_vfuncEPiPNS_8SortTypeE
libgtkmm-3.0.so.1:_ZNK3Gtk12TreeSortable25sort_column_changed_vfuncEv
libgtkmm-3.0.so.1:_ZNK3Gtk12TreeSortable27has_default_sort_func_vfuncEv
libgtkmm-3.0.so.1:_ZNK3Gtk13CheckMenuItem10get_activeEv
libgtkmm-3.0.so.1:_ZNK3Gtk13TreeSelection11is_selectedERKNS_8TreePathE
libgtkmm-3.0.so.1:_ZNK3Gtk13TreeSelection17get_selected_rowsEv
libgtkmm-3.0.so.1:_ZNK3Gtk13TreeSelection19count_selected_rowsEv
libgtkmm-3.0.so.1:_ZNK3Gtk14TreeDragSource19drag_data_get_vfuncERKNS_8TreePathERNS_13SelectionDataE
libgtkmm-3.0.so.1:_ZNK3Gtk14TreeDragSource19row_draggable_vfuncERKNS_8TreePathE
libgtkmm-3.0.so.1:_ZNK3Gtk16TreeNodeChildren3endEv
libgtkmm-3.0.so.1:_ZNK3Gtk16TreeNodeChildren4sizeEv
libgtkmm-3.0.so.1:_ZNK3Gtk16TreeNodeChildren5beginEv
libgtkmm-3.0.so.1:_ZNK3Gtk16TreeRowReference8get_pathEv
libgtkmm-3.0.so.1:_ZNK3Gtk5Paned12get_positionEv
libgtkmm-3.0.so.1:_ZNK3Gtk6Widget10get_mappedEv
libgtkmm-3.0.so.1:_ZNK3Gtk6Widget13is_compositedEv
libgtkmm-3.0.so.1:_ZNK3Gtk6Widget19get_allocated_widthEv
libgtkmm-3.0.so.1:_ZNK3Gtk6Widget20get_allocated_heightEv
libgtkmm-3.0.so.1:_ZNK3Gtk6Widget22get_request_mode_vfuncEv
libgtkmm-3.0.so.1:_ZNK3Gtk6Widget25get_preferred_width_vfuncERiS1_
libgtkmm-3.0.so.1:_ZNK3Gtk6Widget26get_preferred_height_vfuncERiS1_
libgtkmm-3.0.so.1:_ZNK3Gtk6Widget36get_preferred_height_for_width_vfuncEiRiS1_
libgtkmm-3.0.so.1:_ZNK3Gtk6Widget36get_preferred_width_for_height_vfuncEiRiS1_
libgtkmm-3.0.so.1:_ZNK3Gtk6Window8get_sizeERiS1_
libgtkmm-3.0.so.1:_ZNK3Gtk7TreeRow14get_value_implEiRN4Glib9ValueBaseE
libgtkmm-3.0.so.1:_ZNK3Gtk7TreeRow14set_value_implEiRKN4Glib9ValueBaseE
libgtkmm-3.0.so.1:_ZNK3Gtk7TreeRow8childrenEv
libgtkmm-3.0.so.1:_ZNK3Gtk8ComboBox21get_active_row_numberEv
libgtkmm-3.0.so.1:_ZNK3Gtk8Expander12get_expandedEv
libgtkmm-3.0.so.1:_ZNK3Gtk8TreeIter5equalERKS0_
libgtkmm-3.0.so.1:_ZNK3Gtk8TreeItercvbEv
libgtkmm-3.0.so.1:_ZNK3Gtk8TreePath3endEv
libgtkmm-3.0.so.1:_ZNK3Gtk8TreeView15get_path_at_posEiiRNS_8TreePathERPNS_14TreeViewColumnERiS6_
libgtkmm-3.0.so.1:_ZNK3Gtk9Container16child_type_vfuncEv
libgtkmm-3.0.so.1:_ZNK3Gtk9Container24get_child_property_vfuncEP10_GtkWidgetjP7_GValueP11_GParamSpec
libgtkmm-3.0.so.1:_ZNK3Gtk9TreeModel14get_iter_vfuncERKNS_8TreePathERNS_8TreeIterE
libgtkmm-3.0.so.1:_ZNK3Gtk9TreeModel14get_path_vfuncERKNS_8TreeIterE
libgtkmm-3.0.so.1:_ZNK3Gtk9TreeModel14get_value_implERKNS_8TreeIterEiRN4Glib9ValueBaseE
libgtkmm-3.0.so.1:_ZNK3Gtk9TreeModel14ref_node_vfuncERKNS_8TreeIterE
libgtkmm-3.0.so.1:_ZNK3Gtk9TreeModel15get_flags_vfuncEv
libgtkmm-3.0.so.1:_ZNK3Gtk9TreeModel15get_value_vfuncERKNS_8TreeIterEiRN4Glib9ValueBaseE
libgtkmm-3.0.so.1:_ZNK3Gtk9TreeModel15iter_next_vfuncERKNS_8TreeIterERS1_
libgtkmm-3.0.so.1:_ZNK3Gtk9TreeModel16unref_node_vfuncERKNS_8TreeIterE
libgtkmm-3.0.so.1:_ZNK3Gtk9TreeModel17iter_parent_vfuncERKNS_8TreeIterERS1_
libgtkmm-3.0.so.1:_ZNK3Gtk9TreeModel19get_n_columns_vfuncEv
libgtkmm-3.0.so.1:_ZNK3Gtk9TreeModel19iter_children_vfuncERKNS_8TreeIterERS1_
libgtkmm-3.0.so.1:_ZNK3Gtk9TreeModel20iter_has_child_vfuncERKNS_8TreeIterE
libgtkmm-3.0.so.1:_ZNK3Gtk9TreeModel20iter_nth_child_vfuncERKNS_8TreeIterEiRS1_
libgtkmm-3.0.so.1:_ZNK3Gtk9TreeModel21get_column_type_vfuncEi
libgtkmm-3.0.so.1:_ZNK3Gtk9TreeModel21iter_n_children_vfuncERKNS_8TreeIterE
libgtkmm-3.0.so.1:_ZNK3Gtk9TreeModel25iter_nth_root_child_vfuncEiRNS_8TreeIterE
libgtkmm-3.0.so.1:_ZNK3Gtk9TreeModel26iter_n_root_children_vfuncEv
libgtkmm-3.0.so.1:_ZNK3Gtk9TreeModel8get_pathERKNS_8TreeIterE
libgtkmm-3.0.so.1:_ZThn8_N3Gtk9ListStore14set_value_implERKNS_8TreeIterEiRKN4Glib9ValueBaseE
libgtkmm-3.0.so.1:_ZThn8_N3Gtk9TreeStore14set_value_implERKNS_8TreeIterEiRKN4Glib9ValueBaseE
libgtkmm-3.0.so.1:_ZTv0_n56_N3Gtk6Object15destroy_notify_Ev
libgtkmm-3.0.so.1:_ZTv0_n64_N3Gtk6Object10set_manageEv
libgtkmm-3.0.so.1:_ZTv0_n64_N3Gtk6Window10set_manageEv
libm.so.6:atan2
libm.so.6:exp
libm.so.6:hypot
libm.so.6:hypotf
libm.so.6:log
libm.so.6:sin
libm.so.6:sincos
libsigc-2.0.so.0:_ZN4sigc10connection10disconnectEv
libsigc-2.0.so.0:_ZN4sigc10connectionC1ERNS_9slot_baseE
libsigc-2.0.so.0:_ZN4sigc10connectionC1Ev
libsigc-2.0.so.0:_ZN4sigc10connectionD1Ev
libsigc-2.0.so.0:_ZN4sigc10connectionaSERKS0_
libsigc-2.0.so.0:_ZN4sigc8internal8slot_rep6notifyEPv
libsigc-2.0.so.0:_ZN4sigc9slot_baseC2EPNS_8internal8slot_repE
libsigc-2.0.so.0:_ZN4sigc9slot_baseC2ERKS0_
libsigc-2.0.so.0:_ZN4sigc9slot_baseD2Ev
libsigc-2.0.so.0:_ZN4sigc9trackableC2Ev
libsigc-2.0.so.0:_ZN4sigc9trackableD2Ev
libsigc-2.0.so.0:_ZNK4sigc9trackable27add_destroy_notify_callbackEPvPFS1_S1_E
libsigc-2.0.so.0:_ZNK4sigc9trackable30remove_destroy_notify_callbackEPv
libstdc++.so.6:_ZNKSt5ctypeIcE13_M_widen_initEv
libstdc++.so.6:_ZNKSt7__cxx1112basic_stringIcSt11char_traitsIcESaIcEE7compareEPKc
libstdc++.so.6:_ZNSi10_M_extractIbEERSiRT_
libstdc++.so.6:_ZNSi10_M_extractIdEERSiRT_
libstdc++.so.6:_ZNSi10_M_extractIjEERSiRT_
libstdc++.so.6:_ZNSi10_M_extractImEERSiRT_
libstdc++.so.6:_ZNSi10_M_extractItEERSiRT_
libstdc++.so.6:_ZNSirsERi
libstdc++.so.6:_ZNSirsERs
libstdc++.so.6:_ZNSo3putEc
libstdc++.so.6:_ZNSo5flushEv
libstdc++.so.6:_ZNSo9_M_insertIbEERSoT_
libstdc++.so.6:_ZNSo9_M_insertIdEERSoT_
libstdc++.so.6:_ZNSo9_M_insertImEERSoT_
libstdc++.so.6:_ZNSolsEi
libstdc++.so.6:_ZNSolsEs
libstdc++.so.6:_ZNSt12__basic_fileIcED1Ev
libstdc++.so.6:_ZNSt13basic_filebufIcSt11char_traitsIcEE4openEPKcSt13_Ios_Openmode
libstdc++.so.6:_ZNSt13basic_filebufIcSt11char_traitsIcEE5closeEv
libstdc++.so.6:_ZNSt13basic_filebufIcSt11char_traitsIcEEC1Ev
libstdc++.so.6:_ZNSt13basic_filebufIcSt11char_traitsIcEED1Ev
libstdc++.so.6:_ZNSt13basic_ostreamIwSt11char_traitsIwEE9_M_insertIdEERS2_T_
libstdc++.so.6:_ZNSt13basic_ostreamIwSt11char_traitsIwEE9_M_insertImEERS2_T_
libstdc++.so.6:_ZNSt13basic_ostreamIwSt11char_traitsIwEElsEi
libstdc++.so.6:_ZNSt13runtime_errorC1EPKc
libstdc++.so.6:_ZNSt13runtime_errorD1Ev
libstdc++.so.6:_ZNSt14basic_ifstreamIcSt11char_traitsIcEED1Ev
libstdc++.so.6:_ZNSt14basic_ofstreamIcSt11char_traitsIcEED1Ev
libstdc++.so.6:_ZNSt6localeD1Ev
libstdc++.so.6:_ZNSt7__cxx1112basic_stringIcSt11char_traitsIcESaIcEE10_M_replaceEmmPKcm
libstdc++.so.6:_ZNSt7__cxx1112basic_stringIcSt11char_traitsIcESaIcEE9_M_appendEPKcm
libstdc++.so.6:_ZNSt7__cxx1112basic_stringIcSt11char_traitsIcESaIcEE9_M_assignERKS4_
libstdc++.so.6:_ZNSt7__cxx1112basic_stringIcSt11char_traitsIcESaIcEE9_M_createERmm
libstdc++.so.6:_ZNSt7__cxx1112basic_stringIcSt11char_traitsIcESaIcEED1Ev
libstdc++.so.6:_ZNSt8__detail15_List_node_base7_M_hookEPS0_
libstdc++.so.6:_ZNSt8__detail15_List_node_base9_M_unhookEv
libstdc++.so.6:_ZNSt8bad_castD1Ev
libstdc++.so.6:_ZNSt8ios_base4InitC1Ev
libstdc++.so.6:_ZNSt8ios_base4InitD1Ev
libstdc++.so.6:_ZNSt8ios_baseC2Ev
libstdc++.so.6:_ZNSt8ios_baseD2Ev
libstdc++.so.6:_ZNSt9basic_iosIcSt11char_traitsIcEE4initEPSt15basic_streambufIcS1_E
libstdc++.so.6:_ZNSt9basic_iosIcSt11char_traitsIcEE5clearESt12_Ios_Iostate
libstdc++.so.6:_ZNSt9exceptionD2Ev
libstdc++.so.6:_ZSt16__ostream_insertIcSt11char_traitsIcEERSt13basic_ostreamIT_T0_ES6_PKS3_l
libstdc++.so.6:_ZSt16__throw_bad_castv
libstdc++.so.6:_ZSt17__throw_bad_allocv
libstdc++.so.6:_ZSt18_Rb_tree_decrementPSt18_Rb_tree_node_base
libstdc++.so.6:_ZSt18_Rb_tree_incrementPKSt18_Rb_tree_node_base
libstdc++.so.6:_ZSt18_Rb_tree_incrementPSt18_Rb_tree_node_base
libstdc++.so.6:_ZSt19__throw_logic_errorPKc
libstdc++.so.6:_ZSt20__throw_length_errorPKc
libstdc++.so.6:_ZSt28_Rb_tree_rebalance_for_erasePSt18_Rb_tree_node_baseRS_
libstdc++.so.6:_ZSt29_Rb_tree_insert_and_rebalancebPSt18_Rb_tree_node_baseS0_RS_
libstdc++.so.6:_ZdaPv
libstdc++.so.6:_ZdlPv
libstdc++.so.6:_Znam
libstdc++.so.6:_Znwm
libstdc++.so.6:_ZnwmRKSt9nothrow_t
libstdc++.so.6:__cxa_allocate_exception
libstdc++.so.6:__cxa_bad_cast
libstdc++.so.6:__cxa_begin_catch
libstdc++.so.6:__cxa_end_catch
libstdc++.so.6:__cxa_free_exception
libstdc++.so.6:__cxa_guard_abort
libstdc++.so.6:__cxa_guard_acquire
libstdc++.so.6:__cxa_guard_release
libstdc++.so.6:__cxa_pure_virtual
libstdc++.so.6:__cxa_rethrow
libstdc++.so.6:__cxa_throw
libstdc++.so.6:__cxa_throw_bad_array_new_length
libstdc++.so.6:__dynamic_cast
libstdc++.so.6:__gxx_personality_v0
