ld-linux-x86-64.so.2:__tls_get_addr
libLLVM.so.21.1:LLVMAddAlias2
libLLVM.so.21.1:LLVMAddAnalysisPasses
libLLVM.so.21.1:LLVMAddCase
libLLVM.so.21.1:LLVMAddClause
libLLVM.so.21.1:LLVMAddFunction
libLLVM.so.21.1:LLVMAddGlobal
libLLVM.so.21.1:LLVMAddHandler
libLLVM.so.21.1:LLVMAddIncoming
libLLVM.so.21.1:LLVMAddNamedMetadataOperand
libLLVM.so.21.1:LLVMAppendBasicBlockInContext
libLLVM.so.21.1:LLVMAppendModuleInlineAsm
libLLVM.so.21.1:LLVMArrayType2
libLLVM.so.21.1:LLVMBuildAShr
libLLVM.so.21.1:LLVMBuildAdd
libLLVM.so.21.1:LLVMBuildAlloca
libLLVM.so.21.1:LLVMBuildAnd
libLLVM.so.21.1:LLVMBuildAtomicCmpXchg
libLLVM.so.21.1:LLVMBuildAtomicRMW
libLLVM.so.21.1:LLVMBuildBitCast
libLLVM.so.21.1:LLVMBuildBr
libLLVM.so.21.1:LLVMBuildCallBr
libLLVM.so.21.1:LLVMBuildCallWithOperandBundles
libLLVM.so.21.1:LLVMBuildCatchPad
libLLVM.so.21.1:LLVMBuildCatchRet
libLLVM.so.21.1:LLVMBuildCatchSwitch
libLLVM.so.21.1:LLVMBuildCleanupPad
libLLVM.so.21.1:LLVMBuildCleanupRet
libLLVM.so.21.1:LLVMBuildCondBr
libLLVM.so.21.1:LLVMBuildExactSDiv
libLLVM.so.21.1:LLVMBuildExactUDiv
libLLVM.so.21.1:LLVMBuildExtractElement
libLLVM.so.21.1:LLVMBuildExtractValue
libLLVM.so.21.1:LLVMBuildFAdd
libLLVM.so.21.1:LLVMBuildFCmp
libLLVM.so.21.1:LLVMBuildFDiv
libLLVM.so.21.1:LLVMBuildFMul
libLLVM.so.21.1:LLVMBuildFNeg
libLLVM.so.21.1:LLVMBuildFPExt
libLLVM.so.21.1:LLVMBuildFPToSI
libLLVM.so.21.1:LLVMBuildFPToUI
libLLVM.so.21.1:LLVMBuildFPTrunc
libLLVM.so.21.1:LLVMBuildFRem
libLLVM.so.21.1:LLVMBuildFSub
libLLVM.so.21.1:LLVMBuildFence
libLLVM.so.21.1:LLVMBuildGEPWithNoWrapFlags
libLLVM.so.21.1:LLVMBuildICmp
libLLVM.so.21.1:LLVMBuildInsertElement
libLLVM.so.21.1:LLVMBuildInsertValue
libLLVM.so.21.1:LLVMBuildIntCast2
libLLVM.so.21.1:LLVMBuildIntToPtr
libLLVM.so.21.1:LLVMBuildInvokeWithOperandBundles
libLLVM.so.21.1:LLVMBuildLShr
libLLVM.so.21.1:LLVMBuildLandingPad
libLLVM.so.21.1:LLVMBuildLoad2
libLLVM.so.21.1:LLVMBuildMul
libLLVM.so.21.1:LLVMBuildNSWAdd
libLLVM.so.21.1:LLVMBuildNSWMul
libLLVM.so.21.1:LLVMBuildNSWSub
libLLVM.so.21.1:LLVMBuildNUWAdd
libLLVM.so.21.1:LLVMBuildNUWMul
libLLVM.so.21.1:LLVMBuildNUWSub
libLLVM.so.21.1:LLVMBuildNeg
libLLVM.so.21.1:LLVMBuildNot
libLLVM.so.21.1:LLVMBuildOr
libLLVM.so.21.1:LLVMBuildPhi
libLLVM.so.21.1:LLVMBuildPointerCast
libLLVM.so.21.1:LLVMBuildPtrToInt
libLLVM.so.21.1:LLVMBuildResume
libLLVM.so.21.1:LLVMBuildRet
libLLVM.so.21.1:LLVMBuildRetVoid
libLLVM.so.21.1:LLVMBuildSDiv
libLLVM.so.21.1:LLVMBuildSExt
libLLVM.so.21.1:LLVMBuildSIToFP
libLLVM.so.21.1:LLVMBuildSRem
libLLVM.so.21.1:LLVMBuildSelect
libLLVM.so.21.1:LLVMBuildShl
libLLVM.so.21.1:LLVMBuildShuffleVector
libLLVM.so.21.1:LLVMBuildStore
libLLVM.so.21.1:LLVMBuildSub
libLLVM.so.21.1:LLVMBuildSwitch
libLLVM.so.21.1:LLVMBuildTrunc
libLLVM.so.21.1:LLVMBuildUDiv
libLLVM.so.21.1:LLVMBuildUIToFP
libLLVM.so.21.1:LLVMBuildURem
libLLVM.so.21.1:LLVMBuildUnreachable
libLLVM.so.21.1:LLVMBuildVAArg
libLLVM.so.21.1:LLVMBuildXor
libLLVM.so.21.1:LLVMBuildZExt
libLLVM.so.21.1:LLVMCloneModule
libLLVM.so.21.1:LLVMConstArray2
libLLVM.so.21.1:LLVMConstBitCast
libLLVM.so.21.1:LLVMConstInBoundsGEP2
libLLVM.so.21.1:LLVMConstInt
libLLVM.so.21.1:LLVMConstIntOfArbitraryPrecision
libLLVM.so.21.1:LLVMConstIntToPtr
libLLVM.so.21.1:LLVMConstNamedStruct
libLLVM.so.21.1:LLVMConstNull
libLLVM.so.21.1:LLVMConstPointerCast
libLLVM.so.21.1:LLVMConstPtrToInt
libLLVM.so.21.1:LLVMConstReal
libLLVM.so.21.1:LLVMConstStringInContext2
libLLVM.so.21.1:LLVMConstStructInContext
libLLVM.so.21.1:LLVMConstVector
libLLVM.so.21.1:LLVMContextCreate
libLLVM.so.21.1:LLVMContextDispose
libLLVM.so.21.1:LLVMContextSetDiscardValueNames
libLLVM.so.21.1:LLVMCountParamTypes
libLLVM.so.21.1:LLVMCountParams
libLLVM.so.21.1:LLVMCreateBuilderInContext
libLLVM.so.21.1:LLVMCreateConstantRangeAttribute
libLLVM.so.21.1:LLVMCreateDIBuilder
libLLVM.so.21.1:LLVMCreateOperandBundle
libLLVM.so.21.1:LLVMCreatePassManager
libLLVM.so.21.1:LLVMCreateStringAttribute
libLLVM.so.21.1:LLVMDIBuilderCreateArrayType
libLLVM.so.21.1:LLVMDIBuilderCreateAutoVariable
libLLVM.so.21.1:LLVMDIBuilderCreateBasicType
libLLVM.so.21.1:LLVMDIBuilderCreateDebugLocation
libLLVM.so.21.1:LLVMDIBuilderCreateExpression
libLLVM.so.21.1:LLVMDIBuilderCreateGlobalVariableExpression
libLLVM.so.21.1:LLVMDIBuilderCreateLexicalBlock
libLLVM.so.21.1:LLVMDIBuilderCreateLexicalBlockFile
libLLVM.so.21.1:LLVMDIBuilderCreateMemberType
libLLVM.so.21.1:LLVMDIBuilderCreateNameSpace
libLLVM.so.21.1:LLVMDIBuilderCreateParameterVariable
libLLVM.so.21.1:LLVMDIBuilderCreatePointerType
libLLVM.so.21.1:LLVMDIBuilderCreateQualifiedType
libLLVM.so.21.1:LLVMDIBuilderCreateStaticMemberType
libLLVM.so.21.1:LLVMDIBuilderCreateStructType
libLLVM.so.21.1:LLVMDIBuilderCreateSubroutineType
libLLVM.so.21.1:LLVMDIBuilderCreateTypedef
libLLVM.so.21.1:LLVMDIBuilderCreateUnionType
libLLVM.so.21.1:LLVMDIBuilderFinalize
libLLVM.so.21.1:LLVMDIBuilderGetOrCreateArray
libLLVM.so.21.1:LLVMDIBuilderGetOrCreateSubrange
libLLVM.so.21.1:LLVMDIBuilderInsertDbgValueRecordAtEnd
libLLVM.so.21.1:LLVMDIBuilderInsertDeclareRecordAtEnd
libLLVM.so.21.1:LLVMDeleteGlobal
libLLVM.so.21.1:LLVMDisposeBuilder
libLLVM.so.21.1:LLVMDisposeDIBuilder
libLLVM.so.21.1:LLVMDisposeMessage
libLLVM.so.21.1:LLVMDisposeOperandBundle
libLLVM.so.21.1:LLVMDisposePassManager
libLLVM.so.21.1:LLVMDisposeTargetMachine
libLLVM.so.21.1:LLVMDoubleTypeInContext
libLLVM.so.21.1:LLVMFP128TypeInContext
libLLVM.so.21.1:LLVMFloatTypeInContext
libLLVM.so.21.1:LLVMFunctionType
libLLVM.so.21.1:LLVMGetAggregateElement
libLLVM.so.21.1:LLVMGetAlignment
libLLVM.so.21.1:LLVMGetBasicBlockParent
libLLVM.so.21.1:LLVMGetConstOpcode
libLLVM.so.21.1:LLVMGetCurrentDebugLocation2
libLLVM.so.21.1:LLVMGetDataLayoutStr
libLLVM.so.21.1:LLVMGetElementType
libLLVM.so.21.1:LLVMGetFirstBasicBlock
libLLVM.so.21.1:LLVMGetFirstFunction
libLLVM.so.21.1:LLVMGetFirstGlobal
libLLVM.so.21.1:LLVMGetFunctionCallConv
libLLVM.so.21.1:LLVMGetHostCPUFeatures
libLLVM.so.21.1:LLVMGetInitializer
libLLVM.so.21.1:LLVMGetInlineAsm
libLLVM.so.21.1:LLVMGetInsertBlock
libLLVM.so.21.1:LLVMGetIntTypeWidth
libLLVM.so.21.1:LLVMGetIntrinsicDeclaration
libLLVM.so.21.1:LLVMGetLinkage
libLLVM.so.21.1:LLVMGetMDKindIDInContext
libLLVM.so.21.1:LLVMGetNamedFunction
libLLVM.so.21.1:LLVMGetNamedGlobal
libLLVM.so.21.1:LLVMGetNextFunction
libLLVM.so.21.1:LLVMGetNextGlobal
libLLVM.so.21.1:LLVMGetOperand
libLLVM.so.21.1:LLVMGetOrInsertComdat
libLLVM.so.21.1:LLVMGetParam
libLLVM.so.21.1:LLVMGetParamTypes
libLLVM.so.21.1:LLVMGetPoison
libLLVM.so.21.1:LLVMGetReturnType
libLLVM.so.21.1:LLVMGetTypeKind
libLLVM.so.21.1:LLVMGetUndef
libLLVM.so.21.1:LLVMGetValueName2
libLLVM.so.21.1:LLVMGetVectorSize
libLLVM.so.21.1:LLVMGetVisibility
libLLVM.so.21.1:LLVMGlobalGetValueType
libLLVM.so.21.1:LLVMGlobalSetMetadata
libLLVM.so.21.1:LLVMHalfTypeInContext
libLLVM.so.21.1:LLVMInitializeAArch64AsmParser
libLLVM.so.21.1:LLVMInitializeAArch64AsmPrinter
libLLVM.so.21.1:LLVMInitializeAArch64Target
libLLVM.so.21.1:LLVMInitializeAArch64TargetInfo
libLLVM.so.21.1:LLVMInitializeAArch64TargetMC
libLLVM.so.21.1:LLVMInitializeAMDGPUAsmParser
libLLVM.so.21.1:LLVMInitializeAMDGPUAsmPrinter
libLLVM.so.21.1:LLVMInitializeAMDGPUTarget
libLLVM.so.21.1:LLVMInitializeAMDGPUTargetInfo
libLLVM.so.21.1:LLVMInitializeAMDGPUTargetMC
libLLVM.so.21.1:LLVMInitializeARMAsmParser
libLLVM.so.21.1:LLVMInitializeARMAsmPrinter
libLLVM.so.21.1:LLVMInitializeARMTarget
libLLVM.so.21.1:LLVMInitializeARMTargetInfo
libLLVM.so.21.1:LLVMInitializeARMTargetMC
libLLVM.so.21.1:LLVMInitializeAVRAsmParser
libLLVM.so.21.1:LLVMInitializeAVRAsmPrinter
libLLVM.so.21.1:LLVMInitializeAVRTarget
libLLVM.so.21.1:LLVMInitializeAVRTargetInfo
libLLVM.so.21.1:LLVMInitializeAVRTargetMC
libLLVM.so.21.1:LLVMInitializeBPFAsmParser
libLLVM.so.21.1:LLVMInitializeBPFAsmPrinter
libLLVM.so.21.1:LLVMInitializeBPFTarget
libLLVM.so.21.1:LLVMInitializeBPFTargetInfo
libLLVM.so.21.1:LLVMInitializeBPFTargetMC
libLLVM.so.21.1:LLVMInitializeHexagonAsmParser
libLLVM.so.21.1:LLVMInitializeHexagonAsmPrinter
libLLVM.so.21.1:LLVMInitializeHexagonTarget
libLLVM.so.21.1:LLVMInitializeHexagonTargetInfo
libLLVM.so.21.1:LLVMInitializeHexagonTargetMC
libLLVM.so.21.1:LLVMInitializeLoongArchAsmParser
libLLVM.so.21.1:LLVMInitializeLoongArchAsmPrinter
libLLVM.so.21.1:LLVMInitializeLoongArchTarget
libLLVM.so.21.1:LLVMInitializeLoongArchTargetInfo
libLLVM.so.21.1:LLVMInitializeLoongArchTargetMC
libLLVM.so.21.1:LLVMInitializeMSP430AsmParser
libLLVM.so.21.1:LLVMInitializeMSP430AsmPrinter
libLLVM.so.21.1:LLVMInitializeMSP430Target
libLLVM.so.21.1:LLVMInitializeMSP430TargetInfo
libLLVM.so.21.1:LLVMInitializeMSP430TargetMC
libLLVM.so.21.1:LLVMInitializeMipsAsmParser
libLLVM.so.21.1:LLVMInitializeMipsAsmPrinter
libLLVM.so.21.1:LLVMInitializeMipsTarget
libLLVM.so.21.1:LLVMInitializeMipsTargetInfo
libLLVM.so.21.1:LLVMInitializeMipsTargetMC
libLLVM.so.21.1:LLVMInitializeNVPTXAsmPrinter
libLLVM.so.21.1:LLVMInitializeNVPTXTarget
libLLVM.so.21.1:LLVMInitializeNVPTXTargetInfo
libLLVM.so.21.1:LLVMInitializeNVPTXTargetMC
libLLVM.so.21.1:LLVMInitializePowerPCAsmParser
libLLVM.so.21.1:LLVMInitializePowerPCAsmPrinter
libLLVM.so.21.1:LLVMInitializePowerPCTarget
libLLVM.so.21.1:LLVMInitializePowerPCTargetInfo
libLLVM.so.21.1:LLVMInitializePowerPCTargetMC
libLLVM.so.21.1:LLVMInitializeRISCVAsmParser
libLLVM.so.21.1:LLVMInitializeRISCVAsmPrinter
libLLVM.so.21.1:LLVMInitializeRISCVTarget
libLLVM.so.21.1:LLVMInitializeRISCVTargetInfo
libLLVM.so.21.1:LLVMInitializeRISCVTargetMC
libLLVM.so.21.1:LLVMInitializeSparcAsmParser
libLLVM.so.21.1:LLVMInitializeSparcAsmPrinter
libLLVM.so.21.1:LLVMInitializeSparcTarget
libLLVM.so.21.1:LLVMInitializeSparcTargetInfo
libLLVM.so.21.1:LLVMInitializeSparcTargetMC
libLLVM.so.21.1:LLVMInitializeSystemZAsmParser
libLLVM.so.21.1:LLVMInitializeSystemZAsmPrinter
libLLVM.so.21.1:LLVMInitializeSystemZTarget
libLLVM.so.21.1:LLVMInitializeSystemZTargetInfo
libLLVM.so.21.1:LLVMInitializeSystemZTargetMC
libLLVM.so.21.1:LLVMInitializeWebAssemblyAsmParser
libLLVM.so.21.1:LLVMInitializeWebAssemblyAsmPrinter
libLLVM.so.21.1:LLVMInitializeWebAssemblyTarget
libLLVM.so.21.1:LLVMInitializeWebAssemblyTargetInfo
libLLVM.so.21.1:LLVMInitializeWebAssemblyTargetMC
libLLVM.so.21.1:LLVMInitializeX86AsmParser
libLLVM.so.21.1:LLVMInitializeX86AsmPrinter
libLLVM.so.21.1:LLVMInitializeX86Target
libLLVM.so.21.1:LLVMInitializeX86TargetInfo
libLLVM.so.21.1:LLVMInitializeX86TargetMC
libLLVM.so.21.1:LLVMInt16TypeInContext
libLLVM.so.21.1:LLVMInt1TypeInContext
libLLVM.so.21.1:LLVMInt32TypeInContext
libLLVM.so.21.1:LLVMInt64TypeInContext
libLLVM.so.21.1:LLVMInt8TypeInContext
libLLVM.so.21.1:LLVMIntTypeInContext
libLLVM.so.21.1:LLVMIsAArgument
libLLVM.so.21.1:LLVMIsAConstantExpr
libLLVM.so.21.1:LLVMIsAConstantInt
libLLVM.so.21.1:LLVMIsAGlobalVariable
libLLVM.so.21.1:LLVMIsAInstruction
libLLVM.so.21.1:LLVMIsDeclaration
libLLVM.so.21.1:LLVMIsGlobalConstant
libLLVM.so.21.1:LLVMIsMultithreaded
libLLVM.so.21.1:LLVMIsThreadLocal
libLLVM.so.21.1:LLVMLookupIntrinsicID
libLLVM.so.21.1:LLVMMDNodeInContext2
libLLVM.so.21.1:LLVMMDStringInContext2
libLLVM.so.21.1:LLVMMetadataAsValue
libLLVM.so.21.1:LLVMModuleCreateWithNameInContext
libLLVM.so.21.1:LLVMPointerTypeInContext
libLLVM.so.21.1:LLVMPositionBuilderAtEnd
libLLVM.so.21.1:LLVMReplaceAllUsesWith
libLLVM.so.21.1:LLVMScalableVectorType
libLLVM.so.21.1:LLVMSetAlignment
libLLVM.so.21.1:LLVMSetCleanup
libLLVM.so.21.1:LLVMSetComdat
libLLVM.so.21.1:LLVMSetCurrentDebugLocation2
libLLVM.so.21.1:LLVMSetDLLStorageClass
libLLVM.so.21.1:LLVMSetDataLayout
libLLVM.so.21.1:LLVMSetExternallyInitialized
libLLVM.so.21.1:LLVMSetFunctionCallConv
libLLVM.so.21.1:LLVMSetGlobalConstant
libLLVM.so.21.1:LLVMSetInitializer
libLLVM.so.21.1:LLVMSetInstructionCallConv
libLLVM.so.21.1:LLVMSetIsDisjoint
libLLVM.so.21.1:LLVMSetLinkage
libLLVM.so.21.1:LLVMSetMetadata
libLLVM.so.21.1:LLVMSetNSW
libLLVM.so.21.1:LLVMSetNUW
libLLVM.so.21.1:LLVMSetOrdering
libLLVM.so.21.1:LLVMSetPersonalityFn
libLLVM.so.21.1:LLVMSetSection
libLLVM.so.21.1:LLVMSetTailCall
libLLVM.so.21.1:LLVMSetTailCallKind
libLLVM.so.21.1:LLVMSetThreadLocalMode
libLLVM.so.21.1:LLVMSetUnnamedAddress
libLLVM.so.21.1:LLVMSetValueName2
libLLVM.so.21.1:LLVMSetVisibility
libLLVM.so.21.1:LLVMSetVolatile
libLLVM.so.21.1:LLVMSetWeak
libLLVM.so.21.1:LLVMStructCreateNamed
libLLVM.so.21.1:LLVMStructSetBody
libLLVM.so.21.1:LLVMStructTypeInContext
libLLVM.so.21.1:LLVMTypeOf
libLLVM.so.21.1:LLVMValueAsMetadata
libLLVM.so.21.1:LLVMVectorType
libLLVM.so.21.1:LLVMVoidTypeInContext
libLLVM.so.21.1:LLVMWriteBitcodeToFile
libLLVM.so.21.1:_ZN4llvm10DILocation19decodeDiscriminatorEjRjS1_S1_
libLLVM.so.21.1:_ZN4llvm10DILocation19encodeDiscriminatorEjjj
libLLVM.so.21.1:_ZN4llvm10DILocation7getImplERNS_11LLVMContextEjjPNS_8MetadataES4_bmhNS3_11StorageTypeEb
libLLVM.so.21.1:_ZN4llvm10DataLayoutD1Ev
libLLVM.so.21.1:_ZN4llvm10DataLayoutaSERKS0_
libLLVM.so.21.1:_ZN4llvm10PGOOptionsC1ENSt7__cxx1112basic_stringIcSt11char_traitsIcESaIcEEES6_S6_S6_NS_18IntrusiveRefCntPtrINS_3vfs10FileSystemEEENS0_9PGOActionENS0_11CSPGOActionENS0_11ColdFuncOptEbbb
libLLVM.so.21.1:_ZN4llvm10PGOOptionsC1ERKS0_
libLLVM.so.21.1:_ZN4llvm10PGOOptionsD1Ev
libLLVM.so.21.1:_ZN4llvm10PGOOptionsaSERKS0_
libLLVM.so.21.1:_ZN4llvm10PassPlugin4LoadERKNSt7__cxx1112basic_stringIcSt11char_traitsIcESaIcEEE
libLLVM.so.21.1:_ZN4llvm10TimerGroup8printAllERNS_11raw_ostreamE
libLLVM.so.21.1:_ZN4llvm11AttrBuilder12addAttributeENS_9AttributeE
libLLVM.so.21.1:_ZN4llvm11GlobalValue20setSanitizerMetadataENS0_17SanitizerMetadataE
libLLVM.so.21.1:_ZN4llvm11GlobalValue30getGUIDAssumingExternalLinkageENS_9StringRefE
libLLVM.so.21.1:_ZN4llvm11Instruction18setHasAllowReassocEb
libLLVM.so.21.1:_ZN4llvm11Instruction19setHasAllowContractEb
libLLVM.so.21.1:_ZN4llvm11Instruction19setHasNoSignedZerosEb
libLLVM.so.21.1:_ZN4llvm11Instruction21setHasAllowReciprocalEb
libLLVM.so.21.1:_ZN4llvm11Instruction7setFastEb
libLLVM.so.21.1:_ZN4llvm11LLVMContext20getDiagnosticHandlerEv
libLLVM.so.21.1:_ZN4llvm11LLVMContext20setDiagnosticHandlerEOSt10unique_ptrINS_17DiagnosticHandlerESt14default_deleteIS2_EEb
libLLVM.so.21.1:_ZN4llvm11LLVMContext26enableDebugTypeODRUniquingEv
libLLVM.so.21.1:_ZN4llvm11LLVMContext30setDiagnosticsHotnessRequestedEb
libLLVM.so.21.1:_ZN4llvm11LLVMContextC1Ev
libLLVM.so.21.1:_ZN4llvm11LLVMContextD1Ev
libLLVM.so.21.1:_ZN4llvm11NamedMDNode15eraseFromParentEv
libLLVM.so.21.1:_ZN4llvm11PassBuilder14printPassNamesERNS_11raw_ostreamE
libLLVM.so.21.1:_ZN4llvm11PassBuilder17parsePassPipelineERNS_11PassManagerINS_6ModuleENS_15AnalysisManagerIS2_JEEEJEEENS_9StringRefE
libLLVM.so.21.1:_ZN4llvm11PassBuilder20crossRegisterProxiesERNS_15AnalysisManagerINS_4LoopEJRNS_27LoopStandardAnalysisResultsEEEERNS1_INS_8FunctionEJEEERNS1_INS_13LazyCallGraph3SCCEJRSA_EEERNS1_INS_6ModuleEJEEEPNS1_INS_15MachineFunctionEJEEE
libLLVM.so.21.1:_ZN4llvm11PassBuilder20registerLoopAnalysesERNS_15AnalysisManagerINS_4LoopEJRNS_27LoopStandardAnalysisResultsEEEE
libLLVM.so.21.1:_ZN4llvm11PassBuilder21registerCGSCCAnalysesERNS_15AnalysisManagerINS_13LazyCallGraph3SCCEJRS2_EEE
libLLVM.so.21.1:_ZN4llvm11PassBuilder22buildDefaultAAPipelineEv
libLLVM.so.21.1:_ZN4llvm11PassBuilder22buildO0DefaultPipelineENS_17OptimizationLevelENS_18ThinOrFullLTOPhaseE
libLLVM.so.21.1:_ZN4llvm11PassBuilder22registerModuleAnalysesERNS_15AnalysisManagerINS_6ModuleEJEEE
libLLVM.so.21.1:_ZN4llvm11PassBuilder23buildLTODefaultPipelineENS_17OptimizationLevelEPNS_18ModuleSummaryIndexE
libLLVM.so.21.1:_ZN4llvm11PassBuilder24registerFunctionAnalysesERNS_15AnalysisManagerINS_8FunctionEJEEE
libLLVM.so.21.1:_ZN4llvm11PassBuilder27buildThinLTODefaultPipelineENS_17OptimizationLevelEPKNS_18ModuleSummaryIndexE
libLLVM.so.21.1:_ZN4llvm11PassBuilder29buildPerModuleDefaultPipelineENS_17OptimizationLevelENS_18ThinOrFullLTOPhaseE
libLLVM.so.21.1:_ZN4llvm11PassBuilder30buildLTOPreLinkDefaultPipelineENS_17OptimizationLevelE
libLLVM.so.21.1:_ZN4llvm11PassBuilder31buildModuleOptimizationPipelineENS_17OptimizationLevelENS_18ThinOrFullLTOPhaseE
libLLVM.so.21.1:_ZN4llvm11PassBuilder34buildThinLTOPreLinkDefaultPipelineENS_17OptimizationLevelE
libLLVM.so.21.1:_ZN4llvm11PassBuilderC1EPNS_13TargetMachineENS_21PipelineTuningOptionsESt8optionalINS_10PGOOptionsEEPNS_28PassInstrumentationCallbacksE
libLLVM.so.21.1:_ZN4llvm11PassManagerINS_6ModuleENS_15AnalysisManagerIS1_JEEEJEE3runERS1_RS3_
libLLVM.so.21.1:_ZN4llvm11StringErrorC1ERKNS_5TwineESt10error_code
libLLVM.so.21.1:_ZN4llvm11StringSaver4saveENS_9StringRefE
libLLVM.so.21.1:_ZN4llvm11compression22getReasonIfUnsupportedENS0_6FormatE
libLLVM.so.21.1:_ZN4llvm11compression4zlib11isAvailableEv
libLLVM.so.21.1:_ZN4llvm11compression4zstd11isAvailableEv
libLLVM.so.21.1:_ZN4llvm11raw_ostream10resetColorEv
libLLVM.so.21.1:_ZN4llvm11raw_ostream11changeColorENS0_6ColorsEbb
libLLVM.so.21.1:_ZN4llvm11raw_ostream12reverseColorEv
libLLVM.so.21.1:_ZN4llvm11raw_ostream14flush_nonemptyEv
libLLVM.so.21.1:_ZN4llvm11raw_ostream16SetBufferAndModeEPcmNS0_10BufferKindE
libLLVM.so.21.1:_ZN4llvm11raw_ostream5writeEPKcm
libLLVM.so.21.1:_ZN4llvm11raw_ostream5writeEh
libLLVM.so.21.1:_ZN4llvm11raw_ostream6anchorEv
libLLVM.so.21.1:_ZN4llvm11raw_ostreamD2Ev
libLLVM.so.21.1:_ZN4llvm11raw_ostreamlsERKNS_18format_object_baseE
libLLVM.so.21.1:_ZN4llvm12DenseMapInfoINS_9StringRefEvE12getHashValueES1_
libLLVM.so.21.1:_ZN4llvm12MemoryBuffer12getMemBufferENS_9StringRefES1_b
libLLVM.so.21.1:_ZN4llvm12MemoryBuffer14getFileOrSTDINERKNS_5TwineEbbSt8optionalINS_5AlignEE
libLLVM.so.21.1:_ZN4llvm12MemoryBuffer16getMemBufferCopyENS_9StringRefERKNS_5TwineE
libLLVM.so.21.1:_ZN4llvm12MemoryBuffer7getFileERKNS_5TwineEbbbSt8optionalINS_5AlignEE
libLLVM.so.21.1:_ZN4llvm12VerifierPass3runERNS_6ModuleERNS_15AnalysisManagerIS1_JEEE
libLLVM.so.21.1:_ZN4llvm13ErrorInfoBase2IDE
libLLVM.so.21.1:_ZN4llvm13IRBuilderBase12CreateMemSetEPNS_5ValueES2_S2_NS_10MaybeAlignEbRKNS_9AAMDNodesE
libLLVM.so.21.1:_ZN4llvm13IRBuilderBase21CreateMemTransferInstEjPNS_5ValueENS_10MaybeAlignES2_S3_S2_bRKNS_9AAMDNodesE
libLLVM.so.21.1:_ZN4llvm13StringMapImpl11RehashTableEj
libLLVM.so.21.1:_ZN4llvm13StringMapImpl15LookupBucketForENS_9StringRefEj
libLLVM.so.21.1:_ZN4llvm13StringMapImpl4hashENS_9StringRefE
libLLVM.so.21.1:_ZN4llvm13StringMapImpl4initEj
libLLVM.so.21.1:_ZN4llvm13StringMapImplC2Ejj
libLLVM.so.21.1:_ZN4llvm13writeToOutputENS_9StringRefESt8functionIFNS_5ErrorERNS_11raw_ostreamEEE
libLLVM.so.21.1:_ZN4llvm14GlobalVariableC1ERNS_6ModuleEPNS_4TypeEbNS_11GlobalValue12LinkageTypesEPNS_8ConstantERKNS_5TwineEPS0_NS5_15ThreadLocalModeESt8optionalIjEb
libLLVM.so.21.1:_ZN4llvm14TargetRegistry12lookupTargetERKNS_6TripleERNSt7__cxx1112basic_stringIcSt11char_traitsIcESaIcEEE
libLLVM.so.21.1:_ZN4llvm14ToolOutputFileC1ENS_9StringRefERSt10error_codeNS_3sys2fs9OpenFlagsE
libLLVM.so.21.1:_ZN4llvm14identify_magicENS_9StringRefE
libLLVM.so.21.1:_ZN4llvm14raw_fd_ostreamC1ENS_9StringRefERSt10error_codeNS_3sys2fs19CreationDispositionE
libLLVM.so.21.1:_ZN4llvm14raw_fd_ostreamC1ENS_9StringRefERSt10error_codeNS_3sys2fs9OpenFlagsE
libLLVM.so.21.1:_ZN4llvm14raw_fd_ostreamD1Ev
libLLVM.so.21.1:_ZN4llvm15AnalysisManagerINS_13LazyCallGraph3SCCEJRS1_EEC1Ev
libLLVM.so.21.1:_ZN4llvm15AnalysisManagerINS_4LoopEJRNS_27LoopStandardAnalysisResultsEEEC1Ev
libLLVM.so.21.1:_ZN4llvm15AnalysisManagerINS_6ModuleEJEEC1Ev
libLLVM.so.21.1:_ZN4llvm15AnalysisManagerINS_8FunctionEJEEC1Ev
libLLVM.so.21.1:_ZN4llvm15IRChangedTesterD1Ev
libLLVM.so.21.1:_ZN4llvm15InternalizePass17internalizeModuleERNS_6ModuleE
libLLVM.so.21.1:_ZN4llvm15MCTargetOptionsC1Ev
libLLVM.so.21.1:_ZN4llvm15PrintModulePass3runERNS_6ModuleERNS_15AnalysisManagerIS1_JEEE
libLLVM.so.21.1:_ZN4llvm15PrintModulePassC1ERNS_11raw_ostreamERKNSt7__cxx1112basic_stringIcSt11char_traitsIcESaIcEEEbb
libLLVM.so.21.1:_ZN4llvm15PrintStatisticsERNS_11raw_ostreamE
libLLVM.so.21.1:_ZN4llvm15SmallVectorBaseIjE13mallocForGrowEPvmmRm
libLLVM.so.21.1:_ZN4llvm15SmallVectorBaseIjE8grow_podEPvmm
libLLVM.so.21.1:_ZN4llvm15SmallVectorBaseImE8grow_podEPvmm
libLLVM.so.21.1:_ZN4llvm15allocate_bufferEmm
libLLVM.so.21.1:_ZN4llvm16CleanupInstallerD1Ev
libLLVM.so.21.1:_ZN4llvm16FunctionImporter15importFunctionsERNS_6ModuleERKNS0_11ImportMapTyE
libLLVM.so.21.1:_ZN4llvm16IRChangedPrinterD1Ev
libLLVM.so.21.1:_ZN4llvm16MetadataTracking5trackEPvRNS_8MetadataENS_12PointerUnionIJPNS_15MetadataAsValueEPS2_PNS_14DebugValueUserEEEE
libLLVM.so.21.1:_ZN4llvm16MetadataTracking7retrackEPvRNS_8MetadataES1_
libLLVM.so.21.1:_ZN4llvm16MetadataTracking7untrackEPvRNS_8MetadataE
libLLVM.so.21.1:_ZN4llvm16errorCodeToErrorESt10error_code
libLLVM.so.21.1:_ZN4llvm16parseBitcodeFileENS_15MemoryBufferRefERNS_11LLVMContextENS_15ParserCallbacksE
libLLVM.so.21.1:_ZN4llvm17BitcodeWriterPass3runERNS_6ModuleERNS_15AnalysisManagerIS1_JEEE
libLLVM.so.21.1:_ZN4llvm17OptimizationLevel2O0E
libLLVM.so.21.1:_ZN4llvm17OptimizationLevel2O1E
libLLVM.so.21.1:_ZN4llvm17OptimizationLevel2O2E
libLLVM.so.21.1:_ZN4llvm17OptimizationLevel2O3E
libLLVM.so.21.1:_ZN4llvm17OptimizationLevel2OsE
libLLVM.so.21.1:_ZN4llvm17OptimizationLevel2OzE
libLLVM.so.21.1:_ZN4llvm17createStringErrorEONSt7__cxx1112basic_stringIcSt11char_traitsIcESaIcEEESt10error_code
libLLVM.so.21.1:_ZN4llvm17deallocate_bufferEPvmm
libLLVM.so.21.1:_ZN4llvm18DILexicalBlockFile7getImplERNS_11LLVMContextEPNS_8MetadataES4_jNS3_11StorageTypeEb
libLLVM.so.21.1:_ZN4llvm18LLVMRemarkStreamer4emitERKNS_30DiagnosticInfoOptimizationBaseE
libLLVM.so.21.1:_ZN4llvm18LowerTypeTestsPass3runERNS_6ModuleERNS_15AnalysisManagerIS1_JEEE
libLLVM.so.21.1:_ZN4llvm18NameAnonGlobalPass3runERNS_6ModuleERNS_15AnalysisManagerIS1_JEEE
libLLVM.so.21.1:_ZN4llvm18WriteBitcodeToFileERKNS_6ModuleERNS_11raw_ostreamEbPKNS_18ModuleSummaryIndexEbPSt5arrayIjLm5EE
libLLVM.so.21.1:_ZN4llvm18computeLTOCacheKeyB5cxx11ERKNS_3lto6ConfigERKNS_18ModuleSummaryIndexENS_9StringRefERKNS_16FunctionImporter11ImportMapTyERKNS_8DenseSetINS_9ValueInfoENS_12DenseMapInfoISD_vEEEERKSt3mapImNS_11GlobalValue12LinkageTypesESt4lessImESaISt4pairIKmSL_EEERKNS_8DenseMapImPNS_18GlobalValueSummaryENSE_ImvEENS_6detail12DenseMapPairImSX_EEEERKNSC_ImSY_EES17_
libLLVM.so.21.1:_ZN4llvm18format_object_base4homeEv
libLLVM.so.21.1:_ZN4llvm18getAsSignedIntegerENS_9StringRefEjRx
libLLVM.so.21.1:_ZN4llvm18report_fatal_errorENS_5ErrorEb
libLLVM.so.21.1:_ZN4llvm18report_fatal_errorEPKcb
libLLVM.so.21.1:_ZN4llvm18report_fatal_errorERKNS_5TwineEb
libLLVM.so.21.1:_ZN4llvm19InLineChangePrinterD1Ev
libLLVM.so.21.1:_ZN4llvm19MemorySanitizerPass13printPipelineERNS_11raw_ostreamENS_12function_refIFNS_9StringRefES4_EEE
libLLVM.so.21.1:_ZN4llvm19MemorySanitizerPass3runERNS_6ModuleERNS_15AnalysisManagerIS1_JEEE
libLLVM.so.21.1:_ZN4llvm19ThreadSanitizerPass3runERNS_8FunctionERNS_15AnalysisManagerIS1_JEEE
libLLVM.so.21.1:_ZN4llvm20AddressSanitizerPass13printPipelineERNS_11raw_ostreamENS_12function_refIFNS_9StringRefES4_EEE
libLLVM.so.21.1:_ZN4llvm20AddressSanitizerPass3runERNS_6ModuleERNS_15AnalysisManagerIS1_JEEE
libLLVM.so.21.1:_ZN4llvm20AddressSanitizerPassC1ERKNS_23AddressSanitizerOptionsEbbNS_12AsanDtorKindENS_12AsanCtorKindE
libLLVM.so.21.1:_ZN4llvm20DotCfgChangeReporterD1Ev
libLLVM.so.21.1:_ZN4llvm20createPGOFuncNameVarERNS_8FunctionENS_9StringRefE
libLLVM.so.21.1:_ZN4llvm20getAsUnsignedIntegerENS_9StringRefEjRy
libLLVM.so.21.1:_ZN4llvm20getLazyBitcodeModuleENS_15MemoryBufferRefERNS_11LLVMContextEbbNS_15ParserCallbacksE
libLLVM.so.21.1:_ZN4llvm21AnnotationRemarksPass3runERNS_8FunctionERNS_15AnalysisManagerIS1_JEEE
libLLVM.so.21.1:_ZN4llvm21DataFlowSanitizerPass3runERNS_6ModuleERNS_15AnalysisManagerIS1_JEEE
libLLVM.so.21.1:_ZN4llvm21EnableFSDiscriminatorE
libLLVM.so.21.1:_ZN4llvm21PipelineTuningOptionsC1Ev
libLLVM.so.21.1:_ZN4llvm21RealtimeSanitizerPass3runERNS_6ModuleERNS_15AnalysisManagerIS1_JEEE
libLLVM.so.21.1:_ZN4llvm21TargetLibraryAnalysis3KeyE
libLLVM.so.21.1:_ZN4llvm21TargetLibraryAnalysis3runERKNS_8FunctionERNS_15AnalysisManagerIS1_JEEE
libLLVM.so.21.1:_ZN4llvm21TargetLibraryInfoImpl19disableAllFunctionsEv
libLLVM.so.21.1:_ZN4llvm21TargetLibraryInfoImplC1EOS0_
libLLVM.so.21.1:_ZN4llvm21TargetLibraryInfoImplC1ERKNS_6TripleE
libLLVM.so.21.1:_ZN4llvm21TargetLibraryInfoImplC1ERKS0_
libLLVM.so.21.1:_ZN4llvm21logAllUnhandledErrorsENS_5ErrorERNS_11raw_ostreamENS_5TwineE
libLLVM.so.21.1:_ZN4llvm22FilePermissionsApplier5applyENS_9StringRefEbSt8optionalINS_3sys2fs5permsEE
libLLVM.so.21.1:_ZN4llvm22FilePermissionsApplier6createENS_9StringRefE
libLLVM.so.21.1:_ZN4llvm22HWAddressSanitizerPass13printPipelineERNS_11raw_ostreamENS_12function_refIFNS_9StringRefES4_EEE
libLLVM.so.21.1:_ZN4llvm22HWAddressSanitizerPass3runERNS_6ModuleERNS_15AnalysisManagerIS1_JEEE
libLLVM.so.21.1:_ZN4llvm22MemorySanitizerOptionsC1Eibbb
libLLVM.so.21.1:_ZN4llvm22PrintIRInstrumentationD1Ev
libLLVM.so.21.1:_ZN4llvm22getBitcodeTargetTripleB5cxx11ENS_15MemoryBufferRefE
libLLVM.so.21.1:_ZN4llvm22readModuleSummaryIndexENS_15MemoryBufferRefERNS_18ModuleSummaryIndexE
libLLVM.so.21.1:_ZN4llvm22renameModuleForThinLTOERNS_6ModuleERKNS_18ModuleSummaryIndexEbPNS_9SetVectorIPNS_11GlobalValueENS_11SmallVectorIS7_Lj0EEENS_8DenseSetIS7_NS_12DenseMapInfoIS7_vEEEELj0EEE
libLLVM.so.21.1:_ZN4llvm22timeTraceProfilerWriteERNS_17raw_pwrite_streamE
libLLVM.so.21.1:_ZN4llvm23CanonicalizeAliasesPass3runERNS_6ModuleERNS_15AnalysisManagerIS1_JEEE
libLLVM.so.21.1:_ZN4llvm23UpgradeCallsToIntrinsicEPNS_8FunctionE
libLLVM.so.21.1:_ZN4llvm23getInstrProfSectionNameB5cxx11ENS_17InstrProfSectKindENS_6Triple16ObjectFormatTypeEb
libLLVM.so.21.1:_ZN4llvm23thinLTOFinalizeInModuleERNS_6ModuleERKNS_8DenseMapImPNS_18GlobalValueSummaryENS_12DenseMapInfoImvEENS_6detail12DenseMapPairImS4_EEEEb
libLLVM.so.21.1:_ZN4llvm24AssemblyAnnotationWriterD2Ev
libLLVM.so.21.1:_ZN4llvm24ComputeCrossModuleImportERKNS_18ModuleSummaryIndexERKNS_8DenseMapINS_9StringRefENS3_ImPNS_18GlobalValueSummaryENS_12DenseMapInfoImvEENS_6detail12DenseMapPairImS6_EEEENS7_IS4_vEENSA_IS4_SC_EEEENS_12function_refIFbmPKS5_EEERNS_16FunctionImporter13ImportListsTyERNS3_IS4_NS_8DenseSetINS_9ValueInfoENS7_ISR_vEEEESD_NSA_IS4_ST_EEEE
libLLVM.so.21.1:_ZN4llvm24StandardInstrumentations17registerCallbacksERNS_28PassInstrumentationCallbacksEPNS_15AnalysisManagerINS_6ModuleEJEEE
libLLVM.so.21.1:_ZN4llvm24StandardInstrumentationsC1ERNS_11LLVMContextEbbNS_16PrintPassOptionsE
libLLVM.so.21.1:_ZN4llvm24ThinLTOBitcodeWriterPass3runERNS_6ModuleERNS_15AnalysisManagerIS1_JEEE
libLLVM.so.21.1:_ZN4llvm24thinLTOInternalizeModuleERNS_6ModuleERKNS_8DenseMapImPNS_18GlobalValueSummaryENS_12DenseMapInfoImvEENS_6detail12DenseMapPairImS4_EEEE
libLLVM.so.21.1:_ZN4llvm24timeTraceProfilerCleanupEv
libLLVM.so.21.1:_ZN4llvm25ModuleThreadSanitizerPass3runERNS_6ModuleERNS_15AnalysisManagerIS1_JEEE
libLLVM.so.21.1:_ZN4llvm26InstrProfilingLoweringPass3runERNS_6ModuleERNS_15AnalysisManagerIS1_JEEE
libLLVM.so.21.1:_ZN4llvm27ModuleToFunctionPassAdaptor13printPipelineERNS_11raw_ostreamENS_12function_refIFNS_9StringRefES4_EEE
libLLVM.so.21.1:_ZN4llvm27ModuleToFunctionPassAdaptor3runERNS_6ModuleERNS_15AnalysisManagerIS1_JEEE
libLLVM.so.21.1:_ZN4llvm27PrintCrashIRInstrumentationD1Ev
libLLVM.so.21.1:_ZN4llvm27install_fatal_error_handlerEPFvPvPKcbES0_
libLLVM.so.21.1:_ZN4llvm27timeTraceProfilerInitializeEjNS_9StringRefEb
libLLVM.so.21.1:_ZN4llvm28PassInstrumentationCallbacks23getPassNameForClassNameENS_9StringRefE
libLLVM.so.21.1:_ZN4llvm28TargetLibraryInfoWrapperPassC1ERKNS_21TargetLibraryInfoImplE
libLLVM.so.21.1:_ZN4llvm29timeTraceProfilerFinishThreadEv
libLLVM.so.21.1:_ZN4llvm2cl19ExpandResponseFilesERNS_11StringSaverEPFvNS_9StringRefES2_RNS_15SmallVectorImplIPKcEEbES8_
libLLVM.so.21.1:_ZN4llvm2cl19PrintVersionMessageEv
libLLVM.so.21.1:_ZN4llvm2cl22TokenizeGNUCommandLineENS_9StringRefERNS_11StringSaverERNS_15SmallVectorImplIPKcEEb
libLLVM.so.21.1:_ZN4llvm2cl23ParseCommandLineOptionsEiPKPKcNS_9StringRefEPNS_11raw_ostreamES2_b
libLLVM.so.21.1:_ZN4llvm2cl26TokenizeWindowsCommandLineENS_9StringRefERNS_11StringSaverERNS_15SmallVectorImplIPKcEEb
libLLVM.so.21.1:_ZN4llvm31computeDeadSymbolsWithConstPropERNS_18ModuleSummaryIndexERKNS_8DenseSetImNS_12DenseMapInfoImvEEEENS_12function_refIFNS_14PrevailingTypeEmEEEb
libLLVM.so.21.1:_ZN4llvm31install_bad_alloc_error_handlerEPFvPvPKcbES0_
libLLVM.so.21.1:_ZN4llvm31thinLTOResolvePrevailingInIndexERKNS_3lto6ConfigERNS_18ModuleSummaryIndexENS_12function_refIFbmPKNS_18GlobalValueSummaryEEEENS6_IFvNS_9StringRefEmNS_11GlobalValue12LinkageTypesEEEERKNS_8DenseSetImNS_12DenseMapInfoImvEEEE
libLLVM.so.21.1:_ZN4llvm33install_out_of_memory_new_handlerEv
libLLVM.so.21.1:_ZN4llvm35thinLTOInternalizeAndPromoteInIndexERNS_18ModuleSummaryIndexENS_12function_refIFbNS_9StringRefENS_9ValueInfoEEEENS2_IFbmPKNS_18GlobalValueSummaryEEEE
libLLVM.so.21.1:_ZN4llvm3Any6TypeIdIPKNS_13LazyCallGraph3SCCEE2IdE
libLLVM.so.21.1:_ZN4llvm3Any6TypeIdIPKNS_4LoopEE2IdE
libLLVM.so.21.1:_ZN4llvm3Any6TypeIdIPKNS_6ModuleEE2IdE
libLLVM.so.21.1:_ZN4llvm3Any6TypeIdIPKNS_8FunctionEE2IdE
libLLVM.so.21.1:_ZN4llvm3MD55finalERNS0_9MD5ResultE
libLLVM.so.21.1:_ZN4llvm3MD56updateENS_9StringRefE
libLLVM.so.21.1:_ZN4llvm3MD5C1Ev
libLLVM.so.21.1:_ZN4llvm3opt12InputArgList13releaseMemoryEv
libLLVM.so.21.1:_ZN4llvm3opt15GenericOptTableC2ERKNS_11StringTableENS_8ArrayRefINS2_6OffsetEEENS5_INS0_8OptTable4InfoEEEb
libLLVM.so.21.1:_ZN4llvm3opt8OptTableD2Ev
libLLVM.so.21.1:_ZN4llvm3sys14getHostCPUNameEv
libLLVM.so.21.1:_ZN4llvm3sys16getProcessTripleB5cxx11Ev
libLLVM.so.21.1:_ZN4llvm3sys20RunInterruptHandlersEv
libLLVM.so.21.1:_ZN4llvm3sys27DisableSystemDialogsOnCrashEv
libLLVM.so.21.1:_ZN4llvm3sys4path4stemENS_9StringRefENS1_5StyleE
libLLVM.so.21.1:_ZN4llvm3vfs17getRealFileSystemEv
libLLVM.so.21.1:_ZN4llvm4UsernwEmNS0_28IntrusiveOperandsAllocMarkerE
libLLVM.so.21.1:_ZN4llvm4errsEv
libLLVM.so.21.1:_ZN4llvm4outsEv
libLLVM.so.21.1:_ZN4llvm5APIntC1EjNS_8ArrayRefImEE
libLLVM.so.21.1:_ZN4llvm5RegexD1Ev
libLLVM.so.21.1:_ZN4llvm5TimerD1Ev
libLLVM.so.21.1:_ZN4llvm5Value11addMetadataEjRNS_6MDNodeE
libLLVM.so.21.1:_ZN4llvm5crc32ENS_8ArrayRefIhEE
libLLVM.so.21.1:_ZN4llvm6Linker12linkInModuleESt10unique_ptrINS_6ModuleESt14default_deleteIS2_EEjSt8functionIFvRS2_RKNS_9StringSetINS_15MallocAllocatorEEEEE
libLLVM.so.21.1:_ZN4llvm6LinkerC1ERNS_6ModuleE
libLLVM.so.21.1:_ZN4llvm6Module11setPICLevelENS_8PICLevel5LevelE
libLLVM.so.21.1:_ZN4llvm6Module11setPIELevelENS_8PIELevel5LevelE
libLLVM.so.21.1:_ZN4llvm6Module12setCodeModelENS_9CodeModel5ModelE
libLLVM.so.21.1:_ZN4llvm6Module13addModuleFlagENS0_15ModFlagBehaviorENS_9StringRefEPNS_8MetadataE
libLLVM.so.21.1:_ZN4llvm6Module13addModuleFlagENS0_15ModFlagBehaviorENS_9StringRefEj
libLLVM.so.21.1:_ZN4llvm6Module13setDataLayoutERKNS_10DataLayoutE
libLLVM.so.21.1:_ZN4llvm6Module19getOrInsertFunctionENS_9StringRefEPNS_12FunctionTypeE
libLLVM.so.21.1:_ZN4llvm6Module19materializeMetadataEv
libLLVM.so.21.1:_ZN4llvm6ModuleD1Ev
libLLVM.so.21.1:_ZN4llvm6Triple9normalizeB5cxx11ENS_9StringRefENS0_13CanonicalFormE
libLLVM.so.21.1:_ZN4llvm6TripleC1EONSt7__cxx1112basic_stringIcSt11char_traitsIcESaIcEEE
libLLVM.so.21.1:_ZN4llvm6TripleC2EONSt7__cxx1112basic_stringIcSt11char_traitsIcESaIcEEE
libLLVM.so.21.1:_ZN4llvm6legacy11PassManager3runERNS_6ModuleE
libLLVM.so.21.1:_ZN4llvm6object12SymbolicFile14isSymbolicFileENS_10file_magicEPKNS_11LLVMContextE
libLLVM.so.21.1:_ZN4llvm6object12SymbolicFile18createSymbolicFileENS_15MemoryBufferRefENS_10file_magicEPNS_11LLVMContextEb
libLLVM.so.21.1:_ZN4llvm6object12createBinaryENS_9StringRefEPNS_11LLVMContextEb
libLLVM.so.21.1:_ZN4llvm7IRMover17StructTypeKeyInfo11getEmptyKeyEv
libLLVM.so.21.1:_ZN4llvm7IRMover17StructTypeKeyInfo15getTombstoneKeyEv
libLLVM.so.21.1:_ZN4llvm7IRMover17StructTypeKeyInfo7isEqualEPKNS_10StructTypeES4_
libLLVM.so.21.1:_ZN4llvm7codegen20RegisterCodeGenFlagsC1Ev
libLLVM.so.21.1:_ZN4llvm7codegen33InitTargetOptionsFromCodeGenFlagsERKNS_6TripleE
libLLVM.so.21.1:_ZN4llvm7objcopy13NameOrPattern6createENS_9StringRefENS0_10MatchStyleENS_12function_refIFNS_5ErrorES5_EEE
libLLVM.so.21.1:_ZN4llvm7objcopy22executeObjcopyOnBinaryERKNS0_17MultiFormatConfigERNS_6object6BinaryERNS_11raw_ostreamE
libLLVM.so.21.1:_ZN4llvm7objcopy23executeObjcopyOnArchiveERKNS0_17MultiFormatConfigERKNS_6object7ArchiveE
libLLVM.so.21.1:_ZN4llvm7objcopy3elf20executeObjcopyOnIHexERKNS0_12CommonConfigERKNS0_9ELFConfigERNS_12MemoryBufferERNS_11raw_ostreamE
libLLVM.so.21.1:_ZN4llvm7objcopy3elf25executeObjcopyOnRawBinaryERKNS0_12CommonConfigERKNS0_9ELFConfigERNS_12MemoryBufferERNS_11raw_ostreamE
libLLVM.so.21.1:_ZN4llvm7remarks14RemarkStreamerC1ESt10unique_ptrINS0_16RemarkSerializerESt14default_deleteIS3_EESt8optionalINS_9StringRefEE
libLLVM.so.21.1:_ZN4llvm7remarks22createRemarkSerializerENS0_6FormatENS0_14SerializerModeERNS_11raw_ostreamE
libLLVM.so.21.1:_ZN4llvm8Function12removeFnAttrENS_9StringRefE
libLLVM.so.21.1:_ZN4llvm8Function13setSubprogramEPNS_12DISubprogramE
libLLVM.so.21.1:_ZN4llvm8InitLLVMC2ERiRPPKcb
libLLVM.so.21.1:_ZN4llvm8InitLLVMD1Ev
libLLVM.so.21.1:_ZN4llvm8LintPass13printPipelineERNS_11raw_ostreamENS_12function_refIFNS_9StringRefES4_EEE
libLLVM.so.21.1:_ZN4llvm8LintPass3runERNS_8FunctionERNS_15AnalysisManagerIS1_JEEE
libLLVM.so.21.1:_ZN4llvm8MDString3getERNS_11LLVMContextENS_9StringRefE
libLLVM.so.21.1:_ZN4llvm8coverage21CoverageMappingWriter5writeERNS_11raw_ostreamE
libLLVM.so.21.1:_ZN4llvm8coverage30CoverageFilenamesSectionWriter5writeERNS_11raw_ostreamEb
libLLVM.so.21.1:_ZN4llvm8coverage30CoverageFilenamesSectionWriterC1ENS_8ArrayRefINSt7__cxx1112basic_stringIcSt11char_traitsIcESaIcEEEEE
libLLVM.so.21.1:_ZN4llvm8toStringB5cxx11ENS_5ErrorE
libLLVM.so.21.1:_ZN4llvm9AAManager3KeyE
libLLVM.so.21.1:_ZN4llvm9AAManager3runERNS_8FunctionERNS_15AnalysisManagerIS1_JEEE
libLLVM.so.21.1:_ZN4llvm9AAResults10invalidateERNS_8FunctionERKNS_17PreservedAnalysesERNS_15AnalysisManagerIS1_JEE11InvalidatorE
libLLVM.so.21.1:_ZN4llvm9AAResultsC1EOS0_
libLLVM.so.21.1:_ZN4llvm9AAResultsD1Ev
libLLVM.so.21.1:_ZN4llvm9Attribute16getWithAlignmentERNS_11LLVMContextENS_5AlignE
libLLVM.so.21.1:_ZN4llvm9Attribute16getWithByValTypeERNS_11LLVMContextEPNS_4TypeE
libLLVM.so.21.1:_ZN4llvm9Attribute18getWithCaptureInfoERNS_11LLVMContextENS_11CaptureInfoE
libLLVM.so.21.1:_ZN4llvm9Attribute18getWithUWTableKindERNS_11LLVMContextENS_11UWTableKindE
libLLVM.so.21.1:_ZN4llvm9Attribute20getWithAllocSizeArgsERNS_11LLVMContextEjRKSt8optionalIjE
libLLVM.so.21.1:_ZN4llvm9Attribute20getWithMemoryEffectsERNS_11LLVMContextENS_17MemoryEffectsBaseINS_13IRMemLocationEEE
libLLVM.so.21.1:_ZN4llvm9Attribute20getWithStructRetTypeERNS_11LLVMContextEPNS_4TypeE
libLLVM.so.21.1:_ZN4llvm9Attribute27getWithDereferenceableBytesERNS_11LLVMContextEm
libLLVM.so.21.1:_ZN4llvm9Attribute33getWithDereferenceableOrNullBytesERNS_11LLVMContextEm
libLLVM.so.21.1:_ZN4llvm9Attribute3getERNS_11LLVMContextENS0_8AttrKindEPNS_4TypeE
libLLVM.so.21.1:_ZN4llvm9Attribute3getERNS_11LLVMContextENS0_8AttrKindEm
libLLVM.so.21.1:_ZN4llvm9DIBuilder10createFileENS_9StringRefES1_St8optionalINS_6DIFile12ChecksumInfoIS1_EEES2_IS1_E
libLLVM.so.21.1:_ZN4llvm9DIBuilder12createMethodEPNS_7DIScopeENS_9StringRefES3_PNS_6DIFileEjPNS_16DISubroutineTypeEjiPNS_6DITypeENS_6DINode7DIFlagsENS_12DISubprogram9DISPFlagsENS_24MDTupleTypedArrayWrapperINS_19DITemplateParameterEEENSE_IS8_EEb
libLLVM.so.21.1:_ZN4llvm9DIBuilder13replaceArraysERPNS_15DICompositeTypeENS_24MDTupleTypedArrayWrapperINS_6DINodeEEES6_
libLLVM.so.21.1:_ZN4llvm9DIBuilder14createFunctionEPNS_7DIScopeENS_9StringRefES3_PNS_6DIFileEjPNS_16DISubroutineTypeEjNS_6DINode7DIFlagsENS_12DISubprogram9DISPFlagsENS_24MDTupleTypedArrayWrapperINS_19DITemplateParameterEEEPSA_NSC_INS_6DITypeEEENSC_IS8_EES3_b
libLLVM.so.21.1:_ZN4llvm9DIBuilder16createEnumeratorENS_9StringRefERKNS_6APSIntE
libLLVM.so.21.1:_ZN4llvm9DIBuilder17createCompileUnitEjPNS_6DIFileENS_9StringRefEbS3_jS3_NS_13DICompileUnit17DebugEmissionKindEmbbNS4_18DebugNameTableKindEbS3_S3_
libLLVM.so.21.1:_ZN4llvm9DIBuilder17createVariantPartEPNS_7DIScopeENS_9StringRefEPNS_6DIFileEjmjNS_6DINode7DIFlagsEPNS_13DIDerivedTypeENS_24MDTupleTypedArrayWrapperIS6_EES3_
libLLVM.so.21.1:_ZN4llvm9DIBuilder21createEnumerationTypeEPNS_7DIScopeENS_9StringRefEPNS_6DIFileEjmjNS_24MDTupleTypedArrayWrapperINS_6DINodeEEEPNS_6DITypeEjS3_bSt8optionalIjE
libLLVM.so.21.1:_ZN4llvm9DIBuilder23createVariantMemberTypeEPNS_7DIScopeENS_9StringRefEPNS_6DIFileEjmjmPNS_8ConstantENS_6DINode7DIFlagsEPNS_6DITypeE
libLLVM.so.21.1:_ZN4llvm9DIBuilder27createTemplateTypeParameterEPNS_7DIScopeENS_9StringRefEPNS_6DITypeEb
libLLVM.so.21.1:_ZN4llvm9ErrorList2IDE
libLLVM.so.21.1:_ZN4llvm9InlineAsm6verifyEPNS_12FunctionTypeENS_9StringRefE
libLLVM.so.21.1:_ZN4llvm9WithColor5errorERNS_11raw_ostreamENS_9StringRefEb
libLLVM.so.21.1:_ZN4llvm9WithColor7warningERNS_11raw_ostreamENS_9StringRefEb
libLLVM.so.21.1:_ZNK4llvm10BasicBlock19getFirstInsertionPtEv
libLLVM.so.21.1:_ZNK4llvm10BasicBlock27getFirstNonPHIOrDbgOrAllocaEv
libLLVM.so.21.1:_ZNK4llvm11GlobalValue20getSanitizerMetadataEv
libLLVM.so.21.1:_ZNK4llvm11Instruction17getStableDebugLocEv
libLLVM.so.21.1:_ZNK4llvm11raw_ostream21preferred_buffer_sizeEv
libLLVM.so.21.1:_ZNK4llvm12MemoryBuffer15getMemBufferRefEv
libLLVM.so.21.1:_ZNK4llvm13AttributeList20addAttributesAtIndexERNS_11LLVMContextEjRKNS_11AttrBuilderE
libLLVM.so.21.1:_ZNK4llvm13StringMapImpl7FindKeyENS_9StringRefEj
libLLVM.so.21.1:_ZNK4llvm13TargetMachine18getRelocationModelEv
libLLVM.so.21.1:_ZNK4llvm15MCSubtargetInfo13checkFeaturesENS_9StringRefE
libLLVM.so.21.1:_ZNK4llvm18DiagnosticLocation15getAbsolutePathB5cxx11Ev
libLLVM.so.21.1:_ZNK4llvm30DiagnosticInfoOptimizationBase6getMsgB5cxx11Ev
libLLVM.so.21.1:_ZNK4llvm3opt3Arg11getAsStringB5cxx11ERKNS0_7ArgListE
libLLVM.so.21.1:_ZNK4llvm3opt6Option7matchesENS0_12OptSpecifierE
libLLVM.so.21.1:_ZNK4llvm3opt7ArgList15getLastArgValueENS0_12OptSpecifierENS_9StringRefE
libLLVM.so.21.1:_ZNK4llvm3opt7ArgList7hasFlagENS0_12OptSpecifierES2_b
libLLVM.so.21.1:_ZNK4llvm3opt7ArgList8getRangeESt16initializer_listINS0_12OptSpecifierEE
libLLVM.so.21.1:_ZNK4llvm3opt8OptTable9ParseArgsENS_8ArrayRefIPKcEERjS6_NS0_10VisibilityE
libLLVM.so.21.1:_ZNK4llvm3opt8OptTable9printHelpERNS_11raw_ostreamEPKcS5_bbNS0_10VisibilityE
libLLVM.so.21.1:_ZNK4llvm4Type5printERNS_11raw_ostreamEbb
libLLVM.so.21.1:_ZNK4llvm5APInt4sextEj
libLLVM.so.21.1:_ZNK4llvm5APInt4zextEj
libLLVM.so.21.1:_ZNK4llvm5APInt9getHiBitsEj
libLLVM.so.21.1:_ZNK4llvm5APInt9getLoBitsEj
libLLVM.so.21.1:_ZNK4llvm5Twine3strB5cxx11Ev
libLLVM.so.21.1:_ZNK4llvm5Twine5printERNS_11raw_ostreamE
libLLVM.so.21.1:_ZNK4llvm5Value10getContextEv
libLLVM.so.21.1:_ZNK4llvm5Value5printERNS_11raw_ostreamEb
libLLVM.so.21.1:_ZNK4llvm5Value7getNameEv
libLLVM.so.21.1:_ZNK4llvm6Module11getPIELevelEv
libLLVM.so.21.1:_ZNK4llvm6Module13getNamedValueENS_9StringRefE
libLLVM.so.21.1:_ZNK4llvm6Module16getNamedMetadataENS_9StringRefE
libLLVM.so.21.1:_ZNK4llvm6Module17getGlobalVariableENS_9StringRefEb
libLLVM.so.21.1:_ZNK4llvm6Module19getInstructionCountEv
libLLVM.so.21.1:_ZNK4llvm6Module5printERNS_11raw_ostreamEPNS_24AssemblyAnnotationWriterEbb
libLLVM.so.21.1:_ZNK4llvm6object6Binary18getMemoryBufferRefEv
libLLVM.so.21.1:_ZNK4llvm7Mangler17getNameWithPrefixERNS_11raw_ostreamEPKNS_11GlobalValueEb
libLLVM.so.21.1:_ZNK4llvm8CallBase14getIntrinsicIDEv
libLLVM.so.21.1:_ZNK4llvm8Function10getContextEv
libLLVM.so.21.1:_ZNK4llvm8Function14hasFnAttributeENS_9StringRefE
libLLVM.so.21.1:_ZNK4llvm9SourceMgr23FindBufferContainingLocENS_5SMLocE
libLLVM.so.21.1:_ZNK4llvm9StringRef12find_last_ofES0_m
libLLVM.so.21.1:_ZNK4llvm9StringRef16find_last_not_ofES0_m
libLLVM.so.21.1:_ZNK4llvm9StringRef17find_first_not_ofES0_m
libLLVM.so.21.1:_ZNK4llvm9StringRef17rfind_insensitiveES0_
libLLVM.so.21.1:_ZNK4llvm9StringRef19compare_insensitiveES0_
libLLVM.so.21.1:_ZNK4llvm9StringRef23starts_with_insensitiveES0_
libLLVM.so.21.1:_ZNK4llvm9StringRef4findES0_m
libLLVM.so.21.1:_ZNK4llvm9StringRef5lowerB5cxx11Ev
libLLVM.so.21.1:_ZNK4llvm9StringRef5splitERNS_15SmallVectorImplIS0_EEcib
libLLVM.so.21.1:_ZTIN4llvm11raw_ostreamE
libLLVM.so.21.1:_ZTIN4llvm17DiagnosticHandlerE
libLLVM.so.21.1:_ZTIN4llvm18format_object_baseE
libLLVM.so.21.1:_ZTIN4llvm24AssemblyAnnotationWriterE
libLLVM.so.21.1:_ZTIN4llvm3opt8OptTableE
libLLVM.so.21.1:_ZTVN4llvm14buffer_ostreamE
libLLVM.so.21.1:_ZTVN4llvm18raw_string_ostreamE
libLLVM.so.21.1:_ZTVN4llvm19raw_svector_ostreamE
libLLVM.so.21.1:_ZTVN4llvm21formatted_raw_ostreamE
libLLVM.so.21.1:_ZTVN4llvm27DiagnosticPrinterRawOStreamE
libLLVM.so.21.1:_ZTVN4llvm7objcopy13ConfigManagerE
libLLVM.so.21.1:_ZTVN4llvm9ErrorListE
libLLVM.so.21.1:_ZTVN4llvm9FileErrorE
libc.so.6:__cxa_atexit
libc.so.6:__errno_location
libc.so.6:__libc_single_threaded
libc.so.6:__libc_start_main
libc.so.6:__register_atfork
libc.so.6:__res_init
libc.so.6:__stack_chk_fail
libc.so.6:__xpg_strerror_r
libc.so.6:_exit
libc.so.6:abort
libc.so.6:accept4
libc.so.6:alarm
libc.so.6:backtrace
libc.so.6:backtrace_symbols_fd
libc.so.6:bcmp
libc.so.6:bind
libc.so.6:calloc
libc.so.6:chdir
libc.so.6:chmod
libc.so.6:chown
libc.so.6:chroot
libc.so.6:clock_gettime
libc.so.6:clock_nanosleep
libc.so.6:close
libc.so.6:closedir
libc.so.6:connect
libc.so.6:daemon
libc.so.6:dirfd
libc.so.6:dl_iterate_phdr
libc.so.6:dladdr
libc.so.6:dlclose
libc.so.6:dlerror
libc.so.6:dlopen
libc.so.6:dlsym
libc.so.6:dup
libc.so.6:dup2
libc.so.6:environ
libc.so.6:epoll_create1
libc.so.6:epoll_ctl
libc.so.6:epoll_wait
libc.so.6:eventfd
libc.so.6:execvp
libc.so.6:exit
libc.so.6:fchmod
libc.so.6:fchown
libc.so.6:fcntl
libc.so.6:fdatasync
libc.so.6:fdopendir
libc.so.6:flock
libc.so.6:fork
libc.so.6:free
libc.so.6:freeaddrinfo
libc.so.6:fstat
libc.so.6:fstat64
libc.so.6:fstatat64
libc.so.6:fsync
libc.so.6:ftruncate64
libc.so.6:futimens
libc.so.6:futimes
libc.so.6:gai_strerror
libc.so.6:getaddrinfo
libc.so.6:getauxval
libc.so.6:getcwd
libc.so.6:getenv
libc.so.6:geteuid
libc.so.6:gethostname
libc.so.6:getpeername
libc.so.6:getpid
libc.so.6:getppid
libc.so.6:getpwnam
libc.so.6:getpwuid_r
libc.so.6:getsockname
libc.so.6:getsockopt
libc.so.6:getuid
libc.so.6:gnu_get_libc_version
libc.so.6:inotify_add_watch
libc.so.6:inotify_init1
libc.so.6:inotify_rm_watch
libc.so.6:ioctl
libc.so.6:isatty
libc.so.6:kill
libc.so.6:killpg
libc.so.6:lchown
libc.so.6:linkat
libc.so.6:listen
libc.so.6:localtime_r
libc.so.6:lseek64
libc.so.6:lstat64
libc.so.6:lutimes
libc.so.6:mallinfo
libc.so.6:malloc
libc.so.6:memchr
libc.so.6:memcmp
libc.so.6:memcpy
libc.so.6:memmove
libc.so.6:memset
libc.so.6:mkdir
libc.so.6:mkfifo
libc.so.6:mmap
libc.so.6:mmap64
libc.so.6:mprotect
libc.so.6:msync
libc.so.6:munmap
libc.so.6:nanosleep
libc.so.6:open
libc.so.6:open64
libc.so.6:openat64
libc.so.6:opendir
libc.so.6:pause
libc.so.6:pipe
libc.so.6:pipe2
libc.so.6:poll
libc.so.6:posix_memalign
libc.so.6:posix_spawn_file_actions_addclose
libc.so.6:posix_spawn_file_actions_adddup2
libc.so.6:posix_spawn_file_actions_destroy
libc.so.6:posix_spawn_file_actions_init
libc.so.6:posix_spawnattr_destroy
libc.so.6:posix_spawnattr_getflags
libc.so.6:posix_spawnattr_getpgroup
libc.so.6:posix_spawnattr_getsigdefault
libc.so.6:posix_spawnattr_getsigmask
libc.so.6:posix_spawnattr_init
libc.so.6:posix_spawnattr_setflags
libc.so.6:posix_spawnattr_setpgroup
libc.so.6:posix_spawnattr_setsigdefault
libc.so.6:posix_spawnattr_setsigmask
libc.so.6:posix_spawnp
libc.so.6:prctl
libc.so.6:pread64
libc.so.6:preadv
libc.so.6:pthread_attr_destroy
libc.so.6:pthread_attr_getguardsize
libc.so.6:pthread_attr_getstack
libc.so.6:pthread_attr_init
libc.so.6:pthread_attr_setstacksize
libc.so.6:pthread_create
libc.so.6:pthread_detach
libc.so.6:pthread_getattr_np
libc.so.6:pthread_join
libc.so.6:pthread_key_create
libc.so.6:pthread_key_delete
libc.so.6:pthread_kill
libc.so.6:pthread_mutex_lock
libc.so.6:pthread_mutex_unlock
libc.so.6:pthread_self
libc.so.6:pthread_setname_np
libc.so.6:pthread_setspecific
libc.so.6:pthread_sigmask
libc.so.6:pwrite64
libc.so.6:pwritev
libc.so.6:raise
libc.so.6:read
libc.so.6:readdir64
libc.so.6:readlink
libc.so.6:readv
libc.so.6:realloc
libc.so.6:realpath
libc.so.6:recv
libc.so.6:recvfrom
libc.so.6:recvmsg
libc.so.6:rename
libc.so.6:rmdir
libc.so.6:sched_getaffinity
libc.so.6:sched_yield
libc.so.6:sem_init
libc.so.6:sem_post
libc.so.6:sem_wait
libc.so.6:send
libc.so.6:sendfile64
libc.so.6:sendmsg
libc.so.6:sendto
libc.so.6:setenv
libc.so.6:setgid
libc.so.6:setgroups
libc.so.6:setpgid
libc.so.6:setsid
libc.so.6:setsockopt
libc.so.6:setuid
libc.so.6:shutdown
libc.so.6:sigaction
libc.so.6:sigaddset
libc.so.6:sigaltstack
libc.so.6:sigdelset
libc.so.6:sigemptyset
libc.so.6:sigfillset
libc.so.6:sigismember
libc.so.6:signal
libc.so.6:signalfd
libc.so.6:sigprocmask
libc.so.6:sigsuspend
libc.so.6:sigwait
libc.so.6:snprintf
libc.so.6:socket
libc.so.6:socketpair
libc.so.6:splice
libc.so.6:stat64
libc.so.6:statfs
libc.so.6:strcmp
libc.so.6:strdup
libc.so.6:strlen
libc.so.6:strnlen
libc.so.6:symlink
libc.so.6:syscall
libc.so.6:sysconf
libc.so.6:sysinfo
libc.so.6:umask
libc.so.6:uname
libc.so.6:unlink
libc.so.6:unlinkat
libc.so.6:unsetenv
libc.so.6:utimensat
libc.so.6:utimes
libc.so.6:waitid
libc.so.6:waitpid
libc.so.6:write
libc.so.6:writev
libcurl.so.4:curl_easy_cleanup
libcurl.so.4:curl_easy_getinfo
libcurl.so.4:curl_easy_init
libcurl.so.4:curl_easy_perform
libcurl.so.4:curl_easy_reset
libcurl.so.4:curl_easy_setopt
libcurl.so.4:curl_easy_strerror
libcurl.so.4:curl_formfree
libcurl.so.4:curl_global_init
libcurl.so.4:curl_multi_add_handle
libcurl.so.4:curl_multi_cleanup
libcurl.so.4:curl_multi_info_read
libcurl.so.4:curl_multi_init
libcurl.so.4:curl_multi_perform
libcurl.so.4:curl_multi_remove_handle
libcurl.so.4:curl_multi_setopt
libcurl.so.4:curl_multi_strerror
libcurl.so.4:curl_multi_timeout
libcurl.so.4:curl_multi_wait
libcurl.so.4:curl_slist_append
libcurl.so.4:curl_slist_free_all
libcurl.so.4:curl_version_info
libgcc_s.so.1:_Unwind_Backtrace
libgcc_s.so.1:_Unwind_DeleteException
libgcc_s.so.1:_Unwind_FindEnclosingFunction
libgcc_s.so.1:_Unwind_GetCFA
libgcc_s.so.1:_Unwind_GetDataRelBase
libgcc_s.so.1:_Unwind_GetIP
libgcc_s.so.1:_Unwind_GetIPInfo
libgcc_s.so.1:_Unwind_GetLanguageSpecificData
libgcc_s.so.1:_Unwind_GetRegionStart
libgcc_s.so.1:_Unwind_GetTextRelBase
libgcc_s.so.1:_Unwind_RaiseException
libgcc_s.so.1:_Unwind_Resume
libgcc_s.so.1:_Unwind_SetGR
libgcc_s.so.1:_Unwind_SetIP
libgit2.so.1.9:git_blob_rawcontent
libgit2.so.1.9:git_blob_rawsize
libgit2.so.1.9:git_branch_lookup
libgit2.so.1.9:git_buf_dispose
libgit2.so.1.9:git_checkout_init_options
libgit2.so.1.9:git_clone
libgit2.so.1.9:git_clone_init_options
libgit2.so.1.9:git_commit_free
libgit2.so.1.9:git_commit_lookup
libgit2.so.1.9:git_commit_tree
libgit2.so.1.9:git_config_free
libgit2.so.1.9:git_config_get_bool
libgit2.so.1.9:git_config_get_string_buf
libgit2.so.1.9:git_config_new
libgit2.so.1.9:git_config_open_default
libgit2.so.1.9:git_config_set_bool
libgit2.so.1.9:git_cred_default_new
libgit2.so.1.9:git_cred_ssh_key_from_agent
libgit2.so.1.9:git_cred_username_new
libgit2.so.1.9:git_cred_userpass_plaintext_new
libgit2.so.1.9:git_error_clear
libgit2.so.1.9:git_error_last
libgit2.so.1.9:git_error_set_str
libgit2.so.1.9:git_ignore_path_is_ignored
libgit2.so.1.9:git_libgit2_features
libgit2.so.1.9:git_libgit2_init
libgit2.so.1.9:git_libgit2_opts
libgit2.so.1.9:git_libgit2_version
libgit2.so.1.9:git_object_free
libgit2.so.1.9:git_object_id
libgit2.so.1.9:git_object_lookup
libgit2.so.1.9:git_object_peel
libgit2.so.1.9:git_object_short_id
libgit2.so.1.9:git_object_type
libgit2.so.1.9:git_oid_equal
libgit2.so.1.9:git_oid_fromstrn
libgit2.so.1.9:git_oid_tostr
libgit2.so.1.9:git_reference_free
libgit2.so.1.9:git_reference_name_to_id
libgit2.so.1.9:git_reference_target
libgit2.so.1.9:git_remote_create_anonymous
libgit2.so.1.9:git_remote_fetch
libgit2.so.1.9:git_remote_free
libgit2.so.1.9:git_remote_init_callbacks
libgit2.so.1.9:git_repository_config
libgit2.so.1.9:git_repository_discover
libgit2.so.1.9:git_repository_free
libgit2.so.1.9:git_repository_head
libgit2.so.1.9:git_repository_init_ext
libgit2.so.1.9:git_repository_init_init_options
libgit2.so.1.9:git_repository_is_shallow
libgit2.so.1.9:git_repository_open
libgit2.so.1.9:git_repository_path
libgit2.so.1.9:git_repository_workdir
libgit2.so.1.9:git_reset
libgit2.so.1.9:git_revparse_single
libgit2.so.1.9:git_status_byindex
libgit2.so.1.9:git_status_init_options
libgit2.so.1.9:git_status_list_entrycount
libgit2.so.1.9:git_status_list_free
libgit2.so.1.9:git_status_list_new
libgit2.so.1.9:git_submodule_foreach
libgit2.so.1.9:git_submodule_free
libgit2.so.1.9:git_submodule_head_id
libgit2.so.1.9:git_submodule_init
libgit2.so.1.9:git_submodule_lookup
libgit2.so.1.9:git_submodule_name
libgit2.so.1.9:git_submodule_open
libgit2.so.1.9:git_submodule_path
libgit2.so.1.9:git_submodule_update_strategy
libgit2.so.1.9:git_submodule_url
libgit2.so.1.9:git_tag_target_id
libgit2.so.1.9:git_transport_register
libgit2.so.1.9:git_transport_smart
libgit2.so.1.9:git_tree_entry_bypath
libgit2.so.1.9:git_tree_entry_free
libgit2.so.1.9:git_tree_entry_id
libgit2.so.1.9:git_tree_entry_to_object
libgit2.so.1.9:git_tree_free
libm.so.6:cos
libm.so.6:cosf
libm.so.6:exp
libm.so.6:exp2
libm.so.6:exp2f
libm.so.6:expf
libm.so.6:log
libm.so.6:log10
libm.so.6:log10f
libm.so.6:log2
libm.so.6:log2f
libm.so.6:logf
libm.so.6:pow
libm.so.6:powf
libm.so.6:sin
libm.so.6:sinf
libsqlite3.so.0:sqlite3_bind_blob64
libsqlite3.so.0:sqlite3_bind_double
libsqlite3.so.0:sqlite3_bind_int64
libsqlite3.so.0:sqlite3_bind_null
libsqlite3.so.0:sqlite3_bind_parameter_count
libsqlite3.so.0:sqlite3_bind_text64
libsqlite3.so.0:sqlite3_bind_zeroblob
libsqlite3.so.0:sqlite3_busy_timeout
libsqlite3.so.0:sqlite3_changes
libsqlite3.so.0:sqlite3_clear_bindings
libsqlite3.so.0:sqlite3_close
libsqlite3.so.0:sqlite3_column_blob
libsqlite3.so.0:sqlite3_column_bytes
libsqlite3.so.0:sqlite3_column_count
libsqlite3.so.0:sqlite3_column_double
libsqlite3.so.0:sqlite3_column_int64
libsqlite3.so.0:sqlite3_column_name
libsqlite3.so.0:sqlite3_column_text
libsqlite3.so.0:sqlite3_column_type
libsqlite3.so.0:sqlite3_errcode
libsqlite3.so.0:sqlite3_errmsg
libsqlite3.so.0:sqlite3_errstr
libsqlite3.so.0:sqlite3_extended_result_codes
libsqlite3.so.0:sqlite3_finalize
libsqlite3.so.0:sqlite3_get_autocommit
libsqlite3.so.0:sqlite3_libversion_number
libsqlite3.so.0:sqlite3_mutex_alloc
libsqlite3.so.0:sqlite3_mutex_free
libsqlite3.so.0:sqlite3_open_v2
libsqlite3.so.0:sqlite3_prepare_v3
libsqlite3.so.0:sqlite3_reset
libsqlite3.so.0:sqlite3_step
libsqlite3.so.0:sqlite3_threadsafe
libssh2.so.1:libssh2_exit
libssh2.so.1:libssh2_init
libssl.so.3:OPENSSL_init_ssl
libstdc++.so.6:_ZNSt3_V215system_categoryEv
libstdc++.so.6:_ZNSt3_V216generic_categoryEv
libstdc++.so.6:_ZNSt7__cxx1112basic_stringIcSt11char_traitsIcESaIcEE10_M_replaceEmmPKcm
libstdc++.so.6:_ZNSt7__cxx1112basic_stringIcSt11char_traitsIcESaIcEE7reserveEm
libstdc++.so.6:_ZNSt7__cxx1112basic_stringIcSt11char_traitsIcESaIcEE9_M_appendEPKcm
libstdc++.so.6:_ZNSt7__cxx1112basic_stringIcSt11char_traitsIcESaIcEE9_M_createERmm
libstdc++.so.6:_ZNSt7__cxx1112basic_stringIcSt11char_traitsIcESaIcEED2Ev
libstdc++.so.6:_ZNSt7__cxx1112basic_stringIcSt11char_traitsIcESaIcEEaSEOS4_
libstdc++.so.6:_ZSt18_Rb_tree_decrementPSt18_Rb_tree_node_base
libstdc++.so.6:_ZSt18_Rb_tree_incrementPSt18_Rb_tree_node_base
libstdc++.so.6:_ZSt19__throw_logic_errorPKc
libstdc++.so.6:_ZSt20__throw_length_errorPKc
libstdc++.so.6:_ZSt25__throw_bad_function_callv
libstdc++.so.6:_ZSt29_Rb_tree_insert_and_rebalancebPSt18_Rb_tree_node_baseS0_RS_
libstdc++.so.6:_ZSt4cerr
libstdc++.so.6:_ZSt4endlIcSt11char_traitsIcEERSt13basic_ostreamIT_T0_ES6_
libstdc++.so.6:_ZStlsISt11char_traitsIcEERSt13basic_ostreamIcT_ES5_PKc
libstdc++.so.6:_ZTVN10__cxxabiv117__class_type_infoE
libstdc++.so.6:_ZTVN10__cxxabiv119__pointer_type_infoE
libstdc++.so.6:_ZTVN10__cxxabiv120__function_type_infoE
libstdc++.so.6:_ZTVN10__cxxabiv120__si_class_type_infoE
libstdc++.so.6:_ZdaPv
libstdc++.so.6:_ZdlPvm
libstdc++.so.6:_Znam
libstdc++.so.6:_Znwm
libstdc++.so.6:__cxa_pure_virtual
