libstd-c2e64df9465a3b60.so:_RINvMNtCsb9yGazm0UdS_4core3stre18trim_start_matchesReECsiNDExn1lzIo_14rustc_demangle
libstd-c2e64df9465a3b60.so:_RINvMNtCsb9yGazm0UdS_4core5sliceSh11copy_withinINtNtNtB5_3ops5range14RangeInclusivejEECs4I7onBBY15v_11miniz_oxide
libstd-c2e64df9465a3b60.so:_RINvMNtCsb9yGazm0UdS_4core6optionINtB3_6OptionRINtNtB5_4cell4CellhEE3zipBI_ECs4I7onBBY15v_11miniz_oxide
libstd-c2e64df9465a3b60.so:_RINvMNtCsb9yGazm0UdS_4core6optionINtB3_6OptionTRINtNtB5_4cell4CellhEBJ_EE3zipBJ_ECs4I7onBBY15v_11miniz_oxide
libstd-c2e64df9465a3b60.so:_RINvMs0_NtNtNtCseSYdJn4aADg_5alloc11collections5btree6searchINtNtB8_4node7NodeRefNtNtBZ_6marker3MutyNtNtNtCs1N8gx4w2hz2_5gimli4read6abbrev12AbbreviationNtB1j_14LeafOrInternalE14find_key_indexyEB1G_
libstd-c2e64df9465a3b60.so:_RINvMs0_NtNtNtCseSYdJn4aADg_5alloc11collections5btree6searchINtNtB8_4node7NodeRefNtNtBZ_6marker5ImmutyNtNtNtCs1N8gx4w2hz2_5gimli4read6abbrev12AbbreviationNtB1j_14LeafOrInternalE14find_key_indexyEB1I_
libstd-c2e64df9465a3b60.so:_RINvMs5_NtNtCsb9yGazm0UdS_4core3fmt8buildersNtB6_9DebugList7entriesRNtNtNtCs1N8gx4w2hz2_5gimli4read6abbrev22AttributeSpecificationINtNtNtBa_5slice4iter4IterB14_EEB1a_
libstd-c2e64df9465a3b60.so:_RINvMs5_NtNtCsb9yGazm0UdS_4core3fmt8buildersNtB6_9DebugList7entriesRhINtNtNtBa_5slice4iter4IterhEECsiNDExn1lzIo_14rustc_demangle
libstd-c2e64df9465a3b60.so:_RINvMs5_NtNtCsjAaqe0woR93_3std2io5errorNtB6_5Error3newNtNtNtCsb9yGazm0UdS_4core3num5error15TryFromIntErrorEBa_
libstd-c2e64df9465a3b60.so:_RINvMs5_NtNtCsjAaqe0woR93_3std2io5errorNtB6_5Error3newReEBa_
libstd-c2e64df9465a3b60.so:_RINvMs8_NtNtNtCseSYdJn4aADg_5alloc11collections5btree4nodeINtB6_7NodeRefNtNtB6_6marker5OwnedyNtNtNtCs1N8gx4w2hz2_5gimli4read6abbrev12AbbreviationNtB1a_4LeafE13from_new_leafNtNtBc_5alloc6GlobalEB1z_
libstd-c2e64df9465a3b60.so:_RINvMs8_NtNtNtCseSYdJn4aADg_5alloc11collections5btree4nodeINtB6_7NodeRefNtNtB6_6marker5OwnedyNtNtNtCs1N8gx4w2hz2_5gimli4read6abbrev12AbbreviationNtB1a_4LeafE8new_leafNtNtBc_5alloc6GlobalEB1z_
libstd-c2e64df9465a3b60.so:_RINvMs9_NtNtNtCseSYdJn4aADg_5alloc11collections5btree4nodeINtB6_7NodeRefNtNtB6_6marker5OwnedyNtNtNtCs1N8gx4w2hz2_5gimli4read6abbrev12AbbreviationNtB1a_8InternalE12new_internalNtNtBc_5alloc6GlobalEB1z_
libstd-c2e64df9465a3b60.so:_RINvMs9_NtNtNtCseSYdJn4aADg_5alloc11collections5btree4nodeINtB6_7NodeRefNtNtB6_6marker5OwnedyNtNtNtCs1N8gx4w2hz2_5gimli4read6abbrev12AbbreviationNtB1a_8InternalE17from_new_internalNtNtBc_5alloc6GlobalEB1z_
libstd-c2e64df9465a3b60.so:_RINvMsK_NtNtNtCseSYdJn4aADg_5alloc11collections5btree4nodeINtB6_6HandleINtB6_7NodeRefNtNtB6_6marker3MutyNtNtNtCs1N8gx4w2hz2_5gimli4read6abbrev12AbbreviationNtB1n_4LeafENtB1n_4EdgeE6insertNtNtBc_5alloc6GlobalEB1K_
libstd-c2e64df9465a3b60.so:_RINvMsM_NtNtNtCseSYdJn4aADg_5alloc11collections5btree4nodeINtB6_6HandleINtB6_7NodeRefNtNtB6_6marker3MutyNtNtNtCs1N8gx4w2hz2_5gimli4read6abbrev12AbbreviationNtB1n_8InternalENtB1n_4EdgeE6insertNtNtBc_5alloc6GlobalEB1K_
libstd-c2e64df9465a3b60.so:_RINvMsN_NtNtNtCseSYdJn4aADg_5alloc11collections5btree4nodeINtB6_6HandleINtB6_7NodeRefNtNtB6_6marker3MutyNtNtNtCs1N8gx4w2hz2_5gimli4read6abbrev12AbbreviationNtB1n_4LeafENtB1n_4EdgeE16insert_recursingNtNtBc_5alloc6GlobalNCNvMs6_NtNtB8_3map5entryINtB3C_11VacantEntryyB1E_E12insert_entry0EB1K_
libstd-c2e64df9465a3b60.so:_RINvMsV_NtNtNtCseSYdJn4aADg_5alloc11collections5btree4nodeINtB6_6HandleINtB6_7NodeRefNtNtB6_6marker3MutyNtNtNtCs1N8gx4w2hz2_5gimli4read6abbrev12AbbreviationNtB1n_4LeafENtB1n_2KVE5splitNtNtBc_5alloc6GlobalEB1K_
libstd-c2e64df9465a3b60.so:_RINvMsW_NtNtNtCseSYdJn4aADg_5alloc11collections5btree4nodeINtB6_6HandleINtB6_7NodeRefNtNtB6_6marker3MutyNtNtNtCs1N8gx4w2hz2_5gimli4read6abbrev12AbbreviationNtB1n_8InternalENtB1n_2KVE5splitNtNtBc_5alloc6GlobalEB1K_
libstd-c2e64df9465a3b60.so:_RINvMs_NtNtNtCseSYdJn4aADg_5alloc11collections5btree6searchINtNtB7_4node7NodeRefNtNtBY_6marker3MutyNtNtNtCs1N8gx4w2hz2_5gimli4read6abbrev12AbbreviationNtB1i_14LeafOrInternalE11search_treeyEB1F_
libstd-c2e64df9465a3b60.so:_RINvMs_NtNtNtCseSYdJn4aADg_5alloc11collections5btree6searchINtNtB7_4node7NodeRefNtNtBY_6marker5ImmutyNtNtNtCs1N8gx4w2hz2_5gimli4read6abbrev12AbbreviationNtB1i_14LeafOrInternalE11search_treeyEB1H_
libstd-c2e64df9465a3b60.so:_RINvMsi_NtNtNtCseSYdJn4aADg_5alloc11collections5btree3mapINtB6_8BTreeMapyNtNtNtCs1N8gx4w2hz2_5gimli4read6abbrev12AbbreviationE3getyEB1f_
libstd-c2e64df9465a3b60.so:_RINvMsp_NtNtNtCseSYdJn4aADg_5alloc11collections5btree4nodeINtB6_7NodeRefNtNtB6_6marker3MutyNtNtNtCs1N8gx4w2hz2_5gimli4read6abbrev12AbbreviationNtB1a_8InternalE30correct_childrens_parent_linksINtNtNtCsb9yGazm0UdS_4core3ops5range14RangeInclusivejEEB1x_
libstd-c2e64df9465a3b60.so:_RINvMsp_NtNtNtCseSYdJn4aADg_5alloc11collections5btree4nodeINtB6_7NodeRefNtNtB6_6marker3MutyNtNtNtCs1N8gx4w2hz2_5gimli4read6abbrev12AbbreviationNtB1a_8InternalE30correct_childrens_parent_linksINtNtNtCsb9yGazm0UdS_4core3ops5range5RangejEEB1x_
libstd-c2e64df9465a3b60.so:_RINvNtCsb9yGazm0UdS_4core5slice20copy_from_slice_implhECs4I7onBBY15v_11miniz_oxide
libstd-c2e64df9465a3b60.so:_RINvNtCsb9yGazm0UdS_4core9panicking13assert_failedAhj4_RShECsjAaqe0woR93_3std
libstd-c2e64df9465a3b60.so:_RINvNtCsb9yGazm0UdS_4core9panicking13assert_failedINtNtB4_6option6OptionjEBM_EB4_
libstd-c2e64df9465a3b60.so:_RINvNtCsb9yGazm0UdS_4core9panicking13assert_failedjjEB4_
libstd-c2e64df9465a3b60.so:_RINvNtCsb9yGazm0UdS_4core9panicking13assert_failedllECsjAaqe0woR93_3std
libstd-c2e64df9465a3b60.so:_RINvNtCsb9yGazm0UdS_4core9panicking13assert_failedmmECsjAaqe0woR93_3std
libstd-c2e64df9465a3b60.so:_RINvNtCsb9yGazm0UdS_4core9panicking13assert_failedssECsjAaqe0woR93_3std
libstd-c2e64df9465a3b60.so:_RINvNtCsb9yGazm0UdS_4core9panicking13assert_failedyyEB4_
libstd-c2e64df9465a3b60.so:_RINvNtCsjAaqe0woR93_3std9panicking11begin_panicReEB4_
libstd-c2e64df9465a3b60.so:_RINvNtNtCsb9yGazm0UdS_4core5slice5index5rangeINtNtNtB6_3ops5range14RangeInclusivejEECs4I7onBBY15v_11miniz_oxide
libstd-c2e64df9465a3b60.so:_RINvNtNtCsjAaqe0woR93_3std3sys9backtrace26___rust_end_short_backtraceNCINvNtB6_9panicking11begin_panicReE0zEB6_
libstd-c2e64df9465a3b60.so:_RINvNtNtNtCsb9yGazm0UdS_4core5slice4sort6stable14driftsort_mainNtNtCs8JUzMjMMAX8_9addr2line4line12LineSequenceNCINvMNtCseSYdJn4aADg_5alloc5sliceSBZ_11sort_by_keyyNCINvMs_B11_NtB11_5Lines5parseINtNtNtCs1N8gx4w2hz2_5gimli4read12endian_slice11EndianSliceNtNtB3b_9endianity12LittleEndianEEs_0E0INtNtB1S_3vec3VecBZ_EECsjAaqe0woR93_3std
libstd-c2e64df9465a3b60.so:_RINvNtNtNtCsb9yGazm0UdS_4core5slice4sort6stable14driftsort_mainNtNtCs8JUzMjMMAX8_9addr2line4unit9UnitRangeNCINvMNtCseSYdJn4aADg_5alloc5sliceSBZ_11sort_by_keyyNCNvMs_B11_INtB11_8ResUnitsINtNtNtCs1N8gx4w2hz2_5gimli4read12endian_slice11EndianSliceNtNtB34_9endianity12LittleEndianEE5parses2_0E0INtNtB1O_3vec3VecBZ_EECsjAaqe0woR93_3std
libstd-c2e64df9465a3b60.so:_RINvNtNtNtCsb9yGazm0UdS_4core5slice4sort6stable14driftsort_mainNtNtCs8JUzMjMMAX8_9addr2line8function15FunctionAddressNCINvMNtCseSYdJn4aADg_5alloc5sliceSBZ_11sort_by_keyyNCNvMs0_B11_INtB11_9FunctionsINtNtNtCs1N8gx4w2hz2_5gimli4read12endian_slice11EndianSliceNtNtB3h_9endianity12LittleEndianEE5parses_0E0INtNtB1Z_3vec3VecBZ_EECsjAaqe0woR93_3std
libstd-c2e64df9465a3b60.so:_RINvNtNtNtCsb9yGazm0UdS_4core5slice4sort6stable14driftsort_mainNtNtCs8JUzMjMMAX8_9addr2line8function22InlinedFunctionAddressNCINvMNtCseSYdJn4aADg_5alloc5sliceSBZ_7sort_byNCNvMs1_B11_INtB11_8FunctionINtNtNtCs1N8gx4w2hz2_5gimli4read12endian_slice11EndianSliceNtNtB3h_9endianity12LittleEndianEE5parse0E0INtNtB26_3vec3VecBZ_EECsjAaqe0woR93_3std
libstd-c2e64df9465a3b60.so:_RINvNtNtNtCsb9yGazm0UdS_4core5slice4sort6stable14driftsort_mainTNtNtCs1N8gx4w2hz2_5gimli6common15DebugInfoOffsetNtB12_18DebugArangesOffsetENCINvMNtCseSYdJn4aADg_5alloc5sliceSBZ_11sort_by_keyB10_NCNvMs_NtCs8JUzMjMMAX8_9addr2line4unitINtB3d_8ResUnitsINtNtNtB14_4read12endian_slice11EndianSliceNtNtB14_9endianity12LittleEndianEE5parse0E0INtNtB2l_3vec3VecBZ_EECsjAaqe0woR93_3std
libstd-c2e64df9465a3b60.so:_RINvNtNtNtCseSYdJn4aADg_5alloc11collections5btree4node12slice_insertINtNtNtCsb9yGazm0UdS_4core3ptr8non_null7NonNullINtB2_8LeafNodeyNtNtNtCs1N8gx4w2hz2_5gimli4read6abbrev12AbbreviationEEEB2b_
libstd-c2e64df9465a3b60.so:_RINvNtNtNtCseSYdJn4aADg_5alloc11collections5btree4node12slice_insertNtNtNtCs1N8gx4w2hz2_5gimli4read6abbrev12AbbreviationEB1a_
libstd-c2e64df9465a3b60.so:_RINvNtNtNtCseSYdJn4aADg_5alloc11collections5btree4node12slice_insertyECs1N8gx4w2hz2_5gimli
libstd-c2e64df9465a3b60.so:_RINvNtNtNtCseSYdJn4aADg_5alloc11collections5btree4node13move_to_sliceINtNtNtCsb9yGazm0UdS_4core3ptr8non_null7NonNullINtB2_8LeafNodeyNtNtNtCs1N8gx4w2hz2_5gimli4read6abbrev12AbbreviationEEEB2c_
libstd-c2e64df9465a3b60.so:_RINvNtNtNtCseSYdJn4aADg_5alloc11collections5btree4node13move_to_sliceNtNtNtCs1N8gx4w2hz2_5gimli4read6abbrev12AbbreviationEB1b_
libstd-c2e64df9465a3b60.so:_RINvNtNtNtCseSYdJn4aADg_5alloc11collections5btree4node13move_to_sliceyECs1N8gx4w2hz2_5gimli
libstd-c2e64df9465a3b60.so:_RINvNtNtNtNtCsb9yGazm0UdS_4core5slice4sort6stable9quicksort9quicksortNtNtCs8JUzMjMMAX8_9addr2line4line12LineSequenceNCINvMNtCseSYdJn4aADg_5alloc5sliceSB15_11sort_by_keyyNCINvMs_B17_NtB17_5Lines5parseINtNtNtCs1N8gx4w2hz2_5gimli4read12endian_slice11EndianSliceNtNtB3i_9endianity12LittleEndianEEs_0E0ECsjAaqe0woR93_3std
libstd-c2e64df9465a3b60.so:_RINvNtNtNtNtCsb9yGazm0UdS_4core5slice4sort6stable9quicksort9quicksortNtNtCs8JUzMjMMAX8_9addr2line4unit9UnitRangeNCINvMNtCseSYdJn4aADg_5alloc5sliceSB15_11sort_by_keyyNCNvMs_B17_INtB17_8ResUnitsINtNtNtCs1N8gx4w2hz2_5gimli4read12endian_slice11EndianSliceNtNtB3b_9endianity12LittleEndianEE5parses2_0E0ECsjAaqe0woR93_3std
libstd-c2e64df9465a3b60.so:_RINvNtNtNtNtCsb9yGazm0UdS_4core5slice4sort6stable9quicksort9quicksortNtNtCs8JUzMjMMAX8_9addr2line8function15FunctionAddressNCINvMNtCseSYdJn4aADg_5alloc5sliceSB15_11sort_by_keyyNCNvMs0_B17_INtB17_9FunctionsINtNtNtCs1N8gx4w2hz2_5gimli4read12endian_slice11EndianSliceNtNtB3o_9endianity12LittleEndianEE5parses_0E0ECsjAaqe0woR93_3std
libstd-c2e64df9465a3b60.so:_RINvNtNtNtNtCsb9yGazm0UdS_4core5slice4sort6stable9quicksort9quicksortNtNtCs8JUzMjMMAX8_9addr2line8function22InlinedFunctionAddressNCINvMNtCseSYdJn4aADg_5alloc5sliceSB15_7sort_byNCNvMs1_B17_INtB17_8FunctionINtNtNtCs1N8gx4w2hz2_5gimli4read12endian_slice11EndianSliceNtNtB3o_9endianity12LittleEndianEE5parse0E0ECsjAaqe0woR93_3std
libstd-c2e64df9465a3b60.so:_RINvNtNtNtNtCsb9yGazm0UdS_4core5slice4sort6stable9quicksort9quicksortTNtNtCs1N8gx4w2hz2_5gimli6common15DebugInfoOffsetNtB18_18DebugArangesOffsetENCINvMNtCseSYdJn4aADg_5alloc5sliceSB15_11sort_by_keyB16_NCNvMs_NtCs8JUzMjMMAX8_9addr2line4unitINtB3k_8ResUnitsINtNtNtB1a_4read12endian_slice11EndianSliceNtNtB1a_9endianity12LittleEndianEE5parse0E0ECsjAaqe0woR93_3std
libstd-c2e64df9465a3b60.so:_RINvNvMs2_NtCseSYdJn4aADg_5alloc7raw_vecINtB8_11RawVecInnerpE7reserve21do_reserve_and_handleNtNtBa_5alloc6GlobalECs8JUzMjMMAX8_9addr2line
libstd-c2e64df9465a3b60.so:_RNvCsQVrDp5Ngqk_6adler213adler32_slice
libstd-c2e64df9465a3b60.so:_RNvCsdGaayLnMd0D_7___rustc10rust_panic
libstd-c2e64df9465a3b60.so:_RNvCsdGaayLnMd0D_7___rustc12___rust_abort
libstd-c2e64df9465a3b60.so:_RNvCsdGaayLnMd0D_7___rustc12___rust_alloc
libstd-c2e64df9465a3b60.so:_RNvCsdGaayLnMd0D_7___rustc14___rust_dealloc
libstd-c2e64df9465a3b60.so:_RNvCsdGaayLnMd0D_7___rustc14___rust_realloc
libstd-c2e64df9465a3b60.so:_RNvCsdGaayLnMd0D_7___rustc17___rust_drop_panic
libstd-c2e64df9465a3b60.so:_RNvCsdGaayLnMd0D_7___rustc17rust_begin_unwind
libstd-c2e64df9465a3b60.so:_RNvCsdGaayLnMd0D_7___rustc18___rust_start_panic
libstd-c2e64df9465a3b60.so:_RNvCsdGaayLnMd0D_7___rustc19___rust_alloc_zeroed
libstd-c2e64df9465a3b60.so:_RNvCsdGaayLnMd0D_7___rustc20___rust_panic_cleanup
libstd-c2e64df9465a3b60.so:_RNvCsdGaayLnMd0D_7___rustc24___rust_foreign_exception
libstd-c2e64df9465a3b60.so:_RNvCsdGaayLnMd0D_7___rustc25___rdl_alloc_error_handler
libstd-c2e64df9465a3b60.so:_RNvCsdGaayLnMd0D_7___rustc26___rust_alloc_error_handler
libstd-c2e64df9465a3b60.so:_RNvCsdGaayLnMd0D_7___rustc35___rust_no_alloc_shim_is_unstable_v2
libstd-c2e64df9465a3b60.so:_RNvCsiNDExn1lzIo_14rustc_demangle12try_demangle
libstd-c2e64df9465a3b60.so:_RNvCsiNDExn1lzIo_14rustc_demangle8demangle
libstd-c2e64df9465a3b60.so:_RNvMCsQVrDp5Ngqk_6adler2NtB2_7Adler3211write_slice
libstd-c2e64df9465a3b60.so:_RNvMNtCsb9yGazm0UdS_4core3stre12escape_debug
libstd-c2e64df9465a3b60.so:_RNvMNtCsb9yGazm0UdS_4core3stre12substr_range
libstd-c2e64df9465a3b60.so:_RNvMNtCsb9yGazm0UdS_4core3stre13from_utf8_mut
libstd-c2e64df9465a3b60.so:_RNvMNtCsb9yGazm0UdS_4core3stre22split_at_mut_unchecked
libstd-c2e64df9465a3b60.so:_RNvMNtCsb9yGazm0UdS_4core3stre9from_utf8
libstd-c2e64df9465a3b60.so:_RNvMNtCsb9yGazm0UdS_4core5sliceSh11starts_withCs8JUzMjMMAX8_9addr2line
libstd-c2e64df9465a3b60.so:_RNvMNtCsb9yGazm0UdS_4core5sliceSh11starts_withCsiNDExn1lzIo_14rustc_demangle
libstd-c2e64df9465a3b60.so:_RNvMNtCsb9yGazm0UdS_4core5sliceSh9ends_withCs8JUzMjMMAX8_9addr2line
libstd-c2e64df9465a3b60.so:_RNvMNtCseSYdJn4aADg_5alloc6stringNtB2_6String10from_utf16
libstd-c2e64df9465a3b60.so:_RNvMNtCseSYdJn4aADg_5alloc6stringNtB2_6String11try_reserve
libstd-c2e64df9465a3b60.so:_RNvMNtCseSYdJn4aADg_5alloc6stringNtB2_6String12from_utf16be
libstd-c2e64df9465a3b60.so:_RNvMNtCseSYdJn4aADg_5alloc6stringNtB2_6String12from_utf16le
libstd-c2e64df9465a3b60.so:_RNvMNtCseSYdJn4aADg_5alloc6stringNtB2_6String15from_utf8_lossy
libstd-c2e64df9465a3b60.so:_RNvMNtCseSYdJn4aADg_5alloc6stringNtB2_6String17try_reserve_exact
libstd-c2e64df9465a3b60.so:_RNvMNtCseSYdJn4aADg_5alloc6stringNtB2_6String18from_utf16be_lossy
libstd-c2e64df9465a3b60.so:_RNvMNtCseSYdJn4aADg_5alloc6stringNtB2_6String18from_utf16le_lossy
libstd-c2e64df9465a3b60.so:_RNvMNtCseSYdJn4aADg_5alloc6stringNtB2_6String21from_utf8_lossy_owned
libstd-c2e64df9465a3b60.so:_RNvMNtCsjAaqe0woR93_3std4timeNtB2_7Instant11checked_add
libstd-c2e64df9465a3b60.so:_RNvMNtCsjAaqe0woR93_3std4timeNtB2_7Instant11checked_sub
libstd-c2e64df9465a3b60.so:_RNvMNtCsjAaqe0woR93_3std4timeNtB2_7Instant14duration_since
libstd-c2e64df9465a3b60.so:_RNvMNtCsjAaqe0woR93_3std4timeNtB2_7Instant22checked_duration_since
libstd-c2e64df9465a3b60.so:_RNvMNtCsjAaqe0woR93_3std4timeNtB2_7Instant25saturating_duration_since
libstd-c2e64df9465a3b60.so:_RNvMNtCsjAaqe0woR93_3std4timeNtB2_7Instant3now
libstd-c2e64df9465a3b60.so:_RNvMNtCsjAaqe0woR93_3std4timeNtB2_7Instant7elapsed
libstd-c2e64df9465a3b60.so:_RNvMNtCsjnMSqt2aXJ2_9hashbrown3rawNtB2_11Fallibility17capacity_overflow
libstd-c2e64df9465a3b60.so:_RNvMNtCsjnMSqt2aXJ2_9hashbrown3rawNtB2_11Fallibility9alloc_err
libstd-c2e64df9465a3b60.so:_RNvMNtNtCsb9yGazm0UdS_4core3num3fmtNtB2_4Part3len
libstd-c2e64df9465a3b60.so:_RNvMNtNtCsb9yGazm0UdS_4core3num3fmtNtB2_4Part5write
libstd-c2e64df9465a3b60.so:_RNvMNtNtCsb9yGazm0UdS_4core3num9diy_floatNtB2_2Fp12normalize_to
libstd-c2e64df9465a3b60.so:_RNvMNtNtCsjAaqe0woR93_3std3net3tcpNtB2_9TcpStream10local_addr
libstd-c2e64df9465a3b60.so:_RNvMNtNtCsjAaqe0woR93_3std3net3tcpNtB2_9TcpStream10set_linger
libstd-c2e64df9465a3b60.so:_RNvMNtNtCsjAaqe0woR93_3std3net3tcpNtB2_9TcpStream10take_error
libstd-c2e64df9465a3b60.so:_RNvMNtNtCsjAaqe0woR93_3std3net3tcpNtB2_9TcpStream11set_nodelay
libstd-c2e64df9465a3b60.so:_RNvMNtNtCsjAaqe0woR93_3std3net3tcpNtB2_9TcpStream12read_timeout
libstd-c2e64df9465a3b60.so:_RNvMNtNtCsjAaqe0woR93_3std3net3tcpNtB2_9TcpStream13write_timeout
libstd-c2e64df9465a3b60.so:_RNvMNtNtCsjAaqe0woR93_3std3net3tcpNtB2_9TcpStream15connect_timeout
libstd-c2e64df9465a3b60.so:_RNvMNtNtCsjAaqe0woR93_3std3net3tcpNtB2_9TcpStream15set_nonblocking
libstd-c2e64df9465a3b60.so:_RNvMNtNtCsjAaqe0woR93_3std3net3tcpNtB2_9TcpStream16set_read_timeout
libstd-c2e64df9465a3b60.so:_RNvMNtNtCsjAaqe0woR93_3std3net3tcpNtB2_9TcpStream17set_write_timeout
libstd-c2e64df9465a3b60.so:_RNvMNtNtCsjAaqe0woR93_3std3net3tcpNtB2_9TcpStream3ttl
libstd-c2e64df9465a3b60.so:_RNvMNtNtCsjAaqe0woR93_3std3net3tcpNtB2_9TcpStream4peek
libstd-c2e64df9465a3b60.so:_RNvMNtNtCsjAaqe0woR93_3std3net3tcpNtB2_9TcpStream6linger
libstd-c2e64df9465a3b60.so:_RNvMNtNtCsjAaqe0woR93_3std3net3tcpNtB2_9TcpStream7nodelay
libstd-c2e64df9465a3b60.so:_RNvMNtNtCsjAaqe0woR93_3std3net3tcpNtB2_9TcpStream7set_ttl
libstd-c2e64df9465a3b60.so:_RNvMNtNtCsjAaqe0woR93_3std3net3tcpNtB2_9TcpStream8shutdown
libstd-c2e64df9465a3b60.so:_RNvMNtNtCsjAaqe0woR93_3std3net3tcpNtB2_9TcpStream9peer_addr
libstd-c2e64df9465a3b60.so:_RNvMNtNtCsjAaqe0woR93_3std3net3tcpNtB2_9TcpStream9try_clone
libstd-c2e64df9465a3b60.so:_RNvMNtNtCsjAaqe0woR93_3std3net3udpNtB2_9UdpSocket10local_addr
libstd-c2e64df9465a3b60.so:_RNvMNtNtCsjAaqe0woR93_3std3net3udpNtB2_9UdpSocket10take_error
libstd-c2e64df9465a3b60.so:_RNvMNtNtCsjAaqe0woR93_3std3net3udpNtB2_9UdpSocket12read_timeout
libstd-c2e64df9465a3b60.so:_RNvMNtNtCsjAaqe0woR93_3std3net3udpNtB2_9UdpSocket13set_broadcast
libstd-c2e64df9465a3b60.so:_RNvMNtNtCsjAaqe0woR93_3std3net3udpNtB2_9UdpSocket13write_timeout
libstd-c2e64df9465a3b60.so:_RNvMNtNtCsjAaqe0woR93_3std3net3udpNtB2_9UdpSocket15set_nonblocking
libstd-c2e64df9465a3b60.so:_RNvMNtNtCsjAaqe0woR93_3std3net3udpNtB2_9UdpSocket16multicast_ttl_v4
libstd-c2e64df9465a3b60.so:_RNvMNtNtCsjAaqe0woR93_3std3net3udpNtB2_9UdpSocket16set_read_timeout
libstd-c2e64df9465a3b60.so:_RNvMNtNtCsjAaqe0woR93_3std3net3udpNtB2_9UdpSocket17join_multicast_v4
libstd-c2e64df9465a3b60.so:_RNvMNtNtCsjAaqe0woR93_3std3net3udpNtB2_9UdpSocket17join_multicast_v6
libstd-c2e64df9465a3b60.so:_RNvMNtNtCsjAaqe0woR93_3std3net3udpNtB2_9UdpSocket17multicast_loop_v4
libstd-c2e64df9465a3b60.so:_RNvMNtNtCsjAaqe0woR93_3std3net3udpNtB2_9UdpSocket17multicast_loop_v6
libstd-c2e64df9465a3b60.so:_RNvMNtNtCsjAaqe0woR93_3std3net3udpNtB2_9UdpSocket17set_write_timeout
libstd-c2e64df9465a3b60.so:_RNvMNtNtCsjAaqe0woR93_3std3net3udpNtB2_9UdpSocket18leave_multicast_v4
libstd-c2e64df9465a3b60.so:_RNvMNtNtCsjAaqe0woR93_3std3net3udpNtB2_9UdpSocket18leave_multicast_v6
libstd-c2e64df9465a3b60.so:_RNvMNtNtCsjAaqe0woR93_3std3net3udpNtB2_9UdpSocket20set_multicast_ttl_v4
libstd-c2e64df9465a3b60.so:_RNvMNtNtCsjAaqe0woR93_3std3net3udpNtB2_9UdpSocket21set_multicast_loop_v4
libstd-c2e64df9465a3b60.so:_RNvMNtNtCsjAaqe0woR93_3std3net3udpNtB2_9UdpSocket21set_multicast_loop_v6
libstd-c2e64df9465a3b60.so:_RNvMNtNtCsjAaqe0woR93_3std3net3udpNtB2_9UdpSocket3ttl
libstd-c2e64df9465a3b60.so:_RNvMNtNtCsjAaqe0woR93_3std3net3udpNtB2_9UdpSocket4peek
libstd-c2e64df9465a3b60.so:_RNvMNtNtCsjAaqe0woR93_3std3net3udpNtB2_9UdpSocket4recv
libstd-c2e64df9465a3b60.so:_RNvMNtNtCsjAaqe0woR93_3std3net3udpNtB2_9UdpSocket4send
libstd-c2e64df9465a3b60.so:_RNvMNtNtCsjAaqe0woR93_3std3net3udpNtB2_9UdpSocket7set_ttl
libstd-c2e64df9465a3b60.so:_RNvMNtNtCsjAaqe0woR93_3std3net3udpNtB2_9UdpSocket9broadcast
libstd-c2e64df9465a3b60.so:_RNvMNtNtCsjAaqe0woR93_3std3net3udpNtB2_9UdpSocket9peek_from
libstd-c2e64df9465a3b60.so:_RNvMNtNtCsjAaqe0woR93_3std3net3udpNtB2_9UdpSocket9peer_addr
libstd-c2e64df9465a3b60.so:_RNvMNtNtCsjAaqe0woR93_3std3net3udpNtB2_9UdpSocket9recv_from
libstd-c2e64df9465a3b60.so:_RNvMNtNtCsjAaqe0woR93_3std3net3udpNtB2_9UdpSocket9try_clone
libstd-c2e64df9465a3b60.so:_RNvMNtNtCsjAaqe0woR93_3std6thread2idNtB2_8ThreadId3new
libstd-c2e64df9465a3b60.so:_RNvMNtNtCsjAaqe0woR93_3std6thread6scopedNtB2_9ScopeData29decrement_num_running_threads
libstd-c2e64df9465a3b60.so:_RNvMNtNtCsjAaqe0woR93_3std6thread6scopedNtB2_9ScopeData29increment_num_running_threads
libstd-c2e64df9465a3b60.so:_RNvMNtNtCsjAaqe0woR93_3std6thread7builderNtB2_7Builder4name
libstd-c2e64df9465a3b60.so:_RNvMNtNtNtCsb2QYmHNJ40y_10std_detect6detect4arch3x86NtB2_7Feature6to_str
libstd-c2e64df9465a3b60.so:_RNvMNtNtNtCsb9yGazm0UdS_4core3num6bignum5testsNtB2_6Big8x310bit_length
libstd-c2e64df9465a3b60.so:_RNvMNtNtNtCsb9yGazm0UdS_4core3num6bignum5testsNtB2_6Big8x310mul_digits
libstd-c2e64df9465a3b60.so:_RNvMNtNtNtCsb9yGazm0UdS_4core3num6bignum5testsNtB2_6Big8x313div_rem_small
libstd-c2e64df9465a3b60.so:_RNvMNtNtNtCsb9yGazm0UdS_4core3num6bignum5testsNtB2_6Big8x33add
libstd-c2e64df9465a3b60.so:_RNvMNtNtNtCsb9yGazm0UdS_4core3num6bignum5testsNtB2_6Big8x33sub
libstd-c2e64df9465a3b60.so:_RNvMNtNtNtCsb9yGazm0UdS_4core3num6bignum5testsNtB2_6Big8x36digits
libstd-c2e64df9465a3b60.so:_RNvMNtNtNtCsb9yGazm0UdS_4core3num6bignum5testsNtB2_6Big8x37is_zero
libstd-c2e64df9465a3b60.so:_RNvMNtNtNtCsb9yGazm0UdS_4core3num6bignum5testsNtB2_6Big8x38mul_pow2
libstd-c2e64df9465a3b60.so:_RNvMNtNtNtCsb9yGazm0UdS_4core3num6bignum5testsNtB2_6Big8x38mul_pow5
libstd-c2e64df9465a3b60.so:_RNvMNtNtNtCsb9yGazm0UdS_4core3num6bignum5testsNtB2_6Big8x39mul_small
libstd-c2e64df9465a3b60.so:_RNvMNtNtNtCsb9yGazm0UdS_4core4iter8adapters3zipINtB2_3ZipINtNtNtB8_5slice4iter4ItertEINtBW_7IterMutmEE9super_nthCs4I7onBBY15v_11miniz_oxide
libstd-c2e64df9465a3b60.so:_RNvMNtNtNtCsfC9nJ0KPYer_6object4read2pe10relocationNtB2_23RelocationBlockIterator4next
libstd-c2e64df9465a3b60.so:_RNvMNtNtNtCsfC9nJ0KPYer_6object4read2pe14data_directoryNtB2_15DataDirectories3get
libstd-c2e64df9465a3b60.so:_RNvMNtNtNtCsfC9nJ0KPYer_6object4read2pe14data_directoryNtB2_15DataDirectories5parse
libstd-c2e64df9465a3b60.so:_RNvMNtNtNtCsfC9nJ0KPYer_6object4read2pe6importNtB2_11ImportTable4name
libstd-c2e64df9465a3b60.so:_RNvMNtNtNtCsfC9nJ0KPYer_6object4read2pe6importNtB2_11ImportTable9hint_name
libstd-c2e64df9465a3b60.so:_RNvMNtNtNtCsfC9nJ0KPYer_6object4read2pe8resourceNtB2_17ResourceDirectory4root
libstd-c2e64df9465a3b60.so:_RNvMNtNtNtCsfC9nJ0KPYer_6object4read3elf10relocationNtB2_18RelocationSections3get
libstd-c2e64df9465a3b60.so:_RNvMNtNtNtCsjAaqe0woR93_3std2os5linux7processNtB2_5PidFd4kill
libstd-c2e64df9465a3b60.so:_RNvMNtNtNtCsjAaqe0woR93_3std2os5linux7processNtB2_5PidFd4wait
libstd-c2e64df9465a3b60.so:_RNvMNtNtNtCsjAaqe0woR93_3std2os5linux7processNtB2_5PidFd8try_wait
libstd-c2e64df9465a3b60.so:_RNvMNtNtNtCsjAaqe0woR93_3std3sys2fd4unixNtB2_8FileDesc11read_buf_at
libstd-c2e64df9465a3b60.so:_RNvMNtNtNtCsjAaqe0woR93_3std3sys2fd4unixNtB2_8FileDesc11read_to_end
libstd-c2e64df9465a3b60.so:_RNvMNtNtNtCsjAaqe0woR93_3std3sys2fd4unixNtB2_8FileDesc11set_cloexec
libstd-c2e64df9465a3b60.so:_RNvMNtNtNtCsjAaqe0woR93_3std3sys2fd4unixNtB2_8FileDesc13read_vectored
libstd-c2e64df9465a3b60.so:_RNvMNtNtNtCsjAaqe0woR93_3std3sys2fd4unixNtB2_8FileDesc14write_vectored
libstd-c2e64df9465a3b60.so:_RNvMNtNtNtCsjAaqe0woR93_3std3sys2fd4unixNtB2_8FileDesc15set_nonblocking
libstd-c2e64df9465a3b60.so:_RNvMNtNtNtCsjAaqe0woR93_3std3sys2fd4unixNtB2_8FileDesc16read_vectored_at
libstd-c2e64df9465a3b60.so:_RNvMNtNtNtCsjAaqe0woR93_3std3sys2fd4unixNtB2_8FileDesc17write_vectored_at
libstd-c2e64df9465a3b60.so:_RNvMNtNtNtCsjAaqe0woR93_3std3sys2fd4unixNtB2_8FileDesc4read
libstd-c2e64df9465a3b60.so:_RNvMNtNtNtCsjAaqe0woR93_3std3sys2fd4unixNtB2_8FileDesc5write
libstd-c2e64df9465a3b60.so:_RNvMNtNtNtCsjAaqe0woR93_3std3sys2fd4unixNtB2_8FileDesc7read_at
libstd-c2e64df9465a3b60.so:_RNvMNtNtNtCsjAaqe0woR93_3std3sys2fd4unixNtB2_8FileDesc8read_buf
libstd-c2e64df9465a3b60.so:_RNvMNtNtNtCsjAaqe0woR93_3std3sys2fd4unixNtB2_8FileDesc8write_at
libstd-c2e64df9465a3b60.so:_RNvMNtNtNtCsjAaqe0woR93_3std4sync4mpmc7contextNtB2_7Context3new
libstd-c2e64df9465a3b60.so:_RNvMNtNtNtCsjAaqe0woR93_3std4sync6poison7condvarNtB2_7Condvar10notify_all
libstd-c2e64df9465a3b60.so:_RNvMNtNtNtCsjAaqe0woR93_3std4sync6poison7condvarNtB2_7Condvar10notify_one
libstd-c2e64df9465a3b60.so:_RNvMNtNtNtCsjAaqe0woR93_3std4sync9nonpoison7condvarNtB2_7Condvar10notify_all
libstd-c2e64df9465a3b60.so:_RNvMNtNtNtCsjAaqe0woR93_3std4sync9nonpoison7condvarNtB2_7Condvar10notify_one
libstd-c2e64df9465a3b60.so:_RNvMNtNtNtNtCsjAaqe0woR93_3std2io8buffered9bufreader6bufferNtB2_6Buffer9backshift
libstd-c2e64df9465a3b60.so:_RNvMNtNtNtNtCsjAaqe0woR93_3std2os4unix3net4addrNtB2_10SocketAddr10is_unnamed
libstd-c2e64df9465a3b60.so:_RNvMNtNtNtNtCsjAaqe0woR93_3std2os4unix3net4addrNtB2_10SocketAddr11as_pathname
libstd-c2e64df9465a3b60.so:_RNvMNtNtNtNtCsjAaqe0woR93_3std3sys2fs4unix3dirNtB2_3Dir4open
libstd-c2e64df9465a3b60.so:_RNvMNtNtNtNtCsjAaqe0woR93_3std3sys2fs4unix3dirNtB2_3Dir9open_file
libstd-c2e64df9465a3b60.so:_RNvMNtNtNtNtCsjAaqe0woR93_3std3sys4sync5mutex5futexNtB2_5Mutex14lock_contended
libstd-c2e64df9465a3b60.so:_RNvMNtNtNtNtCsjAaqe0woR93_3std3sys4sync5mutex5futexNtB2_5Mutex4wake
libstd-c2e64df9465a3b60.so:_RNvMNtNtNtNtCsjAaqe0woR93_3std3sys4sync6rwlock5futexNtB2_6RwLock14read_contended
libstd-c2e64df9465a3b60.so:_RNvMNtNtNtNtCsjAaqe0woR93_3std3sys4sync6rwlock5futexNtB2_6RwLock15write_contended
libstd-c2e64df9465a3b60.so:_RNvMNtNtNtNtCsjAaqe0woR93_3std3sys4sync6rwlock5futexNtB2_6RwLock22wake_writer_or_readers
libstd-c2e64df9465a3b60.so:_RNvMNtNtNtNtCsjAaqe0woR93_3std3sys4sync7condvar5futexNtB2_7Condvar12wait_timeout
libstd-c2e64df9465a3b60.so:_RNvMNtNtNtNtCsjAaqe0woR93_3std3sys4sync7condvar5futexNtB2_7Condvar4wait
libstd-c2e64df9465a3b60.so:_RNvMNtNtNtNtNtCsjAaqe0woR93_3std3sys3net10connection6socket4unixNtB2_6Socket3new
libstd-c2e64df9465a3b60.so:_RNvMNvMs_NtNtNtCsjAaqe0woR93_3std2io8buffered9bufwriterINtB7_9BufWriterpE9flush_bufNtB2_8BufGuard9remaining
libstd-c2e64df9465a3b60.so:_RNvMs0_NtCsb9yGazm0UdS_4core6escapeINtB5_15EscapeIterInnerKja_NtB5_12MaybeEscapedE4nextCsiNDExn1lzIo_14rustc_demangle
libstd-c2e64df9465a3b60.so:_RNvMs0_NtNtCsb9yGazm0UdS_4core3fmt3numo11format_into
libstd-c2e64df9465a3b60.so:_RNvMs0_NtNtCsb9yGazm0UdS_4core3fmt3numo4__fmt
libstd-c2e64df9465a3b60.so:_RNvMs0_NtNtCsjAaqe0woR93_3std3ffi6os_strNtB5_8OsString17into_boxed_os_str
libstd-c2e64df9465a3b60.so:_RNvMs0_NtNtCsjAaqe0woR93_3std4sync4onceNtB5_4Once10wait_force
libstd-c2e64df9465a3b60.so:_RNvMs0_NtNtCsjAaqe0woR93_3std4sync4onceNtB5_4Once4wait
libstd-c2e64df9465a3b60.so:_RNvMs0_NtNtCsjAaqe0woR93_3std4sync7barrierNtB5_7Barrier4wait
libstd-c2e64df9465a3b60.so:_RNvMs0_NtNtNtCsb9yGazm0UdS_4core3fmt3num3imph4__fmt
libstd-c2e64df9465a3b60.so:_RNvMs0_NtNtNtCsfC9nJ0KPYer_6object4read2pe8resourceNtNtBb_2pe27ImageResourceDirectoryEntry4data
libstd-c2e64df9465a3b60.so:_RNvMs0_NtNtNtCsjAaqe0woR93_3std2os2fd5ownedNtB5_10BorrowedFd18try_clone_to_owned
libstd-c2e64df9465a3b60.so:_RNvMs0_NtNtNtCsjAaqe0woR93_3std3sys6thread4unixNtB5_6Thread3new
libstd-c2e64df9465a3b60.so:_RNvMs0_NtNtNtCsjAaqe0woR93_3std3sys6thread4unixNtB5_6Thread4join
libstd-c2e64df9465a3b60.so:_RNvMs0_NtNtNtCslJiKa1tWyHe_6memchr4arch3all6twowayNtB5_5Shift7forward
libstd-c2e64df9465a3b60.so:_RNvMs0_NtNtNtCslJiKa1tWyHe_6memchr4arch3all6twowayNtB5_5Shift7reverse
libstd-c2e64df9465a3b60.so:_RNvMs0_NtNtNtNtCsjAaqe0woR93_3std2os4unix3net6streamNtB5_10UnixStream10local_addr
libstd-c2e64df9465a3b60.so:_RNvMs0_NtNtNtNtCsjAaqe0woR93_3std2os4unix3net6streamNtB5_10UnixStream10take_error
libstd-c2e64df9465a3b60.so:_RNvMs0_NtNtNtNtCsjAaqe0woR93_3std2os4unix3net6streamNtB5_10UnixStream12connect_addr
libstd-c2e64df9465a3b60.so:_RNvMs0_NtNtNtNtCsjAaqe0woR93_3std2os4unix3net6streamNtB5_10UnixStream12read_timeout
libstd-c2e64df9465a3b60.so:_RNvMs0_NtNtNtNtCsjAaqe0woR93_3std2os4unix3net6streamNtB5_10UnixStream13write_timeout
libstd-c2e64df9465a3b60.so:_RNvMs0_NtNtNtNtCsjAaqe0woR93_3std2os4unix3net6streamNtB5_10UnixStream15set_nonblocking
libstd-c2e64df9465a3b60.so:_RNvMs0_NtNtNtNtCsjAaqe0woR93_3std2os4unix3net6streamNtB5_10UnixStream16set_read_timeout
libstd-c2e64df9465a3b60.so:_RNvMs0_NtNtNtNtCsjAaqe0woR93_3std2os4unix3net6streamNtB5_10UnixStream17set_write_timeout
libstd-c2e64df9465a3b60.so:_RNvMs0_NtNtNtNtCsjAaqe0woR93_3std2os4unix3net6streamNtB5_10UnixStream28recv_vectored_with_ancillary
libstd-c2e64df9465a3b60.so:_RNvMs0_NtNtNtNtCsjAaqe0woR93_3std2os4unix3net6streamNtB5_10UnixStream28send_vectored_with_ancillary
libstd-c2e64df9465a3b60.so:_RNvMs0_NtNtNtNtCsjAaqe0woR93_3std2os4unix3net6streamNtB5_10UnixStream4pair
libstd-c2e64df9465a3b60.so:_RNvMs0_NtNtNtNtCsjAaqe0woR93_3std2os4unix3net6streamNtB5_10UnixStream4peek
libstd-c2e64df9465a3b60.so:_RNvMs0_NtNtNtNtCsjAaqe0woR93_3std2os4unix3net6streamNtB5_10UnixStream8set_mark
libstd-c2e64df9465a3b60.so:_RNvMs0_NtNtNtNtCsjAaqe0woR93_3std2os4unix3net6streamNtB5_10UnixStream8shutdown
libstd-c2e64df9465a3b60.so:_RNvMs0_NtNtNtNtCsjAaqe0woR93_3std2os4unix3net6streamNtB5_10UnixStream9peer_addr
libstd-c2e64df9465a3b60.so:_RNvMs0_NtNtNtNtCsjAaqe0woR93_3std2os4unix3net6streamNtB5_10UnixStream9peer_cred
libstd-c2e64df9465a3b60.so:_RNvMs0_NtNtNtNtCsjAaqe0woR93_3std2os4unix3net6streamNtB5_10UnixStream9try_clone
libstd-c2e64df9465a3b60.so:_RNvMs0_NtNtNtNtCsjAaqe0woR93_3std2os4unix3net8datagramNtB5_12UnixDatagram10local_addr
libstd-c2e64df9465a3b60.so:_RNvMs0_NtNtNtNtCsjAaqe0woR93_3std2os4unix3net8datagramNtB5_12UnixDatagram10take_error
libstd-c2e64df9465a3b60.so:_RNvMs0_NtNtNtNtCsjAaqe0woR93_3std2os4unix3net8datagramNtB5_12UnixDatagram12connect_addr
libstd-c2e64df9465a3b60.so:_RNvMs0_NtNtNtNtCsjAaqe0woR93_3std2os4unix3net8datagramNtB5_12UnixDatagram12read_timeout
libstd-c2e64df9465a3b60.so:_RNvMs0_NtNtNtNtCsjAaqe0woR93_3std2os4unix3net8datagramNtB5_12UnixDatagram12send_to_addr
libstd-c2e64df9465a3b60.so:_RNvMs0_NtNtNtNtCsjAaqe0woR93_3std2os4unix3net8datagramNtB5_12UnixDatagram13write_timeout
libstd-c2e64df9465a3b60.so:_RNvMs0_NtNtNtNtCsjAaqe0woR93_3std2os4unix3net8datagramNtB5_12UnixDatagram15set_nonblocking
libstd-c2e64df9465a3b60.so:_RNvMs0_NtNtNtNtCsjAaqe0woR93_3std2os4unix3net8datagramNtB5_12UnixDatagram16set_read_timeout
libstd-c2e64df9465a3b60.so:_RNvMs0_NtNtNtNtCsjAaqe0woR93_3std2os4unix3net8datagramNtB5_12UnixDatagram17set_write_timeout
libstd-c2e64df9465a3b60.so:_RNvMs0_NtNtNtNtCsjAaqe0woR93_3std2os4unix3net8datagramNtB5_12UnixDatagram28recv_vectored_with_ancillary
libstd-c2e64df9465a3b60.so:_RNvMs0_NtNtNtNtCsjAaqe0woR93_3std2os4unix3net8datagramNtB5_12UnixDatagram28send_vectored_with_ancillary
libstd-c2e64df9465a3b60.so:_RNvMs0_NtNtNtNtCsjAaqe0woR93_3std2os4unix3net8datagramNtB5_12UnixDatagram33recv_vectored_with_ancillary_from
libstd-c2e64df9465a3b60.so:_RNvMs0_NtNtNtNtCsjAaqe0woR93_3std2os4unix3net8datagramNtB5_12UnixDatagram4pair
libstd-c2e64df9465a3b60.so:_RNvMs0_NtNtNtNtCsjAaqe0woR93_3std2os4unix3net8datagramNtB5_12UnixDatagram4peek
libstd-c2e64df9465a3b60.so:_RNvMs0_NtNtNtNtCsjAaqe0woR93_3std2os4unix3net8datagramNtB5_12UnixDatagram4recv
libstd-c2e64df9465a3b60.so:_RNvMs0_NtNtNtNtCsjAaqe0woR93_3std2os4unix3net8datagramNtB5_12UnixDatagram4send
libstd-c2e64df9465a3b60.so:_RNvMs0_NtNtNtNtCsjAaqe0woR93_3std2os4unix3net8datagramNtB5_12UnixDatagram7unbound
libstd-c2e64df9465a3b60.so:_RNvMs0_NtNtNtNtCsjAaqe0woR93_3std2os4unix3net8datagramNtB5_12UnixDatagram8set_mark
libstd-c2e64df9465a3b60.so:_RNvMs0_NtNtNtNtCsjAaqe0woR93_3std2os4unix3net8datagramNtB5_12UnixDatagram8shutdown
libstd-c2e64df9465a3b60.so:_RNvMs0_NtNtNtNtCsjAaqe0woR93_3std2os4unix3net8datagramNtB5_12UnixDatagram9bind_addr
libstd-c2e64df9465a3b60.so:_RNvMs0_NtNtNtNtCsjAaqe0woR93_3std2os4unix3net8datagramNtB5_12UnixDatagram9peek_from
libstd-c2e64df9465a3b60.so:_RNvMs0_NtNtNtNtCsjAaqe0woR93_3std2os4unix3net8datagramNtB5_12UnixDatagram9peer_addr
libstd-c2e64df9465a3b60.so:_RNvMs0_NtNtNtNtCsjAaqe0woR93_3std2os4unix3net8datagramNtB5_12UnixDatagram9recv_from
libstd-c2e64df9465a3b60.so:_RNvMs0_NtNtNtNtCsjAaqe0woR93_3std2os4unix3net8datagramNtB5_12UnixDatagram9try_clone
libstd-c2e64df9465a3b60.so:_RNvMs0_NtNtNtNtCsjAaqe0woR93_3std3sys4sync4once5futexNtB5_4Once4call
libstd-c2e64df9465a3b60.so:_RNvMs16_NtCsjAaqe0woR93_3std4pathNtB6_4Path10__ends_with
libstd-c2e64df9465a3b60.so:_RNvMs16_NtCsjAaqe0woR93_3std4pathNtB6_4Path10components
libstd-c2e64df9465a3b60.so:_RNvMs16_NtCsjAaqe0woR93_3std4pathNtB6_4Path10is_symlink
libstd-c2e64df9465a3b60.so:_RNvMs16_NtCsjAaqe0woR93_3std4pathNtB6_4Path11file_prefix
libstd-c2e64df9465a3b60.so:_RNvMs16_NtCsjAaqe0woR93_3std4pathNtB6_4Path11is_absolute
libstd-c2e64df9465a3b60.so:_RNvMs16_NtCsjAaqe0woR93_3std4pathNtB6_4Path11to_path_buf
libstd-c2e64df9465a3b60.so:_RNvMs16_NtCsjAaqe0woR93_3std4pathNtB6_4Path12__starts_with
libstd-c2e64df9465a3b60.so:_RNvMs16_NtCsjAaqe0woR93_3std4pathNtB6_4Path13__strip_prefix
libstd-c2e64df9465a3b60.so:_RNvMs16_NtCsjAaqe0woR93_3std4pathNtB6_4Path13into_path_buf
libstd-c2e64df9465a3b60.so:_RNvMs16_NtCsjAaqe0woR93_3std4pathNtB6_4Path15__with_extension
libstd-c2e64df9465a3b60.so:_RNvMs16_NtCsjAaqe0woR93_3std4pathNtB6_4Path15__with_file_name
libstd-c2e64df9465a3b60.so:_RNvMs16_NtCsjAaqe0woR93_3std4pathNtB6_4Path19normalize_lexically
libstd-c2e64df9465a3b60.so:_RNvMs16_NtCsjAaqe0woR93_3std4pathNtB6_4Path5__join
libstd-c2e64df9465a3b60.so:_RNvMs16_NtCsjAaqe0woR93_3std4pathNtB6_4Path6is_dir
libstd-c2e64df9465a3b60.so:_RNvMs16_NtCsjAaqe0woR93_3std4pathNtB6_4Path6parent
libstd-c2e64df9465a3b60.so:_RNvMs16_NtCsjAaqe0woR93_3std4pathNtB6_4Path7is_file
libstd-c2e64df9465a3b60.so:_RNvMs16_NtCsjAaqe0woR93_3std4pathNtB6_4Path9extension
libstd-c2e64df9465a3b60.so:_RNvMs16_NtCsjAaqe0woR93_3std4pathNtB6_4Path9file_name
libstd-c2e64df9465a3b60.so:_RNvMs16_NtCsjAaqe0woR93_3std4pathNtB6_4Path9file_stem
libstd-c2e64df9465a3b60.so:_RNvMs19_NtCseSYdJn4aADg_5alloc6stringNtB6_5Drain6as_str
libstd-c2e64df9465a3b60.so:_RNvMs1_NtNtCsb9yGazm0UdS_4core3fmt3numn11format_into
libstd-c2e64df9465a3b60.so:_RNvMs1_NtNtCsb9yGazm0UdS_4core3fmt8buildersNtB5_11DebugStruct21finish_non_exhaustive
libstd-c2e64df9465a3b60.so:_RNvMs1_NtNtCsb9yGazm0UdS_4core3fmt8buildersNtB5_11DebugStruct5field
libstd-c2e64df9465a3b60.so:_RNvMs1_NtNtCsb9yGazm0UdS_4core3fmt8buildersNtB5_11DebugStruct6finish
libstd-c2e64df9465a3b60.so:_RNvMs1_NtNtCsb9yGazm0UdS_4core3net6parserNtNtB7_7ip_addr8Ipv4Addr11parse_ascii
libstd-c2e64df9465a3b60.so:_RNvMs1_NtNtCsjAaqe0woR93_3std2io5stdioNtB5_5Stdin4lock
libstd-c2e64df9465a3b60.so:_RNvMs1_NtNtCsjAaqe0woR93_3std2io5stdioNtB5_5Stdin5lines
libstd-c2e64df9465a3b60.so:_RNvMs1_NtNtCsjAaqe0woR93_3std2io5stdioNtB5_5Stdin9read_line
libstd-c2e64df9465a3b60.so:_RNvMs1_NtNtNtCsb9yGazm0UdS_4core3fmt3num3impa11format_into
libstd-c2e64df9465a3b60.so:_RNvMs1_NtNtNtCsfC9nJ0KPYer_6object4read2pe6exportNtB5_11ExportTable14forward_string
libstd-c2e64df9465a3b60.so:_RNvMs1_NtNtNtCsfC9nJ0KPYer_6object4read2pe6exportNtB5_11ExportTable15parse_directory
libstd-c2e64df9465a3b60.so:_RNvMs1_NtNtNtCsfC9nJ0KPYer_6object4read2pe6exportNtB5_11ExportTable15target_by_index
libstd-c2e64df9465a3b60.so:_RNvMs1_NtNtNtCsfC9nJ0KPYer_6object4read2pe6exportNtB5_11ExportTable17name_from_pointer
libstd-c2e64df9465a3b60.so:_RNvMs1_NtNtNtCsfC9nJ0KPYer_6object4read2pe6exportNtB5_11ExportTable17target_by_ordinal
libstd-c2e64df9465a3b60.so:_RNvMs1_NtNtNtCsfC9nJ0KPYer_6object4read2pe6exportNtB5_11ExportTable18address_by_ordinal
libstd-c2e64df9465a3b60.so:_RNvMs1_NtNtNtCsfC9nJ0KPYer_6object4read2pe6exportNtB5_11ExportTable19target_from_address
libstd-c2e64df9465a3b60.so:_RNvMs1_NtNtNtCsfC9nJ0KPYer_6object4read2pe6exportNtB5_11ExportTable5parse
libstd-c2e64df9465a3b60.so:_RNvMs1_NtNtNtCsfC9nJ0KPYer_6object4read2pe6exportNtB5_11ExportTable7exports
libstd-c2e64df9465a3b60.so:_RNvMs1_NtNtNtCsfC9nJ0KPYer_6object4read2pe6exportNtB5_11ExportTable9name_iter
libstd-c2e64df9465a3b60.so:_RNvMs1b_NtCs1N8gx4w2hz2_5gimli9constantsNtB6_4DwAt13static_string
libstd-c2e64df9465a3b60.so:_RNvMs1n_NtCs1N8gx4w2hz2_5gimli9constantsNtB6_6DwForm13static_string
libstd-c2e64df9465a3b60.so:_RNvMs2V_NtCs1N8gx4w2hz2_5gimli9constantsNtB6_6DwLang13static_string
libstd-c2e64df9465a3b60.so:_RNvMs2_NtCseSYdJn4aADg_5alloc4wtf8NtB5_7Wtf8Buf11into_string
libstd-c2e64df9465a3b60.so:_RNvMs2_NtCseSYdJn4aADg_5alloc4wtf8NtB5_7Wtf8Buf17into_string_lossy
libstd-c2e64df9465a3b60.so:_RNvMs2_NtCseSYdJn4aADg_5alloc4wtf8NtB5_7Wtf8Buf25push_code_point_unchecked
libstd-c2e64df9465a3b60.so:_RNvMs2_NtCseSYdJn4aADg_5alloc4wtf8NtB5_7Wtf8Buf8from_box
libstd-c2e64df9465a3b60.so:_RNvMs2_NtCseSYdJn4aADg_5alloc4wtf8NtB5_7Wtf8Buf9from_wide
libstd-c2e64df9465a3b60.so:_RNvMs2_NtCseSYdJn4aADg_5alloc7raw_vecNtB5_11RawVecInner10deallocateCs1N8gx4w2hz2_5gimli
libstd-c2e64df9465a3b60.so:_RNvMs2_NtCsjAaqe0woR93_3std2fsNtB5_4File11lock_shared
libstd-c2e64df9465a3b60.so:_RNvMs2_NtCsjAaqe0woR93_3std2fsNtB5_4File15set_permissions
libstd-c2e64df9465a3b60.so:_RNvMs2_NtCsjAaqe0woR93_3std2fsNtB5_4File15try_lock_shared
libstd-c2e64df9465a3b60.so:_RNvMs2_NtCsjAaqe0woR93_3std2fsNtB5_4File4lock
libstd-c2e64df9465a3b60.so:_RNvMs2_NtCsjAaqe0woR93_3std2fsNtB5_4File6unlock
libstd-c2e64df9465a3b60.so:_RNvMs2_NtCsjAaqe0woR93_3std2fsNtB5_4File7set_len
libstd-c2e64df9465a3b60.so:_RNvMs2_NtCsjAaqe0woR93_3std2fsNtB5_4File8metadata
libstd-c2e64df9465a3b60.so:_RNvMs2_NtCsjAaqe0woR93_3std2fsNtB5_4File8sync_all
libstd-c2e64df9465a3b60.so:_RNvMs2_NtCsjAaqe0woR93_3std2fsNtB5_4File8try_lock
libstd-c2e64df9465a3b60.so:_RNvMs2_NtCsjAaqe0woR93_3std2fsNtB5_4File9set_times
libstd-c2e64df9465a3b60.so:_RNvMs2_NtCsjAaqe0woR93_3std2fsNtB5_4File9sync_data
libstd-c2e64df9465a3b60.so:_RNvMs2_NtCsjAaqe0woR93_3std2fsNtB5_4File9try_clone
libstd-c2e64df9465a3b60.so:_RNvMs2_NtCsjAaqe0woR93_3std2ioNtB5_10IoSliceMut10into_slice
libstd-c2e64df9465a3b60.so:_RNvMs2_NtCsjAaqe0woR93_3std9backtraceNtB5_9Backtrace13force_capture
libstd-c2e64df9465a3b60.so:_RNvMs2_NtCsjAaqe0woR93_3std9backtraceNtB5_9Backtrace7capture
libstd-c2e64df9465a3b60.so:_RNvMs2_NtNtCsb9yGazm0UdS_4core3fmt8buildersNtB5_10DebugTuple21finish_non_exhaustive
libstd-c2e64df9465a3b60.so:_RNvMs2_NtNtCsb9yGazm0UdS_4core3fmt8buildersNtB5_10DebugTuple5field
libstd-c2e64df9465a3b60.so:_RNvMs2_NtNtCsb9yGazm0UdS_4core3fmt8buildersNtB5_10DebugTuple6finish
libstd-c2e64df9465a3b60.so:_RNvMs2_NtNtCsb9yGazm0UdS_4core3num6bignumNtB5_8Big32x4010bit_length
libstd-c2e64df9465a3b60.so:_RNvMs2_NtNtCsb9yGazm0UdS_4core3num6bignumNtB5_8Big32x4010mul_digits
libstd-c2e64df9465a3b60.so:_RNvMs2_NtNtCsb9yGazm0UdS_4core3num6bignumNtB5_8Big32x4013div_rem_small
libstd-c2e64df9465a3b60.so:_RNvMs2_NtNtCsb9yGazm0UdS_4core3num6bignumNtB5_8Big32x403add
libstd-c2e64df9465a3b60.so:_RNvMs2_NtNtCsb9yGazm0UdS_4core3num6bignumNtB5_8Big32x403sub
libstd-c2e64df9465a3b60.so:_RNvMs2_NtNtCsb9yGazm0UdS_4core3num6bignumNtB5_8Big32x406digits
libstd-c2e64df9465a3b60.so:_RNvMs2_NtNtCsb9yGazm0UdS_4core3num6bignumNtB5_8Big32x407is_zero
libstd-c2e64df9465a3b60.so:_RNvMs2_NtNtCsb9yGazm0UdS_4core3num6bignumNtB5_8Big32x408mul_pow2
libstd-c2e64df9465a3b60.so:_RNvMs2_NtNtCsb9yGazm0UdS_4core3num6bignumNtB5_8Big32x408mul_pow5
libstd-c2e64df9465a3b60.so:_RNvMs2_NtNtCsb9yGazm0UdS_4core3num6bignumNtB5_8Big32x409mul_small
libstd-c2e64df9465a3b60.so:_RNvMs2_NtNtCsjAaqe0woR93_3std2io4pipeNtB5_10PipeReader9try_clone
libstd-c2e64df9465a3b60.so:_RNvMs2_NtNtNtCsb9yGazm0UdS_4core3fmt3num3imph11format_into
libstd-c2e64df9465a3b60.so:_RNvMs2_NtNtNtCsfC9nJ0KPYer_6object4read2pe8resourceNtB5_12ResourceName15to_string_lossy
libstd-c2e64df9465a3b60.so:_RNvMs2_NtNtNtCsfC9nJ0KPYer_6object4read2pe8resourceNtB5_12ResourceName4data
libstd-c2e64df9465a3b60.so:_RNvMs2_NtNtNtCsfC9nJ0KPYer_6object4read2pe8resourceNtB5_12ResourceName8raw_data
libstd-c2e64df9465a3b60.so:_RNvMs3_NtCs1N8gx4w2hz2_5gimli4archNtB5_3Arm13register_name
libstd-c2e64df9465a3b60.so:_RNvMs3_NtCs1N8gx4w2hz2_5gimli4archNtB5_3Arm16name_to_register
libstd-c2e64df9465a3b60.so:_RNvMs3_NtCseSYdJn4aADg_5alloc3stre12to_lowercase
libstd-c2e64df9465a3b60.so:_RNvMs3_NtCseSYdJn4aADg_5alloc3stre12to_uppercase
libstd-c2e64df9465a3b60.so:_RNvMs3_NtCseSYdJn4aADg_5alloc7raw_vecINtB5_6RawVecINtNtB7_3vec3VechEE8grow_oneCsjAaqe0woR93_3std
libstd-c2e64df9465a3b60.so:_RNvMs3_NtCseSYdJn4aADg_5alloc7raw_vecINtB5_6RawVecINtNtB7_5boxed3BoxDINtNtNtCsb9yGazm0UdS_4core3ops8function5FnMutuEp6OutputINtNtB1c_6result6ResultuNtNtNtCsjAaqe0woR93_3std2io5error5ErrorENtNtB1c_6marker4SendNtB32_4SyncEL_EE8grow_oneB2s_
libstd-c2e64df9465a3b60.so:_RNvMs3_NtCseSYdJn4aADg_5alloc7raw_vecINtB5_6RawVecINtNtCs8JUzMjMMAX8_9addr2line4unit7ResUnitINtNtNtCs1N8gx4w2hz2_5gimli4read12endian_slice11EndianSliceNtNtB1z_9endianity12LittleEndianEEE8grow_oneCsjAaqe0woR93_3std
libstd-c2e64df9465a3b60.so:_RNvMs3_NtCseSYdJn4aADg_5alloc7raw_vecINtB5_6RawVecINtNtCs8JUzMjMMAX8_9addr2line4unit7SupUnitINtNtNtCs1N8gx4w2hz2_5gimli4read12endian_slice11EndianSliceNtNtB1z_9endianity12LittleEndianEEE8grow_oneCsjAaqe0woR93_3std
libstd-c2e64df9465a3b60.so:_RNvMs3_NtCseSYdJn4aADg_5alloc7raw_vecINtB5_6RawVecINtNtCs8JUzMjMMAX8_9addr2line8function12LazyFunctionINtNtNtCs1N8gx4w2hz2_5gimli4read12endian_slice11EndianSliceNtNtB1J_9endianity12LittleEndianEEE8grow_oneCsjAaqe0woR93_3std
libstd-c2e64df9465a3b60.so:_RNvMs3_NtCseSYdJn4aADg_5alloc7raw_vecINtB5_6RawVecINtNtCs8JUzMjMMAX8_9addr2line8function15InlinedFunctionINtNtNtCs1N8gx4w2hz2_5gimli4read12endian_slice11EndianSliceNtNtB1M_9endianity12LittleEndianEEE8grow_oneCsjAaqe0woR93_3std
libstd-c2e64df9465a3b60.so:_RNvMs3_NtCseSYdJn4aADg_5alloc7raw_vecINtB5_6RawVecINtNtNtCs1N8gx4w2hz2_5gimli4read4line9FileEntryINtNtBR_12endian_slice11EndianSliceNtNtBT_9endianity12LittleEndianEjEE8grow_oneCsjAaqe0woR93_3std
libstd-c2e64df9465a3b60.so:_RNvMs3_NtCseSYdJn4aADg_5alloc7raw_vecINtB5_6RawVecINtNtNtCs1N8gx4w2hz2_5gimli4read4unit14AttributeValueINtNtBR_12endian_slice11EndianSliceNtNtBT_9endianity12LittleEndianEjEE8grow_oneCsjAaqe0woR93_3std
libstd-c2e64df9465a3b60.so:_RNvMs3_NtCseSYdJn4aADg_5alloc7raw_vecINtB5_6RawVecNtNtB7_6string6StringE8grow_oneCsjAaqe0woR93_3std
libstd-c2e64df9465a3b60.so:_RNvMs3_NtCseSYdJn4aADg_5alloc7raw_vecINtB5_6RawVecNtNtCs8JUzMjMMAX8_9addr2line4line12LineSequenceE8grow_oneCsjAaqe0woR93_3std
libstd-c2e64df9465a3b60.so:_RNvMs3_NtCseSYdJn4aADg_5alloc7raw_vecINtB5_6RawVecNtNtCs8JUzMjMMAX8_9addr2line4line7LineRowE8grow_oneCsjAaqe0woR93_3std
libstd-c2e64df9465a3b60.so:_RNvMs3_NtCseSYdJn4aADg_5alloc7raw_vecINtB5_6RawVecNtNtCs8JUzMjMMAX8_9addr2line4unit9UnitRangeE8grow_oneCsjAaqe0woR93_3std
libstd-c2e64df9465a3b60.so:_RNvMs3_NtCseSYdJn4aADg_5alloc7raw_vecINtB5_6RawVecNtNtCs8JUzMjMMAX8_9addr2line8function15FunctionAddressE8grow_oneCsjAaqe0woR93_3std
libstd-c2e64df9465a3b60.so:_RNvMs3_NtCseSYdJn4aADg_5alloc7raw_vecINtB5_6RawVecNtNtCs8JUzMjMMAX8_9addr2line8function22InlinedFunctionAddressE8grow_oneCsjAaqe0woR93_3std
libstd-c2e64df9465a3b60.so:_RNvMs3_NtCseSYdJn4aADg_5alloc7raw_vecINtB5_6RawVecNtNtCsjAaqe0woR93_3std9backtrace14BacktraceFrameE8grow_oneBQ_
libstd-c2e64df9465a3b60.so:_RNvMs3_NtCseSYdJn4aADg_5alloc7raw_vecINtB5_6RawVecNtNtCsjAaqe0woR93_3std9backtrace15BacktraceSymbolE8grow_oneBQ_
libstd-c2e64df9465a3b60.so:_RNvMs3_NtCseSYdJn4aADg_5alloc7raw_vecINtB5_6RawVecNtNtNtCs1N8gx4w2hz2_5gimli4read4line15FileEntryFormatE8grow_oneCsjAaqe0woR93_3std
libstd-c2e64df9465a3b60.so:_RNvMs3_NtCseSYdJn4aADg_5alloc7raw_vecINtB5_6RawVecNtNtNtCs1N8gx4w2hz2_5gimli4read6abbrev12AbbreviationE8grow_oneBS_
libstd-c2e64df9465a3b60.so:_RNvMs3_NtCseSYdJn4aADg_5alloc7raw_vecINtB5_6RawVecNtNtNtCs1N8gx4w2hz2_5gimli4read6abbrev22AttributeSpecificationE8grow_oneBS_
libstd-c2e64df9465a3b60.so:_RNvMs3_NtCseSYdJn4aADg_5alloc7raw_vecINtB5_6RawVecNtNtNtCsjAaqe0woR93_3std3ffi6os_str8OsStringE8grow_oneBS_
libstd-c2e64df9465a3b60.so:_RNvMs3_NtCseSYdJn4aADg_5alloc7raw_vecINtB5_6RawVecNtNtNtNtCsfC9nJ0KPYer_6object4read2pe6export6ExportE8grow_oneBU_
libstd-c2e64df9465a3b60.so:_RNvMs3_NtCseSYdJn4aADg_5alloc7raw_vecINtB5_6RawVecNtNtNtNtCsjAaqe0woR93_3std12backtrace_rs9symbolize5gimli7LibraryE8grow_oneBU_
libstd-c2e64df9465a3b60.so:_RNvMs3_NtCseSYdJn4aADg_5alloc7raw_vecINtB5_6RawVecNtNtNtNtNtCsjAaqe0woR93_3std12backtrace_rs9symbolize5gimli19parse_running_mmaps9MapsEntryE8grow_oneBW_
libstd-c2e64df9465a3b60.so:_RNvMs3_NtCseSYdJn4aADg_5alloc7raw_vecINtB5_6RawVecNtNtNtNtNtCsjAaqe0woR93_3std12backtrace_rs9symbolize5gimli4mmap4MmapE8grow_oneBW_
libstd-c2e64df9465a3b60.so:_RNvMs3_NtCseSYdJn4aADg_5alloc7raw_vecINtB5_6RawVecPaE8grow_oneCsjAaqe0woR93_3std
libstd-c2e64df9465a3b60.so:_RNvMs3_NtCseSYdJn4aADg_5alloc7raw_vecINtB5_6RawVecRINtNtCs8JUzMjMMAX8_9addr2line8function15InlinedFunctionINtNtNtCs1N8gx4w2hz2_5gimli4read12endian_slice11EndianSliceNtNtB1N_9endianity12LittleEndianEEE8grow_oneCsjAaqe0woR93_3std
libstd-c2e64df9465a3b60.so:_RNvMs3_NtCseSYdJn4aADg_5alloc7raw_vecINtB5_6RawVecTNtNtCs1N8gx4w2hz2_5gimli6common15DebugInfoOffsetNtBP_18DebugArangesOffsetEE8grow_oneCsjAaqe0woR93_3std
libstd-c2e64df9465a3b60.so:_RNvMs3_NtCseSYdJn4aADg_5alloc7raw_vecINtB5_6RawVecTNtNtNtCsjAaqe0woR93_3std3ffi6os_str8OsStringBN_EE8grow_oneBT_
libstd-c2e64df9465a3b60.so:_RNvMs3_NtCseSYdJn4aADg_5alloc7raw_vecINtB5_6RawVecTOhFUKCBN_EuENtNtCsjAaqe0woR93_3std5alloc6SystemE8grow_oneB13_
libstd-c2e64df9465a3b60.so:_RNvMs3_NtCseSYdJn4aADg_5alloc7raw_vecINtB5_6RawVechE8grow_oneB7_
libstd-c2e64df9465a3b60.so:_RNvMs3_NtCsjAaqe0woR93_3std9backtraceNtB5_9Backtrace6frames
libstd-c2e64df9465a3b60.so:_RNvMs3_NtNtCsb9yGazm0UdS_4core3ffi5c_strNtB5_4CStr19from_bytes_with_nul
libstd-c2e64df9465a3b60.so:_RNvMs3_NtNtCsb9yGazm0UdS_4core3ffi5c_strNtB5_4CStr20from_bytes_until_nul
libstd-c2e64df9465a3b60.so:_RNvMs3_NtNtCsb9yGazm0UdS_4core3ffi5c_strNtB5_4CStr6to_str
libstd-c2e64df9465a3b60.so:_RNvMs3_NtNtCsb9yGazm0UdS_4core3net6parserNtNtB7_7ip_addr8Ipv6Addr11parse_ascii
libstd-c2e64df9465a3b60.so:_RNvMs3_NtNtCsjAaqe0woR93_3std2io4pipeNtB5_10PipeWriter9try_clone
libstd-c2e64df9465a3b60.so:_RNvMs4_NtCseSYdJn4aADg_5alloc7raw_vecNtB5_11RawVecInner11finish_growCs1N8gx4w2hz2_5gimli
libstd-c2e64df9465a3b60.so:_RNvMs4_NtCseSYdJn4aADg_5alloc7raw_vecNtB5_11RawVecInner14grow_amortizedCs1N8gx4w2hz2_5gimli
libstd-c2e64df9465a3b60.so:_RNvMs4_NtCseSYdJn4aADg_5alloc7raw_vecNtB5_11RawVecInner15try_allocate_inCs1N8gx4w2hz2_5gimli
libstd-c2e64df9465a3b60.so:_RNvMs4_NtNtCs1N8gx4w2hz2_5gimli4read6abbrevNtB5_13Abbreviations6insert
libstd-c2e64df9465a3b60.so:_RNvMs4_NtNtCsb9yGazm0UdS_4core3fmt8buildersNtB5_8DebugSet21finish_non_exhaustive
libstd-c2e64df9465a3b60.so:_RNvMs4_NtNtCsb9yGazm0UdS_4core3fmt8buildersNtB5_8DebugSet5entry
libstd-c2e64df9465a3b60.so:_RNvMs4_NtNtCsb9yGazm0UdS_4core3fmt8buildersNtB5_8DebugSet6finish
libstd-c2e64df9465a3b60.so:_RNvMs4_NtNtNtCsfC9nJ0KPYer_6object4read2pe6importNtB5_20DelayLoadImportTable4name
libstd-c2e64df9465a3b60.so:_RNvMs4_NtNtNtCsfC9nJ0KPYer_6object4read2pe6importNtB5_20DelayLoadImportTable9hint_name
libstd-c2e64df9465a3b60.so:_RNvMs5P_NtCs1N8gx4w2hz2_5gimli9constantsNtB6_4DwOp13static_string
libstd-c2e64df9465a3b60.so:_RNvMs5_NtCseSYdJn4aADg_5alloc4wtf8NtNtCsb9yGazm0UdS_4core4wtf84Wtf810clone_into
libstd-c2e64df9465a3b60.so:_RNvMs5_NtCseSYdJn4aADg_5alloc4wtf8NtNtCsb9yGazm0UdS_4core4wtf84Wtf815to_string_lossy
libstd-c2e64df9465a3b60.so:_RNvMs5_NtCseSYdJn4aADg_5alloc4wtf8NtNtCsb9yGazm0UdS_4core4wtf84Wtf87into_rc
libstd-c2e64df9465a3b60.so:_RNvMs5_NtCseSYdJn4aADg_5alloc4wtf8NtNtCsb9yGazm0UdS_4core4wtf84Wtf88into_arc
libstd-c2e64df9465a3b60.so:_RNvMs5_NtCseSYdJn4aADg_5alloc4wtf8NtNtCsb9yGazm0UdS_4core4wtf84Wtf88into_box
libstd-c2e64df9465a3b60.so:_RNvMs5_NtCseSYdJn4aADg_5alloc4wtf8NtNtCsb9yGazm0UdS_4core4wtf84Wtf88to_owned
libstd-c2e64df9465a3b60.so:_RNvMs5_NtCsjAaqe0woR93_3std4timeNtB5_10SystemTime11checked_add
libstd-c2e64df9465a3b60.so:_RNvMs5_NtCsjAaqe0woR93_3std4timeNtB5_10SystemTime11checked_sub
libstd-c2e64df9465a3b60.so:_RNvMs5_NtCsjAaqe0woR93_3std4timeNtB5_10SystemTime14duration_since
libstd-c2e64df9465a3b60.so:_RNvMs5_NtCsjAaqe0woR93_3std4timeNtB5_10SystemTime14saturating_add
libstd-c2e64df9465a3b60.so:_RNvMs5_NtCsjAaqe0woR93_3std4timeNtB5_10SystemTime14saturating_sub
libstd-c2e64df9465a3b60.so:_RNvMs5_NtCsjAaqe0woR93_3std4timeNtB5_10SystemTime25saturating_duration_since
libstd-c2e64df9465a3b60.so:_RNvMs5_NtCsjAaqe0woR93_3std4timeNtB5_10SystemTime3now
libstd-c2e64df9465a3b60.so:_RNvMs5_NtCsjAaqe0woR93_3std4timeNtB5_10SystemTime7elapsed
libstd-c2e64df9465a3b60.so:_RNvMs5_NtNtCs1N8gx4w2hz2_5gimli4read6abbrevNtB5_12Abbreviation3new
libstd-c2e64df9465a3b60.so:_RNvMs5_NtNtCsb9yGazm0UdS_4core3fmt8buildersNtB5_9DebugList21finish_non_exhaustive
libstd-c2e64df9465a3b60.so:_RNvMs5_NtNtCsb9yGazm0UdS_4core3fmt8buildersNtB5_9DebugList5entry
libstd-c2e64df9465a3b60.so:_RNvMs5_NtNtCsb9yGazm0UdS_4core3fmt8buildersNtB5_9DebugList6finish
libstd-c2e64df9465a3b60.so:_RNvMs5_NtNtCsb9yGazm0UdS_4core3net6parserNtNtB7_11socket_addr12SocketAddrV411parse_ascii
libstd-c2e64df9465a3b60.so:_RNvMs5_NtNtCsjAaqe0woR93_3std2io5errorNtB5_5Error4__new
libstd-c2e64df9465a3b60.so:_RNvMs5_NtNtNtCsb9yGazm0UdS_4core3fmt3num3impt4__fmt
libstd-c2e64df9465a3b60.so:_RNvMs5_NtNtNtCsfC9nJ0KPYer_6object4read2pe6importNtB5_27DelayLoadDescriptorIterator4next
libstd-c2e64df9465a3b60.so:_RNvMs5_NtNtNtCsfC9nJ0KPYer_6object4read3elf10attributesNtB5_22AttributeIndexIterator4next
libstd-c2e64df9465a3b60.so:_RNvMs5_NtNtNtNtCsjAaqe0woR93_3std2os4unix3net9ancillaryNtB5_15SocketAncillary7add_fds
libstd-c2e64df9465a3b60.so:_RNvMs5_NtNtNtNtCsjAaqe0woR93_3std2os4unix3net9ancillaryNtB5_15SocketAncillary8messages
libstd-c2e64df9465a3b60.so:_RNvMs5_NtNtNtNtCsjAaqe0woR93_3std2os4unix3net9ancillaryNtB5_15SocketAncillary9add_creds
libstd-c2e64df9465a3b60.so:_RNvMs6_NtNtCs1N8gx4w2hz2_5gimli4read6abbrevNtB5_10Attributes4push
libstd-c2e64df9465a3b60.so:_RNvMs6_NtNtCsb9yGazm0UdS_4core3fmt8buildersNtB5_8DebugMap21finish_non_exhaustive
libstd-c2e64df9465a3b60.so:_RNvMs6_NtNtCsb9yGazm0UdS_4core3fmt8buildersNtB5_8DebugMap3key
libstd-c2e64df9465a3b60.so:_RNvMs6_NtNtCsb9yGazm0UdS_4core3fmt8buildersNtB5_8DebugMap5entry
libstd-c2e64df9465a3b60.so:_RNvMs6_NtNtCsb9yGazm0UdS_4core3fmt8buildersNtB5_8DebugMap5value
libstd-c2e64df9465a3b60.so:_RNvMs6_NtNtCsb9yGazm0UdS_4core3fmt8buildersNtB5_8DebugMap6finish
libstd-c2e64df9465a3b60.so:_RNvMs6_NtNtNtCsb9yGazm0UdS_4core3fmt3num3imps11format_into
libstd-c2e64df9465a3b60.so:_RNvMs6_NtNtNtCsfC9nJ0KPYer_6object4read2pe7sectionNtNtNtB9_4coff7section12SectionTable16pe_file_range_at
libstd-c2e64df9465a3b60.so:_RNvMs6_NtNtNtCsfC9nJ0KPYer_6object4read2pe7sectionNtNtNtB9_4coff7section12SectionTable18section_containing
libstd-c2e64df9465a3b60.so:_RNvMs6_NtNtNtNtCseSYdJn4aADg_5alloc11collections5btree3map5entryINtB5_11VacantEntryyNtNtNtCs1N8gx4w2hz2_5gimli4read6abbrev12AbbreviationE12insert_entryB1q_
libstd-c2e64df9465a3b60.so:_RNvMs7_NtNtCsb9yGazm0UdS_4core3net6parserNtNtB7_11socket_addr12SocketAddrV611parse_ascii
libstd-c2e64df9465a3b60.so:_RNvMs7_NtNtCsjAaqe0woR93_3std3net3tcpNtB5_11TcpListener10local_addr
libstd-c2e64df9465a3b60.so:_RNvMs7_NtNtCsjAaqe0woR93_3std3net3tcpNtB5_11TcpListener10take_error
libstd-c2e64df9465a3b60.so:_RNvMs7_NtNtCsjAaqe0woR93_3std3net3tcpNtB5_11TcpListener11set_only_v6
libstd-c2e64df9465a3b60.so:_RNvMs7_NtNtCsjAaqe0woR93_3std3net3tcpNtB5_11TcpListener15set_nonblocking
libstd-c2e64df9465a3b60.so:_RNvMs7_NtNtCsjAaqe0woR93_3std3net3tcpNtB5_11TcpListener3ttl
libstd-c2e64df9465a3b60.so:_RNvMs7_NtNtCsjAaqe0woR93_3std3net3tcpNtB5_11TcpListener6accept
libstd-c2e64df9465a3b60.so:_RNvMs7_NtNtCsjAaqe0woR93_3std3net3tcpNtB5_11TcpListener7only_v6
libstd-c2e64df9465a3b60.so:_RNvMs7_NtNtCsjAaqe0woR93_3std3net3tcpNtB5_11TcpListener7set_ttl
libstd-c2e64df9465a3b60.so:_RNvMs7_NtNtCsjAaqe0woR93_3std3net3tcpNtB5_11TcpListener9try_clone
libstd-c2e64df9465a3b60.so:_RNvMs7_NtNtNtCsb9yGazm0UdS_4core3fmt3num3impt11format_into
libstd-c2e64df9465a3b60.so:_RNvMs7_NtNtNtCsfC9nJ0KPYer_6object4read2pe7sectionNtNtBb_2pe18ImageSectionHeader13pe_file_range
libstd-c2e64df9465a3b60.so:_RNvMs7_NtNtNtCsfC9nJ0KPYer_6object4read2pe7sectionNtNtBb_2pe18ImageSectionHeader16pe_file_range_at
libstd-c2e64df9465a3b60.so:_RNvMs7_NtNtNtCsfC9nJ0KPYer_6object4read3elf10attributesNtB5_15AttributeReader11read_string
libstd-c2e64df9465a3b60.so:_RNvMs7_NtNtNtCsfC9nJ0KPYer_6object4read3elf10attributesNtB5_15AttributeReader12read_integer
libstd-c2e64df9465a3b60.so:_RNvMs7_NtNtNtCsfC9nJ0KPYer_6object4read3elf10attributesNtB5_15AttributeReader8read_tag
libstd-c2e64df9465a3b60.so:_RNvMs7_NtNtNtNtCseSYdJn4aADg_5alloc11collections5btree3map5entryINtB5_13OccupiedEntryyNtNtNtCs1N8gx4w2hz2_5gimli4read6abbrev12AbbreviationE8into_mutB1s_
libstd-c2e64df9465a3b60.so:_RNvMs8_NtCsjAaqe0woR93_3std2ioNtB5_7IoSlice8as_slice
libstd-c2e64df9465a3b60.so:_RNvMs8_NtCsjAaqe0woR93_3std4pathNtB5_10Components7as_path
libstd-c2e64df9465a3b60.so:_RNvMs8_NtNtNtCsfC9nJ0KPYer_6object4read4coff7sectionNtNtBb_2pe18ImageSectionHeader11name_offset
libstd-c2e64df9465a3b60.so:_RNvMs8_NtNtNtCsfC9nJ0KPYer_6object4read4coff7sectionNtNtBb_2pe18ImageSectionHeader8raw_name
libstd-c2e64df9465a3b60.so:_RNvMs9_NtCs1N8gx4w2hz2_5gimli4archNtB5_7AArch6413register_name
libstd-c2e64df9465a3b60.so:_RNvMs9_NtCs1N8gx4w2hz2_5gimli4archNtB5_7AArch6416name_to_register
libstd-c2e64df9465a3b60.so:_RNvMs9_NtNtCsb9yGazm0UdS_4core3net6parserNtNtB7_11socket_addr10SocketAddr11parse_ascii
libstd-c2e64df9465a3b60.so:_RNvMsC_NtCsjAaqe0woR93_3std2fsNtB5_8DirEntry4path
libstd-c2e64df9465a3b60.so:_RNvMsC_NtCsjAaqe0woR93_3std2fsNtB5_8DirEntry8metadata
libstd-c2e64df9465a3b60.so:_RNvMsC_NtCsjAaqe0woR93_3std2fsNtB5_8DirEntry9file_name
libstd-c2e64df9465a3b60.so:_RNvMsC_NtCsjAaqe0woR93_3std2fsNtB5_8DirEntry9file_type
libstd-c2e64df9465a3b60.so:_RNvMsD_NtCs1N8gx4w2hz2_5gimli4archNtB5_6X86_6413register_name
libstd-c2e64df9465a3b60.so:_RNvMsD_NtCs1N8gx4w2hz2_5gimli4archNtB5_6X86_6416name_to_register
libstd-c2e64df9465a3b60.so:_RNvMsD_NtNtCseSYdJn4aADg_5alloc3ffi5c_strNtNtNtCsb9yGazm0UdS_4core3ffi5c_str4CStr13into_c_string
libstd-c2e64df9465a3b60.so:_RNvMsD_NtNtCseSYdJn4aADg_5alloc3ffi5c_strNtNtNtCsb9yGazm0UdS_4core3ffi5c_str4CStr15to_string_lossy
libstd-c2e64df9465a3b60.so:_RNvMsF_NtCsjAaqe0woR93_3std2fsNtB5_10DirBuilder7__create
libstd-c2e64df9465a3b60.so:_RNvMsJ_NtCs1N8gx4w2hz2_5gimli4archNtB5_9PowerPc6413register_name
libstd-c2e64df9465a3b60.so:_RNvMsJ_NtCs1N8gx4w2hz2_5gimli4archNtB5_9PowerPc6416name_to_register
libstd-c2e64df9465a3b60.so:_RNvMsJ_NtNtNtCseSYdJn4aADg_5alloc11collections5btree4nodeINtB5_6HandleINtB5_7NodeRefNtNtB5_6marker3MutyNtNtNtCs1N8gx4w2hz2_5gimli4read6abbrev12AbbreviationNtB1m_4LeafENtB1m_4EdgeE10insert_fitB1J_
libstd-c2e64df9465a3b60.so:_RNvMsL_NtNtNtCseSYdJn4aADg_5alloc11collections5btree4nodeINtB5_6HandleINtB5_7NodeRefNtNtB5_6marker3MutyNtNtNtCs1N8gx4w2hz2_5gimli4read6abbrev12AbbreviationNtB1m_8InternalENtB1m_4EdgeE19correct_parent_linkB1J_
libstd-c2e64df9465a3b60.so:_RNvMsM_NtNtNtCseSYdJn4aADg_5alloc11collections5btree4nodeINtB5_6HandleINtB5_7NodeRefNtNtB5_6marker3MutyNtNtNtCs1N8gx4w2hz2_5gimli4read6abbrev12AbbreviationNtB1m_8InternalENtB1m_4EdgeE10insert_fitB1J_
libstd-c2e64df9465a3b60.so:_RNvMsN_NtCsjAaqe0woR93_3std7processNtB5_15ExitStatusError12code_nonzero
libstd-c2e64df9465a3b60.so:_RNvMsN_NtCsjAaqe0woR93_3std7processNtB5_15ExitStatusError4code
libstd-c2e64df9465a3b60.so:_RNvMsP_NtNtNtCseSYdJn4aADg_5alloc11collections5btree4nodeINtB5_6HandleINtB5_7NodeRefNtNtB5_6marker5ImmutyNtNtNtCs1N8gx4w2hz2_5gimli4read6abbrev12AbbreviationNtB1m_14LeafOrInternalENtB1m_2KVE7into_kvB1L_
libstd-c2e64df9465a3b60.so:_RNvMsQ_NtNtNtCseSYdJn4aADg_5alloc11collections5btree4nodeINtB5_6HandleINtB5_7NodeRefNtNtB5_6marker3MutyNtNtNtCs1N8gx4w2hz2_5gimli4read6abbrev12AbbreviationNtB1m_14LeafOrInternalENtB1m_2KVE12into_val_mutB1J_
libstd-c2e64df9465a3b60.so:_RNvMsS_NtCsjAaqe0woR93_3std7processNtB5_8ExitCode12exit_process
libstd-c2e64df9465a3b60.so:_RNvMsS_NtCsjnMSqt2aXJ2_9hashbrown3rawNtB5_18RawIterHashIndices3new
libstd-c2e64df9465a3b60.so:_RNvMsU_NtNtNtCseSYdJn4aADg_5alloc11collections5btree4nodeINtB5_6HandleINtB5_7NodeRefNtNtB5_6marker3MutyNtNtNtCs1N8gx4w2hz2_5gimli4read6abbrev12AbbreviationNtB1m_4LeafENtB1m_2KVE15split_leaf_dataB1J_
libstd-c2e64df9465a3b60.so:_RNvMsU_NtNtNtCseSYdJn4aADg_5alloc11collections5btree4nodeINtB5_6HandleINtB5_7NodeRefNtNtB5_6marker3MutyNtNtNtCs1N8gx4w2hz2_5gimli4read6abbrev12AbbreviationNtB1m_8InternalENtB1m_2KVE15split_leaf_dataB1J_
libstd-c2e64df9465a3b60.so:_RNvMsY_NtCsjAaqe0woR93_3std7processNtB5_5Child16wait_with_output
libstd-c2e64df9465a3b60.so:_RNvMsY_NtCsjAaqe0woR93_3std7processNtB5_5Child4kill
libstd-c2e64df9465a3b60.so:_RNvMsY_NtCsjAaqe0woR93_3std7processNtB5_5Child4wait
libstd-c2e64df9465a3b60.so:_RNvMsY_NtCsjAaqe0woR93_3std7processNtB5_5Child8try_wait
libstd-c2e64df9465a3b60.so:_RNvMsZ_NtCs1N8gx4w2hz2_5gimli9constantsNtB5_5DwTag13static_string
libstd-c2e64df9465a3b60.so:_RNvMs_NtCs1N8gx4w2hz2_5gimli4readNtB4_5Error11description
libstd-c2e64df9465a3b60.so:_RNvMs_NtCs8JUzMjMMAX8_9addr2line4lineNtB4_5Lines13find_location
libstd-c2e64df9465a3b60.so:_RNvMs_NtCs8JUzMjMMAX8_9addr2line4lineNtB4_5Lines19find_location_range
libstd-c2e64df9465a3b60.so:_RNvMs_NtCsb9yGazm0UdS_4core3fmtNtB4_17FormattingOptions8get_fill
libstd-c2e64df9465a3b60.so:_RNvMs_NtCseSYdJn4aADg_5alloc3vecINtB4_3VechE7reserveCs8JUzMjMMAX8_9addr2line
libstd-c2e64df9465a3b60.so:_RNvMs_NtCseSYdJn4aADg_5alloc5boxedINtB4_3BoxINtNtNtNtB6_11collections5btree4node12InternalNodeyNtNtNtCs1N8gx4w2hz2_5gimli4read6abbrev12AbbreviationEE13new_uninit_inB1B_
libstd-c2e64df9465a3b60.so:_RNvMs_NtCseSYdJn4aADg_5alloc5boxedINtB4_3BoxINtNtNtNtB6_11collections5btree4node12InternalNodeyNtNtNtCs1N8gx4w2hz2_5gimli4read6abbrev12AbbreviationEE17try_new_uninit_inB1B_
libstd-c2e64df9465a3b60.so:_RNvMs_NtCseSYdJn4aADg_5alloc5boxedINtB4_3BoxINtNtNtNtB6_11collections5btree4node8LeafNodeyNtNtNtCs1N8gx4w2hz2_5gimli4read6abbrev12AbbreviationEE13new_uninit_inB1w_
libstd-c2e64df9465a3b60.so:_RNvMs_NtCseSYdJn4aADg_5alloc5boxedINtB4_3BoxINtNtNtNtB6_11collections5btree4node8LeafNodeyNtNtNtCs1N8gx4w2hz2_5gimli4read6abbrev12AbbreviationEE17try_new_uninit_inB1w_
libstd-c2e64df9465a3b60.so:_RNvMs_NtCseSYdJn4aADg_5alloc6stringNtB4_13FromUtf8Error15into_utf8_lossy
libstd-c2e64df9465a3b60.so:_RNvMs_NtNtCs1N8gx4w2hz2_5gimli4read5valueNtB4_5Value11reinterpret
libstd-c2e64df9465a3b60.so:_RNvMs_NtNtCs1N8gx4w2hz2_5gimli4read5valueNtB4_5Value2or
libstd-c2e64df9465a3b60.so:_RNvMs_NtNtCs1N8gx4w2hz2_5gimli4read5valueNtB4_5Value3and
libstd-c2e64df9465a3b60.so:_RNvMs_NtNtCs1N8gx4w2hz2_5gimli4read5valueNtB4_5Value3div
libstd-c2e64df9465a3b60.so:_RNvMs_NtNtCs1N8gx4w2hz2_5gimli4read5valueNtB4_5Value3not
libstd-c2e64df9465a3b60.so:_RNvMs_NtNtCs1N8gx4w2hz2_5gimli4read5valueNtB4_5Value3rem
libstd-c2e64df9465a3b60.so:_RNvMs_NtNtCs1N8gx4w2hz2_5gimli4read5valueNtB4_5Value3shl
libstd-c2e64df9465a3b60.so:_RNvMs_NtNtCs1N8gx4w2hz2_5gimli4read5valueNtB4_5Value3shr
libstd-c2e64df9465a3b60.so:_RNvMs_NtNtCs1N8gx4w2hz2_5gimli4read5valueNtB4_5Value3xor
libstd-c2e64df9465a3b60.so:_RNvMs_NtNtCs1N8gx4w2hz2_5gimli4read5valueNtB4_5Value4shra
libstd-c2e64df9465a3b60.so:_RNvMs_NtNtCs1N8gx4w2hz2_5gimli4read5valueNtB4_5Value7convert
libstd-c2e64df9465a3b60.so:_RNvMs_NtNtCsb9yGazm0UdS_4core3fmt8buildersNtB4_10PadAdapter4wrap
libstd-c2e64df9465a3b60.so:_RNvMs_NtNtCsb9yGazm0UdS_4core3net6parserNtNtB6_7ip_addr6IpAddr11parse_ascii
libstd-c2e64df9465a3b60.so:_RNvMs_NtNtCsb9yGazm0UdS_4core3num3fmtNtB4_9Formatted3len
libstd-c2e64df9465a3b60.so:_RNvMs_NtNtCsb9yGazm0UdS_4core3num3fmtNtB4_9Formatted5write
libstd-c2e64df9465a3b60.so:_RNvMs_NtNtCseSYdJn4aADg_5alloc3ffi5c_strNtB4_7CString10into_bytes
libstd-c2e64df9465a3b60.so:_RNvMs_NtNtCseSYdJn4aADg_5alloc3ffi5c_strNtB4_7CString11into_string
libstd-c2e64df9465a3b60.so:_RNvMs_NtNtCseSYdJn4aADg_5alloc3ffi5c_strNtB4_7CString16into_boxed_c_str
libstd-c2e64df9465a3b60.so:_RNvMs_NtNtCseSYdJn4aADg_5alloc3ffi5c_strNtB4_7CString17from_vec_with_nul
libstd-c2e64df9465a3b60.so:_RNvMs_NtNtCseSYdJn4aADg_5alloc3ffi5c_strNtB4_7CString18from_vec_unchecked
libstd-c2e64df9465a3b60.so:_RNvMs_NtNtCseSYdJn4aADg_5alloc3ffi5c_strNtB4_7CString19__from_vec_unchecked
libstd-c2e64df9465a3b60.so:_RNvMs_NtNtCseSYdJn4aADg_5alloc3ffi5c_strNtB4_7CString19into_bytes_with_nul
libstd-c2e64df9465a3b60.so:_RNvMs_NtNtCseSYdJn4aADg_5alloc3ffi5c_strNtB4_7CString27from_vec_with_nul_unchecked
libstd-c2e64df9465a3b60.so:_RNvMs_NtNtCseSYdJn4aADg_5alloc3ffi5c_strNtB4_7CString8from_raw
libstd-c2e64df9465a3b60.so:_RNvMs_NtNtCsfC9nJ0KPYer_6object4read4utilNtB4_5Bytes12read_sleb128
libstd-c2e64df9465a3b60.so:_RNvMs_NtNtCsfC9nJ0KPYer_6object4read4utilNtB4_5Bytes12read_uleb128
libstd-c2e64df9465a3b60.so:_RNvMs_NtNtCsjAaqe0woR93_3std12backtrace_rs9symbolizeNtB4_6Symbol12filename_raw
libstd-c2e64df9465a3b60.so:_RNvMs_NtNtCsjAaqe0woR93_3std12backtrace_rs9symbolizeNtB4_6Symbol4name
libstd-c2e64df9465a3b60.so:_RNvMs_NtNtCsjAaqe0woR93_3std6thread6threadNtB4_6Thread12park_timeout
libstd-c2e64df9465a3b60.so:_RNvMs_NtNtCsjAaqe0woR93_3std6thread6threadNtB4_6Thread3new
libstd-c2e64df9465a3b60.so:_RNvMs_NtNtCsjAaqe0woR93_3std6thread6threadNtB4_6Thread4name
libstd-c2e64df9465a3b60.so:_RNvMs_NtNtCsjAaqe0woR93_3std6thread6threadNtB4_6Thread4park
libstd-c2e64df9465a3b60.so:_RNvMs_NtNtCsjAaqe0woR93_3std6thread6threadNtB4_6Thread8from_raw
libstd-c2e64df9465a3b60.so:_RNvMs_NtNtCsjAaqe0woR93_3std6thread9spawnhookNtB4_15ChildSpawnHooks3run
libstd-c2e64df9465a3b60.so:_RNvMs_NtNtNtCsb9yGazm0UdS_4core3num7dec2flt11decimal_seqNtB4_10DecimalSeq10left_shift
libstd-c2e64df9465a3b60.so:_RNvMs_NtNtNtCsb9yGazm0UdS_4core3num7dec2flt11decimal_seqNtB4_10DecimalSeq11right_shift
libstd-c2e64df9465a3b60.so:_RNvMs_NtNtNtCsb9yGazm0UdS_4core3num7dec2flt11decimal_seqNtB4_10DecimalSeq5round
libstd-c2e64df9465a3b60.so:_RNvMs_NtNtNtCsfC9nJ0KPYer_6object4read2pe14data_directoryNtNtBa_2pe18ImageDataDirectory10file_range
libstd-c2e64df9465a3b60.so:_RNvMs_NtNtNtCsfC9nJ0KPYer_6object4read2pe6importNtB4_24ImportDescriptorIterator4next
libstd-c2e64df9465a3b60.so:_RNvMs_NtNtNtCsjAaqe0woR93_3std2io8buffered9bufwriterINtB4_9BufWriterNtNtB8_5stdio9StdoutRawE10write_coldBa_
libstd-c2e64df9465a3b60.so:_RNvMs_NtNtNtCsjAaqe0woR93_3std2io8buffered9bufwriterINtB4_9BufWriterNtNtB8_5stdio9StdoutRawE14write_all_coldBa_
libstd-c2e64df9465a3b60.so:_RNvMs_NtNtNtCsjAaqe0woR93_3std2os2fd5ownedNtB4_7OwnedFd9try_clone
libstd-c2e64df9465a3b60.so:_RNvMs_NtNtNtCsjAaqe0woR93_3std3sys7process3envNtB4_10CommandEnv3set
libstd-c2e64df9465a3b60.so:_RNvMs_NtNtNtCsjAaqe0woR93_3std3sys7process3envNtB4_10CommandEnv6remove
libstd-c2e64df9465a3b60.so:_RNvMs_NtNtNtNtCsjAaqe0woR93_3std2os4unix3net8listenerNtB4_12UnixListener10local_addr
libstd-c2e64df9465a3b60.so:_RNvMs_NtNtNtNtCsjAaqe0woR93_3std2os4unix3net8listenerNtB4_12UnixListener10take_error
libstd-c2e64df9465a3b60.so:_RNvMs_NtNtNtNtCsjAaqe0woR93_3std2os4unix3net8listenerNtB4_12UnixListener15set_nonblocking
libstd-c2e64df9465a3b60.so:_RNvMs_NtNtNtNtCsjAaqe0woR93_3std2os4unix3net8listenerNtB4_12UnixListener6accept
libstd-c2e64df9465a3b60.so:_RNvMs_NtNtNtNtCsjAaqe0woR93_3std2os4unix3net8listenerNtB4_12UnixListener9bind_addr
libstd-c2e64df9465a3b60.so:_RNvMs_NtNtNtNtCsjAaqe0woR93_3std2os4unix3net8listenerNtB4_12UnixListener9try_clone
libstd-c2e64df9465a3b60.so:_RNvMs_NtNtNtNtCsjAaqe0woR93_3std3sys7process4unix6commonNtB4_7Command3arg
libstd-c2e64df9465a3b60.so:_RNvMs_NtNtNtNtCsjAaqe0woR93_3std3sys7process4unix6commonNtB4_7Command3cwd
libstd-c2e64df9465a3b60.so:_RNvMs_NtNtNtNtCsjAaqe0woR93_3std3sys7process4unix6commonNtB4_7Command3new
libstd-c2e64df9465a3b60.so:_RNvMs_NtNtNtNtCsjAaqe0woR93_3std3sys7process4unix6commonNtB4_7Command5stdin
libstd-c2e64df9465a3b60.so:_RNvMs_NtNtNtNtCsjAaqe0woR93_3std3sys7process4unix6commonNtB4_7Command6chroot
libstd-c2e64df9465a3b60.so:_RNvMs_NtNtNtNtCsjAaqe0woR93_3std3sys7process4unix6commonNtB4_7Command6stderr
libstd-c2e64df9465a3b60.so:_RNvMs_NtNtNtNtCsjAaqe0woR93_3std3sys7process4unix6commonNtB4_7Command6stdout
libstd-c2e64df9465a3b60.so:_RNvMs_NtNtNtNtCsjAaqe0woR93_3std3sys7process4unix6commonNtB4_7Command8pre_exec
libstd-c2e64df9465a3b60.so:_RNvMs_NtNtNtNtCsjAaqe0woR93_3std3sys7process4unix6commonNtB4_7Command9set_arg_0
libstd-c2e64df9465a3b60.so:_RNvMsa_NtCsb9yGazm0UdS_4core3fmtNtB5_9Formatter10debug_list
libstd-c2e64df9465a3b60.so:_RNvMsa_NtCsb9yGazm0UdS_4core3fmtNtB5_9Formatter11debug_tuple
libstd-c2e64df9465a3b60.so:_RNvMsa_NtCsb9yGazm0UdS_4core3fmtNtB5_9Formatter12debug_struct
libstd-c2e64df9465a3b60.so:_RNvMsa_NtCsb9yGazm0UdS_4core3fmtNtB5_9Formatter12pad_integral
libstd-c2e64df9465a3b60.so:_RNvMsa_NtCsb9yGazm0UdS_4core3fmtNtB5_9Formatter25debug_tuple_field1_finish
libstd-c2e64df9465a3b60.so:_RNvMsa_NtCsb9yGazm0UdS_4core3fmtNtB5_9Formatter25debug_tuple_field2_finish
libstd-c2e64df9465a3b60.so:_RNvMsa_NtCsb9yGazm0UdS_4core3fmtNtB5_9Formatter25debug_tuple_field3_finish
libstd-c2e64df9465a3b60.so:_RNvMsa_NtCsb9yGazm0UdS_4core3fmtNtB5_9Formatter25debug_tuple_field4_finish
libstd-c2e64df9465a3b60.so:_RNvMsa_NtCsb9yGazm0UdS_4core3fmtNtB5_9Formatter25debug_tuple_field5_finish
libstd-c2e64df9465a3b60.so:_RNvMsa_NtCsb9yGazm0UdS_4core3fmtNtB5_9Formatter25debug_tuple_fields_finish
libstd-c2e64df9465a3b60.so:_RNvMsa_NtCsb9yGazm0UdS_4core3fmtNtB5_9Formatter26debug_struct_field1_finish
libstd-c2e64df9465a3b60.so:_RNvMsa_NtCsb9yGazm0UdS_4core3fmtNtB5_9Formatter26debug_struct_field2_finish
libstd-c2e64df9465a3b60.so:_RNvMsa_NtCsb9yGazm0UdS_4core3fmtNtB5_9Formatter26debug_struct_field3_finish
libstd-c2e64df9465a3b60.so:_RNvMsa_NtCsb9yGazm0UdS_4core3fmtNtB5_9Formatter26debug_struct_field4_finish
libstd-c2e64df9465a3b60.so:_RNvMsa_NtCsb9yGazm0UdS_4core3fmtNtB5_9Formatter26debug_struct_field5_finish
libstd-c2e64df9465a3b60.so:_RNvMsa_NtCsb9yGazm0UdS_4core3fmtNtB5_9Formatter26debug_struct_fields_finish
libstd-c2e64df9465a3b60.so:_RNvMsa_NtCsb9yGazm0UdS_4core3fmtNtB5_9Formatter3pad
libstd-c2e64df9465a3b60.so:_RNvMsa_NtCsb9yGazm0UdS_4core3fmtNtB5_9Formatter4fill
libstd-c2e64df9465a3b60.so:_RNvMsa_NtCsb9yGazm0UdS_4core3fmtNtB5_9Formatter9debug_map
libstd-c2e64df9465a3b60.so:_RNvMsa_NtCsb9yGazm0UdS_4core3fmtNtB5_9Formatter9debug_set
libstd-c2e64df9465a3b60.so:_RNvMsa_NtCsb9yGazm0UdS_4core3fmtNtB5_9Formatter9write_str
libstd-c2e64df9465a3b60.so:_RNvMsa_NtCsfC9nJ0KPYer_6object4readNtB5_9ObjectMap3get
libstd-c2e64df9465a3b60.so:_RNvMsa_NtNtCsjAaqe0woR93_3std2io5stdioNtB5_6Stdout4lock
libstd-c2e64df9465a3b60.so:_RNvMsa_NtNtNtCsb9yGazm0UdS_4core3fmt3num3impm4__fmt
libstd-c2e64df9465a3b60.so:_RNvMsa_NtNtNtNtCsjAaqe0woR93_3std3sys3net10connection6socketNtB5_9UdpSocket7send_to
libstd-c2e64df9465a3b60.so:_RNvMsb_NtNtNtCsb9yGazm0UdS_4core3fmt3num3impl11format_into
libstd-c2e64df9465a3b60.so:_RNvMsc_NtNtNtCsb9yGazm0UdS_4core3fmt3num3impm11format_into
libstd-c2e64df9465a3b60.so:_RNvMse_NtNtNtCsfC9nJ0KPYer_6object4read3elf10relocationNtB5_12CrelIterator3new
libstd-c2e64df9465a3b60.so:_RNvMsf_NtCs1N8gx4w2hz2_5gimli4archNtB5_9LoongArch13register_name
libstd-c2e64df9465a3b60.so:_RNvMsf_NtCs1N8gx4w2hz2_5gimli4archNtB5_9LoongArch16name_to_register
libstd-c2e64df9465a3b60.so:_RNvMsf_NtNtNtCsb9yGazm0UdS_4core3fmt3num3impj4__fmt
libstd-c2e64df9465a3b60.so:_RNvMsg_NtNtNtCsb9yGazm0UdS_4core3fmt3num3impi11format_into
libstd-c2e64df9465a3b60.so:_RNvMsh_NtNtNtCsb9yGazm0UdS_4core3fmt3num3impj11format_into
libstd-c2e64df9465a3b60.so:_RNvMsi_NtCsfC9nJ0KPYer_6object4readNtB5_13RelocationMap8relocate
libstd-c2e64df9465a3b60.so:_RNvMsi_NtNtNtCseSYdJn4aADg_5alloc11collections5btree3mapINtB5_8BTreeMapyNtNtNtCs1N8gx4w2hz2_5gimli4read6abbrev12AbbreviationE5entryB1e_
libstd-c2e64df9465a3b60.so:_RNvMsi_NtNtNtCsjAaqe0woR93_3std3sys2fs4unixNtB5_4File13read_vectored
libstd-c2e64df9465a3b60.so:_RNvMsi_NtNtNtCsjAaqe0woR93_3std3sys2fs4unixNtB5_4File4read
libstd-c2e64df9465a3b60.so:_RNvMsi_NtNtNtCsjAaqe0woR93_3std3sys2fs4unixNtB5_4File8read_buf
libstd-c2e64df9465a3b60.so:_RNvMsk_NtCsjAaqe0woR93_3std7processNtB5_7Command11get_program
libstd-c2e64df9465a3b60.so:_RNvMsk_NtCsjAaqe0woR93_3std7processNtB5_7Command15get_current_dir
libstd-c2e64df9465a3b60.so:_RNvMsk_NtCsjAaqe0woR93_3std7processNtB5_7Command5spawn
libstd-c2e64df9465a3b60.so:_RNvMsk_NtCsjAaqe0woR93_3std7processNtB5_7Command6output
libstd-c2e64df9465a3b60.so:_RNvMsk_NtCsjAaqe0woR93_3std7processNtB5_7Command6status
libstd-c2e64df9465a3b60.so:_RNvMsk_NtCsjAaqe0woR93_3std7processNtB5_7Command8get_args
libstd-c2e64df9465a3b60.so:_RNvMsk_NtCsjAaqe0woR93_3std7processNtB5_7Command9env_clear
libstd-c2e64df9465a3b60.so:_RNvMsk_NtNtCsjAaqe0woR93_3std2io5stdioNtB5_6Stderr4lock
libstd-c2e64df9465a3b60.so:_RNvMsk_NtNtNtCsb9yGazm0UdS_4core3fmt3num3impy4__fmt
libstd-c2e64df9465a3b60.so:_RNvMsl_NtCs1N8gx4w2hz2_5gimli4archNtB5_4MIPS13register_name
libstd-c2e64df9465a3b60.so:_RNvMsl_NtCs1N8gx4w2hz2_5gimli4archNtB5_4MIPS16name_to_register
libstd-c2e64df9465a3b60.so:_RNvMsl_NtCsjAaqe0woR93_3std2fsNtB5_11OpenOptions5__open
libstd-c2e64df9465a3b60.so:_RNvMsl_NtNtCsjAaqe0woR93_3std3ffi6os_strNtB5_5OsStr14into_os_string
libstd-c2e64df9465a3b60.so:_RNvMsl_NtNtCsjAaqe0woR93_3std3ffi6os_strNtB5_5OsStr18to_ascii_lowercase
libstd-c2e64df9465a3b60.so:_RNvMsl_NtNtCsjAaqe0woR93_3std3ffi6os_strNtB5_5OsStr18to_ascii_uppercase
libstd-c2e64df9465a3b60.so:_RNvMsl_NtNtNtCsb9yGazm0UdS_4core3fmt3num3impx11format_into
libstd-c2e64df9465a3b60.so:_RNvMsm_NtNtNtCsb9yGazm0UdS_4core3fmt3num3impy11format_into
libstd-c2e64df9465a3b60.so:_RNvMsn_NtCseSYdJn4aADg_5alloc4syncINtB5_3ArcINtNtNtCs1N8gx4w2hz2_5gimli4read5dwarf5DwarfINtNtBL_12endian_slice11EndianSliceNtNtBN_9endianity12LittleEndianEEE9drop_slowCsjAaqe0woR93_3std
libstd-c2e64df9465a3b60.so:_RNvMsn_NtCseSYdJn4aADg_5alloc4syncINtB5_3ArcINtNtNtNtCsjAaqe0woR93_3std4sync6poison5mutex5MutexINtNtB7_3vec3VechEEE9drop_slowBP_
libstd-c2e64df9465a3b60.so:_RNvMsn_NtCseSYdJn4aADg_5alloc4syncINtB5_3ArcNtNtNtCs1N8gx4w2hz2_5gimli4read6abbrev13AbbreviationsE9drop_slowCsjAaqe0woR93_3std
libstd-c2e64df9465a3b60.so:_RNvMsn_NtCseSYdJn4aADg_5alloc4syncINtB5_3ArcNtNtNtCsjAaqe0woR93_3std6thread6thread5InnerNtNtBM_5alloc6SystemE9drop_slowBM_
libstd-c2e64df9465a3b60.so:_RNvMsn_NtCseSYdJn4aADg_5alloc4syncINtB5_3ArcNtNtNtCsjAaqe0woR93_3std6thread9spawnhook9SpawnHookE9drop_slowBM_
libstd-c2e64df9465a3b60.so:_RNvMsn_NtCseSYdJn4aADg_5alloc4syncINtB5_3ArcNtNtNtNtCsjAaqe0woR93_3std3sys2fs4unix12InnerReadDirE9drop_slowBO_
libstd-c2e64df9465a3b60.so:_RNvMso_NtCsjAaqe0woR93_3std2fsNtB5_8Metadata7created
libstd-c2e64df9465a3b60.so:_RNvMso_NtCsjAaqe0woR93_3std2fsNtB5_8Metadata8accessed
libstd-c2e64df9465a3b60.so:_RNvMso_NtCsjAaqe0woR93_3std2fsNtB5_8Metadata8modified
libstd-c2e64df9465a3b60.so:_RNvMsr_NtCs1N8gx4w2hz2_5gimli4archNtB5_5RiscV13register_name
libstd-c2e64df9465a3b60.so:_RNvMsr_NtCs1N8gx4w2hz2_5gimli4archNtB5_5RiscV16name_to_register
libstd-c2e64df9465a3b60.so:_RNvMsr_NtCsjAaqe0woR93_3std4pathNtB5_7PathBuf14__add_extension
libstd-c2e64df9465a3b60.so:_RNvMsr_NtCsjAaqe0woR93_3std4pathNtB5_7PathBuf14__set_extension
libstd-c2e64df9465a3b60.so:_RNvMsr_NtCsjAaqe0woR93_3std4pathNtB5_7PathBuf14__set_file_name
libstd-c2e64df9465a3b60.so:_RNvMsr_NtCsjAaqe0woR93_3std4pathNtB5_7PathBuf16pop_trailing_sep
libstd-c2e64df9465a3b60.so:_RNvMsr_NtCsjAaqe0woR93_3std4pathNtB5_7PathBuf16set_trailing_sep
libstd-c2e64df9465a3b60.so:_RNvMsr_NtCsjAaqe0woR93_3std4pathNtB5_7PathBuf17push_trailing_sep
libstd-c2e64df9465a3b60.so:_RNvMsr_NtCsjAaqe0woR93_3std4pathNtB5_7PathBuf3pop
libstd-c2e64df9465a3b60.so:_RNvMsr_NtCsjAaqe0woR93_3std4pathNtB5_7PathBuf5__push
libstd-c2e64df9465a3b60.so:_RNvMst_NtCsjAaqe0woR93_3std7processNtB5_6Output7exit_ok
libstd-c2e64df9465a3b60.so:_RNvMsu_NtNtCsb9yGazm0UdS_4core3str7patternNtB5_11StrSearcher3new
libstd-c2e64df9465a3b60.so:_RNvMsu_NtNtNtCseSYdJn4aADg_5alloc11collections5btree4nodeINtB5_7NodeRefNtNtB5_6marker3MutyNtNtNtCs1N8gx4w2hz2_5gimli4read6abbrev12AbbreviationNtB19_4LeafE16push_with_handleB1w_
libstd-c2e64df9465a3b60.so:_RNvMsv_NtNtNtCseSYdJn4aADg_5alloc11collections5btree4nodeINtB5_7NodeRefNtNtB5_6marker3MutyNtNtNtCs1N8gx4w2hz2_5gimli4read6abbrev12AbbreviationNtB19_8InternalE4pushB1w_
libstd-c2e64df9465a3b60.so:_RNvMsx_NtCs1N8gx4w2hz2_5gimli4archNtB5_3X8616name_to_register
libstd-c2e64df9465a3b60.so:_RNvNCNKNvNtNtCsjAaqe0woR93_3std6thread9spawnhook11SPAWN_HOOKS0023___RUST_STD_INTERNAL_VAL
libstd-c2e64df9465a3b60.so:_RNvNCNKNvNvMNtNtCsjAaqe0woR93_3std4hash6randomNtBa_11RandomState3new4KEYS0s_023___RUST_STD_INTERNAL_VAL
libstd-c2e64df9465a3b60.so:_RNvNCNKNvNvMNtNtNtCsjAaqe0woR93_3std4sync4mpmc7contextNtBa_7Context4with7CONTEXT0023___RUST_STD_INTERNAL_VAL
libstd-c2e64df9465a3b60.so:_RNvNCNKNvNvNtNtNtCsjAaqe0woR93_3std4sync4mpmc5waker17current_thread_id5DUMMY0s_023___RUST_STD_INTERNAL_VAL
libstd-c2e64df9465a3b60.so:_RNvNCNvNtNtCsjAaqe0woR93_3std6thread9lifecycle15spawn_unchecked03MIN
libstd-c2e64df9465a3b60.so:_RNvNtCs4I7onBBY15v_11miniz_oxide6shared14update_adler32
libstd-c2e64df9465a3b60.so:_RNvNtCs8JUzMjMMAX8_9addr2line4line9path_push
libstd-c2e64df9465a3b60.so:_RNvNtCs8JUzMjMMAX8_9addr2line5frame13demangle_auto
libstd-c2e64df9465a3b60.so:_RNvNtCsb9yGazm0UdS_4core3fmt17pointer_fmt_inner
libstd-c2e64df9465a3b60.so:_RNvNtCsb9yGazm0UdS_4core3fmt5write
libstd-c2e64df9465a3b60.so:_RNvNtCsb9yGazm0UdS_4core3num22from_ascii_radix_panic
libstd-c2e64df9465a3b60.so:_RNvNtCsb9yGazm0UdS_4core3str16slice_error_fail
libstd-c2e64df9465a3b60.so:_RNvNtCsb9yGazm0UdS_4core3str19slice_error_fail_ct
libstd-c2e64df9465a3b60.so:_RNvNtCsb9yGazm0UdS_4core3str19slice_error_fail_rt
libstd-c2e64df9465a3b60.so:_RNvNtCsb9yGazm0UdS_4core4cell22panic_already_borrowed
libstd-c2e64df9465a3b60.so:_RNvNtCsb9yGazm0UdS_4core4cell30panic_already_mutably_borrowed
libstd-c2e64df9465a3b60.so:_RNvNtCsb9yGazm0UdS_4core4wtf816slice_error_fail
libstd-c2e64df9465a3b60.so:_RNvNtCsb9yGazm0UdS_4core5ascii14escape_default
libstd-c2e64df9465a3b60.so:_RNvNtCsb9yGazm0UdS_4core6option13expect_failed
libstd-c2e64df9465a3b60.so:_RNvNtCsb9yGazm0UdS_4core6option13unwrap_failed
libstd-c2e64df9465a3b60.so:_RNvNtCsb9yGazm0UdS_4core6result13unwrap_failed
libstd-c2e64df9465a3b60.so:_RNvNtCsb9yGazm0UdS_4core9panicking14panic_nounwind
libstd-c2e64df9465a3b60.so:_RNvNtCsb9yGazm0UdS_4core9panicking15const_panic_fmt
libstd-c2e64df9465a3b60.so:_RNvNtCsb9yGazm0UdS_4core9panicking16panic_in_cleanup
libstd-c2e64df9465a3b60.so:_RNvNtCsb9yGazm0UdS_4core9panicking18panic_bounds_check
libstd-c2e64df9465a3b60.so:_RNvNtCsb9yGazm0UdS_4core9panicking18panic_nounwind_fmt
libstd-c2e64df9465a3b60.so:_RNvNtCsb9yGazm0UdS_4core9panicking19assert_failed_inner
libstd-c2e64df9465a3b60.so:_RNvNtCsb9yGazm0UdS_4core9panicking19panic_cannot_unwind
libstd-c2e64df9465a3b60.so:_RNvNtCsb9yGazm0UdS_4core9panicking26panic_nounwind_nobacktrace
libstd-c2e64df9465a3b60.so:_RNvNtCsb9yGazm0UdS_4core9panicking30panic_null_pointer_dereference
libstd-c2e64df9465a3b60.so:_RNvNtCsb9yGazm0UdS_4core9panicking31panic_invalid_enum_construction
libstd-c2e64df9465a3b60.so:_RNvNtCsb9yGazm0UdS_4core9panicking36panic_misaligned_pointer_dereference
libstd-c2e64df9465a3b60.so:_RNvNtCsb9yGazm0UdS_4core9panicking5panic
libstd-c2e64df9465a3b60.so:_RNvNtCsb9yGazm0UdS_4core9panicking9panic_fmt
libstd-c2e64df9465a3b60.so:_RNvNtCseSYdJn4aADg_5alloc2rc32rc_inner_layout_for_value_layout
libstd-c2e64df9465a3b60.so:_RNvNtCseSYdJn4aADg_5alloc4sync18STATIC_INNER_SLICE
libstd-c2e64df9465a3b60.so:_RNvNtCseSYdJn4aADg_5alloc4sync32arcinner_layout_for_value_layout
libstd-c2e64df9465a3b60.so:_RNvNtCseSYdJn4aADg_5alloc5alloc18handle_alloc_error
libstd-c2e64df9465a3b60.so:_RNvNtCseSYdJn4aADg_5alloc7raw_vec12handle_error
libstd-c2e64df9465a3b60.so:_RNvNtCseSYdJn4aADg_5alloc7raw_vec17capacity_overflow
libstd-c2e64df9465a3b60.so:_RNvNtCsjAaqe0woR93_3std2rt19lang_start_internal
libstd-c2e64df9465a3b60.so:_RNvNtCsjAaqe0woR93_3std3env11current_dir
libstd-c2e64df9465a3b60.so:_RNvNtCsjAaqe0woR93_3std3env11current_exe
libstd-c2e64df9465a3b60.so:_RNvNtCsjAaqe0woR93_3std3env4__var
libstd-c2e64df9465a3b60.so:_RNvNtCsjAaqe0woR93_3std3env4args
libstd-c2e64df9465a3b60.so:_RNvNtCsjAaqe0woR93_3std3env4vars
libstd-c2e64df9465a3b60.so:_RNvNtCsjAaqe0woR93_3std3env7__var_os
libstd-c2e64df9465a3b60.so:_RNvNtCsjAaqe0woR93_3std3env7args_os
libstd-c2e64df9465a3b60.so:_RNvNtCsjAaqe0woR93_3std3env7vars_os
libstd-c2e64df9465a3b60.so:_RNvNtCsjAaqe0woR93_3std3env8home_dir
libstd-c2e64df9465a3b60.so:_RNvNtCsjAaqe0woR93_3std3env8temp_dir
libstd-c2e64df9465a3b60.so:_RNvNtCsjAaqe0woR93_3std4path18compare_components
libstd-c2e64df9465a3b60.so:_RNvNtCsjAaqe0woR93_3std5alloc20set_alloc_error_hook
libstd-c2e64df9465a3b60.so:_RNvNtCsjAaqe0woR93_3std5alloc24default_alloc_error_hook
libstd-c2e64df9465a3b60.so:_RNvNtCsjAaqe0woR93_3std5alloc4HOOK
libstd-c2e64df9465a3b60.so:_RNvNtCsjAaqe0woR93_3std5alloc8rust_oom
libstd-c2e64df9465a3b60.so:_RNvNtCsjAaqe0woR93_3std5panic13resume_unwind
libstd-c2e64df9465a3b60.so:_RNvNtCsjAaqe0woR93_3std5panic19get_backtrace_style
libstd-c2e64df9465a3b60.so:_RNvNtCsjAaqe0woR93_3std5panic19set_backtrace_style
libstd-c2e64df9465a3b60.so:_RNvNtCsjAaqe0woR93_3std7process2id
libstd-c2e64df9465a3b60.so:_RNvNtCsjAaqe0woR93_3std7process4exit
libstd-c2e64df9465a3b60.so:_RNvNtCsjAaqe0woR93_3std7process5abort
libstd-c2e64df9465a3b60.so:_RNvNtCsjAaqe0woR93_3std9panicking11EMPTY_PANIC
libstd-c2e64df9465a3b60.so:_RNvNtCsjAaqe0woR93_3std9panicking12default_hook
libstd-c2e64df9465a3b60.so:_RNvNtCsjAaqe0woR93_3std9panicking14payload_as_str
libstd-c2e64df9465a3b60.so:_RNvNtCsjAaqe0woR93_3std9panicking15panic_with_hook
libstd-c2e64df9465a3b60.so:_RNvNtCsjAaqe0woR93_3std9panicking4HOOK
libstd-c2e64df9465a3b60.so:_RNvNtCsjAaqe0woR93_3std9panicking8set_hook
libstd-c2e64df9465a3b60.so:_RNvNtCsjAaqe0woR93_3std9panicking9take_hook
libstd-c2e64df9465a3b60.so:_RNvNtNtCs4I7onBBY15v_11miniz_oxide7inflate4core10decompress
libstd-c2e64df9465a3b60.so:_RNvNtNtCsb2QYmHNJ40y_10std_detect6detect5cache21detect_and_initialize
libstd-c2e64df9465a3b60.so:_RNvNtNtCsb2QYmHNJ40y_10std_detect6detect5cache5CACHE
libstd-c2e64df9465a3b60.so:_RNvNtNtCsb9yGazm0UdS_4core3num14overflow_panic3add
libstd-c2e64df9465a3b60.so:_RNvNtNtCsb9yGazm0UdS_4core3num14overflow_panic3div
libstd-c2e64df9465a3b60.so:_RNvNtNtCsb9yGazm0UdS_4core3num14overflow_panic3mul
libstd-c2e64df9465a3b60.so:_RNvNtNtCsb9yGazm0UdS_4core3num14overflow_panic3neg
libstd-c2e64df9465a3b60.so:_RNvNtNtCsb9yGazm0UdS_4core3num14overflow_panic3rem
libstd-c2e64df9465a3b60.so:_RNvNtNtCsb9yGazm0UdS_4core3num14overflow_panic3shl
libstd-c2e64df9465a3b60.so:_RNvNtNtCsb9yGazm0UdS_4core3num14overflow_panic3shr
libstd-c2e64df9465a3b60.so:_RNvNtNtCsb9yGazm0UdS_4core3num14overflow_panic3sub
libstd-c2e64df9465a3b60.so:_RNvNtNtCsb9yGazm0UdS_4core3num7flt2dec17digits_to_dec_str
libstd-c2e64df9465a3b60.so:_RNvNtNtCsb9yGazm0UdS_4core3num7flt2dec17digits_to_exp_str
libstd-c2e64df9465a3b60.so:_RNvNtNtCsb9yGazm0UdS_4core3num7flt2dec8round_up
libstd-c2e64df9465a3b60.so:_RNvNtNtCsb9yGazm0UdS_4core3num8int_sqrt27panic_for_negative_argument
libstd-c2e64df9465a3b60.so:_RNvNtNtCsb9yGazm0UdS_4core3num9int_log1030panic_for_nonpositive_argument
libstd-c2e64df9465a3b60.so:_RNvNtNtCsb9yGazm0UdS_4core3str5count14do_count_chars
libstd-c2e64df9465a3b60.so:_RNvNtNtCsb9yGazm0UdS_4core3str5count23char_count_general_case
libstd-c2e64df9465a3b60.so:_RNvNtNtCsb9yGazm0UdS_4core3str8converts13from_utf8_mut
libstd-c2e64df9465a3b60.so:_RNvNtNtCsb9yGazm0UdS_4core3str8converts9from_utf8
libstd-c2e64df9465a3b60.so:_RNvNtNtCsb9yGazm0UdS_4core4cell4lazy14panic_poisoned
libstd-c2e64df9465a3b60.so:_RNvNtNtCsb9yGazm0UdS_4core5slice5index16slice_index_fail
libstd-c2e64df9465a3b60.so:_RNvNtNtCsb9yGazm0UdS_4core5slice6memchr14memchr_aligned
libstd-c2e64df9465a3b60.so:_RNvNtNtCsb9yGazm0UdS_4core5slice6memchr7memrchr
libstd-c2e64df9465a3b60.so:_RNvNtNtCsb9yGazm0UdS_4core7unicode9printable12is_printable
libstd-c2e64df9465a3b60.so:_RNvNtNtCsb9yGazm0UdS_4core9panicking11panic_const23panic_const_div_by_zero
libstd-c2e64df9465a3b60.so:_RNvNtNtCsb9yGazm0UdS_4core9panicking11panic_const23panic_const_gen_fn_none
libstd-c2e64df9465a3b60.so:_RNvNtNtCsb9yGazm0UdS_4core9panicking11panic_const23panic_const_rem_by_zero
libstd-c2e64df9465a3b60.so:_RNvNtNtCsb9yGazm0UdS_4core9panicking11panic_const24panic_const_add_overflow
libstd-c2e64df9465a3b60.so:_RNvNtNtCsb9yGazm0UdS_4core9panicking11panic_const24panic_const_div_overflow
libstd-c2e64df9465a3b60.so:_RNvNtNtCsb9yGazm0UdS_4core9panicking11panic_const24panic_const_mul_overflow
libstd-c2e64df9465a3b60.so:_RNvNtNtCsb9yGazm0UdS_4core9panicking11panic_const24panic_const_neg_overflow
libstd-c2e64df9465a3b60.so:_RNvNtNtCsb9yGazm0UdS_4core9panicking11panic_const24panic_const_rem_overflow
libstd-c2e64df9465a3b60.so:_RNvNtNtCsb9yGazm0UdS_4core9panicking11panic_const24panic_const_shl_overflow
libstd-c2e64df9465a3b60.so:_RNvNtNtCsb9yGazm0UdS_4core9panicking11panic_const24panic_const_shr_overflow
libstd-c2e64df9465a3b60.so:_RNvNtNtCsb9yGazm0UdS_4core9panicking11panic_const24panic_const_sub_overflow
libstd-c2e64df9465a3b60.so:_RNvNtNtCsb9yGazm0UdS_4core9panicking11panic_const28panic_const_async_fn_resumed
libstd-c2e64df9465a3b60.so:_RNvNtNtCsb9yGazm0UdS_4core9panicking11panic_const28panic_const_gen_fn_none_drop
libstd-c2e64df9465a3b60.so:_RNvNtNtCsb9yGazm0UdS_4core9panicking11panic_const29panic_const_coroutine_resumed
libstd-c2e64df9465a3b60.so:_RNvNtNtCsb9yGazm0UdS_4core9panicking11panic_const29panic_const_gen_fn_none_panic
libstd-c2e64df9465a3b60.so:_RNvNtNtCsb9yGazm0UdS_4core9panicking11panic_const32panic_const_async_gen_fn_resumed
libstd-c2e64df9465a3b60.so:_RNvNtNtCsb9yGazm0UdS_4core9panicking11panic_const33panic_const_async_fn_resumed_drop
libstd-c2e64df9465a3b60.so:_RNvNtNtCsb9yGazm0UdS_4core9panicking11panic_const34panic_const_async_fn_resumed_panic
libstd-c2e64df9465a3b60.so:_RNvNtNtCsb9yGazm0UdS_4core9panicking11panic_const34panic_const_coroutine_resumed_drop
libstd-c2e64df9465a3b60.so:_RNvNtNtCsb9yGazm0UdS_4core9panicking11panic_const35panic_const_coroutine_resumed_panic
libstd-c2e64df9465a3b60.so:_RNvNtNtCsb9yGazm0UdS_4core9panicking11panic_const37panic_const_async_gen_fn_resumed_drop
libstd-c2e64df9465a3b60.so:_RNvNtNtCsb9yGazm0UdS_4core9panicking11panic_const38panic_const_async_gen_fn_resumed_panic
libstd-c2e64df9465a3b60.so:_RNvNtNtCsfC9nJ0KPYer_6object4read7archive16parse_u64_digits
libstd-c2e64df9465a3b60.so:_RNvNtNtCsfC9nJ0KPYer_6object4read7archive24parse_sysv_extended_name
libstd-c2e64df9465a3b60.so:_RNvNtNtCsjAaqe0woR93_3std2io5stdio18set_output_capture
libstd-c2e64df9465a3b60.so:_RNvNtNtCsjAaqe0woR93_3std2io5stdio22try_set_output_capture
libstd-c2e64df9465a3b60.so:_RNvNtNtCsjAaqe0woR93_3std2io5stdio23attempt_print_to_stderr
libstd-c2e64df9465a3b60.so:_RNvNtNtCsjAaqe0woR93_3std2io5stdio5stdin
libstd-c2e64df9465a3b60.so:_RNvNtNtCsjAaqe0woR93_3std2io5stdio6__print
libstd-c2e64df9465a3b60.so:_RNvNtNtCsjAaqe0woR93_3std2io5stdio6stdout
libstd-c2e64df9465a3b60.so:_RNvNtNtCsjAaqe0woR93_3std2io5stdio7__eprint
libstd-c2e64df9465a3b60.so:_RNvNtNtCsjAaqe0woR93_3std3net8hostname8hostname
libstd-c2e64df9465a3b60.so:_RNvNtNtCsjAaqe0woR93_3std3sys2fs10remove_dir
libstd-c2e64df9465a3b60.so:_RNvNtNtCsjAaqe0woR93_3std3sys2fs11remove_file
libstd-c2e64df9465a3b60.so:_RNvNtNtCsjAaqe0woR93_3std3sys2fs12canonicalize
libstd-c2e64df9465a3b60.so:_RNvNtNtCsjAaqe0woR93_3std3sys2fs14remove_dir_all
libstd-c2e64df9465a3b60.so:_RNvNtNtCsjAaqe0woR93_3std3sys2fs15set_permissions
libstd-c2e64df9465a3b60.so:_RNvNtNtCsjAaqe0woR93_3std3sys2fs16symlink_metadata
libstd-c2e64df9465a3b60.so:_RNvNtNtCsjAaqe0woR93_3std3sys2fs18set_times_nofollow
libstd-c2e64df9465a3b60.so:_RNvNtNtCsjAaqe0woR93_3std3sys2fs24set_permissions_nofollow
libstd-c2e64df9465a3b60.so:_RNvNtNtCsjAaqe0woR93_3std3sys2fs4copy
libstd-c2e64df9465a3b60.so:_RNvNtNtCsjAaqe0woR93_3std3sys2fs6exists
libstd-c2e64df9465a3b60.so:_RNvNtNtCsjAaqe0woR93_3std3sys2fs6rename
libstd-c2e64df9465a3b60.so:_RNvNtNtCsjAaqe0woR93_3std3sys2fs7symlink
libstd-c2e64df9465a3b60.so:_RNvNtNtCsjAaqe0woR93_3std3sys2fs8metadata
libstd-c2e64df9465a3b60.so:_RNvNtNtCsjAaqe0woR93_3std3sys2fs8read_dir
libstd-c2e64df9465a3b60.so:_RNvNtNtCsjAaqe0woR93_3std3sys2fs9hard_link
libstd-c2e64df9465a3b60.so:_RNvNtNtCsjAaqe0woR93_3std3sys2fs9read_link
libstd-c2e64df9465a3b60.so:_RNvNtNtCsjAaqe0woR93_3std3sys2fs9set_times
libstd-c2e64df9465a3b60.so:_RNvNtNtCsjAaqe0woR93_3std3sys5alloc16realloc_fallback
libstd-c2e64df9465a3b60.so:_RNvNtNtCsjAaqe0woR93_3std3sys9backtrace4lock
libstd-c2e64df9465a3b60.so:_RNvNtNtCsjAaqe0woR93_3std4sync9lazy_lock14panic_poisoned
libstd-c2e64df9465a3b60.so:_RNvNtNtCsjAaqe0woR93_3std6thread5local18panic_access_error
libstd-c2e64df9465a3b60.so:_RNvNtNtCsjAaqe0woR93_3std6thread7current18current_or_unnamed
libstd-c2e64df9465a3b60.so:_RNvNtNtCsjAaqe0woR93_3std6thread7current7CURRENT
libstd-c2e64df9465a3b60.so:_RNvNtNtCsjAaqe0woR93_3std6thread7current7current
libstd-c2e64df9465a3b60.so:_RNvNtNtCsjAaqe0woR93_3std6thread9functions11sleep_until
libstd-c2e64df9465a3b60.so:_RNvNtNtCsjAaqe0woR93_3std6thread9functions12park_timeout
libstd-c2e64df9465a3b60.so:_RNvNtNtCsjAaqe0woR93_3std6thread9functions15park_timeout_ms
libstd-c2e64df9465a3b60.so:_RNvNtNtCsjAaqe0woR93_3std6thread9functions21available_parallelism
libstd-c2e64df9465a3b60.so:_RNvNtNtCsjAaqe0woR93_3std6thread9functions4park
libstd-c2e64df9465a3b60.so:_RNvNtNtCsjAaqe0woR93_3std6thread9functions5sleep
libstd-c2e64df9465a3b60.so:_RNvNtNtCsjAaqe0woR93_3std6thread9functions8sleep_ms
libstd-c2e64df9465a3b60.so:_RNvNtNtCsjAaqe0woR93_3std6thread9functions9yield_now
libstd-c2e64df9465a3b60.so:_RNvNtNtCsjAaqe0woR93_3std6thread9spawnhook15run_spawn_hooks
libstd-c2e64df9465a3b60.so:_RNvNtNtCsjAaqe0woR93_3std9panicking11panic_count17is_zero_slow_path
libstd-c2e64df9465a3b60.so:_RNvNtNtCsjAaqe0woR93_3std9panicking11panic_count18GLOBAL_PANIC_COUNT
libstd-c2e64df9465a3b60.so:_RNvNtNtCsjAaqe0woR93_3std9panicking11panic_count19finished_panic_hook
libstd-c2e64df9465a3b60.so:_RNvNtNtCsjAaqe0woR93_3std9panicking11panic_count8decrease
libstd-c2e64df9465a3b60.so:_RNvNtNtCsjAaqe0woR93_3std9panicking11panic_count8increase
libstd-c2e64df9465a3b60.so:_RNvNtNtCsjAaqe0woR93_3std9panicking11panic_count9get_count
libstd-c2e64df9465a3b60.so:_RNvNtNtCslJiKa1tWyHe_6memchr6memmem8searcher21searcher_kind_two_way
libstd-c2e64df9465a3b60.so:_RNvNtNtCslJiKa1tWyHe_6memchr6memmem8searcher22searcher_kind_one_byte
libstd-c2e64df9465a3b60.so:_RNvNtNtCslJiKa1tWyHe_6memchr6memmem8searcher23prefilter_kind_fallback
libstd-c2e64df9465a3b60.so:_RNvNtNtCslJiKa1tWyHe_6memchr6memmem8searcher36searcher_kind_two_way_with_prefilter
libstd-c2e64df9465a3b60.so:_RNvNtNtNtCsb9yGazm0UdS_4core3num7dec2flt11decimal_seq17parse_decimal_seq
libstd-c2e64df9465a3b60.so:_RNvNtNtNtCsb9yGazm0UdS_4core3num7dec2flt5parse12parse_number
libstd-c2e64df9465a3b60.so:_RNvNtNtNtCsb9yGazm0UdS_4core3num7dec2flt5table17POWER_OF_FIVE_128
libstd-c2e64df9465a3b60.so:_RNvNtNtNtCsb9yGazm0UdS_4core7unicode12unicode_data10alphabetic11lookup_slow
libstd-c2e64df9465a3b60.so:_RNvNtNtNtCsb9yGazm0UdS_4core7unicode12unicode_data11conversions8to_lower
libstd-c2e64df9465a3b60.so:_RNvNtNtNtCsb9yGazm0UdS_4core7unicode12unicode_data11conversions8to_upper
libstd-c2e64df9465a3b60.so:_RNvNtNtNtCsb9yGazm0UdS_4core7unicode12unicode_data11white_space14WHITESPACE_MAP
libstd-c2e64df9465a3b60.so:_RNvNtNtNtCsb9yGazm0UdS_4core7unicode12unicode_data14case_ignorable11lookup_slow
libstd-c2e64df9465a3b60.so:_RNvNtNtNtCsb9yGazm0UdS_4core7unicode12unicode_data15grapheme_extend11lookup_slow
libstd-c2e64df9465a3b60.so:_RNvNtNtNtCsb9yGazm0UdS_4core7unicode12unicode_data1n11lookup_slow
libstd-c2e64df9465a3b60.so:_RNvNtNtNtCsb9yGazm0UdS_4core7unicode12unicode_data5cased11lookup_slow
libstd-c2e64df9465a3b60.so:_RNvNtNtNtCsb9yGazm0UdS_4core7unicode12unicode_data9lowercase14BITSET_MAPPING
libstd-c2e64df9465a3b60.so:_RNvNtNtNtCsb9yGazm0UdS_4core7unicode12unicode_data9lowercase16BITSET_CANONICAL
libstd-c2e64df9465a3b60.so:_RNvNtNtNtCsb9yGazm0UdS_4core7unicode12unicode_data9lowercase17BITSET_CHUNKS_MAP
libstd-c2e64df9465a3b60.so:_RNvNtNtNtCsb9yGazm0UdS_4core7unicode12unicode_data9lowercase19BITSET_INDEX_CHUNKS
libstd-c2e64df9465a3b60.so:_RNvNtNtNtCsb9yGazm0UdS_4core7unicode12unicode_data9lowercase6lookup
libstd-c2e64df9465a3b60.so:_RNvNtNtNtCsb9yGazm0UdS_4core7unicode12unicode_data9uppercase14BITSET_MAPPING
libstd-c2e64df9465a3b60.so:_RNvNtNtNtCsb9yGazm0UdS_4core7unicode12unicode_data9uppercase16BITSET_CANONICAL
libstd-c2e64df9465a3b60.so:_RNvNtNtNtCsb9yGazm0UdS_4core7unicode12unicode_data9uppercase17BITSET_CHUNKS_MAP
libstd-c2e64df9465a3b60.so:_RNvNtNtNtCsb9yGazm0UdS_4core7unicode12unicode_data9uppercase19BITSET_INDEX_CHUNKS
libstd-c2e64df9465a3b60.so:_RNvNtNtNtCsb9yGazm0UdS_4core7unicode12unicode_data9uppercase6lookup
libstd-c2e64df9465a3b60.so:_RNvNtNtNtCsjAaqe0woR93_3std12backtrace_rs9symbolize5gimli7resolve
libstd-c2e64df9465a3b60.so:_RNvNtNtNtCsjAaqe0woR93_3std2os4unix2io16replace_stdio_fd
libstd-c2e64df9465a3b60.so:_RNvNtNtNtCsjAaqe0woR93_3std2os4unix7process9parent_id
libstd-c2e64df9465a3b60.so:_RNvNtNtNtCsjAaqe0woR93_3std3sys2fs4unix5chown
libstd-c2e64df9465a3b60.so:_RNvNtNtNtCsjAaqe0woR93_3std3sys2fs4unix6chroot
libstd-c2e64df9465a3b60.so:_RNvNtNtNtCsjAaqe0woR93_3std3sys2fs4unix6fchown
libstd-c2e64df9465a3b60.so:_RNvNtNtNtCsjAaqe0woR93_3std3sys2fs4unix6lchown
libstd-c2e64df9465a3b60.so:_RNvNtNtNtCsjAaqe0woR93_3std3sys2fs4unix6mkfifo
libstd-c2e64df9465a3b60.so:_RNvNtNtNtCsjAaqe0woR93_3std3sys3env4unix6setenv
libstd-c2e64df9465a3b60.so:_RNvNtNtNtCsjAaqe0woR93_3std3sys3env4unix8unsetenv
libstd-c2e64df9465a3b60.so:_RNvNtNtNtCsjAaqe0woR93_3std3sys4path4unix8absolute
libstd-c2e64df9465a3b60.so:_RNvNtNtNtCsjAaqe0woR93_3std3sys4pipe4unix4pipe
libstd-c2e64df9465a3b60.so:_RNvNtNtNtCsjAaqe0woR93_3std3sys6random5linux19hashmap_random_keys
libstd-c2e64df9465a3b60.so:_RNvNtNtNtCsjAaqe0woR93_3std6thread7current2id2ID
libstd-c2e64df9465a3b60.so:_RNvNtNtNtCslJiKa1tWyHe_6memchr4arch3all9rabinkarp12is_equal_raw
libstd-c2e64df9465a3b60.so:_RNvNtNtNtNtCsb9yGazm0UdS_4core3num7flt2dec8strategy5grisu12CACHED_POW10
libstd-c2e64df9465a3b60.so:_RNvNtNtNtNtCsb9yGazm0UdS_4core3num7flt2dec8strategy5grisu12format_exact
libstd-c2e64df9465a3b60.so:_RNvNtNtNtNtCsb9yGazm0UdS_4core3num7flt2dec8strategy5grisu15format_shortest
libstd-c2e64df9465a3b60.so:_RNvNtNtNtNtCsb9yGazm0UdS_4core3num7flt2dec8strategy5grisu16format_exact_opt
libstd-c2e64df9465a3b60.so:_RNvNtNtNtNtCsb9yGazm0UdS_4core3num7flt2dec8strategy5grisu19format_shortest_opt
libstd-c2e64df9465a3b60.so:_RNvNtNtNtNtCsb9yGazm0UdS_4core3num7flt2dec8strategy6dragon12format_exact
libstd-c2e64df9465a3b60.so:_RNvNtNtNtNtCsb9yGazm0UdS_4core3num7flt2dec8strategy6dragon15format_shortest
libstd-c2e64df9465a3b60.so:_RNvNtNtNtNtCsb9yGazm0UdS_4core3num7flt2dec8strategy6dragon9mul_pow10
libstd-c2e64df9465a3b60.so:_RNvNtNtNtNtCsb9yGazm0UdS_4core5slice4sort6shared9smallsort22panic_on_ord_violation
libstd-c2e64df9465a3b60.so:_RNvNtNtNtNtCsb9yGazm0UdS_4core5slice4sort6stable5drift11sqrt_approx
libstd-c2e64df9465a3b60.so:_RNvNtNtNtNtCsjAaqe0woR93_3std2os4unix3net4addr11sockaddr_un
libstd-c2e64df9465a3b60.so:_RNvNtNtNtNtCsjAaqe0woR93_3std2os4unix3net9ancillary31send_vectored_with_ancillary_to
libstd-c2e64df9465a3b60.so:_RNvNtNtNtNtCsjAaqe0woR93_3std3sys12thread_local11destructors10linux_like8register
libstd-c2e64df9465a3b60.so:_RNvNtNtNtNtCsjAaqe0woR93_3std3sys2io11kernel_copy5linux15sendfile_splice
libstd-c2e64df9465a3b60.so:_RNvNtNtNtNtCsjAaqe0woR93_3std3sys2io11kernel_copy5linux18copy_regular_files
libstd-c2e64df9465a3b60.so:_RNvNtNtNtNtCsjAaqe0woR93_3std3sys3pal4unix2os5chdir
libstd-c2e64df9465a3b60.so:_RNvNtNtNtNtCsjAaqe0woR93_3std3sys3pal4unix5futex10futex_wake
libstd-c2e64df9465a3b60.so:_RNvNtNtNtNtCsjAaqe0woR93_3std3sys3pal4unix5futex14futex_wake_all
libstd-c2e64df9465a3b60.so:_RNvNtNtNtNtCsjAaqe0woR93_3std3sys4args4unix3imp15ARGV_INIT_ARRAY
libstd-c2e64df9465a3b60.so:_RNvNvMNtCsb9yGazm0UdS_4core5sliceSp16align_to_offsets3gcd
libstd-c2e64df9465a3b60.so:_RNvNvMNtNtNtCsfC9nJ0KPYer_6object4read4coff6importNtB4_10ImportFile5parse12strip_prefix
libstd-c2e64df9465a3b60.so:_RNvNvMs3_NtNtNtNtCsjAaqe0woR93_3std3sys3net10connection6socketNtB7_9TcpStream7connect5inner
libstd-c2e64df9465a3b60.so:_RNvNvMs6_NtNtCsb9yGazm0UdS_4core4task4wakeNtB7_5Waker11from_fn_ptr6VTABLE
libstd-c2e64df9465a3b60.so:_RNvNvMs7_NtNtNtCsjAaqe0woR93_3std3sys6os_str5bytesNtB7_5Slice21check_public_boundary9slow_path
libstd-c2e64df9465a3b60.so:_RNvNvMs7_NtNtNtNtCsjAaqe0woR93_3std3sys3net10connection6socketNtB7_11TcpListener4bind5inner
libstd-c2e64df9465a3b60.so:_RNvNvMs_NtCseSYdJn4aADg_5alloc3vecINtB6_3VecppE10insert_mut13assert_failed
libstd-c2e64df9465a3b60.so:_RNvNvMs_NtCseSYdJn4aADg_5alloc3vecINtB6_3VecppE11swap_remove13assert_failed
libstd-c2e64df9465a3b60.so:_RNvNvMs_NtCseSYdJn4aADg_5alloc3vecINtB6_3VecppE6remove13assert_failed
libstd-c2e64df9465a3b60.so:_RNvNvMs_NtCseSYdJn4aADg_5alloc3vecINtB6_3VecppE9split_off13assert_failed
libstd-c2e64df9465a3b60.so:_RNvNvMsa_NtNtNtNtCsjAaqe0woR93_3std3sys3net10connection6socketNtB7_9UdpSocket4bind5inner
libstd-c2e64df9465a3b60.so:_RNvNvMsa_NtNtNtNtCsjAaqe0woR93_3std3sys3net10connection6socketNtB7_9UdpSocket7connect5inner
libstd-c2e64df9465a3b60.so:_RNvNvMsb_NtNtCsb9yGazm0UdS_4core4task4wakeNtB7_10LocalWaker11from_fn_ptr6VTABLE
libstd-c2e64df9465a3b60.so:_RNvNvNtCsb9yGazm0UdS_4core5slice20copy_from_slice_impl17len_mismatch_fail
libstd-c2e64df9465a3b60.so:_RNvNvNtCseSYdJn4aADg_5alloc3fmt6format12format_inner
libstd-c2e64df9465a3b60.so:_RNvNvNtCseSYdJn4aADg_5alloc5alloc18handle_alloc_error8ct_error
libstd-c2e64df9465a3b60.so:_RNvNvNtCsjAaqe0woR93_3std2fs14read_to_string5inner
libstd-c2e64df9465a3b60.so:_RNvNvNtCsjAaqe0woR93_3std2fs4read5inner
libstd-c2e64df9465a3b60.so:_RNvNvNtCsjAaqe0woR93_3std2fs5write5inner
libstd-c2e64df9465a3b60.so:_RNvNvNtCsjAaqe0woR93_3std9panicking12catch_unwind7cleanup
libstd-c2e64df9465a3b60.so:_RNvNvNtNtCsjAaqe0woR93_3std2io5stdio6stderr8INSTANCE
libstd-c2e64df9465a3b60.so:_RNvNvNtNtNtNtCsjAaqe0woR93_3std3sys3pal4unix2os11split_paths12into_pathbuf
libstd-c2e64df9465a3b60.so:_RNvNvNtNtNtNtCsjAaqe0woR93_3std3sys4args4unix3imp15ARGV_INIT_ARRAY12init_wrapper
libstd-c2e64df9465a3b60.so:_RNvXNtCsb9yGazm0UdS_4core3ffiNtB2_6c_voidNtNtB4_3fmt5Debug3fmt
libstd-c2e64df9465a3b60.so:_RNvXNtCsb9yGazm0UdS_4core3fmtQNtB2_9FormatterNtB2_5Write9write_strCsiNDExn1lzIo_14rustc_demangle
libstd-c2e64df9465a3b60.so:_RNvXNtCsb9yGazm0UdS_4core3patcNtB2_12RangePattern7sub_one
libstd-c2e64df9465a3b60.so:_RNvXNtCsiNDExn1lzIo_14rustc_demangle2v0NtB2_8DemangleNtNtCsb9yGazm0UdS_4core3fmt7Display3fmt
libstd-c2e64df9465a3b60.so:_RNvXNtCsiNDExn1lzIo_14rustc_demangle6legacyNtB2_8DemangleNtNtCsb9yGazm0UdS_4core3fmt7Display3fmt
libstd-c2e64df9465a3b60.so:_RNvXNtCsjAaqe0woR93_3std2ioNtB2_5GuardNtNtNtCsb9yGazm0UdS_4core3ops4drop4Drop4drop
libstd-c2e64df9465a3b60.so:_RNvXNtCsjAaqe0woR93_3std3envNtB2_4VarsNtNtNtNtCsb9yGazm0UdS_4core4iter6traits8iterator8Iterator4next
libstd-c2e64df9465a3b60.so:_RNvXNtCsjAaqe0woR93_3std3envNtB2_4VarsNtNtNtNtCsb9yGazm0UdS_4core4iter6traits8iterator8Iterator9size_hint
libstd-c2e64df9465a3b60.so:_RNvXNtCsjAaqe0woR93_3std6randomNtB2_19DefaultRandomSourceNtNtCsb9yGazm0UdS_4core6random12RandomSource10fill_bytes
libstd-c2e64df9465a3b60.so:_RNvXNtCsjAaqe0woR93_3std9backtraceNtB2_9BacktraceNtNtCsb9yGazm0UdS_4core3fmt5Debug3fmt
libstd-c2e64df9465a3b60.so:_RNvXNtNtCsb9yGazm0UdS_4core2io12borrowed_bufNtB2_11BorrowedBufNtNtB6_3fmt5Debug3fmt
libstd-c2e64df9465a3b60.so:_RNvXNtNtCsb9yGazm0UdS_4core3ffi5c_strNtB2_21FromBytesWithNulErrorNtNtB6_3fmt7Display3fmt
libstd-c2e64df9465a3b60.so:_RNvXNtNtCsb9yGazm0UdS_4core3ffi7va_listNtB2_6VaListNtNtB6_3fmt5Debug3fmt
libstd-c2e64df9465a3b60.so:_RNvXNtNtCsb9yGazm0UdS_4core3fmt3numoNtB4_7Display3fmt
libstd-c2e64df9465a3b60.so:_RNvXNtNtCsb9yGazm0UdS_4core3num5errorNtB2_15TryFromIntErrorNtNtB6_3fmt7Display3fmt
libstd-c2e64df9465a3b60.so:_RNvXNtNtCsb9yGazm0UdS_4core3ops5rangeNtB2_9RangeFullNtNtB6_3fmt5Debug3fmt
libstd-c2e64df9465a3b60.so:_RNvXNtNtCsfC9nJ0KPYer_6object4read4utilNtB2_5BytesNtNtCsb9yGazm0UdS_4core3fmt5Debug3fmt
libstd-c2e64df9465a3b60.so:_RNvXNtNtCsfC9nJ0KPYer_6object4read8read_refRShNtB2_7ReadRef19read_bytes_at_until
libstd-c2e64df9465a3b60.so:_RNvXNtNtCsjAaqe0woR93_3std2io5errorNtB2_5ErrorNtNtCsb9yGazm0UdS_4core3fmt5Debug3fmt
libstd-c2e64df9465a3b60.so:_RNvXNtNtCsjAaqe0woR93_3std2io5stdioNtB2_8StdinRawNtB4_4Read10read_exact
libstd-c2e64df9465a3b60.so:_RNvXNtNtCsjAaqe0woR93_3std2io5stdioNtB2_8StdinRawNtB4_4Read11read_to_end
libstd-c2e64df9465a3b60.so:_RNvXNtNtCsjAaqe0woR93_3std2io5stdioNtB2_8StdinRawNtB4_4Read13read_vectored
libstd-c2e64df9465a3b60.so:_RNvXNtNtCsjAaqe0woR93_3std2io5stdioNtB2_8StdinRawNtB4_4Read14read_buf_exact
libstd-c2e64df9465a3b60.so:_RNvXNtNtCsjAaqe0woR93_3std2io5stdioNtB2_8StdinRawNtB4_4Read14read_to_string
libstd-c2e64df9465a3b60.so:_RNvXNtNtCsjAaqe0woR93_3std2io5stdioNtB2_8StdinRawNtB4_4Read4read
libstd-c2e64df9465a3b60.so:_RNvXNtNtCsjAaqe0woR93_3std2io5stdioNtB2_8StdinRawNtB4_4Read8read_buf
libstd-c2e64df9465a3b60.so:_RNvXNtNtCsjAaqe0woR93_3std4sync9nonpoisonNtB2_10WouldBlockNtNtCsb9yGazm0UdS_4core3fmt5Debug3fmt
libstd-c2e64df9465a3b60.so:_RNvXNtNtCsjAaqe0woR93_3std6thread9functionsNtB2_10PanicGuardNtNtNtCsb9yGazm0UdS_4core3ops4drop4Drop4drop
libstd-c2e64df9465a3b60.so:_RNvXNtNtCsjAaqe0woR93_3std6thread9spawnhookNtB2_10SpawnHooksNtNtNtCsb9yGazm0UdS_4core3ops4drop4Drop4drop
libstd-c2e64df9465a3b60.so:_RNvXNtNtNtCsb9yGazm0UdS_4core3fmt3num3imphNtB6_7Display3fmt
libstd-c2e64df9465a3b60.so:_RNvXNtNtNtCsjAaqe0woR93_3std2os4unix2fsNtNtB8_2fs4FileNtB2_7FileExt11read_buf_at
libstd-c2e64df9465a3b60.so:_RNvXNtNtNtCsjAaqe0woR93_3std2os4unix2fsNtNtB8_2fs4FileNtB2_7FileExt16read_vectored_at
libstd-c2e64df9465a3b60.so:_RNvXNtNtNtCsjAaqe0woR93_3std2os4unix2fsNtNtB8_2fs4FileNtB2_7FileExt17write_vectored_at
libstd-c2e64df9465a3b60.so:_RNvXNtNtNtCsjAaqe0woR93_3std2os4unix2fsNtNtB8_2fs4FileNtB2_7FileExt7read_at
libstd-c2e64df9465a3b60.so:_RNvXNtNtNtCsjAaqe0woR93_3std2os4unix2fsNtNtB8_2fs4FileNtB2_7FileExt8write_at
libstd-c2e64df9465a3b60.so:_RNvXNtNtNtCsjAaqe0woR93_3std2os4unix2ioNtNtNtB8_2io5stdio6StdoutNtB2_8StdioExt7take_fd
libstd-c2e64df9465a3b60.so:_RNvXNtNtNtCsjAaqe0woR93_3std2os4unix7processNtNtB8_7process7CommandNtB2_10CommandExt4exec
libstd-c2e64df9465a3b60.so:_RNvXNtNtNtCsjAaqe0woR93_3std2os4unix7processNtNtB8_7process7CommandNtB2_10CommandExt6groups
libstd-c2e64df9465a3b60.so:_RNvXNtNtNtCsjAaqe0woR93_3std3sys7process3envNtB2_10CommandEnvNtNtCsb9yGazm0UdS_4core3fmt5Debug3fmt
libstd-c2e64df9465a3b60.so:_RNvXNtNtNtCsjAaqe0woR93_3std6thread6thread18thread_name_stringNtB2_16ThreadNameStringINtNtCsb9yGazm0UdS_4core7convert4FromNtNtCseSYdJn4aADg_5alloc6string6StringE4from
libstd-c2e64df9465a3b60.so:_RNvXNtNtNtNtCs2fTyH9gQt0w_4libc3new10linux_uapi5linux3canNtB2_35___c_anonymous_sockaddr_can_can_addrNtNtCsb9yGazm0UdS_4core3fmt5Debug3fmt
libstd-c2e64df9465a3b60.so:_RNvXNtNtNtNtCsjAaqe0woR93_3std2os3net9linux_ext6socketNtNtNtNtB8_4unix3net8datagram12UnixDatagramNtB2_13UnixSocketExt12set_passcred
libstd-c2e64df9465a3b60.so:_RNvXNtNtNtNtCsjAaqe0woR93_3std2os3net9linux_ext6socketNtNtNtNtB8_4unix3net8datagram12UnixDatagramNtB2_13UnixSocketExt8passcred
libstd-c2e64df9465a3b60.so:_RNvXNtNtNtNtCsjAaqe0woR93_3std2os4unix3net8listenerNtB2_12UnixListenerNtNtCsb9yGazm0UdS_4core3fmt5Debug3fmt
libstd-c2e64df9465a3b60.so:_RNvXNtNtNtNtCsjAaqe0woR93_3std3sys2fs4unix3cfmNtB2_18CachedFileMetadataNtNtBa_2io4Read11read_to_end
libstd-c2e64df9465a3b60.so:_RNvXNtNtNtNtCsjAaqe0woR93_3std3sys2fs4unix3cfmNtB2_18CachedFileMetadataNtNtBa_2io4Read13read_vectored
libstd-c2e64df9465a3b60.so:_RNvXNtNtNtNtCsjAaqe0woR93_3std3sys2fs4unix3cfmNtB2_18CachedFileMetadataNtNtBa_2io4Read14read_to_string
libstd-c2e64df9465a3b60.so:_RNvXNtNtNtNtCsjAaqe0woR93_3std3sys2fs4unix3cfmNtB2_18CachedFileMetadataNtNtBa_2io4Read4read
libstd-c2e64df9465a3b60.so:_RNvXNtNtNtNtCsjAaqe0woR93_3std3sys2fs4unix3cfmNtB2_18CachedFileMetadataNtNtBa_2io4Read8read_buf
libstd-c2e64df9465a3b60.so:_RNvXNtNtNtNtCsjAaqe0woR93_3std3sys3pal4unix2osNtB2_14JoinPathsErrorNtNtCsb9yGazm0UdS_4core3fmt7Display3fmt
libstd-c2e64df9465a3b60.so:_RNvXNtNtNtNtNtCsjAaqe0woR93_3std3sys3pal4unix14stack_overflow11thread_infoNtB2_12UnlockOnDropNtNtNtCsb9yGazm0UdS_4core3ops4drop4Drop4drop
libstd-c2e64df9465a3b60.so:_RNvXNtNtNtNtNtCsjAaqe0woR93_3std3sys7process4unix4unix15linux_child_extNtNtBc_7process5ChildNtNtNtNtBc_2os5linux7process8ChildExt10into_pidfd
libstd-c2e64df9465a3b60.so:_RNvXNvMNtCseSYdJn4aADg_5alloc6stringNtB5_6String6retainNtB2_12SetLenOnDropNtNtNtCsb9yGazm0UdS_4core3ops4drop4Drop4drop
libstd-c2e64df9465a3b60.so:_RNvXNvMNtNtCsjAaqe0woR93_3std3sys9backtraceNtB5_13BacktraceLock5printNtB2_16DisplayBacktraceNtNtCsb9yGazm0UdS_4core3fmt7Display3fmt
libstd-c2e64df9465a3b60.so:_RNvXNvMNtNtNtNtCsjAaqe0woR93_3std3sys7process4unix4unixNtNtB7_6common7Command11posix_spawnNtB2_21PosixSpawnFileActionsNtNtNtCsb9yGazm0UdS_4core3ops4drop4Drop4drop
libstd-c2e64df9465a3b60.so:_RNvXNvNtCsb9yGazm0UdS_4core4hint20select_unpredictableINtB2_11DropOnPanicjENtNtNtB6_3ops4drop4Drop4dropCs8JUzMjMMAX8_9addr2line
libstd-c2e64df9465a3b60.so:_RNvXNvNtCsb9yGazm0UdS_4core9panicking21assert_matches_failedNtB2_7PatternNtNtB6_3fmt5Debug3fmt
libstd-c2e64df9465a3b60.so:_RNvXNvNtCsjAaqe0woR93_3std9panicking13resume_unwindNtB2_9RewrapBoxNtNtCsb9yGazm0UdS_4core5panic12PanicPayload8take_box
libstd-c2e64df9465a3b60.so:_RNvXNvXs7_NtCsjAaqe0woR93_3std4pathNtB8_10ComponentsNtNtCsb9yGazm0UdS_4core3fmt5Debug3fmtNtB2_11DebugHelperBO_3fmt
libstd-c2e64df9465a3b60.so:_RNvXNvXsb_NtCsjAaqe0woR93_3std4pathNtB8_4IterNtNtCsb9yGazm0UdS_4core3fmt5Debug3fmtNtB2_11DebugHelperBH_3fmt
libstd-c2e64df9465a3b60.so:_RNvXNvXsd_NtCsb9yGazm0UdS_4core4wtf8NtB8_10EncodeWideNtNtBa_3fmt5Debug3fmtNtB2_8CodeUnitBP_3fmt
libstd-c2e64df9465a3b60.so:_RNvXs0_CsQVrDp5Ngqk_6adler2NtB5_7Adler32NtNtCsb9yGazm0UdS_4core4hash6Hasher5write
libstd-c2e64df9465a3b60.so:_RNvXs0_CsiNDExn1lzIo_14rustc_demangleINtB5_21SizeLimitedFmtAdapterQNtNtCsb9yGazm0UdS_4core3fmt9FormatterENtB15_5Write9write_strB5_
libstd-c2e64df9465a3b60.so:_RNvXs0_NtCs8JUzMjMMAX8_9addr2line4lineNtB5_21LineLocationRangeIterNtNtNtNtCsb9yGazm0UdS_4core4iter6traits8iterator8Iterator4next
libstd-c2e64df9465a3b60.so:_RNvXs0_NtCsb9yGazm0UdS_4core3anyDNtB5_3AnyNtNtB7_6marker4SendEL_NtNtB7_3fmt5Debug3fmt
libstd-c2e64df9465a3b60.so:_RNvXs0_NtCseSYdJn4aADg_5alloc6stringNtB5_13FromUtf8ErrorNtNtCsb9yGazm0UdS_4core3fmt7Display3fmt
libstd-c2e64df9465a3b60.so:_RNvXs0_NtCsiNDExn1lzIo_14rustc_demangle2v0NtB5_5IdentNtNtCsb9yGazm0UdS_4core3fmt7Display3fmt
libstd-c2e64df9465a3b60.so:_RNvXs0_NtCsjAaqe0woR93_3std2fsNtB5_12TryLockErrorNtNtCsb9yGazm0UdS_4core3fmt7Display3fmt
libstd-c2e64df9465a3b60.so:_RNvXs0_NtCsjAaqe0woR93_3std3envNtB5_6VarsOsNtNtNtNtCsb9yGazm0UdS_4core4iter6traits8iterator8Iterator4next
libstd-c2e64df9465a3b60.so:_RNvXs0_NtCsjAaqe0woR93_3std3envNtB5_6VarsOsNtNtNtNtCsb9yGazm0UdS_4core4iter6traits8iterator8Iterator9size_hint
libstd-c2e64df9465a3b60.so:_RNvXs0_NtCsjAaqe0woR93_3std4timeNtB5_7InstantINtNtNtCsb9yGazm0UdS_4core3ops5arith9AddAssignNtNtBO_4time8DurationE10add_assign
libstd-c2e64df9465a3b60.so:_RNvXs0_NtCsjAaqe0woR93_3std9backtraceNtB5_15BacktraceSymbolNtNtCsb9yGazm0UdS_4core3fmt5Debug3fmt
libstd-c2e64df9465a3b60.so:_RNvXs0_NtNtCsb9yGazm0UdS_4core3ffi5c_strNtB5_22FromBytesUntilNulErrorNtNtB9_3fmt7Display3fmt
libstd-c2e64df9465a3b60.so:_RNvXs0_NtNtCsb9yGazm0UdS_4core3fmt8buildersNtB5_10PadAdapterNtB7_5Write10write_char
libstd-c2e64df9465a3b60.so:_RNvXs0_NtNtCsb9yGazm0UdS_4core3fmt8buildersNtB5_10PadAdapterNtB7_5Write9write_str
libstd-c2e64df9465a3b60.so:_RNvXs0_NtNtCsb9yGazm0UdS_4core3net6parserNtNtB7_7ip_addr6IpAddrNtNtNtB9_3str6traits7FromStr8from_str
libstd-c2e64df9465a3b60.so:_RNvXs0_NtNtCsb9yGazm0UdS_4core3num7dec2fltC3f16NtNtNtB9_3str6traits7FromStr8from_str
libstd-c2e64df9465a3b60.so:_RNvXs0_NtNtCsb9yGazm0UdS_4core3str5lossyNtB5_5DebugNtNtB9_3fmt5Debug3fmt
libstd-c2e64df9465a3b60.so:_RNvXs0_NtNtCsb9yGazm0UdS_4core5alloc6layoutNtB5_11LayoutErrorNtNtB9_3fmt7Display3fmt
libstd-c2e64df9465a3b60.so:_RNvXs0_NtNtCsb9yGazm0UdS_4core5ascii10ascii_charNtB5_9AsciiCharNtNtB9_3fmt7Display3fmt
libstd-c2e64df9465a3b60.so:_RNvXs0_NtNtCsb9yGazm0UdS_4core5slice5asciiNtB5_11EscapeAsciiNtNtNtNtB9_4iter6traits12double_ended19DoubleEndedIterator9next_back
libstd-c2e64df9465a3b60.so:_RNvXs0_NtNtCsfC9nJ0KPYer_6object4read4utilNtB5_9DebugByteNtNtCsb9yGazm0UdS_4core3fmt5Debug3fmt
libstd-c2e64df9465a3b60.so:_RNvXs0_NtNtCsjAaqe0woR93_3std12backtrace_rs9symbolizeNtB5_6SymbolNtNtCsb9yGazm0UdS_4core3fmt5Debug3fmt
libstd-c2e64df9465a3b60.so:_RNvXs0_NtNtCsjAaqe0woR93_3std2io5errorNtB5_5ErrorINtNtCsb9yGazm0UdS_4core7convert4FromNtNtNtCseSYdJn4aADg_5alloc3ffi5c_str8NulErrorE4from
libstd-c2e64df9465a3b60.so:_RNvXs0_NtNtCsjAaqe0woR93_3std2io5stdioNtB5_9StderrRawNtB7_5Write14write_vectored
libstd-c2e64df9465a3b60.so:_RNvXs0_NtNtCsjAaqe0woR93_3std2io5stdioNtB5_9StderrRawNtB7_5Write18write_all_vectored
libstd-c2e64df9465a3b60.so:_RNvXs0_NtNtCsjAaqe0woR93_3std2io5stdioNtB5_9StderrRawNtB7_5Write5flush
libstd-c2e64df9465a3b60.so:_RNvXs0_NtNtCsjAaqe0woR93_3std2io5stdioNtB5_9StderrRawNtB7_5Write5write
libstd-c2e64df9465a3b60.so:_RNvXs0_NtNtCsjAaqe0woR93_3std2io5stdioNtB5_9StderrRawNtB7_5Write9write_all
libstd-c2e64df9465a3b60.so:_RNvXs0_NtNtCsjAaqe0woR93_3std2io5stdioNtB5_9StderrRawNtB7_5Write9write_fmt
libstd-c2e64df9465a3b60.so:_RNvXs0_NtNtCsjAaqe0woR93_3std3net3tcpNtB5_9TcpStreamNtNtB9_2io5Write14write_vectored
libstd-c2e64df9465a3b60.so:_RNvXs0_NtNtCsjAaqe0woR93_3std3net3tcpNtB5_9TcpStreamNtNtB9_2io5Write5write
libstd-c2e64df9465a3b60.so:_RNvXs0_NtNtCsjAaqe0woR93_3std6thread5localNtB5_11AccessErrorNtNtCsb9yGazm0UdS_4core3fmt7Display3fmt
libstd-c2e64df9465a3b60.so:_RNvXs0_NtNtCsjAaqe0woR93_3std6thread6threadNtB5_6ThreadNtNtCsb9yGazm0UdS_4core3fmt5Debug3fmt
libstd-c2e64df9465a3b60.so:_RNvXs0_NtNtNtCsfC9nJ0KPYer_6object4read2pe6exportNtB5_12ExportTargetNtNtCsb9yGazm0UdS_4core3fmt5Debug3fmt
libstd-c2e64df9465a3b60.so:_RNvXs0_NtNtNtCsfC9nJ0KPYer_6object4read2pe6importNtB5_24ImportDescriptorIteratorNtNtNtNtCsb9yGazm0UdS_4core4iter6traits8iterator8Iterator4next
libstd-c2e64df9465a3b60.so:_RNvXs0_NtNtNtCsjAaqe0woR93_3std2os4unix2ioNtNtNtBb_2io5stdio5StdinNtB5_8StdioExt7take_fd
libstd-c2e64df9465a3b60.so:_RNvXs0_NtNtNtCsjAaqe0woR93_3std2os4unix7processNtNtBb_7process15ExitStatusErrorNtB5_13ExitStatusExt8from_raw
libstd-c2e64df9465a3b60.so:_RNvXs0_NtNtNtCsjAaqe0woR93_3std3sys7process3envNtB5_11CommandEnvsNtNtNtNtCsb9yGazm0UdS_4core4iter6traits8iterator8Iterator4next
libstd-c2e64df9465a3b60.so:_RNvXs0_NtNtNtNtCsjAaqe0woR93_3std12backtrace_rs9symbolize5gimli4mmapNtB5_4MmapNtNtNtCsb9yGazm0UdS_4core3ops4drop4Drop4drop
libstd-c2e64df9465a3b60.so:_RNvXs0_NtNtNtNtCsjAaqe0woR93_3std2os4unix3net4addrNtB5_10SocketAddrNtNtNtNtBb_3net9linux_ext4addr13SocketAddrExt16as_abstract_name
libstd-c2e64df9465a3b60.so:_RNvXs0_NtNtNtNtCsjAaqe0woR93_3std3sys7process4unix4unixNtB5_10ExitStatusNtNtCsb9yGazm0UdS_4core3fmt5Debug3fmt
libstd-c2e64df9465a3b60.so:_RNvXs0_NtNtNtNtNtCsjAaqe0woR93_3std3sys7process4unix6common13cstring_arrayNtB5_12CStringArrayNtNtCsb9yGazm0UdS_4core3fmt5Debug3fmt
libstd-c2e64df9465a3b60.so:_RNvXs0_NvMs_NtNtCseSYdJn4aADg_5alloc3ffi5c_strNtBa_7CString3newReNtB5_11SpecNewImpl13spec_new_impl
libstd-c2e64df9465a3b60.so:_RNvXs0_NvNtCsjAaqe0woR93_3std9panicking13panic_handlerNtB5_19FormatStringPayloadNtNtCsb9yGazm0UdS_4core3fmt7Display3fmt
libstd-c2e64df9465a3b60.so:_RNvXs0_NvXsf_NtNtCseSYdJn4aADg_5alloc5boxed7convertINtBd_3BoxDNtNtCsb9yGazm0UdS_4core5error5ErrorNtNtB12_6marker4SendNtB1z_4SyncEL_EINtNtB12_7convert4FromNtNtBf_6string6StringE4fromNtB5_11StringErrorNtNtB12_3fmt5Debug3fmt
libstd-c2e64df9465a3b60.so:_RNvXs10_NtCs1N8gx4w2hz2_5gimli9constantsNtB6_5DwTagNtNtCsb9yGazm0UdS_4core3fmt7Display3fmt
libstd-c2e64df9465a3b60.so:_RNvXs10_NtCseSYdJn4aADg_5alloc6stringNtB6_9IntoCharsNtNtCsb9yGazm0UdS_4core3fmt5Debug3fmt
libstd-c2e64df9465a3b60.so:_RNvXs10_NtNtCsb9yGazm0UdS_4core3fmt3numnNtB8_8LowerExp3fmt
libstd-c2e64df9465a3b60.so:_RNvXs11_NtNtCsb9yGazm0UdS_4core3fmt3numoNtB8_8LowerExp3fmt
libstd-c2e64df9465a3b60.so:_RNvXs11_NtNtCsb9yGazm0UdS_4core3num7nonzeroINtB6_7NonZerotENtNtNtBa_3str6traits7FromStr8from_str
libstd-c2e64df9465a3b60.so:_RNvXs12_NtNtCsb9yGazm0UdS_4core3fmt3numnNtB8_8UpperExp3fmt
libstd-c2e64df9465a3b60.so:_RNvXs12_NtNtCsb9yGazm0UdS_4core3num11niche_typesNtB6_14NonZeroI8InnerNtNtBa_3fmt5Debug3fmt
libstd-c2e64df9465a3b60.so:_RNvXs13_NtNtCsb9yGazm0UdS_4core3fmt3numoNtB8_8UpperExp3fmt
libstd-c2e64df9465a3b60.so:_RNvXs14_NtNtCsb9yGazm0UdS_4core4sync6atomicNtB6_9AtomicI32NtNtBa_3fmt5Debug3fmt
libstd-c2e64df9465a3b60.so:_RNvXs15_NtCseSYdJn4aADg_5alloc6stringNtB6_5DrainNtNtCsb9yGazm0UdS_4core3fmt5Debug3fmt
libstd-c2e64df9465a3b60.so:_RNvXs15_NtNtCsb9yGazm0UdS_4core3net7ip_addrNtB6_8Ipv4AddrINtNtNtBa_3ops3bit12BitAndAssignRBF_E13bitand_assign
libstd-c2e64df9465a3b60.so:_RNvXs18_NtCseSYdJn4aADg_5alloc6stringNtB6_5DrainNtNtNtCsb9yGazm0UdS_4core3ops4drop4Drop4drop
libstd-c2e64df9465a3b60.so:_RNvXs18_NtNtCsb9yGazm0UdS_4core3num7nonzeroINtB6_7NonZeromENtNtNtBa_3str6traits7FromStr8from_str
libstd-c2e64df9465a3b60.so:_RNvXs19_NtCsjAaqe0woR93_3std4pathNtB6_4PathNtNtCsb9yGazm0UdS_4core3fmt5Debug3fmt
libstd-c2e64df9465a3b60.so:_RNvXs19_NtNtCsb9yGazm0UdS_4core4sync6atomicNtB6_9AtomicU32NtNtBa_3fmt5Debug3fmt
libstd-c2e64df9465a3b60.so:_RNvXs1A_NtCs1N8gx4w2hz2_5gimli9constantsNtB6_5DwAteNtNtCsb9yGazm0UdS_4core3fmt7Display3fmt
libstd-c2e64df9465a3b60.so:_RNvXs1A_NtNtCsb9yGazm0UdS_4core3num7nonzeroINtB6_7NonZeroaENtNtNtBa_3str6traits7FromStr8from_str
libstd-c2e64df9465a3b60.so:_RNvXs1E_NtNtCsb9yGazm0UdS_4core3num7nonzeroINtB6_7NonZerosENtNtNtBa_3str6traits7FromStr8from_str
libstd-c2e64df9465a3b60.so:_RNvXs1G_NtNtCsb9yGazm0UdS_4core3num11niche_typesNtB6_14UsizeNoHighBitNtNtBa_3fmt5Debug3fmt
libstd-c2e64df9465a3b60.so:_RNvXs1I_NtNtCsb9yGazm0UdS_4core3num7nonzeroINtB6_7NonZerolENtNtNtBa_3str6traits7FromStr8from_str
libstd-c2e64df9465a3b60.so:_RNvXs1K_NtNtNtCseSYdJn4aADg_5alloc11collections5btree3mapNtB6_17UnorderedKeyErrorNtNtCsb9yGazm0UdS_4core3fmt7Display3fmt
libstd-c2e64df9465a3b60.so:_RNvXs1M_NtCs1N8gx4w2hz2_5gimli9constantsNtB6_5DwLleNtNtCsb9yGazm0UdS_4core3fmt7Display3fmt
libstd-c2e64df9465a3b60.so:_RNvXs1M_NtNtCsb9yGazm0UdS_4core3num7nonzeroINtB6_7NonZeroxENtNtNtBa_3str6traits7FromStr8from_str
libstd-c2e64df9465a3b60.so:_RNvXs1O_NtNtCsb9yGazm0UdS_4core3num11niche_typesNtB6_17NonZeroUsizeInnerNtNtBa_3fmt5Debug3fmt
libstd-c2e64df9465a3b60.so:_RNvXs1Q_NtNtCsb9yGazm0UdS_4core3num7nonzeroINtB6_7NonZeronENtNtNtBa_3str6traits7FromStr8from_str
libstd-c2e64df9465a3b60.so:_RNvXs1U_NtNtCsb9yGazm0UdS_4core3num7nonzeroINtB6_7NonZeroiENtNtNtBa_3str6traits7FromStr8from_str
libstd-c2e64df9465a3b60.so:_RNvXs1W_NtNtCsb9yGazm0UdS_4core3num11niche_typesNtB6_17NonZeroIsizeInnerNtNtBa_3fmt5Debug3fmt
libstd-c2e64df9465a3b60.so:_RNvXs1Y_NtCs1N8gx4w2hz2_5gimli9constantsNtB6_4DwDsNtNtCsb9yGazm0UdS_4core3fmt7Display3fmt
libstd-c2e64df9465a3b60.so:_RNvXs1_CsiNDExn1lzIo_14rustc_demangleNtB5_8DemangleNtNtCsb9yGazm0UdS_4core3fmt7Display3fmt
libstd-c2e64df9465a3b60.so:_RNvXs1_NtCsb9yGazm0UdS_4core3anyDNtB5_3AnyNtNtB7_6marker4SendNtBG_4SyncEL_NtNtB7_3fmt5Debug3fmt
libstd-c2e64df9465a3b60.so:_RNvXs1_NtCsb9yGazm0UdS_4core4wtf8NtB5_4Wtf8NtNtB7_3fmt5Debug3fmt
libstd-c2e64df9465a3b60.so:_RNvXs1_NtCsb9yGazm0UdS_4core5cloneNtNtNtB7_3ffi5c_str4CStrNtB5_13CloneToUninit15clone_to_uninit
libstd-c2e64df9465a3b60.so:_RNvXs1_NtCseSYdJn4aADg_5alloc4wtf8NtB5_7Wtf8BufNtNtCsb9yGazm0UdS_4core3fmt7Display3fmt
libstd-c2e64df9465a3b60.so:_RNvXs1_NtCseSYdJn4aADg_5alloc6stringNtB5_14FromUtf16ErrorNtNtCsb9yGazm0UdS_4core3fmt7Display3fmt
libstd-c2e64df9465a3b60.so:_RNvXs1_NtCseSYdJn4aADg_5alloc7raw_vecINtB5_6RawVecNtNtNtCs1N8gx4w2hz2_5gimli4read6abbrev22AttributeSpecificationENtNtNtCsb9yGazm0UdS_4core3ops4drop4Drop4dropBS_
libstd-c2e64df9465a3b60.so:_RNvXs1_NtCseSYdJn4aADg_5alloc7raw_vecINtB5_6RawVechENtNtNtCsb9yGazm0UdS_4core3ops4drop4Drop4dropCs1N8gx4w2hz2_5gimli
libstd-c2e64df9465a3b60.so:_RNvXs1_NtCsjAaqe0woR93_3std2ioNtB5_10IoSliceMutNtNtCsb9yGazm0UdS_4core3fmt5Debug3fmt
libstd-c2e64df9465a3b60.so:_RNvXs1_NtCsjAaqe0woR93_3std3envNtB5_6VarsOsNtNtCsb9yGazm0UdS_4core3fmt5Debug3fmt
libstd-c2e64df9465a3b60.so:_RNvXs1_NtCsjAaqe0woR93_3std4timeNtB5_7InstantINtNtNtCsb9yGazm0UdS_4core3ops5arith3SubNtNtBO_4time8DurationE3sub
libstd-c2e64df9465a3b60.so:_RNvXs1_NtCsjAaqe0woR93_3std7processNtB5_5ChildINtNtB7_3sys9IntoInnerNtNtNtNtBL_7process4unix4unix7ProcessE10into_inner
libstd-c2e64df9465a3b60.so:_RNvXs1_NtCsjAaqe0woR93_3std9backtraceNtB5_11BytesOrWideNtNtCsb9yGazm0UdS_4core3fmt5Debug3fmt
libstd-c2e64df9465a3b60.so:_RNvXs1_NtCslJiKa1tWyHe_6memchr6memmemNtB5_11FindRevIterNtNtNtNtCsb9yGazm0UdS_4core4iter6traits8iterator8Iterator4next
libstd-c2e64df9465a3b60.so:_RNvXs1_NtNtCsb9yGazm0UdS_4core3ffi5c_strNtB5_4CStrNtNtB9_3fmt5Debug3fmt
libstd-c2e64df9465a3b60.so:_RNvXs1_NtNtCsb9yGazm0UdS_4core3mem15transmutabilityNtB5_6AssumeNtNtNtB9_3ops5arith3Sub3sub
libstd-c2e64df9465a3b60.so:_RNvXs1_NtNtCsb9yGazm0UdS_4core3num7dec2fltfNtNtNtB9_3str6traits7FromStr8from_str
libstd-c2e64df9465a3b60.so:_RNvXs1_NtNtCsb9yGazm0UdS_4core3str5errorNtB5_14ParseBoolErrorNtNtB9_3fmt7Display3fmt
libstd-c2e64df9465a3b60.so:_RNvXs1_NtNtCsb9yGazm0UdS_4core4char6decodeNtB5_16DecodeUtf16ErrorNtNtB9_3fmt7Display3fmt
libstd-c2e64df9465a3b60.so:_RNvXs1_NtNtCsb9yGazm0UdS_4core4task4wakeNtB5_7ContextNtNtB9_3fmt5Debug3fmt
libstd-c2e64df9465a3b60.so:_RNvXs1_NtNtCsb9yGazm0UdS_4core5ascii10ascii_charNtB5_9AsciiCharNtNtB9_3fmt5Debug3fmt
libstd-c2e64df9465a3b60.so:_RNvXs1_NtNtCsb9yGazm0UdS_4core5panic8locationNtB5_8LocationNtNtB9_3cmp10PartialOrd11partial_cmp
libstd-c2e64df9465a3b60.so:_RNvXs1_NtNtCsb9yGazm0UdS_4core6marker8varianceNtB5_24PhantomCovariantLifetimeNtNtB9_3fmt5Debug3fmt
libstd-c2e64df9465a3b60.so:_RNvXs1_NtNtCsfC9nJ0KPYer_6object4read4utilNtB5_8DebugLenNtNtCsb9yGazm0UdS_4core3fmt5Debug3fmt
libstd-c2e64df9465a3b60.so:_RNvXs1_NtNtCsjAaqe0woR93_3std3net3tcpRNtB5_9TcpStreamNtNtB9_2io4Read13read_vectored
libstd-c2e64df9465a3b60.so:_RNvXs1_NtNtCsjAaqe0woR93_3std3net3tcpRNtB5_9TcpStreamNtNtB9_2io4Read4read
libstd-c2e64df9465a3b60.so:_RNvXs1_NtNtCsjAaqe0woR93_3std3net3tcpRNtB5_9TcpStreamNtNtB9_2io4Read8read_buf
libstd-c2e64df9465a3b60.so:_RNvXs1_NtNtCsjAaqe0woR93_3std4sync4onceNtB5_4OnceNtNtCsb9yGazm0UdS_4core3fmt5Debug3fmt
libstd-c2e64df9465a3b60.so:_RNvXs1_NtNtCsjAaqe0woR93_3std4sync7barrierNtB5_17BarrierWaitResultNtNtCsb9yGazm0UdS_4core3fmt5Debug3fmt
libstd-c2e64df9465a3b60.so:_RNvXs1_NtNtNtCsb9yGazm0UdS_4core3num6bignum5testsNtB5_6Big8x3NtNtBb_3cmp10PartialOrd11partial_cmp
libstd-c2e64df9465a3b60.so:_RNvXs1_NtNtNtCsb9yGazm0UdS_4core4iter8adapters6copiedINtB5_6CopiedINtNtNtBb_5slice4iter4IterhEENtNtNtB9_6traits10exact_size17ExactSizeIterator3lenCsiNDExn1lzIo_14rustc_demangle
libstd-c2e64df9465a3b60.so:_RNvXs1_NtNtNtCsjAaqe0woR93_3std12backtrace_rs9backtrace9libunwindNtB5_5FrameNtNtCsb9yGazm0UdS_4core5clone5Clone5clone
libstd-c2e64df9465a3b60.so:_RNvXs1_NtNtNtCsjAaqe0woR93_3std2os4unix2ioNtNtNtBb_2io5stdio9StdinLockNtB5_8StdioExt7take_fd
libstd-c2e64df9465a3b60.so:_RNvXs1_NtNtNtCsjAaqe0woR93_3std2os4unix7processNtNtBb_7process5ChildNtB5_8ChildExt11send_signal
libstd-c2e64df9465a3b60.so:_RNvXs1_NtNtNtCsjAaqe0woR93_3std3sys4args6commonNtB5_4ArgsNtNtCsb9yGazm0UdS_4core3fmt5Debug3fmt
libstd-c2e64df9465a3b60.so:_RNvXs1_NtNtNtCsjAaqe0woR93_3std3sys5stdio4unixNtB5_6StdoutNtNtBb_2io5Write14write_vectored
libstd-c2e64df9465a3b60.so:_RNvXs1_NtNtNtCsjAaqe0woR93_3std3sys5stdio4unixNtB5_6StdoutNtNtBb_2io5Write5write
libstd-c2e64df9465a3b60.so:_RNvXs1_NtNtNtCsjAaqe0woR93_3std3sys6os_str5bytesNtB5_3BufNtNtCsb9yGazm0UdS_4core3fmt5Debug3fmt
libstd-c2e64df9465a3b60.so:_RNvXs1_NtNtNtCsjAaqe0woR93_3std3sys6thread4unixNtB5_6ThreadNtNtNtCsb9yGazm0UdS_4core3ops4drop4Drop4drop
libstd-c2e64df9465a3b60.so:_RNvXs1_NtNtNtNtCsjAaqe0woR93_3std2os4unix3net4addrNtB5_10SocketAddrNtNtCsb9yGazm0UdS_4core3fmt5Debug3fmt
libstd-c2e64df9465a3b60.so:_RNvXs1_NtNtNtNtCsjAaqe0woR93_3std2os4unix3net6streamNtB5_10UnixStreamNtNtBd_2io4Read13read_vectored
libstd-c2e64df9465a3b60.so:_RNvXs1_NtNtNtNtCsjAaqe0woR93_3std2os4unix3net6streamNtB5_10UnixStreamNtNtBd_2io4Read4read
libstd-c2e64df9465a3b60.so:_RNvXs1_NtNtNtNtCsjAaqe0woR93_3std2os4unix3net6streamNtB5_10UnixStreamNtNtBd_2io4Read8read_buf
libstd-c2e64df9465a3b60.so:_RNvXs1_NtNtNtNtCsjAaqe0woR93_3std2os4unix3net9ancillaryNtB5_9ScmRightsNtNtNtNtCsb9yGazm0UdS_4core4iter6traits8iterator8Iterator4next
libstd-c2e64df9465a3b60.so:_RNvXs1_NvMs_NtNtCseSYdJn4aADg_5alloc3ffi5c_strNtBa_7CString3newQShNtB5_11SpecNewImpl13spec_new_impl
libstd-c2e64df9465a3b60.so:_RNvXs1_NvNtCsjAaqe0woR93_3std9panicking13panic_handlerNtB5_16StaticStrPayloadNtNtCsb9yGazm0UdS_4core5panic12PanicPayload8take_box
libstd-c2e64df9465a3b60.so:_RNvXs1a_NtCseSYdJn4aADg_5alloc6stringNtB6_5DrainINtNtCsb9yGazm0UdS_4core7convert5AsRefeE6as_ref
libstd-c2e64df9465a3b60.so:_RNvXs1a_NtCsjAaqe0woR93_3std4pathNtB6_7DisplayNtNtCsb9yGazm0UdS_4core3fmt5Debug3fmt
libstd-c2e64df9465a3b60.so:_RNvXs1a_NtNtCsb9yGazm0UdS_4core3num11niche_typesNtB6_15NonZeroI16InnerNtNtBa_3fmt5Debug3fmt
libstd-c2e64df9465a3b60.so:_RNvXs1b_NtCseSYdJn4aADg_5alloc6stringNtB6_5DrainINtNtCsb9yGazm0UdS_4core7convert5AsRefShE6as_ref
libstd-c2e64df9465a3b60.so:_RNvXs1b_NtCsjAaqe0woR93_3std4pathNtB6_7DisplayNtNtCsb9yGazm0UdS_4core3fmt7Display3fmt
libstd-c2e64df9465a3b60.so:_RNvXs1b_NtNtCsb9yGazm0UdS_4core3net7ip_addrNtB6_8Ipv4AddrINtNtNtBa_3ops3bit11BitOrAssignRBF_E12bitor_assign
libstd-c2e64df9465a3b60.so:_RNvXs1c_NtCs1N8gx4w2hz2_5gimli9constantsNtB6_4DwAtNtNtCsb9yGazm0UdS_4core3fmt7Display3fmt
libstd-c2e64df9465a3b60.so:_RNvXs1c_NtCseSYdJn4aADg_5alloc6stringNtB6_5DrainNtNtNtNtCsb9yGazm0UdS_4core4iter6traits8iterator8Iterator9size_hint
libstd-c2e64df9465a3b60.so:_RNvXs1e_NtNtCsb9yGazm0UdS_4core4sync6atomicNtB6_9AtomicI64NtNtBa_3fmt5Debug3fmt
libstd-c2e64df9465a3b60.so:_RNvXs1f_NtNtCsb9yGazm0UdS_4core3num7nonzeroINtB6_7NonZeroyENtNtNtBa_3str6traits7FromStr8from_str
libstd-c2e64df9465a3b60.so:_RNvXs1g_NtCsb9yGazm0UdS_4core3fmtRNtNtNtB8_3num5error12IntErrorKindNtB6_5Debug3fmtCsiNDExn1lzIo_14rustc_demangle
libstd-c2e64df9465a3b60.so:_RNvXs1g_NtCsb9yGazm0UdS_4core3fmtRNtNtNtCs1N8gx4w2hz2_5gimli4read6abbrev22AttributeSpecificationNtB6_5Debug3fmtBC_
libstd-c2e64df9465a3b60.so:_RNvXs1g_NtCsb9yGazm0UdS_4core3fmtReNtB6_5Debug3fmtCsiNDExn1lzIo_14rustc_demangle
libstd-c2e64df9465a3b60.so:_RNvXs1g_NtCsb9yGazm0UdS_4core3fmtRhNtB6_5Debug3fmtCsiNDExn1lzIo_14rustc_demangle
libstd-c2e64df9465a3b60.so:_RNvXs1g_NtCsb9yGazm0UdS_4core3fmtRtNtB6_5Debug3fmtCs1N8gx4w2hz2_5gimli
libstd-c2e64df9465a3b60.so:_RNvXs1g_NtCsb9yGazm0UdS_4core3fmtRuNtB6_5Debug3fmtCsiNDExn1lzIo_14rustc_demangle
libstd-c2e64df9465a3b60.so:_RNvXs1g_NtCsb9yGazm0UdS_4core3fmtRxNtB6_5Debug3fmtCs1N8gx4w2hz2_5gimli
libstd-c2e64df9465a3b60.so:_RNvXs1h_NtCsb9yGazm0UdS_4core3fmtQShNtB6_5Debug3fmtCsiNDExn1lzIo_14rustc_demangle
libstd-c2e64df9465a3b60.so:_RNvXs1h_NtNtCsb9yGazm0UdS_4core3net7ip_addrNtB6_8Ipv6AddrINtNtNtBa_3ops3bit12BitAndAssignRBF_E13bitand_assign
libstd-c2e64df9465a3b60.so:_RNvXs1i_NtCsb9yGazm0UdS_4core3fmtRNtCsiNDExn1lzIo_14rustc_demangle13DemangleStyleNtB6_7Display3fmtBy_
libstd-c2e64df9465a3b60.so:_RNvXs1i_NtCsb9yGazm0UdS_4core3fmtReNtB6_7Display3fmtCsiNDExn1lzIo_14rustc_demangle
libstd-c2e64df9465a3b60.so:_RNvXs1i_NtNtCsb9yGazm0UdS_4core3num11niche_typesNtB6_15NonZeroI32InnerNtNtBa_3fmt5Debug3fmt
libstd-c2e64df9465a3b60.so:_RNvXs1j_NtNtCsb9yGazm0UdS_4core4sync6atomicNtB6_9AtomicU64NtNtBa_3fmt5Debug3fmt
libstd-c2e64df9465a3b60.so:_RNvXs1m_NtNtCsb9yGazm0UdS_4core3num7nonzeroINtB6_7NonZerooENtNtNtBa_3str6traits7FromStr8from_str
libstd-c2e64df9465a3b60.so:_RNvXs1n_NtNtCsb9yGazm0UdS_4core3net7ip_addrNtB6_8Ipv6AddrINtNtNtBa_3ops3bit11BitOrAssignRBF_E12bitor_assign
libstd-c2e64df9465a3b60.so:_RNvXs1o_NtCs1N8gx4w2hz2_5gimli9constantsNtB6_6DwFormNtNtCsb9yGazm0UdS_4core3fmt7Display3fmt
libstd-c2e64df9465a3b60.so:_RNvXs1o_NtNtCsb9yGazm0UdS_4core4sync6atomicNtB6_11AtomicIsizeNtNtBa_3fmt5Debug3fmt
libstd-c2e64df9465a3b60.so:_RNvXs1q_NtNtCsb9yGazm0UdS_4core3num11niche_typesNtB6_15NonZeroI64InnerNtNtBa_3fmt5Debug3fmt
libstd-c2e64df9465a3b60.so:_RNvXs1t_NtNtCsb9yGazm0UdS_4core3num7nonzeroINtB6_7NonZerojENtNtNtBa_3str6traits7FromStr8from_str
libstd-c2e64df9465a3b60.so:_RNvXs1t_NtNtCsb9yGazm0UdS_4core4sync6atomicNtB6_11AtomicUsizeNtNtBa_3fmt5Debug3fmt
libstd-c2e64df9465a3b60.so:_RNvXs1u_NtCsjAaqe0woR93_3std4pathNtB6_16StripPrefixErrorNtNtCsb9yGazm0UdS_4core3fmt7Display3fmt
libstd-c2e64df9465a3b60.so:_RNvXs1w_NtCsjAaqe0woR93_3std4pathNtB6_14NormalizeErrorNtNtCsb9yGazm0UdS_4core3fmt7Display3fmt
libstd-c2e64df9465a3b60.so:_RNvXs1y_NtNtCsb9yGazm0UdS_4core3num11niche_typesNtB6_16NonZeroI128InnerNtNtBa_3fmt5Debug3fmt
libstd-c2e64df9465a3b60.so:_RNvXs20_NtNtCsb9yGazm0UdS_4core3str4iterNtB6_11EscapeDebugNtNtBa_3fmt7Display3fmt
libstd-c2e64df9465a3b60.so:_RNvXs23_NtNtCsb9yGazm0UdS_4core3str4iterNtB6_13EscapeDefaultNtNtBa_3fmt7Display3fmt
libstd-c2e64df9465a3b60.so:_RNvXs24_NtNtCsb9yGazm0UdS_4core3num11niche_typesNtB6_13U32NotAllOnesNtNtBa_3fmt5Debug3fmt
libstd-c2e64df9465a3b60.so:_RNvXs26_NtNtCsb9yGazm0UdS_4core3str4iterNtB6_13EscapeUnicodeNtNtBa_3fmt7Display3fmt
libstd-c2e64df9465a3b60.so:_RNvXs2A_NtNtCsb9yGazm0UdS_4core3num11niche_typesNtB6_16NonZeroCharInnerNtNtBa_3fmt5Debug3fmt
libstd-c2e64df9465a3b60.so:_RNvXs2K_NtCs1N8gx4w2hz2_5gimli9constantsNtB6_12DwVirtualityNtNtCsb9yGazm0UdS_4core3fmt7Display3fmt
libstd-c2e64df9465a3b60.so:_RNvXs2W_NtCs1N8gx4w2hz2_5gimli9constantsNtB6_6DwLangNtNtCsb9yGazm0UdS_4core3fmt7Display3fmt
libstd-c2e64df9465a3b60.so:_RNvXs2_CsiNDExn1lzIo_14rustc_demangleNtB5_8DemangleNtNtCsb9yGazm0UdS_4core3fmt5Debug3fmt
libstd-c2e64df9465a3b60.so:_RNvXs2_NtCs1N8gx4w2hz2_5gimli9constantsNtB5_6DwSectNtNtCsb9yGazm0UdS_4core3fmt7Display3fmt
libstd-c2e64df9465a3b60.so:_RNvXs2_NtCsb9yGazm0UdS_4core4bstrNtB5_7ByteStrNtNtB7_3fmt5Debug3fmt
libstd-c2e64df9465a3b60.so:_RNvXs2_NtCsb9yGazm0UdS_4core4charNtB5_13EscapeUnicodeNtNtB7_3fmt7Display3fmt
libstd-c2e64df9465a3b60.so:_RNvXs2_NtCsb9yGazm0UdS_4core4wtf8NtB5_4Wtf8NtNtB7_3fmt7Display3fmt
libstd-c2e64df9465a3b60.so:_RNvXs2_NtCseSYdJn4aADg_5alloc11collectionsNtB5_15TryReserveErrorNtNtCsb9yGazm0UdS_4core3fmt7Display3fmt
libstd-c2e64df9465a3b60.so:_RNvXs2_NtCsjAaqe0woR93_3std3envNtB5_8VarErrorNtNtCsb9yGazm0UdS_4core3fmt7Display3fmt
libstd-c2e64df9465a3b60.so:_RNvXs2_NtCsjAaqe0woR93_3std4timeNtB5_7InstantINtNtNtCsb9yGazm0UdS_4core3ops5arith9SubAssignNtNtBO_4time8DurationE10sub_assign
libstd-c2e64df9465a3b60.so:_RNvXs2_NtCsjAaqe0woR93_3std7processNtB5_5ChildNtNtCsb9yGazm0UdS_4core3fmt5Debug3fmt
libstd-c2e64df9465a3b60.so:_RNvXs2_NtNtCs1N8gx4w2hz2_5gimli4read12endian_sliceNtB5_10DebugBytesNtNtCsb9yGazm0UdS_4core3fmt5Debug3fmt
libstd-c2e64df9465a3b60.so:_RNvXs2_NtNtCsb9yGazm0UdS_4core3fmt3numjNtB7_6Binary3fmt
libstd-c2e64df9465a3b60.so:_RNvXs2_NtNtCsb9yGazm0UdS_4core3fmt5floatfNtB7_5Debug3fmt
libstd-c2e64df9465a3b60.so:_RNvXs2_NtNtCsb9yGazm0UdS_4core3net6parserNtNtB7_7ip_addr8Ipv4AddrNtNtNtB9_3str6traits7FromStr8from_str
libstd-c2e64df9465a3b60.so:_RNvXs2_NtNtCsb9yGazm0UdS_4core3net7ip_addrNtB5_6IpAddrNtNtB9_3fmt7Display3fmt
libstd-c2e64df9465a3b60.so:_RNvXs2_NtNtCsb9yGazm0UdS_4core3num7dec2fltdNtNtNtB9_3str6traits7FromStr8from_str
libstd-c2e64df9465a3b60.so:_RNvXs2_NtNtCsb9yGazm0UdS_4core3str5lossyNtB5_10Utf8ChunksNtNtNtNtB9_4iter6traits8iterator8Iterator4next
libstd-c2e64df9465a3b60.so:_RNvXs2_NtNtCsb9yGazm0UdS_4core5slice3cmpNtNtNtCs1N8gx4w2hz2_5gimli4read6abbrev22AttributeSpecificationINtB5_14SlicePartialEqBC_E17equal_same_lengthBI_
libstd-c2e64df9465a3b60.so:_RNvXs2_NtNtCsb9yGazm0UdS_4core5slice5asciiNtB5_11EscapeAsciiNtNtB9_3fmt7Display3fmt
libstd-c2e64df9465a3b60.so:_RNvXs2_NtNtCseSYdJn4aADg_5alloc3ffi5c_strNtB5_7CStringNtNtCsb9yGazm0UdS_4core3fmt5Debug3fmt
libstd-c2e64df9465a3b60.so:_RNvXs2_NtNtCsfC9nJ0KPYer_6object4read4utilNtB5_10ByteStringNtNtCsb9yGazm0UdS_4core3fmt5Debug3fmt
libstd-c2e64df9465a3b60.so:_RNvXs2_NtNtCsfC9nJ0KPYer_6object4read7archiveNtB5_21ArchiveSymbolIteratorNtNtNtNtCsb9yGazm0UdS_4core4iter6traits8iterator8Iterator4next
libstd-c2e64df9465a3b60.so:_RNvXs2_NtNtCsfC9nJ0KPYer_6object4read7archiveNtB5_21ArchiveSymbolIteratorNtNtNtNtCsb9yGazm0UdS_4core4iter6traits8iterator8Iterator9size_hint
libstd-c2e64df9465a3b60.so:_RNvXs2_NtNtCsjAaqe0woR93_3std12backtrace_rs9symbolizeNtB5_10SymbolNameNtNtCsb9yGazm0UdS_4core3fmt7Display3fmt
libstd-c2e64df9465a3b60.so:_RNvXs2_NtNtCsjAaqe0woR93_3std2io5stdioNtB5_5StdinNtNtCsb9yGazm0UdS_4core3fmt5Debug3fmt
libstd-c2e64df9465a3b60.so:_RNvXs2_NtNtCsjAaqe0woR93_3std3net3tcpRNtB5_9TcpStreamNtNtB9_2io5Write14write_vectored
libstd-c2e64df9465a3b60.so:_RNvXs2_NtNtCsjAaqe0woR93_3std3net3tcpRNtB5_9TcpStreamNtNtB9_2io5Write5write
libstd-c2e64df9465a3b60.so:_RNvXs2_NtNtCsjAaqe0woR93_3std3net3udpNtB5_9UdpSocketNtNtCsb9yGazm0UdS_4core3fmt5Debug3fmt
libstd-c2e64df9465a3b60.so:_RNvXs2_NtNtCsjAaqe0woR93_3std6thread6scopedNtB5_5ScopeNtNtCsb9yGazm0UdS_4core3fmt5Debug3fmt
libstd-c2e64df9465a3b60.so:_RNvXs2_NtNtNtCsb9yGazm0UdS_4core3num6bignum5testsNtB5_6Big8x3NtNtBb_3cmp3Ord3cmp
libstd-c2e64df9465a3b60.so:_RNvXs2_NtNtNtCsjAaqe0woR93_3std12backtrace_rs9backtrace9libunwindNtB5_4BombNtNtNtCsb9yGazm0UdS_4core3ops4drop4Drop4drop
libstd-c2e64df9465a3b60.so:_RNvXs2_NtNtNtCsjAaqe0woR93_3std2io8buffered9bufwriterNtB5_14WriterPanickedNtNtCsb9yGazm0UdS_4core3fmt7Display3fmt
libstd-c2e64df9465a3b60.so:_RNvXs2_NtNtNtCsjAaqe0woR93_3std2os4unix2ioNtNtNtBb_2io5stdio6StderrNtB5_8StdioExt7take_fd
libstd-c2e64df9465a3b60.so:_RNvXs2_NtNtNtCsjAaqe0woR93_3std3sys3env6commonNtB5_3EnvNtNtNtNtCsb9yGazm0UdS_4core4iter6traits8iterator8Iterator4next
libstd-c2e64df9465a3b60.so:_RNvXs2_NtNtNtCsjAaqe0woR93_3std3sys3env6commonNtB5_3EnvNtNtNtNtCsb9yGazm0UdS_4core4iter6traits8iterator8Iterator9size_hint
libstd-c2e64df9465a3b60.so:_RNvXs2_NtNtNtCsjAaqe0woR93_3std3sys4time4unixNtB5_7InstantNtNtCsb9yGazm0UdS_4core3fmt5Debug3fmt
libstd-c2e64df9465a3b60.so:_RNvXs2_NtNtNtCsjAaqe0woR93_3std3sys6os_str5bytesNtB5_3BufNtNtCsb9yGazm0UdS_4core3fmt7Display3fmt
libstd-c2e64df9465a3b60.so:_RNvXs2_NtNtNtNtCsjAaqe0woR93_3std2os4unix3net6streamRNtB5_10UnixStreamNtNtBd_2io4Read13read_vectored
libstd-c2e64df9465a3b60.so:_RNvXs2_NtNtNtNtCsjAaqe0woR93_3std2os4unix3net6streamRNtB5_10UnixStreamNtNtBd_2io4Read4read
libstd-c2e64df9465a3b60.so:_RNvXs2_NtNtNtNtCsjAaqe0woR93_3std2os4unix3net6streamRNtB5_10UnixStreamNtNtBd_2io4Read8read_buf
libstd-c2e64df9465a3b60.so:_RNvXs2_NtNtNtNtCsjAaqe0woR93_3std2os4unix3net9ancillaryNtB5_14ScmCredentialsNtNtNtNtCsb9yGazm0UdS_4core4iter6traits8iterator8Iterator4next
libstd-c2e64df9465a3b60.so:_RNvXs2_NtNtNtNtCsjAaqe0woR93_3std3sys2fs4unix3dirNtNtBd_2fs3DirNtNtNtNtBd_2os2fd3raw9FromRawFd11from_raw_fd
libstd-c2e64df9465a3b60.so:_RNvXs2_NtNtNtNtCsjAaqe0woR93_3std3sys3net10connection6socketNtB5_10LookupHostNtNtNtCsb9yGazm0UdS_4core3ops4drop4Drop4drop
libstd-c2e64df9465a3b60.so:_RNvXs2_NtNtNtNtNtCsjAaqe0woR93_3std3sys3net10connection6socket4unixNtB5_6SocketNtNtNtNtBf_2os2fd5owned4AsFd5as_fd
libstd-c2e64df9465a3b60.so:_RNvXs2_NtNtNtNtNtCsjAaqe0woR93_3std3sys3pal4unix5linux5pidfdNtB5_5PidFdNtNtNtNtBf_2os2fd3raw9FromRawFd11from_raw_fd
libstd-c2e64df9465a3b60.so:_RNvXs2_NvNtCsjAaqe0woR93_3std9panicking13panic_handlerNtB5_16StaticStrPayloadNtNtCsb9yGazm0UdS_4core3fmt7Display3fmt
libstd-c2e64df9465a3b60.so:_RNvXs2a_NtCs1N8gx4w2hz2_5gimli9constantsNtB6_5DwEndNtNtCsb9yGazm0UdS_4core3fmt7Display3fmt
libstd-c2e64df9465a3b60.so:_RNvXs2c_NtNtCsb9yGazm0UdS_4core3num11niche_typesNtB6_13I32NotAllOnesNtNtBa_3fmt5Debug3fmt
libstd-c2e64df9465a3b60.so:_RNvXs2c_NtNtNtNtCs2fTyH9gQt0w_4libc4unix10linux_like5linux3gnuNtB6_8sifieldsNtNtCsb9yGazm0UdS_4core3fmt5Debug3fmt
libstd-c2e64df9465a3b60.so:_RNvXs2k_NtNtCsb9yGazm0UdS_4core3num11niche_typesNtB6_13U64NotAllOnesNtNtBa_3fmt5Debug3fmt
libstd-c2e64df9465a3b60.so:_RNvXs2k_NtNtNtNtCs2fTyH9gQt0w_4libc4unix10linux_like5linux3gnuNtB6_38___c_anonymous_ptrace_syscall_info_dataNtNtCsb9yGazm0UdS_4core3fmt5Debug3fmt
libstd-c2e64df9465a3b60.so:_RNvXs2m_NtCs1N8gx4w2hz2_5gimli9constantsNtB6_8DwAccessNtNtCsb9yGazm0UdS_4core3fmt7Display3fmt
libstd-c2e64df9465a3b60.so:_RNvXs2s_NtNtCsb9yGazm0UdS_4core3num11niche_typesNtB6_13I64NotAllOnesNtNtBa_3fmt5Debug3fmt
libstd-c2e64df9465a3b60.so:_RNvXs2y_NtCs1N8gx4w2hz2_5gimli9constantsNtB6_5DwVisNtNtCsb9yGazm0UdS_4core3fmt7Display3fmt
libstd-c2e64df9465a3b60.so:_RNvXs38_NtCs1N8gx4w2hz2_5gimli9constantsNtB6_6DwAddrNtNtCsb9yGazm0UdS_4core3fmt7Display3fmt
libstd-c2e64df9465a3b60.so:_RNvXs3A_NtNtCsb9yGazm0UdS_4core3num11niche_typesNtB6_14CodePointInnerNtNtBa_3fmt5Debug3fmt
libstd-c2e64df9465a3b60.so:_RNvXs3I_NtCs1N8gx4w2hz2_5gimli9constantsNtB6_5DwInlNtNtCsb9yGazm0UdS_4core3fmt7Display3fmt
libstd-c2e64df9465a3b60.so:_RNvXs3U_NtCs1N8gx4w2hz2_5gimli9constantsNtB6_5DwOrdNtNtCsb9yGazm0UdS_4core3fmt7Display3fmt
libstd-c2e64df9465a3b60.so:_RNvXs3_NtCsb9yGazm0UdS_4core4bstrNtB5_7ByteStrNtNtB7_3fmt7Display3fmt
libstd-c2e64df9465a3b60.so:_RNvXs3_NtCsb9yGazm0UdS_4core5asciiNtB5_13EscapeDefaultNtNtB7_3fmt7Display3fmt
libstd-c2e64df9465a3b60.so:_RNvXs3_NtCsjAaqe0woR93_3std4timeNtB5_7InstantNtNtNtCsb9yGazm0UdS_4core3ops5arith3Sub3sub
libstd-c2e64df9465a3b60.so:_RNvXs3_NtCsjAaqe0woR93_3std7processNtB5_10ChildStdinNtNtB7_2io5Write14write_vectored
libstd-c2e64df9465a3b60.so:_RNvXs3_NtCsjAaqe0woR93_3std7processNtB5_10ChildStdinNtNtB7_2io5Write5write
libstd-c2e64df9465a3b60.so:_RNvXs3_NtNtCs1N8gx4w2hz2_5gimli4read12endian_sliceNtB5_9DebugByteNtNtCsb9yGazm0UdS_4core3fmt5Debug3fmt
libstd-c2e64df9465a3b60.so:_RNvXs3_NtNtCsb9yGazm0UdS_4core3fmt3numiNtB7_6Binary3fmt
libstd-c2e64df9465a3b60.so:_RNvXs3_NtNtCsb9yGazm0UdS_4core3fmt5floatfNtB7_7Display3fmt
libstd-c2e64df9465a3b60.so:_RNvXs3_NtNtCsb9yGazm0UdS_4core3net7ip_addrNtB5_6IpAddrNtNtB9_3fmt5Debug3fmt
libstd-c2e64df9465a3b60.so:_RNvXs3_NtNtCsb9yGazm0UdS_4core3num5errorNtB5_13ParseIntErrorNtNtB9_3fmt7Display3fmt
libstd-c2e64df9465a3b60.so:_RNvXs3_NtNtCsb9yGazm0UdS_4core5panic8locationNtB5_8LocationNtNtB9_3fmt5Debug3fmt
libstd-c2e64df9465a3b60.so:_RNvXs3_NtNtCsb9yGazm0UdS_4core5slice5asciiNtB5_11EscapeAsciiNtNtB9_3fmt5Debug3fmt
libstd-c2e64df9465a3b60.so:_RNvXs3_NtNtCsjAaqe0woR93_3std12backtrace_rs9symbolizeNtB5_10SymbolNameNtNtCsb9yGazm0UdS_4core3fmt5Debug3fmt
libstd-c2e64df9465a3b60.so:_RNvXs3_NtNtCsjAaqe0woR93_3std2io5errorNtB5_9ErrorKindNtNtCsb9yGazm0UdS_4core3fmt7Display3fmt
libstd-c2e64df9465a3b60.so:_RNvXs3_NtNtCsjAaqe0woR93_3std2io5stdioNtB5_5StdinNtB7_4Read10read_exact
libstd-c2e64df9465a3b60.so:_RNvXs3_NtNtCsjAaqe0woR93_3std2io5stdioNtB5_5StdinNtB7_4Read11read_to_end
libstd-c2e64df9465a3b60.so:_RNvXs3_NtNtCsjAaqe0woR93_3std2io5stdioNtB5_5StdinNtB7_4Read13read_vectored
libstd-c2e64df9465a3b60.so:_RNvXs3_NtNtCsjAaqe0woR93_3std2io5stdioNtB5_5StdinNtB7_4Read14read_buf_exact
libstd-c2e64df9465a3b60.so:_RNvXs3_NtNtCsjAaqe0woR93_3std2io5stdioNtB5_5StdinNtB7_4Read14read_to_string
libstd-c2e64df9465a3b60.so:_RNvXs3_NtNtCsjAaqe0woR93_3std2io5stdioNtB5_5StdinNtB7_4Read4read
libstd-c2e64df9465a3b60.so:_RNvXs3_NtNtCsjAaqe0woR93_3std2io5stdioNtB5_5StdinNtB7_4Read8read_buf
libstd-c2e64df9465a3b60.so:_RNvXs3_NtNtCsjAaqe0woR93_3std4sync4onceNtB5_9OnceStateNtNtCsb9yGazm0UdS_4core3fmt5Debug3fmt
libstd-c2e64df9465a3b60.so:_RNvXs3_NtNtNtCsb9yGazm0UdS_4core3fmt3num3imptNtB9_7Display3fmt
libstd-c2e64df9465a3b60.so:_RNvXs3_NtNtNtCsb9yGazm0UdS_4core4iter8adapters3zipINtB5_3ZipINtNtNtBb_5slice4iter4ItertEINtBZ_7IterMutmEEINtB5_7ZipImplBW_B1o_E3newCs4I7onBBY15v_11miniz_oxide
libstd-c2e64df9465a3b60.so:_RNvXs3_NtNtNtCsjAaqe0woR93_3std2io8buffered9bufwriterNtB5_14WriterPanickedNtNtCsb9yGazm0UdS_4core3fmt5Debug3fmt
libstd-c2e64df9465a3b60.so:_RNvXs3_NtNtNtCsjAaqe0woR93_3std2os4unix2ioNtNtNtBb_2io5stdio10StderrLockNtB5_8StdioExt7take_fd
libstd-c2e64df9465a3b60.so:_RNvXs3_NtNtNtCsjAaqe0woR93_3std2os5linux7processNtB5_5PidFdNtNtNtB9_2fd3raw9FromRawFd11from_raw_fd
libstd-c2e64df9465a3b60.so:_RNvXs3_NtNtNtCsjAaqe0woR93_3std3sys2fd4unixNtB5_8FileDescNtNtNtNtBb_2os2fd5owned4AsFd5as_fd
libstd-c2e64df9465a3b60.so:_RNvXs3_NtNtNtCsjAaqe0woR93_3std3sys5stdio4unixNtB5_6StderrNtNtBb_2io5Write14write_vectored
libstd-c2e64df9465a3b60.so:_RNvXs3_NtNtNtCsjAaqe0woR93_3std3sys5stdio4unixNtB5_6StderrNtNtBb_2io5Write5write
libstd-c2e64df9465a3b60.so:_RNvXs3_NtNtNtCsjAaqe0woR93_3std3sys6os_str5bytesNtB5_5SliceNtNtCsb9yGazm0UdS_4core3fmt5Debug3fmt
libstd-c2e64df9465a3b60.so:_RNvXs3_NtNtNtNtCsjAaqe0woR93_3std2os4unix3net6streamNtB5_10UnixStreamNtNtBd_2io5Write14write_vectored
libstd-c2e64df9465a3b60.so:_RNvXs3_NtNtNtNtCsjAaqe0woR93_3std2os4unix3net6streamNtB5_10UnixStreamNtNtBd_2io5Write5write
libstd-c2e64df9465a3b60.so:_RNvXs3_NtNtNtNtCsjAaqe0woR93_3std3sys2fs4unix3dirNtNtBd_2fs3DirNtNtNtNtBd_2os2fd5owned4AsFd5as_fd
libstd-c2e64df9465a3b60.so:_RNvXs3_NtNtNtNtCsjAaqe0woR93_3std3sys2io11kernel_copy5linuxNtNtBd_2fs4FileNtB5_8CopyRead10properties
libstd-c2e64df9465a3b60.so:_RNvXs3_NtNtNtNtCsjAaqe0woR93_3std3sys7process4unix4unixNtB5_10ExitStatusNtNtCsb9yGazm0UdS_4core3fmt7Display3fmt
libstd-c2e64df9465a3b60.so:_RNvXs3_NtNtNtNtNtCsjAaqe0woR93_3std3sys7process4unix6common13cstring_arrayNtB5_12CStringArrayNtNtNtCsb9yGazm0UdS_4core3ops4drop4Drop4drop
libstd-c2e64df9465a3b60.so:_RNvXs3k_NtCs1N8gx4w2hz2_5gimli9constantsNtB6_4DwIdNtNtCsb9yGazm0UdS_4core3fmt7Display3fmt
libstd-c2e64df9465a3b60.so:_RNvXs3w_NtCs1N8gx4w2hz2_5gimli9constantsNtB6_4DwCcNtNtCsb9yGazm0UdS_4core3fmt7Display3fmt
libstd-c2e64df9465a3b60.so:_RNvXs46_NtCs1N8gx4w2hz2_5gimli9constantsNtB6_5DwDscNtNtCsb9yGazm0UdS_4core3fmt7Display3fmt
libstd-c2e64df9465a3b60.so:_RNvXs4G_NtCs1N8gx4w2hz2_5gimli9constantsNtB6_5DwLnsNtNtCsb9yGazm0UdS_4core3fmt7Display3fmt
libstd-c2e64df9465a3b60.so:_RNvXs4S_NtCs1N8gx4w2hz2_5gimli9constantsNtB6_5DwLneNtNtCsb9yGazm0UdS_4core3fmt7Display3fmt
libstd-c2e64df9465a3b60.so:_RNvXs4_NtCsb9yGazm0UdS_4core3pataNtB5_12RangePattern7sub_one
libstd-c2e64df9465a3b60.so:_RNvXs4_NtCsb9yGazm0UdS_4core5asciiNtB5_13EscapeDefaultNtNtB7_3fmt5Debug3fmt
libstd-c2e64df9465a3b60.so:_RNvXs4_NtCsb9yGazm0UdS_4core5errorNtB5_7RequestNtNtB7_3fmt5Debug3fmt
libstd-c2e64df9465a3b60.so:_RNvXs4_NtCseSYdJn4aADg_5alloc6stringNtB5_6StringNtNtCsb9yGazm0UdS_4core5clone5Clone10clone_from
libstd-c2e64df9465a3b60.so:_RNvXs4_NtCseSYdJn4aADg_5alloc6stringNtB5_6StringNtNtCsb9yGazm0UdS_4core5clone5Clone5clone
libstd-c2e64df9465a3b60.so:_RNvXs4_NtCsfC9nJ0KPYer_6object4readNtB5_12SectionIndexNtNtCsb9yGazm0UdS_4core3fmt7Display3fmt
libstd-c2e64df9465a3b60.so:_RNvXs4_NtCsjAaqe0woR93_3std3envNtB5_10SplitPathsNtNtNtNtCsb9yGazm0UdS_4core4iter6traits8iterator8Iterator4next
libstd-c2e64df9465a3b60.so:_RNvXs4_NtCsjAaqe0woR93_3std4timeNtB5_7InstantNtNtCsb9yGazm0UdS_4core3fmt5Debug3fmt
libstd-c2e64df9465a3b60.so:_RNvXs4_NtCsjAaqe0woR93_3std7processRNtB5_10ChildStdinNtNtB7_2io5Write14write_vectored
libstd-c2e64df9465a3b60.so:_RNvXs4_NtCsjAaqe0woR93_3std7processRNtB5_10ChildStdinNtNtB7_2io5Write5write
libstd-c2e64df9465a3b60.so:_RNvXs4_NtCsjAaqe0woR93_3std9backtraceNtB5_9BacktraceNtNtCsb9yGazm0UdS_4core3fmt7Display3fmt
libstd-c2e64df9465a3b60.so:_RNvXs4_NtNtCs1N8gx4w2hz2_5gimli4read12endian_sliceNtB5_8DebugLenNtNtCsb9yGazm0UdS_4core3fmt5Debug3fmt
libstd-c2e64df9465a3b60.so:_RNvXs4_NtNtCsb9yGazm0UdS_4core3fmt3numjNtB7_5Octal3fmt
libstd-c2e64df9465a3b60.so:_RNvXs4_NtNtCsb9yGazm0UdS_4core3fmt5floatfNtB7_8LowerExp3fmt
libstd-c2e64df9465a3b60.so:_RNvXs4_NtNtCsb9yGazm0UdS_4core3net11socket_addrNtB5_10SocketAddrNtNtB9_3fmt7Display3fmt
libstd-c2e64df9465a3b60.so:_RNvXs4_NtNtCsb9yGazm0UdS_4core3net6parserNtNtB7_7ip_addr8Ipv6AddrNtNtNtB9_3str6traits7FromStr8from_str
libstd-c2e64df9465a3b60.so:_RNvXs4_NtNtCsb9yGazm0UdS_4core3str5lossyNtB5_10Utf8ChunksNtNtB9_3fmt5Debug3fmt
libstd-c2e64df9465a3b60.so:_RNvXs4_NtNtCseSYdJn4aADg_5alloc3ffi5c_strNtB5_7CStringNtNtCsb9yGazm0UdS_4core7default7Default7default
libstd-c2e64df9465a3b60.so:_RNvXs4_NtNtCsjAaqe0woR93_3std2io4copyINtNtCseSYdJn4aADg_5alloc3vec3VechENtB5_18BufferedWriterSpec11buffer_size
libstd-c2e64df9465a3b60.so:_RNvXs4_NtNtCsjAaqe0woR93_3std2io4pipeRNtB5_10PipeReaderNtB7_4Read11read_to_end
libstd-c2e64df9465a3b60.so:_RNvXs4_NtNtCsjAaqe0woR93_3std2io4pipeRNtB5_10PipeReaderNtB7_4Read13read_vectored
libstd-c2e64df9465a3b60.so:_RNvXs4_NtNtCsjAaqe0woR93_3std2io4pipeRNtB5_10PipeReaderNtB7_4Read4read
libstd-c2e64df9465a3b60.so:_RNvXs4_NtNtCsjAaqe0woR93_3std2io4pipeRNtB5_10PipeReaderNtB7_4Read8read_buf
libstd-c2e64df9465a3b60.so:_RNvXs4_NtNtCsjAaqe0woR93_3std2io5stdioRNtB5_5StdinNtB7_4Read10read_exact
libstd-c2e64df9465a3b60.so:_RNvXs4_NtNtCsjAaqe0woR93_3std2io5stdioRNtB5_5StdinNtB7_4Read11read_to_end
libstd-c2e64df9465a3b60.so:_RNvXs4_NtNtCsjAaqe0woR93_3std2io5stdioRNtB5_5StdinNtB7_4Read13read_vectored
libstd-c2e64df9465a3b60.so:_RNvXs4_NtNtCsjAaqe0woR93_3std2io5stdioRNtB5_5StdinNtB7_4Read14read_buf_exact
libstd-c2e64df9465a3b60.so:_RNvXs4_NtNtCsjAaqe0woR93_3std2io5stdioRNtB5_5StdinNtB7_4Read14read_to_string
libstd-c2e64df9465a3b60.so:_RNvXs4_NtNtCsjAaqe0woR93_3std2io5stdioRNtB5_5StdinNtB7_4Read4read
libstd-c2e64df9465a3b60.so:_RNvXs4_NtNtCsjAaqe0woR93_3std2io5stdioRNtB5_5StdinNtB7_4Read8read_buf
libstd-c2e64df9465a3b60.so:_RNvXs4_NtNtCsjAaqe0woR93_3std3net11socket_addrTRetENtB5_13ToSocketAddrs15to_socket_addrs
libstd-c2e64df9465a3b60.so:_RNvXs4_NtNtCsjAaqe0woR93_3std4hash6randomNtB5_11RandomStateNtNtCsb9yGazm0UdS_4core3fmt5Debug3fmt
libstd-c2e64df9465a3b60.so:_RNvXs4_NtNtCslJiKa1tWyHe_6memchr6memmem8searcherNtB5_9PrefilterNtNtCsb9yGazm0UdS_4core3fmt5Debug3fmt
libstd-c2e64df9465a3b60.so:_RNvXs4_NtNtNtCsb9yGazm0UdS_4core3fmt3num3impsNtB9_7Display3fmt
libstd-c2e64df9465a3b60.so:_RNvXs4_NtNtNtCsjAaqe0woR93_3std3sys6os_str5bytesNtB5_5SliceNtNtCsb9yGazm0UdS_4core3fmt7Display3fmt
libstd-c2e64df9465a3b60.so:_RNvXs4_NtNtNtNtCsjAaqe0woR93_3std2os4unix3net6streamRNtB5_10UnixStreamNtNtBd_2io5Write14write_vectored
libstd-c2e64df9465a3b60.so:_RNvXs4_NtNtNtNtCsjAaqe0woR93_3std2os4unix3net6streamRNtB5_10UnixStreamNtNtBd_2io5Write5write
libstd-c2e64df9465a3b60.so:_RNvXs4_NtNtNtNtCsjAaqe0woR93_3std2os4unix3net9ancillaryNtB5_8MessagesNtNtNtNtCsb9yGazm0UdS_4core4iter6traits8iterator8Iterator4next
libstd-c2e64df9465a3b60.so:_RNvXs4_NtNtNtNtCsjAaqe0woR93_3std3sys2io11kernel_copy5linuxRNtNtBd_2fs4FileNtB5_8CopyRead10properties
libstd-c2e64df9465a3b60.so:_RNvXs4_NtNtNtNtNtCsjAaqe0woR93_3std3sys7process4unix6common13cstring_arrayNtB5_11CStringIterNtNtNtNtCsb9yGazm0UdS_4core4iter6traits8iterator8Iterator4next
libstd-c2e64df9465a3b60.so:_RNvXs4_NtNtNtNtNtCsjAaqe0woR93_3std3sys7process4unix6common13cstring_arrayNtB5_11CStringIterNtNtNtNtCsb9yGazm0UdS_4core4iter6traits8iterator8Iterator9size_hint
libstd-c2e64df9465a3b60.so:_RNvXs4i_NtCs1N8gx4w2hz2_5gimli9constantsNtB6_5DwIdxNtNtCsb9yGazm0UdS_4core3fmt7Display3fmt
libstd-c2e64df9465a3b60.so:_RNvXs4u_NtCs1N8gx4w2hz2_5gimli9constantsNtB6_11DwDefaultedNtNtCsb9yGazm0UdS_4core3fmt7Display3fmt
libstd-c2e64df9465a3b60.so:_RNvXs54_NtCs1N8gx4w2hz2_5gimli9constantsNtB6_6DwLnctNtNtCsb9yGazm0UdS_4core3fmt7Display3fmt
libstd-c2e64df9465a3b60.so:_RNvXs5E_NtCs1N8gx4w2hz2_5gimli9constantsNtB6_5DwRleNtNtCsb9yGazm0UdS_4core3fmt7Display3fmt
libstd-c2e64df9465a3b60.so:_RNvXs5Q_NtCs1N8gx4w2hz2_5gimli9constantsNtB6_4DwOpNtNtCsb9yGazm0UdS_4core3fmt7Display3fmt
libstd-c2e64df9465a3b60.so:_RNvXs5_NtCsb9yGazm0UdS_4core3patsNtB5_12RangePattern7sub_one
libstd-c2e64df9465a3b60.so:_RNvXs5_NtCsfC9nJ0KPYer_6object4readNtB5_11SymbolIndexNtNtCsb9yGazm0UdS_4core3fmt7Display3fmt
libstd-c2e64df9465a3b60.so:_RNvXs5_NtCsjAaqe0woR93_3std3envNtB5_10SplitPathsNtNtCsb9yGazm0UdS_4core3fmt5Debug3fmt
libstd-c2e64df9465a3b60.so:_RNvXs5_NtNtCsb9yGazm0UdS_4core3fmt3numiNtB7_5Octal3fmt
libstd-c2e64df9465a3b60.so:_RNvXs5_NtNtCsb9yGazm0UdS_4core3fmt5floatfNtB7_8UpperExp3fmt
libstd-c2e64df9465a3b60.so:_RNvXs5_NtNtCsb9yGazm0UdS_4core3net11socket_addrNtB5_10SocketAddrNtNtB9_3fmt5Debug3fmt
libstd-c2e64df9465a3b60.so:_RNvXs5_NtNtCsb9yGazm0UdS_4core3num6bignumNtB5_8Big32x40NtNtB9_3cmp10PartialOrd11partial_cmp
libstd-c2e64df9465a3b60.so:_RNvXs5_NtNtCsb9yGazm0UdS_4core6marker8varianceNtB5_28PhantomContravariantLifetimeNtNtB9_3fmt5Debug3fmt
libstd-c2e64df9465a3b60.so:_RNvXs5_NtNtCsjAaqe0woR93_3std2io4pipeNtB5_10PipeReaderNtB7_4Read11read_to_end
libstd-c2e64df9465a3b60.so:_RNvXs5_NtNtCsjAaqe0woR93_3std2io4pipeNtB5_10PipeReaderNtB7_4Read13read_vectored
libstd-c2e64df9465a3b60.so:_RNvXs5_NtNtCsjAaqe0woR93_3std2io4pipeNtB5_10PipeReaderNtB7_4Read4read
libstd-c2e64df9465a3b60.so:_RNvXs5_NtNtCsjAaqe0woR93_3std2io4pipeNtB5_10PipeReaderNtB7_4Read8read_buf
libstd-c2e64df9465a3b60.so:_RNvXs5_NtNtCsjAaqe0woR93_3std3net11socket_addrTNtNtCseSYdJn4aADg_5alloc6string6StringtENtB5_13ToSocketAddrs15to_socket_addrs
libstd-c2e64df9465a3b60.so:_RNvXs5_NtNtNtCsb9yGazm0UdS_4core3num6bignum5testsNtB5_6Big8x3NtNtBb_3fmt5Debug3fmt
libstd-c2e64df9465a3b60.so:_RNvXs5_NtNtNtCsjAaqe0woR93_3std2os4unix2fsNtNtBb_2fs8DirEntryNtB5_12DirEntryExt213file_name_ref
libstd-c2e64df9465a3b60.so:_RNvXs5_NtNtNtCsjAaqe0woR93_3std2os5linux7processNtB5_5PidFdNtNtNtB9_2fd5owned4AsFd5as_fd
libstd-c2e64df9465a3b60.so:_RNvXs5_NtNtNtNtCsjAaqe0woR93_3std3sys2io11kernel_copy5linuxNtNtBd_2fs4FileNtB5_9CopyWrite10properties
libstd-c2e64df9465a3b60.so:_RNvXs5_NtNtNtNtCsjAaqe0woR93_3std3sys7process4unix4unixNtB5_15ExitStatusErrorNtNtCsb9yGazm0UdS_4core3fmt5Debug3fmt
libstd-c2e64df9465a3b60.so:_RNvXs5_NtNtNtNtNtCsjAaqe0woR93_3std3sys3net10connection6socket4unixNtB5_6SocketNtNtNtNtBf_2os2fd3raw9FromRawFd11from_raw_fd
libstd-c2e64df9465a3b60.so:_RNvXs5_NtNtNtNtNtCsjAaqe0woR93_3std3sys7process4unix6common13cstring_arrayNtB5_11CStringIterNtNtNtNtCsb9yGazm0UdS_4core4iter6traits10exact_size17ExactSizeIterator3len
libstd-c2e64df9465a3b60.so:_RNvXs5g_NtCs1N8gx4w2hz2_5gimli9constantsNtB6_9DwMacinfoNtNtCsb9yGazm0UdS_4core3fmt7Display3fmt
libstd-c2e64df9465a3b60.so:_RNvXs5s_NtCs1N8gx4w2hz2_5gimli9constantsNtB6_7DwMacroNtNtCsb9yGazm0UdS_4core3fmt7Display3fmt
libstd-c2e64df9465a3b60.so:_RNvXs62_NtCs1N8gx4w2hz2_5gimli9constantsNtB6_6DwEhPeNtNtCsb9yGazm0UdS_4core3fmt7Display3fmt
libstd-c2e64df9465a3b60.so:_RNvXs6_NtCsb9yGazm0UdS_4core3patlNtB5_12RangePattern7sub_one
libstd-c2e64df9465a3b60.so:_RNvXs6_NtCsjAaqe0woR93_3std2fsNtB5_4FileNtNtCsb9yGazm0UdS_4core3fmt5Debug3fmt
libstd-c2e64df9465a3b60.so:_RNvXs6_NtCsjAaqe0woR93_3std3envNtB5_14JoinPathsErrorNtNtCsb9yGazm0UdS_4core3fmt7Display3fmt
libstd-c2e64df9465a3b60.so:_RNvXs6_NtCsjAaqe0woR93_3std4timeNtB5_10SystemTimeINtNtNtCsb9yGazm0UdS_4core3ops5arith3AddNtNtBS_4time8DurationE3add
libstd-c2e64df9465a3b60.so:_RNvXs6_NtNtCsb9yGazm0UdS_4core3fmt3numjNtB7_8LowerHex3fmt
libstd-c2e64df9465a3b60.so:_RNvXs6_NtNtCsb9yGazm0UdS_4core3fmt5floatdNtB7_5Debug3fmt
libstd-c2e64df9465a3b60.so:_RNvXs6_NtNtCsb9yGazm0UdS_4core3net11socket_addrNtB5_12SocketAddrV4NtNtB9_3fmt7Display3fmt
libstd-c2e64df9465a3b60.so:_RNvXs6_NtNtCsb9yGazm0UdS_4core3net6parserNtNtB7_11socket_addr12SocketAddrV4NtNtNtB9_3str6traits7FromStr8from_str
libstd-c2e64df9465a3b60.so:_RNvXs6_NtNtCsb9yGazm0UdS_4core3net7ip_addrNtB5_8Ipv4AddrNtNtB9_3fmt7Display3fmt
libstd-c2e64df9465a3b60.so:_RNvXs6_NtNtCsb9yGazm0UdS_4core3num6bignumNtB5_8Big32x40NtNtB9_3cmp3Ord3cmp
libstd-c2e64df9465a3b60.so:_RNvXs6_NtNtCsb9yGazm0UdS_4core4char7convertNtB5_14ParseCharErrorNtNtB9_3fmt7Display3fmt
libstd-c2e64df9465a3b60.so:_RNvXs6_NtNtCsjAaqe0woR93_3std2io4pipeRNtB5_10PipeWriterNtB7_5Write14write_vectored
libstd-c2e64df9465a3b60.so:_RNvXs6_NtNtCsjAaqe0woR93_3std2io4pipeRNtB5_10PipeWriterNtB7_5Write5write
libstd-c2e64df9465a3b60.so:_RNvXs6_NtNtCsjAaqe0woR93_3std2io4utilNtB5_6RepeatNtNtCsb9yGazm0UdS_4core3fmt5Debug3fmt
libstd-c2e64df9465a3b60.so:_RNvXs6_NtNtCsjAaqe0woR93_3std2io5errorNtNtB5_13repr_unpacked4ReprNtNtCsb9yGazm0UdS_4core3fmt5Debug3fmt
libstd-c2e64df9465a3b60.so:_RNvXs6_NtNtCsjAaqe0woR93_3std2io5stdioNtB5_9StdinLockNtB7_4Read10read_exact
libstd-c2e64df9465a3b60.so:_RNvXs6_NtNtCsjAaqe0woR93_3std2io5stdioNtB5_9StdinLockNtB7_4Read11read_to_end
libstd-c2e64df9465a3b60.so:_RNvXs6_NtNtCsjAaqe0woR93_3std2io5stdioNtB5_9StdinLockNtB7_4Read13read_vectored
libstd-c2e64df9465a3b60.so:_RNvXs6_NtNtCsjAaqe0woR93_3std2io5stdioNtB5_9StdinLockNtB7_4Read14read_buf_exact
libstd-c2e64df9465a3b60.so:_RNvXs6_NtNtCsjAaqe0woR93_3std2io5stdioNtB5_9StdinLockNtB7_4Read14read_to_string
libstd-c2e64df9465a3b60.so:_RNvXs6_NtNtCsjAaqe0woR93_3std2io5stdioNtB5_9StdinLockNtB7_4Read4read
libstd-c2e64df9465a3b60.so:_RNvXs6_NtNtCsjAaqe0woR93_3std2io5stdioNtB5_9StdinLockNtB7_4Read8read_buf
libstd-c2e64df9465a3b60.so:_RNvXs6_NtNtCsjAaqe0woR93_3std3net11socket_addreNtB5_13ToSocketAddrs15to_socket_addrs
libstd-c2e64df9465a3b60.so:_RNvXs6_NtNtCsjAaqe0woR93_3std3net3tcpNtB5_9TcpStreamNtNtCsb9yGazm0UdS_4core3fmt5Debug3fmt
libstd-c2e64df9465a3b60.so:_RNvXs6_NtNtNtCsfC9nJ0KPYer_6object4read2pe6importNtB5_27DelayLoadDescriptorIteratorNtNtNtNtCsb9yGazm0UdS_4core4iter6traits8iterator8Iterator4next
libstd-c2e64df9465a3b60.so:_RNvXs6_NtNtNtCsfC9nJ0KPYer_6object4read3elf10attributesNtB5_22AttributeIndexIteratorNtNtNtNtCsb9yGazm0UdS_4core4iter6traits8iterator8Iterator4next
libstd-c2e64df9465a3b60.so:_RNvXs6_NtNtNtCsjAaqe0woR93_3std2os2fd5ownedNtB5_10BorrowedFdNtNtCsb9yGazm0UdS_4core3fmt5Debug3fmt
libstd-c2e64df9465a3b60.so:_RNvXs6_NtNtNtCsjAaqe0woR93_3std3sys2fd4unixNtB5_8FileDescNtNtNtNtBb_2os2fd3raw9FromRawFd11from_raw_fd
libstd-c2e64df9465a3b60.so:_RNvXs6_NtNtNtNtCsjAaqe0woR93_3std3sys2io11kernel_copy5linuxRNtNtBd_2fs4FileNtB5_9CopyWrite10properties
libstd-c2e64df9465a3b60.so:_RNvXs6_NtNtNtNtCsjAaqe0woR93_3std3sys3net10connection6socketNtB5_9TcpStreamNtNtCsb9yGazm0UdS_4core3fmt5Debug3fmt
libstd-c2e64df9465a3b60.so:_RNvXs6_NtNtNtNtCsjAaqe0woR93_3std3sys7process4unix6commonNtB5_7CommandNtNtCsb9yGazm0UdS_4core3fmt5Debug3fmt
libstd-c2e64df9465a3b60.so:_RNvXs7_NtCsb9yGazm0UdS_4core3fmtNtB5_9ArgumentsNtB5_5Debug3fmt
libstd-c2e64df9465a3b60.so:_RNvXs7_NtCsb9yGazm0UdS_4core3patxNtB5_12RangePattern7sub_one
libstd-c2e64df9465a3b60.so:_RNvXs7_NtCsjAaqe0woR93_3std2fsRNtB5_4FileNtNtB7_2io4Read11read_to_end
libstd-c2e64df9465a3b60.so:_RNvXs7_NtCsjAaqe0woR93_3std2fsRNtB5_4FileNtNtB7_2io4Read14read_to_string
libstd-c2e64df9465a3b60.so:_RNvXs7_NtCsjAaqe0woR93_3std2ioNtB5_7IoSliceNtNtCsb9yGazm0UdS_4core3fmt5Debug3fmt
libstd-c2e64df9465a3b60.so:_RNvXs7_NtCsjAaqe0woR93_3std4pathNtB5_10ComponentsNtNtCsb9yGazm0UdS_4core3fmt5Debug3fmt
libstd-c2e64df9465a3b60.so:_RNvXs7_NtCsjAaqe0woR93_3std4timeNtB5_10SystemTimeINtNtNtCsb9yGazm0UdS_4core3ops5arith9AddAssignNtNtBS_4time8DurationE10add_assign
libstd-c2e64df9465a3b60.so:_RNvXs7_NtNtCs1N8gx4w2hz2_5gimli4read6abbrevNtB5_10AttributesNtNtCsb9yGazm0UdS_4core3fmt5Debug3fmt
libstd-c2e64df9465a3b60.so:_RNvXs7_NtNtCsb9yGazm0UdS_4core3fmt3numiNtB7_8LowerHex3fmt
libstd-c2e64df9465a3b60.so:_RNvXs7_NtNtCsb9yGazm0UdS_4core3fmt5floatdNtB7_7Display3fmt
libstd-c2e64df9465a3b60.so:_RNvXs7_NtNtCsb9yGazm0UdS_4core3net11socket_addrNtB5_12SocketAddrV4NtNtB9_3fmt5Debug3fmt
libstd-c2e64df9465a3b60.so:_RNvXs7_NtNtCsb9yGazm0UdS_4core3net7ip_addrNtB5_8Ipv4AddrNtNtB9_3fmt5Debug3fmt
libstd-c2e64df9465a3b60.so:_RNvXs7_NtNtCsb9yGazm0UdS_4core4sync6atomicNtB5_10AtomicBoolNtNtB9_3fmt5Debug3fmt
libstd-c2e64df9465a3b60.so:_RNvXs7_NtNtCseSYdJn4aADg_5alloc3ffi5c_strINtNtB9_5boxed3BoxNtNtNtCsb9yGazm0UdS_4core3ffi5c_str4CStrEINtNtB11_7convert4FromRBV_E4from
libstd-c2e64df9465a3b60.so:_RNvXs7_NtNtCsjAaqe0woR93_3std2io4pipeNtB5_10PipeWriterNtB7_5Write14write_vectored
libstd-c2e64df9465a3b60.so:_RNvXs7_NtNtCsjAaqe0woR93_3std2io4pipeNtB5_10PipeWriterNtB7_5Write5write
libstd-c2e64df9465a3b60.so:_RNvXs7_NtNtCsjAaqe0woR93_3std2io5errorNtB5_5ErrorNtNtCsb9yGazm0UdS_4core3fmt7Display3fmt
libstd-c2e64df9465a3b60.so:_RNvXs7_NtNtNtCsjAaqe0woR93_3std2os2fd5ownedNtB5_7OwnedFdNtNtCsb9yGazm0UdS_4core3fmt5Debug3fmt
libstd-c2e64df9465a3b60.so:_RNvXs7_NtNtNtCsjAaqe0woR93_3std3sys2fs4unixNtB5_8FileTypeNtNtCsb9yGazm0UdS_4core3fmt5Debug3fmt
libstd-c2e64df9465a3b60.so:_RNvXs7_NtNtNtNtCsjAaqe0woR93_3std2os4unix3net8listenerNtB5_8IncomingNtNtNtNtCsb9yGazm0UdS_4core4iter6traits8iterator8Iterator4next
libstd-c2e64df9465a3b60.so:_RNvXs7_NtNtNtNtCsjAaqe0woR93_3std3sys7process4unix6commonNtB5_8ExitCodeNtNtCsb9yGazm0UdS_4core3fmt5Debug3fmt
libstd-c2e64df9465a3b60.so:_RNvXs8_NtCsb9yGazm0UdS_4core3fmtNtB5_9ArgumentsNtB5_7Display3fmt
libstd-c2e64df9465a3b60.so:_RNvXs8_NtCsb9yGazm0UdS_4core3patnNtB5_12RangePattern7sub_one
libstd-c2e64df9465a3b60.so:_RNvXs8_NtCsb9yGazm0UdS_4core5errorNtB5_6SourceNtNtNtNtB7_4iter6traits8iterator8Iterator4next
libstd-c2e64df9465a3b60.so:_RNvXs8_NtCsjAaqe0woR93_3std2fsRNtB5_4FileNtNtB7_2io5Write14write_vectored
libstd-c2e64df9465a3b60.so:_RNvXs8_NtCsjAaqe0woR93_3std2fsRNtB5_4FileNtNtB7_2io5Write5write
libstd-c2e64df9465a3b60.so:_RNvXs8_NtCsjAaqe0woR93_3std4timeNtB5_10SystemTimeINtNtNtCsb9yGazm0UdS_4core3ops5arith3SubNtNtBS_4time8DurationE3sub
libstd-c2e64df9465a3b60.so:_RNvXs8_NtCsjAaqe0woR93_3std7processNtB5_10ChildStdinNtNtCsb9yGazm0UdS_4core3fmt5Debug3fmt
libstd-c2e64df9465a3b60.so:_RNvXs8_NtNtCs1N8gx4w2hz2_5gimli4read6abbrevNtB5_10AttributesNtNtCsb9yGazm0UdS_4core3cmp9PartialEq2eq
libstd-c2e64df9465a3b60.so:_RNvXs8_NtNtCsb9yGazm0UdS_4core3fmt3numjNtB7_8UpperHex3fmt
libstd-c2e64df9465a3b60.so:_RNvXs8_NtNtCsb9yGazm0UdS_4core3fmt5floatdNtB7_8LowerExp3fmt
libstd-c2e64df9465a3b60.so:_RNvXs8_NtNtCsb9yGazm0UdS_4core3net11socket_addrNtB5_12SocketAddrV6NtNtB9_3fmt7Display3fmt
libstd-c2e64df9465a3b60.so:_RNvXs8_NtNtCsb9yGazm0UdS_4core3net6parserNtNtB7_11socket_addr12SocketAddrV6NtNtNtB9_3str6traits7FromStr8from_str
libstd-c2e64df9465a3b60.so:_RNvXs8_NtNtCseSYdJn4aADg_5alloc3ffi5c_strINtNtB9_5boxed3BoxNtNtNtCsb9yGazm0UdS_4core3ffi5c_str4CStrEINtNtB11_7convert4FromQBV_E4from
libstd-c2e64df9465a3b60.so:_RNvXs8_NtNtCsjAaqe0woR93_3std2io5errorNtB5_5ErrorNtNtCsb9yGazm0UdS_4core5error5Error5cause
libstd-c2e64df9465a3b60.so:_RNvXs8_NtNtCsjAaqe0woR93_3std2io5errorNtB5_5ErrorNtNtCsb9yGazm0UdS_4core5error5Error6source
libstd-c2e64df9465a3b60.so:_RNvXs8_NtNtCsjAaqe0woR93_3std2io5stdioNtB5_9StdinLockNtB7_7BufRead10read_until
libstd-c2e64df9465a3b60.so:_RNvXs8_NtNtCsjAaqe0woR93_3std2io5stdioNtB5_9StdinLockNtB7_7BufRead7consume
libstd-c2e64df9465a3b60.so:_RNvXs8_NtNtCsjAaqe0woR93_3std2io5stdioNtB5_9StdinLockNtB7_7BufRead8fill_buf
libstd-c2e64df9465a3b60.so:_RNvXs8_NtNtCsjAaqe0woR93_3std2io5stdioNtB5_9StdinLockNtB7_7BufRead9read_line
libstd-c2e64df9465a3b60.so:_RNvXs8_NtNtCsjAaqe0woR93_3std3net3tcpNtB5_8IncomingNtNtNtNtCsb9yGazm0UdS_4core4iter6traits8iterator8Iterator4next
libstd-c2e64df9465a3b60.so:_RNvXs8_NtNtNtCsb9yGazm0UdS_4core3fmt3num3impmNtB9_7Display3fmt
libstd-c2e64df9465a3b60.so:_RNvXs9_NtCsb9yGazm0UdS_4core3patiNtB5_12RangePattern7sub_one
libstd-c2e64df9465a3b60.so:_RNvXs9_NtCsb9yGazm0UdS_4core5sliceNtB5_19GetDisjointMutErrorNtNtB7_3fmt7Display3fmt
libstd-c2e64df9465a3b60.so:_RNvXs9_NtCsjAaqe0woR93_3std2fsRNtB5_4FileNtNtB7_2io4Seek10stream_len
libstd-c2e64df9465a3b60.so:_RNvXs9_NtCsjAaqe0woR93_3std2fsRNtB5_4FileNtNtB7_2io4Seek15stream_position
libstd-c2e64df9465a3b60.so:_RNvXs9_NtCsjAaqe0woR93_3std2fsRNtB5_4FileNtNtB7_2io4Seek4seek
libstd-c2e64df9465a3b60.so:_RNvXs9_NtCsjAaqe0woR93_3std4timeNtB5_10SystemTimeINtNtNtCsb9yGazm0UdS_4core3ops5arith9SubAssignNtNtBS_4time8DurationE10sub_assign
libstd-c2e64df9465a3b60.so:_RNvXs9_NtCsjAaqe0woR93_3std7processNtB5_11ChildStdoutNtNtB7_2io4Read11read_to_end
libstd-c2e64df9465a3b60.so:_RNvXs9_NtCsjAaqe0woR93_3std7processNtB5_11ChildStdoutNtNtB7_2io4Read13read_vectored
libstd-c2e64df9465a3b60.so:_RNvXs9_NtCsjAaqe0woR93_3std7processNtB5_11ChildStdoutNtNtB7_2io4Read4read
libstd-c2e64df9465a3b60.so:_RNvXs9_NtCsjAaqe0woR93_3std7processNtB5_11ChildStdoutNtNtB7_2io4Read8read_buf
libstd-c2e64df9465a3b60.so:_RNvXs9_NtNtCsb9yGazm0UdS_4core3fmt3numiNtB7_8UpperHex3fmt
libstd-c2e64df9465a3b60.so:_RNvXs9_NtNtCsb9yGazm0UdS_4core3fmt5floatdNtB7_8UpperExp3fmt
libstd-c2e64df9465a3b60.so:_RNvXs9_NtNtCsb9yGazm0UdS_4core3net11socket_addrNtB5_12SocketAddrV6NtNtB9_3fmt5Debug3fmt
libstd-c2e64df9465a3b60.so:_RNvXs9_NtNtCsb9yGazm0UdS_4core3num6bignumNtB5_8Big32x40NtNtB9_3fmt5Debug3fmt
libstd-c2e64df9465a3b60.so:_RNvXs9_NtNtCsb9yGazm0UdS_4core4char7convertNtB5_16CharTryFromErrorNtNtB9_3fmt7Display3fmt
libstd-c2e64df9465a3b60.so:_RNvXs9_NtNtCsb9yGazm0UdS_4core4task4wakeNtB5_5WakerNtNtB9_3fmt5Debug3fmt
libstd-c2e64df9465a3b60.so:_RNvXs9_NtNtCsb9yGazm0UdS_4core6marker8varianceNtB5_24PhantomInvariantLifetimeNtNtB9_3fmt5Debug3fmt
libstd-c2e64df9465a3b60.so:_RNvXs9_NtNtCsjAaqe0woR93_3std2io5stdioNtB5_9StdinLockNtNtCsb9yGazm0UdS_4core3fmt5Debug3fmt
libstd-c2e64df9465a3b60.so:_RNvXs9_NtNtCsjAaqe0woR93_3std3ffi6os_strNtB5_8OsStringNtNtCsb9yGazm0UdS_4core3fmt5Debug3fmt
libstd-c2e64df9465a3b60.so:_RNvXs9_NtNtCsjAaqe0woR93_3std3net11socket_addrNtNtCseSYdJn4aADg_5alloc6string6StringNtB5_13ToSocketAddrs15to_socket_addrs
libstd-c2e64df9465a3b60.so:_RNvXs9_NtNtNtCsb9yGazm0UdS_4core3fmt3num3implNtB9_7Display3fmt
libstd-c2e64df9465a3b60.so:_RNvXs9_NtNtNtCsfC9nJ0KPYer_6object4read5macho10dyld_cacheNtB5_14DyldRelocationNtNtCsb9yGazm0UdS_4core3fmt5Debug3fmt
libstd-c2e64df9465a3b60.so:_RNvXs9_NtNtNtCsfC9nJ0KPYer_6object4read5xcoff6symbolNtNtBb_5xcoff8Symbol32NtB5_6Symbol11name_offset
libstd-c2e64df9465a3b60.so:_RNvXs9_NtNtNtCsjAaqe0woR93_3std3sys2fs4unixNtB5_15FilePermissionsNtNtCsb9yGazm0UdS_4core3fmt5Debug3fmt
libstd-c2e64df9465a3b60.so:_RNvXs9_NtNtNtNtCsjAaqe0woR93_3std3sys3net10connection6socketNtB5_11TcpListenerNtNtCsb9yGazm0UdS_4core3fmt5Debug3fmt
libstd-c2e64df9465a3b60.so:_RNvXsA_NtNtCsb9yGazm0UdS_4core3fmt3numyNtB7_5Octal3fmt
libstd-c2e64df9465a3b60.so:_RNvXsA_NtNtNtCsb9yGazm0UdS_4core3fmt3num3impjNtB9_8LowerExp3fmt
libstd-c2e64df9465a3b60.so:_RNvXsA_NtNtNtCsjAaqe0woR93_3std2os2fd5ownedNtNtNtBb_2io4pipe10PipeWriterNtB5_4AsFd5as_fd
libstd-c2e64df9465a3b60.so:_RNvXsB_NtCsjAaqe0woR93_3std2fsNtB5_7ReadDirNtNtNtNtCsb9yGazm0UdS_4core4iter6traits8iterator8Iterator4next
libstd-c2e64df9465a3b60.so:_RNvXsB_NtNtCsb9yGazm0UdS_4core3fmt3numxNtB7_5Octal3fmt
libstd-c2e64df9465a3b60.so:_RNvXsB_NtNtNtCsb9yGazm0UdS_4core3fmt3num3impiNtB9_8UpperExp3fmt
libstd-c2e64df9465a3b60.so:_RNvXsC_NtCs1N8gx4w2hz2_5gimli9constantsNtB5_5DwCfaNtNtCsb9yGazm0UdS_4core3fmt7Display3fmt
libstd-c2e64df9465a3b60.so:_RNvXsC_NtNtCsb9yGazm0UdS_4core3fmt3numyNtB7_8LowerHex3fmt
libstd-c2e64df9465a3b60.so:_RNvXsC_NtNtNtCsb9yGazm0UdS_4core3fmt3num3impjNtB9_8UpperExp3fmt
libstd-c2e64df9465a3b60.so:_RNvXsD_NtCseSYdJn4aADg_5alloc3vecINtB5_3VechEINtNtCsb9yGazm0UdS_4core7convert4FromReE4from
libstd-c2e64df9465a3b60.so:_RNvXsD_NtCsjAaqe0woR93_3std2fsNtB5_8DirEntryNtNtCsb9yGazm0UdS_4core3fmt5Debug3fmt
libstd-c2e64df9465a3b60.so:_RNvXsD_NtNtCsb9yGazm0UdS_4core3fmt3numxNtB7_8LowerHex3fmt
libstd-c2e64df9465a3b60.so:_RNvXsD_NtNtCsjAaqe0woR93_3std3ffi6os_strReINtNtCsb9yGazm0UdS_4core7convert7TryFromRNtB5_5OsStrE8try_from
libstd-c2e64df9465a3b60.so:_RNvXsD_NtNtNtCsb9yGazm0UdS_4core3fmt3num3impxNtB9_8LowerExp3fmt
libstd-c2e64df9465a3b60.so:_RNvXsE_NtCsb9yGazm0UdS_4core4charNtB5_11ToUppercaseNtNtNtNtB7_4iter6traits8iterator8Iterator10advance_by
libstd-c2e64df9465a3b60.so:_RNvXsE_NtCsb9yGazm0UdS_4core4charNtB5_11ToUppercaseNtNtNtNtB7_4iter6traits8iterator8Iterator24___iterator_get_unchecked
libstd-c2e64df9465a3b60.so:_RNvXsE_NtCsb9yGazm0UdS_4core4charNtB5_11ToUppercaseNtNtNtNtB7_4iter6traits8iterator8Iterator4last
libstd-c2e64df9465a3b60.so:_RNvXsE_NtCsb9yGazm0UdS_4core4charNtB5_11ToUppercaseNtNtNtNtB7_4iter6traits8iterator8Iterator4next
libstd-c2e64df9465a3b60.so:_RNvXsE_NtCsb9yGazm0UdS_4core4charNtB5_11ToUppercaseNtNtNtNtB7_4iter6traits8iterator8Iterator5count
libstd-c2e64df9465a3b60.so:_RNvXsE_NtNtCsb9yGazm0UdS_4core3fmt3numyNtB7_8UpperHex3fmt
libstd-c2e64df9465a3b60.so:_RNvXsE_NtNtCsb9yGazm0UdS_4core3num11niche_typesNtB5_15NonZeroU32InnerNtNtB9_3fmt5Debug3fmt
libstd-c2e64df9465a3b60.so:_RNvXsE_NtNtNtCsb9yGazm0UdS_4core3fmt3num3impyNtB9_8LowerExp3fmt
libstd-c2e64df9465a3b60.so:_RNvXsF_NtCsb9yGazm0UdS_4core4charNtB5_11ToUppercaseNtNtNtNtB7_4iter6traits12double_ended19DoubleEndedIterator15advance_back_by
libstd-c2e64df9465a3b60.so:_RNvXsF_NtCsb9yGazm0UdS_4core4charNtB5_11ToUppercaseNtNtNtNtB7_4iter6traits12double_ended19DoubleEndedIterator9next_back
libstd-c2e64df9465a3b60.so:_RNvXsF_NtNtCsb9yGazm0UdS_4core3fmt3numxNtB7_8UpperHex3fmt
libstd-c2e64df9465a3b60.so:_RNvXsF_NtNtNtCsb9yGazm0UdS_4core3fmt3num3impxNtB9_8UpperExp3fmt
libstd-c2e64df9465a3b60.so:_RNvXsG_NtCsjAaqe0woR93_3std4pathNtB5_7PathBufNtNtCsb9yGazm0UdS_4core3fmt5Debug3fmt
libstd-c2e64df9465a3b60.so:_RNvXsG_NtNtCsb9yGazm0UdS_4core3fmt3numoNtB7_6Binary3fmt
libstd-c2e64df9465a3b60.so:_RNvXsG_NtNtNtCsb9yGazm0UdS_4core3fmt3num3impyNtB9_8UpperExp3fmt
libstd-c2e64df9465a3b60.so:_RNvXsH_NtNtCsb9yGazm0UdS_4core3fmt3numnNtB7_6Binary3fmt
libstd-c2e64df9465a3b60.so:_RNvXsI_NtNtCsb9yGazm0UdS_4core3fmt3numoNtB7_5Octal3fmt
libstd-c2e64df9465a3b60.so:_RNvXsJ_NtNtCsb9yGazm0UdS_4core3fmt3numnNtB7_5Octal3fmt
libstd-c2e64df9465a3b60.so:_RNvXsK_NtNtCsb9yGazm0UdS_4core3fmt3numoNtB7_8LowerHex3fmt
libstd-c2e64df9465a3b60.so:_RNvXsK_NtNtCsb9yGazm0UdS_4core4sync6atomicNtB5_8AtomicI8NtNtB9_3fmt5Debug3fmt
libstd-c2e64df9465a3b60.so:_RNvXsL_NtCsjAaqe0woR93_3std7processNtB5_10ExitStatusNtNtCsb9yGazm0UdS_4core3fmt7Display3fmt
libstd-c2e64df9465a3b60.so:_RNvXsL_NtNtCsb9yGazm0UdS_4core3fmt3numnNtB7_8LowerHex3fmt
libstd-c2e64df9465a3b60.so:_RNvXsM_NtNtCsb9yGazm0UdS_4core3fmt3numoNtB7_8UpperHex3fmt
libstd-c2e64df9465a3b60.so:_RNvXsM_NtNtCsb9yGazm0UdS_4core3num11niche_typesNtB5_15NonZeroU64InnerNtNtB9_3fmt5Debug3fmt
libstd-c2e64df9465a3b60.so:_RNvXsN_NtCseSYdJn4aADg_5alloc6stringNtB5_6StringINtNtCsb9yGazm0UdS_4core7convert4FromINtNtB7_5boxed3BoxeEE4from
libstd-c2e64df9465a3b60.so:_RNvXsN_NtNtCsb9yGazm0UdS_4core3fmt3numnNtB7_8UpperHex3fmt
libstd-c2e64df9465a3b60.so:_RNvXsN_NtNtCsb9yGazm0UdS_4core3str4iterNtB5_11EncodeUtf16NtNtB9_3fmt5Debug3fmt
libstd-c2e64df9465a3b60.so:_RNvXsO_NtCs1N8gx4w2hz2_5gimli9constantsNtB5_10DwChildrenNtNtCsb9yGazm0UdS_4core3fmt7Display3fmt
libstd-c2e64df9465a3b60.so:_RNvXsO_NtCseSYdJn4aADg_5alloc6stringINtNtB7_5boxed3BoxeEINtNtCsb9yGazm0UdS_4core7convert4FromNtB5_6StringE4from
libstd-c2e64df9465a3b60.so:_RNvXsO_NtNtCsjAaqe0woR93_3std3ffi6os_strNtB5_5OsStrNtNtCsb9yGazm0UdS_4core3fmt5Debug3fmt
libstd-c2e64df9465a3b60.so:_RNvXsP_NtCseSYdJn4aADg_5alloc6stringNtB5_6StringINtNtCsb9yGazm0UdS_4core7convert4FromINtNtB7_6borrow3CoweEE4from
libstd-c2e64df9465a3b60.so:_RNvXsP_NtCsjAaqe0woR93_3std7processNtB5_15ExitStatusErrorNtNtCsb9yGazm0UdS_4core3fmt7Display3fmt
libstd-c2e64df9465a3b60.so:_RNvXsP_NtNtCsb9yGazm0UdS_4core4sync6atomicNtB5_8AtomicU8NtNtB9_3fmt5Debug3fmt
libstd-c2e64df9465a3b60.so:_RNvXsP_NtNtCsjAaqe0woR93_3std3ffi6os_strNtB5_7DisplayNtNtCsb9yGazm0UdS_4core3fmt5Debug3fmt
libstd-c2e64df9465a3b60.so:_RNvXsQ_NtNtCsjAaqe0woR93_3std3ffi6os_strNtB5_7DisplayNtNtCsb9yGazm0UdS_4core3fmt7Display3fmt
libstd-c2e64df9465a3b60.so:_RNvXsR_NtCsjnMSqt2aXJ2_9hashbrown3rawNtB5_18RawIterHashIndicesNtNtCsb9yGazm0UdS_4core7default7Default7default
libstd-c2e64df9465a3b60.so:_RNvXsU_NtCsjnMSqt2aXJ2_9hashbrown3rawNtB5_18RawIterHashIndicesNtNtNtNtCsb9yGazm0UdS_4core4iter6traits8iterator8Iterator4next
libstd-c2e64df9465a3b60.so:_RNvXsU_NtNtCsb9yGazm0UdS_4core3num11niche_typesNtB5_16NonZeroU128InnerNtNtB9_3fmt5Debug3fmt
libstd-c2e64df9465a3b60.so:_RNvXsU_NtNtCsb9yGazm0UdS_4core3num7nonzeroINtB5_7NonZerohENtNtNtB9_3str6traits7FromStr8from_str
libstd-c2e64df9465a3b60.so:_RNvXsU_NtNtCsb9yGazm0UdS_4core4sync6atomicNtB5_9AtomicI16NtNtB9_3fmt5Debug3fmt
libstd-c2e64df9465a3b60.so:_RNvXsX_NtCsb9yGazm0UdS_4core5arrayAhj2_NtNtB7_7default7Default7defaultCs4I7onBBY15v_11miniz_oxide
libstd-c2e64df9465a3b60.so:_RNvXsY_NtCseSYdJn4aADg_5alloc6stringNtB5_6StringINtNtCsb9yGazm0UdS_4core7convert7TryFromINtNtB7_3vec3VechEE8try_from
libstd-c2e64df9465a3b60.so:_RNvXsZ_NtNtCsb9yGazm0UdS_4core4sync6atomicNtB5_9AtomicU16NtNtB9_3fmt5Debug3fmt
libstd-c2e64df9465a3b60.so:_RNvXs_CsiNDExn1lzIo_14rustc_demangleNtB4_13DemangleStyleNtNtCsb9yGazm0UdS_4core3fmt7Display3fmt
libstd-c2e64df9465a3b60.so:_RNvXs_NtCsb9yGazm0UdS_4core3anyDNtB4_3AnyEL_NtNtB6_3fmt5Debug3fmt
libstd-c2e64df9465a3b60.so:_RNvXs_NtCsb9yGazm0UdS_4core5allocNtB4_10AllocErrorNtNtB6_3fmt7Display3fmt
libstd-c2e64df9465a3b60.so:_RNvXs_NtCsjAaqe0woR93_3std2fsNtB4_12TryLockErrorNtNtCsb9yGazm0UdS_4core3fmt5Debug3fmt
libstd-c2e64df9465a3b60.so:_RNvXs_NtCsjAaqe0woR93_3std3envNtB4_4VarsNtNtCsb9yGazm0UdS_4core3fmt5Debug3fmt
libstd-c2e64df9465a3b60.so:_RNvXs_NtCsjAaqe0woR93_3std4timeNtB4_7InstantINtNtNtCsb9yGazm0UdS_4core3ops5arith3AddNtNtBN_4time8DurationE3add
libstd-c2e64df9465a3b60.so:_RNvXs_NtCsjAaqe0woR93_3std5panicNtB4_13PanicHookInfoNtNtCsb9yGazm0UdS_4core3fmt7Display3fmt
libstd-c2e64df9465a3b60.so:_RNvXs_NtCsjAaqe0woR93_3std9backtraceNtB4_14BacktraceFrameNtNtCsb9yGazm0UdS_4core3fmt5Debug3fmt
libstd-c2e64df9465a3b60.so:_RNvXs_NtCslJiKa1tWyHe_6memchr6memmemNtB4_8FindIterNtNtNtNtCsb9yGazm0UdS_4core4iter6traits8iterator8Iterator4next
libstd-c2e64df9465a3b60.so:_RNvXs_NtNtCsb9yGazm0UdS_4core3fmt3numnNtB6_7Display3fmt
libstd-c2e64df9465a3b60.so:_RNvXs_NtNtCsb9yGazm0UdS_4core3num7dec2fltNtB4_15ParseFloatErrorNtNtB8_3fmt7Display3fmt
libstd-c2e64df9465a3b60.so:_RNvXs_NtNtCsb9yGazm0UdS_4core3ptr9alignmentNtB4_9AlignmentNtNtB8_3fmt5Debug3fmt
libstd-c2e64df9465a3b60.so:_RNvXs_NtNtCsb9yGazm0UdS_4core3str4iterNtB4_5CharsNtNtB8_3fmt5Debug3fmt
libstd-c2e64df9465a3b60.so:_RNvXs_NtNtCsb9yGazm0UdS_4core3str5errorNtB4_9Utf8ErrorNtNtB8_3fmt7Display3fmt
libstd-c2e64df9465a3b60.so:_RNvXs_NtNtCsb9yGazm0UdS_4core5panic10panic_infoNtB4_9PanicInfoNtNtB8_3fmt7Display3fmt
libstd-c2e64df9465a3b60.so:_RNvXs_NtNtCsjAaqe0woR93_3std12backtrace_rs9backtraceNtB4_5FrameNtNtCsb9yGazm0UdS_4core3fmt5Debug3fmt
libstd-c2e64df9465a3b60.so:_RNvXs_NtNtCsjAaqe0woR93_3std2io5stdioNtB4_9StdoutRawNtB6_5Write14write_vectored
libstd-c2e64df9465a3b60.so:_RNvXs_NtNtCsjAaqe0woR93_3std2io5stdioNtB4_9StdoutRawNtB6_5Write18write_all_vectored
libstd-c2e64df9465a3b60.so:_RNvXs_NtNtCsjAaqe0woR93_3std2io5stdioNtB4_9StdoutRawNtB6_5Write5flush
libstd-c2e64df9465a3b60.so:_RNvXs_NtNtCsjAaqe0woR93_3std2io5stdioNtB4_9StdoutRawNtB6_5Write5write
libstd-c2e64df9465a3b60.so:_RNvXs_NtNtCsjAaqe0woR93_3std2io5stdioNtB4_9StdoutRawNtB6_5Write9write_all
libstd-c2e64df9465a3b60.so:_RNvXs_NtNtCsjAaqe0woR93_3std2io5stdioNtB4_9StdoutRawNtB6_5Write9write_fmt
libstd-c2e64df9465a3b60.so:_RNvXs_NtNtCsjAaqe0woR93_3std3net3tcpNtB4_9TcpStreamNtNtB8_2io4Read13read_vectored
libstd-c2e64df9465a3b60.so:_RNvXs_NtNtCsjAaqe0woR93_3std3net3tcpNtB4_9TcpStreamNtNtB8_2io4Read4read
libstd-c2e64df9465a3b60.so:_RNvXs_NtNtCsjAaqe0woR93_3std3net3tcpNtB4_9TcpStreamNtNtB8_2io4Read8read_buf
libstd-c2e64df9465a3b60.so:_RNvXs_NtNtCsjAaqe0woR93_3std4sync7barrierNtB4_7BarrierNtNtCsb9yGazm0UdS_4core3fmt5Debug3fmt
libstd-c2e64df9465a3b60.so:_RNvXs_NtNtCsjAaqe0woR93_3std4sync9nonpoisonNtB4_10WouldBlockNtNtCsb9yGazm0UdS_4core3fmt7Display3fmt
libstd-c2e64df9465a3b60.so:_RNvXs_NtNtCsjAaqe0woR93_3std6thread5localNtB4_11AccessErrorNtNtCsb9yGazm0UdS_4core3fmt5Debug3fmt
libstd-c2e64df9465a3b60.so:_RNvXs_NtNtCsjnMSqt2aXJ2_9hashbrown7control3tagNtB4_3TagNtNtCsb9yGazm0UdS_4core3fmt5Debug3fmt
libstd-c2e64df9465a3b60.so:_RNvXs_NtNtCslJiKa1tWyHe_6memchr6memmem8searcherNtB4_8SearcherNtNtCsb9yGazm0UdS_4core3fmt5Debug3fmt
libstd-c2e64df9465a3b60.so:_RNvXs_NtNtNtCsb9yGazm0UdS_4core3fmt3num3impaNtB8_7Display3fmt
libstd-c2e64df9465a3b60.so:_RNvXs_NtNtNtCsb9yGazm0UdS_4core4iter8adapters6copiedINtB4_6CopiedINtNtB6_4take4TakeINtNtNtBa_5slice4iter4IterhEEENtNtNtB8_6traits8iterator8Iterator4nextCs1N8gx4w2hz2_5gimli
libstd-c2e64df9465a3b60.so:_RNvXs_NtNtNtCsfC9nJ0KPYer_6object4read2pe10relocationNtB4_23RelocationBlockIteratorNtNtNtNtCsb9yGazm0UdS_4core4iter6traits8iterator8Iterator4next
libstd-c2e64df9465a3b60.so:_RNvXs_NtNtNtCsfC9nJ0KPYer_6object4read2pe6exportNtB4_6ExportNtNtCsb9yGazm0UdS_4core3fmt5Debug3fmt
libstd-c2e64df9465a3b60.so:_RNvXs_NtNtNtCsjAaqe0woR93_3std2os4unix2ioNtNtNtBa_2io5stdio10StdoutLockNtB4_8StdioExt7take_fd
libstd-c2e64df9465a3b60.so:_RNvXs_NtNtNtCsjAaqe0woR93_3std3sys2fd4unixRNtB4_8FileDescNtNtBa_2io4Read13read_vectored
libstd-c2e64df9465a3b60.so:_RNvXs_NtNtNtCsjAaqe0woR93_3std3sys2fd4unixRNtB4_8FileDescNtNtBa_2io4Read4read
libstd-c2e64df9465a3b60.so:_RNvXs_NtNtNtCsjAaqe0woR93_3std3sys2fd4unixRNtB4_8FileDescNtNtBa_2io4Read8read_buf
libstd-c2e64df9465a3b60.so:_RNvXs_NtNtNtCsjAaqe0woR93_3std3sys2fs6commonNtB4_3DirNtNtCsb9yGazm0UdS_4core3fmt5Debug3fmt
libstd-c2e64df9465a3b60.so:_RNvXs_NtNtNtCsjAaqe0woR93_3std3sys3env6commonNtB4_3EnvNtNtCsb9yGazm0UdS_4core3fmt5Debug3fmt
libstd-c2e64df9465a3b60.so:_RNvXs_NtNtNtCsjAaqe0woR93_3std3sys4time4unixNtB4_10SystemTimeNtNtCsb9yGazm0UdS_4core3fmt5Debug3fmt
libstd-c2e64df9465a3b60.so:_RNvXs_NtNtNtCsjAaqe0woR93_3std3sys5stdio4unixNtB4_5StdinNtNtBa_2io4Read13read_vectored
libstd-c2e64df9465a3b60.so:_RNvXs_NtNtNtCsjAaqe0woR93_3std3sys5stdio4unixNtB4_5StdinNtNtBa_2io4Read4read
libstd-c2e64df9465a3b60.so:_RNvXs_NtNtNtCsjAaqe0woR93_3std3sys5stdio4unixNtB4_5StdinNtNtBa_2io4Read8read_buf
libstd-c2e64df9465a3b60.so:_RNvXs_NtNtNtCsjAaqe0woR93_3std3sys7helpers4wstrNtB4_9WStrUnitsNtNtNtNtCsb9yGazm0UdS_4core4iter6traits8iterator8Iterator4next
libstd-c2e64df9465a3b60.so:_RNvXs_NtNtNtCsjAaqe0woR93_3std4sync4mpmc4zeroNtB4_9ZeroTokenNtNtCsb9yGazm0UdS_4core3fmt5Debug3fmt
libstd-c2e64df9465a3b60.so:_RNvXs_NtNtNtCsjAaqe0woR93_3std4sync6poison7condvarNtB4_7CondvarNtNtCsb9yGazm0UdS_4core3fmt5Debug3fmt
libstd-c2e64df9465a3b60.so:_RNvXs_NtNtNtCsjAaqe0woR93_3std4sync9nonpoison7condvarNtB4_7CondvarNtNtCsb9yGazm0UdS_4core3fmt5Debug3fmt
libstd-c2e64df9465a3b60.so:_RNvXs_NtNtNtNtCsjAaqe0woR93_3std12backtrace_rs9symbolize5gimli19parse_running_mmapsNtB4_9MapsEntryNtNtNtCsb9yGazm0UdS_4core3str6traits7FromStr8from_str
libstd-c2e64df9465a3b60.so:_RNvXs_NtNtNtNtCsjAaqe0woR93_3std12backtrace_rs9symbolize5gimli4mmapNtB4_4MmapNtNtNtCsb9yGazm0UdS_4core3ops5deref5Deref5deref
libstd-c2e64df9465a3b60.so:_RNvXs_NtNtNtNtCsjAaqe0woR93_3std2os3net9linux_ext3tcpNtNtNtBc_3net3tcp9TcpStreamNtB4_12TcpStreamExt11deferaccept
libstd-c2e64df9465a3b60.so:_RNvXs_NtNtNtNtCsjAaqe0woR93_3std2os3net9linux_ext3tcpNtNtNtBc_3net3tcp9TcpStreamNtB4_12TcpStreamExt12set_quickack
libstd-c2e64df9465a3b60.so:_RNvXs_NtNtNtNtCsjAaqe0woR93_3std2os3net9linux_ext3tcpNtNtNtBc_3net3tcp9TcpStreamNtB4_12TcpStreamExt15set_deferaccept
libstd-c2e64df9465a3b60.so:_RNvXs_NtNtNtNtCsjAaqe0woR93_3std2os3net9linux_ext3tcpNtNtNtBc_3net3tcp9TcpStreamNtB4_12TcpStreamExt8quickack
libstd-c2e64df9465a3b60.so:_RNvXs_NtNtNtNtCsjAaqe0woR93_3std2os3net9linux_ext6socketNtNtNtNtBa_4unix3net6stream10UnixStreamNtB4_13UnixSocketExt12set_passcred
libstd-c2e64df9465a3b60.so:_RNvXs_NtNtNtNtCsjAaqe0woR93_3std2os3net9linux_ext6socketNtNtNtNtBa_4unix3net6stream10UnixStreamNtB4_13UnixSocketExt8passcred
libstd-c2e64df9465a3b60.so:_RNvXs_NtNtNtNtCsjAaqe0woR93_3std2os4unix3net6streamNtB4_10UnixStreamNtNtCsb9yGazm0UdS_4core3fmt5Debug3fmt
libstd-c2e64df9465a3b60.so:_RNvXs_NtNtNtNtCsjAaqe0woR93_3std2os4unix3net8datagramNtB4_12UnixDatagramNtNtCsb9yGazm0UdS_4core3fmt5Debug3fmt
libstd-c2e64df9465a3b60.so:_RNvXs_NtNtNtNtCsjAaqe0woR93_3std3sys2fs4unix3cfmNtB4_18CachedFileMetadataNtNtBc_2io5Write14write_vectored
libstd-c2e64df9465a3b60.so:_RNvXs_NtNtNtNtCsjAaqe0woR93_3std3sys2fs4unix3cfmNtB4_18CachedFileMetadataNtNtBc_2io5Write5write
libstd-c2e64df9465a3b60.so:_RNvXs_NtNtNtNtCsjAaqe0woR93_3std3sys2fs4unix3dirNtB4_3DirNtNtCsb9yGazm0UdS_4core3fmt5Debug3fmt
libstd-c2e64df9465a3b60.so:_RNvXs_NtNtNtNtCsjAaqe0woR93_3std3sys3net10connection6socketNtB4_10LookupHostNtNtNtNtCsb9yGazm0UdS_4core4iter6traits8iterator8Iterator4next
libstd-c2e64df9465a3b60.so:_RNvXs_NtNtNtNtCsjAaqe0woR93_3std3sys3pal4unix14stack_overflowNtB4_7HandlerNtNtNtCsb9yGazm0UdS_4core3ops4drop4Drop4drop
libstd-c2e64df9465a3b60.so:_RNvXs_NtNtNtNtCsjAaqe0woR93_3std3sys4sync4once5futexNtB4_15CompletionGuardNtNtNtCsb9yGazm0UdS_4core3ops4drop4Drop4drop
libstd-c2e64df9465a3b60.so:_RNvXs_NtNtNtNtNtCsjAaqe0woR93_3std3sys7process4unix6common13cstring_arrayNtB4_12CStringArrayINtNtNtCsb9yGazm0UdS_4core3ops5index5IndexjE5index
libstd-c2e64df9465a3b60.so:_RNvXs_NvMNtNtNtNtCsjAaqe0woR93_3std3sys7process4unix4unixNtNtB9_6common7Command11posix_spawnNtB4_14PosixSpawnattrNtNtNtCsb9yGazm0UdS_4core3ops4drop4Drop4drop
libstd-c2e64df9465a3b60.so:_RNvXs_NvMs_NtNtCseSYdJn4aADg_5alloc3ffi5c_strNtB9_7CString3newRShNtB4_11SpecNewImpl13spec_new_impl
libstd-c2e64df9465a3b60.so:_RNvXs_NvMs_NtNtNtCsjAaqe0woR93_3std2io8buffered9bufwriterINtB9_9BufWriterpE9flush_bufNtB4_8BufGuardNtNtNtCsb9yGazm0UdS_4core3ops4drop4Drop4drop
libstd-c2e64df9465a3b60.so:_RNvXs_NvNtCsjAaqe0woR93_3std9panicking13panic_handlerNtB4_19FormatStringPayloadNtNtCsb9yGazm0UdS_4core5panic12PanicPayload3get
libstd-c2e64df9465a3b60.so:_RNvXs_NvNtCsjAaqe0woR93_3std9panicking13panic_handlerNtB4_19FormatStringPayloadNtNtCsb9yGazm0UdS_4core5panic12PanicPayload8take_box
libstd-c2e64df9465a3b60.so:_RNvXs_NvNtCsjAaqe0woR93_3std9panicking13resume_unwindNtB4_9RewrapBoxNtNtCsb9yGazm0UdS_4core3fmt7Display3fmt
libstd-c2e64df9465a3b60.so:_RNvXs_NvXsf_NtNtCseSYdJn4aADg_5alloc5boxed7convertINtBc_3BoxDNtNtCsb9yGazm0UdS_4core5error5ErrorNtNtB11_6marker4SendNtB1y_4SyncEL_EINtNtB11_7convert4FromNtNtBe_6string6StringE4fromNtB4_11StringErrorNtNtB11_3fmt7Display3fmt
libstd-c2e64df9465a3b60.so:_RNvXsaC_NtNtNtCs2fTyH9gQt0w_4libc4unix10linux_like5linuxNtB6_22___c_anonymous_ifc_ifcuNtNtCsb9yGazm0UdS_4core3fmt5Debug3fmt
libstd-c2e64df9465a3b60.so:_RNvXsaK_NtNtNtCs2fTyH9gQt0w_4libc4unix10linux_like5linuxNtB6_13tpacket_req_uNtNtCsb9yGazm0UdS_4core3fmt5Debug3fmt
libstd-c2e64df9465a3b60.so:_RNvXsaO_NtNtNtCs2fTyH9gQt0w_4libc4unix10linux_like5linuxNtB6_19tpacket_bd_header_uNtNtCsb9yGazm0UdS_4core3fmt5Debug3fmt
libstd-c2e64df9465a3b60.so:_RNvXsa_NtCsb9yGazm0UdS_4core3anyNtB5_6TypeIdNtNtB7_3fmt5Debug3fmt
libstd-c2e64df9465a3b60.so:_RNvXsa_NtCsb9yGazm0UdS_4core3pathNtB5_12RangePattern7sub_one
libstd-c2e64df9465a3b60.so:_RNvXsa_NtCsb9yGazm0UdS_4core4timeNtB5_8DurationNtNtB7_3fmt5Debug3fmt
libstd-c2e64df9465a3b60.so:_RNvXsa_NtCsb9yGazm0UdS_4core4wtf8NtB5_14Wtf8CodePointsNtNtB7_3fmt5Debug3fmt
libstd-c2e64df9465a3b60.so:_RNvXsa_NtCsjAaqe0woR93_3std2fsNtB5_4FileNtNtB7_2io4Read11read_to_end
libstd-c2e64df9465a3b60.so:_RNvXsa_NtCsjAaqe0woR93_3std2fsNtB5_4FileNtNtB7_2io4Read13read_vectored
libstd-c2e64df9465a3b60.so:_RNvXsa_NtCsjAaqe0woR93_3std2fsNtB5_4FileNtNtB7_2io4Read14read_to_string
libstd-c2e64df9465a3b60.so:_RNvXsa_NtCsjAaqe0woR93_3std2fsNtB5_4FileNtNtB7_2io4Read4read
libstd-c2e64df9465a3b60.so:_RNvXsa_NtCsjAaqe0woR93_3std2fsNtB5_4FileNtNtB7_2io4Read8read_buf
libstd-c2e64df9465a3b60.so:_RNvXsa_NtCsjAaqe0woR93_3std3envNtB5_4ArgsNtNtNtNtCsb9yGazm0UdS_4core4iter6traits8iterator8Iterator4next
libstd-c2e64df9465a3b60.so:_RNvXsa_NtCsjAaqe0woR93_3std4timeNtB5_10SystemTimeNtNtCsb9yGazm0UdS_4core3fmt5Debug3fmt
libstd-c2e64df9465a3b60.so:_RNvXsa_NtNtCs1N8gx4w2hz2_5gimli4read6abbrevNtB5_10AttributesNtNtNtCsb9yGazm0UdS_4core3ops5deref5Deref5deref
libstd-c2e64df9465a3b60.so:_RNvXsa_NtNtCsb9yGazm0UdS_4core3fmt3numhNtB7_6Binary3fmt
libstd-c2e64df9465a3b60.so:_RNvXsa_NtNtCsb9yGazm0UdS_4core3fmt5floatC3f16NtB7_5Debug3fmt
libstd-c2e64df9465a3b60.so:_RNvXsa_NtNtCsb9yGazm0UdS_4core3net6parserNtNtB7_11socket_addr10SocketAddrNtNtNtB9_3str6traits7FromStr8from_str
libstd-c2e64df9465a3b60.so:_RNvXsa_NtNtCsjAaqe0woR93_3std3net3tcpNtB5_12IntoIncomingNtNtNtNtCsb9yGazm0UdS_4core4iter6traits8iterator8Iterator4next
libstd-c2e64df9465a3b60.so:_RNvXsa_NtNtNtCsfC9nJ0KPYer_6object4read5macho10dyld_cacheNtB5_18DyldRelocationAuthNtNtCsb9yGazm0UdS_4core3fmt5Debug3fmt
libstd-c2e64df9465a3b60.so:_RNvXsa_NtNtNtCsjAaqe0woR93_3std3sys2fs4unixNtB5_7ReadDirNtNtCsb9yGazm0UdS_4core3fmt5Debug3fmt
libstd-c2e64df9465a3b60.so:_RNvXsa_NtNtNtNtCsjAaqe0woR93_3std3sys7process4unix6commonNtB5_11CommandArgsNtNtNtNtCsb9yGazm0UdS_4core4iter6traits8iterator8Iterator4next
libstd-c2e64df9465a3b60.so:_RNvXsa_NtNtNtNtCsjAaqe0woR93_3std3sys7process4unix6commonNtB5_11CommandArgsNtNtNtNtCsb9yGazm0UdS_4core4iter6traits8iterator8Iterator9size_hint
libstd-c2e64df9465a3b60.so:_RNvXsau_NtNtNtCs2fTyH9gQt0w_4libc4unix10linux_like5linuxNtB6_22___c_anonymous_ifr_ifruNtNtCsb9yGazm0UdS_4core3fmt5Debug3fmt
libstd-c2e64df9465a3b60.so:_RNvXsb0_NtNtNtCs2fTyH9gQt0w_4libc4unix10linux_like5linuxNtB6_10iwreq_dataNtNtCsb9yGazm0UdS_4core3fmt5Debug3fmt
libstd-c2e64df9465a3b60.so:_RNvXsb8_NtNtNtCs2fTyH9gQt0w_4libc4unix10linux_like5linuxNtB6_19___c_anonymous_iwreqNtNtCsb9yGazm0UdS_4core3fmt5Debug3fmt
libstd-c2e64df9465a3b60.so:_RNvXsb_NtCsb9yGazm0UdS_4core3fmtNtB5_9FormatterNtB5_5Write10write_char
libstd-c2e64df9465a3b60.so:_RNvXsb_NtCsb9yGazm0UdS_4core3fmtNtB5_9FormatterNtB5_5Write9write_str
libstd-c2e64df9465a3b60.so:_RNvXsb_NtCsb9yGazm0UdS_4core3pattNtB5_12RangePattern7sub_one
libstd-c2e64df9465a3b60.so:_RNvXsb_NtCsb9yGazm0UdS_4core4timeNtB5_21TryFromFloatSecsErrorNtNtB7_3fmt7Display3fmt
libstd-c2e64df9465a3b60.so:_RNvXsb_NtCsjAaqe0woR93_3std2fsNtB5_4FileNtNtB7_2io5Write14write_vectored
libstd-c2e64df9465a3b60.so:_RNvXsb_NtCsjAaqe0woR93_3std2fsNtB5_4FileNtNtB7_2io5Write5write
libstd-c2e64df9465a3b60.so:_RNvXsb_NtCsjAaqe0woR93_3std4pathNtB5_4IterNtNtCsb9yGazm0UdS_4core3fmt5Debug3fmt
libstd-c2e64df9465a3b60.so:_RNvXsb_NtNtCsb9yGazm0UdS_4core3fmt3numaNtB7_6Binary3fmt
libstd-c2e64df9465a3b60.so:_RNvXsb_NtNtCsb9yGazm0UdS_4core3fmt5floatC3f16NtB7_7Display3fmt
libstd-c2e64df9465a3b60.so:_RNvXsb_NtNtCsb9yGazm0UdS_4core3net6parserNtB5_14AddrParseErrorNtNtB9_3fmt7Display3fmt
libstd-c2e64df9465a3b60.so:_RNvXsb_NtNtNtCsjAaqe0woR93_3std3sys2fs4unixNtB5_7ReadDirNtNtNtNtCsb9yGazm0UdS_4core4iter6traits8iterator8Iterator4next
libstd-c2e64df9465a3b60.so:_RNvXsb_NtNtNtNtCsjAaqe0woR93_3std3sys7process4unix6commonNtB5_11CommandArgsNtNtNtNtCsb9yGazm0UdS_4core4iter6traits10exact_size17ExactSizeIterator3len
libstd-c2e64df9465a3b60.so:_RNvXsbg_NtNtNtCs2fTyH9gQt0w_4libc4unix10linux_like5linuxNtB6_34___c_anonymous_ptp_perout_request_1NtNtCsb9yGazm0UdS_4core3fmt5Debug3fmt
libstd-c2e64df9465a3b60.so:_RNvXsbk_NtNtNtCs2fTyH9gQt0w_4libc4unix10linux_like5linuxNtB6_34___c_anonymous_ptp_perout_request_2NtNtCsb9yGazm0UdS_4core3fmt5Debug3fmt
libstd-c2e64df9465a3b60.so:_RNvXsbw_NtNtNtCs2fTyH9gQt0w_4libc4unix10linux_like5linuxNtB6_35___c_anonymous_xsk_tx_metadata_unionNtNtCsb9yGazm0UdS_4core3fmt5Debug3fmt
libstd-c2e64df9465a3b60.so:_RNvXsc_NtCsb9yGazm0UdS_4core3fmtNtB5_5ErrorNtB5_7Display3fmt
libstd-c2e64df9465a3b60.so:_RNvXsc_NtCsb9yGazm0UdS_4core3patmNtB5_12RangePattern7sub_one
libstd-c2e64df9465a3b60.so:_RNvXsc_NtCsjAaqe0woR93_3std2fsNtB5_4FileNtNtB7_2io4Seek10stream_len
libstd-c2e64df9465a3b60.so:_RNvXsc_NtCsjAaqe0woR93_3std2fsNtB5_4FileNtNtB7_2io4Seek15stream_position
libstd-c2e64df9465a3b60.so:_RNvXsc_NtCsjAaqe0woR93_3std2fsNtB5_4FileNtNtB7_2io4Seek4seek
libstd-c2e64df9465a3b60.so:_RNvXsc_NtCsjAaqe0woR93_3std3envNtB5_4ArgsNtNtNtNtCsb9yGazm0UdS_4core4iter6traits12double_ended19DoubleEndedIterator9next_back
libstd-c2e64df9465a3b60.so:_RNvXsc_NtNtCsb9yGazm0UdS_4core3fmt3numhNtB7_5Octal3fmt
libstd-c2e64df9465a3b60.so:_RNvXsc_NtNtCsb9yGazm0UdS_4core3fmt5floatC3f16NtB7_8LowerExp3fmt
libstd-c2e64df9465a3b60.so:_RNvXsc_NtNtNtCsjAaqe0woR93_3std3sys2fs4unixNtB5_9DirStreamNtNtNtCsb9yGazm0UdS_4core3ops4drop4Drop4drop
libstd-c2e64df9465a3b60.so:_RNvXsc_NtNtNtNtCsjAaqe0woR93_3std3sys3net10connection6socketNtB5_9UdpSocketNtNtCsb9yGazm0UdS_4core3fmt5Debug3fmt
libstd-c2e64df9465a3b60.so:_RNvXsc_NtNtNtNtCsjAaqe0woR93_3std3sys7process4unix6commonNtB5_11CommandArgsNtNtCsb9yGazm0UdS_4core3fmt5Debug3fmt
libstd-c2e64df9465a3b60.so:_RNvXsd_NtCsb9yGazm0UdS_4core3patyNtB5_12RangePattern7sub_one
libstd-c2e64df9465a3b60.so:_RNvXsd_NtCsb9yGazm0UdS_4core4wtf8NtB5_10EncodeWideNtNtB7_3fmt5Debug3fmt
libstd-c2e64df9465a3b60.so:_RNvXsd_NtCsjAaqe0woR93_3std2fsINtNtCseSYdJn4aADg_5alloc4sync3ArcNtB5_4FileENtNtB7_2io4Read11read_to_end
libstd-c2e64df9465a3b60.so:_RNvXsd_NtCsjAaqe0woR93_3std2fsINtNtCseSYdJn4aADg_5alloc4sync3ArcNtB5_4FileENtNtB7_2io4Read13read_vectored
libstd-c2e64df9465a3b60.so:_RNvXsd_NtCsjAaqe0woR93_3std2fsINtNtCseSYdJn4aADg_5alloc4sync3ArcNtB5_4FileENtNtB7_2io4Read14read_to_string
libstd-c2e64df9465a3b60.so:_RNvXsd_NtCsjAaqe0woR93_3std2fsINtNtCseSYdJn4aADg_5alloc4sync3ArcNtB5_4FileENtNtB7_2io4Read4read
libstd-c2e64df9465a3b60.so:_RNvXsd_NtCsjAaqe0woR93_3std2fsINtNtCseSYdJn4aADg_5alloc4sync3ArcNtB5_4FileENtNtB7_2io4Read8read_buf
libstd-c2e64df9465a3b60.so:_RNvXsd_NtCsjAaqe0woR93_3std3envNtB5_4ArgsNtNtCsb9yGazm0UdS_4core3fmt5Debug3fmt
libstd-c2e64df9465a3b60.so:_RNvXsd_NtCsjAaqe0woR93_3std4timeNtB5_15SystemTimeErrorNtNtCsb9yGazm0UdS_4core3fmt7Display3fmt
libstd-c2e64df9465a3b60.so:_RNvXsd_NtCsjAaqe0woR93_3std7processNtB5_11ChildStdoutNtNtCsb9yGazm0UdS_4core3fmt5Debug3fmt
libstd-c2e64df9465a3b60.so:_RNvXsd_NtNtCsb9yGazm0UdS_4core3fmt3numaNtB7_5Octal3fmt
libstd-c2e64df9465a3b60.so:_RNvXsd_NtNtCsb9yGazm0UdS_4core3fmt5floatC3f16NtB7_8UpperExp3fmt
libstd-c2e64df9465a3b60.so:_RNvXsd_NtNtCsb9yGazm0UdS_4core3num11niche_typesNtB5_11NanosecondsNtNtB9_3fmt5Debug3fmt
libstd-c2e64df9465a3b60.so:_RNvXsd_NtNtCsjAaqe0woR93_3std2io5stdioNtB5_6StdoutNtNtCsb9yGazm0UdS_4core3fmt5Debug3fmt
libstd-c2e64df9465a3b60.so:_RNvXsd_NtNtNtCsb9yGazm0UdS_4core3fmt3num3impjNtB9_7Display3fmt
libstd-c2e64df9465a3b60.so:_RNvXse_NtCs1N8gx4w2hz2_5gimli9constantsNtB5_8DwSectV2NtNtCsb9yGazm0UdS_4core3fmt7Display3fmt
libstd-c2e64df9465a3b60.so:_RNvXse_NtCsb9yGazm0UdS_4core3patoNtB5_12RangePattern7sub_one
libstd-c2e64df9465a3b60.so:_RNvXse_NtCsb9yGazm0UdS_4core4charNtB5_15CaseMappingIterNtNtNtNtB7_4iter6traits8iterator8Iterator10advance_by
libstd-c2e64df9465a3b60.so:_RNvXse_NtCsb9yGazm0UdS_4core4charNtB5_15CaseMappingIterNtNtNtNtB7_4iter6traits8iterator8Iterator24___iterator_get_unchecked
libstd-c2e64df9465a3b60.so:_RNvXse_NtCsb9yGazm0UdS_4core4charNtB5_15CaseMappingIterNtNtNtNtB7_4iter6traits8iterator8Iterator4last
libstd-c2e64df9465a3b60.so:_RNvXse_NtCsb9yGazm0UdS_4core4charNtB5_15CaseMappingIterNtNtNtNtB7_4iter6traits8iterator8Iterator4next
libstd-c2e64df9465a3b60.so:_RNvXse_NtCsb9yGazm0UdS_4core4charNtB5_15CaseMappingIterNtNtNtNtB7_4iter6traits8iterator8Iterator5count
libstd-c2e64df9465a3b60.so:_RNvXse_NtCsjAaqe0woR93_3std2fsINtNtCseSYdJn4aADg_5alloc4sync3ArcNtB5_4FileENtNtB7_2io5Write14write_vectored
libstd-c2e64df9465a3b60.so:_RNvXse_NtCsjAaqe0woR93_3std2fsINtNtCseSYdJn4aADg_5alloc4sync3ArcNtB5_4FileENtNtB7_2io5Write5write
libstd-c2e64df9465a3b60.so:_RNvXse_NtCsjAaqe0woR93_3std7processNtB5_11ChildStderrNtNtB7_2io4Read11read_to_end
libstd-c2e64df9465a3b60.so:_RNvXse_NtCsjAaqe0woR93_3std7processNtB5_11ChildStderrNtNtB7_2io4Read13read_vectored
libstd-c2e64df9465a3b60.so:_RNvXse_NtCsjAaqe0woR93_3std7processNtB5_11ChildStderrNtNtB7_2io4Read4read
libstd-c2e64df9465a3b60.so:_RNvXse_NtCsjAaqe0woR93_3std7processNtB5_11ChildStderrNtNtB7_2io4Read8read_buf
libstd-c2e64df9465a3b60.so:_RNvXse_NtNtCsb9yGazm0UdS_4core3fmt3numhNtB7_8LowerHex3fmt
libstd-c2e64df9465a3b60.so:_RNvXse_NtNtCsjAaqe0woR93_3std2io5stdioNtB5_6StdoutNtB7_5Write14write_vectored
libstd-c2e64df9465a3b60.so:_RNvXse_NtNtCsjAaqe0woR93_3std2io5stdioNtB5_6StdoutNtB7_5Write18write_all_vectored
libstd-c2e64df9465a3b60.so:_RNvXse_NtNtCsjAaqe0woR93_3std2io5stdioNtB5_6StdoutNtB7_5Write5flush
libstd-c2e64df9465a3b60.so:_RNvXse_NtNtCsjAaqe0woR93_3std2io5stdioNtB5_6StdoutNtB7_5Write5write
libstd-c2e64df9465a3b60.so:_RNvXse_NtNtCsjAaqe0woR93_3std2io5stdioNtB5_6StdoutNtB7_5Write9write_all
libstd-c2e64df9465a3b60.so:_RNvXse_NtNtCsjAaqe0woR93_3std2io5stdioNtB5_6StdoutNtB7_5Write9write_fmt
libstd-c2e64df9465a3b60.so:_RNvXse_NtNtNtCsb9yGazm0UdS_4core3fmt3num3impiNtB9_7Display3fmt
libstd-c2e64df9465a3b60.so:_RNvXsf_NtCsb9yGazm0UdS_4core3patjNtB5_12RangePattern7sub_one
libstd-c2e64df9465a3b60.so:_RNvXsf_NtCsb9yGazm0UdS_4core4charNtB5_15CaseMappingIterNtNtNtNtB7_4iter6traits12double_ended19DoubleEndedIterator15advance_back_by
libstd-c2e64df9465a3b60.so:_RNvXsf_NtCsb9yGazm0UdS_4core4charNtB5_15CaseMappingIterNtNtNtNtB7_4iter6traits12double_ended19DoubleEndedIterator9next_back
libstd-c2e64df9465a3b60.so:_RNvXsf_NtCseSYdJn4aADg_5alloc5boxedINtB5_3BoxeENtNtCsb9yGazm0UdS_4core5clone5Clone5clone
libstd-c2e64df9465a3b60.so:_RNvXsf_NtCsjAaqe0woR93_3std2fsINtNtCseSYdJn4aADg_5alloc4sync3ArcNtB5_4FileENtNtB7_2io4Seek10stream_len
libstd-c2e64df9465a3b60.so:_RNvXsf_NtCsjAaqe0woR93_3std2fsINtNtCseSYdJn4aADg_5alloc4sync3ArcNtB5_4FileENtNtB7_2io4Seek15stream_position
libstd-c2e64df9465a3b60.so:_RNvXsf_NtCsjAaqe0woR93_3std2fsINtNtCseSYdJn4aADg_5alloc4sync3ArcNtB5_4FileENtNtB7_2io4Seek4seek
libstd-c2e64df9465a3b60.so:_RNvXsf_NtNtCsb9yGazm0UdS_4core3fmt3numaNtB7_8LowerHex3fmt
libstd-c2e64df9465a3b60.so:_RNvXsf_NtNtCsb9yGazm0UdS_4core4task4wakeNtB5_10LocalWakerNtNtB9_3fmt5Debug3fmt
libstd-c2e64df9465a3b60.so:_RNvXsf_NtNtCsjAaqe0woR93_3std2io5stdioRNtB5_6StdoutNtB7_5Write14write_vectored
libstd-c2e64df9465a3b60.so:_RNvXsf_NtNtCsjAaqe0woR93_3std2io5stdioRNtB5_6StdoutNtB7_5Write18write_all_vectored
libstd-c2e64df9465a3b60.so:_RNvXsf_NtNtCsjAaqe0woR93_3std2io5stdioRNtB5_6StdoutNtB7_5Write5flush
libstd-c2e64df9465a3b60.so:_RNvXsf_NtNtCsjAaqe0woR93_3std2io5stdioRNtB5_6StdoutNtB7_5Write5write
libstd-c2e64df9465a3b60.so:_RNvXsf_NtNtCsjAaqe0woR93_3std2io5stdioRNtB5_6StdoutNtB7_5Write9write_all
libstd-c2e64df9465a3b60.so:_RNvXsf_NtNtCsjAaqe0woR93_3std2io5stdioRNtB5_6StdoutNtB7_5Write9write_fmt
libstd-c2e64df9465a3b60.so:_RNvXsf_NtNtCsjAaqe0woR93_3std3net3tcpNtB5_11TcpListenerNtNtCsb9yGazm0UdS_4core3fmt5Debug3fmt
libstd-c2e64df9465a3b60.so:_RNvXsf_NtNtNtCsfC9nJ0KPYer_6object4read3elf10relocationNtB5_12CrelIteratorNtNtNtNtCsb9yGazm0UdS_4core4iter6traits8iterator8Iterator4next
libstd-c2e64df9465a3b60.so:_RNvXsf_NtNtNtCsjAaqe0woR93_3std2os2fd3rawNtNtNtBb_2io4pipe10PipeReaderNtB5_9FromRawFd11from_raw_fd
libstd-c2e64df9465a3b60.so:_RNvXsg_NtCsb9yGazm0UdS_4core3fmtbNtB5_7Display3fmt
libstd-c2e64df9465a3b60.so:_RNvXsg_NtNtCsb9yGazm0UdS_4core3fmt3numhNtB7_8UpperHex3fmt
libstd-c2e64df9465a3b60.so:_RNvXsg_NtNtCseSYdJn4aADg_5alloc5boxed7convertINtB7_3BoxDNtNtCsb9yGazm0UdS_4core5error5ErrorEL_EINtNtBW_7convert4FromNtNtB9_6string6StringE4from
libstd-c2e64df9465a3b60.so:_RNvXsh_NtCsb9yGazm0UdS_4core3fmteNtB5_5Debug3fmt
libstd-c2e64df9465a3b60.so:_RNvXsh_NtCseSYdJn4aADg_5alloc6borrowINtB5_3CoweEINtNtNtCsb9yGazm0UdS_4core3ops5arith9AddAssignReE10add_assign
libstd-c2e64df9465a3b60.so:_RNvXsh_NtCseSYdJn4aADg_5alloc6stringSReNtB5_13SpecExtendStr16spec_extend_into
libstd-c2e64df9465a3b60.so:_RNvXsh_NtNtCsb9yGazm0UdS_4core3fmt3numaNtB7_8UpperHex3fmt
libstd-c2e64df9465a3b60.so:_RNvXsh_NtNtNtCsjAaqe0woR93_3std3sys2fs4unixNtB5_11OpenOptionsNtNtCsb9yGazm0UdS_4core3fmt5Debug3fmt
libstd-c2e64df9465a3b60.so:_RNvXsi_NtCsb9yGazm0UdS_4core3fmteNtB5_7Display3fmt
libstd-c2e64df9465a3b60.so:_RNvXsi_NtCseSYdJn4aADg_5alloc6borrowINtB5_3CoweENtNtNtCsb9yGazm0UdS_4core3ops5arith9AddAssign10add_assign
libstd-c2e64df9465a3b60.so:_RNvXsi_NtCsjAaqe0woR93_3std4pathNtB5_10ComponentsNtNtNtNtCsb9yGazm0UdS_4core4iter6traits8iterator8Iterator4next
libstd-c2e64df9465a3b60.so:_RNvXsi_NtCsjAaqe0woR93_3std7processNtB5_11ChildStderrNtNtCsb9yGazm0UdS_4core3fmt5Debug3fmt
libstd-c2e64df9465a3b60.so:_RNvXsi_NtNtCsb9yGazm0UdS_4core3fmt3numtNtB7_6Binary3fmt
libstd-c2e64df9465a3b60.so:_RNvXsi_NtNtCseSYdJn4aADg_5alloc5boxed7convertINtB7_3BoxDNtNtCsb9yGazm0UdS_4core5error5ErrorEL_EINtNtBW_7convert4FromReE4from
libstd-c2e64df9465a3b60.so:_RNvXsi_NtNtCsjAaqe0woR93_3std2io5stdioNtB5_10StdoutLockNtB7_5Write14write_vectored
libstd-c2e64df9465a3b60.so:_RNvXsi_NtNtCsjAaqe0woR93_3std2io5stdioNtB5_10StdoutLockNtB7_5Write18write_all_vectored
libstd-c2e64df9465a3b60.so:_RNvXsi_NtNtCsjAaqe0woR93_3std2io5stdioNtB5_10StdoutLockNtB7_5Write5flush
libstd-c2e64df9465a3b60.so:_RNvXsi_NtNtCsjAaqe0woR93_3std2io5stdioNtB5_10StdoutLockNtB7_5Write5write
libstd-c2e64df9465a3b60.so:_RNvXsi_NtNtCsjAaqe0woR93_3std2io5stdioNtB5_10StdoutLockNtB7_5Write9write_all
libstd-c2e64df9465a3b60.so:_RNvXsi_NtNtNtCsb9yGazm0UdS_4core3fmt3num3impyNtB9_7Display3fmt
libstd-c2e64df9465a3b60.so:_RNvXsi_NtNtNtCsjAaqe0woR93_3std2os2fd3rawNtNtNtBb_2io4pipe10PipeWriterNtB5_9FromRawFd11from_raw_fd
libstd-c2e64df9465a3b60.so:_RNvXsj_NtCsb9yGazm0UdS_4core3fmtcNtB5_5Debug3fmt
libstd-c2e64df9465a3b60.so:_RNvXsj_NtCsjAaqe0woR93_3std3envNtB5_6ArgsOsNtNtCsb9yGazm0UdS_4core3fmt5Debug3fmt
libstd-c2e64df9465a3b60.so:_RNvXsj_NtCsjAaqe0woR93_3std4pathNtB5_10ComponentsNtNtNtNtCsb9yGazm0UdS_4core4iter6traits12double_ended19DoubleEndedIterator9next_back
libstd-c2e64df9465a3b60.so:_RNvXsj_NtNtCsb9yGazm0UdS_4core3fmt3numsNtB7_6Binary3fmt
libstd-c2e64df9465a3b60.so:_RNvXsj_NtNtCsb9yGazm0UdS_4core3net7ip_addrNtB5_8Ipv6AddrNtNtB9_3fmt7Display3fmt
libstd-c2e64df9465a3b60.so:_RNvXsj_NtNtCseSYdJn4aADg_5alloc5boxed7convertINtB7_3BoxDNtNtCsb9yGazm0UdS_4core5error5ErrorNtNtBW_6marker4SendNtB1t_4SyncEL_EINtNtBW_7convert4FromINtNtB9_6borrow3CoweEE4from
libstd-c2e64df9465a3b60.so:_RNvXsj_NtNtCsjAaqe0woR93_3std2io5stdioNtB5_10StdoutLockNtNtCsb9yGazm0UdS_4core3fmt5Debug3fmt
libstd-c2e64df9465a3b60.so:_RNvXsj_NtNtNtCsb9yGazm0UdS_4core3fmt3num3impxNtB9_7Display3fmt
libstd-c2e64df9465a3b60.so:_RNvXsk_NtCsb9yGazm0UdS_4core3fmtcNtB5_7Display3fmt
libstd-c2e64df9465a3b60.so:_RNvXsk_NtCsjAaqe0woR93_3std2fsNtB5_3DirNtNtCsb9yGazm0UdS_4core3fmt5Debug3fmt
libstd-c2e64df9465a3b60.so:_RNvXsk_NtNtCsb9yGazm0UdS_4core3fmt3numtNtB7_5Octal3fmt
libstd-c2e64df9465a3b60.so:_RNvXsk_NtNtCsb9yGazm0UdS_4core3net7ip_addrNtB5_8Ipv6AddrNtNtB9_3fmt5Debug3fmt
libstd-c2e64df9465a3b60.so:_RNvXsk_NtNtCseSYdJn4aADg_5alloc5boxed7convertINtB7_3BoxDNtNtCsb9yGazm0UdS_4core5error5ErrorEL_EINtNtBW_7convert4FromINtNtB9_6borrow3CoweEE4from
libstd-c2e64df9465a3b60.so:_RNvXsk_NtNtCsjAaqe0woR93_3std3ffi6os_strNtB5_8OsStringNtNtCsb9yGazm0UdS_4core3fmt5Write9write_str
libstd-c2e64df9465a3b60.so:_RNvXsk_NtNtNtCsjAaqe0woR93_3std3sys2fs4unixNtB5_10DirBuilderNtNtCsb9yGazm0UdS_4core3fmt5Debug3fmt
libstd-c2e64df9465a3b60.so:_RNvXsl_NtCsjAaqe0woR93_3std7processNtB5_7CommandNtNtCsb9yGazm0UdS_4core3fmt5Debug3fmt
libstd-c2e64df9465a3b60.so:_RNvXsl_NtNtCsb9yGazm0UdS_4core3fmt3numsNtB7_5Octal3fmt
libstd-c2e64df9465a3b60.so:_RNvXsm_NtCsb9yGazm0UdS_4core4charNtB5_16TryFromCharErrorNtNtB7_3fmt7Display3fmt
libstd-c2e64df9465a3b60.so:_RNvXsm_NtNtCsb9yGazm0UdS_4core3fmt3numtNtB7_8LowerHex3fmt
libstd-c2e64df9465a3b60.so:_RNvXsm_NtNtNtNtCsjAaqe0woR93_3std3sys2io11kernel_copy5linuxNtNtNtBd_2io5stdio9StdinLockNtB5_8CopyRead10properties
libstd-c2e64df9465a3b60.so:_RNvXsn_NtNtCsb9yGazm0UdS_4core3fmt3numsNtB7_8LowerHex3fmt
libstd-c2e64df9465a3b60.so:_RNvXsn_NtNtCsjAaqe0woR93_3std2io5stdioNtB5_6StderrNtNtCsb9yGazm0UdS_4core3fmt5Debug3fmt
libstd-c2e64df9465a3b60.so:_RNvXsn_NtNtCsjAaqe0woR93_3std4sync4mpscNtB5_9RecvErrorNtNtCsb9yGazm0UdS_4core3fmt7Display3fmt
libstd-c2e64df9465a3b60.so:_RNvXsn_NtNtNtCsb9yGazm0UdS_4core3fmt3num3impaNtB9_8LowerExp3fmt
libstd-c2e64df9465a3b60.so:_RNvXsn_NtNtNtNtCsjAaqe0woR93_3std3sys2io11kernel_copy5linuxNtNtNtBd_2io5stdio10StdoutLockNtB5_9CopyWrite10properties
libstd-c2e64df9465a3b60.so:_RNvXso_NtCseSYdJn4aADg_5alloc3vecINtB5_3VecNtNtNtCs1N8gx4w2hz2_5gimli4read6abbrev22AttributeSpecificationENtNtNtCsb9yGazm0UdS_4core3ops4drop4Drop4dropBL_
libstd-c2e64df9465a3b60.so:_RNvXso_NtCseSYdJn4aADg_5alloc3vecINtB5_3VechENtNtNtCsb9yGazm0UdS_4core3ops4drop4Drop4dropCs1N8gx4w2hz2_5gimli
libstd-c2e64df9465a3b60.so:_RNvXso_NtCseSYdJn4aADg_5alloc6stringRNtB5_6StringNtNtNtCsb9yGazm0UdS_4core3str7pattern7Pattern13into_searcher
libstd-c2e64df9465a3b60.so:_RNvXso_NtCsjAaqe0woR93_3std7processNtB5_11CommandArgsNtNtNtNtCsb9yGazm0UdS_4core4iter6traits8iterator8Iterator4next
libstd-c2e64df9465a3b60.so:_RNvXso_NtCsjAaqe0woR93_3std7processNtB5_11CommandArgsNtNtNtNtCsb9yGazm0UdS_4core4iter6traits8iterator8Iterator9size_hint
libstd-c2e64df9465a3b60.so:_RNvXso_NtNtCsb9yGazm0UdS_4core3fmt3numtNtB7_8UpperHex3fmt
libstd-c2e64df9465a3b60.so:_RNvXso_NtNtCsb9yGazm0UdS_4core3num11niche_typesNtB5_14NonZeroU8InnerNtNtB9_3fmt5Debug3fmt
libstd-c2e64df9465a3b60.so:_RNvXso_NtNtCsjAaqe0woR93_3std2io5stdioNtB5_6StderrNtB7_5Write14write_vectored
libstd-c2e64df9465a3b60.so:_RNvXso_NtNtCsjAaqe0woR93_3std2io5stdioNtB5_6StderrNtB7_5Write18write_all_vectored
libstd-c2e64df9465a3b60.so:_RNvXso_NtNtCsjAaqe0woR93_3std2io5stdioNtB5_6StderrNtB7_5Write5flush
libstd-c2e64df9465a3b60.so:_RNvXso_NtNtCsjAaqe0woR93_3std2io5stdioNtB5_6StderrNtB7_5Write5write
libstd-c2e64df9465a3b60.so:_RNvXso_NtNtCsjAaqe0woR93_3std2io5stdioNtB5_6StderrNtB7_5Write9write_all
libstd-c2e64df9465a3b60.so:_RNvXso_NtNtCsjAaqe0woR93_3std2io5stdioNtB5_6StderrNtB7_5Write9write_fmt
libstd-c2e64df9465a3b60.so:_RNvXso_NtNtNtCsb9yGazm0UdS_4core3fmt3num3imphNtB9_8LowerExp3fmt
libstd-c2e64df9465a3b60.so:_RNvXso_NtNtNtNtCsjAaqe0woR93_3std3sys2io11kernel_copy5linuxNtNtNtBd_2io5stdio10StderrLockNtB5_9CopyWrite10properties
libstd-c2e64df9465a3b60.so:_RNvXsp_NtCsjAaqe0woR93_3std2fsNtB5_8MetadataNtNtCsb9yGazm0UdS_4core3fmt5Debug3fmt
libstd-c2e64df9465a3b60.so:_RNvXsp_NtCsjAaqe0woR93_3std7processNtB5_11CommandArgsNtNtNtNtCsb9yGazm0UdS_4core4iter6traits10exact_size17ExactSizeIterator3len
libstd-c2e64df9465a3b60.so:_RNvXsp_NtNtCsb9yGazm0UdS_4core3fmt3numsNtB7_8UpperHex3fmt
libstd-c2e64df9465a3b60.so:_RNvXsp_NtNtCsjAaqe0woR93_3std2io5stdioRNtB5_6StderrNtB7_5Write14write_vectored
libstd-c2e64df9465a3b60.so:_RNvXsp_NtNtCsjAaqe0woR93_3std2io5stdioRNtB5_6StderrNtB7_5Write18write_all_vectored
libstd-c2e64df9465a3b60.so:_RNvXsp_NtNtCsjAaqe0woR93_3std2io5stdioRNtB5_6StderrNtB7_5Write5flush
libstd-c2e64df9465a3b60.so:_RNvXsp_NtNtCsjAaqe0woR93_3std2io5stdioRNtB5_6StderrNtB7_5Write5write
libstd-c2e64df9465a3b60.so:_RNvXsp_NtNtCsjAaqe0woR93_3std2io5stdioRNtB5_6StderrNtB7_5Write9write_all
libstd-c2e64df9465a3b60.so:_RNvXsp_NtNtCsjAaqe0woR93_3std2io5stdioRNtB5_6StderrNtB7_5Write9write_fmt
libstd-c2e64df9465a3b60.so:_RNvXsp_NtNtCsjAaqe0woR93_3std4sync4mpscNtB5_12TryRecvErrorNtNtCsb9yGazm0UdS_4core3fmt7Display3fmt
libstd-c2e64df9465a3b60.so:_RNvXsp_NtNtNtCsb9yGazm0UdS_4core3fmt3num3impaNtB9_8UpperExp3fmt
libstd-c2e64df9465a3b60.so:_RNvXsq_NtCs1N8gx4w2hz2_5gimli9constantsNtB5_4DwUtNtNtCsb9yGazm0UdS_4core3fmt7Display3fmt
libstd-c2e64df9465a3b60.so:_RNvXsq_NtCsb9yGazm0UdS_4core4cellNtB5_11BorrowErrorNtNtB7_3fmt7Display3fmt
libstd-c2e64df9465a3b60.so:_RNvXsq_NtCsjAaqe0woR93_3std7processNtB5_11CommandEnvsNtNtNtNtCsb9yGazm0UdS_4core4iter6traits8iterator8Iterator4next
libstd-c2e64df9465a3b60.so:_RNvXsq_NtNtCsb9yGazm0UdS_4core3fmt3nummNtB7_6Binary3fmt
libstd-c2e64df9465a3b60.so:_RNvXsq_NtNtCseSYdJn4aADg_5alloc3ffi5c_strINtNtB9_5boxed3BoxNtNtNtCsb9yGazm0UdS_4core3ffi5c_str4CStrENtNtB11_7default7Default7default
libstd-c2e64df9465a3b60.so:_RNvXsq_NtNtNtCsb9yGazm0UdS_4core3fmt3num3imphNtB9_8UpperExp3fmt
libstd-c2e64df9465a3b60.so:_RNvXsr_NtCsb9yGazm0UdS_4core3fmtSNtNtNtCs1N8gx4w2hz2_5gimli4read6abbrev22AttributeSpecificationNtB5_5Debug3fmtBB_
libstd-c2e64df9465a3b60.so:_RNvXsr_NtCsb9yGazm0UdS_4core3fmtShNtB5_5Debug3fmtCsiNDExn1lzIo_14rustc_demangle
libstd-c2e64df9465a3b60.so:_RNvXsr_NtCsb9yGazm0UdS_4core4cellNtB5_14BorrowMutErrorNtNtB7_3fmt7Display3fmt
libstd-c2e64df9465a3b60.so:_RNvXsr_NtNtCsb9yGazm0UdS_4core3fmt3numlNtB7_6Binary3fmt
libstd-c2e64df9465a3b60.so:_RNvXsr_NtNtNtCsb9yGazm0UdS_4core3fmt3num3impsNtB9_8LowerExp3fmt
libstd-c2e64df9465a3b60.so:_RNvXss_NtCsjAaqe0woR93_3std7processNtB5_11CommandEnvsNtNtCsb9yGazm0UdS_4core3fmt5Debug3fmt
libstd-c2e64df9465a3b60.so:_RNvXss_NtNtCsb9yGazm0UdS_4core3fmt3nummNtB7_5Octal3fmt
libstd-c2e64df9465a3b60.so:_RNvXss_NtNtCseSYdJn4aADg_5alloc3ffi5c_strNtB5_8NulErrorNtNtCsb9yGazm0UdS_4core3fmt7Display3fmt
libstd-c2e64df9465a3b60.so:_RNvXss_NtNtCsjAaqe0woR93_3std2io5stdioNtB5_10StderrLockNtB7_5Write14write_vectored
libstd-c2e64df9465a3b60.so:_RNvXss_NtNtCsjAaqe0woR93_3std2io5stdioNtB5_10StderrLockNtB7_5Write18write_all_vectored
libstd-c2e64df9465a3b60.so:_RNvXss_NtNtCsjAaqe0woR93_3std2io5stdioNtB5_10StderrLockNtB7_5Write5flush
libstd-c2e64df9465a3b60.so:_RNvXss_NtNtCsjAaqe0woR93_3std2io5stdioNtB5_10StderrLockNtB7_5Write5write
libstd-c2e64df9465a3b60.so:_RNvXss_NtNtCsjAaqe0woR93_3std2io5stdioNtB5_10StderrLockNtB7_5Write9write_all
libstd-c2e64df9465a3b60.so:_RNvXss_NtNtCsjAaqe0woR93_3std4sync4mpscNtB5_16RecvTimeoutErrorNtNtCsb9yGazm0UdS_4core3fmt7Display3fmt
libstd-c2e64df9465a3b60.so:_RNvXss_NtNtNtCsb9yGazm0UdS_4core3fmt3num3imptNtB9_8LowerExp3fmt
libstd-c2e64df9465a3b60.so:_RNvXss_NtNtNtCsjAaqe0woR93_3std3sys2fs4unixNtB5_4FileNtNtNtNtBb_2os2fd3raw9FromRawFd11from_raw_fd
libstd-c2e64df9465a3b60.so:_RNvXst_NtCsjAaqe0woR93_3std4pathINtNtCseSYdJn4aADg_5alloc5boxed3BoxNtB5_4PathEINtNtCsb9yGazm0UdS_4core7convert4FromRB13_E4from
libstd-c2e64df9465a3b60.so:_RNvXst_NtNtCsb9yGazm0UdS_4core3fmt3numlNtB7_5Octal3fmt
libstd-c2e64df9465a3b60.so:_RNvXst_NtNtCseSYdJn4aADg_5alloc3ffi5c_strNtB5_19FromVecWithNulErrorNtNtCsb9yGazm0UdS_4core3fmt7Display3fmt
libstd-c2e64df9465a3b60.so:_RNvXst_NtNtCsjAaqe0woR93_3std2io5stdioNtB5_10StderrLockNtNtCsb9yGazm0UdS_4core3fmt5Debug3fmt
libstd-c2e64df9465a3b60.so:_RNvXst_NtNtNtCsb9yGazm0UdS_4core3fmt3num3impsNtB9_8UpperExp3fmt
libstd-c2e64df9465a3b60.so:_RNvXst_NtNtNtCsjAaqe0woR93_3std3sys2fs4unixNtB5_4FileNtNtCsb9yGazm0UdS_4core3fmt5Debug3fmt
libstd-c2e64df9465a3b60.so:_RNvXsu_NtCsb9yGazm0UdS_4core4charNtB5_11ToLowercaseNtNtNtNtB7_4iter6traits8iterator8Iterator10advance_by
libstd-c2e64df9465a3b60.so:_RNvXsu_NtCsb9yGazm0UdS_4core4charNtB5_11ToLowercaseNtNtNtNtB7_4iter6traits8iterator8Iterator24___iterator_get_unchecked
libstd-c2e64df9465a3b60.so:_RNvXsu_NtCsb9yGazm0UdS_4core4charNtB5_11ToLowercaseNtNtNtNtB7_4iter6traits8iterator8Iterator4last
libstd-c2e64df9465a3b60.so:_RNvXsu_NtCsb9yGazm0UdS_4core4charNtB5_11ToLowercaseNtNtNtNtB7_4iter6traits8iterator8Iterator4next
libstd-c2e64df9465a3b60.so:_RNvXsu_NtCsb9yGazm0UdS_4core4charNtB5_11ToLowercaseNtNtNtNtB7_4iter6traits8iterator8Iterator5count
libstd-c2e64df9465a3b60.so:_RNvXsu_NtCsjAaqe0woR93_3std4pathINtNtCseSYdJn4aADg_5alloc5boxed3BoxNtB5_4PathEINtNtCsb9yGazm0UdS_4core7convert4FromQB13_E4from
libstd-c2e64df9465a3b60.so:_RNvXsu_NtCsjAaqe0woR93_3std7processNtB5_6OutputNtNtCsb9yGazm0UdS_4core3fmt5Debug3fmt
libstd-c2e64df9465a3b60.so:_RNvXsu_NtCsjnMSqt2aXJ2_9hashbrown3rawNtB5_18FullBucketsIndicesNtNtCsb9yGazm0UdS_4core7default7Default7default
libstd-c2e64df9465a3b60.so:_RNvXsu_NtNtCsb9yGazm0UdS_4core3fmt3nummNtB7_8LowerHex3fmt
libstd-c2e64df9465a3b60.so:_RNvXsu_NtNtNtCsb9yGazm0UdS_4core3fmt3num3imptNtB9_8UpperExp3fmt
libstd-c2e64df9465a3b60.so:_RNvXsu_NtNtNtCsjAaqe0woR93_3std3sys2fs4unixNtB5_4ModeNtNtCsb9yGazm0UdS_4core3fmt5Debug3fmt
libstd-c2e64df9465a3b60.so:_RNvXsv_NtCsb9yGazm0UdS_4core4charNtB5_11ToLowercaseNtNtNtNtB7_4iter6traits12double_ended19DoubleEndedIterator15advance_back_by
libstd-c2e64df9465a3b60.so:_RNvXsv_NtCsb9yGazm0UdS_4core4charNtB5_11ToLowercaseNtNtNtNtB7_4iter6traits12double_ended19DoubleEndedIterator9next_back
libstd-c2e64df9465a3b60.so:_RNvXsv_NtNtCsb9yGazm0UdS_4core3fmt3numlNtB7_8LowerHex3fmt
libstd-c2e64df9465a3b60.so:_RNvXsv_NtNtCseSYdJn4aADg_5alloc3ffi5c_strNtB5_15IntoStringErrorNtNtCsb9yGazm0UdS_4core3fmt7Display3fmt
libstd-c2e64df9465a3b60.so:_RNvXsv_NtNtNtCsb9yGazm0UdS_4core3fmt3num3implNtB9_8LowerExp3fmt
libstd-c2e64df9465a3b60.so:_RNvXsw_NtNtCsb9yGazm0UdS_4core3fmt3nummNtB7_8UpperHex3fmt
libstd-c2e64df9465a3b60.so:_RNvXsw_NtNtCsb9yGazm0UdS_4core3num11niche_typesNtB5_15NonZeroU16InnerNtNtB9_3fmt5Debug3fmt
libstd-c2e64df9465a3b60.so:_RNvXsw_NtNtCseSYdJn4aADg_5alloc3ffi5c_strNtNtNtCsb9yGazm0UdS_4core3ffi5c_str4CStrNtNtB9_6borrow7ToOwned10clone_into
libstd-c2e64df9465a3b60.so:_RNvXsw_NtNtCseSYdJn4aADg_5alloc3ffi5c_strNtNtNtCsb9yGazm0UdS_4core3ffi5c_str4CStrNtNtB9_6borrow7ToOwned8to_owned
libstd-c2e64df9465a3b60.so:_RNvXsw_NtNtNtCsb9yGazm0UdS_4core3fmt3num3impmNtB9_8LowerExp3fmt
libstd-c2e64df9465a3b60.so:_RNvXsx_NtCsjAaqe0woR93_3std2fsNtB5_8FileTypeNtNtCsb9yGazm0UdS_4core3fmt5Debug3fmt
libstd-c2e64df9465a3b60.so:_RNvXsx_NtCsjAaqe0woR93_3std7processNtB5_5StdioNtNtCsb9yGazm0UdS_4core3fmt5Debug3fmt
libstd-c2e64df9465a3b60.so:_RNvXsx_NtNtCsb9yGazm0UdS_4core3fmt3numlNtB7_8UpperHex3fmt
libstd-c2e64df9465a3b60.so:_RNvXsx_NtNtCseSYdJn4aADg_5alloc3ffi5c_strNtB5_7CStringINtNtCsb9yGazm0UdS_4core7convert4FromRNtNtNtBV_3ffi5c_str4CStrE4from
libstd-c2e64df9465a3b60.so:_RNvXsx_NtNtNtCsb9yGazm0UdS_4core3fmt3num3implNtB9_8UpperExp3fmt
libstd-c2e64df9465a3b60.so:_RNvXsy_NtNtCsb9yGazm0UdS_4core3fmt3numyNtB7_6Binary3fmt
libstd-c2e64df9465a3b60.so:_RNvXsy_NtNtNtCsb9yGazm0UdS_4core3fmt3num3impmNtB9_8UpperExp3fmt
libstd-c2e64df9465a3b60.so:_RNvXsy_NtNtNtCsjAaqe0woR93_3std2os2fd5ownedNtNtNtBb_2io4pipe10PipeReaderNtB5_4AsFd5as_fd
libstd-c2e64df9465a3b60.so:_RNvXsz_NtNtCsb9yGazm0UdS_4core3fmt3numxNtB7_6Binary3fmt
libstd-c2e64df9465a3b60.so:_RNvXsz_NtNtNtCsb9yGazm0UdS_4core3fmt3num3impiNtB9_8LowerExp3fmt
libstd-c2e64df9465a3b60.so:_RNvYINtCsiNDExn1lzIo_14rustc_demangle21SizeLimitedFmtAdapterQNtNtCsb9yGazm0UdS_4core3fmt9FormatterENtBZ_5Write10write_charB5_
libstd-c2e64df9465a3b60.so:_RNvYINtCsiNDExn1lzIo_14rustc_demangle21SizeLimitedFmtAdapterQNtNtCsb9yGazm0UdS_4core3fmt9FormatterENtBZ_5Write9write_fmtB5_
libstd-c2e64df9465a3b60.so:_RNvYINtNtNtCsb9yGazm0UdS_4core5slice4iter4ItertENtNtNtNtB9_4iter8adapters3zip27TrustedRandomAccessNoCoerce4sizeCs4I7onBBY15v_11miniz_oxide
libstd-c2e64df9465a3b60.so:_RNvYINtNtNtCsb9yGazm0UdS_4core5slice4iter7IterMutmENtNtNtNtB9_4iter8adapters3zip27TrustedRandomAccessNoCoerce4sizeCs4I7onBBY15v_11miniz_oxide
libstd-c2e64df9465a3b60.so:rust_eh_personality
libstd-c2e64df9465a3b60.so:rust_metadata_std_e41976b2ead82bc7
