librustc_driver-fa31e2489381cd18.so:LLVMRustStringWriteImpl
librustc_driver-fa31e2489381cd18.so:_RINvCshmntTYxeqYP_21rustc_data_structures7outlineNCNvMNtNtB2_4sync12worker_localNtBQ_10RegistryId6verifys_0jECsaqNsllmwM5m_12rustc_middle
librustc_driver-fa31e2489381cd18.so:_RINvCshmntTYxeqYP_21rustc_data_structures7outlineNCNvMs1_NtB2_9profilingNtBT_11TimingGuard31finish_with_query_invocation_id0uECsaqNsllmwM5m_12rustc_middle
librustc_driver-fa31e2489381cd18.so:_RINvCszfcM9E5USu_11rustc_arena7outlineNCINvMs6_B2_NtB2_13DroplessArena15alloc_from_iterINtCsiP3zVQcHmFl_10rustc_span7SpannedNtNtCsaqNsllmwM5m_12rustc_middle4mono8MonoItemEINtNtNtNtCs6e3rAaajRpB_4core4iter8adapters3map3MapINtNtNtB2S_3ops5range5RangejENCNvXsw_NtNtB22_2ty5codecSB1n_INtB48_12RefDecodableNtNtNtB22_5query13on_disk_cache12CacheDecoderE6decode0EE0QB4p_ECsaSsmK69njWG_16rustc_query_impl
librustc_driver-fa31e2489381cd18.so:_RINvCszfcM9E5USu_11rustc_arena7outlineNCINvMs6_B2_NtB2_13DroplessArena15alloc_from_iterINtCsiP3zVQcHmFl_10rustc_span7SpannedNtNtCsaqNsllmwM5m_12rustc_middle4mono8MonoItemENtNtCs1yK2jRAc0XL_18rustc_monomorphize9collector9MonoItemsE0QSB1n_EB2N_
librustc_driver-fa31e2489381cd18.so:_RINvCszfcM9E5USu_11rustc_arena7outlineNCINvMs6_B2_NtB2_13DroplessArena15alloc_from_iterINtNtCs3KflAWMuICG_9rustc_hir3hir23PreciseCapturingArgKindNtNtCsiP3zVQcHmFl_10rustc_span6symbol6SymbolB2j_EINtNtNtCs73ymBF2OK4c_14rustc_metadata5rmeta7decoder14DecodeIteratorB1n_NtB39_21MetadataDecodeContextEE0QSB1n_EB3d_
librustc_driver-fa31e2489381cd18.so:_RINvCszfcM9E5USu_11rustc_arena7outlineNCINvMs6_B2_NtB2_13DroplessArena15alloc_from_iterINtNtCs6e3rAaajRpB_4core6option6OptionNtNtCsiP3zVQcHmFl_10rustc_span6symbol5IdentEINtNtNtCs73ymBF2OK4c_14rustc_metadata5rmeta7decoder14DecodeIteratorB1n_NtB2K_21MetadataDecodeContextEE0QSB1n_EB2O_
librustc_driver-fa31e2489381cd18.so:_RINvCszfcM9E5USu_11rustc_arena7outlineNCINvMs6_B2_NtB2_13DroplessArena15alloc_from_iterINtNtCs6e3rAaajRpB_4core6option6OptionNtNtCsiP3zVQcHmFl_10rustc_span6symbol5IdentEINtNtNtNtB1s_4iter8adapters3map3MapINtNtNtB1s_5slice4iter4IterNtNtCs3KflAWMuICG_9rustc_hir3hir5ParamENCNvMs1_NtNtCsaqNsllmwM5m_12rustc_middle3hir3mapNtNtNtB4w_2ty7context6TyCtxt21hir_body_param_idents0EE0QSB1n_ECs3XAq0Kofjci_15rustc_interface
librustc_driver-fa31e2489381cd18.so:_RINvCszfcM9E5USu_11rustc_arena7outlineNCINvMs6_B2_NtB2_13DroplessArena15alloc_from_iterNtCsbByapOItfY5_13rustc_type_ir8VarianceINtNtCsgvX44DZTN43_5alloc3vec3VecB1n_EE0QSB1n_ECsaSsmK69njWG_16rustc_query_impl
librustc_driver-fa31e2489381cd18.so:_RINvCszfcM9E5USu_11rustc_arena7outlineNCINvMs6_B2_NtB2_13DroplessArena15alloc_from_iterNtCsbByapOItfY5_13rustc_type_ir8VarianceINtNtCsgvX44DZTN43_5alloc3vec3VecB1n_EE0QSB1n_ECscUPtgnKeETP_18rustc_hir_analysis
librustc_driver-fa31e2489381cd18.so:_RINvCszfcM9E5USu_11rustc_arena7outlineNCINvMs6_B2_NtB2_13DroplessArena15alloc_from_iterNtCsbByapOItfY5_13rustc_type_ir8VarianceINtNtNtCs73ymBF2OK4c_14rustc_metadata5rmeta7decoder14DecodeIteratorB1n_NtB24_21MetadataDecodeContextEE0QSB1n_EB28_
librustc_driver-fa31e2489381cd18.so:_RINvCszfcM9E5USu_11rustc_arena7outlineNCINvMs6_B2_NtB2_13DroplessArena15alloc_from_iterNtCsbByapOItfY5_13rustc_type_ir8VarianceINtNtNtNtCs6e3rAaajRpB_4core4iter7sources8repeat_n7RepeatNB1n_EE0QSB1n_ECsaSsmK69njWG_16rustc_query_impl
librustc_driver-fa31e2489381cd18.so:_RINvCszfcM9E5USu_11rustc_arena7outlineNCINvMs6_B2_NtB2_13DroplessArena15alloc_from_iterNtNtCs3KflAWMuICG_9rustc_hir10lang_items8LangItemINtNtNtCs73ymBF2OK4c_14rustc_metadata5rmeta7decoder14DecodeIteratorB1n_NtB2d_21MetadataDecodeContextEE0QSB1n_EB2h_
librustc_driver-fa31e2489381cd18.so:_RINvCszfcM9E5USu_11rustc_arena7outlineNCINvMs6_B2_NtB2_13DroplessArena15alloc_from_iterNtNtCs3KflAWMuICG_9rustc_hir3hir10GenericArgAB1n_j0_E0QSB1n_ECs6UwPWeCye2U_18rustc_ast_lowering
librustc_driver-fa31e2489381cd18.so:_RINvCszfcM9E5USu_11rustc_arena7outlineNCINvMs6_B2_NtB2_13DroplessArena15alloc_from_iterNtNtCs3KflAWMuICG_9rustc_hir3hir10GenericArgINtCslW4GKQywboC_8smallvec8SmallVecAB1n_j4_EE0QSB1n_ECs6UwPWeCye2U_18rustc_ast_lowering
librustc_driver-fa31e2489381cd18.so:_RINvCszfcM9E5USu_11rustc_arena7outlineNCINvMs6_B2_NtB2_13DroplessArena15alloc_from_iterNtNtCs3KflAWMuICG_9rustc_hir3hir11PathSegmentAB1n_j1_E0QSB1n_ECs6UwPWeCye2U_18rustc_ast_lowering
librustc_driver-fa31e2489381cd18.so:_RINvCszfcM9E5USu_11rustc_arena7outlineNCINvMs6_B2_NtB2_13DroplessArena15alloc_from_iterNtNtCs3KflAWMuICG_9rustc_hir3hir11PathSegmentINtNtNtNtCs6e3rAaajRpB_4core4iter7sources4once4OnceB1n_EE0QSB1n_ECs6UwPWeCye2U_18rustc_ast_lowering
librustc_driver-fa31e2489381cd18.so:_RINvCszfcM9E5USu_11rustc_arena7outlineNCINvMs6_B2_NtB2_13DroplessArena15alloc_from_iterNtNtCs3KflAWMuICG_9rustc_hir3hir12GenericBoundAB1n_j1_E0QSB1n_ECs6UwPWeCye2U_18rustc_ast_lowering
librustc_driver-fa31e2489381cd18.so:_RINvCszfcM9E5USu_11rustc_arena7outlineNCINvMs6_B2_NtB2_13DroplessArena15alloc_from_iterNtNtCs3KflAWMuICG_9rustc_hir3hir12GenericBoundINtNtNtNtCs6e3rAaajRpB_4core4iter8adapters3map3MapINtNtNtB2g_5slice4iter4IterNtNtCsd482UFdOvTO_9rustc_ast3ast12GenericBoundENCNvMs1_Cs6UwPWeCye2U_18rustc_ast_loweringNtB4f_15LoweringContext22lower_param_bounds_mut0EE0QSB1n_EB4f_
librustc_driver-fa31e2489381cd18.so:_RINvCszfcM9E5USu_11rustc_arena7outlineNCINvMs6_B2_NtB2_13DroplessArena15alloc_from_iterNtNtCs3KflAWMuICG_9rustc_hir3hir12GenericParamINtCslW4GKQywboC_8smallvec8SmallVecAB1n_j4_EE0QSB1n_ECs6UwPWeCye2U_18rustc_ast_lowering
librustc_driver-fa31e2489381cd18.so:_RINvCszfcM9E5USu_11rustc_arena7outlineNCINvMs6_B2_NtB2_13DroplessArena15alloc_from_iterNtNtCs3KflAWMuICG_9rustc_hir3hir12GenericParamINtNtNtNtCs6e3rAaajRpB_4core4iter8adapters3map3MapINtNtNtB2g_5slice4iter4IterNtNtCsd482UFdOvTO_9rustc_ast3ast12GenericParamENCNvMs1_Cs6UwPWeCye2U_18rustc_ast_loweringNtB4f_15LoweringContext24lower_generic_params_mut0EE0QSB1n_EB4f_
librustc_driver-fa31e2489381cd18.so:_RINvCszfcM9E5USu_11rustc_arena7outlineNCINvMs6_B2_NtB2_13DroplessArena15alloc_from_iterNtNtCs3KflAWMuICG_9rustc_hir3hir12GenericParamINtNtNtNtCs6e3rAaajRpB_4core4iter8adapters5chain5ChainINtNtB2c_3map3MapINtNtNtB2g_5slice4iter4IterNtNtCsd482UFdOvTO_9rustc_ast3ast12GenericParamENCNvMs1_Cs6UwPWeCye2U_18rustc_ast_loweringNtB4A_15LoweringContext24lower_generic_params_mut0EINtNtNtCsgvX44DZTN43_5alloc3vec9into_iter8IntoIterB1n_EEE0QSB1n_EB4A_
librustc_driver-fa31e2489381cd18.so:_RINvCszfcM9E5USu_11rustc_arena7outlineNCINvMs6_B2_NtB2_13DroplessArena15alloc_from_iterNtNtCs3KflAWMuICG_9rustc_hir3hir12GenericParamINtNtNtNtCs6e3rAaajRpB_4core4iter8adapters6copied6CopiedINtNtB2c_5chain5ChainIB32_IB32_INtNtB2c_6filter6FilterINtNtNtB2g_5slice4iter4IterB1n_ENCNvMs2_NtNtCs6UwPWeCye2U_18rustc_ast_lowering10delegation8genericsNtB4x_25GenericsGenerationResults10all_paramss_0EIB3x_B3T_NCB4r_s0_0EEIB3x_B3T_NCB4r_s1_0EEIB3x_B3T_NCB4r_s2_0EEEE0QSB1n_EB4B_
librustc_driver-fa31e2489381cd18.so:_RINvCszfcM9E5USu_11rustc_arena7outlineNCINvMs6_B2_NtB2_13DroplessArena15alloc_from_iterNtNtCs3KflAWMuICG_9rustc_hir3hir12PolyTraitRefAB1n_j1_E0QSB1n_ECs6UwPWeCye2U_18rustc_ast_lowering
librustc_driver-fa31e2489381cd18.so:_RINvCszfcM9E5USu_11rustc_arena7outlineNCINvMs6_B2_NtB2_13DroplessArena15alloc_from_iterNtNtCs3KflAWMuICG_9rustc_hir3hir14WherePredicateINtCslW4GKQywboC_8smallvec8SmallVecAB1n_j4_EE0QSB1n_ECs6UwPWeCye2U_18rustc_ast_lowering
librustc_driver-fa31e2489381cd18.so:_RINvCszfcM9E5USu_11rustc_arena7outlineNCINvMs6_B2_NtB2_13DroplessArena15alloc_from_iterNtNtCs3KflAWMuICG_9rustc_hir3hir14WherePredicateINtNtNtNtCs6e3rAaajRpB_4core4iter8adapters6copied6CopiedINtNtB2e_5chain5ChainINtNtNtB2i_5slice4iter4IterB1n_EB3o_EEE0QSB1n_ECs6UwPWeCye2U_18rustc_ast_lowering
librustc_driver-fa31e2489381cd18.so:_RINvCszfcM9E5USu_11rustc_arena7outlineNCINvMs6_B2_NtB2_13DroplessArena15alloc_from_iterNtNtCs3KflAWMuICG_9rustc_hir3hir19AssocItemConstraintAB1n_j0_E0QSB1n_ECs6UwPWeCye2U_18rustc_ast_lowering
librustc_driver-fa31e2489381cd18.so:_RINvCszfcM9E5USu_11rustc_arena7outlineNCINvMs6_B2_NtB2_13DroplessArena15alloc_from_iterNtNtCs3KflAWMuICG_9rustc_hir3hir19AssocItemConstraintAB1n_j1_E0QSB1n_ECs6UwPWeCye2U_18rustc_ast_lowering
librustc_driver-fa31e2489381cd18.so:_RINvCszfcM9E5USu_11rustc_arena7outlineNCINvMs6_B2_NtB2_13DroplessArena15alloc_from_iterNtNtCs3KflAWMuICG_9rustc_hir3hir2TyAB1n_j1_E0QSB1n_ECs6UwPWeCye2U_18rustc_ast_lowering
librustc_driver-fa31e2489381cd18.so:_RINvCszfcM9E5USu_11rustc_arena7outlineNCINvMs6_B2_NtB2_13DroplessArena15alloc_from_iterNtNtCs3KflAWMuICG_9rustc_hir3hir3ArmAB1n_j1_E0QSB1n_ECs6UwPWeCye2U_18rustc_ast_lowering
librustc_driver-fa31e2489381cd18.so:_RINvCszfcM9E5USu_11rustc_arena7outlineNCINvMs6_B2_NtB2_13DroplessArena15alloc_from_iterNtNtCs3KflAWMuICG_9rustc_hir3hir3ArmAB1n_j2_E0QSB1n_ECs6UwPWeCye2U_18rustc_ast_lowering
librustc_driver-fa31e2489381cd18.so:_RINvCszfcM9E5USu_11rustc_arena7outlineNCINvMs6_B2_NtB2_13DroplessArena15alloc_from_iterNtNtCs3KflAWMuICG_9rustc_hir3hir3PatINtNtCsgvX44DZTN43_5alloc3vec3VecB1n_EE0QSB1n_ECs6UwPWeCye2U_18rustc_ast_lowering
librustc_driver-fa31e2489381cd18.so:_RINvCszfcM9E5USu_11rustc_arena7outlineNCINvMs6_B2_NtB2_13DroplessArena15alloc_from_iterNtNtCs3KflAWMuICG_9rustc_hir3hir4ExprAB1n_j1_E0QSB1n_ECs6UwPWeCye2U_18rustc_ast_lowering
librustc_driver-fa31e2489381cd18.so:_RINvCszfcM9E5USu_11rustc_arena7outlineNCINvMs6_B2_NtB2_13DroplessArena15alloc_from_iterNtNtCs3KflAWMuICG_9rustc_hir3hir4ExprAB1n_j2_E0QSB1n_ECs6UwPWeCye2U_18rustc_ast_lowering
librustc_driver-fa31e2489381cd18.so:_RINvCszfcM9E5USu_11rustc_arena7outlineNCINvMs6_B2_NtB2_13DroplessArena15alloc_from_iterNtNtCs3KflAWMuICG_9rustc_hir3hir4ExprINtNtCsgvX44DZTN43_5alloc3vec3VecB1n_EE0QSB1n_ECs6UwPWeCye2U_18rustc_ast_lowering
librustc_driver-fa31e2489381cd18.so:_RINvCszfcM9E5USu_11rustc_arena7outlineNCINvMs6_B2_NtB2_13DroplessArena15alloc_from_iterNtNtCs3KflAWMuICG_9rustc_hir3hir4StmtAB1n_j1_E0QSB1n_ECs6UwPWeCye2U_18rustc_ast_lowering
librustc_driver-fa31e2489381cd18.so:_RINvCszfcM9E5USu_11rustc_arena7outlineNCINvMs6_B2_NtB2_13DroplessArena15alloc_from_iterNtNtCs3KflAWMuICG_9rustc_hir3hir4StmtAB1n_j2_E0QSB1n_ECs6UwPWeCye2U_18rustc_ast_lowering
librustc_driver-fa31e2489381cd18.so:_RINvCszfcM9E5USu_11rustc_arena7outlineNCINvMs6_B2_NtB2_13DroplessArena15alloc_from_iterNtNtCs3KflAWMuICG_9rustc_hir3hir4StmtINtCslW4GKQywboC_8smallvec8SmallVecAB1n_j8_EE0QSB1n_ECs6UwPWeCye2U_18rustc_ast_lowering
librustc_driver-fa31e2489381cd18.so:_RINvCszfcM9E5USu_11rustc_arena7outlineNCINvMs6_B2_NtB2_13DroplessArena15alloc_from_iterNtNtCs3KflAWMuICG_9rustc_hir3hir4StmtINtNtCsgvX44DZTN43_5alloc3vec3VecB1n_EE0QSB1n_ECs6UwPWeCye2U_18rustc_ast_lowering
librustc_driver-fa31e2489381cd18.so:_RINvCszfcM9E5USu_11rustc_arena7outlineNCINvMs6_B2_NtB2_13DroplessArena15alloc_from_iterNtNtCs3KflAWMuICG_9rustc_hir3hir4StmtINtNtNtCs6e3rAaajRpB_4core5array4iter8IntoIterB1n_Kj1_EE0QSB1n_ECs6UwPWeCye2U_18rustc_ast_lowering
librustc_driver-fa31e2489381cd18.so:_RINvCszfcM9E5USu_11rustc_arena7outlineNCINvMs6_B2_NtB2_13DroplessArena15alloc_from_iterNtNtCs3KflAWMuICG_9rustc_hir3hir4StmtINtNtNtNtCs6e3rAaajRpB_4core4iter8adapters5chain5ChainINtNtNtB25_7sources4once4OnceB1n_EINtNtNtCsgvX44DZTN43_5alloc3vec9into_iter8IntoIterB1n_EEE0QSB1n_ECs6UwPWeCye2U_18rustc_ast_lowering
librustc_driver-fa31e2489381cd18.so:_RINvCszfcM9E5USu_11rustc_arena7outlineNCINvMs6_B2_NtB2_13DroplessArena15alloc_from_iterNtNtCs3KflAWMuICG_9rustc_hir3hir5ParamAB1n_j1_E0QSB1n_ECs6UwPWeCye2U_18rustc_ast_lowering
librustc_driver-fa31e2489381cd18.so:_RINvCszfcM9E5USu_11rustc_arena7outlineNCINvMs6_B2_NtB2_13DroplessArena15alloc_from_iterNtNtCs3KflAWMuICG_9rustc_hir3hir5ParamINtNtCsgvX44DZTN43_5alloc3vec3VecB1n_EE0QSB1n_ECs6UwPWeCye2U_18rustc_ast_lowering
librustc_driver-fa31e2489381cd18.so:_RINvCszfcM9E5USu_11rustc_arena7outlineNCINvMs6_B2_NtB2_13DroplessArena15alloc_from_iterNtNtCs3KflAWMuICG_9rustc_hir3hir8PatFieldAB1n_j1_E0QSB1n_ECs6UwPWeCye2U_18rustc_ast_lowering
librustc_driver-fa31e2489381cd18.so:_RINvCszfcM9E5USu_11rustc_arena7outlineNCINvMs6_B2_NtB2_13DroplessArena15alloc_from_iterNtNtCsaqNsllmwM5m_12rustc_middle2ty2TyINtNtNtNtCs6e3rAaajRpB_4core4iter8adapters5chain5ChainINtNtB24_6cloned6ClonedINtNtNtB28_5slice4iter4IterB1n_EEINtNtNtB26_7sources4once4OnceB1n_EEE0QSB1n_ECscUPtgnKeETP_18rustc_hir_analysis
librustc_driver-fa31e2489381cd18.so:_RINvCszfcM9E5USu_11rustc_arena7outlineNCINvMs6_B2_NtB2_13DroplessArena15alloc_from_iterNtNtCsiP3zVQcHmFl_10rustc_span13span_encoding4SpanINtNtCsgvX44DZTN43_5alloc3vec3VecB1n_EE0QSB1n_ECs73ymBF2OK4c_14rustc_metadata
librustc_driver-fa31e2489381cd18.so:_RINvCszfcM9E5USu_11rustc_arena7outlineNCINvMs6_B2_NtB2_13DroplessArena15alloc_from_iterNtNtCsiP3zVQcHmFl_10rustc_span13span_encoding4SpanINtNtCsgvX44DZTN43_5alloc3vec3VecB1n_EE0QSB1n_ECsaSsmK69njWG_16rustc_query_impl
librustc_driver-fa31e2489381cd18.so:_RINvCszfcM9E5USu_11rustc_arena7outlineNCINvMs6_B2_NtB2_13DroplessArena15alloc_from_iterNtNtCsiP3zVQcHmFl_10rustc_span6def_id5DefIdINtNtCsgvX44DZTN43_5alloc3vec3VecB1n_EE0QSB1n_ECsaSsmK69njWG_16rustc_query_impl
librustc_driver-fa31e2489381cd18.so:_RINvCszfcM9E5USu_11rustc_arena7outlineNCINvMs6_B2_NtB2_13DroplessArena15alloc_from_iterNtNtCsiP3zVQcHmFl_10rustc_span6def_id5DefIdINtNtNtCs73ymBF2OK4c_14rustc_metadata5rmeta7decoder14DecodeIteratorB1n_NtB27_21MetadataDecodeContextEE0QSB1n_EB2b_
librustc_driver-fa31e2489381cd18.so:_RINvCszfcM9E5USu_11rustc_arena7outlineNCINvMs6_B2_NtB2_13DroplessArena15alloc_from_iterNtNtCsiP3zVQcHmFl_10rustc_span6def_id5DefIdINtNtNtCs7KwMrq602nF_8indexmap3set4iter8IntoIterB1n_EE0QSB1n_ECserPFC4ou40o_12rustc_passes
librustc_driver-fa31e2489381cd18.so:_RINvCszfcM9E5USu_11rustc_arena7outlineNCINvMs6_B2_NtB2_13DroplessArena15alloc_from_iterNtNtCsiP3zVQcHmFl_10rustc_span6def_id5DefIdINtNtNtNtCs6e3rAaajRpB_4core4iter8adapters10filter_map9FilterMapINtNtB29_6filter6FilterINtNtB29_3map3MapIB3u_INtNtNtB2d_5slice4iter4IterTINtNtB2d_6option6OptionNtNtB1r_6symbol6SymbolENtNtNtCsaqNsllmwM5m_12rustc_middle2ty5assoc9AssocItemEENCNvMNtNtCshmntTYxeqYP_21rustc_data_structures10sorted_map9index_mapINtB5Z_19SortedIndexMultiMapmB4h_B51_E4iter0ENCNvMs2_B53_NtB53_10AssocItems19in_definition_order0ENCNvNtNtCs7ZgcGxgGJUk_21rustc_trait_selection6traits6vtable35own_existential_vtable_entries_iter0ENCB8C_s_0EE0QSB1n_EB8I_
librustc_driver-fa31e2489381cd18.so:_RINvCszfcM9E5USu_11rustc_arena7outlineNCINvMs6_B2_NtB2_13DroplessArena15alloc_from_iterNtNtCsiP3zVQcHmFl_10rustc_span6def_id5DefIdINtNtNtNtCs6e3rAaajRpB_4core4iter8adapters3map3MapINtNtNtCs73ymBF2OK4c_14rustc_metadata5rmeta7decoder14DecodeIteratorNtB1p_8DefIndexNtB2V_21MetadataDecodeContextENCNvMsr_B2V_NtB2V_13CrateMetadata10get_traits0EE0QSB1n_EB2Z_
librustc_driver-fa31e2489381cd18.so:_RINvCszfcM9E5USu_11rustc_arena7outlineNCINvMs6_B2_NtB2_13DroplessArena15alloc_from_iterNtNtCsiP3zVQcHmFl_10rustc_span6def_id5DefIdINtNtNtNtCs6e3rAaajRpB_4core4iter8adapters3map3MapINtNtNtCs73ymBF2OK4c_14rustc_metadata5rmeta7decoder14DecodeIteratorNtB1p_8DefIndexNtB2V_21MetadataDecodeContextENCNvMsr_B2V_NtB2V_13CrateMetadata20get_exportable_items0EE0QSB1n_EB2Z_
librustc_driver-fa31e2489381cd18.so:_RINvCszfcM9E5USu_11rustc_arena7outlineNCINvMs6_B2_NtB2_13DroplessArena15alloc_from_iterNtNtCsiP3zVQcHmFl_10rustc_span6def_id5DefIdINtNtNtNtCs6e3rAaajRpB_4core4iter8adapters3map3MapINtNtNtCs73ymBF2OK4c_14rustc_metadata5rmeta7decoder14DecodeIteratorNtB1p_8DefIndexNtB2V_21MetadataDecodeContextENCNvMsr_B2V_NtB2V_13CrateMetadata36get_associated_item_or_field_def_idss_0EE0QSB1n_EB2Z_
librustc_driver-fa31e2489381cd18.so:_RINvCszfcM9E5USu_11rustc_arena7outlineNCINvMs6_B2_NtB2_13DroplessArena15alloc_from_iterNtNtCsiP3zVQcHmFl_10rustc_span6def_id5DefIdINtNtNtNtCs6e3rAaajRpB_4core4iter8adapters7flatten7FlatMapINtNtNtCs7KwMrq602nF_8indexmap3map4iter6ValuesTmNtB1p_8DefIndexEINtNtCs73ymBF2OK4c_14rustc_metadata5rmeta9LazyArrayTB3M_INtNtB2d_6option6OptionINtNtCsbByapOItfY5_13rustc_type_ir11fast_reject14SimplifiedTypeB1n_EEEEEINtNtB29_3map3MapINtNtB45_7decoder14DecodeIteratorB4R_NtB6N_21MetadataDecodeContextENCNCNvMsr_B6N_NtB6N_13CrateMetadata15get_trait_impls00ENCB7T_0EE0QSB1n_EB47_
librustc_driver-fa31e2489381cd18.so:_RINvCszfcM9E5USu_11rustc_arena7outlineNCINvMs6_B2_NtB2_13DroplessArena15alloc_from_iterNtNtCsiP3zVQcHmFl_10rustc_span6def_id8CrateNumINtNtNtCs7KwMrq602nF_8indexmap3set4iter8IntoIterB1n_EE0QSB1n_ECs73ymBF2OK4c_14rustc_metadata
librustc_driver-fa31e2489381cd18.so:_RINvCszfcM9E5USu_11rustc_arena7outlineNCINvMs6_B2_NtB2_13DroplessArena15alloc_from_iterNtNtNtCsaqNsllmwM5m_12rustc_middle2ty6vtable9VtblEntryINtNtCsgvX44DZTN43_5alloc3vec3VecB1n_EE0QSB1n_ECs7ZgcGxgGJUk_21rustc_trait_selection
librustc_driver-fa31e2489381cd18.so:_RINvCszfcM9E5USu_11rustc_arena7outlineNCINvMs6_B2_NtB2_13DroplessArena15alloc_from_iterNtNtNtCsaqNsllmwM5m_12rustc_middle6middle19deduced_param_attrs17DeducedParamAttrsINtNtNtCs73ymBF2OK4c_14rustc_metadata5rmeta7decoder14DecodeIteratorB1n_NtB2J_21MetadataDecodeContextEE0QSB1n_EB2N_
librustc_driver-fa31e2489381cd18.so:_RINvCszfcM9E5USu_11rustc_arena7outlineNCINvMs6_B2_NtB2_13DroplessArena15alloc_from_iterNtNtNtCsaqNsllmwM5m_12rustc_middle9dep_graph8dep_node13DepKindVTableINtNtNtNtCs6e3rAaajRpB_4core4iter8adapters5chain5ChainINtNtNtB2C_5array4iter8IntoIterB1n_Kj8_EIB3m_B1n_Kj141_EEE0QSB1n_ECsaSsmK69njWG_16rustc_query_impl
librustc_driver-fa31e2489381cd18.so:_RINvCszfcM9E5USu_11rustc_arena7outlineNCINvMs6_B2_NtB2_13DroplessArena15alloc_from_iterTINtNtCsbByapOItfY5_13rustc_type_ir6binder6BinderNtNtNtCsaqNsllmwM5m_12rustc_middle2ty7context6TyCtxtINtNtB1t_9predicate8TraitRefB2a_EENtNtCsiP3zVQcHmFl_10rustc_span13span_encoding4SpanEINtNtNtCs73ymBF2OK4c_14rustc_metadata5rmeta7decoder14DecodeIteratorB1n_NtB4q_21MetadataDecodeContextEE0QSB1n_EB4u_
librustc_driver-fa31e2489381cd18.so:_RINvCszfcM9E5USu_11rustc_arena7outlineNCINvMs6_B2_NtB2_13DroplessArena15alloc_from_iterTINtNtCsbByapOItfY5_13rustc_type_ir6binder6BinderNtNtNtCsaqNsllmwM5m_12rustc_middle2ty7context6TyCtxtINtNtB1t_9predicate8TraitRefB2a_EENtNtCsiP3zVQcHmFl_10rustc_span13span_encoding4SpanEINtNtNtNtCs6e3rAaajRpB_4core4iter8adapters3map3MapINtNtNtB4w_3ops5range5RangejENCNvXsv_NtB2e_5codecSB1n_INtB5M_12RefDecodableNtNtNtCs73ymBF2OK4c_14rustc_metadata5rmeta7decoder21MetadataDecodeContextE6decode0EE0QB5Y_EB6u_
librustc_driver-fa31e2489381cd18.so:_RINvCszfcM9E5USu_11rustc_arena7outlineNCINvMs6_B2_NtB2_13DroplessArena15alloc_from_iterTNtNtCs3KflAWMuICG_9rustc_hir3hir16InlineAsmOperandNtNtCsiP3zVQcHmFl_10rustc_span13span_encoding4SpanEINtNtCsgvX44DZTN43_5alloc3vec3VecB1n_EE0QSB1n_ECs6UwPWeCye2U_18rustc_ast_lowering
librustc_driver-fa31e2489381cd18.so:_RINvCszfcM9E5USu_11rustc_arena7outlineNCINvMs6_B2_NtB2_13DroplessArena15alloc_from_iterTNtNtCsaqNsllmwM5m_12rustc_middle2ty2TyNtNtCsiP3zVQcHmFl_10rustc_span13span_encoding4SpanEINtNtCsgbh5aWaWWcK_9itertools11zip_eq_impl5ZipEqINtNtNtNtCs6e3rAaajRpB_4core4iter8adapters6copied6CopiedINtNtNtB3K_5slice4iter4IterB1o_EEINtNtB3G_5chain5ChainINtNtB3G_3map3MapIB4w_NtNtCs3KflAWMuICG_9rustc_hir3hir2TyENCNvNtCsbmrvFwx9VJk_14rustc_ty_utils14implied_bounds12fn_sig_spans0EINtNtNtB3I_7sources4once4OnceB20_EEEE0QSB1n_EB6p_
librustc_driver-fa31e2489381cd18.so:_RINvCszfcM9E5USu_11rustc_arena7outlineNCINvMs6_B2_NtB2_13DroplessArena15alloc_from_iterTNtNtCsaqNsllmwM5m_12rustc_middle2ty2TyNtNtCsiP3zVQcHmFl_10rustc_span13span_encoding4SpanEINtNtCsgvX44DZTN43_5alloc3vec3VecB1n_EE0QSB1n_ECsbmrvFwx9VJk_14rustc_ty_utils
librustc_driver-fa31e2489381cd18.so:_RINvCszfcM9E5USu_11rustc_arena7outlineNCINvMs6_B2_NtB2_13DroplessArena15alloc_from_iterTNtNtCsaqNsllmwM5m_12rustc_middle2ty2TyNtNtCsiP3zVQcHmFl_10rustc_span13span_encoding4SpanEINtNtNtCs73ymBF2OK4c_14rustc_metadata5rmeta7decoder14DecodeIteratorB1n_NtB2S_21MetadataDecodeContextEE0QSB1n_EB2W_
librustc_driver-fa31e2489381cd18.so:_RINvCszfcM9E5USu_11rustc_arena7outlineNCINvMs6_B2_NtB2_13DroplessArena15alloc_from_iterTNtNtCsaqNsllmwM5m_12rustc_middle2ty2TyNtNtCsiP3zVQcHmFl_10rustc_span13span_encoding4SpanEINtNtNtNtCs6e3rAaajRpB_4core4iter8adapters5chain5ChainINtNtB2U_3map3MapINtNtCsbByapOItfY5_13rustc_type_ir6binder22IterInstantiatedCopiedNtNtB1q_7context6TyCtxtRSB1n_ENvMNtB43_12unnormalizedINtB5y_12UnnormalizedB51_B1n_E13skip_norm_wipEINtNtB2U_6copied6CopiedINtNtNtB2Y_5slice4iter4IterB1n_EEEE0QB5p_ECsbmrvFwx9VJk_14rustc_ty_utils
librustc_driver-fa31e2489381cd18.so:_RINvCszfcM9E5USu_11rustc_arena7outlineNCINvMs6_B2_NtB2_13DroplessArena15alloc_from_iterTNtNtCsiP3zVQcHmFl_10rustc_span6def_id5DefIdRINtNtNtCsaqNsllmwM5m_12rustc_middle2ty4list7RawListuNtNtB2b_12generic_args10GenericArgEEINtNtNtNtCs6e3rAaajRpB_4core4iter8adapters6copied6CopiedINtNtNtCs7KwMrq602nF_8indexmap3set4iter4IterB1n_EEE0QSB1n_ECs4DnJvQYATGa_19rustc_mir_transform
librustc_driver-fa31e2489381cd18.so:_RINvCszfcM9E5USu_11rustc_arena7outlineNCINvMs6_B2_NtB2_13DroplessArena15alloc_from_iterTNtNtCsiP3zVQcHmFl_10rustc_span6symbol6SymbolB1o_EINtNtNtCs73ymBF2OK4c_14rustc_metadata5rmeta7decoder14DecodeIteratorB1n_NtB2e_21MetadataDecodeContextEE0QSB1n_EB2i_
librustc_driver-fa31e2489381cd18.so:_RINvCszfcM9E5USu_11rustc_arena7outlineNCINvMs6_B2_NtB2_13DroplessArena15alloc_from_iterTNtNtNtCsaqNsllmwM5m_12rustc_middle2ty9predicate6ClauseNtNtCsiP3zVQcHmFl_10rustc_span13span_encoding4SpanEINtNtCsgvX44DZTN43_5alloc3vec3VecB1n_EE0QSB1n_ECscUPtgnKeETP_18rustc_hir_analysis
librustc_driver-fa31e2489381cd18.so:_RINvCszfcM9E5USu_11rustc_arena7outlineNCINvMs6_B2_NtB2_13DroplessArena15alloc_from_iterTNtNtNtCsaqNsllmwM5m_12rustc_middle2ty9predicate6ClauseNtNtCsiP3zVQcHmFl_10rustc_span13span_encoding4SpanEINtNtNtCs73ymBF2OK4c_14rustc_metadata5rmeta7decoder14DecodeIteratorB1n_NtB38_21MetadataDecodeContextEE0QSB1n_EB3c_
librustc_driver-fa31e2489381cd18.so:_RINvCszfcM9E5USu_11rustc_arena7outlineNCINvMs6_B2_NtB2_13DroplessArena15alloc_from_iterTNtNtNtCsaqNsllmwM5m_12rustc_middle2ty9predicate6ClauseNtNtCsiP3zVQcHmFl_10rustc_span13span_encoding4SpanEINtNtNtNtCs6e3rAaajRpB_4core4iter8adapters3map3MapINtNtNtB3e_3ops5range5RangejENCNvXsu_NtB1s_5codecSB1n_INtB4u_12RefDecodableNtNtNtB1u_5query13on_disk_cache12CacheDecoderE6decode0EE0QB4G_ECsaSsmK69njWG_16rustc_query_impl
librustc_driver-fa31e2489381cd18.so:_RINvCszfcM9E5USu_11rustc_arena7outlineNCINvMs6_B2_NtB2_13DroplessArena15alloc_from_iterTNtNtNtCsaqNsllmwM5m_12rustc_middle2ty9predicate6ClauseNtNtCsiP3zVQcHmFl_10rustc_span13span_encoding4SpanEINtNtNtNtCs6e3rAaajRpB_4core4iter8adapters3map3MapINtNtNtB3e_3ops5range5RangejENCNvXsu_NtB1s_5codecSB1n_INtB4u_12RefDecodableNtNtNtCs73ymBF2OK4c_14rustc_metadata5rmeta7decoder21MetadataDecodeContextE6decode0EE0QB4G_EB5c_
librustc_driver-fa31e2489381cd18.so:_RINvCszfcM9E5USu_11rustc_arena7outlineNCINvMs6_B2_NtB2_13DroplessArena15alloc_from_iterTNtNtNtCsaqNsllmwM5m_12rustc_middle2ty9predicate6ClauseNtNtCsiP3zVQcHmFl_10rustc_span13span_encoding4SpanEINtNtNtNtCs6e3rAaajRpB_4core4iter8adapters5chain5ChainINtNtB3a_6copied6CopiedINtNtNtB3e_5slice4iter4IterB1n_EEIB36_INtNtB3e_6option8IntoIterB1n_EINtNtNtCsgvX44DZTN43_5alloc3vec9into_iter8IntoIterB1n_EEEE0QSB1n_ECscUPtgnKeETP_18rustc_hir_analysis
librustc_driver-fa31e2489381cd18.so:_RINvCszfcM9E5USu_11rustc_arena7outlineNCINvMs6_B2_NtB2_13DroplessArena15alloc_from_iterTNtNtNtCsaqNsllmwM5m_12rustc_middle2ty9predicate6ClauseNtNtCsiP3zVQcHmFl_10rustc_span13span_encoding4SpanEINtNtNtNtCs6e3rAaajRpB_4core4iter8adapters5chain5ChainINtNtB3a_6copied6CopiedINtNtNtB3e_5slice4iter4IterB1n_EEINtNtNtB3c_7sources4once4OnceB1n_EEE0QSB1n_ECscUPtgnKeETP_18rustc_hir_analysis
librustc_driver-fa31e2489381cd18.so:_RINvCszfcM9E5USu_11rustc_arena7outlineNCINvMs6_B2_NtB2_13DroplessArena15alloc_from_iterTNtNtNtCsaqNsllmwM5m_12rustc_middle2ty9predicate6ClauseNtNtCsiP3zVQcHmFl_10rustc_span13span_encoding4SpanEINtNtNtNtCs6e3rAaajRpB_4core4iter8adapters5chain5ChainINtNtNtCsgvX44DZTN43_5alloc3vec9into_iter8IntoIterB1n_EB3X_EE0QSB1n_ECscUPtgnKeETP_18rustc_hir_analysis
librustc_driver-fa31e2489381cd18.so:_RINvCszfcM9E5USu_11rustc_arena7outlineNCINvMs6_B2_NtB2_13DroplessArena15alloc_from_iterTNtNtNtCsaqNsllmwM5m_12rustc_middle3mir6consts10ConstValueNtNtB1u_2ty2TyEINtNtCsgvX44DZTN43_5alloc3vec3VecB1n_EE0QSB1n_ECs7RlYbh05zWS_16rustc_const_eval
librustc_driver-fa31e2489381cd18.so:_RINvCszfcM9E5USu_11rustc_arena7outlineNCINvMs6_B2_NtB2_13DroplessArena15alloc_from_iterTNtNtNtCsaqNsllmwM5m_12rustc_middle6middle16exported_symbols14ExportedSymbolNtB1q_16SymbolExportInfoEINtNtCsgvX44DZTN43_5alloc3vec3VecB1n_EE0QSB1n_ECsaSsmK69njWG_16rustc_query_impl
librustc_driver-fa31e2489381cd18.so:_RINvCszfcM9E5USu_11rustc_arena7outlineNCINvMs6_B2_NtB2_13DroplessArena15alloc_from_iterTNtNtNtCsaqNsllmwM5m_12rustc_middle6middle16exported_symbols14ExportedSymbolNtB1q_16SymbolExportInfoEINtNtCsgvX44DZTN43_5alloc3vec3VecB1n_EE0QSB1n_ECsg0ydQtPiXpO_17rustc_codegen_ssa
librustc_driver-fa31e2489381cd18.so:_RINvCszfcM9E5USu_11rustc_arena7outlineNCINvMs6_B2_NtB2_13DroplessArena15alloc_from_iterTNtNtNtCsaqNsllmwM5m_12rustc_middle6middle16exported_symbols14ExportedSymbolNtB1q_16SymbolExportInfoEINtNtNtCs73ymBF2OK4c_14rustc_metadata5rmeta7decoder14DecodeIteratorB1n_NtB33_21MetadataDecodeContextEE0QSB1n_EB37_
librustc_driver-fa31e2489381cd18.so:_RINvCszfcM9E5USu_11rustc_arena7outlineNCINvMs6_B2_NtB2_13DroplessArena15alloc_from_iterhINtNtCsgvX44DZTN43_5alloc3vec3VechEE0QShECsaqNsllmwM5m_12rustc_middle
librustc_driver-fa31e2489381cd18.so:_RINvMNtCs6ERRjo1sNLQ_15rustc_serialize6opaqueNtB3_11FileEncoder19panic_invalid_writeKj10_ECs73ymBF2OK4c_14rustc_metadata
librustc_driver-fa31e2489381cd18.so:_RINvMNtCs6ERRjo1sNLQ_15rustc_serialize6opaqueNtB3_11FileEncoder19panic_invalid_writeKj13_ECsaqNsllmwM5m_12rustc_middle
librustc_driver-fa31e2489381cd18.so:_RINvMNtCs6ERRjo1sNLQ_15rustc_serialize6opaqueNtB3_11FileEncoder19panic_invalid_writeKj1_ECsiP3zVQcHmFl_10rustc_span
librustc_driver-fa31e2489381cd18.so:_RINvMNtCs6ERRjo1sNLQ_15rustc_serialize6opaqueNtB3_11FileEncoder19panic_invalid_writeKj2_ECsaqNsllmwM5m_12rustc_middle
librustc_driver-fa31e2489381cd18.so:_RINvMNtCs6ERRjo1sNLQ_15rustc_serialize6opaqueNtB3_11FileEncoder19panic_invalid_writeKj5_ECsiP3zVQcHmFl_10rustc_span
librustc_driver-fa31e2489381cd18.so:_RINvMNtCs6ERRjo1sNLQ_15rustc_serialize6opaqueNtB3_11FileEncoder19panic_invalid_writeKj8_ECsaqNsllmwM5m_12rustc_middle
librustc_driver-fa31e2489381cd18.so:_RINvMNtCs6ERRjo1sNLQ_15rustc_serialize6opaqueNtB3_11FileEncoder19panic_invalid_writeKja_EB5_
librustc_driver-fa31e2489381cd18.so:_RINvMNtCs6e3rAaajRpB_4core3stre18trim_start_matchesReECsauuHx3kgdpX_14rustc_demangle
librustc_driver-fa31e2489381cd18.so:_RINvMNtCs6e3rAaajRpB_4core5sliceSh11copy_withinINtNtNtB5_3ops5range14RangeInclusivejEECsh06HsEcGiMH_11miniz_oxide
librustc_driver-fa31e2489381cd18.so:_RINvMNtCs6e3rAaajRpB_4core6optionINtB3_6OptionRINtNtB5_4cell4CellhEE3zipBI_ECsh06HsEcGiMH_11miniz_oxide
librustc_driver-fa31e2489381cd18.so:_RINvMNtCs6e3rAaajRpB_4core6optionINtB3_6OptionTRINtNtB5_4cell4CellhEBJ_EE3zipBJ_ECsh06HsEcGiMH_11miniz_oxide
librustc_driver-fa31e2489381cd18.so:_RINvMNtCs7VfpXZLrpYp_17rustc_stable_hash6sip128NtB3_12SipHasher12826short_write_process_bufferKj1_ECsiP3zVQcHmFl_10rustc_span
librustc_driver-fa31e2489381cd18.so:_RINvMNtCs7VfpXZLrpYp_17rustc_stable_hash6sip128NtB3_12SipHasher12826short_write_process_bufferKj2_ECsh8xpvZH2MPK_12rustc_errors
librustc_driver-fa31e2489381cd18.so:_RINvMNtCs7VfpXZLrpYp_17rustc_stable_hash6sip128NtB3_12SipHasher12826short_write_process_bufferKj4_ECsh8xpvZH2MPK_12rustc_errors
librustc_driver-fa31e2489381cd18.so:_RINvMNtCs7VfpXZLrpYp_17rustc_stable_hash6sip128NtB3_12SipHasher12826short_write_process_bufferKj8_ECsiP3zVQcHmFl_10rustc_span
librustc_driver-fa31e2489381cd18.so:_RINvMNtCshmntTYxeqYP_21rustc_data_structures9vec_cacheNtB3_9SlotIndex17initialize_bucketINtNtNtCsaqNsllmwM5m_12rustc_middle5query5erase10ErasedDataAhj0_EECsaSsmK69njWG_16rustc_query_impl
librustc_driver-fa31e2489381cd18.so:_RINvMNtCshmntTYxeqYP_21rustc_data_structures9vec_cacheNtB3_9SlotIndex17initialize_bucketINtNtNtCsaqNsllmwM5m_12rustc_middle5query5erase10ErasedDataAhj10_EEB1v_
librustc_driver-fa31e2489381cd18.so:_RINvMNtCshmntTYxeqYP_21rustc_data_structures9vec_cacheNtB3_9SlotIndex17initialize_bucketINtNtNtCsaqNsllmwM5m_12rustc_middle5query5erase10ErasedDataAhj14_EECsaSsmK69njWG_16rustc_query_impl
librustc_driver-fa31e2489381cd18.so:_RINvMNtCshmntTYxeqYP_21rustc_data_structures9vec_cacheNtB3_9SlotIndex17initialize_bucketINtNtNtCsaqNsllmwM5m_12rustc_middle5query5erase10ErasedDataAhj18_EECs7RlYbh05zWS_16rustc_const_eval
librustc_driver-fa31e2489381cd18.so:_RINvMNtCshmntTYxeqYP_21rustc_data_structures9vec_cacheNtB3_9SlotIndex17initialize_bucketINtNtNtCsaqNsllmwM5m_12rustc_middle5query5erase10ErasedDataAhj18_EECsaSsmK69njWG_16rustc_query_impl
librustc_driver-fa31e2489381cd18.so:_RINvMNtCshmntTYxeqYP_21rustc_data_structures9vec_cacheNtB3_9SlotIndex17initialize_bucketINtNtNtCsaqNsllmwM5m_12rustc_middle5query5erase10ErasedDataAhj1_EECs4DnJvQYATGa_19rustc_mir_transform
librustc_driver-fa31e2489381cd18.so:_RINvMNtCshmntTYxeqYP_21rustc_data_structures9vec_cacheNtB3_9SlotIndex17initialize_bucketINtNtNtCsaqNsllmwM5m_12rustc_middle5query5erase10ErasedDataAhj1_EECsaSsmK69njWG_16rustc_query_impl
librustc_driver-fa31e2489381cd18.so:_RINvMNtCshmntTYxeqYP_21rustc_data_structures9vec_cacheNtB3_9SlotIndex17initialize_bucketINtNtNtCsaqNsllmwM5m_12rustc_middle5query5erase10ErasedDataAhj1_EECsbmrvFwx9VJk_14rustc_ty_utils
librustc_driver-fa31e2489381cd18.so:_RINvMNtCshmntTYxeqYP_21rustc_data_structures9vec_cacheNtB3_9SlotIndex17initialize_bucketINtNtNtCsaqNsllmwM5m_12rustc_middle5query5erase10ErasedDataAhj1c_EECsaSsmK69njWG_16rustc_query_impl
librustc_driver-fa31e2489381cd18.so:_RINvMNtCshmntTYxeqYP_21rustc_data_structures9vec_cacheNtB3_9SlotIndex17initialize_bucketINtNtNtCsaqNsllmwM5m_12rustc_middle5query5erase10ErasedDataAhj20_EECsaSsmK69njWG_16rustc_query_impl
librustc_driver-fa31e2489381cd18.so:_RINvMNtCshmntTYxeqYP_21rustc_data_structures9vec_cacheNtB3_9SlotIndex17initialize_bucketINtNtNtCsaqNsllmwM5m_12rustc_middle5query5erase10ErasedDataAhj20_EECsbmrvFwx9VJk_14rustc_ty_utils
librustc_driver-fa31e2489381cd18.so:_RINvMNtCshmntTYxeqYP_21rustc_data_structures9vec_cacheNtB3_9SlotIndex17initialize_bucketINtNtNtCsaqNsllmwM5m_12rustc_middle5query5erase10ErasedDataAhj2_EECs4DnJvQYATGa_19rustc_mir_transform
librustc_driver-fa31e2489381cd18.so:_RINvMNtCshmntTYxeqYP_21rustc_data_structures9vec_cacheNtB3_9SlotIndex17initialize_bucketINtNtNtCsaqNsllmwM5m_12rustc_middle5query5erase10ErasedDataAhj2_EECsaSsmK69njWG_16rustc_query_impl
librustc_driver-fa31e2489381cd18.so:_RINvMNtCshmntTYxeqYP_21rustc_data_structures9vec_cacheNtB3_9SlotIndex17initialize_bucketINtNtNtCsaqNsllmwM5m_12rustc_middle5query5erase10ErasedDataAhj38_EECsaSsmK69njWG_16rustc_query_impl
librustc_driver-fa31e2489381cd18.so:_RINvMNtCshmntTYxeqYP_21rustc_data_structures9vec_cacheNtB3_9SlotIndex17initialize_bucketINtNtNtCsaqNsllmwM5m_12rustc_middle5query5erase10ErasedDataAhj3_EEB1v_
librustc_driver-fa31e2489381cd18.so:_RINvMNtCshmntTYxeqYP_21rustc_data_structures9vec_cacheNtB3_9SlotIndex17initialize_bucketINtNtNtCsaqNsllmwM5m_12rustc_middle5query5erase10ErasedDataAhj4_EECsaSsmK69njWG_16rustc_query_impl
librustc_driver-fa31e2489381cd18.so:_RINvMNtCshmntTYxeqYP_21rustc_data_structures9vec_cacheNtB3_9SlotIndex17initialize_bucketINtNtNtCsaqNsllmwM5m_12rustc_middle5query5erase10ErasedDataAhj8_EEB1v_
librustc_driver-fa31e2489381cd18.so:_RINvMNtCshmntTYxeqYP_21rustc_data_structures9vec_cacheNtB3_9SlotIndex17initialize_bucketINtNtNtCsaqNsllmwM5m_12rustc_middle5query5erase10ErasedDataAhjc_EECs7RlYbh05zWS_16rustc_const_eval
librustc_driver-fa31e2489381cd18.so:_RINvMNtCshmntTYxeqYP_21rustc_data_structures9vec_cacheNtB3_9SlotIndex17initialize_bucketINtNtNtCsaqNsllmwM5m_12rustc_middle5query5erase10ErasedDataAhjc_EECsaSsmK69njWG_16rustc_query_impl
librustc_driver-fa31e2489381cd18.so:_RINvMNtCshmntTYxeqYP_21rustc_data_structures9vec_cacheNtB3_9SlotIndex17initialize_bucketINtNtNtCsaqNsllmwM5m_12rustc_middle5query5erase10ErasedDataAhjc_EECsbmrvFwx9VJk_14rustc_ty_utils
librustc_driver-fa31e2489381cd18.so:_RINvMNtCshmntTYxeqYP_21rustc_data_structures9vec_cacheNtB3_9SlotIndex17initialize_bucketINtNtNtCsaqNsllmwM5m_12rustc_middle5query5erase10ErasedDataAhjc_EECscUPtgnKeETP_18rustc_hir_analysis
librustc_driver-fa31e2489381cd18.so:_RINvMNtCshmntTYxeqYP_21rustc_data_structures9vec_cacheNtB3_9SlotIndex17initialize_bucketuECsaqNsllmwM5m_12rustc_middle
librustc_driver-fa31e2489381cd18.so:_RINvMNtNtCs5kKxLxgs1gB_14regex_automata4util4iterNtB3_8Searcher30handle_overlapping_empty_matchNCNvXs6_NtNtB7_4meta5regexNtB1D_11FindMatchesNtNtNtNtCs6e3rAaajRpB_4core4iter6traits8iterator8Iterator4next0EB7_
librustc_driver-fa31e2489381cd18.so:_RINvMNtNtCs5kKxLxgs1gB_14regex_automata4util4iterNtB3_8Searcher30handle_overlapping_empty_matchNCNvXs9_NtNtB7_4meta5regexNtB1D_15CapturesMatchesNtNtNtNtCs6e3rAaajRpB_4core4iter6traits8iterator8Iterator4next0ECs8Oewc4Z7MhZ_18rustc_mir_dataflow
librustc_driver-fa31e2489381cd18.so:_RINvMNtNtCs5kKxLxgs1gB_14regex_automata4util4iterNtB3_8Searcher30handle_overlapping_empty_matchNCNvXs9_NtNtB7_4meta5regexNtB1D_15CapturesMatchesNtNtNtNtCs6e3rAaajRpB_4core4iter6traits8iterator8Iterator4next0ECsg0ydQtPiXpO_17rustc_codegen_ssa
librustc_driver-fa31e2489381cd18.so:_RINvMNtNtCs6ERRjo1sNLQ_15rustc_serialize6opaque11mem_encoderNtB3_10MemEncoder19panic_invalid_writeKj1_ECsg0ydQtPiXpO_17rustc_codegen_ssa
librustc_driver-fa31e2489381cd18.so:_RINvMNtNtCs6ERRjo1sNLQ_15rustc_serialize6opaque11mem_encoderNtB3_10MemEncoder19panic_invalid_writeKj26_ECsaqNsllmwM5m_12rustc_middle
librustc_driver-fa31e2489381cd18.so:_RINvMNtNtCs6ERRjo1sNLQ_15rustc_serialize6opaque11mem_encoderNtB3_10MemEncoder19panic_invalid_writeKj4_ECsaqNsllmwM5m_12rustc_middle
librustc_driver-fa31e2489381cd18.so:_RINvMNtNtCs6ERRjo1sNLQ_15rustc_serialize6opaque11mem_encoderNtB3_10MemEncoder19panic_invalid_writeKj5_ECsaqNsllmwM5m_12rustc_middle
librustc_driver-fa31e2489381cd18.so:_RINvMNtNtCs6ERRjo1sNLQ_15rustc_serialize6opaque11mem_encoderNtB3_10MemEncoder19panic_invalid_writeKja_EB7_
librustc_driver-fa31e2489381cd18.so:_RINvMs0_NtCshmntTYxeqYP_21rustc_data_structures17obligation_forestINtB6_16ObligationForestNtNtNtCs7ZgcGxgGJUk_21rustc_trait_selection6traits7fulfill26PendingPredicateObligationE19process_obligationsNtB1s_16FulfillProcessorEB1w_
librustc_driver-fa31e2489381cd18.so:_RINvMs0_NtCshmntTYxeqYP_21rustc_data_structures17obligation_forestINtB6_16ObligationForestNtNtNtCs7ZgcGxgGJUk_21rustc_trait_selection6traits7fulfill26PendingPredicateObligationE19process_obligationsNtNvXs0_B1s_INtB1s_18FulfillmentContextpEINtNtNtCsfWGFs8tRit9_11rustc_infer6traits6engine11TraitEnginepE40drain_stalled_obligations_for_coroutines14DrainProcessorEB1w_
librustc_driver-fa31e2489381cd18.so:_RINvMs0_NtCshmntTYxeqYP_21rustc_data_structures17obligation_forestINtB6_16ObligationForestNtNtNtCs7ZgcGxgGJUk_21rustc_trait_selection6traits7fulfill26PendingPredicateObligationE8compressNCINvB2_19process_obligationsNtB1s_16FulfillProcessorEs_0EB1w_
librustc_driver-fa31e2489381cd18.so:_RINvMs0_NtCshmntTYxeqYP_21rustc_data_structures17obligation_forestINtB6_16ObligationForestNtNtNtCs7ZgcGxgGJUk_21rustc_trait_selection6traits7fulfill26PendingPredicateObligationE8compressNCINvB2_19process_obligationsNtNvXs0_B1s_INtB1s_18FulfillmentContextpEINtNtNtCsfWGFs8tRit9_11rustc_infer6traits6engine11TraitEnginepE40drain_stalled_obligations_for_coroutines14DrainProcessorEs_0EB1w_
librustc_driver-fa31e2489381cd18.so:_RINvMs0_NtCshmntTYxeqYP_21rustc_data_structures17obligation_forestINtB6_16ObligationForestNtNtNtCs7ZgcGxgGJUk_21rustc_trait_selection6traits7fulfill26PendingPredicateObligationE8compressNCINvB2_9to_errorsNtB1u_20FulfillmentErrorCodeEs0_0EB1w_
librustc_driver-fa31e2489381cd18.so:_RINvMs0_NtNtNtCsgvX44DZTN43_5alloc11collections5btree6searchINtNtB8_4node7NodeRefNtNtBZ_6marker3MutyNtNtNtCs4chL10YB23V_5gimli4read6abbrev12AbbreviationNtB1j_14LeafOrInternalE14find_key_indexyEB1G_
librustc_driver-fa31e2489381cd18.so:_RINvMs0_NtNtNtCsgvX44DZTN43_5alloc11collections5btree6searchINtNtB8_4node7NodeRefNtNtBZ_6marker5ImmutyNtNtNtCs4chL10YB23V_5gimli4read6abbrev12AbbreviationNtB1j_14LeafOrInternalE14find_key_indexyEB1I_
librustc_driver-fa31e2489381cd18.so:_RINvMs1_NtNtNtCs9CkVVD3KzMB_4jiff3fmt8friendly7printerNtB6_11SpanPrinter33print_span_designators_fractionalINtBa_11StdFmtWriteQNtNtCs6e3rAaajRpB_4core3fmt9FormatterEEBc_
librustc_driver-fa31e2489381cd18.so:_RINvMs1_NtNtNtCs9CkVVD3KzMB_4jiff3fmt8friendly7printerNtB6_11SpanPrinter33print_span_designators_fractionalQNtNtCsgvX44DZTN43_5alloc6string6StringEBc_
librustc_driver-fa31e2489381cd18.so:_RINvMs3_NtNtCskurZfFSl0zB_3std2io5errorNtB6_5Error3newNtNtCs6e3rAaajRpB_4core3fmt5ErrorECs5EiCS2SZwC0_18tracing_subscriber
librustc_driver-fa31e2489381cd18.so:_RINvMs3_NtNtCskurZfFSl0zB_3std2io5errorNtB6_5Error3newNtNtCs8IUyMkKxjUv_9rand_core5error5ErrorEBU_
librustc_driver-fa31e2489381cd18.so:_RINvMs3_NtNtCskurZfFSl0zB_3std2io5errorNtB6_5Error3newNtNtCs9a2DBfTHSX2_8tempfile5error9PathErrorEBU_
librustc_driver-fa31e2489381cd18.so:_RINvMs3_NtNtCskurZfFSl0zB_3std2io5errorNtB6_5Error3newNtNtCscaGRdyUT7Hw_10serde_json5error5ErrorEBU_
librustc_driver-fa31e2489381cd18.so:_RINvMs3_NtNtCskurZfFSl0zB_3std2io5errorNtB6_5Error3newNtNtCsfLLtImGfPGN_6flate23mem13CompressErrorEBU_
librustc_driver-fa31e2489381cd18.so:_RINvMs3_NtNtCskurZfFSl0zB_3std2io5errorNtB6_5Error3newNtNtCsfLLtImGfPGN_6flate23mem15DecompressErrorEBU_
librustc_driver-fa31e2489381cd18.so:_RINvMs3_NtNtCskurZfFSl0zB_3std2io5errorNtB6_5Error3newNtNtCsfhKFVZngprF_9getrandom5error5ErrorEBU_
librustc_driver-fa31e2489381cd18.so:_RINvMs3_NtNtCskurZfFSl0zB_3std2io5errorNtB6_5Error3newNtNtCsgbpzkI4ijJh_9getrandom5error5ErrorEBU_
librustc_driver-fa31e2489381cd18.so:_RINvMs3_NtNtCskurZfFSl0zB_3std2io5errorNtB6_5Error3newNtNtCsgvX44DZTN43_5alloc6string13FromUtf8ErrorECsg0ydQtPiXpO_17rustc_codegen_ssa
librustc_driver-fa31e2489381cd18.so:_RINvMs3_NtNtCskurZfFSl0zB_3std2io5errorNtB6_5Error3newNtNtCsgvX44DZTN43_5alloc6string6StringECs3scjADIeHPO_12rustc_target
librustc_driver-fa31e2489381cd18.so:_RINvMs3_NtNtCskurZfFSl0zB_3std2io5errorNtB6_5Error3newNtNtCskHBMKP8yMGa_6object4read5ErrorECsg0ydQtPiXpO_17rustc_codegen_ssa
librustc_driver-fa31e2489381cd18.so:_RINvMs3_NtNtCskurZfFSl0zB_3std2io5errorNtB6_5Error3newNtNtCskSBREXh5BDl_6ruzstd13frame_decoder17FrameDecoderErrorECsdRd0hdE2iPK_6object
librustc_driver-fa31e2489381cd18.so:_RINvMs3_NtNtCskurZfFSl0zB_3std2io5errorNtB6_5Error3newNtNtNtCs3DneebHskeO_3nix5errno6consts5ErrnoECs2veEJdBMzw3_5ctrlc
librustc_driver-fa31e2489381cd18.so:_RINvMs3_NtNtCskurZfFSl0zB_3std2io5errorNtB6_5Error3newNtNtNtCs6e3rAaajRpB_4core3num5error15TryFromIntErrorEBa_
librustc_driver-fa31e2489381cd18.so:_RINvMs3_NtNtCskurZfFSl0zB_3std2io5errorNtB6_5Error3newNtNtNtCs6e3rAaajRpB_4core3str5error9Utf8ErrorECs5EiCS2SZwC0_18tracing_subscriber
librustc_driver-fa31e2489381cd18.so:_RINvMs3_NtNtCskurZfFSl0zB_3std2io5errorNtB6_5Error3newReEBa_
librustc_driver-fa31e2489381cd18.so:_RINvMs5_NtNtCs6e3rAaajRpB_4core3fmt8buildersNtB6_9DebugList7entriesRNtNtNtCs4chL10YB23V_5gimli4read6abbrev22AttributeSpecificationINtNtNtBa_5slice4iter4IterB14_EEB1a_
librustc_driver-fa31e2489381cd18.so:_RINvMs5_NtNtCs6e3rAaajRpB_4core3fmt8buildersNtB6_9DebugList7entriesRhINtNtNtBa_5slice4iter4IterhEECsauuHx3kgdpX_14rustc_demangle
librustc_driver-fa31e2489381cd18.so:_RINvMs6_NtCs95Vga1zx3Wm_9hashbrown3rawINtB6_8RawTableTINtCs5UuzwzUYD1y_7unicase7UniCaseNtNtCsiIDEqBupP87_14pulldown_cmark7strings6CowStrENtNtB1r_5parse11FootnoteDefEE14reserve_rehashNCINvNtB8_3map11make_hasherBQ_B2b_NtNtNtCskurZfFSl0zB_3std4hash6random11RandomStateE0EB1r_
librustc_driver-fa31e2489381cd18.so:_RINvMs6_NtCs95Vga1zx3Wm_9hashbrown3rawINtB6_8RawTableTINtCs5UuzwzUYD1y_7unicase7UniCaseNtNtCsiIDEqBupP87_14pulldown_cmark7strings6CowStrENtNtB1r_5parse7LinkDefEE14reserve_rehashNCINvNtB8_3map11make_hasherBQ_B2b_NtNtNtCskurZfFSl0zB_3std4hash6random11RandomStateE0EB1r_
librustc_driver-fa31e2489381cd18.so:_RINvMs6_NtCs95Vga1zx3Wm_9hashbrown3rawINtB6_8RawTableTINtNtCs6e3rAaajRpB_4core6option6OptionNtNtCsiP3zVQcHmFl_10rustc_span6symbol6SymbolEuEE14reserve_rehashNCINvNtB8_3map11make_hasherBQ_uNtCsej5P1MWAjDV_10rustc_hash13FxBuildHasherE0ECs8svpH8FC8uE_13rustc_session
librustc_driver-fa31e2489381cd18.so:_RINvMs6_NtCs95Vga1zx3Wm_9hashbrown3rawINtB6_8RawTableTINtNtCs6e3rAaajRpB_4core6option6OptionTNtCsiP3zVQcHmFl_10rustc_span18StableSourceFileIdNtB1v_14SourceFileHashEERNtNtNtCsirwAroatyKs_18rustc_codegen_llvm4llvm3ffi8MetadataEE14reserve_rehashNCINvNtB8_3map11make_hasherBQ_B2D_NtCsej5P1MWAjDV_10rustc_hash13FxBuildHasherE0EB2K_
librustc_driver-fa31e2489381cd18.so:_RINvMs6_NtCs95Vga1zx3Wm_9hashbrown3rawINtB6_8RawTableTINtNtCs9zCOSEPOh1_16rustc_proc_macro6bridge6MarkedNtNtCsiP3zVQcHmFl_10rustc_span13span_encoding4SpanNtNtBT_6client4SpanEINtNtNtCs6e3rAaajRpB_4core3num7nonzero7NonZeromEEE14reserve_rehashNCINvNtB8_3map11make_hasherBQ_B2M_INtNtB2T_4hash18BuildHasherDefaultNtNtBT_6fxhash8FxHasherEE0ECs785ZPy54HPh_12rustc_expand
librustc_driver-fa31e2489381cd18.so:_RINvMs6_NtCs95Vga1zx3Wm_9hashbrown3rawINtB6_8RawTableTINtNtCsaqNsllmwM5m_12rustc_middle2ty11ParamEnvAndNtNtBT_9predicate9PredicateEjEE14reserve_rehashNCINvNtB8_3map11make_hasherBQ_jNtCsej5P1MWAjDV_10rustc_hash13FxBuildHasherE0ECs7ZgcGxgGJUk_21rustc_trait_selection
librustc_driver-fa31e2489381cd18.so:_RINvMs6_NtCs95Vga1zx3Wm_9hashbrown3rawINtB6_8RawTableTINtNtCsaqNsllmwM5m_12rustc_middle2ty11ParamEnvAndNtNtBT_9predicate9PredicateEuEE14reserve_rehashNCINvNtB8_3map11make_hasherBQ_uNtCsej5P1MWAjDV_10rustc_hash13FxBuildHasherE0ECs7ZgcGxgGJUk_21rustc_trait_selection
librustc_driver-fa31e2489381cd18.so:_RINvMs6_NtCs95Vga1zx3Wm_9hashbrown3rawINtB6_8RawTableTINtNtCsbByapOItfY5_13rustc_type_ir14predicate_kind13PredicateKindNtNtNtCsaqNsllmwM5m_12rustc_middle2ty7context6TyCtxtEjEE14reserve_rehashNCINvNtB8_3map11make_hasherBQ_jNtCsej5P1MWAjDV_10rustc_hash13FxBuildHasherE0ECs73ymBF2OK4c_14rustc_metadata
librustc_driver-fa31e2489381cd18.so:_RINvMs6_NtCs95Vga1zx3Wm_9hashbrown3rawINtB6_8RawTableTINtNtCsbByapOItfY5_13rustc_type_ir14predicate_kind13PredicateKindNtNtNtCsaqNsllmwM5m_12rustc_middle2ty7context6TyCtxtEjEE14reserve_rehashNCINvNtB8_3map11make_hasherBQ_jNtCsej5P1MWAjDV_10rustc_hash13FxBuildHasherE0ECsaSsmK69njWG_16rustc_query_impl
librustc_driver-fa31e2489381cd18.so:_RINvMs6_NtCs95Vga1zx3Wm_9hashbrown3rawINtB6_8RawTableTINtNtCsbByapOItfY5_13rustc_type_ir14predicate_kind13PredicateKindNtNtNtCsaqNsllmwM5m_12rustc_middle2ty7context6TyCtxtEuEE14reserve_rehashNCINvNtB8_3map11make_hasherBQ_uNtCsej5P1MWAjDV_10rustc_hash13FxBuildHasherE0ECs6qKlvMSJCFB_16rustc_hir_typeck
librustc_driver-fa31e2489381cd18.so:_RINvMs6_NtCs95Vga1zx3Wm_9hashbrown3rawINtB6_8RawTableTINtNtCsbByapOItfY5_13rustc_type_ir5solve4GoalNtNtNtCsaqNsllmwM5m_12rustc_middle2ty7context6TyCtxtNtNtB1D_9predicate9PredicateEuEE14reserve_rehashNCINvNtB8_3map11make_hasherBQ_uNtCsej5P1MWAjDV_10rustc_hash13FxBuildHasherE0ECs7ZgcGxgGJUk_21rustc_trait_selection
librustc_driver-fa31e2489381cd18.so:_RINvMs6_NtCs95Vga1zx3Wm_9hashbrown3rawINtB6_8RawTableTINtNtCsbByapOItfY5_13rustc_type_ir6binder11BoundRegionNtNtNtCsaqNsllmwM5m_12rustc_middle2ty7context6TyCtxtENtNtB1M_6region6RegionEE14reserve_rehashNCINvNtB8_3map11make_hasherBQ_B2z_NtCsej5P1MWAjDV_10rustc_hash13FxBuildHasherE0EB1O_
librustc_driver-fa31e2489381cd18.so:_RINvMs6_NtCs95Vga1zx3Wm_9hashbrown3rawINtB6_8RawTableTINtNtCsbByapOItfY5_13rustc_type_ir6binder6BinderNtNtNtCsaqNsllmwM5m_12rustc_middle2ty7context6TyCtxtINtNtBV_14predicate_kind13PredicateKindB1C_EEuEE14reserve_rehashNCINvNtB8_3map11make_hasherBQ_uNtCsej5P1MWAjDV_10rustc_hash13FxBuildHasherE0EB1I_
librustc_driver-fa31e2489381cd18.so:_RINvMs6_NtCs95Vga1zx3Wm_9hashbrown3rawINtB6_8RawTableTINtNtCsbByapOItfY5_13rustc_type_ir6binder6BinderNtNtNtCsaqNsllmwM5m_12rustc_middle2ty7context6TyCtxtINtNtBV_9predicate14TraitPredicateB1C_EEuEE14reserve_rehashNCINvNtB8_3map11make_hasherBQ_uNtCsej5P1MWAjDV_10rustc_hash13FxBuildHasherE0ECs7ZgcGxgGJUk_21rustc_trait_selection
librustc_driver-fa31e2489381cd18.so:_RINvMs6_NtCs95Vga1zx3Wm_9hashbrown3rawINtB6_8RawTableTINtNtCsbByapOItfY5_13rustc_type_ir6binder6BinderNtNtNtCsaqNsllmwM5m_12rustc_middle2ty7context6TyCtxtINtNtBV_9predicate19ProjectionPredicateB1C_EEuEE14reserve_rehashNCINvNtB8_3map11make_hasherBQ_uNtCsej5P1MWAjDV_10rustc_hash13FxBuildHasherE0ECscUPtgnKeETP_18rustc_hir_analysis
librustc_driver-fa31e2489381cd18.so:_RINvMs6_NtCs95Vga1zx3Wm_9hashbrown3rawINtB6_8RawTableTINtNtCsbByapOItfY5_13rustc_type_ir6binder6BinderNtNtNtCsaqNsllmwM5m_12rustc_middle2ty7context6TyCtxtINtNtBV_9predicate8TraitRefB1C_EEuEE14reserve_rehashNCINvNtB8_3map11make_hasherBQ_uNtCsej5P1MWAjDV_10rustc_hash13FxBuildHasherE0ECscUPtgnKeETP_18rustc_hir_analysis
librustc_driver-fa31e2489381cd18.so:_RINvMs6_NtCs95Vga1zx3Wm_9hashbrown3rawINtB6_8RawTableTINtNtCsbByapOItfY5_13rustc_type_ir9canonical19CanonicalQueryInputNtNtNtCsaqNsllmwM5m_12rustc_middle2ty7context6TyCtxtINtNtBV_5solve10QueryInputB1T_NtNtB1X_9predicate9PredicateEEINtNtCsgvX44DZTN43_5alloc3vec3VecINtNtBV_12search_graph21ProvisionalCacheEntryB1T_EEEE14reserve_rehashNCINvNtB8_3map11make_hasherBQ_B3H_NtCsej5P1MWAjDV_10rustc_hash13FxBuildHasherE0ECs7ZgcGxgGJUk_21rustc_trait_selection
librustc_driver-fa31e2489381cd18.so:_RINvMs6_NtCs95Vga1zx3Wm_9hashbrown3rawINtB6_8RawTableTINtNtCsbByapOItfY5_13rustc_type_ir9canonical19CanonicalQueryInputNtNtNtCsaqNsllmwM5m_12rustc_middle2ty7context6TyCtxtINtNtBV_5solve10QueryInputB1T_NtNtB1X_9predicate9PredicateEEINtNtNtBV_12search_graph12global_cache10CacheEntryB1T_EEE14reserve_rehashNCINvNtB8_3map11make_hasherBQ_B3H_NtCsej5P1MWAjDV_10rustc_hash13FxBuildHasherE0ECs7ZgcGxgGJUk_21rustc_trait_selection
librustc_driver-fa31e2489381cd18.so:_RINvMs6_NtCs95Vga1zx3Wm_9hashbrown3rawINtB6_8RawTableTINtNtCsbByapOItfY5_13rustc_type_ir9canonical19CanonicalQueryInputNtNtNtCsaqNsllmwM5m_12rustc_middle2ty7context6TyCtxtINtNtBV_5solve10QueryInputB1T_NtNtB1X_9predicate9PredicateEENtNtBV_12search_graph13PathsToNestedEE14reserve_rehashNCINvNtB8_3map11make_hasherBQ_B3H_NtCsej5P1MWAjDV_10rustc_hash13FxBuildHasherE0ECs7ZgcGxgGJUk_21rustc_trait_selection
librustc_driver-fa31e2489381cd18.so:_RINvMs6_NtCs95Vga1zx3Wm_9hashbrown3rawINtB6_8RawTableTINtNtCsbByapOItfY5_13rustc_type_ir9predicate16RegionConstraintNtNtNtCsaqNsllmwM5m_12rustc_middle2ty7context6TyCtxtEjEE14reserve_rehashNCINvNtB8_3map11make_hasherBQ_jNtCsej5P1MWAjDV_10rustc_hash13FxBuildHasherE0ECs7ZgcGxgGJUk_21rustc_trait_selection
librustc_driver-fa31e2489381cd18.so:_RINvMs6_NtCs95Vga1zx3Wm_9hashbrown3rawINtB6_8RawTableTINtNtCsbByapOItfY5_13rustc_type_ir9predicate16RegionConstraintNtNtNtCsaqNsllmwM5m_12rustc_middle2ty7context6TyCtxtEuEE14reserve_rehashNCINvNtB8_3map11make_hasherBQ_uNtCsej5P1MWAjDV_10rustc_hash13FxBuildHasherE0ECs7ZgcGxgGJUk_21rustc_trait_selection
librustc_driver-fa31e2489381cd18.so:_RINvMs6_NtCs95Vga1zx3Wm_9hashbrown3rawINtB6_8RawTableTINtNtCsbByapOItfY5_13rustc_type_ir9predicate17OutlivesPredicateNtNtNtCsaqNsllmwM5m_12rustc_middle2ty7context6TyCtxtNtNtB1V_12generic_args10GenericArgEuEE14reserve_rehashNCINvNtB8_3map11make_hasherBQ_uNtCsej5P1MWAjDV_10rustc_hash13FxBuildHasherE0ECs7ZgcGxgGJUk_21rustc_trait_selection
librustc_driver-fa31e2489381cd18.so:_RINvMs6_NtCs95Vga1zx3Wm_9hashbrown3rawINtB6_8RawTableTINtNtCsbByapOItfY5_13rustc_type_ir9predicate8TraitRefNtNtNtCsaqNsllmwM5m_12rustc_middle2ty7context6TyCtxtEuEE14reserve_rehashNCINvNtB8_3map11make_hasherBQ_uNtCsej5P1MWAjDV_10rustc_hash13FxBuildHasherE0ECs7ZgcGxgGJUk_21rustc_trait_selection
librustc_driver-fa31e2489381cd18.so:_RINvMs6_NtCs95Vga1zx3Wm_9hashbrown3rawINtB6_8RawTableTINtNtCsfWGFs8tRit9_11rustc_infer6traits10ObligationNtNtNtCsaqNsllmwM5m_12rustc_middle2ty9predicate9PredicateEuEE14reserve_rehashNCINvNtB8_3map11make_hasherBQ_uNtCsej5P1MWAjDV_10rustc_hash13FxBuildHasherE0ECs7ZgcGxgGJUk_21rustc_trait_selection
librustc_driver-fa31e2489381cd18.so:_RINvMs6_NtCs95Vga1zx3Wm_9hashbrown3rawINtB6_8RawTableTINtNtCsgvX44DZTN43_5alloc3vec3VechENtNtCsdRd0hdE2iPK_6object5write8SymbolIdEE14reserve_rehashNCINvNtB8_3map11make_hasherBQ_B1p_NtNtNtCskurZfFSl0zB_3std4hash6random11RandomStateE0EB1t_
librustc_driver-fa31e2489381cd18.so:_RINvMs6_NtCs95Vga1zx3Wm_9hashbrown3rawINtB6_8RawTableTINtNtCsgvX44DZTN43_5alloc3vec3VechENtNtCskHBMKP8yMGa_6object5write8SymbolIdEE14reserve_rehashNCINvNtB8_3map11make_hasherBQ_B1p_NtNtNtCskurZfFSl0zB_3std4hash6random11RandomStateE0EB1t_
librustc_driver-fa31e2489381cd18.so:_RINvMs6_NtCs95Vga1zx3Wm_9hashbrown3rawINtB6_8RawTableTINtNtCsgvX44DZTN43_5alloc4sync3ArceENtNtNtCs5kKxLxgs1gB_14regex_automata4util10primitives10SmallIndexEE14reserve_rehashNCINvNtB8_3map11make_hasherBQ_B1q_NtNtNtCskurZfFSl0zB_3std4hash6random11RandomStateE0EB1w_
librustc_driver-fa31e2489381cd18.so:_RINvMs6_NtCs95Vga1zx3Wm_9hashbrown3rawINtB6_8RawTableTINtNtCshmntTYxeqYP_21rustc_data_structures6intern8InternedNtCs3VMMNsKb80B_13rustc_resolve8DeclDataEuEE14reserve_rehashNCINvNtB8_3map11make_hasherBQ_uNtCsej5P1MWAjDV_10rustc_hash13FxBuildHasherE0EB1O_
librustc_driver-fa31e2489381cd18.so:_RINvMs6_NtCs95Vga1zx3Wm_9hashbrown3rawINtB6_8RawTableTINtNtCshmntTYxeqYP_21rustc_data_structures6intern8InternedNtNtCs3VMMNsKb80B_13rustc_resolve7imports10ImportDataENtB1Q_4UsedEE14reserve_rehashNCINvNtB8_3map11make_hasherBQ_B2E_NtCsej5P1MWAjDV_10rustc_hash13FxBuildHasherE0EB1Q_
librustc_driver-fa31e2489381cd18.so:_RINvMs6_NtCs95Vga1zx3Wm_9hashbrown3rawINtB6_8RawTableTNtCs3VMMNsKb80B_13rustc_resolve10BindingKeyuEE14reserve_rehashNCINvNtB8_3map11make_hasherBQ_uNtCsej5P1MWAjDV_10rustc_hash13FxBuildHasherE0EBS_
librustc_driver-fa31e2489381cd18.so:_RINvMs6_NtCs95Vga1zx3Wm_9hashbrown3rawINtB6_8RawTableTNtCs3VMMNsKb80B_13rustc_resolve8IdentKeyINtNtCshmntTYxeqYP_21rustc_data_structures6intern8InternedNtBS_8DeclDataEEE14reserve_rehashNCINvNtB8_3map11make_hasherBQ_B1u_NtCsej5P1MWAjDV_10rustc_hash13FxBuildHasherE0EBS_
librustc_driver-fa31e2489381cd18.so:_RINvMs6_NtCs95Vga1zx3Wm_9hashbrown3rawINtB6_8RawTableTNtCs3VMMNsKb80B_13rustc_resolve8IdentKeyuEE14reserve_rehashNCINvNtB8_3map11make_hasherBQ_uNtCsej5P1MWAjDV_10rustc_hash13FxBuildHasherE0EBS_
librustc_driver-fa31e2489381cd18.so:_RINvMs6_NtCs95Vga1zx3Wm_9hashbrown3rawINtB6_8RawTableTNtCs6ahoKXGLX5z_12rustc_hir_id11ItemLocalIdINtNtCs6e3rAaajRpB_4core6option6OptionNtNtNtCsaqNsllmwM5m_12rustc_middle6middle6region5ScopeEEE14reserve_rehashNCINvNtB8_3map11make_hasherBQ_B1x_NtCsej5P1MWAjDV_10rustc_hash13FxBuildHasherE0EB2f_
librustc_driver-fa31e2489381cd18.so:_RINvMs6_NtCs95Vga1zx3Wm_9hashbrown3rawINtB6_8RawTableTNtCs6ahoKXGLX5z_12rustc_hir_id11ItemLocalIdINtNtCs6e3rAaajRpB_4core6result6ResultTNtNtCs3KflAWMuICG_9rustc_hir3def7DefKindNtNtCsiP3zVQcHmFl_10rustc_span6def_id5DefIdENtB2S_15ErrorGuaranteedEEE14reserve_rehashNCINvNtB8_3map11make_hasherBQ_B1x_NtCsej5P1MWAjDV_10rustc_hash13FxBuildHasherE0ECs6qKlvMSJCFB_16rustc_hir_typeck
librustc_driver-fa31e2489381cd18.so:_RINvMs6_NtCs95Vga1zx3Wm_9hashbrown3rawINtB6_8RawTableTNtCs6ahoKXGLX5z_12rustc_hir_id11ItemLocalIdINtNtCs6e3rAaajRpB_4core6result6ResultTNtNtCs3KflAWMuICG_9rustc_hir3def7DefKindNtNtCsiP3zVQcHmFl_10rustc_span6def_id5DefIdENtB2S_15ErrorGuaranteedEEE14reserve_rehashNCINvNtB8_3map11make_hasherBQ_B1x_NtCsej5P1MWAjDV_10rustc_hash13FxBuildHasherE0ECsaSsmK69njWG_16rustc_query_impl
librustc_driver-fa31e2489381cd18.so:_RINvMs6_NtCs95Vga1zx3Wm_9hashbrown3rawINtB6_8RawTableTNtCs6ahoKXGLX5z_12rustc_hir_id11ItemLocalIdINtNtCsbByapOItfY5_13rustc_type_ir7ty_kind5FnSigNtNtNtCsaqNsllmwM5m_12rustc_middle2ty7context6TyCtxtEEE14reserve_rehashNCINvNtB8_3map11make_hasherBQ_B1x_NtCsej5P1MWAjDV_10rustc_hash13FxBuildHasherE0ECs6qKlvMSJCFB_16rustc_hir_typeck
librustc_driver-fa31e2489381cd18.so:_RINvMs6_NtCs95Vga1zx3Wm_9hashbrown3rawINtB6_8RawTableTNtCs6ahoKXGLX5z_12rustc_hir_id11ItemLocalIdINtNtCsbByapOItfY5_13rustc_type_ir7ty_kind5FnSigNtNtNtCsaqNsllmwM5m_12rustc_middle2ty7context6TyCtxtEEE14reserve_rehashNCINvNtB8_3map11make_hasherBQ_B1x_NtCsej5P1MWAjDV_10rustc_hash13FxBuildHasherE0ECsaSsmK69njWG_16rustc_query_impl
librustc_driver-fa31e2489381cd18.so:_RINvMs6_NtCs95Vga1zx3Wm_9hashbrown3rawINtB6_8RawTableTNtCs6ahoKXGLX5z_12rustc_hir_id11ItemLocalIdINtNtCsbByapOItfY5_13rustc_type_ir9canonical9CanonicalNtNtNtCsaqNsllmwM5m_12rustc_middle2ty7context6TyCtxtNtNtB2t_14typeck_results8UserTypeEEE14reserve_rehashNCINvNtB8_3map11make_hasherBQ_B1x_NtCsej5P1MWAjDV_10rustc_hash13FxBuildHasherE0ECs6qKlvMSJCFB_16rustc_hir_typeck
librustc_driver-fa31e2489381cd18.so:_RINvMs6_NtCs95Vga1zx3Wm_9hashbrown3rawINtB6_8RawTableTNtCs6ahoKXGLX5z_12rustc_hir_id11ItemLocalIdINtNtCsbByapOItfY5_13rustc_type_ir9canonical9CanonicalNtNtNtCsaqNsllmwM5m_12rustc_middle2ty7context6TyCtxtNtNtB2t_14typeck_results8UserTypeEEE14reserve_rehashNCINvNtB8_3map11make_hasherBQ_B1x_NtCsej5P1MWAjDV_10rustc_hash13FxBuildHasherE0ECsaSsmK69njWG_16rustc_query_impl
librustc_driver-fa31e2489381cd18.so:_RINvMs6_NtCs95Vga1zx3Wm_9hashbrown3rawINtB6_8RawTableTNtCs6ahoKXGLX5z_12rustc_hir_id11ItemLocalIdINtNtCsgvX44DZTN43_5alloc3vec3VecNtNtCsaqNsllmwM5m_12rustc_middle2ty2TyEEE14reserve_rehashNCINvNtB8_3map11make_hasherBQ_B1x_NtCsej5P1MWAjDV_10rustc_hash13FxBuildHasherE0ECs6qKlvMSJCFB_16rustc_hir_typeck
librustc_driver-fa31e2489381cd18.so:_RINvMs6_NtCs95Vga1zx3Wm_9hashbrown3rawINtB6_8RawTableTNtCs6ahoKXGLX5z_12rustc_hir_id11ItemLocalIdINtNtCsgvX44DZTN43_5alloc3vec3VecNtNtCsaqNsllmwM5m_12rustc_middle2ty2TyEEE14reserve_rehashNCINvNtB8_3map11make_hasherBQ_B1x_NtCsej5P1MWAjDV_10rustc_hash13FxBuildHasherE0ECsaSsmK69njWG_16rustc_query_impl
librustc_driver-fa31e2489381cd18.so:_RINvMs6_NtCs95Vga1zx3Wm_9hashbrown3rawINtB6_8RawTableTNtCs6ahoKXGLX5z_12rustc_hir_id11ItemLocalIdINtNtCsgvX44DZTN43_5alloc3vec3VecNtNtNtCsaqNsllmwM5m_12rustc_middle2ty10adjustment10AdjustmentEEE14reserve_rehashNCINvNtB8_3map11make_hasherBQ_B1x_NtCsej5P1MWAjDV_10rustc_hash13FxBuildHasherE0ECs6qKlvMSJCFB_16rustc_hir_typeck
librustc_driver-fa31e2489381cd18.so:_RINvMs6_NtCs95Vga1zx3Wm_9hashbrown3rawINtB6_8RawTableTNtCs6ahoKXGLX5z_12rustc_hir_id11ItemLocalIdINtNtCsgvX44DZTN43_5alloc3vec3VecNtNtNtCsaqNsllmwM5m_12rustc_middle2ty10adjustment10AdjustmentEEE14reserve_rehashNCINvNtB8_3map11make_hasherBQ_B1x_NtCsej5P1MWAjDV_10rustc_hash13FxBuildHasherE0ECsaSsmK69njWG_16rustc_query_impl
librustc_driver-fa31e2489381cd18.so:_RINvMs6_NtCs95Vga1zx3Wm_9hashbrown3rawINtB6_8RawTableTNtCs6ahoKXGLX5z_12rustc_hir_id11ItemLocalIdINtNtCsgvX44DZTN43_5alloc3vec3VecNtNtNtCsaqNsllmwM5m_12rustc_middle2ty10adjustment13PatAdjustmentEEE14reserve_rehashNCINvNtB8_3map11make_hasherBQ_B1x_NtCsej5P1MWAjDV_10rustc_hash13FxBuildHasherE0ECs6qKlvMSJCFB_16rustc_hir_typeck
librustc_driver-fa31e2489381cd18.so:_RINvMs6_NtCs95Vga1zx3Wm_9hashbrown3rawINtB6_8RawTableTNtCs6ahoKXGLX5z_12rustc_hir_id11ItemLocalIdINtNtCsgvX44DZTN43_5alloc3vec3VecNtNtNtCsaqNsllmwM5m_12rustc_middle2ty10adjustment13PatAdjustmentEEE14reserve_rehashNCINvNtB8_3map11make_hasherBQ_B1x_NtCsej5P1MWAjDV_10rustc_hash13FxBuildHasherE0ECsaSsmK69njWG_16rustc_query_impl
librustc_driver-fa31e2489381cd18.so:_RINvMs6_NtCs95Vga1zx3Wm_9hashbrown3rawINtB6_8RawTableTNtCs6ahoKXGLX5z_12rustc_hir_id11ItemLocalIdINtNtCsgvX44DZTN43_5alloc3vec3VecNtNtNtCsaqNsllmwM5m_12rustc_middle2ty9predicate6ClauseEEE14reserve_rehashNCINvNtB8_3map11make_hasherBQ_B1x_NtCsej5P1MWAjDV_10rustc_hash13FxBuildHasherE0ECs6qKlvMSJCFB_16rustc_hir_typeck
librustc_driver-fa31e2489381cd18.so:_RINvMs6_NtCs95Vga1zx3Wm_9hashbrown3rawINtB6_8RawTableTNtCs6ahoKXGLX5z_12rustc_hir_id11ItemLocalIdINtNtCsgvX44DZTN43_5alloc3vec3VecTNtNtCsaqNsllmwM5m_12rustc_middle2ty2TyNtNtCsdeppuzfODI3_9rustc_abi6layout10VariantIdxNtB2J_8FieldIdxEEEE14reserve_rehashNCINvNtB8_3map11make_hasherBQ_B1x_NtCsej5P1MWAjDV_10rustc_hash13FxBuildHasherE0ECs6qKlvMSJCFB_16rustc_hir_typeck
librustc_driver-fa31e2489381cd18.so:_RINvMs6_NtCs95Vga1zx3Wm_9hashbrown3rawINtB6_8RawTableTNtCs6ahoKXGLX5z_12rustc_hir_id11ItemLocalIdINtNtCsgvX44DZTN43_5alloc3vec3VecTNtNtCsaqNsllmwM5m_12rustc_middle2ty2TyNtNtCsdeppuzfODI3_9rustc_abi6layout10VariantIdxNtB2J_8FieldIdxEEEE14reserve_rehashNCINvNtB8_3map11make_hasherBQ_B1x_NtCsej5P1MWAjDV_10rustc_hash13FxBuildHasherE0ECsaSsmK69njWG_16rustc_query_impl
librustc_driver-fa31e2489381cd18.so:_RINvMs6_NtCs95Vga1zx3Wm_9hashbrown3rawINtB6_8RawTableTNtCs6ahoKXGLX5z_12rustc_hir_id11ItemLocalIdNtNtCsaqNsllmwM5m_12rustc_middle2ty2TyEE14reserve_rehashNCINvNtB8_3map11make_hasherBQ_B1x_NtCsej5P1MWAjDV_10rustc_hash13FxBuildHasherE0ECs6qKlvMSJCFB_16rustc_hir_typeck
librustc_driver-fa31e2489381cd18.so:_RINvMs6_NtCs95Vga1zx3Wm_9hashbrown3rawINtB6_8RawTableTNtCs6ahoKXGLX5z_12rustc_hir_id11ItemLocalIdNtNtCsaqNsllmwM5m_12rustc_middle2ty2TyEE14reserve_rehashNCINvNtB8_3map11make_hasherBQ_B1x_NtCsej5P1MWAjDV_10rustc_hash13FxBuildHasherE0ECsaSsmK69njWG_16rustc_query_impl
librustc_driver-fa31e2489381cd18.so:_RINvMs6_NtCs95Vga1zx3Wm_9hashbrown3rawINtB6_8RawTableTNtCs6ahoKXGLX5z_12rustc_hir_id11ItemLocalIdNtNtCsd482UFdOvTO_9rustc_ast3ast11BindingModeEE14reserve_rehashNCINvNtB8_3map11make_hasherBQ_B1x_NtCsej5P1MWAjDV_10rustc_hash13FxBuildHasherE0ECs6qKlvMSJCFB_16rustc_hir_typeck
librustc_driver-fa31e2489381cd18.so:_RINvMs6_NtCs95Vga1zx3Wm_9hashbrown3rawINtB6_8RawTableTNtCs6ahoKXGLX5z_12rustc_hir_id11ItemLocalIdNtNtCsd482UFdOvTO_9rustc_ast3ast11BindingModeEE14reserve_rehashNCINvNtB8_3map11make_hasherBQ_B1x_NtCsej5P1MWAjDV_10rustc_hash13FxBuildHasherE0ECsaSsmK69njWG_16rustc_query_impl
librustc_driver-fa31e2489381cd18.so:_RINvMs6_NtCs95Vga1zx3Wm_9hashbrown3rawINtB6_8RawTableTNtCs6ahoKXGLX5z_12rustc_hir_id11ItemLocalIdNtNtCsdeppuzfODI3_9rustc_abi6layout8FieldIdxEE14reserve_rehashNCINvNtB8_3map11make_hasherBQ_B1x_NtCsej5P1MWAjDV_10rustc_hash13FxBuildHasherE0ECs6qKlvMSJCFB_16rustc_hir_typeck
librustc_driver-fa31e2489381cd18.so:_RINvMs6_NtCs95Vga1zx3Wm_9hashbrown3rawINtB6_8RawTableTNtCs6ahoKXGLX5z_12rustc_hir_id11ItemLocalIdNtNtCsdeppuzfODI3_9rustc_abi6layout8FieldIdxEE14reserve_rehashNCINvNtB8_3map11make_hasherBQ_B1x_NtCsej5P1MWAjDV_10rustc_hash13FxBuildHasherE0ECsaSsmK69njWG_16rustc_query_impl
librustc_driver-fa31e2489381cd18.so:_RINvMs6_NtCs95Vga1zx3Wm_9hashbrown3rawINtB6_8RawTableTNtCs6ahoKXGLX5z_12rustc_hir_id11ItemLocalIdNtNtNtCsaqNsllmwM5m_12rustc_middle2ty14typeck_results27Rust2024IncompatiblePatInfoEE14reserve_rehashNCINvNtB8_3map11make_hasherBQ_B1x_NtCsej5P1MWAjDV_10rustc_hash13FxBuildHasherE0ECs6qKlvMSJCFB_16rustc_hir_typeck
librustc_driver-fa31e2489381cd18.so:_RINvMs6_NtCs95Vga1zx3Wm_9hashbrown3rawINtB6_8RawTableTNtCs6ahoKXGLX5z_12rustc_hir_id11ItemLocalIdNtNtNtCsaqNsllmwM5m_12rustc_middle2ty14typeck_results27Rust2024IncompatiblePatInfoEE14reserve_rehashNCINvNtB8_3map11make_hasherBQ_B1x_NtCsej5P1MWAjDV_10rustc_hash13FxBuildHasherE0ECsaSsmK69njWG_16rustc_query_impl
librustc_driver-fa31e2489381cd18.so:_RINvMs6_NtCs95Vga1zx3Wm_9hashbrown3rawINtB6_8RawTableTNtCs6ahoKXGLX5z_12rustc_hir_id11ItemLocalIdNtNtNtCsaqNsllmwM5m_12rustc_middle6middle6region5ScopeEE14reserve_rehashNCINvNtB8_3map11make_hasherBQ_B1x_NtCsej5P1MWAjDV_10rustc_hash13FxBuildHasherE0ECscUPtgnKeETP_18rustc_hir_analysis
librustc_driver-fa31e2489381cd18.so:_RINvMs6_NtCs95Vga1zx3Wm_9hashbrown3rawINtB6_8RawTableTNtCs6ahoKXGLX5z_12rustc_hir_id11ItemLocalIdRINtNtNtCsaqNsllmwM5m_12rustc_middle2ty4list7RawListuNtNtB1D_12generic_args10GenericArgEEE14reserve_rehashNCINvNtB8_3map11make_hasherBQ_B1x_NtCsej5P1MWAjDV_10rustc_hash13FxBuildHasherE0ECs6qKlvMSJCFB_16rustc_hir_typeck
librustc_driver-fa31e2489381cd18.so:_RINvMs6_NtCs95Vga1zx3Wm_9hashbrown3rawINtB6_8RawTableTNtCs6ahoKXGLX5z_12rustc_hir_id11ItemLocalIdRINtNtNtCsaqNsllmwM5m_12rustc_middle2ty4list7RawListuNtNtB1D_12generic_args10GenericArgEEE14reserve_rehashNCINvNtB8_3map11make_hasherBQ_B1x_NtCsej5P1MWAjDV_10rustc_hash13FxBuildHasherE0ECsaSsmK69njWG_16rustc_query_impl
librustc_driver-fa31e2489381cd18.so:_RINvMs6_NtCs95Vga1zx3Wm_9hashbrown3rawINtB6_8RawTableTNtCs6ahoKXGLX5z_12rustc_hir_id11ItemLocalIdRSNtNtCs3KflAWMuICG_9rustc_hir3hir14TraitCandidateEE14reserve_rehashNCINvNtB8_3map11make_hasherBQ_B1x_NtCsej5P1MWAjDV_10rustc_hash13FxBuildHasherE0ECs6UwPWeCye2U_18rustc_ast_lowering
librustc_driver-fa31e2489381cd18.so:_RINvMs6_NtCs95Vga1zx3Wm_9hashbrown3rawINtB6_8RawTableTNtCs6ahoKXGLX5z_12rustc_hir_id11ItemLocalIdTNtNtCsiP3zVQcHmFl_10rustc_span13span_encoding4SpanNtNtNtCsaqNsllmwM5m_12rustc_middle3hir5place5PlaceEEE14reserve_rehashNCINvNtB8_3map11make_hasherBQ_B1x_NtCsej5P1MWAjDV_10rustc_hash13FxBuildHasherE0ECs6qKlvMSJCFB_16rustc_hir_typeck
librustc_driver-fa31e2489381cd18.so:_RINvMs6_NtCs95Vga1zx3Wm_9hashbrown3rawINtB6_8RawTableTNtCs6ahoKXGLX5z_12rustc_hir_id11ItemLocalIdTNtNtCsiP3zVQcHmFl_10rustc_span13span_encoding4SpanNtNtNtCsaqNsllmwM5m_12rustc_middle3hir5place5PlaceEEE14reserve_rehashNCINvNtB8_3map11make_hasherBQ_B1x_NtCsej5P1MWAjDV_10rustc_hash13FxBuildHasherE0ECsaSsmK69njWG_16rustc_query_impl
librustc_driver-fa31e2489381cd18.so:_RINvMs6_NtCs95Vga1zx3Wm_9hashbrown3rawINtB6_8RawTableTNtCs6ahoKXGLX5z_12rustc_hir_id11ItemLocalIduEE14reserve_rehashNCINvNtB8_3map11make_hasherBQ_uNtCsej5P1MWAjDV_10rustc_hash13FxBuildHasherE0ECsaqNsllmwM5m_12rustc_middle
librustc_driver-fa31e2489381cd18.so:_RINvMs6_NtCs95Vga1zx3Wm_9hashbrown3rawINtB6_8RawTableTNtCs6ahoKXGLX5z_12rustc_hir_id5HirIduEE14reserve_rehashNCINvNtB8_3map11make_hasherBQ_uNtCsej5P1MWAjDV_10rustc_hash13FxBuildHasherE0ECs7ZgcGxgGJUk_21rustc_trait_selection
librustc_driver-fa31e2489381cd18.so:_RINvMs6_NtCs95Vga1zx3Wm_9hashbrown3rawINtB6_8RawTableTNtCsbByapOItfY5_13rustc_type_ir13UniverseIndexBQ_EE14reserve_rehashNCINvNtB8_3map11make_hasherBQ_BQ_NtCsej5P1MWAjDV_10rustc_hash13FxBuildHasherE0ECsfWGFs8tRit9_11rustc_infer
librustc_driver-fa31e2489381cd18.so:_RINvMs6_NtCs95Vga1zx3Wm_9hashbrown3rawINtB6_8RawTableTNtCshvlC1sCFk4y_12rustc_hashes6Hash64mEE14reserve_rehashNCINvNtB8_3map11make_hasherBQ_mINtNtCs6e3rAaajRpB_4core4hash18BuildHasherDefaultNtNtCshmntTYxeqYP_21rustc_data_structures6unhash8UnhasherEE0ECs3VMMNsKb80B_13rustc_resolve
librustc_driver-fa31e2489381cd18.so:_RINvMs6_NtCs95Vga1zx3Wm_9hashbrown3rawINtB6_8RawTableTNtCshvlC1sCFk4y_12rustc_hashes6Hash64mEE14reserve_rehashNCINvNtB8_3map11make_hasherBQ_mINtNtCs6e3rAaajRpB_4core4hash18BuildHasherDefaultNtNtCshmntTYxeqYP_21rustc_data_structures6unhash8UnhasherEE0ECs6UwPWeCye2U_18rustc_ast_lowering
librustc_driver-fa31e2489381cd18.so:_RINvMs6_NtCs95Vga1zx3Wm_9hashbrown3rawINtB6_8RawTableTNtCshvlC1sCFk4y_12rustc_hashes7Hash128uEE14reserve_rehashNCINvNtB8_3map11make_hasherBQ_uNtCsej5P1MWAjDV_10rustc_hash13FxBuildHasherE0ECsh8xpvZH2MPK_12rustc_errors
librustc_driver-fa31e2489381cd18.so:_RINvMs6_NtCs95Vga1zx3Wm_9hashbrown3rawINtB6_8RawTableTNtCsiP3zVQcHmFl_10rustc_span18StableSourceFileIdINtNtCsgvX44DZTN43_5alloc4sync3ArcNtBS_10SourceFileEEE14reserve_rehashNCINvNtB8_3map11make_hasherBQ_B1C_INtNtCs6e3rAaajRpB_4core4hash18BuildHasherDefaultNtNtCshmntTYxeqYP_21rustc_data_structures6unhash8UnhasherEE0EBS_
librustc_driver-fa31e2489381cd18.so:_RINvMs6_NtCs95Vga1zx3Wm_9hashbrown3rawINtB6_8RawTableTNtCsiP3zVQcHmFl_10rustc_span6AttrIdNtNtCsd482UFdOvTO_9rustc_ast11tokenstream11ParserRangeEE14reserve_rehashNCINvNtB8_3map11make_hasherBQ_B1p_NtCsej5P1MWAjDV_10rustc_hash13FxBuildHasherE0ECsgfasDSBi4N4_11rustc_parse
librustc_driver-fa31e2489381cd18.so:_RINvMs6_NtCs95Vga1zx3Wm_9hashbrown3rawINtB6_8RawTableTNtCsiP3zVQcHmFl_10rustc_span7BytePosmEE14reserve_rehashNCINvNtB8_3map11make_hasherBQ_mNtCsej5P1MWAjDV_10rustc_hash13FxBuildHasherE0ECsirwAroatyKs_18rustc_codegen_llvm
librustc_driver-fa31e2489381cd18.so:_RINvMs6_NtCs95Vga1zx3Wm_9hashbrown3rawINtB6_8RawTableTNtCskk5ZUZA4NPw_15rustc_lint_defs6LintIduEE14reserve_rehashNCINvNtB8_3map11make_hasherBQ_uNtCsej5P1MWAjDV_10rustc_hash13FxBuildHasherE0ECs1ufPwUoOuD2_10rustc_lint
librustc_driver-fa31e2489381cd18.so:_RINvMs6_NtCs95Vga1zx3Wm_9hashbrown3rawINtB6_8RawTableTNtCslRYU1Av45hL_16unic_langid_impl18LanguageIdentifierINtNtCsgvX44DZTN43_5alloc2rc4WeakNtCskU6kqhSg598_13intl_memoizer16IntlLangMemoizerEEE14reserve_rehashNCINvNtB8_3map11make_hasherBQ_B1I_NtNtNtCskurZfFSl0zB_3std4hash6random11RandomStateE0EB2h_
librustc_driver-fa31e2489381cd18.so:_RINvMs6_NtCs95Vga1zx3Wm_9hashbrown3rawINtB6_8RawTableTNtNtCs3KflAWMuICG_9rustc_hir10lang_items8LangItemuEE14reserve_rehashNCINvNtB8_3map11make_hasherBQ_uNtCsej5P1MWAjDV_10rustc_hash13FxBuildHasherE0ECserPFC4ou40o_12rustc_passes
librustc_driver-fa31e2489381cd18.so:_RINvMs6_NtCs95Vga1zx3Wm_9hashbrown3rawINtB6_8RawTableTNtNtCs3KflAWMuICG_9rustc_hir11definitions11DefPathDatamEE14reserve_rehashNCINvNtB8_3map11make_hasherBQ_mNtCsej5P1MWAjDV_10rustc_hash13FxBuildHasherE0EBU_
librustc_driver-fa31e2489381cd18.so:_RINvMs6_NtCs95Vga1zx3Wm_9hashbrown3rawINtB6_8RawTableTNtNtCs3KflAWMuICG_9rustc_hir3def11LifetimeResuEE14reserve_rehashNCINvNtB8_3map11make_hasherBQ_uNtCsej5P1MWAjDV_10rustc_hash13FxBuildHasherE0ECs3VMMNsKb80B_13rustc_resolve
librustc_driver-fa31e2489381cd18.so:_RINvMs6_NtCs95Vga1zx3Wm_9hashbrown3rawINtB6_8RawTableTNtNtCs3scjADIeHPO_12rustc_target3asm12InlineAsmRegjEE14reserve_rehashNCINvNtB8_3map11make_hasherBQ_jNtCsej5P1MWAjDV_10rustc_hash13FxBuildHasherE0ECs6UwPWeCye2U_18rustc_ast_lowering
librustc_driver-fa31e2489381cd18.so:_RINvMs6_NtCs95Vga1zx3Wm_9hashbrown3rawINtB6_8RawTableTNtNtCs3scjADIeHPO_12rustc_target3asm12InlineAsmReguEE14reserve_rehashNCINvNtB8_3map11make_hasherBQ_uNtCsej5P1MWAjDV_10rustc_hash13FxBuildHasherE0ECs6UwPWeCye2U_18rustc_ast_lowering
librustc_driver-fa31e2489381cd18.so:_RINvMs6_NtCs95Vga1zx3Wm_9hashbrown3rawINtB6_8RawTableTNtNtCs3scjADIeHPO_12rustc_target3asm17InlineAsmRegClassINtNtCs7KwMrq602nF_8indexmap3set8IndexSetNtBS_12InlineAsmRegNtCsej5P1MWAjDV_10rustc_hash13FxBuildHasherEEE14reserve_rehashNCINvNtB8_3map11make_hasherBQ_B1J_B2H_E0EBU_
librustc_driver-fa31e2489381cd18.so:_RINvMs6_NtCs95Vga1zx3Wm_9hashbrown3rawINtB6_8RawTableTNtNtCs59YsWYr1ntJ_12tracing_core4span2IdINtNtNtNtCs5EiCS2SZwC0_18tracing_subscriber6filter3env9directive8MatchSetNtNtB1z_5field9SpanMatchEEE14reserve_rehashNCINvNtB8_3map11make_hasherBQ_B1u_NtNtNtCskurZfFSl0zB_3std4hash6random11RandomStateE0EB1D_
librustc_driver-fa31e2489381cd18.so:_RINvMs6_NtCs95Vga1zx3Wm_9hashbrown3rawINtB6_8RawTableTNtNtCs59YsWYr1ntJ_12tracing_core5field5FieldNtNtNtNtCs5EiCS2SZwC0_18tracing_subscriber6filter3env5field10ValueMatchEE14reserve_rehashNCINvNtB8_3map11make_hasherBQ_B1y_NtNtNtCskurZfFSl0zB_3std4hash6random11RandomStateE0EB1G_
librustc_driver-fa31e2489381cd18.so:_RINvMs6_NtCs95Vga1zx3Wm_9hashbrown3rawINtB6_8RawTableTNtNtCs59YsWYr1ntJ_12tracing_core5field5FieldTNtNtNtNtCs5EiCS2SZwC0_18tracing_subscriber6filter3env5field10ValueMatchINtNtNtCs6e3rAaajRpB_4core4sync6atomic6AtomicbEEEE14reserve_rehashNCINvNtB8_3map11make_hasherBQ_B1y_NtNtNtCskurZfFSl0zB_3std4hash6random11RandomStateE0EB1H_
librustc_driver-fa31e2489381cd18.so:_RINvMs6_NtCs95Vga1zx3Wm_9hashbrown3rawINtB6_8RawTableTNtNtCs59YsWYr1ntJ_12tracing_core8callsite10IdentifierINtNtNtNtCs5EiCS2SZwC0_18tracing_subscriber6filter3env9directive8MatchSetNtNtB1M_5field13CallsiteMatchEEE14reserve_rehashNCINvNtB8_3map11make_hasherBQ_B1H_NtNtNtCskurZfFSl0zB_3std4hash6random11RandomStateE0EB1Q_
librustc_driver-fa31e2489381cd18.so:_RINvMs6_NtCs95Vga1zx3Wm_9hashbrown3rawINtB6_8RawTableTNtNtCs6e3rAaajRpB_4core3any6TypeIdINtNtCsgvX44DZTN43_5alloc5boxed3BoxDNtBS_3AnyEL_EEE14reserve_rehashNCINvNtB8_3map11make_hasherBQ_B1o_NtCsej5P1MWAjDV_10rustc_hash13FxBuildHasherE0ECshMFgLtZJ1Wu_8type_map
librustc_driver-fa31e2489381cd18.so:_RINvMs6_NtCs95Vga1zx3Wm_9hashbrown3rawINtB6_8RawTableTNtNtCs6e3rAaajRpB_4core3any6TypeIdINtNtCsgvX44DZTN43_5alloc5boxed3BoxDNtBS_3AnyNtNtBU_6marker4SendNtB29_4SyncEL_EEE14reserve_rehashNCINvNtB8_3map11make_hasherBQ_B1o_INtNtBU_4hash18BuildHasherDefaultNtNtNtCs5EiCS2SZwC0_18tracing_subscriber8registry10extensions8IdHasherEE0EB48_
librustc_driver-fa31e2489381cd18.so:_RINvMs6_NtCs95Vga1zx3Wm_9hashbrown3rawINtB6_8RawTableTNtNtCs6e3rAaajRpB_4core3any6TypeIdINtNtCsgvX44DZTN43_5alloc5boxed3BoxDNtBS_3AnyNtNtBU_6marker4SendNtB29_4SyncEL_EEE14reserve_rehashNCINvNtB8_3map11make_hasherBQ_B1o_NtCsej5P1MWAjDV_10rustc_hash13FxBuildHasherE0ECshMFgLtZJ1Wu_8type_map
librustc_driver-fa31e2489381cd18.so:_RINvMs6_NtCs95Vga1zx3Wm_9hashbrown3rawINtB6_8RawTableTNtNtCs8Oewc4Z7MhZ_18rustc_mir_dataflow14value_analysis10ValueIndexBQ_EE14reserve_rehashNCINvNtB8_3map11make_hasherBQ_BQ_NtCsej5P1MWAjDV_10rustc_hash13FxBuildHasherE0ECs4DnJvQYATGa_19rustc_mir_transform
librustc_driver-fa31e2489381cd18.so:_RINvMs6_NtCs95Vga1zx3Wm_9hashbrown3rawINtB6_8RawTableTNtNtCs8Oewc4Z7MhZ_18rustc_mir_dataflow14value_analysis10ValueIndexINtNtNtBU_9framework7lattice7FlatSetNtNtNtNtCsaqNsllmwM5m_12rustc_middle3mir9interpret5value6ScalarEEE14reserve_rehashNCINvNtB8_3map11make_hasherBQ_B1U_NtCsej5P1MWAjDV_10rustc_hash13FxBuildHasherE0ECs4DnJvQYATGa_19rustc_mir_transform
librustc_driver-fa31e2489381cd18.so:_RINvMs6_NtCs95Vga1zx3Wm_9hashbrown3rawINtB6_8RawTableTNtNtCs8Oewc4Z7MhZ_18rustc_mir_dataflow14value_analysis10ValueIndexuEE14reserve_rehashNCINvNtB8_3map11make_hasherBQ_uNtCsej5P1MWAjDV_10rustc_hash13FxBuildHasherE0ECs4DnJvQYATGa_19rustc_mir_transform
librustc_driver-fa31e2489381cd18.so:_RINvMs6_NtCs95Vga1zx3Wm_9hashbrown3rawINtB6_8RawTableTNtNtCs8svpH8FC8uE_13rustc_session10code_stats12TypeSizeInfouEE14reserve_rehashNCINvNtB8_3map11make_hasherBQ_uNtCsej5P1MWAjDV_10rustc_hash13FxBuildHasherE0ECsbmrvFwx9VJk_14rustc_ty_utils
librustc_driver-fa31e2489381cd18.so:_RINvMs6_NtCs95Vga1zx3Wm_9hashbrown3rawINtB6_8RawTableTNtNtCsaqNsllmwM5m_12rustc_middle2ty15CReaderCacheKeyNtBS_2TyEE14reserve_rehashNCINvNtB8_3map11make_hasherBQ_B1G_NtCsej5P1MWAjDV_10rustc_hash13FxBuildHasherE0EBU_
librustc_driver-fa31e2489381cd18.so:_RINvMs6_NtCs95Vga1zx3Wm_9hashbrown3rawINtB6_8RawTableTNtNtCsaqNsllmwM5m_12rustc_middle2ty2TyBQ_EE14reserve_rehashNCINvNtB8_3map11make_hasherBQ_BQ_NtCsej5P1MWAjDV_10rustc_hash13FxBuildHasherE0ECsfWGFs8tRit9_11rustc_infer
librustc_driver-fa31e2489381cd18.so:_RINvMs6_NtCs95Vga1zx3Wm_9hashbrown3rawINtB6_8RawTableTNtNtCsaqNsllmwM5m_12rustc_middle2ty2TyINtCslW4GKQywboC_8smallvec8SmallVecABQ_j4_EEE14reserve_rehashNCINvNtB8_3map11make_hasherBQ_B1s_NtCsej5P1MWAjDV_10rustc_hash13FxBuildHasherE0ECs4DnJvQYATGa_19rustc_mir_transform
librustc_driver-fa31e2489381cd18.so:_RINvMs6_NtCs95Vga1zx3Wm_9hashbrown3rawINtB6_8RawTableTNtNtCsaqNsllmwM5m_12rustc_middle2ty2TyNtNtNtBU_3mir9interpret7AllocIdEE14reserve_rehashNCINvNtB8_3map11make_hasherBQ_B1s_NtCsej5P1MWAjDV_10rustc_hash13FxBuildHasherE0ECs4DnJvQYATGa_19rustc_mir_transform
librustc_driver-fa31e2489381cd18.so:_RINvMs6_NtCs95Vga1zx3Wm_9hashbrown3rawINtB6_8RawTableTNtNtCsaqNsllmwM5m_12rustc_middle2ty2TyNtNtNtCs7RlYbh05zWS_16rustc_const_eval9interpret8validity8RangeSetEE14reserve_rehashNCINvNtB8_3map11make_hasherBQ_B1s_NtCsej5P1MWAjDV_10rustc_hash13FxBuildHasherE0EB1y_
librustc_driver-fa31e2489381cd18.so:_RINvMs6_NtCs95Vga1zx3Wm_9hashbrown3rawINtB6_8RawTableTNtNtCsaqNsllmwM5m_12rustc_middle2ty2TyRNtNtNtCsirwAroatyKs_18rustc_codegen_llvm4llvm3ffi4TypeEE14reserve_rehashNCINvNtB8_3map11make_hasherBQ_B1s_NtCsej5P1MWAjDV_10rustc_hash13FxBuildHasherE0EB1z_
librustc_driver-fa31e2489381cd18.so:_RINvMs6_NtCs95Vga1zx3Wm_9hashbrown3rawINtB6_8RawTableTNtNtCsaqNsllmwM5m_12rustc_middle2ty2TyjEE14reserve_rehashNCINvNtB8_3map11make_hasherBQ_jNtCsej5P1MWAjDV_10rustc_hash13FxBuildHasherE0EBU_
librustc_driver-fa31e2489381cd18.so:_RINvMs6_NtCs95Vga1zx3Wm_9hashbrown3rawINtB6_8RawTableTNtNtCsaqNsllmwM5m_12rustc_middle2ty2TyuEE14reserve_rehashNCINvNtB8_3map11make_hasherBQ_uNtCsej5P1MWAjDV_10rustc_hash13FxBuildHasherE0EBU_
librustc_driver-fa31e2489381cd18.so:_RINvMs6_NtCs95Vga1zx3Wm_9hashbrown3rawINtB6_8RawTableTNtNtCsaqNsllmwM5m_12rustc_middle2ty4TermuEE14reserve_rehashNCINvNtB8_3map11make_hasherBQ_uNtCsej5P1MWAjDV_10rustc_hash13FxBuildHasherE0ECs7ZgcGxgGJUk_21rustc_trait_selection
librustc_driver-fa31e2489381cd18.so:_RINvMs6_NtCs95Vga1zx3Wm_9hashbrown3rawINtB6_8RawTableTNtNtCsaqNsllmwM5m_12rustc_middle2ty8ParamEnvINtNtCsbByapOItfY5_13rustc_type_ir9canonical27CanonicalParamEnvCacheEntryNtNtBS_7context6TyCtxtEEE14reserve_rehashNCINvNtB8_3map11make_hasherBQ_B1y_NtCsej5P1MWAjDV_10rustc_hash13FxBuildHasherE0ECs7ZgcGxgGJUk_21rustc_trait_selection
librustc_driver-fa31e2489381cd18.so:_RINvMs6_NtCs95Vga1zx3Wm_9hashbrown3rawINtB6_8RawTableTNtNtCsaqNsllmwM5m_12rustc_middle2ty8ParamEnvTINtNtCsbByapOItfY5_13rustc_type_ir9canonical9CanonicalNtNtBS_7context6TyCtxtBQ_ERSNtNtBS_12generic_args10GenericArgEEE14reserve_rehashNCINvNtB8_3map11make_hasherBQ_B1y_NtCsej5P1MWAjDV_10rustc_hash13FxBuildHasherE0EBU_
librustc_driver-fa31e2489381cd18.so:_RINvMs6_NtCs95Vga1zx3Wm_9hashbrown3rawINtB6_8RawTableTNtNtCsaqNsllmwM5m_12rustc_middle3mir10BasicBlockBQ_EE14reserve_rehashNCINvNtB8_3map11make_hasherBQ_BQ_NtCsej5P1MWAjDV_10rustc_hash13FxBuildHasherE0ECs4DnJvQYATGa_19rustc_mir_transform
librustc_driver-fa31e2489381cd18.so:_RINvMs6_NtCs95Vga1zx3Wm_9hashbrown3rawINtB6_8RawTableTNtNtCsaqNsllmwM5m_12rustc_middle3mir10BasicBlockINtNtCsgvX44DZTN43_5alloc2rc2RcINtNtCs6e3rAaajRpB_4core4cell7RefCellINtNtCs26SsCXMViOp_11rustc_index7bit_set11MixedBitSetNtNtCs8Oewc4Z7MhZ_18rustc_mir_dataflow10move_paths13MovePathIndexEEEEE14reserve_rehashNCINvNtB8_3map11make_hasherBQ_B1C_NtCsej5P1MWAjDV_10rustc_hash13FxBuildHasherE0ECs4DnJvQYATGa_19rustc_mir_transform
librustc_driver-fa31e2489381cd18.so:_RINvMs6_NtCs95Vga1zx3Wm_9hashbrown3rawINtB6_8RawTableTNtNtCsaqNsllmwM5m_12rustc_middle3mir10BasicBlockNtNtBS_6syntax14TerminatorKindEE14reserve_rehashNCINvNtB8_3map11make_hasherBQ_B1C_NtCsej5P1MWAjDV_10rustc_hash13FxBuildHasherE0ECs4DnJvQYATGa_19rustc_mir_transform
librustc_driver-fa31e2489381cd18.so:_RINvMs6_NtCs95Vga1zx3Wm_9hashbrown3rawINtB6_8RawTableTNtNtCsaqNsllmwM5m_12rustc_middle3mir10BasicBlockuEE14reserve_rehashNCINvNtB8_3map11make_hasherBQ_uNtCsej5P1MWAjDV_10rustc_hash13FxBuildHasherE0EBU_
librustc_driver-fa31e2489381cd18.so:_RINvMs6_NtCs95Vga1zx3Wm_9hashbrown3rawINtB6_8RawTableTNtNtCsaqNsllmwM5m_12rustc_middle3mir10BasicBlockyEE14reserve_rehashNCINvNtB8_3map11make_hasherBQ_yNtCsej5P1MWAjDV_10rustc_hash13FxBuildHasherE0ECs4DnJvQYATGa_19rustc_mir_transform
librustc_driver-fa31e2489381cd18.so:_RINvMs6_NtCs95Vga1zx3Wm_9hashbrown3rawINtB6_8RawTableTNtNtCsaqNsllmwM5m_12rustc_middle3mir11SourceScopeINtNtCsgvX44DZTN43_5alloc3vec3VecBQ_EEE14reserve_rehashNCINvNtB8_3map11make_hasherBQ_B1D_NtCsej5P1MWAjDV_10rustc_hash13FxBuildHasherE0EBU_
librustc_driver-fa31e2489381cd18.so:_RINvMs6_NtCs95Vga1zx3Wm_9hashbrown3rawINtB6_8RawTableTNtNtCsaqNsllmwM5m_12rustc_middle3mir13MentionedItemuEE14reserve_rehashNCINvNtB8_3map11make_hasherBQ_uNtCsej5P1MWAjDV_10rustc_hash13FxBuildHasherE0ECs1yK2jRAc0XL_18rustc_monomorphize
librustc_driver-fa31e2489381cd18.so:_RINvMs6_NtCs95Vga1zx3Wm_9hashbrown3rawINtB6_8RawTableTNtNtCsaqNsllmwM5m_12rustc_middle3mir5LocalINtNtCsgvX44DZTN43_5alloc3vec3VecNtNtBS_9statement8PlaceRefEEE14reserve_rehashNCINvNtB8_3map11make_hasherBQ_B1w_NtCsej5P1MWAjDV_10rustc_hash13FxBuildHasherE0ECs8Oewc4Z7MhZ_18rustc_mir_dataflow
librustc_driver-fa31e2489381cd18.so:_RINvMs6_NtCs95Vga1zx3Wm_9hashbrown3rawINtB6_8RawTableTNtNtCsaqNsllmwM5m_12rustc_middle3mir5LocaluEE14reserve_rehashNCINvNtB8_3map11make_hasherBQ_uNtCsej5P1MWAjDV_10rustc_hash13FxBuildHasherE0ECs7RlYbh05zWS_16rustc_const_eval
librustc_driver-fa31e2489381cd18.so:_RINvMs6_NtCs95Vga1zx3Wm_9hashbrown3rawINtB6_8RawTableTNtNtCsaqNsllmwM5m_12rustc_middle3mir5LocaluEE14reserve_rehashNCINvNtB8_3map11make_hasherBQ_uNtCsej5P1MWAjDV_10rustc_hash13FxBuildHasherE0ECsl5MakceMktk_14rustc_borrowck
librustc_driver-fa31e2489381cd18.so:_RINvMs6_NtCs95Vga1zx3Wm_9hashbrown3rawINtB6_8RawTableTNtNtCsaqNsllmwM5m_12rustc_middle3mir8LocationNtNtBS_6consts5ConstEE14reserve_rehashNCINvNtB8_3map11make_hasherBQ_B1z_NtCsej5P1MWAjDV_10rustc_hash13FxBuildHasherE0ECs4DnJvQYATGa_19rustc_mir_transform
librustc_driver-fa31e2489381cd18.so:_RINvMs6_NtCs95Vga1zx3Wm_9hashbrown3rawINtB6_8RawTableTNtNtCsaqNsllmwM5m_12rustc_middle3mir8LocationuEE14reserve_rehashNCINvNtB8_3map11make_hasherBQ_uNtCsej5P1MWAjDV_10rustc_hash13FxBuildHasherE0ECs4DnJvQYATGa_19rustc_mir_transform
librustc_driver-fa31e2489381cd18.so:_RINvMs6_NtCs95Vga1zx3Wm_9hashbrown3rawINtB6_8RawTableTNtNtCsaqNsllmwM5m_12rustc_middle4mono8MonoItemINtNtCsgvX44DZTN43_5alloc3vec3VecBQ_EEE14reserve_rehashNCINvNtB8_3map11make_hasherBQ_B1A_NtCsej5P1MWAjDV_10rustc_hash13FxBuildHasherE0ECs1yK2jRAc0XL_18rustc_monomorphize
librustc_driver-fa31e2489381cd18.so:_RINvMs6_NtCs95Vga1zx3Wm_9hashbrown3rawINtB6_8RawTableTNtNtCsaqNsllmwM5m_12rustc_middle4mono8MonoItemINtNtCsgvX44DZTN43_5alloc3vec3VecTNtNtCsiP3zVQcHmFl_10rustc_span6symbol6SymbolNtNtNtCs3KflAWMuICG_9rustc_hir5attrs15data_structures7LinkageEEEE14reserve_rehashNCINvNtB8_3map11make_hasherBQ_B1A_NtCsej5P1MWAjDV_10rustc_hash13FxBuildHasherE0ECs1yK2jRAc0XL_18rustc_monomorphize
librustc_driver-fa31e2489381cd18.so:_RINvMs6_NtCs95Vga1zx3Wm_9hashbrown3rawINtB6_8RawTableTNtNtCsaqNsllmwM5m_12rustc_middle4mono8MonoItemNtNvNtCs1yK2jRAc0XL_18rustc_monomorphize12partitioning19internalize_symbols17MonoItemPlacementEE14reserve_rehashNCINvNtB8_3map11make_hasherBQ_B1A_NtCsej5P1MWAjDV_10rustc_hash13FxBuildHasherE0EB1G_
librustc_driver-fa31e2489381cd18.so:_RINvMs6_NtCs95Vga1zx3Wm_9hashbrown3rawINtB6_8RawTableTNtNtCsaqNsllmwM5m_12rustc_middle4mono8MonoItemuEE14reserve_rehashNCINvNtB8_3map11make_hasherBQ_uNtCsej5P1MWAjDV_10rustc_hash13FxBuildHasherE0ECs1yK2jRAc0XL_18rustc_monomorphize
librustc_driver-fa31e2489381cd18.so:_RINvMs6_NtCs95Vga1zx3Wm_9hashbrown3rawINtB6_8RawTableTNtNtCsaqNsllmwM5m_12rustc_middle4thir10LocalVarIdNtNtBU_3mir10BasicBlockEE14reserve_rehashNCINvNtB8_3map11make_hasherBQ_B1D_NtCsej5P1MWAjDV_10rustc_hash13FxBuildHasherE0ECsPGgg1SovgA_15rustc_mir_build
librustc_driver-fa31e2489381cd18.so:_RINvMs6_NtCs95Vga1zx3Wm_9hashbrown3rawINtB6_8RawTableTNtNtCsaqNsllmwM5m_12rustc_middle4thir10LocalVarIdNtNtBU_3mir5LocalEE14reserve_rehashNCINvNtB8_3map11make_hasherBQ_B1D_NtCsej5P1MWAjDV_10rustc_hash13FxBuildHasherE0ECsPGgg1SovgA_15rustc_mir_build
librustc_driver-fa31e2489381cd18.so:_RINvMs6_NtCs95Vga1zx3Wm_9hashbrown3rawINtB6_8RawTableTNtNtCsaqNsllmwM5m_12rustc_middle4thir10LocalVarIdNtNtCsPGgg1SovgA_15rustc_mir_build7builder13LocalsForNodeEE14reserve_rehashNCINvNtB8_3map11make_hasherBQ_B1D_NtCsej5P1MWAjDV_10rustc_hash13FxBuildHasherE0EB1H_
librustc_driver-fa31e2489381cd18.so:_RINvMs6_NtCs95Vga1zx3Wm_9hashbrown3rawINtB6_8RawTableTNtNtCsaqNsllmwM5m_12rustc_middle4thir6ExprIdNtNtBU_3mir5LocalEE14reserve_rehashNCINvNtB8_3map11make_hasherBQ_B1y_NtCsej5P1MWAjDV_10rustc_hash13FxBuildHasherE0ECsPGgg1SovgA_15rustc_mir_build
librustc_driver-fa31e2489381cd18.so:_RINvMs6_NtCs95Vga1zx3Wm_9hashbrown3rawINtB6_8RawTableTNtNtCsaqNsllmwM5m_12rustc_middle4thir6ExprIdNtNtNtCsPGgg1SovgA_15rustc_mir_build7builder12coverageinfo7NotInfoEE14reserve_rehashNCINvNtB8_3map11make_hasherBQ_B1y_NtCsej5P1MWAjDV_10rustc_hash13FxBuildHasherE0EB1E_
librustc_driver-fa31e2489381cd18.so:_RINvMs6_NtCs95Vga1zx3Wm_9hashbrown3rawINtB6_8RawTableTNtNtCsav1H3vpqo2t_17rustc_thread_pool3job8JobRefIduEE14reserve_rehashNCINvNtB8_3map11make_hasherBQ_uNtNtNtCskurZfFSl0zB_3std4hash6random11RandomStateE0ECshmntTYxeqYP_21rustc_data_structures
librustc_driver-fa31e2489381cd18.so:_RINvMs6_NtCs95Vga1zx3Wm_9hashbrown3rawINtB6_8RawTableTNtNtCsb0NW3Zcr2eh_22rustc_pattern_analysis3pat5PatIdINtNtBU_10usefulness19BranchPatUsefulnessNtNtBU_5rustc12RustcPatCtxtEEE14reserve_rehashNCINvNtB8_3map11make_hasherBQ_B1G_NtCsej5P1MWAjDV_10rustc_hash13FxBuildHasherE0EBU_
librustc_driver-fa31e2489381cd18.so:_RINvMs6_NtCs95Vga1zx3Wm_9hashbrown3rawINtB6_8RawTableTNtNtCsbByapOItfY5_13rustc_type_ir10const_kind10InferConstNtNtNtCsaqNsllmwM5m_12rustc_middle2ty6consts5ConstEE14reserve_rehashNCINvNtB8_3map11make_hasherBQ_B1L_NtCsej5P1MWAjDV_10rustc_hash13FxBuildHasherE0ECsfWGFs8tRit9_11rustc_infer
librustc_driver-fa31e2489381cd18.so:_RINvMs6_NtCs95Vga1zx3Wm_9hashbrown3rawINtB6_8RawTableTNtNtCsbByapOItfY5_13rustc_type_ir11region_kind9RegionVidINtNtCs7KwMrq602nF_8indexmap3set8IndexSetBQ_NtCsej5P1MWAjDV_10rustc_hash13FxBuildHasherEEE14reserve_rehashNCINvNtB8_3map11make_hasherBQ_B1K_B2s_E0ECsl5MakceMktk_14rustc_borrowck
librustc_driver-fa31e2489381cd18.so:_RINvMs6_NtCs95Vga1zx3Wm_9hashbrown3rawINtB6_8RawTableTNtNtCsbByapOItfY5_13rustc_type_ir11region_kind9RegionViduEE14reserve_rehashNCINvNtB8_3map11make_hasherBQ_uNtCsej5P1MWAjDV_10rustc_hash13FxBuildHasherE0ECsfWGFs8tRit9_11rustc_infer
librustc_driver-fa31e2489381cd18.so:_RINvMs6_NtCs95Vga1zx3Wm_9hashbrown3rawINtB6_8RawTableTNtNtCsbByapOItfY5_13rustc_type_ir7ty_kind5TyVidTNtCs6ahoKXGLX5z_12rustc_hir_id5HirIdNtNtCsiP3zVQcHmFl_10rustc_span13span_encoding4SpanNtNtCs6qKlvMSJCFB_16rustc_hir_typeck8fallback15UnsafeUseReasonEEE14reserve_rehashNCINvNtB8_3map11make_hasherBQ_B1B_NtCsej5P1MWAjDV_10rustc_hash13FxBuildHasherE0EB34_
librustc_driver-fa31e2489381cd18.so:_RINvMs6_NtCs95Vga1zx3Wm_9hashbrown3rawINtB6_8RawTableTNtNtCsbByapOItfY5_13rustc_type_ir7ty_kind5TyVidjEE14reserve_rehashNCINvNtB8_3map11make_hasherBQ_jNtCsej5P1MWAjDV_10rustc_hash13FxBuildHasherE0ECsfWGFs8tRit9_11rustc_infer
librustc_driver-fa31e2489381cd18.so:_RINvMs6_NtCs95Vga1zx3Wm_9hashbrown3rawINtB6_8RawTableTNtNtCsbByapOItfY5_13rustc_type_ir7ty_kind5TyViduEE14reserve_rehashNCINvNtB8_3map11make_hasherBQ_uNtCsej5P1MWAjDV_10rustc_hash13FxBuildHasherE0ECs6qKlvMSJCFB_16rustc_hir_typeck
librustc_driver-fa31e2489381cd18.so:_RINvMs6_NtCs95Vga1zx3Wm_9hashbrown3rawINtB6_8RawTableTNtNtCsbByapOItfY5_13rustc_type_ir7ty_kind7InferTyNtNtCsaqNsllmwM5m_12rustc_middle2ty2TyEE14reserve_rehashNCINvNtB8_3map11make_hasherBQ_B1D_NtCsej5P1MWAjDV_10rustc_hash13FxBuildHasherE0ECsfWGFs8tRit9_11rustc_infer
librustc_driver-fa31e2489381cd18.so:_RINvMs6_NtCs95Vga1zx3Wm_9hashbrown3rawINtB6_8RawTableTNtNtCsbByapOItfY5_13rustc_type_ir7ty_kind8FloatViduEE14reserve_rehashNCINvNtB8_3map11make_hasherBQ_uNtCsej5P1MWAjDV_10rustc_hash13FxBuildHasherE0ECs6qKlvMSJCFB_16rustc_hir_typeck
librustc_driver-fa31e2489381cd18.so:_RINvMs6_NtCs95Vga1zx3Wm_9hashbrown3rawINtB6_8RawTableTNtNtCscUPtgnKeETP_18rustc_hir_analysis26constrained_generic_params9ParameteruEE14reserve_rehashNCINvNtB8_3map11make_hasherBQ_uNtCsej5P1MWAjDV_10rustc_hash13FxBuildHasherE0EBU_
librustc_driver-fa31e2489381cd18.so:_RINvMs6_NtCs95Vga1zx3Wm_9hashbrown3rawINtB6_8RawTableTNtNtCsd482UFdOvTO_9rustc_ast7node_id6NodeIdBQ_EE14reserve_rehashNCINvNtB8_3map11make_hasherBQ_BQ_NtCsej5P1MWAjDV_10rustc_hash13FxBuildHasherE0ECs3VMMNsKb80B_13rustc_resolve
librustc_driver-fa31e2489381cd18.so:_RINvMs6_NtCs95Vga1zx3Wm_9hashbrown3rawINtB6_8RawTableTNtNtCsd482UFdOvTO_9rustc_ast7node_id6NodeIdBQ_EE14reserve_rehashNCINvNtB8_3map11make_hasherBQ_BQ_NtCsej5P1MWAjDV_10rustc_hash13FxBuildHasherE0ECs6UwPWeCye2U_18rustc_ast_lowering
librustc_driver-fa31e2489381cd18.so:_RINvMs6_NtCs95Vga1zx3Wm_9hashbrown3rawINtB6_8RawTableTNtNtCsd482UFdOvTO_9rustc_ast7node_id6NodeIdINtNtCs3KflAWMuICG_9rustc_hir3def5PerNSINtNtCs6e3rAaajRpB_4core6option6OptionINtB1A_3ResBQ_EEEEE14reserve_rehashNCINvNtB8_3map11make_hasherBQ_B1x_NtCsej5P1MWAjDV_10rustc_hash13FxBuildHasherE0ECs3VMMNsKb80B_13rustc_resolve
librustc_driver-fa31e2489381cd18.so:_RINvMs6_NtCs95Vga1zx3Wm_9hashbrown3rawINtB6_8RawTableTNtNtCsd482UFdOvTO_9rustc_ast7node_id6NodeIdINtNtCsgvX44DZTN43_5alloc3vec3VecTNtNtCsiP3zVQcHmFl_10rustc_span6symbol5IdentBQ_NtNtCs3KflAWMuICG_9rustc_hir3def11LifetimeResEEEE14reserve_rehashNCINvNtB8_3map11make_hasherBQ_B1x_NtCsej5P1MWAjDV_10rustc_hash13FxBuildHasherE0ECs3VMMNsKb80B_13rustc_resolve
librustc_driver-fa31e2489381cd18.so:_RINvMs6_NtCs95Vga1zx3Wm_9hashbrown3rawINtB6_8RawTableTNtNtCsd482UFdOvTO_9rustc_ast7node_id6NodeIdNtCs3VMMNsKb80B_13rustc_resolve11LocalModuleEE14reserve_rehashNCINvNtB8_3map11make_hasherBQ_B1x_NtCsej5P1MWAjDV_10rustc_hash13FxBuildHasherE0EB1z_
librustc_driver-fa31e2489381cd18.so:_RINvMs6_NtCs95Vga1zx3Wm_9hashbrown3rawINtB6_8RawTableTNtNtCsd482UFdOvTO_9rustc_ast7node_id6NodeIdNtCs6ahoKXGLX5z_12rustc_hir_id11ItemLocalIdEE14reserve_rehashNCINvNtB8_3map11make_hasherBQ_B1x_NtCsej5P1MWAjDV_10rustc_hash13FxBuildHasherE0ECs6UwPWeCye2U_18rustc_ast_lowering
librustc_driver-fa31e2489381cd18.so:_RINvMs6_NtCs95Vga1zx3Wm_9hashbrown3rawINtB6_8RawTableTNtNtCsd482UFdOvTO_9rustc_ast7node_id6NodeIdNtNtCs1ufPwUoOuD2_10rustc_lint6unused17NoBoundsExceptionEE14reserve_rehashNCINvNtB8_3map11make_hasherBQ_B1x_NtCsej5P1MWAjDV_10rustc_hash13FxBuildHasherE0EB1B_
librustc_driver-fa31e2489381cd18.so:_RINvMs6_NtCs95Vga1zx3Wm_9hashbrown3rawINtB6_8RawTableTNtNtCsd482UFdOvTO_9rustc_ast7node_id6NodeIdNtNtCs3KflAWMuICG_9rustc_hir3def10PartialResEE14reserve_rehashNCINvNtB8_3map11make_hasherBQ_B1x_NtCsej5P1MWAjDV_10rustc_hash13FxBuildHasherE0ECs3VMMNsKb80B_13rustc_resolve
librustc_driver-fa31e2489381cd18.so:_RINvMs6_NtCs95Vga1zx3Wm_9hashbrown3rawINtB6_8RawTableTNtNtCsd482UFdOvTO_9rustc_ast7node_id6NodeIdNtNtCs3KflAWMuICG_9rustc_hir3def11LifetimeResEE14reserve_rehashNCINvNtB8_3map11make_hasherBQ_B1x_NtCsej5P1MWAjDV_10rustc_hash13FxBuildHasherE0ECs3VMMNsKb80B_13rustc_resolve
librustc_driver-fa31e2489381cd18.so:_RINvMs6_NtCs95Vga1zx3Wm_9hashbrown3rawINtB6_8RawTableTNtNtCsd482UFdOvTO_9rustc_ast7node_id6NodeIdNtNtCs785ZPy54HPh_12rustc_expand6expand11AstFragmentEE14reserve_rehashNCINvNtB8_3map11make_hasherBQ_B1x_NtCsej5P1MWAjDV_10rustc_hash13FxBuildHasherE0EB1B_
librustc_driver-fa31e2489381cd18.so:_RINvMs6_NtCs95Vga1zx3Wm_9hashbrown3rawINtB6_8RawTableTNtNtCsd482UFdOvTO_9rustc_ast7node_id6NodeIdNtNtCsaqNsllmwM5m_12rustc_middle2ty20PerOwnerResolverDataEE14reserve_rehashNCINvNtB8_3map11make_hasherBQ_B1x_NtCsej5P1MWAjDV_10rustc_hash13FxBuildHasherE0ECs3VMMNsKb80B_13rustc_resolve
librustc_driver-fa31e2489381cd18.so:_RINvMs6_NtCs95Vga1zx3Wm_9hashbrown3rawINtB6_8RawTableTNtNtCsd482UFdOvTO_9rustc_ast7node_id6NodeIdNtNtCsiP3zVQcHmFl_10rustc_span13span_encoding4SpanEE14reserve_rehashNCINvNtB8_3map11make_hasherBQ_B1x_NtCsej5P1MWAjDV_10rustc_hash13FxBuildHasherE0ECs3VMMNsKb80B_13rustc_resolve
librustc_driver-fa31e2489381cd18.so:_RINvMs6_NtCs95Vga1zx3Wm_9hashbrown3rawINtB6_8RawTableTNtNtCsd482UFdOvTO_9rustc_ast7node_id6NodeIdNtNtCsiP3zVQcHmFl_10rustc_span6def_id10LocalDefIdEE14reserve_rehashNCINvNtB8_3map11make_hasherBQ_B1x_NtCsej5P1MWAjDV_10rustc_hash13FxBuildHasherE0ECs3VMMNsKb80B_13rustc_resolve
librustc_driver-fa31e2489381cd18.so:_RINvMs6_NtCs95Vga1zx3Wm_9hashbrown3rawINtB6_8RawTableTNtNtCsd482UFdOvTO_9rustc_ast7node_id6NodeIdNtNtCsiP3zVQcHmFl_10rustc_span6def_id10LocalDefIdEE14reserve_rehashNCINvNtB8_3map11make_hasherBQ_B1x_NtCsej5P1MWAjDV_10rustc_hash13FxBuildHasherE0ECs6UwPWeCye2U_18rustc_ast_lowering
librustc_driver-fa31e2489381cd18.so:_RINvMs6_NtCs95Vga1zx3Wm_9hashbrown3rawINtB6_8RawTableTNtNtCsd482UFdOvTO_9rustc_ast7node_id6NodeIdNtNtCsiP3zVQcHmFl_10rustc_span6symbol6SymbolEE14reserve_rehashNCINvNtB8_3map11make_hasherBQ_B1x_NtCsej5P1MWAjDV_10rustc_hash13FxBuildHasherE0ECs3VMMNsKb80B_13rustc_resolve
librustc_driver-fa31e2489381cd18.so:_RINvMs6_NtCs95Vga1zx3Wm_9hashbrown3rawINtB6_8RawTableTNtNtCsd482UFdOvTO_9rustc_ast7node_id6NodeIdRNtNtBU_3ast4ExprEE14reserve_rehashNCINvNtB8_3map11make_hasherBQ_B1x_NtCsej5P1MWAjDV_10rustc_hash13FxBuildHasherE0ECs6UwPWeCye2U_18rustc_ast_lowering
librustc_driver-fa31e2489381cd18.so:_RINvMs6_NtCs95Vga1zx3Wm_9hashbrown3rawINtB6_8RawTableTNtNtCsd482UFdOvTO_9rustc_ast7node_id6NodeIdRSNtNtCs3KflAWMuICG_9rustc_hir3hir14TraitCandidateEE14reserve_rehashNCINvNtB8_3map11make_hasherBQ_B1x_NtCsej5P1MWAjDV_10rustc_hash13FxBuildHasherE0ECs3VMMNsKb80B_13rustc_resolve
librustc_driver-fa31e2489381cd18.so:_RINvMs6_NtCs95Vga1zx3Wm_9hashbrown3rawINtB6_8RawTableTNtNtCsd482UFdOvTO_9rustc_ast7node_id6NodeIdTNtNtCsiP3zVQcHmFl_10rustc_span6symbol5IdentNtCs6ahoKXGLX5z_12rustc_hir_id5HirIdEEE14reserve_rehashNCINvNtB8_3map11make_hasherBQ_B1x_NtCsej5P1MWAjDV_10rustc_hash13FxBuildHasherE0ECs6UwPWeCye2U_18rustc_ast_lowering
librustc_driver-fa31e2489381cd18.so:_RINvMs6_NtCs95Vga1zx3Wm_9hashbrown3rawINtB6_8RawTableTNtNtCsd482UFdOvTO_9rustc_ast7node_id6NodeIdjEE14reserve_rehashNCINvNtB8_3map11make_hasherBQ_jNtCsej5P1MWAjDV_10rustc_hash13FxBuildHasherE0ECs3VMMNsKb80B_13rustc_resolve
librustc_driver-fa31e2489381cd18.so:_RINvMs6_NtCs95Vga1zx3Wm_9hashbrown3rawINtB6_8RawTableTNtNtCsd482UFdOvTO_9rustc_ast7node_id6NodeIduEE14reserve_rehashNCINvNtB8_3map11make_hasherBQ_uNtCsej5P1MWAjDV_10rustc_hash13FxBuildHasherE0ECs3VMMNsKb80B_13rustc_resolve
librustc_driver-fa31e2489381cd18.so:_RINvMs6_NtCs95Vga1zx3Wm_9hashbrown3rawINtB6_8RawTableTNtNtCsd482UFdOvTO_9rustc_ast7node_id6NodeIduEE14reserve_rehashNCINvNtB8_3map11make_hasherBQ_uNtCsej5P1MWAjDV_10rustc_hash13FxBuildHasherE0ECs6UwPWeCye2U_18rustc_ast_lowering
librustc_driver-fa31e2489381cd18.so:_RINvMs6_NtCs95Vga1zx3Wm_9hashbrown3rawINtB6_8RawTableTNtNtCsdRd0hdE2iPK_6object5write15StandardSectionNtBS_9SectionIdEE14reserve_rehashNCINvNtB8_3map11make_hasherBQ_B1C_NtNtNtCskurZfFSl0zB_3std4hash6random11RandomStateE0EBU_
librustc_driver-fa31e2489381cd18.so:_RINvMs6_NtCs95Vga1zx3Wm_9hashbrown3rawINtB6_8RawTableTNtNtCsdRd0hdE2iPK_6object5write8SymbolIdBQ_EE14reserve_rehashNCINvNtB8_3map11make_hasherBQ_BQ_NtNtNtCskurZfFSl0zB_3std4hash6random11RandomStateE0EBU_
librustc_driver-fa31e2489381cd18.so:_RINvMs6_NtCs95Vga1zx3Wm_9hashbrown3rawINtB6_8RawTableTNtNtCsdeppuzfODI3_9rustc_abi6layout8FieldIdxNtNtNtCsaqNsllmwM5m_12rustc_middle3mir6syntax7OperandEE14reserve_rehashNCINvNtB8_3map11make_hasherBQ_B1y_NtCsej5P1MWAjDV_10rustc_hash13FxBuildHasherE0ECsPGgg1SovgA_15rustc_mir_build
librustc_driver-fa31e2489381cd18.so:_RINvMs6_NtCs95Vga1zx3Wm_9hashbrown3rawINtB6_8RawTableTNtNtCsdeppuzfODI3_9rustc_abi6layout8FieldIdxTBQ_NtNtCsaqNsllmwM5m_12rustc_middle2ty2TybINtNtCsgvX44DZTN43_5alloc3vec3VecNtNtNtB1G_3hir5place10ProjectionEEEE14reserve_rehashNCINvNtB8_3map11make_hasherBQ_B1y_NtCsej5P1MWAjDV_10rustc_hash13FxBuildHasherE0ECs4DnJvQYATGa_19rustc_mir_transform
librustc_driver-fa31e2489381cd18.so:_RINvMs6_NtCs95Vga1zx3Wm_9hashbrown3rawINtB6_8RawTableTNtNtCsgEEFXYlDWVa_6thorin7package11DwarfObjectuEE14reserve_rehashNCINvNtB8_3map11make_hasherBQ_uNtNtNtCskurZfFSl0zB_3std4hash6random11RandomStateE0ECsg0ydQtPiXpO_17rustc_codegen_ssa
librustc_driver-fa31e2489381cd18.so:_RINvMs6_NtCs95Vga1zx3Wm_9hashbrown3rawINtB6_8RawTableTNtNtCsgvX44DZTN43_5alloc6string6StringBQ_EE14reserve_rehashNCINvNtB8_3map11make_hasherBQ_BQ_NtCsej5P1MWAjDV_10rustc_hash13FxBuildHasherE0ECslloyL1UMMzU_17rustc_incremental
librustc_driver-fa31e2489381cd18.so:_RINvMs6_NtCs95Vga1zx3Wm_9hashbrown3rawINtB6_8RawTableTNtNtCsgvX44DZTN43_5alloc6string6StringBQ_EE14reserve_rehashNCINvNtB8_3map11make_hasherBQ_BQ_NtNtNtCskurZfFSl0zB_3std4hash6random11RandomStateE0ECsirwAroatyKs_18rustc_codegen_llvm
librustc_driver-fa31e2489381cd18.so:_RINvMs6_NtCs95Vga1zx3Wm_9hashbrown3rawINtB6_8RawTableTNtNtCsgvX44DZTN43_5alloc6string6StringINtNtCs6e3rAaajRpB_4core6option6OptionBQ_EEE14reserve_rehashNCINvNtB8_3map11make_hasherBQ_B1s_NtCsej5P1MWAjDV_10rustc_hash13FxBuildHasherE0ECslloyL1UMMzU_17rustc_incremental
librustc_driver-fa31e2489381cd18.so:_RINvMs6_NtCs95Vga1zx3Wm_9hashbrown3rawINtB6_8RawTableTNtNtCsgvX44DZTN43_5alloc6string6StringNtNtCs1ufPwUoOuD2_10rustc_lint7context10TargetLintEE14reserve_rehashNCINvNtB8_3map11make_hasherBQ_B1s_NtCsej5P1MWAjDV_10rustc_hash13FxBuildHasherE0EB1w_
librustc_driver-fa31e2489381cd18.so:_RINvMs6_NtCs95Vga1zx3Wm_9hashbrown3rawINtB6_8RawTableTNtNtCsgvX44DZTN43_5alloc6string6StringNtNtCs3scjADIeHPO_12rustc_target15target_features9StabilityEE14reserve_rehashNCINvNtB8_3map11make_hasherBQ_B1s_NtCsej5P1MWAjDV_10rustc_hash13FxBuildHasherE0ECs3XAq0Kofjci_15rustc_interface
librustc_driver-fa31e2489381cd18.so:_RINvMs6_NtCs95Vga1zx3Wm_9hashbrown3rawINtB6_8RawTableTNtNtCsgvX44DZTN43_5alloc6string6StringNtNtCsdTC0bWj9Btn_13fluent_bundle5entry5EntryEE14reserve_rehashNCINvNtB8_3map11make_hasherBQ_B1s_NtCsej5P1MWAjDV_10rustc_hash13FxBuildHasherE0ECsh8xpvZH2MPK_12rustc_errors
librustc_driver-fa31e2489381cd18.so:_RINvMs6_NtCs95Vga1zx3Wm_9hashbrown3rawINtB6_8RawTableTNtNtCsgvX44DZTN43_5alloc6string6StringNtNtCsg0ydQtPiXpO_17rustc_codegen_ssa21assert_module_sources8CguReuseEE14reserve_rehashNCINvNtB8_3map11make_hasherBQ_B1s_NtCsej5P1MWAjDV_10rustc_hash13FxBuildHasherE0EB1w_
librustc_driver-fa31e2489381cd18.so:_RINvMs6_NtCs95Vga1zx3Wm_9hashbrown3rawINtB6_8RawTableTNtNtCsgvX44DZTN43_5alloc6string6StringNtNtCsiflJ6ENogzZ_9measureme11stringtable8StringIdEE14reserve_rehashNCINvNtB8_3map11make_hasherBQ_B1s_NtCsej5P1MWAjDV_10rustc_hash13FxBuildHasherE0ECshmntTYxeqYP_21rustc_data_structures
librustc_driver-fa31e2489381cd18.so:_RINvMs6_NtCs95Vga1zx3Wm_9hashbrown3rawINtB6_8RawTableTNtNtCsgvX44DZTN43_5alloc6string6StringNtNtNtCsaqNsllmwM5m_12rustc_middle9dep_graph5graph11WorkProductEE14reserve_rehashNCINvNtB8_3map11make_hasherBQ_B1s_NtCsej5P1MWAjDV_10rustc_hash13FxBuildHasherE0ECsirwAroatyKs_18rustc_codegen_llvm
librustc_driver-fa31e2489381cd18.so:_RINvMs6_NtCs95Vga1zx3Wm_9hashbrown3rawINtB6_8RawTableTNtNtCsgvX44DZTN43_5alloc6string6StringNtNtNtCsirwAroatyKs_18rustc_codegen_llvm7builder11gpu_offload20OffloadKernelGlobalsEE14reserve_rehashNCINvNtB8_3map11make_hasherBQ_B1s_NtCsej5P1MWAjDV_10rustc_hash13FxBuildHasherE0EB1y_
librustc_driver-fa31e2489381cd18.so:_RINvMs6_NtCs95Vga1zx3Wm_9hashbrown3rawINtB6_8RawTableTNtNtCsgvX44DZTN43_5alloc6string6StringRNtNtNtCsirwAroatyKs_18rustc_codegen_llvm4llvm3ffi5ValueEE14reserve_rehashNCINvNtB8_3map11make_hasherBQ_B1s_NtCsej5P1MWAjDV_10rustc_hash13FxBuildHasherE0EB1z_
librustc_driver-fa31e2489381cd18.so:_RINvMs6_NtCs95Vga1zx3Wm_9hashbrown3rawINtB6_8RawTableTNtNtCsgvX44DZTN43_5alloc6string6StringTBQ_NtNtCsiP3zVQcHmFl_10rustc_span13span_encoding4SpanNtNtCsg0ydQtPiXpO_17rustc_codegen_ssa21assert_module_sources8CguReuseNtB2m_14ComparisonKindEEE14reserve_rehashNCINvNtB8_3map11make_hasherBQ_B1s_NtCsej5P1MWAjDV_10rustc_hash13FxBuildHasherE0EB2o_
librustc_driver-fa31e2489381cd18.so:_RINvMs6_NtCs95Vga1zx3Wm_9hashbrown3rawINtB6_8RawTableTNtNtCsgvX44DZTN43_5alloc6string6StringuEE14reserve_rehashNCINvNtB8_3map11make_hasherBQ_uNtCsej5P1MWAjDV_10rustc_hash13FxBuildHasherE0ECs7ZgcGxgGJUk_21rustc_trait_selection
librustc_driver-fa31e2489381cd18.so:_RINvMs6_NtCs95Vga1zx3Wm_9hashbrown3rawINtB6_8RawTableTNtNtCsgvX44DZTN43_5alloc6string6StringuEE14reserve_rehashNCINvNtB8_3map11make_hasherBQ_uNtCsej5P1MWAjDV_10rustc_hash13FxBuildHasherE0ECsi5AUwtDDe5b_20rustc_builtin_macros
librustc_driver-fa31e2489381cd18.so:_RINvMs6_NtCs95Vga1zx3Wm_9hashbrown3rawINtB6_8RawTableTNtNtCsgvX44DZTN43_5alloc6string6StringuEE14reserve_rehashNCINvNtB8_3map11make_hasherBQ_uNtCsej5P1MWAjDV_10rustc_hash13FxBuildHasherE0ECslloyL1UMMzU_17rustc_incremental
librustc_driver-fa31e2489381cd18.so:_RINvMs6_NtCs95Vga1zx3Wm_9hashbrown3rawINtB6_8RawTableTNtNtCsh8xpvZH2MPK_12rustc_errors5codes7ErrCodeReEE14reserve_rehashNCINvNtB8_3map11make_hasherBQ_B1A_NtCsej5P1MWAjDV_10rustc_hash13FxBuildHasherE0EBU_
librustc_driver-fa31e2489381cd18.so:_RINvMs6_NtCs95Vga1zx3Wm_9hashbrown3rawINtB6_8RawTableTNtNtCsh8xpvZH2MPK_12rustc_errors5codes7ErrCodeuEE14reserve_rehashNCINvNtB8_3map11make_hasherBQ_uNtCsej5P1MWAjDV_10rustc_hash13FxBuildHasherE0EBU_
librustc_driver-fa31e2489381cd18.so:_RINvMs6_NtCs95Vga1zx3Wm_9hashbrown3rawINtB6_8RawTableTNtNtCsh8xpvZH2MPK_12rustc_errors7timings13TimingSectionuEE14reserve_rehashNCINvNtB8_3map11make_hasherBQ_uNtCsej5P1MWAjDV_10rustc_hash13FxBuildHasherE0EBU_
librustc_driver-fa31e2489381cd18.so:_RINvMs6_NtCs95Vga1zx3Wm_9hashbrown3rawINtB6_8RawTableTNtNtCshmntTYxeqYP_21rustc_data_structures11fingerprint17PackedFingerprintNtNtNtCsaqNsllmwM5m_12rustc_middle9dep_graph10serialized22SerializedDepNodeIndexEE14reserve_rehashNCINvNtB8_3map11make_hasherBQ_B21_INtNtCs6e3rAaajRpB_4core4hash18BuildHasherDefaultNtNtBU_6unhash8UnhasherEE0EB27_
librustc_driver-fa31e2489381cd18.so:_RINvMs6_NtCs95Vga1zx3Wm_9hashbrown3rawINtB6_8RawTableTNtNtCshmntTYxeqYP_21rustc_data_structures17obligation_forest16ObligationTreeIdINtNtNtNtCskurZfFSl0zB_3std11collections4hash3set7HashSetINtNtCsaqNsllmwM5m_12rustc_middle2ty11ParamEnvAndNtNtB34_9predicate9PredicateENtCsej5P1MWAjDV_10rustc_hash13FxBuildHasherEEE14reserve_rehashNCINvNtB8_3map11make_hasherBQ_B26_B4h_E0ECs7ZgcGxgGJUk_21rustc_trait_selection
librustc_driver-fa31e2489381cd18.so:_RINvMs6_NtCs95Vga1zx3Wm_9hashbrown3rawINtB6_8RawTableTNtNtCshmntTYxeqYP_21rustc_data_structures19transitive_relation4EdgeuEE14reserve_rehashNCINvNtB8_3map11make_hasherBQ_uNtCsej5P1MWAjDV_10rustc_hash13FxBuildHasherE0ECsfWGFs8tRit9_11rustc_infer
librustc_driver-fa31e2489381cd18.so:_RINvMs6_NtCs95Vga1zx3Wm_9hashbrown3rawINtB6_8RawTableTNtNtCsiIDEqBupP87_14pulldown_cmark7strings6CowStruEE14reserve_rehashNCINvNtB8_3map11make_hasherBQ_uNtCsej5P1MWAjDV_10rustc_hash13FxBuildHasherE0ECs3VMMNsKb80B_13rustc_resolve
librustc_driver-fa31e2489381cd18.so:_RINvMs6_NtCs95Vga1zx3Wm_9hashbrown3rawINtB6_8RawTableTNtNtCsiP3zVQcHmFl_10rustc_span13span_encoding4SpanBQ_EE14reserve_rehashNCINvNtB8_3map11make_hasherBQ_BQ_NtCsej5P1MWAjDV_10rustc_hash13FxBuildHasherE0EBU_
librustc_driver-fa31e2489381cd18.so:_RINvMs6_NtCs95Vga1zx3Wm_9hashbrown3rawINtB6_8RawTableTNtNtCsiP3zVQcHmFl_10rustc_span13span_encoding4SpanINtNtCs6e3rAaajRpB_4core6option6OptionNtNtNtCs785ZPy54HPh_12rustc_expand3mbe11macro_rules8TokenSetEEE14reserve_rehashNCINvNtB8_3map11make_hasherBQ_B1E_NtCsej5P1MWAjDV_10rustc_hash13FxBuildHasherE0EB2m_
librustc_driver-fa31e2489381cd18.so:_RINvMs6_NtCs95Vga1zx3Wm_9hashbrown3rawINtB6_8RawTableTNtNtCsiP3zVQcHmFl_10rustc_span13span_encoding4SpanTBQ_bEEE14reserve_rehashNCINvNtB8_3map11make_hasherBQ_B1E_NtCsej5P1MWAjDV_10rustc_hash13FxBuildHasherE0EBU_
librustc_driver-fa31e2489381cd18.so:_RINvMs6_NtCs95Vga1zx3Wm_9hashbrown3rawINtB6_8RawTableTNtNtCsiP3zVQcHmFl_10rustc_span13span_encoding4SpanjEE14reserve_rehashNCINvNtB8_3map11make_hasherBQ_jNtCsej5P1MWAjDV_10rustc_hash13FxBuildHasherE0ECs73ymBF2OK4c_14rustc_metadata
librustc_driver-fa31e2489381cd18.so:_RINvMs6_NtCs95Vga1zx3Wm_9hashbrown3rawINtB6_8RawTableTNtNtCsiP3zVQcHmFl_10rustc_span13span_encoding4SpanuEE14reserve_rehashNCINvNtB8_3map11make_hasherBQ_uNtCsej5P1MWAjDV_10rustc_hash13FxBuildHasherE0ECsPGgg1SovgA_15rustc_mir_build
librustc_driver-fa31e2489381cd18.so:_RINvMs6_NtCs95Vga1zx3Wm_9hashbrown3rawINtB6_8RawTableTNtNtCsiP3zVQcHmFl_10rustc_span13span_encoding4SpanuEE14reserve_rehashNCINvNtB8_3map11make_hasherBQ_uNtCsej5P1MWAjDV_10rustc_hash13FxBuildHasherE0ECscUPtgnKeETP_18rustc_hir_analysis
librustc_driver-fa31e2489381cd18.so:_RINvMs6_NtCs95Vga1zx3Wm_9hashbrown3rawINtB6_8RawTableTNtNtCsiP3zVQcHmFl_10rustc_span13span_encoding4SpanuEE14reserve_rehashNCINvNtB8_3map11make_hasherBQ_uNtCsej5P1MWAjDV_10rustc_hash13FxBuildHasherE0ECslloyL1UMMzU_17rustc_incremental
librustc_driver-fa31e2489381cd18.so:_RINvMs6_NtCs95Vga1zx3Wm_9hashbrown3rawINtB6_8RawTableTNtNtCsiP3zVQcHmFl_10rustc_span6def_id10LocalDefIdINtNtCs6e3rAaajRpB_4core6option6OptionNtCsl5MakceMktk_14rustc_borrowck25ClosureRegionRequirementsEEE14reserve_rehashNCINvNtB8_3map11make_hasherBQ_B1D_NtCsej5P1MWAjDV_10rustc_hash13FxBuildHasherE0EB2h_
librustc_driver-fa31e2489381cd18.so:_RINvMs6_NtCs95Vga1zx3Wm_9hashbrown3rawINtB6_8RawTableTNtNtCsiP3zVQcHmFl_10rustc_span6def_id10LocalDefIdINtNtCs7KwMrq602nF_8indexmap3map8IndexMapNtCs6ahoKXGLX5z_12rustc_hir_id5HirIdINtNtCsgvX44DZTN43_5alloc3vec3VecNtNtNtCsaqNsllmwM5m_12rustc_middle2ty7closure13CapturedPlaceENtCsej5P1MWAjDV_10rustc_hash13FxBuildHasherEEE14reserve_rehashNCINvNtB8_3map11make_hasherBQ_B1D_B4o_E0ECs6qKlvMSJCFB_16rustc_hir_typeck
librustc_driver-fa31e2489381cd18.so:_RINvMs6_NtCs95Vga1zx3Wm_9hashbrown3rawINtB6_8RawTableTNtNtCsiP3zVQcHmFl_10rustc_span6def_id10LocalDefIdINtNtCs7KwMrq602nF_8indexmap3map8IndexMapNtCs6ahoKXGLX5z_12rustc_hir_id5HirIdINtNtCsgvX44DZTN43_5alloc3vec3VecNtNtNtCsaqNsllmwM5m_12rustc_middle2ty7closure13CapturedPlaceENtCsej5P1MWAjDV_10rustc_hash13FxBuildHasherEEE14reserve_rehashNCINvNtB8_3map11make_hasherBQ_B1D_B4o_E0ECsaSsmK69njWG_16rustc_query_impl
librustc_driver-fa31e2489381cd18.so:_RINvMs6_NtCs95Vga1zx3Wm_9hashbrown3rawINtB6_8RawTableTNtNtCsiP3zVQcHmFl_10rustc_span6def_id10LocalDefIdINtNtCs7KwMrq602nF_8indexmap3set8IndexSetNtBS_5DefIdNtCsej5P1MWAjDV_10rustc_hash13FxBuildHasherEEE14reserve_rehashNCINvNtB8_3map11make_hasherBQ_B1D_B2t_E0ECserPFC4ou40o_12rustc_passes
librustc_driver-fa31e2489381cd18.so:_RINvMs6_NtCs95Vga1zx3Wm_9hashbrown3rawINtB6_8RawTableTNtNtCsiP3zVQcHmFl_10rustc_span6def_id10LocalDefIdINtNtCsbByapOItfY5_13rustc_type_ir9canonical9CanonicalNtNtNtCsaqNsllmwM5m_12rustc_middle2ty7context6TyCtxtINtNtB1I_6binder6BinderB2v_INtNtB1I_7ty_kind5FnSigB2v_EEEEE14reserve_rehashNCINvNtB8_3map11make_hasherBQ_B1D_NtCsej5P1MWAjDV_10rustc_hash13FxBuildHasherE0ECs6qKlvMSJCFB_16rustc_hir_typeck
librustc_driver-fa31e2489381cd18.so:_RINvMs6_NtCs95Vga1zx3Wm_9hashbrown3rawINtB6_8RawTableTNtNtCsiP3zVQcHmFl_10rustc_span6def_id10LocalDefIdINtNtCsbByapOItfY5_13rustc_type_ir9canonical9CanonicalNtNtNtCsaqNsllmwM5m_12rustc_middle2ty7context6TyCtxtINtNtB1I_6binder6BinderB2v_INtNtB1I_7ty_kind5FnSigB2v_EEEEE14reserve_rehashNCINvNtB8_3map11make_hasherBQ_B1D_NtCsej5P1MWAjDV_10rustc_hash13FxBuildHasherE0ECsaSsmK69njWG_16rustc_query_impl
librustc_driver-fa31e2489381cd18.so:_RINvMs6_NtCs95Vga1zx3Wm_9hashbrown3rawINtB6_8RawTableTNtNtCsiP3zVQcHmFl_10rustc_span6def_id10LocalDefIdINtNtCsgvX44DZTN43_5alloc3vec3VecNtNtBU_6symbol5IdentEEE14reserve_rehashNCINvNtB8_3map11make_hasherBQ_B1D_NtCsej5P1MWAjDV_10rustc_hash13FxBuildHasherE0ECs3VMMNsKb80B_13rustc_resolve
librustc_driver-fa31e2489381cd18.so:_RINvMs6_NtCs95Vga1zx3Wm_9hashbrown3rawINtB6_8RawTableTNtNtCsiP3zVQcHmFl_10rustc_span6def_id10LocalDefIdINtNtCsgvX44DZTN43_5alloc3vec3VecNtNtBU_6symbol6SymbolEEE14reserve_rehashNCINvNtB8_3map11make_hasherBQ_B1D_NtCsej5P1MWAjDV_10rustc_hash13FxBuildHasherE0ECs3VMMNsKb80B_13rustc_resolve
librustc_driver-fa31e2489381cd18.so:_RINvMs6_NtCs95Vga1zx3Wm_9hashbrown3rawINtB6_8RawTableTNtNtCsiP3zVQcHmFl_10rustc_span6def_id10LocalDefIdINtNtCsgvX44DZTN43_5alloc3vec3VecNtNtCs6qKlvMSJCFB_16rustc_hir_typeck6callee22DeferredCallResolutionEEE14reserve_rehashNCINvNtB8_3map11make_hasherBQ_B1D_NtCsej5P1MWAjDV_10rustc_hash13FxBuildHasherE0EB2e_
librustc_driver-fa31e2489381cd18.so:_RINvMs6_NtCs95Vga1zx3Wm_9hashbrown3rawINtB6_8RawTableTNtNtCsiP3zVQcHmFl_10rustc_span6def_id10LocalDefIdINtNtCsgvX44DZTN43_5alloc3vec3VecNtNtCsaqNsllmwM5m_12rustc_middle8metadata13AmbigModChildEEE14reserve_rehashNCINvNtB8_3map11make_hasherBQ_B1D_NtCsej5P1MWAjDV_10rustc_hash13FxBuildHasherE0ECs3VMMNsKb80B_13rustc_resolve
librustc_driver-fa31e2489381cd18.so:_RINvMs6_NtCs95Vga1zx3Wm_9hashbrown3rawINtB6_8RawTableTNtNtCsiP3zVQcHmFl_10rustc_span6def_id10LocalDefIdINtNtCsgvX44DZTN43_5alloc3vec3VecNtNtCsaqNsllmwM5m_12rustc_middle8metadata8ModChildEEE14reserve_rehashNCINvNtB8_3map11make_hasherBQ_B1D_NtCsej5P1MWAjDV_10rustc_hash13FxBuildHasherE0ECs3VMMNsKb80B_13rustc_resolve
librustc_driver-fa31e2489381cd18.so:_RINvMs6_NtCs95Vga1zx3Wm_9hashbrown3rawINtB6_8RawTableTNtNtCsiP3zVQcHmFl_10rustc_span6def_id10LocalDefIdINtNtCsgvX44DZTN43_5alloc3vec3VecTNtNtNtCsaqNsllmwM5m_12rustc_middle3hir5place5PlaceNtNtNtB2h_3mir6syntax13FakeReadCauseNtCs6ahoKXGLX5z_12rustc_hir_id5HirIdEEEE14reserve_rehashNCINvNtB8_3map11make_hasherBQ_B1D_NtCsej5P1MWAjDV_10rustc_hash13FxBuildHasherE0ECs6qKlvMSJCFB_16rustc_hir_typeck
librustc_driver-fa31e2489381cd18.so:_RINvMs6_NtCs95Vga1zx3Wm_9hashbrown3rawINtB6_8RawTableTNtNtCsiP3zVQcHmFl_10rustc_span6def_id10LocalDefIdINtNtCsgvX44DZTN43_5alloc3vec3VecTNtNtNtCsaqNsllmwM5m_12rustc_middle3hir5place5PlaceNtNtNtB2h_3mir6syntax13FakeReadCauseNtCs6ahoKXGLX5z_12rustc_hir_id5HirIdEEEE14reserve_rehashNCINvNtB8_3map11make_hasherBQ_B1D_NtCsej5P1MWAjDV_10rustc_hash13FxBuildHasherE0ECsaSsmK69njWG_16rustc_query_impl
librustc_driver-fa31e2489381cd18.so:_RINvMs6_NtCs95Vga1zx3Wm_9hashbrown3rawINtB6_8RawTableTNtNtCsiP3zVQcHmFl_10rustc_span6def_id10LocalDefIdINtNtCsgvX44DZTN43_5alloc3vec3VecTNtNtNtCsaqNsllmwM5m_12rustc_middle6middle18resolve_bound_vars11ResolvedArgBQ_EEEE14reserve_rehashNCINvNtB8_3map11make_hasherBQ_B1D_NtCsej5P1MWAjDV_10rustc_hash13FxBuildHasherE0ECscUPtgnKeETP_18rustc_hir_analysis
librustc_driver-fa31e2489381cd18.so:_RINvMs6_NtCs95Vga1zx3Wm_9hashbrown3rawINtB6_8RawTableTNtNtCsiP3zVQcHmFl_10rustc_span6def_id10LocalDefIdINtNtCshmntTYxeqYP_21rustc_data_structures5steal5StealNtNtCs3KflAWMuICG_9rustc_hir11definitions27PerParentDisambiguatorStateEEE14reserve_rehashNCINvNtB8_3map11make_hasherBQ_B1D_NtCsej5P1MWAjDV_10rustc_hash13FxBuildHasherE0ECs3VMMNsKb80B_13rustc_resolve
librustc_driver-fa31e2489381cd18.so:_RINvMs6_NtCs95Vga1zx3Wm_9hashbrown3rawINtB6_8RawTableTNtNtCsiP3zVQcHmFl_10rustc_span6def_id10LocalDefIdINtNtNtNtCskurZfFSl0zB_3std11collections4hash3set7HashSetBQ_NtCsej5P1MWAjDV_10rustc_hash13FxBuildHasherEEE14reserve_rehashNCINvNtB8_3map11make_hasherBQ_B1D_B2B_E0ECs7AhMru9HmZE_13rustc_privacy
librustc_driver-fa31e2489381cd18.so:_RINvMs6_NtCs95Vga1zx3Wm_9hashbrown3rawINtB6_8RawTableTNtNtCsiP3zVQcHmFl_10rustc_span6def_id10LocalDefIdINtNtNtNtCskurZfFSl0zB_3std11collections4hash3set7HashSetNtCs3VMMNsKb80B_13rustc_resolve10BindingKeyNtCsej5P1MWAjDV_10rustc_hash13FxBuildHasherEEE14reserve_rehashNCINvNtB8_3map11make_hasherBQ_B1D_B3f_E0EB2A_
librustc_driver-fa31e2489381cd18.so:_RINvMs6_NtCs95Vga1zx3Wm_9hashbrown3rawINtB6_8RawTableTNtNtCsiP3zVQcHmFl_10rustc_span6def_id10LocalDefIdINtNtNtNtCskurZfFSl0zB_3std11collections4hash3set7HashSetNtNtBU_7hygiene11LocalExpnIdNtCsej5P1MWAjDV_10rustc_hash13FxBuildHasherEEE14reserve_rehashNCINvNtB8_3map11make_hasherBQ_B1D_B30_E0ECs3VMMNsKb80B_13rustc_resolve
librustc_driver-fa31e2489381cd18.so:_RINvMs6_NtCs95Vga1zx3Wm_9hashbrown3rawINtB6_8RawTableTNtNtCsiP3zVQcHmFl_10rustc_span6def_id10LocalDefIdNtBS_8CrateNumEE14reserve_rehashNCINvNtB8_3map11make_hasherBQ_B1D_NtCsej5P1MWAjDV_10rustc_hash13FxBuildHasherE0ECs3VMMNsKb80B_13rustc_resolve
librustc_driver-fa31e2489381cd18.so:_RINvMs6_NtCs95Vga1zx3Wm_9hashbrown3rawINtB6_8RawTableTNtNtCsiP3zVQcHmFl_10rustc_span6def_id10LocalDefIdNtCs3VMMNsKb80B_13rustc_resolve11LocalModuleEE14reserve_rehashNCINvNtB8_3map11make_hasherBQ_B1D_NtCsej5P1MWAjDV_10rustc_hash13FxBuildHasherE0EB1F_
librustc_driver-fa31e2489381cd18.so:_RINvMs6_NtCs95Vga1zx3Wm_9hashbrown3rawINtB6_8RawTableTNtNtCsiP3zVQcHmFl_10rustc_span6def_id10LocalDefIdNtCs3VMMNsKb80B_13rustc_resolve15DelegationFnSigEE14reserve_rehashNCINvNtB8_3map11make_hasherBQ_B1D_NtCsej5P1MWAjDV_10rustc_hash13FxBuildHasherE0EB1F_
librustc_driver-fa31e2489381cd18.so:_RINvMs6_NtCs95Vga1zx3Wm_9hashbrown3rawINtB6_8RawTableTNtNtCsiP3zVQcHmFl_10rustc_span6def_id10LocalDefIdNtCs6ahoKXGLX5z_12rustc_hir_id11ItemLocalIdEE14reserve_rehashNCINvNtB8_3map11make_hasherBQ_B1D_NtCsej5P1MWAjDV_10rustc_hash13FxBuildHasherE0ECs6UwPWeCye2U_18rustc_ast_lowering
librustc_driver-fa31e2489381cd18.so:_RINvMs6_NtCs95Vga1zx3Wm_9hashbrown3rawINtB6_8RawTableTNtNtCsiP3zVQcHmFl_10rustc_span6def_id10LocalDefIdNtCsl5MakceMktk_14rustc_borrowck28PropagatedBorrowCheckResultsEE14reserve_rehashNCINvNtB8_3map11make_hasherBQ_B1D_NtCsej5P1MWAjDV_10rustc_hash13FxBuildHasherE0EB1F_
librustc_driver-fa31e2489381cd18.so:_RINvMs6_NtCs95Vga1zx3Wm_9hashbrown3rawINtB6_8RawTableTNtNtCsiP3zVQcHmFl_10rustc_span6def_id10LocalDefIdNtNtBU_7hygiene6ExpnIdEE14reserve_rehashNCINvNtB8_3map11make_hasherBQ_B1D_NtCsej5P1MWAjDV_10rustc_hash13FxBuildHasherE0ECs3VMMNsKb80B_13rustc_resolve
librustc_driver-fa31e2489381cd18.so:_RINvMs6_NtCs95Vga1zx3Wm_9hashbrown3rawINtB6_8RawTableTNtNtCsiP3zVQcHmFl_10rustc_span6def_id10LocalDefIdNtNtCs3KflAWMuICG_9rustc_hir11definitions27PerParentDisambiguatorStateEE14reserve_rehashNCINvNtB8_3map11make_hasherBQ_B1D_NtCsej5P1MWAjDV_10rustc_hash13FxBuildHasherE0EB1H_
librustc_driver-fa31e2489381cd18.so:_RINvMs6_NtCs95Vga1zx3Wm_9hashbrown3rawINtB6_8RawTableTNtNtCsiP3zVQcHmFl_10rustc_span6def_id10LocalDefIdNtNtCs3VMMNsKb80B_13rustc_resolve11diagnostics10StructCtorEE14reserve_rehashNCINvNtB8_3map11make_hasherBQ_B1D_NtCsej5P1MWAjDV_10rustc_hash13FxBuildHasherE0EB1H_
librustc_driver-fa31e2489381cd18.so:_RINvMs6_NtCs95Vga1zx3Wm_9hashbrown3rawINtB6_8RawTableTNtNtCsiP3zVQcHmFl_10rustc_span6def_id10LocalDefIdNtNtCs3VMMNsKb80B_13rustc_resolve4late14LifetimeUseSetEE14reserve_rehashNCINvNtB8_3map11make_hasherBQ_B1D_NtCsej5P1MWAjDV_10rustc_hash13FxBuildHasherE0EB1H_
librustc_driver-fa31e2489381cd18.so:_RINvMs6_NtCs95Vga1zx3Wm_9hashbrown3rawINtB6_8RawTableTNtNtCsiP3zVQcHmFl_10rustc_span6def_id10LocalDefIdNtNtCsaqNsllmwM5m_12rustc_middle2ty14DelegationInfoEE14reserve_rehashNCINvNtB8_3map11make_hasherBQ_B1D_NtCsej5P1MWAjDV_10rustc_hash13FxBuildHasherE0ECs3VMMNsKb80B_13rustc_resolve
librustc_driver-fa31e2489381cd18.so:_RINvMs6_NtCs95Vga1zx3Wm_9hashbrown3rawINtB6_8RawTableTNtNtCsiP3zVQcHmFl_10rustc_span6def_id10LocalDefIdNtNtCsaqNsllmwM5m_12rustc_middle2ty22ClosureSizeProfileDataEE14reserve_rehashNCINvNtB8_3map11make_hasherBQ_B1D_NtCsej5P1MWAjDV_10rustc_hash13FxBuildHasherE0ECs6qKlvMSJCFB_16rustc_hir_typeck
librustc_driver-fa31e2489381cd18.so:_RINvMs6_NtCs95Vga1zx3Wm_9hashbrown3rawINtB6_8RawTableTNtNtCsiP3zVQcHmFl_10rustc_span6def_id10LocalDefIdNtNtCsaqNsllmwM5m_12rustc_middle2ty22ClosureSizeProfileDataEE14reserve_rehashNCINvNtB8_3map11make_hasherBQ_B1D_NtCsej5P1MWAjDV_10rustc_hash13FxBuildHasherE0ECsaSsmK69njWG_16rustc_query_impl
librustc_driver-fa31e2489381cd18.so:_RINvMs6_NtCs95Vga1zx3Wm_9hashbrown3rawINtB6_8RawTableTNtNtCsiP3zVQcHmFl_10rustc_span6def_id10LocalDefIdNtNtCsd482UFdOvTO_9rustc_ast3ast8GenericsEE14reserve_rehashNCINvNtB8_3map11make_hasherBQ_B1D_NtCsej5P1MWAjDV_10rustc_hash13FxBuildHasherE0ECs3VMMNsKb80B_13rustc_resolve
librustc_driver-fa31e2489381cd18.so:_RINvMs6_NtCs95Vga1zx3Wm_9hashbrown3rawINtB6_8RawTableTNtNtCsiP3zVQcHmFl_10rustc_span6def_id10LocalDefIdNtNtCsgvX44DZTN43_5alloc6string6StringEE14reserve_rehashNCINvNtB8_3map11make_hasherBQ_B1D_NtCsej5P1MWAjDV_10rustc_hash13FxBuildHasherE0ECs3VMMNsKb80B_13rustc_resolve
librustc_driver-fa31e2489381cd18.so:_RINvMs6_NtCs95Vga1zx3Wm_9hashbrown3rawINtB6_8RawTableTNtNtCsiP3zVQcHmFl_10rustc_span6def_id10LocalDefIdNtNtCsl5MakceMktk_14rustc_borrowck9consumers21BodyWithBorrowckFactsEE14reserve_rehashNCINvNtB8_3map11make_hasherBQ_B1D_NtCsej5P1MWAjDV_10rustc_hash13FxBuildHasherE0EB1H_
librustc_driver-fa31e2489381cd18.so:_RINvMs6_NtCs95Vga1zx3Wm_9hashbrown3rawINtB6_8RawTableTNtNtCsiP3zVQcHmFl_10rustc_span6def_id10LocalDefIdNtNtNtCscUPtgnKeETP_18rustc_hir_analysis8variance5terms13InferredIndexEE14reserve_rehashNCINvNtB8_3map11make_hasherBQ_B1D_NtCsej5P1MWAjDV_10rustc_hash13FxBuildHasherE0EB1J_
librustc_driver-fa31e2489381cd18.so:_RINvMs6_NtCs95Vga1zx3Wm_9hashbrown3rawINtB6_8RawTableTNtNtCsiP3zVQcHmFl_10rustc_span6def_id10LocalDefIdRINtNtCs6e3rAaajRpB_4core4cell4CellNtNtCs3VMMNsKb80B_13rustc_resolve6macros15MacroRulesScopeEEE14reserve_rehashNCINvNtB8_3map11make_hasherBQ_B1D_NtCsej5P1MWAjDV_10rustc_hash13FxBuildHasherE0EB2g_
librustc_driver-fa31e2489381cd18.so:_RINvMs6_NtCs95Vga1zx3Wm_9hashbrown3rawINtB6_8RawTableTNtNtCsiP3zVQcHmFl_10rustc_span6def_id10LocalDefIdRINtNtCsgvX44DZTN43_5alloc4sync3ArcNtNtCs785ZPy54HPh_12rustc_expand4base15SyntaxExtensionEEE14reserve_rehashNCINvNtB8_3map11make_hasherBQ_B1D_NtCsej5P1MWAjDV_10rustc_hash13FxBuildHasherE0ECs3VMMNsKb80B_13rustc_resolve
librustc_driver-fa31e2489381cd18.so:_RINvMs6_NtCs95Vga1zx3Wm_9hashbrown3rawINtB6_8RawTableTNtNtCsiP3zVQcHmFl_10rustc_span6def_id10LocalDefIdjEE14reserve_rehashNCINvNtB8_3map11make_hasherBQ_jNtCsej5P1MWAjDV_10rustc_hash13FxBuildHasherE0ECs3VMMNsKb80B_13rustc_resolve
librustc_driver-fa31e2489381cd18.so:_RINvMs6_NtCs95Vga1zx3Wm_9hashbrown3rawINtB6_8RawTableTNtNtCsiP3zVQcHmFl_10rustc_span6def_id10LocalDefIduEE14reserve_rehashNCINvNtB8_3map11make_hasherBQ_uNtCsej5P1MWAjDV_10rustc_hash13FxBuildHasherE0ECs3VMMNsKb80B_13rustc_resolve
librustc_driver-fa31e2489381cd18.so:_RINvMs6_NtCs95Vga1zx3Wm_9hashbrown3rawINtB6_8RawTableTNtNtCsiP3zVQcHmFl_10rustc_span6def_id10LocalDefIduEE14reserve_rehashNCINvNtB8_3map11make_hasherBQ_uNtCsej5P1MWAjDV_10rustc_hash13FxBuildHasherE0ECs4DnJvQYATGa_19rustc_mir_transform
librustc_driver-fa31e2489381cd18.so:_RINvMs6_NtCs95Vga1zx3Wm_9hashbrown3rawINtB6_8RawTableTNtNtCsiP3zVQcHmFl_10rustc_span6def_id10LocalDefIduEE14reserve_rehashNCINvNtB8_3map11make_hasherBQ_uNtCsej5P1MWAjDV_10rustc_hash13FxBuildHasherE0ECsaSsmK69njWG_16rustc_query_impl
librustc_driver-fa31e2489381cd18.so:_RINvMs6_NtCs95Vga1zx3Wm_9hashbrown3rawINtB6_8RawTableTNtNtCsiP3zVQcHmFl_10rustc_span6def_id10LocalDefIduEE14reserve_rehashNCINvNtB8_3map11make_hasherBQ_uNtCsej5P1MWAjDV_10rustc_hash13FxBuildHasherE0ECsbmrvFwx9VJk_14rustc_ty_utils
librustc_driver-fa31e2489381cd18.so:_RINvMs6_NtCs95Vga1zx3Wm_9hashbrown3rawINtB6_8RawTableTNtNtCsiP3zVQcHmFl_10rustc_span6def_id10LocalDefIduEE14reserve_rehashNCINvNtB8_3map11make_hasherBQ_uNtCsej5P1MWAjDV_10rustc_hash13FxBuildHasherE0ECscUPtgnKeETP_18rustc_hir_analysis
librustc_driver-fa31e2489381cd18.so:_RINvMs6_NtCs95Vga1zx3Wm_9hashbrown3rawINtB6_8RawTableTNtNtCsiP3zVQcHmFl_10rustc_span6def_id5DefIdBQ_EE14reserve_rehashNCINvNtB8_3map11make_hasherBQ_BQ_NtCsej5P1MWAjDV_10rustc_hash13FxBuildHasherE0ECs73ymBF2OK4c_14rustc_metadata
librustc_driver-fa31e2489381cd18.so:_RINvMs6_NtCs95Vga1zx3Wm_9hashbrown3rawINtB6_8RawTableTNtNtCsiP3zVQcHmFl_10rustc_span6def_id5DefIdBQ_EE14reserve_rehashNCINvNtB8_3map11make_hasherBQ_BQ_NtCsej5P1MWAjDV_10rustc_hash13FxBuildHasherE0ECs7ZgcGxgGJUk_21rustc_trait_selection
librustc_driver-fa31e2489381cd18.so:_RINvMs6_NtCs95Vga1zx3Wm_9hashbrown3rawINtB6_8RawTableTNtNtCsiP3zVQcHmFl_10rustc_span6def_id5DefIdBQ_EE14reserve_rehashNCINvNtB8_3map11make_hasherBQ_BQ_NtCsej5P1MWAjDV_10rustc_hash13FxBuildHasherE0ECsaSsmK69njWG_16rustc_query_impl
librustc_driver-fa31e2489381cd18.so:_RINvMs6_NtCs95Vga1zx3Wm_9hashbrown3rawINtB6_8RawTableTNtNtCsiP3zVQcHmFl_10rustc_span6def_id5DefIdINtNtCsbByapOItfY5_13rustc_type_ir6binder11EarlyBinderNtNtNtCsaqNsllmwM5m_12rustc_middle2ty7context6TyCtxtNtB2t_2TyEEE14reserve_rehashNCINvNtB8_3map11make_hasherBQ_B1x_NtCsej5P1MWAjDV_10rustc_hash13FxBuildHasherE0ECs73ymBF2OK4c_14rustc_metadata
librustc_driver-fa31e2489381cd18.so:_RINvMs6_NtCs95Vga1zx3Wm_9hashbrown3rawINtB6_8RawTableTNtNtCsiP3zVQcHmFl_10rustc_span6def_id5DefIdINtNtCsbByapOItfY5_13rustc_type_ir6binder11EarlyBinderNtNtNtCsaqNsllmwM5m_12rustc_middle2ty7context6TyCtxtNtB2t_2TyEEE14reserve_rehashNCINvNtB8_3map11make_hasherBQ_B1x_NtCsej5P1MWAjDV_10rustc_hash13FxBuildHasherE0ECsaSsmK69njWG_16rustc_query_impl
librustc_driver-fa31e2489381cd18.so:_RINvMs6_NtCs95Vga1zx3Wm_9hashbrown3rawINtB6_8RawTableTNtNtCsiP3zVQcHmFl_10rustc_span6def_id5DefIdINtNtCsbByapOItfY5_13rustc_type_ir6binder11EarlyBinderNtNtNtCsaqNsllmwM5m_12rustc_middle2ty7context6TyCtxtNtB2t_2TyEEE14reserve_rehashNCINvNtB8_3map11make_hasherBQ_B1x_NtCsej5P1MWAjDV_10rustc_hash13FxBuildHasherE0ECscUPtgnKeETP_18rustc_hir_analysis
librustc_driver-fa31e2489381cd18.so:_RINvMs6_NtCs95Vga1zx3Wm_9hashbrown3rawINtB6_8RawTableTNtNtCsiP3zVQcHmFl_10rustc_span6def_id5DefIdINtNtCsgvX44DZTN43_5alloc3vec3VecBQ_EEE14reserve_rehashNCINvNtB8_3map11make_hasherBQ_B1x_NtCsej5P1MWAjDV_10rustc_hash13FxBuildHasherE0ECs73ymBF2OK4c_14rustc_metadata
librustc_driver-fa31e2489381cd18.so:_RINvMs6_NtCs95Vga1zx3Wm_9hashbrown3rawINtB6_8RawTableTNtNtCsiP3zVQcHmFl_10rustc_span6def_id5DefIdINtNtCsgvX44DZTN43_5alloc3vec3VecBQ_EEE14reserve_rehashNCINvNtB8_3map11make_hasherBQ_B1x_NtCsej5P1MWAjDV_10rustc_hash13FxBuildHasherE0ECsbmrvFwx9VJk_14rustc_ty_utils
librustc_driver-fa31e2489381cd18.so:_RINvMs6_NtCs95Vga1zx3Wm_9hashbrown3rawINtB6_8RawTableTNtNtCsiP3zVQcHmFl_10rustc_span6def_id5DefIdINtNtCsgvX44DZTN43_5alloc3vec3VecINtNtCsbByapOItfY5_13rustc_type_ir6binder6BinderNtNtNtCsaqNsllmwM5m_12rustc_middle2ty7context6TyCtxtINtNtB29_9predicate19ProjectionPredicateB2Q_EEEEE14reserve_rehashNCINvNtB8_3map11make_hasherBQ_B1x_NtCsej5P1MWAjDV_10rustc_hash13FxBuildHasherE0ECs7ZgcGxgGJUk_21rustc_trait_selection
librustc_driver-fa31e2489381cd18.so:_RINvMs6_NtCs95Vga1zx3Wm_9hashbrown3rawINtB6_8RawTableTNtNtCsiP3zVQcHmFl_10rustc_span6def_id5DefIdINtNtCsgvX44DZTN43_5alloc3vec3VecNtNtBU_13span_encoding4SpanEEE14reserve_rehashNCINvNtB8_3map11make_hasherBQ_B1x_NtCsej5P1MWAjDV_10rustc_hash13FxBuildHasherE0ECs3VMMNsKb80B_13rustc_resolve
librustc_driver-fa31e2489381cd18.so:_RINvMs6_NtCs95Vga1zx3Wm_9hashbrown3rawINtB6_8RawTableTNtNtCsiP3zVQcHmFl_10rustc_span6def_id5DefIdINtNtCsgvX44DZTN43_5alloc3vec3VecTNtNtBU_13span_encoding4SpanINtNtCs6e3rAaajRpB_4core6result6ResultuNtBU_15ErrorGuaranteedEEEEE14reserve_rehashNCINvNtB8_3map11make_hasherBQ_B1x_NtCsej5P1MWAjDV_10rustc_hash13FxBuildHasherE0ECs3VMMNsKb80B_13rustc_resolve
librustc_driver-fa31e2489381cd18.so:_RINvMs6_NtCs95Vga1zx3Wm_9hashbrown3rawINtB6_8RawTableTNtNtCsiP3zVQcHmFl_10rustc_span6def_id5DefIdINtNtCshmntTYxeqYP_21rustc_data_structures5unord8UnordMapRINtNtNtCsaqNsllmwM5m_12rustc_middle2ty4list7RawListuNtNtB2y_12generic_args10GenericArgENtBS_8CrateNumEEE14reserve_rehashNCINvNtB8_3map11make_hasherBQ_B1x_NtCsej5P1MWAjDV_10rustc_hash13FxBuildHasherE0ECsg0ydQtPiXpO_17rustc_codegen_ssa
librustc_driver-fa31e2489381cd18.so:_RINvMs6_NtCs95Vga1zx3Wm_9hashbrown3rawINtB6_8RawTableTNtNtCsiP3zVQcHmFl_10rustc_span6def_id5DefIdNtCsbByapOItfY5_13rustc_type_ir8VarianceEE14reserve_rehashNCINvNtB8_3map11make_hasherBQ_B1x_NtCsej5P1MWAjDV_10rustc_hash13FxBuildHasherE0ECs1ufPwUoOuD2_10rustc_lint
librustc_driver-fa31e2489381cd18.so:_RINvMs6_NtCs95Vga1zx3Wm_9hashbrown3rawINtB6_8RawTableTNtNtCsiP3zVQcHmFl_10rustc_span6def_id5DefIdNtNtBU_13span_encoding4SpanEE14reserve_rehashNCINvNtB8_3map11make_hasherBQ_B1x_NtCsej5P1MWAjDV_10rustc_hash13FxBuildHasherE0ECs3VMMNsKb80B_13rustc_resolve
librustc_driver-fa31e2489381cd18.so:_RINvMs6_NtCs95Vga1zx3Wm_9hashbrown3rawINtB6_8RawTableTNtNtCsiP3zVQcHmFl_10rustc_span6def_id5DefIdNtNtBU_13span_encoding4SpanEE14reserve_rehashNCINvNtB8_3map11make_hasherBQ_B1x_NtCsej5P1MWAjDV_10rustc_hash13FxBuildHasherE0ECserPFC4ou40o_12rustc_passes
librustc_driver-fa31e2489381cd18.so:_RINvMs6_NtCs95Vga1zx3Wm_9hashbrown3rawINtB6_8RawTableTNtNtCsiP3zVQcHmFl_10rustc_span6def_id5DefIdNtNtBU_6symbol6SymbolEE14reserve_rehashNCINvNtB8_3map11make_hasherBQ_B1x_NtCsej5P1MWAjDV_10rustc_hash13FxBuildHasherE0ECsaqNsllmwM5m_12rustc_middle
librustc_driver-fa31e2489381cd18.so:_RINvMs6_NtCs95Vga1zx3Wm_9hashbrown3rawINtB6_8RawTableTNtNtCsiP3zVQcHmFl_10rustc_span6def_id5DefIdNtNtCsgvX44DZTN43_5alloc6string6StringEE14reserve_rehashNCINvNtB8_3map11make_hasherBQ_B1x_NtCsej5P1MWAjDV_10rustc_hash13FxBuildHasherE0ECsg0ydQtPiXpO_17rustc_codegen_ssa
librustc_driver-fa31e2489381cd18.so:_RINvMs6_NtCs95Vga1zx3Wm_9hashbrown3rawINtB6_8RawTableTNtNtCsiP3zVQcHmFl_10rustc_span6def_id5DefIdNtNtCsiflJ6ENogzZ_9measureme11stringtable8StringIdEE14reserve_rehashNCINvNtB8_3map11make_hasherBQ_B1x_NtCsej5P1MWAjDV_10rustc_hash13FxBuildHasherE0ECsaSsmK69njWG_16rustc_query_impl
librustc_driver-fa31e2489381cd18.so:_RINvMs6_NtCs95Vga1zx3Wm_9hashbrown3rawINtB6_8RawTableTNtNtCsiP3zVQcHmFl_10rustc_span6def_id5DefIdNtNtNtCsaqNsllmwM5m_12rustc_middle6middle16exported_symbols16SymbolExportInfoEE14reserve_rehashNCINvNtB8_3map11make_hasherBQ_B1x_NtCsej5P1MWAjDV_10rustc_hash13FxBuildHasherE0ECs73ymBF2OK4c_14rustc_metadata
librustc_driver-fa31e2489381cd18.so:_RINvMs6_NtCs95Vga1zx3Wm_9hashbrown3rawINtB6_8RawTableTNtNtCsiP3zVQcHmFl_10rustc_span6def_id5DefIdNtNtNtCsaqNsllmwM5m_12rustc_middle6traits20specialization_graph8ChildrenEE14reserve_rehashNCINvNtB8_3map11make_hasherBQ_B1x_NtCsej5P1MWAjDV_10rustc_hash13FxBuildHasherE0ECs7ZgcGxgGJUk_21rustc_trait_selection
librustc_driver-fa31e2489381cd18.so:_RINvMs6_NtCs95Vga1zx3Wm_9hashbrown3rawINtB6_8RawTableTNtNtCsiP3zVQcHmFl_10rustc_span6def_id5DefIdNtNtNtCsaqNsllmwM5m_12rustc_middle6traits20specialization_graph8ChildrenEE14reserve_rehashNCINvNtB8_3map11make_hasherBQ_B1x_NtCsej5P1MWAjDV_10rustc_hash13FxBuildHasherE0ECsaSsmK69njWG_16rustc_query_impl
librustc_driver-fa31e2489381cd18.so:_RINvMs6_NtCs95Vga1zx3Wm_9hashbrown3rawINtB6_8RawTableTNtNtCsiP3zVQcHmFl_10rustc_span6def_id5DefIdRINtNtCsgvX44DZTN43_5alloc4sync3ArcNtNtCs785ZPy54HPh_12rustc_expand4base15SyntaxExtensionEEE14reserve_rehashNCINvNtB8_3map11make_hasherBQ_B1x_NtCsej5P1MWAjDV_10rustc_hash13FxBuildHasherE0ECs3VMMNsKb80B_13rustc_resolve
librustc_driver-fa31e2489381cd18.so:_RINvMs6_NtCs95Vga1zx3Wm_9hashbrown3rawINtB6_8RawTableTNtNtCsiP3zVQcHmFl_10rustc_span6def_id5DefIdRNtNtCs8svpH8FC8uE_13rustc_session6cstore9NativeLibEE14reserve_rehashNCINvNtB8_3map11make_hasherBQ_B1x_NtCsej5P1MWAjDV_10rustc_hash13FxBuildHasherE0ECsg0ydQtPiXpO_17rustc_codegen_ssa
librustc_driver-fa31e2489381cd18.so:_RINvMs6_NtCs95Vga1zx3Wm_9hashbrown3rawINtB6_8RawTableTNtNtCsiP3zVQcHmFl_10rustc_span6def_id5DefIdRNtNtNtCsirwAroatyKs_18rustc_codegen_llvm4llvm3ffi5ValueEE14reserve_rehashNCINvNtB8_3map11make_hasherBQ_B1x_NtCsej5P1MWAjDV_10rustc_hash13FxBuildHasherE0EB1E_
librustc_driver-fa31e2489381cd18.so:_RINvMs6_NtCs95Vga1zx3Wm_9hashbrown3rawINtB6_8RawTableTNtNtCsiP3zVQcHmFl_10rustc_span6def_id5DefIdRNtNtNtCsirwAroatyKs_18rustc_codegen_llvm4llvm3ffi8MetadataEE14reserve_rehashNCINvNtB8_3map11make_hasherBQ_B1x_NtCsej5P1MWAjDV_10rustc_hash13FxBuildHasherE0EB1E_
librustc_driver-fa31e2489381cd18.so:_RINvMs6_NtCs95Vga1zx3Wm_9hashbrown3rawINtB6_8RawTableTNtNtCsiP3zVQcHmFl_10rustc_span6def_id5DefIdRSNtCsbByapOItfY5_13rustc_type_ir8VarianceEE14reserve_rehashNCINvNtB8_3map11make_hasherBQ_B1x_NtCsej5P1MWAjDV_10rustc_hash13FxBuildHasherE0ECscUPtgnKeETP_18rustc_hir_analysis
librustc_driver-fa31e2489381cd18.so:_RINvMs6_NtCs95Vga1zx3Wm_9hashbrown3rawINtB6_8RawTableTNtNtCsiP3zVQcHmFl_10rustc_span6def_id5DefIdRSTNtNtNtCsaqNsllmwM5m_12rustc_middle2ty9predicate6ClauseNtNtBU_13span_encoding4SpanEEE14reserve_rehashNCINvNtB8_3map11make_hasherBQ_B1x_NtCsej5P1MWAjDV_10rustc_hash13FxBuildHasherE0ECscUPtgnKeETP_18rustc_hir_analysis
librustc_driver-fa31e2489381cd18.so:_RINvMs6_NtCs95Vga1zx3Wm_9hashbrown3rawINtB6_8RawTableTNtNtCsiP3zVQcHmFl_10rustc_span6def_id5DefIdbEE14reserve_rehashNCINvNtB8_3map11make_hasherBQ_bNtCsej5P1MWAjDV_10rustc_hash13FxBuildHasherE0ECs3VMMNsKb80B_13rustc_resolve
librustc_driver-fa31e2489381cd18.so:_RINvMs6_NtCs95Vga1zx3Wm_9hashbrown3rawINtB6_8RawTableTNtNtCsiP3zVQcHmFl_10rustc_span6def_id5DefIdjEE14reserve_rehashNCINvNtB8_3map11make_hasherBQ_jNtCsej5P1MWAjDV_10rustc_hash13FxBuildHasherE0ECs1yK2jRAc0XL_18rustc_monomorphize
librustc_driver-fa31e2489381cd18.so:_RINvMs6_NtCs95Vga1zx3Wm_9hashbrown3rawINtB6_8RawTableTNtNtCsiP3zVQcHmFl_10rustc_span6def_id5DefIdjEE14reserve_rehashNCINvNtB8_3map11make_hasherBQ_jNtCsej5P1MWAjDV_10rustc_hash13FxBuildHasherE0ECs4DnJvQYATGa_19rustc_mir_transform
librustc_driver-fa31e2489381cd18.so:_RINvMs6_NtCs95Vga1zx3Wm_9hashbrown3rawINtB6_8RawTableTNtNtCsiP3zVQcHmFl_10rustc_span6def_id5DefIdmEE14reserve_rehashNCINvNtB8_3map11make_hasherBQ_mNtCsej5P1MWAjDV_10rustc_hash13FxBuildHasherE0ECs73ymBF2OK4c_14rustc_metadata
librustc_driver-fa31e2489381cd18.so:_RINvMs6_NtCs95Vga1zx3Wm_9hashbrown3rawINtB6_8RawTableTNtNtCsiP3zVQcHmFl_10rustc_span6def_id5DefIdmEE14reserve_rehashNCINvNtB8_3map11make_hasherBQ_mNtCsej5P1MWAjDV_10rustc_hash13FxBuildHasherE0ECsaSsmK69njWG_16rustc_query_impl
librustc_driver-fa31e2489381cd18.so:_RINvMs6_NtCs95Vga1zx3Wm_9hashbrown3rawINtB6_8RawTableTNtNtCsiP3zVQcHmFl_10rustc_span6def_id5DefIdmEE14reserve_rehashNCINvNtB8_3map11make_hasherBQ_mNtCsej5P1MWAjDV_10rustc_hash13FxBuildHasherE0ECsbmrvFwx9VJk_14rustc_ty_utils
librustc_driver-fa31e2489381cd18.so:_RINvMs6_NtCs95Vga1zx3Wm_9hashbrown3rawINtB6_8RawTableTNtNtCsiP3zVQcHmFl_10rustc_span6def_id5DefIdmEE14reserve_rehashNCINvNtB8_3map11make_hasherBQ_mNtCsej5P1MWAjDV_10rustc_hash13FxBuildHasherE0ECscUPtgnKeETP_18rustc_hir_analysis
librustc_driver-fa31e2489381cd18.so:_RINvMs6_NtCs95Vga1zx3Wm_9hashbrown3rawINtB6_8RawTableTNtNtCsiP3zVQcHmFl_10rustc_span6def_id5DefIduEE14reserve_rehashNCINvNtB8_3map11make_hasherBQ_uNtCsej5P1MWAjDV_10rustc_hash13FxBuildHasherE0ECs3KflAWMuICG_9rustc_hir
librustc_driver-fa31e2489381cd18.so:_RINvMs6_NtCs95Vga1zx3Wm_9hashbrown3rawINtB6_8RawTableTNtNtCsiP3zVQcHmFl_10rustc_span6def_id8CrateNumINtNtCsgvX44DZTN43_5alloc4sync3ArcNtNtCs8svpH8FC8uE_13rustc_session6cstore11CrateSourceEEE14reserve_rehashNCINvNtB8_3map11make_hasherBQ_B1A_NtCsej5P1MWAjDV_10rustc_hash13FxBuildHasherE0ECsg0ydQtPiXpO_17rustc_codegen_ssa
librustc_driver-fa31e2489381cd18.so:_RINvMs6_NtCs95Vga1zx3Wm_9hashbrown3rawINtB6_8RawTableTNtNtCsiP3zVQcHmFl_10rustc_span6def_id8CrateNumNtNtBU_6symbol6SymbolEE14reserve_rehashNCINvNtB8_3map11make_hasherBQ_B1A_NtCsej5P1MWAjDV_10rustc_hash13FxBuildHasherE0ECsg0ydQtPiXpO_17rustc_codegen_ssa
librustc_driver-fa31e2489381cd18.so:_RINvMs6_NtCs95Vga1zx3Wm_9hashbrown3rawINtB6_8RawTableTNtNtCsiP3zVQcHmFl_10rustc_span6def_id8CrateNumNtNtCs8svpH8FC8uE_13rustc_session6cstore17LinkagePreferenceEE14reserve_rehashNCINvNtB8_3map11make_hasherBQ_B1A_NtCsej5P1MWAjDV_10rustc_hash13FxBuildHasherE0ECs73ymBF2OK4c_14rustc_metadata
librustc_driver-fa31e2489381cd18.so:_RINvMs6_NtCs95Vga1zx3Wm_9hashbrown3rawINtB6_8RawTableTNtNtCsiP3zVQcHmFl_10rustc_span6def_id8CrateNumNtNtCsgvX44DZTN43_5alloc6string6StringEE14reserve_rehashNCINvNtB8_3map11make_hasherBQ_B1A_NtCsej5P1MWAjDV_10rustc_hash13FxBuildHasherE0ECs1yK2jRAc0XL_18rustc_monomorphize
librustc_driver-fa31e2489381cd18.so:_RINvMs6_NtCs95Vga1zx3Wm_9hashbrown3rawINtB6_8RawTableTNtNtCsiP3zVQcHmFl_10rustc_span6def_id8CrateNumNtNtCsgvX44DZTN43_5alloc6string6StringEE14reserve_rehashNCINvNtB8_3map11make_hasherBQ_B1A_NtCsej5P1MWAjDV_10rustc_hash13FxBuildHasherE0ECsg0ydQtPiXpO_17rustc_codegen_ssa
librustc_driver-fa31e2489381cd18.so:_RINvMs6_NtCs95Vga1zx3Wm_9hashbrown3rawINtB6_8RawTableTNtNtCsiP3zVQcHmFl_10rustc_span6def_id8CrateNumuEE14reserve_rehashNCINvNtB8_3map11make_hasherBQ_uNtCsej5P1MWAjDV_10rustc_hash13FxBuildHasherE0ECs73ymBF2OK4c_14rustc_metadata
librustc_driver-fa31e2489381cd18.so:_RINvMs6_NtCs95Vga1zx3Wm_9hashbrown3rawINtB6_8RawTableTNtNtCsiP3zVQcHmFl_10rustc_span6def_id8DefIndexNtNtCs3KflAWMuICG_9rustc_hir11definitions6DefKeyEE14reserve_rehashNCINvNtB8_3map11make_hasherBQ_B1A_NtCsej5P1MWAjDV_10rustc_hash13FxBuildHasherE0ECs73ymBF2OK4c_14rustc_metadata
librustc_driver-fa31e2489381cd18.so:_RINvMs6_NtCs95Vga1zx3Wm_9hashbrown3rawINtB6_8RawTableTNtNtCsiP3zVQcHmFl_10rustc_span6symbol25MacroRulesNormalizedIdentNtNtNtCs785ZPy54HPh_12rustc_expand3mbe11macro_check10BinderInfoEE14reserve_rehashNCINvNtB8_3map11make_hasherBQ_B1S_NtCsej5P1MWAjDV_10rustc_hash13FxBuildHasherE0EB1Y_
librustc_driver-fa31e2489381cd18.so:_RINvMs6_NtCs95Vga1zx3Wm_9hashbrown3rawINtB6_8RawTableTNtNtCsiP3zVQcHmFl_10rustc_span6symbol25MacroRulesNormalizedIdentNtNtNtCs785ZPy54HPh_12rustc_expand3mbe12macro_parser10NamedMatchEE14reserve_rehashNCINvNtB8_3map11make_hasherBQ_B1S_NtCsej5P1MWAjDV_10rustc_hash13FxBuildHasherE0EB1Y_
librustc_driver-fa31e2489381cd18.so:_RINvMs6_NtCs95Vga1zx3Wm_9hashbrown3rawINtB6_8RawTableTNtNtCsiP3zVQcHmFl_10rustc_span6symbol5IdentNtNtBU_13span_encoding4SpanEE14reserve_rehashNCINvNtB8_3map11make_hasherBQ_B1x_NtCsej5P1MWAjDV_10rustc_hash13FxBuildHasherE0ECs3VMMNsKb80B_13rustc_resolve
librustc_driver-fa31e2489381cd18.so:_RINvMs6_NtCs95Vga1zx3Wm_9hashbrown3rawINtB6_8RawTableTNtNtCsiP3zVQcHmFl_10rustc_span6symbol5IdentNtNtBU_13span_encoding4SpanEE14reserve_rehashNCINvNtB8_3map11make_hasherBQ_B1x_NtCsej5P1MWAjDV_10rustc_hash13FxBuildHasherE0ECscUPtgnKeETP_18rustc_hir_analysis
librustc_driver-fa31e2489381cd18.so:_RINvMs6_NtCs95Vga1zx3Wm_9hashbrown3rawINtB6_8RawTableTNtNtCsiP3zVQcHmFl_10rustc_span6symbol5IdentTNtNtCsdeppuzfODI3_9rustc_abi6layout8FieldIdxRNtNtCsaqNsllmwM5m_12rustc_middle2ty8FieldDefEEE14reserve_rehashNCINvNtB8_3map11make_hasherBQ_B1x_NtCsej5P1MWAjDV_10rustc_hash13FxBuildHasherE0ECs6qKlvMSJCFB_16rustc_hir_typeck
librustc_driver-fa31e2489381cd18.so:_RINvMs6_NtCs95Vga1zx3Wm_9hashbrown3rawINtB6_8RawTableTNtNtCsiP3zVQcHmFl_10rustc_span6symbol5IdentuEE14reserve_rehashNCINvNtB8_3map11make_hasherBQ_uNtCsej5P1MWAjDV_10rustc_hash13FxBuildHasherE0ECsgfasDSBi4N4_11rustc_parse
librustc_driver-fa31e2489381cd18.so:_RINvMs6_NtCs95Vga1zx3Wm_9hashbrown3rawINtB6_8RawTableTNtNtCsiP3zVQcHmFl_10rustc_span6symbol6SymbolBQ_EE14reserve_rehashNCINvNtB8_3map11make_hasherBQ_BQ_NtCsej5P1MWAjDV_10rustc_hash13FxBuildHasherE0ECs73ymBF2OK4c_14rustc_metadata
librustc_driver-fa31e2489381cd18.so:_RINvMs6_NtCs95Vga1zx3Wm_9hashbrown3rawINtB6_8RawTableTNtNtCsiP3zVQcHmFl_10rustc_span6symbol6SymbolBQ_EE14reserve_rehashNCINvNtB8_3map11make_hasherBQ_BQ_NtCsej5P1MWAjDV_10rustc_hash13FxBuildHasherE0ECserPFC4ou40o_12rustc_passes
librustc_driver-fa31e2489381cd18.so:_RINvMs6_NtCs95Vga1zx3Wm_9hashbrown3rawINtB6_8RawTableTNtNtCsiP3zVQcHmFl_10rustc_span6symbol6SymbolINtNtCsgvX44DZTN43_5alloc3vec3VecBQ_EEE14reserve_rehashNCINvNtB8_3map11make_hasherBQ_B1y_NtCsej5P1MWAjDV_10rustc_hash13FxBuildHasherE0ECs1yK2jRAc0XL_18rustc_monomorphize
librustc_driver-fa31e2489381cd18.so:_RINvMs6_NtCs95Vga1zx3Wm_9hashbrown3rawINtB6_8RawTableTNtNtCsiP3zVQcHmFl_10rustc_span6symbol6SymbolINtNtCsgvX44DZTN43_5alloc3vec3VecBQ_EEE14reserve_rehashNCINvNtB8_3map11make_hasherBQ_B1y_NtCsej5P1MWAjDV_10rustc_hash13FxBuildHasherE0ECs3VMMNsKb80B_13rustc_resolve
librustc_driver-fa31e2489381cd18.so:_RINvMs6_NtCs95Vga1zx3Wm_9hashbrown3rawINtB6_8RawTableTNtNtCsiP3zVQcHmFl_10rustc_span6symbol6SymbolINtNtCsgvX44DZTN43_5alloc3vec3VecNtNtBU_13span_encoding4SpanEEE14reserve_rehashNCINvNtB8_3map11make_hasherBQ_B1y_NtCsej5P1MWAjDV_10rustc_hash13FxBuildHasherE0ECs8svpH8FC8uE_13rustc_session
librustc_driver-fa31e2489381cd18.so:_RINvMs6_NtCs95Vga1zx3Wm_9hashbrown3rawINtB6_8RawTableTNtNtCsiP3zVQcHmFl_10rustc_span6symbol6SymbolINtNtCshmntTYxeqYP_21rustc_data_structures6intern8InternedNtCs3VMMNsKb80B_13rustc_resolve8DeclDataEEE14reserve_rehashNCINvNtB8_3map11make_hasherBQ_B1y_NtCsej5P1MWAjDV_10rustc_hash13FxBuildHasherE0EB2w_
librustc_driver-fa31e2489381cd18.so:_RINvMs6_NtCs95Vga1zx3Wm_9hashbrown3rawINtB6_8RawTableTNtNtCsiP3zVQcHmFl_10rustc_span6symbol6SymbolINtNtNtCs8svpH8FC8uE_13rustc_session6config3cfg14ExpectedValuesBQ_EEE14reserve_rehashNCINvNtB8_3map11make_hasherBQ_B1y_NtCsej5P1MWAjDV_10rustc_hash13FxBuildHasherE0EB1F_
librustc_driver-fa31e2489381cd18.so:_RINvMs6_NtCs95Vga1zx3Wm_9hashbrown3rawINtB6_8RawTableTNtNtCsiP3zVQcHmFl_10rustc_span6symbol6SymbolNtCs6ahoKXGLX5z_12rustc_hir_id7OwnerIdEE14reserve_rehashNCINvNtB8_3map11make_hasherBQ_B1y_NtCsej5P1MWAjDV_10rustc_hash13FxBuildHasherE0ECs1ufPwUoOuD2_10rustc_lint
librustc_driver-fa31e2489381cd18.so:_RINvMs6_NtCs95Vga1zx3Wm_9hashbrown3rawINtB6_8RawTableTNtNtCsiP3zVQcHmFl_10rustc_span6symbol6SymbolNtNtBU_13span_encoding4SpanEE14reserve_rehashNCINvNtB8_3map11make_hasherBQ_B1y_NtCsej5P1MWAjDV_10rustc_hash13FxBuildHasherE0ECs3VMMNsKb80B_13rustc_resolve
librustc_driver-fa31e2489381cd18.so:_RINvMs6_NtCs95Vga1zx3Wm_9hashbrown3rawINtB6_8RawTableTNtNtCsiP3zVQcHmFl_10rustc_span6symbol6SymbolNtNtBU_13span_encoding4SpanEE14reserve_rehashNCINvNtB8_3map11make_hasherBQ_B1y_NtCsej5P1MWAjDV_10rustc_hash13FxBuildHasherE0ECserPFC4ou40o_12rustc_passes
librustc_driver-fa31e2489381cd18.so:_RINvMs6_NtCs95Vga1zx3Wm_9hashbrown3rawINtB6_8RawTableTNtNtCsiP3zVQcHmFl_10rustc_span6symbol6SymbolNtNtBU_6def_id8CrateNumEE14reserve_rehashNCINvNtB8_3map11make_hasherBQ_B1y_NtCsej5P1MWAjDV_10rustc_hash13FxBuildHasherE0ECs73ymBF2OK4c_14rustc_metadata
librustc_driver-fa31e2489381cd18.so:_RINvMs6_NtCs95Vga1zx3Wm_9hashbrown3rawINtB6_8RawTableTNtNtCsiP3zVQcHmFl_10rustc_span6symbol6SymbolNtNtCs785ZPy54HPh_12rustc_expand4base19SyntaxExtensionKindEE14reserve_rehashNCINvNtB8_3map11make_hasherBQ_B1y_NtCsej5P1MWAjDV_10rustc_hash13FxBuildHasherE0ECs3VMMNsKb80B_13rustc_resolve
librustc_driver-fa31e2489381cd18.so:_RINvMs6_NtCs95Vga1zx3Wm_9hashbrown3rawINtB6_8RawTableTNtNtCsiP3zVQcHmFl_10rustc_span6symbol6SymbolNtNtCsaqNsllmwM5m_12rustc_middle4mono11CodegenUnitEE14reserve_rehashNCINvNtB8_3map11make_hasherBQ_B1y_NtCsej5P1MWAjDV_10rustc_hash13FxBuildHasherE0ECs1yK2jRAc0XL_18rustc_monomorphize
librustc_driver-fa31e2489381cd18.so:_RINvMs6_NtCs95Vga1zx3Wm_9hashbrown3rawINtB6_8RawTableTNtNtCsiP3zVQcHmFl_10rustc_span6symbol6SymbolNtNtCsgvX44DZTN43_5alloc6string6StringEE14reserve_rehashNCINvNtB8_3map11make_hasherBQ_B1y_NtCsej5P1MWAjDV_10rustc_hash13FxBuildHasherE0ECs1yK2jRAc0XL_18rustc_monomorphize
librustc_driver-fa31e2489381cd18.so:_RINvMs6_NtCs95Vga1zx3Wm_9hashbrown3rawINtB6_8RawTableTNtNtCsiP3zVQcHmFl_10rustc_span6symbol6SymbolRNtNtCs3KflAWMuICG_9rustc_hir3hir8FieldDefEE14reserve_rehashNCINvNtB8_3map11make_hasherBQ_B1y_NtCsej5P1MWAjDV_10rustc_hash13FxBuildHasherE0ECs1ufPwUoOuD2_10rustc_lint
librustc_driver-fa31e2489381cd18.so:_RINvMs6_NtCs95Vga1zx3Wm_9hashbrown3rawINtB6_8RawTableTNtNtCsiP3zVQcHmFl_10rustc_span6symbol6SymbolRNtNtCsg41qY91e8nt_13rustc_feature13builtin_attrs16BuiltinAttributeEE14reserve_rehashNCINvNtB8_3map11make_hasherBQ_B1y_NtCsej5P1MWAjDV_10rustc_hash13FxBuildHasherE0EB1D_
librustc_driver-fa31e2489381cd18.so:_RINvMs6_NtCs95Vga1zx3Wm_9hashbrown3rawINtB6_8RawTableTNtNtCsiP3zVQcHmFl_10rustc_span6symbol6SymbolRNtNtNtCsirwAroatyKs_18rustc_codegen_llvm4llvm3ffi5ValueEE14reserve_rehashNCINvNtB8_3map11make_hasherBQ_B1y_NtCsej5P1MWAjDV_10rustc_hash13FxBuildHasherE0EB1F_
librustc_driver-fa31e2489381cd18.so:_RINvMs6_NtCs95Vga1zx3Wm_9hashbrown3rawINtB6_8RawTableTNtNtCsiP3zVQcHmFl_10rustc_span6symbol6SymbolTBQ_NtNtBU_13span_encoding4SpanbEEE14reserve_rehashNCINvNtB8_3map11make_hasherBQ_B1y_NtCsej5P1MWAjDV_10rustc_hash13FxBuildHasherE0ECs1ufPwUoOuD2_10rustc_lint
librustc_driver-fa31e2489381cd18.so:_RINvMs6_NtCs95Vga1zx3Wm_9hashbrown3rawINtB6_8RawTableTNtNtCsiP3zVQcHmFl_10rustc_span6symbol6SymbolTNtNtNtCsaqNsllmwM5m_12rustc_middle6middle12lib_features16FeatureStabilityNtNtBU_13span_encoding4SpanEEE14reserve_rehashNCINvNtB8_3map11make_hasherBQ_B1y_NtCsej5P1MWAjDV_10rustc_hash13FxBuildHasherE0ECs73ymBF2OK4c_14rustc_metadata
librustc_driver-fa31e2489381cd18.so:_RINvMs6_NtCs95Vga1zx3Wm_9hashbrown3rawINtB6_8RawTableTNtNtCsiP3zVQcHmFl_10rustc_span6symbol6SymbolTNtNtNtCsaqNsllmwM5m_12rustc_middle6middle12lib_features16FeatureStabilityNtNtBU_13span_encoding4SpanEEE14reserve_rehashNCINvNtB8_3map11make_hasherBQ_B1y_NtCsej5P1MWAjDV_10rustc_hash13FxBuildHasherE0ECserPFC4ou40o_12rustc_passes
librustc_driver-fa31e2489381cd18.so:_RINvMs6_NtCs95Vga1zx3Wm_9hashbrown3rawINtB6_8RawTableTNtNtCsiP3zVQcHmFl_10rustc_span6symbol6SymbolbEE14reserve_rehashNCINvNtB8_3map11make_hasherBQ_bNtCsej5P1MWAjDV_10rustc_hash13FxBuildHasherE0ECsepwHxkHh5iF_18rustc_attr_parsing
librustc_driver-fa31e2489381cd18.so:_RINvMs6_NtCs95Vga1zx3Wm_9hashbrown3rawINtB6_8RawTableTNtNtCsiP3zVQcHmFl_10rustc_span6symbol6SymboljEE14reserve_rehashNCINvNtB8_3map11make_hasherBQ_jNtCsej5P1MWAjDV_10rustc_hash13FxBuildHasherE0ECsd482UFdOvTO_9rustc_ast
librustc_driver-fa31e2489381cd18.so:_RINvMs6_NtCs95Vga1zx3Wm_9hashbrown3rawINtB6_8RawTableTNtNtCsiP3zVQcHmFl_10rustc_span6symbol6SymbolmEE14reserve_rehashNCINvNtB8_3map11make_hasherBQ_mNtCsej5P1MWAjDV_10rustc_hash13FxBuildHasherE0ECsaSsmK69njWG_16rustc_query_impl
librustc_driver-fa31e2489381cd18.so:_RINvMs6_NtCs95Vga1zx3Wm_9hashbrown3rawINtB6_8RawTableTNtNtCsiP3zVQcHmFl_10rustc_span6symbol6SymboluEE14reserve_rehashNCINvNtB8_3map11make_hasherBQ_uNtCsej5P1MWAjDV_10rustc_hash13FxBuildHasherE0ECsg41qY91e8nt_13rustc_feature
librustc_driver-fa31e2489381cd18.so:_RINvMs6_NtCs95Vga1zx3Wm_9hashbrown3rawINtB6_8RawTableTNtNtCsiP3zVQcHmFl_10rustc_span7hygiene11LocalExpnIdINtNtCsgvX44DZTN43_5alloc3vec3VecTNtCs3VMMNsKb80B_13rustc_resolve8IdentKeyNtNtBU_13span_encoding4SpanINtNtCshmntTYxeqYP_21rustc_data_structures6intern8InternedNtB2f_8DeclDataEEEEE14reserve_rehashNCINvNtB8_3map11make_hasherBQ_B1F_NtCsej5P1MWAjDV_10rustc_hash13FxBuildHasherE0EB2f_
librustc_driver-fa31e2489381cd18.so:_RINvMs6_NtCs95Vga1zx3Wm_9hashbrown3rawINtB6_8RawTableTNtNtCsiP3zVQcHmFl_10rustc_span7hygiene11LocalExpnIdNtCs3VMMNsKb80B_13rustc_resolve10DeriveDataEE14reserve_rehashNCINvNtB8_3map11make_hasherBQ_B1F_NtCsej5P1MWAjDV_10rustc_hash13FxBuildHasherE0EB1H_
librustc_driver-fa31e2489381cd18.so:_RINvMs6_NtCs95Vga1zx3Wm_9hashbrown3rawINtB6_8RawTableTNtNtCsiP3zVQcHmFl_10rustc_span7hygiene11LocalExpnIdNtCs3VMMNsKb80B_13rustc_resolve11LocalModuleEE14reserve_rehashNCINvNtB8_3map11make_hasherBQ_B1F_NtCsej5P1MWAjDV_10rustc_hash13FxBuildHasherE0EB1H_
librustc_driver-fa31e2489381cd18.so:_RINvMs6_NtCs95Vga1zx3Wm_9hashbrown3rawINtB6_8RawTableTNtNtCsiP3zVQcHmFl_10rustc_span7hygiene11LocalExpnIdNtCs3VMMNsKb80B_13rustc_resolve11ParentScopeEE14reserve_rehashNCINvNtB8_3map11make_hasherBQ_B1F_NtCsej5P1MWAjDV_10rustc_hash13FxBuildHasherE0EB1H_
librustc_driver-fa31e2489381cd18.so:_RINvMs6_NtCs95Vga1zx3Wm_9hashbrown3rawINtB6_8RawTableTNtNtCsiP3zVQcHmFl_10rustc_span7hygiene11LocalExpnIdNtCs3VMMNsKb80B_13rustc_resolve16InvocationParentEE14reserve_rehashNCINvNtB8_3map11make_hasherBQ_B1F_NtCsej5P1MWAjDV_10rustc_hash13FxBuildHasherE0EB1H_
librustc_driver-fa31e2489381cd18.so:_RINvMs6_NtCs95Vga1zx3Wm_9hashbrown3rawINtB6_8RawTableTNtNtCsiP3zVQcHmFl_10rustc_span7hygiene11LocalExpnIdRINtNtCs6e3rAaajRpB_4core4cell4CellNtNtCs3VMMNsKb80B_13rustc_resolve6macros15MacroRulesScopeEEE14reserve_rehashNCINvNtB8_3map11make_hasherBQ_B1F_NtCsej5P1MWAjDV_10rustc_hash13FxBuildHasherE0EB2i_
librustc_driver-fa31e2489381cd18.so:_RINvMs6_NtCs95Vga1zx3Wm_9hashbrown3rawINtB6_8RawTableTNtNtCsiP3zVQcHmFl_10rustc_span7hygiene11LocalExpnIduEE14reserve_rehashNCINvNtB8_3map11make_hasherBQ_uNtCsej5P1MWAjDV_10rustc_hash13FxBuildHasherE0ECs3VMMNsKb80B_13rustc_resolve
librustc_driver-fa31e2489381cd18.so:_RINvMs6_NtCs95Vga1zx3Wm_9hashbrown3rawINtB6_8RawTableTNtNtCsiP3zVQcHmFl_10rustc_span7hygiene13SyntaxContextBQ_EE14reserve_rehashNCINvNtB8_3map11make_hasherBQ_BQ_NtCsej5P1MWAjDV_10rustc_hash13FxBuildHasherE0ECs785ZPy54HPh_12rustc_expand
librustc_driver-fa31e2489381cd18.so:_RINvMs6_NtCs95Vga1zx3Wm_9hashbrown3rawINtB6_8RawTableTNtNtCsiP3zVQcHmFl_10rustc_span7hygiene13SyntaxContextuEE14reserve_rehashNCINvNtB8_3map11make_hasherBQ_uNtCsej5P1MWAjDV_10rustc_hash13FxBuildHasherE0ECsaqNsllmwM5m_12rustc_middle
librustc_driver-fa31e2489381cd18.so:_RINvMs6_NtCs95Vga1zx3Wm_9hashbrown3rawINtB6_8RawTableTNtNtCsiP3zVQcHmFl_10rustc_span7hygiene6ExpnIdNtBS_8ExpnDataEE14reserve_rehashNCINvNtB8_3map11make_hasherBQ_B1z_NtCsej5P1MWAjDV_10rustc_hash13FxBuildHasherE0EBU_
librustc_driver-fa31e2489381cd18.so:_RINvMs6_NtCs95Vga1zx3Wm_9hashbrown3rawINtB6_8RawTableTNtNtCsiP3zVQcHmFl_10rustc_span7hygiene6ExpnIdNtBS_8ExpnHashEE14reserve_rehashNCINvNtB8_3map11make_hasherBQ_B1z_NtCsej5P1MWAjDV_10rustc_hash13FxBuildHasherE0EBU_
librustc_driver-fa31e2489381cd18.so:_RINvMs6_NtCs95Vga1zx3Wm_9hashbrown3rawINtB6_8RawTableTNtNtCsiP3zVQcHmFl_10rustc_span7hygiene6ExpnIduEE14reserve_rehashNCINvNtB8_3map11make_hasherBQ_uNtCsej5P1MWAjDV_10rustc_hash13FxBuildHasherE0EBU_
librustc_driver-fa31e2489381cd18.so:_RINvMs6_NtCs95Vga1zx3Wm_9hashbrown3rawINtB6_8RawTableTNtNtCsiP3zVQcHmFl_10rustc_span7hygiene8ExpnHashNtBS_6ExpnIdEE14reserve_rehashNCINvNtB8_3map11make_hasherBQ_B1B_INtNtCs6e3rAaajRpB_4core4hash18BuildHasherDefaultNtNtCshmntTYxeqYP_21rustc_data_structures6unhash8UnhasherEE0EBU_
librustc_driver-fa31e2489381cd18.so:_RINvMs6_NtCs95Vga1zx3Wm_9hashbrown3rawINtB6_8RawTableTNtNtCsiP3zVQcHmFl_10rustc_span7hygiene8ExpnHashNtBS_9ExpnIndexEE14reserve_rehashNCINvNtB8_3map11make_hasherBQ_B1B_INtNtCs6e3rAaajRpB_4core4hash18BuildHasherDefaultNtNtCshmntTYxeqYP_21rustc_data_structures6unhash8UnhasherEE0ECs73ymBF2OK4c_14rustc_metadata
librustc_driver-fa31e2489381cd18.so:_RINvMs6_NtCs95Vga1zx3Wm_9hashbrown3rawINtB6_8RawTableTNtNtCsiP3zVQcHmFl_10rustc_span7hygiene8ExpnHashNtNtNtCsaqNsllmwM5m_12rustc_middle5query13on_disk_cache15AbsoluteBytePosEE14reserve_rehashNCINvNtB8_3map11make_hasherBQ_B1B_INtNtCs6e3rAaajRpB_4core4hash18BuildHasherDefaultNtNtCshmntTYxeqYP_21rustc_data_structures6unhash8UnhasherEE0EB1H_
librustc_driver-fa31e2489381cd18.so:_RINvMs6_NtCs95Vga1zx3Wm_9hashbrown3rawINtB6_8RawTableTNtNtCsiP3zVQcHmFl_10rustc_span7hygiene8ExpnHashmEE14reserve_rehashNCINvNtB8_3map11make_hasherBQ_mINtNtCs6e3rAaajRpB_4core4hash18BuildHasherDefaultNtNtCshmntTYxeqYP_21rustc_data_structures6unhash8UnhasherEE0ECsaqNsllmwM5m_12rustc_middle
librustc_driver-fa31e2489381cd18.so:_RINvMs6_NtCs95Vga1zx3Wm_9hashbrown3rawINtB6_8RawTableTNtNtCsiflJ6ENogzZ_9measureme13serialization7PageTagINtNtCsgvX44DZTN43_5alloc3vec3VechEEE14reserve_rehashNCINvNtB8_3map11make_hasherBQ_B1F_INtNtCs6e3rAaajRpB_4core4hash18BuildHasherDefaultNtCs1R7AtWWBmXA_10rustc_hash8FxHasherEE0EBU_
librustc_driver-fa31e2489381cd18.so:_RINvMs6_NtCs95Vga1zx3Wm_9hashbrown3rawINtB6_8RawTableTNtNtCskHBMKP8yMGa_6object5write15StandardSectionNtBS_9SectionIdEE14reserve_rehashNCINvNtB8_3map11make_hasherBQ_B1C_NtNtNtCskurZfFSl0zB_3std4hash6random11RandomStateE0EBU_
librustc_driver-fa31e2489381cd18.so:_RINvMs6_NtCs95Vga1zx3Wm_9hashbrown3rawINtB6_8RawTableTNtNtCskHBMKP8yMGa_6object5write8SymbolIdBQ_EE14reserve_rehashNCINvNtB8_3map11make_hasherBQ_BQ_NtNtNtCskurZfFSl0zB_3std4hash6random11RandomStateE0EBU_
librustc_driver-fa31e2489381cd18.so:_RINvMs6_NtCs95Vga1zx3Wm_9hashbrown3rawINtB6_8RawTableTNtNtCskurZfFSl0zB_3std4path7PathBufINtNtCs6e3rAaajRpB_4core6option6OptionNtNtNtCshmntTYxeqYP_21rustc_data_structures5flock5linux4LockEEE14reserve_rehashNCINvNtB8_3map11make_hasherBQ_B1p_NtCsej5P1MWAjDV_10rustc_hash13FxBuildHasherE0ECslloyL1UMMzU_17rustc_incremental
librustc_driver-fa31e2489381cd18.so:_RINvMs6_NtCs95Vga1zx3Wm_9hashbrown3rawINtB6_8RawTableTNtNtCskurZfFSl0zB_3std4path7PathBufuEE14reserve_rehashNCINvNtB8_3map11make_hasherBQ_uNtCsej5P1MWAjDV_10rustc_hash13FxBuildHasherE0ECs8svpH8FC8uE_13rustc_session
librustc_driver-fa31e2489381cd18.so:_RINvMs6_NtCs95Vga1zx3Wm_9hashbrown3rawINtB6_8RawTableTNtNtCsl5MakceMktk_14rustc_borrowck11constraints18ConstraintSccIndexINtNtCsgvX44DZTN43_5alloc3vec3VecRNtNtNtBU_12region_infer12opaque_types11DefiningUseEEE14reserve_rehashNCINvNtB8_3map11make_hasherBQ_B1V_NtCsej5P1MWAjDV_10rustc_hash13FxBuildHasherE0EBU_
librustc_driver-fa31e2489381cd18.so:_RINvMs6_NtCs95Vga1zx3Wm_9hashbrown3rawINtB6_8RawTableTNtNtCsl5MakceMktk_14rustc_borrowck11constraints18ConstraintSccIndexuEE14reserve_rehashNCINvNtB8_3map11make_hasherBQ_uNtCsej5P1MWAjDV_10rustc_hash13FxBuildHasherE0EBU_
librustc_driver-fa31e2489381cd18.so:_RINvMs6_NtCs95Vga1zx3Wm_9hashbrown3rawINtB6_8RawTableTNtNtCsl5MakceMktk_14rustc_borrowck8dataflow11BorrowIndexuEE14reserve_rehashNCINvNtB8_3map11make_hasherBQ_uINtNtCs6e3rAaajRpB_4core4hash18BuildHasherDefaultNtCs1R7AtWWBmXA_10rustc_hash8FxHasherEE0EBU_
librustc_driver-fa31e2489381cd18.so:_RINvMs6_NtCs95Vga1zx3Wm_9hashbrown3rawINtB6_8RawTableTNtNtNtCs1yK2jRAc0XL_18rustc_monomorphize12graph_checks7statics12StaticSccIdxuEE14reserve_rehashNCINvNtB8_3map11make_hasherBQ_uNtCsej5P1MWAjDV_10rustc_hash13FxBuildHasherE0EBW_
librustc_driver-fa31e2489381cd18.so:_RINvMs6_NtCs95Vga1zx3Wm_9hashbrown3rawINtB6_8RawTableTNtNtNtCs3KflAWMuICG_9rustc_hir5attrs15data_structures9CrateTypeINtNtCsgvX44DZTN43_5alloc3vec3VecTNtNtB1W_6string6StringNtNtNtCsaqNsllmwM5m_12rustc_middle6middle16exported_symbols16SymbolExportKindEEEE14reserve_rehashNCINvNtB8_3map11make_hasherBQ_B1R_NtCsej5P1MWAjDV_10rustc_hash13FxBuildHasherE0ECsg0ydQtPiXpO_17rustc_codegen_ssa
librustc_driver-fa31e2489381cd18.so:_RINvMs6_NtCs95Vga1zx3Wm_9hashbrown3rawINtB6_8RawTableTNtNtNtCs7RlYbh05zWS_16rustc_const_eval9interpret5place8MPlaceTyuEE14reserve_rehashNCINvNtB8_3map11make_hasherBQ_uNtCsej5P1MWAjDV_10rustc_hash13FxBuildHasherE0EBW_
librustc_driver-fa31e2489381cd18.so:_RINvMs6_NtCs95Vga1zx3Wm_9hashbrown3rawINtB6_8RawTableTNtNtNtCsPGgg1SovgA_15rustc_mir_build7builder5scope11DropNodeKeyNtBS_7DropIdxEE14reserve_rehashNCINvNtB8_3map11make_hasherBQ_B1R_NtCsej5P1MWAjDV_10rustc_hash13FxBuildHasherE0EBW_
librustc_driver-fa31e2489381cd18.so:_RINvMs6_NtCs95Vga1zx3Wm_9hashbrown3rawINtB6_8RawTableTNtNtNtCsaqNsllmwM5m_12rustc_middle2ty12generic_args10GenericArgBQ_EE14reserve_rehashNCINvNtB8_3map11make_hasherBQ_BQ_NtCsej5P1MWAjDV_10rustc_hash13FxBuildHasherE0EBW_
librustc_driver-fa31e2489381cd18.so:_RINvMs6_NtCs95Vga1zx3Wm_9hashbrown3rawINtB6_8RawTableTNtNtNtCsaqNsllmwM5m_12rustc_middle2ty12generic_args10GenericArgNtCsbByapOItfY5_13rustc_type_ir8BoundVarEE14reserve_rehashNCINvNtB8_3map11make_hasherBQ_B1R_NtCsej5P1MWAjDV_10rustc_hash13FxBuildHasherE0ECsfWGFs8tRit9_11rustc_infer
librustc_driver-fa31e2489381cd18.so:_RINvMs6_NtCs95Vga1zx3Wm_9hashbrown3rawINtB6_8RawTableTNtNtNtCsaqNsllmwM5m_12rustc_middle2ty12generic_args10GenericArgjEE14reserve_rehashNCINvNtB8_3map11make_hasherBQ_jNtCsej5P1MWAjDV_10rustc_hash13FxBuildHasherE0ECs7ZgcGxgGJUk_21rustc_trait_selection
librustc_driver-fa31e2489381cd18.so:_RINvMs6_NtCs95Vga1zx3Wm_9hashbrown3rawINtB6_8RawTableTNtNtNtCsaqNsllmwM5m_12rustc_middle2ty12generic_args10GenericArguEE14reserve_rehashNCINvNtB8_3map11make_hasherBQ_uNtCsej5P1MWAjDV_10rustc_hash13FxBuildHasherE0ECs7ZgcGxgGJUk_21rustc_trait_selection
librustc_driver-fa31e2489381cd18.so:_RINvMs6_NtCs95Vga1zx3Wm_9hashbrown3rawINtB6_8RawTableTNtNtNtCsaqNsllmwM5m_12rustc_middle2ty6consts5ConstjEE14reserve_rehashNCINvNtB8_3map11make_hasherBQ_jNtCsej5P1MWAjDV_10rustc_hash13FxBuildHasherE0ECskwoenDyO11E_21rustc_symbol_mangling
librustc_driver-fa31e2489381cd18.so:_RINvMs6_NtCs95Vga1zx3Wm_9hashbrown3rawINtB6_8RawTableTNtNtNtCsaqNsllmwM5m_12rustc_middle2ty6region6RegionBQ_EE14reserve_rehashNCINvNtB8_3map11make_hasherBQ_BQ_NtCsej5P1MWAjDV_10rustc_hash13FxBuildHasherE0ECsbmrvFwx9VJk_14rustc_ty_utils
librustc_driver-fa31e2489381cd18.so:_RINvMs6_NtCs95Vga1zx3Wm_9hashbrown3rawINtB6_8RawTableTNtNtNtCsaqNsllmwM5m_12rustc_middle2ty6region6RegionuEE14reserve_rehashNCINvNtB8_3map11make_hasherBQ_uNtCsej5P1MWAjDV_10rustc_hash13FxBuildHasherE0ECscUPtgnKeETP_18rustc_hir_analysis
librustc_driver-fa31e2489381cd18.so:_RINvMs6_NtCs95Vga1zx3Wm_9hashbrown3rawINtB6_8RawTableTNtNtNtCsaqNsllmwM5m_12rustc_middle2ty8instance8InstanceRNtNtNtCsirwAroatyKs_18rustc_codegen_llvm4llvm3ffi5ValueEE14reserve_rehashNCINvNtB8_3map11make_hasherBQ_B1J_NtCsej5P1MWAjDV_10rustc_hash13FxBuildHasherE0EB1Q_
librustc_driver-fa31e2489381cd18.so:_RINvMs6_NtCs95Vga1zx3Wm_9hashbrown3rawINtB6_8RawTableTNtNtNtCsaqNsllmwM5m_12rustc_middle2ty8instance8InstanceRNtNtNtCsirwAroatyKs_18rustc_codegen_llvm4llvm3ffi8MetadataEE14reserve_rehashNCINvNtB8_3map11make_hasherBQ_B1J_NtCsej5P1MWAjDV_10rustc_hash13FxBuildHasherE0EB1Q_
librustc_driver-fa31e2489381cd18.so:_RINvMs6_NtCs95Vga1zx3Wm_9hashbrown3rawINtB6_8RawTableTNtNtNtCsaqNsllmwM5m_12rustc_middle2ty8instance8InstancebEE14reserve_rehashNCINvNtB8_3map11make_hasherBQ_bNtCsej5P1MWAjDV_10rustc_hash13FxBuildHasherE0ECs4DnJvQYATGa_19rustc_mir_transform
librustc_driver-fa31e2489381cd18.so:_RINvMs6_NtCs95Vga1zx3Wm_9hashbrown3rawINtB6_8RawTableTNtNtNtCsaqNsllmwM5m_12rustc_middle2ty9predicate9PredicateuEE14reserve_rehashNCINvNtB8_3map11make_hasherBQ_uNtCsej5P1MWAjDV_10rustc_hash13FxBuildHasherE0ECsfWGFs8tRit9_11rustc_infer
librustc_driver-fa31e2489381cd18.so:_RINvMs6_NtCs95Vga1zx3Wm_9hashbrown3rawINtB6_8RawTableTNtNtNtCsaqNsllmwM5m_12rustc_middle3mir6syntax5PlaceINtNtCsgvX44DZTN43_5alloc3vec3VecTNtBU_8LocationNtCsdeppuzfODI3_9rustc_abi13WrappingRangeEEEE14reserve_rehashNCINvNtB8_3map11make_hasherBQ_B1F_NtCsej5P1MWAjDV_10rustc_hash13FxBuildHasherE0ECs4DnJvQYATGa_19rustc_mir_transform
librustc_driver-fa31e2489381cd18.so:_RINvMs6_NtCs95Vga1zx3Wm_9hashbrown3rawINtB6_8RawTableTNtNtNtCsaqNsllmwM5m_12rustc_middle3mir8coverage10ExpressionNtBS_7CovTermEE14reserve_rehashNCINvNtB8_3map11make_hasherBQ_B1N_NtCsej5P1MWAjDV_10rustc_hash13FxBuildHasherE0ECs4DnJvQYATGa_19rustc_mir_transform
librustc_driver-fa31e2489381cd18.so:_RINvMs6_NtCs95Vga1zx3Wm_9hashbrown3rawINtB6_8RawTableTNtNtNtCsaqNsllmwM5m_12rustc_middle3mir8coverage18BasicCoverageBlockuEE14reserve_rehashNCINvNtB8_3map11make_hasherBQ_uNtCsej5P1MWAjDV_10rustc_hash13FxBuildHasherE0ECs4DnJvQYATGa_19rustc_mir_transform
librustc_driver-fa31e2489381cd18.so:_RINvMs6_NtCs95Vga1zx3Wm_9hashbrown3rawINtB6_8RawTableTNtNtNtCsaqNsllmwM5m_12rustc_middle3mir9interpret7AllocIduEE14reserve_rehashNCINvNtB8_3map11make_hasherBQ_uNtCsej5P1MWAjDV_10rustc_hash13FxBuildHasherE0ECs7RlYbh05zWS_16rustc_const_eval
librustc_driver-fa31e2489381cd18.so:_RINvMs6_NtCs95Vga1zx3Wm_9hashbrown3rawINtB6_8RawTableTNtNtNtCsaqNsllmwM5m_12rustc_middle3mir9statement8PlaceRefuEE14reserve_rehashNCINvNtB8_3map11make_hasherBQ_uNtCsej5P1MWAjDV_10rustc_hash13FxBuildHasherE0ECs4DnJvQYATGa_19rustc_mir_transform
librustc_driver-fa31e2489381cd18.so:_RINvMs6_NtCs95Vga1zx3Wm_9hashbrown3rawINtB6_8RawTableTNtNtNtCsaqNsllmwM5m_12rustc_middle5query13on_disk_cache15SourceFileIndexINtNtCsgvX44DZTN43_5alloc4sync3ArcNtCsiP3zVQcHmFl_10rustc_span10SourceFileEEE14reserve_rehashNCINvNtB8_3map11make_hasherBQ_B20_NtCsej5P1MWAjDV_10rustc_hash13FxBuildHasherE0EBW_
librustc_driver-fa31e2489381cd18.so:_RINvMs6_NtCs95Vga1zx3Wm_9hashbrown3rawINtB6_8RawTableTNtNtNtCsaqNsllmwM5m_12rustc_middle5query13on_disk_cache15SourceFileIndexNtBS_19EncodedSourceFileIdEE14reserve_rehashNCINvNtB8_3map11make_hasherBQ_B20_NtCsej5P1MWAjDV_10rustc_hash13FxBuildHasherE0EBW_
librustc_driver-fa31e2489381cd18.so:_RINvMs6_NtCs95Vga1zx3Wm_9hashbrown3rawINtB6_8RawTableTNtNtNtCsaqNsllmwM5m_12rustc_middle5query3job10QueryJobIdNtNtCsaSsmK69njWG_16rustc_query_impl3job12QueryJobInfoEE14reserve_rehashNCINvNtB8_3map11make_hasherBQ_B1K_NtCsej5P1MWAjDV_10rustc_hash13FxBuildHasherE0EB1O_
librustc_driver-fa31e2489381cd18.so:_RINvMs6_NtCs95Vga1zx3Wm_9hashbrown3rawINtB6_8RawTableTNtNtNtCsaqNsllmwM5m_12rustc_middle5query3job10QueryJobIduEE14reserve_rehashNCINvNtB8_3map11make_hasherBQ_uNtCsej5P1MWAjDV_10rustc_hash13FxBuildHasherE0ECsaSsmK69njWG_16rustc_query_impl
librustc_driver-fa31e2489381cd18.so:_RINvMs6_NtCs95Vga1zx3Wm_9hashbrown3rawINtB6_8RawTableTNtNtNtCsaqNsllmwM5m_12rustc_middle9dep_graph10serialized22SerializedDepNodeIndexNtNtNtBW_5query13on_disk_cache15AbsoluteBytePosEE14reserve_rehashNCINvNtB8_3map11make_hasherBQ_B28_NtCsej5P1MWAjDV_10rustc_hash13FxBuildHasherE0EBW_
librustc_driver-fa31e2489381cd18.so:_RINvMs6_NtCs95Vga1zx3Wm_9hashbrown3rawINtB6_8RawTableTNtNtNtCsaqNsllmwM5m_12rustc_middle9dep_graph5graph12DepNodeIndexuEE14reserve_rehashNCINvNtB8_3map11make_hasherBQ_uNtCsej5P1MWAjDV_10rustc_hash13FxBuildHasherE0EBW_
librustc_driver-fa31e2489381cd18.so:_RINvMs6_NtCs95Vga1zx3Wm_9hashbrown3rawINtB6_8RawTableTNtNtNtCsaqNsllmwM5m_12rustc_middle9dep_graph8dep_node13WorkProductIdNtNtBU_5graph11WorkProductEE14reserve_rehashNCINvNtB8_3map11make_hasherBQ_B1W_NtCsej5P1MWAjDV_10rustc_hash13FxBuildHasherE0ECslloyL1UMMzU_17rustc_incremental
librustc_driver-fa31e2489381cd18.so:_RINvMs6_NtCs95Vga1zx3Wm_9hashbrown3rawINtB6_8RawTableTNtNtNtCsaqNsllmwM5m_12rustc_middle9dep_graph8dep_node7DepKindNtNtBU_10serialized4StatEE14reserve_rehashNCINvNtB8_3map11make_hasherBQ_B1P_NtCsej5P1MWAjDV_10rustc_hash13FxBuildHasherE0EBW_
librustc_driver-fa31e2489381cd18.so:_RINvMs6_NtCs95Vga1zx3Wm_9hashbrown3rawINtB6_8RawTableTNtNtNtCsaqNsllmwM5m_12rustc_middle9dep_graph8dep_node7DepNodeINtNtBW_2ty20PseudoCanonicalInputINtNtCsbByapOItfY5_13rustc_type_ir9predicate8TraitRefNtNtB1S_7context6TyCtxtEEEE14reserve_rehashNCINvNtB8_3map11make_hasherBQ_B1P_NtCsej5P1MWAjDV_10rustc_hash13FxBuildHasherE0ECsaSsmK69njWG_16rustc_query_impl
librustc_driver-fa31e2489381cd18.so:_RINvMs6_NtCs95Vga1zx3Wm_9hashbrown3rawINtB6_8RawTableTNtNtNtCsaqNsllmwM5m_12rustc_middle9dep_graph8dep_node7DepNodeINtNtBW_2ty20PseudoCanonicalInputNtB1S_2TyEEE14reserve_rehashNCINvNtB8_3map11make_hasherBQ_B1P_NtCsej5P1MWAjDV_10rustc_hash13FxBuildHasherE0ECsaSsmK69njWG_16rustc_query_impl
librustc_driver-fa31e2489381cd18.so:_RINvMs6_NtCs95Vga1zx3Wm_9hashbrown3rawINtB6_8RawTableTNtNtNtCsaqNsllmwM5m_12rustc_middle9dep_graph8dep_node7DepNodeINtNtBW_2ty20PseudoCanonicalInputNtNtB1S_12generic_args10GenericArgEEE14reserve_rehashNCINvNtB8_3map11make_hasherBQ_B1P_NtCsej5P1MWAjDV_10rustc_hash13FxBuildHasherE0ECsaSsmK69njWG_16rustc_query_impl
librustc_driver-fa31e2489381cd18.so:_RINvMs6_NtCs95Vga1zx3Wm_9hashbrown3rawINtB6_8RawTableTNtNtNtCsaqNsllmwM5m_12rustc_middle9dep_graph8dep_node7DepNodeINtNtBW_2ty20PseudoCanonicalInputNtNtNtBW_3mir9interpret8GlobalIdEEE14reserve_rehashNCINvNtB8_3map11make_hasherBQ_B1P_NtCsej5P1MWAjDV_10rustc_hash13FxBuildHasherE0ECsaSsmK69njWG_16rustc_query_impl
librustc_driver-fa31e2489381cd18.so:_RINvMs6_NtCs95Vga1zx3Wm_9hashbrown3rawINtB6_8RawTableTNtNtNtCsaqNsllmwM5m_12rustc_middle9dep_graph8dep_node7DepNodeINtNtBW_2ty20PseudoCanonicalInputTINtNtCsbByapOItfY5_13rustc_type_ir6binder6BinderNtNtB1S_7context6TyCtxtINtNtB2s_7ty_kind5FnSigB39_EERINtNtB1S_4list7RawListuNtB1S_2TyEEEEE14reserve_rehashNCINvNtB8_3map11make_hasherBQ_B1P_NtCsej5P1MWAjDV_10rustc_hash13FxBuildHasherE0ECsaSsmK69njWG_16rustc_query_impl
librustc_driver-fa31e2489381cd18.so:_RINvMs6_NtCs95Vga1zx3Wm_9hashbrown3rawINtB6_8RawTableTNtNtNtCsaqNsllmwM5m_12rustc_middle9dep_graph8dep_node7DepNodeINtNtBW_2ty20PseudoCanonicalInputTNtB1S_2TyNtNtCsdeppuzfODI3_9rustc_abi6layout10VariantIdxEEEE14reserve_rehashNCINvNtB8_3map11make_hasherBQ_B1P_NtCsej5P1MWAjDV_10rustc_hash13FxBuildHasherE0ECsaSsmK69njWG_16rustc_query_impl
librustc_driver-fa31e2489381cd18.so:_RINvMs6_NtCs95Vga1zx3Wm_9hashbrown3rawINtB6_8RawTableTNtNtNtCsaqNsllmwM5m_12rustc_middle9dep_graph8dep_node7DepNodeINtNtBW_2ty20PseudoCanonicalInputTNtNtB1S_8instance8InstanceRINtNtB1S_4list7RawListuNtB1S_2TyEEEEE14reserve_rehashNCINvNtB8_3map11make_hasherBQ_B1P_NtCsej5P1MWAjDV_10rustc_hash13FxBuildHasherE0ECsaSsmK69njWG_16rustc_query_impl
librustc_driver-fa31e2489381cd18.so:_RINvMs6_NtCs95Vga1zx3Wm_9hashbrown3rawINtB6_8RawTableTNtNtNtCsaqNsllmwM5m_12rustc_middle9dep_graph8dep_node7DepNodeINtNtBW_2ty20PseudoCanonicalInputTNtNtCsiP3zVQcHmFl_10rustc_span6def_id5DefIdRINtNtB1S_4list7RawListuNtNtB1S_12generic_args10GenericArgEEEEE14reserve_rehashNCINvNtB8_3map11make_hasherBQ_B1P_NtCsej5P1MWAjDV_10rustc_hash13FxBuildHasherE0ECsaSsmK69njWG_16rustc_query_impl
librustc_driver-fa31e2489381cd18.so:_RINvMs6_NtCs95Vga1zx3Wm_9hashbrown3rawINtB6_8RawTableTNtNtNtCsaqNsllmwM5m_12rustc_middle9dep_graph8dep_node7DepNodeINtNtCs6e3rAaajRpB_4core6option6OptionNtNtCsiP3zVQcHmFl_10rustc_span6symbol6SymbolEEE14reserve_rehashNCINvNtB8_3map11make_hasherBQ_B1P_NtCsej5P1MWAjDV_10rustc_hash13FxBuildHasherE0ECsaSsmK69njWG_16rustc_query_impl
librustc_driver-fa31e2489381cd18.so:_RINvMs6_NtCs95Vga1zx3Wm_9hashbrown3rawINtB6_8RawTableTNtNtNtCsaqNsllmwM5m_12rustc_middle9dep_graph8dep_node7DepNodeINtNtCsbByapOItfY5_13rustc_type_ir11fast_reject14SimplifiedTypeNtNtCsiP3zVQcHmFl_10rustc_span6def_id5DefIdEEE14reserve_rehashNCINvNtB8_3map11make_hasherBQ_B1P_NtCsej5P1MWAjDV_10rustc_hash13FxBuildHasherE0ECsaSsmK69njWG_16rustc_query_impl
librustc_driver-fa31e2489381cd18.so:_RINvMs6_NtCs95Vga1zx3Wm_9hashbrown3rawINtB6_8RawTableTNtNtNtCsaqNsllmwM5m_12rustc_middle9dep_graph8dep_node7DepNodeINtNtCsbByapOItfY5_13rustc_type_ir9canonical19CanonicalQueryInputNtNtNtBW_2ty7context6TyCtxtINtB2W_11ParamEnvAndINtNtB1U_9predicate9AliasTermB2S_EEEEE14reserve_rehashNCINvNtB8_3map11make_hasherBQ_B1P_NtCsej5P1MWAjDV_10rustc_hash13FxBuildHasherE0ECsaSsmK69njWG_16rustc_query_impl
librustc_driver-fa31e2489381cd18.so:_RINvMs6_NtCs95Vga1zx3Wm_9hashbrown3rawINtB6_8RawTableTNtNtNtCsaqNsllmwM5m_12rustc_middle9dep_graph8dep_node7DepNodeINtNtCsbByapOItfY5_13rustc_type_ir9canonical19CanonicalQueryInputNtNtNtBW_2ty7context6TyCtxtINtB2W_11ParamEnvAndINtNtNtNtBW_6traits5query7type_op9NormalizeINtNtB1U_6binder6BinderB2S_INtNtB1U_7ty_kind5FnSigB2S_EEEEEEE14reserve_rehashNCINvNtB8_3map11make_hasherBQ_B1P_NtCsej5P1MWAjDV_10rustc_hash13FxBuildHasherE0ECsaSsmK69njWG_16rustc_query_impl
librustc_driver-fa31e2489381cd18.so:_RINvMs6_NtCs95Vga1zx3Wm_9hashbrown3rawINtB6_8RawTableTNtNtNtCsaqNsllmwM5m_12rustc_middle9dep_graph8dep_node7DepNodeINtNtCsbByapOItfY5_13rustc_type_ir9canonical19CanonicalQueryInputNtNtNtBW_2ty7context6TyCtxtINtB2W_11ParamEnvAndINtNtNtNtBW_6traits5query7type_op9NormalizeINtNtB1U_7ty_kind5FnSigB2S_EEEEEE14reserve_rehashNCINvNtB8_3map11make_hasherBQ_B1P_NtCsej5P1MWAjDV_10rustc_hash13FxBuildHasherE0ECsaSsmK69njWG_16rustc_query_impl
librustc_driver-fa31e2489381cd18.so:_RINvMs6_NtCs95Vga1zx3Wm_9hashbrown3rawINtB6_8RawTableTNtNtNtCsaqNsllmwM5m_12rustc_middle9dep_graph8dep_node7DepNodeINtNtCsbByapOItfY5_13rustc_type_ir9canonical19CanonicalQueryInputNtNtNtBW_2ty7context6TyCtxtINtB2W_11ParamEnvAndINtNtNtNtBW_6traits5query7type_op9NormalizeNtB2W_2TyEEEEE14reserve_rehashNCINvNtB8_3map11make_hasherBQ_B1P_NtCsej5P1MWAjDV_10rustc_hash13FxBuildHasherE0ECsaSsmK69njWG_16rustc_query_impl
librustc_driver-fa31e2489381cd18.so:_RINvMs6_NtCs95Vga1zx3Wm_9hashbrown3rawINtB6_8RawTableTNtNtNtCsaqNsllmwM5m_12rustc_middle9dep_graph8dep_node7DepNodeINtNtCsbByapOItfY5_13rustc_type_ir9canonical19CanonicalQueryInputNtNtNtBW_2ty7context6TyCtxtINtB2W_11ParamEnvAndINtNtNtNtBW_6traits5query7type_op9NormalizeNtNtB2W_9predicate6ClauseEEEEE14reserve_rehashNCINvNtB8_3map11make_hasherBQ_B1P_NtCsej5P1MWAjDV_10rustc_hash13FxBuildHasherE0ECsaSsmK69njWG_16rustc_query_impl
librustc_driver-fa31e2489381cd18.so:_RINvMs6_NtCs95Vga1zx3Wm_9hashbrown3rawINtB6_8RawTableTNtNtNtCsaqNsllmwM5m_12rustc_middle9dep_graph8dep_node7DepNodeINtNtCsbByapOItfY5_13rustc_type_ir9canonical19CanonicalQueryInputNtNtNtBW_2ty7context6TyCtxtINtB2W_11ParamEnvAndNtNtB2W_9predicate9PredicateEEEE14reserve_rehashNCINvNtB8_3map11make_hasherBQ_B1P_NtCsej5P1MWAjDV_10rustc_hash13FxBuildHasherE0ECsaSsmK69njWG_16rustc_query_impl
librustc_driver-fa31e2489381cd18.so:_RINvMs6_NtCs95Vga1zx3Wm_9hashbrown3rawINtB6_8RawTableTNtNtNtCsaqNsllmwM5m_12rustc_middle9dep_graph8dep_node7DepNodeINtNtCsbByapOItfY5_13rustc_type_ir9canonical19CanonicalQueryInputNtNtNtBW_2ty7context6TyCtxtINtB2W_11ParamEnvAndNtNtNtBW_6traits5query20MethodAutoderefStepsEEEE14reserve_rehashNCINvNtB8_3map11make_hasherBQ_B1P_NtCsej5P1MWAjDV_10rustc_hash13FxBuildHasherE0ECsaSsmK69njWG_16rustc_query_impl
librustc_driver-fa31e2489381cd18.so:_RINvMs6_NtCs95Vga1zx3Wm_9hashbrown3rawINtB6_8RawTableTNtNtNtCsaqNsllmwM5m_12rustc_middle9dep_graph8dep_node7DepNodeINtNtCsbByapOItfY5_13rustc_type_ir9canonical19CanonicalQueryInputNtNtNtBW_2ty7context6TyCtxtINtB2W_11ParamEnvAndNtNtNtNtBW_6traits5query7type_op14DropckOutlivesEEEE14reserve_rehashNCINvNtB8_3map11make_hasherBQ_B1P_NtCsej5P1MWAjDV_10rustc_hash13FxBuildHasherE0ECsaSsmK69njWG_16rustc_query_impl
librustc_driver-fa31e2489381cd18.so:_RINvMs6_NtCs95Vga1zx3Wm_9hashbrown3rawINtB6_8RawTableTNtNtNtCsaqNsllmwM5m_12rustc_middle9dep_graph8dep_node7DepNodeINtNtCsbByapOItfY5_13rustc_type_ir9canonical19CanonicalQueryInputNtNtNtBW_2ty7context6TyCtxtINtB2W_11ParamEnvAndNtNtNtNtBW_6traits5query7type_op14ProvePredicateEEEE14reserve_rehashNCINvNtB8_3map11make_hasherBQ_B1P_NtCsej5P1MWAjDV_10rustc_hash13FxBuildHasherE0ECsaSsmK69njWG_16rustc_query_impl
librustc_driver-fa31e2489381cd18.so:_RINvMs6_NtCs95Vga1zx3Wm_9hashbrown3rawINtB6_8RawTableTNtNtNtCsaqNsllmwM5m_12rustc_middle9dep_graph8dep_node7DepNodeINtNtCsbByapOItfY5_13rustc_type_ir9canonical19CanonicalQueryInputNtNtNtBW_2ty7context6TyCtxtINtB2W_11ParamEnvAndNtNtNtNtBW_6traits5query7type_op15AscribeUserTypeEEEE14reserve_rehashNCINvNtB8_3map11make_hasherBQ_B1P_NtCsej5P1MWAjDV_10rustc_hash13FxBuildHasherE0ECsaSsmK69njWG_16rustc_query_impl
librustc_driver-fa31e2489381cd18.so:_RINvMs6_NtCs95Vga1zx3Wm_9hashbrown3rawINtB6_8RawTableTNtNtNtCsaqNsllmwM5m_12rustc_middle9dep_graph8dep_node7DepNodeINtNtCsbByapOItfY5_13rustc_type_ir9canonical19CanonicalQueryInputNtNtNtBW_2ty7context6TyCtxtINtNtB1U_5solve10QueryInputB2S_NtNtB2W_9predicate9PredicateEEEE14reserve_rehashNCINvNtB8_3map11make_hasherBQ_B1P_NtCsej5P1MWAjDV_10rustc_hash13FxBuildHasherE0ECsaSsmK69njWG_16rustc_query_impl
librustc_driver-fa31e2489381cd18.so:_RINvMs6_NtCs95Vga1zx3Wm_9hashbrown3rawINtB6_8RawTableTNtNtNtCsaqNsllmwM5m_12rustc_middle9dep_graph8dep_node7DepNodeINtNtCsbByapOItfY5_13rustc_type_ir9predicate8TraitRefNtNtNtBW_2ty7context6TyCtxtEEE14reserve_rehashNCINvNtB8_3map11make_hasherBQ_B1P_NtCsej5P1MWAjDV_10rustc_hash13FxBuildHasherE0ECsaSsmK69njWG_16rustc_query_impl
librustc_driver-fa31e2489381cd18.so:_RINvMs6_NtCs95Vga1zx3Wm_9hashbrown3rawINtB6_8RawTableTNtNtNtCsaqNsllmwM5m_12rustc_middle9dep_graph8dep_node7DepNodeNtCs6ahoKXGLX5z_12rustc_hir_id7OwnerIdEE14reserve_rehashNCINvNtB8_3map11make_hasherBQ_B1P_NtCsej5P1MWAjDV_10rustc_hash13FxBuildHasherE0ECsaSsmK69njWG_16rustc_query_impl
librustc_driver-fa31e2489381cd18.so:_RINvMs6_NtCs95Vga1zx3Wm_9hashbrown3rawINtB6_8RawTableTNtNtNtCsaqNsllmwM5m_12rustc_middle9dep_graph8dep_node7DepNodeNtNtBW_2ty2TyEE14reserve_rehashNCINvNtB8_3map11make_hasherBQ_B1P_NtCsej5P1MWAjDV_10rustc_hash13FxBuildHasherE0ECsaSsmK69njWG_16rustc_query_impl
librustc_driver-fa31e2489381cd18.so:_RINvMs6_NtCs95Vga1zx3Wm_9hashbrown3rawINtB6_8RawTableTNtNtNtCsaqNsllmwM5m_12rustc_middle9dep_graph8dep_node7DepNodeNtNtCsiP3zVQcHmFl_10rustc_span6def_id10LocalDefIdEE14reserve_rehashNCINvNtB8_3map11make_hasherBQ_B1P_NtCsej5P1MWAjDV_10rustc_hash13FxBuildHasherE0ECsaSsmK69njWG_16rustc_query_impl
librustc_driver-fa31e2489381cd18.so:_RINvMs6_NtCs95Vga1zx3Wm_9hashbrown3rawINtB6_8RawTableTNtNtNtCsaqNsllmwM5m_12rustc_middle9dep_graph8dep_node7DepNodeNtNtCsiP3zVQcHmFl_10rustc_span6def_id13LocalModDefIdEE14reserve_rehashNCINvNtB8_3map11make_hasherBQ_B1P_NtCsej5P1MWAjDV_10rustc_hash13FxBuildHasherE0ECsaSsmK69njWG_16rustc_query_impl
librustc_driver-fa31e2489381cd18.so:_RINvMs6_NtCs95Vga1zx3Wm_9hashbrown3rawINtB6_8RawTableTNtNtNtCsaqNsllmwM5m_12rustc_middle9dep_graph8dep_node7DepNodeNtNtCsiP3zVQcHmFl_10rustc_span6def_id5DefIdEE14reserve_rehashNCINvNtB8_3map11make_hasherBQ_B1P_NtCsej5P1MWAjDV_10rustc_hash13FxBuildHasherE0ECsaSsmK69njWG_16rustc_query_impl
librustc_driver-fa31e2489381cd18.so:_RINvMs6_NtCs95Vga1zx3Wm_9hashbrown3rawINtB6_8RawTableTNtNtNtCsaqNsllmwM5m_12rustc_middle9dep_graph8dep_node7DepNodeNtNtCsiP3zVQcHmFl_10rustc_span6def_id8CrateNumEE14reserve_rehashNCINvNtB8_3map11make_hasherBQ_B1P_NtCsej5P1MWAjDV_10rustc_hash13FxBuildHasherE0ECsaSsmK69njWG_16rustc_query_impl
librustc_driver-fa31e2489381cd18.so:_RINvMs6_NtCs95Vga1zx3Wm_9hashbrown3rawINtB6_8RawTableTNtNtNtCsaqNsllmwM5m_12rustc_middle9dep_graph8dep_node7DepNodeNtNtCsiP3zVQcHmFl_10rustc_span6symbol6SymbolEE14reserve_rehashNCINvNtB8_3map11make_hasherBQ_B1P_NtCsej5P1MWAjDV_10rustc_hash13FxBuildHasherE0ECsaSsmK69njWG_16rustc_query_impl
librustc_driver-fa31e2489381cd18.so:_RINvMs6_NtCs95Vga1zx3Wm_9hashbrown3rawINtB6_8RawTableTNtNtNtCsaqNsllmwM5m_12rustc_middle9dep_graph8dep_node7DepNodeNtNtNtBW_2ty8instance12InstanceKindEE14reserve_rehashNCINvNtB8_3map11make_hasherBQ_B1P_NtCsej5P1MWAjDV_10rustc_hash13FxBuildHasherE0ECsaSsmK69njWG_16rustc_query_impl
librustc_driver-fa31e2489381cd18.so:_RINvMs6_NtCs95Vga1zx3Wm_9hashbrown3rawINtB6_8RawTableTNtNtNtCsaqNsllmwM5m_12rustc_middle9dep_graph8dep_node7DepNodeNtNtNtBW_2ty8instance8InstanceEE14reserve_rehashNCINvNtB8_3map11make_hasherBQ_B1P_NtCsej5P1MWAjDV_10rustc_hash13FxBuildHasherE0ECsaSsmK69njWG_16rustc_query_impl
librustc_driver-fa31e2489381cd18.so:_RINvMs6_NtCs95Vga1zx3Wm_9hashbrown3rawINtB6_8RawTableTNtNtNtCsaqNsllmwM5m_12rustc_middle9dep_graph8dep_node7DepNodeNtNtNtCshmntTYxeqYP_21rustc_data_structures5graph12linked_graph9NodeIndexEE14reserve_rehashNCINvNtB8_3map11make_hasherBQ_B1P_NtCsej5P1MWAjDV_10rustc_hash13FxBuildHasherE0EBW_
librustc_driver-fa31e2489381cd18.so:_RINvMs6_NtCs95Vga1zx3Wm_9hashbrown3rawINtB6_8RawTableTNtNtNtCsaqNsllmwM5m_12rustc_middle9dep_graph8dep_node7DepNodeNtNtNtNtBW_2ty6consts3lit15LitToConstInputEE14reserve_rehashNCINvNtB8_3map11make_hasherBQ_B1P_NtCsej5P1MWAjDV_10rustc_hash13FxBuildHasherE0ECsaSsmK69njWG_16rustc_query_impl
librustc_driver-fa31e2489381cd18.so:_RINvMs6_NtCs95Vga1zx3Wm_9hashbrown3rawINtB6_8RawTableTNtNtNtCsaqNsllmwM5m_12rustc_middle9dep_graph8dep_node7DepNodeNtNtNtNtBW_2ty6consts7valtree5ValueEE14reserve_rehashNCINvNtB8_3map11make_hasherBQ_B1P_NtCsej5P1MWAjDV_10rustc_hash13FxBuildHasherE0ECsaSsmK69njWG_16rustc_query_impl
librustc_driver-fa31e2489381cd18.so:_RINvMs6_NtCs95Vga1zx3Wm_9hashbrown3rawINtB6_8RawTableTNtNtNtCsaqNsllmwM5m_12rustc_middle9dep_graph8dep_node7DepNodeRINtNtNtBW_2ty4list7RawListNtB1T_8TypeInfoNtNtB1V_9predicate6ClauseEEE14reserve_rehashNCINvNtB8_3map11make_hasherBQ_B1P_NtCsej5P1MWAjDV_10rustc_hash13FxBuildHasherE0ECsaSsmK69njWG_16rustc_query_impl
librustc_driver-fa31e2489381cd18.so:_RINvMs6_NtCs95Vga1zx3Wm_9hashbrown3rawINtB6_8RawTableTNtNtNtCsaqNsllmwM5m_12rustc_middle9dep_graph8dep_node7DepNodeRINtNtNtBW_2ty4list7RawListuNtNtB1V_12generic_args10GenericArgEEE14reserve_rehashNCINvNtB8_3map11make_hasherBQ_B1P_NtCsej5P1MWAjDV_10rustc_hash13FxBuildHasherE0ECsaSsmK69njWG_16rustc_query_impl
librustc_driver-fa31e2489381cd18.so:_RINvMs6_NtCs95Vga1zx3Wm_9hashbrown3rawINtB6_8RawTableTNtNtNtCsaqNsllmwM5m_12rustc_middle9dep_graph8dep_node7DepNodeRNtNtNtCskurZfFSl0zB_3std3ffi6os_str5OsStrEE14reserve_rehashNCINvNtB8_3map11make_hasherBQ_B1P_NtCsej5P1MWAjDV_10rustc_hash13FxBuildHasherE0ECsaSsmK69njWG_16rustc_query_impl
librustc_driver-fa31e2489381cd18.so:_RINvMs6_NtCs95Vga1zx3Wm_9hashbrown3rawINtB6_8RawTableTNtNtNtCsaqNsllmwM5m_12rustc_middle9dep_graph8dep_node7DepNodeTINtNtCsbByapOItfY5_13rustc_type_ir9canonical19CanonicalQueryInputNtNtNtBW_2ty7context6TyCtxtINtB2X_11ParamEnvAndNtNtNtNtBW_6traits5query7type_op21ImpliedOutlivesBoundsEEbEEE14reserve_rehashNCINvNtB8_3map11make_hasherBQ_B1P_NtCsej5P1MWAjDV_10rustc_hash13FxBuildHasherE0ECsaSsmK69njWG_16rustc_query_impl
librustc_driver-fa31e2489381cd18.so:_RINvMs6_NtCs95Vga1zx3Wm_9hashbrown3rawINtB6_8RawTableTNtNtNtCsaqNsllmwM5m_12rustc_middle9dep_graph8dep_node7DepNodeTNtNtBW_2ty2TyB1Q_EEE14reserve_rehashNCINvNtB8_3map11make_hasherBQ_B1P_NtCsej5P1MWAjDV_10rustc_hash13FxBuildHasherE0ECsaSsmK69njWG_16rustc_query_impl
librustc_driver-fa31e2489381cd18.so:_RINvMs6_NtCs95Vga1zx3Wm_9hashbrown3rawINtB6_8RawTableTNtNtNtCsaqNsllmwM5m_12rustc_middle9dep_graph8dep_node7DepNodeTNtNtBW_2ty2TyINtNtCs6e3rAaajRpB_4core6option6OptionINtNtCsbByapOItfY5_13rustc_type_ir9predicate19ExistentialTraitRefNtNtB1S_7context6TyCtxtEEEEE14reserve_rehashNCINvNtB8_3map11make_hasherBQ_B1P_NtCsej5P1MWAjDV_10rustc_hash13FxBuildHasherE0ECsaSsmK69njWG_16rustc_query_impl
librustc_driver-fa31e2489381cd18.so:_RINvMs6_NtCs95Vga1zx3Wm_9hashbrown3rawINtB6_8RawTableTNtNtNtCsaqNsllmwM5m_12rustc_middle9dep_graph8dep_node7DepNodeTNtNtCsiP3zVQcHmFl_10rustc_span6def_id10LocalDefIdB1Q_NtNtB1U_6symbol5IdentEEE14reserve_rehashNCINvNtB8_3map11make_hasherBQ_B1P_NtCsej5P1MWAjDV_10rustc_hash13FxBuildHasherE0ECsaSsmK69njWG_16rustc_query_impl
librustc_driver-fa31e2489381cd18.so:_RINvMs6_NtCs95Vga1zx3Wm_9hashbrown3rawINtB6_8RawTableTNtNtNtCsaqNsllmwM5m_12rustc_middle9dep_graph8dep_node7DepNodeTNtNtCsiP3zVQcHmFl_10rustc_span6def_id5DefIdB1Q_EEE14reserve_rehashNCINvNtB8_3map11make_hasherBQ_B1P_NtCsej5P1MWAjDV_10rustc_hash13FxBuildHasherE0ECsaSsmK69njWG_16rustc_query_impl
librustc_driver-fa31e2489381cd18.so:_RINvMs6_NtCs95Vga1zx3Wm_9hashbrown3rawINtB6_8RawTableTNtNtNtCsaqNsllmwM5m_12rustc_middle9dep_graph8dep_node7DepNodeTNtNtCsiP3zVQcHmFl_10rustc_span6def_id5DefIdNtNtB1U_6symbol5IdentEEE14reserve_rehashNCINvNtB8_3map11make_hasherBQ_B1P_NtCsej5P1MWAjDV_10rustc_hash13FxBuildHasherE0ECsaSsmK69njWG_16rustc_query_impl
librustc_driver-fa31e2489381cd18.so:_RINvMs6_NtCs95Vga1zx3Wm_9hashbrown3rawINtB6_8RawTableTNtNtNtCsaqNsllmwM5m_12rustc_middle9dep_graph8dep_node7DepNodeTNtNtCsiP3zVQcHmFl_10rustc_span6def_id5DefIdNtNtCsbByapOItfY5_13rustc_type_ir5solve14SizedTraitKindEEE14reserve_rehashNCINvNtB8_3map11make_hasherBQ_B1P_NtCsej5P1MWAjDV_10rustc_hash13FxBuildHasherE0ECsaSsmK69njWG_16rustc_query_impl
librustc_driver-fa31e2489381cd18.so:_RINvMs6_NtCs95Vga1zx3Wm_9hashbrown3rawINtB6_8RawTableTNtNtNtCsaqNsllmwM5m_12rustc_middle9dep_graph8dep_node7DepNodeTNtNtCsiP3zVQcHmFl_10rustc_span6def_id5DefIdRINtNtNtBW_2ty4list7RawListuNtNtB2D_12generic_args10GenericArgEEEE14reserve_rehashNCINvNtB8_3map11make_hasherBQ_B1P_NtCsej5P1MWAjDV_10rustc_hash13FxBuildHasherE0ECsaSsmK69njWG_16rustc_query_impl
librustc_driver-fa31e2489381cd18.so:_RINvMs6_NtCs95Vga1zx3Wm_9hashbrown3rawINtB6_8RawTableTNtNtNtCsaqNsllmwM5m_12rustc_middle9dep_graph8dep_node7DepNodeTNtNtCsiP3zVQcHmFl_10rustc_span6def_id8CrateNumINtNtCsbByapOItfY5_13rustc_type_ir11fast_reject14SimplifiedTypeNtB1S_5DefIdEEEE14reserve_rehashNCINvNtB8_3map11make_hasherBQ_B1P_NtCsej5P1MWAjDV_10rustc_hash13FxBuildHasherE0ECsaSsmK69njWG_16rustc_query_impl
librustc_driver-fa31e2489381cd18.so:_RINvMs6_NtCs95Vga1zx3Wm_9hashbrown3rawINtB6_8RawTableTNtNtNtCsaqNsllmwM5m_12rustc_middle9dep_graph8dep_node7DepNodeTNtNtCsiP3zVQcHmFl_10rustc_span6def_id8CrateNumNtB1S_5DefIdEEE14reserve_rehashNCINvNtB8_3map11make_hasherBQ_B1P_NtCsej5P1MWAjDV_10rustc_hash13FxBuildHasherE0ECsaSsmK69njWG_16rustc_query_impl
librustc_driver-fa31e2489381cd18.so:_RINvMs6_NtCs95Vga1zx3Wm_9hashbrown3rawINtB6_8RawTableTNtNtNtCsaqNsllmwM5m_12rustc_middle9dep_graph8dep_node7DepNodeTNtNtCsiP3zVQcHmFl_10rustc_span7hygiene11LocalExpnIdRNtNtCsd482UFdOvTO_9rustc_ast11tokenstream11TokenStreamEEE14reserve_rehashNCINvNtB8_3map11make_hasherBQ_B1P_NtCsej5P1MWAjDV_10rustc_hash13FxBuildHasherE0ECsaSsmK69njWG_16rustc_query_impl
librustc_driver-fa31e2489381cd18.so:_RINvMs6_NtCs95Vga1zx3Wm_9hashbrown3rawINtB6_8RawTableTNtNtNtCsaqNsllmwM5m_12rustc_middle9dep_graph8dep_node7DepNodeTNtNtNtBW_2ty6layout19ValidityRequirementINtB1U_20PseudoCanonicalInputNtB1U_2TyEEEE14reserve_rehashNCINvNtB8_3map11make_hasherBQ_B1P_NtCsej5P1MWAjDV_10rustc_hash13FxBuildHasherE0ECsaSsmK69njWG_16rustc_query_impl
librustc_driver-fa31e2489381cd18.so:_RINvMs6_NtCs95Vga1zx3Wm_9hashbrown3rawINtB6_8RawTableTNtNtNtCsaqNsllmwM5m_12rustc_middle9dep_graph8dep_node7DepNodeTNtNtNtBW_2ty8instance8InstanceNtNtBW_4mono14CollectionModeEEE14reserve_rehashNCINvNtB8_3map11make_hasherBQ_B1P_NtCsej5P1MWAjDV_10rustc_hash13FxBuildHasherE0ECsaSsmK69njWG_16rustc_query_impl
librustc_driver-fa31e2489381cd18.so:_RINvMs6_NtCs95Vga1zx3Wm_9hashbrown3rawINtB6_8RawTableTNtNtNtCsaqNsllmwM5m_12rustc_middle9dep_graph8dep_node7DepNodeTNtNtNtBW_2ty9predicate9PredicateNtNtBW_6traits13WellFormedLocEEE14reserve_rehashNCINvNtB8_3map11make_hasherBQ_B1P_NtCsej5P1MWAjDV_10rustc_hash13FxBuildHasherE0ECsaSsmK69njWG_16rustc_query_impl
librustc_driver-fa31e2489381cd18.so:_RINvMs6_NtCs95Vga1zx3Wm_9hashbrown3rawINtB6_8RawTableTNtNtNtCsaqNsllmwM5m_12rustc_middle9dep_graph8dep_node7DepNodeuEE14reserve_rehashNCINvNtB8_3map11make_hasherBQ_uNtCsej5P1MWAjDV_10rustc_hash13FxBuildHasherE0EBW_
librustc_driver-fa31e2489381cd18.so:_RINvMs6_NtCs95Vga1zx3Wm_9hashbrown3rawINtB6_8RawTableTNtNtNtCsbByapOItfY5_13rustc_type_ir12search_graph5stack10StackDepthNtBU_10HeadUsagesEE14reserve_rehashNCINvNtB8_3map11make_hasherBQ_B1V_NtCsej5P1MWAjDV_10rustc_hash13FxBuildHasherE0EBW_
librustc_driver-fa31e2489381cd18.so:_RINvMs6_NtCs95Vga1zx3Wm_9hashbrown3rawINtB6_8RawTableTNtNtNtCsfWGFs8tRit9_11rustc_infer5infer18region_constraints10ConstraintuEE14reserve_rehashNCINvNtB8_3map11make_hasherBQ_uNtCsej5P1MWAjDV_10rustc_hash13FxBuildHasherE0EBW_
librustc_driver-fa31e2489381cd18.so:_RINvMs6_NtCs95Vga1zx3Wm_9hashbrown3rawINtB6_8RawTableTNtNtNtCsfWGFs8tRit9_11rustc_infer5infer18region_constraints10TwoRegionsNtNtCsbByapOItfY5_13rustc_type_ir11region_kind9RegionVidEE14reserve_rehashNCINvNtB8_3map11make_hasherBQ_B1Z_NtCsej5P1MWAjDV_10rustc_hash13FxBuildHasherE0EBW_
librustc_driver-fa31e2489381cd18.so:_RINvMs6_NtCs95Vga1zx3Wm_9hashbrown3rawINtB6_8RawTableTNtNtNtCsfWGFs8tRit9_11rustc_infer6traits7project18ProjectionCacheKeyNtBS_20ProjectionCacheEntryEE14reserve_rehashNCINvNtB8_3map11make_hasherBQ_B1W_NtCsej5P1MWAjDV_10rustc_hash13FxBuildHasherE0EBW_
librustc_driver-fa31e2489381cd18.so:_RINvMs6_NtCs95Vga1zx3Wm_9hashbrown3rawINtB6_8RawTableTNtNtNtCsl5MakceMktk_14rustc_borrowck8polonius11constraints13LocalizedNodeINtNtCs7KwMrq602nF_8indexmap3set8IndexSetNtNtCsbByapOItfY5_13rustc_type_ir11region_kind9RegionVidNtCsej5P1MWAjDV_10rustc_hash13FxBuildHasherEEE14reserve_rehashNCINvNtB8_3map11make_hasherBQ_B21_B3A_E0EBW_
librustc_driver-fa31e2489381cd18.so:_RINvMs6_NtCs95Vga1zx3Wm_9hashbrown3rawINtB6_8RawTableTNtNtNtCsl5MakceMktk_14rustc_borrowck8polonius11constraints13LocalizedNodeuEE14reserve_rehashNCINvNtB8_3map11make_hasherBQ_uNtCsej5P1MWAjDV_10rustc_hash13FxBuildHasherE0EBW_
librustc_driver-fa31e2489381cd18.so:_RINvMs6_NtCs95Vga1zx3Wm_9hashbrown3rawINtB6_8RawTableTNtNtNtNtCs5kKxLxgs1gB_14regex_automata4util11determinize5state5StateNtNtBW_10primitives7StateIDEE14reserve_rehashNCINvNtB8_3map11make_hasherBQ_B1W_NtNtNtCskurZfFSl0zB_3std4hash6random11RandomStateE0EBY_
librustc_driver-fa31e2489381cd18.so:_RINvMs6_NtCs95Vga1zx3Wm_9hashbrown3rawINtB6_8RawTableTNtNtNtNtCs5kKxLxgs1gB_14regex_automata4util11determinize5state5StateNtNtNtBY_6hybrid2id11LazyStateIDEE14reserve_rehashNCINvNtB8_3map11make_hasherBQ_B1W_NtNtNtCskurZfFSl0zB_3std4hash6random11RandomStateE0EBY_
librustc_driver-fa31e2489381cd18.so:_RINvMs6_NtCs95Vga1zx3Wm_9hashbrown3rawINtB6_8RawTableTNtNtNtNtCsfWGFs8tRit9_11rustc_infer5infer18region_constraints10leak_check12LeakCheckSccuEE14reserve_rehashNCINvNtB8_3map11make_hasherBQ_uNtCsej5P1MWAjDV_10rustc_hash13FxBuildHasherE0EBY_
librustc_driver-fa31e2489381cd18.so:_RINvMs6_NtCs95Vga1zx3Wm_9hashbrown3rawINtB6_8RawTableTNtNtNtNtCsirwAroatyKs_18rustc_codegen_llvm9debuginfo8metadata8type_map12UniqueTypeIdRNtNtNtBY_4llvm3ffi8MetadataEE14reserve_rehashNCINvNtB8_3map11make_hasherBQ_B2c_NtCsej5P1MWAjDV_10rustc_hash13FxBuildHasherE0EBY_
librustc_driver-fa31e2489381cd18.so:_RINvMs6_NtCs95Vga1zx3Wm_9hashbrown3rawINtB6_8RawTableTNtNtNtNtCsl5MakceMktk_14rustc_borrowck8polonius6legacy5facts17PoloniusRegionVidINtNtNtNtCsgvX44DZTN43_5alloc11collections5btree3set8BTreeSetBQ_EEE14reserve_rehashNCINvNtB8_3map11make_hasherBQ_B27_INtNtCs6e3rAaajRpB_4core4hash18BuildHasherDefaultNtCs1R7AtWWBmXA_10rustc_hash8FxHasherEE0EBY_
librustc_driver-fa31e2489381cd18.so:_RINvMs6_NtCs95Vga1zx3Wm_9hashbrown3rawINtB6_8RawTableTNtNtNtNtCsl5MakceMktk_14rustc_borrowck8polonius6legacy5facts17PoloniusRegionVidINtNtNtNtCsgvX44DZTN43_5alloc11collections5btree3set8BTreeSetNtNtBY_8dataflow11BorrowIndexEEE14reserve_rehashNCINvNtB8_3map11make_hasherBQ_B27_INtNtCs6e3rAaajRpB_4core4hash18BuildHasherDefaultNtCs1R7AtWWBmXA_10rustc_hash8FxHasherEE0EBY_
librustc_driver-fa31e2489381cd18.so:_RINvMs6_NtCs95Vga1zx3Wm_9hashbrown3rawINtB6_8RawTableTNtNtNtNtCsl5MakceMktk_14rustc_borrowck8polonius6legacy8location13LocationIndexINtNtCsgvX44DZTN43_5alloc3vec3VecNtNtBU_5facts17PoloniusRegionVidEEE14reserve_rehashNCINvNtB8_3map11make_hasherBQ_B26_INtNtCs6e3rAaajRpB_4core4hash18BuildHasherDefaultNtCs1R7AtWWBmXA_10rustc_hash8FxHasherEE0EBY_
librustc_driver-fa31e2489381cd18.so:_RINvMs6_NtCs95Vga1zx3Wm_9hashbrown3rawINtB6_8RawTableTNtNtNtNtCsl5MakceMktk_14rustc_borrowck8polonius6legacy8location13LocationIndexINtNtCsgvX44DZTN43_5alloc3vec3VecNtNtBY_8dataflow11BorrowIndexEEE14reserve_rehashNCINvNtB8_3map11make_hasherBQ_B26_INtNtCs6e3rAaajRpB_4core4hash18BuildHasherDefaultNtCs1R7AtWWBmXA_10rustc_hash8FxHasherEE0EBY_
librustc_driver-fa31e2489381cd18.so:_RINvMs6_NtCs95Vga1zx3Wm_9hashbrown3rawINtB6_8RawTableTNtNtNtNtCsl5MakceMktk_14rustc_borrowck8polonius6legacy8location13LocationIndexINtNtCsgvX44DZTN43_5alloc3vec3VecNtNtCs8Oewc4Z7MhZ_18rustc_mir_dataflow10move_paths13MovePathIndexEEE14reserve_rehashNCINvNtB8_3map11make_hasherBQ_B26_INtNtCs6e3rAaajRpB_4core4hash18BuildHasherDefaultNtCs1R7AtWWBmXA_10rustc_hash8FxHasherEE0EBY_
librustc_driver-fa31e2489381cd18.so:_RINvMs6_NtCs95Vga1zx3Wm_9hashbrown3rawINtB6_8RawTableTNtNtNtNtCsl5MakceMktk_14rustc_borrowck8polonius6legacy8location13LocationIndexINtNtCsgvX44DZTN43_5alloc3vec3VecNtNtCsaqNsllmwM5m_12rustc_middle3mir5LocalEEE14reserve_rehashNCINvNtB8_3map11make_hasherBQ_B26_INtNtCs6e3rAaajRpB_4core4hash18BuildHasherDefaultNtCs1R7AtWWBmXA_10rustc_hash8FxHasherEE0EBY_
librustc_driver-fa31e2489381cd18.so:_RINvMs6_NtCs95Vga1zx3Wm_9hashbrown3rawINtB6_8RawTableTNtNtNtNtCsl5MakceMktk_14rustc_borrowck8polonius6legacy8location13LocationIndexINtNtNtNtCsgvX44DZTN43_5alloc11collections5btree3map8BTreeMapNtNtBU_5facts17PoloniusRegionVidINtNtB2b_3set8BTreeSetB35_EEEE14reserve_rehashNCINvNtB8_3map11make_hasherBQ_B26_INtNtCs6e3rAaajRpB_4core4hash18BuildHasherDefaultNtCs1R7AtWWBmXA_10rustc_hash8FxHasherEE0EBY_
librustc_driver-fa31e2489381cd18.so:_RINvMs6_NtCs95Vga1zx3Wm_9hashbrown3rawINtB6_8RawTableTNtNtNtNtCsl5MakceMktk_14rustc_borrowck8polonius6legacy8location13LocationIndexINtNtNtNtCsgvX44DZTN43_5alloc11collections5btree3map8BTreeMapNtNtBU_5facts17PoloniusRegionVidINtNtB2b_3set8BTreeSetNtNtBY_8dataflow11BorrowIndexEEEE14reserve_rehashNCINvNtB8_3map11make_hasherBQ_B26_INtNtCs6e3rAaajRpB_4core4hash18BuildHasherDefaultNtCs1R7AtWWBmXA_10rustc_hash8FxHasherEE0EBY_
librustc_driver-fa31e2489381cd18.so:_RINvMs6_NtCs95Vga1zx3Wm_9hashbrown3rawINtB6_8RawTableTNtNtNtNtCsl5MakceMktk_14rustc_borrowck8polonius6legacy8location13LocationIndexINtNtNtNtCsgvX44DZTN43_5alloc11collections5btree3set8BTreeSetTNtNtBU_5facts17PoloniusRegionVidB36_EEEE14reserve_rehashNCINvNtB8_3map11make_hasherBQ_B26_INtNtCs6e3rAaajRpB_4core4hash18BuildHasherDefaultNtCs1R7AtWWBmXA_10rustc_hash8FxHasherEE0EBY_
librustc_driver-fa31e2489381cd18.so:_RINvMs6_NtCs95Vga1zx3Wm_9hashbrown3rawINtB6_8RawTableTNtNtNtNtNtCsimsxGpgf9v2_16rustc_sanitizers3cfi6typeid15itanium_cxx_abi6encode7DictKeyjEE14reserve_rehashNCINvNtB8_3map11make_hasherBQ_jNtCsej5P1MWAjDV_10rustc_hash13FxBuildHasherE0EB10_
librustc_driver-fa31e2489381cd18.so:_RINvMs6_NtCs95Vga1zx3Wm_9hashbrown3rawINtB6_8RawTableTPNtCsiP3zVQcHmFl_10rustc_span10SourceFileNtNtNtCsaqNsllmwM5m_12rustc_middle5query13on_disk_cache15SourceFileIndexEE14reserve_rehashNCINvNtB8_3map11make_hasherBQ_B1v_NtCsej5P1MWAjDV_10rustc_hash13FxBuildHasherE0EB1B_
librustc_driver-fa31e2489381cd18.so:_RINvMs6_NtCs95Vga1zx3Wm_9hashbrown3rawINtB6_8RawTableTRINtNtCsb0NW3Zcr2eh_22rustc_pattern_analysis3pat16DeconstructedPatNtNtBW_5rustc12RustcPatCtxtEuEE14reserve_rehashNCINvNtB8_3map11make_hasherBQ_uNtCsej5P1MWAjDV_10rustc_hash13FxBuildHasherE0EBW_
librustc_driver-fa31e2489381cd18.so:_RINvMs6_NtCs95Vga1zx3Wm_9hashbrown3rawINtB6_8RawTableTRINtNtNtCsaqNsllmwM5m_12rustc_middle2ty4list7RawListNtBU_8TypeInfoNtNtBW_9predicate6ClauseEjEE14reserve_rehashNCINvNtB8_3map11make_hasherBQ_jNtCsej5P1MWAjDV_10rustc_hash13FxBuildHasherE0ECsfWGFs8tRit9_11rustc_infer
librustc_driver-fa31e2489381cd18.so:_RINvMs6_NtCs95Vga1zx3Wm_9hashbrown3rawINtB6_8RawTableTRINtNtNtCsaqNsllmwM5m_12rustc_middle2ty4list7RawListuNtNtBW_12generic_args10GenericArgENtNtCsiP3zVQcHmFl_10rustc_span6def_id8CrateNumEE14reserve_rehashNCINvNtB8_3map11make_hasherBQ_B2f_NtCsej5P1MWAjDV_10rustc_hash13FxBuildHasherE0ECsg0ydQtPiXpO_17rustc_codegen_ssa
librustc_driver-fa31e2489381cd18.so:_RINvMs6_NtCs95Vga1zx3Wm_9hashbrown3rawINtB6_8RawTableTRNtNtCsaqNsllmwM5m_12rustc_middle3mir10BasicBlockuEE14reserve_rehashNCINvNtB8_3map11make_hasherBQ_uNtCsej5P1MWAjDV_10rustc_hash13FxBuildHasherE0ECs4DnJvQYATGa_19rustc_mir_transform
librustc_driver-fa31e2489381cd18.so:_RINvMs6_NtCs95Vga1zx3Wm_9hashbrown3rawINtB6_8RawTableTRNtNtCsaqNsllmwM5m_12rustc_middle4mono8MonoItemuEE14reserve_rehashNCINvNtB8_3map11make_hasherBQ_uNtCsej5P1MWAjDV_10rustc_hash13FxBuildHasherE0ECs1yK2jRAc0XL_18rustc_monomorphize
librustc_driver-fa31e2489381cd18.so:_RINvMs6_NtCs95Vga1zx3Wm_9hashbrown3rawINtB6_8RawTableTRNtNtCsgvX44DZTN43_5alloc6string6StringuEE14reserve_rehashNCINvNtB8_3map11make_hasherBQ_uNtCsej5P1MWAjDV_10rustc_hash13FxBuildHasherE0ECs8svpH8FC8uE_13rustc_session
librustc_driver-fa31e2489381cd18.so:_RINvMs6_NtCs95Vga1zx3Wm_9hashbrown3rawINtB6_8RawTableTRNtNtCsiP3zVQcHmFl_10rustc_span6symbol6SymboluEE14reserve_rehashNCINvNtB8_3map11make_hasherBQ_uNtCsej5P1MWAjDV_10rustc_hash13FxBuildHasherE0ECserPFC4ou40o_12rustc_passes
librustc_driver-fa31e2489381cd18.so:_RINvMs6_NtCs95Vga1zx3Wm_9hashbrown3rawINtB6_8RawTableTRNtNtNtCsaqNsllmwM5m_12rustc_middle2ty9predicate9PredicateuEE14reserve_rehashNCINvNtB8_3map11make_hasherBQ_uNtCsej5P1MWAjDV_10rustc_hash13FxBuildHasherE0ECs6qKlvMSJCFB_16rustc_hir_typeck
librustc_driver-fa31e2489381cd18.so:_RINvMs6_NtCs95Vga1zx3Wm_9hashbrown3rawINtB6_8RawTableTRNtNtNtCsaqNsllmwM5m_12rustc_middle3mir6syntax5PlaceuEE14reserve_rehashNCINvNtB8_3map11make_hasherBQ_uNtCsej5P1MWAjDV_10rustc_hash13FxBuildHasherE0ECs4DnJvQYATGa_19rustc_mir_transform
librustc_driver-fa31e2489381cd18.so:_RINvMs6_NtCs95Vga1zx3Wm_9hashbrown3rawINtB6_8RawTableTRNtNtNtCsirwAroatyKs_18rustc_codegen_llvm4llvm3ffi5ValueBQ_EE14reserve_rehashNCINvNtB8_3map11make_hasherBQ_BQ_NtCsej5P1MWAjDV_10rustc_hash13FxBuildHasherE0EBX_
librustc_driver-fa31e2489381cd18.so:_RINvMs6_NtCs95Vga1zx3Wm_9hashbrown3rawINtB6_8RawTableTRNtNtNtCskurZfFSl0zB_3std3ffi6os_str8OsStringuEE14reserve_rehashNCINvNtB8_3map11make_hasherBQ_uNtCsej5P1MWAjDV_10rustc_hash13FxBuildHasherE0ECsg0ydQtPiXpO_17rustc_codegen_ssa
librustc_driver-fa31e2489381cd18.so:_RINvMs6_NtCs95Vga1zx3Wm_9hashbrown3rawINtB6_8RawTableTRReRRSBR_EE14reserve_rehashNCINvNtB8_3map11make_hasherBQ_BT_NtCsej5P1MWAjDV_10rustc_hash13FxBuildHasherE0ECs3scjADIeHPO_12rustc_target
librustc_driver-fa31e2489381cd18.so:_RINvMs6_NtCs95Vga1zx3Wm_9hashbrown3rawINtB6_8RawTableTRReuEE14reserve_rehashNCINvNtB8_3map11make_hasherBQ_uNtNtNtCskurZfFSl0zB_3std4hash6random11RandomStateE0ECsg31WiIoYskP_5gsgdt
librustc_driver-fa31e2489381cd18.so:_RINvMs6_NtCs95Vga1zx3Wm_9hashbrown3rawINtB6_8RawTableTReBQ_EE14reserve_rehashNCINvNtB8_3map11make_hasherBQ_BQ_NtCsej5P1MWAjDV_10rustc_hash13FxBuildHasherE0ECs4DnJvQYATGa_19rustc_mir_transform
librustc_driver-fa31e2489381cd18.so:_RINvMs6_NtCs95Vga1zx3Wm_9hashbrown3rawINtB6_8RawTableTReINtNtCsgvX44DZTN43_5alloc3vec3VecBQ_EEE14reserve_rehashNCINvNtB8_3map11make_hasherBQ_BS_NtNtNtCskurZfFSl0zB_3std4hash6random11RandomStateE0ECsg31WiIoYskP_5gsgdt
librustc_driver-fa31e2489381cd18.so:_RINvMs6_NtCs95Vga1zx3Wm_9hashbrown3rawINtB6_8RawTableTReINtNtNtNtCskurZfFSl0zB_3std11collections4hash3set7HashSetBQ_NtCsej5P1MWAjDV_10rustc_hash13FxBuildHasherEEE14reserve_rehashNCINvNtB8_3map11make_hasherBQ_BS_B1Q_E0ECsirwAroatyKs_18rustc_codegen_llvm
librustc_driver-fa31e2489381cd18.so:_RINvMs6_NtCs95Vga1zx3Wm_9hashbrown3rawINtB6_8RawTableTReNtNtCserPFC4ou40o_12rustc_passes11input_stats4NodeEE14reserve_rehashNCINvNtB8_3map11make_hasherBQ_BS_NtCsej5P1MWAjDV_10rustc_hash13FxBuildHasherE0EBW_
librustc_driver-fa31e2489381cd18.so:_RINvMs6_NtCs95Vga1zx3Wm_9hashbrown3rawINtB6_8RawTableTReNtNtCserPFC4ou40o_12rustc_passes11input_stats9NodeStatsEE14reserve_rehashNCINvNtB8_3map11make_hasherBQ_BS_NtCsej5P1MWAjDV_10rustc_hash13FxBuildHasherE0EBW_
librustc_driver-fa31e2489381cd18.so:_RINvMs6_NtCs95Vga1zx3Wm_9hashbrown3rawINtB6_8RawTableTReNtNtNtCs9zCOSEPOh1_16rustc_proc_macro6bridge6symbol6SymbolEE14reserve_rehashNCINvNtB8_3map11make_hasherBQ_BS_INtNtCs6e3rAaajRpB_4core4hash18BuildHasherDefaultNtNtBW_6fxhash8FxHasherEE0EBY_
librustc_driver-fa31e2489381cd18.so:_RINvMs6_NtCs95Vga1zx3Wm_9hashbrown3rawINtB6_8RawTableTRebEE14reserve_rehashNCINvNtB8_3map11make_hasherBQ_bNtCsej5P1MWAjDV_10rustc_hash13FxBuildHasherE0ECsg0ydQtPiXpO_17rustc_codegen_ssa
librustc_driver-fa31e2489381cd18.so:_RINvMs6_NtCs95Vga1zx3Wm_9hashbrown3rawINtB6_8RawTableTRejEE14reserve_rehashNCINvNtB8_3map11make_hasherBQ_jNtCsej5P1MWAjDV_10rustc_hash13FxBuildHasherE0ECsg0ydQtPiXpO_17rustc_codegen_ssa
librustc_driver-fa31e2489381cd18.so:_RINvMs6_NtCs95Vga1zx3Wm_9hashbrown3rawINtB6_8RawTableTRejEE14reserve_rehashNCINvNtB8_3map11make_hasherBQ_jNtNtNtCskurZfFSl0zB_3std4hash6random11RandomStateE0ECsg31WiIoYskP_5gsgdt
librustc_driver-fa31e2489381cd18.so:_RINvMs6_NtCs95Vga1zx3Wm_9hashbrown3rawINtB6_8RawTableTReuEE14reserve_rehashNCINvNtB8_3map11make_hasherBQ_uNtCsej5P1MWAjDV_10rustc_hash13FxBuildHasherE0ECsiP3zVQcHmFl_10rustc_span
librustc_driver-fa31e2489381cd18.so:_RINvMs6_NtCs95Vga1zx3Wm_9hashbrown3rawINtB6_8RawTableTReuEE14reserve_rehashNCINvNtB8_3map11make_hasherBQ_uNtNtNtCskurZfFSl0zB_3std4hash6random11RandomStateE0ECsg31WiIoYskP_5gsgdt
librustc_driver-fa31e2489381cd18.so:_RINvMs6_NtCs95Vga1zx3Wm_9hashbrown3rawINtB6_8RawTableTReyEE14reserve_rehashNCINvNtB8_3map11make_hasherBQ_yNtNtNtCskurZfFSl0zB_3std4hash6random11RandomStateE0ECsg0ydQtPiXpO_17rustc_codegen_ssa
librustc_driver-fa31e2489381cd18.so:_RINvMs6_NtCs95Vga1zx3Wm_9hashbrown3rawINtB6_8RawTableTRjuEE14reserve_rehashNCINvNtB8_3map11make_hasherBQ_uNtCsej5P1MWAjDV_10rustc_hash13FxBuildHasherE0ECscUPtgnKeETP_18rustc_hir_analysis
librustc_driver-fa31e2489381cd18.so:_RINvMs6_NtCs95Vga1zx3Wm_9hashbrown3rawINtB6_8RawTableTTINtNtCsgvX44DZTN43_5alloc6borrow3CoweEINtCslW4GKQywboC_8smallvec8SmallVecARNtNtNtCsirwAroatyKs_18rustc_codegen_llvm4llvm3ffi4Typej2_EETB23_RNtB26_5ValueEEE14reserve_rehashNCINvNtB8_3map11make_hasherBQ_B31_NtCsej5P1MWAjDV_10rustc_hash13FxBuildHasherE0EB2a_
librustc_driver-fa31e2489381cd18.so:_RINvMs6_NtCs95Vga1zx3Wm_9hashbrown3rawINtB6_8RawTableTTNtCs8ZVPwWNK3vc_16intl_pluralrules14PluralRuleTypeENtNtNtCsdTC0bWj9Btn_13fluent_bundle5types6plural11PluralRulesEE14reserve_rehashNCINvNtB8_3map11make_hasherBQ_B1G_NtNtNtCskurZfFSl0zB_3std4hash6random11RandomStateE0ECsh8xpvZH2MPK_12rustc_errors
librustc_driver-fa31e2489381cd18.so:_RINvMs6_NtCs95Vga1zx3Wm_9hashbrown3rawINtB6_8RawTableTTNtCsbByapOItfY5_13rustc_type_ir13DebruijnIndexNtNtCsaqNsllmwM5m_12rustc_middle2ty2TyEB1B_EE14reserve_rehashNCINvNtB8_3map11make_hasherBQ_B1B_NtCsej5P1MWAjDV_10rustc_hash13FxBuildHasherE0EB1F_
librustc_driver-fa31e2489381cd18.so:_RINvMs6_NtCs95Vga1zx3Wm_9hashbrown3rawINtB6_8RawTableTTNtCsbByapOItfY5_13rustc_type_ir8VarianceNtNtCsaqNsllmwM5m_12rustc_middle2ty2TyB1v_EuEE14reserve_rehashNCINvNtB8_3map11make_hasherBQ_uNtCsej5P1MWAjDV_10rustc_hash13FxBuildHasherE0ECsfWGFs8tRit9_11rustc_infer
librustc_driver-fa31e2489381cd18.so:_RINvMs6_NtCs95Vga1zx3Wm_9hashbrown3rawINtB6_8RawTableTTNtCsiP3zVQcHmFl_10rustc_span6AttrIdtEuEE14reserve_rehashNCINvNtB8_3map11make_hasherBQ_uNtCsej5P1MWAjDV_10rustc_hash13FxBuildHasherE0ECs1ufPwUoOuD2_10rustc_lint
librustc_driver-fa31e2489381cd18.so:_RINvMs6_NtCs95Vga1zx3Wm_9hashbrown3rawINtB6_8RawTableTTNtCsiP3zVQcHmFl_10rustc_span7BytePosBR_NtNtCsgvX44DZTN43_5alloc6string6StringEuEE14reserve_rehashNCINvNtB8_3map11make_hasherBQ_uNtCsej5P1MWAjDV_10rustc_hash13FxBuildHasherE0ECsaqNsllmwM5m_12rustc_middle
librustc_driver-fa31e2489381cd18.so:_RINvMs6_NtCs95Vga1zx3Wm_9hashbrown3rawINtB6_8RawTableTTNtCsiP3zVQcHmFl_10rustc_span7BytePosBR_NtNtCsgvX44DZTN43_5alloc6string6StringEuEE14reserve_rehashNCINvNtB8_3map11make_hasherBQ_uNtCsej5P1MWAjDV_10rustc_hash13FxBuildHasherE0ECsgfasDSBi4N4_11rustc_parse
librustc_driver-fa31e2489381cd18.so:_RINvMs6_NtCs95Vga1zx3Wm_9hashbrown3rawINtB6_8RawTableTTNtNtCs8Oewc4Z7MhZ_18rustc_mir_dataflow10move_paths13MovePathIndexNtBT_11MoveSubPathEBR_EE14reserve_rehashNCINvNtB8_3map11make_hasherBQ_BR_NtCsej5P1MWAjDV_10rustc_hash13FxBuildHasherE0EBV_
librustc_driver-fa31e2489381cd18.so:_RINvMs6_NtCs95Vga1zx3Wm_9hashbrown3rawINtB6_8RawTableTTNtNtCs8Oewc4Z7MhZ_18rustc_mir_dataflow14value_analysis10PlaceIndexNtBT_9TrackElemEBR_EE14reserve_rehashNCINvNtB8_3map11make_hasherBQ_BR_NtCsej5P1MWAjDV_10rustc_hash13FxBuildHasherE0EBV_
librustc_driver-fa31e2489381cd18.so:_RINvMs6_NtCs95Vga1zx3Wm_9hashbrown3rawINtB6_8RawTableTTNtNtCsaqNsllmwM5m_12rustc_middle2ty2TyBR_EuEE14reserve_rehashNCINvNtB8_3map11make_hasherBQ_uNtCsej5P1MWAjDV_10rustc_hash13FxBuildHasherE0ECs1ufPwUoOuD2_10rustc_lint
librustc_driver-fa31e2489381cd18.so:_RINvMs6_NtCs95Vga1zx3Wm_9hashbrown3rawINtB6_8RawTableTTNtNtCsaqNsllmwM5m_12rustc_middle2ty2TyINtNtCs6e3rAaajRpB_4core6option6OptionINtNtCsbByapOItfY5_13rustc_type_ir9predicate19ExistentialTraitRefNtNtBT_7context6TyCtxtEEERNtNtNtCsirwAroatyKs_18rustc_codegen_llvm4llvm3ffi5ValueEE14reserve_rehashNCINvNtB8_3map11make_hasherBQ_B3x_NtCsej5P1MWAjDV_10rustc_hash13FxBuildHasherE0EB3E_
librustc_driver-fa31e2489381cd18.so:_RINvMs6_NtCs95Vga1zx3Wm_9hashbrown3rawINtB6_8RawTableTTNtNtCsaqNsllmwM5m_12rustc_middle2ty2TyINtNtCs6e3rAaajRpB_4core6option6OptionNtNtCsdeppuzfODI3_9rustc_abi6layout10VariantIdxEERNtNtNtCsirwAroatyKs_18rustc_codegen_llvm4llvm3ffi4TypeEE14reserve_rehashNCINvNtB8_3map11make_hasherBQ_B2S_NtCsej5P1MWAjDV_10rustc_hash13FxBuildHasherE0EB2Z_
librustc_driver-fa31e2489381cd18.so:_RINvMs6_NtCs95Vga1zx3Wm_9hashbrown3rawINtB6_8RawTableTTNtNtCsaqNsllmwM5m_12rustc_middle2ty2TyNtCsbByapOItfY5_13rustc_type_ir8VariancebEBR_EE14reserve_rehashNCINvNtB8_3map11make_hasherBQ_BR_NtCsej5P1MWAjDV_10rustc_hash13FxBuildHasherE0ECsfWGFs8tRit9_11rustc_infer
librustc_driver-fa31e2489381cd18.so:_RINvMs6_NtCs95Vga1zx3Wm_9hashbrown3rawINtB6_8RawTableTTNtNtCsaqNsllmwM5m_12rustc_middle2ty8ParamEnvINtNtCsbByapOItfY5_13rustc_type_ir6binder6BinderNtNtBT_7context6TyCtxtINtNtB1E_9predicate14TraitPredicateB2l_EEEINtNtNtBV_6traits5cache11WithDepNodeNtNtB3s_6select16EvaluationResultEEE14reserve_rehashNCINvNtB8_3map11make_hasherBQ_B3n_NtCsej5P1MWAjDV_10rustc_hash13FxBuildHasherE0ECs7ZgcGxgGJUk_21rustc_trait_selection
librustc_driver-fa31e2489381cd18.so:_RINvMs6_NtCs95Vga1zx3Wm_9hashbrown3rawINtB6_8RawTableTTNtNtCsaqNsllmwM5m_12rustc_middle2ty8ParamEnvINtNtCsbByapOItfY5_13rustc_type_ir9predicate14TraitPredicateNtNtBT_7context6TyCtxtEEINtNtNtBV_6traits5cache11WithDepNodeINtNtCs6e3rAaajRpB_4core6result6ResultINtNtB3A_6option6OptionNtNtB30_6select18SelectionCandidateENtB30_14SelectionErrorEEEE14reserve_rehashNCINvNtB8_3map11make_hasherBQ_B2V_NtCsej5P1MWAjDV_10rustc_hash13FxBuildHasherE0ECs7ZgcGxgGJUk_21rustc_trait_selection
librustc_driver-fa31e2489381cd18.so:_RINvMs6_NtCs95Vga1zx3Wm_9hashbrown3rawINtB6_8RawTableTTNtNtCsaqNsllmwM5m_12rustc_middle2ty9TypingEnvINtNtCsbByapOItfY5_13rustc_type_ir6binder6BinderNtNtBT_7context6TyCtxtINtNtB1F_9predicate14TraitPredicateB2m_EEEINtNtNtBV_6traits5cache11WithDepNodeNtNtB3t_6select16EvaluationResultEEE14reserve_rehashNCINvNtB8_3map11make_hasherBQ_B3o_NtCsej5P1MWAjDV_10rustc_hash13FxBuildHasherE0ECs7ZgcGxgGJUk_21rustc_trait_selection
librustc_driver-fa31e2489381cd18.so:_RINvMs6_NtCs95Vga1zx3Wm_9hashbrown3rawINtB6_8RawTableTTNtNtCsaqNsllmwM5m_12rustc_middle2ty9TypingEnvINtNtCsbByapOItfY5_13rustc_type_ir9predicate14TraitPredicateNtNtBT_7context6TyCtxtEEINtNtNtBV_6traits5cache11WithDepNodeINtNtCs6e3rAaajRpB_4core6result6ResultINtNtB3B_6option6OptionNtNtB31_6select18SelectionCandidateENtB31_14SelectionErrorEEEE14reserve_rehashNCINvNtB8_3map11make_hasherBQ_B2W_NtCsej5P1MWAjDV_10rustc_hash13FxBuildHasherE0ECs7ZgcGxgGJUk_21rustc_trait_selection
librustc_driver-fa31e2489381cd18.so:_RINvMs6_NtCs95Vga1zx3Wm_9hashbrown3rawINtB6_8RawTableTTNtNtCsaqNsllmwM5m_12rustc_middle3mir10BasicBlockNtNtCs4DnJvQYATGa_19rustc_mir_transform14jump_threading14ConditionIndexEBR_EE14reserve_rehashNCINvNtB8_3map11make_hasherBQ_BR_NtCsej5P1MWAjDV_10rustc_hash13FxBuildHasherE0EB1H_
librustc_driver-fa31e2489381cd18.so:_RINvMs6_NtCs95Vga1zx3Wm_9hashbrown3rawINtB6_8RawTableTTNtNtCsaqNsllmwM5m_12rustc_middle3mir5LocalNtBT_8LocationEuEE14reserve_rehashNCINvNtB8_3map11make_hasherBQ_uNtCsej5P1MWAjDV_10rustc_hash13FxBuildHasherE0ECs4DnJvQYATGa_19rustc_mir_transform
librustc_driver-fa31e2489381cd18.so:_RINvMs6_NtCs95Vga1zx3Wm_9hashbrown3rawINtB6_8RawTableTTNtNtCsaqNsllmwM5m_12rustc_middle3mir8LocationNtNtBT_6syntax5PlaceENtNtBT_6consts5ConstEE14reserve_rehashNCINvNtB8_3map11make_hasherBQ_B1V_NtCsej5P1MWAjDV_10rustc_hash13FxBuildHasherE0ECs4DnJvQYATGa_19rustc_mir_transform
librustc_driver-fa31e2489381cd18.so:_RINvMs6_NtCs95Vga1zx3Wm_9hashbrown3rawINtB6_8RawTableTTNtNtCsbByapOItfY5_13rustc_type_ir11region_kind9RegionVidBR_EuEE14reserve_rehashNCINvNtB8_3map11make_hasherBQ_uNtCsej5P1MWAjDV_10rustc_hash13FxBuildHasherE0ECsl5MakceMktk_14rustc_borrowck
librustc_driver-fa31e2489381cd18.so:_RINvMs6_NtCs95Vga1zx3Wm_9hashbrown3rawINtB6_8RawTableTTNtNtCsbByapOItfY5_13rustc_type_ir6binder17BoundVarIndexKindINtBT_11BoundRegionNtNtNtCsaqNsllmwM5m_12rustc_middle2ty7context6TyCtxtEEuEE14reserve_rehashNCINvNtB8_3map11make_hasherBQ_uNtCsej5P1MWAjDV_10rustc_hash13FxBuildHasherE0EB2d_
librustc_driver-fa31e2489381cd18.so:_RINvMs6_NtCs95Vga1zx3Wm_9hashbrown3rawINtB6_8RawTableTTNtNtCsgvX44DZTN43_5alloc6string6StringNtNtCsiP3zVQcHmFl_10rustc_span6def_id5DefIdEuEE14reserve_rehashNCINvNtB8_3map11make_hasherBQ_uNtCsej5P1MWAjDV_10rustc_hash13FxBuildHasherE0ECs7ZgcGxgGJUk_21rustc_trait_selection
librustc_driver-fa31e2489381cd18.so:_RINvMs6_NtCs95Vga1zx3Wm_9hashbrown3rawINtB6_8RawTableTTNtNtCsiP3zVQcHmFl_10rustc_span13span_encoding4SpanINtNtCs6e3rAaajRpB_4core6option6OptionBR_EEuEE14reserve_rehashNCINvNtB8_3map11make_hasherBQ_uNtCsej5P1MWAjDV_10rustc_hash13FxBuildHasherE0ECs7ZgcGxgGJUk_21rustc_trait_selection
librustc_driver-fa31e2489381cd18.so:_RINvMs6_NtCs95Vga1zx3Wm_9hashbrown3rawINtB6_8RawTableTTNtNtCsiP3zVQcHmFl_10rustc_span6def_id10LocalDefIdBR_EuEE14reserve_rehashNCINvNtB8_3map11make_hasherBQ_uNtCsej5P1MWAjDV_10rustc_hash13FxBuildHasherE0ECs3VMMNsKb80B_13rustc_resolve
librustc_driver-fa31e2489381cd18.so:_RINvMs6_NtCs95Vga1zx3Wm_9hashbrown3rawINtB6_8RawTableTTNtNtCsiP3zVQcHmFl_10rustc_span6def_id10LocalDefIdNtNtCserPFC4ou40o_12rustc_passes4dead20ComesFromAllowExpectEuEE14reserve_rehashNCINvNtB8_3map11make_hasherBQ_uNtCsej5P1MWAjDV_10rustc_hash13FxBuildHasherE0EB1I_
librustc_driver-fa31e2489381cd18.so:_RINvMs6_NtCs95Vga1zx3Wm_9hashbrown3rawINtB6_8RawTableTTNtNtCsiP3zVQcHmFl_10rustc_span6def_id5DefIdNtNtCsgvX44DZTN43_5alloc6string6StringEuEE14reserve_rehashNCINvNtB8_3map11make_hasherBQ_uNtCsej5P1MWAjDV_10rustc_hash13FxBuildHasherE0ECs7ZgcGxgGJUk_21rustc_trait_selection
librustc_driver-fa31e2489381cd18.so:_RINvMs6_NtCs95Vga1zx3Wm_9hashbrown3rawINtB6_8RawTableTTNtNtCsiP3zVQcHmFl_10rustc_span6def_id5DefIdRINtNtNtCsaqNsllmwM5m_12rustc_middle2ty4list7RawListuNtNtB1E_12generic_args10GenericArgEENtB1E_2TyEE14reserve_rehashNCINvNtB8_3map11make_hasherBQ_B2Z_NtCsej5P1MWAjDV_10rustc_hash13FxBuildHasherE0EB1G_
librustc_driver-fa31e2489381cd18.so:_RINvMs6_NtCs95Vga1zx3Wm_9hashbrown3rawINtB6_8RawTableTTNtNtCsiP3zVQcHmFl_10rustc_span6def_id5DefIdRSNtNtNtCsaqNsllmwM5m_12rustc_middle2ty12generic_args10GenericArgEjEE14reserve_rehashNCINvNtB8_3map11make_hasherBQ_jNtCsej5P1MWAjDV_10rustc_hash13FxBuildHasherE0ECskwoenDyO11E_21rustc_symbol_mangling
librustc_driver-fa31e2489381cd18.so:_RINvMs6_NtCs95Vga1zx3Wm_9hashbrown3rawINtB6_8RawTableTTNtNtCsiP3zVQcHmFl_10rustc_span6def_id5DefIdbENtNtBV_6symbol6SymbolEE14reserve_rehashNCINvNtB8_3map11make_hasherBQ_B1A_NtCsej5P1MWAjDV_10rustc_hash13FxBuildHasherE0ECs1yK2jRAc0XL_18rustc_monomorphize
librustc_driver-fa31e2489381cd18.so:_RINvMs6_NtCs95Vga1zx3Wm_9hashbrown3rawINtB6_8RawTableTTNtNtCsiP3zVQcHmFl_10rustc_span6symbol6SymbolNtNtBV_7hygiene9MacroKindENtNtCs785ZPy54HPh_12rustc_expand5stats9MacroStatEE14reserve_rehashNCINvNtB8_3map11make_hasherBQ_B1Z_NtCsej5P1MWAjDV_10rustc_hash13FxBuildHasherE0EB23_
librustc_driver-fa31e2489381cd18.so:_RINvMs6_NtCs95Vga1zx3Wm_9hashbrown3rawINtB6_8RawTableTTNtNtCsiP3zVQcHmFl_10rustc_span6symbol6SymbolNtNtCs3KflAWMuICG_9rustc_hir3def9NamespaceEINtNtCs6e3rAaajRpB_4core6option6OptionINtB1B_3ResNtNtCsd482UFdOvTO_9rustc_ast7node_id6NodeIdEEEE14reserve_rehashNCINvNtB8_3map11make_hasherBQ_B2g_NtCsej5P1MWAjDV_10rustc_hash13FxBuildHasherE0ECs73ymBF2OK4c_14rustc_metadata
librustc_driver-fa31e2489381cd18.so:_RINvMs6_NtCs95Vga1zx3Wm_9hashbrown3rawINtB6_8RawTableTTNtNtCsiP3zVQcHmFl_10rustc_span6symbol6SymbolNtNtNtCsaqNsllmwM5m_12rustc_middle2ty5assoc8AssocTagENtNtBV_6def_id5DefIdEE14reserve_rehashNCINvNtB8_3map11make_hasherBQ_B2q_NtCsej5P1MWAjDV_10rustc_hash13FxBuildHasherE0ECscUPtgnKeETP_18rustc_hir_analysis
librustc_driver-fa31e2489381cd18.so:_RINvMs6_NtCs95Vga1zx3Wm_9hashbrown3rawINtB6_8RawTableTTNtNtCsiP3zVQcHmFl_10rustc_span6symbol6SymbolNtNtNtCsaqNsllmwM5m_12rustc_middle2ty5assoc8AssocTagEjEE14reserve_rehashNCINvNtB8_3map11make_hasherBQ_jNtCsej5P1MWAjDV_10rustc_hash13FxBuildHasherE0ECscUPtgnKeETP_18rustc_hir_analysis
librustc_driver-fa31e2489381cd18.so:_RINvMs6_NtCs95Vga1zx3Wm_9hashbrown3rawINtB6_8RawTableTTNtNtCsiP3zVQcHmFl_10rustc_span6symbol6SymbolbEuEE14reserve_rehashNCINvNtB8_3map11make_hasherBQ_uNtCsej5P1MWAjDV_10rustc_hash13FxBuildHasherE0ECsg0ydQtPiXpO_17rustc_codegen_ssa
librustc_driver-fa31e2489381cd18.so:_RINvMs6_NtCs95Vga1zx3Wm_9hashbrown3rawINtB6_8RawTableTTNtNtCsiP3zVQcHmFl_10rustc_span7hygiene13SyntaxContextNtBT_6ExpnIdNtBT_12TransparencyEBR_EE14reserve_rehashNCINvNtB8_3map11make_hasherBQ_BR_NtCsej5P1MWAjDV_10rustc_hash13FxBuildHasherE0EBV_
librustc_driver-fa31e2489381cd18.so:_RINvMs6_NtCs95Vga1zx3Wm_9hashbrown3rawINtB6_8RawTableTTNtNtCskurZfFSl0zB_3std4time10SystemTimeNtNtBV_4path7PathBufEINtNtCs6e3rAaajRpB_4core6option6OptionNtNtNtCshmntTYxeqYP_21rustc_data_structures5flock5linux4LockEEE14reserve_rehashNCINvNtB8_3map11make_hasherBQ_B1P_NtCsej5P1MWAjDV_10rustc_hash13FxBuildHasherE0ECslloyL1UMMzU_17rustc_incremental
librustc_driver-fa31e2489381cd18.so:_RINvMs6_NtCs95Vga1zx3Wm_9hashbrown3rawINtB6_8RawTableTTNtNtNtCsaqNsllmwM5m_12rustc_middle3mir9interpret11GlobalAllocjENtBT_7AllocIdEE14reserve_rehashNCINvNtB8_3map11make_hasherBQ_B1S_NtCsej5P1MWAjDV_10rustc_hash13FxBuildHasherE0EBX_
librustc_driver-fa31e2489381cd18.so:_RINvMs6_NtCs95Vga1zx3Wm_9hashbrown3rawINtB6_8RawTableTTPuNtNtCshmntTYxeqYP_21rustc_data_structures11stable_hash18StableHashControlsENtNtBX_11fingerprint11FingerprintEE14reserve_rehashNCINvNtB8_3map11make_hasherBQ_B26_NtCsej5P1MWAjDV_10rustc_hash13FxBuildHasherE0ECsaqNsllmwM5m_12rustc_middle
librustc_driver-fa31e2489381cd18.so:_RINvMs6_NtCs95Vga1zx3Wm_9hashbrown3rawINtB6_8RawTableTTRINtNtNtCsaqNsllmwM5m_12rustc_middle2ty4list7RawListNtBV_8TypeInfoNtNtBX_9predicate6ClauseERSNtNtBX_12generic_args10GenericArgEBR_EE14reserve_rehashNCINvNtB8_3map11make_hasherBQ_BR_NtCsej5P1MWAjDV_10rustc_hash13FxBuildHasherE0ECsfWGFs8tRit9_11rustc_infer
librustc_driver-fa31e2489381cd18.so:_RINvMs6_NtCs95Vga1zx3Wm_9hashbrown3rawINtB6_8RawTableTTRNtNtNtCsirwAroatyKs_18rustc_codegen_llvm4llvm3ffi8MetadatajEBR_EE14reserve_rehashNCINvNtB8_3map11make_hasherBQ_BR_NtCsej5P1MWAjDV_10rustc_hash13FxBuildHasherE0EBY_
librustc_driver-fa31e2489381cd18.so:_RINvMs6_NtCs95Vga1zx3Wm_9hashbrown3rawINtB6_8RawTableTTjNtNtCshmntTYxeqYP_21rustc_data_structures11stable_hash18StableHashControlsENtNtBW_11fingerprint11FingerprintEE14reserve_rehashNCINvNtB8_3map11make_hasherBQ_B25_NtCsej5P1MWAjDV_10rustc_hash13FxBuildHasherE0ECsaqNsllmwM5m_12rustc_middle
librustc_driver-fa31e2489381cd18.so:_RINvMs6_NtCs95Vga1zx3Wm_9hashbrown3rawINtB6_8RawTableTTyhEINtNtCsgvX44DZTN43_5alloc5boxed3BoxShEEE14reserve_rehashNCINvNtB8_3map11make_hasherBQ_BU_NtNtNtCskurZfFSl0zB_3std4hash6random11RandomStateE0ECsg0ydQtPiXpO_17rustc_codegen_ssa
librustc_driver-fa31e2489381cd18.so:_RINvMs6_NtCs95Vga1zx3Wm_9hashbrown3rawINtB6_8RawTableTTyyEINtNtCsgvX44DZTN43_5alloc5boxed3BoxShEEE14reserve_rehashNCINvNtB8_3map11make_hasherBQ_BU_NtNtNtCskurZfFSl0zB_3std4hash6random11RandomStateE0ECsg0ydQtPiXpO_17rustc_codegen_ssa
librustc_driver-fa31e2489381cd18.so:_RINvMs6_NtCs95Vga1zx3Wm_9hashbrown3rawINtB6_8RawTableThINtNtNtCsgvX44DZTN43_5alloc11collections9vec_deque8VecDequeTNtNtCsiIDEqBupP87_14pulldown_cmark4tree9TreeIndexbbEEEE14reserve_rehashNCINvNtB8_3map11make_hasherhBR_NtNtNtCskurZfFSl0zB_3std4hash6random11RandomStateE0EB1T_
librustc_driver-fa31e2489381cd18.so:_RINvMs6_NtCs95Vga1zx3Wm_9hashbrown3rawINtB6_8RawTableTjINtNtCsgvX44DZTN43_5alloc3vec3VechEEE14reserve_rehashNCINvNtB8_3map11make_hasherjBR_NtNtNtCskurZfFSl0zB_3std4hash6random11RandomStateE0ECskHBMKP8yMGa_6object
librustc_driver-fa31e2489381cd18.so:_RINvMs6_NtCs95Vga1zx3Wm_9hashbrown3rawINtB6_8RawTableTjINtNtCshmntTYxeqYP_21rustc_data_structures6marker15IntoDynSyncSendTINtCsg0ydQtPiXpO_17rustc_codegen_ssa13ModuleCodegenNtCsirwAroatyKs_18rustc_codegen_llvm10ModuleLlvmEyEEEE14reserve_rehashNCINvNtB8_3map11make_hasherjBR_NtCsej5P1MWAjDV_10rustc_hash13FxBuildHasherE0EB2N_
librustc_driver-fa31e2489381cd18.so:_RINvMs6_NtCs95Vga1zx3Wm_9hashbrown3rawINtB6_8RawTableTjINtNtNtCsbByapOItfY5_13rustc_type_ir12search_graph12global_cache12WithOverflowNtNtNtCsaqNsllmwM5m_12rustc_middle2ty7context6TyCtxtEEE14reserve_rehashNCINvNtB8_3map11make_hasherjBR_NtCsej5P1MWAjDV_10rustc_hash13FxBuildHasherE0ECs7ZgcGxgGJUk_21rustc_trait_selection
librustc_driver-fa31e2489381cd18.so:_RINvMs6_NtCs95Vga1zx3Wm_9hashbrown3rawINtB6_8RawTableTjINtNtNtCsgvX44DZTN43_5alloc11collections9vec_deque8VecDequeNtNtCsiIDEqBupP87_14pulldown_cmark4tree9TreeIndexEEE14reserve_rehashNCINvNtB8_3map11make_hasherjBR_NtNtNtCskurZfFSl0zB_3std4hash6random11RandomStateE0EB1S_
librustc_driver-fa31e2489381cd18.so:_RINvMs6_NtCs95Vga1zx3Wm_9hashbrown3rawINtB6_8RawTableTjNtNtCsiP3zVQcHmFl_10rustc_span13span_encoding4SpanEE14reserve_rehashNCINvNtB8_3map11make_hasherjBR_NtCsej5P1MWAjDV_10rustc_hash13FxBuildHasherE0ECs785ZPy54HPh_12rustc_expand
librustc_driver-fa31e2489381cd18.so:_RINvMs6_NtCs95Vga1zx3Wm_9hashbrown3rawINtB6_8RawTableTjNtNtCsiP3zVQcHmFl_10rustc_span6symbol6SymbolEE14reserve_rehashNCINvNtB8_3map11make_hasherjBR_NtCsej5P1MWAjDV_10rustc_hash13FxBuildHasherE0ECsi5AUwtDDe5b_20rustc_builtin_macros
librustc_driver-fa31e2489381cd18.so:_RINvMs6_NtCs95Vga1zx3Wm_9hashbrown3rawINtB6_8RawTableTjNtNtNtNtCskHBMKP8yMGa_6object5write4coff6object13SymbolOffsetsEE14reserve_rehashNCINvNtB8_3map11make_hasherjBR_NtNtNtCskurZfFSl0zB_3std4hash6random11RandomStateE0EBZ_
librustc_driver-fa31e2489381cd18.so:_RINvMs6_NtCs95Vga1zx3Wm_9hashbrown3rawINtB6_8RawTableTjjEE14reserve_rehashNCINvNtB8_3map11make_hasherjjNtCsej5P1MWAjDV_10rustc_hash13FxBuildHasherE0ECsirwAroatyKs_18rustc_codegen_llvm
librustc_driver-fa31e2489381cd18.so:_RINvMs6_NtCs95Vga1zx3Wm_9hashbrown3rawINtB6_8RawTableTjuEE14reserve_rehashNCINvNtB8_3map11make_hasherjuNtCsej5P1MWAjDV_10rustc_hash13FxBuildHasherE0ECsgfasDSBi4N4_11rustc_parse
librustc_driver-fa31e2489381cd18.so:_RINvMs6_NtCs95Vga1zx3Wm_9hashbrown3rawINtB6_8RawTableTmNtNtNtCsaqNsllmwM5m_12rustc_middle5query13on_disk_cache15AbsoluteBytePosEE14reserve_rehashNCINvNtB8_3map11make_hashermBR_NtCsej5P1MWAjDV_10rustc_hash13FxBuildHasherE0EBX_
librustc_driver-fa31e2489381cd18.so:_RINvMs6_NtCs95Vga1zx3Wm_9hashbrown3rawINtB6_8RawTableTmjEE14reserve_rehashNCINvNtB8_3map11make_hashermjNtCsej5P1MWAjDV_10rustc_hash13FxBuildHasherE0ECsaqNsllmwM5m_12rustc_middle
librustc_driver-fa31e2489381cd18.so:_RINvMs6_NtCs95Vga1zx3Wm_9hashbrown3rawINtB6_8RawTableTmmEE14reserve_rehashNCINvNtB8_3map11make_hashermmNtCsej5P1MWAjDV_10rustc_hash13FxBuildHasherE0ECscUPtgnKeETP_18rustc_hir_analysis
librustc_driver-fa31e2489381cd18.so:_RINvMs6_NtCs95Vga1zx3Wm_9hashbrown3rawINtB6_8RawTableTmuEE14reserve_rehashNCINvNtB8_3map11make_hashermuNtCsej5P1MWAjDV_10rustc_hash13FxBuildHasherE0ECscUPtgnKeETP_18rustc_hir_analysis
librustc_driver-fa31e2489381cd18.so:_RINvMs6_NtCs95Vga1zx3Wm_9hashbrown3rawINtB6_8RawTableTouEE14reserve_rehashNCINvNtB8_3map11make_hasherouNtCsej5P1MWAjDV_10rustc_hash13FxBuildHasherE0ECs4DnJvQYATGa_19rustc_mir_transform
librustc_driver-fa31e2489381cd18.so:_RINvMs6_NtCs95Vga1zx3Wm_9hashbrown3rawINtB6_8RawTableTuNtNvCserMDvxKWFUe_20rustc_error_messages37fluent_value_from_str_list_sep_by_and23MemoizableListFormatterEE14reserve_rehashNCINvNtB8_3map11make_hasheruBR_NtNtNtCskurZfFSl0zB_3std4hash6random11RandomStateE0EBV_
librustc_driver-fa31e2489381cd18.so:_RINvMs6_NtCsccaKyoXA9k1_9hashbrown3rawINtB6_8RawTableTINtNtCs6e3rAaajRpB_4core6option6OptionNtNtCsiP3zVQcHmFl_10rustc_span6symbol6SymbolETINtNtNtCsaqNsllmwM5m_12rustc_middle5query5erase10ErasedDataAhj0_ENtNtNtB2j_9dep_graph5graph12DepNodeIndexEEE14reserve_rehashNCNvMs1_NtCshmntTYxeqYP_21rustc_data_structures7shardedINtB4k_7ShardedINtNtB8_5table9HashTableBP_EE13insert_unique0ECsaSsmK69njWG_16rustc_query_impl
librustc_driver-fa31e2489381cd18.so:_RINvMs6_NtCsccaKyoXA9k1_9hashbrown3rawINtB6_8RawTableTINtNtCsaqNsllmwM5m_12rustc_middle2ty20PseudoCanonicalInputINtNtCsbByapOItfY5_13rustc_type_ir9predicate8TraitRefNtNtBT_7context6TyCtxtEETINtNtNtBV_5query5erase10ErasedDataAhj10_ENtNtNtBV_9dep_graph5graph12DepNodeIndexEEE14reserve_rehashNCNvMs1_NtCshmntTYxeqYP_21rustc_data_structures7shardedINtB4L_7ShardedINtNtB8_5table9HashTableBP_EE13insert_unique0ECsaSsmK69njWG_16rustc_query_impl
librustc_driver-fa31e2489381cd18.so:_RINvMs6_NtCsccaKyoXA9k1_9hashbrown3rawINtB6_8RawTableTINtNtCsaqNsllmwM5m_12rustc_middle2ty20PseudoCanonicalInputNtBT_2TyETINtNtNtBV_5query5erase10ErasedDataAhj10_ENtNtNtBV_9dep_graph5graph12DepNodeIndexEEE14reserve_rehashNCNvMs1_NtCshmntTYxeqYP_21rustc_data_structures7shardedINtB3F_7ShardedINtNtB8_5table9HashTableBP_EE13insert_unique0ECsaSsmK69njWG_16rustc_query_impl
librustc_driver-fa31e2489381cd18.so:_RINvMs6_NtCsccaKyoXA9k1_9hashbrown3rawINtB6_8RawTableTINtNtCsaqNsllmwM5m_12rustc_middle2ty20PseudoCanonicalInputNtBT_2TyETINtNtNtBV_5query5erase10ErasedDataAhj1_ENtNtNtBV_9dep_graph5graph12DepNodeIndexEEE14reserve_rehashNCNvMs1_NtCshmntTYxeqYP_21rustc_data_structures7shardedINtB3E_7ShardedINtNtB8_5table9HashTableBP_EE13insert_unique0ECsaSsmK69njWG_16rustc_query_impl
librustc_driver-fa31e2489381cd18.so:_RINvMs6_NtCsccaKyoXA9k1_9hashbrown3rawINtB6_8RawTableTINtNtCsaqNsllmwM5m_12rustc_middle2ty20PseudoCanonicalInputNtBT_2TyETINtNtNtBV_5query5erase10ErasedDataAhj8_ENtNtNtBV_9dep_graph5graph12DepNodeIndexEEE14reserve_rehashNCNvMs1_NtCshmntTYxeqYP_21rustc_data_structures7shardedINtB3E_7ShardedINtNtB8_5table9HashTableBP_EE13insert_unique0ECsaSsmK69njWG_16rustc_query_impl
librustc_driver-fa31e2489381cd18.so:_RINvMs6_NtCsccaKyoXA9k1_9hashbrown3rawINtB6_8RawTableTINtNtCsaqNsllmwM5m_12rustc_middle2ty20PseudoCanonicalInputNtNtBT_12generic_args10GenericArgETINtNtNtBV_5query5erase10ErasedDataAhj8_ENtNtNtBV_9dep_graph5graph12DepNodeIndexEEE14reserve_rehashNCNvMs1_NtCshmntTYxeqYP_21rustc_data_structures7shardedINtB43_7ShardedINtNtB8_5table9HashTableBP_EE13insert_unique0ECsaSsmK69njWG_16rustc_query_impl
librustc_driver-fa31e2489381cd18.so:_RINvMs6_NtCsccaKyoXA9k1_9hashbrown3rawINtB6_8RawTableTINtNtCsaqNsllmwM5m_12rustc_middle2ty20PseudoCanonicalInputNtNtNtBV_3mir9interpret8GlobalIdETINtNtNtBV_5query5erase10ErasedDataAhj10_ENtNtNtBV_9dep_graph5graph12DepNodeIndexEEE14reserve_rehashNCNvMs1_NtCshmntTYxeqYP_21rustc_data_structures7shardedINtB43_7ShardedINtNtB8_5table9HashTableBP_EE13insert_unique0ECsaSsmK69njWG_16rustc_query_impl
librustc_driver-fa31e2489381cd18.so:_RINvMs6_NtCsccaKyoXA9k1_9hashbrown3rawINtB6_8RawTableTINtNtCsaqNsllmwM5m_12rustc_middle2ty20PseudoCanonicalInputNtNtNtBV_3mir9interpret8GlobalIdETINtNtNtBV_5query5erase10ErasedDataAhj18_ENtNtNtBV_9dep_graph5graph12DepNodeIndexEEE14reserve_rehashNCNvMs1_NtCshmntTYxeqYP_21rustc_data_structures7shardedINtB43_7ShardedINtNtB8_5table9HashTableBP_EE13insert_unique0ECsaSsmK69njWG_16rustc_query_impl
librustc_driver-fa31e2489381cd18.so:_RINvMs6_NtCsccaKyoXA9k1_9hashbrown3rawINtB6_8RawTableTINtNtCsaqNsllmwM5m_12rustc_middle2ty20PseudoCanonicalInputTINtNtCsbByapOItfY5_13rustc_type_ir6binder6BinderNtNtBT_7context6TyCtxtINtNtB1S_7ty_kind5FnSigB2z_EERINtNtBT_4list7RawListuNtBT_2TyEEETINtNtNtBV_5query5erase10ErasedDataAhj10_ENtNtNtBV_9dep_graph5graph12DepNodeIndexEEE14reserve_rehashNCNvMs1_NtCshmntTYxeqYP_21rustc_data_structures7shardedINtB5G_7ShardedINtNtB8_5table9HashTableBP_EE13insert_unique0ECsaSsmK69njWG_16rustc_query_impl
librustc_driver-fa31e2489381cd18.so:_RINvMs6_NtCsccaKyoXA9k1_9hashbrown3rawINtB6_8RawTableTINtNtCsaqNsllmwM5m_12rustc_middle2ty20PseudoCanonicalInputTNtBT_2TyNtNtCsdeppuzfODI3_9rustc_abi6layout10VariantIdxEETINtNtNtBV_5query5erase10ErasedDataAhj11_ENtNtNtBV_9dep_graph5graph12DepNodeIndexEEE14reserve_rehashNCNvMs1_NtCshmntTYxeqYP_21rustc_data_structures7shardedINtB4s_7ShardedINtNtB8_5table9HashTableBP_EE13insert_unique0ECsaSsmK69njWG_16rustc_query_impl
librustc_driver-fa31e2489381cd18.so:_RINvMs6_NtCsccaKyoXA9k1_9hashbrown3rawINtB6_8RawTableTINtNtCsaqNsllmwM5m_12rustc_middle2ty20PseudoCanonicalInputTNtNtBT_8instance8InstanceRINtNtBT_4list7RawListuNtBT_2TyEEETINtNtNtBV_5query5erase10ErasedDataAhj10_ENtNtNtBV_9dep_graph5graph12DepNodeIndexEEE14reserve_rehashNCNvMs1_NtCshmntTYxeqYP_21rustc_data_structures7shardedINtB4u_7ShardedINtNtB8_5table9HashTableBP_EE13insert_unique0ECsaSsmK69njWG_16rustc_query_impl
librustc_driver-fa31e2489381cd18.so:_RINvMs6_NtCsccaKyoXA9k1_9hashbrown3rawINtB6_8RawTableTINtNtCsaqNsllmwM5m_12rustc_middle2ty20PseudoCanonicalInputTNtNtCsiP3zVQcHmFl_10rustc_span6def_id5DefIdRINtNtBT_4list7RawListuNtNtBT_12generic_args10GenericArgEEETINtNtNtBV_5query5erase10ErasedDataAhj20_ENtNtNtBV_9dep_graph5graph12DepNodeIndexEEE14reserve_rehashNCNvMs1_NtCshmntTYxeqYP_21rustc_data_structures7shardedINtB5b_7ShardedINtNtB8_5table9HashTableBP_EE13insert_unique0ECsaSsmK69njWG_16rustc_query_impl
librustc_driver-fa31e2489381cd18.so:_RINvMs6_NtCsccaKyoXA9k1_9hashbrown3rawINtB6_8RawTableTINtNtCsbByapOItfY5_13rustc_type_ir11fast_reject14SimplifiedTypeNtNtCsiP3zVQcHmFl_10rustc_span6def_id5DefIdETINtNtNtCsaqNsllmwM5m_12rustc_middle5query5erase10ErasedDataAhj10_ENtNtNtB2H_9dep_graph5graph12DepNodeIndexEEE14reserve_rehashNCNvMs1_NtCshmntTYxeqYP_21rustc_data_structures7shardedINtB4J_7ShardedINtNtB8_5table9HashTableBP_EE13insert_unique0ECsaSsmK69njWG_16rustc_query_impl
librustc_driver-fa31e2489381cd18.so:_RINvMs6_NtCsccaKyoXA9k1_9hashbrown3rawINtB6_8RawTableTINtNtCsbByapOItfY5_13rustc_type_ir9canonical19CanonicalQueryInputNtNtNtCsaqNsllmwM5m_12rustc_middle2ty7context6TyCtxtINtB1X_11ParamEnvAndINtNtBV_9predicate9AliasTermB1T_EEETINtNtNtB1Z_5query5erase10ErasedDataAhj8_ENtNtNtB1Z_9dep_graph5graph12DepNodeIndexEEE14reserve_rehashNCNvMs1_NtCshmntTYxeqYP_21rustc_data_structures7shardedINtB5n_7ShardedINtNtB8_5table9HashTableBP_EE13insert_unique0ECsaSsmK69njWG_16rustc_query_impl
librustc_driver-fa31e2489381cd18.so:_RINvMs6_NtCsccaKyoXA9k1_9hashbrown3rawINtB6_8RawTableTINtNtCsbByapOItfY5_13rustc_type_ir9canonical19CanonicalQueryInputNtNtNtCsaqNsllmwM5m_12rustc_middle2ty7context6TyCtxtINtB1X_11ParamEnvAndINtNtNtNtB1Z_6traits5query7type_op9NormalizeINtNtBV_6binder6BinderB1T_INtNtBV_7ty_kind5FnSigB1T_EEEEETINtNtNtB1Z_5query5erase10ErasedDataAhj8_ENtNtNtB1Z_9dep_graph5graph12DepNodeIndexEEE14reserve_rehashNCNvMs1_NtCshmntTYxeqYP_21rustc_data_structures7shardedINtB6r_7ShardedINtNtB8_5table9HashTableBP_EE13insert_unique0ECsaSsmK69njWG_16rustc_query_impl
librustc_driver-fa31e2489381cd18.so:_RINvMs6_NtCsccaKyoXA9k1_9hashbrown3rawINtB6_8RawTableTINtNtCsbByapOItfY5_13rustc_type_ir9canonical19CanonicalQueryInputNtNtNtCsaqNsllmwM5m_12rustc_middle2ty7context6TyCtxtINtB1X_11ParamEnvAndINtNtNtNtB1Z_6traits5query7type_op9NormalizeINtNtBV_7ty_kind5FnSigB1T_EEEETINtNtNtB1Z_5query5erase10ErasedDataAhj8_ENtNtNtB1Z_9dep_graph5graph12DepNodeIndexEEE14reserve_rehashNCNvMs1_NtCshmntTYxeqYP_21rustc_data_structures7shardedINtB60_7ShardedINtNtB8_5table9HashTableBP_EE13insert_unique0ECsaSsmK69njWG_16rustc_query_impl
librustc_driver-fa31e2489381cd18.so:_RINvMs6_NtCsccaKyoXA9k1_9hashbrown3rawINtB6_8RawTableTINtNtCsbByapOItfY5_13rustc_type_ir9canonical19CanonicalQueryInputNtNtNtCsaqNsllmwM5m_12rustc_middle2ty7context6TyCtxtINtB1X_11ParamEnvAndINtNtNtNtB1Z_6traits5query7type_op9NormalizeNtB1X_2TyEEETINtNtNtB1Z_5query5erase10ErasedDataAhj8_ENtNtNtB1Z_9dep_graph5graph12DepNodeIndexEEE14reserve_rehashNCNvMs1_NtCshmntTYxeqYP_21rustc_data_structures7shardedINtB5I_7ShardedINtNtB8_5table9HashTableBP_EE13insert_unique0ECsaSsmK69njWG_16rustc_query_impl
librustc_driver-fa31e2489381cd18.so:_RINvMs6_NtCsccaKyoXA9k1_9hashbrown3rawINtB6_8RawTableTINtNtCsbByapOItfY5_13rustc_type_ir9canonical19CanonicalQueryInputNtNtNtCsaqNsllmwM5m_12rustc_middle2ty7context6TyCtxtINtB1X_11ParamEnvAndINtNtNtNtB1Z_6traits5query7type_op9NormalizeNtNtB1X_9predicate6ClauseEEETINtNtNtB1Z_5query5erase10ErasedDataAhj8_ENtNtNtB1Z_9dep_graph5graph12DepNodeIndexEEE14reserve_rehashNCNvMs1_NtCshmntTYxeqYP_21rustc_data_structures7shardedINtB5Y_7ShardedINtNtB8_5table9HashTableBP_EE13insert_unique0ECsaSsmK69njWG_16rustc_query_impl
librustc_driver-fa31e2489381cd18.so:_RINvMs6_NtCsccaKyoXA9k1_9hashbrown3rawINtB6_8RawTableTINtNtCsbByapOItfY5_13rustc_type_ir9canonical19CanonicalQueryInputNtNtNtCsaqNsllmwM5m_12rustc_middle2ty7context6TyCtxtINtB1X_11ParamEnvAndNtNtB1X_9predicate9PredicateEETINtNtNtB1Z_5query5erase10ErasedDataAhj2_ENtNtNtB1Z_9dep_graph5graph12DepNodeIndexEEE14reserve_rehashNCNvMs1_NtCshmntTYxeqYP_21rustc_data_structures7shardedINtB5i_7ShardedINtNtB8_5table9HashTableBP_EE13insert_unique0ECsaSsmK69njWG_16rustc_query_impl
librustc_driver-fa31e2489381cd18.so:_RINvMs6_NtCsccaKyoXA9k1_9hashbrown3rawINtB6_8RawTableTINtNtCsbByapOItfY5_13rustc_type_ir9canonical19CanonicalQueryInputNtNtNtCsaqNsllmwM5m_12rustc_middle2ty7context6TyCtxtINtB1X_11ParamEnvAndNtNtNtB1Z_6traits5query20MethodAutoderefStepsEETINtNtNtB1Z_5query5erase10ErasedDataAhj20_ENtNtNtB1Z_9dep_graph5graph12DepNodeIndexEEE14reserve_rehashNCNvMs1_NtCshmntTYxeqYP_21rustc_data_structures7shardedINtB5A_7ShardedINtNtB8_5table9HashTableBP_EE13insert_unique0ECsaSsmK69njWG_16rustc_query_impl
librustc_driver-fa31e2489381cd18.so:_RINvMs6_NtCsccaKyoXA9k1_9hashbrown3rawINtB6_8RawTableTINtNtCsbByapOItfY5_13rustc_type_ir9canonical19CanonicalQueryInputNtNtNtCsaqNsllmwM5m_12rustc_middle2ty7context6TyCtxtINtB1X_11ParamEnvAndNtNtNtNtB1Z_6traits5query7type_op14DropckOutlivesEETINtNtNtB1Z_5query5erase10ErasedDataAhj8_ENtNtNtB1Z_9dep_graph5graph12DepNodeIndexEEE14reserve_rehashNCNvMs1_NtCshmntTYxeqYP_21rustc_data_structures7shardedINtB5D_7ShardedINtNtB8_5table9HashTableBP_EE13insert_unique0ECsaSsmK69njWG_16rustc_query_impl
librustc_driver-fa31e2489381cd18.so:_RINvMs6_NtCsccaKyoXA9k1_9hashbrown3rawINtB6_8RawTableTINtNtCsbByapOItfY5_13rustc_type_ir9canonical19CanonicalQueryInputNtNtNtCsaqNsllmwM5m_12rustc_middle2ty7context6TyCtxtINtB1X_11ParamEnvAndNtNtNtNtB1Z_6traits5query7type_op14ProvePredicateEETINtNtNtB1Z_5query5erase10ErasedDataAhj8_ENtNtNtB1Z_9dep_graph5graph12DepNodeIndexEEE14reserve_rehashNCNvMs1_NtCshmntTYxeqYP_21rustc_data_structures7shardedINtB5D_7ShardedINtNtB8_5table9HashTableBP_EE13insert_unique0ECsaSsmK69njWG_16rustc_query_impl
librustc_driver-fa31e2489381cd18.so:_RINvMs6_NtCsccaKyoXA9k1_9hashbrown3rawINtB6_8RawTableTINtNtCsbByapOItfY5_13rustc_type_ir9canonical19CanonicalQueryInputNtNtNtCsaqNsllmwM5m_12rustc_middle2ty7context6TyCtxtINtB1X_11ParamEnvAndNtNtNtNtB1Z_6traits5query7type_op15AscribeUserTypeEETINtNtNtB1Z_5query5erase10ErasedDataAhj8_ENtNtNtB1Z_9dep_graph5graph12DepNodeIndexEEE14reserve_rehashNCNvMs1_NtCshmntTYxeqYP_21rustc_data_structures7shardedINtB5E_7ShardedINtNtB8_5table9HashTableBP_EE13insert_unique0ECsaSsmK69njWG_16rustc_query_impl
librustc_driver-fa31e2489381cd18.so:_RINvMs6_NtCsccaKyoXA9k1_9hashbrown3rawINtB6_8RawTableTINtNtCsbByapOItfY5_13rustc_type_ir9canonical19CanonicalQueryInputNtNtNtCsaqNsllmwM5m_12rustc_middle2ty7context6TyCtxtINtNtBV_5solve10QueryInputB1T_NtNtB1X_9predicate9PredicateEETINtNtNtB1Z_5query5erase10ErasedDataAhj30_ENtNtNtB1Z_9dep_graph5graph12DepNodeIndexEEE14reserve_rehashNCNvMs1_NtCshmntTYxeqYP_21rustc_data_structures7shardedINtB5t_7ShardedINtNtB8_5table9HashTableBP_EE13insert_unique0ECsaSsmK69njWG_16rustc_query_impl
librustc_driver-fa31e2489381cd18.so:_RINvMs6_NtCsccaKyoXA9k1_9hashbrown3rawINtB6_8RawTableTINtNtCsbByapOItfY5_13rustc_type_ir9predicate8TraitRefNtNtNtCsaqNsllmwM5m_12rustc_middle2ty7context6TyCtxtETINtNtNtB1N_5query5erase10ErasedDataAhj10_ENtNtNtB1N_9dep_graph5graph12DepNodeIndexEEE14reserve_rehashNCNvMs1_NtCshmntTYxeqYP_21rustc_data_structures7shardedINtB4k_7ShardedINtNtB8_5table9HashTableBP_EE13insert_unique0ECsaSsmK69njWG_16rustc_query_impl
librustc_driver-fa31e2489381cd18.so:_RINvMs6_NtCsccaKyoXA9k1_9hashbrown3rawINtB6_8RawTableTINtNtCsbByapOItfY5_13rustc_type_ir9predicate8TraitRefNtNtNtCsaqNsllmwM5m_12rustc_middle2ty7context6TyCtxtETINtNtNtB1N_5query5erase10ErasedDataAhj8_ENtNtNtB1N_9dep_graph5graph12DepNodeIndexEEE14reserve_rehashNCNvMs1_NtCshmntTYxeqYP_21rustc_data_structures7shardedINtB4j_7ShardedINtNtB8_5table9HashTableBP_EE13insert_unique0ECsaSsmK69njWG_16rustc_query_impl
librustc_driver-fa31e2489381cd18.so:_RINvMs6_NtCsccaKyoXA9k1_9hashbrown3rawINtB6_8RawTableTINtNtNtCsaqNsllmwM5m_12rustc_middle2ty7context13InternedInSetINtCsdeppuzfODI3_9rustc_abi10LayoutDataNtNtB1S_6layout8FieldIdxNtB2u_10VariantIdxEEuEE14reserve_rehashNCINvNtCshmntTYxeqYP_21rustc_data_structures7sharded11table_entryBQ_uB1P_Es_0EBX_
librustc_driver-fa31e2489381cd18.so:_RINvMs6_NtCsccaKyoXA9k1_9hashbrown3rawINtB6_8RawTableTINtNtNtCsaqNsllmwM5m_12rustc_middle2ty7context13InternedInSetINtNtBV_4list7RawListNtB1S_8TypeInfoNtNtBV_9predicate6ClauseEEuEE14reserve_rehashNCINvNtCshmntTYxeqYP_21rustc_data_structures7sharded11table_entryBQ_uSB2p_Es_0EBX_
librustc_driver-fa31e2489381cd18.so:_RINvMs6_NtCsccaKyoXA9k1_9hashbrown3rawINtB6_8RawTableTINtNtNtCsaqNsllmwM5m_12rustc_middle2ty7context13InternedInSetINtNtBV_4list7RawListuINtNtCsbByapOItfY5_13rustc_type_ir6binder17BoundVariableKindNtBT_6TyCtxtEEEuEE14reserve_rehashNCINvNtCshmntTYxeqYP_21rustc_data_structures7sharded11table_entryBQ_uSB2b_Es_0EBX_
librustc_driver-fa31e2489381cd18.so:_RINvMs6_NtCsccaKyoXA9k1_9hashbrown3rawINtB6_8RawTableTINtNtNtCsaqNsllmwM5m_12rustc_middle2ty7context13InternedInSetINtNtBV_4list7RawListuINtNtCsbByapOItfY5_13rustc_type_ir6binder6BinderNtBT_6TyCtxtINtNtB2g_9predicate20ExistentialPredicateB2X_EEEEuEE14reserve_rehashNCINvNtCshmntTYxeqYP_21rustc_data_structures7sharded11table_entryBQ_uSB2b_Es_0EBX_
librustc_driver-fa31e2489381cd18.so:_RINvMs6_NtCsccaKyoXA9k1_9hashbrown3rawINtB6_8RawTableTINtNtNtCsaqNsllmwM5m_12rustc_middle2ty7context13InternedInSetINtNtBV_4list7RawListuINtNtCsbByapOItfY5_13rustc_type_ir9canonical16CanonicalVarKindNtBT_6TyCtxtEEEuEE14reserve_rehashNCINvNtCshmntTYxeqYP_21rustc_data_structures7sharded11table_entryBQ_uSB2b_Es_0EBX_
librustc_driver-fa31e2489381cd18.so:_RINvMs6_NtCsccaKyoXA9k1_9hashbrown3rawINtB6_8RawTableTINtNtNtCsaqNsllmwM5m_12rustc_middle2ty7context13InternedInSetINtNtBV_4list7RawListuINtNtCsbByapOItfY5_13rustc_type_ir9predicate17OutlivesPredicateNtBT_6TyCtxtNtNtBV_12generic_args10GenericArgEEEuEE14reserve_rehashNCINvNtCshmntTYxeqYP_21rustc_data_structures7sharded11table_entryBQ_uSB2b_Es_0EBX_
librustc_driver-fa31e2489381cd18.so:_RINvMs6_NtCsccaKyoXA9k1_9hashbrown3rawINtB6_8RawTableTINtNtNtCsaqNsllmwM5m_12rustc_middle2ty7context13InternedInSetINtNtBV_4list7RawListuINtNtNtBX_3mir6syntax14ProjectionElemNtB2g_5LocalNtBV_2TyEEEuEE14reserve_rehashNCINvNtCshmntTYxeqYP_21rustc_data_structures7sharded11table_entryBQ_uSB2b_Es_0EBX_
librustc_driver-fa31e2489381cd18.so:_RINvMs6_NtCsccaKyoXA9k1_9hashbrown3rawINtB6_8RawTableTINtNtNtCsaqNsllmwM5m_12rustc_middle2ty7context13InternedInSetINtNtBV_4list7RawListuINtNtNtBX_3mir6syntax14ProjectionElemuuEEEuEE14reserve_rehashNCINvNtCshmntTYxeqYP_21rustc_data_structures7sharded11table_entryBQ_uSB2b_Es_0EBX_
librustc_driver-fa31e2489381cd18.so:_RINvMs6_NtCsccaKyoXA9k1_9hashbrown3rawINtB6_8RawTableTINtNtNtCsaqNsllmwM5m_12rustc_middle2ty7context13InternedInSetINtNtBV_4list7RawListuNtBV_2TyEEuEE14reserve_rehashNCINvNtCshmntTYxeqYP_21rustc_data_structures7sharded11table_entryBQ_uSB2b_Es_0EBX_
librustc_driver-fa31e2489381cd18.so:_RINvMs6_NtCsccaKyoXA9k1_9hashbrown3rawINtB6_8RawTableTINtNtNtCsaqNsllmwM5m_12rustc_middle2ty7context13InternedInSetINtNtBV_4list7RawListuNtNtBV_12generic_args10GenericArgEEuEE14reserve_rehashNCINvNtCshmntTYxeqYP_21rustc_data_structures7sharded11table_entryBQ_uSB2b_Es_0EBX_
librustc_driver-fa31e2489381cd18.so:_RINvMs6_NtCsccaKyoXA9k1_9hashbrown3rawINtB6_8RawTableTINtNtNtCsaqNsllmwM5m_12rustc_middle2ty7context13InternedInSetINtNtBV_4list7RawListuNtNtBV_6consts5ConstEEuEE14reserve_rehashNCINvNtCshmntTYxeqYP_21rustc_data_structures7sharded11table_entryBQ_uSB2b_Es_0EBX_
librustc_driver-fa31e2489381cd18.so:_RINvMs6_NtCsccaKyoXA9k1_9hashbrown3rawINtB6_8RawTableTINtNtNtCsaqNsllmwM5m_12rustc_middle2ty7context13InternedInSetINtNtBV_4list7RawListuNtNtBV_7pattern7PatternEEuEE14reserve_rehashNCINvNtCshmntTYxeqYP_21rustc_data_structures7sharded11table_entryBQ_uSB2b_Es_0EBX_
librustc_driver-fa31e2489381cd18.so:_RINvMs6_NtCsccaKyoXA9k1_9hashbrown3rawINtB6_8RawTableTINtNtNtCsaqNsllmwM5m_12rustc_middle2ty7context13InternedInSetINtNtBV_4list7RawListuNtNtCsdeppuzfODI3_9rustc_abi6layout8FieldIdxEEuEE14reserve_rehashNCINvNtCshmntTYxeqYP_21rustc_data_structures7sharded11table_entryBQ_uSB2b_Es_0EBX_
librustc_driver-fa31e2489381cd18.so:_RINvMs6_NtCsccaKyoXA9k1_9hashbrown3rawINtB6_8RawTableTINtNtNtCsaqNsllmwM5m_12rustc_middle2ty7context13InternedInSetINtNtBV_4list7RawListuNtNtCsiP3zVQcHmFl_10rustc_span6def_id10LocalDefIdEEuEE14reserve_rehashNCINvNtCshmntTYxeqYP_21rustc_data_structures7sharded11table_entryBQ_uSB2b_Es_0EBX_
librustc_driver-fa31e2489381cd18.so:_RINvMs6_NtCsccaKyoXA9k1_9hashbrown3rawINtB6_8RawTableTINtNtNtCsaqNsllmwM5m_12rustc_middle2ty7context13InternedInSetINtNtBV_4list7RawListuRNtNtBV_7closure13CapturedPlaceEEuEE14reserve_rehashNCINvNtCshmntTYxeqYP_21rustc_data_structures7sharded11table_entryBQ_uSB2b_Es_0EBX_
librustc_driver-fa31e2489381cd18.so:_RINvMs6_NtCsccaKyoXA9k1_9hashbrown3rawINtB6_8RawTableTINtNtNtCsaqNsllmwM5m_12rustc_middle2ty7context13InternedInSetINtNtBV_4list7RawListuTINtNtCsbByapOItfY5_13rustc_type_ir9opaque_ty13OpaqueTypeKeyNtBT_6TyCtxtENtBV_2TyEEEuEE14reserve_rehashNCINvNtCshmntTYxeqYP_21rustc_data_structures7sharded11table_entryBQ_uSB2b_Es_0EBX_
librustc_driver-fa31e2489381cd18.so:_RINvMs6_NtCsccaKyoXA9k1_9hashbrown3rawINtB6_8RawTableTINtNtNtCsaqNsllmwM5m_12rustc_middle2ty7context13InternedInSetINtNtCsbByapOItfY5_13rustc_type_ir10const_kind11ValTreeKindNtBT_6TyCtxtEEuEE14reserve_rehashNCINvNtCshmntTYxeqYP_21rustc_data_structures7sharded11table_entryBQ_uB1P_Es_0EBX_
librustc_driver-fa31e2489381cd18.so:_RINvMs6_NtCsccaKyoXA9k1_9hashbrown3rawINtB6_8RawTableTINtNtNtCsaqNsllmwM5m_12rustc_middle2ty7context13InternedInSetINtNtCsbByapOItfY5_13rustc_type_ir11region_kind10RegionKindNtBT_6TyCtxtEEuEE14reserve_rehashNCINvNtCshmntTYxeqYP_21rustc_data_structures7sharded11table_entryBQ_uB1P_Es_0EBX_
librustc_driver-fa31e2489381cd18.so:_RINvMs6_NtCsccaKyoXA9k1_9hashbrown3rawINtB6_8RawTableTINtNtNtCsaqNsllmwM5m_12rustc_middle2ty7context13InternedInSetINtNtCsbByapOItfY5_13rustc_type_ir5solve23ExternalConstraintsDataNtBT_6TyCtxtEEuEE14reserve_rehashNCINvNtCshmntTYxeqYP_21rustc_data_structures7sharded11table_entryBQ_uB1P_Es_0EBX_
librustc_driver-fa31e2489381cd18.so:_RINvMs6_NtCsccaKyoXA9k1_9hashbrown3rawINtB6_8RawTableTINtNtNtCsaqNsllmwM5m_12rustc_middle2ty7context13InternedInSetINtNtCsbByapOItfY5_13rustc_type_ir7pattern11PatternKindNtBT_6TyCtxtEEuEE14reserve_rehashNCINvNtCshmntTYxeqYP_21rustc_data_structures7sharded11table_entryBQ_uB1P_Es_0EBX_
librustc_driver-fa31e2489381cd18.so:_RINvMs6_NtCsccaKyoXA9k1_9hashbrown3rawINtB6_8RawTableTINtNtNtCsaqNsllmwM5m_12rustc_middle2ty7context13InternedInSetINtNtCsbByapOItfY5_13rustc_type_ir7ty_info18WithCachedTypeInfoINtNtB1U_10const_kind9ConstKindNtBT_6TyCtxtEEEuEE14reserve_rehashNCINvNtCshmntTYxeqYP_21rustc_data_structures7sharded11table_entryBQ_uB2P_Es_0EBX_
librustc_driver-fa31e2489381cd18.so:_RINvMs6_NtCsccaKyoXA9k1_9hashbrown3rawINtB6_8RawTableTINtNtNtCsaqNsllmwM5m_12rustc_middle2ty7context13InternedInSetINtNtCsbByapOItfY5_13rustc_type_ir7ty_info18WithCachedTypeInfoINtNtB1U_6binder6BinderNtBT_6TyCtxtINtNtB1U_14predicate_kind13PredicateKindB3c_EEEEuEE14reserve_rehashNCINvNtCshmntTYxeqYP_21rustc_data_structures7sharded11table_entryBQ_uB2P_Es_0EBX_
librustc_driver-fa31e2489381cd18.so:_RINvMs6_NtCsccaKyoXA9k1_9hashbrown3rawINtB6_8RawTableTINtNtNtCsaqNsllmwM5m_12rustc_middle2ty7context13InternedInSetINtNtCsbByapOItfY5_13rustc_type_ir7ty_info18WithCachedTypeInfoINtNtB1U_7ty_kind6TyKindNtBT_6TyCtxtEEEuEE14reserve_rehashNCINvNtCshmntTYxeqYP_21rustc_data_structures7sharded11table_entryBQ_uB2P_Es_0EBX_
librustc_driver-fa31e2489381cd18.so:_RINvMs6_NtCsccaKyoXA9k1_9hashbrown3rawINtB6_8RawTableTINtNtNtCsaqNsllmwM5m_12rustc_middle2ty7context13InternedInSetNtNtBV_3adt10AdtDefDataEuEE14reserve_rehashNCINvNtCshmntTYxeqYP_21rustc_data_structures7sharded11table_entryBQ_uB1P_Es_0EBX_
librustc_driver-fa31e2489381cd18.so:_RINvMs6_NtCsccaKyoXA9k1_9hashbrown3rawINtB6_8RawTableTINtNtNtCsaqNsllmwM5m_12rustc_middle2ty7context13InternedInSetNtNtNtNtBX_3mir9interpret10allocation10AllocationEuEE14reserve_rehashNCINvNtCshmntTYxeqYP_21rustc_data_structures7sharded11table_entryBQ_uB1P_Es_0EBX_
librustc_driver-fa31e2489381cd18.so:_RINvMs6_NtCsccaKyoXA9k1_9hashbrown3rawINtB6_8RawTableTNtNtCsaqNsllmwM5m_12rustc_middle2ty2TyTINtNtNtBU_5query5erase10ErasedDataAhj0_ENtNtNtBU_9dep_graph5graph12DepNodeIndexEEE14reserve_rehashNCNvMs1_NtCshmntTYxeqYP_21rustc_data_structures7shardedINtB3b_7ShardedINtNtB8_5table9HashTableBP_EE13insert_unique0ECsaSsmK69njWG_16rustc_query_impl
librustc_driver-fa31e2489381cd18.so:_RINvMs6_NtCsccaKyoXA9k1_9hashbrown3rawINtB6_8RawTableTNtNtCsaqNsllmwM5m_12rustc_middle2ty2TyTINtNtNtBU_5query5erase10ErasedDataAhj10_ENtNtNtBU_9dep_graph5graph12DepNodeIndexEEE14reserve_rehashNCNvMs1_NtCshmntTYxeqYP_21rustc_data_structures7shardedINtB3c_7ShardedINtNtB8_5table9HashTableBP_EE13insert_unique0ECsaSsmK69njWG_16rustc_query_impl
librustc_driver-fa31e2489381cd18.so:_RINvMs6_NtCsccaKyoXA9k1_9hashbrown3rawINtB6_8RawTableTNtNtCsaqNsllmwM5m_12rustc_middle2ty2TyTINtNtNtBU_5query5erase10ErasedDataAhj1_ENtNtNtBU_9dep_graph5graph12DepNodeIndexEEE14reserve_rehashNCNvMs1_NtCshmntTYxeqYP_21rustc_data_structures7shardedINtB3b_7ShardedINtNtB8_5table9HashTableBP_EE13insert_unique0ECsaSsmK69njWG_16rustc_query_impl
librustc_driver-fa31e2489381cd18.so:_RINvMs6_NtCsccaKyoXA9k1_9hashbrown3rawINtB6_8RawTableTNtNtCsaqNsllmwM5m_12rustc_middle2ty2TyTINtNtNtBU_5query5erase10ErasedDataAhj8_ENtNtNtBU_9dep_graph5graph12DepNodeIndexEEE14reserve_rehashNCNvMs1_NtCshmntTYxeqYP_21rustc_data_structures7shardedINtB3b_7ShardedINtNtB8_5table9HashTableBP_EE13insert_unique0ECsaSsmK69njWG_16rustc_query_impl
librustc_driver-fa31e2489381cd18.so:_RINvMs6_NtCsccaKyoXA9k1_9hashbrown3rawINtB6_8RawTableTNtNtCsiP3zVQcHmFl_10rustc_span6def_id13LocalModDefIdTINtNtNtCsaqNsllmwM5m_12rustc_middle5query5erase10ErasedDataAhj0_ENtNtNtB1O_9dep_graph5graph12DepNodeIndexEEE14reserve_rehashNCNvMs1_NtCshmntTYxeqYP_21rustc_data_structures7shardedINtB3P_7ShardedINtNtB8_5table9HashTableBP_EE13insert_unique0ECsaSsmK69njWG_16rustc_query_impl
librustc_driver-fa31e2489381cd18.so:_RINvMs6_NtCsccaKyoXA9k1_9hashbrown3rawINtB6_8RawTableTNtNtCsiP3zVQcHmFl_10rustc_span6def_id13LocalModDefIdTINtNtNtCsaqNsllmwM5m_12rustc_middle5query5erase10ErasedDataAhj8_ENtNtNtB1O_9dep_graph5graph12DepNodeIndexEEE14reserve_rehashNCNvMs1_NtCshmntTYxeqYP_21rustc_data_structures7shardedINtB3P_7ShardedINtNtB8_5table9HashTableBP_EE13insert_unique0ECsaSsmK69njWG_16rustc_query_impl
librustc_driver-fa31e2489381cd18.so:_RINvMs6_NtCsccaKyoXA9k1_9hashbrown3rawINtB6_8RawTableTNtNtCsiP3zVQcHmFl_10rustc_span6def_id5DefIdTINtNtNtCsaqNsllmwM5m_12rustc_middle5query5erase10ErasedDataAhj0_ENtNtNtB1F_9dep_graph5graph12DepNodeIndexEEE14reserve_rehashNCNvMs1_NtCshmntTYxeqYP_21rustc_data_structures7shardedINtB3G_7ShardedINtNtB8_5table9HashTableBP_EE13insert_unique0ECsaSsmK69njWG_16rustc_query_impl
librustc_driver-fa31e2489381cd18.so:_RINvMs6_NtCsccaKyoXA9k1_9hashbrown3rawINtB6_8RawTableTNtNtCsiP3zVQcHmFl_10rustc_span6def_id5DefIdTINtNtNtCsaqNsllmwM5m_12rustc_middle5query5erase10ErasedDataAhj10_ENtNtNtB1F_9dep_graph5graph12DepNodeIndexEEE14reserve_rehashNCNvMs1_NtCshmntTYxeqYP_21rustc_data_structures7shardedINtB3H_7ShardedINtNtB8_5table9HashTableBP_EE13insert_unique0ECs7RlYbh05zWS_16rustc_const_eval
librustc_driver-fa31e2489381cd18.so:_RINvMs6_NtCsccaKyoXA9k1_9hashbrown3rawINtB6_8RawTableTNtNtCsiP3zVQcHmFl_10rustc_span6def_id5DefIdTINtNtNtCsaqNsllmwM5m_12rustc_middle5query5erase10ErasedDataAhj10_ENtNtNtB1F_9dep_graph5graph12DepNodeIndexEEE14reserve_rehashNCNvMs1_NtCshmntTYxeqYP_21rustc_data_structures7shardedINtB3H_7ShardedINtNtB8_5table9HashTableBP_EE13insert_unique0ECsaSsmK69njWG_16rustc_query_impl
librustc_driver-fa31e2489381cd18.so:_RINvMs6_NtCsccaKyoXA9k1_9hashbrown3rawINtB6_8RawTableTNtNtCsiP3zVQcHmFl_10rustc_span6def_id5DefIdTINtNtNtCsaqNsllmwM5m_12rustc_middle5query5erase10ErasedDataAhj10_ENtNtNtB1F_9dep_graph5graph12DepNodeIndexEEE14reserve_rehashNCNvMs1_NtCshmntTYxeqYP_21rustc_data_structures7shardedINtB3H_7ShardedINtNtB8_5table9HashTableBP_EE13insert_unique0ECsbmrvFwx9VJk_14rustc_ty_utils
librustc_driver-fa31e2489381cd18.so:_RINvMs6_NtCsccaKyoXA9k1_9hashbrown3rawINtB6_8RawTableTNtNtCsiP3zVQcHmFl_10rustc_span6def_id5DefIdTINtNtNtCsaqNsllmwM5m_12rustc_middle5query5erase10ErasedDataAhj14_ENtNtNtB1F_9dep_graph5graph12DepNodeIndexEEE14reserve_rehashNCNvMs1_NtCshmntTYxeqYP_21rustc_data_structures7shardedINtB3H_7ShardedINtNtB8_5table9HashTableBP_EE13insert_unique0ECsaSsmK69njWG_16rustc_query_impl
librustc_driver-fa31e2489381cd18.so:_RINvMs6_NtCsccaKyoXA9k1_9hashbrown3rawINtB6_8RawTableTNtNtCsiP3zVQcHmFl_10rustc_span6def_id5DefIdTINtNtNtCsaqNsllmwM5m_12rustc_middle5query5erase10ErasedDataAhj18_ENtNtNtB1F_9dep_graph5graph12DepNodeIndexEEE14reserve_rehashNCNvMs1_NtCshmntTYxeqYP_21rustc_data_structures7shardedINtB3H_7ShardedINtNtB8_5table9HashTableBP_EE13insert_unique0ECs7RlYbh05zWS_16rustc_const_eval
librustc_driver-fa31e2489381cd18.so:_RINvMs6_NtCsccaKyoXA9k1_9hashbrown3rawINtB6_8RawTableTNtNtCsiP3zVQcHmFl_10rustc_span6def_id5DefIdTINtNtNtCsaqNsllmwM5m_12rustc_middle5query5erase10ErasedDataAhj18_ENtNtNtB1F_9dep_graph5graph12DepNodeIndexEEE14reserve_rehashNCNvMs1_NtCshmntTYxeqYP_21rustc_data_structures7shardedINtB3H_7ShardedINtNtB8_5table9HashTableBP_EE13insert_unique0ECsaSsmK69njWG_16rustc_query_impl
librustc_driver-fa31e2489381cd18.so:_RINvMs6_NtCsccaKyoXA9k1_9hashbrown3rawINtB6_8RawTableTNtNtCsiP3zVQcHmFl_10rustc_span6def_id5DefIdTINtNtNtCsaqNsllmwM5m_12rustc_middle5query5erase10ErasedDataAhj1_ENtNtNtB1F_9dep_graph5graph12DepNodeIndexEEE14reserve_rehashNCNvMs1_NtCshmntTYxeqYP_21rustc_data_structures7shardedINtB3G_7ShardedINtNtB8_5table9HashTableBP_EE13insert_unique0ECs4DnJvQYATGa_19rustc_mir_transform
librustc_driver-fa31e2489381cd18.so:_RINvMs6_NtCsccaKyoXA9k1_9hashbrown3rawINtB6_8RawTableTNtNtCsiP3zVQcHmFl_10rustc_span6def_id5DefIdTINtNtNtCsaqNsllmwM5m_12rustc_middle5query5erase10ErasedDataAhj1_ENtNtNtB1F_9dep_graph5graph12DepNodeIndexEEE14reserve_rehashNCNvMs1_NtCshmntTYxeqYP_21rustc_data_structures7shardedINtB3G_7ShardedINtNtB8_5table9HashTableBP_EE13insert_unique0ECsaSsmK69njWG_16rustc_query_impl
librustc_driver-fa31e2489381cd18.so:_RINvMs6_NtCsccaKyoXA9k1_9hashbrown3rawINtB6_8RawTableTNtNtCsiP3zVQcHmFl_10rustc_span6def_id5DefIdTINtNtNtCsaqNsllmwM5m_12rustc_middle5query5erase10ErasedDataAhj1_ENtNtNtB1F_9dep_graph5graph12DepNodeIndexEEE14reserve_rehashNCNvMs1_NtCshmntTYxeqYP_21rustc_data_structures7shardedINtB3G_7ShardedINtNtB8_5table9HashTableBP_EE13insert_unique0ECsbmrvFwx9VJk_14rustc_ty_utils
librustc_driver-fa31e2489381cd18.so:_RINvMs6_NtCsccaKyoXA9k1_9hashbrown3rawINtB6_8RawTableTNtNtCsiP3zVQcHmFl_10rustc_span6def_id5DefIdTINtNtNtCsaqNsllmwM5m_12rustc_middle5query5erase10ErasedDataAhj1c_ENtNtNtB1F_9dep_graph5graph12DepNodeIndexEEE14reserve_rehashNCNvMs1_NtCshmntTYxeqYP_21rustc_data_structures7shardedINtB3H_7ShardedINtNtB8_5table9HashTableBP_EE13insert_unique0ECsaSsmK69njWG_16rustc_query_impl
librustc_driver-fa31e2489381cd18.so:_RINvMs6_NtCsccaKyoXA9k1_9hashbrown3rawINtB6_8RawTableTNtNtCsiP3zVQcHmFl_10rustc_span6def_id5DefIdTINtNtNtCsaqNsllmwM5m_12rustc_middle5query5erase10ErasedDataAhj20_ENtNtNtB1F_9dep_graph5graph12DepNodeIndexEEE14reserve_rehashNCNvMs1_NtCshmntTYxeqYP_21rustc_data_structures7shardedINtB3H_7ShardedINtNtB8_5table9HashTableBP_EE13insert_unique0ECsaSsmK69njWG_16rustc_query_impl
librustc_driver-fa31e2489381cd18.so:_RINvMs6_NtCsccaKyoXA9k1_9hashbrown3rawINtB6_8RawTableTNtNtCsiP3zVQcHmFl_10rustc_span6def_id5DefIdTINtNtNtCsaqNsllmwM5m_12rustc_middle5query5erase10ErasedDataAhj20_ENtNtNtB1F_9dep_graph5graph12DepNodeIndexEEE14reserve_rehashNCNvMs1_NtCshmntTYxeqYP_21rustc_data_structures7shardedINtB3H_7ShardedINtNtB8_5table9HashTableBP_EE13insert_unique0ECsbmrvFwx9VJk_14rustc_ty_utils
librustc_driver-fa31e2489381cd18.so:_RINvMs6_NtCsccaKyoXA9k1_9hashbrown3rawINtB6_8RawTableTNtNtCsiP3zVQcHmFl_10rustc_span6def_id5DefIdTINtNtNtCsaqNsllmwM5m_12rustc_middle5query5erase10ErasedDataAhj2_ENtNtNtB1F_9dep_graph5graph12DepNodeIndexEEE14reserve_rehashNCNvMs1_NtCshmntTYxeqYP_21rustc_data_structures7shardedINtB3G_7ShardedINtNtB8_5table9HashTableBP_EE13insert_unique0ECs4DnJvQYATGa_19rustc_mir_transform
librustc_driver-fa31e2489381cd18.so:_RINvMs6_NtCsccaKyoXA9k1_9hashbrown3rawINtB6_8RawTableTNtNtCsiP3zVQcHmFl_10rustc_span6def_id5DefIdTINtNtNtCsaqNsllmwM5m_12rustc_middle5query5erase10ErasedDataAhj2_ENtNtNtB1F_9dep_graph5graph12DepNodeIndexEEE14reserve_rehashNCNvMs1_NtCshmntTYxeqYP_21rustc_data_structures7shardedINtB3G_7ShardedINtNtB8_5table9HashTableBP_EE13insert_unique0ECsaSsmK69njWG_16rustc_query_impl
librustc_driver-fa31e2489381cd18.so:_RINvMs6_NtCsccaKyoXA9k1_9hashbrown3rawINtB6_8RawTableTNtNtCsiP3zVQcHmFl_10rustc_span6def_id5DefIdTINtNtNtCsaqNsllmwM5m_12rustc_middle5query5erase10ErasedDataAhj3_ENtNtNtB1F_9dep_graph5graph12DepNodeIndexEEE14reserve_rehashNCNvMs1_NtCshmntTYxeqYP_21rustc_data_structures7shardedINtB3G_7ShardedINtNtB8_5table9HashTableBP_EE13insert_unique0EB1F_
librustc_driver-fa31e2489381cd18.so:_RINvMs6_NtCsccaKyoXA9k1_9hashbrown3rawINtB6_8RawTableTNtNtCsiP3zVQcHmFl_10rustc_span6def_id5DefIdTINtNtNtCsaqNsllmwM5m_12rustc_middle5query5erase10ErasedDataAhj4_ENtNtNtB1F_9dep_graph5graph12DepNodeIndexEEE14reserve_rehashNCNvMs1_NtCshmntTYxeqYP_21rustc_data_structures7shardedINtB3G_7ShardedINtNtB8_5table9HashTableBP_EE13insert_unique0ECsaSsmK69njWG_16rustc_query_impl
librustc_driver-fa31e2489381cd18.so:_RINvMs6_NtCsccaKyoXA9k1_9hashbrown3rawINtB6_8RawTableTNtNtCsiP3zVQcHmFl_10rustc_span6def_id5DefIdTINtNtNtCsaqNsllmwM5m_12rustc_middle5query5erase10ErasedDataAhj8_ENtNtNtB1F_9dep_graph5graph12DepNodeIndexEEE14reserve_rehashNCNvMs1_NtCshmntTYxeqYP_21rustc_data_structures7shardedINtB3G_7ShardedINtNtB8_5table9HashTableBP_EE13insert_unique0EB1F_
librustc_driver-fa31e2489381cd18.so:_RINvMs6_NtCsccaKyoXA9k1_9hashbrown3rawINtB6_8RawTableTNtNtCsiP3zVQcHmFl_10rustc_span6def_id5DefIdTINtNtNtCsaqNsllmwM5m_12rustc_middle5query5erase10ErasedDataAhjc_ENtNtNtB1F_9dep_graph5graph12DepNodeIndexEEE14reserve_rehashNCNvMs1_NtCshmntTYxeqYP_21rustc_data_structures7shardedINtB3G_7ShardedINtNtB8_5table9HashTableBP_EE13insert_unique0ECs7RlYbh05zWS_16rustc_const_eval
librustc_driver-fa31e2489381cd18.so:_RINvMs6_NtCsccaKyoXA9k1_9hashbrown3rawINtB6_8RawTableTNtNtCsiP3zVQcHmFl_10rustc_span6def_id5DefIdTINtNtNtCsaqNsllmwM5m_12rustc_middle5query5erase10ErasedDataAhjc_ENtNtNtB1F_9dep_graph5graph12DepNodeIndexEEE14reserve_rehashNCNvMs1_NtCshmntTYxeqYP_21rustc_data_structures7shardedINtB3G_7ShardedINtNtB8_5table9HashTableBP_EE13insert_unique0ECsaSsmK69njWG_16rustc_query_impl
librustc_driver-fa31e2489381cd18.so:_RINvMs6_NtCsccaKyoXA9k1_9hashbrown3rawINtB6_8RawTableTNtNtCsiP3zVQcHmFl_10rustc_span6def_id5DefIdTINtNtNtCsaqNsllmwM5m_12rustc_middle5query5erase10ErasedDataAhjc_ENtNtNtB1F_9dep_graph5graph12DepNodeIndexEEE14reserve_rehashNCNvMs1_NtCshmntTYxeqYP_21rustc_data_structures7shardedINtB3G_7ShardedINtNtB8_5table9HashTableBP_EE13insert_unique0ECsbmrvFwx9VJk_14rustc_ty_utils
librustc_driver-fa31e2489381cd18.so:_RINvMs6_NtCsccaKyoXA9k1_9hashbrown3rawINtB6_8RawTableTNtNtCsiP3zVQcHmFl_10rustc_span6def_id5DefIdTINtNtNtCsaqNsllmwM5m_12rustc_middle5query5erase10ErasedDataAhjc_ENtNtNtB1F_9dep_graph5graph12DepNodeIndexEEE14reserve_rehashNCNvMs1_NtCshmntTYxeqYP_21rustc_data_structures7shardedINtB3G_7ShardedINtNtB8_5table9HashTableBP_EE13insert_unique0ECscUPtgnKeETP_18rustc_hir_analysis
librustc_driver-fa31e2489381cd18.so:_RINvMs6_NtCsccaKyoXA9k1_9hashbrown3rawINtB6_8RawTableTNtNtCsiP3zVQcHmFl_10rustc_span6symbol6SymbolTINtNtNtCsaqNsllmwM5m_12rustc_middle5query5erase10ErasedDataAhj8_ENtNtNtB1G_9dep_graph5graph12DepNodeIndexEEE14reserve_rehashNCNvMs1_NtCshmntTYxeqYP_21rustc_data_structures7shardedINtB3H_7ShardedINtNtB8_5table9HashTableBP_EE13insert_unique0ECsaSsmK69njWG_16rustc_query_impl
librustc_driver-fa31e2489381cd18.so:_RINvMs6_NtCsccaKyoXA9k1_9hashbrown3rawINtB6_8RawTableTNtNtNtCsaqNsllmwM5m_12rustc_middle2ty8instance12InstanceKindTINtNtNtBW_5query5erase10ErasedDataAhj10_ENtNtNtBW_9dep_graph5graph12DepNodeIndexEEE14reserve_rehashNCNvMs1_NtCshmntTYxeqYP_21rustc_data_structures7shardedINtB3y_7ShardedINtNtB8_5table9HashTableBP_EE13insert_unique0ECsaSsmK69njWG_16rustc_query_impl
librustc_driver-fa31e2489381cd18.so:_RINvMs6_NtCsccaKyoXA9k1_9hashbrown3rawINtB6_8RawTableTNtNtNtCsaqNsllmwM5m_12rustc_middle2ty8instance12InstanceKindTINtNtNtBW_5query5erase10ErasedDataAhj8_ENtNtNtBW_9dep_graph5graph12DepNodeIndexEEE14reserve_rehashNCNvMs1_NtCshmntTYxeqYP_21rustc_data_structures7shardedINtB3x_7ShardedINtNtB8_5table9HashTableBP_EE13insert_unique0ECsaSsmK69njWG_16rustc_query_impl
librustc_driver-fa31e2489381cd18.so:_RINvMs6_NtCsccaKyoXA9k1_9hashbrown3rawINtB6_8RawTableTNtNtNtCsaqNsllmwM5m_12rustc_middle2ty8instance8InstanceTINtNtNtBW_5query5erase10ErasedDataAhj0_ENtNtNtBW_9dep_graph5graph12DepNodeIndexEEE14reserve_rehashNCNvMs1_NtCshmntTYxeqYP_21rustc_data_structures7shardedINtB3s_7ShardedINtNtB8_5table9HashTableBP_EE13insert_unique0ECsaSsmK69njWG_16rustc_query_impl
librustc_driver-fa31e2489381cd18.so:_RINvMs6_NtCsccaKyoXA9k1_9hashbrown3rawINtB6_8RawTableTNtNtNtCsaqNsllmwM5m_12rustc_middle2ty8instance8InstanceTINtNtNtBW_5query5erase10ErasedDataAhj10_ENtNtNtBW_9dep_graph5graph12DepNodeIndexEEE14reserve_rehashNCNvMs1_NtCshmntTYxeqYP_21rustc_data_structures7shardedINtB3t_7ShardedINtNtB8_5table9HashTableBP_EE13insert_unique0ECsaSsmK69njWG_16rustc_query_impl
librustc_driver-fa31e2489381cd18.so:_RINvMs6_NtCsccaKyoXA9k1_9hashbrown3rawINtB6_8RawTableTNtNtNtCsaqNsllmwM5m_12rustc_middle2ty8instance8InstanceTINtNtNtBW_5query5erase10ErasedDataAhj8_ENtNtNtBW_9dep_graph5graph12DepNodeIndexEEE14reserve_rehashNCNvMs1_NtCshmntTYxeqYP_21rustc_data_structures7shardedINtB3s_7ShardedINtNtB8_5table9HashTableBP_EE13insert_unique0ECsaSsmK69njWG_16rustc_query_impl
librustc_driver-fa31e2489381cd18.so:_RINvMs6_NtCsccaKyoXA9k1_9hashbrown3rawINtB6_8RawTableTNtNtNtCsaqNsllmwM5m_12rustc_middle3mir9interpret7AllocIdNtBS_11GlobalAllocEE14reserve_rehashNCNvMs1_NtCshmntTYxeqYP_21rustc_data_structures7shardedINtB2s_7ShardedINtNtB8_5table9HashTableBP_EE13insert_unique0EBW_
librustc_driver-fa31e2489381cd18.so:_RINvMs6_NtCsccaKyoXA9k1_9hashbrown3rawINtB6_8RawTableTNtNtNtCsaqNsllmwM5m_12rustc_middle9dep_graph8dep_node7DepNodeNtNtBU_5graph12DepNodeIndexEE14reserve_rehashNCINvNtCshmntTYxeqYP_21rustc_data_structures7sharded11table_entryBQ_B1P_BQ_Es_0ECs7ZgcGxgGJUk_21rustc_trait_selection
librustc_driver-fa31e2489381cd18.so:_RINvMs6_NtCsccaKyoXA9k1_9hashbrown3rawINtB6_8RawTableTNtNtNtNtCsaqNsllmwM5m_12rustc_middle2ty6consts3lit15LitToConstInputTINtNtNtBY_5query5erase10ErasedDataAhj10_ENtNtNtBY_9dep_graph5graph12DepNodeIndexEEE14reserve_rehashNCNvMs1_NtCshmntTYxeqYP_21rustc_data_structures7shardedINtB3F_7ShardedINtNtB8_5table9HashTableBP_EE13insert_unique0ECsaSsmK69njWG_16rustc_query_impl
librustc_driver-fa31e2489381cd18.so:_RINvMs6_NtCsccaKyoXA9k1_9hashbrown3rawINtB6_8RawTableTNtNtNtNtCsaqNsllmwM5m_12rustc_middle2ty6consts7valtree5ValueTINtNtNtBY_5query5erase10ErasedDataAhj18_ENtNtNtBY_9dep_graph5graph12DepNodeIndexEEE14reserve_rehashNCNvMs1_NtCshmntTYxeqYP_21rustc_data_structures7shardedINtB3y_7ShardedINtNtB8_5table9HashTableBP_EE13insert_unique0ECsaSsmK69njWG_16rustc_query_impl
librustc_driver-fa31e2489381cd18.so:_RINvMs6_NtCsccaKyoXA9k1_9hashbrown3rawINtB6_8RawTableTRINtNtNtCsaqNsllmwM5m_12rustc_middle2ty4list7RawListNtBU_8TypeInfoNtNtBW_9predicate6ClauseETINtNtNtBY_5query5erase10ErasedDataAhj8_ENtNtNtBY_9dep_graph5graph12DepNodeIndexEEE14reserve_rehashNCNvMs1_NtCshmntTYxeqYP_21rustc_data_structures7shardedINtB42_7ShardedINtNtB8_5table9HashTableBP_EE13insert_unique0ECsaSsmK69njWG_16rustc_query_impl
librustc_driver-fa31e2489381cd18.so:_RINvMs6_NtCsccaKyoXA9k1_9hashbrown3rawINtB6_8RawTableTRINtNtNtCsaqNsllmwM5m_12rustc_middle2ty4list7RawListuNtNtBW_12generic_args10GenericArgETINtNtNtBY_5query5erase10ErasedDataAhj4_ENtNtNtBY_9dep_graph5graph12DepNodeIndexEEE14reserve_rehashNCNvMs1_NtCshmntTYxeqYP_21rustc_data_structures7shardedINtB3Y_7ShardedINtNtB8_5table9HashTableBP_EE13insert_unique0ECsaSsmK69njWG_16rustc_query_impl
librustc_driver-fa31e2489381cd18.so:_RINvMs6_NtCsccaKyoXA9k1_9hashbrown3rawINtB6_8RawTableTRNtNtNtCskurZfFSl0zB_3std3ffi6os_str5OsStrTINtNtNtCsaqNsllmwM5m_12rustc_middle5query5erase10ErasedDataAhj10_ENtNtNtB1E_9dep_graph5graph12DepNodeIndexEEE14reserve_rehashNCNvMs1_NtCshmntTYxeqYP_21rustc_data_structures7shardedINtB3G_7ShardedINtNtB8_5table9HashTableBP_EE13insert_unique0ECsaSsmK69njWG_16rustc_query_impl
librustc_driver-fa31e2489381cd18.so:_RINvMs6_NtCsccaKyoXA9k1_9hashbrown3rawINtB6_8RawTableTTINtNtCsbByapOItfY5_13rustc_type_ir9canonical19CanonicalQueryInputNtNtNtCsaqNsllmwM5m_12rustc_middle2ty7context6TyCtxtINtB1Y_11ParamEnvAndNtNtNtNtB20_6traits5query7type_op21ImpliedOutlivesBoundsEEbETINtNtNtB20_5query5erase10ErasedDataAhj8_ENtNtNtB20_9dep_graph5graph12DepNodeIndexEEE14reserve_rehashNCNvMs1_NtCshmntTYxeqYP_21rustc_data_structures7shardedINtB5N_7ShardedINtNtB8_5table9HashTableBP_EE13insert_unique0ECsaSsmK69njWG_16rustc_query_impl
librustc_driver-fa31e2489381cd18.so:_RINvMs6_NtCsccaKyoXA9k1_9hashbrown3rawINtB6_8RawTableTTNtNtCsaqNsllmwM5m_12rustc_middle2ty2TyBR_ETINtNtNtBV_5query5erase10ErasedDataAhj10_ENtNtNtBV_9dep_graph5graph12DepNodeIndexEEE14reserve_rehashNCNvMs1_NtCshmntTYxeqYP_21rustc_data_structures7shardedINtB3h_7ShardedINtNtB8_5table9HashTableBP_EE13insert_unique0ECsaSsmK69njWG_16rustc_query_impl
librustc_driver-fa31e2489381cd18.so:_RINvMs6_NtCsccaKyoXA9k1_9hashbrown3rawINtB6_8RawTableTTNtNtCsaqNsllmwM5m_12rustc_middle2ty2TyINtNtCs6e3rAaajRpB_4core6option6OptionINtNtCsbByapOItfY5_13rustc_type_ir9predicate19ExistentialTraitRefNtNtBT_7context6TyCtxtEEETINtNtNtBV_5query5erase10ErasedDataAhj8_ENtNtNtBV_9dep_graph5graph12DepNodeIndexEEE14reserve_rehashNCNvMs1_NtCshmntTYxeqYP_21rustc_data_structures7shardedINtB5g_7ShardedINtNtB8_5table9HashTableBP_EE13insert_unique0ECsaSsmK69njWG_16rustc_query_impl
librustc_driver-fa31e2489381cd18.so:_RINvMs6_NtCsccaKyoXA9k1_9hashbrown3rawINtB6_8RawTableTTNtNtCsiP3zVQcHmFl_10rustc_span6def_id10LocalDefIdBR_NtNtBV_6symbol5IdentETINtNtNtCsaqNsllmwM5m_12rustc_middle5query5erase10ErasedDataAhj10_ENtNtNtB2a_9dep_graph5graph12DepNodeIndexEEE14reserve_rehashNCNvMs1_NtCshmntTYxeqYP_21rustc_data_structures7shardedINtB4c_7ShardedINtNtB8_5table9HashTableBP_EE13insert_unique0ECsaSsmK69njWG_16rustc_query_impl
librustc_driver-fa31e2489381cd18.so:_RINvMs6_NtCsccaKyoXA9k1_9hashbrown3rawINtB6_8RawTableTTNtNtCsiP3zVQcHmFl_10rustc_span6def_id5DefIdBR_ETINtNtNtCsaqNsllmwM5m_12rustc_middle5query5erase10ErasedDataAhj1_ENtNtNtB1K_9dep_graph5graph12DepNodeIndexEEE14reserve_rehashNCNvMs1_NtCshmntTYxeqYP_21rustc_data_structures7shardedINtB3L_7ShardedINtNtB8_5table9HashTableBP_EE13insert_unique0ECsaSsmK69njWG_16rustc_query_impl
librustc_driver-fa31e2489381cd18.so:_RINvMs6_NtCsccaKyoXA9k1_9hashbrown3rawINtB6_8RawTableTTNtNtCsiP3zVQcHmFl_10rustc_span6def_id5DefIdNtNtBV_6symbol5IdentETINtNtNtCsaqNsllmwM5m_12rustc_middle5query5erase10ErasedDataAhj10_ENtNtNtB21_9dep_graph5graph12DepNodeIndexEEE14reserve_rehashNCNvMs1_NtCshmntTYxeqYP_21rustc_data_structures7shardedINtB43_7ShardedINtNtB8_5table9HashTableBP_EE13insert_unique0ECsaSsmK69njWG_16rustc_query_impl
librustc_driver-fa31e2489381cd18.so:_RINvMs6_NtCsccaKyoXA9k1_9hashbrown3rawINtB6_8RawTableTTNtNtCsiP3zVQcHmFl_10rustc_span6def_id5DefIdNtNtCsbByapOItfY5_13rustc_type_ir5solve14SizedTraitKindETINtNtNtCsaqNsllmwM5m_12rustc_middle5query5erase10ErasedDataAhj8_ENtNtNtB2A_9dep_graph5graph12DepNodeIndexEEE14reserve_rehashNCNvMs1_NtCshmntTYxeqYP_21rustc_data_structures7shardedINtB4B_7ShardedINtNtB8_5table9HashTableBP_EE13insert_unique0ECsaSsmK69njWG_16rustc_query_impl
librustc_driver-fa31e2489381cd18.so:_RINvMs6_NtCsccaKyoXA9k1_9hashbrown3rawINtB6_8RawTableTTNtNtCsiP3zVQcHmFl_10rustc_span6def_id5DefIdRINtNtNtCsaqNsllmwM5m_12rustc_middle2ty4list7RawListuNtNtB1E_12generic_args10GenericArgEETINtNtNtB1G_5query5erase10ErasedDataAhj1_ENtNtNtB1G_9dep_graph5graph12DepNodeIndexEEE14reserve_rehashNCNvMs1_NtCshmntTYxeqYP_21rustc_data_structures7shardedINtB4K_7ShardedINtNtB8_5table9HashTableBP_EE13insert_unique0ECsaSsmK69njWG_16rustc_query_impl
librustc_driver-fa31e2489381cd18.so:_RINvMs6_NtCsccaKyoXA9k1_9hashbrown3rawINtB6_8RawTableTTNtNtCsiP3zVQcHmFl_10rustc_span6def_id8CrateNumINtNtCsbByapOItfY5_13rustc_type_ir11fast_reject14SimplifiedTypeNtBT_5DefIdEETINtNtNtCsaqNsllmwM5m_12rustc_middle5query5erase10ErasedDataAhj10_ENtNtNtB2X_9dep_graph5graph12DepNodeIndexEEE14reserve_rehashNCNvMs1_NtCshmntTYxeqYP_21rustc_data_structures7shardedINtB4Z_7ShardedINtNtB8_5table9HashTableBP_EE13insert_unique0ECsaSsmK69njWG_16rustc_query_impl
librustc_driver-fa31e2489381cd18.so:_RINvMs6_NtCsccaKyoXA9k1_9hashbrown3rawINtB6_8RawTableTTNtNtCsiP3zVQcHmFl_10rustc_span6def_id8CrateNumNtBT_5DefIdETINtNtNtCsaqNsllmwM5m_12rustc_middle5query5erase10ErasedDataAhj10_ENtNtNtB1V_9dep_graph5graph12DepNodeIndexEEE14reserve_rehashNCNvMs1_NtCshmntTYxeqYP_21rustc_data_structures7shardedINtB3X_7ShardedINtNtB8_5table9HashTableBP_EE13insert_unique0ECsaSsmK69njWG_16rustc_query_impl
librustc_driver-fa31e2489381cd18.so:_RINvMs6_NtCsccaKyoXA9k1_9hashbrown3rawINtB6_8RawTableTTNtNtCsiP3zVQcHmFl_10rustc_span7hygiene11LocalExpnIdRNtNtCsd482UFdOvTO_9rustc_ast11tokenstream11TokenStreamETINtNtNtCsaqNsllmwM5m_12rustc_middle5query5erase10ErasedDataAhj8_ENtNtNtB2I_9dep_graph5graph12DepNodeIndexEEE14reserve_rehashNCNvMs1_NtCshmntTYxeqYP_21rustc_data_structures7shardedINtB4J_7ShardedINtNtB8_5table9HashTableBP_EE13insert_unique0ECsaSsmK69njWG_16rustc_query_impl
librustc_driver-fa31e2489381cd18.so:_RINvMs6_NtCsccaKyoXA9k1_9hashbrown3rawINtB6_8RawTableTTNtNtNtCsaqNsllmwM5m_12rustc_middle2ty6layout19ValidityRequirementINtBV_20PseudoCanonicalInputNtBV_2TyEETINtNtNtBX_5query5erase10ErasedDataAhj10_ENtNtNtBX_9dep_graph5graph12DepNodeIndexEEE14reserve_rehashNCNvMs1_NtCshmntTYxeqYP_21rustc_data_structures7shardedINtB4g_7ShardedINtNtB8_5table9HashTableBP_EE13insert_unique0ECsaSsmK69njWG_16rustc_query_impl
librustc_driver-fa31e2489381cd18.so:_RINvMs6_NtCsccaKyoXA9k1_9hashbrown3rawINtB6_8RawTableTTNtNtNtCsaqNsllmwM5m_12rustc_middle2ty8instance8InstanceNtNtBX_4mono14CollectionModeETINtNtNtBX_5query5erase10ErasedDataAhj20_ENtNtNtBX_9dep_graph5graph12DepNodeIndexEEE14reserve_rehashNCNvMs1_NtCshmntTYxeqYP_21rustc_data_structures7shardedINtB3X_7ShardedINtNtB8_5table9HashTableBP_EE13insert_unique0ECsaSsmK69njWG_16rustc_query_impl
librustc_driver-fa31e2489381cd18.so:_RINvMs6_NtCsccaKyoXA9k1_9hashbrown3rawINtB6_8RawTableTTNtNtNtCsaqNsllmwM5m_12rustc_middle2ty9predicate9PredicateNtNtBX_6traits13WellFormedLocETINtNtNtBX_5query5erase10ErasedDataAhj8_ENtNtNtBX_9dep_graph5graph12DepNodeIndexEEE14reserve_rehashNCNvMs1_NtCshmntTYxeqYP_21rustc_data_structures7shardedINtB3Z_7ShardedINtNtB8_5table9HashTableBP_EE13insert_unique0ECsaSsmK69njWG_16rustc_query_impl
librustc_driver-fa31e2489381cd18.so:_RINvMs6_NtCsccaKyoXA9k1_9hashbrown3rawINtB6_8RawTablejE14reserve_rehashNCINvNtCs7KwMrq602nF_8indexmap5inner19insert_bulk_no_growINtNtCsbByapOItfY5_13rustc_type_ir6binder6BinderNtNtNtCsaqNsllmwM5m_12rustc_middle2ty7context6TyCtxtINtNtB27_9predicate14TraitPredicateB2O_EENtNtNtCs7ZgcGxgGJUk_21rustc_trait_selection6traits6select21ProvisionalEvaluationE0EB4p_
librustc_driver-fa31e2489381cd18.so:_RINvMs6_NtCsccaKyoXA9k1_9hashbrown3rawINtB6_8RawTablejE14reserve_rehashNCINvNtCs7KwMrq602nF_8indexmap5inner19insert_bulk_no_growNtNtCsaqNsllmwM5m_12rustc_middle3mir10SourceInfoNtNtCs4DnJvQYATGa_19rustc_mir_transform8liveness6AccessE0EB2S_
librustc_driver-fa31e2489381cd18.so:_RINvMs6_NtCsccaKyoXA9k1_9hashbrown3rawINtB6_8RawTablejE14reserve_rehashNCINvNtCs7KwMrq602nF_8indexmap5inner19insert_bulk_no_growNtNtCsaqNsllmwM5m_12rustc_middle4mono8MonoItemNtB24_12MonoItemDataE0ECs1yK2jRAc0XL_18rustc_monomorphize
librustc_driver-fa31e2489381cd18.so:_RINvMs6_NtCsccaKyoXA9k1_9hashbrown3rawINtB6_8RawTablejE14reserve_rehashNCINvNtCs7KwMrq602nF_8indexmap5inner19insert_bulk_no_growNtNtCsaqNsllmwM5m_12rustc_middle4mono8MonoItemNtNtCsiP3zVQcHmFl_10rustc_span13span_encoding4SpanE0ECs1yK2jRAc0XL_18rustc_monomorphize
librustc_driver-fa31e2489381cd18.so:_RINvMs6_NtCsccaKyoXA9k1_9hashbrown3rawINtB6_8RawTablejE14reserve_rehashNCINvNtCs7KwMrq602nF_8indexmap5inner19insert_bulk_no_growNtNtCsgvX44DZTN43_5alloc6string6StringuE0ECslloyL1UMMzU_17rustc_incremental
librustc_driver-fa31e2489381cd18.so:_RINvMs6_NtCsccaKyoXA9k1_9hashbrown3rawINtB6_8RawTablejE14reserve_rehashNCINvNtCs7KwMrq602nF_8indexmap5inner19insert_bulk_no_growNtNtCsiP3zVQcHmFl_10rustc_span6def_id10LocalDefIduE0ECs4DnJvQYATGa_19rustc_mir_transform
librustc_driver-fa31e2489381cd18.so:_RINvMs6_NtCsccaKyoXA9k1_9hashbrown3rawINtB6_8RawTablejE14reserve_rehashNCINvNtCs7KwMrq602nF_8indexmap5inner19insert_bulk_no_growNtNtCsiP3zVQcHmFl_10rustc_span6symbol6SymbolINtNtCsgvX44DZTN43_5alloc3vec3VecNtNtB26_13span_encoding4SpanEE0ECs3XAq0Kofjci_15rustc_interface
librustc_driver-fa31e2489381cd18.so:_RINvMs6_NtCsccaKyoXA9k1_9hashbrown3rawINtB6_8RawTablejE14reserve_rehashNCINvNtCs7KwMrq602nF_8indexmap5inner19insert_bulk_no_growNtNtCsiP3zVQcHmFl_10rustc_span7hygiene6ExpnIdNtNtNtCs4DnJvQYATGa_19rustc_mir_transform8coverage9expansion8ExpnNodeE0EB2R_
librustc_driver-fa31e2489381cd18.so:_RINvMs6_NtCsccaKyoXA9k1_9hashbrown3rawINtB6_8RawTablejE14reserve_rehashNCINvNtCs7KwMrq602nF_8indexmap5inner19insert_bulk_no_growNtNtNtCsaqNsllmwM5m_12rustc_middle2ty12generic_args10GenericArguE0ECscUPtgnKeETP_18rustc_hir_analysis
librustc_driver-fa31e2489381cd18.so:_RINvMs6_NtCsccaKyoXA9k1_9hashbrown3rawINtB6_8RawTablejE14reserve_rehashNCINvNtCs7KwMrq602nF_8indexmap5inner19insert_bulk_no_growNtNtNtCsaqNsllmwM5m_12rustc_middle2ty9predicate6ClauseuE0ECscUPtgnKeETP_18rustc_hir_analysis
librustc_driver-fa31e2489381cd18.so:_RINvMs6_NtCsccaKyoXA9k1_9hashbrown3rawINtB6_8RawTablejE14reserve_rehashNCINvNtCs7KwMrq602nF_8indexmap5inner19insert_bulk_no_growNtNtNtCsaqNsllmwM5m_12rustc_middle2ty9predicate9PredicateuE0ECs7ZgcGxgGJUk_21rustc_trait_selection
librustc_driver-fa31e2489381cd18.so:_RINvMs6_NtCsccaKyoXA9k1_9hashbrown3rawINtB6_8RawTablejE14reserve_rehashNCINvNtCs7KwMrq602nF_8indexmap5inner19insert_bulk_no_growTNtNtCs3KflAWMuICG_9rustc_hir3def9NamespaceNtNtCsiP3zVQcHmFl_10rustc_span6symbol6SymbolEINtNtCs6e3rAaajRpB_4core6option6OptionNtNtB2N_6def_id5DefIdEE0ECsaqNsllmwM5m_12rustc_middle
librustc_driver-fa31e2489381cd18.so:_RINvMs6_NtCsccaKyoXA9k1_9hashbrown3rawINtB6_8RawTablejE14reserve_rehashNCINvNtCs7KwMrq602nF_8indexmap5inner19insert_bulk_no_growTRNtNtCsiP3zVQcHmFl_10rustc_span6def_id5DefIdRNtNtCs1ufPwUoOuD2_10rustc_lint23impl_trait_overcaptures9ParamKindEuE0EB2Q_
librustc_driver-fa31e2489381cd18.so:_RINvMs6_NtCsccaKyoXA9k1_9hashbrown3rawINtB6_8RawTablejE14reserve_rehashNCINvNtCs7KwMrq602nF_8indexmap5inner8get_hashINtNtCs6e3rAaajRpB_4core6option6OptionNtNtCsiP3zVQcHmFl_10rustc_span6def_id5DefIdENtNtCsgvX44DZTN43_5alloc6string6StringE0ECs3VMMNsKb80B_13rustc_resolve
librustc_driver-fa31e2489381cd18.so:_RINvMs6_NtCsccaKyoXA9k1_9hashbrown3rawINtB6_8RawTablejE14reserve_rehashNCINvNtCs7KwMrq602nF_8indexmap5inner8get_hashINtNtCs7JFcZT8r71y_15rustc_transmute6layout9ReferenceNtNtNtCsaqNsllmwM5m_12rustc_middle2ty6region6RegionNtB2L_2TyENtNtB1T_3dfa5StateE0EB1V_
librustc_driver-fa31e2489381cd18.so:_RINvMs6_NtCsccaKyoXA9k1_9hashbrown3rawINtB6_8RawTablejE14reserve_rehashNCINvNtCs7KwMrq602nF_8indexmap5inner8get_hashINtNtCsbByapOItfY5_13rustc_type_ir11fast_reject14SimplifiedTypeNtNtCsiP3zVQcHmFl_10rustc_span6def_id5DefIdEINtNtCs73ymBF2OK4c_14rustc_metadata5rmeta9LazyArrayNtB2T_8DefIndexEE0EB3E_
librustc_driver-fa31e2489381cd18.so:_RINvMs6_NtCsccaKyoXA9k1_9hashbrown3rawINtB6_8RawTablejE14reserve_rehashNCINvNtCs7KwMrq602nF_8indexmap5inner8get_hashINtNtCsbByapOItfY5_13rustc_type_ir11fast_reject14SimplifiedTypeNtNtCsiP3zVQcHmFl_10rustc_span6def_id5DefIdEINtNtCsgvX44DZTN43_5alloc3vec3VecB2R_EE0ECsaqNsllmwM5m_12rustc_middle
librustc_driver-fa31e2489381cd18.so:_RINvMs6_NtCsccaKyoXA9k1_9hashbrown3rawINtB6_8RawTablejE14reserve_rehashNCINvNtCs7KwMrq602nF_8indexmap5inner8get_hashINtNtCsbByapOItfY5_13rustc_type_ir11fast_reject14SimplifiedTypeNtNtCsiP3zVQcHmFl_10rustc_span6def_id5DefIdEINtNtCsgvX44DZTN43_5alloc3vec3VecNtB2T_10LocalDefIdEE0ECscUPtgnKeETP_18rustc_hir_analysis
librustc_driver-fa31e2489381cd18.so:_RINvMs6_NtCsccaKyoXA9k1_9hashbrown3rawINtB6_8RawTablejE14reserve_rehashNCINvNtCs7KwMrq602nF_8indexmap5inner8get_hashINtNtCsbByapOItfY5_13rustc_type_ir6binder11BoundRegionNtNtNtCsaqNsllmwM5m_12rustc_middle2ty7context6TyCtxtENtNtB2M_6region6RegionE0EB2O_
librustc_driver-fa31e2489381cd18.so:_RINvMs6_NtCsccaKyoXA9k1_9hashbrown3rawINtB6_8RawTablejE14reserve_rehashNCINvNtCs7KwMrq602nF_8indexmap5inner8get_hashINtNtCsbByapOItfY5_13rustc_type_ir6binder11PlaceholderNtNtNtCsaqNsllmwM5m_12rustc_middle2ty7context6TyCtxtINtB1T_10BoundConstB2I_EEB3y_E0ECs7ZgcGxgGJUk_21rustc_trait_selection
librustc_driver-fa31e2489381cd18.so:_RINvMs6_NtCsccaKyoXA9k1_9hashbrown3rawINtB6_8RawTablejE14reserve_rehashNCINvNtCs7KwMrq602nF_8indexmap5inner8get_hashINtNtCsbByapOItfY5_13rustc_type_ir6binder11PlaceholderNtNtNtCsaqNsllmwM5m_12rustc_middle2ty7context6TyCtxtINtB1T_11BoundRegionB2I_EEB3y_E0ECs7ZgcGxgGJUk_21rustc_trait_selection
librustc_driver-fa31e2489381cd18.so:_RINvMs6_NtCsccaKyoXA9k1_9hashbrown3rawINtB6_8RawTablejE14reserve_rehashNCINvNtCs7KwMrq602nF_8indexmap5inner8get_hashINtNtCsbByapOItfY5_13rustc_type_ir6binder11PlaceholderNtNtNtCsaqNsllmwM5m_12rustc_middle2ty7context6TyCtxtINtB1T_11BoundRegionB2I_EEuE0ECsl5MakceMktk_14rustc_borrowck
librustc_driver-fa31e2489381cd18.so:_RINvMs6_NtCsccaKyoXA9k1_9hashbrown3rawINtB6_8RawTablejE14reserve_rehashNCINvNtCs7KwMrq602nF_8indexmap5inner8get_hashINtNtCsbByapOItfY5_13rustc_type_ir6binder11PlaceholderNtNtNtCsaqNsllmwM5m_12rustc_middle2ty7context6TyCtxtINtB1T_7BoundTyB2I_EEB3y_E0ECs7ZgcGxgGJUk_21rustc_trait_selection
librustc_driver-fa31e2489381cd18.so:_RINvMs6_NtCsccaKyoXA9k1_9hashbrown3rawINtB6_8RawTablejE14reserve_rehashNCINvNtCs7KwMrq602nF_8indexmap5inner8get_hashINtNtCsbByapOItfY5_13rustc_type_ir6binder15BoundRegionKindNtNtNtCsaqNsllmwM5m_12rustc_middle2ty7context6TyCtxtEuE0EB2S_
librustc_driver-fa31e2489381cd18.so:_RINvMs6_NtCsccaKyoXA9k1_9hashbrown3rawINtB6_8RawTablejE14reserve_rehashNCINvNtCs7KwMrq602nF_8indexmap5inner8get_hashINtNtCsbByapOItfY5_13rustc_type_ir6binder6BinderNtNtNtCsaqNsllmwM5m_12rustc_middle2ty7context6TyCtxtINtNtB1V_9predicate14TraitPredicateB2C_EEINtNtB1e_3map8IndexMapNtNtCsiP3zVQcHmFl_10rustc_span6def_id5DefIdIB1R_B2C_NtB2G_4TermENtCsej5P1MWAjDV_10rustc_hash13FxBuildHasherEE0EB2I_
librustc_driver-fa31e2489381cd18.so:_RINvMs6_NtCsccaKyoXA9k1_9hashbrown3rawINtB6_8RawTablejE14reserve_rehashNCINvNtCs7KwMrq602nF_8indexmap5inner8get_hashINtNtCsbByapOItfY5_13rustc_type_ir6binder6BinderNtNtNtCsaqNsllmwM5m_12rustc_middle2ty7context6TyCtxtINtNtB1V_9predicate14TraitPredicateB2C_EENtNtNtCs7ZgcGxgGJUk_21rustc_trait_selection6traits6select21ProvisionalEvaluationE0EB4d_
librustc_driver-fa31e2489381cd18.so:_RINvMs6_NtCsccaKyoXA9k1_9hashbrown3rawINtB6_8RawTablejE14reserve_rehashNCINvNtCs7KwMrq602nF_8indexmap5inner8get_hashINtNtCsbByapOItfY5_13rustc_type_ir6binder6BinderNtNtNtCsaqNsllmwM5m_12rustc_middle2ty7context6TyCtxtINtNtB1V_9predicate8TraitRefB2C_EEINtNtCsgvX44DZTN43_5alloc3vec3VecNtNtCsiP3zVQcHmFl_10rustc_span6symbol6SymbolEE0ECscUPtgnKeETP_18rustc_hir_analysis
librustc_driver-fa31e2489381cd18.so:_RINvMs6_NtCsccaKyoXA9k1_9hashbrown3rawINtB6_8RawTablejE14reserve_rehashNCINvNtCs7KwMrq602nF_8indexmap5inner8get_hashINtNtCsbByapOItfY5_13rustc_type_ir7ty_kind7AliasTyNtNtNtCsaqNsllmwM5m_12rustc_middle2ty7context6TyCtxtEuE0ECscUPtgnKeETP_18rustc_hir_analysis
librustc_driver-fa31e2489381cd18.so:_RINvMs6_NtCsccaKyoXA9k1_9hashbrown3rawINtB6_8RawTablejE14reserve_rehashNCINvNtCs7KwMrq602nF_8indexmap5inner8get_hashINtNtCsbByapOItfY5_13rustc_type_ir9opaque_ty13OpaqueTypeKeyNtNtNtCsaqNsllmwM5m_12rustc_middle2ty7context6TyCtxtENtB2R_21ProvisionalHiddenTypeE0ECsfWGFs8tRit9_11rustc_infer
librustc_driver-fa31e2489381cd18.so:_RINvMs6_NtCsccaKyoXA9k1_9hashbrown3rawINtB6_8RawTablejE14reserve_rehashNCINvNtCs7KwMrq602nF_8indexmap5inner8get_hashINtNtCsbByapOItfY5_13rustc_type_ir9opaque_ty13OpaqueTypeKeyNtNtNtCsaqNsllmwM5m_12rustc_middle2ty7context6TyCtxtETB1Q_NtNtCsiP3zVQcHmFl_10rustc_span13span_encoding4SpanEE0ECsl5MakceMktk_14rustc_borrowck
librustc_driver-fa31e2489381cd18.so:_RINvMs6_NtCsccaKyoXA9k1_9hashbrown3rawINtB6_8RawTablejE14reserve_rehashNCINvNtCs7KwMrq602nF_8indexmap5inner8get_hashINtNtCsbByapOItfY5_13rustc_type_ir9predicate17OutlivesPredicateNtNtNtCsaqNsllmwM5m_12rustc_middle2ty7context6TyCtxtNtNtB2V_12generic_args10GenericArgENtNtCsiP3zVQcHmFl_10rustc_span13span_encoding4SpanE0ECscUPtgnKeETP_18rustc_hir_analysis
librustc_driver-fa31e2489381cd18.so:_RINvMs6_NtCsccaKyoXA9k1_9hashbrown3rawINtB6_8RawTablejE14reserve_rehashNCINvNtCs7KwMrq602nF_8indexmap5inner8get_hashINtNtCsbByapOItfY5_13rustc_type_ir9predicate17OutlivesPredicateNtNtNtCsaqNsllmwM5m_12rustc_middle2ty7context6TyCtxtNtNtNtCsfWGFs8tRit9_11rustc_infer5infer18region_constraints11GenericKindEuE0ECs7ZgcGxgGJUk_21rustc_trait_selection
librustc_driver-fa31e2489381cd18.so:_RINvMs6_NtCsccaKyoXA9k1_9hashbrown3rawINtB6_8RawTablejE14reserve_rehashNCINvNtCs7KwMrq602nF_8indexmap5inner8get_hashINtNtCsgvX44DZTN43_5alloc6borrow3CoweENtCserMDvxKWFUe_20rustc_error_messages12DiagArgValueE0ECsh8xpvZH2MPK_12rustc_errors
librustc_driver-fa31e2489381cd18.so:_RINvMs6_NtCsccaKyoXA9k1_9hashbrown3rawINtB6_8RawTablejE14reserve_rehashNCINvNtCs7KwMrq602nF_8indexmap5inner8get_hashINtNtCshmntTYxeqYP_21rustc_data_structures6intern8InternedNtCs3VMMNsKb80B_13rustc_resolve8DeclDataENtNtNtCsaqNsllmwM5m_12rustc_middle6middle7privacy19EffectiveVisibilityE0EB2O_
librustc_driver-fa31e2489381cd18.so:_RINvMs6_NtCsccaKyoXA9k1_9hashbrown3rawINtB6_8RawTablejE14reserve_rehashNCINvNtCs7KwMrq602nF_8indexmap5inner8get_hashINtNtCshmntTYxeqYP_21rustc_data_structures6intern8InternedNtNtCs3VMMNsKb80B_13rustc_resolve7imports10ImportDataEuE0EB2Q_
librustc_driver-fa31e2489381cd18.so:_RINvMs6_NtCsccaKyoXA9k1_9hashbrown3rawINtB6_8RawTablejE14reserve_rehashNCINvNtCs7KwMrq602nF_8indexmap5inner8get_hashNtCs3VMMNsKb80B_13rustc_resolve10BindingKeyRINtNtB1S_7ref_mut9CmRefCellNtNtB1S_7imports14NameResolutionEE0EB1S_
librustc_driver-fa31e2489381cd18.so:_RINvMs6_NtCsccaKyoXA9k1_9hashbrown3rawINtB6_8RawTablejE14reserve_rehashNCINvNtCs7KwMrq602nF_8indexmap5inner8get_hashNtCs3VMMNsKb80B_13rustc_resolve8IdentKeyNtB1S_18ExternPreludeEntryE0EB1S_
librustc_driver-fa31e2489381cd18.so:_RINvMs6_NtCsccaKyoXA9k1_9hashbrown3rawINtB6_8RawTablejE14reserve_rehashNCINvNtCs7KwMrq602nF_8indexmap5inner8get_hashNtCs6ahoKXGLX5z_12rustc_hir_id11ItemLocalIdNtNtNtCsaqNsllmwM5m_12rustc_middle6middle6region5ScopeE0EB2D_
librustc_driver-fa31e2489381cd18.so:_RINvMs6_NtCsccaKyoXA9k1_9hashbrown3rawINtB6_8RawTablejE14reserve_rehashNCINvNtCs7KwMrq602nF_8indexmap5inner8get_hashNtCs6ahoKXGLX5z_12rustc_hir_id11ItemLocalIduE0ECscUPtgnKeETP_18rustc_hir_analysis
librustc_driver-fa31e2489381cd18.so:_RINvMs6_NtCsccaKyoXA9k1_9hashbrown3rawINtB6_8RawTablejE14reserve_rehashNCINvNtCs7KwMrq602nF_8indexmap5inner8get_hashNtCs6ahoKXGLX5z_12rustc_hir_id5HirIdINtNtCsgvX44DZTN43_5alloc3vec3VecNtNtNtCsaqNsllmwM5m_12rustc_middle2ty7closure13CapturedPlaceEE0ECs6qKlvMSJCFB_16rustc_hir_typeck
librustc_driver-fa31e2489381cd18.so:_RINvMs6_NtCsccaKyoXA9k1_9hashbrown3rawINtB6_8RawTablejE14reserve_rehashNCINvNtCs7KwMrq602nF_8indexmap5inner8get_hashNtCs6ahoKXGLX5z_12rustc_hir_id5HirIdINtNtCsgvX44DZTN43_5alloc3vec3VecNtNtNtCsaqNsllmwM5m_12rustc_middle2ty7closure13CapturedPlaceEE0ECsaSsmK69njWG_16rustc_query_impl
librustc_driver-fa31e2489381cd18.so:_RINvMs6_NtCsccaKyoXA9k1_9hashbrown3rawINtB6_8RawTablejE14reserve_rehashNCINvNtCs7KwMrq602nF_8indexmap5inner8get_hashNtCs6ahoKXGLX5z_12rustc_hir_id5HirIdNtNtCs3KflAWMuICG_9rustc_hir3hir5UpvarE0ECserPFC4ou40o_12rustc_passes
librustc_driver-fa31e2489381cd18.so:_RINvMs6_NtCsccaKyoXA9k1_9hashbrown3rawINtB6_8RawTablejE14reserve_rehashNCINvNtCs7KwMrq602nF_8indexmap5inner8get_hashNtCs6ahoKXGLX5z_12rustc_hir_id5HirIdNtNtCsaqNsllmwM5m_12rustc_middle2ty2TyE0ECs6qKlvMSJCFB_16rustc_hir_typeck
librustc_driver-fa31e2489381cd18.so:_RINvMs6_NtCsccaKyoXA9k1_9hashbrown3rawINtB6_8RawTablejE14reserve_rehashNCINvNtCs7KwMrq602nF_8indexmap5inner8get_hashNtCs6ahoKXGLX5z_12rustc_hir_id5HirIdjE0ECs6qKlvMSJCFB_16rustc_hir_typeck
librustc_driver-fa31e2489381cd18.so:_RINvMs6_NtCsccaKyoXA9k1_9hashbrown3rawINtB6_8RawTablejE14reserve_rehashNCINvNtCs7KwMrq602nF_8indexmap5inner8get_hashNtCs6ahoKXGLX5z_12rustc_hir_id5HirIduE0ECs1ufPwUoOuD2_10rustc_lint
librustc_driver-fa31e2489381cd18.so:_RINvMs6_NtCsccaKyoXA9k1_9hashbrown3rawINtB6_8RawTablejE14reserve_rehashNCINvNtCs7KwMrq602nF_8indexmap5inner8get_hashNtCsbByapOItfY5_13rustc_type_ir13UniverseIndexINtNtCs6e3rAaajRpB_4core6option6OptionINtNtB1S_17region_constraint11AssumptionsNtNtNtCsaqNsllmwM5m_12rustc_middle2ty7context6TyCtxtEEE0ECsfWGFs8tRit9_11rustc_infer
librustc_driver-fa31e2489381cd18.so:_RINvMs6_NtCsccaKyoXA9k1_9hashbrown3rawINtB6_8RawTablejE14reserve_rehashNCINvNtCs7KwMrq602nF_8indexmap5inner8get_hashNtCsbByapOItfY5_13rustc_type_ir13UniverseIndexNtNtNtCsl5MakceMktk_14rustc_borrowck11diagnostics19bound_region_errors12UniverseInfoE0EB2G_
librustc_driver-fa31e2489381cd18.so:_RINvMs6_NtCsccaKyoXA9k1_9hashbrown3rawINtB6_8RawTablejE14reserve_rehashNCINvNtCs7KwMrq602nF_8indexmap5inner8get_hashNtCsbByapOItfY5_13rustc_type_ir8BoundVarINtNtB1S_6binder11BoundRegionNtNtNtCsaqNsllmwM5m_12rustc_middle2ty7context6TyCtxtEE0ECsfWGFs8tRit9_11rustc_infer
librustc_driver-fa31e2489381cd18.so:_RINvMs6_NtCsccaKyoXA9k1_9hashbrown3rawINtB6_8RawTablejE14reserve_rehashNCINvNtCs7KwMrq602nF_8indexmap5inner8get_hashNtCsbByapOItfY5_13rustc_type_ir8BoundVarINtNtB1S_6binder17BoundVariableKindNtNtNtCsaqNsllmwM5m_12rustc_middle2ty7context6TyCtxtEE0EB39_
librustc_driver-fa31e2489381cd18.so:_RINvMs6_NtCsccaKyoXA9k1_9hashbrown3rawINtB6_8RawTablejE14reserve_rehashNCINvNtCs7KwMrq602nF_8indexmap5inner8get_hashNtCsbByapOItfY5_13rustc_type_ir8BoundVarNtNtNtCsaqNsllmwM5m_12rustc_middle2ty12generic_args10GenericArgE0ECscUPtgnKeETP_18rustc_hir_analysis
librustc_driver-fa31e2489381cd18.so:_RINvMs6_NtCsccaKyoXA9k1_9hashbrown3rawINtB6_8RawTablejE14reserve_rehashNCINvNtCs7KwMrq602nF_8indexmap5inner8get_hashNtCsh8xpvZH2MPK_12rustc_errors8StashKeyINtNtB1e_3map8IndexMapNtNtCsiP3zVQcHmFl_10rustc_span13span_encoding4SpanTNtNtB1S_10diagnostic9DiagInnerINtNtCs6e3rAaajRpB_4core6option6OptionNtB2T_15ErrorGuaranteedEENtCsej5P1MWAjDV_10rustc_hash13FxBuildHasherEE0EB1S_
librustc_driver-fa31e2489381cd18.so:_RINvMs6_NtCsccaKyoXA9k1_9hashbrown3rawINtB6_8RawTablejE14reserve_rehashNCINvNtCs7KwMrq602nF_8indexmap5inner8get_hashNtCsiP3zVQcHmFl_10rustc_span18StableSourceFileIdNtNtCsgvX44DZTN43_5alloc6string6StringE0ECsirwAroatyKs_18rustc_codegen_llvm
librustc_driver-fa31e2489381cd18.so:_RINvMs6_NtCsccaKyoXA9k1_9hashbrown3rawINtB6_8RawTablejE14reserve_rehashNCINvNtCs7KwMrq602nF_8indexmap5inner8get_hashNtCsiP3zVQcHmFl_10rustc_span8SpanDatauE0EB1S_
librustc_driver-fa31e2489381cd18.so:_RINvMs6_NtCsccaKyoXA9k1_9hashbrown3rawINtB6_8RawTablejE14reserve_rehashNCINvNtCs7KwMrq602nF_8indexmap5inner8get_hashNtCskk5ZUZA4NPw_15rustc_lint_defs17LintExpectationIduE0ECsh8xpvZH2MPK_12rustc_errors
librustc_driver-fa31e2489381cd18.so:_RINvMs6_NtCsccaKyoXA9k1_9hashbrown3rawINtB6_8RawTablejE14reserve_rehashNCINvNtCs7KwMrq602nF_8indexmap5inner8get_hashNtCskk5ZUZA4NPw_15rustc_lint_defs6LintIdINtNtCsaqNsllmwM5m_12rustc_middle4lint9LevelSpecNtB1S_23StableLintExpectationIdEE0ECs1ufPwUoOuD2_10rustc_lint
librustc_driver-fa31e2489381cd18.so:_RINvMs6_NtCsccaKyoXA9k1_9hashbrown3rawINtB6_8RawTablejE14reserve_rehashNCINvNtCs7KwMrq602nF_8indexmap5inner8get_hashNtCskk5ZUZA4NPw_15rustc_lint_defs6LintIdINtNtCsaqNsllmwM5m_12rustc_middle4lint9LevelSpecNtB1S_25UnstableLintExpectationIdEE0ECs1ufPwUoOuD2_10rustc_lint
librustc_driver-fa31e2489381cd18.so:_RINvMs6_NtCsccaKyoXA9k1_9hashbrown3rawINtB6_8RawTablejE14reserve_rehashNCINvNtCs7KwMrq602nF_8indexmap5inner8get_hashNtNtCs1i6tFYPlPio_16unicode_security12mixed_script18AugmentedScriptSetNtNvXNtCs1ufPwUoOuD2_10rustc_lint16non_ascii_identsNtB33_14NonAsciiIdentsNtNtB35_6passes13EarlyLintPass11check_crate14ScriptSetUsageE0EB35_
librustc_driver-fa31e2489381cd18.so:_RINvMs6_NtCsccaKyoXA9k1_9hashbrown3rawINtB6_8RawTablejE14reserve_rehashNCINvNtCs7KwMrq602nF_8indexmap5inner8get_hashNtNtCs3KflAWMuICG_9rustc_hir3hir12LifetimeKindNtNtCs1ufPwUoOuD2_10rustc_lint15lifetime_syntax13LifetimeGroupE0EB2E_
librustc_driver-fa31e2489381cd18.so:_RINvMs6_NtCsccaKyoXA9k1_9hashbrown3rawINtB6_8RawTablejE14reserve_rehashNCINvNtCs7KwMrq602nF_8indexmap5inner8get_hashNtNtCs3scjADIeHPO_12rustc_target3asm12InlineAsmReguE0EB1U_
librustc_driver-fa31e2489381cd18.so:_RINvMs6_NtCsccaKyoXA9k1_9hashbrown3rawINtB6_8RawTablejE14reserve_rehashNCINvNtCs7KwMrq602nF_8indexmap5inner8get_hashNtNtCs3scjADIeHPO_12rustc_target3asm19InlineAsmClobberAbiTNtNtCsiP3zVQcHmFl_10rustc_span6symbol6SymbolNtNtB2Q_13span_encoding4SpanEE0ECs6UwPWeCye2U_18rustc_ast_lowering
librustc_driver-fa31e2489381cd18.so:_RINvMs6_NtCsccaKyoXA9k1_9hashbrown3rawINtB6_8RawTablejE14reserve_rehashNCINvNtCs7KwMrq602nF_8indexmap5inner8get_hashNtNtCs4DnJvQYATGa_19rustc_mir_transform14jump_threading9ConditionuE0EB1U_
librustc_driver-fa31e2489381cd18.so:_RINvMs6_NtCsccaKyoXA9k1_9hashbrown3rawINtB6_8RawTablejE14reserve_rehashNCINvNtCs7KwMrq602nF_8indexmap5inner8get_hashNtNtCs6qKlvMSJCFB_16rustc_hir_typeck5upvar18UpvarMigrationInfoINtNtCshmntTYxeqYP_21rustc_data_structures5unord8UnordSetReEE0EB1U_
librustc_driver-fa31e2489381cd18.so:_RINvMs6_NtCsccaKyoXA9k1_9hashbrown3rawINtB6_8RawTablejE14reserve_rehashNCINvNtCs7KwMrq602nF_8indexmap5inner8get_hashNtNtCs6qKlvMSJCFB_16rustc_hir_typeck5upvar18UpvarMigrationInfouE0EB1U_
librustc_driver-fa31e2489381cd18.so:_RINvMs6_NtCsccaKyoXA9k1_9hashbrown3rawINtB6_8RawTablejE14reserve_rehashNCINvNtCs7KwMrq602nF_8indexmap5inner8get_hashNtNtCs8Oewc4Z7MhZ_18rustc_mir_dataflow6points10PointIndexuE0ECsl5MakceMktk_14rustc_borrowck
librustc_driver-fa31e2489381cd18.so:_RINvMs6_NtCsccaKyoXA9k1_9hashbrown3rawINtB6_8RawTablejE14reserve_rehashNCINvNtCs7KwMrq602nF_8indexmap5inner8get_hashNtNtCsaqNsllmwM5m_12rustc_middle2ty2TyB1Q_E0ECscUPtgnKeETP_18rustc_hir_analysis
librustc_driver-fa31e2489381cd18.so:_RINvMs6_NtCsccaKyoXA9k1_9hashbrown3rawINtB6_8RawTablejE14reserve_rehashNCINvNtCs7KwMrq602nF_8indexmap5inner8get_hashNtNtCsaqNsllmwM5m_12rustc_middle2ty2TyINtNtCsgvX44DZTN43_5alloc3vec3VecNtNtCsiP3zVQcHmFl_10rustc_span6def_id5DefIdEE0ECscUPtgnKeETP_18rustc_hir_analysis
librustc_driver-fa31e2489381cd18.so:_RINvMs6_NtCsccaKyoXA9k1_9hashbrown3rawINtB6_8RawTablejE14reserve_rehashNCINvNtCs7KwMrq602nF_8indexmap5inner8get_hashNtNtCsaqNsllmwM5m_12rustc_middle2ty2TyNtNtCs84S5s1Yb6le_12rustc_public2ty2TyE0EB2w_
librustc_driver-fa31e2489381cd18.so:_RINvMs6_NtCsccaKyoXA9k1_9hashbrown3rawINtB6_8RawTablejE14reserve_rehashNCINvNtCs7KwMrq602nF_8indexmap5inner8get_hashNtNtCsaqNsllmwM5m_12rustc_middle2ty2TyNtNtNtNtCsl5MakceMktk_14rustc_borrowck10type_check8liveness5trace8DropDataE0EB2A_
librustc_driver-fa31e2489381cd18.so:_RINvMs6_NtCsccaKyoXA9k1_9hashbrown3rawINtB6_8RawTablejE14reserve_rehashNCINvNtCs7KwMrq602nF_8indexmap5inner8get_hashNtNtCsaqNsllmwM5m_12rustc_middle2ty2TyNtNvNtNtCs7ZgcGxgGJUk_21rustc_trait_selection15error_reporting6traits21to_pretty_impl_header14SizednessFoundE0EB2A_
librustc_driver-fa31e2489381cd18.so:_RINvMs6_NtCsccaKyoXA9k1_9hashbrown3rawINtB6_8RawTablejE14reserve_rehashNCINvNtCs7KwMrq602nF_8indexmap5inner8get_hashNtNtCsaqNsllmwM5m_12rustc_middle2ty2TyuE0ECs7ZgcGxgGJUk_21rustc_trait_selection
librustc_driver-fa31e2489381cd18.so:_RINvMs6_NtCsccaKyoXA9k1_9hashbrown3rawINtB6_8RawTablejE14reserve_rehashNCINvNtCs7KwMrq602nF_8indexmap5inner8get_hashNtNtCsaqNsllmwM5m_12rustc_middle3mir10BasicBlockINtNtCsgvX44DZTN43_5alloc3vec3VecTNtB1S_8LocationRNtNtB1S_6syntax5PlaceEEE0ECs4DnJvQYATGa_19rustc_mir_transform
librustc_driver-fa31e2489381cd18.so:_RINvMs6_NtCsccaKyoXA9k1_9hashbrown3rawINtB6_8RawTablejE14reserve_rehashNCINvNtCs7KwMrq602nF_8indexmap5inner8get_hashNtNtCsaqNsllmwM5m_12rustc_middle3mir10SourceInfoNtNtCs4DnJvQYATGa_19rustc_mir_transform8liveness6AccessE0EB2G_
librustc_driver-fa31e2489381cd18.so:_RINvMs6_NtCsccaKyoXA9k1_9hashbrown3rawINtB6_8RawTablejE14reserve_rehashNCINvNtCs7KwMrq602nF_8indexmap5inner8get_hashNtNtCsaqNsllmwM5m_12rustc_middle3mir5LocalINtNtB1e_3set8IndexSetNtNtCsl5MakceMktk_14rustc_borrowck8dataflow11BorrowIndexNtCsej5P1MWAjDV_10rustc_hash13FxBuildHasherEE0EB2W_
librustc_driver-fa31e2489381cd18.so:_RINvMs6_NtCsccaKyoXA9k1_9hashbrown3rawINtB6_8RawTablejE14reserve_rehashNCINvNtCs7KwMrq602nF_8indexmap5inner8get_hashNtNtCsaqNsllmwM5m_12rustc_middle3mir5LocalNtNtCsiP3zVQcHmFl_10rustc_span6symbol6SymbolE0ECs4DnJvQYATGa_19rustc_mir_transform
librustc_driver-fa31e2489381cd18.so:_RINvMs6_NtCsccaKyoXA9k1_9hashbrown3rawINtB6_8RawTablejE14reserve_rehashNCINvNtCs7KwMrq602nF_8indexmap5inner8get_hashNtNtCsaqNsllmwM5m_12rustc_middle3mir5LocalNtNtCsl5MakceMktk_14rustc_borrowck8dataflow11BorrowIndexE0EB2A_
librustc_driver-fa31e2489381cd18.so:_RINvMs6_NtCsccaKyoXA9k1_9hashbrown3rawINtB6_8RawTablejE14reserve_rehashNCINvNtCs7KwMrq602nF_8indexmap5inner8get_hashNtNtCsaqNsllmwM5m_12rustc_middle3mir5LocalTNtNtCsgvX44DZTN43_5alloc6string6StringbEE0ECs4DnJvQYATGa_19rustc_mir_transform
librustc_driver-fa31e2489381cd18.so:_RINvMs6_NtCsccaKyoXA9k1_9hashbrown3rawINtB6_8RawTablejE14reserve_rehashNCINvNtCs7KwMrq602nF_8indexmap5inner8get_hashNtNtCsaqNsllmwM5m_12rustc_middle3mir5LocaluE0ECsl5MakceMktk_14rustc_borrowck
librustc_driver-fa31e2489381cd18.so:_RINvMs6_NtCsccaKyoXA9k1_9hashbrown3rawINtB6_8RawTablejE14reserve_rehashNCINvNtCs7KwMrq602nF_8indexmap5inner8get_hashNtNtCsaqNsllmwM5m_12rustc_middle3mir8LocationINtNtCsgvX44DZTN43_5alloc3vec3VecNtNtCsl5MakceMktk_14rustc_borrowck8dataflow11BorrowIndexEE0EB3a_
librustc_driver-fa31e2489381cd18.so:_RINvMs6_NtCsccaKyoXA9k1_9hashbrown3rawINtB6_8RawTablejE14reserve_rehashNCINvNtCs7KwMrq602nF_8indexmap5inner8get_hashNtNtCsaqNsllmwM5m_12rustc_middle3mir8LocationNtNtCsl5MakceMktk_14rustc_borrowck10borrow_set10BorrowDataE0EB2D_
librustc_driver-fa31e2489381cd18.so:_RINvMs6_NtCsccaKyoXA9k1_9hashbrown3rawINtB6_8RawTablejE14reserve_rehashNCINvNtCs7KwMrq602nF_8indexmap5inner8get_hashNtNtCsaqNsllmwM5m_12rustc_middle3mir8LocationuE0ECsl5MakceMktk_14rustc_borrowck
librustc_driver-fa31e2489381cd18.so:_RINvMs6_NtCsccaKyoXA9k1_9hashbrown3rawINtB6_8RawTablejE14reserve_rehashNCINvNtCs7KwMrq602nF_8indexmap5inner8get_hashNtNtCsaqNsllmwM5m_12rustc_middle4mono8MonoItemNtB1S_12MonoItemDataE0ECs1yK2jRAc0XL_18rustc_monomorphize
librustc_driver-fa31e2489381cd18.so:_RINvMs6_NtCsccaKyoXA9k1_9hashbrown3rawINtB6_8RawTablejE14reserve_rehashNCINvNtCs7KwMrq602nF_8indexmap5inner8get_hashNtNtCsaqNsllmwM5m_12rustc_middle4mono8MonoItemNtNtCsiP3zVQcHmFl_10rustc_span13span_encoding4SpanE0ECs1yK2jRAc0XL_18rustc_monomorphize
librustc_driver-fa31e2489381cd18.so:_RINvMs6_NtCsccaKyoXA9k1_9hashbrown3rawINtB6_8RawTablejE14reserve_rehashNCINvNtCs7KwMrq602nF_8indexmap5inner8get_hashNtNtCsaqNsllmwM5m_12rustc_middle4mono8MonoItemuE0ECs1yK2jRAc0XL_18rustc_monomorphize
librustc_driver-fa31e2489381cd18.so:_RINvMs6_NtCsccaKyoXA9k1_9hashbrown3rawINtB6_8RawTablejE14reserve_rehashNCINvNtCs7KwMrq602nF_8indexmap5inner8get_hashNtNtCsaqNsllmwM5m_12rustc_middle6traits25DynCompatibilityViolationuE0ECs7ZgcGxgGJUk_21rustc_trait_selection
librustc_driver-fa31e2489381cd18.so:_RINvMs6_NtCsccaKyoXA9k1_9hashbrown3rawINtB6_8RawTablejE14reserve_rehashNCINvNtCs7KwMrq602nF_8indexmap5inner8get_hashNtNtCsb0NW3Zcr2eh_22rustc_pattern_analysis5rustc10RevealedTyuE0ECsPGgg1SovgA_15rustc_mir_build
librustc_driver-fa31e2489381cd18.so:_RINvMs6_NtCsccaKyoXA9k1_9hashbrown3rawINtB6_8RawTablejE14reserve_rehashNCINvNtCs7KwMrq602nF_8indexmap5inner8get_hashNtNtCsbByapOItfY5_13rustc_type_ir11region_kind9RegionVidINtNtB1e_3set8IndexSetNtNtCs8Oewc4Z7MhZ_18rustc_mir_dataflow6points10PointIndexNtCsej5P1MWAjDV_10rustc_hash13FxBuildHasherEE0ECsl5MakceMktk_14rustc_borrowck
librustc_driver-fa31e2489381cd18.so:_RINvMs6_NtCsccaKyoXA9k1_9hashbrown3rawINtB6_8RawTablejE14reserve_rehashNCINvNtCs7KwMrq602nF_8indexmap5inner8get_hashNtNtCsbByapOItfY5_13rustc_type_ir11region_kind9RegionVidNtNtNtCsaqNsllmwM5m_12rustc_middle2ty6region6RegionE0ECs7ZgcGxgGJUk_21rustc_trait_selection
librustc_driver-fa31e2489381cd18.so:_RINvMs6_NtCsccaKyoXA9k1_9hashbrown3rawINtB6_8RawTablejE14reserve_rehashNCINvNtCs7KwMrq602nF_8indexmap5inner8get_hashNtNtCsbByapOItfY5_13rustc_type_ir11region_kind9RegionVidNtNtNtCsl5MakceMktk_14rustc_borrowck11diagnostics11region_name10RegionNameE0EB2Q_
librustc_driver-fa31e2489381cd18.so:_RINvMs6_NtCsccaKyoXA9k1_9hashbrown3rawINtB6_8RawTablejE14reserve_rehashNCINvNtCs7KwMrq602nF_8indexmap5inner8get_hashNtNtCsbByapOItfY5_13rustc_type_ir11region_kind9RegionViduE0ECsl5MakceMktk_14rustc_borrowck
librustc_driver-fa31e2489381cd18.so:_RINvMs6_NtCsccaKyoXA9k1_9hashbrown3rawINtB6_8RawTablejE14reserve_rehashNCINvNtCs7KwMrq602nF_8indexmap5inner8get_hashNtNtCsd482UFdOvTO_9rustc_ast3ast12ParamKindOrdTB1Q_INtNtCsgvX44DZTN43_5alloc3vec3VecNtNtCsiP3zVQcHmFl_10rustc_span13span_encoding4SpanEEE0ECsgWxL20S7Iv3_16rustc_ast_passes
librustc_driver-fa31e2489381cd18.so:_RINvMs6_NtCsccaKyoXA9k1_9hashbrown3rawINtB6_8RawTablejE14reserve_rehashNCINvNtCs7KwMrq602nF_8indexmap5inner8get_hashNtNtCsd482UFdOvTO_9rustc_ast7node_id6NodeIdINtNtCsgvX44DZTN43_5alloc3vec3VecNtNtCsh8xpvZH2MPK_12rustc_errors13decorate_diag17BufferedEarlyLintEE0EB38_
librustc_driver-fa31e2489381cd18.so:_RINvMs6_NtCsccaKyoXA9k1_9hashbrown3rawINtB6_8RawTablejE14reserve_rehashNCINvNtCs7KwMrq602nF_8indexmap5inner8get_hashNtNtCsd482UFdOvTO_9rustc_ast7node_id6NodeIdNtNtCs3VMMNsKb80B_13rustc_resolve12check_unused12UnusedImportE0EB2B_
librustc_driver-fa31e2489381cd18.so:_RINvMs6_NtCsccaKyoXA9k1_9hashbrown3rawINtB6_8RawTablejE14reserve_rehashNCINvNtCs7KwMrq602nF_8indexmap5inner8get_hashNtNtCsd482UFdOvTO_9rustc_ast7node_id6NodeIdNtNtCsiP3zVQcHmFl_10rustc_span13span_encoding4SpanE0ECs3VMMNsKb80B_13rustc_resolve
librustc_driver-fa31e2489381cd18.so:_RINvMs6_NtCsccaKyoXA9k1_9hashbrown3rawINtB6_8RawTablejE14reserve_rehashNCINvNtCs7KwMrq602nF_8indexmap5inner8get_hashNtNtCsd482UFdOvTO_9rustc_ast7node_id6NodeIdTNtNtCsiP3zVQcHmFl_10rustc_span6def_id10LocalDefIdINtNtCs26SsCXMViOp_11rustc_index7bit_set11DenseBitSetjEEE0ECs3VMMNsKb80B_13rustc_resolve
librustc_driver-fa31e2489381cd18.so:_RINvMs6_NtCsccaKyoXA9k1_9hashbrown3rawINtB6_8RawTablejE14reserve_rehashNCINvNtCs7KwMrq602nF_8indexmap5inner8get_hashNtNtCsgvX44DZTN43_5alloc6string6StringB1Q_E0ECs8svpH8FC8uE_13rustc_session
librustc_driver-fa31e2489381cd18.so:_RINvMs6_NtCsccaKyoXA9k1_9hashbrown3rawINtB6_8RawTablejE14reserve_rehashNCINvNtCs7KwMrq602nF_8indexmap5inner8get_hashNtNtCsgvX44DZTN43_5alloc6string6StringINtNtB1e_3map8IndexMapNtNtCsiP3zVQcHmFl_10rustc_span6symbol6SymbolRNtNtCs8svpH8FC8uE_13rustc_session6cstore9DllImportNtCsej5P1MWAjDV_10rustc_hash13FxBuildHasherEE0ECsg0ydQtPiXpO_17rustc_codegen_ssa
librustc_driver-fa31e2489381cd18.so:_RINvMs6_NtCsccaKyoXA9k1_9hashbrown3rawINtB6_8RawTablejE14reserve_rehashNCINvNtCs7KwMrq602nF_8indexmap5inner8get_hashNtNtCsgvX44DZTN43_5alloc6string6StringTINtNtB1e_3map8IndexMapNtNtCsiP3zVQcHmFl_10rustc_span6symbol6SymbolRNtNtCs8svpH8FC8uE_13rustc_session6cstore9DllImportNtCsej5P1MWAjDV_10rustc_hash13FxBuildHasherEbEE0ECsg0ydQtPiXpO_17rustc_codegen_ssa
librustc_driver-fa31e2489381cd18.so:_RINvMs6_NtCsccaKyoXA9k1_9hashbrown3rawINtB6_8RawTablejE14reserve_rehashNCINvNtCs7KwMrq602nF_8indexmap5inner8get_hashNtNtCsgvX44DZTN43_5alloc6string6StringTINtNtB1e_3set8IndexSetNtNtCskurZfFSl0zB_3std4path7PathBufNtCsej5P1MWAjDV_10rustc_hash13FxBuildHasherEB2t_B2t_B2t_EE0ECs73ymBF2OK4c_14rustc_metadata
librustc_driver-fa31e2489381cd18.so:_RINvMs6_NtCsccaKyoXA9k1_9hashbrown3rawINtB6_8RawTablejE14reserve_rehashNCINvNtCs7KwMrq602nF_8indexmap5inner8get_hashNtNtCsgvX44DZTN43_5alloc6string6StringTyINtNtCs6e3rAaajRpB_4core6option6OptionNtCsiP3zVQcHmFl_10rustc_span14SourceFileHashEEE0ECs3XAq0Kofjci_15rustc_interface
librustc_driver-fa31e2489381cd18.so:_RINvMs6_NtCsccaKyoXA9k1_9hashbrown3rawINtB6_8RawTablejE14reserve_rehashNCINvNtCs7KwMrq602nF_8indexmap5inner8get_hashNtNtCsgvX44DZTN43_5alloc6string6StringuE0ECsl5MakceMktk_14rustc_borrowck
librustc_driver-fa31e2489381cd18.so:_RINvMs6_NtCsccaKyoXA9k1_9hashbrown3rawINtB6_8RawTablejE14reserve_rehashNCINvNtCs7KwMrq602nF_8indexmap5inner8get_hashNtNtCsgvX44DZTN43_5alloc6string6StringuE0ECslloyL1UMMzU_17rustc_incremental
librustc_driver-fa31e2489381cd18.so:_RINvMs6_NtCsccaKyoXA9k1_9hashbrown3rawINtB6_8RawTablejE14reserve_rehashNCINvNtCs7KwMrq602nF_8indexmap5inner8get_hashNtNtCsh8xpvZH2MPK_12rustc_errors5codes7ErrCodeuE0EB1U_
librustc_driver-fa31e2489381cd18.so:_RINvMs6_NtCsccaKyoXA9k1_9hashbrown3rawINtB6_8RawTablejE14reserve_rehashNCINvNtCs7KwMrq602nF_8indexmap5inner8get_hashNtNtCshmntTYxeqYP_21rustc_data_structures3svh3SvhNtNtCs73ymBF2OK4c_14rustc_metadata7creader7LibraryE0EB2H_
librustc_driver-fa31e2489381cd18.so:_RINvMs6_NtCsccaKyoXA9k1_9hashbrown3rawINtB6_8RawTablejE14reserve_rehashNCINvNtCs7KwMrq602nF_8indexmap5inner8get_hashNtNtCsiP3zVQcHmFl_10rustc_span13span_encoding4SpanB1Q_E0ECsgfasDSBi4N4_11rustc_parse
librustc_driver-fa31e2489381cd18.so:_RINvMs6_NtCsccaKyoXA9k1_9hashbrown3rawINtB6_8RawTablejE14reserve_rehashNCINvNtCs7KwMrq602nF_8indexmap5inner8get_hashNtNtCsiP3zVQcHmFl_10rustc_span13span_encoding4SpanINtNtCsgvX44DZTN43_5alloc3vec3VecNtNtB2J_6string6StringEE0ECs785ZPy54HPh_12rustc_expand
librustc_driver-fa31e2489381cd18.so:_RINvMs6_NtCsccaKyoXA9k1_9hashbrown3rawINtB6_8RawTablejE14reserve_rehashNCINvNtCs7KwMrq602nF_8indexmap5inner8get_hashNtNtCsiP3zVQcHmFl_10rustc_span13span_encoding4SpanINtNtCsgvX44DZTN43_5alloc3vec3VecNtNvMs1_NtNtCs7ZgcGxgGJUk_21rustc_trait_selection15error_reporting6traitsNtB3l_11TypeErrCtxt25report_fulfillment_errors15ErrorDescriptorEE0EB3n_
librustc_driver-fa31e2489381cd18.so:_RINvMs6_NtCsccaKyoXA9k1_9hashbrown3rawINtB6_8RawTablejE14reserve_rehashNCINvNtCs7KwMrq602nF_8indexmap5inner8get_hashNtNtCsiP3zVQcHmFl_10rustc_span13span_encoding4SpanNtCskTCZcgcvGt2_12rustc_ast_ir10MutabilityE0ECsPGgg1SovgA_15rustc_mir_build
librustc_driver-fa31e2489381cd18.so:_RINvMs6_NtCsccaKyoXA9k1_9hashbrown3rawINtB6_8RawTablejE14reserve_rehashNCINvNtCs7KwMrq602nF_8indexmap5inner8get_hashNtNtCsiP3zVQcHmFl_10rustc_span13span_encoding4SpanNtNtCs84S5s1Yb6le_12rustc_public2ty4SpanE0EB2I_
librustc_driver-fa31e2489381cd18.so:_RINvMs6_NtCsccaKyoXA9k1_9hashbrown3rawINtB6_8RawTablejE14reserve_rehashNCINvNtCs7KwMrq602nF_8indexmap5inner8get_hashNtNtCsiP3zVQcHmFl_10rustc_span13span_encoding4SpanTINtNtB1e_3set8IndexSetB1Q_NtCsej5P1MWAjDV_10rustc_hash13FxBuildHasherEIB2G_TB1Q_NtNtCsgvX44DZTN43_5alloc6string6StringEB35_EINtNtB41_3vec3VecRNtNtNtCsaqNsllmwM5m_12rustc_middle2ty9predicate9PredicateEEE0ECs6qKlvMSJCFB_16rustc_hir_typeck
librustc_driver-fa31e2489381cd18.so:_RINvMs6_NtCsccaKyoXA9k1_9hashbrown3rawINtB6_8RawTablejE14reserve_rehashNCINvNtCs7KwMrq602nF_8indexmap5inner8get_hashNtNtCsiP3zVQcHmFl_10rustc_span13span_encoding4SpanTINtNtCsgvX44DZTN43_5alloc3vec3VecINtNtCsbByapOItfY5_13rustc_type_ir5solve4GoalNtNtNtCsaqNsllmwM5m_12rustc_middle2ty7context6TyCtxtNtNtB3Z_9predicate9PredicateEENtB1U_15ErrorGuaranteedEE0ECs7ZgcGxgGJUk_21rustc_trait_selection
librustc_driver-fa31e2489381cd18.so:_RINvMs6_NtCsccaKyoXA9k1_9hashbrown3rawINtB6_8RawTablejE14reserve_rehashNCINvNtCs7KwMrq602nF_8indexmap5inner8get_hashNtNtCsiP3zVQcHmFl_10rustc_span13span_encoding4SpanTNtNtCsh8xpvZH2MPK_12rustc_errors10diagnostic4DiagjEE0ECsl5MakceMktk_14rustc_borrowck
librustc_driver-fa31e2489381cd18.so:_RINvMs6_NtCsccaKyoXA9k1_9hashbrown3rawINtB6_8RawTablejE14reserve_rehashNCINvNtCs7KwMrq602nF_8indexmap5inner8get_hashNtNtCsiP3zVQcHmFl_10rustc_span13span_encoding4SpanTNtNtCsh8xpvZH2MPK_12rustc_errors10diagnostic9DiagInnerINtNtCs6e3rAaajRpB_4core6option6OptionNtB1U_15ErrorGuaranteedEEE0EB2J_
librustc_driver-fa31e2489381cd18.so:_RINvMs6_NtCsccaKyoXA9k1_9hashbrown3rawINtB6_8RawTablejE14reserve_rehashNCINvNtCs7KwMrq602nF_8indexmap5inner8get_hashNtNtCsiP3zVQcHmFl_10rustc_span13span_encoding4SpanjE0ECs1ufPwUoOuD2_10rustc_lint
librustc_driver-fa31e2489381cd18.so:_RINvMs6_NtCsccaKyoXA9k1_9hashbrown3rawINtB6_8RawTablejE14reserve_rehashNCINvNtCs7KwMrq602nF_8indexmap5inner8get_hashNtNtCsiP3zVQcHmFl_10rustc_span13span_encoding4SpanuE0ECs3VMMNsKb80B_13rustc_resolve
librustc_driver-fa31e2489381cd18.so:_RINvMs6_NtCsccaKyoXA9k1_9hashbrown3rawINtB6_8RawTablejE14reserve_rehashNCINvNtCs7KwMrq602nF_8indexmap5inner8get_hashNtNtCsiP3zVQcHmFl_10rustc_span13span_encoding4SpanuE0ECs7ZgcGxgGJUk_21rustc_trait_selection
librustc_driver-fa31e2489381cd18.so:_RINvMs6_NtCsccaKyoXA9k1_9hashbrown3rawINtB6_8RawTablejE14reserve_rehashNCINvNtCs7KwMrq602nF_8indexmap5inner8get_hashNtNtCsiP3zVQcHmFl_10rustc_span6def_id10LocalDefIdINtNtB1e_3set8IndexSetB1Q_NtCsej5P1MWAjDV_10rustc_hash13FxBuildHasherEE0ECs3VMMNsKb80B_13rustc_resolve
librustc_driver-fa31e2489381cd18.so:_RINvMs6_NtCsccaKyoXA9k1_9hashbrown3rawINtB6_8RawTablejE14reserve_rehashNCINvNtCs7KwMrq602nF_8indexmap5inner8get_hashNtNtCsiP3zVQcHmFl_10rustc_span6def_id10LocalDefIdINtNtB1e_3set8IndexSetNtNtB1U_6symbol6SymbolNtCsej5P1MWAjDV_10rustc_hash13FxBuildHasherEE0ECs3VMMNsKb80B_13rustc_resolve
librustc_driver-fa31e2489381cd18.so:_RINvMs6_NtCsccaKyoXA9k1_9hashbrown3rawINtB6_8RawTablejE14reserve_rehashNCINvNtCs7KwMrq602nF_8indexmap5inner8get_hashNtNtCsiP3zVQcHmFl_10rustc_span6def_id10LocalDefIdINtNtB1e_3set8IndexSetNtNtNtCsaqNsllmwM5m_12rustc_middle2ty9predicate6ClauseNtCsej5P1MWAjDV_10rustc_hash13FxBuildHasherEE0ECscUPtgnKeETP_18rustc_hir_analysis
librustc_driver-fa31e2489381cd18.so:_RINvMs6_NtCsccaKyoXA9k1_9hashbrown3rawINtB6_8RawTablejE14reserve_rehashNCINvNtCs7KwMrq602nF_8indexmap5inner8get_hashNtNtCsiP3zVQcHmFl_10rustc_span6def_id10LocalDefIdINtNtCsgvX44DZTN43_5alloc3vec3VecNtB1S_5DefIdEE0ECs3VMMNsKb80B_13rustc_resolve
librustc_driver-fa31e2489381cd18.so:_RINvMs6_NtCsccaKyoXA9k1_9hashbrown3rawINtB6_8RawTablejE14reserve_rehashNCINvNtCs7KwMrq602nF_8indexmap5inner8get_hashNtNtCsiP3zVQcHmFl_10rustc_span6def_id10LocalDefIdINtNtCsgvX44DZTN43_5alloc3vec3VecNtB1S_5DefIdEE0ECscUPtgnKeETP_18rustc_hir_analysis
librustc_driver-fa31e2489381cd18.so:_RINvMs6_NtCsccaKyoXA9k1_9hashbrown3rawINtB6_8RawTablejE14reserve_rehashNCINvNtCs7KwMrq602nF_8indexmap5inner8get_hashNtNtCsiP3zVQcHmFl_10rustc_span6def_id10LocalDefIdINtNtCshmntTYxeqYP_21rustc_data_structures5unord8UnordMapTNtNtB1U_6symbol6SymbolNtNtCs3KflAWMuICG_9rustc_hir3def9NamespaceEINtNtCs6e3rAaajRpB_4core6option6OptionINtB3X_3ResNtNtCsd482UFdOvTO_9rustc_ast7node_id6NodeIdEEEE0ECs3VMMNsKb80B_13rustc_resolve
librustc_driver-fa31e2489381cd18.so:_RINvMs6_NtCsccaKyoXA9k1_9hashbrown3rawINtB6_8RawTablejE14reserve_rehashNCINvNtCs7KwMrq602nF_8indexmap5inner8get_hashNtNtCsiP3zVQcHmFl_10rustc_span6def_id10LocalDefIdNtCs3VMMNsKb80B_13rustc_resolve11LocalModuleE0EB2F_
librustc_driver-fa31e2489381cd18.so:_RINvMs6_NtCsccaKyoXA9k1_9hashbrown3rawINtB6_8RawTablejE14reserve_rehashNCINvNtCs7KwMrq602nF_8indexmap5inner8get_hashNtNtCsiP3zVQcHmFl_10rustc_span6def_id10LocalDefIdNtCsl5MakceMktk_14rustc_borrowck30CollectRegionConstraintsResultE0EB2F_
librustc_driver-fa31e2489381cd18.so:_RINvMs6_NtCsccaKyoXA9k1_9hashbrown3rawINtB6_8RawTablejE14reserve_rehashNCINvNtCs7KwMrq602nF_8indexmap5inner8get_hashNtNtCsiP3zVQcHmFl_10rustc_span6def_id10LocalDefIdNtNtCs3KflAWMuICG_9rustc_hir3hir10MaybeOwnerE0ECs6UwPWeCye2U_18rustc_ast_lowering
librustc_driver-fa31e2489381cd18.so:_RINvMs6_NtCsccaKyoXA9k1_9hashbrown3rawINtB6_8RawTablejE14reserve_rehashNCINvNtCs7KwMrq602nF_8indexmap5inner8get_hashNtNtCsiP3zVQcHmFl_10rustc_span6def_id10LocalDefIdNtNtCsaqNsllmwM5m_12rustc_middle2ty24DefinitionSiteHiddenTypeE0ECs6qKlvMSJCFB_16rustc_hir_typeck
librustc_driver-fa31e2489381cd18.so:_RINvMs6_NtCsccaKyoXA9k1_9hashbrown3rawINtB6_8RawTablejE14reserve_rehashNCINvNtCs7KwMrq602nF_8indexmap5inner8get_hashNtNtCsiP3zVQcHmFl_10rustc_span6def_id10LocalDefIdNtNtCsaqNsllmwM5m_12rustc_middle2ty24DefinitionSiteHiddenTypeE0ECsaSsmK69njWG_16rustc_query_impl
librustc_driver-fa31e2489381cd18.so:_RINvMs6_NtCsccaKyoXA9k1_9hashbrown3rawINtB6_8RawTablejE14reserve_rehashNCINvNtCs7KwMrq602nF_8indexmap5inner8get_hashNtNtCsiP3zVQcHmFl_10rustc_span6def_id10LocalDefIdNtNtCsaqNsllmwM5m_12rustc_middle2ty24DefinitionSiteHiddenTypeE0ECsl5MakceMktk_14rustc_borrowck
librustc_driver-fa31e2489381cd18.so:_RINvMs6_NtCsccaKyoXA9k1_9hashbrown3rawINtB6_8RawTablejE14reserve_rehashNCINvNtCs7KwMrq602nF_8indexmap5inner8get_hashNtNtCsiP3zVQcHmFl_10rustc_span6def_id10LocalDefIdNtNtNtCsaqNsllmwM5m_12rustc_middle6middle18resolve_bound_vars11ResolvedArgE0ECscUPtgnKeETP_18rustc_hir_analysis
librustc_driver-fa31e2489381cd18.so:_RINvMs6_NtCsccaKyoXA9k1_9hashbrown3rawINtB6_8RawTablejE14reserve_rehashNCINvNtCs7KwMrq602nF_8indexmap5inner8get_hashNtNtCsiP3zVQcHmFl_10rustc_span6def_id10LocalDefIdNtNtNtCsaqNsllmwM5m_12rustc_middle6middle7privacy19EffectiveVisibilityE0EB2J_
librustc_driver-fa31e2489381cd18.so:_RINvMs6_NtCsccaKyoXA9k1_9hashbrown3rawINtB6_8RawTablejE14reserve_rehashNCINvNtCs7KwMrq602nF_8indexmap5inner8get_hashNtNtCsiP3zVQcHmFl_10rustc_span6def_id10LocalDefIdTNtNtCsd482UFdOvTO_9rustc_ast7node_id6NodeIdNtNtB1U_6symbol5IdentEE0ECs3VMMNsKb80B_13rustc_resolve
librustc_driver-fa31e2489381cd18.so:_RINvMs6_NtCsccaKyoXA9k1_9hashbrown3rawINtB6_8RawTablejE14reserve_rehashNCINvNtCs7KwMrq602nF_8indexmap5inner8get_hashNtNtCsiP3zVQcHmFl_10rustc_span6def_id10LocalDefIduE0ECs1ufPwUoOuD2_10rustc_lint
librustc_driver-fa31e2489381cd18.so:_RINvMs6_NtCsccaKyoXA9k1_9hashbrown3rawINtB6_8RawTablejE14reserve_rehashNCINvNtCs7KwMrq602nF_8indexmap5inner8get_hashNtNtCsiP3zVQcHmFl_10rustc_span6def_id10LocalDefIduE0ECs3VMMNsKb80B_13rustc_resolve
librustc_driver-fa31e2489381cd18.so:_RINvMs6_NtCsccaKyoXA9k1_9hashbrown3rawINtB6_8RawTablejE14reserve_rehashNCINvNtCs7KwMrq602nF_8indexmap5inner8get_hashNtNtCsiP3zVQcHmFl_10rustc_span6def_id10LocalDefIduE0ECs4DnJvQYATGa_19rustc_mir_transform
librustc_driver-fa31e2489381cd18.so:_RINvMs6_NtCsccaKyoXA9k1_9hashbrown3rawINtB6_8RawTablejE14reserve_rehashNCINvNtCs7KwMrq602nF_8indexmap5inner8get_hashNtNtCsiP3zVQcHmFl_10rustc_span6def_id10LocalDefIduE0ECs6UwPWeCye2U_18rustc_ast_lowering
librustc_driver-fa31e2489381cd18.so:_RINvMs6_NtCsccaKyoXA9k1_9hashbrown3rawINtB6_8RawTablejE14reserve_rehashNCINvNtCs7KwMrq602nF_8indexmap5inner8get_hashNtNtCsiP3zVQcHmFl_10rustc_span6def_id10LocalDefIduE0ECs7AhMru9HmZE_13rustc_privacy
librustc_driver-fa31e2489381cd18.so:_RINvMs6_NtCsccaKyoXA9k1_9hashbrown3rawINtB6_8RawTablejE14reserve_rehashNCINvNtCs7KwMrq602nF_8indexmap5inner8get_hashNtNtCsiP3zVQcHmFl_10rustc_span6def_id13StableCrateIdNtB1S_8CrateNumE0ECsaqNsllmwM5m_12rustc_middle
librustc_driver-fa31e2489381cd18.so:_RINvMs6_NtCsccaKyoXA9k1_9hashbrown3rawINtB6_8RawTablejE14reserve_rehashNCINvNtCs7KwMrq602nF_8indexmap5inner8get_hashNtNtCsiP3zVQcHmFl_10rustc_span6def_id5DefIdINtNtCsbByapOItfY5_13rustc_type_ir6binder11EarlyBinderNtNtNtCsaqNsllmwM5m_12rustc_middle2ty7context6TyCtxtINtNtB1e_3map8IndexMapINtNtB2C_9predicate17OutlivesPredicateB3p_NtNtB3t_12generic_args10GenericArgENtNtB1U_13span_encoding4SpanNtCsej5P1MWAjDV_10rustc_hash13FxBuildHasherEEE0ECscUPtgnKeETP_18rustc_hir_analysis
librustc_driver-fa31e2489381cd18.so:_RINvMs6_NtCsccaKyoXA9k1_9hashbrown3rawINtB6_8RawTablejE14reserve_rehashNCINvNtCs7KwMrq602nF_8indexmap5inner8get_hashNtNtCsiP3zVQcHmFl_10rustc_span6def_id5DefIdINtNtCsbByapOItfY5_13rustc_type_ir6binder6BinderNtNtNtCsaqNsllmwM5m_12rustc_middle2ty7context6TyCtxtNtB3n_4TermEE0EB3p_
librustc_driver-fa31e2489381cd18.so:_RINvMs6_NtCsccaKyoXA9k1_9hashbrown3rawINtB6_8RawTablejE14reserve_rehashNCINvNtCs7KwMrq602nF_8indexmap5inner8get_hashNtNtCsiP3zVQcHmFl_10rustc_span6def_id5DefIdINtNtCsgvX44DZTN43_5alloc3vec3VecNtB1S_10LocalDefIdEE0ECs3VMMNsKb80B_13rustc_resolve
librustc_driver-fa31e2489381cd18.so:_RINvMs6_NtCsccaKyoXA9k1_9hashbrown3rawINtB6_8RawTablejE14reserve_rehashNCINvNtCs7KwMrq602nF_8indexmap5inner8get_hashNtNtCsiP3zVQcHmFl_10rustc_span6def_id5DefIdINtNtCsgvX44DZTN43_5alloc3vec3VecNtNtB1U_13span_encoding4SpanEE0ECscUPtgnKeETP_18rustc_hir_analysis
librustc_driver-fa31e2489381cd18.so:_RINvMs6_NtCsccaKyoXA9k1_9hashbrown3rawINtB6_8RawTablejE14reserve_rehashNCINvNtCs7KwMrq602nF_8indexmap5inner8get_hashNtNtCsiP3zVQcHmFl_10rustc_span6def_id5DefIdINtNtCsgvX44DZTN43_5alloc3vec3VecRNtNtCsaqNsllmwM5m_12rustc_middle4mono8MonoItemEE0ECs1yK2jRAc0XL_18rustc_monomorphize
librustc_driver-fa31e2489381cd18.so:_RINvMs6_NtCsccaKyoXA9k1_9hashbrown3rawINtB6_8RawTablejE14reserve_rehashNCINvNtCs7KwMrq602nF_8indexmap5inner8get_hashNtNtCsiP3zVQcHmFl_10rustc_span6def_id5DefIdINtNtCsgvX44DZTN43_5alloc3vec3VecTNtB1S_8DefIndexINtNtCs6e3rAaajRpB_4core6option6OptionINtNtCsbByapOItfY5_13rustc_type_ir11fast_reject14SimplifiedTypeB1Q_EEEEE0ECs73ymBF2OK4c_14rustc_metadata
librustc_driver-fa31e2489381cd18.so:_RINvMs6_NtCsccaKyoXA9k1_9hashbrown3rawINtB6_8RawTablejE14reserve_rehashNCINvNtCs7KwMrq602nF_8indexmap5inner8get_hashNtNtCsiP3zVQcHmFl_10rustc_span6def_id5DefIdNtCs3VMMNsKb80B_13rustc_resolve12ExternModuleE0EB2z_
librustc_driver-fa31e2489381cd18.so:_RINvMs6_NtCsccaKyoXA9k1_9hashbrown3rawINtB6_8RawTablejE14reserve_rehashNCINvNtCs7KwMrq602nF_8indexmap5inner8get_hashNtNtCsiP3zVQcHmFl_10rustc_span6def_id5DefIdNtNtB1U_13span_encoding4SpanE0ECscUPtgnKeETP_18rustc_hir_analysis
librustc_driver-fa31e2489381cd18.so:_RINvMs6_NtCsccaKyoXA9k1_9hashbrown3rawINtB6_8RawTablejE14reserve_rehashNCINvNtCs7KwMrq602nF_8indexmap5inner8get_hashNtNtCsiP3zVQcHmFl_10rustc_span6def_id5DefIdNtNtCs1ufPwUoOuD2_10rustc_lint23impl_trait_overcaptures9ParamKindE0EB2B_
librustc_driver-fa31e2489381cd18.so:_RINvMs6_NtCsccaKyoXA9k1_9hashbrown3rawINtB6_8RawTablejE14reserve_rehashNCINvNtCs7KwMrq602nF_8indexmap5inner8get_hashNtNtCsiP3zVQcHmFl_10rustc_span6def_id5DefIdNtNtCs3KflAWMuICG_9rustc_hir10lang_items8LangItemE0EB2B_
librustc_driver-fa31e2489381cd18.so:_RINvMs6_NtCsccaKyoXA9k1_9hashbrown3rawINtB6_8RawTablejE14reserve_rehashNCINvNtCs7KwMrq602nF_8indexmap5inner8get_hashNtNtCsiP3zVQcHmFl_10rustc_span6def_id5DefIdNtNtCs84S5s1Yb6le_12rustc_public9crate_def5DefIdE0EB2B_
librustc_driver-fa31e2489381cd18.so:_RINvMs6_NtCsccaKyoXA9k1_9hashbrown3rawINtB6_8RawTablejE14reserve_rehashNCINvNtCs7KwMrq602nF_8indexmap5inner8get_hashNtNtCsiP3zVQcHmFl_10rustc_span6def_id5DefIdNtNtCs8svpH8FC8uE_13rustc_session6cstore13ForeignModuleE0ECs73ymBF2OK4c_14rustc_metadata
librustc_driver-fa31e2489381cd18.so:_RINvMs6_NtCsccaKyoXA9k1_9hashbrown3rawINtB6_8RawTablejE14reserve_rehashNCINvNtCs7KwMrq602nF_8indexmap5inner8get_hashNtNtCsiP3zVQcHmFl_10rustc_span6def_id5DefIdNtNtNtCs3KflAWMuICG_9rustc_hir5attrs15data_structures7EiiImplE0ECs73ymBF2OK4c_14rustc_metadata
librustc_driver-fa31e2489381cd18.so:_RINvMs6_NtCsccaKyoXA9k1_9hashbrown3rawINtB6_8RawTablejE14reserve_rehashNCINvNtCs7KwMrq602nF_8indexmap5inner8get_hashNtNtCsiP3zVQcHmFl_10rustc_span6def_id5DefIdNtNtNtCs3KflAWMuICG_9rustc_hir5attrs15data_structures7EiiImplE0ECsaSsmK69njWG_16rustc_query_impl
librustc_driver-fa31e2489381cd18.so:_RINvMs6_NtCsccaKyoXA9k1_9hashbrown3rawINtB6_8RawTablejE14reserve_rehashNCINvNtCs7KwMrq602nF_8indexmap5inner8get_hashNtNtCsiP3zVQcHmFl_10rustc_span6def_id5DefIdNtNvNtCserPFC4ou40o_12rustc_passes3eii36check_externally_implementable_items8FoundEiiE0EB2D_
librustc_driver-fa31e2489381cd18.so:_RINvMs6_NtCsccaKyoXA9k1_9hashbrown3rawINtB6_8RawTablejE14reserve_rehashNCINvNtCs7KwMrq602nF_8indexmap5inner8get_hashNtNtCsiP3zVQcHmFl_10rustc_span6def_id5DefIdNtNvNtCserPFC4ou40o_12rustc_passes3eii36check_externally_implementable_items9FoundImplE0EB2D_
librustc_driver-fa31e2489381cd18.so:_RINvMs6_NtCsccaKyoXA9k1_9hashbrown3rawINtB6_8RawTablejE14reserve_rehashNCINvNtCs7KwMrq602nF_8indexmap5inner8get_hashNtNtCsiP3zVQcHmFl_10rustc_span6def_id5DefIdTB1Q_INtNtB1e_3set8IndexSetNtNtCsgvX44DZTN43_5alloc6string6StringNtCsej5P1MWAjDV_10rustc_hash13FxBuildHasherEEE0ECs3VMMNsKb80B_13rustc_resolve
librustc_driver-fa31e2489381cd18.so:_RINvMs6_NtCsccaKyoXA9k1_9hashbrown3rawINtB6_8RawTablejE14reserve_rehashNCINvNtCs7KwMrq602nF_8indexmap5inner8get_hashNtNtCsiP3zVQcHmFl_10rustc_span6def_id5DefIdTINtNtCsbByapOItfY5_13rustc_type_ir6binder6BinderNtNtNtCsaqNsllmwM5m_12rustc_middle2ty7context6TyCtxtINtNtB2D_9predicate14TraitPredicateB3k_EEINtNtCsfWGFs8tRit9_11rustc_infer6traits10ObligationNtNtB3o_9predicate9PredicateEEE0ECs6qKlvMSJCFB_16rustc_hir_typeck
librustc_driver-fa31e2489381cd18.so:_RINvMs6_NtCsccaKyoXA9k1_9hashbrown3rawINtB6_8RawTablejE14reserve_rehashNCINvNtCs7KwMrq602nF_8indexmap5inner8get_hashNtNtCsiP3zVQcHmFl_10rustc_span6def_id5DefIdTNtNtCsaqNsllmwM5m_12rustc_middle2ty2TyRINtNtB2A_4list7RawListuNtNtB2A_12generic_args10GenericArgEEE0ECscUPtgnKeETP_18rustc_hir_analysis
librustc_driver-fa31e2489381cd18.so:_RINvMs6_NtCsccaKyoXA9k1_9hashbrown3rawINtB6_8RawTablejE14reserve_rehashNCINvNtCs7KwMrq602nF_8indexmap5inner8get_hashNtNtCsiP3zVQcHmFl_10rustc_span6def_id5DefIdTNtNtNtCs3KflAWMuICG_9rustc_hir5attrs15data_structures7EiiDeclINtNtB1e_3map8IndexMapB1Q_NtB2A_7EiiImplNtCsej5P1MWAjDV_10rustc_hash13FxBuildHasherEEE0ECs73ymBF2OK4c_14rustc_metadata
librustc_driver-fa31e2489381cd18.so:_RINvMs6_NtCsccaKyoXA9k1_9hashbrown3rawINtB6_8RawTablejE14reserve_rehashNCINvNtCs7KwMrq602nF_8indexmap5inner8get_hashNtNtCsiP3zVQcHmFl_10rustc_span6def_id5DefIdTNtNtNtCs3KflAWMuICG_9rustc_hir5attrs15data_structures7EiiDeclINtNtB1e_3map8IndexMapB1Q_NtB2A_7EiiImplNtCsej5P1MWAjDV_10rustc_hash13FxBuildHasherEEE0ECsaSsmK69njWG_16rustc_query_impl
librustc_driver-fa31e2489381cd18.so:_RINvMs6_NtCsccaKyoXA9k1_9hashbrown3rawINtB6_8RawTablejE14reserve_rehashNCINvNtCs7KwMrq602nF_8indexmap5inner8get_hashNtNtCsiP3zVQcHmFl_10rustc_span6def_id5DefIdjE0ECs73ymBF2OK4c_14rustc_metadata
librustc_driver-fa31e2489381cd18.so:_RINvMs6_NtCsccaKyoXA9k1_9hashbrown3rawINtB6_8RawTablejE14reserve_rehashNCINvNtCs7KwMrq602nF_8indexmap5inner8get_hashNtNtCsiP3zVQcHmFl_10rustc_span6def_id5DefIdjE0ECserPFC4ou40o_12rustc_passes
librustc_driver-fa31e2489381cd18.so:_RINvMs6_NtCsccaKyoXA9k1_9hashbrown3rawINtB6_8RawTablejE14reserve_rehashNCINvNtCs7KwMrq602nF_8indexmap5inner8get_hashNtNtCsiP3zVQcHmFl_10rustc_span6def_id5DefIduE0ECs1yK2jRAc0XL_18rustc_monomorphize
librustc_driver-fa31e2489381cd18.so:_RINvMs6_NtCsccaKyoXA9k1_9hashbrown3rawINtB6_8RawTablejE14reserve_rehashNCINvNtCs7KwMrq602nF_8indexmap5inner8get_hashNtNtCsiP3zVQcHmFl_10rustc_span6def_id5DefIduE0ECs7ZgcGxgGJUk_21rustc_trait_selection
librustc_driver-fa31e2489381cd18.so:_RINvMs6_NtCsccaKyoXA9k1_9hashbrown3rawINtB6_8RawTablejE14reserve_rehashNCINvNtCs7KwMrq602nF_8indexmap5inner8get_hashNtNtCsiP3zVQcHmFl_10rustc_span6def_id8CrateNumINtNtCsgvX44DZTN43_5alloc3vec3VecNtCsg0ydQtPiXpO_17rustc_codegen_ssa9NativeLibEE0EB39_
librustc_driver-fa31e2489381cd18.so:_RINvMs6_NtCsccaKyoXA9k1_9hashbrown3rawINtB6_8RawTablejE14reserve_rehashNCINvNtCs7KwMrq602nF_8indexmap5inner8get_hashNtNtCsiP3zVQcHmFl_10rustc_span6def_id8CrateNumuE0ECs73ymBF2OK4c_14rustc_metadata
librustc_driver-fa31e2489381cd18.so:_RINvMs6_NtCsccaKyoXA9k1_9hashbrown3rawINtB6_8RawTablejE14reserve_rehashNCINvNtCs7KwMrq602nF_8indexmap5inner8get_hashNtNtCsiP3zVQcHmFl_10rustc_span6symbol5IdentINtNtCs3KflAWMuICG_9rustc_hir3def3ResNtNtCsd482UFdOvTO_9rustc_ast7node_id6NodeIdEE0ECs3VMMNsKb80B_13rustc_resolve
librustc_driver-fa31e2489381cd18.so:_RINvMs6_NtCsccaKyoXA9k1_9hashbrown3rawINtB6_8RawTablejE14reserve_rehashNCINvNtCs7KwMrq602nF_8indexmap5inner8get_hashNtNtCsiP3zVQcHmFl_10rustc_span6symbol5IdentNtCs3VMMNsKb80B_13rustc_resolve12BindingErrorE0EB2z_
librustc_driver-fa31e2489381cd18.so:_RINvMs6_NtCsccaKyoXA9k1_9hashbrown3rawINtB6_8RawTablejE14reserve_rehashNCINvNtCs7KwMrq602nF_8indexmap5inner8get_hashNtNtCsiP3zVQcHmFl_10rustc_span6symbol5IdentNtNtB1U_13span_encoding4SpanE0ECscUPtgnKeETP_18rustc_hir_analysis
librustc_driver-fa31e2489381cd18.so:_RINvMs6_NtCsccaKyoXA9k1_9hashbrown3rawINtB6_8RawTablejE14reserve_rehashNCINvNtCs7KwMrq602nF_8indexmap5inner8get_hashNtNtCsiP3zVQcHmFl_10rustc_span6symbol5IdentNtNtCs3VMMNsKb80B_13rustc_resolve4late11BindingInfoE0EB2B_
librustc_driver-fa31e2489381cd18.so:_RINvMs6_NtCsccaKyoXA9k1_9hashbrown3rawINtB6_8RawTablejE14reserve_rehashNCINvNtCs7KwMrq602nF_8indexmap5inner8get_hashNtNtCsiP3zVQcHmFl_10rustc_span6symbol5IdentNtNtCscUPtgnKeETP_18rustc_hir_analysis7collect13FieldDeclSpanE0EB2B_
librustc_driver-fa31e2489381cd18.so:_RINvMs6_NtCsccaKyoXA9k1_9hashbrown3rawINtB6_8RawTablejE14reserve_rehashNCINvNtCs7KwMrq602nF_8indexmap5inner8get_hashNtNtCsiP3zVQcHmFl_10rustc_span6symbol5IdentNtNtCsd482UFdOvTO_9rustc_ast7node_id6NodeIdE0ECs3VMMNsKb80B_13rustc_resolve
librustc_driver-fa31e2489381cd18.so:_RINvMs6_NtCsccaKyoXA9k1_9hashbrown3rawINtB6_8RawTablejE14reserve_rehashNCINvNtCs7KwMrq602nF_8indexmap5inner8get_hashNtNtCsiP3zVQcHmFl_10rustc_span6symbol5IdentTNtNtB1U_13span_encoding4SpanB2y_EE0ECs3VMMNsKb80B_13rustc_resolve
librustc_driver-fa31e2489381cd18.so:_RINvMs6_NtCsccaKyoXA9k1_9hashbrown3rawINtB6_8RawTablejE14reserve_rehashNCINvNtCs7KwMrq602nF_8indexmap5inner8get_hashNtNtCsiP3zVQcHmFl_10rustc_span6symbol5IdentTNtNtCsd482UFdOvTO_9rustc_ast7node_id6NodeIdNtNtCs3KflAWMuICG_9rustc_hir3def11LifetimeResEE0ECs3VMMNsKb80B_13rustc_resolve
librustc_driver-fa31e2489381cd18.so:_RINvMs6_NtCsccaKyoXA9k1_9hashbrown3rawINtB6_8RawTablejE14reserve_rehashNCINvNtCs7KwMrq602nF_8indexmap5inner8get_hashNtNtCsiP3zVQcHmFl_10rustc_span6symbol5IdentuE0ECs3VMMNsKb80B_13rustc_resolve
librustc_driver-fa31e2489381cd18.so:_RINvMs6_NtCsccaKyoXA9k1_9hashbrown3rawINtB6_8RawTablejE14reserve_rehashNCINvNtCs7KwMrq602nF_8indexmap5inner8get_hashNtNtCsiP3zVQcHmFl_10rustc_span6symbol6SymbolINtNtB1e_3map8IndexMapNtNtB1U_6def_id5DefIdTB2U_INtNtB1e_3set8IndexSetNtNtCsgvX44DZTN43_5alloc6string6StringNtCsej5P1MWAjDV_10rustc_hash13FxBuildHasherEEB4i_EE0ECs3VMMNsKb80B_13rustc_resolve
librustc_driver-fa31e2489381cd18.so:_RINvMs6_NtCsccaKyoXA9k1_9hashbrown3rawINtB6_8RawTablejE14reserve_rehashNCINvNtCs7KwMrq602nF_8indexmap5inner8get_hashNtNtCsiP3zVQcHmFl_10rustc_span6symbol6SymbolINtNtCsgvX44DZTN43_5alloc3vec3VecNtNtB1U_13span_encoding4SpanEE0ECsgfasDSBi4N4_11rustc_parse
librustc_driver-fa31e2489381cd18.so:_RINvMs6_NtCsccaKyoXA9k1_9hashbrown3rawINtB6_8RawTablejE14reserve_rehashNCINvNtCs7KwMrq602nF_8indexmap5inner8get_hashNtNtCsiP3zVQcHmFl_10rustc_span6symbol6SymbolINtNtCshmntTYxeqYP_21rustc_data_structures6intern8InternedNtCs3VMMNsKb80B_13rustc_resolve8DeclDataEE0EB3w_
librustc_driver-fa31e2489381cd18.so:_RINvMs6_NtCsccaKyoXA9k1_9hashbrown3rawINtB6_8RawTablejE14reserve_rehashNCINvNtCs7KwMrq602nF_8indexmap5inner8get_hashNtNtCsiP3zVQcHmFl_10rustc_span6symbol6SymbolNtNtB1U_13span_encoding4SpanE0ECs8svpH8FC8uE_13rustc_session
librustc_driver-fa31e2489381cd18.so:_RINvMs6_NtCsccaKyoXA9k1_9hashbrown3rawINtB6_8RawTablejE14reserve_rehashNCINvNtCs7KwMrq602nF_8indexmap5inner8get_hashNtNtCsiP3zVQcHmFl_10rustc_span6symbol6SymbolNtNtB1U_6def_id5DefIdE0ECs73ymBF2OK4c_14rustc_metadata
librustc_driver-fa31e2489381cd18.so:_RINvMs6_NtCsccaKyoXA9k1_9hashbrown3rawINtB6_8RawTablejE14reserve_rehashNCINvNtCs7KwMrq602nF_8indexmap5inner8get_hashNtNtCsiP3zVQcHmFl_10rustc_span6symbol6SymbolNtNtB1U_6def_id5DefIdE0ECserPFC4ou40o_12rustc_passes
librustc_driver-fa31e2489381cd18.so:_RINvMs6_NtCsccaKyoXA9k1_9hashbrown3rawINtB6_8RawTablejE14reserve_rehashNCINvNtCs7KwMrq602nF_8indexmap5inner8get_hashNtNtCsiP3zVQcHmFl_10rustc_span6symbol6SymbolNtNtNtCscUPtgnKeETP_18rustc_hir_analysis9coherence22inherent_impls_overlap8RegionIdE0EB2E_
librustc_driver-fa31e2489381cd18.so:_RINvMs6_NtCsccaKyoXA9k1_9hashbrown3rawINtB6_8RawTablejE14reserve_rehashNCINvNtCs7KwMrq602nF_8indexmap5inner8get_hashNtNtCsiP3zVQcHmFl_10rustc_span6symbol6SymbolRNtNtCs8svpH8FC8uE_13rustc_session6cstore9DllImportE0ECsg0ydQtPiXpO_17rustc_codegen_ssa
librustc_driver-fa31e2489381cd18.so:_RINvMs6_NtCsccaKyoXA9k1_9hashbrown3rawINtB6_8RawTablejE14reserve_rehashNCINvNtCs7KwMrq602nF_8indexmap5inner8get_hashNtNtCsiP3zVQcHmFl_10rustc_span6symbol6SymboljE0ECscUPtgnKeETP_18rustc_hir_analysis
librustc_driver-fa31e2489381cd18.so:_RINvMs6_NtCsccaKyoXA9k1_9hashbrown3rawINtB6_8RawTablejE14reserve_rehashNCINvNtCs7KwMrq602nF_8indexmap5inner8get_hashNtNtCsiP3zVQcHmFl_10rustc_span6symbol6SymboljE0ECsi5AUwtDDe5b_20rustc_builtin_macros
librustc_driver-fa31e2489381cd18.so:_RINvMs6_NtCsccaKyoXA9k1_9hashbrown3rawINtB6_8RawTablejE14reserve_rehashNCINvNtCs7KwMrq602nF_8indexmap5inner8get_hashNtNtCsiP3zVQcHmFl_10rustc_span6symbol6SymboluE0ECs785ZPy54HPh_12rustc_expand
librustc_driver-fa31e2489381cd18.so:_RINvMs6_NtCsccaKyoXA9k1_9hashbrown3rawINtB6_8RawTablejE14reserve_rehashNCINvNtCs7KwMrq602nF_8indexmap5inner8get_hashNtNtCsiP3zVQcHmFl_10rustc_span6symbol6SymboluE0ECs7ZgcGxgGJUk_21rustc_trait_selection
librustc_driver-fa31e2489381cd18.so:_RINvMs6_NtCsccaKyoXA9k1_9hashbrown3rawINtB6_8RawTablejE14reserve_rehashNCINvNtCs7KwMrq602nF_8indexmap5inner8get_hashNtNtCsiP3zVQcHmFl_10rustc_span7hygiene6ExpnIdNtNtNtCs4DnJvQYATGa_19rustc_mir_transform8coverage9expansion8ExpnNodeE0EB2F_
librustc_driver-fa31e2489381cd18.so:_RINvMs6_NtCsccaKyoXA9k1_9hashbrown3rawINtB6_8RawTablejE14reserve_rehashNCINvNtCs7KwMrq602nF_8indexmap5inner8get_hashNtNtCsiP3zVQcHmFl_10rustc_span7hygiene6ExpnIduE0ECs4DnJvQYATGa_19rustc_mir_transform
librustc_driver-fa31e2489381cd18.so:_RINvMs6_NtCsccaKyoXA9k1_9hashbrown3rawINtB6_8RawTablejE14reserve_rehashNCINvNtCs7KwMrq602nF_8indexmap5inner8get_hashNtNtCskurZfFSl0zB_3std4path7PathBufuE0ECs73ymBF2OK4c_14rustc_metadata
librustc_driver-fa31e2489381cd18.so:_RINvMs6_NtCsccaKyoXA9k1_9hashbrown3rawINtB6_8RawTablejE14reserve_rehashNCINvNtCs7KwMrq602nF_8indexmap5inner8get_hashNtNtCsl5MakceMktk_14rustc_borrowck11constraints18ConstraintSccIndexINtNtNtCs6e3rAaajRpB_4core3ops5range5RangejEE0EB1U_
librustc_driver-fa31e2489381cd18.so:_RINvMs6_NtCsccaKyoXA9k1_9hashbrown3rawINtB6_8RawTablejE14reserve_rehashNCINvNtCs7KwMrq602nF_8indexmap5inner8get_hashNtNtCsl5MakceMktk_14rustc_borrowck8dataflow11BorrowIndexuE0EB1U_
librustc_driver-fa31e2489381cd18.so:_RINvMs6_NtCsccaKyoXA9k1_9hashbrown3rawINtB6_8RawTablejE14reserve_rehashNCINvNtCs7KwMrq602nF_8indexmap5inner8get_hashNtNtNtCs3KflAWMuICG_9rustc_hir5attrs15data_structures9CrateTypeINtNtCs26SsCXMViOp_11rustc_index3vec8IndexVecNtNtCsiP3zVQcHmFl_10rustc_span6def_id8CrateNumNtNtNtCsaqNsllmwM5m_12rustc_middle6middle17dependency_format7LinkageEE0ECs73ymBF2OK4c_14rustc_metadata
librustc_driver-fa31e2489381cd18.so:_RINvMs6_NtCsccaKyoXA9k1_9hashbrown3rawINtB6_8RawTablejE14reserve_rehashNCINvNtCs7KwMrq602nF_8indexmap5inner8get_hashNtNtNtCs3KflAWMuICG_9rustc_hir5attrs15data_structures9CrateTypeINtNtCsgvX44DZTN43_5alloc3vec3VecTNtNtB2W_6string6StringNtNtNtCsaqNsllmwM5m_12rustc_middle6middle16exported_symbols16SymbolExportKindEEE0ECsg0ydQtPiXpO_17rustc_codegen_ssa
librustc_driver-fa31e2489381cd18.so:_RINvMs6_NtCsccaKyoXA9k1_9hashbrown3rawINtB6_8RawTablejE14reserve_rehashNCINvNtCs7KwMrq602nF_8indexmap5inner8get_hashNtNtNtCs7JFcZT8r71y_15rustc_transmute6layout3dfa5StateINtB1S_11TransitionsNtNtNtCsaqNsllmwM5m_12rustc_middle2ty6region6RegionNtB36_2TyEE0EB1W_
librustc_driver-fa31e2489381cd18.so:_RINvMs6_NtCsccaKyoXA9k1_9hashbrown3rawINtB6_8RawTablejE14reserve_rehashNCINvNtCs7KwMrq602nF_8indexmap5inner8get_hashNtNtNtCs7ZgcGxgGJUk_21rustc_trait_selection15error_reporting5infer10TyCategoryINtNtB1e_3set8IndexSetNtNtCsiP3zVQcHmFl_10rustc_span13span_encoding4SpanNtCsej5P1MWAjDV_10rustc_hash13FxBuildHasherEE0EB1W_
librustc_driver-fa31e2489381cd18.so:_RINvMs6_NtCsccaKyoXA9k1_9hashbrown3rawINtB6_8RawTablejE14reserve_rehashNCINvNtCs7KwMrq602nF_8indexmap5inner8get_hashNtNtNtCs7ZgcGxgGJUk_21rustc_trait_selection6traits10auto_trait12RegionTargetNtB1S_10RegionDepsE0EB1W_
librustc_driver-fa31e2489381cd18.so:_RINvMs6_NtCsccaKyoXA9k1_9hashbrown3rawINtB6_8RawTablejE14reserve_rehashNCINvNtCs7KwMrq602nF_8indexmap5inner8get_hashNtNtNtCs7ZgcGxgGJUk_21rustc_trait_selection6traits10auto_trait12RegionTargetuE0EB1W_
librustc_driver-fa31e2489381cd18.so:_RINvMs6_NtCsccaKyoXA9k1_9hashbrown3rawINtB6_8RawTablejE14reserve_rehashNCINvNtCs7KwMrq602nF_8indexmap5inner8get_hashNtNtNtCs7ZgcGxgGJUk_21rustc_trait_selection6traits6select24IntercrateAmbiguityCauseuE0EB1W_
librustc_driver-fa31e2489381cd18.so:_RINvMs6_NtCsccaKyoXA9k1_9hashbrown3rawINtB6_8RawTablejE14reserve_rehashNCINvNtCs7KwMrq602nF_8indexmap5inner8get_hashNtNtNtCsPGgg1SovgA_15rustc_mir_build7builder7matches10TestBranchINtNtCsgvX44DZTN43_5alloc3vec3VecQNtB1S_9CandidateEE0EB1W_
librustc_driver-fa31e2489381cd18.so:_RINvMs6_NtCsccaKyoXA9k1_9hashbrown3rawINtB6_8RawTablejE14reserve_rehashNCINvNtCs7KwMrq602nF_8indexmap5inner8get_hashNtNtNtCsPGgg1SovgA_15rustc_mir_build7builder7matches10TestBranchNtNtCsaqNsllmwM5m_12rustc_middle3mir10BasicBlockE0EB1W_
librustc_driver-fa31e2489381cd18.so:_RINvMs6_NtCsccaKyoXA9k1_9hashbrown3rawINtB6_8RawTablejE14reserve_rehashNCINvNtCs7KwMrq602nF_8indexmap5inner8get_hashNtNtNtCsaqNsllmwM5m_12rustc_middle2ty12generic_args10GenericArgINtNtCsgvX44DZTN43_5alloc3vec3VecjEE0ECs7ZgcGxgGJUk_21rustc_trait_selection
librustc_driver-fa31e2489381cd18.so:_RINvMs6_NtCsccaKyoXA9k1_9hashbrown3rawINtB6_8RawTablejE14reserve_rehashNCINvNtCs7KwMrq602nF_8indexmap5inner8get_hashNtNtNtCsaqNsllmwM5m_12rustc_middle2ty12generic_args10GenericArguE0ECscUPtgnKeETP_18rustc_hir_analysis
librustc_driver-fa31e2489381cd18.so:_RINvMs6_NtCsccaKyoXA9k1_9hashbrown3rawINtB6_8RawTablejE14reserve_rehashNCINvNtCs7KwMrq602nF_8indexmap5inner8get_hashNtNtNtCsaqNsllmwM5m_12rustc_middle2ty6consts5ConstNtNtCs84S5s1Yb6le_12rustc_public2ty9TyConstIdE0EB2I_
librustc_driver-fa31e2489381cd18.so:_RINvMs6_NtCsccaKyoXA9k1_9hashbrown3rawINtB6_8RawTablejE14reserve_rehashNCINvNtCs7KwMrq602nF_8indexmap5inner8get_hashNtNtNtCsaqNsllmwM5m_12rustc_middle2ty6region19LateParamRegionKindB1Q_E0ECscUPtgnKeETP_18rustc_hir_analysis
librustc_driver-fa31e2489381cd18.so:_RINvMs6_NtCsccaKyoXA9k1_9hashbrown3rawINtB6_8RawTablejE14reserve_rehashNCINvNtCs7KwMrq602nF_8indexmap5inner8get_hashNtNtNtCsaqNsllmwM5m_12rustc_middle2ty6region6RegionB1Q_E0ECscUPtgnKeETP_18rustc_hir_analysis
librustc_driver-fa31e2489381cd18.so:_RINvMs6_NtCsccaKyoXA9k1_9hashbrown3rawINtB6_8RawTablejE14reserve_rehashNCINvNtCs7KwMrq602nF_8indexmap5inner8get_hashNtNtNtCsaqNsllmwM5m_12rustc_middle2ty6region6RegionINtNtCsgvX44DZTN43_5alloc3vec3VecB1Q_EE0ECscUPtgnKeETP_18rustc_hir_analysis
librustc_driver-fa31e2489381cd18.so:_RINvMs6_NtCsccaKyoXA9k1_9hashbrown3rawINtB6_8RawTablejE14reserve_rehashNCINvNtCs7KwMrq602nF_8indexmap5inner8get_hashNtNtNtCsaqNsllmwM5m_12rustc_middle2ty6region6RegionNtNtCsbByapOItfY5_13rustc_type_ir11region_kind9RegionVidE0ECsl5MakceMktk_14rustc_borrowck
librustc_driver-fa31e2489381cd18.so:_RINvMs6_NtCsccaKyoXA9k1_9hashbrown3rawINtB6_8RawTablejE14reserve_rehashNCINvNtCs7KwMrq602nF_8indexmap5inner8get_hashNtNtNtCsaqNsllmwM5m_12rustc_middle2ty6region6RegionNtNtNtNtCsfWGFs8tRit9_11rustc_infer5infer18region_constraints10leak_check13LeakCheckNodeE0EB2N_
librustc_driver-fa31e2489381cd18.so:_RINvMs6_NtCsccaKyoXA9k1_9hashbrown3rawINtB6_8RawTablejE14reserve_rehashNCINvNtCs7KwMrq602nF_8indexmap5inner8get_hashNtNtNtCsaqNsllmwM5m_12rustc_middle2ty6region6RegionuE0ECsfWGFs8tRit9_11rustc_infer
librustc_driver-fa31e2489381cd18.so:_RINvMs6_NtCsccaKyoXA9k1_9hashbrown3rawINtB6_8RawTablejE14reserve_rehashNCINvNtCs7KwMrq602nF_8indexmap5inner8get_hashNtNtNtCsaqNsllmwM5m_12rustc_middle2ty8instance8InstanceNtNtNtCs84S5s1Yb6le_12rustc_public3mir4mono11InstanceDefE0EB2P_
librustc_driver-fa31e2489381cd18.so:_RINvMs6_NtCsccaKyoXA9k1_9hashbrown3rawINtB6_8RawTablejE14reserve_rehashNCINvNtCs7KwMrq602nF_8indexmap5inner8get_hashNtNtNtCsaqNsllmwM5m_12rustc_middle2ty8instance8InstanceRNtNtNtCsirwAroatyKs_18rustc_codegen_llvm4llvm3ffi5ValueE0EB2Q_
librustc_driver-fa31e2489381cd18.so:_RINvMs6_NtCsccaKyoXA9k1_9hashbrown3rawINtB6_8RawTablejE14reserve_rehashNCINvNtCs7KwMrq602nF_8indexmap5inner8get_hashNtNtNtCsaqNsllmwM5m_12rustc_middle2ty9predicate6ClauseuE0ECscUPtgnKeETP_18rustc_hir_analysis
librustc_driver-fa31e2489381cd18.so:_RINvMs6_NtCsccaKyoXA9k1_9hashbrown3rawINtB6_8RawTablejE14reserve_rehashNCINvNtCs7KwMrq602nF_8indexmap5inner8get_hashNtNtNtCsaqNsllmwM5m_12rustc_middle2ty9predicate9PredicateuE0ECs7ZgcGxgGJUk_21rustc_trait_selection
librustc_driver-fa31e2489381cd18.so:_RINvMs6_NtCsccaKyoXA9k1_9hashbrown3rawINtB6_8RawTablejE14reserve_rehashNCINvNtCs7KwMrq602nF_8indexmap5inner8get_hashNtNtNtCsaqNsllmwM5m_12rustc_middle3mir6consts5ConstNtNtCs84S5s1Yb6le_12rustc_public2ty10MirConstIdE0EB2J_
librustc_driver-fa31e2489381cd18.so:_RINvMs6_NtCsccaKyoXA9k1_9hashbrown3rawINtB6_8RawTablejE14reserve_rehashNCINvNtCs7KwMrq602nF_8indexmap5inner8get_hashNtNtNtCsaqNsllmwM5m_12rustc_middle3mir6syntax5PlaceNtB1S_14FakeBorrowKindE0ECsPGgg1SovgA_15rustc_mir_build
librustc_driver-fa31e2489381cd18.so:_RINvMs6_NtCsccaKyoXA9k1_9hashbrown3rawINtB6_8RawTablejE14reserve_rehashNCINvNtCs7KwMrq602nF_8indexmap5inner8get_hashNtNtNtCsaqNsllmwM5m_12rustc_middle3mir6syntax5PlaceuE0ECsl5MakceMktk_14rustc_borrowck
librustc_driver-fa31e2489381cd18.so:_RINvMs6_NtCsccaKyoXA9k1_9hashbrown3rawINtB6_8RawTablejE14reserve_rehashNCINvNtCs7KwMrq602nF_8indexmap5inner8get_hashNtNtNtCsaqNsllmwM5m_12rustc_middle3mir8coverage18BasicCoverageBlockNtB1S_9CounterIdE0ECs4DnJvQYATGa_19rustc_mir_transform
librustc_driver-fa31e2489381cd18.so:_RINvMs6_NtCsccaKyoXA9k1_9hashbrown3rawINtB6_8RawTablejE14reserve_rehashNCINvNtCs7KwMrq602nF_8indexmap5inner8get_hashNtNtNtCsaqNsllmwM5m_12rustc_middle3mir9interpret7AllocIdINtNtNtCsgvX44DZTN43_5alloc11collections9vec_deque8VecDequeNtNtNtCs7RlYbh05zWS_16rustc_const_eval9interpret5place8MPlaceTyEE0EB3N_
librustc_driver-fa31e2489381cd18.so:_RINvMs6_NtCsccaKyoXA9k1_9hashbrown3rawINtB6_8RawTablejE14reserve_rehashNCINvNtCs7KwMrq602nF_8indexmap5inner8get_hashNtNtNtCsaqNsllmwM5m_12rustc_middle3mir9interpret7AllocIdNtNtNtCs84S5s1Yb6le_12rustc_public3mir5alloc7AllocIdE0EB2Q_
librustc_driver-fa31e2489381cd18.so:_RINvMs6_NtCsccaKyoXA9k1_9hashbrown3rawINtB6_8RawTablejE14reserve_rehashNCINvNtCs7KwMrq602nF_8indexmap5inner8get_hashNtNtNtCsaqNsllmwM5m_12rustc_middle3mir9interpret7AllocIdTINtNtNtCs7RlYbh05zWS_16rustc_const_eval9interpret6memory10MemoryKindNtNtNtB2S_10const_eval7machine10MemoryKindENtNtB1S_10allocation10AllocationEE0EB2S_
librustc_driver-fa31e2489381cd18.so:_RINvMs6_NtCsccaKyoXA9k1_9hashbrown3rawINtB6_8RawTablejE14reserve_rehashNCINvNtCs7KwMrq602nF_8indexmap5inner8get_hashNtNtNtCsaqNsllmwM5m_12rustc_middle3mir9interpret7AllocIdTNtCsdeppuzfODI3_9rustc_abi4SizeNtB2N_5AlignEE0ECs7RlYbh05zWS_16rustc_const_eval
librustc_driver-fa31e2489381cd18.so:_RINvMs6_NtCsccaKyoXA9k1_9hashbrown3rawINtB6_8RawTablejE14reserve_rehashNCINvNtCs7KwMrq602nF_8indexmap5inner8get_hashNtNtNtCsaqNsllmwM5m_12rustc_middle3mir9interpret7AllocIduE0EB1W_
librustc_driver-fa31e2489381cd18.so:_RINvMs6_NtCsccaKyoXA9k1_9hashbrown3rawINtB6_8RawTablejE14reserve_rehashNCINvNtCs7KwMrq602nF_8indexmap5inner8get_hashNtNtNtCsaqNsllmwM5m_12rustc_middle3mir9interpret7AllocIdzE0ECs7RlYbh05zWS_16rustc_const_eval
librustc_driver-fa31e2489381cd18.so:_RINvMs6_NtCsccaKyoXA9k1_9hashbrown3rawINtB6_8RawTablejE14reserve_rehashNCINvNtCs7KwMrq602nF_8indexmap5inner8get_hashNtNtNtCsaqNsllmwM5m_12rustc_middle6middle18resolve_bound_vars11ResolvedArgNtNtCsiP3zVQcHmFl_10rustc_span6def_id10LocalDefIdE0ECscUPtgnKeETP_18rustc_hir_analysis
librustc_driver-fa31e2489381cd18.so:_RINvMs6_NtCsccaKyoXA9k1_9hashbrown3rawINtB6_8RawTablejE14reserve_rehashNCINvNtCs7KwMrq602nF_8indexmap5inner8get_hashNtNtNtCsaqNsllmwM5m_12rustc_middle6middle6region5ScopeB1Q_E0EB1W_
librustc_driver-fa31e2489381cd18.so:_RINvMs6_NtCsccaKyoXA9k1_9hashbrown3rawINtB6_8RawTablejE14reserve_rehashNCINvNtCs7KwMrq602nF_8indexmap5inner8get_hashNtNtNtCsaqNsllmwM5m_12rustc_middle9dep_graph5graph12DepNodeIndexNtB1S_15QuerySideEffectE0ECsaSsmK69njWG_16rustc_query_impl
librustc_driver-fa31e2489381cd18.so:_RINvMs6_NtCsccaKyoXA9k1_9hashbrown3rawINtB6_8RawTablejE14reserve_rehashNCINvNtCs7KwMrq602nF_8indexmap5inner8get_hashNtNtNtCsaqNsllmwM5m_12rustc_middle9dep_graph8dep_node13WorkProductIdNtNtB1U_5graph11WorkProductE0ECsg0ydQtPiXpO_17rustc_codegen_ssa
librustc_driver-fa31e2489381cd18.so:_RINvMs6_NtCsccaKyoXA9k1_9hashbrown3rawINtB6_8RawTablejE14reserve_rehashNCINvNtCs7KwMrq602nF_8indexmap5inner8get_hashNtNtNtCsaqNsllmwM5m_12rustc_middle9dep_graph8dep_node7DepKinduE0ECslloyL1UMMzU_17rustc_incremental
librustc_driver-fa31e2489381cd18.so:_RINvMs6_NtCsccaKyoXA9k1_9hashbrown3rawINtB6_8RawTablejE14reserve_rehashNCINvNtCs7KwMrq602nF_8indexmap5inner8get_hashNtNtNtCsdeppuzfODI3_9rustc_abi6layout2ty6LayoutNtNtCs84S5s1Yb6le_12rustc_public3abi6LayoutE0EB2F_
librustc_driver-fa31e2489381cd18.so:_RINvMs6_NtCsccaKyoXA9k1_9hashbrown3rawINtB6_8RawTablejE14reserve_rehashNCINvNtCs7KwMrq602nF_8indexmap5inner8get_hashNtNtNtCsjcx2qvla3t1_5gimli5write3cfi22CommonInformationEntryuE0EB1W_
librustc_driver-fa31e2489381cd18.so:_RINvMs6_NtCsccaKyoXA9k1_9hashbrown3rawINtB6_8RawTablejE14reserve_rehashNCINvNtCs7KwMrq602nF_8indexmap5inner8get_hashNtNtNtCsjcx2qvla3t1_5gimli5write3loc12LocationListuE0EB1W_
librustc_driver-fa31e2489381cd18.so:_RINvMs6_NtCsccaKyoXA9k1_9hashbrown3rawINtB6_8RawTablejE14reserve_rehashNCINvNtCs7KwMrq602nF_8indexmap5inner8get_hashNtNtNtCsjcx2qvla3t1_5gimli5write4line10LineStringuE0EB1W_
librustc_driver-fa31e2489381cd18.so:_RINvMs6_NtCsccaKyoXA9k1_9hashbrown3rawINtB6_8RawTablejE14reserve_rehashNCINvNtCs7KwMrq602nF_8indexmap5inner8get_hashNtNtNtCsjcx2qvla3t1_5gimli5write5range9RangeListuE0EB1W_
librustc_driver-fa31e2489381cd18.so:_RINvMs6_NtCsccaKyoXA9k1_9hashbrown3rawINtB6_8RawTablejE14reserve_rehashNCINvNtCs7KwMrq602nF_8indexmap5inner8get_hashNtNtNtCsjcx2qvla3t1_5gimli5write6abbrev12AbbreviationuE0EB1W_
librustc_driver-fa31e2489381cd18.so:_RINvMs6_NtCsccaKyoXA9k1_9hashbrown3rawINtB6_8RawTablejE14reserve_rehashNCINvNtCs7KwMrq602nF_8indexmap5inner8get_hashNtNvMNtNtCscUPtgnKeETP_18rustc_hir_analysis15hir_ty_lowering6errorsDNtB1X_12HirTyLowererEL_30report_prohibited_generic_args19ProhibitGenericsArguE0EB1Z_
librustc_driver-fa31e2489381cd18.so:_RINvMs6_NtCsccaKyoXA9k1_9hashbrown3rawINtB6_8RawTablejE14reserve_rehashNCINvNtCs7KwMrq602nF_8indexmap5inner8get_hashRNtNtCsbByapOItfY5_13rustc_type_ir11region_kind9RegionViduE0ECsl5MakceMktk_14rustc_borrowck
librustc_driver-fa31e2489381cd18.so:_RINvMs6_NtCsccaKyoXA9k1_9hashbrown3rawINtB6_8RawTablejE14reserve_rehashNCINvNtCs7KwMrq602nF_8indexmap5inner8get_hashRNtNtNtCsaqNsllmwM5m_12rustc_middle2ty6region6RegionuE0ECsfWGFs8tRit9_11rustc_infer
librustc_driver-fa31e2489381cd18.so:_RINvMs6_NtCsccaKyoXA9k1_9hashbrown3rawINtB6_8RawTablejE14reserve_rehashNCINvNtCs7KwMrq602nF_8indexmap5inner8get_hashRNtNtNtCsaqNsllmwM5m_12rustc_middle9dep_graph8dep_node7DepNodeuE0ECslloyL1UMMzU_17rustc_incremental
librustc_driver-fa31e2489381cd18.so:_RINvMs6_NtCsccaKyoXA9k1_9hashbrown3rawINtB6_8RawTablejE14reserve_rehashNCINvNtCs7KwMrq602nF_8indexmap5inner8get_hashRShuE0ECsdRd0hdE2iPK_6object
librustc_driver-fa31e2489381cd18.so:_RINvMs6_NtCsccaKyoXA9k1_9hashbrown3rawINtB6_8RawTablejE14reserve_rehashNCINvNtCs7KwMrq602nF_8indexmap5inner8get_hashRShuE0ECsiP3zVQcHmFl_10rustc_span
librustc_driver-fa31e2489381cd18.so:_RINvMs6_NtCsccaKyoXA9k1_9hashbrown3rawINtB6_8RawTablejE14reserve_rehashNCINvNtCs7KwMrq602nF_8indexmap5inner8get_hashRShuE0ECskHBMKP8yMGa_6object
librustc_driver-fa31e2489381cd18.so:_RINvMs6_NtCsccaKyoXA9k1_9hashbrown3rawINtB6_8RawTablejE14reserve_rehashNCINvNtCs7KwMrq602nF_8indexmap5inner8get_hashReINtNtCsgvX44DZTN43_5alloc3vec3VecTB1Q_INtNtCs6e3rAaajRpB_4core6option6OptionNtNtCsiP3zVQcHmFl_10rustc_span6def_id5DefIdEB1Q_EEE0ECsaqNsllmwM5m_12rustc_middle
librustc_driver-fa31e2489381cd18.so:_RINvMs6_NtCsccaKyoXA9k1_9hashbrown3rawINtB6_8RawTablejE14reserve_rehashNCINvNtCs7KwMrq602nF_8indexmap5inner8get_hashReNtNtCs1ufPwUoOuD2_10rustc_lint7context9LintGroupE0EB1W_
librustc_driver-fa31e2489381cd18.so:_RINvMs6_NtCsccaKyoXA9k1_9hashbrown3rawINtB6_8RawTablejE14reserve_rehashNCINvNtCs7KwMrq602nF_8indexmap5inner8get_hashReuE0ECs4DnJvQYATGa_19rustc_mir_transform
librustc_driver-fa31e2489381cd18.so:_RINvMs6_NtCsccaKyoXA9k1_9hashbrown3rawINtB6_8RawTablejE14reserve_rehashNCINvNtCs7KwMrq602nF_8indexmap5inner8get_hashTINtNtCs6e3rAaajRpB_4core6option6OptionNtNtNtCs7JFcZT8r71y_15rustc_transmute6layout3dfa5StateEB1R_EB2t_E0EB2z_
librustc_driver-fa31e2489381cd18.so:_RINvMs6_NtCsccaKyoXA9k1_9hashbrown3rawINtB6_8RawTablejE14reserve_rehashNCINvNtCs7KwMrq602nF_8indexmap5inner8get_hashTINtNtCs6e3rAaajRpB_4core6option6OptionNtNtNtCs7JFcZT8r71y_15rustc_transmute6layout3dfa5StateEB1R_EuE0EB2z_
librustc_driver-fa31e2489381cd18.so:_RINvMs6_NtCsccaKyoXA9k1_9hashbrown3rawINtB6_8RawTablejE14reserve_rehashNCINvNtCs7KwMrq602nF_8indexmap5inner8get_hashTINtNtCsbByapOItfY5_13rustc_type_ir6binder6BinderNtNtNtCsaqNsllmwM5m_12rustc_middle2ty7context6TyCtxtTRINtNtB2H_4list7RawListuNtB2H_2TyEB3S_EEbENtNtNtB2H_5print6pretty13OpaqueFnEntryE0EB2J_
librustc_driver-fa31e2489381cd18.so:_RINvMs6_NtCsccaKyoXA9k1_9hashbrown3rawINtB6_8RawTablejE14reserve_rehashNCINvNtCs7KwMrq602nF_8indexmap5inner8get_hashTNtCs6ahoKXGLX5z_12rustc_hir_id5HirIdNtNvNtCs1ufPwUoOuD2_10rustc_lint15lifetime_syntax39build_mismatch_suggestions_for_lifetime18PathSuggestionKindETNtNtCsiP3zVQcHmFl_10rustc_span13span_encoding4SpanjEE0EB2x_
librustc_driver-fa31e2489381cd18.so:_RINvMs6_NtCsccaKyoXA9k1_9hashbrown3rawINtB6_8RawTablejE14reserve_rehashNCINvNtCs7KwMrq602nF_8indexmap5inner8get_hashTNtNtCs3KflAWMuICG_9rustc_hir3def9NamespaceNtNtCsiP3zVQcHmFl_10rustc_span6symbol6SymbolEINtNtCs6e3rAaajRpB_4core6option6OptionNtNtB2B_6def_id5DefIdEE0ECsaqNsllmwM5m_12rustc_middle
librustc_driver-fa31e2489381cd18.so:_RINvMs6_NtCsccaKyoXA9k1_9hashbrown3rawINtB6_8RawTablejE14reserve_rehashNCINvNtCs7KwMrq602nF_8indexmap5inner8get_hashTNtNtCs8Oewc4Z7MhZ_18rustc_mir_dataflow14value_analysis10PlaceIndexB1R_EuE0EB1V_
librustc_driver-fa31e2489381cd18.so:_RINvMs6_NtCsccaKyoXA9k1_9hashbrown3rawINtB6_8RawTablejE14reserve_rehashNCINvNtCs7KwMrq602nF_8indexmap5inner8get_hashTNtNtCsaqNsllmwM5m_12rustc_middle2ty2TyNtNtCsiP3zVQcHmFl_10rustc_span13span_encoding4SpanEuE0ECsl5MakceMktk_14rustc_borrowck
librustc_driver-fa31e2489381cd18.so:_RINvMs6_NtCsccaKyoXA9k1_9hashbrown3rawINtB6_8RawTablejE14reserve_rehashNCINvNtCs7KwMrq602nF_8indexmap5inner8get_hashTNtNtCsaqNsllmwM5m_12rustc_middle2ty2TyjEuE0ECscUPtgnKeETP_18rustc_hir_analysis
librustc_driver-fa31e2489381cd18.so:_RINvMs6_NtCsccaKyoXA9k1_9hashbrown3rawINtB6_8RawTablejE14reserve_rehashNCINvNtCs7KwMrq602nF_8indexmap5inner8get_hashTNtNtCsiP3zVQcHmFl_10rustc_span13span_encoding4SpanNtNtCsgvX44DZTN43_5alloc6string6StringEuE0ECsh8xpvZH2MPK_12rustc_errors
librustc_driver-fa31e2489381cd18.so:_RINvMs6_NtCsccaKyoXA9k1_9hashbrown3rawINtB6_8RawTablejE14reserve_rehashNCINvNtCs7KwMrq602nF_8indexmap5inner8get_hashTNtNtCsiP3zVQcHmFl_10rustc_span13span_encoding4SpanNtNtNtCsaqNsllmwM5m_12rustc_middle2ty9predicate9PredicateNtNtB2L_6traits15ObligationCauseEuE0ECs6qKlvMSJCFB_16rustc_hir_typeck
librustc_driver-fa31e2489381cd18.so:_RINvMs6_NtCsccaKyoXA9k1_9hashbrown3rawINtB6_8RawTablejE14reserve_rehashNCINvNtCs7KwMrq602nF_8indexmap5inner8get_hashTNtNtCsiP3zVQcHmFl_10rustc_span13span_encoding4SpanReEINtNtCshmntTYxeqYP_21rustc_data_structures5unord8UnordSetNtNtCsgvX44DZTN43_5alloc6string6StringEE0ECs6qKlvMSJCFB_16rustc_hir_typeck
librustc_driver-fa31e2489381cd18.so:_RINvMs6_NtCsccaKyoXA9k1_9hashbrown3rawINtB6_8RawTablejE14reserve_rehashNCINvNtCs7KwMrq602nF_8indexmap5inner8get_hashTNtNtCsiP3zVQcHmFl_10rustc_span6def_id5DefIdINtNtCsbByapOItfY5_13rustc_type_ir6binder6BinderNtNtNtCsaqNsllmwM5m_12rustc_middle2ty7context6TyCtxtINtNtB2D_9predicate8TraitRefB3k_EEETIB2z_B3k_INtB4d_19ProjectionPredicateB3k_EENtNtB1V_13span_encoding4SpanEE0ECscUPtgnKeETP_18rustc_hir_analysis
librustc_driver-fa31e2489381cd18.so:_RINvMs6_NtCsccaKyoXA9k1_9hashbrown3rawINtB6_8RawTablejE14reserve_rehashNCINvNtCs7KwMrq602nF_8indexmap5inner8get_hashTNtNtCsiP3zVQcHmFl_10rustc_span6def_id5DefIdINtNtCsbByapOItfY5_13rustc_type_ir6binder6BinderNtNtNtCsaqNsllmwM5m_12rustc_middle2ty7context6TyCtxtINtNtB2D_9predicate8TraitRefB3k_EEEuE0ECscUPtgnKeETP_18rustc_hir_analysis
librustc_driver-fa31e2489381cd18.so:_RINvMs6_NtCsccaKyoXA9k1_9hashbrown3rawINtB6_8RawTablejE14reserve_rehashNCINvNtCs7KwMrq602nF_8indexmap5inner8get_hashTNtNtCsiP3zVQcHmFl_10rustc_span6def_id5DefIdRINtNtNtCsaqNsllmwM5m_12rustc_middle2ty4list7RawListuNtNtB2E_12generic_args10GenericArgEEuE0ECs4DnJvQYATGa_19rustc_mir_transform
librustc_driver-fa31e2489381cd18.so:_RINvMs6_NtCsccaKyoXA9k1_9hashbrown3rawINtB6_8RawTablejE14reserve_rehashNCINvNtCs7KwMrq602nF_8indexmap5inner8get_hashTNtNtCsiP3zVQcHmFl_10rustc_span6symbol6SymbolINtNtCs6e3rAaajRpB_4core6option6OptionB1R_EEuE0ECs8svpH8FC8uE_13rustc_session
librustc_driver-fa31e2489381cd18.so:_RINvMs6_NtCsccaKyoXA9k1_9hashbrown3rawINtB6_8RawTablejE14reserve_rehashNCINvNtCs7KwMrq602nF_8indexmap5inner8get_hashTNtNtCsiP3zVQcHmFl_10rustc_span6symbol6SymbolNtNtNtCsaqNsllmwM5m_12rustc_middle6middle16exported_symbols16SymbolExportKindEuE0ECsg0ydQtPiXpO_17rustc_codegen_ssa
librustc_driver-fa31e2489381cd18.so:_RINvMs6_NtCsccaKyoXA9k1_9hashbrown3rawINtB6_8RawTablejE14reserve_rehashNCINvNtCs7KwMrq602nF_8indexmap5inner8get_hashTNtNtNtCs7JFcZT8r71y_15rustc_transmute6layout3dfa5StateB1R_EINtB1X_6AnswerNtNtNtCsaqNsllmwM5m_12rustc_middle2ty6region6RegionNtB36_2TyEE0EB1X_
librustc_driver-fa31e2489381cd18.so:_RINvMs6_NtCsccaKyoXA9k1_9hashbrown3rawINtB6_8RawTablejE14reserve_rehashNCINvNtCs7KwMrq602nF_8indexmap5inner8get_hashTNtNtNtCsaqNsllmwM5m_12rustc_middle2ty6region6RegionjEuE0ECscUPtgnKeETP_18rustc_hir_analysis
librustc_driver-fa31e2489381cd18.so:_RINvMs6_NtCsccaKyoXA9k1_9hashbrown3rawINtB6_8RawTablejE14reserve_rehashNCINvNtCs7KwMrq602nF_8indexmap5inner8get_hashTNtNtNtCsaqNsllmwM5m_12rustc_middle2ty9predicate6ClauseNtNtCsiP3zVQcHmFl_10rustc_span13span_encoding4SpanEuE0ECscUPtgnKeETP_18rustc_hir_analysis
librustc_driver-fa31e2489381cd18.so:_RINvMs6_NtCsccaKyoXA9k1_9hashbrown3rawINtB6_8RawTablejE14reserve_rehashNCINvNtCs7KwMrq602nF_8indexmap5inner8get_hashTNtNtNtCsaqNsllmwM5m_12rustc_middle2ty9predicate9PredicateNtNtB1X_6traits15ObligationCauseEuE0ECs6qKlvMSJCFB_16rustc_hir_typeck
librustc_driver-fa31e2489381cd18.so:_RINvMs6_NtCsccaKyoXA9k1_9hashbrown3rawINtB6_8RawTablejE14reserve_rehashNCINvNtCs7KwMrq602nF_8indexmap5inner8get_hashTNtNtNtCsaqNsllmwM5m_12rustc_middle2ty9predicate9PredicateNtNtB1X_6traits15ObligationCauseEuE0ECsaSsmK69njWG_16rustc_query_impl
librustc_driver-fa31e2489381cd18.so:_RINvMs6_NtCsccaKyoXA9k1_9hashbrown3rawINtB6_8RawTablejE14reserve_rehashNCINvNtCs7KwMrq602nF_8indexmap5inner8get_hashTNtNtNtCsaqNsllmwM5m_12rustc_middle3mir6syntax5PlaceNtNtCsiP3zVQcHmFl_10rustc_span13span_encoding4SpanEuE0ECsl5MakceMktk_14rustc_borrowck
librustc_driver-fa31e2489381cd18.so:_RINvMs6_NtCsccaKyoXA9k1_9hashbrown3rawINtB6_8RawTablejE14reserve_rehashNCINvNtCs7KwMrq602nF_8indexmap5inner8get_hashTNtNtNtCsaqNsllmwM5m_12rustc_middle9dep_graph8dep_node7DepKindB1R_EuE0ECslloyL1UMMzU_17rustc_incremental
librustc_driver-fa31e2489381cd18.so:_RINvMs6_NtCsccaKyoXA9k1_9hashbrown3rawINtB6_8RawTablejE14reserve_rehashNCINvNtCs7KwMrq602nF_8indexmap5inner8get_hashTNtNtNtCsfWGFs8tRit9_11rustc_infer5infer18region_constraints11GenericKindNtNtCsbByapOItfY5_13rustc_type_ir11region_kind9RegionVidNtNtCsiP3zVQcHmFl_10rustc_span13span_encoding4SpanEuE0ECsl5MakceMktk_14rustc_borrowck
librustc_driver-fa31e2489381cd18.so:_RINvMs6_NtCsccaKyoXA9k1_9hashbrown3rawINtB6_8RawTablejE14reserve_rehashNCINvNtCs7KwMrq602nF_8indexmap5inner8get_hashTNtNtNtCsjcx2qvla3t1_5gimli5write4line10LineStringNtB1T_11DirectoryIdENtB1T_8FileInfoE0EB1X_
librustc_driver-fa31e2489381cd18.so:_RINvMs6_NtCsccaKyoXA9k1_9hashbrown3rawINtB6_8RawTablejE14reserve_rehashNCINvNtCs7KwMrq602nF_8indexmap5inner8get_hashTRNtNtCsiP3zVQcHmFl_10rustc_span6def_id5DefIdRNtNtCs1ufPwUoOuD2_10rustc_lint23impl_trait_overcaptures9ParamKindEuE0EB2E_
librustc_driver-fa31e2489381cd18.so:_RINvMs6_NtCsccaKyoXA9k1_9hashbrown3rawINtB6_8RawTablejE14reserve_rehashNCINvNtCs7KwMrq602nF_8indexmap5inner8get_hashTjNtNtCs6UwPWeCye2U_18rustc_ast_lowering6format12ArgumentTypeEINtNtCs6e3rAaajRpB_4core6option6OptionNtNtCsiP3zVQcHmFl_10rustc_span13span_encoding4SpanEE0EB1W_
librustc_driver-fa31e2489381cd18.so:_RINvMs6_NtCsccaKyoXA9k1_9hashbrown3rawINtB6_8RawTablejE14reserve_rehashNCINvNtCs7KwMrq602nF_8indexmap5inner8get_hashTmNtNtCsiP3zVQcHmFl_10rustc_span6def_id8DefIndexEINtNtCs73ymBF2OK4c_14rustc_metadata5rmeta9LazyArrayTB1S_INtNtCs6e3rAaajRpB_4core6option6OptionINtNtCsbByapOItfY5_13rustc_type_ir11fast_reject14SimplifiedTypeNtB1U_5DefIdEEEEE0EB2I_
librustc_driver-fa31e2489381cd18.so:_RINvMs6_NtCsccaKyoXA9k1_9hashbrown3rawINtB6_8RawTablejE14reserve_rehashNCINvNtCs7KwMrq602nF_8indexmap5inner8get_hashjuE0ECs73ymBF2OK4c_14rustc_metadata
librustc_driver-fa31e2489381cd18.so:_RINvMs6_NtCsccaKyoXA9k1_9hashbrown3rawINtB6_8RawTablejE14reserve_rehashNCINvNtCs7KwMrq602nF_8indexmap5inner8get_hashjuE0ECscUPtgnKeETP_18rustc_hir_analysis
librustc_driver-fa31e2489381cd18.so:_RINvMs6_NtCsccaKyoXA9k1_9hashbrown3rawINtB6_8RawTablejE14reserve_rehashNCINvNtCs7KwMrq602nF_8indexmap5inner8get_hashmRNtNtCsiP3zVQcHmFl_10rustc_span13span_encoding4SpanE0ECscUPtgnKeETP_18rustc_hir_analysis
librustc_driver-fa31e2489381cd18.so:_RINvMs6_NtCsccaKyoXA9k1_9hashbrown3rawINtB6_8RawTablejE14reserve_rehashNCINvNtCs7KwMrq602nF_8indexmap5inner8get_hashmuE0ECscUPtgnKeETP_18rustc_hir_analysis
librustc_driver-fa31e2489381cd18.so:_RINvMs6_NtCsfLyDnQ7y4pL_9hashbrown3rawINtB6_8RawTableTINtNtCsgvX44DZTN43_5alloc3vec3VechENtNtCsgEEFXYlDWVa_6thorin7strings19PackageStringOffsetEE14reserve_rehashNCINvNtB8_3map11make_hasherBQ_B1p_NtNtCsiCGORjsDRuc_8foldhash4fast11RandomStateE0EB1t_
librustc_driver-fa31e2489381cd18.so:_RINvMs6_NtCsfLyDnQ7y4pL_9hashbrown3rawINtB6_8RawTableTjNtNtCsdRd0hdE2iPK_6object4read10RelocationEE14reserve_rehashNCINvNtB8_3map11make_hasherjBR_NtNtCsiCGORjsDRuc_8foldhash4fast11RandomStateE0ECsgEEFXYlDWVa_6thorin
librustc_driver-fa31e2489381cd18.so:_RINvMs8_NtNtNtCsgvX44DZTN43_5alloc11collections5btree4nodeINtB6_7NodeRefNtNtB6_6marker5OwnedyNtNtNtCs4chL10YB23V_5gimli4read6abbrev12AbbreviationNtB1a_4LeafE13from_new_leafNtNtBc_5alloc6GlobalEB1z_
librustc_driver-fa31e2489381cd18.so:_RINvMs8_NtNtNtCsgvX44DZTN43_5alloc11collections5btree4nodeINtB6_7NodeRefNtNtB6_6marker5OwnedyNtNtNtCs4chL10YB23V_5gimli4read6abbrev12AbbreviationNtB1a_4LeafE8new_leafNtNtBc_5alloc6GlobalEB1z_
librustc_driver-fa31e2489381cd18.so:_RINvMs9_NtNtNtCsgvX44DZTN43_5alloc11collections5btree4nodeINtB6_7NodeRefNtNtB6_6marker5OwnedyNtNtNtCs4chL10YB23V_5gimli4read6abbrev12AbbreviationNtB1a_8InternalE12new_internalNtNtBc_5alloc6GlobalEB1z_
librustc_driver-fa31e2489381cd18.so:_RINvMs9_NtNtNtCsgvX44DZTN43_5alloc11collections5btree4nodeINtB6_7NodeRefNtNtB6_6marker5OwnedyNtNtNtCs4chL10YB23V_5gimli4read6abbrev12AbbreviationNtB1a_8InternalE17from_new_internalNtNtBc_5alloc6GlobalEB1z_
librustc_driver-fa31e2489381cd18.so:_RINvMsK_NtNtNtCsgvX44DZTN43_5alloc11collections5btree4nodeINtB6_6HandleINtB6_7NodeRefNtNtB6_6marker3MutyNtNtNtCs4chL10YB23V_5gimli4read6abbrev12AbbreviationNtB1n_4LeafENtB1n_4EdgeE6insertNtNtBc_5alloc6GlobalEB1K_
librustc_driver-fa31e2489381cd18.so:_RINvMsM_NtNtNtCsgvX44DZTN43_5alloc11collections5btree4nodeINtB6_6HandleINtB6_7NodeRefNtNtB6_6marker3MutyNtNtNtCs4chL10YB23V_5gimli4read6abbrev12AbbreviationNtB1n_8InternalENtB1n_4EdgeE6insertNtNtBc_5alloc6GlobalEB1K_
librustc_driver-fa31e2489381cd18.so:_RINvMsN_NtNtNtCsgvX44DZTN43_5alloc11collections5btree4nodeINtB6_6HandleINtB6_7NodeRefNtNtB6_6marker3MutyNtNtNtCs4chL10YB23V_5gimli4read6abbrev12AbbreviationNtB1n_4LeafENtB1n_4EdgeE16insert_recursingNtNtBc_5alloc6GlobalNCNvMs4_NtNtB8_3map5entryINtB3C_11VacantEntryyB1E_E12insert_entry0EB1K_
librustc_driver-fa31e2489381cd18.so:_RINvMsV_NtNtNtCsgvX44DZTN43_5alloc11collections5btree4nodeINtB6_6HandleINtB6_7NodeRefNtNtB6_6marker3MutyNtNtNtCs4chL10YB23V_5gimli4read6abbrev12AbbreviationNtB1n_4LeafENtB1n_2KVE5splitNtNtBc_5alloc6GlobalEB1K_
librustc_driver-fa31e2489381cd18.so:_RINvMsW_NtNtNtCsgvX44DZTN43_5alloc11collections5btree4nodeINtB6_6HandleINtB6_7NodeRefNtNtB6_6marker3MutyNtNtNtCs4chL10YB23V_5gimli4read6abbrev12AbbreviationNtB1n_8InternalENtB1n_2KVE5splitNtNtBc_5alloc6GlobalEB1K_
librustc_driver-fa31e2489381cd18.so:_RINvMs_NtCs9CkVVD3KzMB_4jiff5errorNtB5_5Error5adhocNtNtCsgvX44DZTN43_5alloc6string6StringEB7_
librustc_driver-fa31e2489381cd18.so:_RINvMs_NtCs9CkVVD3KzMB_4jiff5errorNtB5_5Error5rangeINtNtNtB7_4util8rangeint4ri32Knn3b9ac9ff_Kn3b9ac9ff_EllEB7_
librustc_driver-fa31e2489381cd18.so:_RINvMs_NtCs9CkVVD3KzMB_4jiff5errorNtB5_5Error5rangeaaaEB7_
librustc_driver-fa31e2489381cd18.so:_RINvMs_NtCs9CkVVD3KzMB_4jiff5errorNtB5_5Error5rangeannEB7_
librustc_driver-fa31e2489381cd18.so:_RINvMs_NtCs9CkVVD3KzMB_4jiff5errorNtB5_5Error5rangelllEB7_
librustc_driver-fa31e2489381cd18.so:_RINvMs_NtCs9CkVVD3KzMB_4jiff5errorNtB5_5Error5rangennnEB7_
librustc_driver-fa31e2489381cd18.so:_RINvMs_NtCs9CkVVD3KzMB_4jiff5errorNtB5_5Error5rangesssEB7_
librustc_driver-fa31e2489381cd18.so:_RINvMs_NtCs9CkVVD3KzMB_4jiff5errorNtB5_5Error5rangexaaEB7_
librustc_driver-fa31e2489381cd18.so:_RINvMs_NtCs9CkVVD3KzMB_4jiff5errorNtB5_5Error5rangexllEB7_
librustc_driver-fa31e2489381cd18.so:_RINvMs_NtCs9CkVVD3KzMB_4jiff5errorNtB5_5Error5rangexnnEB7_
librustc_driver-fa31e2489381cd18.so:_RINvMs_NtCs9CkVVD3KzMB_4jiff5errorNtB5_5Error5rangexssEB7_
librustc_driver-fa31e2489381cd18.so:_RINvMs_NtCs9CkVVD3KzMB_4jiff5errorNtB5_5Error5rangexxxEB7_
librustc_driver-fa31e2489381cd18.so:_RINvMs_NtNtNtCs9CkVVD3KzMB_4jiff3fmt7strtime6formatNtB7_9Extension14write_str_coldINtB9_11StdFmtWriteQNtNtCs6e3rAaajRpB_4core3fmt9FormatterEEBb_
librustc_driver-fa31e2489381cd18.so:_RINvMs_NtNtNtCsgvX44DZTN43_5alloc11collections5btree6searchINtNtB7_4node7NodeRefNtNtBY_6marker3MutyNtNtNtCs4chL10YB23V_5gimli4read6abbrev12AbbreviationNtB1i_14LeafOrInternalE11search_treeyEB1F_
librustc_driver-fa31e2489381cd18.so:_RINvMs_NtNtNtCsgvX44DZTN43_5alloc11collections5btree6searchINtNtB7_4node7NodeRefNtNtBY_6marker5ImmutyNtNtNtCs4chL10YB23V_5gimli4read6abbrev12AbbreviationNtB1i_14LeafOrInternalE11search_treeyEB1H_
librustc_driver-fa31e2489381cd18.so:_RINvMsi_NtNtNtCsgvX44DZTN43_5alloc11collections5btree3mapINtB6_8BTreeMapyNtNtNtCs4chL10YB23V_5gimli4read6abbrev12AbbreviationE3getyEB1f_
librustc_driver-fa31e2489381cd18.so:_RINvMsp_NtNtNtCsgvX44DZTN43_5alloc11collections5btree4nodeINtB6_7NodeRefNtNtB6_6marker3MutyNtNtNtCs4chL10YB23V_5gimli4read6abbrev12AbbreviationNtB1a_8InternalE30correct_childrens_parent_linksINtNtNtCs6e3rAaajRpB_4core3ops5range14RangeInclusivejEEB1x_
librustc_driver-fa31e2489381cd18.so:_RINvMsp_NtNtNtCsgvX44DZTN43_5alloc11collections5btree4nodeINtB6_7NodeRefNtNtB6_6marker3MutyNtNtNtCs4chL10YB23V_5gimli4read6abbrev12AbbreviationNtB1a_8InternalE30correct_childrens_parent_linksINtNtNtCs6e3rAaajRpB_4core3ops5range5RangejEEB1x_
librustc_driver-fa31e2489381cd18.so:_RINvNtCs6e3rAaajRpB_4core5slice20copy_from_slice_implhECsh06HsEcGiMH_11miniz_oxide
librustc_driver-fa31e2489381cd18.so:_RINvNtCs6e3rAaajRpB_4core9panicking13assert_failedAhj4_RShECskurZfFSl0zB_3std
librustc_driver-fa31e2489381cd18.so:_RINvNtCs6e3rAaajRpB_4core9panicking13assert_failedINtCsdeppuzfODI3_9rustc_abi8VariantsNtNtBP_6layout8FieldIdxNtB1o_10VariantIdxEBM_ECs7JFcZT8r71y_15rustc_transmute
librustc_driver-fa31e2489381cd18.so:_RINvNtCs6e3rAaajRpB_4core9panicking13assert_failedINtNtB4_6option6OptionINtNtCsbByapOItfY5_13rustc_type_ir11generic_arg14GenericArgKindNtNtNtCsaqNsllmwM5m_12rustc_middle2ty7context6TyCtxtEEBM_ECsg0ydQtPiXpO_17rustc_codegen_ssa
librustc_driver-fa31e2489381cd18.so:_RINvNtCs6e3rAaajRpB_4core9panicking13assert_failedINtNtB4_6option6OptionINtNtCsbByapOItfY5_13rustc_type_ir9canonical9CanonicalNtNtNtCsaqNsllmwM5m_12rustc_middle2ty7context6TyCtxtINtNtNtB1d_5solve7inspect5StateB20_uEEEBM_ECs7ZgcGxgGJUk_21rustc_trait_selection
librustc_driver-fa31e2489381cd18.so:_RINvNtCs6e3rAaajRpB_4core9panicking13assert_failedINtNtB4_6option6OptionINtNtCsbByapOItfY5_13rustc_type_ir9predicate19ExistentialTraitRefNtNtNtCsaqNsllmwM5m_12rustc_middle2ty7context6TyCtxtEEBM_ECs7RlYbh05zWS_16rustc_const_eval
librustc_driver-fa31e2489381cd18.so:_RINvNtCs6e3rAaajRpB_4core9panicking13assert_failedINtNtB4_6option6OptionINtNtCsbByapOItfY5_13rustc_type_ir9predicate19ExistentialTraitRefNtNtNtCsaqNsllmwM5m_12rustc_middle2ty7context6TyCtxtEEBM_ECsirwAroatyKs_18rustc_codegen_llvm
librustc_driver-fa31e2489381cd18.so:_RINvNtCs6e3rAaajRpB_4core9panicking13assert_failedINtNtB4_6option6OptionINtNtNtCs7JFcZT8r71y_15rustc_transmute6layout3dfa11TransitionsNtNtNtCsaqNsllmwM5m_12rustc_middle2ty6region6RegionNtB2c_2TyEEBM_EB1f_
librustc_driver-fa31e2489381cd18.so:_RINvNtCs6e3rAaajRpB_4core9panicking13assert_failedINtNtB4_6option6OptionINtNtNtCsbByapOItfY5_13rustc_type_ir5solve7inspect9ProbeKindNtNtNtCsaqNsllmwM5m_12rustc_middle2ty7context6TyCtxtEEBM_ECs7ZgcGxgGJUk_21rustc_trait_selection
librustc_driver-fa31e2489381cd18.so:_RINvNtCs6e3rAaajRpB_4core9panicking13assert_failedINtNtB4_6option6OptionNtCsdeppuzfODI3_9rustc_abi7IntegerEBM_ECsbmrvFwx9VJk_14rustc_ty_utils
librustc_driver-fa31e2489381cd18.so:_RINvNtCs6e3rAaajRpB_4core9panicking13assert_failedINtNtB4_6option6OptionNtNtCs1ufPwUoOuD2_10rustc_lint23impl_trait_overcaptures9ParamKindEBM_EB1c_
librustc_driver-fa31e2489381cd18.so:_RINvNtCs6e3rAaajRpB_4core9panicking13assert_failedINtNtB4_6option6OptionNtNtCsaqNsllmwM5m_12rustc_middle2ty2TyEBM_ECs7ZgcGxgGJUk_21rustc_trait_selection
librustc_driver-fa31e2489381cd18.so:_RINvNtCs6e3rAaajRpB_4core9panicking13assert_failedINtNtB4_6option6OptionNtNtCsaqNsllmwM5m_12rustc_middle3mir11SourceScopeEBM_EB1c_
librustc_driver-fa31e2489381cd18.so:_RINvNtCs6e3rAaajRpB_4core9panicking13assert_failedINtNtB4_6option6OptionNtNtCsaqNsllmwM5m_12rustc_middle3mir5LocalEBM_ECs4DnJvQYATGa_19rustc_mir_transform
librustc_driver-fa31e2489381cd18.so:_RINvNtCs6e3rAaajRpB_4core9panicking13assert_failedINtNtB4_6option6OptionNtNtCsaqNsllmwM5m_12rustc_middle3mir8PromotedEBM_ECsPGgg1SovgA_15rustc_mir_build
librustc_driver-fa31e2489381cd18.so:_RINvNtCs6e3rAaajRpB_4core9panicking13assert_failedINtNtB4_6option6OptionNtNtCsaqNsllmwM5m_12rustc_middle3mir8PromotedEBM_ECsirwAroatyKs_18rustc_codegen_llvm
librustc_driver-fa31e2489381cd18.so:_RINvNtCs6e3rAaajRpB_4core9panicking13assert_failedINtNtB4_6option6OptionNtNtCsbByapOItfY5_13rustc_type_ir11region_kind9RegionVidEBM_ECsl5MakceMktk_14rustc_borrowck
librustc_driver-fa31e2489381cd18.so:_RINvNtCs6e3rAaajRpB_4core9panicking13assert_failedINtNtB4_6option6OptionNtNtCsdeppuzfODI3_9rustc_abi6layout10VariantIdxEBM_ECsirwAroatyKs_18rustc_codegen_llvm
librustc_driver-fa31e2489381cd18.so:_RINvNtCs6e3rAaajRpB_4core9panicking13assert_failedINtNtB4_6option6OptionNtNtCsh8xpvZH2MPK_12rustc_errors10diagnostic6IsLintEBM_ECsg0ydQtPiXpO_17rustc_codegen_ssa
librustc_driver-fa31e2489381cd18.so:_RINvNtCs6e3rAaajRpB_4core9panicking13assert_failedINtNtB4_6option6OptionNtNtCsiP3zVQcHmFl_10rustc_span6def_id5DefIdEBM_ECs7ZgcGxgGJUk_21rustc_trait_selection
librustc_driver-fa31e2489381cd18.so:_RINvNtCs6e3rAaajRpB_4core9panicking13assert_failedINtNtB4_6option6OptionNtNtCsiP3zVQcHmFl_10rustc_span6symbol6SymbolEBM_ECscUPtgnKeETP_18rustc_hir_analysis
librustc_driver-fa31e2489381cd18.so:_RINvNtCs6e3rAaajRpB_4core9panicking13assert_failedINtNtB4_6option6OptionNtNtCsl5MakceMktk_14rustc_borrowck8dataflow11BorrowIndexEBM_EB1c_
librustc_driver-fa31e2489381cd18.so:_RINvNtCs6e3rAaajRpB_4core9panicking13assert_failedINtNtB4_6option6OptionNtNtNtCsdeppuzfODI3_9rustc_abi8callconv3reg3RegEBM_ECs3scjADIeHPO_12rustc_target
librustc_driver-fa31e2489381cd18.so:_RINvNtCs6e3rAaajRpB_4core9panicking13assert_failedINtNtB4_6option6OptionRINtNtCsfWGFs8tRit9_11rustc_infer6traits10ObligationNtNtNtCsaqNsllmwM5m_12rustc_middle2ty9predicate9PredicateEEBM_ECs3XAq0Kofjci_15rustc_interface
librustc_driver-fa31e2489381cd18.so:_RINvNtCs6e3rAaajRpB_4core9panicking13assert_failedINtNtB4_6option6OptionRNtNtNtCsirwAroatyKs_18rustc_codegen_llvm4llvm3ffi5ValueEBM_EB1f_
librustc_driver-fa31e2489381cd18.so:_RINvNtCs6e3rAaajRpB_4core9panicking13assert_failedINtNtB4_6option6OptionRNtNtNtCsirwAroatyKs_18rustc_codegen_llvm4llvm3ffi8MetadataEBM_EB1f_
librustc_driver-fa31e2489381cd18.so:_RINvNtCs6e3rAaajRpB_4core9panicking13assert_failedINtNtB4_6option6OptionRSTNtNtCsiP3zVQcHmFl_10rustc_span13span_encoding4SpanNtNtB1f_6def_id10LocalDefIdEEBM_ECs6UwPWeCye2U_18rustc_ast_lowering
librustc_driver-fa31e2489381cd18.so:_RINvNtCs6e3rAaajRpB_4core9panicking13assert_failedINtNtB4_6option6OptionReEBM_ECsg0ydQtPiXpO_17rustc_codegen_ssa
librustc_driver-fa31e2489381cd18.so:_RINvNtCs6e3rAaajRpB_4core9panicking13assert_failedINtNtB4_6option6OptionTNtNtNtCsaqNsllmwM5m_12rustc_middle2ty8instance8InstanceNtNtCsiP3zVQcHmFl_10rustc_span13span_encoding4SpanEEBM_ECs4DnJvQYATGa_19rustc_mir_transform
librustc_driver-fa31e2489381cd18.so:_RINvNtCs6e3rAaajRpB_4core9panicking13assert_failedINtNtB4_6option6OptionTNtNtNtCsaqNsllmwM5m_12rustc_middle3mir9interpret7AllocIdNtNtCsiP3zVQcHmFl_10rustc_span6def_id10LocalDefIdEEBM_ECs7RlYbh05zWS_16rustc_const_eval
librustc_driver-fa31e2489381cd18.so:_RINvNtCs6e3rAaajRpB_4core9panicking13assert_failedINtNtB4_6option6OptionTRNtNtNtCsirwAroatyKs_18rustc_codegen_llvm4llvm3ffi5ValueB19_EEBM_EB1g_
librustc_driver-fa31e2489381cd18.so:_RINvNtCs6e3rAaajRpB_4core9panicking13assert_failedINtNtB4_6option6OptionTjRNtNtNtCsaqNsllmwM5m_12rustc_middle2ty7closure13CapturedPlaceEEBM_ECs4DnJvQYATGa_19rustc_mir_transform
librustc_driver-fa31e2489381cd18.so:_RINvNtCs6e3rAaajRpB_4core9panicking13assert_failedINtNtB4_6option6OptionTjRNtNtNtCsaqNsllmwM5m_12rustc_middle2ty7closure13CapturedPlaceEEBM_ECs6qKlvMSJCFB_16rustc_hir_typeck
librustc_driver-fa31e2489381cd18.so:_RINvNtCs6e3rAaajRpB_4core9panicking13assert_failedINtNtB4_6option6OptionjEBM_EB4_
librustc_driver-fa31e2489381cd18.so:_RINvNtCs6e3rAaajRpB_4core9panicking13assert_failedINtNtB4_6result6ResultuNtNtCsbByapOItfY5_13rustc_type_ir5solve10NoSolutionEBM_ECs7ZgcGxgGJUk_21rustc_trait_selection
librustc_driver-fa31e2489381cd18.so:_RINvNtCs6e3rAaajRpB_4core9panicking13assert_failedINtNtB4_6result6ResultuNtNtCsdIrjtxikCrm_4odht5error5ErrorEBM_ECs3KflAWMuICG_9rustc_hir
librustc_driver-fa31e2489381cd18.so:_RINvNtCs6e3rAaajRpB_4core9panicking13assert_failedINtNtCs3KflAWMuICG_9rustc_hir3def3ResNtNtCsd482UFdOvTO_9rustc_ast7node_id6NodeIdEBM_ECs3VMMNsKb80B_13rustc_resolve
librustc_driver-fa31e2489381cd18.so:_RINvNtCs6e3rAaajRpB_4core9panicking13assert_failedINtNtCsbByapOItfY5_13rustc_type_ir6binder11PlaceholderNtNtNtCsaqNsllmwM5m_12rustc_middle2ty7context6TyCtxtINtBP_11BoundRegionB1E_EEBM_ECsfWGFs8tRit9_11rustc_infer
librustc_driver-fa31e2489381cd18.so:_RINvNtCs6e3rAaajRpB_4core9panicking13assert_failedINtNtCsgvX44DZTN43_5alloc3vec3VecINtNtCsbByapOItfY5_13rustc_type_ir5solve4GoalNtNtNtCsaqNsllmwM5m_12rustc_middle2ty7context6TyCtxtNtNtB26_9predicate9PredicateEEBM_ECs7ZgcGxgGJUk_21rustc_trait_selection
librustc_driver-fa31e2489381cd18.so:_RINvNtCs6e3rAaajRpB_4core9panicking13assert_failedINtNtCsgvX44DZTN43_5alloc3vec3VecNtNtCsdeppuzfODI3_9rustc_abi6layout8FieldIdxEAB1j_j2_ECsbmrvFwx9VJk_14rustc_ty_utils
librustc_driver-fa31e2489381cd18.so:_RINvNtCs6e3rAaajRpB_4core9panicking13assert_failedINtNtCsgvX44DZTN43_5alloc6borrow3CoweEReECs3scjADIeHPO_12rustc_target
librustc_driver-fa31e2489381cd18.so:_RINvNtCs6e3rAaajRpB_4core9panicking13assert_failedINtNtCshmntTYxeqYP_21rustc_data_structures6intern8InternedNtCs3VMMNsKb80B_13rustc_resolve8DeclDataEBM_EB1K_
librustc_driver-fa31e2489381cd18.so:_RINvNtCs6e3rAaajRpB_4core9panicking13assert_failedINtNtNtCsdeppuzfODI3_9rustc_abi6layout2ty11TyAndLayoutNtNtCsaqNsllmwM5m_12rustc_middle2ty2TyEBM_ECs7RlYbh05zWS_16rustc_const_eval
librustc_driver-fa31e2489381cd18.so:_RINvNtCs6e3rAaajRpB_4core9panicking13assert_failedINtNtNtCsdeppuzfODI3_9rustc_abi6layout2ty11TyAndLayoutNtNtCsaqNsllmwM5m_12rustc_middle2ty2TyEBM_ECsirwAroatyKs_18rustc_codegen_llvm
librustc_driver-fa31e2489381cd18.so:_RINvNtCs6e3rAaajRpB_4core9panicking13assert_failedNtCs2lWamSn5Rku_13rustc_apfloat6StatusBM_ECs7RlYbh05zWS_16rustc_const_eval
librustc_driver-fa31e2489381cd18.so:_RINvNtCs6e3rAaajRpB_4core9panicking13assert_failedNtCs6ahoKXGLX5z_12rustc_hir_id11ItemLocalIdBM_ECs6UwPWeCye2U_18rustc_ast_lowering
librustc_driver-fa31e2489381cd18.so:_RINvNtCs6e3rAaajRpB_4core9panicking13assert_failedNtCs6ahoKXGLX5z_12rustc_hir_id11ItemLocalIdBM_ECsPGgg1SovgA_15rustc_mir_build
librustc_driver-fa31e2489381cd18.so:_RINvNtCs6e3rAaajRpB_4core9panicking13assert_failedNtCs6ahoKXGLX5z_12rustc_hir_id5HirIdBM_ECsaqNsllmwM5m_12rustc_middle
librustc_driver-fa31e2489381cd18.so:_RINvNtCs6e3rAaajRpB_4core9panicking13assert_failedNtCs6ahoKXGLX5z_12rustc_hir_id7OwnerIdBM_ECs6UwPWeCye2U_18rustc_ast_lowering
librustc_driver-fa31e2489381cd18.so:_RINvNtCs6e3rAaajRpB_4core9panicking13assert_failedNtCs6ahoKXGLX5z_12rustc_hir_id7OwnerIdBM_ECs6qKlvMSJCFB_16rustc_hir_typeck
librustc_driver-fa31e2489381cd18.so:_RINvNtCs6e3rAaajRpB_4core9panicking13assert_failedNtCs6ahoKXGLX5z_12rustc_hir_id7OwnerIdBM_ECsPGgg1SovgA_15rustc_mir_build
librustc_driver-fa31e2489381cd18.so:_RINvNtCs6e3rAaajRpB_4core9panicking13assert_failedNtCsbByapOItfY5_13rustc_type_ir11ClosureKindBM_ECs4DnJvQYATGa_19rustc_mir_transform
librustc_driver-fa31e2489381cd18.so:_RINvNtCs6e3rAaajRpB_4core9panicking13assert_failedNtCsbByapOItfY5_13rustc_type_ir13DebruijnIndexBM_ECsaqNsllmwM5m_12rustc_middle
librustc_driver-fa31e2489381cd18.so:_RINvNtCs6e3rAaajRpB_4core9panicking13assert_failedNtCsbByapOItfY5_13rustc_type_ir13UniverseIndexBM_ECs7ZgcGxgGJUk_21rustc_trait_selection
librustc_driver-fa31e2489381cd18.so:_RINvNtCs6e3rAaajRpB_4core9panicking13assert_failedNtCsbByapOItfY5_13rustc_type_ir8VarianceBM_ECscUPtgnKeETP_18rustc_hir_analysis
librustc_driver-fa31e2489381cd18.so:_RINvNtCs6e3rAaajRpB_4core9panicking13assert_failedNtCsdIrjtxikCrm_4odht6FactorBM_ECs3KflAWMuICG_9rustc_hir
librustc_driver-fa31e2489381cd18.so:_RINvNtCs6e3rAaajRpB_4core9panicking13assert_failedNtCsdeppuzfODI3_9rustc_abi11BackendReprBM_ECs7RlYbh05zWS_16rustc_const_eval
librustc_driver-fa31e2489381cd18.so:_RINvNtCs6e3rAaajRpB_4core9panicking13assert_failedNtCsdeppuzfODI3_9rustc_abi4SizeBM_ECsaqNsllmwM5m_12rustc_middle
librustc_driver-fa31e2489381cd18.so:_RINvNtCs6e3rAaajRpB_4core9panicking13assert_failedNtCsdeppuzfODI3_9rustc_abi5AlignBM_ECsbmrvFwx9VJk_14rustc_ty_utils
librustc_driver-fa31e2489381cd18.so:_RINvNtCs6e3rAaajRpB_4core9panicking13assert_failedNtCsdeppuzfODI3_9rustc_abi5AlignBM_ECsirwAroatyKs_18rustc_codegen_llvm
librustc_driver-fa31e2489381cd18.so:_RINvNtCs6e3rAaajRpB_4core9panicking13assert_failedNtCsh8xpvZH2MPK_12rustc_errors11SuggestionsBM_ECsg0ydQtPiXpO_17rustc_codegen_ssa
librustc_driver-fa31e2489381cd18.so:_RINvNtCs6e3rAaajRpB_4core9panicking13assert_failedNtCsh8xpvZH2MPK_12rustc_errors5LevelBM_EBO_
librustc_driver-fa31e2489381cd18.so:_RINvNtCs6e3rAaajRpB_4core9panicking13assert_failedNtCsiP3zVQcHmFl_10rustc_span15RelativeBytePosBM_ECs73ymBF2OK4c_14rustc_metadata
librustc_driver-fa31e2489381cd18.so:_RINvNtCs6e3rAaajRpB_4core9panicking13assert_failedNtCskTCZcgcvGt2_12rustc_ast_ir10MovabilityBM_ECs4DnJvQYATGa_19rustc_mir_transform
librustc_driver-fa31e2489381cd18.so:_RINvNtCs6e3rAaajRpB_4core9panicking13assert_failedNtCskTCZcgcvGt2_12rustc_ast_ir10MutabilityBM_ECs7RlYbh05zWS_16rustc_const_eval
librustc_driver-fa31e2489381cd18.so:_RINvNtCs6e3rAaajRpB_4core9panicking13assert_failedNtCskTCZcgcvGt2_12rustc_ast_ir10MutabilityBM_ECsl5MakceMktk_14rustc_borrowck
librustc_driver-fa31e2489381cd18.so:_RINvNtCs6e3rAaajRpB_4core9panicking13assert_failedNtNCNvNtNtCsg0ydQtPiXpO_17rustc_codegen_ssa4back5write20start_executing_works1_012CodegenStateBM_ECsirwAroatyKs_18rustc_codegen_llvm
librustc_driver-fa31e2489381cd18.so:_RINvNtCs6e3rAaajRpB_4core9panicking13assert_failedNtNtB4_3cmp8OrderingBM_ECs1ufPwUoOuD2_10rustc_lint
librustc_driver-fa31e2489381cd18.so:_RINvNtCs6e3rAaajRpB_4core9panicking13assert_failedNtNtB4_3cmp8OrderingBM_ECs7RlYbh05zWS_16rustc_const_eval
librustc_driver-fa31e2489381cd18.so:_RINvNtCs6e3rAaajRpB_4core9panicking13assert_failedNtNtB4_3cmp8OrderingBM_ECsPGgg1SovgA_15rustc_mir_build
librustc_driver-fa31e2489381cd18.so:_RINvNtCs6e3rAaajRpB_4core9panicking13assert_failedNtNtCs2lWamSn5Rku_13rustc_apfloat4ieee4LossBM_ECs1ufPwUoOuD2_10rustc_lint
librustc_driver-fa31e2489381cd18.so:_RINvNtCs6e3rAaajRpB_4core9panicking13assert_failedNtNtCs2lWamSn5Rku_13rustc_apfloat4ieee4LossBM_ECs7RlYbh05zWS_16rustc_const_eval
librustc_driver-fa31e2489381cd18.so:_RINvNtCs6e3rAaajRpB_4core9panicking13assert_failedNtNtCs2lWamSn5Rku_13rustc_apfloat4ieee4LossBM_ECsPGgg1SovgA_15rustc_mir_build
librustc_driver-fa31e2489381cd18.so:_RINvNtCs6e3rAaajRpB_4core9panicking13assert_failedNtNtCs3KflAWMuICG_9rustc_hir11definitions11DefPathDataBM_ECs73ymBF2OK4c_14rustc_metadata
librustc_driver-fa31e2489381cd18.so:_RINvNtCs6e3rAaajRpB_4core9panicking13assert_failedNtNtCs3KflAWMuICG_9rustc_hir3def7DefKindBM_ECs6UwPWeCye2U_18rustc_ast_lowering
librustc_driver-fa31e2489381cd18.so:_RINvNtCs6e3rAaajRpB_4core9panicking13assert_failedNtNtCs3KflAWMuICG_9rustc_hir3def7DefKindBM_ECsbmrvFwx9VJk_14rustc_ty_utils
librustc_driver-fa31e2489381cd18.so:_RINvNtCs6e3rAaajRpB_4core9panicking13assert_failedNtNtCs3KflAWMuICG_9rustc_hir3def7DefKindBM_ECscUPtgnKeETP_18rustc_hir_analysis
librustc_driver-fa31e2489381cd18.so:_RINvNtCs6e3rAaajRpB_4core9panicking13assert_failedNtNtCs3scjADIeHPO_12rustc_target4spec3LldBM_EBQ_
librustc_driver-fa31e2489381cd18.so:_RINvNtCs6e3rAaajRpB_4core9panicking13assert_failedNtNtCs73ymBF2OK4c_14rustc_metadata5rmeta9LazyStateBM_EBQ_
librustc_driver-fa31e2489381cd18.so:_RINvNtCs6e3rAaajRpB_4core9panicking13assert_failedNtNtCs73ymBF2OK4c_14rustc_metadata7locator11CrateFlavorBM_EBQ_
librustc_driver-fa31e2489381cd18.so:_RINvNtCs6e3rAaajRpB_4core9panicking13assert_failedNtNtCs84S5s1Yb6le_12rustc_public2ty10MirConstIdBM_EBQ_
librustc_driver-fa31e2489381cd18.so:_RINvNtCs6e3rAaajRpB_4core9panicking13assert_failedNtNtCs84S5s1Yb6le_12rustc_public2ty2TyBM_EBQ_
librustc_driver-fa31e2489381cd18.so:_RINvNtCs6e3rAaajRpB_4core9panicking13assert_failedNtNtCs84S5s1Yb6le_12rustc_public2ty4SpanBM_EBQ_
librustc_driver-fa31e2489381cd18.so:_RINvNtCs6e3rAaajRpB_4core9panicking13assert_failedNtNtCs84S5s1Yb6le_12rustc_public2ty9TyConstIdBM_EBQ_
librustc_driver-fa31e2489381cd18.so:_RINvNtCs6e3rAaajRpB_4core9panicking13assert_failedNtNtCs84S5s1Yb6le_12rustc_public3abi6LayoutBM_EBQ_
librustc_driver-fa31e2489381cd18.so:_RINvNtCs6e3rAaajRpB_4core9panicking13assert_failedNtNtCs84S5s1Yb6le_12rustc_public9crate_def5DefIdBM_EBQ_
librustc_driver-fa31e2489381cd18.so:_RINvNtCs6e3rAaajRpB_4core9panicking13assert_failedNtNtCs8Oewc4Z7MhZ_18rustc_mir_dataflow10move_paths13MovePathIndexBM_EBQ_
librustc_driver-fa31e2489381cd18.so:_RINvNtCs6e3rAaajRpB_4core9panicking13assert_failedNtNtCsaqNsllmwM5m_12rustc_middle2ty2TyBM_EBQ_
librustc_driver-fa31e2489381cd18.so:_RINvNtCs6e3rAaajRpB_4core9panicking13assert_failedNtNtCsaqNsllmwM5m_12rustc_middle3mir10BasicBlockBM_ECs4DnJvQYATGa_19rustc_mir_transform
librustc_driver-fa31e2489381cd18.so:_RINvNtCs6e3rAaajRpB_4core9panicking13assert_failedNtNtCsaqNsllmwM5m_12rustc_middle3mir10BasicBlockBM_ECsPGgg1SovgA_15rustc_mir_build
librustc_driver-fa31e2489381cd18.so:_RINvNtCs6e3rAaajRpB_4core9panicking13assert_failedNtNtCsaqNsllmwM5m_12rustc_middle3mir10BasicBlockBM_ECsirwAroatyKs_18rustc_codegen_llvm
librustc_driver-fa31e2489381cd18.so:_RINvNtCs6e3rAaajRpB_4core9panicking13assert_failedNtNtCsaqNsllmwM5m_12rustc_middle3mir10BasicBlockBM_ECsl5MakceMktk_14rustc_borrowck
librustc_driver-fa31e2489381cd18.so:_RINvNtCs6e3rAaajRpB_4core9panicking13assert_failedNtNtCsaqNsllmwM5m_12rustc_middle3mir11SourceScopeBM_EBQ_
librustc_driver-fa31e2489381cd18.so:_RINvNtCs6e3rAaajRpB_4core9panicking13assert_failedNtNtCsaqNsllmwM5m_12rustc_middle3mir5LocalBM_EBQ_
librustc_driver-fa31e2489381cd18.so:_RINvNtCs6e3rAaajRpB_4core9panicking13assert_failedNtNtCsaqNsllmwM5m_12rustc_middle3mir8LocationBM_ECsl5MakceMktk_14rustc_borrowck
librustc_driver-fa31e2489381cd18.so:_RINvNtCs6e3rAaajRpB_4core9panicking13assert_failedNtNtCsbByapOItfY5_13rustc_type_ir11region_kind9RegionVidBM_ECsfWGFs8tRit9_11rustc_infer
librustc_driver-fa31e2489381cd18.so:_RINvNtCs6e3rAaajRpB_4core9panicking13assert_failedNtNtCsbByapOItfY5_13rustc_type_ir6binder17BoundVarIndexKindBM_ECsaqNsllmwM5m_12rustc_middle
librustc_driver-fa31e2489381cd18.so:_RINvNtCs6e3rAaajRpB_4core9panicking13assert_failedNtNtCsbByapOItfY5_13rustc_type_ir9predicate17PredicatePolarityBM_ECs7ZgcGxgGJUk_21rustc_trait_selection
librustc_driver-fa31e2489381cd18.so:_RINvNtCs6e3rAaajRpB_4core9panicking13assert_failedNtNtCsd482UFdOvTO_9rustc_ast5token9TokenKindBM_ECsgfasDSBi4N4_11rustc_parse
librustc_driver-fa31e2489381cd18.so:_RINvNtCs6e3rAaajRpB_4core9panicking13assert_failedNtNtCsd482UFdOvTO_9rustc_ast7node_id6NodeIdBM_ECs1ufPwUoOuD2_10rustc_lint
librustc_driver-fa31e2489381cd18.so:_RINvNtCs6e3rAaajRpB_4core9panicking13assert_failedNtNtCsd482UFdOvTO_9rustc_ast7node_id6NodeIdBM_ECs6UwPWeCye2U_18rustc_ast_lowering
librustc_driver-fa31e2489381cd18.so:_RINvNtCs6e3rAaajRpB_4core9panicking13assert_failedNtNtCsd482UFdOvTO_9rustc_ast7node_id6NodeIdBM_ECs785ZPy54HPh_12rustc_expand
librustc_driver-fa31e2489381cd18.so:_RINvNtCs6e3rAaajRpB_4core9panicking13assert_failedNtNtCsdRd0hdE2iPK_6object6common12BinaryFormatBM_EBQ_
librustc_driver-fa31e2489381cd18.so:_RINvNtCs6e3rAaajRpB_4core9panicking13assert_failedNtNtCsdeppuzfODI3_9rustc_abi6layout10VariantIdxBM_ECs4DnJvQYATGa_19rustc_mir_transform
librustc_driver-fa31e2489381cd18.so:_RINvNtCs6e3rAaajRpB_4core9panicking13assert_failedNtNtCsdeppuzfODI3_9rustc_abi6layout10VariantIdxBM_ECsbmrvFwx9VJk_14rustc_ty_utils
librustc_driver-fa31e2489381cd18.so:_RINvNtCs6e3rAaajRpB_4core9panicking13assert_failedNtNtCsdeppuzfODI3_9rustc_abi6layout10VariantIdxBM_ECsirwAroatyKs_18rustc_codegen_llvm
librustc_driver-fa31e2489381cd18.so:_RINvNtCs6e3rAaajRpB_4core9panicking13assert_failedNtNtCsdeppuzfODI3_9rustc_abi6layout8FieldIdxBM_ECs7JFcZT8r71y_15rustc_transmute
librustc_driver-fa31e2489381cd18.so:_RINvNtCs6e3rAaajRpB_4core9panicking13assert_failedNtNtCsg0ydQtPiXpO_17rustc_codegen_ssa6common8TypeKindBM_ECsirwAroatyKs_18rustc_codegen_llvm
librustc_driver-fa31e2489381cd18.so:_RINvNtCs6e3rAaajRpB_4core9panicking13assert_failedNtNtCsiP3zVQcHmFl_10rustc_span13span_encoding4SpanBM_ECs3VMMNsKb80B_13rustc_resolve
librustc_driver-fa31e2489381cd18.so:_RINvNtCs6e3rAaajRpB_4core9panicking13assert_failedNtNtCsiP3zVQcHmFl_10rustc_span13span_encoding4SpanBM_ECsg0ydQtPiXpO_17rustc_codegen_ssa
librustc_driver-fa31e2489381cd18.so:_RINvNtCs6e3rAaajRpB_4core9panicking13assert_failedNtNtCsiP3zVQcHmFl_10rustc_span6def_id10LocalDefIdBM_ECsaqNsllmwM5m_12rustc_middle
librustc_driver-fa31e2489381cd18.so:_RINvNtCs6e3rAaajRpB_4core9panicking13assert_failedNtNtCsiP3zVQcHmFl_10rustc_span6def_id5DefIdBM_ECs7ZgcGxgGJUk_21rustc_trait_selection
librustc_driver-fa31e2489381cd18.so:_RINvNtCs6e3rAaajRpB_4core9panicking13assert_failedNtNtCsiP3zVQcHmFl_10rustc_span6def_id8CrateNumBM_ECs73ymBF2OK4c_14rustc_metadata
librustc_driver-fa31e2489381cd18.so:_RINvNtCs6e3rAaajRpB_4core9panicking13assert_failedNtNtCsiP3zVQcHmFl_10rustc_span6def_id8DefIndexBM_ECs3KflAWMuICG_9rustc_hir
librustc_driver-fa31e2489381cd18.so:_RINvNtCs6e3rAaajRpB_4core9panicking13assert_failedNtNtCsiP3zVQcHmFl_10rustc_span6symbol6SymbolBM_EBQ_
librustc_driver-fa31e2489381cd18.so:_RINvNtCs6e3rAaajRpB_4core9panicking13assert_failedNtNtCsiP3zVQcHmFl_10rustc_span7hygiene11LocalExpnIdBM_ECs3VMMNsKb80B_13rustc_resolve
librustc_driver-fa31e2489381cd18.so:_RINvNtCs6e3rAaajRpB_4core9panicking13assert_failedNtNtCsiP3zVQcHmFl_10rustc_span7hygiene6ExpnIdBM_EBQ_
librustc_driver-fa31e2489381cd18.so:_RINvNtCs6e3rAaajRpB_4core9panicking13assert_failedNtNtCsjcx2qvla3t1_5gimli9constants4DwAtBM_EBQ_
librustc_driver-fa31e2489381cd18.so:_RINvNtCs6e3rAaajRpB_4core9panicking13assert_failedNtNtCskHBMKP8yMGa_6object6common12BinaryFormatBM_EBQ_
librustc_driver-fa31e2489381cd18.so:_RINvNtCs6e3rAaajRpB_4core9panicking13assert_failedNtNtCsl5MakceMktk_14rustc_borrowck10borrow_set18TwoPhaseActivationBM_EBQ_
librustc_driver-fa31e2489381cd18.so:_RINvNtCs6e3rAaajRpB_4core9panicking13assert_failedNtNtNtB4_5alloc6layout6LayoutBM_ECs8n7ZY9jl9gN_12icu_provider
librustc_driver-fa31e2489381cd18.so:_RINvNtCs6e3rAaajRpB_4core9panicking13assert_failedNtNtNtCs5kKxLxgs1gB_14regex_automata4util10primitives7StateIDBM_EBS_
librustc_driver-fa31e2489381cd18.so:_RINvNtCs6e3rAaajRpB_4core9panicking13assert_failedNtNtNtCs5kKxLxgs1gB_14regex_automata4util10primitives9PatternIDBM_EBS_
librustc_driver-fa31e2489381cd18.so:_RINvNtCs6e3rAaajRpB_4core9panicking13assert_failedNtNtNtCs5kKxLxgs1gB_14regex_automata6hybrid2id11LazyStateIDBM_EBS_
librustc_driver-fa31e2489381cd18.so:_RINvNtCs6e3rAaajRpB_4core9panicking13assert_failedNtNtNtCs7RlYbh05zWS_16rustc_const_eval9interpret7machine12ReturnActionBM_EBS_
librustc_driver-fa31e2489381cd18.so:_RINvNtCs6e3rAaajRpB_4core9panicking13assert_failedNtNtNtCs84S5s1Yb6le_12rustc_public3mir4mono11InstanceDefBM_EBS_
librustc_driver-fa31e2489381cd18.so:_RINvNtCs6e3rAaajRpB_4core9panicking13assert_failedNtNtNtCs84S5s1Yb6le_12rustc_public3mir5alloc7AllocIdBM_EBS_
librustc_driver-fa31e2489381cd18.so:_RINvNtCs6e3rAaajRpB_4core9panicking13assert_failedNtNtNtCsaqNsllmwM5m_12rustc_middle2ty3adt6AdtDefBM_ECs1yK2jRAc0XL_18rustc_monomorphize
librustc_driver-fa31e2489381cd18.so:_RINvNtCs6e3rAaajRpB_4core9panicking13assert_failedNtNtNtCsaqNsllmwM5m_12rustc_middle2ty3adt6AdtDefBM_ECs7RlYbh05zWS_16rustc_const_eval
librustc_driver-fa31e2489381cd18.so:_RINvNtCs6e3rAaajRpB_4core9panicking13assert_failedNtNtNtCsaqNsllmwM5m_12rustc_middle2ty3adt6AdtDefBM_ECsPGgg1SovgA_15rustc_mir_build
librustc_driver-fa31e2489381cd18.so:_RINvNtCs6e3rAaajRpB_4core9panicking13assert_failedNtNtNtCsaqNsllmwM5m_12rustc_middle2ty3adt6AdtDefBM_ECsirwAroatyKs_18rustc_codegen_llvm
librustc_driver-fa31e2489381cd18.so:_RINvNtCs6e3rAaajRpB_4core9panicking13assert_failedNtNtNtCsaqNsllmwM5m_12rustc_middle2ty5assoc14AssocContainerBM_ECs6qKlvMSJCFB_16rustc_hir_typeck
librustc_driver-fa31e2489381cd18.so:_RINvNtCs6e3rAaajRpB_4core9panicking13assert_failedNtNtNtCsaqNsllmwM5m_12rustc_middle2ty5assoc8AssocTagBM_ECscUPtgnKeETP_18rustc_hir_analysis
librustc_driver-fa31e2489381cd18.so:_RINvNtCs6e3rAaajRpB_4core9panicking13assert_failedNtNtNtCsaqNsllmwM5m_12rustc_middle2ty6consts5ConstBM_ECsfWGFs8tRit9_11rustc_infer
librustc_driver-fa31e2489381cd18.so:_RINvNtCs6e3rAaajRpB_4core9panicking13assert_failedNtNtNtCsaqNsllmwM5m_12rustc_middle2ty6region6RegionBM_ECsfWGFs8tRit9_11rustc_infer
librustc_driver-fa31e2489381cd18.so:_RINvNtCs6e3rAaajRpB_4core9panicking13assert_failedNtNtNtCsaqNsllmwM5m_12rustc_middle2ty8instance8InstanceBM_ECs7RlYbh05zWS_16rustc_const_eval
librustc_driver-fa31e2489381cd18.so:_RINvNtCs6e3rAaajRpB_4core9panicking13assert_failedNtNtNtCsaqNsllmwM5m_12rustc_middle3mir6syntax10BorrowKindBM_ECsl5MakceMktk_14rustc_borrowck
librustc_driver-fa31e2489381cd18.so:_RINvNtCs6e3rAaajRpB_4core9panicking13assert_failedNtNtNtCsaqNsllmwM5m_12rustc_middle3mir6syntax4UnOpBM_ECs7RlYbh05zWS_16rustc_const_eval
librustc_driver-fa31e2489381cd18.so:_RINvNtCs6e3rAaajRpB_4core9panicking13assert_failedNtNtNtCsaqNsllmwM5m_12rustc_middle3mir6syntax5PlaceBM_ECsl5MakceMktk_14rustc_borrowck
librustc_driver-fa31e2489381cd18.so:_RINvNtCs6e3rAaajRpB_4core9panicking13assert_failedNtNtNtCsaqNsllmwM5m_12rustc_middle3mir8coverage18BasicCoverageBlockBM_ECs4DnJvQYATGa_19rustc_mir_transform
librustc_driver-fa31e2489381cd18.so:_RINvNtCs6e3rAaajRpB_4core9panicking13assert_failedNtNtNtCsaqNsllmwM5m_12rustc_middle6middle17dependency_format7LinkageBM_ECs73ymBF2OK4c_14rustc_metadata
librustc_driver-fa31e2489381cd18.so:_RINvNtCs6e3rAaajRpB_4core9panicking13assert_failedNtNtNtCsaqNsllmwM5m_12rustc_middle6middle6region5ScopeBM_ECsPGgg1SovgA_15rustc_mir_build
librustc_driver-fa31e2489381cd18.so:_RINvNtCs6e3rAaajRpB_4core9panicking13assert_failedNtNtNtCsaqNsllmwM5m_12rustc_middle6middle6region9ScopeDataBM_ECsPGgg1SovgA_15rustc_mir_build
librustc_driver-fa31e2489381cd18.so:_RINvNtCs6e3rAaajRpB_4core9panicking13assert_failedNtNtNtCsaqNsllmwM5m_12rustc_middle9dep_graph10serialized22SerializedDepNodeIndexBM_EBS_
librustc_driver-fa31e2489381cd18.so:_RINvNtCs6e3rAaajRpB_4core9panicking13assert_failedNtNtNtCsaqNsllmwM5m_12rustc_middle9dep_graph5graph12DepNodeIndexBM_EBS_
librustc_driver-fa31e2489381cd18.so:_RINvNtCs6e3rAaajRpB_4core9panicking13assert_failedNtNtNtCsdeppuzfODI3_9rustc_abi6layout2ty6LayoutBM_ECs7RlYbh05zWS_16rustc_const_eval
librustc_driver-fa31e2489381cd18.so:_RINvNtCs6e3rAaajRpB_4core9panicking13assert_failedNtNtNtCsdeppuzfODI3_9rustc_abi8callconv3reg7RegKindBM_ECsirwAroatyKs_18rustc_codegen_llvm
librustc_driver-fa31e2489381cd18.so:_RINvNtCs6e3rAaajRpB_4core9panicking13assert_failedNtNtNtCsg0ydQtPiXpO_17rustc_codegen_ssa3mir5block11MergingSuccBM_ECsirwAroatyKs_18rustc_codegen_llvm
librustc_driver-fa31e2489381cd18.so:_RINvNtCs6e3rAaajRpB_4core9panicking13assert_failedNtNtNtCsg0ydQtPiXpO_17rustc_codegen_ssa4back5write15MainThreadStateBM_ECsirwAroatyKs_18rustc_codegen_llvm
librustc_driver-fa31e2489381cd18.so:_RINvNtCs6e3rAaajRpB_4core9panicking13assert_failedNtNtNtCshZ3XK54YNKv_12aho_corasick4util10primitives7StateIDBM_EBS_
librustc_driver-fa31e2489381cd18.so:_RINvNtCs6e3rAaajRpB_4core9panicking13assert_failedNtNtNtCsjcx2qvla3t1_5gimli5write4unit11UnitEntryIdBM_EBS_
librustc_driver-fa31e2489381cd18.so:_RINvNtCs6e3rAaajRpB_4core9panicking13assert_failedONtNtB4_3ffi6c_voidBM_ECs77weo57T3be_7stacker
librustc_driver-fa31e2489381cd18.so:_RINvNtCs6e3rAaajRpB_4core9panicking13assert_failedPNtNtCs59YsWYr1ntJ_12tracing_core8callsite15DefaultCallsiteOBN_EBR_
librustc_driver-fa31e2489381cd18.so:_RINvNtCs6e3rAaajRpB_4core9panicking13assert_failedPNtNtNtCsirwAroatyKs_18rustc_codegen_llvm4llvm3ffi8MetadataBM_EBT_
librustc_driver-fa31e2489381cd18.so:_RINvNtCs6e3rAaajRpB_4core9panicking13assert_failedPuBM_ECsgefw8xTDqtS_9dyn_clone
librustc_driver-fa31e2489381cd18.so:_RINvNtCs6e3rAaajRpB_4core9panicking13assert_failedRINtNtNtCsaqNsllmwM5m_12rustc_middle2ty4list7RawListuNtNtBS_12generic_args10GenericArgEBM_ECsg0ydQtPiXpO_17rustc_codegen_ssa
librustc_driver-fa31e2489381cd18.so:_RINvNtCs6e3rAaajRpB_4core9panicking13assert_failedRSNtNtNtCsaqNsllmwM5m_12rustc_middle2ty12generic_args10GenericArgRABO_j0_ECscUPtgnKeETP_18rustc_hir_analysis
librustc_driver-fa31e2489381cd18.so:_RINvNtCs6e3rAaajRpB_4core9panicking13assert_failedReBM_ECs8svpH8FC8uE_13rustc_session
librustc_driver-fa31e2489381cd18.so:_RINvNtCs6e3rAaajRpB_4core9panicking13assert_failedTINtNtB4_6result6ResultINtNtCsbByapOItfY5_13rustc_type_ir9canonical9CanonicalNtNtNtCsaqNsllmwM5m_12rustc_middle2ty7context6TyCtxtINtNtB1e_5solve8ResponseB21_EENtB2U_10NoSolutionEINtB2U_15AccessedOpaquesB21_EEBM_ECs7ZgcGxgGJUk_21rustc_trait_selection
librustc_driver-fa31e2489381cd18.so:_RINvNtCs6e3rAaajRpB_4core9panicking13assert_failedTNtCsdeppuzfODI3_9rustc_abi4SizeNtBP_5AlignEBM_ECsirwAroatyKs_18rustc_codegen_llvm
librustc_driver-fa31e2489381cd18.so:_RINvNtCs6e3rAaajRpB_4core9panicking13assert_failedTNtNtCsaqNsllmwM5m_12rustc_middle2ty2TyBN_EBM_EBR_
librustc_driver-fa31e2489381cd18.so:_RINvNtCs6e3rAaajRpB_4core9panicking13assert_failedbbECsaqNsllmwM5m_12rustc_middle
librustc_driver-fa31e2489381cd18.so:_RINvNtCs6e3rAaajRpB_4core9panicking13assert_failedccECs1qrKYkmQQe5_12regex_syntax
librustc_driver-fa31e2489381cd18.so:_RINvNtCs6e3rAaajRpB_4core9panicking13assert_failedhhECshZ3XK54YNKv_12aho_corasick
librustc_driver-fa31e2489381cd18.so:_RINvNtCs6e3rAaajRpB_4core9panicking13assert_failedjjEB4_
librustc_driver-fa31e2489381cd18.so:_RINvNtCs6e3rAaajRpB_4core9panicking13assert_failedllECskurZfFSl0zB_3std
librustc_driver-fa31e2489381cd18.so:_RINvNtCs6e3rAaajRpB_4core9panicking13assert_failedmmECskurZfFSl0zB_3std
librustc_driver-fa31e2489381cd18.so:_RINvNtCs6e3rAaajRpB_4core9panicking13assert_failedooECsaqNsllmwM5m_12rustc_middle
librustc_driver-fa31e2489381cd18.so:_RINvNtCs6e3rAaajRpB_4core9panicking13assert_failedssECskurZfFSl0zB_3std
librustc_driver-fa31e2489381cd18.so:_RINvNtCs6e3rAaajRpB_4core9panicking13assert_failedttECs5kKxLxgs1gB_14regex_automata
librustc_driver-fa31e2489381cd18.so:_RINvNtCs6e3rAaajRpB_4core9panicking13assert_failedttECshmntTYxeqYP_21rustc_data_structures
librustc_driver-fa31e2489381cd18.so:_RINvNtCs6e3rAaajRpB_4core9panicking13assert_failedyyEB4_
librustc_driver-fa31e2489381cd18.so:_RINvNtCs6e3rAaajRpB_4core9panicking21assert_matches_failedINtCsdeppuzfODI3_9rustc_abi8VariantsNtNtBX_6layout8FieldIdxNtB1w_10VariantIdxEECs7RlYbh05zWS_16rustc_const_eval
librustc_driver-fa31e2489381cd18.so:_RINvNtCs6e3rAaajRpB_4core9panicking21assert_matches_failedINtNtB4_6option6OptionINtNtCsbByapOItfY5_13rustc_type_ir17region_constraint16RegionConstraintNtNtNtCsaqNsllmwM5m_12rustc_middle2ty7context6TyCtxtEEECsfWGFs8tRit9_11rustc_infer
librustc_driver-fa31e2489381cd18.so:_RINvNtCs6e3rAaajRpB_4core9panicking21assert_matches_failedINtNtB4_6option6OptionINtNtCsbByapOItfY5_13rustc_type_ir9predicate17OutlivesPredicateNtNtNtCsaqNsllmwM5m_12rustc_middle2ty7context6TyCtxtNtNtB2l_12generic_args10GenericArgEEECsfWGFs8tRit9_11rustc_infer
librustc_driver-fa31e2489381cd18.so:_RINvNtCs6e3rAaajRpB_4core9panicking21assert_matches_failedINtNtB4_6option6OptionINtNtCsfWGFs8tRit9_11rustc_infer6traits10ObligationNtNtNtCsaqNsllmwM5m_12rustc_middle2ty9predicate9PredicateEEEB1l_
librustc_driver-fa31e2489381cd18.so:_RINvNtCs6e3rAaajRpB_4core9panicking21assert_matches_failedINtNtB4_6option6OptionINtNtNtCsaqNsllmwM5m_12rustc_middle3mir6syntax14ProjectionElemNtB1l_5LocalNtNtB1n_2ty2TyEEECsPGgg1SovgA_15rustc_mir_build
librustc_driver-fa31e2489381cd18.so:_RINvNtCs6e3rAaajRpB_4core9panicking21assert_matches_failedINtNtB4_6option6OptionNtCsbByapOItfY5_13rustc_type_ir11ClosureKindEECsaqNsllmwM5m_12rustc_middle
librustc_driver-fa31e2489381cd18.so:_RINvNtCs6e3rAaajRpB_4core9panicking21assert_matches_failedINtNtB4_6option6OptionNtNtCs3KflAWMuICG_9rustc_hir3hir13CoroutineKindEECsl5MakceMktk_14rustc_borrowck
librustc_driver-fa31e2489381cd18.so:_RINvNtCs6e3rAaajRpB_4core9panicking21assert_matches_failedINtNtB4_6option6OptionNtNtCsbByapOItfY5_13rustc_type_ir5solve9CertaintyEECs7ZgcGxgGJUk_21rustc_trait_selection
librustc_driver-fa31e2489381cd18.so:_RINvNtCs6e3rAaajRpB_4core9panicking21assert_matches_failedINtNtB4_6option6OptionNtNtCsfWGFs8tRit9_11rustc_infer5infer22TypeOutlivesConstraintEEB1k_
librustc_driver-fa31e2489381cd18.so:_RINvNtCs6e3rAaajRpB_4core9panicking21assert_matches_failedINtNtB4_6option6OptionRRNtNtNtNtCsPGgg1SovgA_15rustc_mir_build7builder7matches7user_ty20ProjectedUserTypesOpEEB1q_
librustc_driver-fa31e2489381cd18.so:_RINvNtCs6e3rAaajRpB_4core9panicking21assert_matches_failedINtNtB4_6option6OptionTNtNtCs3KflAWMuICG_9rustc_hir3def8CtorKindNtCs6ahoKXGLX5z_12rustc_hir_id5HirIdNtNtCsiP3zVQcHmFl_10rustc_span6def_id10LocalDefIdEEECscUPtgnKeETP_18rustc_hir_analysis
librustc_driver-fa31e2489381cd18.so:_RINvNtCs6e3rAaajRpB_4core9panicking21assert_matches_failedINtNtB4_6option6OptionhEECs7RlYbh05zWS_16rustc_const_eval
librustc_driver-fa31e2489381cd18.so:_RINvNtCs6e3rAaajRpB_4core9panicking21assert_matches_failedINtNtCs3KflAWMuICG_9rustc_hir3hir14OpaqueTyOriginNtNtCsiP3zVQcHmFl_10rustc_span6def_id5DefIdEECscUPtgnKeETP_18rustc_hir_analysis
librustc_driver-fa31e2489381cd18.so:_RINvNtCs6e3rAaajRpB_4core9panicking21assert_matches_failedNtCsdeppuzfODI3_9rustc_abi11BackendReprECsirwAroatyKs_18rustc_codegen_llvm
librustc_driver-fa31e2489381cd18.so:_RINvNtCs6e3rAaajRpB_4core9panicking21assert_matches_failedNtCsh8xpvZH2MPK_12rustc_errors5LevelEBW_
librustc_driver-fa31e2489381cd18.so:_RINvNtCs6e3rAaajRpB_4core9panicking21assert_matches_failedNtNtCs3KflAWMuICG_9rustc_hir3def7DefKindECsaqNsllmwM5m_12rustc_middle
librustc_driver-fa31e2489381cd18.so:_RINvNtCs6e3rAaajRpB_4core9panicking21assert_matches_failedNtNtCs3KflAWMuICG_9rustc_hir3hir11PatExprKindECs6qKlvMSJCFB_16rustc_hir_typeck
librustc_driver-fa31e2489381cd18.so:_RINvNtCs6e3rAaajRpB_4core9panicking21assert_matches_failedNtNtCs3KflAWMuICG_9rustc_hir3hir13CoroutineKindECsaqNsllmwM5m_12rustc_middle
librustc_driver-fa31e2489381cd18.so:_RINvNtCs6e3rAaajRpB_4core9panicking21assert_matches_failedNtNtCs3KflAWMuICG_9rustc_hir3hir7PatKindECsPGgg1SovgA_15rustc_mir_build
librustc_driver-fa31e2489381cd18.so:_RINvNtCs6e3rAaajRpB_4core9panicking21assert_matches_failedNtNtCs3scjADIeHPO_12rustc_target3asm22InlineAsmRegOrRegClassECsirwAroatyKs_18rustc_codegen_llvm
librustc_driver-fa31e2489381cd18.so:_RINvNtCs6e3rAaajRpB_4core9panicking21assert_matches_failedNtNtCs3scjADIeHPO_12rustc_target4spec4ArchECsirwAroatyKs_18rustc_codegen_llvm
librustc_driver-fa31e2489381cd18.so:_RINvNtCs6e3rAaajRpB_4core9panicking21assert_matches_failedNtNtCs3scjADIeHPO_12rustc_target8callconv8PassModeECsbmrvFwx9VJk_14rustc_ty_utils
librustc_driver-fa31e2489381cd18.so:_RINvNtCs6e3rAaajRpB_4core9panicking21assert_matches_failedNtNtCsaqNsllmwM5m_12rustc_middle4thir8ExprKindECsPGgg1SovgA_15rustc_mir_build
librustc_driver-fa31e2489381cd18.so:_RINvNtCs6e3rAaajRpB_4core9panicking21assert_matches_failedNtNtCscUPtgnKeETP_18rustc_hir_analysis15hir_ty_lowering15PredicateFilterEBY_
librustc_driver-fa31e2489381cd18.so:_RINvNtCs6e3rAaajRpB_4core9panicking21assert_matches_failedNtNtCsd482UFdOvTO_9rustc_ast3ast8ExprKindECsi5AUwtDDe5b_20rustc_builtin_macros
librustc_driver-fa31e2489381cd18.so:_RINvNtCs6e3rAaajRpB_4core9panicking21assert_matches_failedNtNtCsdeppuzfODI3_9rustc_abi10extern_abi15CVariadicStatusECsirwAroatyKs_18rustc_codegen_llvm
librustc_driver-fa31e2489381cd18.so:_RINvNtCs6e3rAaajRpB_4core9panicking21assert_matches_failedNtNtCsg0ydQtPiXpO_17rustc_codegen_ssa6common8TypeKindECsirwAroatyKs_18rustc_codegen_llvm
librustc_driver-fa31e2489381cd18.so:_RINvNtCs6e3rAaajRpB_4core9panicking21assert_matches_failedNtNtNtCs7RlYbh05zWS_16rustc_const_eval9interpret5place12MemPlaceMetaEB10_
librustc_driver-fa31e2489381cd18.so:_RINvNtCs6e3rAaajRpB_4core9panicking21assert_matches_failedNtNtNtCsaqNsllmwM5m_12rustc_middle2ty8instance12InstanceKindECs7RlYbh05zWS_16rustc_const_eval
librustc_driver-fa31e2489381cd18.so:_RINvNtCs6e3rAaajRpB_4core9panicking21assert_matches_failedNtNtNtCsaqNsllmwM5m_12rustc_middle3mir6syntax12UnwindActionECs8Oewc4Z7MhZ_18rustc_mir_dataflow
librustc_driver-fa31e2489381cd18.so:_RINvNtCs6e3rAaajRpB_4core9panicking21assert_matches_failedNtNtNtCsaqNsllmwM5m_12rustc_middle3mir6syntax14TerminatorKindECs4DnJvQYATGa_19rustc_mir_transform
librustc_driver-fa31e2489381cd18.so:_RINvNtCs6e3rAaajRpB_4core9panicking21assert_matches_failedNtNtNtCsaqNsllmwM5m_12rustc_middle3mir6syntax5BinOpECs7RlYbh05zWS_16rustc_const_eval
librustc_driver-fa31e2489381cd18.so:_RINvNtCs6e3rAaajRpB_4core9panicking21assert_matches_failedNtNtNtCsaqNsllmwM5m_12rustc_middle9dep_graph5graph11TaskDepsRefEB10_
librustc_driver-fa31e2489381cd18.so:_RINvNtCs6e3rAaajRpB_4core9panicking21assert_matches_failedNtNtNtCsaqNsllmwM5m_12rustc_middle9dep_graph5graph17TrySetColorResultEB10_
librustc_driver-fa31e2489381cd18.so:_RINvNtCs6e3rAaajRpB_4core9panicking21assert_matches_failedNtNtNtCsl5MakceMktk_14rustc_borrowck11diagnostics14explain_borrow12LaterUseKindEB10_
librustc_driver-fa31e2489381cd18.so:_RINvNtCs6e3rAaajRpB_4core9panicking21assert_matches_failedNtNtNtNtCsaqNsllmwM5m_12rustc_middle2ty6consts4kind8ExprKindEB12_
librustc_driver-fa31e2489381cd18.so:_RINvNtCs6e3rAaajRpB_4core9panicking21assert_matches_failedQINtNtCs8Oewc4Z7MhZ_18rustc_mir_dataflow14value_analysis5StateINtNtNtB10_9framework7lattice7FlatSetNtNtNtNtCsaqNsllmwM5m_12rustc_middle3mir9interpret5value6ScalarEEECs4DnJvQYATGa_19rustc_mir_transform
librustc_driver-fa31e2489381cd18.so:_RINvNtCs6e3rAaajRpB_4core9panicking21assert_matches_failedRINtNtCsbByapOItfY5_13rustc_type_ir7ty_kind6TyKindNtNtNtCsaqNsllmwM5m_12rustc_middle2ty7context6TyCtxtEECsfWGFs8tRit9_11rustc_infer
librustc_driver-fa31e2489381cd18.so:_RINvNtCs6e3rAaajRpB_4core9panicking21assert_matches_failedRNtNtNtCsaqNsllmwM5m_12rustc_middle3mir6syntax5BinOpECs7RlYbh05zWS_16rustc_const_eval
librustc_driver-fa31e2489381cd18.so:_RINvNtCs6e3rAaajRpB_4core9panicking21assert_matches_failedTNtNtCs3KflAWMuICG_9rustc_hir3hir7PatKindINtNtB4_6option6OptionRNtBX_7PatExprEEECsPGgg1SovgA_15rustc_mir_build
librustc_driver-fa31e2489381cd18.so:_RINvNtCshZ3XK54YNKv_12aho_corasick9automaton12try_find_fwdRNtNtB4_3dfa3DFAEB4_
librustc_driver-fa31e2489381cd18.so:_RINvNtCshZ3XK54YNKv_12aho_corasick9automaton12try_find_fwdRNtNtNtB4_3nfa10contiguous3NFAEB4_
librustc_driver-fa31e2489381cd18.so:_RINvNtCshZ3XK54YNKv_12aho_corasick9automaton12try_find_fwdRNtNtNtB4_3nfa13noncontiguous3NFAEB4_
librustc_driver-fa31e2489381cd18.so:_RINvNtCshZ3XK54YNKv_12aho_corasick9automaton24try_find_overlapping_fwdRNtNtB4_3dfa3DFAEB4_
librustc_driver-fa31e2489381cd18.so:_RINvNtCshZ3XK54YNKv_12aho_corasick9automaton24try_find_overlapping_fwdRNtNtNtB4_3nfa10contiguous3NFAEB4_
librustc_driver-fa31e2489381cd18.so:_RINvNtCshZ3XK54YNKv_12aho_corasick9automaton24try_find_overlapping_fwdRNtNtNtB4_3nfa13noncontiguous3NFAEB4_
librustc_driver-fa31e2489381cd18.so:_RINvNtCskurZfFSl0zB_3std2io24uninlined_slow_read_byteINtNtNtB2_8buffered9bufreader9BufReaderRNtNtB4_2fs4FileEECs73ymBF2OK4c_14rustc_metadata
librustc_driver-fa31e2489381cd18.so:_RINvNtCskurZfFSl0zB_3std9panicking11begin_panicNtCsh8xpvZH2MPK_12rustc_errors11ExplicitBugEBL_
librustc_driver-fa31e2489381cd18.so:_RINvNtCskurZfFSl0zB_3std9panicking11begin_panicNtCsh8xpvZH2MPK_12rustc_errors15DelayedBugPanicEBL_
librustc_driver-fa31e2489381cd18.so:_RINvNtCskurZfFSl0zB_3std9panicking11begin_panicNtNtCsgvX44DZTN43_5alloc6string6StringECsaqNsllmwM5m_12rustc_middle
librustc_driver-fa31e2489381cd18.so:_RINvNtCskurZfFSl0zB_3std9panicking11begin_panicReEB4_
librustc_driver-fa31e2489381cd18.so:_RINvNtNtCs5kKxLxgs1gB_14regex_automata3dfa6search20find_overlapping_fwdINtNtB4_5dense3DFAINtNtCsgvX44DZTN43_5alloc3vec3VecmEEEB6_
librustc_driver-fa31e2489381cd18.so:_RINvNtNtCs5kKxLxgs1gB_14regex_automata3dfa6search8find_fwdRINtNtB4_5dense3DFAINtNtCsgvX44DZTN43_5alloc3vec3VecmEEEB6_
librustc_driver-fa31e2489381cd18.so:_RINvNtNtCs5kKxLxgs1gB_14regex_automata3dfa6search8find_fwdRINtNtB4_5dense3DFARSmEECsgJW8r308luW_4bstr
librustc_driver-fa31e2489381cd18.so:_RINvNtNtCs5kKxLxgs1gB_14regex_automata3dfa6search8find_fwdRINtNtB4_6sparse3DFARShEECsgJW8r308luW_4bstr
librustc_driver-fa31e2489381cd18.so:_RINvNtNtCs5kKxLxgs1gB_14regex_automata3dfa6search8find_revINtNtB4_5dense3DFAINtNtCsgvX44DZTN43_5alloc3vec3VecmEEEB6_
librustc_driver-fa31e2489381cd18.so:_RINvNtNtCs5kKxLxgs1gB_14regex_automata3dfa6search8find_revINtNtB4_5dense3DFARSmEECsgJW8r308luW_4bstr
librustc_driver-fa31e2489381cd18.so:_RINvNtNtCs5kKxLxgs1gB_14regex_automata3dfa6search8find_revINtNtB4_6sparse3DFARShEECsgJW8r308luW_4bstr
librustc_driver-fa31e2489381cd18.so:_RINvNtNtCs5kKxLxgs1gB_14regex_automata3dfa9automaton34skip_empty_utf8_splits_overlappingNCNvYINtNtB4_5dense3DFAINtNtCsgvX44DZTN43_5alloc3vec3VecmEENtB2_9Automaton26try_search_overlapping_fwd0EB6_
librustc_driver-fa31e2489381cd18.so:_RINvNtNtCs5kKxLxgs1gB_14regex_automata4util5empty15skip_splits_fwdNtNtB4_6search9HalfMatchNCNvMs_NtNtB6_6hybrid3dfaNtB1x_3DFA14try_search_fwd0EB6_
librustc_driver-fa31e2489381cd18.so:_RINvNtNtCs5kKxLxgs1gB_14regex_automata4util5empty15skip_splits_fwdNtNtB4_6search9HalfMatchNCNvYINtNtNtB6_3dfa5dense3DFAINtNtCsgvX44DZTN43_5alloc3vec3VecmEENtNtB1A_9automaton9Automaton14try_search_fwd0EB6_
librustc_driver-fa31e2489381cd18.so:_RINvNtNtCs5kKxLxgs1gB_14regex_automata4util5empty15skip_splits_fwdNtNtB4_6search9HalfMatchNCNvYINtNtNtB6_3dfa5dense3DFARSmENtNtB1A_9automaton9Automaton14try_search_fwd0ECsgJW8r308luW_4bstr
librustc_driver-fa31e2489381cd18.so:_RINvNtNtCs5kKxLxgs1gB_14regex_automata4util5empty15skip_splits_fwdNtNtB4_6search9HalfMatchNCNvYINtNtNtB6_3dfa6sparse3DFARShENtNtB1A_9automaton9Automaton14try_search_fwd0ECsgJW8r308luW_4bstr
librustc_driver-fa31e2489381cd18.so:_RINvNtNtCs5kKxLxgs1gB_14regex_automata4util5empty15skip_splits_revNtNtB4_6search9HalfMatchNCNvMs_NtNtB6_6hybrid3dfaNtB1x_3DFA14try_search_rev0EB6_
librustc_driver-fa31e2489381cd18.so:_RINvNtNtCs5kKxLxgs1gB_14regex_automata4util5empty15skip_splits_revNtNtB4_6search9HalfMatchNCNvYINtNtNtB6_3dfa5dense3DFAINtNtCsgvX44DZTN43_5alloc3vec3VecmEENtNtB1A_9automaton9Automaton14try_search_rev0EB6_
librustc_driver-fa31e2489381cd18.so:_RINvNtNtCs5kKxLxgs1gB_14regex_automata4util5empty15skip_splits_revNtNtB4_6search9HalfMatchNCNvYINtNtNtB6_3dfa5dense3DFARSmENtNtB1A_9automaton9Automaton14try_search_rev0ECsgJW8r308luW_4bstr
librustc_driver-fa31e2489381cd18.so:_RINvNtNtCs5kKxLxgs1gB_14regex_automata4util5empty15skip_splits_revNtNtB4_6search9HalfMatchNCNvYINtNtNtB6_3dfa6sparse3DFARShENtNtB1A_9automaton9Automaton14try_search_rev0ECsgJW8r308luW_4bstr
librustc_driver-fa31e2489381cd18.so:_RINvNtNtCs5kKxLxgs1gB_14regex_automata6hybrid3dfa34skip_empty_utf8_splits_overlappingNCNvMs_B2_NtB2_3DFA26try_search_overlapping_fwd0EB6_
librustc_driver-fa31e2489381cd18.so:_RINvNtNtCs6e3rAaajRpB_4core5slice5index5rangeINtNtNtB6_3ops5range14RangeInclusivejEECsh06HsEcGiMH_11miniz_oxide
librustc_driver-fa31e2489381cd18.so:_RINvNtNtCsaqNsllmwM5m_12rustc_middle4util3bug12span_bug_fmtNtNtCsiP3zVQcHmFl_10rustc_span13span_encoding4SpanEB6_
librustc_driver-fa31e2489381cd18.so:_RINvNtNtCskurZfFSl0zB_3std3sys9backtrace26___rust_end_short_backtraceNCINvNtB6_9panicking11begin_panicNtCsh8xpvZH2MPK_12rustc_errors11ExplicitBugE0zEB1E_
librustc_driver-fa31e2489381cd18.so:_RINvNtNtCskurZfFSl0zB_3std3sys9backtrace26___rust_end_short_backtraceNCINvNtB6_9panicking11begin_panicNtCsh8xpvZH2MPK_12rustc_errors15DelayedBugPanicE0zEB1E_
librustc_driver-fa31e2489381cd18.so:_RINvNtNtCskurZfFSl0zB_3std3sys9backtrace26___rust_end_short_backtraceNCINvNtB6_9panicking11begin_panicNtNtCsgvX44DZTN43_5alloc6string6StringE0zECsaqNsllmwM5m_12rustc_middle
librustc_driver-fa31e2489381cd18.so:_RINvNtNtCskurZfFSl0zB_3std3sys9backtrace26___rust_end_short_backtraceNCINvNtB6_9panicking11begin_panicReE0zEB6_
librustc_driver-fa31e2489381cd18.so:_RINvNtNtCskurZfFSl0zB_3std3sys9backtrace28___rust_begin_short_backtraceNCINvNtNtCsg0ydQtPiXpO_17rustc_codegen_ssa4back5write10spawn_workNtCsirwAroatyKs_18rustc_codegen_llvm18LlvmCodegenBackendE0uEB2c_
librustc_driver-fa31e2489381cd18.so:_RINvNtNtCskurZfFSl0zB_3std3sys9backtrace28___rust_begin_short_backtraceNCINvNtNtCsg0ydQtPiXpO_17rustc_codegen_ssa4back5write19spawn_thin_lto_workNtCsirwAroatyKs_18rustc_codegen_llvm18LlvmCodegenBackendE0uEB2l_
librustc_driver-fa31e2489381cd18.so:_RINvNtNtCskurZfFSl0zB_3std3sys9backtrace28___rust_begin_short_backtraceNCINvNtNtCsg0ydQtPiXpO_17rustc_codegen_ssa4back5write20start_executing_workNtCsirwAroatyKs_18rustc_codegen_llvm18LlvmCodegenBackendEs1_0INtNtCs6e3rAaajRpB_4core6result6ResultINtB1c_15MaybeLtoModulesB2k_EuEEB2m_
librustc_driver-fa31e2489381cd18.so:_RINvNtNtCskurZfFSl0zB_3std3sys9backtrace28___rust_begin_short_backtraceNCINvXs6_NtNtCs9zCOSEPOh1_16rustc_proc_macro6bridge6serverNtB1g_16MaybeCrossThreadNtB1g_17ExecutionStrategy21run_bridge_and_clientNtNtCs785ZPy54HPh_12rustc_expand17proc_macro_server5RustcE0NtNtB1i_6buffer6BufferEB3h_
librustc_driver-fa31e2489381cd18.so:_RINvNtNtCskurZfFSl0zB_3std3sys9backtrace28___rust_begin_short_backtraceNCNCNCINvNtNtB6_6thread9lifecycle15spawn_uncheckedNCINvNtNtCsg0ydQtPiXpO_17rustc_codegen_ssa4back5write10spawn_workNtCsirwAroatyKs_18rustc_codegen_llvm18LlvmCodegenBackendE0uEs_000uEB30_
librustc_driver-fa31e2489381cd18.so:_RINvNtNtCskurZfFSl0zB_3std3sys9backtrace28___rust_begin_short_backtraceNCNCNCINvNtNtB6_6thread9lifecycle15spawn_uncheckedNCINvNtNtCsg0ydQtPiXpO_17rustc_codegen_ssa4back5write19spawn_thin_lto_workNtCsirwAroatyKs_18rustc_codegen_llvm18LlvmCodegenBackendE0uEs_000uEB39_
librustc_driver-fa31e2489381cd18.so:_RINvNtNtCskurZfFSl0zB_3std3sys9backtrace28___rust_begin_short_backtraceNCNCNCINvNtNtB6_6thread9lifecycle15spawn_uncheckedNCINvNtNtCsg0ydQtPiXpO_17rustc_codegen_ssa4back5write20start_executing_workNtCsirwAroatyKs_18rustc_codegen_llvm18LlvmCodegenBackendEs1_0INtNtCs6e3rAaajRpB_4core6result6ResultINtB20_15MaybeLtoModulesB38_EuEEs_000uEB3a_
librustc_driver-fa31e2489381cd18.so:_RINvNtNtCskurZfFSl0zB_3std3sys9backtrace28___rust_begin_short_backtraceNCNCNCINvNtNtB6_6thread9lifecycle15spawn_uncheckedNCINvXs6_NtNtCs9zCOSEPOh1_16rustc_proc_macro6bridge6serverNtB24_16MaybeCrossThreadNtB24_17ExecutionStrategy21run_bridge_and_clientNtNtCs785ZPy54HPh_12rustc_expand17proc_macro_server5RustcE0NtNtB26_6buffer6BufferEs_000uEB45_
librustc_driver-fa31e2489381cd18.so:_RINvNtNtNtCs6e3rAaajRpB_4core5slice4sort6stable14driftsort_mainINtCs7KwMrq602nF_8indexmap6BucketNtNtCsgvX44DZTN43_5alloc6string6StringuENCINvMNtB1A_5sliceSBZ_7sort_byNCNCNvMs4_NtB12_3mapINtB2O_8IndexMapB1w_uNtCsej5P1MWAjDV_10rustc_hash13FxBuildHasherE9sort_keys00E0INtNtB1A_3vec3VecBZ_EECslloyL1UMMzU_17rustc_incremental
librustc_driver-fa31e2489381cd18.so:_RINvNtNtNtCs6e3rAaajRpB_4core5slice4sort6stable14driftsort_mainINtNtCsbByapOItfY5_13rustc_type_ir6binder6BinderNtNtNtCsaqNsllmwM5m_12rustc_middle2ty7context6TyCtxtINtNtB14_9predicate20ExistentialPredicateB1L_EENCINvMNtCsgvX44DZTN43_5alloc5sliceSBZ_7sort_byNCNvMNtNtCs7RlYbh05zWS_16rustc_const_eval9interpret6traitsINtNtB4d_12eval_context8InterpCxNtNtNtB4f_10const_eval13dummy_machine12DummyMachineE21check_vtable_for_type0E0INtNtB3u_3vec3VecBZ_EECs4DnJvQYATGa_19rustc_mir_transform
librustc_driver-fa31e2489381cd18.so:_RINvNtNtNtCs6e3rAaajRpB_4core5slice4sort6stable14driftsort_mainINtNtCsbByapOItfY5_13rustc_type_ir6binder6BinderNtNtNtCsaqNsllmwM5m_12rustc_middle2ty7context6TyCtxtINtNtB14_9predicate20ExistentialPredicateB1L_EENCINvMNtCsgvX44DZTN43_5alloc5sliceSBZ_7sort_byNCNvMNtNtCs7RlYbh05zWS_16rustc_const_eval9interpret6traitsINtNtB4d_12eval_context8InterpCxNtNtNtB4f_10const_eval13dummy_machine12DummyMachineE21check_vtable_for_types_0E0INtNtB3u_3vec3VecBZ_EECs4DnJvQYATGa_19rustc_mir_transform
librustc_driver-fa31e2489381cd18.so:_RINvNtNtNtCs6e3rAaajRpB_4core5slice4sort6stable14driftsort_mainINtNtCsbByapOItfY5_13rustc_type_ir6binder6BinderNtNtNtCsaqNsllmwM5m_12rustc_middle2ty7context6TyCtxtINtNtB14_9predicate20ExistentialPredicateB1L_EENCINvMNtCsgvX44DZTN43_5alloc5sliceSBZ_7sort_byNCNvMNtNtCs7RlYbh05zWS_16rustc_const_eval9interpret6traitsINtNtB4d_12eval_context8InterpCxNtNtNtB4f_10const_eval7machine18CompileTimeMachineE21check_vtable_for_type0E0INtNtB3u_3vec3VecBZ_EEB4f_
librustc_driver-fa31e2489381cd18.so:_RINvNtNtNtCs6e3rAaajRpB_4core5slice4sort6stable14driftsort_mainINtNtCsbByapOItfY5_13rustc_type_ir6binder6BinderNtNtNtCsaqNsllmwM5m_12rustc_middle2ty7context6TyCtxtINtNtB14_9predicate20ExistentialPredicateB1L_EENCINvMNtCsgvX44DZTN43_5alloc5sliceSBZ_7sort_byNCNvMNtNtCs7RlYbh05zWS_16rustc_const_eval9interpret6traitsINtNtB4d_12eval_context8InterpCxNtNtNtB4f_10const_eval7machine18CompileTimeMachineE21check_vtable_for_types_0E0INtNtB3u_3vec3VecBZ_EEB4f_
librustc_driver-fa31e2489381cd18.so:_RINvNtNtNtCs6e3rAaajRpB_4core5slice4sort6stable14driftsort_mainNtCsg0ydQtPiXpO_17rustc_codegen_ssa14CompiledModuleNCINvMNtCsgvX44DZTN43_5alloc5sliceSBZ_7sort_byNCNvMs7_NtNtB11_4back5writeINtB2G_14OngoingCodegenNtCsirwAroatyKs_18rustc_codegen_llvm18LlvmCodegenBackendE4joins0_0E0INtNtB1W_3vec3VecBZ_EEB3o_
librustc_driver-fa31e2489381cd18.so:_RINvNtNtNtCs6e3rAaajRpB_4core5slice4sort6stable14driftsort_mainNtNtCs1qrKYkmQQe5_12regex_syntax3ast4SpanNvYBZ_NtNtB8_3cmp10PartialOrd2ltINtNtCsgvX44DZTN43_5alloc3vec3VecBZ_EEB13_
librustc_driver-fa31e2489381cd18.so:_RINvNtNtNtCs6e3rAaajRpB_4core5slice4sort6stable14driftsort_mainNtNtCs1qrKYkmQQe5_12regex_syntax3hir15ClassBytesRangeNvYBZ_NtNtB8_3cmp10PartialOrd2ltINtNtCsgvX44DZTN43_5alloc3vec3VecBZ_EEB13_
librustc_driver-fa31e2489381cd18.so:_RINvNtNtNtCs6e3rAaajRpB_4core5slice4sort6stable14driftsort_mainNtNtCs1qrKYkmQQe5_12regex_syntax3hir17ClassUnicodeRangeNvYBZ_NtNtB8_3cmp10PartialOrd2ltINtNtCsgvX44DZTN43_5alloc3vec3VecBZ_EEB13_
librustc_driver-fa31e2489381cd18.so:_RINvNtNtNtCs6e3rAaajRpB_4core5slice4sort6stable14driftsort_mainNtNtCs4DnJvQYATGa_19rustc_mir_transform14jump_threading10EdgeEffectNvYBZ_NtNtB8_3cmp10PartialOrd2ltINtNtCsgvX44DZTN43_5alloc3vec3VecBZ_EEB13_
librustc_driver-fa31e2489381cd18.so:_RINvNtNtNtCs6e3rAaajRpB_4core5slice4sort6stable14driftsort_mainNtNtCs8n7ZY9jl9gN_12icu_provider7request17DataIdentifierCowNvYBZ_NtNtB8_3cmp10PartialOrd2ltINtNtCsgvX44DZTN43_5alloc3vec3VecBZ_EEB13_
librustc_driver-fa31e2489381cd18.so:_RINvNtNtNtCs6e3rAaajRpB_4core5slice4sort6stable14driftsort_mainNtNtCs8svpH8FC8uE_13rustc_session10code_stats11VariantInfoNCINvMNtCsgvX44DZTN43_5alloc5sliceSBZ_11sort_by_keyINtNtB8_3cmp7ReverseyENCINvMs_B11_NtB11_9CodeStats16record_type_sizeNtNtB23_6string6StringE0E0INtNtB23_3vec3VecBZ_EECsbmrvFwx9VJk_14rustc_ty_utils
librustc_driver-fa31e2489381cd18.so:_RINvNtNtNtCs6e3rAaajRpB_4core5slice4sort6stable14driftsort_mainNtNtCs8svpH8FC8uE_13rustc_session5utils17CanonicalizedPathNvYBZ_NtNtB8_3cmp10PartialOrd2ltINtNtCsgvX44DZTN43_5alloc3vec3VecBZ_EEB13_
librustc_driver-fa31e2489381cd18.so:_RINvNtNtNtCs6e3rAaajRpB_4core5slice4sort6stable14driftsort_mainNtNtCsaqNsllmwM5m_12rustc_middle3mir5LocalNvYBZ_NtNtB8_3cmp10PartialOrd2ltINtNtCsgvX44DZTN43_5alloc3vec3VecBZ_EECsl5MakceMktk_14rustc_borrowck
librustc_driver-fa31e2489381cd18.so:_RINvNtNtNtCs6e3rAaajRpB_4core5slice4sort6stable14driftsort_mainNtNtCsaqNsllmwM5m_12rustc_middle6traits33DynCompatibilityViolationSolutionNvYBZ_NtNtB8_3cmp10PartialOrd2ltINtNtCsgvX44DZTN43_5alloc3vec3VecBZ_EECs7ZgcGxgGJUk_21rustc_trait_selection
librustc_driver-fa31e2489381cd18.so:_RINvNtNtNtCs6e3rAaajRpB_4core5slice4sort6stable14driftsort_mainNtNtCsc9RDTsdWIA2_9addr2line4line12LineSequenceNCINvMNtCsgvX44DZTN43_5alloc5sliceSBZ_11sort_by_keyyNCINvMs_B11_NtB11_5Lines5parseINtNtNtCs4chL10YB23V_5gimli4read12endian_slice11EndianSliceNtNtB3b_9endianity12LittleEndianEEs_0E0INtNtB1S_3vec3VecBZ_EECskurZfFSl0zB_3std
librustc_driver-fa31e2489381cd18.so:_RINvNtNtNtCs6e3rAaajRpB_4core5slice4sort6stable14driftsort_mainNtNtCsc9RDTsdWIA2_9addr2line4unit9UnitRangeNCINvMNtCsgvX44DZTN43_5alloc5sliceSBZ_11sort_by_keyyNCNvMs_B11_INtB11_8ResUnitsINtNtNtCs4chL10YB23V_5gimli4read12endian_slice11EndianSliceNtNtB34_9endianity12LittleEndianEE5parses2_0E0INtNtB1O_3vec3VecBZ_EECskurZfFSl0zB_3std
librustc_driver-fa31e2489381cd18.so:_RINvNtNtNtCs6e3rAaajRpB_4core5slice4sort6stable14driftsort_mainNtNtCsc9RDTsdWIA2_9addr2line8function15FunctionAddressNCINvMNtCsgvX44DZTN43_5alloc5sliceSBZ_11sort_by_keyyNCNvMs0_B11_INtB11_9FunctionsINtNtNtCs4chL10YB23V_5gimli4read12endian_slice11EndianSliceNtNtB3h_9endianity12LittleEndianEE5parses_0E0INtNtB1Z_3vec3VecBZ_EECskurZfFSl0zB_3std
librustc_driver-fa31e2489381cd18.so:_RINvNtNtNtCs6e3rAaajRpB_4core5slice4sort6stable14driftsort_mainNtNtCsc9RDTsdWIA2_9addr2line8function22InlinedFunctionAddressNCINvMNtCsgvX44DZTN43_5alloc5sliceSBZ_7sort_byNCNvMs1_B11_INtB11_8FunctionINtNtNtCs4chL10YB23V_5gimli4read12endian_slice11EndianSliceNtNtB3h_9endianity12LittleEndianEE5parse0E0INtNtB26_3vec3VecBZ_EECskurZfFSl0zB_3std
librustc_driver-fa31e2489381cd18.so:_RINvNtNtNtCs6e3rAaajRpB_4core5slice4sort6stable14driftsort_mainNtNtCsdeppuzfODI3_9rustc_abi6layout8FieldIdxNCINvMNtCsgvX44DZTN43_5alloc5sliceSBZ_11sort_by_keyTINtNtB8_3cmp7ReverseyEoyENCINvMs0_B11_INtB11_16LayoutCalculatorNtNtNtCsaqNsllmwM5m_12rustc_middle2ty7context6TyCtxtE17univariant_biasedBZ_NtB11_10VariantIdxINtNtB11_2ty11TyAndLayoutNtB3C_2TyEEs3_0E0INtNtB1P_3vec3VecBZ_EECsbmrvFwx9VJk_14rustc_ty_utils
librustc_driver-fa31e2489381cd18.so:_RINvNtNtNtCs6e3rAaajRpB_4core5slice4sort6stable14driftsort_mainNtNtCsdeppuzfODI3_9rustc_abi6layout8FieldIdxNCINvMNtCsgvX44DZTN43_5alloc5sliceSBZ_11sort_by_keyTyoENCINvMs0_B11_INtB11_16LayoutCalculatorNtNtNtCsaqNsllmwM5m_12rustc_middle2ty7context6TyCtxtE17univariant_biasedBZ_NtB11_10VariantIdxINtNtB11_2ty11TyAndLayoutNtB3g_2TyEEs4_0E0INtNtB1P_3vec3VecBZ_EECsbmrvFwx9VJk_14rustc_ty_utils
librustc_driver-fa31e2489381cd18.so:_RINvNtNtNtCs6e3rAaajRpB_4core5slice4sort6stable14driftsort_mainNtNtCsgvX44DZTN43_5alloc6string6StringNvYBZ_NtNtB8_3cmp10PartialOrd2ltINtNtB13_3vec3VecBZ_EECshmntTYxeqYP_21rustc_data_structures
librustc_driver-fa31e2489381cd18.so:_RINvNtNtNtCs6e3rAaajRpB_4core5slice4sort6stable14driftsort_mainNtNtCsiP3zVQcHmFl_10rustc_span13span_encoding4SpanNvYBZ_NtNtB8_3cmp10PartialOrd2ltINtNtCsgvX44DZTN43_5alloc3vec3VecBZ_EECserMDvxKWFUe_20rustc_error_messages
librustc_driver-fa31e2489381cd18.so:_RINvNtNtNtCs6e3rAaajRpB_4core5slice4sort6stable14driftsort_mainNtNtCsiP3zVQcHmFl_10rustc_span6symbol6SymbolNvYBZ_NtNtB8_3cmp10PartialOrd2ltINtNtCsgvX44DZTN43_5alloc3vec3VecBZ_EECs3VMMNsKb80B_13rustc_resolve
librustc_driver-fa31e2489381cd18.so:_RINvNtNtNtCs6e3rAaajRpB_4core5slice4sort6stable14driftsort_mainNtNtCsiP3zVQcHmFl_10rustc_span6symbol6SymbolNvYBZ_NtNtB8_3cmp10PartialOrd2ltINtNtCsgvX44DZTN43_5alloc3vec3VecBZ_EECscUPtgnKeETP_18rustc_hir_analysis
librustc_driver-fa31e2489381cd18.so:_RINvNtNtNtCs6e3rAaajRpB_4core5slice4sort6stable14driftsort_mainNtNtCskurZfFSl0zB_3std4path7PathBufNvYBZ_NtNtB8_3cmp10PartialOrd2ltINtNtCsgvX44DZTN43_5alloc3vec3VecBZ_EECs73ymBF2OK4c_14rustc_metadata
librustc_driver-fa31e2489381cd18.so:_RINvNtNtNtCs6e3rAaajRpB_4core5slice4sort6stable14driftsort_mainNtNtCsl5MakceMktk_14rustc_borrowck8dataflow11BorrowIndexNvYBZ_NtNtB8_3cmp10PartialOrd2ltINtNtCsgvX44DZTN43_5alloc3vec3VecBZ_EEB13_
librustc_driver-fa31e2489381cd18.so:_RINvNtNtNtCs6e3rAaajRpB_4core5slice4sort6stable14driftsort_mainNtNtNtCs1qrKYkmQQe5_12regex_syntax3hir7literal7LiteralNvYBZ_NtNtB8_3cmp10PartialOrd2ltINtNtCsgvX44DZTN43_5alloc3vec3VecBZ_EECs5kKxLxgs1gB_14regex_automata
librustc_driver-fa31e2489381cd18.so:_RINvNtNtNtCs6e3rAaajRpB_4core5slice4sort6stable14driftsort_mainNtNtNtCs3KflAWMuICG_9rustc_hir5attrs15data_structures9CrateTypeNvYBZ_NtNtB8_3cmp10PartialOrd2ltINtNtCsgvX44DZTN43_5alloc3vec3VecBZ_EECs3XAq0Kofjci_15rustc_interface
librustc_driver-fa31e2489381cd18.so:_RINvNtNtNtCs6e3rAaajRpB_4core5slice4sort6stable14driftsort_mainNtNtNtCs5kKxLxgs1gB_14regex_automata4util10primitives7StateIDNvYBZ_NtNtB8_3cmp10PartialOrd2ltINtNtCsgvX44DZTN43_5alloc3vec3VecBZ_EEB15_
librustc_driver-fa31e2489381cd18.so:_RINvNtNtNtCs6e3rAaajRpB_4core5slice4sort6stable14driftsort_mainNtNtNtCs6qKlvMSJCFB_16rustc_hir_typeck7fn_ctxt10arg_matrix11ExpectedIdxNvYBZ_NtNtB8_3cmp10PartialOrd2ltINtNtCsgvX44DZTN43_5alloc3vec3VecBZ_EEB15_
librustc_driver-fa31e2489381cd18.so:_RINvNtNtNtCs6e3rAaajRpB_4core5slice4sort6stable14driftsort_mainNtNtNtCs6qKlvMSJCFB_16rustc_hir_typeck7fn_ctxt10arg_matrix5ErrorNvYBZ_NtNtB8_3cmp10PartialOrd2ltINtNtCsgvX44DZTN43_5alloc3vec3VecBZ_EEB15_
librustc_driver-fa31e2489381cd18.so:_RINvNtNtNtCs6e3rAaajRpB_4core5slice4sort6stable14driftsort_mainNtNtNtCs8svpH8FC8uE_13rustc_session7options19mitigation_coverage23DeniedPartialMitigationNvYBZ_NtNtB8_3cmp10PartialOrd2ltINtNtCsgvX44DZTN43_5alloc3vec3VecBZ_EEB15_
librustc_driver-fa31e2489381cd18.so:_RINvNtNtNtCs6e3rAaajRpB_4core5slice4sort6stable14driftsort_mainNtNtNtCs8svpH8FC8uE_13rustc_session7options19mitigation_coverage27DeniedPartialMitigationKindNvYBZ_NtNtB8_3cmp10PartialOrd2ltINtNtCsgvX44DZTN43_5alloc3vec3VecBZ_EEB15_
librustc_driver-fa31e2489381cd18.so:_RINvNtNtNtCs6e3rAaajRpB_4core5slice4sort6stable14driftsort_mainNtNtNtCsaqNsllmwM5m_12rustc_middle3mir8coverage18BasicCoverageBlockNvYBZ_NtNtB8_3cmp10PartialOrd2ltINtNtCsgvX44DZTN43_5alloc3vec3VecBZ_EECs4DnJvQYATGa_19rustc_mir_transform
librustc_driver-fa31e2489381cd18.so:_RINvNtNtNtCs6e3rAaajRpB_4core5slice4sort6stable14driftsort_mainNtNtNtCsaqNsllmwM5m_12rustc_middle3mir9interpret7AllocIdNvYBZ_NtNtB8_3cmp10PartialOrd2ltINtNtCsgvX44DZTN43_5alloc3vec3VecBZ_EECs7RlYbh05zWS_16rustc_const_eval
librustc_driver-fa31e2489381cd18.so:_RINvNtNtNtCs6e3rAaajRpB_4core5slice4sort6stable14driftsort_mainNtNtNtCsaqNsllmwM5m_12rustc_middle6middle19debugger_visualizer22DebuggerVisualizerFileNvYBZ_NtNtB8_3cmp10PartialOrd2ltINtNtCsgvX44DZTN43_5alloc3vec3VecBZ_EECsg0ydQtPiXpO_17rustc_codegen_ssa
librustc_driver-fa31e2489381cd18.so:_RINvNtNtNtCs6e3rAaajRpB_4core5slice4sort6stable14driftsort_mainNtNtNtCshZ3XK54YNKv_12aho_corasick4util10primitives9PatternIDNvYBZ_NtNtB8_3cmp10PartialOrd2ltINtNtCsgvX44DZTN43_5alloc3vec3VecBZ_EEB15_
librustc_driver-fa31e2489381cd18.so:_RINvNtNtNtCs6e3rAaajRpB_4core5slice4sort6stable14driftsort_mainNtNtNtNtCsl5MakceMktk_14rustc_borrowck8polonius6legacy8location13LocationIndexNvYBZ_NtNtB8_3cmp10PartialOrd2ltINtNtCsgvX44DZTN43_5alloc3vec3VecBZ_EEB17_
librustc_driver-fa31e2489381cd18.so:_RINvNtNtNtCs6e3rAaajRpB_4core5slice4sort6stable14driftsort_mainRINtNtCsb0NW3Zcr2eh_22rustc_pattern_analysis3pat16DeconstructedPatNtNtB15_5rustc12RustcPatCtxtENCINvMNtCsgvX44DZTN43_5alloc5sliceSBZ_11sort_by_keyNtB13_5PatIdNCNvMNtB15_10usefulnessINtB3C_19BranchPatUsefulnessB23_E12is_redundant0E0INtNtB2E_3vec3VecBZ_EEB15_
librustc_driver-fa31e2489381cd18.so:_RINvNtNtNtCs6e3rAaajRpB_4core5slice4sort6stable14driftsort_mainRNtNtCsaqNsllmwM5m_12rustc_middle4mono11CodegenUnitNCINvMNtCsgvX44DZTN43_5alloc5sliceSBZ_11sort_by_keyINtNtB8_3cmp7ReversejENCINvNtCsg0ydQtPiXpO_17rustc_codegen_ssa4base13codegen_crateNtCsirwAroatyKs_18rustc_codegen_llvm18LlvmCodegenBackendEs_0E0INtNtB1W_3vec3VecBZ_EEB3Z_
librustc_driver-fa31e2489381cd18.so:_RINvNtNtNtCs6e3rAaajRpB_4core5slice4sort6stable14driftsort_mainRNtNtCsiP3zVQcHmFl_10rustc_span6symbol6SymbolNvYBZ_NtNtB8_3cmp10PartialOrd2ltINtNtCsgvX44DZTN43_5alloc3vec3VecBZ_EECsepwHxkHh5iF_18rustc_attr_parsing
librustc_driver-fa31e2489381cd18.so:_RINvNtNtNtCs6e3rAaajRpB_4core5slice4sort6stable14driftsort_mainRReNvYBZ_NtNtB8_3cmp10PartialOrd2ltINtNtCsgvX44DZTN43_5alloc3vec3VecBZ_EECs1ufPwUoOuD2_10rustc_lint
librustc_driver-fa31e2489381cd18.so:_RINvNtNtNtCs6e3rAaajRpB_4core5slice4sort6stable14driftsort_mainRTNtNtNtNtCsl5MakceMktk_14rustc_borrowck8polonius6legacy5facts17PoloniusRegionVidB11_ENvYBZ_NtNtB8_3cmp10PartialOrd2ltINtNtCsgvX44DZTN43_5alloc3vec3VecBZ_EEB19_
librustc_driver-fa31e2489381cd18.so:_RINvNtNtNtCs6e3rAaajRpB_4core5slice4sort6stable14driftsort_mainReNvYBZ_NtNtB8_3cmp10PartialOrd2ltINtNtCsgvX44DZTN43_5alloc3vec3VecBZ_EECsaqNsllmwM5m_12rustc_middle
librustc_driver-fa31e2489381cd18.so:_RINvNtNtNtCs6e3rAaajRpB_4core5slice4sort6stable14driftsort_mainTNtNtCs4chL10YB23V_5gimli6common15DebugInfoOffsetNtB12_18DebugArangesOffsetENCINvMNtCsgvX44DZTN43_5alloc5sliceSBZ_11sort_by_keyB10_NCNvMs_NtCsc9RDTsdWIA2_9addr2line4unitINtB3d_8ResUnitsINtNtNtB14_4read12endian_slice11EndianSliceNtNtB14_9endianity12LittleEndianEE5parse0E0INtNtB2l_3vec3VecBZ_EECskurZfFSl0zB_3std
librustc_driver-fa31e2489381cd18.so:_RINvNtNtNtCs6e3rAaajRpB_4core5slice4sort6stable14driftsort_mainTNtNtCs8Oewc4Z7MhZ_18rustc_mir_dataflow10move_paths13MovePathIndexB10_ENvYBZ_NtNtB8_3cmp10PartialOrd2ltINtNtCsgvX44DZTN43_5alloc3vec3VecBZ_EECsl5MakceMktk_14rustc_borrowck
librustc_driver-fa31e2489381cd18.so:_RINvNtNtNtCs6e3rAaajRpB_4core5slice4sort6stable14driftsort_mainTNtNtCs8Oewc4Z7MhZ_18rustc_mir_dataflow10move_paths13MovePathIndexNtNtCsaqNsllmwM5m_12rustc_middle3mir5LocalENvYBZ_NtNtB8_3cmp10PartialOrd2ltINtNtCsgvX44DZTN43_5alloc3vec3VecBZ_EECsl5MakceMktk_14rustc_borrowck
librustc_driver-fa31e2489381cd18.so:_RINvNtNtNtCs6e3rAaajRpB_4core5slice4sort6stable14driftsort_mainTNtNtCs8Oewc4Z7MhZ_18rustc_mir_dataflow10move_paths13MovePathIndexNtNtNtNtCsl5MakceMktk_14rustc_borrowck8polonius6legacy8location13LocationIndexENvYBZ_NtNtB8_3cmp10PartialOrd2ltINtNtCsgvX44DZTN43_5alloc3vec3VecBZ_EEB2b_
librustc_driver-fa31e2489381cd18.so:_RINvNtNtNtCs6e3rAaajRpB_4core5slice4sort6stable14driftsort_mainTNtNtCs8svpH8FC8uE_13rustc_session6config10OutputTypeINtNtB8_6option6OptionNtB12_11OutFileNameEENCINvMNtCsgvX44DZTN43_5alloc5sliceSBZ_7sort_byNCINvXs1o_NtNtNtB2F_11collections5btree3mapINtB3r_8BTreeMapB10_B1Q_EINtNtNtNtB8_4iter6traits7collect12FromIteratorBZ_E9from_iterINtNtNtB4u_8adapters3map3MapINtNtNtB8_3ops5range5RangejENCNvXsI_NtCs6ERRjo1sNLQ_15rustc_serialize9serializeB3Y_INtB6n_9DecodableNtNtB6p_6opaque10MemDecoderE6decode0EE0E0INtNtB2F_3vec3VecBZ_EECsg0ydQtPiXpO_17rustc_codegen_ssa
librustc_driver-fa31e2489381cd18.so:_RINvNtNtNtCs6e3rAaajRpB_4core5slice4sort6stable14driftsort_mainTNtNtCsaqNsllmwM5m_12rustc_middle3mir5LocalNtNtNtNtCsl5MakceMktk_14rustc_borrowck8polonius6legacy5facts17PoloniusRegionVidENvYBZ_NtNtB8_3cmp10PartialOrd2ltINtNtCsgvX44DZTN43_5alloc3vec3VecBZ_EEB1O_
librustc_driver-fa31e2489381cd18.so:_RINvNtNtNtCs6e3rAaajRpB_4core5slice4sort6stable14driftsort_mainTNtNtCsaqNsllmwM5m_12rustc_middle3mir5LocalNtNtNtNtCsl5MakceMktk_14rustc_borrowck8polonius6legacy8location13LocationIndexENvYBZ_NtNtB8_3cmp10PartialOrd2ltINtNtCsgvX44DZTN43_5alloc3vec3VecBZ_EEB1O_
librustc_driver-fa31e2489381cd18.so:_RINvNtNtNtCs6e3rAaajRpB_4core5slice4sort6stable14driftsort_mainTNtNtCsbByapOItfY5_13rustc_type_ir7ty_kind5TyVidB10_ENCINvMNtCsgvX44DZTN43_5alloc5sliceSBZ_11sort_by_keyBZ_NCNvMNtNtCshmntTYxeqYP_21rustc_data_structures5graph9vec_graphINtB2N_8VecGraphB10_Kb1_E3news0_0E0INtNtB1Y_3vec3VecBZ_EECs6qKlvMSJCFB_16rustc_hir_typeck
librustc_driver-fa31e2489381cd18.so:_RINvNtNtNtCs6e3rAaajRpB_4core5slice4sort6stable14driftsort_mainTNtNtCsbByapOItfY5_13rustc_type_ir7ty_kind5TyVidB10_ENvYBZ_NtNtB8_3cmp10PartialOrd2ltINtNtCsgvX44DZTN43_5alloc3vec3VecBZ_EECs6qKlvMSJCFB_16rustc_hir_typeck
librustc_driver-fa31e2489381cd18.so:_RINvNtNtNtCs6e3rAaajRpB_4core5slice4sort6stable14driftsort_mainTNtNtCsd482UFdOvTO_9rustc_ast3ast12ParamKindOrdNtNtNtCsaqNsllmwM5m_12rustc_middle2ty8generics15GenericParamDefENCINvMNtCsgvX44DZTN43_5alloc5sliceSBZ_11sort_by_keyB10_NCINvNtNtCscUPtgnKeETP_18rustc_hir_analysis15hir_ty_lowering8generics18lower_generic_argsNtNCNvMs2_B3M_DNtB3M_12HirTyLowererEL_26lower_generic_args_of_path015GenericArgsCtxtEs2_0E0INtNtB2U_3vec3VecBZ_EEB3O_
librustc_driver-fa31e2489381cd18.so:_RINvNtNtNtCs6e3rAaajRpB_4core5slice4sort6stable14driftsort_mainTNtNtCsd482UFdOvTO_9rustc_ast3ast12ParamKindOrdNtNtNtCsaqNsllmwM5m_12rustc_middle2ty8generics15GenericParamDefENCINvMNtCsgvX44DZTN43_5alloc5sliceSBZ_11sort_by_keyB10_NCINvNtNtCscUPtgnKeETP_18rustc_hir_analysis15hir_ty_lowering8generics18lower_generic_argsNtNvMNtNtCs6qKlvMSJCFB_16rustc_hir_typeck7fn_ctxt5__implNtB5d_6FnCtxt22instantiate_value_path19CtorGenericArgsCtxtEs2_0E0INtNtB2U_3vec3VecBZ_EEB5f_
librustc_driver-fa31e2489381cd18.so:_RINvNtNtNtCs6e3rAaajRpB_4core5slice4sort6stable14driftsort_mainTNtNtCsd482UFdOvTO_9rustc_ast3ast12ParamKindOrdNtNtNtCsaqNsllmwM5m_12rustc_middle2ty8generics15GenericParamDefENCINvMNtCsgvX44DZTN43_5alloc5sliceSBZ_11sort_by_keyB10_NCINvNtNtCscUPtgnKeETP_18rustc_hir_analysis15hir_ty_lowering8generics18lower_generic_argsNtNvMs0_NtNtCs6qKlvMSJCFB_16rustc_hir_typeck6method7confirmNtB5e_14ConfirmContext23instantiate_method_args15GenericArgsCtxtEs2_0E0INtNtB2U_3vec3VecBZ_EEB5i_
librustc_driver-fa31e2489381cd18.so:_RINvNtNtNtCs6e3rAaajRpB_4core5slice4sort6stable14driftsort_mainTNtNtCsgvX44DZTN43_5alloc6string6StringB10_ENvYBZ_NtNtB8_3cmp10PartialOrd2ltINtNtB14_3vec3VecBZ_EECs3VMMNsKb80B_13rustc_resolve
librustc_driver-fa31e2489381cd18.so:_RINvNtNtNtCs6e3rAaajRpB_4core5slice4sort6stable14driftsort_mainTNtNtCsgvX44DZTN43_5alloc6string6StringNtNtCscaGRdyUT7Hw_10serde_json5value5ValueENCINvMNtB14_5sliceSBZ_7sort_byNCINvXs1o_NtNtNtB14_11collections5btree3mapINtB2X_8BTreeMapB10_B1C_EINtNtNtNtB8_4iter6traits7collect12FromIteratorBZ_E9from_iterINtNtNtB8_5array4iter8IntoIterBZ_Kj1_EE0E0INtNtB14_3vec3VecBZ_EECs3scjADIeHPO_12rustc_target
librustc_driver-fa31e2489381cd18.so:_RINvNtNtNtCs6e3rAaajRpB_4core5slice4sort6stable14driftsort_mainTNtNtCsgvX44DZTN43_5alloc6string6StringNtNtCscaGRdyUT7Hw_10serde_json5value5ValueENCINvMNtB14_5sliceSBZ_7sort_byNCINvXs1o_NtNtNtB14_11collections5btree3mapINtB2X_8BTreeMapB10_B1C_EINtNtNtNtB8_4iter6traits7collect12FromIteratorBZ_E9from_iterINtNtNtB8_5array4iter8IntoIterBZ_Kj2_EE0E0INtNtB14_3vec3VecBZ_EECs3scjADIeHPO_12rustc_target
librustc_driver-fa31e2489381cd18.so:_RINvNtNtNtCs6e3rAaajRpB_4core5slice4sort6stable14driftsort_mainTNtNtCsgvX44DZTN43_5alloc6string6StringNtNtCsiP3zVQcHmFl_10rustc_span13span_encoding4SpanNtNtB1G_6symbol6SymbolENvYBZ_NtNtB8_3cmp10PartialOrd2ltINtNtB14_3vec3VecBZ_EECs6qKlvMSJCFB_16rustc_hir_typeck
librustc_driver-fa31e2489381cd18.so:_RINvNtNtNtCs6e3rAaajRpB_4core5slice4sort6stable14driftsort_mainTNtNtCsiP3zVQcHmFl_10rustc_span13span_encoding4SpanbENvYBZ_NtNtB8_3cmp10PartialOrd2ltINtNtCsgvX44DZTN43_5alloc3vec3VecBZ_EECs3VMMNsKb80B_13rustc_resolve
librustc_driver-fa31e2489381cd18.so:_RINvNtNtNtCs6e3rAaajRpB_4core5slice4sort6stable14driftsort_mainTNtNtCsl5MakceMktk_14rustc_borrowck11constraints18ConstraintSccIndexB10_ENvYBZ_NtNtB8_3cmp10PartialOrd2ltINtNtCsgvX44DZTN43_5alloc3vec3VecBZ_EEB14_
librustc_driver-fa31e2489381cd18.so:_RINvNtNtNtCs6e3rAaajRpB_4core5slice4sort6stable14driftsort_mainTNtNtCsl5MakceMktk_14rustc_borrowck11constraints18ConstraintSccIndexNtNtCsbByapOItfY5_13rustc_type_ir11region_kind9RegionVidENvYBZ_NtNtB8_3cmp10PartialOrd2ltINtNtCsgvX44DZTN43_5alloc3vec3VecBZ_EEB14_
librustc_driver-fa31e2489381cd18.so:_RINvNtNtNtCs6e3rAaajRpB_4core5slice4sort6stable14driftsort_mainTNtNtCsl5MakceMktk_14rustc_borrowck8dataflow11BorrowIndexNtNtNtNtB14_8polonius6legacy5facts17PoloniusRegionVidENvYBZ_NtNtB8_3cmp10PartialOrd2ltINtNtCsgvX44DZTN43_5alloc3vec3VecBZ_EEB14_
librustc_driver-fa31e2489381cd18.so:_RINvNtNtNtCs6e3rAaajRpB_4core5slice4sort6stable14driftsort_mainTNtNtCsl5MakceMktk_14rustc_borrowck8dataflow11BorrowIndexNtNtNtNtB14_8polonius6legacy8location13LocationIndexENvYBZ_NtNtB8_3cmp10PartialOrd2ltINtNtCsgvX44DZTN43_5alloc3vec3VecBZ_EEB14_
librustc_driver-fa31e2489381cd18.so:_RINvNtNtNtCs6e3rAaajRpB_4core5slice4sort6stable14driftsort_mainTNtNtNtCsPGgg1SovgA_15rustc_mir_build7builder5scope7DropIdxNtNtCsaqNsllmwM5m_12rustc_middle3mir10BasicBlockENvYBZ_NtNtB8_3cmp10PartialOrd2ltINtNtCsgvX44DZTN43_5alloc3vec3VecBZ_EEB16_
librustc_driver-fa31e2489381cd18.so:_RINvNtNtNtCs6e3rAaajRpB_4core5slice4sort6stable14driftsort_mainTNtNtNtNtCsfWGFs8tRit9_11rustc_infer5infer18region_constraints10leak_check13LeakCheckNodeB10_ENvYBZ_NtNtB8_3cmp10PartialOrd2ltINtNtCsgvX44DZTN43_5alloc3vec3VecBZ_EEB18_
librustc_driver-fa31e2489381cd18.so:_RINvNtNtNtCs6e3rAaajRpB_4core5slice4sort6stable14driftsort_mainTNtNtNtNtCsl5MakceMktk_14rustc_borrowck8polonius6legacy5facts17PoloniusRegionVidB10_ENvYBZ_NtNtB8_3cmp10PartialOrd2ltINtNtCsgvX44DZTN43_5alloc3vec3VecBZ_EEB18_
librustc_driver-fa31e2489381cd18.so:_RINvNtNtNtCs6e3rAaajRpB_4core5slice4sort6stable14driftsort_mainTNtNtNtNtCsl5MakceMktk_14rustc_borrowck8polonius6legacy5facts17PoloniusRegionVidB10_NtNtB14_8location13LocationIndexENvYBZ_NtNtB8_3cmp10PartialOrd2ltINtNtCsgvX44DZTN43_5alloc3vec3VecBZ_EEB18_
librustc_driver-fa31e2489381cd18.so:_RINvNtNtNtCs6e3rAaajRpB_4core5slice4sort6stable14driftsort_mainTNtNtNtNtCsl5MakceMktk_14rustc_borrowck8polonius6legacy5facts17PoloniusRegionVidNtNtB14_8location13LocationIndexENvYBZ_NtNtB8_3cmp10PartialOrd2ltINtNtCsgvX44DZTN43_5alloc3vec3VecBZ_EEB18_
librustc_driver-fa31e2489381cd18.so:_RINvNtNtNtCs6e3rAaajRpB_4core5slice4sort6stable14driftsort_mainTNtNtNtNtCsl5MakceMktk_14rustc_borrowck8polonius6legacy5facts17PoloniusRegionVidNtNtB18_8dataflow11BorrowIndexENvYBZ_NtNtB8_3cmp10PartialOrd2ltINtNtCsgvX44DZTN43_5alloc3vec3VecBZ_EEB18_
librustc_driver-fa31e2489381cd18.so:_RINvNtNtNtCs6e3rAaajRpB_4core5slice4sort6stable14driftsort_mainTNtNtNtNtCsl5MakceMktk_14rustc_borrowck8polonius6legacy5facts17PoloniusRegionVidNtNtB18_8dataflow11BorrowIndexNtNtB14_8location13LocationIndexENvYBZ_NtNtB8_3cmp10PartialOrd2ltINtNtCsgvX44DZTN43_5alloc3vec3VecBZ_EEB18_
librustc_driver-fa31e2489381cd18.so:_RINvNtNtNtCs6e3rAaajRpB_4core5slice4sort6stable14driftsort_mainTNtNtNtNtCsl5MakceMktk_14rustc_borrowck8polonius6legacy5facts17PoloniusRegionViduENvYBZ_NtNtB8_3cmp10PartialOrd2ltINtNtCsgvX44DZTN43_5alloc3vec3VecBZ_EEB18_
librustc_driver-fa31e2489381cd18.so:_RINvNtNtNtCs6e3rAaajRpB_4core5slice4sort6stable14driftsort_mainTNtNtNtNtCsl5MakceMktk_14rustc_borrowck8polonius6legacy8location13LocationIndexB10_ENvYBZ_NtNtB8_3cmp10PartialOrd2ltINtNtCsgvX44DZTN43_5alloc3vec3VecBZ_EEB18_
librustc_driver-fa31e2489381cd18.so:_RINvNtNtNtCs6e3rAaajRpB_4core5slice4sort6stable14driftsort_mainTReB10_ENvYBZ_NtNtB8_3cmp10PartialOrd2ltINtNtCsgvX44DZTN43_5alloc3vec3VecBZ_EECsirwAroatyKs_18rustc_codegen_llvm
librustc_driver-fa31e2489381cd18.so:_RINvNtNtNtCs6e3rAaajRpB_4core5slice4sort6stable14driftsort_mainTTNtNtCsaqNsllmwM5m_12rustc_middle3mir5LocalNtNtNtNtCsl5MakceMktk_14rustc_borrowck8polonius6legacy8location13LocationIndexEuENvYBZ_NtNtB8_3cmp10PartialOrd2ltINtNtCsgvX44DZTN43_5alloc3vec3VecBZ_EEB1P_
librustc_driver-fa31e2489381cd18.so:_RINvNtNtNtCs6e3rAaajRpB_4core5slice4sort6stable14driftsort_mainTTNtNtCsl5MakceMktk_14rustc_borrowck8dataflow11BorrowIndexNtNtNtNtB15_8polonius6legacy8location13LocationIndexEuENvYBZ_NtNtB8_3cmp10PartialOrd2ltINtNtCsgvX44DZTN43_5alloc3vec3VecBZ_EEB15_
librustc_driver-fa31e2489381cd18.so:_RINvNtNtNtCs6e3rAaajRpB_4core5slice4sort6stable14driftsort_mainTTNtNtNtNtCsl5MakceMktk_14rustc_borrowck8polonius6legacy5facts17PoloniusRegionVidNtNtB15_8location13LocationIndexB2i_EB11_ENvYBZ_NtNtB8_3cmp10PartialOrd2ltINtNtCsgvX44DZTN43_5alloc3vec3VecBZ_EEB19_
librustc_driver-fa31e2489381cd18.so:_RINvNtNtNtCs6e3rAaajRpB_4core5slice4sort6stable14driftsort_mainTTNtNtNtNtCsl5MakceMktk_14rustc_borrowck8polonius6legacy5facts17PoloniusRegionVidNtNtB15_8location13LocationIndexB2i_ENtNtB19_8dataflow11BorrowIndexENvYBZ_NtNtB8_3cmp10PartialOrd2ltINtNtCsgvX44DZTN43_5alloc3vec3VecBZ_EEB19_
librustc_driver-fa31e2489381cd18.so:_RINvNtNtNtCs6e3rAaajRpB_4core5slice4sort6stable14driftsort_mainTTNtNtNtNtCsl5MakceMktk_14rustc_borrowck8polonius6legacy5facts17PoloniusRegionVidNtNtB15_8location13LocationIndexEB10_ENvYBZ_NtNtB8_3cmp10PartialOrd2ltINtNtCsgvX44DZTN43_5alloc3vec3VecBZ_EEB19_
librustc_driver-fa31e2489381cd18.so:_RINvNtNtNtCs6e3rAaajRpB_4core5slice4sort6stable14driftsort_mainTTNtNtNtNtCsl5MakceMktk_14rustc_borrowck8polonius6legacy5facts17PoloniusRegionVidNtNtB15_8location13LocationIndexEB11_ENvYBZ_NtNtB8_3cmp10PartialOrd2ltINtNtCsgvX44DZTN43_5alloc3vec3VecBZ_EEB19_
librustc_driver-fa31e2489381cd18.so:_RINvNtNtNtCs6e3rAaajRpB_4core5slice4sort6stable14driftsort_mainTTNtNtNtNtCsl5MakceMktk_14rustc_borrowck8polonius6legacy5facts17PoloniusRegionVidNtNtB15_8location13LocationIndexEB2i_ENvYBZ_NtNtB8_3cmp10PartialOrd2ltINtNtCsgvX44DZTN43_5alloc3vec3VecBZ_EEB19_
librustc_driver-fa31e2489381cd18.so:_RINvNtNtNtCs6e3rAaajRpB_4core5slice4sort6stable14driftsort_mainTTNtNtNtNtCsl5MakceMktk_14rustc_borrowck8polonius6legacy5facts17PoloniusRegionVidNtNtB15_8location13LocationIndexENtNtB19_8dataflow11BorrowIndexENvYBZ_NtNtB8_3cmp10PartialOrd2ltINtNtCsgvX44DZTN43_5alloc3vec3VecBZ_EEB19_
librustc_driver-fa31e2489381cd18.so:_RINvNtNtNtCs6e3rAaajRpB_4core5slice4sort6stable14driftsort_mainTTNtNtNtNtCsl5MakceMktk_14rustc_borrowck8polonius6legacy5facts17PoloniusRegionVidNtNtB15_8location13LocationIndexEuENvYBZ_NtNtB8_3cmp10PartialOrd2ltINtNtCsgvX44DZTN43_5alloc3vec3VecBZ_EEB19_
librustc_driver-fa31e2489381cd18.so:_RINvNtNtNtCs6e3rAaajRpB_4core5slice4sort6stable14driftsort_mainThcENCINvMNtCsgvX44DZTN43_5alloc5sliceSBZ_11sort_by_keyhNCNvMs_NtCsdH0g1nDL3hE_21unicode_normalization9decomposeINtB20_14DecompositionsINtNtNtNtB8_4iter8adapters7flatten7FlatMapIB2O_NtNtNtB8_3str4iter5CharsEINtNtCs1i6tFYPlPio_16unicode_security20confusable_detection10OnceOrMorecINtNtB3f_6cloned6ClonedINtNtB6_4iter4ItercEEENvB4n_14char_prototypeEE12sort_pending0E0INtNtB1b_3vec3VecBZ_EECs1ufPwUoOuD2_10rustc_lint
librustc_driver-fa31e2489381cd18.so:_RINvNtNtNtCs6e3rAaajRpB_4core5slice4sort6stable14driftsort_mainThcENCINvMNtCsgvX44DZTN43_5alloc5sliceSBZ_11sort_by_keyhNCNvMs_NtCsdH0g1nDL3hE_21unicode_normalization9decomposeINtB20_14DecompositionsNtNtNtB8_3str4iter5CharsE12sort_pending0E0INtNtB1b_3vec3VecBZ_EECsgfasDSBi4N4_11rustc_parse
librustc_driver-fa31e2489381cd18.so:_RINvNtNtNtCs6e3rAaajRpB_4core5slice4sort6stable14driftsort_mainTooENvYBZ_NtNtB8_3cmp10PartialOrd2ltINtNtCsgvX44DZTN43_5alloc3vec3VecBZ_EECsbmrvFwx9VJk_14rustc_ty_utils
librustc_driver-fa31e2489381cd18.so:_RINvNtNtNtCs6e3rAaajRpB_4core5slice4sort6stable14driftsort_mainjNvYjNtNtB8_3cmp10PartialOrd2ltINtNtCsgvX44DZTN43_5alloc3vec3VecjEECs6qKlvMSJCFB_16rustc_hir_typeck
librustc_driver-fa31e2489381cd18.so:_RINvNtNtNtCs6e3rAaajRpB_4core5slice4sort6stable14driftsort_mainjNvYjNtNtB8_3cmp10PartialOrd2ltINtNtCsgvX44DZTN43_5alloc3vec3VecjEECsi5AUwtDDe5b_20rustc_builtin_macros
librustc_driver-fa31e2489381cd18.so:_RINvNtNtNtCs6e3rAaajRpB_4core5slice4sort6stable14driftsort_mainjNvYjNtNtB8_3cmp10PartialOrd2ltINtNtCsgvX44DZTN43_5alloc3vec3VecjEECsl5MakceMktk_14rustc_borrowck
librustc_driver-fa31e2489381cd18.so:_RINvNtNtNtCs6e3rAaajRpB_4core5slice4sort6stable14driftsort_mainmNCINvMNtCsgvX44DZTN43_5alloc5sliceSm11sort_by_keyRINtNtB8_6option6OptionNtNtCsiP3zVQcHmFl_10rustc_span6symbol6SymbolENCINvXs2_NtNtCshmntTYxeqYP_21rustc_data_structures10sorted_map9index_mapINtB32_19SortedIndexMultiMapmB1O_NtNtNtCsaqNsllmwM5m_12rustc_middle2ty5assoc9AssocItemEINtNtNtNtB8_4iter6traits7collect12FromIteratorTB1O_B4A_EE9from_iterINtNtNtB5z_8adapters3map3MapINtNtNtB18_3vec9into_iter8IntoIterB4A_ENCINvMs2_B4C_NtB4C_10AssocItems3newINtB74_3VecB4A_EE0EE0E0IB8c_mEECsbmrvFwx9VJk_14rustc_ty_utils
librustc_driver-fa31e2489381cd18.so:_RINvNtNtNtCs6e3rAaajRpB_4core5slice4sort6stable14driftsort_mainnNvYnNtNtB8_3cmp10PartialOrd2ltINtNtCsgvX44DZTN43_5alloc3vec3VecnEECsbmrvFwx9VJk_14rustc_ty_utils
librustc_driver-fa31e2489381cd18.so:_RINvNtNtNtCs6e3rAaajRpB_4core5slice4sort8unstable7ipnsortNtCsh8xpvZH2MPK_12rustc_errors16SubstitutionPartNCINvMB6_SBT_20sort_unstable_by_keyNtNtCsiP3zVQcHmFl_10rustc_span13span_encoding4SpanNCNCINvMsh_NtBV_10diagnosticNtB3d_4Diag21multipart_suggestionsINtNtCsgvX44DZTN43_5alloc6borrow3CoweEINtNtB47_3vec3VecIB4F_TB2e_NtNtB47_6string6StringEEEE0s_0E0ECs7ZgcGxgGJUk_21rustc_trait_selection
librustc_driver-fa31e2489381cd18.so:_RINvNtNtNtCs6e3rAaajRpB_4core5slice4sort8unstable7ipnsortNtCsh8xpvZH2MPK_12rustc_errors16SubstitutionPartNCINvMB6_SBT_20sort_unstable_by_keyNtNtCsiP3zVQcHmFl_10rustc_span13span_encoding4SpanNCNCINvMsh_NtBV_10diagnosticNtB3d_4Diag21multipart_suggestionsNtCserMDvxKWFUe_20rustc_error_messages11DiagMessageINtNtNtNtB8_4iter8adapters3map3MapINtNtNtCsgvX44DZTN43_5alloc3vec9into_iter8IntoIterNtNtB5w_6string6StringENCINvXs8_NtCs7ZgcGxgGJUk_21rustc_trait_selection6errorsNtB6J_23SuggestTuplePatternManyNtB3d_13Subdiagnostic11add_to_diagNtB2i_15ErrorGuaranteedE0EE0s_0E0EB6L_
librustc_driver-fa31e2489381cd18.so:_RINvNtNtNtCs6e3rAaajRpB_4core5slice4sort8unstable7ipnsortNtCsh8xpvZH2MPK_12rustc_errors16SubstitutionPartNCINvMB6_SBT_20sort_unstable_by_keyNtNtCsiP3zVQcHmFl_10rustc_span13span_encoding4SpanNCNCINvMsh_NtBV_10diagnosticNtB3d_4Diag21multipart_suggestionsNtNtCsgvX44DZTN43_5alloc6string6StringINtNtB46_3vec3VecIB4F_TB2e_B42_EEEE0s_0E0ECs6qKlvMSJCFB_16rustc_hir_typeck
librustc_driver-fa31e2489381cd18.so:_RINvNtNtNtCs6e3rAaajRpB_4core5slice4sort8unstable7ipnsortNtCsh8xpvZH2MPK_12rustc_errors16SubstitutionPartNCINvMB6_SBT_20sort_unstable_by_keyNtNtCsiP3zVQcHmFl_10rustc_span13span_encoding4SpanNCNCINvMsh_NtBV_10diagnosticNtB3d_4Diag21multipart_suggestionsReINtNtCsgvX44DZTN43_5alloc3vec3VecIB45_TB2e_NtNtB49_6string6StringEEEE0s_0E0ECs7ZgcGxgGJUk_21rustc_trait_selection
librustc_driver-fa31e2489381cd18.so:_RINvNtNtNtCs6e3rAaajRpB_4core5slice4sort8unstable7ipnsortNtCsiP3zVQcHmFl_10rustc_span18StableSourceFileIdNvYBT_NtNtB8_3cmp10PartialOrd2ltECsaqNsllmwM5m_12rustc_middle
librustc_driver-fa31e2489381cd18.so:_RINvNtNtNtCs6e3rAaajRpB_4core5slice4sort8unstable7ipnsortNtNtCsaqNsllmwM5m_12rustc_middle4mono8MonoItemNCINvMB6_SBT_20sort_unstable_by_keyNtNtCshmntTYxeqYP_21rustc_data_structures11fingerprint11FingerprintNCINvNtB2g_5unord13to_sorted_vecNtNtBX_3ich15StableHashStateBT_BT_INtNtNtNtCskurZfFSl0zB_3std11collections4hash3set8IntoIterBT_EEs_0E0ECs1yK2jRAc0XL_18rustc_monomorphize
librustc_driver-fa31e2489381cd18.so:_RINvNtNtNtCs6e3rAaajRpB_4core5slice4sort8unstable7ipnsortNtNtCscUPtgnKeETP_18rustc_hir_analysis26constrained_generic_params9ParameterNvYBT_NtNtB8_3cmp10PartialOrd2ltEBX_
librustc_driver-fa31e2489381cd18.so:_RINvNtNtNtCs6e3rAaajRpB_4core5slice4sort8unstable7ipnsortNtNtCsgvX44DZTN43_5alloc6string6StringNCINvMB6_SBT_16sort_unstable_byNvYBT_NtNtCshmntTYxeqYP_21rustc_data_structures11stable_hash13StableCompare10stable_cmpE0ECs6qKlvMSJCFB_16rustc_hir_typeck
librustc_driver-fa31e2489381cd18.so:_RINvNtNtNtCs6e3rAaajRpB_4core5slice4sort8unstable7ipnsortNtNtCsgvX44DZTN43_5alloc6string6StringNvYBT_NtNtB8_3cmp10PartialOrd2ltECs8svpH8FC8uE_13rustc_session
librustc_driver-fa31e2489381cd18.so:_RINvNtNtNtCs6e3rAaajRpB_4core5slice4sort8unstable7ipnsortNtNtCsiP3zVQcHmFl_10rustc_span13span_encoding4SpanNvYBT_NtNtB8_3cmp10PartialOrd2ltECs1ufPwUoOuD2_10rustc_lint
librustc_driver-fa31e2489381cd18.so:_RINvNtNtNtCs6e3rAaajRpB_4core5slice4sort8unstable7ipnsortNtNtCsiP3zVQcHmFl_10rustc_span6symbol6SymbolNCINvMB6_SBT_16sort_unstable_byNCINvMs2_NtCshmntTYxeqYP_21rustc_data_structures5unordINtB2f_10UnordItemsBT_INtNtNtNtB8_4iter8adapters6copied6CopiedINtNtNtNtCskurZfFSl0zB_3std11collections4hash3map4KeysBT_TNtNtNtCsaqNsllmwM5m_12rustc_middle6middle12lib_features16FeatureStabilityNtNtBX_13span_encoding4SpanEEEE25collect_stable_ord_by_keyBT_INtNtCsgvX44DZTN43_5alloc3vec3VecBT_ENCNvB2b_22into_sorted_stable_ord0Es_0E0ECserPFC4ou40o_12rustc_passes
librustc_driver-fa31e2489381cd18.so:_RINvNtNtNtCs6e3rAaajRpB_4core5slice4sort8unstable7ipnsortNtNtCsiP3zVQcHmFl_10rustc_span6symbol6SymbolNvYBT_NtNtB8_3cmp10PartialOrd2ltECs6qKlvMSJCFB_16rustc_hir_typeck
librustc_driver-fa31e2489381cd18.so:_RINvNtNtNtCs6e3rAaajRpB_4core5slice4sort8unstable7ipnsortNtNtNtCscUPtgnKeETP_18rustc_hir_analysis9coherence22inherent_impls_overlap8RegionIdNvYBT_NtNtB8_3cmp10PartialOrd2ltEBZ_
librustc_driver-fa31e2489381cd18.so:_RINvNtNtNtCs6e3rAaajRpB_4core5slice4sort8unstable7ipnsortNtNtNtCslRYU1Av45hL_16unic_langid_impl7subtags7variant7VariantNvYBT_NtNtB8_3cmp10PartialOrd2ltEBZ_
librustc_driver-fa31e2489381cd18.so:_RINvNtNtNtCs6e3rAaajRpB_4core5slice4sort8unstable7ipnsortRNtCs6ahoKXGLX5z_12rustc_hir_id11ItemLocalIdNCINvMB6_SBT_16sort_unstable_byNCNvMs5_NtCshmntTYxeqYP_21rustc_data_structures5unordINtB2e_8UnordSetBU_E20to_sorted_stable_ord0E0ECs6qKlvMSJCFB_16rustc_hir_typeck
librustc_driver-fa31e2489381cd18.so:_RINvNtNtNtCs6e3rAaajRpB_4core5slice4sort8unstable7ipnsortRNtNtCsgvX44DZTN43_5alloc6string6StringNCINvMB6_SBT_16sort_unstable_byNCINvMs2_NtCshmntTYxeqYP_21rustc_data_structures5unordINtB2a_10UnordItemsBT_INtNtNtNtCskurZfFSl0zB_3std11collections4hash3map4KeysBU_TBU_NtNtCsiP3zVQcHmFl_10rustc_span13span_encoding4SpanNtNtCsg0ydQtPiXpO_17rustc_codegen_ssa21assert_module_sources8CguReuseNtB54_14ComparisonKindEEE25collect_stable_ord_by_keyBT_INtNtBY_3vec3VecBT_ENCNvB26_22into_sorted_stable_ord0Es_0E0EB56_
librustc_driver-fa31e2489381cd18.so:_RINvNtNtNtCs6e3rAaajRpB_4core5slice4sort8unstable7ipnsortRNtNtCsgvX44DZTN43_5alloc6string6StringNCINvMB6_SBT_16sort_unstable_byNCINvMs2_NtCshmntTYxeqYP_21rustc_data_structures5unordINtB2a_10UnordItemsBT_INtNtNtNtCskurZfFSl0zB_3std11collections4hash3set4IterBU_EE25collect_stable_ord_by_keyBT_INtNtBY_3vec3VecBT_ENCNvB26_22into_sorted_stable_ord0Es_0E0ECslloyL1UMMzU_17rustc_incremental
librustc_driver-fa31e2489381cd18.so:_RINvNtNtNtCs6e3rAaajRpB_4core5slice4sort8unstable7ipnsortRReNCINvMB6_SBT_16sort_unstable_byNCNvMs5_NtCshmntTYxeqYP_21rustc_data_structures5unordINtB1z_8UnordSetBU_E20to_sorted_stable_ord0E0ECsirwAroatyKs_18rustc_codegen_llvm
librustc_driver-fa31e2489381cd18.so:_RINvNtNtNtCs6e3rAaajRpB_4core5slice4sort8unstable7ipnsortReNCINvMB6_SBT_16sort_unstable_byNvYBT_NtNtCshmntTYxeqYP_21rustc_data_structures11stable_hash13StableCompare10stable_cmpE0ECs6qKlvMSJCFB_16rustc_hir_typeck
librustc_driver-fa31e2489381cd18.so:_RINvNtNtNtCs6e3rAaajRpB_4core5slice4sort8unstable7ipnsortReNvYBT_NtNtB8_3cmp10PartialOrd2ltECsiP3zVQcHmFl_10rustc_span
librustc_driver-fa31e2489381cd18.so:_RINvNtNtNtCs6e3rAaajRpB_4core5slice4sort8unstable7ipnsortTNtCs6ahoKXGLX5z_12rustc_hir_id11ItemLocalIdRINtNtCsbByapOItfY5_13rustc_type_ir7ty_kind5FnSigNtNtNtCsaqNsllmwM5m_12rustc_middle2ty7context6TyCtxtEENCINvMB6_SBT_16sort_unstable_byNCINvMs2_NtCshmntTYxeqYP_21rustc_data_structures5unordINtB3U_10UnordItemsBT_INtNtNtNtB8_4iter8adapters3map3MapINtNtNtNtCskurZfFSl0zB_3std11collections4hash3map4IterBU_B1C_ENCNvMs_NtB2s_14typeck_resultsINtB6E_19LocalTableInContextB1C_E21items_in_stable_order0EE25collect_stable_ord_by_keyBU_INtNtCsgvX44DZTN43_5alloc3vec3VecBT_ENCB6z_s_0Es_0E0ECs6qKlvMSJCFB_16rustc_hir_typeck
librustc_driver-fa31e2489381cd18.so:_RINvNtNtNtCs6e3rAaajRpB_4core5slice4sort8unstable7ipnsortTNtCs6ahoKXGLX5z_12rustc_hir_id11ItemLocalIdRINtNtCsbByapOItfY5_13rustc_type_ir9canonical9CanonicalNtNtNtCsaqNsllmwM5m_12rustc_middle2ty7context6TyCtxtNtNtB2y_14typeck_results8UserTypeEENCINvMB6_SBT_16sort_unstable_byNCINvMs2_NtCshmntTYxeqYP_21rustc_data_structures5unordINtB4x_10UnordItemsBT_INtNtNtNtB8_4iter8adapters3map3MapINtNtNtNtCskurZfFSl0zB_3std11collections4hash3map4IterBU_B1C_ENCNvMs_B3m_INtB3m_19LocalTableInContextB1C_E21items_in_stable_order0EE25collect_stable_ord_by_keyBU_INtNtCsgvX44DZTN43_5alloc3vec3VecBT_ENCB7c_s_0Es_0E0ECs6qKlvMSJCFB_16rustc_hir_typeck
librustc_driver-fa31e2489381cd18.so:_RINvNtNtNtCs6e3rAaajRpB_4core5slice4sort8unstable7ipnsortTNtCs6ahoKXGLX5z_12rustc_hir_id11ItemLocalIdRINtNtCsgvX44DZTN43_5alloc3vec3VecNtNtCsaqNsllmwM5m_12rustc_middle2ty2TyEENCINvMB6_SBT_16sort_unstable_byNCINvMs2_NtCshmntTYxeqYP_21rustc_data_structures5unordINtB3r_10UnordItemsBT_INtNtNtNtB8_4iter8adapters3map3MapINtNtNtNtCskurZfFSl0zB_3std11collections4hash3map4IterBU_B1C_ENCNvMs_NtB2b_14typeck_resultsINtB6b_19LocalTableInContextB1C_E21items_in_stable_order0EE25collect_stable_ord_by_keyBU_IB1D_BT_ENCB66_s_0Es_0E0ECs6qKlvMSJCFB_16rustc_hir_typeck
librustc_driver-fa31e2489381cd18.so:_RINvNtNtNtCs6e3rAaajRpB_4core5slice4sort8unstable7ipnsortTNtCs6ahoKXGLX5z_12rustc_hir_id11ItemLocalIdRINtNtCsgvX44DZTN43_5alloc3vec3VecTNtNtCsaqNsllmwM5m_12rustc_middle2ty2TyNtNtCsdeppuzfODI3_9rustc_abi6layout10VariantIdxNtB2O_8FieldIdxEEENCINvMB6_SBT_16sort_unstable_byNCINvMs2_NtCshmntTYxeqYP_21rustc_data_structures5unordINtB4t_10UnordItemsBT_INtNtNtNtB8_4iter8adapters3map3MapINtNtNtNtCskurZfFSl0zB_3std11collections4hash3map4IterBU_B1C_ENCNvMs_NtB2c_14typeck_resultsINtB7d_19LocalTableInContextB1C_E21items_in_stable_order0EE25collect_stable_ord_by_keyBU_IB1D_BT_ENCB78_s_0Es_0E0ECs6qKlvMSJCFB_16rustc_hir_typeck
librustc_driver-fa31e2489381cd18.so:_RINvNtNtNtCs6e3rAaajRpB_4core5slice4sort8unstable7ipnsortTNtCs6ahoKXGLX5z_12rustc_hir_id11ItemLocalIdRTNtNtCsiP3zVQcHmFl_10rustc_span13span_encoding4SpanNtNtNtCsaqNsllmwM5m_12rustc_middle3hir5place5PlaceEENCINvMB6_SBT_16sort_unstable_byNCINvMs2_NtCshmntTYxeqYP_21rustc_data_structures5unordINtB3V_10UnordItemsBT_INtNtNtNtB8_4iter8adapters3map3MapINtNtNtNtCskurZfFSl0zB_3std11collections4hash3map4IterBU_B1C_ENCNvMs_NtNtB2x_2ty14typeck_resultsINtB6F_19LocalTableInContextB1C_E21items_in_stable_order0EE25collect_stable_ord_by_keyBU_INtNtCsgvX44DZTN43_5alloc3vec3VecBT_ENCB6A_s_0Es_0E0ECs6qKlvMSJCFB_16rustc_hir_typeck
librustc_driver-fa31e2489381cd18.so:_RINvNtNtNtCs6e3rAaajRpB_4core5slice4sort8unstable7ipnsortTNtNtCsaqNsllmwM5m_12rustc_middle2ty10SymbolNamejENvYBT_NtNtB8_3cmp10PartialOrd2ltEBY_
librustc_driver-fa31e2489381cd18.so:_RINvNtNtNtCs6e3rAaajRpB_4core5slice4sort8unstable7ipnsortTNtNtCsb0NW3Zcr2eh_22rustc_pattern_analysis11constructor16MaybeInfiniteIntiENvYBT_NtNtB8_3cmp10PartialOrd2ltEBY_
librustc_driver-fa31e2489381cd18.so:_RINvNtNtNtCs6e3rAaajRpB_4core5slice4sort8unstable7ipnsortTNtNtCsgvX44DZTN43_5alloc6string6StringINtNtB8_6option6OptionBU_EENvYBT_NtNtB8_3cmp10PartialOrd2ltECs3XAq0Kofjci_15rustc_interface
librustc_driver-fa31e2489381cd18.so:_RINvNtNtNtCs6e3rAaajRpB_4core5slice4sort8unstable7ipnsortTNtNtCsgvX44DZTN43_5alloc6string6StringjENvYBT_NtNtB8_3cmp10PartialOrd2ltECsaqNsllmwM5m_12rustc_middle
librustc_driver-fa31e2489381cd18.so:_RINvNtNtNtCs6e3rAaajRpB_4core5slice4sort8unstable7ipnsortTNtNtCsgvX44DZTN43_5alloc6string6StringjENvYBT_NtNtB8_3cmp10PartialOrd2ltECsgfasDSBi4N4_11rustc_parse
librustc_driver-fa31e2489381cd18.so:_RINvNtNtNtCs6e3rAaajRpB_4core5slice4sort8unstable7ipnsortTNtNtCshmntTYxeqYP_21rustc_data_structures11fingerprint11FingerprintjENvYBT_NtNtB8_3cmp10PartialOrd2ltECs1yK2jRAc0XL_18rustc_monomorphize
librustc_driver-fa31e2489381cd18.so:_RINvNtNtNtCs6e3rAaajRpB_4core5slice4sort8unstable7ipnsortTNtNtCsiP3zVQcHmFl_10rustc_span6def_id11DefPathHashjENvYBT_NtNtB8_3cmp10PartialOrd2ltECs3VMMNsKb80B_13rustc_resolve
librustc_driver-fa31e2489381cd18.so:_RINvNtNtNtCs6e3rAaajRpB_4core5slice4sort8unstable7ipnsortTNtNtCsiP3zVQcHmFl_10rustc_span6def_id11DefPathHashjENvYBT_NtNtB8_3cmp10PartialOrd2ltECs6qKlvMSJCFB_16rustc_hir_typeck
librustc_driver-fa31e2489381cd18.so:_RINvNtNtNtCs6e3rAaajRpB_4core5slice4sort8unstable7ipnsortTNtNtCsiP3zVQcHmFl_10rustc_span6def_id11DefPathHashjENvYBT_NtNtB8_3cmp10PartialOrd2ltECsg0ydQtPiXpO_17rustc_codegen_ssa
librustc_driver-fa31e2489381cd18.so:_RINvNtNtNtCs6e3rAaajRpB_4core5slice4sort8unstable7ipnsortTNtNvMs2_NtCsaqNsllmwM5m_12rustc_middle4monoNtB12_11CodegenUnit28items_in_deterministic_order11ItemSortKeyjENvYBT_NtNtB8_3cmp10PartialOrd2ltEB14_
librustc_driver-fa31e2489381cd18.so:_RINvNtNtNtCs6e3rAaajRpB_4core5slice4sort8unstable7ipnsortTRNtNtCsgvX44DZTN43_5alloc6string6StringBU_ENCINvMB6_SBT_16sort_unstable_byNCINvMs2_NtCshmntTYxeqYP_21rustc_data_structures5unordINtB2f_10UnordItemsBT_INtNtNtNtCskurZfFSl0zB_3std11collections4hash3map4IterBV_BV_EE25collect_stable_ord_by_keyBT_INtNtBZ_3vec3VecBT_ENCNvB2b_22into_sorted_stable_ord0Es_0E0ECslloyL1UMMzU_17rustc_incremental
librustc_driver-fa31e2489381cd18.so:_RINvNtNtNtCs6e3rAaajRpB_4core5slice4sort8unstable7ipnsortTRNtNtCsgvX44DZTN43_5alloc6string6StringRINtNtB8_6option6OptionBV_EENCINvMB6_SBT_16sort_unstable_byNCINvMs2_NtCshmntTYxeqYP_21rustc_data_structures5unordINtB2D_10UnordItemsBT_INtNtNtNtCskurZfFSl0zB_3std11collections4hash3map4IterBV_B1y_EE25collect_stable_ord_by_keyBT_INtNtBZ_3vec3VecBT_ENCNvB2z_22into_sorted_stable_ord0Es_0E0ECslloyL1UMMzU_17rustc_incremental
librustc_driver-fa31e2489381cd18.so:_RINvNtNtNtCs6e3rAaajRpB_4core5slice4sort8unstable7ipnsortTRNtNtCsiP3zVQcHmFl_10rustc_span6def_id10LocalDefIdRINtNtCs7KwMrq602nF_8indexmap3map8IndexMapNtCs6ahoKXGLX5z_12rustc_hir_id5HirIdINtNtCsgvX44DZTN43_5alloc3vec3VecNtNtNtCsaqNsllmwM5m_12rustc_middle2ty7closure13CapturedPlaceENtCsej5P1MWAjDV_10rustc_hash13FxBuildHasherEENCINvMB6_SBT_20sort_unstable_by_keyNtBX_11DefPathHashNCINvNtCshmntTYxeqYP_21rustc_data_structures5unord13to_sorted_vecNtNtB3B_3ich15StableHashStateBT_BV_INtNtNtNtCskurZfFSl0zB_3std11collections4hash3map4IterBV_B1J_EEs_0E0ECs6qKlvMSJCFB_16rustc_hir_typeck
librustc_driver-fa31e2489381cd18.so:_RINvNtNtNtCs6e3rAaajRpB_4core5slice4sort8unstable7ipnsortTRNtNtCsiP3zVQcHmFl_10rustc_span6def_id10LocalDefIdRINtNtCsgvX44DZTN43_5alloc3vec3VecTNtNtNtCsaqNsllmwM5m_12rustc_middle3hir5place5PlaceNtNtNtB2n_3mir6syntax13FakeReadCauseNtCs6ahoKXGLX5z_12rustc_hir_id5HirIdEEENCINvMB6_SBT_20sort_unstable_by_keyNtBX_11DefPathHashNCINvNtCshmntTYxeqYP_21rustc_data_structures5unord13to_sorted_vecNtNtB2n_3ich15StableHashStateBT_BV_INtNtNtNtCskurZfFSl0zB_3std11collections4hash3map4IterBV_B1J_EEs_0E0ECs6qKlvMSJCFB_16rustc_hir_typeck
librustc_driver-fa31e2489381cd18.so:_RINvNtNtNtCs6e3rAaajRpB_4core5slice4sort8unstable7ipnsortTRNtNtCsiP3zVQcHmFl_10rustc_span6def_id10LocalDefIdRNtNtCsaqNsllmwM5m_12rustc_middle2ty22ClosureSizeProfileDataENCINvMB6_SBT_20sort_unstable_by_keyNtBX_11DefPathHashNCINvNtCshmntTYxeqYP_21rustc_data_structures5unord13to_sorted_vecNtNtB1N_3ich15StableHashStateBT_BV_INtNtNtNtCskurZfFSl0zB_3std11collections4hash3map4IterBV_B1J_EEs_0E0ECs6qKlvMSJCFB_16rustc_hir_typeck
librustc_driver-fa31e2489381cd18.so:_RINvNtNtNtCs6e3rAaajRpB_4core5slice4sort8unstable7ipnsortTRNtNtCsiP3zVQcHmFl_10rustc_span6def_id5DefIdRINtNtCsgvX44DZTN43_5alloc3vec3VecTNtNtBZ_13span_encoding4SpanINtNtB8_6result6ResultuNtBZ_15ErrorGuaranteedEEEENCINvMB6_SBT_20sort_unstable_by_keyNtBX_11DefPathHashNCINvNtCshmntTYxeqYP_21rustc_data_structures5unord13to_sorted_vecNtNtCsaqNsllmwM5m_12rustc_middle3ich15StableHashStateBT_BV_INtNtNtNtCskurZfFSl0zB_3std11collections4hash3map4IterBV_B1D_EEs_0E0ECs3VMMNsKb80B_13rustc_resolve
librustc_driver-fa31e2489381cd18.so:_RINvNtNtNtCs6e3rAaajRpB_4core5slice4sort8unstable7ipnsortTRNtNtCsiP3zVQcHmFl_10rustc_span6def_id5DefIdRNtNtNtCsaqNsllmwM5m_12rustc_middle6middle16exported_symbols16SymbolExportInfoENCINvMB6_SBT_20sort_unstable_by_keyNtBX_11DefPathHashNCINvNtCshmntTYxeqYP_21rustc_data_structures5unord13to_sorted_vecNtNtB1J_3ich15StableHashStateBT_BV_INtNtNtNtCskurZfFSl0zB_3std11collections4hash3map4IterBV_B1D_EEs_0E0ECsg0ydQtPiXpO_17rustc_codegen_ssa
librustc_driver-fa31e2489381cd18.so:_RINvNtNtNtCs6e3rAaajRpB_4core5slice4sort8unstable7ipnsortTRNtNtCsiP3zVQcHmFl_10rustc_span6symbol6SymbolBU_ENCINvMB6_SBT_16sort_unstable_byNCNvMsh_NtCshmntTYxeqYP_21rustc_data_structures5unordINtB2k_8UnordMapBV_BV_E20to_sorted_stable_ord0E0ECs73ymBF2OK4c_14rustc_metadata
librustc_driver-fa31e2489381cd18.so:_RINvNtNtNtCs6e3rAaajRpB_4core5slice4sort8unstable7ipnsortTRNtNtCsiP3zVQcHmFl_10rustc_span6symbol6SymbolBU_ENCINvMB6_SBT_16sort_unstable_byNCNvMsh_NtCshmntTYxeqYP_21rustc_data_structures5unordINtB2k_8UnordMapBV_BV_E20to_sorted_stable_ord0E0ECserPFC4ou40o_12rustc_passes
librustc_driver-fa31e2489381cd18.so:_RINvNtNtNtCs6e3rAaajRpB_4core5slice4sort8unstable7ipnsortTRNtNtCsiP3zVQcHmFl_10rustc_span6symbol6SymbolRTNtNtNtCsaqNsllmwM5m_12rustc_middle6middle12lib_features16FeatureStabilityNtNtBZ_13span_encoding4SpanEENCINvMB6_SBT_16sort_unstable_byNCNvMsh_NtCshmntTYxeqYP_21rustc_data_structures5unordINtB3W_8UnordMapBV_B1E_E20to_sorted_stable_ord0E0EB1L_
librustc_driver-fa31e2489381cd18.so:_RINvNtNtNtCs6e3rAaajRpB_4core5slice4sort8unstable7ipnsortTRNtNtNtCsaqNsllmwM5m_12rustc_middle9dep_graph8dep_node13WorkProductIdRNtNtBZ_5graph11WorkProductENCINvMB6_SBT_16sort_unstable_byNCNvMsh_NtCshmntTYxeqYP_21rustc_data_structures5unordINtB36_8UnordMapBV_B22_E20to_sorted_stable_ord0E0ECslloyL1UMMzU_17rustc_incremental
librustc_driver-fa31e2489381cd18.so:_RINvNtNtNtCs6e3rAaajRpB_4core5slice4sort8unstable7ipnsortTRejENvYBT_NtNtB8_3cmp10PartialOrd2ltECsirwAroatyKs_18rustc_codegen_llvm
librustc_driver-fa31e2489381cd18.so:_RINvNtNtNtCs6e3rAaajRpB_4core5slice4sort8unstable7ipnsortTTNtCskk5ZUZA4NPw_15rustc_lint_defs5LevelReEjENvYBT_NtNtB8_3cmp10PartialOrd2ltECsjrSxtWsCjho_17rustc_driver_impl
librustc_driver-fa31e2489381cd18.so:_RINvNtNtNtCs6e3rAaajRpB_4core5slice4sort8unstable7ipnsortTTNtNtCsgvX44DZTN43_5alloc6string6StringmmEjENvYBT_NtNtB8_3cmp10PartialOrd2ltECs7ZgcGxgGJUk_21rustc_trait_selection
librustc_driver-fa31e2489381cd18.so:_RINvNtNtNtCs6e3rAaajRpB_4core5slice4sort8unstable7ipnsortTTjNtNtCsgvX44DZTN43_5alloc6string6StringEjENvYBT_NtNtB8_3cmp10PartialOrd2ltECs3VMMNsKb80B_13rustc_resolve
librustc_driver-fa31e2489381cd18.so:_RINvNtNtNtCs6e3rAaajRpB_4core5slice4sort8unstable7ipnsortTTjRReEjENvYBT_NtNtB8_3cmp10PartialOrd2ltECserPFC4ou40o_12rustc_passes
librustc_driver-fa31e2489381cd18.so:_RINvNtNtNtCs6e3rAaajRpB_4core5slice4sort8unstable7ipnsortTTlINtNtB8_6option6OptionNtNtCsgvX44DZTN43_5alloc6string6StringEEjENvYBT_NtNtB8_3cmp10PartialOrd2ltECs6qKlvMSJCFB_16rustc_hir_typeck
librustc_driver-fa31e2489381cd18.so:_RINvNtNtNtCs6e3rAaajRpB_4core5slice4sort8unstable7ipnsortTbjENvYBT_NtNtB8_3cmp10PartialOrd2ltECscUPtgnKeETP_18rustc_hir_analysis
librustc_driver-fa31e2489381cd18.so:_RINvNtNtNtCs6e3rAaajRpB_4core5slice4sort8unstable7ipnsortTbmENvYBT_NtNtB8_3cmp10PartialOrd2ltECscUPtgnKeETP_18rustc_hir_analysis
librustc_driver-fa31e2489381cd18.so:_RINvNtNtNtCs6e3rAaajRpB_4core5slice4sort8unstable7ipnsortTjjjRNtNtCsiP3zVQcHmFl_10rustc_span6symbol6SymbolNtNtB12_7hygiene9MacroKindENvYBT_NtNtB8_3cmp10PartialOrd2ltECs3XAq0Kofjci_15rustc_interface
librustc_driver-fa31e2489381cd18.so:_RINvNtNtNtCs6e3rAaajRpB_4core5slice4sort8unstable7ipnsortcNvYcNtNtB8_3cmp10PartialOrd2ltECs1ufPwUoOuD2_10rustc_lint
librustc_driver-fa31e2489381cd18.so:_RINvNtNtNtCsgvX44DZTN43_5alloc11collections5btree4node12slice_insertINtNtNtCs6e3rAaajRpB_4core3ptr8non_null7NonNullINtB2_8LeafNodeyNtNtNtCs4chL10YB23V_5gimli4read6abbrev12AbbreviationEEEB2b_
librustc_driver-fa31e2489381cd18.so:_RINvNtNtNtCsgvX44DZTN43_5alloc11collections5btree4node12slice_insertNtNtNtCs4chL10YB23V_5gimli4read6abbrev12AbbreviationEB1a_
librustc_driver-fa31e2489381cd18.so:_RINvNtNtNtCsgvX44DZTN43_5alloc11collections5btree4node12slice_insertyECs4chL10YB23V_5gimli
librustc_driver-fa31e2489381cd18.so:_RINvNtNtNtCsgvX44DZTN43_5alloc11collections5btree4node13move_to_sliceINtNtNtCs6e3rAaajRpB_4core3ptr8non_null7NonNullINtB2_8LeafNodeyNtNtNtCs4chL10YB23V_5gimli4read6abbrev12AbbreviationEEEB2c_
librustc_driver-fa31e2489381cd18.so:_RINvNtNtNtCsgvX44DZTN43_5alloc11collections5btree4node13move_to_sliceNtNtNtCs4chL10YB23V_5gimli4read6abbrev12AbbreviationEB1b_
librustc_driver-fa31e2489381cd18.so:_RINvNtNtNtCsgvX44DZTN43_5alloc11collections5btree4node13move_to_sliceyECs4chL10YB23V_5gimli
librustc_driver-fa31e2489381cd18.so:_RINvNtNtNtNtCs6e3rAaajRpB_4core5slice4sort6stable9quicksort9quicksortINtCs7KwMrq602nF_8indexmap6BucketNtNtCsgvX44DZTN43_5alloc6string6StringuENCINvMNtB1G_5sliceSB15_7sort_byNCNCNvMs4_NtB18_3mapINtB2V_8IndexMapB1C_uNtCsej5P1MWAjDV_10rustc_hash13FxBuildHasherE9sort_keys00E0ECslloyL1UMMzU_17rustc_incremental
librustc_driver-fa31e2489381cd18.so:_RINvNtNtNtNtCs6e3rAaajRpB_4core5slice4sort6stable9quicksort9quicksortINtNtCsbByapOItfY5_13rustc_type_ir6binder6BinderNtNtNtCsaqNsllmwM5m_12rustc_middle2ty7context6TyCtxtINtNtB1a_9predicate20ExistentialPredicateB1R_EENCINvMNtCsgvX44DZTN43_5alloc5sliceSB15_7sort_byNCNvMNtNtCs7RlYbh05zWS_16rustc_const_eval9interpret6traitsINtNtB4k_12eval_context8InterpCxNtNtNtB4m_10const_eval13dummy_machine12DummyMachineE21check_vtable_for_type0E0ECs4DnJvQYATGa_19rustc_mir_transform
librustc_driver-fa31e2489381cd18.so:_RINvNtNtNtNtCs6e3rAaajRpB_4core5slice4sort6stable9quicksort9quicksortINtNtCsbByapOItfY5_13rustc_type_ir6binder6BinderNtNtNtCsaqNsllmwM5m_12rustc_middle2ty7context6TyCtxtINtNtB1a_9predicate20ExistentialPredicateB1R_EENCINvMNtCsgvX44DZTN43_5alloc5sliceSB15_7sort_byNCNvMNtNtCs7RlYbh05zWS_16rustc_const_eval9interpret6traitsINtNtB4k_12eval_context8InterpCxNtNtNtB4m_10const_eval13dummy_machine12DummyMachineE21check_vtable_for_types_0E0ECs4DnJvQYATGa_19rustc_mir_transform
librustc_driver-fa31e2489381cd18.so:_RINvNtNtNtNtCs6e3rAaajRpB_4core5slice4sort6stable9quicksort9quicksortINtNtCsbByapOItfY5_13rustc_type_ir6binder6BinderNtNtNtCsaqNsllmwM5m_12rustc_middle2ty7context6TyCtxtINtNtB1a_9predicate20ExistentialPredicateB1R_EENCINvMNtCsgvX44DZTN43_5alloc5sliceSB15_7sort_byNCNvMNtNtCs7RlYbh05zWS_16rustc_const_eval9interpret6traitsINtNtB4k_12eval_context8InterpCxNtNtNtB4m_10const_eval7machine18CompileTimeMachineE21check_vtable_for_type0E0EB4m_
librustc_driver-fa31e2489381cd18.so:_RINvNtNtNtNtCs6e3rAaajRpB_4core5slice4sort6stable9quicksort9quicksortINtNtCsbByapOItfY5_13rustc_type_ir6binder6BinderNtNtNtCsaqNsllmwM5m_12rustc_middle2ty7context6TyCtxtINtNtB1a_9predicate20ExistentialPredicateB1R_EENCINvMNtCsgvX44DZTN43_5alloc5sliceSB15_7sort_byNCNvMNtNtCs7RlYbh05zWS_16rustc_const_eval9interpret6traitsINtNtB4k_12eval_context8InterpCxNtNtNtB4m_10const_eval7machine18CompileTimeMachineE21check_vtable_for_types_0E0EB4m_
librustc_driver-fa31e2489381cd18.so:_RINvNtNtNtNtCs6e3rAaajRpB_4core5slice4sort6stable9quicksort9quicksortNtCsg0ydQtPiXpO_17rustc_codegen_ssa14CompiledModuleNCINvMNtCsgvX44DZTN43_5alloc5sliceSB15_7sort_byNCNvMs7_NtNtB17_4back5writeINtB2N_14OngoingCodegenNtCsirwAroatyKs_18rustc_codegen_llvm18LlvmCodegenBackendE4joins0_0E0EB3v_
librustc_driver-fa31e2489381cd18.so:_RINvNtNtNtNtCs6e3rAaajRpB_4core5slice4sort6stable9quicksort9quicksortNtNtCs1qrKYkmQQe5_12regex_syntax3ast4SpanNvYB15_NtNtBa_3cmp10PartialOrd2ltEB19_
librustc_driver-fa31e2489381cd18.so:_RINvNtNtNtNtCs6e3rAaajRpB_4core5slice4sort6stable9quicksort9quicksortNtNtCs1qrKYkmQQe5_12regex_syntax3hir15ClassBytesRangeNvYB15_NtNtBa_3cmp10PartialOrd2ltEB19_
librustc_driver-fa31e2489381cd18.so:_RINvNtNtNtNtCs6e3rAaajRpB_4core5slice4sort6stable9quicksort9quicksortNtNtCs1qrKYkmQQe5_12regex_syntax3hir17ClassUnicodeRangeNvYB15_NtNtBa_3cmp10PartialOrd2ltEB19_
librustc_driver-fa31e2489381cd18.so:_RINvNtNtNtNtCs6e3rAaajRpB_4core5slice4sort6stable9quicksort9quicksortNtNtCs4DnJvQYATGa_19rustc_mir_transform14jump_threading10EdgeEffectNvYB15_NtNtBa_3cmp10PartialOrd2ltEB19_
librustc_driver-fa31e2489381cd18.so:_RINvNtNtNtNtCs6e3rAaajRpB_4core5slice4sort6stable9quicksort9quicksortNtNtCs8n7ZY9jl9gN_12icu_provider7request17DataIdentifierCowNvYB15_NtNtBa_3cmp10PartialOrd2ltEB19_
librustc_driver-fa31e2489381cd18.so:_RINvNtNtNtNtCs6e3rAaajRpB_4core5slice4sort6stable9quicksort9quicksortNtNtCs8svpH8FC8uE_13rustc_session10code_stats11VariantInfoNCINvMNtCsgvX44DZTN43_5alloc5sliceSB15_11sort_by_keyINtNtBa_3cmp7ReverseyENCINvMs_B17_NtB17_9CodeStats16record_type_sizeNtNtB29_6string6StringE0E0ECsbmrvFwx9VJk_14rustc_ty_utils
librustc_driver-fa31e2489381cd18.so:_RINvNtNtNtNtCs6e3rAaajRpB_4core5slice4sort6stable9quicksort9quicksortNtNtCs8svpH8FC8uE_13rustc_session5utils17CanonicalizedPathNvYB15_NtNtBa_3cmp10PartialOrd2ltEB19_
librustc_driver-fa31e2489381cd18.so:_RINvNtNtNtNtCs6e3rAaajRpB_4core5slice4sort6stable9quicksort9quicksortNtNtCsaqNsllmwM5m_12rustc_middle3mir5LocalNvYB15_NtNtBa_3cmp10PartialOrd2ltECsl5MakceMktk_14rustc_borrowck
librustc_driver-fa31e2489381cd18.so:_RINvNtNtNtNtCs6e3rAaajRpB_4core5slice4sort6stable9quicksort9quicksortNtNtCsaqNsllmwM5m_12rustc_middle6traits33DynCompatibilityViolationSolutionNvYB15_NtNtBa_3cmp10PartialOrd2ltECs7ZgcGxgGJUk_21rustc_trait_selection
librustc_driver-fa31e2489381cd18.so:_RINvNtNtNtNtCs6e3rAaajRpB_4core5slice4sort6stable9quicksort9quicksortNtNtCsc9RDTsdWIA2_9addr2line4line12LineSequenceNCINvMNtCsgvX44DZTN43_5alloc5sliceSB15_11sort_by_keyyNCINvMs_B17_NtB17_5Lines5parseINtNtNtCs4chL10YB23V_5gimli4read12endian_slice11EndianSliceNtNtB3i_9endianity12LittleEndianEEs_0E0ECskurZfFSl0zB_3std
librustc_driver-fa31e2489381cd18.so:_RINvNtNtNtNtCs6e3rAaajRpB_4core5slice4sort6stable9quicksort9quicksortNtNtCsc9RDTsdWIA2_9addr2line4unit9UnitRangeNCINvMNtCsgvX44DZTN43_5alloc5sliceSB15_11sort_by_keyyNCNvMs_B17_INtB17_8ResUnitsINtNtNtCs4chL10YB23V_5gimli4read12endian_slice11EndianSliceNtNtB3b_9endianity12LittleEndianEE5parses2_0E0ECskurZfFSl0zB_3std
librustc_driver-fa31e2489381cd18.so:_RINvNtNtNtNtCs6e3rAaajRpB_4core5slice4sort6stable9quicksort9quicksortNtNtCsc9RDTsdWIA2_9addr2line8function15FunctionAddressNCINvMNtCsgvX44DZTN43_5alloc5sliceSB15_11sort_by_keyyNCNvMs0_B17_INtB17_9FunctionsINtNtNtCs4chL10YB23V_5gimli4read12endian_slice11EndianSliceNtNtB3o_9endianity12LittleEndianEE5parses_0E0ECskurZfFSl0zB_3std
librustc_driver-fa31e2489381cd18.so:_RINvNtNtNtNtCs6e3rAaajRpB_4core5slice4sort6stable9quicksort9quicksortNtNtCsc9RDTsdWIA2_9addr2line8function22InlinedFunctionAddressNCINvMNtCsgvX44DZTN43_5alloc5sliceSB15_7sort_byNCNvMs1_B17_INtB17_8FunctionINtNtNtCs4chL10YB23V_5gimli4read12endian_slice11EndianSliceNtNtB3o_9endianity12LittleEndianEE5parse0E0ECskurZfFSl0zB_3std
librustc_driver-fa31e2489381cd18.so:_RINvNtNtNtNtCs6e3rAaajRpB_4core5slice4sort6stable9quicksort9quicksortNtNtCsdeppuzfODI3_9rustc_abi6layout8FieldIdxNCINvMNtCsgvX44DZTN43_5alloc5sliceSB15_11sort_by_keyTINtNtBa_3cmp7ReverseyEoyENCINvMs0_B17_INtB17_16LayoutCalculatorNtNtNtCsaqNsllmwM5m_12rustc_middle2ty7context6TyCtxtE17univariant_biasedB15_NtB17_10VariantIdxINtNtB17_2ty11TyAndLayoutNtB3J_2TyEEs3_0E0ECsbmrvFwx9VJk_14rustc_ty_utils
librustc_driver-fa31e2489381cd18.so:_RINvNtNtNtNtCs6e3rAaajRpB_4core5slice4sort6stable9quicksort9quicksortNtNtCsdeppuzfODI3_9rustc_abi6layout8FieldIdxNCINvMNtCsgvX44DZTN43_5alloc5sliceSB15_11sort_by_keyTyoENCINvMs0_B17_INtB17_16LayoutCalculatorNtNtNtCsaqNsllmwM5m_12rustc_middle2ty7context6TyCtxtE17univariant_biasedB15_NtB17_10VariantIdxINtNtB17_2ty11TyAndLayoutNtB3n_2TyEEs4_0E0ECsbmrvFwx9VJk_14rustc_ty_utils
librustc_driver-fa31e2489381cd18.so:_RINvNtNtNtNtCs6e3rAaajRpB_4core5slice4sort6stable9quicksort9quicksortNtNtCsgvX44DZTN43_5alloc6string6StringNvYB15_NtNtBa_3cmp10PartialOrd2ltECshmntTYxeqYP_21rustc_data_structures
librustc_driver-fa31e2489381cd18.so:_RINvNtNtNtNtCs6e3rAaajRpB_4core5slice4sort6stable9quicksort9quicksortNtNtCsiP3zVQcHmFl_10rustc_span13span_encoding4SpanNvYB15_NtNtBa_3cmp10PartialOrd2ltECserMDvxKWFUe_20rustc_error_messages
librustc_driver-fa31e2489381cd18.so:_RINvNtNtNtNtCs6e3rAaajRpB_4core5slice4sort6stable9quicksort9quicksortNtNtCsiP3zVQcHmFl_10rustc_span6symbol6SymbolNvYB15_NtNtBa_3cmp10PartialOrd2ltECs3VMMNsKb80B_13rustc_resolve
librustc_driver-fa31e2489381cd18.so:_RINvNtNtNtNtCs6e3rAaajRpB_4core5slice4sort6stable9quicksort9quicksortNtNtCsiP3zVQcHmFl_10rustc_span6symbol6SymbolNvYB15_NtNtBa_3cmp10PartialOrd2ltECscUPtgnKeETP_18rustc_hir_analysis
librustc_driver-fa31e2489381cd18.so:_RINvNtNtNtNtCs6e3rAaajRpB_4core5slice4sort6stable9quicksort9quicksortNtNtCskurZfFSl0zB_3std4path7PathBufNvYB15_NtNtBa_3cmp10PartialOrd2ltECs73ymBF2OK4c_14rustc_metadata
librustc_driver-fa31e2489381cd18.so:_RINvNtNtNtNtCs6e3rAaajRpB_4core5slice4sort6stable9quicksort9quicksortNtNtCsl5MakceMktk_14rustc_borrowck8dataflow11BorrowIndexNvYB15_NtNtBa_3cmp10PartialOrd2ltEB19_
librustc_driver-fa31e2489381cd18.so:_RINvNtNtNtNtCs6e3rAaajRpB_4core5slice4sort6stable9quicksort9quicksortNtNtNtCs1qrKYkmQQe5_12regex_syntax3hir7literal7LiteralNvYB15_NtNtBa_3cmp10PartialOrd2ltECs5kKxLxgs1gB_14regex_automata
librustc_driver-fa31e2489381cd18.so:_RINvNtNtNtNtCs6e3rAaajRpB_4core5slice4sort6stable9quicksort9quicksortNtNtNtCs3KflAWMuICG_9rustc_hir5attrs15data_structures9CrateTypeNvYB15_NtNtBa_3cmp10PartialOrd2ltECs3XAq0Kofjci_15rustc_interface
librustc_driver-fa31e2489381cd18.so:_RINvNtNtNtNtCs6e3rAaajRpB_4core5slice4sort6stable9quicksort9quicksortNtNtNtCs5kKxLxgs1gB_14regex_automata4util10primitives7StateIDNvYB15_NtNtBa_3cmp10PartialOrd2ltEB1b_
librustc_driver-fa31e2489381cd18.so:_RINvNtNtNtNtCs6e3rAaajRpB_4core5slice4sort6stable9quicksort9quicksortNtNtNtCs6qKlvMSJCFB_16rustc_hir_typeck7fn_ctxt10arg_matrix11ExpectedIdxNvYB15_NtNtBa_3cmp10PartialOrd2ltEB1b_
librustc_driver-fa31e2489381cd18.so:_RINvNtNtNtNtCs6e3rAaajRpB_4core5slice4sort6stable9quicksort9quicksortNtNtNtCs6qKlvMSJCFB_16rustc_hir_typeck7fn_ctxt10arg_matrix5ErrorNvYB15_NtNtBa_3cmp10PartialOrd2ltEB1b_
librustc_driver-fa31e2489381cd18.so:_RINvNtNtNtNtCs6e3rAaajRpB_4core5slice4sort6stable9quicksort9quicksortNtNtNtCs8svpH8FC8uE_13rustc_session7options19mitigation_coverage23DeniedPartialMitigationNvYB15_NtNtBa_3cmp10PartialOrd2ltEB1b_
librustc_driver-fa31e2489381cd18.so:_RINvNtNtNtNtCs6e3rAaajRpB_4core5slice4sort6stable9quicksort9quicksortNtNtNtCs8svpH8FC8uE_13rustc_session7options19mitigation_coverage27DeniedPartialMitigationKindNvYB15_NtNtBa_3cmp10PartialOrd2ltEB1b_
librustc_driver-fa31e2489381cd18.so:_RINvNtNtNtNtCs6e3rAaajRpB_4core5slice4sort6stable9quicksort9quicksortNtNtNtCsaqNsllmwM5m_12rustc_middle3mir8coverage18BasicCoverageBlockNvYB15_NtNtBa_3cmp10PartialOrd2ltECs4DnJvQYATGa_19rustc_mir_transform
librustc_driver-fa31e2489381cd18.so:_RINvNtNtNtNtCs6e3rAaajRpB_4core5slice4sort6stable9quicksort9quicksortNtNtNtCsaqNsllmwM5m_12rustc_middle3mir9interpret7AllocIdNvYB15_NtNtBa_3cmp10PartialOrd2ltECs7RlYbh05zWS_16rustc_const_eval
librustc_driver-fa31e2489381cd18.so:_RINvNtNtNtNtCs6e3rAaajRpB_4core5slice4sort6stable9quicksort9quicksortNtNtNtCsaqNsllmwM5m_12rustc_middle6middle19debugger_visualizer22DebuggerVisualizerFileNvYB15_NtNtBa_3cmp10PartialOrd2ltECsg0ydQtPiXpO_17rustc_codegen_ssa
librustc_driver-fa31e2489381cd18.so:_RINvNtNtNtNtCs6e3rAaajRpB_4core5slice4sort6stable9quicksort9quicksortNtNtNtCshZ3XK54YNKv_12aho_corasick4util10primitives9PatternIDNvYB15_NtNtBa_3cmp10PartialOrd2ltEB1b_
librustc_driver-fa31e2489381cd18.so:_RINvNtNtNtNtCs6e3rAaajRpB_4core5slice4sort6stable9quicksort9quicksortNtNtNtNtCsl5MakceMktk_14rustc_borrowck8polonius6legacy8location13LocationIndexNvYB15_NtNtBa_3cmp10PartialOrd2ltEB1d_
librustc_driver-fa31e2489381cd18.so:_RINvNtNtNtNtCs6e3rAaajRpB_4core5slice4sort6stable9quicksort9quicksortRINtNtCsb0NW3Zcr2eh_22rustc_pattern_analysis3pat16DeconstructedPatNtNtB1b_5rustc12RustcPatCtxtENCINvMNtCsgvX44DZTN43_5alloc5sliceSB15_11sort_by_keyNtB19_5PatIdNCNvMNtB1b_10usefulnessINtB3J_19BranchPatUsefulnessB29_E12is_redundant0E0EB1b_
librustc_driver-fa31e2489381cd18.so:_RINvNtNtNtNtCs6e3rAaajRpB_4core5slice4sort6stable9quicksort9quicksortRNtNtCsaqNsllmwM5m_12rustc_middle4mono11CodegenUnitNCINvMNtCsgvX44DZTN43_5alloc5sliceSB15_11sort_by_keyINtNtBa_3cmp7ReversejENCINvNtCsg0ydQtPiXpO_17rustc_codegen_ssa4base13codegen_crateNtCsirwAroatyKs_18rustc_codegen_llvm18LlvmCodegenBackendEs_0E0EB46_
librustc_driver-fa31e2489381cd18.so:_RINvNtNtNtNtCs6e3rAaajRpB_4core5slice4sort6stable9quicksort9quicksortRNtNtCsiP3zVQcHmFl_10rustc_span6symbol6SymbolNvYB15_NtNtBa_3cmp10PartialOrd2ltECsepwHxkHh5iF_18rustc_attr_parsing
librustc_driver-fa31e2489381cd18.so:_RINvNtNtNtNtCs6e3rAaajRpB_4core5slice4sort6stable9quicksort9quicksortRReNvYB15_NtNtBa_3cmp10PartialOrd2ltECs1ufPwUoOuD2_10rustc_lint
librustc_driver-fa31e2489381cd18.so:_RINvNtNtNtNtCs6e3rAaajRpB_4core5slice4sort6stable9quicksort9quicksortRTNtNtNtNtCsl5MakceMktk_14rustc_borrowck8polonius6legacy5facts17PoloniusRegionVidB17_ENvYB15_NtNtBa_3cmp10PartialOrd2ltEB1f_
librustc_driver-fa31e2489381cd18.so:_RINvNtNtNtNtCs6e3rAaajRpB_4core5slice4sort6stable9quicksort9quicksortReNvYB15_NtNtBa_3cmp10PartialOrd2ltECsaqNsllmwM5m_12rustc_middle
librustc_driver-fa31e2489381cd18.so:_RINvNtNtNtNtCs6e3rAaajRpB_4core5slice4sort6stable9quicksort9quicksortTNtNtCs4chL10YB23V_5gimli6common15DebugInfoOffsetNtB18_18DebugArangesOffsetENCINvMNtCsgvX44DZTN43_5alloc5sliceSB15_11sort_by_keyB16_NCNvMs_NtCsc9RDTsdWIA2_9addr2line4unitINtB3k_8ResUnitsINtNtNtB1a_4read12endian_slice11EndianSliceNtNtB1a_9endianity12LittleEndianEE5parse0E0ECskurZfFSl0zB_3std
librustc_driver-fa31e2489381cd18.so:_RINvNtNtNtNtCs6e3rAaajRpB_4core5slice4sort6stable9quicksort9quicksortTNtNtCs8Oewc4Z7MhZ_18rustc_mir_dataflow10move_paths13MovePathIndexB16_ENvYB15_NtNtBa_3cmp10PartialOrd2ltECsl5MakceMktk_14rustc_borrowck
librustc_driver-fa31e2489381cd18.so:_RINvNtNtNtNtCs6e3rAaajRpB_4core5slice4sort6stable9quicksort9quicksortTNtNtCs8Oewc4Z7MhZ_18rustc_mir_dataflow10move_paths13MovePathIndexNtNtCsaqNsllmwM5m_12rustc_middle3mir5LocalENvYB15_NtNtBa_3cmp10PartialOrd2ltECsl5MakceMktk_14rustc_borrowck
librustc_driver-fa31e2489381cd18.so:_RINvNtNtNtNtCs6e3rAaajRpB_4core5slice4sort6stable9quicksort9quicksortTNtNtCs8Oewc4Z7MhZ_18rustc_mir_dataflow10move_paths13MovePathIndexNtNtNtNtCsl5MakceMktk_14rustc_borrowck8polonius6legacy8location13LocationIndexENvYB15_NtNtBa_3cmp10PartialOrd2ltEB2h_
librustc_driver-fa31e2489381cd18.so:_RINvNtNtNtNtCs6e3rAaajRpB_4core5slice4sort6stable9quicksort9quicksortTNtNtCs8svpH8FC8uE_13rustc_session6config10OutputTypeINtNtBa_6option6OptionNtB18_11OutFileNameEENCINvMNtCsgvX44DZTN43_5alloc5sliceSB15_7sort_byNCINvXs1o_NtNtNtB2L_11collections5btree3mapINtB3y_8BTreeMapB16_B1W_EINtNtNtNtBa_4iter6traits7collect12FromIteratorB15_E9from_iterINtNtNtB4B_8adapters3map3MapINtNtNtBa_3ops5range5RangejENCNvXsI_NtCs6ERRjo1sNLQ_15rustc_serialize9serializeB45_INtB6v_9DecodableNtNtB6x_6opaque10MemDecoderE6decode0EE0E0ECsg0ydQtPiXpO_17rustc_codegen_ssa
librustc_driver-fa31e2489381cd18.so:_RINvNtNtNtNtCs6e3rAaajRpB_4core5slice4sort6stable9quicksort9quicksortTNtNtCsaqNsllmwM5m_12rustc_middle3mir5LocalNtNtNtNtCsl5MakceMktk_14rustc_borrowck8polonius6legacy5facts17PoloniusRegionVidENvYB15_NtNtBa_3cmp10PartialOrd2ltEB1U_
librustc_driver-fa31e2489381cd18.so:_RINvNtNtNtNtCs6e3rAaajRpB_4core5slice4sort6stable9quicksort9quicksortTNtNtCsaqNsllmwM5m_12rustc_middle3mir5LocalNtNtNtNtCsl5MakceMktk_14rustc_borrowck8polonius6legacy8location13LocationIndexENvYB15_NtNtBa_3cmp10PartialOrd2ltEB1U_
librustc_driver-fa31e2489381cd18.so:_RINvNtNtNtNtCs6e3rAaajRpB_4core5slice4sort6stable9quicksort9quicksortTNtNtCsbByapOItfY5_13rustc_type_ir7ty_kind5TyVidB16_ENCINvMNtCsgvX44DZTN43_5alloc5sliceSB15_11sort_by_keyB15_NCNvMNtNtCshmntTYxeqYP_21rustc_data_structures5graph9vec_graphINtB2V_8VecGraphB16_Kb1_E3news0_0E0ECs6qKlvMSJCFB_16rustc_hir_typeck
librustc_driver-fa31e2489381cd18.so:_RINvNtNtNtNtCs6e3rAaajRpB_4core5slice4sort6stable9quicksort9quicksortTNtNtCsbByapOItfY5_13rustc_type_ir7ty_kind5TyVidB16_ENvYB15_NtNtBa_3cmp10PartialOrd2ltECs6qKlvMSJCFB_16rustc_hir_typeck
librustc_driver-fa31e2489381cd18.so:_RINvNtNtNtNtCs6e3rAaajRpB_4core5slice4sort6stable9quicksort9quicksortTNtNtCsd482UFdOvTO_9rustc_ast3ast12ParamKindOrdNtNtNtCsaqNsllmwM5m_12rustc_middle2ty8generics15GenericParamDefENCINvMNtCsgvX44DZTN43_5alloc5sliceSB15_11sort_by_keyB16_NCINvNtNtCscUPtgnKeETP_18rustc_hir_analysis15hir_ty_lowering8generics18lower_generic_argsNtNCNvMs2_B3T_DNtB3T_12HirTyLowererEL_26lower_generic_args_of_path015GenericArgsCtxtEs2_0E0EB3V_
librustc_driver-fa31e2489381cd18.so:_RINvNtNtNtNtCs6e3rAaajRpB_4core5slice4sort6stable9quicksort9quicksortTNtNtCsd482UFdOvTO_9rustc_ast3ast12ParamKindOrdNtNtNtCsaqNsllmwM5m_12rustc_middle2ty8generics15GenericParamDefENCINvMNtCsgvX44DZTN43_5alloc5sliceSB15_11sort_by_keyB16_NCINvNtNtCscUPtgnKeETP_18rustc_hir_analysis15hir_ty_lowering8generics18lower_generic_argsNtNvMNtNtCs6qKlvMSJCFB_16rustc_hir_typeck7fn_ctxt5__implNtB5k_6FnCtxt22instantiate_value_path19CtorGenericArgsCtxtEs2_0E0EB5m_
librustc_driver-fa31e2489381cd18.so:_RINvNtNtNtNtCs6e3rAaajRpB_4core5slice4sort6stable9quicksort9quicksortTNtNtCsd482UFdOvTO_9rustc_ast3ast12ParamKindOrdNtNtNtCsaqNsllmwM5m_12rustc_middle2ty8generics15GenericParamDefENCINvMNtCsgvX44DZTN43_5alloc5sliceSB15_11sort_by_keyB16_NCINvNtNtCscUPtgnKeETP_18rustc_hir_analysis15hir_ty_lowering8generics18lower_generic_argsNtNvMs0_NtNtCs6qKlvMSJCFB_16rustc_hir_typeck6method7confirmNtB5l_14ConfirmContext23instantiate_method_args15GenericArgsCtxtEs2_0E0EB5p_
librustc_driver-fa31e2489381cd18.so:_RINvNtNtNtNtCs6e3rAaajRpB_4core5slice4sort6stable9quicksort9quicksortTNtNtCsgvX44DZTN43_5alloc6string6StringB16_ENvYB15_NtNtBa_3cmp10PartialOrd2ltECs3VMMNsKb80B_13rustc_resolve
librustc_driver-fa31e2489381cd18.so:_RINvNtNtNtNtCs6e3rAaajRpB_4core5slice4sort6stable9quicksort9quicksortTNtNtCsgvX44DZTN43_5alloc6string6StringNtNtCscaGRdyUT7Hw_10serde_json5value5ValueENCINvMNtB1a_5sliceSB15_7sort_byNCINvXs1o_NtNtNtB1a_11collections5btree3mapINtB34_8BTreeMapB16_B1I_EINtNtNtNtBa_4iter6traits7collect12FromIteratorB15_E9from_iterINtNtNtBa_5array4iter8IntoIterB15_Kj1_EE0E0ECs3scjADIeHPO_12rustc_target
librustc_driver-fa31e2489381cd18.so:_RINvNtNtNtNtCs6e3rAaajRpB_4core5slice4sort6stable9quicksort9quicksortTNtNtCsgvX44DZTN43_5alloc6string6StringNtNtCscaGRdyUT7Hw_10serde_json5value5ValueENCINvMNtB1a_5sliceSB15_7sort_byNCINvXs1o_NtNtNtB1a_11collections5btree3mapINtB34_8BTreeMapB16_B1I_EINtNtNtNtBa_4iter6traits7collect12FromIteratorB15_E9from_iterINtNtNtBa_5array4iter8IntoIterB15_Kj2_EE0E0ECs3scjADIeHPO_12rustc_target
librustc_driver-fa31e2489381cd18.so:_RINvNtNtNtNtCs6e3rAaajRpB_4core5slice4sort6stable9quicksort9quicksortTNtNtCsgvX44DZTN43_5alloc6string6StringNtNtCsiP3zVQcHmFl_10rustc_span13span_encoding4SpanNtNtB1M_6symbol6SymbolENvYB15_NtNtBa_3cmp10PartialOrd2ltECs6qKlvMSJCFB_16rustc_hir_typeck
librustc_driver-fa31e2489381cd18.so:_RINvNtNtNtNtCs6e3rAaajRpB_4core5slice4sort6stable9quicksort9quicksortTNtNtCsiP3zVQcHmFl_10rustc_span13span_encoding4SpanbENvYB15_NtNtBa_3cmp10PartialOrd2ltECs3VMMNsKb80B_13rustc_resolve
librustc_driver-fa31e2489381cd18.so:_RINvNtNtNtNtCs6e3rAaajRpB_4core5slice4sort6stable9quicksort9quicksortTNtNtCsl5MakceMktk_14rustc_borrowck11constraints18ConstraintSccIndexB16_ENvYB15_NtNtBa_3cmp10PartialOrd2ltEB1a_
librustc_driver-fa31e2489381cd18.so:_RINvNtNtNtNtCs6e3rAaajRpB_4core5slice4sort6stable9quicksort9quicksortTNtNtCsl5MakceMktk_14rustc_borrowck11constraints18ConstraintSccIndexNtNtCsbByapOItfY5_13rustc_type_ir11region_kind9RegionVidENvYB15_NtNtBa_3cmp10PartialOrd2ltEB1a_
librustc_driver-fa31e2489381cd18.so:_RINvNtNtNtNtCs6e3rAaajRpB_4core5slice4sort6stable9quicksort9quicksortTNtNtCsl5MakceMktk_14rustc_borrowck8dataflow11BorrowIndexNtNtNtNtB1a_8polonius6legacy5facts17PoloniusRegionVidENvYB15_NtNtBa_3cmp10PartialOrd2ltEB1a_
librustc_driver-fa31e2489381cd18.so:_RINvNtNtNtNtCs6e3rAaajRpB_4core5slice4sort6stable9quicksort9quicksortTNtNtCsl5MakceMktk_14rustc_borrowck8dataflow11BorrowIndexNtNtNtNtB1a_8polonius6legacy8location13LocationIndexENvYB15_NtNtBa_3cmp10PartialOrd2ltEB1a_
librustc_driver-fa31e2489381cd18.so:_RINvNtNtNtNtCs6e3rAaajRpB_4core5slice4sort6stable9quicksort9quicksortTNtNtNtCsPGgg1SovgA_15rustc_mir_build7builder5scope7DropIdxNtNtCsaqNsllmwM5m_12rustc_middle3mir10BasicBlockENvYB15_NtNtBa_3cmp10PartialOrd2ltEB1c_
librustc_driver-fa31e2489381cd18.so:_RINvNtNtNtNtCs6e3rAaajRpB_4core5slice4sort6stable9quicksort9quicksortTNtNtNtNtCsfWGFs8tRit9_11rustc_infer5infer18region_constraints10leak_check13LeakCheckNodeB16_ENvYB15_NtNtBa_3cmp10PartialOrd2ltEB1e_
librustc_driver-fa31e2489381cd18.so:_RINvNtNtNtNtCs6e3rAaajRpB_4core5slice4sort6stable9quicksort9quicksortTNtNtNtNtCsl5MakceMktk_14rustc_borrowck8polonius6legacy5facts17PoloniusRegionVidB16_ENvYB15_NtNtBa_3cmp10PartialOrd2ltEB1e_
librustc_driver-fa31e2489381cd18.so:_RINvNtNtNtNtCs6e3rAaajRpB_4core5slice4sort6stable9quicksort9quicksortTNtNtNtNtCsl5MakceMktk_14rustc_borrowck8polonius6legacy5facts17PoloniusRegionVidB16_NtNtB1a_8location13LocationIndexENvYB15_NtNtBa_3cmp10PartialOrd2ltEB1e_
librustc_driver-fa31e2489381cd18.so:_RINvNtNtNtNtCs6e3rAaajRpB_4core5slice4sort6stable9quicksort9quicksortTNtNtNtNtCsl5MakceMktk_14rustc_borrowck8polonius6legacy5facts17PoloniusRegionVidNtNtB1a_8location13LocationIndexENvYB15_NtNtBa_3cmp10PartialOrd2ltEB1e_
librustc_driver-fa31e2489381cd18.so:_RINvNtNtNtNtCs6e3rAaajRpB_4core5slice4sort6stable9quicksort9quicksortTNtNtNtNtCsl5MakceMktk_14rustc_borrowck8polonius6legacy5facts17PoloniusRegionVidNtNtB1e_8dataflow11BorrowIndexENvYB15_NtNtBa_3cmp10PartialOrd2ltEB1e_
librustc_driver-fa31e2489381cd18.so:_RINvNtNtNtNtCs6e3rAaajRpB_4core5slice4sort6stable9quicksort9quicksortTNtNtNtNtCsl5MakceMktk_14rustc_borrowck8polonius6legacy5facts17PoloniusRegionVidNtNtB1e_8dataflow11BorrowIndexNtNtB1a_8location13LocationIndexENvYB15_NtNtBa_3cmp10PartialOrd2ltEB1e_
librustc_driver-fa31e2489381cd18.so:_RINvNtNtNtNtCs6e3rAaajRpB_4core5slice4sort6stable9quicksort9quicksortTNtNtNtNtCsl5MakceMktk_14rustc_borrowck8polonius6legacy5facts17PoloniusRegionViduENvYB15_NtNtBa_3cmp10PartialOrd2ltEB1e_
librustc_driver-fa31e2489381cd18.so:_RINvNtNtNtNtCs6e3rAaajRpB_4core5slice4sort6stable9quicksort9quicksortTNtNtNtNtCsl5MakceMktk_14rustc_borrowck8polonius6legacy8location13LocationIndexB16_ENvYB15_NtNtBa_3cmp10PartialOrd2ltEB1e_
librustc_driver-fa31e2489381cd18.so:_RINvNtNtNtNtCs6e3rAaajRpB_4core5slice4sort6stable9quicksort9quicksortTReB16_ENvYB15_NtNtBa_3cmp10PartialOrd2ltECsirwAroatyKs_18rustc_codegen_llvm
librustc_driver-fa31e2489381cd18.so:_RINvNtNtNtNtCs6e3rAaajRpB_4core5slice4sort6stable9quicksort9quicksortTTNtNtCsaqNsllmwM5m_12rustc_middle3mir5LocalNtNtNtNtCsl5MakceMktk_14rustc_borrowck8polonius6legacy8location13LocationIndexEuENvYB15_NtNtBa_3cmp10PartialOrd2ltEB1V_
librustc_driver-fa31e2489381cd18.so:_RINvNtNtNtNtCs6e3rAaajRpB_4core5slice4sort6stable9quicksort9quicksortTTNtNtCsl5MakceMktk_14rustc_borrowck8dataflow11BorrowIndexNtNtNtNtB1b_8polonius6legacy8location13LocationIndexEuENvYB15_NtNtBa_3cmp10PartialOrd2ltEB1b_
librustc_driver-fa31e2489381cd18.so:_RINvNtNtNtNtCs6e3rAaajRpB_4core5slice4sort6stable9quicksort9quicksortTTNtNtNtNtCsl5MakceMktk_14rustc_borrowck8polonius6legacy5facts17PoloniusRegionVidNtNtB1b_8location13LocationIndexB2o_EB17_ENvYB15_NtNtBa_3cmp10PartialOrd2ltEB1f_
librustc_driver-fa31e2489381cd18.so:_RINvNtNtNtNtCs6e3rAaajRpB_4core5slice4sort6stable9quicksort9quicksortTTNtNtNtNtCsl5MakceMktk_14rustc_borrowck8polonius6legacy5facts17PoloniusRegionVidNtNtB1b_8location13LocationIndexB2o_ENtNtB1f_8dataflow11BorrowIndexENvYB15_NtNtBa_3cmp10PartialOrd2ltEB1f_
librustc_driver-fa31e2489381cd18.so:_RINvNtNtNtNtCs6e3rAaajRpB_4core5slice4sort6stable9quicksort9quicksortTTNtNtNtNtCsl5MakceMktk_14rustc_borrowck8polonius6legacy5facts17PoloniusRegionVidNtNtB1b_8location13LocationIndexEB16_ENvYB15_NtNtBa_3cmp10PartialOrd2ltEB1f_
librustc_driver-fa31e2489381cd18.so:_RINvNtNtNtNtCs6e3rAaajRpB_4core5slice4sort6stable9quicksort9quicksortTTNtNtNtNtCsl5MakceMktk_14rustc_borrowck8polonius6legacy5facts17PoloniusRegionVidNtNtB1b_8location13LocationIndexEB17_ENvYB15_NtNtBa_3cmp10PartialOrd2ltEB1f_
librustc_driver-fa31e2489381cd18.so:_RINvNtNtNtNtCs6e3rAaajRpB_4core5slice4sort6stable9quicksort9quicksortTTNtNtNtNtCsl5MakceMktk_14rustc_borrowck8polonius6legacy5facts17PoloniusRegionVidNtNtB1b_8location13LocationIndexEB2o_ENvYB15_NtNtBa_3cmp10PartialOrd2ltEB1f_
librustc_driver-fa31e2489381cd18.so:_RINvNtNtNtNtCs6e3rAaajRpB_4core5slice4sort6stable9quicksort9quicksortTTNtNtNtNtCsl5MakceMktk_14rustc_borrowck8polonius6legacy5facts17PoloniusRegionVidNtNtB1b_8location13LocationIndexENtNtB1f_8dataflow11BorrowIndexENvYB15_NtNtBa_3cmp10PartialOrd2ltEB1f_
librustc_driver-fa31e2489381cd18.so:_RINvNtNtNtNtCs6e3rAaajRpB_4core5slice4sort6stable9quicksort9quicksortTTNtNtNtNtCsl5MakceMktk_14rustc_borrowck8polonius6legacy5facts17PoloniusRegionVidNtNtB1b_8location13LocationIndexEuENvYB15_NtNtBa_3cmp10PartialOrd2ltEB1f_
librustc_driver-fa31e2489381cd18.so:_RINvNtNtNtNtCs6e3rAaajRpB_4core5slice4sort6stable9quicksort9quicksortThcENCINvMNtCsgvX44DZTN43_5alloc5sliceSB15_11sort_by_keyhNCNvMs_NtCsdH0g1nDL3hE_21unicode_normalization9decomposeINtB27_14DecompositionsINtNtNtNtBa_4iter8adapters7flatten7FlatMapIB2V_NtNtNtBa_3str4iter5CharsEINtNtCs1i6tFYPlPio_16unicode_security20confusable_detection10OnceOrMorecINtNtB3m_6cloned6ClonedINtNtB8_4iter4ItercEEENvB4u_14char_prototypeEE12sort_pending0E0ECs1ufPwUoOuD2_10rustc_lint
librustc_driver-fa31e2489381cd18.so:_RINvNtNtNtNtCs6e3rAaajRpB_4core5slice4sort6stable9quicksort9quicksortThcENCINvMNtCsgvX44DZTN43_5alloc5sliceSB15_11sort_by_keyhNCNvMs_NtCsdH0g1nDL3hE_21unicode_normalization9decomposeINtB27_14DecompositionsNtNtNtBa_3str4iter5CharsE12sort_pending0E0ECsgfasDSBi4N4_11rustc_parse
librustc_driver-fa31e2489381cd18.so:_RINvNtNtNtNtCs6e3rAaajRpB_4core5slice4sort6stable9quicksort9quicksortTooENvYB15_NtNtBa_3cmp10PartialOrd2ltECsbmrvFwx9VJk_14rustc_ty_utils
librustc_driver-fa31e2489381cd18.so:_RINvNtNtNtNtCs6e3rAaajRpB_4core5slice4sort6stable9quicksort9quicksortjNvYjNtNtBa_3cmp10PartialOrd2ltECs6qKlvMSJCFB_16rustc_hir_typeck
librustc_driver-fa31e2489381cd18.so:_RINvNtNtNtNtCs6e3rAaajRpB_4core5slice4sort6stable9quicksort9quicksortjNvYjNtNtBa_3cmp10PartialOrd2ltECsi5AUwtDDe5b_20rustc_builtin_macros
librustc_driver-fa31e2489381cd18.so:_RINvNtNtNtNtCs6e3rAaajRpB_4core5slice4sort6stable9quicksort9quicksortjNvYjNtNtBa_3cmp10PartialOrd2ltECsl5MakceMktk_14rustc_borrowck
librustc_driver-fa31e2489381cd18.so:_RINvNtNtNtNtCs6e3rAaajRpB_4core5slice4sort6stable9quicksort9quicksortmNCINvMNtCsgvX44DZTN43_5alloc5sliceSm11sort_by_keyRINtNtBa_6option6OptionNtNtCsiP3zVQcHmFl_10rustc_span6symbol6SymbolENCINvXs2_NtNtCshmntTYxeqYP_21rustc_data_structures10sorted_map9index_mapINtB38_19SortedIndexMultiMapmB1U_NtNtNtCsaqNsllmwM5m_12rustc_middle2ty5assoc9AssocItemEINtNtNtNtBa_4iter6traits7collect12FromIteratorTB1U_B4G_EE9from_iterINtNtNtB5F_8adapters3map3MapINtNtNtB1e_3vec9into_iter8IntoIterB4G_ENCINvMs2_B4I_NtB4I_10AssocItems3newINtB7a_3VecB4G_EE0EE0E0ECsbmrvFwx9VJk_14rustc_ty_utils
librustc_driver-fa31e2489381cd18.so:_RINvNtNtNtNtCs6e3rAaajRpB_4core5slice4sort6stable9quicksort9quicksortnNvYnNtNtBa_3cmp10PartialOrd2ltECsbmrvFwx9VJk_14rustc_ty_utils
librustc_driver-fa31e2489381cd18.so:_RINvNtNtNtNtCs6e3rAaajRpB_4core5slice4sort8unstable8heapsort8heapsortNtCsh8xpvZH2MPK_12rustc_errors16SubstitutionPartNCINvMB8_SB15_20sort_unstable_by_keyNtNtCsiP3zVQcHmFl_10rustc_span13span_encoding4SpanNCNCINvMsh_NtB17_10diagnosticNtB3q_4Diag21multipart_suggestionsINtNtCsgvX44DZTN43_5alloc6borrow3CoweEINtNtB4l_3vec3VecIB4T_TB2r_NtNtB4l_6string6StringEEEE0s_0E0ECs7ZgcGxgGJUk_21rustc_trait_selection
librustc_driver-fa31e2489381cd18.so:_RINvNtNtNtNtCs6e3rAaajRpB_4core5slice4sort8unstable8heapsort8heapsortNtCsh8xpvZH2MPK_12rustc_errors16SubstitutionPartNCINvMB8_SB15_20sort_unstable_by_keyNtNtCsiP3zVQcHmFl_10rustc_span13span_encoding4SpanNCNCINvMsh_NtB17_10diagnosticNtB3q_4Diag21multipart_suggestionsNtCserMDvxKWFUe_20rustc_error_messages11DiagMessageINtNtNtNtBa_4iter8adapters3map3MapINtNtNtCsgvX44DZTN43_5alloc3vec9into_iter8IntoIterNtNtB5K_6string6StringENCINvXs8_NtCs7ZgcGxgGJUk_21rustc_trait_selection6errorsNtB6X_23SuggestTuplePatternManyNtB3q_13Subdiagnostic11add_to_diagNtB2v_15ErrorGuaranteedE0EE0s_0E0EB6Z_
librustc_driver-fa31e2489381cd18.so:_RINvNtNtNtNtCs6e3rAaajRpB_4core5slice4sort8unstable8heapsort8heapsortNtCsh8xpvZH2MPK_12rustc_errors16SubstitutionPartNCINvMB8_SB15_20sort_unstable_by_keyNtNtCsiP3zVQcHmFl_10rustc_span13span_encoding4SpanNCNCINvMsh_NtB17_10diagnosticNtB3q_4Diag21multipart_suggestionsNtNtCsgvX44DZTN43_5alloc6string6StringINtNtB4k_3vec3VecIB4T_TB2r_B4g_EEEE0s_0E0ECs6qKlvMSJCFB_16rustc_hir_typeck
librustc_driver-fa31e2489381cd18.so:_RINvNtNtNtNtCs6e3rAaajRpB_4core5slice4sort8unstable8heapsort8heapsortNtCsh8xpvZH2MPK_12rustc_errors16SubstitutionPartNCINvMB8_SB15_20sort_unstable_by_keyNtNtCsiP3zVQcHmFl_10rustc_span13span_encoding4SpanNCNCINvMsh_NtB17_10diagnosticNtB3q_4Diag21multipart_suggestionsReINtNtCsgvX44DZTN43_5alloc3vec3VecIB4j_TB2r_NtNtB4n_6string6StringEEEE0s_0E0ECs7ZgcGxgGJUk_21rustc_trait_selection
librustc_driver-fa31e2489381cd18.so:_RINvNtNtNtNtCs6e3rAaajRpB_4core5slice4sort8unstable8heapsort8heapsortNtCsiP3zVQcHmFl_10rustc_span18StableSourceFileIdNvYB15_NtNtBa_3cmp10PartialOrd2ltECsaqNsllmwM5m_12rustc_middle
librustc_driver-fa31e2489381cd18.so:_RINvNtNtNtNtCs6e3rAaajRpB_4core5slice4sort8unstable8heapsort8heapsortNtNtCsaqNsllmwM5m_12rustc_middle4mono8MonoItemNCINvMB8_SB15_20sort_unstable_by_keyNtNtCshmntTYxeqYP_21rustc_data_structures11fingerprint11FingerprintNCINvNtB2t_5unord13to_sorted_vecNtNtB19_3ich15StableHashStateB15_B15_INtNtNtNtCskurZfFSl0zB_3std11collections4hash3set8IntoIterB15_EEs_0E0ECs1yK2jRAc0XL_18rustc_monomorphize
librustc_driver-fa31e2489381cd18.so:_RINvNtNtNtNtCs6e3rAaajRpB_4core5slice4sort8unstable8heapsort8heapsortNtNtCscUPtgnKeETP_18rustc_hir_analysis26constrained_generic_params9ParameterNvYB15_NtNtBa_3cmp10PartialOrd2ltEB19_
librustc_driver-fa31e2489381cd18.so:_RINvNtNtNtNtCs6e3rAaajRpB_4core5slice4sort8unstable8heapsort8heapsortNtNtCsgvX44DZTN43_5alloc6string6StringNCINvMB8_SB15_16sort_unstable_byNvYB15_NtNtCshmntTYxeqYP_21rustc_data_structures11stable_hash13StableCompare10stable_cmpE0ECs6qKlvMSJCFB_16rustc_hir_typeck
librustc_driver-fa31e2489381cd18.so:_RINvNtNtNtNtCs6e3rAaajRpB_4core5slice4sort8unstable8heapsort8heapsortNtNtCsgvX44DZTN43_5alloc6string6StringNvYB15_NtNtBa_3cmp10PartialOrd2ltECs8svpH8FC8uE_13rustc_session
librustc_driver-fa31e2489381cd18.so:_RINvNtNtNtNtCs6e3rAaajRpB_4core5slice4sort8unstable8heapsort8heapsortNtNtCsiP3zVQcHmFl_10rustc_span13span_encoding4SpanNvYB15_NtNtBa_3cmp10PartialOrd2ltECs1ufPwUoOuD2_10rustc_lint
librustc_driver-fa31e2489381cd18.so:_RINvNtNtNtNtCs6e3rAaajRpB_4core5slice4sort8unstable8heapsort8heapsortNtNtCsiP3zVQcHmFl_10rustc_span6symbol6SymbolNCINvMB8_SB15_16sort_unstable_byNCINvMs2_NtCshmntTYxeqYP_21rustc_data_structures5unordINtB2s_10UnordItemsB15_INtNtNtNtBa_4iter8adapters6copied6CopiedINtNtNtNtCskurZfFSl0zB_3std11collections4hash3map4KeysB15_TNtNtNtCsaqNsllmwM5m_12rustc_middle6middle12lib_features16FeatureStabilityNtNtB19_13span_encoding4SpanEEEE25collect_stable_ord_by_keyB15_INtNtCsgvX44DZTN43_5alloc3vec3VecB15_ENCNvB2o_22into_sorted_stable_ord0Es_0E0ECserPFC4ou40o_12rustc_passes
librustc_driver-fa31e2489381cd18.so:_RINvNtNtNtNtCs6e3rAaajRpB_4core5slice4sort8unstable8heapsort8heapsortNtNtCsiP3zVQcHmFl_10rustc_span6symbol6SymbolNvYB15_NtNtBa_3cmp10PartialOrd2ltECs6qKlvMSJCFB_16rustc_hir_typeck
librustc_driver-fa31e2489381cd18.so:_RINvNtNtNtNtCs6e3rAaajRpB_4core5slice4sort8unstable8heapsort8heapsortNtNtNtCscUPtgnKeETP_18rustc_hir_analysis9coherence22inherent_impls_overlap8RegionIdNvYB15_NtNtBa_3cmp10PartialOrd2ltEB1b_
librustc_driver-fa31e2489381cd18.so:_RINvNtNtNtNtCs6e3rAaajRpB_4core5slice4sort8unstable8heapsort8heapsortNtNtNtCslRYU1Av45hL_16unic_langid_impl7subtags7variant7VariantNvYB15_NtNtBa_3cmp10PartialOrd2ltEB1b_
librustc_driver-fa31e2489381cd18.so:_RINvNtNtNtNtCs6e3rAaajRpB_4core5slice4sort8unstable8heapsort8heapsortRNtCs6ahoKXGLX5z_12rustc_hir_id11ItemLocalIdNCINvMB8_SB15_16sort_unstable_byNCNvMs5_NtCshmntTYxeqYP_21rustc_data_structures5unordINtB2r_8UnordSetB16_E20to_sorted_stable_ord0E0ECs6qKlvMSJCFB_16rustc_hir_typeck
librustc_driver-fa31e2489381cd18.so:_RINvNtNtNtNtCs6e3rAaajRpB_4core5slice4sort8unstable8heapsort8heapsortRNtNtCsgvX44DZTN43_5alloc6string6StringNCINvMB8_SB15_16sort_unstable_byNCINvMs2_NtCshmntTYxeqYP_21rustc_data_structures5unordINtB2n_10UnordItemsB15_INtNtNtNtCskurZfFSl0zB_3std11collections4hash3map4KeysB16_TB16_NtNtCsiP3zVQcHmFl_10rustc_span13span_encoding4SpanNtNtCsg0ydQtPiXpO_17rustc_codegen_ssa21assert_module_sources8CguReuseNtB5k_14ComparisonKindEEE25collect_stable_ord_by_keyB15_INtNtB1a_3vec3VecB15_ENCNvB2j_22into_sorted_stable_ord0Es_0E0EB5m_
librustc_driver-fa31e2489381cd18.so:_RINvNtNtNtNtCs6e3rAaajRpB_4core5slice4sort8unstable8heapsort8heapsortRNtNtCsgvX44DZTN43_5alloc6string6StringNCINvMB8_SB15_16sort_unstable_byNCINvMs2_NtCshmntTYxeqYP_21rustc_data_structures5unordINtB2n_10UnordItemsB15_INtNtNtNtCskurZfFSl0zB_3std11collections4hash3set4IterB16_EE25collect_stable_ord_by_keyB15_INtNtB1a_3vec3VecB15_ENCNvB2j_22into_sorted_stable_ord0Es_0E0ECslloyL1UMMzU_17rustc_incremental
librustc_driver-fa31e2489381cd18.so:_RINvNtNtNtNtCs6e3rAaajRpB_4core5slice4sort8unstable8heapsort8heapsortRReNCINvMB8_SB15_16sort_unstable_byNCNvMs5_NtCshmntTYxeqYP_21rustc_data_structures5unordINtB1M_8UnordSetB16_E20to_sorted_stable_ord0E0ECsirwAroatyKs_18rustc_codegen_llvm
librustc_driver-fa31e2489381cd18.so:_RINvNtNtNtNtCs6e3rAaajRpB_4core5slice4sort8unstable8heapsort8heapsortReNCINvMB8_SB15_16sort_unstable_byNvYB15_NtNtCshmntTYxeqYP_21rustc_data_structures11stable_hash13StableCompare10stable_cmpE0ECs6qKlvMSJCFB_16rustc_hir_typeck
librustc_driver-fa31e2489381cd18.so:_RINvNtNtNtNtCs6e3rAaajRpB_4core5slice4sort8unstable8heapsort8heapsortReNvYB15_NtNtBa_3cmp10PartialOrd2ltECsiP3zVQcHmFl_10rustc_span
librustc_driver-fa31e2489381cd18.so:_RINvNtNtNtNtCs6e3rAaajRpB_4core5slice4sort8unstable8heapsort8heapsortTNtCs6ahoKXGLX5z_12rustc_hir_id11ItemLocalIdRINtNtCsbByapOItfY5_13rustc_type_ir7ty_kind5FnSigNtNtNtCsaqNsllmwM5m_12rustc_middle2ty7context6TyCtxtEENCINvMB8_SB15_16sort_unstable_byNCINvMs2_NtCshmntTYxeqYP_21rustc_data_structures5unordINtB47_10UnordItemsB15_INtNtNtNtBa_4iter8adapters3map3MapINtNtNtNtCskurZfFSl0zB_3std11collections4hash3map4IterB16_B1O_ENCNvMs_NtB2E_14typeck_resultsINtB6T_19LocalTableInContextB1O_E21items_in_stable_order0EE25collect_stable_ord_by_keyB16_INtNtCsgvX44DZTN43_5alloc3vec3VecB15_ENCB6O_s_0Es_0E0ECs6qKlvMSJCFB_16rustc_hir_typeck
librustc_driver-fa31e2489381cd18.so:_RINvNtNtNtNtCs6e3rAaajRpB_4core5slice4sort8unstable8heapsort8heapsortTNtCs6ahoKXGLX5z_12rustc_hir_id11ItemLocalIdRINtNtCsbByapOItfY5_13rustc_type_ir9canonical9CanonicalNtNtNtCsaqNsllmwM5m_12rustc_middle2ty7context6TyCtxtNtNtB2K_14typeck_results8UserTypeEENCINvMB8_SB15_16sort_unstable_byNCINvMs2_NtCshmntTYxeqYP_21rustc_data_structures5unordINtB4K_10UnordItemsB15_INtNtNtNtBa_4iter8adapters3map3MapINtNtNtNtCskurZfFSl0zB_3std11collections4hash3map4IterB16_B1O_ENCNvMs_B3y_INtB3y_19LocalTableInContextB1O_E21items_in_stable_order0EE25collect_stable_ord_by_keyB16_INtNtCsgvX44DZTN43_5alloc3vec3VecB15_ENCB7r_s_0Es_0E0ECs6qKlvMSJCFB_16rustc_hir_typeck
librustc_driver-fa31e2489381cd18.so:_RINvNtNtNtNtCs6e3rAaajRpB_4core5slice4sort8unstable8heapsort8heapsortTNtCs6ahoKXGLX5z_12rustc_hir_id11ItemLocalIdRINtNtCsgvX44DZTN43_5alloc3vec3VecNtNtCsaqNsllmwM5m_12rustc_middle2ty2TyEENCINvMB8_SB15_16sort_unstable_byNCINvMs2_NtCshmntTYxeqYP_21rustc_data_structures5unordINtB3E_10UnordItemsB15_INtNtNtNtBa_4iter8adapters3map3MapINtNtNtNtCskurZfFSl0zB_3std11collections4hash3map4IterB16_B1O_ENCNvMs_NtB2n_14typeck_resultsINtB6q_19LocalTableInContextB1O_E21items_in_stable_order0EE25collect_stable_ord_by_keyB16_IB1P_B15_ENCB6l_s_0Es_0E0ECs6qKlvMSJCFB_16rustc_hir_typeck
librustc_driver-fa31e2489381cd18.so:_RINvNtNtNtNtCs6e3rAaajRpB_4core5slice4sort8unstable8heapsort8heapsortTNtCs6ahoKXGLX5z_12rustc_hir_id11ItemLocalIdRINtNtCsgvX44DZTN43_5alloc3vec3VecTNtNtCsaqNsllmwM5m_12rustc_middle2ty2TyNtNtCsdeppuzfODI3_9rustc_abi6layout10VariantIdxNtB30_8FieldIdxEEENCINvMB8_SB15_16sort_unstable_byNCINvMs2_NtCshmntTYxeqYP_21rustc_data_structures5unordINtB4G_10UnordItemsB15_INtNtNtNtBa_4iter8adapters3map3MapINtNtNtNtCskurZfFSl0zB_3std11collections4hash3map4IterB16_B1O_ENCNvMs_NtB2o_14typeck_resultsINtB7s_19LocalTableInContextB1O_E21items_in_stable_order0EE25collect_stable_ord_by_keyB16_IB1P_B15_ENCB7n_s_0Es_0E0ECs6qKlvMSJCFB_16rustc_hir_typeck
librustc_driver-fa31e2489381cd18.so:_RINvNtNtNtNtCs6e3rAaajRpB_4core5slice4sort8unstable8heapsort8heapsortTNtCs6ahoKXGLX5z_12rustc_hir_id11ItemLocalIdRTNtNtCsiP3zVQcHmFl_10rustc_span13span_encoding4SpanNtNtNtCsaqNsllmwM5m_12rustc_middle3hir5place5PlaceEENCINvMB8_SB15_16sort_unstable_byNCINvMs2_NtCshmntTYxeqYP_21rustc_data_structures5unordINtB48_10UnordItemsB15_INtNtNtNtBa_4iter8adapters3map3MapINtNtNtNtCskurZfFSl0zB_3std11collections4hash3map4IterB16_B1O_ENCNvMs_NtNtB2J_2ty14typeck_resultsINtB6U_19LocalTableInContextB1O_E21items_in_stable_order0EE25collect_stable_ord_by_keyB16_INtNtCsgvX44DZTN43_5alloc3vec3VecB15_ENCB6P_s_0Es_0E0ECs6qKlvMSJCFB_16rustc_hir_typeck
librustc_driver-fa31e2489381cd18.so:_RINvNtNtNtNtCs6e3rAaajRpB_4core5slice4sort8unstable8heapsort8heapsortTNtNtCsaqNsllmwM5m_12rustc_middle2ty10SymbolNamejENvYB15_NtNtBa_3cmp10PartialOrd2ltEB1a_
librustc_driver-fa31e2489381cd18.so:_RINvNtNtNtNtCs6e3rAaajRpB_4core5slice4sort8unstable8heapsort8heapsortTNtNtCsb0NW3Zcr2eh_22rustc_pattern_analysis11constructor16MaybeInfiniteIntiENvYB15_NtNtBa_3cmp10PartialOrd2ltEB1a_
librustc_driver-fa31e2489381cd18.so:_RINvNtNtNtNtCs6e3rAaajRpB_4core5slice4sort8unstable8heapsort8heapsortTNtNtCsgvX44DZTN43_5alloc6string6StringINtNtBa_6option6OptionB16_EENvYB15_NtNtBa_3cmp10PartialOrd2ltECs3XAq0Kofjci_15rustc_interface
librustc_driver-fa31e2489381cd18.so:_RINvNtNtNtNtCs6e3rAaajRpB_4core5slice4sort8unstable8heapsort8heapsortTNtNtCsgvX44DZTN43_5alloc6string6StringjENvYB15_NtNtBa_3cmp10PartialOrd2ltECsaqNsllmwM5m_12rustc_middle
librustc_driver-fa31e2489381cd18.so:_RINvNtNtNtNtCs6e3rAaajRpB_4core5slice4sort8unstable8heapsort8heapsortTNtNtCsgvX44DZTN43_5alloc6string6StringjENvYB15_NtNtBa_3cmp10PartialOrd2ltECsgfasDSBi4N4_11rustc_parse
librustc_driver-fa31e2489381cd18.so:_RINvNtNtNtNtCs6e3rAaajRpB_4core5slice4sort8unstable8heapsort8heapsortTNtNtCshmntTYxeqYP_21rustc_data_structures11fingerprint11FingerprintjENvYB15_NtNtBa_3cmp10PartialOrd2ltECs1yK2jRAc0XL_18rustc_monomorphize
librustc_driver-fa31e2489381cd18.so:_RINvNtNtNtNtCs6e3rAaajRpB_4core5slice4sort8unstable8heapsort8heapsortTNtNtCsiP3zVQcHmFl_10rustc_span6def_id11DefPathHashjENvYB15_NtNtBa_3cmp10PartialOrd2ltECs3VMMNsKb80B_13rustc_resolve
librustc_driver-fa31e2489381cd18.so:_RINvNtNtNtNtCs6e3rAaajRpB_4core5slice4sort8unstable8heapsort8heapsortTNtNtCsiP3zVQcHmFl_10rustc_span6def_id11DefPathHashjENvYB15_NtNtBa_3cmp10PartialOrd2ltECs6qKlvMSJCFB_16rustc_hir_typeck
librustc_driver-fa31e2489381cd18.so:_RINvNtNtNtNtCs6e3rAaajRpB_4core5slice4sort8unstable8heapsort8heapsortTNtNtCsiP3zVQcHmFl_10rustc_span6def_id11DefPathHashjENvYB15_NtNtBa_3cmp10PartialOrd2ltECsg0ydQtPiXpO_17rustc_codegen_ssa
librustc_driver-fa31e2489381cd18.so:_RINvNtNtNtNtCs6e3rAaajRpB_4core5slice4sort8unstable8heapsort8heapsortTNtNvMs2_NtCsaqNsllmwM5m_12rustc_middle4monoNtB1e_11CodegenUnit28items_in_deterministic_order11ItemSortKeyjENvYB15_NtNtBa_3cmp10PartialOrd2ltEB1g_
librustc_driver-fa31e2489381cd18.so:_RINvNtNtNtNtCs6e3rAaajRpB_4core5slice4sort8unstable8heapsort8heapsortTRNtNtCsgvX44DZTN43_5alloc6string6StringB16_ENCINvMB8_SB15_16sort_unstable_byNCINvMs2_NtCshmntTYxeqYP_21rustc_data_structures5unordINtB2t_10UnordItemsB15_INtNtNtNtCskurZfFSl0zB_3std11collections4hash3map4IterB17_B17_EE25collect_stable_ord_by_keyB15_INtNtB1b_3vec3VecB15_ENCNvB2p_22into_sorted_stable_ord0Es_0E0ECslloyL1UMMzU_17rustc_incremental
librustc_driver-fa31e2489381cd18.so:_RINvNtNtNtNtCs6e3rAaajRpB_4core5slice4sort8unstable8heapsort8heapsortTRNtNtCsgvX44DZTN43_5alloc6string6StringRINtNtBa_6option6OptionB17_EENCINvMB8_SB15_16sort_unstable_byNCINvMs2_NtCshmntTYxeqYP_21rustc_data_structures5unordINtB2R_10UnordItemsB15_INtNtNtNtCskurZfFSl0zB_3std11collections4hash3map4IterB17_B1K_EE25collect_stable_ord_by_keyB15_INtNtB1b_3vec3VecB15_ENCNvB2N_22into_sorted_stable_ord0Es_0E0ECslloyL1UMMzU_17rustc_incremental
librustc_driver-fa31e2489381cd18.so:_RINvNtNtNtNtCs6e3rAaajRpB_4core5slice4sort8unstable8heapsort8heapsortTRNtNtCsiP3zVQcHmFl_10rustc_span6def_id10LocalDefIdRINtNtCs7KwMrq602nF_8indexmap3map8IndexMapNtCs6ahoKXGLX5z_12rustc_hir_id5HirIdINtNtCsgvX44DZTN43_5alloc3vec3VecNtNtNtCsaqNsllmwM5m_12rustc_middle2ty7closure13CapturedPlaceENtCsej5P1MWAjDV_10rustc_hash13FxBuildHasherEENCINvMB8_SB15_20sort_unstable_by_keyNtB19_11DefPathHashNCINvNtCshmntTYxeqYP_21rustc_data_structures5unord13to_sorted_vecNtNtB3N_3ich15StableHashStateB15_B17_INtNtNtNtCskurZfFSl0zB_3std11collections4hash3map4IterB17_B1V_EEs_0E0ECs6qKlvMSJCFB_16rustc_hir_typeck
librustc_driver-fa31e2489381cd18.so:_RINvNtNtNtNtCs6e3rAaajRpB_4core5slice4sort8unstable8heapsort8heapsortTRNtNtCsiP3zVQcHmFl_10rustc_span6def_id10LocalDefIdRINtNtCsgvX44DZTN43_5alloc3vec3VecTNtNtNtCsaqNsllmwM5m_12rustc_middle3hir5place5PlaceNtNtNtB2z_3mir6syntax13FakeReadCauseNtCs6ahoKXGLX5z_12rustc_hir_id5HirIdEEENCINvMB8_SB15_20sort_unstable_by_keyNtB19_11DefPathHashNCINvNtCshmntTYxeqYP_21rustc_data_structures5unord13to_sorted_vecNtNtB2z_3ich15StableHashStateB15_B17_INtNtNtNtCskurZfFSl0zB_3std11collections4hash3map4IterB17_B1V_EEs_0E0ECs6qKlvMSJCFB_16rustc_hir_typeck
librustc_driver-fa31e2489381cd18.so:_RINvNtNtNtNtCs6e3rAaajRpB_4core5slice4sort8unstable8heapsort8heapsortTRNtNtCsiP3zVQcHmFl_10rustc_span6def_id10LocalDefIdRNtNtCsaqNsllmwM5m_12rustc_middle2ty22ClosureSizeProfileDataENCINvMB8_SB15_20sort_unstable_by_keyNtB19_11DefPathHashNCINvNtCshmntTYxeqYP_21rustc_data_structures5unord13to_sorted_vecNtNtB1Z_3ich15StableHashStateB15_B17_INtNtNtNtCskurZfFSl0zB_3std11collections4hash3map4IterB17_B1V_EEs_0E0ECs6qKlvMSJCFB_16rustc_hir_typeck
librustc_driver-fa31e2489381cd18.so:_RINvNtNtNtNtCs6e3rAaajRpB_4core5slice4sort8unstable8heapsort8heapsortTRNtNtCsiP3zVQcHmFl_10rustc_span6def_id5DefIdRINtNtCsgvX44DZTN43_5alloc3vec3VecTNtNtB1b_13span_encoding4SpanINtNtBa_6result6ResultuNtB1b_15ErrorGuaranteedEEEENCINvMB8_SB15_20sort_unstable_by_keyNtB19_11DefPathHashNCINvNtCshmntTYxeqYP_21rustc_data_structures5unord13to_sorted_vecNtNtCsaqNsllmwM5m_12rustc_middle3ich15StableHashStateB15_B17_INtNtNtNtCskurZfFSl0zB_3std11collections4hash3map4IterB17_B1P_EEs_0E0ECs3VMMNsKb80B_13rustc_resolve
librustc_driver-fa31e2489381cd18.so:_RINvNtNtNtNtCs6e3rAaajRpB_4core5slice4sort8unstable8heapsort8heapsortTRNtNtCsiP3zVQcHmFl_10rustc_span6def_id5DefIdRNtNtNtCsaqNsllmwM5m_12rustc_middle6middle16exported_symbols16SymbolExportInfoENCINvMB8_SB15_20sort_unstable_by_keyNtB19_11DefPathHashNCINvNtCshmntTYxeqYP_21rustc_data_structures5unord13to_sorted_vecNtNtB1V_3ich15StableHashStateB15_B17_INtNtNtNtCskurZfFSl0zB_3std11collections4hash3map4IterB17_B1P_EEs_0E0ECsg0ydQtPiXpO_17rustc_codegen_ssa
librustc_driver-fa31e2489381cd18.so:_RINvNtNtNtNtCs6e3rAaajRpB_4core5slice4sort8unstable8heapsort8heapsortTRNtNtCsiP3zVQcHmFl_10rustc_span6symbol6SymbolB16_ENCINvMB8_SB15_16sort_unstable_byNCNvMsh_NtCshmntTYxeqYP_21rustc_data_structures5unordINtB2y_8UnordMapB17_B17_E20to_sorted_stable_ord0E0ECs73ymBF2OK4c_14rustc_metadata
librustc_driver-fa31e2489381cd18.so:_RINvNtNtNtNtCs6e3rAaajRpB_4core5slice4sort8unstable8heapsort8heapsortTRNtNtCsiP3zVQcHmFl_10rustc_span6symbol6SymbolB16_ENCINvMB8_SB15_16sort_unstable_byNCNvMsh_NtCshmntTYxeqYP_21rustc_data_structures5unordINtB2y_8UnordMapB17_B17_E20to_sorted_stable_ord0E0ECserPFC4ou40o_12rustc_passes
librustc_driver-fa31e2489381cd18.so:_RINvNtNtNtNtCs6e3rAaajRpB_4core5slice4sort8unstable8heapsort8heapsortTRNtNtCsiP3zVQcHmFl_10rustc_span6symbol6SymbolRTNtNtNtCsaqNsllmwM5m_12rustc_middle6middle12lib_features16FeatureStabilityNtNtB1b_13span_encoding4SpanEENCINvMB8_SB15_16sort_unstable_byNCNvMsh_NtCshmntTYxeqYP_21rustc_data_structures5unordINtB4a_8UnordMapB17_B1Q_E20to_sorted_stable_ord0E0EB1X_
librustc_driver-fa31e2489381cd18.so:_RINvNtNtNtNtCs6e3rAaajRpB_4core5slice4sort8unstable8heapsort8heapsortTRNtNtNtCsaqNsllmwM5m_12rustc_middle9dep_graph8dep_node13WorkProductIdRNtNtB1b_5graph11WorkProductENCINvMB8_SB15_16sort_unstable_byNCNvMsh_NtCshmntTYxeqYP_21rustc_data_structures5unordINtB3k_8UnordMapB17_B2e_E20to_sorted_stable_ord0E0ECslloyL1UMMzU_17rustc_incremental
librustc_driver-fa31e2489381cd18.so:_RINvNtNtNtNtCs6e3rAaajRpB_4core5slice4sort8unstable8heapsort8heapsortTRejENvYB15_NtNtBa_3cmp10PartialOrd2ltECsirwAroatyKs_18rustc_codegen_llvm
librustc_driver-fa31e2489381cd18.so:_RINvNtNtNtNtCs6e3rAaajRpB_4core5slice4sort8unstable8heapsort8heapsortTTNtCskk5ZUZA4NPw_15rustc_lint_defs5LevelReEjENvYB15_NtNtBa_3cmp10PartialOrd2ltECsjrSxtWsCjho_17rustc_driver_impl
librustc_driver-fa31e2489381cd18.so:_RINvNtNtNtNtCs6e3rAaajRpB_4core5slice4sort8unstable8heapsort8heapsortTTNtNtCsgvX44DZTN43_5alloc6string6StringmmEjENvYB15_NtNtBa_3cmp10PartialOrd2ltECs7ZgcGxgGJUk_21rustc_trait_selection
librustc_driver-fa31e2489381cd18.so:_RINvNtNtNtNtCs6e3rAaajRpB_4core5slice4sort8unstable8heapsort8heapsortTTjNtNtCsgvX44DZTN43_5alloc6string6StringEjENvYB15_NtNtBa_3cmp10PartialOrd2ltECs3VMMNsKb80B_13rustc_resolve
librustc_driver-fa31e2489381cd18.so:_RINvNtNtNtNtCs6e3rAaajRpB_4core5slice4sort8unstable8heapsort8heapsortTTjRReEjENvYB15_NtNtBa_3cmp10PartialOrd2ltECserPFC4ou40o_12rustc_passes
librustc_driver-fa31e2489381cd18.so:_RINvNtNtNtNtCs6e3rAaajRpB_4core5slice4sort8unstable8heapsort8heapsortTTlINtNtBa_6option6OptionNtNtCsgvX44DZTN43_5alloc6string6StringEEjENvYB15_NtNtBa_3cmp10PartialOrd2ltECs6qKlvMSJCFB_16rustc_hir_typeck
librustc_driver-fa31e2489381cd18.so:_RINvNtNtNtNtCs6e3rAaajRpB_4core5slice4sort8unstable8heapsort8heapsortTbjENvYB15_NtNtBa_3cmp10PartialOrd2ltECscUPtgnKeETP_18rustc_hir_analysis
librustc_driver-fa31e2489381cd18.so:_RINvNtNtNtNtCs6e3rAaajRpB_4core5slice4sort8unstable8heapsort8heapsortTbmENvYB15_NtNtBa_3cmp10PartialOrd2ltECscUPtgnKeETP_18rustc_hir_analysis
librustc_driver-fa31e2489381cd18.so:_RINvNtNtNtNtCs6e3rAaajRpB_4core5slice4sort8unstable8heapsort8heapsortTjjjRNtNtCsiP3zVQcHmFl_10rustc_span6symbol6SymbolNtNtB1e_7hygiene9MacroKindENvYB15_NtNtBa_3cmp10PartialOrd2ltECs3XAq0Kofjci_15rustc_interface
librustc_driver-fa31e2489381cd18.so:_RINvNtNtNtNtCs6e3rAaajRpB_4core5slice4sort8unstable8heapsort8heapsortcNvYcNtNtBa_3cmp10PartialOrd2ltECs1ufPwUoOuD2_10rustc_lint
librustc_driver-fa31e2489381cd18.so:_RINvNvMNtCshmntTYxeqYP_21rustc_data_structures9profilingNtB5_15SelfProfilerRef4exec9cold_callNCINvB4_13artifact_sizeINtNtCsgvX44DZTN43_5alloc6borrow3CoweEE0ECslloyL1UMMzU_17rustc_incremental
librustc_driver-fa31e2489381cd18.so:_RINvNvMNtCshmntTYxeqYP_21rustc_data_structures9profilingNtB5_15SelfProfilerRef4exec9cold_callNCINvB4_13artifact_sizeReE0ECsaqNsllmwM5m_12rustc_middle
librustc_driver-fa31e2489381cd18.so:_RINvNvMNtCshmntTYxeqYP_21rustc_data_structures9profilingNtB5_15SelfProfilerRef4exec9cold_callNCINvB4_25generic_activity_with_argReE0ECs4DnJvQYATGa_19rustc_mir_transform
librustc_driver-fa31e2489381cd18.so:_RINvNvMNtCshmntTYxeqYP_21rustc_data_structures9profilingNtB5_15SelfProfilerRef4exec9cold_callNCINvB4_25generic_activity_with_argReE0ECs73ymBF2OK4c_14rustc_metadata
librustc_driver-fa31e2489381cd18.so:_RINvNvMNtCshmntTYxeqYP_21rustc_data_structures9profilingNtB5_15SelfProfilerRef4exec9cold_callNCINvB4_25generic_activity_with_argReE0ECsaSsmK69njWG_16rustc_query_impl
librustc_driver-fa31e2489381cd18.so:_RINvNvMNtCshmntTYxeqYP_21rustc_data_structures9profilingNtB5_15SelfProfilerRef4exec9cold_callNCNvB4_13query_blocked0ECsaSsmK69njWG_16rustc_query_impl
librustc_driver-fa31e2489381cd18.so:_RINvNvMNtCshmntTYxeqYP_21rustc_data_structures9profilingNtB5_15SelfProfilerRef4exec9cold_callNCNvB4_14query_provider0ECsaSsmK69njWG_16rustc_query_impl
librustc_driver-fa31e2489381cd18.so:_RINvNvMNtCshmntTYxeqYP_21rustc_data_structures9profilingNtB5_15SelfProfilerRef4exec9cold_callNCNvB4_16generic_activity0EB7_
librustc_driver-fa31e2489381cd18.so:_RINvNvMNtCshmntTYxeqYP_21rustc_data_structures9profilingNtB5_15SelfProfilerRef4exec9cold_callNCNvB4_18incr_cache_loading0ECsaSsmK69njWG_16rustc_query_impl
librustc_driver-fa31e2489381cd18.so:_RINvNvMNtCshmntTYxeqYP_21rustc_data_structures9profilingNtB5_15SelfProfilerRef4exec9cold_callNCNvB4_19incr_result_hashing0ECsaqNsllmwM5m_12rustc_middle
librustc_driver-fa31e2489381cd18.so:_RINvNvMs2_NtCsgvX44DZTN43_5alloc7raw_vecINtB8_11RawVecInnerpE7reserve21do_reserve_and_handleNtNtBa_5alloc6GlobalECsc9RDTsdWIA2_9addr2line
librustc_driver-fa31e2489381cd18.so:_RINvNvXs2_NtCs7VfpXZLrpYp_17rustc_stable_hash13stable_hasherINtB8_12StableHasherpENtNtCs6e3rAaajRpB_4core4hash6Hasher11write_isize10hash_valueNtNtBa_6sip12812SipHasher128ECsiP3zVQcHmFl_10rustc_span
librustc_driver-fa31e2489381cd18.so:_RINvNvXs6_Cs1nPfWgukUQQ_8thin_vecINtB8_7ThinVecpENtNtNtCs6e3rAaajRpB_4core3ops4drop4Drop4drop18drop_non_singletonINtNtBR_6option6OptionNtNtCsd482UFdOvTO_9rustc_ast3ast7VariantEECsgfasDSBi4N4_11rustc_parse
librustc_driver-fa31e2489381cd18.so:_RINvNvXs6_Cs1nPfWgukUQQ_8thin_vecINtB8_7ThinVecpENtNtNtCs6e3rAaajRpB_4core3ops4drop4Drop4drop18drop_non_singletonINtNtCsbByapOItfY5_13rustc_type_ir9predicate8TraitRefNtNtNtCsaqNsllmwM5m_12rustc_middle2ty7context6TyCtxtEECs7ZgcGxgGJUk_21rustc_trait_selection
librustc_driver-fa31e2489381cd18.so:_RINvNvXs6_Cs1nPfWgukUQQ_8thin_vecINtB8_7ThinVecpENtNtNtCs6e3rAaajRpB_4core3ops4drop4Drop4drop18drop_non_singletonINtNtCsfWGFs8tRit9_11rustc_infer6traits10ObligationNtNtNtCsaqNsllmwM5m_12rustc_middle2ty9predicate9PredicateEEB1S_
librustc_driver-fa31e2489381cd18.so:_RINvNvXs6_Cs1nPfWgukUQQ_8thin_vecINtB8_7ThinVecpENtNtNtCs6e3rAaajRpB_4core3ops4drop4Drop4drop18drop_non_singletonINtNtCsgvX44DZTN43_5alloc5boxed3BoxINtNtCsd482UFdOvTO_9rustc_ast3ast4ItemNtB2p_13AssocItemKindEEEB2r_
librustc_driver-fa31e2489381cd18.so:_RINvNvXs6_Cs1nPfWgukUQQ_8thin_vecINtB8_7ThinVecpENtNtNtCs6e3rAaajRpB_4core3ops4drop4Drop4drop18drop_non_singletonINtNtCsgvX44DZTN43_5alloc5boxed3BoxINtNtCsd482UFdOvTO_9rustc_ast3ast4ItemNtB2p_15ForeignItemKindEEEB2r_
librustc_driver-fa31e2489381cd18.so:_RINvNvXs6_Cs1nPfWgukUQQ_8thin_vecINtB8_7ThinVecpENtNtNtCs6e3rAaajRpB_4core3ops4drop4Drop4drop18drop_non_singletonINtNtCsgvX44DZTN43_5alloc5boxed3BoxNtNtCsd482UFdOvTO_9rustc_ast3ast2TyEEB2q_
librustc_driver-fa31e2489381cd18.so:_RINvNvXs6_Cs1nPfWgukUQQ_8thin_vecINtB8_7ThinVecpENtNtNtCs6e3rAaajRpB_4core3ops4drop4Drop4drop18drop_non_singletonINtNtCsgvX44DZTN43_5alloc5boxed3BoxNtNtCsd482UFdOvTO_9rustc_ast3ast4ExprEEB2q_
librustc_driver-fa31e2489381cd18.so:_RINvNvXs6_Cs1nPfWgukUQQ_8thin_vecINtB8_7ThinVecpENtNtNtCs6e3rAaajRpB_4core3ops4drop4Drop4drop18drop_non_singletonINtNtCsgvX44DZTN43_5alloc5boxed3BoxNtNtCsd482UFdOvTO_9rustc_ast3ast4ItemEEB2q_
librustc_driver-fa31e2489381cd18.so:_RINvNvXs6_Cs1nPfWgukUQQ_8thin_vecINtB8_7ThinVecpENtNtNtCs6e3rAaajRpB_4core3ops4drop4Drop4drop18drop_non_singletonNtNtCsd482UFdOvTO_9rustc_ast11tokenstream9TokenTreeECsgfasDSBi4N4_11rustc_parse
librustc_driver-fa31e2489381cd18.so:_RINvNvXs6_Cs1nPfWgukUQQ_8thin_vecINtB8_7ThinVecpENtNtNtCs6e3rAaajRpB_4core3ops4drop4Drop4drop18drop_non_singletonNtNtCsd482UFdOvTO_9rustc_ast3ast10GenericArgECsgfasDSBi4N4_11rustc_parse
librustc_driver-fa31e2489381cd18.so:_RINvNvXs6_Cs1nPfWgukUQQ_8thin_vecINtB8_7ThinVecpENtNtNtCs6e3rAaajRpB_4core3ops4drop4Drop4drop18drop_non_singletonNtNtCsd482UFdOvTO_9rustc_ast3ast11PathSegmentEB1R_
librustc_driver-fa31e2489381cd18.so:_RINvNvXs6_Cs1nPfWgukUQQ_8thin_vecINtB8_7ThinVecpENtNtNtCs6e3rAaajRpB_4core3ops4drop4Drop4drop18drop_non_singletonNtNtCsd482UFdOvTO_9rustc_ast3ast12GenericParamEB1R_
librustc_driver-fa31e2489381cd18.so:_RINvNvXs6_Cs1nPfWgukUQQ_8thin_vecINtB8_7ThinVecpENtNtNtCs6e3rAaajRpB_4core3ops4drop4Drop4drop18drop_non_singletonNtNtCsd482UFdOvTO_9rustc_ast3ast13MetaItemInnerEB1R_
librustc_driver-fa31e2489381cd18.so:_RINvNvXs6_Cs1nPfWgukUQQ_8thin_vecINtB8_7ThinVecpENtNtNtCs6e3rAaajRpB_4core3ops4drop4Drop4drop18drop_non_singletonNtNtCsd482UFdOvTO_9rustc_ast3ast14WherePredicateEB1R_
librustc_driver-fa31e2489381cd18.so:_RINvNvXs6_Cs1nPfWgukUQQ_8thin_vecINtB8_7ThinVecpENtNtNtCs6e3rAaajRpB_4core3ops4drop4Drop4drop18drop_non_singletonNtNtCsd482UFdOvTO_9rustc_ast3ast17AngleBracketedArgEB1R_
librustc_driver-fa31e2489381cd18.so:_RINvNvXs6_Cs1nPfWgukUQQ_8thin_vecINtB8_7ThinVecpENtNtNtCs6e3rAaajRpB_4core3ops4drop4Drop4drop18drop_non_singletonNtNtCsd482UFdOvTO_9rustc_ast3ast19PreciseCapturingArgEB1R_
librustc_driver-fa31e2489381cd18.so:_RINvNvXs6_Cs1nPfWgukUQQ_8thin_vecINtB8_7ThinVecpENtNtNtCs6e3rAaajRpB_4core3ops4drop4Drop4drop18drop_non_singletonNtNtCsd482UFdOvTO_9rustc_ast3ast3ArmEB1R_
librustc_driver-fa31e2489381cd18.so:_RINvNvXs6_Cs1nPfWgukUQQ_8thin_vecINtB8_7ThinVecpENtNtNtCs6e3rAaajRpB_4core3ops4drop4Drop4drop18drop_non_singletonNtNtCsd482UFdOvTO_9rustc_ast3ast3PatEB1R_
librustc_driver-fa31e2489381cd18.so:_RINvNvXs6_Cs1nPfWgukUQQ_8thin_vecINtB8_7ThinVecpENtNtNtCs6e3rAaajRpB_4core3ops4drop4Drop4drop18drop_non_singletonNtNtCsd482UFdOvTO_9rustc_ast3ast4StmtEB1R_
librustc_driver-fa31e2489381cd18.so:_RINvNvXs6_Cs1nPfWgukUQQ_8thin_vecINtB8_7ThinVecpENtNtNtCs6e3rAaajRpB_4core3ops4drop4Drop4drop18drop_non_singletonNtNtCsd482UFdOvTO_9rustc_ast3ast5ParamEB1R_
librustc_driver-fa31e2489381cd18.so:_RINvNvXs6_Cs1nPfWgukUQQ_8thin_vecINtB8_7ThinVecpENtNtNtCs6e3rAaajRpB_4core3ops4drop4Drop4drop18drop_non_singletonNtNtCsd482UFdOvTO_9rustc_ast3ast5TyPatEB1R_
librustc_driver-fa31e2489381cd18.so:_RINvNvXs6_Cs1nPfWgukUQQ_8thin_vecINtB8_7ThinVecpENtNtNtCs6e3rAaajRpB_4core3ops4drop4Drop4drop18drop_non_singletonNtNtCsd482UFdOvTO_9rustc_ast3ast7EiiImplEB1R_
librustc_driver-fa31e2489381cd18.so:_RINvNvXs6_Cs1nPfWgukUQQ_8thin_vecINtB8_7ThinVecpENtNtNtCs6e3rAaajRpB_4core3ops4drop4Drop4drop18drop_non_singletonNtNtCsd482UFdOvTO_9rustc_ast3ast7VariantEB1R_
librustc_driver-fa31e2489381cd18.so:_RINvNvXs6_Cs1nPfWgukUQQ_8thin_vecINtB8_7ThinVecpENtNtNtCs6e3rAaajRpB_4core3ops4drop4Drop4drop18drop_non_singletonNtNtCsd482UFdOvTO_9rustc_ast3ast8FieldDefEB1R_
librustc_driver-fa31e2489381cd18.so:_RINvNvXs6_Cs1nPfWgukUQQ_8thin_vecINtB8_7ThinVecpENtNtNtCs6e3rAaajRpB_4core3ops4drop4Drop4drop18drop_non_singletonNtNtCsd482UFdOvTO_9rustc_ast3ast8PatFieldEB1R_
librustc_driver-fa31e2489381cd18.so:_RINvNvXs6_Cs1nPfWgukUQQ_8thin_vecINtB8_7ThinVecpENtNtNtCs6e3rAaajRpB_4core3ops4drop4Drop4drop18drop_non_singletonNtNtCsd482UFdOvTO_9rustc_ast3ast9AttributeEB1R_
librustc_driver-fa31e2489381cd18.so:_RINvNvXs6_Cs1nPfWgukUQQ_8thin_vecINtB8_7ThinVecpENtNtNtCs6e3rAaajRpB_4core3ops4drop4Drop4drop18drop_non_singletonNtNtCsd482UFdOvTO_9rustc_ast3ast9ExprFieldEB1R_
librustc_driver-fa31e2489381cd18.so:_RINvNvXs6_Cs1nPfWgukUQQ_8thin_vecINtB8_7ThinVecpENtNtNtCs6e3rAaajRpB_4core3ops4drop4Drop4drop18drop_non_singletonNtNtCsepwHxkHh5iF_18rustc_attr_parsing6parser19MetaItemOrLitParserEB1R_
librustc_driver-fa31e2489381cd18.so:_RINvNvXs6_Cs1nPfWgukUQQ_8thin_vecINtB8_7ThinVecpENtNtNtCs6e3rAaajRpB_4core3ops4drop4Drop4drop18drop_non_singletonNtNtCsiP3zVQcHmFl_10rustc_span13span_encoding4SpanECs3KflAWMuICG_9rustc_hir
librustc_driver-fa31e2489381cd18.so:_RINvNvXs6_Cs1nPfWgukUQQ_8thin_vecINtB8_7ThinVecpENtNtNtCs6e3rAaajRpB_4core3ops4drop4Drop4drop18drop_non_singletonNtNtCsiP3zVQcHmFl_10rustc_span6symbol5IdentECs3KflAWMuICG_9rustc_hir
librustc_driver-fa31e2489381cd18.so:_RINvNvXs6_Cs1nPfWgukUQQ_8thin_vecINtB8_7ThinVecpENtNtNtCs6e3rAaajRpB_4core3ops4drop4Drop4drop18drop_non_singletonNtNtCsiP3zVQcHmFl_10rustc_span6symbol6SymbolECs3KflAWMuICG_9rustc_hir
librustc_driver-fa31e2489381cd18.so:_RINvNvXs6_Cs1nPfWgukUQQ_8thin_vecINtB8_7ThinVecpENtNtNtCs6e3rAaajRpB_4core3ops4drop4Drop4drop18drop_non_singletonNtNtNtCs3KflAWMuICG_9rustc_hir5attrs10diagnostic12FormatStringEB1T_
librustc_driver-fa31e2489381cd18.so:_RINvNvXs6_Cs1nPfWgukUQQ_8thin_vecINtB8_7ThinVecpENtNtNtCs6e3rAaajRpB_4core3ops4drop4Drop4drop18drop_non_singletonNtNtNtCs3KflAWMuICG_9rustc_hir5attrs10diagnostic5PieceEB1T_
librustc_driver-fa31e2489381cd18.so:_RINvNvXs6_Cs1nPfWgukUQQ_8thin_vecINtB8_7ThinVecpENtNtNtCs6e3rAaajRpB_4core3ops4drop4Drop4drop18drop_non_singletonNtNtNtCs3KflAWMuICG_9rustc_hir5attrs10diagnostic8LitOrArgEB1T_
librustc_driver-fa31e2489381cd18.so:_RINvNvXs6_Cs1nPfWgukUQQ_8thin_vecINtB8_7ThinVecpENtNtNtCs6e3rAaajRpB_4core3ops4drop4Drop4drop18drop_non_singletonNtNtNtCs3KflAWMuICG_9rustc_hir5attrs10diagnostic9PredicateEB1T_
librustc_driver-fa31e2489381cd18.so:_RINvNvXs6_Cs1nPfWgukUQQ_8thin_vecINtB8_7ThinVecpENtNtNtCs6e3rAaajRpB_4core3ops4drop4Drop4drop18drop_non_singletonNtNtNtCs3KflAWMuICG_9rustc_hir5attrs15data_structures12RustcMirKindEB1T_
librustc_driver-fa31e2489381cd18.so:_RINvNvXs6_Cs1nPfWgukUQQ_8thin_vecINtB8_7ThinVecpENtNtNtCs6e3rAaajRpB_4core3ops4drop4Drop4drop18drop_non_singletonNtNtNtCs3KflAWMuICG_9rustc_hir5attrs15data_structures15DebugVisualizerEB1T_
librustc_driver-fa31e2489381cd18.so:_RINvNvXs6_Cs1nPfWgukUQQ_8thin_vecINtB8_7ThinVecpENtNtNtCs6e3rAaajRpB_4core3ops4drop4Drop4drop18drop_non_singletonNtNtNtCs3KflAWMuICG_9rustc_hir5attrs15data_structures19RustcCleanAttributeEB1T_
librustc_driver-fa31e2489381cd18.so:_RINvNvXs6_Cs1nPfWgukUQQ_8thin_vecINtB8_7ThinVecpENtNtNtCs6e3rAaajRpB_4core3ops4drop4Drop4drop18drop_non_singletonNtNtNtCs3KflAWMuICG_9rustc_hir5attrs15data_structures19RustcDumpLayoutKindEB1T_
librustc_driver-fa31e2489381cd18.so:_RINvNvXs6_Cs1nPfWgukUQQ_8thin_vecINtB8_7ThinVecpENtNtNtCs6e3rAaajRpB_4core3ops4drop4Drop4drop18drop_non_singletonNtNtNtCs3KflAWMuICG_9rustc_hir5attrs15data_structures22UnstableRemovedFeatureEB1T_
librustc_driver-fa31e2489381cd18.so:_RINvNvXs6_Cs1nPfWgukUQQ_8thin_vecINtB8_7ThinVecpENtNtNtCs6e3rAaajRpB_4core3ops4drop4Drop4drop18drop_non_singletonNtNtNtCs3KflAWMuICG_9rustc_hir5attrs15data_structures7CfgInfoEB1T_
librustc_driver-fa31e2489381cd18.so:_RINvNvXs6_Cs1nPfWgukUQQ_8thin_vecINtB8_7ThinVecpENtNtNtCs6e3rAaajRpB_4core3ops4drop4Drop4drop18drop_non_singletonNtNtNtCs3KflAWMuICG_9rustc_hir5attrs15data_structures7EiiImplEB1T_
librustc_driver-fa31e2489381cd18.so:_RINvNvXs6_Cs1nPfWgukUQQ_8thin_vecINtB8_7ThinVecpENtNtNtCs6e3rAaajRpB_4core3ops4drop4Drop4drop18drop_non_singletonNtNtNtCs3KflAWMuICG_9rustc_hir5attrs15data_structures9CrateTypeEB1T_
librustc_driver-fa31e2489381cd18.so:_RINvNvXs6_Cs1nPfWgukUQQ_8thin_vecINtB8_7ThinVecpENtNtNtCs6e3rAaajRpB_4core3ops4drop4Drop4drop18drop_non_singletonNtNtNtCs3KflAWMuICG_9rustc_hir5attrs15data_structures9LinkEntryEB1T_
librustc_driver-fa31e2489381cd18.so:_RINvNvXs6_Cs1nPfWgukUQQ_8thin_vecINtB8_7ThinVecpENtNtNtCs6e3rAaajRpB_4core3ops4drop4Drop4drop18drop_non_singletonNtNtNtCs7ZgcGxgGJUk_21rustc_trait_selection6traits7fulfill26PendingPredicateObligationEB1T_
librustc_driver-fa31e2489381cd18.so:_RINvNvXs6_Cs1nPfWgukUQQ_8thin_vecINtB8_7ThinVecpENtNtNtCs6e3rAaajRpB_4core3ops4drop4Drop4drop18drop_non_singletonNtNtNtCsd482UFdOvTO_9rustc_ast4attr15data_structures8CfgEntryEB1T_
librustc_driver-fa31e2489381cd18.so:_RINvNvXs6_Cs1nPfWgukUQQ_8thin_vecINtB8_7ThinVecpENtNtNtCs6e3rAaajRpB_4core3ops4drop4Drop4drop18drop_non_singletonNtNtNtCsd482UFdOvTO_9rustc_ast6expand14autodiff_attrs12DiffActivityECs3KflAWMuICG_9rustc_hir
librustc_driver-fa31e2489381cd18.so:_RINvNvXs6_Cs1nPfWgukUQQ_8thin_vecINtB8_7ThinVecpENtNtNtCs6e3rAaajRpB_4core3ops4drop4Drop4drop18drop_non_singletonTINtNtCsfWGFs8tRit9_11rustc_infer6traits10ObligationNtNtNtCsaqNsllmwM5m_12rustc_middle2ty9predicate9PredicateEINtNtBR_6option6OptionINtNtCsfJm8fGz6T7E_23rustc_next_trait_solver5solve13GoalStalledOnNtNtB2H_7context6TyCtxtEEEECs7ZgcGxgGJUk_21rustc_trait_selection
librustc_driver-fa31e2489381cd18.so:_RINvNvXs6_Cs1nPfWgukUQQ_8thin_vecINtB8_7ThinVecpENtNtNtCs6e3rAaajRpB_4core3ops4drop4Drop4drop18drop_non_singletonTNtNtCsd482UFdOvTO_9rustc_ast11tokenstream9NodeRangeINtNtBR_6option6OptionNtB1Q_11AttrsTargetEEEB1S_
librustc_driver-fa31e2489381cd18.so:_RINvNvXs6_Cs1nPfWgukUQQ_8thin_vecINtB8_7ThinVecpENtNtNtCs6e3rAaajRpB_4core3ops4drop4Drop4drop18drop_non_singletonTNtNtCsd482UFdOvTO_9rustc_ast3ast7UseTreeNtNtB1S_7node_id6NodeIdEEB1S_
librustc_driver-fa31e2489381cd18.so:_RINvNvXs6_Cs1nPfWgukUQQ_8thin_vecINtB8_7ThinVecpENtNtNtCs6e3rAaajRpB_4core3ops4drop4Drop4drop18drop_non_singletonTNtNtCsd482UFdOvTO_9rustc_ast7node_id6NodeIdNtNtB1S_3ast4PathEEB1S_
librustc_driver-fa31e2489381cd18.so:_RINvNvXs6_Cs1nPfWgukUQQ_8thin_vecINtB8_7ThinVecpENtNtNtCs6e3rAaajRpB_4core3ops4drop4Drop4drop18drop_non_singletonTNtNtCsiP3zVQcHmFl_10rustc_span13span_encoding4SpanNtNtNtCs3KflAWMuICG_9rustc_hir5attrs15data_structures9CguFieldsEEB2I_
librustc_driver-fa31e2489381cd18.so:_RINvNvXs6_Cs1nPfWgukUQQ_8thin_vecINtB8_7ThinVecpENtNtNtCs6e3rAaajRpB_4core3ops4drop4Drop4drop18drop_non_singletonTNtNtCsiP3zVQcHmFl_10rustc_span6symbol5IdentINtNtBR_6option6OptionB1O_EEECsd482UFdOvTO_9rustc_ast
librustc_driver-fa31e2489381cd18.so:_RINvNvXs6_Cs1nPfWgukUQQ_8thin_vecINtB8_7ThinVecpENtNtNtCs6e3rAaajRpB_4core3ops4drop4Drop4drop18drop_non_singletonTNtNtCsiP3zVQcHmFl_10rustc_span6symbol6SymbolNtNtB1S_13span_encoding4SpanEECs3KflAWMuICG_9rustc_hir
librustc_driver-fa31e2489381cd18.so:_RINvNvXs6_Cs1nPfWgukUQQ_8thin_vecINtB8_7ThinVecpENtNtNtCs6e3rAaajRpB_4core3ops4drop4Drop4drop18drop_non_singletonTNtNtNtCs3KflAWMuICG_9rustc_hir5attrs10diagnostic6FilterNtB1Q_9DirectiveEEB1U_
librustc_driver-fa31e2489381cd18.so:_RINvNvXs6_Cs1nPfWgukUQQ_8thin_vecINtB8_7ThinVecpENtNtNtCs6e3rAaajRpB_4core3ops4drop4Drop4drop18drop_non_singletonTNtNtNtCs3KflAWMuICG_9rustc_hir5attrs15data_structures11CfgHideShowNtNtCsiP3zVQcHmFl_10rustc_span13span_encoding4SpanEEB1U_
librustc_driver-fa31e2489381cd18.so:_RINvNvXs6_Cs1nPfWgukUQQ_8thin_vecINtB8_7ThinVecpENtNtNtCs6e3rAaajRpB_4core3ops4drop4Drop4drop18drop_non_singletonTNtNtNtCs3KflAWMuICG_9rustc_hir5attrs15data_structures8ReprAttrNtNtCsiP3zVQcHmFl_10rustc_span13span_encoding4SpanEEB1U_
librustc_driver-fa31e2489381cd18.so:_RINvNvXs6_Cs1nPfWgukUQQ_8thin_vecINtB8_7ThinVecpENtNtNtCs6e3rAaajRpB_4core3ops4drop4Drop4drop18drop_non_singletonTNtNtNtCs3KflAWMuICG_9rustc_hir5attrs15data_structures9DocInlineNtNtCsiP3zVQcHmFl_10rustc_span13span_encoding4SpanEEB1U_
librustc_driver-fa31e2489381cd18.so:_RINvNvXs6_Cs1nPfWgukUQQ_8thin_vecINtB8_7ThinVecpENtNtNtCs6e3rAaajRpB_4core3ops4drop4Drop4drop18drop_non_singletonTNtNtNtCsd482UFdOvTO_9rustc_ast4attr15data_structures8CfgEntryNtNtCsiP3zVQcHmFl_10rustc_span13span_encoding4SpanEECs3KflAWMuICG_9rustc_hir
librustc_driver-fa31e2489381cd18.so:_RINvNvXs6_Cs1nPfWgukUQQ_8thin_vecINtB8_7ThinVecpENtNtNtCs6e3rAaajRpB_4core3ops4drop4Drop4drop18drop_non_singletonTbNtNtCsiP3zVQcHmFl_10rustc_span13span_encoding4SpanEECs3KflAWMuICG_9rustc_hir
librustc_driver-fa31e2489381cd18.so:_RINvNvXs6_Cs1nPfWgukUQQ_8thin_vecINtB8_7ThinVecpENtNtNtCs6e3rAaajRpB_4core3ops4drop4Drop4drop18drop_non_singletonTjNtNtCsiP3zVQcHmFl_10rustc_span13span_encoding4SpanEECs3KflAWMuICG_9rustc_hir
librustc_driver-fa31e2489381cd18.so:_RINvNvXs6_Cs1nPfWgukUQQ_8thin_vecINtB8_7ThinVecpENtNtNtCs6e3rAaajRpB_4core3ops4drop4Drop4drop18drop_non_singletonhEB8_
librustc_driver-fa31e2489381cd18.so:_RINvNvXs6_Cs1nPfWgukUQQ_8thin_vecINtB8_7ThinVecpENtNtNtCs6e3rAaajRpB_4core3ops4drop4Drop4drop18drop_non_singletonuECs71nZXO5Zqa0_12rustc_traits
librustc_driver-fa31e2489381cd18.so:_RINvNvXs6_Cs1nPfWgukUQQ_8thin_vecINtB8_7ThinVecpENtNtNtCs6e3rAaajRpB_4core3ops4drop4Drop4drop18drop_non_singletonuECsaSsmK69njWG_16rustc_query_impl
librustc_driver-fa31e2489381cd18.so:_RINvNvXsG_Cs1nPfWgukUQQ_8thin_vecINtB8_8IntoIterpENtNtNtCs6e3rAaajRpB_4core3ops4drop4Drop4drop18drop_non_singletonINtNtBS_6option6OptionNtNtCsd482UFdOvTO_9rustc_ast3ast7VariantEECsgfasDSBi4N4_11rustc_parse
librustc_driver-fa31e2489381cd18.so:_RINvNvXsG_Cs1nPfWgukUQQ_8thin_vecINtB8_8IntoIterpENtNtNtCs6e3rAaajRpB_4core3ops4drop4Drop4drop18drop_non_singletonINtNtCsbByapOItfY5_13rustc_type_ir9predicate8TraitRefNtNtNtCsaqNsllmwM5m_12rustc_middle2ty7context6TyCtxtEECs7ZgcGxgGJUk_21rustc_trait_selection
librustc_driver-fa31e2489381cd18.so:_RINvNvXsG_Cs1nPfWgukUQQ_8thin_vecINtB8_8IntoIterpENtNtNtCs6e3rAaajRpB_4core3ops4drop4Drop4drop18drop_non_singletonINtNtCsfWGFs8tRit9_11rustc_infer6traits10ObligationNtNtNtCsaqNsllmwM5m_12rustc_middle2ty9predicate9PredicateEEB1T_
librustc_driver-fa31e2489381cd18.so:_RINvNvXsG_Cs1nPfWgukUQQ_8thin_vecINtB8_8IntoIterpENtNtNtCs6e3rAaajRpB_4core3ops4drop4Drop4drop18drop_non_singletonINtNtCsgvX44DZTN43_5alloc5boxed3BoxNtNtCsd482UFdOvTO_9rustc_ast3ast2TyEECsgfasDSBi4N4_11rustc_parse
librustc_driver-fa31e2489381cd18.so:_RINvNvXsG_Cs1nPfWgukUQQ_8thin_vecINtB8_8IntoIterpENtNtNtCs6e3rAaajRpB_4core3ops4drop4Drop4drop18drop_non_singletonINtNtCsgvX44DZTN43_5alloc5boxed3BoxNtNtCsd482UFdOvTO_9rustc_ast3ast4ExprEECsgfasDSBi4N4_11rustc_parse
librustc_driver-fa31e2489381cd18.so:_RINvNvXsG_Cs1nPfWgukUQQ_8thin_vecINtB8_8IntoIterpENtNtNtCs6e3rAaajRpB_4core3ops4drop4Drop4drop18drop_non_singletonNtNtCsd482UFdOvTO_9rustc_ast3ast11PathSegmentECsgfasDSBi4N4_11rustc_parse
librustc_driver-fa31e2489381cd18.so:_RINvNvXsG_Cs1nPfWgukUQQ_8thin_vecINtB8_8IntoIterpENtNtNtCs6e3rAaajRpB_4core3ops4drop4Drop4drop18drop_non_singletonNtNtCsd482UFdOvTO_9rustc_ast3ast12GenericParamECsgfasDSBi4N4_11rustc_parse
librustc_driver-fa31e2489381cd18.so:_RINvNvXsG_Cs1nPfWgukUQQ_8thin_vecINtB8_8IntoIterpENtNtNtCs6e3rAaajRpB_4core3ops4drop4Drop4drop18drop_non_singletonNtNtCsd482UFdOvTO_9rustc_ast3ast13MetaItemInnerEB1S_
librustc_driver-fa31e2489381cd18.so:_RINvNvXsG_Cs1nPfWgukUQQ_8thin_vecINtB8_8IntoIterpENtNtNtCs6e3rAaajRpB_4core3ops4drop4Drop4drop18drop_non_singletonNtNtCsd482UFdOvTO_9rustc_ast3ast14WherePredicateECsgfasDSBi4N4_11rustc_parse
librustc_driver-fa31e2489381cd18.so:_RINvNvXsG_Cs1nPfWgukUQQ_8thin_vecINtB8_8IntoIterpENtNtNtCs6e3rAaajRpB_4core3ops4drop4Drop4drop18drop_non_singletonNtNtCsd482UFdOvTO_9rustc_ast3ast3PatECsgfasDSBi4N4_11rustc_parse
librustc_driver-fa31e2489381cd18.so:_RINvNvXsG_Cs1nPfWgukUQQ_8thin_vecINtB8_8IntoIterpENtNtNtCs6e3rAaajRpB_4core3ops4drop4Drop4drop18drop_non_singletonNtNtCsd482UFdOvTO_9rustc_ast3ast5ParamECsgfasDSBi4N4_11rustc_parse
librustc_driver-fa31e2489381cd18.so:_RINvNvXsG_Cs1nPfWgukUQQ_8thin_vecINtB8_8IntoIterpENtNtNtCs6e3rAaajRpB_4core3ops4drop4Drop4drop18drop_non_singletonNtNtCsd482UFdOvTO_9rustc_ast3ast9AttributeECsgfasDSBi4N4_11rustc_parse
librustc_driver-fa31e2489381cd18.so:_RINvNvXsG_Cs1nPfWgukUQQ_8thin_vecINtB8_8IntoIterpENtNtNtCs6e3rAaajRpB_4core3ops4drop4Drop4drop18drop_non_singletonNtNtCsd482UFdOvTO_9rustc_ast3ast9ExprFieldECsgfasDSBi4N4_11rustc_parse
librustc_driver-fa31e2489381cd18.so:_RINvNvXsG_Cs1nPfWgukUQQ_8thin_vecINtB8_8IntoIterpENtNtNtCs6e3rAaajRpB_4core3ops4drop4Drop4drop18drop_non_singletonNtNtCsiP3zVQcHmFl_10rustc_span6symbol5IdentECsgWxL20S7Iv3_16rustc_ast_passes
librustc_driver-fa31e2489381cd18.so:_RINvNvXsG_Cs1nPfWgukUQQ_8thin_vecINtB8_8IntoIterpENtNtNtCs6e3rAaajRpB_4core3ops4drop4Drop4drop18drop_non_singletonNtNtNtCs3KflAWMuICG_9rustc_hir5attrs10diagnostic12FormatStringECsepwHxkHh5iF_18rustc_attr_parsing
librustc_driver-fa31e2489381cd18.so:_RINvNvXsG_Cs1nPfWgukUQQ_8thin_vecINtB8_8IntoIterpENtNtNtCs6e3rAaajRpB_4core3ops4drop4Drop4drop18drop_non_singletonNtNtNtCs3KflAWMuICG_9rustc_hir5attrs15data_structures12RustcMirKindECsepwHxkHh5iF_18rustc_attr_parsing
librustc_driver-fa31e2489381cd18.so:_RINvNvXsG_Cs1nPfWgukUQQ_8thin_vecINtB8_8IntoIterpENtNtNtCs6e3rAaajRpB_4core3ops4drop4Drop4drop18drop_non_singletonNtNtNtCs3KflAWMuICG_9rustc_hir5attrs15data_structures15DebugVisualizerECserPFC4ou40o_12rustc_passes
librustc_driver-fa31e2489381cd18.so:_RINvNvXsG_Cs1nPfWgukUQQ_8thin_vecINtB8_8IntoIterpENtNtNtCs6e3rAaajRpB_4core3ops4drop4Drop4drop18drop_non_singletonNtNtNtCs3KflAWMuICG_9rustc_hir5attrs15data_structures9CrateTypeECs3XAq0Kofjci_15rustc_interface
librustc_driver-fa31e2489381cd18.so:_RINvNvXsG_Cs1nPfWgukUQQ_8thin_vecINtB8_8IntoIterpENtNtNtCs6e3rAaajRpB_4core3ops4drop4Drop4drop18drop_non_singletonNtNtNtCs7ZgcGxgGJUk_21rustc_trait_selection6traits7fulfill26PendingPredicateObligationEB1U_
librustc_driver-fa31e2489381cd18.so:_RINvNvXsG_Cs1nPfWgukUQQ_8thin_vecINtB8_8IntoIterpENtNtNtCs6e3rAaajRpB_4core3ops4drop4Drop4drop18drop_non_singletonTINtNtCsfWGFs8tRit9_11rustc_infer6traits10ObligationNtNtNtCsaqNsllmwM5m_12rustc_middle2ty9predicate9PredicateEINtNtBS_6option6OptionINtNtCsfJm8fGz6T7E_23rustc_next_trait_solver5solve13GoalStalledOnNtNtB2I_7context6TyCtxtEEEECs7ZgcGxgGJUk_21rustc_trait_selection
librustc_driver-fa31e2489381cd18.so:_RINvNvXsG_Cs1nPfWgukUQQ_8thin_vecINtB8_8IntoIterpENtNtNtCs6e3rAaajRpB_4core3ops4drop4Drop4drop18drop_non_singletonuECs71nZXO5Zqa0_12rustc_traits
librustc_driver-fa31e2489381cd18.so:_RINvNvXsp_Cs1nPfWgukUQQ_8thin_vecINtB8_7ThinVecpENtNtCs6e3rAaajRpB_4core5clone5Clone5clone19clone_non_singletonINtNtCsfWGFs8tRit9_11rustc_infer6traits10ObligationNtNtNtCsaqNsllmwM5m_12rustc_middle2ty9predicate9PredicateEEB1Q_
librustc_driver-fa31e2489381cd18.so:_RINvNvXsp_Cs1nPfWgukUQQ_8thin_vecINtB8_7ThinVecpENtNtCs6e3rAaajRpB_4core5clone5Clone5clone19clone_non_singletonINtNtCsgvX44DZTN43_5alloc5boxed3BoxINtNtCsd482UFdOvTO_9rustc_ast3ast4ItemNtB2n_13AssocItemKindEEEB2p_
librustc_driver-fa31e2489381cd18.so:_RINvNvXsp_Cs1nPfWgukUQQ_8thin_vecINtB8_7ThinVecpENtNtCs6e3rAaajRpB_4core5clone5Clone5clone19clone_non_singletonINtNtCsgvX44DZTN43_5alloc5boxed3BoxINtNtCsd482UFdOvTO_9rustc_ast3ast4ItemNtB2n_15ForeignItemKindEEEB2p_
librustc_driver-fa31e2489381cd18.so:_RINvNvXsp_Cs1nPfWgukUQQ_8thin_vecINtB8_7ThinVecpENtNtCs6e3rAaajRpB_4core5clone5Clone5clone19clone_non_singletonINtNtCsgvX44DZTN43_5alloc5boxed3BoxNtNtCsd482UFdOvTO_9rustc_ast3ast2TyEEB2o_
librustc_driver-fa31e2489381cd18.so:_RINvNvXsp_Cs1nPfWgukUQQ_8thin_vecINtB8_7ThinVecpENtNtCs6e3rAaajRpB_4core5clone5Clone5clone19clone_non_singletonINtNtCsgvX44DZTN43_5alloc5boxed3BoxNtNtCsd482UFdOvTO_9rustc_ast3ast4ExprEEB2o_
librustc_driver-fa31e2489381cd18.so:_RINvNvXsp_Cs1nPfWgukUQQ_8thin_vecINtB8_7ThinVecpENtNtCs6e3rAaajRpB_4core5clone5Clone5clone19clone_non_singletonINtNtCsgvX44DZTN43_5alloc5boxed3BoxNtNtCsd482UFdOvTO_9rustc_ast3ast4ItemEEB2o_
librustc_driver-fa31e2489381cd18.so:_RINvNvXsp_Cs1nPfWgukUQQ_8thin_vecINtB8_7ThinVecpENtNtCs6e3rAaajRpB_4core5clone5Clone5clone19clone_non_singletonNtNtCsd482UFdOvTO_9rustc_ast3ast11PathSegmentEB1P_
librustc_driver-fa31e2489381cd18.so:_RINvNvXsp_Cs1nPfWgukUQQ_8thin_vecINtB8_7ThinVecpENtNtCs6e3rAaajRpB_4core5clone5Clone5clone19clone_non_singletonNtNtCsd482UFdOvTO_9rustc_ast3ast12GenericParamEB1P_
librustc_driver-fa31e2489381cd18.so:_RINvNvXsp_Cs1nPfWgukUQQ_8thin_vecINtB8_7ThinVecpENtNtCs6e3rAaajRpB_4core5clone5Clone5clone19clone_non_singletonNtNtCsd482UFdOvTO_9rustc_ast3ast13MetaItemInnerECs3VMMNsKb80B_13rustc_resolve
librustc_driver-fa31e2489381cd18.so:_RINvNvXsp_Cs1nPfWgukUQQ_8thin_vecINtB8_7ThinVecpENtNtCs6e3rAaajRpB_4core5clone5Clone5clone19clone_non_singletonNtNtCsd482UFdOvTO_9rustc_ast3ast13MetaItemInnerECsi5AUwtDDe5b_20rustc_builtin_macros
librustc_driver-fa31e2489381cd18.so:_RINvNvXsp_Cs1nPfWgukUQQ_8thin_vecINtB8_7ThinVecpENtNtCs6e3rAaajRpB_4core5clone5Clone5clone19clone_non_singletonNtNtCsd482UFdOvTO_9rustc_ast3ast14WherePredicateEB1P_
librustc_driver-fa31e2489381cd18.so:_RINvNvXsp_Cs1nPfWgukUQQ_8thin_vecINtB8_7ThinVecpENtNtCs6e3rAaajRpB_4core5clone5Clone5clone19clone_non_singletonNtNtCsd482UFdOvTO_9rustc_ast3ast17AngleBracketedArgEB1P_
librustc_driver-fa31e2489381cd18.so:_RINvNvXsp_Cs1nPfWgukUQQ_8thin_vecINtB8_7ThinVecpENtNtCs6e3rAaajRpB_4core5clone5Clone5clone19clone_non_singletonNtNtCsd482UFdOvTO_9rustc_ast3ast19PreciseCapturingArgEB1P_
librustc_driver-fa31e2489381cd18.so:_RINvNvXsp_Cs1nPfWgukUQQ_8thin_vecINtB8_7ThinVecpENtNtCs6e3rAaajRpB_4core5clone5Clone5clone19clone_non_singletonNtNtCsd482UFdOvTO_9rustc_ast3ast3ArmEB1P_
librustc_driver-fa31e2489381cd18.so:_RINvNvXsp_Cs1nPfWgukUQQ_8thin_vecINtB8_7ThinVecpENtNtCs6e3rAaajRpB_4core5clone5Clone5clone19clone_non_singletonNtNtCsd482UFdOvTO_9rustc_ast3ast3PatEB1P_
librustc_driver-fa31e2489381cd18.so:_RINvNvXsp_Cs1nPfWgukUQQ_8thin_vecINtB8_7ThinVecpENtNtCs6e3rAaajRpB_4core5clone5Clone5clone19clone_non_singletonNtNtCsd482UFdOvTO_9rustc_ast3ast4StmtEB1P_
librustc_driver-fa31e2489381cd18.so:_RINvNvXsp_Cs1nPfWgukUQQ_8thin_vecINtB8_7ThinVecpENtNtCs6e3rAaajRpB_4core5clone5Clone5clone19clone_non_singletonNtNtCsd482UFdOvTO_9rustc_ast3ast5ParamEB1P_
librustc_driver-fa31e2489381cd18.so:_RINvNvXsp_Cs1nPfWgukUQQ_8thin_vecINtB8_7ThinVecpENtNtCs6e3rAaajRpB_4core5clone5Clone5clone19clone_non_singletonNtNtCsd482UFdOvTO_9rustc_ast3ast5TyPatEB1P_
librustc_driver-fa31e2489381cd18.so:_RINvNvXsp_Cs1nPfWgukUQQ_8thin_vecINtB8_7ThinVecpENtNtCs6e3rAaajRpB_4core5clone5Clone5clone19clone_non_singletonNtNtCsd482UFdOvTO_9rustc_ast3ast7EiiImplEB1P_
librustc_driver-fa31e2489381cd18.so:_RINvNvXsp_Cs1nPfWgukUQQ_8thin_vecINtB8_7ThinVecpENtNtCs6e3rAaajRpB_4core5clone5Clone5clone19clone_non_singletonNtNtCsd482UFdOvTO_9rustc_ast3ast7VariantEB1P_
librustc_driver-fa31e2489381cd18.so:_RINvNvXsp_Cs1nPfWgukUQQ_8thin_vecINtB8_7ThinVecpENtNtCs6e3rAaajRpB_4core5clone5Clone5clone19clone_non_singletonNtNtCsd482UFdOvTO_9rustc_ast3ast8FieldDefEB1P_
librustc_driver-fa31e2489381cd18.so:_RINvNvXsp_Cs1nPfWgukUQQ_8thin_vecINtB8_7ThinVecpENtNtCs6e3rAaajRpB_4core5clone5Clone5clone19clone_non_singletonNtNtCsd482UFdOvTO_9rustc_ast3ast8PatFieldEB1P_
librustc_driver-fa31e2489381cd18.so:_RINvNvXsp_Cs1nPfWgukUQQ_8thin_vecINtB8_7ThinVecpENtNtCs6e3rAaajRpB_4core5clone5Clone5clone19clone_non_singletonNtNtCsd482UFdOvTO_9rustc_ast3ast9AttributeEB1P_
librustc_driver-fa31e2489381cd18.so:_RINvNvXsp_Cs1nPfWgukUQQ_8thin_vecINtB8_7ThinVecpENtNtCs6e3rAaajRpB_4core5clone5Clone5clone19clone_non_singletonNtNtCsd482UFdOvTO_9rustc_ast3ast9ExprFieldEB1P_
librustc_driver-fa31e2489381cd18.so:_RINvNvXsp_Cs1nPfWgukUQQ_8thin_vecINtB8_7ThinVecpENtNtCs6e3rAaajRpB_4core5clone5Clone5clone19clone_non_singletonNtNtCsiP3zVQcHmFl_10rustc_span13span_encoding4SpanECs6UwPWeCye2U_18rustc_ast_lowering
librustc_driver-fa31e2489381cd18.so:_RINvNvXsp_Cs1nPfWgukUQQ_8thin_vecINtB8_7ThinVecpENtNtCs6e3rAaajRpB_4core5clone5Clone5clone19clone_non_singletonNtNtCsiP3zVQcHmFl_10rustc_span6symbol5IdentECs6UwPWeCye2U_18rustc_ast_lowering
librustc_driver-fa31e2489381cd18.so:_RINvNvXsp_Cs1nPfWgukUQQ_8thin_vecINtB8_7ThinVecpENtNtCs6e3rAaajRpB_4core5clone5Clone5clone19clone_non_singletonNtNtCsiP3zVQcHmFl_10rustc_span6symbol6SymbolECs6UwPWeCye2U_18rustc_ast_lowering
librustc_driver-fa31e2489381cd18.so:_RINvNvXsp_Cs1nPfWgukUQQ_8thin_vecINtB8_7ThinVecpENtNtCs6e3rAaajRpB_4core5clone5Clone5clone19clone_non_singletonNtNtNtCs3KflAWMuICG_9rustc_hir5attrs10diagnostic12FormatStringECs6UwPWeCye2U_18rustc_ast_lowering
librustc_driver-fa31e2489381cd18.so:_RINvNvXsp_Cs1nPfWgukUQQ_8thin_vecINtB8_7ThinVecpENtNtCs6e3rAaajRpB_4core5clone5Clone5clone19clone_non_singletonNtNtNtCs3KflAWMuICG_9rustc_hir5attrs10diagnostic12FormatStringECs785ZPy54HPh_12rustc_expand
librustc_driver-fa31e2489381cd18.so:_RINvNvXsp_Cs1nPfWgukUQQ_8thin_vecINtB8_7ThinVecpENtNtCs6e3rAaajRpB_4core5clone5Clone5clone19clone_non_singletonNtNtNtCs3KflAWMuICG_9rustc_hir5attrs10diagnostic5PieceECs6UwPWeCye2U_18rustc_ast_lowering
librustc_driver-fa31e2489381cd18.so:_RINvNvXsp_Cs1nPfWgukUQQ_8thin_vecINtB8_7ThinVecpENtNtCs6e3rAaajRpB_4core5clone5Clone5clone19clone_non_singletonNtNtNtCs3KflAWMuICG_9rustc_hir5attrs10diagnostic5PieceECs785ZPy54HPh_12rustc_expand
librustc_driver-fa31e2489381cd18.so:_RINvNvXsp_Cs1nPfWgukUQQ_8thin_vecINtB8_7ThinVecpENtNtCs6e3rAaajRpB_4core5clone5Clone5clone19clone_non_singletonNtNtNtCs3KflAWMuICG_9rustc_hir5attrs10diagnostic8LitOrArgECs6UwPWeCye2U_18rustc_ast_lowering
librustc_driver-fa31e2489381cd18.so:_RINvNvXsp_Cs1nPfWgukUQQ_8thin_vecINtB8_7ThinVecpENtNtCs6e3rAaajRpB_4core5clone5Clone5clone19clone_non_singletonNtNtNtCs3KflAWMuICG_9rustc_hir5attrs10diagnostic8LitOrArgECs785ZPy54HPh_12rustc_expand
librustc_driver-fa31e2489381cd18.so:_RINvNvXsp_Cs1nPfWgukUQQ_8thin_vecINtB8_7ThinVecpENtNtCs6e3rAaajRpB_4core5clone5Clone5clone19clone_non_singletonNtNtNtCs3KflAWMuICG_9rustc_hir5attrs10diagnostic9PredicateECs6UwPWeCye2U_18rustc_ast_lowering
librustc_driver-fa31e2489381cd18.so:_RINvNvXsp_Cs1nPfWgukUQQ_8thin_vecINtB8_7ThinVecpENtNtCs6e3rAaajRpB_4core5clone5Clone5clone19clone_non_singletonNtNtNtCs3KflAWMuICG_9rustc_hir5attrs10diagnostic9PredicateECs785ZPy54HPh_12rustc_expand
librustc_driver-fa31e2489381cd18.so:_RINvNvXsp_Cs1nPfWgukUQQ_8thin_vecINtB8_7ThinVecpENtNtCs6e3rAaajRpB_4core5clone5Clone5clone19clone_non_singletonNtNtNtCs3KflAWMuICG_9rustc_hir5attrs15data_structures12RustcMirKindECs6UwPWeCye2U_18rustc_ast_lowering
librustc_driver-fa31e2489381cd18.so:_RINvNvXsp_Cs1nPfWgukUQQ_8thin_vecINtB8_7ThinVecpENtNtCs6e3rAaajRpB_4core5clone5Clone5clone19clone_non_singletonNtNtNtCs3KflAWMuICG_9rustc_hir5attrs15data_structures15DebugVisualizerECs6UwPWeCye2U_18rustc_ast_lowering
librustc_driver-fa31e2489381cd18.so:_RINvNvXsp_Cs1nPfWgukUQQ_8thin_vecINtB8_7ThinVecpENtNtCs6e3rAaajRpB_4core5clone5Clone5clone19clone_non_singletonNtNtNtCs3KflAWMuICG_9rustc_hir5attrs15data_structures19RustcCleanAttributeECs6UwPWeCye2U_18rustc_ast_lowering
librustc_driver-fa31e2489381cd18.so:_RINvNvXsp_Cs1nPfWgukUQQ_8thin_vecINtB8_7ThinVecpENtNtCs6e3rAaajRpB_4core5clone5Clone5clone19clone_non_singletonNtNtNtCs3KflAWMuICG_9rustc_hir5attrs15data_structures19RustcDumpLayoutKindECs6UwPWeCye2U_18rustc_ast_lowering
librustc_driver-fa31e2489381cd18.so:_RINvNvXsp_Cs1nPfWgukUQQ_8thin_vecINtB8_7ThinVecpENtNtCs6e3rAaajRpB_4core5clone5Clone5clone19clone_non_singletonNtNtNtCs3KflAWMuICG_9rustc_hir5attrs15data_structures22UnstableRemovedFeatureECs6UwPWeCye2U_18rustc_ast_lowering
librustc_driver-fa31e2489381cd18.so:_RINvNvXsp_Cs1nPfWgukUQQ_8thin_vecINtB8_7ThinVecpENtNtCs6e3rAaajRpB_4core5clone5Clone5clone19clone_non_singletonNtNtNtCs3KflAWMuICG_9rustc_hir5attrs15data_structures7CfgInfoECs6UwPWeCye2U_18rustc_ast_lowering
librustc_driver-fa31e2489381cd18.so:_RINvNvXsp_Cs1nPfWgukUQQ_8thin_vecINtB8_7ThinVecpENtNtCs6e3rAaajRpB_4core5clone5Clone5clone19clone_non_singletonNtNtNtCs3KflAWMuICG_9rustc_hir5attrs15data_structures7EiiImplECs6UwPWeCye2U_18rustc_ast_lowering
librustc_driver-fa31e2489381cd18.so:_RINvNvXsp_Cs1nPfWgukUQQ_8thin_vecINtB8_7ThinVecpENtNtCs6e3rAaajRpB_4core5clone5Clone5clone19clone_non_singletonNtNtNtCs3KflAWMuICG_9rustc_hir5attrs15data_structures9CrateTypeECs6UwPWeCye2U_18rustc_ast_lowering
librustc_driver-fa31e2489381cd18.so:_RINvNvXsp_Cs1nPfWgukUQQ_8thin_vecINtB8_7ThinVecpENtNtCs6e3rAaajRpB_4core5clone5Clone5clone19clone_non_singletonNtNtNtCs3KflAWMuICG_9rustc_hir5attrs15data_structures9LinkEntryECs6UwPWeCye2U_18rustc_ast_lowering
