libKF5BluezQt.so.6:_ZN7BluezQt11GattManager11qt_metacallEN11QMetaObject4CallEiPPv
libKF5BluezQt.so.6:_ZN7BluezQt11GattManager11qt_metacastEPKc
libKF5BluezQt.so.6:_ZN7BluezQt11GattManager19registerApplicationEPNS_15GattApplicationE
libKF5BluezQt.so.6:_ZN7BluezQt11GattManager21unregisterApplicationEPNS_15GattApplicationE
libKF5BluezQt.so.6:_ZN7BluezQt11GattManagerC1ERK7QStringP7QObject
libKF5BluezQt.so.6:_ZN7BluezQt11GattManagerC2ERK7QStringP7QObject
libKF5BluezQt.so.6:_ZN7BluezQt11GattManagerD0Ev
libKF5BluezQt.so.6:_ZN7BluezQt11GattManagerD1Ev
libKF5BluezQt.so.6:_ZN7BluezQt11GattManagerD2Ev
libKF5BluezQt.so.6:_ZN7BluezQt11GattService11qt_metacallEN11QMetaObject4CallEiPPv
libKF5BluezQt.so.6:_ZN7BluezQt11GattService11qt_metacastEPKc
libKF5BluezQt.so.6:_ZN7BluezQt11GattServiceC1ERK7QStringbPNS_15GattApplicationE
libKF5BluezQt.so.6:_ZN7BluezQt11GattServiceC2ERK7QStringbPNS_15GattApplicationE
libKF5BluezQt.so.6:_ZN7BluezQt11GattServiceD0Ev
libKF5BluezQt.so.6:_ZN7BluezQt11GattServiceD1Ev
libKF5BluezQt.so.6:_ZN7BluezQt11GattServiceD2Ev
libKF5BluezQt.so.6:_ZN7BluezQt11MediaPlayer10setShuffleENS0_7ShuffleE
libKF5BluezQt.so.6:_ZN7BluezQt11MediaPlayer11fastForwardEv
libKF5BluezQt.so.6:_ZN7BluezQt11MediaPlayer11nameChangedERK7QString
libKF5BluezQt.so.6:_ZN7BluezQt11MediaPlayer11qt_metacallEN11QMetaObject4CallEiPPv
libKF5BluezQt.so.6:_ZN7BluezQt11MediaPlayer11qt_metacastEPKc
libKF5BluezQt.so.6:_ZN7BluezQt11MediaPlayer12setEqualizerENS0_9EqualizerE
libKF5BluezQt.so.6:_ZN7BluezQt11MediaPlayer12trackChangedENS_16MediaPlayerTrackE
libKF5BluezQt.so.6:_ZN7BluezQt11MediaPlayer13repeatChangedENS0_6RepeatE
libKF5BluezQt.so.6:_ZN7BluezQt11MediaPlayer13statusChangedENS0_6StatusE
libKF5BluezQt.so.6:_ZN7BluezQt11MediaPlayer14shuffleChangedENS0_7ShuffleE
libKF5BluezQt.so.6:_ZN7BluezQt11MediaPlayer15positionChangedEj
libKF5BluezQt.so.6:_ZN7BluezQt11MediaPlayer16equalizerChangedENS0_9EqualizerE
libKF5BluezQt.so.6:_ZN7BluezQt11MediaPlayer4nextEv
libKF5BluezQt.so.6:_ZN7BluezQt11MediaPlayer4playEv
libKF5BluezQt.so.6:_ZN7BluezQt11MediaPlayer4stopEv
libKF5BluezQt.so.6:_ZN7BluezQt11MediaPlayer5pauseEv
libKF5BluezQt.so.6:_ZN7BluezQt11MediaPlayer6rewindEv
libKF5BluezQt.so.6:_ZN7BluezQt11MediaPlayer8previousEv
libKF5BluezQt.so.6:_ZN7BluezQt11MediaPlayer9setRepeatENS0_6RepeatE
libKF5BluezQt.so.6:_ZN7BluezQt11MediaPlayerC1ERK7QStringRK4QMapIS1_8QVariantE
libKF5BluezQt.so.6:_ZN7BluezQt11MediaPlayerC2ERK7QStringRK4QMapIS1_8QVariantE
libKF5BluezQt.so.6:_ZN7BluezQt11MediaPlayerD0Ev
libKF5BluezQt.so.6:_ZN7BluezQt11MediaPlayerD1Ev
libKF5BluezQt.so.6:_ZN7BluezQt11MediaPlayerD2Ev
libKF5BluezQt.so.6:_ZN7BluezQt11ObexManager11qt_metacallEN11QMetaObject4CallEiPPv
libKF5BluezQt.so.6:_ZN7BluezQt11ObexManager11qt_metacastEPKc
libKF5BluezQt.so.6:_ZN7BluezQt11ObexManager12sessionAddedE14QSharedPointerINS_11ObexSessionEE
libKF5BluezQt.so.6:_ZN7BluezQt11ObexManager12startServiceEv
libKF5BluezQt.so.6:_ZN7BluezQt11ObexManager13createSessionERK7QStringRK4QMapIS1_8QVariantE
libKF5BluezQt.so.6:_ZN7BluezQt11ObexManager13registerAgentEPNS_9ObexAgentE
libKF5BluezQt.so.6:_ZN7BluezQt11ObexManager13removeSessionERK15QDBusObjectPath
libKF5BluezQt.so.6:_ZN7BluezQt11ObexManager14sessionRemovedE14QSharedPointerINS_11ObexSessionEE
libKF5BluezQt.so.6:_ZN7BluezQt11ObexManager15unregisterAgentEPNS_9ObexAgentE
libKF5BluezQt.so.6:_ZN7BluezQt11ObexManager18operationalChangedEb
libKF5BluezQt.so.6:_ZN7BluezQt11ObexManager4initEv
libKF5BluezQt.so.6:_ZN7BluezQt11ObexManagerC1EP7QObject
libKF5BluezQt.so.6:_ZN7BluezQt11ObexManagerC2EP7QObject
libKF5BluezQt.so.6:_ZN7BluezQt11ObexManagerD0Ev
libKF5BluezQt.so.6:_ZN7BluezQt11ObexManagerD1Ev
libKF5BluezQt.so.6:_ZN7BluezQt11ObexManagerD2Ev
libKF5BluezQt.so.6:_ZN7BluezQt11ObexSession11qt_metacallEN11QMetaObject4CallEiPPv
libKF5BluezQt.so.6:_ZN7BluezQt11ObexSession11qt_metacastEPKc
libKF5BluezQt.so.6:_ZN7BluezQt11ObexSession15getCapabilitiesEv
libKF5BluezQt.so.6:_ZN7BluezQt11ObexSessionC1ERK7QStringRK4QMapIS1_8QVariantE
libKF5BluezQt.so.6:_ZN7BluezQt11ObexSessionC2ERK7QStringRK4QMapIS1_8QVariantE
libKF5BluezQt.so.6:_ZN7BluezQt11ObexSessionD0Ev
libKF5BluezQt.so.6:_ZN7BluezQt11ObexSessionD1Ev
libKF5BluezQt.so.6:_ZN7BluezQt11ObexSessionD2Ev
libKF5BluezQt.so.6:_ZN7BluezQt11PendingCall11qt_metacallEN11QMetaObject4CallEiPPv
libKF5BluezQt.so.6:_ZN7BluezQt11PendingCall11qt_metacastEPKc
libKF5BluezQt.so.6:_ZN7BluezQt11PendingCall11setUserDataERK8QVariant
libKF5BluezQt.so.6:_ZN7BluezQt11PendingCall15waitForFinishedEv
libKF5BluezQt.so.6:_ZN7BluezQt11PendingCall8finishedEPS0_
libKF5BluezQt.so.6:_ZN7BluezQt11PendingCallC1ENS0_5ErrorERK7QStringP7QObject
libKF5BluezQt.so.6:_ZN7BluezQt11PendingCallC1ERK16QDBusPendingCallNS0_10ReturnTypeEP7QObject
libKF5BluezQt.so.6:_ZN7BluezQt11PendingCallC1ERK16QDBusPendingCallSt8functionIFvP23QDBusPendingCallWatcherS4_IFvRK10QDBusErrorEEP5QListI8QVariantEEEP7QObject
libKF5BluezQt.so.6:_ZN7BluezQt11PendingCallC2ENS0_5ErrorERK7QStringP7QObject
libKF5BluezQt.so.6:_ZN7BluezQt11PendingCallC2ERK16QDBusPendingCallNS0_10ReturnTypeEP7QObject
libKF5BluezQt.so.6:_ZN7BluezQt11PendingCallC2ERK16QDBusPendingCallSt8functionIFvP23QDBusPendingCallWatcherS4_IFvRK10QDBusErrorEEP5QListI8QVariantEEEP7QObject
libKF5BluezQt.so.6:_ZN7BluezQt11PendingCallD0Ev
libKF5BluezQt.so.6:_ZN7BluezQt11PendingCallD1Ev
libKF5BluezQt.so.6:_ZN7BluezQt11PendingCallD2Ev
libKF5BluezQt.so.6:_ZN7BluezQt12DevicesModel11qt_metacallEN11QMetaObject4CallEiPPv
libKF5BluezQt.so.6:_ZN7BluezQt12DevicesModel11qt_metacastEPKc
libKF5BluezQt.so.6:_ZN7BluezQt12DevicesModelC1EPNS_7ManagerEP7QObject
libKF5BluezQt.so.6:_ZN7BluezQt12DevicesModelC2EPNS_7ManagerEP7QObject
libKF5BluezQt.so.6:_ZN7BluezQt12DevicesModelD0Ev
libKF5BluezQt.so.6:_ZN7BluezQt12DevicesModelD1Ev
libKF5BluezQt.so.6:_ZN7BluezQt12DevicesModelD2Ev
libKF5BluezQt.so.6:_ZN7BluezQt12ObexTransfer11qt_metacallEN11QMetaObject4CallEiPPv
libKF5BluezQt.so.6:_ZN7BluezQt12ObexTransfer11qt_metacastEPKc
libKF5BluezQt.so.6:_ZN7BluezQt12ObexTransfer13statusChangedENS0_6StatusE
libKF5BluezQt.so.6:_ZN7BluezQt12ObexTransfer15fileNameChangedERK7QString
libKF5BluezQt.so.6:_ZN7BluezQt12ObexTransfer18transferredChangedEy
libKF5BluezQt.so.6:_ZN7BluezQt12ObexTransfer6cancelEv
libKF5BluezQt.so.6:_ZN7BluezQt12ObexTransfer6resumeEv
libKF5BluezQt.so.6:_ZN7BluezQt12ObexTransfer7suspendEv
libKF5BluezQt.so.6:_ZN7BluezQt12ObexTransferC1ERK7QStringRK4QMapIS1_8QVariantE
libKF5BluezQt.so.6:_ZN7BluezQt12ObexTransferC2ERK7QStringRK4QMapIS1_8QVariantE
libKF5BluezQt.so.6:_ZN7BluezQt12ObexTransferD0Ev
libKF5BluezQt.so.6:_ZN7BluezQt12ObexTransferD1Ev
libKF5BluezQt.so.6:_ZN7BluezQt12ObexTransferD2Ev
libKF5BluezQt.so.6:_ZN7BluezQt13MediaEndpoint11qt_metacallEN11QMetaObject4CallEiPPv
libKF5BluezQt.so.6:_ZN7BluezQt13MediaEndpoint11qt_metacastEPKc
libKF5BluezQt.so.6:_ZN7BluezQt13MediaEndpoint16configurationSetERK7QStringRK4QMapIS1_8QVariantE
libKF5BluezQt.so.6:_ZN7BluezQt13MediaEndpoint16setConfigurationERK7QStringRK4QMapIS1_8QVariantE
libKF5BluezQt.so.6:_ZN7BluezQt13MediaEndpoint18clearConfigurationERK7QString
libKF5BluezQt.so.6:_ZN7BluezQt13MediaEndpoint19selectConfigurationERK10QByteArrayRKNS_7RequestIS1_EE
libKF5BluezQt.so.6:_ZN7BluezQt13MediaEndpoint20configurationClearedERK7QString
libKF5BluezQt.so.6:_ZN7BluezQt13MediaEndpoint21configurationSelectedERK10QByteArrayS3_
libKF5BluezQt.so.6:_ZN7BluezQt13MediaEndpoint7releaseEv
libKF5BluezQt.so.6:_ZN7BluezQt13MediaEndpointC1ERKNS0_13ConfigurationEP7QObject
libKF5BluezQt.so.6:_ZN7BluezQt13MediaEndpointC2ERKNS0_13ConfigurationEP7QObject
libKF5BluezQt.so.6:_ZN7BluezQt13MediaEndpointD0Ev
libKF5BluezQt.so.6:_ZN7BluezQt13MediaEndpointD1Ev
libKF5BluezQt.so.6:_ZN7BluezQt13MediaEndpointD2Ev
libKF5BluezQt.so.6:_ZN7BluezQt14InitManagerJob11qt_metacallEN11QMetaObject4CallEiPPv
libKF5BluezQt.so.6:_ZN7BluezQt14InitManagerJob11qt_metacastEPKc
libKF5BluezQt.so.6:_ZN7BluezQt14InitManagerJob12doEmitResultEv
libKF5BluezQt.so.6:_ZN7BluezQt14InitManagerJob6resultEPS0_
libKF5BluezQt.so.6:_ZN7BluezQt14InitManagerJob7doStartEv
libKF5BluezQt.so.6:_ZN7BluezQt14InitManagerJobC1EPNS_7ManagerE
libKF5BluezQt.so.6:_ZN7BluezQt14InitManagerJobC2EPNS_7ManagerE
libKF5BluezQt.so.6:_ZN7BluezQt14InitManagerJobD0Ev
libKF5BluezQt.so.6:_ZN7BluezQt14InitManagerJobD1Ev
libKF5BluezQt.so.6:_ZN7BluezQt14InitManagerJobD2Ev
libKF5BluezQt.so.6:_ZN7BluezQt14MediaTransport10tryAcquireEv
libKF5BluezQt.so.6:_ZN7BluezQt14MediaTransport11qt_metacallEN11QMetaObject4CallEiPPv
libKF5BluezQt.so.6:_ZN7BluezQt14MediaTransport11qt_metacastEPKc
libKF5BluezQt.so.6:_ZN7BluezQt14MediaTransport12stateChangedENS0_5StateE
libKF5BluezQt.so.6:_ZN7BluezQt14MediaTransport13volumeChangedEt
libKF5BluezQt.so.6:_ZN7BluezQt14MediaTransport7acquireEv
libKF5BluezQt.so.6:_ZN7BluezQt14MediaTransport7releaseEv
libKF5BluezQt.so.6:_ZN7BluezQt14MediaTransportC1ERK7QStringRK4QMapIS1_8QVariantE
libKF5BluezQt.so.6:_ZN7BluezQt14MediaTransportC2ERK7QStringRK4QMapIS1_8QVariantE
libKF5BluezQt.so.6:_ZN7BluezQt14MediaTransportD0Ev
libKF5BluezQt.so.6:_ZN7BluezQt14MediaTransportD1Ev
libKF5BluezQt.so.6:_ZN7BluezQt14MediaTransportD2Ev
libKF5BluezQt.so.6:_ZN7BluezQt14ObexObjectPush11qt_metacallEN11QMetaObject4CallEiPPv
libKF5BluezQt.so.6:_ZN7BluezQt14ObexObjectPush11qt_metacastEPKc
libKF5BluezQt.so.6:_ZN7BluezQt14ObexObjectPush16pullBusinessCardERK7QString
libKF5BluezQt.so.6:_ZN7BluezQt14ObexObjectPush21exchangeBusinessCardsERK7QStringS3_
libKF5BluezQt.so.6:_ZN7BluezQt14ObexObjectPush8sendFileERK7QString
libKF5BluezQt.so.6:_ZN7BluezQt14ObexObjectPushC1ERK15QDBusObjectPathP7QObject
libKF5BluezQt.so.6:_ZN7BluezQt14ObexObjectPushC2ERK15QDBusObjectPathP7QObject
libKF5BluezQt.so.6:_ZN7BluezQt14ObexObjectPushD0Ev
libKF5BluezQt.so.6:_ZN7BluezQt14ObexObjectPushD1Ev
libKF5BluezQt.so.6:_ZN7BluezQt14ObexObjectPushD2Ev
libKF5BluezQt.so.6:_ZN7BluezQt15GattApplication11qt_metacallEN11QMetaObject4CallEiPPv
libKF5BluezQt.so.6:_ZN7BluezQt15GattApplication11qt_metacastEPKc
libKF5BluezQt.so.6:_ZN7BluezQt15GattApplicationC1EP7QObject
libKF5BluezQt.so.6:_ZN7BluezQt15GattApplicationC1ERK7QStringP7QObject
libKF5BluezQt.so.6:_ZN7BluezQt15GattApplicationC2EP7QObject
libKF5BluezQt.so.6:_ZN7BluezQt15GattApplicationC2ERK7QStringP7QObject
libKF5BluezQt.so.6:_ZN7BluezQt15GattApplicationD0Ev
libKF5BluezQt.so.6:_ZN7BluezQt15GattApplicationD1Ev
libKF5BluezQt.so.6:_ZN7BluezQt15GattApplicationD2Ev
libKF5BluezQt.so.6:_ZN7BluezQt15LEAdvertisement11qt_metacallEN11QMetaObject4CallEiPPv
libKF5BluezQt.so.6:_ZN7BluezQt15LEAdvertisement11qt_metacastEPKc
libKF5BluezQt.so.6:_ZN7BluezQt15LEAdvertisement7releaseEv
libKF5BluezQt.so.6:_ZN7BluezQt15LEAdvertisementC1ERK11QStringListP7QObject
libKF5BluezQt.so.6:_ZN7BluezQt15LEAdvertisementC2ERK11QStringListP7QObject
libKF5BluezQt.so.6:_ZN7BluezQt15LEAdvertisementD0Ev
libKF5BluezQt.so.6:_ZN7BluezQt15LEAdvertisementD1Ev
libKF5BluezQt.so.6:_ZN7BluezQt15LEAdvertisementD2Ev
libKF5BluezQt.so.6:_ZN7BluezQt16MediaPlayerTrackC1ERK4QMapI7QString8QVariantE
libKF5BluezQt.so.6:_ZN7BluezQt16MediaPlayerTrackC1ERKS0_
libKF5BluezQt.so.6:_ZN7BluezQt16MediaPlayerTrackC1Ev
libKF5BluezQt.so.6:_ZN7BluezQt16MediaPlayerTrackC2ERK4QMapI7QString8QVariantE
libKF5BluezQt.so.6:_ZN7BluezQt16MediaPlayerTrackC2ERKS0_
libKF5BluezQt.so.6:_ZN7BluezQt16MediaPlayerTrackC2Ev
libKF5BluezQt.so.6:_ZN7BluezQt16MediaPlayerTrackD0Ev
libKF5BluezQt.so.6:_ZN7BluezQt16MediaPlayerTrackD1Ev
libKF5BluezQt.so.6:_ZN7BluezQt16MediaPlayerTrackD2Ev
libKF5BluezQt.so.6:_ZN7BluezQt16MediaPlayerTrackaSERKS0_
libKF5BluezQt.so.6:_ZN7BluezQt16ObexFileTransfer10deleteFileERK7QString
libKF5BluezQt.so.6:_ZN7BluezQt16ObexFileTransfer10listFolderEv
libKF5BluezQt.so.6:_ZN7BluezQt16ObexFileTransfer11qt_metacallEN11QMetaObject4CallEiPPv
libKF5BluezQt.so.6:_ZN7BluezQt16ObexFileTransfer11qt_metacastEPKc
libKF5BluezQt.so.6:_ZN7BluezQt16ObexFileTransfer12changeFolderERK7QString
libKF5BluezQt.so.6:_ZN7BluezQt16ObexFileTransfer12createFolderERK7QString
libKF5BluezQt.so.6:_ZN7BluezQt16ObexFileTransfer7getFileERK7QStringS3_
libKF5BluezQt.so.6:_ZN7BluezQt16ObexFileTransfer7putFileERK7QStringS3_
libKF5BluezQt.so.6:_ZN7BluezQt16ObexFileTransfer8copyFileERK7QStringS3_
libKF5BluezQt.so.6:_ZN7BluezQt16ObexFileTransfer8moveFileERK7QStringS3_
libKF5BluezQt.so.6:_ZN7BluezQt16ObexFileTransferC1ERK15QDBusObjectPathP7QObject
libKF5BluezQt.so.6:_ZN7BluezQt16ObexFileTransferC2ERK15QDBusObjectPathP7QObject
libKF5BluezQt.so.6:_ZN7BluezQt16ObexFileTransferD0Ev
libKF5BluezQt.so.6:_ZN7BluezQt16ObexFileTransferD1Ev
libKF5BluezQt.so.6:_ZN7BluezQt16ObexFileTransferD2Ev
libKF5BluezQt.so.6:_ZN7BluezQt18GattCharacteristic10writeValueERK10QByteArray
libKF5BluezQt.so.6:_ZN7BluezQt18GattCharacteristic11qt_metacallEN11QMetaObject4CallEiPPv
libKF5BluezQt.so.6:_ZN7BluezQt18GattCharacteristic11qt_metacastEPKc
libKF5BluezQt.so.6:_ZN7BluezQt18GattCharacteristic12valueWrittenERK10QByteArray
libKF5BluezQt.so.6:_ZN7BluezQt18GattCharacteristic15setReadCallbackESt8functionIF10QByteArrayvEE
libKF5BluezQt.so.6:_ZN7BluezQt18GattCharacteristic9readValueEv
libKF5BluezQt.so.6:_ZN7BluezQt18GattCharacteristicC1ERK7QStringPNS_11GattServiceE
libKF5BluezQt.so.6:_ZN7BluezQt18GattCharacteristicC2ERK7QStringPNS_11GattServiceE
libKF5BluezQt.so.6:_ZN7BluezQt18GattCharacteristicD0Ev
libKF5BluezQt.so.6:_ZN7BluezQt18GattCharacteristicD1Ev
libKF5BluezQt.so.6:_ZN7BluezQt18GattCharacteristicD2Ev
libKF5BluezQt.so.6:_ZN7BluezQt18InitObexManagerJob11qt_metacallEN11QMetaObject4CallEiPPv
libKF5BluezQt.so.6:_ZN7BluezQt18InitObexManagerJob11qt_metacastEPKc
libKF5BluezQt.so.6:_ZN7BluezQt18InitObexManagerJob12doEmitResultEv
libKF5BluezQt.so.6:_ZN7BluezQt18InitObexManagerJob6resultEPS0_
libKF5BluezQt.so.6:_ZN7BluezQt18InitObexManagerJob7doStartEv
libKF5BluezQt.so.6:_ZN7BluezQt18InitObexManagerJobC1EPNS_11ObexManagerE
libKF5BluezQt.so.6:_ZN7BluezQt18InitObexManagerJobC2EPNS_11ObexManagerE
libKF5BluezQt.so.6:_ZN7BluezQt18InitObexManagerJobD0Ev
libKF5BluezQt.so.6:_ZN7BluezQt18InitObexManagerJobD1Ev
libKF5BluezQt.so.6:_ZN7BluezQt18InitObexManagerJobD2Ev
libKF5BluezQt.so.6:_ZN7BluezQt20LEAdvertisingManager11qt_metacallEN11QMetaObject4CallEiPPv
libKF5BluezQt.so.6:_ZN7BluezQt20LEAdvertisingManager11qt_metacastEPKc
libKF5BluezQt.so.6:_ZN7BluezQt20LEAdvertisingManager21registerAdvertisementEPNS_15LEAdvertisementE
libKF5BluezQt.so.6:_ZN7BluezQt20LEAdvertisingManager23unregisterAdvertisementEPNS_15LEAdvertisementE
libKF5BluezQt.so.6:_ZN7BluezQt20LEAdvertisingManagerC1ERK7QStringP7QObject
libKF5BluezQt.so.6:_ZN7BluezQt20LEAdvertisingManagerC2ERK7QStringP7QObject
libKF5BluezQt.so.6:_ZN7BluezQt20LEAdvertisingManagerD0Ev
libKF5BluezQt.so.6:_ZN7BluezQt20LEAdvertisingManagerD1Ev
libKF5BluezQt.so.6:_ZN7BluezQt20LEAdvertisingManagerD2Ev
libKF5BluezQt.so.6:_ZN7BluezQt21ObexFileTransferEntryC1ERK4QMapI7QString8QVariantE
libKF5BluezQt.so.6:_ZN7BluezQt21ObexFileTransferEntryC1ERKS0_
libKF5BluezQt.so.6:_ZN7BluezQt21ObexFileTransferEntryC1Ev
libKF5BluezQt.so.6:_ZN7BluezQt21ObexFileTransferEntryC2ERK4QMapI7QString8QVariantE
libKF5BluezQt.so.6:_ZN7BluezQt21ObexFileTransferEntryC2ERKS0_
libKF5BluezQt.so.6:_ZN7BluezQt21ObexFileTransferEntryC2Ev
libKF5BluezQt.so.6:_ZN7BluezQt21ObexFileTransferEntryD0Ev
libKF5BluezQt.so.6:_ZN7BluezQt21ObexFileTransferEntryD1Ev
libKF5BluezQt.so.6:_ZN7BluezQt21ObexFileTransferEntryD2Ev
libKF5BluezQt.so.6:_ZN7BluezQt21ObexFileTransferEntryaSERKS0_
libKF5BluezQt.so.6:_ZN7BluezQt28bluezqt_initFakeBluezTestRunEv
libKF5BluezQt.so.6:_ZN7BluezQt3Job10emitResultEv
libKF5BluezQt.so.6:_ZN7BluezQt3Job11qt_metacallEN11QMetaObject4CallEiPPv
libKF5BluezQt.so.6:_ZN7BluezQt3Job11qt_metacastEPKc
libKF5BluezQt.so.6:_ZN7BluezQt3Job12setErrorTextERK7QString
libKF5BluezQt.so.6:_ZN7BluezQt3Job4execEv
libKF5BluezQt.so.6:_ZN7BluezQt3Job4killEv
libKF5BluezQt.so.6:_ZN7BluezQt3Job5startEv
libKF5BluezQt.so.6:_ZN7BluezQt3Job8setErrorEi
libKF5BluezQt.so.6:_ZN7BluezQt3JobC1EP7QObject
libKF5BluezQt.so.6:_ZN7BluezQt3JobC2EP7QObject
libKF5BluezQt.so.6:_ZN7BluezQt3JobD0Ev
libKF5BluezQt.so.6:_ZN7BluezQt3JobD1Ev
libKF5BluezQt.so.6:_ZN7BluezQt3JobD2Ev
libKF5BluezQt.so.6:_ZN7BluezQt5Agent11qt_metacallEN11QMetaObject4CallEiPPv
libKF5BluezQt.so.6:_ZN7BluezQt5Agent11qt_metacastEPKc
libKF5BluezQt.so.6:_ZN7BluezQt5Agent14displayPasskeyE14QSharedPointerINS_6DeviceEERK7QStringS6_
libKF5BluezQt.so.6:_ZN7BluezQt5Agent14displayPinCodeE14QSharedPointerINS_6DeviceEERK7QString
libKF5BluezQt.so.6:_ZN7BluezQt5Agent14requestPasskeyE14QSharedPointerINS_6DeviceEERKNS_7RequestIjEE
libKF5BluezQt.so.6:_ZN7BluezQt5Agent14requestPinCodeE14QSharedPointerINS_6DeviceEERKNS_7RequestI7QStringEE
libKF5BluezQt.so.6:_ZN7BluezQt5Agent16authorizeServiceE14QSharedPointerINS_6DeviceEERK7QStringRKNS_7RequestIvEE
libKF5BluezQt.so.6:_ZN7BluezQt5Agent19requestConfirmationE14QSharedPointerINS_6DeviceEERK7QStringRKNS_7RequestIvEE
libKF5BluezQt.so.6:_ZN7BluezQt5Agent20requestAuthorizationE14QSharedPointerINS_6DeviceEERKNS_7RequestIvEE
libKF5BluezQt.so.6:_ZN7BluezQt5Agent6cancelEv
libKF5BluezQt.so.6:_ZN7BluezQt5Agent7releaseEv
libKF5BluezQt.so.6:_ZN7BluezQt5AgentC1EP7QObject
libKF5BluezQt.so.6:_ZN7BluezQt5AgentC2EP7QObject
libKF5BluezQt.so.6:_ZN7BluezQt5Input11qt_metacallEN11QMetaObject4CallEiPPv
libKF5BluezQt.so.6:_ZN7BluezQt5Input11qt_metacastEPKc
libKF5BluezQt.so.6:_ZN7BluezQt5Input20reconnectModeChangedENS0_13ReconnectModeE
libKF5BluezQt.so.6:_ZN7BluezQt5InputC1ERK7QStringRK4QMapIS1_8QVariantE
libKF5BluezQt.so.6:_ZN7BluezQt5InputC2ERK7QStringRK4QMapIS1_8QVariantE
libKF5BluezQt.so.6:_ZN7BluezQt5InputD0Ev
libKF5BluezQt.so.6:_ZN7BluezQt5InputD1Ev
libKF5BluezQt.so.6:_ZN7BluezQt5InputD2Ev
libKF5BluezQt.so.6:_ZN7BluezQt5Media11qt_metacallEN11QMetaObject4CallEiPPv
libKF5BluezQt.so.6:_ZN7BluezQt5Media11qt_metacastEPKc
libKF5BluezQt.so.6:_ZN7BluezQt5Media16registerEndpointEPNS_13MediaEndpointE
libKF5BluezQt.so.6:_ZN7BluezQt5Media18unregisterEndpointEPNS_13MediaEndpointE
libKF5BluezQt.so.6:_ZN7BluezQt5MediaC1ERK7QStringP7QObject
libKF5BluezQt.so.6:_ZN7BluezQt5MediaC2ERK7QStringP7QObject
libKF5BluezQt.so.6:_ZN7BluezQt5MediaD0Ev
libKF5BluezQt.so.6:_ZN7BluezQt5MediaD1Ev
libKF5BluezQt.so.6:_ZN7BluezQt5MediaD2Ev
libKF5BluezQt.so.6:_ZN7BluezQt6Device10setBlockedEb
libKF5BluezQt.so.6:_ZN7BluezQt6Device10setTrustedEb
libKF5BluezQt.so.6:_ZN7BluezQt6Device11iconChangedERK7QString
libKF5BluezQt.so.6:_ZN7BluezQt6Device11nameChangedERK7QString
libKF5BluezQt.so.6:_ZN7BluezQt6Device11qt_metacallEN11QMetaObject4CallEiPPv
libKF5BluezQt.so.6:_ZN7BluezQt6Device11qt_metacastEPKc
libKF5BluezQt.so.6:_ZN7BluezQt6Device11rssiChangedEs
libKF5BluezQt.so.6:_ZN7BluezQt6Device11typeChangedENS0_4TypeE
libKF5BluezQt.so.6:_ZN7BluezQt6Device12inputChangedE14QSharedPointerINS_5InputEE
libKF5BluezQt.so.6:_ZN7BluezQt6Device12stringToTypeERK7QString
libKF5BluezQt.so.6:_ZN7BluezQt6Device12typeToStringENS0_4TypeE
libKF5BluezQt.so.6:_ZN7BluezQt6Device12uuidsChangedERK11QStringList
libKF5BluezQt.so.6:_ZN7BluezQt6Device13cancelPairingEv
libKF5BluezQt.so.6:_ZN7BluezQt6Device13deviceChangedE14QSharedPointerIS0_E
libKF5BluezQt.so.6:_ZN7BluezQt6Device13deviceRemovedE14QSharedPointerIS0_E
libKF5BluezQt.so.6:_ZN7BluezQt6Device13pairedChangedEb
libKF5BluezQt.so.6:_ZN7BluezQt6Device14addressChangedERK7QString
libKF5BluezQt.so.6:_ZN7BluezQt6Device14batteryChangedE14QSharedPointerINS_7BatteryEE
libKF5BluezQt.so.6:_ZN7BluezQt6Device14blockedChangedEb
libKF5BluezQt.so.6:_ZN7BluezQt6Device14connectProfileERK7QString
libKF5BluezQt.so.6:_ZN7BluezQt6Device14trustedChangedEb
libKF5BluezQt.so.6:_ZN7BluezQt6Device15connectToDeviceEv
libKF5BluezQt.so.6:_ZN7BluezQt6Device15modaliasChangedERK7QString
libKF5BluezQt.so.6:_ZN7BluezQt6Device16connectedChangedEb
libKF5BluezQt.so.6:_ZN7BluezQt6Device17appearanceChangedEt
libKF5BluezQt.so.6:_ZN7BluezQt6Device17disconnectProfileERK7QString
libKF5BluezQt.so.6:_ZN7BluezQt6Device17remoteNameChangedERK7QString
libKF5BluezQt.so.6:_ZN7BluezQt6Device18deviceClassChangedEj
libKF5BluezQt.so.6:_ZN7BluezQt6Device18mediaPlayerChangedE14QSharedPointerINS_11MediaPlayerEE
libKF5BluezQt.so.6:_ZN7BluezQt6Device19friendlyNameChangedERK7QString
libKF5BluezQt.so.6:_ZN7BluezQt6Device20disconnectFromDeviceEv
libKF5BluezQt.so.6:_ZN7BluezQt6Device20legacyPairingChangedEb
libKF5BluezQt.so.6:_ZN7BluezQt6Device21mediaTransportChangedE14QSharedPointerINS_14MediaTransportEE
libKF5BluezQt.so.6:_ZN7BluezQt6Device4pairEv
libKF5BluezQt.so.6:_ZN7BluezQt6Device7setNameERK7QString
libKF5BluezQt.so.6:_ZN7BluezQt6DeviceC1ERK7QStringRK4QMapIS1_8QVariantE14QSharedPointerINS_7AdapterEE
libKF5BluezQt.so.6:_ZN7BluezQt6DeviceC2ERK7QStringRK4QMapIS1_8QVariantE14QSharedPointerINS_7AdapterEE
libKF5BluezQt.so.6:_ZN7BluezQt6DeviceD0Ev
libKF5BluezQt.so.6:_ZN7BluezQt6DeviceD1Ev
libKF5BluezQt.so.6:_ZN7BluezQt6DeviceD2Ev
libKF5BluezQt.so.6:_ZN7BluezQt7Adapter10setPoweredEb
libKF5BluezQt.so.6:_ZN7BluezQt7Adapter11deviceAddedE14QSharedPointerINS_6DeviceEE
libKF5BluezQt.so.6:_ZN7BluezQt7Adapter11nameChangedERK7QString
libKF5BluezQt.so.6:_ZN7BluezQt7Adapter11qt_metacallEN11QMetaObject4CallEiPPv
libKF5BluezQt.so.6:_ZN7BluezQt7Adapter11qt_metacastEPKc
libKF5BluezQt.so.6:_ZN7BluezQt7Adapter11setPairableEb
libKF5BluezQt.so.6:_ZN7BluezQt7Adapter12mediaChangedE14QSharedPointerINS_5MediaEE
libKF5BluezQt.so.6:_ZN7BluezQt7Adapter12removeDeviceE14QSharedPointerINS_6DeviceEE
libKF5BluezQt.so.6:_ZN7BluezQt7Adapter12uuidsChangedERK11QStringList
libKF5BluezQt.so.6:_ZN7BluezQt7Adapter13deviceChangedE14QSharedPointerINS_6DeviceEE
libKF5BluezQt.so.6:_ZN7BluezQt7Adapter13deviceRemovedE14QSharedPointerINS_6DeviceEE
libKF5BluezQt.so.6:_ZN7BluezQt7Adapter13isDiscoveringEv
libKF5BluezQt.so.6:_ZN7BluezQt7Adapter13stopDiscoveryEv
libKF5BluezQt.so.6:_ZN7BluezQt7Adapter14adapterChangedE14QSharedPointerIS0_E
libKF5BluezQt.so.6:_ZN7BluezQt7Adapter14adapterRemovedE14QSharedPointerIS0_E
libKF5BluezQt.so.6:_ZN7BluezQt7Adapter14poweredChangedEb
libKF5BluezQt.so.6:_ZN7BluezQt7Adapter14startDiscoveryEv
libKF5BluezQt.so.6:_ZN7BluezQt7Adapter15modaliasChangedERK7QString
libKF5BluezQt.so.6:_ZN7BluezQt7Adapter15pairableChangedEb
libKF5BluezQt.so.6:_ZN7BluezQt7Adapter15setDiscoverableEb
libKF5BluezQt.so.6:_ZN7BluezQt7Adapter17systemNameChangedERK7QString
libKF5BluezQt.so.6:_ZN7BluezQt7Adapter18discoveringChangedEb
libKF5BluezQt.so.6:_ZN7BluezQt7Adapter18gattManagerChangedE14QSharedPointerINS_11GattManagerEE
libKF5BluezQt.so.6:_ZN7BluezQt7Adapter18setPairableTimeoutEj
libKF5BluezQt.so.6:_ZN7BluezQt7Adapter19adapterClassChangedEj
libKF5BluezQt.so.6:_ZN7BluezQt7Adapter19discoverableChangedEb
libKF5BluezQt.so.6:_ZN7BluezQt7Adapter22pairableTimeoutChangedEj
libKF5BluezQt.so.6:_ZN7BluezQt7Adapter22setDiscoverableTimeoutEj
libKF5BluezQt.so.6:_ZN7BluezQt7Adapter26discoverableTimeoutChangedEj
libKF5BluezQt.so.6:_ZN7BluezQt7Adapter27leAdvertisingManagerChangedE14QSharedPointerINS_20LEAdvertisingManagerEE
libKF5BluezQt.so.6:_ZN7BluezQt7Adapter7setNameERK7QString
libKF5BluezQt.so.6:_ZN7BluezQt7AdapterC1ERK7QStringRK4QMapIS1_8QVariantE
libKF5BluezQt.so.6:_ZN7BluezQt7AdapterC2ERK7QStringRK4QMapIS1_8QVariantE
libKF5BluezQt.so.6:_ZN7BluezQt7AdapterD0Ev
libKF5BluezQt.so.6:_ZN7BluezQt7AdapterD1Ev
libKF5BluezQt.so.6:_ZN7BluezQt7AdapterD2Ev
libKF5BluezQt.so.6:_ZN7BluezQt7Battery11qt_metacallEN11QMetaObject4CallEiPPv
libKF5BluezQt.so.6:_ZN7BluezQt7Battery11qt_metacastEPKc
libKF5BluezQt.so.6:_ZN7BluezQt7Battery17percentageChangedEi
libKF5BluezQt.so.6:_ZN7BluezQt7BatteryC1ERK7QStringRK4QMapIS1_8QVariantE
libKF5BluezQt.so.6:_ZN7BluezQt7BatteryC2ERK7QStringRK4QMapIS1_8QVariantE
libKF5BluezQt.so.6:_ZN7BluezQt7BatteryD0Ev
libKF5BluezQt.so.6:_ZN7BluezQt7BatteryD1Ev
libKF5BluezQt.so.6:_ZN7BluezQt7BatteryD2Ev
libKF5BluezQt.so.6:_ZN7BluezQt7Manager11deviceAddedE14QSharedPointerINS_6DeviceEE
libKF5BluezQt.so.6:_ZN7BluezQt7Manager11qt_metacallEN11QMetaObject4CallEiPPv
libKF5BluezQt.so.6:_ZN7BluezQt7Manager11qt_metacastEPKc
libKF5BluezQt.so.6:_ZN7BluezQt7Manager12adapterAddedE14QSharedPointerINS_7AdapterEE
libKF5BluezQt.so.6:_ZN7BluezQt7Manager12startServiceEv
libKF5BluezQt.so.6:_ZN7BluezQt7Manager13deviceChangedE14QSharedPointerINS_6DeviceEE
libKF5BluezQt.so.6:_ZN7BluezQt7Manager13deviceRemovedE14QSharedPointerINS_6DeviceEE
libKF5BluezQt.so.6:_ZN7BluezQt7Manager13registerAgentEPNS_5AgentE
libKF5BluezQt.so.6:_ZN7BluezQt7Manager14adapterChangedE14QSharedPointerINS_7AdapterEE
libKF5BluezQt.so.6:_ZN7BluezQt7Manager14adapterRemovedE14QSharedPointerINS_7AdapterEE
libKF5BluezQt.so.6:_ZN7BluezQt7Manager15registerProfileEPNS_7ProfileE
libKF5BluezQt.so.6:_ZN7BluezQt7Manager15unregisterAgentEPNS_5AgentE
libKF5BluezQt.so.6:_ZN7BluezQt7Manager17unregisterProfileEPNS_7ProfileE
libKF5BluezQt.so.6:_ZN7BluezQt7Manager18allAdaptersRemovedEv
libKF5BluezQt.so.6:_ZN7BluezQt7Manager18operationalChangedEb
libKF5BluezQt.so.6:_ZN7BluezQt7Manager19requestDefaultAgentEPNS_5AgentE
libKF5BluezQt.so.6:_ZN7BluezQt7Manager19setBluetoothBlockedEb
libKF5BluezQt.so.6:_ZN7BluezQt7Manager20usableAdapterChangedE14QSharedPointerINS_7AdapterEE
libKF5BluezQt.so.6:_ZN7BluezQt7Manager23bluetoothBlockedChangedEb
libKF5BluezQt.so.6:_ZN7BluezQt7Manager27bluetoothOperationalChangedEb
libKF5BluezQt.so.6:_ZN7BluezQt7Manager4initEv
libKF5BluezQt.so.6:_ZN7BluezQt7ManagerC1EP7QObject
libKF5BluezQt.so.6:_ZN7BluezQt7ManagerC2EP7QObject
libKF5BluezQt.so.6:_ZN7BluezQt7ManagerD0Ev
libKF5BluezQt.so.6:_ZN7BluezQt7ManagerD1Ev
libKF5BluezQt.so.6:_ZN7BluezQt7ManagerD2Ev
libKF5BluezQt.so.6:_ZN7BluezQt7Profile10setChannelEt
libKF5BluezQt.so.6:_ZN7BluezQt7Profile10setServiceERK7QString
libKF5BluezQt.so.6:_ZN7BluezQt7Profile10setVersionEt
libKF5BluezQt.so.6:_ZN7BluezQt7Profile11qt_metacallEN11QMetaObject4CallEiPPv
libKF5BluezQt.so.6:_ZN7BluezQt7Profile11qt_metacastEPKc
libKF5BluezQt.so.6:_ZN7BluezQt7Profile11setFeaturesEt
libKF5BluezQt.so.6:_ZN7BluezQt7Profile12createSocketERK23QDBusUnixFileDescriptor
libKF5BluezQt.so.6:_ZN7BluezQt7Profile12setLocalRoleENS0_9LocalRoleE
libKF5BluezQt.so.6:_ZN7BluezQt7Profile13newConnectionE14QSharedPointerINS_6DeviceEERK23QDBusUnixFileDescriptorRK4QMapI7QString8QVariantERKNS_7RequestIvEE
libKF5BluezQt.so.6:_ZN7BluezQt7Profile14setAutoConnectEb
libKF5BluezQt.so.6:_ZN7BluezQt7Profile16setServiceRecordERK7QString
libKF5BluezQt.so.6:_ZN7BluezQt7Profile20requestDisconnectionE14QSharedPointerINS_6DeviceEERKNS_7RequestIvEE
libKF5BluezQt.so.6:_ZN7BluezQt7Profile23setRequireAuthorizationEb
libKF5BluezQt.so.6:_ZN7BluezQt7Profile24setRequireAuthenticationEb
libKF5BluezQt.so.6:_ZN7BluezQt7Profile6setPsmEt
libKF5BluezQt.so.6:_ZN7BluezQt7Profile7releaseEv
libKF5BluezQt.so.6:_ZN7BluezQt7Profile7setNameERK7QString
libKF5BluezQt.so.6:_ZN7BluezQt7ProfileC1EP7QObject
libKF5BluezQt.so.6:_ZN7BluezQt7ProfileC2EP7QObject
libKF5BluezQt.so.6:_ZN7BluezQt7ProfileD0Ev
libKF5BluezQt.so.6:_ZN7BluezQt7ProfileD1Ev
libKF5BluezQt.so.6:_ZN7BluezQt7ProfileD2Ev
libKF5BluezQt.so.6:_ZN7BluezQt7RequestI10QByteArrayEC1ENS_22RequestOriginatingTypeERK12QDBusMessage
libKF5BluezQt.so.6:_ZN7BluezQt7RequestI10QByteArrayEC1ERKS2_
libKF5BluezQt.so.6:_ZN7BluezQt7RequestI10QByteArrayEC1Ev
libKF5BluezQt.so.6:_ZN7BluezQt7RequestI10QByteArrayEC2ENS_22RequestOriginatingTypeERK12QDBusMessage
libKF5BluezQt.so.6:_ZN7BluezQt7RequestI10QByteArrayEC2ERKS2_
libKF5BluezQt.so.6:_ZN7BluezQt7RequestI10QByteArrayEC2Ev
libKF5BluezQt.so.6:_ZN7BluezQt7RequestI10QByteArrayED0Ev
libKF5BluezQt.so.6:_ZN7BluezQt7RequestI10QByteArrayED1Ev
libKF5BluezQt.so.6:_ZN7BluezQt7RequestI10QByteArrayED2Ev
libKF5BluezQt.so.6:_ZN7BluezQt7RequestI10QByteArrayEaSERKS2_
libKF5BluezQt.so.6:_ZN7BluezQt7RequestI7QStringEC1ENS_22RequestOriginatingTypeERK12QDBusMessage
libKF5BluezQt.so.6:_ZN7BluezQt7RequestI7QStringEC1ERKS2_
libKF5BluezQt.so.6:_ZN7BluezQt7RequestI7QStringEC1Ev
libKF5BluezQt.so.6:_ZN7BluezQt7RequestI7QStringEC2ENS_22RequestOriginatingTypeERK12QDBusMessage
libKF5BluezQt.so.6:_ZN7BluezQt7RequestI7QStringEC2ERKS2_
libKF5BluezQt.so.6:_ZN7BluezQt7RequestI7QStringEC2Ev
libKF5BluezQt.so.6:_ZN7BluezQt7RequestI7QStringED0Ev
libKF5BluezQt.so.6:_ZN7BluezQt7RequestI7QStringED1Ev
libKF5BluezQt.so.6:_ZN7BluezQt7RequestI7QStringED2Ev
libKF5BluezQt.so.6:_ZN7BluezQt7RequestI7QStringEaSERKS2_
libKF5BluezQt.so.6:_ZN7BluezQt7RequestIjEC1ENS_22RequestOriginatingTypeERK12QDBusMessage
libKF5BluezQt.so.6:_ZN7BluezQt7RequestIjEC1ERKS1_
libKF5BluezQt.so.6:_ZN7BluezQt7RequestIjEC1Ev
libKF5BluezQt.so.6:_ZN7BluezQt7RequestIjEC2ENS_22RequestOriginatingTypeERK12QDBusMessage
libKF5BluezQt.so.6:_ZN7BluezQt7RequestIjEC2ERKS1_
libKF5BluezQt.so.6:_ZN7BluezQt7RequestIjEC2Ev
libKF5BluezQt.so.6:_ZN7BluezQt7RequestIjED0Ev
libKF5BluezQt.so.6:_ZN7BluezQt7RequestIjED1Ev
libKF5BluezQt.so.6:_ZN7BluezQt7RequestIjED2Ev
libKF5BluezQt.so.6:_ZN7BluezQt7RequestIjEaSERKS1_
libKF5BluezQt.so.6:_ZN7BluezQt7RequestIvEC1ENS_22RequestOriginatingTypeERK12QDBusMessage
libKF5BluezQt.so.6:_ZN7BluezQt7RequestIvEC1ERKS1_
libKF5BluezQt.so.6:_ZN7BluezQt7RequestIvEC1Ev
libKF5BluezQt.so.6:_ZN7BluezQt7RequestIvEC2ENS_22RequestOriginatingTypeERK12QDBusMessage
libKF5BluezQt.so.6:_ZN7BluezQt7RequestIvEC2ERKS1_
libKF5BluezQt.so.6:_ZN7BluezQt7RequestIvEC2Ev
libKF5BluezQt.so.6:_ZN7BluezQt7RequestIvED0Ev
libKF5BluezQt.so.6:_ZN7BluezQt7RequestIvED1Ev
libKF5BluezQt.so.6:_ZN7BluezQt7RequestIvED2Ev
libKF5BluezQt.so.6:_ZN7BluezQt7RequestIvEaSERKS1_
libKF5BluezQt.so.6:_ZN7BluezQt9ObexAgent11qt_metacallEN11QMetaObject4CallEiPPv
libKF5BluezQt.so.6:_ZN7BluezQt9ObexAgent11qt_metacastEPKc
libKF5BluezQt.so.6:_ZN7BluezQt9ObexAgent13authorizePushE14QSharedPointerINS_12ObexTransferEES1_INS_11ObexSessionEERKNS_7RequestI7QStringEE
libKF5BluezQt.so.6:_ZN7BluezQt9ObexAgent6cancelEv
libKF5BluezQt.so.6:_ZN7BluezQt9ObexAgent7releaseEv
libKF5BluezQt.so.6:_ZN7BluezQt9ObexAgentC1EP7QObject
libKF5BluezQt.so.6:_ZN7BluezQt9ObexAgentC2EP7QObject
libKF5BluezQt.so.6:_ZNK7BluezQt11GattManager10metaObjectEv
libKF5BluezQt.so.6:_ZNK7BluezQt11GattService10metaObjectEv
libKF5BluezQt.so.6:_ZNK7BluezQt11GattService10objectPathEv
libKF5BluezQt.so.6:_ZNK7BluezQt11GattService4uuidEv
libKF5BluezQt.so.6:_ZNK7BluezQt11GattService9isPrimaryEv
libKF5BluezQt.so.6:_ZNK7BluezQt11MediaPlayer10metaObjectEv
libKF5BluezQt.so.6:_ZNK7BluezQt11MediaPlayer11toSharedPtrEv
libKF5BluezQt.so.6:_ZNK7BluezQt11MediaPlayer4nameEv
libKF5BluezQt.so.6:_ZNK7BluezQt11MediaPlayer5trackEv
libKF5BluezQt.so.6:_ZNK7BluezQt11MediaPlayer6repeatEv
libKF5BluezQt.so.6:_ZNK7BluezQt11MediaPlayer6statusEv
libKF5BluezQt.so.6:_ZNK7BluezQt11MediaPlayer7shuffleEv
libKF5BluezQt.so.6:_ZNK7BluezQt11MediaPlayer8positionEv
libKF5BluezQt.so.6:_ZNK7BluezQt11MediaPlayer9equalizerEv
libKF5BluezQt.so.6:_ZNK7BluezQt11ObexManager10metaObjectEv
libKF5BluezQt.so.6:_ZNK7BluezQt11ObexManager13isInitializedEv
libKF5BluezQt.so.6:_ZNK7BluezQt11ObexManager13isOperationalEv
libKF5BluezQt.so.6:_ZNK7BluezQt11ObexManager14sessionForPathERK15QDBusObjectPath
libKF5BluezQt.so.6:_ZNK7BluezQt11ObexManager8sessionsEv
libKF5BluezQt.so.6:_ZNK7BluezQt11ObexSession10metaObjectEv
libKF5BluezQt.so.6:_ZNK7BluezQt11ObexSession10objectPathEv
libKF5BluezQt.so.6:_ZNK7BluezQt11ObexSession11destinationEv
libKF5BluezQt.so.6:_ZNK7BluezQt11ObexSession11toSharedPtrEv
libKF5BluezQt.so.6:_ZNK7BluezQt11ObexSession4rootEv
libKF5BluezQt.so.6:_ZNK7BluezQt11ObexSession6sourceEv
libKF5BluezQt.so.6:_ZNK7BluezQt11ObexSession6targetEv
libKF5BluezQt.so.6:_ZNK7BluezQt11ObexSession7channelEv
libKF5BluezQt.so.6:_ZNK7BluezQt11PendingCall10isFinishedEv
libKF5BluezQt.so.6:_ZNK7BluezQt11PendingCall10metaObjectEv
libKF5BluezQt.so.6:_ZNK7BluezQt11PendingCall5errorEv
libKF5BluezQt.so.6:_ZNK7BluezQt11PendingCall5valueEv
libKF5BluezQt.so.6:_ZNK7BluezQt11PendingCall6valuesEv
libKF5BluezQt.so.6:_ZNK7BluezQt11PendingCall8userDataEv
libKF5BluezQt.so.6:_ZNK7BluezQt11PendingCall9errorTextEv
libKF5BluezQt.so.6:_ZNK7BluezQt12DevicesModel10metaObjectEv
libKF5BluezQt.so.6:_ZNK7BluezQt12DevicesModel4dataERK11QModelIndexi
libKF5BluezQt.so.6:_ZNK7BluezQt12DevicesModel5indexEiiRK11QModelIndex
libKF5BluezQt.so.6:_ZNK7BluezQt12DevicesModel6deviceERK11QModelIndex
libKF5BluezQt.so.6:_ZNK7BluezQt12DevicesModel8rowCountERK11QModelIndex
libKF5BluezQt.so.6:_ZNK7BluezQt12DevicesModel9roleNamesEv
libKF5BluezQt.so.6:_ZNK7BluezQt12ObexTransfer10metaObjectEv
libKF5BluezQt.so.6:_ZNK7BluezQt12ObexTransfer10objectPathEv
libKF5BluezQt.so.6:_ZNK7BluezQt12ObexTransfer11toSharedPtrEv
libKF5BluezQt.so.6:_ZNK7BluezQt12ObexTransfer11transferredEv
libKF5BluezQt.so.6:_ZNK7BluezQt12ObexTransfer13isSuspendableEv
libKF5BluezQt.so.6:_ZNK7BluezQt12ObexTransfer4nameEv
libKF5BluezQt.so.6:_ZNK7BluezQt12ObexTransfer4sizeEv
libKF5BluezQt.so.6:_ZNK7BluezQt12ObexTransfer4timeEv
libKF5BluezQt.so.6:_ZNK7BluezQt12ObexTransfer4typeEv
libKF5BluezQt.so.6:_ZNK7BluezQt12ObexTransfer6statusEv
libKF5BluezQt.so.6:_ZNK7BluezQt12ObexTransfer8fileNameEv
libKF5BluezQt.so.6:_ZNK7BluezQt13MediaEndpoint10metaObjectEv
libKF5BluezQt.so.6:_ZNK7BluezQt13MediaEndpoint10objectPathEv
libKF5BluezQt.so.6:_ZNK7BluezQt13MediaEndpoint10propertiesEv
libKF5BluezQt.so.6:_ZNK7BluezQt14InitManagerJob10metaObjectEv
libKF5BluezQt.so.6:_ZNK7BluezQt14InitManagerJob7managerEv
libKF5BluezQt.so.6:_ZNK7BluezQt14MediaTransport10metaObjectEv
libKF5BluezQt.so.6:_ZNK7BluezQt14MediaTransport18audioConfigurationEv
libKF5BluezQt.so.6:_ZNK7BluezQt14MediaTransport5stateEv
libKF5BluezQt.so.6:_ZNK7BluezQt14MediaTransport6volumeEv
libKF5BluezQt.so.6:_ZNK7BluezQt14ObexObjectPush10metaObjectEv
libKF5BluezQt.so.6:_ZNK7BluezQt14ObexObjectPush10objectPathEv
libKF5BluezQt.so.6:_ZNK7BluezQt15GattApplication10metaObjectEv
libKF5BluezQt.so.6:_ZNK7BluezQt15GattApplication10objectPathEv
libKF5BluezQt.so.6:_ZNK7BluezQt15LEAdvertisement10metaObjectEv
libKF5BluezQt.so.6:_ZNK7BluezQt15LEAdvertisement10objectPathEv
libKF5BluezQt.so.6:_ZNK7BluezQt15LEAdvertisement12serviceUuidsEv
libKF5BluezQt.so.6:_ZNK7BluezQt16MediaPlayerTrack11trackNumberEv
libKF5BluezQt.so.6:_ZNK7BluezQt16MediaPlayerTrack14numberOfTracksEv
libKF5BluezQt.so.6:_ZNK7BluezQt16MediaPlayerTrack5albumEv
libKF5BluezQt.so.6:_ZNK7BluezQt16MediaPlayerTrack5genreEv
libKF5BluezQt.so.6:_ZNK7BluezQt16MediaPlayerTrack5titleEv
libKF5BluezQt.so.6:_ZNK7BluezQt16MediaPlayerTrack6artistEv
libKF5BluezQt.so.6:_ZNK7BluezQt16MediaPlayerTrack7isValidEv
libKF5BluezQt.so.6:_ZNK7BluezQt16MediaPlayerTrack8durationEv
libKF5BluezQt.so.6:_ZNK7BluezQt16ObexFileTransfer10metaObjectEv
libKF5BluezQt.so.6:_ZNK7BluezQt16ObexFileTransfer10objectPathEv
libKF5BluezQt.so.6:_ZNK7BluezQt18GattCharacteristic10metaObjectEv
libKF5BluezQt.so.6:_ZNK7BluezQt18GattCharacteristic10objectPathEv
libKF5BluezQt.so.6:_ZNK7BluezQt18GattCharacteristic4uuidEv
libKF5BluezQt.so.6:_ZNK7BluezQt18GattCharacteristic7serviceEv
libKF5BluezQt.so.6:_ZNK7BluezQt18InitObexManagerJob10metaObjectEv
libKF5BluezQt.so.6:_ZNK7BluezQt18InitObexManagerJob7managerEv
libKF5BluezQt.so.6:_ZNK7BluezQt20LEAdvertisingManager10metaObjectEv
libKF5BluezQt.so.6:_ZNK7BluezQt21ObexFileTransferEntry10memoryTypeEv
libKF5BluezQt.so.6:_ZNK7BluezQt21ObexFileTransferEntry11permissionsEv
libKF5BluezQt.so.6:_ZNK7BluezQt21ObexFileTransferEntry16modificationTimeEv
libKF5BluezQt.so.6:_ZNK7BluezQt21ObexFileTransferEntry4nameEv
libKF5BluezQt.so.6:_ZNK7BluezQt21ObexFileTransferEntry4sizeEv
libKF5BluezQt.so.6:_ZNK7BluezQt21ObexFileTransferEntry4typeEv
libKF5BluezQt.so.6:_ZNK7BluezQt21ObexFileTransferEntry5labelEv
libKF5BluezQt.so.6:_ZNK7BluezQt21ObexFileTransferEntry7isValidEv
libKF5BluezQt.so.6:_ZNK7BluezQt3Job10isFinishedEv
libKF5BluezQt.so.6:_ZNK7BluezQt3Job10metaObjectEv
libKF5BluezQt.so.6:_ZNK7BluezQt3Job5errorEv
libKF5BluezQt.so.6:_ZNK7BluezQt3Job9errorTextEv
libKF5BluezQt.so.6:_ZNK7BluezQt3Job9isRunningEv
libKF5BluezQt.so.6:_ZNK7BluezQt5Agent10capabilityEv
libKF5BluezQt.so.6:_ZNK7BluezQt5Agent10metaObjectEv
libKF5BluezQt.so.6:_ZNK7BluezQt5Input10metaObjectEv
libKF5BluezQt.so.6:_ZNK7BluezQt5Input11toSharedPtrEv
libKF5BluezQt.so.6:_ZNK7BluezQt5Input13reconnectModeEv
libKF5BluezQt.so.6:_ZNK7BluezQt5Media10metaObjectEv
libKF5BluezQt.so.6:_ZNK7BluezQt6Device10appearanceEv
libKF5BluezQt.so.6:_ZNK7BluezQt6Device10metaObjectEv
libKF5BluezQt.so.6:_ZNK7BluezQt6Device10remoteNameEv
libKF5BluezQt.so.6:_ZNK7BluezQt6Device11deviceClassEv
libKF5BluezQt.so.6:_ZNK7BluezQt6Device11isConnectedEv
libKF5BluezQt.so.6:_ZNK7BluezQt6Device11mediaPlayerEv
libKF5BluezQt.so.6:_ZNK7BluezQt6Device11toSharedPtrEv
libKF5BluezQt.so.6:_ZNK7BluezQt6Device12friendlyNameEv
libKF5BluezQt.so.6:_ZNK7BluezQt6Device14mediaTransportEv
libKF5BluezQt.so.6:_ZNK7BluezQt6Device16hasLegacyPairingEv
libKF5BluezQt.so.6:_ZNK7BluezQt6Device3ubiEv
libKF5BluezQt.so.6:_ZNK7BluezQt6Device4iconEv
libKF5BluezQt.so.6:_ZNK7BluezQt6Device4nameEv
libKF5BluezQt.so.6:_ZNK7BluezQt6Device4rssiEv
libKF5BluezQt.so.6:_ZNK7BluezQt6Device4typeEv
libKF5BluezQt.so.6:_ZNK7BluezQt6Device5inputEv
libKF5BluezQt.so.6:_ZNK7BluezQt6Device5uuidsEv
libKF5BluezQt.so.6:_ZNK7BluezQt6Device7adapterEv
libKF5BluezQt.so.6:_ZNK7BluezQt6Device7addressEv
libKF5BluezQt.so.6:_ZNK7BluezQt6Device7batteryEv
libKF5BluezQt.so.6:_ZNK7BluezQt6Device8isPairedEv
libKF5BluezQt.so.6:_ZNK7BluezQt6Device8modaliasEv
libKF5BluezQt.so.6:_ZNK7BluezQt6Device9isBlockedEv
libKF5BluezQt.so.6:_ZNK7BluezQt6Device9isTrustedEv
libKF5BluezQt.so.6:_ZNK7BluezQt7Adapter10isPairableEv
libKF5BluezQt.so.6:_ZNK7BluezQt7Adapter10metaObjectEv
libKF5BluezQt.so.6:_ZNK7BluezQt7Adapter10systemNameEv
libKF5BluezQt.so.6:_ZNK7BluezQt7Adapter11gattManagerEv
libKF5BluezQt.so.6:_ZNK7BluezQt7Adapter11toSharedPtrEv
libKF5BluezQt.so.6:_ZNK7BluezQt7Adapter12adapterClassEv
libKF5BluezQt.so.6:_ZNK7BluezQt7Adapter14isDiscoverableEv
libKF5BluezQt.so.6:_ZNK7BluezQt7Adapter15pairableTimeoutEv
libKF5BluezQt.so.6:_ZNK7BluezQt7Adapter16deviceForAddressERK7QString
libKF5BluezQt.so.6:_ZNK7BluezQt7Adapter19discoverableTimeoutEv
libKF5BluezQt.so.6:_ZNK7BluezQt7Adapter20leAdvertisingManagerEv
libKF5BluezQt.so.6:_ZNK7BluezQt7Adapter3ubiEv
libKF5BluezQt.so.6:_ZNK7BluezQt7Adapter4nameEv
libKF5BluezQt.so.6:_ZNK7BluezQt7Adapter5mediaEv
libKF5BluezQt.so.6:_ZNK7BluezQt7Adapter5uuidsEv
libKF5BluezQt.so.6:_ZNK7BluezQt7Adapter7addressEv
libKF5BluezQt.so.6:_ZNK7BluezQt7Adapter7devicesEv
libKF5BluezQt.so.6:_ZNK7BluezQt7Adapter8modaliasEv
libKF5BluezQt.so.6:_ZNK7BluezQt7Adapter9isPoweredEv
libKF5BluezQt.so.6:_ZNK7BluezQt7Battery10metaObjectEv
libKF5BluezQt.so.6:_ZNK7BluezQt7Battery10percentageEv
libKF5BluezQt.so.6:_ZNK7BluezQt7Battery11toSharedPtrEv
libKF5BluezQt.so.6:_ZNK7BluezQt7Manager10metaObjectEv
libKF5BluezQt.so.6:_ZNK7BluezQt7Manager12deviceForUbiERK7QString
libKF5BluezQt.so.6:_ZNK7BluezQt7Manager13adapterForUbiERK7QString
libKF5BluezQt.so.6:_ZNK7BluezQt7Manager13isInitializedEv
libKF5BluezQt.so.6:_ZNK7BluezQt7Manager13isOperationalEv
libKF5BluezQt.so.6:_ZNK7BluezQt7Manager13usableAdapterEv
libKF5BluezQt.so.6:_ZNK7BluezQt7Manager16deviceForAddressERK7QString
libKF5BluezQt.so.6:_ZNK7BluezQt7Manager17adapterForAddressERK7QString
libKF5BluezQt.so.6:_ZNK7BluezQt7Manager18isBluetoothBlockedEv
libKF5BluezQt.so.6:_ZNK7BluezQt7Manager22isBluetoothOperationalEv
libKF5BluezQt.so.6:_ZNK7BluezQt7Manager5mediaEv
libKF5BluezQt.so.6:_ZNK7BluezQt7Manager7devicesEv
libKF5BluezQt.so.6:_ZNK7BluezQt7Manager8adaptersEv
libKF5BluezQt.so.6:_ZNK7BluezQt7Profile10metaObjectEv
libKF5BluezQt.so.6:_ZNK7BluezQt7RequestI10QByteArrayE6acceptES1_
libKF5BluezQt.so.6:_ZNK7BluezQt7RequestI10QByteArrayE6cancelEv
libKF5BluezQt.so.6:_ZNK7BluezQt7RequestI10QByteArrayE6rejectEv
libKF5BluezQt.so.6:_ZNK7BluezQt7RequestI7QStringE6acceptES1_
libKF5BluezQt.so.6:_ZNK7BluezQt7RequestI7QStringE6cancelEv
libKF5BluezQt.so.6:_ZNK7BluezQt7RequestI7QStringE6rejectEv
libKF5BluezQt.so.6:_ZNK7BluezQt7RequestIjE6acceptEj
libKF5BluezQt.so.6:_ZNK7BluezQt7RequestIjE6cancelEv
libKF5BluezQt.so.6:_ZNK7BluezQt7RequestIjE6rejectEv
libKF5BluezQt.so.6:_ZNK7BluezQt7RequestIvE6acceptEv
libKF5BluezQt.so.6:_ZNK7BluezQt7RequestIvE6cancelEv
libKF5BluezQt.so.6:_ZNK7BluezQt7RequestIvE6rejectEv
libKF5BluezQt.so.6:_ZNK7BluezQt9ObexAgent10metaObjectEv
