libmagma.so.2.8:MAGMA_C_INF
libmagma.so.2.8:MAGMA_C_NAN
libmagma.so.2.8:MAGMA_D_INF
libmagma.so.2.8:MAGMA_D_NAN
libmagma.so.2.8:MAGMA_S_INF
libmagma.so.2.8:MAGMA_S_NAN
libmagma.so.2.8:MAGMA_Z_INF
libmagma.so.2.8:MAGMA_Z_NAN
libmagma.so.2.8:_Z11cgeadd_fullii17magmaFloatComplexPKS_iPS_i
libmagma.so.2.8:_Z11clascl_fulliifP17magmaFloatComplexi
libmagma.so.2.8:_Z11dgeadd_fulliidPKdiPdi
libmagma.so.2.8:_Z11dimv_kerneli17magmaFloatComplexPS_iS0_iS_S0_ib
libmagma.so.2.8:_Z11dimv_kerneli18magmaDoubleComplexPS_iS0_iS_S0_ib
libmagma.so.2.8:_Z11dimv_kernelidPdiS_idS_ib
libmagma.so.2.8:_Z11dimv_kernelifPfiS_ifS_ib
libmagma.so.2.8:_Z11dlascl_fulliidPdi
libmagma.so.2.8:_Z11dpotf2_ddotiPdiiPiP11magma_queue
libmagma.so.2.8:_Z11sgeadd_fulliifPKfiPfi
libmagma.so.2.8:_Z11slascl_fulliifPfi
libmagma.so.2.8:_Z11spotf2_sdotiPfiiPiP11magma_queue
libmagma.so.2.8:_Z11zgeadd_fullii18magmaDoubleComplexPKS_iPS_i
libmagma.so.2.8:_Z11zlascl_fulliidP18magmaDoubleComplexi
libmagma.so.2.8:_Z12cgeadd2_fullii17magmaFloatComplexPKS_iS_PS_i
libmagma.so.2.8:_Z12clascl2_fulliiPKfP17magmaFloatComplexi
libmagma.so.2.8:_Z12clascl_loweriifP17magmaFloatComplexi
libmagma.so.2.8:_Z12clascl_upperiifP17magmaFloatComplexi
libmagma.so.2.8:_Z12clat2z_loweriPK17magmaFloatComplexiP18magmaDoubleComplexi
libmagma.so.2.8:_Z12clat2z_upperiPK17magmaFloatComplexiP18magmaDoubleComplexi
libmagma.so.2.8:_Z12cpotf2_cdotciP17magmaFloatComplexiiPiP11magma_queue
libmagma.so.2.8:_Z12cswap_kerneliP17magmaFloatComplexiS0_i
libmagma.so.2.8:_Z12dgeadd2_fulliidPKdidPdi
libmagma.so.2.8:_Z12dlascl2_fulliiPKdPdi
libmagma.so.2.8:_Z12dlascl_loweriidPdi
libmagma.so.2.8:_Z12dlascl_upperiidPdi
libmagma.so.2.8:_Z12dlat2s_loweriPKdiPfid
libmagma.so.2.8:_Z12dlat2s_upperiPKdiPfid
libmagma.so.2.8:_Z12dpotf2_dscaliPdiPiP11magma_queue
libmagma.so.2.8:_Z12dswap_kerneliPdiS_i
libmagma.so.2.8:_Z12kernel_cswapiP17magmaFloatComplexiii
libmagma.so.2.8:_Z12kernel_dswapiPdiii
libmagma.so.2.8:_Z12kernel_sswapiPfiii
libmagma.so.2.8:_Z12kernel_zswapiP18magmaDoubleComplexiii
libmagma.so.2.8:_Z12magma_dger_1iiiiPdS_i
libmagma.so.2.8:_Z12magma_dger_2iiiiPdiS_i
libmagma.so.2.8:_Z12magma_sger_1iiiiPfS_i
libmagma.so.2.8:_Z12magma_sger_2iiiiPfiS_i
libmagma.so.2.8:_Z12magma_xerror10hipError_tPKcS1_i
libmagma.so.2.8:_Z12magma_xerror15hipblasStatus_tPKcS1_i
libmagma.so.2.8:_Z12magma_xerroriPKcS0_i
libmagma.so.2.8:_Z12sgeadd2_fulliifPKfifPfi
libmagma.so.2.8:_Z12slascl2_fulliiPKfPfi
libmagma.so.2.8:_Z12slascl_loweriifPfi
libmagma.so.2.8:_Z12slascl_upperiifPfi
libmagma.so.2.8:_Z12slat2d_loweriPKfiPdi
libmagma.so.2.8:_Z12slat2d_upperiPKfiPdi
libmagma.so.2.8:_Z12spotf2_sscaliPfiPiP11magma_queue
libmagma.so.2.8:_Z12sswap_kerneliPfiS_i
libmagma.so.2.8:_Z12zgeadd2_fullii18magmaDoubleComplexPKS_iS_PS_i
libmagma.so.2.8:_Z12zlascl2_fulliiPKdP18magmaDoubleComplexi
libmagma.so.2.8:_Z12zlascl_loweriidP18magmaDoubleComplexi
libmagma.so.2.8:_Z12zlascl_upperiidP18magmaDoubleComplexi
libmagma.so.2.8:_Z12zlat2c_loweriPK18magmaDoubleComplexiP17magmaFloatComplexid
libmagma.so.2.8:_Z12zlat2c_upperiPK18magmaDoubleComplexiP17magmaFloatComplexid
libmagma.so.2.8:_Z12zpotf2_zdotciP18magmaDoubleComplexiiPiP11magma_queue
libmagma.so.2.8:_Z12zswap_kerneliP18magmaDoubleComplexiS0_i
libmagma.so.2.8:_Z13clag2z_kerneliiPK17magmaFloatComplexiP18magmaDoubleComplexi
libmagma.so.2.8:_Z13clarfg_kerneliP17magmaFloatComplexS0_iS0_
libmagma.so.2.8:_Z13clascl2_loweriiPKfP17magmaFloatComplexi
libmagma.so.2.8:_Z13clascl2_upperiiPKfP17magmaFloatComplexi
libmagma.so.2.8:_Z13claswp_kerneliP17magmaFloatComplexi15claswp_params_t
libmagma.so.2.8:_Z13cpotf2_csscaliP17magmaFloatComplexiPiP11magma_queue
libmagma.so.2.8:_Z13dlag2s_kerneliiPKdiPfid
libmagma.so.2.8:_Z13dlarfg_kerneliPdS_iS_
libmagma.so.2.8:_Z13dlascl2_loweriiPKdPdi
libmagma.so.2.8:_Z13dlascl2_upperiiPKdPdi
libmagma.so.2.8:_Z13dlaswp_kerneliPdi15dlaswp_params_t
libmagma.so.2.8:_Z13hlag2s_kerneliiPK6__halfiPfi
libmagma.so.2.8:_Z13hlaswp_kerneliP6__halfi15hlaswp_params_t
libmagma.so.2.8:_Z13magma_cgeru_1iiiiP17magmaFloatComplexS0_i
libmagma.so.2.8:_Z13magma_cgeru_2iiiiP17magmaFloatComplexiS0_i
libmagma.so.2.8:_Z13magma_zgeru_1iiiiP18magmaDoubleComplexS0_i
libmagma.so.2.8:_Z13magma_zgeru_2iiiiP18magmaDoubleComplexiS0_i
libmagma.so.2.8:_Z13slag2d_kerneliiPKfiPdi
libmagma.so.2.8:_Z13slag2h_kerneliiPKfiP6__halfifPi
libmagma.so.2.8:_Z13slarfg_kerneliPfS_iS_
libmagma.so.2.8:_Z13slascl2_loweriiPKfPfi
libmagma.so.2.8:_Z13slascl2_upperiiPKfPfi
libmagma.so.2.8:_Z13slaswp_kerneliPfi15slaswp_params_t
libmagma.so.2.8:_Z13zlag2c_kerneliiPK18magmaDoubleComplexiP17magmaFloatComplexid
libmagma.so.2.8:_Z13zlarfg_kerneliP18magmaDoubleComplexS0_iS0_
libmagma.so.2.8:_Z13zlascl2_loweriiPKdP18magmaDoubleComplexi
libmagma.so.2.8:_Z13zlascl2_upperiiPKdP18magmaDoubleComplexi
libmagma.so.2.8:_Z13zlaswp_kerneliP18magmaDoubleComplexi15zlaswp_params_t
libmagma.so.2.8:_Z13zpotf2_zdscaliP18magmaDoubleComplexiPiP11magma_queue
libmagma.so.2.8:_Z14caxpycp_kerneliP17magmaFloatComplexS0_PKS_
libmagma.so.2.8:_Z14chemv_kernel_LiPK17magmaFloatComplexiS1_iPS_
libmagma.so.2.8:_Z14claswp2_kerneliP17magmaFloatComplexiiPKii
libmagma.so.2.8:_Z14claswpx_kerneliP17magmaFloatComplexii15claswp_params_t
libmagma.so.2.8:_Z14csymv_kernel_LiPK17magmaFloatComplexiS1_iPS_
libmagma.so.2.8:_Z14daxpycp_kerneliPdS_PKd
libmagma.so.2.8:_Z14dlaswp2_kerneliPdiiPKii
libmagma.so.2.8:_Z14dlaswpx_kerneliPdii15dlaswp_params_t
libmagma.so.2.8:_Z14dslaswp_kerneliPdiPfiiPKi
libmagma.so.2.8:_Z14dsymv_kernel_LiPKdiS0_iPd
libmagma.so.2.8:_Z14hlaswp2_kerneliP6__halfiiPKii
libmagma.so.2.8:_Z14magma_cpivcastPi
libmagma.so.2.8:_Z14magma_dpivcastPi
libmagma.so.2.8:_Z14magma_spivcastPi
libmagma.so.2.8:_Z14magma_zpivcastPi
libmagma.so.2.8:_Z14saxpycp_kerneliPfS_PKf
libmagma.so.2.8:_Z14slaswp2_kerneliPfiiPKii
libmagma.so.2.8:_Z14slaswpx_kerneliPfii15slaswp_params_t
libmagma.so.2.8:_Z14ssymv_kernel_LiPKfiS0_iPf
libmagma.so.2.8:_Z14zaxpycp_kerneliP18magmaDoubleComplexS0_PKS_
libmagma.so.2.8:_Z14zclaswp_kerneliP18magmaDoubleComplexiP17magmaFloatComplexiiPKi
libmagma.so.2.8:_Z14zhemv_kernel_LiPK18magmaDoubleComplexiS1_iPS_
libmagma.so.2.8:_Z14zlaswp2_kerneliP18magmaDoubleComplexiiPKii
libmagma.so.2.8:_Z14zlaswpx_kerneliP18magmaDoubleComplexii15zlaswp_params_t
libmagma.so.2.8:_Z14zsymv_kernel_LiPK18magmaDoubleComplexiS1_iPS_
libmagma.so.2.8:_Z15cgeam_kernel_ccii17magmaFloatComplexPKS_iS_S1_iPS_i
libmagma.so.2.8:_Z15cgeam_kernel_cnii17magmaFloatComplexPKS_iS_S1_iPS_i
libmagma.so.2.8:_Z15cgeam_kernel_ncii17magmaFloatComplexPKS_iS_S1_iPS_i
libmagma.so.2.8:_Z15cgeam_kernel_nnii17magmaFloatComplexPKS_iS_S1_iPS_i
libmagma.so.2.8:_Z15dgeam_kernel_cciidPKdidS0_iPdi
libmagma.so.2.8:_Z15dgeam_kernel_cniidPKdidS0_iPdi
libmagma.so.2.8:_Z15dgeam_kernel_nciidPKdidS0_iPdi
libmagma.so.2.8:_Z15dgeam_kernel_nniidPKdidS0_iPdi
libmagma.so.2.8:_Z15dsaxpycp_kerneliPfPdPKdS0_
libmagma.so.2.8:_Z15sgeam_kernel_cciifPKfifS0_iPfi
libmagma.so.2.8:_Z15sgeam_kernel_cniifPKfifS0_iPfi
libmagma.so.2.8:_Z15sgeam_kernel_nciifPKfifS0_iPfi
libmagma.so.2.8:_Z15sgeam_kernel_nniifPKfifS0_iPfi
libmagma.so.2.8:_Z15zcaxpycp_kerneliP17magmaFloatComplexP18magmaDoubleComplexPKS1_S2_
libmagma.so.2.8:_Z15zgeam_kernel_ccii18magmaDoubleComplexPKS_iS_S1_iPS_i
libmagma.so.2.8:_Z15zgeam_kernel_cnii18magmaDoubleComplexPKS_iS_S1_iPS_i
libmagma.so.2.8:_Z15zgeam_kernel_ncii18magmaDoubleComplexPKS_iS_S1_iPS_i
libmagma.so.2.8:_Z15zgeam_kernel_nnii18magmaDoubleComplexPKS_iS_S1_iPS_i
libmagma.so.2.8:_Z16clascl_2x2_loweriPK17magmaFloatComplexiPS_i
libmagma.so.2.8:_Z16clascl_2x2_upperiPK17magmaFloatComplexiPS_i
libmagma.so.2.8:_Z16cswapdblk_kerneliP17magmaFloatComplexiiS0_ii
libmagma.so.2.8:_Z16dlascl_2x2_loweriPKdiPdi
libmagma.so.2.8:_Z16dlascl_2x2_upperiPKdiPdi
libmagma.so.2.8:_Z16dswapdblk_kerneliPdiiS_ii
libmagma.so.2.8:_Z16magma_cswap_scaliiiP17magmaFloatComplexS0_i
libmagma.so.2.8:_Z16magma_dscal_dgeriiPdiP11magma_queue
libmagma.so.2.8:_Z16magma_dswap_scaliiiPdS_i
libmagma.so.2.8:_Z16magma_sscal_sgeriiPfiP11magma_queue
libmagma.so.2.8:_Z16magma_sswap_scaliiiPfS_i
libmagma.so.2.8:_Z16magma_zswap_scaliiiP18magmaDoubleComplexS0_i
libmagma.so.2.8:_Z16magmablas_clacgviP17magmaFloatComplexiP11magma_queue
libmagma.so.2.8:_Z16magmablas_zlacgviP18magmaDoubleComplexiP11magma_queue
libmagma.so.2.8:_Z16slascl_2x2_loweriPKfiPfi
libmagma.so.2.8:_Z16slascl_2x2_upperiPKfiPfi
libmagma.so.2.8:_Z16sswapdblk_kerneliPfiiS_ii
libmagma.so.2.8:_Z16zlascl_2x2_loweriPK18magmaDoubleComplexiPS_i
libmagma.so.2.8:_Z16zlascl_2x2_upperiPK18magmaDoubleComplexiPS_i
libmagma.so.2.8:_Z16zswapdblk_kerneliP18magmaDoubleComplexiiS0_ii
libmagma.so.2.8:_Z17cdiinertia_kerneliPK17magmaFloatComplexiPi
libmagma.so.2.8:_Z17cgemv_conj_kernelii17magmaFloatComplexPKS_iS1_iS_PS_i
libmagma.so.2.8:_Z17cherk_d_workspace12magma_uplo_tii17magmaFloatComplexPS0_iS0_S1_iS1_i
libmagma.so.2.8:_Z17chetrf_diag_nopiv12magma_uplo_tiP17magmaFloatComplexi
libmagma.so.2.8:_Z17clascl_diag_loweriiPK17magmaFloatComplexiPS_i
libmagma.so.2.8:_Z17clascl_diag_upperiiPK17magmaFloatComplexiPS_i
libmagma.so.2.8:_Z17claset_band_lowerii17magmaFloatComplexS_PS_i
libmagma.so.2.8:_Z17claset_band_upperii17magmaFloatComplexS_PS_i
libmagma.so.2.8:_Z17claswp_sym_kernel19claswp_sym_params_t
libmagma.so.2.8:_Z17csplit_diag_blockiP17magmaFloatComplexiS0_
libmagma.so.2.8:_Z17csymmetrize_loweriP17magmaFloatComplexi
libmagma.so.2.8:_Z17csymmetrize_upperiP17magmaFloatComplexi
libmagma.so.2.8:_Z17csyrk_d_workspace12magma_uplo_tii17magmaFloatComplexPS0_iS0_S1_iS1_i
libmagma.so.2.8:_Z17csytrf_diag_nopiv12magma_uplo_tiP17magmaFloatComplexi
libmagma.so.2.8:_Z17ctranspose_kerneliiPK17magmaFloatComplexiPS_i
libmagma.so.2.8:_Z17ddiinertia_kerneliPKdiPi
libmagma.so.2.8:_Z17dgemv_conj_kerneliidPKdiS0_idPdi
libmagma.so.2.8:_Z17dlascl_diag_loweriiPKdiPdi
libmagma.so.2.8:_Z17dlascl_diag_upperiiPKdiPdi
libmagma.so.2.8:_Z17dlaset_band_loweriiddPdi
libmagma.so.2.8:_Z17dlaset_band_upperiiddPdi
libmagma.so.2.8:_Z17dlaswp_sym_kernel19dlaswp_sym_params_t
libmagma.so.2.8:_Z17dsplit_diag_blockiPdiS_
libmagma.so.2.8:_Z17dsymmetrize_loweriPdi
libmagma.so.2.8:_Z17dsymmetrize_upperiPdi
libmagma.so.2.8:_Z17dsyrk_d_workspace12magma_uplo_tiidPdidS0_iS0_i
libmagma.so.2.8:_Z17dsytrf_diag_nopiv12magma_uplo_tiPdi
libmagma.so.2.8:_Z17dtranspose_kerneliiPKdiPdi
libmagma.so.2.8:_Z17kernel_dscal_dgeriiPdi
libmagma.so.2.8:_Z17kernel_sscal_sgeriiPfi
libmagma.so.2.8:_Z17magma_cgetf2_swapiP17magmaFloatComplexiiiP11magma_queue
libmagma.so.2.8:_Z17magma_cscal_cgeruiiP17magmaFloatComplexiP11magma_queue
libmagma.so.2.8:_Z17magma_dgetf2_swapiPdiiiP11magma_queue
libmagma.so.2.8:_Z17magma_sgetf2_swapiPfiiiP11magma_queue
libmagma.so.2.8:_Z17magma_zgetf2_swapiP18magmaDoubleComplexiiiP11magma_queue
libmagma.so.2.8:_Z17magma_zscal_zgeruiiP18magmaDoubleComplexiP11magma_queue
libmagma.so.2.8:_Z17prefix_sum_kernelPiS_iS_i
libmagma.so.2.8:_Z17sdiinertia_kerneliPKfiPi
libmagma.so.2.8:_Z17sgemv_conj_kerneliifPKfiS0_ifPfi
libmagma.so.2.8:_Z17slascl_diag_loweriiPKfiPfi
libmagma.so.2.8:_Z17slascl_diag_upperiiPKfiPfi
libmagma.so.2.8:_Z17slaset_band_loweriiffPfi
libmagma.so.2.8:_Z17slaset_band_upperiiffPfi
libmagma.so.2.8:_Z17slaswp_sym_kernel19slaswp_sym_params_t
libmagma.so.2.8:_Z17ssplit_diag_blockiPfiS_
libmagma.so.2.8:_Z17ssymmetrize_loweriPfi
libmagma.so.2.8:_Z17ssymmetrize_upperiPfi
libmagma.so.2.8:_Z17ssyrk_d_workspace12magma_uplo_tiifPfifS0_iS0_i
libmagma.so.2.8:_Z17ssytrf_diag_nopiv12magma_uplo_tiPfi
libmagma.so.2.8:_Z17stranspose_kerneliiPKfiPfi
libmagma.so.2.8:_Z17zdiinertia_kerneliPK18magmaDoubleComplexiPi
libmagma.so.2.8:_Z17zgemv_conj_kernelii18magmaDoubleComplexPKS_iS1_iS_PS_i
libmagma.so.2.8:_Z17zherk_d_workspace12magma_uplo_tii18magmaDoubleComplexPS0_iS0_S1_iS1_i
libmagma.so.2.8:_Z17zhetrf_diag_nopiv12magma_uplo_tiP18magmaDoubleComplexi
libmagma.so.2.8:_Z17zlascl_diag_loweriiPK18magmaDoubleComplexiPS_i
libmagma.so.2.8:_Z17zlascl_diag_upperiiPK18magmaDoubleComplexiPS_i
libmagma.so.2.8:_Z17zlaset_band_lowerii18magmaDoubleComplexS_PS_i
libmagma.so.2.8:_Z17zlaset_band_upperii18magmaDoubleComplexS_PS_i
libmagma.so.2.8:_Z17zlaswp_sym_kernel19zlaswp_sym_params_t
libmagma.so.2.8:_Z17zsplit_diag_blockiP18magmaDoubleComplexiS0_
libmagma.so.2.8:_Z17zsymmetrize_loweriP18magmaDoubleComplexi
libmagma.so.2.8:_Z17zsymmetrize_upperiP18magmaDoubleComplexi
libmagma.so.2.8:_Z17zsyrk_d_workspace12magma_uplo_tii18magmaDoubleComplexPS0_iS0_S1_iS1_i
libmagma.so.2.8:_Z17zsytrf_diag_nopiv12magma_uplo_tiP18magmaDoubleComplexi
libmagma.so.2.8:_Z17ztranspose_kerneliiPK18magmaDoubleComplexiPS_i
libmagma.so.2.8:_Z18adjust_ipiv_kernelPiii
libmagma.so.2.8:_Z18chemv_kernel_L_sumi17magmaFloatComplexiS_PS_iPKS_
libmagma.so.2.8:_Z18clacpy_conj_kerneliP17magmaFloatComplexiS0_i
libmagma.so.2.8:_Z18clacpy_full_kerneliiPK17magmaFloatComplexiPS_i
libmagma.so.2.8:_Z18claset_full_kernelii17magmaFloatComplexS_PS_i
libmagma.so.2.8:_Z18csymv_kernel_L_sumi17magmaFloatComplexiS_PS_iPKS_
libmagma.so.2.8:_Z18dlacpy_conj_kerneliPdiS_i
libmagma.so.2.8:_Z18dlacpy_full_kerneliiPKdiPdi
libmagma.so.2.8:_Z18dlaset_full_kerneliiddPdi
libmagma.so.2.8:_Z18dpotf2_ddot_kerneliPdiiiPi
libmagma.so.2.8:_Z18dslaswp_inv_kerneliPdiPfiiPKi
libmagma.so.2.8:_Z18dsymv_kernel_L_sumididPdiPKd
libmagma.so.2.8:_Z18kernel_cscal_cgeruiiP17magmaFloatComplexi
libmagma.so.2.8:_Z18kernel_zscal_zgeruiiP18magmaDoubleComplexi
libmagma.so.2.8:_Z18magma_clarf_kerneliPK17magmaFloatComplexS1_PS_i
libmagma.so.2.8:_Z18magma_dlarf_kerneliPKdS0_Pdi
libmagma.so.2.8:_Z18magma_get_ctrmm_nbi
libmagma.so.2.8:_Z18magma_get_ctrmv_nbi
libmagma.so.2.8:_Z18magma_get_dtrmm_nbi
libmagma.so.2.8:_Z18magma_get_dtrmv_nbi
libmagma.so.2.8:_Z18magma_get_strmm_nbi
libmagma.so.2.8:_Z18magma_get_strmv_nbi
libmagma.so.2.8:_Z18magma_get_ztrmm_nbi
libmagma.so.2.8:_Z18magma_get_ztrmv_nbi
libmagma.so.2.8:_Z18magma_slarf_kerneliPKfS0_Pfi
libmagma.so.2.8:_Z18magma_zlarf_kerneliPK18magmaDoubleComplexS1_PS_i
libmagma.so.2.8:_Z18slacpy_conj_kerneliPfiS_i
libmagma.so.2.8:_Z18slacpy_full_kerneliiPKfiPfi
libmagma.so.2.8:_Z18slaset_full_kerneliiffPfi
libmagma.so.2.8:_Z18spotf2_sdot_kerneliPfiiiPi
libmagma.so.2.8:_Z18ssymv_kernel_L_sumififPfiPKf
libmagma.so.2.8:_Z18zclaswp_inv_kerneliP18magmaDoubleComplexiP17magmaFloatComplexiiPKi
libmagma.so.2.8:_Z18zhemv_kernel_L_sumi18magmaDoubleComplexiS_PS_iPKS_
libmagma.so.2.8:_Z18zlacpy_conj_kerneliP18magmaDoubleComplexiS0_i
libmagma.so.2.8:_Z18zlacpy_full_kerneliiPK18magmaDoubleComplexiPS_i
libmagma.so.2.8:_Z18zlaset_full_kernelii18magmaDoubleComplexS_PS_i
libmagma.so.2.8:_Z18zsymv_kernel_L_sumi18magmaDoubleComplexiS_PS_iPKS_
libmagma.so.2.8:_Z19chemv_kernel_L_mgpuiPK17magmaFloatComplexiS1_iPS_iii
libmagma.so.2.8:_Z19clacpy_lower_kerneliiPK17magmaFloatComplexiPS_i
libmagma.so.2.8:_Z19clacpy_upper_kerneliiPK17magmaFloatComplexiPS_i
libmagma.so.2.8:_Z19claset_lower_kernelii17magmaFloatComplexS_PS_i
libmagma.so.2.8:_Z19claset_upper_kernelii17magmaFloatComplexS_PS_i
libmagma.so.2.8:_Z19cpotf2_cdotc_kerneliP17magmaFloatComplexiiiPi
libmagma.so.2.8:_Z19cswap_kernel_nativeiP17magmaFloatComplexiiPi
libmagma.so.2.8:_Z19dger_kernel_batchediidPPdiiiiS0_iiiiS0_iii
libmagma.so.2.8:_Z19dlacpy_lower_kerneliiPKdiPdi
libmagma.so.2.8:_Z19dlacpy_upper_kerneliiPKdiPdi
libmagma.so.2.8:_Z19dlaset_lower_kerneliiddPdi
libmagma.so.2.8:_Z19dlaset_upper_kerneliiddPdi
libmagma.so.2.8:_Z19dpotf2_dscal_kerneliPdiPi
libmagma.so.2.8:_Z19dswap_kernel_nativeiPdiiPi
libmagma.so.2.8:_Z19dsymv_kernel_L_mgpuiPKdiS0_iPdiii
libmagma.so.2.8:_Z19kernel_cset_pointerPP17magmaFloatComplexS0_iiii
libmagma.so.2.8:_Z19kernel_dset_pointerPPdS_iiii
libmagma.so.2.8:_Z19kernel_hset_pointerPP6__halfS0_iiii
libmagma.so.2.8:_Z19kernel_sset_pointerPPfS_iiii
libmagma.so.2.8:_Z19kernel_zset_pointerPP18magmaDoubleComplexS0_iiii
libmagma.so.2.8:_Z19magma_clarfx_kerneliP17magmaFloatComplexS0_S0_iPfS0_i
libmagma.so.2.8:_Z19magma_dlarfx_kerneliPdS_S_iS_S_i
libmagma.so.2.8:_Z19magma_slarfx_kerneliPfS_S_iS_S_i
libmagma.so.2.8:_Z19magma_zlarfx_kerneliP18magmaDoubleComplexS0_S0_iPdS0_i
libmagma.so.2.8:_Z19magmagpu_cswapblkcm26magmagpu_cswapblk_params_t
libmagma.so.2.8:_Z19magmagpu_cswapblkrm26magmagpu_cswapblk_params_t
libmagma.so.2.8:_Z19magmagpu_dswapblkcm26magmagpu_dswapblk_params_t
libmagma.so.2.8:_Z19magmagpu_dswapblkrm26magmagpu_dswapblk_params_t
libmagma.so.2.8:_Z19magmagpu_sswapblkcm26magmagpu_sswapblk_params_t
libmagma.so.2.8:_Z19magmagpu_sswapblkrm26magmagpu_sswapblk_params_t
libmagma.so.2.8:_Z19magmagpu_zswapblkcm26magmagpu_zswapblk_params_t
libmagma.so.2.8:_Z19magmagpu_zswapblkrm26magmagpu_zswapblk_params_t
libmagma.so.2.8:_Z19sger_kernel_batchediifPPfiiiiS0_iiiiS0_iii
libmagma.so.2.8:_Z19slacpy_lower_kerneliiPKfiPfi
libmagma.so.2.8:_Z19slacpy_upper_kerneliiPKfiPfi
libmagma.so.2.8:_Z19slaset_lower_kerneliiffPfi
libmagma.so.2.8:_Z19slaset_upper_kerneliiffPfi
libmagma.so.2.8:_Z19spotf2_sscal_kerneliPfiPi
libmagma.so.2.8:_Z19sswap_kernel_nativeiPfiiPi
libmagma.so.2.8:_Z19ssymv_kernel_L_mgpuiPKfiS0_iPfiii
libmagma.so.2.8:_Z19zhemv_kernel_L_mgpuiPK18magmaDoubleComplexiS1_iPS_iii
libmagma.so.2.8:_Z19zlacpy_lower_kerneliiPK18magmaDoubleComplexiPS_i
libmagma.so.2.8:_Z19zlacpy_upper_kerneliiPK18magmaDoubleComplexiPS_i
libmagma.so.2.8:_Z19zlaset_lower_kernelii18magmaDoubleComplexS_PS_i
libmagma.so.2.8:_Z19zlaset_upper_kernelii18magmaDoubleComplexS_PS_i
libmagma.so.2.8:_Z19zpotf2_zdotc_kerneliP18magmaDoubleComplexiiiPi
libmagma.so.2.8:_Z19zswap_kernel_nativeiP18magmaDoubleComplexiiPi
libmagma.so.2.8:_Z20cgbtf2_native_kerneliiiiiP17magmaFloatComplexiPiS1_iS1_
libmagma.so.2.8:_Z20cgeru_kernel_batchedii17magmaFloatComplexPPS_iiiiS1_iiiiS1_iii
libmagma.so.2.8:_Z20convert_dp2hp_kerneliiPKdiP6__halfi
libmagma.so.2.8:_Z20convert_hp2dp_kerneliiPK6__halfiPdi
libmagma.so.2.8:_Z20convert_hp2sp_kerneliiPK6__halfiPfi
libmagma.so.2.8:_Z20convert_sp2hp_kerneliiPKfiP6__halfi
libmagma.so.2.8:_Z20cpotf2_clacgv_kerneliP17magmaFloatComplexi
libmagma.so.2.8:_Z20cpotf2_csscal_kerneliP17magmaFloatComplexiPi
libmagma.so.2.8:_Z20cswap_kernel_batchediPP17magmaFloatComplexiiiiPPi
libmagma.so.2.8:_Z20dgbtf2_native_kerneliiiiiPdiPiS0_iS0_
libmagma.so.2.8:_Z20dswap_kernel_batchediPPdiiiiPPi
libmagma.so.2.8:_Z20icamax_kernel_nativeiP17magmaFloatComplexiPiS1_ii
libmagma.so.2.8:_Z20idamax_kernel_nativeiPdiPiS0_ii
libmagma.so.2.8:_Z20isamax_kernel_nativeiPfiPiS0_ii
libmagma.so.2.8:_Z20izamax_kernel_nativeiP18magmaDoubleComplexiPiS1_ii
libmagma.so.2.8:_Z20magma_clarf_smkerneliiP17magmaFloatComplexS0_S0_i
libmagma.so.2.8:_Z20magma_dlarf_smkerneliiPdS_S_i
libmagma.so.2.8:_Z20magma_slarf_smkerneliiPfS_S_i
libmagma.so.2.8:_Z20magma_zlarf_smkerneliiP18magmaDoubleComplexS0_S0_i
libmagma.so.2.8:_Z20magmablas_ctrmm_core12magma_side_t12magma_uplo_t13magma_trans_t12magma_diag_tii17magmaFloatComplexPS3_iS4_iP11magma_queue
libmagma.so.2.8:_Z20magmablas_ctrmv_core12magma_uplo_t13magma_trans_t12magma_diag_tiP17magmaFloatComplexiS3_iP11magma_queue
libmagma.so.2.8:_Z20magmablas_dtrmm_core12magma_side_t12magma_uplo_t13magma_trans_t12magma_diag_tiidPdiS3_iP11magma_queue
libmagma.so.2.8:_Z20magmablas_dtrmv_core12magma_uplo_t13magma_trans_t12magma_diag_tiPdiS2_iP11magma_queue
libmagma.so.2.8:_Z20magmablas_strmm_core12magma_side_t12magma_uplo_t13magma_trans_t12magma_diag_tiifPfiS3_iP11magma_queue
libmagma.so.2.8:_Z20magmablas_strmv_core12magma_uplo_t13magma_trans_t12magma_diag_tiPfiS2_iP11magma_queue
libmagma.so.2.8:_Z20magmablas_ztrmm_core12magma_side_t12magma_uplo_t13magma_trans_t12magma_diag_tii18magmaDoubleComplexPS3_iS4_iP11magma_queue
libmagma.so.2.8:_Z20magmablas_ztrmv_core12magma_uplo_t13magma_trans_t12magma_diag_tiP18magmaDoubleComplexiS3_iP11magma_queue
libmagma.so.2.8:_Z20prefix_update_kernelPiiS_
libmagma.so.2.8:_Z20setup_pivinfo_kernelPiS_ii
libmagma.so.2.8:_Z20sgbtf2_native_kerneliiiiiPfiPiS0_iS0_
libmagma.so.2.8:_Z20sswap_kernel_batchediPPfiiiiPPi
libmagma.so.2.8:_Z20zgbtf2_native_kerneliiiiiP18magmaDoubleComplexiPiS1_iS1_
libmagma.so.2.8:_Z20zgeru_kernel_batchedii18magmaDoubleComplexPPS_iiiiS1_iiiiS1_iii
libmagma.so.2.8:_Z20zpotf2_zdscal_kerneliP18magmaDoubleComplexiPi
libmagma.so.2.8:_Z20zpotf2_zlacgv_kerneliP18magmaDoubleComplexi
libmagma.so.2.8:_Z20zswap_kernel_batchediPP18magmaDoubleComplexiiiiPPi
libmagma.so.2.8:_Z21axpy_vbatched_checkerPiS_S_i
libmagma.so.2.8:_Z21cgeadd_batched_kernelii17magmaFloatComplexPKPKS_iPPS_i
libmagma.so.2.8:_Z21cgeqr2_kernel_batchediiPP17magmaFloatComplexiiiS1_i
libmagma.so.2.8:_Z21cswap_kernel_vbatchediPiS_PP17magmaFloatComplexiiS_PS_i
libmagma.so.2.8:_Z21dgeadd_batched_kerneliidPKPKdiPPdi
libmagma.so.2.8:_Z21dgeqr2_kernel_batchediiPPdiiiS0_i
libmagma.so.2.8:_Z21dswap_kernel_vbatchediPiS_PPdiiS_PS_i
libmagma.so.2.8:_Z21gemm_vbatched_checker13magma_trans_tS_PiS0_S0_S0_S0_S0_i
libmagma.so.2.8:_Z21gemv_vbatched_checker13magma_trans_tPiS0_S0_S0_S0_i
libmagma.so.2.8:_Z21hemm_vbatched_checker12magma_side_tPiS0_S0_S0_S0_i
libmagma.so.2.8:_Z21hemv_vbatched_checker12magma_uplo_tPiS0_S0_S0_i
libmagma.so.2.8:_Z21herk_vbatched_checker13magma_trans_tPiS0_S0_S0_i
libmagma.so.2.8:_Z21hlag2s_kernel_batchediiPKPK6__halfiPPfi
libmagma.so.2.8:_Z21icamax_kernel_batchediPP17magmaFloatComplexiiiiPPiiS2_ii
libmagma.so.2.8:_Z21idamax_kernel_batchediPPdiiiiPPiiS1_ii
libmagma.so.2.8:_Z21isamax_kernel_batchediPPfiiiiPPiiS1_ii
libmagma.so.2.8:_Z21izamax_kernel_batchediPP18magmaDoubleComplexiiiiPPiiS2_ii
libmagma.so.2.8:_Z21magma_ivec_add_kerneliiPiiS_S_
libmagma.so.2.8:_Z21magma_ivec_max_kerneliPiS_i
libmagma.so.2.8:_Z21magma_ivec_mul_kerneliPiS_S_
libmagma.so.2.8:_Z21magmablas_ctrmm_small12magma_side_t12magma_uplo_t13magma_trans_t12magma_diag_tii17magmaFloatComplexPS3_iS4_iP11magma_queue
libmagma.so.2.8:_Z21magmablas_ctrmv_small12magma_uplo_t13magma_trans_t12magma_diag_tiP17magmaFloatComplexiS3_iP11magma_queue
libmagma.so.2.8:_Z21magmablas_dtrmm_small12magma_side_t12magma_uplo_t13magma_trans_t12magma_diag_tiidPdiS3_iP11magma_queue
libmagma.so.2.8:_Z21magmablas_dtrmv_small12magma_uplo_t13magma_trans_t12magma_diag_tiPdiS2_iP11magma_queue
libmagma.so.2.8:_Z21magmablas_strmm_small12magma_side_t12magma_uplo_t13magma_trans_t12magma_diag_tiifPfiS3_iP11magma_queue
libmagma.so.2.8:_Z21magmablas_strmv_small12magma_uplo_t13magma_trans_t12magma_diag_tiPfiS2_iP11magma_queue
libmagma.so.2.8:_Z21magmablas_ztrmm_small12magma_side_t12magma_uplo_t13magma_trans_t12magma_diag_tii18magmaDoubleComplexPS3_iS4_iP11magma_queue
libmagma.so.2.8:_Z21magmablas_ztrmv_small12magma_uplo_t13magma_trans_t12magma_diag_tiP18magmaDoubleComplexiS3_iP11magma_queue
libmagma.so.2.8:_Z21sgeadd_batched_kerneliifPKPKfiPPfi
libmagma.so.2.8:_Z21sgeqr2_kernel_batchediiPPfiiiS0_i
libmagma.so.2.8:_Z21slag2h_kernel_batchediiPKPKfiPP6__halfifPiP11magma_queue
libmagma.so.2.8:_Z21sswap_kernel_vbatchediPiS_PPfiiS_PS_i
libmagma.so.2.8:_Z21trmm_vbatched_checker12magma_side_tPiS0_S0_S0_i
libmagma.so.2.8:_Z21trsm_vbatched_checker12magma_side_tPiS0_S0_S0_i
libmagma.so.2.8:_Z21zgeadd_batched_kernelii18magmaDoubleComplexPKPKS_iPPS_i
libmagma.so.2.8:_Z21zgeqr2_kernel_batchediiPP18magmaDoubleComplexiiiS1_i
libmagma.so.2.8:_Z21zswap_kernel_vbatchediPiS_PP18magmaDoubleComplexiiS_PS_i
libmagma.so.2.8:_Z22ctranspose_conj_kerneliiPK17magmaFloatComplexiPS_i
libmagma.so.2.8:_Z22ctranspose_inplace_oddiP17magmaFloatComplexi
libmagma.so.2.8:_Z22dtranspose_inplace_oddiPdi
libmagma.so.2.8:_Z22getrf_vbatched_checkerPiS_S_S_i
libmagma.so.2.8:_Z22her2k_vbatched_checker13magma_trans_tPiS0_S0_S0_S0_i
libmagma.so.2.8:_Z22icamax_kernel_vbatchediPiS_PP17magmaFloatComplexiiS_PS_iS_ii
libmagma.so.2.8:_Z22idamax_kernel_vbatchediPiS_PPdiiS_PS_iS_ii
libmagma.so.2.8:_Z22isamax_kernel_vbatchediPiS_PPfiiS_PS_iS_ii
libmagma.so.2.8:_Z22izamax_kernel_vbatchediPiS_PP18magmaDoubleComplexiiS_PS_iS_ii
libmagma.so.2.8:_Z22magma_cbulge_data_initP19magma_cbulge_data_siiiiiiiP17magmaFloatComplexiS2_iS2_S2_iPVi
libmagma.so.2.8:_Z22magma_dbulge_data_initP19magma_dbulge_data_siiiiiiiPdiS1_iS1_S1_iPVi
libmagma.so.2.8:_Z22magma_ivec_addc_kerneliPiiS_
libmagma.so.2.8:_Z22magma_ivec_maxc_kerneliPiiS_
libmagma.so.2.8:_Z22magma_ivec_minc_kerneliPiiS_
libmagma.so.2.8:_Z22magma_ivec_mulc_kerneliPiiS_
libmagma.so.2.8:_Z22magma_sbulge_data_initP19magma_sbulge_data_siiiiiiiPfiS1_iS1_S1_iPVi
libmagma.so.2.8:_Z22magma_zbulge_data_initP19magma_zbulge_data_siiiiiiiP18magmaDoubleComplexiS2_iS2_S2_iPVi
libmagma.so.2.8:_Z22magmablas_dnrm2_kerneliPdiS_
libmagma.so.2.8:_Z22magmablas_snrm2_kerneliPfiS_
libmagma.so.2.8:_Z22potrf_vbatched_checker12magma_uplo_tPiS0_i
libmagma.so.2.8:_Z22stranspose_inplace_oddiPfi
libmagma.so.2.8:_Z22ztranspose_conj_kerneliiPK18magmaDoubleComplexiPS_i
libmagma.so.2.8:_Z22ztranspose_inplace_oddiP18magmaDoubleComplexi
libmagma.so.2.8:_Z23cgbtf2_native_kernel_v2iiiiiiP17magmaFloatComplexiPiS1_iS1_
libmagma.so.2.8:_Z23cheinertia_lower_kerneliPK17magmaFloatComplexiPiS2_
libmagma.so.2.8:_Z23cheinertia_upper_kerneliPK17magmaFloatComplexiPiS2_
libmagma.so.2.8:_Z23chemv_kernel_L_mgpu_sumi17magmaFloatComplexiPS_iPKS_iii
libmagma.so.2.8:_Z23clanhe_inf_kernel_loweriPK17magmaFloatComplexiPfii
libmagma.so.2.8:_Z23clanhe_inf_kernel_upperiPK17magmaFloatComplexiPfii
libmagma.so.2.8:_Z23clanhe_max_kernel_loweriPK17magmaFloatComplexiPf
libmagma.so.2.8:_Z23clanhe_max_kernel_upperiPK17magmaFloatComplexiPf
libmagma.so.2.8:_Z23csymmetrize_tiles_loweriP17magmaFloatComplexiii
libmagma.so.2.8:_Z23csymmetrize_tiles_upperiP17magmaFloatComplexiii
libmagma.so.2.8:_Z23ctranspose_inplace_eveniP17magmaFloatComplexi
libmagma.so.2.8:_Z23dgbtf2_native_kernel_v2iiiiiiPdiPiS0_iS0_
libmagma.so.2.8:_Z23dlansy_inf_kernel_loweriPKdiPdii
libmagma.so.2.8:_Z23dlansy_inf_kernel_upperiPKdiPdii
libmagma.so.2.8:_Z23dlansy_max_kernel_loweriPKdiPd
libmagma.so.2.8:_Z23dlansy_max_kernel_upperiPKdiPd
libmagma.so.2.8:_Z23dsiinertia_lower_kerneliPKdiPiS1_
libmagma.so.2.8:_Z23dsiinertia_upper_kerneliPKdiPiS1_
libmagma.so.2.8:_Z23dsymmetrize_tiles_loweriPdiii
libmagma.so.2.8:_Z23dsymmetrize_tiles_upperiPdiii
libmagma.so.2.8:_Z23dsymv_kernel_L_mgpu_sumidiPdiPKdiii
libmagma.so.2.8:_Z23dtranspose_inplace_eveniPdi
libmagma.so.2.8:_Z23kernel_cset_pointer_varPP17magmaFloatComplexS0_PiiiS2_
libmagma.so.2.8:_Z23kernel_dset_pointer_varPPdS_PiiiS1_
libmagma.so.2.8:_Z23kernel_sset_pointer_varPPfS_PiiiS1_
libmagma.so.2.8:_Z23kernel_zset_pointer_varPP18magmaDoubleComplexS0_PiiiS2_
libmagma.so.2.8:_Z23magma_capplyQ_data_initP20magma_capplyQ_data_siiiiiiP17magmaFloatComplexiS2_iS2_S2_iS2_i
libmagma.so.2.8:_Z23magma_clarfg_gpu_kerneliP17magmaFloatComplexS0_S0_PfS0_
libmagma.so.2.8:_Z23magma_dapplyQ_data_initP20magma_dapplyQ_data_siiiiiiPdiS1_iS1_S1_iS1_i
libmagma.so.2.8:_Z23magma_dlarfg_gpu_kerneliPdS_S_S_S_
libmagma.so.2.8:_Z23magma_sapplyQ_data_initP20magma_sapplyQ_data_siiiiiiPfiS1_iS1_S1_iS1_i
libmagma.so.2.8:_Z23magma_slarfg_gpu_kerneliPfS_S_S_S_
libmagma.so.2.8:_Z23magma_zapplyQ_data_initP20magma_zapplyQ_data_siiiiiiP18magmaDoubleComplexiS2_iS2_S2_iS2_i
libmagma.so.2.8:_Z23magma_zlarfg_gpu_kerneliP18magmaDoubleComplexS0_S0_PdS0_
libmagma.so.2.8:_Z23magmablas_dscal_inversePdS_i
libmagma.so.2.8:_Z23magmablas_dznrm2_kerneliP18magmaDoubleComplexiPd
libmagma.so.2.8:_Z23magmablas_scnrm2_kerneliP17magmaFloatComplexiPf
libmagma.so.2.8:_Z23magmablas_sscal_inversePfS_i
libmagma.so.2.8:_Z23setup_pivinfo_sm_kernelPiS_ii
libmagma.so.2.8:_Z23sgbtf2_native_kernel_v2iiiiiiPfiPiS0_iS0_
libmagma.so.2.8:_Z23slansy_inf_kernel_loweriPKfiPfii
libmagma.so.2.8:_Z23slansy_inf_kernel_upperiPKfiPfii
libmagma.so.2.8:_Z23slansy_max_kernel_loweriPKfiPf
libmagma.so.2.8:_Z23slansy_max_kernel_upperiPKfiPf
libmagma.so.2.8:_Z23ssiinertia_lower_kerneliPKfiPiS1_
libmagma.so.2.8:_Z23ssiinertia_upper_kerneliPKfiPiS1_
libmagma.so.2.8:_Z23ssymmetrize_tiles_loweriPfiii
libmagma.so.2.8:_Z23ssymmetrize_tiles_upperiPfiii
libmagma.so.2.8:_Z23ssymv_kernel_L_mgpu_sumifiPfiPKfiii
libmagma.so.2.8:_Z23stranspose_inplace_eveniPfi
libmagma.so.2.8:_Z23zgbtf2_native_kernel_v2iiiiiiP18magmaDoubleComplexiPiS1_iS1_
libmagma.so.2.8:_Z23zheinertia_lower_kerneliPK18magmaDoubleComplexiPiS2_
libmagma.so.2.8:_Z23zheinertia_upper_kerneliPK18magmaDoubleComplexiPiS2_
libmagma.so.2.8:_Z23zhemv_kernel_L_mgpu_sumi18magmaDoubleComplexiPS_iPKS_iii
libmagma.so.2.8:_Z23zlanhe_inf_kernel_loweriPK18magmaDoubleComplexiPdii
libmagma.so.2.8:_Z23zlanhe_inf_kernel_upperiPK18magmaDoubleComplexiPdii
libmagma.so.2.8:_Z23zlanhe_max_kernel_loweriPK18magmaDoubleComplexiPd
libmagma.so.2.8:_Z23zlanhe_max_kernel_upperiPK18magmaDoubleComplexiPd
libmagma.so.2.8:_Z23zsymmetrize_tiles_loweriP18magmaDoubleComplexiii
libmagma.so.2.8:_Z23zsymmetrize_tiles_upperiP18magmaDoubleComplexiii
libmagma.so.2.8:_Z23ztranspose_inplace_eveniP18magmaDoubleComplexi
libmagma.so.2.8:_Z24cgeqr2_sm_kernel_batchediiPP17magmaFloatComplexiiiS1_i
libmagma.so.2.8:_Z24csplit_diag_block_invertiP17magmaFloatComplexiS0_
libmagma.so.2.8:_Z24ctrtri_diag_lower_kernel12magma_diag_tiPK17magmaFloatComplexiPS0_
libmagma.so.2.8:_Z24ctrtri_diag_upper_kernel12magma_diag_tiPK17magmaFloatComplexiPS0_
libmagma.so.2.8:_Z24dgeqr2_sm_kernel_batchediiPPdiiiS0_i
libmagma.so.2.8:_Z24dsplit_diag_block_invertiPdiS_
libmagma.so.2.8:_Z24dtrtri_diag_lower_kernel12magma_diag_tiPKdiPd
libmagma.so.2.8:_Z24dtrtri_diag_upper_kernel12magma_diag_tiPKdiPd
libmagma.so.2.8:_Z24extract_diag_sqrt_kerneliP17magmaFloatComplexiPfi
libmagma.so.2.8:_Z24extract_diag_sqrt_kerneliP18magmaDoubleComplexiPdi
libmagma.so.2.8:_Z24extract_diag_sqrt_kerneliPdiS_i
libmagma.so.2.8:_Z24extract_diag_sqrt_kerneliPfiS_i
libmagma.so.2.8:_Z24magma_clarfgx_gpu_kerneliP17magmaFloatComplexS0_S0_PfS0_i
libmagma.so.2.8:_Z24magma_dlarfgx_gpu_kerneliPdS_S_S_S_i
libmagma.so.2.8:_Z24magma_imax_size_kernel_1Pii
libmagma.so.2.8:_Z24magma_imax_size_kernel_2PiS_i
libmagma.so.2.8:_Z24magma_imax_size_kernel_3PiS_S_i
libmagma.so.2.8:_Z24magma_isum_reduce_kerneliPiS_i
libmagma.so.2.8:_Z24magma_ivec_min_vv_kerneliPiS_S_
libmagma.so.2.8:_Z24magma_slarfgx_gpu_kerneliPfS_S_S_S_i
libmagma.so.2.8:_Z24magma_zlarfgx_gpu_kerneliP18magmaDoubleComplexS0_S0_PdS0_i
libmagma.so.2.8:_Z24magmablas_csscal_inverseP17magmaFloatComplexS0_i
libmagma.so.2.8:_Z24magmablas_dnrm2_smkerneliiPdiS_
libmagma.so.2.8:_Z24magmablas_snrm2_smkerneliiPfiS_
libmagma.so.2.8:_Z24magmablas_zdscal_inverseP18magmaDoubleComplexS0_i
libmagma.so.2.8:_Z24sgeqr2_sm_kernel_batchediiPPfiiiS0_i
libmagma.so.2.8:_Z24ssplit_diag_block_invertiPfiS_
libmagma.so.2.8:_Z24strtri_diag_lower_kernel12magma_diag_tiPKfiPf
libmagma.so.2.8:_Z24strtri_diag_upper_kernel12magma_diag_tiPKfiPf
libmagma.so.2.8:_Z24zgeqr2_sm_kernel_batchediiPP18magmaDoubleComplexiiiS1_i
libmagma.so.2.8:_Z24zsplit_diag_block_invertiP18magmaDoubleComplexiS0_
libmagma.so.2.8:_Z24ztrtri_diag_lower_kernel12magma_diag_tiPK18magmaDoubleComplexiPS0_
libmagma.so.2.8:_Z24ztrtri_diag_upper_kernel12magma_diag_tiPK18magmaDoubleComplexiPS0_
libmagma.so.2.8:_Z25cgetf2_native_init_kerneliiPiS_
libmagma.so.2.8:_Z25cgetf2trsm_kernel_batchediiPP17magmaFloatComplexii
libmagma.so.2.8:_Z25clacpy_sym_in_full_kerneliiPK17magmaFloatComplexiPS_i
libmagma.so.2.8:_Z25claswp_rowparallel_kerneliiiP17magmaFloatComplexiS0_iPi
libmagma.so.2.8:_Z25ctranspose_kernel_batchediiPP17magmaFloatComplexiS1_i
libmagma.so.2.8:_Z25dgetf2_native_init_kerneliiPiS_
libmagma.so.2.8:_Z25dgetf2trsm_kernel_batchediiPPdii
libmagma.so.2.8:_Z25dlacpy_sym_in_full_kerneliiPKdiPdi
libmagma.so.2.8:_Z25dlaswp_rowparallel_kerneliiiPdiS_iPi
libmagma.so.2.8:_Z25dtranspose_kernel_batchediiPPdiS0_i
libmagma.so.2.8:_Z25idisplace_pointers_kernelPPiS0_iii
libmagma.so.2.8:_Z25magma_cbulge_data_destroyP19magma_cbulge_data_s
libmagma.so.2.8:_Z25magma_cbulge_id_data_initP22magma_cbulge_id_data_siP19magma_cbulge_data_s
libmagma.so.2.8:_Z25magma_dbulge_data_destroyP19magma_dbulge_data_s
libmagma.so.2.8:_Z25magma_dbulge_id_data_initP22magma_dbulge_id_data_siP19magma_dbulge_data_s
libmagma.so.2.8:_Z25magma_ivec_ceildiv_kerneliPiiS_
libmagma.so.2.8:_Z25magma_ivec_roundup_kerneliPiiS_
libmagma.so.2.8:_Z25magma_prefix_sum_internalPiS_iP11magma_queue
libmagma.so.2.8:_Z25magma_sbulge_data_destroyP19magma_sbulge_data_s
libmagma.so.2.8:_Z25magma_sbulge_id_data_initP22magma_sbulge_id_data_siP19magma_sbulge_data_s
libmagma.so.2.8:_Z25magma_zbulge_data_destroyP19magma_zbulge_data_s
libmagma.so.2.8:_Z25magma_zbulge_id_data_initP22magma_zbulge_id_data_siP19magma_zbulge_data_s
libmagma.so.2.8:_Z25magmablas_dznrm2_smkerneliiP18magmaDoubleComplexiPd
libmagma.so.2.8:_Z25magmablas_scnrm2_smkerneliiP17magmaFloatComplexiPf
libmagma.so.2.8:_Z25sgetf2_native_init_kerneliiPiS_
libmagma.so.2.8:_Z25sgetf2trsm_kernel_batchediiPPfii
libmagma.so.2.8:_Z25slacpy_sym_in_full_kerneliiPKfiPfi
libmagma.so.2.8:_Z25slaswp_rowparallel_kerneliiiPfiS_iPi
libmagma.so.2.8:_Z25stranspose_kernel_batchediiPPfiS0_i
libmagma.so.2.8:_Z25zdisplace_pointers_kernelPP17magmaFloatComplexS1_iii
libmagma.so.2.8:_Z25zdisplace_pointers_kernelPP18magmaDoubleComplexS1_iii
libmagma.so.2.8:_Z25zdisplace_pointers_kernelPPdS0_iii
libmagma.so.2.8:_Z25zdisplace_pointers_kernelPPfS0_iii
libmagma.so.2.8:_Z25zgetf2_native_init_kerneliiPiS_
libmagma.so.2.8:_Z25zgetf2trsm_kernel_batchediiPP18magmaDoubleComplexii
libmagma.so.2.8:_Z25zlacpy_sym_in_full_kerneliiPK18magmaDoubleComplexiPS_i
libmagma.so.2.8:_Z25zlaswp_rowparallel_kerneliiiP18magmaDoubleComplexiS0_iPi
libmagma.so.2.8:_Z25ztranspose_kernel_batchediiPP18magmaDoubleComplexiS1_i
libmagma.so.2.8:_Z26__device_stub__cgeadd_fullii17magmaFloatComplexPKS_iPS_i
libmagma.so.2.8:_Z26__device_stub__clascl_fulliifP17magmaFloatComplexi
libmagma.so.2.8:_Z26__device_stub__dgeadd_fulliidPKdiPdi
libmagma.so.2.8:_Z26__device_stub__dimv_kerneli17magmaFloatComplexPS_iS0_iS_S0_ib
libmagma.so.2.8:_Z26__device_stub__dimv_kerneli18magmaDoubleComplexPS_iS0_iS_S0_ib
libmagma.so.2.8:_Z26__device_stub__dimv_kernelidPdiS_idS_ib
libmagma.so.2.8:_Z26__device_stub__dimv_kernelifPfiS_ifS_ib
libmagma.so.2.8:_Z26__device_stub__dlascl_fulliidPdi
libmagma.so.2.8:_Z26__device_stub__sgeadd_fulliifPKfiPfi
libmagma.so.2.8:_Z26__device_stub__slascl_fulliifPfi
libmagma.so.2.8:_Z26__device_stub__zgeadd_fullii18magmaDoubleComplexPKS_iPS_i
libmagma.so.2.8:_Z26__device_stub__zlascl_fulliidP18magmaDoubleComplexi
libmagma.so.2.8:_Z26adjust_ipiv_kernel_batchedPPiiii
libmagma.so.2.8:_Z26cgbtf2_swap_kernel_batchedPP17magmaFloatComplexiiiPPiiS2_i
libmagma.so.2.8:_Z26cgbtrs_swap_kernel_batchediPP17magmaFloatComplexiPPii
libmagma.so.2.8:_Z26clacpy_full_kernel_batchediiPKPK17magmaFloatComplexiiiPPS_iii
libmagma.so.2.8:_Z26clacpy_sym_in_lower_kerneliiPiS_PK17magmaFloatComplexiPS0_i
libmagma.so.2.8:_Z26clacpy_sym_in_upper_kerneliiPK17magmaFloatComplexiPS_i
libmagma.so.2.8:_Z26clacpy_sym_out_full_kerneliiPK17magmaFloatComplexiPS_i
libmagma.so.2.8:_Z26claset_full_kernel_batchedii17magmaFloatComplexS_PPS_iii
libmagma.so.2.8:_Z26claswp_columnserial_kerneliP17magmaFloatComplexiiiPi
libmagma.so.2.8:_Z26dgbtf2_swap_kernel_batchedPPdiiiPPiiS1_i
libmagma.so.2.8:_Z26dgbtrs_swap_kernel_batchediPPdiPPii
libmagma.so.2.8:_Z26dlacpy_full_kernel_batchediiPKPKdiiiPPdiii
libmagma.so.2.8:_Z26dlacpy_sym_in_lower_kerneliiPiS_PKdiPdi
libmagma.so.2.8:_Z26dlacpy_sym_in_upper_kerneliiPKdiPdi
libmagma.so.2.8:_Z26dlacpy_sym_out_full_kerneliiPKdiPdi
libmagma.so.2.8:_Z26dlaset_full_kernel_batchediiddPPdiii
libmagma.so.2.8:_Z26dlaswp_columnserial_kerneliPdiiiPi
libmagma.so.2.8:_Z26magma_capplyQ_data_destroyP20magma_capplyQ_data_s
libmagma.so.2.8:_Z26magma_capplyQ_id_data_initP21magma_capplyQ_id_dataiP20magma_capplyQ_data_s
libmagma.so.2.8:_Z26magma_dapplyQ_data_destroyP20magma_dapplyQ_data_s
libmagma.so.2.8:_Z26magma_dapplyQ_id_data_initP21magma_dapplyQ_id_dataiP20magma_dapplyQ_data_s
libmagma.so.2.8:_Z26magma_get_ctrmm_batched_nbi
libmagma.so.2.8:_Z26magma_get_ctrsm_batched_nbi
libmagma.so.2.8:_Z26magma_get_dtrmm_batched_nbi
libmagma.so.2.8:_Z26magma_get_dtrsm_batched_nbi
libmagma.so.2.8:_Z26magma_get_strmm_batched_nbi
libmagma.so.2.8:_Z26magma_get_strsm_batched_nbi
libmagma.so.2.8:_Z26magma_get_ztrmm_batched_nbi
libmagma.so.2.8:_Z26magma_get_ztrsm_batched_nbi
libmagma.so.2.8:_Z26magma_sapplyQ_data_destroyP20magma_sapplyQ_data_s
libmagma.so.2.8:_Z26magma_sapplyQ_id_data_initP21magma_sapplyQ_id_dataiP20magma_sapplyQ_data_s
libmagma.so.2.8:_Z26magma_zapplyQ_data_destroyP20magma_zapplyQ_data_s
libmagma.so.2.8:_Z26magma_zapplyQ_id_data_initP21magma_zapplyQ_id_dataiP20magma_zapplyQ_data_s
libmagma.so.2.8:_Z26sgbtf2_swap_kernel_batchedPPfiiiPPiiS1_i
libmagma.so.2.8:_Z26sgbtrs_swap_kernel_batchediPPfiPPii
libmagma.so.2.8:_Z26slacpy_full_kernel_batchediiPKPKfiiiPPfiii
libmagma.so.2.8:_Z26slacpy_sym_in_lower_kerneliiPiS_PKfiPfi
libmagma.so.2.8:_Z26slacpy_sym_in_upper_kerneliiPKfiPfi
libmagma.so.2.8:_Z26slacpy_sym_out_full_kerneliiPKfiPfi
libmagma.so.2.8:_Z26slaset_full_kernel_batchediiffPPfiii
libmagma.so.2.8:_Z26slaswp_columnserial_kerneliPfiiiPi
libmagma.so.2.8:_Z26zgbtf2_swap_kernel_batchedPP18magmaDoubleComplexiiiPPiiS2_i
libmagma.so.2.8:_Z26zgbtrs_swap_kernel_batchediPP18magmaDoubleComplexiPPii
libmagma.so.2.8:_Z26zlacpy_full_kernel_batchediiPKPK18magmaDoubleComplexiiiPPS_iii
libmagma.so.2.8:_Z26zlacpy_sym_in_lower_kerneliiPiS_PK18magmaDoubleComplexiPS0_i
libmagma.so.2.8:_Z26zlacpy_sym_in_upper_kerneliiPK18magmaDoubleComplexiPS_i
libmagma.so.2.8:_Z26zlacpy_sym_out_full_kerneliiPK18magmaDoubleComplexiPS_i
libmagma.so.2.8:_Z26zlaset_full_kernel_batchedii18magmaDoubleComplexS_PPS_iii
libmagma.so.2.8:_Z26zlaswp_columnserial_kerneliP18magmaDoubleComplexiiiPi
libmagma.so.2.8:_Z27__device_stub__cgeadd2_fullii17magmaFloatComplexPKS_iS_PS_i
libmagma.so.2.8:_Z27__device_stub__clascl2_fulliiPKfP17magmaFloatComplexi
libmagma.so.2.8:_Z27__device_stub__clascl_loweriifP17magmaFloatComplexi
libmagma.so.2.8:_Z27__device_stub__clascl_upperiifP17magmaFloatComplexi
libmagma.so.2.8:_Z27__device_stub__clat2z_loweriPK17magmaFloatComplexiP18magmaDoubleComplexi
libmagma.so.2.8:_Z27__device_stub__clat2z_upperiPK17magmaFloatComplexiP18magmaDoubleComplexi
libmagma.so.2.8:_Z27__device_stub__cswap_kerneliP17magmaFloatComplexiS0_i
libmagma.so.2.8:_Z27__device_stub__dgeadd2_fulliidPKdidPdi
libmagma.so.2.8:_Z27__device_stub__dlascl2_fulliiPKdPdi
libmagma.so.2.8:_Z27__device_stub__dlascl_loweriidPdi
libmagma.so.2.8:_Z27__device_stub__dlascl_upperiidPdi
libmagma.so.2.8:_Z27__device_stub__dlat2s_loweriPKdiPfid
libmagma.so.2.8:_Z27__device_stub__dlat2s_upperiPKdiPfid
libmagma.so.2.8:_Z27__device_stub__dswap_kerneliPdiS_i
libmagma.so.2.8:_Z27__device_stub__kernel_cswapiP17magmaFloatComplexiii
libmagma.so.2.8:_Z27__device_stub__kernel_dswapiPdiii
libmagma.so.2.8:_Z27__device_stub__kernel_sswapiPfiii
libmagma.so.2.8:_Z27__device_stub__kernel_zswapiP18magmaDoubleComplexiii
libmagma.so.2.8:_Z27__device_stub__magma_dger_1iiiiPdS_i
libmagma.so.2.8:_Z27__device_stub__magma_dger_2iiiiPdiS_i
libmagma.so.2.8:_Z27__device_stub__magma_sger_1iiiiPfS_i
libmagma.so.2.8:_Z27__device_stub__magma_sger_2iiiiPfiS_i
libmagma.so.2.8:_Z27__device_stub__sgeadd2_fulliifPKfifPfi
libmagma.so.2.8:_Z27__device_stub__slascl2_fulliiPKfPfi
libmagma.so.2.8:_Z27__device_stub__slascl_loweriifPfi
libmagma.so.2.8:_Z27__device_stub__slascl_upperiifPfi
libmagma.so.2.8:_Z27__device_stub__slat2d_loweriPKfiPdi
libmagma.so.2.8:_Z27__device_stub__slat2d_upperiPKfiPdi
libmagma.so.2.8:_Z27__device_stub__sswap_kerneliPfiS_i
libmagma.so.2.8:_Z27__device_stub__zgeadd2_fullii18magmaDoubleComplexPKS_iS_PS_i
libmagma.so.2.8:_Z27__device_stub__zlascl2_fulliiPKdP18magmaDoubleComplexi
libmagma.so.2.8:_Z27__device_stub__zlascl_loweriidP18magmaDoubleComplexi
libmagma.so.2.8:_Z27__device_stub__zlascl_upperiidP18magmaDoubleComplexi
libmagma.so.2.8:_Z27__device_stub__zlat2c_loweriPK18magmaDoubleComplexiP17magmaFloatComplexid
libmagma.so.2.8:_Z27__device_stub__zlat2c_upperiPK18magmaDoubleComplexiP17magmaFloatComplexid
libmagma.so.2.8:_Z27__device_stub__zswap_kerneliP18magmaDoubleComplexiS0_i
libmagma.so.2.8:_Z27adjust_ipiv_kernel_vbatchedPPiiS_ii
libmagma.so.2.8:_Z27clacpy_full_kernel_vbatchedPiS_PKPK17magmaFloatComplexS_PPS0_S_
libmagma.so.2.8:_Z27clacpy_lower_kernel_batchediiPKPK17magmaFloatComplexiiiPPS_iii
libmagma.so.2.8:_Z27clacpy_sym_out_lower_kerneliiPiS_PK17magmaFloatComplexiPS0_i
libmagma.so.2.8:_Z27clacpy_sym_out_upper_kerneliiPK17magmaFloatComplexiPS_i
libmagma.so.2.8:_Z27clacpy_upper_kernel_batchediiPKPK17magmaFloatComplexiiiPPS_iii
libmagma.so.2.8:_Z27clarft_ctrmv_sm32x32_kerneliiP17magmaFloatComplexS0_iS0_i
libmagma.so.2.8:_Z27claset_full_kernel_vbatchedPiS_17magmaFloatComplexS0_PPS0_S_
libmagma.so.2.8:_Z27claset_lower_kernel_batchedii17magmaFloatComplexS_PPS_iii
libmagma.so.2.8:_Z27claset_upper_kernel_batchedii17magmaFloatComplexS_PPS_iii
libmagma.so.2.8:_Z27ctranspose_conj_inplace_oddiP17magmaFloatComplexi
libmagma.so.2.8:_Z27dlacpy_full_kernel_vbatchedPiS_PKPKdS_PPdS_
libmagma.so.2.8:_Z27dlacpy_lower_kernel_batchediiPKPKdiiiPPdiii
libmagma.so.2.8:_Z27dlacpy_sym_out_lower_kerneliiPiS_PKdiPdi
libmagma.so.2.8:_Z27dlacpy_sym_out_upper_kerneliiPKdiPdi
libmagma.so.2.8:_Z27dlacpy_upper_kernel_batchediiPKPKdiiiPPdiii
libmagma.so.2.8:_Z27dlarft_dtrmv_sm32x32_kerneliiPdS_iS_i
libmagma.so.2.8:_Z27dlaset_full_kernel_vbatchedPiS_ddPPdS_
libmagma.so.2.8:_Z27dlaset_lower_kernel_batchediiddPPdiii
libmagma.so.2.8:_Z27dlaset_upper_kernel_batchediiddPPdiii
libmagma.so.2.8:_Z27magma_cgetf2_native_blockediiP17magmaFloatComplexiPiS1_iP11magma_queue
libmagma.so.2.8:_Z27magma_dgetf2_native_blockediiPdiPiS0_iP11magma_queue
libmagma.so.2.8:_Z27magma_get_ctrmm_vbatched_nbi
libmagma.so.2.8:_Z27magma_get_ctrsm_vbatched_nbi
libmagma.so.2.8:_Z27magma_get_dtrmm_vbatched_nbi
libmagma.so.2.8:_Z27magma_get_dtrsm_vbatched_nbi
libmagma.so.2.8:_Z27magma_get_strmm_vbatched_nbi
libmagma.so.2.8:_Z27magma_get_strsm_vbatched_nbi
libmagma.so.2.8:_Z27magma_get_ztrmm_vbatched_nbi
libmagma.so.2.8:_Z27magma_get_ztrsm_vbatched_nbi
libmagma.so.2.8:_Z27magma_prefix_sum_internal_wPiS_iS_iP11magma_queue
libmagma.so.2.8:_Z27magma_sgetf2_native_blockediiPfiPiS0_iP11magma_queue
libmagma.so.2.8:_Z27magma_zgetf2_native_blockediiP18magmaDoubleComplexiPiS1_iP11magma_queue
libmagma.so.2.8:_Z27slacpy_full_kernel_vbatchedPiS_PKPKfS_PPfS_
libmagma.so.2.8:_Z27slacpy_lower_kernel_batchediiPKPKfiiiPPfiii
libmagma.so.2.8:_Z27slacpy_sym_out_lower_kerneliiPiS_PKfiPfi
libmagma.so.2.8:_Z27slacpy_sym_out_upper_kerneliiPKfiPfi
libmagma.so.2.8:_Z27slacpy_upper_kernel_batchediiPKPKfiiiPPfiii
libmagma.so.2.8:_Z27slarft_strmv_sm32x32_kerneliiPfS_iS_i
libmagma.so.2.8:_Z27slaset_full_kernel_vbatchedPiS_ffPPfS_
libmagma.so.2.8:_Z27slaset_lower_kernel_batchediiffPPfiii
libmagma.so.2.8:_Z27slaset_upper_kernel_batchediiffPPfiii
libmagma.so.2.8:_Z27zlacpy_full_kernel_vbatchedPiS_PKPK18magmaDoubleComplexS_PPS0_S_
libmagma.so.2.8:_Z27zlacpy_lower_kernel_batchediiPKPK18magmaDoubleComplexiiiPPS_iii
libmagma.so.2.8:_Z27zlacpy_sym_out_lower_kerneliiPiS_PK18magmaDoubleComplexiPS0_i
libmagma.so.2.8:_Z27zlacpy_sym_out_upper_kerneliiPK18magmaDoubleComplexiPS_i
libmagma.so.2.8:_Z27zlacpy_upper_kernel_batchediiPKPK18magmaDoubleComplexiiiPPS_iii
libmagma.so.2.8:_Z27zlarft_ztrmv_sm32x32_kerneliiP18magmaDoubleComplexS0_iS0_i
libmagma.so.2.8:_Z27zlaset_full_kernel_vbatchedPiS_18magmaDoubleComplexS0_PPS0_S_
libmagma.so.2.8:_Z27zlaset_lower_kernel_batchedii18magmaDoubleComplexS_PPS_iii
libmagma.so.2.8:_Z27zlaset_upper_kernel_batchedii18magmaDoubleComplexS_PPS_iii
libmagma.so.2.8:_Z27ztranspose_conj_inplace_oddiP18magmaDoubleComplexi
libmagma.so.2.8:_Z28__device_stub__clag2z_kerneliiPK17magmaFloatComplexiP18magmaDoubleComplexi
libmagma.so.2.8:_Z28__device_stub__clarfg_kerneliP17magmaFloatComplexS0_iS0_
libmagma.so.2.8:_Z28__device_stub__clascl2_loweriiPKfP17magmaFloatComplexi
libmagma.so.2.8:_Z28__device_stub__clascl2_upperiiPKfP17magmaFloatComplexi
libmagma.so.2.8:_Z28__device_stub__claswp_kerneliP17magmaFloatComplexi15claswp_params_t
libmagma.so.2.8:_Z28__device_stub__dlag2s_kerneliiPKdiPfid
libmagma.so.2.8:_Z28__device_stub__dlarfg_kerneliPdS_iS_
libmagma.so.2.8:_Z28__device_stub__dlascl2_loweriiPKdPdi
libmagma.so.2.8:_Z28__device_stub__dlascl2_upperiiPKdPdi
libmagma.so.2.8:_Z28__device_stub__dlaswp_kerneliPdi15dlaswp_params_t
libmagma.so.2.8:_Z28__device_stub__hlag2s_kerneliiPK6__halfiPfi
libmagma.so.2.8:_Z28__device_stub__hlaswp_kerneliP6__halfi15hlaswp_params_t
libmagma.so.2.8:_Z28__device_stub__magma_cgeru_1iiiiP17magmaFloatComplexS0_i
libmagma.so.2.8:_Z28__device_stub__magma_cgeru_2iiiiP17magmaFloatComplexiS0_i
libmagma.so.2.8:_Z28__device_stub__magma_zgeru_1iiiiP18magmaDoubleComplexS0_i
libmagma.so.2.8:_Z28__device_stub__magma_zgeru_2iiiiP18magmaDoubleComplexiS0_i
libmagma.so.2.8:_Z28__device_stub__slag2d_kerneliiPKfiPdi
libmagma.so.2.8:_Z28__device_stub__slag2h_kerneliiPKfiP6__halfifPi
libmagma.so.2.8:_Z28__device_stub__slarfg_kerneliPfS_iS_
libmagma.so.2.8:_Z28__device_stub__slascl2_loweriiPKfPfi
libmagma.so.2.8:_Z28__device_stub__slascl2_upperiiPKfPfi
libmagma.so.2.8:_Z28__device_stub__slaswp_kerneliPfi15slaswp_params_t
libmagma.so.2.8:_Z28__device_stub__zlag2c_kerneliiPK18magmaDoubleComplexiP17magmaFloatComplexid
libmagma.so.2.8:_Z28__device_stub__zlarfg_kerneliP18magmaDoubleComplexS0_iS0_
libmagma.so.2.8:_Z28__device_stub__zlascl2_loweriiPKdP18magmaDoubleComplexi
libmagma.so.2.8:_Z28__device_stub__zlascl2_upperiiPKdP18magmaDoubleComplexi
libmagma.so.2.8:_Z28__device_stub__zlaswp_kerneliP18magmaDoubleComplexi15zlaswp_params_t
libmagma.so.2.8:_Z28clacpy_lower_kernel_vbatchedPiS_PKPK17magmaFloatComplexS_PPS0_S_
libmagma.so.2.8:_Z28clacpy_upper_kernel_vbatchedPiS_PKPK17magmaFloatComplexS_PPS0_S_
libmagma.so.2.8:_Z28claset_lower_kernel_vbatchedPiS_17magmaFloatComplexS0_PPS0_S_
libmagma.so.2.8:_Z28claset_upper_kernel_vbatchedPiS_17magmaFloatComplexS0_PPS0_S_
libmagma.so.2.8:_Z28ctranspose_conj_inplace_eveniP17magmaFloatComplexi
libmagma.so.2.8:_Z28dlacpy_lower_kernel_vbatchedPiS_PKPKdS_PPdS_
libmagma.so.2.8:_Z28dlacpy_upper_kernel_vbatchedPiS_PKPKdS_PPdS_
libmagma.so.2.8:_Z28dlaset_lower_kernel_vbatchedPiS_ddPPdS_
libmagma.so.2.8:_Z28dlaset_upper_kernel_vbatchedPiS_ddPPdS_
libmagma.so.2.8:_Z28magma_compute_trsm_jb_kerneliPiiS_
libmagma.so.2.8:_Z28magmablas_dnrm2_check_kerneliPdiS_S_
libmagma.so.2.8:_Z28magmablas_snrm2_check_kerneliPfiS_S_
libmagma.so.2.8:_Z28setup_pivinfo_kernel_batchedPPiS0_iii
libmagma.so.2.8:_Z28slacpy_lower_kernel_vbatchedPiS_PKPKfS_PPfS_
libmagma.so.2.8:_Z28slacpy_upper_kernel_vbatchedPiS_PKPKfS_PPfS_
libmagma.so.2.8:_Z28slaset_lower_kernel_vbatchedPiS_ffPPfS_
libmagma.so.2.8:_Z28slaset_upper_kernel_vbatchedPiS_ffPPfS_
libmagma.so.2.8:_Z28zlacpy_lower_kernel_vbatchedPiS_PKPK18magmaDoubleComplexS_PPS0_S_
libmagma.so.2.8:_Z28zlacpy_upper_kernel_vbatchedPiS_PKPK18magmaDoubleComplexS_PPS0_S_
libmagma.so.2.8:_Z28zlaset_lower_kernel_vbatchedPiS_18magmaDoubleComplexS0_PPS0_S_
libmagma.so.2.8:_Z28zlaset_upper_kernel_vbatchedPiS_18magmaDoubleComplexS0_PPS0_S_
libmagma.so.2.8:_Z28ztranspose_conj_inplace_eveniP18magmaDoubleComplexi
libmagma.so.2.8:_Z29__device_stub__caxpycp_kerneliP17magmaFloatComplexS0_PKS_
libmagma.so.2.8:_Z29__device_stub__chemv_kernel_LiPK17magmaFloatComplexiS1_iPS_
libmagma.so.2.8:_Z29__device_stub__claswp2_kerneliP17magmaFloatComplexiiPKii
libmagma.so.2.8:_Z29__device_stub__claswpx_kerneliP17magmaFloatComplexii15claswp_params_t
libmagma.so.2.8:_Z29__device_stub__csymv_kernel_LiPK17magmaFloatComplexiS1_iPS_
libmagma.so.2.8:_Z29__device_stub__daxpycp_kerneliPdS_PKd
libmagma.so.2.8:_Z29__device_stub__dlaswp2_kerneliPdiiPKii
libmagma.so.2.8:_Z29__device_stub__dlaswpx_kerneliPdii15dlaswp_params_t
libmagma.so.2.8:_Z29__device_stub__dslaswp_kerneliPdiPfiiPKi
libmagma.so.2.8:_Z29__device_stub__dsymv_kernel_LiPKdiS0_iPd
libmagma.so.2.8:_Z29__device_stub__hlaswp2_kerneliP6__halfiiPKii
libmagma.so.2.8:_Z29__device_stub__magma_cpivcastPi
libmagma.so.2.8:_Z29__device_stub__magma_dpivcastPi
libmagma.so.2.8:_Z29__device_stub__magma_spivcastPi
libmagma.so.2.8:_Z29__device_stub__magma_zpivcastPi
libmagma.so.2.8:_Z29__device_stub__saxpycp_kerneliPfS_PKf
libmagma.so.2.8:_Z29__device_stub__slaswp2_kerneliPfiiPKii
libmagma.so.2.8:_Z29__device_stub__slaswpx_kerneliPfii15slaswp_params_t
libmagma.so.2.8:_Z29__device_stub__ssymv_kernel_LiPKfiS0_iPf
libmagma.so.2.8:_Z29__device_stub__zaxpycp_kerneliP18magmaDoubleComplexS0_PKS_
libmagma.so.2.8:_Z29__device_stub__zclaswp_kerneliP18magmaDoubleComplexiP17magmaFloatComplexiiPKi
libmagma.so.2.8:_Z29__device_stub__zhemv_kernel_LiPK18magmaDoubleComplexiS1_iPS_
libmagma.so.2.8:_Z29__device_stub__zlaswp2_kerneliP18magmaDoubleComplexiiPKii
libmagma.so.2.8:_Z29__device_stub__zlaswpx_kerneliP18magmaDoubleComplexii15zlaswp_params_t
libmagma.so.2.8:_Z29__device_stub__zsymv_kernel_LiPK18magmaDoubleComplexiS1_iPS_
libmagma.so.2.8:_Z29cgesv_batched_small_sm_kerneliiPP17magmaFloatComplexiPPiS1_iS2_
libmagma.so.2.8:_Z29cpotf2_smlpin_anywidth_kerneliP17magmaFloatComplexiiiPi
libmagma.so.2.8:_Z29cpotf2_smlpin_fixwidth_kerneliP17magmaFloatComplexiiiPi
libmagma.so.2.8:_Z29dgesv_batched_small_sm_kerneliiPPdiPPiS0_iS1_
libmagma.so.2.8:_Z29dpotf2_smlpin_anywidth_kerneliPdiiiPi
libmagma.so.2.8:_Z29dpotf2_smlpin_fixwidth_kerneliPdiiiPi
libmagma.so.2.8:_Z29magma_cgetf2_native_recursiveiiP17magmaFloatComplexiPiS1_S1_iPP11ihipEvent_tP11magma_queueS6_
libmagma.so.2.8:_Z29magma_dgetf2_native_recursiveiiPdiPiS0_S0_iPP11ihipEvent_tP11magma_queueS5_
libmagma.so.2.8:_Z29magma_sgetf2_native_recursiveiiPfiPiS0_S0_iPP11ihipEvent_tP11magma_queueS5_
libmagma.so.2.8:_Z29magma_zgetf2_native_recursiveiiP18magmaDoubleComplexiPiS1_S1_iPP11ihipEvent_tP11magma_queueS6_
libmagma.so.2.8:_Z29magmablas_ctrmm_small_batched12magma_side_t12magma_uplo_t13magma_trans_t12magma_diag_tii17magmaFloatComplexPPS3_iiiS5_iiiiP11magma_queue
libmagma.so.2.8:_Z29magmablas_dtrmm_small_batched12magma_side_t12magma_uplo_t13magma_trans_t12magma_diag_tiidPPdiiiS4_iiiiP11magma_queue
libmagma.so.2.8:_Z29magmablas_dznrm2_check_kerneliP18magmaDoubleComplexiPdS1_
libmagma.so.2.8:_Z29magmablas_scnrm2_check_kerneliP17magmaFloatComplexiPfS1_
libmagma.so.2.8:_Z29magmablas_strmm_small_batched12magma_side_t12magma_uplo_t13magma_trans_t12magma_diag_tiifPPfiiiS4_iiiiP11magma_queue
libmagma.so.2.8:_Z29magmablas_ztrmm_small_batched12magma_side_t12magma_uplo_t13magma_trans_t12magma_diag_tii18magmaDoubleComplexPPS3_iiiS5_iiiiP11magma_queue
libmagma.so.2.8:_Z29setup_pivinfo_kernel_vbatchedPiS_PS_iS0_ii
libmagma.so.2.8:_Z29sgesv_batched_small_sm_kerneliiPPfiPPiS0_iS1_
libmagma.so.2.8:_Z29spotf2_smlpin_anywidth_kerneliPfiiiPi
libmagma.so.2.8:_Z29spotf2_smlpin_fixwidth_kerneliPfiiiPi
libmagma.so.2.8:_Z29zgesv_batched_small_sm_kerneliiPP18magmaDoubleComplexiPPiS1_iS2_
libmagma.so.2.8:_Z29zpotf2_smlpin_anywidth_kerneliP18magmaDoubleComplexiiiPi
libmagma.so.2.8:_Z29zpotf2_smlpin_fixwidth_kerneliP18magmaDoubleComplexiiiPi
libmagma.so.2.8:_Z30__device_stub__cgeam_kernel_ccii17magmaFloatComplexPKS_iS_S1_iPS_i
libmagma.so.2.8:_Z30__device_stub__cgeam_kernel_cnii17magmaFloatComplexPKS_iS_S1_iPS_i
libmagma.so.2.8:_Z30__device_stub__cgeam_kernel_ncii17magmaFloatComplexPKS_iS_S1_iPS_i
libmagma.so.2.8:_Z30__device_stub__cgeam_kernel_nnii17magmaFloatComplexPKS_iS_S1_iPS_i
libmagma.so.2.8:_Z30__device_stub__dgeam_kernel_cciidPKdidS0_iPdi
libmagma.so.2.8:_Z30__device_stub__dgeam_kernel_cniidPKdidS0_iPdi
libmagma.so.2.8:_Z30__device_stub__dgeam_kernel_nciidPKdidS0_iPdi
libmagma.so.2.8:_Z30__device_stub__dgeam_kernel_nniidPKdidS0_iPdi
libmagma.so.2.8:_Z30__device_stub__dsaxpycp_kerneliPfPdPKdS0_
libmagma.so.2.8:_Z30__device_stub__sgeam_kernel_cciifPKfifS0_iPfi
libmagma.so.2.8:_Z30__device_stub__sgeam_kernel_cniifPKfifS0_iPfi
libmagma.so.2.8:_Z30__device_stub__sgeam_kernel_nciifPKfifS0_iPfi
libmagma.so.2.8:_Z30__device_stub__sgeam_kernel_nniifPKfifS0_iPfi
libmagma.so.2.8:_Z30__device_stub__zcaxpycp_kerneliP17magmaFloatComplexP18magmaDoubleComplexPKS1_S2_
libmagma.so.2.8:_Z30__device_stub__zgeam_kernel_ccii18magmaDoubleComplexPKS_iS_S1_iPS_i
libmagma.so.2.8:_Z30__device_stub__zgeam_kernel_cnii18magmaDoubleComplexPKS_iS_S1_iPS_i
libmagma.so.2.8:_Z30__device_stub__zgeam_kernel_ncii18magmaDoubleComplexPKS_iS_S1_iPS_i
libmagma.so.2.8:_Z30__device_stub__zgeam_kernel_nnii18magmaDoubleComplexPKS_iS_S1_iPS_i
libmagma.so.2.8:_Z30cgbtf2_scal_ger_kernel_batchediiiiPP17magmaFloatComplexiiiPiiS2_
libmagma.so.2.8:_Z30cgbtrf_batched_kernel_fused_smiiiiPP17magmaFloatComplexiPPiS2_i
libmagma.so.2.8:_Z30cgeqr2_fused_sm_kernel_batchediiPP17magmaFloatComplexiiiS1_iPii
libmagma.so.2.8:_Z30clarft_recctrmv_sm32x32_kerneliiP17magmaFloatComplexS0_iS0_i
libmagma.so.2.8:_Z30claswp_rowserial_kernel_nativeiP17magmaFloatComplexiiiPi
libmagma.so.2.8:_Z30cpotf2_smlpout_anywidth_kerneliiP17magmaFloatComplexiiiPi
libmagma.so.2.8:_Z30cpotf2_smlpout_fixwidth_kerneliP17magmaFloatComplexiiiPi
libmagma.so.2.8:_Z30cpotf2_smlpout_kernel_vbatchedPiPP17magmaFloatComplexS_iiS_
libmagma.so.2.8:_Z30ctranspose_conj_kernel_batchediiPP17magmaFloatComplexiS1_i
libmagma.so.2.8:_Z30dgbtf2_scal_ger_kernel_batchediiiiPPdiiiPiiS1_
libmagma.so.2.8:_Z30dgbtrf_batched_kernel_fused_smiiiiPPdiPPiS1_i
libmagma.so.2.8:_Z30dgeqr2_fused_sm_kernel_batchediiPPdiiiS0_iPii
libmagma.so.2.8:_Z30dlarft_recdtrmv_sm32x32_kerneliiPdS_iS_i
libmagma.so.2.8:_Z30dlaswp_rowserial_kernel_nativeiPdiiiPi
libmagma.so.2.8:_Z30dpotf2_smlpout_anywidth_kerneliiPdiiiPi
libmagma.so.2.8:_Z30dpotf2_smlpout_fixwidth_kerneliPdiiiPi
libmagma.so.2.8:_Z30dpotf2_smlpout_kernel_vbatchedPiPPdS_iiS_
libmagma.so.2.8:_Z30gbtrf_adjust_ju_kernel_batchediiPPiS_ii
libmagma.so.2.8:_Z30magmablas_capply_vector_kerneliP17magmaFloatComplexiS0_i
libmagma.so.2.8:_Z30magmablas_ctrmm_small_vbatched12magma_side_t12magma_uplo_t13magma_trans_t12magma_diag_tiiPiS3_17magmaFloatComplexPPS4_iiS3_S6_iiS3_iP11magma_queue
libmagma.so.2.8:_Z30magmablas_dapply_vector_kerneliPdiS_i
libmagma.so.2.8:_Z30magmablas_dtrmm_small_vbatched12magma_side_t12magma_uplo_t13magma_trans_t12magma_diag_tiiPiS3_dPPdiiS3_S5_iiS3_iP11magma_queue
libmagma.so.2.8:_Z30magmablas_sapply_vector_kerneliPfiS_i
libmagma.so.2.8:_Z30magmablas_strmm_small_vbatched12magma_side_t12magma_uplo_t13magma_trans_t12magma_diag_tiiPiS3_fPPfiiS3_S5_iiS3_iP11magma_queue
libmagma.so.2.8:_Z30magmablas_zapply_vector_kerneliP18magmaDoubleComplexiS0_i
libmagma.so.2.8:_Z30magmablas_ztrmm_small_vbatched12magma_side_t12magma_uplo_t13magma_trans_t12magma_diag_tiiPiS3_18magmaDoubleComplexPPS4_iiS3_S6_iiS3_iP11magma_queue
libmagma.so.2.8:_Z30sgbtf2_scal_ger_kernel_batchediiiiPPfiiiPiiS1_
libmagma.so.2.8:_Z30sgbtrf_batched_kernel_fused_smiiiiPPfiPPiS1_i
libmagma.so.2.8:_Z30sgeqr2_fused_sm_kernel_batchediiPPfiiiS0_iPii
libmagma.so.2.8:_Z30slarft_recstrmv_sm32x32_kerneliiPfS_iS_i
libmagma.so.2.8:_Z30slaswp_rowserial_kernel_nativeiPfiiiPi
libmagma.so.2.8:_Z30spotf2_smlpout_anywidth_kerneliiPfiiiPi
libmagma.so.2.8:_Z30spotf2_smlpout_fixwidth_kerneliPfiiiPi
libmagma.so.2.8:_Z30spotf2_smlpout_kernel_vbatchedPiPPfS_iiS_
libmagma.so.2.8:_Z30zgbtf2_scal_ger_kernel_batchediiiiPP18magmaDoubleComplexiiiPiiS2_
libmagma.so.2.8:_Z30zgbtrf_batched_kernel_fused_smiiiiPP18magmaDoubleComplexiPPiS2_i
libmagma.so.2.8:_Z30zgeqr2_fused_sm_kernel_batchediiPP18magmaDoubleComplexiiiS1_iPii
libmagma.so.2.8:_Z30zlarft_recztrmv_sm32x32_kerneliiP18magmaDoubleComplexS0_iS0_i
libmagma.so.2.8:_Z30zlaswp_rowserial_kernel_nativeiP18magmaDoubleComplexiiiPi
libmagma.so.2.8:_Z30zpotf2_smlpout_anywidth_kerneliiP18magmaDoubleComplexiiiPi
libmagma.so.2.8:_Z30zpotf2_smlpout_fixwidth_kerneliP18magmaDoubleComplexiiiPi
libmagma.so.2.8:_Z30zpotf2_smlpout_kernel_vbatchedPiPP18magmaDoubleComplexS_iiS_
libmagma.so.2.8:_Z30ztranspose_conj_kernel_batchediiPP18magmaDoubleComplexiS1_i
libmagma.so.2.8:_Z31__device_stub__clascl_2x2_loweriPK17magmaFloatComplexiPS_i
libmagma.so.2.8:_Z31__device_stub__clascl_2x2_upperiPK17magmaFloatComplexiPS_i
libmagma.so.2.8:_Z31__device_stub__cswapdblk_kerneliP17magmaFloatComplexiiS0_ii
libmagma.so.2.8:_Z31__device_stub__dlascl_2x2_loweriPKdiPdi
libmagma.so.2.8:_Z31__device_stub__dlascl_2x2_upperiPKdiPdi
libmagma.so.2.8:_Z31__device_stub__dswapdblk_kerneliPdiiS_ii
libmagma.so.2.8:_Z31__device_stub__magma_cswap_scaliiiP17magmaFloatComplexS0_i
libmagma.so.2.8:_Z31__device_stub__magma_dswap_scaliiiPdS_i
libmagma.so.2.8:_Z31__device_stub__magma_sswap_scaliiiPfS_i
libmagma.so.2.8:_Z31__device_stub__magma_zswap_scaliiiP18magmaDoubleComplexS0_i
libmagma.so.2.8:_Z31__device_stub__slascl_2x2_loweriPKfiPfi
libmagma.so.2.8:_Z31__device_stub__slascl_2x2_upperiPKfiPfi
libmagma.so.2.8:_Z31__device_stub__sswapdblk_kerneliPfiiS_ii
libmagma.so.2.8:_Z31__device_stub__zlascl_2x2_loweriPK18magmaDoubleComplexiPS_i
libmagma.so.2.8:_Z31__device_stub__zlascl_2x2_upperiPK18magmaDoubleComplexiPS_i
libmagma.so.2.8:_Z31__device_stub__zswapdblk_kerneliP18magmaDoubleComplexiiS0_ii
libmagma.so.2.8:_Z31cgeqr2_column_sm_kernel_batchediiPP17magmaFloatComplexiiiS1_i
libmagma.so.2.8:_Z31cgetf2_fused_sm_kernel_vbatchediiiiPiS_PP17magmaFloatComplexiiS_PS_iS_ii
libmagma.so.2.8:_Z31claswp_rowserial_kernel_batchediPP17magmaFloatComplexiiiPPi
libmagma.so.2.8:_Z31dgeqr2_column_sm_kernel_batchediiPPdiiiS0_i
libmagma.so.2.8:_Z31dgetf2_fused_sm_kernel_vbatchediiiiPiS_PPdiiS_PS_iS_ii
libmagma.so.2.8:_Z31dlaswp_rowserial_kernel_batchediPPdiiiPPi
libmagma.so.2.8:_Z31sgeqr2_column_sm_kernel_batchediiPPfiiiS0_i
libmagma.so.2.8:_Z31sgetf2_fused_sm_kernel_vbatchediiiiPiS_PPfiiS_PS_iS_ii
libmagma.so.2.8:_Z31slaswp_rowserial_kernel_batchediPPfiiiPPi
libmagma.so.2.8:_Z31zgeqr2_column_sm_kernel_batchediiPP18magmaDoubleComplexiiiS1_i
libmagma.so.2.8:_Z31zgetf2_fused_sm_kernel_vbatchediiiiPiS_PP18magmaDoubleComplexiiS_PS_iS_ii
libmagma.so.2.8:_Z31zlaswp_rowserial_kernel_batchediPP18magmaDoubleComplexiiiPPi
libmagma.so.2.8:_Z32__device_stub__cdiinertia_kerneliPK17magmaFloatComplexiPi
libmagma.so.2.8:_Z32__device_stub__cgemv_conj_kernelii17magmaFloatComplexPKS_iS1_iS_PS_i
libmagma.so.2.8:_Z32__device_stub__clascl_diag_loweriiPK17magmaFloatComplexiPS_i
libmagma.so.2.8:_Z32__device_stub__clascl_diag_upperiiPK17magmaFloatComplexiPS_i
libmagma.so.2.8:_Z32__device_stub__claset_band_lowerii17magmaFloatComplexS_PS_i
libmagma.so.2.8:_Z32__device_stub__claset_band_upperii17magmaFloatComplexS_PS_i
libmagma.so.2.8:_Z32__device_stub__claswp_sym_kernel19claswp_sym_params_t
libmagma.so.2.8:_Z32__device_stub__csymmetrize_loweriP17magmaFloatComplexi
libmagma.so.2.8:_Z32__device_stub__csymmetrize_upperiP17magmaFloatComplexi
libmagma.so.2.8:_Z32__device_stub__ctranspose_kerneliiPK17magmaFloatComplexiPS_i
libmagma.so.2.8:_Z32__device_stub__ddiinertia_kerneliPKdiPi
libmagma.so.2.8:_Z32__device_stub__dgemv_conj_kerneliidPKdiS0_idPdi
libmagma.so.2.8:_Z32__device_stub__dlascl_diag_loweriiPKdiPdi
libmagma.so.2.8:_Z32__device_stub__dlascl_diag_upperiiPKdiPdi
libmagma.so.2.8:_Z32__device_stub__dlaset_band_loweriiddPdi
libmagma.so.2.8:_Z32__device_stub__dlaset_band_upperiiddPdi
libmagma.so.2.8:_Z32__device_stub__dlaswp_sym_kernel19dlaswp_sym_params_t
libmagma.so.2.8:_Z32__device_stub__dsymmetrize_loweriPdi
libmagma.so.2.8:_Z32__device_stub__dsymmetrize_upperiPdi
libmagma.so.2.8:_Z32__device_stub__dtranspose_kerneliiPKdiPdi
libmagma.so.2.8:_Z32__device_stub__kernel_dscal_dgeriiPdi
libmagma.so.2.8:_Z32__device_stub__kernel_sscal_sgeriiPfi
libmagma.so.2.8:_Z32__device_stub__prefix_sum_kernelPiS_iS_i
libmagma.so.2.8:_Z32__device_stub__sdiinertia_kerneliPKfiPi
libmagma.so.2.8:_Z32__device_stub__sgemv_conj_kerneliifPKfiS0_ifPfi
libmagma.so.2.8:_Z32__device_stub__slascl_diag_loweriiPKfiPfi
libmagma.so.2.8:_Z32__device_stub__slascl_diag_upperiiPKfiPfi
libmagma.so.2.8:_Z32__device_stub__slaset_band_loweriiffPfi
libmagma.so.2.8:_Z32__device_stub__slaset_band_upperiiffPfi
libmagma.so.2.8:_Z32__device_stub__slaswp_sym_kernel19slaswp_sym_params_t
libmagma.so.2.8:_Z32__device_stub__ssymmetrize_loweriPfi
libmagma.so.2.8:_Z32__device_stub__ssymmetrize_upperiPfi
libmagma.so.2.8:_Z32__device_stub__stranspose_kerneliiPKfiPfi
libmagma.so.2.8:_Z32__device_stub__zdiinertia_kerneliPK18magmaDoubleComplexiPi
libmagma.so.2.8:_Z32__device_stub__zgemv_conj_kernelii18magmaDoubleComplexPKS_iS1_iS_PS_i
libmagma.so.2.8:_Z32__device_stub__zlascl_diag_loweriiPK18magmaDoubleComplexiPS_i
libmagma.so.2.8:_Z32__device_stub__zlascl_diag_upperiiPK18magmaDoubleComplexiPS_i
libmagma.so.2.8:_Z32__device_stub__zlaset_band_lowerii18magmaDoubleComplexS_PS_i
libmagma.so.2.8:_Z32__device_stub__zlaset_band_upperii18magmaDoubleComplexS_PS_i
libmagma.so.2.8:_Z32__device_stub__zlaswp_sym_kernel19zlaswp_sym_params_t
libmagma.so.2.8:_Z32__device_stub__zsymmetrize_loweriP18magmaDoubleComplexi
libmagma.so.2.8:_Z32__device_stub__zsymmetrize_upperiP18magmaDoubleComplexi
libmagma.so.2.8:_Z32__device_stub__ztranspose_kerneliiPK18magmaDoubleComplexiPS_i
libmagma.so.2.8:_Z32ctranspose_kernel_batched_strideiiiP17magmaFloatComplexiS0_i
libmagma.so.2.8:_Z32ctrtri_diag_lower_kernel_batched12magma_diag_tiPKPK17magmaFloatComplexiPPS0_
libmagma.so.2.8:_Z32ctrtri_diag_upper_kernel_batched12magma_diag_tiPKPK17magmaFloatComplexiPPS0_
libmagma.so.2.8:_Z32dtranspose_kernel_batched_strideiiiPdiS_i
libmagma.so.2.8:_Z32dtrtri_diag_lower_kernel_batched12magma_diag_tiPKPKdiPPd
libmagma.so.2.8:_Z32dtrtri_diag_upper_kernel_batched12magma_diag_tiPKPKdiPPd
libmagma.so.2.8:_Z32stranspose_kernel_batched_strideiiiPfiS_i
libmagma.so.2.8:_Z32strtri_diag_lower_kernel_batched12magma_diag_tiPKPKfiPPf
libmagma.so.2.8:_Z32strtri_diag_upper_kernel_batched12magma_diag_tiPKPKfiPPf
libmagma.so.2.8:_Z32zdisplace_pointers_var_cc_kernelPP17magmaFloatComplexS1_Piii
libmagma.so.2.8:_Z32zdisplace_pointers_var_cc_kernelPP18magmaDoubleComplexS1_Piii
libmagma.so.2.8:_Z32zdisplace_pointers_var_cc_kernelPPdS0_Piii
libmagma.so.2.8:_Z32zdisplace_pointers_var_cc_kernelPPfS0_Piii
libmagma.so.2.8:_Z32zdisplace_pointers_var_cv_kernelPP17magmaFloatComplexS1_PiiS2_
libmagma.so.2.8:_Z32zdisplace_pointers_var_cv_kernelPP18magmaDoubleComplexS1_PiiS2_
libmagma.so.2.8:_Z32zdisplace_pointers_var_cv_kernelPPdS0_PiiS1_
libmagma.so.2.8:_Z32zdisplace_pointers_var_cv_kernelPPfS0_PiiS1_
libmagma.so.2.8:_Z32zdisplace_pointers_var_vc_kernelPP17magmaFloatComplexS1_PiS2_i
libmagma.so.2.8:_Z32zdisplace_pointers_var_vc_kernelPP18magmaDoubleComplexS1_PiS2_i
libmagma.so.2.8:_Z32zdisplace_pointers_var_vc_kernelPPdS0_PiS1_i
libmagma.so.2.8:_Z32zdisplace_pointers_var_vc_kernelPPfS0_PiS1_i
libmagma.so.2.8:_Z32zdisplace_pointers_var_vv_kernelPP17magmaFloatComplexS1_PiS2_S2_
libmagma.so.2.8:_Z32zdisplace_pointers_var_vv_kernelPP18magmaDoubleComplexS1_PiS2_S2_
libmagma.so.2.8:_Z32zdisplace_pointers_var_vv_kernelPPdS0_PiS1_S1_
libmagma.so.2.8:_Z32zdisplace_pointers_var_vv_kernelPPfS0_PiS1_S1_
libmagma.so.2.8:_Z32ztranspose_kernel_batched_strideiiiP18magmaDoubleComplexiS0_i
libmagma.so.2.8:_Z32ztrtri_diag_lower_kernel_batched12magma_diag_tiPKPK18magmaDoubleComplexiPPS0_
libmagma.so.2.8:_Z32ztrtri_diag_upper_kernel_batched12magma_diag_tiPKPK18magmaDoubleComplexiPPS0_
libmagma.so.2.8:_Z33__device_stub__adjust_ipiv_kernelPiii
libmagma.so.2.8:_Z33__device_stub__chemv_kernel_L_sumi17magmaFloatComplexiS_PS_iPKS_
libmagma.so.2.8:_Z33__device_stub__clacpy_conj_kerneliP17magmaFloatComplexiS0_i
libmagma.so.2.8:_Z33__device_stub__clacpy_full_kerneliiPK17magmaFloatComplexiPS_i
libmagma.so.2.8:_Z33__device_stub__claset_full_kernelii17magmaFloatComplexS_PS_i
libmagma.so.2.8:_Z33__device_stub__csymv_kernel_L_sumi17magmaFloatComplexiS_PS_iPKS_
libmagma.so.2.8:_Z33__device_stub__dlacpy_conj_kerneliPdiS_i
libmagma.so.2.8:_Z33__device_stub__dlacpy_full_kerneliiPKdiPdi
libmagma.so.2.8:_Z33__device_stub__dlaset_full_kerneliiddPdi
libmagma.so.2.8:_Z33__device_stub__dpotf2_ddot_kerneliPdiiiPi
libmagma.so.2.8:_Z33__device_stub__dslaswp_inv_kerneliPdiPfiiPKi
libmagma.so.2.8:_Z33__device_stub__dsymv_kernel_L_sumididPdiPKd
libmagma.so.2.8:_Z33__device_stub__kernel_cscal_cgeruiiP17magmaFloatComplexi
libmagma.so.2.8:_Z33__device_stub__kernel_zscal_zgeruiiP18magmaDoubleComplexi
libmagma.so.2.8:_Z33__device_stub__magma_clarf_kerneliPK17magmaFloatComplexS1_PS_i
libmagma.so.2.8:_Z33__device_stub__magma_dlarf_kerneliPKdS0_Pdi
libmagma.so.2.8:_Z33__device_stub__magma_slarf_kerneliPKfS0_Pfi
libmagma.so.2.8:_Z33__device_stub__magma_zlarf_kerneliPK18magmaDoubleComplexS1_PS_i
libmagma.so.2.8:_Z33__device_stub__slacpy_conj_kerneliPfiS_i
libmagma.so.2.8:_Z33__device_stub__slacpy_full_kerneliiPKfiPfi
libmagma.so.2.8:_Z33__device_stub__slaset_full_kerneliiffPfi
libmagma.so.2.8:_Z33__device_stub__spotf2_sdot_kerneliPfiiiPi
libmagma.so.2.8:_Z33__device_stub__ssymv_kernel_L_sumififPfiPKf
libmagma.so.2.8:_Z33__device_stub__zclaswp_inv_kerneliP18magmaDoubleComplexiP17magmaFloatComplexiiPKi
libmagma.so.2.8:_Z33__device_stub__zhemv_kernel_L_sumi18magmaDoubleComplexiS_PS_iPKS_
libmagma.so.2.8:_Z33__device_stub__zlacpy_conj_kerneliP18magmaDoubleComplexiS0_i
libmagma.so.2.8:_Z33__device_stub__zlacpy_full_kerneliiPK18magmaDoubleComplexiPS_i
libmagma.so.2.8:_Z33__device_stub__zlaset_full_kernelii18magmaDoubleComplexS_PS_i
libmagma.so.2.8:_Z33__device_stub__zsymv_kernel_L_sumi18magmaDoubleComplexiS_PS_iPKS_
libmagma.so.2.8:_Z33claswp_rowparallel_kernel_batchediiiPP17magmaFloatComplexiiiS1_iiiPPi
libmagma.so.2.8:_Z33cpotf2_smlpout_kernel_vbatched_v2iPiPP17magmaFloatComplexS_iiS_
libmagma.so.2.8:_Z33ctrtri_diag_lower_kernel_vbatched12magma_diag_tPiPKPK17magmaFloatComplexS0_PPS1_
libmagma.so.2.8:_Z33ctrtri_diag_upper_kernel_vbatched12magma_diag_tPiPKPK17magmaFloatComplexS0_PPS1_
libmagma.so.2.8:_Z33dlaswp_rowparallel_kernel_batchediiiPPdiiiS0_iiiPPi
libmagma.so.2.8:_Z33dpotf2_smlpout_kernel_vbatched_v2iPiPPdS_iiS_
libmagma.so.2.8:_Z33dtrtri_diag_lower_kernel_vbatched12magma_diag_tPiPKPKdS0_PPd
libmagma.so.2.8:_Z33dtrtri_diag_upper_kernel_vbatched12magma_diag_tPiPKPKdS0_PPd
libmagma.so.2.8:_Z33magma_getrf_vbatched_setup_kernelPiS_S_i
libmagma.so.2.8:_Z33slaswp_rowparallel_kernel_batchediiiPPfiiiS0_iiiPPi
libmagma.so.2.8:_Z33spotf2_smlpout_kernel_vbatched_v2iPiPPfS_iiS_
libmagma.so.2.8:_Z33strtri_diag_lower_kernel_vbatched12magma_diag_tPiPKPKfS0_PPf
libmagma.so.2.8:_Z33strtri_diag_upper_kernel_vbatched12magma_diag_tPiPKPKfS0_PPf
libmagma.so.2.8:_Z33triple_cgemm16_part1_lower_kerneliPK17magmaFloatComplexiPS_ii
libmagma.so.2.8:_Z33triple_cgemm16_part1_upper_kerneliPK17magmaFloatComplexiPS_ii
libmagma.so.2.8:_Z33triple_cgemm16_part2_lower_kerneliPK17magmaFloatComplexiPS_ii
libmagma.so.2.8:_Z33triple_cgemm16_part2_upper_kerneliPK17magmaFloatComplexiPS_ii
libmagma.so.2.8:_Z33triple_cgemm32_part1_lower_kerneliPK17magmaFloatComplexiPS_ii
libmagma.so.2.8:_Z33triple_cgemm32_part1_upper_kerneliPK17magmaFloatComplexiPS_ii
libmagma.so.2.8:_Z33triple_cgemm32_part2_lower_kerneliPK17magmaFloatComplexiPS_ii
libmagma.so.2.8:_Z33triple_cgemm32_part2_upper_kerneliPK17magmaFloatComplexiPS_ii
libmagma.so.2.8:_Z33triple_cgemm64_part1_lower_kerneliPK17magmaFloatComplexiPS_ii
libmagma.so.2.8:_Z33triple_cgemm64_part1_upper_kerneliPK17magmaFloatComplexiPS_ii
libmagma.so.2.8:_Z33triple_cgemm64_part2_lower_kerneliPK17magmaFloatComplexiPS_ii
libmagma.so.2.8:_Z33triple_cgemm64_part2_upper_kerneliPK17magmaFloatComplexiPS_ii
libmagma.so.2.8:_Z33triple_dgemm16_part1_lower_kerneliPKdiPdii
libmagma.so.2.8:_Z33triple_dgemm16_part1_upper_kerneliPKdiPdii
libmagma.so.2.8:_Z33triple_dgemm16_part2_lower_kerneliPKdiPdii
libmagma.so.2.8:_Z33triple_dgemm16_part2_upper_kerneliPKdiPdii
libmagma.so.2.8:_Z33triple_dgemm32_part1_lower_kerneliPKdiPdii
libmagma.so.2.8:_Z33triple_dgemm32_part1_upper_kerneliPKdiPdii
libmagma.so.2.8:_Z33triple_dgemm32_part2_lower_kerneliPKdiPdii
libmagma.so.2.8:_Z33triple_dgemm32_part2_upper_kerneliPKdiPdii
libmagma.so.2.8:_Z33triple_dgemm64_part1_lower_kerneliPKdiPdii
libmagma.so.2.8:_Z33triple_dgemm64_part1_upper_kerneliPKdiPdii
libmagma.so.2.8:_Z33triple_dgemm64_part2_lower_kerneliPKdiPdii
libmagma.so.2.8:_Z33triple_dgemm64_part2_upper_kerneliPKdiPdii
libmagma.so.2.8:_Z33triple_sgemm16_part1_lower_kerneliPKfiPfii
libmagma.so.2.8:_Z33triple_sgemm16_part1_upper_kerneliPKfiPfii
libmagma.so.2.8:_Z33triple_sgemm16_part2_lower_kerneliPKfiPfii
libmagma.so.2.8:_Z33triple_sgemm16_part2_upper_kerneliPKfiPfii
libmagma.so.2.8:_Z33triple_sgemm32_part1_lower_kerneliPKfiPfii
libmagma.so.2.8:_Z33triple_sgemm32_part1_upper_kerneliPKfiPfii
libmagma.so.2.8:_Z33triple_sgemm32_part2_lower_kerneliPKfiPfii
libmagma.so.2.8:_Z33triple_sgemm32_part2_upper_kerneliPKfiPfii
libmagma.so.2.8:_Z33triple_sgemm64_part1_lower_kerneliPKfiPfii
libmagma.so.2.8:_Z33triple_sgemm64_part1_upper_kerneliPKfiPfii
libmagma.so.2.8:_Z33triple_sgemm64_part2_lower_kerneliPKfiPfii
libmagma.so.2.8:_Z33triple_sgemm64_part2_upper_kerneliPKfiPfii
libmagma.so.2.8:_Z33triple_zgemm16_part1_lower_kerneliPK18magmaDoubleComplexiPS_ii
libmagma.so.2.8:_Z33triple_zgemm16_part1_upper_kerneliPK18magmaDoubleComplexiPS_ii
libmagma.so.2.8:_Z33triple_zgemm16_part2_lower_kerneliPK18magmaDoubleComplexiPS_ii
libmagma.so.2.8:_Z33triple_zgemm16_part2_upper_kerneliPK18magmaDoubleComplexiPS_ii
libmagma.so.2.8:_Z33triple_zgemm32_part1_lower_kerneliPK18magmaDoubleComplexiPS_ii
libmagma.so.2.8:_Z33triple_zgemm32_part1_upper_kerneliPK18magmaDoubleComplexiPS_ii
libmagma.so.2.8:_Z33triple_zgemm32_part2_lower_kerneliPK18magmaDoubleComplexiPS_ii
libmagma.so.2.8:_Z33triple_zgemm32_part2_upper_kerneliPK18magmaDoubleComplexiPS_ii
libmagma.so.2.8:_Z33triple_zgemm64_part1_lower_kerneliPK18magmaDoubleComplexiPS_ii
libmagma.so.2.8:_Z33triple_zgemm64_part1_upper_kerneliPK18magmaDoubleComplexiPS_ii
libmagma.so.2.8:_Z33triple_zgemm64_part2_lower_kerneliPK18magmaDoubleComplexiPS_ii
libmagma.so.2.8:_Z33triple_zgemm64_part2_upper_kerneliPK18magmaDoubleComplexiPS_ii
libmagma.so.2.8:_Z33zlaswp_rowparallel_kernel_batchediiiPP18magmaDoubleComplexiiiS1_iiiPPi
libmagma.so.2.8:_Z33zpotf2_smlpout_kernel_vbatched_v2iPiPP18magmaDoubleComplexS_iiS_
libmagma.so.2.8:_Z33ztrtri_diag_lower_kernel_vbatched12magma_diag_tPiPKPK18magmaDoubleComplexS0_PPS1_
libmagma.so.2.8:_Z33ztrtri_diag_upper_kernel_vbatched12magma_diag_tPiPKPK18magmaDoubleComplexS0_PPS1_
libmagma.so.2.8:_Z34__device_stub__chemv_kernel_L_mgpuiPK17magmaFloatComplexiS1_iPS_iii
libmagma.so.2.8:_Z34__device_stub__clacpy_lower_kerneliiPK17magmaFloatComplexiPS_i
libmagma.so.2.8:_Z34__device_stub__clacpy_upper_kerneliiPK17magmaFloatComplexiPS_i
libmagma.so.2.8:_Z34__device_stub__claset_lower_kernelii17magmaFloatComplexS_PS_i
libmagma.so.2.8:_Z34__device_stub__claset_upper_kernelii17magmaFloatComplexS_PS_i
libmagma.so.2.8:_Z34__device_stub__cpotf2_cdotc_kerneliP17magmaFloatComplexiiiPi
libmagma.so.2.8:_Z34__device_stub__cswap_kernel_nativeiP17magmaFloatComplexiiPi
libmagma.so.2.8:_Z34__device_stub__dger_kernel_batchediidPPdiiiiS0_iiiiS0_iii
libmagma.so.2.8:_Z34__device_stub__dlacpy_lower_kerneliiPKdiPdi
libmagma.so.2.8:_Z34__device_stub__dlacpy_upper_kerneliiPKdiPdi
libmagma.so.2.8:_Z34__device_stub__dlaset_lower_kerneliiddPdi
libmagma.so.2.8:_Z34__device_stub__dlaset_upper_kerneliiddPdi
libmagma.so.2.8:_Z34__device_stub__dpotf2_dscal_kerneliPdiPi
libmagma.so.2.8:_Z34__device_stub__dswap_kernel_nativeiPdiiPi
libmagma.so.2.8:_Z34__device_stub__dsymv_kernel_L_mgpuiPKdiS0_iPdiii
libmagma.so.2.8:_Z34__device_stub__kernel_cset_pointerPP17magmaFloatComplexS0_iiii
libmagma.so.2.8:_Z34__device_stub__kernel_dset_pointerPPdS_iiii
libmagma.so.2.8:_Z34__device_stub__kernel_hset_pointerPP6__halfS0_iiii
libmagma.so.2.8:_Z34__device_stub__kernel_sset_pointerPPfS_iiii
libmagma.so.2.8:_Z34__device_stub__kernel_zset_pointerPP18magmaDoubleComplexS0_iiii
libmagma.so.2.8:_Z34__device_stub__magma_clarfx_kerneliP17magmaFloatComplexS0_S0_iPfS0_i
libmagma.so.2.8:_Z34__device_stub__magma_dlarfx_kerneliPdS_S_iS_S_i
libmagma.so.2.8:_Z34__device_stub__magma_slarfx_kerneliPfS_S_iS_S_i
libmagma.so.2.8:_Z34__device_stub__magma_zlarfx_kerneliP18magmaDoubleComplexS0_S0_iPdS0_i
libmagma.so.2.8:_Z34__device_stub__magmagpu_cswapblkcm26magmagpu_cswapblk_params_t
libmagma.so.2.8:_Z34__device_stub__magmagpu_cswapblkrm26magmagpu_cswapblk_params_t
libmagma.so.2.8:_Z34__device_stub__magmagpu_dswapblkcm26magmagpu_dswapblk_params_t
libmagma.so.2.8:_Z34__device_stub__magmagpu_dswapblkrm26magmagpu_dswapblk_params_t
libmagma.so.2.8:_Z34__device_stub__magmagpu_sswapblkcm26magmagpu_sswapblk_params_t
libmagma.so.2.8:_Z34__device_stub__magmagpu_sswapblkrm26magmagpu_sswapblk_params_t
libmagma.so.2.8:_Z34__device_stub__magmagpu_zswapblkcm26magmagpu_zswapblk_params_t
libmagma.so.2.8:_Z34__device_stub__magmagpu_zswapblkrm26magmagpu_zswapblk_params_t
libmagma.so.2.8:_Z34__device_stub__sger_kernel_batchediifPPfiiiiS0_iiiiS0_iii
libmagma.so.2.8:_Z34__device_stub__slacpy_lower_kerneliiPKfiPfi
libmagma.so.2.8:_Z34__device_stub__slacpy_upper_kerneliiPKfiPfi
libmagma.so.2.8:_Z34__device_stub__slaset_lower_kerneliiffPfi
libmagma.so.2.8:_Z34__device_stub__slaset_upper_kerneliiffPfi
libmagma.so.2.8:_Z34__device_stub__spotf2_sscal_kerneliPfiPi
libmagma.so.2.8:_Z34__device_stub__sswap_kernel_nativeiPfiiPi
libmagma.so.2.8:_Z34__device_stub__ssymv_kernel_L_mgpuiPKfiS0_iPfiii
libmagma.so.2.8:_Z34__device_stub__zhemv_kernel_L_mgpuiPK18magmaDoubleComplexiS1_iPS_iii
libmagma.so.2.8:_Z34__device_stub__zlacpy_lower_kerneliiPK18magmaDoubleComplexiPS_i
libmagma.so.2.8:_Z34__device_stub__zlacpy_upper_kerneliiPK18magmaDoubleComplexiPS_i
libmagma.so.2.8:_Z34__device_stub__zlaset_lower_kernelii18magmaDoubleComplexS_PS_i
libmagma.so.2.8:_Z34__device_stub__zlaset_upper_kernelii18magmaDoubleComplexS_PS_i
libmagma.so.2.8:_Z34__device_stub__zpotf2_zdotc_kerneliP18magmaDoubleComplexiiiPi
libmagma.so.2.8:_Z34__device_stub__zswap_kernel_nativeiP18magmaDoubleComplexiiPi
libmagma.so.2.8:_Z34claswp_columnserial_kernel_batchediPP17magmaFloatComplexiiiPPi
libmagma.so.2.8:_Z34dlaswp_columnserial_kernel_batchediPPdiiiPPi
libmagma.so.2.8:_Z34magmablas_dscal_inverseblock_lowerPKdiPdi
libmagma.so.2.8:_Z34magmablas_dscal_inverseblock_upperPKdiPdi
libmagma.so.2.8:_Z34magmablas_sscal_inverseblock_lowerPKfiPfi
libmagma.so.2.8:_Z34magmablas_sscal_inverseblock_upperPKfiPfi
libmagma.so.2.8:_Z34slaswp_columnserial_kernel_batchediPPfiiiPPi
libmagma.so.2.8:_Z34zlaswp_columnserial_kernel_batchediPP18magmaDoubleComplexiiiPPi
libmagma.so.2.8:_Z35__device_stub__cgbtf2_native_kerneliiiiiP17magmaFloatComplexiPiS1_iS1_
libmagma.so.2.8:_Z35__device_stub__cgeru_kernel_batchedii17magmaFloatComplexPPS_iiiiS1_iiiiS1_iii
libmagma.so.2.8:_Z35__device_stub__convert_dp2hp_kerneliiPKdiP6__halfi
libmagma.so.2.8:_Z35__device_stub__convert_hp2dp_kerneliiPK6__halfiPdi
libmagma.so.2.8:_Z35__device_stub__convert_hp2sp_kerneliiPK6__halfiPfi
libmagma.so.2.8:_Z35__device_stub__convert_sp2hp_kerneliiPKfiP6__halfi
libmagma.so.2.8:_Z35__device_stub__cpotf2_clacgv_kerneliP17magmaFloatComplexi
libmagma.so.2.8:_Z35__device_stub__cpotf2_csscal_kerneliP17magmaFloatComplexiPi
libmagma.so.2.8:_Z35__device_stub__cswap_kernel_batchediPP17magmaFloatComplexiiiiPPi
libmagma.so.2.8:_Z35__device_stub__dgbtf2_native_kerneliiiiiPdiPiS0_iS0_
libmagma.so.2.8:_Z35__device_stub__dswap_kernel_batchediPPdiiiiPPi
libmagma.so.2.8:_Z35__device_stub__icamax_kernel_nativeiP17magmaFloatComplexiPiS1_ii
libmagma.so.2.8:_Z35__device_stub__idamax_kernel_nativeiPdiPiS0_ii
libmagma.so.2.8:_Z35__device_stub__isamax_kernel_nativeiPfiPiS0_ii
libmagma.so.2.8:_Z35__device_stub__izamax_kernel_nativeiP18magmaDoubleComplexiPiS1_ii
libmagma.so.2.8:_Z35__device_stub__magma_clarf_smkerneliiP17magmaFloatComplexS0_S0_i
libmagma.so.2.8:_Z35__device_stub__magma_dlarf_smkerneliiPdS_S_i
libmagma.so.2.8:_Z35__device_stub__magma_slarf_smkerneliiPfS_S_i
libmagma.so.2.8:_Z35__device_stub__magma_zlarf_smkerneliiP18magmaDoubleComplexS0_S0_i
libmagma.so.2.8:_Z35__device_stub__prefix_update_kernelPiiS_
libmagma.so.2.8:_Z35__device_stub__setup_pivinfo_kernelPiS_ii
libmagma.so.2.8:_Z35__device_stub__sgbtf2_native_kerneliiiiiPfiPiS0_iS0_
libmagma.so.2.8:_Z35__device_stub__sswap_kernel_batchediPPfiiiiPPi
libmagma.so.2.8:_Z35__device_stub__zgbtf2_native_kerneliiiiiP18magmaDoubleComplexiPiS1_iS1_
libmagma.so.2.8:_Z35__device_stub__zgeru_kernel_batchedii18magmaDoubleComplexPPS_iiiiS1_iiiiS1_iii
libmagma.so.2.8:_Z35__device_stub__zpotf2_zdscal_kerneliP18magmaDoubleComplexiPi
libmagma.so.2.8:_Z35__device_stub__zpotf2_zlacgv_kerneliP18magmaDoubleComplexi
libmagma.so.2.8:_Z35__device_stub__zswap_kernel_batchediPP18magmaDoubleComplexiiiiPPi
libmagma.so.2.8:_Z35clarft_ctrmv_sm32x32_kernel_batchediiPP17magmaFloatComplexiS1_iiiS1_iii
libmagma.so.2.8:_Z35dlarft_dtrmv_sm32x32_kernel_batchediiPPdiS0_iiiS0_iii
libmagma.so.2.8:_Z35dscal_dger_1d_generic_kernel_nativeiiPdiPiii
libmagma.so.2.8:_Z35magma_cswap_scal_inverseblock_loweriiiP17magmaFloatComplexiS0_i
libmagma.so.2.8:_Z35magma_dnrm2_row_check_adjust_kernelidPdS_S_iS_
libmagma.so.2.8:_Z35magma_dswap_scal_inverseblock_loweriiiPdiS_i
libmagma.so.2.8:_Z35magma_snrm2_row_check_adjust_kernelifPfS_S_iS_
libmagma.so.2.8:_Z35magma_sswap_scal_inverseblock_loweriiiPfiS_i
libmagma.so.2.8:_Z35magma_zswap_scal_inverseblock_loweriiiP18magmaDoubleComplexiS0_i
libmagma.so.2.8:_Z35magmablas_csscal_inverseblock_lowerPK17magmaFloatComplexiPS_i
libmagma.so.2.8:_Z35magmablas_csscal_inverseblock_upperPK17magmaFloatComplexiPS_i
libmagma.so.2.8:_Z35magmablas_zdscal_inverseblock_lowerPK18magmaDoubleComplexiPS_i
libmagma.so.2.8:_Z35magmablas_zdscal_inverseblock_upperPK18magmaDoubleComplexiPS_i
libmagma.so.2.8:_Z35slarft_strmv_sm32x32_kernel_batchediiPPfiS0_iiiS0_iii
libmagma.so.2.8:_Z35sscal_sger_1d_generic_kernel_nativeiiPfiPiii
libmagma.so.2.8:_Z35zlarft_ztrmv_sm32x32_kernel_batchediiPP18magmaDoubleComplexiS1_iiiS1_iii
libmagma.so.2.8:_Z36__device_stub__axpy_vbatched_checkerPiS_S_i
libmagma.so.2.8:_Z36__device_stub__cgeadd_batched_kernelii17magmaFloatComplexPKPKS_iPPS_i
libmagma.so.2.8:_Z36__device_stub__cgeqr2_kernel_batchediiPP17magmaFloatComplexiiiS1_i
libmagma.so.2.8:_Z36__device_stub__cswap_kernel_vbatchediPiS_PP17magmaFloatComplexiiS_PS_i
libmagma.so.2.8:_Z36__device_stub__dgeadd_batched_kerneliidPKPKdiPPdi
libmagma.so.2.8:_Z36__device_stub__dgeqr2_kernel_batchediiPPdiiiS0_i
libmagma.so.2.8:_Z36__device_stub__dswap_kernel_vbatchediPiS_PPdiiS_PS_i
libmagma.so.2.8:_Z36__device_stub__gemm_vbatched_checker13magma_trans_tS_PiS0_S0_S0_S0_S0_i
libmagma.so.2.8:_Z36__device_stub__gemv_vbatched_checker13magma_trans_tPiS0_S0_S0_S0_i
libmagma.so.2.8:_Z36__device_stub__hemm_vbatched_checker12magma_side_tPiS0_S0_S0_S0_i
libmagma.so.2.8:_Z36__device_stub__hemv_vbatched_checker12magma_uplo_tPiS0_S0_S0_i
libmagma.so.2.8:_Z36__device_stub__herk_vbatched_checker13magma_trans_tPiS0_S0_S0_i
libmagma.so.2.8:_Z36__device_stub__hlag2s_kernel_batchediiPKPK6__halfiPPfi
libmagma.so.2.8:_Z36__device_stub__icamax_kernel_batchediPP17magmaFloatComplexiiiiPPiiS2_ii
libmagma.so.2.8:_Z36__device_stub__idamax_kernel_batchediPPdiiiiPPiiS1_ii
libmagma.so.2.8:_Z36__device_stub__isamax_kernel_batchediPPfiiiiPPiiS1_ii
libmagma.so.2.8:_Z36__device_stub__izamax_kernel_batchediPP18magmaDoubleComplexiiiiPPiiS2_ii
libmagma.so.2.8:_Z36__device_stub__magma_ivec_add_kerneliiPiiS_S_
libmagma.so.2.8:_Z36__device_stub__magma_ivec_max_kerneliPiS_i
libmagma.so.2.8:_Z36__device_stub__magma_ivec_mul_kerneliPiS_S_
libmagma.so.2.8:_Z36__device_stub__sgeadd_batched_kerneliifPKPKfiPPfi
libmagma.so.2.8:_Z36__device_stub__sgeqr2_kernel_batchediiPPfiiiS0_i
libmagma.so.2.8:_Z36__device_stub__slag2h_kernel_batchediiPKPKfiPP6__halfifPiP11magma_queue
libmagma.so.2.8:_Z36__device_stub__sswap_kernel_vbatchediPiS_PPfiiS_PS_i
libmagma.so.2.8:_Z36__device_stub__trmm_vbatched_checker12magma_side_tPiS0_S0_S0_i
libmagma.so.2.8:_Z36__device_stub__trsm_vbatched_checker12magma_side_tPiS0_S0_S0_i
libmagma.so.2.8:_Z36__device_stub__zgeadd_batched_kernelii18magmaDoubleComplexPKPKS_iPPS_i
libmagma.so.2.8:_Z36__device_stub__zgeqr2_kernel_batchediiPP18magmaDoubleComplexiiiS1_i
libmagma.so.2.8:_Z36__device_stub__zswap_kernel_vbatchediPiS_PP18magmaDoubleComplexiiS_PS_i
libmagma.so.2.8:_Z36cherk_small_reduce_scale_beta_kernel12magma_uplo_ti17magmaFloatComplexPS0_i
libmagma.so.2.8:_Z36cscal_cgeru_1d_generic_kernel_nativeiiP17magmaFloatComplexiPiii
libmagma.so.2.8:_Z36dscal_dger_1d_generic_kernel_batchediiPPdiiiPiii
libmagma.so.2.8:_Z36dsyrk_small_reduce_scale_beta_kernel12magma_uplo_tidPdi
libmagma.so.2.8:_Z36magma_dznrm2_row_check_adjust_kernelidPdS_P18magmaDoubleComplexiS_
libmagma.so.2.8:_Z36magma_scnrm2_row_check_adjust_kernelifPfS_P17magmaFloatComplexiS_
libmagma.so.2.8:_Z36sscal_sger_1d_generic_kernel_batchediiPPfiiiPiii
libmagma.so.2.8:_Z36ssyrk_small_reduce_scale_beta_kernel12magma_uplo_tifPfi
libmagma.so.2.8:_Z36zcomputecolumn_kernel_shared_batchediiiPP17magmaFloatComplexiiiPPiS2_i
libmagma.so.2.8:_Z36zcomputecolumn_kernel_shared_batchediiiPP18magmaDoubleComplexiiiPPiS2_i
libmagma.so.2.8:_Z36zcomputecolumn_kernel_shared_batchediiiPPdiiiPPiS1_i
libmagma.so.2.8:_Z36zcomputecolumn_kernel_shared_batchediiiPPfiiiPPiS1_i
libmagma.so.2.8:_Z36zherk_small_reduce_scale_beta_kernel12magma_uplo_ti18magmaDoubleComplexPS0_i
libmagma.so.2.8:_Z36zscal_zgeru_1d_generic_kernel_nativeiiP18magmaDoubleComplexiPiii
libmagma.so.2.8:_Z37__device_stub__ctranspose_conj_kerneliiPK17magmaFloatComplexiPS_i
libmagma.so.2.8:_Z37__device_stub__ctranspose_inplace_oddiP17magmaFloatComplexi
libmagma.so.2.8:_Z37__device_stub__dtranspose_inplace_oddiPdi
libmagma.so.2.8:_Z37__device_stub__getrf_vbatched_checkerPiS_S_S_i
libmagma.so.2.8:_Z37__device_stub__her2k_vbatched_checker13magma_trans_tPiS0_S0_S0_S0_i
libmagma.so.2.8:_Z37__device_stub__icamax_kernel_vbatchediPiS_PP17magmaFloatComplexiiS_PS_iS_ii
libmagma.so.2.8:_Z37__device_stub__idamax_kernel_vbatchediPiS_PPdiiS_PS_iS_ii
libmagma.so.2.8:_Z37__device_stub__isamax_kernel_vbatchediPiS_PPfiiS_PS_iS_ii
libmagma.so.2.8:_Z37__device_stub__izamax_kernel_vbatchediPiS_PP18magmaDoubleComplexiiS_PS_iS_ii
libmagma.so.2.8:_Z37__device_stub__magma_ivec_addc_kerneliPiiS_
libmagma.so.2.8:_Z37__device_stub__magma_ivec_maxc_kerneliPiiS_
libmagma.so.2.8:_Z37__device_stub__magma_ivec_minc_kerneliPiiS_
libmagma.so.2.8:_Z37__device_stub__magma_ivec_mulc_kerneliPiiS_
libmagma.so.2.8:_Z37__device_stub__magmablas_dnrm2_kerneliPdiS_
libmagma.so.2.8:_Z37__device_stub__magmablas_snrm2_kerneliPfiS_
libmagma.so.2.8:_Z37__device_stub__potrf_vbatched_checker12magma_uplo_tPiS0_i
libmagma.so.2.8:_Z37__device_stub__stranspose_inplace_oddiPfi
libmagma.so.2.8:_Z37__device_stub__ztranspose_conj_kerneliiPK18magmaDoubleComplexiPS_i
libmagma.so.2.8:_Z37__device_stub__ztranspose_inplace_oddiP18magmaDoubleComplexi
libmagma.so.2.8:_Z37claswp_left_rowserial_kernel_vbatchediPiS_PP17magmaFloatComplexiiS_PS_iii
libmagma.so.2.8:_Z37cpotf2_smlpin_anywidth_kernel_batchediPP17magmaFloatComplexiiiiiPii
libmagma.so.2.8:_Z37cpotf2_smlpin_fixwidth_kernel_batchediPP17magmaFloatComplexiiiiiPii
libmagma.so.2.8:_Z37cscal_cgeru_1d_generic_kernel_batchediiPP17magmaFloatComplexiiiPiii
libmagma.so.2.8:_Z37dlaswp_left_rowserial_kernel_vbatchediPiS_PPdiiS_PS_iii
libmagma.so.2.8:_Z37dpotf2_smlpin_anywidth_kernel_batchediPPdiiiiiPii
libmagma.so.2.8:_Z37dpotf2_smlpin_fixwidth_kernel_batchediPPdiiiiiPii
libmagma.so.2.8:_Z37dscal_dger_1d_generic_kernel_vbatchediiPiS_PPdiiS_S_ii
libmagma.so.2.8:_Z37slaswp_left_rowserial_kernel_vbatchediPiS_PPfiiS_PS_iii
libmagma.so.2.8:_Z37spotf2_smlpin_anywidth_kernel_batchediPPfiiiiiPii
libmagma.so.2.8:_Z37spotf2_smlpin_fixwidth_kernel_batchediPPfiiiiiPii
libmagma.so.2.8:_Z37sscal_sger_1d_generic_kernel_vbatchediiPiS_PPfiiS_S_ii
libmagma.so.2.8:_Z37zlaswp_left_rowserial_kernel_vbatchediPiS_PP18magmaDoubleComplexiiS_PS_iii
libmagma.so.2.8:_Z37zpotf2_smlpin_anywidth_kernel_batchediPP18magmaDoubleComplexiiiiiPii
libmagma.so.2.8:_Z37zpotf2_smlpin_fixwidth_kernel_batchediPP18magmaDoubleComplexiiiiiPii
libmagma.so.2.8:_Z37zscal_zgeru_1d_generic_kernel_batchediiPP18magmaDoubleComplexiiiPiii
libmagma.so.2.8:_Z38__device_stub__cgbtf2_native_kernel_v2iiiiiiP17magmaFloatComplexiPiS1_iS1_
libmagma.so.2.8:_Z38__device_stub__cheinertia_lower_kerneliPK17magmaFloatComplexiPiS2_
libmagma.so.2.8:_Z38__device_stub__cheinertia_upper_kerneliPK17magmaFloatComplexiPiS2_
libmagma.so.2.8:_Z38__device_stub__chemv_kernel_L_mgpu_sumi17magmaFloatComplexiPS_iPKS_iii
libmagma.so.2.8:_Z38__device_stub__clanhe_inf_kernel_loweriPK17magmaFloatComplexiPfii
libmagma.so.2.8:_Z38__device_stub__clanhe_inf_kernel_upperiPK17magmaFloatComplexiPfii
libmagma.so.2.8:_Z38__device_stub__clanhe_max_kernel_loweriPK17magmaFloatComplexiPf
libmagma.so.2.8:_Z38__device_stub__clanhe_max_kernel_upperiPK17magmaFloatComplexiPf
libmagma.so.2.8:_Z38__device_stub__csymmetrize_tiles_loweriP17magmaFloatComplexiii
libmagma.so.2.8:_Z38__device_stub__csymmetrize_tiles_upperiP17magmaFloatComplexiii
libmagma.so.2.8:_Z38__device_stub__ctranspose_inplace_eveniP17magmaFloatComplexi
libmagma.so.2.8:_Z38__device_stub__dgbtf2_native_kernel_v2iiiiiiPdiPiS0_iS0_
libmagma.so.2.8:_Z38__device_stub__dlansy_inf_kernel_loweriPKdiPdii
libmagma.so.2.8:_Z38__device_stub__dlansy_inf_kernel_upperiPKdiPdii
libmagma.so.2.8:_Z38__device_stub__dlansy_max_kernel_loweriPKdiPd
libmagma.so.2.8:_Z38__device_stub__dlansy_max_kernel_upperiPKdiPd
libmagma.so.2.8:_Z38__device_stub__dsiinertia_lower_kerneliPKdiPiS1_
libmagma.so.2.8:_Z38__device_stub__dsiinertia_upper_kerneliPKdiPiS1_
libmagma.so.2.8:_Z38__device_stub__dsymmetrize_tiles_loweriPdiii
libmagma.so.2.8:_Z38__device_stub__dsymmetrize_tiles_upperiPdiii
libmagma.so.2.8:_Z38__device_stub__dsymv_kernel_L_mgpu_sumidiPdiPKdiii
libmagma.so.2.8:_Z38__device_stub__dtranspose_inplace_eveniPdi
libmagma.so.2.8:_Z38__device_stub__kernel_cset_pointer_varPP17magmaFloatComplexS0_PiiiS2_
libmagma.so.2.8:_Z38__device_stub__kernel_dset_pointer_varPPdS_PiiiS1_
libmagma.so.2.8:_Z38__device_stub__kernel_sset_pointer_varPPfS_PiiiS1_
libmagma.so.2.8:_Z38__device_stub__kernel_zset_pointer_varPP18magmaDoubleComplexS0_PiiiS2_
libmagma.so.2.8:_Z38__device_stub__magma_clarfg_gpu_kerneliP17magmaFloatComplexS0_S0_PfS0_
libmagma.so.2.8:_Z38__device_stub__magma_dlarfg_gpu_kerneliPdS_S_S_S_
libmagma.so.2.8:_Z38__device_stub__magma_slarfg_gpu_kerneliPfS_S_S_S_
libmagma.so.2.8:_Z38__device_stub__magma_zlarfg_gpu_kerneliP18magmaDoubleComplexS0_S0_PdS0_
libmagma.so.2.8:_Z38__device_stub__magmablas_dscal_inversePdS_i
libmagma.so.2.8:_Z38__device_stub__magmablas_dznrm2_kerneliP18magmaDoubleComplexiPd
libmagma.so.2.8:_Z38__device_stub__magmablas_scnrm2_kerneliP17magmaFloatComplexiPf
libmagma.so.2.8:_Z38__device_stub__magmablas_sscal_inversePfS_i
libmagma.so.2.8:_Z38__device_stub__setup_pivinfo_sm_kernelPiS_ii
libmagma.so.2.8:_Z38__device_stub__sgbtf2_native_kernel_v2iiiiiiPfiPiS0_iS0_
libmagma.so.2.8:_Z38__device_stub__slansy_inf_kernel_loweriPKfiPfii
libmagma.so.2.8:_Z38__device_stub__slansy_inf_kernel_upperiPKfiPfii
libmagma.so.2.8:_Z38__device_stub__slansy_max_kernel_loweriPKfiPf
libmagma.so.2.8:_Z38__device_stub__slansy_max_kernel_upperiPKfiPf
libmagma.so.2.8:_Z38__device_stub__ssiinertia_lower_kerneliPKfiPiS1_
libmagma.so.2.8:_Z38__device_stub__ssiinertia_upper_kerneliPKfiPiS1_
libmagma.so.2.8:_Z38__device_stub__ssymmetrize_tiles_loweriPfiii
libmagma.so.2.8:_Z38__device_stub__ssymmetrize_tiles_upperiPfiii
libmagma.so.2.8:_Z38__device_stub__ssymv_kernel_L_mgpu_sumifiPfiPKfiii
libmagma.so.2.8:_Z38__device_stub__stranspose_inplace_eveniPfi
libmagma.so.2.8:_Z38__device_stub__zgbtf2_native_kernel_v2iiiiiiP18magmaDoubleComplexiPiS1_iS1_
libmagma.so.2.8:_Z38__device_stub__zheinertia_lower_kerneliPK18magmaDoubleComplexiPiS2_
libmagma.so.2.8:_Z38__device_stub__zheinertia_upper_kerneliPK18magmaDoubleComplexiPiS2_
libmagma.so.2.8:_Z38__device_stub__zhemv_kernel_L_mgpu_sumi18magmaDoubleComplexiPS_iPKS_iii
libmagma.so.2.8:_Z38__device_stub__zlanhe_inf_kernel_loweriPK18magmaDoubleComplexiPdii
libmagma.so.2.8:_Z38__device_stub__zlanhe_inf_kernel_upperiPK18magmaDoubleComplexiPdii
libmagma.so.2.8:_Z38__device_stub__zlanhe_max_kernel_loweriPK18magmaDoubleComplexiPd
libmagma.so.2.8:_Z38__device_stub__zlanhe_max_kernel_upperiPK18magmaDoubleComplexiPd
libmagma.so.2.8:_Z38__device_stub__zsymmetrize_tiles_loweriP18magmaDoubleComplexiii
libmagma.so.2.8:_Z38__device_stub__zsymmetrize_tiles_upperiP18magmaDoubleComplexiii
libmagma.so.2.8:_Z38__device_stub__ztranspose_inplace_eveniP18magmaDoubleComplexi
libmagma.so.2.8:_Z38cgbtf2_adjust_ju_fillin_kernel_batchediiiPP17magmaFloatComplexiPPiS2_ii
libmagma.so.2.8:_Z38cgbtrs_upper_columnwise_kernel_batchediiiiiPP17magmaFloatComplexiS1_i
libmagma.so.2.8:_Z38clarft_recctrmv_sm32x32_kernel_batchediiPP17magmaFloatComplexiS1_iiiS1_iii
libmagma.so.2.8:_Z38claswp_right_rowserial_kernel_vbatchediPiS_PP17magmaFloatComplexiiS_PS_iii
libmagma.so.2.8:_Z38cpotf2_smlpout_anywidth_kernel_batchediiPP17magmaFloatComplexiiiiiPii
libmagma.so.2.8:_Z38cpotf2_smlpout_fixwidth_kernel_batchediPP17magmaFloatComplexiiiiiPii
libmagma.so.2.8:_Z38cscal_cgeru_1d_generic_kernel_vbatchediiPiS_PP17magmaFloatComplexiiS_S_ii
libmagma.so.2.8:_Z38dgbtf2_adjust_ju_fillin_kernel_batchediiiPPdiPPiS1_ii
libmagma.so.2.8:_Z38dgbtrs_upper_columnwise_kernel_batchediiiiiPPdiS0_i
libmagma.so.2.8:_Z38dlarft_recdtrmv_sm32x32_kernel_batchediiPPdiS0_iiiS0_iii
libmagma.so.2.8:_Z38dlaswp_right_rowserial_kernel_vbatchediPiS_PPdiiS_PS_iii
libmagma.so.2.8:_Z38dpotf2_smlpout_anywidth_kernel_batchediiPPdiiiiiPii
libmagma.so.2.8:_Z38dpotf2_smlpout_fixwidth_kernel_batchediPPdiiiiiPii
libmagma.so.2.8:_Z38magmablas_capply_vector_kernel_batchediP17magmaFloatComplexiPS0_i
libmagma.so.2.8:_Z38magmablas_dapply_vector_kernel_batchediPdiPS_i
libmagma.so.2.8:_Z38magmablas_sapply_vector_kernel_batchediPfiPS_i
libmagma.so.2.8:_Z38magmablas_zapply_vector_kernel_batchediP18magmaDoubleComplexiPS0_i
libmagma.so.2.8:_Z38sgbtf2_adjust_ju_fillin_kernel_batchediiiPPfiPPiS1_ii
libmagma.so.2.8:_Z38sgbtrs_upper_columnwise_kernel_batchediiiiiPPfiS0_i
libmagma.so.2.8:_Z38slarft_recstrmv_sm32x32_kernel_batchediiPPfiS0_iiiS0_iii
libmagma.so.2.8:_Z38slaswp_right_rowserial_kernel_vbatchediPiS_PPfiiS_PS_iii
libmagma.so.2.8:_Z38spotf2_smlpout_anywidth_kernel_batchediiPPfiiiiiPii
libmagma.so.2.8:_Z38spotf2_smlpout_fixwidth_kernel_batchediPPfiiiiiPii
libmagma.so.2.8:_Z38zgbtf2_adjust_ju_fillin_kernel_batchediiiPP18magmaDoubleComplexiPPiS2_ii
libmagma.so.2.8:_Z38zgbtrs_upper_columnwise_kernel_batchediiiiiPP18magmaDoubleComplexiS1_i
libmagma.so.2.8:_Z38zlarft_recztrmv_sm32x32_kernel_batchediiPP18magmaDoubleComplexiS1_iiiS1_iii
libmagma.so.2.8:_Z38zlaswp_right_rowserial_kernel_vbatchediPiS_PP18magmaDoubleComplexiiS_PS_iii
libmagma.so.2.8:_Z38zpotf2_smlpout_anywidth_kernel_batchediiPP18magmaDoubleComplexiiiiiPii
libmagma.so.2.8:_Z38zpotf2_smlpout_fixwidth_kernel_batchediPP18magmaDoubleComplexiiiiiPii
libmagma.so.2.8:_Z38zscal_zgeru_1d_generic_kernel_vbatchediiPiS_PP18magmaDoubleComplexiiS_S_ii
libmagma.so.2.8:_Z39__device_stub__cgeqr2_sm_kernel_batchediiPP17magmaFloatComplexiiiS1_i
libmagma.so.2.8:_Z39__device_stub__ctrtri_diag_lower_kernel12magma_diag_tiPK17magmaFloatComplexiPS0_
libmagma.so.2.8:_Z39__device_stub__ctrtri_diag_upper_kernel12magma_diag_tiPK17magmaFloatComplexiPS0_
libmagma.so.2.8:_Z39__device_stub__dgeqr2_sm_kernel_batchediiPPdiiiS0_i
libmagma.so.2.8:_Z39__device_stub__dtrtri_diag_lower_kernel12magma_diag_tiPKdiPd
libmagma.so.2.8:_Z39__device_stub__dtrtri_diag_upper_kernel12magma_diag_tiPKdiPd
libmagma.so.2.8:_Z39__device_stub__extract_diag_sqrt_kerneliP17magmaFloatComplexiPfi
libmagma.so.2.8:_Z39__device_stub__extract_diag_sqrt_kerneliP18magmaDoubleComplexiPdi
libmagma.so.2.8:_Z39__device_stub__extract_diag_sqrt_kerneliPdiS_i
libmagma.so.2.8:_Z39__device_stub__extract_diag_sqrt_kerneliPfiS_i
libmagma.so.2.8:_Z39__device_stub__magma_clarfgx_gpu_kerneliP17magmaFloatComplexS0_S0_PfS0_i
libmagma.so.2.8:_Z39__device_stub__magma_dlarfgx_gpu_kerneliPdS_S_S_S_i
libmagma.so.2.8:_Z39__device_stub__magma_imax_size_kernel_1Pii
libmagma.so.2.8:_Z39__device_stub__magma_imax_size_kernel_2PiS_i
libmagma.so.2.8:_Z39__device_stub__magma_imax_size_kernel_3PiS_S_i
libmagma.so.2.8:_Z39__device_stub__magma_isum_reduce_kerneliPiS_i
libmagma.so.2.8:_Z39__device_stub__magma_ivec_min_vv_kerneliPiS_S_
libmagma.so.2.8:_Z39__device_stub__magma_slarfgx_gpu_kerneliPfS_S_S_S_i
libmagma.so.2.8:_Z39__device_stub__magma_zlarfgx_gpu_kerneliP18magmaDoubleComplexS0_S0_PdS0_i
libmagma.so.2.8:_Z39__device_stub__magmablas_csscal_inverseP17magmaFloatComplexS0_i
libmagma.so.2.8:_Z39__device_stub__magmablas_dnrm2_smkerneliiPdiS_
libmagma.so.2.8:_Z39__device_stub__magmablas_snrm2_smkerneliiPfiS_
libmagma.so.2.8:_Z39__device_stub__magmablas_zdscal_inverseP18magmaDoubleComplexS0_i
libmagma.so.2.8:_Z39__device_stub__sgeqr2_sm_kernel_batchediiPPfiiiS0_i
libmagma.so.2.8:_Z39__device_stub__strtri_diag_lower_kernel12magma_diag_tiPKfiPf
libmagma.so.2.8:_Z39__device_stub__strtri_diag_upper_kernel12magma_diag_tiPKfiPf
libmagma.so.2.8:_Z39__device_stub__zgeqr2_sm_kernel_batchediiPP18magmaDoubleComplexiiiS1_i
libmagma.so.2.8:_Z39__device_stub__ztrtri_diag_lower_kernel12magma_diag_tiPK18magmaDoubleComplexiPS0_
libmagma.so.2.8:_Z39__device_stub__ztrtri_diag_upper_kernel12magma_diag_tiPK18magmaDoubleComplexiPS0_
libmagma.so.2.8:_Z39claswp_left_rowparallel_kernel_vbatchediiPiS_PP17magmaFloatComplexiiS_PS_iii
libmagma.so.2.8:_Z39dlaswp_left_rowparallel_kernel_vbatchediiPiS_PPdiiS_PS_iii
libmagma.so.2.8:_Z39slaswp_left_rowparallel_kernel_vbatchediiPiS_PPfiiS_PS_iii
libmagma.so.2.8:_Z39triple_cgemm_above64_part1_lower_kerneliPK17magmaFloatComplexiPS_ii
libmagma.so.2.8:_Z39triple_cgemm_above64_part1_upper_kerneliPK17magmaFloatComplexiPS_ii
libmagma.so.2.8:_Z39triple_cgemm_above64_part2_lower_kerneliPK17magmaFloatComplexiPS_ii
libmagma.so.2.8:_Z39triple_cgemm_above64_part2_upper_kerneliPK17magmaFloatComplexiPS_ii
libmagma.so.2.8:_Z39triple_cgemm_above64_part3_lower_kerneliPK17magmaFloatComplexiPS_ii
libmagma.so.2.8:_Z39triple_cgemm_above64_part3_upper_kerneliPK17magmaFloatComplexiPS_ii
libmagma.so.2.8:_Z39triple_dgemm_above64_part1_lower_kerneliPKdiPdii
libmagma.so.2.8:_Z39triple_dgemm_above64_part1_upper_kerneliPKdiPdii
libmagma.so.2.8:_Z39triple_dgemm_above64_part2_lower_kerneliPKdiPdii
libmagma.so.2.8:_Z39triple_dgemm_above64_part2_upper_kerneliPKdiPdii
libmagma.so.2.8:_Z39triple_dgemm_above64_part3_lower_kerneliPKdiPdii
libmagma.so.2.8:_Z39triple_dgemm_above64_part3_upper_kerneliPKdiPdii
libmagma.so.2.8:_Z39triple_sgemm_above64_part1_lower_kerneliPKfiPfii
libmagma.so.2.8:_Z39triple_sgemm_above64_part1_upper_kerneliPKfiPfii
libmagma.so.2.8:_Z39triple_sgemm_above64_part2_lower_kerneliPKfiPfii
libmagma.so.2.8:_Z39triple_sgemm_above64_part2_upper_kerneliPKfiPfii
libmagma.so.2.8:_Z39triple_sgemm_above64_part3_lower_kerneliPKfiPfii
libmagma.so.2.8:_Z39triple_sgemm_above64_part3_upper_kerneliPKfiPfii
libmagma.so.2.8:_Z39triple_zgemm_above64_part1_lower_kerneliPK18magmaDoubleComplexiPS_ii
libmagma.so.2.8:_Z39triple_zgemm_above64_part1_upper_kerneliPK18magmaDoubleComplexiPS_ii
libmagma.so.2.8:_Z39triple_zgemm_above64_part2_lower_kerneliPK18magmaDoubleComplexiPS_ii
libmagma.so.2.8:_Z39triple_zgemm_above64_part2_upper_kerneliPK18magmaDoubleComplexiPS_ii
libmagma.so.2.8:_Z39triple_zgemm_above64_part3_lower_kerneliPK18magmaDoubleComplexiPS_ii
libmagma.so.2.8:_Z39triple_zgemm_above64_part3_upper_kerneliPK18magmaDoubleComplexiPS_ii
libmagma.so.2.8:_Z39zlaswp_left_rowparallel_kernel_vbatchediiPiS_PP18magmaDoubleComplexiiS_PS_iii
libmagma.so.2.8:_Z40__device_stub__cgetf2_native_init_kerneliiPiS_
libmagma.so.2.8:_Z40__device_stub__cgetf2trsm_kernel_batchediiPP17magmaFloatComplexii
libmagma.so.2.8:_Z40__device_stub__clacpy_sym_in_full_kerneliiPK17magmaFloatComplexiPS_i
libmagma.so.2.8:_Z40__device_stub__claswp_rowparallel_kerneliiiP17magmaFloatComplexiS0_iPi
libmagma.so.2.8:_Z40__device_stub__ctranspose_kernel_batchediiPP17magmaFloatComplexiS1_i
libmagma.so.2.8:_Z40__device_stub__dgetf2_native_init_kerneliiPiS_
libmagma.so.2.8:_Z40__device_stub__dgetf2trsm_kernel_batchediiPPdii
libmagma.so.2.8:_Z40__device_stub__dlacpy_sym_in_full_kerneliiPKdiPdi
libmagma.so.2.8:_Z40__device_stub__dlaswp_rowparallel_kerneliiiPdiS_iPi
libmagma.so.2.8:_Z40__device_stub__dtranspose_kernel_batchediiPPdiS0_i
libmagma.so.2.8:_Z40__device_stub__idisplace_pointers_kernelPPiS0_iii
libmagma.so.2.8:_Z40__device_stub__magma_ivec_ceildiv_kerneliPiiS_
libmagma.so.2.8:_Z40__device_stub__magma_ivec_roundup_kerneliPiiS_
libmagma.so.2.8:_Z40__device_stub__magmablas_dznrm2_smkerneliiP18magmaDoubleComplexiPd
libmagma.so.2.8:_Z40__device_stub__magmablas_scnrm2_smkerneliiP17magmaFloatComplexiPf
libmagma.so.2.8:_Z40__device_stub__sgetf2_native_init_kerneliiPiS_
libmagma.so.2.8:_Z40__device_stub__sgetf2trsm_kernel_batchediiPPfii
libmagma.so.2.8:_Z40__device_stub__slacpy_sym_in_full_kerneliiPKfiPfi
libmagma.so.2.8:_Z40__device_stub__slaswp_rowparallel_kerneliiiPfiS_iPi
libmagma.so.2.8:_Z40__device_stub__stranspose_kernel_batchediiPPfiS0_i
libmagma.so.2.8:_Z40__device_stub__zdisplace_pointers_kernelPP17magmaFloatComplexS1_iii
libmagma.so.2.8:_Z40__device_stub__zdisplace_pointers_kernelPP18magmaDoubleComplexS1_iii
libmagma.so.2.8:_Z40__device_stub__zdisplace_pointers_kernelPPdS0_iii
libmagma.so.2.8:_Z40__device_stub__zdisplace_pointers_kernelPPfS0_iii
libmagma.so.2.8:_Z40__device_stub__zgetf2_native_init_kerneliiPiS_
libmagma.so.2.8:_Z40__device_stub__zgetf2trsm_kernel_batchediiPP18magmaDoubleComplexii
libmagma.so.2.8:_Z40__device_stub__zlacpy_sym_in_full_kerneliiPK18magmaDoubleComplexiPS_i
libmagma.so.2.8:_Z40__device_stub__zlaswp_rowparallel_kerneliiiP18magmaDoubleComplexiS0_iPi
libmagma.so.2.8:_Z40__device_stub__ztranspose_kernel_batchediiPP18magmaDoubleComplexiS1_i
libmagma.so.2.8:_Z40claswp_right_rowparallel_kernel_vbatchediiPiS_PP17magmaFloatComplexiiS_PS_iii
libmagma.so.2.8:_Z40dlaswp_right_rowparallel_kernel_vbatchediiPiS_PPdiiS_PS_iii
libmagma.so.2.8:_Z40magmablas_capply_transpose_vector_kerneliP17magmaFloatComplexiS0_i
libmagma.so.2.8:_Z40magmablas_dapply_transpose_vector_kerneliPdiS_i
libmagma.so.2.8:_Z40magmablas_sapply_transpose_vector_kerneliPfiS_i
libmagma.so.2.8:_Z40magmablas_zapply_transpose_vector_kerneliP18magmaDoubleComplexiS0_i
libmagma.so.2.8:_Z40slaswp_right_rowparallel_kernel_vbatchediiPiS_PPfiiS_PS_iii
libmagma.so.2.8:_Z40zlaswp_right_rowparallel_kernel_vbatchediiPiS_PP18magmaDoubleComplexiiS_PS_iii
libmagma.so.2.8:_Z41__device_stub__adjust_ipiv_kernel_batchedPPiiii
libmagma.so.2.8:_Z41__device_stub__cgbtf2_swap_kernel_batchedPP17magmaFloatComplexiiiPPiiS2_i
libmagma.so.2.8:_Z41__device_stub__cgbtrs_swap_kernel_batchediPP17magmaFloatComplexiPPii
libmagma.so.2.8:_Z41__device_stub__clacpy_full_kernel_batchediiPKPK17magmaFloatComplexiiiPPS_iii
libmagma.so.2.8:_Z41__device_stub__clacpy_sym_in_lower_kerneliiPiS_PK17magmaFloatComplexiPS0_i
libmagma.so.2.8:_Z41__device_stub__clacpy_sym_in_upper_kerneliiPK17magmaFloatComplexiPS_i
libmagma.so.2.8:_Z41__device_stub__clacpy_sym_out_full_kerneliiPK17magmaFloatComplexiPS_i
libmagma.so.2.8:_Z41__device_stub__claset_full_kernel_batchedii17magmaFloatComplexS_PPS_iii
libmagma.so.2.8:_Z41__device_stub__claswp_columnserial_kerneliP17magmaFloatComplexiiiPi
libmagma.so.2.8:_Z41__device_stub__dgbtf2_swap_kernel_batchedPPdiiiPPiiS1_i
libmagma.so.2.8:_Z41__device_stub__dgbtrs_swap_kernel_batchediPPdiPPii
libmagma.so.2.8:_Z41__device_stub__dlacpy_full_kernel_batchediiPKPKdiiiPPdiii
libmagma.so.2.8:_Z41__device_stub__dlacpy_sym_in_lower_kerneliiPiS_PKdiPdi
libmagma.so.2.8:_Z41__device_stub__dlacpy_sym_in_upper_kerneliiPKdiPdi
libmagma.so.2.8:_Z41__device_stub__dlacpy_sym_out_full_kerneliiPKdiPdi
libmagma.so.2.8:_Z41__device_stub__dlaset_full_kernel_batchediiddPPdiii
libmagma.so.2.8:_Z41__device_stub__dlaswp_columnserial_kerneliPdiiiPi
libmagma.so.2.8:_Z41__device_stub__sgbtf2_swap_kernel_batchedPPfiiiPPiiS1_i
libmagma.so.2.8:_Z41__device_stub__sgbtrs_swap_kernel_batchediPPfiPPii
libmagma.so.2.8:_Z41__device_stub__slacpy_full_kernel_batchediiPKPKfiiiPPfiii
libmagma.so.2.8:_Z41__device_stub__slacpy_sym_in_lower_kerneliiPiS_PKfiPfi
libmagma.so.2.8:_Z41__device_stub__slacpy_sym_in_upper_kerneliiPKfiPfi
libmagma.so.2.8:_Z41__device_stub__slacpy_sym_out_full_kerneliiPKfiPfi
libmagma.so.2.8:_Z41__device_stub__slaset_full_kernel_batchediiffPPfiii
libmagma.so.2.8:_Z41__device_stub__slaswp_columnserial_kerneliPfiiiPi
libmagma.so.2.8:_Z41__device_stub__zgbtf2_swap_kernel_batchedPP18magmaDoubleComplexiiiPPiiS2_i
libmagma.so.2.8:_Z41__device_stub__zgbtrs_swap_kernel_batchediPP18magmaDoubleComplexiPPii
libmagma.so.2.8:_Z41__device_stub__zlacpy_full_kernel_batchediiPKPK18magmaDoubleComplexiiiPPS_iii
libmagma.so.2.8:_Z41__device_stub__zlacpy_sym_in_lower_kerneliiPiS_PK18magmaDoubleComplexiPS0_i
libmagma.so.2.8:_Z41__device_stub__zlacpy_sym_in_upper_kerneliiPK18magmaDoubleComplexiPS_i
libmagma.so.2.8:_Z41__device_stub__zlacpy_sym_out_full_kerneliiPK18magmaDoubleComplexiPS_i
libmagma.so.2.8:_Z41__device_stub__zlaset_full_kernel_batchedii18magmaDoubleComplexS_PPS_iii
libmagma.so.2.8:_Z41__device_stub__zlaswp_columnserial_kerneliP18magmaDoubleComplexiiiPi
libmagma.so.2.8:_Z41triple_cgemm16_part1_lower_kernel_batchediPKPK17magmaFloatComplexiPPS_ii
libmagma.so.2.8:_Z41triple_cgemm16_part1_upper_kernel_batchediPKPK17magmaFloatComplexiPPS_ii
libmagma.so.2.8:_Z41triple_cgemm16_part2_lower_kernel_batchediPKPK17magmaFloatComplexiPPS_ii
libmagma.so.2.8:_Z41triple_cgemm16_part2_upper_kernel_batchediPKPK17magmaFloatComplexiPPS_ii
libmagma.so.2.8:_Z41triple_cgemm32_part1_lower_kernel_batchediPKPK17magmaFloatComplexiPPS_ii
libmagma.so.2.8:_Z41triple_cgemm32_part1_upper_kernel_batchediPKPK17magmaFloatComplexiPPS_ii
libmagma.so.2.8:_Z41triple_cgemm32_part2_lower_kernel_batchediPKPK17magmaFloatComplexiPPS_ii
libmagma.so.2.8:_Z41triple_cgemm32_part2_upper_kernel_batchediPKPK17magmaFloatComplexiPPS_ii
libmagma.so.2.8:_Z41triple_cgemm64_part1_lower_kernel_batchediPKPK17magmaFloatComplexiPPS_ii
libmagma.so.2.8:_Z41triple_cgemm64_part1_upper_kernel_batchediPKPK17magmaFloatComplexiPPS_ii
libmagma.so.2.8:_Z41triple_cgemm64_part2_lower_kernel_batchediPKPK17magmaFloatComplexiPPS_ii
libmagma.so.2.8:_Z41triple_cgemm64_part2_upper_kernel_batchediPKPK17magmaFloatComplexiPPS_ii
libmagma.so.2.8:_Z41triple_dgemm16_part1_lower_kernel_batchediPKPKdiPPdii
libmagma.so.2.8:_Z41triple_dgemm16_part1_upper_kernel_batchediPKPKdiPPdii
libmagma.so.2.8:_Z41triple_dgemm16_part2_lower_kernel_batchediPKPKdiPPdii
libmagma.so.2.8:_Z41triple_dgemm16_part2_upper_kernel_batchediPKPKdiPPdii
libmagma.so.2.8:_Z41triple_dgemm32_part1_lower_kernel_batchediPKPKdiPPdii
libmagma.so.2.8:_Z41triple_dgemm32_part1_upper_kernel_batchediPKPKdiPPdii
libmagma.so.2.8:_Z41triple_dgemm32_part2_lower_kernel_batchediPKPKdiPPdii
libmagma.so.2.8:_Z41triple_dgemm32_part2_upper_kernel_batchediPKPKdiPPdii
libmagma.so.2.8:_Z41triple_dgemm64_part1_lower_kernel_batchediPKPKdiPPdii
libmagma.so.2.8:_Z41triple_dgemm64_part1_upper_kernel_batchediPKPKdiPPdii
libmagma.so.2.8:_Z41triple_dgemm64_part2_lower_kernel_batchediPKPKdiPPdii
libmagma.so.2.8:_Z41triple_dgemm64_part2_upper_kernel_batchediPKPKdiPPdii
libmagma.so.2.8:_Z41triple_sgemm16_part1_lower_kernel_batchediPKPKfiPPfii
libmagma.so.2.8:_Z41triple_sgemm16_part1_upper_kernel_batchediPKPKfiPPfii
libmagma.so.2.8:_Z41triple_sgemm16_part2_lower_kernel_batchediPKPKfiPPfii
libmagma.so.2.8:_Z41triple_sgemm16_part2_upper_kernel_batchediPKPKfiPPfii
libmagma.so.2.8:_Z41triple_sgemm32_part1_lower_kernel_batchediPKPKfiPPfii
libmagma.so.2.8:_Z41triple_sgemm32_part1_upper_kernel_batchediPKPKfiPPfii
libmagma.so.2.8:_Z41triple_sgemm32_part2_lower_kernel_batchediPKPKfiPPfii
libmagma.so.2.8:_Z41triple_sgemm32_part2_upper_kernel_batchediPKPKfiPPfii
libmagma.so.2.8:_Z41triple_sgemm64_part1_lower_kernel_batchediPKPKfiPPfii
libmagma.so.2.8:_Z41triple_sgemm64_part1_upper_kernel_batchediPKPKfiPPfii
libmagma.so.2.8:_Z41triple_sgemm64_part2_lower_kernel_batchediPKPKfiPPfii
libmagma.so.2.8:_Z41triple_sgemm64_part2_upper_kernel_batchediPKPKfiPPfii
libmagma.so.2.8:_Z41triple_zgemm16_part1_lower_kernel_batchediPKPK18magmaDoubleComplexiPPS_ii
libmagma.so.2.8:_Z41triple_zgemm16_part1_upper_kernel_batchediPKPK18magmaDoubleComplexiPPS_ii
libmagma.so.2.8:_Z41triple_zgemm16_part2_lower_kernel_batchediPKPK18magmaDoubleComplexiPPS_ii
libmagma.so.2.8:_Z41triple_zgemm16_part2_upper_kernel_batchediPKPK18magmaDoubleComplexiPPS_ii
libmagma.so.2.8:_Z41triple_zgemm32_part1_lower_kernel_batchediPKPK18magmaDoubleComplexiPPS_ii
libmagma.so.2.8:_Z41triple_zgemm32_part1_upper_kernel_batchediPKPK18magmaDoubleComplexiPPS_ii
libmagma.so.2.8:_Z41triple_zgemm32_part2_lower_kernel_batchediPKPK18magmaDoubleComplexiPPS_ii
libmagma.so.2.8:_Z41triple_zgemm32_part2_upper_kernel_batchediPKPK18magmaDoubleComplexiPPS_ii
libmagma.so.2.8:_Z41triple_zgemm64_part1_lower_kernel_batchediPKPK18magmaDoubleComplexiPPS_ii
libmagma.so.2.8:_Z41triple_zgemm64_part1_upper_kernel_batchediPKPK18magmaDoubleComplexiPPS_ii
libmagma.so.2.8:_Z41triple_zgemm64_part2_lower_kernel_batchediPKPK18magmaDoubleComplexiPPS_ii
libmagma.so.2.8:_Z41triple_zgemm64_part2_upper_kernel_batchediPKPK18magmaDoubleComplexiPPS_ii
libmagma.so.2.8:_Z42__device_stub__adjust_ipiv_kernel_vbatchedPPiiS_ii
libmagma.so.2.8:_Z42__device_stub__clacpy_full_kernel_vbatchedPiS_PKPK17magmaFloatComplexS_PPS0_S_
libmagma.so.2.8:_Z42__device_stub__clacpy_lower_kernel_batchediiPKPK17magmaFloatComplexiiiPPS_iii
libmagma.so.2.8:_Z42__device_stub__clacpy_sym_out_lower_kerneliiPiS_PK17magmaFloatComplexiPS0_i
libmagma.so.2.8:_Z42__device_stub__clacpy_sym_out_upper_kerneliiPK17magmaFloatComplexiPS_i
libmagma.so.2.8:_Z42__device_stub__clacpy_upper_kernel_batchediiPKPK17magmaFloatComplexiiiPPS_iii
libmagma.so.2.8:_Z42__device_stub__clarft_ctrmv_sm32x32_kerneliiP17magmaFloatComplexS0_iS0_i
libmagma.so.2.8:_Z42__device_stub__claset_full_kernel_vbatchedPiS_17magmaFloatComplexS0_PPS0_S_
libmagma.so.2.8:_Z42__device_stub__claset_lower_kernel_batchedii17magmaFloatComplexS_PPS_iii
libmagma.so.2.8:_Z42__device_stub__claset_upper_kernel_batchedii17magmaFloatComplexS_PPS_iii
libmagma.so.2.8:_Z42__device_stub__ctranspose_conj_inplace_oddiP17magmaFloatComplexi
libmagma.so.2.8:_Z42__device_stub__dlacpy_full_kernel_vbatchedPiS_PKPKdS_PPdS_
libmagma.so.2.8:_Z42__device_stub__dlacpy_lower_kernel_batchediiPKPKdiiiPPdiii
libmagma.so.2.8:_Z42__device_stub__dlacpy_sym_out_lower_kerneliiPiS_PKdiPdi
libmagma.so.2.8:_Z42__device_stub__dlacpy_sym_out_upper_kerneliiPKdiPdi
libmagma.so.2.8:_Z42__device_stub__dlacpy_upper_kernel_batchediiPKPKdiiiPPdiii
libmagma.so.2.8:_Z42__device_stub__dlarft_dtrmv_sm32x32_kerneliiPdS_iS_i
libmagma.so.2.8:_Z42__device_stub__dlaset_full_kernel_vbatchedPiS_ddPPdS_
libmagma.so.2.8:_Z42__device_stub__dlaset_lower_kernel_batchediiddPPdiii
libmagma.so.2.8:_Z42__device_stub__dlaset_upper_kernel_batchediiddPPdiii
libmagma.so.2.8:_Z42__device_stub__slacpy_full_kernel_vbatchedPiS_PKPKfS_PPfS_
libmagma.so.2.8:_Z42__device_stub__slacpy_lower_kernel_batchediiPKPKfiiiPPfiii
libmagma.so.2.8:_Z42__device_stub__slacpy_sym_out_lower_kerneliiPiS_PKfiPfi
libmagma.so.2.8:_Z42__device_stub__slacpy_sym_out_upper_kerneliiPKfiPfi
libmagma.so.2.8:_Z42__device_stub__slacpy_upper_kernel_batchediiPKPKfiiiPPfiii
libmagma.so.2.8:_Z42__device_stub__slarft_strmv_sm32x32_kerneliiPfS_iS_i
libmagma.so.2.8:_Z42__device_stub__slaset_full_kernel_vbatchedPiS_ffPPfS_
libmagma.so.2.8:_Z42__device_stub__slaset_lower_kernel_batchediiffPPfiii
libmagma.so.2.8:_Z42__device_stub__slaset_upper_kernel_batchediiffPPfiii
libmagma.so.2.8:_Z42__device_stub__zlacpy_full_kernel_vbatchedPiS_PKPK18magmaDoubleComplexS_PPS0_S_
libmagma.so.2.8:_Z42__device_stub__zlacpy_lower_kernel_batchediiPKPK18magmaDoubleComplexiiiPPS_iii
libmagma.so.2.8:_Z42__device_stub__zlacpy_sym_out_lower_kerneliiPiS_PK18magmaDoubleComplexiPS0_i
libmagma.so.2.8:_Z42__device_stub__zlacpy_sym_out_upper_kerneliiPK18magmaDoubleComplexiPS_i
libmagma.so.2.8:_Z42__device_stub__zlacpy_upper_kernel_batchediiPKPK18magmaDoubleComplexiiiPPS_iii
libmagma.so.2.8:_Z42__device_stub__zlarft_ztrmv_sm32x32_kerneliiP18magmaDoubleComplexS0_iS0_i
libmagma.so.2.8:_Z42__device_stub__zlaset_full_kernel_vbatchedPiS_18magmaDoubleComplexS0_PPS0_S_
libmagma.so.2.8:_Z42__device_stub__zlaset_lower_kernel_batchedii18magmaDoubleComplexS_PPS_iii
libmagma.so.2.8:_Z42__device_stub__zlaset_upper_kernel_batchedii18magmaDoubleComplexS_PPS_iii
libmagma.so.2.8:_Z42__device_stub__ztranspose_conj_inplace_oddiP18magmaDoubleComplexi
libmagma.so.2.8:_Z42triple_cgemm16_part1_lower_kernel_vbatchedPiPKPK17magmaFloatComplexS_PPS0_ii
libmagma.so.2.8:_Z42triple_cgemm16_part1_upper_kernel_vbatchedPiPKPK17magmaFloatComplexS_PPS0_ii
libmagma.so.2.8:_Z42triple_cgemm16_part2_lower_kernel_vbatchedPiPKPK17magmaFloatComplexS_PPS0_ii
libmagma.so.2.8:_Z42triple_cgemm16_part2_upper_kernel_vbatchedPiPKPK17magmaFloatComplexS_PPS0_ii
libmagma.so.2.8:_Z42triple_cgemm32_part1_lower_kernel_vbatchedPiPKPK17magmaFloatComplexS_PPS0_ii
libmagma.so.2.8:_Z42triple_cgemm32_part1_upper_kernel_vbatchedPiPKPK17magmaFloatComplexS_PPS0_ii
libmagma.so.2.8:_Z42triple_cgemm32_part2_lower_kernel_vbatchedPiPKPK17magmaFloatComplexS_PPS0_ii
libmagma.so.2.8:_Z42triple_cgemm32_part2_upper_kernel_vbatchedPiPKPK17magmaFloatComplexS_PPS0_ii
libmagma.so.2.8:_Z42triple_cgemm64_part1_lower_kernel_vbatchedPiPKPK17magmaFloatComplexS_PPS0_ii
libmagma.so.2.8:_Z42triple_cgemm64_part1_upper_kernel_vbatchedPiPKPK17magmaFloatComplexS_PPS0_ii
libmagma.so.2.8:_Z42triple_cgemm64_part2_lower_kernel_vbatchedPiPKPK17magmaFloatComplexS_PPS0_ii
libmagma.so.2.8:_Z42triple_cgemm64_part2_upper_kernel_vbatchedPiPKPK17magmaFloatComplexS_PPS0_ii
libmagma.so.2.8:_Z42triple_dgemm16_part1_lower_kernel_vbatchedPiPKPKdS_PPdii
libmagma.so.2.8:_Z42triple_dgemm16_part1_upper_kernel_vbatchedPiPKPKdS_PPdii
libmagma.so.2.8:_Z42triple_dgemm16_part2_lower_kernel_vbatchedPiPKPKdS_PPdii
libmagma.so.2.8:_Z42triple_dgemm16_part2_upper_kernel_vbatchedPiPKPKdS_PPdii
libmagma.so.2.8:_Z42triple_dgemm32_part1_lower_kernel_vbatchedPiPKPKdS_PPdii
libmagma.so.2.8:_Z42triple_dgemm32_part1_upper_kernel_vbatchedPiPKPKdS_PPdii
libmagma.so.2.8:_Z42triple_dgemm32_part2_lower_kernel_vbatchedPiPKPKdS_PPdii
libmagma.so.2.8:_Z42triple_dgemm32_part2_upper_kernel_vbatchedPiPKPKdS_PPdii
libmagma.so.2.8:_Z42triple_dgemm64_part1_lower_kernel_vbatchedPiPKPKdS_PPdii
libmagma.so.2.8:_Z42triple_dgemm64_part1_upper_kernel_vbatchedPiPKPKdS_PPdii
libmagma.so.2.8:_Z42triple_dgemm64_part2_lower_kernel_vbatchedPiPKPKdS_PPdii
libmagma.so.2.8:_Z42triple_dgemm64_part2_upper_kernel_vbatchedPiPKPKdS_PPdii
libmagma.so.2.8:_Z42triple_sgemm16_part1_lower_kernel_vbatchedPiPKPKfS_PPfii
libmagma.so.2.8:_Z42triple_sgemm16_part1_upper_kernel_vbatchedPiPKPKfS_PPfii
libmagma.so.2.8:_Z42triple_sgemm16_part2_lower_kernel_vbatchedPiPKPKfS_PPfii
libmagma.so.2.8:_Z42triple_sgemm16_part2_upper_kernel_vbatchedPiPKPKfS_PPfii
libmagma.so.2.8:_Z42triple_sgemm32_part1_lower_kernel_vbatchedPiPKPKfS_PPfii
libmagma.so.2.8:_Z42triple_sgemm32_part1_upper_kernel_vbatchedPiPKPKfS_PPfii
libmagma.so.2.8:_Z42triple_sgemm32_part2_lower_kernel_vbatchedPiPKPKfS_PPfii
libmagma.so.2.8:_Z42triple_sgemm32_part2_upper_kernel_vbatchedPiPKPKfS_PPfii
libmagma.so.2.8:_Z42triple_sgemm64_part1_lower_kernel_vbatchedPiPKPKfS_PPfii
libmagma.so.2.8:_Z42triple_sgemm64_part1_upper_kernel_vbatchedPiPKPKfS_PPfii
libmagma.so.2.8:_Z42triple_sgemm64_part2_lower_kernel_vbatchedPiPKPKfS_PPfii
libmagma.so.2.8:_Z42triple_sgemm64_part2_upper_kernel_vbatchedPiPKPKfS_PPfii
libmagma.so.2.8:_Z42triple_zgemm16_part1_lower_kernel_vbatchedPiPKPK18magmaDoubleComplexS_PPS0_ii
libmagma.so.2.8:_Z42triple_zgemm16_part1_upper_kernel_vbatchedPiPKPK18magmaDoubleComplexS_PPS0_ii
libmagma.so.2.8:_Z42triple_zgemm16_part2_lower_kernel_vbatchedPiPKPK18magmaDoubleComplexS_PPS0_ii
libmagma.so.2.8:_Z42triple_zgemm16_part2_upper_kernel_vbatchedPiPKPK18magmaDoubleComplexS_PPS0_ii
libmagma.so.2.8:_Z42triple_zgemm32_part1_lower_kernel_vbatchedPiPKPK18magmaDoubleComplexS_PPS0_ii
libmagma.so.2.8:_Z42triple_zgemm32_part1_upper_kernel_vbatchedPiPKPK18magmaDoubleComplexS_PPS0_ii
libmagma.so.2.8:_Z42triple_zgemm32_part2_lower_kernel_vbatchedPiPKPK18magmaDoubleComplexS_PPS0_ii
libmagma.so.2.8:_Z42triple_zgemm32_part2_upper_kernel_vbatchedPiPKPK18magmaDoubleComplexS_PPS0_ii
libmagma.so.2.8:_Z42triple_zgemm64_part1_lower_kernel_vbatchedPiPKPK18magmaDoubleComplexS_PPS0_ii
libmagma.so.2.8:_Z42triple_zgemm64_part1_upper_kernel_vbatchedPiPKPK18magmaDoubleComplexS_PPS0_ii
libmagma.so.2.8:_Z42triple_zgemm64_part2_lower_kernel_vbatchedPiPKPK18magmaDoubleComplexS_PPS0_ii
libmagma.so.2.8:_Z42triple_zgemm64_part2_upper_kernel_vbatchedPiPKPK18magmaDoubleComplexS_PPS0_ii
libmagma.so.2.8:_Z43__device_stub__clacpy_lower_kernel_vbatchedPiS_PKPK17magmaFloatComplexS_PPS0_S_
libmagma.so.2.8:_Z43__device_stub__clacpy_upper_kernel_vbatchedPiS_PKPK17magmaFloatComplexS_PPS0_S_
libmagma.so.2.8:_Z43__device_stub__claset_lower_kernel_vbatchedPiS_17magmaFloatComplexS0_PPS0_S_
libmagma.so.2.8:_Z43__device_stub__claset_upper_kernel_vbatchedPiS_17magmaFloatComplexS0_PPS0_S_
libmagma.so.2.8:_Z43__device_stub__ctranspose_conj_inplace_eveniP17magmaFloatComplexi
libmagma.so.2.8:_Z43__device_stub__dlacpy_lower_kernel_vbatchedPiS_PKPKdS_PPdS_
libmagma.so.2.8:_Z43__device_stub__dlacpy_upper_kernel_vbatchedPiS_PKPKdS_PPdS_
libmagma.so.2.8:_Z43__device_stub__dlaset_lower_kernel_vbatchedPiS_ddPPdS_
libmagma.so.2.8:_Z43__device_stub__dlaset_upper_kernel_vbatchedPiS_ddPPdS_
libmagma.so.2.8:_Z43__device_stub__magma_compute_trsm_jb_kerneliPiiS_
libmagma.so.2.8:_Z43__device_stub__magmablas_dnrm2_check_kerneliPdiS_S_
libmagma.so.2.8:_Z43__device_stub__magmablas_snrm2_check_kerneliPfiS_S_
libmagma.so.2.8:_Z43__device_stub__setup_pivinfo_kernel_batchedPPiS0_iii
libmagma.so.2.8:_Z43__device_stub__slacpy_lower_kernel_vbatchedPiS_PKPKfS_PPfS_
libmagma.so.2.8:_Z43__device_stub__slacpy_upper_kernel_vbatchedPiS_PKPKfS_PPfS_
libmagma.so.2.8:_Z43__device_stub__slaset_lower_kernel_vbatchedPiS_ffPPfS_
libmagma.so.2.8:_Z43__device_stub__slaset_upper_kernel_vbatchedPiS_ffPPfS_
libmagma.so.2.8:_Z43__device_stub__zlacpy_lower_kernel_vbatchedPiS_PKPK18magmaDoubleComplexS_PPS0_S_
libmagma.so.2.8:_Z43__device_stub__zlacpy_upper_kernel_vbatchedPiS_PKPK18magmaDoubleComplexS_PPS0_S_
libmagma.so.2.8:_Z43__device_stub__zlaset_lower_kernel_vbatchedPiS_18magmaDoubleComplexS0_PPS0_S_
libmagma.so.2.8:_Z43__device_stub__zlaset_upper_kernel_vbatchedPiS_18magmaDoubleComplexS0_PPS0_S_
libmagma.so.2.8:_Z43__device_stub__ztranspose_conj_inplace_eveniP18magmaDoubleComplexi
libmagma.so.2.8:_Z43magmablas_celementary_multiplication_kerneliP17magmaFloatComplexiiS0_iS0_i
libmagma.so.2.8:_Z43magmablas_delementary_multiplication_kerneliPdiiS_iS_i
libmagma.so.2.8:_Z43magmablas_selementary_multiplication_kerneliPfiiS_iS_i
libmagma.so.2.8:_Z43magmablas_zelementary_multiplication_kerneliP18magmaDoubleComplexiiS0_iS0_i
libmagma.so.2.8:_Z44__device_stub__cgesv_batched_small_sm_kerneliiPP17magmaFloatComplexiPPiS1_iS2_
libmagma.so.2.8:_Z44__device_stub__cpotf2_smlpin_anywidth_kerneliP17magmaFloatComplexiiiPi
libmagma.so.2.8:_Z44__device_stub__cpotf2_smlpin_fixwidth_kerneliP17magmaFloatComplexiiiPi
libmagma.so.2.8:_Z44__device_stub__dgesv_batched_small_sm_kerneliiPPdiPPiS0_iS1_
libmagma.so.2.8:_Z44__device_stub__dpotf2_smlpin_anywidth_kerneliPdiiiPi
libmagma.so.2.8:_Z44__device_stub__dpotf2_smlpin_fixwidth_kerneliPdiiiPi
libmagma.so.2.8:_Z44__device_stub__magmablas_dznrm2_check_kerneliP18magmaDoubleComplexiPdS1_
libmagma.so.2.8:_Z44__device_stub__magmablas_scnrm2_check_kerneliP17magmaFloatComplexiPfS1_
libmagma.so.2.8:_Z44__device_stub__setup_pivinfo_kernel_vbatchedPiS_PS_iS0_ii
libmagma.so.2.8:_Z44__device_stub__sgesv_batched_small_sm_kerneliiPPfiPPiS0_iS1_
libmagma.so.2.8:_Z44__device_stub__spotf2_smlpin_anywidth_kerneliPfiiiPi
libmagma.so.2.8:_Z44__device_stub__spotf2_smlpin_fixwidth_kerneliPfiiiPi
libmagma.so.2.8:_Z44__device_stub__zgesv_batched_small_sm_kerneliiPP18magmaDoubleComplexiPPiS1_iS2_
libmagma.so.2.8:_Z44__device_stub__zpotf2_smlpin_anywidth_kerneliP18magmaDoubleComplexiiiPi
libmagma.so.2.8:_Z44__device_stub__zpotf2_smlpin_fixwidth_kerneliP18magmaDoubleComplexiiiPi
libmagma.so.2.8:_Z45__device_stub__cgbtf2_scal_ger_kernel_batchediiiiPP17magmaFloatComplexiiiPiiS2_
libmagma.so.2.8:_Z45__device_stub__cgbtrf_batched_kernel_fused_smiiiiPP17magmaFloatComplexiPPiS2_i
libmagma.so.2.8:_Z45__device_stub__cgeqr2_fused_sm_kernel_batchediiPP17magmaFloatComplexiiiS1_iPii
libmagma.so.2.8:_Z45__device_stub__clarft_recctrmv_sm32x32_kerneliiP17magmaFloatComplexS0_iS0_i
libmagma.so.2.8:_Z45__device_stub__claswp_rowserial_kernel_nativeiP17magmaFloatComplexiiiPi
libmagma.so.2.8:_Z45__device_stub__cpotf2_smlpout_anywidth_kerneliiP17magmaFloatComplexiiiPi
libmagma.so.2.8:_Z45__device_stub__cpotf2_smlpout_fixwidth_kerneliP17magmaFloatComplexiiiPi
libmagma.so.2.8:_Z45__device_stub__cpotf2_smlpout_kernel_vbatchedPiPP17magmaFloatComplexS_iiS_
libmagma.so.2.8:_Z45__device_stub__ctranspose_conj_kernel_batchediiPP17magmaFloatComplexiS1_i
libmagma.so.2.8:_Z45__device_stub__dgbtf2_scal_ger_kernel_batchediiiiPPdiiiPiiS1_
libmagma.so.2.8:_Z45__device_stub__dgbtrf_batched_kernel_fused_smiiiiPPdiPPiS1_i
libmagma.so.2.8:_Z45__device_stub__dgeqr2_fused_sm_kernel_batchediiPPdiiiS0_iPii
libmagma.so.2.8:_Z45__device_stub__dlarft_recdtrmv_sm32x32_kerneliiPdS_iS_i
libmagma.so.2.8:_Z45__device_stub__dlaswp_rowserial_kernel_nativeiPdiiiPi
libmagma.so.2.8:_Z45__device_stub__dpotf2_smlpout_anywidth_kerneliiPdiiiPi
libmagma.so.2.8:_Z45__device_stub__dpotf2_smlpout_fixwidth_kerneliPdiiiPi
libmagma.so.2.8:_Z45__device_stub__dpotf2_smlpout_kernel_vbatchedPiPPdS_iiS_
libmagma.so.2.8:_Z45__device_stub__gbtrf_adjust_ju_kernel_batchediiPPiS_ii
libmagma.so.2.8:_Z45__device_stub__magmablas_capply_vector_kerneliP17magmaFloatComplexiS0_i
libmagma.so.2.8:_Z45__device_stub__magmablas_dapply_vector_kerneliPdiS_i
libmagma.so.2.8:_Z45__device_stub__magmablas_sapply_vector_kerneliPfiS_i
libmagma.so.2.8:_Z45__device_stub__magmablas_zapply_vector_kerneliP18magmaDoubleComplexiS0_i
libmagma.so.2.8:_Z45__device_stub__sgbtf2_scal_ger_kernel_batchediiiiPPfiiiPiiS1_
libmagma.so.2.8:_Z45__device_stub__sgbtrf_batched_kernel_fused_smiiiiPPfiPPiS1_i
libmagma.so.2.8:_Z45__device_stub__sgeqr2_fused_sm_kernel_batchediiPPfiiiS0_iPii
libmagma.so.2.8:_Z45__device_stub__slarft_recstrmv_sm32x32_kerneliiPfS_iS_i
libmagma.so.2.8:_Z45__device_stub__slaswp_rowserial_kernel_nativeiPfiiiPi
libmagma.so.2.8:_Z45__device_stub__spotf2_smlpout_anywidth_kerneliiPfiiiPi
libmagma.so.2.8:_Z45__device_stub__spotf2_smlpout_fixwidth_kerneliPfiiiPi
libmagma.so.2.8:_Z45__device_stub__spotf2_smlpout_kernel_vbatchedPiPPfS_iiS_
libmagma.so.2.8:_Z45__device_stub__zgbtf2_scal_ger_kernel_batchediiiiPP18magmaDoubleComplexiiiPiiS2_
libmagma.so.2.8:_Z45__device_stub__zgbtrf_batched_kernel_fused_smiiiiPP18magmaDoubleComplexiPPiS2_i
libmagma.so.2.8:_Z45__device_stub__zgeqr2_fused_sm_kernel_batchediiPP18magmaDoubleComplexiiiS1_iPii
libmagma.so.2.8:_Z45__device_stub__zlarft_recztrmv_sm32x32_kerneliiP18magmaDoubleComplexS0_iS0_i
libmagma.so.2.8:_Z45__device_stub__zlaswp_rowserial_kernel_nativeiP18magmaDoubleComplexiiiPi
libmagma.so.2.8:_Z45__device_stub__zpotf2_smlpout_anywidth_kerneliiP18magmaDoubleComplexiiiPi
libmagma.so.2.8:_Z45__device_stub__zpotf2_smlpout_fixwidth_kerneliP18magmaDoubleComplexiiiPi
libmagma.so.2.8:_Z45__device_stub__zpotf2_smlpout_kernel_vbatchedPiPP18magmaDoubleComplexS_iiS_
libmagma.so.2.8:_Z45__device_stub__ztranspose_conj_kernel_batchediiPP18magmaDoubleComplexiS1_i
libmagma.so.2.8:_Z46__device_stub__cgeqr2_column_sm_kernel_batchediiPP17magmaFloatComplexiiiS1_i
libmagma.so.2.8:_Z46__device_stub__cgetf2_fused_sm_kernel_vbatchediiiiPiS_PP17magmaFloatComplexiiS_PS_iS_ii
libmagma.so.2.8:_Z46__device_stub__claswp_rowserial_kernel_batchediPP17magmaFloatComplexiiiPPi
libmagma.so.2.8:_Z46__device_stub__dgeqr2_column_sm_kernel_batchediiPPdiiiS0_i
libmagma.so.2.8:_Z46__device_stub__dgetf2_fused_sm_kernel_vbatchediiiiPiS_PPdiiS_PS_iS_ii
libmagma.so.2.8:_Z46__device_stub__dlaswp_rowserial_kernel_batchediPPdiiiPPi
libmagma.so.2.8:_Z46__device_stub__sgeqr2_column_sm_kernel_batchediiPPfiiiS0_i
libmagma.so.2.8:_Z46__device_stub__sgetf2_fused_sm_kernel_vbatchediiiiPiS_PPfiiS_PS_iS_ii
libmagma.so.2.8:_Z46__device_stub__slaswp_rowserial_kernel_batchediPPfiiiPPi
libmagma.so.2.8:_Z46__device_stub__zgeqr2_column_sm_kernel_batchediiPP18magmaDoubleComplexiiiS1_i
libmagma.so.2.8:_Z46__device_stub__zgetf2_fused_sm_kernel_vbatchediiiiPiS_PP18magmaDoubleComplexiiS_PS_iS_ii
libmagma.so.2.8:_Z46__device_stub__zlaswp_rowserial_kernel_batchediPP18magmaDoubleComplexiiiPPi
libmagma.so.2.8:_Z47__device_stub__ctranspose_kernel_batched_strideiiiP17magmaFloatComplexiS0_i
libmagma.so.2.8:_Z47__device_stub__ctrtri_diag_lower_kernel_batched12magma_diag_tiPKPK17magmaFloatComplexiPPS0_
libmagma.so.2.8:_Z47__device_stub__ctrtri_diag_upper_kernel_batched12magma_diag_tiPKPK17magmaFloatComplexiPPS0_
libmagma.so.2.8:_Z47__device_stub__dtranspose_kernel_batched_strideiiiPdiS_i
libmagma.so.2.8:_Z47__device_stub__dtrtri_diag_lower_kernel_batched12magma_diag_tiPKPKdiPPd
libmagma.so.2.8:_Z47__device_stub__dtrtri_diag_upper_kernel_batched12magma_diag_tiPKPKdiPPd
libmagma.so.2.8:_Z47__device_stub__stranspose_kernel_batched_strideiiiPfiS_i
libmagma.so.2.8:_Z47__device_stub__strtri_diag_lower_kernel_batched12magma_diag_tiPKPKfiPPf
libmagma.so.2.8:_Z47__device_stub__strtri_diag_upper_kernel_batched12magma_diag_tiPKPKfiPPf
libmagma.so.2.8:_Z47__device_stub__zdisplace_pointers_var_cc_kernelPP17magmaFloatComplexS1_Piii
libmagma.so.2.8:_Z47__device_stub__zdisplace_pointers_var_cc_kernelPP18magmaDoubleComplexS1_Piii
libmagma.so.2.8:_Z47__device_stub__zdisplace_pointers_var_cc_kernelPPdS0_Piii
libmagma.so.2.8:_Z47__device_stub__zdisplace_pointers_var_cc_kernelPPfS0_Piii
libmagma.so.2.8:_Z47__device_stub__zdisplace_pointers_var_cv_kernelPP17magmaFloatComplexS1_PiiS2_
libmagma.so.2.8:_Z47__device_stub__zdisplace_pointers_var_cv_kernelPP18magmaDoubleComplexS1_PiiS2_
libmagma.so.2.8:_Z47__device_stub__zdisplace_pointers_var_cv_kernelPPdS0_PiiS1_
libmagma.so.2.8:_Z47__device_stub__zdisplace_pointers_var_cv_kernelPPfS0_PiiS1_
libmagma.so.2.8:_Z47__device_stub__zdisplace_pointers_var_vc_kernelPP17magmaFloatComplexS1_PiS2_i
libmagma.so.2.8:_Z47__device_stub__zdisplace_pointers_var_vc_kernelPP18magmaDoubleComplexS1_PiS2_i
libmagma.so.2.8:_Z47__device_stub__zdisplace_pointers_var_vc_kernelPPdS0_PiS1_i
libmagma.so.2.8:_Z47__device_stub__zdisplace_pointers_var_vc_kernelPPfS0_PiS1_i
libmagma.so.2.8:_Z47__device_stub__zdisplace_pointers_var_vv_kernelPP17magmaFloatComplexS1_PiS2_S2_
libmagma.so.2.8:_Z47__device_stub__zdisplace_pointers_var_vv_kernelPP18magmaDoubleComplexS1_PiS2_S2_
libmagma.so.2.8:_Z47__device_stub__zdisplace_pointers_var_vv_kernelPPdS0_PiS1_S1_
libmagma.so.2.8:_Z47__device_stub__zdisplace_pointers_var_vv_kernelPPfS0_PiS1_S1_
libmagma.so.2.8:_Z47__device_stub__ztranspose_kernel_batched_strideiiiP18magmaDoubleComplexiS0_i
libmagma.so.2.8:_Z47__device_stub__ztrtri_diag_lower_kernel_batched12magma_diag_tiPKPK18magmaDoubleComplexiPPS0_
libmagma.so.2.8:_Z47__device_stub__ztrtri_diag_upper_kernel_batched12magma_diag_tiPKPK18magmaDoubleComplexiPPS0_
libmagma.so.2.8:_Z47triple_cgemm_above64_part1_lower_kernel_batchediPKPK17magmaFloatComplexiPPS_ii
libmagma.so.2.8:_Z47triple_cgemm_above64_part1_upper_kernel_batchediPKPK17magmaFloatComplexiPPS_ii
libmagma.so.2.8:_Z47triple_cgemm_above64_part2_lower_kernel_batchediPKPK17magmaFloatComplexiPPS_ii
libmagma.so.2.8:_Z47triple_cgemm_above64_part2_upper_kernel_batchediPKPK17magmaFloatComplexiPPS_ii
libmagma.so.2.8:_Z47triple_cgemm_above64_part3_lower_kernel_batchediPKPK17magmaFloatComplexiPPS_ii
libmagma.so.2.8:_Z47triple_cgemm_above64_part3_upper_kernel_batchediPKPK17magmaFloatComplexiPPS_ii
libmagma.so.2.8:_Z47triple_dgemm_above64_part1_lower_kernel_batchediPKPKdiPPdii
libmagma.so.2.8:_Z47triple_dgemm_above64_part1_upper_kernel_batchediPKPKdiPPdii
libmagma.so.2.8:_Z47triple_dgemm_above64_part2_lower_kernel_batchediPKPKdiPPdii
libmagma.so.2.8:_Z47triple_dgemm_above64_part2_upper_kernel_batchediPKPKdiPPdii
libmagma.so.2.8:_Z47triple_dgemm_above64_part3_lower_kernel_batchediPKPKdiPPdii
libmagma.so.2.8:_Z47triple_dgemm_above64_part3_upper_kernel_batchediPKPKdiPPdii
libmagma.so.2.8:_Z47triple_sgemm_above64_part1_lower_kernel_batchediPKPKfiPPfii
libmagma.so.2.8:_Z47triple_sgemm_above64_part1_upper_kernel_batchediPKPKfiPPfii
libmagma.so.2.8:_Z47triple_sgemm_above64_part2_lower_kernel_batchediPKPKfiPPfii
libmagma.so.2.8:_Z47triple_sgemm_above64_part2_upper_kernel_batchediPKPKfiPPfii
libmagma.so.2.8:_Z47triple_sgemm_above64_part3_lower_kernel_batchediPKPKfiPPfii
libmagma.so.2.8:_Z47triple_sgemm_above64_part3_upper_kernel_batchediPKPKfiPPfii
libmagma.so.2.8:_Z47triple_zgemm_above64_part1_lower_kernel_batchediPKPK18magmaDoubleComplexiPPS_ii
libmagma.so.2.8:_Z47triple_zgemm_above64_part1_upper_kernel_batchediPKPK18magmaDoubleComplexiPPS_ii
libmagma.so.2.8:_Z47triple_zgemm_above64_part2_lower_kernel_batchediPKPK18magmaDoubleComplexiPPS_ii
libmagma.so.2.8:_Z47triple_zgemm_above64_part2_upper_kernel_batchediPKPK18magmaDoubleComplexiPPS_ii
libmagma.so.2.8:_Z47triple_zgemm_above64_part3_lower_kernel_batchediPKPK18magmaDoubleComplexiPPS_ii
libmagma.so.2.8:_Z47triple_zgemm_above64_part3_upper_kernel_batchediPKPK18magmaDoubleComplexiPPS_ii
libmagma.so.2.8:_Z48__device_stub__claswp_rowparallel_kernel_batchediiiPP17magmaFloatComplexiiiS1_iiiPPi
libmagma.so.2.8:_Z48__device_stub__cpotf2_smlpout_kernel_vbatched_v2iPiPP17magmaFloatComplexS_iiS_
libmagma.so.2.8:_Z48__device_stub__ctrtri_diag_lower_kernel_vbatched12magma_diag_tPiPKPK17magmaFloatComplexS0_PPS1_
libmagma.so.2.8:_Z48__device_stub__ctrtri_diag_upper_kernel_vbatched12magma_diag_tPiPKPK17magmaFloatComplexS0_PPS1_
libmagma.so.2.8:_Z48__device_stub__dlaswp_rowparallel_kernel_batchediiiPPdiiiS0_iiiPPi
libmagma.so.2.8:_Z48__device_stub__dpotf2_smlpout_kernel_vbatched_v2iPiPPdS_iiS_
libmagma.so.2.8:_Z48__device_stub__dtrtri_diag_lower_kernel_vbatched12magma_diag_tPiPKPKdS0_PPd
libmagma.so.2.8:_Z48__device_stub__dtrtri_diag_upper_kernel_vbatched12magma_diag_tPiPKPKdS0_PPd
libmagma.so.2.8:_Z48__device_stub__magma_getrf_vbatched_setup_kernelPiS_S_i
libmagma.so.2.8:_Z48__device_stub__slaswp_rowparallel_kernel_batchediiiPPfiiiS0_iiiPPi
libmagma.so.2.8:_Z48__device_stub__spotf2_smlpout_kernel_vbatched_v2iPiPPfS_iiS_
libmagma.so.2.8:_Z48__device_stub__strtri_diag_lower_kernel_vbatched12magma_diag_tPiPKPKfS0_PPf
libmagma.so.2.8:_Z48__device_stub__strtri_diag_upper_kernel_vbatched12magma_diag_tPiPKPKfS0_PPf
libmagma.so.2.8:_Z48__device_stub__triple_cgemm16_part1_lower_kerneliPK17magmaFloatComplexiPS_ii
libmagma.so.2.8:_Z48__device_stub__triple_cgemm16_part1_upper_kerneliPK17magmaFloatComplexiPS_ii
libmagma.so.2.8:_Z48__device_stub__triple_cgemm16_part2_lower_kerneliPK17magmaFloatComplexiPS_ii
libmagma.so.2.8:_Z48__device_stub__triple_cgemm16_part2_upper_kerneliPK17magmaFloatComplexiPS_ii
libmagma.so.2.8:_Z48__device_stub__triple_cgemm32_part1_lower_kerneliPK17magmaFloatComplexiPS_ii
libmagma.so.2.8:_Z48__device_stub__triple_cgemm32_part1_upper_kerneliPK17magmaFloatComplexiPS_ii
libmagma.so.2.8:_Z48__device_stub__triple_cgemm32_part2_lower_kerneliPK17magmaFloatComplexiPS_ii
libmagma.so.2.8:_Z48__device_stub__triple_cgemm32_part2_upper_kerneliPK17magmaFloatComplexiPS_ii
libmagma.so.2.8:_Z48__device_stub__triple_cgemm64_part1_lower_kerneliPK17magmaFloatComplexiPS_ii
libmagma.so.2.8:_Z48__device_stub__triple_cgemm64_part1_upper_kerneliPK17magmaFloatComplexiPS_ii
libmagma.so.2.8:_Z48__device_stub__triple_cgemm64_part2_lower_kerneliPK17magmaFloatComplexiPS_ii
libmagma.so.2.8:_Z48__device_stub__triple_cgemm64_part2_upper_kerneliPK17magmaFloatComplexiPS_ii
libmagma.so.2.8:_Z48__device_stub__triple_dgemm16_part1_lower_kerneliPKdiPdii
libmagma.so.2.8:_Z48__device_stub__triple_dgemm16_part1_upper_kerneliPKdiPdii
libmagma.so.2.8:_Z48__device_stub__triple_dgemm16_part2_lower_kerneliPKdiPdii
libmagma.so.2.8:_Z48__device_stub__triple_dgemm16_part2_upper_kerneliPKdiPdii
libmagma.so.2.8:_Z48__device_stub__triple_dgemm32_part1_lower_kerneliPKdiPdii
libmagma.so.2.8:_Z48__device_stub__triple_dgemm32_part1_upper_kerneliPKdiPdii
libmagma.so.2.8:_Z48__device_stub__triple_dgemm32_part2_lower_kerneliPKdiPdii
libmagma.so.2.8:_Z48__device_stub__triple_dgemm32_part2_upper_kerneliPKdiPdii
libmagma.so.2.8:_Z48__device_stub__triple_dgemm64_part1_lower_kerneliPKdiPdii
libmagma.so.2.8:_Z48__device_stub__triple_dgemm64_part1_upper_kerneliPKdiPdii
libmagma.so.2.8:_Z48__device_stub__triple_dgemm64_part2_lower_kerneliPKdiPdii
libmagma.so.2.8:_Z48__device_stub__triple_dgemm64_part2_upper_kerneliPKdiPdii
libmagma.so.2.8:_Z48__device_stub__triple_sgemm16_part1_lower_kerneliPKfiPfii
libmagma.so.2.8:_Z48__device_stub__triple_sgemm16_part1_upper_kerneliPKfiPfii
libmagma.so.2.8:_Z48__device_stub__triple_sgemm16_part2_lower_kerneliPKfiPfii
libmagma.so.2.8:_Z48__device_stub__triple_sgemm16_part2_upper_kerneliPKfiPfii
libmagma.so.2.8:_Z48__device_stub__triple_sgemm32_part1_lower_kerneliPKfiPfii
libmagma.so.2.8:_Z48__device_stub__triple_sgemm32_part1_upper_kerneliPKfiPfii
libmagma.so.2.8:_Z48__device_stub__triple_sgemm32_part2_lower_kerneliPKfiPfii
libmagma.so.2.8:_Z48__device_stub__triple_sgemm32_part2_upper_kerneliPKfiPfii
libmagma.so.2.8:_Z48__device_stub__triple_sgemm64_part1_lower_kerneliPKfiPfii
libmagma.so.2.8:_Z48__device_stub__triple_sgemm64_part1_upper_kerneliPKfiPfii
libmagma.so.2.8:_Z48__device_stub__triple_sgemm64_part2_lower_kerneliPKfiPfii
libmagma.so.2.8:_Z48__device_stub__triple_sgemm64_part2_upper_kerneliPKfiPfii
libmagma.so.2.8:_Z48__device_stub__triple_zgemm16_part1_lower_kerneliPK18magmaDoubleComplexiPS_ii
libmagma.so.2.8:_Z48__device_stub__triple_zgemm16_part1_upper_kerneliPK18magmaDoubleComplexiPS_ii
libmagma.so.2.8:_Z48__device_stub__triple_zgemm16_part2_lower_kerneliPK18magmaDoubleComplexiPS_ii
libmagma.so.2.8:_Z48__device_stub__triple_zgemm16_part2_upper_kerneliPK18magmaDoubleComplexiPS_ii
libmagma.so.2.8:_Z48__device_stub__triple_zgemm32_part1_lower_kerneliPK18magmaDoubleComplexiPS_ii
libmagma.so.2.8:_Z48__device_stub__triple_zgemm32_part1_upper_kerneliPK18magmaDoubleComplexiPS_ii
libmagma.so.2.8:_Z48__device_stub__triple_zgemm32_part2_lower_kerneliPK18magmaDoubleComplexiPS_ii
libmagma.so.2.8:_Z48__device_stub__triple_zgemm32_part2_upper_kerneliPK18magmaDoubleComplexiPS_ii
libmagma.so.2.8:_Z48__device_stub__triple_zgemm64_part1_lower_kerneliPK18magmaDoubleComplexiPS_ii
libmagma.so.2.8:_Z48__device_stub__triple_zgemm64_part1_upper_kerneliPK18magmaDoubleComplexiPS_ii
libmagma.so.2.8:_Z48__device_stub__triple_zgemm64_part2_lower_kerneliPK18magmaDoubleComplexiPS_ii
libmagma.so.2.8:_Z48__device_stub__triple_zgemm64_part2_upper_kerneliPK18magmaDoubleComplexiPS_ii
libmagma.so.2.8:_Z48__device_stub__zlaswp_rowparallel_kernel_batchediiiPP18magmaDoubleComplexiiiS1_iiiPPi
libmagma.so.2.8:_Z48__device_stub__zpotf2_smlpout_kernel_vbatched_v2iPiPP18magmaDoubleComplexS_iiS_
libmagma.so.2.8:_Z48__device_stub__ztrtri_diag_lower_kernel_vbatched12magma_diag_tPiPKPK18magmaDoubleComplexS0_PPS1_
libmagma.so.2.8:_Z48__device_stub__ztrtri_diag_upper_kernel_vbatched12magma_diag_tPiPKPK18magmaDoubleComplexS0_PPS1_
libmagma.so.2.8:_Z48magmablas_capply_transpose_vector_kernel_batchediP17magmaFloatComplexiPS0_i
libmagma.so.2.8:_Z48magmablas_dapply_transpose_vector_kernel_batchediPdiPS_i
libmagma.so.2.8:_Z48magmablas_sapply_transpose_vector_kernel_batchediPfiPS_i
libmagma.so.2.8:_Z48magmablas_zapply_transpose_vector_kernel_batchediP18magmaDoubleComplexiPS0_i
libmagma.so.2.8:_Z48triple_cgemm_above64_part1_lower_kernel_vbatchedPiPKPK17magmaFloatComplexS_PPS0_ii
libmagma.so.2.8:_Z48triple_cgemm_above64_part1_upper_kernel_vbatchedPiPKPK17magmaFloatComplexS_PPS0_ii
libmagma.so.2.8:_Z48triple_cgemm_above64_part2_lower_kernel_vbatchedPiPKPK17magmaFloatComplexS_PPS0_ii
libmagma.so.2.8:_Z48triple_cgemm_above64_part2_upper_kernel_vbatchedPiPKPK17magmaFloatComplexS_PPS0_ii
libmagma.so.2.8:_Z48triple_cgemm_above64_part3_lower_kernel_vbatchedPiPKPK17magmaFloatComplexS_PPS0_ii
libmagma.so.2.8:_Z48triple_cgemm_above64_part3_upper_kernel_vbatchedPiPKPK17magmaFloatComplexS_PPS0_ii
libmagma.so.2.8:_Z48triple_dgemm_above64_part1_lower_kernel_vbatchedPiPKPKdS_PPdii
libmagma.so.2.8:_Z48triple_dgemm_above64_part1_upper_kernel_vbatchedPiPKPKdS_PPdii
libmagma.so.2.8:_Z48triple_dgemm_above64_part2_lower_kernel_vbatchedPiPKPKdS_PPdii
libmagma.so.2.8:_Z48triple_dgemm_above64_part2_upper_kernel_vbatchedPiPKPKdS_PPdii
libmagma.so.2.8:_Z48triple_dgemm_above64_part3_lower_kernel_vbatchedPiPKPKdS_PPdii
libmagma.so.2.8:_Z48triple_dgemm_above64_part3_upper_kernel_vbatchedPiPKPKdS_PPdii
libmagma.so.2.8:_Z48triple_sgemm_above64_part1_lower_kernel_vbatchedPiPKPKfS_PPfii
libmagma.so.2.8:_Z48triple_sgemm_above64_part1_upper_kernel_vbatchedPiPKPKfS_PPfii
libmagma.so.2.8:_Z48triple_sgemm_above64_part2_lower_kernel_vbatchedPiPKPKfS_PPfii
libmagma.so.2.8:_Z48triple_sgemm_above64_part2_upper_kernel_vbatchedPiPKPKfS_PPfii
libmagma.so.2.8:_Z48triple_sgemm_above64_part3_lower_kernel_vbatchedPiPKPKfS_PPfii
libmagma.so.2.8:_Z48triple_sgemm_above64_part3_upper_kernel_vbatchedPiPKPKfS_PPfii
libmagma.so.2.8:_Z48triple_zgemm_above64_part1_lower_kernel_vbatchedPiPKPK18magmaDoubleComplexS_PPS0_ii
libmagma.so.2.8:_Z48triple_zgemm_above64_part1_upper_kernel_vbatchedPiPKPK18magmaDoubleComplexS_PPS0_ii
libmagma.so.2.8:_Z48triple_zgemm_above64_part2_lower_kernel_vbatchedPiPKPK18magmaDoubleComplexS_PPS0_ii
libmagma.so.2.8:_Z48triple_zgemm_above64_part2_upper_kernel_vbatchedPiPKPK18magmaDoubleComplexS_PPS0_ii
libmagma.so.2.8:_Z48triple_zgemm_above64_part3_lower_kernel_vbatchedPiPKPK18magmaDoubleComplexS_PPS0_ii
libmagma.so.2.8:_Z48triple_zgemm_above64_part3_upper_kernel_vbatchedPiPKPK18magmaDoubleComplexS_PPS0_ii
libmagma.so.2.8:_Z49__device_stub__claswp_columnserial_kernel_batchediPP17magmaFloatComplexiiiPPi
libmagma.so.2.8:_Z49__device_stub__dlaswp_columnserial_kernel_batchediPPdiiiPPi
libmagma.so.2.8:_Z49__device_stub__magmablas_dscal_inverseblock_lowerPKdiPdi
libmagma.so.2.8:_Z49__device_stub__magmablas_dscal_inverseblock_upperPKdiPdi
libmagma.so.2.8:_Z49__device_stub__magmablas_sscal_inverseblock_lowerPKfiPfi
libmagma.so.2.8:_Z49__device_stub__magmablas_sscal_inverseblock_upperPKfiPfi
libmagma.so.2.8:_Z49__device_stub__slaswp_columnserial_kernel_batchediPPfiiiPPi
libmagma.so.2.8:_Z49__device_stub__zlaswp_columnserial_kernel_batchediPP18magmaDoubleComplexiiiPPi
libmagma.so.2.8:_Z50__device_stub__clarft_ctrmv_sm32x32_kernel_batchediiPP17magmaFloatComplexiS1_iiiS1_iii
libmagma.so.2.8:_Z50__device_stub__dlarft_dtrmv_sm32x32_kernel_batchediiPPdiS0_iiiS0_iii
libmagma.so.2.8:_Z50__device_stub__dscal_dger_1d_generic_kernel_nativeiiPdiPiii
libmagma.so.2.8:_Z50__device_stub__magma_cswap_scal_inverseblock_loweriiiP17magmaFloatComplexiS0_i
libmagma.so.2.8:_Z50__device_stub__magma_dnrm2_row_check_adjust_kernelidPdS_S_iS_
libmagma.so.2.8:_Z50__device_stub__magma_dswap_scal_inverseblock_loweriiiPdiS_i
libmagma.so.2.8:_Z50__device_stub__magma_snrm2_row_check_adjust_kernelifPfS_S_iS_
libmagma.so.2.8:_Z50__device_stub__magma_sswap_scal_inverseblock_loweriiiPfiS_i
libmagma.so.2.8:_Z50__device_stub__magma_zswap_scal_inverseblock_loweriiiP18magmaDoubleComplexiS0_i
libmagma.so.2.8:_Z50__device_stub__magmablas_csscal_inverseblock_lowerPK17magmaFloatComplexiPS_i
libmagma.so.2.8:_Z50__device_stub__magmablas_csscal_inverseblock_upperPK17magmaFloatComplexiPS_i
libmagma.so.2.8:_Z50__device_stub__magmablas_zdscal_inverseblock_lowerPK18magmaDoubleComplexiPS_i
libmagma.so.2.8:_Z50__device_stub__magmablas_zdscal_inverseblock_upperPK18magmaDoubleComplexiPS_i
libmagma.so.2.8:_Z50__device_stub__slarft_strmv_sm32x32_kernel_batchediiPPfiS0_iiiS0_iii
libmagma.so.2.8:_Z50__device_stub__sscal_sger_1d_generic_kernel_nativeiiPfiPiii
libmagma.so.2.8:_Z50__device_stub__zlarft_ztrmv_sm32x32_kernel_batchediiPP18magmaDoubleComplexiS1_iiiS1_iii
libmagma.so.2.8:_Z51__device_stub__cherk_small_reduce_scale_beta_kernel12magma_uplo_ti17magmaFloatComplexPS0_i
libmagma.so.2.8:_Z51__device_stub__cscal_cgeru_1d_generic_kernel_nativeiiP17magmaFloatComplexiPiii
libmagma.so.2.8:_Z51__device_stub__dscal_dger_1d_generic_kernel_batchediiPPdiiiPiii
libmagma.so.2.8:_Z51__device_stub__dsyrk_small_reduce_scale_beta_kernel12magma_uplo_tidPdi
libmagma.so.2.8:_Z51__device_stub__magma_dznrm2_row_check_adjust_kernelidPdS_P18magmaDoubleComplexiS_
libmagma.so.2.8:_Z51__device_stub__magma_scnrm2_row_check_adjust_kernelifPfS_P17magmaFloatComplexiS_
libmagma.so.2.8:_Z51__device_stub__sscal_sger_1d_generic_kernel_batchediiPPfiiiPiii
libmagma.so.2.8:_Z51__device_stub__ssyrk_small_reduce_scale_beta_kernel12magma_uplo_tifPfi
libmagma.so.2.8:_Z51__device_stub__zcomputecolumn_kernel_shared_batchediiiPP17magmaFloatComplexiiiPPiS2_i
libmagma.so.2.8:_Z51__device_stub__zcomputecolumn_kernel_shared_batchediiiPP18magmaDoubleComplexiiiPPiS2_i
libmagma.so.2.8:_Z51__device_stub__zcomputecolumn_kernel_shared_batchediiiPPdiiiPPiS1_i
libmagma.so.2.8:_Z51__device_stub__zcomputecolumn_kernel_shared_batchediiiPPfiiiPPiS1_i
libmagma.so.2.8:_Z51__device_stub__zherk_small_reduce_scale_beta_kernel12magma_uplo_ti18magmaDoubleComplexPS0_i
libmagma.so.2.8:_Z51__device_stub__zscal_zgeru_1d_generic_kernel_nativeiiP18magmaDoubleComplexiPiii
libmagma.so.2.8:_Z51magmablas_celementary_multiplication_kernel_batchediPP17magmaFloatComplexiiS0_iS0_i
libmagma.so.2.8:_Z51magmablas_delementary_multiplication_kernel_batchediPPdiiS_iS_i
libmagma.so.2.8:_Z51magmablas_selementary_multiplication_kernel_batchediPPfiiS_iS_i
libmagma.so.2.8:_Z51magmablas_zelementary_multiplication_kernel_batchediPP18magmaDoubleComplexiiS0_iS0_i
libmagma.so.2.8:_Z52__device_stub__claswp_left_rowserial_kernel_vbatchediPiS_PP17magmaFloatComplexiiS_PS_iii
libmagma.so.2.8:_Z52__device_stub__cpotf2_smlpin_anywidth_kernel_batchediPP17magmaFloatComplexiiiiiPii
libmagma.so.2.8:_Z52__device_stub__cpotf2_smlpin_fixwidth_kernel_batchediPP17magmaFloatComplexiiiiiPii
libmagma.so.2.8:_Z52__device_stub__cscal_cgeru_1d_generic_kernel_batchediiPP17magmaFloatComplexiiiPiii
libmagma.so.2.8:_Z52__device_stub__dlaswp_left_rowserial_kernel_vbatchediPiS_PPdiiS_PS_iii
libmagma.so.2.8:_Z52__device_stub__dpotf2_smlpin_anywidth_kernel_batchediPPdiiiiiPii
libmagma.so.2.8:_Z52__device_stub__dpotf2_smlpin_fixwidth_kernel_batchediPPdiiiiiPii
libmagma.so.2.8:_Z52__device_stub__dscal_dger_1d_generic_kernel_vbatchediiPiS_PPdiiS_S_ii
libmagma.so.2.8:_Z52__device_stub__slaswp_left_rowserial_kernel_vbatchediPiS_PPfiiS_PS_iii
libmagma.so.2.8:_Z52__device_stub__spotf2_smlpin_anywidth_kernel_batchediPPfiiiiiPii
libmagma.so.2.8:_Z52__device_stub__spotf2_smlpin_fixwidth_kernel_batchediPPfiiiiiPii
libmagma.so.2.8:_Z52__device_stub__sscal_sger_1d_generic_kernel_vbatchediiPiS_PPfiiS_S_ii
libmagma.so.2.8:_Z52__device_stub__zlaswp_left_rowserial_kernel_vbatchediPiS_PP18magmaDoubleComplexiiS_PS_iii
libmagma.so.2.8:_Z52__device_stub__zpotf2_smlpin_anywidth_kernel_batchediPP18magmaDoubleComplexiiiiiPii
libmagma.so.2.8:_Z52__device_stub__zpotf2_smlpin_fixwidth_kernel_batchediPP18magmaDoubleComplexiiiiiPii
libmagma.so.2.8:_Z52__device_stub__zscal_zgeru_1d_generic_kernel_batchediiPP18magmaDoubleComplexiiiPiii
libmagma.so.2.8:_Z53__device_stub__cgbtf2_adjust_ju_fillin_kernel_batchediiiPP17magmaFloatComplexiPPiS2_ii
libmagma.so.2.8:_Z53__device_stub__cgbtrs_upper_columnwise_kernel_batchediiiiiPP17magmaFloatComplexiS1_i
libmagma.so.2.8:_Z53__device_stub__clarft_recctrmv_sm32x32_kernel_batchediiPP17magmaFloatComplexiS1_iiiS1_iii
libmagma.so.2.8:_Z53__device_stub__claswp_right_rowserial_kernel_vbatchediPiS_PP17magmaFloatComplexiiS_PS_iii
libmagma.so.2.8:_Z53__device_stub__cpotf2_smlpout_anywidth_kernel_batchediiPP17magmaFloatComplexiiiiiPii
libmagma.so.2.8:_Z53__device_stub__cpotf2_smlpout_fixwidth_kernel_batchediPP17magmaFloatComplexiiiiiPii
libmagma.so.2.8:_Z53__device_stub__cscal_cgeru_1d_generic_kernel_vbatchediiPiS_PP17magmaFloatComplexiiS_S_ii
libmagma.so.2.8:_Z53__device_stub__dgbtf2_adjust_ju_fillin_kernel_batchediiiPPdiPPiS1_ii
libmagma.so.2.8:_Z53__device_stub__dgbtrs_upper_columnwise_kernel_batchediiiiiPPdiS0_i
libmagma.so.2.8:_Z53__device_stub__dlarft_recdtrmv_sm32x32_kernel_batchediiPPdiS0_iiiS0_iii
libmagma.so.2.8:_Z53__device_stub__dlaswp_right_rowserial_kernel_vbatchediPiS_PPdiiS_PS_iii
libmagma.so.2.8:_Z53__device_stub__dpotf2_smlpout_anywidth_kernel_batchediiPPdiiiiiPii
libmagma.so.2.8:_Z53__device_stub__dpotf2_smlpout_fixwidth_kernel_batchediPPdiiiiiPii
libmagma.so.2.8:_Z53__device_stub__magmablas_capply_vector_kernel_batchediP17magmaFloatComplexiPS0_i
libmagma.so.2.8:_Z53__device_stub__magmablas_dapply_vector_kernel_batchediPdiPS_i
libmagma.so.2.8:_Z53__device_stub__magmablas_sapply_vector_kernel_batchediPfiPS_i
libmagma.so.2.8:_Z53__device_stub__magmablas_zapply_vector_kernel_batchediP18magmaDoubleComplexiPS0_i
libmagma.so.2.8:_Z53__device_stub__sgbtf2_adjust_ju_fillin_kernel_batchediiiPPfiPPiS1_ii
libmagma.so.2.8:_Z53__device_stub__sgbtrs_upper_columnwise_kernel_batchediiiiiPPfiS0_i
libmagma.so.2.8:_Z53__device_stub__slarft_recstrmv_sm32x32_kernel_batchediiPPfiS0_iiiS0_iii
libmagma.so.2.8:_Z53__device_stub__slaswp_right_rowserial_kernel_vbatchediPiS_PPfiiS_PS_iii
libmagma.so.2.8:_Z53__device_stub__spotf2_smlpout_anywidth_kernel_batchediiPPfiiiiiPii
libmagma.so.2.8:_Z53__device_stub__spotf2_smlpout_fixwidth_kernel_batchediPPfiiiiiPii
libmagma.so.2.8:_Z53__device_stub__zgbtf2_adjust_ju_fillin_kernel_batchediiiPP18magmaDoubleComplexiPPiS2_ii
libmagma.so.2.8:_Z53__device_stub__zgbtrs_upper_columnwise_kernel_batchediiiiiPP18magmaDoubleComplexiS1_i
libmagma.so.2.8:_Z53__device_stub__zlarft_recztrmv_sm32x32_kernel_batchediiPP18magmaDoubleComplexiS1_iiiS1_iii
libmagma.so.2.8:_Z53__device_stub__zlaswp_right_rowserial_kernel_vbatchediPiS_PP18magmaDoubleComplexiiS_PS_iii
libmagma.so.2.8:_Z53__device_stub__zpotf2_smlpout_anywidth_kernel_batchediiPP18magmaDoubleComplexiiiiiPii
libmagma.so.2.8:_Z53__device_stub__zpotf2_smlpout_fixwidth_kernel_batchediPP18magmaDoubleComplexiiiiiPii
libmagma.so.2.8:_Z53__device_stub__zscal_zgeru_1d_generic_kernel_vbatchediiPiS_PP18magmaDoubleComplexiiS_S_ii
libmagma.so.2.8:_Z54__device_stub__claswp_left_rowparallel_kernel_vbatchediiPiS_PP17magmaFloatComplexiiS_PS_iii
libmagma.so.2.8:_Z54__device_stub__dlaswp_left_rowparallel_kernel_vbatchediiPiS_PPdiiS_PS_iii
libmagma.so.2.8:_Z54__device_stub__slaswp_left_rowparallel_kernel_vbatchediiPiS_PPfiiS_PS_iii
libmagma.so.2.8:_Z54__device_stub__triple_cgemm_above64_part1_lower_kerneliPK17magmaFloatComplexiPS_ii
libmagma.so.2.8:_Z54__device_stub__triple_cgemm_above64_part1_upper_kerneliPK17magmaFloatComplexiPS_ii
libmagma.so.2.8:_Z54__device_stub__triple_cgemm_above64_part2_lower_kerneliPK17magmaFloatComplexiPS_ii
libmagma.so.2.8:_Z54__device_stub__triple_cgemm_above64_part2_upper_kerneliPK17magmaFloatComplexiPS_ii
libmagma.so.2.8:_Z54__device_stub__triple_cgemm_above64_part3_lower_kerneliPK17magmaFloatComplexiPS_ii
libmagma.so.2.8:_Z54__device_stub__triple_cgemm_above64_part3_upper_kerneliPK17magmaFloatComplexiPS_ii
libmagma.so.2.8:_Z54__device_stub__triple_dgemm_above64_part1_lower_kerneliPKdiPdii
libmagma.so.2.8:_Z54__device_stub__triple_dgemm_above64_part1_upper_kerneliPKdiPdii
libmagma.so.2.8:_Z54__device_stub__triple_dgemm_above64_part2_lower_kerneliPKdiPdii
libmagma.so.2.8:_Z54__device_stub__triple_dgemm_above64_part2_upper_kerneliPKdiPdii
libmagma.so.2.8:_Z54__device_stub__triple_dgemm_above64_part3_lower_kerneliPKdiPdii
libmagma.so.2.8:_Z54__device_stub__triple_dgemm_above64_part3_upper_kerneliPKdiPdii
libmagma.so.2.8:_Z54__device_stub__triple_sgemm_above64_part1_lower_kerneliPKfiPfii
libmagma.so.2.8:_Z54__device_stub__triple_sgemm_above64_part1_upper_kerneliPKfiPfii
libmagma.so.2.8:_Z54__device_stub__triple_sgemm_above64_part2_lower_kerneliPKfiPfii
libmagma.so.2.8:_Z54__device_stub__triple_sgemm_above64_part2_upper_kerneliPKfiPfii
libmagma.so.2.8:_Z54__device_stub__triple_sgemm_above64_part3_lower_kerneliPKfiPfii
libmagma.so.2.8:_Z54__device_stub__triple_sgemm_above64_part3_upper_kerneliPKfiPfii
libmagma.so.2.8:_Z54__device_stub__triple_zgemm_above64_part1_lower_kerneliPK18magmaDoubleComplexiPS_ii
libmagma.so.2.8:_Z54__device_stub__triple_zgemm_above64_part1_upper_kerneliPK18magmaDoubleComplexiPS_ii
libmagma.so.2.8:_Z54__device_stub__triple_zgemm_above64_part2_lower_kerneliPK18magmaDoubleComplexiPS_ii
libmagma.so.2.8:_Z54__device_stub__triple_zgemm_above64_part2_upper_kerneliPK18magmaDoubleComplexiPS_ii
libmagma.so.2.8:_Z54__device_stub__triple_zgemm_above64_part3_lower_kerneliPK18magmaDoubleComplexiPS_ii
libmagma.so.2.8:_Z54__device_stub__triple_zgemm_above64_part3_upper_kerneliPK18magmaDoubleComplexiPS_ii
libmagma.so.2.8:_Z54__device_stub__zlaswp_left_rowparallel_kernel_vbatchediiPiS_PP18magmaDoubleComplexiiS_PS_iii
libmagma.so.2.8:_Z55__device_stub__claswp_right_rowparallel_kernel_vbatchediiPiS_PP17magmaFloatComplexiiS_PS_iii
libmagma.so.2.8:_Z55__device_stub__dlaswp_right_rowparallel_kernel_vbatchediiPiS_PPdiiS_PS_iii
libmagma.so.2.8:_Z55__device_stub__magmablas_capply_transpose_vector_kerneliP17magmaFloatComplexiS0_i
libmagma.so.2.8:_Z55__device_stub__magmablas_dapply_transpose_vector_kerneliPdiS_i
libmagma.so.2.8:_Z55__device_stub__magmablas_sapply_transpose_vector_kerneliPfiS_i
libmagma.so.2.8:_Z55__device_stub__magmablas_zapply_transpose_vector_kerneliP18magmaDoubleComplexiS0_i
libmagma.so.2.8:_Z55__device_stub__slaswp_right_rowparallel_kernel_vbatchediiPiS_PPfiiS_PS_iii
libmagma.so.2.8:_Z55__device_stub__zlaswp_right_rowparallel_kernel_vbatchediiPiS_PP18magmaDoubleComplexiiS_PS_iii
libmagma.so.2.8:_Z56__device_stub__triple_cgemm16_part1_lower_kernel_batchediPKPK17magmaFloatComplexiPPS_ii
libmagma.so.2.8:_Z56__device_stub__triple_cgemm16_part1_upper_kernel_batchediPKPK17magmaFloatComplexiPPS_ii
libmagma.so.2.8:_Z56__device_stub__triple_cgemm16_part2_lower_kernel_batchediPKPK17magmaFloatComplexiPPS_ii
libmagma.so.2.8:_Z56__device_stub__triple_cgemm16_part2_upper_kernel_batchediPKPK17magmaFloatComplexiPPS_ii
libmagma.so.2.8:_Z56__device_stub__triple_cgemm32_part1_lower_kernel_batchediPKPK17magmaFloatComplexiPPS_ii
libmagma.so.2.8:_Z56__device_stub__triple_cgemm32_part1_upper_kernel_batchediPKPK17magmaFloatComplexiPPS_ii
libmagma.so.2.8:_Z56__device_stub__triple_cgemm32_part2_lower_kernel_batchediPKPK17magmaFloatComplexiPPS_ii
libmagma.so.2.8:_Z56__device_stub__triple_cgemm32_part2_upper_kernel_batchediPKPK17magmaFloatComplexiPPS_ii
libmagma.so.2.8:_Z56__device_stub__triple_cgemm64_part1_lower_kernel_batchediPKPK17magmaFloatComplexiPPS_ii
libmagma.so.2.8:_Z56__device_stub__triple_cgemm64_part1_upper_kernel_batchediPKPK17magmaFloatComplexiPPS_ii
libmagma.so.2.8:_Z56__device_stub__triple_cgemm64_part2_lower_kernel_batchediPKPK17magmaFloatComplexiPPS_ii
libmagma.so.2.8:_Z56__device_stub__triple_cgemm64_part2_upper_kernel_batchediPKPK17magmaFloatComplexiPPS_ii
libmagma.so.2.8:_Z56__device_stub__triple_dgemm16_part1_lower_kernel_batchediPKPKdiPPdii
libmagma.so.2.8:_Z56__device_stub__triple_dgemm16_part1_upper_kernel_batchediPKPKdiPPdii
libmagma.so.2.8:_Z56__device_stub__triple_dgemm16_part2_lower_kernel_batchediPKPKdiPPdii
libmagma.so.2.8:_Z56__device_stub__triple_dgemm16_part2_upper_kernel_batchediPKPKdiPPdii
libmagma.so.2.8:_Z56__device_stub__triple_dgemm32_part1_lower_kernel_batchediPKPKdiPPdii
libmagma.so.2.8:_Z56__device_stub__triple_dgemm32_part1_upper_kernel_batchediPKPKdiPPdii
libmagma.so.2.8:_Z56__device_stub__triple_dgemm32_part2_lower_kernel_batchediPKPKdiPPdii
libmagma.so.2.8:_Z56__device_stub__triple_dgemm32_part2_upper_kernel_batchediPKPKdiPPdii
libmagma.so.2.8:_Z56__device_stub__triple_dgemm64_part1_lower_kernel_batchediPKPKdiPPdii
libmagma.so.2.8:_Z56__device_stub__triple_dgemm64_part1_upper_kernel_batchediPKPKdiPPdii
libmagma.so.2.8:_Z56__device_stub__triple_dgemm64_part2_lower_kernel_batchediPKPKdiPPdii
libmagma.so.2.8:_Z56__device_stub__triple_dgemm64_part2_upper_kernel_batchediPKPKdiPPdii
libmagma.so.2.8:_Z56__device_stub__triple_sgemm16_part1_lower_kernel_batchediPKPKfiPPfii
libmagma.so.2.8:_Z56__device_stub__triple_sgemm16_part1_upper_kernel_batchediPKPKfiPPfii
libmagma.so.2.8:_Z56__device_stub__triple_sgemm16_part2_lower_kernel_batchediPKPKfiPPfii
libmagma.so.2.8:_Z56__device_stub__triple_sgemm16_part2_upper_kernel_batchediPKPKfiPPfii
libmagma.so.2.8:_Z56__device_stub__triple_sgemm32_part1_lower_kernel_batchediPKPKfiPPfii
libmagma.so.2.8:_Z56__device_stub__triple_sgemm32_part1_upper_kernel_batchediPKPKfiPPfii
libmagma.so.2.8:_Z56__device_stub__triple_sgemm32_part2_lower_kernel_batchediPKPKfiPPfii
libmagma.so.2.8:_Z56__device_stub__triple_sgemm32_part2_upper_kernel_batchediPKPKfiPPfii
libmagma.so.2.8:_Z56__device_stub__triple_sgemm64_part1_lower_kernel_batchediPKPKfiPPfii
libmagma.so.2.8:_Z56__device_stub__triple_sgemm64_part1_upper_kernel_batchediPKPKfiPPfii
libmagma.so.2.8:_Z56__device_stub__triple_sgemm64_part2_lower_kernel_batchediPKPKfiPPfii
libmagma.so.2.8:_Z56__device_stub__triple_sgemm64_part2_upper_kernel_batchediPKPKfiPPfii
libmagma.so.2.8:_Z56__device_stub__triple_zgemm16_part1_lower_kernel_batchediPKPK18magmaDoubleComplexiPPS_ii
libmagma.so.2.8:_Z56__device_stub__triple_zgemm16_part1_upper_kernel_batchediPKPK18magmaDoubleComplexiPPS_ii
libmagma.so.2.8:_Z56__device_stub__triple_zgemm16_part2_lower_kernel_batchediPKPK18magmaDoubleComplexiPPS_ii
libmagma.so.2.8:_Z56__device_stub__triple_zgemm16_part2_upper_kernel_batchediPKPK18magmaDoubleComplexiPPS_ii
libmagma.so.2.8:_Z56__device_stub__triple_zgemm32_part1_lower_kernel_batchediPKPK18magmaDoubleComplexiPPS_ii
libmagma.so.2.8:_Z56__device_stub__triple_zgemm32_part1_upper_kernel_batchediPKPK18magmaDoubleComplexiPPS_ii
libmagma.so.2.8:_Z56__device_stub__triple_zgemm32_part2_lower_kernel_batchediPKPK18magmaDoubleComplexiPPS_ii
libmagma.so.2.8:_Z56__device_stub__triple_zgemm32_part2_upper_kernel_batchediPKPK18magmaDoubleComplexiPPS_ii
libmagma.so.2.8:_Z56__device_stub__triple_zgemm64_part1_lower_kernel_batchediPKPK18magmaDoubleComplexiPPS_ii
libmagma.so.2.8:_Z56__device_stub__triple_zgemm64_part1_upper_kernel_batchediPKPK18magmaDoubleComplexiPPS_ii
libmagma.so.2.8:_Z56__device_stub__triple_zgemm64_part2_lower_kernel_batchediPKPK18magmaDoubleComplexiPPS_ii
libmagma.so.2.8:_Z56__device_stub__triple_zgemm64_part2_upper_kernel_batchediPKPK18magmaDoubleComplexiPPS_ii
libmagma.so.2.8:_Z57__device_stub__triple_cgemm16_part1_lower_kernel_vbatchedPiPKPK17magmaFloatComplexS_PPS0_ii
libmagma.so.2.8:_Z57__device_stub__triple_cgemm16_part1_upper_kernel_vbatchedPiPKPK17magmaFloatComplexS_PPS0_ii
libmagma.so.2.8:_Z57__device_stub__triple_cgemm16_part2_lower_kernel_vbatchedPiPKPK17magmaFloatComplexS_PPS0_ii
libmagma.so.2.8:_Z57__device_stub__triple_cgemm16_part2_upper_kernel_vbatchedPiPKPK17magmaFloatComplexS_PPS0_ii
libmagma.so.2.8:_Z57__device_stub__triple_cgemm32_part1_lower_kernel_vbatchedPiPKPK17magmaFloatComplexS_PPS0_ii
libmagma.so.2.8:_Z57__device_stub__triple_cgemm32_part1_upper_kernel_vbatchedPiPKPK17magmaFloatComplexS_PPS0_ii
libmagma.so.2.8:_Z57__device_stub__triple_cgemm32_part2_lower_kernel_vbatchedPiPKPK17magmaFloatComplexS_PPS0_ii
libmagma.so.2.8:_Z57__device_stub__triple_cgemm32_part2_upper_kernel_vbatchedPiPKPK17magmaFloatComplexS_PPS0_ii
libmagma.so.2.8:_Z57__device_stub__triple_cgemm64_part1_lower_kernel_vbatchedPiPKPK17magmaFloatComplexS_PPS0_ii
libmagma.so.2.8:_Z57__device_stub__triple_cgemm64_part1_upper_kernel_vbatchedPiPKPK17magmaFloatComplexS_PPS0_ii
libmagma.so.2.8:_Z57__device_stub__triple_cgemm64_part2_lower_kernel_vbatchedPiPKPK17magmaFloatComplexS_PPS0_ii
libmagma.so.2.8:_Z57__device_stub__triple_cgemm64_part2_upper_kernel_vbatchedPiPKPK17magmaFloatComplexS_PPS0_ii
libmagma.so.2.8:_Z57__device_stub__triple_dgemm16_part1_lower_kernel_vbatchedPiPKPKdS_PPdii
libmagma.so.2.8:_Z57__device_stub__triple_dgemm16_part1_upper_kernel_vbatchedPiPKPKdS_PPdii
libmagma.so.2.8:_Z57__device_stub__triple_dgemm16_part2_lower_kernel_vbatchedPiPKPKdS_PPdii
libmagma.so.2.8:_Z57__device_stub__triple_dgemm16_part2_upper_kernel_vbatchedPiPKPKdS_PPdii
libmagma.so.2.8:_Z57__device_stub__triple_dgemm32_part1_lower_kernel_vbatchedPiPKPKdS_PPdii
libmagma.so.2.8:_Z57__device_stub__triple_dgemm32_part1_upper_kernel_vbatchedPiPKPKdS_PPdii
libmagma.so.2.8:_Z57__device_stub__triple_dgemm32_part2_lower_kernel_vbatchedPiPKPKdS_PPdii
libmagma.so.2.8:_Z57__device_stub__triple_dgemm32_part2_upper_kernel_vbatchedPiPKPKdS_PPdii
libmagma.so.2.8:_Z57__device_stub__triple_dgemm64_part1_lower_kernel_vbatchedPiPKPKdS_PPdii
libmagma.so.2.8:_Z57__device_stub__triple_dgemm64_part1_upper_kernel_vbatchedPiPKPKdS_PPdii
libmagma.so.2.8:_Z57__device_stub__triple_dgemm64_part2_lower_kernel_vbatchedPiPKPKdS_PPdii
libmagma.so.2.8:_Z57__device_stub__triple_dgemm64_part2_upper_kernel_vbatchedPiPKPKdS_PPdii
libmagma.so.2.8:_Z57__device_stub__triple_sgemm16_part1_lower_kernel_vbatchedPiPKPKfS_PPfii
libmagma.so.2.8:_Z57__device_stub__triple_sgemm16_part1_upper_kernel_vbatchedPiPKPKfS_PPfii
libmagma.so.2.8:_Z57__device_stub__triple_sgemm16_part2_lower_kernel_vbatchedPiPKPKfS_PPfii
libmagma.so.2.8:_Z57__device_stub__triple_sgemm16_part2_upper_kernel_vbatchedPiPKPKfS_PPfii
libmagma.so.2.8:_Z57__device_stub__triple_sgemm32_part1_lower_kernel_vbatchedPiPKPKfS_PPfii
libmagma.so.2.8:_Z57__device_stub__triple_sgemm32_part1_upper_kernel_vbatchedPiPKPKfS_PPfii
libmagma.so.2.8:_Z57__device_stub__triple_sgemm32_part2_lower_kernel_vbatchedPiPKPKfS_PPfii
libmagma.so.2.8:_Z57__device_stub__triple_sgemm32_part2_upper_kernel_vbatchedPiPKPKfS_PPfii
libmagma.so.2.8:_Z57__device_stub__triple_sgemm64_part1_lower_kernel_vbatchedPiPKPKfS_PPfii
libmagma.so.2.8:_Z57__device_stub__triple_sgemm64_part1_upper_kernel_vbatchedPiPKPKfS_PPfii
libmagma.so.2.8:_Z57__device_stub__triple_sgemm64_part2_lower_kernel_vbatchedPiPKPKfS_PPfii
libmagma.so.2.8:_Z57__device_stub__triple_sgemm64_part2_upper_kernel_vbatchedPiPKPKfS_PPfii
libmagma.so.2.8:_Z57__device_stub__triple_zgemm16_part1_lower_kernel_vbatchedPiPKPK18magmaDoubleComplexS_PPS0_ii
libmagma.so.2.8:_Z57__device_stub__triple_zgemm16_part1_upper_kernel_vbatchedPiPKPK18magmaDoubleComplexS_PPS0_ii
libmagma.so.2.8:_Z57__device_stub__triple_zgemm16_part2_lower_kernel_vbatchedPiPKPK18magmaDoubleComplexS_PPS0_ii
libmagma.so.2.8:_Z57__device_stub__triple_zgemm16_part2_upper_kernel_vbatchedPiPKPK18magmaDoubleComplexS_PPS0_ii
libmagma.so.2.8:_Z57__device_stub__triple_zgemm32_part1_lower_kernel_vbatchedPiPKPK18magmaDoubleComplexS_PPS0_ii
libmagma.so.2.8:_Z57__device_stub__triple_zgemm32_part1_upper_kernel_vbatchedPiPKPK18magmaDoubleComplexS_PPS0_ii
libmagma.so.2.8:_Z57__device_stub__triple_zgemm32_part2_lower_kernel_vbatchedPiPKPK18magmaDoubleComplexS_PPS0_ii
libmagma.so.2.8:_Z57__device_stub__triple_zgemm32_part2_upper_kernel_vbatchedPiPKPK18magmaDoubleComplexS_PPS0_ii
libmagma.so.2.8:_Z57__device_stub__triple_zgemm64_part1_lower_kernel_vbatchedPiPKPK18magmaDoubleComplexS_PPS0_ii
libmagma.so.2.8:_Z57__device_stub__triple_zgemm64_part1_upper_kernel_vbatchedPiPKPK18magmaDoubleComplexS_PPS0_ii
libmagma.so.2.8:_Z57__device_stub__triple_zgemm64_part2_lower_kernel_vbatchedPiPKPK18magmaDoubleComplexS_PPS0_ii
libmagma.so.2.8:_Z57__device_stub__triple_zgemm64_part2_upper_kernel_vbatchedPiPKPK18magmaDoubleComplexS_PPS0_ii
libmagma.so.2.8:_Z58__device_stub__magmablas_celementary_multiplication_kerneliP17magmaFloatComplexiiS0_iS0_i
libmagma.so.2.8:_Z58__device_stub__magmablas_delementary_multiplication_kerneliPdiiS_iS_i
libmagma.so.2.8:_Z58__device_stub__magmablas_selementary_multiplication_kerneliPfiiS_iS_i
libmagma.so.2.8:_Z58__device_stub__magmablas_zelementary_multiplication_kerneliP18magmaDoubleComplexiiS0_iS0_i
libmagma.so.2.8:_Z62__device_stub__triple_cgemm_above64_part1_lower_kernel_batchediPKPK17magmaFloatComplexiPPS_ii
libmagma.so.2.8:_Z62__device_stub__triple_cgemm_above64_part1_upper_kernel_batchediPKPK17magmaFloatComplexiPPS_ii
libmagma.so.2.8:_Z62__device_stub__triple_cgemm_above64_part2_lower_kernel_batchediPKPK17magmaFloatComplexiPPS_ii
libmagma.so.2.8:_Z62__device_stub__triple_cgemm_above64_part2_upper_kernel_batchediPKPK17magmaFloatComplexiPPS_ii
libmagma.so.2.8:_Z62__device_stub__triple_cgemm_above64_part3_lower_kernel_batchediPKPK17magmaFloatComplexiPPS_ii
libmagma.so.2.8:_Z62__device_stub__triple_cgemm_above64_part3_upper_kernel_batchediPKPK17magmaFloatComplexiPPS_ii
libmagma.so.2.8:_Z62__device_stub__triple_dgemm_above64_part1_lower_kernel_batchediPKPKdiPPdii
libmagma.so.2.8:_Z62__device_stub__triple_dgemm_above64_part1_upper_kernel_batchediPKPKdiPPdii
libmagma.so.2.8:_Z62__device_stub__triple_dgemm_above64_part2_lower_kernel_batchediPKPKdiPPdii
libmagma.so.2.8:_Z62__device_stub__triple_dgemm_above64_part2_upper_kernel_batchediPKPKdiPPdii
libmagma.so.2.8:_Z62__device_stub__triple_dgemm_above64_part3_lower_kernel_batchediPKPKdiPPdii
libmagma.so.2.8:_Z62__device_stub__triple_dgemm_above64_part3_upper_kernel_batchediPKPKdiPPdii
libmagma.so.2.8:_Z62__device_stub__triple_sgemm_above64_part1_lower_kernel_batchediPKPKfiPPfii
libmagma.so.2.8:_Z62__device_stub__triple_sgemm_above64_part1_upper_kernel_batchediPKPKfiPPfii
libmagma.so.2.8:_Z62__device_stub__triple_sgemm_above64_part2_lower_kernel_batchediPKPKfiPPfii
libmagma.so.2.8:_Z62__device_stub__triple_sgemm_above64_part2_upper_kernel_batchediPKPKfiPPfii
libmagma.so.2.8:_Z62__device_stub__triple_sgemm_above64_part3_lower_kernel_batchediPKPKfiPPfii
libmagma.so.2.8:_Z62__device_stub__triple_sgemm_above64_part3_upper_kernel_batchediPKPKfiPPfii
libmagma.so.2.8:_Z62__device_stub__triple_zgemm_above64_part1_lower_kernel_batchediPKPK18magmaDoubleComplexiPPS_ii
libmagma.so.2.8:_Z62__device_stub__triple_zgemm_above64_part1_upper_kernel_batchediPKPK18magmaDoubleComplexiPPS_ii
libmagma.so.2.8:_Z62__device_stub__triple_zgemm_above64_part2_lower_kernel_batchediPKPK18magmaDoubleComplexiPPS_ii
libmagma.so.2.8:_Z62__device_stub__triple_zgemm_above64_part2_upper_kernel_batchediPKPK18magmaDoubleComplexiPPS_ii
libmagma.so.2.8:_Z62__device_stub__triple_zgemm_above64_part3_lower_kernel_batchediPKPK18magmaDoubleComplexiPPS_ii
libmagma.so.2.8:_Z62__device_stub__triple_zgemm_above64_part3_upper_kernel_batchediPKPK18magmaDoubleComplexiPPS_ii
libmagma.so.2.8:_Z63__device_stub__magmablas_capply_transpose_vector_kernel_batchediP17magmaFloatComplexiPS0_i
libmagma.so.2.8:_Z63__device_stub__magmablas_dapply_transpose_vector_kernel_batchediPdiPS_i
libmagma.so.2.8:_Z63__device_stub__magmablas_sapply_transpose_vector_kernel_batchediPfiPS_i
libmagma.so.2.8:_Z63__device_stub__magmablas_zapply_transpose_vector_kernel_batchediP18magmaDoubleComplexiPS0_i
libmagma.so.2.8:_Z63__device_stub__triple_cgemm_above64_part1_lower_kernel_vbatchedPiPKPK17magmaFloatComplexS_PPS0_ii
libmagma.so.2.8:_Z63__device_stub__triple_cgemm_above64_part1_upper_kernel_vbatchedPiPKPK17magmaFloatComplexS_PPS0_ii
libmagma.so.2.8:_Z63__device_stub__triple_cgemm_above64_part2_lower_kernel_vbatchedPiPKPK17magmaFloatComplexS_PPS0_ii
libmagma.so.2.8:_Z63__device_stub__triple_cgemm_above64_part2_upper_kernel_vbatchedPiPKPK17magmaFloatComplexS_PPS0_ii
libmagma.so.2.8:_Z63__device_stub__triple_cgemm_above64_part3_lower_kernel_vbatchedPiPKPK17magmaFloatComplexS_PPS0_ii
libmagma.so.2.8:_Z63__device_stub__triple_cgemm_above64_part3_upper_kernel_vbatchedPiPKPK17magmaFloatComplexS_PPS0_ii
libmagma.so.2.8:_Z63__device_stub__triple_dgemm_above64_part1_lower_kernel_vbatchedPiPKPKdS_PPdii
libmagma.so.2.8:_Z63__device_stub__triple_dgemm_above64_part1_upper_kernel_vbatchedPiPKPKdS_PPdii
libmagma.so.2.8:_Z63__device_stub__triple_dgemm_above64_part2_lower_kernel_vbatchedPiPKPKdS_PPdii
libmagma.so.2.8:_Z63__device_stub__triple_dgemm_above64_part2_upper_kernel_vbatchedPiPKPKdS_PPdii
libmagma.so.2.8:_Z63__device_stub__triple_dgemm_above64_part3_lower_kernel_vbatchedPiPKPKdS_PPdii
libmagma.so.2.8:_Z63__device_stub__triple_dgemm_above64_part3_upper_kernel_vbatchedPiPKPKdS_PPdii
libmagma.so.2.8:_Z63__device_stub__triple_sgemm_above64_part1_lower_kernel_vbatchedPiPKPKfS_PPfii
libmagma.so.2.8:_Z63__device_stub__triple_sgemm_above64_part1_upper_kernel_vbatchedPiPKPKfS_PPfii
libmagma.so.2.8:_Z63__device_stub__triple_sgemm_above64_part2_lower_kernel_vbatchedPiPKPKfS_PPfii
libmagma.so.2.8:_Z63__device_stub__triple_sgemm_above64_part2_upper_kernel_vbatchedPiPKPKfS_PPfii
libmagma.so.2.8:_Z63__device_stub__triple_sgemm_above64_part3_lower_kernel_vbatchedPiPKPKfS_PPfii
libmagma.so.2.8:_Z63__device_stub__triple_sgemm_above64_part3_upper_kernel_vbatchedPiPKPKfS_PPfii
libmagma.so.2.8:_Z63__device_stub__triple_zgemm_above64_part1_lower_kernel_vbatchedPiPKPK18magmaDoubleComplexS_PPS0_ii
libmagma.so.2.8:_Z63__device_stub__triple_zgemm_above64_part1_upper_kernel_vbatchedPiPKPK18magmaDoubleComplexS_PPS0_ii
libmagma.so.2.8:_Z63__device_stub__triple_zgemm_above64_part2_lower_kernel_vbatchedPiPKPK18magmaDoubleComplexS_PPS0_ii
libmagma.so.2.8:_Z63__device_stub__triple_zgemm_above64_part2_upper_kernel_vbatchedPiPKPK18magmaDoubleComplexS_PPS0_ii
libmagma.so.2.8:_Z63__device_stub__triple_zgemm_above64_part3_lower_kernel_vbatchedPiPKPK18magmaDoubleComplexS_PPS0_ii
libmagma.so.2.8:_Z63__device_stub__triple_zgemm_above64_part3_upper_kernel_vbatchedPiPKPK18magmaDoubleComplexS_PPS0_ii
libmagma.so.2.8:_Z66__device_stub__magmablas_celementary_multiplication_kernel_batchediPP17magmaFloatComplexiiS0_iS0_i
libmagma.so.2.8:_Z66__device_stub__magmablas_delementary_multiplication_kernel_batchediPPdiiS_iS_i
libmagma.so.2.8:_Z66__device_stub__magmablas_selementary_multiplication_kernel_batchediPPfiiS_iS_i
libmagma.so.2.8:_Z66__device_stub__magmablas_zelementary_multiplication_kernel_batchediPP18magmaDoubleComplexiiS0_iS0_i
libmagma.so.2.8:_Z7cherk_d12magma_uplo_tii17magmaFloatComplexPS0_iS0_S1_iS1_i
libmagma.so.2.8:_Z7csyrk_d12magma_uplo_tii17magmaFloatComplexPS0_iS0_S1_iS1_i
libmagma.so.2.8:_Z7dsyrk_d12magma_uplo_tiidPdidS0_iS0_i
libmagma.so.2.8:_Z7ssyrk_d12magma_uplo_tiifPfifS0_iS0_i
libmagma.so.2.8:_Z7zherk_d12magma_uplo_tii18magmaDoubleComplexPS0_iS0_S1_iS1_i
libmagma.so.2.8:_Z7zsyrk_d12magma_uplo_tii18magmaDoubleComplexPS0_iS0_S1_iS1_i
libmagma.so.2.8:_ZN12affinity_set12get_affinityEv
libmagma.so.2.8:_ZN12affinity_set12set_affinityEv
libmagma.so.2.8:_ZN12affinity_set14print_affinityEiPKc
libmagma.so.2.8:_ZN12affinity_set3addEi
libmagma.so.2.8:_ZN12affinity_set9print_setEiPKc
libmagma.so.2.8:_ZN12affinity_setC1Ei
libmagma.so.2.8:_ZN12affinity_setC1Ev
libmagma.so.2.8:_ZN12affinity_setC2Ei
libmagma.so.2.8:_ZN12affinity_setC2Ev
libmagma.so.2.8:_ZN18magma_thread_queue4quitEv
libmagma.so.2.8:_ZN18magma_thread_queue4syncEv
libmagma.so.2.8:_ZN18magma_thread_queue6launchEi
libmagma.so.2.8:_ZN18magma_thread_queue8pop_taskEv
libmagma.so.2.8:_ZN18magma_thread_queue9push_taskEP10magma_task
libmagma.so.2.8:_ZN18magma_thread_queue9task_doneEv
libmagma.so.2.8:_ZN18magma_thread_queueC1Ev
libmagma.so.2.8:_ZN18magma_thread_queueC2Ev
libmagma.so.2.8:_ZN18magma_thread_queueD1Ev
libmagma.so.2.8:_ZN18magma_thread_queueD2Ev
libmagma.so.2.8:_ZNK18magma_thread_queue16get_thread_indexEm
libmagma.so.2.8:__device_stub__chemv_kernel_U
libmagma.so.2.8:__device_stub__chemv_kernel_U_mgpu
libmagma.so.2.8:__device_stub__chemv_kernel_U_mgpu_sum
libmagma.so.2.8:__device_stub__chemv_kernel_U_sum
libmagma.so.2.8:__device_stub__clange_fro_kernel
libmagma.so.2.8:__device_stub__clange_inf_kernel
libmagma.so.2.8:__device_stub__clange_max_kernel
libmagma.so.2.8:__device_stub__clange_one_kernel
libmagma.so.2.8:__device_stub__csymv_kernel_U
libmagma.so.2.8:__device_stub__csymv_kernel_U_sum
libmagma.so.2.8:__device_stub__dlange_fro_kernel
libmagma.so.2.8:__device_stub__dlange_inf_kernel
libmagma.so.2.8:__device_stub__dlange_max_kernel
libmagma.so.2.8:__device_stub__dlange_one_kernel
libmagma.so.2.8:__device_stub__dsymv_kernel_U
libmagma.so.2.8:__device_stub__dsymv_kernel_U_mgpu
libmagma.so.2.8:__device_stub__dsymv_kernel_U_mgpu_sum
libmagma.so.2.8:__device_stub__dsymv_kernel_U_sum
libmagma.so.2.8:__device_stub__magma_cgemv_kernel1
libmagma.so.2.8:__device_stub__magma_cgemv_kernel2
libmagma.so.2.8:__device_stub__magma_cgemv_kernel3
libmagma.so.2.8:__device_stub__magma_ctrmv_kernel
libmagma.so.2.8:__device_stub__magma_ctrmv_kernel2
libmagma.so.2.8:__device_stub__magma_ctrmv_tkernel
libmagma.so.2.8:__device_stub__magma_dgemv_kernel1
libmagma.so.2.8:__device_stub__magma_dgemv_kernel2
libmagma.so.2.8:__device_stub__magma_dgemv_kernel3
libmagma.so.2.8:__device_stub__magma_dnrm2_adjust_kernel
libmagma.so.2.8:__device_stub__magma_dtrmv_kernel
libmagma.so.2.8:__device_stub__magma_dtrmv_kernel2
libmagma.so.2.8:__device_stub__magma_dtrmv_tkernel
libmagma.so.2.8:__device_stub__magma_dznrm2_adjust_kernel
libmagma.so.2.8:__device_stub__magma_scnrm2_adjust_kernel
libmagma.so.2.8:__device_stub__magma_sgemv_kernel1
libmagma.so.2.8:__device_stub__magma_sgemv_kernel2
libmagma.so.2.8:__device_stub__magma_sgemv_kernel3
libmagma.so.2.8:__device_stub__magma_snrm2_adjust_kernel
libmagma.so.2.8:__device_stub__magma_strmv_kernel
libmagma.so.2.8:__device_stub__magma_strmv_kernel2
libmagma.so.2.8:__device_stub__magma_strmv_tkernel
libmagma.so.2.8:__device_stub__magma_zgemv_kernel1
libmagma.so.2.8:__device_stub__magma_zgemv_kernel2
libmagma.so.2.8:__device_stub__magma_zgemv_kernel3
libmagma.so.2.8:__device_stub__magma_ztrmv_kernel
libmagma.so.2.8:__device_stub__magma_ztrmv_kernel2
libmagma.so.2.8:__device_stub__magma_ztrmv_tkernel
libmagma.so.2.8:__device_stub__slange_fro_kernel
libmagma.so.2.8:__device_stub__slange_inf_kernel
libmagma.so.2.8:__device_stub__slange_max_kernel
libmagma.so.2.8:__device_stub__slange_one_kernel
libmagma.so.2.8:__device_stub__ssymv_kernel_U
libmagma.so.2.8:__device_stub__ssymv_kernel_U_mgpu
libmagma.so.2.8:__device_stub__ssymv_kernel_U_mgpu_sum
libmagma.so.2.8:__device_stub__ssymv_kernel_U_sum
libmagma.so.2.8:__device_stub__zhemv_kernel_U
libmagma.so.2.8:__device_stub__zhemv_kernel_U_mgpu
libmagma.so.2.8:__device_stub__zhemv_kernel_U_mgpu_sum
libmagma.so.2.8:__device_stub__zhemv_kernel_U_sum
libmagma.so.2.8:__device_stub__zlange_fro_kernel
libmagma.so.2.8:__device_stub__zlange_inf_kernel
libmagma.so.2.8:__device_stub__zlange_max_kernel
libmagma.so.2.8:__device_stub__zlange_one_kernel
libmagma.so.2.8:__device_stub__zsymv_kernel_U
libmagma.so.2.8:__device_stub__zsymv_kernel_U_sum
libmagma.so.2.8:__hip_cuid_101da3343f2e0d76
libmagma.so.2.8:__hip_cuid_10a5743ad547304a
libmagma.so.2.8:__hip_cuid_10a8bc49654c6d75
libmagma.so.2.8:__hip_cuid_10b090f7d9ed7e9f
libmagma.so.2.8:__hip_cuid_10f29243f02c6b71
libmagma.so.2.8:__hip_cuid_110d1ed272903ba7
libmagma.so.2.8:__hip_cuid_110d898997066419
libmagma.so.2.8:__hip_cuid_11134fd4f1a31f4c
libmagma.so.2.8:__hip_cuid_111d4fb4de885bc8
libmagma.so.2.8:__hip_cuid_117bf1b69ff6e2e2
libmagma.so.2.8:__hip_cuid_1190e70f796acb4f
libmagma.so.2.8:__hip_cuid_11990ed1081be3a4
libmagma.so.2.8:__hip_cuid_11b34611a19792f
libmagma.so.2.8:__hip_cuid_11c396fef6e88969
libmagma.so.2.8:__hip_cuid_12283a1ed9665b5e
libmagma.so.2.8:__hip_cuid_1230fb29a0f3b5af
libmagma.so.2.8:__hip_cuid_1251dfe43bb061ff
libmagma.so.2.8:__hip_cuid_12634d8c05e145dd
libmagma.so.2.8:__hip_cuid_128719239d941ae7
libmagma.so.2.8:__hip_cuid_12927b0f397ad447
libmagma.so.2.8:__hip_cuid_12f9a501d10121e0
libmagma.so.2.8:__hip_cuid_132c0903faf030cc
libmagma.so.2.8:__hip_cuid_1363aff95fbf0d53
libmagma.so.2.8:__hip_cuid_137d3b333c443938
libmagma.so.2.8:__hip_cuid_138e346a38932441
libmagma.so.2.8:__hip_cuid_13dfb7ea4b4a67b2
libmagma.so.2.8:__hip_cuid_1481e58356aaa818
libmagma.so.2.8:__hip_cuid_14bf358a4d744f42
libmagma.so.2.8:__hip_cuid_14d365d7b271b9c0
libmagma.so.2.8:__hip_cuid_14daa2c9410cdfdf
libmagma.so.2.8:__hip_cuid_14f3439970cc0261
libmagma.so.2.8:__hip_cuid_1515e41b31a43f30
libmagma.so.2.8:__hip_cuid_1530d476e15d2fba
libmagma.so.2.8:__hip_cuid_159e4a85c138c28e
libmagma.so.2.8:__hip_cuid_15c081b2af7d646b
libmagma.so.2.8:__hip_cuid_15cbe87a850a744
libmagma.so.2.8:__hip_cuid_15de59ba1f72df52
libmagma.so.2.8:__hip_cuid_15f6a4ef633f0405
libmagma.so.2.8:__hip_cuid_16055e64ae9d5994
libmagma.so.2.8:__hip_cuid_16124f5bc36913f8
libmagma.so.2.8:__hip_cuid_16295ead5290d46e
libmagma.so.2.8:__hip_cuid_163236596e6dbe67
libmagma.so.2.8:__hip_cuid_1641f628bada3dd5
libmagma.so.2.8:__hip_cuid_172f1288a5e33037
libmagma.so.2.8:__hip_cuid_17322e8d4dcd2440
libmagma.so.2.8:__hip_cuid_174bcb6c408d8298
libmagma.so.2.8:__hip_cuid_1788d1bd85fdbb4e
libmagma.so.2.8:__hip_cuid_17d77dd274d2af32
libmagma.so.2.8:__hip_cuid_17e8bab2366aa0ca
libmagma.so.2.8:__hip_cuid_17ed92346e639cf1
libmagma.so.2.8:__hip_cuid_184c8cb095e5b723
libmagma.so.2.8:__hip_cuid_18a2dc695b4a7406
libmagma.so.2.8:__hip_cuid_18c11a5ed6aa436c
libmagma.so.2.8:__hip_cuid_18c59d4ccea2626a
libmagma.so.2.8:__hip_cuid_18dc759422ffd279
libmagma.so.2.8:__hip_cuid_18e82fbe2beadc7e
libmagma.so.2.8:__hip_cuid_190a344a18ecc16c
libmagma.so.2.8:__hip_cuid_19e8ad61f06babca
libmagma.so.2.8:__hip_cuid_1a182659c29c4601
libmagma.so.2.8:__hip_cuid_1a466513bf36969b
libmagma.so.2.8:__hip_cuid_1a519dbe8c5cb9a
libmagma.so.2.8:__hip_cuid_1a70be6f0d29e603
libmagma.so.2.8:__hip_cuid_1aaf05fafeead1f4
libmagma.so.2.8:__hip_cuid_1ad4914a93216435
libmagma.so.2.8:__hip_cuid_1af1e41adce6a98e
libmagma.so.2.8:__hip_cuid_1b407a604cbed8cb
libmagma.so.2.8:__hip_cuid_1b5cfaa6d0897723
libmagma.so.2.8:__hip_cuid_1b64f40bd626375
libmagma.so.2.8:__hip_cuid_1bae2350bffd2927
libmagma.so.2.8:__hip_cuid_1bca03978a07d35e
libmagma.so.2.8:__hip_cuid_1bd695b50e492c8a
libmagma.so.2.8:__hip_cuid_1bd77a26d6fac8a5
libmagma.so.2.8:__hip_cuid_1bf11b8e4784799b
libmagma.so.2.8:__hip_cuid_1bfc214c87cd8c30
libmagma.so.2.8:__hip_cuid_1c565fe7bc76f45e
libmagma.so.2.8:__hip_cuid_1c85c059c226a858
libmagma.so.2.8:__hip_cuid_1d22e8caa1770ab8
libmagma.so.2.8:__hip_cuid_1d3cc587fc35cc69
libmagma.so.2.8:__hip_cuid_1d63c2729ef667b2
libmagma.so.2.8:__hip_cuid_1dc7b896e4735138
libmagma.so.2.8:__hip_cuid_1dcf92fa12937cc4
libmagma.so.2.8:__hip_cuid_1df173585aa9ab00
libmagma.so.2.8:__hip_cuid_1e3665082ee83ff
libmagma.so.2.8:__hip_cuid_1e56480315e7e314
libmagma.so.2.8:__hip_cuid_1ea342b56f4e2335
libmagma.so.2.8:__hip_cuid_1eb6201ab6c8c2e9
libmagma.so.2.8:__hip_cuid_1ee1aab1b1d9f5df
libmagma.so.2.8:__hip_cuid_1f29f943f921100d
libmagma.so.2.8:__hip_cuid_1f5c37fddc96d11b
libmagma.so.2.8:__hip_cuid_1f5f40f96bb20e75
libmagma.so.2.8:__hip_cuid_1f76897913c361e7
libmagma.so.2.8:__hip_cuid_1f8f5a13ef6d5e6e
libmagma.so.2.8:__hip_cuid_1fc3e3f7f0402612
libmagma.so.2.8:__hip_cuid_209e672b4b18c68c
libmagma.so.2.8:__hip_cuid_20b76750f77f5b21
libmagma.so.2.8:__hip_cuid_213cf0ec0a7bb6d0
libmagma.so.2.8:__hip_cuid_216fa81aaabc537f
libmagma.so.2.8:__hip_cuid_218f2f45b4093e13
libmagma.so.2.8:__hip_cuid_21a975e9a315aa94
libmagma.so.2.8:__hip_cuid_2268c1f4623f1467
libmagma.so.2.8:__hip_cuid_22799ca268763a5
libmagma.so.2.8:__hip_cuid_22babff14f5b80d
libmagma.so.2.8:__hip_cuid_22c6882ece608c84
libmagma.so.2.8:__hip_cuid_22cd96e772305413
libmagma.so.2.8:__hip_cuid_2338f7db6bd3eedc
libmagma.so.2.8:__hip_cuid_23462467b4ab88cf
libmagma.so.2.8:__hip_cuid_237d397a1a39a88b
libmagma.so.2.8:__hip_cuid_239c0fa7f4729881
libmagma.so.2.8:__hip_cuid_239d8727950b8196
libmagma.so.2.8:__hip_cuid_23d2e21e28adaade
libmagma.so.2.8:__hip_cuid_240721c224046188
libmagma.so.2.8:__hip_cuid_2413c421f6c0710c
libmagma.so.2.8:__hip_cuid_24151e80c5a05f5e
libmagma.so.2.8:__hip_cuid_248b6fdb4515bbc3
libmagma.so.2.8:__hip_cuid_24c9aca0e6b7589b
libmagma.so.2.8:__hip_cuid_24d988c87da8dc13
libmagma.so.2.8:__hip_cuid_2502255d6c2e25a0
libmagma.so.2.8:__hip_cuid_2516c8e3352191b6
libmagma.so.2.8:__hip_cuid_257084618b003a1e
libmagma.so.2.8:__hip_cuid_25a618dde7d00d14
libmagma.so.2.8:__hip_cuid_25bf2ae317ed2c2a
libmagma.so.2.8:__hip_cuid_25c0489aae3cab0d
libmagma.so.2.8:__hip_cuid_260829c94774d866
libmagma.so.2.8:__hip_cuid_261144fa43bb1635
libmagma.so.2.8:__hip_cuid_2622709acc6d92f3
libmagma.so.2.8:__hip_cuid_2624f8717de6d1be
libmagma.so.2.8:__hip_cuid_26299238063e4e3
libmagma.so.2.8:__hip_cuid_2642afa159ce0437
libmagma.so.2.8:__hip_cuid_266d461ebc6e2478
libmagma.so.2.8:__hip_cuid_267baf9fd2a1558f
libmagma.so.2.8:__hip_cuid_26ccafc9708c4fa1
libmagma.so.2.8:__hip_cuid_271eba99f48e6eb0
libmagma.so.2.8:__hip_cuid_27d905e4d1db126e
libmagma.so.2.8:__hip_cuid_284203bd0db41fcc
libmagma.so.2.8:__hip_cuid_285b346dee940c4d
libmagma.so.2.8:__hip_cuid_2866eaf553217ae0
libmagma.so.2.8:__hip_cuid_28a2f4e852d810b9
libmagma.so.2.8:__hip_cuid_28abf89b4953e8e0
libmagma.so.2.8:__hip_cuid_28ce1ee4bff3367b
libmagma.so.2.8:__hip_cuid_28e1898d13ca8767
libmagma.so.2.8:__hip_cuid_290325a8a44ca62b
libmagma.so.2.8:__hip_cuid_2905090e39a0b6dc
libmagma.so.2.8:__hip_cuid_29357b0ab5f23032
libmagma.so.2.8:__hip_cuid_2956ea5444283e2f
libmagma.so.2.8:__hip_cuid_296393b7be6613c2
libmagma.so.2.8:__hip_cuid_29a43d14e0228023
libmagma.so.2.8:__hip_cuid_29da7b9fb34f1a83
libmagma.so.2.8:__hip_cuid_29e4f7b66540469f
libmagma.so.2.8:__hip_cuid_29f7acf1655f40e5
libmagma.so.2.8:__hip_cuid_2a06a77bb23393dc
libmagma.so.2.8:__hip_cuid_2a2d587c8b9f71cd
libmagma.so.2.8:__hip_cuid_2a668edf9b2af012
libmagma.so.2.8:__hip_cuid_2a7dcd10e42289a3
libmagma.so.2.8:__hip_cuid_2a9bff0a421dd39f
libmagma.so.2.8:__hip_cuid_2aa6fbac7eb93608
libmagma.so.2.8:__hip_cuid_2aa7594ae30647a6
libmagma.so.2.8:__hip_cuid_2b322ebc0984fd84
libmagma.so.2.8:__hip_cuid_2b7e2ea02b1383b
libmagma.so.2.8:__hip_cuid_2b8bfadedbb5efb4
libmagma.so.2.8:__hip_cuid_2bceeb20562ba47c
libmagma.so.2.8:__hip_cuid_2bf9a67a242accda
libmagma.so.2.8:__hip_cuid_2c0a77cc16a6b01a
libmagma.so.2.8:__hip_cuid_2c17fbe4d675d542
libmagma.so.2.8:__hip_cuid_2c277412eff6d4e3
libmagma.so.2.8:__hip_cuid_2c2cd8004ff39d20
libmagma.so.2.8:__hip_cuid_2c6d20ae24427e75
libmagma.so.2.8:__hip_cuid_2c8d93cd261fc622
libmagma.so.2.8:__hip_cuid_2d3d2444f1aa21f5
libmagma.so.2.8:__hip_cuid_2d5bf3148f49fd7e
libmagma.so.2.8:__hip_cuid_2da4a2abc352cc86
libmagma.so.2.8:__hip_cuid_2de4f19ab0bfa756
libmagma.so.2.8:__hip_cuid_2df324e116d87ace
libmagma.so.2.8:__hip_cuid_2dffffdefe32310
libmagma.so.2.8:__hip_cuid_2e49f839c0767a7d
libmagma.so.2.8:__hip_cuid_2e750a909d1039b2
libmagma.so.2.8:__hip_cuid_2ebd3fae7c47b6c1
libmagma.so.2.8:__hip_cuid_2ee9d89a3a0240ca
libmagma.so.2.8:__hip_cuid_2f26ff6fb96b5b58
libmagma.so.2.8:__hip_cuid_2f2ef2fa4a973e79
libmagma.so.2.8:__hip_cuid_2f6d3516947e6182
libmagma.so.2.8:__hip_cuid_2f75a59fbffb39c4
libmagma.so.2.8:__hip_cuid_2f87a1d10c1af9ff
libmagma.so.2.8:__hip_cuid_2fd368f794171925
libmagma.so.2.8:__hip_cuid_2fe2e9a73a723a12
libmagma.so.2.8:__hip_cuid_3001ed0cb072be12
libmagma.so.2.8:__hip_cuid_304fb229f1819c3e
libmagma.so.2.8:__hip_cuid_3088bfc8bc1ce82b
libmagma.so.2.8:__hip_cuid_315d3ca64da92a18
libmagma.so.2.8:__hip_cuid_3162daf5358fe23f
libmagma.so.2.8:__hip_cuid_31b390b579a7bdbf
libmagma.so.2.8:__hip_cuid_31bb0de48878ec98
libmagma.so.2.8:__hip_cuid_31bf54e4c6496012
libmagma.so.2.8:__hip_cuid_31dbdfd20480b4ab
libmagma.so.2.8:__hip_cuid_31e071684307d8bc
libmagma.so.2.8:__hip_cuid_31f9848099c8219e
libmagma.so.2.8:__hip_cuid_32b0f4c51fed8514
libmagma.so.2.8:__hip_cuid_32b1572bb8055dbe
libmagma.so.2.8:__hip_cuid_32dc089c50738706
libmagma.so.2.8:__hip_cuid_32fac640bc2ebcf7
libmagma.so.2.8:__hip_cuid_3333dbc84b71431
libmagma.so.2.8:__hip_cuid_334e6320c01f130
libmagma.so.2.8:__hip_cuid_33709ccbf264db07
libmagma.so.2.8:__hip_cuid_33844b82a7d03221
libmagma.so.2.8:__hip_cuid_3394d46de1397eba
libmagma.so.2.8:__hip_cuid_33b6632a4aee6dae
libmagma.so.2.8:__hip_cuid_33e06a2b1902d4c8
libmagma.so.2.8:__hip_cuid_3421dff8c69ad0f3
libmagma.so.2.8:__hip_cuid_34230312c4ce9d
libmagma.so.2.8:__hip_cuid_342555aa13945c51
libmagma.so.2.8:__hip_cuid_344da6e1ed40aa95
libmagma.so.2.8:__hip_cuid_345b0a9cc87a68b2
libmagma.so.2.8:__hip_cuid_3494df89d8434fd6
libmagma.so.2.8:__hip_cuid_34a89e46792540fa
libmagma.so.2.8:__hip_cuid_34c0511ef7be1103
libmagma.so.2.8:__hip_cuid_3534ea98ea670dfb
libmagma.so.2.8:__hip_cuid_354b57f29ec5f7a7
libmagma.so.2.8:__hip_cuid_35911b4987a54ab9
libmagma.so.2.8:__hip_cuid_359a9e1863a097dd
libmagma.so.2.8:__hip_cuid_35c96a25b8f98a5f
libmagma.so.2.8:__hip_cuid_35db76b398f4894d
libmagma.so.2.8:__hip_cuid_35ed8de8f47fe990
libmagma.so.2.8:__hip_cuid_362071ceac5766d0
libmagma.so.2.8:__hip_cuid_36aad431886052cd
libmagma.so.2.8:__hip_cuid_36c0e386f10eb7d3
libmagma.so.2.8:__hip_cuid_36e4614057dbec00
libmagma.so.2.8:__hip_cuid_373a0891f2cd9592
libmagma.so.2.8:__hip_cuid_376f6426605671f6
libmagma.so.2.8:__hip_cuid_378d1e28a06906bb
libmagma.so.2.8:__hip_cuid_37cff9323d99bd3b
libmagma.so.2.8:__hip_cuid_37f8dff056929ad3
libmagma.so.2.8:__hip_cuid_38b3819a4fe41066
libmagma.so.2.8:__hip_cuid_38b996b81608643d
libmagma.so.2.8:__hip_cuid_38c9589363165892
libmagma.so.2.8:__hip_cuid_38d8d7cbefe30ece
libmagma.so.2.8:__hip_cuid_38ed73d931178629
libmagma.so.2.8:__hip_cuid_38fa2d86ff58d6f6
libmagma.so.2.8:__hip_cuid_3930158ed92ced3
libmagma.so.2.8:__hip_cuid_393d936e46915e03
libmagma.so.2.8:__hip_cuid_39b175c6d8b9672d
libmagma.so.2.8:__hip_cuid_39cc48b03983e409
libmagma.so.2.8:__hip_cuid_39cdadfcb5cda1d2
libmagma.so.2.8:__hip_cuid_39f20c814e46f682
libmagma.so.2.8:__hip_cuid_3a32ee4a0d147deb
libmagma.so.2.8:__hip_cuid_3a978e5df51b204c
libmagma.so.2.8:__hip_cuid_3ac971b59bd925c4
libmagma.so.2.8:__hip_cuid_3ad0c07cd8597742
libmagma.so.2.8:__hip_cuid_3add653947c6e9d2
libmagma.so.2.8:__hip_cuid_3b1db0f2e14b08de
libmagma.so.2.8:__hip_cuid_3b4d24f6187911bc
libmagma.so.2.8:__hip_cuid_3b7e69d813dcaad
libmagma.so.2.8:__hip_cuid_3b8c9b5955c473e
libmagma.so.2.8:__hip_cuid_3c047bbc305d587a
libmagma.so.2.8:__hip_cuid_3c0d38ba5bf23f96
libmagma.so.2.8:__hip_cuid_3c1b811068203232
libmagma.so.2.8:__hip_cuid_3c651a5e4bb3316b
libmagma.so.2.8:__hip_cuid_3c6ab1db2f2b6b4e
libmagma.so.2.8:__hip_cuid_3cba40024865c83f
libmagma.so.2.8:__hip_cuid_3cc04f3e42309e14
libmagma.so.2.8:__hip_cuid_3cee1f524c020639
libmagma.so.2.8:__hip_cuid_3cfb6adbaac69fd4
libmagma.so.2.8:__hip_cuid_3d06512d4c1ef87
libmagma.so.2.8:__hip_cuid_3d1d2bdea703c93b
libmagma.so.2.8:__hip_cuid_3d4c98829b4e26a9
libmagma.so.2.8:__hip_cuid_3d92a85484569df4
libmagma.so.2.8:__hip_cuid_3d93a7f277d440bd
libmagma.so.2.8:__hip_cuid_3dbd9987ee52fbf2
libmagma.so.2.8:__hip_cuid_3dcc48a5237b5fc6
libmagma.so.2.8:__hip_cuid_3dd49c86cad69dbb
libmagma.so.2.8:__hip_cuid_3dd7a0a8085ce993
libmagma.so.2.8:__hip_cuid_3e05f80ed90305f1
libmagma.so.2.8:__hip_cuid_3e518b2b758b0074
libmagma.so.2.8:__hip_cuid_3e56ec2db61d8a3e
libmagma.so.2.8:__hip_cuid_3e6f6e9d3af49c74
libmagma.so.2.8:__hip_cuid_3eb1997ff2e8e524
libmagma.so.2.8:__hip_cuid_3eb620a8c6255998
libmagma.so.2.8:__hip_cuid_3f0aca7865436600
libmagma.so.2.8:__hip_cuid_3fab075eff7e9c37
libmagma.so.2.8:__hip_cuid_3fab7f624d633bdd
libmagma.so.2.8:__hip_cuid_3fed11434693c4b9
libmagma.so.2.8:__hip_cuid_40b6bf301ed0dd81
libmagma.so.2.8:__hip_cuid_40c98c2736548728
libmagma.so.2.8:__hip_cuid_411c2902548d6c70
libmagma.so.2.8:__hip_cuid_4135d0ae9a08f342
libmagma.so.2.8:__hip_cuid_41bac071bfa3e6f6
libmagma.so.2.8:__hip_cuid_41bbce92115f1261
libmagma.so.2.8:__hip_cuid_41bfbcdabb7d637e
libmagma.so.2.8:__hip_cuid_41d73b525febad21
libmagma.so.2.8:__hip_cuid_41e6b509aca9063b
libmagma.so.2.8:__hip_cuid_420d5cf96e10f08f
libmagma.so.2.8:__hip_cuid_423a9158b1b08883
libmagma.so.2.8:__hip_cuid_423b2a1fd6877ccc
libmagma.so.2.8:__hip_cuid_424f53395b0a6b1b
libmagma.so.2.8:__hip_cuid_42a3679c313f1ae9
libmagma.so.2.8:__hip_cuid_42ea257bf9ee8cd0
libmagma.so.2.8:__hip_cuid_431f2784bb9e5714
libmagma.so.2.8:__hip_cuid_4340d84f705dcd42
libmagma.so.2.8:__hip_cuid_434133d31aced89f
libmagma.so.2.8:__hip_cuid_4350fe45e0f574d7
libmagma.so.2.8:__hip_cuid_438ce7e6db102057
libmagma.so.2.8:__hip_cuid_4390c942a89f718a
libmagma.so.2.8:__hip_cuid_43938b7b3f8dbb6e
libmagma.so.2.8:__hip_cuid_43a7cacc0b55941d
libmagma.so.2.8:__hip_cuid_43ad09406c6604a0
libmagma.so.2.8:__hip_cuid_43c0dcd0d02b7161
libmagma.so.2.8:__hip_cuid_43f2ef2aa3d6ad18
libmagma.so.2.8:__hip_cuid_441ba6bbf9d63fd0
libmagma.so.2.8:__hip_cuid_4424edc7a378749f
libmagma.so.2.8:__hip_cuid_449769c374f8706f
libmagma.so.2.8:__hip_cuid_4508be395118d453
libmagma.so.2.8:__hip_cuid_451b30757c69e70b
libmagma.so.2.8:__hip_cuid_4532c5f5e21a1712
libmagma.so.2.8:__hip_cuid_455ab48ff2746225
libmagma.so.2.8:__hip_cuid_458abe53a950e533
libmagma.so.2.8:__hip_cuid_45c074b865233318
libmagma.so.2.8:__hip_cuid_45d43a568504299d
libmagma.so.2.8:__hip_cuid_46105316913814b0
libmagma.so.2.8:__hip_cuid_463c36e7efe64952
libmagma.so.2.8:__hip_cuid_464708e85c35b102
libmagma.so.2.8:__hip_cuid_467864c62a893800
libmagma.so.2.8:__hip_cuid_469dccecf3f221a2
libmagma.so.2.8:__hip_cuid_46f8cce7bad75af9
libmagma.so.2.8:__hip_cuid_471978d920a249f2
libmagma.so.2.8:__hip_cuid_4728751fc2a9108e
libmagma.so.2.8:__hip_cuid_47379cb8da3fcc58
libmagma.so.2.8:__hip_cuid_47a16945fdb371e7
libmagma.so.2.8:__hip_cuid_47a53e4a177e146f
libmagma.so.2.8:__hip_cuid_47ab2fd54bb6b3e5
libmagma.so.2.8:__hip_cuid_47d4df16bef0681d
libmagma.so.2.8:__hip_cuid_4844d1ff334435d6
libmagma.so.2.8:__hip_cuid_4848f2ce081c62cf
libmagma.so.2.8:__hip_cuid_48516bfba3b07213
libmagma.so.2.8:__hip_cuid_4879fe9ef31daed7
libmagma.so.2.8:__hip_cuid_488e002b8b85851d
libmagma.so.2.8:__hip_cuid_48ae67dc8f41737d
libmagma.so.2.8:__hip_cuid_48b4bedd8edc3a61
libmagma.so.2.8:__hip_cuid_48d0ed4d93776dce
libmagma.so.2.8:__hip_cuid_48e79a3ce3b2c39f
libmagma.so.2.8:__hip_cuid_48f8604ae4a90e4d
libmagma.so.2.8:__hip_cuid_49049565873feebb
libmagma.so.2.8:__hip_cuid_492aca90b8db3406
libmagma.so.2.8:__hip_cuid_492c7a9f5cf61a20
libmagma.so.2.8:__hip_cuid_49dae59c33aaaffc
libmagma.so.2.8:__hip_cuid_49eaf0cfea4d1a82
libmagma.so.2.8:__hip_cuid_49eeaadff3f7e4ce
libmagma.so.2.8:__hip_cuid_49f8f8055c187191
libmagma.so.2.8:__hip_cuid_4a1f199cc07a903d
libmagma.so.2.8:__hip_cuid_4a59bfc1f66ff721
libmagma.so.2.8:__hip_cuid_4aa9eb55b578b235
libmagma.so.2.8:__hip_cuid_4ac2d92cf23fd74b
libmagma.so.2.8:__hip_cuid_4acbce357f48fb39
libmagma.so.2.8:__hip_cuid_4ad43204091bdf1
libmagma.so.2.8:__hip_cuid_4b8abb92cbfa196f
libmagma.so.2.8:__hip_cuid_4bb622d27d3663ce
libmagma.so.2.8:__hip_cuid_4c3e0c4974fec42b
libmagma.so.2.8:__hip_cuid_4c479916ec98a998
libmagma.so.2.8:__hip_cuid_4c5396c6fe9a4442
libmagma.so.2.8:__hip_cuid_4c5c98dc46cf82f3
libmagma.so.2.8:__hip_cuid_4c6424a768e69ace
libmagma.so.2.8:__hip_cuid_4c6c9759ae8432c1
libmagma.so.2.8:__hip_cuid_4c73ef94c243def7
libmagma.so.2.8:__hip_cuid_4c7515f11c2f15e9
libmagma.so.2.8:__hip_cuid_4c86cfe752cb75be
libmagma.so.2.8:__hip_cuid_4c88f8a077d15d55
libmagma.so.2.8:__hip_cuid_4cabb0dfd786c267
libmagma.so.2.8:__hip_cuid_4cf20e9960ae04f0
libmagma.so.2.8:__hip_cuid_4d0248dc963dc7c9
libmagma.so.2.8:__hip_cuid_4d1134a58b7f9b4
libmagma.so.2.8:__hip_cuid_4d7d96426a7a8d47
libmagma.so.2.8:__hip_cuid_4db550a77be47bd9
libmagma.so.2.8:__hip_cuid_4de7d4e2923d2896
libmagma.so.2.8:__hip_cuid_4e32c4fdff33cd22
libmagma.so.2.8:__hip_cuid_4e3fb3290ad3e58a
libmagma.so.2.8:__hip_cuid_4e40e1cde24e3d4d
libmagma.so.2.8:__hip_cuid_4e9911efe75ef6d4
libmagma.so.2.8:__hip_cuid_4f6b14308de03c0d
libmagma.so.2.8:__hip_cuid_4faed40e32768afb
libmagma.so.2.8:__hip_cuid_4ff0dca4fe3b25ed
libmagma.so.2.8:__hip_cuid_50442960041e4c3d
libmagma.so.2.8:__hip_cuid_50738f95ceecb6e
libmagma.so.2.8:__hip_cuid_50e89059c57af661
libmagma.so.2.8:__hip_cuid_51286aa606e363d1
libmagma.so.2.8:__hip_cuid_5143c8edfd3ebda7
libmagma.so.2.8:__hip_cuid_5187ab0015f2385
libmagma.so.2.8:__hip_cuid_51913bb185d2d7d6
libmagma.so.2.8:__hip_cuid_520c92072281f2d
libmagma.so.2.8:__hip_cuid_522bf2fa82732170
libmagma.so.2.8:__hip_cuid_5248e60a2936b9f3
libmagma.so.2.8:__hip_cuid_5255fa03deadeb03
libmagma.so.2.8:__hip_cuid_52ab2a251df04561
libmagma.so.2.8:__hip_cuid_52b97fbe7df8364c
libmagma.so.2.8:__hip_cuid_52d5a298f96e0912
libmagma.so.2.8:__hip_cuid_52eb3341ac8f4035
libmagma.so.2.8:__hip_cuid_530efe639879c2a
libmagma.so.2.8:__hip_cuid_5339ae041bb38e76
libmagma.so.2.8:__hip_cuid_536c74aae27983e3
libmagma.so.2.8:__hip_cuid_541f2bb3fb0616d9
libmagma.so.2.8:__hip_cuid_54c9c1a8889e6af7
libmagma.so.2.8:__hip_cuid_54ced4d612e8718
libmagma.so.2.8:__hip_cuid_55774c82ccb54984
libmagma.so.2.8:__hip_cuid_5584d84f058cc6ab
libmagma.so.2.8:__hip_cuid_559b804aa24e48b6
libmagma.so.2.8:__hip_cuid_55a60576ce7ee69e
libmagma.so.2.8:__hip_cuid_55c3e4dca5801029
libmagma.so.2.8:__hip_cuid_5668309f439f428a
libmagma.so.2.8:__hip_cuid_566948d3c2e1d5c9
libmagma.so.2.8:__hip_cuid_569644c70b7790c4
libmagma.so.2.8:__hip_cuid_56a6ec129686eb93
libmagma.so.2.8:__hip_cuid_56f3460a4bb697ff
libmagma.so.2.8:__hip_cuid_576d783b116ceb9
libmagma.so.2.8:__hip_cuid_577013531bb88997
libmagma.so.2.8:__hip_cuid_57b9b4e4c873c54c
libmagma.so.2.8:__hip_cuid_57ba568b3c0e7f42
libmagma.so.2.8:__hip_cuid_57ff50f3f818920c
libmagma.so.2.8:__hip_cuid_583f541d041a083a
libmagma.so.2.8:__hip_cuid_5841f0e0937dbe9f
libmagma.so.2.8:__hip_cuid_58648ea3a9780b4e
libmagma.so.2.8:__hip_cuid_587e93ad41d35560
libmagma.so.2.8:__hip_cuid_589cf7f25b96524e
libmagma.so.2.8:__hip_cuid_58a770674eccce9f
libmagma.so.2.8:__hip_cuid_58b626e76b716b84
libmagma.so.2.8:__hip_cuid_58b6b0fa8b6c4551
libmagma.so.2.8:__hip_cuid_591dec86c1930731
libmagma.so.2.8:__hip_cuid_59219fb3396f63a5
libmagma.so.2.8:__hip_cuid_5947c3085014279a
libmagma.so.2.8:__hip_cuid_597f7feec815867b
libmagma.so.2.8:__hip_cuid_598c68de2f9371b0
libmagma.so.2.8:__hip_cuid_599c221e27586102
libmagma.so.2.8:__hip_cuid_59faa511cc572a0d
libmagma.so.2.8:__hip_cuid_5a7310fbe4a3dd2a
libmagma.so.2.8:__hip_cuid_5a883e594b368632
libmagma.so.2.8:__hip_cuid_5aa1de8b3264fd3e
libmagma.so.2.8:__hip_cuid_5ac3643324ba3963
libmagma.so.2.8:__hip_cuid_5ade559570de7143
libmagma.so.2.8:__hip_cuid_5b019f40573633b2
libmagma.so.2.8:__hip_cuid_5b05aeebc555e800
libmagma.so.2.8:__hip_cuid_5b2f4ce446a1a4ae
libmagma.so.2.8:__hip_cuid_5b567cd7627c54ed
libmagma.so.2.8:__hip_cuid_5b96d8d984b8fb2e
libmagma.so.2.8:__hip_cuid_5ba0c2340d9f38d3
libmagma.so.2.8:__hip_cuid_5bad4fddc17afd1f
libmagma.so.2.8:__hip_cuid_5c3c78572dfa1fe8
libmagma.so.2.8:__hip_cuid_5c5af92419e53876
libmagma.so.2.8:__hip_cuid_5c65a9f6f5edeaf
libmagma.so.2.8:__hip_cuid_5c9da0519712bafb
libmagma.so.2.8:__hip_cuid_5cbef845edecae96
libmagma.so.2.8:__hip_cuid_5d06861b42400c54
libmagma.so.2.8:__hip_cuid_5d0fa48a7915c6c4
libmagma.so.2.8:__hip_cuid_5d36dad0a8d51aad
libmagma.so.2.8:__hip_cuid_5d44340474e82132
libmagma.so.2.8:__hip_cuid_5d6eac98ffc19f1a
libmagma.so.2.8:__hip_cuid_5def57a831d2e03e
libmagma.so.2.8:__hip_cuid_5e29c03844aded19
libmagma.so.2.8:__hip_cuid_5e2f89399f79a11c
libmagma.so.2.8:__hip_cuid_5e3d7c47cba87af6
libmagma.so.2.8:__hip_cuid_5e47e8b1ce07cbd0
libmagma.so.2.8:__hip_cuid_5e824c566bc22e42
libmagma.so.2.8:__hip_cuid_5e931d71ebafc5ff
libmagma.so.2.8:__hip_cuid_5eef6d70985f40ee
libmagma.so.2.8:__hip_cuid_5f4116fa3bfd1149
libmagma.so.2.8:__hip_cuid_5f5bd53cfe398b72
libmagma.so.2.8:__hip_cuid_5ffb91b5da9652c3
libmagma.so.2.8:__hip_cuid_60019c7437b3eca3
libmagma.so.2.8:__hip_cuid_6015363a7753cd7f
libmagma.so.2.8:__hip_cuid_601ebf63b2427faf
libmagma.so.2.8:__hip_cuid_60391fc2577ed300
libmagma.so.2.8:__hip_cuid_609b7baf3eb59ce2
libmagma.so.2.8:__hip_cuid_60bbd4342b9a71e9
libmagma.so.2.8:__hip_cuid_60f41b9b4bde2ff5
libmagma.so.2.8:__hip_cuid_60ff3b25061d2c48
libmagma.so.2.8:__hip_cuid_61059d4a14e63b8
libmagma.so.2.8:__hip_cuid_6197c2addbb9e73f
libmagma.so.2.8:__hip_cuid_61ae49aa8ce09fa1
libmagma.so.2.8:__hip_cuid_61c199fe20f703e5
libmagma.so.2.8:__hip_cuid_61dee7117a408cf4
libmagma.so.2.8:__hip_cuid_61e11a4fd5d955ee
libmagma.so.2.8:__hip_cuid_621a03f15e71a564
libmagma.so.2.8:__hip_cuid_62301f0bc3732035
libmagma.so.2.8:__hip_cuid_62397d0ca8c5a1b0
libmagma.so.2.8:__hip_cuid_624699470e098c3a
libmagma.so.2.8:__hip_cuid_627d96a213b609c4
libmagma.so.2.8:__hip_cuid_627dfd2c657288f5
libmagma.so.2.8:__hip_cuid_627e44b55f4ff975
libmagma.so.2.8:__hip_cuid_62882a536f0e8df
libmagma.so.2.8:__hip_cuid_62b84c04978e54b
libmagma.so.2.8:__hip_cuid_62c40b152a8b4f75
libmagma.so.2.8:__hip_cuid_635314212d430ade
libmagma.so.2.8:__hip_cuid_63546860da58dc69
libmagma.so.2.8:__hip_cuid_636696f84c10b962
libmagma.so.2.8:__hip_cuid_63b9e85ae8923753
libmagma.so.2.8:__hip_cuid_63cf3b767839ad71
libmagma.so.2.8:__hip_cuid_63f824a416f6728
libmagma.so.2.8:__hip_cuid_64319fd011324ff6
libmagma.so.2.8:__hip_cuid_646076154fb0ab1d
libmagma.so.2.8:__hip_cuid_64e44cc0b58b32d5
libmagma.so.2.8:__hip_cuid_65350dc40b47aaec
libmagma.so.2.8:__hip_cuid_65696e0af7ae55fe
libmagma.so.2.8:__hip_cuid_6570e79a4894f25b
libmagma.so.2.8:__hip_cuid_6572805839f5b745
libmagma.so.2.8:__hip_cuid_6577bd3f26630d02
libmagma.so.2.8:__hip_cuid_65a0249756a36af6
libmagma.so.2.8:__hip_cuid_65a333fea2b02f28
libmagma.so.2.8:__hip_cuid_65af9a67b013a1a3
libmagma.so.2.8:__hip_cuid_65bb7e72128ff66d
libmagma.so.2.8:__hip_cuid_66029a5249cf2d40
libmagma.so.2.8:__hip_cuid_661f30d51b28761a
libmagma.so.2.8:__hip_cuid_66500d21d01295cd
libmagma.so.2.8:__hip_cuid_6656563cbe5eb0bf
libmagma.so.2.8:__hip_cuid_66d3b2bdb21e263f
libmagma.so.2.8:__hip_cuid_66d711a6e67e406b
libmagma.so.2.8:__hip_cuid_671e574c6a2caf6e
libmagma.so.2.8:__hip_cuid_6730a14df91cea62
libmagma.so.2.8:__hip_cuid_675846741ed36eac
libmagma.so.2.8:__hip_cuid_675cef22da9149c3
libmagma.so.2.8:__hip_cuid_678f6801877e6b38
libmagma.so.2.8:__hip_cuid_67b4fe3eccd347c8
libmagma.so.2.8:__hip_cuid_67f48de77e86f7d
libmagma.so.2.8:__hip_cuid_67fa225ba8ce851a
libmagma.so.2.8:__hip_cuid_67fb0824202459e7
libmagma.so.2.8:__hip_cuid_67fb816eb27b090b
libmagma.so.2.8:__hip_cuid_6803f0e817b12424
libmagma.so.2.8:__hip_cuid_6810c502e34e6b5c
libmagma.so.2.8:__hip_cuid_6830aef74dd9fa2c
libmagma.so.2.8:__hip_cuid_684a3618b542f0fe
libmagma.so.2.8:__hip_cuid_68a69eede6e50bb0
libmagma.so.2.8:__hip_cuid_68a888b4bf46e88
libmagma.so.2.8:__hip_cuid_68b117f959214883
libmagma.so.2.8:__hip_cuid_68d4b53a04680878
libmagma.so.2.8:__hip_cuid_68f7a8ddad21ae1b
libmagma.so.2.8:__hip_cuid_6912f049322b4c77
libmagma.so.2.8:__hip_cuid_691465a02a9442c7
libmagma.so.2.8:__hip_cuid_69a3d92d69ff687e
libmagma.so.2.8:__hip_cuid_69ab8809c36da615
libmagma.so.2.8:__hip_cuid_69c3885fc6c63d0a
libmagma.so.2.8:__hip_cuid_69cafb813f666d62
libmagma.so.2.8:__hip_cuid_69f15597ad97f50
libmagma.so.2.8:__hip_cuid_6a58c9dba3125ce6
libmagma.so.2.8:__hip_cuid_6a785a68cab357cf
libmagma.so.2.8:__hip_cuid_6a96144f04e876d7
libmagma.so.2.8:__hip_cuid_6ade53ddc60938af
libmagma.so.2.8:__hip_cuid_6aec863c6a902dce
libmagma.so.2.8:__hip_cuid_6aee7a475caf8e48
libmagma.so.2.8:__hip_cuid_6b70ee9d79021af9
libmagma.so.2.8:__hip_cuid_6bce045ff3d5acdb
libmagma.so.2.8:__hip_cuid_6bdc41efcd8b6922
libmagma.so.2.8:__hip_cuid_6c1f5277fe46e130
libmagma.so.2.8:__hip_cuid_6c39dec063a48673
libmagma.so.2.8:__hip_cuid_6c8a826183e7189e
libmagma.so.2.8:__hip_cuid_6cb81ad9da9ac8f1
libmagma.so.2.8:__hip_cuid_6cd1291a19abfeee
libmagma.so.2.8:__hip_cuid_6d2c2a3fa7367a5a
libmagma.so.2.8:__hip_cuid_6d2dbfbd271f0fe8
libmagma.so.2.8:__hip_cuid_6d3da14ac8a2b013
libmagma.so.2.8:__hip_cuid_6d70096344e356f8
libmagma.so.2.8:__hip_cuid_6e047c05906bc790
libmagma.so.2.8:__hip_cuid_6e1d57f10d95f837
libmagma.so.2.8:__hip_cuid_6e34c5bec4ed82bd
libmagma.so.2.8:__hip_cuid_6edc9ae9576077e7
libmagma.so.2.8:__hip_cuid_6ede499798b6e48
libmagma.so.2.8:__hip_cuid_6ef7debb0a0d95ee
libmagma.so.2.8:__hip_cuid_6f1314dbe4435365
libmagma.so.2.8:__hip_cuid_6f87063b586e2df8
libmagma.so.2.8:__hip_cuid_6f89629dddde5a08
libmagma.so.2.8:__hip_cuid_6f97006fa8bcf860
libmagma.so.2.8:__hip_cuid_6fa5447d99b83307
libmagma.so.2.8:__hip_cuid_6fd2aa2402ea11e4
libmagma.so.2.8:__hip_cuid_6fe17f9f6fc710df
libmagma.so.2.8:__hip_cuid_6fe9f84e8b17774c
libmagma.so.2.8:__hip_cuid_6feea5f976df4423
libmagma.so.2.8:__hip_cuid_700d2f700ac5ecc6
libmagma.so.2.8:__hip_cuid_709c725958a5efc9
libmagma.so.2.8:__hip_cuid_70a7fe079a075b5e
libmagma.so.2.8:__hip_cuid_70c91f9b06f9cfc3
libmagma.so.2.8:__hip_cuid_7100e88d4859af4f
libmagma.so.2.8:__hip_cuid_7119d8d2328046e0
libmagma.so.2.8:__hip_cuid_7121453ccd6c526b
libmagma.so.2.8:__hip_cuid_713bbcbae3f6bf2a
libmagma.so.2.8:__hip_cuid_71643d84903dcefb
libmagma.so.2.8:__hip_cuid_7173cc9b86ba6fbc
libmagma.so.2.8:__hip_cuid_71ad1b101a2bfe56
libmagma.so.2.8:__hip_cuid_7217e8dacfd0e399
libmagma.so.2.8:__hip_cuid_726a69bc10f058e8
libmagma.so.2.8:__hip_cuid_72848e04918f70c6
libmagma.so.2.8:__hip_cuid_72a663a89fc5401
libmagma.so.2.8:__hip_cuid_72f593cb54d9ca2e
libmagma.so.2.8:__hip_cuid_73089f12813abc87
libmagma.so.2.8:__hip_cuid_7311d1b1fa885e07
libmagma.so.2.8:__hip_cuid_733d8c5c085a4836
libmagma.so.2.8:__hip_cuid_7360e98b0f3d6901
libmagma.so.2.8:__hip_cuid_73695eb51880d099
libmagma.so.2.8:__hip_cuid_73aee6b570323104
libmagma.so.2.8:__hip_cuid_73ff94398de5aacf
libmagma.so.2.8:__hip_cuid_7444794e0907ffc8
libmagma.so.2.8:__hip_cuid_745819412d5d6e5d
libmagma.so.2.8:__hip_cuid_74d2324e48fd4ad
libmagma.so.2.8:__hip_cuid_74e157218b152530
libmagma.so.2.8:__hip_cuid_753be3dd3fca54b7
libmagma.so.2.8:__hip_cuid_753cd018b20008e8
libmagma.so.2.8:__hip_cuid_7544e96893bbcb2c
libmagma.so.2.8:__hip_cuid_7555b33857b141ac
libmagma.so.2.8:__hip_cuid_755cd4b36a1252a2
libmagma.so.2.8:__hip_cuid_756e414fef40c2e5
libmagma.so.2.8:__hip_cuid_75957df5cccd9e9a
libmagma.so.2.8:__hip_cuid_759c0c36471fd0af
libmagma.so.2.8:__hip_cuid_75b3a1fcc1a121f7
libmagma.so.2.8:__hip_cuid_75b9c4b29c0331f
libmagma.so.2.8:__hip_cuid_7604eac863a05e82
libmagma.so.2.8:__hip_cuid_760db86386ef1160
libmagma.so.2.8:__hip_cuid_765fa92096f9644e
libmagma.so.2.8:__hip_cuid_76af2ac8dd0479d0
libmagma.so.2.8:__hip_cuid_76ea0c447223d3e5
libmagma.so.2.8:__hip_cuid_7727ad62b99f66bb
libmagma.so.2.8:__hip_cuid_772aea5b475301dc
libmagma.so.2.8:__hip_cuid_77690b5fc75e75df
libmagma.so.2.8:__hip_cuid_7772cf709da640bd
libmagma.so.2.8:__hip_cuid_77ac5f9f1553c5b3
libmagma.so.2.8:__hip_cuid_77e04d7de6bc61fc
libmagma.so.2.8:__hip_cuid_77f14d88cd81931a
libmagma.so.2.8:__hip_cuid_780d8376f6d2c9
libmagma.so.2.8:__hip_cuid_780ff91add838b0a
libmagma.so.2.8:__hip_cuid_7820e59c32bb90c7
libmagma.so.2.8:__hip_cuid_786912e2ea9b4fd1
libmagma.so.2.8:__hip_cuid_786fbef84fdcabc1
libmagma.so.2.8:__hip_cuid_78ad5c36a0b47b62
libmagma.so.2.8:__hip_cuid_79009171e4ac1148
libmagma.so.2.8:__hip_cuid_791b10fb2d20198
libmagma.so.2.8:__hip_cuid_79505d425d7d2960
libmagma.so.2.8:__hip_cuid_79818c26489eb6eb
libmagma.so.2.8:__hip_cuid_79aa39bfd50bce8e
libmagma.so.2.8:__hip_cuid_79ed780273792d29
libmagma.so.2.8:__hip_cuid_7a0bb4af6c599fa0
libmagma.so.2.8:__hip_cuid_7a33bfa4b49fa55
libmagma.so.2.8:__hip_cuid_7a4421cffbe3dea7
libmagma.so.2.8:__hip_cuid_7a4919ad1429897a
libmagma.so.2.8:__hip_cuid_7aac59061cc958b7
libmagma.so.2.8:__hip_cuid_7ae9ddba898abd1
libmagma.so.2.8:__hip_cuid_7b3704816feecdb0
libmagma.so.2.8:__hip_cuid_7b5972c4e8d98109
libmagma.so.2.8:__hip_cuid_7b7ac15bdb13bceb
libmagma.so.2.8:__hip_cuid_7bcf870bc3928857
libmagma.so.2.8:__hip_cuid_7bdbd2ee8ab4a131
libmagma.so.2.8:__hip_cuid_7bdde09c43ba0110
libmagma.so.2.8:__hip_cuid_7bf6e1fdb018d9fe
libmagma.so.2.8:__hip_cuid_7c100b6b5951c99a
libmagma.so.2.8:__hip_cuid_7c3aebb2fd85d2a4
libmagma.so.2.8:__hip_cuid_7c3e3702fb334bbd
libmagma.so.2.8:__hip_cuid_7c43cbead369a1d8
libmagma.so.2.8:__hip_cuid_7c78dd62cbb5bb59
libmagma.so.2.8:__hip_cuid_7c7bff72d4511aa8
libmagma.so.2.8:__hip_cuid_7c7c92a4907b16d0
libmagma.so.2.8:__hip_cuid_7d1803f202315768
libmagma.so.2.8:__hip_cuid_7d48a3e00591daf
libmagma.so.2.8:__hip_cuid_7daa8e4220856f4
libmagma.so.2.8:__hip_cuid_7e1590f12c5fe361
libmagma.so.2.8:__hip_cuid_7e47a0666a9e0f18
libmagma.so.2.8:__hip_cuid_7e936e6da44473b6
libmagma.so.2.8:__hip_cuid_7ea26de816a31a24
libmagma.so.2.8:__hip_cuid_7eadc59962df79e0
libmagma.so.2.8:__hip_cuid_7edffb782495e313
libmagma.so.2.8:__hip_cuid_7ef2e2510ad808b0
libmagma.so.2.8:__hip_cuid_7f107e2bf565bc89
libmagma.so.2.8:__hip_cuid_7f548e6bdbe5e247
libmagma.so.2.8:__hip_cuid_7f9bab37d18c416
libmagma.so.2.8:__hip_cuid_7fe4c8f364229389
libmagma.so.2.8:__hip_cuid_7fef7a7b8c4490e2
libmagma.so.2.8:__hip_cuid_816802aec920e09a
libmagma.so.2.8:__hip_cuid_81b3e17663dda9e1
libmagma.so.2.8:__hip_cuid_8201f85b7ae5249c
libmagma.so.2.8:__hip_cuid_820fcf93a6a70ad3
libmagma.so.2.8:__hip_cuid_823c91c9f4722a5
libmagma.so.2.8:__hip_cuid_825e1e8645c93d43
libmagma.so.2.8:__hip_cuid_828e5c3380158bf4
libmagma.so.2.8:__hip_cuid_82a4474605011010
libmagma.so.2.8:__hip_cuid_82a56e2239f8cf3
libmagma.so.2.8:__hip_cuid_82b7c430ca2c611e
libmagma.so.2.8:__hip_cuid_82d93424c0bd6bbb
libmagma.so.2.8:__hip_cuid_82f522b440bd53ae
libmagma.so.2.8:__hip_cuid_83326cf4882939e1
libmagma.so.2.8:__hip_cuid_8344f3bc9ac50f72
libmagma.so.2.8:__hip_cuid_83be9e9244b2de4e
libmagma.so.2.8:__hip_cuid_8494c91d70b7489a
libmagma.so.2.8:__hip_cuid_84b969f22d8a6159
libmagma.so.2.8:__hip_cuid_84bafb4306723052
libmagma.so.2.8:__hip_cuid_8502f2e3b8bbd902
libmagma.so.2.8:__hip_cuid_851529ffd7ace777
libmagma.so.2.8:__hip_cuid_853f890ab5f5f658
libmagma.so.2.8:__hip_cuid_854ead37ca507a6a
libmagma.so.2.8:__hip_cuid_8589c28d558469fa
libmagma.so.2.8:__hip_cuid_85c31b03d86cea34
libmagma.so.2.8:__hip_cuid_85cfadc1616fcf1e
libmagma.so.2.8:__hip_cuid_85f03c614b41ee
libmagma.so.2.8:__hip_cuid_861377c4f6f10b69
libmagma.so.2.8:__hip_cuid_8653e52f8714e74c
libmagma.so.2.8:__hip_cuid_867e7a2da22d01b4
libmagma.so.2.8:__hip_cuid_867e9c3d9dc9a674
libmagma.so.2.8:__hip_cuid_868d072c97718b96
libmagma.so.2.8:__hip_cuid_8690ce4c5c8e4b3e
libmagma.so.2.8:__hip_cuid_86af189840490f51
libmagma.so.2.8:__hip_cuid_86efceb99d60769b
libmagma.so.2.8:__hip_cuid_870fae01e8cae201
libmagma.so.2.8:__hip_cuid_8710a4b566b6fbe3
libmagma.so.2.8:__hip_cuid_8758e67bd89aa61
libmagma.so.2.8:__hip_cuid_8762c3d1a89a3576
libmagma.so.2.8:__hip_cuid_876de6b529dd00e2
libmagma.so.2.8:__hip_cuid_877118dff2575983
libmagma.so.2.8:__hip_cuid_87bb5c4a087822c0
libmagma.so.2.8:__hip_cuid_882bc698de650952
libmagma.so.2.8:__hip_cuid_885c3eb841617d06
libmagma.so.2.8:__hip_cuid_8888bcf173c4e7cb
libmagma.so.2.8:__hip_cuid_893cd7adbbe89a6d
libmagma.so.2.8:__hip_cuid_896165d4f636fa70
libmagma.so.2.8:__hip_cuid_896e1d7f015b8017
libmagma.so.2.8:__hip_cuid_896e82c927e05711
libmagma.so.2.8:__hip_cuid_8973c3f1b644cd4e
libmagma.so.2.8:__hip_cuid_898073fb8a4da64
libmagma.so.2.8:__hip_cuid_89b22d39e280a323
libmagma.so.2.8:__hip_cuid_89b84cce74482cb4
libmagma.so.2.8:__hip_cuid_89be360c178a91a8
libmagma.so.2.8:__hip_cuid_89dbd5d7b72145e6
libmagma.so.2.8:__hip_cuid_89e8a9f102e1be52
libmagma.so.2.8:__hip_cuid_89f3a56e837e5828
libmagma.so.2.8:__hip_cuid_89fb1eac076cff77
libmagma.so.2.8:__hip_cuid_8a1646a4131182ef
libmagma.so.2.8:__hip_cuid_8a89e72b1568f72f
libmagma.so.2.8:__hip_cuid_8a908f0ffdf41e80
libmagma.so.2.8:__hip_cuid_8a96d2c57f59877c
libmagma.so.2.8:__hip_cuid_8aaa3119985d39bb
libmagma.so.2.8:__hip_cuid_8ab9cd178b08bc7f
libmagma.so.2.8:__hip_cuid_8b1caa3cf6e1569b
libmagma.so.2.8:__hip_cuid_8b2a1f10d39b79b1
libmagma.so.2.8:__hip_cuid_8b63932d5fd43617
libmagma.so.2.8:__hip_cuid_8b8cbd674933027a
libmagma.so.2.8:__hip_cuid_8b9fcdca0227e33e
libmagma.so.2.8:__hip_cuid_8bd916bc8a7d5ca1
libmagma.so.2.8:__hip_cuid_8be361f4cf64f216
libmagma.so.2.8:__hip_cuid_8be9028474144e21
libmagma.so.2.8:__hip_cuid_8c003063f7b2ff8
libmagma.so.2.8:__hip_cuid_8c0ee59724889459
libmagma.so.2.8:__hip_cuid_8c103859db6990b8
libmagma.so.2.8:__hip_cuid_8c31a3c3a0cedd87
libmagma.so.2.8:__hip_cuid_8c5d47e3e9bc12ee
libmagma.so.2.8:__hip_cuid_8c8601a5c0de0e67
libmagma.so.2.8:__hip_cuid_8c9735e73f35386e
libmagma.so.2.8:__hip_cuid_8cb66424187e7ae3
libmagma.so.2.8:__hip_cuid_8cd75fa7a380a90d
libmagma.so.2.8:__hip_cuid_8cd993de09afb724
libmagma.so.2.8:__hip_cuid_8d068a6e7e0fcd66
libmagma.so.2.8:__hip_cuid_8d19898f6c8cbb8d
libmagma.so.2.8:__hip_cuid_8d334073ad809922
libmagma.so.2.8:__hip_cuid_8d8b5fcb35075f02
libmagma.so.2.8:__hip_cuid_8dbfc43372e872ad
libmagma.so.2.8:__hip_cuid_8de9048f19da8f95
libmagma.so.2.8:__hip_cuid_8e600b01991c59e3
libmagma.so.2.8:__hip_cuid_8e63e987a1e1d6f9
libmagma.so.2.8:__hip_cuid_8e91c2dca54f0f81
libmagma.so.2.8:__hip_cuid_8ec793a0bcd9a287
libmagma.so.2.8:__hip_cuid_8f0da6cce87fc60c
libmagma.so.2.8:__hip_cuid_8f21867310528879
libmagma.so.2.8:__hip_cuid_8f457f50ed724e5d
libmagma.so.2.8:__hip_cuid_8fed04ce44e5610f
libmagma.so.2.8:__hip_cuid_8ff44b402dd79b43
libmagma.so.2.8:__hip_cuid_90363c4eedefaf1a
libmagma.so.2.8:__hip_cuid_9051b570ae684eef
libmagma.so.2.8:__hip_cuid_9070c6d92fe2c791
libmagma.so.2.8:__hip_cuid_907a5a207f50dac
libmagma.so.2.8:__hip_cuid_9084cec1859de291
libmagma.so.2.8:__hip_cuid_90e4ac37fd1ded7
libmagma.so.2.8:__hip_cuid_90f4b66ea85bd538
libmagma.so.2.8:__hip_cuid_90ff54b0e7b3b90e
libmagma.so.2.8:__hip_cuid_913fa0884dda0a7
libmagma.so.2.8:__hip_cuid_915178aa6dc76617
libmagma.so.2.8:__hip_cuid_91c5378062ffc1ef
libmagma.so.2.8:__hip_cuid_91c7e0f4e9073587
libmagma.so.2.8:__hip_cuid_91e9155e1485572e
libmagma.so.2.8:__hip_cuid_921fb677cb62e7a8
libmagma.so.2.8:__hip_cuid_925e4371e5087518
libmagma.so.2.8:__hip_cuid_928a1aab91d35522
libmagma.so.2.8:__hip_cuid_92944397cb44997b
libmagma.so.2.8:__hip_cuid_9300e642a07a7b92
libmagma.so.2.8:__hip_cuid_93503936950b2083
libmagma.so.2.8:__hip_cuid_943c7934822881ff
libmagma.so.2.8:__hip_cuid_944e68b2e5ccbf0d
libmagma.so.2.8:__hip_cuid_94900f5ee4366341
libmagma.so.2.8:__hip_cuid_94ac5df20dd0fc87
libmagma.so.2.8:__hip_cuid_94b19b44f941449e
libmagma.so.2.8:__hip_cuid_94bb7ede9665a4c0
libmagma.so.2.8:__hip_cuid_94e34cb4b9b7df30
libmagma.so.2.8:__hip_cuid_94eb959a631e389a
libmagma.so.2.8:__hip_cuid_950682fda5c582c5
libmagma.so.2.8:__hip_cuid_952f29de2863831f
libmagma.so.2.8:__hip_cuid_95654f741b2718a4
libmagma.so.2.8:__hip_cuid_957e94443cd26f9f
libmagma.so.2.8:__hip_cuid_959a91127f473a9
libmagma.so.2.8:__hip_cuid_95d62c1289d88164
libmagma.so.2.8:__hip_cuid_95e76221a50beb31
libmagma.so.2.8:__hip_cuid_968b08b8b68eac32
libmagma.so.2.8:__hip_cuid_969f79c1b6200cae
libmagma.so.2.8:__hip_cuid_96a96015c3bbab16
libmagma.so.2.8:__hip_cuid_96d9d386dd39ef04
libmagma.so.2.8:__hip_cuid_9717434cd5d022a8
libmagma.so.2.8:__hip_cuid_97456d8e70442522
libmagma.so.2.8:__hip_cuid_97570e452321daa6
libmagma.so.2.8:__hip_cuid_976fac460a9483e0
libmagma.so.2.8:__hip_cuid_9786df8f16f35e3
libmagma.so.2.8:__hip_cuid_97b72cb26fbe3f22
libmagma.so.2.8:__hip_cuid_98801ad8f1982477
libmagma.so.2.8:__hip_cuid_98b347d346580d70
libmagma.so.2.8:__hip_cuid_995bc11fd1c9e805
libmagma.so.2.8:__hip_cuid_9966817054072ce
libmagma.so.2.8:__hip_cuid_99774b73532194d4
libmagma.so.2.8:__hip_cuid_99bde9fba894a2cd
libmagma.so.2.8:__hip_cuid_99d4a79efaaf8135
libmagma.so.2.8:__hip_cuid_99efaecfee57c7e4
libmagma.so.2.8:__hip_cuid_99ff39c33fdd1472
libmagma.so.2.8:__hip_cuid_9a14740fff9e4fc6
libmagma.so.2.8:__hip_cuid_9a296c47b84a3f2f
libmagma.so.2.8:__hip_cuid_9a45cfccfbad2777
libmagma.so.2.8:__hip_cuid_9a4e5157b49b4195
libmagma.so.2.8:__hip_cuid_9b3e21f64ba5735b
libmagma.so.2.8:__hip_cuid_9c17441070ae86eb
libmagma.so.2.8:__hip_cuid_9c195143b60e6380
libmagma.so.2.8:__hip_cuid_9c5804e5f678ee53
libmagma.so.2.8:__hip_cuid_9c5a0613f7025deb
libmagma.so.2.8:__hip_cuid_9c5de3706e9c7270
libmagma.so.2.8:__hip_cuid_9c64f4765c1d72ae
libmagma.so.2.8:__hip_cuid_9c9b1c31fe15b422
libmagma.so.2.8:__hip_cuid_9cb7f77b462460f5
libmagma.so.2.8:__hip_cuid_9ce7a7bd49c0cc4d
libmagma.so.2.8:__hip_cuid_9db6245e5934d7d8
libmagma.so.2.8:__hip_cuid_9dca5af524ed7c8f
libmagma.so.2.8:__hip_cuid_9dd9314a95110327
libmagma.so.2.8:__hip_cuid_9dfc2ad09e8dd859
libmagma.so.2.8:__hip_cuid_9e02042d7988a002
libmagma.so.2.8:__hip_cuid_9e558a289dd23167
libmagma.so.2.8:__hip_cuid_9e9407bc3e8c438a
libmagma.so.2.8:__hip_cuid_9e9d0cbe90834366
libmagma.so.2.8:__hip_cuid_9eac54f888027151
libmagma.so.2.8:__hip_cuid_9ed6e4d926c3678b
libmagma.so.2.8:__hip_cuid_9ede3f155a090b6f
libmagma.so.2.8:__hip_cuid_9f319c1397bbf74
libmagma.so.2.8:__hip_cuid_9f384caf445be9a3
libmagma.so.2.8:__hip_cuid_9f64dcf81cc6ab3f
libmagma.so.2.8:__hip_cuid_9f68bd6effdd2378
libmagma.so.2.8:__hip_cuid_9ff71617b2b918b5
libmagma.so.2.8:__hip_cuid_a00a5155d511294f
libmagma.so.2.8:__hip_cuid_a018843c024444f8
libmagma.so.2.8:__hip_cuid_a01ae2aef3ac317f
libmagma.so.2.8:__hip_cuid_a0508369a59b0946
libmagma.so.2.8:__hip_cuid_a087ae0023ac9516
libmagma.so.2.8:__hip_cuid_a09ee82e6d685f5
libmagma.so.2.8:__hip_cuid_a12f69332d725c3c
libmagma.so.2.8:__hip_cuid_a13c3267e13a418e
libmagma.so.2.8:__hip_cuid_a15cf31bbabacab
libmagma.so.2.8:__hip_cuid_a1841bcb7d90949a
libmagma.so.2.8:__hip_cuid_a192e5c4928108ce
libmagma.so.2.8:__hip_cuid_a1a1541fb19704e4
libmagma.so.2.8:__hip_cuid_a1a467f7f0113b02
libmagma.so.2.8:__hip_cuid_a1c5c926c7c83e7
libmagma.so.2.8:__hip_cuid_a1c7a4892547502b
libmagma.so.2.8:__hip_cuid_a1db85787999cb58
libmagma.so.2.8:__hip_cuid_a1ee228b62c86670
libmagma.so.2.8:__hip_cuid_a20abc55124d1d79
libmagma.so.2.8:__hip_cuid_a24ca75367fb39d1
libmagma.so.2.8:__hip_cuid_a26b7e6a50df8ffd
libmagma.so.2.8:__hip_cuid_a274fad7c21c77c
libmagma.so.2.8:__hip_cuid_a284c088a8be6a4c
libmagma.so.2.8:__hip_cuid_a287a9ea0b097d61
libmagma.so.2.8:__hip_cuid_a2d33b5259bd0b98
libmagma.so.2.8:__hip_cuid_a2fae0ef07046630
libmagma.so.2.8:__hip_cuid_a37caab82e70660f
libmagma.so.2.8:__hip_cuid_a39b69ca0f21d353
libmagma.so.2.8:__hip_cuid_a3d8645deb049166
libmagma.so.2.8:__hip_cuid_a3ff59be363669e1
libmagma.so.2.8:__hip_cuid_a409743bb0462c2b
libmagma.so.2.8:__hip_cuid_a43aadf157c35cbb
libmagma.so.2.8:__hip_cuid_a49e87bb6467b88d
libmagma.so.2.8:__hip_cuid_a4bb730a465034f0
libmagma.so.2.8:__hip_cuid_a4f0eecfd468a116
libmagma.so.2.8:__hip_cuid_a5029742655eaeb
libmagma.so.2.8:__hip_cuid_a5073cb681e8c08c
libmagma.so.2.8:__hip_cuid_a514e95be37c67b3
libmagma.so.2.8:__hip_cuid_a518ac20ff9ff21a
libmagma.so.2.8:__hip_cuid_a57de3a22b1d71d1
libmagma.so.2.8:__hip_cuid_a58d4354f34b731e
libmagma.so.2.8:__hip_cuid_a59552ade5c35659
libmagma.so.2.8:__hip_cuid_a595da9dfec9e5af
libmagma.so.2.8:__hip_cuid_a5a35a2e1d1e8262
libmagma.so.2.8:__hip_cuid_a5cb8868801e6fb5
libmagma.so.2.8:__hip_cuid_a5fd30622bbf14f3
libmagma.so.2.8:__hip_cuid_a680ada4c277abf9
libmagma.so.2.8:__hip_cuid_a6b68e5e4e76f059
libmagma.so.2.8:__hip_cuid_a6df3c70e0ab79f8
libmagma.so.2.8:__hip_cuid_a6ef938a88be4e10
libmagma.so.2.8:__hip_cuid_a6f9d0310f02a941
libmagma.so.2.8:__hip_cuid_a6fd935b33dd0aca
libmagma.so.2.8:__hip_cuid_a70dcb391d41a8fe
libmagma.so.2.8:__hip_cuid_a76fa9eb9d883cc3
libmagma.so.2.8:__hip_cuid_a76fb0d13472e10c
libmagma.so.2.8:__hip_cuid_a7a1adffaaca10e3
libmagma.so.2.8:__hip_cuid_a82b480352d01b96
libmagma.so.2.8:__hip_cuid_a87c15a3fdd39fe9
libmagma.so.2.8:__hip_cuid_a8cad4518969bdde
libmagma.so.2.8:__hip_cuid_a8d6873a43aaf6a4
libmagma.so.2.8:__hip_cuid_a91b828e8d01ca29
libmagma.so.2.8:__hip_cuid_a925890020b8a604
libmagma.so.2.8:__hip_cuid_a954443f615c99dc
libmagma.so.2.8:__hip_cuid_a97bfaf8d4ad940e
libmagma.so.2.8:__hip_cuid_a9bf88a653e237cd
libmagma.so.2.8:__hip_cuid_a9e378ee3309f867
libmagma.so.2.8:__hip_cuid_a9ee501f9a5fa75d
libmagma.so.2.8:__hip_cuid_aa00caff9f445933
libmagma.so.2.8:__hip_cuid_aa040904d404e496
libmagma.so.2.8:__hip_cuid_aa4103771f83db80
libmagma.so.2.8:__hip_cuid_aa4e7cf5a95b46f5
libmagma.so.2.8:__hip_cuid_aa98e41eb934157c
libmagma.so.2.8:__hip_cuid_aae92b4bd7d6101c
libmagma.so.2.8:__hip_cuid_ab424c6ab74d8619
libmagma.so.2.8:__hip_cuid_ab5705fd496217ab
libmagma.so.2.8:__hip_cuid_ab908ba66d6deeb2
libmagma.so.2.8:__hip_cuid_aba80a3f60b41670
libmagma.so.2.8:__hip_cuid_abbeedd61423b696
libmagma.so.2.8:__hip_cuid_abccbff9ebbc3822
libmagma.so.2.8:__hip_cuid_abcffe356a764b2f
libmagma.so.2.8:__hip_cuid_ac4956d12b1bb3d9
libmagma.so.2.8:__hip_cuid_ac4f3dc595deb414
libmagma.so.2.8:__hip_cuid_accc04f9ce80b9fa
libmagma.so.2.8:__hip_cuid_ace5132a8b315a52
libmagma.so.2.8:__hip_cuid_acf87e67895680f0
libmagma.so.2.8:__hip_cuid_ad95ec776cefd141
libmagma.so.2.8:__hip_cuid_ad96370033dfb9c5
libmagma.so.2.8:__hip_cuid_ada2b3258ce7b9a
libmagma.so.2.8:__hip_cuid_adf9619a9136751b
libmagma.so.2.8:__hip_cuid_adfae94ed7911b1
libmagma.so.2.8:__hip_cuid_ae0d069ea6bc3709
libmagma.so.2.8:__hip_cuid_ae481e38d6f9a699
libmagma.so.2.8:__hip_cuid_ae58d8083c1a73d
libmagma.so.2.8:__hip_cuid_ae708202e3f05e1e
libmagma.so.2.8:__hip_cuid_aeaa51178c9821fe
libmagma.so.2.8:__hip_cuid_aebb74d8eb5cd2f8
libmagma.so.2.8:__hip_cuid_af0e9decdc2e8b61
libmagma.so.2.8:__hip_cuid_af292b0e27ef683a
libmagma.so.2.8:__hip_cuid_af4894088b3dedba
libmagma.so.2.8:__hip_cuid_af57bad7a53d9929
libmagma.so.2.8:__hip_cuid_af64f9c482ef3856
libmagma.so.2.8:__hip_cuid_af6aa125c452ce6d
libmagma.so.2.8:__hip_cuid_af73a44c62e9aa09
libmagma.so.2.8:__hip_cuid_af7554384bc47f9a
libmagma.so.2.8:__hip_cuid_af7b8a2368cb9136
libmagma.so.2.8:__hip_cuid_af896c13ecdf7f62
libmagma.so.2.8:__hip_cuid_af8d13ea3822a69c
libmagma.so.2.8:__hip_cuid_afd60a8d7ddabc55
libmagma.so.2.8:__hip_cuid_aff738a668c6b15e
libmagma.so.2.8:__hip_cuid_b01232854fa0183a
libmagma.so.2.8:__hip_cuid_b01f2f479a7d96a6
libmagma.so.2.8:__hip_cuid_b079f87305fc89ab
libmagma.so.2.8:__hip_cuid_b0c4670646ef41d
libmagma.so.2.8:__hip_cuid_b1160b77a98e4af0
libmagma.so.2.8:__hip_cuid_b1383c9c014993e0
libmagma.so.2.8:__hip_cuid_b16f4230995d79ed
libmagma.so.2.8:__hip_cuid_b182edfbb74001af
libmagma.so.2.8:__hip_cuid_b18a1fbff4d1e822
libmagma.so.2.8:__hip_cuid_b1f3d70c3b5c7ec0
libmagma.so.2.8:__hip_cuid_b1fe3103470412e6
libmagma.so.2.8:__hip_cuid_b24d79f36e731238
libmagma.so.2.8:__hip_cuid_b259a4f18023bb02
libmagma.so.2.8:__hip_cuid_b297017aae600209
libmagma.so.2.8:__hip_cuid_b2a784dc879afb2e
libmagma.so.2.8:__hip_cuid_b2fc936ad286e6b1
libmagma.so.2.8:__hip_cuid_b3b478d629c0fda
libmagma.so.2.8:__hip_cuid_b3b894ac14a9de66
libmagma.so.2.8:__hip_cuid_b3c29131ee6297e5
libmagma.so.2.8:__hip_cuid_b3d720a352e8126a
libmagma.so.2.8:__hip_cuid_b3e3e1bb26234bae
libmagma.so.2.8:__hip_cuid_b41124aaeca16ffd
libmagma.so.2.8:__hip_cuid_b439a99a18d100d0
libmagma.so.2.8:__hip_cuid_b4558a1fdcd1810c
libmagma.so.2.8:__hip_cuid_b4a70cc430d9bf49
libmagma.so.2.8:__hip_cuid_b4aa0b5cef15799b
libmagma.so.2.8:__hip_cuid_b548a3dfcfb10452
libmagma.so.2.8:__hip_cuid_b57578754eded686
libmagma.so.2.8:__hip_cuid_b58c0e505d69f520
libmagma.so.2.8:__hip_cuid_b5a1996aef377d5a
libmagma.so.2.8:__hip_cuid_b5b87db7a92b75d
libmagma.so.2.8:__hip_cuid_b5dfef23a96e57a2
libmagma.so.2.8:__hip_cuid_b5e4782cf6fe2199
libmagma.so.2.8:__hip_cuid_b60419f71480ee3c
libmagma.so.2.8:__hip_cuid_b6334b23f9fb1907
libmagma.so.2.8:__hip_cuid_b6482a7fe5453b05
libmagma.so.2.8:__hip_cuid_b651099a00ffa2e6
libmagma.so.2.8:__hip_cuid_b67a979f04c63943
libmagma.so.2.8:__hip_cuid_b680c2a3ba4e45dc
libmagma.so.2.8:__hip_cuid_b68caf21157d3b73
libmagma.so.2.8:__hip_cuid_b6ad2d12a59d44c7
libmagma.so.2.8:__hip_cuid_b6f5ab68efef40b2
libmagma.so.2.8:__hip_cuid_b702ecd9cc2d1ba3
libmagma.so.2.8:__hip_cuid_b72d24d4302c8710
libmagma.so.2.8:__hip_cuid_b77ec3115d578c48
libmagma.so.2.8:__hip_cuid_b77f1c4cdfad4048
libmagma.so.2.8:__hip_cuid_b79cd3b35fb9d719
libmagma.so.2.8:__hip_cuid_b81b8de18f78780
libmagma.so.2.8:__hip_cuid_b8418f9186d4845
libmagma.so.2.8:__hip_cuid_b84a2311659cbcf4
libmagma.so.2.8:__hip_cuid_b871408c1e4f1e49
libmagma.so.2.8:__hip_cuid_b879bbf770f3f647
libmagma.so.2.8:__hip_cuid_b8c745fb896bc8d1
libmagma.so.2.8:__hip_cuid_b8dd395e94fc91f7
libmagma.so.2.8:__hip_cuid_b9069258ebdb0a9
libmagma.so.2.8:__hip_cuid_b92217984bd3a15f
libmagma.so.2.8:__hip_cuid_b933d4ad1c5af1b7
libmagma.so.2.8:__hip_cuid_b9436b2899e234ea
libmagma.so.2.8:__hip_cuid_b95fd0066bb946e9
libmagma.so.2.8:__hip_cuid_b9af5e9a2793ef55
libmagma.so.2.8:__hip_cuid_b9d696c3ef3a548
libmagma.so.2.8:__hip_cuid_ba0e0a6183d3d25e
libmagma.so.2.8:__hip_cuid_ba134558dea92a08
libmagma.so.2.8:__hip_cuid_ba3763353292fffb
libmagma.so.2.8:__hip_cuid_ba3c81fcd47d2deb
libmagma.so.2.8:__hip_cuid_ba552828a2de3049
libmagma.so.2.8:__hip_cuid_ba5e99c4a3c94599
libmagma.so.2.8:__hip_cuid_baa899d44450f43e
libmagma.so.2.8:__hip_cuid_bab3fd4e36c3c59a
libmagma.so.2.8:__hip_cuid_bad7753c6ee13726
libmagma.so.2.8:__hip_cuid_bb2ae838a951b20d
libmagma.so.2.8:__hip_cuid_bb3f749407eb1799
libmagma.so.2.8:__hip_cuid_bbad597ee4e05418
libmagma.so.2.8:__hip_cuid_bbe8001530c1bbb
libmagma.so.2.8:__hip_cuid_bbf2ce6a918c6157
libmagma.so.2.8:__hip_cuid_bbf42eb24acef41a
libmagma.so.2.8:__hip_cuid_bc34cf144ac89011
libmagma.so.2.8:__hip_cuid_bc8f587c17c054a0
libmagma.so.2.8:__hip_cuid_bcb11312fdc07fea
libmagma.so.2.8:__hip_cuid_bd7655e995ddab5f
libmagma.so.2.8:__hip_cuid_bd933d033d15a2d2
libmagma.so.2.8:__hip_cuid_bd954be11996bc62
libmagma.so.2.8:__hip_cuid_be14b8eece539950
libmagma.so.2.8:__hip_cuid_be1a08da3189a1a9
libmagma.so.2.8:__hip_cuid_be56066da46decc9
libmagma.so.2.8:__hip_cuid_be66327de38c8155
libmagma.so.2.8:__hip_cuid_be7fe68f3f00189b
libmagma.so.2.8:__hip_cuid_bf27508abb54f706
libmagma.so.2.8:__hip_cuid_bf377f2b72d10a8f
libmagma.so.2.8:__hip_cuid_bf9569ae5625fc28
libmagma.so.2.8:__hip_cuid_c0238f21891751e9
libmagma.so.2.8:__hip_cuid_c03249091448a98f
libmagma.so.2.8:__hip_cuid_c0385a51a2c1cf1
libmagma.so.2.8:__hip_cuid_c0792eddc3577e0f
libmagma.so.2.8:__hip_cuid_c122ffe3594e9a85
libmagma.so.2.8:__hip_cuid_c1262076925c852
libmagma.so.2.8:__hip_cuid_c147cd3d9e7520f2
libmagma.so.2.8:__hip_cuid_c14c85ff3f5790ae
libmagma.so.2.8:__hip_cuid_c1810989082a0984
libmagma.so.2.8:__hip_cuid_c1aecda19ec9f6a9
libmagma.so.2.8:__hip_cuid_c219aff582c9ffd
libmagma.so.2.8:__hip_cuid_c256fd7499dd1c98
libmagma.so.2.8:__hip_cuid_c2a6af034bba6bd0
libmagma.so.2.8:__hip_cuid_c2b9295d6ebd8b42
libmagma.so.2.8:__hip_cuid_c2bb126e9621d1a6
libmagma.so.2.8:__hip_cuid_c2bcc6d4960abdeb
libmagma.so.2.8:__hip_cuid_c2e611543c879179
libmagma.so.2.8:__hip_cuid_c2f91e44b37418bd
libmagma.so.2.8:__hip_cuid_c2fc8579c566e93e
libmagma.so.2.8:__hip_cuid_c30917e4ba97ae2c
libmagma.so.2.8:__hip_cuid_c343cd2ec5a0e37a
libmagma.so.2.8:__hip_cuid_c35a97f423559588
libmagma.so.2.8:__hip_cuid_c382b4908754849f
libmagma.so.2.8:__hip_cuid_c3867b4fc569643
libmagma.so.2.8:__hip_cuid_c38bdbf5c704f4cd
libmagma.so.2.8:__hip_cuid_c39495720a87d47d
libmagma.so.2.8:__hip_cuid_c3d3e1506115769d
libmagma.so.2.8:__hip_cuid_c3f452627da81aa4
libmagma.so.2.8:__hip_cuid_c3fc6196efb86da7
libmagma.so.2.8:__hip_cuid_c49a67a0676a3d08
libmagma.so.2.8:__hip_cuid_c4a999cd4492172c
libmagma.so.2.8:__hip_cuid_c4b81be41762281d
libmagma.so.2.8:__hip_cuid_c4d76a6129ceb503
libmagma.so.2.8:__hip_cuid_c4e7bdb8efa33c82
libmagma.so.2.8:__hip_cuid_c4e889e454dceaec
libmagma.so.2.8:__hip_cuid_c50800249864d42
libmagma.so.2.8:__hip_cuid_c511abd6a8d293e2
libmagma.so.2.8:__hip_cuid_c5465febafae8322
libmagma.so.2.8:__hip_cuid_c5aa607d0d1810ca
libmagma.so.2.8:__hip_cuid_c5c664f3bc30f6af
libmagma.so.2.8:__hip_cuid_c63fd7f74fa61589
libmagma.so.2.8:__hip_cuid_c64e916b8c92fc64
libmagma.so.2.8:__hip_cuid_c69ab0313bc5d206
libmagma.so.2.8:__hip_cuid_c6c990322dfc2788
libmagma.so.2.8:__hip_cuid_c6d867f0b6c248f7
libmagma.so.2.8:__hip_cuid_c6e309f33a02ce2f
libmagma.so.2.8:__hip_cuid_c7033a188bab550b
libmagma.so.2.8:__hip_cuid_c70efdbbc639dc5f
libmagma.so.2.8:__hip_cuid_c7341ec76d507e91
libmagma.so.2.8:__hip_cuid_c742f64a4ced9e71
libmagma.so.2.8:__hip_cuid_c74e42d092e38ca7
libmagma.so.2.8:__hip_cuid_c75153e5ab671f4a
libmagma.so.2.8:__hip_cuid_c77dcd952d639b8e
libmagma.so.2.8:__hip_cuid_c7803a035a6121aa
libmagma.so.2.8:__hip_cuid_c78fe43b5126915b
libmagma.so.2.8:__hip_cuid_c7acecfdf4d424c
libmagma.so.2.8:__hip_cuid_c7ce05d3af944ba3
libmagma.so.2.8:__hip_cuid_c805697be08db662
libmagma.so.2.8:__hip_cuid_c85619dbee892bdd
libmagma.so.2.8:__hip_cuid_c85a37532a0a2ce8
libmagma.so.2.8:__hip_cuid_c8ac779ca8e1bb5e
libmagma.so.2.8:__hip_cuid_c8ae42c245c7670f
libmagma.so.2.8:__hip_cuid_c8fa06c2e3b421ae
libmagma.so.2.8:__hip_cuid_c9cb85bdec13ef2
libmagma.so.2.8:__hip_cuid_c9d894df4533ef9b
libmagma.so.2.8:__hip_cuid_ca128285c5b27fc0
libmagma.so.2.8:__hip_cuid_ca465c10088837b1
libmagma.so.2.8:__hip_cuid_cac66516a19e498
libmagma.so.2.8:__hip_cuid_cb2ab40b4dbb122f
libmagma.so.2.8:__hip_cuid_cb5b6877092164ad
libmagma.so.2.8:__hip_cuid_cbb10066b24e28cf
libmagma.so.2.8:__hip_cuid_cbd34a6c6e308781
libmagma.so.2.8:__hip_cuid_cbf3756115fac9d8
libmagma.so.2.8:__hip_cuid_cc046b7e956640dd
libmagma.so.2.8:__hip_cuid_cc2a10411d3b5d38
libmagma.so.2.8:__hip_cuid_cc30ae92c6c6e388
libmagma.so.2.8:__hip_cuid_cc460c43bd5595a5
libmagma.so.2.8:__hip_cuid_cc9858aa19f67585
libmagma.so.2.8:__hip_cuid_cce787d81d50f38a
libmagma.so.2.8:__hip_cuid_ccfe4b85d2020b64
libmagma.so.2.8:__hip_cuid_cd27563b81b9fa50
libmagma.so.2.8:__hip_cuid_cda064e7e54258ff
libmagma.so.2.8:__hip_cuid_cde748f9ac630822
libmagma.so.2.8:__hip_cuid_cdf0038e96f5650
libmagma.so.2.8:__hip_cuid_ce3e49928c802c18
libmagma.so.2.8:__hip_cuid_ce450e63cbcefd87
libmagma.so.2.8:__hip_cuid_ce6754c7b6e9fcad
libmagma.so.2.8:__hip_cuid_ce8673951a4ea4e8
libmagma.so.2.8:__hip_cuid_cedb910555629802
libmagma.so.2.8:__hip_cuid_cef9e14be401898d
libmagma.so.2.8:__hip_cuid_cf1fe756e0f0705b
libmagma.so.2.8:__hip_cuid_cf211de6d9821657
libmagma.so.2.8:__hip_cuid_cf2a5dd30d73dcbe
libmagma.so.2.8:__hip_cuid_cf31c9e8b58374cd
libmagma.so.2.8:__hip_cuid_cf3fe37059abcb3f
libmagma.so.2.8:__hip_cuid_cf6498251449a5d5
libmagma.so.2.8:__hip_cuid_cf74e86a770af3e2
libmagma.so.2.8:__hip_cuid_cf95138f2e8313fa
libmagma.so.2.8:__hip_cuid_cfba8580d101c8e5
libmagma.so.2.8:__hip_cuid_d01835cd83d76bba
libmagma.so.2.8:__hip_cuid_d019ba122b94ca11
libmagma.so.2.8:__hip_cuid_d0438e6b96b71fdf
libmagma.so.2.8:__hip_cuid_d0676bdadcd7ffdd
libmagma.so.2.8:__hip_cuid_d07bbea5b0224412
libmagma.so.2.8:__hip_cuid_d080e1f5af528b5
libmagma.so.2.8:__hip_cuid_d090fd6095b83184
libmagma.so.2.8:__hip_cuid_d0c4dc3f50c3f461
libmagma.so.2.8:__hip_cuid_d0c7a7205107d68c
libmagma.so.2.8:__hip_cuid_d0cc6a823c894317
libmagma.so.2.8:__hip_cuid_d0cd8bb12b14c6dd
libmagma.so.2.8:__hip_cuid_d0e6c0954470628a
libmagma.so.2.8:__hip_cuid_d1157910c01938e7
libmagma.so.2.8:__hip_cuid_d144717c828b7ffd
libmagma.so.2.8:__hip_cuid_d1701fece643efce
libmagma.so.2.8:__hip_cuid_d18d9877e71b4748
libmagma.so.2.8:__hip_cuid_d1b3ca227cece6e3
libmagma.so.2.8:__hip_cuid_d1c9574e6b37fd36
libmagma.so.2.8:__hip_cuid_d1f4cf3a266fc466
libmagma.so.2.8:__hip_cuid_d222e9999acb64f4
libmagma.so.2.8:__hip_cuid_d23272021839d9d1
libmagma.so.2.8:__hip_cuid_d2ac616c9002d2d9
libmagma.so.2.8:__hip_cuid_d2df0a5da106e5
libmagma.so.2.8:__hip_cuid_d352ac4d5aa1efca
libmagma.so.2.8:__hip_cuid_d36cf092a1099bc8
libmagma.so.2.8:__hip_cuid_d381cd9fe6cdc8f1
libmagma.so.2.8:__hip_cuid_d3904855818cdb78
libmagma.so.2.8:__hip_cuid_d3ad8b7831d4cac2
libmagma.so.2.8:__hip_cuid_d3f20902fff4efc7
libmagma.so.2.8:__hip_cuid_d427254f52896e48
libmagma.so.2.8:__hip_cuid_d44d4c3545dafa0e
libmagma.so.2.8:__hip_cuid_d4b0fa39b3c74fb2
libmagma.so.2.8:__hip_cuid_d4dbfa2f3dcabfd9
libmagma.so.2.8:__hip_cuid_d540194afebcad80
libmagma.so.2.8:__hip_cuid_d5516a2f8cf2d7a3
libmagma.so.2.8:__hip_cuid_d55cab4f0f593f46
libmagma.so.2.8:__hip_cuid_d56bd932153ae655
libmagma.so.2.8:__hip_cuid_d57cd2022513cc99
libmagma.so.2.8:__hip_cuid_d5be94bdeb4ab7a2
libmagma.so.2.8:__hip_cuid_d5f98243bb03a96
libmagma.so.2.8:__hip_cuid_d61d92294bbcaebc
libmagma.so.2.8:__hip_cuid_d620573935810013
libmagma.so.2.8:__hip_cuid_d63680348af0acf2
libmagma.so.2.8:__hip_cuid_d64900d6a9df764a
libmagma.so.2.8:__hip_cuid_d66f0a3892504ee0
libmagma.so.2.8:__hip_cuid_d66f91653349e890
libmagma.so.2.8:__hip_cuid_d68b97397860dea1
libmagma.so.2.8:__hip_cuid_d6951574fb8d1727
libmagma.so.2.8:__hip_cuid_d69ccfc72406e200
libmagma.so.2.8:__hip_cuid_d723b33ec1306f84
libmagma.so.2.8:__hip_cuid_d78bd10a68f53249
libmagma.so.2.8:__hip_cuid_d7972249ae8a7f5c
libmagma.so.2.8:__hip_cuid_d7e541b7840394d7
libmagma.so.2.8:__hip_cuid_d7ed8262e1d4216d
libmagma.so.2.8:__hip_cuid_d804a1dba9198c70
libmagma.so.2.8:__hip_cuid_d80f631c21093a72
libmagma.so.2.8:__hip_cuid_d850cff8dc538f4a
libmagma.so.2.8:__hip_cuid_d863e167ce93b060
libmagma.so.2.8:__hip_cuid_d89f7bbdf37a236d
libmagma.so.2.8:__hip_cuid_d8b8d843c0b73f00
libmagma.so.2.8:__hip_cuid_d8ba87d36247b71c
libmagma.so.2.8:__hip_cuid_d9247f1360cbc067
libmagma.so.2.8:__hip_cuid_d92f8d4908978dd
libmagma.so.2.8:__hip_cuid_d9655304721a8a12
libmagma.so.2.8:__hip_cuid_d9a09082f6a3122d
libmagma.so.2.8:__hip_cuid_d9c33aa6459e41e2
libmagma.so.2.8:__hip_cuid_d9dad139d38e8d2d
libmagma.so.2.8:__hip_cuid_d9e791ef3475be27
libmagma.so.2.8:__hip_cuid_d9f0159e8f6fb121
libmagma.so.2.8:__hip_cuid_d9f70700d7692d17
libmagma.so.2.8:__hip_cuid_d9ff8bd9d03f6c21
libmagma.so.2.8:__hip_cuid_da0b850870907547
libmagma.so.2.8:__hip_cuid_da3bce69486ab3c
libmagma.so.2.8:__hip_cuid_da4d2d05f99c384e
libmagma.so.2.8:__hip_cuid_da5e9f2c5ad03f84
libmagma.so.2.8:__hip_cuid_da9f2efa3e42e905
libmagma.so.2.8:__hip_cuid_daa0a4b514075533
libmagma.so.2.8:__hip_cuid_dac24d627370cc76
libmagma.so.2.8:__hip_cuid_db14e439df846af3
libmagma.so.2.8:__hip_cuid_db25ba638216eb90
libmagma.so.2.8:__hip_cuid_db2fee042004f02b
libmagma.so.2.8:__hip_cuid_db330dac20c2e863
libmagma.so.2.8:__hip_cuid_db79db574d0d9d04
libmagma.so.2.8:__hip_cuid_dbc6ccbcba972c51
libmagma.so.2.8:__hip_cuid_dbdba488998af100
libmagma.so.2.8:__hip_cuid_dbf7538ad79986dd
libmagma.so.2.8:__hip_cuid_dc2b4fae29b0d2dc
libmagma.so.2.8:__hip_cuid_dc2bb69fec0bceac
libmagma.so.2.8:__hip_cuid_dc2e5f04c5e9c08f
libmagma.so.2.8:__hip_cuid_dc427162bc79cf90
libmagma.so.2.8:__hip_cuid_dc58d68072c231ea
libmagma.so.2.8:__hip_cuid_dc89ec7ff650cb84
libmagma.so.2.8:__hip_cuid_dcd1d67eea4040e4
libmagma.so.2.8:__hip_cuid_dcdada7a004961da
libmagma.so.2.8:__hip_cuid_dce462da450fcd06
libmagma.so.2.8:__hip_cuid_dcf810d78eb65f0c
libmagma.so.2.8:__hip_cuid_dcfae1e949d5b59e
libmagma.so.2.8:__hip_cuid_dd0524a9fedfb370
libmagma.so.2.8:__hip_cuid_dd743b09ac06a588
libmagma.so.2.8:__hip_cuid_dd92abf0261706e1
libmagma.so.2.8:__hip_cuid_dd953db1e9108767
libmagma.so.2.8:__hip_cuid_dda20beae7634538
libmagma.so.2.8:__hip_cuid_dda89d4efa76b23
libmagma.so.2.8:__hip_cuid_de07e40cb06a4349
libmagma.so.2.8:__hip_cuid_de2cd00fe35326f
libmagma.so.2.8:__hip_cuid_de5fadfa5aa053a6
libmagma.so.2.8:__hip_cuid_de95e948758aa2bb
libmagma.so.2.8:__hip_cuid_dee1efc03f415432
libmagma.so.2.8:__hip_cuid_deff0d80495f5fde
libmagma.so.2.8:__hip_cuid_df003e7a6d9fc701
libmagma.so.2.8:__hip_cuid_df153ad87dd3fd9a
libmagma.so.2.8:__hip_cuid_df82b06091d08f9b
libmagma.so.2.8:__hip_cuid_df92307c1846b406
libmagma.so.2.8:__hip_cuid_dfc391fc8aa6fcb5
libmagma.so.2.8:__hip_cuid_dfc89d8ed860c3be
libmagma.so.2.8:__hip_cuid_dff776a9399bb1d8
libmagma.so.2.8:__hip_cuid_e0093ba03820f555
libmagma.so.2.8:__hip_cuid_e034012a9f62dcdb
libmagma.so.2.8:__hip_cuid_e03ba21416fb86bc
libmagma.so.2.8:__hip_cuid_e03f301c467d57bf
libmagma.so.2.8:__hip_cuid_e0e603b7cec6bd61
libmagma.so.2.8:__hip_cuid_e0f7ea1d66d9bc1e
libmagma.so.2.8:__hip_cuid_e1e6200a666880cb
libmagma.so.2.8:__hip_cuid_e27ae367ded456a6
libmagma.so.2.8:__hip_cuid_e283a4e1eb67d0fa
libmagma.so.2.8:__hip_cuid_e28b0a78c042e970
libmagma.so.2.8:__hip_cuid_e2b5408e48d9d6ee
libmagma.so.2.8:__hip_cuid_e2ca306da66fb6fc
libmagma.so.2.8:__hip_cuid_e2d6c89c8bb6f8d9
libmagma.so.2.8:__hip_cuid_e31be8d6229c0502
libmagma.so.2.8:__hip_cuid_e378f08130f5b855
libmagma.so.2.8:__hip_cuid_e37c5964321600c6
libmagma.so.2.8:__hip_cuid_e3981cd21169702f
libmagma.so.2.8:__hip_cuid_e3a478b66756af05
libmagma.so.2.8:__hip_cuid_e3d9e2ab9c7dfdf6
libmagma.so.2.8:__hip_cuid_e40215dffd13479c
libmagma.so.2.8:__hip_cuid_e43e8f8d8a688256
libmagma.so.2.8:__hip_cuid_e4430b9841b28dd5
libmagma.so.2.8:__hip_cuid_e4473ac6a8ab0526
libmagma.so.2.8:__hip_cuid_e457e401a998a0ea
libmagma.so.2.8:__hip_cuid_e48d99457fb6b01
libmagma.so.2.8:__hip_cuid_e50619ffd6a66f75
libmagma.so.2.8:__hip_cuid_e508edf3ac68e139
libmagma.so.2.8:__hip_cuid_e5216d719f307b1c
libmagma.so.2.8:__hip_cuid_e554c748c2831c98
libmagma.so.2.8:__hip_cuid_e584dac0018b289a
libmagma.so.2.8:__hip_cuid_e58664473b601240
libmagma.so.2.8:__hip_cuid_e5b9f32ac94bf039
libmagma.so.2.8:__hip_cuid_e5bc0e2b6621c39b
libmagma.so.2.8:__hip_cuid_e5c457cc78368336
libmagma.so.2.8:__hip_cuid_e5e5bb907500b0d9
libmagma.so.2.8:__hip_cuid_e5e9fa95b1113d6d
libmagma.so.2.8:__hip_cuid_e6064b1764a0677a
libmagma.so.2.8:__hip_cuid_e623e194698932ae
libmagma.so.2.8:__hip_cuid_e62f416bbae3cc64
libmagma.so.2.8:__hip_cuid_e6533c94f4886412
libmagma.so.2.8:__hip_cuid_e6a4ccb68be99373
libmagma.so.2.8:__hip_cuid_e6d01d3235b9d3b8
libmagma.so.2.8:__hip_cuid_e6d68a8fb8da035c
libmagma.so.2.8:__hip_cuid_e6da7dc0e7b3cced
libmagma.so.2.8:__hip_cuid_e6dbe0d3d901b6fb
libmagma.so.2.8:__hip_cuid_e6eb2386f103202b
libmagma.so.2.8:__hip_cuid_e6f06960b71fc705
libmagma.so.2.8:__hip_cuid_e6f345037f280a06
libmagma.so.2.8:__hip_cuid_e7a7f4c426c1e8bd
libmagma.so.2.8:__hip_cuid_e7c63988f72225f3
libmagma.so.2.8:__hip_cuid_e8123f8de1afa212
libmagma.so.2.8:__hip_cuid_e8438c783a221ab9
libmagma.so.2.8:__hip_cuid_e86c89faf16ab331
libmagma.so.2.8:__hip_cuid_e8ba3f424c28461e
libmagma.so.2.8:__hip_cuid_e8c3ef5bdccfd5f1
libmagma.so.2.8:__hip_cuid_e91315fb3d439585
libmagma.so.2.8:__hip_cuid_e9239147508b9bd2
libmagma.so.2.8:__hip_cuid_e92419f63014cb76
libmagma.so.2.8:__hip_cuid_e952a6134316bdd
libmagma.so.2.8:__hip_cuid_e9920761a49e3395
libmagma.so.2.8:__hip_cuid_e992e8d75a830273
libmagma.so.2.8:__hip_cuid_ea1fa0be5b3b0996
libmagma.so.2.8:__hip_cuid_ea37450050454fdd
libmagma.so.2.8:__hip_cuid_ea39090547b353e9
libmagma.so.2.8:__hip_cuid_ea5649f737839247
libmagma.so.2.8:__hip_cuid_ea7040ddf86eb39e
libmagma.so.2.8:__hip_cuid_ea8b97005d442a39
libmagma.so.2.8:__hip_cuid_ea8e2b6cb3b13633
libmagma.so.2.8:__hip_cuid_eac524248ea17b75
libmagma.so.2.8:__hip_cuid_ead0a88d11720024
libmagma.so.2.8:__hip_cuid_eaf62f137379c12f
libmagma.so.2.8:__hip_cuid_eb9a38ac3a744bc9
libmagma.so.2.8:__hip_cuid_ebe3e769ca083c6e
libmagma.so.2.8:__hip_cuid_ec2608923332bf0c
libmagma.so.2.8:__hip_cuid_ec3140733ad43080
libmagma.so.2.8:__hip_cuid_ec59d8871436b42d
libmagma.so.2.8:__hip_cuid_ec6027b795ca4c81
libmagma.so.2.8:__hip_cuid_ec8242d580dfd8df
libmagma.so.2.8:__hip_cuid_ec89fb1601d69506
libmagma.so.2.8:__hip_cuid_ecb2115bdf554bd9
libmagma.so.2.8:__hip_cuid_ece9d732dbbf1e2a
libmagma.so.2.8:__hip_cuid_ed0e8988ea8b3e48
libmagma.so.2.8:__hip_cuid_ed18f4454f03a99c
libmagma.so.2.8:__hip_cuid_ed4715dade72b3df
libmagma.so.2.8:__hip_cuid_ed67f3cd010cdb58
libmagma.so.2.8:__hip_cuid_ed992b1a695f110e
libmagma.so.2.8:__hip_cuid_edec3646fa0475b7
libmagma.so.2.8:__hip_cuid_edf29c72df2755d3
libmagma.so.2.8:__hip_cuid_edf6efaf5130227d
libmagma.so.2.8:__hip_cuid_ee01d91d4f8fa22a
libmagma.so.2.8:__hip_cuid_ee086a273833af64
libmagma.so.2.8:__hip_cuid_ee3149721b1fb944
libmagma.so.2.8:__hip_cuid_ee6af259c4262cdb
libmagma.so.2.8:__hip_cuid_eed8b812ab1e2a9e
libmagma.so.2.8:__hip_cuid_ef0dc61d7fde1501
libmagma.so.2.8:__hip_cuid_ef20a6a5c44b3d86
libmagma.so.2.8:__hip_cuid_ef56287d05450457
libmagma.so.2.8:__hip_cuid_ef7520cee0391432
libmagma.so.2.8:__hip_cuid_ef76f88170dd6b32
libmagma.so.2.8:__hip_cuid_f009c25384a61a02
libmagma.so.2.8:__hip_cuid_f01422d929aa4842
libmagma.so.2.8:__hip_cuid_f0506c9f83e52b99
libmagma.so.2.8:__hip_cuid_f05882336285d1ee
libmagma.so.2.8:__hip_cuid_f08c4489bcf400df
libmagma.so.2.8:__hip_cuid_f0a15fedbd20050c
libmagma.so.2.8:__hip_cuid_f0a177f937d19853
libmagma.so.2.8:__hip_cuid_f0ea704097d57785
libmagma.so.2.8:__hip_cuid_f0f28b24b42311a6
libmagma.so.2.8:__hip_cuid_f0f981ac4f3f5d
libmagma.so.2.8:__hip_cuid_f11c6685f45e3f7b
libmagma.so.2.8:__hip_cuid_f16ff434d4ce90fc
libmagma.so.2.8:__hip_cuid_f195a96c697ebe6d
libmagma.so.2.8:__hip_cuid_f209c6e7a8f0927
libmagma.so.2.8:__hip_cuid_f218d4ba607b1b6f
libmagma.so.2.8:__hip_cuid_f2458c9bce229b89
libmagma.so.2.8:__hip_cuid_f28579a6ec6dfbd2
libmagma.so.2.8:__hip_cuid_f28811cf8ebf7edc
libmagma.so.2.8:__hip_cuid_f2c623d2d9ee83d7
libmagma.so.2.8:__hip_cuid_f2f27c0c999be86f
libmagma.so.2.8:__hip_cuid_f38ea54e5cd9551e
libmagma.so.2.8:__hip_cuid_f3b2bf4a8a8f9638
libmagma.so.2.8:__hip_cuid_f3ef93c1115f2160
libmagma.so.2.8:__hip_cuid_f3f5c8f47f805db4
libmagma.so.2.8:__hip_cuid_f4224ff30553a5a3
libmagma.so.2.8:__hip_cuid_f439dbc0861b6b83
libmagma.so.2.8:__hip_cuid_f45bf3285f87f7bd
libmagma.so.2.8:__hip_cuid_f47e5e242e2b9411
libmagma.so.2.8:__hip_cuid_f4852772515d11b9
libmagma.so.2.8:__hip_cuid_f4965ff1f815cae8
libmagma.so.2.8:__hip_cuid_f4b900e8763e52e4
libmagma.so.2.8:__hip_cuid_f4df998c864ea3be
libmagma.so.2.8:__hip_cuid_f4ebf267e91e9fe0
libmagma.so.2.8:__hip_cuid_f4f44db6dd383e21
libmagma.so.2.8:__hip_cuid_f52eea8b4a7c5461
libmagma.so.2.8:__hip_cuid_f58b43cd1b532f19
libmagma.so.2.8:__hip_cuid_f58f7c66671df650
libmagma.so.2.8:__hip_cuid_f5a77b400ddd3626
libmagma.so.2.8:__hip_cuid_f5e0d8dfd46cfaf6
libmagma.so.2.8:__hip_cuid_f62f4aba9f4ee489
libmagma.so.2.8:__hip_cuid_f6329ce4cf990521
libmagma.so.2.8:__hip_cuid_f647420f3957bf11
libmagma.so.2.8:__hip_cuid_f6867bd74e674a21
libmagma.so.2.8:__hip_cuid_f6a133cfd60f3635
libmagma.so.2.8:__hip_cuid_f6d464de86ebee1f
libmagma.so.2.8:__hip_cuid_f6d829638327bbae
libmagma.so.2.8:__hip_cuid_f6e1e3c041bbce78
libmagma.so.2.8:__hip_cuid_f6fda79bfc84e33
libmagma.so.2.8:__hip_cuid_f7009ab5ed01485f
libmagma.so.2.8:__hip_cuid_f73ca7ec363a6bc7
libmagma.so.2.8:__hip_cuid_f748bb5c762fc368
libmagma.so.2.8:__hip_cuid_f751fb646ab56e69
libmagma.so.2.8:__hip_cuid_f7c5646b97e56124
libmagma.so.2.8:__hip_cuid_f823a339537004aa
libmagma.so.2.8:__hip_cuid_f83efe6725152ece
libmagma.so.2.8:__hip_cuid_f904af2ded5ab7a6
libmagma.so.2.8:__hip_cuid_f9087a1c52485787
libmagma.so.2.8:__hip_cuid_f9574616008f242e
libmagma.so.2.8:__hip_cuid_f998ea23c2aefd45
libmagma.so.2.8:__hip_cuid_f9ba3997d5c1877b
libmagma.so.2.8:__hip_cuid_fa2a8b99e1082219
libmagma.so.2.8:__hip_cuid_fb00484507f1ef02
libmagma.so.2.8:__hip_cuid_fb118783b136e236
libmagma.so.2.8:__hip_cuid_fb2ac00d64b19def
libmagma.so.2.8:__hip_cuid_fb645fc5b4c0ee50
libmagma.so.2.8:__hip_cuid_fb81500d4ffcca49
libmagma.so.2.8:__hip_cuid_fb8396bdb329eadd
libmagma.so.2.8:__hip_cuid_fb87acf57657d152
libmagma.so.2.8:__hip_cuid_fba9915ab4034065
libmagma.so.2.8:__hip_cuid_fbc7dfe1bd9e3d6f
libmagma.so.2.8:__hip_cuid_fbdcd107ef18a2b4
libmagma.so.2.8:__hip_cuid_fbf2e4a20c7cce10
libmagma.so.2.8:__hip_cuid_fc038c97e7da7bd0
libmagma.so.2.8:__hip_cuid_fc1a88e0b4767a9c
libmagma.so.2.8:__hip_cuid_fc1d7871aa967203
libmagma.so.2.8:__hip_cuid_fc442dfe7d1daa23
libmagma.so.2.8:__hip_cuid_fc493a513144a8df
libmagma.so.2.8:__hip_cuid_fc4dc0304d5ec272
libmagma.so.2.8:__hip_cuid_fc514149affb933d
libmagma.so.2.8:__hip_cuid_fc5cbd6c6870820a
libmagma.so.2.8:__hip_cuid_fc9215caf4737403
libmagma.so.2.8:__hip_cuid_fcc81e5c22801cef
libmagma.so.2.8:__hip_cuid_fce722a064e3c5f7
libmagma.so.2.8:__hip_cuid_fce8ecb654f9f447
libmagma.so.2.8:__hip_cuid_fd1ce5678f784fef
libmagma.so.2.8:__hip_cuid_fd229576d9ea6af1
libmagma.so.2.8:__hip_cuid_fd28660d5c4e56a
libmagma.so.2.8:__hip_cuid_fd4641e230c577dc
libmagma.so.2.8:__hip_cuid_fd7f81e4fd89b4c3
libmagma.so.2.8:__hip_cuid_fd81ee3c4de5d85f
libmagma.so.2.8:__hip_cuid_fdadacd6c93053dd
libmagma.so.2.8:__hip_cuid_fe519e0d4abc0c3e
libmagma.so.2.8:__hip_cuid_fed8e8b58fce158f
libmagma.so.2.8:__hip_cuid_fef840887f638ed9
libmagma.so.2.8:__hip_cuid_ff0cf24fbf79ef5c
libmagma.so.2.8:__hip_cuid_ff1d0e7282d0c3e8
libmagma.so.2.8:__hip_cuid_ff25b58ea623ba2b
libmagma.so.2.8:__hip_cuid_ff9c83f8a895a28c
libmagma.so.2.8:__hip_cuid_ffb38cf1ace4e1a8
libmagma.so.2.8:__magma_MOD_magmaf_coff1d
libmagma.so.2.8:__magma_MOD_magmaf_coff2d
libmagma.so.2.8:__magma_MOD_magmaf_doff1d
libmagma.so.2.8:__magma_MOD_magmaf_doff2d
libmagma.so.2.8:__magma_MOD_magmaf_ioff1d
libmagma.so.2.8:__magma_MOD_magmaf_ioff2d
libmagma.so.2.8:__magma_MOD_magmaf_soff1d
libmagma.so.2.8:__magma_MOD_magmaf_soff2d
libmagma.so.2.8:__magma_MOD_magmaf_zoff1d
libmagma.so.2.8:__magma_MOD_magmaf_zoff2d
libmagma.so.2.8:adjust_ipiv
libmagma.so.2.8:adjust_ipiv_batched
libmagma.so.2.8:adjust_ipiv_vbatched
libmagma.so.2.8:blas_cgemm_batched
libmagma.so.2.8:blas_chemm_batched
libmagma.so.2.8:blas_cher2k_batched
libmagma.so.2.8:blas_cherk_batched
libmagma.so.2.8:blas_clacpy_batched
libmagma.so.2.8:blas_ctrmm_batched
libmagma.so.2.8:blas_ctrsm_batched
libmagma.so.2.8:blas_dgemm_batched
libmagma.so.2.8:blas_dlacpy_batched
libmagma.so.2.8:blas_dsymm_batched
libmagma.so.2.8:blas_dsyr2k_batched
libmagma.so.2.8:blas_dsyrk_batched
libmagma.so.2.8:blas_dtrmm_batched
libmagma.so.2.8:blas_dtrsm_batched
libmagma.so.2.8:blas_sgemm_batched
libmagma.so.2.8:blas_slacpy_batched
libmagma.so.2.8:blas_ssymm_batched
libmagma.so.2.8:blas_ssyr2k_batched
libmagma.so.2.8:blas_ssyrk_batched
libmagma.so.2.8:blas_strmm_batched
libmagma.so.2.8:blas_strsm_batched
libmagma.so.2.8:blas_zgemm_batched
libmagma.so.2.8:blas_zhemm_batched
libmagma.so.2.8:blas_zher2k_batched
libmagma.so.2.8:blas_zherk_batched
libmagma.so.2.8:blas_zlacpy_batched
libmagma.so.2.8:blas_ztrmm_batched
libmagma.so.2.8:blas_ztrsm_batched
libmagma.so.2.8:cgeqrf_panel_decision_a100
libmagma.so.2.8:cgeqrf_panel_decision_mi100
libmagma.so.2.8:cgesdd_path
libmagma.so.2.8:cgesvd_path
libmagma.so.2.8:chemv_kernel_U
libmagma.so.2.8:chemv_kernel_U_mgpu
libmagma.so.2.8:chemv_kernel_U_mgpu_sum
libmagma.so.2.8:chemv_kernel_U_sum
libmagma.so.2.8:clange_fro_kernel
libmagma.so.2.8:clange_inf_kernel
libmagma.so.2.8:clange_max_kernel
libmagma.so.2.8:clange_one_kernel
libmagma.so.2.8:clanhe_inf
libmagma.so.2.8:clanhe_max
libmagma.so.2.8:claswp_sym
libmagma.so.2.8:cmp_vals
libmagma.so.2.8:csymv_kernel_U
libmagma.so.2.8:csymv_kernel_U_sum
libmagma.so.2.8:dgeqrf_panel_decision_a100
libmagma.so.2.8:dgeqrf_panel_decision_mi100
libmagma.so.2.8:dgesdd_path
libmagma.so.2.8:dgesvd_path
libmagma.so.2.8:dlange_fro_kernel
libmagma.so.2.8:dlange_inf_kernel
libmagma.so.2.8:dlange_max_kernel
libmagma.so.2.8:dlange_one_kernel
libmagma.so.2.8:dlansy_inf
libmagma.so.2.8:dlansy_max
libmagma.so.2.8:dlaswp_sym
libmagma.so.2.8:dsymv_kernel_U
libmagma.so.2.8:dsymv_kernel_U_mgpu
libmagma.so.2.8:dsymv_kernel_U_mgpu_sum
libmagma.so.2.8:dsymv_kernel_U_sum
libmagma.so.2.8:findVTpos
libmagma.so.2.8:findVTsiz
libmagma.so.2.8:g_magma_devices
libmagma.so.2.8:g_magma_devices_cnt
libmagma.so.2.8:g_magma_queue_key
libmagma.so.2.8:g_null_queues
libmagma.so.2.8:hipblas_diag_const
libmagma.so.2.8:hipblas_side_const
libmagma.so.2.8:hipblas_trans_const
libmagma.so.2.8:hipblas_uplo_const
libmagma.so.2.8:lapack_bool_const
libmagma.so.2.8:lapack_const_str
libmagma.so.2.8:lapack_diag_const
libmagma.so.2.8:lapack_direct_const
libmagma.so.2.8:lapack_dist_const
libmagma.so.2.8:lapack_norm_const
libmagma.so.2.8:lapack_order_const
libmagma.so.2.8:lapack_pack_const
libmagma.so.2.8:lapack_range_const
libmagma.so.2.8:lapack_side_const
libmagma.so.2.8:lapack_storev_const
libmagma.so.2.8:lapack_sym_const
libmagma.so.2.8:lapack_trans_const
libmagma.so.2.8:lapack_uplo_const
libmagma.so.2.8:lapack_vec_const
libmagma.so.2.8:lapack_vect_const
libmagma.so.2.8:magma2lapack_constants
libmagma.so.2.8:magma_axpy_vbatched_checker
libmagma.so.2.8:magma_bool_const
libmagma.so.2.8:magma_buildconnection_mgpu
libmagma.so.2.8:magma_bulge_findVTAUTpos
libmagma.so.2.8:magma_bulge_findVTAUpos
libmagma.so.2.8:magma_bulge_findVTpos
libmagma.so.2.8:magma_bulge_findpos
libmagma.so.2.8:magma_bulge_findpos113
libmagma.so.2.8:magma_bulge_get_blkcnt
libmagma.so.2.8:magma_bulge_getlwstg1
libmagma.so.2.8:magma_c_isinf
libmagma.so.2.8:magma_c_isnan
libmagma.so.2.8:magma_c_isnan_inf
libmagma.so.2.8:magma_cabs
libmagma.so.2.8:magma_cabsf
libmagma.so.2.8:magma_caxpy
libmagma.so.2.8:magma_cblas_cdotc
libmagma.so.2.8:magma_cblas_cdotu
libmagma.so.2.8:magma_cblas_dasum
libmagma.so.2.8:magma_cblas_ddot
libmagma.so.2.8:magma_cblas_dnrm2
libmagma.so.2.8:magma_cblas_dzasum
libmagma.so.2.8:magma_cblas_dznrm2
libmagma.so.2.8:magma_cblas_sasum
libmagma.so.2.8:magma_cblas_scasum
libmagma.so.2.8:magma_cblas_scnrm2
libmagma.so.2.8:magma_cblas_sdot
libmagma.so.2.8:magma_cblas_snrm2
libmagma.so.2.8:magma_cblas_zdotc
libmagma.so.2.8:magma_cblas_zdotu
libmagma.so.2.8:magma_cbulge_applyQ_v2
libmagma.so.2.8:magma_cbulge_applyQ_v2_m
libmagma.so.2.8:magma_cbulge_back
libmagma.so.2.8:magma_cbulge_back_m
libmagma.so.2.8:magma_cbulge_getlwstg2
libmagma.so.2.8:magma_cbulge_getstg2size
libmagma.so.2.8:magma_ccomputecolumn_batched
libmagma.so.2.8:magma_ccopy
libmagma.so.2.8:magma_cdisplace_pointers
libmagma.so.2.8:magma_cdisplace_pointers_var_cc
libmagma.so.2.8:magma_cdisplace_pointers_var_cv
libmagma.so.2.8:magma_cdisplace_pointers_var_vc
libmagma.so.2.8:magma_cdisplace_pointers_var_vv
libmagma.so.2.8:magma_cdotc
libmagma.so.2.8:magma_cdotu
libmagma.so.2.8:magma_cdtohpo
libmagma.so.2.8:magma_cgbsv_batched
libmagma.so.2.8:magma_cgbsv_batched_fused_sm
libmagma.so.2.8:magma_cgbsv_batched_strided
libmagma.so.2.8:magma_cgbsv_batched_strided_work
libmagma.so.2.8:magma_cgbsv_batched_work
libmagma.so.2.8:magma_cgbsv_native
libmagma.so.2.8:magma_cgbsv_native_work
libmagma.so.2.8:magma_cgbtf2_cswap_batched
libmagma.so.2.8:magma_cgbtf2_native
libmagma.so.2.8:magma_cgbtf2_native_v2
libmagma.so.2.8:magma_cgbtf2_native_v2_work
libmagma.so.2.8:magma_cgbtf2_native_work
libmagma.so.2.8:magma_cgbtf2_scal_ger_batched
libmagma.so.2.8:magma_cgbtrf_batched
libmagma.so.2.8:magma_cgbtrf_batched_fused_sm
libmagma.so.2.8:magma_cgbtrf_batched_sliding_window_loopin
libmagma.so.2.8:magma_cgbtrf_batched_sliding_window_loopout
libmagma.so.2.8:magma_cgbtrf_batched_strided
libmagma.so.2.8:magma_cgbtrf_batched_strided_work
libmagma.so.2.8:magma_cgbtrf_batched_work
libmagma.so.2.8:magma_cgbtrf_native
libmagma.so.2.8:magma_cgbtrf_native_work
libmagma.so.2.8:magma_cgbtrf_set_fillin
libmagma.so.2.8:magma_cgbtrs_batched
libmagma.so.2.8:magma_cgbtrs_batched_strided
libmagma.so.2.8:magma_cgbtrs_lower_batched
libmagma.so.2.8:magma_cgbtrs_upper_batched
libmagma.so.2.8:magma_cgebrd
libmagma.so.2.8:magma_cgeev
libmagma.so.2.8:magma_cgeev_m
libmagma.so.2.8:magma_cgegqr_gpu
libmagma.so.2.8:magma_cgehrd
libmagma.so.2.8:magma_cgehrd2
libmagma.so.2.8:magma_cgehrd_m
libmagma.so.2.8:magma_cgelqf
libmagma.so.2.8:magma_cgelqf_gpu
libmagma.so.2.8:magma_cgels
libmagma.so.2.8:magma_cgels3_gpu
libmagma.so.2.8:magma_cgels_gpu
libmagma.so.2.8:magma_cgemm
libmagma.so.2.8:magma_cgemm_batched
libmagma.so.2.8:magma_cgemm_batched_core
libmagma.so.2.8:magma_cgemv
libmagma.so.2.8:magma_cgemv_kernel1
libmagma.so.2.8:magma_cgemv_kernel2
libmagma.so.2.8:magma_cgemv_kernel3
libmagma.so.2.8:magma_cgeqlf
libmagma.so.2.8:magma_cgeqp3
libmagma.so.2.8:magma_cgeqp3_gpu
libmagma.so.2.8:magma_cgeqr2_batched
libmagma.so.2.8:magma_cgeqr2_fused_batched
libmagma.so.2.8:magma_cgeqr2_fused_reg_batched
libmagma.so.2.8:magma_cgeqr2_fused_reg_medium_batched
libmagma.so.2.8:magma_cgeqr2_fused_reg_tall_batched
libmagma.so.2.8:magma_cgeqr2_fused_sm_batched
libmagma.so.2.8:magma_cgeqr2_gpu
libmagma.so.2.8:magma_cgeqr2x2_gpu
libmagma.so.2.8:magma_cgeqr2x3_gpu
libmagma.so.2.8:magma_cgeqr2x4_gpu
libmagma.so.2.8:magma_cgeqr2x_gpu
libmagma.so.2.8:magma_cgeqrf
libmagma.so.2.8:magma_cgeqrf2_gpu
libmagma.so.2.8:magma_cgeqrf2_mgpu
libmagma.so.2.8:magma_cgeqrf3_gpu
libmagma.so.2.8:magma_cgeqrf_batched
libmagma.so.2.8:magma_cgeqrf_batched_smallsq
libmagma.so.2.8:magma_cgeqrf_batched_work
libmagma.so.2.8:magma_cgeqrf_expert_batched
libmagma.so.2.8:magma_cgeqrf_expert_gpu_work
libmagma.so.2.8:magma_cgeqrf_gpu
libmagma.so.2.8:magma_cgeqrf_m
libmagma.so.2.8:magma_cgeqrf_ooc
libmagma.so.2.8:magma_cgeqrf_panel_batched
libmagma.so.2.8:magma_cgeqrf_panel_fused_update_batched
libmagma.so.2.8:magma_cgeqrf_panel_internal_batched
libmagma.so.2.8:magma_cgeqrs3_gpu
libmagma.so.2.8:magma_cgeqrs_gpu
libmagma.so.2.8:magma_cgerbt_batched
libmagma.so.2.8:magma_cgerbt_gpu
libmagma.so.2.8:magma_cgerc
libmagma.so.2.8:magma_cgerfs_nopiv_gpu
libmagma.so.2.8:magma_cgeru
libmagma.so.2.8:magma_cgesdd
libmagma.so.2.8:magma_cgesv
libmagma.so.2.8:magma_cgesv_batched
libmagma.so.2.8:magma_cgesv_batched_small
libmagma.so.2.8:magma_cgesv_gpu
libmagma.so.2.8:magma_cgesv_nopiv_batched
libmagma.so.2.8:magma_cgesv_nopiv_gpu
libmagma.so.2.8:magma_cgesv_rbt
libmagma.so.2.8:magma_cgesv_rbt_batched
libmagma.so.2.8:magma_cgesvd
libmagma.so.2.8:magma_cgetf2_batched
libmagma.so.2.8:magma_cgetf2_fused_batched
libmagma.so.2.8:magma_cgetf2_fused_sm_vbatched
libmagma.so.2.8:magma_cgetf2_fused_vbatched
libmagma.so.2.8:magma_cgetf2_gpu
libmagma.so.2.8:magma_cgetf2_native
libmagma.so.2.8:magma_cgetf2_native_fused
libmagma.so.2.8:magma_cgetf2_nopiv
libmagma.so.2.8:magma_cgetf2_nopiv_batched
libmagma.so.2.8:magma_cgetf2_nopiv_internal_batched
libmagma.so.2.8:magma_cgetf2_vbatched
libmagma.so.2.8:magma_cgetf2trsm_2d_native
libmagma.so.2.8:magma_cgetf2trsm_batched
libmagma.so.2.8:magma_cgetmatrix_1D_col_bcyclic
libmagma.so.2.8:magma_cgetmatrix_1D_col_bcyclic_v1
libmagma.so.2.8:magma_cgetmatrix_1D_row_bcyclic
libmagma.so.2.8:magma_cgetmatrix_1D_row_bcyclic_v1
libmagma.so.2.8:magma_cgetrf
libmagma.so.2.8:magma_cgetrf2_mgpu
libmagma.so.2.8:magma_cgetrf_batched
libmagma.so.2.8:magma_cgetrf_batched_smallsq_noshfl
libmagma.so.2.8:magma_cgetrf_expert_gpu_work
libmagma.so.2.8:magma_cgetrf_gpu
libmagma.so.2.8:magma_cgetrf_gpu_expert
libmagma.so.2.8:magma_cgetrf_m
libmagma.so.2.8:magma_cgetrf_mgpu
libmagma.so.2.8:magma_cgetrf_native
libmagma.so.2.8:magma_cgetrf_nopiv
libmagma.so.2.8:magma_cgetrf_nopiv_batched
libmagma.so.2.8:magma_cgetrf_nopiv_gpu
libmagma.so.2.8:magma_cgetrf_panel_nopiv_batched
libmagma.so.2.8:magma_cgetrf_piv
libmagma.so.2.8:magma_cgetrf_recpanel_batched
libmagma.so.2.8:magma_cgetrf_recpanel_native
libmagma.so.2.8:magma_cgetrf_recpanel_nopiv_batched
libmagma.so.2.8:magma_cgetrf_recpanel_vbatched
libmagma.so.2.8:magma_cgetrf_vbatched
libmagma.so.2.8:magma_cgetrf_vbatched_max_nocheck
libmagma.so.2.8:magma_cgetrf_vbatched_max_nocheck_work
libmagma.so.2.8:magma_cgetri_gpu
libmagma.so.2.8:magma_cgetri_outofplace_batched
libmagma.so.2.8:magma_cgetrs_batched
libmagma.so.2.8:magma_cgetrs_gpu
libmagma.so.2.8:magma_cgetrs_nopiv_batched
libmagma.so.2.8:magma_cgetrs_nopiv_gpu
libmagma.so.2.8:magma_cgglse
libmagma.so.2.8:magma_cggrqf
libmagma.so.2.8:magma_chbtype1cb
libmagma.so.2.8:magma_chbtype2cb
libmagma.so.2.8:magma_chbtype3cb
libmagma.so.2.8:magma_cheevd
libmagma.so.2.8:magma_cheevd_gpu
libmagma.so.2.8:magma_cheevd_m
libmagma.so.2.8:magma_cheevdx
libmagma.so.2.8:magma_cheevdx_2stage
libmagma.so.2.8:magma_cheevdx_2stage_m
libmagma.so.2.8:magma_cheevdx_getworksize
libmagma.so.2.8:magma_cheevdx_gpu
libmagma.so.2.8:magma_cheevdx_m
libmagma.so.2.8:magma_cheevr
libmagma.so.2.8:magma_cheevr_gpu
libmagma.so.2.8:magma_cheevx
libmagma.so.2.8:magma_cheevx_gpu
libmagma.so.2.8:magma_chegst
libmagma.so.2.8:magma_chegst_gpu
libmagma.so.2.8:magma_chegst_m
libmagma.so.2.8:magma_chegvd
libmagma.so.2.8:magma_chegvd_m
libmagma.so.2.8:magma_chegvdx
libmagma.so.2.8:magma_chegvdx_2stage
libmagma.so.2.8:magma_chegvdx_2stage_m
libmagma.so.2.8:magma_chegvdx_m
libmagma.so.2.8:magma_chegvr
libmagma.so.2.8:magma_chegvx
libmagma.so.2.8:magma_chemm
libmagma.so.2.8:magma_chemv
libmagma.so.2.8:magma_cher
libmagma.so.2.8:magma_cher2
libmagma.so.2.8:magma_cher2k
libmagma.so.2.8:magma_cher2k_mgpu
libmagma.so.2.8:magma_cherk
libmagma.so.2.8:magma_cherk_batched
libmagma.so.2.8:magma_cherk_mgpu
libmagma.so.2.8:magma_cherk_mgpu2
libmagma.so.2.8:magma_chesv
libmagma.so.2.8:magma_chesv_nopiv_gpu
libmagma.so.2.8:magma_chetrd
libmagma.so.2.8:magma_chetrd2_gpu
libmagma.so.2.8:magma_chetrd_gpu
libmagma.so.2.8:magma_chetrd_hb2st
libmagma.so.2.8:magma_chetrd_he2hb
libmagma.so.2.8:magma_chetrd_he2hb_mgpu
libmagma.so.2.8:magma_chetrd_mgpu
libmagma.so.2.8:magma_chetrf
libmagma.so.2.8:magma_chetrf_aasen
libmagma.so.2.8:magma_chetrf_gpu
libmagma.so.2.8:magma_chetrf_nopiv
libmagma.so.2.8:magma_chetrf_nopiv_cpu
libmagma.so.2.8:magma_chetrf_nopiv_gpu
libmagma.so.2.8:magma_chetrs_gpu
libmagma.so.2.8:magma_chetrs_nopiv_gpu
libmagma.so.2.8:magma_chtodhe
libmagma.so.2.8:magma_chtodpo
libmagma.so.2.8:magma_clabrd_gpu
libmagma.so.2.8:magma_clahef_gpu
libmagma.so.2.8:magma_clahr2
libmagma.so.2.8:magma_clahr2_m
libmagma.so.2.8:magma_clahru
libmagma.so.2.8:magma_clahru_m
libmagma.so.2.8:magma_claqps
libmagma.so.2.8:magma_claqps2_gpu
libmagma.so.2.8:magma_claqps_gpu
libmagma.so.2.8:magma_clarf_fused_reg_batched
libmagma.so.2.8:magma_clarf_fused_reg_medium_batched
libmagma.so.2.8:magma_clarf_fused_reg_tall_batched
libmagma.so.2.8:magma_clarf_fused_sm_batched
libmagma.so.2.8:magma_clarf_gpu
libmagma.so.2.8:magma_clarf_sm
libmagma.so.2.8:magma_clarfb2_gpu
libmagma.so.2.8:magma_clarfb_gemm_batched
libmagma.so.2.8:magma_clarfb_gemm_internal_batched
libmagma.so.2.8:magma_clarfb_gpu
libmagma.so.2.8:magma_clarfb_gpu_gemm
libmagma.so.2.8:magma_clarfb_gpu_gemm_v1
libmagma.so.2.8:magma_clarfb_gpu_v1
libmagma.so.2.8:magma_clarfbx_gpu
libmagma.so.2.8:magma_clarfbx_gpu_v1
libmagma.so.2.8:magma_clarfg_gpu
libmagma.so.2.8:magma_clarfg_gpu_v1
libmagma.so.2.8:magma_clarfgtx_gpu
libmagma.so.2.8:magma_clarfgtx_gpu_v1
libmagma.so.2.8:magma_clarfgx_gpu
libmagma.so.2.8:magma_clarfgx_gpu_v1
libmagma.so.2.8:magma_clarft_batched
libmagma.so.2.8:magma_clarft_internal_batched
libmagma.so.2.8:magma_clarft_sm32x32_batched
libmagma.so.2.8:magma_clarfx_gpu
libmagma.so.2.8:magma_clarfx_gpu_v1
libmagma.so.2.8:magma_clarfy
libmagma.so.2.8:magma_claswp_columnserial
libmagma.so.2.8:magma_claswp_columnserial_batched
libmagma.so.2.8:magma_claswp_left_rowparallel_vbatched
libmagma.so.2.8:magma_claswp_left_rowserial_vbatched
libmagma.so.2.8:magma_claswp_right_rowparallel_vbatched
libmagma.so.2.8:magma_claswp_right_rowserial_vbatched
libmagma.so.2.8:magma_claswp_rowparallel_batched
libmagma.so.2.8:magma_claswp_rowparallel_native
libmagma.so.2.8:magma_claswp_rowserial_batched
libmagma.so.2.8:magma_claswp_rowserial_native
libmagma.so.2.8:magma_clatrd
libmagma.so.2.8:magma_clatrd2
libmagma.so.2.8:magma_clatrd_mgpu
libmagma.so.2.8:magma_clatrsd
libmagma.so.2.8:magma_clauum
libmagma.so.2.8:magma_clauum_gpu
libmagma.so.2.8:magma_cmake_lwork
libmagma.so.2.8:magma_cnan_inf
libmagma.so.2.8:magma_cnan_inf_gpu
libmagma.so.2.8:magma_compute_trsm_jb
libmagma.so.2.8:magma_copymatrix_async_internal
libmagma.so.2.8:magma_copymatrix_internal
libmagma.so.2.8:magma_copymatrix_v1_internal
libmagma.so.2.8:magma_copyvector_async_internal
libmagma.so.2.8:magma_copyvector_internal
libmagma.so.2.8:magma_copyvector_v1_internal
libmagma.so.2.8:magma_cpanel_to_q
libmagma.so.2.8:magma_cposv
libmagma.so.2.8:magma_cposv_batched
libmagma.so.2.8:magma_cposv_gpu
libmagma.so.2.8:magma_cpotf2_batched
libmagma.so.2.8:magma_cpotf2_gpu
libmagma.so.2.8:magma_cpotf2_lpin
libmagma.so.2.8:magma_cpotf2_lpout
libmagma.so.2.8:magma_cpotf2_native
libmagma.so.2.8:magma_cpotf2_vbatched
libmagma.so.2.8:magma_cpotrf
libmagma.so.2.8:magma_cpotrf3_mgpu
libmagma.so.2.8:magma_cpotrf_batched
libmagma.so.2.8:magma_cpotrf_expert
libmagma.so.2.8:magma_cpotrf_expert_gpu
libmagma.so.2.8:magma_cpotrf_expert_gpu_work
libmagma.so.2.8:magma_cpotrf_gpu
libmagma.so.2.8:magma_cpotrf_lg_batched
libmagma.so.2.8:magma_cpotrf_lg_vbatched
libmagma.so.2.8:magma_cpotrf_lpin_batched
libmagma.so.2.8:magma_cpotrf_lpout_batched
libmagma.so.2.8:magma_cpotrf_lpout_vbatched
libmagma.so.2.8:magma_cpotrf_m
libmagma.so.2.8:magma_cpotrf_mgpu
libmagma.so.2.8:magma_cpotrf_native
libmagma.so.2.8:magma_cpotrf_panel_batched
libmagma.so.2.8:magma_cpotrf_panel_vbatched
libmagma.so.2.8:magma_cpotrf_recpanel_batched
libmagma.so.2.8:magma_cpotrf_rectile_batched
libmagma.so.2.8:magma_cpotrf_rectile_native
libmagma.so.2.8:magma_cpotrf_vbatched
libmagma.so.2.8:magma_cpotrf_vbatched_max_nocheck
libmagma.so.2.8:magma_cpotri
libmagma.so.2.8:magma_cpotri_gpu
libmagma.so.2.8:magma_cpotrs_batched
libmagma.so.2.8:magma_cpotrs_gpu
libmagma.so.2.8:magma_cprint
libmagma.so.2.8:magma_cprint_gpu
libmagma.so.2.8:magma_cq_to_panel
libmagma.so.2.8:magma_crecommend_cublas_gemm_batched
libmagma.so.2.8:magma_crecommend_cublas_gemm_stream
libmagma.so.2.8:magma_crot
libmagma.so.2.8:magma_crotg
libmagma.so.2.8:magma_cscal
libmagma.so.2.8:magma_cscal_cgeru_batched
libmagma.so.2.8:magma_cscal_cgeru_native
libmagma.so.2.8:magma_cscal_cgeru_vbatched
libmagma.so.2.8:magma_cset_pointer
libmagma.so.2.8:magma_cset_pointer_var_cc
libmagma.so.2.8:magma_csetmatrix_1D_col_bcyclic
libmagma.so.2.8:magma_csetmatrix_1D_col_bcyclic_v1
libmagma.so.2.8:magma_csetmatrix_1D_row_bcyclic
libmagma.so.2.8:magma_csetmatrix_1D_row_bcyclic_v1
libmagma.so.2.8:magma_csetvector_const
libmagma.so.2.8:magma_csqrt
libmagma.so.2.8:magma_csrot
libmagma.so.2.8:magma_csscal
libmagma.so.2.8:magma_cstedx
libmagma.so.2.8:magma_cstedx_m
libmagma.so.2.8:magma_cswap
libmagma.so.2.8:magma_cswap_batched
libmagma.so.2.8:magma_cswap_native
libmagma.so.2.8:magma_cswap_vbatched
libmagma.so.2.8:magma_csymm
libmagma.so.2.8:magma_csymv
libmagma.so.2.8:magma_csyr
libmagma.so.2.8:magma_csyr2
libmagma.so.2.8:magma_csyr2k
libmagma.so.2.8:magma_csyrk
libmagma.so.2.8:magma_csysv_nopiv_gpu
libmagma.so.2.8:magma_csytrf_nopiv_cpu
libmagma.so.2.8:magma_csytrf_nopiv_gpu
libmagma.so.2.8:magma_csytrs_nopiv_gpu
libmagma.so.2.8:magma_ctrevc3
libmagma.so.2.8:magma_ctrevc3_mt
libmagma.so.2.8:magma_ctrmm
libmagma.so.2.8:magma_ctrmv
libmagma.so.2.8:magma_ctrmv_kernel
libmagma.so.2.8:magma_ctrmv_kernel2
libmagma.so.2.8:magma_ctrmv_tkernel
libmagma.so.2.8:magma_ctrsm
libmagma.so.2.8:magma_ctrsm_m
libmagma.so.2.8:magma_ctrsv
libmagma.so.2.8:magma_ctrtri
libmagma.so.2.8:magma_ctrtri_gpu
libmagma.so.2.8:magma_cungbr
libmagma.so.2.8:magma_cunghr
libmagma.so.2.8:magma_cunghr_m
libmagma.so.2.8:magma_cunglq
libmagma.so.2.8:magma_cungqr
libmagma.so.2.8:magma_cungqr2
libmagma.so.2.8:magma_cungqr_2stage_gpu
libmagma.so.2.8:magma_cungqr_gpu
libmagma.so.2.8:magma_cungqr_m
libmagma.so.2.8:magma_cungtr
libmagma.so.2.8:magma_cunmbr
libmagma.so.2.8:magma_cunmlq
libmagma.so.2.8:magma_cunmql
libmagma.so.2.8:magma_cunmql2_gpu
libmagma.so.2.8:magma_cunmqr
libmagma.so.2.8:magma_cunmqr2_gpu
libmagma.so.2.8:magma_cunmqr_2stage_gpu
libmagma.so.2.8:magma_cunmqr_gpu
libmagma.so.2.8:magma_cunmqr_m
libmagma.so.2.8:magma_cunmrq
libmagma.so.2.8:magma_cunmtr
libmagma.so.2.8:magma_cunmtr_gpu
libmagma.so.2.8:magma_cunmtr_m
libmagma.so.2.8:magma_d_isinf
libmagma.so.2.8:magma_d_isnan
libmagma.so.2.8:magma_d_isnan_inf
libmagma.so.2.8:magma_dasum
libmagma.so.2.8:magma_daxpy
libmagma.so.2.8:magma_dbulge_applyQ_v2
libmagma.so.2.8:magma_dbulge_applyQ_v2_m
libmagma.so.2.8:magma_dbulge_back
libmagma.so.2.8:magma_dbulge_back_m
libmagma.so.2.8:magma_dbulge_getlwstg2
libmagma.so.2.8:magma_dbulge_getstg2size
libmagma.so.2.8:magma_dcomputecolumn_batched
libmagma.so.2.8:magma_dcopy
libmagma.so.2.8:magma_ddisplace_pointers
libmagma.so.2.8:magma_ddisplace_pointers_var_cc
libmagma.so.2.8:magma_ddisplace_pointers_var_cv
libmagma.so.2.8:magma_ddisplace_pointers_var_vc
libmagma.so.2.8:magma_ddisplace_pointers_var_vv
libmagma.so.2.8:magma_ddot
libmagma.so.2.8:magma_ddtohpo
libmagma.so.2.8:magma_device_sync
libmagma.so.2.8:magma_dfgmres_plu_gpu
libmagma.so.2.8:magma_dfgmres_spd_gpu
libmagma.so.2.8:magma_dgbsv_batched
libmagma.so.2.8:magma_dgbsv_batched_fused_sm
libmagma.so.2.8:magma_dgbsv_batched_strided
libmagma.so.2.8:magma_dgbsv_batched_strided_work
libmagma.so.2.8:magma_dgbsv_batched_work
libmagma.so.2.8:magma_dgbsv_native
libmagma.so.2.8:magma_dgbsv_native_work
libmagma.so.2.8:magma_dgbtf2_dswap_batched
libmagma.so.2.8:magma_dgbtf2_native
libmagma.so.2.8:magma_dgbtf2_native_v2
libmagma.so.2.8:magma_dgbtf2_native_v2_work
libmagma.so.2.8:magma_dgbtf2_native_work
libmagma.so.2.8:magma_dgbtf2_scal_ger_batched
libmagma.so.2.8:magma_dgbtrf_batched
libmagma.so.2.8:magma_dgbtrf_batched_fused_sm
libmagma.so.2.8:magma_dgbtrf_batched_sliding_window_loopin
libmagma.so.2.8:magma_dgbtrf_batched_sliding_window_loopout
libmagma.so.2.8:magma_dgbtrf_batched_strided
libmagma.so.2.8:magma_dgbtrf_batched_strided_work
libmagma.so.2.8:magma_dgbtrf_batched_work
libmagma.so.2.8:magma_dgbtrf_native
libmagma.so.2.8:magma_dgbtrf_native_work
libmagma.so.2.8:magma_dgbtrf_set_fillin
libmagma.so.2.8:magma_dgbtrs_batched
libmagma.so.2.8:magma_dgbtrs_batched_strided
libmagma.so.2.8:magma_dgbtrs_lower_batched
libmagma.so.2.8:magma_dgbtrs_upper_batched
libmagma.so.2.8:magma_dgebrd
libmagma.so.2.8:magma_dgeev
libmagma.so.2.8:magma_dgeev_m
libmagma.so.2.8:magma_dgegqr_gpu
libmagma.so.2.8:magma_dgehrd
libmagma.so.2.8:magma_dgehrd2
libmagma.so.2.8:magma_dgehrd_m
libmagma.so.2.8:magma_dgelqf
libmagma.so.2.8:magma_dgelqf_gpu
libmagma.so.2.8:magma_dgels
libmagma.so.2.8:magma_dgels3_gpu
libmagma.so.2.8:magma_dgels_gpu
libmagma.so.2.8:magma_dgemm
libmagma.so.2.8:magma_dgemm_batched
libmagma.so.2.8:magma_dgemm_batched_core
libmagma.so.2.8:magma_dgemv
libmagma.so.2.8:magma_dgemv_kernel1
libmagma.so.2.8:magma_dgemv_kernel2
libmagma.so.2.8:magma_dgemv_kernel3
libmagma.so.2.8:magma_dgeqlf
libmagma.so.2.8:magma_dgeqp3
libmagma.so.2.8:magma_dgeqp3_gpu
libmagma.so.2.8:magma_dgeqr2_batched
libmagma.so.2.8:magma_dgeqr2_fused_batched
libmagma.so.2.8:magma_dgeqr2_fused_reg_batched
libmagma.so.2.8:magma_dgeqr2_fused_reg_medium_batched
libmagma.so.2.8:magma_dgeqr2_fused_reg_tall_batched
libmagma.so.2.8:magma_dgeqr2_fused_sm_batched
libmagma.so.2.8:magma_dgeqr2_gpu
libmagma.so.2.8:magma_dgeqr2x2_gpu
libmagma.so.2.8:magma_dgeqr2x3_gpu
libmagma.so.2.8:magma_dgeqr2x4_gpu
libmagma.so.2.8:magma_dgeqr2x_gpu
libmagma.so.2.8:magma_dgeqrf
libmagma.so.2.8:magma_dgeqrf2_gpu
libmagma.so.2.8:magma_dgeqrf2_mgpu
libmagma.so.2.8:magma_dgeqrf3_gpu
libmagma.so.2.8:magma_dgeqrf_batched
libmagma.so.2.8:magma_dgeqrf_batched_smallsq
libmagma.so.2.8:magma_dgeqrf_batched_work
libmagma.so.2.8:magma_dgeqrf_expert_batched
libmagma.so.2.8:magma_dgeqrf_expert_gpu_work
libmagma.so.2.8:magma_dgeqrf_gpu
libmagma.so.2.8:magma_dgeqrf_m
libmagma.so.2.8:magma_dgeqrf_ooc
libmagma.so.2.8:magma_dgeqrf_panel_batched
libmagma.so.2.8:magma_dgeqrf_panel_fused_update_batched
libmagma.so.2.8:magma_dgeqrf_panel_internal_batched
libmagma.so.2.8:magma_dgeqrs3_gpu
libmagma.so.2.8:magma_dgeqrs_gpu
libmagma.so.2.8:magma_dger
libmagma.so.2.8:magma_dgerbt_batched
libmagma.so.2.8:magma_dgerbt_gpu
libmagma.so.2.8:magma_dgerfs_nopiv_gpu
libmagma.so.2.8:magma_dgesdd
libmagma.so.2.8:magma_dgesv
libmagma.so.2.8:magma_dgesv_batched
libmagma.so.2.8:magma_dgesv_batched_small
libmagma.so.2.8:magma_dgesv_gpu
libmagma.so.2.8:magma_dgesv_nopiv_batched
libmagma.so.2.8:magma_dgesv_nopiv_gpu
libmagma.so.2.8:magma_dgesv_rbt
libmagma.so.2.8:magma_dgesv_rbt_batched
libmagma.so.2.8:magma_dgesvd
libmagma.so.2.8:magma_dgetf2_batched
libmagma.so.2.8:magma_dgetf2_fused_batched
libmagma.so.2.8:magma_dgetf2_fused_sm_vbatched
libmagma.so.2.8:magma_dgetf2_fused_vbatched
libmagma.so.2.8:magma_dgetf2_gpu
libmagma.so.2.8:magma_dgetf2_native
libmagma.so.2.8:magma_dgetf2_native_fused
libmagma.so.2.8:magma_dgetf2_nopiv
libmagma.so.2.8:magma_dgetf2_nopiv_batched
libmagma.so.2.8:magma_dgetf2_nopiv_internal_batched
libmagma.so.2.8:magma_dgetf2_vbatched
libmagma.so.2.8:magma_dgetf2trsm_2d_native
libmagma.so.2.8:magma_dgetf2trsm_batched
libmagma.so.2.8:magma_dgetmatrix_1D_col_bcyclic
libmagma.so.2.8:magma_dgetmatrix_1D_col_bcyclic_v1
libmagma.so.2.8:magma_dgetmatrix_1D_row_bcyclic
libmagma.so.2.8:magma_dgetmatrix_1D_row_bcyclic_v1
libmagma.so.2.8:magma_dgetrf
libmagma.so.2.8:magma_dgetrf2_mgpu
libmagma.so.2.8:magma_dgetrf_batched
libmagma.so.2.8:magma_dgetrf_batched_smallsq_noshfl
libmagma.so.2.8:magma_dgetrf_expert_gpu_work
libmagma.so.2.8:magma_dgetrf_gpu
libmagma.so.2.8:magma_dgetrf_gpu_expert
libmagma.so.2.8:magma_dgetrf_m
libmagma.so.2.8:magma_dgetrf_mgpu
libmagma.so.2.8:magma_dgetrf_native
libmagma.so.2.8:magma_dgetrf_nopiv
libmagma.so.2.8:magma_dgetrf_nopiv_batched
libmagma.so.2.8:magma_dgetrf_nopiv_gpu
libmagma.so.2.8:magma_dgetrf_panel_nopiv_batched
libmagma.so.2.8:magma_dgetrf_piv
libmagma.so.2.8:magma_dgetrf_recpanel_batched
libmagma.so.2.8:magma_dgetrf_recpanel_native
libmagma.so.2.8:magma_dgetrf_recpanel_nopiv_batched
libmagma.so.2.8:magma_dgetrf_recpanel_vbatched
libmagma.so.2.8:magma_dgetrf_vbatched
libmagma.so.2.8:magma_dgetrf_vbatched_max_nocheck
libmagma.so.2.8:magma_dgetrf_vbatched_max_nocheck_work
libmagma.so.2.8:magma_dgetri_gpu
libmagma.so.2.8:magma_dgetri_outofplace_batched
libmagma.so.2.8:magma_dgetrs_batched
libmagma.so.2.8:magma_dgetrs_gpu
libmagma.so.2.8:magma_dgetrs_nopiv_batched
libmagma.so.2.8:magma_dgetrs_nopiv_gpu
libmagma.so.2.8:magma_dgglse
libmagma.so.2.8:magma_dggrqf
libmagma.so.2.8:magma_dhgesv_iteref_gpu
libmagma.so.2.8:magma_dhtodhe
libmagma.so.2.8:magma_dhtodpo
libmagma.so.2.8:magma_diag_const
libmagma.so.2.8:magma_dirange
libmagma.so.2.8:magma_direct_const
libmagma.so.2.8:magma_dist_const
libmagma.so.2.8:magma_dlabrd_gpu
libmagma.so.2.8:magma_dlaex0
libmagma.so.2.8:magma_dlaex0_m
libmagma.so.2.8:magma_dlaex1
libmagma.so.2.8:magma_dlaex1_m
libmagma.so.2.8:magma_dlaex3
libmagma.so.2.8:magma_dlaex3_m
libmagma.so.2.8:magma_dlahr2
libmagma.so.2.8:magma_dlahr2_m
libmagma.so.2.8:magma_dlahru
libmagma.so.2.8:magma_dlahru_m
libmagma.so.2.8:magma_dlaln2
libmagma.so.2.8:magma_dlaqps
libmagma.so.2.8:magma_dlaqps2_gpu
libmagma.so.2.8:magma_dlaqps_gpu
libmagma.so.2.8:magma_dlaqtrsd
libmagma.so.2.8:magma_dlarf_fused_reg_batched
libmagma.so.2.8:magma_dlarf_fused_reg_medium_batched
libmagma.so.2.8:magma_dlarf_fused_reg_tall_batched
libmagma.so.2.8:magma_dlarf_fused_sm_batched
libmagma.so.2.8:magma_dlarf_gpu
libmagma.so.2.8:magma_dlarf_sm
libmagma.so.2.8:magma_dlarfb2_gpu
libmagma.so.2.8:magma_dlarfb_gemm_batched
libmagma.so.2.8:magma_dlarfb_gemm_internal_batched
libmagma.so.2.8:magma_dlarfb_gpu
libmagma.so.2.8:magma_dlarfb_gpu_gemm
libmagma.so.2.8:magma_dlarfb_gpu_gemm_v1
libmagma.so.2.8:magma_dlarfb_gpu_v1
libmagma.so.2.8:magma_dlarfbx_gpu
libmagma.so.2.8:magma_dlarfbx_gpu_v1
libmagma.so.2.8:magma_dlarfg_gpu
libmagma.so.2.8:magma_dlarfg_gpu_v1
libmagma.so.2.8:magma_dlarfgtx_gpu
libmagma.so.2.8:magma_dlarfgtx_gpu_v1
libmagma.so.2.8:magma_dlarfgx_gpu
libmagma.so.2.8:magma_dlarfgx_gpu_v1
libmagma.so.2.8:magma_dlarft_batched
libmagma.so.2.8:magma_dlarft_internal_batched
libmagma.so.2.8:magma_dlarft_sm32x32_batched
libmagma.so.2.8:magma_dlarfx_gpu
libmagma.so.2.8:magma_dlarfx_gpu_v1
libmagma.so.2.8:magma_dlarfy
libmagma.so.2.8:magma_dlaswp_columnserial
libmagma.so.2.8:magma_dlaswp_columnserial_batched
libmagma.so.2.8:magma_dlaswp_left_rowparallel_vbatched
libmagma.so.2.8:magma_dlaswp_left_rowserial_vbatched
libmagma.so.2.8:magma_dlaswp_right_rowparallel_vbatched
libmagma.so.2.8:magma_dlaswp_right_rowserial_vbatched
libmagma.so.2.8:magma_dlaswp_rowparallel_batched
libmagma.so.2.8:magma_dlaswp_rowparallel_native
libmagma.so.2.8:magma_dlaswp_rowserial_batched
libmagma.so.2.8:magma_dlaswp_rowserial_native
libmagma.so.2.8:magma_dlasyf_gpu
libmagma.so.2.8:magma_dlatrd
libmagma.so.2.8:magma_dlatrd2
libmagma.so.2.8:magma_dlatrd_mgpu
libmagma.so.2.8:magma_dlauum
libmagma.so.2.8:magma_dlauum_gpu
libmagma.so.2.8:magma_dmake_lwork
libmagma.so.2.8:magma_dmove_eig
libmagma.so.2.8:magma_dnan_inf
libmagma.so.2.8:magma_dnan_inf_gpu
libmagma.so.2.8:magma_dnrm2
libmagma.so.2.8:magma_dnrm2_adjust_kernel
libmagma.so.2.8:magma_dorgbr
libmagma.so.2.8:magma_dorghr
libmagma.so.2.8:magma_dorghr_m
libmagma.so.2.8:magma_dorglq
libmagma.so.2.8:magma_dorgqr
libmagma.so.2.8:magma_dorgqr2
libmagma.so.2.8:magma_dorgqr_2stage_gpu
libmagma.so.2.8:magma_dorgqr_gpu
libmagma.so.2.8:magma_dorgqr_m
libmagma.so.2.8:magma_dorgtr
libmagma.so.2.8:magma_dormbr
libmagma.so.2.8:magma_dormlq
libmagma.so.2.8:magma_dormql
libmagma.so.2.8:magma_dormql2_gpu
libmagma.so.2.8:magma_dormqr
libmagma.so.2.8:magma_dormqr2_gpu
libmagma.so.2.8:magma_dormqr_2stage_gpu
libmagma.so.2.8:magma_dormqr_gpu
libmagma.so.2.8:magma_dormqr_m
libmagma.so.2.8:magma_dormrq
libmagma.so.2.8:magma_dormtr
libmagma.so.2.8:magma_dormtr_gpu
libmagma.so.2.8:magma_dormtr_m
libmagma.so.2.8:magma_dpanel_to_q
libmagma.so.2.8:magma_dposv
libmagma.so.2.8:magma_dposv_batched
libmagma.so.2.8:magma_dposv_gpu
libmagma.so.2.8:magma_dpotf2_batched
libmagma.so.2.8:magma_dpotf2_gpu
libmagma.so.2.8:magma_dpotf2_lpin
libmagma.so.2.8:magma_dpotf2_lpout
libmagma.so.2.8:magma_dpotf2_native
libmagma.so.2.8:magma_dpotf2_vbatched
libmagma.so.2.8:magma_dpotrf
libmagma.so.2.8:magma_dpotrf3_mgpu
libmagma.so.2.8:magma_dpotrf_batched
libmagma.so.2.8:magma_dpotrf_expert
libmagma.so.2.8:magma_dpotrf_expert_gpu
libmagma.so.2.8:magma_dpotrf_expert_gpu_work
libmagma.so.2.8:magma_dpotrf_gpu
libmagma.so.2.8:magma_dpotrf_lg_batched
libmagma.so.2.8:magma_dpotrf_lg_vbatched
libmagma.so.2.8:magma_dpotrf_lpin_batched
libmagma.so.2.8:magma_dpotrf_lpout_batched
libmagma.so.2.8:magma_dpotrf_lpout_vbatched
libmagma.so.2.8:magma_dpotrf_m
libmagma.so.2.8:magma_dpotrf_mgpu
libmagma.so.2.8:magma_dpotrf_native
libmagma.so.2.8:magma_dpotrf_panel_batched
libmagma.so.2.8:magma_dpotrf_panel_vbatched
libmagma.so.2.8:magma_dpotrf_recpanel_batched
libmagma.so.2.8:magma_dpotrf_rectile_batched
libmagma.so.2.8:magma_dpotrf_rectile_native
libmagma.so.2.8:magma_dpotrf_vbatched
libmagma.so.2.8:magma_dpotrf_vbatched_max_nocheck
libmagma.so.2.8:magma_dpotri
libmagma.so.2.8:magma_dpotri_gpu
libmagma.so.2.8:magma_dpotrs_batched
libmagma.so.2.8:magma_dpotrs_gpu
libmagma.so.2.8:magma_dprint
libmagma.so.2.8:magma_dprint_gpu
libmagma.so.2.8:magma_dq_to_panel
libmagma.so.2.8:magma_drecommend_cublas_gemm_batched
libmagma.so.2.8:magma_drecommend_cublas_gemm_stream
libmagma.so.2.8:magma_drot
libmagma.so.2.8:magma_drotg
libmagma.so.2.8:magma_drotm
libmagma.so.2.8:magma_drotmg
libmagma.so.2.8:magma_dsbtype1cb
libmagma.so.2.8:magma_dsbtype2cb
libmagma.so.2.8:magma_dsbtype3cb
libmagma.so.2.8:magma_dscal
libmagma.so.2.8:magma_dscal_dger_batched
libmagma.so.2.8:magma_dscal_dger_native
libmagma.so.2.8:magma_dscal_dger_vbatched
libmagma.so.2.8:magma_dset_pointer
libmagma.so.2.8:magma_dset_pointer_var_cc
libmagma.so.2.8:magma_dsetmatrix_1D_col_bcyclic
libmagma.so.2.8:magma_dsetmatrix_1D_col_bcyclic_v1
libmagma.so.2.8:magma_dsetmatrix_1D_row_bcyclic
libmagma.so.2.8:magma_dsetmatrix_1D_row_bcyclic_v1
libmagma.so.2.8:magma_dsetvector_const
libmagma.so.2.8:magma_dsgeqrsv_gpu
libmagma.so.2.8:magma_dsgesv_gpu
libmagma.so.2.8:magma_dsgesv_iteref_gpu
libmagma.so.2.8:magma_dsgetrs_gpu
libmagma.so.2.8:magma_dshposv_gpu
libmagma.so.2.8:magma_dshposv_gpu_expert
libmagma.so.2.8:magma_dshposv_native
libmagma.so.2.8:magma_dsidi
libmagma.so.2.8:magma_dsposv_gpu
libmagma.so.2.8:magma_dssysv_gpu
libmagma.so.2.8:magma_dstedx
libmagma.so.2.8:magma_dstedx_m
libmagma.so.2.8:magma_dswap
libmagma.so.2.8:magma_dswap_batched
libmagma.so.2.8:magma_dswap_native
libmagma.so.2.8:magma_dswap_vbatched
libmagma.so.2.8:magma_dsyevd
libmagma.so.2.8:magma_dsyevd_gpu
libmagma.so.2.8:magma_dsyevd_m
libmagma.so.2.8:magma_dsyevdx
libmagma.so.2.8:magma_dsyevdx_2stage
libmagma.so.2.8:magma_dsyevdx_2stage_m
libmagma.so.2.8:magma_dsyevdx_getworksize
libmagma.so.2.8:magma_dsyevdx_gpu
libmagma.so.2.8:magma_dsyevdx_m
libmagma.so.2.8:magma_dsygst
libmagma.so.2.8:magma_dsygst_gpu
libmagma.so.2.8:magma_dsygst_m
libmagma.so.2.8:magma_dsygvd
libmagma.so.2.8:magma_dsygvd_m
libmagma.so.2.8:magma_dsygvdx
libmagma.so.2.8:magma_dsygvdx_2stage
libmagma.so.2.8:magma_dsygvdx_2stage_m
libmagma.so.2.8:magma_dsygvdx_m
libmagma.so.2.8:magma_dsymm
libmagma.so.2.8:magma_dsymv
libmagma.so.2.8:magma_dsyr
libmagma.so.2.8:magma_dsyr2
libmagma.so.2.8:magma_dsyr2k
libmagma.so.2.8:magma_dsyr2k_mgpu
libmagma.so.2.8:magma_dsyrk
libmagma.so.2.8:magma_dsyrk_batched
libmagma.so.2.8:magma_dsyrk_mgpu
libmagma.so.2.8:magma_dsyrk_mgpu2
libmagma.so.2.8:magma_dsysv
libmagma.so.2.8:magma_dsysv_nopiv_gpu
libmagma.so.2.8:magma_dsytrd
libmagma.so.2.8:magma_dsytrd2_gpu
libmagma.so.2.8:magma_dsytrd_gpu
libmagma.so.2.8:magma_dsytrd_mgpu
libmagma.so.2.8:magma_dsytrd_sb2st
libmagma.so.2.8:magma_dsytrd_sy2sb
libmagma.so.2.8:magma_dsytrd_sy2sb_mgpu
libmagma.so.2.8:magma_dsytrf
libmagma.so.2.8:magma_dsytrf_aasen
libmagma.so.2.8:magma_dsytrf_gpu
libmagma.so.2.8:magma_dsytrf_nopiv
libmagma.so.2.8:magma_dsytrf_nopiv_cpu
libmagma.so.2.8:magma_dsytrf_nopiv_gpu
libmagma.so.2.8:magma_dsytrs_gpu
libmagma.so.2.8:magma_dsytrs_nopiv_gpu
libmagma.so.2.8:magma_dtrevc3
libmagma.so.2.8:magma_dtrevc3_mt
libmagma.so.2.8:magma_dtrmm
libmagma.so.2.8:magma_dtrmv
libmagma.so.2.8:magma_dtrmv_kernel
libmagma.so.2.8:magma_dtrmv_kernel2
libmagma.so.2.8:magma_dtrmv_tkernel
libmagma.so.2.8:magma_dtrsm
libmagma.so.2.8:magma_dtrsm_m
libmagma.so.2.8:magma_dtrsv
libmagma.so.2.8:magma_dtrtri
libmagma.so.2.8:magma_dtrtri_gpu
libmagma.so.2.8:magma_dvrange
libmagma.so.2.8:magma_dxgesv_gmres_gpu
libmagma.so.2.8:magma_dzasum
libmagma.so.2.8:magma_dznrm2
libmagma.so.2.8:magma_dznrm2_adjust_kernel
libmagma.so.2.8:magma_event_create
libmagma.so.2.8:magma_event_create_untimed
libmagma.so.2.8:magma_event_destroy
libmagma.so.2.8:magma_event_record
libmagma.so.2.8:magma_event_sync
libmagma.so.2.8:magma_finalize
libmagma.so.2.8:magma_free_cpu
libmagma.so.2.8:magma_free_internal
libmagma.so.2.8:magma_free_pinned_internal
libmagma.so.2.8:magma_gbtrf_adjust_ju
libmagma.so.2.8:magma_gemm_vbatched_checker
libmagma.so.2.8:magma_gemv_vbatched_checker
libmagma.so.2.8:magma_get_cbulge_VTsiz
libmagma.so.2.8:magma_get_cbulge_gcperf
libmagma.so.2.8:magma_get_cbulge_lq2
libmagma.so.2.8:magma_get_cbulge_mgpu_nb
libmagma.so.2.8:magma_get_cbulge_nb
libmagma.so.2.8:magma_get_cbulge_vblksiz
libmagma.so.2.8:magma_get_cgbtrf_batched_params
libmagma.so.2.8:magma_get_cgebrd_nb
libmagma.so.2.8:magma_get_cgehrd_nb
libmagma.so.2.8:magma_get_cgelqf_nb
libmagma.so.2.8:magma_get_cgemm_batched_ntcol
libmagma.so.2.8:magma_get_cgemm_batched_smallsq_limit
libmagma.so.2.8:magma_get_cgeqlf_nb
libmagma.so.2.8:magma_get_cgeqp3_nb
libmagma.so.2.8:magma_get_cgeqr2_fused_sm_batched_nthreads
libmagma.so.2.8:magma_get_cgeqrf_batched_nb
libmagma.so.2.8:magma_get_cgeqrf_batched_ntcol
libmagma.so.2.8:magma_get_cgeqrf_nb
libmagma.so.2.8:magma_get_cgesvd_nb
libmagma.so.2.8:magma_get_cgetrf_batched_nbparam
libmagma.so.2.8:magma_get_cgetrf_batched_ntcol
libmagma.so.2.8:magma_get_cgetrf_native_nb
libmagma.so.2.8:magma_get_cgetrf_nb
libmagma.so.2.8:magma_get_cgetrf_vbatched_nbparam
libmagma.so.2.8:magma_get_cgetri_batched_ntcol
libmagma.so.2.8:magma_get_cgetri_nb
libmagma.so.2.8:magma_get_chegst_m_nb
libmagma.so.2.8:magma_get_chegst_nb
libmagma.so.2.8:magma_get_chetrd_nb
libmagma.so.2.8:magma_get_chetrf_aasen_nb
libmagma.so.2.8:magma_get_chetrf_nb
libmagma.so.2.8:magma_get_chetrf_nopiv_nb
libmagma.so.2.8:magma_get_cpotrf_batched_crossover
libmagma.so.2.8:magma_get_cpotrf_batched_nbparam
libmagma.so.2.8:magma_get_cpotrf_nb
libmagma.so.2.8:magma_get_cpotrf_right_nb
libmagma.so.2.8:magma_get_cpotrf_vbatched_crossover
libmagma.so.2.8:magma_get_cpu_sgetrf_time
libmagma.so.2.8:magma_get_ctrsm_batched_stop_nb
libmagma.so.2.8:magma_get_ctrsm_m_nb
libmagma.so.2.8:magma_get_dbulge_VTsiz
libmagma.so.2.8:magma_get_dbulge_gcperf
libmagma.so.2.8:magma_get_dbulge_lq2
libmagma.so.2.8:magma_get_dbulge_mgpu_nb
libmagma.so.2.8:magma_get_dbulge_nb
libmagma.so.2.8:magma_get_dbulge_vblksiz
libmagma.so.2.8:magma_get_dgbtrf_batched_params
libmagma.so.2.8:magma_get_dgebrd_nb
libmagma.so.2.8:magma_get_dgehrd_nb
libmagma.so.2.8:magma_get_dgelqf_nb
libmagma.so.2.8:magma_get_dgemm_batched_ntcol
libmagma.so.2.8:magma_get_dgemm_batched_smallsq_limit
libmagma.so.2.8:magma_get_dgeqlf_nb
libmagma.so.2.8:magma_get_dgeqp3_nb
libmagma.so.2.8:magma_get_dgeqr2_fused_sm_batched_nthreads
libmagma.so.2.8:magma_get_dgeqrf_batched_nb
libmagma.so.2.8:magma_get_dgeqrf_batched_ntcol
libmagma.so.2.8:magma_get_dgeqrf_nb
libmagma.so.2.8:magma_get_dgesvd_nb
libmagma.so.2.8:magma_get_dgetrf_batched_nbparam
libmagma.so.2.8:magma_get_dgetrf_batched_ntcol
libmagma.so.2.8:magma_get_dgetrf_native_nb
libmagma.so.2.8:magma_get_dgetrf_nb
libmagma.so.2.8:magma_get_dgetrf_vbatched_nbparam
libmagma.so.2.8:magma_get_dgetri_batched_ntcol
libmagma.so.2.8:magma_get_dgetri_nb
libmagma.so.2.8:magma_get_dlaed3_k
libmagma.so.2.8:magma_get_dlaex3_m_k
libmagma.so.2.8:magma_get_dlaex3_m_nb
libmagma.so.2.8:magma_get_dpotrf_batched_crossover
libmagma.so.2.8:magma_get_dpotrf_batched_nbparam
libmagma.so.2.8:magma_get_dpotrf_nb
libmagma.so.2.8:magma_get_dpotrf_right_nb
libmagma.so.2.8:magma_get_dpotrf_vbatched_crossover
libmagma.so.2.8:magma_get_dsygst_m_nb
libmagma.so.2.8:magma_get_dsygst_nb
libmagma.so.2.8:magma_get_dsytrd_nb
libmagma.so.2.8:magma_get_dsytrf_aasen_nb
libmagma.so.2.8:magma_get_dsytrf_nb
libmagma.so.2.8:magma_get_dsytrf_nopiv_nb
libmagma.so.2.8:magma_get_dtrsm_batched_stop_nb
libmagma.so.2.8:magma_get_dtrsm_m_nb
libmagma.so.2.8:magma_get_gemex_rankk_time
libmagma.so.2.8:magma_get_gemm_shape
libmagma.so.2.8:magma_get_hgetrf_nb
libmagma.so.2.8:magma_get_lapack_numthreads
libmagma.so.2.8:magma_get_omp_numthreads
libmagma.so.2.8:magma_get_parallel_numthreads
libmagma.so.2.8:magma_get_sbulge_VTsiz
libmagma.so.2.8:magma_get_sbulge_gcperf
libmagma.so.2.8:magma_get_sbulge_lq2
libmagma.so.2.8:magma_get_sbulge_mgpu_nb
libmagma.so.2.8:magma_get_sbulge_nb
libmagma.so.2.8:magma_get_sbulge_vblksiz
libmagma.so.2.8:magma_get_sgbtrf_batched_params
libmagma.so.2.8:magma_get_sgebrd_nb
libmagma.so.2.8:magma_get_sgehrd_nb
libmagma.so.2.8:magma_get_sgelqf_nb
libmagma.so.2.8:magma_get_sgemm_batched_ntcol
libmagma.so.2.8:magma_get_sgemm_batched_smallsq_limit
libmagma.so.2.8:magma_get_sgeqlf_nb
libmagma.so.2.8:magma_get_sgeqp3_nb
libmagma.so.2.8:magma_get_sgeqr2_fused_sm_batched_nthreads
libmagma.so.2.8:magma_get_sgeqrf_batched_nb
libmagma.so.2.8:magma_get_sgeqrf_batched_ntcol
libmagma.so.2.8:magma_get_sgeqrf_nb
libmagma.so.2.8:magma_get_sgesvd_nb
libmagma.so.2.8:magma_get_sgetrf_batched_nbparam
libmagma.so.2.8:magma_get_sgetrf_batched_ntcol
libmagma.so.2.8:magma_get_sgetrf_native_nb
libmagma.so.2.8:magma_get_sgetrf_nb
libmagma.so.2.8:magma_get_sgetrf_vbatched_nbparam
libmagma.so.2.8:magma_get_sgetri_batched_ntcol
libmagma.so.2.8:magma_get_sgetri_nb
libmagma.so.2.8:magma_get_slaed3_k
libmagma.so.2.8:magma_get_slaex3_m_k
libmagma.so.2.8:magma_get_slaex3_m_nb
libmagma.so.2.8:magma_get_smlsize_divideconquer
libmagma.so.2.8:magma_get_spotrf_batched_crossover
libmagma.so.2.8:magma_get_spotrf_batched_nbparam
libmagma.so.2.8:magma_get_spotrf_nb
libmagma.so.2.8:magma_get_spotrf_right_nb
libmagma.so.2.8:magma_get_spotrf_vbatched_crossover
libmagma.so.2.8:magma_get_ssygst_m_nb
libmagma.so.2.8:magma_get_ssygst_nb
libmagma.so.2.8:magma_get_ssytrd_nb
libmagma.so.2.8:magma_get_ssytrf_aasen_nb
libmagma.so.2.8:magma_get_ssytrf_nb
libmagma.so.2.8:magma_get_ssytrf_nopiv_nb
libmagma.so.2.8:magma_get_strsm_batched_stop_nb
libmagma.so.2.8:magma_get_strsm_m_nb
libmagma.so.2.8:magma_get_xgetrf_nb
libmagma.so.2.8:magma_get_zbulge_VTsiz
libmagma.so.2.8:magma_get_zbulge_gcperf
libmagma.so.2.8:magma_get_zbulge_lq2
libmagma.so.2.8:magma_get_zbulge_mgpu_nb
libmagma.so.2.8:magma_get_zbulge_nb
libmagma.so.2.8:magma_get_zbulge_vblksiz
libmagma.so.2.8:magma_get_zgbtrf_batched_params
libmagma.so.2.8:magma_get_zgebrd_nb
libmagma.so.2.8:magma_get_zgehrd_nb
libmagma.so.2.8:magma_get_zgelqf_nb
libmagma.so.2.8:magma_get_zgemm_batched_ntcol
libmagma.so.2.8:magma_get_zgemm_batched_smallsq_limit
libmagma.so.2.8:magma_get_zgeqlf_nb
libmagma.so.2.8:magma_get_zgeqp3_nb
libmagma.so.2.8:magma_get_zgeqr2_fused_sm_batched_nthreads
libmagma.so.2.8:magma_get_zgeqrf_batched_nb
libmagma.so.2.8:magma_get_zgeqrf_batched_ntcol
libmagma.so.2.8:magma_get_zgeqrf_nb
libmagma.so.2.8:magma_get_zgesvd_nb
libmagma.so.2.8:magma_get_zgetrf_batched_nbparam
libmagma.so.2.8:magma_get_zgetrf_batched_ntcol
libmagma.so.2.8:magma_get_zgetrf_native_nb
libmagma.so.2.8:magma_get_zgetrf_nb
libmagma.so.2.8:magma_get_zgetrf_vbatched_nbparam
libmagma.so.2.8:magma_get_zgetri_batched_ntcol
libmagma.so.2.8:magma_get_zgetri_nb
libmagma.so.2.8:magma_get_zhegst_m_nb
libmagma.so.2.8:magma_get_zhegst_nb
libmagma.so.2.8:magma_get_zhetrd_nb
libmagma.so.2.8:magma_get_zhetrf_aasen_nb
libmagma.so.2.8:magma_get_zhetrf_nb
libmagma.so.2.8:magma_get_zhetrf_nopiv_nb
libmagma.so.2.8:magma_get_zpotrf_batched_crossover
libmagma.so.2.8:magma_get_zpotrf_batched_nbparam
libmagma.so.2.8:magma_get_zpotrf_nb
libmagma.so.2.8:magma_get_zpotrf_right_nb
libmagma.so.2.8:magma_get_zpotrf_vbatched_crossover
libmagma.so.2.8:magma_get_ztrsm_batched_stop_nb
libmagma.so.2.8:magma_get_ztrsm_m_nb
libmagma.so.2.8:magma_getdevice
libmagma.so.2.8:magma_getdevice_arch
libmagma.so.2.8:magma_getdevice_multiprocessor_count
libmagma.so.2.8:magma_getdevice_num_threads_block
libmagma.so.2.8:magma_getdevice_num_threads_multiprocessor
libmagma.so.2.8:magma_getdevice_shmem_block
libmagma.so.2.8:magma_getdevice_shmem_block_optin
libmagma.so.2.8:magma_getdevice_shmem_multiprocessor
libmagma.so.2.8:magma_getdevices
libmagma.so.2.8:magma_getmatrix_async_internal
libmagma.so.2.8:magma_getmatrix_internal
libmagma.so.2.8:magma_getmatrix_v1_internal
libmagma.so.2.8:magma_getrf_vbatched_checker
libmagma.so.2.8:magma_getrf_vbatched_setup
libmagma.so.2.8:magma_getvector_async_internal
libmagma.so.2.8:magma_getvector_internal
libmagma.so.2.8:magma_getvector_v1_internal
libmagma.so.2.8:magma_hemm_vbatched_checker
libmagma.so.2.8:magma_hemv_vbatched_checker
libmagma.so.2.8:magma_her2k_vbatched_checker
libmagma.so.2.8:magma_herk_vbatched_checker
libmagma.so.2.8:magma_hgemm
libmagma.so.2.8:magma_hgemmx
libmagma.so.2.8:magma_hgetrf_gpu
libmagma.so.2.8:magma_hipblasGetErrorString
libmagma.so.2.8:magma_hset_pointer
libmagma.so.2.8:magma_htgetrf_gpu
libmagma.so.2.8:magma_icamax
libmagma.so.2.8:magma_icamax_batched
libmagma.so.2.8:magma_icamax_native
libmagma.so.2.8:magma_icamax_vbatched
libmagma.so.2.8:magma_icamin
libmagma.so.2.8:magma_idamax
libmagma.so.2.8:magma_idamax_batched
libmagma.so.2.8:magma_idamax_native
libmagma.so.2.8:magma_idamax_vbatched
libmagma.so.2.8:magma_idamin
libmagma.so.2.8:magma_idisplace_pointers
libmagma.so.2.8:magma_imax_size_1
libmagma.so.2.8:magma_imax_size_2
libmagma.so.2.8:magma_imax_size_3
libmagma.so.2.8:magma_indices_1D_bcyclic
libmagma.so.2.8:magma_init
libmagma.so.2.8:magma_iprint
libmagma.so.2.8:magma_iprint_gpu
libmagma.so.2.8:magma_is_devptr
libmagma.so.2.8:magma_isamax
libmagma.so.2.8:magma_isamax_batched
libmagma.so.2.8:magma_isamax_native
libmagma.so.2.8:magma_isamax_vbatched
libmagma.so.2.8:magma_isamin
libmagma.so.2.8:magma_iset_pointer
libmagma.so.2.8:magma_isum_reduce
libmagma.so.2.8:magma_ivec_add
libmagma.so.2.8:magma_ivec_addc
libmagma.so.2.8:magma_ivec_ceildiv
libmagma.so.2.8:magma_ivec_max
libmagma.so.2.8:magma_ivec_maxc
libmagma.so.2.8:magma_ivec_min_vv
libmagma.so.2.8:magma_ivec_minc
libmagma.so.2.8:magma_ivec_mul
libmagma.so.2.8:magma_ivec_mulc
libmagma.so.2.8:magma_ivec_roundup
libmagma.so.2.8:magma_ivec_setc
libmagma.so.2.8:magma_izamax
libmagma.so.2.8:magma_izamax_batched
libmagma.so.2.8:magma_izamax_native
libmagma.so.2.8:magma_izamax_vbatched
libmagma.so.2.8:magma_izamin
libmagma.so.2.8:magma_malloc
libmagma.so.2.8:magma_malloc_cpu
libmagma.so.2.8:magma_malloc_pinned
libmagma.so.2.8:magma_mem_info
libmagma.so.2.8:magma_mem_size
libmagma.so.2.8:magma_memset
libmagma.so.2.8:magma_memset_async
libmagma.so.2.8:magma_norm_const
libmagma.so.2.8:magma_num_gpus
libmagma.so.2.8:magma_order_const
libmagma.so.2.8:magma_pack_const
libmagma.so.2.8:magma_potrf_vbatched_checker
libmagma.so.2.8:magma_prefix_sum_inplace
libmagma.so.2.8:magma_prefix_sum_inplace_w
libmagma.so.2.8:magma_prefix_sum_outofplace
libmagma.so.2.8:magma_prefix_sum_outofplace_w
libmagma.so.2.8:magma_print_environment
libmagma.so.2.8:magma_queue_create_from_hip_internal
libmagma.so.2.8:magma_queue_create_internal
libmagma.so.2.8:magma_queue_create_v1_internal
libmagma.so.2.8:magma_queue_destroy_internal
libmagma.so.2.8:magma_queue_get_device
libmagma.so.2.8:magma_queue_get_hip_stream
libmagma.so.2.8:magma_queue_get_hipblas_handle
libmagma.so.2.8:magma_queue_get_hipsparse_handle
libmagma.so.2.8:magma_queue_sync_internal
libmagma.so.2.8:magma_queue_wait_event
libmagma.so.2.8:magma_range_const
libmagma.so.2.8:magma_s_isinf
libmagma.so.2.8:magma_s_isnan
libmagma.so.2.8:magma_s_isnan_inf
libmagma.so.2.8:magma_sasum
libmagma.so.2.8:magma_saxpy
libmagma.so.2.8:magma_sbulge_applyQ_v2
libmagma.so.2.8:magma_sbulge_applyQ_v2_m
libmagma.so.2.8:magma_sbulge_back
libmagma.so.2.8:magma_sbulge_back_m
libmagma.so.2.8:magma_sbulge_getlwstg2
libmagma.so.2.8:magma_sbulge_getstg2size
libmagma.so.2.8:magma_scasum
libmagma.so.2.8:magma_scnrm2
libmagma.so.2.8:magma_scnrm2_adjust_kernel
libmagma.so.2.8:magma_scomputecolumn_batched
libmagma.so.2.8:magma_scopy
libmagma.so.2.8:magma_sdisplace_pointers
libmagma.so.2.8:magma_sdisplace_pointers_var_cc
libmagma.so.2.8:magma_sdisplace_pointers_var_cv
libmagma.so.2.8:magma_sdisplace_pointers_var_vc
libmagma.so.2.8:magma_sdisplace_pointers_var_vv
libmagma.so.2.8:magma_sdot
libmagma.so.2.8:magma_sdtohpo
libmagma.so.2.8:magma_set_lapack_numthreads
libmagma.so.2.8:magma_set_omp_numthreads
libmagma.so.2.8:magma_setdevice
libmagma.so.2.8:magma_setmatrix_async_internal
libmagma.so.2.8:magma_setmatrix_internal
libmagma.so.2.8:magma_setmatrix_v1_internal
libmagma.so.2.8:magma_setvector_async_internal
libmagma.so.2.8:magma_setvector_internal
libmagma.so.2.8:magma_setvector_v1_internal
libmagma.so.2.8:magma_sgbsv_batched
libmagma.so.2.8:magma_sgbsv_batched_fused_sm
libmagma.so.2.8:magma_sgbsv_batched_strided
libmagma.so.2.8:magma_sgbsv_batched_strided_work
libmagma.so.2.8:magma_sgbsv_batched_work
libmagma.so.2.8:magma_sgbsv_native
libmagma.so.2.8:magma_sgbsv_native_work
libmagma.so.2.8:magma_sgbtf2_native
libmagma.so.2.8:magma_sgbtf2_native_v2
libmagma.so.2.8:magma_sgbtf2_native_v2_work
libmagma.so.2.8:magma_sgbtf2_native_work
libmagma.so.2.8:magma_sgbtf2_scal_ger_batched
libmagma.so.2.8:magma_sgbtf2_sswap_batched
libmagma.so.2.8:magma_sgbtrf_batched
libmagma.so.2.8:magma_sgbtrf_batched_fused_sm
libmagma.so.2.8:magma_sgbtrf_batched_sliding_window_loopin
libmagma.so.2.8:magma_sgbtrf_batched_sliding_window_loopout
libmagma.so.2.8:magma_sgbtrf_batched_strided
libmagma.so.2.8:magma_sgbtrf_batched_strided_work
libmagma.so.2.8:magma_sgbtrf_batched_work
libmagma.so.2.8:magma_sgbtrf_native
libmagma.so.2.8:magma_sgbtrf_native_work
libmagma.so.2.8:magma_sgbtrf_set_fillin
libmagma.so.2.8:magma_sgbtrs_batched
libmagma.so.2.8:magma_sgbtrs_batched_strided
libmagma.so.2.8:magma_sgbtrs_lower_batched
libmagma.so.2.8:magma_sgbtrs_upper_batched
libmagma.so.2.8:magma_sgebrd
libmagma.so.2.8:magma_sgeev
libmagma.so.2.8:magma_sgeev_m
libmagma.so.2.8:magma_sgegqr_gpu
libmagma.so.2.8:magma_sgehrd
libmagma.so.2.8:magma_sgehrd2
libmagma.so.2.8:magma_sgehrd_m
libmagma.so.2.8:magma_sgelqf
libmagma.so.2.8:magma_sgelqf_gpu
libmagma.so.2.8:magma_sgels
libmagma.so.2.8:magma_sgels3_gpu
libmagma.so.2.8:magma_sgels_gpu
libmagma.so.2.8:magma_sgemm
libmagma.so.2.8:magma_sgemm_batched
libmagma.so.2.8:magma_sgemm_batched_core
libmagma.so.2.8:magma_sgemv
libmagma.so.2.8:magma_sgemv_kernel1
libmagma.so.2.8:magma_sgemv_kernel2
libmagma.so.2.8:magma_sgemv_kernel3
libmagma.so.2.8:magma_sgeqlf
libmagma.so.2.8:magma_sgeqp3
libmagma.so.2.8:magma_sgeqp3_gpu
libmagma.so.2.8:magma_sgeqr2_batched
libmagma.so.2.8:magma_sgeqr2_fused_batched
libmagma.so.2.8:magma_sgeqr2_fused_reg_batched
libmagma.so.2.8:magma_sgeqr2_fused_reg_medium_batched
libmagma.so.2.8:magma_sgeqr2_fused_reg_tall_batched
libmagma.so.2.8:magma_sgeqr2_fused_sm_batched
libmagma.so.2.8:magma_sgeqr2_gpu
libmagma.so.2.8:magma_sgeqr2x2_gpu
libmagma.so.2.8:magma_sgeqr2x3_gpu
libmagma.so.2.8:magma_sgeqr2x4_gpu
libmagma.so.2.8:magma_sgeqr2x_gpu
libmagma.so.2.8:magma_sgeqrf
libmagma.so.2.8:magma_sgeqrf2_gpu
libmagma.so.2.8:magma_sgeqrf2_mgpu
libmagma.so.2.8:magma_sgeqrf3_gpu
libmagma.so.2.8:magma_sgeqrf_batched
libmagma.so.2.8:magma_sgeqrf_batched_smallsq
libmagma.so.2.8:magma_sgeqrf_batched_work
libmagma.so.2.8:magma_sgeqrf_expert_batched
libmagma.so.2.8:magma_sgeqrf_expert_gpu_work
libmagma.so.2.8:magma_sgeqrf_gpu
libmagma.so.2.8:magma_sgeqrf_m
libmagma.so.2.8:magma_sgeqrf_ooc
libmagma.so.2.8:magma_sgeqrf_panel_batched
libmagma.so.2.8:magma_sgeqrf_panel_fused_update_batched
libmagma.so.2.8:magma_sgeqrf_panel_internal_batched
libmagma.so.2.8:magma_sgeqrs3_gpu
libmagma.so.2.8:magma_sgeqrs_gpu
libmagma.so.2.8:magma_sger
libmagma.so.2.8:magma_sgerbt_batched
libmagma.so.2.8:magma_sgerbt_gpu
libmagma.so.2.8:magma_sgerfs_nopiv_gpu
libmagma.so.2.8:magma_sgesdd
libmagma.so.2.8:magma_sgesv
libmagma.so.2.8:magma_sgesv_batched
libmagma.so.2.8:magma_sgesv_batched_small
libmagma.so.2.8:magma_sgesv_gpu
libmagma.so.2.8:magma_sgesv_nopiv_batched
libmagma.so.2.8:magma_sgesv_nopiv_gpu
libmagma.so.2.8:magma_sgesv_rbt
libmagma.so.2.8:magma_sgesv_rbt_batched
libmagma.so.2.8:magma_sgesvd
libmagma.so.2.8:magma_sgetf2_batched
libmagma.so.2.8:magma_sgetf2_fused_batched
libmagma.so.2.8:magma_sgetf2_fused_sm_vbatched
libmagma.so.2.8:magma_sgetf2_fused_vbatched
libmagma.so.2.8:magma_sgetf2_gpu
libmagma.so.2.8:magma_sgetf2_native
libmagma.so.2.8:magma_sgetf2_native_fused
libmagma.so.2.8:magma_sgetf2_nopiv
libmagma.so.2.8:magma_sgetf2_nopiv_batched
libmagma.so.2.8:magma_sgetf2_nopiv_internal_batched
libmagma.so.2.8:magma_sgetf2_vbatched
libmagma.so.2.8:magma_sgetf2trsm_2d_native
libmagma.so.2.8:magma_sgetf2trsm_batched
libmagma.so.2.8:magma_sgetmatrix_1D_col_bcyclic
libmagma.so.2.8:magma_sgetmatrix_1D_col_bcyclic_v1
libmagma.so.2.8:magma_sgetmatrix_1D_row_bcyclic
libmagma.so.2.8:magma_sgetmatrix_1D_row_bcyclic_v1
libmagma.so.2.8:magma_sgetrf
libmagma.so.2.8:magma_sgetrf2_mgpu
libmagma.so.2.8:magma_sgetrf_batched
libmagma.so.2.8:magma_sgetrf_batched_smallsq_noshfl
libmagma.so.2.8:magma_sgetrf_expert_gpu_work
libmagma.so.2.8:magma_sgetrf_gpu
libmagma.so.2.8:magma_sgetrf_gpu_expert
libmagma.so.2.8:magma_sgetrf_m
libmagma.so.2.8:magma_sgetrf_mgpu
libmagma.so.2.8:magma_sgetrf_native
libmagma.so.2.8:magma_sgetrf_nopiv
libmagma.so.2.8:magma_sgetrf_nopiv_batched
libmagma.so.2.8:magma_sgetrf_nopiv_gpu
libmagma.so.2.8:magma_sgetrf_panel_nopiv_batched
libmagma.so.2.8:magma_sgetrf_piv
libmagma.so.2.8:magma_sgetrf_recpanel_batched
libmagma.so.2.8:magma_sgetrf_recpanel_native
libmagma.so.2.8:magma_sgetrf_recpanel_nopiv_batched
libmagma.so.2.8:magma_sgetrf_recpanel_vbatched
libmagma.so.2.8:magma_sgetrf_vbatched
libmagma.so.2.8:magma_sgetrf_vbatched_max_nocheck
libmagma.so.2.8:magma_sgetrf_vbatched_max_nocheck_work
libmagma.so.2.8:magma_sgetri_gpu
libmagma.so.2.8:magma_sgetri_outofplace_batched
libmagma.so.2.8:magma_sgetrs_batched
libmagma.so.2.8:magma_sgetrs_gpu
libmagma.so.2.8:magma_sgetrs_nopiv_batched
libmagma.so.2.8:magma_sgetrs_nopiv_gpu
libmagma.so.2.8:magma_sgglse
libmagma.so.2.8:magma_sggrqf
libmagma.so.2.8:magma_shpotrf_LL_expert_gpu
libmagma.so.2.8:magma_shpotrf_gpu
libmagma.so.2.8:magma_shpotrf_native
libmagma.so.2.8:magma_shtodhe
libmagma.so.2.8:magma_shtodpo
libmagma.so.2.8:magma_side_const
libmagma.so.2.8:magma_sirange
libmagma.so.2.8:magma_slabrd_gpu
libmagma.so.2.8:magma_slaex0
libmagma.so.2.8:magma_slaex0_m
libmagma.so.2.8:magma_slaex1
libmagma.so.2.8:magma_slaex1_m
libmagma.so.2.8:magma_slaex3
libmagma.so.2.8:magma_slaex3_m
libmagma.so.2.8:magma_slahr2
libmagma.so.2.8:magma_slahr2_m
libmagma.so.2.8:magma_slahru
libmagma.so.2.8:magma_slahru_m
libmagma.so.2.8:magma_slaln2
libmagma.so.2.8:magma_slaqps
libmagma.so.2.8:magma_slaqps2_gpu
libmagma.so.2.8:magma_slaqps_gpu
libmagma.so.2.8:magma_slaqtrsd
libmagma.so.2.8:magma_slarf_fused_reg_batched
libmagma.so.2.8:magma_slarf_fused_reg_medium_batched
libmagma.so.2.8:magma_slarf_fused_reg_tall_batched
libmagma.so.2.8:magma_slarf_fused_sm_batched
libmagma.so.2.8:magma_slarf_gpu
libmagma.so.2.8:magma_slarf_sm
libmagma.so.2.8:magma_slarfb2_gpu
libmagma.so.2.8:magma_slarfb_gemm_batched
libmagma.so.2.8:magma_slarfb_gemm_internal_batched
libmagma.so.2.8:magma_slarfb_gpu
libmagma.so.2.8:magma_slarfb_gpu_gemm
libmagma.so.2.8:magma_slarfb_gpu_gemm_v1
libmagma.so.2.8:magma_slarfb_gpu_v1
libmagma.so.2.8:magma_slarfbx_gpu
libmagma.so.2.8:magma_slarfbx_gpu_v1
libmagma.so.2.8:magma_slarfg_gpu
libmagma.so.2.8:magma_slarfg_gpu_v1
libmagma.so.2.8:magma_slarfgtx_gpu
libmagma.so.2.8:magma_slarfgtx_gpu_v1
libmagma.so.2.8:magma_slarfgx_gpu
libmagma.so.2.8:magma_slarfgx_gpu_v1
libmagma.so.2.8:magma_slarft_batched
libmagma.so.2.8:magma_slarft_internal_batched
libmagma.so.2.8:magma_slarft_sm32x32_batched
libmagma.so.2.8:magma_slarfx_gpu
libmagma.so.2.8:magma_slarfx_gpu_v1
libmagma.so.2.8:magma_slarfy
libmagma.so.2.8:magma_slaswp_columnserial
libmagma.so.2.8:magma_slaswp_columnserial_batched
libmagma.so.2.8:magma_slaswp_left_rowparallel_vbatched
libmagma.so.2.8:magma_slaswp_left_rowserial_vbatched
libmagma.so.2.8:magma_slaswp_right_rowparallel_vbatched
libmagma.so.2.8:magma_slaswp_right_rowserial_vbatched
libmagma.so.2.8:magma_slaswp_rowparallel_batched
libmagma.so.2.8:magma_slaswp_rowparallel_native
libmagma.so.2.8:magma_slaswp_rowserial_batched
libmagma.so.2.8:magma_slaswp_rowserial_native
libmagma.so.2.8:magma_slasyf_gpu
libmagma.so.2.8:magma_slatrd
libmagma.so.2.8:magma_slatrd2
libmagma.so.2.8:magma_slatrd_mgpu
libmagma.so.2.8:magma_slauum
libmagma.so.2.8:magma_slauum_gpu
libmagma.so.2.8:magma_smake_lwork
libmagma.so.2.8:magma_smove_eig
libmagma.so.2.8:magma_snan_inf
libmagma.so.2.8:magma_snan_inf_gpu
libmagma.so.2.8:magma_snrm2
libmagma.so.2.8:magma_snrm2_adjust_kernel
libmagma.so.2.8:magma_sorgbr
libmagma.so.2.8:magma_sorghr
libmagma.so.2.8:magma_sorghr_m
libmagma.so.2.8:magma_sorglq
libmagma.so.2.8:magma_sorgqr
libmagma.so.2.8:magma_sorgqr2
libmagma.so.2.8:magma_sorgqr_2stage_gpu
libmagma.so.2.8:magma_sorgqr_gpu
libmagma.so.2.8:magma_sorgqr_m
libmagma.so.2.8:magma_sorgtr
libmagma.so.2.8:magma_sormbr
libmagma.so.2.8:magma_sormlq
libmagma.so.2.8:magma_sormql
libmagma.so.2.8:magma_sormql2_gpu
libmagma.so.2.8:magma_sormqr
libmagma.so.2.8:magma_sormqr2_gpu
libmagma.so.2.8:magma_sormqr_2stage_gpu
libmagma.so.2.8:magma_sormqr_gpu
libmagma.so.2.8:magma_sormqr_m
libmagma.so.2.8:magma_sormrq
libmagma.so.2.8:magma_sormtr
libmagma.so.2.8:magma_sormtr_gpu
libmagma.so.2.8:magma_sormtr_m
libmagma.so.2.8:magma_spanel_to_q
libmagma.so.2.8:magma_sposv
libmagma.so.2.8:magma_sposv_batched
libmagma.so.2.8:magma_sposv_gpu
libmagma.so.2.8:magma_spotf2_batched
libmagma.so.2.8:magma_spotf2_gpu
libmagma.so.2.8:magma_spotf2_lpin
libmagma.so.2.8:magma_spotf2_lpout
libmagma.so.2.8:magma_spotf2_native
libmagma.so.2.8:magma_spotf2_vbatched
libmagma.so.2.8:magma_spotrf
libmagma.so.2.8:magma_spotrf3_mgpu
libmagma.so.2.8:magma_spotrf_batched
libmagma.so.2.8:magma_spotrf_expert
libmagma.so.2.8:magma_spotrf_expert_gpu
libmagma.so.2.8:magma_spotrf_expert_gpu_work
libmagma.so.2.8:magma_spotrf_gpu
libmagma.so.2.8:magma_spotrf_lg_batched
libmagma.so.2.8:magma_spotrf_lg_vbatched
libmagma.so.2.8:magma_spotrf_lpin_batched
libmagma.so.2.8:magma_spotrf_lpout_batched
libmagma.so.2.8:magma_spotrf_lpout_vbatched
libmagma.so.2.8:magma_spotrf_m
libmagma.so.2.8:magma_spotrf_mgpu
libmagma.so.2.8:magma_spotrf_native
libmagma.so.2.8:magma_spotrf_panel_batched
libmagma.so.2.8:magma_spotrf_panel_vbatched
libmagma.so.2.8:magma_spotrf_recpanel_batched
libmagma.so.2.8:magma_spotrf_rectile_batched
libmagma.so.2.8:magma_spotrf_rectile_native
libmagma.so.2.8:magma_spotrf_vbatched
libmagma.so.2.8:magma_spotrf_vbatched_max_nocheck
libmagma.so.2.8:magma_spotri
libmagma.so.2.8:magma_spotri_gpu
libmagma.so.2.8:magma_spotrs_batched
libmagma.so.2.8:magma_spotrs_gpu
libmagma.so.2.8:magma_sprint
libmagma.so.2.8:magma_sprint_gpu
libmagma.so.2.8:magma_sq_to_panel
libmagma.so.2.8:magma_srecommend_cublas_gemm_batched
libmagma.so.2.8:magma_srecommend_cublas_gemm_stream
libmagma.so.2.8:magma_srot
libmagma.so.2.8:magma_srotg
libmagma.so.2.8:magma_srotm
libmagma.so.2.8:magma_srotmg
libmagma.so.2.8:magma_ssbtype1cb
libmagma.so.2.8:magma_ssbtype2cb
libmagma.so.2.8:magma_ssbtype3cb
libmagma.so.2.8:magma_sscal
libmagma.so.2.8:magma_sscal_sger_batched
libmagma.so.2.8:magma_sscal_sger_native
libmagma.so.2.8:magma_sscal_sger_vbatched
libmagma.so.2.8:magma_sset_pointer
libmagma.so.2.8:magma_sset_pointer_var_cc
libmagma.so.2.8:magma_ssetmatrix_1D_col_bcyclic
libmagma.so.2.8:magma_ssetmatrix_1D_col_bcyclic_v1
libmagma.so.2.8:magma_ssetmatrix_1D_row_bcyclic
libmagma.so.2.8:magma_ssetmatrix_1D_row_bcyclic_v1
libmagma.so.2.8:magma_ssetvector_const
libmagma.so.2.8:magma_ssidi
libmagma.so.2.8:magma_sstedx
libmagma.so.2.8:magma_sstedx_m
libmagma.so.2.8:magma_sswap
libmagma.so.2.8:magma_sswap_batched
libmagma.so.2.8:magma_sswap_native
libmagma.so.2.8:magma_sswap_vbatched
libmagma.so.2.8:magma_ssyevd
libmagma.so.2.8:magma_ssyevd_gpu
libmagma.so.2.8:magma_ssyevd_m
libmagma.so.2.8:magma_ssyevdx
libmagma.so.2.8:magma_ssyevdx_2stage
libmagma.so.2.8:magma_ssyevdx_2stage_m
libmagma.so.2.8:magma_ssyevdx_getworksize
libmagma.so.2.8:magma_ssyevdx_gpu
libmagma.so.2.8:magma_ssyevdx_m
libmagma.so.2.8:magma_ssygst
libmagma.so.2.8:magma_ssygst_gpu
libmagma.so.2.8:magma_ssygst_m
libmagma.so.2.8:magma_ssygvd
libmagma.so.2.8:magma_ssygvd_m
libmagma.so.2.8:magma_ssygvdx
libmagma.so.2.8:magma_ssygvdx_2stage
libmagma.so.2.8:magma_ssygvdx_2stage_m
libmagma.so.2.8:magma_ssygvdx_m
libmagma.so.2.8:magma_ssymm
libmagma.so.2.8:magma_ssymv
libmagma.so.2.8:magma_ssyr
libmagma.so.2.8:magma_ssyr2
libmagma.so.2.8:magma_ssyr2k
libmagma.so.2.8:magma_ssyr2k_mgpu
libmagma.so.2.8:magma_ssyrk
libmagma.so.2.8:magma_ssyrk_batched
libmagma.so.2.8:magma_ssyrk_mgpu
libmagma.so.2.8:magma_ssyrk_mgpu2
libmagma.so.2.8:magma_ssysv
libmagma.so.2.8:magma_ssysv_nopiv_gpu
libmagma.so.2.8:magma_ssytrd
libmagma.so.2.8:magma_ssytrd2_gpu
libmagma.so.2.8:magma_ssytrd_gpu
libmagma.so.2.8:magma_ssytrd_mgpu
libmagma.so.2.8:magma_ssytrd_sb2st
libmagma.so.2.8:magma_ssytrd_sy2sb
libmagma.so.2.8:magma_ssytrd_sy2sb_mgpu
libmagma.so.2.8:magma_ssytrf
libmagma.so.2.8:magma_ssytrf_aasen
libmagma.so.2.8:magma_ssytrf_gpu
libmagma.so.2.8:magma_ssytrf_nopiv
libmagma.so.2.8:magma_ssytrf_nopiv_cpu
libmagma.so.2.8:magma_ssytrf_nopiv_gpu
libmagma.so.2.8:magma_ssytrs_gpu
libmagma.so.2.8:magma_ssytrs_nopiv_gpu
libmagma.so.2.8:magma_storev_const
libmagma.so.2.8:magma_strerror
libmagma.so.2.8:magma_strevc3
libmagma.so.2.8:magma_strevc3_mt
libmagma.so.2.8:magma_strlcpy
libmagma.so.2.8:magma_strmm
libmagma.so.2.8:magma_strmv
libmagma.so.2.8:magma_strmv_kernel
libmagma.so.2.8:magma_strmv_kernel2
libmagma.so.2.8:magma_strmv_tkernel
libmagma.so.2.8:magma_strsm
libmagma.so.2.8:magma_strsm_m
libmagma.so.2.8:magma_strsv
libmagma.so.2.8:magma_strtri
libmagma.so.2.8:magma_strtri_gpu
libmagma.so.2.8:magma_svrange
libmagma.so.2.8:magma_swp2pswp
libmagma.so.2.8:magma_sym_const
libmagma.so.2.8:magma_sync_wtime
libmagma.so.2.8:magma_syr2k_vbatched_checker
libmagma.so.2.8:magma_syrk_vbatched_checker
libmagma.so.2.8:magma_thread_main
libmagma.so.2.8:magma_trans_const
libmagma.so.2.8:magma_trmm_vbatched_checker
libmagma.so.2.8:magma_trsm_vbatched_checker
libmagma.so.2.8:magma_uplo_const
libmagma.so.2.8:magma_use_cgeqrf_batched_fused_update
libmagma.so.2.8:magma_use_dgeqrf_batched_fused_update
libmagma.so.2.8:magma_use_sgeqrf_batched_fused_update
libmagma.so.2.8:magma_use_zgeqrf_batched_fused_update
libmagma.so.2.8:magma_vec_const
libmagma.so.2.8:magma_vect_const
libmagma.so.2.8:magma_version
libmagma.so.2.8:magma_wtime
libmagma.so.2.8:magma_xerbla
libmagma.so.2.8:magma_xhsgetrf_gpu
libmagma.so.2.8:magma_xshgetrf_gpu
libmagma.so.2.8:magma_yield
libmagma.so.2.8:magma_z_isinf
libmagma.so.2.8:magma_z_isnan
libmagma.so.2.8:magma_z_isnan_inf
libmagma.so.2.8:magma_zaxpy
libmagma.so.2.8:magma_zbulge_applyQ_v2
libmagma.so.2.8:magma_zbulge_applyQ_v2_m
libmagma.so.2.8:magma_zbulge_back
libmagma.so.2.8:magma_zbulge_back_m
libmagma.so.2.8:magma_zbulge_getlwstg2
libmagma.so.2.8:magma_zbulge_getstg2size
libmagma.so.2.8:magma_zcgeqrsv_gpu
libmagma.so.2.8:magma_zcgesv_gpu
libmagma.so.2.8:magma_zcgetrs_gpu
libmagma.so.2.8:magma_zchesv_gpu
libmagma.so.2.8:magma_zcomputecolumn_batched
libmagma.so.2.8:magma_zcopy
libmagma.so.2.8:magma_zcposv_gpu
libmagma.so.2.8:magma_zdisplace_pointers
libmagma.so.2.8:magma_zdisplace_pointers_var_cc
libmagma.so.2.8:magma_zdisplace_pointers_var_cv
libmagma.so.2.8:magma_zdisplace_pointers_var_vc
libmagma.so.2.8:magma_zdisplace_pointers_var_vv
libmagma.so.2.8:magma_zdotc
libmagma.so.2.8:magma_zdotu
libmagma.so.2.8:magma_zdrot
libmagma.so.2.8:magma_zdscal
libmagma.so.2.8:magma_zdtohpo
libmagma.so.2.8:magma_zgbsv_batched
libmagma.so.2.8:magma_zgbsv_batched_fused_sm
libmagma.so.2.8:magma_zgbsv_batched_strided
libmagma.so.2.8:magma_zgbsv_batched_strided_work
libmagma.so.2.8:magma_zgbsv_batched_work
libmagma.so.2.8:magma_zgbsv_native
libmagma.so.2.8:magma_zgbsv_native_work
libmagma.so.2.8:magma_zgbtf2_native
libmagma.so.2.8:magma_zgbtf2_native_v2
libmagma.so.2.8:magma_zgbtf2_native_v2_work
libmagma.so.2.8:magma_zgbtf2_native_work
libmagma.so.2.8:magma_zgbtf2_scal_ger_batched
libmagma.so.2.8:magma_zgbtf2_zswap_batched
libmagma.so.2.8:magma_zgbtrf_batched
libmagma.so.2.8:magma_zgbtrf_batched_fused_sm
libmagma.so.2.8:magma_zgbtrf_batched_sliding_window_loopin
libmagma.so.2.8:magma_zgbtrf_batched_sliding_window_loopout
libmagma.so.2.8:magma_zgbtrf_batched_strided
libmagma.so.2.8:magma_zgbtrf_batched_strided_work
libmagma.so.2.8:magma_zgbtrf_batched_work
libmagma.so.2.8:magma_zgbtrf_native
libmagma.so.2.8:magma_zgbtrf_native_work
libmagma.so.2.8:magma_zgbtrf_set_fillin
libmagma.so.2.8:magma_zgbtrs_batched
libmagma.so.2.8:magma_zgbtrs_batched_strided
libmagma.so.2.8:magma_zgbtrs_lower_batched
libmagma.so.2.8:magma_zgbtrs_upper_batched
libmagma.so.2.8:magma_zgebrd
libmagma.so.2.8:magma_zgeev
libmagma.so.2.8:magma_zgeev_m
libmagma.so.2.8:magma_zgegqr_gpu
libmagma.so.2.8:magma_zgehrd
libmagma.so.2.8:magma_zgehrd2
libmagma.so.2.8:magma_zgehrd_m
libmagma.so.2.8:magma_zgelqf
libmagma.so.2.8:magma_zgelqf_gpu
libmagma.so.2.8:magma_zgels
libmagma.so.2.8:magma_zgels3_gpu
libmagma.so.2.8:magma_zgels_gpu
libmagma.so.2.8:magma_zgemm
libmagma.so.2.8:magma_zgemm_batched
libmagma.so.2.8:magma_zgemm_batched_core
libmagma.so.2.8:magma_zgemv
libmagma.so.2.8:magma_zgemv_kernel1
libmagma.so.2.8:magma_zgemv_kernel2
libmagma.so.2.8:magma_zgemv_kernel3
libmagma.so.2.8:magma_zgeqlf
libmagma.so.2.8:magma_zgeqp3
libmagma.so.2.8:magma_zgeqp3_gpu
libmagma.so.2.8:magma_zgeqr2_batched
libmagma.so.2.8:magma_zgeqr2_fused_batched
libmagma.so.2.8:magma_zgeqr2_fused_reg_batched
libmagma.so.2.8:magma_zgeqr2_fused_reg_medium_batched
libmagma.so.2.8:magma_zgeqr2_fused_reg_tall_batched
libmagma.so.2.8:magma_zgeqr2_fused_sm_batched
libmagma.so.2.8:magma_zgeqr2_gpu
libmagma.so.2.8:magma_zgeqr2x2_gpu
libmagma.so.2.8:magma_zgeqr2x3_gpu
libmagma.so.2.8:magma_zgeqr2x4_gpu
libmagma.so.2.8:magma_zgeqr2x_gpu
libmagma.so.2.8:magma_zgeqrf
libmagma.so.2.8:magma_zgeqrf2_gpu
libmagma.so.2.8:magma_zgeqrf2_mgpu
libmagma.so.2.8:magma_zgeqrf3_gpu
libmagma.so.2.8:magma_zgeqrf_batched
libmagma.so.2.8:magma_zgeqrf_batched_smallsq
libmagma.so.2.8:magma_zgeqrf_batched_work
libmagma.so.2.8:magma_zgeqrf_expert_batched
libmagma.so.2.8:magma_zgeqrf_expert_gpu_work
libmagma.so.2.8:magma_zgeqrf_gpu
libmagma.so.2.8:magma_zgeqrf_m
libmagma.so.2.8:magma_zgeqrf_ooc
libmagma.so.2.8:magma_zgeqrf_panel_batched
libmagma.so.2.8:magma_zgeqrf_panel_fused_update_batched
libmagma.so.2.8:magma_zgeqrf_panel_internal_batched
libmagma.so.2.8:magma_zgeqrs3_gpu
libmagma.so.2.8:magma_zgeqrs_gpu
libmagma.so.2.8:magma_zgerbt_batched
libmagma.so.2.8:magma_zgerbt_gpu
libmagma.so.2.8:magma_zgerc
libmagma.so.2.8:magma_zgerfs_nopiv_gpu
libmagma.so.2.8:magma_zgeru
libmagma.so.2.8:magma_zgesdd
libmagma.so.2.8:magma_zgesv
libmagma.so.2.8:magma_zgesv_batched
libmagma.so.2.8:magma_zgesv_batched_small
libmagma.so.2.8:magma_zgesv_gpu
libmagma.so.2.8:magma_zgesv_nopiv_batched
libmagma.so.2.8:magma_zgesv_nopiv_gpu
libmagma.so.2.8:magma_zgesv_rbt
libmagma.so.2.8:magma_zgesv_rbt_batched
libmagma.so.2.8:magma_zgesvd
libmagma.so.2.8:magma_zgetf2_batched
libmagma.so.2.8:magma_zgetf2_fused_batched
libmagma.so.2.8:magma_zgetf2_fused_sm_vbatched
libmagma.so.2.8:magma_zgetf2_fused_vbatched
libmagma.so.2.8:magma_zgetf2_gpu
libmagma.so.2.8:magma_zgetf2_native
libmagma.so.2.8:magma_zgetf2_native_fused
libmagma.so.2.8:magma_zgetf2_nopiv
libmagma.so.2.8:magma_zgetf2_nopiv_batched
libmagma.so.2.8:magma_zgetf2_nopiv_internal_batched
libmagma.so.2.8:magma_zgetf2_vbatched
libmagma.so.2.8:magma_zgetf2trsm_2d_native
libmagma.so.2.8:magma_zgetf2trsm_batched
libmagma.so.2.8:magma_zgetmatrix_1D_col_bcyclic
libmagma.so.2.8:magma_zgetmatrix_1D_col_bcyclic_v1
libmagma.so.2.8:magma_zgetmatrix_1D_row_bcyclic
libmagma.so.2.8:magma_zgetmatrix_1D_row_bcyclic_v1
libmagma.so.2.8:magma_zgetrf
libmagma.so.2.8:magma_zgetrf2_mgpu
libmagma.so.2.8:magma_zgetrf_batched
libmagma.so.2.8:magma_zgetrf_batched_smallsq_noshfl
libmagma.so.2.8:magma_zgetrf_expert_gpu_work
libmagma.so.2.8:magma_zgetrf_gpu
libmagma.so.2.8:magma_zgetrf_gpu_expert
libmagma.so.2.8:magma_zgetrf_m
libmagma.so.2.8:magma_zgetrf_mgpu
libmagma.so.2.8:magma_zgetrf_native
libmagma.so.2.8:magma_zgetrf_nopiv
libmagma.so.2.8:magma_zgetrf_nopiv_batched
libmagma.so.2.8:magma_zgetrf_nopiv_gpu
libmagma.so.2.8:magma_zgetrf_panel_nopiv_batched
libmagma.so.2.8:magma_zgetrf_piv
libmagma.so.2.8:magma_zgetrf_recpanel_batched
libmagma.so.2.8:magma_zgetrf_recpanel_native
libmagma.so.2.8:magma_zgetrf_recpanel_nopiv_batched
libmagma.so.2.8:magma_zgetrf_recpanel_vbatched
libmagma.so.2.8:magma_zgetrf_vbatched
libmagma.so.2.8:magma_zgetrf_vbatched_max_nocheck
libmagma.so.2.8:magma_zgetrf_vbatched_max_nocheck_work
libmagma.so.2.8:magma_zgetri_gpu
libmagma.so.2.8:magma_zgetri_outofplace_batched
libmagma.so.2.8:magma_zgetrs_batched
libmagma.so.2.8:magma_zgetrs_gpu
libmagma.so.2.8:magma_zgetrs_nopiv_batched
libmagma.so.2.8:magma_zgetrs_nopiv_gpu
libmagma.so.2.8:magma_zgglse
libmagma.so.2.8:magma_zggrqf
libmagma.so.2.8:magma_zhbtype1cb
libmagma.so.2.8:magma_zhbtype2cb
libmagma.so.2.8:magma_zhbtype3cb
libmagma.so.2.8:magma_zheevd
libmagma.so.2.8:magma_zheevd_gpu
libmagma.so.2.8:magma_zheevd_m
libmagma.so.2.8:magma_zheevdx
libmagma.so.2.8:magma_zheevdx_2stage
libmagma.so.2.8:magma_zheevdx_2stage_m
libmagma.so.2.8:magma_zheevdx_getworksize
libmagma.so.2.8:magma_zheevdx_gpu
libmagma.so.2.8:magma_zheevdx_m
libmagma.so.2.8:magma_zheevr
libmagma.so.2.8:magma_zheevr_gpu
libmagma.so.2.8:magma_zheevx
libmagma.so.2.8:magma_zheevx_gpu
libmagma.so.2.8:magma_zhegst
libmagma.so.2.8:magma_zhegst_gpu
libmagma.so.2.8:magma_zhegst_m
libmagma.so.2.8:magma_zhegvd
libmagma.so.2.8:magma_zhegvd_m
libmagma.so.2.8:magma_zhegvdx
libmagma.so.2.8:magma_zhegvdx_2stage
libmagma.so.2.8:magma_zhegvdx_2stage_m
libmagma.so.2.8:magma_zhegvdx_m
libmagma.so.2.8:magma_zhegvr
libmagma.so.2.8:magma_zhegvx
libmagma.so.2.8:magma_zhemm
libmagma.so.2.8:magma_zhemv
libmagma.so.2.8:magma_zher
libmagma.so.2.8:magma_zher2
libmagma.so.2.8:magma_zher2k
libmagma.so.2.8:magma_zher2k_mgpu
libmagma.so.2.8:magma_zherk
libmagma.so.2.8:magma_zherk_batched
libmagma.so.2.8:magma_zherk_mgpu
libmagma.so.2.8:magma_zherk_mgpu2
libmagma.so.2.8:magma_zhesv
libmagma.so.2.8:magma_zhesv_nopiv_gpu
libmagma.so.2.8:magma_zhetrd
libmagma.so.2.8:magma_zhetrd2_gpu
libmagma.so.2.8:magma_zhetrd_gpu
libmagma.so.2.8:magma_zhetrd_hb2st
libmagma.so.2.8:magma_zhetrd_he2hb
libmagma.so.2.8:magma_zhetrd_he2hb_mgpu
libmagma.so.2.8:magma_zhetrd_mgpu
libmagma.so.2.8:magma_zhetrf
libmagma.so.2.8:magma_zhetrf_aasen
libmagma.so.2.8:magma_zhetrf_gpu
libmagma.so.2.8:magma_zhetrf_nopiv
libmagma.so.2.8:magma_zhetrf_nopiv_cpu
libmagma.so.2.8:magma_zhetrf_nopiv_gpu
libmagma.so.2.8:magma_zhetrs_gpu
libmagma.so.2.8:magma_zhetrs_nopiv_gpu
libmagma.so.2.8:magma_zhtodhe
libmagma.so.2.8:magma_zhtodpo
libmagma.so.2.8:magma_zlabrd_gpu
libmagma.so.2.8:magma_zlahef_gpu
libmagma.so.2.8:magma_zlahr2
libmagma.so.2.8:magma_zlahr2_m
libmagma.so.2.8:magma_zlahru
libmagma.so.2.8:magma_zlahru_m
libmagma.so.2.8:magma_zlaqps
libmagma.so.2.8:magma_zlaqps2_gpu
libmagma.so.2.8:magma_zlaqps_gpu
libmagma.so.2.8:magma_zlarf_fused_reg_batched
libmagma.so.2.8:magma_zlarf_fused_reg_medium_batched
libmagma.so.2.8:magma_zlarf_fused_reg_tall_batched
libmagma.so.2.8:magma_zlarf_fused_sm_batched
libmagma.so.2.8:magma_zlarf_gpu
libmagma.so.2.8:magma_zlarf_sm
libmagma.so.2.8:magma_zlarfb2_gpu
libmagma.so.2.8:magma_zlarfb_gemm_batched
libmagma.so.2.8:magma_zlarfb_gemm_internal_batched
libmagma.so.2.8:magma_zlarfb_gpu
libmagma.so.2.8:magma_zlarfb_gpu_gemm
libmagma.so.2.8:magma_zlarfb_gpu_gemm_v1
libmagma.so.2.8:magma_zlarfb_gpu_v1
libmagma.so.2.8:magma_zlarfbx_gpu
libmagma.so.2.8:magma_zlarfbx_gpu_v1
libmagma.so.2.8:magma_zlarfg_gpu
libmagma.so.2.8:magma_zlarfg_gpu_v1
libmagma.so.2.8:magma_zlarfgtx_gpu
libmagma.so.2.8:magma_zlarfgtx_gpu_v1
libmagma.so.2.8:magma_zlarfgx_gpu
libmagma.so.2.8:magma_zlarfgx_gpu_v1
libmagma.so.2.8:magma_zlarft_batched
libmagma.so.2.8:magma_zlarft_internal_batched
libmagma.so.2.8:magma_zlarft_sm32x32_batched
libmagma.so.2.8:magma_zlarfx_gpu
libmagma.so.2.8:magma_zlarfx_gpu_v1
libmagma.so.2.8:magma_zlarfy
libmagma.so.2.8:magma_zlaswp_columnserial
libmagma.so.2.8:magma_zlaswp_columnserial_batched
libmagma.so.2.8:magma_zlaswp_left_rowparallel_vbatched
libmagma.so.2.8:magma_zlaswp_left_rowserial_vbatched
libmagma.so.2.8:magma_zlaswp_right_rowparallel_vbatched
libmagma.so.2.8:magma_zlaswp_right_rowserial_vbatched
libmagma.so.2.8:magma_zlaswp_rowparallel_batched
libmagma.so.2.8:magma_zlaswp_rowparallel_native
libmagma.so.2.8:magma_zlaswp_rowserial_batched
libmagma.so.2.8:magma_zlaswp_rowserial_native
libmagma.so.2.8:magma_zlatrd
libmagma.so.2.8:magma_zlatrd2
libmagma.so.2.8:magma_zlatrd_mgpu
libmagma.so.2.8:magma_zlatrsd
libmagma.so.2.8:magma_zlauum
libmagma.so.2.8:magma_zlauum_gpu
libmagma.so.2.8:magma_zmake_lwork
libmagma.so.2.8:magma_znan_inf
libmagma.so.2.8:magma_znan_inf_gpu
libmagma.so.2.8:magma_zpanel_to_q
libmagma.so.2.8:magma_zposv
libmagma.so.2.8:magma_zposv_batched
libmagma.so.2.8:magma_zposv_gpu
libmagma.so.2.8:magma_zpotf2_batched
libmagma.so.2.8:magma_zpotf2_gpu
libmagma.so.2.8:magma_zpotf2_lpin
libmagma.so.2.8:magma_zpotf2_lpout
libmagma.so.2.8:magma_zpotf2_native
libmagma.so.2.8:magma_zpotf2_vbatched
libmagma.so.2.8:magma_zpotrf
libmagma.so.2.8:magma_zpotrf3_mgpu
libmagma.so.2.8:magma_zpotrf_batched
libmagma.so.2.8:magma_zpotrf_expert
libmagma.so.2.8:magma_zpotrf_expert_gpu
libmagma.so.2.8:magma_zpotrf_expert_gpu_work
libmagma.so.2.8:magma_zpotrf_gpu
libmagma.so.2.8:magma_zpotrf_lg_batched
libmagma.so.2.8:magma_zpotrf_lg_vbatched
libmagma.so.2.8:magma_zpotrf_lpin_batched
libmagma.so.2.8:magma_zpotrf_lpout_batched
libmagma.so.2.8:magma_zpotrf_lpout_vbatched
libmagma.so.2.8:magma_zpotrf_m
libmagma.so.2.8:magma_zpotrf_mgpu
libmagma.so.2.8:magma_zpotrf_native
libmagma.so.2.8:magma_zpotrf_panel_batched
libmagma.so.2.8:magma_zpotrf_panel_vbatched
libmagma.so.2.8:magma_zpotrf_recpanel_batched
libmagma.so.2.8:magma_zpotrf_rectile_batched
libmagma.so.2.8:magma_zpotrf_rectile_native
libmagma.so.2.8:magma_zpotrf_vbatched
libmagma.so.2.8:magma_zpotrf_vbatched_max_nocheck
libmagma.so.2.8:magma_zpotri
libmagma.so.2.8:magma_zpotri_gpu
libmagma.so.2.8:magma_zpotrs_batched
libmagma.so.2.8:magma_zpotrs_gpu
libmagma.so.2.8:magma_zprint
libmagma.so.2.8:magma_zprint_gpu
libmagma.so.2.8:magma_zq_to_panel
libmagma.so.2.8:magma_zrecommend_cublas_gemm_batched
libmagma.so.2.8:magma_zrecommend_cublas_gemm_stream
libmagma.so.2.8:magma_zrot
libmagma.so.2.8:magma_zrotg
libmagma.so.2.8:magma_zscal
libmagma.so.2.8:magma_zscal_zgeru_batched
libmagma.so.2.8:magma_zscal_zgeru_native
libmagma.so.2.8:magma_zscal_zgeru_vbatched
libmagma.so.2.8:magma_zset_pointer
libmagma.so.2.8:magma_zset_pointer_var_cc
libmagma.so.2.8:magma_zsetmatrix_1D_col_bcyclic
libmagma.so.2.8:magma_zsetmatrix_1D_col_bcyclic_v1
libmagma.so.2.8:magma_zsetmatrix_1D_row_bcyclic
libmagma.so.2.8:magma_zsetmatrix_1D_row_bcyclic_v1
libmagma.so.2.8:magma_zsetvector_const
libmagma.so.2.8:magma_zsqrt
libmagma.so.2.8:magma_zstedx
libmagma.so.2.8:magma_zstedx_m
libmagma.so.2.8:magma_zswap
libmagma.so.2.8:magma_zswap_batched
libmagma.so.2.8:magma_zswap_native
libmagma.so.2.8:magma_zswap_vbatched
libmagma.so.2.8:magma_zsymm
libmagma.so.2.8:magma_zsymv
libmagma.so.2.8:magma_zsyr
libmagma.so.2.8:magma_zsyr2
libmagma.so.2.8:magma_zsyr2k
libmagma.so.2.8:magma_zsyrk
libmagma.so.2.8:magma_zsysv_nopiv_gpu
libmagma.so.2.8:magma_zsytrf_nopiv_cpu
libmagma.so.2.8:magma_zsytrf_nopiv_gpu
libmagma.so.2.8:magma_zsytrs_nopiv_gpu
libmagma.so.2.8:magma_ztrevc3
libmagma.so.2.8:magma_ztrevc3_mt
libmagma.so.2.8:magma_ztrmm
libmagma.so.2.8:magma_ztrmv
libmagma.so.2.8:magma_ztrmv_kernel
libmagma.so.2.8:magma_ztrmv_kernel2
libmagma.so.2.8:magma_ztrmv_tkernel
libmagma.so.2.8:magma_ztrsm
libmagma.so.2.8:magma_ztrsm_m
libmagma.so.2.8:magma_ztrsv
libmagma.so.2.8:magma_ztrtri
libmagma.so.2.8:magma_ztrtri_gpu
libmagma.so.2.8:magma_zungbr
libmagma.so.2.8:magma_zunghr
libmagma.so.2.8:magma_zunghr_m
libmagma.so.2.8:magma_zunglq
libmagma.so.2.8:magma_zungqr
libmagma.so.2.8:magma_zungqr2
libmagma.so.2.8:magma_zungqr_2stage_gpu
libmagma.so.2.8:magma_zungqr_gpu
libmagma.so.2.8:magma_zungqr_m
libmagma.so.2.8:magma_zungtr
libmagma.so.2.8:magma_zunmbr
libmagma.so.2.8:magma_zunmlq
libmagma.so.2.8:magma_zunmql
libmagma.so.2.8:magma_zunmql2_gpu
libmagma.so.2.8:magma_zunmqr
libmagma.so.2.8:magma_zunmqr2_gpu
libmagma.so.2.8:magma_zunmqr_2stage_gpu
libmagma.so.2.8:magma_zunmqr_gpu
libmagma.so.2.8:magma_zunmqr_m
libmagma.so.2.8:magma_zunmrq
libmagma.so.2.8:magma_zunmtr
libmagma.so.2.8:magma_zunmtr_gpu
libmagma.so.2.8:magma_zunmtr_m
libmagma.so.2.8:magmablasGetKernelStream
libmagma.so.2.8:magmablasGetQueue
libmagma.so.2.8:magmablasSetKernelStream
libmagma.so.2.8:magmablas_caxpycp
libmagma.so.2.8:magmablas_caxpycp_v1
libmagma.so.2.8:magmablas_cdiinertia
libmagma.so.2.8:magmablas_cdimv_invert
libmagma.so.2.8:magmablas_cextract_diag_sqrt
libmagma.so.2.8:magmablas_cgbtrs_lower_blocked_batched
libmagma.so.2.8:magmablas_cgbtrs_swap_batched
libmagma.so.2.8:magmablas_cgbtrs_upper_blocked_batched
libmagma.so.2.8:magmablas_cgbtrs_upper_columnwise_batched
libmagma.so.2.8:magmablas_cgeadd
libmagma.so.2.8:magmablas_cgeadd2
libmagma.so.2.8:magmablas_cgeadd2_v1
libmagma.so.2.8:magmablas_cgeadd_batched
libmagma.so.2.8:magmablas_cgeadd_v1
libmagma.so.2.8:magmablas_cgeam
libmagma.so.2.8:magmablas_cgemm
libmagma.so.2.8:magmablas_cgemm_batched
libmagma.so.2.8:magmablas_cgemm_batched_core
libmagma.so.2.8:magmablas_cgemm_batched_smallsq
libmagma.so.2.8:magmablas_cgemm_batched_strided
libmagma.so.2.8:magmablas_cgemm_reduce
libmagma.so.2.8:magmablas_cgemm_reduce_v1
libmagma.so.2.8:magmablas_cgemm_v1
libmagma.so.2.8:magmablas_cgemm_vbatched
libmagma.so.2.8:magmablas_cgemm_vbatched_core
libmagma.so.2.8:magmablas_cgemm_vbatched_max
libmagma.so.2.8:magmablas_cgemm_vbatched_max_nocheck
libmagma.so.2.8:magmablas_cgemm_vbatched_nocheck
libmagma.so.2.8:magmablas_cgemv
libmagma.so.2.8:magmablas_cgemv_batched
libmagma.so.2.8:magmablas_cgemv_batched_core
libmagma.so.2.8:magmablas_cgemv_batched_smallsq
libmagma.so.2.8:magmablas_cgemv_batched_strided
libmagma.so.2.8:magmablas_cgemv_batched_strided_smallsq
libmagma.so.2.8:magmablas_cgemv_conj
libmagma.so.2.8:magmablas_cgemv_conj_v1
libmagma.so.2.8:magmablas_cgemv_v1
libmagma.so.2.8:magmablas_cgemv_vbatched
libmagma.so.2.8:magmablas_cgemv_vbatched_max
libmagma.so.2.8:magmablas_cgemv_vbatched_max_nocheck
libmagma.so.2.8:magmablas_cgemv_vbatched_nocheck
libmagma.so.2.8:magmablas_cgeru_batched_core
libmagma.so.2.8:magmablas_cgetmatrix_transpose
libmagma.so.2.8:magmablas_cgetmatrix_transpose_mgpu
libmagma.so.2.8:magmablas_cgetmatrix_transpose_v1
libmagma.so.2.8:magmablas_cheinertia
libmagma.so.2.8:magmablas_chemm
libmagma.so.2.8:magmablas_chemm_batched
libmagma.so.2.8:magmablas_chemm_batched_core
libmagma.so.2.8:magmablas_chemm_mgpu
libmagma.so.2.8:magmablas_chemm_vbatched
libmagma.so.2.8:magmablas_chemm_vbatched_core
libmagma.so.2.8:magmablas_chemm_vbatched_max
libmagma.so.2.8:magmablas_chemm_vbatched_max_nocheck
libmagma.so.2.8:magmablas_chemm_vbatched_nocheck
libmagma.so.2.8:magmablas_chemv
libmagma.so.2.8:magmablas_chemv_batched
libmagma.so.2.8:magmablas_chemv_batched_core
libmagma.so.2.8:magmablas_chemv_mgpu
libmagma.so.2.8:magmablas_chemv_mgpu_sync
libmagma.so.2.8:magmablas_chemv_v1
libmagma.so.2.8:magmablas_chemv_vbatched
libmagma.so.2.8:magmablas_chemv_vbatched_core
libmagma.so.2.8:magmablas_chemv_vbatched_max
libmagma.so.2.8:magmablas_chemv_vbatched_max_nocheck
libmagma.so.2.8:magmablas_chemv_vbatched_nocheck
libmagma.so.2.8:magmablas_chemv_work
libmagma.so.2.8:magmablas_cher2k
libmagma.so.2.8:magmablas_cher2k_batched
libmagma.so.2.8:magmablas_cher2k_mgpu2
libmagma.so.2.8:magmablas_cher2k_vbatched
libmagma.so.2.8:magmablas_cher2k_vbatched_max
libmagma.so.2.8:magmablas_cher2k_vbatched_max_nocheck
libmagma.so.2.8:magmablas_cher2k_vbatched_nocheck
libmagma.so.2.8:magmablas_cherk
libmagma.so.2.8:magmablas_cherk_batched
libmagma.so.2.8:magmablas_cherk_batched_core
libmagma.so.2.8:magmablas_cherk_internal
libmagma.so.2.8:magmablas_cherk_internal_vbatched
libmagma.so.2.8:magmablas_cherk_small_reduce
libmagma.so.2.8:magmablas_cherk_vbatched
libmagma.so.2.8:magmablas_cherk_vbatched_max
libmagma.so.2.8:magmablas_cherk_vbatched_max_nocheck
libmagma.so.2.8:magmablas_cherk_vbatched_nocheck
libmagma.so.2.8:magmablas_clacpy
libmagma.so.2.8:magmablas_clacpy_batched
libmagma.so.2.8:magmablas_clacpy_conj
libmagma.so.2.8:magmablas_clacpy_conj_v1
libmagma.so.2.8:magmablas_clacpy_internal_batched
libmagma.so.2.8:magmablas_clacpy_sym_in
libmagma.so.2.8:magmablas_clacpy_sym_in_v1
libmagma.so.2.8:magmablas_clacpy_sym_out
libmagma.so.2.8:magmablas_clacpy_sym_out_v1
libmagma.so.2.8:magmablas_clacpy_v1
libmagma.so.2.8:magmablas_clacpy_vbatched
libmagma.so.2.8:magmablas_clag2z
libmagma.so.2.8:magmablas_clag2z_v1
libmagma.so.2.8:magmablas_clange
libmagma.so.2.8:magmablas_clange_v1
libmagma.so.2.8:magmablas_clanhe
libmagma.so.2.8:magmablas_clanhe_v1
libmagma.so.2.8:magmablas_clarfg
libmagma.so.2.8:magmablas_clarfg_v1
libmagma.so.2.8:magmablas_clarft_ctrmv_sm32x32
libmagma.so.2.8:magmablas_clarft_ctrmv_sm32x32_batched
libmagma.so.2.8:magmablas_clarft_recctrmv_sm32x32
libmagma.so.2.8:magmablas_clarft_recctrmv_sm32x32_batched
libmagma.so.2.8:magmablas_clascl
libmagma.so.2.8:magmablas_clascl2
libmagma.so.2.8:magmablas_clascl2_v1
libmagma.so.2.8:magmablas_clascl_2x2
libmagma.so.2.8:magmablas_clascl_2x2_v1
libmagma.so.2.8:magmablas_clascl_diag
libmagma.so.2.8:magmablas_clascl_diag_v1
libmagma.so.2.8:magmablas_clascl_v1
libmagma.so.2.8:magmablas_claset
libmagma.so.2.8:magmablas_claset_band
libmagma.so.2.8:magmablas_claset_band_v1
libmagma.so.2.8:magmablas_claset_batched
libmagma.so.2.8:magmablas_claset_internal_batched
libmagma.so.2.8:magmablas_claset_v1
libmagma.so.2.8:magmablas_claset_vbatched
libmagma.so.2.8:magmablas_claswp
libmagma.so.2.8:magmablas_claswp2
libmagma.so.2.8:magmablas_claswp2_v1
libmagma.so.2.8:magmablas_claswp_sym
libmagma.so.2.8:magmablas_claswp_sym_v1
libmagma.so.2.8:magmablas_claswp_v1
libmagma.so.2.8:magmablas_claswpx
libmagma.so.2.8:magmablas_claswpx_v1
libmagma.so.2.8:magmablas_clat2z
libmagma.so.2.8:magmablas_clat2z_v1
libmagma.so.2.8:magmablas_convert_dp2hp
libmagma.so.2.8:magmablas_convert_hp2dp
libmagma.so.2.8:magmablas_convert_hp2sp
libmagma.so.2.8:magmablas_convert_sp2hp
libmagma.so.2.8:magmablas_cprbt
libmagma.so.2.8:magmablas_cprbt_batched
libmagma.so.2.8:magmablas_cprbt_mtv
libmagma.so.2.8:magmablas_cprbt_mtv_batched
libmagma.so.2.8:magmablas_cprbt_mtv_v1
libmagma.so.2.8:magmablas_cprbt_mv
libmagma.so.2.8:magmablas_cprbt_mv_batched
libmagma.so.2.8:magmablas_cprbt_mv_v1
libmagma.so.2.8:magmablas_cprbt_v1
libmagma.so.2.8:magmablas_cscal_shift_hpd
libmagma.so.2.8:magmablas_csetmatrix_transpose
libmagma.so.2.8:magmablas_csetmatrix_transpose_mgpu
libmagma.so.2.8:magmablas_csetmatrix_transpose_v1
libmagma.so.2.8:magmablas_cswap
libmagma.so.2.8:magmablas_cswap_v1
libmagma.so.2.8:magmablas_cswapblk
libmagma.so.2.8:magmablas_cswapblk_v1
libmagma.so.2.8:magmablas_cswapdblk
libmagma.so.2.8:magmablas_cswapdblk_v1
libmagma.so.2.8:magmablas_csymm
libmagma.so.2.8:magmablas_csymmetrize
libmagma.so.2.8:magmablas_csymmetrize_tiles
libmagma.so.2.8:magmablas_csymmetrize_tiles_v1
libmagma.so.2.8:magmablas_csymmetrize_v1
libmagma.so.2.8:magmablas_csymv
libmagma.so.2.8:magmablas_csymv_v1
libmagma.so.2.8:magmablas_csymv_work
libmagma.so.2.8:magmablas_csyr2k
libmagma.so.2.8:magmablas_csyr2k_batched
libmagma.so.2.8:magmablas_csyr2k_vbatched
libmagma.so.2.8:magmablas_csyr2k_vbatched_max
libmagma.so.2.8:magmablas_csyr2k_vbatched_max_nocheck
libmagma.so.2.8:magmablas_csyr2k_vbatched_nocheck
libmagma.so.2.8:magmablas_csyrk
libmagma.so.2.8:magmablas_csyrk_batched
libmagma.so.2.8:magmablas_csyrk_batched_core
libmagma.so.2.8:magmablas_csyrk_internal_vbatched
libmagma.so.2.8:magmablas_csyrk_vbatched
libmagma.so.2.8:magmablas_csyrk_vbatched_max
libmagma.so.2.8:magmablas_csyrk_vbatched_max_nocheck
libmagma.so.2.8:magmablas_csyrk_vbatched_nocheck
libmagma.so.2.8:magmablas_ctranspose
libmagma.so.2.8:magmablas_ctranspose_batched
libmagma.so.2.8:magmablas_ctranspose_batched_stride
libmagma.so.2.8:magmablas_ctranspose_conj
libmagma.so.2.8:magmablas_ctranspose_conj_batched
libmagma.so.2.8:magmablas_ctranspose_conj_inplace
libmagma.so.2.8:magmablas_ctranspose_conj_inplace_v1
libmagma.so.2.8:magmablas_ctranspose_conj_v1
libmagma.so.2.8:magmablas_ctranspose_inplace
libmagma.so.2.8:magmablas_ctranspose_inplace_v1
libmagma.so.2.8:magmablas_ctranspose_v1
libmagma.so.2.8:magmablas_ctrmm
libmagma.so.2.8:magmablas_ctrmm_batched
libmagma.so.2.8:magmablas_ctrmm_batched_core
libmagma.so.2.8:magmablas_ctrmm_vbatched
libmagma.so.2.8:magmablas_ctrmm_vbatched_core
libmagma.so.2.8:magmablas_ctrmm_vbatched_max
libmagma.so.2.8:magmablas_ctrmm_vbatched_max_nocheck
libmagma.so.2.8:magmablas_ctrmm_vbatched_nocheck
libmagma.so.2.8:magmablas_ctrmv
libmagma.so.2.8:magmablas_ctrsm
libmagma.so.2.8:magmablas_ctrsm_batched
libmagma.so.2.8:magmablas_ctrsm_inv_batched
libmagma.so.2.8:magmablas_ctrsm_inv_outofplace_batched
libmagma.so.2.8:magmablas_ctrsm_inv_outofplace_vbatched
libmagma.so.2.8:magmablas_ctrsm_inv_vbatched
libmagma.so.2.8:magmablas_ctrsm_inv_vbatched_max
libmagma.so.2.8:magmablas_ctrsm_inv_vbatched_max_nocheck
libmagma.so.2.8:magmablas_ctrsm_inv_vbatched_nocheck
libmagma.so.2.8:magmablas_ctrsm_inv_work_batched
libmagma.so.2.8:magmablas_ctrsm_inv_work_vbatched
libmagma.so.2.8:magmablas_ctrsm_outofplace
libmagma.so.2.8:magmablas_ctrsm_outofplace_v1
libmagma.so.2.8:magmablas_ctrsm_recursive_batched
libmagma.so.2.8:magmablas_ctrsm_small_batched
libmagma.so.2.8:magmablas_ctrsm_small_vbatched
libmagma.so.2.8:magmablas_ctrsm_v1
libmagma.so.2.8:magmablas_ctrsm_vbatched
libmagma.so.2.8:magmablas_ctrsm_vbatched_core
libmagma.so.2.8:magmablas_ctrsm_vbatched_max
libmagma.so.2.8:magmablas_ctrsm_vbatched_max_nocheck
libmagma.so.2.8:magmablas_ctrsm_vbatched_nocheck
libmagma.so.2.8:magmablas_ctrsm_work
libmagma.so.2.8:magmablas_ctrsm_work_v1
libmagma.so.2.8:magmablas_ctrsv
libmagma.so.2.8:magmablas_ctrsv_batched
libmagma.so.2.8:magmablas_ctrsv_outofplace
libmagma.so.2.8:magmablas_ctrsv_outofplace_batched
libmagma.so.2.8:magmablas_ctrsv_recursive_outofplace
libmagma.so.2.8:magmablas_ctrsv_recursive_outofplace_batched
libmagma.so.2.8:magmablas_ctrsv_work_batched
libmagma.so.2.8:magmablas_ctrtri_diag
libmagma.so.2.8:magmablas_ctrtri_diag_batched
libmagma.so.2.8:magmablas_ctrtri_diag_v1
libmagma.so.2.8:magmablas_ctrtri_diag_vbatched
libmagma.so.2.8:magmablas_daxpycp
libmagma.so.2.8:magmablas_daxpycp_v1
libmagma.so.2.8:magmablas_ddiinertia
libmagma.so.2.8:magmablas_ddimv_invert
libmagma.so.2.8:magmablas_dextract_diag_sqrt
libmagma.so.2.8:magmablas_dgbtrs_lower_blocked_batched
libmagma.so.2.8:magmablas_dgbtrs_swap_batched
libmagma.so.2.8:magmablas_dgbtrs_upper_blocked_batched
libmagma.so.2.8:magmablas_dgbtrs_upper_columnwise_batched
libmagma.so.2.8:magmablas_dgeadd
libmagma.so.2.8:magmablas_dgeadd2
libmagma.so.2.8:magmablas_dgeadd2_v1
libmagma.so.2.8:magmablas_dgeadd_batched
libmagma.so.2.8:magmablas_dgeadd_v1
libmagma.so.2.8:magmablas_dgeam
libmagma.so.2.8:magmablas_dgemm
libmagma.so.2.8:magmablas_dgemm_batched
libmagma.so.2.8:magmablas_dgemm_batched_core
libmagma.so.2.8:magmablas_dgemm_batched_smallsq
libmagma.so.2.8:magmablas_dgemm_batched_strided
libmagma.so.2.8:magmablas_dgemm_reduce
libmagma.so.2.8:magmablas_dgemm_reduce_v1
libmagma.so.2.8:magmablas_dgemm_v1
libmagma.so.2.8:magmablas_dgemm_vbatched
libmagma.so.2.8:magmablas_dgemm_vbatched_core
libmagma.so.2.8:magmablas_dgemm_vbatched_max
libmagma.so.2.8:magmablas_dgemm_vbatched_max_nocheck
libmagma.so.2.8:magmablas_dgemm_vbatched_nocheck
libmagma.so.2.8:magmablas_dgemv
libmagma.so.2.8:magmablas_dgemv_batched
libmagma.so.2.8:magmablas_dgemv_batched_core
libmagma.so.2.8:magmablas_dgemv_batched_smallsq
libmagma.so.2.8:magmablas_dgemv_batched_strided
libmagma.so.2.8:magmablas_dgemv_batched_strided_smallsq
libmagma.so.2.8:magmablas_dgemv_conj
libmagma.so.2.8:magmablas_dgemv_conj_v1
libmagma.so.2.8:magmablas_dgemv_v1
libmagma.so.2.8:magmablas_dgemv_vbatched
libmagma.so.2.8:magmablas_dgemv_vbatched_max
libmagma.so.2.8:magmablas_dgemv_vbatched_max_nocheck
libmagma.so.2.8:magmablas_dgemv_vbatched_nocheck
libmagma.so.2.8:magmablas_dger_batched_core
libmagma.so.2.8:magmablas_dgetmatrix_transpose
libmagma.so.2.8:magmablas_dgetmatrix_transpose_mgpu
libmagma.so.2.8:magmablas_dgetmatrix_transpose_v1
libmagma.so.2.8:magmablas_dlacpy
libmagma.so.2.8:magmablas_dlacpy_batched
libmagma.so.2.8:magmablas_dlacpy_conj
libmagma.so.2.8:magmablas_dlacpy_conj_v1
libmagma.so.2.8:magmablas_dlacpy_internal_batched
libmagma.so.2.8:magmablas_dlacpy_sym_in
libmagma.so.2.8:magmablas_dlacpy_sym_in_v1
libmagma.so.2.8:magmablas_dlacpy_sym_out
libmagma.so.2.8:magmablas_dlacpy_sym_out_v1
libmagma.so.2.8:magmablas_dlacpy_v1
libmagma.so.2.8:magmablas_dlacpy_vbatched
libmagma.so.2.8:magmablas_dlag2s
libmagma.so.2.8:magmablas_dlag2s_v1
libmagma.so.2.8:magmablas_dlange
libmagma.so.2.8:magmablas_dlange_v1
libmagma.so.2.8:magmablas_dlansy
libmagma.so.2.8:magmablas_dlansy_v1
libmagma.so.2.8:magmablas_dlarfg
libmagma.so.2.8:magmablas_dlarfg_v1
libmagma.so.2.8:magmablas_dlarft_dtrmv_sm32x32
libmagma.so.2.8:magmablas_dlarft_dtrmv_sm32x32_batched
libmagma.so.2.8:magmablas_dlarft_recdtrmv_sm32x32
libmagma.so.2.8:magmablas_dlarft_recdtrmv_sm32x32_batched
libmagma.so.2.8:magmablas_dlascl
libmagma.so.2.8:magmablas_dlascl2
libmagma.so.2.8:magmablas_dlascl2_v1
libmagma.so.2.8:magmablas_dlascl_2x2
libmagma.so.2.8:magmablas_dlascl_2x2_v1
libmagma.so.2.8:magmablas_dlascl_diag
libmagma.so.2.8:magmablas_dlascl_diag_v1
libmagma.so.2.8:magmablas_dlascl_v1
libmagma.so.2.8:magmablas_dlaset
libmagma.so.2.8:magmablas_dlaset_band
libmagma.so.2.8:magmablas_dlaset_band_v1
libmagma.so.2.8:magmablas_dlaset_batched
libmagma.so.2.8:magmablas_dlaset_internal_batched
libmagma.so.2.8:magmablas_dlaset_v1
libmagma.so.2.8:magmablas_dlaset_vbatched
libmagma.so.2.8:magmablas_dlaswp
libmagma.so.2.8:magmablas_dlaswp2
libmagma.so.2.8:magmablas_dlaswp2_v1
libmagma.so.2.8:magmablas_dlaswp_sym
libmagma.so.2.8:magmablas_dlaswp_sym_v1
libmagma.so.2.8:magmablas_dlaswp_v1
libmagma.so.2.8:magmablas_dlaswpx
libmagma.so.2.8:magmablas_dlaswpx_v1
libmagma.so.2.8:magmablas_dlat2s
libmagma.so.2.8:magmablas_dlat2s_v1
libmagma.so.2.8:magmablas_dnrm2_adjust
libmagma.so.2.8:magmablas_dnrm2_adjust_v1
libmagma.so.2.8:magmablas_dnrm2_check
libmagma.so.2.8:magmablas_dnrm2_check_v1
libmagma.so.2.8:magmablas_dnrm2_cols
libmagma.so.2.8:magmablas_dnrm2_cols_v1
libmagma.so.2.8:magmablas_dnrm2_row_check_adjust
libmagma.so.2.8:magmablas_dnrm2_row_check_adjust_v1
libmagma.so.2.8:magmablas_dnrm2_sm
libmagma.so.2.8:magmablas_dprbt
libmagma.so.2.8:magmablas_dprbt_batched
libmagma.so.2.8:magmablas_dprbt_mtv
libmagma.so.2.8:magmablas_dprbt_mtv_batched
libmagma.so.2.8:magmablas_dprbt_mtv_v1
libmagma.so.2.8:magmablas_dprbt_mv
libmagma.so.2.8:magmablas_dprbt_mv_batched
libmagma.so.2.8:magmablas_dprbt_mv_v1
libmagma.so.2.8:magmablas_dprbt_v1
libmagma.so.2.8:magmablas_dsaxpycp
libmagma.so.2.8:magmablas_dsaxpycp_v1
libmagma.so.2.8:magmablas_dscal_shift_hpd
libmagma.so.2.8:magmablas_dsetmatrix_transpose
libmagma.so.2.8:magmablas_dsetmatrix_transpose_mgpu
libmagma.so.2.8:magmablas_dsetmatrix_transpose_v1
libmagma.so.2.8:magmablas_dsiinertia
libmagma.so.2.8:magmablas_dslaswp
libmagma.so.2.8:magmablas_dslaswp_v1
libmagma.so.2.8:magmablas_dswap
libmagma.so.2.8:magmablas_dswap_v1
libmagma.so.2.8:magmablas_dswapblk
libmagma.so.2.8:magmablas_dswapblk_v1
libmagma.so.2.8:magmablas_dswapdblk
libmagma.so.2.8:magmablas_dswapdblk_v1
libmagma.so.2.8:magmablas_dsymm
libmagma.so.2.8:magmablas_dsymm_batched
libmagma.so.2.8:magmablas_dsymm_batched_core
libmagma.so.2.8:magmablas_dsymm_mgpu
libmagma.so.2.8:magmablas_dsymm_vbatched
libmagma.so.2.8:magmablas_dsymm_vbatched_core
libmagma.so.2.8:magmablas_dsymm_vbatched_max
libmagma.so.2.8:magmablas_dsymm_vbatched_max_nocheck
libmagma.so.2.8:magmablas_dsymm_vbatched_nocheck
libmagma.so.2.8:magmablas_dsymmetrize
libmagma.so.2.8:magmablas_dsymmetrize_tiles
libmagma.so.2.8:magmablas_dsymmetrize_tiles_v1
libmagma.so.2.8:magmablas_dsymmetrize_v1
libmagma.so.2.8:magmablas_dsymv
libmagma.so.2.8:magmablas_dsymv_batched
libmagma.so.2.8:magmablas_dsymv_batched_core
libmagma.so.2.8:magmablas_dsymv_mgpu
libmagma.so.2.8:magmablas_dsymv_mgpu_sync
libmagma.so.2.8:magmablas_dsymv_v1
libmagma.so.2.8:magmablas_dsymv_vbatched
libmagma.so.2.8:magmablas_dsymv_vbatched_core
libmagma.so.2.8:magmablas_dsymv_vbatched_max
libmagma.so.2.8:magmablas_dsymv_vbatched_max_nocheck
libmagma.so.2.8:magmablas_dsymv_vbatched_nocheck
libmagma.so.2.8:magmablas_dsymv_work
libmagma.so.2.8:magmablas_dsyr2k
libmagma.so.2.8:magmablas_dsyr2k_batched
libmagma.so.2.8:magmablas_dsyr2k_mgpu2
libmagma.so.2.8:magmablas_dsyr2k_vbatched
libmagma.so.2.8:magmablas_dsyr2k_vbatched_max
libmagma.so.2.8:magmablas_dsyr2k_vbatched_max_nocheck
libmagma.so.2.8:magmablas_dsyr2k_vbatched_nocheck
libmagma.so.2.8:magmablas_dsyrk
libmagma.so.2.8:magmablas_dsyrk_batched
libmagma.so.2.8:magmablas_dsyrk_batched_core
libmagma.so.2.8:magmablas_dsyrk_internal
libmagma.so.2.8:magmablas_dsyrk_internal_vbatched
libmagma.so.2.8:magmablas_dsyrk_small_reduce
libmagma.so.2.8:magmablas_dsyrk_vbatched
libmagma.so.2.8:magmablas_dsyrk_vbatched_max
libmagma.so.2.8:magmablas_dsyrk_vbatched_max_nocheck
libmagma.so.2.8:magmablas_dsyrk_vbatched_nocheck
libmagma.so.2.8:magmablas_dtranspose
libmagma.so.2.8:magmablas_dtranspose_batched
libmagma.so.2.8:magmablas_dtranspose_batched_stride
libmagma.so.2.8:magmablas_dtranspose_inplace
libmagma.so.2.8:magmablas_dtranspose_inplace_v1
libmagma.so.2.8:magmablas_dtranspose_v1
libmagma.so.2.8:magmablas_dtrmm
libmagma.so.2.8:magmablas_dtrmm_batched
libmagma.so.2.8:magmablas_dtrmm_batched_core
libmagma.so.2.8:magmablas_dtrmm_vbatched
libmagma.so.2.8:magmablas_dtrmm_vbatched_core
libmagma.so.2.8:magmablas_dtrmm_vbatched_max
libmagma.so.2.8:magmablas_dtrmm_vbatched_max_nocheck
libmagma.so.2.8:magmablas_dtrmm_vbatched_nocheck
libmagma.so.2.8:magmablas_dtrmv
libmagma.so.2.8:magmablas_dtrsm
libmagma.so.2.8:magmablas_dtrsm_batched
libmagma.so.2.8:magmablas_dtrsm_inv_batched
libmagma.so.2.8:magmablas_dtrsm_inv_outofplace_batched
libmagma.so.2.8:magmablas_dtrsm_inv_outofplace_vbatched
libmagma.so.2.8:magmablas_dtrsm_inv_vbatched
libmagma.so.2.8:magmablas_dtrsm_inv_vbatched_max
libmagma.so.2.8:magmablas_dtrsm_inv_vbatched_max_nocheck
libmagma.so.2.8:magmablas_dtrsm_inv_vbatched_nocheck
libmagma.so.2.8:magmablas_dtrsm_inv_work_batched
libmagma.so.2.8:magmablas_dtrsm_inv_work_vbatched
libmagma.so.2.8:magmablas_dtrsm_outofplace
libmagma.so.2.8:magmablas_dtrsm_outofplace_v1
libmagma.so.2.8:magmablas_dtrsm_recursive_batched
libmagma.so.2.8:magmablas_dtrsm_small_batched
libmagma.so.2.8:magmablas_dtrsm_small_vbatched
libmagma.so.2.8:magmablas_dtrsm_v1
libmagma.so.2.8:magmablas_dtrsm_vbatched
libmagma.so.2.8:magmablas_dtrsm_vbatched_core
libmagma.so.2.8:magmablas_dtrsm_vbatched_max
libmagma.so.2.8:magmablas_dtrsm_vbatched_max_nocheck
libmagma.so.2.8:magmablas_dtrsm_vbatched_nocheck
libmagma.so.2.8:magmablas_dtrsm_work
libmagma.so.2.8:magmablas_dtrsm_work_v1
libmagma.so.2.8:magmablas_dtrsv
libmagma.so.2.8:magmablas_dtrsv_batched
libmagma.so.2.8:magmablas_dtrsv_outofplace
libmagma.so.2.8:magmablas_dtrsv_outofplace_batched
libmagma.so.2.8:magmablas_dtrsv_recursive_outofplace
libmagma.so.2.8:magmablas_dtrsv_recursive_outofplace_batched
libmagma.so.2.8:magmablas_dtrsv_work_batched
libmagma.so.2.8:magmablas_dtrtri_diag
libmagma.so.2.8:magmablas_dtrtri_diag_batched
libmagma.so.2.8:magmablas_dtrtri_diag_v1
libmagma.so.2.8:magmablas_dtrtri_diag_vbatched
libmagma.so.2.8:magmablas_dznrm2_adjust
libmagma.so.2.8:magmablas_dznrm2_adjust_v1
libmagma.so.2.8:magmablas_dznrm2_check
libmagma.so.2.8:magmablas_dznrm2_check_v1
libmagma.so.2.8:magmablas_dznrm2_cols
libmagma.so.2.8:magmablas_dznrm2_cols_v1
libmagma.so.2.8:magmablas_dznrm2_row_check_adjust
libmagma.so.2.8:magmablas_dznrm2_row_check_adjust_v1
libmagma.so.2.8:magmablas_dznrm2_sm
libmagma.so.2.8:magmablas_hgemm_batched
libmagma.so.2.8:magmablas_hlag2s
libmagma.so.2.8:magmablas_hlag2s_batched
libmagma.so.2.8:magmablas_hlaswp
libmagma.so.2.8:magmablas_hlaswp2
libmagma.so.2.8:magmablas_saxpycp
libmagma.so.2.8:magmablas_saxpycp_v1
libmagma.so.2.8:magmablas_scnrm2_adjust
libmagma.so.2.8:magmablas_scnrm2_adjust_v1
libmagma.so.2.8:magmablas_scnrm2_check
libmagma.so.2.8:magmablas_scnrm2_check_v1
libmagma.so.2.8:magmablas_scnrm2_cols
libmagma.so.2.8:magmablas_scnrm2_cols_v1
libmagma.so.2.8:magmablas_scnrm2_row_check_adjust
libmagma.so.2.8:magmablas_scnrm2_row_check_adjust_v1
libmagma.so.2.8:magmablas_scnrm2_sm
libmagma.so.2.8:magmablas_sdiinertia
libmagma.so.2.8:magmablas_sdimv_invert
libmagma.so.2.8:magmablas_sextract_diag_sqrt
libmagma.so.2.8:magmablas_sgbtrs_lower_blocked_batched
libmagma.so.2.8:magmablas_sgbtrs_swap_batched
libmagma.so.2.8:magmablas_sgbtrs_upper_blocked_batched
libmagma.so.2.8:magmablas_sgbtrs_upper_columnwise_batched
libmagma.so.2.8:magmablas_sgeadd
libmagma.so.2.8:magmablas_sgeadd2
libmagma.so.2.8:magmablas_sgeadd2_v1
libmagma.so.2.8:magmablas_sgeadd_batched
libmagma.so.2.8:magmablas_sgeadd_v1
libmagma.so.2.8:magmablas_sgeam
libmagma.so.2.8:magmablas_sgemm
libmagma.so.2.8:magmablas_sgemm_batched
libmagma.so.2.8:magmablas_sgemm_batched_core
libmagma.so.2.8:magmablas_sgemm_batched_smallsq
libmagma.so.2.8:magmablas_sgemm_batched_strided
libmagma.so.2.8:magmablas_sgemm_reduce
libmagma.so.2.8:magmablas_sgemm_reduce_v1
libmagma.so.2.8:magmablas_sgemm_v1
libmagma.so.2.8:magmablas_sgemm_vbatched
libmagma.so.2.8:magmablas_sgemm_vbatched_core
libmagma.so.2.8:magmablas_sgemm_vbatched_max
libmagma.so.2.8:magmablas_sgemm_vbatched_max_nocheck
libmagma.so.2.8:magmablas_sgemm_vbatched_nocheck
libmagma.so.2.8:magmablas_sgemv
libmagma.so.2.8:magmablas_sgemv_batched
libmagma.so.2.8:magmablas_sgemv_batched_core
libmagma.so.2.8:magmablas_sgemv_batched_smallsq
libmagma.so.2.8:magmablas_sgemv_batched_strided
libmagma.so.2.8:magmablas_sgemv_batched_strided_smallsq
libmagma.so.2.8:magmablas_sgemv_conj
libmagma.so.2.8:magmablas_sgemv_conj_v1
libmagma.so.2.8:magmablas_sgemv_v1
libmagma.so.2.8:magmablas_sgemv_vbatched
libmagma.so.2.8:magmablas_sgemv_vbatched_max
libmagma.so.2.8:magmablas_sgemv_vbatched_max_nocheck
libmagma.so.2.8:magmablas_sgemv_vbatched_nocheck
libmagma.so.2.8:magmablas_sger_batched_core
libmagma.so.2.8:magmablas_sgetmatrix_transpose
libmagma.so.2.8:magmablas_sgetmatrix_transpose_mgpu
libmagma.so.2.8:magmablas_sgetmatrix_transpose_v1
libmagma.so.2.8:magmablas_slacpy
libmagma.so.2.8:magmablas_slacpy_batched
libmagma.so.2.8:magmablas_slacpy_conj
libmagma.so.2.8:magmablas_slacpy_conj_v1
libmagma.so.2.8:magmablas_slacpy_internal_batched
libmagma.so.2.8:magmablas_slacpy_sym_in
libmagma.so.2.8:magmablas_slacpy_sym_in_v1
libmagma.so.2.8:magmablas_slacpy_sym_out
libmagma.so.2.8:magmablas_slacpy_sym_out_v1
libmagma.so.2.8:magmablas_slacpy_v1
libmagma.so.2.8:magmablas_slacpy_vbatched
libmagma.so.2.8:magmablas_slag2d
libmagma.so.2.8:magmablas_slag2d_v1
libmagma.so.2.8:magmablas_slag2h
libmagma.so.2.8:magmablas_slag2h_batched
libmagma.so.2.8:magmablas_slange
libmagma.so.2.8:magmablas_slange_v1
libmagma.so.2.8:magmablas_slansy
libmagma.so.2.8:magmablas_slansy_v1
libmagma.so.2.8:magmablas_slarfg
libmagma.so.2.8:magmablas_slarfg_v1
libmagma.so.2.8:magmablas_slarft_recstrmv_sm32x32
libmagma.so.2.8:magmablas_slarft_recstrmv_sm32x32_batched
libmagma.so.2.8:magmablas_slarft_strmv_sm32x32
libmagma.so.2.8:magmablas_slarft_strmv_sm32x32_batched
libmagma.so.2.8:magmablas_slascl
libmagma.so.2.8:magmablas_slascl2
libmagma.so.2.8:magmablas_slascl2_v1
libmagma.so.2.8:magmablas_slascl_2x2
libmagma.so.2.8:magmablas_slascl_2x2_v1
libmagma.so.2.8:magmablas_slascl_diag
libmagma.so.2.8:magmablas_slascl_diag_v1
libmagma.so.2.8:magmablas_slascl_v1
libmagma.so.2.8:magmablas_slaset
libmagma.so.2.8:magmablas_slaset_band
libmagma.so.2.8:magmablas_slaset_band_v1
libmagma.so.2.8:magmablas_slaset_batched
libmagma.so.2.8:magmablas_slaset_internal_batched
libmagma.so.2.8:magmablas_slaset_v1
libmagma.so.2.8:magmablas_slaset_vbatched
libmagma.so.2.8:magmablas_slaswp
libmagma.so.2.8:magmablas_slaswp2
libmagma.so.2.8:magmablas_slaswp2_v1
libmagma.so.2.8:magmablas_slaswp_sym
libmagma.so.2.8:magmablas_slaswp_sym_v1
libmagma.so.2.8:magmablas_slaswp_v1
libmagma.so.2.8:magmablas_slaswpx
libmagma.so.2.8:magmablas_slaswpx_v1
libmagma.so.2.8:magmablas_slat2d
libmagma.so.2.8:magmablas_slat2d_v1
libmagma.so.2.8:magmablas_snrm2_adjust
libmagma.so.2.8:magmablas_snrm2_adjust_v1
libmagma.so.2.8:magmablas_snrm2_check
libmagma.so.2.8:magmablas_snrm2_check_v1
libmagma.so.2.8:magmablas_snrm2_cols
libmagma.so.2.8:magmablas_snrm2_cols_v1
libmagma.so.2.8:magmablas_snrm2_row_check_adjust
libmagma.so.2.8:magmablas_snrm2_row_check_adjust_v1
libmagma.so.2.8:magmablas_snrm2_sm
libmagma.so.2.8:magmablas_sprbt
libmagma.so.2.8:magmablas_sprbt_batched
libmagma.so.2.8:magmablas_sprbt_mtv
libmagma.so.2.8:magmablas_sprbt_mtv_batched
libmagma.so.2.8:magmablas_sprbt_mtv_v1
libmagma.so.2.8:magmablas_sprbt_mv
libmagma.so.2.8:magmablas_sprbt_mv_batched
libmagma.so.2.8:magmablas_sprbt_mv_v1
libmagma.so.2.8:magmablas_sprbt_v1
libmagma.so.2.8:magmablas_sscal_shift_hpd
libmagma.so.2.8:magmablas_ssetmatrix_transpose
libmagma.so.2.8:magmablas_ssetmatrix_transpose_mgpu
libmagma.so.2.8:magmablas_ssetmatrix_transpose_v1
libmagma.so.2.8:magmablas_ssiinertia
libmagma.so.2.8:magmablas_sswap
libmagma.so.2.8:magmablas_sswap_v1
libmagma.so.2.8:magmablas_sswapblk
libmagma.so.2.8:magmablas_sswapblk_v1
libmagma.so.2.8:magmablas_sswapdblk
libmagma.so.2.8:magmablas_sswapdblk_v1
libmagma.so.2.8:magmablas_ssymm
libmagma.so.2.8:magmablas_ssymm_batched
libmagma.so.2.8:magmablas_ssymm_batched_core
libmagma.so.2.8:magmablas_ssymm_mgpu
libmagma.so.2.8:magmablas_ssymm_vbatched
libmagma.so.2.8:magmablas_ssymm_vbatched_core
libmagma.so.2.8:magmablas_ssymm_vbatched_max
libmagma.so.2.8:magmablas_ssymm_vbatched_max_nocheck
libmagma.so.2.8:magmablas_ssymm_vbatched_nocheck
libmagma.so.2.8:magmablas_ssymmetrize
libmagma.so.2.8:magmablas_ssymmetrize_tiles
libmagma.so.2.8:magmablas_ssymmetrize_tiles_v1
libmagma.so.2.8:magmablas_ssymmetrize_v1
libmagma.so.2.8:magmablas_ssymv
libmagma.so.2.8:magmablas_ssymv_batched
libmagma.so.2.8:magmablas_ssymv_batched_core
libmagma.so.2.8:magmablas_ssymv_mgpu
libmagma.so.2.8:magmablas_ssymv_mgpu_sync
libmagma.so.2.8:magmablas_ssymv_v1
libmagma.so.2.8:magmablas_ssymv_vbatched
libmagma.so.2.8:magmablas_ssymv_vbatched_core
libmagma.so.2.8:magmablas_ssymv_vbatched_max
libmagma.so.2.8:magmablas_ssymv_vbatched_max_nocheck
libmagma.so.2.8:magmablas_ssymv_vbatched_nocheck
libmagma.so.2.8:magmablas_ssymv_work
libmagma.so.2.8:magmablas_ssyr2k
libmagma.so.2.8:magmablas_ssyr2k_batched
libmagma.so.2.8:magmablas_ssyr2k_mgpu2
libmagma.so.2.8:magmablas_ssyr2k_vbatched
libmagma.so.2.8:magmablas_ssyr2k_vbatched_max
libmagma.so.2.8:magmablas_ssyr2k_vbatched_max_nocheck
libmagma.so.2.8:magmablas_ssyr2k_vbatched_nocheck
libmagma.so.2.8:magmablas_ssyrk
libmagma.so.2.8:magmablas_ssyrk_batched
libmagma.so.2.8:magmablas_ssyrk_batched_core
libmagma.so.2.8:magmablas_ssyrk_internal
libmagma.so.2.8:magmablas_ssyrk_internal_vbatched
libmagma.so.2.8:magmablas_ssyrk_small_reduce
libmagma.so.2.8:magmablas_ssyrk_vbatched
libmagma.so.2.8:magmablas_ssyrk_vbatched_max
libmagma.so.2.8:magmablas_ssyrk_vbatched_max_nocheck
libmagma.so.2.8:magmablas_ssyrk_vbatched_nocheck
libmagma.so.2.8:magmablas_stranspose
libmagma.so.2.8:magmablas_stranspose_batched
libmagma.so.2.8:magmablas_stranspose_batched_stride
libmagma.so.2.8:magmablas_stranspose_inplace
libmagma.so.2.8:magmablas_stranspose_inplace_v1
libmagma.so.2.8:magmablas_stranspose_v1
libmagma.so.2.8:magmablas_strmm
libmagma.so.2.8:magmablas_strmm_batched
libmagma.so.2.8:magmablas_strmm_batched_core
libmagma.so.2.8:magmablas_strmm_vbatched
libmagma.so.2.8:magmablas_strmm_vbatched_core
libmagma.so.2.8:magmablas_strmm_vbatched_max
libmagma.so.2.8:magmablas_strmm_vbatched_max_nocheck
libmagma.so.2.8:magmablas_strmm_vbatched_nocheck
libmagma.so.2.8:magmablas_strmv
libmagma.so.2.8:magmablas_strsm
libmagma.so.2.8:magmablas_strsm_batched
libmagma.so.2.8:magmablas_strsm_inv_batched
libmagma.so.2.8:magmablas_strsm_inv_outofplace_batched
libmagma.so.2.8:magmablas_strsm_inv_outofplace_vbatched
libmagma.so.2.8:magmablas_strsm_inv_vbatched
libmagma.so.2.8:magmablas_strsm_inv_vbatched_max
libmagma.so.2.8:magmablas_strsm_inv_vbatched_max_nocheck
libmagma.so.2.8:magmablas_strsm_inv_vbatched_nocheck
libmagma.so.2.8:magmablas_strsm_inv_work_batched
libmagma.so.2.8:magmablas_strsm_inv_work_vbatched
libmagma.so.2.8:magmablas_strsm_outofplace
libmagma.so.2.8:magmablas_strsm_outofplace_v1
libmagma.so.2.8:magmablas_strsm_recursive_batched
libmagma.so.2.8:magmablas_strsm_small_batched
libmagma.so.2.8:magmablas_strsm_small_vbatched
libmagma.so.2.8:magmablas_strsm_v1
libmagma.so.2.8:magmablas_strsm_vbatched
libmagma.so.2.8:magmablas_strsm_vbatched_core
libmagma.so.2.8:magmablas_strsm_vbatched_max
libmagma.so.2.8:magmablas_strsm_vbatched_max_nocheck
libmagma.so.2.8:magmablas_strsm_vbatched_nocheck
libmagma.so.2.8:magmablas_strsm_work
libmagma.so.2.8:magmablas_strsm_work_v1
libmagma.so.2.8:magmablas_strsv
libmagma.so.2.8:magmablas_strsv_batched
libmagma.so.2.8:magmablas_strsv_outofplace
libmagma.so.2.8:magmablas_strsv_outofplace_batched
libmagma.so.2.8:magmablas_strsv_recursive_outofplace
libmagma.so.2.8:magmablas_strsv_recursive_outofplace_batched
libmagma.so.2.8:magmablas_strsv_work_batched
libmagma.so.2.8:magmablas_strtri_diag
libmagma.so.2.8:magmablas_strtri_diag_batched
libmagma.so.2.8:magmablas_strtri_diag_v1
libmagma.so.2.8:magmablas_strtri_diag_vbatched
libmagma.so.2.8:magmablas_zaxpycp
libmagma.so.2.8:magmablas_zaxpycp_v1
libmagma.so.2.8:magmablas_zcaxpycp
libmagma.so.2.8:magmablas_zcaxpycp_v1
libmagma.so.2.8:magmablas_zclaswp
libmagma.so.2.8:magmablas_zclaswp_v1
libmagma.so.2.8:magmablas_zdiinertia
libmagma.so.2.8:magmablas_zdimv_invert
libmagma.so.2.8:magmablas_zextract_diag_sqrt
libmagma.so.2.8:magmablas_zgbtrs_lower_blocked_batched
libmagma.so.2.8:magmablas_zgbtrs_swap_batched
libmagma.so.2.8:magmablas_zgbtrs_upper_blocked_batched
libmagma.so.2.8:magmablas_zgbtrs_upper_columnwise_batched
libmagma.so.2.8:magmablas_zgeadd
libmagma.so.2.8:magmablas_zgeadd2
libmagma.so.2.8:magmablas_zgeadd2_v1
libmagma.so.2.8:magmablas_zgeadd_batched
libmagma.so.2.8:magmablas_zgeadd_v1
libmagma.so.2.8:magmablas_zgeam
libmagma.so.2.8:magmablas_zgemm
libmagma.so.2.8:magmablas_zgemm_batched
libmagma.so.2.8:magmablas_zgemm_batched_core
libmagma.so.2.8:magmablas_zgemm_batched_smallsq
libmagma.so.2.8:magmablas_zgemm_batched_strided
libmagma.so.2.8:magmablas_zgemm_reduce
libmagma.so.2.8:magmablas_zgemm_reduce_v1
libmagma.so.2.8:magmablas_zgemm_v1
libmagma.so.2.8:magmablas_zgemm_vbatched
libmagma.so.2.8:magmablas_zgemm_vbatched_core
libmagma.so.2.8:magmablas_zgemm_vbatched_max
libmagma.so.2.8:magmablas_zgemm_vbatched_max_nocheck
libmagma.so.2.8:magmablas_zgemm_vbatched_nocheck
libmagma.so.2.8:magmablas_zgemv
libmagma.so.2.8:magmablas_zgemv_batched
libmagma.so.2.8:magmablas_zgemv_batched_core
libmagma.so.2.8:magmablas_zgemv_batched_smallsq
libmagma.so.2.8:magmablas_zgemv_batched_strided
libmagma.so.2.8:magmablas_zgemv_batched_strided_smallsq
libmagma.so.2.8:magmablas_zgemv_conj
libmagma.so.2.8:magmablas_zgemv_conj_v1
libmagma.so.2.8:magmablas_zgemv_v1
libmagma.so.2.8:magmablas_zgemv_vbatched
libmagma.so.2.8:magmablas_zgemv_vbatched_max
libmagma.so.2.8:magmablas_zgemv_vbatched_max_nocheck
libmagma.so.2.8:magmablas_zgemv_vbatched_nocheck
libmagma.so.2.8:magmablas_zgeru_batched_core
libmagma.so.2.8:magmablas_zgetmatrix_transpose
libmagma.so.2.8:magmablas_zgetmatrix_transpose_mgpu
libmagma.so.2.8:magmablas_zgetmatrix_transpose_v1
libmagma.so.2.8:magmablas_zheinertia
libmagma.so.2.8:magmablas_zhemm
libmagma.so.2.8:magmablas_zhemm_batched
libmagma.so.2.8:magmablas_zhemm_batched_core
libmagma.so.2.8:magmablas_zhemm_mgpu
libmagma.so.2.8:magmablas_zhemm_vbatched
libmagma.so.2.8:magmablas_zhemm_vbatched_core
libmagma.so.2.8:magmablas_zhemm_vbatched_max
libmagma.so.2.8:magmablas_zhemm_vbatched_max_nocheck
libmagma.so.2.8:magmablas_zhemm_vbatched_nocheck
libmagma.so.2.8:magmablas_zhemv
libmagma.so.2.8:magmablas_zhemv_batched
libmagma.so.2.8:magmablas_zhemv_batched_core
libmagma.so.2.8:magmablas_zhemv_mgpu
libmagma.so.2.8:magmablas_zhemv_mgpu_sync
libmagma.so.2.8:magmablas_zhemv_v1
libmagma.so.2.8:magmablas_zhemv_vbatched
libmagma.so.2.8:magmablas_zhemv_vbatched_core
libmagma.so.2.8:magmablas_zhemv_vbatched_max
libmagma.so.2.8:magmablas_zhemv_vbatched_max_nocheck
libmagma.so.2.8:magmablas_zhemv_vbatched_nocheck
libmagma.so.2.8:magmablas_zhemv_work
libmagma.so.2.8:magmablas_zher2k
libmagma.so.2.8:magmablas_zher2k_batched
libmagma.so.2.8:magmablas_zher2k_mgpu2
libmagma.so.2.8:magmablas_zher2k_vbatched
libmagma.so.2.8:magmablas_zher2k_vbatched_max
libmagma.so.2.8:magmablas_zher2k_vbatched_max_nocheck
libmagma.so.2.8:magmablas_zher2k_vbatched_nocheck
libmagma.so.2.8:magmablas_zherk
libmagma.so.2.8:magmablas_zherk_batched
libmagma.so.2.8:magmablas_zherk_batched_core
libmagma.so.2.8:magmablas_zherk_internal
libmagma.so.2.8:magmablas_zherk_internal_vbatched
libmagma.so.2.8:magmablas_zherk_small_reduce
libmagma.so.2.8:magmablas_zherk_vbatched
libmagma.so.2.8:magmablas_zherk_vbatched_max
libmagma.so.2.8:magmablas_zherk_vbatched_max_nocheck
libmagma.so.2.8:magmablas_zherk_vbatched_nocheck
libmagma.so.2.8:magmablas_zlacpy
libmagma.so.2.8:magmablas_zlacpy_batched
libmagma.so.2.8:magmablas_zlacpy_conj
libmagma.so.2.8:magmablas_zlacpy_conj_v1
libmagma.so.2.8:magmablas_zlacpy_internal_batched
libmagma.so.2.8:magmablas_zlacpy_sym_in
libmagma.so.2.8:magmablas_zlacpy_sym_in_v1
libmagma.so.2.8:magmablas_zlacpy_sym_out
libmagma.so.2.8:magmablas_zlacpy_sym_out_v1
libmagma.so.2.8:magmablas_zlacpy_v1
libmagma.so.2.8:magmablas_zlacpy_vbatched
libmagma.so.2.8:magmablas_zlag2c
libmagma.so.2.8:magmablas_zlag2c_v1
libmagma.so.2.8:magmablas_zlange
libmagma.so.2.8:magmablas_zlange_v1
libmagma.so.2.8:magmablas_zlanhe
libmagma.so.2.8:magmablas_zlanhe_v1
libmagma.so.2.8:magmablas_zlarfg
libmagma.so.2.8:magmablas_zlarfg_v1
libmagma.so.2.8:magmablas_zlarft_recztrmv_sm32x32
libmagma.so.2.8:magmablas_zlarft_recztrmv_sm32x32_batched
libmagma.so.2.8:magmablas_zlarft_ztrmv_sm32x32
libmagma.so.2.8:magmablas_zlarft_ztrmv_sm32x32_batched
libmagma.so.2.8:magmablas_zlascl
libmagma.so.2.8:magmablas_zlascl2
libmagma.so.2.8:magmablas_zlascl2_v1
libmagma.so.2.8:magmablas_zlascl_2x2
libmagma.so.2.8:magmablas_zlascl_2x2_v1
libmagma.so.2.8:magmablas_zlascl_diag
libmagma.so.2.8:magmablas_zlascl_diag_v1
libmagma.so.2.8:magmablas_zlascl_v1
libmagma.so.2.8:magmablas_zlaset
libmagma.so.2.8:magmablas_zlaset_band
libmagma.so.2.8:magmablas_zlaset_band_v1
libmagma.so.2.8:magmablas_zlaset_batched
libmagma.so.2.8:magmablas_zlaset_internal_batched
libmagma.so.2.8:magmablas_zlaset_v1
libmagma.so.2.8:magmablas_zlaset_vbatched
libmagma.so.2.8:magmablas_zlaswp
libmagma.so.2.8:magmablas_zlaswp2
libmagma.so.2.8:magmablas_zlaswp2_v1
libmagma.so.2.8:magmablas_zlaswp_sym
libmagma.so.2.8:magmablas_zlaswp_sym_v1
libmagma.so.2.8:magmablas_zlaswp_v1
libmagma.so.2.8:magmablas_zlaswpx
libmagma.so.2.8:magmablas_zlaswpx_v1
libmagma.so.2.8:magmablas_zlat2c
libmagma.so.2.8:magmablas_zlat2c_v1
libmagma.so.2.8:magmablas_zprbt
libmagma.so.2.8:magmablas_zprbt_batched
libmagma.so.2.8:magmablas_zprbt_mtv
libmagma.so.2.8:magmablas_zprbt_mtv_batched
libmagma.so.2.8:magmablas_zprbt_mtv_v1
libmagma.so.2.8:magmablas_zprbt_mv
libmagma.so.2.8:magmablas_zprbt_mv_batched
libmagma.so.2.8:magmablas_zprbt_mv_v1
libmagma.so.2.8:magmablas_zprbt_v1
libmagma.so.2.8:magmablas_zscal_shift_hpd
libmagma.so.2.8:magmablas_zsetmatrix_transpose
libmagma.so.2.8:magmablas_zsetmatrix_transpose_mgpu
libmagma.so.2.8:magmablas_zsetmatrix_transpose_v1
libmagma.so.2.8:magmablas_zswap
libmagma.so.2.8:magmablas_zswap_v1
libmagma.so.2.8:magmablas_zswapblk
libmagma.so.2.8:magmablas_zswapblk_v1
libmagma.so.2.8:magmablas_zswapdblk
libmagma.so.2.8:magmablas_zswapdblk_v1
libmagma.so.2.8:magmablas_zsymm
libmagma.so.2.8:magmablas_zsymmetrize
libmagma.so.2.8:magmablas_zsymmetrize_tiles
libmagma.so.2.8:magmablas_zsymmetrize_tiles_v1
libmagma.so.2.8:magmablas_zsymmetrize_v1
libmagma.so.2.8:magmablas_zsymv
libmagma.so.2.8:magmablas_zsymv_v1
libmagma.so.2.8:magmablas_zsymv_work
libmagma.so.2.8:magmablas_zsyr2k
libmagma.so.2.8:magmablas_zsyr2k_batched
libmagma.so.2.8:magmablas_zsyr2k_vbatched
libmagma.so.2.8:magmablas_zsyr2k_vbatched_max
libmagma.so.2.8:magmablas_zsyr2k_vbatched_max_nocheck
libmagma.so.2.8:magmablas_zsyr2k_vbatched_nocheck
libmagma.so.2.8:magmablas_zsyrk
libmagma.so.2.8:magmablas_zsyrk_batched
libmagma.so.2.8:magmablas_zsyrk_batched_core
libmagma.so.2.8:magmablas_zsyrk_internal_vbatched
libmagma.so.2.8:magmablas_zsyrk_vbatched
libmagma.so.2.8:magmablas_zsyrk_vbatched_max
libmagma.so.2.8:magmablas_zsyrk_vbatched_max_nocheck
libmagma.so.2.8:magmablas_zsyrk_vbatched_nocheck
libmagma.so.2.8:magmablas_ztranspose
libmagma.so.2.8:magmablas_ztranspose_batched
libmagma.so.2.8:magmablas_ztranspose_batched_stride
libmagma.so.2.8:magmablas_ztranspose_conj
libmagma.so.2.8:magmablas_ztranspose_conj_batched
libmagma.so.2.8:magmablas_ztranspose_conj_inplace
libmagma.so.2.8:magmablas_ztranspose_conj_inplace_v1
libmagma.so.2.8:magmablas_ztranspose_conj_v1
libmagma.so.2.8:magmablas_ztranspose_inplace
libmagma.so.2.8:magmablas_ztranspose_inplace_v1
libmagma.so.2.8:magmablas_ztranspose_v1
libmagma.so.2.8:magmablas_ztrmm
libmagma.so.2.8:magmablas_ztrmm_batched
libmagma.so.2.8:magmablas_ztrmm_batched_core
libmagma.so.2.8:magmablas_ztrmm_vbatched
libmagma.so.2.8:magmablas_ztrmm_vbatched_core
libmagma.so.2.8:magmablas_ztrmm_vbatched_max
libmagma.so.2.8:magmablas_ztrmm_vbatched_max_nocheck
libmagma.so.2.8:magmablas_ztrmm_vbatched_nocheck
libmagma.so.2.8:magmablas_ztrmv
libmagma.so.2.8:magmablas_ztrsm
libmagma.so.2.8:magmablas_ztrsm_batched
libmagma.so.2.8:magmablas_ztrsm_inv_batched
libmagma.so.2.8:magmablas_ztrsm_inv_outofplace_batched
libmagma.so.2.8:magmablas_ztrsm_inv_outofplace_vbatched
libmagma.so.2.8:magmablas_ztrsm_inv_vbatched
libmagma.so.2.8:magmablas_ztrsm_inv_vbatched_max
libmagma.so.2.8:magmablas_ztrsm_inv_vbatched_max_nocheck
libmagma.so.2.8:magmablas_ztrsm_inv_vbatched_nocheck
libmagma.so.2.8:magmablas_ztrsm_inv_work_batched
libmagma.so.2.8:magmablas_ztrsm_inv_work_vbatched
libmagma.so.2.8:magmablas_ztrsm_outofplace
libmagma.so.2.8:magmablas_ztrsm_outofplace_v1
libmagma.so.2.8:magmablas_ztrsm_recursive_batched
libmagma.so.2.8:magmablas_ztrsm_small_batched
libmagma.so.2.8:magmablas_ztrsm_small_vbatched
libmagma.so.2.8:magmablas_ztrsm_v1
libmagma.so.2.8:magmablas_ztrsm_vbatched
libmagma.so.2.8:magmablas_ztrsm_vbatched_core
libmagma.so.2.8:magmablas_ztrsm_vbatched_max
libmagma.so.2.8:magmablas_ztrsm_vbatched_max_nocheck
libmagma.so.2.8:magmablas_ztrsm_vbatched_nocheck
libmagma.so.2.8:magmablas_ztrsm_work
libmagma.so.2.8:magmablas_ztrsm_work_v1
libmagma.so.2.8:magmablas_ztrsv
libmagma.so.2.8:magmablas_ztrsv_batched
libmagma.so.2.8:magmablas_ztrsv_outofplace
libmagma.so.2.8:magmablas_ztrsv_outofplace_batched
libmagma.so.2.8:magmablas_ztrsv_recursive_outofplace
libmagma.so.2.8:magmablas_ztrsv_recursive_outofplace_batched
libmagma.so.2.8:magmablas_ztrsv_work_batched
libmagma.so.2.8:magmablas_ztrtri_diag
libmagma.so.2.8:magmablas_ztrtri_diag_batched
libmagma.so.2.8:magmablas_ztrtri_diag_v1
libmagma.so.2.8:magmablas_ztrtri_diag_vbatched
libmagma.so.2.8:magmablasf_caxpycp_
libmagma.so.2.8:magmablasf_cgeadd2_
libmagma.so.2.8:magmablasf_cgeadd_
libmagma.so.2.8:magmablasf_cgemm_
libmagma.so.2.8:magmablasf_cgemm_reduce_
libmagma.so.2.8:magmablasf_cgemv_
libmagma.so.2.8:magmablasf_cgemv_conj_
libmagma.so.2.8:magmablasf_cgetmatrix_transpose_
libmagma.so.2.8:magmablasf_chemv_
libmagma.so.2.8:magmablasf_chemv_work_
libmagma.so.2.8:magmablasf_clacpy_
libmagma.so.2.8:magmablasf_clacpy_conj_
libmagma.so.2.8:magmablasf_clacpy_sym_in_
libmagma.so.2.8:magmablasf_clacpy_sym_out_
libmagma.so.2.8:magmablasf_clange_
libmagma.so.2.8:magmablasf_clanhe_
libmagma.so.2.8:magmablasf_clascl2_
libmagma.so.2.8:magmablasf_clascl_
libmagma.so.2.8:magmablasf_clascl_2x2_
libmagma.so.2.8:magmablasf_clascl_diag_
libmagma.so.2.8:magmablasf_claset_
libmagma.so.2.8:magmablasf_claset_band_
libmagma.so.2.8:magmablasf_claswp2_
libmagma.so.2.8:magmablasf_claswp_
libmagma.so.2.8:magmablasf_claswp_sym_
libmagma.so.2.8:magmablasf_claswpx_
libmagma.so.2.8:magmablasf_cprbt_
libmagma.so.2.8:magmablasf_cprbt_mtv_
libmagma.so.2.8:magmablasf_cprbt_mv_
libmagma.so.2.8:magmablasf_csetmatrix_transpose_
libmagma.so.2.8:magmablasf_cswap_
libmagma.so.2.8:magmablasf_cswapblk_
libmagma.so.2.8:magmablasf_cswapdblk_
libmagma.so.2.8:magmablasf_csymmetrize_
libmagma.so.2.8:magmablasf_csymmetrize_tiles_
libmagma.so.2.8:magmablasf_csymv_
libmagma.so.2.8:magmablasf_csymv_work_
libmagma.so.2.8:magmablasf_ctranspose_
libmagma.so.2.8:magmablasf_ctranspose_conj_
libmagma.so.2.8:magmablasf_ctranspose_conj_inplace_
libmagma.so.2.8:magmablasf_ctranspose_inplace_
libmagma.so.2.8:magmablasf_ctrsm_
libmagma.so.2.8:magmablasf_ctrsm_outofplace_
libmagma.so.2.8:magmablasf_ctrsm_work_
libmagma.so.2.8:magmablasf_ctrsv_
libmagma.so.2.8:magmablasf_ctrsv_outofplace_
libmagma.so.2.8:magmablasf_ctrtri_diag_
libmagma.so.2.8:magmablasf_daxpycp_
libmagma.so.2.8:magmablasf_dgeadd2_
libmagma.so.2.8:magmablasf_dgeadd_
libmagma.so.2.8:magmablasf_dgemm_
libmagma.so.2.8:magmablasf_dgemm_reduce_
libmagma.so.2.8:magmablasf_dgemv_
libmagma.so.2.8:magmablasf_dgemv_conj_
libmagma.so.2.8:magmablasf_dgetmatrix_transpose_
libmagma.so.2.8:magmablasf_dlacpy_
libmagma.so.2.8:magmablasf_dlacpy_conj_
libmagma.so.2.8:magmablasf_dlacpy_sym_in_
libmagma.so.2.8:magmablasf_dlacpy_sym_out_
libmagma.so.2.8:magmablasf_dlange_
libmagma.so.2.8:magmablasf_dlansy_
libmagma.so.2.8:magmablasf_dlascl2_
libmagma.so.2.8:magmablasf_dlascl_
libmagma.so.2.8:magmablasf_dlascl_2x2_
libmagma.so.2.8:magmablasf_dlascl_diag_
libmagma.so.2.8:magmablasf_dlaset_
libmagma.so.2.8:magmablasf_dlaset_band_
libmagma.so.2.8:magmablasf_dlaswp2_
libmagma.so.2.8:magmablasf_dlaswp_
libmagma.so.2.8:magmablasf_dlaswp_sym_
libmagma.so.2.8:magmablasf_dlaswpx_
libmagma.so.2.8:magmablasf_dnrm2_adjust_
libmagma.so.2.8:magmablasf_dnrm2_check_
libmagma.so.2.8:magmablasf_dnrm2_cols_
libmagma.so.2.8:magmablasf_dnrm2_row_check_adjust_
libmagma.so.2.8:magmablasf_dprbt_
libmagma.so.2.8:magmablasf_dprbt_mtv_
libmagma.so.2.8:magmablasf_dprbt_mv_
libmagma.so.2.8:magmablasf_dsetmatrix_transpose_
libmagma.so.2.8:magmablasf_dswap_
libmagma.so.2.8:magmablasf_dswapblk_
libmagma.so.2.8:magmablasf_dswapdblk_
libmagma.so.2.8:magmablasf_dsymmetrize_
libmagma.so.2.8:magmablasf_dsymmetrize_tiles_
libmagma.so.2.8:magmablasf_dsymv_
libmagma.so.2.8:magmablasf_dsymv_work_
libmagma.so.2.8:magmablasf_dtranspose_
libmagma.so.2.8:magmablasf_dtranspose_inplace_
libmagma.so.2.8:magmablasf_dtrsm_
libmagma.so.2.8:magmablasf_dtrsm_outofplace_
libmagma.so.2.8:magmablasf_dtrsm_work_
libmagma.so.2.8:magmablasf_dtrsv_
libmagma.so.2.8:magmablasf_dtrsv_outofplace_
libmagma.so.2.8:magmablasf_dtrtri_diag_
libmagma.so.2.8:magmablasf_dznrm2_adjust_
libmagma.so.2.8:magmablasf_dznrm2_check_
libmagma.so.2.8:magmablasf_dznrm2_cols_
libmagma.so.2.8:magmablasf_dznrm2_row_check_adjust_
libmagma.so.2.8:magmablasf_saxpycp_
libmagma.so.2.8:magmablasf_scnrm2_adjust_
libmagma.so.2.8:magmablasf_scnrm2_check_
libmagma.so.2.8:magmablasf_scnrm2_cols_
libmagma.so.2.8:magmablasf_scnrm2_row_check_adjust_
libmagma.so.2.8:magmablasf_sgeadd2_
libmagma.so.2.8:magmablasf_sgeadd_
libmagma.so.2.8:magmablasf_sgemm_
libmagma.so.2.8:magmablasf_sgemm_reduce_
libmagma.so.2.8:magmablasf_sgemv_
libmagma.so.2.8:magmablasf_sgemv_conj_
libmagma.so.2.8:magmablasf_sgetmatrix_transpose_
libmagma.so.2.8:magmablasf_slacpy_
libmagma.so.2.8:magmablasf_slacpy_conj_
libmagma.so.2.8:magmablasf_slacpy_sym_in_
libmagma.so.2.8:magmablasf_slacpy_sym_out_
libmagma.so.2.8:magmablasf_slange_
libmagma.so.2.8:magmablasf_slansy_
libmagma.so.2.8:magmablasf_slascl2_
libmagma.so.2.8:magmablasf_slascl_
libmagma.so.2.8:magmablasf_slascl_2x2_
libmagma.so.2.8:magmablasf_slascl_diag_
libmagma.so.2.8:magmablasf_slaset_
libmagma.so.2.8:magmablasf_slaset_band_
libmagma.so.2.8:magmablasf_slaswp2_
libmagma.so.2.8:magmablasf_slaswp_
libmagma.so.2.8:magmablasf_slaswp_sym_
libmagma.so.2.8:magmablasf_slaswpx_
libmagma.so.2.8:magmablasf_snrm2_adjust_
libmagma.so.2.8:magmablasf_snrm2_check_
libmagma.so.2.8:magmablasf_snrm2_cols_
libmagma.so.2.8:magmablasf_snrm2_row_check_adjust_
libmagma.so.2.8:magmablasf_sprbt_
libmagma.so.2.8:magmablasf_sprbt_mtv_
libmagma.so.2.8:magmablasf_sprbt_mv_
libmagma.so.2.8:magmablasf_ssetmatrix_transpose_
libmagma.so.2.8:magmablasf_sswap_
libmagma.so.2.8:magmablasf_sswapblk_
libmagma.so.2.8:magmablasf_sswapdblk_
libmagma.so.2.8:magmablasf_ssymmetrize_
libmagma.so.2.8:magmablasf_ssymmetrize_tiles_
libmagma.so.2.8:magmablasf_ssymv_
libmagma.so.2.8:magmablasf_ssymv_work_
libmagma.so.2.8:magmablasf_stranspose_
libmagma.so.2.8:magmablasf_stranspose_inplace_
libmagma.so.2.8:magmablasf_strsm_
libmagma.so.2.8:magmablasf_strsm_outofplace_
libmagma.so.2.8:magmablasf_strsm_work_
libmagma.so.2.8:magmablasf_strsv_
libmagma.so.2.8:magmablasf_strsv_outofplace_
libmagma.so.2.8:magmablasf_strtri_diag_
libmagma.so.2.8:magmablasf_zaxpycp_
libmagma.so.2.8:magmablasf_zgeadd2_
libmagma.so.2.8:magmablasf_zgeadd_
libmagma.so.2.8:magmablasf_zgemm_
libmagma.so.2.8:magmablasf_zgemm_reduce_
libmagma.so.2.8:magmablasf_zgemv_
libmagma.so.2.8:magmablasf_zgemv_conj_
libmagma.so.2.8:magmablasf_zgetmatrix_transpose_
libmagma.so.2.8:magmablasf_zhemv_
libmagma.so.2.8:magmablasf_zhemv_work_
libmagma.so.2.8:magmablasf_zlacpy_
libmagma.so.2.8:magmablasf_zlacpy_conj_
libmagma.so.2.8:magmablasf_zlacpy_sym_in_
libmagma.so.2.8:magmablasf_zlacpy_sym_out_
libmagma.so.2.8:magmablasf_zlange_
libmagma.so.2.8:magmablasf_zlanhe_
libmagma.so.2.8:magmablasf_zlascl2_
libmagma.so.2.8:magmablasf_zlascl_
libmagma.so.2.8:magmablasf_zlascl_2x2_
libmagma.so.2.8:magmablasf_zlascl_diag_
libmagma.so.2.8:magmablasf_zlaset_
libmagma.so.2.8:magmablasf_zlaset_band_
libmagma.so.2.8:magmablasf_zlaswp2_
libmagma.so.2.8:magmablasf_zlaswp_
libmagma.so.2.8:magmablasf_zlaswp_sym_
libmagma.so.2.8:magmablasf_zlaswpx_
libmagma.so.2.8:magmablasf_zprbt_
libmagma.so.2.8:magmablasf_zprbt_mtv_
libmagma.so.2.8:magmablasf_zprbt_mv_
libmagma.so.2.8:magmablasf_zsetmatrix_transpose_
libmagma.so.2.8:magmablasf_zswap_
libmagma.so.2.8:magmablasf_zswapblk_
libmagma.so.2.8:magmablasf_zswapdblk_
libmagma.so.2.8:magmablasf_zsymmetrize_
libmagma.so.2.8:magmablasf_zsymmetrize_tiles_
libmagma.so.2.8:magmablasf_zsymv_
libmagma.so.2.8:magmablasf_zsymv_work_
libmagma.so.2.8:magmablasf_ztranspose_
libmagma.so.2.8:magmablasf_ztranspose_conj_
libmagma.so.2.8:magmablasf_ztranspose_conj_inplace_
libmagma.so.2.8:magmablasf_ztranspose_inplace_
libmagma.so.2.8:magmablasf_ztrsm_
libmagma.so.2.8:magmablasf_ztrsm_outofplace_
libmagma.so.2.8:magmablasf_ztrsm_work_
libmagma.so.2.8:magmablasf_ztrsv_
libmagma.so.2.8:magmablasf_ztrsv_outofplace_
libmagma.so.2.8:magmablasf_ztrtri_diag_
libmagma.so.2.8:magmaf_c_isinf_
libmagma.so.2.8:magmaf_c_isnan_
libmagma.so.2.8:magmaf_c_isnan_inf_
libmagma.so.2.8:magmaf_caxpy_
libmagma.so.2.8:magmaf_ccopy_
libmagma.so.2.8:magmaf_ccopymatrix_
libmagma.so.2.8:magmaf_ccopymatrix_async_
libmagma.so.2.8:magmaf_ccopyvector_
libmagma.so.2.8:magmaf_ccopyvector_async_
libmagma.so.2.8:magmaf_cgebrd_
libmagma.so.2.8:magmaf_cgeev_
libmagma.so.2.8:magmaf_cgeev_m_
libmagma.so.2.8:magmaf_cgegqr_gpu_
libmagma.so.2.8:magmaf_cgehrd2_
libmagma.so.2.8:magmaf_cgehrd_
libmagma.so.2.8:magmaf_cgehrd_m_
libmagma.so.2.8:magmaf_cgelqf_
libmagma.so.2.8:magmaf_cgelqf_gpu_
libmagma.so.2.8:magmaf_cgels3_gpu_
libmagma.so.2.8:magmaf_cgels_
libmagma.so.2.8:magmaf_cgels_gpu_
libmagma.so.2.8:magmaf_cgemm_
libmagma.so.2.8:magmaf_cgemv_
libmagma.so.2.8:magmaf_cgeqlf_
libmagma.so.2.8:magmaf_cgeqp3_
libmagma.so.2.8:magmaf_cgeqp3_gpu_
libmagma.so.2.8:magmaf_cgeqr2x2_gpu_
libmagma.so.2.8:magmaf_cgeqr2x3_gpu_
libmagma.so.2.8:magmaf_cgeqr2x4_gpu_
libmagma.so.2.8:magmaf_cgeqr2x_gpu_
libmagma.so.2.8:magmaf_cgeqrf2_gpu_
libmagma.so.2.8:magmaf_cgeqrf3_gpu_
libmagma.so.2.8:magmaf_cgeqrf_
libmagma.so.2.8:magmaf_cgeqrf_gpu_
libmagma.so.2.8:magmaf_cgeqrf_m_
libmagma.so.2.8:magmaf_cgeqrf_ooc_
libmagma.so.2.8:magmaf_cgeqrs3_gpu_
libmagma.so.2.8:magmaf_cgeqrs_gpu_
libmagma.so.2.8:magmaf_cgerbt_gpu_
libmagma.so.2.8:magmaf_cgerc_
libmagma.so.2.8:magmaf_cgerfs_nopiv_gpu_
libmagma.so.2.8:magmaf_cgeru_
libmagma.so.2.8:magmaf_cgesdd_
libmagma.so.2.8:magmaf_cgesv_
libmagma.so.2.8:magmaf_cgesv_gpu_
libmagma.so.2.8:magmaf_cgesv_nopiv_gpu_
libmagma.so.2.8:magmaf_cgesv_rbt_
libmagma.so.2.8:magmaf_cgesvd_
libmagma.so.2.8:magmaf_cgetf2_gpu_
libmagma.so.2.8:magmaf_cgetf2_nopiv_
libmagma.so.2.8:magmaf_cgetmatrix_
libmagma.so.2.8:magmaf_cgetmatrix_async_
libmagma.so.2.8:magmaf_cgetrf_
libmagma.so.2.8:magmaf_cgetrf_gpu_
libmagma.so.2.8:magmaf_cgetrf_m_
libmagma.so.2.8:magmaf_cgetrf_nopiv_
libmagma.so.2.8:magmaf_cgetrf_nopiv_gpu_
libmagma.so.2.8:magmaf_cgetri_gpu_
libmagma.so.2.8:magmaf_cgetrs_gpu_
libmagma.so.2.8:magmaf_cgetrs_nopiv_gpu_
libmagma.so.2.8:magmaf_cgetvector_
libmagma.so.2.8:magmaf_cgetvector_async_
libmagma.so.2.8:magmaf_cgglse_
libmagma.so.2.8:magmaf_cggrqf_
libmagma.so.2.8:magmaf_cheevd_
libmagma.so.2.8:magmaf_cheevd_gpu_
libmagma.so.2.8:magmaf_cheevd_m_
libmagma.so.2.8:magmaf_cheevdx_
libmagma.so.2.8:magmaf_cheevdx_2stage_
libmagma.so.2.8:magmaf_cheevdx_2stage_m_
libmagma.so.2.8:magmaf_cheevdx_gpu_
libmagma.so.2.8:magmaf_cheevdx_m_
libmagma.so.2.8:magmaf_cheevr_
libmagma.so.2.8:magmaf_cheevr_gpu_
libmagma.so.2.8:magmaf_cheevx_
libmagma.so.2.8:magmaf_cheevx_gpu_
libmagma.so.2.8:magmaf_chegst_
libmagma.so.2.8:magmaf_chegst_gpu_
libmagma.so.2.8:magmaf_chegst_m_
libmagma.so.2.8:magmaf_chegvd_
libmagma.so.2.8:magmaf_chegvd_m_
libmagma.so.2.8:magmaf_chegvdx_
libmagma.so.2.8:magmaf_chegvdx_2stage_
libmagma.so.2.8:magmaf_chegvdx_2stage_m_
libmagma.so.2.8:magmaf_chegvdx_m_
libmagma.so.2.8:magmaf_chegvr_
libmagma.so.2.8:magmaf_chegvx_
libmagma.so.2.8:magmaf_chemm_
libmagma.so.2.8:magmaf_chemv_
libmagma.so.2.8:magmaf_cher2_
libmagma.so.2.8:magmaf_cher2k_
libmagma.so.2.8:magmaf_cher_
libmagma.so.2.8:magmaf_cherk_
libmagma.so.2.8:magmaf_chesv_
libmagma.so.2.8:magmaf_chesv_nopiv_gpu_
libmagma.so.2.8:magmaf_chetrd2_gpu_
libmagma.so.2.8:magmaf_chetrd_
libmagma.so.2.8:magmaf_chetrd_gpu_
libmagma.so.2.8:magmaf_chetrd_hb2st_
libmagma.so.2.8:magmaf_chetrd_he2hb_
libmagma.so.2.8:magmaf_chetrf_
libmagma.so.2.8:magmaf_chetrf_aasen_
libmagma.so.2.8:magmaf_chetrf_nopiv_
libmagma.so.2.8:magmaf_chetrf_nopiv_cpu_
libmagma.so.2.8:magmaf_chetrf_nopiv_gpu_
libmagma.so.2.8:magmaf_chetrs_nopiv_gpu_
libmagma.so.2.8:magmaf_clarf_gpu_
libmagma.so.2.8:magmaf_clarfb2_gpu_
libmagma.so.2.8:magmaf_clarfb_gpu_
libmagma.so.2.8:magmaf_clarfb_gpu_gemm_
libmagma.so.2.8:magmaf_clarfbx_gpu_
libmagma.so.2.8:magmaf_clarfgtx_gpu_
libmagma.so.2.8:magmaf_clarfgx_gpu_
libmagma.so.2.8:magmaf_clarfx_gpu_
libmagma.so.2.8:magmaf_clatrsd_
libmagma.so.2.8:magmaf_clauum_
libmagma.so.2.8:magmaf_clauum_gpu_
libmagma.so.2.8:magmaf_cmalloc_
libmagma.so.2.8:magmaf_cmalloc_cpu_
libmagma.so.2.8:magmaf_cmalloc_pinned_
libmagma.so.2.8:magmaf_cnan_inf_
libmagma.so.2.8:magmaf_cnan_inf_gpu_
libmagma.so.2.8:magmaf_cpanel_to_q_
libmagma.so.2.8:magmaf_cposv_
libmagma.so.2.8:magmaf_cposv_gpu_
libmagma.so.2.8:magmaf_cpotf2_gpu_
libmagma.so.2.8:magmaf_cpotf2_lpin_
libmagma.so.2.8:magmaf_cpotf2_lpout_
libmagma.so.2.8:magmaf_cpotrf_
libmagma.so.2.8:magmaf_cpotrf_gpu_
libmagma.so.2.8:magmaf_cpotrf_m_
libmagma.so.2.8:magmaf_cpotri_
libmagma.so.2.8:magmaf_cpotri_gpu_
libmagma.so.2.8:magmaf_cpotrs_gpu_
libmagma.so.2.8:magmaf_cprint_
libmagma.so.2.8:magmaf_cprint_gpu_
libmagma.so.2.8:magmaf_cq_to_panel_
libmagma.so.2.8:magmaf_crot_
libmagma.so.2.8:magmaf_crotg_
libmagma.so.2.8:magmaf_cscal_
libmagma.so.2.8:magmaf_csetmatrix_
libmagma.so.2.8:magmaf_csetmatrix_async_
libmagma.so.2.8:magmaf_csetvector_
libmagma.so.2.8:magmaf_csetvector_async_
libmagma.so.2.8:magmaf_csrot_
libmagma.so.2.8:magmaf_csscal_
libmagma.so.2.8:magmaf_cstedx_
libmagma.so.2.8:magmaf_cstedx_m_
libmagma.so.2.8:magmaf_cswap_
libmagma.so.2.8:magmaf_csymm_
libmagma.so.2.8:magmaf_csymv_
libmagma.so.2.8:magmaf_csyr2_
libmagma.so.2.8:magmaf_csyr2k_
libmagma.so.2.8:magmaf_csyr_
libmagma.so.2.8:magmaf_csyrk_
libmagma.so.2.8:magmaf_csysv_nopiv_gpu_
libmagma.so.2.8:magmaf_csytrf_nopiv_cpu_
libmagma.so.2.8:magmaf_csytrf_nopiv_gpu_
libmagma.so.2.8:magmaf_csytrs_nopiv_gpu_
libmagma.so.2.8:magmaf_ctrevc3_
libmagma.so.2.8:magmaf_ctrevc3_mt_
libmagma.so.2.8:magmaf_ctrmm_
libmagma.so.2.8:magmaf_ctrmv_
libmagma.so.2.8:magmaf_ctrsm_
libmagma.so.2.8:magmaf_ctrsm_m_
libmagma.so.2.8:magmaf_ctrsv_
libmagma.so.2.8:magmaf_ctrtri_
libmagma.so.2.8:magmaf_ctrtri_gpu_
libmagma.so.2.8:magmaf_cungbr_
libmagma.so.2.8:magmaf_cunghr_
libmagma.so.2.8:magmaf_cunghr_m_
libmagma.so.2.8:magmaf_cunglq_
libmagma.so.2.8:magmaf_cungqr2_
libmagma.so.2.8:magmaf_cungqr_
libmagma.so.2.8:magmaf_cungqr_gpu_
libmagma.so.2.8:magmaf_cungqr_m_
libmagma.so.2.8:magmaf_cunmbr_
libmagma.so.2.8:magmaf_cunmlq_
libmagma.so.2.8:magmaf_cunmql2_gpu_
libmagma.so.2.8:magmaf_cunmql_
libmagma.so.2.8:magmaf_cunmqr2_gpu_
libmagma.so.2.8:magmaf_cunmqr_
libmagma.so.2.8:magmaf_cunmqr_gpu_
libmagma.so.2.8:magmaf_cunmqr_m_
libmagma.so.2.8:magmaf_cunmrq_
libmagma.so.2.8:magmaf_cunmtr_
libmagma.so.2.8:magmaf_cunmtr_gpu_
libmagma.so.2.8:magmaf_cunmtr_m_
libmagma.so.2.8:magmaf_d_isinf_
libmagma.so.2.8:magmaf_d_isnan_
libmagma.so.2.8:magmaf_d_isnan_inf_
libmagma.so.2.8:magmaf_dasum_
libmagma.so.2.8:magmaf_daxpy_
libmagma.so.2.8:magmaf_dcopy_
libmagma.so.2.8:magmaf_dcopymatrix_
libmagma.so.2.8:magmaf_dcopymatrix_async_
libmagma.so.2.8:magmaf_dcopyvector_
libmagma.so.2.8:magmaf_dcopyvector_async_
libmagma.so.2.8:magmaf_ddot_
libmagma.so.2.8:magmaf_dgebrd_
libmagma.so.2.8:magmaf_dgeev_
libmagma.so.2.8:magmaf_dgeev_m_
libmagma.so.2.8:magmaf_dgegqr_gpu_
libmagma.so.2.8:magmaf_dgehrd2_
libmagma.so.2.8:magmaf_dgehrd_
libmagma.so.2.8:magmaf_dgehrd_m_
libmagma.so.2.8:magmaf_dgelqf_
libmagma.so.2.8:magmaf_dgelqf_gpu_
libmagma.so.2.8:magmaf_dgels3_gpu_
libmagma.so.2.8:magmaf_dgels_
libmagma.so.2.8:magmaf_dgels_gpu_
libmagma.so.2.8:magmaf_dgemm_
libmagma.so.2.8:magmaf_dgemv_
libmagma.so.2.8:magmaf_dgeqlf_
libmagma.so.2.8:magmaf_dgeqp3_
libmagma.so.2.8:magmaf_dgeqp3_gpu_
libmagma.so.2.8:magmaf_dgeqr2x2_gpu_
libmagma.so.2.8:magmaf_dgeqr2x3_gpu_
libmagma.so.2.8:magmaf_dgeqr2x4_gpu_
libmagma.so.2.8:magmaf_dgeqr2x_gpu_
libmagma.so.2.8:magmaf_dgeqrf2_gpu_
libmagma.so.2.8:magmaf_dgeqrf3_gpu_
libmagma.so.2.8:magmaf_dgeqrf_
libmagma.so.2.8:magmaf_dgeqrf_gpu_
libmagma.so.2.8:magmaf_dgeqrf_m_
libmagma.so.2.8:magmaf_dgeqrf_ooc_
libmagma.so.2.8:magmaf_dgeqrs3_gpu_
libmagma.so.2.8:magmaf_dgeqrs_gpu_
libmagma.so.2.8:magmaf_dger_
libmagma.so.2.8:magmaf_dgerbt_gpu_
libmagma.so.2.8:magmaf_dgerfs_nopiv_gpu_
libmagma.so.2.8:magmaf_dgesdd_
libmagma.so.2.8:magmaf_dgesv_
libmagma.so.2.8:magmaf_dgesv_gpu_
libmagma.so.2.8:magmaf_dgesv_nopiv_gpu_
libmagma.so.2.8:magmaf_dgesv_rbt_
libmagma.so.2.8:magmaf_dgesvd_
libmagma.so.2.8:magmaf_dgetf2_gpu_
libmagma.so.2.8:magmaf_dgetf2_nopiv_
libmagma.so.2.8:magmaf_dgetmatrix_
libmagma.so.2.8:magmaf_dgetmatrix_async_
libmagma.so.2.8:magmaf_dgetrf_
libmagma.so.2.8:magmaf_dgetrf_gpu_
libmagma.so.2.8:magmaf_dgetrf_m_
libmagma.so.2.8:magmaf_dgetrf_nopiv_
libmagma.so.2.8:magmaf_dgetrf_nopiv_gpu_
libmagma.so.2.8:magmaf_dgetri_gpu_
libmagma.so.2.8:magmaf_dgetrs_gpu_
libmagma.so.2.8:magmaf_dgetrs_nopiv_gpu_
libmagma.so.2.8:magmaf_dgetvector_
libmagma.so.2.8:magmaf_dgetvector_async_
libmagma.so.2.8:magmaf_dgglse_
libmagma.so.2.8:magmaf_dggrqf_
libmagma.so.2.8:magmaf_dirange_
libmagma.so.2.8:magmaf_dlaln2_
libmagma.so.2.8:magmaf_dlaqtrsd_
libmagma.so.2.8:magmaf_dlarf_gpu_
libmagma.so.2.8:magmaf_dlarfb2_gpu_
libmagma.so.2.8:magmaf_dlarfb_gpu_
libmagma.so.2.8:magmaf_dlarfb_gpu_gemm_
libmagma.so.2.8:magmaf_dlarfbx_gpu_
libmagma.so.2.8:magmaf_dlarfgtx_gpu_
libmagma.so.2.8:magmaf_dlarfgx_gpu_
libmagma.so.2.8:magmaf_dlarfx_gpu_
libmagma.so.2.8:magmaf_dlauum_
libmagma.so.2.8:magmaf_dlauum_gpu_
libmagma.so.2.8:magmaf_dmake_lwork_
libmagma.so.2.8:magmaf_dmalloc_
libmagma.so.2.8:magmaf_dmalloc_cpu_
libmagma.so.2.8:magmaf_dmalloc_pinned_
libmagma.so.2.8:magmaf_dmove_eig_
libmagma.so.2.8:magmaf_dnan_inf_
libmagma.so.2.8:magmaf_dnan_inf_gpu_
libmagma.so.2.8:magmaf_dnrm2_
libmagma.so.2.8:magmaf_dorgbr_
libmagma.so.2.8:magmaf_dorghr_
libmagma.so.2.8:magmaf_dorghr_m_
libmagma.so.2.8:magmaf_dorglq_
libmagma.so.2.8:magmaf_dorgqr2_
libmagma.so.2.8:magmaf_dorgqr_
libmagma.so.2.8:magmaf_dorgqr_gpu_
libmagma.so.2.8:magmaf_dorgqr_m_
libmagma.so.2.8:magmaf_dormbr_
libmagma.so.2.8:magmaf_dormlq_
libmagma.so.2.8:magmaf_dormql2_gpu_
libmagma.so.2.8:magmaf_dormql_
libmagma.so.2.8:magmaf_dormqr2_gpu_
libmagma.so.2.8:magmaf_dormqr_
libmagma.so.2.8:magmaf_dormqr_gpu_
libmagma.so.2.8:magmaf_dormqr_m_
libmagma.so.2.8:magmaf_dormrq_
libmagma.so.2.8:magmaf_dormtr_
libmagma.so.2.8:magmaf_dormtr_gpu_
libmagma.so.2.8:magmaf_dormtr_m_
libmagma.so.2.8:magmaf_dpanel_to_q_
libmagma.so.2.8:magmaf_dposv_
libmagma.so.2.8:magmaf_dposv_gpu_
libmagma.so.2.8:magmaf_dpotf2_gpu_
libmagma.so.2.8:magmaf_dpotf2_lpin_
libmagma.so.2.8:magmaf_dpotf2_lpout_
libmagma.so.2.8:magmaf_dpotrf_
libmagma.so.2.8:magmaf_dpotrf_gpu_
libmagma.so.2.8:magmaf_dpotrf_m_
libmagma.so.2.8:magmaf_dpotri_
libmagma.so.2.8:magmaf_dpotri_gpu_
libmagma.so.2.8:magmaf_dpotrs_gpu_
libmagma.so.2.8:magmaf_dprint_
libmagma.so.2.8:magmaf_dprint_gpu_
libmagma.so.2.8:magmaf_dq_to_panel_
libmagma.so.2.8:magmaf_drot_
libmagma.so.2.8:magmaf_drotg_
libmagma.so.2.8:magmaf_drotm_
libmagma.so.2.8:magmaf_drotmg_
libmagma.so.2.8:magmaf_dscal_
libmagma.so.2.8:magmaf_dsetmatrix_
libmagma.so.2.8:magmaf_dsetmatrix_async_
libmagma.so.2.8:magmaf_dsetvector_
libmagma.so.2.8:magmaf_dsetvector_async_
libmagma.so.2.8:magmaf_dstedx_
libmagma.so.2.8:magmaf_dstedx_m_
libmagma.so.2.8:magmaf_dswap_
libmagma.so.2.8:magmaf_dsyevd_
libmagma.so.2.8:magmaf_dsyevd_gpu_
libmagma.so.2.8:magmaf_dsyevd_m_
libmagma.so.2.8:magmaf_dsyevdx_
libmagma.so.2.8:magmaf_dsyevdx_2stage_
libmagma.so.2.8:magmaf_dsyevdx_2stage_m_
libmagma.so.2.8:magmaf_dsyevdx_gpu_
libmagma.so.2.8:magmaf_dsyevdx_m_
libmagma.so.2.8:magmaf_dsygst_
libmagma.so.2.8:magmaf_dsygst_gpu_
libmagma.so.2.8:magmaf_dsygst_m_
libmagma.so.2.8:magmaf_dsygvd_
libmagma.so.2.8:magmaf_dsygvd_m_
libmagma.so.2.8:magmaf_dsygvdx_
libmagma.so.2.8:magmaf_dsygvdx_2stage_
libmagma.so.2.8:magmaf_dsygvdx_2stage_m_
libmagma.so.2.8:magmaf_dsygvdx_m_
libmagma.so.2.8:magmaf_dsymm_
libmagma.so.2.8:magmaf_dsymv_
libmagma.so.2.8:magmaf_dsyr2_
libmagma.so.2.8:magmaf_dsyr2k_
libmagma.so.2.8:magmaf_dsyr_
libmagma.so.2.8:magmaf_dsyrk_
libmagma.so.2.8:magmaf_dsysv_
libmagma.so.2.8:magmaf_dsysv_nopiv_gpu_
libmagma.so.2.8:magmaf_dsytrd2_gpu_
libmagma.so.2.8:magmaf_dsytrd_
libmagma.so.2.8:magmaf_dsytrd_gpu_
libmagma.so.2.8:magmaf_dsytrd_sb2st_
libmagma.so.2.8:magmaf_dsytrd_sy2sb_
libmagma.so.2.8:magmaf_dsytrf_
libmagma.so.2.8:magmaf_dsytrf_aasen_
libmagma.so.2.8:magmaf_dsytrf_nopiv_
libmagma.so.2.8:magmaf_dsytrf_nopiv_cpu_
libmagma.so.2.8:magmaf_dsytrf_nopiv_gpu_
libmagma.so.2.8:magmaf_dsytrs_nopiv_gpu_
libmagma.so.2.8:magmaf_dtrevc3_
libmagma.so.2.8:magmaf_dtrevc3_mt_
libmagma.so.2.8:magmaf_dtrmm_
libmagma.so.2.8:magmaf_dtrmv_
libmagma.so.2.8:magmaf_dtrsm_
libmagma.so.2.8:magmaf_dtrsm_m_
libmagma.so.2.8:magmaf_dtrsv_
libmagma.so.2.8:magmaf_dtrtri_
libmagma.so.2.8:magmaf_dtrtri_gpu_
libmagma.so.2.8:magmaf_dvrange_
libmagma.so.2.8:magmaf_dzasum_
libmagma.so.2.8:magmaf_dznrm2_
libmagma.so.2.8:magmaf_finalize_
libmagma.so.2.8:magmaf_free_
libmagma.so.2.8:magmaf_free_cpu_
libmagma.so.2.8:magmaf_free_pinned_
libmagma.so.2.8:magmaf_get_cbulge_gcperf_
libmagma.so.2.8:magmaf_get_cbulge_nb_
libmagma.so.2.8:magmaf_get_cbulge_vblksiz_
libmagma.so.2.8:magmaf_get_cgebrd_nb_
libmagma.so.2.8:magmaf_get_cgehrd_nb_
libmagma.so.2.8:magmaf_get_cgelqf_nb_
libmagma.so.2.8:magmaf_get_cgeqlf_nb_
libmagma.so.2.8:magmaf_get_cgeqp3_nb_
libmagma.so.2.8:magmaf_get_cgeqrf_nb_
libmagma.so.2.8:magmaf_get_cgesvd_nb_
libmagma.so.2.8:magmaf_get_cgetrf_nb_
libmagma.so.2.8:magmaf_get_cgetri_nb_
libmagma.so.2.8:magmaf_get_chegst_m_nb_
libmagma.so.2.8:magmaf_get_chegst_nb_
libmagma.so.2.8:magmaf_get_chetrd_nb_
libmagma.so.2.8:magmaf_get_chetrf_aasen_nb_
libmagma.so.2.8:magmaf_get_chetrf_nb_
libmagma.so.2.8:magmaf_get_chetrf_nopiv_nb_
libmagma.so.2.8:magmaf_get_cpotrf_nb_
libmagma.so.2.8:magmaf_get_dbulge_gcperf_
libmagma.so.2.8:magmaf_get_dbulge_nb_
libmagma.so.2.8:magmaf_get_dbulge_vblksiz_
libmagma.so.2.8:magmaf_get_dgebrd_nb_
libmagma.so.2.8:magmaf_get_dgehrd_nb_
libmagma.so.2.8:magmaf_get_dgelqf_nb_
libmagma.so.2.8:magmaf_get_dgeqlf_nb_
libmagma.so.2.8:magmaf_get_dgeqp3_nb_
libmagma.so.2.8:magmaf_get_dgeqrf_nb_
libmagma.so.2.8:magmaf_get_dgesvd_nb_
libmagma.so.2.8:magmaf_get_dgetrf_nb_
libmagma.so.2.8:magmaf_get_dgetri_nb_
libmagma.so.2.8:magmaf_get_dlaex3_m_nb_
libmagma.so.2.8:magmaf_get_dpotrf_nb_
libmagma.so.2.8:magmaf_get_dsygst_m_nb_
libmagma.so.2.8:magmaf_get_dsygst_nb_
libmagma.so.2.8:magmaf_get_dsytrd_nb_
libmagma.so.2.8:magmaf_get_dsytrf_aasen_nb_
libmagma.so.2.8:magmaf_get_dsytrf_nb_
libmagma.so.2.8:magmaf_get_dsytrf_nopiv_nb_
libmagma.so.2.8:magmaf_get_sbulge_gcperf_
libmagma.so.2.8:magmaf_get_sbulge_nb_
libmagma.so.2.8:magmaf_get_sbulge_vblksiz_
libmagma.so.2.8:magmaf_get_sgebrd_nb_
libmagma.so.2.8:magmaf_get_sgehrd_nb_
libmagma.so.2.8:magmaf_get_sgelqf_nb_
libmagma.so.2.8:magmaf_get_sgeqlf_nb_
libmagma.so.2.8:magmaf_get_sgeqp3_nb_
libmagma.so.2.8:magmaf_get_sgeqrf_nb_
libmagma.so.2.8:magmaf_get_sgesvd_nb_
libmagma.so.2.8:magmaf_get_sgetrf_nb_
libmagma.so.2.8:magmaf_get_sgetri_nb_
libmagma.so.2.8:magmaf_get_slaex3_m_nb_
libmagma.so.2.8:magmaf_get_spotrf_nb_
libmagma.so.2.8:magmaf_get_ssygst_m_nb_
libmagma.so.2.8:magmaf_get_ssygst_nb_
libmagma.so.2.8:magmaf_get_ssytrd_nb_
libmagma.so.2.8:magmaf_get_ssytrf_aasen_nb_
libmagma.so.2.8:magmaf_get_ssytrf_nb_
libmagma.so.2.8:magmaf_get_ssytrf_nopiv_nb_
libmagma.so.2.8:magmaf_get_zbulge_gcperf_
libmagma.so.2.8:magmaf_get_zbulge_nb_
libmagma.so.2.8:magmaf_get_zbulge_vblksiz_
libmagma.so.2.8:magmaf_get_zgebrd_nb_
libmagma.so.2.8:magmaf_get_zgehrd_nb_
libmagma.so.2.8:magmaf_get_zgelqf_nb_
libmagma.so.2.8:magmaf_get_zgeqlf_nb_
libmagma.so.2.8:magmaf_get_zgeqp3_nb_
libmagma.so.2.8:magmaf_get_zgeqrf_nb_
libmagma.so.2.8:magmaf_get_zgesvd_nb_
libmagma.so.2.8:magmaf_get_zgetrf_nb_
libmagma.so.2.8:magmaf_get_zgetri_nb_
libmagma.so.2.8:magmaf_get_zhegst_m_nb_
libmagma.so.2.8:magmaf_get_zhegst_nb_
libmagma.so.2.8:magmaf_get_zhetrd_nb_
libmagma.so.2.8:magmaf_get_zhetrf_aasen_nb_
libmagma.so.2.8:magmaf_get_zhetrf_nb_
libmagma.so.2.8:magmaf_get_zhetrf_nopiv_nb_
libmagma.so.2.8:magmaf_get_zpotrf_nb_
libmagma.so.2.8:magmaf_getdevice_
libmagma.so.2.8:magmaf_getdevice_arch_
libmagma.so.2.8:magmaf_icamax_
libmagma.so.2.8:magmaf_icamin_
libmagma.so.2.8:magmaf_idamax_
libmagma.so.2.8:magmaf_idamin_
libmagma.so.2.8:magmaf_init_
libmagma.so.2.8:magmaf_isamax_
libmagma.so.2.8:magmaf_isamin_
libmagma.so.2.8:magmaf_izamax_
libmagma.so.2.8:magmaf_izamin_
libmagma.so.2.8:magmaf_malloc_
libmagma.so.2.8:magmaf_malloc_cpu_
libmagma.so.2.8:magmaf_malloc_pinned_
libmagma.so.2.8:magmaf_mem_size_
libmagma.so.2.8:magmaf_num_gpus_
libmagma.so.2.8:magmaf_print_environment_
libmagma.so.2.8:magmaf_queue_create_
libmagma.so.2.8:magmaf_queue_destroy_
libmagma.so.2.8:magmaf_queue_get_device_
libmagma.so.2.8:magmaf_queue_sync_
libmagma.so.2.8:magmaf_s_isinf_
libmagma.so.2.8:magmaf_s_isnan_
libmagma.so.2.8:magmaf_s_isnan_inf_
libmagma.so.2.8:magmaf_sasum_
libmagma.so.2.8:magmaf_saxpy_
libmagma.so.2.8:magmaf_scasum_
libmagma.so.2.8:magmaf_scnrm2_
libmagma.so.2.8:magmaf_scopy_
libmagma.so.2.8:magmaf_scopymatrix_
libmagma.so.2.8:magmaf_scopymatrix_async_
libmagma.so.2.8:magmaf_scopyvector_
libmagma.so.2.8:magmaf_scopyvector_async_
libmagma.so.2.8:magmaf_sdot_
libmagma.so.2.8:magmaf_setdevice_
libmagma.so.2.8:magmaf_sgebrd_
libmagma.so.2.8:magmaf_sgeev_
libmagma.so.2.8:magmaf_sgeev_m_
libmagma.so.2.8:magmaf_sgegqr_gpu_
libmagma.so.2.8:magmaf_sgehrd2_
libmagma.so.2.8:magmaf_sgehrd_
libmagma.so.2.8:magmaf_sgehrd_m_
libmagma.so.2.8:magmaf_sgelqf_
libmagma.so.2.8:magmaf_sgelqf_gpu_
libmagma.so.2.8:magmaf_sgels3_gpu_
libmagma.so.2.8:magmaf_sgels_
libmagma.so.2.8:magmaf_sgels_gpu_
libmagma.so.2.8:magmaf_sgemm_
libmagma.so.2.8:magmaf_sgemv_
libmagma.so.2.8:magmaf_sgeqlf_
libmagma.so.2.8:magmaf_sgeqp3_
libmagma.so.2.8:magmaf_sgeqp3_gpu_
libmagma.so.2.8:magmaf_sgeqr2x2_gpu_
libmagma.so.2.8:magmaf_sgeqr2x3_gpu_
libmagma.so.2.8:magmaf_sgeqr2x4_gpu_
libmagma.so.2.8:magmaf_sgeqr2x_gpu_
libmagma.so.2.8:magmaf_sgeqrf2_gpu_
libmagma.so.2.8:magmaf_sgeqrf3_gpu_
libmagma.so.2.8:magmaf_sgeqrf_
libmagma.so.2.8:magmaf_sgeqrf_gpu_
libmagma.so.2.8:magmaf_sgeqrf_m_
libmagma.so.2.8:magmaf_sgeqrf_ooc_
libmagma.so.2.8:magmaf_sgeqrs3_gpu_
libmagma.so.2.8:magmaf_sgeqrs_gpu_
libmagma.so.2.8:magmaf_sger_
libmagma.so.2.8:magmaf_sgerbt_gpu_
libmagma.so.2.8:magmaf_sgerfs_nopiv_gpu_
libmagma.so.2.8:magmaf_sgesdd_
libmagma.so.2.8:magmaf_sgesv_
libmagma.so.2.8:magmaf_sgesv_gpu_
libmagma.so.2.8:magmaf_sgesv_nopiv_gpu_
libmagma.so.2.8:magmaf_sgesv_rbt_
libmagma.so.2.8:magmaf_sgesvd_
libmagma.so.2.8:magmaf_sgetf2_gpu_
libmagma.so.2.8:magmaf_sgetf2_nopiv_
libmagma.so.2.8:magmaf_sgetmatrix_
libmagma.so.2.8:magmaf_sgetmatrix_async_
libmagma.so.2.8:magmaf_sgetrf_
libmagma.so.2.8:magmaf_sgetrf_gpu_
libmagma.so.2.8:magmaf_sgetrf_m_
libmagma.so.2.8:magmaf_sgetrf_nopiv_
libmagma.so.2.8:magmaf_sgetrf_nopiv_gpu_
libmagma.so.2.8:magmaf_sgetri_gpu_
libmagma.so.2.8:magmaf_sgetrs_gpu_
libmagma.so.2.8:magmaf_sgetrs_nopiv_gpu_
libmagma.so.2.8:magmaf_sgetvector_
libmagma.so.2.8:magmaf_sgetvector_async_
libmagma.so.2.8:magmaf_sgglse_
libmagma.so.2.8:magmaf_sggrqf_
libmagma.so.2.8:magmaf_sirange_
libmagma.so.2.8:magmaf_slaln2_
libmagma.so.2.8:magmaf_slaqtrsd_
libmagma.so.2.8:magmaf_slarf_gpu_
libmagma.so.2.8:magmaf_slarfb2_gpu_
libmagma.so.2.8:magmaf_slarfb_gpu_
libmagma.so.2.8:magmaf_slarfb_gpu_gemm_
libmagma.so.2.8:magmaf_slarfbx_gpu_
libmagma.so.2.8:magmaf_slarfgtx_gpu_
libmagma.so.2.8:magmaf_slarfgx_gpu_
libmagma.so.2.8:magmaf_slarfx_gpu_
libmagma.so.2.8:magmaf_slauum_
libmagma.so.2.8:magmaf_slauum_gpu_
libmagma.so.2.8:magmaf_smake_lwork_
libmagma.so.2.8:magmaf_smalloc_
libmagma.so.2.8:magmaf_smalloc_cpu_
libmagma.so.2.8:magmaf_smalloc_pinned_
libmagma.so.2.8:magmaf_smove_eig_
libmagma.so.2.8:magmaf_snan_inf_
libmagma.so.2.8:magmaf_snan_inf_gpu_
libmagma.so.2.8:magmaf_snrm2_
libmagma.so.2.8:magmaf_sorgbr_
libmagma.so.2.8:magmaf_sorghr_
libmagma.so.2.8:magmaf_sorghr_m_
libmagma.so.2.8:magmaf_sorglq_
libmagma.so.2.8:magmaf_sorgqr2_
libmagma.so.2.8:magmaf_sorgqr_
libmagma.so.2.8:magmaf_sorgqr_gpu_
libmagma.so.2.8:magmaf_sorgqr_m_
libmagma.so.2.8:magmaf_sormbr_
libmagma.so.2.8:magmaf_sormlq_
libmagma.so.2.8:magmaf_sormql2_gpu_
libmagma.so.2.8:magmaf_sormql_
libmagma.so.2.8:magmaf_sormqr2_gpu_
libmagma.so.2.8:magmaf_sormqr_
libmagma.so.2.8:magmaf_sormqr_gpu_
libmagma.so.2.8:magmaf_sormqr_m_
libmagma.so.2.8:magmaf_sormrq_
libmagma.so.2.8:magmaf_sormtr_
libmagma.so.2.8:magmaf_sormtr_gpu_
libmagma.so.2.8:magmaf_sormtr_m_
libmagma.so.2.8:magmaf_spanel_to_q_
libmagma.so.2.8:magmaf_sposv_
libmagma.so.2.8:magmaf_sposv_gpu_
libmagma.so.2.8:magmaf_spotf2_gpu_
libmagma.so.2.8:magmaf_spotf2_lpin_
libmagma.so.2.8:magmaf_spotf2_lpout_
libmagma.so.2.8:magmaf_spotrf_
libmagma.so.2.8:magmaf_spotrf_gpu_
libmagma.so.2.8:magmaf_spotrf_m_
libmagma.so.2.8:magmaf_spotri_
libmagma.so.2.8:magmaf_spotri_gpu_
libmagma.so.2.8:magmaf_spotrs_gpu_
libmagma.so.2.8:magmaf_sprint_
libmagma.so.2.8:magmaf_sprint_gpu_
libmagma.so.2.8:magmaf_sq_to_panel_
libmagma.so.2.8:magmaf_srot_
libmagma.so.2.8:magmaf_srotg_
libmagma.so.2.8:magmaf_srotm_
libmagma.so.2.8:magmaf_srotmg_
libmagma.so.2.8:magmaf_sscal_
libmagma.so.2.8:magmaf_ssetmatrix_
libmagma.so.2.8:magmaf_ssetmatrix_async_
libmagma.so.2.8:magmaf_ssetvector_
libmagma.so.2.8:magmaf_ssetvector_async_
libmagma.so.2.8:magmaf_sstedx_
libmagma.so.2.8:magmaf_sstedx_m_
libmagma.so.2.8:magmaf_sswap_
libmagma.so.2.8:magmaf_ssyevd_
libmagma.so.2.8:magmaf_ssyevd_gpu_
libmagma.so.2.8:magmaf_ssyevd_m_
libmagma.so.2.8:magmaf_ssyevdx_
libmagma.so.2.8:magmaf_ssyevdx_2stage_
libmagma.so.2.8:magmaf_ssyevdx_2stage_m_
libmagma.so.2.8:magmaf_ssyevdx_gpu_
libmagma.so.2.8:magmaf_ssyevdx_m_
libmagma.so.2.8:magmaf_ssygst_
libmagma.so.2.8:magmaf_ssygst_gpu_
libmagma.so.2.8:magmaf_ssygst_m_
libmagma.so.2.8:magmaf_ssygvd_
libmagma.so.2.8:magmaf_ssygvd_m_
libmagma.so.2.8:magmaf_ssygvdx_
libmagma.so.2.8:magmaf_ssygvdx_2stage_
libmagma.so.2.8:magmaf_ssygvdx_2stage_m_
libmagma.so.2.8:magmaf_ssygvdx_m_
libmagma.so.2.8:magmaf_ssymm_
libmagma.so.2.8:magmaf_ssymv_
libmagma.so.2.8:magmaf_ssyr2_
libmagma.so.2.8:magmaf_ssyr2k_
libmagma.so.2.8:magmaf_ssyr_
libmagma.so.2.8:magmaf_ssyrk_
libmagma.so.2.8:magmaf_ssysv_
libmagma.so.2.8:magmaf_ssysv_nopiv_gpu_
libmagma.so.2.8:magmaf_ssytrd2_gpu_
libmagma.so.2.8:magmaf_ssytrd_
libmagma.so.2.8:magmaf_ssytrd_gpu_
libmagma.so.2.8:magmaf_ssytrd_sb2st_
libmagma.so.2.8:magmaf_ssytrd_sy2sb_
libmagma.so.2.8:magmaf_ssytrf_
libmagma.so.2.8:magmaf_ssytrf_aasen_
libmagma.so.2.8:magmaf_ssytrf_nopiv_
libmagma.so.2.8:magmaf_ssytrf_nopiv_cpu_
libmagma.so.2.8:magmaf_ssytrf_nopiv_gpu_
libmagma.so.2.8:magmaf_ssytrs_nopiv_gpu_
libmagma.so.2.8:magmaf_strevc3_
libmagma.so.2.8:magmaf_strevc3_mt_
libmagma.so.2.8:magmaf_strmm_
libmagma.so.2.8:magmaf_strmv_
libmagma.so.2.8:magmaf_strsm_
libmagma.so.2.8:magmaf_strsm_m_
libmagma.so.2.8:magmaf_strsv_
libmagma.so.2.8:magmaf_strtri_
libmagma.so.2.8:magmaf_strtri_gpu_
libmagma.so.2.8:magmaf_svrange_
libmagma.so.2.8:magmaf_version_
libmagma.so.2.8:magmaf_wtime_
libmagma.so.2.8:magmaf_z_isinf_
libmagma.so.2.8:magmaf_z_isnan_
libmagma.so.2.8:magmaf_z_isnan_inf_
libmagma.so.2.8:magmaf_zaxpy_
libmagma.so.2.8:magmaf_zcopy_
libmagma.so.2.8:magmaf_zcopymatrix_
libmagma.so.2.8:magmaf_zcopymatrix_async_
libmagma.so.2.8:magmaf_zcopyvector_
libmagma.so.2.8:magmaf_zcopyvector_async_
libmagma.so.2.8:magmaf_zdrot_
libmagma.so.2.8:magmaf_zdscal_
libmagma.so.2.8:magmaf_zgebrd_
libmagma.so.2.8:magmaf_zgeev_
libmagma.so.2.8:magmaf_zgeev_m_
libmagma.so.2.8:magmaf_zgegqr_gpu_
libmagma.so.2.8:magmaf_zgehrd2_
libmagma.so.2.8:magmaf_zgehrd_
libmagma.so.2.8:magmaf_zgehrd_m_
libmagma.so.2.8:magmaf_zgelqf_
libmagma.so.2.8:magmaf_zgelqf_gpu_
libmagma.so.2.8:magmaf_zgels3_gpu_
libmagma.so.2.8:magmaf_zgels_
libmagma.so.2.8:magmaf_zgels_gpu_
libmagma.so.2.8:magmaf_zgemm_
libmagma.so.2.8:magmaf_zgemv_
libmagma.so.2.8:magmaf_zgeqlf_
libmagma.so.2.8:magmaf_zgeqp3_
libmagma.so.2.8:magmaf_zgeqp3_gpu_
libmagma.so.2.8:magmaf_zgeqr2x2_gpu_
libmagma.so.2.8:magmaf_zgeqr2x3_gpu_
libmagma.so.2.8:magmaf_zgeqr2x4_gpu_
libmagma.so.2.8:magmaf_zgeqr2x_gpu_
libmagma.so.2.8:magmaf_zgeqrf2_gpu_
libmagma.so.2.8:magmaf_zgeqrf3_gpu_
libmagma.so.2.8:magmaf_zgeqrf_
libmagma.so.2.8:magmaf_zgeqrf_gpu_
libmagma.so.2.8:magmaf_zgeqrf_m_
libmagma.so.2.8:magmaf_zgeqrf_ooc_
libmagma.so.2.8:magmaf_zgeqrs3_gpu_
libmagma.so.2.8:magmaf_zgeqrs_gpu_
libmagma.so.2.8:magmaf_zgerbt_gpu_
libmagma.so.2.8:magmaf_zgerc_
libmagma.so.2.8:magmaf_zgerfs_nopiv_gpu_
libmagma.so.2.8:magmaf_zgeru_
libmagma.so.2.8:magmaf_zgesdd_
libmagma.so.2.8:magmaf_zgesv_
libmagma.so.2.8:magmaf_zgesv_gpu_
libmagma.so.2.8:magmaf_zgesv_nopiv_gpu_
libmagma.so.2.8:magmaf_zgesv_rbt_
libmagma.so.2.8:magmaf_zgesvd_
libmagma.so.2.8:magmaf_zgetf2_gpu_
libmagma.so.2.8:magmaf_zgetf2_nopiv_
libmagma.so.2.8:magmaf_zgetmatrix_
libmagma.so.2.8:magmaf_zgetmatrix_async_
libmagma.so.2.8:magmaf_zgetrf_
libmagma.so.2.8:magmaf_zgetrf_gpu_
libmagma.so.2.8:magmaf_zgetrf_m_
libmagma.so.2.8:magmaf_zgetrf_nopiv_
libmagma.so.2.8:magmaf_zgetrf_nopiv_gpu_
libmagma.so.2.8:magmaf_zgetri_gpu_
libmagma.so.2.8:magmaf_zgetrs_gpu_
libmagma.so.2.8:magmaf_zgetrs_nopiv_gpu_
libmagma.so.2.8:magmaf_zgetvector_
libmagma.so.2.8:magmaf_zgetvector_async_
libmagma.so.2.8:magmaf_zgglse_
libmagma.so.2.8:magmaf_zggrqf_
libmagma.so.2.8:magmaf_zheevd_
libmagma.so.2.8:magmaf_zheevd_gpu_
libmagma.so.2.8:magmaf_zheevd_m_
libmagma.so.2.8:magmaf_zheevdx_
libmagma.so.2.8:magmaf_zheevdx_2stage_
libmagma.so.2.8:magmaf_zheevdx_2stage_m_
libmagma.so.2.8:magmaf_zheevdx_gpu_
libmagma.so.2.8:magmaf_zheevdx_m_
libmagma.so.2.8:magmaf_zheevr_
libmagma.so.2.8:magmaf_zheevr_gpu_
libmagma.so.2.8:magmaf_zheevx_
libmagma.so.2.8:magmaf_zheevx_gpu_
libmagma.so.2.8:magmaf_zhegst_
libmagma.so.2.8:magmaf_zhegst_gpu_
libmagma.so.2.8:magmaf_zhegst_m_
libmagma.so.2.8:magmaf_zhegvd_
libmagma.so.2.8:magmaf_zhegvd_m_
libmagma.so.2.8:magmaf_zhegvdx_
libmagma.so.2.8:magmaf_zhegvdx_2stage_
libmagma.so.2.8:magmaf_zhegvdx_2stage_m_
libmagma.so.2.8:magmaf_zhegvdx_m_
libmagma.so.2.8:magmaf_zhegvr_
libmagma.so.2.8:magmaf_zhegvx_
libmagma.so.2.8:magmaf_zhemm_
libmagma.so.2.8:magmaf_zhemv_
libmagma.so.2.8:magmaf_zher2_
libmagma.so.2.8:magmaf_zher2k_
libmagma.so.2.8:magmaf_zher_
libmagma.so.2.8:magmaf_zherk_
libmagma.so.2.8:magmaf_zhesv_
libmagma.so.2.8:magmaf_zhesv_nopiv_gpu_
libmagma.so.2.8:magmaf_zhetrd2_gpu_
libmagma.so.2.8:magmaf_zhetrd_
libmagma.so.2.8:magmaf_zhetrd_gpu_
libmagma.so.2.8:magmaf_zhetrd_hb2st_
libmagma.so.2.8:magmaf_zhetrd_he2hb_
libmagma.so.2.8:magmaf_zhetrf_
libmagma.so.2.8:magmaf_zhetrf_aasen_
libmagma.so.2.8:magmaf_zhetrf_nopiv_
libmagma.so.2.8:magmaf_zhetrf_nopiv_cpu_
libmagma.so.2.8:magmaf_zhetrf_nopiv_gpu_
libmagma.so.2.8:magmaf_zhetrs_nopiv_gpu_
libmagma.so.2.8:magmaf_zlarf_gpu_
libmagma.so.2.8:magmaf_zlarfb2_gpu_
libmagma.so.2.8:magmaf_zlarfb_gpu_
libmagma.so.2.8:magmaf_zlarfb_gpu_gemm_
libmagma.so.2.8:magmaf_zlarfbx_gpu_
libmagma.so.2.8:magmaf_zlarfgtx_gpu_
libmagma.so.2.8:magmaf_zlarfgx_gpu_
libmagma.so.2.8:magmaf_zlarfx_gpu_
libmagma.so.2.8:magmaf_zlatrsd_
libmagma.so.2.8:magmaf_zlauum_
libmagma.so.2.8:magmaf_zlauum_gpu_
libmagma.so.2.8:magmaf_zmalloc_
libmagma.so.2.8:magmaf_zmalloc_cpu_
libmagma.so.2.8:magmaf_zmalloc_pinned_
libmagma.so.2.8:magmaf_znan_inf_
libmagma.so.2.8:magmaf_znan_inf_gpu_
libmagma.so.2.8:magmaf_zpanel_to_q_
libmagma.so.2.8:magmaf_zposv_
libmagma.so.2.8:magmaf_zposv_gpu_
libmagma.so.2.8:magmaf_zpotf2_gpu_
libmagma.so.2.8:magmaf_zpotf2_lpin_
libmagma.so.2.8:magmaf_zpotf2_lpout_
libmagma.so.2.8:magmaf_zpotrf_
libmagma.so.2.8:magmaf_zpotrf_gpu_
libmagma.so.2.8:magmaf_zpotrf_m_
libmagma.so.2.8:magmaf_zpotri_
libmagma.so.2.8:magmaf_zpotri_gpu_
libmagma.so.2.8:magmaf_zpotrs_gpu_
libmagma.so.2.8:magmaf_zprint_
libmagma.so.2.8:magmaf_zprint_gpu_
libmagma.so.2.8:magmaf_zq_to_panel_
libmagma.so.2.8:magmaf_zrot_
libmagma.so.2.8:magmaf_zrotg_
libmagma.so.2.8:magmaf_zscal_
libmagma.so.2.8:magmaf_zsetmatrix_
libmagma.so.2.8:magmaf_zsetmatrix_async_
libmagma.so.2.8:magmaf_zsetvector_
libmagma.so.2.8:magmaf_zsetvector_async_
libmagma.so.2.8:magmaf_zstedx_
libmagma.so.2.8:magmaf_zstedx_m_
libmagma.so.2.8:magmaf_zswap_
libmagma.so.2.8:magmaf_zsymm_
libmagma.so.2.8:magmaf_zsymv_
libmagma.so.2.8:magmaf_zsyr2_
libmagma.so.2.8:magmaf_zsyr2k_
libmagma.so.2.8:magmaf_zsyr_
libmagma.so.2.8:magmaf_zsyrk_
libmagma.so.2.8:magmaf_zsysv_nopiv_gpu_
libmagma.so.2.8:magmaf_zsytrf_nopiv_cpu_
libmagma.so.2.8:magmaf_zsytrf_nopiv_gpu_
libmagma.so.2.8:magmaf_zsytrs_nopiv_gpu_
libmagma.so.2.8:magmaf_ztrevc3_
libmagma.so.2.8:magmaf_ztrevc3_mt_
libmagma.so.2.8:magmaf_ztrmm_
libmagma.so.2.8:magmaf_ztrmv_
libmagma.so.2.8:magmaf_ztrsm_
libmagma.so.2.8:magmaf_ztrsm_m_
libmagma.so.2.8:magmaf_ztrsv_
libmagma.so.2.8:magmaf_ztrtri_
libmagma.so.2.8:magmaf_ztrtri_gpu_
libmagma.so.2.8:magmaf_zungbr_
libmagma.so.2.8:magmaf_zunghr_
libmagma.so.2.8:magmaf_zunghr_m_
libmagma.so.2.8:magmaf_zunglq_
libmagma.so.2.8:magmaf_zungqr2_
libmagma.so.2.8:magmaf_zungqr_
libmagma.so.2.8:magmaf_zungqr_gpu_
libmagma.so.2.8:magmaf_zungqr_m_
libmagma.so.2.8:magmaf_zunmbr_
libmagma.so.2.8:magmaf_zunmlq_
libmagma.so.2.8:magmaf_zunmql2_gpu_
libmagma.so.2.8:magmaf_zunmql_
libmagma.so.2.8:magmaf_zunmqr2_gpu_
libmagma.so.2.8:magmaf_zunmqr_
libmagma.so.2.8:magmaf_zunmqr_gpu_
libmagma.so.2.8:magmaf_zunmqr_m_
libmagma.so.2.8:magmaf_zunmrq_
libmagma.so.2.8:magmaf_zunmtr_
libmagma.so.2.8:magmaf_zunmtr_gpu_
libmagma.so.2.8:magmaf_zunmtr_m_
libmagma.so.2.8:setup_pivinfo
libmagma.so.2.8:setup_pivinfo_batched
libmagma.so.2.8:setup_pivinfo_vbatched
libmagma.so.2.8:sgeqrf_panel_decision_a100
libmagma.so.2.8:sgeqrf_panel_decision_mi100
libmagma.so.2.8:sgesdd_path
libmagma.so.2.8:sgesvd_path
libmagma.so.2.8:slange_fro_kernel
libmagma.so.2.8:slange_inf_kernel
libmagma.so.2.8:slange_max_kernel
libmagma.so.2.8:slange_one_kernel
libmagma.so.2.8:slansy_inf
libmagma.so.2.8:slansy_max
libmagma.so.2.8:slaswp_sym
libmagma.so.2.8:ssymv_kernel_U
libmagma.so.2.8:ssymv_kernel_U_mgpu
libmagma.so.2.8:ssymv_kernel_U_mgpu_sum
libmagma.so.2.8:ssymv_kernel_U_sum
libmagma.so.2.8:stepinit_ipiv
libmagma.so.2.8:zgeqrf_panel_decision_a100
libmagma.so.2.8:zgeqrf_panel_decision_mi100
libmagma.so.2.8:zgesdd_path
libmagma.so.2.8:zgesvd_path
libmagma.so.2.8:zhemv_kernel_U
libmagma.so.2.8:zhemv_kernel_U_mgpu
libmagma.so.2.8:zhemv_kernel_U_mgpu_sum
libmagma.so.2.8:zhemv_kernel_U_sum
libmagma.so.2.8:zlange_fro_kernel
libmagma.so.2.8:zlange_inf_kernel
libmagma.so.2.8:zlange_max_kernel
libmagma.so.2.8:zlange_one_kernel
libmagma.so.2.8:zlanhe_inf
libmagma.so.2.8:zlanhe_max
libmagma.so.2.8:zlaswp_sym
libmagma.so.2.8:zsymv_kernel_U
libmagma.so.2.8:zsymv_kernel_U_sum
libmagma_sparse.so.2.8:_Z11mm_is_validPc
libmagma_sparse.so.2.8:_Z13cge3pt_kernelii17magmaFloatComplexS_PS_S0_
libmagma_sparse.so.2.8:_Z13dge3pt_kerneliiddPdS_
libmagma_sparse.so.2.8:_Z13sge3pt_kerneliiffPfS_
libmagma_sparse.so.2.8:_Z13zge3pt_kernelii18magmaDoubleComplexS_PS_S0_
libmagma_sparse.so.2.8:_Z14cgeaxpy_kernelii17magmaFloatComplexPS_S_S0_
libmagma_sparse.so.2.8:_Z14dgeaxpy_kerneliidPddS_
libmagma_sparse.so.2.8:_Z14mm_read_bannerP8_IO_FILEPA4_c
libmagma_sparse.so.2.8:_Z14sgeaxpy_kerneliifPffS_
libmagma_sparse.so.2.8:_Z14zgeaxpy_kernelii18magmaDoubleComplexPS_S_S0_
libmagma_sparse.so.2.8:_Z15ccompact_kerneliiP17magmaFloatComplexiPffPiS2_
libmagma_sparse.so.2.8:_Z15cgecsrmv_kernelii17magmaFloatComplexPS_PiS1_S0_S_S0_
libmagma_sparse.so.2.8:_Z15cgeellmv_kerneliii17magmaFloatComplexPS_PiS0_S_S0_
libmagma_sparse.so.2.8:_Z15dcompact_kerneliiPdiS_dPiS0_
libmagma_sparse.so.2.8:_Z15dgecsrmv_kerneliidPdPiS0_S_dS_
libmagma_sparse.so.2.8:_Z15dgeellmv_kerneliiidPdPiS_dS_
libmagma_sparse.so.2.8:_Z15magma_ctrisolve14magma_c_matrix18magma_solve_info_tbbbS_S_P11magma_queue
libmagma_sparse.so.2.8:_Z15magma_dtrisolve14magma_d_matrix18magma_solve_info_tbbbS_S_P11magma_queue
libmagma_sparse.so.2.8:_Z15magma_strisolve14magma_s_matrix18magma_solve_info_tbbbS_S_P11magma_queue
libmagma_sparse.so.2.8:_Z15magma_ztrisolve14magma_z_matrix18magma_solve_info_tbbbS_S_P11magma_queue
libmagma_sparse.so.2.8:_Z15mm_read_mtx_crdPcPiS0_S0_PS0_S1_PPdPA4_c
libmagma_sparse.so.2.8:_Z15mm_write_bannerP8_IO_FILEPc
libmagma_sparse.so.2.8:_Z15scompact_kerneliiPfiS_fPiS0_
libmagma_sparse.so.2.8:_Z15sgecsrmv_kerneliifPfPiS0_S_fS_
libmagma_sparse.so.2.8:_Z15sgeellmv_kerneliiifPfPiS_fS_
libmagma_sparse.so.2.8:_Z15zcompact_kerneliiP18magmaDoubleComplexiPddPiS2_
libmagma_sparse.so.2.8:_Z15zgecsrmv_kernelii18magmaDoubleComplexPS_PiS1_S0_S_S0_
libmagma_sparse.so.2.8:_Z15zgeellmv_kerneliii18magmaDoubleComplexPS_PiS0_S_S0_
libmagma_sparse.so.2.8:_Z16cmgecsrmv_kerneliii17magmaFloatComplexPS_PiS1_S0_S_S0_
libmagma_sparse.so.2.8:_Z16cmgeellmv_kerneliiii17magmaFloatComplexPS_PiS0_S_S0_
libmagma_sparse.so.2.8:_Z16dmgecsrmv_kerneliiidPdPiS0_S_dS_
libmagma_sparse.so.2.8:_Z16dmgeellmv_kerneliiiidPdPiS_dS_
libmagma_sparse.so.2.8:_Z16mm_write_mtx_crdPciiiPiS0_PdS_
libmagma_sparse.so.2.8:_Z16smgecsrmv_kerneliiifPfPiS0_S_fS_
libmagma_sparse.so.2.8:_Z16smgeellmv_kerneliiiifPfPiS_fS_
libmagma_sparse.so.2.8:_Z16zmgecsrmv_kerneliii18magmaDoubleComplexPS_PiS1_S0_S_S0_
libmagma_sparse.so.2.8:_Z16zmgeellmv_kerneliiii18magmaDoubleComplexPS_PiS0_S_S0_
libmagma_sparse.so.2.8:_Z17cgesellcmv_kerneliii17magmaFloatComplexPS_PiS1_S0_S_S0_
libmagma_sparse.so.2.8:_Z17cvjacobisetup_gpuiiP17magmaFloatComplexS0_S0_S0_
libmagma_sparse.so.2.8:_Z17dgesellcmv_kerneliiidPdPiS0_S_dS_
libmagma_sparse.so.2.8:_Z17dvjacobisetup_gpuiiPdS_S_S_
libmagma_sparse.so.2.8:_Z17magma_cdot_kerneliiP17magmaFloatComplexS0_S0_
libmagma_sparse.so.2.8:_Z17magma_cgpumemzeroP17magmaFloatComplexii
libmagma_sparse.so.2.8:_Z17magma_cshell_sortiPi
libmagma_sparse.so.2.8:_Z17magma_ddot_kerneliiPdS_S_
libmagma_sparse.so.2.8:_Z17magma_dgpumemzeroPdii
libmagma_sparse.so.2.8:_Z17magma_dshell_sortiPi
libmagma_sparse.so.2.8:_Z17magma_sdot_kerneliiPfS_S_
libmagma_sparse.so.2.8:_Z17magma_sgpumemzeroPfii
libmagma_sparse.so.2.8:_Z17magma_sshell_sortiPi
libmagma_sparse.so.2.8:_Z17magma_zdot_kerneliiP18magmaDoubleComplexS0_S0_
libmagma_sparse.so.2.8:_Z17magma_zgpumemzeroP18magmaDoubleComplexii
libmagma_sparse.so.2.8:_Z17magma_zshell_sortiPi
libmagma_sparse.so.2.8:_Z17sgesellcmv_kerneliiifPfPiS0_S_fS_
libmagma_sparse.so.2.8:_Z17svjacobisetup_gpuiiPfS_S_S_
libmagma_sparse.so.2.8:_Z17zdiagcheck_kerneliiP17magmaFloatComplexPiS1_S1_
libmagma_sparse.so.2.8:_Z17zdiagcheck_kerneliiP18magmaDoubleComplexPiS1_S1_
libmagma_sparse.so.2.8:_Z17zdiagcheck_kerneliiPdPiS0_S0_
libmagma_sparse.so.2.8:_Z17zdiagcheck_kerneliiPfPiS0_S0_
libmagma_sparse.so.2.8:_Z17zgesellcmv_kerneliii18magmaDoubleComplexPS_PiS1_S0_S_S0_
libmagma_sparse.so.2.8:_Z17zvjacobisetup_gpuiiP18magmaDoubleComplexS0_S0_S0_
libmagma_sparse.so.2.8:_Z18magma_ccg_d_kerneliP17magmaFloatComplexS0_S0_
libmagma_sparse.so.2.8:_Z18magma_cmexFunctionii17magmaFloatComplexiiPiS0_PS_S0_S0_S1_iS0_S0_S1_
libmagma_sparse.so.2.8:_Z18magma_dcg_d_kerneliPdS_S_
libmagma_sparse.so.2.8:_Z18magma_dmexFunctioniidiiPiS_PdS_S_S0_iS_S_S0_
libmagma_sparse.so.2.8:_Z18magma_scg_d_kerneliPfS_S_
libmagma_sparse.so.2.8:_Z18magma_smexFunctioniifiiPiS_PfS_S_S0_iS_S_S0_
libmagma_sparse.so.2.8:_Z18magma_zcg_d_kerneliP18magmaDoubleComplexS0_S0_
libmagma_sparse.so.2.8:_Z18magma_zmexFunctionii18magmaDoubleComplexiiPiS0_PS_S0_S0_S1_iS0_S0_S1_
libmagma_sparse.so.2.8:_Z19cgeellrtmv_kernel_8ii17magmaFloatComplexPS_PiS1_S0_S_S0_ii
libmagma_sparse.so.2.8:_Z19dgeellrtmv_kernel_8iidPdPiS0_S_dS_ii
libmagma_sparse.so.2.8:_Z19magma_ccg_rhokernelP17magmaFloatComplex
libmagma_sparse.so.2.8:_Z19magma_ccgs_1_kernelii17magmaFloatComplexPS_S0_S0_S0_
libmagma_sparse.so.2.8:_Z19magma_ccgs_2_kerneliiP17magmaFloatComplexS0_S0_
libmagma_sparse.so.2.8:_Z19magma_ccgs_3_kernelii17magmaFloatComplexPS_S0_S0_S0_
libmagma_sparse.so.2.8:_Z19magma_ccgs_4_kernelii17magmaFloatComplexPS_S0_S0_S0_
libmagma_sparse.so.2.8:_Z19magma_cqmr_1_kernelii17magmaFloatComplexS_PS_S0_S0_S0_
libmagma_sparse.so.2.8:_Z19magma_cqmr_2_kernelii17magmaFloatComplexS_PS_S0_S0_S0_
libmagma_sparse.so.2.8:_Z19magma_cqmr_3_kernelii17magmaFloatComplexPS_S0_S0_
libmagma_sparse.so.2.8:_Z19magma_cqmr_4_kernelii17magmaFloatComplexPS_S0_S0_S0_S0_S0_
libmagma_sparse.so.2.8:_Z19magma_cqmr_5_kernelii17magmaFloatComplexS_PS_S0_S0_S0_S0_S0_
libmagma_sparse.so.2.8:_Z19magma_cqmr_6_kernelii17magmaFloatComplexS_S_PS_S0_S0_S0_S0_
libmagma_sparse.so.2.8:_Z19magma_cqmr_7_kernelii17magmaFloatComplexPS_S0_S0_
libmagma_sparse.so.2.8:_Z19magma_cqmr_8_kernelii17magmaFloatComplexS_PS_S0_S0_S0_S0_S0_
libmagma_sparse.so.2.8:_Z19magma_dcg_rhokernelPd
libmagma_sparse.so.2.8:_Z19magma_dcgs_1_kerneliidPdS_S_S_
libmagma_sparse.so.2.8:_Z19magma_dcgs_2_kerneliiPdS_S_
libmagma_sparse.so.2.8:_Z19magma_dcgs_3_kerneliidPdS_S_S_
libmagma_sparse.so.2.8:_Z19magma_dcgs_4_kerneliidPdS_S_S_
libmagma_sparse.so.2.8:_Z19magma_dqmr_1_kerneliiddPdS_S_S_
libmagma_sparse.so.2.8:_Z19magma_dqmr_2_kerneliiddPdS_S_S_
libmagma_sparse.so.2.8:_Z19magma_dqmr_3_kerneliidPdS_S_
libmagma_sparse.so.2.8:_Z19magma_dqmr_4_kerneliidPdS_S_S_S_S_
libmagma_sparse.so.2.8:_Z19magma_dqmr_5_kerneliiddPdS_S_S_S_S_
libmagma_sparse.so.2.8:_Z19magma_dqmr_6_kerneliidddPdS_S_S_S_
libmagma_sparse.so.2.8:_Z19magma_dqmr_7_kerneliidPdS_S_
libmagma_sparse.so.2.8:_Z19magma_dqmr_8_kerneliiddPdS_S_S_S_S_
libmagma_sparse.so.2.8:_Z19magma_scg_rhokernelPf
libmagma_sparse.so.2.8:_Z19magma_scgs_1_kerneliifPfS_S_S_
libmagma_sparse.so.2.8:_Z19magma_scgs_2_kerneliiPfS_S_
libmagma_sparse.so.2.8:_Z19magma_scgs_3_kerneliifPfS_S_S_
libmagma_sparse.so.2.8:_Z19magma_scgs_4_kerneliifPfS_S_S_
libmagma_sparse.so.2.8:_Z19magma_sqmr_1_kerneliiffPfS_S_S_
libmagma_sparse.so.2.8:_Z19magma_sqmr_2_kerneliiffPfS_S_S_
libmagma_sparse.so.2.8:_Z19magma_sqmr_3_kerneliifPfS_S_
libmagma_sparse.so.2.8:_Z19magma_sqmr_4_kerneliifPfS_S_S_S_S_
libmagma_sparse.so.2.8:_Z19magma_sqmr_5_kerneliiffPfS_S_S_S_S_
libmagma_sparse.so.2.8:_Z19magma_sqmr_6_kerneliifffPfS_S_S_S_
libmagma_sparse.so.2.8:_Z19magma_sqmr_7_kerneliifPfS_S_
libmagma_sparse.so.2.8:_Z19magma_sqmr_8_kerneliiffPfS_S_S_S_S_
libmagma_sparse.so.2.8:_Z19magma_trisolve_freeP18magma_solve_info_t
libmagma_sparse.so.2.8:_Z19magma_zcg_rhokernelP18magmaDoubleComplex
libmagma_sparse.so.2.8:_Z19magma_zcgs_1_kernelii18magmaDoubleComplexPS_S0_S0_S0_
libmagma_sparse.so.2.8:_Z19magma_zcgs_2_kerneliiP18magmaDoubleComplexS0_S0_
libmagma_sparse.so.2.8:_Z19magma_zcgs_3_kernelii18magmaDoubleComplexPS_S0_S0_S0_
libmagma_sparse.so.2.8:_Z19magma_zcgs_4_kernelii18magmaDoubleComplexPS_S0_S0_S0_
libmagma_sparse.so.2.8:_Z19magma_zqmr_1_kernelii18magmaDoubleComplexS_PS_S0_S0_S0_
libmagma_sparse.so.2.8:_Z19magma_zqmr_2_kernelii18magmaDoubleComplexS_PS_S0_S0_S0_
libmagma_sparse.so.2.8:_Z19magma_zqmr_3_kernelii18magmaDoubleComplexPS_S0_S0_
libmagma_sparse.so.2.8:_Z19magma_zqmr_4_kernelii18magmaDoubleComplexPS_S0_S0_S0_S0_S0_
libmagma_sparse.so.2.8:_Z19magma_zqmr_5_kernelii18magmaDoubleComplexS_PS_S0_S0_S0_S0_S0_
libmagma_sparse.so.2.8:_Z19magma_zqmr_6_kernelii18magmaDoubleComplexS_S_PS_S0_S0_S0_S0_
libmagma_sparse.so.2.8:_Z19magma_zqmr_7_kernelii18magmaDoubleComplexPS_S0_S0_
libmagma_sparse.so.2.8:_Z19magma_zqmr_8_kernelii18magmaDoubleComplexS_PS_S0_S0_S0_S0_S0_
libmagma_sparse.so.2.8:_Z19sgeellrtmv_kernel_8iifPfPiS0_S_fS_ii
libmagma_sparse.so.2.8:_Z19zcompute_nnz_kerneliPiS_S_P17magmaFloatComplexf
libmagma_sparse.so.2.8:_Z19zcompute_nnz_kerneliPiS_S_P18magmaDoubleComplexd
libmagma_sparse.so.2.8:_Z19zcompute_nnz_kerneliPiS_S_Pdd
libmagma_sparse.so.2.8:_Z19zcompute_nnz_kerneliPiS_S_Pff
libmagma_sparse.so.2.8:_Z19zgeellrtmv_kernel_8ii18magmaDoubleComplexPS_PiS1_S0_S_S0_ii
libmagma_sparse.so.2.8:_Z20cgeellrtmv_kernel_16ii17magmaFloatComplexPS_PiS1_S0_S_S0_ii
libmagma_sparse.so.2.8:_Z20cgeellrtmv_kernel_32ii17magmaFloatComplexPS_PiS1_S0_S_S0_ii
libmagma_sparse.so.2.8:_Z20cjacobiupdate_kerneliiP17magmaFloatComplexS0_S0_S0_
libmagma_sparse.so.2.8:_Z20dgeellrtmv_kernel_16iidPdPiS0_S_dS_ii
libmagma_sparse.so.2.8:_Z20dgeellrtmv_kernel_32iidPdPiS0_S_dS_ii
libmagma_sparse.so.2.8:_Z20djacobiupdate_kerneliiPdS_S_S_
libmagma_sparse.so.2.8:_Z20magma_ck_testLockingPji
libmagma_sparse.so.2.8:_Z20magma_dk_testLockingPji
libmagma_sparse.so.2.8:_Z20magma_sk_testLockingPji
libmagma_sparse.so.2.8:_Z20magma_zk_testLockingPji
libmagma_sparse.so.2.8:_Z20mm_read_mtx_crd_dataP8_IO_FILEiiiPiS1_PdPc
libmagma_sparse.so.2.8:_Z20mm_read_mtx_crd_sizeP8_IO_FILEPiS1_S1_
libmagma_sparse.so.2.8:_Z20mm_snprintf_typecodePcmS_
libmagma_sparse.so.2.8:_Z20sgeellrtmv_kernel_16iifPfPiS0_S_fS_ii
libmagma_sparse.so.2.8:_Z20sgeellrtmv_kernel_32iifPfPiS0_S_fS_ii
libmagma_sparse.so.2.8:_Z20sjacobiupdate_kerneliiPfS_S_S_
libmagma_sparse.so.2.8:_Z20zgeellrtmv_kernel_16ii18magmaDoubleComplexPS_PiS1_S0_S_S0_ii
libmagma_sparse.so.2.8:_Z20zgeellrtmv_kernel_32ii18magmaDoubleComplexPS_PiS1_S0_S_S0_ii
libmagma_sparse.so.2.8:_Z20zjacobiupdate_kerneliiP18magmaDoubleComplexS0_S0_S0_
libmagma_sparse.so.2.8:_Z21ccompactactive_kerneliiP17magmaFloatComplexiPi
libmagma_sparse.so.2.8:_Z21cgecsrmv_kernel_shiftii17magmaFloatComplexS_PS_PiS1_S0_S_iiS1_S0_
libmagma_sparse.so.2.8:_Z21cgeellmv_kernel_shiftiii17magmaFloatComplexS_PS_PiS0_S_iiS1_S0_
libmagma_sparse.so.2.8:_Z21dcompactactive_kerneliiPdiPi
libmagma_sparse.so.2.8:_Z21dgecsrmv_kernel_shiftiiddPdPiS0_S_diiS0_S_
libmagma_sparse.so.2.8:_Z21dgeellmv_kernel_shiftiiiddPdPiS_diiS0_S_
libmagma_sparse.so.2.8:_Z21magma_cmatrixcup_filliPKiS0_PK17magmaFloatComplexS0_S0_S3_PiS4_S4_PS1_
libmagma_sparse.so.2.8:_Z21magma_cpipelinesscaleiP17magmaFloatComplexS0_
libmagma_sparse.so.2.8:_Z21magma_cpreselect_gpu0iPiP17magmaFloatComplexS1_
libmagma_sparse.so.2.8:_Z21magma_cpreselect_gpu1iPiP17magmaFloatComplexS1_
libmagma_sparse.so.2.8:_Z21magma_ctfqmr_1_kernelii17magmaFloatComplexS_PS_S0_S0_S0_S0_S0_S0_S0_
libmagma_sparse.so.2.8:_Z21magma_ctfqmr_2_kernelii17magmaFloatComplexPS_S0_S0_S0_
libmagma_sparse.so.2.8:_Z21magma_ctfqmr_3_kernelii17magmaFloatComplexPS_S0_S0_
libmagma_sparse.so.2.8:_Z21magma_ctfqmr_4_kernelii17magmaFloatComplexPS_S0_S0_
libmagma_sparse.so.2.8:_Z21magma_ctfqmr_5_kernelii17magmaFloatComplexS_PS_S0_S0_S0_S0_S0_
libmagma_sparse.so.2.8:_Z21magma_cvalinit_kerneliP17magmaFloatComplex
libmagma_sparse.so.2.8:_Z21magma_dmatrixcup_filliPKiS0_PKdS0_S0_S2_PiS3_S3_Pd
libmagma_sparse.so.2.8:_Z21magma_dpipelinedscaleiPdS_
libmagma_sparse.so.2.8:_Z21magma_dpreselect_gpu0iPiPdS0_
libmagma_sparse.so.2.8:_Z21magma_dpreselect_gpu1iPiPdS0_
libmagma_sparse.so.2.8:_Z21magma_dtfqmr_1_kerneliiddPdS_S_S_S_S_S_S_
libmagma_sparse.so.2.8:_Z21magma_dtfqmr_2_kerneliidPdS_S_S_
libmagma_sparse.so.2.8:_Z21magma_dtfqmr_3_kerneliidPdS_S_
libmagma_sparse.so.2.8:_Z21magma_dtfqmr_4_kerneliidPdS_S_
libmagma_sparse.so.2.8:_Z21magma_dtfqmr_5_kerneliiddPdS_S_S_S_S_
libmagma_sparse.so.2.8:_Z21magma_dvalinit_kerneliPd
libmagma_sparse.so.2.8:_Z21magma_smatrixcup_filliPKiS0_PKfS0_S0_S2_PiS3_S3_Pf
libmagma_sparse.so.2.8:_Z21magma_spipelinesscaleiPfS_
libmagma_sparse.so.2.8:_Z21magma_spreselect_gpu0iPiPfS0_
libmagma_sparse.so.2.8:_Z21magma_spreselect_gpu1iPiPfS0_
libmagma_sparse.so.2.8:_Z21magma_stfqmr_1_kerneliiffPfS_S_S_S_S_S_S_
libmagma_sparse.so.2.8:_Z21magma_stfqmr_2_kerneliifPfS_S_S_
libmagma_sparse.so.2.8:_Z21magma_stfqmr_3_kerneliifPfS_S_
libmagma_sparse.so.2.8:_Z21magma_stfqmr_4_kerneliifPfS_S_
libmagma_sparse.so.2.8:_Z21magma_stfqmr_5_kerneliiffPfS_S_S_S_S_
libmagma_sparse.so.2.8:_Z21magma_svalinit_kerneliPf
libmagma_sparse.so.2.8:_Z21magma_zmatrixcup_filliPKiS0_PK18magmaDoubleComplexS0_S0_S3_PiS4_S4_PS1_
libmagma_sparse.so.2.8:_Z21magma_zpipelinedscaleiP18magmaDoubleComplexS0_
libmagma_sparse.so.2.8:_Z21magma_zpreselect_gpu0iPiP18magmaDoubleComplexS1_
libmagma_sparse.so.2.8:_Z21magma_zpreselect_gpu1iPiP18magmaDoubleComplexS1_
libmagma_sparse.so.2.8:_Z21magma_ztfqmr_1_kernelii18magmaDoubleComplexS_PS_S0_S0_S0_S0_S0_S0_S0_
libmagma_sparse.so.2.8:_Z21magma_ztfqmr_2_kernelii18magmaDoubleComplexPS_S0_S0_S0_
libmagma_sparse.so.2.8:_Z21magma_ztfqmr_3_kernelii18magmaDoubleComplexPS_S0_S0_
libmagma_sparse.so.2.8:_Z21magma_ztfqmr_4_kernelii18magmaDoubleComplexPS_S0_S0_
libmagma_sparse.so.2.8:_Z21magma_ztfqmr_5_kernelii18magmaDoubleComplexS_PS_S0_S0_S0_S0_S0_
libmagma_sparse.so.2.8:_Z21magma_zvalinit_kerneliP18magmaDoubleComplex
libmagma_sparse.so.2.8:_Z21mm_read_mtx_crd_entryP8_IO_FILEPiS1_PdS2_Pc
libmagma_sparse.so.2.8:_Z21mm_write_mtx_crd_sizeP8_IO_FILEiii
libmagma_sparse.so.2.8:_Z21scompactactive_kerneliiPfiPi
libmagma_sparse.so.2.8:_Z21sgecsrmv_kernel_shiftiiffPfPiS0_S_fiiS0_S_
libmagma_sparse.so.2.8:_Z21sgeellmv_kernel_shiftiiiffPfPiS_fiiS0_S_
libmagma_sparse.so.2.8:_Z21zcompactactive_kerneliiP18magmaDoubleComplexiPi
libmagma_sparse.so.2.8:_Z21zgecsrmv_kernel_shiftii18magmaDoubleComplexS_PS_PiS1_S0_S_iiS1_S0_
libmagma_sparse.so.2.8:_Z21zgeellmv_kernel_shiftiii18magmaDoubleComplexS_PS_PiS0_S_iiS1_S0_
libmagma_sparse.so.2.8:_Z22cgecsrreimsplit_kerneliiPiP17magmaFloatComplexS1_S1_
libmagma_sparse.so.2.8:_Z22cgeelltmv_kernel_shiftiii17magmaFloatComplexS_PS_PiS0_S_iiS1_S0_
libmagma_sparse.so.2.8:_Z22cjacobidiagscal_kerneliiP17magmaFloatComplexS0_S0_
libmagma_sparse.so.2.8:_Z22dgecsrreimsplit_kerneliiPiPdS0_S0_
libmagma_sparse.so.2.8:_Z22dgeelltmv_kernel_shiftiiiddPdPiS_diiS0_S_
libmagma_sparse.so.2.8:_Z22djacobidiagscal_kerneliiPdS_S_
libmagma_sparse.so.2.8:_Z22magma_cblockdot_kerneliiiP17magmaFloatComplexS0_S0_
libmagma_sparse.so.2.8:_Z22magma_cmatrixcup_countiPKiS0_S0_S0_Pi
libmagma_sparse.so.2.8:_Z22magma_cmcsrgpu_kernel1iP17magmaFloatComplexPiS1_S0_S1_S1_
libmagma_sparse.so.2.8:_Z22magma_cmcsrgpu_kernel2iPiS_
libmagma_sparse.so.2.8:_Z22magma_cmcsrgpu_kernel3iP17magmaFloatComplexPiS1_S1_S0_S1_S1_
libmagma_sparse.so.2.8:_Z22magma_cmdotc1_kernel_1iiP17magmaFloatComplexS0_S0_
libmagma_sparse.so.2.8:_Z22magma_cmdotc1_kernel_2iiP17magmaFloatComplexS0_
libmagma_sparse.so.2.8:_Z22magma_cmdotc2_kernel_1iiP17magmaFloatComplexS0_S0_S0_S0_
libmagma_sparse.so.2.8:_Z22magma_cmdotc2_kernel_2iiP17magmaFloatComplexS0_
libmagma_sparse.so.2.8:_Z22magma_cmdotc3_kernel_1iiP17magmaFloatComplexS0_S0_S0_S0_S0_S0_
libmagma_sparse.so.2.8:_Z22magma_cmdotc3_kernel_2iiP17magmaFloatComplexS0_
libmagma_sparse.so.2.8:_Z22magma_cmdotc4_kernel_1iiP17magmaFloatComplexS0_S0_S0_S0_S0_S0_S0_S0_
libmagma_sparse.so.2.8:_Z22magma_cmdotc4_kernel_2iiP17magmaFloatComplexS0_
libmagma_sparse.so.2.8:_Z22magma_dblockdot_kerneliiiPdS_S_
libmagma_sparse.so.2.8:_Z22magma_dmatrixcup_countiPKiS0_S0_S0_Pi
libmagma_sparse.so.2.8:_Z22magma_dmcsrgpu_kernel1iPdPiS0_S_S0_S0_
libmagma_sparse.so.2.8:_Z22magma_dmcsrgpu_kernel2iPiS_
libmagma_sparse.so.2.8:_Z22magma_dmcsrgpu_kernel3iPdPiS0_S0_S_S0_S0_
libmagma_sparse.so.2.8:_Z22magma_dmdotc1_kernel_1iiPdS_S_
libmagma_sparse.so.2.8:_Z22magma_dmdotc1_kernel_2iiPdS_
libmagma_sparse.so.2.8:_Z22magma_dmdotc2_kernel_1iiPdS_S_S_S_
libmagma_sparse.so.2.8:_Z22magma_dmdotc2_kernel_2iiPdS_
libmagma_sparse.so.2.8:_Z22magma_dmdotc3_kernel_1iiPdS_S_S_S_S_S_
libmagma_sparse.so.2.8:_Z22magma_dmdotc3_kernel_2iiPdS_
libmagma_sparse.so.2.8:_Z22magma_dmdotc4_kernel_1iiPdS_S_S_S_S_S_S_S_
libmagma_sparse.so.2.8:_Z22magma_dmdotc4_kernel_2iiPdS_
libmagma_sparse.so.2.8:_Z22magma_sblockdot_kerneliiiPfS_S_
libmagma_sparse.so.2.8:_Z22magma_smatrixcup_countiPKiS0_S0_S0_Pi
libmagma_sparse.so.2.8:_Z22magma_smcsrgpu_kernel1iPfPiS0_S_S0_S0_
libmagma_sparse.so.2.8:_Z22magma_smcsrgpu_kernel2iPiS_
libmagma_sparse.so.2.8:_Z22magma_smcsrgpu_kernel3iPfPiS0_S0_S_S0_S0_
libmagma_sparse.so.2.8:_Z22magma_smdotc1_kernel_1iiPfS_S_
libmagma_sparse.so.2.8:_Z22magma_smdotc1_kernel_2iiPfS_
libmagma_sparse.so.2.8:_Z22magma_smdotc2_kernel_1iiPfS_S_S_S_
libmagma_sparse.so.2.8:_Z22magma_smdotc2_kernel_2iiPfS_
libmagma_sparse.so.2.8:_Z22magma_smdotc3_kernel_1iiPfS_S_S_S_S_S_
libmagma_sparse.so.2.8:_Z22magma_smdotc3_kernel_2iiPfS_
libmagma_sparse.so.2.8:_Z22magma_smdotc4_kernel_1iiPfS_S_S_S_S_S_S_S_
libmagma_sparse.so.2.8:_Z22magma_smdotc4_kernel_2iiPfS_
libmagma_sparse.so.2.8:_Z22magma_zblockdot_kerneliiiP18magmaDoubleComplexS0_S0_
libmagma_sparse.so.2.8:_Z22magma_zmatrixcup_countiPKiS0_S0_S0_Pi
libmagma_sparse.so.2.8:_Z22magma_zmcsrgpu_kernel1iP18magmaDoubleComplexPiS1_S0_S1_S1_
libmagma_sparse.so.2.8:_Z22magma_zmcsrgpu_kernel2iPiS_
libmagma_sparse.so.2.8:_Z22magma_zmcsrgpu_kernel3iP18magmaDoubleComplexPiS1_S1_S0_S1_S1_
libmagma_sparse.so.2.8:_Z22magma_zmdotc1_kernel_1iiP18magmaDoubleComplexS0_S0_
libmagma_sparse.so.2.8:_Z22magma_zmdotc1_kernel_2iiP18magmaDoubleComplexS0_
libmagma_sparse.so.2.8:_Z22magma_zmdotc2_kernel_1iiP18magmaDoubleComplexS0_S0_S0_S0_
libmagma_sparse.so.2.8:_Z22magma_zmdotc2_kernel_2iiP18magmaDoubleComplexS0_
libmagma_sparse.so.2.8:_Z22magma_zmdotc3_kernel_1iiP18magmaDoubleComplexS0_S0_S0_S0_S0_S0_
libmagma_sparse.so.2.8:_Z22magma_zmdotc3_kernel_2iiP18magmaDoubleComplexS0_
libmagma_sparse.so.2.8:_Z22magma_zmdotc4_kernel_1iiP18magmaDoubleComplexS0_S0_S0_S0_S0_S0_S0_S0_
libmagma_sparse.so.2.8:_Z22magma_zmdotc4_kernel_2iiP18magmaDoubleComplexS0_
libmagma_sparse.so.2.8:_Z22mm_read_mtx_array_sizeP8_IO_FILEPiS1_
libmagma_sparse.so.2.8:_Z22sgecsrreimsplit_kerneliiPiPfS0_S0_
libmagma_sparse.so.2.8:_Z22sgeelltmv_kernel_shiftiiiffPfPiS_fiiS0_S_
libmagma_sparse.so.2.8:_Z22sjacobidiagscal_kerneliiPfS_S_
libmagma_sparse.so.2.8:_Z22zcompute_newval_kerneliPiS_S_S_S_P17magmaFloatComplexS1_
libmagma_sparse.so.2.8:_Z22zcompute_newval_kerneliPiS_S_S_S_P18magmaDoubleComplexS1_
libmagma_sparse.so.2.8:_Z22zcompute_newval_kerneliPiS_S_S_S_PdS0_
libmagma_sparse.so.2.8:_Z22zcompute_newval_kerneliPiS_S_S_S_PfS0_
libmagma_sparse.so.2.8:_Z22zgecsrreimsplit_kerneliiPiP18magmaDoubleComplexS1_S1_
libmagma_sparse.so.2.8:_Z22zgeelltmv_kernel_shiftiii18magmaDoubleComplexS_PS_PiS0_S_iiS1_S0_
libmagma_sparse.so.2.8:_Z22zjacobidiagscal_kerneliiP18magmaDoubleComplexS0_S0_
libmagma_sparse.so.2.8:_Z23magma_cbajac_csr_kerneliP17magmaFloatComplexPiS1_S0_S1_S1_S0_S0_
libmagma_sparse.so.2.8:_Z23magma_cindexinit_kerneliPi
libmagma_sparse.so.2.8:_Z23magma_cparic_csr_kerneliiPiS_PK17magmaFloatComplexS_S_PS0_
libmagma_sparse.so.2.8:_Z23magma_cparilut_L_kerneliPKiS0_PK17magmaFloatComplexiS0_S0_S0_PS1_iS0_S0_S0_S4_
libmagma_sparse.so.2.8:_Z23magma_cparilut_U_kerneliPKiS0_PK17magmaFloatComplexiS0_S0_S0_PS1_iS0_S0_S0_S4_
libmagma_sparse.so.2.8:_Z23magma_dbajac_csr_kerneliPdPiS0_S_S0_S0_S_S_
libmagma_sparse.so.2.8:_Z23magma_dindexinit_kerneliPi
libmagma_sparse.so.2.8:_Z23magma_dparic_csr_kerneliiPiS_PKdS_S_Pd
libmagma_sparse.so.2.8:_Z23magma_dparilut_L_kerneliPKiS0_PKdiS0_S0_S0_PdiS0_S0_S0_S3_
libmagma_sparse.so.2.8:_Z23magma_dparilut_U_kerneliPKiS0_PKdiS0_S0_S0_PdiS0_S0_S0_S3_
libmagma_sparse.so.2.8:_Z23magma_sbajac_csr_kerneliPfPiS0_S_S0_S0_S_S_
libmagma_sparse.so.2.8:_Z23magma_sindexinit_kerneliPi
libmagma_sparse.so.2.8:_Z23magma_sparic_csr_kerneliiPiS_PKfS_S_Pf
libmagma_sparse.so.2.8:_Z23magma_sparilut_L_kerneliPKiS0_PKfiS0_S0_S0_PfiS0_S0_S0_S3_
libmagma_sparse.so.2.8:_Z23magma_sparilut_U_kerneliPKiS0_PKfiS0_S0_S0_PfiS0_S0_S0_S3_
libmagma_sparse.so.2.8:_Z23magma_zbajac_csr_kerneliP18magmaDoubleComplexPiS1_S0_S1_S1_S0_S0_
libmagma_sparse.so.2.8:_Z23magma_zindexinit_kerneliPi
libmagma_sparse.so.2.8:_Z23magma_zparic_csr_kerneliiPiS_PK18magmaDoubleComplexS_S_PS0_
libmagma_sparse.so.2.8:_Z23magma_zparilut_L_kerneliPKiS0_PK18magmaDoubleComplexiS0_S0_S0_PS1_iS0_S0_S0_S4_
libmagma_sparse.so.2.8:_Z23magma_zparilut_U_kerneliPKiS0_PK18magmaDoubleComplexiS0_S0_S0_PS1_iS0_S0_S0_S4_
libmagma_sparse.so.2.8:_Z23mm_write_mtx_array_sizeP8_IO_FILEii
libmagma_sparse.so.2.8:_Z24cgedensereimsplit_kerneliiPiP17magmaFloatComplexS1_S1_
libmagma_sparse.so.2.8:_Z24cjacobispmvupdate_kerneliiP17magmaFloatComplexPiS1_S0_S0_S0_S0_
libmagma_sparse.so.2.8:_Z24dgedensereimsplit_kerneliiPiPdS0_S0_
libmagma_sparse.so.2.8:_Z24djacobispmvupdate_kerneliiPdPiS0_S_S_S_S_
libmagma_sparse.so.2.8:_Z24magma_cbicgmerge1_kerneliP17magmaFloatComplexS0_S0_S0_
libmagma_sparse.so.2.8:_Z24magma_cbicgmerge2_kerneliP17magmaFloatComplexS0_S0_S0_
libmagma_sparse.so.2.8:_Z24magma_cbicgmerge3_kerneliP17magmaFloatComplexS0_S0_S0_S0_S0_
libmagma_sparse.so.2.8:_Z24magma_cbicgstab_1_kernelii17magmaFloatComplexS_PS_S0_S0_
libmagma_sparse.so.2.8:_Z24magma_cbicgstab_2_kernelii17magmaFloatComplexPS_S0_S0_
libmagma_sparse.so.2.8:_Z24magma_cbicgstab_3_kernelii17magmaFloatComplexS_PS_S0_S0_S0_S0_
libmagma_sparse.so.2.8:_Z24magma_cbicgstab_4_kernelii17magmaFloatComplexS_PS_S0_S0_S0_S0_S0_
libmagma_sparse.so.2.8:_Z24magma_clobpcg_res_kerneliiPfP17magmaFloatComplexS1_S_
libmagma_sparse.so.2.8:_Z24magma_cmconjugate_kerneliPiP17magmaFloatComplex
libmagma_sparse.so.2.8:_Z24magma_cmdotc2_gpumemzeroP17magmaFloatComplexi
libmagma_sparse.so.2.8:_Z24magma_cmdotc3_gpumemzeroP17magmaFloatComplexi
libmagma_sparse.so.2.8:_Z24magma_cmdotc4_gpumemzeroP17magmaFloatComplexi
libmagma_sparse.so.2.8:_Z24magma_cparilu_csr_kerneliiPKiS0_PK17magmaFloatComplexS0_S0_PS1_S0_S0_S4_
libmagma_sparse.so.2.8:_Z24magma_ctrisolve_analysis14magma_c_matrixP18magma_solve_info_tbbbP11magma_queue
libmagma_sparse.so.2.8:_Z24magma_dbicgmerge1_kerneliPdS_S_S_
libmagma_sparse.so.2.8:_Z24magma_dbicgmerge2_kerneliPdS_S_S_
libmagma_sparse.so.2.8:_Z24magma_dbicgmerge3_kerneliPdS_S_S_S_S_
libmagma_sparse.so.2.8:_Z24magma_dbicgstab_1_kerneliiddPdS_S_
libmagma_sparse.so.2.8:_Z24magma_dbicgstab_2_kerneliidPdS_S_
libmagma_sparse.so.2.8:_Z24magma_dbicgstab_3_kerneliiddPdS_S_S_S_
libmagma_sparse.so.2.8:_Z24magma_dbicgstab_4_kerneliiddPdS_S_S_S_S_
libmagma_sparse.so.2.8:_Z24magma_dlobpcg_res_kerneliiPdS_S_S_
libmagma_sparse.so.2.8:_Z24magma_dmconjugate_kerneliPiPd
libmagma_sparse.so.2.8:_Z24magma_dmdotc2_gpumemzeroPdi
libmagma_sparse.so.2.8:_Z24magma_dmdotc3_gpumemzeroPdi
libmagma_sparse.so.2.8:_Z24magma_dmdotc4_gpumemzeroPdi
libmagma_sparse.so.2.8:_Z24magma_dparilu_csr_kerneliiPKiS0_PKdS0_S0_PdS0_S0_S3_
libmagma_sparse.so.2.8:_Z24magma_dtrisolve_analysis14magma_d_matrixP18magma_solve_info_tbbbP11magma_queue
libmagma_sparse.so.2.8:_Z24magma_sbicgmerge1_kerneliPfS_S_S_
libmagma_sparse.so.2.8:_Z24magma_sbicgmerge2_kerneliPfS_S_S_
libmagma_sparse.so.2.8:_Z24magma_sbicgmerge3_kerneliPfS_S_S_S_S_
libmagma_sparse.so.2.8:_Z24magma_sbicgstab_1_kerneliiffPfS_S_
libmagma_sparse.so.2.8:_Z24magma_sbicgstab_2_kerneliifPfS_S_
libmagma_sparse.so.2.8:_Z24magma_sbicgstab_3_kerneliiffPfS_S_S_S_
libmagma_sparse.so.2.8:_Z24magma_sbicgstab_4_kerneliiffPfS_S_S_S_S_
libmagma_sparse.so.2.8:_Z24magma_slobpcg_res_kerneliiPfS_S_S_
libmagma_sparse.so.2.8:_Z24magma_smconjugate_kerneliPiPf
libmagma_sparse.so.2.8:_Z24magma_smdotc2_gpumemzeroPfi
libmagma_sparse.so.2.8:_Z24magma_smdotc3_gpumemzeroPfi
libmagma_sparse.so.2.8:_Z24magma_smdotc4_gpumemzeroPfi
libmagma_sparse.so.2.8:_Z24magma_sparilu_csr_kerneliiPKiS0_PKfS0_S0_PfS0_S0_S3_
libmagma_sparse.so.2.8:_Z24magma_strisolve_analysis14magma_s_matrixP18magma_solve_info_tbbbP11magma_queue
libmagma_sparse.so.2.8:_Z24magma_zbicgmerge1_kerneliP18magmaDoubleComplexS0_S0_S0_
libmagma_sparse.so.2.8:_Z24magma_zbicgmerge2_kerneliP18magmaDoubleComplexS0_S0_S0_
libmagma_sparse.so.2.8:_Z24magma_zbicgmerge3_kerneliP18magmaDoubleComplexS0_S0_S0_S0_S0_
libmagma_sparse.so.2.8:_Z24magma_zbicgstab_1_kernelii18magmaDoubleComplexS_PS_S0_S0_
libmagma_sparse.so.2.8:_Z24magma_zbicgstab_2_kernelii18magmaDoubleComplexPS_S0_S0_
libmagma_sparse.so.2.8:_Z24magma_zbicgstab_3_kernelii18magmaDoubleComplexS_PS_S0_S0_S0_S0_
libmagma_sparse.so.2.8:_Z24magma_zbicgstab_4_kernelii18magmaDoubleComplexS_PS_S0_S0_S0_S0_S0_
libmagma_sparse.so.2.8:_Z24magma_zlobpcg_res_kerneliiPdP18magmaDoubleComplexS1_S_
libmagma_sparse.so.2.8:_Z24magma_zmconjugate_kerneliPiP18magmaDoubleComplex
libmagma_sparse.so.2.8:_Z24magma_zmdotc2_gpumemzeroP18magmaDoubleComplexi
libmagma_sparse.so.2.8:_Z24magma_zmdotc3_gpumemzeroP18magmaDoubleComplexi
libmagma_sparse.so.2.8:_Z24magma_zmdotc4_gpumemzeroP18magmaDoubleComplexi
libmagma_sparse.so.2.8:_Z24magma_zparilu_csr_kerneliiPKiS0_PK18magmaDoubleComplexS0_S0_PS1_S0_S0_S4_
libmagma_sparse.so.2.8:_Z24magma_ztrisolve_analysis14magma_z_matrixP18magma_solve_info_tbbbP11magma_queue
libmagma_sparse.so.2.8:_Z24sgedensereimsplit_kerneliiPiPfS0_S0_
libmagma_sparse.so.2.8:_Z24sjacobispmvupdate_kerneliiPfPiS0_S_S_S_S_
libmagma_sparse.so.2.8:_Z24sptrsm_syncfree_executorPiS_P17magmaFloatComplexS_iiiiS1_S1_
libmagma_sparse.so.2.8:_Z24sptrsm_syncfree_executorPiS_P18magmaDoubleComplexS_iiiiS1_S1_
libmagma_sparse.so.2.8:_Z24sptrsm_syncfree_executorPiS_PdS_iiiiS0_S0_
libmagma_sparse.so.2.8:_Z24sptrsm_syncfree_executorPiS_PfS_iiiiS0_S0_
libmagma_sparse.so.2.8:_Z24sptrsv_syncfree_analyserPiP17magmaFloatComplexiiS_
libmagma_sparse.so.2.8:_Z24sptrsv_syncfree_analyserPiP18magmaDoubleComplexiiS_
libmagma_sparse.so.2.8:_Z24sptrsv_syncfree_analyserPiPdiiS_
libmagma_sparse.so.2.8:_Z24sptrsv_syncfree_analyserPiPfiiS_
libmagma_sparse.so.2.8:_Z24zgedensereimsplit_kerneliiPiP18magmaDoubleComplexS1_S1_
libmagma_sparse.so.2.8:_Z24zjacobispmvupdate_kerneliiP18magmaDoubleComplexPiS1_S0_S0_S0_S0_
libmagma_sparse.so.2.8:_Z25magma_cblockreduce_kerneliiiP17magmaFloatComplexS0_
libmagma_sparse.so.2.8:_Z25magma_ccg_alphabetakernelP17magmaFloatComplex
libmagma_sparse.so.2.8:_Z25magma_cget_row_ptr_kerneliPiPKiS_
libmagma_sparse.so.2.8:_Z25magma_creduce_kernel_fastiiP17magmaFloatComplexS0_
libmagma_sparse.so.2.8:_Z25magma_dblockreduce_kerneliiiPdS_
libmagma_sparse.so.2.8:_Z25magma_dcg_alphabetakernelPd
libmagma_sparse.so.2.8:_Z25magma_dget_row_ptr_kerneliPiPKiS_
libmagma_sparse.so.2.8:_Z25magma_dmddot_one_kernel_1iPdS_S_
libmagma_sparse.so.2.8:_Z25magma_dreduce_kernel_fastiiPdS_
libmagma_sparse.so.2.8:_Z25magma_sblockreduce_kerneliiiPfS_
libmagma_sparse.so.2.8:_Z25magma_scg_alphabetakernelPf
libmagma_sparse.so.2.8:_Z25magma_sget_row_ptr_kerneliPiPKiS_
libmagma_sparse.so.2.8:_Z25magma_smsdot_one_kernel_1iPfS_S_
libmagma_sparse.so.2.8:_Z25magma_sreduce_kernel_fastiiPfS_
libmagma_sparse.so.2.8:_Z25magma_zblockreduce_kerneliiiP18magmaDoubleComplexS0_
libmagma_sparse.so.2.8:_Z25magma_zcg_alphabetakernelP18magmaDoubleComplex
libmagma_sparse.so.2.8:_Z25magma_zget_row_ptr_kerneliPiPKiS_
libmagma_sparse.so.2.8:_Z25magma_zreduce_kernel_fastiiP18magmaDoubleComplexS0_
libmagma_sparse.so.2.8:_Z26magma_cbajac_csr_ls_kerneliiP17magmaFloatComplexPiS1_S0_S1_S1_PKS_S0_
libmagma_sparse.so.2.8:_Z26magma_cbicgmerge4_kernel_1P17magmaFloatComplex
libmagma_sparse.so.2.8:_Z26magma_cbicgmerge4_kernel_2P17magmaFloatComplex
libmagma_sparse.so.2.8:_Z26magma_cbicgmerge4_kernel_3P17magmaFloatComplex
libmagma_sparse.so.2.8:_Z26magma_cbicgstab_betakernelP17magmaFloatComplex
libmagma_sparse.so.2.8:_Z26magma_clobpcg_maxpy_kerneliiP17magmaFloatComplexS0_
libmagma_sparse.so.2.8:_Z26magma_clobpcg_shift_kerneliiiP17magmaFloatComplex
libmagma_sparse.so.2.8:_Z26magma_cmcdotc_one_kernel_1iP17magmaFloatComplexS0_S0_
libmagma_sparse.so.2.8:_Z26magma_cpipelined_copyscaleiiP17magmaFloatComplexS0_S0_
libmagma_sparse.so.2.8:_Z26magma_creduce_kernel_spmv1iiP17magmaFloatComplexS0_
libmagma_sparse.so.2.8:_Z26magma_creduce_kernel_spmv2iiP17magmaFloatComplexS0_
libmagma_sparse.so.2.8:_Z26magma_dbajac_csr_ls_kerneliiPdPiS0_S_S0_S0_PKdS_
libmagma_sparse.so.2.8:_Z26magma_dbicgmerge4_kernel_1Pd
libmagma_sparse.so.2.8:_Z26magma_dbicgmerge4_kernel_2Pd
libmagma_sparse.so.2.8:_Z26magma_dbicgmerge4_kernel_3Pd
libmagma_sparse.so.2.8:_Z26magma_dbicgstab_betakernelPd
libmagma_sparse.so.2.8:_Z26magma_dlobpcg_maxpy_kerneliiPdS_
libmagma_sparse.so.2.8:_Z26magma_dlobpcg_shift_kerneliiiPd
libmagma_sparse.so.2.8:_Z26magma_dpipelined_copyscaleiiPdS_S_
libmagma_sparse.so.2.8:_Z26magma_dreduce_kernel_spmv1iiPdS_
libmagma_sparse.so.2.8:_Z26magma_dreduce_kernel_spmv2iiPdS_
libmagma_sparse.so.2.8:_Z26magma_sbajac_csr_ls_kerneliiPfPiS0_S_S0_S0_PKfS_
libmagma_sparse.so.2.8:_Z26magma_sbicgmerge4_kernel_1Pf
libmagma_sparse.so.2.8:_Z26magma_sbicgmerge4_kernel_2Pf
libmagma_sparse.so.2.8:_Z26magma_sbicgmerge4_kernel_3Pf
libmagma_sparse.so.2.8:_Z26magma_sbicgstab_betakernelPf
libmagma_sparse.so.2.8:_Z26magma_slobpcg_maxpy_kerneliiPfS_
libmagma_sparse.so.2.8:_Z26magma_slobpcg_shift_kerneliiiPf
libmagma_sparse.so.2.8:_Z26magma_spipelined_copyscaleiiPfS_S_
libmagma_sparse.so.2.8:_Z26magma_sreduce_kernel_spmv1iiPfS_
libmagma_sparse.so.2.8:_Z26magma_sreduce_kernel_spmv2iiPfS_
libmagma_sparse.so.2.8:_Z26magma_zbajac_csr_ls_kerneliiP18magmaDoubleComplexPiS1_S0_S1_S1_PKS_S0_
libmagma_sparse.so.2.8:_Z26magma_zbicgmerge4_kernel_1P18magmaDoubleComplex
libmagma_sparse.so.2.8:_Z26magma_zbicgmerge4_kernel_2P18magmaDoubleComplex
libmagma_sparse.so.2.8:_Z26magma_zbicgmerge4_kernel_3P18magmaDoubleComplex
libmagma_sparse.so.2.8:_Z26magma_zbicgstab_betakernelP18magmaDoubleComplex
libmagma_sparse.so.2.8:_Z26magma_zlobpcg_maxpy_kerneliiP18magmaDoubleComplexS0_
libmagma_sparse.so.2.8:_Z26magma_zlobpcg_shift_kerneliiiP18magmaDoubleComplex
libmagma_sparse.so.2.8:_Z26magma_zmzdotc_one_kernel_1iP18magmaDoubleComplexS0_S0_
libmagma_sparse.so.2.8:_Z26magma_zpipelined_copyscaleiiP18magmaDoubleComplexS0_S0_
libmagma_sparse.so.2.8:_Z26magma_zreduce_kernel_spmv1iiP18magmaDoubleComplexS0_
libmagma_sparse.so.2.8:_Z26magma_zreduce_kernel_spmv2iiP18magmaDoubleComplexS0_
libmagma_sparse.so.2.8:_Z26mm_read_unsymmetric_sparsePKcPiS1_S1_PPdPS1_S4_
libmagma_sparse.so.2.8:_Z27cftjacobiupdatecheck_kernelifP17magmaFloatComplexS0_S0_S0_PiS1_
libmagma_sparse.so.2.8:_Z27cjacobispmvupdate_bw_kerneliiP17magmaFloatComplexPiS1_S0_S0_S0_S0_
libmagma_sparse.so.2.8:_Z27cparilut_candidates_count_1iPKiS0_S0_S0_S0_S0_S0_S0_PiS1_
libmagma_sparse.so.2.8:_Z27cparilut_candidates_count_2iPKiS0_S0_S0_S0_S0_S0_S0_PiS1_
libmagma_sparse.so.2.8:_Z27dftjacobiupdatecheck_kernelidPdS_S_S_PiS0_
libmagma_sparse.so.2.8:_Z27djacobispmvupdate_bw_kerneliiPdPiS0_S_S_S_S_
libmagma_sparse.so.2.8:_Z27dparilut_candidates_count_1iPKiS0_S0_S0_S0_S0_S0_S0_PiS1_
libmagma_sparse.so.2.8:_Z27dparilut_candidates_count_2iPKiS0_S0_S0_S0_S0_S0_S0_PiS1_
libmagma_sparse.so.2.8:_Z27dsgecsrmv_mixed_prec_kerneliidPdPfPiS1_S_dS_
libmagma_sparse.so.2.8:_Z27magma_cbicgstab_alphakernelP17magmaFloatComplex
libmagma_sparse.so.2.8:_Z27magma_cbicgstab_omegakernelP17magmaFloatComplex
libmagma_sparse.so.2.8:_Z27magma_cpipelined_correctioniiP17magmaFloatComplexS0_S0_
libmagma_sparse.so.2.8:_Z27magma_cselect_insert_kerneliiPiS_P17magmaFloatComplexS_S_S1_S_S_
libmagma_sparse.so.2.8:_Z27magma_cselect_rowptr_kerneliPiS_
libmagma_sparse.so.2.8:_Z27magma_dbicgstab_alphakernelPd
libmagma_sparse.so.2.8:_Z27magma_dbicgstab_omegakernelPd
libmagma_sparse.so.2.8:_Z27magma_dpipelined_correctioniiPdS_S_
libmagma_sparse.so.2.8:_Z27magma_dselect_insert_kerneliiPiS_PdS_S_S0_S_S_
libmagma_sparse.so.2.8:_Z27magma_dselect_rowptr_kerneliPiS_
libmagma_sparse.so.2.8:_Z27magma_sbicgstab_alphakernelPf
libmagma_sparse.so.2.8:_Z27magma_sbicgstab_omegakernelPf
libmagma_sparse.so.2.8:_Z27magma_spipelined_correctioniiPfS_S_
libmagma_sparse.so.2.8:_Z27magma_sselect_insert_kerneliiPiS_PfS_S_S0_S_S_
libmagma_sparse.so.2.8:_Z27magma_sselect_rowptr_kerneliPiS_
libmagma_sparse.so.2.8:_Z27magma_zbicgstab_alphakernelP18magmaDoubleComplex
libmagma_sparse.so.2.8:_Z27magma_zbicgstab_omegakernelP18magmaDoubleComplex
libmagma_sparse.so.2.8:_Z27magma_zpipelined_correctioniiP18magmaDoubleComplexS0_S0_
libmagma_sparse.so.2.8:_Z27magma_zselect_insert_kerneliiPiS_P18magmaDoubleComplexS_S_S1_S_S_
libmagma_sparse.so.2.8:_Z27magma_zselect_rowptr_kerneliPiS_
libmagma_sparse.so.2.8:_Z27sftjacobiupdatecheck_kernelifPfS_S_S_PiS0_
libmagma_sparse.so.2.8:_Z27sjacobispmvupdate_bw_kerneliiPfPiS0_S_S_S_S_
libmagma_sparse.so.2.8:_Z27sparilut_candidates_count_1iPKiS0_S0_S0_S0_S0_S0_S0_PiS1_
libmagma_sparse.so.2.8:_Z27sparilut_candidates_count_2iPKiS0_S0_S0_S0_S0_S0_S0_PiS1_
libmagma_sparse.so.2.8:_Z27zcgecsrmv_mixed_prec_kernelii18magmaDoubleComplexPS_P17magmaFloatComplexPiS3_S0_S_S0_
libmagma_sparse.so.2.8:_Z27zftjacobiupdatecheck_kernelidP18magmaDoubleComplexS0_S0_S0_PiS1_
libmagma_sparse.so.2.8:_Z27zjacobispmvupdate_bw_kerneliiP18magmaDoubleComplexPiS1_S0_S0_S0_S0_
libmagma_sparse.so.2.8:_Z27zparilut_candidates_count_1iPKiS0_S0_S0_S0_S0_S0_S0_PiS1_
libmagma_sparse.so.2.8:_Z27zparilut_candidates_count_2iPKiS0_S0_S0_S0_S0_S0_S0_PiS1_
libmagma_sparse.so.2.8:_Z28__device_stub__cge3pt_kernelii17magmaFloatComplexS_PS_S0_
libmagma_sparse.so.2.8:_Z28__device_stub__dge3pt_kerneliiddPdS_
libmagma_sparse.so.2.8:_Z28__device_stub__sge3pt_kerneliiffPfS_
libmagma_sparse.so.2.8:_Z28__device_stub__zge3pt_kernelii18magmaDoubleComplexS_PS_S0_
libmagma_sparse.so.2.8:_Z28cftjacobicontractions_kerneliP17magmaFloatComplexS0_S0_S0_S0_
libmagma_sparse.so.2.8:_Z28cparilut_candidates_insert_1iPKiS0_S0_S0_S0_S0_S0_S0_PiS1_S1_P17magmaFloatComplexS1_S1_S1_S1_S3_S1_
libmagma_sparse.so.2.8:_Z28cparilut_candidates_insert_2iPKiS0_S0_S0_S0_S0_S0_S0_PiS1_S1_P17magmaFloatComplexS1_S1_S1_S1_S3_S1_
libmagma_sparse.so.2.8:_Z28dftjacobicontractions_kerneliPdS_S_S_S_
libmagma_sparse.so.2.8:_Z28dparilut_candidates_insert_1iPKiS0_S0_S0_S0_S0_S0_S0_PiS1_S1_PdS1_S1_S1_S1_S2_S1_
libmagma_sparse.so.2.8:_Z28dparilut_candidates_insert_2iPKiS0_S0_S0_S0_S0_S0_S0_PiS1_S1_PdS1_S1_S1_S1_S2_S1_
libmagma_sparse.so.2.8:_Z28magma_ccgmerge_xrbeta_kerneliP17magmaFloatComplexS0_S0_S0_S0_S0_
libmagma_sparse.so.2.8:_Z28magma_ccgreduce_kernel_spmv1iiP17magmaFloatComplexS0_
libmagma_sparse.so.2.8:_Z28magma_ccgreduce_kernel_spmv2iiP17magmaFloatComplexS0_
libmagma_sparse.so.2.8:_Z28magma_cjaccardweights_kerneliiiPiS_P17magmaFloatComplexS_S_S1_
libmagma_sparse.so.2.8:_Z28magma_cselect_pattern_kerneliiPiS_S_
libmagma_sparse.so.2.8:_Z28magma_dcgmerge_xrbeta_kerneliPdS_S_S_S_S_
libmagma_sparse.so.2.8:_Z28magma_dcgreduce_kernel_spmv1iiPdS_
libmagma_sparse.so.2.8:_Z28magma_dcgreduce_kernel_spmv2iiPdS_
libmagma_sparse.so.2.8:_Z28magma_djaccardweights_kerneliiiPiS_PdS_S_S0_
libmagma_sparse.so.2.8:_Z28magma_dpipelineddnrm2_kerneliPdiS_
libmagma_sparse.so.2.8:_Z28magma_dselect_pattern_kerneliiPiS_S_
libmagma_sparse.so.2.8:_Z28magma_scgmerge_xrbeta_kerneliPfS_S_S_S_S_
libmagma_sparse.so.2.8:_Z28magma_scgreduce_kernel_spmv1iiPfS_
libmagma_sparse.so.2.8:_Z28magma_scgreduce_kernel_spmv2iiPfS_
libmagma_sparse.so.2.8:_Z28magma_sjaccardweights_kerneliiiPiS_PfS_S_S0_
libmagma_sparse.so.2.8:_Z28magma_spipelinedsnrm2_kerneliPfiS_
libmagma_sparse.so.2.8:_Z28magma_sselect_pattern_kerneliiPiS_S_
libmagma_sparse.so.2.8:_Z28magma_zcgmerge_xrbeta_kerneliP18magmaDoubleComplexS0_S0_S0_S0_S0_
libmagma_sparse.so.2.8:_Z28magma_zcgreduce_kernel_spmv1iiP18magmaDoubleComplexS0_
libmagma_sparse.so.2.8:_Z28magma_zcgreduce_kernel_spmv2iiP18magmaDoubleComplexS0_
libmagma_sparse.so.2.8:_Z28magma_zjaccardweights_kerneliiiPiS_P18magmaDoubleComplexS_S_S1_
libmagma_sparse.so.2.8:_Z28magma_zselect_pattern_kerneliiPiS_S_
libmagma_sparse.so.2.8:_Z28sftjacobicontractions_kerneliPfS_S_S_S_
libmagma_sparse.so.2.8:_Z28sparilut_candidates_insert_1iPKiS0_S0_S0_S0_S0_S0_S0_PiS1_S1_PfS1_S1_S1_S1_S2_S1_
libmagma_sparse.so.2.8:_Z28sparilut_candidates_insert_2iPKiS0_S0_S0_S0_S0_S0_S0_PiS1_S1_PfS1_S1_S1_S1_S2_S1_
libmagma_sparse.so.2.8:_Z28zftjacobicontractions_kerneliP18magmaDoubleComplexS0_S0_S0_S0_
libmagma_sparse.so.2.8:_Z28zparilut_candidates_insert_1iPKiS0_S0_S0_S0_S0_S0_S0_PiS1_S1_P18magmaDoubleComplexS1_S1_S1_S1_S3_S1_
libmagma_sparse.so.2.8:_Z28zparilut_candidates_insert_2iPKiS0_S0_S0_S0_S0_S0_S0_PiS1_S1_P18magmaDoubleComplexS1_S1_S1_S1_S3_S1_
libmagma_sparse.so.2.8:_Z29__device_stub__cgeaxpy_kernelii17magmaFloatComplexPS_S_S0_
libmagma_sparse.so.2.8:_Z29__device_stub__dgeaxpy_kerneliidPddS_
libmagma_sparse.so.2.8:_Z29__device_stub__sgeaxpy_kerneliifPffS_
libmagma_sparse.so.2.8:_Z29__device_stub__zgeaxpy_kernelii18magmaDoubleComplexPS_S_S0_
libmagma_sparse.so.2.8:_Z29magma_cbajac_csr_o_ls_kernel1iiiiP17magmaFloatComplexPiS1_S0_S1_S1_PKS_S0_
libmagma_sparse.so.2.8:_Z29magma_cbajac_csr_o_ls_kernel2iiiiP17magmaFloatComplexPiS1_S0_S1_S1_S0_S1_S1_S0_S1_S1_PKS_S0_
libmagma_sparse.so.2.8:_Z29magma_cbajac_csr_o_ls_kernel4iiiiP17magmaFloatComplexPiS1_S0_S1_S1_S0_S1_S1_S0_S1_S1_S0_S1_S1_S0_S1_S1_S0_S1_S1_S0_S1_S1_PKS_S0_
libmagma_sparse.so.2.8:_Z29magma_cbajac_csr_o_ls_kernel8iiiiP17magmaFloatComplexPiS1_S0_S1_S1_S0_S1_S1_S0_S1_S1_S0_S1_S1_S0_S1_S1_S0_S1_S1_S0_S1_S1_S0_S1_S1_S0_S1_S1_S0_S1_S1_S0_S1_S1_S0_S1_S1_S0_S1_S1_S0_S1_S1_S0_S1_S1_PKS_S0_
libmagma_sparse.so.2.8:_Z29magma_cbicgmerge_spmv1_kerneliP17magmaFloatComplexPiS1_S0_S0_S0_S0_
libmagma_sparse.so.2.8:_Z29magma_cbicgmerge_spmv2_kerneliP17magmaFloatComplexPiS1_S0_S0_S0_
libmagma_sparse.so.2.8:_Z29magma_ccgmerge_spmvcsr_kerneliP17magmaFloatComplexPiS1_S0_S0_S0_
libmagma_sparse.so.2.8:_Z29magma_ccgmerge_spmvell_kerneliiP17magmaFloatComplexPiS0_S0_S0_
libmagma_sparse.so.2.8:_Z29magma_cidr_smoothing_1_kerneliiP17magmaFloatComplexS0_S0_
libmagma_sparse.so.2.8:_Z29magma_cidr_smoothing_2_kernelii17magmaFloatComplexPS_S0_
libmagma_sparse.so.2.8:_Z29magma_cjcgmerge_xrbeta_kerneliP17magmaFloatComplexS0_S0_S0_S0_S0_S0_S0_
libmagma_sparse.so.2.8:_Z29magma_cpcgmerge_xrbeta_kerneliP17magmaFloatComplexS0_S0_S0_S0_
libmagma_sparse.so.2.8:_Z29magma_cpipelinedscnrm2_kerneliP17magmaFloatComplexiS0_
libmagma_sparse.so.2.8:_Z29magma_dbajac_csr_o_ls_kernel1iiiiPdPiS0_S_S0_S0_PKdS_
libmagma_sparse.so.2.8:_Z29magma_dbajac_csr_o_ls_kernel2iiiiPdPiS0_S_S0_S0_S_S0_S0_S_S0_S0_PKdS_
libmagma_sparse.so.2.8:_Z29magma_dbajac_csr_o_ls_kernel4iiiiPdPiS0_S_S0_S0_S_S0_S0_S_S0_S0_S_S0_S0_S_S0_S0_S_S0_S0_S_S0_S0_PKdS_
libmagma_sparse.so.2.8:_Z29magma_dbajac_csr_o_ls_kernel8iiiiPdPiS0_S_S0_S0_S_S0_S0_S_S0_S0_S_S0_S0_S_S0_S0_S_S0_S0_S_S0_S0_S_S0_S0_S_S0_S0_S_S0_S0_S_S0_S0_S_S0_S0_S_S0_S0_S_S0_S0_S_S0_S0_PKdS_
libmagma_sparse.so.2.8:_Z29magma_dbicgmerge_spmv1_kerneliPdPiS0_S_S_S_S_
libmagma_sparse.so.2.8:_Z29magma_dbicgmerge_spmv2_kerneliPdPiS0_S_S_S_
libmagma_sparse.so.2.8:_Z29magma_dcgmerge_spmvcsr_kerneliPdPiS0_S_S_S_
libmagma_sparse.so.2.8:_Z29magma_dcgmerge_spmvell_kerneliiPdPiS_S_S_
libmagma_sparse.so.2.8:_Z29magma_didr_smoothing_1_kerneliiPdS_S_
libmagma_sparse.so.2.8:_Z29magma_didr_smoothing_2_kerneliidPdS_
libmagma_sparse.so.2.8:_Z29magma_djcgmerge_xrbeta_kerneliPdS_S_S_S_S_S_S_
libmagma_sparse.so.2.8:_Z29magma_dpcgmerge_xrbeta_kerneliPdS_S_S_S_
libmagma_sparse.so.2.8:_Z29magma_sbajac_csr_o_ls_kernel1iiiiPfPiS0_S_S0_S0_PKfS_
libmagma_sparse.so.2.8:_Z29magma_sbajac_csr_o_ls_kernel2iiiiPfPiS0_S_S0_S0_S_S0_S0_S_S0_S0_PKfS_
libmagma_sparse.so.2.8:_Z29magma_sbajac_csr_o_ls_kernel4iiiiPfPiS0_S_S0_S0_S_S0_S0_S_S0_S0_S_S0_S0_S_S0_S0_S_S0_S0_S_S0_S0_PKfS_
libmagma_sparse.so.2.8:_Z29magma_sbajac_csr_o_ls_kernel8iiiiPfPiS0_S_S0_S0_S_S0_S0_S_S0_S0_S_S0_S0_S_S0_S0_S_S0_S0_S_S0_S0_S_S0_S0_S_S0_S0_S_S0_S0_S_S0_S0_S_S0_S0_S_S0_S0_S_S0_S0_S_S0_S0_PKfS_
libmagma_sparse.so.2.8:_Z29magma_sbicgmerge_spmv1_kerneliPfPiS0_S_S_S_S_
libmagma_sparse.so.2.8:_Z29magma_sbicgmerge_spmv2_kerneliPfPiS0_S_S_S_
libmagma_sparse.so.2.8:_Z29magma_scgmerge_spmvcsr_kerneliPfPiS0_S_S_S_
libmagma_sparse.so.2.8:_Z29magma_scgmerge_spmvell_kerneliiPfPiS_S_S_
libmagma_sparse.so.2.8:_Z29magma_sidr_smoothing_1_kerneliiPfS_S_
libmagma_sparse.so.2.8:_Z29magma_sidr_smoothing_2_kerneliifPfS_
libmagma_sparse.so.2.8:_Z29magma_sjcgmerge_xrbeta_kerneliPfS_S_S_S_S_S_S_
libmagma_sparse.so.2.8:_Z29magma_spcgmerge_xrbeta_kerneliPfS_S_S_S_
libmagma_sparse.so.2.8:_Z29magma_zbajac_csr_o_ls_kernel1iiiiP18magmaDoubleComplexPiS1_S0_S1_S1_PKS_S0_
libmagma_sparse.so.2.8:_Z29magma_zbajac_csr_o_ls_kernel2iiiiP18magmaDoubleComplexPiS1_S0_S1_S1_S0_S1_S1_S0_S1_S1_PKS_S0_
libmagma_sparse.so.2.8:_Z29magma_zbajac_csr_o_ls_kernel4iiiiP18magmaDoubleComplexPiS1_S0_S1_S1_S0_S1_S1_S0_S1_S1_S0_S1_S1_S0_S1_S1_S0_S1_S1_S0_S1_S1_PKS_S0_
libmagma_sparse.so.2.8:_Z29magma_zbajac_csr_o_ls_kernel8iiiiP18magmaDoubleComplexPiS1_S0_S1_S1_S0_S1_S1_S0_S1_S1_S0_S1_S1_S0_S1_S1_S0_S1_S1_S0_S1_S1_S0_S1_S1_S0_S1_S1_S0_S1_S1_S0_S1_S1_S0_S1_S1_S0_S1_S1_S0_S1_S1_S0_S1_S1_PKS_S0_
libmagma_sparse.so.2.8:_Z29magma_zbicgmerge_spmv1_kerneliP18magmaDoubleComplexPiS1_S0_S0_S0_S0_
libmagma_sparse.so.2.8:_Z29magma_zbicgmerge_spmv2_kerneliP18magmaDoubleComplexPiS1_S0_S0_S0_
libmagma_sparse.so.2.8:_Z29magma_zcgmerge_spmvcsr_kerneliP18magmaDoubleComplexPiS1_S0_S0_S0_
libmagma_sparse.so.2.8:_Z29magma_zcgmerge_spmvell_kerneliiP18magmaDoubleComplexPiS0_S0_S0_
libmagma_sparse.so.2.8:_Z29magma_zidr_smoothing_1_kerneliiP18magmaDoubleComplexS0_S0_
libmagma_sparse.so.2.8:_Z29magma_zidr_smoothing_2_kernelii18magmaDoubleComplexPS_S0_
libmagma_sparse.so.2.8:_Z29magma_zjcgmerge_xrbeta_kerneliP18magmaDoubleComplexS0_S0_S0_S0_S0_S0_S0_
libmagma_sparse.so.2.8:_Z29magma_zpcgmerge_xrbeta_kerneliP18magmaDoubleComplexS0_S0_S0_S0_
libmagma_sparse.so.2.8:_Z29magma_zpipelineddznrm2_kerneliP18magmaDoubleComplexiS0_
libmagma_sparse.so.2.8:_Z30__device_stub__ccompact_kerneliiP17magmaFloatComplexiPffPiS2_
libmagma_sparse.so.2.8:_Z30__device_stub__cgecsrmv_kernelii17magmaFloatComplexPS_PiS1_S0_S_S0_
libmagma_sparse.so.2.8:_Z30__device_stub__cgeellmv_kerneliii17magmaFloatComplexPS_PiS0_S_S0_
libmagma_sparse.so.2.8:_Z30__device_stub__dcompact_kerneliiPdiS_dPiS0_
libmagma_sparse.so.2.8:_Z30__device_stub__dgecsrmv_kerneliidPdPiS0_S_dS_
libmagma_sparse.so.2.8:_Z30__device_stub__dgeellmv_kerneliiidPdPiS_dS_
libmagma_sparse.so.2.8:_Z30__device_stub__scompact_kerneliiPfiS_fPiS0_
libmagma_sparse.so.2.8:_Z30__device_stub__sgecsrmv_kerneliifPfPiS0_S_fS_
libmagma_sparse.so.2.8:_Z30__device_stub__sgeellmv_kerneliiifPfPiS_fS_
libmagma_sparse.so.2.8:_Z30__device_stub__zcompact_kerneliiP18magmaDoubleComplexiPddPiS2_
libmagma_sparse.so.2.8:_Z30__device_stub__zgecsrmv_kernelii18magmaDoubleComplexPS_PiS1_S0_S_S0_
libmagma_sparse.so.2.8:_Z30__device_stub__zgeellmv_kerneliii18magmaDoubleComplexPS_PiS0_S_S0_
libmagma_sparse.so.2.8:_Z30cjacobispmvupdateselect_kerneliiiPiP17magmaFloatComplexS_S_S1_S1_S1_S1_S1_
libmagma_sparse.so.2.8:_Z30djacobispmvupdateselect_kerneliiiPiPdS_S_S0_S0_S0_S0_S0_
libmagma_sparse.so.2.8:_Z30magma_cbajac_csr_o_ls_kernel16iiiiP17magmaFloatComplexPiS1_S0_S1_S1_S0_S1_S1_S0_S1_S1_S0_S1_S1_S0_S1_S1_S0_S1_S1_S0_S1_S1_S0_S1_S1_S0_S1_S1_S0_S1_S1_S0_S1_S1_S0_S1_S1_S0_S1_S1_S0_S1_S1_S0_S1_S1_S0_S1_S1_S0_S1_S1_S0_S1_S1_S0_S1_S1_S0_S1_S1_S0_S1_S1_S0_S1_S1_S0_S1_S1_S0_S1_S1_S0_S1_S1_S0_S1_S1_S0_S1_S1_S0_S1_S1_S0_S1_S1_S0_S1_S1_S0_S1_S1_PKS_S0_
libmagma_sparse.so.2.8:_Z30magma_cbajac_csr_o_ls_kernel32iiiiP17magmaFloatComplexPiS1_S0_S1_S1_S0_S1_S1_S0_S1_S1_S0_S1_S1_S0_S1_S1_S0_S1_S1_S0_S1_S1_S0_S1_S1_S0_S1_S1_S0_S1_S1_S0_S1_S1_S0_S1_S1_S0_S1_S1_S0_S1_S1_S0_S1_S1_S0_S1_S1_S0_S1_S1_S0_S1_S1_S0_S1_S1_S0_S1_S1_S0_S1_S1_S0_S1_S1_S0_S1_S1_S0_S1_S1_S0_S1_S1_S0_S1_S1_S0_S1_S1_S0_S1_S1_S0_S1_S1_S0_S1_S1_S0_S1_S1_S0_S1_S1_S0_S1_S1_S0_S1_S1_S0_S1_S1_S0_S1_S1_S0_S1_S1_S0_S1_S1_S0_S1_S1_S0_S1_S1_S0_S1_S1_S0_S1_S1_S0_S1_S1_S0_S1_S1_S0_S1_S1_S0_S1_S1_S0_S1_S1_S0_S1_S1_S0_S1_S1_S0_S1_S1_S0_S1_S1_S0_S1_S1_S0_S1_S1_S0_S1_S1_S0_S1_S1_S0_S1_S1_S0_S1_S1_S0_S1_S1_S0_S1_S1_S0_S1_S1_S0_S1_S1_S0_S1_S1_S0_S1_S1_PKS_S0_
libmagma_sparse.so.2.8:_Z30magma_cbajac_csr_o_ls_kernel64iiiiP17magmaFloatComplexPiS1_S0_S1_S1_S0_S1_S1_S0_S1_S1_S0_S1_S1_S0_S1_S1_S0_S1_S1_S0_S1_S1_S0_S1_S1_S0_S1_S1_S0_S1_S1_S0_S1_S1_S0_S1_S1_S0_S1_S1_S0_S1_S1_S0_S1_S1_S0_S1_S1_S0_S1_S1_S0_S1_S1_S0_S1_S1_S0_S1_S1_S0_S1_S1_S0_S1_S1_S0_S1_S1_S0_S1_S1_S0_S1_S1_S0_S1_S1_S0_S1_S1_S0_S1_S1_S0_S1_S1_S0_S1_S1_S0_S1_S1_S0_S1_S1_S0_S1_S1_S0_S1_S1_S0_S1_S1_S0_S1_S1_S0_S1_S1_S0_S1_S1_S0_S1_S1_S0_S1_S1_S0_S1_S1_S0_S1_S1_S0_S1_S1_S0_S1_S1_S0_S1_S1_S0_S1_S1_S0_S1_S1_S0_S1_S1_S0_S1_S1_S0_S1_S1_S0_S1_S1_S0_S1_S1_S0_S1_S1_S0_S1_S1_S0_S1_S1_S0_S1_S1_S0_S1_S1_S0_S1_S1_S0_S1_S1_S0_S1_S1_S0_S1_S1_S0_S1_S1_S0_S1_S1_S0_S1_S1_S0_S1_S1_S0_S1_S1_S0_S1_S1_S0_S1_S1_S0_S1_S1_S0_S1_S1_S0_S1_S1_S0_S1_S1_S0_S1_S1_S0_S1_S1_S0_S1_S1_S0_S1_S1_S0_S1_S1_S0_S1_S1_S0_S1_S1_S0_S1_S1_S0_S1_S1_S0_S1_S1_S0_S1_S1_S0_S1_S1_S0_S1_S1_S0_S1_S1_S0_S1_S1_S0_S1_S1_S0_S1_S1_S0_S1_S1_S0_S1_S1_S0_S1_S1_S0_S1_S1_S0_S1_S1_S0_S1_S1_S0_S1_S1_S0_S1_S1_S0_S1_S1_S0_S1_S1_S0_S1_S1_S0_S1_S1_S0_S1_S1_S0_S1_S1_S0_S1_S1_S0_S1_S1_S0_S1_S1_S0_S1_S1_S0_S1_S1_S0_S1_S1_S0_S1_S1_S0_S1_S1_S0_S1_S1_S0_S1_S1_S0_S1_S1_S0_S1_S1_S0_S1_S1_S0_S1_S1_S0_S1_S1_S0_S1_S1_S0_S1_S1_S0_S1_S1_S0_S1_S1_S0_S1_S1_S0_S1_S1_S0_S1_S1_S0_S1_S1_S0_S1_S1_PKS_S0_
libmagma_sparse.so.2.8:_Z30magma_cbicgmerge_xrbeta_kerneliP17magmaFloatComplexS0_S0_S0_S0_S0_S0_S0_
libmagma_sparse.so.2.8:_Z30magma_cblockdot_kernel_shuffleiiPK17magmaFloatComplexS1_PS_
libmagma_sparse.so.2.8:_Z30magma_cblockreduce_kernel_fastiiiP17magmaFloatComplexS0_
libmagma_sparse.so.2.8:_Z30magma_cmergeblockkrylov_kerneliiP17magmaFloatComplexS0_S0_
libmagma_sparse.so.2.8:_Z30magma_dbajac_csr_o_ls_kernel16iiiiPdPiS0_S_S0_S0_S_S0_S0_S_S0_S0_S_S0_S0_S_S0_S0_S_S0_S0_S_S0_S0_S_S0_S0_S_S0_S0_S_S0_S0_S_S0_S0_S_S0_S0_S_S0_S0_S_S0_S0_S_S0_S0_S_S0_S0_S_S0_S0_S_S0_S0_S_S0_S0_S_S0_S0_S_S0_S0_S_S0_S0_S_S0_S0_S_S0_S0_S_S0_S0_S_S0_S0_S_S0_S0_S_S0_S0_S_S0_S0_S_S0_S0_S_S0_S0_PKdS_
libmagma_sparse.so.2.8:_Z30magma_dbajac_csr_o_ls_kernel32iiiiPdPiS0_S_S0_S0_S_S0_S0_S_S0_S0_S_S0_S0_S_S0_S0_S_S0_S0_S_S0_S0_S_S0_S0_S_S0_S0_S_S0_S0_S_S0_S0_S_S0_S0_S_S0_S0_S_S0_S0_S_S0_S0_S_S0_S0_S_S0_S0_S_S0_S0_S_S0_S0_S_S0_S0_S_S0_S0_S_S0_S0_S_S0_S0_S_S0_S0_S_S0_S0_S_S0_S0_S_S0_S0_S_S0_S0_S_S0_S0_S_S0_S0_S_S0_S0_S_S0_S0_S_S0_S0_S_S0_S0_S_S0_S0_S_S0_S0_S_S0_S0_S_S0_S0_S_S0_S0_S_S0_S0_S_S0_S0_S_S0_S0_S_S0_S0_S_S0_S0_S_S0_S0_S_S0_S0_S_S0_S0_S_S0_S0_S_S0_S0_S_S0_S0_S_S0_S0_S_S0_S0_S_S0_S0_S_S0_S0_S_S0_S0_S_S0_S0_S_S0_S0_S_S0_S0_S_S0_S0_S_S0_S0_S_S0_S0_S_S0_S0_S_S0_S0_PKdS_
libmagma_sparse.so.2.8:_Z30magma_dbajac_csr_o_ls_kernel64iiiiPdPiS0_S_S0_S0_S_S0_S0_S_S0_S0_S_S0_S0_S_S0_S0_S_S0_S0_S_S0_S0_S_S0_S0_S_S0_S0_S_S0_S0_S_S0_S0_S_S0_S0_S_S0_S0_S_S0_S0_S_S0_S0_S_S0_S0_S_S0_S0_S_S0_S0_S_S0_S0_S_S0_S0_S_S0_S0_S_S0_S0_S_S0_S0_S_S0_S0_S_S0_S0_S_S0_S0_S_S0_S0_S_S0_S0_S_S0_S0_S_S0_S0_S_S0_S0_S_S0_S0_S_S0_S0_S_S0_S0_S_S0_S0_S_S0_S0_S_S0_S0_S_S0_S0_S_S0_S0_S_S0_S0_S_S0_S0_S_S0_S0_S_S0_S0_S_S0_S0_S_S0_S0_S_S0_S0_S_S0_S0_S_S0_S0_S_S0_S0_S_S0_S0_S_S0_S0_S_S0_S0_S_S0_S0_S_S0_S0_S_S0_S0_S_S0_S0_S_S0_S0_S_S0_S0_S_S0_S0_S_S0_S0_S_S0_S0_S_S0_S0_S_S0_S0_S_S0_S0_S_S0_S0_S_S0_S0_S_S0_S0_S_S0_S0_S_S0_S0_S_S0_S0_S_S0_S0_S_S0_S0_S_S0_S0_S_S0_S0_S_S0_S0_S_S0_S0_S_S0_S0_S_S0_S0_S_S0_S0_S_S0_S0_S_S0_S0_S_S0_S0_S_S0_S0_S_S0_S0_S_S0_S0_S_S0_S0_S_S0_S0_S_S0_S0_S_S0_S0_S_S0_S0_S_S0_S0_S_S0_S0_S_S0_S0_S_S0_S0_S_S0_S0_S_S0_S0_S_S0_S0_S_S0_S0_S_S0_S0_S_S0_S0_S_S0_S0_S_S0_S0_S_S0_S0_S_S0_S0_S_S0_S0_S_S0_S0_S_S0_S0_S_S0_S0_S_S0_S0_S_S0_S0_S_S0_S0_S_S0_S0_S_S0_S0_S_S0_S0_S_S0_S0_S_S0_S0_S_S0_S0_S_S0_S0_S_S0_S0_S_S0_S0_S_S0_S0_S_S0_S0_S_S0_S0_S_S0_S0_S_S0_S0_S_S0_S0_S_S0_S0_PKdS_
libmagma_sparse.so.2.8:_Z30magma_dbicgmerge_xrbeta_kerneliPdS_S_S_S_S_S_S_
libmagma_sparse.so.2.8:_Z30magma_dblockdot_kernel_shuffleiiPKdS0_Pd
libmagma_sparse.so.2.8:_Z30magma_dblockreduce_kernel_fastiiiPdS_
libmagma_sparse.so.2.8:_Z30magma_dmergeblockkrylov_kerneliiPdS_S_
libmagma_sparse.so.2.8:_Z30magma_sbajac_csr_o_ls_kernel16iiiiPfPiS0_S_S0_S0_S_S0_S0_S_S0_S0_S_S0_S0_S_S0_S0_S_S0_S0_S_S0_S0_S_S0_S0_S_S0_S0_S_S0_S0_S_S0_S0_S_S0_S0_S_S0_S0_S_S0_S0_S_S0_S0_S_S0_S0_S_S0_S0_S_S0_S0_S_S0_S0_S_S0_S0_S_S0_S0_S_S0_S0_S_S0_S0_S_S0_S0_S_S0_S0_S_S0_S0_S_S0_S0_S_S0_S0_S_S0_S0_S_S0_S0_S_S0_S0_PKfS_
libmagma_sparse.so.2.8:_Z30magma_sbajac_csr_o_ls_kernel32iiiiPfPiS0_S_S0_S0_S_S0_S0_S_S0_S0_S_S0_S0_S_S0_S0_S_S0_S0_S_S0_S0_S_S0_S0_S_S0_S0_S_S0_S0_S_S0_S0_S_S0_S0_S_S0_S0_S_S0_S0_S_S0_S0_S_S0_S0_S_S0_S0_S_S0_S0_S_S0_S0_S_S0_S0_S_S0_S0_S_S0_S0_S_S0_S0_S_S0_S0_S_S0_S0_S_S0_S0_S_S0_S0_S_S0_S0_S_S0_S0_S_S0_S0_S_S0_S0_S_S0_S0_S_S0_S0_S_S0_S0_S_S0_S0_S_S0_S0_S_S0_S0_S_S0_S0_S_S0_S0_S_S0_S0_S_S0_S0_S_S0_S0_S_S0_S0_S_S0_S0_S_S0_S0_S_S0_S0_S_S0_S0_S_S0_S0_S_S0_S0_S_S0_S0_S_S0_S0_S_S0_S0_S_S0_S0_S_S0_S0_S_S0_S0_S_S0_S0_S_S0_S0_S_S0_S0_S_S0_S0_S_S0_S0_S_S0_S0_S_S0_S0_S_S0_S0_PKfS_
libmagma_sparse.so.2.8:_Z30magma_sbajac_csr_o_ls_kernel64iiiiPfPiS0_S_S0_S0_S_S0_S0_S_S0_S0_S_S0_S0_S_S0_S0_S_S0_S0_S_S0_S0_S_S0_S0_S_S0_S0_S_S0_S0_S_S0_S0_S_S0_S0_S_S0_S0_S_S0_S0_S_S0_S0_S_S0_S0_S_S0_S0_S_S0_S0_S_S0_S0_S_S0_S0_S_S0_S0_S_S0_S0_S_S0_S0_S_S0_S0_S_S0_S0_S_S0_S0_S_S0_S0_S_S0_S0_S_S0_S0_S_S0_S0_S_S0_S0_S_S0_S0_S_S0_S0_S_S0_S0_S_S0_S0_S_S0_S0_S_S0_S0_S_S0_S0_S_S0_S0_S_S0_S0_S_S0_S0_S_S0_S0_S_S0_S0_S_S0_S0_S_S0_S0_S_S0_S0_S_S0_S0_S_S0_S0_S_S0_S0_S_S0_S0_S_S0_S0_S_S0_S0_S_S0_S0_S_S0_S0_S_S0_S0_S_S0_S0_S_S0_S0_S_S0_S0_S_S0_S0_S_S0_S0_S_S0_S0_S_S0_S0_S_S0_S0_S_S0_S0_S_S0_S0_S_S0_S0_S_S0_S0_S_S0_S0_S_S0_S0_S_S0_S0_S_S0_S0_S_S0_S0_S_S0_S0_S_S0_S0_S_S0_S0_S_S0_S0_S_S0_S0_S_S0_S0_S_S0_S0_S_S0_S0_S_S0_S0_S_S0_S0_S_S0_S0_S_S0_S0_S_S0_S0_S_S0_S0_S_S0_S0_S_S0_S0_S_S0_S0_S_S0_S0_S_S0_S0_S_S0_S0_S_S0_S0_S_S0_S0_S_S0_S0_S_S0_S0_S_S0_S0_S_S0_S0_S_S0_S0_S_S0_S0_S_S0_S0_S_S0_S0_S_S0_S0_S_S0_S0_S_S0_S0_S_S0_S0_S_S0_S0_S_S0_S0_S_S0_S0_S_S0_S0_S_S0_S0_S_S0_S0_S_S0_S0_S_S0_S0_S_S0_S0_S_S0_S0_S_S0_S0_S_S0_S0_S_S0_S0_S_S0_S0_S_S0_S0_S_S0_S0_S_S0_S0_S_S0_S0_S_S0_S0_S_S0_S0_S_S0_S0_PKfS_
libmagma_sparse.so.2.8:_Z30magma_sbicgmerge_xrbeta_kerneliPfS_S_S_S_S_S_S_
libmagma_sparse.so.2.8:_Z30magma_sblockdot_kernel_shuffleiiPKfS0_Pf
libmagma_sparse.so.2.8:_Z30magma_sblockreduce_kernel_fastiiiPfS_
libmagma_sparse.so.2.8:_Z30magma_smergeblockkrylov_kerneliiPfS_S_
libmagma_sparse.so.2.8:_Z30magma_zbajac_csr_o_ls_kernel16iiiiP18magmaDoubleComplexPiS1_S0_S1_S1_S0_S1_S1_S0_S1_S1_S0_S1_S1_S0_S1_S1_S0_S1_S1_S0_S1_S1_S0_S1_S1_S0_S1_S1_S0_S1_S1_S0_S1_S1_S0_S1_S1_S0_S1_S1_S0_S1_S1_S0_S1_S1_S0_S1_S1_S0_S1_S1_S0_S1_S1_S0_S1_S1_S0_S1_S1_S0_S1_S1_S0_S1_S1_S0_S1_S1_S0_S1_S1_S0_S1_S1_S0_S1_S1_S0_S1_S1_S0_S1_S1_S0_S1_S1_S0_S1_S1_S0_S1_S1_PKS_S0_
libmagma_sparse.so.2.8:_Z30magma_zbajac_csr_o_ls_kernel32iiiiP18magmaDoubleComplexPiS1_S0_S1_S1_S0_S1_S1_S0_S1_S1_S0_S1_S1_S0_S1_S1_S0_S1_S1_S0_S1_S1_S0_S1_S1_S0_S1_S1_S0_S1_S1_S0_S1_S1_S0_S1_S1_S0_S1_S1_S0_S1_S1_S0_S1_S1_S0_S1_S1_S0_S1_S1_S0_S1_S1_S0_S1_S1_S0_S1_S1_S0_S1_S1_S0_S1_S1_S0_S1_S1_S0_S1_S1_S0_S1_S1_S0_S1_S1_S0_S1_S1_S0_S1_S1_S0_S1_S1_S0_S1_S1_S0_S1_S1_S0_S1_S1_S0_S1_S1_S0_S1_S1_S0_S1_S1_S0_S1_S1_S0_S1_S1_S0_S1_S1_S0_S1_S1_S0_S1_S1_S0_S1_S1_S0_S1_S1_S0_S1_S1_S0_S1_S1_S0_S1_S1_S0_S1_S1_S0_S1_S1_S0_S1_S1_S0_S1_S1_S0_S1_S1_S0_S1_S1_S0_S1_S1_S0_S1_S1_S0_S1_S1_S0_S1_S1_S0_S1_S1_S0_S1_S1_S0_S1_S1_S0_S1_S1_S0_S1_S1_S0_S1_S1_S0_S1_S1_S0_S1_S1_PKS_S0_
libmagma_sparse.so.2.8:_Z30magma_zbajac_csr_o_ls_kernel64iiiiP18magmaDoubleComplexPiS1_S0_S1_S1_S0_S1_S1_S0_S1_S1_S0_S1_S1_S0_S1_S1_S0_S1_S1_S0_S1_S1_S0_S1_S1_S0_S1_S1_S0_S1_S1_S0_S1_S1_S0_S1_S1_S0_S1_S1_S0_S1_S1_S0_S1_S1_S0_S1_S1_S0_S1_S1_S0_S1_S1_S0_S1_S1_S0_S1_S1_S0_S1_S1_S0_S1_S1_S0_S1_S1_S0_S1_S1_S0_S1_S1_S0_S1_S1_S0_S1_S1_S0_S1_S1_S0_S1_S1_S0_S1_S1_S0_S1_S1_S0_S1_S1_S0_S1_S1_S0_S1_S1_S0_S1_S1_S0_S1_S1_S0_S1_S1_S0_S1_S1_S0_S1_S1_S0_S1_S1_S0_S1_S1_S0_S1_S1_S0_S1_S1_S0_S1_S1_S0_S1_S1_S0_S1_S1_S0_S1_S1_S0_S1_S1_S0_S1_S1_S0_S1_S1_S0_S1_S1_S0_S1_S1_S0_S1_S1_S0_S1_S1_S0_S1_S1_S0_S1_S1_S0_S1_S1_S0_S1_S1_S0_S1_S1_S0_S1_S1_S0_S1_S1_S0_S1_S1_S0_S1_S1_S0_S1_S1_S0_S1_S1_S0_S1_S1_S0_S1_S1_S0_S1_S1_S0_S1_S1_S0_S1_S1_S0_S1_S1_S0_S1_S1_S0_S1_S1_S0_S1_S1_S0_S1_S1_S0_S1_S1_S0_S1_S1_S0_S1_S1_S0_S1_S1_S0_S1_S1_S0_S1_S1_S0_S1_S1_S0_S1_S1_S0_S1_S1_S0_S1_S1_S0_S1_S1_S0_S1_S1_S0_S1_S1_S0_S1_S1_S0_S1_S1_S0_S1_S1_S0_S1_S1_S0_S1_S1_S0_S1_S1_S0_S1_S1_S0_S1_S1_S0_S1_S1_S0_S1_S1_S0_S1_S1_S0_S1_S1_S0_S1_S1_S0_S1_S1_S0_S1_S1_S0_S1_S1_S0_S1_S1_S0_S1_S1_S0_S1_S1_S0_S1_S1_S0_S1_S1_S0_S1_S1_S0_S1_S1_S0_S1_S1_S0_S1_S1_S0_S1_S1_S0_S1_S1_S0_S1_S1_S0_S1_S1_S0_S1_S1_S0_S1_S1_S0_S1_S1_S0_S1_S1_S0_S1_S1_S0_S1_S1_S0_S1_S1_S0_S1_S1_S0_S1_S1_S0_S1_S1_PKS_S0_
libmagma_sparse.so.2.8:_Z30magma_zbicgmerge_xrbeta_kerneliP18magmaDoubleComplexS0_S0_S0_S0_S0_S0_S0_
libmagma_sparse.so.2.8:_Z30magma_zblockdot_kernel_shuffleiiPK18magmaDoubleComplexS1_PS_
libmagma_sparse.so.2.8:_Z30magma_zblockreduce_kernel_fastiiiP18magmaDoubleComplexS0_
libmagma_sparse.so.2.8:_Z30magma_zmergeblockkrylov_kerneliiP18magmaDoubleComplexS0_S0_
libmagma_sparse.so.2.8:_Z30sjacobispmvupdateselect_kerneliiiPiPfS_S_S0_S0_S0_S0_S0_
libmagma_sparse.so.2.8:_Z30zjacobispmvupdateselect_kerneliiiPiP18magmaDoubleComplexS_S_S1_S1_S1_S1_S1_
libmagma_sparse.so.2.8:_Z31__device_stub__cmgecsrmv_kerneliii17magmaFloatComplexPS_PiS1_S0_S_S0_
libmagma_sparse.so.2.8:_Z31__device_stub__cmgeellmv_kerneliiii17magmaFloatComplexPS_PiS0_S_S0_
libmagma_sparse.so.2.8:_Z31__device_stub__dmgecsrmv_kerneliiidPdPiS0_S_dS_
libmagma_sparse.so.2.8:_Z31__device_stub__dmgeellmv_kerneliiiidPdPiS_dS_
libmagma_sparse.so.2.8:_Z31__device_stub__smgecsrmv_kerneliiifPfPiS0_S_fS_
libmagma_sparse.so.2.8:_Z31__device_stub__smgeellmv_kerneliiiifPfPiS_fS_
libmagma_sparse.so.2.8:_Z31__device_stub__zmgecsrmv_kerneliii18magmaDoubleComplexPS_PiS1_S0_S_S0_
libmagma_sparse.so.2.8:_Z31__device_stub__zmgeellmv_kerneliiii18magmaDoubleComplexPS_PiS0_S_S0_
libmagma_sparse.so.2.8:_Z31magma_ccgmerge_spmvell_kernelb1iiP17magmaFloatComplexPiS1_S0_S0_S0_
libmagma_sparse.so.2.8:_Z31magma_ccgmerge_spmvsellc_kerneliiP17magmaFloatComplexPiS1_S0_S0_S0_
libmagma_sparse.so.2.8:_Z31magma_cparilut_residuals_kerneliPKiS0_PK17magmaFloatComplexS0_S0_S3_S0_S0_S3_iS0_S0_PS1_
libmagma_sparse.so.2.8:_Z31magma_dcgmerge_spmvell_kernelb1iiPdPiS0_S_S_S_
libmagma_sparse.so.2.8:_Z31magma_dcgmerge_spmvsellc_kerneliiPdPiS0_S_S_S_
libmagma_sparse.so.2.8:_Z31magma_dparilut_residuals_kerneliPKiS0_PKdS0_S0_S2_S0_S0_S2_iS0_S0_Pd
libmagma_sparse.so.2.8:_Z31magma_scgmerge_spmvell_kernelb1iiPfPiS0_S_S_S_
libmagma_sparse.so.2.8:_Z31magma_scgmerge_spmvsellc_kerneliiPfPiS0_S_S_S_
libmagma_sparse.so.2.8:_Z31magma_sparilut_residuals_kerneliPKiS0_PKfS0_S0_S2_S0_S0_S2_iS0_S0_Pf
libmagma_sparse.so.2.8:_Z31magma_zcgmerge_spmvell_kernelb1iiP18magmaDoubleComplexPiS1_S0_S0_S0_
libmagma_sparse.so.2.8:_Z31magma_zcgmerge_spmvsellc_kerneliiP18magmaDoubleComplexPiS1_S0_S0_S0_
libmagma_sparse.so.2.8:_Z31magma_zparilut_residuals_kerneliPKiS0_PK18magmaDoubleComplexS0_S0_S3_S0_S0_S3_iS0_S0_PS1_
libmagma_sparse.so.2.8:_Z32__device_stub__cgesellcmv_kerneliii17magmaFloatComplexPS_PiS1_S0_S_S0_
libmagma_sparse.so.2.8:_Z32__device_stub__cvjacobisetup_gpuiiP17magmaFloatComplexS0_S0_S0_
libmagma_sparse.so.2.8:_Z32__device_stub__dgesellcmv_kerneliiidPdPiS0_S_dS_
libmagma_sparse.so.2.8:_Z32__device_stub__dvjacobisetup_gpuiiPdS_S_S_
libmagma_sparse.so.2.8:_Z32__device_stub__magma_cdot_kerneliiP17magmaFloatComplexS0_S0_
libmagma_sparse.so.2.8:_Z32__device_stub__magma_cgpumemzeroP17magmaFloatComplexii
libmagma_sparse.so.2.8:_Z32__device_stub__magma_ddot_kerneliiPdS_S_
libmagma_sparse.so.2.8:_Z32__device_stub__magma_dgpumemzeroPdii
libmagma_sparse.so.2.8:_Z32__device_stub__magma_sdot_kerneliiPfS_S_
libmagma_sparse.so.2.8:_Z32__device_stub__magma_sgpumemzeroPfii
libmagma_sparse.so.2.8:_Z32__device_stub__magma_zdot_kerneliiP18magmaDoubleComplexS0_S0_
libmagma_sparse.so.2.8:_Z32__device_stub__magma_zgpumemzeroP18magmaDoubleComplexii
libmagma_sparse.so.2.8:_Z32__device_stub__sgesellcmv_kerneliiifPfPiS0_S_fS_
libmagma_sparse.so.2.8:_Z32__device_stub__svjacobisetup_gpuiiPfS_S_S_
libmagma_sparse.so.2.8:_Z32__device_stub__zdiagcheck_kerneliiP17magmaFloatComplexPiS1_S1_
libmagma_sparse.so.2.8:_Z32__device_stub__zdiagcheck_kerneliiP18magmaDoubleComplexPiS1_S1_
libmagma_sparse.so.2.8:_Z32__device_stub__zdiagcheck_kerneliiPdPiS0_S0_
libmagma_sparse.so.2.8:_Z32__device_stub__zdiagcheck_kerneliiPfPiS0_S0_
libmagma_sparse.so.2.8:_Z32__device_stub__zgesellcmv_kerneliii18magmaDoubleComplexPS_PiS1_S0_S_S0_
libmagma_sparse.so.2.8:_Z32__device_stub__zvjacobisetup_gpuiiP18magmaDoubleComplexS0_S0_S0_
libmagma_sparse.so.2.8:_Z33__device_stub__magma_ccg_d_kerneliP17magmaFloatComplexS0_S0_
libmagma_sparse.so.2.8:_Z33__device_stub__magma_dcg_d_kerneliPdS_S_
libmagma_sparse.so.2.8:_Z33__device_stub__magma_scg_d_kerneliPfS_S_
libmagma_sparse.so.2.8:_Z33__device_stub__magma_zcg_d_kerneliP18magmaDoubleComplexS0_S0_
libmagma_sparse.so.2.8:_Z33magma_ccgmerge_spmvellpack_kerneliiP17magmaFloatComplexPiS0_S0_S0_
libmagma_sparse.so.2.8:_Z33magma_dcgmerge_spmvellpack_kerneliiPdPiS_S_S_
libmagma_sparse.so.2.8:_Z33magma_scgmerge_spmvellpack_kerneliiPfPiS_S_S_
libmagma_sparse.so.2.8:_Z33magma_zcgmerge_spmvellpack_kerneliiP18magmaDoubleComplexPiS0_S0_S0_
libmagma_sparse.so.2.8:_Z34__device_stub__cgeellrtmv_kernel_8ii17magmaFloatComplexPS_PiS1_S0_S_S0_ii
libmagma_sparse.so.2.8:_Z34__device_stub__dgeellrtmv_kernel_8iidPdPiS0_S_dS_ii
libmagma_sparse.so.2.8:_Z34__device_stub__magma_ccg_rhokernelP17magmaFloatComplex
libmagma_sparse.so.2.8:_Z34__device_stub__magma_ccgs_1_kernelii17magmaFloatComplexPS_S0_S0_S0_
libmagma_sparse.so.2.8:_Z34__device_stub__magma_ccgs_2_kerneliiP17magmaFloatComplexS0_S0_
libmagma_sparse.so.2.8:_Z34__device_stub__magma_ccgs_3_kernelii17magmaFloatComplexPS_S0_S0_S0_
libmagma_sparse.so.2.8:_Z34__device_stub__magma_ccgs_4_kernelii17magmaFloatComplexPS_S0_S0_S0_
libmagma_sparse.so.2.8:_Z34__device_stub__magma_cqmr_1_kernelii17magmaFloatComplexS_PS_S0_S0_S0_
libmagma_sparse.so.2.8:_Z34__device_stub__magma_cqmr_2_kernelii17magmaFloatComplexS_PS_S0_S0_S0_
libmagma_sparse.so.2.8:_Z34__device_stub__magma_cqmr_3_kernelii17magmaFloatComplexPS_S0_S0_
libmagma_sparse.so.2.8:_Z34__device_stub__magma_cqmr_4_kernelii17magmaFloatComplexPS_S0_S0_S0_S0_S0_
libmagma_sparse.so.2.8:_Z34__device_stub__magma_cqmr_5_kernelii17magmaFloatComplexS_PS_S0_S0_S0_S0_S0_
libmagma_sparse.so.2.8:_Z34__device_stub__magma_cqmr_6_kernelii17magmaFloatComplexS_S_PS_S0_S0_S0_S0_
libmagma_sparse.so.2.8:_Z34__device_stub__magma_cqmr_7_kernelii17magmaFloatComplexPS_S0_S0_
libmagma_sparse.so.2.8:_Z34__device_stub__magma_cqmr_8_kernelii17magmaFloatComplexS_PS_S0_S0_S0_S0_S0_
libmagma_sparse.so.2.8:_Z34__device_stub__magma_dcg_rhokernelPd
libmagma_sparse.so.2.8:_Z34__device_stub__magma_dcgs_1_kerneliidPdS_S_S_
libmagma_sparse.so.2.8:_Z34__device_stub__magma_dcgs_2_kerneliiPdS_S_
libmagma_sparse.so.2.8:_Z34__device_stub__magma_dcgs_3_kerneliidPdS_S_S_
libmagma_sparse.so.2.8:_Z34__device_stub__magma_dcgs_4_kerneliidPdS_S_S_
libmagma_sparse.so.2.8:_Z34__device_stub__magma_dqmr_1_kerneliiddPdS_S_S_
libmagma_sparse.so.2.8:_Z34__device_stub__magma_dqmr_2_kerneliiddPdS_S_S_
libmagma_sparse.so.2.8:_Z34__device_stub__magma_dqmr_3_kerneliidPdS_S_
libmagma_sparse.so.2.8:_Z34__device_stub__magma_dqmr_4_kerneliidPdS_S_S_S_S_
libmagma_sparse.so.2.8:_Z34__device_stub__magma_dqmr_5_kerneliiddPdS_S_S_S_S_
libmagma_sparse.so.2.8:_Z34__device_stub__magma_dqmr_6_kerneliidddPdS_S_S_S_
libmagma_sparse.so.2.8:_Z34__device_stub__magma_dqmr_7_kerneliidPdS_S_
libmagma_sparse.so.2.8:_Z34__device_stub__magma_dqmr_8_kerneliiddPdS_S_S_S_S_
libmagma_sparse.so.2.8:_Z34__device_stub__magma_scg_rhokernelPf
libmagma_sparse.so.2.8:_Z34__device_stub__magma_scgs_1_kerneliifPfS_S_S_
libmagma_sparse.so.2.8:_Z34__device_stub__magma_scgs_2_kerneliiPfS_S_
libmagma_sparse.so.2.8:_Z34__device_stub__magma_scgs_3_kerneliifPfS_S_S_
libmagma_sparse.so.2.8:_Z34__device_stub__magma_scgs_4_kerneliifPfS_S_S_
libmagma_sparse.so.2.8:_Z34__device_stub__magma_sqmr_1_kerneliiffPfS_S_S_
libmagma_sparse.so.2.8:_Z34__device_stub__magma_sqmr_2_kerneliiffPfS_S_S_
libmagma_sparse.so.2.8:_Z34__device_stub__magma_sqmr_3_kerneliifPfS_S_
libmagma_sparse.so.2.8:_Z34__device_stub__magma_sqmr_4_kerneliifPfS_S_S_S_S_
libmagma_sparse.so.2.8:_Z34__device_stub__magma_sqmr_5_kerneliiffPfS_S_S_S_S_
libmagma_sparse.so.2.8:_Z34__device_stub__magma_sqmr_6_kerneliifffPfS_S_S_S_
libmagma_sparse.so.2.8:_Z34__device_stub__magma_sqmr_7_kerneliifPfS_S_
libmagma_sparse.so.2.8:_Z34__device_stub__magma_sqmr_8_kerneliiffPfS_S_S_S_S_
libmagma_sparse.so.2.8:_Z34__device_stub__magma_zcg_rhokernelP18magmaDoubleComplex
libmagma_sparse.so.2.8:_Z34__device_stub__magma_zcgs_1_kernelii18magmaDoubleComplexPS_S0_S0_S0_
libmagma_sparse.so.2.8:_Z34__device_stub__magma_zcgs_2_kerneliiP18magmaDoubleComplexS0_S0_
libmagma_sparse.so.2.8:_Z34__device_stub__magma_zcgs_3_kernelii18magmaDoubleComplexPS_S0_S0_S0_
libmagma_sparse.so.2.8:_Z34__device_stub__magma_zcgs_4_kernelii18magmaDoubleComplexPS_S0_S0_S0_
libmagma_sparse.so.2.8:_Z34__device_stub__magma_zqmr_1_kernelii18magmaDoubleComplexS_PS_S0_S0_S0_
libmagma_sparse.so.2.8:_Z34__device_stub__magma_zqmr_2_kernelii18magmaDoubleComplexS_PS_S0_S0_S0_
libmagma_sparse.so.2.8:_Z34__device_stub__magma_zqmr_3_kernelii18magmaDoubleComplexPS_S0_S0_
libmagma_sparse.so.2.8:_Z34__device_stub__magma_zqmr_4_kernelii18magmaDoubleComplexPS_S0_S0_S0_S0_S0_
libmagma_sparse.so.2.8:_Z34__device_stub__magma_zqmr_5_kernelii18magmaDoubleComplexS_PS_S0_S0_S0_S0_S0_
libmagma_sparse.so.2.8:_Z34__device_stub__magma_zqmr_6_kernelii18magmaDoubleComplexS_S_PS_S0_S0_S0_S0_
libmagma_sparse.so.2.8:_Z34__device_stub__magma_zqmr_7_kernelii18magmaDoubleComplexPS_S0_S0_
libmagma_sparse.so.2.8:_Z34__device_stub__magma_zqmr_8_kernelii18magmaDoubleComplexS_PS_S0_S0_S0_S0_S0_
libmagma_sparse.so.2.8:_Z34__device_stub__sgeellrtmv_kernel_8iifPfPiS0_S_fS_ii
libmagma_sparse.so.2.8:_Z34__device_stub__zcompute_nnz_kerneliPiS_S_P17magmaFloatComplexf
libmagma_sparse.so.2.8:_Z34__device_stub__zcompute_nnz_kerneliPiS_S_P18magmaDoubleComplexd
libmagma_sparse.so.2.8:_Z34__device_stub__zcompute_nnz_kerneliPiS_S_Pdd
libmagma_sparse.so.2.8:_Z34__device_stub__zcompute_nnz_kerneliPiS_S_Pff
libmagma_sparse.so.2.8:_Z34__device_stub__zgeellrtmv_kernel_8ii18magmaDoubleComplexPS_PiS1_S0_S_S0_ii
libmagma_sparse.so.2.8:_Z34magma_ccgmerge_spmvsellpt_kernel_8iiiP17magmaFloatComplexPiS1_S0_S0_
libmagma_sparse.so.2.8:_Z34magma_dcgmerge_spmvsellpt_kernel_8iiiPdPiS0_S_S_
libmagma_sparse.so.2.8:_Z34magma_scgmerge_spmvsellpt_kernel_8iiiPfPiS0_S_S_
libmagma_sparse.so.2.8:_Z34magma_zcgmerge_spmvsellpt_kernel_8iiiP18magmaDoubleComplexPiS1_S0_S0_
libmagma_sparse.so.2.8:_Z35__device_stub__cgeellrtmv_kernel_16ii17magmaFloatComplexPS_PiS1_S0_S_S0_ii
libmagma_sparse.so.2.8:_Z35__device_stub__cgeellrtmv_kernel_32ii17magmaFloatComplexPS_PiS1_S0_S_S0_ii
libmagma_sparse.so.2.8:_Z35__device_stub__cjacobiupdate_kerneliiP17magmaFloatComplexS0_S0_S0_
libmagma_sparse.so.2.8:_Z35__device_stub__dgeellrtmv_kernel_16iidPdPiS0_S_dS_ii
libmagma_sparse.so.2.8:_Z35__device_stub__dgeellrtmv_kernel_32iidPdPiS0_S_dS_ii
libmagma_sparse.so.2.8:_Z35__device_stub__djacobiupdate_kerneliiPdS_S_S_
libmagma_sparse.so.2.8:_Z35__device_stub__magma_ck_testLockingPji
libmagma_sparse.so.2.8:_Z35__device_stub__magma_dk_testLockingPji
libmagma_sparse.so.2.8:_Z35__device_stub__magma_sk_testLockingPji
libmagma_sparse.so.2.8:_Z35__device_stub__magma_zk_testLockingPji
libmagma_sparse.so.2.8:_Z35__device_stub__sgeellrtmv_kernel_16iifPfPiS0_S_fS_ii
libmagma_sparse.so.2.8:_Z35__device_stub__sgeellrtmv_kernel_32iifPfPiS0_S_fS_ii
libmagma_sparse.so.2.8:_Z35__device_stub__sjacobiupdate_kerneliiPfS_S_S_
libmagma_sparse.so.2.8:_Z35__device_stub__zgeellrtmv_kernel_16ii18magmaDoubleComplexPS_PiS1_S0_S_S0_ii
libmagma_sparse.so.2.8:_Z35__device_stub__zgeellrtmv_kernel_32ii18magmaDoubleComplexPS_PiS1_S0_S_S0_ii
libmagma_sparse.so.2.8:_Z35__device_stub__zjacobiupdate_kerneliiP18magmaDoubleComplexS0_S0_S0_
libmagma_sparse.so.2.8:_Z35magma_ccgmerge_spmvsellpt_kernel_16iiiP17magmaFloatComplexPiS1_S0_S0_
libmagma_sparse.so.2.8:_Z35magma_ccgmerge_spmvsellpt_kernel_32iiiP17magmaFloatComplexPiS1_S0_S0_
libmagma_sparse.so.2.8:_Z35magma_dcgmerge_spmvsellpt_kernel_16iiiPdPiS0_S_S_
libmagma_sparse.so.2.8:_Z35magma_dcgmerge_spmvsellpt_kernel_32iiiPdPiS0_S_S_
libmagma_sparse.so.2.8:_Z35magma_scgmerge_spmvsellpt_kernel_16iiiPfPiS0_S_S_
libmagma_sparse.so.2.8:_Z35magma_scgmerge_spmvsellpt_kernel_32iiiPfPiS0_S_S_
libmagma_sparse.so.2.8:_Z35magma_zcgmerge_spmvsellpt_kernel_16iiiP18magmaDoubleComplexPiS1_S0_S0_
libmagma_sparse.so.2.8:_Z35magma_zcgmerge_spmvsellpt_kernel_32iiiP18magmaDoubleComplexPiS1_S0_S0_
libmagma_sparse.so.2.8:_Z36__device_stub__ccompactactive_kerneliiP17magmaFloatComplexiPi
libmagma_sparse.so.2.8:_Z36__device_stub__cgecsrmv_kernel_shiftii17magmaFloatComplexS_PS_PiS1_S0_S_iiS1_S0_
libmagma_sparse.so.2.8:_Z36__device_stub__cgeellmv_kernel_shiftiii17magmaFloatComplexS_PS_PiS0_S_iiS1_S0_
libmagma_sparse.so.2.8:_Z36__device_stub__dcompactactive_kerneliiPdiPi
libmagma_sparse.so.2.8:_Z36__device_stub__dgecsrmv_kernel_shiftiiddPdPiS0_S_diiS0_S_
libmagma_sparse.so.2.8:_Z36__device_stub__dgeellmv_kernel_shiftiiiddPdPiS_diiS0_S_
libmagma_sparse.so.2.8:_Z36__device_stub__magma_cmatrixcup_filliPKiS0_PK17magmaFloatComplexS0_S0_S3_PiS4_S4_PS1_
libmagma_sparse.so.2.8:_Z36__device_stub__magma_cpipelinesscaleiP17magmaFloatComplexS0_
libmagma_sparse.so.2.8:_Z36__device_stub__magma_cpreselect_gpu0iPiP17magmaFloatComplexS1_
libmagma_sparse.so.2.8:_Z36__device_stub__magma_cpreselect_gpu1iPiP17magmaFloatComplexS1_
libmagma_sparse.so.2.8:_Z36__device_stub__magma_ctfqmr_1_kernelii17magmaFloatComplexS_PS_S0_S0_S0_S0_S0_S0_S0_
libmagma_sparse.so.2.8:_Z36__device_stub__magma_ctfqmr_2_kernelii17magmaFloatComplexPS_S0_S0_S0_
libmagma_sparse.so.2.8:_Z36__device_stub__magma_ctfqmr_3_kernelii17magmaFloatComplexPS_S0_S0_
libmagma_sparse.so.2.8:_Z36__device_stub__magma_ctfqmr_4_kernelii17magmaFloatComplexPS_S0_S0_
libmagma_sparse.so.2.8:_Z36__device_stub__magma_ctfqmr_5_kernelii17magmaFloatComplexS_PS_S0_S0_S0_S0_S0_
libmagma_sparse.so.2.8:_Z36__device_stub__magma_cvalinit_kerneliP17magmaFloatComplex
libmagma_sparse.so.2.8:_Z36__device_stub__magma_dmatrixcup_filliPKiS0_PKdS0_S0_S2_PiS3_S3_Pd
libmagma_sparse.so.2.8:_Z36__device_stub__magma_dpipelinedscaleiPdS_
libmagma_sparse.so.2.8:_Z36__device_stub__magma_dpreselect_gpu0iPiPdS0_
libmagma_sparse.so.2.8:_Z36__device_stub__magma_dpreselect_gpu1iPiPdS0_
libmagma_sparse.so.2.8:_Z36__device_stub__magma_dtfqmr_1_kerneliiddPdS_S_S_S_S_S_S_
libmagma_sparse.so.2.8:_Z36__device_stub__magma_dtfqmr_2_kerneliidPdS_S_S_
libmagma_sparse.so.2.8:_Z36__device_stub__magma_dtfqmr_3_kerneliidPdS_S_
libmagma_sparse.so.2.8:_Z36__device_stub__magma_dtfqmr_4_kerneliidPdS_S_
libmagma_sparse.so.2.8:_Z36__device_stub__magma_dtfqmr_5_kerneliiddPdS_S_S_S_S_
libmagma_sparse.so.2.8:_Z36__device_stub__magma_dvalinit_kerneliPd
libmagma_sparse.so.2.8:_Z36__device_stub__magma_smatrixcup_filliPKiS0_PKfS0_S0_S2_PiS3_S3_Pf
libmagma_sparse.so.2.8:_Z36__device_stub__magma_spipelinesscaleiPfS_
libmagma_sparse.so.2.8:_Z36__device_stub__magma_spreselect_gpu0iPiPfS0_
libmagma_sparse.so.2.8:_Z36__device_stub__magma_spreselect_gpu1iPiPfS0_
libmagma_sparse.so.2.8:_Z36__device_stub__magma_stfqmr_1_kerneliiffPfS_S_S_S_S_S_S_
libmagma_sparse.so.2.8:_Z36__device_stub__magma_stfqmr_2_kerneliifPfS_S_S_
libmagma_sparse.so.2.8:_Z36__device_stub__magma_stfqmr_3_kerneliifPfS_S_
libmagma_sparse.so.2.8:_Z36__device_stub__magma_stfqmr_4_kerneliifPfS_S_
libmagma_sparse.so.2.8:_Z36__device_stub__magma_stfqmr_5_kerneliiffPfS_S_S_S_S_
libmagma_sparse.so.2.8:_Z36__device_stub__magma_svalinit_kerneliPf
libmagma_sparse.so.2.8:_Z36__device_stub__magma_zmatrixcup_filliPKiS0_PK18magmaDoubleComplexS0_S0_S3_PiS4_S4_PS1_
libmagma_sparse.so.2.8:_Z36__device_stub__magma_zpipelinedscaleiP18magmaDoubleComplexS0_
libmagma_sparse.so.2.8:_Z36__device_stub__magma_zpreselect_gpu0iPiP18magmaDoubleComplexS1_
libmagma_sparse.so.2.8:_Z36__device_stub__magma_zpreselect_gpu1iPiP18magmaDoubleComplexS1_
libmagma_sparse.so.2.8:_Z36__device_stub__magma_ztfqmr_1_kernelii18magmaDoubleComplexS_PS_S0_S0_S0_S0_S0_S0_S0_
libmagma_sparse.so.2.8:_Z36__device_stub__magma_ztfqmr_2_kernelii18magmaDoubleComplexPS_S0_S0_S0_
libmagma_sparse.so.2.8:_Z36__device_stub__magma_ztfqmr_3_kernelii18magmaDoubleComplexPS_S0_S0_
libmagma_sparse.so.2.8:_Z36__device_stub__magma_ztfqmr_4_kernelii18magmaDoubleComplexPS_S0_S0_
libmagma_sparse.so.2.8:_Z36__device_stub__magma_ztfqmr_5_kernelii18magmaDoubleComplexS_PS_S0_S0_S0_S0_S0_
libmagma_sparse.so.2.8:_Z36__device_stub__magma_zvalinit_kerneliP18magmaDoubleComplex
libmagma_sparse.so.2.8:_Z36__device_stub__scompactactive_kerneliiPfiPi
libmagma_sparse.so.2.8:_Z36__device_stub__sgecsrmv_kernel_shiftiiffPfPiS0_S_fiiS0_S_
libmagma_sparse.so.2.8:_Z36__device_stub__sgeellmv_kernel_shiftiiiffPfPiS_fiiS0_S_
libmagma_sparse.so.2.8:_Z36__device_stub__zcompactactive_kerneliiP18magmaDoubleComplexiPi
libmagma_sparse.so.2.8:_Z36__device_stub__zgecsrmv_kernel_shiftii18magmaDoubleComplexS_PS_PiS1_S0_S_iiS1_S0_
libmagma_sparse.so.2.8:_Z36__device_stub__zgeellmv_kernel_shiftiii18magmaDoubleComplexS_PS_PiS0_S_iiS1_S0_
libmagma_sparse.so.2.8:_Z36magma_ccgmerge_spmvellpackrt_kernel2iP17magmaFloatComplexS0_S0_
libmagma_sparse.so.2.8:_Z36magma_dcgmerge_spmvellpackrt_kernel2iPdS_S_
libmagma_sparse.so.2.8:_Z36magma_scgmerge_spmvellpackrt_kernel2iPfS_S_
libmagma_sparse.so.2.8:_Z36magma_zcgmerge_spmvellpackrt_kernel2iP18magmaDoubleComplexS0_S0_
libmagma_sparse.so.2.8:_Z37__device_stub__cgecsrreimsplit_kerneliiPiP17magmaFloatComplexS1_S1_
libmagma_sparse.so.2.8:_Z37__device_stub__cgeelltmv_kernel_shiftiii17magmaFloatComplexS_PS_PiS0_S_iiS1_S0_
libmagma_sparse.so.2.8:_Z37__device_stub__cjacobidiagscal_kerneliiP17magmaFloatComplexS0_S0_
libmagma_sparse.so.2.8:_Z37__device_stub__dgecsrreimsplit_kerneliiPiPdS0_S0_
libmagma_sparse.so.2.8:_Z37__device_stub__dgeelltmv_kernel_shiftiiiddPdPiS_diiS0_S_
libmagma_sparse.so.2.8:_Z37__device_stub__djacobidiagscal_kerneliiPdS_S_
libmagma_sparse.so.2.8:_Z37__device_stub__magma_cblockdot_kerneliiiP17magmaFloatComplexS0_S0_
libmagma_sparse.so.2.8:_Z37__device_stub__magma_cmatrixcup_countiPKiS0_S0_S0_Pi
libmagma_sparse.so.2.8:_Z37__device_stub__magma_cmcsrgpu_kernel1iP17magmaFloatComplexPiS1_S0_S1_S1_
libmagma_sparse.so.2.8:_Z37__device_stub__magma_cmcsrgpu_kernel2iPiS_
libmagma_sparse.so.2.8:_Z37__device_stub__magma_cmcsrgpu_kernel3iP17magmaFloatComplexPiS1_S1_S0_S1_S1_
libmagma_sparse.so.2.8:_Z37__device_stub__magma_cmdotc1_kernel_1iiP17magmaFloatComplexS0_S0_
libmagma_sparse.so.2.8:_Z37__device_stub__magma_cmdotc1_kernel_2iiP17magmaFloatComplexS0_
libmagma_sparse.so.2.8:_Z37__device_stub__magma_cmdotc2_kernel_1iiP17magmaFloatComplexS0_S0_S0_S0_
libmagma_sparse.so.2.8:_Z37__device_stub__magma_cmdotc2_kernel_2iiP17magmaFloatComplexS0_
libmagma_sparse.so.2.8:_Z37__device_stub__magma_cmdotc3_kernel_1iiP17magmaFloatComplexS0_S0_S0_S0_S0_S0_
libmagma_sparse.so.2.8:_Z37__device_stub__magma_cmdotc3_kernel_2iiP17magmaFloatComplexS0_
libmagma_sparse.so.2.8:_Z37__device_stub__magma_cmdotc4_kernel_1iiP17magmaFloatComplexS0_S0_S0_S0_S0_S0_S0_S0_
libmagma_sparse.so.2.8:_Z37__device_stub__magma_cmdotc4_kernel_2iiP17magmaFloatComplexS0_
libmagma_sparse.so.2.8:_Z37__device_stub__magma_dblockdot_kerneliiiPdS_S_
libmagma_sparse.so.2.8:_Z37__device_stub__magma_dmatrixcup_countiPKiS0_S0_S0_Pi
libmagma_sparse.so.2.8:_Z37__device_stub__magma_dmcsrgpu_kernel1iPdPiS0_S_S0_S0_
libmagma_sparse.so.2.8:_Z37__device_stub__magma_dmcsrgpu_kernel2iPiS_
libmagma_sparse.so.2.8:_Z37__device_stub__magma_dmcsrgpu_kernel3iPdPiS0_S0_S_S0_S0_
libmagma_sparse.so.2.8:_Z37__device_stub__magma_dmdotc1_kernel_1iiPdS_S_
libmagma_sparse.so.2.8:_Z37__device_stub__magma_dmdotc1_kernel_2iiPdS_
libmagma_sparse.so.2.8:_Z37__device_stub__magma_dmdotc2_kernel_1iiPdS_S_S_S_
libmagma_sparse.so.2.8:_Z37__device_stub__magma_dmdotc2_kernel_2iiPdS_
libmagma_sparse.so.2.8:_Z37__device_stub__magma_dmdotc3_kernel_1iiPdS_S_S_S_S_S_
libmagma_sparse.so.2.8:_Z37__device_stub__magma_dmdotc3_kernel_2iiPdS_
libmagma_sparse.so.2.8:_Z37__device_stub__magma_dmdotc4_kernel_1iiPdS_S_S_S_S_S_S_S_
libmagma_sparse.so.2.8:_Z37__device_stub__magma_dmdotc4_kernel_2iiPdS_
libmagma_sparse.so.2.8:_Z37__device_stub__magma_sblockdot_kerneliiiPfS_S_
libmagma_sparse.so.2.8:_Z37__device_stub__magma_smatrixcup_countiPKiS0_S0_S0_Pi
libmagma_sparse.so.2.8:_Z37__device_stub__magma_smcsrgpu_kernel1iPfPiS0_S_S0_S0_
libmagma_sparse.so.2.8:_Z37__device_stub__magma_smcsrgpu_kernel2iPiS_
libmagma_sparse.so.2.8:_Z37__device_stub__magma_smcsrgpu_kernel3iPfPiS0_S0_S_S0_S0_
libmagma_sparse.so.2.8:_Z37__device_stub__magma_smdotc1_kernel_1iiPfS_S_
libmagma_sparse.so.2.8:_Z37__device_stub__magma_smdotc1_kernel_2iiPfS_
libmagma_sparse.so.2.8:_Z37__device_stub__magma_smdotc2_kernel_1iiPfS_S_S_S_
libmagma_sparse.so.2.8:_Z37__device_stub__magma_smdotc2_kernel_2iiPfS_
libmagma_sparse.so.2.8:_Z37__device_stub__magma_smdotc3_kernel_1iiPfS_S_S_S_S_S_
libmagma_sparse.so.2.8:_Z37__device_stub__magma_smdotc3_kernel_2iiPfS_
libmagma_sparse.so.2.8:_Z37__device_stub__magma_smdotc4_kernel_1iiPfS_S_S_S_S_S_S_S_
libmagma_sparse.so.2.8:_Z37__device_stub__magma_smdotc4_kernel_2iiPfS_
libmagma_sparse.so.2.8:_Z37__device_stub__magma_zblockdot_kerneliiiP18magmaDoubleComplexS0_S0_
libmagma_sparse.so.2.8:_Z37__device_stub__magma_zmatrixcup_countiPKiS0_S0_S0_Pi
libmagma_sparse.so.2.8:_Z37__device_stub__magma_zmcsrgpu_kernel1iP18magmaDoubleComplexPiS1_S0_S1_S1_
libmagma_sparse.so.2.8:_Z37__device_stub__magma_zmcsrgpu_kernel2iPiS_
libmagma_sparse.so.2.8:_Z37__device_stub__magma_zmcsrgpu_kernel3iP18magmaDoubleComplexPiS1_S1_S0_S1_S1_
libmagma_sparse.so.2.8:_Z37__device_stub__magma_zmdotc1_kernel_1iiP18magmaDoubleComplexS0_S0_
libmagma_sparse.so.2.8:_Z37__device_stub__magma_zmdotc1_kernel_2iiP18magmaDoubleComplexS0_
libmagma_sparse.so.2.8:_Z37__device_stub__magma_zmdotc2_kernel_1iiP18magmaDoubleComplexS0_S0_S0_S0_
libmagma_sparse.so.2.8:_Z37__device_stub__magma_zmdotc2_kernel_2iiP18magmaDoubleComplexS0_
libmagma_sparse.so.2.8:_Z37__device_stub__magma_zmdotc3_kernel_1iiP18magmaDoubleComplexS0_S0_S0_S0_S0_S0_
libmagma_sparse.so.2.8:_Z37__device_stub__magma_zmdotc3_kernel_2iiP18magmaDoubleComplexS0_
libmagma_sparse.so.2.8:_Z37__device_stub__magma_zmdotc4_kernel_1iiP18magmaDoubleComplexS0_S0_S0_S0_S0_S0_S0_S0_
libmagma_sparse.so.2.8:_Z37__device_stub__magma_zmdotc4_kernel_2iiP18magmaDoubleComplexS0_
libmagma_sparse.so.2.8:_Z37__device_stub__sgecsrreimsplit_kerneliiPiPfS0_S0_
libmagma_sparse.so.2.8:_Z37__device_stub__sgeelltmv_kernel_shiftiiiffPfPiS_fiiS0_S_
libmagma_sparse.so.2.8:_Z37__device_stub__sjacobidiagscal_kerneliiPfS_S_
libmagma_sparse.so.2.8:_Z37__device_stub__zcompute_newval_kerneliPiS_S_S_S_P17magmaFloatComplexS1_
libmagma_sparse.so.2.8:_Z37__device_stub__zcompute_newval_kerneliPiS_S_S_S_P18magmaDoubleComplexS1_
libmagma_sparse.so.2.8:_Z37__device_stub__zcompute_newval_kerneliPiS_S_S_S_PdS0_
libmagma_sparse.so.2.8:_Z37__device_stub__zcompute_newval_kerneliPiS_S_S_S_PfS0_
libmagma_sparse.so.2.8:_Z37__device_stub__zgecsrreimsplit_kerneliiPiP18magmaDoubleComplexS1_S1_
libmagma_sparse.so.2.8:_Z37__device_stub__zgeelltmv_kernel_shiftiii18magmaDoubleComplexS_PS_PiS0_S_iiS1_S0_
libmagma_sparse.so.2.8:_Z37__device_stub__zjacobidiagscal_kerneliiP18magmaDoubleComplexS0_S0_
libmagma_sparse.so.2.8:_Z37magma_ccgmerge_spmvellpackrt_kernel_8iP17magmaFloatComplexPiS1_S0_S0_S0_ii
libmagma_sparse.so.2.8:_Z37magma_dcgmerge_spmvellpackrt_kernel_8iPdPiS0_S_S_S_ii
libmagma_sparse.so.2.8:_Z37magma_scgmerge_spmvellpackrt_kernel_8iPfPiS0_S_S_S_ii
libmagma_sparse.so.2.8:_Z37magma_zcgmerge_spmvellpackrt_kernel_8iP18magmaDoubleComplexPiS1_S0_S0_S0_ii
libmagma_sparse.so.2.8:_Z38__device_stub__magma_cbajac_csr_kerneliP17magmaFloatComplexPiS1_S0_S1_S1_S0_S0_
libmagma_sparse.so.2.8:_Z38__device_stub__magma_cindexinit_kerneliPi
libmagma_sparse.so.2.8:_Z38__device_stub__magma_cparic_csr_kerneliiPiS_PK17magmaFloatComplexS_S_PS0_
libmagma_sparse.so.2.8:_Z38__device_stub__magma_cparilut_L_kerneliPKiS0_PK17magmaFloatComplexiS0_S0_S0_PS1_iS0_S0_S0_S4_
libmagma_sparse.so.2.8:_Z38__device_stub__magma_cparilut_U_kerneliPKiS0_PK17magmaFloatComplexiS0_S0_S0_PS1_iS0_S0_S0_S4_
libmagma_sparse.so.2.8:_Z38__device_stub__magma_dbajac_csr_kerneliPdPiS0_S_S0_S0_S_S_
libmagma_sparse.so.2.8:_Z38__device_stub__magma_dindexinit_kerneliPi
libmagma_sparse.so.2.8:_Z38__device_stub__magma_dparic_csr_kerneliiPiS_PKdS_S_Pd
libmagma_sparse.so.2.8:_Z38__device_stub__magma_dparilut_L_kerneliPKiS0_PKdiS0_S0_S0_PdiS0_S0_S0_S3_
libmagma_sparse.so.2.8:_Z38__device_stub__magma_dparilut_U_kerneliPKiS0_PKdiS0_S0_S0_PdiS0_S0_S0_S3_
libmagma_sparse.so.2.8:_Z38__device_stub__magma_sbajac_csr_kerneliPfPiS0_S_S0_S0_S_S_
libmagma_sparse.so.2.8:_Z38__device_stub__magma_sindexinit_kerneliPi
libmagma_sparse.so.2.8:_Z38__device_stub__magma_sparic_csr_kerneliiPiS_PKfS_S_Pf
libmagma_sparse.so.2.8:_Z38__device_stub__magma_sparilut_L_kerneliPKiS0_PKfiS0_S0_S0_PfiS0_S0_S0_S3_
libmagma_sparse.so.2.8:_Z38__device_stub__magma_sparilut_U_kerneliPKiS0_PKfiS0_S0_S0_PfiS0_S0_S0_S3_
libmagma_sparse.so.2.8:_Z38__device_stub__magma_zbajac_csr_kerneliP18magmaDoubleComplexPiS1_S0_S1_S1_S0_S0_
libmagma_sparse.so.2.8:_Z38__device_stub__magma_zindexinit_kerneliPi
libmagma_sparse.so.2.8:_Z38__device_stub__magma_zparic_csr_kerneliiPiS_PK18magmaDoubleComplexS_S_PS0_
libmagma_sparse.so.2.8:_Z38__device_stub__magma_zparilut_L_kerneliPKiS0_PK18magmaDoubleComplexiS0_S0_S0_PS1_iS0_S0_S0_S4_
libmagma_sparse.so.2.8:_Z38__device_stub__magma_zparilut_U_kerneliPKiS0_PK18magmaDoubleComplexiS0_S0_S0_PS1_iS0_S0_S0_S4_
libmagma_sparse.so.2.8:_Z38magma_cblockdot_kernel_shuffle_1dblockiiPK17magmaFloatComplexS1_PS_
libmagma_sparse.so.2.8:_Z38magma_ccgmerge_spmvellpackrt_kernel_16iP17magmaFloatComplexPiS1_S0_S0_S0_ii
libmagma_sparse.so.2.8:_Z38magma_ccgmerge_spmvellpackrt_kernel_32iP17magmaFloatComplexPiS1_S0_S0_S0_ii
libmagma_sparse.so.2.8:_Z38magma_dblockdot_kernel_shuffle_1dblockiiPKdS0_Pd
libmagma_sparse.so.2.8:_Z38magma_dcgmerge_spmvellpackrt_kernel_16iPdPiS0_S_S_S_ii
libmagma_sparse.so.2.8:_Z38magma_dcgmerge_spmvellpackrt_kernel_32iPdPiS0_S_S_S_ii
libmagma_sparse.so.2.8:_Z38magma_sblockdot_kernel_shuffle_1dblockiiPKfS0_Pf
libmagma_sparse.so.2.8:_Z38magma_scgmerge_spmvellpackrt_kernel_16iPfPiS0_S_S_S_ii
libmagma_sparse.so.2.8:_Z38magma_scgmerge_spmvellpackrt_kernel_32iPfPiS0_S_S_S_ii
libmagma_sparse.so.2.8:_Z38magma_zblockdot_kernel_shuffle_1dblockiiPK18magmaDoubleComplexS1_PS_
libmagma_sparse.so.2.8:_Z38magma_zcgmerge_spmvellpackrt_kernel_16iP18magmaDoubleComplexPiS1_S0_S0_S0_ii
libmagma_sparse.so.2.8:_Z38magma_zcgmerge_spmvellpackrt_kernel_32iP18magmaDoubleComplexPiS1_S0_S0_S0_ii
libmagma_sparse.so.2.8:_Z39__device_stub__cgedensereimsplit_kerneliiPiP17magmaFloatComplexS1_S1_
libmagma_sparse.so.2.8:_Z39__device_stub__cjacobispmvupdate_kerneliiP17magmaFloatComplexPiS1_S0_S0_S0_S0_
libmagma_sparse.so.2.8:_Z39__device_stub__dgedensereimsplit_kerneliiPiPdS0_S0_
libmagma_sparse.so.2.8:_Z39__device_stub__djacobispmvupdate_kerneliiPdPiS0_S_S_S_S_
libmagma_sparse.so.2.8:_Z39__device_stub__magma_cbicgmerge1_kerneliP17magmaFloatComplexS0_S0_S0_
libmagma_sparse.so.2.8:_Z39__device_stub__magma_cbicgmerge2_kerneliP17magmaFloatComplexS0_S0_S0_
libmagma_sparse.so.2.8:_Z39__device_stub__magma_cbicgmerge3_kerneliP17magmaFloatComplexS0_S0_S0_S0_S0_
libmagma_sparse.so.2.8:_Z39__device_stub__magma_cbicgstab_1_kernelii17magmaFloatComplexS_PS_S0_S0_
libmagma_sparse.so.2.8:_Z39__device_stub__magma_cbicgstab_2_kernelii17magmaFloatComplexPS_S0_S0_
libmagma_sparse.so.2.8:_Z39__device_stub__magma_cbicgstab_3_kernelii17magmaFloatComplexS_PS_S0_S0_S0_S0_
libmagma_sparse.so.2.8:_Z39__device_stub__magma_cbicgstab_4_kernelii17magmaFloatComplexS_PS_S0_S0_S0_S0_S0_
libmagma_sparse.so.2.8:_Z39__device_stub__magma_clobpcg_res_kerneliiPfP17magmaFloatComplexS1_S_
libmagma_sparse.so.2.8:_Z39__device_stub__magma_cmconjugate_kerneliPiP17magmaFloatComplex
libmagma_sparse.so.2.8:_Z39__device_stub__magma_cmdotc2_gpumemzeroP17magmaFloatComplexi
libmagma_sparse.so.2.8:_Z39__device_stub__magma_cmdotc3_gpumemzeroP17magmaFloatComplexi
libmagma_sparse.so.2.8:_Z39__device_stub__magma_cmdotc4_gpumemzeroP17magmaFloatComplexi
libmagma_sparse.so.2.8:_Z39__device_stub__magma_cparilu_csr_kerneliiPKiS0_PK17magmaFloatComplexS0_S0_PS1_S0_S0_S4_
libmagma_sparse.so.2.8:_Z39__device_stub__magma_dbicgmerge1_kerneliPdS_S_S_
libmagma_sparse.so.2.8:_Z39__device_stub__magma_dbicgmerge2_kerneliPdS_S_S_
libmagma_sparse.so.2.8:_Z39__device_stub__magma_dbicgmerge3_kerneliPdS_S_S_S_S_
libmagma_sparse.so.2.8:_Z39__device_stub__magma_dbicgstab_1_kerneliiddPdS_S_
libmagma_sparse.so.2.8:_Z39__device_stub__magma_dbicgstab_2_kerneliidPdS_S_
libmagma_sparse.so.2.8:_Z39__device_stub__magma_dbicgstab_3_kerneliiddPdS_S_S_S_
libmagma_sparse.so.2.8:_Z39__device_stub__magma_dbicgstab_4_kerneliiddPdS_S_S_S_S_
libmagma_sparse.so.2.8:_Z39__device_stub__magma_dlobpcg_res_kerneliiPdS_S_S_
libmagma_sparse.so.2.8:_Z39__device_stub__magma_dmconjugate_kerneliPiPd
libmagma_sparse.so.2.8:_Z39__device_stub__magma_dmdotc2_gpumemzeroPdi
libmagma_sparse.so.2.8:_Z39__device_stub__magma_dmdotc3_gpumemzeroPdi
libmagma_sparse.so.2.8:_Z39__device_stub__magma_dmdotc4_gpumemzeroPdi
libmagma_sparse.so.2.8:_Z39__device_stub__magma_dparilu_csr_kerneliiPKiS0_PKdS0_S0_PdS0_S0_S3_
libmagma_sparse.so.2.8:_Z39__device_stub__magma_sbicgmerge1_kerneliPfS_S_S_
libmagma_sparse.so.2.8:_Z39__device_stub__magma_sbicgmerge2_kerneliPfS_S_S_
libmagma_sparse.so.2.8:_Z39__device_stub__magma_sbicgmerge3_kerneliPfS_S_S_S_S_
libmagma_sparse.so.2.8:_Z39__device_stub__magma_sbicgstab_1_kerneliiffPfS_S_
libmagma_sparse.so.2.8:_Z39__device_stub__magma_sbicgstab_2_kerneliifPfS_S_
libmagma_sparse.so.2.8:_Z39__device_stub__magma_sbicgstab_3_kerneliiffPfS_S_S_S_
libmagma_sparse.so.2.8:_Z39__device_stub__magma_sbicgstab_4_kerneliiffPfS_S_S_S_S_
libmagma_sparse.so.2.8:_Z39__device_stub__magma_slobpcg_res_kerneliiPfS_S_S_
libmagma_sparse.so.2.8:_Z39__device_stub__magma_smconjugate_kerneliPiPf
libmagma_sparse.so.2.8:_Z39__device_stub__magma_smdotc2_gpumemzeroPfi
libmagma_sparse.so.2.8:_Z39__device_stub__magma_smdotc3_gpumemzeroPfi
libmagma_sparse.so.2.8:_Z39__device_stub__magma_smdotc4_gpumemzeroPfi
libmagma_sparse.so.2.8:_Z39__device_stub__magma_sparilu_csr_kerneliiPKiS0_PKfS0_S0_PfS0_S0_S3_
libmagma_sparse.so.2.8:_Z39__device_stub__magma_zbicgmerge1_kerneliP18magmaDoubleComplexS0_S0_S0_
libmagma_sparse.so.2.8:_Z39__device_stub__magma_zbicgmerge2_kerneliP18magmaDoubleComplexS0_S0_S0_
libmagma_sparse.so.2.8:_Z39__device_stub__magma_zbicgmerge3_kerneliP18magmaDoubleComplexS0_S0_S0_S0_S0_
libmagma_sparse.so.2.8:_Z39__device_stub__magma_zbicgstab_1_kernelii18magmaDoubleComplexS_PS_S0_S0_
libmagma_sparse.so.2.8:_Z39__device_stub__magma_zbicgstab_2_kernelii18magmaDoubleComplexPS_S0_S0_
libmagma_sparse.so.2.8:_Z39__device_stub__magma_zbicgstab_3_kernelii18magmaDoubleComplexS_PS_S0_S0_S0_S0_
libmagma_sparse.so.2.8:_Z39__device_stub__magma_zbicgstab_4_kernelii18magmaDoubleComplexS_PS_S0_S0_S0_S0_S0_
libmagma_sparse.so.2.8:_Z39__device_stub__magma_zlobpcg_res_kerneliiPdP18magmaDoubleComplexS1_S_
libmagma_sparse.so.2.8:_Z39__device_stub__magma_zmconjugate_kerneliPiP18magmaDoubleComplex
libmagma_sparse.so.2.8:_Z39__device_stub__magma_zmdotc2_gpumemzeroP18magmaDoubleComplexi
libmagma_sparse.so.2.8:_Z39__device_stub__magma_zmdotc3_gpumemzeroP18magmaDoubleComplexi
libmagma_sparse.so.2.8:_Z39__device_stub__magma_zmdotc4_gpumemzeroP18magmaDoubleComplexi
libmagma_sparse.so.2.8:_Z39__device_stub__magma_zparilu_csr_kerneliiPKiS0_PK18magmaDoubleComplexS0_S0_PS1_S0_S0_S4_
libmagma_sparse.so.2.8:_Z39__device_stub__sgedensereimsplit_kerneliiPiPfS0_S0_
libmagma_sparse.so.2.8:_Z39__device_stub__sjacobispmvupdate_kerneliiPfPiS0_S_S_S_S_
libmagma_sparse.so.2.8:_Z39__device_stub__sptrsm_syncfree_executorPiS_P17magmaFloatComplexS_iiiiS1_S1_
libmagma_sparse.so.2.8:_Z39__device_stub__sptrsm_syncfree_executorPiS_P18magmaDoubleComplexS_iiiiS1_S1_
libmagma_sparse.so.2.8:_Z39__device_stub__sptrsm_syncfree_executorPiS_PdS_iiiiS0_S0_
libmagma_sparse.so.2.8:_Z39__device_stub__sptrsm_syncfree_executorPiS_PfS_iiiiS0_S0_
libmagma_sparse.so.2.8:_Z39__device_stub__sptrsv_syncfree_analyserPiP17magmaFloatComplexiiS_
libmagma_sparse.so.2.8:_Z39__device_stub__sptrsv_syncfree_analyserPiP18magmaDoubleComplexiiS_
libmagma_sparse.so.2.8:_Z39__device_stub__sptrsv_syncfree_analyserPiPdiiS_
libmagma_sparse.so.2.8:_Z39__device_stub__sptrsv_syncfree_analyserPiPfiiS_
libmagma_sparse.so.2.8:_Z39__device_stub__zgedensereimsplit_kerneliiPiP18magmaDoubleComplexS1_S1_
libmagma_sparse.so.2.8:_Z39__device_stub__zjacobispmvupdate_kerneliiP18magmaDoubleComplexPiS1_S0_S0_S0_S0_
libmagma_sparse.so.2.8:_Z40__device_stub__magma_cblockreduce_kerneliiiP17magmaFloatComplexS0_
libmagma_sparse.so.2.8:_Z40__device_stub__magma_ccg_alphabetakernelP17magmaFloatComplex
libmagma_sparse.so.2.8:_Z40__device_stub__magma_cget_row_ptr_kerneliPiPKiS_
libmagma_sparse.so.2.8:_Z40__device_stub__magma_creduce_kernel_fastiiP17magmaFloatComplexS0_
libmagma_sparse.so.2.8:_Z40__device_stub__magma_dblockreduce_kerneliiiPdS_
libmagma_sparse.so.2.8:_Z40__device_stub__magma_dcg_alphabetakernelPd
libmagma_sparse.so.2.8:_Z40__device_stub__magma_dget_row_ptr_kerneliPiPKiS_
libmagma_sparse.so.2.8:_Z40__device_stub__magma_dmddot_one_kernel_1iPdS_S_
libmagma_sparse.so.2.8:_Z40__device_stub__magma_dreduce_kernel_fastiiPdS_
libmagma_sparse.so.2.8:_Z40__device_stub__magma_sblockreduce_kerneliiiPfS_
libmagma_sparse.so.2.8:_Z40__device_stub__magma_scg_alphabetakernelPf
libmagma_sparse.so.2.8:_Z40__device_stub__magma_sget_row_ptr_kerneliPiPKiS_
libmagma_sparse.so.2.8:_Z40__device_stub__magma_smsdot_one_kernel_1iPfS_S_
libmagma_sparse.so.2.8:_Z40__device_stub__magma_sreduce_kernel_fastiiPfS_
libmagma_sparse.so.2.8:_Z40__device_stub__magma_zblockreduce_kerneliiiP18magmaDoubleComplexS0_
libmagma_sparse.so.2.8:_Z40__device_stub__magma_zcg_alphabetakernelP18magmaDoubleComplex
libmagma_sparse.so.2.8:_Z40__device_stub__magma_zget_row_ptr_kerneliPiPKiS_
libmagma_sparse.so.2.8:_Z40__device_stub__magma_zreduce_kernel_fastiiP18magmaDoubleComplexS0_
libmagma_sparse.so.2.8:_Z41__device_stub__magma_cbajac_csr_ls_kerneliiP17magmaFloatComplexPiS1_S0_S1_S1_PKS_S0_
libmagma_sparse.so.2.8:_Z41__device_stub__magma_cbicgmerge4_kernel_1P17magmaFloatComplex
libmagma_sparse.so.2.8:_Z41__device_stub__magma_cbicgmerge4_kernel_2P17magmaFloatComplex
libmagma_sparse.so.2.8:_Z41__device_stub__magma_cbicgmerge4_kernel_3P17magmaFloatComplex
libmagma_sparse.so.2.8:_Z41__device_stub__magma_cbicgstab_betakernelP17magmaFloatComplex
libmagma_sparse.so.2.8:_Z41__device_stub__magma_clobpcg_maxpy_kerneliiP17magmaFloatComplexS0_
libmagma_sparse.so.2.8:_Z41__device_stub__magma_clobpcg_shift_kerneliiiP17magmaFloatComplex
libmagma_sparse.so.2.8:_Z41__device_stub__magma_cmcdotc_one_kernel_1iP17magmaFloatComplexS0_S0_
libmagma_sparse.so.2.8:_Z41__device_stub__magma_cpipelined_copyscaleiiP17magmaFloatComplexS0_S0_
libmagma_sparse.so.2.8:_Z41__device_stub__magma_creduce_kernel_spmv1iiP17magmaFloatComplexS0_
libmagma_sparse.so.2.8:_Z41__device_stub__magma_creduce_kernel_spmv2iiP17magmaFloatComplexS0_
libmagma_sparse.so.2.8:_Z41__device_stub__magma_dbajac_csr_ls_kerneliiPdPiS0_S_S0_S0_PKdS_
libmagma_sparse.so.2.8:_Z41__device_stub__magma_dbicgmerge4_kernel_1Pd
libmagma_sparse.so.2.8:_Z41__device_stub__magma_dbicgmerge4_kernel_2Pd
libmagma_sparse.so.2.8:_Z41__device_stub__magma_dbicgmerge4_kernel_3Pd
libmagma_sparse.so.2.8:_Z41__device_stub__magma_dbicgstab_betakernelPd
libmagma_sparse.so.2.8:_Z41__device_stub__magma_dlobpcg_maxpy_kerneliiPdS_
libmagma_sparse.so.2.8:_Z41__device_stub__magma_dlobpcg_shift_kerneliiiPd
libmagma_sparse.so.2.8:_Z41__device_stub__magma_dpipelined_copyscaleiiPdS_S_
libmagma_sparse.so.2.8:_Z41__device_stub__magma_dreduce_kernel_spmv1iiPdS_
libmagma_sparse.so.2.8:_Z41__device_stub__magma_dreduce_kernel_spmv2iiPdS_
libmagma_sparse.so.2.8:_Z41__device_stub__magma_sbajac_csr_ls_kerneliiPfPiS0_S_S0_S0_PKfS_
libmagma_sparse.so.2.8:_Z41__device_stub__magma_sbicgmerge4_kernel_1Pf
libmagma_sparse.so.2.8:_Z41__device_stub__magma_sbicgmerge4_kernel_2Pf
libmagma_sparse.so.2.8:_Z41__device_stub__magma_sbicgmerge4_kernel_3Pf
libmagma_sparse.so.2.8:_Z41__device_stub__magma_sbicgstab_betakernelPf
libmagma_sparse.so.2.8:_Z41__device_stub__magma_slobpcg_maxpy_kerneliiPfS_
libmagma_sparse.so.2.8:_Z41__device_stub__magma_slobpcg_shift_kerneliiiPf
libmagma_sparse.so.2.8:_Z41__device_stub__magma_spipelined_copyscaleiiPfS_S_
libmagma_sparse.so.2.8:_Z41__device_stub__magma_sreduce_kernel_spmv1iiPfS_
libmagma_sparse.so.2.8:_Z41__device_stub__magma_sreduce_kernel_spmv2iiPfS_
libmagma_sparse.so.2.8:_Z41__device_stub__magma_zbajac_csr_ls_kerneliiP18magmaDoubleComplexPiS1_S0_S1_S1_PKS_S0_
libmagma_sparse.so.2.8:_Z41__device_stub__magma_zbicgmerge4_kernel_1P18magmaDoubleComplex
libmagma_sparse.so.2.8:_Z41__device_stub__magma_zbicgmerge4_kernel_2P18magmaDoubleComplex
libmagma_sparse.so.2.8:_Z41__device_stub__magma_zbicgmerge4_kernel_3P18magmaDoubleComplex
libmagma_sparse.so.2.8:_Z41__device_stub__magma_zbicgstab_betakernelP18magmaDoubleComplex
libmagma_sparse.so.2.8:_Z41__device_stub__magma_zlobpcg_maxpy_kerneliiP18magmaDoubleComplexS0_
libmagma_sparse.so.2.8:_Z41__device_stub__magma_zlobpcg_shift_kerneliiiP18magmaDoubleComplex
libmagma_sparse.so.2.8:_Z41__device_stub__magma_zmzdotc_one_kernel_1iP18magmaDoubleComplexS0_S0_
libmagma_sparse.so.2.8:_Z41__device_stub__magma_zpipelined_copyscaleiiP18magmaDoubleComplexS0_S0_
libmagma_sparse.so.2.8:_Z41__device_stub__magma_zreduce_kernel_spmv1iiP18magmaDoubleComplexS0_
libmagma_sparse.so.2.8:_Z41__device_stub__magma_zreduce_kernel_spmv2iiP18magmaDoubleComplexS0_
libmagma_sparse.so.2.8:_Z42__device_stub__cftjacobiupdatecheck_kernelifP17magmaFloatComplexS0_S0_S0_PiS1_
libmagma_sparse.so.2.8:_Z42__device_stub__cjacobispmvupdate_bw_kerneliiP17magmaFloatComplexPiS1_S0_S0_S0_S0_
libmagma_sparse.so.2.8:_Z42__device_stub__cparilut_candidates_count_1iPKiS0_S0_S0_S0_S0_S0_S0_PiS1_
libmagma_sparse.so.2.8:_Z42__device_stub__cparilut_candidates_count_2iPKiS0_S0_S0_S0_S0_S0_S0_PiS1_
libmagma_sparse.so.2.8:_Z42__device_stub__dftjacobiupdatecheck_kernelidPdS_S_S_PiS0_
libmagma_sparse.so.2.8:_Z42__device_stub__djacobispmvupdate_bw_kerneliiPdPiS0_S_S_S_S_
libmagma_sparse.so.2.8:_Z42__device_stub__dparilut_candidates_count_1iPKiS0_S0_S0_S0_S0_S0_S0_PiS1_
libmagma_sparse.so.2.8:_Z42__device_stub__dparilut_candidates_count_2iPKiS0_S0_S0_S0_S0_S0_S0_PiS1_
libmagma_sparse.so.2.8:_Z42__device_stub__dsgecsrmv_mixed_prec_kerneliidPdPfPiS1_S_dS_
libmagma_sparse.so.2.8:_Z42__device_stub__magma_cbicgstab_alphakernelP17magmaFloatComplex
libmagma_sparse.so.2.8:_Z42__device_stub__magma_cbicgstab_omegakernelP17magmaFloatComplex
libmagma_sparse.so.2.8:_Z42__device_stub__magma_cpipelined_correctioniiP17magmaFloatComplexS0_S0_
libmagma_sparse.so.2.8:_Z42__device_stub__magma_cselect_insert_kerneliiPiS_P17magmaFloatComplexS_S_S1_S_S_
libmagma_sparse.so.2.8:_Z42__device_stub__magma_cselect_rowptr_kerneliPiS_
libmagma_sparse.so.2.8:_Z42__device_stub__magma_dbicgstab_alphakernelPd
libmagma_sparse.so.2.8:_Z42__device_stub__magma_dbicgstab_omegakernelPd
libmagma_sparse.so.2.8:_Z42__device_stub__magma_dpipelined_correctioniiPdS_S_
libmagma_sparse.so.2.8:_Z42__device_stub__magma_dselect_insert_kerneliiPiS_PdS_S_S0_S_S_
libmagma_sparse.so.2.8:_Z42__device_stub__magma_dselect_rowptr_kerneliPiS_
libmagma_sparse.so.2.8:_Z42__device_stub__magma_sbicgstab_alphakernelPf
libmagma_sparse.so.2.8:_Z42__device_stub__magma_sbicgstab_omegakernelPf
libmagma_sparse.so.2.8:_Z42__device_stub__magma_spipelined_correctioniiPfS_S_
libmagma_sparse.so.2.8:_Z42__device_stub__magma_sselect_insert_kerneliiPiS_PfS_S_S0_S_S_
libmagma_sparse.so.2.8:_Z42__device_stub__magma_sselect_rowptr_kerneliPiS_
libmagma_sparse.so.2.8:_Z42__device_stub__magma_zbicgstab_alphakernelP18magmaDoubleComplex
libmagma_sparse.so.2.8:_Z42__device_stub__magma_zbicgstab_omegakernelP18magmaDoubleComplex
libmagma_sparse.so.2.8:_Z42__device_stub__magma_zpipelined_correctioniiP18magmaDoubleComplexS0_S0_
libmagma_sparse.so.2.8:_Z42__device_stub__magma_zselect_insert_kerneliiPiS_P18magmaDoubleComplexS_S_S1_S_S_
libmagma_sparse.so.2.8:_Z42__device_stub__magma_zselect_rowptr_kerneliPiS_
libmagma_sparse.so.2.8:_Z42__device_stub__sftjacobiupdatecheck_kernelifPfS_S_S_PiS0_
libmagma_sparse.so.2.8:_Z42__device_stub__sjacobispmvupdate_bw_kerneliiPfPiS0_S_S_S_S_
libmagma_sparse.so.2.8:_Z42__device_stub__sparilut_candidates_count_1iPKiS0_S0_S0_S0_S0_S0_S0_PiS1_
libmagma_sparse.so.2.8:_Z42__device_stub__sparilut_candidates_count_2iPKiS0_S0_S0_S0_S0_S0_S0_PiS1_
libmagma_sparse.so.2.8:_Z42__device_stub__zcgecsrmv_mixed_prec_kernelii18magmaDoubleComplexPS_P17magmaFloatComplexPiS3_S0_S_S0_
libmagma_sparse.so.2.8:_Z42__device_stub__zftjacobiupdatecheck_kernelidP18magmaDoubleComplexS0_S0_S0_PiS1_
libmagma_sparse.so.2.8:_Z42__device_stub__zjacobispmvupdate_bw_kerneliiP18magmaDoubleComplexPiS1_S0_S0_S0_S0_
libmagma_sparse.so.2.8:_Z42__device_stub__zparilut_candidates_count_1iPKiS0_S0_S0_S0_S0_S0_S0_PiS1_
libmagma_sparse.so.2.8:_Z42__device_stub__zparilut_candidates_count_2iPKiS0_S0_S0_S0_S0_S0_S0_PiS1_
libmagma_sparse.so.2.8:_Z43__device_stub__cftjacobicontractions_kerneliP17magmaFloatComplexS0_S0_S0_S0_
libmagma_sparse.so.2.8:_Z43__device_stub__cparilut_candidates_insert_1iPKiS0_S0_S0_S0_S0_S0_S0_PiS1_S1_P17magmaFloatComplexS1_S1_S1_S1_S3_S1_
libmagma_sparse.so.2.8:_Z43__device_stub__cparilut_candidates_insert_2iPKiS0_S0_S0_S0_S0_S0_S0_PiS1_S1_P17magmaFloatComplexS1_S1_S1_S1_S3_S1_
libmagma_sparse.so.2.8:_Z43__device_stub__dftjacobicontractions_kerneliPdS_S_S_S_
libmagma_sparse.so.2.8:_Z43__device_stub__dparilut_candidates_insert_1iPKiS0_S0_S0_S0_S0_S0_S0_PiS1_S1_PdS1_S1_S1_S1_S2_S1_
libmagma_sparse.so.2.8:_Z43__device_stub__dparilut_candidates_insert_2iPKiS0_S0_S0_S0_S0_S0_S0_PiS1_S1_PdS1_S1_S1_S1_S2_S1_
libmagma_sparse.so.2.8:_Z43__device_stub__magma_ccgmerge_xrbeta_kerneliP17magmaFloatComplexS0_S0_S0_S0_S0_
libmagma_sparse.so.2.8:_Z43__device_stub__magma_ccgreduce_kernel_spmv1iiP17magmaFloatComplexS0_
libmagma_sparse.so.2.8:_Z43__device_stub__magma_ccgreduce_kernel_spmv2iiP17magmaFloatComplexS0_
libmagma_sparse.so.2.8:_Z43__device_stub__magma_cjaccardweights_kerneliiiPiS_P17magmaFloatComplexS_S_S1_
libmagma_sparse.so.2.8:_Z43__device_stub__magma_cselect_pattern_kerneliiPiS_S_
libmagma_sparse.so.2.8:_Z43__device_stub__magma_dcgmerge_xrbeta_kerneliPdS_S_S_S_S_
libmagma_sparse.so.2.8:_Z43__device_stub__magma_dcgreduce_kernel_spmv1iiPdS_
libmagma_sparse.so.2.8:_Z43__device_stub__magma_dcgreduce_kernel_spmv2iiPdS_
libmagma_sparse.so.2.8:_Z43__device_stub__magma_djaccardweights_kerneliiiPiS_PdS_S_S0_
libmagma_sparse.so.2.8:_Z43__device_stub__magma_dpipelineddnrm2_kerneliPdiS_
libmagma_sparse.so.2.8:_Z43__device_stub__magma_dselect_pattern_kerneliiPiS_S_
libmagma_sparse.so.2.8:_Z43__device_stub__magma_scgmerge_xrbeta_kerneliPfS_S_S_S_S_
libmagma_sparse.so.2.8:_Z43__device_stub__magma_scgreduce_kernel_spmv1iiPfS_
libmagma_sparse.so.2.8:_Z43__device_stub__magma_scgreduce_kernel_spmv2iiPfS_
libmagma_sparse.so.2.8:_Z43__device_stub__magma_sjaccardweights_kerneliiiPiS_PfS_S_S0_
libmagma_sparse.so.2.8:_Z43__device_stub__magma_spipelinedsnrm2_kerneliPfiS_
libmagma_sparse.so.2.8:_Z43__device_stub__magma_sselect_pattern_kerneliiPiS_S_
libmagma_sparse.so.2.8:_Z43__device_stub__magma_zcgmerge_xrbeta_kerneliP18magmaDoubleComplexS0_S0_S0_S0_S0_
libmagma_sparse.so.2.8:_Z43__device_stub__magma_zcgreduce_kernel_spmv1iiP18magmaDoubleComplexS0_
libmagma_sparse.so.2.8:_Z43__device_stub__magma_zcgreduce_kernel_spmv2iiP18magmaDoubleComplexS0_
libmagma_sparse.so.2.8:_Z43__device_stub__magma_zjaccardweights_kerneliiiPiS_P18magmaDoubleComplexS_S_S1_
libmagma_sparse.so.2.8:_Z43__device_stub__magma_zselect_pattern_kerneliiPiS_S_
libmagma_sparse.so.2.8:_Z43__device_stub__sftjacobicontractions_kerneliPfS_S_S_S_
libmagma_sparse.so.2.8:_Z43__device_stub__sparilut_candidates_insert_1iPKiS0_S0_S0_S0_S0_S0_S0_PiS1_S1_PfS1_S1_S1_S1_S2_S1_
libmagma_sparse.so.2.8:_Z43__device_stub__sparilut_candidates_insert_2iPKiS0_S0_S0_S0_S0_S0_S0_PiS1_S1_PfS1_S1_S1_S1_S2_S1_
libmagma_sparse.so.2.8:_Z43__device_stub__zftjacobicontractions_kerneliP18magmaDoubleComplexS0_S0_S0_S0_
libmagma_sparse.so.2.8:_Z43__device_stub__zparilut_candidates_insert_1iPKiS0_S0_S0_S0_S0_S0_S0_PiS1_S1_P18magmaDoubleComplexS1_S1_S1_S1_S3_S1_
libmagma_sparse.so.2.8:_Z43__device_stub__zparilut_candidates_insert_2iPKiS0_S0_S0_S0_S0_S0_S0_PiS1_S1_P18magmaDoubleComplexS1_S1_S1_S1_S3_S1_
libmagma_sparse.so.2.8:_Z44__device_stub__magma_cbajac_csr_o_ls_kernel1iiiiP17magmaFloatComplexPiS1_S0_S1_S1_PKS_S0_
libmagma_sparse.so.2.8:_Z44__device_stub__magma_cbajac_csr_o_ls_kernel2iiiiP17magmaFloatComplexPiS1_S0_S1_S1_S0_S1_S1_S0_S1_S1_PKS_S0_
libmagma_sparse.so.2.8:_Z44__device_stub__magma_cbajac_csr_o_ls_kernel4iiiiP17magmaFloatComplexPiS1_S0_S1_S1_S0_S1_S1_S0_S1_S1_S0_S1_S1_S0_S1_S1_S0_S1_S1_S0_S1_S1_PKS_S0_
libmagma_sparse.so.2.8:_Z44__device_stub__magma_cbajac_csr_o_ls_kernel8iiiiP17magmaFloatComplexPiS1_S0_S1_S1_S0_S1_S1_S0_S1_S1_S0_S1_S1_S0_S1_S1_S0_S1_S1_S0_S1_S1_S0_S1_S1_S0_S1_S1_S0_S1_S1_S0_S1_S1_S0_S1_S1_S0_S1_S1_S0_S1_S1_S0_S1_S1_PKS_S0_
libmagma_sparse.so.2.8:_Z44__device_stub__magma_cbicgmerge_spmv1_kerneliP17magmaFloatComplexPiS1_S0_S0_S0_S0_
libmagma_sparse.so.2.8:_Z44__device_stub__magma_cbicgmerge_spmv2_kerneliP17magmaFloatComplexPiS1_S0_S0_S0_
libmagma_sparse.so.2.8:_Z44__device_stub__magma_ccgmerge_spmvcsr_kerneliP17magmaFloatComplexPiS1_S0_S0_S0_
libmagma_sparse.so.2.8:_Z44__device_stub__magma_ccgmerge_spmvell_kerneliiP17magmaFloatComplexPiS0_S0_S0_
libmagma_sparse.so.2.8:_Z44__device_stub__magma_cidr_smoothing_1_kerneliiP17magmaFloatComplexS0_S0_
libmagma_sparse.so.2.8:_Z44__device_stub__magma_cidr_smoothing_2_kernelii17magmaFloatComplexPS_S0_
libmagma_sparse.so.2.8:_Z44__device_stub__magma_cjcgmerge_xrbeta_kerneliP17magmaFloatComplexS0_S0_S0_S0_S0_S0_S0_
libmagma_sparse.so.2.8:_Z44__device_stub__magma_cpcgmerge_xrbeta_kerneliP17magmaFloatComplexS0_S0_S0_S0_
libmagma_sparse.so.2.8:_Z44__device_stub__magma_cpipelinedscnrm2_kerneliP17magmaFloatComplexiS0_
libmagma_sparse.so.2.8:_Z44__device_stub__magma_dbajac_csr_o_ls_kernel1iiiiPdPiS0_S_S0_S0_PKdS_
libmagma_sparse.so.2.8:_Z44__device_stub__magma_dbajac_csr_o_ls_kernel2iiiiPdPiS0_S_S0_S0_S_S0_S0_S_S0_S0_PKdS_
libmagma_sparse.so.2.8:_Z44__device_stub__magma_dbajac_csr_o_ls_kernel4iiiiPdPiS0_S_S0_S0_S_S0_S0_S_S0_S0_S_S0_S0_S_S0_S0_S_S0_S0_S_S0_S0_PKdS_
libmagma_sparse.so.2.8:_Z44__device_stub__magma_dbajac_csr_o_ls_kernel8iiiiPdPiS0_S_S0_S0_S_S0_S0_S_S0_S0_S_S0_S0_S_S0_S0_S_S0_S0_S_S0_S0_S_S0_S0_S_S0_S0_S_S0_S0_S_S0_S0_S_S0_S0_S_S0_S0_S_S0_S0_S_S0_S0_PKdS_
libmagma_sparse.so.2.8:_Z44__device_stub__magma_dbicgmerge_spmv1_kerneliPdPiS0_S_S_S_S_
libmagma_sparse.so.2.8:_Z44__device_stub__magma_dbicgmerge_spmv2_kerneliPdPiS0_S_S_S_
libmagma_sparse.so.2.8:_Z44__device_stub__magma_dcgmerge_spmvcsr_kerneliPdPiS0_S_S_S_
libmagma_sparse.so.2.8:_Z44__device_stub__magma_dcgmerge_spmvell_kerneliiPdPiS_S_S_
libmagma_sparse.so.2.8:_Z44__device_stub__magma_didr_smoothing_1_kerneliiPdS_S_
libmagma_sparse.so.2.8:_Z44__device_stub__magma_didr_smoothing_2_kerneliidPdS_
libmagma_sparse.so.2.8:_Z44__device_stub__magma_djcgmerge_xrbeta_kerneliPdS_S_S_S_S_S_S_
libmagma_sparse.so.2.8:_Z44__device_stub__magma_dpcgmerge_xrbeta_kerneliPdS_S_S_S_
libmagma_sparse.so.2.8:_Z44__device_stub__magma_sbajac_csr_o_ls_kernel1iiiiPfPiS0_S_S0_S0_PKfS_
libmagma_sparse.so.2.8:_Z44__device_stub__magma_sbajac_csr_o_ls_kernel2iiiiPfPiS0_S_S0_S0_S_S0_S0_S_S0_S0_PKfS_
libmagma_sparse.so.2.8:_Z44__device_stub__magma_sbajac_csr_o_ls_kernel4iiiiPfPiS0_S_S0_S0_S_S0_S0_S_S0_S0_S_S0_S0_S_S0_S0_S_S0_S0_S_S0_S0_PKfS_
libmagma_sparse.so.2.8:_Z44__device_stub__magma_sbajac_csr_o_ls_kernel8iiiiPfPiS0_S_S0_S0_S_S0_S0_S_S0_S0_S_S0_S0_S_S0_S0_S_S0_S0_S_S0_S0_S_S0_S0_S_S0_S0_S_S0_S0_S_S0_S0_S_S0_S0_S_S0_S0_S_S0_S0_S_S0_S0_PKfS_
libmagma_sparse.so.2.8:_Z44__device_stub__magma_sbicgmerge_spmv1_kerneliPfPiS0_S_S_S_S_
libmagma_sparse.so.2.8:_Z44__device_stub__magma_sbicgmerge_spmv2_kerneliPfPiS0_S_S_S_
libmagma_sparse.so.2.8:_Z44__device_stub__magma_scgmerge_spmvcsr_kerneliPfPiS0_S_S_S_
libmagma_sparse.so.2.8:_Z44__device_stub__magma_scgmerge_spmvell_kerneliiPfPiS_S_S_
libmagma_sparse.so.2.8:_Z44__device_stub__magma_sidr_smoothing_1_kerneliiPfS_S_
libmagma_sparse.so.2.8:_Z44__device_stub__magma_sidr_smoothing_2_kerneliifPfS_
libmagma_sparse.so.2.8:_Z44__device_stub__magma_sjcgmerge_xrbeta_kerneliPfS_S_S_S_S_S_S_
libmagma_sparse.so.2.8:_Z44__device_stub__magma_spcgmerge_xrbeta_kerneliPfS_S_S_S_
libmagma_sparse.so.2.8:_Z44__device_stub__magma_zbajac_csr_o_ls_kernel1iiiiP18magmaDoubleComplexPiS1_S0_S1_S1_PKS_S0_
libmagma_sparse.so.2.8:_Z44__device_stub__magma_zbajac_csr_o_ls_kernel2iiiiP18magmaDoubleComplexPiS1_S0_S1_S1_S0_S1_S1_S0_S1_S1_PKS_S0_
libmagma_sparse.so.2.8:_Z44__device_stub__magma_zbajac_csr_o_ls_kernel4iiiiP18magmaDoubleComplexPiS1_S0_S1_S1_S0_S1_S1_S0_S1_S1_S0_S1_S1_S0_S1_S1_S0_S1_S1_S0_S1_S1_PKS_S0_
libmagma_sparse.so.2.8:_Z44__device_stub__magma_zbajac_csr_o_ls_kernel8iiiiP18magmaDoubleComplexPiS1_S0_S1_S1_S0_S1_S1_S0_S1_S1_S0_S1_S1_S0_S1_S1_S0_S1_S1_S0_S1_S1_S0_S1_S1_S0_S1_S1_S0_S1_S1_S0_S1_S1_S0_S1_S1_S0_S1_S1_S0_S1_S1_S0_S1_S1_PKS_S0_
libmagma_sparse.so.2.8:_Z44__device_stub__magma_zbicgmerge_spmv1_kerneliP18magmaDoubleComplexPiS1_S0_S0_S0_S0_
libmagma_sparse.so.2.8:_Z44__device_stub__magma_zbicgmerge_spmv2_kerneliP18magmaDoubleComplexPiS1_S0_S0_S0_
libmagma_sparse.so.2.8:_Z44__device_stub__magma_zcgmerge_spmvcsr_kerneliP18magmaDoubleComplexPiS1_S0_S0_S0_
libmagma_sparse.so.2.8:_Z44__device_stub__magma_zcgmerge_spmvell_kerneliiP18magmaDoubleComplexPiS0_S0_S0_
libmagma_sparse.so.2.8:_Z44__device_stub__magma_zidr_smoothing_1_kerneliiP18magmaDoubleComplexS0_S0_
libmagma_sparse.so.2.8:_Z44__device_stub__magma_zidr_smoothing_2_kernelii18magmaDoubleComplexPS_S0_
libmagma_sparse.so.2.8:_Z44__device_stub__magma_zjcgmerge_xrbeta_kerneliP18magmaDoubleComplexS0_S0_S0_S0_S0_S0_S0_
libmagma_sparse.so.2.8:_Z44__device_stub__magma_zpcgmerge_xrbeta_kerneliP18magmaDoubleComplexS0_S0_S0_S0_
libmagma_sparse.so.2.8:_Z44__device_stub__magma_zpipelineddznrm2_kerneliP18magmaDoubleComplexiS0_
libmagma_sparse.so.2.8:_Z45__device_stub__cjacobispmvupdateselect_kerneliiiPiP17magmaFloatComplexS_S_S1_S1_S1_S1_S1_
libmagma_sparse.so.2.8:_Z45__device_stub__djacobispmvupdateselect_kerneliiiPiPdS_S_S0_S0_S0_S0_S0_
libmagma_sparse.so.2.8:_Z45__device_stub__magma_cbajac_csr_o_ls_kernel16iiiiP17magmaFloatComplexPiS1_S0_S1_S1_S0_S1_S1_S0_S1_S1_S0_S1_S1_S0_S1_S1_S0_S1_S1_S0_S1_S1_S0_S1_S1_S0_S1_S1_S0_S1_S1_S0_S1_S1_S0_S1_S1_S0_S1_S1_S0_S1_S1_S0_S1_S1_S0_S1_S1_S0_S1_S1_S0_S1_S1_S0_S1_S1_S0_S1_S1_S0_S1_S1_S0_S1_S1_S0_S1_S1_S0_S1_S1_S0_S1_S1_S0_S1_S1_S0_S1_S1_S0_S1_S1_S0_S1_S1_S0_S1_S1_S0_S1_S1_PKS_S0_
libmagma_sparse.so.2.8:_Z45__device_stub__magma_cbajac_csr_o_ls_kernel32iiiiP17magmaFloatComplexPiS1_S0_S1_S1_S0_S1_S1_S0_S1_S1_S0_S1_S1_S0_S1_S1_S0_S1_S1_S0_S1_S1_S0_S1_S1_S0_S1_S1_S0_S1_S1_S0_S1_S1_S0_S1_S1_S0_S1_S1_S0_S1_S1_S0_S1_S1_S0_S1_S1_S0_S1_S1_S0_S1_S1_S0_S1_S1_S0_S1_S1_S0_S1_S1_S0_S1_S1_S0_S1_S1_S0_S1_S1_S0_S1_S1_S0_S1_S1_S0_S1_S1_S0_S1_S1_S0_S1_S1_S0_S1_S1_S0_S1_S1_S0_S1_S1_S0_S1_S1_S0_S1_S1_S0_S1_S1_S0_S1_S1_S0_S1_S1_S0_S1_S1_S0_S1_S1_S0_S1_S1_S0_S1_S1_S0_S1_S1_S0_S1_S1_S0_S1_S1_S0_S1_S1_S0_S1_S1_S0_S1_S1_S0_S1_S1_S0_S1_S1_S0_S1_S1_S0_S1_S1_S0_S1_S1_S0_S1_S1_S0_S1_S1_S0_S1_S1_S0_S1_S1_S0_S1_S1_S0_S1_S1_S0_S1_S1_S0_S1_S1_S0_S1_S1_S0_S1_S1_S0_S1_S1_PKS_S0_
libmagma_sparse.so.2.8:_Z45__device_stub__magma_cbajac_csr_o_ls_kernel64iiiiP17magmaFloatComplexPiS1_S0_S1_S1_S0_S1_S1_S0_S1_S1_S0_S1_S1_S0_S1_S1_S0_S1_S1_S0_S1_S1_S0_S1_S1_S0_S1_S1_S0_S1_S1_S0_S1_S1_S0_S1_S1_S0_S1_S1_S0_S1_S1_S0_S1_S1_S0_S1_S1_S0_S1_S1_S0_S1_S1_S0_S1_S1_S0_S1_S1_S0_S1_S1_S0_S1_S1_S0_S1_S1_S0_S1_S1_S0_S1_S1_S0_S1_S1_S0_S1_S1_S0_S1_S1_S0_S1_S1_S0_S1_S1_S0_S1_S1_S0_S1_S1_S0_S1_S1_S0_S1_S1_S0_S1_S1_S0_S1_S1_S0_S1_S1_S0_S1_S1_S0_S1_S1_S0_S1_S1_S0_S1_S1_S0_S1_S1_S0_S1_S1_S0_S1_S1_S0_S1_S1_S0_S1_S1_S0_S1_S1_S0_S1_S1_S0_S1_S1_S0_S1_S1_S0_S1_S1_S0_S1_S1_S0_S1_S1_S0_S1_S1_S0_S1_S1_S0_S1_S1_S0_S1_S1_S0_S1_S1_S0_S1_S1_S0_S1_S1_S0_S1_S1_S0_S1_S1_S0_S1_S1_S0_S1_S1_S0_S1_S1_S0_S1_S1_S0_S1_S1_S0_S1_S1_S0_S1_S1_S0_S1_S1_S0_S1_S1_S0_S1_S1_S0_S1_S1_S0_S1_S1_S0_S1_S1_S0_S1_S1_S0_S1_S1_S0_S1_S1_S0_S1_S1_S0_S1_S1_S0_S1_S1_S0_S1_S1_S0_S1_S1_S0_S1_S1_S0_S1_S1_S0_S1_S1_S0_S1_S1_S0_S1_S1_S0_S1_S1_S0_S1_S1_S0_S1_S1_S0_S1_S1_S0_S1_S1_S0_S1_S1_S0_S1_S1_S0_S1_S1_S0_S1_S1_S0_S1_S1_S0_S1_S1_S0_S1_S1_S0_S1_S1_S0_S1_S1_S0_S1_S1_S0_S1_S1_S0_S1_S1_S0_S1_S1_S0_S1_S1_S0_S1_S1_S0_S1_S1_S0_S1_S1_S0_S1_S1_S0_S1_S1_S0_S1_S1_S0_S1_S1_S0_S1_S1_S0_S1_S1_S0_S1_S1_S0_S1_S1_S0_S1_S1_S0_S1_S1_S0_S1_S1_S0_S1_S1_S0_S1_S1_S0_S1_S1_S0_S1_S1_S0_S1_S1_S0_S1_S1_PKS_S0_
libmagma_sparse.so.2.8:_Z45__device_stub__magma_cbicgmerge_xrbeta_kerneliP17magmaFloatComplexS0_S0_S0_S0_S0_S0_S0_
libmagma_sparse.so.2.8:_Z45__device_stub__magma_cblockdot_kernel_shuffleiiPK17magmaFloatComplexS1_PS_
libmagma_sparse.so.2.8:_Z45__device_stub__magma_cblockreduce_kernel_fastiiiP17magmaFloatComplexS0_
libmagma_sparse.so.2.8:_Z45__device_stub__magma_cmergeblockkrylov_kerneliiP17magmaFloatComplexS0_S0_
libmagma_sparse.so.2.8:_Z45__device_stub__magma_dbajac_csr_o_ls_kernel16iiiiPdPiS0_S_S0_S0_S_S0_S0_S_S0_S0_S_S0_S0_S_S0_S0_S_S0_S0_S_S0_S0_S_S0_S0_S_S0_S0_S_S0_S0_S_S0_S0_S_S0_S0_S_S0_S0_S_S0_S0_S_S0_S0_S_S0_S0_S_S0_S0_S_S0_S0_S_S0_S0_S_S0_S0_S_S0_S0_S_S0_S0_S_S0_S0_S_S0_S0_S_S0_S0_S_S0_S0_S_S0_S0_S_S0_S0_S_S0_S0_S_S0_S0_S_S0_S0_PKdS_
libmagma_sparse.so.2.8:_Z45__device_stub__magma_dbajac_csr_o_ls_kernel32iiiiPdPiS0_S_S0_S0_S_S0_S0_S_S0_S0_S_S0_S0_S_S0_S0_S_S0_S0_S_S0_S0_S_S0_S0_S_S0_S0_S_S0_S0_S_S0_S0_S_S0_S0_S_S0_S0_S_S0_S0_S_S0_S0_S_S0_S0_S_S0_S0_S_S0_S0_S_S0_S0_S_S0_S0_S_S0_S0_S_S0_S0_S_S0_S0_S_S0_S0_S_S0_S0_S_S0_S0_S_S0_S0_S_S0_S0_S_S0_S0_S_S0_S0_S_S0_S0_S_S0_S0_S_S0_S0_S_S0_S0_S_S0_S0_S_S0_S0_S_S0_S0_S_S0_S0_S_S0_S0_S_S0_S0_S_S0_S0_S_S0_S0_S_S0_S0_S_S0_S0_S_S0_S0_S_S0_S0_S_S0_S0_S_S0_S0_S_S0_S0_S_S0_S0_S_S0_S0_S_S0_S0_S_S0_S0_S_S0_S0_S_S0_S0_S_S0_S0_S_S0_S0_S_S0_S0_S_S0_S0_S_S0_S0_S_S0_S0_S_S0_S0_S_S0_S0_PKdS_
libmagma_sparse.so.2.8:_Z45__device_stub__magma_dbajac_csr_o_ls_kernel64iiiiPdPiS0_S_S0_S0_S_S0_S0_S_S0_S0_S_S0_S0_S_S0_S0_S_S0_S0_S_S0_S0_S_S0_S0_S_S0_S0_S_S0_S0_S_S0_S0_S_S0_S0_S_S0_S0_S_S0_S0_S_S0_S0_S_S0_S0_S_S0_S0_S_S0_S0_S_S0_S0_S_S0_S0_S_S0_S0_S_S0_S0_S_S0_S0_S_S0_S0_S_S0_S0_S_S0_S0_S_S0_S0_S_S0_S0_S_S0_S0_S_S0_S0_S_S0_S0_S_S0_S0_S_S0_S0_S_S0_S0_S_S0_S0_S_S0_S0_S_S0_S0_S_S0_S0_S_S0_S0_S_S0_S0_S_S0_S0_S_S0_S0_S_S0_S0_S_S0_S0_S_S0_S0_S_S0_S0_S_S0_S0_S_S0_S0_S_S0_S0_S_S0_S0_S_S0_S0_S_S0_S0_S_S0_S0_S_S0_S0_S_S0_S0_S_S0_S0_S_S0_S0_S_S0_S0_S_S0_S0_S_S0_S0_S_S0_S0_S_S0_S0_S_S0_S0_S_S0_S0_S_S0_S0_S_S0_S0_S_S0_S0_S_S0_S0_S_S0_S0_S_S0_S0_S_S0_S0_S_S0_S0_S_S0_S0_S_S0_S0_S_S0_S0_S_S0_S0_S_S0_S0_S_S0_S0_S_S0_S0_S_S0_S0_S_S0_S0_S_S0_S0_S_S0_S0_S_S0_S0_S_S0_S0_S_S0_S0_S_S0_S0_S_S0_S0_S_S0_S0_S_S0_S0_S_S0_S0_S_S0_S0_S_S0_S0_S_S0_S0_S_S0_S0_S_S0_S0_S_S0_S0_S_S0_S0_S_S0_S0_S_S0_S0_S_S0_S0_S_S0_S0_S_S0_S0_S_S0_S0_S_S0_S0_S_S0_S0_S_S0_S0_S_S0_S0_S_S0_S0_S_S0_S0_S_S0_S0_S_S0_S0_S_S0_S0_S_S0_S0_S_S0_S0_S_S0_S0_S_S0_S0_S_S0_S0_S_S0_S0_S_S0_S0_S_S0_S0_S_S0_S0_S_S0_S0_S_S0_S0_S_S0_S0_S_S0_S0_S_S0_S0_PKdS_
libmagma_sparse.so.2.8:_Z45__device_stub__magma_dbicgmerge_xrbeta_kerneliPdS_S_S_S_S_S_S_
libmagma_sparse.so.2.8:_Z45__device_stub__magma_dblockdot_kernel_shuffleiiPKdS0_Pd
libmagma_sparse.so.2.8:_Z45__device_stub__magma_dblockreduce_kernel_fastiiiPdS_
libmagma_sparse.so.2.8:_Z45__device_stub__magma_dmergeblockkrylov_kerneliiPdS_S_
libmagma_sparse.so.2.8:_Z45__device_stub__magma_sbajac_csr_o_ls_kernel16iiiiPfPiS0_S_S0_S0_S_S0_S0_S_S0_S0_S_S0_S0_S_S0_S0_S_S0_S0_S_S0_S0_S_S0_S0_S_S0_S0_S_S0_S0_S_S0_S0_S_S0_S0_S_S0_S0_S_S0_S0_S_S0_S0_S_S0_S0_S_S0_S0_S_S0_S0_S_S0_S0_S_S0_S0_S_S0_S0_S_S0_S0_S_S0_S0_S_S0_S0_S_S0_S0_S_S0_S0_S_S0_S0_S_S0_S0_S_S0_S0_S_S0_S0_S_S0_S0_PKfS_
libmagma_sparse.so.2.8:_Z45__device_stub__magma_sbajac_csr_o_ls_kernel32iiiiPfPiS0_S_S0_S0_S_S0_S0_S_S0_S0_S_S0_S0_S_S0_S0_S_S0_S0_S_S0_S0_S_S0_S0_S_S0_S0_S_S0_S0_S_S0_S0_S_S0_S0_S_S0_S0_S_S0_S0_S_S0_S0_S_S0_S0_S_S0_S0_S_S0_S0_S_S0_S0_S_S0_S0_S_S0_S0_S_S0_S0_S_S0_S0_S_S0_S0_S_S0_S0_S_S0_S0_S_S0_S0_S_S0_S0_S_S0_S0_S_S0_S0_S_S0_S0_S_S0_S0_S_S0_S0_S_S0_S0_S_S0_S0_S_S0_S0_S_S0_S0_S_S0_S0_S_S0_S0_S_S0_S0_S_S0_S0_S_S0_S0_S_S0_S0_S_S0_S0_S_S0_S0_S_S0_S0_S_S0_S0_S_S0_S0_S_S0_S0_S_S0_S0_S_S0_S0_S_S0_S0_S_S0_S0_S_S0_S0_S_S0_S0_S_S0_S0_S_S0_S0_S_S0_S0_S_S0_S0_S_S0_S0_S_S0_S0_S_S0_S0_S_S0_S0_PKfS_
libmagma_sparse.so.2.8:_Z45__device_stub__magma_sbajac_csr_o_ls_kernel64iiiiPfPiS0_S_S0_S0_S_S0_S0_S_S0_S0_S_S0_S0_S_S0_S0_S_S0_S0_S_S0_S0_S_S0_S0_S_S0_S0_S_S0_S0_S_S0_S0_S_S0_S0_S_S0_S0_S_S0_S0_S_S0_S0_S_S0_S0_S_S0_S0_S_S0_S0_S_S0_S0_S_S0_S0_S_S0_S0_S_S0_S0_S_S0_S0_S_S0_S0_S_S0_S0_S_S0_S0_S_S0_S0_S_S0_S0_S_S0_S0_S_S0_S0_S_S0_S0_S_S0_S0_S_S0_S0_S_S0_S0_S_S0_S0_S_S0_S0_S_S0_S0_S_S0_S0_S_S0_S0_S_S0_S0_S_S0_S0_S_S0_S0_S_S0_S0_S_S0_S0_S_S0_S0_S_S0_S0_S_S0_S0_S_S0_S0_S_S0_S0_S_S0_S0_S_S0_S0_S_S0_S0_S_S0_S0_S_S0_S0_S_S0_S0_S_S0_S0_S_S0_S0_S_S0_S0_S_S0_S0_S_S0_S0_S_S0_S0_S_S0_S0_S_S0_S0_S_S0_S0_S_S0_S0_S_S0_S0_S_S0_S0_S_S0_S0_S_S0_S0_S_S0_S0_S_S0_S0_S_S0_S0_S_S0_S0_S_S0_S0_S_S0_S0_S_S0_S0_S_S0_S0_S_S0_S0_S_S0_S0_S_S0_S0_S_S0_S0_S_S0_S0_S_S0_S0_S_S0_S0_S_S0_S0_S_S0_S0_S_S0_S0_S_S0_S0_S_S0_S0_S_S0_S0_S_S0_S0_S_S0_S0_S_S0_S0_S_S0_S0_S_S0_S0_S_S0_S0_S_S0_S0_S_S0_S0_S_S0_S0_S_S0_S0_S_S0_S0_S_S0_S0_S_S0_S0_S_S0_S0_S_S0_S0_S_S0_S0_S_S0_S0_S_S0_S0_S_S0_S0_S_S0_S0_S_S0_S0_S_S0_S0_S_S0_S0_S_S0_S0_S_S0_S0_S_S0_S0_S_S0_S0_S_S0_S0_S_S0_S0_S_S0_S0_S_S0_S0_S_S0_S0_S_S0_S0_S_S0_S0_S_S0_S0_S_S0_S0_S_S0_S0_PKfS_
libmagma_sparse.so.2.8:_Z45__device_stub__magma_sbicgmerge_xrbeta_kerneliPfS_S_S_S_S_S_S_
libmagma_sparse.so.2.8:_Z45__device_stub__magma_sblockdot_kernel_shuffleiiPKfS0_Pf
libmagma_sparse.so.2.8:_Z45__device_stub__magma_sblockreduce_kernel_fastiiiPfS_
libmagma_sparse.so.2.8:_Z45__device_stub__magma_smergeblockkrylov_kerneliiPfS_S_
libmagma_sparse.so.2.8:_Z45__device_stub__magma_zbajac_csr_o_ls_kernel16iiiiP18magmaDoubleComplexPiS1_S0_S1_S1_S0_S1_S1_S0_S1_S1_S0_S1_S1_S0_S1_S1_S0_S1_S1_S0_S1_S1_S0_S1_S1_S0_S1_S1_S0_S1_S1_S0_S1_S1_S0_S1_S1_S0_S1_S1_S0_S1_S1_S0_S1_S1_S0_S1_S1_S0_S1_S1_S0_S1_S1_S0_S1_S1_S0_S1_S1_S0_S1_S1_S0_S1_S1_S0_S1_S1_S0_S1_S1_S0_S1_S1_S0_S1_S1_S0_S1_S1_S0_S1_S1_S0_S1_S1_S0_S1_S1_S0_S1_S1_PKS_S0_
libmagma_sparse.so.2.8:_Z45__device_stub__magma_zbajac_csr_o_ls_kernel32iiiiP18magmaDoubleComplexPiS1_S0_S1_S1_S0_S1_S1_S0_S1_S1_S0_S1_S1_S0_S1_S1_S0_S1_S1_S0_S1_S1_S0_S1_S1_S0_S1_S1_S0_S1_S1_S0_S1_S1_S0_S1_S1_S0_S1_S1_S0_S1_S1_S0_S1_S1_S0_S1_S1_S0_S1_S1_S0_S1_S1_S0_S1_S1_S0_S1_S1_S0_S1_S1_S0_S1_S1_S0_S1_S1_S0_S1_S1_S0_S1_S1_S0_S1_S1_S0_S1_S1_S0_S1_S1_S0_S1_S1_S0_S1_S1_S0_S1_S1_S0_S1_S1_S0_S1_S1_S0_S1_S1_S0_S1_S1_S0_S1_S1_S0_S1_S1_S0_S1_S1_S0_S1_S1_S0_S1_S1_S0_S1_S1_S0_S1_S1_S0_S1_S1_S0_S1_S1_S0_S1_S1_S0_S1_S1_S0_S1_S1_S0_S1_S1_S0_S1_S1_S0_S1_S1_S0_S1_S1_S0_S1_S1_S0_S1_S1_S0_S1_S1_S0_S1_S1_S0_S1_S1_S0_S1_S1_S0_S1_S1_S0_S1_S1_S0_S1_S1_S0_S1_S1_S0_S1_S1_S0_S1_S1_PKS_S0_
libmagma_sparse.so.2.8:_Z45__device_stub__magma_zbajac_csr_o_ls_kernel64iiiiP18magmaDoubleComplexPiS1_S0_S1_S1_S0_S1_S1_S0_S1_S1_S0_S1_S1_S0_S1_S1_S0_S1_S1_S0_S1_S1_S0_S1_S1_S0_S1_S1_S0_S1_S1_S0_S1_S1_S0_S1_S1_S0_S1_S1_S0_S1_S1_S0_S1_S1_S0_S1_S1_S0_S1_S1_S0_S1_S1_S0_S1_S1_S0_S1_S1_S0_S1_S1_S0_S1_S1_S0_S1_S1_S0_S1_S1_S0_S1_S1_S0_S1_S1_S0_S1_S1_S0_S1_S1_S0_S1_S1_S0_S1_S1_S0_S1_S1_S0_S1_S1_S0_S1_S1_S0_S1_S1_S0_S1_S1_S0_S1_S1_S0_S1_S1_S0_S1_S1_S0_S1_S1_S0_S1_S1_S0_S1_S1_S0_S1_S1_S0_S1_S1_S0_S1_S1_S0_S1_S1_S0_S1_S1_S0_S1_S1_S0_S1_S1_S0_S1_S1_S0_S1_S1_S0_S1_S1_S0_S1_S1_S0_S1_S1_S0_S1_S1_S0_S1_S1_S0_S1_S1_S0_S1_S1_S0_S1_S1_S0_S1_S1_S0_S1_S1_S0_S1_S1_S0_S1_S1_S0_S1_S1_S0_S1_S1_S0_S1_S1_S0_S1_S1_S0_S1_S1_S0_S1_S1_S0_S1_S1_S0_S1_S1_S0_S1_S1_S0_S1_S1_S0_S1_S1_S0_S1_S1_S0_S1_S1_S0_S1_S1_S0_S1_S1_S0_S1_S1_S0_S1_S1_S0_S1_S1_S0_S1_S1_S0_S1_S1_S0_S1_S1_S0_S1_S1_S0_S1_S1_S0_S1_S1_S0_S1_S1_S0_S1_S1_S0_S1_S1_S0_S1_S1_S0_S1_S1_S0_S1_S1_S0_S1_S1_S0_S1_S1_S0_S1_S1_S0_S1_S1_S0_S1_S1_S0_S1_S1_S0_S1_S1_S0_S1_S1_S0_S1_S1_S0_S1_S1_S0_S1_S1_S0_S1_S1_S0_S1_S1_S0_S1_S1_S0_S1_S1_S0_S1_S1_S0_S1_S1_S0_S1_S1_S0_S1_S1_S0_S1_S1_S0_S1_S1_S0_S1_S1_S0_S1_S1_S0_S1_S1_S0_S1_S1_S0_S1_S1_S0_S1_S1_S0_S1_S1_S0_S1_S1_S0_S1_S1_S0_S1_S1_S0_S1_S1_S0_S1_S1_S0_S1_S1_S0_S1_S1_PKS_S0_
libmagma_sparse.so.2.8:_Z45__device_stub__magma_zbicgmerge_xrbeta_kerneliP18magmaDoubleComplexS0_S0_S0_S0_S0_S0_S0_
libmagma_sparse.so.2.8:_Z45__device_stub__magma_zblockdot_kernel_shuffleiiPK18magmaDoubleComplexS1_PS_
libmagma_sparse.so.2.8:_Z45__device_stub__magma_zblockreduce_kernel_fastiiiP18magmaDoubleComplexS0_
libmagma_sparse.so.2.8:_Z45__device_stub__magma_zmergeblockkrylov_kerneliiP18magmaDoubleComplexS0_S0_
libmagma_sparse.so.2.8:_Z45__device_stub__sjacobispmvupdateselect_kerneliiiPiPfS_S_S0_S0_S0_S0_S0_
libmagma_sparse.so.2.8:_Z45__device_stub__zjacobispmvupdateselect_kerneliiiPiP18magmaDoubleComplexS_S_S1_S1_S1_S1_S1_
libmagma_sparse.so.2.8:_Z46__device_stub__magma_ccgmerge_spmvell_kernelb1iiP17magmaFloatComplexPiS1_S0_S0_S0_
libmagma_sparse.so.2.8:_Z46__device_stub__magma_ccgmerge_spmvsellc_kerneliiP17magmaFloatComplexPiS1_S0_S0_S0_
libmagma_sparse.so.2.8:_Z46__device_stub__magma_cparilut_residuals_kerneliPKiS0_PK17magmaFloatComplexS0_S0_S3_S0_S0_S3_iS0_S0_PS1_
libmagma_sparse.so.2.8:_Z46__device_stub__magma_dcgmerge_spmvell_kernelb1iiPdPiS0_S_S_S_
libmagma_sparse.so.2.8:_Z46__device_stub__magma_dcgmerge_spmvsellc_kerneliiPdPiS0_S_S_S_
libmagma_sparse.so.2.8:_Z46__device_stub__magma_dparilut_residuals_kerneliPKiS0_PKdS0_S0_S2_S0_S0_S2_iS0_S0_Pd
libmagma_sparse.so.2.8:_Z46__device_stub__magma_scgmerge_spmvell_kernelb1iiPfPiS0_S_S_S_
libmagma_sparse.so.2.8:_Z46__device_stub__magma_scgmerge_spmvsellc_kerneliiPfPiS0_S_S_S_
libmagma_sparse.so.2.8:_Z46__device_stub__magma_sparilut_residuals_kerneliPKiS0_PKfS0_S0_S2_S0_S0_S2_iS0_S0_Pf
libmagma_sparse.so.2.8:_Z46__device_stub__magma_zcgmerge_spmvell_kernelb1iiP18magmaDoubleComplexPiS1_S0_S0_S0_
libmagma_sparse.so.2.8:_Z46__device_stub__magma_zcgmerge_spmvsellc_kerneliiP18magmaDoubleComplexPiS1_S0_S0_S0_
libmagma_sparse.so.2.8:_Z46__device_stub__magma_zparilut_residuals_kerneliPKiS0_PK18magmaDoubleComplexS0_S0_S3_S0_S0_S3_iS0_S0_PS1_
libmagma_sparse.so.2.8:_Z48__device_stub__magma_ccgmerge_spmvellpack_kerneliiP17magmaFloatComplexPiS0_S0_S0_
libmagma_sparse.so.2.8:_Z48__device_stub__magma_dcgmerge_spmvellpack_kerneliiPdPiS_S_S_
libmagma_sparse.so.2.8:_Z48__device_stub__magma_scgmerge_spmvellpack_kerneliiPfPiS_S_S_
libmagma_sparse.so.2.8:_Z48__device_stub__magma_zcgmerge_spmvellpack_kerneliiP18magmaDoubleComplexPiS0_S0_S0_
libmagma_sparse.so.2.8:_Z49__device_stub__magma_ccgmerge_spmvsellpt_kernel_8iiiP17magmaFloatComplexPiS1_S0_S0_
libmagma_sparse.so.2.8:_Z49__device_stub__magma_dcgmerge_spmvsellpt_kernel_8iiiPdPiS0_S_S_
libmagma_sparse.so.2.8:_Z49__device_stub__magma_scgmerge_spmvsellpt_kernel_8iiiPfPiS0_S_S_
libmagma_sparse.so.2.8:_Z49__device_stub__magma_zcgmerge_spmvsellpt_kernel_8iiiP18magmaDoubleComplexPiS1_S0_S0_
libmagma_sparse.so.2.8:_Z4swapP17magmaFloatComplexS0_
libmagma_sparse.so.2.8:_Z4swapP18magmaDoubleComplexS0_
libmagma_sparse.so.2.8:_Z4swapPdS_
libmagma_sparse.so.2.8:_Z4swapPfS_
libmagma_sparse.so.2.8:_Z50__device_stub__magma_ccgmerge_spmvsellpt_kernel_16iiiP17magmaFloatComplexPiS1_S0_S0_
libmagma_sparse.so.2.8:_Z50__device_stub__magma_ccgmerge_spmvsellpt_kernel_32iiiP17magmaFloatComplexPiS1_S0_S0_
libmagma_sparse.so.2.8:_Z50__device_stub__magma_dcgmerge_spmvsellpt_kernel_16iiiPdPiS0_S_S_
libmagma_sparse.so.2.8:_Z50__device_stub__magma_dcgmerge_spmvsellpt_kernel_32iiiPdPiS0_S_S_
libmagma_sparse.so.2.8:_Z50__device_stub__magma_scgmerge_spmvsellpt_kernel_16iiiPfPiS0_S_S_
libmagma_sparse.so.2.8:_Z50__device_stub__magma_scgmerge_spmvsellpt_kernel_32iiiPfPiS0_S_S_
libmagma_sparse.so.2.8:_Z50__device_stub__magma_zcgmerge_spmvsellpt_kernel_16iiiP18magmaDoubleComplexPiS1_S0_S0_
libmagma_sparse.so.2.8:_Z50__device_stub__magma_zcgmerge_spmvsellpt_kernel_32iiiP18magmaDoubleComplexPiS1_S0_S0_
libmagma_sparse.so.2.8:_Z51__device_stub__magma_ccgmerge_spmvellpackrt_kernel2iP17magmaFloatComplexS0_S0_
libmagma_sparse.so.2.8:_Z51__device_stub__magma_dcgmerge_spmvellpackrt_kernel2iPdS_S_
libmagma_sparse.so.2.8:_Z51__device_stub__magma_scgmerge_spmvellpackrt_kernel2iPfS_S_
libmagma_sparse.so.2.8:_Z51__device_stub__magma_zcgmerge_spmvellpackrt_kernel2iP18magmaDoubleComplexS0_S0_
libmagma_sparse.so.2.8:_Z52__device_stub__magma_ccgmerge_spmvellpackrt_kernel_8iP17magmaFloatComplexPiS1_S0_S0_S0_ii
libmagma_sparse.so.2.8:_Z52__device_stub__magma_dcgmerge_spmvellpackrt_kernel_8iPdPiS0_S_S_S_ii
libmagma_sparse.so.2.8:_Z52__device_stub__magma_scgmerge_spmvellpackrt_kernel_8iPfPiS0_S_S_S_ii
libmagma_sparse.so.2.8:_Z52__device_stub__magma_zcgmerge_spmvellpackrt_kernel_8iP18magmaDoubleComplexPiS1_S0_S0_S0_ii
libmagma_sparse.so.2.8:_Z53__device_stub__magma_cblockdot_kernel_shuffle_1dblockiiPK17magmaFloatComplexS1_PS_
libmagma_sparse.so.2.8:_Z53__device_stub__magma_ccgmerge_spmvellpackrt_kernel_16iP17magmaFloatComplexPiS1_S0_S0_S0_ii
libmagma_sparse.so.2.8:_Z53__device_stub__magma_ccgmerge_spmvellpackrt_kernel_32iP17magmaFloatComplexPiS1_S0_S0_S0_ii
libmagma_sparse.so.2.8:_Z53__device_stub__magma_dblockdot_kernel_shuffle_1dblockiiPKdS0_Pd
libmagma_sparse.so.2.8:_Z53__device_stub__magma_dcgmerge_spmvellpackrt_kernel_16iPdPiS0_S_S_S_ii
libmagma_sparse.so.2.8:_Z53__device_stub__magma_dcgmerge_spmvellpackrt_kernel_32iPdPiS0_S_S_S_ii
libmagma_sparse.so.2.8:_Z53__device_stub__magma_sblockdot_kernel_shuffle_1dblockiiPKfS0_Pf
libmagma_sparse.so.2.8:_Z53__device_stub__magma_scgmerge_spmvellpackrt_kernel_16iPfPiS0_S_S_S_ii
libmagma_sparse.so.2.8:_Z53__device_stub__magma_scgmerge_spmvellpackrt_kernel_32iPfPiS0_S_S_S_ii
libmagma_sparse.so.2.8:_Z53__device_stub__magma_zblockdot_kernel_shuffle_1dblockiiPK18magmaDoubleComplexS1_PS_
libmagma_sparse.so.2.8:_Z53__device_stub__magma_zcgmerge_spmvellpackrt_kernel_16iP18magmaDoubleComplexPiS1_S0_S0_S0_ii
libmagma_sparse.so.2.8:_Z53__device_stub__magma_zcgmerge_spmvellpackrt_kernel_32iP18magmaDoubleComplexPiS1_S0_S0_S0_ii
libmagma_sparse.so.2.8:_ZN18magma_sampleselect12sampleselectEPdS0_S0_PiiiS0_
libmagma_sparse.so.2.8:_ZN18magma_sampleselect12sampleselectEPfS0_S0_PiiiS0_
libmagma_sparse.so.2.8:_ZN18magma_sampleselect13count_bucketsEPKdS1_Piii
libmagma_sparse.so.2.8:_ZN18magma_sampleselect13count_bucketsEPKfS1_Piii
libmagma_sparse.so.2.8:_ZN18magma_sampleselect13reduce_countsEPKiPii
libmagma_sparse.so.2.8:_ZN18magma_sampleselect16build_searchtreeEPKdPdi
libmagma_sparse.so.2.8:_ZN18magma_sampleselect16build_searchtreeEPKfPfi
libmagma_sparse.so.2.8:_ZN18magma_sampleselect17prefix_sum_countsEPiS0_i
libmagma_sparse.so.2.8:_ZN18magma_sampleselect17sampleselect_nodpEP12ihipStream_tPdS2_S2_PiiiS2_
libmagma_sparse.so.2.8:_ZN18magma_sampleselect17sampleselect_nodpEP12ihipStream_tPfS2_S2_PiiiS2_
libmagma_sparse.so.2.8:_ZN18magma_sampleselect19count_buckets_writeEPKdS1_PiPjii
libmagma_sparse.so.2.8:_ZN18magma_sampleselect19count_buckets_writeEPKfS1_PiPjii
libmagma_sparse.so.2.8:_ZN18magma_sampleselect20realloc_if_necessaryEPPvPii
libmagma_sparse.so.2.8:_ZN18magma_sampleselect21sampleselect_tailcallEPdS0_S0_PiS0_
libmagma_sparse.so.2.8:_ZN18magma_sampleselect21sampleselect_tailcallEPfS0_S0_PiS0_
libmagma_sparse.so.2.8:_ZN18magma_sampleselect23collect_bucket_indirectEPKdPKjPKiPdiPjPii
libmagma_sparse.so.2.8:_ZN18magma_sampleselect23collect_bucket_indirectEPKfPKjPKiPfiPjPii
libmagma_sparse.so.2.8:_ZN18magma_sampleselect23sampleselect_alloc_sizeEi
libmagma_sparse.so.2.8:_ZN18magma_sampleselect23sampleselect_findbucketEPiiPjS0_
libmagma_sparse.so.2.8:_ZN18magma_sampleselect23select_bitonic_basecaseEPdS0_ii
libmagma_sparse.so.2.8:_ZN18magma_sampleselect23select_bitonic_basecaseEPfS0_ii
libmagma_sparse.so.2.8:_ZN18magma_sampleselect24launch_sampleselect_nodpEP12ihipStream_tPdS2_S2_S2_Piii
libmagma_sparse.so.2.8:_ZN18magma_sampleselect24launch_sampleselect_nodpEP12ihipStream_tPfS2_S2_S2_Piii
libmagma_sparse.so.2.8:_ZN18magma_sampleselect26sampleselect_tailcall_nodpEP12ihipStream_tPdS2_S2_PiS2_
libmagma_sparse.so.2.8:_ZN18magma_sampleselect26sampleselect_tailcall_nodpEP12ihipStream_tPfS2_S2_PiS2_
libmagma_sparse.so.2.8:_ZN18magma_sampleselect27__device_stub__sampleselectEPdS0_S0_PiiiS0_
libmagma_sparse.so.2.8:_ZN18magma_sampleselect27__device_stub__sampleselectEPfS0_S0_PiiiS0_
libmagma_sparse.so.2.8:_ZN18magma_sampleselect28__device_stub__count_bucketsEPKdS1_Piii
libmagma_sparse.so.2.8:_ZN18magma_sampleselect28__device_stub__count_bucketsEPKfS1_Piii
libmagma_sparse.so.2.8:_ZN18magma_sampleselect28__device_stub__reduce_countsEPKiPii
libmagma_sparse.so.2.8:_ZN18magma_sampleselect31__device_stub__build_searchtreeEPKdPdi
libmagma_sparse.so.2.8:_ZN18magma_sampleselect31__device_stub__build_searchtreeEPKfPfi
