libOIS.so.1.5.0:_Z11UTF8ToUTF32Ph
libOIS.so.1.5.0:_Z16getComponentInfoi
libOIS.so.1.5.0:_ZN3OIS10EventUtils10isJoyStickEiRNS_12JoyStickInfoE
libOIS.so.1.5.0:_ZN3OIS10EventUtils11getUniqueIdB5cxx11Ei
libOIS.so.1.5.0:_ZN3OIS10EventUtils19getPhysicalLocationB5cxx11Ei
libOIS.so.1.5.0:_ZN3OIS10EventUtils19removeForceFeedbackEPPNS_18LinuxForceFeedbackE
libOIS.so.1.5.0:_ZN3OIS10EventUtils22enumerateForceFeedbackEiPPNS_18LinuxForceFeedbackE
libOIS.so.1.5.0:_ZN3OIS10EventUtils7getNameB5cxx11Ei
libOIS.so.1.5.0:_ZN3OIS10LinuxMouse11_initializeEv
libOIS.so.1.5.0:_ZN3OIS10LinuxMouse11setBufferedEb
libOIS.so.1.5.0:_ZN3OIS10LinuxMouse15_processXEventsEv
libOIS.so.1.5.0:_ZN3OIS10LinuxMouse4grabEb
libOIS.so.1.5.0:_ZN3OIS10LinuxMouse4hideEb
libOIS.so.1.5.0:_ZN3OIS10LinuxMouse7captureEv
libOIS.so.1.5.0:_ZN3OIS10LinuxMouseC1EPNS_12InputManagerEbbb
libOIS.so.1.5.0:_ZN3OIS10LinuxMouseC2EPNS_12InputManagerEbbb
libOIS.so.1.5.0:_ZN3OIS10LinuxMouseD0Ev
libOIS.so.1.5.0:_ZN3OIS10LinuxMouseD1Ev
libOIS.so.1.5.0:_ZN3OIS10LinuxMouseD2Ev
libOIS.so.1.5.0:_ZN3OIS12InputManager14getVersionNameB5cxx11Ev
libOIS.so.1.5.0:_ZN3OIS12InputManager15inputSystemNameB5cxx11Ev
libOIS.so.1.5.0:_ZN3OIS12InputManager15listFreeDevicesB5cxx11Ev
libOIS.so.1.5.0:_ZN3OIS12InputManager16getVersionNumberEv
libOIS.so.1.5.0:_ZN3OIS12InputManager17addFactoryCreatorEPNS_14FactoryCreatorE
libOIS.so.1.5.0:_ZN3OIS12InputManager17createInputObjectENS_4TypeEbRKNSt7__cxx1112basic_stringIcSt11char_traitsIcESaIcEEE
libOIS.so.1.5.0:_ZN3OIS12InputManager17createInputSystemERSt8multimapINSt7__cxx1112basic_stringIcSt11char_traitsIcESaIcEEES7_St4lessIS7_ESaISt4pairIKS7_S7_EEE
libOIS.so.1.5.0:_ZN3OIS12InputManager17createInputSystemEm
libOIS.so.1.5.0:_ZN3OIS12InputManager18destroyInputObjectEPNS_6ObjectE
libOIS.so.1.5.0:_ZN3OIS12InputManager18destroyInputSystemEPS0_
libOIS.so.1.5.0:_ZN3OIS12InputManager18enableAddOnFactoryENS0_14AddOnFactoriesE
libOIS.so.1.5.0:_ZN3OIS12InputManager18getNumberOfDevicesENS_4TypeE
libOIS.so.1.5.0:_ZN3OIS12InputManager20removeFactoryCreatorEPNS_14FactoryCreatorE
libOIS.so.1.5.0:_ZN3OIS12InputManagerC1ERKNSt7__cxx1112basic_stringIcSt11char_traitsIcESaIcEEE
libOIS.so.1.5.0:_ZN3OIS12InputManagerC2ERKNSt7__cxx1112basic_stringIcSt11char_traitsIcESaIcEEE
libOIS.so.1.5.0:_ZN3OIS12InputManagerD0Ev
libOIS.so.1.5.0:_ZN3OIS12InputManagerD1Ev
libOIS.so.1.5.0:_ZN3OIS12InputManagerD2Ev
libOIS.so.1.5.0:_ZN3OIS13ForceFeedback15_addEffectTypesENS_6Effect6EForceENS1_5ETypeE
libOIS.so.1.5.0:_ZN3OIS13ForceFeedback15_setGainSupportEb
libOIS.so.1.5.0:_ZN3OIS13ForceFeedback21_setAutoCenterSupportEb
libOIS.so.1.5.0:_ZN3OIS13ForceFeedbackC1Ev
libOIS.so.1.5.0:_ZN3OIS13ForceFeedbackC2Ev
libOIS.so.1.5.0:_ZN3OIS13LinuxJoyStick10_clearJoysERSt6vectorINS_12JoyStickInfoESaIS2_EE
libOIS.so.1.5.0:_ZN3OIS13LinuxJoyStick11_getJoyInfoEv
libOIS.so.1.5.0:_ZN3OIS13LinuxJoyStick11_initializeEv
libOIS.so.1.5.0:_ZN3OIS13LinuxJoyStick11setBufferedEb
libOIS.so.1.5.0:_ZN3OIS13LinuxJoyStick14queryInterfaceENS_9Interface5ITypeE
libOIS.so.1.5.0:_ZN3OIS13LinuxJoyStick7captureEv
libOIS.so.1.5.0:_ZN3OIS13LinuxJoyStick9_scanJoysEv
libOIS.so.1.5.0:_ZN3OIS13LinuxJoyStickC1EPNS_12InputManagerEbRKNS_12JoyStickInfoE
libOIS.so.1.5.0:_ZN3OIS13LinuxJoyStickC2EPNS_12InputManagerEbRKNS_12JoyStickInfoE
libOIS.so.1.5.0:_ZN3OIS13LinuxJoyStickD0Ev
libOIS.so.1.5.0:_ZN3OIS13LinuxJoyStickD1Ev
libOIS.so.1.5.0:_ZN3OIS13LinuxJoyStickD2Ev
libOIS.so.1.5.0:_ZN3OIS13LinuxKeyboard11_initializeEv
libOIS.so.1.5.0:_ZN3OIS13LinuxKeyboard11getAsStringB5cxx11ENS_7KeyCodeE
libOIS.so.1.5.0:_ZN3OIS13LinuxKeyboard11setBufferedEb
libOIS.so.1.5.0:_ZN3OIS13LinuxKeyboard12_injectKeyUpENS_7KeyCodeE
libOIS.so.1.5.0:_ZN3OIS13LinuxKeyboard12getAsKeyCodeENSt7__cxx1112basic_stringIcSt11char_traitsIcESaIcEEE
libOIS.so.1.5.0:_ZN3OIS13LinuxKeyboard14_injectKeyDownENS_7KeyCodeEi
libOIS.so.1.5.0:_ZN3OIS13LinuxKeyboard15_handleKeyPressER7_XEvent
libOIS.so.1.5.0:_ZN3OIS13LinuxKeyboard16addKeyConversionEmNS_7KeyCodeE
libOIS.so.1.5.0:_ZN3OIS13LinuxKeyboard17_handleKeyReleaseER7_XEvent
libOIS.so.1.5.0:_ZN3OIS13LinuxKeyboard7captureEv
libOIS.so.1.5.0:_ZN3OIS13LinuxKeyboardC1EPNS_12InputManagerEbb
libOIS.so.1.5.0:_ZN3OIS13LinuxKeyboardC2EPNS_12InputManagerEbb
libOIS.so.1.5.0:_ZN3OIS13LinuxKeyboardD0Ev
libOIS.so.1.5.0:_ZN3OIS13LinuxKeyboardD1Ev
libOIS.so.1.5.0:_ZN3OIS13LinuxKeyboardD2Ev
libOIS.so.1.5.0:_ZN3OIS17LinuxInputManager11_initializeERSt8multimapINSt7__cxx1112basic_stringIcSt11char_traitsIcESaIcEEES7_St4lessIS7_ESaISt4pairIKS7_S7_EEE
libOIS.so.1.5.0:_ZN3OIS17LinuxInputManager11freeDevicesENS_4TypeE
libOIS.so.1.5.0:_ZN3OIS17LinuxInputManager11vendorExistENS_4TypeERKNSt7__cxx1112basic_stringIcSt11char_traitsIcESaIcEEE
libOIS.so.1.5.0:_ZN3OIS17LinuxInputManager12createObjectEPNS_12InputManagerENS_4TypeEbRKNSt7__cxx1112basic_stringIcSt11char_traitsIcESaIcEEE
libOIS.so.1.5.0:_ZN3OIS17LinuxInputManager12totalDevicesENS_4TypeE
libOIS.so.1.5.0:_ZN3OIS17LinuxInputManager13destroyObjectEPNS_6ObjectE
libOIS.so.1.5.0:_ZN3OIS17LinuxInputManager14freeDeviceListB5cxx11Ev
libOIS.so.1.5.0:_ZN3OIS17LinuxInputManager17_enumerateDevicesEv
libOIS.so.1.5.0:_ZN3OIS17LinuxInputManager20_parseConfigSettingsERSt8multimapINSt7__cxx1112basic_stringIcSt11char_traitsIcESaIcEEES7_St4lessIS7_ESaISt4pairIKS7_S7_EEE
libOIS.so.1.5.0:_ZN3OIS17LinuxInputManagerC1Ev
libOIS.so.1.5.0:_ZN3OIS17LinuxInputManagerC2Ev
libOIS.so.1.5.0:_ZN3OIS17LinuxInputManagerD0Ev
libOIS.so.1.5.0:_ZN3OIS17LinuxInputManagerD1Ev
libOIS.so.1.5.0:_ZN3OIS17LinuxInputManagerD2Ev
libOIS.so.1.5.0:_ZN3OIS18LinuxForceFeedback13setMasterGainEf
libOIS.so.1.5.0:_ZN3OIS18LinuxForceFeedback15getFFMemoryLoadEv
libOIS.so.1.5.0:_ZN3OIS18LinuxForceFeedback17_updateRampEffectEPKNS_6EffectE
libOIS.so.1.5.0:_ZN3OIS18LinuxForceFeedback17setAutoCenterModeEb
libOIS.so.1.5.0:_ZN3OIS18LinuxForceFeedback20_setCommonPropertiesEP9ff_effectP11ff_envelopePKNS_6EffectEPKNS_8EnvelopeE
libOIS.so.1.5.0:_ZN3OIS18LinuxForceFeedback21_updateConstantEffectEPKNS_6EffectE
libOIS.so.1.5.0:_ZN3OIS18LinuxForceFeedback21_updatePeriodicEffectEPKNS_6EffectE
libOIS.so.1.5.0:_ZN3OIS18LinuxForceFeedback24_updateConditionalEffectEPKNS_6EffectE
libOIS.so.1.5.0:_ZN3OIS18LinuxForceFeedback5_stopEi
libOIS.so.1.5.0:_ZN3OIS18LinuxForceFeedback6_startEi
libOIS.so.1.5.0:_ZN3OIS18LinuxForceFeedback6modifyEPKNS_6EffectE
libOIS.so.1.5.0:_ZN3OIS18LinuxForceFeedback6removeEPKNS_6EffectE
libOIS.so.1.5.0:_ZN3OIS18LinuxForceFeedback6uploadEPKNS_6EffectE
libOIS.so.1.5.0:_ZN3OIS18LinuxForceFeedback7_unloadEi
libOIS.so.1.5.0:_ZN3OIS18LinuxForceFeedback7_uploadEP9ff_effectPKNS_6EffectE
libOIS.so.1.5.0:_ZN3OIS18LinuxForceFeedbackC1Ei
libOIS.so.1.5.0:_ZN3OIS18LinuxForceFeedbackC2Ei
libOIS.so.1.5.0:_ZN3OIS18LinuxForceFeedbackD0Ev
libOIS.so.1.5.0:_ZN3OIS18LinuxForceFeedbackD1Ev
libOIS.so.1.5.0:_ZN3OIS18LinuxForceFeedbackD2Ev
libOIS.so.1.5.0:_ZN3OIS6Effect10setNumAxesEs
libOIS.so.1.5.0:_ZN3OIS6Effect16getDirectionNameENS0_10EDirectionE
libOIS.so.1.5.0:_ZN3OIS6Effect16getForceTypeNameENS0_6EForceE
libOIS.so.1.5.0:_ZN3OIS6Effect17getEffectTypeNameENS0_5ETypeE
libOIS.so.1.5.0:_ZN3OIS6EffectC1ENS0_6EForceENS0_5ETypeE
libOIS.so.1.5.0:_ZN3OIS6EffectC2ENS0_6EForceENS0_5ETypeE
libOIS.so.1.5.0:_ZN3OIS6EffectD0Ev
libOIS.so.1.5.0:_ZN3OIS6EffectD1Ev
libOIS.so.1.5.0:_ZN3OIS6EffectD2Ev
libOIS.so.1.5.0:_ZN3OIS8JoyStick16setEventCallbackEPNS_16JoyStickListenerE
libOIS.so.1.5.0:_ZN3OIS8JoyStick21setVector3SensitivityEf
libOIS.so.1.5.0:_ZN3OIS8JoyStickC1ERKNSt7__cxx1112basic_stringIcSt11char_traitsIcESaIcEEEbiPNS_12InputManagerE
libOIS.so.1.5.0:_ZN3OIS8JoyStickC2ERKNSt7__cxx1112basic_stringIcSt11char_traitsIcESaIcEEEbiPNS_12InputManagerE
libOIS.so.1.5.0:_ZN3OIS8Keyboard18setTextTranslationENS0_19TextTranslationModeE
libOIS.so.1.5.0:_ZNK3OIS13ForceFeedback14supportsEffectENS_6Effect6EForceENS1_5ETypeE
libOIS.so.1.5.0:_ZNK3OIS13ForceFeedback19getSupportedEffectsEv
libOIS.so.1.5.0:_ZNK3OIS13LinuxKeyboard13copyKeyStatesEPc
libOIS.so.1.5.0:_ZNK3OIS13LinuxKeyboard9isKeyDownENS_7KeyCodeE
libOIS.so.1.5.0:_ZNK3OIS6Effect10getNumAxesEv
libOIS.so.1.5.0:_ZNK3OIS6Effect14getForceEffectEv
libOIS.so.1.5.0:_ZNK3OIS8JoyStick16getEventCallbackEv
libOIS.so.1.5.0:_ZNK3OIS8JoyStick21getNumberOfComponentsENS_13ComponentTypeE
libOIS.so.1.5.0:_ZNK3OIS8JoyStick21getVector3SensitivityEv
libOIS.so.1.5.0:_ZNK3OIS8Keyboard12getModifiersEv
libOIS.so.1.5.0:_ZNK3OIS8Keyboard14isModifierDownENS0_8ModifierE
libOIS.so.1.5.0:_ZNK3OIS9Exception4whatEv
libOIS.so.1.5.0:_ZThn160_N3OIS17LinuxInputManager11freeDevicesENS_4TypeE
libOIS.so.1.5.0:_ZThn160_N3OIS17LinuxInputManager11vendorExistENS_4TypeERKNSt7__cxx1112basic_stringIcSt11char_traitsIcESaIcEEE
libOIS.so.1.5.0:_ZThn160_N3OIS17LinuxInputManager12createObjectEPNS_12InputManagerENS_4TypeEbRKNSt7__cxx1112basic_stringIcSt11char_traitsIcESaIcEEE
libOIS.so.1.5.0:_ZThn160_N3OIS17LinuxInputManager12totalDevicesENS_4TypeE
libOIS.so.1.5.0:_ZThn160_N3OIS17LinuxInputManager13destroyObjectEPNS_6ObjectE
libOIS.so.1.5.0:_ZThn160_N3OIS17LinuxInputManager14freeDeviceListB5cxx11Ev
libOIS.so.1.5.0:_ZThn160_N3OIS17LinuxInputManagerD0Ev
libOIS.so.1.5.0:_ZThn160_N3OIS17LinuxInputManagerD1Ev
