libKMediaSession.so:_ZN13KMediaSession11qt_metacallEN11QMetaObject4CallEiPPv
libKMediaSession.so:_ZN13KMediaSession11qt_metacastEPKc
libKMediaSession.so:_ZN13KMediaSession11setMetaDataEP8MetaData
libKMediaSession.so:_ZN13KMediaSession11setPositionEx
libKMediaSession.so:_ZN13KMediaSession12errorChangedENS_5ErrorE
libKMediaSession.so:_ZN13KMediaSession12mutedChangedEb
libKMediaSession.so:_ZN13KMediaSession12setCanGoNextEb
libKMediaSession.so:_ZN13KMediaSession13nextRequestedEv
libKMediaSession.so:_ZN13KMediaSession13quitRequestedEv
libKMediaSession.so:_ZN13KMediaSession13setPlayerNameERK7QString
libKMediaSession.so:_ZN13KMediaSession13sourceChangedERK4QUrl
libKMediaSession.so:_ZN13KMediaSession13volumeChangedEd
libKMediaSession.so:_ZN13KMediaSession14canPlayChangedEb
libKMediaSession.so:_ZN13KMediaSession14positionJumpedEx
libKMediaSession.so:_ZN13KMediaSession15canPauseChangedEb
libKMediaSession.so:_ZN13KMediaSession15durationChangedEx
libKMediaSession.so:_ZN13KMediaSession15metaDataChangedEP8MetaData
libKMediaSession.so:_ZN13KMediaSession15positionChangedEx
libKMediaSession.so:_ZN13KMediaSession15seekableChangedEb
libKMediaSession.so:_ZN13KMediaSession15setPlaybackRateEd
libKMediaSession.so:_ZN13KMediaSession16canGoNextChangedEb
libKMediaSession.so:_ZN13KMediaSession16setCanGoPreviousEb
libKMediaSession.so:_ZN13KMediaSession16staticMetaObjectE
libKMediaSession.so:_ZN13KMediaSession17playerNameChangedERK7QString
libKMediaSession.so:_ZN13KMediaSession17previousRequestedEv
libKMediaSession.so:_ZN13KMediaSession17setCurrentBackendENS_13MediaBackendsE
libKMediaSession.so:_ZN13KMediaSession18mediaStatusChangedENS_11MediaStatusE
libKMediaSession.so:_ZN13KMediaSession19playbackRateChangedEd
libKMediaSession.so:_ZN13KMediaSession19setDesktopEntryNameERK7QString
libKMediaSession.so:_ZN13KMediaSession20canGoPreviousChangedEb
libKMediaSession.so:_ZN13KMediaSession20playbackStateChangedENS_13PlaybackStateE
libKMediaSession.so:_ZN13KMediaSession20raiseWindowRequestedEv
libKMediaSession.so:_ZN13KMediaSession21currentBackendChangedENS_13MediaBackendsE
libKMediaSession.so:_ZN13KMediaSession23desktopEntryNameChangedERK7QString
libKMediaSession.so:_ZN13KMediaSession27setMpris2PauseInsteadOfStopEb
libKMediaSession.so:_ZN13KMediaSession31mpris2PauseInsteadOfStopChangedEb
libKMediaSession.so:_ZN13KMediaSession4playEv
libKMediaSession.so:_ZN13KMediaSession4stopEv
libKMediaSession.so:_ZN13KMediaSession5pauseEv
libKMediaSession.so:_ZN13KMediaSession8setMutedEb
libKMediaSession.so:_ZN13KMediaSession9setSourceERK4QUrl
libKMediaSession.so:_ZN13KMediaSession9setVolumeEd
libKMediaSession.so:_ZN13KMediaSessionC1ERK7QStringS2_P7QObject
libKMediaSession.so:_ZN13KMediaSessionC2ERK7QStringS2_P7QObject
libKMediaSession.so:_ZN13KMediaSessionD0Ev
libKMediaSession.so:_ZN13KMediaSessionD1Ev
libKMediaSession.so:_ZN13KMediaSessionD2Ev
libKMediaSession.so:_ZN8MetaData11qt_metacallEN11QMetaObject4CallEiPPv
libKMediaSession.so:_ZN8MetaData11qt_metacastEPKc
libKMediaSession.so:_ZN8MetaData12albumChangedERK7QString
libKMediaSession.so:_ZN8MetaData12titleChangedERK7QString
libKMediaSession.so:_ZN8MetaData13artistChangedERK7QString
libKMediaSession.so:_ZN8MetaData13setArtworkUrlERK4QUrl
libKMediaSession.so:_ZN8MetaData15metaDataChangedEPS_
libKMediaSession.so:_ZN8MetaData16staticMetaObjectE
libKMediaSession.so:_ZN8MetaData17artworkUrlChangedERK4QUrl
libKMediaSession.so:_ZN8MetaData21signalMetaDataChangedEv
libKMediaSession.so:_ZN8MetaData5clearEv
libKMediaSession.so:_ZN8MetaData8setAlbumERK7QString
libKMediaSession.so:_ZN8MetaData8setTitleERK7QString
libKMediaSession.so:_ZN8MetaData9setArtistERK7QString
libKMediaSession.so:_ZN8MetaDataC1EP7QObject
libKMediaSession.so:_ZN8MetaDataC2EP7QObject
libKMediaSession.so:_ZN8MetaDataD0Ev
libKMediaSession.so:_ZN8MetaDataD1Ev
libKMediaSession.so:_ZN8MetaDataD2Ev
libKMediaSession.so:_ZNK13KMediaSession10metaObjectEv
libKMediaSession.so:_ZNK13KMediaSession10playerNameEv
libKMediaSession.so:_ZNK13KMediaSession11backendNameENS_13MediaBackendsE
libKMediaSession.so:_ZNK13KMediaSession11mediaStatusEv
libKMediaSession.so:_ZNK13KMediaSession12playbackRateEv
libKMediaSession.so:_ZNK13KMediaSession13canGoPreviousEv
libKMediaSession.so:_ZNK13KMediaSession13playbackStateEv
libKMediaSession.so:_ZNK13KMediaSession14currentBackendEv
libKMediaSession.so:_ZNK13KMediaSession16desktopEntryNameEv
libKMediaSession.so:_ZNK13KMediaSession17availableBackendsEv
libKMediaSession.so:_ZNK13KMediaSession19maximumPlaybackRateEv
libKMediaSession.so:_ZNK13KMediaSession19minimumPlaybackRateEv
libKMediaSession.so:_ZNK13KMediaSession24mpris2PauseInsteadOfStopEv
libKMediaSession.so:_ZNK13KMediaSession5errorEv
libKMediaSession.so:_ZNK13KMediaSession5mutedEv
libKMediaSession.so:_ZNK13KMediaSession6sourceEv
libKMediaSession.so:_ZNK13KMediaSession6volumeEv
libKMediaSession.so:_ZNK13KMediaSession7canPlayEv
libKMediaSession.so:_ZNK13KMediaSession8canPauseEv
libKMediaSession.so:_ZNK13KMediaSession8durationEv
libKMediaSession.so:_ZNK13KMediaSession8metaDataEv
libKMediaSession.so:_ZNK13KMediaSession8positionEv
libKMediaSession.so:_ZNK13KMediaSession8seekableEv
libKMediaSession.so:_ZNK13KMediaSession9canGoNextEv
libKMediaSession.so:_ZNK8MetaData10artworkUrlEv
libKMediaSession.so:_ZNK8MetaData10metaObjectEv
libKMediaSession.so:_ZNK8MetaData5albumEv
libKMediaSession.so:_ZNK8MetaData5titleEv
libKMediaSession.so:_ZNK8MetaData6artistEv
libKMediaSession.so:_ZTI13KMediaSession
libKMediaSession.so:_ZTI8MetaData
libKMediaSession.so:_ZTS13KMediaSession
libKMediaSession.so:_ZTS8MetaData
libKMediaSession.so:_ZTV13KMediaSession
libKMediaSession.so:_ZTV8MetaData
libkmediasession-qmlplugin.so:qt_plugin_instance
libkmediasession-qmlplugin.so:qt_plugin_query_metadata_v2
