UNKNOWN:_ZN4Json11writeStringB5cxx11ERKNS_12StreamWriter7FactoryERKNS_5ValueE
UNKNOWN:_ZN4Json13ValueIteratorC1ERKS0_
UNKNOWN:_ZN4Json15parseFromStreamERKNS_10CharReader7FactoryERSiPNS_5ValueEPNSt7__cxx1112basic_stringIcSt11char_traitsIcESaIcEEE
UNKNOWN:_ZN4Json17CharReaderBuilderC1Ev
UNKNOWN:_ZN4Json17CharReaderBuilderD1Ev
UNKNOWN:_ZN4Json17ValueIteratorBase9incrementEv
UNKNOWN:_ZN4Json19StreamWriterBuilderC1Ev
UNKNOWN:_ZN4Json19StreamWriterBuilderD1Ev
UNKNOWN:_ZN4Json5Value11removeIndexEjPS0_
UNKNOWN:_ZN4Json5Value12removeMemberERKNSt7__cxx1112basic_stringIcSt11char_traitsIcESaIcEEE
UNKNOWN:_ZN4Json5Value3endEv
UNKNOWN:_ZN4Json5Value5beginEv
UNKNOWN:_ZN4Json5Value6appendEOS0_
UNKNOWN:_ZN4Json5Value6appendERKS0_
UNKNOWN:_ZN4Json5ValueC1ENS_9ValueTypeE
UNKNOWN:_ZN4Json5ValueC1ERKNSt7__cxx1112basic_stringIcSt11char_traitsIcESaIcEEE
UNKNOWN:_ZN4Json5ValueC1ERKS0_
UNKNOWN:_ZN4Json5ValueC1Eb
UNKNOWN:_ZN4Json5ValueC1Ej
UNKNOWN:_ZN4Json5ValueD1Ev
UNKNOWN:_ZN4Json5ValueaSES0_
UNKNOWN:_ZN4Json5ValueixEPKc
UNKNOWN:_ZN4Json5ValueixERKNSt7__cxx1112basic_stringIcSt11char_traitsIcESaIcEEE
UNKNOWN:_ZN4Json5ValueixEj
UNKNOWN:_ZN5boost3log11v2_mt_posix3aux11put_integerIcEEvRNS2_22basic_ostringstreambufIT_St11char_traitsIS5_ESaIS5_EEEjjS5_
UNKNOWN:_ZN5boost3log11v2_mt_posix3aux15stream_providerIcE16release_compoundEPNS4_15stream_compoundE
UNKNOWN:_ZN5boost3log11v2_mt_posix3aux15stream_providerIcE17allocate_compoundERNS1_6recordE
UNKNOWN:_ZN5boost3log11v2_mt_posix3aux22parse_date_time_formatIcEEvPKT_S6_RNS2_32date_time_format_parser_callbackIS4_EE
UNKNOWN:_ZN5boost3log11v2_mt_posix3auxlsIcSt11char_traitsIcEEERSt13basic_ostreamIT_T0_ESA_RKNS2_2idINS2_6threadEEE
UNKNOWN:_ZN5boost3log11v2_mt_posix7trivial9to_stringIcEEPKT_NS2_14severity_levelE
UNKNOWN:_ZNK4Json17CharReaderBuilder13newCharReaderEv
UNKNOWN:_ZNK4Json17ValueIteratorBase5derefEv
UNKNOWN:_ZNK4Json17ValueIteratorBase7isEqualERKS0_
UNKNOWN:_ZNK4Json19StreamWriterBuilder15newStreamWriterEv
UNKNOWN:_ZNK4Json5Value14toStyledStringB5cxx11Ev
UNKNOWN:_ZNK4Json5Value4sizeEv
UNKNOWN:_ZNK4Json5Value6asBoolEv
UNKNOWN:_ZNK4Json5Value6asUIntEv
UNKNOWN:_ZNK4Json5Value8asStringB5cxx11Ev
UNKNOWN:_ZNK4Json5Value8isMemberERKNSt7__cxx1112basic_stringIcSt11char_traitsIcESaIcEEE
UNKNOWN:_ZNK4Json5ValueeqERKS0_
UNKNOWN:_ZNK4Json5ValueixERKNSt7__cxx1112basic_stringIcSt11char_traitsIcESaIcEEE
UNKNOWN:_ZTIN4Glib5ErrorE
UNKNOWN:_ZTVN5boost15program_options13variables_mapE
UNKNOWN:xdgCacheHome
UNKNOWN:xdgConfigHome
UNKNOWN:xdgInitHandle
UNKNOWN:xdgRuntimeDirectory
UNKNOWN:xdgWipeHandle
libappindicator3.so.1:app_indicator_new
libappindicator3.so.1:app_indicator_set_attention_icon
libappindicator3.so.1:app_indicator_set_icon
libappindicator3.so.1:app_indicator_set_menu
libappindicator3.so.1:app_indicator_set_secondary_activate_target
libappindicator3.so.1:app_indicator_set_status
libboost_filesystem.so.1.72.0:_ZN5boost10filesystem4pathdVERKS1_
libboost_filesystem.so.1.72.0:_ZN5boost10filesystem6detail16create_directoryERKNS0_4pathEPNS_6system10error_codeE
libboost_filesystem.so.1.72.0:_ZN5boost10filesystem6detail4copyERKNS0_4pathES4_PNS_6system10error_codeE
libboost_filesystem.so.1.72.0:_ZN5boost10filesystem6detail6statusERKNS0_4pathEPNS_6system10error_codeE
libboost_filesystem.so.1.72.0:_ZNK5boost10filesystem4path11parent_pathEv
libboost_log.so.1.72.0:_ZN5boost3log11v2_mt_posix11record_view11public_data7destroyEPKS3_
libboost_log.so.1.72.0:_ZN5boost3log11v2_mt_posix14attribute_name18get_id_from_stringEPKc
libboost_log.so.1.72.0:_ZN5boost3log11v2_mt_posix3aux11this_thread6get_idEv
libboost_log.so.1.72.0:_ZN5boost3log11v2_mt_posix3aux12this_process6get_idEv
libboost_log.so.1.72.0:_ZN5boost3log11v2_mt_posix3aux17code_convert_implEPKwmRNSt7__cxx1112basic_stringIcSt11char_traitsIcESaIcEEEmRKSt6locale
libboost_log.so.1.72.0:_ZN5boost3log11v2_mt_posix3aux17once_block_sentry6commitEv
libboost_log.so.1.72.0:_ZN5boost3log11v2_mt_posix3aux17once_block_sentry8rollbackEv
libboost_log.so.1.72.0:_ZN5boost3log11v2_mt_posix3aux23default_attribute_names10process_idEv
libboost_log.so.1.72.0:_ZN5boost3log11v2_mt_posix3aux23default_attribute_names7line_idEv
libboost_log.so.1.72.0:_ZN5boost3log11v2_mt_posix3aux23default_attribute_names7messageEv
libboost_log.so.1.72.0:_ZN5boost3log11v2_mt_posix3aux23default_attribute_names9thread_idEv
libboost_log.so.1.72.0:_ZN5boost3log11v2_mt_posix3aux23default_attribute_names9timestampEv
libboost_log.so.1.72.0:_ZN5boost3log11v2_mt_posix3aux26attach_attribute_name_infoERNS_9exceptionERKNS1_14attribute_nameE
libboost_log.so.1.72.0:_ZN5boost3log11v2_mt_posix4core10set_filterERKNS1_6filterE
libboost_log.so.1.72.0:_ZN5boost3log11v2_mt_posix4core11open_recordERKNS1_13attribute_setE
libboost_log.so.1.72.0:_ZN5boost3log11v2_mt_posix4core16push_record_moveERNS1_6recordE
libboost_log.so.1.72.0:_ZN5boost3log11v2_mt_posix4core19set_logging_enabledEb
libboost_log.so.1.72.0:_ZN5boost3log11v2_mt_posix4core20add_global_attributeERKNS1_14attribute_nameERKNS1_9attributeE
libboost_log.so.1.72.0:_ZN5boost3log11v2_mt_posix4core3getEv
libboost_log.so.1.72.0:_ZN5boost3log11v2_mt_posix4core8add_sinkERKNS_10shared_ptrINS1_5sinks4sinkEEE
libboost_log.so.1.72.0:_ZN5boost3log11v2_mt_posix5sinks17text_file_backend14scan_for_filesENS2_4file11scan_methodEb
libboost_log.so.1.72.0:_ZN5boost3log11v2_mt_posix5sinks17text_file_backend18set_file_collectorERKNS_10shared_ptrINS2_4file9collectorEEE
libboost_log.so.1.72.0:_ZN5boost3log11v2_mt_posix5sinks17text_file_backend5flushEv
libboost_log.so.1.72.0:_ZN5boost3log11v2_mt_posix5sinks17text_file_backend7consumeERKNS1_11record_viewERKNSt7__cxx1112basic_stringIcSt11char_traitsIcESaIcEEE
libboost_log.so.1.72.0:_ZN5boost3log11v2_mt_posix5sinks17text_file_backend9constructERKNS_10filesystem4pathES7_St13_Ios_OpenmodemRKNS1_3aux14light_functionIFbvEEENS2_17auto_newline_modeEbb
libboost_log.so.1.72.0:_ZN5boost3log11v2_mt_posix5sinks17text_file_backendD1Ev
libboost_log.so.1.72.0:_ZN5boost3log11v2_mt_posix5sinks4file3aux14make_collectorERKNS_10filesystem4pathEmmm
libboost_log.so.1.72.0:_ZN5boost3log11v2_mt_posix7sources3aux18get_severity_levelEv
libboost_log.so.1.72.0:_ZN5boost3log11v2_mt_posix7trivial6logger3getEv
libboost_log.so.1.72.0:_ZN5boost3log11v2_mt_posix9attribute4impldlEPvm
libboost_log.so.1.72.0:_ZN5boost3log11v2_mt_posix9attribute4implnwEm
libboost_log.so.1.72.0:_ZNK5boost3log11v2_mt_posix19attribute_value_set3endEv
libboost_log.so.1.72.0:_ZNK5boost3log11v2_mt_posix19attribute_value_set4findENS1_14attribute_nameE
libboost_log.so.1.72.0:_ZNK5boost3log11v2_mt_posix3aux17once_block_sentry16enter_once_blockEv
libboost_log.so.1.72.0:_ZNK5boost3log11v2_mt_posix4core19get_logging_enabledEv
libboost_program_options.so.1.72.0:_ZN5boost15program_options11to_internalERKNSt7__cxx1112basic_stringIcSt11char_traitsIcESaIcEEE
libboost_program_options.so.1.72.0:_ZN5boost15program_options13variables_mapC1Ev
libboost_program_options.so.1.72.0:_ZN5boost15program_options19options_description11add_optionsEv
libboost_program_options.so.1.72.0:_ZN5boost15program_options19options_description21m_default_line_lengthE
libboost_program_options.so.1.72.0:_ZN5boost15program_options19options_descriptionC1ERKNSt7__cxx1112basic_stringIcSt11char_traitsIcESaIcEEEjj
libboost_program_options.so.1.72.0:_ZN5boost15program_options29options_description_easy_initclEPKcS3_
libboost_program_options.so.1.72.0:_ZN5boost15program_options5storeERKNS0_20basic_parsed_optionsIcEERNS0_13variables_mapEb
libboost_program_options.so.1.72.0:_ZN5boost15program_options6detail7cmdline21set_additional_parserENS_9function1ISt4pairINSt7__cxx1112basic_stringIcSt11char_traitsIcESaIcEEESA_ERKSA_EE
libboost_program_options.so.1.72.0:_ZN5boost15program_options6detail7cmdline23set_options_descriptionERKNS0_19options_descriptionE
libboost_program_options.so.1.72.0:_ZN5boost15program_options6detail7cmdline27get_canonical_option_prefixEv
libboost_program_options.so.1.72.0:_ZN5boost15program_options6detail7cmdline3runEv
libboost_program_options.so.1.72.0:_ZN5boost15program_options6detail7cmdline5styleEi
libboost_program_options.so.1.72.0:_ZN5boost15program_options6detail7cmdlineC2ERKSt6vectorINSt7__cxx1112basic_stringIcSt11char_traitsIcESaIcEEESaIS9_EE
libboost_program_options.so.1.72.0:_ZN5boost15program_options6notifyERNS0_13variables_mapE
libboost_program_options.so.1.72.0:_ZN5boost15program_optionslsERSoRKNS0_19options_descriptionE
libboost_thread.so.1.72.0:_ZN5boost6detail12get_tss_dataEPKv
libboost_thread.so.1.72.0:_ZN5boost6detail12set_tss_dataEPKvPFvPFvPvES3_ES5_S3_b
libbsd.so.0:pidfile_open
libbsd.so.0:pidfile_remove
libbsd.so.0:pidfile_write
libc.so.6:__cxa_atexit
libc.so.6:__libc_start_main
libc.so.6:__stack_chk_fail
libc.so.6:fcntl
libc.so.6:free
libc.so.6:getenv
libc.so.6:getpid
libc.so.6:getrandom
libc.so.6:gettimeofday
libc.so.6:inotify_add_watch
libc.so.6:inotify_init
libc.so.6:inotify_rm_watch
libc.so.6:localtime_r
libc.so.6:memcmp
libc.so.6:memcpy
libc.so.6:memmove
libc.so.6:memset
libc.so.6:strchr
libc.so.6:strcmp
libc.so.6:strerror
libc.so.6:strerror_r
libc.so.6:strlen
libc.so.6:strncpy
libc.so.6:strtok
libc.so.6:strtol
libc.so.6:strtoul
libc.so.6:time
libc.so.6:tolower
libc.so.6:wcslen
libc.so.6:wmemcpy
libc.so.6:wordexp
libc.so.6:wordfree
libcurl.so.4:curl_easy_cleanup
libcurl.so.4:curl_easy_getinfo
libcurl.so.4:curl_easy_init
libcurl.so.4:curl_easy_perform
libcurl.so.4:curl_easy_setopt
libcurl.so.4:curl_easy_strerror
libcurl.so.4:curl_slist_append
libcurl.so.4:curl_slist_free_all
libgcc_s.so.1:_Unwind_Resume
libgio-2.0.so.0:g_dbus_proxy_call
libgio-2.0.so.0:g_dbus_proxy_new_for_bus_sync
libgiomm-2.4.so.1:_ZN3Gio4DBus10Connection15register_objectERKN4Glib7ustringERKNS2_6RefPtrINS0_13InterfaceInfoEEERKNS0_15InterfaceVTableE
libgiomm-2.4.so.1:_ZN3Gio4DBus10Connection17unregister_objectEj
libgiomm-2.4.so.1:_ZN3Gio4DBus10unown_nameEj
libgiomm-2.4.so.1:_ZN3Gio4DBus15InterfaceVTableC1ERKN4sigc4slotIvRKN4Glib6RefPtrINS0_10ConnectionEEERKNS4_7ustringESC_SC_SC_RKNS4_20VariantContainerBaseERKNS5_INS0_16MethodInvocationEEEEERKNS3_IvRNS4_11VariantBaseES9_SC_SC_SC_SC_NS2_3nilEEERKNS3_IbS9_SC_SC_SC_SC_RKSN_SP_EE
libgiomm-2.4.so.1:_ZN3Gio4DBus15InterfaceVTableD1Ev
libgiomm-2.4.so.1:_ZN3Gio4DBus16MethodInvocation12return_errorERKN4Glib5ErrorE
libgiomm-2.4.so.1:_ZN3Gio4DBus16MethodInvocation12return_valueERKN4Glib20VariantContainerBaseE
libgiomm-2.4.so.1:_ZN3Gio4DBus5ErrorC1ENS1_4CodeERKN4Glib7ustringE
libgiomm-2.4.so.1:_ZN3Gio4DBus8NodeInfo14create_for_xmlERKN4Glib7ustringE
libgiomm-2.4.so.1:_ZN3Gio4DBus8NodeInfo16lookup_interfaceEv
libgiomm-2.4.so.1:_ZN3Gio4DBus8own_nameENS0_7BusTypeERKN4Glib7ustringERKN4sigc4slotIvRKNS2_6RefPtrINS0_10ConnectionEEES3_NS6_3nilESD_SD_SD_SD_EESG_SG_NS0_17BusNameOwnerFlagsE
libgiomm-2.4.so.1:_ZN3Gio4initEv
libgiomm-2.4.so.1:_ZNK3Gio4DBus13InterfaceInfo11unreferenceEv
libgiomm-2.4.so.1:_ZNK3Gio4DBus8NodeInfo11unreferenceEv
libglib-2.0.so.0:g_clear_error
libglib-2.0.so.0:g_error_free
libglib-2.0.so.0:g_free
libglib-2.0.so.0:g_source_remove
libglib-2.0.so.0:g_spawn_command_line_async
libglib-2.0.so.0:g_timeout_add
libglib-2.0.so.0:g_variant_get_child_value
libglib-2.0.so.0:g_variant_get_string
libglib-2.0.so.0:g_variant_n_children
libglib-2.0.so.0:g_variant_new
libglib-2.0.so.0:g_variant_unref
libglibmm-2.4.so.1:_ZN4Glib11VariantBaseD2Ev
libglibmm-2.4.so.1:_ZN4Glib20VariantContainerBase12create_tupleERKNS_11VariantBaseE
libglibmm-2.4.so.1:_ZN4Glib20VariantContainerBaseC1Ev
libglibmm-2.4.so.1:_ZN4Glib5ErrorD2Ev
libglibmm-2.4.so.1:_ZN4Glib7VariantINS_7ustringEE6createERKS1_
libglibmm-2.4.so.1:_ZN4Glib7VariantINS_7ustringEEC1Ev
libglibmm-2.4.so.1:_ZN4Glib7ustringC1EONSt7__cxx1112basic_stringIcSt11char_traitsIcESaIcEEE
libglibmm-2.4.so.1:_ZN4Glib7ustringC1EPKc
libglibmm-2.4.so.1:_ZN4Glib7ustringD1Ev
libglibmm-2.4.so.1:_ZN4GliblsERSoRKNS_7ustringE
libglibmm-2.4.so.1:_ZNK4Glib20VariantContainerBase9get_childERNS_11VariantBaseEm
libglibmm-2.4.so.1:_ZNK4Glib5Error4whatEv
libglibmm-2.4.so.1:_ZNK4Glib7VariantINS_7ustringEE3getEv
libglibmm-2.4.so.1:_ZNK4Glib7ustring7compareEPKc
libgobject-2.0.so.0:g_object_get
libgobject-2.0.so.0:g_object_new
libgobject-2.0.so.0:g_object_set
libgobject-2.0.so.0:g_object_unref
libgobject-2.0.so.0:g_signal_connect_data
libgobject-2.0.so.0:g_strdup_value_contents
libgobject-2.0.so.0:g_type_check_instance_cast
libgstreamer-1.0.so.0:gst_bus_add_watch
libgstreamer-1.0.so.0:gst_clock_get_time
libgstreamer-1.0.so.0:gst_clock_id_unref
libgstreamer-1.0.so.0:gst_clock_id_unschedule
libgstreamer-1.0.so.0:gst_clock_id_wait_async
libgstreamer-1.0.so.0:gst_clock_new_single_shot_id
libgstreamer-1.0.so.0:gst_deinit
libgstreamer-1.0.so.0:gst_element_factory_make
libgstreamer-1.0.so.0:gst_element_get_bus
libgstreamer-1.0.so.0:gst_element_get_state
libgstreamer-1.0.so.0:gst_element_get_type
libgstreamer-1.0.so.0:gst_element_set_state
libgstreamer-1.0.so.0:gst_init
libgstreamer-1.0.so.0:gst_message_parse_buffering
libgstreamer-1.0.so.0:gst_message_parse_error
libgstreamer-1.0.so.0:gst_message_parse_state_changed
libgstreamer-1.0.so.0:gst_message_parse_tag
libgstreamer-1.0.so.0:gst_mini_object_unref
libgstreamer-1.0.so.0:gst_object_get_type
libgstreamer-1.0.so.0:gst_object_unref
libgstreamer-1.0.so.0:gst_pipeline_get_clock
libgstreamer-1.0.so.0:gst_pipeline_get_type
libgstreamer-1.0.so.0:gst_resource_error_quark
libgstreamer-1.0.so.0:gst_tag_get_nick
libgstreamer-1.0.so.0:gst_tag_get_type
libgstreamer-1.0.so.0:gst_tag_list_foreach
libgstreamer-1.0.so.0:gst_tag_list_get_string_index
libgstreamer-1.0.so.0:gst_tag_list_get_tag_size
libgstreamer-1.0.so.0:gst_tag_list_get_value_index
libgtk-3.so.0:gtk_about_dialog_get_type
libgtk-3.so.0:gtk_box_get_type
libgtk-3.so.0:gtk_box_new
libgtk-3.so.0:gtk_box_pack_end
libgtk-3.so.0:gtk_box_pack_start
libgtk-3.so.0:gtk_check_menu_item_new_with_label
libgtk-3.so.0:gtk_check_menu_item_set_active
libgtk-3.so.0:gtk_clipboard_get
libgtk-3.so.0:gtk_clipboard_set_text
libgtk-3.so.0:gtk_dialog_get_content_area
libgtk-3.so.0:gtk_dialog_get_type
libgtk-3.so.0:gtk_dialog_new_with_buttons
libgtk-3.so.0:gtk_dialog_run
libgtk-3.so.0:gtk_entry_get_text
libgtk-3.so.0:gtk_entry_get_type
libgtk-3.so.0:gtk_entry_new
libgtk-3.so.0:gtk_entry_set_max_length
libgtk-3.so.0:gtk_entry_set_text
libgtk-3.so.0:gtk_init
libgtk-3.so.0:gtk_label_new
libgtk-3.so.0:gtk_main
libgtk-3.so.0:gtk_main_quit
libgtk-3.so.0:gtk_menu_get_type
libgtk-3.so.0:gtk_menu_item_get_type
libgtk-3.so.0:gtk_menu_item_new_with_label
libgtk-3.so.0:gtk_menu_item_set_label
libgtk-3.so.0:gtk_menu_item_set_submenu
libgtk-3.so.0:gtk_menu_new
libgtk-3.so.0:gtk_menu_shell_append
libgtk-3.so.0:gtk_menu_shell_get_type
libgtk-3.so.0:gtk_separator_menu_item_new
libgtk-3.so.0:gtk_widget_destroy
libgtk-3.so.0:gtk_widget_get_type
libgtk-3.so.0:gtk_widget_set_sensitive
libgtk-3.so.0:gtk_widget_show
libgtk-3.so.0:gtk_widget_show_all
libgtk-3.so.0:gtk_window_get_type
libgtk-3.so.0:gtk_window_present
libgtk-3.so.0:gtk_window_set_default_icon_from_file
libgtk-3.so.0:gtk_window_set_position
libgtk-3.so.0:gtk_window_set_resizable
libm.so.6:lround
libm.so.6:round
libnotify.so.4:notify_init
libnotify.so.4:notify_notification_close
libnotify.so.4:notify_notification_new
libnotify.so.4:notify_notification_set_timeout
libnotify.so.4:notify_notification_set_urgency
libnotify.so.4:notify_notification_show
libnotify.so.4:notify_notification_update
libnotify.so.4:notify_uninit
libpthread.so.0:__errno_location
libpthread.so.0:close
libpthread.so.0:pthread_mutex_destroy
libpthread.so.0:pthread_mutex_init
libpthread.so.0:pthread_mutex_lock
libpthread.so.0:pthread_mutex_trylock
libpthread.so.0:pthread_mutex_unlock
libpthread.so.0:pthread_mutexattr_destroy
libpthread.so.0:pthread_mutexattr_init
libpthread.so.0:pthread_mutexattr_settype
libpthread.so.0:pthread_rwlock_destroy
libpthread.so.0:pthread_rwlock_init
libpthread.so.0:pthread_rwlock_rdlock
libpthread.so.0:pthread_rwlock_unlock
libpthread.so.0:pthread_rwlock_wrlock
libpthread.so.0:read
libsigc-2.0.so.0:_ZN4sigc9slot_baseC2EPNS_8internal8slot_repE
libsigc-2.0.so.0:_ZN4sigc9slot_baseC2Ev
libsigc-2.0.so.0:_ZN4sigc9slot_baseD2Ev
libsigc-2.0.so.0:_ZN4sigc9trackableC2Ev
libstdc++.so.6:_ZNKSt11logic_error4whatEv
libstdc++.so.6:_ZNKSt13runtime_error4whatEv
libstdc++.so.6:_ZNKSt3_V214error_category10_M_messageB5cxx11Ei
libstdc++.so.6:_ZNKSt5ctypeIcE13_M_widen_initEv
libstdc++.so.6:_ZNKSt6locale2id5_M_idEv
libstdc++.so.6:_ZNKSt7__cxx1112basic_stringIcSt11char_traitsIcESaIcEE4findEPKcmm
libstdc++.so.6:_ZNKSt7__cxx1112basic_stringIcSt11char_traitsIcESaIcEE4findEcm
libstdc++.so.6:_ZNKSt7__cxx1112basic_stringIcSt11char_traitsIcESaIcEE5rfindEPKcmm
libstdc++.so.6:_ZNKSt7__cxx1112basic_stringIcSt11char_traitsIcESaIcEE5rfindEcm
libstdc++.so.6:_ZNKSt7__cxx1112basic_stringIcSt11char_traitsIcESaIcEE7compareEPKc
libstdc++.so.6:_ZNKSt7__cxx1112basic_stringIcSt11char_traitsIcESaIcEE7compareEmmRKS4_
libstdc++.so.6:_ZNSdD2Ev
libstdc++.so.6:_ZNSi10_M_extractIlEERSiRT_
libstdc++.so.6:_ZNSo3putEc
libstdc++.so.6:_ZNSo5flushEv
libstdc++.so.6:_ZNSo6sentryC2ERSo
libstdc++.so.6:_ZNSo6sentryD2Ev
libstdc++.so.6:_ZNSo9_M_insertIlEERSoT_
libstdc++.so.6:_ZNSo9_M_insertImEERSoT_
libstdc++.so.6:_ZNSolsEi
libstdc++.so.6:_ZNSt11logic_errorC2ERKS_
libstdc++.so.6:_ZNSt11regex_errorD1Ev
libstdc++.so.6:_ZNSt12__basic_fileIcED1Ev
libstdc++.so.6:_ZNSt12bad_weak_ptrD1Ev
libstdc++.so.6:_ZNSt12out_of_rangeC1EPKc
libstdc++.so.6:_ZNSt12out_of_rangeC2ERKNSt7__cxx1112basic_stringIcSt11char_traitsIcESaIcEEE
libstdc++.so.6:_ZNSt12out_of_rangeD1Ev
libstdc++.so.6:_ZNSt12out_of_rangeD2Ev
libstdc++.so.6:_ZNSt13basic_filebufIcSt11char_traitsIcEE4openEPKcSt13_Ios_Openmode
libstdc++.so.6:_ZNSt13basic_filebufIcSt11char_traitsIcEE5closeEv
libstdc++.so.6:_ZNSt13basic_filebufIcSt11char_traitsIcEEC1Ev
libstdc++.so.6:_ZNSt13basic_filebufIcSt11char_traitsIcEED1Ev
libstdc++.so.6:_ZNSt13runtime_errorC1EPKc
libstdc++.so.6:_ZNSt13runtime_errorC2EPKc
libstdc++.so.6:_ZNSt13runtime_errorC2ERKNSt7__cxx1112basic_stringIcSt11char_traitsIcESaIcEEE
libstdc++.so.6:_ZNSt13runtime_errorC2ERKS_
libstdc++.so.6:_ZNSt13runtime_errorD1Ev
libstdc++.so.6:_ZNSt13runtime_errorD2Ev
libstdc++.so.6:_ZNSt14basic_ifstreamIcSt11char_traitsIcEED1Ev
libstdc++.so.6:_ZNSt14basic_ofstreamIcSt11char_traitsIcEED1Ev
libstdc++.so.6:_ZNSt15basic_streambufIcSt11char_traitsIcEE5imbueERKSt6locale
libstdc++.so.6:_ZNSt15basic_streambufIcSt11char_traitsIcEE5uflowEv
libstdc++.so.6:_ZNSt15basic_streambufIcSt11char_traitsIcEE6setbufEPcl
libstdc++.so.6:_ZNSt15basic_streambufIcSt11char_traitsIcEE6xsgetnEPcl
libstdc++.so.6:_ZNSt15basic_streambufIcSt11char_traitsIcEE7seekoffElSt12_Ios_SeekdirSt13_Ios_Openmode
libstdc++.so.6:_ZNSt15basic_streambufIcSt11char_traitsIcEE7seekposESt4fposI11__mbstate_tESt13_Ios_Openmode
libstdc++.so.6:_ZNSt15basic_streambufIcSt11char_traitsIcEE9pbackfailEi
libstdc++.so.6:_ZNSt15basic_streambufIcSt11char_traitsIcEE9showmanycEv
libstdc++.so.6:_ZNSt15basic_streambufIcSt11char_traitsIcEE9underflowEv
libstdc++.so.6:_ZNSt3_V214error_categoryD2Ev
libstdc++.so.6:_ZNSt3_V216generic_categoryEv
libstdc++.so.6:_ZNSt5ctypeIcE2idE
libstdc++.so.6:_ZNSt6locale6globalERKS_
libstdc++.so.6:_ZNSt6locale7classicEv
libstdc++.so.6:_ZNSt6localeC1EPKc
libstdc++.so.6:_ZNSt6localeC1ERKS_
libstdc++.so.6:_ZNSt6localeC1Ev
libstdc++.so.6:_ZNSt6localeD1Ev
libstdc++.so.6:_ZNSt6localeaSERKS_
libstdc++.so.6:_ZNSt7__cxx1112basic_stringIcSt11char_traitsIcESaIcEE10_M_disposeEv
libstdc++.so.6:_ZNSt7__cxx1112basic_stringIcSt11char_traitsIcESaIcEE10_M_replaceEmmPKcm
libstdc++.so.6:_ZNSt7__cxx1112basic_stringIcSt11char_traitsIcESaIcEE12_M_constructEmc
libstdc++.so.6:_ZNSt7__cxx1112basic_stringIcSt11char_traitsIcESaIcEE14_M_replace_auxEmmmc
libstdc++.so.6:_ZNSt7__cxx1112basic_stringIcSt11char_traitsIcESaIcEE4swapERS4_
libstdc++.so.6:_ZNSt7__cxx1112basic_stringIcSt11char_traitsIcESaIcEE6appendEPKc
libstdc++.so.6:_ZNSt7__cxx1112basic_stringIcSt11char_traitsIcESaIcEE6resizeEmc
libstdc++.so.6:_ZNSt7__cxx1112basic_stringIcSt11char_traitsIcESaIcEE7reserveEm
libstdc++.so.6:_ZNSt7__cxx1112basic_stringIcSt11char_traitsIcESaIcEE8_M_eraseEmm
libstdc++.so.6:_ZNSt7__cxx1112basic_stringIcSt11char_traitsIcESaIcEE9_M_appendEPKcm
libstdc++.so.6:_ZNSt7__cxx1112basic_stringIcSt11char_traitsIcESaIcEE9_M_assignERKS4_
libstdc++.so.6:_ZNSt7__cxx1112basic_stringIcSt11char_traitsIcESaIcEE9_M_createERmm
libstdc++.so.6:_ZNSt7__cxx1112basic_stringIcSt11char_traitsIcESaIcEE9_M_mutateEmmPKcm
libstdc++.so.6:_ZNSt7__cxx1112basic_stringIcSt11char_traitsIcESaIcEEC1EPKcRKS3_
libstdc++.so.6:_ZNSt7__cxx1112basic_stringIcSt11char_traitsIcESaIcEEC1ERKS4_
libstdc++.so.6:_ZNSt7__cxx1112basic_stringIcSt11char_traitsIcESaIcEED1Ev
libstdc++.so.6:_ZNSt7__cxx1112basic_stringIcSt11char_traitsIcESaIcEEaSEOS4_
libstdc++.so.6:_ZNSt7__cxx1112basic_stringIwSt11char_traitsIwESaIwEE10_M_disposeEv
libstdc++.so.6:_ZNSt7__cxx1112basic_stringIwSt11char_traitsIwESaIwEE10_M_replaceEmmPKwm
libstdc++.so.6:_ZNSt7__cxx1112basic_stringIwSt11char_traitsIwESaIwEE9_M_assignERKS4_
libstdc++.so.6:_ZNSt7__cxx1112basic_stringIwSt11char_traitsIwESaIwEE9_M_createERmm
libstdc++.so.6:_ZNSt7__cxx1112basic_stringIwSt11char_traitsIwESaIwEEC1EPKwRKS3_
libstdc++.so.6:_ZNSt7__cxx1115basic_stringbufIcSt11char_traitsIcESaIcEE7_M_syncEPcmm
libstdc++.so.6:_ZNSt7__cxx1118basic_stringstreamIcSt11char_traitsIcESaIcEED1Ev
libstdc++.so.6:_ZNSt7__cxx1119basic_istringstreamIcSt11char_traitsIcESaIcEED1Ev
libstdc++.so.6:_ZNSt8ios_base3appE
libstdc++.so.6:_ZNSt8ios_base4InitC1Ev
libstdc++.so.6:_ZNSt8ios_base4InitD1Ev
libstdc++.so.6:_ZNSt8ios_baseC2Ev
libstdc++.so.6:_ZNSt8ios_baseD2Ev
libstdc++.so.6:_ZNSt9basic_iosIcSt11char_traitsIcEE4initEPSt15basic_streambufIcS1_E
libstdc++.so.6:_ZNSt9basic_iosIcSt11char_traitsIcEE5clearESt12_Ios_Iostate
libstdc++.so.6:_ZNSt9basic_iosIcSt11char_traitsIcEE5imbueERKSt6locale
libstdc++.so.6:_ZSt16__ostream_insertIcSt11char_traitsIcEERSt13basic_ostreamIT_T0_ES6_PKS3_l
libstdc++.so.6:_ZSt16__throw_bad_castv
libstdc++.so.6:_ZSt17__throw_bad_allocv
libstdc++.so.6:_ZSt18_Rb_tree_decrementPSt18_Rb_tree_node_base
libstdc++.so.6:_ZSt18_Rb_tree_incrementPKSt18_Rb_tree_node_base
libstdc++.so.6:_ZSt18_Rb_tree_incrementPSt18_Rb_tree_node_base
libstdc++.so.6:_ZSt18uncaught_exceptionv
libstdc++.so.6:_ZSt19__throw_logic_errorPKc
libstdc++.so.6:_ZSt19__throw_regex_errorNSt15regex_constants10error_typeE
libstdc++.so.6:_ZSt19uncaught_exceptionsv
libstdc++.so.6:_ZSt20__throw_length_errorPKc
libstdc++.so.6:_ZSt20__throw_out_of_rangePKc
libstdc++.so.6:_ZSt20__throw_system_errori
libstdc++.so.6:_ZSt24__throw_invalid_argumentPKc
libstdc++.so.6:_ZSt24__throw_out_of_range_fmtPKcz
libstdc++.so.6:_ZSt25__throw_bad_function_callv
libstdc++.so.6:_ZSt28_Rb_tree_rebalance_for_erasePSt18_Rb_tree_node_baseRS_
libstdc++.so.6:_ZSt29_Rb_tree_insert_and_rebalancebPSt18_Rb_tree_node_baseS0_RS_
libstdc++.so.6:_ZSt4cerr
libstdc++.so.6:_ZSt4cout
libstdc++.so.6:_ZSt4endlIcSt11char_traitsIcEERSt13basic_ostreamIT_T0_ES6_
libstdc++.so.6:_ZSt7getlineIcSt11char_traitsIcESaIcEERSt13basic_istreamIT_T0_ES7_RNSt7__cxx1112basic_stringIS4_S5_T1_EES4_
libstdc++.so.6:_ZSt9terminatev
libstdc++.so.6:_ZSt9use_facetINSt7__cxx117collateIcEEERKT_RKSt6locale
libstdc++.so.6:_ZSt9use_facetISt5ctypeIcEERKT_RKSt6locale
libstdc++.so.6:_ZSt9use_facetISt7codecvtIwc11__mbstate_tEERKT_RKSt6locale
libstdc++.so.6:_ZSt9use_facetISt8time_putIcSt19ostreambuf_iteratorIcSt11char_traitsIcEEEERKT_RKSt6locale
libstdc++.so.6:_ZStlsISt11char_traitsIcEERSt13basic_ostreamIcT_ES5_PKc
libstdc++.so.6:_ZTINSt3_V214error_categoryE
libstdc++.so.6:_ZTINSt6locale5facetE
libstdc++.so.6:_ZTISt11logic_error
libstdc++.so.6:_ZTISt11regex_error
libstdc++.so.6:_ZTISt12bad_weak_ptr
libstdc++.so.6:_ZTISt12out_of_range
libstdc++.so.6:_ZTISt13runtime_error
libstdc++.so.6:_ZTISt15basic_streambufIcSt11char_traitsIcEE
libstdc++.so.6:_ZTISt16invalid_argument
libstdc++.so.6:_ZTISt5ctypeIcE
libstdc++.so.6:_ZTISt9exception
libstdc++.so.6:_ZTIj
libstdc++.so.6:_ZTIv
libstdc++.so.6:_ZTTNSt7__cxx1118basic_stringstreamIcSt11char_traitsIcESaIcEEE
libstdc++.so.6:_ZTTNSt7__cxx1119basic_istringstreamIcSt11char_traitsIcESaIcEEE
libstdc++.so.6:_ZTTSt14basic_ifstreamIcSt11char_traitsIcEE
libstdc++.so.6:_ZTTSt14basic_ofstreamIcSt11char_traitsIcEE
libstdc++.so.6:_ZTVN10__cxxabiv116__enum_type_infoE
libstdc++.so.6:_ZTVN10__cxxabiv117__class_type_infoE
libstdc++.so.6:_ZTVN10__cxxabiv120__si_class_type_infoE
libstdc++.so.6:_ZTVN10__cxxabiv121__vmi_class_type_infoE
libstdc++.so.6:_ZTVNSt7__cxx1115basic_stringbufIcSt11char_traitsIcESaIcEEE
libstdc++.so.6:_ZTVNSt7__cxx1118basic_stringstreamIcSt11char_traitsIcESaIcEEE
libstdc++.so.6:_ZTVNSt7__cxx1119basic_istringstreamIcSt11char_traitsIcESaIcEEE
libstdc++.so.6:_ZTVSo
libstdc++.so.6:_ZTVSt11regex_error
libstdc++.so.6:_ZTVSt12bad_weak_ptr
libstdc++.so.6:_ZTVSt13basic_filebufIcSt11char_traitsIcEE
libstdc++.so.6:_ZTVSt14basic_ifstreamIcSt11char_traitsIcEE
libstdc++.so.6:_ZTVSt14basic_ofstreamIcSt11char_traitsIcEE
libstdc++.so.6:_ZTVSt15basic_streambufIcSt11char_traitsIcEE
libstdc++.so.6:_ZTVSt9basic_iosIcSt11char_traitsIcEE
libstdc++.so.6:_ZdaPv
libstdc++.so.6:_ZdlPvm
libstdc++.so.6:_Znam
libstdc++.so.6:_Znwm
libstdc++.so.6:__cxa_allocate_exception
libstdc++.so.6:__cxa_bad_cast
libstdc++.so.6:__cxa_begin_catch
libstdc++.so.6:__cxa_end_catch
libstdc++.so.6:__cxa_free_exception
libstdc++.so.6:__cxa_guard_abort
libstdc++.so.6:__cxa_guard_acquire
libstdc++.so.6:__cxa_guard_release
libstdc++.so.6:__cxa_pure_virtual
libstdc++.so.6:__cxa_rethrow
libstdc++.so.6:__cxa_throw
libstdc++.so.6:__dynamic_cast
libstdc++.so.6:__gxx_personality_v0
libwx_baseu-3.0.so.0:_Z10wxOnAssertPKciS0_S0_S0_
libwx_baseu-3.0.so.0:_Z11wxGetUserIdv
libwx_baseu-3.0.so.0:_Z12wxIsReadableRK8wxString
libwx_baseu-3.0.so.0:_Z14wxNewEventTypev
libwx_baseu-3.0.so.0:_Z19wxGet_wxConvLibcPtrv
libwx_baseu-3.0.so.0:_Z19wxGet_wxConvUTF8Ptrv
libwx_baseu-3.0.so.0:_Z6wxTrapv
libwx_baseu-3.0.so.0:_Z7wxEntryRiPPc
libwx_baseu-3.0.so.0:_ZN10wxFileName6AssignERK8wxString12wxPathFormat
libwx_baseu-3.0.so.0:_ZN10wxListBase4InitE9wxKeyType
libwx_baseu-3.0.so.0:_ZN10wxListBaseD2Ev
libwx_baseu-3.0.so.0:_ZN10wxNodeBaseC2EP10wxListBasePS_S2_PvRK9wxListKey
libwx_baseu-3.0.so.0:_ZN11wxClassInfo8RegisterEv
libwx_baseu-3.0.so.0:_ZN11wxClassInfo8sm_firstE
libwx_baseu-3.0.so.0:_ZN11wxClassInfoD1Ev
libwx_baseu-3.0.so.0:_ZN12wxEvtHandler10QueueEventEP7wxEvent
libwx_baseu-3.0.so.0:_ZN12wxEvtHandler12ProcessEventER7wxEvent
libwx_baseu-3.0.so.0:_ZN12wxEvtHandler15DoSetClientDataEPv
libwx_baseu-3.0.so.0:_ZN12wxEvtHandler16SearchEventTableER12wxEventTableR7wxEvent
libwx_baseu-3.0.so.0:_ZN12wxEvtHandler17DoSetClientObjectEP12wxClientData
libwx_baseu-3.0.so.0:_ZN12wxEvtHandler19ProcessEventLocallyER7wxEvent
libwx_baseu-3.0.so.0:_ZN12wxEvtHandler8DoTryAppER7wxEvent
libwx_baseu-3.0.so.0:_ZN12wxEvtHandler8TryAfterER7wxEvent
libwx_baseu-3.0.so.0:_ZN12wxEvtHandler9TryBeforeER7wxEvent
libwx_baseu-3.0.so.0:_ZN12wxEvtHandlerC2Ev
libwx_baseu-3.0.so.0:_ZN12wxEvtHandlerD2Ev
libwx_baseu-3.0.so.0:_ZN12wxFileConfigC1ERK8wxStringS2_S2_S2_lRK8wxMBConv
libwx_baseu-3.0.so.0:_ZN13wxArrayString4InitEb
libwx_baseu-3.0.so.0:_ZN13wxArrayStringD1Ev
libwx_baseu-3.0.so.0:_ZN14wxBaseArrayIntD2Ev
libwx_baseu-3.0.so.0:_ZN14wxEventFunctorD2Ev
libwx_baseu-3.0.so.0:_ZN14wxFormatString7AsWCharEv
libwx_baseu-3.0.so.0:_ZN14wxTranslations21GetUntranslatedStringERK8wxString
libwx_baseu-3.0.so.0:_ZN14wxTranslations3GetEv
libwx_baseu-3.0.so.0:_ZN15wxCmdLineParser8AddParamERK8wxString18wxCmdLineParamTypei
libwx_baseu-3.0.so.0:_ZN16wxAppConsoleBase10OnLaunchedEv
libwx_baseu-3.0.so.0:_ZN16wxAppConsoleBase10SetCLocaleEv
libwx_baseu-3.0.so.0:_ZN16wxAppConsoleBase11FilterEventER7wxEvent
libwx_baseu-3.0.so.0:_ZN16wxAppConsoleBase12ExitMainLoopEv
libwx_baseu-3.0.so.0:_ZN16wxAppConsoleBase12ms_appInitFnE
libwx_baseu-3.0.so.0:_ZN16wxAppConsoleBase13OnCmdLineHelpER15wxCmdLineParser
libwx_baseu-3.0.so.0:_ZN16wxAppConsoleBase14OnCmdLineErrorER15wxCmdLineParser
libwx_baseu-3.0.so.0:_ZN16wxAppConsoleBase14ms_appInstanceE
libwx_baseu-3.0.so.0:_ZN16wxAppConsoleBase17CheckBuildOptionsEPKcS1_
libwx_baseu-3.0.so.0:_ZN16wxAppConsoleBase20OnUnhandledExceptionEv
libwx_baseu-3.0.so.0:_ZN16wxAppConsoleBase20ProcessPendingEventsEv
libwx_baseu-3.0.so.0:_ZN16wxAppConsoleBase21OnExceptionInMainLoopEv
libwx_baseu-3.0.so.0:_ZN16wxAppConsoleBase4ExitEv
libwx_baseu-3.0.so.0:_ZN16wxAppConsoleBase6OnInitEv
libwx_baseu-3.0.so.0:_ZN16wxAppConsoleBase7PendingEv
libwx_baseu-3.0.so.0:_ZN16wxAppConsoleBase8DispatchEv
libwx_baseu-3.0.so.0:_ZN16wxAppConsoleBase8MainLoopEv
libwx_baseu-3.0.so.0:_ZN16wxAppConsoleBase8OnAssertEPKwiS1_S1_
libwx_baseu-3.0.so.0:_ZN16wxEventHashTableC1ERK12wxEventTable
libwx_baseu-3.0.so.0:_ZN16wxEventHashTableD1Ev
libwx_baseu-3.0.so.0:_ZN17_wxHashTableBase211DeleteNodesEmPP21_wxHashTable_NodeBasePFvS1_E
libwx_baseu-3.0.so.0:_ZN21wxClientDataContainerC2Ev
libwx_baseu-3.0.so.0:_ZN21wxClientDataContainerD2Ev
libwx_baseu-3.0.so.0:_ZN23wxSingleInstanceChecker6CreateERK8wxStringS2_
libwx_baseu-3.0.so.0:_ZN23wxSingleInstanceCheckerD1Ev
libwx_baseu-3.0.so.0:_ZN5wxLog11ms_logLevelE
libwx_baseu-3.0.so.0:_ZN5wxLog17GetComponentLevelE8wxString
libwx_baseu-3.0.so.0:_ZN5wxLog19EnableThreadLoggingEb
libwx_baseu-3.0.so.0:_ZN5wxLog22IsThreadLoggingEnabledEv
libwx_baseu-3.0.so.0:_ZN5wxLog5OnLogEmRK8wxStringRK15wxLogRecordInfo
libwx_baseu-3.0.so.0:_ZN5wxLog8ms_doLogE
libwx_baseu-3.0.so.0:_ZN7wxMutex4LockEv
libwx_baseu-3.0.so.0:_ZN7wxMutex6UnlockEv
libwx_baseu-3.0.so.0:_ZN8wxMBConvD2Ev
libwx_baseu-3.0.so.0:_ZN8wxObject3RefERKS_
libwx_baseu-3.0.so.0:_ZN8wxObject5UnRefEv
libwx_baseu-3.0.so.0:_ZN8wxString10ConvertStrEPKcmRK8wxMBConv
libwx_baseu-3.0.so.0:_ZN8wxString4nposE
libwx_baseu-3.0.so.0:_ZN8wxString7FormatVERKS_P13__va_list_tag
libwx_baseu-3.0.so.0:_ZN8wxThread11TestDestroyEv
libwx_baseu-3.0.so.0:_ZN8wxThread12GetCurrentIdEv
libwx_baseu-3.0.so.0:_ZN8wxThread15ms_idMainThreadE
libwx_baseu-3.0.so.0:_ZN8wxThreadD2Ev
libwx_baseu-3.0.so.0:_ZN9wxPrivate18GetUntypedNullDataEv
libwx_baseu-3.0.so.0:_ZNK10wxFileName11GetFullNameEv
libwx_baseu-3.0.so.0:_ZNK10wxFileName11GetFullPathE12wxPathFormat
libwx_baseu-3.0.so.0:_ZNK10wxFileName6ExistsEi
libwx_baseu-3.0.so.0:_ZNK10wxFileName7GetPathEi12wxPathFormat
libwx_baseu-3.0.so.0:_ZNK10wxListBase4FindERK9wxListKey
libwx_baseu-3.0.so.0:_ZNK12wxConfigBase4ReadERK8wxStringPll
libwx_baseu-3.0.so.0:_ZNK12wxEvtHandler13GetEventTableEv
libwx_baseu-3.0.so.0:_ZNK12wxEvtHandler15DoGetClientDataEv
libwx_baseu-3.0.so.0:_ZNK12wxEvtHandler17DoGetClientObjectEv
libwx_baseu-3.0.so.0:_ZNK12wxEvtHandler17GetEventHashTableEv
libwx_baseu-3.0.so.0:_ZNK14wxTranslations19GetTranslatedStringERK8wxStringS2_
libwx_baseu-3.0.so.0:_ZNK15wxCmdLineParser13GetParamCountEv
libwx_baseu-3.0.so.0:_ZNK15wxCmdLineParser8GetParamEm
libwx_baseu-3.0.so.0:_ZNK16wxAppConsoleBase10GetAppNameEv
libwx_baseu-3.0.so.0:_ZNK16wxAppConsoleBase11HandleEventEP12wxEvtHandlerMS0_FvR7wxEventES3_
libwx_baseu-3.0.so.0:_ZNK16wxAppConsoleBase16CallEventHandlerEP12wxEvtHandlerR14wxEventFunctorR7wxEvent
libwx_baseu-3.0.so.0:_ZNK23wxSingleInstanceChecker18DoIsAnotherRunningEv
libwx_baseu-3.0.so.0:_ZNK8wxObject12CloneRefDataEPK12wxRefCounter
libwx_baseu-3.0.so.0:_ZNK8wxObject13CreateRefDataEv
libwx_baseu-3.0.so.0:_ZNK8wxString6AsCharERK8wxMBConv
libwx_baseu-3.0.so.0:_ZTI10wxListBase
libwx_baseu-3.0.so.0:_ZTI14wxEventFunctor
libwx_baseu-3.0.so.0:_ZTI8wxThread
libwx_baseu-3.0.so.0:_ZTV10wxConvAuto
libwx_baseu-3.0.so.0:_ZTV10wxListBase
libwx_baseu-3.0.so.0:_ZTV16wxObjectListNode
libwx_baseu-3.0.so.0:_ZTV8wxObject
libwx_baseu-3.0.so.0:_ZThn88_N16wxAppConsoleBase11FilterEventER7wxEvent
libwx_baseu-3.0.so.0:_ZplPKcRK8wxString
libwx_baseu-3.0.so.0:_ZplRK8wxString9wxUniChar
libwx_baseu-3.0.so.0:_ZplRK8wxStringPKc
libwx_baseu-3.0.so.0:_ZplRK8wxStringS1_
libwx_baseu-3.0.so.0:wxConvLibcPtr
libwx_baseu-3.0.so.0:wxConvUTF8Ptr
libwx_baseu-3.0.so.0:wxEVT_NULL
libwx_baseu-3.0.so.0:wxEmptyString
libwx_baseu-3.0.so.0:wxLOG_COMPONENT
libwx_baseu-3.0.so.0:wxTheAssertHandler
libwx_baseu-3.0.so.0:wxTrapInAssert
libwx_gtk2u_adv-3.0.so.0:_Z10wxAboutBoxRK17wxAboutDialogInfoP8wxWindow
libwx_gtk2u_core-3.0.so.0:_Z12wxMessageBoxRK8wxStringS1_lP8wxWindowii
libwx_gtk2u_core-3.0.so.0:_Z22wxInitAllImageHandlersv
libwx_gtk2u_core-3.0.so.0:_ZN10wxCheckBox6CreateEP8wxWindowiRK8wxStringRK7wxPointRK6wxSizelRK11wxValidatorS4_
libwx_gtk2u_core-3.0.so.0:_ZN10wxFontBaseD2Ev
libwx_gtk2u_core-3.0.so.0:_ZN10wxListCtrl12ms_classInfoE
libwx_gtk2u_core-3.0.so.0:_ZN10wxMemoryDC12SelectObjectER8wxBitmap
libwx_gtk2u_core-3.0.so.0:_ZN10wxMemoryDCC1Ev
libwx_gtk2u_core-3.0.so.0:_ZN10wxMenuBase4InitEl
libwx_gtk2u_core-3.0.so.0:_ZN10wxMenuBaseD2Ev
libwx_gtk2u_core-3.0.so.0:_ZN10wxTextCtrlC1EP8wxWindowiRK8wxStringRK7wxPointRK6wxSizelRK11wxValidatorS4_
libwx_gtk2u_core-3.0.so.0:_ZN11wxFrameBase10DoGiveHelpERK8wxStringb
libwx_gtk2u_core-3.0.so.0:_ZN11wxFrameBase10SetMenuBarEP9wxMenuBar
libwx_gtk2u_core-3.0.so.0:_ZN11wxFrameBase13CreateToolBarEliRK8wxString
libwx_gtk2u_core-3.0.so.0:_ZN11wxFrameBase13DoMenuUpdatesEP6wxMenu
libwx_gtk2u_core-3.0.so.0:_ZN11wxFrameBase13SetStatusTextERK8wxStringi
libwx_gtk2u_core-3.0.so.0:_ZN11wxFrameBase13sm_eventTableE
libwx_gtk2u_core-3.0.so.0:_ZN11wxFrameBase14OnInternalIdleEv
libwx_gtk2u_core-3.0.so.0:_ZN11wxFrameBase14UpdateWindowUIEl
libwx_gtk2u_core-3.0.so.0:_ZN11wxFrameBase15CreateStatusBarEiliRK8wxString
libwx_gtk2u_core-3.0.so.0:_ZN11wxFrameBase15OnCreateToolBarEliRK8wxString
libwx_gtk2u_core-3.0.so.0:_ZN11wxFrameBase15SetStatusWidthsEiPKi
libwx_gtk2u_core-3.0.so.0:_ZN11wxFrameBase17OnCreateStatusBarEiliRK8wxString
libwx_gtk2u_core-3.0.so.0:_ZN11wxFrameBaseC2Ev
libwx_gtk2u_core-3.0.so.0:_ZN11wxFrameBaseD2Ev
libwx_gtk2u_core-3.0.so.0:_ZN11wxSizerItemC1EP7wxSizeriiiP8wxObject
libwx_gtk2u_core-3.0.so.0:_ZN11wxSizerItemC1EP8wxWindowiiiP8wxObject
libwx_gtk2u_core-3.0.so.0:_ZN11wxSizerItemC1EiiiiiP8wxObject
libwx_gtk2u_core-3.0.so.0:_ZN12wxDataFormatC1E14wxDataFormatId
libwx_gtk2u_core-3.0.so.0:_ZN12wxDataObjectC2Ev
libwx_gtk2u_core-3.0.so.0:_ZN12wxDataObjectD2Ev
libwx_gtk2u_core-3.0.so.0:_ZN12wxDialogBase11IsEscapeKeyERK10wxKeyEvent
libwx_gtk2u_core-3.0.so.0:_ZN12wxDialogBase13sm_eventTableE
libwx_gtk2u_core-3.0.so.0:_ZN12wxDialogBase15ShowWindowModalEv
libwx_gtk2u_core-3.0.so.0:_ZN12wxDialogBase18DoLayoutAdaptationEv
libwx_gtk2u_core-3.0.so.0:_ZN12wxDialogBase21CanDoLayoutAdaptationEv
libwx_gtk2u_core-3.0.so.0:_ZN12wxDialogBase26CreateSeparatedButtonSizerEl
libwx_gtk2u_core-3.0.so.0:_ZN12wxDialogBase26SendWindowModalDialogEventEi
libwx_gtk2u_core-3.0.so.0:_ZN12wxDialogBaseC2Ev
libwx_gtk2u_core-3.0.so.0:_ZN12wxDropSource10DoDragDropEi
libwx_gtk2u_core-3.0.so.0:_ZN12wxDropSourceC1EP8wxWindowRK6wxIconS4_S4_
libwx_gtk2u_core-3.0.so.0:_ZN12wxDropSourceD1Ev
libwx_gtk2u_core-3.0.so.0:_ZN12wxDropTarget10OnDragOverEii12wxDragResult
libwx_gtk2u_core-3.0.so.0:_ZN12wxDropTarget6OnDropEii
libwx_gtk2u_core-3.0.so.0:_ZN12wxDropTarget7GetDataEv
libwx_gtk2u_core-3.0.so.0:_ZN12wxFileDialog9ShowModalEv
libwx_gtk2u_core-3.0.so.0:_ZN12wxFileDialogC1EP8wxWindowRK8wxStringS4_S4_S4_lRK7wxPointRK6wxSizeS4_
libwx_gtk2u_core-3.0.so.0:_ZN12wxFileDialogD1Ev
libwx_gtk2u_core-3.0.so.0:_ZN12wxStaticTextC1EP8wxWindowiRK8wxStringRK7wxPointRK6wxSizelS4_
libwx_gtk2u_core-3.0.so.0:_ZN12wxWindowBase10GetCaptureEv
libwx_gtk2u_core-3.0.so.0:_ZN12wxWindowBase10InitDialogEv
libwx_gtk2u_core-3.0.so.0:_ZN12wxWindowBase10SetMaxSizeERK6wxSize
libwx_gtk2u_core-3.0.so.0:_ZN12wxWindowBase10SetMinSizeERK6wxSize
libwx_gtk2u_core-3.0.so.0:_ZN12wxWindowBase12LayoutPhase1EPi
libwx_gtk2u_core-3.0.so.0:_ZN12wxWindowBase12LayoutPhase2EPi
libwx_gtk2u_core-3.0.so.0:_ZN12wxWindowBase12SetValidatorERK11wxValidator
libwx_gtk2u_core-3.0.so.0:_ZN12wxWindowBase13SendSizeEventEi
libwx_gtk2u_core-3.0.so.0:_ZN12wxWindowBase14DoSetSizeHintsEiiiiii
libwx_gtk2u_core-3.0.so.0:_ZN12wxWindowBase14MoveConstraintEii
libwx_gtk2u_core-3.0.so.0:_ZN12wxWindowBase14SendIdleEventsER11wxIdleEvent
libwx_gtk2u_core-3.0.so.0:_ZN12wxWindowBase14SetInitialSizeERK6wxSize
libwx_gtk2u_core-3.0.so.0:_ZN12wxWindowBase14SetNextHandlerEP12wxEvtHandler
libwx_gtk2u_core-3.0.so.0:_ZN12wxWindowBase14SetSizerAndFitEP7wxSizerb
libwx_gtk2u_core-3.0.so.0:_ZN12wxWindowBase14UpdateWindowUIEl
libwx_gtk2u_core-3.0.so.0:_ZN12wxWindowBase15DragAcceptFilesEb
libwx_gtk2u_core-3.0.so.0:_ZN12wxWindowBase16DoSetVirtualSizeEii
libwx_gtk2u_core-3.0.so.0:_ZN12wxWindowBase16DoUpdateWindowUIER15wxUpdateUIEvent
libwx_gtk2u_core-3.0.so.0:_ZN12wxWindowBase17InheritAttributesEv
libwx_gtk2u_core-3.0.so.0:_ZN12wxWindowBase17SetSizeConstraintEiiii
libwx_gtk2u_core-3.0.so.0:_ZN12wxWindowBase17ToggleWindowStyleEi
libwx_gtk2u_core-3.0.so.0:_ZN12wxWindowBase18DoSetWindowVariantE15wxWindowVariant
libwx_gtk2u_core-3.0.so.0:_ZN12wxWindowBase18InvalidateBestSizeEv
libwx_gtk2u_core-3.0.so.0:_ZN12wxWindowBase18SetConstraintSizesEb
libwx_gtk2u_core-3.0.so.0:_ZN12wxWindowBase18SetPreviousHandlerEP12wxEvtHandler
libwx_gtk2u_core-3.0.so.0:_ZN12wxWindowBase19SetVirtualSizeHintsEiiii
libwx_gtk2u_core-3.0.so.0:_ZN12wxWindowBase20InformFirstDirectionEiii
libwx_gtk2u_core-3.0.so.0:_ZN12wxWindowBase20TransferDataToWindowEv
libwx_gtk2u_core-3.0.so.0:_ZN12wxWindowBase22TransferDataFromWindowEv
libwx_gtk2u_core-3.0.so.0:_ZN12wxWindowBase25GetClassDefaultAttributesE15wxWindowVariant
libwx_gtk2u_core-3.0.so.0:_ZN12wxWindowBase3FitEv
libwx_gtk2u_core-3.0.so.0:_ZN12wxWindowBase6EnableEb
libwx_gtk2u_core-3.0.so.0:_ZN12wxWindowBase6LayoutEv
libwx_gtk2u_core-3.0.so.0:_ZN12wxWindowBase7DestroyEv
libwx_gtk2u_core-3.0.so.0:_ZN12wxWindowBase7DoPhaseEi
libwx_gtk2u_core-3.0.so.0:_ZN12wxWindowBase8DoCentreEi
libwx_gtk2u_core-3.0.so.0:_ZN12wxWindowBase8TryAfterER7wxEvent
libwx_gtk2u_core-3.0.so.0:_ZN12wxWindowBase8ValidateEv
libwx_gtk2u_core-3.0.so.0:_ZN12wxWindowBase9FitInsideEv
libwx_gtk2u_core-3.0.so.0:_ZN12wxWindowBase9MakeModalEb
libwx_gtk2u_core-3.0.so.0:_ZN12wxWindowBase9PopupMenuEP6wxMenuii
libwx_gtk2u_core-3.0.so.0:_ZN12wxWindowBase9TryBeforeER7wxEvent
libwx_gtk2u_core-3.0.so.0:_ZN13wxControlBase12GetLabelTextERK8wxString
libwx_gtk2u_core-3.0.so.0:_ZN13wxControlBase15EscapeMnemonicsERK8wxString
libwx_gtk2u_core-3.0.so.0:_ZN13wxControlBase16DoSetLabelMarkupERK8wxString
libwx_gtk2u_core-3.0.so.0:_ZN13wxControlBase16DoUpdateWindowUIER15wxUpdateUIEvent
libwx_gtk2u_core-3.0.so.0:_ZN13wxControlBase7CommandER14wxCommandEvent
libwx_gtk2u_core-3.0.so.0:_ZN13wxControlBase7SetFontERK6wxFont
libwx_gtk2u_core-3.0.so.0:_ZN13wxControlBaseD2Ev
libwx_gtk2u_core-3.0.so.0:_ZN13wxMenuBarBase6EnableEib
libwx_gtk2u_core-3.0.so.0:_ZN14wxCommandEventC1Eii
libwx_gtk2u_core-3.0.so.0:_ZN14wxListCtrlBase12InsertColumnElRK8wxStringii
libwx_gtk2u_core-3.0.so.0:_ZN14wxMenuItemBase3NewEP6wxMenuiRK8wxStringS4_10wxItemKindS1_
libwx_gtk2u_core-3.0.so.0:_ZN14wxScrollHelper13SetScrollbarsEiiiiiib
libwx_gtk2u_core-3.0.so.0:_ZN14wxScrollHelper16AdjustScrollbarsEv
libwx_gtk2u_core-3.0.so.0:_ZN14wxScrollHelper16DoShowScrollbarsE21wxScrollbarVisibilityS0_
libwx_gtk2u_core-3.0.so.0:_ZN14wxScrollHelper8DoScrollEii
libwx_gtk2u_core-3.0.so.0:_ZN14wxStaticBitmapC1EP8wxWindowiRK8wxBitmapRK7wxPointRK6wxSizelRK8wxString
libwx_gtk2u_core-3.0.so.0:_ZN15wxClipboardBase3GetEv
libwx_gtk2u_core-3.0.so.0:_ZN15wxFlexGridSizerC1Eiii
libwx_gtk2u_core-3.0.so.0:_ZN16wxNonOwnedWindow12DoClearShapeEv
libwx_gtk2u_core-3.0.so.0:_ZN16wxNonOwnedWindow14DoSetPathShapeERK14wxGraphicsPath
libwx_gtk2u_core-3.0.so.0:_ZN16wxNonOwnedWindow16DoSetRegionShapeERK8wxRegion
libwx_gtk2u_core-3.0.so.0:_ZN16wxSplitterWindow10InitializeEP8wxWindow
libwx_gtk2u_core-3.0.so.0:_ZN16wxSplitterWindow14SetSashGravityEd
libwx_gtk2u_core-3.0.so.0:_ZN16wxSplitterWindow15SetSashPositionEib
libwx_gtk2u_core-3.0.so.0:_ZN16wxSplitterWindow4InitEv
libwx_gtk2u_core-3.0.so.0:_ZN16wxSplitterWindow6CreateEP8wxWindowiRK7wxPointRK6wxSizelRK8wxString
libwx_gtk2u_core-3.0.so.0:_ZN16wxSplitterWindow7DoSplitE11wxSplitModeP8wxWindowS2_i
libwx_gtk2u_core-3.0.so.0:_ZN16wxTextDropTarget6OnDataEii12wxDragResult
libwx_gtk2u_core-3.0.so.0:_ZN16wxTextDropTargetC2Ev
libwx_gtk2u_core-3.0.so.0:_ZN17wxGenericListCtrl10DeleteItemEl
libwx_gtk2u_core-3.0.so.0:_ZN17wxGenericListCtrl10InsertItemElRK8wxStringi
libwx_gtk2u_core-3.0.so.0:_ZN17wxGenericListCtrl11DoPopupMenuEP6wxMenuii
libwx_gtk2u_core-3.0.so.0:_ZN17wxGenericListCtrl12DeleteColumnEi
libwx_gtk2u_core-3.0.so.0:_ZN17wxGenericListCtrl12SetImageListEP11wxImageListi
libwx_gtk2u_core-3.0.so.0:_ZN17wxGenericListCtrl12SetItemImageElii
libwx_gtk2u_core-3.0.so.0:_ZN17wxGenericListCtrl12SetItemStateElll
libwx_gtk2u_core-3.0.so.0:_ZN17wxGenericListCtrl13EnsureVisibleEl
libwx_gtk2u_core-3.0.so.0:_ZN17wxGenericListCtrl13SetDropTargetEP12wxDropTarget
libwx_gtk2u_core-3.0.so.0:_ZN17wxGenericListCtrl13sm_eventTableE
libwx_gtk2u_core-3.0.so.0:_ZN17wxGenericListCtrl14DeleteAllItemsEv
libwx_gtk2u_core-3.0.so.0:_ZN17wxGenericListCtrl14DoInsertColumnElRK10wxListItem
libwx_gtk2u_core-3.0.so.0:_ZN17wxGenericListCtrl14OnInternalIdleEv
libwx_gtk2u_core-3.0.so.0:_ZN17wxGenericListCtrl14SetColumnWidthEii
libwx_gtk2u_core-3.0.so.0:_ZN17wxGenericListCtrl14SetItemPtrDataElm
libwx_gtk2u_core-3.0.so.0:_ZN17wxGenericListCtrl15AssignImageListEP11wxImageListi
libwx_gtk2u_core-3.0.so.0:_ZN17wxGenericListCtrl16DeleteAllColumnsEv
libwx_gtk2u_core-3.0.so.0:_ZN17wxGenericListCtrl18SetWindowStyleFlagEl
libwx_gtk2u_core-3.0.so.0:_ZN17wxGenericListCtrl19EnableBellOnNoMatchEb
libwx_gtk2u_core-3.0.so.0:_ZN17wxGenericListCtrl19SetBackgroundColourERK8wxColour
libwx_gtk2u_core-3.0.so.0:_ZN17wxGenericListCtrl19SetForegroundColourERK8wxColour
libwx_gtk2u_core-3.0.so.0:_ZN17wxGenericListCtrl25GetClassDefaultAttributesE15wxWindowVariant
libwx_gtk2u_core-3.0.so.0:_ZN17wxGenericListCtrl31GetSizeAvailableForScrollTargetERK6wxSize
libwx_gtk2u_core-3.0.so.0:_ZN17wxGenericListCtrl4InitEv
libwx_gtk2u_core-3.0.so.0:_ZN17wxGenericListCtrl6CreateEP8wxWindowiRK7wxPointRK6wxSizelRK11wxValidatorRK8wxString
libwx_gtk2u_core-3.0.so.0:_ZN17wxGenericListCtrl6UpdateEv
libwx_gtk2u_core-3.0.so.0:_ZN17wxGenericListCtrl7RefreshEbPK6wxRect
libwx_gtk2u_core-3.0.so.0:_ZN17wxGenericListCtrl7SetFontERK6wxFont
libwx_gtk2u_core-3.0.so.0:_ZN17wxGenericListCtrl7SetItemEliRK8wxStringi
libwx_gtk2u_core-3.0.so.0:_ZN17wxGenericListCtrl9SetColumnEiRK10wxListItem
libwx_gtk2u_core-3.0.so.0:_ZN17wxGenericListCtrl9SetCursorERK8wxCursor
libwx_gtk2u_core-3.0.so.0:_ZN17wxGenericListCtrlD2Ev
libwx_gtk2u_core-3.0.so.0:_ZN18wxAcceleratorTableC1EiPK18wxAcceleratorEntry
libwx_gtk2u_core-3.0.so.0:_ZN18wxAcceleratorTableD1Ev
libwx_gtk2u_core-3.0.so.0:_ZN18wxGenericImageList3AddERK8wxBitmap
libwx_gtk2u_core-3.0.so.0:_ZN18wxGenericImageList4DrawEiR4wxDCiiib
libwx_gtk2u_core-3.0.so.0:_ZN18wxGenericImageList7ReplaceEiRK8wxBitmap
libwx_gtk2u_core-3.0.so.0:_ZN18wxGenericImageList9RemoveAllEv
libwx_gtk2u_core-3.0.so.0:_ZN18wxGenericImageListD2Ev
libwx_gtk2u_core-3.0.so.0:_ZN18wxScrollHelperBase11DoPrepareDCER4wxDC
libwx_gtk2u_core-3.0.so.0:_ZN18wxScrollHelperBase12ScrollLayoutEv
libwx_gtk2u_core-3.0.so.0:_ZN18wxScrollHelperBase15EnableScrollingEbb
libwx_gtk2u_core-3.0.so.0:_ZN18wxScrollHelperBase22ScrollDoSetVirtualSizeEii
libwx_gtk2u_core-3.0.so.0:_ZN18wxScrollHelperBaseC2EP8wxWindow
libwx_gtk2u_core-3.0.so.0:_ZN18wxScrollHelperBaseD2Ev
libwx_gtk2u_core-3.0.so.0:_ZN19wxTopLevelWindowGTK10RemoveGrabEv
libwx_gtk2u_core-3.0.so.0:_ZN19wxTopLevelWindowGTK12DoMoveWindowEiiii
libwx_gtk2u_core-3.0.so.0:_ZN19wxTopLevelWindowGTK14DoSetSizeHintsEiiiiii
libwx_gtk2u_core-3.0.so.0:_ZN19wxTopLevelWindowGTK14OnInternalIdleEv
libwx_gtk2u_core-3.0.so.0:_ZN19wxTopLevelWindowGTK14SetTransparentEh
libwx_gtk2u_core-3.0.so.0:_ZN19wxTopLevelWindowGTK14ShowFullScreenEbl
libwx_gtk2u_core-3.0.so.0:_ZN19wxTopLevelWindowGTK15DoSetClientSizeEii
libwx_gtk2u_core-3.0.so.0:_ZN19wxTopLevelWindowGTK17CanSetTransparentEv
libwx_gtk2u_core-3.0.so.0:_ZN19wxTopLevelWindowGTK17EnableCloseButtonEb
libwx_gtk2u_core-3.0.so.0:_ZN19wxTopLevelWindowGTK17GTKHandleRealizedEv
libwx_gtk2u_core-3.0.so.0:_ZN19wxTopLevelWindowGTK18SetWindowStyleFlagEl
libwx_gtk2u_core-3.0.so.0:_ZN19wxTopLevelWindowGTK20RequestUserAttentionEi
libwx_gtk2u_core-3.0.so.0:_ZN19wxTopLevelWindowGTK21ShowWithoutActivatingEv
libwx_gtk2u_core-3.0.so.0:_ZN19wxTopLevelWindowGTK4ShowEb
libwx_gtk2u_core-3.0.so.0:_ZN19wxTopLevelWindowGTK5RaiseEv
libwx_gtk2u_core-3.0.so.0:_ZN19wxTopLevelWindowGTK7AddGrabEv
libwx_gtk2u_core-3.0.so.0:_ZN19wxTopLevelWindowGTK7IconizeEb
libwx_gtk2u_core-3.0.so.0:_ZN19wxTopLevelWindowGTK7RefreshEbPK6wxRect
libwx_gtk2u_core-3.0.so.0:_ZN19wxTopLevelWindowGTK7RestoreEv
libwx_gtk2u_core-3.0.so.0:_ZN19wxTopLevelWindowGTK8IsActiveEv
libwx_gtk2u_core-3.0.so.0:_ZN19wxTopLevelWindowGTK8MaximizeEb
libwx_gtk2u_core-3.0.so.0:_ZN19wxTopLevelWindowGTK8SetIconsERK12wxIconBundle
libwx_gtk2u_core-3.0.so.0:_ZN19wxTopLevelWindowGTK8SetTitleERK8wxString
libwx_gtk2u_core-3.0.so.0:_ZN19wxTopLevelWindowGTK9DoSetSizeEiiiii
libwx_gtk2u_core-3.0.so.0:_ZN19wxTopLevelWindowGTKD2Ev
libwx_gtk2u_core-3.0.so.0:_ZN20wxTopLevelWindowBase10SetMaxSizeERK6wxSize
libwx_gtk2u_core-3.0.so.0:_ZN20wxTopLevelWindowBase10SetMinSizeERK6wxSize
libwx_gtk2u_core-3.0.so.0:_ZN20wxTopLevelWindowBase16DoUpdateWindowUIER15wxUpdateUIEvent
libwx_gtk2u_core-3.0.so.0:_ZN20wxTopLevelWindowBase26GetRectForTopLevelChildrenEPiS0_S0_S0_
libwx_gtk2u_core-3.0.so.0:_ZN20wxTopLevelWindowBase7DestroyEv
libwx_gtk2u_core-3.0.so.0:_ZN20wxTopLevelWindowBase7SetIconERK6wxIcon
libwx_gtk2u_core-3.0.so.0:_ZN20wxTopLevelWindowBase8DoCentreEi
libwx_gtk2u_core-3.0.so.0:_ZN22wxControlContainerBase10DoSetFocusEv
libwx_gtk2u_core-3.0.so.0:_ZN22wxControlContainerBase22UpdateCanFocusChildrenEv
libwx_gtk2u_core-3.0.so.0:_ZN5wxApp10InitializeERiPPw
libwx_gtk2u_core-3.0.so.0:_ZN5wxApp10WakeUpIdleEv
libwx_gtk2u_core-3.0.so.0:_ZN5wxApp14SetNativeThemeERK8wxString
libwx_gtk2u_core-3.0.so.0:_ZN5wxApp15OnAssertFailureEPKwiS1_S1_S1_
libwx_gtk2u_core-3.0.so.0:_ZN5wxApp7CleanUpEv
libwx_gtk2u_core-3.0.so.0:_ZN5wxApp9OnInitGuiEv
libwx_gtk2u_core-3.0.so.0:_ZN5wxAppC2Ev
libwx_gtk2u_core-3.0.so.0:_ZN5wxAppD2Ev
libwx_gtk2u_core-3.0.so.0:_ZN5wxPenC1ERK8wxColourii
libwx_gtk2u_core-3.0.so.0:_ZN5wxPenD1Ev
libwx_gtk2u_core-3.0.so.0:_ZN6wxFont6CreateEi12wxFontFamily11wxFontStyle12wxFontWeightbRK8wxString14wxFontEncoding
libwx_gtk2u_core-3.0.so.0:_ZN6wxFontD1Ev
libwx_gtk2u_core-3.0.so.0:_ZN6wxIcon14CopyFromBitmapERK8wxBitmap
libwx_gtk2u_core-3.0.so.0:_ZN6wxIconC1Ev
libwx_gtk2u_core-3.0.so.0:_ZN6wxMenu4InitEv
libwx_gtk2u_core-3.0.so.0:_ZN6wxMenu8DoAppendEP10wxMenuItem
libwx_gtk2u_core-3.0.so.0:_ZN6wxMenu8SetTitleERK8wxString
libwx_gtk2u_core-3.0.so.0:_ZN6wxMenuD1Ev
libwx_gtk2u_core-3.0.so.0:_ZN7wxBrushC1ERK8wxColouri
libwx_gtk2u_core-3.0.so.0:_ZN7wxBrushD1Ev
libwx_gtk2u_core-3.0.so.0:_ZN7wxFrame10SetToolBarEP9wxToolBar
libwx_gtk2u_core-3.0.so.0:_ZN7wxFrame12SetStatusBarEP11wxStatusBar
libwx_gtk2u_core-3.0.so.0:_ZN7wxFrame13AttachMenuBarEP9wxMenuBar
libwx_gtk2u_core-3.0.so.0:_ZN7wxFrame13DetachMenuBarEv
libwx_gtk2u_core-3.0.so.0:_ZN7wxFrame14SendIdleEventsER11wxIdleEvent
libwx_gtk2u_core-3.0.so.0:_ZN7wxFrame14ShowFullScreenEbl
libwx_gtk2u_core-3.0.so.0:_ZN7wxFrame4InitEv
libwx_gtk2u_core-3.0.so.0:_ZN7wxFrame6CreateEP8wxWindowiRK8wxStringRK7wxPointRK6wxSizelS4_
libwx_gtk2u_core-3.0.so.0:_ZN7wxFrameD2Ev
libwx_gtk2u_core-3.0.so.0:_ZN7wxImage6CreateEPKPKc
libwx_gtk2u_core-3.0.so.0:_ZN7wxImage8LoadFileERK8wxString12wxBitmapTypei
libwx_gtk2u_core-3.0.so.0:_ZN8wxBitmap6CreateEiii
libwx_gtk2u_core-3.0.so.0:_ZN8wxBitmapC1ERK7wxImagei
libwx_gtk2u_core-3.0.so.0:_ZN8wxBitmapC1ERK8wxString12wxBitmapType
libwx_gtk2u_core-3.0.so.0:_ZN8wxBitmapD1Ev
libwx_gtk2u_core-3.0.so.0:_ZN8wxBitmapD2Ev
libwx_gtk2u_core-3.0.so.0:_ZN8wxButton6CreateEP8wxWindowiRK8wxStringRK7wxPointRK6wxSizelRK11wxValidatorS4_
libwx_gtk2u_core-3.0.so.0:_ZN8wxColourD1Ev
libwx_gtk2u_core-3.0.so.0:_ZN8wxCursorC1Ev
libwx_gtk2u_core-3.0.so.0:_ZN8wxCursorD1Ev
libwx_gtk2u_core-3.0.so.0:_ZN8wxDialog4InitEv
libwx_gtk2u_core-3.0.so.0:_ZN8wxDialog4ShowEb
libwx_gtk2u_core-3.0.so.0:_ZN8wxDialog6CreateEP8wxWindowiRK8wxStringRK7wxPointRK6wxSizelS4_
libwx_gtk2u_core-3.0.so.0:_ZN8wxDialog8EndModalEi
libwx_gtk2u_core-3.0.so.0:_ZN8wxDialog9ShowModalEv
libwx_gtk2u_core-3.0.so.0:_ZN8wxDialogD2Ev
libwx_gtk2u_core-3.0.so.0:_ZN8wxWindow11AddChildGTKEPS_
libwx_gtk2u_core-3.0.so.0:_ZN8wxWindow11DoPopupMenuEP6wxMenuii
libwx_gtk2u_core-3.0.so.0:_ZN8wxWindow11RemoveChildEP12wxWindowBase
libwx_gtk2u_core-3.0.so.0:_ZN8wxWindow11ScrollLinesEi
libwx_gtk2u_core-3.0.so.0:_ZN8wxWindow11ScrollPagesEi
libwx_gtk2u_core-3.0.so.0:_ZN8wxWindow11SetCanFocusEb
libwx_gtk2u_core-3.0.so.0:_ZN8wxWindow11WarpPointerEii
libwx_gtk2u_core-3.0.so.0:_ZN8wxWindow12DoMoveWindowEiiii
libwx_gtk2u_core-3.0.so.0:_ZN8wxWindow12DoNavigateInEi
libwx_gtk2u_core-3.0.so.0:_ZN8wxWindow12DoSetToolTipEP9wxToolTip
libwx_gtk2u_core-3.0.so.0:_ZN8wxWindow12ScrollWindowEiiPK6wxRect
libwx_gtk2u_core-3.0.so.0:_ZN8wxWindow12SetScrollPosEiib
libwx_gtk2u_core-3.0.so.0:_ZN8wxWindow12SetScrollbarEiiiib
libwx_gtk2u_core-3.0.so.0:_ZN8wxWindow13SetDropTargetEP12wxDropTarget
libwx_gtk2u_core-3.0.so.0:_ZN8wxWindow14DoCaptureMouseEv
libwx_gtk2u_core-3.0.so.0:_ZN8wxWindow14DoReleaseMouseEv
libwx_gtk2u_core-3.0.so.0:_ZN8wxWindow14OnInternalIdleEv
libwx_gtk2u_core-3.0.so.0:_ZN8wxWindow15ClearBackgroundEv
libwx_gtk2u_core-3.0.so.0:_ZN8wxWindow15DoSetClientSizeEii
libwx_gtk2u_core-3.0.so.0:_ZN8wxWindow15GTKApplyToolTipEPKc
libwx_gtk2u_core-3.0.so.0:_ZN8wxWindow16DoMoveInTabOrderEPS_N12wxWindowBase11WindowOrderE
libwx_gtk2u_core-3.0.so.0:_ZN8wxWindow16GetConnectWidgetEv
libwx_gtk2u_core-3.0.so.0:_ZN8wxWindow17GTKHandleRealizedEv
libwx_gtk2u_core-3.0.so.0:_ZN8wxWindow18DoApplyWidgetStyleEP11_GtkRcStyle
libwx_gtk2u_core-3.0.so.0:_ZN8wxWindow18SetBackgroundStyleE17wxBackgroundStyle
libwx_gtk2u_core-3.0.so.0:_ZN8wxWindow18SetLayoutDirectionE17wxLayoutDirection
libwx_gtk2u_core-3.0.so.0:_ZN8wxWindow19SetBackgroundColourERK8wxColour
libwx_gtk2u_core-3.0.so.0:_ZN8wxWindow19SetForegroundColourERK8wxColour
libwx_gtk2u_core-3.0.so.0:_ZN8wxWindow22GTKWidgetDoSetMnemonicEP10_GtkWidget
libwx_gtk2u_core-3.0.so.0:_ZN8wxWindow4ShowEb
libwx_gtk2u_core-3.0.so.0:_ZN8wxWindow5LowerEv
libwx_gtk2u_core-3.0.so.0:_ZN8wxWindow5RaiseEv
libwx_gtk2u_core-3.0.so.0:_ZN8wxWindow6DoThawEv
libwx_gtk2u_core-3.0.so.0:_ZN8wxWindow6UpdateEv
libwx_gtk2u_core-3.0.so.0:_ZN8wxWindow7RefreshEbPK6wxRect
libwx_gtk2u_core-3.0.so.0:_ZN8wxWindow7SetFontERK6wxFont
libwx_gtk2u_core-3.0.so.0:_ZN8wxWindow8AddChildEP12wxWindowBase
libwx_gtk2u_core-3.0.so.0:_ZN8wxWindow8DoEnableEb
libwx_gtk2u_core-3.0.so.0:_ZN8wxWindow8DoFreezeEv
libwx_gtk2u_core-3.0.so.0:_ZN8wxWindow8ReparentEP12wxWindowBase
libwx_gtk2u_core-3.0.so.0:_ZN8wxWindow8SetFocusEv
libwx_gtk2u_core-3.0.so.0:_ZN8wxWindow9DoSetSizeEiiiii
libwx_gtk2u_core-3.0.so.0:_ZN8wxWindow9SetCursorERK8wxCursor
libwx_gtk2u_core-3.0.so.0:_ZN8wxWindowC2Ev
libwx_gtk2u_core-3.0.so.0:_ZN8wxWindowD2Ev
libwx_gtk2u_core-3.0.so.0:_ZN9wxAppBase11ProcessIdleEv
libwx_gtk2u_core-3.0.so.0:_ZN9wxAppBase12CreateTraitsEv
libwx_gtk2u_core-3.0.so.0:_ZN9wxAppBase12SafeYieldForEP8wxWindowl
libwx_gtk2u_core-3.0.so.0:_ZN9wxAppBase13OnInitCmdLineER15wxCmdLineParser
libwx_gtk2u_core-3.0.so.0:_ZN9wxAppBase15OnCmdLineParsedER15wxCmdLineParser
libwx_gtk2u_core-3.0.so.0:_ZN9wxAppBase5OnRunEv
libwx_gtk2u_core-3.0.so.0:_ZN9wxAppBase9SafeYieldEP8wxWindowb
libwx_gtk2u_core-3.0.so.0:_ZN9wxAppBase9SetActiveEbP8wxWindow
libwx_gtk2u_core-3.0.so.0:_ZN9wxControlC2Ev
libwx_gtk2u_core-3.0.so.0:_ZN9wxMenuBarC1Ev
libwx_gtk2u_core-3.0.so.0:_ZNK11wxFrameBase11IsOneOfBarsEPK8wxWindow
libwx_gtk2u_core-3.0.so.0:_ZNK11wxFrameBase13GetEventTableEv
libwx_gtk2u_core-3.0.so.0:_ZNK11wxFrameBase17FindItemInMenuBarEi
libwx_gtk2u_core-3.0.so.0:_ZNK11wxFrameBase17GetEventHashTableEv
libwx_gtk2u_core-3.0.so.0:_ZNK11wxImageList12GetClassInfoEv
libwx_gtk2u_core-3.0.so.0:_ZNK12wxDataObject17IsSupportedFormatERK12wxDataFormatN16wxDataObjectBase9DirectionE
libwx_gtk2u_core-3.0.so.0:_ZNK12wxDialogBase11GetModalityEv
libwx_gtk2u_core-3.0.so.0:_ZNK12wxDialogBase13GetEventTableEv
libwx_gtk2u_core-3.0.so.0:_ZNK12wxDialogBase17GetEventHashTableEv
libwx_gtk2u_core-3.0.so.0:_ZNK12wxFileDialog7GetPathEv
libwx_gtk2u_core-3.0.so.0:_ZNK12wxWindowBase10IsTopLevelEv
libwx_gtk2u_core-3.0.so.0:_ZNK12wxWindowBase11GetBestSizeEv
libwx_gtk2u_core-3.0.so.0:_ZNK12wxWindowBase12IsDescendantEPS_
libwx_gtk2u_core-3.0.so.0:_ZNK12wxWindowBase13DoGetBestSizeEv
libwx_gtk2u_core-3.0.so.0:_ZNK12wxWindowBase13GetEventTableEv
libwx_gtk2u_core-3.0.so.0:_ZNK12wxWindowBase15IsShownOnScreenEv
libwx_gtk2u_core-3.0.so.0:_ZNK12wxWindowBase16DoGetVirtualSizeEv
libwx_gtk2u_core-3.0.so.0:_ZNK12wxWindowBase16GetDefaultBorderEv
libwx_gtk2u_core-3.0.so.0:_ZNK12wxWindowBase17GetEventHashTableEv
libwx_gtk2u_core-3.0.so.0:_ZNK12wxWindowBase17GetSizeConstraintEPiS0_
libwx_gtk2u_core-3.0.so.0:_ZNK12wxWindowBase18ClientToWindowSizeERK6wxSize
libwx_gtk2u_core-3.0.so.0:_ZNK12wxWindowBase18GetHelpTextAtPointERK7wxPointN11wxHelpEvent6OriginE
libwx_gtk2u_core-3.0.so.0:_ZNK12wxWindowBase18WindowToClientSizeERK6wxSize
libwx_gtk2u_core-3.0.so.0:_ZNK12wxWindowBase19DoGetScreenPositionEPiS0_
libwx_gtk2u_core-3.0.so.0:_ZNK12wxWindowBase19GetClientAreaOriginEv
libwx_gtk2u_core-3.0.so.0:_ZNK12wxWindowBase19GetEffectiveMinSizeEv
libwx_gtk2u_core-3.0.so.0:_ZNK12wxWindowBase19GetWindowBorderSizeEv
libwx_gtk2u_core-3.0.so.0:_ZNK12wxWindowBase21GetPositionConstraintEPiS0_
libwx_gtk2u_core-3.0.so.0:_ZNK12wxWindowBase23GetClientSizeConstraintEPiS0_
libwx_gtk2u_core-3.0.so.0:_ZNK12wxWindowBase27AdjustForParentClientOriginERiS0_i
libwx_gtk2u_core-3.0.so.0:_ZNK12wxWindowBase8HasFocusEv
libwx_gtk2u_core-3.0.so.0:_ZNK12wxWindowBase9CanScrollEi
libwx_gtk2u_core-3.0.so.0:_ZNK12wxWindowBase9DoHitTestEii
libwx_gtk2u_core-3.0.so.0:_ZNK12wxWindowBase9IsEnabledEv
libwx_gtk2u_core-3.0.so.0:_ZNK13wxControlBase16GetDefaultBorderEv
libwx_gtk2u_core-3.0.so.0:_ZNK13wxControlBase21DoGetSizeFromTextSizeEii
libwx_gtk2u_core-3.0.so.0:_ZNK14wxListCtrlBase13OnGetItemAttrEl
libwx_gtk2u_core-3.0.so.0:_ZNK14wxListCtrlBase19DoGetBestClientSizeEv
libwx_gtk2u_core-3.0.so.0:_ZNK14wxScrollHelper16IsScrollbarShownEi
libwx_gtk2u_core-3.0.so.0:_ZNK17wxGenericListCtrl10GetTopItemEv
libwx_gtk2u_core-3.0.so.0:_ZNK17wxGenericListCtrl11GetItemDataEl
libwx_gtk2u_core-3.0.so.0:_ZNK17wxGenericListCtrl11GetItemRectElR6wxRecti
libwx_gtk2u_core-3.0.so.0:_ZNK17wxGenericListCtrl11GetItemTextEli
libwx_gtk2u_core-3.0.so.0:_ZNK17wxGenericListCtrl11GetNextItemElii
libwx_gtk2u_core-3.0.so.0:_ZNK17wxGenericListCtrl12GetImageListEi
libwx_gtk2u_core-3.0.so.0:_ZNK17wxGenericListCtrl12GetItemCountEv
libwx_gtk2u_core-3.0.so.0:_ZNK17wxGenericListCtrl13GetDropTargetEv
libwx_gtk2u_core-3.0.so.0:_ZNK17wxGenericListCtrl13OnGetItemTextEll
libwx_gtk2u_core-3.0.so.0:_ZNK17wxGenericListCtrl14GetColumnCountEv
libwx_gtk2u_core-3.0.so.0:_ZNK17wxGenericListCtrl14GetColumnWidthEi
libwx_gtk2u_core-3.0.so.0:_ZNK17wxGenericListCtrl14OnGetItemImageEl
libwx_gtk2u_core-3.0.so.0:_ZNK17wxGenericListCtrl15GetCountPerPageEv
libwx_gtk2u_core-3.0.so.0:_ZNK17wxGenericListCtrl16GetDefaultBorderEv
libwx_gtk2u_core-3.0.so.0:_ZNK17wxGenericListCtrl19DoGetBestClientSizeEv
libwx_gtk2u_core-3.0.so.0:_ZNK17wxGenericListCtrl19GetBackgroundColourEv
libwx_gtk2u_core-3.0.so.0:_ZNK17wxGenericListCtrl19GetForegroundColourEv
libwx_gtk2u_core-3.0.so.0:_ZNK17wxGenericListCtrl20OnGetItemColumnImageEll
libwx_gtk2u_core-3.0.so.0:_ZNK17wxGenericListCtrl7HitTestERK7wxPointRiPl
libwx_gtk2u_core-3.0.so.0:_ZNK17wxGenericListCtrl9GetColumnEiR10wxListItem
libwx_gtk2u_core-3.0.so.0:_ZNK18wxGenericImageList13GetImageCountEv
libwx_gtk2u_core-3.0.so.0:_ZNK18wxGenericImageList7GetSizeEiRiS0_
libwx_gtk2u_core-3.0.so.0:_ZNK18wxScrollHelperBase14DoGetViewStartEPiS0_
libwx_gtk2u_core-3.0.so.0:_ZNK18wxScrollHelperBase20SendAutoScrollEventsER16wxScrollWinEvent
libwx_gtk2u_core-3.0.so.0:_ZNK18wxScrollHelperBase24ScrollGetBestVirtualSizeEv
libwx_gtk2u_core-3.0.so.0:_ZNK19wxTopLevelWindowGTK10IsIconizedEv
libwx_gtk2u_core-3.0.so.0:_ZNK19wxTopLevelWindowGTK11IsMaximizedEv
libwx_gtk2u_core-3.0.so.0:_ZNK19wxTopLevelWindowGTK15DoGetClientSizeEPiS0_
libwx_gtk2u_core-3.0.so.0:_ZNK20wxTopLevelWindowBase16DoClientToScreenEPiS0_
libwx_gtk2u_core-3.0.so.0:_ZNK20wxTopLevelWindowBase16DoScreenToClientEPiS0_
libwx_gtk2u_core-3.0.so.0:_ZNK20wxTopLevelWindowBase17IsAlwaysMaximizedEv
libwx_gtk2u_core-3.0.so.0:_ZNK22wxControlContainerBase12AcceptsFocusEv
libwx_gtk2u_core-3.0.so.0:_ZNK22wxControlContainerBase28HasAnyChildrenAcceptingFocusEv
libwx_gtk2u_core-3.0.so.0:_ZNK5wxApp12GetClassInfoEv
libwx_gtk2u_core-3.0.so.0:_ZNK7wxFrame12GetClassInfoEv
libwx_gtk2u_core-3.0.so.0:_ZNK7wxFrame15DoGetClientSizeEPiS0_
libwx_gtk2u_core-3.0.so.0:_ZNK7wxImage5ScaleEii20wxImageResizeQuality
libwx_gtk2u_core-3.0.so.0:_ZNK8wxDialog12GetClassInfoEv
libwx_gtk2u_core-3.0.so.0:_ZNK8wxDialog7IsModalEv
libwx_gtk2u_core-3.0.so.0:_ZNK8wxWindow10IsRetainedEv
libwx_gtk2u_core-3.0.so.0:_ZNK8wxWindow11DoIsExposedEii
libwx_gtk2u_core-3.0.so.0:_ZNK8wxWindow11DoIsExposedEiiii
libwx_gtk2u_core-3.0.so.0:_ZNK8wxWindow12GTKGetWindowER17wxArrayGdkWindows
libwx_gtk2u_core-3.0.so.0:_ZNK8wxWindow12GetCharWidthEv
libwx_gtk2u_core-3.0.so.0:_ZNK8wxWindow12GetClassInfoEv
libwx_gtk2u_core-3.0.so.0:_ZNK8wxWindow12GetScrollPosEi
libwx_gtk2u_core-3.0.so.0:_ZNK8wxWindow13DoGetPositionEPiS0_
libwx_gtk2u_core-3.0.so.0:_ZNK8wxWindow13GetCharHeightEv
libwx_gtk2u_core-3.0.so.0:_ZNK8wxWindow14GetScrollRangeEi
libwx_gtk2u_core-3.0.so.0:_ZNK8wxWindow14GetScrollThumbEi
libwx_gtk2u_core-3.0.so.0:_ZNK8wxWindow15DoGetBorderSizeEv
libwx_gtk2u_core-3.0.so.0:_ZNK8wxWindow15DoGetClientSizeEPiS0_
libwx_gtk2u_core-3.0.so.0:_ZNK8wxWindow15DoGetTextExtentERK8wxStringPiS3_S3_S3_PK6wxFont
libwx_gtk2u_core-3.0.so.0:_ZNK8wxWindow15GTKProcessEventER7wxEvent
libwx_gtk2u_core-3.0.so.0:_ZNK8wxWindow16DoClientToScreenEPiS0_
libwx_gtk2u_core-3.0.so.0:_ZNK8wxWindow16DoScreenToClientEPiS0_
libwx_gtk2u_core-3.0.so.0:_ZNK8wxWindow16IsDoubleBufferedEv
libwx_gtk2u_core-3.0.so.0:_ZNK8wxWindow18GetLayoutDirectionEv
libwx_gtk2u_core-3.0.so.0:_ZNK8wxWindow19GTKIMFilterKeypressEP12_GdkEventKey
libwx_gtk2u_core-3.0.so.0:_ZNK8wxWindow22GTKWidgetNeedsMnemonicEv
libwx_gtk2u_core-3.0.so.0:_ZNK8wxWindow24AdjustForLayoutDirectionEiii
libwx_gtk2u_core-3.0.so.0:_ZNK8wxWindow32IsTransparentBackgroundSupportedEP8wxString
libwx_gtk2u_core-3.0.so.0:_ZNK8wxWindow7IsShownEv
libwx_gtk2u_core-3.0.so.0:_ZNK8wxWindow9DoGetSizeEPiS0_
libwx_gtk2u_core-3.0.so.0:_ZNK9wxAppBase12GetTopWindowEv
libwx_gtk2u_core-3.0.so.0:_ZNK9wxAppBase14GetDisplayModeEv
libwx_gtk2u_core-3.0.so.0:_ZNK9wxAppBase18GetLayoutDirectionEv
libwx_gtk2u_core-3.0.so.0:_ZNK9wxControl12GetClassInfoEv
libwx_gtk2u_core-3.0.so.0:_ZNK9wxControl13DoGetBestSizeEv
libwx_gtk2u_core-3.0.so.0:_ZNK9wxControl20GetDefaultAttributesEv
libwx_gtk2u_core-3.0.so.0:_ZTI10wxListCtrl
libwx_gtk2u_core-3.0.so.0:_ZTI11wxImageList
libwx_gtk2u_core-3.0.so.0:_ZTI12wxDataObject
libwx_gtk2u_core-3.0.so.0:_ZTI14wxListCtrlBase
libwx_gtk2u_core-3.0.so.0:_ZTI16wxTextDropTarget
libwx_gtk2u_core-3.0.so.0:_ZTI5wxApp
libwx_gtk2u_core-3.0.so.0:_ZTI7wxFrame
libwx_gtk2u_core-3.0.so.0:_ZTI8wxDialog
libwx_gtk2u_core-3.0.so.0:_ZTI8wxWindow
libwx_gtk2u_core-3.0.so.0:_ZTV10wxBoxSizer
libwx_gtk2u_core-3.0.so.0:_ZTV10wxCheckBox
libwx_gtk2u_core-3.0.so.0:_ZTV10wxListCtrl
libwx_gtk2u_core-3.0.so.0:_ZTV10wxMemoryDC
libwx_gtk2u_core-3.0.so.0:_ZTV10wxMenuBase
libwx_gtk2u_core-3.0.so.0:_ZTV11wxAnyButton
libwx_gtk2u_core-3.0.so.0:_ZTV11wxImageList
libwx_gtk2u_core-3.0.so.0:_ZTV12wxDialogBase
libwx_gtk2u_core-3.0.so.0:_ZTV14wxCommandEvent
libwx_gtk2u_core-3.0.so.0:_ZTV14wxListCtrlBase
libwx_gtk2u_core-3.0.so.0:_ZTV14wxScrollHelper
libwx_gtk2u_core-3.0.so.0:_ZTV16wxSplitterWindow
libwx_gtk2u_core-3.0.so.0:_ZTV16wxTextDataObject
libwx_gtk2u_core-3.0.so.0:_ZTV16wxTopLevelWindow
libwx_gtk2u_core-3.0.so.0:_ZTV17wxGenericListCtrl
libwx_gtk2u_core-3.0.so.0:_ZTV17wxMDIClientWindow
libwx_gtk2u_core-3.0.so.0:_ZTV18wxControlContainer
libwx_gtk2u_core-3.0.so.0:_ZTV18wxGenericImageList
libwx_gtk2u_core-3.0.so.0:_ZTV20wxwxMenuItemListNode
libwx_gtk2u_core-3.0.so.0:_ZTV21wxwxSizerItemListNode
libwx_gtk2u_core-3.0.so.0:_ZTV4wxDC
libwx_gtk2u_core-3.0.so.0:_ZTV6wxFont
libwx_gtk2u_core-3.0.so.0:_ZTV6wxIcon
libwx_gtk2u_core-3.0.so.0:_ZTV6wxMenu
libwx_gtk2u_core-3.0.so.0:_ZTV7wxFrame
libwx_gtk2u_core-3.0.so.0:_ZTV7wxImage
libwx_gtk2u_core-3.0.so.0:_ZTV7wxSizer
libwx_gtk2u_core-3.0.so.0:_ZTV8wxBitmap
libwx_gtk2u_core-3.0.so.0:_ZTV8wxButton
libwx_gtk2u_core-3.0.so.0:_ZTV8wxColour
libwx_gtk2u_core-3.0.so.0:_ZTV8wxDialog
libwx_gtk2u_core-3.0.so.0:_ZTV9wxControl
libwx_gtk2u_core-3.0.so.0:_ZThn776_N17wxGenericListCtrl31GetSizeAvailableForScrollTargetERK6wxSize
libwx_gtk2u_core-3.0.so.0:wxButtonNameStr
libwx_gtk2u_core-3.0.so.0:wxCheckBoxNameStr
libwx_gtk2u_core-3.0.so.0:wxDefaultPosition
libwx_gtk2u_core-3.0.so.0:wxDefaultSize
libwx_gtk2u_core-3.0.so.0:wxDefaultValidator
libwx_gtk2u_core-3.0.so.0:wxDialogNameStr
libwx_gtk2u_core-3.0.so.0:wxEVT_BUTTON
libwx_gtk2u_core-3.0.so.0:wxEVT_CLOSE_WINDOW
libwx_gtk2u_core-3.0.so.0:wxEVT_LIST_BEGIN_DRAG
libwx_gtk2u_core-3.0.so.0:wxEVT_LIST_DELETE_ALL_ITEMS
libwx_gtk2u_core-3.0.so.0:wxEVT_LIST_ITEM_ACTIVATED
libwx_gtk2u_core-3.0.so.0:wxEVT_LIST_ITEM_RIGHT_CLICK
libwx_gtk2u_core-3.0.so.0:wxEVT_LIST_ITEM_SELECTED
libwx_gtk2u_core-3.0.so.0:wxEVT_MENU
libwx_gtk2u_core-3.0.so.0:wxEVT_UPDATE_UI
libwx_gtk2u_core-3.0.so.0:wxFileDialogNameStr
libwx_gtk2u_core-3.0.so.0:wxFrameNameStr
libwx_gtk2u_core-3.0.so.0:wxListCtrlNameStr
libwx_gtk2u_core-3.0.so.0:wxStaticBitmapNameStr
libwx_gtk2u_core-3.0.so.0:wxStaticTextNameStr
libwx_gtk2u_core-3.0.so.0:wxStatusLineNameStr
libwx_gtk2u_core-3.0.so.0:wxTextCtrlNameStr
