libKF6ConfigCore.so.6:_ZN19KCoreConfigSkeleton11setDefaultsEv
libKF6ConfigCore.so.6:_ZN19KCoreConfigSkeleton11useDefaultsEb
libKF6ConfigCore.so.6:_ZN19KCoreConfigSkeleton14usrSetDefaultsEv
libKF6ConfigCore.so.6:_ZN19KCoreConfigSkeleton14usrUseDefaultsEb
libKF6ConfigCore.so.6:_ZN19KCoreConfigSkeleton15setCurrentGroupERK7QString
libKF6ConfigCore.so.6:_ZN19KCoreConfigSkeleton4readEv
libKF6ConfigCore.so.6:_ZN19KCoreConfigSkeleton7ItemIntC1ERK7QStringS3_Rii
libKF6ConfigCore.so.6:_ZN19KCoreConfigSkeleton7addItemEP19KConfigSkeletonItemRK7QString
libKF6ConfigCore.so.6:_ZN19KCoreConfigSkeleton7usrReadEv
libKF6ConfigCore.so.6:_ZN19KCoreConfigSkeleton7usrSaveEv
libKF6ConfigCore.so.6:_ZN19KCoreConfigSkeleton8ItemBoolC1ERK7QStringS3_Rbb
libKF6ConfigCore.so.6:_ZN19KCoreConfigSkeletonD2Ev
libKF6ConfigCore.so.6:_ZNK19KCoreConfigSkeleton12currentGroupEv
libKF6ConfigGui.so.6:_ZN15KConfigSkeleton11qt_metacallEN11QMetaObject4CallEiPPv
libKF6ConfigGui.so.6:_ZN15KConfigSkeleton11qt_metacastEPKc
libKF6ConfigGui.so.6:_ZN15KConfigSkeletonC2ERK7QStringP7QObject
libKF6ConfigGui.so.6:_ZNK15KConfigSkeleton10metaObjectEv
libKF6ConfigGui.so.6:_ZTI15KConfigSkeleton
libKF6ConfigWidgets.so.6:_ZN20KConfigDialogManager13updateWidgetsEv
libKF6ConfigWidgets.so.6:_ZN20KConfigDialogManager14updateSettingsEv
libKF6ConfigWidgets.so.6:_ZN20KConfigDialogManager20updateWidgetsDefaultEv
libKF6ConfigWidgets.so.6:_ZN20KConfigDialogManagerC1EP7QWidgetP19KCoreConfigSkeleton
libKF6I18n.so.6:_Z6ki18ndPKcS0_
libKF6I18n.so.6:_Z7ki18ndcPKcS0_S0_
libKF6I18n.so.6:_Z8ki18ndcpPKcS0_S0_S0_
libKF6I18n.so.6:_ZN16KLocalizedStringC1ERKS_
libKF6I18n.so.6:_ZN16KLocalizedStringC1Ev
libKF6I18n.so.6:_ZN16KLocalizedStringD1Ev
libKF6I18n.so.6:_ZNK16KLocalizedString4subsEiii5QChar
libKF6I18n.so.6:_ZNK16KLocalizedString8toStringEv
libKF6I18n.so.6:_ZNK16KLocalizedString9relaxSubsEv
libKF6WidgetsAddons.so.6:_ZN10KSeparatorC1EP7QWidget6QFlagsIN2Qt10WindowTypeEE
libQt6Core.so.6:_Z9qHashBitsPKvmm
libQt6Core.so.6:_ZN10QArrayData10deallocateEPS_xx
libQt6Core.so.6:_ZN10QByteArray11reallocDataExN10QArrayData16AllocationOptionE
libQt6Core.so.6:_ZN10QByteArray6_emptyE
libQt6Core.so.6:_ZN10QByteArray6appendEc
libQt6Core.so.6:_ZN10QByteArray6insertEx14QByteArrayView
libQt6Core.so.6:_ZN11QFileDevice6resizeEx
libQt6Core.so.6:_ZN11QMetaObject10ConnectionD1Ev
libQt6Core.so.6:_ZN11QMetaObject8activateEP7QObjectPKS_iPPv
libQt6Core.so.6:_ZN11QTextStreamlsEPKc
libQt6Core.so.6:_ZN11QTextStreamlsERK7QString
libQt6Core.so.6:_ZN11QTextStreamlsEc
libQt6Core.so.6:_ZN14QStandardPaths16writableLocationENS_16StandardLocationE
libQt6Core.so.6:_ZN16QLoggingCategoryC1EPKc9QtMsgType
libQt6Core.so.6:_ZN16QLoggingCategoryD1Ev
libQt6Core.so.6:_ZN18QCryptographicHash4hashE14QByteArrayViewNS_9AlgorithmE
libQt6Core.so.6:_ZN21QAbstractConcatenable14appendLatin1ToE13QLatin1StringP5QChar
libQt6Core.so.6:_ZN4QDir6removeERK7QString
libQt6Core.so.6:_ZN4QDirC1ERK7QString
libQt6Core.so.6:_ZN4QDirD1Ev
libQt6Core.so.6:_ZN4QUrl7setHostERK7QStringNS_11ParsingModeE
libQt6Core.so.6:_ZN4QUrl7setPathERK7QStringNS_11ParsingModeE
libQt6Core.so.6:_ZN4QUrl8setQueryERK9QUrlQuery
libQt6Core.so.6:_ZN4QUrl9setSchemeERK7QString
libQt6Core.so.6:_ZN4QUrlC1Ev
libQt6Core.so.6:_ZN4QUrlD1Ev
libQt6Core.so.6:_ZN5QFile4openE6QFlagsIN13QIODeviceBase12OpenModeFlagEE
libQt6Core.so.6:_ZN5QFileC1ERK7QString
libQt6Core.so.6:_ZN5QFileD1Ev
libQt6Core.so.6:_ZN6QDebug9putStringEPK5QCharm
libQt6Core.so.6:_ZN6QDebugD1Ev
libQt6Core.so.6:_ZN7QObject10childEventEP11QChildEvent
libQt6Core.so.6:_ZN7QObject10timerEventEP11QTimerEvent
libQt6Core.so.6:_ZN7QObject11connectImplEPKS_PPvS1_S3_PN9QtPrivate15QSlotObjectBaseEN2Qt14ConnectionTypeEPKiPK11QMetaObject
libQt6Core.so.6:_ZN7QObject11customEventEP6QEvent
libQt6Core.so.6:_ZN7QObject11deleteLaterEv
libQt6Core.so.6:_ZN7QObject11eventFilterEPS_P6QEvent
libQt6Core.so.6:_ZN7QObject11qt_metacallEN11QMetaObject4CallEiPPv
libQt6Core.so.6:_ZN7QObject11qt_metacastEPKc
libQt6Core.so.6:_ZN7QObject13connectNotifyERK11QMetaMethod
libQt6Core.so.6:_ZN7QObject13doSetPropertyEPKcRK8QVariantPS2_
libQt6Core.so.6:_ZN7QObject13setObjectNameE14QAnyStringView
libQt6Core.so.6:_ZN7QObject16disconnectNotifyERK11QMetaMethod
libQt6Core.so.6:_ZN7QObject16staticMetaObjectE
libQt6Core.so.6:_ZN7QObject5eventEP6QEvent
libQt6Core.so.6:_ZN7QObjectC2EPS_
libQt6Core.so.6:_ZN7QObjectD2Ev
libQt6Core.so.6:_ZN7QString10fromLatin1E14QByteArrayView
libQt6Core.so.6:_ZN7QString13toUtf8_helperERKS_
libQt6Core.so.6:_ZN7QString14toLower_helperERKS_
libQt6Core.so.6:_ZN7QString14trimmed_helperERKS_
libQt6Core.so.6:_ZN7QString6_emptyE
libQt6Core.so.6:_ZN7QString6numberEii
libQt6Core.so.6:_ZN7QString8fromUtf8E14QByteArrayView
libQt6Core.so.6:_ZN7QStringC1ExN2Qt14InitializationE
libQt6Core.so.6:_ZN7QStringaSERKS_
libQt6Core.so.6:_ZN8QVariant13moveConstructE9QMetaTypePv
libQt6Core.so.6:_ZN8QVariantC1Eb
libQt6Core.so.6:_ZN8QVariantD1Ev
libQt6Core.so.6:_ZN9QFileInfo6existsERK7QString
libQt6Core.so.6:_ZN9QFileInfoD1Ev
libQt6Core.so.6:_ZN9QHashSeed10globalSeedEv
libQt6Core.so.6:_ZN9QIODevice4readEPcx
libQt6Core.so.6:_ZN9QIODevice5writeEPKcx
libQt6Core.so.6:_ZN9QIODevice7readAllEv
libQt6Core.so.6:_ZN9QMetaType14registerHelperEPKN9QtPrivate18QMetaTypeInterfaceE
libQt6Core.so.6:_ZN9QMetaType25registerNormalizedTypedefERK10QByteArrayS_
libQt6Core.so.6:_ZN9QMetaType7convertES_PKvS_Pv
libQt6Core.so.6:_ZN9QSaveFile4openE6QFlagsIN13QIODeviceBase12OpenModeFlagEE
libQt6Core.so.6:_ZN9QSaveFile6commitEv
libQt6Core.so.6:_ZN9QSaveFileC1ERK7QString
libQt6Core.so.6:_ZN9QSaveFileD1Ev
libQt6Core.so.6:_ZN9QUrlQuery12addQueryItemERK7QStringS2_
libQt6Core.so.6:_ZN9QUrlQueryC1Ev
libQt6Core.so.6:_ZN9QUrlQueryD1Ev
libQt6Core.so.6:_ZN9QtPrivate25QMetaTypeInterfaceWrapperI4QUrlE8metaTypeE
libQt6Core.so.6:_ZN9QtPrivate8qustrchrE11QStringViewDs
libQt6Core.so.6:_ZNK10QByteArray5toHexEc
libQt6Core.so.6:_ZNK11QMetaObject9classNameEv
libQt6Core.so.6:_ZNK11QObjectData17dynamicMetaObjectEv
libQt6Core.so.6:_ZNK14QMessageLogger5debugEv
libQt6Core.so.6:_ZNK14QMessageLogger7warningEv
libQt6Core.so.6:_ZNK4QDir13entryInfoListE6QFlagsINS_6FilterEES0_INS_8SortFlagEE
libQt6Core.so.6:_ZNK4QDir6existsEv
libQt6Core.so.6:_ZNK4QDir6mkpathERK7QStringSt8optionalI6QFlagsIN11QFileDevice10PermissionEEE
libQt6Core.so.6:_ZNK5QFile4sizeEv
libQt6Core.so.6:_ZNK5QFile8fileNameEv
libQt6Core.so.6:_ZNK7QObject8propertyEPKc
libQt6Core.so.6:_ZNK7QString5splitERKS_6QFlagsIN2Qt18SplitBehaviorFlagsEENS3_15CaseSensitivityE
libQt6Core.so.6:_ZNK8QVariant6isNullEv
libQt6Core.so.6:_ZNK9QFileInfo8fileNameEv
libQt6Core.so.6:_ZNK9QIODevice11errorStringEv
libQt6Core.so.6:_ZNK9QSaveFile8fileNameEv
libQt6Core.so.6:_ZTI7QObject
libQt6Core.so.6:_Zls6QDebugRK4QUrl
libQt6Core.so.6:qt_version_tag
libQt6Gui.so.6:_ZN12QKeySequenceC1E15QKeyCombinationS0_S0_S0_
libQt6Gui.so.6:_ZN12QKeySequenceD1Ev
libQt6Gui.so.6:_ZN12QPaintDeviceC2Ev
libQt6Gui.so.6:_ZN5QFont9setWeightENS_6WeightE
libQt6Gui.so.6:_ZN5QFontC1ERKS_
libQt6Gui.so.6:_ZN5QFontD1Ev
libQt6Gui.so.6:_ZN7QPixmap12loadFromDataEPKhjPKc6QFlagsIN2Qt19ImageConversionFlagEE
libQt6Gui.so.6:_ZN7QPixmap4loadERK7QStringPKc6QFlagsIN2Qt19ImageConversionFlagEE
libQt6Gui.so.6:_ZN7QPixmapC1ERKS_
libQt6Gui.so.6:_ZN7QPixmapC1Ev
libQt6Gui.so.6:_ZN7QPixmapD1Ev
libQt6Gui.so.6:_ZN7QPixmapaSERKS_
libQt6Gui.so.6:_ZNK7QPixmap4saveERK7QStringPKci
libQt6Gui.so.6:_ZNK7QPixmap6isNullEv
libQt6Gui.so.6:_ZTV7QPixmap
libQt6Network.so.6:_ZN15QNetworkRequest12setAttributeENS_9AttributeERK8QVariant
libQt6Network.so.6:_ZN15QNetworkRequestC1ERK4QUrl
libQt6Network.so.6:_ZN15QNetworkRequestD1Ev
libQt6Network.so.6:_ZN19QNetworkInformation18loadDefaultBackendEv
libQt6Network.so.6:_ZN19QNetworkInformation8instanceEv
libQt6Network.so.6:_ZN21QNetworkAccessManager16staticMetaObjectE
libQt6Network.so.6:_ZN21QNetworkAccessManager17setRedirectPolicyEN15QNetworkRequest14RedirectPolicyE
libQt6Network.so.6:_ZN21QNetworkAccessManager33setStrictTransportSecurityEnabledEb
libQt6Network.so.6:_ZN21QNetworkAccessManager34enableStrictTransportSecurityStoreEbRK7QString
libQt6Network.so.6:_ZN21QNetworkAccessManager3getERK15QNetworkRequest
libQt6Network.so.6:_ZN21QNetworkAccessManager8finishedEP13QNetworkReply
libQt6Network.so.6:_ZN21QNetworkAccessManagerC1EP7QObject
libQt6Network.so.6:_ZNK13QNetworkReply5errorEv
libQt6Network.so.6:_ZNK13QNetworkReply7requestEv
libQt6Network.so.6:_ZNK15QNetworkRequest3urlEv
libQt6Network.so.6:_ZNK19QNetworkInformation12reachabilityEv
libQt6Network.so.6:_ZNK19QNetworkInformation21isBehindCaptivePortalEv
libQt6Widgets.so.6:_ZN10QBoxLayout10addStretchEi
libQt6Widgets.so.6:_ZN10QBoxLayout9addLayoutEP7QLayouti
libQt6Widgets.so.6:_ZN10QBoxLayout9addWidgetEP7QWidgeti6QFlagsIN2Qt13AlignmentFlagEE
libQt6Widgets.so.6:_ZN11QHBoxLayoutC1Ev
libQt6Widgets.so.6:_ZN11QPushButton10setDefaultEb
libQt6Widgets.so.6:_ZN11QPushButtonC1ERK7QStringP7QWidget
libQt6Widgets.so.6:_ZN11QVBoxLayoutC1EP7QWidget
libQt6Widgets.so.6:_ZN15QAbstractButton11setShortcutERK12QKeySequence
libQt6Widgets.so.6:_ZN15QAbstractButton16staticMetaObjectE
libQt6Widgets.so.6:_ZN15QAbstractButton7clickedEb
libQt6Widgets.so.6:_ZN15QAbstractButton7toggledEb
libQt6Widgets.so.6:_ZN16QDialogButtonBox16staticMetaObjectE
libQt6Widgets.so.6:_ZN16QDialogButtonBox8acceptedEv
libQt6Widgets.so.6:_ZN16QDialogButtonBox8rejectedEv
libQt6Widgets.so.6:_ZN16QDialogButtonBoxC1E6QFlagsINS_14StandardButtonEEP7QWidget
libQt6Widgets.so.6:_ZN6QLabel7setTextERK7QString
libQt6Widgets.so.6:_ZN6QLabel9setPixmapERK7QPixmap
libQt6Widgets.so.6:_ZN6QLabelC1EP7QWidget6QFlagsIN2Qt10WindowTypeEE
libQt6Widgets.so.6:_ZN6QLabelC1ERK7QStringP7QWidget6QFlagsIN2Qt10WindowTypeEE
libQt6Widgets.so.6:_ZN7QDialog10closeEventEP11QCloseEvent
libQt6Widgets.so.6:_ZN7QDialog10setVisibleEb
libQt6Widgets.so.6:_ZN7QDialog11eventFilterEP7QObjectP6QEvent
libQt6Widgets.so.6:_ZN7QDialog11qt_metacallEN11QMetaObject4CallEiPPv
libQt6Widgets.so.6:_ZN7QDialog11qt_metacastEPKc
libQt6Widgets.so.6:_ZN7QDialog11resizeEventEP12QResizeEvent
libQt6Widgets.so.6:_ZN7QDialog13keyPressEventEP9QKeyEvent
libQt6Widgets.so.6:_ZN7QDialog16contextMenuEventEP17QContextMenuEvent
libQt6Widgets.so.6:_ZN7QDialog16staticMetaObjectE
libQt6Widgets.so.6:_ZN7QDialog4doneEi
libQt6Widgets.so.6:_ZN7QDialog4execEv
libQt6Widgets.so.6:_ZN7QDialog4openEv
libQt6Widgets.so.6:_ZN7QDialog6acceptEv
libQt6Widgets.so.6:_ZN7QDialog6rejectEv
libQt6Widgets.so.6:_ZN7QDialog9showEventEP10QShowEvent
libQt6Widgets.so.6:_ZN7QDialogC2EP7QWidget6QFlagsIN2Qt10WindowTypeEE
libQt6Widgets.so.6:_ZN7QDialogD2Ev
libQt6Widgets.so.6:_ZN7QLayout18setContentsMarginsEiiii
libQt6Widgets.so.6:_ZN7QWidget10closeEventEP11QCloseEvent
libQt6Widgets.so.6:_ZN7QWidget10enterEventEP11QEnterEvent
libQt6Widgets.so.6:_ZN7QWidget10leaveEventEP6QEvent
libQt6Widgets.so.6:_ZN7QWidget10paintEventEP11QPaintEvent
libQt6Widgets.so.6:_ZN7QWidget10setEnabledEb
libQt6Widgets.so.6:_ZN7QWidget10setVisibleEb
libQt6Widgets.so.6:_ZN7QWidget10wheelEventEP11QWheelEvent
libQt6Widgets.so.6:_ZN7QWidget11actionEventEP12QActionEvent
libQt6Widgets.so.6:_ZN7QWidget11changeEventEP6QEvent
libQt6Widgets.so.6:_ZN7QWidget11nativeEventERK10QByteArrayPvPx
libQt6Widgets.so.6:_ZN7QWidget11qt_metacallEN11QMetaObject4CallEiPPv
libQt6Widgets.so.6:_ZN7QWidget11qt_metacastEPKc
libQt6Widgets.so.6:_ZN7QWidget11resizeEventEP12QResizeEvent
libQt6Widgets.so.6:_ZN7QWidget11tabletEventEP12QTabletEvent
libQt6Widgets.so.6:_ZN7QWidget12focusInEventEP11QFocusEvent
libQt6Widgets.so.6:_ZN7QWidget13dragMoveEventEP14QDragMoveEvent
libQt6Widgets.so.6:_ZN7QWidget13focusOutEventEP11QFocusEvent
libQt6Widgets.so.6:_ZN7QWidget13keyPressEventEP9QKeyEvent
libQt6Widgets.so.6:_ZN7QWidget14dragEnterEventEP15QDragEnterEvent
libQt6Widgets.so.6:_ZN7QWidget14dragLeaveEventEP15QDragLeaveEvent
libQt6Widgets.so.6:_ZN7QWidget14mouseMoveEventEP11QMouseEvent
libQt6Widgets.so.6:_ZN7QWidget14setWindowTitleERK7QString
libQt6Widgets.so.6:_ZN7QWidget15keyReleaseEventEP9QKeyEvent
libQt6Widgets.so.6:_ZN7QWidget15mousePressEventEP11QMouseEvent
libQt6Widgets.so.6:_ZN7QWidget16contextMenuEventEP17QContextMenuEvent
libQt6Widgets.so.6:_ZN7QWidget16inputMethodEventEP17QInputMethodEvent
libQt6Widgets.so.6:_ZN7QWidget16staticMetaObjectE
libQt6Widgets.so.6:_ZN7QWidget17mouseReleaseEventEP11QMouseEvent
libQt6Widgets.so.6:_ZN7QWidget18focusNextPrevChildEb
libQt6Widgets.so.6:_ZN7QWidget21mouseDoubleClickEventEP11QMouseEvent
libQt6Widgets.so.6:_ZN7QWidget5eventEP6QEvent
libQt6Widgets.so.6:_ZN7QWidget7setFontERK5QFont
libQt6Widgets.so.6:_ZN7QWidget9dropEventEP10QDropEvent
libQt6Widgets.so.6:_ZN7QWidget9hideEventEP10QHideEvent
libQt6Widgets.so.6:_ZN7QWidget9moveEventEP10QMoveEvent
libQt6Widgets.so.6:_ZN7QWidget9showEventEP10QShowEvent
libQt6Widgets.so.6:_ZN7QWidgetC2EPS_6QFlagsIN2Qt10WindowTypeEE
libQt6Widgets.so.6:_ZN7QWidgetD2Ev
libQt6Widgets.so.6:_ZN8QSpinBox10setMaximumEi
libQt6Widgets.so.6:_ZN8QSpinBox10setMinimumEi
libQt6Widgets.so.6:_ZN8QSpinBox12valueChangedEi
libQt6Widgets.so.6:_ZN8QSpinBox16staticMetaObjectE
libQt6Widgets.so.6:_ZN8QSpinBox9setPrefixERK7QString
libQt6Widgets.so.6:_ZN8QSpinBox9setSuffixERK7QString
libQt6Widgets.so.6:_ZN8QSpinBoxC1EP7QWidget
libQt6Widgets.so.6:_ZN9QCheckBoxC1ERK7QStringP7QWidget
libQt6Widgets.so.6:_ZN9QLineEdit11textChangedERK7QString
libQt6Widgets.so.6:_ZN9QLineEdit16staticMetaObjectE
libQt6Widgets.so.6:_ZN9QLineEditC1EP7QWidget
libQt6Widgets.so.6:_ZNK15QAbstractButton9isCheckedEv
libQt6Widgets.so.6:_ZNK16QDialogButtonBox6buttonENS_14StandardButtonE
libQt6Widgets.so.6:_ZNK7QDialog15minimumSizeHintEv
libQt6Widgets.so.6:_ZNK7QDialog8sizeHintEv
libQt6Widgets.so.6:_ZNK7QWidget10redirectedEP6QPoint
libQt6Widgets.so.6:_ZNK7QWidget11initPainterEP8QPainter
libQt6Widgets.so.6:_ZNK7QWidget11paintEngineEv
libQt6Widgets.so.6:_ZNK7QWidget13sharedPainterEv
libQt6Widgets.so.6:_ZNK7QWidget14heightForWidthEi
libQt6Widgets.so.6:_ZNK7QWidget15minimumSizeHintEv
libQt6Widgets.so.6:_ZNK7QWidget16inputMethodQueryEN2Qt16InputMethodQueryE
libQt6Widgets.so.6:_ZNK7QWidget17hasHeightForWidthEv
libQt6Widgets.so.6:_ZNK7QWidget6metricEN12QPaintDevice17PaintDeviceMetricE
libQt6Widgets.so.6:_ZNK7QWidget7devTypeEv
libQt6Widgets.so.6:_ZNK7QWidget8sizeHintEv
libQt6Widgets.so.6:_ZNK8QSpinBox5valueEv
libQt6Widgets.so.6:_ZNK9QLineEdit4textEv
libQt6Widgets.so.6:_ZTI7QDialog
libQt6Widgets.so.6:_ZTI7QWidget
libQt6Widgets.so.6:_ZThn16_NK7QWidget10redirectedEP6QPoint
libQt6Widgets.so.6:_ZThn16_NK7QWidget11initPainterEP8QPainter
libQt6Widgets.so.6:_ZThn16_NK7QWidget11paintEngineEv
libQt6Widgets.so.6:_ZThn16_NK7QWidget13sharedPainterEv
libQt6Widgets.so.6:_ZThn16_NK7QWidget6metricEN12QPaintDevice17PaintDeviceMetricE
libQt6Widgets.so.6:_ZThn16_NK7QWidget7devTypeEv
libc.so.6:__cxa_atexit
libc.so.6:__stack_chk_fail
libc.so.6:memcmp
libc.so.6:memcpy
libc.so.6:memmove
libc.so.6:strcmp
libc.so.6:strlen
libstdc++.so.6:_ZSt20__throw_length_errorPKc
libstdc++.so.6:_ZTVN10__cxxabiv120__si_class_type_infoE
libstdc++.so.6:_ZdaPv
libstdc++.so.6:_ZdaPvm
libstdc++.so.6:_ZdlPvm
libstdc++.so.6:_Znam
libstdc++.so.6:_Znwm
libstdc++.so.6:__cxa_guard_acquire
libstdc++.so.6:__cxa_guard_release
