eiskaltdcpp-daemon:ServersS
eiskaltdcpp-daemon:_IO_stdin_used
eiskaltdcpp-daemon:_Z10LOCAL_PATHB5cxx11
eiskaltdcpp-daemon:_Z10ServerStopv
eiskaltdcpp-daemon:_Z11ServerStartv
eiskaltdcpp-daemon:_Z11splitMagnetRKNSt7__cxx1112basic_stringIcSt11char_traitsIcESaIcEEERS4_RlS7_
eiskaltdcpp-daemon:_Z12ConfigReloadv
eiskaltdcpp-daemon:_Z12printVersionv
eiskaltdcpp-daemon:_Z12writePidFilePc
eiskaltdcpp-daemon:_Z13xmlrpcUriPathB5cxx11
eiskaltdcpp-daemon:_Z16ServerInitializev
eiskaltdcpp-daemon:_Z3LogRKNSt7__cxx1112basic_stringIcSt11char_traitsIcESaIcEEE
eiskaltdcpp-daemon:_Z3lipB5cxx11
eiskaltdcpp-daemon:_Z4PATHB5cxx11
eiskaltdcpp-daemon:_Z6sTitleB5cxx11
eiskaltdcpp-daemon:_Z7loggingbbbRKNSt7__cxx1112basic_stringIcSt11char_traitsIcESaIcEEE
eiskaltdcpp-daemon:_Z8DirExistPc
eiskaltdcpp-daemon:_Z8LOG_FILEB5cxx11
eiskaltdcpp-daemon:_Z8callBackPvRKNSt7__cxx1112basic_stringIcSt11char_traitsIcESaIcEEE
eiskaltdcpp-daemon:_Z9parseArgsiPPc
eiskaltdcpp-daemon:_Z9printHelpv
eiskaltdcpp-daemon:_Z9xmlrpcLogB5cxx11
eiskaltdcpp-daemon:_ZN12ServerThread10addInQueueERKNSt7__cxx1112basic_stringIcSt11char_traitsIcESaIcEEES7_RKlS7_
eiskaltdcpp-daemon:_ZN12ServerThread10clientsMapB5cxx11E
eiskaltdcpp-daemon:_ZN12ServerThread10queueClearEv
eiskaltdcpp-daemon:_ZN12ServerThread10removeUserERKNSt7__cxx1112basic_stringIcSt11char_traitsIcESaIcEEEPN4dcpp6ClientE
eiskaltdcpp-daemon:_ZN12ServerThread10updateUserERKSt13unordered_mapINSt7__cxx1112basic_stringIcSt11char_traitsIcESaIcEEES6_St4hashIS6_ESt8equal_toIS6_ESaISt4pairIKS6_S6_EEEPN4dcpp6ClientE
eiskaltdcpp-daemon:_ZN12ServerThread11autoConnectEv
eiskaltdcpp-daemon:_ZN12ServerThread11getFileListERKNSt7__cxx1112basic_stringIcSt11char_traitsIcESaIcEEES7_b
eiskaltdcpp-daemon:_ZN12ServerThread11getUserInfoERSt13unordered_mapINSt7__cxx1112basic_stringIcSt11char_traitsIcESaIcEEES6_St4hashIS6_ESt8equal_toIS6_ESaISt4pairIKS6_S6_EEERSC_SH_
eiskaltdcpp-daemon:_ZN12ServerThread11lsDirInListEPN4dcpp16DirectoryListing9DirectoryERSt13unordered_mapINSt7__cxx1112basic_stringIcSt11char_traitsIcESaIcEEES4_ISA_SA_St4hashISA_ESt8equal_toISA_ESaISt4pairIKSA_SA_EEESC_SE_SaISF_ISG_SJ_EEE
eiskaltdcpp-daemon:_ZN12ServerThread11lsDirInListERKNSt7__cxx1112basic_stringIcSt11char_traitsIcESaIcEEES7_RSt13unordered_mapIS5_S8_IS5_S5_St4hashIS5_ESt8equal_toIS5_ESaISt4pairIS6_S5_EEESA_SC_SaISD_IS6_SG_EEE
eiskaltdcpp-daemon:_ZN12ServerThread11sendMessageERKNSt7__cxx1112basic_stringIcSt11char_traitsIcESaIcEEES7_
eiskaltdcpp-daemon:_ZN12ServerThread11startSocketEb
eiskaltdcpp-daemon:_ZN12ServerThread12configReloadEv
eiskaltdcpp-daemon:_ZN12ServerThread12ipFilterListERNSt7__cxx1112basic_stringIcSt11char_traitsIcESaIcEEERKS5_
eiskaltdcpp-daemon:_ZN12ServerThread12matchAllListEv
eiskaltdcpp-daemon:_ZN12ServerThread12openFileListERKNSt7__cxx1112basic_stringIcSt11char_traitsIcESaIcEEE
eiskaltdcpp-daemon:_ZN12ServerThread12searchFilterE
eiskaltdcpp-daemon:_ZN12ServerThread13addDirInShareERKNSt7__cxx1112basic_stringIcSt11char_traitsIcESaIcEEES7_
eiskaltdcpp-daemon:_ZN12ServerThread13closeFileListERKNSt7__cxx1112basic_stringIcSt11char_traitsIcESaIcEEE
eiskaltdcpp-daemon:_ZN12ServerThread13connectClientERKNSt7__cxx1112basic_stringIcSt11char_traitsIcESaIcEEES7_
eiskaltdcpp-daemon:_ZN12ServerThread13disconnectAllEv
eiskaltdcpp-daemon:_ZN12ServerThread13getHashStatusERNSt7__cxx1112basic_stringIcSt11char_traitsIcESaIcEEERmS7_S6_
eiskaltdcpp-daemon:_ZN12ServerThread13getParamsUserERSt13unordered_mapINSt7__cxx1112basic_stringIcSt11char_traitsIcESaIcEEES6_St4hashIS6_ESt8equal_toIS6_ESaISt4pairIKS6_S6_EEERN4dcpp8IdentityE
eiskaltdcpp-daemon:_ZN12ServerThread13ipFilterOnOffEb
eiskaltdcpp-daemon:_ZN12ServerThread13moveQueueItemERKNSt7__cxx1112basic_stringIcSt11char_traitsIcESaIcEEES7_
eiskaltdcpp-daemon:_ZN12ServerThread14getHubUserListERNSt7__cxx1112basic_stringIcSt11char_traitsIcESaIcEEERKS5_S8_
eiskaltdcpp-daemon:_ZN12ServerThread14getItemSourcesEPN4dcpp9QueueItemERKNSt7__cxx1112basic_stringIcSt11char_traitsIcESaIcEEERS8_Rj
eiskaltdcpp-daemon:_ZN12ServerThread14getQueueParamsEPN4dcpp9QueueItemERSt13unordered_mapINSt7__cxx1112basic_stringIcSt11char_traitsIcESaIcEEES9_St4hashIS9_ESt8equal_toIS9_ESaISt4pairIKS9_S9_EEE
eiskaltdcpp-daemon:_ZN12ServerThread14settingsGetSetERNSt7__cxx1112basic_stringIcSt11char_traitsIcESaIcEEERKS5_S8_
eiskaltdcpp-daemon:_ZN12ServerThread14showLocalListsERNSt7__cxx1112basic_stringIcSt11char_traitsIcESaIcEEERKS5_
eiskaltdcpp-daemon:_ZN12ServerThread14showPortsErrorERKNSt7__cxx1112basic_stringIcSt11char_traitsIcESaIcEEE
eiskaltdcpp-daemon:_ZN12ServerThread15delDirFromShareERKNSt7__cxx1112basic_stringIcSt11char_traitsIcESaIcEEE
eiskaltdcpp-daemon:_ZN12ServerThread15removeQueueItemERKNSt7__cxx1112basic_stringIcSt11char_traitsIcESaIcEEE
eiskaltdcpp-daemon:_ZN12ServerThread15revertSeparatorERKNSt7__cxx1112basic_stringIcSt11char_traitsIcESaIcEEE
eiskaltdcpp-daemon:_ZN12ServerThread15showOpenedListsERNSt7__cxx1112basic_stringIcSt11char_traitsIcESaIcEEERKS5_
eiskaltdcpp-daemon:_ZN12ServerThread16disconnectClientERKNSt7__cxx1112basic_stringIcSt11char_traitsIcESaIcEEE
eiskaltdcpp-daemon:_ZN12ServerThread16ipFilterAddRulesERKNSt7__cxx1112basic_stringIcSt11char_traitsIcESaIcEEE
eiskaltdcpp-daemon:_ZN12ServerThread16listHubsFullDescERSt13unordered_mapINSt7__cxx1112basic_stringIcSt11char_traitsIcESaIcEEES0_IS6_S6_St4hashIS6_ESt8equal_toIS6_ESaISt4pairIKS6_S6_EEES8_SA_SaISB_ISC_SF_EEE
eiskaltdcpp-daemon:_ZN12ServerThread16listQueueTargetsERNSt7__cxx1112basic_stringIcSt11char_traitsIcESaIcEEERKS5_
eiskaltdcpp-daemon:_ZN12ServerThread16renameDirInShareERKNSt7__cxx1112basic_stringIcSt11char_traitsIcESaIcEEES7_
eiskaltdcpp-daemon:_ZN12ServerThread16sendSearchOnHubsERKNSt7__cxx1112basic_stringIcSt11char_traitsIcESaIcEEERKiS9_S9_RKdS7_
eiskaltdcpp-daemon:_ZN12ServerThread17closeAllFileListsEv
eiskaltdcpp-daemon:_ZN12ServerThread17getClientFileListERKNSt7__cxx1112basic_stringIcSt11char_traitsIcESaIcEEERS5_
eiskaltdcpp-daemon:_ZN12ServerThread17parseSearchResultEN4dcpp13intrusive_ptrINS0_12SearchResultEEERSt13unordered_mapINSt7__cxx1112basic_stringIcSt11char_traitsIcESaIcEEESA_St4hashISA_ESt8equal_toISA_ESaISt4pairIKSA_SA_EEE
eiskaltdcpp-daemon:_ZN12ServerThread18clearSearchResultsERKNSt7__cxx1112basic_stringIcSt11char_traitsIcESaIcEEE
eiskaltdcpp-daemon:_ZN12ServerThread18ignoreSearchResultEN4dcpp13intrusive_ptrINS0_12SearchResultEEE
eiskaltdcpp-daemon:_ZN12ServerThread18ipFilterPurgeRulesERKNSt7__cxx1112basic_stringIcSt11char_traitsIcESaIcEEE
eiskaltdcpp-daemon:_ZN12ServerThread18ipFilterUpDownRuleEbRKNSt7__cxx1112basic_stringIcSt11char_traitsIcESaIcEEE
eiskaltdcpp-daemon:_ZN12ServerThread18sendPrivateMessageERKNSt7__cxx1112basic_stringIcSt11char_traitsIcESaIcEEES7_S7_
eiskaltdcpp-daemon:_ZN12ServerThread19downloadDirFromListEPN4dcpp16DirectoryListing9DirectoryEPS1_RKNSt7__cxx1112basic_stringIcSt11char_traitsIcESaIcEEE
eiskaltdcpp-daemon:_ZN12ServerThread19downloadDirFromListERKNSt7__cxx1112basic_stringIcSt11char_traitsIcESaIcEEES7_S7_
eiskaltdcpp-daemon:_ZN12ServerThread19getItemDescbyTargetERKNSt7__cxx1112basic_stringIcSt11char_traitsIcESaIcEEERSt13unordered_mapIS5_S5_St4hashIS5_ESt8equal_toIS5_ESaISt4pairIS6_S5_EEE
eiskaltdcpp-daemon:_ZN12ServerThread19returnSearchResultsERSt6vectorISt13unordered_mapINSt7__cxx1112basic_stringIcSt11char_traitsIcESaIcEEES7_St4hashIS7_ESt8equal_toIS7_ESaISt4pairIKS7_S7_EEESaISG_EERSD_
eiskaltdcpp-daemon:_ZN12ServerThread20downloadFileFromListEPN4dcpp16DirectoryListing4FileEPS1_RKNSt7__cxx1112basic_stringIcSt11char_traitsIcESaIcEEE
eiskaltdcpp-daemon:_ZN12ServerThread20downloadFileFromListERKNSt7__cxx1112basic_stringIcSt11char_traitsIcESaIcEEES7_S7_
eiskaltdcpp-daemon:_ZN12ServerThread20getChatPubFromClientERNSt7__cxx1112basic_stringIcSt11char_traitsIcESaIcEEERKS5_S8_
eiskaltdcpp-daemon:_ZN12ServerThread20listConnectedClientsERNSt7__cxx1112basic_stringIcSt11char_traitsIcESaIcEEERKS5_
eiskaltdcpp-daemon:_ZN12ServerThread20setPriorityQueueItemERKNSt7__cxx1112basic_stringIcSt11char_traitsIcESaIcEEERKj
eiskaltdcpp-daemon:_ZN12ServerThread22getItemSourcesbyTargetERKNSt7__cxx1112basic_stringIcSt11char_traitsIcESaIcEEES7_RS5_Rj
eiskaltdcpp-daemon:_ZN12ServerThread25findHubInConnectedClientsERKNSt7__cxx1112basic_stringIcSt11char_traitsIcESaIcEEE
eiskaltdcpp-daemon:_ZN12ServerThread2onEN4dcpp14ClientListener1XILi0EEEPNS0_6ClientE
eiskaltdcpp-daemon:_ZN12ServerThread2onEN4dcpp14ClientListener1XILi11EEEPNS0_6ClientERKNS0_11ChatMessageE
eiskaltdcpp-daemon:_ZN12ServerThread2onEN4dcpp14ClientListener1XILi12EEEPNS0_6ClientERKNSt7__cxx1112basic_stringIcSt11char_traitsIcESaIcEEEi
eiskaltdcpp-daemon:_ZN12ServerThread2onEN4dcpp14ClientListener1XILi15EEEPNS0_6ClientE
eiskaltdcpp-daemon:_ZN12ServerThread2onEN4dcpp14ClientListener1XILi16EEEPNS0_6ClientERKNSt7__cxx1112basic_stringIcSt11char_traitsIcESaIcEEE
eiskaltdcpp-daemon:_ZN12ServerThread2onEN4dcpp14ClientListener1XILi1EEEPNS0_6ClientE
eiskaltdcpp-daemon:_ZN12ServerThread2onEN4dcpp14ClientListener1XILi3EEEPNS0_6ClientERKNS0_10OnlineUserE
eiskaltdcpp-daemon:_ZN12ServerThread2onEN4dcpp14ClientListener1XILi4EEEPNS0_6ClientERKSt6vectorIPNS0_10OnlineUserESaIS8_EE
eiskaltdcpp-daemon:_ZN12ServerThread2onEN4dcpp14ClientListener1XILi5EEEPNS0_6ClientERKNS0_10OnlineUserE
eiskaltdcpp-daemon:_ZN12ServerThread2onEN4dcpp14ClientListener1XILi6EEEPNS0_6ClientERKNSt7__cxx1112basic_stringIcSt11char_traitsIcESaIcEEE
eiskaltdcpp-daemon:_ZN12ServerThread2onEN4dcpp14ClientListener1XILi7EEEPNS0_6ClientERKNSt7__cxx1112basic_stringIcSt11char_traitsIcESaIcEEE
eiskaltdcpp-daemon:_ZN12ServerThread2onEN4dcpp14ClientListener1XILi8EEEPNS0_6ClientE
eiskaltdcpp-daemon:_ZN12ServerThread2onEN4dcpp14ClientListener1XILi9EEEPNS0_6ClientE
eiskaltdcpp-daemon:_ZN12ServerThread2onEN4dcpp20TimerManagerListener1XILi0EEEm
eiskaltdcpp-daemon:_ZN12ServerThread2onEN4dcpp21SearchManagerListener1XILi0EEERKNS0_13intrusive_ptrINS0_12SearchResultEEE
eiskaltdcpp-daemon:_ZN12ServerThread3runEv
eiskaltdcpp-daemon:_ZN12ServerThread5CloseEv
eiskaltdcpp-daemon:_ZN12ServerThread6ResumeEv
eiskaltdcpp-daemon:_ZN12ServerThread7WaitForEv
eiskaltdcpp-daemon:_ZN12ServerThread9listQueueERSt13unordered_mapINSt7__cxx1112basic_stringIcSt11char_traitsIcESaIcEEES0_IS6_S6_St4hashIS6_ESt8equal_toIS6_ESaISt4pairIKS6_S6_EEES8_SA_SaISB_ISC_SF_EEE
eiskaltdcpp-daemon:_ZN12ServerThread9listShareERNSt7__cxx1112basic_stringIcSt11char_traitsIcESaIcEEERKS5_
eiskaltdcpp-daemon:_ZN12ServerThread9pauseHashEv
eiskaltdcpp-daemon:_ZN12ServerThreadC1Ev
eiskaltdcpp-daemon:_ZN12ServerThreadC2Ev
eiskaltdcpp-daemon:_ZN12ServerThreadD0Ev
eiskaltdcpp-daemon:_ZN12ServerThreadD1Ev
eiskaltdcpp-daemon:_ZN12ServerThreadD2Ev
eiskaltdcpp-daemon:_ZN14JsonRpcMethods10GetChatPubERKN4Json5ValueERS1_
eiskaltdcpp-daemon:_ZN14JsonRpcMethods10QueueClearERKN4Json5ValueERS1_
eiskaltdcpp-daemon:_ZN14JsonRpcMethods10SendSearchERKN4Json5ValueERS1_
eiskaltdcpp-daemon:_ZN14JsonRpcMethods10StopDaemonERKN4Json5ValueERS1_
eiskaltdcpp-daemon:_ZN14JsonRpcMethods11GetFileListERKN4Json5ValueERS1_
eiskaltdcpp-daemon:_ZN14JsonRpcMethods11GetUserInfoERKN4Json5ValueERS1_
eiskaltdcpp-daemon:_ZN14JsonRpcMethods11LsDirInListERKN4Json5ValueERS1_
eiskaltdcpp-daemon:_ZN14JsonRpcMethods11ShowVersionERKN4Json5ValueERS1_
eiskaltdcpp-daemon:_ZN14JsonRpcMethods12AddQueueItemERKN4Json5ValueERS1_
eiskaltdcpp-daemon:_ZN14JsonRpcMethods12IpFilterListERKN4Json5ValueERS1_
eiskaltdcpp-daemon:_ZN14JsonRpcMethods12OpenFileListERKN4Json5ValueERS1_
eiskaltdcpp-daemon:_ZN14JsonRpcMethods12RefreshShareERKN4Json5ValueERS1_
eiskaltdcpp-daemon:_ZN14JsonRpcMethods13AddDirInShareERKN4Json5ValueERS1_
eiskaltdcpp-daemon:_ZN14JsonRpcMethods13CloseFileListERKN4Json5ValueERS1_
eiskaltdcpp-daemon:_ZN14JsonRpcMethods13GetHashStatusERKN4Json5ValueERS1_
eiskaltdcpp-daemon:_ZN14JsonRpcMethods13IpFilterOnOffERKN4Json5ValueERS1_
eiskaltdcpp-daemon:_ZN14JsonRpcMethods13MatchAllListsERKN4Json5ValueERS1_
eiskaltdcpp-daemon:_ZN14JsonRpcMethods13MoveQueueItemERKN4Json5ValueERS1_
eiskaltdcpp-daemon:_ZN14JsonRpcMethods14GetHubUserListERKN4Json5ValueERS1_
eiskaltdcpp-daemon:_ZN14JsonRpcMethods14GetSourcesItemERKN4Json5ValueERS1_
eiskaltdcpp-daemon:_ZN14JsonRpcMethods14SettingsGetSetERKN4Json5ValueERS1_
eiskaltdcpp-daemon:_ZN14JsonRpcMethods14ShowLocalListsERKN4Json5ValueERS1_
eiskaltdcpp-daemon:_ZN14JsonRpcMethods15DelDirFromShareERKN4Json5ValueERS1_
eiskaltdcpp-daemon:_ZN14JsonRpcMethods15RemoveQueueItemERKN4Json5ValueERS1_
eiskaltdcpp-daemon:_ZN14JsonRpcMethods15ShowOpenedListsERKN4Json5ValueERS1_
eiskaltdcpp-daemon:_ZN14JsonRpcMethods16IpFilterAddRulesERKN4Json5ValueERS1_
eiskaltdcpp-daemon:_ZN14JsonRpcMethods16ListHubsFullDescERKN4Json5ValueERS1_
eiskaltdcpp-daemon:_ZN14JsonRpcMethods16ListQueueTargetsERKN4Json5ValueERS1_
eiskaltdcpp-daemon:_ZN14JsonRpcMethods16RenameDirInShareERKN4Json5ValueERS1_
eiskaltdcpp-daemon:_ZN14JsonRpcMethods17CloseAllFileListsERKN4Json5ValueERS1_
eiskaltdcpp-daemon:_ZN14JsonRpcMethods17GetClientFileListERKN4Json5ValueERS1_
eiskaltdcpp-daemon:_ZN14JsonRpcMethods18ClearSearchResultsERKN4Json5ValueERS1_
eiskaltdcpp-daemon:_ZN14JsonRpcMethods18IpFilterPurgeRulesERKN4Json5ValueERS1_
eiskaltdcpp-daemon:_ZN14JsonRpcMethods18IpFilterUpDownRuleERKN4Json5ValueERS1_
eiskaltdcpp-daemon:_ZN14JsonRpcMethods19DownloadDirFromListERKN4Json5ValueERS1_
eiskaltdcpp-daemon:_ZN14JsonRpcMethods19GetItemDescbyTargetERKN4Json5ValueERS1_
eiskaltdcpp-daemon:_ZN14JsonRpcMethods19ReturnSearchResultsERKN4Json5ValueERS1_
eiskaltdcpp-daemon:_ZN14JsonRpcMethods20DownloadFileFromListERKN4Json5ValueERS1_
eiskaltdcpp-daemon:_ZN14JsonRpcMethods20SetPriorityQueueItemERKN4Json5ValueERS1_
eiskaltdcpp-daemon:_ZN14JsonRpcMethods21FailedValidateRequestERN4Json5ValueE
eiskaltdcpp-daemon:_ZN14JsonRpcMethods6HubAddERKN4Json5ValueERS1_
eiskaltdcpp-daemon:_ZN14JsonRpcMethods6HubDelERKN4Json5ValueERS1_
eiskaltdcpp-daemon:_ZN14JsonRpcMethods6HubSayERKN4Json5ValueERS1_
eiskaltdcpp-daemon:_ZN14JsonRpcMethods8HubSayPMERKN4Json5ValueERS1_
eiskaltdcpp-daemon:_ZN14JsonRpcMethods8ListHubsERKN4Json5ValueERS1_
eiskaltdcpp-daemon:_ZN14JsonRpcMethods9ListQueueERKN4Json5ValueERS1_
eiskaltdcpp-daemon:_ZN14JsonRpcMethods9ListShareERKN4Json5ValueERS1_
eiskaltdcpp-daemon:_ZN14JsonRpcMethods9MagnetAddERKN4Json5ValueERS1_
eiskaltdcpp-daemon:_ZN14JsonRpcMethods9PauseHashERKN4Json5ValueERS1_
eiskaltdcpp-daemon:_ZN14JsonRpcMethods9ShowRatioERKN4Json5ValueERS1_
eiskaltdcpp-daemon:_ZN4Json10FastWriter10writeValueERKNS_5ValueE
eiskaltdcpp-daemon:_ZN4Json10FastWriter20dropNullPlaceholdersEv
eiskaltdcpp-daemon:_ZN4Json10FastWriter23enableYAMLCompatibilityEv
eiskaltdcpp-daemon:_ZN4Json10FastWriter5writeB5cxx11ERKNS_5ValueE
eiskaltdcpp-daemon:_ZN4Json10FastWriterC1Ev
eiskaltdcpp-daemon:_ZN4Json10FastWriterC2Ev
eiskaltdcpp-daemon:_ZN4Json12PathArgumentC1EPKc
eiskaltdcpp-daemon:_ZN4Json12PathArgumentC1ERKNSt7__cxx1112basic_stringIcSt11char_traitsIcESaIcEEE
eiskaltdcpp-daemon:_ZN4Json12PathArgumentC1Ej
eiskaltdcpp-daemon:_ZN4Json12PathArgumentC1Ev
eiskaltdcpp-daemon:_ZN4Json12PathArgumentC2EPKc
eiskaltdcpp-daemon:_ZN4Json12PathArgumentC2ERKNSt7__cxx1112basic_stringIcSt11char_traitsIcESaIcEEE
eiskaltdcpp-daemon:_ZN4Json12PathArgumentC2Ej
eiskaltdcpp-daemon:_ZN4Json12PathArgumentC2Ev
eiskaltdcpp-daemon:_ZN4Json12StyledWriter10writeValueERKNS_5ValueE
eiskaltdcpp-daemon:_ZN4Json12StyledWriter11writeIndentEv
eiskaltdcpp-daemon:_ZN4Json12StyledWriter12normalizeEOLERKNSt7__cxx1112basic_stringIcSt11char_traitsIcESaIcEEE
eiskaltdcpp-daemon:_ZN4Json12StyledWriter14isMultineArrayERKNS_5ValueE
eiskaltdcpp-daemon:_ZN4Json12StyledWriter15writeArrayValueERKNS_5ValueE
eiskaltdcpp-daemon:_ZN4Json12StyledWriter15writeWithIndentERKNSt7__cxx1112basic_stringIcSt11char_traitsIcESaIcEEE
eiskaltdcpp-daemon:_ZN4Json12StyledWriter18hasCommentForValueERKNS_5ValueE
eiskaltdcpp-daemon:_ZN4Json12StyledWriter23writeCommentBeforeValueERKNS_5ValueE
eiskaltdcpp-daemon:_ZN4Json12StyledWriter32writeCommentAfterValueOnSameLineERKNS_5ValueE
eiskaltdcpp-daemon:_ZN4Json12StyledWriter5writeB5cxx11ERKNS_5ValueE
eiskaltdcpp-daemon:_ZN4Json12StyledWriter6indentEv
eiskaltdcpp-daemon:_ZN4Json12StyledWriter8unindentEv
eiskaltdcpp-daemon:_ZN4Json12StyledWriter9pushValueERKNSt7__cxx1112basic_stringIcSt11char_traitsIcESaIcEEE
eiskaltdcpp-daemon:_ZN4Json12StyledWriterC1Ev
eiskaltdcpp-daemon:_ZN4Json12StyledWriterC2Ev
eiskaltdcpp-daemon:_ZN4Json13ValueIteratorC1ERKNS_18ValueConstIteratorE
eiskaltdcpp-daemon:_ZN4Json13ValueIteratorC1ERKS0_
eiskaltdcpp-daemon:_ZN4Json13ValueIteratorC1ERKSt17_Rb_tree_iteratorISt4pairIKNS_5Value8CZStringES3_EE
eiskaltdcpp-daemon:_ZN4Json13ValueIteratorC1Ev
eiskaltdcpp-daemon:_ZN4Json13ValueIteratorC2ERKNS_18ValueConstIteratorE
eiskaltdcpp-daemon:_ZN4Json13ValueIteratorC2ERKS0_
eiskaltdcpp-daemon:_ZN4Json13ValueIteratorC2ERKSt17_Rb_tree_iteratorISt4pairIKNS_5Value8CZStringES3_EE
eiskaltdcpp-daemon:_ZN4Json13ValueIteratorC2Ev
eiskaltdcpp-daemon:_ZN4Json13ValueIteratoraSERKS0_
eiskaltdcpp-daemon:_ZN4Json13valueToStringB5cxx11Eb
eiskaltdcpp-daemon:_ZN4Json13valueToStringB5cxx11Ed
eiskaltdcpp-daemon:_ZN4Json13valueToStringB5cxx11Ei
eiskaltdcpp-daemon:_ZN4Json13valueToStringB5cxx11Ej
eiskaltdcpp-daemon:_ZN4Json13valueToStringB5cxx11Ex
eiskaltdcpp-daemon:_ZN4Json13valueToStringB5cxx11Ey
eiskaltdcpp-daemon:_ZN4Json17ValueIteratorBase4copyERKS0_
eiskaltdcpp-daemon:_ZN4Json17ValueIteratorBase9decrementEv
eiskaltdcpp-daemon:_ZN4Json17ValueIteratorBase9incrementEv
eiskaltdcpp-daemon:_ZN4Json17ValueIteratorBaseC1ERKSt17_Rb_tree_iteratorISt4pairIKNS_5Value8CZStringES3_EE
eiskaltdcpp-daemon:_ZN4Json17ValueIteratorBaseC1Ev
eiskaltdcpp-daemon:_ZN4Json17ValueIteratorBaseC2ERKSt17_Rb_tree_iteratorISt4pairIKNS_5Value8CZStringES3_EE
eiskaltdcpp-daemon:_ZN4Json17ValueIteratorBaseC2Ev
eiskaltdcpp-daemon:_ZN4Json18StyledStreamWriter10writeValueERKNS_5ValueE
eiskaltdcpp-daemon:_ZN4Json18StyledStreamWriter11writeIndentEv
eiskaltdcpp-daemon:_ZN4Json18StyledStreamWriter12normalizeEOLERKNSt7__cxx1112basic_stringIcSt11char_traitsIcESaIcEEE
eiskaltdcpp-daemon:_ZN4Json18StyledStreamWriter14isMultineArrayERKNS_5ValueE
eiskaltdcpp-daemon:_ZN4Json18StyledStreamWriter15writeArrayValueERKNS_5ValueE
eiskaltdcpp-daemon:_ZN4Json18StyledStreamWriter15writeWithIndentERKNSt7__cxx1112basic_stringIcSt11char_traitsIcESaIcEEE
eiskaltdcpp-daemon:_ZN4Json18StyledStreamWriter18hasCommentForValueERKNS_5ValueE
eiskaltdcpp-daemon:_ZN4Json18StyledStreamWriter23writeCommentBeforeValueERKNS_5ValueE
eiskaltdcpp-daemon:_ZN4Json18StyledStreamWriter32writeCommentAfterValueOnSameLineERKNS_5ValueE
eiskaltdcpp-daemon:_ZN4Json18StyledStreamWriter5writeERSoRKNS_5ValueE
eiskaltdcpp-daemon:_ZN4Json18StyledStreamWriter6indentEv
eiskaltdcpp-daemon:_ZN4Json18StyledStreamWriter8unindentEv
eiskaltdcpp-daemon:_ZN4Json18StyledStreamWriter9pushValueERKNSt7__cxx1112basic_stringIcSt11char_traitsIcESaIcEEE
eiskaltdcpp-daemon:_ZN4Json18StyledStreamWriterC1ENSt7__cxx1112basic_stringIcSt11char_traitsIcESaIcEEE
eiskaltdcpp-daemon:_ZN4Json18StyledStreamWriterC2ENSt7__cxx1112basic_stringIcSt11char_traitsIcESaIcEEE
eiskaltdcpp-daemon:_ZN4Json18ValueConstIteratorC1ERKSt17_Rb_tree_iteratorISt4pairIKNS_5Value8CZStringES3_EE
eiskaltdcpp-daemon:_ZN4Json18ValueConstIteratorC1Ev
eiskaltdcpp-daemon:_ZN4Json18ValueConstIteratorC2ERKSt17_Rb_tree_iteratorISt4pairIKNS_5Value8CZStringES3_EE
eiskaltdcpp-daemon:_ZN4Json18ValueConstIteratorC2Ev
eiskaltdcpp-daemon:_ZN4Json18ValueConstIteratoraSERKNS_17ValueIteratorBaseE
eiskaltdcpp-daemon:_ZN4Json19valueToQuotedStringB5cxx11EPKc
eiskaltdcpp-daemon:_ZN4Json3Rpc10HTTPServer11stopPollingEv
eiskaltdcpp-daemon:_ZN4Json3Rpc10HTTPServer12DeleteMethodERKNSt7__cxx1112basic_stringIcSt11char_traitsIcESaIcEEE
eiskaltdcpp-daemon:_ZN4Json3Rpc10HTTPServer12sendResponseERNSt7__cxx1112basic_stringIcSt11char_traitsIcESaIcEEEPv
eiskaltdcpp-daemon:_ZN4Json3Rpc10HTTPServer12startPollingEv
eiskaltdcpp-daemon:_ZN4Json3Rpc10HTTPServer9AddMethodEPNS0_14CallbackMethodE
eiskaltdcpp-daemon:_ZN4Json3Rpc10HTTPServer9onRequestERKNSt7__cxx1112basic_stringIcSt11char_traitsIcESaIcEEEPv
eiskaltdcpp-daemon:_ZN4Json3Rpc10HTTPServerC1ERKNSt7__cxx1112basic_stringIcSt11char_traitsIcESaIcEEEt
eiskaltdcpp-daemon:_ZN4Json3Rpc10HTTPServerC2ERKNSt7__cxx1112basic_stringIcSt11char_traitsIcESaIcEEEt
eiskaltdcpp-daemon:_ZN4Json3Rpc10HTTPServerD0Ev
eiskaltdcpp-daemon:_ZN4Json3Rpc10HTTPServerD1Ev
eiskaltdcpp-daemon:_ZN4Json3Rpc10HTTPServerD2Ev
eiskaltdcpp-daemon:_ZN4Json3Rpc14CallbackMethodD0Ev
eiskaltdcpp-daemon:_ZN4Json3Rpc14CallbackMethodD1Ev
eiskaltdcpp-daemon:_ZN4Json3Rpc14CallbackMethodD2Ev
eiskaltdcpp-daemon:_ZN4Json3Rpc6serverE
eiskaltdcpp-daemon:_ZN4Json3Rpc7Handler12DeleteMethodERKNSt7__cxx1112basic_stringIcSt11char_traitsIcESaIcEEE
eiskaltdcpp-daemon:_ZN4Json3Rpc7Handler14SystemDescribeERKNS_5ValueERS2_
eiskaltdcpp-daemon:_ZN4Json3Rpc7Handler5CheckERKNS_5ValueERS2_
eiskaltdcpp-daemon:_ZN4Json3Rpc7Handler7ProcessEPKcRNS_5ValueE
eiskaltdcpp-daemon:_ZN4Json3Rpc7Handler7ProcessERKNS_5ValueERS2_
eiskaltdcpp-daemon:_ZN4Json3Rpc7Handler7ProcessERKNSt7__cxx1112basic_stringIcSt11char_traitsIcESaIcEEERNS_5ValueE
eiskaltdcpp-daemon:_ZN4Json3Rpc7Handler9AddMethodEPNS0_14CallbackMethodE
eiskaltdcpp-daemon:_ZN4Json3Rpc7Handler9GetStringB5cxx11ENS_5ValueE
eiskaltdcpp-daemon:_ZN4Json3Rpc7HandlerC1Ev
eiskaltdcpp-daemon:_ZN4Json3Rpc7HandlerC2Ev
eiskaltdcpp-daemon:_ZN4Json3Rpc7HandlerD0Ev
eiskaltdcpp-daemon:_ZN4Json3Rpc7HandlerD1Ev
eiskaltdcpp-daemon:_ZN4Json3Rpc7HandlerD2Ev
eiskaltdcpp-daemon:_ZN4Json4Path11invalidPathERKNSt7__cxx1112basic_stringIcSt11char_traitsIcESaIcEEEi
eiskaltdcpp-daemon:_ZN4Json4Path12addPathInArgERKNSt7__cxx1112basic_stringIcSt11char_traitsIcESaIcEEERKSt6vectorIPKNS_12PathArgumentESaISC_EERN9__gnu_cxx17__normal_iteratorIPKSC_SE_EENSA_4KindE
eiskaltdcpp-daemon:_ZN4Json4Path8makePathERKNSt7__cxx1112basic_stringIcSt11char_traitsIcESaIcEEERKSt6vectorIPKNS_12PathArgumentESaISC_EE
eiskaltdcpp-daemon:_ZN4Json4PathC1ERKNSt7__cxx1112basic_stringIcSt11char_traitsIcESaIcEEERKNS_12PathArgumentESB_SB_SB_SB_
eiskaltdcpp-daemon:_ZN4Json4PathC2ERKNSt7__cxx1112basic_stringIcSt11char_traitsIcESaIcEEERKNS_12PathArgumentESB_SB_SB_SB_
eiskaltdcpp-daemon:_ZN4Json5Value10setCommentEPKcNS_16CommentPlacementE
eiskaltdcpp-daemon:_ZN4Json5Value10setCommentERKNSt7__cxx1112basic_stringIcSt11char_traitsIcESaIcEEENS_16CommentPlacementE
eiskaltdcpp-daemon:_ZN4Json5Value11CommentInfo10setCommentEPKc
eiskaltdcpp-daemon:_ZN4Json5Value11CommentInfoC1Ev
eiskaltdcpp-daemon:_ZN4Json5Value11CommentInfoC2Ev
eiskaltdcpp-daemon:_ZN4Json5Value11CommentInfoD1Ev
eiskaltdcpp-daemon:_ZN4Json5Value11CommentInfoD2Ev
eiskaltdcpp-daemon:_ZN4Json5Value12removeMemberEPKc
eiskaltdcpp-daemon:_ZN4Json5Value12removeMemberERKNSt7__cxx1112basic_stringIcSt11char_traitsIcESaIcEEE
eiskaltdcpp-daemon:_ZN4Json5Value13maxLargestIntE
eiskaltdcpp-daemon:_ZN4Json5Value13minLargestIntE
eiskaltdcpp-daemon:_ZN4Json5Value14maxLargestUIntE
eiskaltdcpp-daemon:_ZN4Json5Value16resolveReferenceEPKcb
eiskaltdcpp-daemon:_ZN4Json5Value3endEv
eiskaltdcpp-daemon:_ZN4Json5Value4nullE
eiskaltdcpp-daemon:_ZN4Json5Value4swapERS0_
eiskaltdcpp-daemon:_ZN4Json5Value5beginEv
eiskaltdcpp-daemon:_ZN4Json5Value5clearEv
eiskaltdcpp-daemon:_ZN4Json5Value6appendERKS0_
eiskaltdcpp-daemon:_ZN4Json5Value6maxIntE
eiskaltdcpp-daemon:_ZN4Json5Value6minIntE
eiskaltdcpp-daemon:_ZN4Json5Value6resizeEj
eiskaltdcpp-daemon:_ZN4Json5Value7maxUIntE
eiskaltdcpp-daemon:_ZN4Json5Value8CZString4swapERS1_
eiskaltdcpp-daemon:_ZN4Json5Value8CZStringC1EPKcNS1_17DuplicationPolicyE
eiskaltdcpp-daemon:_ZN4Json5Value8CZStringC1ERKS1_
eiskaltdcpp-daemon:_ZN4Json5Value8CZStringC1Ej
eiskaltdcpp-daemon:_ZN4Json5Value8CZStringC2EPKcNS1_17DuplicationPolicyE
eiskaltdcpp-daemon:_ZN4Json5Value8CZStringC2ERKS1_
eiskaltdcpp-daemon:_ZN4Json5Value8CZStringC2Ej
eiskaltdcpp-daemon:_ZN4Json5Value8CZStringD1Ev
eiskaltdcpp-daemon:_ZN4Json5Value8CZStringD2Ev
eiskaltdcpp-daemon:_ZN4Json5Value8CZStringaSERKS1_
eiskaltdcpp-daemon:_ZN4Json5Value8maxInt64E
eiskaltdcpp-daemon:_ZN4Json5Value8minInt64E
eiskaltdcpp-daemon:_ZN4Json5Value9maxUInt64E
eiskaltdcpp-daemon:_ZN4Json5ValueC1ENS_9ValueTypeE
eiskaltdcpp-daemon:_ZN4Json5ValueC1EPKc
eiskaltdcpp-daemon:_ZN4Json5ValueC1EPKcS2_
eiskaltdcpp-daemon:_ZN4Json5ValueC1ERKNS_12StaticStringE
eiskaltdcpp-daemon:_ZN4Json5ValueC1ERKNSt7__cxx1112basic_stringIcSt11char_traitsIcESaIcEEE
eiskaltdcpp-daemon:_ZN4Json5ValueC1ERKS0_
eiskaltdcpp-daemon:_ZN4Json5ValueC1Eb
eiskaltdcpp-daemon:_ZN4Json5ValueC1Ed
eiskaltdcpp-daemon:_ZN4Json5ValueC1Ei
eiskaltdcpp-daemon:_ZN4Json5ValueC1Ej
eiskaltdcpp-daemon:_ZN4Json5ValueC1Ex
eiskaltdcpp-daemon:_ZN4Json5ValueC1Ey
eiskaltdcpp-daemon:_ZN4Json5ValueC2ENS_9ValueTypeE
eiskaltdcpp-daemon:_ZN4Json5ValueC2EPKc
eiskaltdcpp-daemon:_ZN4Json5ValueC2EPKcS2_
eiskaltdcpp-daemon:_ZN4Json5ValueC2ERKNS_12StaticStringE
eiskaltdcpp-daemon:_ZN4Json5ValueC2ERKNSt7__cxx1112basic_stringIcSt11char_traitsIcESaIcEEE
eiskaltdcpp-daemon:_ZN4Json5ValueC2ERKS0_
eiskaltdcpp-daemon:_ZN4Json5ValueC2Eb
eiskaltdcpp-daemon:_ZN4Json5ValueC2Ed
eiskaltdcpp-daemon:_ZN4Json5ValueC2Ei
eiskaltdcpp-daemon:_ZN4Json5ValueC2Ej
eiskaltdcpp-daemon:_ZN4Json5ValueC2Ex
eiskaltdcpp-daemon:_ZN4Json5ValueC2Ey
eiskaltdcpp-daemon:_ZN4Json5ValueD1Ev
eiskaltdcpp-daemon:_ZN4Json5ValueD2Ev
eiskaltdcpp-daemon:_ZN4Json5ValueaSERKS0_
eiskaltdcpp-daemon:_ZN4Json5ValueixEPKc
eiskaltdcpp-daemon:_ZN4Json5ValueixERKNS_12StaticStringE
eiskaltdcpp-daemon:_ZN4Json5ValueixERKNSt7__cxx1112basic_stringIcSt11char_traitsIcESaIcEEE
eiskaltdcpp-daemon:_ZN4Json5ValueixEi
eiskaltdcpp-daemon:_ZN4Json5ValueixEj
eiskaltdcpp-daemon:_ZN4Json6Reader10addCommentEPKcS2_NS_16CommentPlacementE
eiskaltdcpp-daemon:_ZN4Json6Reader10readNumberEv
eiskaltdcpp-daemon:_ZN4Json6Reader10readObjectERNS0_5TokenE
eiskaltdcpp-daemon:_ZN4Json6Reader10readStringEv
eiskaltdcpp-daemon:_ZN4Json6Reader10skipSpacesEv
eiskaltdcpp-daemon:_ZN4Json6Reader11expectTokenENS0_9TokenTypeERNS0_5TokenEPKc
eiskaltdcpp-daemon:_ZN4Json6Reader11getNextCharEv
eiskaltdcpp-daemon:_ZN4Json6Reader11readCommentEv
eiskaltdcpp-daemon:_ZN4Json6Reader12currentValueEv
eiskaltdcpp-daemon:_ZN4Json6Reader12decodeDoubleERNS0_5TokenE
eiskaltdcpp-daemon:_ZN4Json6Reader12decodeNumberERNS0_5TokenE
eiskaltdcpp-daemon:_ZN4Json6Reader12decodeStringERNS0_5TokenE
eiskaltdcpp-daemon:_ZN4Json6Reader12decodeStringERNS0_5TokenERNSt7__cxx1112basic_stringIcSt11char_traitsIcESaIcEEE
eiskaltdcpp-daemon:_ZN4Json6Reader16recoverFromErrorENS0_9TokenTypeE
eiskaltdcpp-daemon:_ZN4Json6Reader17readCStyleCommentEv
eiskaltdcpp-daemon:_ZN4Json6Reader17skipCommentTokensERNS0_5TokenE
eiskaltdcpp-daemon:_ZN4Json6Reader18addErrorAndRecoverERKNSt7__cxx1112basic_stringIcSt11char_traitsIcESaIcEEERNS0_5TokenENS0_9TokenTypeE
eiskaltdcpp-daemon:_ZN4Json6Reader19readCppStyleCommentEv
eiskaltdcpp-daemon:_ZN4Json6Reader22decodeUnicodeCodePointERNS0_5TokenERPKcS4_Rj
eiskaltdcpp-daemon:_ZN4Json6Reader27decodeUnicodeEscapeSequenceERNS0_5TokenERPKcS4_Rj
eiskaltdcpp-daemon:_ZN4Json6Reader5matchEPKci
eiskaltdcpp-daemon:_ZN4Json6Reader5parseEPKcS2_RNS_5ValueEb
eiskaltdcpp-daemon:_ZN4Json6Reader5parseERKNSt7__cxx1112basic_stringIcSt11char_traitsIcESaIcEEERNS_5ValueEb
eiskaltdcpp-daemon:_ZN4Json6Reader5parseERSiRNS_5ValueEb
eiskaltdcpp-daemon:_ZN4Json6Reader8addErrorERKNSt7__cxx1112basic_stringIcSt11char_traitsIcESaIcEEERNS0_5TokenEPKc
eiskaltdcpp-daemon:_ZN4Json6Reader9readArrayERNS0_5TokenE
eiskaltdcpp-daemon:_ZN4Json6Reader9readTokenERNS0_5TokenE
eiskaltdcpp-daemon:_ZN4Json6Reader9readValueEv
eiskaltdcpp-daemon:_ZN4Json6ReaderC1ERKNS_8FeaturesE
eiskaltdcpp-daemon:_ZN4Json6ReaderC1Ev
eiskaltdcpp-daemon:_ZN4Json6ReaderC2ERKNS_8FeaturesE
eiskaltdcpp-daemon:_ZN4Json6ReaderC2Ev
eiskaltdcpp-daemon:_ZN4Json6WriterD0Ev
eiskaltdcpp-daemon:_ZN4Json6WriterD1Ev
eiskaltdcpp-daemon:_ZN4Json6WriterD2Ev
eiskaltdcpp-daemon:_ZN4Json8Features10strictModeEv
eiskaltdcpp-daemon:_ZN4Json8Features3allEv
eiskaltdcpp-daemon:_ZN4Json8FeaturesC1Ev
eiskaltdcpp-daemon:_ZN4Json8FeaturesC2Ev
eiskaltdcpp-daemon:_ZN4JsonlsERSoRKNS_5ValueE
eiskaltdcpp-daemon:_ZN4JsonrsERSiRNS_5ValueE
eiskaltdcpp-daemon:_ZN4dcpp6magnet8parseUriERKNSt7__cxx1112basic_stringIcSt11char_traitsIcESaIcEEERSt13unordered_mapIS6_S6_St4hashIS6_ESt8equal_toIS6_ESaISt4pairIS7_S6_EEE
eiskaltdcpp-daemon:_ZN8IPFilter10MaskToCIDREj
eiskaltdcpp-daemon:_ZN8IPFilter10addToRulesERKNSt7__cxx1112basic_stringIcSt11char_traitsIcESaIcEEE10eDIRECTION
eiskaltdcpp-daemon:_ZN8IPFilter10clearRulesEv
eiskaltdcpp-daemon:_ZN8IPFilter10importFromENSt7__cxx1112basic_stringIcSt11char_traitsIcESaIcEEERS5_
eiskaltdcpp-daemon:_ZN8IPFilter10moveRuleUpEj12eTableAction
eiskaltdcpp-daemon:_ZN8IPFilter11MaskForBitsEj
eiskaltdcpp-daemon:_ZN8IPFilter11ParseStringENSt7__cxx1112basic_stringIcSt11char_traitsIcESaIcEEERjS6_R12eTableAction
eiskaltdcpp-daemon:_ZN8IPFilter12moveRuleDownEj12eTableAction
eiskaltdcpp-daemon:_ZN8IPFilter12remFromRulesENSt7__cxx1112basic_stringIcSt11char_traitsIcESaIcEEE12eTableAction
eiskaltdcpp-daemon:_ZN8IPFilter14StringToUint32ERKNSt7__cxx1112basic_stringIcSt11char_traitsIcESaIcEEE
eiskaltdcpp-daemon:_ZN8IPFilter14Uint32ToStringB5cxx11Ej
eiskaltdcpp-daemon:_ZN8IPFilter19changeRuleDirectionENSt7__cxx1112basic_stringIcSt11char_traitsIcESaIcEEE10eDIRECTION12eTableAction
eiskaltdcpp-daemon:_ZN8IPFilter2OKERKNSt7__cxx1112basic_stringIcSt11char_traitsIcESaIcEEE10eDIRECTION
eiskaltdcpp-daemon:_ZN8IPFilter4loadEv
eiskaltdcpp-daemon:_ZN8IPFilter4stepEj12eTableActionb
eiskaltdcpp-daemon:_ZN8IPFilter7getHashEv
eiskaltdcpp-daemon:_ZN8IPFilter8exportToENSt7__cxx1112basic_stringIcSt11char_traitsIcESaIcEEERS5_
eiskaltdcpp-daemon:_ZN8IPFilter8getRulesEv
eiskaltdcpp-daemon:_ZN8IPFilter8loadListEv
eiskaltdcpp-daemon:_ZN8IPFilter8saveListEv
eiskaltdcpp-daemon:_ZN8IPFilter8shutdownEv
eiskaltdcpp-daemon:_ZN8IPFilterC1Ev
eiskaltdcpp-daemon:_ZN8IPFilterC2Ev
eiskaltdcpp-daemon:_ZN8IPFilterD0Ev
eiskaltdcpp-daemon:_ZN8IPFilterD1Ev
eiskaltdcpp-daemon:_ZN8IPFilterD2Ev
eiskaltdcpp-daemon:_ZNK4Json17ValueIteratorBase10memberNameEv
eiskaltdcpp-daemon:_ZNK4Json17ValueIteratorBase15computeDistanceERKS0_
eiskaltdcpp-daemon:_ZNK4Json17ValueIteratorBase3keyEv
eiskaltdcpp-daemon:_ZNK4Json17ValueIteratorBase5derefEv
eiskaltdcpp-daemon:_ZNK4Json17ValueIteratorBase5indexEv
eiskaltdcpp-daemon:_ZNK4Json17ValueIteratorBase7isEqualERKS0_
eiskaltdcpp-daemon:_ZNK4Json3Rpc10HTTPServer10GetAddressB5cxx11Ev
eiskaltdcpp-daemon:_ZNK4Json3Rpc10HTTPServer7GetPortEv
eiskaltdcpp-daemon:_ZNK4Json3Rpc7Handler6LookupERKNSt7__cxx1112basic_stringIcSt11char_traitsIcESaIcEEE
eiskaltdcpp-daemon:_ZNK4Json4Path4makeERNS_5ValueE
eiskaltdcpp-daemon:_ZNK4Json4Path7resolveERKNS_5ValueE
eiskaltdcpp-daemon:_ZNK4Json4Path7resolveERKNS_5ValueES3_
eiskaltdcpp-daemon:_ZNK4Json5Value10getCommentB5cxx11ENS_16CommentPlacementE
eiskaltdcpp-daemon:_ZNK4Json5Value10hasCommentENS_16CommentPlacementE
eiskaltdcpp-daemon:_ZNK4Json5Value10isIntegralEv
eiskaltdcpp-daemon:_ZNK4Json5Value12asLargestIntEv
eiskaltdcpp-daemon:_ZNK4Json5Value12isValidIndexEj
eiskaltdcpp-daemon:_ZNK4Json5Value13asLargestUIntEv
eiskaltdcpp-daemon:_ZNK4Json5Value14getMemberNamesB5cxx11Ev
eiskaltdcpp-daemon:_ZNK4Json5Value14toStyledStringB5cxx11Ev
eiskaltdcpp-daemon:_ZNK4Json5Value15isConvertibleToENS_9ValueTypeE
eiskaltdcpp-daemon:_ZNK4Json5Value3endEv
eiskaltdcpp-daemon:_ZNK4Json5Value3getEPKcRKS0_
eiskaltdcpp-daemon:_ZNK4Json5Value3getERKNSt7__cxx1112basic_stringIcSt11char_traitsIcESaIcEEERKS0_
eiskaltdcpp-daemon:_ZNK4Json5Value3getEjRKS0_
eiskaltdcpp-daemon:_ZNK4Json5Value4sizeEv
eiskaltdcpp-daemon:_ZNK4Json5Value4typeEv
eiskaltdcpp-daemon:_ZNK4Json5Value5asIntEv
eiskaltdcpp-daemon:_ZNK4Json5Value5beginEv
eiskaltdcpp-daemon:_ZNK4Json5Value5emptyEv
eiskaltdcpp-daemon:_ZNK4Json5Value5isIntEv
eiskaltdcpp-daemon:_ZNK4Json5Value6asBoolEv
eiskaltdcpp-daemon:_ZNK4Json5Value6asUIntEv
eiskaltdcpp-daemon:_ZNK4Json5Value6isBoolEv
eiskaltdcpp-daemon:_ZNK4Json5Value6isNullEv
eiskaltdcpp-daemon:_ZNK4Json5Value6isUIntEv
eiskaltdcpp-daemon:_ZNK4Json5Value7asFloatEv
eiskaltdcpp-daemon:_ZNK4Json5Value7asInt64Ev
eiskaltdcpp-daemon:_ZNK4Json5Value7compareERKS0_
eiskaltdcpp-daemon:_ZNK4Json5Value7isArrayEv
eiskaltdcpp-daemon:_ZNK4Json5Value7isInt64Ev
eiskaltdcpp-daemon:_ZNK4Json5Value8CZString14isStaticStringEv
eiskaltdcpp-daemon:_ZNK4Json5Value8CZString5c_strEv
eiskaltdcpp-daemon:_ZNK4Json5Value8CZString5indexEv
eiskaltdcpp-daemon:_ZNK4Json5Value8CZStringeqERKS1_
eiskaltdcpp-daemon:_ZNK4Json5Value8CZStringltERKS1_
eiskaltdcpp-daemon:_ZNK4Json5Value8asDoubleEv
eiskaltdcpp-daemon:_ZNK4Json5Value8asStringB5cxx11Ev
eiskaltdcpp-daemon:_ZNK4Json5Value8asUInt64Ev
eiskaltdcpp-daemon:_ZNK4Json5Value8isDoubleEv
eiskaltdcpp-daemon:_ZNK4Json5Value8isMemberEPKc
eiskaltdcpp-daemon:_ZNK4Json5Value8isMemberERKNSt7__cxx1112basic_stringIcSt11char_traitsIcESaIcEEE
eiskaltdcpp-daemon:_ZNK4Json5Value8isObjectEv
eiskaltdcpp-daemon:_ZNK4Json5Value8isStringEv
eiskaltdcpp-daemon:_ZNK4Json5Value8isUInt64Ev
eiskaltdcpp-daemon:_ZNK4Json5Value9asCStringEv
eiskaltdcpp-daemon:_ZNK4Json5Value9isNumericEv
eiskaltdcpp-daemon:_ZNK4Json5ValueeqERKS0_
eiskaltdcpp-daemon:_ZNK4Json5ValuegeERKS0_
eiskaltdcpp-daemon:_ZNK4Json5ValuegtERKS0_
eiskaltdcpp-daemon:_ZNK4Json5ValueixEPKc
eiskaltdcpp-daemon:_ZNK4Json5ValueixERKNSt7__cxx1112basic_stringIcSt11char_traitsIcESaIcEEE
eiskaltdcpp-daemon:_ZNK4Json5ValueixEi
eiskaltdcpp-daemon:_ZNK4Json5ValueixEj
eiskaltdcpp-daemon:_ZNK4Json5ValueleERKS0_
eiskaltdcpp-daemon:_ZNK4Json5ValueltERKS0_
eiskaltdcpp-daemon:_ZNK4Json5ValueneERKS0_
eiskaltdcpp-daemon:_ZNK4Json5ValuentEv
eiskaltdcpp-daemon:_ZNK4Json6Reader24getFormatedErrorMessagesB5cxx11Ev
eiskaltdcpp-daemon:_ZNK4Json6Reader24getLocationLineAndColumnB5cxx11EPKc
eiskaltdcpp-daemon:_ZNK4Json6Reader24getLocationLineAndColumnEPKcRiS3_
eiskaltdcpp-daemon:_ZNK4Json6Reader25getFormattedErrorMessagesB5cxx11Ev
eiskaltdcpp-daemon:_ZThn16_N12ServerThreadD0Ev
eiskaltdcpp-daemon:_ZThn16_N12ServerThreadD1Ev
eiskaltdcpp-daemon:_ZThn24_N12ServerThread2onEN4dcpp14ClientListener1XILi0EEEPNS0_6ClientE
eiskaltdcpp-daemon:_ZThn24_N12ServerThread2onEN4dcpp14ClientListener1XILi11EEEPNS0_6ClientERKNS0_11ChatMessageE
eiskaltdcpp-daemon:_ZThn24_N12ServerThread2onEN4dcpp14ClientListener1XILi12EEEPNS0_6ClientERKNSt7__cxx1112basic_stringIcSt11char_traitsIcESaIcEEEi
eiskaltdcpp-daemon:_ZThn24_N12ServerThread2onEN4dcpp14ClientListener1XILi15EEEPNS0_6ClientE
eiskaltdcpp-daemon:_ZThn24_N12ServerThread2onEN4dcpp14ClientListener1XILi16EEEPNS0_6ClientERKNSt7__cxx1112basic_stringIcSt11char_traitsIcESaIcEEE
eiskaltdcpp-daemon:_ZThn24_N12ServerThread2onEN4dcpp14ClientListener1XILi1EEEPNS0_6ClientE
eiskaltdcpp-daemon:_ZThn24_N12ServerThread2onEN4dcpp14ClientListener1XILi3EEEPNS0_6ClientERKNS0_10OnlineUserE
eiskaltdcpp-daemon:_ZThn24_N12ServerThread2onEN4dcpp14ClientListener1XILi4EEEPNS0_6ClientERKSt6vectorIPNS0_10OnlineUserESaIS8_EE
eiskaltdcpp-daemon:_ZThn24_N12ServerThread2onEN4dcpp14ClientListener1XILi5EEEPNS0_6ClientERKNS0_10OnlineUserE
eiskaltdcpp-daemon:_ZThn24_N12ServerThread2onEN4dcpp14ClientListener1XILi6EEEPNS0_6ClientERKNSt7__cxx1112basic_stringIcSt11char_traitsIcESaIcEEE
eiskaltdcpp-daemon:_ZThn24_N12ServerThread2onEN4dcpp14ClientListener1XILi7EEEPNS0_6ClientERKNSt7__cxx1112basic_stringIcSt11char_traitsIcESaIcEEE
eiskaltdcpp-daemon:_ZThn24_N12ServerThread2onEN4dcpp14ClientListener1XILi8EEEPNS0_6ClientE
eiskaltdcpp-daemon:_ZThn24_N12ServerThread2onEN4dcpp14ClientListener1XILi9EEEPNS0_6ClientE
eiskaltdcpp-daemon:_ZThn24_N12ServerThreadD0Ev
eiskaltdcpp-daemon:_ZThn24_N12ServerThreadD1Ev
eiskaltdcpp-daemon:_ZThn32_N12ServerThread2onEN4dcpp21SearchManagerListener1XILi0EEERKNS0_13intrusive_ptrINS0_12SearchResultEEE
eiskaltdcpp-daemon:_ZThn32_N12ServerThreadD0Ev
eiskaltdcpp-daemon:_ZThn32_N12ServerThreadD1Ev
eiskaltdcpp-daemon:_ZThn40_N12ServerThread3runEv
eiskaltdcpp-daemon:_ZThn40_N12ServerThreadD0Ev
eiskaltdcpp-daemon:_ZThn40_N12ServerThreadD1Ev
eiskaltdcpp-daemon:_ZThn56_N12ServerThreadD0Ev
eiskaltdcpp-daemon:_ZThn56_N12ServerThreadD1Ev
eiskaltdcpp-daemon:_ZThn8_N12ServerThreadD0Ev
eiskaltdcpp-daemon:_ZThn8_N12ServerThreadD1Ev
eiskaltdcpp-daemon:__bss_start
eiskaltdcpp-daemon:__data_start
eiskaltdcpp-daemon:_edata
eiskaltdcpp-daemon:_end
eiskaltdcpp-daemon:_start
eiskaltdcpp-daemon:bDaemon
eiskaltdcpp-daemon:bIsClose
eiskaltdcpp-daemon:bIsRestart
eiskaltdcpp-daemon:bServerRunning
eiskaltdcpp-daemon:bServerTerminated
eiskaltdcpp-daemon:bsyslog
eiskaltdcpp-daemon:config_dir
eiskaltdcpp-daemon:iobuf_append
eiskaltdcpp-daemon:iobuf_free
eiskaltdcpp-daemon:iobuf_init
eiskaltdcpp-daemon:iobuf_remove
eiskaltdcpp-daemon:iobuf_resize
eiskaltdcpp-daemon:isDebug
eiskaltdcpp-daemon:isVerbose
eiskaltdcpp-daemon:jsonserver
eiskaltdcpp-daemon:local_dir
eiskaltdcpp-daemon:lport
eiskaltdcpp-daemon:main
eiskaltdcpp-daemon:mg_authorize_digest
eiskaltdcpp-daemon:mg_connect
eiskaltdcpp-daemon:mg_copy_listeners
eiskaltdcpp-daemon:mg_create_server
eiskaltdcpp-daemon:mg_destroy_server
eiskaltdcpp-daemon:mg_forward
eiskaltdcpp-daemon:mg_get_header
eiskaltdcpp-daemon:mg_get_mime_type
eiskaltdcpp-daemon:mg_get_option
eiskaltdcpp-daemon:mg_get_valid_option_names
eiskaltdcpp-daemon:mg_get_var
eiskaltdcpp-daemon:mg_match_prefix
eiskaltdcpp-daemon:mg_md5
eiskaltdcpp-daemon:mg_mmap
eiskaltdcpp-daemon:mg_munmap
eiskaltdcpp-daemon:mg_next
eiskaltdcpp-daemon:mg_parse_header
eiskaltdcpp-daemon:mg_parse_multipart
eiskaltdcpp-daemon:mg_poll_server
eiskaltdcpp-daemon:mg_printf
eiskaltdcpp-daemon:mg_printf_data
eiskaltdcpp-daemon:mg_send_data
eiskaltdcpp-daemon:mg_send_digest_auth_request
eiskaltdcpp-daemon:mg_send_file
eiskaltdcpp-daemon:mg_send_file_data
eiskaltdcpp-daemon:mg_send_file_internal
eiskaltdcpp-daemon:mg_send_header
eiskaltdcpp-daemon:mg_send_status
eiskaltdcpp-daemon:mg_set_option
eiskaltdcpp-daemon:mg_template
eiskaltdcpp-daemon:mg_url_decode
eiskaltdcpp-daemon:mg_url_encode
eiskaltdcpp-daemon:mg_wakeup_server
eiskaltdcpp-daemon:mg_wakeup_server_ex
eiskaltdcpp-daemon:mg_websocket_printf
eiskaltdcpp-daemon:mg_websocket_write
eiskaltdcpp-daemon:mg_write
eiskaltdcpp-daemon:ns_add_sock
eiskaltdcpp-daemon:ns_avprintf
eiskaltdcpp-daemon:ns_bind
eiskaltdcpp-daemon:ns_broadcast
eiskaltdcpp-daemon:ns_connect
eiskaltdcpp-daemon:ns_hexdump
eiskaltdcpp-daemon:ns_mgr_free
eiskaltdcpp-daemon:ns_mgr_init
eiskaltdcpp-daemon:ns_mgr_poll
eiskaltdcpp-daemon:ns_next
eiskaltdcpp-daemon:ns_printf
eiskaltdcpp-daemon:ns_resolve
eiskaltdcpp-daemon:ns_send
eiskaltdcpp-daemon:ns_set_close_on_exec
eiskaltdcpp-daemon:ns_sock_to_str
eiskaltdcpp-daemon:ns_socketpair
eiskaltdcpp-daemon:ns_socketpair2
eiskaltdcpp-daemon:ns_vprintf
eiskaltdcpp-daemon:pidfile
eiskaltdcpp-qt:_IO_stdin_used
eiskaltdcpp-qt:_Z12parseCmdLineRK11QStringList
eiskaltdcpp-qt:_Z13migrateConfigv
eiskaltdcpp-qt:_Z15installHandlersv
eiskaltdcpp-qt:_Z4copyRK4QDirS1_
eiskaltdcpp-qt:_Z8callBackPvRKNSt7__cxx1112basic_stringIcSt11char_traitsIcESaIcEEE
eiskaltdcpp-qt:_Z8catchSIGi
eiskaltdcpp-qt:_ZN10EiskaltApp11qt_metacallEN11QMetaObject4CallEiPPv
eiskaltdcpp-qt:_ZN10EiskaltApp11qt_metacastEPKc
eiskaltdcpp-qt:_ZN10EiskaltApp16staticMetaObjectE
eiskaltdcpp-qt:_ZN10FileHasher10searchFileERK7QString
eiskaltdcpp-qt:_ZN10FileHasher10slotBrowseEv
eiskaltdcpp-qt:_ZN10FileHasher11qt_metacallEN11QMetaObject4CallEiPPv
eiskaltdcpp-qt:_ZN10FileHasher11qt_metacastEPKc
eiskaltdcpp-qt:_ZN10FileHasher14saveWindowSizeEv
eiskaltdcpp-qt:_ZN10FileHasher14slotCopyMagnetEv
eiskaltdcpp-qt:_ZN10FileHasher16staticMetaObjectE
eiskaltdcpp-qt:_ZN10FileHasher20slotCopySearchStringEv
eiskaltdcpp-qt:_ZN10FileHasher6searchERK7QStringRKyS2_
eiskaltdcpp-qt:_ZN10FileHasher6searchEv
eiskaltdcpp-qt:_ZN10FileHasher8slotDoneEv
eiskaltdcpp-qt:_ZN10FileHasher9searchTTHERK7QString
eiskaltdcpp-qt:_ZN10FileHasher9slotStartEv
eiskaltdcpp-qt:_ZN10FileHasherC1EP7QWidget
eiskaltdcpp-qt:_ZN10FileHasherC2EP7QWidget
eiskaltdcpp-qt:_ZN10FileHasherD0Ev
eiskaltdcpp-qt:_ZN10FileHasherD1Ev
eiskaltdcpp-qt:_ZN10FileHasherD2Ev
eiskaltdcpp-qt:_ZN10FlowLayout11qt_metacallEN11QMetaObject4CallEiPPv
eiskaltdcpp-qt:_ZN10FlowLayout11qt_metacastEPKc
eiskaltdcpp-qt:_ZN10FlowLayout11setGeometryERK5QRect
eiskaltdcpp-qt:_ZN10FlowLayout16staticMetaObjectE
eiskaltdcpp-qt:_ZN10FlowLayout5placeEP7QWidgetS1_
eiskaltdcpp-qt:_ZN10FlowLayout6takeAtEi
eiskaltdcpp-qt:_ZN10FlowLayout7addItemEP11QLayoutItem
eiskaltdcpp-qt:_ZN10FlowLayout8moveLeftEP11QLayoutItem
eiskaltdcpp-qt:_ZN10FlowLayout9moveRightEP11QLayoutItem
eiskaltdcpp-qt:_ZN10FlowLayoutC1EP7QWidgetiii
eiskaltdcpp-qt:_ZN10FlowLayoutC1Eiii
eiskaltdcpp-qt:_ZN10FlowLayoutC2EP7QWidgetiii
eiskaltdcpp-qt:_ZN10FlowLayoutC2Eiii
eiskaltdcpp-qt:_ZN10FlowLayoutD0Ev
eiskaltdcpp-qt:_ZN10FlowLayoutD1Ev
eiskaltdcpp-qt:_ZN10FlowLayoutD2Ev
eiskaltdcpp-qt:_ZN10HashThread11qt_metacallEN11QMetaObject4CallEiPPv
eiskaltdcpp-qt:_ZN10HashThread11qt_metacastEPKc
eiskaltdcpp-qt:_ZN10HashThread13calculate_tthEv
eiskaltdcpp-qt:_ZN10HashThread16staticMetaObjectE
eiskaltdcpp-qt:_ZN10HashThread3runEv
eiskaltdcpp-qt:_ZN10HashThread7getHashEv
eiskaltdcpp-qt:_ZN10HashThread7setFileERK7QString
eiskaltdcpp-qt:_ZN10HashThreadC1Ev
eiskaltdcpp-qt:_ZN10HashThreadC2Ev
eiskaltdcpp-qt:_ZN10HashThreadD0Ev
eiskaltdcpp-qt:_ZN10HashThreadD1Ev
eiskaltdcpp-qt:_ZN10HashThreadD2Ev
eiskaltdcpp-qt:_ZN10HubManager11qt_metacallEN11QMetaObject4CallEiPPv
eiskaltdcpp-qt:_ZN10HubManager11qt_metacastEPKc
eiskaltdcpp-qt:_ZN10HubManager12getHubObjectEv
eiskaltdcpp-qt:_ZN10HubManager12setActiveHubEP8HubFrame
eiskaltdcpp-qt:_ZN10HubManager13hubRegisteredEP7QObject
eiskaltdcpp-qt:_ZN10HubManager14registerHubUrlERK7QStringP8HubFrame
eiskaltdcpp-qt:_ZN10HubManager15hubUnregisteredEP7QObject
eiskaltdcpp-qt:_ZN10HubManager16staticMetaObjectE
eiskaltdcpp-qt:_ZN10HubManager16unregisterHubUrlERK7QString
eiskaltdcpp-qt:_ZN10HubManager6getHubERK7QString
eiskaltdcpp-qt:_ZN10HubManagerC1Ev
eiskaltdcpp-qt:_ZN10HubManagerC2Ev
eiskaltdcpp-qt:_ZN10HubManagerD0Ev
eiskaltdcpp-qt:_ZN10HubManagerD1Ev
eiskaltdcpp-qt:_ZN10HubManagerD2Ev
eiskaltdcpp-qt:_ZN10MainWindow10closeEventEP11QCloseEvent
eiskaltdcpp-qt:_ZN10MainWindow10getToolBarEv
eiskaltdcpp-qt:_ZN10MainWindow11autoconnectEv
eiskaltdcpp-qt:_ZN10MainWindow11eventFilterEP7QObjectP6QEvent
eiskaltdcpp-qt:_ZN10MainWindow11initActionsEv
eiskaltdcpp-qt:_ZN10MainWindow11initMenuBarEv
eiskaltdcpp-qt:_ZN10MainWindow11initSideBarEv
eiskaltdcpp-qt:_ZN10MainWindow11initToolbarEv
eiskaltdcpp-qt:_ZN10MainWindow11newHubFrameE7QStringS0_
eiskaltdcpp-qt:_ZN10MainWindow11qt_metacallEN11QMetaObject4CallEiPPv
eiskaltdcpp-qt:_ZN10MainWindow11qt_metacastEPKc
eiskaltdcpp-qt:_ZN10MainWindow11slotAboutQtEv
eiskaltdcpp-qt:_ZN10MainWindow11slotToolsJSEv
eiskaltdcpp-qt:_ZN10MainWindow11startSocketEb
eiskaltdcpp-qt:_ZN10MainWindow12insertWidgetEP11ArenaWidget
eiskaltdcpp-qt:_ZN10MainWindow12loadSettingsEv
eiskaltdcpp-qt:_ZN10MainWindow12parseCmdLineERK11QStringList
eiskaltdcpp-qt:_ZN10MainWindow12removeWidgetEP11ArenaWidget
eiskaltdcpp-qt:_ZN10MainWindow12saveSettingsEv
eiskaltdcpp-qt:_ZN10MainWindow12slotToolsSpyEv
eiskaltdcpp-qt:_ZN10MainWindow12updateStatusERK4QMapI7QStringS1_E
eiskaltdcpp-qt:_ZN10MainWindow13coreOpenShareEN4dcpp13intrusive_ptrINS0_4UserEEERK7QStringS6_
eiskaltdcpp-qt:_ZN10MainWindow13initSearchBarEv
eiskaltdcpp-qt:_ZN10MainWindow13initStatusBarEv
eiskaltdcpp-qt:_ZN10MainWindow13notifyMessageEiRK7QStringS2_
eiskaltdcpp-qt:_ZN10MainWindow13retranslateUiEv
eiskaltdcpp-qt:_ZN10MainWindow13slotChatClearEv
eiskaltdcpp-qt:_ZN10MainWindow13slotToolsADLSEv
eiskaltdcpp-qt:_ZN10MainWindow14browseOwnFilesEv
eiskaltdcpp-qt:_ZN10MainWindow14coreLogMessageERK7QString
eiskaltdcpp-qt:_ZN10MainWindow14initFavHubMenuEv
eiskaltdcpp-qt:_ZN10MainWindow14showPortsErrorERKNSt7__cxx1112basic_stringIcSt11char_traitsIcESaIcEEE
eiskaltdcpp-qt:_ZN10MainWindow14slotFileHasherEv
eiskaltdcpp-qt:_ZN10MainWindow14slotHideWindowEv
eiskaltdcpp-qt:_ZN10MainWindow14slotOpenMagnetEv
eiskaltdcpp-qt:_ZN10MainWindow14slotUnixSignalEi
eiskaltdcpp-qt:_ZN10MainWindow14toggleMainMenuEb
eiskaltdcpp-qt:_ZN10MainWindow15coreUpdateStatsERK4QMapI7QStringS1_E
eiskaltdcpp-qt:_ZN10MainWindow15progress_dialogEv
eiskaltdcpp-qt:_ZN10MainWindow15redrawToolPanelEv
eiskaltdcpp-qt:_ZN10MainWindow15slotAboutClientEv
eiskaltdcpp-qt:_ZN10MainWindow15slotChatDisableEv
eiskaltdcpp-qt:_ZN10MainWindow15slotSuppressSndEv
eiskaltdcpp-qt:_ZN10MainWindow15slotSuppressTxtEv
eiskaltdcpp-qt:_ZN10MainWindow15slotToolsSearchEv
eiskaltdcpp-qt:_ZN10MainWindow16mapWidgetOnArenaEP11ArenaWidget
eiskaltdcpp-qt:_ZN10MainWindow16setStatusMessageE7QString
eiskaltdcpp-qt:_ZN10MainWindow16showShareBrowserEN4dcpp13intrusive_ptrINS0_4UserEEERK7QStringS6_
eiskaltdcpp-qt:_ZN10MainWindow16slotAboutOpenUrlEv
eiskaltdcpp-qt:_ZN10MainWindow16slotHideMainMenuEv
eiskaltdcpp-qt:_ZN10MainWindow16slotShowMainMenuEv
eiskaltdcpp-qt:_ZN10MainWindow16staticMetaObjectE
eiskaltdcpp-qt:_ZN10MainWindow17getWindowGeometryEv
eiskaltdcpp-qt:_ZN10MainWindow17parseInstanceLineE7QString
eiskaltdcpp-qt:_ZN10MainWindow17slotConnectFavHubEP7QAction
eiskaltdcpp-qt:_ZN10MainWindow17slotHubsReconnectEv
eiskaltdcpp-qt:_ZN10MainWindow17slotJSFileChangedERK7QString
eiskaltdcpp-qt:_ZN10MainWindow17slotToolsAntiSpamEv
eiskaltdcpp-qt:_ZN10MainWindow17slotToolsAutoAwayEv
eiskaltdcpp-qt:_ZN10MainWindow17slotToolsCmdDebugEv
eiskaltdcpp-qt:_ZN10MainWindow17slotToolsIPFilterEv
eiskaltdcpp-qt:_ZN10MainWindow17slotToolsSettingsEv
eiskaltdcpp-qt:_ZN10MainWindow17slotToolsTransferEb
eiskaltdcpp-qt:_ZN10MainWindow17slotWidgetsToggleEv
eiskaltdcpp-qt:_ZN10MainWindow18addActionOnToolBarEP7QAction
eiskaltdcpp-qt:_ZN10MainWindow18redrawWidgetPanelsEv
eiskaltdcpp-qt:_ZN10MainWindow18reloadSomeSettingsEv
eiskaltdcpp-qt:_ZN10MainWindow18slotHideLastStatusEv
eiskaltdcpp-qt:_ZN10MainWindow18slotHubsPublicHubsEv
eiskaltdcpp-qt:_ZN10MainWindow18slotToolsJSConsoleEv
eiskaltdcpp-qt:_ZN10MainWindow18slotToolsSecretaryEv
eiskaltdcpp-qt:_ZN10MainWindow19slotFileOpenLogFileEv
eiskaltdcpp-qt:_ZN10MainWindow19slotShowSpeedLimitsEv
eiskaltdcpp-qt:_ZN10MainWindow19slotSideBarDockMenuEv
eiskaltdcpp-qt:_ZN10MainWindow19slotToolsHubManagerEv
eiskaltdcpp-qt:_ZN10MainWindow19slotToolsSwitchAwayEv
eiskaltdcpp-qt:_ZN10MainWindow20remActionFromToolBarEP7QAction
eiskaltdcpp-qt:_ZN10MainWindow20slotFileHashProgressEv
eiskaltdcpp-qt:_ZN10MainWindow20slotFileMatchAllListEv
eiskaltdcpp-qt:_ZN10MainWindow20slotHubsFavoriteHubsEv
eiskaltdcpp-qt:_ZN10MainWindow20slotToolsQueuedUsersEv
eiskaltdcpp-qt:_ZN10MainWindow20slotUpdateFavHubMenuEv
eiskaltdcpp-qt:_ZN10MainWindow21slotHideProgressSpaceEv
eiskaltdcpp-qt:_ZN10MainWindow21slotHubsFavoriteUsersEv
eiskaltdcpp-qt:_ZN10MainWindow21toggleSingletonWidgetEP11ArenaWidget
eiskaltdcpp-qt:_ZN10MainWindow22slotCloseCurrentWidgetEv
eiskaltdcpp-qt:_ZN10MainWindow22slotFileBrowseFilelistEv
eiskaltdcpp-qt:_ZN10MainWindow22slotToolsDownloadQueueEv
eiskaltdcpp-qt:_ZN10MainWindow23slotHideUsersStatisticsEv
eiskaltdcpp-qt:_ZN10MainWindow24slotToolbarCustomizationEv
eiskaltdcpp-qt:_ZN10MainWindow24slotToolsCopyWindowTitleEv
eiskaltdcpp-qt:_ZN10MainWindow24slotToolsFinishedUploadsEv
eiskaltdcpp-qt:_ZN10MainWindow24updateHashProgressStatusEv
eiskaltdcpp-qt:_ZN10MainWindow25slotFileBrowseOwnFilelistEv
eiskaltdcpp-qt:_ZN10MainWindow25slotToolbarCustomizerDoneERK5QListIP7QActionE
eiskaltdcpp-qt:_ZN10MainWindow25slotToolsSwitchSpeedLimitEv
eiskaltdcpp-qt:_ZN10MainWindow26slotPanelMenuActionClickedEv
eiskaltdcpp-qt:_ZN10MainWindow26slotToolsFinishedDownloadsEv
eiskaltdcpp-qt:_ZN10MainWindow29slotFileOpenDownloadDirectoryEv
eiskaltdcpp-qt:_ZN10MainWindow2onEN4dcpp18LogManagerListener1XILi0EEElRKNSt7__cxx1112basic_stringIcSt11char_traitsIcESaIcEEE
eiskaltdcpp-qt:_ZN10MainWindow2onEN4dcpp20QueueManagerListener1XILi1EEEPNS0_9QueueItemERKNSt7__cxx1112basic_stringIcSt11char_traitsIcESaIcEEEl
eiskaltdcpp-qt:_ZN10MainWindow2onEN4dcpp20TimerManagerListener1XILi0EEEm
eiskaltdcpp-qt:_ZN10MainWindow32slotFileRefreshShareHashProgressEv
eiskaltdcpp-qt:_ZN10MainWindow4initEv
eiskaltdcpp-qt:_ZN10MainWindow4showEv
eiskaltdcpp-qt:_ZN10MainWindow6slotQCEv
eiskaltdcpp-qt:_ZN10MainWindow7nextMsgEv
eiskaltdcpp-qt:_ZN10MainWindow7prevMsgEv
eiskaltdcpp-qt:_ZN10MainWindow7updatedEP11ArenaWidget
eiskaltdcpp-qt:_ZN10MainWindow8slotExitEv
eiskaltdcpp-qt:_ZN10MainWindow8slotFindEv
eiskaltdcpp-qt:_ZN10MainWindow9beginExitEv
eiskaltdcpp-qt:_ZN10MainWindow9hideEventEP10QHideEvent
eiskaltdcpp-qt:_ZN10MainWindow9setUnloadEb
eiskaltdcpp-qt:_ZN10MainWindow9showEventEP10QShowEvent
eiskaltdcpp-qt:_ZN10MainWindowC1EP7QWidget
eiskaltdcpp-qt:_ZN10MainWindowC2EP7QWidget
eiskaltdcpp-qt:_ZN10MainWindowD0Ev
eiskaltdcpp-qt:_ZN10MainWindowD1Ev
eiskaltdcpp-qt:_ZN10MainWindowD2Ev
eiskaltdcpp-qt:_ZN10PublicHubs10closeEventEP11QCloseEvent
eiskaltdcpp-qt:_ZN10PublicHubs10onFinishedERK7QString
eiskaltdcpp-qt:_ZN10PublicHubs10slotFilterEv
eiskaltdcpp-qt:_ZN10PublicHubs10updateListEv
eiskaltdcpp-qt:_ZN10PublicHubs11eventFilterEP7QObjectP6QEvent
eiskaltdcpp-qt:_ZN10PublicHubs11qt_metacallEN11QMetaObject4CallEiPPv
eiskaltdcpp-qt:_ZN10PublicHubs11qt_metacastEPKc
eiskaltdcpp-qt:_ZN10PublicHubs14slotHeaderMenuEv
eiskaltdcpp-qt:_ZN10PublicHubs14slotHubChangedEi
eiskaltdcpp-qt:_ZN10PublicHubs15coreCacheLoadedERK7QString
eiskaltdcpp-qt:_ZN10PublicHubs15slotContextMenuEv
eiskaltdcpp-qt:_ZN10PublicHubs16staticMetaObjectE
eiskaltdcpp-qt:_ZN10PublicHubs17slotDoubleClickedERK11QModelIndex
eiskaltdcpp-qt:_ZN10PublicHubs18coreDownloadFailedERK7QString
eiskaltdcpp-qt:_ZN10PublicHubs19coreDownloadStartedERK7QString
eiskaltdcpp-qt:_ZN10PublicHubs19slotSettingsChangedERK7QStringS2_
eiskaltdcpp-qt:_ZN10PublicHubs20coreDownloadFinishedERK7QString
eiskaltdcpp-qt:_ZN10PublicHubs23slotFilterColumnChangedEv
eiskaltdcpp-qt:_ZN10PublicHubs2onEN4dcpp23FavoriteManagerListener1XILi0EEERKNSt7__cxx1112basic_stringIcSt11char_traitsIcESaIcEEE
eiskaltdcpp-qt:_ZN10PublicHubs2onEN4dcpp23FavoriteManagerListener1XILi1EEERKNSt7__cxx1112basic_stringIcSt11char_traitsIcESaIcEEE
eiskaltdcpp-qt:_ZN10PublicHubs2onEN4dcpp23FavoriteManagerListener1XILi2EEERKNSt7__cxx1112basic_stringIcSt11char_traitsIcESaIcEEE
eiskaltdcpp-qt:_ZN10PublicHubs2onEN4dcpp23FavoriteManagerListener1XILi8EEERKNSt7__cxx1112basic_stringIcSt11char_traitsIcESaIcEEESB_
eiskaltdcpp-qt:_ZN10PublicHubs2onEN4dcpp23FavoriteManagerListener1XILi9EEERKNSt7__cxx1112basic_stringIcSt11char_traitsIcESaIcEEE
eiskaltdcpp-qt:_ZN10PublicHubs9setStatusERK7QString
eiskaltdcpp-qt:_ZN10PublicHubsC1EP7QWidget
eiskaltdcpp-qt:_ZN10PublicHubsC2EP7QWidget
eiskaltdcpp-qt:_ZN10PublicHubsD0Ev
eiskaltdcpp-qt:_ZN10PublicHubsD1Ev
eiskaltdcpp-qt:_ZN10PublicHubsD2Ev
eiskaltdcpp-qt:_ZN10SearchItem11appendChildEPS_
eiskaltdcpp-qt:_ZN10SearchItem5childEi
eiskaltdcpp-qt:_ZN10SearchItemC1ERK5QListI8QVariantEPS_
eiskaltdcpp-qt:_ZN10SearchItemC2ERK5QListI8QVariantEPS_
eiskaltdcpp-qt:_ZN10SearchItemD0Ev
eiskaltdcpp-qt:_ZN10SearchItemD1Ev
eiskaltdcpp-qt:_ZN10SearchItemD2Ev
eiskaltdcpp-qt:_ZN10SettingsUC10slotSelectERK11QModelIndex
eiskaltdcpp-qt:_ZN10SettingsUC11qt_metacallEN11QMetaObject4CallEiPPv
eiskaltdcpp-qt:_ZN10SettingsUC11qt_metacastEPKc
eiskaltdcpp-qt:_ZN10SettingsUC13selectedIndexEv
eiskaltdcpp-qt:_ZN10SettingsUC13slotUpClickedEv
eiskaltdcpp-qt:_ZN10SettingsUC14slotRemClickedEv
eiskaltdcpp-qt:_ZN10SettingsUC15slotDownClickedEv
eiskaltdcpp-qt:_ZN10SettingsUC16staticMetaObjectE
eiskaltdcpp-qt:_ZN10SettingsUC17slotChangeClickedEv
eiskaltdcpp-qt:_ZN10SettingsUC2okEv
eiskaltdcpp-qt:_ZN10SettingsUC4upUCERK11QModelIndex
eiskaltdcpp-qt:_ZN10SettingsUC5remUCERK11QModelIndex
eiskaltdcpp-qt:_ZN10SettingsUC6downUCERK11QModelIndex
eiskaltdcpp-qt:_ZN10SettingsUC8changeUCERK11QModelIndex
eiskaltdcpp-qt:_ZN10SettingsUCC1EP7QWidget
eiskaltdcpp-qt:_ZN10SettingsUCC2EP7QWidget
eiskaltdcpp-qt:_ZN10SettingsUCD0Ev
eiskaltdcpp-qt:_ZN10SettingsUCD1Ev
eiskaltdcpp-qt:_ZN10SettingsUCD2Ev
eiskaltdcpp-qt:_ZN10WulforUtil10headerMenuEP9QTreeView
eiskaltdcpp-qt:_ZN10WulforUtil10loadPixmapERK7QString
eiskaltdcpp-qt:_ZN10WulforUtil10makeMagnetERK7QStringlS2_
eiskaltdcpp-qt:_ZN10WulforUtil10textToHtmlER7QStringb
eiskaltdcpp-qt:_ZN10WulforUtil11dcEnc2QtEncE7QString
eiskaltdcpp-qt:_ZN10WulforUtil11formatBytesEl
eiskaltdcpp-qt:_ZN10WulforUtil11getHubNamesERK7QString
eiskaltdcpp-qt:_ZN10WulforUtil11getHubNamesERKN4dcpp13intrusive_ptrINS0_4UserEEE
eiskaltdcpp-qt:_ZN10WulforUtil11getHubNamesERKN4dcpp3CIDE
eiskaltdcpp-qt:_ZN10WulforUtil11getLocalIPsEv
eiskaltdcpp-qt:_ZN10WulforUtil11getUserIconERKN4dcpp13intrusive_ptrINS0_4UserEEEbbRK7QString
eiskaltdcpp-qt:_ZN10WulforUtil11qtEnc2DcEncE7QString
eiskaltdcpp-qt:_ZN10WulforUtil11qt_metacallEN11QMetaObject4CallEiPPv
eiskaltdcpp-qt:_ZN10WulforUtil11qt_metacastEPKc
eiskaltdcpp-qt:_ZN10WulforUtil11splitMagnetERK7QStringRlRS0_S4_
eiskaltdcpp-qt:_ZN10WulforUtil13initFileTypesEv
eiskaltdcpp-qt:_ZN10WulforUtil13loadUserIconsEv
eiskaltdcpp-qt:_ZN10WulforUtil14FROMTHEME_SIDEERK7QStringbi
eiskaltdcpp-qt:_ZN10WulforUtil14getLocalIfacesEv
eiskaltdcpp-qt:_ZN10WulforUtil14intToSortOrderEi
eiskaltdcpp-qt:_ZN10WulforUtil14sortOrderToIntEN2Qt9SortOrderE
eiskaltdcpp-qt:_ZN10WulforUtil15magnetSignatureE
eiskaltdcpp-qt:_ZN10WulforUtil16buildUserCmdMenuERK5QListI7QStringEiP7QWidget
eiskaltdcpp-qt:_ZN10WulforUtil16buildUserCmdMenuERKNSt7__cxx1112basic_stringIcSt11char_traitsIcESaIcEEEiP7QWidget
eiskaltdcpp-qt:_ZN10WulforUtil16buildUserCmdMenuERKSt6vectorINSt7__cxx1112basic_stringIcSt11char_traitsIcESaIcEEESaIS6_EEiP7QWidget
eiskaltdcpp-qt:_ZN10WulforUtil16codecForEncodingE7QString
eiskaltdcpp-qt:_ZN10WulforUtil16getPixmapForFileERK7QString
eiskaltdcpp-qt:_ZN10WulforUtil16staticMetaObjectE
eiskaltdcpp-qt:_ZN10WulforUtil18clearUserIconCacheEv
eiskaltdcpp-qt:_ZN10WulforUtil18compactToolTipTextE7QStringiS0_
eiskaltdcpp-qt:_ZN10WulforUtil20getNickViaOnlineUserERK7QStringS2_
eiskaltdcpp-qt:_ZN10WulforUtil20getUserCommandParamsERKN4dcpp11UserCommandERSt13unordered_mapINSt7__cxx1112basic_stringIcSt11char_traitsIcESaIcEEESA_St4hashISA_ESt8equal_toISA_ESaISt4pairIKSA_SA_EEE
eiskaltdcpp-qt:_ZN10WulforUtil21loadUserIconsFromFileE7QString
eiskaltdcpp-qt:_ZN10WulforUtil5isTTHERK7QString
eiskaltdcpp-qt:_ZN10WulforUtil7openUrlERK7QString
eiskaltdcpp-qt:_ZN10WulforUtil8getNicksERK7QStringS2_
eiskaltdcpp-qt:_ZN10WulforUtil8getNicksERKN4dcpp3CIDERK7QString
eiskaltdcpp-qt:_ZN10WulforUtil9FROMTHEMEERK7QStringb
eiskaltdcpp-qt:_ZN10WulforUtil9encodingsEv
eiskaltdcpp-qt:_ZN10WulforUtil9getPixmapENS_5IconsE
eiskaltdcpp-qt:_ZN10WulforUtil9loadIconsEv
eiskaltdcpp-qt:_ZN10WulforUtilC1Ev
eiskaltdcpp-qt:_ZN10WulforUtilC2Ev
eiskaltdcpp-qt:_ZN10WulforUtilD0Ev
eiskaltdcpp-qt:_ZN10WulforUtilD1Ev
eiskaltdcpp-qt:_ZN10WulforUtilD2Ev
eiskaltdcpp-qt:_ZN11ArenaWidgetC1Ev
eiskaltdcpp-qt:_ZN11ArenaWidgetC2Ev
eiskaltdcpp-qt:_ZN11ArenaWidgetD0Ev
eiskaltdcpp-qt:_ZN11ArenaWidgetD1Ev
eiskaltdcpp-qt:_ZN11ArenaWidgetD2Ev
eiskaltdcpp-qt:_ZN11AsyncRunner11qt_metacallEN11QMetaObject4CallEiPPv
eiskaltdcpp-qt:_ZN11AsyncRunner11qt_metacastEPKc
eiskaltdcpp-qt:_ZN11AsyncRunner14setRunFunctionERKSt8functionIFvvEE
eiskaltdcpp-qt:_ZN11AsyncRunner16staticMetaObjectE
eiskaltdcpp-qt:_ZN11AsyncRunner3runEv
eiskaltdcpp-qt:_ZN11AsyncRunnerC1EP7QObject
eiskaltdcpp-qt:_ZN11AsyncRunnerC2EP7QObject
eiskaltdcpp-qt:_ZN11AsyncRunnerD0Ev
eiskaltdcpp-qt:_ZN11AsyncRunnerD1Ev
eiskaltdcpp-qt:_ZN11AsyncRunnerD2Ev
eiskaltdcpp-qt:_ZN11GlobalTimer11qt_metacallEN11QMetaObject4CallEiPPv
eiskaltdcpp-qt:_ZN11GlobalTimer11qt_metacastEPKc
eiskaltdcpp-qt:_ZN11GlobalTimer16staticMetaObjectE
eiskaltdcpp-qt:_ZN11GlobalTimer6minuteEv
eiskaltdcpp-qt:_ZN11GlobalTimer6secondEv
eiskaltdcpp-qt:_ZN11GlobalTimer8slotTickEv
eiskaltdcpp-qt:_ZN11GlobalTimerC1Ev
eiskaltdcpp-qt:_ZN11GlobalTimerC2Ev
eiskaltdcpp-qt:_ZN11GlobalTimerD0Ev
eiskaltdcpp-qt:_ZN11GlobalTimerD1Ev
eiskaltdcpp-qt:_ZN11GlobalTimerD2Ev
eiskaltdcpp-qt:_ZN11QueuedUsers10closeEventEP11QCloseEvent
eiskaltdcpp-qt:_ZN11QueuedUsers11qt_metacallEN11QMetaObject4CallEiPPv
eiskaltdcpp-qt:_ZN11QueuedUsers11qt_metacastEPKc
eiskaltdcpp-qt:_ZN11QueuedUsers15slotContextMenuEv
eiskaltdcpp-qt:_ZN11QueuedUsers16staticMetaObjectE
eiskaltdcpp-qt:_ZN11QueuedUsers18coreWaitingAddFileERK4QMapI7QString8QVariantE
eiskaltdcpp-qt:_ZN11QueuedUsers18coreWaitingRemovedERK4QMapI7QString8QVariantE
eiskaltdcpp-qt:_ZN11QueuedUsers18slotWaitingAddFileERK4QMapI7QString8QVariantE
eiskaltdcpp-qt:_ZN11QueuedUsers18slotWaitingRemovedERK4QMapI7QString8QVariantE
eiskaltdcpp-qt:_ZN11QueuedUsers2onEN4dcpp21UploadManagerListener1XILi4EEERKNS0_10HintedUserERKNSt7__cxx1112basic_stringIcSt11char_traitsIcESaIcEEE
eiskaltdcpp-qt:_ZN11QueuedUsers2onEN4dcpp21UploadManagerListener1XILi5EEERKNS0_10HintedUserE
eiskaltdcpp-qt:_ZN11QueuedUsersC1Ev
eiskaltdcpp-qt:_ZN11QueuedUsersC2Ev
eiskaltdcpp-qt:_ZN11QueuedUsersD0Ev
eiskaltdcpp-qt:_ZN11QueuedUsersD1Ev
eiskaltdcpp-qt:_ZN11QueuedUsersD2Ev
eiskaltdcpp-qt:_ZN11SearchFrame10closeEventEP11QCloseEvent
eiskaltdcpp-qt:_ZN11SearchFrame10fastSearchERK7QStringb
eiskaltdcpp-qt:_ZN11SearchFrame10initSecondEv
eiskaltdcpp-qt:_ZN11SearchFrame10onHubAddedERK7QString
eiskaltdcpp-qt:_ZN11SearchFrame10searchFileERK7QString
eiskaltdcpp-qt:_ZN11SearchFrame10slotFilterEv
eiskaltdcpp-qt:_ZN11SearchFrame11eventFilterEP7QObjectP6QEvent
eiskaltdcpp-qt:_ZN11SearchFrame11getFileListERK4QMapI7QString8QVariantEb
eiskaltdcpp-qt:_ZN11SearchFrame11qt_metacallEN11QMetaObject4CallEiPPv
eiskaltdcpp-qt:_ZN11SearchFrame11qt_metacastEPKc
eiskaltdcpp-qt:_ZN11SearchFrame12onHubChangedERK7QString
eiskaltdcpp-qt:_ZN11SearchFrame12onHubRemovedERK7QString
eiskaltdcpp-qt:_ZN11SearchFrame12removeSourceERK4QMapI7QString8QVariantE
eiskaltdcpp-qt:_ZN11SearchFrame13getArenaTitleEv
eiskaltdcpp-qt:_ZN11SearchFrame14slotHeaderMenuERK6QPoint
eiskaltdcpp-qt:_ZN11SearchFrame14slotStopSearchEv
eiskaltdcpp-qt:_ZN11SearchFrame15slotContextMenuERK6QPoint
eiskaltdcpp-qt:_ZN11SearchFrame15slotStartSearchEv
eiskaltdcpp-qt:_ZN11SearchFrame16searchAlternatesERK7QString
eiskaltdcpp-qt:_ZN11SearchFrame16staticMetaObjectE
eiskaltdcpp-qt:_ZN11SearchFrame17coreClientUpdatedERK7QString
eiskaltdcpp-qt:_ZN11SearchFrame17getDownloadParamsER4QMapI7QString8QVariantEP10SearchItem
eiskaltdcpp-qt:_ZN11SearchFrame17getWholeDirParamsER4QMapI7QString8QVariantEP10SearchItem
eiskaltdcpp-qt:_ZN11SearchFrame18getArenaShortTitleEv
eiskaltdcpp-qt:_ZN11SearchFrame19coreClientConnectedERK7QString
eiskaltdcpp-qt:_ZN11SearchFrame19slotSettingsChangedERK7QStringS2_
eiskaltdcpp-qt:_ZN11SearchFrame19slotToggleSidePanelEv
eiskaltdcpp-qt:_ZN11SearchFrame21slotChangeProxyColumnEi
eiskaltdcpp-qt:_ZN11SearchFrame22coreClientDisconnectedERK7QString
eiskaltdcpp-qt:_ZN11SearchFrame23slotResultDoubleClickedERK11QModelIndex
eiskaltdcpp-qt:_ZN11SearchFrame2onEN4dcpp21ClientManagerListener1XILi4EEEPNS0_6ClientE
eiskaltdcpp-qt:_ZN11SearchFrame2onEN4dcpp21ClientManagerListener1XILi5EEEPNS0_6ClientE
eiskaltdcpp-qt:_ZN11SearchFrame2onEN4dcpp21ClientManagerListener1XILi6EEEPNS0_6ClientE
eiskaltdcpp-qt:_ZN11SearchFrame2onEN4dcpp21SearchManagerListener1XILi0EEERKNS0_13intrusive_ptrINS0_12SearchResultEEE
eiskaltdcpp-qt:_ZN11SearchFrame4Menu11addTempPathERK7QString
eiskaltdcpp-qt:_ZN11SearchFrame4Menu16buildUserCmdMenuE5QListI7QStringE
eiskaltdcpp-qt:_ZN11SearchFrame4Menu4execERK11QStringList
eiskaltdcpp-qt:_ZN11SearchFrame4MenuC1Ev
eiskaltdcpp-qt:_ZN11SearchFrame4MenuC2Ev
eiskaltdcpp-qt:_ZN11SearchFrame4MenuD0Ev
eiskaltdcpp-qt:_ZN11SearchFrame4MenuD1Ev
eiskaltdcpp-qt:_ZN11SearchFrame4MenuD2Ev
eiskaltdcpp-qt:_ZN11SearchFrame4initEv
eiskaltdcpp-qt:_ZN11SearchFrame4loadEv
eiskaltdcpp-qt:_ZN11SearchFrame4saveEv
eiskaltdcpp-qt:_ZN11SearchFrame5grantERK4QMapI7QString8QVariantE
eiskaltdcpp-qt:_ZN11SearchFrame6coreSRERK4QMapI7QString8QVariantE
eiskaltdcpp-qt:_ZN11SearchFrame7getMenuEv
eiskaltdcpp-qt:_ZN11SearchFrame8addToFavERK7QString
eiskaltdcpp-qt:_ZN11SearchFrame8downloadERK4QMapI7QString8QVariantE
eiskaltdcpp-qt:_ZN11SearchFrame9addResultERK4QMapI7QString8QVariantE
eiskaltdcpp-qt:_ZN11SearchFrame9getParamsER4QMapI7QString8QVariantERKN4dcpp13intrusive_ptrINS5_12SearchResultEEE
eiskaltdcpp-qt:_ZN11SearchFrame9getPixmapEv
eiskaltdcpp-qt:_ZN11SearchFrame9getWidgetEv
eiskaltdcpp-qt:_ZN11SearchFrame9slotClearEv
eiskaltdcpp-qt:_ZN11SearchFrame9slotCloseEv
eiskaltdcpp-qt:_ZN11SearchFrame9slotTimerEv
eiskaltdcpp-qt:_ZN11SearchFrame9timerTickEv
eiskaltdcpp-qt:_ZN11SearchFrameC1EP7QWidget
eiskaltdcpp-qt:_ZN11SearchFrameC2EP7QWidget
eiskaltdcpp-qt:_ZN11SearchFrameD0Ev
eiskaltdcpp-qt:_ZN11SearchFrameD1Ev
eiskaltdcpp-qt:_ZN11SearchFrameD2Ev
eiskaltdcpp-qt:_ZN11SearchModel10clearModelEv
eiskaltdcpp-qt:_ZN11SearchModel10removeItemEPK10SearchItem
eiskaltdcpp-qt:_ZN11SearchModel11qt_metacallEN11QMetaObject4CallEiPPv
eiskaltdcpp-qt:_ZN11SearchModel11qt_metacastEPKc
eiskaltdcpp-qt:_ZN11SearchModel12addResultPtrERK4QMapI7QString8QVariantE
eiskaltdcpp-qt:_ZN11SearchModel12setSortOrderEN2Qt9SortOrderE
eiskaltdcpp-qt:_ZN11SearchModel13setFilterRoleEi
eiskaltdcpp-qt:_ZN11SearchModel13setSortColumnEi
eiskaltdcpp-qt:_ZN11SearchModel16staticMetaObjectE
eiskaltdcpp-qt:_ZN11SearchModel18createIndexForItemEP10SearchItem
eiskaltdcpp-qt:_ZN11SearchModel4sortEiN2Qt9SortOrderE
eiskaltdcpp-qt:_ZN11SearchModel5resetEv
eiskaltdcpp-qt:_ZN11SearchModel7repaintEv
eiskaltdcpp-qt:_ZN11SearchModel8okToFindEPK10SearchItem
eiskaltdcpp-qt:_ZN11SearchModel9addResultERK7QStringyS2_S2_S2_iiS2_S2_S2_S2_b
eiskaltdcpp-qt:_ZN11SearchModelC1EP7QObject
eiskaltdcpp-qt:_ZN11SearchModelC2EP7QObject
eiskaltdcpp-qt:_ZN11SearchModelD0Ev
eiskaltdcpp-qt:_ZN11SearchModelD1Ev
eiskaltdcpp-qt:_ZN11SearchModelD2Ev
eiskaltdcpp-qt:_ZN11SettingsGUI11qt_metacallEN11QMetaObject4CallEiPPv
eiskaltdcpp-qt:_ZN11SettingsGUI11qt_metacastEPKc
eiskaltdcpp-qt:_ZN11SettingsGUI12slotGetColorEv
eiskaltdcpp-qt:_ZN11SettingsGUI13slotBrowseLngEv
eiskaltdcpp-qt:_ZN11SettingsGUI16slotIconsChangedEv
eiskaltdcpp-qt:_ZN11SettingsGUI16slotTestAppThemeEv
eiskaltdcpp-qt:_ZN11SettingsGUI16slotThemeChangedEv
eiskaltdcpp-qt:_ZN11SettingsGUI16slotUsersChangedEv
eiskaltdcpp-qt:_ZN11SettingsGUI16staticMetaObjectE
eiskaltdcpp-qt:_ZN11SettingsGUI19slotLngIndexChangedEi
eiskaltdcpp-qt:_ZN11SettingsGUI19slotSetTransparencyEi
eiskaltdcpp-qt:_ZN11SettingsGUI23slotResetTransferColorsEv
eiskaltdcpp-qt:_ZN11SettingsGUI24slotChatColorItemClickedEP15QListWidgetItem
eiskaltdcpp-qt:_ZN11SettingsGUI2okEv
eiskaltdcpp-qt:_ZN11SettingsGUI4initEv
eiskaltdcpp-qt:_ZN11SettingsGUI9saveFontsEv
eiskaltdcpp-qt:_ZN11SettingsGUIC1EP7QWidget
eiskaltdcpp-qt:_ZN11SettingsGUIC2EP7QWidget
eiskaltdcpp-qt:_ZN11SettingsGUID0Ev
eiskaltdcpp-qt:_ZN11SettingsGUID1Ev
eiskaltdcpp-qt:_ZN11SettingsGUID2Ev
eiskaltdcpp-qt:_ZN11SettingsLog10slotBrowseEv
eiskaltdcpp-qt:_ZN11SettingsLog11qt_metacallEN11QMetaObject4CallEiPPv
eiskaltdcpp-qt:_ZN11SettingsLog11qt_metacastEPKc
eiskaltdcpp-qt:_ZN11SettingsLog16staticMetaObjectE
eiskaltdcpp-qt:_ZN11SettingsLog2okEv
eiskaltdcpp-qt:_ZN11SettingsLog4initEv
eiskaltdcpp-qt:_ZN11SettingsLogC1EP7QWidget
eiskaltdcpp-qt:_ZN11SettingsLogC2EP7QWidget
eiskaltdcpp-qt:_ZN11SideBarItemC1EP11ArenaWidgetPS_
eiskaltdcpp-qt:_ZN11SideBarItemC2EP11ArenaWidgetPS_
eiskaltdcpp-qt:_ZN11SideBarItemD0Ev
eiskaltdcpp-qt:_ZN11SideBarItemD1Ev
eiskaltdcpp-qt:_ZN11SideBarItemD2Ev
eiskaltdcpp-qt:_ZN11SideBarView11eventFilterEP7QObjectP6QEvent
eiskaltdcpp-qt:_ZN11SideBarView11qt_metacallEN11QMetaObject4CallEiPPv
eiskaltdcpp-qt:_ZN11SideBarView11qt_metacastEPKc
eiskaltdcpp-qt:_ZN11SideBarView15slotSidebarHookERK11QModelIndex
eiskaltdcpp-qt:_ZN11SideBarView16staticMetaObjectE
eiskaltdcpp-qt:_ZN11SideBarView19slotWidgetActivatedE11QModelIndex
eiskaltdcpp-qt:_ZN11SideBarView20slotUpdateHeaderSizeEv
eiskaltdcpp-qt:_ZN11SideBarView21slotSideBarDblClickedERK11QModelIndex
eiskaltdcpp-qt:_ZN11SideBarView22slotSidebarContextMenuEv
eiskaltdcpp-qt:_ZN11SideBarView5addedEP11ArenaWidget
eiskaltdcpp-qt:_ZN11SideBarView7removedEP11ArenaWidget
eiskaltdcpp-qt:_ZN11SideBarView9activatedEP11ArenaWidget
eiskaltdcpp-qt:_ZN11SideBarViewC1EP7QWidget
eiskaltdcpp-qt:_ZN11SideBarViewC2EP7QWidget
eiskaltdcpp-qt:_ZN11SideBarViewD0Ev
eiskaltdcpp-qt:_ZN11SideBarViewD1Ev
eiskaltdcpp-qt:_ZN11SideBarViewD2Ev
eiskaltdcpp-qt:_ZN12FavoriteHubs10closeEventEP11QCloseEvent
eiskaltdcpp-qt:_ZN12FavoriteHubs10updateItemEP15FavoriteHubItemR4QMapI7QString8QVariantE
eiskaltdcpp-qt:_ZN12FavoriteHubs11qt_metacallEN11QMetaObject4CallEiPPv
eiskaltdcpp-qt:_ZN12FavoriteHubs11qt_metacastEPKc
eiskaltdcpp-qt:_ZN12FavoriteHubs11slotClickedERK11QModelIndex
eiskaltdcpp-qt:_ZN12FavoriteHubs11updateEntryERN4dcpp16FavoriteHubEntryER4QMapI7QString8QVariantE
eiskaltdcpp-qt:_ZN12FavoriteHubs13getArenaTitleEv
eiskaltdcpp-qt:_ZN12FavoriteHubs13initHubEditorER17FavoriteHubEditor
eiskaltdcpp-qt:_ZN12FavoriteHubs13initHubEditorER17FavoriteHubEditorR4QMapI7QString8QVariantE
eiskaltdcpp-qt:_ZN12FavoriteHubs14slotContexMenuERK6QPoint
eiskaltdcpp-qt:_ZN12FavoriteHubs14slotDblClickedEv
eiskaltdcpp-qt:_ZN12FavoriteHubs14slotHeaderMenuEv
eiskaltdcpp-qt:_ZN12FavoriteHubs16staticMetaObjectE
eiskaltdcpp-qt:_ZN12FavoriteHubs18getArenaShortTitleEv
eiskaltdcpp-qt:_ZN12FavoriteHubs19slotSettingsChangedERK7QStringS2_
eiskaltdcpp-qt:_ZN12FavoriteHubs22slotUpdateComboBox_CIDEv
eiskaltdcpp-qt:_ZN12FavoriteHubs23slotChangeButtonClickedEv
eiskaltdcpp-qt:_ZN12FavoriteHubs23slotRemoveButtonClickedEv
eiskaltdcpp-qt:_ZN12FavoriteHubs24slotAdd_newButtonClickedEv
eiskaltdcpp-qt:_ZN12FavoriteHubs24slotConnectButtonClickedEv
eiskaltdcpp-qt:_ZN12FavoriteHubs2onEN4dcpp23FavoriteManagerListener1XILi3EEEPNS0_16FavoriteHubEntryE
eiskaltdcpp-qt:_ZN12FavoriteHubs2onEN4dcpp23FavoriteManagerListener1XILi4EEEPNS0_16FavoriteHubEntryE
eiskaltdcpp-qt:_ZN12FavoriteHubs4initEv
eiskaltdcpp-qt:_ZN12FavoriteHubs4loadEv
eiskaltdcpp-qt:_ZN12FavoriteHubs4saveEv
eiskaltdcpp-qt:_ZN12FavoriteHubs7getItemEv
eiskaltdcpp-qt:_ZN12FavoriteHubs7getMenuEv
eiskaltdcpp-qt:_ZN12FavoriteHubs9getParamsEPKN4dcpp16FavoriteHubEntryER4QMapI7QString8QVariantE
eiskaltdcpp-qt:_ZN12FavoriteHubs9getParamsERK17FavoriteHubEditorR4QMapI7QString8QVariantE
eiskaltdcpp-qt:_ZN12FavoriteHubs9getWidgetEv
eiskaltdcpp-qt:_ZN12FavoriteHubsC1EP7QWidget
eiskaltdcpp-qt:_ZN12FavoriteHubsC2EP7QWidget
eiskaltdcpp-qt:_ZN12FavoriteHubsD0Ev
eiskaltdcpp-qt:_ZN12FavoriteHubsD1Ev
eiskaltdcpp-qt:_ZN12FavoriteHubsD2Ev
eiskaltdcpp-qt:_ZN12HashProgress11getProgressEv
eiskaltdcpp-qt:_ZN12HashProgress11qt_metacallEN11QMetaObject4CallEiPPv
eiskaltdcpp-qt:_ZN12HashProgress11qt_metacastEPKc
eiskaltdcpp-qt:_ZN12HashProgress11stateButtonEv
eiskaltdcpp-qt:_ZN12HashProgress13getHashStatusEv
eiskaltdcpp-qt:_ZN12HashProgress13resetProgressEv
eiskaltdcpp-qt:_ZN12HashProgress13slotAutoCloseEb
eiskaltdcpp-qt:_ZN12HashProgress16staticMetaObjectE
eiskaltdcpp-qt:_ZN12HashProgress9slotStartEv
eiskaltdcpp-qt:_ZN12HashProgress9timerTickEv
eiskaltdcpp-qt:_ZN12HashProgressC1EP7QWidget
eiskaltdcpp-qt:_ZN12HashProgressC2EP7QWidget
eiskaltdcpp-qt:_ZN12HashProgressD0Ev
eiskaltdcpp-qt:_ZN12HashProgressD1Ev
eiskaltdcpp-qt:_ZN12HashProgressD2Ev
eiskaltdcpp-qt:_ZN12Notification10enableTrayEb
eiskaltdcpp-qt:_ZN12Notification10setToolTipERK7QStringS2_S2_S2_
eiskaltdcpp-qt:_ZN12Notification11qt_metacallEN11QMetaObject4CallEiPPv
eiskaltdcpp-qt:_ZN12Notification11qt_metacastEPKc
eiskaltdcpp-qt:_ZN12Notification11showMessageEiRK7QStringS2_
eiskaltdcpp-qt:_ZN12Notification12reloadSoundsEv
eiskaltdcpp-qt:_ZN12Notification12slotShowHideEv
eiskaltdcpp-qt:_ZN12Notification12switchModuleEi
eiskaltdcpp-qt:_ZN12Notification13resetTrayIconEv
eiskaltdcpp-qt:_ZN12Notification13slotCheckTrayEv
eiskaltdcpp-qt:_ZN12Notification15slotCmdFinishedEb7QString
eiskaltdcpp-qt:_ZN12Notification15slotSuppressSndEv
eiskaltdcpp-qt:_ZN12Notification15slotSuppressTxtEv
eiskaltdcpp-qt:_ZN12Notification16staticMetaObjectE
eiskaltdcpp-qt:_ZN12Notification19slotShowSpeedLimitsEv
eiskaltdcpp-qt:_ZN12Notification21slotTrayMenuTriggeredEN15QSystemTrayIcon16ActivationReasonE
eiskaltdcpp-qt:_ZN12Notification8slotExitEv
eiskaltdcpp-qt:_ZN12NotificationC1EP7QObject
eiskaltdcpp-qt:_ZN12NotificationC2EP7QObject
eiskaltdcpp-qt:_ZN12NotificationD0Ev
eiskaltdcpp-qt:_ZN12NotificationD1Ev
eiskaltdcpp-qt:_ZN12NotificationD2Ev
eiskaltdcpp-qt:_ZN12QuickConnect10slotAcceptEv
eiskaltdcpp-qt:_ZN12QuickConnect11qt_metacallEN11QMetaObject4CallEiPPv
eiskaltdcpp-qt:_ZN12QuickConnect11qt_metacastEPKc
eiskaltdcpp-qt:_ZN12QuickConnect16staticMetaObjectE
eiskaltdcpp-qt:_ZN12QuickConnectC1EP7QWidget
eiskaltdcpp-qt:_ZN12QuickConnectC2EP7QWidget
eiskaltdcpp-qt:_ZN12QuickConnectD0Ev
eiskaltdcpp-qt:_ZN12QuickConnectD1Ev
eiskaltdcpp-qt:_ZN12QuickConnectD2Ev
eiskaltdcpp-qt:_ZN12ScriptWidget11qt_metacallEN11QMetaObject4CallEiPPv
eiskaltdcpp-qt:_ZN12ScriptWidget11qt_metacastEPKc
eiskaltdcpp-qt:_ZN12ScriptWidget13getArenaTitleEv
eiskaltdcpp-qt:_ZN12ScriptWidget13setArenaTitleE7QString
eiskaltdcpp-qt:_ZN12ScriptWidget16staticMetaObjectE
eiskaltdcpp-qt:_ZN12ScriptWidget18getArenaShortTitleEv
eiskaltdcpp-qt:_ZN12ScriptWidget18setArenaShortTitleE7QString
eiskaltdcpp-qt:_ZN12ScriptWidget7getMenuEv
eiskaltdcpp-qt:_ZN12ScriptWidget7setMenuEP5QMenu
eiskaltdcpp-qt:_ZN12ScriptWidget9getPixmapEv
eiskaltdcpp-qt:_ZN12ScriptWidget9getWidgetEv
eiskaltdcpp-qt:_ZN12ScriptWidget9setPixmapERK7QPixmap
eiskaltdcpp-qt:_ZN12ScriptWidget9setWidgetEP7QWidget
eiskaltdcpp-qt:_ZN12ScriptWidgetC1Ev
eiskaltdcpp-qt:_ZN12ScriptWidgetC2Ev
eiskaltdcpp-qt:_ZN12ScriptWidgetD0Ev
eiskaltdcpp-qt:_ZN12ScriptWidgetD1Ev
eiskaltdcpp-qt:_ZN12ScriptWidgetD2Ev
eiskaltdcpp-qt:_ZN12ShareBrowser10changeRootEPN4dcpp16DirectoryListing9DirectoryE
eiskaltdcpp-qt:_ZN12ShareBrowser10closeEventEP11QCloseEvent
eiskaltdcpp-qt:_ZN12ShareBrowser10initModelsEv
eiskaltdcpp-qt:_ZN12ShareBrowser10slotFilterEv
eiskaltdcpp-qt:_ZN12ShareBrowser11eventFilterEP7QObjectP6QEvent
eiskaltdcpp-qt:_ZN12ShareBrowser11qt_metacallEN11QMetaObject4CallEiPPv
eiskaltdcpp-qt:_ZN12ShareBrowser11qt_metacastEPKc
eiskaltdcpp-qt:_ZN12ShareBrowser12continueInitEv
eiskaltdcpp-qt:_ZN12ShareBrowser12slotButtonUpEv
eiskaltdcpp-qt:_ZN12ShareBrowser13getArenaTitleEv
eiskaltdcpp-qt:_ZN12ShareBrowser13slotMatchListEv
eiskaltdcpp-qt:_ZN12ShareBrowser14slotButtonBackEv
eiskaltdcpp-qt:_ZN12ShareBrowser14slotHeaderMenuEv
eiskaltdcpp-qt:_ZN12ShareBrowser15slotStartSearchEv
eiskaltdcpp-qt:_ZN12ShareBrowser16slotSearchJumpToEP15FileBrowserItem
eiskaltdcpp-qt:_ZN12ShareBrowser16staticMetaObjectE
eiskaltdcpp-qt:_ZN12ShareBrowser17slotButtonForwardEv
eiskaltdcpp-qt:_ZN12ShareBrowser17slotLayoutUpdatedEv
eiskaltdcpp-qt:_ZN12ShareBrowser18getArenaShortTitleEv
eiskaltdcpp-qt:_ZN12ShareBrowser19slotSettingsChangedERK7QStringS2_
eiskaltdcpp-qt:_ZN12ShareBrowser20slotRightPaneClickedERK11QModelIndex
eiskaltdcpp-qt:_ZN12ShareBrowser21slotCustomContextMenuERK6QPoint
eiskaltdcpp-qt:_ZN12ShareBrowser22slotLeftPaneSelChangedERK14QItemSelectionS2_
eiskaltdcpp-qt:_ZN12ShareBrowser23slotRightPaneSelChangedERK14QItemSelectionS2_
eiskaltdcpp-qt:_ZN12ShareBrowser3dieERK7QString
eiskaltdcpp-qt:_ZN12ShareBrowser4Menu4execERKN4dcpp13intrusive_ptrINS1_4UserEEE
eiskaltdcpp-qt:_ZN12ShareBrowser4MenuC1Ev
eiskaltdcpp-qt:_ZN12ShareBrowser4MenuC2Ev
eiskaltdcpp-qt:_ZN12ShareBrowser4MenuD0Ev
eiskaltdcpp-qt:_ZN12ShareBrowser4MenuD1Ev
eiskaltdcpp-qt:_ZN12ShareBrowser4MenuD2Ev
eiskaltdcpp-qt:_ZN12ShareBrowser4goUpEP9QTreeView
eiskaltdcpp-qt:_ZN12ShareBrowser4initEv
eiskaltdcpp-qt:_ZN12ShareBrowser4loadEv
eiskaltdcpp-qt:_ZN12ShareBrowser4saveEv
eiskaltdcpp-qt:_ZN12ShareBrowser6goDownEP9QTreeView
eiskaltdcpp-qt:_ZN12ShareBrowser7getMenuEv
eiskaltdcpp-qt:_ZN12ShareBrowser7slotDieERK7QString
eiskaltdcpp-qt:_ZN12ShareBrowser8downloadEPN4dcpp16DirectoryListing4FileERK7QString
eiskaltdcpp-qt:_ZN12ShareBrowser8downloadEPN4dcpp16DirectoryListing9DirectoryERK7QString
eiskaltdcpp-qt:_ZN12ShareBrowser9buildListEv
eiskaltdcpp-qt:_ZN12ShareBrowser9getWidgetEv
eiskaltdcpp-qt:_ZN12ShareBrowser9slotCloseEv
eiskaltdcpp-qt:_ZN12ShareBrowserC1EN4dcpp13intrusive_ptrINS0_4UserEEERK7QStringS6_
eiskaltdcpp-qt:_ZN12ShareBrowserC2EN4dcpp13intrusive_ptrINS0_4UserEEERK7QStringS6_
eiskaltdcpp-qt:_ZN12ShareBrowserD0Ev
eiskaltdcpp-qt:_ZN12ShareBrowserD1Ev
eiskaltdcpp-qt:_ZN12ShareBrowserD2Ev
eiskaltdcpp-qt:_ZN12ShortcutEdit11eventFilterEP7QObjectP6QEvent
eiskaltdcpp-qt:_ZN12ShortcutEdit11qt_metacallEN11QMetaObject4CallEiPPv
eiskaltdcpp-qt:_ZN12ShortcutEdit11qt_metacastEPKc
eiskaltdcpp-qt:_ZN12ShortcutEdit16staticMetaObjectE
eiskaltdcpp-qt:_ZN12ShortcutEditC1EP7QWidget
eiskaltdcpp-qt:_ZN12ShortcutEditC2EP7QWidget
eiskaltdcpp-qt:_ZN12ShortcutItem11appendChildEPS_
eiskaltdcpp-qt:_ZN12ShortcutItem5childEi
eiskaltdcpp-qt:_ZN12ShortcutItem6parentEv
eiskaltdcpp-qt:_ZN12ShortcutItemC1EPS_
eiskaltdcpp-qt:_ZN12ShortcutItemC2EPS_
eiskaltdcpp-qt:_ZN12ShortcutItemD0Ev
eiskaltdcpp-qt:_ZN12ShortcutItemD1Ev
eiskaltdcpp-qt:_ZN12ShortcutItemD2Ev
eiskaltdcpp-qt:_ZN12SideBarModel10historyPopEv
eiskaltdcpp-qt:_ZN12SideBarModel11historyPushEP11ArenaWidget
eiskaltdcpp-qt:_ZN12SideBarModel11qt_metacallEN11QMetaObject4CallEiPPv
eiskaltdcpp-qt:_ZN12SideBarModel11qt_metacastEPKc
eiskaltdcpp-qt:_ZN12SideBarModel11selectIndexERK11QModelIndex
eiskaltdcpp-qt:_ZN12SideBarModel12historyAtTopEP11ArenaWidget
eiskaltdcpp-qt:_ZN12SideBarModel12historyPurgeEP11ArenaWidget
eiskaltdcpp-qt:_ZN12SideBarModel12insertWidgetEP11ArenaWidget
eiskaltdcpp-qt:_ZN12SideBarModel12removeWidgetEP11ArenaWidget
eiskaltdcpp-qt:_ZN12SideBarModel16slotIndexClickedERK11QModelIndex
eiskaltdcpp-qt:_ZN12SideBarModel16staticMetaObjectE
eiskaltdcpp-qt:_ZN12SideBarModel19slotSettingsChangedERK7QStringS2_
eiskaltdcpp-qt:_ZN12SideBarModel4sortEiN2Qt9SortOrderE
eiskaltdcpp-qt:_ZN12SideBarModel6mappedEP11ArenaWidget
eiskaltdcpp-qt:_ZN12SideBarModel7toggledEP11ArenaWidget
eiskaltdcpp-qt:_ZN12SideBarModel7updatedEP11ArenaWidget
eiskaltdcpp-qt:_ZN12SideBarModel9mapWidgetEP11ArenaWidget
eiskaltdcpp-qt:_ZN12SideBarModelC1EP7QObject
eiskaltdcpp-qt:_ZN12SideBarModelC2EP7QObject
eiskaltdcpp-qt:_ZN12SideBarModelD0Ev
eiskaltdcpp-qt:_ZN12SideBarModelD1Ev
eiskaltdcpp-qt:_ZN12SideBarModelD2Ev
eiskaltdcpp-qt:_ZN12TransferView10closeEventEP11QCloseEvent
eiskaltdcpp-qt:_ZN12TransferView10coreDMTickE4QMapI7QString8QVariantE
eiskaltdcpp-qt:_ZN12TransferView10coreUMTickE4QMapI7QString8QVariantE
eiskaltdcpp-qt:_ZN12TransferView10matchQueueERK7QStringS2_
eiskaltdcpp-qt:_ZN12TransferView11addFavoriteERK7QString
eiskaltdcpp-qt:_ZN12TransferView11coreCMAddedE4QMapI7QString8QVariantE
eiskaltdcpp-qt:_ZN12TransferView11getFileListERK7QStringS2_
eiskaltdcpp-qt:_ZN12TransferView11qt_metacallEN11QMetaObject4CallEiPPv
eiskaltdcpp-qt:_ZN12TransferView11qt_metacastEPKc
eiskaltdcpp-qt:_ZN12TransferView11resizeEventEP12QResizeEvent
eiskaltdcpp-qt:_ZN12TransferView12coreCMFailedE4QMapI7QString8QVariantE
eiskaltdcpp-qt:_ZN12TransferView12coreDMFailedE4QMapI7QString8QVariantE
eiskaltdcpp-qt:_ZN12TransferView12coreUMFailedE4QMapI7QString8QVariantE
eiskaltdcpp-qt:_ZN12TransferView12forceAttemptERK7QString
eiskaltdcpp-qt:_ZN12TransferView13coreCMRemovedE4QMapI7QString8QVariantE
eiskaltdcpp-qt:_ZN12TransferView13coreQMRemovedE4QMapI7QString8QVariantE
eiskaltdcpp-qt:_ZN12TransferView14closeConectionERK7QStringb
eiskaltdcpp-qt:_ZN12TransferView14coreDMCompleteE4QMapI7QString8QVariantE
eiskaltdcpp-qt:_ZN12TransferView14coreDMStartingE4QMapI7QString8QVariantE
eiskaltdcpp-qt:_ZN12TransferView14coreQMFinishedE4QMapI7QString8QVariantE
eiskaltdcpp-qt:_ZN12TransferView14coreUMCompleteE4QMapI7QString8QVariantE
eiskaltdcpp-qt:_ZN12TransferView14coreUMStartingE4QMapI7QString8QVariantE
eiskaltdcpp-qt:_ZN12TransferView14getTTHFromItemEPK16TransferViewItem
eiskaltdcpp-qt:_ZN12TransferView14slotHeaderMenuERK6QPoint
eiskaltdcpp-qt:_ZN12TransferView15coreCMConnectedE4QMapI7QString8QVariantE
eiskaltdcpp-qt:_ZN12TransferView15removeFromQueueERK7QString
eiskaltdcpp-qt:_ZN12TransferView15slotContextMenuERK6QPoint
eiskaltdcpp-qt:_ZN12TransferView16coreDMRequestingE4QMapI7QString8QVariantE
eiskaltdcpp-qt:_ZN12TransferView16downloadCompleteE7QString
eiskaltdcpp-qt:_ZN12TransferView16searchAlternatesERK7QString
eiskaltdcpp-qt:_ZN12TransferView16staticMetaObjectE
eiskaltdcpp-qt:_ZN12TransferView17coreUpdateParentsEv
eiskaltdcpp-qt:_ZN12TransferView19coreCMStatusChangedE4QMapI7QString8QVariantE
eiskaltdcpp-qt:_ZN12TransferView20coreDownloadCompleteE7QString
eiskaltdcpp-qt:_ZN12TransferView26coreUpdateTransferPositionE4QMapI7QString8QVariantEx
eiskaltdcpp-qt:_ZN12TransferView2onEN4dcpp20QueueManagerListener1XILi16EEEPNS0_8DownloadERKNSt7__cxx1112basic_stringIcSt11char_traitsIcESaIcEEE
eiskaltdcpp-qt:_ZN12TransferView2onEN4dcpp20QueueManagerListener1XILi1EEEPNS0_9QueueItemERKNSt7__cxx1112basic_stringIcSt11char_traitsIcESaIcEEEl
eiskaltdcpp-qt:_ZN12TransferView2onEN4dcpp20QueueManagerListener1XILi2EEEPNS0_9QueueItemE
eiskaltdcpp-qt:_ZN12TransferView2onEN4dcpp21UploadManagerListener1XILi0EEEPNS0_6UploadE
eiskaltdcpp-qt:_ZN12TransferView2onEN4dcpp21UploadManagerListener1XILi1EEEPNS0_6UploadERKNSt7__cxx1112basic_stringIcSt11char_traitsIcESaIcEEE
eiskaltdcpp-qt:_ZN12TransferView2onEN4dcpp21UploadManagerListener1XILi2EEEPNS0_6UploadE
eiskaltdcpp-qt:_ZN12TransferView2onEN4dcpp21UploadManagerListener1XILi3EEERKSt6vectorIPNS0_6UploadESaIS6_EE
eiskaltdcpp-qt:_ZN12TransferView2onEN4dcpp23DownloadManagerListener1XILi0EEEPNS0_8DownloadE
eiskaltdcpp-qt:_ZN12TransferView2onEN4dcpp23DownloadManagerListener1XILi1EEEPNS0_8DownloadERKNSt7__cxx1112basic_stringIcSt11char_traitsIcESaIcEEE
eiskaltdcpp-qt:_ZN12TransferView2onEN4dcpp23DownloadManagerListener1XILi2EEEPNS0_8DownloadE
eiskaltdcpp-qt:_ZN12TransferView2onEN4dcpp23DownloadManagerListener1XILi3EEERKSt6vectorIPNS0_8DownloadESaIS6_EE
eiskaltdcpp-qt:_ZN12TransferView2onEN4dcpp23DownloadManagerListener1XILi4EEEPNS0_8DownloadE
eiskaltdcpp-qt:_ZN12TransferView2onEN4dcpp25ConnectionManagerListener1XILi0EEEPNS0_19ConnectionQueueItemE
eiskaltdcpp-qt:_ZN12TransferView2onEN4dcpp25ConnectionManagerListener1XILi1EEEPNS0_19ConnectionQueueItemE
eiskaltdcpp-qt:_ZN12TransferView2onEN4dcpp25ConnectionManagerListener1XILi2EEEPNS0_19ConnectionQueueItemE
eiskaltdcpp-qt:_ZN12TransferView2onEN4dcpp25ConnectionManagerListener1XILi3EEEPNS0_19ConnectionQueueItemERKNSt7__cxx1112basic_stringIcSt11char_traitsIcESaIcEEE
eiskaltdcpp-qt:_ZN12TransferView2onEN4dcpp25ConnectionManagerListener1XILi4EEEPNS0_19ConnectionQueueItemE
eiskaltdcpp-qt:_ZN12TransferView4Menu4execEv
eiskaltdcpp-qt:_ZN12TransferView4MenuC1Eb
eiskaltdcpp-qt:_ZN12TransferView4MenuC2Eb
eiskaltdcpp-qt:_ZN12TransferView4MenuD0Ev
eiskaltdcpp-qt:_ZN12TransferView4MenuD1Ev
eiskaltdcpp-qt:_ZN12TransferView4MenuD2Ev
eiskaltdcpp-qt:_ZN12TransferView4initEv
eiskaltdcpp-qt:_ZN12TransferView4loadEv
eiskaltdcpp-qt:_ZN12TransferView4saveEv
eiskaltdcpp-qt:_ZN12TransferView8onFailedEPN4dcpp8DownloadERKNSt7__cxx1112basic_stringIcSt11char_traitsIcESaIcEEE
eiskaltdcpp-qt:_ZN12TransferView9getParamsER4QMapI7QString8QVariantEPKN4dcpp19ConnectionQueueItemE
eiskaltdcpp-qt:_ZN12TransferView9getParamsER4QMapI7QString8QVariantEPKN4dcpp8TransferE
eiskaltdcpp-qt:_ZN12TransferView9grantSlotERK7QStringS2_
eiskaltdcpp-qt:_ZN12TransferView9hideEventEP10QHideEvent
eiskaltdcpp-qt:_ZN12TransferViewC1EP7QWidget
eiskaltdcpp-qt:_ZN12TransferViewC2EP7QWidget
eiskaltdcpp-qt:_ZN12TransferViewD0Ev
eiskaltdcpp-qt:_ZN12TransferViewD1Ev
eiskaltdcpp-qt:_ZN12TransferViewD2Ev
eiskaltdcpp-qt:_ZN12UserListItem11appendChildEPS_
eiskaltdcpp-qt:_ZN12UserListItem14updateIdentityERKN4dcpp8IdentityERK7QStringb
eiskaltdcpp-qt:_ZN12UserListItem5childEi
eiskaltdcpp-qt:_ZN12UserListItem6parentEv
eiskaltdcpp-qt:_ZN12UserListItemC1EPS_N4dcpp13intrusive_ptrINS1_4UserEEERKNS1_8IdentityERK7QStringb
eiskaltdcpp-qt:_ZN12UserListItemC1Ev
eiskaltdcpp-qt:_ZN12UserListItemC2EPS_N4dcpp13intrusive_ptrINS1_4UserEEERKNS1_8IdentityERK7QStringb
eiskaltdcpp-qt:_ZN12UserListItemC2Ev
eiskaltdcpp-qt:_ZN12UserListItemD0Ev
eiskaltdcpp-qt:_ZN12UserListItemD1Ev
eiskaltdcpp-qt:_ZN12UserListItemD2Ev
eiskaltdcpp-qt:_ZN13AntiSpamFrame10slotAcceptEv
eiskaltdcpp-qt:_ZN13AntiSpamFrame11loadGUIDataEv
eiskaltdcpp-qt:_ZN13AntiSpamFrame11qt_metacallEN11QMetaObject4CallEiPPv
eiskaltdcpp-qt:_ZN13AntiSpamFrame11qt_metacastEPKc
eiskaltdcpp-qt:_ZN13AntiSpamFrame12InitDocumentEv
eiskaltdcpp-qt:_ZN13AntiSpamFrame12loadGrayListEv
eiskaltdcpp-qt:_ZN13AntiSpamFrame12slotAsFilterEv
eiskaltdcpp-qt:_ZN13AntiSpamFrame13addItemToTreeEP11QTreeWidgetRK7QString
eiskaltdcpp-qt:_ZN13AntiSpamFrame13loadBlackListEv
eiskaltdcpp-qt:_ZN13AntiSpamFrame13loadWhiteListEv
eiskaltdcpp-qt:_ZN13AntiSpamFrame13slotAddToGrayEv
eiskaltdcpp-qt:_ZN13AntiSpamFrame13slotClearGrayEv
eiskaltdcpp-qt:_ZN13AntiSpamFrame13slotFilterOpsEv
eiskaltdcpp-qt:_ZN13AntiSpamFrame14slotAddToBlackEv
eiskaltdcpp-qt:_ZN13AntiSpamFrame14slotAddToWhiteEv
eiskaltdcpp-qt:_ZN13AntiSpamFrame14slotClearBlackEv
eiskaltdcpp-qt:_ZN13AntiSpamFrame14slotClearWhiteEv
eiskaltdcpp-qt:_ZN13AntiSpamFrame15clearTreeWidgetEP11QTreeWidget
eiskaltdcpp-qt:_ZN13AntiSpamFrame15remItemFromTreeEP11QTreeWidgetRK7QString
eiskaltdcpp-qt:_ZN13AntiSpamFrame15slotRemFromGrayEv
eiskaltdcpp-qt:_ZN13AntiSpamFrame16slotRemFromBlackEv
eiskaltdcpp-qt:_ZN13AntiSpamFrame16slotRemFromWhiteEv
eiskaltdcpp-qt:_ZN13AntiSpamFrame16staticMetaObjectE
eiskaltdcpp-qt:_ZN13AntiSpamFrame18slotAntiSpamSwitchEv
eiskaltdcpp-qt:_ZN13AntiSpamFrame19slotSettingsChangedERK7QStringS2_
eiskaltdcpp-qt:_ZN13AntiSpamFrame8loadListEP11QTreeWidgetR5QListI7QStringE
eiskaltdcpp-qt:_ZN13AntiSpamFrame8slotBToGEv
eiskaltdcpp-qt:_ZN13AntiSpamFrame8slotBToWEv
eiskaltdcpp-qt:_ZN13AntiSpamFrame8slotGToBEv
eiskaltdcpp-qt:_ZN13AntiSpamFrame8slotGToWEv
eiskaltdcpp-qt:_ZN13AntiSpamFrame8slotWToBEv
eiskaltdcpp-qt:_ZN13AntiSpamFrame8slotWToGEv
eiskaltdcpp-qt:_ZN13AntiSpamFrame9addToListE19AntiSpamObjectStateRK7QString
eiskaltdcpp-qt:_ZN13AntiSpamFrameC1EP7QWidget
eiskaltdcpp-qt:_ZN13AntiSpamFrameC2EP7QWidget
eiskaltdcpp-qt:_ZN13AntiSpamFrameD0Ev
eiskaltdcpp-qt:_ZN13AntiSpamFrameD1Ev
eiskaltdcpp-qt:_ZN13AntiSpamFrameD2Ev
eiskaltdcpp-qt:_ZN13DownloadQueue10closeEventEP11QCloseEvent
eiskaltdcpp-qt:_ZN13DownloadQueue10getSourcesEv
eiskaltdcpp-qt:_ZN13DownloadQueue10updateFileERK4QMapI7QString8QVariantE
eiskaltdcpp-qt:_ZN13DownloadQueue11coreRemovedE4QMapI7QString8QVariantE
eiskaltdcpp-qt:_ZN13DownloadQueue11qt_metacallEN11QMetaObject4CallEiPPv
eiskaltdcpp-qt:_ZN13DownloadQueue11qt_metacastEPKc
eiskaltdcpp-qt:_ZN13DownloadQueue12removeSourceERK7QStringS2_
eiskaltdcpp-qt:_ZN13DownloadQueue12removeTargetERK7QString
eiskaltdcpp-qt:_ZN13DownloadQueue13requestDeleteEv
eiskaltdcpp-qt:_ZN13DownloadQueue14slotHeaderMenuERK6QPoint
eiskaltdcpp-qt:_ZN13DownloadQueue15slotCollapseRowERK11QModelIndex
eiskaltdcpp-qt:_ZN13DownloadQueue15slotContextMenuERK6QPoint
eiskaltdcpp-qt:_ZN13DownloadQueue15slotUpdateStatsEyy
eiskaltdcpp-qt:_ZN13DownloadQueue16staticMetaObjectE
eiskaltdcpp-qt:_ZN13DownloadQueue17coreStatusUpdatedE4QMapI7QString8QVariantE
eiskaltdcpp-qt:_ZN13DownloadQueue18coreSourcesUpdatedE4QMapI7QString8QVariantE
eiskaltdcpp-qt:_ZN13DownloadQueue19slotSettingsChangedERK7QStringS2_
eiskaltdcpp-qt:_ZN13DownloadQueue2onEN4dcpp20QueueManagerListener1XILi0EEEPNS0_9QueueItemE
eiskaltdcpp-qt:_ZN13DownloadQueue2onEN4dcpp20QueueManagerListener1XILi2EEEPNS0_9QueueItemE
eiskaltdcpp-qt:_ZN13DownloadQueue2onEN4dcpp20QueueManagerListener1XILi3EEEPNS0_9QueueItemERKNSt7__cxx1112basic_stringIcSt11char_traitsIcESaIcEEE
eiskaltdcpp-qt:_ZN13DownloadQueue2onEN4dcpp20QueueManagerListener1XILi4EEEPNS0_9QueueItemE
eiskaltdcpp-qt:_ZN13DownloadQueue2onEN4dcpp20QueueManagerListener1XILi5EEEPNS0_9QueueItemE
eiskaltdcpp-qt:_ZN13DownloadQueue4Menu4execERK4QMapI7QStringS1_IS2_S2_EERKS2_b
eiskaltdcpp-qt:_ZN13DownloadQueue4Menu6getArgEv
eiskaltdcpp-qt:_ZN13DownloadQueue4Menu9clearMenuEP5QMenu
eiskaltdcpp-qt:_ZN13DownloadQueue4MenuC1Ev
eiskaltdcpp-qt:_ZN13DownloadQueue4MenuC2Ev
eiskaltdcpp-qt:_ZN13DownloadQueue4MenuD0Ev
eiskaltdcpp-qt:_ZN13DownloadQueue4MenuD1Ev
eiskaltdcpp-qt:_ZN13DownloadQueue4MenuD2Ev
eiskaltdcpp-qt:_ZN13DownloadQueue4initEv
eiskaltdcpp-qt:_ZN13DownloadQueue4loadEv
eiskaltdcpp-qt:_ZN13DownloadQueue4saveEv
eiskaltdcpp-qt:_ZN13DownloadQueue5addedERK7QString
eiskaltdcpp-qt:_ZN13DownloadQueue5movedERK7QStringS2_
eiskaltdcpp-qt:_ZN13DownloadQueue6getCIDERK4QMapI7QString8QVariantE
eiskaltdcpp-qt:_ZN13DownloadQueue7addFileERK4QMapI7QString8QVariantE
eiskaltdcpp-qt:_ZN13DownloadQueue7remFileERK4QMapI7QString8QVariantE
eiskaltdcpp-qt:_ZN13DownloadQueue7removedERK7QString
eiskaltdcpp-qt:_ZN13DownloadQueue8getItemsERK5QListI11QModelIndexERS0_IP17DownloadQueueItemE
eiskaltdcpp-qt:_ZN13DownloadQueue8loadListEv
eiskaltdcpp-qt:_ZN13DownloadQueue9coreAddedE4QMapI7QString8QVariantE
eiskaltdcpp-qt:_ZN13DownloadQueue9coreMovedE4QMapI7QString8QVariantE
eiskaltdcpp-qt:_ZN13DownloadQueue9getChildsEP17DownloadQueueItemR5QListIS1_E
eiskaltdcpp-qt:_ZN13DownloadQueue9getParamsER4QMapI7QString8QVariantEPKN4dcpp9QueueItemE
eiskaltdcpp-qt:_ZN13DownloadQueueC1EP7QWidget
eiskaltdcpp-qt:_ZN13DownloadQueueC2EP7QWidget
eiskaltdcpp-qt:_ZN13DownloadQueueD0Ev
eiskaltdcpp-qt:_ZN13DownloadQueueD1Ev
eiskaltdcpp-qt:_ZN13DownloadQueueD2Ev
eiskaltdcpp-qt:_ZN13EmoticonLabel11qt_metacallEN11QMetaObject4CallEiPPv
eiskaltdcpp-qt:_ZN13EmoticonLabel11qt_metacastEPKc
eiskaltdcpp-qt:_ZN13EmoticonLabel16staticMetaObjectE
eiskaltdcpp-qt:_ZN13EmoticonLabel7clickedEv
eiskaltdcpp-qt:_ZN13FavoriteUsers10closeEventEP11QCloseEvent
eiskaltdcpp-qt:_ZN13FavoriteUsers10handleDescERK7QString
eiskaltdcpp-qt:_ZN13FavoriteUsers10updateUserERK7QStringS2_
eiskaltdcpp-qt:_ZN13FavoriteUsers11eventFilterEP7QObjectP6QEvent
eiskaltdcpp-qt:_ZN13FavoriteUsers11getFileListERK4QMapI7QString8QVariantE
eiskaltdcpp-qt:_ZN13FavoriteUsers11handleGrantERK7QString
eiskaltdcpp-qt:_ZN13FavoriteUsers11qt_metacallEN11QMetaObject4CallEiPPv
eiskaltdcpp-qt:_ZN13FavoriteUsers11qt_metacastEPKc
eiskaltdcpp-qt:_ZN13FavoriteUsers12addUserToFavERK7QString
eiskaltdcpp-qt:_ZN13FavoriteUsers12handleRemoveERK7QString
eiskaltdcpp-qt:_ZN13FavoriteUsers13coreUserAddedE4QMapI7QString8QVariantE
eiskaltdcpp-qt:_ZN13FavoriteUsers14remUserFromFavERK7QString
eiskaltdcpp-qt:_ZN13FavoriteUsers14slotHeaderMenuEv
eiskaltdcpp-qt:_ZN13FavoriteUsers15coreUserRemovedE7QString
eiskaltdcpp-qt:_ZN13FavoriteUsers15slotContextMenuEv
eiskaltdcpp-qt:_ZN13FavoriteUsers16staticMetaObjectE
eiskaltdcpp-qt:_ZN13FavoriteUsers17coreStatusChangedE7QStringS0_
eiskaltdcpp-qt:_ZN13FavoriteUsers17handleBrowseShareERK7QString
eiskaltdcpp-qt:_ZN13FavoriteUsers19slotSettingsChangedERK7QStringS2_
eiskaltdcpp-qt:_ZN13FavoriteUsers2onEN4dcpp23FavoriteManagerListener1XILi5EEERKNS0_12FavoriteUserE
eiskaltdcpp-qt:_ZN13FavoriteUsers2onEN4dcpp23FavoriteManagerListener1XILi6EEERKNS0_12FavoriteUserE
eiskaltdcpp-qt:_ZN13FavoriteUsers2onEN4dcpp23FavoriteManagerListener1XILi7EEERKNS0_12FavoriteUserE
eiskaltdcpp-qt:_ZN13FavoriteUsers7addUserERK4QMapI7QString8QVariantE
eiskaltdcpp-qt:_ZN13FavoriteUsers7remUserERK7QString
eiskaltdcpp-qt:_ZN13FavoriteUsers9getParamsER4QMapI7QString8QVariantERKN4dcpp12FavoriteUserE
eiskaltdcpp-qt:_ZN13FavoriteUsersC1EP7QWidget
eiskaltdcpp-qt:_ZN13FavoriteUsersC2EP7QWidget
eiskaltdcpp-qt:_ZN13FavoriteUsersD0Ev
eiskaltdcpp-qt:_ZN13FavoriteUsersD1Ev
eiskaltdcpp-qt:_ZN13FavoriteUsersD2Ev
eiskaltdcpp-qt:_ZN13IPFilterFrame10closeEventEP11QCloseEvent
eiskaltdcpp-qt:_ZN13IPFilterFrame10slotExportEv
eiskaltdcpp-qt:_ZN13IPFilterFrame10slotImportEv
eiskaltdcpp-qt:_ZN13IPFilterFrame11qt_metacallEN11QMetaObject4CallEiPPv
eiskaltdcpp-qt:_ZN13IPFilterFrame11qt_metacastEPKc
eiskaltdcpp-qt:_ZN13IPFilterFrame11slotAddRuleEv
eiskaltdcpp-qt:_ZN13IPFilterFrame12InitDocumentEv
eiskaltdcpp-qt:_ZN13IPFilterFrame13slotRuleAddedE7QString10eDIRECTION
eiskaltdcpp-qt:_ZN13IPFilterFrame15slotUpDownClickEv
eiskaltdcpp-qt:_ZN13IPFilterFrame16staticMetaObjectE
eiskaltdcpp-qt:_ZN13IPFilterFrame17slotCheckBoxClickEv
eiskaltdcpp-qt:_ZN13IPFilterFrame23slotTreeViewContextMenuE6QPoint
eiskaltdcpp-qt:_ZN13IPFilterFrame9loadItemsEv
eiskaltdcpp-qt:_ZN13IPFilterFrameC1EP7QWidget
eiskaltdcpp-qt:_ZN13IPFilterFrameC2EP7QWidget
eiskaltdcpp-qt:_ZN13IPFilterFrameD0Ev
eiskaltdcpp-qt:_ZN13IPFilterFrameD1Ev
eiskaltdcpp-qt:_ZN13IPFilterFrameD2Ev
eiskaltdcpp-qt:_ZN13IPFilterModel10clearModelEv
eiskaltdcpp-qt:_ZN13IPFilterModel10removeItemEP17IPFilterModelItem
eiskaltdcpp-qt:_ZN13IPFilterModel11qt_metacallEN11QMetaObject4CallEiPPv
eiskaltdcpp-qt:_ZN13IPFilterModel11qt_metacastEPKc
eiskaltdcpp-qt:_ZN13IPFilterModel16staticMetaObjectE
eiskaltdcpp-qt:_ZN13IPFilterModel4sortEiN2Qt9SortOrderE
eiskaltdcpp-qt:_ZN13IPFilterModel5resetEv
eiskaltdcpp-qt:_ZN13IPFilterModel6moveUpERK11QModelIndex
eiskaltdcpp-qt:_ZN13IPFilterModel7repaintEv
eiskaltdcpp-qt:_ZN13IPFilterModel8moveDownERK11QModelIndex
eiskaltdcpp-qt:_ZN13IPFilterModel9addResultERK7QStringS2_
eiskaltdcpp-qt:_ZN13IPFilterModel9moveIndexERK11QModelIndexb
eiskaltdcpp-qt:_ZN13IPFilterModelC1EP7QObject
eiskaltdcpp-qt:_ZN13IPFilterModelC2EP7QObject
eiskaltdcpp-qt:_ZN13IPFilterModelD0Ev
eiskaltdcpp-qt:_ZN13IPFilterModelD1Ev
eiskaltdcpp-qt:_ZN13IPFilterModelD2Ev
eiskaltdcpp-qt:_ZN13PublicHubItem11appendChildEPS_
eiskaltdcpp-qt:_ZN13PublicHubItem12updateColumnEiRK8QVariant
eiskaltdcpp-qt:_ZN13PublicHubItem5childEi
eiskaltdcpp-qt:_ZN13PublicHubItem6parentEv
eiskaltdcpp-qt:_ZN13PublicHubItemC1ERK5QListI8QVariantEPS_
eiskaltdcpp-qt:_ZN13PublicHubItemC2ERK5QListI8QVariantEPS_
eiskaltdcpp-qt:_ZN13PublicHubItemD1Ev
eiskaltdcpp-qt:_ZN13PublicHubItemD2Ev
eiskaltdcpp-qt:_ZN13ShareDirModel11qt_metacallEN11QMetaObject4CallEiPPv
eiskaltdcpp-qt:_ZN13ShareDirModel11qt_metacastEPKc
eiskaltdcpp-qt:_ZN13ShareDirModel14beginExpandingEv
eiskaltdcpp-qt:_ZN13ShareDirModel16staticMetaObjectE
eiskaltdcpp-qt:_ZN13ShareDirModel7getNameE11QModelIndex
eiskaltdcpp-qt:_ZN13ShareDirModel7setDataERK11QModelIndexRK8QVarianti
eiskaltdcpp-qt:_ZN13ShareDirModel8expandMeE11QModelIndex
eiskaltdcpp-qt:_ZN13ShareDirModel8setAliasERK11QModelIndexRK7QString
eiskaltdcpp-qt:_ZN13ShareDirModelC1EP7QObject
eiskaltdcpp-qt:_ZN13ShareDirModelC2EP7QObject
eiskaltdcpp-qt:_ZN13ShareDirModelD0Ev
eiskaltdcpp-qt:_ZN13ShareDirModelD1Ev
eiskaltdcpp-qt:_ZN13ShareDirModelD2Ev
eiskaltdcpp-qt:_ZN13UserListModel10CIDforNickERK7QStringS2_
eiskaltdcpp-qt:_ZN13UserListModel10itemForPtrERKN4dcpp13intrusive_ptrINS0_4UserEEE
eiskaltdcpp-qt:_ZN13UserListModel10removeUserERKN4dcpp13intrusive_ptrINS0_4UserEEE
eiskaltdcpp-qt:_ZN13UserListModel10updateUserEP12UserListItemRKN4dcpp8IdentityERK7QStringb
eiskaltdcpp-qt:_ZN13UserListModel11itemForNickERK7QStringS2_
eiskaltdcpp-qt:_ZN13UserListModel11qt_metacallEN11QMetaObject4CallEiPPv
eiskaltdcpp-qt:_ZN13UserListModel11qt_metacastEPKc
eiskaltdcpp-qt:_ZN13UserListModel11repaintItemEPK12UserListItem
eiskaltdcpp-qt:_ZN13UserListModel16staticMetaObjectE
eiskaltdcpp-qt:_ZN13UserListModel4sortEiN2Qt9SortOrderE
eiskaltdcpp-qt:_ZN13UserListModel5clearEv
eiskaltdcpp-qt:_ZN13UserListModel7addUserERKN4dcpp13intrusive_ptrINS0_4UserEEERKNS0_8IdentityERK7QStringb
eiskaltdcpp-qt:_ZN13UserListModelC1EP7QObject
eiskaltdcpp-qt:_ZN13UserListModelC2EP7QObject
eiskaltdcpp-qt:_ZN13UserListModelD0Ev
eiskaltdcpp-qt:_ZN13UserListModelD1Ev
eiskaltdcpp-qt:_ZN13UserListModelD2Ev
eiskaltdcpp-qt:_ZN14CustomFontItem11appendChildEPS_
eiskaltdcpp-qt:_ZN14CustomFontItem12updateColumnEi8QVariant
eiskaltdcpp-qt:_ZN14CustomFontItem5childEi
eiskaltdcpp-qt:_ZN14CustomFontItem6parentEv
eiskaltdcpp-qt:_ZN14CustomFontItemC1ERK5QListI8QVariantEPS_
eiskaltdcpp-qt:_ZN14CustomFontItemC2ERK5QListI8QVariantEPS_
eiskaltdcpp-qt:_ZN14CustomFontItemD0Ev
eiskaltdcpp-qt:_ZN14CustomFontItemD1Ev
eiskaltdcpp-qt:_ZN14CustomFontItemD2Ev
eiskaltdcpp-qt:_ZN14EmoticonDialog11qt_metacallEN11QMetaObject4CallEiPPv
eiskaltdcpp-qt:_ZN14EmoticonDialog11qt_metacastEPKc
eiskaltdcpp-qt:_ZN14EmoticonDialog12smileClickedEv
eiskaltdcpp-qt:_ZN14EmoticonDialog16staticMetaObjectE
eiskaltdcpp-qt:_ZN14EmoticonDialogC1EP7QWidget6QFlagsIN2Qt10WindowTypeEE
eiskaltdcpp-qt:_ZN14EmoticonDialogC2EP7QWidget6QFlagsIN2Qt10WindowTypeEE
eiskaltdcpp-qt:_ZN14EmoticonDialogD0Ev
eiskaltdcpp-qt:_ZN14EmoticonDialogD1Ev
eiskaltdcpp-qt:_ZN14EmoticonDialogD2Ev
eiskaltdcpp-qt:_ZN14PublicHubModel10clearModelEv
eiskaltdcpp-qt:_ZN14PublicHubModel11qt_metacallEN11QMetaObject4CallEiPPv
eiskaltdcpp-qt:_ZN14PublicHubModel11qt_metacastEPKc
eiskaltdcpp-qt:_ZN14PublicHubModel16staticMetaObjectE
eiskaltdcpp-qt:_ZN14PublicHubModel4sortEiN2Qt9SortOrderE
eiskaltdcpp-qt:_ZN14PublicHubModel9addResultERK5QListI8QVariantEPN4dcpp8HubEntryE
eiskaltdcpp-qt:_ZN14PublicHubModelC1EP7QObject
eiskaltdcpp-qt:_ZN14PublicHubModelC2EP7QObject
eiskaltdcpp-qt:_ZN14PublicHubModelD0Ev
eiskaltdcpp-qt:_ZN14PublicHubModelD1Ev
eiskaltdcpp-qt:_ZN14PublicHubModelD2Ev
eiskaltdcpp-qt:_ZN14PublicHubsList10slotChangeEv
eiskaltdcpp-qt:_ZN14PublicHubsList11qt_metacallEN11QMetaObject4CallEiPPv
eiskaltdcpp-qt:_ZN14PublicHubsList11qt_metacastEPKc
eiskaltdcpp-qt:_ZN14PublicHubsList12slotAcceptedEv
eiskaltdcpp-qt:_ZN14PublicHubsList16staticMetaObjectE
eiskaltdcpp-qt:_ZN14PublicHubsList6slotUpEv
eiskaltdcpp-qt:_ZN14PublicHubsList7slotAddEv
eiskaltdcpp-qt:_ZN14PublicHubsList7slotRemEv
eiskaltdcpp-qt:_ZN14PublicHubsList8slotDownEv
eiskaltdcpp-qt:_ZN14PublicHubsListC1EP7QWidget
eiskaltdcpp-qt:_ZN14PublicHubsListC2EP7QWidget
eiskaltdcpp-qt:_ZN14QtNotifyModule11showMessageERK7QStringS2_P7QObject
eiskaltdcpp-qt:_ZN14QueuedUserItem11appendChildEPS_
eiskaltdcpp-qt:_ZN14QueuedUserItem5childEi
eiskaltdcpp-qt:_ZN14QueuedUserItemC1ERK5QListI8QVariantEPS_
eiskaltdcpp-qt:_ZN14QueuedUserItemC2ERK5QListI8QVariantEPS_
eiskaltdcpp-qt:_ZN14QueuedUserItemD0Ev
eiskaltdcpp-qt:_ZN14QueuedUserItemD1Ev
eiskaltdcpp-qt:_ZN14QueuedUserItemD2Ev
eiskaltdcpp-qt:_ZN14ShortcutGetter11eventFilterEP7QObjectP6QEvent
eiskaltdcpp-qt:_ZN14ShortcutGetter11qt_metacallEN11QMetaObject4CallEiPPv
eiskaltdcpp-qt:_ZN14ShortcutGetter11qt_metacastEPKc
eiskaltdcpp-qt:_ZN14ShortcutGetter16staticMetaObjectE
eiskaltdcpp-qt:_ZN14ShortcutGetter18setCaptureKeyboardEb
eiskaltdcpp-qt:_ZN14ShortcutGetter4execERK7QString
eiskaltdcpp-qt:_ZN14ShortcutGetter5eventEP6QEvent
eiskaltdcpp-qt:_ZN14ShortcutGetter7setTextEv
eiskaltdcpp-qt:_ZN14ShortcutGetterC1EP7QWidget
eiskaltdcpp-qt:_ZN14ShortcutGetterC2EP7QWidget
eiskaltdcpp-qt:_ZN14ShortcutsModel11qt_metacallEN11QMetaObject4CallEiPPv
eiskaltdcpp-qt:_ZN14ShortcutsModel11qt_metacastEPKc
eiskaltdcpp-qt:_ZN14ShortcutsModel16staticMetaObjectE
eiskaltdcpp-qt:_ZN14ShortcutsModel4saveEv
eiskaltdcpp-qt:_ZN14ShortcutsModel4sortEiN2Qt9SortOrderE
eiskaltdcpp-qt:_ZN14ShortcutsModelC1EP7QObject
eiskaltdcpp-qt:_ZN14ShortcutsModelC2EP7QObject
eiskaltdcpp-qt:_ZN14ShortcutsModelD0Ev
eiskaltdcpp-qt:_ZN14ShortcutsModelD1Ev
eiskaltdcpp-qt:_ZN14ShortcutsModelD2Ev
eiskaltdcpp-qt:_ZN14WulforSettings11fontChangedERK7QStringS2_
eiskaltdcpp-qt:_ZN14WulforSettings11qt_metacallEN11QMetaObject4CallEiPPv
eiskaltdcpp-qt:_ZN14WulforSettings11qt_metacastEPKc
eiskaltdcpp-qt:_ZN14WulforSettings13loadOldConfigEv
eiskaltdcpp-qt:_ZN14WulforSettings15intValueChangedERK7QStringi
eiskaltdcpp-qt:_ZN14WulforSettings15loadTranslationEv
eiskaltdcpp-qt:_ZN14WulforSettings15strValueChangedERK7QStringS2_
eiskaltdcpp-qt:_ZN14WulforSettings15varValueChangedERK7QStringRK8QVariant
eiskaltdcpp-qt:_ZN14WulforSettings16staticMetaObjectE
eiskaltdcpp-qt:_ZN14WulforSettings17installTranslatorER11QTranslatorRK7QStringS4_S4_
eiskaltdcpp-qt:_ZN14WulforSettings17loadQtTranslationERK7QString
eiskaltdcpp-qt:_ZN14WulforSettings4loadEv
eiskaltdcpp-qt:_ZN14WulforSettings4saveEv
eiskaltdcpp-qt:_ZN14WulforSettings6getIntERK7QStringRKi
eiskaltdcpp-qt:_ZN14WulforSettings6getStrERK7QStringS2_
eiskaltdcpp-qt:_ZN14WulforSettings6getVarERK7QStringRK8QVariant
eiskaltdcpp-qt:_ZN14WulforSettings6setIntERK7QStringi
eiskaltdcpp-qt:_ZN14WulforSettings6setStrERK7QStringS2_
eiskaltdcpp-qt:_ZN14WulforSettings6setVarERK7QStringRK8QVariant
eiskaltdcpp-qt:_ZN14WulforSettings7getBoolERK7QStringRKb
eiskaltdcpp-qt:_ZN14WulforSettings7setBoolERK7QStringb
eiskaltdcpp-qt:_ZN14WulforSettings8parseCmdERK7QStringRS0_
eiskaltdcpp-qt:_ZN14WulforSettings9loadThemeEv
eiskaltdcpp-qt:_ZN14WulforSettingsC1Ev
eiskaltdcpp-qt:_ZN14WulforSettingsC2Ev
eiskaltdcpp-qt:_ZN14WulforSettingsD0Ev
eiskaltdcpp-qt:_ZN14WulforSettingsD1Ev
eiskaltdcpp-qt:_ZN14WulforSettingsD2Ev
eiskaltdcpp-qt:_ZN15CustomFontModel10addNewFontERK7QStringS2_
eiskaltdcpp-qt:_ZN15CustomFontModel11fontChangedERK7QStringS2_
eiskaltdcpp-qt:_ZN15CustomFontModel11qt_metacallEN11QMetaObject4CallEiPPv
eiskaltdcpp-qt:_ZN15CustomFontModel11qt_metacastEPKc
eiskaltdcpp-qt:_ZN15CustomFontModel16staticMetaObjectE
eiskaltdcpp-qt:_ZN15CustomFontModel17itemDoubleClickedERK11QModelIndex
eiskaltdcpp-qt:_ZN15CustomFontModel2okEv
eiskaltdcpp-qt:_ZN15CustomFontModelC1EP7QObject
eiskaltdcpp-qt:_ZN15CustomFontModelC2EP7QObject
eiskaltdcpp-qt:_ZN15CustomFontModelD0Ev
eiskaltdcpp-qt:_ZN15CustomFontModelD1Ev
eiskaltdcpp-qt:_ZN15CustomFontModelD2Ev
eiskaltdcpp-qt:_ZN15EmoticonFactory10fillLayoutEP7QLayoutR5QSize
eiskaltdcpp-qt:_ZN15EmoticonFactory11qt_metacallEN11QMetaObject4CallEiPPv
eiskaltdcpp-qt:_ZN15EmoticonFactory11qt_metacastEPKc
eiskaltdcpp-qt:_ZN15EmoticonFactory12addEmoticonsEP13QTextDocument
eiskaltdcpp-qt:_ZN15EmoticonFactory14slotDocDeletedEv
eiskaltdcpp-qt:_ZN15EmoticonFactory16convertEmoticonsERK7QString
eiskaltdcpp-qt:_ZN15EmoticonFactory16staticMetaObjectE
eiskaltdcpp-qt:_ZN15EmoticonFactory17createEmoticonMapERK8QDomNode
eiskaltdcpp-qt:_ZN15EmoticonFactory17findSectionByNameERK8QDomNodeRK7QString
eiskaltdcpp-qt:_ZN15EmoticonFactory20getSubSectionsByNameERK8QDomNodeR5QListIS0_ERK7QString
eiskaltdcpp-qt:_ZN15EmoticonFactory4loadEv
eiskaltdcpp-qt:_ZN15EmoticonFactory5clearEv
eiskaltdcpp-qt:_ZN15EmoticonFactoryC1Ev
eiskaltdcpp-qt:_ZN15EmoticonFactoryC2Ev
eiskaltdcpp-qt:_ZN15EmoticonFactoryD0Ev
eiskaltdcpp-qt:_ZN15EmoticonFactoryD1Ev
eiskaltdcpp-qt:_ZN15EmoticonFactoryD2Ev
eiskaltdcpp-qt:_ZN15FavoriteHubItem11appendChildEPS_
eiskaltdcpp-qt:_ZN15FavoriteHubItem12updateColumnEiRK8QVariant
eiskaltdcpp-qt:_ZN15FavoriteHubItem5childEi
eiskaltdcpp-qt:_ZN15FavoriteHubItem6parentEv
eiskaltdcpp-qt:_ZN15FavoriteHubItemC1ERK5QListI8QVariantEPS_
eiskaltdcpp-qt:_ZN15FavoriteHubItemC2ERK5QListI8QVariantEPS_
eiskaltdcpp-qt:_ZN15FavoriteHubItemD1Ev
eiskaltdcpp-qt:_ZN15FavoriteHubItemD2Ev
eiskaltdcpp-qt:_ZN15FileBrowserItem11appendChildEPS_
eiskaltdcpp-qt:_ZN15FileBrowserItem11nextSiblingEv
eiskaltdcpp-qt:_ZN15FileBrowserItem12updateColumnEi8QVariant
eiskaltdcpp-qt:_ZN15FileBrowserItem5childEi
eiskaltdcpp-qt:_ZN15FileBrowserItem6parentEv
eiskaltdcpp-qt:_ZN15FileBrowserItemC1ERK5QListI8QVariantEPS_
eiskaltdcpp-qt:_ZN15FileBrowserItemC1ERKS_
eiskaltdcpp-qt:_ZN15FileBrowserItemC2ERK5QListI8QVariantEPS_
eiskaltdcpp-qt:_ZN15FileBrowserItemC2ERKS_
eiskaltdcpp-qt:_ZN15FileBrowserItemD0Ev
eiskaltdcpp-qt:_ZN15FileBrowserItemD1Ev
eiskaltdcpp-qt:_ZN15FileBrowserItemD2Ev
eiskaltdcpp-qt:_ZN15FileBrowserItemaSERKS_
eiskaltdcpp-qt:_ZN15SearchBlacklist11qt_metacallEN11QMetaObject4CallEiPPv
eiskaltdcpp-qt:_ZN15SearchBlacklist11qt_metacastEPKc
eiskaltdcpp-qt:_ZN15SearchBlacklist16staticMetaObjectE
eiskaltdcpp-qt:_ZN15SearchBlacklist2okERK7QStringNS_8ArgumentE
eiskaltdcpp-qt:_ZN15SearchBlacklist9loadListsEv
eiskaltdcpp-qt:_ZN15SearchBlacklist9saveListsEv
eiskaltdcpp-qt:_ZN15SearchBlacklistC1Ev
eiskaltdcpp-qt:_ZN15SearchBlacklistC2Ev
eiskaltdcpp-qt:_ZN15SearchBlacklistD0Ev
eiskaltdcpp-qt:_ZN15SearchBlacklistD1Ev
eiskaltdcpp-qt:_ZN15SearchBlacklistD2Ev
eiskaltdcpp-qt:_ZN15SettingsHistory11qt_metacallEN11QMetaObject4CallEiPPv
eiskaltdcpp-qt:_ZN15SettingsHistory11qt_metacastEPKc
eiskaltdcpp-qt:_ZN15SettingsHistory16staticMetaObjectE
eiskaltdcpp-qt:_ZN15SettingsHistory22slotClearSearchHistoryEv
eiskaltdcpp-qt:_ZN15SettingsHistory27slotClearDirectoriesHistoryEv
eiskaltdcpp-qt:_ZN15SettingsHistory2okEv
eiskaltdcpp-qt:_ZN15SettingsHistoryC1EP7QWidget
eiskaltdcpp-qt:_ZN15SettingsHistoryC2EP7QWidget
eiskaltdcpp-qt:_ZN15SettingsHistoryD0Ev
eiskaltdcpp-qt:_ZN15SettingsHistoryD1Ev
eiskaltdcpp-qt:_ZN15SettingsHistoryD2Ev
eiskaltdcpp-qt:_ZN15SettingsSharing11qt_metacallEN11QMetaObject4CallEiPPv
eiskaltdcpp-qt:_ZN15SettingsSharing11qt_metacastEPKc
eiskaltdcpp-qt:_ZN15SettingsSharing11slotGetNameE11QModelIndex
eiskaltdcpp-qt:_ZN15SettingsSharing14slotHeaderMenuEv
eiskaltdcpp-qt:_ZN15SettingsSharing15slotAddExeptionEv
eiskaltdcpp-qt:_ZN15SettingsSharing15slotContextMenuERK6QPoint
eiskaltdcpp-qt:_ZN15SettingsSharing15slotShareHiddenEb
eiskaltdcpp-qt:_ZN15SettingsSharing15updateShareViewEv
eiskaltdcpp-qt:_ZN15SettingsSharing16slotEditExeptionEv
eiskaltdcpp-qt:_ZN15SettingsSharing16staticMetaObjectE
eiskaltdcpp-qt:_ZN15SettingsSharing17slotRecreateShareEv
eiskaltdcpp-qt:_ZN15SettingsSharing18slotAddDirExeptionEv
eiskaltdcpp-qt:_ZN15SettingsSharing18slotDeleteExeptionEv
eiskaltdcpp-qt:_ZN15SettingsSharing26slotSimpleShareModeChangedEv
eiskaltdcpp-qt:_ZN15SettingsSharing2okEv
eiskaltdcpp-qt:_ZN15SettingsSharing4initEv
eiskaltdcpp-qt:_ZN15SettingsSharing9showEventEP10QShowEvent
eiskaltdcpp-qt:_ZN15SettingsSharingC1EP7QWidget
eiskaltdcpp-qt:_ZN15SettingsSharingC2EP7QWidget
eiskaltdcpp-qt:_ZN15SettingsSharingD0Ev
eiskaltdcpp-qt:_ZN15SettingsSharingD1Ev
eiskaltdcpp-qt:_ZN15SettingsSharingD2Ev
eiskaltdcpp-qt:_ZN15ShortcutManager11qt_metacallEN11QMetaObject4CallEiPPv
eiskaltdcpp-qt:_ZN15ShortcutManager11qt_metacastEPKc
eiskaltdcpp-qt:_ZN15ShortcutManager14updateShortcutEP7QActionRK7QString
eiskaltdcpp-qt:_ZN15ShortcutManager16registerShortcutEP7QActionRK7QString
eiskaltdcpp-qt:_ZN15ShortcutManager16staticMetaObjectE
eiskaltdcpp-qt:_ZN15ShortcutManager4loadEv
eiskaltdcpp-qt:_ZN15ShortcutManager4saveEv
eiskaltdcpp-qt:_ZN15ShortcutManagerC1Ev
eiskaltdcpp-qt:_ZN15ShortcutManagerC2Ev
eiskaltdcpp-qt:_ZN15ShortcutManagerD0Ev
eiskaltdcpp-qt:_ZN15ShortcutManagerD1Ev
eiskaltdcpp-qt:_ZN15ShortcutManagerD2Ev
eiskaltdcpp-qt:_ZN15SideBarDelegate11qt_metacallEN11QMetaObject4CallEiPPv
eiskaltdcpp-qt:_ZN15SideBarDelegate11qt_metacastEPKc
eiskaltdcpp-qt:_ZN15SideBarDelegate16staticMetaObjectE
eiskaltdcpp-qt:_ZN15SideBarDelegateC1EP7QObject
eiskaltdcpp-qt:_ZN15SideBarDelegateC2EP7QObject
eiskaltdcpp-qt:_ZN15SideBarDelegateD0Ev
eiskaltdcpp-qt:_ZN15SideBarDelegateD1Ev
eiskaltdcpp-qt:_ZN15SideBarDelegateD2Ev
eiskaltdcpp-qt:_ZN16ActionCustomizer11qt_metacallEN11QMetaObject4CallEiPPv
eiskaltdcpp-qt:_ZN16ActionCustomizer11qt_metacastEPKc
eiskaltdcpp-qt:_ZN16ActionCustomizer13moveToEnabledEv
eiskaltdcpp-qt:_ZN16ActionCustomizer14actionAcceptedEv
eiskaltdcpp-qt:_ZN16ActionCustomizer15moveToAvailableEv
eiskaltdcpp-qt:_ZN16ActionCustomizer16staticMetaObjectE
eiskaltdcpp-qt:_ZN16ActionCustomizer4doneERK5QListIP7QActionE
eiskaltdcpp-qt:_ZN16ActionCustomizer6moveUpEv
eiskaltdcpp-qt:_ZN16ActionCustomizer8moveDownEv
eiskaltdcpp-qt:_ZN16ActionCustomizerC1ERK5QListIP7QActionES5_P7QWidget
eiskaltdcpp-qt:_ZN16ActionCustomizerC2ERK5QListIP7QActionES5_P7QWidget
eiskaltdcpp-qt:_ZN16DBusNotifyModule11showMessageERK7QStringS2_P7QObject
eiskaltdcpp-qt:_ZN16FavoriteHubModel10clearModelEv
eiskaltdcpp-qt:_ZN16FavoriteHubModel10insertRowsEiiRK11QModelIndex
eiskaltdcpp-qt:_ZN16FavoriteHubModel10removeItemEPK15FavoriteHubItem
eiskaltdcpp-qt:_ZN16FavoriteHubModel10removeItemERK11QModelIndex
eiskaltdcpp-qt:_ZN16FavoriteHubModel10removeRowsEiiRK11QModelIndex
eiskaltdcpp-qt:_ZN16FavoriteHubModel11qt_metacallEN11QMetaObject4CallEiPPv
eiskaltdcpp-qt:_ZN16FavoriteHubModel11qt_metacastEPKc
eiskaltdcpp-qt:_ZN16FavoriteHubModel16staticMetaObjectE
eiskaltdcpp-qt:_ZN16FavoriteHubModel4sortEiN2Qt9SortOrderE
eiskaltdcpp-qt:_ZN16FavoriteHubModel5resetEv
eiskaltdcpp-qt:_ZN16FavoriteHubModel6moveUpERK11QModelIndex
eiskaltdcpp-qt:_ZN16FavoriteHubModel7repaintEv
eiskaltdcpp-qt:_ZN16FavoriteHubModel8getItemsEv
eiskaltdcpp-qt:_ZN16FavoriteHubModel8moveDownERK11QModelIndex
eiskaltdcpp-qt:_ZN16FavoriteHubModel9addResultER5QListI8QVariantE
eiskaltdcpp-qt:_ZN16FavoriteHubModel9insertRowEiRK11QModelIndex
eiskaltdcpp-qt:_ZN16FavoriteHubModel9removeRowEiRK11QModelIndex
eiskaltdcpp-qt:_ZN16FavoriteHubModelC1EP7QObject
eiskaltdcpp-qt:_ZN16FavoriteHubModelC2EP7QObject
eiskaltdcpp-qt:_ZN16FavoriteHubModelD0Ev
eiskaltdcpp-qt:_ZN16FavoriteHubModelD1Ev
eiskaltdcpp-qt:_ZN16FavoriteHubModelD2Ev
eiskaltdcpp-qt:_ZN16FavoriteUserItem11appendChildEPS_
eiskaltdcpp-qt:_ZN16FavoriteUserItem12updateColumnEiRK8QVariant
eiskaltdcpp-qt:_ZN16FavoriteUserItem5childEi
eiskaltdcpp-qt:_ZN16FavoriteUserItem6parentEv
eiskaltdcpp-qt:_ZN16FavoriteUserItemC1ERK5QListI8QVariantEPS_
eiskaltdcpp-qt:_ZN16FavoriteUserItemC2ERK5QListI8QVariantEPS_
eiskaltdcpp-qt:_ZN16FavoriteUserItemD1Ev
eiskaltdcpp-qt:_ZN16FavoriteUserItemD2Ev
eiskaltdcpp-qt:_ZN16FileBrowserModel11fetchBranchERK11QModelIndexPN4dcpp16DirectoryListing9DirectoryE
eiskaltdcpp-qt:_ZN16FileBrowserModel11qt_metacallEN11QMetaObject4CallEiPPv
eiskaltdcpp-qt:_ZN16FileBrowserModel11qt_metacastEPKc
eiskaltdcpp-qt:_ZN16FileBrowserModel11rootChangedEP15FileBrowserItemS1_
eiskaltdcpp-qt:_ZN16FileBrowserModel12setSortOrderEN2Qt9SortOrderE
eiskaltdcpp-qt:_ZN16FileBrowserModel13setSortColumnEi
eiskaltdcpp-qt:_ZN16FileBrowserModel14setIconsScaledEbRK5QSize
eiskaltdcpp-qt:_ZN16FileBrowserModel16loadRestrictionsEv
eiskaltdcpp-qt:_ZN16FileBrowserModel16staticMetaObjectE
eiskaltdcpp-qt:_ZN16FileBrowserModel17createRootForPathERK7QStringP15FileBrowserItem
eiskaltdcpp-qt:_ZN16FileBrowserModel17updateRestrictionER11QModelIndexj
eiskaltdcpp-qt:_ZN16FileBrowserModel18createIndexForItemEP15FileBrowserItem
eiskaltdcpp-qt:_ZN16FileBrowserModel19highlightDuplicatesEv
eiskaltdcpp-qt:_ZN16FileBrowserModel4sortEiN2Qt9SortOrderE
eiskaltdcpp-qt:_ZN16FileBrowserModel5clearEv
eiskaltdcpp-qt:_ZN16FileBrowserModel7repaintEv
eiskaltdcpp-qt:_ZN16FileBrowserModel9fetchMoreERK11QModelIndex
eiskaltdcpp-qt:_ZN16FileBrowserModelC1EP7QObject
eiskaltdcpp-qt:_ZN16FileBrowserModelC2EP7QObject
eiskaltdcpp-qt:_ZN16FileBrowserModelD0Ev
eiskaltdcpp-qt:_ZN16FileBrowserModelD1Ev
eiskaltdcpp-qt:_ZN16FileBrowserModelD2Ev
eiskaltdcpp-qt:_ZN16MultiLineToolBar10wheelEventEP11QWheelEvent
eiskaltdcpp-qt:_ZN16MultiLineToolBar11moveTabLeftEv
eiskaltdcpp-qt:_ZN16MultiLineToolBar11qt_metacallEN11QMetaObject4CallEiPPv
eiskaltdcpp-qt:_ZN16MultiLineToolBar11qt_metacastEPKc
eiskaltdcpp-qt:_ZN16MultiLineToolBar12moveTabRightEv
eiskaltdcpp-qt:_ZN16MultiLineToolBar15slotContextMenuEv
eiskaltdcpp-qt:_ZN16MultiLineToolBar16staticMetaObjectE
eiskaltdcpp-qt:_ZN16MultiLineToolBar7nextTabEv
eiskaltdcpp-qt:_ZN16MultiLineToolBar7prevTabEv
eiskaltdcpp-qt:_ZN16MultiLineToolBarC1EP7QWidget
eiskaltdcpp-qt:_ZN16MultiLineToolBarC2EP7QWidget
eiskaltdcpp-qt:_ZN16MultiLineToolBarD0Ev
eiskaltdcpp-qt:_ZN16MultiLineToolBarD1Ev
eiskaltdcpp-qt:_ZN16MultiLineToolBarD2Ev
eiskaltdcpp-qt:_ZN16QueuedUsersModel11qt_metacallEN11QMetaObject4CallEiPPv
eiskaltdcpp-qt:_ZN16QueuedUsersModel11qt_metacastEPKc
eiskaltdcpp-qt:_ZN16QueuedUsersModel16staticMetaObjectE
eiskaltdcpp-qt:_ZN16QueuedUsersModel4sortEiN2Qt9SortOrderE
eiskaltdcpp-qt:_ZN16QueuedUsersModel9addResultERK4QMapI7QString8QVariantE
eiskaltdcpp-qt:_ZN16QueuedUsersModel9remResultERK4QMapI7QString8QVariantE
eiskaltdcpp-qt:_ZN16QueuedUsersModelC1EP7QObject
eiskaltdcpp-qt:_ZN16QueuedUsersModelC2EP7QObject
eiskaltdcpp-qt:_ZN16QueuedUsersModelD0Ev
eiskaltdcpp-qt:_ZN16QueuedUsersModelD1Ev
eiskaltdcpp-qt:_ZN16QueuedUsersModelD2Ev
eiskaltdcpp-qt:_ZN16SearchProxyModel11qt_metacallEN11QMetaObject4CallEiPPv
eiskaltdcpp-qt:_ZN16SearchProxyModel11qt_metacastEPKc
eiskaltdcpp-qt:_ZN16SearchProxyModel16staticMetaObjectE
eiskaltdcpp-qt:_ZN16SearchProxyModel4sortEiN2Qt9SortOrderE
eiskaltdcpp-qt:_ZN16SettingsAdvanced10slotBrowseEv
eiskaltdcpp-qt:_ZN16SettingsAdvanced11qt_metacallEN11QMetaObject4CallEiPPv
eiskaltdcpp-qt:_ZN16SettingsAdvanced11qt_metacastEPKc
eiskaltdcpp-qt:_ZN16SettingsAdvanced16staticMetaObjectE
eiskaltdcpp-qt:_ZN16SettingsAdvanced2okEv
eiskaltdcpp-qt:_ZN16SettingsAdvanced4initEv
eiskaltdcpp-qt:_ZN16SettingsAdvancedC1EP7QWidget
eiskaltdcpp-qt:_ZN16SettingsAdvancedC2EP7QWidget
eiskaltdcpp-qt:_ZN16SettingsAdvancedD0Ev
eiskaltdcpp-qt:_ZN16SettingsAdvancedD1Ev
eiskaltdcpp-qt:_ZN16SettingsAdvancedD2Ev
eiskaltdcpp-qt:_ZN16SettingsPersonal11qt_metacallEN11QMetaObject4CallEiPPv
eiskaltdcpp-qt:_ZN16SettingsPersonal11qt_metacastEPKc
eiskaltdcpp-qt:_ZN16SettingsPersonal16staticMetaObjectE
eiskaltdcpp-qt:_ZN16SettingsPersonal2okEv
eiskaltdcpp-qt:_ZN16SettingsPersonal4initEv
eiskaltdcpp-qt:_ZN16SettingsPersonalC1EP7QWidget
eiskaltdcpp-qt:_ZN16SettingsPersonalC2EP7QWidget
eiskaltdcpp-qt:_ZN16SettingsPersonalD0Ev
eiskaltdcpp-qt:_ZN16SettingsPersonalD1Ev
eiskaltdcpp-qt:_ZN16SettingsPersonalD2Ev
eiskaltdcpp-qt:_ZN16TransferViewItem11appendChildEPS_
eiskaltdcpp-qt:_ZN16TransferViewItem12updateColumnEi8QVariant
eiskaltdcpp-qt:_ZN16TransferViewItem5childEi
eiskaltdcpp-qt:_ZN16TransferViewItem6parentEv
eiskaltdcpp-qt:_ZN16TransferViewItemC1ERK5QListI8QVariantEPS_
eiskaltdcpp-qt:_ZN16TransferViewItemC2ERK5QListI8QVariantEPS_
eiskaltdcpp-qt:_ZN16TransferViewItemD0Ev
eiskaltdcpp-qt:_ZN16TransferViewItemD1Ev
eiskaltdcpp-qt:_ZN16TransferViewItemD2Ev
eiskaltdcpp-qt:_ZN17DownloadQueueItem11appendChildEPS_
eiskaltdcpp-qt:_ZN17DownloadQueueItem11nextSiblingEv
eiskaltdcpp-qt:_ZN17DownloadQueueItem12updateColumnEi8QVariant
eiskaltdcpp-qt:_ZN17DownloadQueueItem5childEi
eiskaltdcpp-qt:_ZN17DownloadQueueItem6parentEv
eiskaltdcpp-qt:_ZN17DownloadQueueItemC1ERK5QListI8QVariantEPS_
eiskaltdcpp-qt:_ZN17DownloadQueueItemC1ERKS_
eiskaltdcpp-qt:_ZN17DownloadQueueItemC2ERK5QListI8QVariantEPS_
eiskaltdcpp-qt:_ZN17DownloadQueueItemC2ERKS_
eiskaltdcpp-qt:_ZN17DownloadQueueItemD0Ev
eiskaltdcpp-qt:_ZN17DownloadQueueItemD1Ev
eiskaltdcpp-qt:_ZN17DownloadQueueItemD2Ev
eiskaltdcpp-qt:_ZN17DownloadQueueItemaSERKS_
eiskaltdcpp-qt:_ZN17FavoriteHubEditor11qt_metacallEN11QMetaObject4CallEiPPv
eiskaltdcpp-qt:_ZN17FavoriteHubEditor11qt_metacastEPKc
eiskaltdcpp-qt:_ZN17FavoriteHubEditor16staticMetaObjectE
eiskaltdcpp-qt:_ZN17IPFilterModelItem11appendChildEPS_
eiskaltdcpp-qt:_ZN17IPFilterModelItem12updateColumnEi8QVariant
eiskaltdcpp-qt:_ZN17IPFilterModelItem5childEi
eiskaltdcpp-qt:_ZN17IPFilterModelItem6parentEv
eiskaltdcpp-qt:_ZN17IPFilterModelItemC1ERK5QListI8QVariantEPS_
eiskaltdcpp-qt:_ZN17IPFilterModelItemC2ERK5QListI8QVariantEPS_
eiskaltdcpp-qt:_ZN17IPFilterModelItemD1Ev
eiskaltdcpp-qt:_ZN17IPFilterModelItemD2Ev
eiskaltdcpp-qt:_ZN17SettingsDownloads10slotBrowseEv
eiskaltdcpp-qt:_ZN17SettingsDownloads11qt_metacallEN11QMetaObject4CallEiPPv
eiskaltdcpp-qt:_ZN17SettingsDownloads11qt_metacastEPKc
eiskaltdcpp-qt:_ZN17SettingsDownloads13slotCfgPublicEv
eiskaltdcpp-qt:_ZN17SettingsDownloads14slotDownloadToEv
eiskaltdcpp-qt:_ZN17SettingsDownloads16staticMetaObjectE
eiskaltdcpp-qt:_ZN17SettingsDownloads2okEv
eiskaltdcpp-qt:_ZN17SettingsDownloads4initEv
eiskaltdcpp-qt:_ZN17SettingsDownloadsC1EP7QWidget
eiskaltdcpp-qt:_ZN17SettingsDownloadsC2EP7QWidget
eiskaltdcpp-qt:_ZN17SettingsDownloadsD0Ev
eiskaltdcpp-qt:_ZN17SettingsDownloadsD1Ev
eiskaltdcpp-qt:_ZN17SettingsDownloadsD2Ev
eiskaltdcpp-qt:_ZN17SettingsShortcuts11qt_metacallEN11QMetaObject4CallEiPPv
eiskaltdcpp-qt:_ZN17SettingsShortcuts11qt_metacastEPKc
eiskaltdcpp-qt:_ZN17SettingsShortcuts16slotIndexClickedERK11QModelIndex
eiskaltdcpp-qt:_ZN17SettingsShortcuts16staticMetaObjectE
eiskaltdcpp-qt:_ZN17SettingsShortcuts2okEv
eiskaltdcpp-qt:_ZN17SettingsShortcutsC1EP7QWidget
eiskaltdcpp-qt:_ZN17SettingsShortcutsC2EP7QWidget
eiskaltdcpp-qt:_ZN17SettingsShortcutsD0Ev
eiskaltdcpp-qt:_ZN17SettingsShortcutsD1Ev
eiskaltdcpp-qt:_ZN17SettingsShortcutsD2Ev
eiskaltdcpp-qt:_ZN17TransferViewModel10findParentERK7QStringPP16TransferViewItemb
eiskaltdcpp-qt:_ZN17TransferViewModel11qt_metacallEN11QMetaObject4CallEiPPv
eiskaltdcpp-qt:_ZN17TransferViewModel11qt_metacastEPKc
eiskaltdcpp-qt:_ZN17TransferViewModel12findTransferERK7QStringbPP16TransferViewItem
eiskaltdcpp-qt:_ZN17TransferViewModel12finishParentERK4QMapI7QString8QVariantE
eiskaltdcpp-qt:_ZN17TransferViewModel12initTransferERK4QMapI7QString8QVariantE
eiskaltdcpp-qt:_ZN17TransferViewModel12moveTransferEP16TransferViewItemS1_S1_
eiskaltdcpp-qt:_ZN17TransferViewModel12setSortOrderEN2Qt9SortOrderE
eiskaltdcpp-qt:_ZN17TransferViewModel12updateParentEP16TransferViewItem
eiskaltdcpp-qt:_ZN17TransferViewModel13addConnectionERK4QMapI7QString8QVariantE
eiskaltdcpp-qt:_ZN17TransferViewModel13setSortColumnEi
eiskaltdcpp-qt:_ZN17TransferViewModel13updateParentsEv
eiskaltdcpp-qt:_ZN17TransferViewModel14removeTransferERK4QMapI7QString8QVariantE
eiskaltdcpp-qt:_ZN17TransferViewModel14updateTransferERK4QMapI7QString8QVariantE
eiskaltdcpp-qt:_ZN17TransferViewModel16staticMetaObjectE
eiskaltdcpp-qt:_ZN17TransferViewModel17updateTransferPosERK4QMapI7QString8QVariantEx
eiskaltdcpp-qt:_ZN17TransferViewModel18createIndexForItemEP16TransferViewItem
eiskaltdcpp-qt:_ZN17TransferViewModel30getShowTranferedFilesOnlyStateEv
eiskaltdcpp-qt:_ZN17TransferViewModel30setShowTranferedFilesOnlyStateEb
eiskaltdcpp-qt:_ZN17TransferViewModel4sortEiN2Qt9SortOrderE
eiskaltdcpp-qt:_ZN17TransferViewModel5clearEv
eiskaltdcpp-qt:_ZN17TransferViewModel7repaintEv
eiskaltdcpp-qt:_ZN17TransferViewModel9getParentERK7QStringRK4QMapIS0_8QVariantE
eiskaltdcpp-qt:_ZN17TransferViewModelC1EP7QObject
eiskaltdcpp-qt:_ZN17TransferViewModelC2EP7QObject
eiskaltdcpp-qt:_ZN17TransferViewModelD0Ev
eiskaltdcpp-qt:_ZN17TransferViewModelD1Ev
eiskaltdcpp-qt:_ZN17TransferViewModelD2Ev
eiskaltdcpp-qt:_ZN18ArenaWidgetManager11qt_metacallEN11QMetaObject4CallEiPPv
eiskaltdcpp-qt:_ZN18ArenaWidgetManager11qt_metacastEPKc
eiskaltdcpp-qt:_ZN18ArenaWidgetManager16staticMetaObjectE
eiskaltdcpp-qt:_ZN18ArenaWidgetManager3addEP11ArenaWidget
eiskaltdcpp-qt:_ZN18ArenaWidgetManager3remEP11ArenaWidget
eiskaltdcpp-qt:_ZN18ArenaWidgetManager5addedEP11ArenaWidget
eiskaltdcpp-qt:_ZN18ArenaWidgetManager6toggleEP11ArenaWidget
eiskaltdcpp-qt:_ZN18ArenaWidgetManager7removedEP11ArenaWidget
eiskaltdcpp-qt:_ZN18ArenaWidgetManager7toggledEP11ArenaWidget
eiskaltdcpp-qt:_ZN18ArenaWidgetManager7updatedEP11ArenaWidget
eiskaltdcpp-qt:_ZN18ArenaWidgetManager8activateEP11ArenaWidget
eiskaltdcpp-qt:_ZN18ArenaWidgetManager9activatedEP11ArenaWidget
eiskaltdcpp-qt:_ZN18ArenaWidgetManagerC1Ev
eiskaltdcpp-qt:_ZN18ArenaWidgetManagerC2Ev
eiskaltdcpp-qt:_ZN18ArenaWidgetManagerD0Ev
eiskaltdcpp-qt:_ZN18ArenaWidgetManagerD1Ev
eiskaltdcpp-qt:_ZN18ArenaWidgetManagerD2Ev
eiskaltdcpp-qt:_ZN18DownloadQueueModel10createPathERK7QString
eiskaltdcpp-qt:_ZN18DownloadQueueModel10findTargetEPK17DownloadQueueItemRK7QString
eiskaltdcpp-qt:_ZN18DownloadQueueModel10needExpandERK11QModelIndex
eiskaltdcpp-qt:_ZN18DownloadQueueModel10rowRemovedERK11QModelIndex
eiskaltdcpp-qt:_ZN18DownloadQueueModel11qt_metacallEN11QMetaObject4CallEiPPv
eiskaltdcpp-qt:_ZN18DownloadQueueModel11qt_metacastEPKc
eiskaltdcpp-qt:_ZN18DownloadQueueModel11updateStatsEyy
eiskaltdcpp-qt:_ZN18DownloadQueueModel12setSortOrderEN2Qt9SortOrderE
eiskaltdcpp-qt:_ZN18DownloadQueueModel13setSortColumnEi
eiskaltdcpp-qt:_ZN18DownloadQueueModel14setIconsScaledEbRK5QSize
eiskaltdcpp-qt:_ZN18DownloadQueueModel16staticMetaObjectE
eiskaltdcpp-qt:_ZN18DownloadQueueModel18createIndexForItemEP17DownloadQueueItem
eiskaltdcpp-qt:_ZN18DownloadQueueModel4sortEiN2Qt9SortOrderE
eiskaltdcpp-qt:_ZN18DownloadQueueModel5clearEv
eiskaltdcpp-qt:_ZN18DownloadQueueModel7addItemERK4QMapI7QString8QVariantE
eiskaltdcpp-qt:_ZN18DownloadQueueModel7remItemERK4QMapI7QString8QVariantE
eiskaltdcpp-qt:_ZN18DownloadQueueModel7repaintEv
eiskaltdcpp-qt:_ZN18DownloadQueueModel7updItemERK4QMapI7QString8QVariantE
eiskaltdcpp-qt:_ZN18DownloadQueueModelC1EP7QObject
eiskaltdcpp-qt:_ZN18DownloadQueueModelC2EP7QObject
eiskaltdcpp-qt:_ZN18DownloadQueueModelD0Ev
eiskaltdcpp-qt:_ZN18DownloadQueueModelD1Ev
eiskaltdcpp-qt:_ZN18DownloadQueueModelD2Ev
eiskaltdcpp-qt:_ZN18EiskaltEventFilter11qt_metacallEN11QMetaObject4CallEiPPv
eiskaltdcpp-qt:_ZN18EiskaltEventFilter11qt_metacastEPKc
eiskaltdcpp-qt:_ZN18EiskaltEventFilter16staticMetaObjectE
eiskaltdcpp-qt:_ZN18FavoriteUsersModel10removeUserERK7QString
eiskaltdcpp-qt:_ZN18FavoriteUsersModel11qt_metacallEN11QMetaObject4CallEiPPv
eiskaltdcpp-qt:_ZN18FavoriteUsersModel11qt_metacastEPKc
eiskaltdcpp-qt:_ZN18FavoriteUsersModel16staticMetaObjectE
eiskaltdcpp-qt:_ZN18FavoriteUsersModel16updateUserStatusERK7QStringS2_S2_
eiskaltdcpp-qt:_ZN18FavoriteUsersModel4sortEiN2Qt9SortOrderE
eiskaltdcpp-qt:_ZN18FavoriteUsersModel7addUserERK4QMapI7QString8QVariantE
eiskaltdcpp-qt:_ZN18FavoriteUsersModel7repaintEv
eiskaltdcpp-qt:_ZN18FavoriteUsersModelC1EP7QObject
eiskaltdcpp-qt:_ZN18FavoriteUsersModelC2EP7QObject
eiskaltdcpp-qt:_ZN18FavoriteUsersModelD0Ev
eiskaltdcpp-qt:_ZN18FavoriteUsersModelD1Ev
eiskaltdcpp-qt:_ZN18FavoriteUsersModelD2Ev
eiskaltdcpp-qt:_ZN18SettingsConnection10validateIpER7QString
eiskaltdcpp-qt:_ZN18SettingsConnection11eventFilterEP7QObjectP6QEvent
eiskaltdcpp-qt:_ZN18SettingsConnection11qt_metacallEN11QMetaObject4CallEiPPv
eiskaltdcpp-qt:_ZN18SettingsConnection11qt_metacastEPKc
eiskaltdcpp-qt:_ZN18SettingsConnection16staticMetaObjectE
eiskaltdcpp-qt:_ZN18SettingsConnection18slotToggleOutgoingEv
eiskaltdcpp-qt:_ZN18SettingsConnection19slotToggleIncommingEv
eiskaltdcpp-qt:_ZN18SettingsConnection2okEv
eiskaltdcpp-qt:_ZN18SettingsConnection4initEv
eiskaltdcpp-qt:_ZN18SettingsConnection7showMsgE7QStringP7QWidget
eiskaltdcpp-qt:_ZN18SettingsConnectionC1EP7QWidget
eiskaltdcpp-qt:_ZN18SettingsConnectionC2EP7QWidget
eiskaltdcpp-qt:_ZN18ShareBrowserSearch10closeEventEP11QCloseEvent
eiskaltdcpp-qt:_ZN18ShareBrowserSearch11findMatchesEP15FileBrowserItem
eiskaltdcpp-qt:_ZN18ShareBrowserSearch11qt_metacallEN11QMetaObject4CallEiPPv
eiskaltdcpp-qt:_ZN18ShareBrowserSearch11qt_metacastEPKc
eiskaltdcpp-qt:_ZN18ShareBrowserSearch11slotGotItemE7QStringP15FileBrowserItem
eiskaltdcpp-qt:_ZN18ShareBrowserSearch12indexClickedEP15FileBrowserItem
eiskaltdcpp-qt:_ZN18ShareBrowserSearch13setSearchRootEP15FileBrowserItem
eiskaltdcpp-qt:_ZN18ShareBrowserSearch15slotStartSearchEv
eiskaltdcpp-qt:_ZN18ShareBrowserSearch16staticMetaObjectE
eiskaltdcpp-qt:_ZN18ShareBrowserSearch17slotItemActivatedEP15QTreeWidgetItemi
eiskaltdcpp-qt:_ZN18ShareBrowserSearch7gotItemE7QStringP15FileBrowserItem
eiskaltdcpp-qt:_ZN18ShareBrowserSearchC1EP16FileBrowserModelP7QWidget
eiskaltdcpp-qt:_ZN18ShareBrowserSearchC2EP16FileBrowserModelP7QWidget
eiskaltdcpp-qt:_ZN18ShareBrowserSearchD0Ev
eiskaltdcpp-qt:_ZN18ShareBrowserSearchD1Ev
eiskaltdcpp-qt:_ZN18ShareBrowserSearchD2Ev
eiskaltdcpp-qt:_ZN18ShellCommandRunner11qt_metacallEN11QMetaObject4CallEiPPv
eiskaltdcpp-qt:_ZN18ShellCommandRunner11qt_metacastEPKc
eiskaltdcpp-qt:_ZN18ShellCommandRunner16staticMetaObjectE
eiskaltdcpp-qt:_ZN18ShellCommandRunner3runEv
eiskaltdcpp-qt:_ZN18ShellCommandRunner6cancelEv
eiskaltdcpp-qt:_ZN18ShellCommandRunner8finishedEbRK7QString
eiskaltdcpp-qt:_ZN18ShellCommandRunnerC1ERK7QStringP7QObject
eiskaltdcpp-qt:_ZN18ShellCommandRunnerC1ERK7QStringRK11QStringListP7QObject
eiskaltdcpp-qt:_ZN18ShellCommandRunnerC2ERK7QStringP7QObject
eiskaltdcpp-qt:_ZN18ShellCommandRunnerC2ERK7QStringRK11QStringListP7QObject
eiskaltdcpp-qt:_ZN18ShellCommandRunnerD0Ev
eiskaltdcpp-qt:_ZN18ShellCommandRunnerD1Ev
eiskaltdcpp-qt:_ZN18ShellCommandRunnerD2Ev
eiskaltdcpp-qt:_ZN18UserListProxyModel11qt_metacallEN11QMetaObject4CallEiPPv
eiskaltdcpp-qt:_ZN18UserListProxyModel11qt_metacastEPKc
eiskaltdcpp-qt:_ZN18UserListProxyModel16staticMetaObjectE
eiskaltdcpp-qt:_ZN18UserListProxyModel4sortEiN2Qt9SortOrderE
eiskaltdcpp-qt:_ZN19AutoToolTipDelegate11qt_metacallEN11QMetaObject4CallEiPPv
eiskaltdcpp-qt:_ZN19AutoToolTipDelegate11qt_metacastEPKc
eiskaltdcpp-qt:_ZN19AutoToolTipDelegate16staticMetaObjectE
eiskaltdcpp-qt:_ZN19AutoToolTipDelegate9helpEventEP10QHelpEventP17QAbstractItemViewRK20QStyleOptionViewItemRK11QModelIndex
eiskaltdcpp-qt:_ZN19AutoToolTipDelegateC1EP7QObject
eiskaltdcpp-qt:_ZN19AutoToolTipDelegateC2EP7QObject
eiskaltdcpp-qt:_ZN19AutoToolTipDelegateD0Ev
eiskaltdcpp-qt:_ZN19AutoToolTipDelegateD1Ev
eiskaltdcpp-qt:_ZN19AutoToolTipDelegateD2Ev
eiskaltdcpp-qt:_ZN19NickCompletionModel11qt_metacallEN11QMetaObject4CallEiPPv
eiskaltdcpp-qt:_ZN19NickCompletionModel11qt_metacastEPKc
eiskaltdcpp-qt:_ZN19NickCompletionModel16staticMetaObjectE
eiskaltdcpp-qt:_ZN19PublicHubProxyModel11qt_metacallEN11QMetaObject4CallEiPPv
eiskaltdcpp-qt:_ZN19PublicHubProxyModel11qt_metacastEPKc
eiskaltdcpp-qt:_ZN19PublicHubProxyModel16staticMetaObjectE
eiskaltdcpp-qt:_ZN19PublicHubProxyModel4sortEiN2Qt9SortOrderE
eiskaltdcpp-qt:_ZN19SearchBlackListItem11appendChildEPS_
eiskaltdcpp-qt:_ZN19SearchBlackListItem5childEi
eiskaltdcpp-qt:_ZN19SearchBlackListItem6parentEv
eiskaltdcpp-qt:_ZN19SearchBlackListItemC1EPS_
eiskaltdcpp-qt:_ZN19SearchBlackListItemC2EPS_
eiskaltdcpp-qt:_ZN19SearchBlackListItemD0Ev
eiskaltdcpp-qt:_ZN19SearchBlackListItemD1Ev
eiskaltdcpp-qt:_ZN19SearchBlackListItemD2Ev
eiskaltdcpp-qt:_ZN19SearchListExceptionC1ERK7QStringNS_4TypeE
eiskaltdcpp-qt:_ZN19SearchListExceptionC1ERKS_
eiskaltdcpp-qt:_ZN19SearchListExceptionC1Ev
eiskaltdcpp-qt:_ZN19SearchListExceptionC2ERK7QStringNS_4TypeE
eiskaltdcpp-qt:_ZN19SearchListExceptionC2ERKS_
eiskaltdcpp-qt:_ZN19SearchListExceptionC2Ev
eiskaltdcpp-qt:_ZN19SearchListExceptionD0Ev
eiskaltdcpp-qt:_ZN19SearchListExceptionD1Ev
eiskaltdcpp-qt:_ZN19SearchListExceptionD2Ev
eiskaltdcpp-qt:_ZN19SearchListExceptionaSERKS_
eiskaltdcpp-qt:_ZN20SearchBlackListModel11qt_metacallEN11QMetaObject4CallEiPPv
eiskaltdcpp-qt:_ZN20SearchBlackListModel11qt_metacastEPKc
eiskaltdcpp-qt:_ZN20SearchBlackListModel12addEmptyItemEv
eiskaltdcpp-qt:_ZN20SearchBlackListModel13setSortColumnEi
eiskaltdcpp-qt:_ZN20SearchBlackListModel16staticMetaObjectE
eiskaltdcpp-qt:_ZN20SearchBlackListModel4saveEv
eiskaltdcpp-qt:_ZN20SearchBlackListModel4sortEiN2Qt9SortOrderE
eiskaltdcpp-qt:_ZN20SearchBlackListModelC1EP7QObject
eiskaltdcpp-qt:_ZN20SearchBlackListModelC2EP7QObject
eiskaltdcpp-qt:_ZN20SearchBlackListModelD0Ev
eiskaltdcpp-qt:_ZN20SearchBlackListModelD1Ev
eiskaltdcpp-qt:_ZN20SearchBlackListModelD2Ev
eiskaltdcpp-qt:_ZN20SettingsNotification11qt_metacallEN11QMetaObject4CallEiPPv
eiskaltdcpp-qt:_ZN20SettingsNotification11qt_metacastEPKc
eiskaltdcpp-qt:_ZN20SettingsNotification14slotBrowseFileEv
eiskaltdcpp-qt:_ZN20SettingsNotification15slotCmdFinishedEb7QString
eiskaltdcpp-qt:_ZN20SettingsNotification16slotToggleSndCmdEb
eiskaltdcpp-qt:_ZN20SettingsNotification16staticMetaObjectE
eiskaltdcpp-qt:_ZN20SettingsNotification2okEv
eiskaltdcpp-qt:_ZN20SettingsNotification4initEv
eiskaltdcpp-qt:_ZN20SettingsNotification8playFileERK7QString
eiskaltdcpp-qt:_ZN20SettingsNotification8slotTestEv
eiskaltdcpp-qt:_ZN20SettingsNotificationC1EP7QWidget
eiskaltdcpp-qt:_ZN20SettingsNotificationC2EP7QWidget
eiskaltdcpp-qt:_ZN20TransferViewDelegate11qt_metacallEN11QMetaObject4CallEiPPv
eiskaltdcpp-qt:_ZN20TransferViewDelegate11qt_metacastEPKc
eiskaltdcpp-qt:_ZN20TransferViewDelegate16staticMetaObjectE
eiskaltdcpp-qt:_ZN20TransferViewDelegate17wsVarValueChangedERK7QStringRK8QVariant
eiskaltdcpp-qt:_ZN20TransferViewDelegateC1EP7QObject
eiskaltdcpp-qt:_ZN20TransferViewDelegateC2EP7QObject
eiskaltdcpp-qt:_ZN20TransferViewDelegateD0Ev
eiskaltdcpp-qt:_ZN20TransferViewDelegateD1Ev
eiskaltdcpp-qt:_ZN20TransferViewDelegateD2Ev
eiskaltdcpp-qt:_ZN21DownloadQueueDelegate11qt_metacallEN11QMetaObject4CallEiPPv
eiskaltdcpp-qt:_ZN21DownloadQueueDelegate11qt_metacastEPKc
eiskaltdcpp-qt:_ZN21DownloadQueueDelegate16staticMetaObjectE
eiskaltdcpp-qt:_ZN21DownloadQueueDelegateC1EP7QObject
eiskaltdcpp-qt:_ZN21DownloadQueueDelegateC2EP7QObject
eiskaltdcpp-qt:_ZN21DownloadQueueDelegateD0Ev
eiskaltdcpp-qt:_ZN21DownloadQueueDelegateD1Ev
eiskaltdcpp-qt:_ZN21DownloadQueueDelegateD2Ev
eiskaltdcpp-qt:_ZN21FinishedTransferProxy11qt_metacallEN11QMetaObject4CallEiPPv
eiskaltdcpp-qt:_ZN21FinishedTransferProxy11qt_metacastEPKc
eiskaltdcpp-qt:_ZN21FinishedTransferProxy11uploadTitleEv
eiskaltdcpp-qt:_ZN21FinishedTransferProxy13coreAddedFileERK4QMapI7QString8QVariantE
eiskaltdcpp-qt:_ZN21FinishedTransferProxy13coreAddedUserERK4QMapI7QString8QVariantE
eiskaltdcpp-qt:_ZN21FinishedTransferProxy13downloadTitleEv
eiskaltdcpp-qt:_ZN21FinishedTransferProxy15coreRemovedFileERK7QString
eiskaltdcpp-qt:_ZN21FinishedTransferProxy15coreRemovedUserERK7QString
eiskaltdcpp-qt:_ZN21FinishedTransferProxy15coreUpdatedFileERK4QMapI7QString8QVariantE
eiskaltdcpp-qt:_ZN21FinishedTransferProxy15coreUpdatedUserERK4QMapI7QString8QVariantE
eiskaltdcpp-qt:_ZN21FinishedTransferProxy16staticMetaObjectE
eiskaltdcpp-qt:_ZN21FinishedTransfersItem11appendChildEPS_
eiskaltdcpp-qt:_ZN21FinishedTransfersItem12updateColumnEi8QVariant
eiskaltdcpp-qt:_ZN21FinishedTransfersItem5childEi
eiskaltdcpp-qt:_ZN21FinishedTransfersItemC1ERK5QListI8QVariantEPS_
eiskaltdcpp-qt:_ZN21FinishedTransfersItemC2ERK5QListI8QVariantEPS_
eiskaltdcpp-qt:_ZN21FinishedTransfersItemD1Ev
eiskaltdcpp-qt:_ZN21FinishedTransfersItemD2Ev
eiskaltdcpp-qt:_ZN21SearchBlackListDialog11qt_metacallEN11QMetaObject4CallEiPPv
eiskaltdcpp-qt:_ZN21SearchBlackListDialog11qt_metacastEPKc
eiskaltdcpp-qt:_ZN21SearchBlackListDialog11resizeEventEP12QResizeEvent
eiskaltdcpp-qt:_ZN21SearchBlackListDialog15slotContextMenuEv
eiskaltdcpp-qt:_ZN21SearchBlackListDialog16staticMetaObjectE
eiskaltdcpp-qt:_ZN21SearchBlackListDialog2okEv
eiskaltdcpp-qt:_ZN21SearchBlackListDialogC1EP7QWidget
eiskaltdcpp-qt:_ZN21SearchBlackListDialogC2EP7QWidget
eiskaltdcpp-qt:_ZN21SearchBlackListDialogD0Ev
eiskaltdcpp-qt:_ZN21SearchBlackListDialogD1Ev
eiskaltdcpp-qt:_ZN21SearchBlackListDialogD2Ev
eiskaltdcpp-qt:_ZN21SearchStringListModel7setDataERK11QModelIndexRK8QVarianti
eiskaltdcpp-qt:_ZN22FinishedTransfersModel10clearModelEv
eiskaltdcpp-qt:_ZN22FinishedTransfersModel11qt_metacallEN11QMetaObject4CallEiPPv
eiskaltdcpp-qt:_ZN22FinishedTransfersModel11qt_metacastEPKc
eiskaltdcpp-qt:_ZN22FinishedTransfersModel14switchViewTypeENS_8ViewTypeE
eiskaltdcpp-qt:_ZN22FinishedTransfersModel16staticMetaObjectE
eiskaltdcpp-qt:_ZN22FinishedTransfersModel4sortEiN2Qt9SortOrderE
eiskaltdcpp-qt:_ZN22FinishedTransfersModel7addFileERK4QMapI7QString8QVariantE
eiskaltdcpp-qt:_ZN22FinishedTransfersModel7addUserERK4QMapI7QString8QVariantE
eiskaltdcpp-qt:_ZN22FinishedTransfersModel7remFileERK7QString
eiskaltdcpp-qt:_ZN22FinishedTransfersModel7remUserERK7QString
eiskaltdcpp-qt:_ZN22FinishedTransfersModel7repaintEv
eiskaltdcpp-qt:_ZN22FinishedTransfersModel8findFileERK7QString
eiskaltdcpp-qt:_ZN22FinishedTransfersModel8findUserERK7QString
eiskaltdcpp-qt:_ZN22FinishedTransfersModelC1EP7QObject
eiskaltdcpp-qt:_ZN22FinishedTransfersModelC2EP7QObject
eiskaltdcpp-qt:_ZN22FinishedTransfersModelD0Ev
eiskaltdcpp-qt:_ZN22FinishedTransfersModelD1Ev
eiskaltdcpp-qt:_ZN22FinishedTransfersModelD2Ev
eiskaltdcpp-qt:_ZN23QtSingleCoreApplication11qt_metacallEN11QMetaObject4CallEiPPv
eiskaltdcpp-qt:_ZN23QtSingleCoreApplication11qt_metacastEPKc
eiskaltdcpp-qt:_ZN23QtSingleCoreApplication11sendMessageE7QString
eiskaltdcpp-qt:_ZN23QtSingleCoreApplication15checkForMessageEv
eiskaltdcpp-qt:_ZN23QtSingleCoreApplication15messageReceivedERK7QString
eiskaltdcpp-qt:_ZN23QtSingleCoreApplication16staticMetaObjectE
eiskaltdcpp-qt:_ZN23QtSingleCoreApplication9isRunningEv
eiskaltdcpp-qt:_ZN23QtSingleCoreApplicationC1ERiPPcRK7QString
eiskaltdcpp-qt:_ZN23QtSingleCoreApplicationC2ERiPPcRK7QString
eiskaltdcpp-qt:_ZN23QtSingleCoreApplicationD0Ev
eiskaltdcpp-qt:_ZN23QtSingleCoreApplicationD1Ev
eiskaltdcpp-qt:_ZN23QtSingleCoreApplicationD2Ev
eiskaltdcpp-qt:_ZN23SearchBlackListDelegate11qt_metacallEN11QMetaObject4CallEiPPv
eiskaltdcpp-qt:_ZN23SearchBlackListDelegate11qt_metacastEPKc
eiskaltdcpp-qt:_ZN23SearchBlackListDelegate16staticMetaObjectE
eiskaltdcpp-qt:_ZN23SearchBlackListDelegateC1EP7QObject
eiskaltdcpp-qt:_ZN23SearchBlackListDelegateC2EP7QObject
eiskaltdcpp-qt:_ZN23SearchBlackListDelegateD0Ev
eiskaltdcpp-qt:_ZN23SearchBlackListDelegateD1Ev
eiskaltdcpp-qt:_ZN23SearchBlackListDelegateD2Ev
eiskaltdcpp-qt:_ZN26FinishedTransferProxyModel11qt_metacallEN11QMetaObject4CallEiPPv
eiskaltdcpp-qt:_ZN26FinishedTransferProxyModel11qt_metacastEPKc
eiskaltdcpp-qt:_ZN26FinishedTransferProxyModel16staticMetaObjectE
eiskaltdcpp-qt:_ZN4ADLS10closeEventEP11QCloseEvent
eiskaltdcpp-qt:_ZN4ADLS10initEditorER10ADLSEditor
eiskaltdcpp-qt:_ZN4ADLS10initEditorER10ADLSEditorR4QMapI7QString8QVariantE
eiskaltdcpp-qt:_ZN4ADLS10updateItemEP8ADLSItemR4QMapI7QString8QVariantE
eiskaltdcpp-qt:_ZN4ADLS11qt_metacallEN11QMetaObject4CallEiPPv
eiskaltdcpp-qt:_ZN4ADLS11qt_metacastEPKc
eiskaltdcpp-qt:_ZN4ADLS11slotClickedERK11QModelIndex
eiskaltdcpp-qt:_ZN4ADLS11updateEntryERN4dcpp9ADLSearchER4QMapI7QString8QVariantE
eiskaltdcpp-qt:_ZN4ADLS13getArenaTitleEv
eiskaltdcpp-qt:_ZN4ADLS14slotContexMenuERK6QPoint
eiskaltdcpp-qt:_ZN4ADLS14slotDblClickedEv
eiskaltdcpp-qt:_ZN4ADLS14slotHeaderMenuEv
eiskaltdcpp-qt:_ZN4ADLS16SizeTypeToStringEN4dcpp9ADLSearch8SizeTypeE
eiskaltdcpp-qt:_ZN4ADLS16staticMetaObjectE
eiskaltdcpp-qt:_ZN4ADLS18SourceTypeToStringEN4dcpp9ADLSearch10SourceTypeE
eiskaltdcpp-qt:_ZN4ADLS18getArenaShortTitleEv
eiskaltdcpp-qt:_ZN4ADLS19slotSettingsChangedERK7QStringS2_
eiskaltdcpp-qt:_ZN4ADLS19slotUpButtonClickedEv
eiskaltdcpp-qt:_ZN4ADLS21slotDownButtonClickedEv
eiskaltdcpp-qt:_ZN4ADLS23slotChangeButtonClickedEv
eiskaltdcpp-qt:_ZN4ADLS23slotRemoveButtonClickedEv
eiskaltdcpp-qt:_ZN4ADLS24slotAdd_newButtonClickedEv
eiskaltdcpp-qt:_ZN4ADLS4initEv
eiskaltdcpp-qt:_ZN4ADLS4loadEv
eiskaltdcpp-qt:_ZN4ADLS4saveEv
eiskaltdcpp-qt:_ZN4ADLS7addItemERKN4dcpp9ADLSearchE
eiskaltdcpp-qt:_ZN4ADLS7getItemEv
eiskaltdcpp-qt:_ZN4ADLS7getMenuEv
eiskaltdcpp-qt:_ZN4ADLS9findEntryER4QMapI7QString8QVariantE
eiskaltdcpp-qt:_ZN4ADLS9getParamsERK10ADLSEditorR4QMapI7QString8QVariantE
eiskaltdcpp-qt:_ZN4ADLS9getParamsERN4dcpp9ADLSearchER4QMapI7QString8QVariantE
eiskaltdcpp-qt:_ZN4ADLS9getWidgetEv
eiskaltdcpp-qt:_ZN4ADLSC1EP7QWidget
eiskaltdcpp-qt:_ZN4ADLSC2EP7QWidget
eiskaltdcpp-qt:_ZN4ADLSD0Ev
eiskaltdcpp-qt:_ZN4ADLSD1Ev
eiskaltdcpp-qt:_ZN4ADLSD2Ev
eiskaltdcpp-qt:_ZN4dcpp6magnet8parseUriERKNSt7__cxx1112basic_stringIcSt11char_traitsIcESaIcEEERSt13unordered_mapIS6_S6_St4hashIS6_ESt8equal_toIS6_ESaISt4pairIS7_S6_EEE
eiskaltdcpp-qt:_ZN5About11qt_metacallEN11QMetaObject4CallEiPPv
eiskaltdcpp-qt:_ZN5About11qt_metacastEPKc
eiskaltdcpp-qt:_ZN5About16staticMetaObjectE
eiskaltdcpp-qt:_ZN6Magnet10searchFileERK7QString
eiskaltdcpp-qt:_ZN6Magnet10slotBrowseEv
eiskaltdcpp-qt:_ZN6Magnet11qt_metacallEN11QMetaObject4CallEiPPv
eiskaltdcpp-qt:_ZN6Magnet11qt_metacastEPKc
eiskaltdcpp-qt:_ZN6Magnet14saveWindowSizeEv
eiskaltdcpp-qt:_ZN6Magnet14slotCopyMagnetEv
eiskaltdcpp-qt:_ZN6Magnet16staticMetaObjectE
eiskaltdcpp-qt:_ZN6Magnet20slotCopySearchStringEv
eiskaltdcpp-qt:_ZN6Magnet4execEv
eiskaltdcpp-qt:_ZN6Magnet6searchERK7QStringRKyS2_
eiskaltdcpp-qt:_ZN6Magnet6searchEv
eiskaltdcpp-qt:_ZN6Magnet6showUIERK7QStringRKyS2_
eiskaltdcpp-qt:_ZN6Magnet7setLinkERK7QString
eiskaltdcpp-qt:_ZN6Magnet7setLinkERK7QStringNS_12MagnetActionE
eiskaltdcpp-qt:_ZN6Magnet8downloadERK7QStringRKyS2_
eiskaltdcpp-qt:_ZN6Magnet8downloadEv
eiskaltdcpp-qt:_ZN6Magnet9searchTTHERK7QString
eiskaltdcpp-qt:_ZN6MagnetC1EP7QWidget
eiskaltdcpp-qt:_ZN6MagnetC2EP7QWidget
eiskaltdcpp-qt:_ZN6MagnetD0Ev
eiskaltdcpp-qt:_ZN6MagnetD1Ev
eiskaltdcpp-qt:_ZN6MagnetD2Ev
eiskaltdcpp-qt:_ZN6UCItem11appendChildEPS_
eiskaltdcpp-qt:_ZN6UCItem5childEi
eiskaltdcpp-qt:_ZN6UCItem6parentEv
eiskaltdcpp-qt:_ZN6UCItemC1EPS_
eiskaltdcpp-qt:_ZN6UCItemC2EPS_
eiskaltdcpp-qt:_ZN6UCItemD1Ev
eiskaltdcpp-qt:_ZN6UCItemD2Ev
eiskaltdcpp-qt:_ZN7SpyItem11appendChildEPS_
eiskaltdcpp-qt:_ZN7SpyItem11insertChildEPS_i
eiskaltdcpp-qt:_ZN7SpyItem5childEi
eiskaltdcpp-qt:_ZN7SpyItem6moveUpEPS_
eiskaltdcpp-qt:_ZN7SpyItemC1ERK5QListI8QVariantEPS_
eiskaltdcpp-qt:_ZN7SpyItemC2ERK5QListI8QVariantEPS_
eiskaltdcpp-qt:_ZN7SpyItemD1Ev
eiskaltdcpp-qt:_ZN7SpyItemD2Ev
eiskaltdcpp-qt:_ZN7ToolBar11eventFilterEP7QObjectP6QEvent
eiskaltdcpp-qt:_ZN7ToolBar11qt_metacallEN11QMetaObject4CallEiPPv
eiskaltdcpp-qt:_ZN7ToolBar11qt_metacastEPKc
eiskaltdcpp-qt:_ZN7ToolBar12insertWidgetEP11ArenaWidget
eiskaltdcpp-qt:_ZN7ToolBar12removeWidgetEP11ArenaWidget
eiskaltdcpp-qt:_ZN7ToolBar12slotShorcutsEv
eiskaltdcpp-qt:_ZN7ToolBar12slotTabMovedEii
eiskaltdcpp-qt:_ZN7ToolBar14rebuildIndexesEi
eiskaltdcpp-qt:_ZN7ToolBar14widgetInsertedEP11ArenaWidget
eiskaltdcpp-qt:_ZN7ToolBar15slotContextMenuERK6QPoint
eiskaltdcpp-qt:_ZN7ToolBar16slotIndexChangedEi
eiskaltdcpp-qt:_ZN7ToolBar16staticMetaObjectE
eiskaltdcpp-qt:_ZN7ToolBar18findWidgetForIndexEi
eiskaltdcpp-qt:_ZN7ToolBar6mappedEP11ArenaWidget
eiskaltdcpp-qt:_ZN7ToolBar6redrawEv
eiskaltdcpp-qt:_ZN7ToolBar7nextTabEv
eiskaltdcpp-qt:_ZN7ToolBar7prevTabEv
eiskaltdcpp-qt:_ZN7ToolBar7toggledEP11ArenaWidget
eiskaltdcpp-qt:_ZN7ToolBar7updatedEP11ArenaWidget
eiskaltdcpp-qt:_ZN7ToolBar8initTabsEv
eiskaltdcpp-qt:_ZN7ToolBar9mapWidgetEP11ArenaWidget
eiskaltdcpp-qt:_ZN7ToolBar9showEventEP10QShowEvent
eiskaltdcpp-qt:_ZN7ToolBar9slotCloseEi
eiskaltdcpp-qt:_ZN7ToolBarC1EP7QWidget
eiskaltdcpp-qt:_ZN7ToolBarC2EP7QWidget
eiskaltdcpp-qt:_ZN7ToolBarD0Ev
eiskaltdcpp-qt:_ZN7ToolBarD1Ev
eiskaltdcpp-qt:_ZN7ToolBarD2Ev
eiskaltdcpp-qt:_ZN7UCModel11qt_metacallEN11QMetaObject4CallEiPPv
eiskaltdcpp-qt:_ZN7UCModel11qt_metacastEPKc
eiskaltdcpp-qt:_ZN7UCModel11selectIndexERK11QModelIndex
eiskaltdcpp-qt:_ZN7UCModel15initDlgFromItemER8UCDialogRK6UCItem
eiskaltdcpp-qt:_ZN7UCModel16staticMetaObjectE
eiskaltdcpp-qt:_ZN7UCModel4sortEiN2Qt9SortOrderE
eiskaltdcpp-qt:_ZN7UCModel5addUCERKN4dcpp11UserCommandE
eiskaltdcpp-qt:_ZN7UCModel5newUCEv
eiskaltdcpp-qt:_ZN7UCModel5remUCERK11QModelIndex
eiskaltdcpp-qt:_ZN7UCModel6loadUCEv
eiskaltdcpp-qt:_ZN7UCModel6moveUpERK11QModelIndex
eiskaltdcpp-qt:_ZN7UCModel8changeUCERK11QModelIndex
eiskaltdcpp-qt:_ZN7UCModel8moveDownERK11QModelIndex
eiskaltdcpp-qt:_ZN7UCModelC1EP7QObject
eiskaltdcpp-qt:_ZN7UCModelC2EP7QObject
eiskaltdcpp-qt:_ZN7UCModelD0Ev
eiskaltdcpp-qt:_ZN7UCModelD1Ev
eiskaltdcpp-qt:_ZN7UCModelD2Ev
eiskaltdcpp-qt:_ZN8ADLSItem11appendChildEPS_
eiskaltdcpp-qt:_ZN8ADLSItem12updateColumnEiRK8QVariant
eiskaltdcpp-qt:_ZN8ADLSItem5childEi
eiskaltdcpp-qt:_ZN8ADLSItem6parentEv
eiskaltdcpp-qt:_ZN8ADLSItemC1ERK5QListI8QVariantEPS_
eiskaltdcpp-qt:_ZN8ADLSItemC2ERK5QListI8QVariantEPS_
eiskaltdcpp-qt:_ZN8ADLSItemD1Ev
eiskaltdcpp-qt:_ZN8ADLSItemD2Ev
eiskaltdcpp-qt:_ZN8AntiSpam10addToBlackERK5QListI7QStringE
eiskaltdcpp-qt:_ZN8AntiSpam10addToWhiteERK5QListI7QStringE
eiskaltdcpp-qt:_ZN8AntiSpam10clearBlackEv
eiskaltdcpp-qt:_ZN8AntiSpam10clearWhiteEv
eiskaltdcpp-qt:_ZN8AntiSpam11qt_metacallEN11QMetaObject4CallEiPPv
eiskaltdcpp-qt:_ZN8AntiSpam11qt_metacastEPKc
eiskaltdcpp-qt:_ZN8AntiSpam11remFromGrayERK5QListI7QStringE
eiskaltdcpp-qt:_ZN8AntiSpam11setAttemptsEi
eiskaltdcpp-qt:_ZN8AntiSpam12loadSettingsEv
eiskaltdcpp-qt:_ZN8AntiSpam12remFromBlackERK5QListI7QStringE
eiskaltdcpp-qt:_ZN8AntiSpam12remFromWhiteERK5QListI7QStringE
eiskaltdcpp-qt:_ZN8AntiSpam12saveSettingsEv
eiskaltdcpp-qt:_ZN8AntiSpam16staticMetaObjectE
eiskaltdcpp-qt:_ZN8AntiSpam21slotObjectChangeStateE7QString19AntiSpamObjectStateS1_
eiskaltdcpp-qt:_ZN8AntiSpam4moveERK7QString19AntiSpamObjectState
eiskaltdcpp-qt:_ZN8AntiSpam7getGrayEv
eiskaltdcpp-qt:_ZN8AntiSpam7getKeysEv
eiskaltdcpp-qt:_ZN8AntiSpam7setKeysERK5QListI7QStringE
eiskaltdcpp-qt:_ZN8AntiSpam8clearAllEv
eiskaltdcpp-qt:_ZN8AntiSpam8getBlackEv
eiskaltdcpp-qt:_ZN8AntiSpam8getWhiteEv
eiskaltdcpp-qt:_ZN8AntiSpam8loadGrayEv
eiskaltdcpp-qt:_ZN8AntiSpam8readFileERK7QStringR5QListIS0_E
eiskaltdcpp-qt:_ZN8AntiSpam8saveFileERK7QStringR5QListIS0_E
eiskaltdcpp-qt:_ZN8AntiSpam8saveGrayEv
eiskaltdcpp-qt:_ZN8AntiSpam9addToGrayERK5QListI7QStringE
eiskaltdcpp-qt:_ZN8AntiSpam9checkUserERK7QStringS2_S2_
eiskaltdcpp-qt:_ZN8AntiSpam9clearGrayEv
eiskaltdcpp-qt:_ZN8AntiSpam9loadBlackEv
eiskaltdcpp-qt:_ZN8AntiSpam9loadListsEv
eiskaltdcpp-qt:_ZN8AntiSpam9loadWhiteEv
eiskaltdcpp-qt:_ZN8AntiSpam9saveBlackEv
eiskaltdcpp-qt:_ZN8AntiSpam9saveListsEv
eiskaltdcpp-qt:_ZN8AntiSpam9saveWhiteEv
eiskaltdcpp-qt:_ZN8AntiSpam9setPhraseERK7QString
eiskaltdcpp-qt:_ZN8AntiSpamC1Ev
eiskaltdcpp-qt:_ZN8AntiSpamC2Ev
eiskaltdcpp-qt:_ZN8AntiSpamD0Ev
eiskaltdcpp-qt:_ZN8AntiSpamD1Ev
eiskaltdcpp-qt:_ZN8AntiSpamD2Ev
eiskaltdcpp-qt:_ZN8ChatEdit11insertToPosERK7QStringi
eiskaltdcpp-qt:_ZN8ChatEdit11qt_metacallEN11QMetaObject4CallEiPPv
eiskaltdcpp-qt:_ZN8ChatEdit11qt_metacastEPKc
eiskaltdcpp-qt:_ZN8ChatEdit12focusInEventEP11QFocusEvent
eiskaltdcpp-qt:_ZN8ChatEdit12setCompleterEP10QCompleterP13UserListModel
eiskaltdcpp-qt:_ZN8ChatEdit13dragMoveEventEP14QDragMoveEvent
eiskaltdcpp-qt:_ZN8ChatEdit13keyPressEventEP9QKeyEvent
eiskaltdcpp-qt:_ZN8ChatEdit14dragEnterEventEP15QDragEnterEvent
eiskaltdcpp-qt:_ZN8ChatEdit15keyReleaseEventEP9QKeyEvent
eiskaltdcpp-qt:_ZN8ChatEdit15updateScrollBarEv
eiskaltdcpp-qt:_ZN8ChatEdit16insertCompletionERK11QModelIndex
eiskaltdcpp-qt:_ZN8ChatEdit16staticMetaObjectE
eiskaltdcpp-qt:_ZN8ChatEdit8completeEv
eiskaltdcpp-qt:_ZN8ChatEdit9dropEventEP10QDropEvent
eiskaltdcpp-qt:_ZN8ChatEditC1EP7QWidget
eiskaltdcpp-qt:_ZN8ChatEditC2EP7QWidget
eiskaltdcpp-qt:_ZN8ChatEditD0Ev
eiskaltdcpp-qt:_ZN8ChatEditD1Ev
eiskaltdcpp-qt:_ZN8ChatEditD2Ev
eiskaltdcpp-qt:_ZN8CmdDebug11eventFilterEP7QObjectP6QEvent
eiskaltdcpp-qt:_ZN8CmdDebug11qt_metacallEN11QMetaObject4CallEiPPv
eiskaltdcpp-qt:_ZN8CmdDebug11qt_metacastEPKc
eiskaltdcpp-qt:_ZN8CmdDebug11slotFindAllEv
eiskaltdcpp-qt:_ZN8CmdDebug13getArenaTitleEv
eiskaltdcpp-qt:_ZN8CmdDebug15maxLinesChangedEi
eiskaltdcpp-qt:_ZN8CmdDebug16coreDebugCommandERK7QStringS2_
eiskaltdcpp-qt:_ZN8CmdDebug16staticMetaObjectE
eiskaltdcpp-qt:_ZN8CmdDebug17slotHideSearchBarEv
eiskaltdcpp-qt:_ZN8CmdDebug17slotShowSearchBarEv
eiskaltdcpp-qt:_ZN8CmdDebug18getArenaShortTitleEv
eiskaltdcpp-qt:_ZN8CmdDebug18slotFindTextEditedERK7QString
eiskaltdcpp-qt:_ZN8CmdDebug19slotSettingsChangedERK7QStringS2_
eiskaltdcpp-qt:_ZN8CmdDebug2onEN4dcpp20DebugManagerListener1XILi0EEERKNSt7__cxx1112basic_stringIcSt11char_traitsIcESaIcEEEiSB_
eiskaltdcpp-qt:_ZN8CmdDebug2onEN4dcpp20DebugManagerListener1XILi1EEERKNSt7__cxx1112basic_stringIcSt11char_traitsIcESaIcEEE
eiskaltdcpp-qt:_ZN8CmdDebug7getMenuEv
eiskaltdcpp-qt:_ZN8CmdDebug8findTextE6QFlagsIN13QTextDocument8FindFlagEE
eiskaltdcpp-qt:_ZN8CmdDebug9addOutputERK7QStringS2_
eiskaltdcpp-qt:_ZN8CmdDebug9getWidgetEv
eiskaltdcpp-qt:_ZN8CmdDebugC1EP7QWidget
eiskaltdcpp-qt:_ZN8CmdDebugC2EP7QWidget
eiskaltdcpp-qt:_ZN8CmdDebugD0Ev
eiskaltdcpp-qt:_ZN8CmdDebugD1Ev
eiskaltdcpp-qt:_ZN8CmdDebugD2Ev
eiskaltdcpp-qt:_ZN8HubFrame10LinkParser13parseForLinksE7QStringb
eiskaltdcpp-qt:_ZN8HubFrame10LinkParser19parseForMagnetAliasER7QString
eiskaltdcpp-qt:_ZN8HubFrame10clearUsersEv
eiskaltdcpp-qt:_ZN8HubFrame10closeEventEP11QCloseEvent
eiskaltdcpp-qt:_ZN8HubFrame10coreFailedEv
eiskaltdcpp-qt:_ZN8HubFrame10coreFollowE7QString
eiskaltdcpp-qt:_ZN8HubFrame10getHubNameEv
eiskaltdcpp-qt:_ZN8HubFrame11addUserDataERK7QString
eiskaltdcpp-qt:_ZN8HubFrame11coreMessageERK4QMapI7QString8QVariantE
eiskaltdcpp-qt:_ZN8HubFrame11disableChatEv
eiskaltdcpp-qt:_ZN8HubFrame11eventFilterEP7QObjectP6QEvent
eiskaltdcpp-qt:_ZN8HubFrame11getPasswordEv
eiskaltdcpp-qt:_ZN8HubFrame11getUserInfoEP12UserListItem
eiskaltdcpp-qt:_ZN8HubFrame11highlightedERK4QMapI7QString8QVariantE
eiskaltdcpp-qt:_ZN8HubFrame11parseForCmdE7QStringP7QWidget
eiskaltdcpp-qt:_ZN8HubFrame11pmUserEventERK7QStringS2_
eiskaltdcpp-qt:_ZN8HubFrame11qt_metacallEN11QMetaObject4CallEiPPv
eiskaltdcpp-qt:_ZN8HubFrame11qt_metacastEPKc
eiskaltdcpp-qt:_ZN8HubFrame11slotFindAllEv
eiskaltdcpp-qt:_ZN8HubFrame11slotHubMenuEP7QAction
eiskaltdcpp-qt:_ZN8HubFrame11slotShowWndEv
eiskaltdcpp-qt:_ZN8HubFrame11userRemovedERKN4dcpp13intrusive_ptrINS0_4UserEEERKNS0_8IdentityE
eiskaltdcpp-qt:_ZN8HubFrame11userUpdatedERKN4dcpp13intrusive_ptrINS0_4UserEEERKNS0_8IdentityE
eiskaltdcpp-qt:_ZN8HubFrame12addUserToFavERK7QString
eiskaltdcpp-qt:_ZN8HubFrame12closeRequestEv
eiskaltdcpp-qt:_ZN8HubFrame12corePasswordEv
eiskaltdcpp-qt:_ZN8HubFrame12slotActivateEv
eiskaltdcpp-qt:_ZN8HubFrame12slotChatMenuERK6QPoint
eiskaltdcpp-qt:_ZN8HubFrame12slotPMClosedE7QString
eiskaltdcpp-qt:_ZN8HubFrame12updateStylesEv
eiskaltdcpp-qt:_ZN8HubFrame13addAsFavoriteEv
eiskaltdcpp-qt:_ZN8HubFrame13coreConnectedE7QString
eiskaltdcpp-qt:_ZN8HubFrame13coreStatusMsgE7QString
eiskaltdcpp-qt:_ZN8HubFrame13getArenaTitleEv
eiskaltdcpp-qt:_ZN8HubFrame13getCIDforNickE7QString
eiskaltdcpp-qt:_ZN8HubFrame13pmUserOfflineERK7QString
eiskaltdcpp-qt:_ZN8HubFrame13slotCopyHubIPEv
eiskaltdcpp-qt:_ZN8HubFrame13slotReconnectEv
eiskaltdcpp-qt:_ZN8HubFrame14coreConnectingE7QString
eiskaltdcpp-qt:_ZN8HubFrame14coreHubUpdatedEv
eiskaltdcpp-qt:_ZN8HubFrame14corePrivateMsgERK4QMapI7QString8QVariantE
eiskaltdcpp-qt:_ZN8HubFrame14createPMWindowERK7QString
eiskaltdcpp-qt:_ZN8HubFrame14createPMWindowERKN4dcpp3CIDE
eiskaltdcpp-qt:_ZN8HubFrame14delUserFromFavERK7QString
eiskaltdcpp-qt:_ZN8HubFrame14slotCopyHubURLEv
eiskaltdcpp-qt:_ZN8HubFrame14slotHeaderMenuERK6QPoint
eiskaltdcpp-qt:_ZN8HubFrame14slotMapOnArenaEv
eiskaltdcpp-qt:_ZN8HubFrame15browseUserFilesERK7QStringb
eiskaltdcpp-qt:_ZN8HubFrame15changeFavStatusERK7QString
eiskaltdcpp-qt:_ZN8HubFrame15coreUserRemovedERKN4dcpp13intrusive_ptrINS0_4UserEEERKNS0_8IdentityE
eiskaltdcpp-qt:_ZN8HubFrame15coreUserUpdatedERKN4dcpp13intrusive_ptrINS0_4UserEEERKNS0_8IdentityE
eiskaltdcpp-qt:_ZN8HubFrame16delUserFromQueueERK7QString
eiskaltdcpp-qt:_ZN8HubFrame16slotCopyHubTitleEv
eiskaltdcpp-qt:_ZN8HubFrame16slotSmileClickedEv
eiskaltdcpp-qt:_ZN8HubFrame16slotUserListMenuERK6QPoint
eiskaltdcpp-qt:_ZN8HubFrame16slotUsersUpdatedEv
eiskaltdcpp-qt:_ZN8HubFrame16staticMetaObjectE
eiskaltdcpp-qt:_ZN8HubFrame17slotHideSearchBarEv
eiskaltdcpp-qt:_ZN8HubFrame17slotShellFinishedEb7QString
eiskaltdcpp-qt:_ZN8HubFrame17slotShowSearchBarEv
eiskaltdcpp-qt:_ZN8HubFrame18getArenaShortTitleEv
eiskaltdcpp-qt:_ZN8HubFrame18reloadSomeSettingsEv
eiskaltdcpp-qt:_ZN8HubFrame18slotFindTextEditedERK7QString
eiskaltdcpp-qt:_ZN8HubFrame18slotStatusLinkOpenERK7QString
eiskaltdcpp-qt:_ZN8HubFrame19slotSettingsChangedERK7QStringS2_
eiskaltdcpp-qt:_ZN8HubFrame20slotInputContextMenuEv
eiskaltdcpp-qt:_ZN8HubFrame20slotInputTextChangedEv
eiskaltdcpp-qt:_ZN8HubFrame20slotSmileContextMenuEv
eiskaltdcpp-qt:_ZN8HubFrame21coreFavoriteUserAddedE7QString
eiskaltdcpp-qt:_ZN8HubFrame21slotFilterTextChangedEv
eiskaltdcpp-qt:_ZN8HubFrame22disablePrivateMessagesEb
eiskaltdcpp-qt:_ZN8HubFrame23coreFavoriteUserRemovedE7QString
eiskaltdcpp-qt:_ZN8HubFrame23slotBoolSettingsChangedERK7QStringi
eiskaltdcpp-qt:_ZN8HubFrame2onEN4dcpp14ClientListener1XILi0EEEPNS0_6ClientE
eiskaltdcpp-qt:_ZN8HubFrame2onEN4dcpp14ClientListener1XILi11EEEPNS0_6ClientERKNS0_11ChatMessageE
eiskaltdcpp-qt:_ZN8HubFrame2onEN4dcpp14ClientListener1XILi12EEEPNS0_6ClientERKNSt7__cxx1112basic_stringIcSt11char_traitsIcESaIcEEEi
eiskaltdcpp-qt:_ZN8HubFrame2onEN4dcpp14ClientListener1XILi15EEEPNS0_6ClientE
eiskaltdcpp-qt:_ZN8HubFrame2onEN4dcpp14ClientListener1XILi16EEEPNS0_6ClientERKNSt7__cxx1112basic_stringIcSt11char_traitsIcESaIcEEE
eiskaltdcpp-qt:_ZN8HubFrame2onEN4dcpp14ClientListener1XILi1EEEPNS0_6ClientE
eiskaltdcpp-qt:_ZN8HubFrame2onEN4dcpp14ClientListener1XILi3EEEPNS0_6ClientERKNS0_10OnlineUserE
eiskaltdcpp-qt:_ZN8HubFrame2onEN4dcpp14ClientListener1XILi4EEEPNS0_6ClientERKSt6vectorIPNS0_10OnlineUserESaIS8_EE
eiskaltdcpp-qt:_ZN8HubFrame2onEN4dcpp14ClientListener1XILi5EEEPNS0_6ClientERKNS0_10OnlineUserE
eiskaltdcpp-qt:_ZN8HubFrame2onEN4dcpp14ClientListener1XILi6EEEPNS0_6ClientERKNSt7__cxx1112basic_stringIcSt11char_traitsIcESaIcEEE
eiskaltdcpp-qt:_ZN8HubFrame2onEN4dcpp14ClientListener1XILi7EEEPNS0_6ClientERKNSt7__cxx1112basic_stringIcSt11char_traitsIcESaIcEEE
eiskaltdcpp-qt:_ZN8HubFrame2onEN4dcpp14ClientListener1XILi8EEEPNS0_6ClientE
eiskaltdcpp-qt:_ZN8HubFrame2onEN4dcpp14ClientListener1XILi9EEEPNS0_6ClientE
eiskaltdcpp-qt:_ZN8HubFrame2onEN4dcpp23FavoriteManagerListener1XILi5EEERKNS0_12FavoriteUserE
eiskaltdcpp-qt:_ZN8HubFrame2onEN4dcpp23FavoriteManagerListener1XILi6EEERKNS0_12FavoriteUserE
eiskaltdcpp-qt:_ZN8HubFrame4Menu11getInstanceEv
eiskaltdcpp-qt:_ZN8HubFrame4Menu11newInstanceEv
eiskaltdcpp-qt:_ZN8HubFrame4Menu12execChatMenuEPN4dcpp6ClientERK7QStringb
eiskaltdcpp-qt:_ZN8HubFrame4Menu12execUserMenuEPN4dcpp6ClientERK7QString
eiskaltdcpp-qt:_ZN8HubFrame4Menu14deleteInstanceEv
eiskaltdcpp-qt:_ZN8HubFrame4Menu7counterE
eiskaltdcpp-qt:_ZN8HubFrame4Menu8instanceE
eiskaltdcpp-qt:_ZN8HubFrame4MenuC1Ev
eiskaltdcpp-qt:_ZN8HubFrame4MenuC2Ev
eiskaltdcpp-qt:_ZN8HubFrame4MenuD0Ev
eiskaltdcpp-qt:_ZN8HubFrame4MenuD1Ev
eiskaltdcpp-qt:_ZN8HubFrame4MenuD2Ev
eiskaltdcpp-qt:_ZN8HubFrame4initEv
eiskaltdcpp-qt:_ZN8HubFrame4isOPERK7QString
eiskaltdcpp-qt:_ZN8HubFrame4loadEv
eiskaltdcpp-qt:_ZN8HubFrame4saveEv
eiskaltdcpp-qt:_ZN8HubFrame5addPME7QStringS0_bS0_
eiskaltdcpp-qt:_ZN8HubFrame5newPmERK4QMapI7QString8QVariantE
eiskaltdcpp-qt:_ZN8HubFrame6followE7QString
eiskaltdcpp-qt:_ZN8HubFrame6hasCIDERKN4dcpp3CIDERK7QString
eiskaltdcpp-qt:_ZN8HubFrame6newMsgERK4QMapI7QString8QVariantE
eiskaltdcpp-qt:_ZN8HubFrame7getMenuEv
eiskaltdcpp-qt:_ZN8HubFrame7new_msgERK4QMapI7QString8QVariantE
eiskaltdcpp-qt:_ZN8HubFrame7nextMsgEv
eiskaltdcpp-qt:_ZN8HubFrame7prevMsgEv
eiskaltdcpp-qt:_ZN8HubFrame7sendMsgERK7QString
eiskaltdcpp-qt:_ZN8HubFrame8findTextE6QFlagsIN13QTextDocument8FindFlagEE
eiskaltdcpp-qt:_ZN8HubFrame8initMenuEv
eiskaltdcpp-qt:_ZN8HubFrame8sendChatE7QStringbb
eiskaltdcpp-qt:_ZN8HubFrame9addOutputE7QString
eiskaltdcpp-qt:_ZN8HubFrame9addStatusE7QString
eiskaltdcpp-qt:_ZN8HubFrame9clearChatEv
eiskaltdcpp-qt:_ZN8HubFrame9getHubUrlEv
eiskaltdcpp-qt:_ZN8HubFrame9getMyNickEv
eiskaltdcpp-qt:_ZN8HubFrame9getParamsER4QMapI7QString8QVariantERKN4dcpp8IdentityE
eiskaltdcpp-qt:_ZN8HubFrame9getPixmapEv
eiskaltdcpp-qt:_ZN8HubFrame9getWidgetEv
eiskaltdcpp-qt:_ZN8HubFrame9grantSlotERK7QString
eiskaltdcpp-qt:_ZN8HubFrame9hideEventEP10QHideEvent
eiskaltdcpp-qt:_ZN8HubFrame9showEventEP10QShowEvent
eiskaltdcpp-qt:_ZN8HubFrame9slotCloseEv
eiskaltdcpp-qt:_ZN8HubFrame9slotSmileEv
eiskaltdcpp-qt:_ZN8HubFrameC1EP7QWidget7QStringS2_
eiskaltdcpp-qt:_ZN8HubFrameC2EP7QWidget7QStringS2_
eiskaltdcpp-qt:_ZN8HubFrameD0Ev
eiskaltdcpp-qt:_ZN8HubFrameD1Ev
eiskaltdcpp-qt:_ZN8HubFrameD2Ev
eiskaltdcpp-qt:_ZN8IPFilter10MaskToCIDREj
eiskaltdcpp-qt:_ZN8IPFilter10addToRulesERKNSt7__cxx1112basic_stringIcSt11char_traitsIcESaIcEEE10eDIRECTION
eiskaltdcpp-qt:_ZN8IPFilter10clearRulesEv
eiskaltdcpp-qt:_ZN8IPFilter10importFromENSt7__cxx1112basic_stringIcSt11char_traitsIcESaIcEEERS5_
eiskaltdcpp-qt:_ZN8IPFilter10moveRuleUpEj12eTableAction
eiskaltdcpp-qt:_ZN8IPFilter11MaskForBitsEj
eiskaltdcpp-qt:_ZN8IPFilter11ParseStringENSt7__cxx1112basic_stringIcSt11char_traitsIcESaIcEEERjS6_R12eTableAction
eiskaltdcpp-qt:_ZN8IPFilter12moveRuleDownEj12eTableAction
eiskaltdcpp-qt:_ZN8IPFilter12remFromRulesENSt7__cxx1112basic_stringIcSt11char_traitsIcESaIcEEE12eTableAction
eiskaltdcpp-qt:_ZN8IPFilter14StringToUint32ERKNSt7__cxx1112basic_stringIcSt11char_traitsIcESaIcEEE
eiskaltdcpp-qt:_ZN8IPFilter14Uint32ToStringB5cxx11Ej
eiskaltdcpp-qt:_ZN8IPFilter19changeRuleDirectionENSt7__cxx1112basic_stringIcSt11char_traitsIcESaIcEEE10eDIRECTION12eTableAction
eiskaltdcpp-qt:_ZN8IPFilter2OKERKNSt7__cxx1112basic_stringIcSt11char_traitsIcESaIcEEE10eDIRECTION
eiskaltdcpp-qt:_ZN8IPFilter4loadEv
eiskaltdcpp-qt:_ZN8IPFilter4stepEj12eTableActionb
eiskaltdcpp-qt:_ZN8IPFilter7getHashEv
eiskaltdcpp-qt:_ZN8IPFilter8exportToENSt7__cxx1112basic_stringIcSt11char_traitsIcESaIcEEERS5_
eiskaltdcpp-qt:_ZN8IPFilter8getRulesEv
eiskaltdcpp-qt:_ZN8IPFilter8loadListEv
eiskaltdcpp-qt:_ZN8IPFilter8saveListEv
eiskaltdcpp-qt:_ZN8IPFilter8shutdownEv
eiskaltdcpp-qt:_ZN8IPFilterC1Ev
eiskaltdcpp-qt:_ZN8IPFilterC2Ev
eiskaltdcpp-qt:_ZN8IPFilterD0Ev
eiskaltdcpp-qt:_ZN8IPFilterD1Ev
eiskaltdcpp-qt:_ZN8IPFilterD2Ev
eiskaltdcpp-qt:_ZN8LineEdit10menuActionEP7QAction
eiskaltdcpp-qt:_ZN8LineEdit11eventFilterEP7QObjectP6QEvent
eiskaltdcpp-qt:_ZN8LineEdit11qt_metacallEN11QMetaObject4CallEiPPv
eiskaltdcpp-qt:_ZN8LineEdit11qt_metacastEPKc
eiskaltdcpp-qt:_ZN8LineEdit11resizeEventEP12QResizeEvent
eiskaltdcpp-qt:_ZN8LineEdit11setMenuRoleENS_8MenuRoleE
eiskaltdcpp-qt:_ZN8LineEdit12focusInEventEP11QFocusEvent
eiskaltdcpp-qt:_ZN8LineEdit12updateStylesEv
eiskaltdcpp-qt:_ZN8LineEdit13focusOutEventEP11QFocusEvent
eiskaltdcpp-qt:_ZN8LineEdit14updateGeometryEv
eiskaltdcpp-qt:_ZN8LineEdit15slotTextChangedEv
eiskaltdcpp-qt:_ZN8LineEdit16staticMetaObjectE
eiskaltdcpp-qt:_ZN8LineEdit7setMenuEP5QMenu
eiskaltdcpp-qt:_ZN8LineEdit9clearEditEv
eiskaltdcpp-qt:_ZN8LineEdit9setPixmapERK7QPixmap
eiskaltdcpp-qt:_ZN8LineEditC1EP7QWidget
eiskaltdcpp-qt:_ZN8LineEditC2EP7QWidget
eiskaltdcpp-qt:_ZN8LineEditD0Ev
eiskaltdcpp-qt:_ZN8LineEditD1Ev
eiskaltdcpp-qt:_ZN8LineEditD2Ev
eiskaltdcpp-qt:_ZN8PMWindow10closeEventEP11QCloseEvent
eiskaltdcpp-qt:_ZN8PMWindow11addUserDataERK7QString
eiskaltdcpp-qt:_ZN8PMWindow11eventFilterEP7QObjectP6QEvent
eiskaltdcpp-qt:_ZN8PMWindow11qt_metacallEN11QMetaObject4CallEiPPv
eiskaltdcpp-qt:_ZN8PMWindow11qt_metacastEPKc
eiskaltdcpp-qt:_ZN8PMWindow11sendMessageE7QStringbb
eiskaltdcpp-qt:_ZN8PMWindow11slotFindAllEv
eiskaltdcpp-qt:_ZN8PMWindow12requestClearEv
eiskaltdcpp-qt:_ZN8PMWindow12requestFocusEv
eiskaltdcpp-qt:_ZN8PMWindow12setCompleterEP10QCompleterP13UserListModel
eiskaltdcpp-qt:_ZN8PMWindow12slotActivateEv
eiskaltdcpp-qt:_ZN8PMWindow12updateStylesEv
eiskaltdcpp-qt:_ZN8PMWindow13getArenaTitleEv
eiskaltdcpp-qt:_ZN8PMWindow13inputTextMenuEv
eiskaltdcpp-qt:_ZN8PMWindow13requestFilterEv
eiskaltdcpp-qt:_ZN8PMWindow14hasNewMessagesEv
eiskaltdcpp-qt:_ZN8PMWindow16addStatusMessageERK7QString
eiskaltdcpp-qt:_ZN8PMWindow16inputTextChangedEv
eiskaltdcpp-qt:_ZN8PMWindow16slotSmileClickedEv
eiskaltdcpp-qt:_ZN8PMWindow16staticMetaObjectE
eiskaltdcpp-qt:_ZN8PMWindow17slotHideSearchBarEv
eiskaltdcpp-qt:_ZN8PMWindow17slotShowSearchBarEv
eiskaltdcpp-qt:_ZN8PMWindow18getArenaShortTitleEv
eiskaltdcpp-qt:_ZN8PMWindow18slotFindTextEditedERK7QString
eiskaltdcpp-qt:_ZN8PMWindow18slotSettingChangedERK7QStringS2_
eiskaltdcpp-qt:_ZN8PMWindow20privateMessageClosedE7QString
eiskaltdcpp-qt:_ZN8PMWindow20slotSmileContextMenuEv
eiskaltdcpp-qt:_ZN8PMWindow23setHasHighlightMessagesEb
eiskaltdcpp-qt:_ZN8PMWindow7getMenuEv
eiskaltdcpp-qt:_ZN8PMWindow7nextMsgEv
eiskaltdcpp-qt:_ZN8PMWindow7prevMsgEv
eiskaltdcpp-qt:_ZN8PMWindow7slotHubEv
eiskaltdcpp-qt:_ZN8PMWindow8findTextE6QFlagsIN13QTextDocument8FindFlagEE
eiskaltdcpp-qt:_ZN8PMWindow9addOutputE7QString
eiskaltdcpp-qt:_ZN8PMWindow9addStatusE7QString
eiskaltdcpp-qt:_ZN8PMWindow9clearChatEv
eiskaltdcpp-qt:_ZN8PMWindow9getPixmapEv
eiskaltdcpp-qt:_ZN8PMWindow9getWidgetEv
eiskaltdcpp-qt:_ZN8PMWindow9showEventEP10QShowEvent
eiskaltdcpp-qt:_ZN8PMWindow9slotCloseEv
eiskaltdcpp-qt:_ZN8PMWindow9slotShareEv
eiskaltdcpp-qt:_ZN8PMWindow9slotSmileEv
eiskaltdcpp-qt:_ZN8PMWindowC1ERK7QStringS2_
eiskaltdcpp-qt:_ZN8PMWindowC2ERK7QStringS2_
eiskaltdcpp-qt:_ZN8PMWindowD0Ev
eiskaltdcpp-qt:_ZN8PMWindowD1Ev
eiskaltdcpp-qt:_ZN8PMWindowD2Ev
eiskaltdcpp-qt:_ZN8Settings11qt_metacallEN11QMetaObject4CallEiPPv
eiskaltdcpp-qt:_ZN8Settings11qt_metacastEPKc
eiskaltdcpp-qt:_ZN8Settings16staticMetaObjectE
eiskaltdcpp-qt:_ZN8Settings17slotItemActivatedEP15QListWidgetItem
eiskaltdcpp-qt:_ZN8Settings4initEv
eiskaltdcpp-qt:_ZN8Settings5dirtyEv
eiskaltdcpp-qt:_ZN8Settings8navigateENS_4PageEi
eiskaltdcpp-qt:_ZN8Settings9timeToDieEv
eiskaltdcpp-qt:_ZN8SettingsC1Ev
eiskaltdcpp-qt:_ZN8SettingsC2Ev
eiskaltdcpp-qt:_ZN8SettingsD0Ev
eiskaltdcpp-qt:_ZN8SettingsD1Ev
eiskaltdcpp-qt:_ZN8SettingsD2Ev
eiskaltdcpp-qt:_ZN8SpyFrame10closeEventEP11QCloseEvent
eiskaltdcpp-qt:_ZN8SpyFrame11contextMenuEv
eiskaltdcpp-qt:_ZN8SpyFrame11qt_metacallEN11QMetaObject4CallEiPPv
eiskaltdcpp-qt:_ZN8SpyFrame11qt_metacastEPKc
eiskaltdcpp-qt:_ZN8SpyFrame13slotStartStopEv
eiskaltdcpp-qt:_ZN8SpyFrame16staticMetaObjectE
eiskaltdcpp-qt:_ZN8SpyFrame18coreIncomingSearchERK7QStringb
eiskaltdcpp-qt:_ZN8SpyFrame19slotSettingsChangedERK7QStringS2_
eiskaltdcpp-qt:_ZN8SpyFrame2onEN4dcpp21ClientManagerListener1XILi3EEERKNSt7__cxx1112basic_stringIcSt11char_traitsIcESaIcEEE
eiskaltdcpp-qt:_ZN8SpyFrame9slotClearEv
eiskaltdcpp-qt:_ZN8SpyFrameC1EP7QWidget
eiskaltdcpp-qt:_ZN8SpyFrameC2EP7QWidget
eiskaltdcpp-qt:_ZN8SpyFrameD0Ev
eiskaltdcpp-qt:_ZN8SpyFrameD1Ev
eiskaltdcpp-qt:_ZN8SpyFrameD2Ev
eiskaltdcpp-qt:_ZN8SpyModel10clearModelEv
eiskaltdcpp-qt:_ZN8SpyModel11qt_metacallEN11QMetaObject4CallEiPPv
eiskaltdcpp-qt:_ZN8SpyModel11qt_metacastEPKc
eiskaltdcpp-qt:_ZN8SpyModel16staticMetaObjectE
eiskaltdcpp-qt:_ZN8SpyModel4sortEiN2Qt9SortOrderE
eiskaltdcpp-qt:_ZN8SpyModel4sortEv
eiskaltdcpp-qt:_ZN8SpyModel5resetEv
eiskaltdcpp-qt:_ZN8SpyModel7setSortEb
eiskaltdcpp-qt:_ZN8SpyModel9addResultERK7QStringb
eiskaltdcpp-qt:_ZN8SpyModelC1EP7QObject
eiskaltdcpp-qt:_ZN8SpyModelC2EP7QObject
eiskaltdcpp-qt:_ZN8SpyModelD0Ev
eiskaltdcpp-qt:_ZN8SpyModelD1Ev
eiskaltdcpp-qt:_ZN8SpyModelD2Ev
eiskaltdcpp-qt:_ZN8TabFrame10historyPopEv
eiskaltdcpp-qt:_ZN8TabFrame11eventFilterEP7QObjectP6QEvent
eiskaltdcpp-qt:_ZN8TabFrame11historyPushEP11ArenaWidget
eiskaltdcpp-qt:_ZN8TabFrame11qt_metacallEN11QMetaObject4CallEiPPv
eiskaltdcpp-qt:_ZN8TabFrame11qt_metacastEPKc
eiskaltdcpp-qt:_ZN8TabFrame11resizeEventEP12QResizeEvent
eiskaltdcpp-qt:_ZN8TabFrame11slotDroppedEP9TabButton
eiskaltdcpp-qt:_ZN8TabFrame12historyPurgeEP11ArenaWidget
eiskaltdcpp-qt:_ZN8TabFrame12insertWidgetEP11ArenaWidget
eiskaltdcpp-qt:_ZN8TabFrame12removeWidgetEP11ArenaWidget
eiskaltdcpp-qt:_ZN8TabFrame12slotShorcutsEv
eiskaltdcpp-qt:_ZN8TabFrame13buttonClickedEv
eiskaltdcpp-qt:_ZN8TabFrame13closeRequstedEv
eiskaltdcpp-qt:_ZN8TabFrame15slotContextMenuEv
eiskaltdcpp-qt:_ZN8TabFrame16staticMetaObjectE
eiskaltdcpp-qt:_ZN8TabFrame6mappedEP11ArenaWidget
eiskaltdcpp-qt:_ZN8TabFrame6redrawEv
eiskaltdcpp-qt:_ZN8TabFrame7nextTabEv
eiskaltdcpp-qt:_ZN8TabFrame7prevTabEv
eiskaltdcpp-qt:_ZN8TabFrame7toggledEP11ArenaWidget
eiskaltdcpp-qt:_ZN8TabFrame7updatedEP11ArenaWidget
eiskaltdcpp-qt:_ZN8TabFrame8moveLeftEv
eiskaltdcpp-qt:_ZN8TabFrame9moveRightEv
eiskaltdcpp-qt:_ZN8TabFrameC1EP7QWidget
eiskaltdcpp-qt:_ZN8TabFrameC2EP7QWidget
eiskaltdcpp-qt:_ZN8TabFrameD0Ev
eiskaltdcpp-qt:_ZN8TabFrameD1Ev
eiskaltdcpp-qt:_ZN8TabFrameD2Ev
eiskaltdcpp-qt:_ZN8UCDialog10updateTypeEv
eiskaltdcpp-qt:_ZN8UCDialog11qt_metacallEN11QMetaObject4CallEiPPv
eiskaltdcpp-qt:_ZN8UCDialog11qt_metacastEPKc
eiskaltdcpp-qt:_ZN8UCDialog11updateLinesEv
eiskaltdcpp-qt:_ZN8UCDialog16staticMetaObjectE
eiskaltdcpp-qt:_ZN8UCDialog7getTypeEv
eiskaltdcpp-qt:_ZN8UCDialogC1EP7QWidget
eiskaltdcpp-qt:_ZN8UCDialogC2EP7QWidget
eiskaltdcpp-qt:_ZN9ADLSModel10clearModelEv
eiskaltdcpp-qt:_ZN9ADLSModel10insertRowsEiiRK11QModelIndex
eiskaltdcpp-qt:_ZN9ADLSModel10removeItemEPK8ADLSItem
eiskaltdcpp-qt:_ZN9ADLSModel10removeItemERK11QModelIndex
eiskaltdcpp-qt:_ZN9ADLSModel10removeRowsEiiRK11QModelIndex
eiskaltdcpp-qt:_ZN9ADLSModel11qt_metacallEN11QMetaObject4CallEiPPv
eiskaltdcpp-qt:_ZN9ADLSModel11qt_metacastEPKc
eiskaltdcpp-qt:_ZN9ADLSModel16staticMetaObjectE
eiskaltdcpp-qt:_ZN9ADLSModel4sortEiN2Qt9SortOrderE
eiskaltdcpp-qt:_ZN9ADLSModel5resetEv
eiskaltdcpp-qt:_ZN9ADLSModel6moveUpERK11QModelIndex
eiskaltdcpp-qt:_ZN9ADLSModel7repaintEv
eiskaltdcpp-qt:_ZN9ADLSModel8getItemsEv
eiskaltdcpp-qt:_ZN9ADLSModel8moveDownERK11QModelIndex
eiskaltdcpp-qt:_ZN9ADLSModel9addResultER5QListI8QVariantE
eiskaltdcpp-qt:_ZN9ADLSModel9insertRowEiRK11QModelIndex
eiskaltdcpp-qt:_ZN9ADLSModel9removeRowEiRK11QModelIndex
eiskaltdcpp-qt:_ZN9ADLSModelC1EP7QObject
eiskaltdcpp-qt:_ZN9ADLSModelC2EP7QObject
eiskaltdcpp-qt:_ZN9ADLSModelD0Ev
eiskaltdcpp-qt:_ZN9ADLSModelD1Ev
eiskaltdcpp-qt:_ZN9ADLSModelD2Ev
eiskaltdcpp-qt:_ZN9FreeSpace13FreeDiscSpaceENSt7__cxx1112basic_stringIcSt11char_traitsIcESaIcEEEPyS6_
eiskaltdcpp-qt:_ZN9Secretary10clearNotesEv
eiskaltdcpp-qt:_ZN9Secretary10newChatMsgERK7QStringS2_S2_S2_
eiskaltdcpp-qt:_ZN9Secretary10newPrivMsgERK7QStringS2_S2_S2_
eiskaltdcpp-qt:_ZN9Secretary11addUserDataERK7QString
eiskaltdcpp-qt:_ZN9Secretary11eventFilterEP7QObjectP6QEvent
eiskaltdcpp-qt:_ZN9Secretary11qt_metacallEN11QMetaObject4CallEiPPv
eiskaltdcpp-qt:_ZN9Secretary11qt_metacastEPKc
eiskaltdcpp-qt:_ZN9Secretary11slotFindAllEv
eiskaltdcpp-qt:_ZN9Secretary12slotChatMenuERK6QPoint
eiskaltdcpp-qt:_ZN9Secretary12updateStylesEv
eiskaltdcpp-qt:_ZN9Secretary13coreStatusMsgE7QStringS0_S0_S0_
eiskaltdcpp-qt:_ZN9Secretary13getArenaTitleEv
eiskaltdcpp-qt:_ZN9Secretary14corePrivateMsgE7QStringS0_S0_S0_
eiskaltdcpp-qt:_ZN9Secretary15coreChatMessageE7QStringS0_S0_S0_
eiskaltdcpp-qt:_ZN9Secretary15maxLinesChangedEi
eiskaltdcpp-qt:_ZN9Secretary16staticMetaObjectE
eiskaltdcpp-qt:_ZN9Secretary17searchMagnetLinksEb
eiskaltdcpp-qt:_ZN9Secretary17slotHideSearchBarEv
eiskaltdcpp-qt:_ZN9Secretary17slotShowSearchBarEv
eiskaltdcpp-qt:_ZN9Secretary18getArenaShortTitleEv
eiskaltdcpp-qt:_ZN9Secretary18slotFindTextEditedERK7QString
eiskaltdcpp-qt:_ZN9Secretary19slotSettingsChangedERK7QStringS2_
eiskaltdcpp-qt:_ZN9Secretary7getMenuEv
eiskaltdcpp-qt:_ZN9Secretary8findTextE6QFlagsIN13QTextDocument8FindFlagEE
eiskaltdcpp-qt:_ZN9Secretary9addOutputERK7QStringS2_S2_
eiskaltdcpp-qt:_ZN9Secretary9addStatusERK7QStringS2_S2_S2_
eiskaltdcpp-qt:_ZN9Secretary9getWidgetEv
eiskaltdcpp-qt:_ZN9SecretaryC1EP7QWidget
eiskaltdcpp-qt:_ZN9SecretaryC2EP7QWidget
eiskaltdcpp-qt:_ZN9SecretaryD0Ev
eiskaltdcpp-qt:_ZN9SecretaryD1Ev
eiskaltdcpp-qt:_ZN9SecretaryD2Ev
eiskaltdcpp-qt:_ZN9TabButton10paintEventEP11QPaintEvent
eiskaltdcpp-qt:_ZN9TabButton11eventFilterEP7QObjectP6QEvent
eiskaltdcpp-qt:_ZN9TabButton11qt_metacallEN11QMetaObject4CallEiPPv
eiskaltdcpp-qt:_ZN9TabButton11qt_metacastEPKc
eiskaltdcpp-qt:_ZN9TabButton11resizeEventEP12QResizeEvent
eiskaltdcpp-qt:_ZN9TabButton12closeRequestEv
eiskaltdcpp-qt:_ZN9TabButton12updateStylesEv
eiskaltdcpp-qt:_ZN9TabButton13dragMoveEventEP14QDragMoveEvent
eiskaltdcpp-qt:_ZN9TabButton13setWidgetIconERK7QPixmap
eiskaltdcpp-qt:_ZN9TabButton14dragEnterEventEP15QDragEnterEvent
eiskaltdcpp-qt:_ZN9TabButton14mouseMoveEventEP11QMouseEvent
eiskaltdcpp-qt:_ZN9TabButton14updateGeometryEv
eiskaltdcpp-qt:_ZN9TabButton15mousePressEventEP11QMouseEvent
eiskaltdcpp-qt:_ZN9TabButton16staticMetaObjectE
eiskaltdcpp-qt:_ZN9TabButton17mouseReleaseEventEP11QMouseEvent
eiskaltdcpp-qt:_ZN9TabButton7droppedEPS_
eiskaltdcpp-qt:_ZN9TabButton9dropEventEP10QDropEvent
eiskaltdcpp-qt:_ZN9TabButtonC1EP7QWidget
eiskaltdcpp-qt:_ZN9TabButtonC2EP7QWidget
eiskaltdcpp-qt:_ZNK10EiskaltApp10metaObjectEv
eiskaltdcpp-qt:_ZNK10FileHasher10metaObjectEv
eiskaltdcpp-qt:_ZNK10FlowLayout10metaObjectEv
eiskaltdcpp-qt:_ZNK10FlowLayout11minimumSizeEv
eiskaltdcpp-qt:_ZNK10FlowLayout12smartSpacingEN6QStyle11PixelMetricE
eiskaltdcpp-qt:_ZNK10FlowLayout14heightForWidthEi
eiskaltdcpp-qt:_ZNK10FlowLayout15verticalSpacingEv
eiskaltdcpp-qt:_ZNK10FlowLayout17hasHeightForWidthEv
eiskaltdcpp-qt:_ZNK10FlowLayout17horizontalSpacingEv
eiskaltdcpp-qt:_ZNK10FlowLayout19expandingDirectionsEv
eiskaltdcpp-qt:_ZNK10FlowLayout5countEv
eiskaltdcpp-qt:_ZNK10FlowLayout6itemAtEi
eiskaltdcpp-qt:_ZNK10FlowLayout8doLayoutERK5QRectb
eiskaltdcpp-qt:_ZNK10FlowLayout8sizeHintEv
eiskaltdcpp-qt:_ZNK10HashThread10metaObjectEv
eiskaltdcpp-qt:_ZNK10HubManager10metaObjectEv
eiskaltdcpp-qt:_ZNK10HubManager7getHubsEv
eiskaltdcpp-qt:_ZNK10HubManager9activeHubEv
eiskaltdcpp-qt:_ZNK10MainWindow10metaObjectEv
eiskaltdcpp-qt:_ZNK10MainWindow13widgetForRoleEN11ArenaWidget4RoleE
eiskaltdcpp-qt:_ZNK10PublicHubs10metaObjectEv
eiskaltdcpp-qt:_ZNK10SearchItem10childCountEv
eiskaltdcpp-qt:_ZNK10SearchItem11columnCountEv
eiskaltdcpp-qt:_ZNK10SearchItem3rowEv
eiskaltdcpp-qt:_ZNK10SearchItem4dataEi
eiskaltdcpp-qt:_ZNK10SearchItem6existsERK7QString
eiskaltdcpp-qt:_ZNK10SearchItem6parentEv
eiskaltdcpp-qt:_ZNK10SettingsUC10metaObjectEv
eiskaltdcpp-qt:_ZNK10WulforUtil10metaObjectEv
eiskaltdcpp-qt:_ZNK10WulforUtil15getAppIconsPathEv
eiskaltdcpp-qt:_ZNK10WulforUtil16findAppIconsPathEv
eiskaltdcpp-qt:_ZNK10WulforUtil16getEmoticonsPathEv
eiskaltdcpp-qt:_ZNK10WulforUtil17findUserIconsPathEv
eiskaltdcpp-qt:_ZNK10WulforUtil17getAspellDataPathEv
eiskaltdcpp-qt:_ZNK10WulforUtil18getClientIconsPathEv
eiskaltdcpp-qt:_ZNK10WulforUtil19getTranslationsPathEv
eiskaltdcpp-qt:_ZNK10WulforUtil22getClientResourcesPathEv
eiskaltdcpp-qt:_ZNK11AsyncRunner10metaObjectEv
eiskaltdcpp-qt:_ZNK11GlobalTimer10metaObjectEv
eiskaltdcpp-qt:_ZNK11GlobalTimer8getTicksEv
eiskaltdcpp-qt:_ZNK11QueuedUsers10metaObjectEv
eiskaltdcpp-qt:_ZNK11SearchFrame10metaObjectEv
eiskaltdcpp-qt:_ZNK11SearchModel10headerDataEiN2Qt11OrientationEi
eiskaltdcpp-qt:_ZNK11SearchModel10metaObjectEv
eiskaltdcpp-qt:_ZNK11SearchModel11columnCountERK11QModelIndex
eiskaltdcpp-qt:_ZNK11SearchModel11hasChildrenERK11QModelIndex
eiskaltdcpp-qt:_ZNK11SearchModel12getSortOrderEv
eiskaltdcpp-qt:_ZNK11SearchModel13getSortColumnEv
eiskaltdcpp-qt:_ZNK11SearchModel4dataERK11QModelIndexi
eiskaltdcpp-qt:_ZNK11SearchModel5flagsERK11QModelIndex
eiskaltdcpp-qt:_ZNK11SearchModel5indexEiiRK11QModelIndex
eiskaltdcpp-qt:_ZNK11SearchModel6parentERK11QModelIndex
eiskaltdcpp-qt:_ZNK11SearchModel8rowCountERK11QModelIndex
eiskaltdcpp-qt:_ZNK11SettingsGUI10metaObjectEv
eiskaltdcpp-qt:_ZNK11SettingsLog10metaObjectEv
eiskaltdcpp-qt:_ZNK11SideBarView10metaObjectEv
eiskaltdcpp-qt:_ZNK12FavoriteHubs10metaObjectEv
eiskaltdcpp-qt:_ZNK12HashProgress10metaObjectEv
eiskaltdcpp-qt:_ZNK12Notification10metaObjectEv
eiskaltdcpp-qt:_ZNK12QuickConnect10metaObjectEv
eiskaltdcpp-qt:_ZNK12ScriptWidget10metaObjectEv
eiskaltdcpp-qt:_ZNK12ShareBrowser10metaObjectEv
eiskaltdcpp-qt:_ZNK12ShortcutEdit10metaObjectEv
eiskaltdcpp-qt:_ZNK12ShortcutItem10childCountEv
eiskaltdcpp-qt:_ZNK12ShortcutItem11columnCountEv
eiskaltdcpp-qt:_ZNK12ShortcutItem3rowEv
eiskaltdcpp-qt:_ZNK12SideBarModel10headerDataEiN2Qt11OrientationEi
eiskaltdcpp-qt:_ZNK12SideBarModel10isRootItemEPK11SideBarItem
eiskaltdcpp-qt:_ZNK12SideBarModel10metaObjectEv
eiskaltdcpp-qt:_ZNK12SideBarModel11columnCountERK11QModelIndex
eiskaltdcpp-qt:_ZNK12SideBarModel12rootItemRoleEPK11SideBarItem
eiskaltdcpp-qt:_ZNK12SideBarModel4dataERK11QModelIndexi
eiskaltdcpp-qt:_ZNK12SideBarModel5indexEiiRK11QModelIndex
eiskaltdcpp-qt:_ZNK12SideBarModel6parentERK11QModelIndex
eiskaltdcpp-qt:_ZNK12SideBarModel8rowCountERK11QModelIndex
eiskaltdcpp-qt:_ZNK12SideBarModel9hasWidgetEP11ArenaWidget
eiskaltdcpp-qt:_ZNK12TransferView10metaObjectEv
eiskaltdcpp-qt:_ZNK12TransferView8sizeHintEv
eiskaltdcpp-qt:_ZNK12UserListItem10childCountEv
eiskaltdcpp-qt:_ZNK12UserListItem10getCommentEv
eiskaltdcpp-qt:_ZNK12UserListItem11columnCountEv
eiskaltdcpp-qt:_ZNK12UserListItem13getConnectionEv
eiskaltdcpp-qt:_ZNK12UserListItem3rowEv
eiskaltdcpp-qt:_ZNK12UserListItem4isOPEv
eiskaltdcpp-qt:_ZNK12UserListItem5getIPEv
eiskaltdcpp-qt:_ZNK12UserListItem5isFavEv
eiskaltdcpp-qt:_ZNK12UserListItem6getCIDEv
eiskaltdcpp-qt:_ZNK12UserListItem6getTagEv
eiskaltdcpp-qt:_ZNK12UserListItem6isAwayEv
eiskaltdcpp-qt:_ZNK12UserListItem7getNickEv
eiskaltdcpp-qt:_ZNK12UserListItem7getUserEv
eiskaltdcpp-qt:_ZNK12UserListItem8getEmailEv
eiskaltdcpp-qt:_ZNK12UserListItem8getShareEv
eiskaltdcpp-qt:_ZNK13AntiSpamFrame10metaObjectEv
eiskaltdcpp-qt:_ZNK13DownloadQueue10metaObjectEv
eiskaltdcpp-qt:_ZNK13EmoticonLabel10metaObjectEv
eiskaltdcpp-qt:_ZNK13FavoriteUsers10metaObjectEv
eiskaltdcpp-qt:_ZNK13FavoriteUsers8getUsersEv
eiskaltdcpp-qt:_ZNK13IPFilterFrame10metaObjectEv
eiskaltdcpp-qt:_ZNK13IPFilterModel10headerDataEiN2Qt11OrientationEi
eiskaltdcpp-qt:_ZNK13IPFilterModel10metaObjectEv
eiskaltdcpp-qt:_ZNK13IPFilterModel11columnCountERK11QModelIndex
eiskaltdcpp-qt:_ZNK13IPFilterModel4dataERK11QModelIndexi
eiskaltdcpp-qt:_ZNK13IPFilterModel5flagsERK11QModelIndex
eiskaltdcpp-qt:_ZNK13IPFilterModel5indexEiiRK11QModelIndex
eiskaltdcpp-qt:_ZNK13IPFilterModel6parentERK11QModelIndex
eiskaltdcpp-qt:_ZNK13IPFilterModel8rowCountERK11QModelIndex
eiskaltdcpp-qt:_ZNK13PublicHubItem10childCountEv
eiskaltdcpp-qt:_ZNK13PublicHubItem11columnCountEv
eiskaltdcpp-qt:_ZNK13PublicHubItem3rowEv
eiskaltdcpp-qt:_ZNK13PublicHubItem4dataEi
eiskaltdcpp-qt:_ZNK13ShareDirModel10metaObjectEv
eiskaltdcpp-qt:_ZNK13ShareDirModel4dataERK11QModelIndexi
eiskaltdcpp-qt:_ZNK13ShareDirModel5flagsERK11QModelIndex
eiskaltdcpp-qt:_ZNK13ShareDirModel8filePathERK11QModelIndex
eiskaltdcpp-qt:_ZNK13UserListModel10headerDataEiN2Qt11OrientationEi
eiskaltdcpp-qt:_ZNK13UserListModel10metaObjectEv
eiskaltdcpp-qt:_ZNK13UserListModel11columnCountERK11QModelIndex
eiskaltdcpp-qt:_ZNK13UserListModel11hasChildrenERK11QModelIndex
eiskaltdcpp-qt:_ZNK13UserListModel12canFetchMoreERK11QModelIndex
eiskaltdcpp-qt:_ZNK13UserListModel13matchNicksAnyERK7QStringb
eiskaltdcpp-qt:_ZNK13UserListModel20matchNicksContainingERK7QStringb
eiskaltdcpp-qt:_ZNK13UserListModel22matchNicksStartingWithERK7QStringb
eiskaltdcpp-qt:_ZNK13UserListModel4dataERK11QModelIndexi
eiskaltdcpp-qt:_ZNK13UserListModel5indexEiiRK11QModelIndex
eiskaltdcpp-qt:_ZNK13UserListModel6parentERK11QModelIndex
eiskaltdcpp-qt:_ZNK13UserListModel8rowCountERK11QModelIndex
eiskaltdcpp-qt:_ZNK13UserListModel9findItemsERK7QString6QFlagsIN2Qt9MatchFlagEEi
eiskaltdcpp-qt:_ZNK14CustomFontItem10childCountEv
eiskaltdcpp-qt:_ZNK14CustomFontItem11columnCountEv
eiskaltdcpp-qt:_ZNK14CustomFontItem3rowEv
eiskaltdcpp-qt:_ZNK14CustomFontItem4dataEi
eiskaltdcpp-qt:_ZNK14EmoticonDialog10metaObjectEv
eiskaltdcpp-qt:_ZNK14PublicHubModel10headerDataEiN2Qt11OrientationEi
eiskaltdcpp-qt:_ZNK14PublicHubModel10metaObjectEv
eiskaltdcpp-qt:_ZNK14PublicHubModel11columnCountERK11QModelIndex
eiskaltdcpp-qt:_ZNK14PublicHubModel4dataERK11QModelIndexi
eiskaltdcpp-qt:_ZNK14PublicHubModel5flagsERK11QModelIndex
eiskaltdcpp-qt:_ZNK14PublicHubModel5indexEiiRK11QModelIndex
eiskaltdcpp-qt:_ZNK14PublicHubModel6parentERK11QModelIndex
eiskaltdcpp-qt:_ZNK14PublicHubModel8rowCountERK11QModelIndex
eiskaltdcpp-qt:_ZNK14PublicHubsList10metaObjectEv
eiskaltdcpp-qt:_ZNK14QueuedUserItem10childCountEv
eiskaltdcpp-qt:_ZNK14QueuedUserItem11columnCountEv
eiskaltdcpp-qt:_ZNK14QueuedUserItem3rowEv
eiskaltdcpp-qt:_ZNK14QueuedUserItem4dataEi
eiskaltdcpp-qt:_ZNK14QueuedUserItem6parentEv
eiskaltdcpp-qt:_ZNK14ShortcutGetter10metaObjectEv
eiskaltdcpp-qt:_ZNK14ShortcutsModel10headerDataEiN2Qt11OrientationEi
eiskaltdcpp-qt:_ZNK14ShortcutsModel10metaObjectEv
eiskaltdcpp-qt:_ZNK14ShortcutsModel11columnCountERK11QModelIndex
eiskaltdcpp-qt:_ZNK14ShortcutsModel4dataERK11QModelIndexi
eiskaltdcpp-qt:_ZNK14ShortcutsModel5flagsERK11QModelIndex
eiskaltdcpp-qt:_ZNK14ShortcutsModel5indexEiiRK11QModelIndex
eiskaltdcpp-qt:_ZNK14ShortcutsModel6parentERK11QModelIndex
eiskaltdcpp-qt:_ZNK14ShortcutsModel8rowCountERK11QModelIndex
eiskaltdcpp-qt:_ZNK14WulforSettings10metaObjectEv
eiskaltdcpp-qt:_ZNK14WulforSettings6hasKeyERK7QString
eiskaltdcpp-qt:_ZNK15CustomFontModel10headerDataEiN2Qt11OrientationEi
eiskaltdcpp-qt:_ZNK15CustomFontModel10metaObjectEv
eiskaltdcpp-qt:_ZNK15CustomFontModel11columnCountERK11QModelIndex
eiskaltdcpp-qt:_ZNK15CustomFontModel4dataERK11QModelIndexi
eiskaltdcpp-qt:_ZNK15CustomFontModel5indexEiiRK11QModelIndex
eiskaltdcpp-qt:_ZNK15CustomFontModel6parentERK11QModelIndex
eiskaltdcpp-qt:_ZNK15CustomFontModel8rowCountERK11QModelIndex
eiskaltdcpp-qt:_ZNK15EmoticonFactory10metaObjectEv
eiskaltdcpp-qt:_ZNK15FavoriteHubItem10childCountEv
eiskaltdcpp-qt:_ZNK15FavoriteHubItem11columnCountEv
eiskaltdcpp-qt:_ZNK15FavoriteHubItem3rowEv
eiskaltdcpp-qt:_ZNK15FavoriteHubItem4dataEi
eiskaltdcpp-qt:_ZNK15FileBrowserItem10childCountEv
eiskaltdcpp-qt:_ZNK15FileBrowserItem11columnCountEv
eiskaltdcpp-qt:_ZNK15FileBrowserItem3rowEv
eiskaltdcpp-qt:_ZNK15FileBrowserItem4dataEi
eiskaltdcpp-qt:_ZNK15SearchBlacklist10metaObjectEv
eiskaltdcpp-qt:_ZNK15SettingsHistory10metaObjectEv
eiskaltdcpp-qt:_ZNK15SettingsSharing10metaObjectEv
eiskaltdcpp-qt:_ZNK15ShortcutManager10metaObjectEv
eiskaltdcpp-qt:_ZNK15SideBarDelegate10metaObjectEv
eiskaltdcpp-qt:_ZNK15SideBarDelegate5paintEP8QPainterRK20QStyleOptionViewItemRK11QModelIndex
eiskaltdcpp-qt:_ZNK15SideBarDelegate8sizeHintERK20QStyleOptionViewItemRK11QModelIndex
eiskaltdcpp-qt:_ZNK16ActionCustomizer10metaObjectEv
eiskaltdcpp-qt:_ZNK16FavoriteHubModel10headerDataEiN2Qt11OrientationEi
eiskaltdcpp-qt:_ZNK16FavoriteHubModel10metaObjectEv
eiskaltdcpp-qt:_ZNK16FavoriteHubModel11columnCountERK11QModelIndex
eiskaltdcpp-qt:_ZNK16FavoriteHubModel20supportedDropActionsEv
eiskaltdcpp-qt:_ZNK16FavoriteHubModel4dataERK11QModelIndexi
eiskaltdcpp-qt:_ZNK16FavoriteHubModel5flagsERK11QModelIndex
eiskaltdcpp-qt:_ZNK16FavoriteHubModel5indexEiiRK11QModelIndex
eiskaltdcpp-qt:_ZNK16FavoriteHubModel6parentERK11QModelIndex
eiskaltdcpp-qt:_ZNK16FavoriteHubModel8rowCountERK11QModelIndex
eiskaltdcpp-qt:_ZNK16FavoriteUserItem10childCountEv
eiskaltdcpp-qt:_ZNK16FavoriteUserItem11columnCountEv
eiskaltdcpp-qt:_ZNK16FavoriteUserItem3rowEv
eiskaltdcpp-qt:_ZNK16FavoriteUserItem4dataEi
eiskaltdcpp-qt:_ZNK16FileBrowserModel10headerDataEiN2Qt11OrientationEi
eiskaltdcpp-qt:_ZNK16FileBrowserModel10metaObjectEv
eiskaltdcpp-qt:_ZNK16FileBrowserModel11columnCountERK11QModelIndex
eiskaltdcpp-qt:_ZNK16FileBrowserModel11getRootElemEv
eiskaltdcpp-qt:_ZNK16FileBrowserModel11hasChildrenERK11QModelIndex
eiskaltdcpp-qt:_ZNK16FileBrowserModel12canFetchMoreERK11QModelIndex
eiskaltdcpp-qt:_ZNK16FileBrowserModel12getSortOrderEv
eiskaltdcpp-qt:_ZNK16FileBrowserModel13getSortColumnEv
eiskaltdcpp-qt:_ZNK16FileBrowserModel16createRemotePathEP15FileBrowserItem
eiskaltdcpp-qt:_ZNK16FileBrowserModel4dataERK11QModelIndexi
eiskaltdcpp-qt:_ZNK16FileBrowserModel5indexEiiRK11QModelIndex
eiskaltdcpp-qt:_ZNK16FileBrowserModel6parentERK11QModelIndex
eiskaltdcpp-qt:_ZNK16FileBrowserModel8rowCountERK11QModelIndex
eiskaltdcpp-qt:_ZNK16MultiLineToolBar10metaObjectEv
eiskaltdcpp-qt:_ZNK16QueuedUsersModel10headerDataEiN2Qt11OrientationEi
eiskaltdcpp-qt:_ZNK16QueuedUsersModel10metaObjectEv
eiskaltdcpp-qt:_ZNK16QueuedUsersModel11columnCountERK11QModelIndex
eiskaltdcpp-qt:_ZNK16QueuedUsersModel4dataERK11QModelIndexi
eiskaltdcpp-qt:_ZNK16QueuedUsersModel5flagsERK11QModelIndex
eiskaltdcpp-qt:_ZNK16QueuedUsersModel5indexEiiRK11QModelIndex
eiskaltdcpp-qt:_ZNK16QueuedUsersModel6parentERK11QModelIndex
eiskaltdcpp-qt:_ZNK16QueuedUsersModel8rowCountERK11QModelIndex
eiskaltdcpp-qt:_ZNK16SearchProxyModel10metaObjectEv
eiskaltdcpp-qt:_ZNK16SettingsAdvanced10metaObjectEv
eiskaltdcpp-qt:_ZNK16SettingsPersonal10metaObjectEv
eiskaltdcpp-qt:_ZNK16TransferViewItem10childCountEv
eiskaltdcpp-qt:_ZNK16TransferViewItem11columnCountEv
eiskaltdcpp-qt:_ZNK16TransferViewItem3rowEv
eiskaltdcpp-qt:_ZNK16TransferViewItem4dataEi
eiskaltdcpp-qt:_ZNK17DownloadQueueItem10childCountEv
eiskaltdcpp-qt:_ZNK17DownloadQueueItem11columnCountEv
eiskaltdcpp-qt:_ZNK17DownloadQueueItem3rowEv
eiskaltdcpp-qt:_ZNK17DownloadQueueItem4dataEi
eiskaltdcpp-qt:_ZNK17FavoriteHubEditor10metaObjectEv
eiskaltdcpp-qt:_ZNK17IPFilterModelItem10childCountEv
eiskaltdcpp-qt:_ZNK17IPFilterModelItem11columnCountEv
eiskaltdcpp-qt:_ZNK17IPFilterModelItem3rowEv
eiskaltdcpp-qt:_ZNK17IPFilterModelItem4dataEi
eiskaltdcpp-qt:_ZNK17SettingsDownloads10metaObjectEv
eiskaltdcpp-qt:_ZNK17SettingsShortcuts10metaObjectEv
eiskaltdcpp-qt:_ZNK17TransferViewModel10headerDataEiN2Qt11OrientationEi
eiskaltdcpp-qt:_ZNK17TransferViewModel10metaObjectEv
eiskaltdcpp-qt:_ZNK17TransferViewModel11columnCountERK11QModelIndex
eiskaltdcpp-qt:_ZNK17TransferViewModel11hasChildrenERK11QModelIndex
eiskaltdcpp-qt:_ZNK17TransferViewModel12getSortOrderEv
eiskaltdcpp-qt:_ZNK17TransferViewModel13getSortColumnEv
eiskaltdcpp-qt:_ZNK17TransferViewModel4dataERK11QModelIndexi
eiskaltdcpp-qt:_ZNK17TransferViewModel5indexEiiRK11QModelIndex
eiskaltdcpp-qt:_ZNK17TransferViewModel6parentERK11QModelIndex
eiskaltdcpp-qt:_ZNK17TransferViewModel8rowCountERK11QModelIndex
eiskaltdcpp-qt:_ZNK18ArenaWidgetManager10metaObjectEv
eiskaltdcpp-qt:_ZNK18DownloadQueueModel10headerDataEiN2Qt11OrientationEi
eiskaltdcpp-qt:_ZNK18DownloadQueueModel10metaObjectEv
eiskaltdcpp-qt:_ZNK18DownloadQueueModel11columnCountERK11QModelIndex
eiskaltdcpp-qt:_ZNK18DownloadQueueModel11getRootElemEv
eiskaltdcpp-qt:_ZNK18DownloadQueueModel12getSortOrderEv
eiskaltdcpp-qt:_ZNK18DownloadQueueModel13getSortColumnEv
eiskaltdcpp-qt:_ZNK18DownloadQueueModel4dataERK11QModelIndexi
eiskaltdcpp-qt:_ZNK18DownloadQueueModel5indexEiiRK11QModelIndex
eiskaltdcpp-qt:_ZNK18DownloadQueueModel6parentERK11QModelIndex
eiskaltdcpp-qt:_ZNK18DownloadQueueModel8rowCountERK11QModelIndex
eiskaltdcpp-qt:_ZNK18EiskaltEventFilter10metaObjectEv
eiskaltdcpp-qt:_ZNK18FavoriteUsersModel10headerDataEiN2Qt11OrientationEi
eiskaltdcpp-qt:_ZNK18FavoriteUsersModel10metaObjectEv
eiskaltdcpp-qt:_ZNK18FavoriteUsersModel11columnCountERK11QModelIndex
eiskaltdcpp-qt:_ZNK18FavoriteUsersModel4dataERK11QModelIndexi
eiskaltdcpp-qt:_ZNK18FavoriteUsersModel5flagsERK11QModelIndex
eiskaltdcpp-qt:_ZNK18FavoriteUsersModel5indexEiiRK11QModelIndex
eiskaltdcpp-qt:_ZNK18FavoriteUsersModel6parentERK11QModelIndex
eiskaltdcpp-qt:_ZNK18FavoriteUsersModel8getUsersEv
eiskaltdcpp-qt:_ZNK18FavoriteUsersModel8rowCountERK11QModelIndex
eiskaltdcpp-qt:_ZNK18SettingsConnection10metaObjectEv
eiskaltdcpp-qt:_ZNK18ShareBrowserSearch10metaObjectEv
eiskaltdcpp-qt:_ZNK18ShellCommandRunner10metaObjectEv
eiskaltdcpp-qt:_ZNK18UserListProxyModel10metaObjectEv
eiskaltdcpp-qt:_ZNK19AutoToolTipDelegate10metaObjectEv
eiskaltdcpp-qt:_ZNK19NickCompletionModel10metaObjectEv
eiskaltdcpp-qt:_ZNK19PublicHubProxyModel10metaObjectEv
eiskaltdcpp-qt:_ZNK19SearchBlackListItem10childCountEv
eiskaltdcpp-qt:_ZNK19SearchBlackListItem11columnCountEv
eiskaltdcpp-qt:_ZNK19SearchBlackListItem3rowEv
eiskaltdcpp-qt:_ZNK19SearchBlackListItem4dataEi
eiskaltdcpp-qt:_ZNK20SearchBlackListModel10headerDataEiN2Qt11OrientationEi
eiskaltdcpp-qt:_ZNK20SearchBlackListModel10metaObjectEv
eiskaltdcpp-qt:_ZNK20SearchBlackListModel11columnCountERK11QModelIndex
eiskaltdcpp-qt:_ZNK20SearchBlackListModel13getSortColumnEv
eiskaltdcpp-qt:_ZNK20SearchBlackListModel4dataERK11QModelIndexi
eiskaltdcpp-qt:_ZNK20SearchBlackListModel5flagsERK11QModelIndex
eiskaltdcpp-qt:_ZNK20SearchBlackListModel5indexEiiRK11QModelIndex
eiskaltdcpp-qt:_ZNK20SearchBlackListModel6parentERK11QModelIndex
eiskaltdcpp-qt:_ZNK20SearchBlackListModel8rowCountERK11QModelIndex
eiskaltdcpp-qt:_ZNK20SettingsNotification10metaObjectEv
eiskaltdcpp-qt:_ZNK20TransferViewDelegate10metaObjectEv
eiskaltdcpp-qt:_ZNK20TransferViewDelegate5paintEP8QPainterRK20QStyleOptionViewItemRK11QModelIndex
eiskaltdcpp-qt:_ZNK21DownloadQueueDelegate10metaObjectEv
eiskaltdcpp-qt:_ZNK21DownloadQueueDelegate5paintEP8QPainterRK20QStyleOptionViewItemRK11QModelIndex
eiskaltdcpp-qt:_ZNK21FinishedTransferProxy10metaObjectEv
eiskaltdcpp-qt:_ZNK21FinishedTransfersItem10childCountEv
eiskaltdcpp-qt:_ZNK21FinishedTransfersItem11columnCountEv
eiskaltdcpp-qt:_ZNK21FinishedTransfersItem3rowEv
eiskaltdcpp-qt:_ZNK21FinishedTransfersItem4dataEi
eiskaltdcpp-qt:_ZNK21FinishedTransfersItem6parentEv
eiskaltdcpp-qt:_ZNK21SearchBlackListDialog10metaObjectEv
eiskaltdcpp-qt:_ZNK21SearchStringListModel4dataERK11QModelIndexi
eiskaltdcpp-qt:_ZNK22FinishedTransfersModel10headerDataEiN2Qt11OrientationEi
eiskaltdcpp-qt:_ZNK22FinishedTransfersModel10metaObjectEv
eiskaltdcpp-qt:_ZNK22FinishedTransfersModel11columnCountERK11QModelIndex
eiskaltdcpp-qt:_ZNK22FinishedTransfersModel4dataERK11QModelIndexi
eiskaltdcpp-qt:_ZNK22FinishedTransfersModel5flagsERK11QModelIndex
eiskaltdcpp-qt:_ZNK22FinishedTransfersModel5indexEiiRK11QModelIndex
eiskaltdcpp-qt:_ZNK22FinishedTransfersModel6parentERK11QModelIndex
eiskaltdcpp-qt:_ZNK22FinishedTransfersModel8rowCountERK11QModelIndex
eiskaltdcpp-qt:_ZNK23QtSingleCoreApplication10metaObjectEv
eiskaltdcpp-qt:_ZNK23SearchBlackListDelegate10metaObjectEv
eiskaltdcpp-qt:_ZNK23SearchBlackListDelegate12createEditorEP7QWidgetRK20QStyleOptionViewItemRK11QModelIndex
eiskaltdcpp-qt:_ZNK23SearchBlackListDelegate12setModelDataEP7QWidgetP18QAbstractItemModelRK11QModelIndex
eiskaltdcpp-qt:_ZNK23SearchBlackListDelegate13setEditorDataEP7QWidgetRK11QModelIndex
eiskaltdcpp-qt:_ZNK23SearchBlackListDelegate20updateEditorGeometryEP7QWidgetRK20QStyleOptionViewItemRK11QModelIndex
eiskaltdcpp-qt:_ZNK26FinishedTransferProxyModel10metaObjectEv
eiskaltdcpp-qt:_ZNK4ADLS10metaObjectEv
eiskaltdcpp-qt:_ZNK5About10metaObjectEv
eiskaltdcpp-qt:_ZNK6Magnet10metaObjectEv
eiskaltdcpp-qt:_ZNK6UCItem10childCountEv
eiskaltdcpp-qt:_ZNK6UCItem11columnCountEv
eiskaltdcpp-qt:_ZNK6UCItem3rowEv
eiskaltdcpp-qt:_ZNK7SpyItem10childCountEv
eiskaltdcpp-qt:_ZNK7SpyItem11columnCountEv
eiskaltdcpp-qt:_ZNK7SpyItem3rowEv
eiskaltdcpp-qt:_ZNK7SpyItem4dataEi
eiskaltdcpp-qt:_ZNK7SpyItem6parentEv
eiskaltdcpp-qt:_ZNK7ToolBar10metaObjectEv
eiskaltdcpp-qt:_ZNK7ToolBar9hasWidgetEP11ArenaWidget
eiskaltdcpp-qt:_ZNK7UCModel10headerDataEiN2Qt11OrientationEi
eiskaltdcpp-qt:_ZNK7UCModel10metaObjectEv
eiskaltdcpp-qt:_ZNK7UCModel11columnCountERK11QModelIndex
eiskaltdcpp-qt:_ZNK7UCModel4dataERK11QModelIndexi
eiskaltdcpp-qt:_ZNK7UCModel5flagsERK11QModelIndex
eiskaltdcpp-qt:_ZNK7UCModel5indexEiiRK11QModelIndex
eiskaltdcpp-qt:_ZNK7UCModel6parentERK11QModelIndex
eiskaltdcpp-qt:_ZNK7UCModel8rowCountERK11QModelIndex
eiskaltdcpp-qt:_ZNK8ADLSItem10childCountEv
eiskaltdcpp-qt:_ZNK8ADLSItem11columnCountEv
eiskaltdcpp-qt:_ZNK8ADLSItem3rowEv
eiskaltdcpp-qt:_ZNK8ADLSItem4dataEi
eiskaltdcpp-qt:_ZNK8AntiSpam10metaObjectEv
eiskaltdcpp-qt:_ZNK8AntiSpam11getAttemptsEv
eiskaltdcpp-qt:_ZNK8AntiSpam11isInSandBoxERK7QString
eiskaltdcpp-qt:_ZNK8AntiSpam7isInAnyERK7QString
eiskaltdcpp-qt:_ZNK8AntiSpam8isInGrayERK7QString
eiskaltdcpp-qt:_ZNK8AntiSpam9getPhraseEv
eiskaltdcpp-qt:_ZNK8AntiSpam9isInBlackERK7QString
eiskaltdcpp-qt:_ZNK8AntiSpam9isInWhiteERK7QString
eiskaltdcpp-qt:_ZNK8ChatEdit10metaObjectEv
eiskaltdcpp-qt:_ZNK8ChatEdit15minimumSizeHintEv
eiskaltdcpp-qt:_ZNK8ChatEdit15textUnderCursorEv
eiskaltdcpp-qt:_ZNK8ChatEdit8sizeHintEv
eiskaltdcpp-qt:_ZNK8CmdDebug10metaObjectEv
eiskaltdcpp-qt:_ZNK8HubFrame10metaObjectEv
eiskaltdcpp-qt:_ZNK8HubFrame11isConnectedEv
eiskaltdcpp-qt:_ZNK8HubFrame12getStatisticERyS0_
eiskaltdcpp-qt:_ZNK8HubFrame4Menu14getLastUserCmdEv
eiskaltdcpp-qt:_ZNK8LineEdit10metaObjectEv
eiskaltdcpp-qt:_ZNK8LineEdit10sizePolicyEv
eiskaltdcpp-qt:_ZNK8LineEdit8sizeHintEv
eiskaltdcpp-qt:_ZNK8PMWindow10metaObjectEv
eiskaltdcpp-qt:_ZNK8PMWindow11inputWidgetEv
eiskaltdcpp-qt:_ZNK8PMWindow4roleEv
eiskaltdcpp-qt:_ZNK8Settings10metaObjectEv
eiskaltdcpp-qt:_ZNK8SpyFrame10metaObjectEv
eiskaltdcpp-qt:_ZNK8SpyModel10headerDataEiN2Qt11OrientationEi
eiskaltdcpp-qt:_ZNK8SpyModel10metaObjectEv
eiskaltdcpp-qt:_ZNK8SpyModel11columnCountERK11QModelIndex
eiskaltdcpp-qt:_ZNK8SpyModel4dataERK11QModelIndexi
eiskaltdcpp-qt:_ZNK8SpyModel5flagsERK11QModelIndex
eiskaltdcpp-qt:_ZNK8SpyModel5indexEiiRK11QModelIndex
eiskaltdcpp-qt:_ZNK8SpyModel6parentERK11QModelIndex
eiskaltdcpp-qt:_ZNK8SpyModel8rowCountERK11QModelIndex
eiskaltdcpp-qt:_ZNK8TabFrame10metaObjectEv
eiskaltdcpp-qt:_ZNK8TabFrame15minimumSizeHintEv
eiskaltdcpp-qt:_ZNK8TabFrame8sizeHintEv
eiskaltdcpp-qt:_ZNK8TabFrame9hasWidgetEP11ArenaWidget
eiskaltdcpp-qt:_ZNK8UCDialog10metaObjectEv
eiskaltdcpp-qt:_ZNK8UCDialog6getCmdEv
eiskaltdcpp-qt:_ZNK8UCDialog6getCtxEv
eiskaltdcpp-qt:_ZNK8UCDialog6getHubEv
eiskaltdcpp-qt:_ZNK8UCDialog7getNameEv
eiskaltdcpp-qt:_ZNK9ADLSModel10headerDataEiN2Qt11OrientationEi
eiskaltdcpp-qt:_ZNK9ADLSModel10metaObjectEv
eiskaltdcpp-qt:_ZNK9ADLSModel11columnCountERK11QModelIndex
eiskaltdcpp-qt:_ZNK9ADLSModel20supportedDropActionsEv
eiskaltdcpp-qt:_ZNK9ADLSModel4dataERK11QModelIndexi
eiskaltdcpp-qt:_ZNK9ADLSModel5flagsERK11QModelIndex
eiskaltdcpp-qt:_ZNK9ADLSModel5indexEiiRK11QModelIndex
eiskaltdcpp-qt:_ZNK9ADLSModel6parentERK11QModelIndex
eiskaltdcpp-qt:_ZNK9ADLSModel8rowCountERK11QModelIndex
eiskaltdcpp-qt:_ZNK9Secretary10metaObjectEv
eiskaltdcpp-qt:_ZNK9TabButton10metaObjectEv
eiskaltdcpp-qt:_ZNK9TabButton11normalWidthEv
eiskaltdcpp-qt:_ZNK9TabButton12normalHeightEv
eiskaltdcpp-qt:_ZNK9TabButton8sizeHintEv
eiskaltdcpp-qt:_ZThn112_N8SpyFrameD0Ev
eiskaltdcpp-qt:_ZThn112_N8SpyFrameD1Ev
eiskaltdcpp-qt:_ZThn120_N10PublicHubs2onEN4dcpp23FavoriteManagerListener1XILi0EEERKNSt7__cxx1112basic_stringIcSt11char_traitsIcESaIcEEE
eiskaltdcpp-qt:_ZThn120_N10PublicHubs2onEN4dcpp23FavoriteManagerListener1XILi1EEERKNSt7__cxx1112basic_stringIcSt11char_traitsIcESaIcEEE
eiskaltdcpp-qt:_ZThn120_N10PublicHubs2onEN4dcpp23FavoriteManagerListener1XILi2EEERKNSt7__cxx1112basic_stringIcSt11char_traitsIcESaIcEEE
eiskaltdcpp-qt:_ZThn120_N10PublicHubs2onEN4dcpp23FavoriteManagerListener1XILi8EEERKNSt7__cxx1112basic_stringIcSt11char_traitsIcESaIcEEESB_
eiskaltdcpp-qt:_ZThn120_N10PublicHubs2onEN4dcpp23FavoriteManagerListener1XILi9EEERKNSt7__cxx1112basic_stringIcSt11char_traitsIcESaIcEEE
eiskaltdcpp-qt:_ZThn120_N10PublicHubsD0Ev
eiskaltdcpp-qt:_ZThn120_N10PublicHubsD1Ev
eiskaltdcpp-qt:_ZThn120_N8SpyFrame2onEN4dcpp21ClientManagerListener1XILi3EEERKNSt7__cxx1112basic_stringIcSt11char_traitsIcESaIcEEE
eiskaltdcpp-qt:_ZThn120_N8SpyFrameD0Ev
eiskaltdcpp-qt:_ZThn120_N8SpyFrameD1Ev
eiskaltdcpp-qt:_ZThn128_N11QueuedUsersD0Ev
eiskaltdcpp-qt:_ZThn128_N11QueuedUsersD1Ev
eiskaltdcpp-qt:_ZThn136_N11QueuedUsers2onEN4dcpp21UploadManagerListener1XILi4EEERKNS0_10HintedUserERKNSt7__cxx1112basic_stringIcSt11char_traitsIcESaIcEEE
eiskaltdcpp-qt:_ZThn136_N11QueuedUsers2onEN4dcpp21UploadManagerListener1XILi5EEERKNS0_10HintedUserE
eiskaltdcpp-qt:_ZThn136_N11QueuedUsersD0Ev
eiskaltdcpp-qt:_ZThn136_N11QueuedUsersD1Ev
eiskaltdcpp-qt:_ZThn136_N12FavoriteHubs13getArenaTitleEv
eiskaltdcpp-qt:_ZThn136_N12FavoriteHubs18getArenaShortTitleEv
eiskaltdcpp-qt:_ZThn136_N12FavoriteHubs7getMenuEv
eiskaltdcpp-qt:_ZThn136_N12FavoriteHubs9getWidgetEv
eiskaltdcpp-qt:_ZThn136_N12FavoriteHubsD0Ev
eiskaltdcpp-qt:_ZThn136_N12FavoriteHubsD1Ev
eiskaltdcpp-qt:_ZThn136_N4ADLS13getArenaTitleEv
eiskaltdcpp-qt:_ZThn136_N4ADLS18getArenaShortTitleEv
eiskaltdcpp-qt:_ZThn136_N4ADLS7getMenuEv
eiskaltdcpp-qt:_ZThn136_N4ADLS9getWidgetEv
eiskaltdcpp-qt:_ZThn136_N4ADLSD0Ev
eiskaltdcpp-qt:_ZThn136_N4ADLSD1Ev
eiskaltdcpp-qt:_ZThn168_N13DownloadQueue2onEN4dcpp20QueueManagerListener1XILi0EEEPNS0_9QueueItemE
eiskaltdcpp-qt:_ZThn168_N13DownloadQueue2onEN4dcpp20QueueManagerListener1XILi2EEEPNS0_9QueueItemE
eiskaltdcpp-qt:_ZThn168_N13DownloadQueue2onEN4dcpp20QueueManagerListener1XILi3EEEPNS0_9QueueItemERKNSt7__cxx1112basic_stringIcSt11char_traitsIcESaIcEEE
eiskaltdcpp-qt:_ZThn168_N13DownloadQueue2onEN4dcpp20QueueManagerListener1XILi4EEEPNS0_9QueueItemE
eiskaltdcpp-qt:_ZThn168_N13DownloadQueue2onEN4dcpp20QueueManagerListener1XILi5EEEPNS0_9QueueItemE
eiskaltdcpp-qt:_ZThn168_N13DownloadQueueD0Ev
eiskaltdcpp-qt:_ZThn168_N13DownloadQueueD1Ev
eiskaltdcpp-qt:_ZThn16_N10FileHasherD0Ev
eiskaltdcpp-qt:_ZThn16_N10FileHasherD1Ev
eiskaltdcpp-qt:_ZThn16_N10FlowLayout11setGeometryERK5QRect
eiskaltdcpp-qt:_ZThn16_N10FlowLayoutD0Ev
eiskaltdcpp-qt:_ZThn16_N10FlowLayoutD1Ev
eiskaltdcpp-qt:_ZThn16_N10HubManagerD0Ev
eiskaltdcpp-qt:_ZThn16_N10HubManagerD1Ev
eiskaltdcpp-qt:_ZThn16_N10MainWindowD0Ev
eiskaltdcpp-qt:_ZThn16_N10MainWindowD1Ev
eiskaltdcpp-qt:_ZThn16_N10PublicHubsD0Ev
eiskaltdcpp-qt:_ZThn16_N10PublicHubsD1Ev
eiskaltdcpp-qt:_ZThn16_N10SettingsUCD0Ev
eiskaltdcpp-qt:_ZThn16_N10SettingsUCD1Ev
eiskaltdcpp-qt:_ZThn16_N10WulforUtilD0Ev
eiskaltdcpp-qt:_ZThn16_N10WulforUtilD1Ev
eiskaltdcpp-qt:_ZThn16_N11GlobalTimerD0Ev
eiskaltdcpp-qt:_ZThn16_N11GlobalTimerD1Ev
eiskaltdcpp-qt:_ZThn16_N11QueuedUsersD0Ev
eiskaltdcpp-qt:_ZThn16_N11QueuedUsersD1Ev
eiskaltdcpp-qt:_ZThn16_N11SearchFrameD0Ev
eiskaltdcpp-qt:_ZThn16_N11SearchFrameD1Ev
eiskaltdcpp-qt:_ZThn16_N11SettingsGUID0Ev
eiskaltdcpp-qt:_ZThn16_N11SettingsGUID1Ev
eiskaltdcpp-qt:_ZThn16_N11SideBarViewD0Ev
eiskaltdcpp-qt:_ZThn16_N11SideBarViewD1Ev
eiskaltdcpp-qt:_ZThn16_N12FavoriteHubsD0Ev
eiskaltdcpp-qt:_ZThn16_N12FavoriteHubsD1Ev
eiskaltdcpp-qt:_ZThn16_N12HashProgressD0Ev
eiskaltdcpp-qt:_ZThn16_N12HashProgressD1Ev
eiskaltdcpp-qt:_ZThn16_N12NotificationD0Ev
eiskaltdcpp-qt:_ZThn16_N12NotificationD1Ev
eiskaltdcpp-qt:_ZThn16_N12QuickConnectD0Ev
eiskaltdcpp-qt:_ZThn16_N12QuickConnectD1Ev
eiskaltdcpp-qt:_ZThn16_N12ScriptWidget13getArenaTitleEv
eiskaltdcpp-qt:_ZThn16_N12ScriptWidget18getArenaShortTitleEv
eiskaltdcpp-qt:_ZThn16_N12ScriptWidget7getMenuEv
eiskaltdcpp-qt:_ZThn16_N12ScriptWidget9getPixmapEv
eiskaltdcpp-qt:_ZThn16_N12ScriptWidget9getWidgetEv
eiskaltdcpp-qt:_ZThn16_N12ScriptWidgetD0Ev
eiskaltdcpp-qt:_ZThn16_N12ScriptWidgetD1Ev
eiskaltdcpp-qt:_ZThn16_N12ShareBrowserD0Ev
eiskaltdcpp-qt:_ZThn16_N12ShareBrowserD1Ev
eiskaltdcpp-qt:_ZThn16_N12TransferViewD0Ev
eiskaltdcpp-qt:_ZThn16_N12TransferViewD1Ev
eiskaltdcpp-qt:_ZThn16_N13AntiSpamFrameD0Ev
eiskaltdcpp-qt:_ZThn16_N13AntiSpamFrameD1Ev
eiskaltdcpp-qt:_ZThn16_N13DownloadQueueD0Ev
eiskaltdcpp-qt:_ZThn16_N13DownloadQueueD1Ev
eiskaltdcpp-qt:_ZThn16_N13FavoriteUsersD0Ev
eiskaltdcpp-qt:_ZThn16_N13FavoriteUsersD1Ev
eiskaltdcpp-qt:_ZThn16_N13IPFilterFrameD0Ev
eiskaltdcpp-qt:_ZThn16_N13IPFilterFrameD1Ev
eiskaltdcpp-qt:_ZThn16_N14EmoticonDialogD0Ev
eiskaltdcpp-qt:_ZThn16_N14EmoticonDialogD1Ev
eiskaltdcpp-qt:_ZThn16_N14WulforSettingsD0Ev
eiskaltdcpp-qt:_ZThn16_N14WulforSettingsD1Ev
eiskaltdcpp-qt:_ZThn16_N15EmoticonFactoryD0Ev
eiskaltdcpp-qt:_ZThn16_N15EmoticonFactoryD1Ev
eiskaltdcpp-qt:_ZThn16_N15SearchBlacklistD0Ev
eiskaltdcpp-qt:_ZThn16_N15SearchBlacklistD1Ev
eiskaltdcpp-qt:_ZThn16_N15SettingsHistoryD0Ev
eiskaltdcpp-qt:_ZThn16_N15SettingsHistoryD1Ev
eiskaltdcpp-qt:_ZThn16_N15SettingsSharingD0Ev
eiskaltdcpp-qt:_ZThn16_N15SettingsSharingD1Ev
eiskaltdcpp-qt:_ZThn16_N15ShortcutManagerD0Ev
eiskaltdcpp-qt:_ZThn16_N15ShortcutManagerD1Ev
eiskaltdcpp-qt:_ZThn16_N16MultiLineToolBarD0Ev
eiskaltdcpp-qt:_ZThn16_N16MultiLineToolBarD1Ev
eiskaltdcpp-qt:_ZThn16_N16SettingsAdvancedD0Ev
eiskaltdcpp-qt:_ZThn16_N16SettingsAdvancedD1Ev
eiskaltdcpp-qt:_ZThn16_N16SettingsPersonalD0Ev
eiskaltdcpp-qt:_ZThn16_N16SettingsPersonalD1Ev
eiskaltdcpp-qt:_ZThn16_N17SettingsDownloadsD0Ev
eiskaltdcpp-qt:_ZThn16_N17SettingsDownloadsD1Ev
eiskaltdcpp-qt:_ZThn16_N17SettingsShortcutsD0Ev
eiskaltdcpp-qt:_ZThn16_N17SettingsShortcutsD1Ev
eiskaltdcpp-qt:_ZThn16_N18ArenaWidgetManagerD0Ev
eiskaltdcpp-qt:_ZThn16_N18ArenaWidgetManagerD1Ev
eiskaltdcpp-qt:_ZThn16_N18ShareBrowserSearchD0Ev
eiskaltdcpp-qt:_ZThn16_N18ShareBrowserSearchD1Ev
eiskaltdcpp-qt:_ZThn16_N21SearchBlackListDialogD0Ev
eiskaltdcpp-qt:_ZThn16_N21SearchBlackListDialogD1Ev
eiskaltdcpp-qt:_ZThn16_N4ADLSD0Ev
eiskaltdcpp-qt:_ZThn16_N4ADLSD1Ev
eiskaltdcpp-qt:_ZThn16_N6MagnetD0Ev
eiskaltdcpp-qt:_ZThn16_N6MagnetD1Ev
eiskaltdcpp-qt:_ZThn16_N7ToolBarD0Ev
eiskaltdcpp-qt:_ZThn16_N7ToolBarD1Ev
eiskaltdcpp-qt:_ZThn16_N8AntiSpamD0Ev
eiskaltdcpp-qt:_ZThn16_N8AntiSpamD1Ev
eiskaltdcpp-qt:_ZThn16_N8ChatEditD0Ev
eiskaltdcpp-qt:_ZThn16_N8ChatEditD1Ev
eiskaltdcpp-qt:_ZThn16_N8CmdDebugD0Ev
eiskaltdcpp-qt:_ZThn16_N8CmdDebugD1Ev
eiskaltdcpp-qt:_ZThn16_N8HubFrameD0Ev
eiskaltdcpp-qt:_ZThn16_N8HubFrameD1Ev
eiskaltdcpp-qt:_ZThn16_N8LineEditD0Ev
eiskaltdcpp-qt:_ZThn16_N8LineEditD1Ev
eiskaltdcpp-qt:_ZThn16_N8PMWindowD0Ev
eiskaltdcpp-qt:_ZThn16_N8PMWindowD1Ev
eiskaltdcpp-qt:_ZThn16_N8SettingsD0Ev
eiskaltdcpp-qt:_ZThn16_N8SettingsD1Ev
eiskaltdcpp-qt:_ZThn16_N8SpyFrameD0Ev
eiskaltdcpp-qt:_ZThn16_N8SpyFrameD1Ev
eiskaltdcpp-qt:_ZThn16_N8TabFrameD0Ev
eiskaltdcpp-qt:_ZThn16_N8TabFrameD1Ev
eiskaltdcpp-qt:_ZThn16_N9SecretaryD0Ev
eiskaltdcpp-qt:_ZThn16_N9SecretaryD1Ev
eiskaltdcpp-qt:_ZThn16_NK10FlowLayout11minimumSizeEv
eiskaltdcpp-qt:_ZThn16_NK10FlowLayout14heightForWidthEi
eiskaltdcpp-qt:_ZThn16_NK10FlowLayout17hasHeightForWidthEv
eiskaltdcpp-qt:_ZThn16_NK10FlowLayout19expandingDirectionsEv
eiskaltdcpp-qt:_ZThn16_NK10FlowLayout8sizeHintEv
eiskaltdcpp-qt:_ZThn176_N13DownloadQueueD0Ev
eiskaltdcpp-qt:_ZThn176_N13DownloadQueueD1Ev
eiskaltdcpp-qt:_ZThn200_N12FavoriteHubs2onEN4dcpp23FavoriteManagerListener1XILi3EEEPNS0_16FavoriteHubEntryE
eiskaltdcpp-qt:_ZThn200_N12FavoriteHubs2onEN4dcpp23FavoriteManagerListener1XILi4EEEPNS0_16FavoriteHubEntryE
eiskaltdcpp-qt:_ZThn200_N12FavoriteHubsD0Ev
eiskaltdcpp-qt:_ZThn200_N12FavoriteHubsD1Ev
eiskaltdcpp-qt:_ZThn200_N4ADLSD0Ev
eiskaltdcpp-qt:_ZThn200_N4ADLSD1Ev
eiskaltdcpp-qt:_ZThn208_N12FavoriteHubsD0Ev
eiskaltdcpp-qt:_ZThn208_N12FavoriteHubsD1Ev
eiskaltdcpp-qt:_ZThn216_N8PMWindow12requestClearEv
eiskaltdcpp-qt:_ZThn216_N8PMWindow12requestFocusEv
eiskaltdcpp-qt:_ZThn216_N8PMWindow13getArenaTitleEv
eiskaltdcpp-qt:_ZThn216_N8PMWindow13requestFilterEv
eiskaltdcpp-qt:_ZThn216_N8PMWindow18getArenaShortTitleEv
eiskaltdcpp-qt:_ZThn216_N8PMWindow7getMenuEv
eiskaltdcpp-qt:_ZThn216_N8PMWindow9getPixmapEv
eiskaltdcpp-qt:_ZThn216_N8PMWindow9getWidgetEv
eiskaltdcpp-qt:_ZThn216_N8PMWindowD0Ev
eiskaltdcpp-qt:_ZThn216_N8PMWindowD1Ev
eiskaltdcpp-qt:_ZThn216_NK8PMWindow4roleEv
eiskaltdcpp-qt:_ZThn224_N16SettingsPersonal2okEv
eiskaltdcpp-qt:_ZThn248_N8CmdDebug13getArenaTitleEv
eiskaltdcpp-qt:_ZThn248_N8CmdDebug18getArenaShortTitleEv
eiskaltdcpp-qt:_ZThn248_N8CmdDebug7getMenuEv
eiskaltdcpp-qt:_ZThn248_N8CmdDebug9getWidgetEv
eiskaltdcpp-qt:_ZThn248_N8CmdDebugD0Ev
eiskaltdcpp-qt:_ZThn248_N8CmdDebugD1Ev
eiskaltdcpp-qt:_ZThn272_N8HubFrame2onEN4dcpp14ClientListener1XILi0EEEPNS0_6ClientE
eiskaltdcpp-qt:_ZThn272_N8HubFrame2onEN4dcpp14ClientListener1XILi11EEEPNS0_6ClientERKNS0_11ChatMessageE
eiskaltdcpp-qt:_ZThn272_N8HubFrame2onEN4dcpp14ClientListener1XILi12EEEPNS0_6ClientERKNSt7__cxx1112basic_stringIcSt11char_traitsIcESaIcEEEi
eiskaltdcpp-qt:_ZThn272_N8HubFrame2onEN4dcpp14ClientListener1XILi15EEEPNS0_6ClientE
eiskaltdcpp-qt:_ZThn272_N8HubFrame2onEN4dcpp14ClientListener1XILi16EEEPNS0_6ClientERKNSt7__cxx1112basic_stringIcSt11char_traitsIcESaIcEEE
eiskaltdcpp-qt:_ZThn272_N8HubFrame2onEN4dcpp14ClientListener1XILi1EEEPNS0_6ClientE
eiskaltdcpp-qt:_ZThn272_N8HubFrame2onEN4dcpp14ClientListener1XILi3EEEPNS0_6ClientERKNS0_10OnlineUserE
eiskaltdcpp-qt:_ZThn272_N8HubFrame2onEN4dcpp14ClientListener1XILi4EEEPNS0_6ClientERKSt6vectorIPNS0_10OnlineUserESaIS8_EE
eiskaltdcpp-qt:_ZThn272_N8HubFrame2onEN4dcpp14ClientListener1XILi5EEEPNS0_6ClientERKNS0_10OnlineUserE
eiskaltdcpp-qt:_ZThn272_N8HubFrame2onEN4dcpp14ClientListener1XILi6EEEPNS0_6ClientERKNSt7__cxx1112basic_stringIcSt11char_traitsIcESaIcEEE
eiskaltdcpp-qt:_ZThn272_N8HubFrame2onEN4dcpp14ClientListener1XILi7EEEPNS0_6ClientERKNSt7__cxx1112basic_stringIcSt11char_traitsIcESaIcEEE
eiskaltdcpp-qt:_ZThn272_N8HubFrame2onEN4dcpp14ClientListener1XILi8EEEPNS0_6ClientE
eiskaltdcpp-qt:_ZThn272_N8HubFrame2onEN4dcpp14ClientListener1XILi9EEEPNS0_6ClientE
eiskaltdcpp-qt:_ZThn272_N8HubFrameD0Ev
eiskaltdcpp-qt:_ZThn272_N8HubFrameD1Ev
eiskaltdcpp-qt:_ZThn280_N8HubFrame2onEN4dcpp23FavoriteManagerListener1XILi5EEERKNS0_12FavoriteUserE
eiskaltdcpp-qt:_ZThn280_N8HubFrame2onEN4dcpp23FavoriteManagerListener1XILi6EEERKNS0_12FavoriteUserE
eiskaltdcpp-qt:_ZThn280_N8HubFrameD0Ev
eiskaltdcpp-qt:_ZThn280_N8HubFrameD1Ev
eiskaltdcpp-qt:_ZThn288_N8HubFrame13getArenaTitleEv
eiskaltdcpp-qt:_ZThn288_N8HubFrame18getArenaShortTitleEv
eiskaltdcpp-qt:_ZThn288_N8HubFrame7getMenuEv
eiskaltdcpp-qt:_ZThn288_N8HubFrame9getPixmapEv
eiskaltdcpp-qt:_ZThn288_N8HubFrame9getWidgetEv
eiskaltdcpp-qt:_ZThn288_N8HubFrameD0Ev
eiskaltdcpp-qt:_ZThn288_N8HubFrameD1Ev
eiskaltdcpp-qt:_ZThn288_N9SecretaryD0Ev
eiskaltdcpp-qt:_ZThn288_N9SecretaryD1Ev
eiskaltdcpp-qt:_ZThn296_N9Secretary13getArenaTitleEv
eiskaltdcpp-qt:_ZThn296_N9Secretary18getArenaShortTitleEv
eiskaltdcpp-qt:_ZThn296_N9Secretary7getMenuEv
eiskaltdcpp-qt:_ZThn296_N9Secretary9getWidgetEv
eiskaltdcpp-qt:_ZThn296_N9SecretaryD0Ev
eiskaltdcpp-qt:_ZThn296_N9SecretaryD1Ev
eiskaltdcpp-qt:_ZThn312_N8CmdDebugD0Ev
eiskaltdcpp-qt:_ZThn312_N8CmdDebugD1Ev
eiskaltdcpp-qt:_ZThn320_N8CmdDebug2onEN4dcpp20DebugManagerListener1XILi0EEERKNSt7__cxx1112basic_stringIcSt11char_traitsIcESaIcEEEiSB_
eiskaltdcpp-qt:_ZThn320_N8CmdDebug2onEN4dcpp20DebugManagerListener1XILi1EEERKNSt7__cxx1112basic_stringIcSt11char_traitsIcESaIcEEE
eiskaltdcpp-qt:_ZThn408_N11SearchFrame2onEN4dcpp21SearchManagerListener1XILi0EEERKNS0_13intrusive_ptrINS0_12SearchResultEEE
eiskaltdcpp-qt:_ZThn408_N11SearchFrameD0Ev
eiskaltdcpp-qt:_ZThn408_N11SearchFrameD1Ev
eiskaltdcpp-qt:_ZThn416_N11SearchFrame2onEN4dcpp21ClientManagerListener1XILi4EEEPNS0_6ClientE
eiskaltdcpp-qt:_ZThn416_N11SearchFrame2onEN4dcpp21ClientManagerListener1XILi5EEEPNS0_6ClientE
eiskaltdcpp-qt:_ZThn416_N11SearchFrame2onEN4dcpp21ClientManagerListener1XILi6EEEPNS0_6ClientE
eiskaltdcpp-qt:_ZThn416_N11SearchFrameD0Ev
eiskaltdcpp-qt:_ZThn416_N11SearchFrameD1Ev
eiskaltdcpp-qt:_ZThn48_N10MainWindowD0Ev
eiskaltdcpp-qt:_ZThn48_N10MainWindowD1Ev
eiskaltdcpp-qt:_ZThn48_N10PublicHubsD0Ev
eiskaltdcpp-qt:_ZThn48_N10PublicHubsD1Ev
eiskaltdcpp-qt:_ZThn48_N11QueuedUsersD0Ev
eiskaltdcpp-qt:_ZThn48_N11QueuedUsersD1Ev
eiskaltdcpp-qt:_ZThn48_N11SearchFrame13getArenaTitleEv
eiskaltdcpp-qt:_ZThn48_N11SearchFrame18getArenaShortTitleEv
eiskaltdcpp-qt:_ZThn48_N11SearchFrame7getMenuEv
eiskaltdcpp-qt:_ZThn48_N11SearchFrame9getPixmapEv
eiskaltdcpp-qt:_ZThn48_N11SearchFrame9getWidgetEv
eiskaltdcpp-qt:_ZThn48_N11SearchFrameD0Ev
eiskaltdcpp-qt:_ZThn48_N11SearchFrameD1Ev
eiskaltdcpp-qt:_ZThn48_N12ShareBrowser13getArenaTitleEv
eiskaltdcpp-qt:_ZThn48_N12ShareBrowser18getArenaShortTitleEv
eiskaltdcpp-qt:_ZThn48_N12ShareBrowser7getMenuEv
eiskaltdcpp-qt:_ZThn48_N12ShareBrowser9getWidgetEv
eiskaltdcpp-qt:_ZThn48_N12ShareBrowserD0Ev
eiskaltdcpp-qt:_ZThn48_N12ShareBrowserD1Ev
eiskaltdcpp-qt:_ZThn48_N13DownloadQueueD0Ev
eiskaltdcpp-qt:_ZThn48_N13DownloadQueueD1Ev
eiskaltdcpp-qt:_ZThn48_N13FavoriteUsersD0Ev
eiskaltdcpp-qt:_ZThn48_N13FavoriteUsersD1Ev
eiskaltdcpp-qt:_ZThn48_N8SpyFrameD0Ev
eiskaltdcpp-qt:_ZThn48_N8SpyFrameD1Ev
eiskaltdcpp-qt:_ZThn56_N10MainWindow2onEN4dcpp18LogManagerListener1XILi0EEElRKNSt7__cxx1112basic_stringIcSt11char_traitsIcESaIcEEE
eiskaltdcpp-qt:_ZThn56_N10MainWindowD0Ev
eiskaltdcpp-qt:_ZThn56_N10MainWindowD1Ev
eiskaltdcpp-qt:_ZThn56_N10PublicHubsD0Ev
eiskaltdcpp-qt:_ZThn56_N10PublicHubsD1Ev
eiskaltdcpp-qt:_ZThn56_N13FavoriteUsers2onEN4dcpp23FavoriteManagerListener1XILi5EEERKNS0_12FavoriteUserE
eiskaltdcpp-qt:_ZThn56_N13FavoriteUsers2onEN4dcpp23FavoriteManagerListener1XILi6EEERKNS0_12FavoriteUserE
eiskaltdcpp-qt:_ZThn56_N13FavoriteUsers2onEN4dcpp23FavoriteManagerListener1XILi7EEERKNS0_12FavoriteUserE
eiskaltdcpp-qt:_ZThn56_N13FavoriteUsersD0Ev
eiskaltdcpp-qt:_ZThn56_N13FavoriteUsersD1Ev
eiskaltdcpp-qt:_ZThn64_N10MainWindow2onEN4dcpp20TimerManagerListener1XILi0EEEm
eiskaltdcpp-qt:_ZThn64_N10MainWindowD0Ev
eiskaltdcpp-qt:_ZThn64_N10MainWindowD1Ev
eiskaltdcpp-qt:_ZThn64_N12TransferViewD0Ev
eiskaltdcpp-qt:_ZThn64_N12TransferViewD1Ev
eiskaltdcpp-qt:_ZThn64_N13FavoriteUsersD0Ev
eiskaltdcpp-qt:_ZThn64_N13FavoriteUsersD1Ev
eiskaltdcpp-qt:_ZThn72_N10MainWindow2onEN4dcpp20QueueManagerListener1XILi1EEEPNS0_9QueueItemERKNSt7__cxx1112basic_stringIcSt11char_traitsIcESaIcEEEl
eiskaltdcpp-qt:_ZThn72_N10MainWindowD0Ev
eiskaltdcpp-qt:_ZThn72_N10MainWindowD1Ev
eiskaltdcpp-qt:_ZThn72_N12TransferView2onEN4dcpp25ConnectionManagerListener1XILi0EEEPNS0_19ConnectionQueueItemE
eiskaltdcpp-qt:_ZThn72_N12TransferView2onEN4dcpp25ConnectionManagerListener1XILi1EEEPNS0_19ConnectionQueueItemE
eiskaltdcpp-qt:_ZThn72_N12TransferView2onEN4dcpp25ConnectionManagerListener1XILi2EEEPNS0_19ConnectionQueueItemE
eiskaltdcpp-qt:_ZThn72_N12TransferView2onEN4dcpp25ConnectionManagerListener1XILi3EEEPNS0_19ConnectionQueueItemERKNSt7__cxx1112basic_stringIcSt11char_traitsIcESaIcEEE
eiskaltdcpp-qt:_ZThn72_N12TransferView2onEN4dcpp25ConnectionManagerListener1XILi4EEEPNS0_19ConnectionQueueItemE
eiskaltdcpp-qt:_ZThn72_N12TransferViewD0Ev
eiskaltdcpp-qt:_ZThn72_N12TransferViewD1Ev
eiskaltdcpp-qt:_ZThn80_N12TransferView2onEN4dcpp23DownloadManagerListener1XILi0EEEPNS0_8DownloadE
eiskaltdcpp-qt:_ZThn80_N12TransferView2onEN4dcpp23DownloadManagerListener1XILi1EEEPNS0_8DownloadERKNSt7__cxx1112basic_stringIcSt11char_traitsIcESaIcEEE
eiskaltdcpp-qt:_ZThn80_N12TransferView2onEN4dcpp23DownloadManagerListener1XILi2EEEPNS0_8DownloadE
eiskaltdcpp-qt:_ZThn80_N12TransferView2onEN4dcpp23DownloadManagerListener1XILi3EEERKSt6vectorIPNS0_8DownloadESaIS6_EE
eiskaltdcpp-qt:_ZThn80_N12TransferView2onEN4dcpp23DownloadManagerListener1XILi4EEEPNS0_8DownloadE
eiskaltdcpp-qt:_ZThn80_N12TransferViewD0Ev
eiskaltdcpp-qt:_ZThn80_N12TransferViewD1Ev
eiskaltdcpp-qt:_ZThn88_N12TransferView2onEN4dcpp20QueueManagerListener1XILi16EEEPNS0_8DownloadERKNSt7__cxx1112basic_stringIcSt11char_traitsIcESaIcEEE
eiskaltdcpp-qt:_ZThn88_N12TransferView2onEN4dcpp20QueueManagerListener1XILi1EEEPNS0_9QueueItemERKNSt7__cxx1112basic_stringIcSt11char_traitsIcESaIcEEEl
eiskaltdcpp-qt:_ZThn88_N12TransferView2onEN4dcpp20QueueManagerListener1XILi2EEEPNS0_9QueueItemE
eiskaltdcpp-qt:_ZThn88_N12TransferViewD0Ev
eiskaltdcpp-qt:_ZThn88_N12TransferViewD1Ev
eiskaltdcpp-qt:_ZThn96_N12TransferView2onEN4dcpp21UploadManagerListener1XILi0EEEPNS0_6UploadE
eiskaltdcpp-qt:_ZThn96_N12TransferView2onEN4dcpp21UploadManagerListener1XILi1EEEPNS0_6UploadERKNSt7__cxx1112basic_stringIcSt11char_traitsIcESaIcEEE
eiskaltdcpp-qt:_ZThn96_N12TransferView2onEN4dcpp21UploadManagerListener1XILi2EEEPNS0_6UploadE
eiskaltdcpp-qt:_ZThn96_N12TransferView2onEN4dcpp21UploadManagerListener1XILi3EEERKSt6vectorIPNS0_6UploadESaIS6_EE
eiskaltdcpp-qt:_ZThn96_N12TransferViewD0Ev
eiskaltdcpp-qt:_ZThn96_N12TransferViewD1Ev
eiskaltdcpp-qt:_ZanRKN11ArenaWidget5FlagsES2_
eiskaltdcpp-qt:_ZcoRKN11ArenaWidget5FlagsE
eiskaltdcpp-qt:_ZeoRKN11ArenaWidget5FlagsES2_
eiskaltdcpp-qt:_ZlsR8AntiSpam19AntiSpamObjectState
eiskaltdcpp-qt:_ZlsR8AntiSpamRK5QListI7QStringE
eiskaltdcpp-qt:_ZlsR8AntiSpamRK7QString
eiskaltdcpp-qt:_ZorRKN11ArenaWidget5FlagsES2_
eiskaltdcpp-qt:__bss_start
eiskaltdcpp-qt:__data_start
eiskaltdcpp-qt:_edata
eiskaltdcpp-qt:_end
eiskaltdcpp-qt:_start
eiskaltdcpp-qt:get_fs_usage
eiskaltdcpp-qt:main
libeiskaltdcpp.so.2.4:_ZN3dht10dhtserversB5cxx11E
libeiskaltdcpp.so.2.4:_ZN3dht11TaskManager2onEN4dcpp20TimerManagerListener1XILi0EEEm
libeiskaltdcpp.so.2.4:_ZN3dht11TaskManager2onEN4dcpp20TimerManagerListener1XILi1EEEm
libeiskaltdcpp.so.2.4:_ZN3dht11TaskManagerC1Ev
libeiskaltdcpp.so.2.4:_ZN3dht11TaskManagerC2Ev
libeiskaltdcpp.so.2.4:_ZN3dht11TaskManagerD0Ev
libeiskaltdcpp.so.2.4:_ZN3dht11TaskManagerD1Ev
libeiskaltdcpp.so.2.4:_ZN3dht11TaskManagerD2Ev
libeiskaltdcpp.so.2.4:_ZN3dht12IndexManager11loadIndexesERN4dcpp9SimpleXMLE
libeiskaltdcpp.so.2.4:_ZN3dht12IndexManager11publishFileERKN4dcpp9HashValueINS1_9TigerHashEEEl
libeiskaltdcpp.so.2.4:_ZN3dht12IndexManager11saveIndexesERN4dcpp9SimpleXMLE
libeiskaltdcpp.so.2.4:_ZN3dht12IndexManager15checkExpirationEm
libeiskaltdcpp.so.2.4:_ZN3dht12IndexManager15publishNextFileEv
libeiskaltdcpp.so.2.4:_ZN3dht12IndexManager18publishPartialFileERKN4dcpp9HashValueINS1_9TigerHashEEE
libeiskaltdcpp.so.2.4:_ZN3dht12IndexManager27processPublishSourceRequestERKN4dcpp13intrusive_ptrINS_4NodeEEERKNS1_10AdcCommandE
libeiskaltdcpp.so.2.4:_ZN3dht12IndexManager9addSourceERKN4dcpp9HashValueINS1_9TigerHashEEERKNS1_13intrusive_ptrINS_4NodeEEEmb
libeiskaltdcpp.so.2.4:_ZN3dht12IndexManagerC1Ev
libeiskaltdcpp.so.2.4:_ZN3dht12IndexManagerC2Ev
libeiskaltdcpp.so.2.4:_ZN3dht12IndexManagerD0Ev
libeiskaltdcpp.so.2.4:_ZN3dht12IndexManagerD1Ev
libeiskaltdcpp.so.2.4:_ZN3dht12IndexManagerD2Ev
libeiskaltdcpp.so.2.4:_ZN3dht13SearchManager11publishFileERKSt3mapIN4dcpp3CIDENS2_13intrusive_ptrINS_4NodeEEESt4lessIS3_ESaISt4pairIKS3_S6_EEERKNSt7__cxx1112basic_stringIcSt11char_traitsIcESaIcEEElb
libeiskaltdcpp.so.2.4:_ZN3dht13SearchManager15processSearchesEv
libeiskaltdcpp.so.2.4:_ZN3dht13SearchManager19processSearchResultERKN4dcpp13intrusive_ptrINS_4NodeEEERKNS1_10AdcCommandE
libeiskaltdcpp.so.2.4:_ZN3dht13SearchManager20processSearchRequestERKN4dcpp13intrusive_ptrINS_4NodeEEERKNS1_10AdcCommandE
libeiskaltdcpp.so.2.4:_ZN3dht13SearchManager20processSearchResultsERKN4dcpp13intrusive_ptrINS1_4UserEEEm
libeiskaltdcpp.so.2.4:_ZN3dht13SearchManager21isAlreadySearchingForERKNSt7__cxx1112basic_stringIcSt11char_traitsIcESaIcEEE
libeiskaltdcpp.so.2.4:_ZN3dht13SearchManager6searchERNS_6SearchE
libeiskaltdcpp.so.2.4:_ZN3dht13SearchManager8findFileERKNSt7__cxx1112basic_stringIcSt11char_traitsIcESaIcEEES8_
libeiskaltdcpp.so.2.4:_ZN3dht13SearchManager8findNodeERKN4dcpp3CIDE
libeiskaltdcpp.so.2.4:_ZN3dht13SearchManager9findStoreERKNSt7__cxx1112basic_stringIcSt11char_traitsIcESaIcEEElb
libeiskaltdcpp.so.2.4:_ZN3dht13SearchManagerC1Ev
libeiskaltdcpp.so.2.4:_ZN3dht13SearchManagerC2Ev
libeiskaltdcpp.so.2.4:_ZN3dht13SearchManagerD0Ev
libeiskaltdcpp.so.2.4:_ZN3dht13SearchManagerD1Ev
libeiskaltdcpp.so.2.4:_ZN3dht13SearchManagerD2Ev
libeiskaltdcpp.so.2.4:_ZN3dht16BootstrapManager16addBootstrapNodeERKNSt7__cxx1112basic_stringIcSt11char_traitsIcESaIcEEES8_RKN4dcpp3CIDERKNS_6UDPKeyE
libeiskaltdcpp.so.2.4:_ZN3dht16BootstrapManager2onEN4dcpp22HttpConnectionListener1XILi0EEEPNS1_14HttpConnectionEPKhm
libeiskaltdcpp.so.2.4:_ZN3dht16BootstrapManager2onEN4dcpp22HttpConnectionListener1XILi1EEEPNS1_14HttpConnectionERKNSt7__cxx1112basic_stringIcSt11char_traitsIcESaIcEEE
libeiskaltdcpp.so.2.4:_ZN3dht16BootstrapManager2onEN4dcpp22HttpConnectionListener1XILi2EEEPNS1_14HttpConnectionERKNSt7__cxx1112basic_stringIcSt11char_traitsIcESaIcEEE
libeiskaltdcpp.so.2.4:_ZN3dht16BootstrapManager7processEv
libeiskaltdcpp.so.2.4:_ZN3dht16BootstrapManager9bootstrapEv
libeiskaltdcpp.so.2.4:_ZN3dht16BootstrapManagerC1Ev
libeiskaltdcpp.so.2.4:_ZN3dht16BootstrapManagerC2Ev
libeiskaltdcpp.so.2.4:_ZN3dht16BootstrapManagerD0Ev
libeiskaltdcpp.so.2.4:_ZN3dht16BootstrapManagerD1Ev
libeiskaltdcpp.so.2.4:_ZN3dht16BootstrapManagerD2Ev
libeiskaltdcpp.so.2.4:_ZN3dht17ConnectionManager11connectToMeERKN4dcpp13intrusive_ptrINS_4NodeEEERKNS1_10AdcCommandE
libeiskaltdcpp.so.2.4:_ZN3dht17ConnectionManager14revConnectToMeERKN4dcpp13intrusive_ptrINS_4NodeEEERKNS1_10AdcCommandE
libeiskaltdcpp.so.2.4:_ZN3dht17ConnectionManager7connectERKN4dcpp13intrusive_ptrINS_4NodeEEERKNSt7__cxx1112basic_stringIcSt11char_traitsIcESaIcEEE
libeiskaltdcpp.so.2.4:_ZN3dht17ConnectionManager7connectERKN4dcpp13intrusive_ptrINS_4NodeEEERKNSt7__cxx1112basic_stringIcSt11char_traitsIcESaIcEEEb
libeiskaltdcpp.so.2.4:_ZN3dht17ConnectionManagerC1Ev
libeiskaltdcpp.so.2.4:_ZN3dht17ConnectionManagerC2Ev
libeiskaltdcpp.so.2.4:_ZN3dht17ConnectionManagerD0Ev
libeiskaltdcpp.so.2.4:_ZN3dht17ConnectionManagerD1Ev
libeiskaltdcpp.so.2.4:_ZN3dht17ConnectionManagerD2Ev
libeiskaltdcpp.so.2.4:_ZN3dht3DHT10createNodeERKN4dcpp3CIDERKNSt7__cxx1112basic_stringIcSt11char_traitsIcESaIcEEESC_bb
libeiskaltdcpp.so.2.4:_ZN3dht3DHT14privateMessageERKN4dcpp10OnlineUserERKNSt7__cxx1112basic_stringIcSt11char_traitsIcESaIcEEEb
libeiskaltdcpp.so.2.4:_ZN3dht3DHT15checkExpirationEm
libeiskaltdcpp.so.2.4:_ZN3dht3DHT15getClosestNodesERKN4dcpp3CIDERSt3mapIS2_NS1_13intrusive_ptrINS_4NodeEEESt4lessIS2_ESaISt4pairIS3_S8_EEEjh
libeiskaltdcpp.so.2.4:_ZN3dht3DHT4infoERKNSt7__cxx1112basic_stringIcSt11char_traitsIcESaIcEEES8_jRKN4dcpp3CIDESC_
libeiskaltdcpp.so.2.4:_ZN3dht3DHT4sendERN4dcpp10AdcCommandERKNSt7__cxx1112basic_stringIcSt11char_traitsIcESaIcEEESB_RKNS1_3CIDESE_
libeiskaltdcpp.so.2.4:_ZN3dht3DHT4stopEb
libeiskaltdcpp.so.2.4:_ZN3dht3DHT5startEv
libeiskaltdcpp.so.2.4:_ZN3dht3DHT6handleEN4dcpp10AdcCommand4TypeILj4281427EEERKNS1_13intrusive_ptrINS_4NodeEEERS2_
libeiskaltdcpp.so.2.4:_ZN3dht3DHT6handleEN4dcpp10AdcCommand4TypeILj4347216EEERKNS1_13intrusive_ptrINS_4NodeEEERS2_
libeiskaltdcpp.so.2.4:_ZN3dht3DHT6handleEN4dcpp10AdcCommand4TypeILj4476499EEERKNS1_13intrusive_ptrINS_4NodeEEERS2_
libeiskaltdcpp.so.2.4:_ZN3dht3DHT6handleEN4dcpp10AdcCommand4TypeILj4607561EEERKNS1_13intrusive_ptrINS_4NodeEEERS2_
libeiskaltdcpp.so.2.4:_ZN3dht3DHT6handleEN4dcpp10AdcCommand4TypeILj4674381EEERKNS1_13intrusive_ptrINS_4NodeEEERS2_
libeiskaltdcpp.so.2.4:_ZN3dht3DHT6handleEN4dcpp10AdcCommand4TypeILj4735827EEERKNS1_13intrusive_ptrINS_4NodeEEERS2_
libeiskaltdcpp.so.2.4:_ZN3dht3DHT6handleEN4dcpp10AdcCommand4TypeILj5063506EEERKNS1_13intrusive_ptrINS_4NodeEEERS2_
libeiskaltdcpp.so.2.4:_ZN3dht3DHT6handleEN4dcpp10AdcCommand4TypeILj5067843EEERKNS1_13intrusive_ptrINS_4NodeEEERS2_
libeiskaltdcpp.so.2.4:_ZN3dht3DHT6handleEN4dcpp10AdcCommand4TypeILj5395280EEERKNS1_13intrusive_ptrINS_4NodeEEERS2_
libeiskaltdcpp.so.2.4:_ZN3dht3DHT6handleEN4dcpp10AdcCommand4TypeILj5457234EEERKNS1_13intrusive_ptrINS_4NodeEEERS2_
libeiskaltdcpp.so.2.4:_ZN3dht3DHT6handleEN4dcpp10AdcCommand4TypeILj5522759EEERKNS1_13intrusive_ptrINS_4NodeEEERS2_
libeiskaltdcpp.so.2.4:_ZN3dht3DHT7addNodeERKN4dcpp13intrusive_ptrINS_4NodeEEEb
libeiskaltdcpp.so.2.4:_ZN3dht3DHT7connectERKN4dcpp10OnlineUserERKNSt7__cxx1112basic_stringIcSt11char_traitsIcESaIcEEE
libeiskaltdcpp.so.2.4:_ZN3dht3DHT8dispatchERKNSt7__cxx1112basic_stringIcSt11char_traitsIcESaIcEEES8_S8_b
libeiskaltdcpp.so.2.4:_ZN3dht3DHT8findFileERKNSt7__cxx1112basic_stringIcSt11char_traitsIcESaIcEEES8_
libeiskaltdcpp.so.2.4:_ZN3dht3DHT8loadDataEv
libeiskaltdcpp.so.2.4:_ZN3dht3DHT8saveDataEv
libeiskaltdcpp.so.2.4:_ZN3dht3DHTC1Ev
libeiskaltdcpp.so.2.4:_ZN3dht3DHTC2Ev
libeiskaltdcpp.so.2.4:_ZN3dht3DHTD0Ev
libeiskaltdcpp.so.2.4:_ZN3dht3DHTD1Ev
libeiskaltdcpp.so.2.4:_ZN3dht3DHTD2Ev
libeiskaltdcpp.so.2.4:_ZN3dht4Node10setTimeoutEm
libeiskaltdcpp.so.2.4:_ZN3dht4Node8setAliveEv
libeiskaltdcpp.so.2.4:_ZN3dht4Node9setUdpKeyERKN4dcpp3CIDE
libeiskaltdcpp.so.2.4:_ZN3dht4NodeC1ERKN4dcpp13intrusive_ptrINS1_4UserEEE
libeiskaltdcpp.so.2.4:_ZN3dht4NodeC2ERKN4dcpp13intrusive_ptrINS1_4UserEEE
libeiskaltdcpp.so.2.4:_ZN3dht5Utils10checkFloodERKNSt7__cxx1112basic_stringIcSt11char_traitsIcESaIcEEERKN4dcpp10AdcCommandE
libeiskaltdcpp.so.2.4:_ZN3dht5Utils10cleanFloodEv
libeiskaltdcpp.so.2.4:_ZN3dht5Utils11compressXMLERNSt7__cxx1112basic_stringIcSt11char_traitsIcESaIcEEE
libeiskaltdcpp.so.2.4:_ZN3dht5Utils11getDistanceERKN4dcpp3CIDES4_
libeiskaltdcpp.so.2.4:_ZN3dht5Utils11sentPacketsB5cxx11E
libeiskaltdcpp.so.2.4:_ZN3dht5Utils12isGoodIPPortERKNSt7__cxx1112basic_stringIcSt11char_traitsIcESaIcEEES8_
libeiskaltdcpp.so.2.4:_ZN3dht5Utils15receivedPacketsB5cxx11E
libeiskaltdcpp.so.2.4:_ZN3dht5Utils19trackOutgoingPacketERKNSt7__cxx1112basic_stringIcSt11char_traitsIcESaIcEEERKN4dcpp10AdcCommandE
libeiskaltdcpp.so.2.4:_ZN3dht5Utils2csE
libeiskaltdcpp.so.2.4:_ZN3dht5Utils9getUdpKeyERKNSt7__cxx1112basic_stringIcSt11char_traitsIcESaIcEEE
libeiskaltdcpp.so.2.4:_ZN3dht6Search7processEv
libeiskaltdcpp.so.2.4:_ZN3dht6SearchD1Ev
libeiskaltdcpp.so.2.4:_ZN3dht6SearchD2Ev
libeiskaltdcpp.so.2.4:_ZN3dht7KBucket10createNodeERKN4dcpp13intrusive_ptrINS1_4UserEEERKNSt7__cxx1112basic_stringIcSt11char_traitsIcESaIcEEESE_bb
libeiskaltdcpp.so.2.4:_ZN3dht7KBucket15checkExpirationEm
libeiskaltdcpp.so.2.4:_ZN3dht7KBucket6insertERKN4dcpp13intrusive_ptrINS_4NodeEEE
libeiskaltdcpp.so.2.4:_ZN3dht7KBucket9loadNodesERN4dcpp9SimpleXMLE
libeiskaltdcpp.so.2.4:_ZN3dht7KBucket9saveNodesERN4dcpp9SimpleXMLE
libeiskaltdcpp.so.2.4:_ZN3dht7KBucketC1Ev
libeiskaltdcpp.so.2.4:_ZN3dht7KBucketC2Ev
libeiskaltdcpp.so.2.4:_ZN3dht7KBucketD1Ev
libeiskaltdcpp.so.2.4:_ZN3dht7KBucketD2Ev
libeiskaltdcpp.so.2.4:_ZN3dht9IsInvalidEc
libeiskaltdcpp.so.2.4:_ZN3dht9UDPSocket10disconnectEv
libeiskaltdcpp.so.2.4:_ZN3dht9UDPSocket13checkIncomingEv
libeiskaltdcpp.so.2.4:_ZN3dht9UDPSocket13checkOutgoingERm
libeiskaltdcpp.so.2.4:_ZN3dht9UDPSocket13decryptPacketEPhRiRKNSt7__cxx1112basic_stringIcSt11char_traitsIcESaIcEEERb
libeiskaltdcpp.so.2.4:_ZN3dht9UDPSocket13encryptPacketERKN4dcpp3CIDES4_PhRm
libeiskaltdcpp.so.2.4:_ZN3dht9UDPSocket14compressPacketERKNSt7__cxx1112basic_stringIcSt11char_traitsIcESaIcEEEPhRm
libeiskaltdcpp.so.2.4:_ZN3dht9UDPSocket16decompressPacketEPhRmPKhm
libeiskaltdcpp.so.2.4:_ZN3dht9UDPSocket3runEv
libeiskaltdcpp.so.2.4:_ZN3dht9UDPSocket4sendERN4dcpp10AdcCommandERKNSt7__cxx1112basic_stringIcSt11char_traitsIcESaIcEEESB_RKNS1_3CIDESE_
libeiskaltdcpp.so.2.4:_ZN3dht9UDPSocket6listenEv
libeiskaltdcpp.so.2.4:_ZN3dht9UDPSocketC1Ev
libeiskaltdcpp.so.2.4:_ZN3dht9UDPSocketC2Ev
libeiskaltdcpp.so.2.4:_ZN3dht9UDPSocketD0Ev
libeiskaltdcpp.so.2.4:_ZN3dht9UDPSocketD1Ev
libeiskaltdcpp.so.2.4:_ZN3dht9UDPSocketD2Ev
libeiskaltdcpp.so.2.4:_ZN4dcpp10AdcCommand5parseERKNSt7__cxx1112basic_stringIcSt11char_traitsIcESaIcEEEb
libeiskaltdcpp.so.2.4:_ZN4dcpp10AdcCommand6escapeERKNSt7__cxx1112basic_stringIcSt11char_traitsIcESaIcEEEb
libeiskaltdcpp.so.2.4:_ZN4dcpp10AdcCommandC1ENS0_8SeverityENS0_5ErrorERKNSt7__cxx1112basic_stringIcSt11char_traitsIcESaIcEEEc
libeiskaltdcpp.so.2.4:_ZN4dcpp10AdcCommandC1ERKNSt7__cxx1112basic_stringIcSt11char_traitsIcESaIcEEEb
libeiskaltdcpp.so.2.4:_ZN4dcpp10AdcCommandC1Ejc
libeiskaltdcpp.so.2.4:_ZN4dcpp10AdcCommandC1Ejjc
libeiskaltdcpp.so.2.4:_ZN4dcpp10AdcCommandC2ENS0_8SeverityENS0_5ErrorERKNSt7__cxx1112basic_stringIcSt11char_traitsIcESaIcEEEc
libeiskaltdcpp.so.2.4:_ZN4dcpp10AdcCommandC2ERKNSt7__cxx1112basic_stringIcSt11char_traitsIcESaIcEEEb
libeiskaltdcpp.so.2.4:_ZN4dcpp10AdcCommandC2Ejc
libeiskaltdcpp.so.2.4:_ZN4dcpp10AdcCommandC2Ejjc
libeiskaltdcpp.so.2.4:_ZN4dcpp10HashLoader8startTagERKNSt7__cxx1112basic_stringIcSt11char_traitsIcESaIcEEERSt6vectorISt4pairIS6_S6_ESaISB_EEb
libeiskaltdcpp.so.2.4:_ZN4dcpp10ListLoader6endTagERKNSt7__cxx1112basic_stringIcSt11char_traitsIcESaIcEEE
libeiskaltdcpp.so.2.4:_ZN4dcpp10ListLoader8startTagERKNSt7__cxx1112basic_stringIcSt11char_traitsIcESaIcEEERSt6vectorISt4pairIS6_S6_ESaISB_EEb
libeiskaltdcpp.so.2.4:_ZN4dcpp10LogManager11getLastLogsB5cxx11Ev
libeiskaltdcpp.so.2.4:_ZN4dcpp10LogManager11saveSettingEiiRKNSt7__cxx1112basic_stringIcSt11char_traitsIcESaIcEEE
libeiskaltdcpp.so.2.4:_ZN4dcpp10LogManager3logENS0_4AreaERSt13unordered_mapINSt7__cxx1112basic_stringIcSt11char_traitsIcESaIcEEES8_St4hashIS8_ESt8equal_toIS8_ESaISt4pairIKS8_S8_EEE
libeiskaltdcpp.so.2.4:_ZN4dcpp10LogManager3logERKNSt7__cxx1112basic_stringIcSt11char_traitsIcESaIcEEES8_
libeiskaltdcpp.so.2.4:_ZN4dcpp10LogManager7messageERKNSt7__cxx1112basic_stringIcSt11char_traitsIcESaIcEEE
libeiskaltdcpp.so.2.4:_ZN4dcpp10LogManagerC1Ev
libeiskaltdcpp.so.2.4:_ZN4dcpp10LogManagerC2Ev
libeiskaltdcpp.so.2.4:_ZN4dcpp10LogManagerD0Ev
libeiskaltdcpp.so.2.4:_ZN4dcpp10LogManagerD1Ev
libeiskaltdcpp.so.2.4:_ZN4dcpp10LogManagerD2Ev
libeiskaltdcpp.so.2.4:_ZN4dcpp10LuaManager10GetAppPathEP9lua_State
libeiskaltdcpp.so.2.4:_ZN4dcpp10LuaManager10GetSettingEP9lua_State
libeiskaltdcpp.so.2.4:_ZN4dcpp10LuaManager11GetClientIpEP9lua_State
libeiskaltdcpp.so.2.4:_ZN4dcpp10LuaManager12CreateClientEP9lua_State
libeiskaltdcpp.so.2.4:_ZN4dcpp10LuaManager12DeleteClientEP9lua_State
libeiskaltdcpp.so.2.4:_ZN4dcpp10LuaManager12GetHubIpPortEP9lua_State
libeiskaltdcpp.so.2.4:_ZN4dcpp10LuaManager13GetConfigPathEP9lua_State
libeiskaltdcpp.so.2.4:_ZN4dcpp10LuaManager13SendUDPPacketEP9lua_State
libeiskaltdcpp.so.2.4:_ZN4dcpp10LuaManager14GetScriptsPathEP9lua_State
libeiskaltdcpp.so.2.4:_ZN4dcpp10LuaManager14SendHubMessageEP9lua_State
libeiskaltdcpp.so.2.4:_ZN4dcpp10LuaManager17SendClientMessageEP9lua_State
libeiskaltdcpp.so.2.4:_ZN4dcpp10LuaManager18DropUserConnectionEP9lua_State
libeiskaltdcpp.so.2.4:_ZN4dcpp10LuaManager19InjectHubMessageADCEP9lua_State
libeiskaltdcpp.so.2.4:_ZN4dcpp10LuaManager20GenerateDebugMessageEP9lua_State
libeiskaltdcpp.so.2.4:_ZN4dcpp10LuaManager20GetConfigScriptsPathEP9lua_State
libeiskaltdcpp.so.2.4:_ZN4dcpp10LuaManager20InjectHubMessageNMDCEP9lua_State
libeiskaltdcpp.so.2.4:_ZN4dcpp10LuaManager6ToUtf8EP9lua_State
libeiskaltdcpp.so.2.4:_ZN4dcpp10LuaManager7methodsE
libeiskaltdcpp.so.2.4:_ZN4dcpp10LuaManager8FromUtf8EP9lua_State
libeiskaltdcpp.so.2.4:_ZN4dcpp10LuaManager8RunTimerEP9lua_State
libeiskaltdcpp.so.2.4:_ZN4dcpp10LuaManager9GetHubUrlEP9lua_State
libeiskaltdcpp.so.2.4:_ZN4dcpp10LuaManager9classNameE
libeiskaltdcpp.so.2.4:_ZN4dcpp10OnlineUserC1ERKNS_13intrusive_ptrINS_4UserEEERNS_10ClientBaseEj
libeiskaltdcpp.so.2.4:_ZN4dcpp10OnlineUserC2ERKNS_13intrusive_ptrINS_4UserEEERNS_10ClientBaseEj
libeiskaltdcpp.so.2.4:_ZN4dcpp10UnBZFilterC1Ev
libeiskaltdcpp.so.2.4:_ZN4dcpp10UnBZFilterC2Ev
libeiskaltdcpp.so.2.4:_ZN4dcpp10UnBZFilterD1Ev
libeiskaltdcpp.so.2.4:_ZN4dcpp10UnBZFilterD2Ev
libeiskaltdcpp.so.2.4:_ZN4dcpp10UnBZFilterclEPKvRmPvS3_
libeiskaltdcpp.so.2.4:_ZN4dcpp10lua_dofileEP9lua_StatePKc
libeiskaltdcpp.so.2.4:_ZN4dcpp11HashManager10HashPauserC1Ev
libeiskaltdcpp.so.2.4:_ZN4dcpp11HashManager10HashPauserC2Ev
libeiskaltdcpp.so.2.4:_ZN4dcpp11HashManager10HashPauserD1Ev
libeiskaltdcpp.so.2.4:_ZN4dcpp11HashManager10HashPauserD2Ev
libeiskaltdcpp.so.2.4:_ZN4dcpp11HashManager11StreamStore12deleteStreamERKNSt7__cxx1112basic_stringIcSt11char_traitsIcESaIcEEE
libeiskaltdcpp.so.2.4:_ZN4dcpp11HashManager11StreamStore12g_streamNameB5cxx11E
libeiskaltdcpp.so.2.4:_ZN4dcpp11HashManager11StreamStore8loadTreeERKNSt7__cxx1112basic_stringIcSt11char_traitsIcESaIcEEERNS_10MerkleTreeINS_9TigerHashELm1024EEEl
libeiskaltdcpp.so.2.4:_ZN4dcpp11HashManager11StreamStore8saveTreeERKNSt7__cxx1112basic_stringIcSt11char_traitsIcESaIcEEERKNS_10MerkleTreeINS_9TigerHashELm1024EEE
libeiskaltdcpp.so.2.4:_ZN4dcpp11HashManager12getBlockSizeERKNS_9HashValueINS_9TigerHashEEE
libeiskaltdcpp.so.2.4:_ZN4dcpp11HashManager12getFileTTHifERKNSt7__cxx1112basic_stringIcSt11char_traitsIcESaIcEEE
libeiskaltdcpp.so.2.4:_ZN4dcpp11HashManager12pauseHashingEv
libeiskaltdcpp.so.2.4:_ZN4dcpp11HashManager13resumeHashingEv
libeiskaltdcpp.so.2.4:_ZN4dcpp11HashManager14MIN_BLOCK_SIZEE
libeiskaltdcpp.so.2.4:_ZN4dcpp11HashManager2onENS_20TimerManagerListener1XILi0EEEm
libeiskaltdcpp.so.2.4:_ZN4dcpp11HashManager6Hasher11stopHashingERKNSt7__cxx1112basic_stringIcSt11char_traitsIcESaIcEEE
libeiskaltdcpp.so.2.4:_ZN4dcpp11HashManager6Hasher12instantPauseEv
libeiskaltdcpp.so.2.4:_ZN4dcpp11HashManager6Hasher3runEv
libeiskaltdcpp.so.2.4:_ZN4dcpp11HashManager6Hasher5pauseEv
libeiskaltdcpp.so.2.4:_ZN4dcpp11HashManager6Hasher6resumeEv
libeiskaltdcpp.so.2.4:_ZN4dcpp11HashManager6Hasher8fastHashERKNSt7__cxx1112basic_stringIcSt11char_traitsIcESaIcEEEPhRNS_10MerkleTreeINS_9TigerHashELm1024EEElPNS_11CRC32FilterE
libeiskaltdcpp.so.2.4:_ZN4dcpp11HashManager6Hasher8hashFileERKNSt7__cxx1112basic_stringIcSt11char_traitsIcESaIcEEEl
libeiskaltdcpp.so.2.4:_ZN4dcpp11HashManager6getTTHERKNSt7__cxx1112basic_stringIcSt11char_traitsIcESaIcEEEl
libeiskaltdcpp.so.2.4:_ZN4dcpp11HashManager7getTreeERKNS_9HashValueINS_9TigerHashEEERNS_10MerkleTreeIS2_Lm1024EEE
libeiskaltdcpp.so.2.4:_ZN4dcpp11HashManager8checkTTHERKNSt7__cxx1112basic_stringIcSt11char_traitsIcESaIcEEElj
libeiskaltdcpp.so.2.4:_ZN4dcpp11HashManager8hashDoneERKNSt7__cxx1112basic_stringIcSt11char_traitsIcESaIcEEEjRKNS_10MerkleTreeINS_9TigerHashELm1024EEEll
libeiskaltdcpp.so.2.4:_ZN4dcpp11HashManager9HashStore11getDataFileB5cxx11Ev
libeiskaltdcpp.so.2.4:_ZN4dcpp11HashManager9HashStore12getIndexFileB5cxx11Ev
libeiskaltdcpp.so.2.4:_ZN4dcpp11HashManager9HashStore14createDataFileERKNSt7__cxx1112basic_stringIcSt11char_traitsIcESaIcEEE
libeiskaltdcpp.so.2.4:_ZN4dcpp11HashManager9HashStore4loadEv
libeiskaltdcpp.so.2.4:_ZN4dcpp11HashManager9HashStore4saveEv
libeiskaltdcpp.so.2.4:_ZN4dcpp11HashManager9HashStore6getTTHERKNSt7__cxx1112basic_stringIcSt11char_traitsIcESaIcEEE
libeiskaltdcpp.so.2.4:_ZN4dcpp11HashManager9HashStore7addFileERKNSt7__cxx1112basic_stringIcSt11char_traitsIcESaIcEEEjRKNS_10MerkleTreeINS_9TigerHashELm1024EEEb
libeiskaltdcpp.so.2.4:_ZN4dcpp11HashManager9HashStore7addTreeERKNS_10MerkleTreeINS_9TigerHashELm1024EEE
libeiskaltdcpp.so.2.4:_ZN4dcpp11HashManager9HashStore7getTreeERKNS_9HashValueINS_9TigerHashEEERNS_10MerkleTreeIS3_Lm1024EEE
libeiskaltdcpp.so.2.4:_ZN4dcpp11HashManager9HashStore7rebuildEv
libeiskaltdcpp.so.2.4:_ZN4dcpp11HashManager9HashStore8checkTTHERKNSt7__cxx1112basic_stringIcSt11char_traitsIcESaIcEEElj
libeiskaltdcpp.so.2.4:_ZN4dcpp11HashManager9HashStore8loadTreeERNS_4FileERKNS1_8TreeInfoERKNS_9HashValueINS_9TigerHashEEERNS_10MerkleTreeIS8_Lm1024EEE
libeiskaltdcpp.so.2.4:_ZN4dcpp11HashManager9HashStore8saveTreeERNS_4FileERKNS_10MerkleTreeINS_9TigerHashELm1024EEE
libeiskaltdcpp.so.2.4:_ZN4dcpp11HashManager9HashStoreC1Ev
libeiskaltdcpp.so.2.4:_ZN4dcpp11HashManager9HashStoreC2Ev
libeiskaltdcpp.so.2.4:_ZN4dcpp11QueueLoader6endTagERKNSt7__cxx1112basic_stringIcSt11char_traitsIcESaIcEEE
libeiskaltdcpp.so.2.4:_ZN4dcpp11QueueLoader8startTagERKNSt7__cxx1112basic_stringIcSt11char_traitsIcESaIcEEERSt6vectorISt4pairIS6_S6_ESaISB_EEb
libeiskaltdcpp.so.2.4:_ZN4dcpp11SearchQueue12cancelSearchEPv
libeiskaltdcpp.so.2.4:_ZN4dcpp11SearchQueue13getSearchTimeEPvm
libeiskaltdcpp.so.2.4:_ZN4dcpp11SearchQueue3addERKNS_10SearchCoreE
libeiskaltdcpp.so.2.4:_ZN4dcpp11SearchQueue3popERNS_10SearchCoreEm
libeiskaltdcpp.so.2.4:_ZN4dcpp11UserCommand14setDisplayNameEv
libeiskaltdcpp.so.2.4:_ZN4dcpp11UserCommand3adcERKNSt7__cxx1112basic_stringIcSt11char_traitsIcESaIcEEE
libeiskaltdcpp.so.2.4:_ZN4dcpp12DebugManager15typeDirToStringB5cxx11Ei
libeiskaltdcpp.so.2.4:_ZN4dcpp12FavoriteUser6updateERKNS_10OnlineUserE
libeiskaltdcpp.so.2.4:_ZN4dcpp12FileFindIter7DirData11getFileNameB5cxx11Ev
libeiskaltdcpp.so.2.4:_ZN4dcpp12FileFindIter7DirData11isDirectoryEv
libeiskaltdcpp.so.2.4:_ZN4dcpp12FileFindIter7DirData16getLastWriteTimeEv
libeiskaltdcpp.so.2.4:_ZN4dcpp12FileFindIter7DirData6isLinkEv
libeiskaltdcpp.so.2.4:_ZN4dcpp12FileFindIter7DirData7getSizeEv
libeiskaltdcpp.so.2.4:_ZN4dcpp12FileFindIter7DirData8isHiddenEv
libeiskaltdcpp.so.2.4:_ZN4dcpp12FileFindIter7DirDataC1Ev
libeiskaltdcpp.so.2.4:_ZN4dcpp12FileFindIter7DirDataC2Ev
libeiskaltdcpp.so.2.4:_ZN4dcpp12FileFindIterC1ERKNSt7__cxx1112basic_stringIcSt11char_traitsIcESaIcEEE
libeiskaltdcpp.so.2.4:_ZN4dcpp12FileFindIterC1Ev
libeiskaltdcpp.so.2.4:_ZN4dcpp12FileFindIterC2ERKNSt7__cxx1112basic_stringIcSt11char_traitsIcESaIcEEE
libeiskaltdcpp.so.2.4:_ZN4dcpp12FileFindIterC2Ev
libeiskaltdcpp.so.2.4:_ZN4dcpp12FileFindIterD1Ev
libeiskaltdcpp.so.2.4:_ZN4dcpp12FileFindIterD2Ev
libeiskaltdcpp.so.2.4:_ZN4dcpp12FileFindIterppEv
libeiskaltdcpp.so.2.4:_ZN4dcpp12QueueManager10getTargetsB5cxx11ERKNS_9HashValueINS_9TigerHashEEE
libeiskaltdcpp.so.2.4:_ZN4dcpp12QueueManager11checkTargetERKNSt7__cxx1112basic_stringIcSt11char_traitsIcESaIcEEEb
libeiskaltdcpp.so.2.4:_ZN4dcpp12QueueManager11getDownloadERNS_14UserConnectionEb
libeiskaltdcpp.so.2.4:_ZN4dcpp12QueueManager11getListPathB5cxx11ERKNS_10HintedUserE
libeiskaltdcpp.so.2.4:_ZN4dcpp12QueueManager11getSizeInfoERlS1_RKNSt7__cxx1112basic_stringIcSt11char_traitsIcESaIcEEE
libeiskaltdcpp.so.2.4:_ZN4dcpp12QueueManager11hasDownloadERKNS_13intrusive_ptrINS_4UserEEE
libeiskaltdcpp.so.2.4:_ZN4dcpp12QueueManager11processListERKNSt7__cxx1112basic_stringIcSt11char_traitsIcESaIcEEERKNS_10HintedUserEi
libeiskaltdcpp.so.2.4:_ZN4dcpp12QueueManager11putDownloadEPNS_8DownloadEb
libeiskaltdcpp.so.2.4:_ZN4dcpp12QueueManager11setPriorityERKNSt7__cxx1112basic_stringIcSt11char_traitsIcESaIcEEENS_9QueueItem8PriorityE
libeiskaltdcpp.so.2.4:_ZN4dcpp12QueueManager12addDirectoryERKNSt7__cxx1112basic_stringIcSt11char_traitsIcESaIcEEERKNS_10HintedUserES8_NS_9QueueItem8PriorityE
libeiskaltdcpp.so.2.4:_ZN4dcpp12QueueManager12getQueueInfoERKNS_13intrusive_ptrINS_4UserEEERNSt7__cxx1112basic_stringIcSt11char_traitsIcESaIcEEERlRi
libeiskaltdcpp.so.2.4:_ZN4dcpp12QueueManager12matchListingERKNS_16DirectoryListingE
libeiskaltdcpp.so.2.4:_ZN4dcpp12QueueManager12removeSourceERKNS_13intrusive_ptrINS_4UserEEEi
libeiskaltdcpp.so.2.4:_ZN4dcpp12QueueManager12removeSourceERKNSt7__cxx1112basic_stringIcSt11char_traitsIcESaIcEEERKNS_13intrusive_ptrINS_4UserEEEib
libeiskaltdcpp.so.2.4:_ZN4dcpp12QueueManager13moveStuckFileEPNS_9QueueItemE
libeiskaltdcpp.so.2.4:_ZN4dcpp12QueueManager16matchAllListingsEv
libeiskaltdcpp.so.2.4:_ZN4dcpp12QueueManager16noDeleteFileListERKNSt7__cxx1112basic_stringIcSt11char_traitsIcESaIcEEE
libeiskaltdcpp.so.2.4:_ZN4dcpp12QueueManager18countOnlineSourcesERKNSt7__cxx1112basic_stringIcSt11char_traitsIcESaIcEEE
libeiskaltdcpp.so.2.4:_ZN4dcpp12QueueManager19handlePartialResultERKNS_13intrusive_ptrINS_4UserEEERKNSt7__cxx1112basic_stringIcSt11char_traitsIcESaIcEEERKNS_9HashValueINS_9TigerHashEEERKNS_9QueueItem13PartialSourceERSt6vectorItSaItEE
libeiskaltdcpp.so.2.4:_ZN4dcpp12QueueManager19handlePartialSearchERKNS_9HashValueINS_9TigerHashEEERSt6vectorItSaItEE
libeiskaltdcpp.so.2.4:_ZN4dcpp12QueueManager19logFinishedDownloadEPNS_9QueueItemEPNS_8DownloadEb
libeiskaltdcpp.so.2.4:_ZN4dcpp12QueueManager2onENS_20TimerManagerListener1XILi0EEEm
libeiskaltdcpp.so.2.4:_ZN4dcpp12QueueManager2onENS_20TimerManagerListener1XILi1EEEm
libeiskaltdcpp.so.2.4:_ZN4dcpp12QueueManager2onENS_21ClientManagerListener1XILi0EEERKNS_13intrusive_ptrINS_4UserEEE
libeiskaltdcpp.so.2.4:_ZN4dcpp12QueueManager2onENS_21ClientManagerListener1XILi2EEERKNS_13intrusive_ptrINS_4UserEEE
libeiskaltdcpp.so.2.4:_ZN4dcpp12QueueManager2onENS_21SearchManagerListener1XILi0EEERKNS_13intrusive_ptrINS_12SearchResultEEE
libeiskaltdcpp.so.2.4:_ZN4dcpp12QueueManager3addERKNSt7__cxx1112basic_stringIcSt11char_traitsIcESaIcEEElRKNS_9HashValueINS_9TigerHashEEE
libeiskaltdcpp.so.2.4:_ZN4dcpp12QueueManager3addERKNSt7__cxx1112basic_stringIcSt11char_traitsIcESaIcEEElRKNS_9HashValueINS_9TigerHashEEERKNS_10HintedUserEib
libeiskaltdcpp.so.2.4:_ZN4dcpp12QueueManager4moveERKNSt7__cxx1112basic_stringIcSt11char_traitsIcESaIcEEES8_
libeiskaltdcpp.so.2.4:_ZN4dcpp12QueueManager5readdERKNSt7__cxx1112basic_stringIcSt11char_traitsIcESaIcEEERKNS_10HintedUserE
libeiskaltdcpp.so.2.4:_ZN4dcpp12QueueManager6getPosERKNSt7__cxx1112basic_stringIcSt11char_traitsIcESaIcEEE
libeiskaltdcpp.so.2.4:_ZN4dcpp12QueueManager6getTTHERKNSt7__cxx1112basic_stringIcSt11char_traitsIcESaIcEEERNS_9HashValueINS_9TigerHashEEE
libeiskaltdcpp.so.2.4:_ZN4dcpp12QueueManager6removeERKNSt7__cxx1112basic_stringIcSt11char_traitsIcESaIcEEE
libeiskaltdcpp.so.2.4:_ZN4dcpp12QueueManager7addListERKNS_10HintedUserEiRKNSt7__cxx1112basic_stringIcSt11char_traitsIcESaIcEEE
libeiskaltdcpp.so.2.4:_ZN4dcpp12QueueManager7getSizeERKNSt7__cxx1112basic_stringIcSt11char_traitsIcESaIcEEE
libeiskaltdcpp.so.2.4:_ZN4dcpp12QueueManager7recheckERKNSt7__cxx1112basic_stringIcSt11char_traitsIcESaIcEEE
libeiskaltdcpp.so.2.4:_ZN4dcpp12QueueManager7setFileEPNS_8DownloadE
libeiskaltdcpp.so.2.4:_ZN4dcpp12QueueManager8checkSfvEPNS_9QueueItemEPNS_8DownloadE
libeiskaltdcpp.so.2.4:_ZN4dcpp12QueueManager8moveFileERKNSt7__cxx1112basic_stringIcSt11char_traitsIcESaIcEEES8_
libeiskaltdcpp.so.2.4:_ZN4dcpp12QueueManager8setDirtyEv
libeiskaltdcpp.so.2.4:_ZN4dcpp12QueueManager9FileMover3runEv
libeiskaltdcpp.so.2.4:_ZN4dcpp12QueueManager9FileMover8moveFileERKNSt7__cxx1112basic_stringIcSt11char_traitsIcESaIcEEES9_
libeiskaltdcpp.so.2.4:_ZN4dcpp12QueueManager9FileQueue13findPFSPubTTHEv
libeiskaltdcpp.so.2.4:_ZN4dcpp12QueueManager9FileQueue14findAutoSearchERSt6vectorINSt7__cxx1112basic_stringIcSt11char_traitsIcESaIcEEESaIS8_EE
libeiskaltdcpp.so.2.4:_ZN4dcpp12QueueManager9FileQueue14findPFSSourcesERSt6vectorISt4pairIN9__gnu_cxx17__normal_iteratorIPKNS_9QueueItem6SourceES2_IS7_SaIS7_EEEEPKS6_ESaISF_EE
libeiskaltdcpp.so.2.4:_ZN4dcpp12QueueManager9FileQueue3addEPNS_9QueueItemE
libeiskaltdcpp.so.2.4:_ZN4dcpp12QueueManager9FileQueue3addERKNSt7__cxx1112basic_stringIcSt11char_traitsIcESaIcEEEliNS_9QueueItem8PriorityES9_lRKNS_9HashValueINS_9TigerHashEEE
libeiskaltdcpp.so.2.4:_ZN4dcpp12QueueManager9FileQueue4findERKNS_9HashValueINS_9TigerHashEEE
libeiskaltdcpp.so.2.4:_ZN4dcpp12QueueManager9FileQueue4findERKNSt7__cxx1112basic_stringIcSt11char_traitsIcESaIcEEE
libeiskaltdcpp.so.2.4:_ZN4dcpp12QueueManager9FileQueue4moveEPNS_9QueueItemERKNSt7__cxx1112basic_stringIcSt11char_traitsIcESaIcEEE
libeiskaltdcpp.so.2.4:_ZN4dcpp12QueueManager9FileQueue6removeEPNS_9QueueItemE
libeiskaltdcpp.so.2.4:_ZN4dcpp12QueueManager9Rechecker3addERKNSt7__cxx1112basic_stringIcSt11char_traitsIcESaIcEEE
libeiskaltdcpp.so.2.4:_ZN4dcpp12QueueManager9Rechecker3runEv
libeiskaltdcpp.so.2.4:_ZN4dcpp12QueueManager9UserQueue10getRunningERKNS_13intrusive_ptrINS_4UserEEE
libeiskaltdcpp.so.2.4:_ZN4dcpp12QueueManager9UserQueue11addDownloadEPNS_9QueueItemEPNS_8DownloadE
libeiskaltdcpp.so.2.4:_ZN4dcpp12QueueManager9UserQueue11setPriorityEPNS_9QueueItemENS2_8PriorityE
libeiskaltdcpp.so.2.4:_ZN4dcpp12QueueManager9UserQueue14removeDownloadEPNS_9QueueItemERKNS_13intrusive_ptrINS_4UserEEE
libeiskaltdcpp.so.2.4:_ZN4dcpp12QueueManager9UserQueue3addEPNS_9QueueItemE
libeiskaltdcpp.so.2.4:_ZN4dcpp12QueueManager9UserQueue3addEPNS_9QueueItemERKNS_13intrusive_ptrINS_4UserEEE
libeiskaltdcpp.so.2.4:_ZN4dcpp12QueueManager9UserQueue6removeEPNS_9QueueItemERKNS_13intrusive_ptrINS_4UserEEEb
libeiskaltdcpp.so.2.4:_ZN4dcpp12QueueManager9UserQueue6removeEPNS_9QueueItemEb
libeiskaltdcpp.so.2.4:_ZN4dcpp12QueueManager9UserQueue7getNextERKNS_13intrusive_ptrINS_4UserEEENS_9QueueItem8PriorityEllb
libeiskaltdcpp.so.2.4:_ZN4dcpp12QueueManager9addSourceEPNS_9QueueItemERKNS_10HintedUserEi
libeiskaltdcpp.so.2.4:_ZN4dcpp12QueueManager9calcCrc32ERKNSt7__cxx1112basic_stringIcSt11char_traitsIcESaIcEEE
libeiskaltdcpp.so.2.4:_ZN4dcpp12QueueManager9loadQueueEv
libeiskaltdcpp.so.2.4:_ZN4dcpp12QueueManager9moveFile_ERKNSt7__cxx1112basic_stringIcSt11char_traitsIcESaIcEEES8_
libeiskaltdcpp.so.2.4:_ZN4dcpp12QueueManager9recheckedEPNS_9QueueItemE
libeiskaltdcpp.so.2.4:_ZN4dcpp12QueueManager9saveQueueEb
libeiskaltdcpp.so.2.4:_ZN4dcpp12QueueManagerC1Ev
libeiskaltdcpp.so.2.4:_ZN4dcpp12QueueManagerC2Ev
libeiskaltdcpp.so.2.4:_ZN4dcpp12QueueManagerD0Ev
libeiskaltdcpp.so.2.4:_ZN4dcpp12QueueManagerD1Ev
libeiskaltdcpp.so.2.4:_ZN4dcpp12QueueManagerD2Ev
libeiskaltdcpp.so.2.4:_ZN4dcpp12SearchResultC1ENS0_5TypesElRKNSt7__cxx1112basic_stringIcSt11char_traitsIcESaIcEEERKNS_9HashValueINS_9TigerHashEEE
libeiskaltdcpp.so.2.4:_ZN4dcpp12SearchResultC1ERKNS_13intrusive_ptrINS_4UserEEENS0_5TypesEiilRKNSt7__cxx1112basic_stringIcSt11char_traitsIcESaIcEEESE_SE_SE_NS_9HashValueINS_9TigerHashEEESE_
libeiskaltdcpp.so.2.4:_ZN4dcpp12SearchResultC2ENS0_5TypesElRKNSt7__cxx1112basic_stringIcSt11char_traitsIcESaIcEEERKNS_9HashValueINS_9TigerHashEEE
libeiskaltdcpp.so.2.4:_ZN4dcpp12SearchResultC2ERKNS_13intrusive_ptrINS_4UserEEENS0_5TypesEiilRKNSt7__cxx1112basic_stringIcSt11char_traitsIcESaIcEEESE_SE_SE_NS_9HashValueINS_9TigerHashEEESE_
libeiskaltdcpp.so.2.4:_ZN4dcpp12ShareManager11getFileInfoERKNSt7__cxx1112basic_stringIcSt11char_traitsIcESaIcEEE
libeiskaltdcpp.so.2.4:_ZN4dcpp12ShareManager12addDirectoryERKNSt7__cxx1112basic_stringIcSt11char_traitsIcESaIcEEES8_
libeiskaltdcpp.so.2.4:_ZN4dcpp12ShareManager12getDirectoryERKNSt7__cxx1112basic_stringIcSt11char_traitsIcESaIcEEE
libeiskaltdcpp.so.2.4:_ZN4dcpp12ShareManager12getRealPathsERKNSt7__cxx1112basic_stringIcSt11char_traitsIcESaIcEEE
libeiskaltdcpp.so.2.4:_ZN4dcpp12ShareManager13updateIndicesERNS0_9DirectoryE
libeiskaltdcpp.so.2.4:_ZN4dcpp12ShareManager13updateIndicesERNS0_9DirectoryERKSt23_Rb_tree_const_iteratorINS1_4FileEE
libeiskaltdcpp.so.2.4:_ZN4dcpp12ShareManager14rebuildIndicesEv
libeiskaltdcpp.so.2.4:_ZN4dcpp12ShareManager15generateXmlListEv
libeiskaltdcpp.so.2.4:_ZN4dcpp12ShareManager15removeDirectoryERKNSt7__cxx1112basic_stringIcSt11char_traitsIcESaIcEEE
libeiskaltdcpp.so.2.4:_ZN4dcpp12ShareManager15renameDirectoryERKNSt7__cxx1112basic_stringIcSt11char_traitsIcESaIcEEES8_
libeiskaltdcpp.so.2.4:_ZN4dcpp12ShareManager2onENS_19HashManagerListener1XILi0EEERKNSt7__cxx1112basic_stringIcSt11char_traitsIcESaIcEEERKNS_9HashValueINS_9TigerHashEEE
libeiskaltdcpp.so.2.4:_ZN4dcpp12ShareManager2onENS_20QueueManagerListener1XILi15EEERKNSt7__cxx1112basic_stringIcSt11char_traitsIcESaIcEEE
libeiskaltdcpp.so.2.4:_ZN4dcpp12ShareManager2onENS_20TimerManagerListener1XILi1EEEm
libeiskaltdcpp.so.2.4:_ZN4dcpp12ShareManager3runEv
libeiskaltdcpp.so.2.4:_ZN4dcpp12ShareManager4loadERNS_9SimpleXMLE
libeiskaltdcpp.so.2.4:_ZN4dcpp12ShareManager4saveERNS_9SimpleXMLE
libeiskaltdcpp.so.2.4:_ZN4dcpp12ShareManager5mergeERKNS_13intrusive_ptrINS0_9DirectoryEEE
libeiskaltdcpp.so.2.4:_ZN4dcpp12ShareManager6searchERSt6vectorINS_13intrusive_ptrINS_12SearchResultEEESaIS4_EERKNSt7__cxx1112basic_stringIcSt11char_traitsIcESaIcEEEiliPNS_6ClientEm
libeiskaltdcpp.so.2.4:_ZN4dcpp12ShareManager6searchERSt6vectorINS_13intrusive_ptrINS_12SearchResultEEESaIS4_EERKS1_INSt7__cxx1112basic_stringIcSt11char_traitsIcESaIcEEESaISD_EEm
libeiskaltdcpp.so.2.4:_ZN4dcpp12ShareManager6toRealERKNSt7__cxx1112basic_stringIcSt11char_traitsIcESaIcEEE
libeiskaltdcpp.so.2.4:_ZN4dcpp12ShareManager7refreshEbbb
libeiskaltdcpp.so.2.4:_ZN4dcpp12ShareManager9AdcSearch10isExcludedERKNSt7__cxx1112basic_stringIcSt11char_traitsIcESaIcEEE
libeiskaltdcpp.so.2.4:_ZN4dcpp12ShareManager9AdcSearch6hasExtERKNSt7__cxx1112basic_stringIcSt11char_traitsIcESaIcEEE
libeiskaltdcpp.so.2.4:_ZN4dcpp12ShareManager9AdcSearchC1ERKSt6vectorINSt7__cxx1112basic_stringIcSt11char_traitsIcESaIcEEESaIS8_EE
libeiskaltdcpp.so.2.4:_ZN4dcpp12ShareManager9AdcSearchC2ERKSt6vectorINSt7__cxx1112basic_stringIcSt11char_traitsIcESaIcEEESaIS8_EE
libeiskaltdcpp.so.2.4:_ZN4dcpp12ShareManager9Directory5mergeERKNS_13intrusive_ptrIS1_EE
libeiskaltdcpp.so.2.4:_ZN4dcpp12ShareManager9Directory7addTypeEj
libeiskaltdcpp.so.2.4:_ZN4dcpp12ShareManager9DirectoryC1ERKNSt7__cxx1112basic_stringIcSt11char_traitsIcESaIcEEERKNS_13intrusive_ptrIS1_EE
libeiskaltdcpp.so.2.4:_ZN4dcpp12ShareManager9DirectoryC2ERKNSt7__cxx1112basic_stringIcSt11char_traitsIcESaIcEEERKNS_13intrusive_ptrIS1_EE
libeiskaltdcpp.so.2.4:_ZN4dcpp12ShareManager9buildTreeERKNSt7__cxx1112basic_stringIcSt11char_traitsIcESaIcEEERKNS_13intrusive_ptrINS0_9DirectoryEEE
libeiskaltdcpp.so.2.4:_ZN4dcpp12ShareManager9loadCacheEv
libeiskaltdcpp.so.2.4:_ZN4dcpp12ShareManagerC1Ev
libeiskaltdcpp.so.2.4:_ZN4dcpp12ShareManagerC2Ev
libeiskaltdcpp.so.2.4:_ZN4dcpp12ShareManagerD0Ev
libeiskaltdcpp.so.2.4:_ZN4dcpp12ShareManagerD1Ev
libeiskaltdcpp.so.2.4:_ZN4dcpp12ShareManagerD2Ev
libeiskaltdcpp.so.2.4:_ZN4dcpp12TimerManager3runEv
libeiskaltdcpp.so.2.4:_ZN4dcpp12TimerManager7getTickEv
libeiskaltdcpp.so.2.4:_ZN4dcpp12TimerManager8shutdownEv
libeiskaltdcpp.so.2.4:_ZN4dcpp12TimerManagerC1Ev
libeiskaltdcpp.so.2.4:_ZN4dcpp12TimerManagerC2Ev
libeiskaltdcpp.so.2.4:_ZN4dcpp12TimerManagerD0Ev
libeiskaltdcpp.so.2.4:_ZN4dcpp12TimerManagerD1Ev
libeiskaltdcpp.so.2.4:_ZN4dcpp12TimerManagerD2Ev
libeiskaltdcpp.so.2.4:_ZN4dcpp12lua_dobufferEP9lua_StatePKcmS3_
libeiskaltdcpp.so.2.4:_ZN4dcpp12lua_dostringEP9lua_StatePKc
libeiskaltdcpp.so.2.4:_ZN4dcpp13ClientManager10putOfflineEPNS_10OnlineUserEb
libeiskaltdcpp.so.2.4:_ZN4dcpp13ClientManager10updateUserERKNS_10OnlineUserE
libeiskaltdcpp.so.2.4:_ZN4dcpp13ClientManager11getHubNamesERKNS_3CIDERKNSt7__cxx1112basic_stringIcSt11char_traitsIcESaIcEEE
libeiskaltdcpp.so.2.4:_ZN4dcpp13ClientManager11getHubNamesERKNS_3CIDERKNSt7__cxx1112basic_stringIcSt11char_traitsIcESaIcEEEb
libeiskaltdcpp.so.2.4:_ZN4dcpp13ClientManager11infoUpdatedEv
libeiskaltdcpp.so.2.4:_ZN4dcpp13ClientManager11userCommandERKNS_10HintedUserERKNS_11UserCommandERSt13unordered_mapINSt7__cxx1112basic_stringIcSt11char_traitsIcESaIcEEESD_St4hashISD_ESt8equal_toISD_ESaISt4pairIKSD_SD_EEEb
libeiskaltdcpp.so.2.4:_ZN4dcpp13ClientManager12cancelSearchEPv
libeiskaltdcpp.so.2.4:_ZN4dcpp13ClientManager12ucExecuteLuaERKNSt7__cxx1112basic_stringIcSt11char_traitsIcESaIcEEERSt13unordered_mapIS6_S6_St4hashIS6_ESt8equal_toIS6_ESaISt4pairIS7_S6_EEE
libeiskaltdcpp.so.2.4:_ZN4dcpp13ClientManager14findOnlineUserERKNS_10HintedUserEb
libeiskaltdcpp.so.2.4:_ZN4dcpp13ClientManager14findOnlineUserERKNS_3CIDERKNSt7__cxx1112basic_stringIcSt11char_traitsIcESaIcEEEb
libeiskaltdcpp.so.2.4:_ZN4dcpp13ClientManager14privateMessageERKNS_10HintedUserERKNSt7__cxx1112basic_stringIcSt11char_traitsIcESaIcEEEb
libeiskaltdcpp.so.2.4:_ZN4dcpp13ClientManager2onENS_14ClientListener1XILi13EEEPNS_6ClientEiiRKNSt7__cxx1112basic_stringIcSt11char_traitsIcESaIcEEESD_
libeiskaltdcpp.so.2.4:_ZN4dcpp13ClientManager2onENS_14ClientListener1XILi17EEEPNS_6ClientERKNSt7__cxx1112basic_stringIcSt11char_traitsIcESaIcEEEiliSD_
libeiskaltdcpp.so.2.4:_ZN4dcpp13ClientManager2onENS_14ClientListener1XILi18EEEPNS_6ClientERKNS_10AdcCommandERKNS_3CIDE
libeiskaltdcpp.so.2.4:_ZN4dcpp13ClientManager2onENS_14ClientListener1XILi1EEEPNS_6ClientE
libeiskaltdcpp.so.2.4:_ZN4dcpp13ClientManager2onENS_14ClientListener1XILi3EEEPNS_6ClientERKNS_10OnlineUserE
libeiskaltdcpp.so.2.4:_ZN4dcpp13ClientManager2onENS_14ClientListener1XILi4EEEPNS_6ClientERKSt6vectorIPNS_10OnlineUserESaIS8_EE
libeiskaltdcpp.so.2.4:_ZN4dcpp13ClientManager2onENS_14ClientListener1XILi7EEEPNS_6ClientERKNSt7__cxx1112basic_stringIcSt11char_traitsIcESaIcEEE
libeiskaltdcpp.so.2.4:_ZN4dcpp13ClientManager2onENS_14ClientListener1XILi9EEEPNS_6ClientE
libeiskaltdcpp.so.2.4:_ZN4dcpp13ClientManager2onENS_20TimerManagerListener1XILi1EEEm
libeiskaltdcpp.so.2.4:_ZN4dcpp13ClientManager4sendERNS_10AdcCommandERKNS_3CIDE
libeiskaltdcpp.so.2.4:_ZN4dcpp13ClientManager5getMeEv
libeiskaltdcpp.so.2.4:_ZN4dcpp13ClientManager6searchERSt6vectorINSt7__cxx1112basic_stringIcSt11char_traitsIcESaIcEEESaIS7_EEiliRKS7_SC_RKS9_Pv
libeiskaltdcpp.so.2.4:_ZN4dcpp13ClientManager6searchEiliRKNSt7__cxx1112basic_stringIcSt11char_traitsIcESaIcEEES8_Pv
libeiskaltdcpp.so.2.4:_ZN4dcpp13ClientManager7connectERKNS_10HintedUserERKNSt7__cxx1112basic_stringIcSt11char_traitsIcESaIcEEE
libeiskaltdcpp.so.2.4:_ZN4dcpp13ClientManager7getHubsERKNS_3CIDERKNSt7__cxx1112basic_stringIcSt11char_traitsIcESaIcEEE
libeiskaltdcpp.so.2.4:_ZN4dcpp13ClientManager7getHubsERKNS_3CIDERKNSt7__cxx1112basic_stringIcSt11char_traitsIcESaIcEEEb
libeiskaltdcpp.so.2.4:_ZN4dcpp13ClientManager7getUserERKNS_3CIDE
libeiskaltdcpp.so.2.4:_ZN4dcpp13ClientManager7getUserERKNSt7__cxx1112basic_stringIcSt11char_traitsIcESaIcEEES8_
libeiskaltdcpp.so.2.4:_ZN4dcpp13ClientManager8getMyCIDEv
libeiskaltdcpp.so.2.4:_ZN4dcpp13ClientManager8getMyPIDEv
libeiskaltdcpp.so.2.4:_ZN4dcpp13ClientManager8getNicksERKNS_3CIDERKNSt7__cxx1112basic_stringIcSt11char_traitsIcESaIcEEE
libeiskaltdcpp.so.2.4:_ZN4dcpp13ClientManager8getNicksERKNS_3CIDERKNSt7__cxx1112basic_stringIcSt11char_traitsIcESaIcEEEb
libeiskaltdcpp.so.2.4:_ZN4dcpp13ClientManager8saveUserERKNS_3CIDE
libeiskaltdcpp.so.2.4:_ZN4dcpp13ClientManager9getClientERKNSt7__cxx1112basic_stringIcSt11char_traitsIcESaIcEEE
libeiskaltdcpp.so.2.4:_ZN4dcpp13ClientManager9loadUsersEv
libeiskaltdcpp.so.2.4:_ZN4dcpp13ClientManager9putClientEPNS_6ClientE
libeiskaltdcpp.so.2.4:_ZN4dcpp13ClientManager9putOnlineEPNS_10OnlineUserE
libeiskaltdcpp.so.2.4:_ZN4dcpp13ClientManagerC1Ev
libeiskaltdcpp.so.2.4:_ZN4dcpp13ClientManagerC2Ev
libeiskaltdcpp.so.2.4:_ZN4dcpp13ClientManagerD0Ev
libeiskaltdcpp.so.2.4:_ZN4dcpp13ClientManagerD1Ev
libeiskaltdcpp.so.2.4:_ZN4dcpp13ClientManagerD2Ev
libeiskaltdcpp.so.2.4:_ZN4dcpp13CryptoManager12loadKeyprintERKNSt7__cxx1112basic_stringIcSt11char_traitsIcESaIcEEE
libeiskaltdcpp.so.2.4:_ZN4dcpp13CryptoManager15getClientSocketEbNS_6Socket8ProtocolE
libeiskaltdcpp.so.2.4:_ZN4dcpp13CryptoManager15getServerSocketEb
libeiskaltdcpp.so.2.4:_ZN4dcpp13CryptoManager16checkCertificateEv
libeiskaltdcpp.so.2.4:_ZN4dcpp13CryptoManager16loadCertificatesEv
libeiskaltdcpp.so.2.4:_ZN4dcpp13CryptoManager19generateCertificateEv
libeiskaltdcpp.so.2.4:_ZN4dcpp13CryptoManager7makeKeyERKNSt7__cxx1112basic_stringIcSt11char_traitsIcESaIcEEE
libeiskaltdcpp.so.2.4:_ZN4dcpp13CryptoManager8keySubstB5cxx11EPKhmm
libeiskaltdcpp.so.2.4:_ZN4dcpp13CryptoManager9decodeBZ2EPKhmRNSt7__cxx1112basic_stringIcSt11char_traitsIcESaIcEEE
libeiskaltdcpp.so.2.4:_ZN4dcpp13CryptoManagerC1Ev
libeiskaltdcpp.so.2.4:_ZN4dcpp13CryptoManagerC2Ev
libeiskaltdcpp.so.2.4:_ZN4dcpp13CryptoManagerD0Ev
libeiskaltdcpp.so.2.4:_ZN4dcpp13CryptoManagerD1Ev
libeiskaltdcpp.so.2.4:_ZN4dcpp13CryptoManagerD2Ev
libeiskaltdcpp.so.2.4:_ZN4dcpp13FastAllocBase2csE
libeiskaltdcpp.so.2.4:_ZN4dcpp13ScriptManager16SendDebugMessageERKNSt7__cxx1112basic_stringIcSt11char_traitsIcESaIcEEE
libeiskaltdcpp.so.2.4:_ZN4dcpp13ScriptManager2onENS_20TimerManagerListener1XILi0EEEm
libeiskaltdcpp.so.2.4:_ZN4dcpp13ScriptManager2onENS_21ClientManagerListener1XILi4EEEPNS_6ClientE
libeiskaltdcpp.so.2.4:_ZN4dcpp13ScriptManager2onENS_21ClientManagerListener1XILi6EEEPNS_6ClientE
libeiskaltdcpp.so.2.4:_ZN4dcpp13ScriptManager4loadEv
libeiskaltdcpp.so.2.4:_ZN4dcpp13ScriptManagerC1Ev
libeiskaltdcpp.so.2.4:_ZN4dcpp13ScriptManagerC2Ev
libeiskaltdcpp.so.2.4:_ZN4dcpp13SearchManager10disconnectEv
libeiskaltdcpp.so.2.4:_ZN4dcpp13SearchManager10getTypeStrEi
libeiskaltdcpp.so.2.4:_ZN4dcpp13SearchManager19normalizeWhitespaceERKNSt7__cxx1112basic_stringIcSt11char_traitsIcESaIcEEE
libeiskaltdcpp.so.2.4:_ZN4dcpp13SearchManager3runEv
libeiskaltdcpp.so.2.4:_ZN4dcpp13SearchManager5onPSRERKNS_10AdcCommandENS_13intrusive_ptrINS_4UserEEERKNSt7__cxx1112basic_stringIcSt11char_traitsIcESaIcEEE
libeiskaltdcpp.so.2.4:_ZN4dcpp13SearchManager5onRESERKNS_10AdcCommandERKNS_13intrusive_ptrINS_4UserEEERKNSt7__cxx1112basic_stringIcSt11char_traitsIcESaIcEEE
libeiskaltdcpp.so.2.4:_ZN4dcpp13SearchManager5typesE
libeiskaltdcpp.so.2.4:_ZN4dcpp13SearchManager6listenEv
libeiskaltdcpp.so.2.4:_ZN4dcpp13SearchManager6onDataEPKhmRKNSt7__cxx1112basic_stringIcSt11char_traitsIcESaIcEEE
libeiskaltdcpp.so.2.4:_ZN4dcpp13SearchManager6searchERKNSt7__cxx1112basic_stringIcSt11char_traitsIcESaIcEEElNS0_9TypeModesENS0_9SizeModesES8_Pv
libeiskaltdcpp.so.2.4:_ZN4dcpp13SearchManager6searchERSt6vectorINSt7__cxx1112basic_stringIcSt11char_traitsIcESaIcEEESaIS7_EERKS7_lNS0_9TypeModesENS0_9SizeModesESC_RKS9_Pv
libeiskaltdcpp.so.2.4:_ZN4dcpp13SearchManager7respondERKNS_10AdcCommandERKNS_3CIDEbRKNSt7__cxx1112basic_stringIcSt11char_traitsIcESaIcEEE
libeiskaltdcpp.so.2.4:_ZN4dcpp13SearchManager8UdpQueue3runEv
libeiskaltdcpp.so.2.4:_ZN4dcpp13SearchManagerC1Ev
libeiskaltdcpp.so.2.4:_ZN4dcpp13SearchManagerC2Ev
libeiskaltdcpp.so.2.4:_ZN4dcpp13SearchManagerD0Ev
libeiskaltdcpp.so.2.4:_ZN4dcpp13SearchManagerD1Ev
libeiskaltdcpp.so.2.4:_ZN4dcpp13SearchManagerD2Ev
libeiskaltdcpp.so.2.4:_ZN4dcpp13UploadManager11getAutoSlotEv
libeiskaltdcpp.so.2.4:_ZN4dcpp13UploadManager11prepareFileERNS_14UserConnectionERKNSt7__cxx1112basic_stringIcSt11char_traitsIcESaIcEEESA_llb
libeiskaltdcpp.so.2.4:_ZN4dcpp13UploadManager11reserveSlotERKNS_10HintedUserE
libeiskaltdcpp.so.2.4:_ZN4dcpp13UploadManager12removeUploadEPNS_6UploadE
libeiskaltdcpp.so.2.4:_ZN4dcpp13UploadManager13addConnectionEPNS_14UserConnectionE
libeiskaltdcpp.so.2.4:_ZN4dcpp13UploadManager14clearUserFilesERKNS_13intrusive_ptrINS_4UserEEE
libeiskaltdcpp.so.2.4:_ZN4dcpp13UploadManager15addFailedUploadERKNS_14UserConnectionENSt7__cxx1112basic_stringIcSt11char_traitsIcESaIcEEE
libeiskaltdcpp.so.2.4:_ZN4dcpp13UploadManager16removeConnectionEPNS_14UserConnectionE
libeiskaltdcpp.so.2.4:_ZN4dcpp13UploadManager17getRunningAverageEv
libeiskaltdcpp.so.2.4:_ZN4dcpp13UploadManager17notifyQueuedUsersEv
libeiskaltdcpp.so.2.4:_ZN4dcpp13UploadManager18reloadRestrictionsEv
libeiskaltdcpp.so.2.4:_ZN4dcpp13UploadManager19getWaitingUserFilesB5cxx11ERKNS_13intrusive_ptrINS_4UserEEE
libeiskaltdcpp.so.2.4:_ZN4dcpp13UploadManager2onENS_10AdcCommand4TypeILj4802119EEEPNS_14UserConnectionERKS1_
libeiskaltdcpp.so.2.4:_ZN4dcpp13UploadManager2onENS_10AdcCommand4TypeILj5522759EEEPNS_14UserConnectionERKS1_
libeiskaltdcpp.so.2.4:_ZN4dcpp13UploadManager2onENS_20TimerManagerListener1XILi0EEEm
libeiskaltdcpp.so.2.4:_ZN4dcpp13UploadManager2onENS_20TimerManagerListener1XILi1EEEm
libeiskaltdcpp.so.2.4:_ZN4dcpp13UploadManager2onENS_21ClientManagerListener1XILi2EEERKNS_13intrusive_ptrINS_4UserEEE
libeiskaltdcpp.so.2.4:_ZN4dcpp13UploadManager2onENS_22UserConnectionListener1XILi0EEEPNS_14UserConnectionEmm
libeiskaltdcpp.so.2.4:_ZN4dcpp13UploadManager2onENS_22UserConnectionListener1XILi12EEEPNS_14UserConnectionE
libeiskaltdcpp.so.2.4:_ZN4dcpp13UploadManager2onENS_22UserConnectionListener1XILi13EEEPNS_14UserConnectionE
libeiskaltdcpp.so.2.4:_ZN4dcpp13UploadManager2onENS_22UserConnectionListener1XILi17EEEPNS_14UserConnectionE
libeiskaltdcpp.so.2.4:_ZN4dcpp13UploadManager2onENS_22UserConnectionListener1XILi3EEEPNS_14UserConnectionERKNSt7__cxx1112basic_stringIcSt11char_traitsIcESaIcEEE
libeiskaltdcpp.so.2.4:_ZN4dcpp13UploadManager2onENS_22UserConnectionListener1XILi7EEEPNS_14UserConnectionERKNSt7__cxx1112basic_stringIcSt11char_traitsIcESaIcEEEl
libeiskaltdcpp.so.2.4:_ZN4dcpp13UploadManager9hasUploadERNS_14UserConnectionE
libeiskaltdcpp.so.2.4:_ZN4dcpp13UploadManagerC1Ev
libeiskaltdcpp.so.2.4:_ZN4dcpp13UploadManagerC2Ev
libeiskaltdcpp.so.2.4:_ZN4dcpp13UploadManagerD0Ev
libeiskaltdcpp.so.2.4:_ZN4dcpp13UploadManagerD1Ev
libeiskaltdcpp.so.2.4:_ZN4dcpp13UploadManagerD2Ev
libeiskaltdcpp.so.2.4:_ZN4dcpp14BufferedSocket10threadReadEv
libeiskaltdcpp.so.2.4:_ZN4dcpp14BufferedSocket11checkEventsEv
libeiskaltdcpp.so.2.4:_ZN4dcpp14BufferedSocket11checkSocketEv
libeiskaltdcpp.so.2.4:_ZN4dcpp14BufferedSocket12threadAcceptEv
libeiskaltdcpp.so.2.4:_ZN4dcpp14BufferedSocket13threadConnectERKNSt7__cxx1112basic_stringIcSt11char_traitsIcESaIcEEES8_S8_NS0_8NatRolesEb
libeiskaltdcpp.so.2.4:_ZN4dcpp14BufferedSocket14threadSendDataEv
libeiskaltdcpp.so.2.4:_ZN4dcpp14BufferedSocket14threadSendFileEPNS_11InputStreamE
libeiskaltdcpp.so.2.4:_ZN4dcpp14BufferedSocket3runEv
libeiskaltdcpp.so.2.4:_ZN4dcpp14BufferedSocket4failERKNSt7__cxx1112basic_stringIcSt11char_traitsIcESaIcEEE
libeiskaltdcpp.so.2.4:_ZN4dcpp14BufferedSocket5writeEPKcm
libeiskaltdcpp.so.2.4:_ZN4dcpp14BufferedSocket6acceptERKNS_6SocketEbb
libeiskaltdcpp.so.2.4:_ZN4dcpp14BufferedSocket7addTaskENS0_5TasksEPNS0_8TaskDataE
libeiskaltdcpp.so.2.4:_ZN4dcpp14BufferedSocket7connectERKNSt7__cxx1112basic_stringIcSt11char_traitsIcESaIcEEES8_S8_NS0_8NatRolesEbbbNS_6Socket8ProtocolES8_
libeiskaltdcpp.so.2.4:_ZN4dcpp14BufferedSocket7connectERKNSt7__cxx1112basic_stringIcSt11char_traitsIcESaIcEEES8_bbbNS_6Socket8ProtocolES8_
libeiskaltdcpp.so.2.4:_ZN4dcpp14BufferedSocket7setModeENS0_5ModesEm
libeiskaltdcpp.so.2.4:_ZN4dcpp14BufferedSocket7socketsE
libeiskaltdcpp.so.2.4:_ZN4dcpp14BufferedSocket8shutdownEv
libeiskaltdcpp.so.2.4:_ZN4dcpp14BufferedSocket9setSocketESt10unique_ptrINS_6SocketESt14default_deleteIS2_EE
libeiskaltdcpp.so.2.4:_ZN4dcpp14BufferedSocketC1Ec
libeiskaltdcpp.so.2.4:_ZN4dcpp14BufferedSocketC2Ec
libeiskaltdcpp.so.2.4:_ZN4dcpp14BufferedSocketD0Ev
libeiskaltdcpp.so.2.4:_ZN4dcpp14BufferedSocketD1Ev
libeiskaltdcpp.so.2.4:_ZN4dcpp14BufferedSocketD2Ev
libeiskaltdcpp.so.2.4:_ZN4dcpp14HttpConnection11updateSpeedEv
libeiskaltdcpp.so.2.4:_ZN4dcpp14HttpConnection12abortRequestEb
libeiskaltdcpp.so.2.4:_ZN4dcpp14HttpConnection12downloadFileERKNSt7__cxx1112basic_stringIcSt11char_traitsIcESaIcEEE
libeiskaltdcpp.so.2.4:_ZN4dcpp14HttpConnection14prepareRequestENS0_11RequestTypeE
libeiskaltdcpp.so.2.4:_ZN4dcpp14HttpConnection2onENS_22BufferedSocketListener1XILi1EEE
libeiskaltdcpp.so.2.4:_ZN4dcpp14HttpConnection2onENS_22BufferedSocketListener1XILi2EEERKNSt7__cxx1112basic_stringIcSt11char_traitsIcESaIcEEE
libeiskaltdcpp.so.2.4:_ZN4dcpp14HttpConnection2onENS_22BufferedSocketListener1XILi3EEEPhm
libeiskaltdcpp.so.2.4:_ZN4dcpp14HttpConnection2onENS_22BufferedSocketListener1XILi5EEE
libeiskaltdcpp.so.2.4:_ZN4dcpp14HttpConnection2onENS_22BufferedSocketListener1XILi7EEERKNSt7__cxx1112basic_stringIcSt11char_traitsIcESaIcEEE
libeiskaltdcpp.so.2.4:_ZN4dcpp14HttpConnection5abortEv
libeiskaltdcpp.so.2.4:_ZN4dcpp14HttpConnection8downloadERKNSt7__cxx1112basic_stringIcSt11char_traitsIcESaIcEEERKSt13unordered_mapIS6_S6_St4hashIS6_ESt8equal_toIS6_ESaISt4pairIS7_S6_EEE
libeiskaltdcpp.so.2.4:_ZN4dcpp14HttpConnectionC1ERKNSt7__cxx1112basic_stringIcSt11char_traitsIcESaIcEEE
libeiskaltdcpp.so.2.4:_ZN4dcpp14HttpConnectionC2ERKNSt7__cxx1112basic_stringIcSt11char_traitsIcESaIcEEE
libeiskaltdcpp.so.2.4:_ZN4dcpp14HttpConnectionD0Ev
libeiskaltdcpp.so.2.4:_ZN4dcpp14HttpConnectionD1Ev
libeiskaltdcpp.so.2.4:_ZN4dcpp14HttpConnectionD2Ev
libeiskaltdcpp.so.2.4:_ZN4dcpp14MappingManager11runMiniUPnPEv
libeiskaltdcpp.so.2.4:_ZN4dcpp14MappingManager17addImplementationEPNS_4UPnPE
libeiskaltdcpp.so.2.4:_ZN4dcpp14MappingManager3logERKNSt7__cxx1112basic_stringIcSt11char_traitsIcESaIcEEE
libeiskaltdcpp.so.2.4:_ZN4dcpp14MappingManager3runEv
libeiskaltdcpp.so.2.4:_ZN4dcpp14MappingManager4openEv
libeiskaltdcpp.so.2.4:_ZN4dcpp14MappingManager5closeERNS_4UPnPE
libeiskaltdcpp.so.2.4:_ZN4dcpp14MappingManager5closeEv
libeiskaltdcpp.so.2.4:_ZN4dcpp14ScriptInstance10GetLuaBoolEv
libeiskaltdcpp.so.2.4:_ZN4dcpp14ScriptInstance11MakeCallRawERKNSt7__cxx1112basic_stringIcSt11char_traitsIcESaIcEEES8_ii
libeiskaltdcpp.so.2.4:_ZN4dcpp14ScriptInstance12EvaluateFileERKNSt7__cxx1112basic_stringIcSt11char_traitsIcESaIcEEE
libeiskaltdcpp.so.2.4:_ZN4dcpp14ScriptInstance13EvaluateChunkERKNSt7__cxx1112basic_stringIcSt11char_traitsIcESaIcEEE
libeiskaltdcpp.so.2.4:_ZN4dcpp14ScriptInstance13GetClientTypeB5cxx11EPNS_6ClientE
libeiskaltdcpp.so.2.4:_ZN4dcpp14ScriptInstance1LE
libeiskaltdcpp.so.2.4:_ZN4dcpp14ScriptInstance2csE
libeiskaltdcpp.so.2.4:_ZN4dcpp14ScriptInstance7LuaPushERKNSt7__cxx1112basic_stringIcSt11char_traitsIcESaIcEEE
libeiskaltdcpp.so.2.4:_ZN4dcpp14ScriptInstance7LuaPushEi
libeiskaltdcpp.so.2.4:_ZN4dcpp14UserConnection12FEATURE_TTHFB5cxx11E
libeiskaltdcpp.so.2.4:_ZN4dcpp14UserConnection12FEATURE_TTHLB5cxx11E
libeiskaltdcpp.so.2.4:_ZN4dcpp14UserConnection14FEATURE_ADCGETB5cxx11E
libeiskaltdcpp.so.2.4:_ZN4dcpp14UserConnection15updateChunkSizeEllm
libeiskaltdcpp.so.2.4:_ZN4dcpp14UserConnection16FEATURE_ADC_BAS0B5cxx11E
libeiskaltdcpp.so.2.4:_ZN4dcpp14UserConnection16FEATURE_ADC_BASEB5cxx11E
libeiskaltdcpp.so.2.4:_ZN4dcpp14UserConnection16FEATURE_ADC_BZIPB5cxx11E
libeiskaltdcpp.so.2.4:_ZN4dcpp14UserConnection16FEATURE_ADC_TIGRB5cxx11E
libeiskaltdcpp.so.2.4:_ZN4dcpp14UserConnection16FEATURE_ZLIB_GETB5cxx11E
libeiskaltdcpp.so.2.4:_ZN4dcpp14UserConnection17FEATURE_MINISLOTSB5cxx11E
libeiskaltdcpp.so.2.4:_ZN4dcpp14UserConnection18FEATURE_XML_BZLISTB5cxx11E
libeiskaltdcpp.so.2.4:_ZN4dcpp14UserConnection18FILE_NOT_AVAILABLEB5cxx11E
libeiskaltdcpp.so.2.4:_ZN4dcpp14UserConnection2onENS_22BufferedSocketListener1XILi1EEE
libeiskaltdcpp.so.2.4:_ZN4dcpp14UserConnection2onENS_22BufferedSocketListener1XILi2EEERKNSt7__cxx1112basic_stringIcSt11char_traitsIcESaIcEEE
libeiskaltdcpp.so.2.4:_ZN4dcpp14UserConnection2onENS_22BufferedSocketListener1XILi3EEEPhm
libeiskaltdcpp.so.2.4:_ZN4dcpp14UserConnection2onENS_22BufferedSocketListener1XILi4EEEmm
libeiskaltdcpp.so.2.4:_ZN4dcpp14UserConnection2onENS_22BufferedSocketListener1XILi5EEE
libeiskaltdcpp.so.2.4:_ZN4dcpp14UserConnection2onENS_22BufferedSocketListener1XILi6EEE
libeiskaltdcpp.so.2.4:_ZN4dcpp14UserConnection2onENS_22BufferedSocketListener1XILi7EEERKNSt7__cxx1112basic_stringIcSt11char_traitsIcESaIcEEE
libeiskaltdcpp.so.2.4:_ZN4dcpp14UserConnection2onENS_22BufferedSocketListener1XILi8EEE
libeiskaltdcpp.so.2.4:_ZN4dcpp14UserConnection3getERKNSt7__cxx1112basic_stringIcSt11char_traitsIcESaIcEEES8_ll
libeiskaltdcpp.so.2.4:_ZN4dcpp14UserConnection3infEb
libeiskaltdcpp.so.2.4:_ZN4dcpp14UserConnection3sndERKNSt7__cxx1112basic_stringIcSt11char_traitsIcESaIcEEES8_ll
libeiskaltdcpp.so.2.4:_ZN4dcpp14UserConnection3supERKSt6vectorINSt7__cxx1112basic_stringIcSt11char_traitsIcESaIcEEESaIS7_EE
libeiskaltdcpp.so.2.4:_ZN4dcpp14UserConnection4sendERKNSt7__cxx1112basic_stringIcSt11char_traitsIcESaIcEEE
libeiskaltdcpp.so.2.4:_ZN4dcpp14UserConnection6UPLOADB5cxx11E
libeiskaltdcpp.so.2.4:_ZN4dcpp14UserConnection6acceptERKNS_6SocketE
libeiskaltdcpp.so.2.4:_ZN4dcpp14UserConnection6handleENS_10AdcCommand4TypeILj4281427EEERKS1_
libeiskaltdcpp.so.2.4:_ZN4dcpp14UserConnection7connectERKNSt7__cxx1112basic_stringIcSt11char_traitsIcESaIcEEES8_S8_NS_14BufferedSocket8NatRolesENS_13intrusive_ptrINS_4UserEEE
libeiskaltdcpp.so.2.4:_ZN4dcpp14UserConnection8DOWNLOADB5cxx11E
libeiskaltdcpp.so.2.4:_ZN4dcpp14UserConnection8supportsERKSt6vectorINSt7__cxx1112basic_stringIcSt11char_traitsIcESaIcEEESaIS7_EE
libeiskaltdcpp.so.2.4:_ZN4dcpp15CPerfolderLimit13IsUserAllowedERKNSt7__cxx1112basic_stringIcSt11char_traitsIcESaIcEEENS_13intrusive_ptrINS_4UserEEEPS6_
libeiskaltdcpp.so.2.4:_ZN4dcpp15CPerfolderLimit9RenewListEPKNSt7__cxx1112basic_stringIcSt11char_traitsIcESaIcEEE
libeiskaltdcpp.so.2.4:_ZN4dcpp15CPerfolderLimitC1EPKNSt7__cxx1112basic_stringIcSt11char_traitsIcESaIcEEE
libeiskaltdcpp.so.2.4:_ZN4dcpp15CPerfolderLimitC2EPKNSt7__cxx1112basic_stringIcSt11char_traitsIcESaIcEEE
libeiskaltdcpp.so.2.4:_ZN4dcpp15CPerfolderLimitD1Ev
libeiskaltdcpp.so.2.4:_ZN4dcpp15CPerfolderLimitD2Ev
libeiskaltdcpp.so.2.4:_ZN4dcpp15DownloadManager11logDownloadEPNS_14UserConnectionEPNS_8DownloadE
libeiskaltdcpp.so.2.4:_ZN4dcpp15DownloadManager12failDownloadEPNS_14UserConnectionERKNSt7__cxx1112basic_stringIcSt11char_traitsIcESaIcEEE
libeiskaltdcpp.so.2.4:_ZN4dcpp15DownloadManager13addConnectionEPNS_14UserConnectionE
libeiskaltdcpp.so.2.4:_ZN4dcpp15DownloadManager13startDownloadENS_9QueueItem8PriorityE
libeiskaltdcpp.so.2.4:_ZN4dcpp15DownloadManager14checkDownloadsEPNS_14UserConnectionE
libeiskaltdcpp.so.2.4:_ZN4dcpp15DownloadManager14removeDownloadEPNS_8DownloadE
libeiskaltdcpp.so.2.4:_ZN4dcpp15DownloadManager16fileNotAvailableEPNS_14UserConnectionE
libeiskaltdcpp.so.2.4:_ZN4dcpp15DownloadManager16removeConnectionEPNS_14UserConnectionE
libeiskaltdcpp.so.2.4:_ZN4dcpp15DownloadManager17getRunningAverageEv
libeiskaltdcpp.so.2.4:_ZN4dcpp15DownloadManager2onENS_10AdcCommand4TypeILj4281427EEEPNS_14UserConnectionERKS1_
libeiskaltdcpp.so.2.4:_ZN4dcpp15DownloadManager2onENS_10AdcCommand4TypeILj4476499EEEPNS_14UserConnectionERKS1_
libeiskaltdcpp.so.2.4:_ZN4dcpp15DownloadManager2onENS_20TimerManagerListener1XILi0EEEm
libeiskaltdcpp.so.2.4:_ZN4dcpp15DownloadManager2onENS_22UserConnectionListener1XILi14EEEPNS_14UserConnectionE
libeiskaltdcpp.so.2.4:_ZN4dcpp15DownloadManager2onENS_22UserConnectionListener1XILi20EEEPNS_14UserConnectionE
libeiskaltdcpp.so.2.4:_ZN4dcpp15DownloadManager2onENS_22UserConnectionListener1XILi2EEEPNS_14UserConnectionEPKhm
libeiskaltdcpp.so.2.4:_ZN4dcpp15DownloadManager2onENS_22UserConnectionListener1XILi8EEEPNS_14UserConnectionE
libeiskaltdcpp.so.2.4:_ZN4dcpp15DownloadManager7endDataEPNS_14UserConnectionE
libeiskaltdcpp.so.2.4:_ZN4dcpp15DownloadManager7noSlotsEPNS_14UserConnectionE
libeiskaltdcpp.so.2.4:_ZN4dcpp15DownloadManager8onFailedEPNS_14UserConnectionERKNSt7__cxx1112basic_stringIcSt11char_traitsIcESaIcEEE
libeiskaltdcpp.so.2.4:_ZN4dcpp15DownloadManager9checkIdleERKNS_13intrusive_ptrINS_4UserEEE
libeiskaltdcpp.so.2.4:_ZN4dcpp15DownloadManager9startDataEPNS_14UserConnectionEllb
libeiskaltdcpp.so.2.4:_ZN4dcpp15DownloadManagerC1Ev
libeiskaltdcpp.so.2.4:_ZN4dcpp15DownloadManagerC2Ev
libeiskaltdcpp.so.2.4:_ZN4dcpp15DownloadManagerD0Ev
libeiskaltdcpp.so.2.4:_ZN4dcpp15DownloadManagerD1Ev
libeiskaltdcpp.so.2.4:_ZN4dcpp15DownloadManagerD2Ev
libeiskaltdcpp.so.2.4:_ZN4dcpp15FavoriteManager10setHubListEi
libeiskaltdcpp.so.2.4:_ZN4dcpp15FavoriteManager11addFavoriteERKNS_16FavoriteHubEntryE
libeiskaltdcpp.so.2.4:_ZN4dcpp15FavoriteManager11getHubListsB5cxx11Ev
libeiskaltdcpp.so.2.4:_ZN4dcpp15FavoriteManager11userUpdatedERKNS_10OnlineUserE
libeiskaltdcpp.so.2.4:_ZN4dcpp15FavoriteManager12setAutoGrantERKNS_13intrusive_ptrINS_4UserEEEb
libeiskaltdcpp.so.2.4:_ZN4dcpp15FavoriteManager13getConfigFileB5cxx11Ev
libeiskaltdcpp.so.2.4:_ZN4dcpp15FavoriteManager13isFavoriteHubERKNSt7__cxx1112basic_stringIcSt11char_traitsIcESaIcEEE
libeiskaltdcpp.so.2.4:_ZN4dcpp15FavoriteManager14addFavoriteDirERKNSt7__cxx1112basic_stringIcSt11char_traitsIcESaIcEEES8_
libeiskaltdcpp.so.2.4:_ZN4dcpp15FavoriteManager14addUserCommandEiiiRKNSt7__cxx1112basic_stringIcSt11char_traitsIcESaIcEEES8_S8_S8_
libeiskaltdcpp.so.2.4:_ZN4dcpp15FavoriteManager14getFavoriteHubERKNSt7__cxx1112basic_stringIcSt11char_traitsIcESaIcEEE
libeiskaltdcpp.so.2.4:_ZN4dcpp15FavoriteManager14getUserCommandEiRNS_11UserCommandE
libeiskaltdcpp.so.2.4:_ZN4dcpp15FavoriteManager14onHttpFinishedEb
libeiskaltdcpp.so.2.4:_ZN4dcpp15FavoriteManager14removeFavoriteEPNS_16FavoriteHubEntryE
libeiskaltdcpp.so.2.4:_ZN4dcpp15FavoriteManager15addFavoriteUserERKNS_13intrusive_ptrINS_4UserEEE
libeiskaltdcpp.so.2.4:_ZN4dcpp15FavoriteManager15findUserCommandERKNSt7__cxx1112basic_stringIcSt11char_traitsIcESaIcEEES8_
libeiskaltdcpp.so.2.4:_ZN4dcpp15FavoriteManager15getUserCommandsEiRKSt6vectorINSt7__cxx1112basic_stringIcSt11char_traitsIcESaIcEEESaIS7_EE
libeiskaltdcpp.so.2.4:_ZN4dcpp15FavoriteManager15moveUserCommandEii
libeiskaltdcpp.so.2.4:_ZN4dcpp15FavoriteManager17removeFavoriteDirERKNSt7__cxx1112basic_stringIcSt11char_traitsIcESaIcEEE
libeiskaltdcpp.so.2.4:_ZN4dcpp15FavoriteManager17removeUserCommandERKNSt7__cxx1112basic_stringIcSt11char_traitsIcESaIcEEE
libeiskaltdcpp.so.2.4:_ZN4dcpp15FavoriteManager17removeUserCommandEi
libeiskaltdcpp.so.2.4:_ZN4dcpp15FavoriteManager17renameFavoriteDirERKNSt7__cxx1112basic_stringIcSt11char_traitsIcESaIcEEES8_
libeiskaltdcpp.so.2.4:_ZN4dcpp15FavoriteManager17updateUserCommandERKNS_11UserCommandE
libeiskaltdcpp.so.2.4:_ZN4dcpp15FavoriteManager18removeFavoriteUserERKNS_13intrusive_ptrINS_4UserEEE
libeiskaltdcpp.so.2.4:_ZN4dcpp15FavoriteManager18setUserDescriptionERKNS_13intrusive_ptrINS_4UserEEERKNSt7__cxx1112basic_stringIcSt11char_traitsIcESaIcEEE
libeiskaltdcpp.so.2.4:_ZN4dcpp15FavoriteManager21removeHubUserCommandsEiRKNSt7__cxx1112basic_stringIcSt11char_traitsIcESaIcEEE
libeiskaltdcpp.so.2.4:_ZN4dcpp15FavoriteManager2onENS_21ClientManagerListener1XILi0EEERKNS_13intrusive_ptrINS_4UserEEE
libeiskaltdcpp.so.2.4:_ZN4dcpp15FavoriteManager2onENS_21ClientManagerListener1XILi1EEERKNS_10OnlineUserE
libeiskaltdcpp.so.2.4:_ZN4dcpp15FavoriteManager2onENS_21ClientManagerListener1XILi2EEERKNS_13intrusive_ptrINS_4UserEEE
libeiskaltdcpp.so.2.4:_ZN4dcpp15FavoriteManager2onENS_22HttpConnectionListener1XILi0EEEPNS_14HttpConnectionEPKhm
libeiskaltdcpp.so.2.4:_ZN4dcpp15FavoriteManager2onENS_22HttpConnectionListener1XILi1EEEPNS_14HttpConnectionERKNSt7__cxx1112basic_stringIcSt11char_traitsIcESaIcEEE
libeiskaltdcpp.so.2.4:_ZN4dcpp15FavoriteManager2onENS_22HttpConnectionListener1XILi2EEEPNS_14HttpConnectionERKNSt7__cxx1112basic_stringIcSt11char_traitsIcESaIcEEE
libeiskaltdcpp.so.2.4:_ZN4dcpp15FavoriteManager2onENS_22HttpConnectionListener1XILi3EEEPNS_14HttpConnectionERKNSt7__cxx1112basic_stringIcSt11char_traitsIcESaIcEEE
libeiskaltdcpp.so.2.4:_ZN4dcpp15FavoriteManager2onENS_22HttpConnectionListener1XILi4EEEPNS_14HttpConnectionE
libeiskaltdcpp.so.2.4:_ZN4dcpp15FavoriteManager2onENS_22HttpConnectionListener1XILi5EEEPNS_14HttpConnectionE
libeiskaltdcpp.so.2.4:_ZN4dcpp15FavoriteManager2onENS_22HttpConnectionListener1XILi6EEEPNS_14HttpConnectionEb
libeiskaltdcpp.so.2.4:_ZN4dcpp15FavoriteManager4loadERNS_9SimpleXMLE
libeiskaltdcpp.so.2.4:_ZN4dcpp15FavoriteManager4loadEv
libeiskaltdcpp.so.2.4:_ZN4dcpp15FavoriteManager4saveEv
libeiskaltdcpp.so.2.4:_ZN4dcpp15FavoriteManager7refreshEb
libeiskaltdcpp.so.2.4:_ZN4dcpp15FavoriteManagerC1Ev
libeiskaltdcpp.so.2.4:_ZN4dcpp15FavoriteManagerC2Ev
libeiskaltdcpp.so.2.4:_ZN4dcpp15FavoriteManagerD0Ev
libeiskaltdcpp.so.2.4:_ZN4dcpp15FavoriteManagerD1Ev
libeiskaltdcpp.so.2.4:_ZN4dcpp15FavoriteManagerD2Ev
libeiskaltdcpp.so.2.4:_ZN4dcpp15FinishedManager10onCompleteEPNS_8TransferEbb
libeiskaltdcpp.so.2.4:_ZN4dcpp15FinishedManager20handlePartialRequestERKNS_9HashValueINS_9TigerHashEEERSt6vectorItSaItEE
libeiskaltdcpp.so.2.4:_ZN4dcpp15FinishedManager2onENS_20QueueManagerListener1XILi17EEEPNS_8DownloadE
libeiskaltdcpp.so.2.4:_ZN4dcpp15FinishedManager2onENS_21UploadManagerListener1XILi0EEEPNS_6UploadE
libeiskaltdcpp.so.2.4:_ZN4dcpp15FinishedManager2onENS_21UploadManagerListener1XILi1EEEPNS_6UploadERKNSt7__cxx1112basic_stringIcSt11char_traitsIcESaIcEEE
libeiskaltdcpp.so.2.4:_ZN4dcpp15FinishedManager2onENS_23DownloadManagerListener1XILi0EEEPNS_8DownloadE
libeiskaltdcpp.so.2.4:_ZN4dcpp15FinishedManager2onENS_23DownloadManagerListener1XILi1EEEPNS_8DownloadERKNSt7__cxx1112basic_stringIcSt11char_traitsIcESaIcEEE
libeiskaltdcpp.so.2.4:_ZN4dcpp15FinishedManager4lockEv
libeiskaltdcpp.so.2.4:_ZN4dcpp15FinishedManager6removeEbRKNS_10HintedUserE
libeiskaltdcpp.so.2.4:_ZN4dcpp15FinishedManager6removeEbRKNSt7__cxx1112basic_stringIcSt11char_traitsIcESaIcEEE
libeiskaltdcpp.so.2.4:_ZN4dcpp15FinishedManager8clearDLsEv
libeiskaltdcpp.so.2.4:_ZN4dcpp15FinishedManager8clearULsEv
libeiskaltdcpp.so.2.4:_ZN4dcpp15FinishedManager9getParamsERKNSt7__cxx1112basic_stringIcSt11char_traitsIcESaIcEEERSt13unordered_mapIS6_S6_St4hashIS6_ESt8equal_toIS6_ESaISt4pairIS7_S6_EEE
libeiskaltdcpp.so.2.4:_ZN4dcpp15FinishedManager9getTargetERKNSt7__cxx1112basic_stringIcSt11char_traitsIcESaIcEEE
libeiskaltdcpp.so.2.4:_ZN4dcpp15FinishedManager9removeAllEb
libeiskaltdcpp.so.2.4:_ZN4dcpp15FinishedManagerC1Ev
libeiskaltdcpp.so.2.4:_ZN4dcpp15FinishedManagerC2Ev
libeiskaltdcpp.so.2.4:_ZN4dcpp15FinishedManagerD0Ev
libeiskaltdcpp.so.2.4:_ZN4dcpp15FinishedManagerD1Ev
libeiskaltdcpp.so.2.4:_ZN4dcpp15FinishedManagerD2Ev
libeiskaltdcpp.so.2.4:_ZN4dcpp15SettingsManager11settingTagsB5cxx11E
libeiskaltdcpp.so.2.4:_ZN4dcpp15SettingsManager12parseCoreCmdERKNSt7__cxx1112basic_stringIcSt11char_traitsIcESaIcEEE
libeiskaltdcpp.so.2.4:_ZN4dcpp15SettingsManager12parseCoreCmdERNSt7__cxx1112basic_stringIcSt11char_traitsIcESaIcEEERKS6_S9_
libeiskaltdcpp.so.2.4:_ZN4dcpp15SettingsManager13addSearchTypeERKNSt7__cxx1112basic_stringIcSt11char_traitsIcESaIcEEERKSt6vectorIS6_SaIS6_EEb
libeiskaltdcpp.so.2.4:_ZN4dcpp15SettingsManager13delSearchTypeERKNSt7__cxx1112basic_stringIcSt11char_traitsIcESaIcEEE
libeiskaltdcpp.so.2.4:_ZN4dcpp15SettingsManager13getExtensionsERKNSt7__cxx1112basic_stringIcSt11char_traitsIcESaIcEEE
libeiskaltdcpp.so.2.4:_ZN4dcpp15SettingsManager13getSearchTypeERKNSt7__cxx1112basic_stringIcSt11char_traitsIcESaIcEEE
libeiskaltdcpp.so.2.4:_ZN4dcpp15SettingsManager13modSearchTypeERKNSt7__cxx1112basic_stringIcSt11char_traitsIcESaIcEEERKSt6vectorIS6_SaIS6_EE
libeiskaltdcpp.so.2.4:_ZN4dcpp15SettingsManager16connectionSpeedsB5cxx11E
libeiskaltdcpp.so.2.4:_ZN4dcpp15SettingsManager16renameSearchTypeERKNSt7__cxx1112basic_stringIcSt11char_traitsIcESaIcEEES8_
libeiskaltdcpp.so.2.4:_ZN4dcpp15SettingsManager21setSearchTypeDefaultsEv
libeiskaltdcpp.so.2.4:_ZN4dcpp15SettingsManager4loadERKNSt7__cxx1112basic_stringIcSt11char_traitsIcESaIcEEE
libeiskaltdcpp.so.2.4:_ZN4dcpp15SettingsManager4saveERKNSt7__cxx1112basic_stringIcSt11char_traitsIcESaIcEEE
libeiskaltdcpp.so.2.4:_ZN4dcpp15SettingsManagerC1Ev
libeiskaltdcpp.so.2.4:_ZN4dcpp15SettingsManagerC2Ev
libeiskaltdcpp.so.2.4:_ZN4dcpp15SimpleXMLReader10advancePosEm
libeiskaltdcpp.so.2.4:_ZN4dcpp15SimpleXMLReader10elementEndEv
libeiskaltdcpp.so.2.4:_ZN4dcpp15SimpleXMLReader11elementAttrEv
libeiskaltdcpp.so.2.4:_ZN4dcpp15SimpleXMLReader11elementNameEv
libeiskaltdcpp.so.2.4:_ZN4dcpp15SimpleXMLReader12spaceOrErrorEPKc
libeiskaltdcpp.so.2.4:_ZN4dcpp15SimpleXMLReader13elementEndEndEv
libeiskaltdcpp.so.2.4:_ZN4dcpp15SimpleXMLReader14declVersionNumEv
libeiskaltdcpp.so.2.4:_ZN4dcpp15SimpleXMLReader15elementAttrNameEv
libeiskaltdcpp.so.2.4:_ZN4dcpp15SimpleXMLReader16elementAttrValueEv
libeiskaltdcpp.so.2.4:_ZN4dcpp15SimpleXMLReader16elementEndSimpleEv
libeiskaltdcpp.so.2.4:_ZN4dcpp15SimpleXMLReader17declEncodingValueEv
libeiskaltdcpp.so.2.4:_ZN4dcpp15SimpleXMLReader17elementEndComplexEv
libeiskaltdcpp.so.2.4:_ZN4dcpp15SimpleXMLReader5cdataEv
libeiskaltdcpp.so.2.4:_ZN4dcpp15SimpleXMLReader5errorEPKc
libeiskaltdcpp.so.2.4:_ZN4dcpp15SimpleXMLReader5parseEPKcm
libeiskaltdcpp.so.2.4:_ZN4dcpp15SimpleXMLReader5parseERKNSt7__cxx1112basic_stringIcSt11char_traitsIcESaIcEEE
libeiskaltdcpp.so.2.4:_ZN4dcpp15SimpleXMLReader5parseERNS_11InputStreamEm
libeiskaltdcpp.so.2.4:_ZN4dcpp15SimpleXMLReader6appendERNSt7__cxx1112basic_stringIcSt11char_traitsIcESaIcEEEmN9__gnu_cxx17__normal_iteratorIPKcS6_EESC_
libeiskaltdcpp.so.2.4:_ZN4dcpp15SimpleXMLReader6appendERNSt7__cxx1112basic_stringIcSt11char_traitsIcESaIcEEEmi
libeiskaltdcpp.so.2.4:_ZN4dcpp15SimpleXMLReader6entrefERNSt7__cxx1112basic_stringIcSt11char_traitsIcESaIcEEE
libeiskaltdcpp.so.2.4:_ZN4dcpp15SimpleXMLReader7commentEv
libeiskaltdcpp.so.2.4:_ZN4dcpp15SimpleXMLReader7contentEv
libeiskaltdcpp.so.2.4:_ZN4dcpp15SimpleXMLReader7elementEv
libeiskaltdcpp.so.2.4:_ZN4dcpp15SimpleXMLReader7literalEPKcmbNS0_10ParseStateE
libeiskaltdcpp.so.2.4:_ZN4dcpp15SimpleXMLReader7processEv
libeiskaltdcpp.so.2.4:_ZN4dcpp15SimpleXMLReader8CallBack9getAttribERSt6vectorISt4pairINSt7__cxx1112basic_stringIcSt11char_traitsIcESaIcEEES9_ESaISA_EERKS9_m
libeiskaltdcpp.so.2.4:_ZN4dcpp15SimpleXMLReader9characterEiNS0_10ParseStateE
libeiskaltdcpp.so.2.4:_ZN4dcpp15SimpleXMLReader9skipSpaceEb
libeiskaltdcpp.so.2.4:_ZN4dcpp15SimpleXMLReaderC1EPNS0_8CallBackE
libeiskaltdcpp.so.2.4:_ZN4dcpp15SimpleXMLReaderC2EPNS0_8CallBackE
libeiskaltdcpp.so.2.4:_ZN4dcpp15SocketException13errorToStringB5cxx11Ei
libeiskaltdcpp.so.2.4:_ZN4dcpp15SocketExceptionC1Ei
libeiskaltdcpp.so.2.4:_ZN4dcpp15SocketExceptionC2Ei
libeiskaltdcpp.so.2.4:_ZN4dcpp15ThrottleManager10getUpLimitEv
libeiskaltdcpp.so.2.4:_ZN4dcpp15ThrottleManager10setSettingENS_15SettingsManager10IntSettingEi
libeiskaltdcpp.so.2.4:_ZN4dcpp15ThrottleManager12getDownLimitEv
libeiskaltdcpp.so.2.4:_ZN4dcpp15ThrottleManager13getCurSettingENS_15SettingsManager10IntSettingE
libeiskaltdcpp.so.2.4:_ZN4dcpp15ThrottleManager16getCurThrottlingEv
libeiskaltdcpp.so.2.4:_ZN4dcpp15ThrottleManager2onENS_20TimerManagerListener1XILi0EEEm
libeiskaltdcpp.so.2.4:_ZN4dcpp15ThrottleManager4readEPNS_6SocketEPvm
libeiskaltdcpp.so.2.4:_ZN4dcpp15ThrottleManager5writeEPNS_6SocketEPvRm
libeiskaltdcpp.so.2.4:_ZN4dcpp15ThrottleManager8shutdownEv
libeiskaltdcpp.so.2.4:_ZN4dcpp15ThrottleManager9waitTokenEv
libeiskaltdcpp.so.2.4:_ZN4dcpp15ThrottleManagerD0Ev
libeiskaltdcpp.so.2.4:_ZN4dcpp15ThrottleManagerD1Ev
libeiskaltdcpp.so.2.4:_ZN4dcpp15ThrottleManagerD2Ev
libeiskaltdcpp.so.2.4:_ZN4dcpp16ADLSearchManager11matchesFileERSt6vectorINS0_7DestDirESaIS2_EEPNS_16DirectoryListing4FileERNSt7__cxx1112basic_stringIcSt11char_traitsIcESaIcEEE
libeiskaltdcpp.so.2.4:_ZN4dcpp16ADLSearchManager12matchListingERNS_16DirectoryListingE
libeiskaltdcpp.so.2.4:_ZN4dcpp16ADLSearchManager12matchRecurseERSt6vectorINS0_7DestDirESaIS2_EEPNS_16DirectoryListing9DirectoryERNSt7__cxx1112basic_stringIcSt11char_traitsIcESaIcEEE
libeiskaltdcpp.so.2.4:_ZN4dcpp16ADLSearchManager13getConfigFileB5cxx11Ev
libeiskaltdcpp.so.2.4:_ZN4dcpp16ADLSearchManager15stepUpDirectoryERSt6vectorINS0_7DestDirESaIS2_EE
libeiskaltdcpp.so.2.4:_ZN4dcpp16ADLSearchManager16matchesDirectoryERSt6vectorINS0_7DestDirESaIS2_EEPNS_16DirectoryListing9DirectoryERNSt7__cxx1112basic_stringIcSt11char_traitsIcESaIcEEE
libeiskaltdcpp.so.2.4:_ZN4dcpp16ADLSearchManager29prepareDestinationDirectoriesERSt6vectorINS0_7DestDirESaIS2_EEPNS_16DirectoryListing9DirectoryERSt13unordered_mapINSt7__cxx1112basic_stringIcSt11char_traitsIcESaIcEEESF_St4hashISF_ESt8equal_toISF_ESaISt4pairIKSF_SF_EEE
libeiskaltdcpp.so.2.4:_ZN4dcpp16ADLSearchManager30finalizeDestinationDirectoriesERSt6vectorINS0_7DestDirESaIS2_EEPNS_16DirectoryListing9DirectoryE
libeiskaltdcpp.so.2.4:_ZN4dcpp16ADLSearchManager4loadEv
libeiskaltdcpp.so.2.4:_ZN4dcpp16ADLSearchManager4saveEv
libeiskaltdcpp.so.2.4:_ZN4dcpp16ADLSearchManagerC1Ev
libeiskaltdcpp.so.2.4:_ZN4dcpp16ADLSearchManagerC2Ev
libeiskaltdcpp.so.2.4:_ZN4dcpp16ADLSearchManagerD0Ev
libeiskaltdcpp.so.2.4:_ZN4dcpp16ADLSearchManagerD1Ev
libeiskaltdcpp.so.2.4:_ZN4dcpp16ADLSearchManagerD2Ev
libeiskaltdcpp.so.2.4:_ZN4dcpp16DirectoryListing19getUserFromFilenameERKNSt7__cxx1112basic_stringIcSt11char_traitsIcESaIcEEE
libeiskaltdcpp.so.2.4:_ZN4dcpp16DirectoryListing7loadXMLB5cxx11ERNS_11InputStreamEb
libeiskaltdcpp.so.2.4:_ZN4dcpp16DirectoryListing8downloadEPNS0_4FileERKNSt7__cxx1112basic_stringIcSt11char_traitsIcESaIcEEEbb
libeiskaltdcpp.so.2.4:_ZN4dcpp16DirectoryListing8downloadEPNS0_9DirectoryERKNSt7__cxx1112basic_stringIcSt11char_traitsIcESaIcEEEb
libeiskaltdcpp.so.2.4:_ZN4dcpp16DirectoryListing8downloadERKNSt7__cxx1112basic_stringIcSt11char_traitsIcESaIcEEES8_b
libeiskaltdcpp.so.2.4:_ZN4dcpp16DirectoryListing8loadFileERKNSt7__cxx1112basic_stringIcSt11char_traitsIcESaIcEEE
libeiskaltdcpp.so.2.4:_ZN4dcpp16DirectoryListing9Directory10filterListERS0_
libeiskaltdcpp.so.2.4:_ZN4dcpp16DirectoryListing9Directory10filterListERSt13unordered_setINS_9HashValueINS_9TigerHashEEESt4hashIS5_ESt8equal_toIS5_ESaIS5_EE
libeiskaltdcpp.so.2.4:_ZN4dcpp16DirectoryListing9Directory11getHashListERSt13unordered_setINS_9HashValueINS_9TigerHashEEESt4hashIS5_ESt8equal_toIS5_ESaIS5_EE
libeiskaltdcpp.so.2.4:_ZN4dcpp16DirectoryListing9Directory12getTotalSizeEb
libeiskaltdcpp.so.2.4:_ZN4dcpp16DirectoryListing9Directory17getTotalFileCountEb
libeiskaltdcpp.so.2.4:_ZN4dcpp16DirectoryListing9DirectoryD0Ev
libeiskaltdcpp.so.2.4:_ZN4dcpp16DirectoryListing9DirectoryD1Ev
libeiskaltdcpp.so.2.4:_ZN4dcpp16DirectoryListing9DirectoryD2Ev
libeiskaltdcpp.so.2.4:_ZN4dcpp16DirectoryListing9updateXMLERKNSt7__cxx1112basic_stringIcSt11char_traitsIcESaIcEEE
libeiskaltdcpp.so.2.4:_ZN4dcpp16DirectoryListingC1ERKNS_10HintedUserE
libeiskaltdcpp.so.2.4:_ZN4dcpp16DirectoryListingC2ERKNS_10HintedUserE
libeiskaltdcpp.so.2.4:_ZN4dcpp16DirectoryListingD1Ev
libeiskaltdcpp.so.2.4:_ZN4dcpp16DirectoryListingD2Ev
libeiskaltdcpp.so.2.4:_ZN4dcpp16FinishedFileItem6updateEllllbRKNS_10HintedUserE
libeiskaltdcpp.so.2.4:_ZN4dcpp16FinishedFileItemC1ElllllbRKNS_10HintedUserE
libeiskaltdcpp.so.2.4:_ZN4dcpp16FinishedFileItemC2ElllllbRKNS_10HintedUserE
libeiskaltdcpp.so.2.4:_ZN4dcpp16FinishedItemBase6updateElll
libeiskaltdcpp.so.2.4:_ZN4dcpp16FinishedItemBaseC1Elll
libeiskaltdcpp.so.2.4:_ZN4dcpp16FinishedItemBaseC2Elll
libeiskaltdcpp.so.2.4:_ZN4dcpp16FinishedUserItem6updateElllRKNSt7__cxx1112basic_stringIcSt11char_traitsIcESaIcEEE
libeiskaltdcpp.so.2.4:_ZN4dcpp16FinishedUserItemC1ElllRKNSt7__cxx1112basic_stringIcSt11char_traitsIcESaIcEEE
libeiskaltdcpp.so.2.4:_ZN4dcpp16FinishedUserItemC2ElllRKNSt7__cxx1112basic_stringIcSt11char_traitsIcESaIcEEE
libeiskaltdcpp.so.2.4:_ZN4dcpp17AdcScriptInstance15onClientMessageEPNS_6AdcHubERKNSt7__cxx1112basic_stringIcSt11char_traitsIcESaIcEEE
libeiskaltdcpp.so.2.4:_ZN4dcpp17ConnectionManager10adcConnectERKNS_10OnlineUserERKNSt7__cxx1112basic_stringIcSt11char_traitsIcESaIcEEESB_NS_14BufferedSocket8NatRolesESB_b
libeiskaltdcpp.so.2.4:_ZN4dcpp17ConnectionManager10adcConnectERKNS_10OnlineUserERKNSt7__cxx1112basic_stringIcSt11char_traitsIcESaIcEEESB_b
libeiskaltdcpp.so.2.4:_ZN4dcpp17ConnectionManager10disconnectERKNS_13intrusive_ptrINS_4UserEEE
libeiskaltdcpp.so.2.4:_ZN4dcpp17ConnectionManager10disconnectERKNS_13intrusive_ptrINS_4UserEEEi
libeiskaltdcpp.so.2.4:_ZN4dcpp17ConnectionManager10disconnectEv
libeiskaltdcpp.so.2.4:_ZN4dcpp17ConnectionManager11nmdcConnectERKNSt7__cxx1112basic_stringIcSt11char_traitsIcESaIcEEES8_S8_NS_14BufferedSocket8NatRolesES8_S8_S8_b
libeiskaltdcpp.so.2.4:_ZN4dcpp17ConnectionManager11nmdcConnectERKNSt7__cxx1112basic_stringIcSt11char_traitsIcESaIcEEES8_S8_S8_S8_b
libeiskaltdcpp.so.2.4:_ZN4dcpp17ConnectionManager13checkKeyprintEPNS_14UserConnectionE
libeiskaltdcpp.so.2.4:_ZN4dcpp17ConnectionManager13getConnectionEbb
libeiskaltdcpp.so.2.4:_ZN4dcpp17ConnectionManager13putConnectionEPNS_14UserConnectionE
libeiskaltdcpp.so.2.4:_ZN4dcpp17ConnectionManager15checkHubCCBlockERKNSt7__cxx1112basic_stringIcSt11char_traitsIcESaIcEEES8_S8_
libeiskaltdcpp.so.2.4:_ZN4dcpp17ConnectionManager19addUploadConnectionEPNS_14UserConnectionE
libeiskaltdcpp.so.2.4:_ZN4dcpp17ConnectionManager21addDownloadConnectionEPNS_14UserConnectionE
libeiskaltdcpp.so.2.4:_ZN4dcpp17ConnectionManager21getDownloadConnectionERKNS_10HintedUserE
libeiskaltdcpp.so.2.4:_ZN4dcpp17ConnectionManager2onENS_10AdcCommand4TypeILj4281427EEEPNS_14UserConnectionERKS1_
libeiskaltdcpp.so.2.4:_ZN4dcpp17ConnectionManager2onENS_10AdcCommand4TypeILj4607561EEEPNS_14UserConnectionERKS1_
libeiskaltdcpp.so.2.4:_ZN4dcpp17ConnectionManager2onENS_10AdcCommand4TypeILj5264723EEEPNS_14UserConnectionERKS1_
libeiskaltdcpp.so.2.4:_ZN4dcpp17ConnectionManager2onENS_20TimerManagerListener1XILi0EEEm
libeiskaltdcpp.so.2.4:_ZN4dcpp17ConnectionManager2onENS_20TimerManagerListener1XILi1EEEm
libeiskaltdcpp.so.2.4:_ZN4dcpp17ConnectionManager2onENS_22UserConnectionListener1XILi16EEEPNS_14UserConnectionERKNSt7__cxx1112basic_stringIcSt11char_traitsIcESaIcEEE
libeiskaltdcpp.so.2.4:_ZN4dcpp17ConnectionManager2onENS_22UserConnectionListener1XILi18EEEPNS_14UserConnectionERKSt6vectorINSt7__cxx1112basic_stringIcSt11char_traitsIcESaIcEEESaISC_EE
libeiskaltdcpp.so.2.4:_ZN4dcpp17ConnectionManager2onENS_22UserConnectionListener1XILi19EEEPNS_14UserConnectionERKNSt7__cxx1112basic_stringIcSt11char_traitsIcESaIcEEE
libeiskaltdcpp.so.2.4:_ZN4dcpp17ConnectionManager2onENS_22UserConnectionListener1XILi1EEEPNS_14UserConnectionE
libeiskaltdcpp.so.2.4:_ZN4dcpp17ConnectionManager2onENS_22UserConnectionListener1XILi3EEEPNS_14UserConnectionERKNSt7__cxx1112basic_stringIcSt11char_traitsIcESaIcEEE
libeiskaltdcpp.so.2.4:_ZN4dcpp17ConnectionManager2onENS_22UserConnectionListener1XILi4EEEPNS_14UserConnectionERKNSt7__cxx1112basic_stringIcSt11char_traitsIcESaIcEEESD_
libeiskaltdcpp.so.2.4:_ZN4dcpp17ConnectionManager2onENS_22UserConnectionListener1XILi5EEEPNS_14UserConnectionERKNSt7__cxx1112basic_stringIcSt11char_traitsIcESaIcEEE
libeiskaltdcpp.so.2.4:_ZN4dcpp17ConnectionManager2onENS_22UserConnectionListener1XILi6EEEPNS_14UserConnectionERKNSt7__cxx1112basic_stringIcSt11char_traitsIcESaIcEEESD_
libeiskaltdcpp.so.2.4:_ZN4dcpp17ConnectionManager5forceERKNS_13intrusive_ptrINS_4UserEEE
libeiskaltdcpp.so.2.4:_ZN4dcpp17ConnectionManager6Server3runEv
libeiskaltdcpp.so.2.4:_ZN4dcpp17ConnectionManager6ServerC1EbRKNSt7__cxx1112basic_stringIcSt11char_traitsIcESaIcEEES9_
libeiskaltdcpp.so.2.4:_ZN4dcpp17ConnectionManager6ServerC2EbRKNSt7__cxx1112basic_stringIcSt11char_traitsIcESaIcEEES9_
libeiskaltdcpp.so.2.4:_ZN4dcpp17ConnectionManager6acceptERKNS_6SocketEb
libeiskaltdcpp.so.2.4:_ZN4dcpp17ConnectionManager6failedEPNS_14UserConnectionERKNSt7__cxx1112basic_stringIcSt11char_traitsIcESaIcEEEb
libeiskaltdcpp.so.2.4:_ZN4dcpp17ConnectionManager6getCQIERKNS_10HintedUserEb
libeiskaltdcpp.so.2.4:_ZN4dcpp17ConnectionManager6listenEv
libeiskaltdcpp.so.2.4:_ZN4dcpp17ConnectionManager6putCQIEPNS_19ConnectionQueueItemE
libeiskaltdcpp.so.2.4:_ZN4dcpp17ConnectionManager8shutdownEv
libeiskaltdcpp.so.2.4:_ZN4dcpp17ConnectionManagerC1Ev
libeiskaltdcpp.so.2.4:_ZN4dcpp17ConnectionManagerC2Ev
libeiskaltdcpp.so.2.4:_ZN4dcpp17linExecutablePathB5cxx11Ev
libeiskaltdcpp.so.2.4:_ZN4dcpp19ConnectionQueueItemC1ERKNS_10HintedUserEb
libeiskaltdcpp.so.2.4:_ZN4dcpp19ConnectionQueueItemC2ERKNS_10HintedUserEb
libeiskaltdcpp.so.2.4:_ZN4dcpp19ConnectivityManager10disconnectEv
libeiskaltdcpp.so.2.4:_ZN4dcpp19ConnectivityManager10updateLastEv
libeiskaltdcpp.so.2.4:_ZN4dcpp19ConnectivityManager11startSocketEv
libeiskaltdcpp.so.2.4:_ZN4dcpp19ConnectivityManager15mappingFinishedEb
libeiskaltdcpp.so.2.4:_ZN4dcpp19ConnectivityManager16detectConnectionEv
libeiskaltdcpp.so.2.4:_ZN4dcpp19ConnectivityManager3logERKNSt7__cxx1112basic_stringIcSt11char_traitsIcESaIcEEE
libeiskaltdcpp.so.2.4:_ZN4dcpp19ConnectivityManager5setupEb
libeiskaltdcpp.so.2.4:_ZN4dcpp19ConnectivityManager6listenEv
libeiskaltdcpp.so.2.4:_ZN4dcpp19ConnectivityManagerC1Ev
libeiskaltdcpp.so.2.4:_ZN4dcpp19ConnectivityManagerC2Ev
libeiskaltdcpp.so.2.4:_ZN4dcpp20ClientScriptInstance15onHubFrameEnterEPNS_6ClientERKNSt7__cxx1112basic_stringIcSt11char_traitsIcESaIcEEE
libeiskaltdcpp.so.2.4:_ZN4dcpp20ClientScriptInstance17formatChatMessageERKNSt7__cxx1112basic_stringIcSt11char_traitsIcESaIcEEE
libeiskaltdcpp.so.2.4:_ZN4dcpp20fullADCVersionStringB5cxx11E
libeiskaltdcpp.so.2.4:_ZN4dcpp21NmdcHubScriptInstance15onClientMessageEPNS_7NmdcHubERKNSt7__cxx1112basic_stringIcSt11char_traitsIcESaIcEEE
libeiskaltdcpp.so.2.4:_ZN4dcpp21fullHTTPVersionStringB5cxx11E
libeiskaltdcpp.so.2.4:_ZN4dcpp21fullNMDCVersionStringB5cxx11E
libeiskaltdcpp.so.2.4:_ZN4dcpp28UserConnectionScriptInstance25onUserConnectionMessageInEPNS_14UserConnectionERKNSt7__cxx1112basic_stringIcSt11char_traitsIcESaIcEEE
libeiskaltdcpp.so.2.4:_ZN4dcpp28UserConnectionScriptInstance26onUserConnectionMessageOutEPNS_14UserConnectionERKNSt7__cxx1112basic_stringIcSt11char_traitsIcESaIcEEE
libeiskaltdcpp.so.2.4:_ZN4dcpp2GZ10decompressERKNSt7__cxx1112basic_stringIcSt11char_traitsIcESaIcEEES8_
libeiskaltdcpp.so.2.4:_ZN4dcpp3CID8generateEv
libeiskaltdcpp.so.2.4:_ZN4dcpp3ssl11X509_digestEP7x509_stPK9evp_md_st
libeiskaltdcpp.so.2.4:_ZN4dcpp4File10deleteFileERKNSt7__cxx1112basic_stringIcSt11char_traitsIcESaIcEEE
libeiskaltdcpp.so.2.4:_ZN4dcpp4File10extendFileEl
libeiskaltdcpp.so.2.4:_ZN4dcpp4File10isAbsoluteERKNSt7__cxx1112basic_stringIcSt11char_traitsIcESaIcEEE
libeiskaltdcpp.so.2.4:_ZN4dcpp4File10renameFileERKNSt7__cxx1112basic_stringIcSt11char_traitsIcESaIcEEES8_
libeiskaltdcpp.so.2.4:_ZN4dcpp4File15ensureDirectoryERKNSt7__cxx1112basic_stringIcSt11char_traitsIcESaIcEEE
libeiskaltdcpp.so.2.4:_ZN4dcpp4File15getLastModifiedEv
libeiskaltdcpp.so.2.4:_ZN4dcpp4File4readB5cxx11Em
libeiskaltdcpp.so.2.4:_ZN4dcpp4File4readB5cxx11Ev
libeiskaltdcpp.so.2.4:_ZN4dcpp4File4readEPvRm
libeiskaltdcpp.so.2.4:_ZN4dcpp4File5closeEv
libeiskaltdcpp.so.2.4:_ZN4dcpp4File5flushEv
libeiskaltdcpp.so.2.4:_ZN4dcpp4File5writeEPKvm
libeiskaltdcpp.so.2.4:_ZN4dcpp4File6getPosEv
libeiskaltdcpp.so.2.4:_ZN4dcpp4File6isOpenEv
libeiskaltdcpp.so.2.4:_ZN4dcpp4File6setEOFEv
libeiskaltdcpp.so.2.4:_ZN4dcpp4File6setPosEl
libeiskaltdcpp.so.2.4:_ZN4dcpp4File7getSizeERKNSt7__cxx1112basic_stringIcSt11char_traitsIcESaIcEEE
libeiskaltdcpp.so.2.4:_ZN4dcpp4File7getSizeEv
libeiskaltdcpp.so.2.4:_ZN4dcpp4File7movePosEl
libeiskaltdcpp.so.2.4:_ZN4dcpp4File7setSizeEl
libeiskaltdcpp.so.2.4:_ZN4dcpp4File8copyFileERKNSt7__cxx1112basic_stringIcSt11char_traitsIcESaIcEEES8_
libeiskaltdcpp.so.2.4:_ZN4dcpp4File9findFilesERKNSt7__cxx1112basic_stringIcSt11char_traitsIcESaIcEEES8_
libeiskaltdcpp.so.2.4:_ZN4dcpp4File9setEndPosEl
libeiskaltdcpp.so.2.4:_ZN4dcpp4FileC1ERKNSt7__cxx1112basic_stringIcSt11char_traitsIcESaIcEEEii
libeiskaltdcpp.so.2.4:_ZN4dcpp4FileC2ERKNSt7__cxx1112basic_stringIcSt11char_traitsIcESaIcEEEii
libeiskaltdcpp.so.2.4:_ZN4dcpp4Text10initializeEv
libeiskaltdcpp.so.2.4:_ZN4dcpp4Text10utf8ToWideERKNSt7__cxx1112basic_stringIcSt11char_traitsIcESaIcEEERNS2_IwS3_IwESaIwEEE
libeiskaltdcpp.so.2.4:_ZN4dcpp4Text10wideToUtf8ERKNSt7__cxx1112basic_stringIwSt11char_traitsIwESaIwEEERNS2_IcS3_IcESaIcEEE
libeiskaltdcpp.so.2.4:_ZN4dcpp4Text12validateUtf8ERKNSt7__cxx1112basic_stringIcSt11char_traitsIcESaIcEEE
libeiskaltdcpp.so.2.4:_ZN4dcpp4Text13systemCharsetB5cxx11E
libeiskaltdcpp.so.2.4:_ZN4dcpp4Text17hubDefaultCharsetB5cxx11E
libeiskaltdcpp.so.2.4:_ZN4dcpp4Text4utf8B5cxx11E
libeiskaltdcpp.so.2.4:_ZN4dcpp4Text5toDOSENSt7__cxx1112basic_stringIcSt11char_traitsIcESaIcEEE
libeiskaltdcpp.so.2.4:_ZN4dcpp4Text5toDOSENSt7__cxx1112basic_stringIwSt11char_traitsIwESaIwEEE
libeiskaltdcpp.so.2.4:_ZN4dcpp4Text6toUtf8ERKNSt7__cxx1112basic_stringIcSt11char_traitsIcESaIcEEES8_RS6_
libeiskaltdcpp.so.2.4:_ZN4dcpp4Text7convertERKNSt7__cxx1112basic_stringIcSt11char_traitsIcESaIcEEERS6_S8_S8_
libeiskaltdcpp.so.2.4:_ZN4dcpp4Text7isAsciiEPKc
libeiskaltdcpp.so.2.4:_ZN4dcpp4Text7toLowerERKNSt7__cxx1112basic_stringIcSt11char_traitsIcESaIcEEERS6_
libeiskaltdcpp.so.2.4:_ZN4dcpp4Text7toLowerERKNSt7__cxx1112basic_stringIwSt11char_traitsIwESaIwEEERS6_
libeiskaltdcpp.so.2.4:_ZN4dcpp4Text7toLowerEw
libeiskaltdcpp.so.2.4:_ZN4dcpp4Text8fromUtf8ERKNSt7__cxx1112basic_stringIcSt11char_traitsIcESaIcEEES8_RS6_
libeiskaltdcpp.so.2.4:_ZN4dcpp4Text8utf8ToWcEPKcRw
libeiskaltdcpp.so.2.4:_ZN4dcpp4Text8wcToUtf8EwRNSt7__cxx1112basic_stringIcSt11char_traitsIcESaIcEEE
libeiskaltdcpp.so.2.4:_ZN4dcpp4Text9acpToUtf8ERKNSt7__cxx1112basic_stringIcSt11char_traitsIcESaIcEEERS6_
libeiskaltdcpp.so.2.4:_ZN4dcpp4Text9acpToWideERKNSt7__cxx1112basic_stringIcSt11char_traitsIcESaIcEEERNS2_IwS3_IwESaIwEEE
libeiskaltdcpp.so.2.4:_ZN4dcpp4Text9utf8ToAcpERKNSt7__cxx1112basic_stringIcSt11char_traitsIcESaIcEEERS6_
libeiskaltdcpp.so.2.4:_ZN4dcpp4Text9wideToAcpERKNSt7__cxx1112basic_stringIwSt11char_traitsIwESaIwEEERNS2_IcS3_IcESaIcEEE
libeiskaltdcpp.so.2.4:_ZN4dcpp4UPnP4openERKNSt7__cxx1112basic_stringIcSt11char_traitsIcESaIcEEENS0_8ProtocolES8_
libeiskaltdcpp.so.2.4:_ZN4dcpp4UPnP5closeEv
libeiskaltdcpp.so.2.4:_ZN4dcpp4UPnP9protocolsE
libeiskaltdcpp.so.2.4:_ZN4dcpp4Util10fileExistsERKNSt7__cxx1112basic_stringIcSt11char_traitsIcESaIcEEE
libeiskaltdcpp.so.2.4:_ZN4dcpp4Util10formatTimeERKNSt7__cxx1112basic_stringIcSt11char_traitsIcESaIcEEEl
libeiskaltdcpp.so.2.4:_ZN4dcpp4Util10getLocalIpB5cxx11Et
libeiskaltdcpp.so.2.4:_ZN4dcpp4Util10initializeESt3mapINS0_5PathsENSt7__cxx1112basic_stringIcSt11char_traitsIcESaIcEEESt4lessIS2_ESaISt4pairIKS2_S8_EEE
libeiskaltdcpp.so.2.4:_ZN4dcpp4Util10manualAwayE
libeiskaltdcpp.so.2.4:_ZN4dcpp4Util10switchAwayEv
libeiskaltdcpp.so.2.4:_ZN4dcpp4Util10toNmdcFileERKNSt7__cxx1112basic_stringIcSt11char_traitsIcESaIcEEE
libeiskaltdcpp.so.2.4:_ZN4dcpp4Util11addBracketsERKNSt7__cxx1112basic_stringIcSt11char_traitsIcESaIcEEE
libeiskaltdcpp.so.2.4:_ZN4dcpp4Util11decodeQueryERKNSt7__cxx1112basic_stringIcSt11char_traitsIcESaIcEEE
libeiskaltdcpp.so.2.4:_ZN4dcpp4Util11emptyStringB5cxx11E
libeiskaltdcpp.so.2.4:_ZN4dcpp4Util11formatBytesB5cxx11El
libeiskaltdcpp.so.2.4:_ZN4dcpp4Util11formatBytesB5cxx11Elh
libeiskaltdcpp.so.2.4:_ZN4dcpp4Util11getLocalIPsB5cxx11Et
libeiskaltdcpp.so.2.4:_ZN4dcpp4Util11getTempPathB5cxx11Ev
libeiskaltdcpp.so.2.4:_ZN4dcpp4Util11isPrivateIpERKNSt7__cxx1112basic_stringIcSt11char_traitsIcESaIcEEE
libeiskaltdcpp.so.2.4:_ZN4dcpp4Util11parseIpPortERKNSt7__cxx1112basic_stringIcSt11char_traitsIcESaIcEEERS6_S9_
libeiskaltdcpp.so.2.4:_ZN4dcpp4Util11sanitizeUrlERNSt7__cxx1112basic_stringIcSt11char_traitsIcESaIcEEE
libeiskaltdcpp.so.2.4:_ZN4dcpp4Util12emptyStringTB5cxx11E
libeiskaltdcpp.so.2.4:_ZN4dcpp4Util12emptyStringWB5cxx11E
libeiskaltdcpp.so.2.4:_ZN4dcpp4Util12formatParamsERKNSt7__cxx1112basic_stringIcSt11char_traitsIcESaIcEEERKSt13unordered_mapIS6_S6_St4hashIS6_ESt8equal_toIS6_ESaISt4pairIS7_S6_EEEb
libeiskaltdcpp.so.2.4:_ZN4dcpp4Util12getIpCountryENSt7__cxx1112basic_stringIcSt11char_traitsIcESaIcEEE
libeiskaltdcpp.so.2.4:_ZN4dcpp4Util12getLoginNameB5cxx11Ev
libeiskaltdcpp.so.2.4:_ZN4dcpp4Util13findSubStringERKNSt7__cxx1112basic_stringIcSt11char_traitsIcESaIcEEES8_m
libeiskaltdcpp.so.2.4:_ZN4dcpp4Util13findSubStringERKNSt7__cxx1112basic_stringIwSt11char_traitsIwESaIwEEES8_m
libeiskaltdcpp.so.2.4:_ZN4dcpp4Util13getTimeStringB5cxx11El
libeiskaltdcpp.so.2.4:_ZN4dcpp4Util13getTimeStringB5cxx11Ev
libeiskaltdcpp.so.2.4:_ZN4dcpp4Util13getTimeStringElRKNSt7__cxx1112basic_stringIcSt11char_traitsIcESaIcEEE
libeiskaltdcpp.so.2.4:_ZN4dcpp4Util14checkExtensionERKNSt7__cxx1112basic_stringIcSt11char_traitsIcESaIcEEE
libeiskaltdcpp.so.2.4:_ZN4dcpp4Util14cleanPathCharsERKNSt7__cxx1112basic_stringIcSt11char_traitsIcESaIcEEE
libeiskaltdcpp.so.2.4:_ZN4dcpp4Util14getAwayMessageB5cxx11Ev
libeiskaltdcpp.so.2.4:_ZN4dcpp4Util14loadBootConfigEv
libeiskaltdcpp.so.2.4:_ZN4dcpp4Util14translateErrorB5cxx11Ei
libeiskaltdcpp.so.2.4:_ZN4dcpp4Util15formatExactSizeB5cxx11El
libeiskaltdcpp.so.2.4:_ZN4dcpp4Util16validateFileNameENSt7__cxx1112basic_stringIcSt11char_traitsIcESaIcEEERKS6_
libeiskaltdcpp.so.2.4:_ZN4dcpp4Util18getShortTimeStringB5cxx11El
libeiskaltdcpp.so.2.4:_ZN4dcpp4Util20formatAdditionalInfoERKNSt7__cxx1112basic_stringIcSt11char_traitsIcESaIcEEEbb
libeiskaltdcpp.so.2.4:_ZN4dcpp4Util4awayE
libeiskaltdcpp.so.2.4:_ZN4dcpp4Util4randEv
libeiskaltdcpp.so.2.4:_ZN4dcpp4Util5pathsB5cxx11E
libeiskaltdcpp.so.2.4:_ZN4dcpp4Util6strcmpEPKwS2_
libeiskaltdcpp.so.2.4:_ZN4dcpp4Util7awayMsgB5cxx11E
libeiskaltdcpp.so.2.4:_ZN4dcpp4Util7getAwayEv
libeiskaltdcpp.so.2.4:_ZN4dcpp4Util7migrateERKNSt7__cxx1112basic_stringIcSt11char_traitsIcESaIcEEE
libeiskaltdcpp.so.2.4:_ZN4dcpp4Util7setAwayEb
libeiskaltdcpp.so.2.4:_ZN4dcpp4Util7setLangERKNSt7__cxx1112basic_stringIcSt11char_traitsIcESaIcEEE
libeiskaltdcpp.so.2.4:_ZN4dcpp4Util7stricmpEPKcS2_
libeiskaltdcpp.so.2.4:_ZN4dcpp4Util7strncmpEPKwS2_m
libeiskaltdcpp.so.2.4:_ZN4dcpp4Util8awayTimeE
libeiskaltdcpp.so.2.4:_ZN4dcpp4Util8isAdcUrlERKNSt7__cxx1112basic_stringIcSt11char_traitsIcESaIcEEE
libeiskaltdcpp.so.2.4:_ZN4dcpp4Util8strnicmpEPKcS2_m
libeiskaltdcpp.so.2.4:_ZN4dcpp4Util8toStringERKNSt7__cxx1112basic_stringIcSt11char_traitsIcESaIcEEERKSt6vectorIS6_SaIS6_EE
libeiskaltdcpp.so.2.4:_ZN4dcpp4Util8toStringERKSt6vectorINSt7__cxx1112basic_stringIcSt11char_traitsIcESaIcEEESaIS7_EE
libeiskaltdcpp.so.2.4:_ZN4dcpp4Util8trimCopyERKNSt7__cxx1112basic_stringIcSt11char_traitsIcESaIcEEE
libeiskaltdcpp.so.2.4:_ZN4dcpp4Util9countriesE
libeiskaltdcpp.so.2.4:_ZN4dcpp4Util9decodeUrlERKNSt7__cxx1112basic_stringIcSt11char_traitsIcESaIcEEERS6_S9_S9_S9_S9_S9_
libeiskaltdcpp.so.2.4:_ZN4dcpp4Util9encodeURIERKNSt7__cxx1112basic_stringIcSt11char_traitsIcESaIcEEEb
libeiskaltdcpp.so.2.4:_ZN4dcpp4Util9isAdcsUrlERKNSt7__cxx1112basic_stringIcSt11char_traitsIcESaIcEEE
libeiskaltdcpp.so.2.4:_ZN4dcpp4Util9isNmdcUrlERKNSt7__cxx1112basic_stringIcSt11char_traitsIcESaIcEEE
libeiskaltdcpp.so.2.4:_ZN4dcpp4Util9localModeE
libeiskaltdcpp.so.2.4:_ZN4dcpp4Util9startTimeE
libeiskaltdcpp.so.2.4:_ZN4dcpp4Util9toAdcFileERKNSt7__cxx1112basic_stringIcSt11char_traitsIcESaIcEEE
libeiskaltdcpp.so.2.4:_ZN4dcpp6AdcHub10clearUsersEv
libeiskaltdcpp.so.2.4:_ZN4dcpp6AdcHub10hubMessageERKNSt7__cxx1112basic_stringIcSt11char_traitsIcESaIcEEEb
libeiskaltdcpp.so.2.4:_ZN4dcpp6AdcHub10searchExtsB5cxx11E
libeiskaltdcpp.so.2.4:_ZN4dcpp6AdcHub10sendSearchERNS_10AdcCommandE
libeiskaltdcpp.so.2.4:_ZN4dcpp6AdcHub11sendUserCmdERKNS_11UserCommandERKSt13unordered_mapINSt7__cxx1112basic_stringIcSt11char_traitsIcESaIcEEESA_St4hashISA_ESt8equal_toISA_ESaISt4pairIKSA_SA_EEE
libeiskaltdcpp.so.2.4:_ZN4dcpp6AdcHub12ADCS_FEATUREB5cxx11E
libeiskaltdcpp.so.2.4:_ZN4dcpp6AdcHub12BAS0_SUPPORTB5cxx11E
libeiskaltdcpp.so.2.4:_ZN4dcpp6AdcHub12BASE_SUPPORTB5cxx11E
libeiskaltdcpp.so.2.4:_ZN4dcpp6AdcHub12BLO0_SUPPORTB5cxx11E
libeiskaltdcpp.so.2.4:_ZN4dcpp6AdcHub12DHT0_SUPPORTB5cxx11E
libeiskaltdcpp.so.2.4:_ZN4dcpp6AdcHub12NAT0_FEATUREB5cxx11E
libeiskaltdcpp.so.2.4:_ZN4dcpp6AdcHub12SEGA_FEATUREB5cxx11E
libeiskaltdcpp.so.2.4:_ZN4dcpp6AdcHub12TCP4_FEATUREB5cxx11E
libeiskaltdcpp.so.2.4:_ZN4dcpp6AdcHub12TIGR_SUPPORTB5cxx11E
libeiskaltdcpp.so.2.4:_ZN4dcpp6AdcHub12UCM0_SUPPORTB5cxx11E
libeiskaltdcpp.so.2.4:_ZN4dcpp6AdcHub12UDP4_FEATUREB5cxx11E
libeiskaltdcpp.so.2.4:_ZN4dcpp6AdcHub12ZLIF_SUPPORTB5cxx11E
libeiskaltdcpp.so.2.4:_ZN4dcpp6AdcHub13getSearchExtsB5cxx11Ev
libeiskaltdcpp.so.2.4:_ZN4dcpp6AdcHub14privateMessageERKNS_10OnlineUserERKNSt7__cxx1112basic_stringIcSt11char_traitsIcESaIcEEEb
libeiskaltdcpp.so.2.4:_ZN4dcpp6AdcHub15CLIENT_PROTOCOLB5cxx11E
libeiskaltdcpp.so.2.4:_ZN4dcpp6AdcHub15parseSearchExtsB5cxx11Ei
libeiskaltdcpp.so.2.4:_ZN4dcpp6AdcHub15unknownProtocolEjRKNSt7__cxx1112basic_stringIcSt11char_traitsIcESaIcEEES8_
libeiskaltdcpp.so.2.4:_ZN4dcpp6AdcHub27SECURE_CLIENT_PROTOCOL_TESTB5cxx11E
libeiskaltdcpp.so.2.4:_ZN4dcpp6AdcHub2onENS_20TimerManagerListener1XILi0EEEm
libeiskaltdcpp.so.2.4:_ZN4dcpp6AdcHub2onENS_22BufferedSocketListener1XILi1EEE
libeiskaltdcpp.so.2.4:_ZN4dcpp6AdcHub2onENS_22BufferedSocketListener1XILi2EEERKNSt7__cxx1112basic_stringIcSt11char_traitsIcESaIcEEE
libeiskaltdcpp.so.2.4:_ZN4dcpp6AdcHub2onENS_22BufferedSocketListener1XILi7EEERKNSt7__cxx1112basic_stringIcSt11char_traitsIcESaIcEEE
libeiskaltdcpp.so.2.4:_ZN4dcpp6AdcHub4infoEb
libeiskaltdcpp.so.2.4:_ZN4dcpp6AdcHub4sendERKNS_10AdcCommandE
libeiskaltdcpp.so.2.4:_ZN4dcpp6AdcHub6handleENS_10AdcCommand4TypeILj4280391EEERS1_
libeiskaltdcpp.so.2.4:_ZN4dcpp6AdcHub6handleENS_10AdcCommand4TypeILj4281427EEERS1_
libeiskaltdcpp.so.2.4:_ZN4dcpp6AdcHub6handleENS_10AdcCommand4TypeILj4475219EEERS1_
libeiskaltdcpp.so.2.4:_ZN4dcpp6AdcHub6handleENS_10AdcCommand4TypeILj4476227EEERS1_
libeiskaltdcpp.so.2.4:_ZN4dcpp6AdcHub6handleENS_10AdcCommand4TypeILj4607561EEERS1_
libeiskaltdcpp.so.2.4:_ZN4dcpp6AdcHub6handleENS_10AdcCommand4TypeILj4607834EEERS1_
libeiskaltdcpp.so.2.4:_ZN4dcpp6AdcHub6handleENS_10AdcCommand4TypeILj4674381EEERS1_
libeiskaltdcpp.so.2.4:_ZN4dcpp6AdcHub6handleENS_10AdcCommand4TypeILj4735827EEERS1_
libeiskaltdcpp.so.2.4:_ZN4dcpp6AdcHub6handleENS_10AdcCommand4TypeILj4805969EEERS1_
libeiskaltdcpp.so.2.4:_ZN4dcpp6AdcHub6handleENS_10AdcCommand4TypeILj5063506EEERS1_
libeiskaltdcpp.so.2.4:_ZN4dcpp6AdcHub6handleENS_10AdcCommand4TypeILj5067843EEERS1_
libeiskaltdcpp.so.2.4:_ZN4dcpp6AdcHub6handleENS_10AdcCommand4TypeILj5132122EEERS1_
libeiskaltdcpp.so.2.4:_ZN4dcpp6AdcHub6handleENS_10AdcCommand4TypeILj5264723EEERS1_
libeiskaltdcpp.so.2.4:_ZN4dcpp6AdcHub6handleENS_10AdcCommand4TypeILj5395280EEERS1_
libeiskaltdcpp.so.2.4:_ZN4dcpp6AdcHub6handleENS_10AdcCommand4TypeILj5457234EEERS1_
libeiskaltdcpp.so.2.4:_ZN4dcpp6AdcHub6handleENS_10AdcCommand4TypeILj5521742EEERS1_
libeiskaltdcpp.so.2.4:_ZN4dcpp6AdcHub6handleENS_10AdcCommand4TypeILj5522759EEERS1_
libeiskaltdcpp.so.2.4:_ZN4dcpp6AdcHub6handleENS_10AdcCommand4TypeILj5525074EEERS1_
libeiskaltdcpp.so.2.4:_ZN4dcpp6AdcHub6searchEiliRKNSt7__cxx1112basic_stringIcSt11char_traitsIcESaIcEEES8_RKSt6vectorIS6_SaIS6_EE
libeiskaltdcpp.so.2.4:_ZN4dcpp6AdcHub7connectERKNS_10OnlineUserERKNSt7__cxx1112basic_stringIcSt11char_traitsIcESaIcEEE
libeiskaltdcpp.so.2.4:_ZN4dcpp6AdcHub7connectERKNS_10OnlineUserERKNSt7__cxx1112basic_stringIcSt11char_traitsIcESaIcEEEb
libeiskaltdcpp.so.2.4:_ZN4dcpp6AdcHub7getUserEjRKNS_3CIDE
libeiskaltdcpp.so.2.4:_ZN4dcpp6AdcHub7putUserEjb
libeiskaltdcpp.so.2.4:_ZN4dcpp6AdcHub7sendUDPERKNS_10AdcCommandE
libeiskaltdcpp.so.2.4:_ZN4dcpp6AdcHub8passwordERKNSt7__cxx1112basic_stringIcSt11char_traitsIcESaIcEEE
libeiskaltdcpp.so.2.4:_ZN4dcpp6AdcHub9checkNickERKNSt7__cxx1112basic_stringIcSt11char_traitsIcESaIcEEE
libeiskaltdcpp.so.2.4:_ZN4dcpp6AdcHubC1ERKNSt7__cxx1112basic_stringIcSt11char_traitsIcESaIcEEEb
libeiskaltdcpp.so.2.4:_ZN4dcpp6AdcHubC2ERKNSt7__cxx1112basic_stringIcSt11char_traitsIcESaIcEEEb
libeiskaltdcpp.so.2.4:_ZN4dcpp6AdcHubD0Ev
libeiskaltdcpp.so.2.4:_ZN4dcpp6AdcHubD1Ev
libeiskaltdcpp.so.2.4:_ZN4dcpp6AdcHubD2Ev
libeiskaltdcpp.so.2.4:_ZN4dcpp6Client10disconnectEb
libeiskaltdcpp.so.2.4:_ZN4dcpp6Client12updateCountsEb
libeiskaltdcpp.so.2.4:_ZN4dcpp6Client14reloadSettingsEb
libeiskaltdcpp.so.2.4:_ZN4dcpp6Client2onENS_20TimerManagerListener1XILi0EEEm
libeiskaltdcpp.so.2.4:_ZN4dcpp6Client2onENS_22BufferedSocketListener1XILi1EEE
libeiskaltdcpp.so.2.4:_ZN4dcpp6Client2onENS_22BufferedSocketListener1XILi2EEERKNSt7__cxx1112basic_stringIcSt11char_traitsIcESaIcEEE
libeiskaltdcpp.so.2.4:_ZN4dcpp6Client2onENS_22BufferedSocketListener1XILi7EEERKNSt7__cxx1112basic_stringIcSt11char_traitsIcESaIcEEE
libeiskaltdcpp.so.2.4:_ZN4dcpp6Client4sendEPKcm
libeiskaltdcpp.so.2.4:_ZN4dcpp6Client6countsE
libeiskaltdcpp.so.2.4:_ZN4dcpp6Client6searchEiliRKNSt7__cxx1112basic_stringIcSt11char_traitsIcESaIcEEES8_RKSt6vectorIS6_SaIS6_EEPv
libeiskaltdcpp.so.2.4:_ZN4dcpp6Client7connectEv
libeiskaltdcpp.so.2.4:_ZN4dcpp6Client7updatedERNS_10OnlineUserE
libeiskaltdcpp.so.2.4:_ZN4dcpp6Client7updatedERSt6vectorIPNS_10OnlineUserESaIS3_EE
libeiskaltdcpp.so.2.4:_ZN4dcpp6Client8shutdownEv
libeiskaltdcpp.so.2.4:_ZN4dcpp6Client9reconnectEv
libeiskaltdcpp.so.2.4:_ZN4dcpp6ClientC1ERKNSt7__cxx1112basic_stringIcSt11char_traitsIcESaIcEEEcbNS_6Socket8ProtocolE
libeiskaltdcpp.so.2.4:_ZN4dcpp6ClientC2ERKNSt7__cxx1112basic_stringIcSt11char_traitsIcESaIcEEEcbNS_6Socket8ProtocolE
libeiskaltdcpp.so.2.4:_ZN4dcpp6ClientD0Ev
libeiskaltdcpp.so.2.4:_ZN4dcpp6ClientD1Ev
libeiskaltdcpp.so.2.4:_ZN4dcpp6ClientD2Ev
libeiskaltdcpp.so.2.4:_ZN4dcpp6DynDNS2onENS_20TimerManagerListener1XILi1EEEm
libeiskaltdcpp.so.2.4:_ZN4dcpp6DynDNS2onENS_22HttpConnectionListener1XILi0EEEPNS_14HttpConnectionEPKhm
libeiskaltdcpp.so.2.4:_ZN4dcpp6DynDNS2onENS_22HttpConnectionListener1XILi1EEEPNS_14HttpConnectionERKNSt7__cxx1112basic_stringIcSt11char_traitsIcESaIcEEE
libeiskaltdcpp.so.2.4:_ZN4dcpp6DynDNS2onENS_22HttpConnectionListener1XILi2EEEPNS_14HttpConnectionERKNSt7__cxx1112basic_stringIcSt11char_traitsIcESaIcEEE
libeiskaltdcpp.so.2.4:_ZN4dcpp6DynDNS4loadEv
libeiskaltdcpp.so.2.4:_ZN4dcpp6DynDNS4stopEv
libeiskaltdcpp.so.2.4:_ZN4dcpp6DynDNS7RequestEv
libeiskaltdcpp.so.2.4:_ZN4dcpp6DynDNSC1Ev
libeiskaltdcpp.so.2.4:_ZN4dcpp6DynDNSC2Ev
libeiskaltdcpp.so.2.4:_ZN4dcpp6DynDNSD0Ev
libeiskaltdcpp.so.2.4:_ZN4dcpp6DynDNSD1Ev
libeiskaltdcpp.so.2.4:_ZN4dcpp6DynDNSD2Ev
libeiskaltdcpp.so.2.4:_ZN4dcpp6Socket10disconnectEv
libeiskaltdcpp.so.2.4:_ZN4dcpp6Socket10getIfaceI4ERKNSt7__cxx1112basic_stringIcSt11char_traitsIcESaIcEEE
libeiskaltdcpp.so.2.4:_ZN4dcpp6Socket10getLocalIpB5cxx11Ev
libeiskaltdcpp.so.2.4:_ZN4dcpp6Socket11checksocketEi
libeiskaltdcpp.so.2.4:_ZN4dcpp6Socket11setBlockingEb
libeiskaltdcpp.so.2.4:_ZN4dcpp6Socket12getLastErrorEv
libeiskaltdcpp.so.2.4:_ZN4dcpp6Socket12getLocalPortB5cxx11Ev
libeiskaltdcpp.so.2.4:_ZN4dcpp6Socket12setSocketOptEii
libeiskaltdcpp.so.2.4:_ZN4dcpp6Socket12socksConnectERKNSt7__cxx1112basic_stringIcSt11char_traitsIcESaIcEEES8_j
libeiskaltdcpp.so.2.4:_ZN4dcpp6Socket12socksUpdatedEv
libeiskaltdcpp.so.2.4:_ZN4dcpp6Socket12waitAcceptedEj
libeiskaltdcpp.so.2.4:_ZN4dcpp6Socket13waitConnectedEj
libeiskaltdcpp.so.2.4:_ZN4dcpp6Socket15getNextProtocolEv
libeiskaltdcpp.so.2.4:_ZN4dcpp6Socket15getSocketOptIntEi
libeiskaltdcpp.so.2.4:_ZN4dcpp6Socket4bindERKNSt7__cxx1112basic_stringIcSt11char_traitsIcESaIcEEES8_
libeiskaltdcpp.so.2.4:_ZN4dcpp6Socket4readEPvi
libeiskaltdcpp.so.2.4:_ZN4dcpp6Socket4readEPviR11sockaddr_in
libeiskaltdcpp.so.2.4:_ZN4dcpp6Socket4waitEji
libeiskaltdcpp.so.2.4:_ZN4dcpp6Socket5checkEib
libeiskaltdcpp.so.2.4:_ZN4dcpp6Socket5closeEv
libeiskaltdcpp.so.2.4:_ZN4dcpp6Socket5statsE
libeiskaltdcpp.so.2.4:_ZN4dcpp6Socket5writeEPKvi
libeiskaltdcpp.so.2.4:_ZN4dcpp6Socket6acceptERKS0_
libeiskaltdcpp.so.2.4:_ZN4dcpp6Socket6createEi
libeiskaltdcpp.so.2.4:_ZN4dcpp6Socket6listenEv
libeiskaltdcpp.so.2.4:_ZN4dcpp6Socket7connectERKNSt7__cxx1112basic_stringIcSt11char_traitsIcESaIcEEES8_S8_
libeiskaltdcpp.so.2.4:_ZN4dcpp6Socket7readAllEPvij
libeiskaltdcpp.so.2.4:_ZN4dcpp6Socket7resolveERKNSt7__cxx1112basic_stringIcSt11char_traitsIcESaIcEEE
libeiskaltdcpp.so.2.4:_ZN4dcpp6Socket7udpPortB5cxx11E
libeiskaltdcpp.so.2.4:_ZN4dcpp6Socket7writeToERKNSt7__cxx1112basic_stringIcSt11char_traitsIcESaIcEEES8_PKvib
libeiskaltdcpp.so.2.4:_ZN4dcpp6Socket8shutdownEv
libeiskaltdcpp.so.2.4:_ZN4dcpp6Socket8writeAllEPKvij
libeiskaltdcpp.so.2.4:_ZN4dcpp6Socket9socksAuthEj
libeiskaltdcpp.so.2.4:_ZN4dcpp6Socket9udpServerB5cxx11E
libeiskaltdcpp.so.2.4:_ZN4dcpp6Thread5startEv
libeiskaltdcpp.so.2.4:_ZN4dcpp6Upload9getParamsERKNS_14UserConnectionERSt13unordered_mapINSt7__cxx1112basic_stringIcSt11char_traitsIcESaIcEEESA_St4hashISA_ESt8equal_toISA_ESaISt4pairIKSA_SA_EEE
libeiskaltdcpp.so.2.4:_ZN4dcpp6UploadC1ERNS_14UserConnectionERKNSt7__cxx1112basic_stringIcSt11char_traitsIcESaIcEEERKNS_9HashValueINS_9TigerHashEEE
libeiskaltdcpp.so.2.4:_ZN4dcpp6UploadC2ERNS_14UserConnectionERKNSt7__cxx1112basic_stringIcSt11char_traitsIcESaIcEEERKNS_9HashValueINS_9TigerHashEEE
libeiskaltdcpp.so.2.4:_ZN4dcpp6UploadD0Ev
libeiskaltdcpp.so.2.4:_ZN4dcpp6UploadD1Ev
libeiskaltdcpp.so.2.4:_ZN4dcpp6UploadD2Ev
libeiskaltdcpp.so.2.4:_ZN4dcpp7Encoder10fromBase16EPKcPhm
libeiskaltdcpp.so.2.4:_ZN4dcpp7Encoder10fromBase32EPKcPhm
libeiskaltdcpp.so.2.4:_ZN4dcpp7Encoder11base32TableE
libeiskaltdcpp.so.2.4:_ZN4dcpp7Encoder14base32AlphabetE
libeiskaltdcpp.so.2.4:_ZN4dcpp7Encoder8isBase32ERKNSt7__cxx1112basic_stringIcSt11char_traitsIcESaIcEEE
libeiskaltdcpp.so.2.4:_ZN4dcpp7Encoder8toBase32EPKhmRNSt7__cxx1112basic_stringIcSt11char_traitsIcESaIcEEE
libeiskaltdcpp.so.2.4:_ZN4dcpp7NmdcHub10clearUsersEv
libeiskaltdcpp.so.2.4:_ZN4dcpp7NmdcHub10hubMessageERKNSt7__cxx1112basic_stringIcSt11char_traitsIcESaIcEEEb
libeiskaltdcpp.so.2.4:_ZN4dcpp7NmdcHub11connectToMeERKNS_10OnlineUserE
libeiskaltdcpp.so.2.4:_ZN4dcpp7NmdcHub11sendUserCmdERKNS_11UserCommandERKSt13unordered_mapINSt7__cxx1112basic_stringIcSt11char_traitsIcESaIcEEESA_St4hashISA_ESt8equal_toISA_ESaISt4pairIKSA_SA_EEE
libeiskaltdcpp.so.2.4:_ZN4dcpp7NmdcHub13clearFloodersEm
libeiskaltdcpp.so.2.4:_ZN4dcpp7NmdcHub13updateFromTagERNS_8IdentityERKNSt7__cxx1112basic_stringIcSt11char_traitsIcESaIcEEE
libeiskaltdcpp.so.2.4:_ZN4dcpp7NmdcHub14privateMessageERKNS_10OnlineUserERKNSt7__cxx1112basic_stringIcSt11char_traitsIcESaIcEEEb
libeiskaltdcpp.so.2.4:_ZN4dcpp7NmdcHub14privateMessageERKNSt7__cxx1112basic_stringIcSt11char_traitsIcESaIcEEES8_
libeiskaltdcpp.so.2.4:_ZN4dcpp7NmdcHub14revConnectToMeERKNS_10OnlineUserE
libeiskaltdcpp.so.2.4:_ZN4dcpp7NmdcHub15validateMessageENSt7__cxx1112basic_stringIcSt11char_traitsIcESaIcEEEb
libeiskaltdcpp.so.2.4:_ZN4dcpp7NmdcHub2onENS_20TimerManagerListener1XILi0EEEm
libeiskaltdcpp.so.2.4:_ZN4dcpp7NmdcHub2onENS_22BufferedSocketListener1XILi1EEE
libeiskaltdcpp.so.2.4:_ZN4dcpp7NmdcHub2onENS_22BufferedSocketListener1XILi2EEERKNSt7__cxx1112basic_stringIcSt11char_traitsIcESaIcEEE
libeiskaltdcpp.so.2.4:_ZN4dcpp7NmdcHub2onENS_22BufferedSocketListener1XILi7EEERKNSt7__cxx1112basic_stringIcSt11char_traitsIcESaIcEEE
libeiskaltdcpp.so.2.4:_ZN4dcpp7NmdcHub6myInfoEb
libeiskaltdcpp.so.2.4:_ZN4dcpp7NmdcHub6onLineERKNSt7__cxx1112basic_stringIcSt11char_traitsIcESaIcEEE
libeiskaltdcpp.so.2.4:_ZN4dcpp7NmdcHub6searchEiliRKNSt7__cxx1112basic_stringIcSt11char_traitsIcESaIcEEES8_RKSt6vectorIS6_SaIS6_EE
libeiskaltdcpp.so.2.4:_ZN4dcpp7NmdcHub7connectERKNS_10OnlineUserERKNSt7__cxx1112basic_stringIcSt11char_traitsIcESaIcEEE
libeiskaltdcpp.so.2.4:_ZN4dcpp7NmdcHub7getUserERKNSt7__cxx1112basic_stringIcSt11char_traitsIcESaIcEEE
libeiskaltdcpp.so.2.4:_ZN4dcpp7NmdcHub7putUserERKNSt7__cxx1112basic_stringIcSt11char_traitsIcESaIcEEE
libeiskaltdcpp.so.2.4:_ZN4dcpp7NmdcHub8findUserERKNSt7__cxx1112basic_stringIcSt11char_traitsIcESaIcEEE
libeiskaltdcpp.so.2.4:_ZN4dcpp7NmdcHub8supportsERKSt6vectorINSt7__cxx1112basic_stringIcSt11char_traitsIcESaIcEEESaIS7_EE
libeiskaltdcpp.so.2.4:_ZN4dcpp7NmdcHub9checkNickERKNSt7__cxx1112basic_stringIcSt11char_traitsIcESaIcEEE
libeiskaltdcpp.so.2.4:_ZN4dcpp7NmdcHubC1ERKNSt7__cxx1112basic_stringIcSt11char_traitsIcESaIcEEEb
libeiskaltdcpp.so.2.4:_ZN4dcpp7NmdcHubC2ERKNSt7__cxx1112basic_stringIcSt11char_traitsIcESaIcEEEb
libeiskaltdcpp.so.2.4:_ZN4dcpp7NmdcHubD0Ev
libeiskaltdcpp.so.2.4:_ZN4dcpp7NmdcHubD1Ev
libeiskaltdcpp.so.2.4:_ZN4dcpp7NmdcHubD2Ev
libeiskaltdcpp.so.2.4:_ZN4dcpp7ZFilter21MIN_COMPRESSION_LEVELE
libeiskaltdcpp.so.2.4:_ZN4dcpp7ZFilterC1Ev
libeiskaltdcpp.so.2.4:_ZN4dcpp7ZFilterC2Ev
libeiskaltdcpp.so.2.4:_ZN4dcpp7ZFilterD1Ev
libeiskaltdcpp.so.2.4:_ZN4dcpp7ZFilterD2Ev
libeiskaltdcpp.so.2.4:_ZN4dcpp7ZFilterclEPKvRmPvS3_
libeiskaltdcpp.so.2.4:_ZN4dcpp7startupEPFvPvRKNSt7__cxx1112basic_stringIcSt11char_traitsIcESaIcEEEES0_
libeiskaltdcpp.so.2.4:_ZN4dcpp8BZFilterC1Ev
libeiskaltdcpp.so.2.4:_ZN4dcpp8BZFilterC2Ev
libeiskaltdcpp.so.2.4:_ZN4dcpp8BZFilterD1Ev
libeiskaltdcpp.so.2.4:_ZN4dcpp8BZFilterD2Ev
libeiskaltdcpp.so.2.4:_ZN4dcpp8BZFilterclEPKvRmPvS3_
libeiskaltdcpp.so.2.4:_ZN4dcpp8Download10getCommandEb
libeiskaltdcpp.so.2.4:_ZN4dcpp8Download9getParamsERKNS_14UserConnectionERSt13unordered_mapINSt7__cxx1112basic_stringIcSt11char_traitsIcESaIcEEESA_St4hashISA_ESt8equal_toISA_ESaISt4pairIKSA_SA_EEE
libeiskaltdcpp.so.2.4:_ZN4dcpp8DownloadC1ERNS_14UserConnectionERNS_9QueueItemERKNSt7__cxx1112basic_stringIcSt11char_traitsIcESaIcEEEb
libeiskaltdcpp.so.2.4:_ZN4dcpp8DownloadC2ERNS_14UserConnectionERNS_9QueueItemERKNSt7__cxx1112basic_stringIcSt11char_traitsIcESaIcEEEb
libeiskaltdcpp.so.2.4:_ZN4dcpp8DownloadD0Ev
libeiskaltdcpp.so.2.4:_ZN4dcpp8DownloadD1Ev
libeiskaltdcpp.so.2.4:_ZN4dcpp8DownloadD2Ev
libeiskaltdcpp.so.2.4:_ZN4dcpp8Identity2csE
libeiskaltdcpp.so.2.4:_ZN4dcpp8Identity3setEPKcRKNSt7__cxx1112basic_stringIcSt11char_traitsIcESaIcEEE
libeiskaltdcpp.so.2.4:_ZN4dcpp8Identity7setSelfEv
libeiskaltdcpp.so.2.4:_ZN4dcpp8Identity9setNoChatEb
libeiskaltdcpp.so.2.4:_ZN4dcpp8Transfer14USER_LIST_NAMEB5cxx11E
libeiskaltdcpp.so.2.4:_ZN4dcpp8Transfer17USER_LIST_NAME_BZB5cxx11E
libeiskaltdcpp.so.2.4:_ZN4dcpp8Transfer4tickEv
libeiskaltdcpp.so.2.4:_ZN4dcpp8Transfer5namesB5cxx11E
libeiskaltdcpp.so.2.4:_ZN4dcpp8Transfer7getUserEv
libeiskaltdcpp.so.2.4:_ZN4dcpp8Transfer9getParamsERKNS_14UserConnectionERSt13unordered_mapINSt7__cxx1112basic_stringIcSt11char_traitsIcESaIcEEESA_St4hashISA_ESt8equal_toISA_ESaISt4pairIKSA_SA_EEE
libeiskaltdcpp.so.2.4:_ZN4dcpp8TransferC1ERNS_14UserConnectionERKNSt7__cxx1112basic_stringIcSt11char_traitsIcESaIcEEERKNS_9HashValueINS_9TigerHashEEE
libeiskaltdcpp.so.2.4:_ZN4dcpp8TransferC2ERNS_14UserConnectionERKNSt7__cxx1112basic_stringIcSt11char_traitsIcESaIcEEERKNS_9HashValueINS_9TigerHashEEE
libeiskaltdcpp.so.2.4:_ZN4dcpp8decode16Ec
libeiskaltdcpp.so.2.4:_ZN4dcpp8shutdownEv
libeiskaltdcpp.so.2.4:_ZN4dcpp9ADLSearch11GetSizeBaseEv
libeiskaltdcpp.so.2.4:_ZN4dcpp9ADLSearch11matchesFileERKNSt7__cxx1112basic_stringIcSt11char_traitsIcESaIcEEES8_l
libeiskaltdcpp.so.2.4:_ZN4dcpp9ADLSearch16SizeTypeToStringB5cxx11ENS0_8SizeTypeE
libeiskaltdcpp.so.2.4:_ZN4dcpp9ADLSearch16StringToSizeTypeERKNSt7__cxx1112basic_stringIcSt11char_traitsIcESaIcEEE
libeiskaltdcpp.so.2.4:_ZN4dcpp9ADLSearch16matchesDirectoryERKNSt7__cxx1112basic_stringIcSt11char_traitsIcESaIcEEE
libeiskaltdcpp.so.2.4:_ZN4dcpp9ADLSearch18SourceTypeToStringB5cxx11ENS0_10SourceTypeE
libeiskaltdcpp.so.2.4:_ZN4dcpp9ADLSearch18StringToSourceTypeERKNSt7__cxx1112basic_stringIcSt11char_traitsIcESaIcEEE
libeiskaltdcpp.so.2.4:_ZN4dcpp9ADLSearch7prepareERSt13unordered_mapINSt7__cxx1112basic_stringIcSt11char_traitsIcESaIcEEES7_St4hashIS7_ESt8equal_toIS7_ESaISt4pairIKS7_S7_EEE
libeiskaltdcpp.so.2.4:_ZN4dcpp9ADLSearch9searchAllERKNSt7__cxx1112basic_stringIcSt11char_traitsIcESaIcEEE
libeiskaltdcpp.so.2.4:_ZN4dcpp9ADLSearchC1Ev
libeiskaltdcpp.so.2.4:_ZN4dcpp9ADLSearchC2Ev
libeiskaltdcpp.so.2.4:_ZN4dcpp9HashBloom3addERKNS_9HashValueINS_9TigerHashEEE
libeiskaltdcpp.so.2.4:_ZN4dcpp9HashBloom5get_kEmm
libeiskaltdcpp.so.2.4:_ZN4dcpp9HashBloom5get_mEmm
libeiskaltdcpp.so.2.4:_ZN4dcpp9HashBloom5resetEmmm
libeiskaltdcpp.so.2.4:_ZN4dcpp9HashBloom9push_backEb
libeiskaltdcpp.so.2.4:_ZN4dcpp9QueueItem10addSegmentERKNS_7SegmentE
libeiskaltdcpp.so.2.4:_ZN4dcpp9QueueItem12removeSourceERKNS_13intrusive_ptrINS_4UserEEEi
libeiskaltdcpp.so.2.4:_ZN4dcpp9QueueItem13getTempTargetB5cxx11Ev
libeiskaltdcpp.so.2.4:_ZN4dcpp9QueueItem9addSourceERKNS_10HintedUserE
libeiskaltdcpp.so.2.4:_ZN4dcpp9SFVReader4loadERKNSt7__cxx1112basic_stringIcSt11char_traitsIcESaIcEEE
libeiskaltdcpp.so.2.4:_ZN4dcpp9SFVReader7tryFileERKNSt7__cxx1112basic_stringIcSt11char_traitsIcESaIcEEES8_
libeiskaltdcpp.so.2.4:_ZN4dcpp9SSLSocket12waitAcceptedEj
libeiskaltdcpp.so.2.4:_ZN4dcpp9SSLSocket13waitConnectedEj
libeiskaltdcpp.so.2.4:_ZN4dcpp9SSLSocket4readEPvi
libeiskaltdcpp.so.2.4:_ZN4dcpp9SSLSocket4waitEji
libeiskaltdcpp.so.2.4:_ZN4dcpp9SSLSocket5closeEv
libeiskaltdcpp.so.2.4:_ZN4dcpp9SSLSocket5writeEPKvi
libeiskaltdcpp.so.2.4:_ZN4dcpp9SSLSocket6acceptERKNS_6SocketE
libeiskaltdcpp.so.2.4:_ZN4dcpp9SSLSocket7connectERKNSt7__cxx1112basic_stringIcSt11char_traitsIcESaIcEEES8_
libeiskaltdcpp.so.2.4:_ZN4dcpp9SSLSocket8checkSSLEi
libeiskaltdcpp.so.2.4:_ZN4dcpp9SSLSocket8shutdownEv
libeiskaltdcpp.so.2.4:_ZN4dcpp9SSLSocket8waitWantEij
libeiskaltdcpp.so.2.4:_ZN4dcpp9SSLSocketC1EP10ssl_ctx_stNS_6Socket8ProtocolE
libeiskaltdcpp.so.2.4:_ZN4dcpp9SSLSocketC2EP10ssl_ctx_stNS_6Socket8ProtocolE
libeiskaltdcpp.so.2.4:_ZN4dcpp9SimpleXML10utf8HeaderB5cxx11E
libeiskaltdcpp.so.2.4:_ZN4dcpp9SimpleXML14addChildAttribERKNSt7__cxx1112basic_stringIcSt11char_traitsIcESaIcEEES8_
libeiskaltdcpp.so.2.4:_ZN4dcpp9SimpleXML3Tag18appendAttribStringERNSt7__cxx1112basic_stringIcSt11char_traitsIcESaIcEEE
libeiskaltdcpp.so.2.4:_ZN4dcpp9SimpleXML3Tag5toXMLEiPNS_12OutputStreamE
libeiskaltdcpp.so.2.4:_ZN4dcpp9SimpleXML5toXMLB5cxx11Ev
libeiskaltdcpp.so.2.4:_ZN4dcpp9SimpleXML6addTagERKNSt7__cxx1112basic_stringIcSt11char_traitsIcESaIcEEES8_
libeiskaltdcpp.so.2.4:_ZN4dcpp9SimpleXML6escapeERNSt7__cxx1112basic_stringIcSt11char_traitsIcESaIcEEEbbRKS6_
libeiskaltdcpp.so.2.4:_ZN4dcpp9SimpleXML7fromXMLERKNSt7__cxx1112basic_stringIcSt11char_traitsIcESaIcEEE
libeiskaltdcpp.so.2.4:_ZN4dcpp9SimpleXML9addAttribERKNSt7__cxx1112basic_stringIcSt11char_traitsIcESaIcEEES8_
libeiskaltdcpp.so.2.4:_ZN4dcpp9SimpleXML9findChildERKNSt7__cxx1112basic_stringIcSt11char_traitsIcESaIcEEE
libeiskaltdcpp.so.2.4:_ZN4dcpp9TigerHash13tigerCompressEPKmPm
libeiskaltdcpp.so.2.4:_ZN4dcpp9TigerHash5tableE
libeiskaltdcpp.so.2.4:_ZN4dcpp9TigerHash6updateEPKvm
libeiskaltdcpp.so.2.4:_ZN4dcpp9TigerHash8finalizeEv
libeiskaltdcpp.so.2.4:_ZN4dcpp9UnZFilterC1Ev
libeiskaltdcpp.so.2.4:_ZN4dcpp9UnZFilterC2Ev
libeiskaltdcpp.so.2.4:_ZN4dcpp9UnZFilterD1Ev
libeiskaltdcpp.so.2.4:_ZN4dcpp9UnZFilterD2Ev
libeiskaltdcpp.so.2.4:_ZN4dcpp9UnZFilterclEPKvRmPvS3_
libeiskaltdcpp.so.2.4:_ZN4dcpp9idCounterE
libeiskaltdcpp.so.2.4:_ZN5UPnPc13getExternalIPB5cxx11Ev
libeiskaltdcpp.so.2.4:_ZN5UPnPc3addERKNSt7__cxx1112basic_stringIcSt11char_traitsIcESaIcEEEN4dcpp4UPnP8ProtocolES7_
libeiskaltdcpp.so.2.4:_ZN5UPnPc4initEv
libeiskaltdcpp.so.2.4:_ZN5UPnPc4nameB5cxx11E
libeiskaltdcpp.so.2.4:_ZN5UPnPc6removeERKNSt7__cxx1112basic_stringIcSt11char_traitsIcESaIcEEEN4dcpp4UPnP8ProtocolE
libeiskaltdcpp.so.2.4:_ZN8IPFilter10MaskToCIDREj
libeiskaltdcpp.so.2.4:_ZN8IPFilter10addToRulesERKNSt7__cxx1112basic_stringIcSt11char_traitsIcESaIcEEE10eDIRECTION
libeiskaltdcpp.so.2.4:_ZN8IPFilter10clearRulesEv
libeiskaltdcpp.so.2.4:_ZN8IPFilter10importFromENSt7__cxx1112basic_stringIcSt11char_traitsIcESaIcEEERS5_
libeiskaltdcpp.so.2.4:_ZN8IPFilter10moveRuleUpEj12eTableAction
libeiskaltdcpp.so.2.4:_ZN8IPFilter11MaskForBitsEj
libeiskaltdcpp.so.2.4:_ZN8IPFilter11ParseStringENSt7__cxx1112basic_stringIcSt11char_traitsIcESaIcEEERjS6_R12eTableAction
libeiskaltdcpp.so.2.4:_ZN8IPFilter12moveRuleDownEj12eTableAction
libeiskaltdcpp.so.2.4:_ZN8IPFilter12remFromRulesENSt7__cxx1112basic_stringIcSt11char_traitsIcESaIcEEE12eTableAction
libeiskaltdcpp.so.2.4:_ZN8IPFilter14StringToUint32ERKNSt7__cxx1112basic_stringIcSt11char_traitsIcESaIcEEE
libeiskaltdcpp.so.2.4:_ZN8IPFilter14Uint32ToStringB5cxx11Ej
libeiskaltdcpp.so.2.4:_ZN8IPFilter19changeRuleDirectionENSt7__cxx1112basic_stringIcSt11char_traitsIcESaIcEEE10eDIRECTION12eTableAction
libeiskaltdcpp.so.2.4:_ZN8IPFilter2OKERKNSt7__cxx1112basic_stringIcSt11char_traitsIcESaIcEEE10eDIRECTION
libeiskaltdcpp.so.2.4:_ZN8IPFilter4loadEv
libeiskaltdcpp.so.2.4:_ZN8IPFilter4stepEj12eTableActionb
libeiskaltdcpp.so.2.4:_ZN8IPFilter7getHashEv
libeiskaltdcpp.so.2.4:_ZN8IPFilter8exportToENSt7__cxx1112basic_stringIcSt11char_traitsIcESaIcEEERS5_
libeiskaltdcpp.so.2.4:_ZN8IPFilter8getRulesEv
libeiskaltdcpp.so.2.4:_ZN8IPFilter8loadListEv
libeiskaltdcpp.so.2.4:_ZN8IPFilter8saveListEv
libeiskaltdcpp.so.2.4:_ZN8IPFilter8shutdownEv
libeiskaltdcpp.so.2.4:_ZN8IPFilterC1Ev
libeiskaltdcpp.so.2.4:_ZN8IPFilterC2Ev
libeiskaltdcpp.so.2.4:_ZN8IPFilterD0Ev
libeiskaltdcpp.so.2.4:_ZN8IPFilterD1Ev
libeiskaltdcpp.so.2.4:_ZN8IPFilterD2Ev
libeiskaltdcpp.so.2.4:_ZN8Wildcard11wildcardfitEPKcS1_b
libeiskaltdcpp.so.2.4:_ZN8Wildcard11wildcardfitEPKwS1_b
libeiskaltdcpp.so.2.4:_ZN8Wildcard12patternMatchERKNSt7__cxx1112basic_stringIcSt11char_traitsIcESaIcEEES7_b
libeiskaltdcpp.so.2.4:_ZN8Wildcard12patternMatchERKNSt7__cxx1112basic_stringIcSt11char_traitsIcESaIcEEES7_cb
libeiskaltdcpp.so.2.4:_ZN8Wildcard12patternMatchERKNSt7__cxx1112basic_stringIwSt11char_traitsIwESaIwEEES7_b
libeiskaltdcpp.so.2.4:_ZN8Wildcard12patternMatchERKNSt7__cxx1112basic_stringIwSt11char_traitsIwESaIwEEES7_wb
libeiskaltdcpp.so.2.4:_ZN8Wildcard3setEPPKcS2_
libeiskaltdcpp.so.2.4:_ZN8Wildcard3setEPPKwS2_
libeiskaltdcpp.so.2.4:_ZN8Wildcard8asteriskEPPKcS2_
libeiskaltdcpp.so.2.4:_ZN8Wildcard8asteriskEPPKwS2_
libeiskaltdcpp.so.2.4:_ZNK3dht12IndexManager10findResultERKN4dcpp9HashValueINS1_9TigerHashEEERSt5dequeINS_6SourceESaIS8_EE
libeiskaltdcpp.so.2.4:_ZNK3dht4Node9getUdpKeyEv
libeiskaltdcpp.so.2.4:_ZNK3dht7KBucket15getClosestNodesERKN4dcpp3CIDERSt3mapIS2_NS1_13intrusive_ptrINS_4NodeEEESt4lessIS2_ESaISt4pairIS3_S8_EEEjh
libeiskaltdcpp.so.2.4:_ZNK4dcpp10AdcCommand14getParamStringB5cxx11Eb
libeiskaltdcpp.so.2.4:_ZNK4dcpp10AdcCommand15getHeaderStringB5cxx11ERKNS_3CIDE
libeiskaltdcpp.so.2.4:_ZNK4dcpp10AdcCommand15getHeaderStringB5cxx11Ejb
libeiskaltdcpp.so.2.4:_ZNK4dcpp10AdcCommand7hasFlagEPKcm
libeiskaltdcpp.so.2.4:_ZNK4dcpp10AdcCommand8getParamB5cxx11Em
libeiskaltdcpp.so.2.4:_ZNK4dcpp10AdcCommand8getParamEPKcmRNSt7__cxx1112basic_stringIcSt11char_traitsIcESaIcEEE
libeiskaltdcpp.so.2.4:_ZNK4dcpp10AdcCommand8toStringB5cxx11ERKNS_3CIDE
libeiskaltdcpp.so.2.4:_ZNK4dcpp10AdcCommand8toStringB5cxx11Ejb
libeiskaltdcpp.so.2.4:_ZNK4dcpp10LogManager10getSettingB5cxx11Eii
libeiskaltdcpp.so.2.4:_ZNK4dcpp10LogManager7getPathB5cxx11ENS0_4AreaE
libeiskaltdcpp.so.2.4:_ZNK4dcpp10LogManager7getPathENS0_4AreaERSt13unordered_mapINSt7__cxx1112basic_stringIcSt11char_traitsIcESaIcEEES8_St4hashIS8_ESt8equal_toIS8_ESaISt4pairIKS8_S8_EEE
libeiskaltdcpp.so.2.4:_ZNK4dcpp11ChatMessage6formatB5cxx11Ev
libeiskaltdcpp.so.2.4:_ZNK4dcpp11HashManager15isHashingPausedEv
libeiskaltdcpp.so.2.4:_ZNK4dcpp11HashManager6Hasher8getStatsERNSt7__cxx1112basic_stringIcSt11char_traitsIcESaIcEEERmS9_
libeiskaltdcpp.so.2.4:_ZNK4dcpp11HashManager6Hasher8isPausedEv
libeiskaltdcpp.so.2.4:_ZNK4dcpp11HashManager9HashStore12getBlockSizeERKNS_9HashValueINS_9TigerHashEEE
libeiskaltdcpp.so.2.4:_ZNK4dcpp11UserCommand14getDisplayNameB5cxx11Ev
libeiskaltdcpp.so.2.4:_ZNK4dcpp12FileFindIterneERKS0_
libeiskaltdcpp.so.2.4:_ZNK4dcpp12QueueManager9UserQueue9getQueuedERKNS_13intrusive_ptrINS_4UserEEE
libeiskaltdcpp.so.2.4:_ZNK4dcpp12QueueManager9getQueuedERKNS_13intrusive_ptrINS_4UserEEE
libeiskaltdcpp.so.2.4:_ZNK4dcpp12SearchResult11getBaseNameB5cxx11Ev
libeiskaltdcpp.so.2.4:_ZNK4dcpp12SearchResult4toSRB5cxx11ERKNS_6ClientE
libeiskaltdcpp.so.2.4:_ZNK4dcpp12SearchResult5toRESEc
libeiskaltdcpp.so.2.4:_ZNK4dcpp12ShareManager10hasVirtualERKNSt7__cxx1112basic_stringIcSt11char_traitsIcESaIcEEE
libeiskaltdcpp.so.2.4:_ZNK4dcpp12ShareManager11checkHiddenERKNSt7__cxx1112basic_stringIcSt11char_traitsIcESaIcEEE
libeiskaltdcpp.so.2.4:_ZNK4dcpp12ShareManager12findRealRootERKNSt7__cxx1112basic_stringIcSt11char_traitsIcESaIcEEES8_
libeiskaltdcpp.so.2.4:_ZNK4dcpp12ShareManager12getByVirtualERKNSt7__cxx1112basic_stringIcSt11char_traitsIcESaIcEEE
libeiskaltdcpp.so.2.4:_ZNK4dcpp12ShareManager12getShareSizeERKNSt7__cxx1112basic_stringIcSt11char_traitsIcESaIcEEE
libeiskaltdcpp.so.2.4:_ZNK4dcpp12ShareManager12getShareSizeEv
libeiskaltdcpp.so.2.4:_ZNK4dcpp12ShareManager12splitVirtualERKNSt7__cxx1112basic_stringIcSt11char_traitsIcESaIcEEE
libeiskaltdcpp.so.2.4:_ZNK4dcpp12ShareManager14getDirectoriesB5cxx11Ev
libeiskaltdcpp.so.2.4:_ZNK4dcpp12ShareManager14getSharedFilesEv
libeiskaltdcpp.so.2.4:_ZNK4dcpp12ShareManager15validateVirtualERKNSt7__cxx1112basic_stringIcSt11char_traitsIcESaIcEEE
libeiskaltdcpp.so.2.4:_ZNK4dcpp12ShareManager19generatePartialListERKNSt7__cxx1112basic_stringIcSt11char_traitsIcESaIcEEEb
libeiskaltdcpp.so.2.4:_ZNK4dcpp12ShareManager6getTTHERKNSt7__cxx1112basic_stringIcSt11char_traitsIcESaIcEEE
libeiskaltdcpp.so.2.4:_ZNK4dcpp12ShareManager7getTreeERKNSt7__cxx1112basic_stringIcSt11char_traitsIcESaIcEEE
libeiskaltdcpp.so.2.4:_ZNK4dcpp12ShareManager7getTypeERKNSt7__cxx1112basic_stringIcSt11char_traitsIcESaIcEEE
libeiskaltdcpp.so.2.4:_ZNK4dcpp12ShareManager8findFileERKNSt7__cxx1112basic_stringIcSt11char_traitsIcESaIcEEE
libeiskaltdcpp.so.2.4:_ZNK4dcpp12ShareManager8getBloomERSt6vectorIhSaIhEEmmm
libeiskaltdcpp.so.2.4:_ZNK4dcpp12ShareManager9Directory10filesToXmlERNS_12OutputStreamERNSt7__cxx1112basic_stringIcSt11char_traitsIcESaIcEEESA_
libeiskaltdcpp.so.2.4:_ZNK4dcpp12ShareManager9Directory10getADCPathB5cxx11Ev
libeiskaltdcpp.so.2.4:_ZNK4dcpp12ShareManager9Directory11getFullNameB5cxx11Ev
libeiskaltdcpp.so.2.4:_ZNK4dcpp12ShareManager9Directory11getRealPathERKNSt7__cxx1112basic_stringIcSt11char_traitsIcESaIcEEE
libeiskaltdcpp.so.2.4:_ZNK4dcpp12ShareManager9Directory5toXmlERNS_12OutputStreamERNSt7__cxx1112basic_stringIcSt11char_traitsIcESaIcEEESA_b
libeiskaltdcpp.so.2.4:_ZNK4dcpp12ShareManager9Directory6searchERSt6vectorINS_13intrusive_ptrINS_12SearchResultEEESaIS5_EERNS0_9AdcSearchEm
libeiskaltdcpp.so.2.4:_ZNK4dcpp12ShareManager9Directory6searchERSt6vectorINS_13intrusive_ptrINS_12SearchResultEEESaIS5_EERS2_INS_12StringSearchESaIS9_EEiliPNS_6ClientEm
libeiskaltdcpp.so.2.4:_ZNK4dcpp12ShareManager9Directory7getSizeEv
libeiskaltdcpp.so.2.4:_ZNK4dcpp12ShareManager9toVirtualB5cxx11ERKNS_9HashValueINS_9TigerHashEEE
libeiskaltdcpp.so.2.4:_ZNK4dcpp13ClientManager10getHubUrlsB5cxx11ERKNS_3CIDE
libeiskaltdcpp.so.2.4:_ZNK4dcpp13ClientManager11findDHTNodeERKNS_3CIDE
libeiskaltdcpp.so.2.4:_ZNK4dcpp13ClientManager11isConnectedERKNSt7__cxx1112basic_stringIcSt11char_traitsIcESaIcEEE
libeiskaltdcpp.so.2.4:_ZNK4dcpp13ClientManager12getAvailableEv
libeiskaltdcpp.so.2.4:_ZNK4dcpp13ClientManager12getUserCountEv
libeiskaltdcpp.so.2.4:_ZNK4dcpp13ClientManager13getConnectionB5cxx11ERKNS_3CIDE
libeiskaltdcpp.so.2.4:_ZNK4dcpp13ClientManager14findLegacyUserERKNSt7__cxx1112basic_stringIcSt11char_traitsIcESaIcEEE
libeiskaltdcpp.so.2.4:_ZNK4dcpp13ClientManager15findHubEncodingERKNSt7__cxx1112basic_stringIcSt11char_traitsIcESaIcEEE
libeiskaltdcpp.so.2.4:_ZNK4dcpp13ClientManager18findOnlineUserHintERKNS_3CIDERKNSt7__cxx1112basic_stringIcSt11char_traitsIcESaIcEEERSt4pairINSt8__detail20_Node_const_iteratorISC_IS2_PNS_10OnlineUserEELb0ELb1EEESI_E
libeiskaltdcpp.so.2.4:_ZNK4dcpp13ClientManager4isOpERKNS_13intrusive_ptrINS_4UserEEERKNSt7__cxx1112basic_stringIcSt11char_traitsIcESaIcEEE
libeiskaltdcpp.so.2.4:_ZNK4dcpp13ClientManager7findHubERKNSt7__cxx1112basic_stringIcSt11char_traitsIcESaIcEEE
libeiskaltdcpp.so.2.4:_ZNK4dcpp13ClientManager7getModeERKNSt7__cxx1112basic_stringIcSt11char_traitsIcESaIcEEE
libeiskaltdcpp.so.2.4:_ZNK4dcpp13ClientManager7makeCidERKNSt7__cxx1112basic_stringIcSt11char_traitsIcESaIcEEES8_
libeiskaltdcpp.so.2.4:_ZNK4dcpp13ClientManager8findUserERKNS_3CIDE
libeiskaltdcpp.so.2.4:_ZNK4dcpp13ClientManager8getFieldERKNS_3CIDERKNSt7__cxx1112basic_stringIcSt11char_traitsIcESaIcEEEPKc
libeiskaltdcpp.so.2.4:_ZNK4dcpp13ClientManager8getSlotsERKNS_3CIDE
libeiskaltdcpp.so.2.4:_ZNK4dcpp13ClientManager9saveUsersEv
libeiskaltdcpp.so.2.4:_ZNK4dcpp13CryptoManager11getKeyprintEv
libeiskaltdcpp.so.2.4:_ZNK4dcpp13CryptoManager5TLSOkEv
libeiskaltdcpp.so.2.4:_ZNK4dcpp13SearchManager14getPartsStringB5cxx11ERKSt6vectorItSaItEE
libeiskaltdcpp.so.2.4:_ZNK4dcpp13SearchManager5toPSREbRKNSt7__cxx1112basic_stringIcSt11char_traitsIcESaIcEEES8_S8_RKSt6vectorItSaItEE
libeiskaltdcpp.so.2.4:_ZNK4dcpp13UploadManager15getWaitingUsersEv
libeiskaltdcpp.so.2.4:_ZNK4dcpp14CaseStringHashclERKNSt7__cxx1112basic_stringIcSt11char_traitsIcESaIcEEE
libeiskaltdcpp.so.2.4:_ZNK4dcpp14CaseStringHashclERKNSt7__cxx1112basic_stringIwSt11char_traitsIwESaIwEEE
libeiskaltdcpp.so.2.4:_ZNK4dcpp15FavoriteManager10getUserURLB5cxx11ERKNS_13intrusive_ptrINS_4UserEEE
libeiskaltdcpp.so.2.4:_ZNK4dcpp15FavoriteManager11getLastSeenERKNS_13intrusive_ptrINS_4UserEEE
libeiskaltdcpp.so.2.4:_ZNK4dcpp15FavoriteManager15getFavoriteHubsERKNSt7__cxx1112basic_stringIcSt11char_traitsIcESaIcEEE
libeiskaltdcpp.so.2.4:_ZNK4dcpp15FavoriteManager19getFavoriteHubEntryERKNSt7__cxx1112basic_stringIcSt11char_traitsIcESaIcEEE
libeiskaltdcpp.so.2.4:_ZNK4dcpp15FavoriteManager7hasSlotERKNS_13intrusive_ptrINS_4UserEEE
libeiskaltdcpp.so.2.4:_ZNK4dcpp15FavoriteManager9isPrivateERKNSt7__cxx1112basic_stringIcSt11char_traitsIcESaIcEEE
libeiskaltdcpp.so.2.4:_ZNK4dcpp15FinishedManager12getMapByFileB5cxx11Eb
libeiskaltdcpp.so.2.4:_ZNK4dcpp15FinishedManager12getMapByUserEb
libeiskaltdcpp.so.2.4:_ZNK4dcpp15SettingsManager22validateSearchTypeNameERKNSt7__cxx1112basic_stringIcSt11char_traitsIcESaIcEEE
libeiskaltdcpp.so.2.4:_ZNK4dcpp15SettingsManager7getTypeEPKcRiRNS0_5TypesE
libeiskaltdcpp.so.2.4:_ZNK4dcpp15SimpleXMLReader6charAtEm
libeiskaltdcpp.so.2.4:_ZNK4dcpp15SimpleXMLReader7bufSizeEv
libeiskaltdcpp.so.2.4:_ZNK4dcpp15SimpleXMLReader9needCharsEm
libeiskaltdcpp.so.2.4:_ZNK4dcpp16DirectoryListing13getLocalPathsB5cxx11EPKNS0_4FileE
libeiskaltdcpp.so.2.4:_ZNK4dcpp16DirectoryListing13getLocalPathsB5cxx11EPKNS0_9DirectoryE
libeiskaltdcpp.so.2.4:_ZNK4dcpp16DirectoryListing4findERKNSt7__cxx1112basic_stringIcSt11char_traitsIcESaIcEEEPNS0_9DirectoryE
libeiskaltdcpp.so.2.4:_ZNK4dcpp16DirectoryListing7getPathB5cxx11EPKNS0_9DirectoryE
libeiskaltdcpp.so.2.4:_ZNK4dcpp16FinishedFileItem24getTransferredPercentageEv
libeiskaltdcpp.so.2.4:_ZNK4dcpp16FinishedFileItem6isFullEv
libeiskaltdcpp.so.2.4:_ZNK4dcpp16FinishedItemBase15getAverageSpeedEv
libeiskaltdcpp.so.2.4:_ZNK4dcpp17ConnectionManager13getSecurePortB5cxx11Ev
libeiskaltdcpp.so.2.4:_ZNK4dcpp17ConnectionManager7getPortB5cxx11Ev
libeiskaltdcpp.so.2.4:_ZNK4dcpp4UPnP8hasRulesEv
libeiskaltdcpp.so.2.4:_ZNK4dcpp6AdcHub12getAvailableEv
libeiskaltdcpp.so.2.4:_ZNK4dcpp6AdcHub8findUserERKNS_3CIDE
libeiskaltdcpp.so.2.4:_ZNK4dcpp6AdcHub8findUserEj
libeiskaltdcpp.so.2.4:_ZNK4dcpp6Client10getLocalIpB5cxx11Ev
libeiskaltdcpp.so.2.4:_ZNK4dcpp6Client11getKeyprintEv
libeiskaltdcpp.so.2.4:_ZNK4dcpp6Client13getCipherNameB5cxx11Ev
libeiskaltdcpp.so.2.4:_ZNK4dcpp6Client8isActiveEv
libeiskaltdcpp.so.2.4:_ZNK4dcpp6Client8isSecureEv
libeiskaltdcpp.so.2.4:_ZNK4dcpp6Client9isTrustedEv
libeiskaltdcpp.so.2.4:_ZNK4dcpp7NmdcHub12getAvailableEv
libeiskaltdcpp.so.2.4:_ZNK4dcpp8Download17getDownloadTargetB5cxx11Ev
libeiskaltdcpp.so.2.4:_ZNK4dcpp8Download17getTargetFileNameB5cxx11Ev
libeiskaltdcpp.so.2.4:_ZNK4dcpp8Identity11isTcpActiveEPKNS_6ClientE
libeiskaltdcpp.so.2.4:_ZNK4dcpp8Identity11isUdpActiveEv
libeiskaltdcpp.so.2.4:_ZNK4dcpp8Identity12isClientTypeENS0_10ClientTypeE
libeiskaltdcpp.so.2.4:_ZNK4dcpp8Identity14getApplicationB5cxx11Ev
libeiskaltdcpp.so.2.4:_ZNK4dcpp8Identity3getB5cxx11EPKc
libeiskaltdcpp.so.2.4:_ZNK4dcpp8Identity5isSetEPKc
libeiskaltdcpp.so.2.4:_ZNK4dcpp8Identity6getTagB5cxx11Ev
libeiskaltdcpp.so.2.4:_ZNK4dcpp8Identity6isSelfEv
libeiskaltdcpp.so.2.4:_ZNK4dcpp8Identity6noChatEv
libeiskaltdcpp.so.2.4:_ZNK4dcpp8Identity7getInfoB5cxx11Ev
libeiskaltdcpp.so.2.4:_ZNK4dcpp8Identity8supportsERKNSt7__cxx1112basic_stringIcSt11char_traitsIcESaIcEEE
libeiskaltdcpp.so.2.4:_ZNK4dcpp8Identity9getParamsERSt13unordered_mapINSt7__cxx1112basic_stringIcSt11char_traitsIcESaIcEEES7_St4hashIS7_ESt8equal_toIS7_ESaISt4pairIKS7_S7_EEERSD_bb
libeiskaltdcpp.so.2.4:_ZNK4dcpp8Transfer13getHintedUserEv
libeiskaltdcpp.so.2.4:_ZNK4dcpp8Transfer15getAverageSpeedEv
libeiskaltdcpp.so.2.4:_ZNK4dcpp8Transfer7getUserEv
libeiskaltdcpp.so.2.4:_ZNK4dcpp9HashBloom3posERKNS_9HashValueINS_9TigerHashEEEm
libeiskaltdcpp.so.2.4:_ZNK4dcpp9HashBloom5matchERKNS_9HashValueINS_9TigerHashEEE
libeiskaltdcpp.so.2.4:_ZNK4dcpp9HashBloom7copy_toERSt6vectorIhSaIhEE
libeiskaltdcpp.so.2.4:_ZNK4dcpp9QueueItem11getListNameB5cxx11Ev
libeiskaltdcpp.so.2.4:_ZNK4dcpp9QueueItem12isNeededPartERKSt6vectorItSaItEEl
libeiskaltdcpp.so.2.4:_ZNK4dcpp9QueueItem14getNextSegmentElllNS_13intrusive_ptrINS0_13PartialSourceEEE
libeiskaltdcpp.so.2.4:_ZNK4dcpp9QueueItem14getOnlineUsersERSt6vectorINS_10HintedUserESaIS2_EE
libeiskaltdcpp.so.2.4:_ZNK4dcpp9QueueItem14getPartialInfoERSt6vectorItSaItEEl
libeiskaltdcpp.so.2.4:_ZNK4dcpp9QueueItem16countOnlineUsersEv
libeiskaltdcpp.so.2.4:_ZNK4dcpp9QueueItem18getDownloadedBytesEv
libeiskaltdcpp.so.2.4:_ZNK4dcpp9SSLSocket11getKeyprintEv
libeiskaltdcpp.so.2.4:_ZNK4dcpp9SSLSocket13getCipherNameB5cxx11Ev
libeiskaltdcpp.so.2.4:_ZNK4dcpp9SSLSocket9isTrustedEv
libeiskaltdcpp.so.2.4:_ZThn1024_N4dcpp6AdcHubD0Ev
libeiskaltdcpp.so.2.4:_ZThn1024_N4dcpp6AdcHubD1Ev
libeiskaltdcpp.so.2.4:_ZThn1032_N4dcpp7NmdcHubD0Ev
libeiskaltdcpp.so.2.4:_ZThn1032_N4dcpp7NmdcHubD1Ev
libeiskaltdcpp.so.2.4:_ZThn104_N3dht3DHT14privateMessageERKN4dcpp10OnlineUserERKNSt7__cxx1112basic_stringIcSt11char_traitsIcESaIcEEEb
libeiskaltdcpp.so.2.4:_ZThn104_N3dht3DHT7connectERKN4dcpp10OnlineUserERKNSt7__cxx1112basic_stringIcSt11char_traitsIcESaIcEEE
libeiskaltdcpp.so.2.4:_ZThn104_N4dcpp11HashManager2onENS_20TimerManagerListener1XILi0EEEm
libeiskaltdcpp.so.2.4:_ZThn104_N4dcpp12QueueManager2onENS_20TimerManagerListener1XILi0EEEm
libeiskaltdcpp.so.2.4:_ZThn104_N4dcpp12QueueManager2onENS_20TimerManagerListener1XILi1EEEm
libeiskaltdcpp.so.2.4:_ZThn104_N4dcpp12QueueManagerD0Ev
libeiskaltdcpp.so.2.4:_ZThn104_N4dcpp12QueueManagerD1Ev
libeiskaltdcpp.so.2.4:_ZThn104_N4dcpp12TimerManager3runEv
libeiskaltdcpp.so.2.4:_ZThn104_N4dcpp12TimerManagerD0Ev
libeiskaltdcpp.so.2.4:_ZThn104_N4dcpp12TimerManagerD1Ev
libeiskaltdcpp.so.2.4:_ZThn104_N4dcpp13ClientManagerD0Ev
libeiskaltdcpp.so.2.4:_ZThn104_N4dcpp13ClientManagerD1Ev
libeiskaltdcpp.so.2.4:_ZThn104_N4dcpp13SearchManager3runEv
libeiskaltdcpp.so.2.4:_ZThn104_N4dcpp13SearchManagerD0Ev
libeiskaltdcpp.so.2.4:_ZThn104_N4dcpp13SearchManagerD1Ev
libeiskaltdcpp.so.2.4:_ZThn104_N4dcpp15DownloadManager2onENS_20TimerManagerListener1XILi0EEEm
libeiskaltdcpp.so.2.4:_ZThn104_N4dcpp15DownloadManagerD0Ev
libeiskaltdcpp.so.2.4:_ZThn104_N4dcpp15DownloadManagerD1Ev
libeiskaltdcpp.so.2.4:_ZThn104_N4dcpp15FavoriteManagerD0Ev
libeiskaltdcpp.so.2.4:_ZThn104_N4dcpp15FavoriteManagerD1Ev
libeiskaltdcpp.so.2.4:_ZThn104_N4dcpp15FinishedManager2onENS_23DownloadManagerListener1XILi0EEEPNS_8DownloadE
libeiskaltdcpp.so.2.4:_ZThn104_N4dcpp15FinishedManager2onENS_23DownloadManagerListener1XILi1EEEPNS_8DownloadERKNSt7__cxx1112basic_stringIcSt11char_traitsIcESaIcEEE
libeiskaltdcpp.so.2.4:_ZThn104_N4dcpp15FinishedManagerD0Ev
libeiskaltdcpp.so.2.4:_ZThn104_N4dcpp15FinishedManagerD1Ev
libeiskaltdcpp.so.2.4:_ZThn104_N4dcpp17ConnectionManager2onENS_20TimerManagerListener1XILi0EEEm
libeiskaltdcpp.so.2.4:_ZThn104_N4dcpp17ConnectionManager2onENS_20TimerManagerListener1XILi1EEEm
libeiskaltdcpp.so.2.4:_ZThn112_N4dcpp12QueueManager2onENS_21SearchManagerListener1XILi0EEERKNS_13intrusive_ptrINS_12SearchResultEEE
libeiskaltdcpp.so.2.4:_ZThn112_N4dcpp12QueueManagerD0Ev
libeiskaltdcpp.so.2.4:_ZThn112_N4dcpp12QueueManagerD1Ev
libeiskaltdcpp.so.2.4:_ZThn112_N4dcpp13ClientManager2onENS_20TimerManagerListener1XILi1EEEm
libeiskaltdcpp.so.2.4:_ZThn112_N4dcpp13ClientManagerD0Ev
libeiskaltdcpp.so.2.4:_ZThn112_N4dcpp13ClientManagerD1Ev
libeiskaltdcpp.so.2.4:_ZThn112_N4dcpp13ScriptManager2onENS_21ClientManagerListener1XILi4EEEPNS_6ClientE
libeiskaltdcpp.so.2.4:_ZThn112_N4dcpp13ScriptManager2onENS_21ClientManagerListener1XILi6EEEPNS_6ClientE
libeiskaltdcpp.so.2.4:_ZThn112_N4dcpp13UploadManager2onENS_20TimerManagerListener1XILi0EEEm
libeiskaltdcpp.so.2.4:_ZThn112_N4dcpp13UploadManager2onENS_20TimerManagerListener1XILi1EEEm
libeiskaltdcpp.so.2.4:_ZThn112_N4dcpp13UploadManagerD0Ev
libeiskaltdcpp.so.2.4:_ZThn112_N4dcpp13UploadManagerD1Ev
libeiskaltdcpp.so.2.4:_ZThn112_N4dcpp15DownloadManagerD0Ev
libeiskaltdcpp.so.2.4:_ZThn112_N4dcpp15DownloadManagerD1Ev
libeiskaltdcpp.so.2.4:_ZThn112_N4dcpp15FavoriteManagerD0Ev
libeiskaltdcpp.so.2.4:_ZThn112_N4dcpp15FavoriteManagerD1Ev
libeiskaltdcpp.so.2.4:_ZThn112_N4dcpp15FinishedManager2onENS_21UploadManagerListener1XILi0EEEPNS_6UploadE
libeiskaltdcpp.so.2.4:_ZThn112_N4dcpp15FinishedManager2onENS_21UploadManagerListener1XILi1EEEPNS_6UploadERKNSt7__cxx1112basic_stringIcSt11char_traitsIcESaIcEEE
libeiskaltdcpp.so.2.4:_ZThn112_N4dcpp15FinishedManagerD0Ev
libeiskaltdcpp.so.2.4:_ZThn112_N4dcpp15FinishedManagerD1Ev
libeiskaltdcpp.so.2.4:_ZThn112_N4dcpp6AdcHub2onENS_22BufferedSocketListener1XILi1EEE
libeiskaltdcpp.so.2.4:_ZThn112_N4dcpp6AdcHub2onENS_22BufferedSocketListener1XILi2EEERKNSt7__cxx1112basic_stringIcSt11char_traitsIcESaIcEEE
libeiskaltdcpp.so.2.4:_ZThn112_N4dcpp6AdcHub2onENS_22BufferedSocketListener1XILi7EEERKNSt7__cxx1112basic_stringIcSt11char_traitsIcESaIcEEE
libeiskaltdcpp.so.2.4:_ZThn112_N4dcpp6AdcHubD0Ev
libeiskaltdcpp.so.2.4:_ZThn112_N4dcpp6AdcHubD1Ev
libeiskaltdcpp.so.2.4:_ZThn112_N4dcpp6Client2onENS_22BufferedSocketListener1XILi1EEE
libeiskaltdcpp.so.2.4:_ZThn112_N4dcpp6Client2onENS_22BufferedSocketListener1XILi2EEERKNSt7__cxx1112basic_stringIcSt11char_traitsIcESaIcEEE
libeiskaltdcpp.so.2.4:_ZThn112_N4dcpp6Client2onENS_22BufferedSocketListener1XILi7EEERKNSt7__cxx1112basic_stringIcSt11char_traitsIcESaIcEEE
libeiskaltdcpp.so.2.4:_ZThn112_N4dcpp6ClientD0Ev
libeiskaltdcpp.so.2.4:_ZThn112_N4dcpp6ClientD1Ev
libeiskaltdcpp.so.2.4:_ZThn112_N4dcpp7NmdcHub2onENS_22BufferedSocketListener1XILi1EEE
libeiskaltdcpp.so.2.4:_ZThn112_N4dcpp7NmdcHub2onENS_22BufferedSocketListener1XILi2EEERKNSt7__cxx1112basic_stringIcSt11char_traitsIcESaIcEEE
libeiskaltdcpp.so.2.4:_ZThn112_N4dcpp7NmdcHub2onENS_22BufferedSocketListener1XILi7EEERKNSt7__cxx1112basic_stringIcSt11char_traitsIcESaIcEEE
libeiskaltdcpp.so.2.4:_ZThn112_N4dcpp7NmdcHubD0Ev
libeiskaltdcpp.so.2.4:_ZThn112_N4dcpp7NmdcHubD1Ev
libeiskaltdcpp.so.2.4:_ZThn120_N4dcpp12QueueManager2onENS_21ClientManagerListener1XILi0EEERKNS_13intrusive_ptrINS_4UserEEE
libeiskaltdcpp.so.2.4:_ZThn120_N4dcpp12QueueManager2onENS_21ClientManagerListener1XILi2EEERKNS_13intrusive_ptrINS_4UserEEE
libeiskaltdcpp.so.2.4:_ZThn120_N4dcpp12QueueManagerD0Ev
libeiskaltdcpp.so.2.4:_ZThn120_N4dcpp12QueueManagerD1Ev
libeiskaltdcpp.so.2.4:_ZThn120_N4dcpp13ScriptManager2onENS_20TimerManagerListener1XILi0EEEm
libeiskaltdcpp.so.2.4:_ZThn120_N4dcpp13UploadManagerD0Ev
libeiskaltdcpp.so.2.4:_ZThn120_N4dcpp13UploadManagerD1Ev
libeiskaltdcpp.so.2.4:_ZThn120_N4dcpp15FavoriteManager2onENS_21ClientManagerListener1XILi0EEERKNS_13intrusive_ptrINS_4UserEEE
libeiskaltdcpp.so.2.4:_ZThn120_N4dcpp15FavoriteManager2onENS_21ClientManagerListener1XILi1EEERKNS_10OnlineUserE
libeiskaltdcpp.so.2.4:_ZThn120_N4dcpp15FavoriteManager2onENS_21ClientManagerListener1XILi2EEERKNS_13intrusive_ptrINS_4UserEEE
libeiskaltdcpp.so.2.4:_ZThn120_N4dcpp15FavoriteManagerD0Ev
libeiskaltdcpp.so.2.4:_ZThn120_N4dcpp15FavoriteManagerD1Ev
libeiskaltdcpp.so.2.4:_ZThn120_N4dcpp15FinishedManager2onENS_20QueueManagerListener1XILi17EEEPNS_8DownloadE
libeiskaltdcpp.so.2.4:_ZThn120_N4dcpp15FinishedManagerD0Ev
libeiskaltdcpp.so.2.4:_ZThn120_N4dcpp15FinishedManagerD1Ev
libeiskaltdcpp.so.2.4:_ZThn120_N4dcpp6AdcHub2onENS_20TimerManagerListener1XILi0EEEm
libeiskaltdcpp.so.2.4:_ZThn120_N4dcpp6AdcHubD0Ev
libeiskaltdcpp.so.2.4:_ZThn120_N4dcpp6AdcHubD1Ev
libeiskaltdcpp.so.2.4:_ZThn120_N4dcpp6Client2onENS_20TimerManagerListener1XILi0EEEm
libeiskaltdcpp.so.2.4:_ZThn120_N4dcpp6ClientD0Ev
libeiskaltdcpp.so.2.4:_ZThn120_N4dcpp6ClientD1Ev
libeiskaltdcpp.so.2.4:_ZThn120_N4dcpp7NmdcHub2onENS_20TimerManagerListener1XILi0EEEm
libeiskaltdcpp.so.2.4:_ZThn120_N4dcpp7NmdcHubD0Ev
libeiskaltdcpp.so.2.4:_ZThn120_N4dcpp7NmdcHubD1Ev
libeiskaltdcpp.so.2.4:_ZThn128_N4dcpp6AdcHubD0Ev
libeiskaltdcpp.so.2.4:_ZThn128_N4dcpp6AdcHubD1Ev
libeiskaltdcpp.so.2.4:_ZThn128_N4dcpp6ClientD0Ev
libeiskaltdcpp.so.2.4:_ZThn128_N4dcpp6ClientD1Ev
libeiskaltdcpp.so.2.4:_ZThn128_N4dcpp7NmdcHubD0Ev
libeiskaltdcpp.so.2.4:_ZThn128_N4dcpp7NmdcHubD1Ev
libeiskaltdcpp.so.2.4:_ZThn16_N4dcpp12ShareManager3runEv
libeiskaltdcpp.so.2.4:_ZThn16_N4dcpp12ShareManagerD0Ev
libeiskaltdcpp.so.2.4:_ZThn16_N4dcpp12ShareManagerD1Ev
libeiskaltdcpp.so.2.4:_ZThn16_N4dcpp13UploadManagerD0Ev
libeiskaltdcpp.so.2.4:_ZThn16_N4dcpp13UploadManagerD1Ev
libeiskaltdcpp.so.2.4:_ZThn16_N4dcpp6AdcHubD0Ev
libeiskaltdcpp.so.2.4:_ZThn16_N4dcpp6AdcHubD1Ev
libeiskaltdcpp.so.2.4:_ZThn16_N4dcpp6ClientD0Ev
libeiskaltdcpp.so.2.4:_ZThn16_N4dcpp6ClientD1Ev
libeiskaltdcpp.so.2.4:_ZThn16_N4dcpp7NmdcHubD0Ev
libeiskaltdcpp.so.2.4:_ZThn16_N4dcpp7NmdcHubD1Ev
libeiskaltdcpp.so.2.4:_ZThn32_N4dcpp12ShareManager2onENS_20TimerManagerListener1XILi1EEEm
libeiskaltdcpp.so.2.4:_ZThn32_N4dcpp12ShareManagerD0Ev
libeiskaltdcpp.so.2.4:_ZThn32_N4dcpp12ShareManagerD1Ev
libeiskaltdcpp.so.2.4:_ZThn40_N4dcpp12ShareManager2onENS_19HashManagerListener1XILi0EEERKNSt7__cxx1112basic_stringIcSt11char_traitsIcESaIcEEERKNS_9HashValueINS_9TigerHashEEE
libeiskaltdcpp.so.2.4:_ZThn40_N4dcpp12ShareManagerD0Ev
libeiskaltdcpp.so.2.4:_ZThn40_N4dcpp12ShareManagerD1Ev
libeiskaltdcpp.so.2.4:_ZThn48_N4dcpp12ShareManager2onENS_20QueueManagerListener1XILi15EEERKNSt7__cxx1112basic_stringIcSt11char_traitsIcESaIcEEE
libeiskaltdcpp.so.2.4:_ZThn48_N4dcpp12ShareManagerD0Ev
libeiskaltdcpp.so.2.4:_ZThn48_N4dcpp12ShareManagerD1Ev
libeiskaltdcpp.so.2.4:_ZThn8_N3dht11TaskManager2onEN4dcpp20TimerManagerListener1XILi0EEEm
libeiskaltdcpp.so.2.4:_ZThn8_N3dht11TaskManager2onEN4dcpp20TimerManagerListener1XILi1EEEm
libeiskaltdcpp.so.2.4:_ZThn8_N3dht11TaskManagerD0Ev
libeiskaltdcpp.so.2.4:_ZThn8_N3dht11TaskManagerD1Ev
libeiskaltdcpp.so.2.4:_ZThn8_N3dht16BootstrapManager2onEN4dcpp22HttpConnectionListener1XILi0EEEPNS1_14HttpConnectionEPKhm
libeiskaltdcpp.so.2.4:_ZThn8_N3dht16BootstrapManager2onEN4dcpp22HttpConnectionListener1XILi1EEEPNS1_14HttpConnectionERKNSt7__cxx1112basic_stringIcSt11char_traitsIcESaIcEEE
libeiskaltdcpp.so.2.4:_ZThn8_N3dht16BootstrapManager2onEN4dcpp22HttpConnectionListener1XILi2EEEPNS1_14HttpConnectionERKNSt7__cxx1112basic_stringIcSt11char_traitsIcESaIcEEE
libeiskaltdcpp.so.2.4:_ZThn8_N3dht16BootstrapManagerD0Ev
libeiskaltdcpp.so.2.4:_ZThn8_N3dht16BootstrapManagerD1Ev
libeiskaltdcpp.so.2.4:_ZThn8_N3dht3DHTD0Ev
libeiskaltdcpp.so.2.4:_ZThn8_N3dht3DHTD1Ev
libeiskaltdcpp.so.2.4:_ZThn8_N4dcpp10LogManagerD0Ev
libeiskaltdcpp.so.2.4:_ZThn8_N4dcpp10LogManagerD1Ev
libeiskaltdcpp.so.2.4:_ZThn8_N4dcpp12QueueManagerD0Ev
libeiskaltdcpp.so.2.4:_ZThn8_N4dcpp12QueueManagerD1Ev
libeiskaltdcpp.so.2.4:_ZThn8_N4dcpp12ShareManagerD0Ev
libeiskaltdcpp.so.2.4:_ZThn8_N4dcpp12ShareManagerD1Ev
libeiskaltdcpp.so.2.4:_ZThn8_N4dcpp13UploadManager2onENS_10AdcCommand4TypeILj4802119EEEPNS_14UserConnectionERKS1_
libeiskaltdcpp.so.2.4:_ZThn8_N4dcpp13UploadManager2onENS_10AdcCommand4TypeILj5522759EEEPNS_14UserConnectionERKS1_
libeiskaltdcpp.so.2.4:_ZThn8_N4dcpp13UploadManager2onENS_22UserConnectionListener1XILi0EEEPNS_14UserConnectionEmm
libeiskaltdcpp.so.2.4:_ZThn8_N4dcpp13UploadManager2onENS_22UserConnectionListener1XILi12EEEPNS_14UserConnectionE
libeiskaltdcpp.so.2.4:_ZThn8_N4dcpp13UploadManager2onENS_22UserConnectionListener1XILi13EEEPNS_14UserConnectionE
libeiskaltdcpp.so.2.4:_ZThn8_N4dcpp13UploadManager2onENS_22UserConnectionListener1XILi17EEEPNS_14UserConnectionE
libeiskaltdcpp.so.2.4:_ZThn8_N4dcpp13UploadManager2onENS_22UserConnectionListener1XILi3EEEPNS_14UserConnectionERKNSt7__cxx1112basic_stringIcSt11char_traitsIcESaIcEEE
libeiskaltdcpp.so.2.4:_ZThn8_N4dcpp13UploadManager2onENS_22UserConnectionListener1XILi7EEEPNS_14UserConnectionERKNSt7__cxx1112basic_stringIcSt11char_traitsIcESaIcEEEl
libeiskaltdcpp.so.2.4:_ZThn8_N4dcpp13UploadManagerD0Ev
libeiskaltdcpp.so.2.4:_ZThn8_N4dcpp13UploadManagerD1Ev
libeiskaltdcpp.so.2.4:_ZThn8_N4dcpp14HttpConnectionD0Ev
libeiskaltdcpp.so.2.4:_ZThn8_N4dcpp14HttpConnectionD1Ev
libeiskaltdcpp.so.2.4:_ZThn8_N4dcpp14MappingManager3runEv
libeiskaltdcpp.so.2.4:_ZThn8_N4dcpp15FinishedManagerD0Ev
libeiskaltdcpp.so.2.4:_ZThn8_N4dcpp15FinishedManagerD1Ev
libeiskaltdcpp.so.2.4:_ZThn8_N4dcpp15ThrottleManager2onENS_20TimerManagerListener1XILi0EEEm
libeiskaltdcpp.so.2.4:_ZThn8_N4dcpp15ThrottleManagerD0Ev
libeiskaltdcpp.so.2.4:_ZThn8_N4dcpp15ThrottleManagerD1Ev
libeiskaltdcpp.so.2.4:_ZThn8_N4dcpp4File5flushEv
libeiskaltdcpp.so.2.4:_ZThn8_N4dcpp4File5writeEPKvm
libeiskaltdcpp.so.2.4:_ZThn8_N4dcpp6DynDNS2onENS_22HttpConnectionListener1XILi0EEEPNS_14HttpConnectionEPKhm
libeiskaltdcpp.so.2.4:_ZThn8_N4dcpp6DynDNS2onENS_22HttpConnectionListener1XILi1EEEPNS_14HttpConnectionERKNSt7__cxx1112basic_stringIcSt11char_traitsIcESaIcEEE
libeiskaltdcpp.so.2.4:_ZThn8_N4dcpp6DynDNS2onENS_22HttpConnectionListener1XILi2EEEPNS_14HttpConnectionERKNSt7__cxx1112basic_stringIcSt11char_traitsIcESaIcEEE
libeiskaltdcpp.so.2.4:_ZThn8_N4dcpp6DynDNSD0Ev
libeiskaltdcpp.so.2.4:_ZThn8_N4dcpp6DynDNSD1Ev
libeiskaltdcpp.so.2.4:_ZThn96_N4dcpp12TimerManagerD0Ev
libeiskaltdcpp.so.2.4:_ZThn96_N4dcpp12TimerManagerD1Ev
libeiskaltdcpp.so.2.4:_ZThn96_N4dcpp13ClientManager2onENS_14ClientListener1XILi13EEEPNS_6ClientEiiRKNSt7__cxx1112basic_stringIcSt11char_traitsIcESaIcEEESD_
libeiskaltdcpp.so.2.4:_ZThn96_N4dcpp13ClientManager2onENS_14ClientListener1XILi17EEEPNS_6ClientERKNSt7__cxx1112basic_stringIcSt11char_traitsIcESaIcEEEiliSD_
libeiskaltdcpp.so.2.4:_ZThn96_N4dcpp13ClientManager2onENS_14ClientListener1XILi18EEEPNS_6ClientERKNS_10AdcCommandERKNS_3CIDE
libeiskaltdcpp.so.2.4:_ZThn96_N4dcpp13ClientManager2onENS_14ClientListener1XILi1EEEPNS_6ClientE
libeiskaltdcpp.so.2.4:_ZThn96_N4dcpp13ClientManager2onENS_14ClientListener1XILi3EEEPNS_6ClientERKNS_10OnlineUserE
libeiskaltdcpp.so.2.4:_ZThn96_N4dcpp13ClientManager2onENS_14ClientListener1XILi4EEEPNS_6ClientERKSt6vectorIPNS_10OnlineUserESaIS8_EE
libeiskaltdcpp.so.2.4:_ZThn96_N4dcpp13ClientManager2onENS_14ClientListener1XILi7EEEPNS_6ClientERKNSt7__cxx1112basic_stringIcSt11char_traitsIcESaIcEEE
libeiskaltdcpp.so.2.4:_ZThn96_N4dcpp13ClientManager2onENS_14ClientListener1XILi9EEEPNS_6ClientE
libeiskaltdcpp.so.2.4:_ZThn96_N4dcpp13ClientManagerD0Ev
libeiskaltdcpp.so.2.4:_ZThn96_N4dcpp13ClientManagerD1Ev
libeiskaltdcpp.so.2.4:_ZThn96_N4dcpp13SearchManagerD0Ev
libeiskaltdcpp.so.2.4:_ZThn96_N4dcpp13SearchManagerD1Ev
libeiskaltdcpp.so.2.4:_ZThn96_N4dcpp14BufferedSocket3runEv
libeiskaltdcpp.so.2.4:_ZThn96_N4dcpp14BufferedSocketD0Ev
libeiskaltdcpp.so.2.4:_ZThn96_N4dcpp14BufferedSocketD1Ev
libeiskaltdcpp.so.2.4:_ZThn96_N4dcpp14UserConnection2onENS_22BufferedSocketListener1XILi1EEE
libeiskaltdcpp.so.2.4:_ZThn96_N4dcpp14UserConnection2onENS_22BufferedSocketListener1XILi2EEERKNSt7__cxx1112basic_stringIcSt11char_traitsIcESaIcEEE
libeiskaltdcpp.so.2.4:_ZThn96_N4dcpp14UserConnection2onENS_22BufferedSocketListener1XILi3EEEPhm
libeiskaltdcpp.so.2.4:_ZThn96_N4dcpp14UserConnection2onENS_22BufferedSocketListener1XILi4EEEmm
libeiskaltdcpp.so.2.4:_ZThn96_N4dcpp14UserConnection2onENS_22BufferedSocketListener1XILi5EEE
libeiskaltdcpp.so.2.4:_ZThn96_N4dcpp14UserConnection2onENS_22BufferedSocketListener1XILi6EEE
libeiskaltdcpp.so.2.4:_ZThn96_N4dcpp14UserConnection2onENS_22BufferedSocketListener1XILi7EEERKNSt7__cxx1112basic_stringIcSt11char_traitsIcESaIcEEE
libeiskaltdcpp.so.2.4:_ZThn96_N4dcpp14UserConnection2onENS_22BufferedSocketListener1XILi8EEE
libeiskaltdcpp.so.2.4:_ZThn96_N4dcpp15DownloadManager2onENS_10AdcCommand4TypeILj4281427EEEPNS_14UserConnectionERKS1_
libeiskaltdcpp.so.2.4:_ZThn96_N4dcpp15DownloadManager2onENS_10AdcCommand4TypeILj4476499EEEPNS_14UserConnectionERKS1_
libeiskaltdcpp.so.2.4:_ZThn96_N4dcpp15DownloadManager2onENS_22UserConnectionListener1XILi14EEEPNS_14UserConnectionE
libeiskaltdcpp.so.2.4:_ZThn96_N4dcpp15DownloadManager2onENS_22UserConnectionListener1XILi20EEEPNS_14UserConnectionE
libeiskaltdcpp.so.2.4:_ZThn96_N4dcpp15DownloadManager2onENS_22UserConnectionListener1XILi2EEEPNS_14UserConnectionEPKhm
libeiskaltdcpp.so.2.4:_ZThn96_N4dcpp15DownloadManager2onENS_22UserConnectionListener1XILi8EEEPNS_14UserConnectionE
libeiskaltdcpp.so.2.4:_ZThn96_N4dcpp15DownloadManagerD0Ev
libeiskaltdcpp.so.2.4:_ZThn96_N4dcpp15DownloadManagerD1Ev
libeiskaltdcpp.so.2.4:_ZThn96_N4dcpp15FavoriteManager2onENS_22HttpConnectionListener1XILi0EEEPNS_14HttpConnectionEPKhm
libeiskaltdcpp.so.2.4:_ZThn96_N4dcpp15FavoriteManager2onENS_22HttpConnectionListener1XILi1EEEPNS_14HttpConnectionERKNSt7__cxx1112basic_stringIcSt11char_traitsIcESaIcEEE
libeiskaltdcpp.so.2.4:_ZThn96_N4dcpp15FavoriteManager2onENS_22HttpConnectionListener1XILi2EEEPNS_14HttpConnectionERKNSt7__cxx1112basic_stringIcSt11char_traitsIcESaIcEEE
libeiskaltdcpp.so.2.4:_ZThn96_N4dcpp15FavoriteManager2onENS_22HttpConnectionListener1XILi3EEEPNS_14HttpConnectionERKNSt7__cxx1112basic_stringIcSt11char_traitsIcESaIcEEE
libeiskaltdcpp.so.2.4:_ZThn96_N4dcpp15FavoriteManager2onENS_22HttpConnectionListener1XILi4EEEPNS_14HttpConnectionE
libeiskaltdcpp.so.2.4:_ZThn96_N4dcpp15FavoriteManager2onENS_22HttpConnectionListener1XILi5EEEPNS_14HttpConnectionE
libeiskaltdcpp.so.2.4:_ZThn96_N4dcpp15FavoriteManager2onENS_22HttpConnectionListener1XILi6EEEPNS_14HttpConnectionEb
libeiskaltdcpp.so.2.4:_ZThn96_N4dcpp15FavoriteManagerD0Ev
libeiskaltdcpp.so.2.4:_ZThn96_N4dcpp15FavoriteManagerD1Ev
libeiskaltdcpp.so.2.4:_ZThn96_N4dcpp17ConnectionManager2onENS_10AdcCommand4TypeILj4281427EEEPNS_14UserConnectionERKS1_
libeiskaltdcpp.so.2.4:_ZThn96_N4dcpp17ConnectionManager2onENS_10AdcCommand4TypeILj4607561EEEPNS_14UserConnectionERKS1_
libeiskaltdcpp.so.2.4:_ZThn96_N4dcpp17ConnectionManager2onENS_10AdcCommand4TypeILj5264723EEEPNS_14UserConnectionERKS1_
libeiskaltdcpp.so.2.4:_ZThn96_N4dcpp17ConnectionManager2onENS_22UserConnectionListener1XILi16EEEPNS_14UserConnectionERKNSt7__cxx1112basic_stringIcSt11char_traitsIcESaIcEEE
libeiskaltdcpp.so.2.4:_ZThn96_N4dcpp17ConnectionManager2onENS_22UserConnectionListener1XILi18EEEPNS_14UserConnectionERKSt6vectorINSt7__cxx1112basic_stringIcSt11char_traitsIcESaIcEEESaISC_EE
libeiskaltdcpp.so.2.4:_ZThn96_N4dcpp17ConnectionManager2onENS_22UserConnectionListener1XILi19EEEPNS_14UserConnectionERKNSt7__cxx1112basic_stringIcSt11char_traitsIcESaIcEEE
libeiskaltdcpp.so.2.4:_ZThn96_N4dcpp17ConnectionManager2onENS_22UserConnectionListener1XILi1EEEPNS_14UserConnectionE
libeiskaltdcpp.so.2.4:_ZThn96_N4dcpp17ConnectionManager2onENS_22UserConnectionListener1XILi3EEEPNS_14UserConnectionERKNSt7__cxx1112basic_stringIcSt11char_traitsIcESaIcEEE
libeiskaltdcpp.so.2.4:_ZThn96_N4dcpp17ConnectionManager2onENS_22UserConnectionListener1XILi4EEEPNS_14UserConnectionERKNSt7__cxx1112basic_stringIcSt11char_traitsIcESaIcEEESD_
libeiskaltdcpp.so.2.4:_ZThn96_N4dcpp17ConnectionManager2onENS_22UserConnectionListener1XILi5EEEPNS_14UserConnectionERKNSt7__cxx1112basic_stringIcSt11char_traitsIcESaIcEEE
libeiskaltdcpp.so.2.4:_ZThn96_N4dcpp17ConnectionManager2onENS_22UserConnectionListener1XILi6EEEPNS_14UserConnectionERKNSt7__cxx1112basic_stringIcSt11char_traitsIcESaIcEEESD_
libeiskaltdcpp.so.2.4:__bss_start
libeiskaltdcpp.so.2.4:_edata
libeiskaltdcpp.so.2.4:_end
libeiskaltdcpp.so.2.4:bz_internal_error
