kcm_fcitx5.so:qt_plugin_instance
kcm_fcitx5.so:qt_plugin_query_metadata_v2
libFcitx5Migrator.so.1:_ZN5fcitx10DBusCaller11qt_metacallEN11QMetaObject4CallEiPPv
libFcitx5Migrator.so.1:_ZN5fcitx10DBusCaller11qt_metacastEPKc
libFcitx5Migrator.so.1:_ZN5fcitx10DBusCaller16staticMetaObjectE
libFcitx5Migrator.so.1:_ZN5fcitx10DBusCaller5abortEv
libFcitx5Migrator.so.1:_ZN5fcitx10DBusCaller5startEv
libFcitx5Migrator.so.1:_ZN5fcitx10DBusCaller7cleanUpEv
libFcitx5Migrator.so.1:_ZN5fcitx10DBusCallerC1ESt8functionIFP23QDBusPendingCallWatchervEERK7QStringS8_P7QObject
libFcitx5Migrator.so.1:_ZN5fcitx10DBusCallerC2ESt8functionIFP23QDBusPendingCallWatchervEERK7QStringS8_P7QObject
libFcitx5Migrator.so.1:_ZN5fcitx10RenameFile11qt_metacallEN11QMetaObject4CallEiPPv
libFcitx5Migrator.so.1:_ZN5fcitx10RenameFile11qt_metacastEPKc
libFcitx5Migrator.so.1:_ZN5fcitx10RenameFile12emitFinishedEb
libFcitx5Migrator.so.1:_ZN5fcitx10RenameFile16staticMetaObjectE
libFcitx5Migrator.so.1:_ZN5fcitx10RenameFile5abortEv
libFcitx5Migrator.so.1:_ZN5fcitx10RenameFile5startEv
libFcitx5Migrator.so.1:_ZN5fcitx10RenameFile7cleanUpEv
libFcitx5Migrator.so.1:_ZN5fcitx10RenameFileC1ERK7QStringS3_P7QObject
libFcitx5Migrator.so.1:_ZN5fcitx10RenameFileC2ERK7QStringS3_P7QObject
libFcitx5Migrator.so.1:_ZN5fcitx11DBusWatcher11qt_metacallEN11QMetaObject4CallEiPPv
libFcitx5Migrator.so.1:_ZN5fcitx11DBusWatcher11qt_metacastEPKc
libFcitx5Migrator.so.1:_ZN5fcitx11DBusWatcher16staticMetaObjectE
libFcitx5Migrator.so.1:_ZN5fcitx11DBusWatcher5abortEv
libFcitx5Migrator.so.1:_ZN5fcitx11DBusWatcher5startEv
libFcitx5Migrator.so.1:_ZN5fcitx11DBusWatcher7cleanUpEv
libFcitx5Migrator.so.1:_ZN5fcitx11DBusWatcherC1ERK7QStringS3_S3_bP7QObject
libFcitx5Migrator.so.1:_ZN5fcitx11DBusWatcherC2ERK7QStringS3_S3_bP7QObject
libFcitx5Migrator.so.1:_ZN5fcitx11PipelineJob11qt_metacallEN11QMetaObject4CallEiPPv
libFcitx5Migrator.so.1:_ZN5fcitx11PipelineJob11qt_metacastEPKc
libFcitx5Migrator.so.1:_ZN5fcitx11PipelineJob16staticMetaObjectE
libFcitx5Migrator.so.1:_ZN5fcitx11PipelineJob7messageERK7QStringS3_
libFcitx5Migrator.so.1:_ZN5fcitx11PipelineJob8finishedEb
libFcitx5Migrator.so.1:_ZN5fcitx11PipelineJobC1EP7QObject
libFcitx5Migrator.so.1:_ZN5fcitx11PipelineJobC2EP7QObject
libFcitx5Migrator.so.1:_ZN5fcitx13CopyDirectory11qt_metacallEN11QMetaObject4CallEiPPv
libFcitx5Migrator.so.1:_ZN5fcitx13CopyDirectory11qt_metacastEPKc
libFcitx5Migrator.so.1:_ZN5fcitx13CopyDirectory16staticMetaObjectE
libFcitx5Migrator.so.1:_ZN5fcitx13CopyDirectoryC1ERK7QStringS3_P7QObject
libFcitx5Migrator.so.1:_ZN5fcitx13CopyDirectoryC2ERK7QStringS3_P7QObject
libFcitx5Migrator.so.1:_ZN5fcitx13ProcessRunner11qt_metacallEN11QMetaObject4CallEiPPv
libFcitx5Migrator.so.1:_ZN5fcitx13ProcessRunner11qt_metacastEPKc
libFcitx5Migrator.so.1:_ZN5fcitx13ProcessRunner15processFinishedEiN8QProcess10ExitStatusE
libFcitx5Migrator.so.1:_ZN5fcitx13ProcessRunner16staticMetaObjectE
libFcitx5Migrator.so.1:_ZN5fcitx13ProcessRunner5abortEv
libFcitx5Migrator.so.1:_ZN5fcitx13ProcessRunner5startEv
libFcitx5Migrator.so.1:_ZN5fcitx13ProcessRunner7cleanUpEv
libFcitx5Migrator.so.1:_ZN5fcitx13ProcessRunnerC1ERK7QStringRK5QListIS1_ES3_P7QObject
libFcitx5Migrator.so.1:_ZN5fcitx13ProcessRunnerC2ERK7QStringRK5QListIS1_ES3_P7QObject
libFcitx5Migrator.so.1:_ZN5fcitx14CallbackRunner11qt_metacallEN11QMetaObject4CallEiPPv
libFcitx5Migrator.so.1:_ZN5fcitx14CallbackRunner11qt_metacastEPKc
libFcitx5Migrator.so.1:_ZN5fcitx14CallbackRunner11sendMessageERK7QStringS3_
libFcitx5Migrator.so.1:_ZN5fcitx14CallbackRunner12emitFinishedEb
libFcitx5Migrator.so.1:_ZN5fcitx14CallbackRunner16staticMetaObjectE
libFcitx5Migrator.so.1:_ZN5fcitx14CallbackRunner5abortEv
libFcitx5Migrator.so.1:_ZN5fcitx14CallbackRunner5startEv
libFcitx5Migrator.so.1:_ZN5fcitx14CallbackRunner7cleanUpEv
libFcitx5Migrator.so.1:_ZN5fcitx14CallbackRunnerC1ESt8functionIFbPS0_EEP7QObject
libFcitx5Migrator.so.1:_ZN5fcitx14CallbackRunnerC2ESt8functionIFbPS0_EEP7QObject
libFcitx5Migrator.so.1:_ZN5fcitx14ConfigMigrator21requestConfigFinishedEP23QDBusPendingCallWatcher
libFcitx5Migrator.so.1:_ZN5fcitx14ConfigMigrator5abortEv
libFcitx5Migrator.so.1:_ZN5fcitx14ConfigMigrator5startEv
libFcitx5Migrator.so.1:_ZN5fcitx14ConfigMigrator7cleanUpEv
libFcitx5Migrator.so.1:_ZN5fcitx14ConfigMigratorC1ERK7QStringSt8functionIFbRNS_9RawConfigEEEP7QObject
libFcitx5Migrator.so.1:_ZN5fcitx14ConfigMigratorC2ERK7QStringSt8functionIFbRNS_9RawConfigEEEP7QObject
libFcitx5Migrator.so.1:_ZN5fcitx15MigratorFactory11qt_metacallEN11QMetaObject4CallEiPPv
libFcitx5Migrator.so.1:_ZN5fcitx15MigratorFactory11qt_metacastEPKc
libFcitx5Migrator.so.1:_ZN5fcitx15MigratorFactory16staticMetaObjectE
libFcitx5Migrator.so.1:_ZN5fcitx15MigratorFactoryC1EP7QObject
libFcitx5Migrator.so.1:_ZN5fcitx15MigratorFactoryC2EP7QObject
libFcitx5Migrator.so.1:_ZN5fcitx15MigratorFactoryD0Ev
libFcitx5Migrator.so.1:_ZN5fcitx15MigratorFactoryD1Ev
libFcitx5Migrator.so.1:_ZN5fcitx15MigratorFactoryD2Ev
libFcitx5Migrator.so.1:_ZN5fcitx26FcitxMigratorFactoryPlugin11qt_metacallEN11QMetaObject4CallEiPPv
libFcitx5Migrator.so.1:_ZN5fcitx26FcitxMigratorFactoryPlugin11qt_metacastEPKc
libFcitx5Migrator.so.1:_ZN5fcitx26FcitxMigratorFactoryPlugin16staticMetaObjectE
libFcitx5Migrator.so.1:_ZN5fcitx8Pipeline11qt_metacallEN11QMetaObject4CallEiPPv
libFcitx5Migrator.so.1:_ZN5fcitx8Pipeline11qt_metacastEPKc
libFcitx5Migrator.so.1:_ZN5fcitx8Pipeline12emitFinishedEb
libFcitx5Migrator.so.1:_ZN5fcitx8Pipeline16staticMetaObjectE
libFcitx5Migrator.so.1:_ZN5fcitx8Pipeline5abortEv
libFcitx5Migrator.so.1:_ZN5fcitx8Pipeline5resetEv
libFcitx5Migrator.so.1:_ZN5fcitx8Pipeline5startEv
libFcitx5Migrator.so.1:_ZN5fcitx8Pipeline6addJobEPNS_11PipelineJobE
libFcitx5Migrator.so.1:_ZN5fcitx8Pipeline7messageERK7QStringS3_
libFcitx5Migrator.so.1:_ZN5fcitx8Pipeline8finishedEb
libFcitx5Migrator.so.1:_ZN5fcitx8Pipeline9startNextEv
libFcitx5Migrator.so.1:_ZN5fcitx8PipelineC1EP7QObject
libFcitx5Migrator.so.1:_ZN5fcitx8PipelineC2EP7QObject
libFcitx5Migrator.so.1:_ZNK5fcitx10DBusCaller10metaObjectEv
libFcitx5Migrator.so.1:_ZNK5fcitx10RenameFile10metaObjectEv
libFcitx5Migrator.so.1:_ZNK5fcitx11DBusWatcher10metaObjectEv
libFcitx5Migrator.so.1:_ZNK5fcitx11PipelineJob10metaObjectEv
libFcitx5Migrator.so.1:_ZNK5fcitx13CopyDirectory10metaObjectEv
libFcitx5Migrator.so.1:_ZNK5fcitx13ProcessRunner10metaObjectEv
libFcitx5Migrator.so.1:_ZNK5fcitx14CallbackRunner10metaObjectEv
libFcitx5Migrator.so.1:_ZNK5fcitx15MigratorFactory10metaObjectEv
libFcitx5Migrator.so.1:_ZNK5fcitx15MigratorFactory4listERK4QSetI7QStringE
libFcitx5Migrator.so.1:_ZNK5fcitx26FcitxMigratorFactoryPlugin10metaObjectEv
libFcitx5Migrator.so.1:_ZNK5fcitx8Pipeline10metaObjectEv
