libcxx-rust-cssparser.so.1:_RINvMNtCs9ZIvzb94SJx_4core3stre18trim_start_matchesReECsglvZrah94c3_14rustc_demangle
libcxx-rust-cssparser.so.1:_RINvMNtCs9ZIvzb94SJx_4core5sliceSh11copy_withinINtNtNtB5_3ops5range14RangeInclusivejEECsdIMhsiQnxUU_11miniz_oxide
libcxx-rust-cssparser.so.1:_RINvMNtCs9ZIvzb94SJx_4core6optionINtB3_6OptionRINtNtB5_4cell4CellhEE3zipBI_ECsdIMhsiQnxUU_11miniz_oxide
libcxx-rust-cssparser.so.1:_RINvMNtCs9ZIvzb94SJx_4core6optionINtB3_6OptionTRINtNtB5_4cell4CellhEBJ_EE3zipBJ_ECsdIMhsiQnxUU_11miniz_oxide
libcxx-rust-cssparser.so.1:_RINvMs0_NtNtNtCs4z76MhC0nbo_5alloc11collections5btree6searchINtNtB8_4node7NodeRefNtNtBZ_6marker3MutyNtNtNtCsd97RIzLnxns_5gimli4read6abbrev12AbbreviationNtB1j_14LeafOrInternalE14find_key_indexyEB1G_
libcxx-rust-cssparser.so.1:_RINvMs0_NtNtNtCs4z76MhC0nbo_5alloc11collections5btree6searchINtNtB8_4node7NodeRefNtNtBZ_6marker5ImmutyNtNtNtCsd97RIzLnxns_5gimli4read6abbrev12AbbreviationNtB1j_14LeafOrInternalE14find_key_indexyEB1I_
libcxx-rust-cssparser.so.1:_RINvMs5_NtNtCs9ZIvzb94SJx_4core3fmt8buildersNtB6_9DebugList7entriesNtNtNtCsd97RIzLnxns_5gimli4read12endian_slice9DebugByteINtNtNtNtBa_4iter8adapters3map3MapINtNtB21_6copied6CopiedINtNtB21_4take4TakeINtNtNtBa_5slice4iter4IterhEEENcB13_0EEB19_
libcxx-rust-cssparser.so.1:_RINvMs5_NtNtCs9ZIvzb94SJx_4core3fmt8buildersNtB6_9DebugList7entriesRNtNtNtCsd97RIzLnxns_5gimli4read6abbrev22AttributeSpecificationINtNtNtBa_5slice4iter4IterB14_EEB1a_
libcxx-rust-cssparser.so.1:_RINvMs5_NtNtCs9ZIvzb94SJx_4core3fmt8buildersNtB6_9DebugList7entriesRhINtNtNtBa_5slice4iter4IterhEECsglvZrah94c3_14rustc_demangle
libcxx-rust-cssparser.so.1:_RINvMs5_NtNtCsk6apSIyUfCg_3std2io5errorNtB6_5Error3newNtNtNtCs9ZIvzb94SJx_4core3num5error15TryFromIntErrorEBa_
libcxx-rust-cssparser.so.1:_RINvMs5_NtNtCsk6apSIyUfCg_3std2io5errorNtB6_5Error3newReEBa_
libcxx-rust-cssparser.so.1:_RINvMs8_NtNtNtCs4z76MhC0nbo_5alloc11collections5btree4nodeINtB6_7NodeRefNtNtB6_6marker5OwnedyNtNtNtCsd97RIzLnxns_5gimli4read6abbrev12AbbreviationNtB1a_4LeafE13from_new_leafNtNtBc_5alloc6GlobalEB1z_
libcxx-rust-cssparser.so.1:_RINvMs8_NtNtNtCs4z76MhC0nbo_5alloc11collections5btree4nodeINtB6_7NodeRefNtNtB6_6marker5OwnedyNtNtNtCsd97RIzLnxns_5gimli4read6abbrev12AbbreviationNtB1a_4LeafE8new_leafNtNtBc_5alloc6GlobalEB1z_
libcxx-rust-cssparser.so.1:_RINvMs9_NtNtNtCs4z76MhC0nbo_5alloc11collections5btree4nodeINtB6_7NodeRefNtNtB6_6marker5OwnedyNtNtNtCsd97RIzLnxns_5gimli4read6abbrev12AbbreviationNtB1a_8InternalE12new_internalNtNtBc_5alloc6GlobalEB1z_
libcxx-rust-cssparser.so.1:_RINvMs9_NtNtNtCs4z76MhC0nbo_5alloc11collections5btree4nodeINtB6_7NodeRefNtNtB6_6marker5OwnedyNtNtNtCsd97RIzLnxns_5gimli4read6abbrev12AbbreviationNtB1a_8InternalE17from_new_internalNtNtBc_5alloc6GlobalEB1z_
libcxx-rust-cssparser.so.1:_RINvMsK_NtNtNtCs4z76MhC0nbo_5alloc11collections5btree4nodeINtB6_6HandleINtB6_7NodeRefNtNtB6_6marker3MutyNtNtNtCsd97RIzLnxns_5gimli4read6abbrev12AbbreviationNtB1n_4LeafENtB1n_4EdgeE6insertNtNtBc_5alloc6GlobalEB1K_
libcxx-rust-cssparser.so.1:_RINvMsM_NtNtNtCs4z76MhC0nbo_5alloc11collections5btree4nodeINtB6_6HandleINtB6_7NodeRefNtNtB6_6marker3MutyNtNtNtCsd97RIzLnxns_5gimli4read6abbrev12AbbreviationNtB1n_8InternalENtB1n_4EdgeE6insertNtNtBc_5alloc6GlobalEB1K_
libcxx-rust-cssparser.so.1:_RINvMsN_NtNtNtCs4z76MhC0nbo_5alloc11collections5btree4nodeINtB6_6HandleINtB6_7NodeRefNtNtB6_6marker3MutyNtNtNtCsd97RIzLnxns_5gimli4read6abbrev12AbbreviationNtB1n_4LeafENtB1n_4EdgeE16insert_recursingNtNtBc_5alloc6GlobalNCNvMs6_NtNtB8_3map5entryINtB3C_11VacantEntryyB1E_E12insert_entry0EB1K_
libcxx-rust-cssparser.so.1:_RINvMsV_NtNtNtCs4z76MhC0nbo_5alloc11collections5btree4nodeINtB6_6HandleINtB6_7NodeRefNtNtB6_6marker3MutyNtNtNtCsd97RIzLnxns_5gimli4read6abbrev12AbbreviationNtB1n_4LeafENtB1n_2KVE5splitNtNtBc_5alloc6GlobalEB1K_
libcxx-rust-cssparser.so.1:_RINvMsW_NtNtNtCs4z76MhC0nbo_5alloc11collections5btree4nodeINtB6_6HandleINtB6_7NodeRefNtNtB6_6marker3MutyNtNtNtCsd97RIzLnxns_5gimli4read6abbrev12AbbreviationNtB1n_8InternalENtB1n_2KVE5splitNtNtBc_5alloc6GlobalEB1K_
libcxx-rust-cssparser.so.1:_RINvMs_NtNtNtCs4z76MhC0nbo_5alloc11collections5btree6searchINtNtB7_4node7NodeRefNtNtBY_6marker3MutyNtNtNtCsd97RIzLnxns_5gimli4read6abbrev12AbbreviationNtB1i_14LeafOrInternalE11search_treeyEB1F_
libcxx-rust-cssparser.so.1:_RINvMs_NtNtNtCs4z76MhC0nbo_5alloc11collections5btree6searchINtNtB7_4node7NodeRefNtNtBY_6marker5ImmutyNtNtNtCsd97RIzLnxns_5gimli4read6abbrev12AbbreviationNtB1i_14LeafOrInternalE11search_treeyEB1H_
libcxx-rust-cssparser.so.1:_RINvMsi_NtNtNtCs4z76MhC0nbo_5alloc11collections5btree3mapINtB6_8BTreeMapyNtNtNtCsd97RIzLnxns_5gimli4read6abbrev12AbbreviationE3getyEB1f_
libcxx-rust-cssparser.so.1:_RINvMsp_NtNtNtCs4z76MhC0nbo_5alloc11collections5btree4nodeINtB6_7NodeRefNtNtB6_6marker3MutyNtNtNtCsd97RIzLnxns_5gimli4read6abbrev12AbbreviationNtB1a_8InternalE30correct_childrens_parent_linksINtNtNtCs9ZIvzb94SJx_4core3ops5range14RangeInclusivejEEB1x_
libcxx-rust-cssparser.so.1:_RINvMsp_NtNtNtCs4z76MhC0nbo_5alloc11collections5btree4nodeINtB6_7NodeRefNtNtB6_6marker3MutyNtNtNtCsd97RIzLnxns_5gimli4read6abbrev12AbbreviationNtB1a_8InternalE30correct_childrens_parent_linksINtNtNtCs9ZIvzb94SJx_4core3ops5range5RangejEEB1x_
libcxx-rust-cssparser.so.1:_RINvNtCs9ZIvzb94SJx_4core5slice20copy_from_slice_implhECsdIMhsiQnxUU_11miniz_oxide
libcxx-rust-cssparser.so.1:_RINvNtCs9ZIvzb94SJx_4core9panicking13assert_failedAhj4_RShECsk6apSIyUfCg_3std
libcxx-rust-cssparser.so.1:_RINvNtCs9ZIvzb94SJx_4core9panicking13assert_failedINtNtB4_6option6OptionjEBM_EB4_
libcxx-rust-cssparser.so.1:_RINvNtCs9ZIvzb94SJx_4core9panicking13assert_failedjjEB4_
libcxx-rust-cssparser.so.1:_RINvNtCs9ZIvzb94SJx_4core9panicking13assert_failedllECsk6apSIyUfCg_3std
libcxx-rust-cssparser.so.1:_RINvNtCs9ZIvzb94SJx_4core9panicking13assert_failedmmECsk6apSIyUfCg_3std
libcxx-rust-cssparser.so.1:_RINvNtCs9ZIvzb94SJx_4core9panicking13assert_failedssECsk6apSIyUfCg_3std
libcxx-rust-cssparser.so.1:_RINvNtCs9ZIvzb94SJx_4core9panicking13assert_failedyyEB4_
libcxx-rust-cssparser.so.1:_RINvNtCsk6apSIyUfCg_3std9panicking11begin_panicReEB4_
libcxx-rust-cssparser.so.1:_RINvNtNtCs9ZIvzb94SJx_4core5slice5index5rangeINtNtNtB6_3ops5range14RangeInclusivejEECsdIMhsiQnxUU_11miniz_oxide
libcxx-rust-cssparser.so.1:_RINvNtNtCsk6apSIyUfCg_3std3sys9backtrace26___rust_end_short_backtraceNCINvNtB6_9panicking11begin_panicReE0zEB6_
libcxx-rust-cssparser.so.1:_RINvNtNtCsk6apSIyUfCg_3std3sys9backtrace26___rust_end_short_backtraceNCNvNtB6_5alloc8rust_oom0zEB6_
libcxx-rust-cssparser.so.1:_RINvNtNtCsk6apSIyUfCg_3std3sys9backtrace26___rust_end_short_backtraceNCNvNtB6_9panicking13panic_handler0zEB6_
libcxx-rust-cssparser.so.1:_RINvNtNtNtCs4z76MhC0nbo_5alloc11collections5btree4node12slice_insertINtNtNtCs9ZIvzb94SJx_4core3ptr8non_null7NonNullINtB2_8LeafNodeyNtNtNtCsd97RIzLnxns_5gimli4read6abbrev12AbbreviationEEEB2b_
libcxx-rust-cssparser.so.1:_RINvNtNtNtCs4z76MhC0nbo_5alloc11collections5btree4node12slice_insertNtNtNtCsd97RIzLnxns_5gimli4read6abbrev12AbbreviationEB1a_
libcxx-rust-cssparser.so.1:_RINvNtNtNtCs4z76MhC0nbo_5alloc11collections5btree4node12slice_insertyECsd97RIzLnxns_5gimli
libcxx-rust-cssparser.so.1:_RINvNtNtNtCs4z76MhC0nbo_5alloc11collections5btree4node13move_to_sliceINtNtNtCs9ZIvzb94SJx_4core3ptr8non_null7NonNullINtB2_8LeafNodeyNtNtNtCsd97RIzLnxns_5gimli4read6abbrev12AbbreviationEEEB2c_
libcxx-rust-cssparser.so.1:_RINvNtNtNtCs4z76MhC0nbo_5alloc11collections5btree4node13move_to_sliceNtNtNtCsd97RIzLnxns_5gimli4read6abbrev12AbbreviationEB1b_
libcxx-rust-cssparser.so.1:_RINvNtNtNtCs4z76MhC0nbo_5alloc11collections5btree4node13move_to_sliceyECsd97RIzLnxns_5gimli
libcxx-rust-cssparser.so.1:_RINvNtNtNtCs9ZIvzb94SJx_4core5slice4sort6stable14driftsort_mainNtNtCs6TFdUlxcy5y_9addr2line4line12LineSequenceNCINvMNtCs4z76MhC0nbo_5alloc5sliceSBZ_11sort_by_keyyNCINvMs_B11_NtB11_5Lines5parseINtNtNtCsd97RIzLnxns_5gimli4read12endian_slice11EndianSliceNtNtB3b_9endianity12LittleEndianEEs_0E0INtNtB1S_3vec3VecBZ_EECsk6apSIyUfCg_3std
libcxx-rust-cssparser.so.1:_RINvNtNtNtCs9ZIvzb94SJx_4core5slice4sort6stable14driftsort_mainNtNtCs6TFdUlxcy5y_9addr2line4unit9UnitRangeNCINvMNtCs4z76MhC0nbo_5alloc5sliceSBZ_11sort_by_keyyNCNvMs_B11_INtB11_8ResUnitsINtNtNtCsd97RIzLnxns_5gimli4read12endian_slice11EndianSliceNtNtB34_9endianity12LittleEndianEE5parses2_0E0INtNtB1O_3vec3VecBZ_EECsk6apSIyUfCg_3std
libcxx-rust-cssparser.so.1:_RINvNtNtNtCs9ZIvzb94SJx_4core5slice4sort6stable14driftsort_mainNtNtCs6TFdUlxcy5y_9addr2line8function15FunctionAddressNCINvMNtCs4z76MhC0nbo_5alloc5sliceSBZ_11sort_by_keyyNCNvMs0_B11_INtB11_9FunctionsINtNtNtCsd97RIzLnxns_5gimli4read12endian_slice11EndianSliceNtNtB3h_9endianity12LittleEndianEE5parses_0E0INtNtB1Z_3vec3VecBZ_EECsk6apSIyUfCg_3std
libcxx-rust-cssparser.so.1:_RINvNtNtNtCs9ZIvzb94SJx_4core5slice4sort6stable14driftsort_mainNtNtCs6TFdUlxcy5y_9addr2line8function22InlinedFunctionAddressNCINvMNtCs4z76MhC0nbo_5alloc5sliceSBZ_7sort_byNCNvMs1_B11_INtB11_8FunctionINtNtNtCsd97RIzLnxns_5gimli4read12endian_slice11EndianSliceNtNtB3h_9endianity12LittleEndianEE5parse0E0INtNtB26_3vec3VecBZ_EECsk6apSIyUfCg_3std
libcxx-rust-cssparser.so.1:_RINvNtNtNtCs9ZIvzb94SJx_4core5slice4sort6stable14driftsort_mainTNtNtCsd97RIzLnxns_5gimli6common15DebugInfoOffsetNtB12_18DebugArangesOffsetENCINvMNtCs4z76MhC0nbo_5alloc5sliceSBZ_11sort_by_keyB10_NCNvMs_NtCs6TFdUlxcy5y_9addr2line4unitINtB3d_8ResUnitsINtNtNtB14_4read12endian_slice11EndianSliceNtNtB14_9endianity12LittleEndianEE5parse0E0INtNtB2l_3vec3VecBZ_EECsk6apSIyUfCg_3std
libcxx-rust-cssparser.so.1:_RINvNtNtNtCs9ZIvzb94SJx_4core5slice4sort8unstable7ipnsortNtNtNtNtNtCsk6apSIyUfCg_3std12backtrace_rs9symbolize5gimli3elf9ParsedSymNCINvMB6_SBT_20sort_unstable_by_keyyNCNvMs_BV_NtBV_6Object5parses1_0E0EB13_
libcxx-rust-cssparser.so.1:_RINvNtNtNtNtCs9ZIvzb94SJx_4core5slice4sort6stable9quicksort9quicksortNtNtCs6TFdUlxcy5y_9addr2line4line12LineSequenceNCINvMNtCs4z76MhC0nbo_5alloc5sliceSB15_11sort_by_keyyNCINvMs_B17_NtB17_5Lines5parseINtNtNtCsd97RIzLnxns_5gimli4read12endian_slice11EndianSliceNtNtB3i_9endianity12LittleEndianEEs_0E0ECsk6apSIyUfCg_3std
libcxx-rust-cssparser.so.1:_RINvNtNtNtNtCs9ZIvzb94SJx_4core5slice4sort6stable9quicksort9quicksortNtNtCs6TFdUlxcy5y_9addr2line4unit9UnitRangeNCINvMNtCs4z76MhC0nbo_5alloc5sliceSB15_11sort_by_keyyNCNvMs_B17_INtB17_8ResUnitsINtNtNtCsd97RIzLnxns_5gimli4read12endian_slice11EndianSliceNtNtB3b_9endianity12LittleEndianEE5parses2_0E0ECsk6apSIyUfCg_3std
libcxx-rust-cssparser.so.1:_RINvNtNtNtNtCs9ZIvzb94SJx_4core5slice4sort6stable9quicksort9quicksortNtNtCs6TFdUlxcy5y_9addr2line8function15FunctionAddressNCINvMNtCs4z76MhC0nbo_5alloc5sliceSB15_11sort_by_keyyNCNvMs0_B17_INtB17_9FunctionsINtNtNtCsd97RIzLnxns_5gimli4read12endian_slice11EndianSliceNtNtB3o_9endianity12LittleEndianEE5parses_0E0ECsk6apSIyUfCg_3std
libcxx-rust-cssparser.so.1:_RINvNtNtNtNtCs9ZIvzb94SJx_4core5slice4sort6stable9quicksort9quicksortNtNtCs6TFdUlxcy5y_9addr2line8function22InlinedFunctionAddressNCINvMNtCs4z76MhC0nbo_5alloc5sliceSB15_7sort_byNCNvMs1_B17_INtB17_8FunctionINtNtNtCsd97RIzLnxns_5gimli4read12endian_slice11EndianSliceNtNtB3o_9endianity12LittleEndianEE5parse0E0ECsk6apSIyUfCg_3std
libcxx-rust-cssparser.so.1:_RINvNtNtNtNtCs9ZIvzb94SJx_4core5slice4sort6stable9quicksort9quicksortTNtNtCsd97RIzLnxns_5gimli6common15DebugInfoOffsetNtB18_18DebugArangesOffsetENCINvMNtCs4z76MhC0nbo_5alloc5sliceSB15_11sort_by_keyB16_NCNvMs_NtCs6TFdUlxcy5y_9addr2line4unitINtB3k_8ResUnitsINtNtNtB1a_4read12endian_slice11EndianSliceNtNtB1a_9endianity12LittleEndianEE5parse0E0ECsk6apSIyUfCg_3std
libcxx-rust-cssparser.so.1:_RINvNtNtNtNtCs9ZIvzb94SJx_4core5slice4sort8unstable8heapsort8heapsortNtNtNtNtNtCsk6apSIyUfCg_3std12backtrace_rs9symbolize5gimli3elf9ParsedSymNCINvMB8_SB15_20sort_unstable_by_keyyNCNvMs_B17_NtB17_6Object5parses1_0E0EB1f_
libcxx-rust-cssparser.so.1:_RINvNvMs2_NtCs4z76MhC0nbo_5alloc7raw_vecINtB8_11RawVecInnerpE7reserve21do_reserve_and_handleNtNtBa_5alloc6GlobalECs6TFdUlxcy5y_9addr2line
libcxx-rust-cssparser.so.1:_RINvXs0_NtNtNtCs9ZIvzb94SJx_4core4iter8adapters6copiedINtB6_6CopiedINtNtNtBc_5slice4iter4IterhEENtNtNtBa_6traits12double_ended19DoubleEndedIterator9try_rfoldjNCINvNvNtNtB1A_8iterator8Iterator9rposition5checkhNCNvMs2_NtCsglvZrah94c3_14rustc_demangle2v0NtB3s_6Parser5ident0E0INtNtNtBc_3ops12control_flow11ControlFlowjjEEB3u_
libcxx-rust-cssparser.so.1:_RNvCs1vgVKqzVi9G_6adler213adler32_slice
libcxx-rust-cssparser.so.1:_RNvCsdGaayLnMd0D_7___rustc10rust_panic
libcxx-rust-cssparser.so.1:_RNvCsdGaayLnMd0D_7___rustc12___rust_abort
libcxx-rust-cssparser.so.1:_RNvCsdGaayLnMd0D_7___rustc12___rust_alloc
libcxx-rust-cssparser.so.1:_RNvCsdGaayLnMd0D_7___rustc14___rust_dealloc
libcxx-rust-cssparser.so.1:_RNvCsdGaayLnMd0D_7___rustc14___rust_realloc
libcxx-rust-cssparser.so.1:_RNvCsdGaayLnMd0D_7___rustc17___rust_drop_panic
libcxx-rust-cssparser.so.1:_RNvCsdGaayLnMd0D_7___rustc17rust_begin_unwind
libcxx-rust-cssparser.so.1:_RNvCsdGaayLnMd0D_7___rustc18___rust_start_panic
libcxx-rust-cssparser.so.1:_RNvCsdGaayLnMd0D_7___rustc19___rust_alloc_zeroed
libcxx-rust-cssparser.so.1:_RNvCsdGaayLnMd0D_7___rustc20___rust_panic_cleanup
libcxx-rust-cssparser.so.1:_RNvCsdGaayLnMd0D_7___rustc24___rust_foreign_exception
libcxx-rust-cssparser.so.1:_RNvCsdGaayLnMd0D_7___rustc25___rdl_alloc_error_handler
libcxx-rust-cssparser.so.1:_RNvCsdGaayLnMd0D_7___rustc26___rust_alloc_error_handler
libcxx-rust-cssparser.so.1:_RNvCsdGaayLnMd0D_7___rustc35___rust_no_alloc_shim_is_unstable_v2
libcxx-rust-cssparser.so.1:_RNvCsglvZrah94c3_14rustc_demangle12try_demangle
libcxx-rust-cssparser.so.1:_RNvCsglvZrah94c3_14rustc_demangle8demangle
libcxx-rust-cssparser.so.1:_RNvMCs1vgVKqzVi9G_6adler2NtB2_7Adler3211write_slice
libcxx-rust-cssparser.so.1:_RNvMNtCs4z76MhC0nbo_5alloc6stringNtB2_6String10from_utf16
libcxx-rust-cssparser.so.1:_RNvMNtCs4z76MhC0nbo_5alloc6stringNtB2_6String11try_reserve
libcxx-rust-cssparser.so.1:_RNvMNtCs4z76MhC0nbo_5alloc6stringNtB2_6String12from_utf16be
libcxx-rust-cssparser.so.1:_RNvMNtCs4z76MhC0nbo_5alloc6stringNtB2_6String12from_utf16le
libcxx-rust-cssparser.so.1:_RNvMNtCs4z76MhC0nbo_5alloc6stringNtB2_6String15from_utf8_lossy
libcxx-rust-cssparser.so.1:_RNvMNtCs4z76MhC0nbo_5alloc6stringNtB2_6String17try_reserve_exact
libcxx-rust-cssparser.so.1:_RNvMNtCs4z76MhC0nbo_5alloc6stringNtB2_6String18from_utf16be_lossy
libcxx-rust-cssparser.so.1:_RNvMNtCs4z76MhC0nbo_5alloc6stringNtB2_6String18from_utf16le_lossy
libcxx-rust-cssparser.so.1:_RNvMNtCs4z76MhC0nbo_5alloc6stringNtB2_6String21from_utf8_lossy_owned
libcxx-rust-cssparser.so.1:_RNvMNtCs9ZIvzb94SJx_4core3stre12escape_debug
libcxx-rust-cssparser.so.1:_RNvMNtCs9ZIvzb94SJx_4core3stre12substr_range
libcxx-rust-cssparser.so.1:_RNvMNtCs9ZIvzb94SJx_4core3stre13from_utf8_mut
libcxx-rust-cssparser.so.1:_RNvMNtCs9ZIvzb94SJx_4core3stre22split_at_mut_unchecked
libcxx-rust-cssparser.so.1:_RNvMNtCs9ZIvzb94SJx_4core3stre9from_utf8
libcxx-rust-cssparser.so.1:_RNvMNtCs9ZIvzb94SJx_4core5sliceSh11starts_withCs6TFdUlxcy5y_9addr2line
libcxx-rust-cssparser.so.1:_RNvMNtCs9ZIvzb94SJx_4core5sliceSh11starts_withCsglvZrah94c3_14rustc_demangle
libcxx-rust-cssparser.so.1:_RNvMNtCs9ZIvzb94SJx_4core5sliceSh9ends_withCs6TFdUlxcy5y_9addr2line
libcxx-rust-cssparser.so.1:_RNvMNtCsjSWokaHKjd2_9hashbrown3rawNtB2_11Fallibility17capacity_overflow
libcxx-rust-cssparser.so.1:_RNvMNtCsjSWokaHKjd2_9hashbrown3rawNtB2_11Fallibility9alloc_err
libcxx-rust-cssparser.so.1:_RNvMNtCsk6apSIyUfCg_3std4timeNtB2_7Instant11checked_add
libcxx-rust-cssparser.so.1:_RNvMNtCsk6apSIyUfCg_3std4timeNtB2_7Instant11checked_sub
libcxx-rust-cssparser.so.1:_RNvMNtCsk6apSIyUfCg_3std4timeNtB2_7Instant14duration_since
libcxx-rust-cssparser.so.1:_RNvMNtCsk6apSIyUfCg_3std4timeNtB2_7Instant22checked_duration_since
libcxx-rust-cssparser.so.1:_RNvMNtCsk6apSIyUfCg_3std4timeNtB2_7Instant25saturating_duration_since
libcxx-rust-cssparser.so.1:_RNvMNtCsk6apSIyUfCg_3std4timeNtB2_7Instant3now
libcxx-rust-cssparser.so.1:_RNvMNtCsk6apSIyUfCg_3std4timeNtB2_7Instant7elapsed
libcxx-rust-cssparser.so.1:_RNvMNtNtCs9ZIvzb94SJx_4core3num3fmtNtB2_4Part3len
libcxx-rust-cssparser.so.1:_RNvMNtNtCs9ZIvzb94SJx_4core3num3fmtNtB2_4Part5write
libcxx-rust-cssparser.so.1:_RNvMNtNtCs9ZIvzb94SJx_4core3num9diy_floatNtB2_2Fp12normalize_to
libcxx-rust-cssparser.so.1:_RNvMNtNtCsk6apSIyUfCg_3std3net3tcpNtB2_9TcpStream10local_addr
libcxx-rust-cssparser.so.1:_RNvMNtNtCsk6apSIyUfCg_3std3net3tcpNtB2_9TcpStream10set_linger
libcxx-rust-cssparser.so.1:_RNvMNtNtCsk6apSIyUfCg_3std3net3tcpNtB2_9TcpStream10take_error
libcxx-rust-cssparser.so.1:_RNvMNtNtCsk6apSIyUfCg_3std3net3tcpNtB2_9TcpStream11set_nodelay
libcxx-rust-cssparser.so.1:_RNvMNtNtCsk6apSIyUfCg_3std3net3tcpNtB2_9TcpStream12read_timeout
libcxx-rust-cssparser.so.1:_RNvMNtNtCsk6apSIyUfCg_3std3net3tcpNtB2_9TcpStream13write_timeout
libcxx-rust-cssparser.so.1:_RNvMNtNtCsk6apSIyUfCg_3std3net3tcpNtB2_9TcpStream15connect_timeout
libcxx-rust-cssparser.so.1:_RNvMNtNtCsk6apSIyUfCg_3std3net3tcpNtB2_9TcpStream15set_nonblocking
libcxx-rust-cssparser.so.1:_RNvMNtNtCsk6apSIyUfCg_3std3net3tcpNtB2_9TcpStream16set_read_timeout
libcxx-rust-cssparser.so.1:_RNvMNtNtCsk6apSIyUfCg_3std3net3tcpNtB2_9TcpStream17set_write_timeout
libcxx-rust-cssparser.so.1:_RNvMNtNtCsk6apSIyUfCg_3std3net3tcpNtB2_9TcpStream3ttl
libcxx-rust-cssparser.so.1:_RNvMNtNtCsk6apSIyUfCg_3std3net3tcpNtB2_9TcpStream4peek
libcxx-rust-cssparser.so.1:_RNvMNtNtCsk6apSIyUfCg_3std3net3tcpNtB2_9TcpStream6linger
libcxx-rust-cssparser.so.1:_RNvMNtNtCsk6apSIyUfCg_3std3net3tcpNtB2_9TcpStream7nodelay
libcxx-rust-cssparser.so.1:_RNvMNtNtCsk6apSIyUfCg_3std3net3tcpNtB2_9TcpStream7set_ttl
libcxx-rust-cssparser.so.1:_RNvMNtNtCsk6apSIyUfCg_3std3net3tcpNtB2_9TcpStream8shutdown
libcxx-rust-cssparser.so.1:_RNvMNtNtCsk6apSIyUfCg_3std3net3tcpNtB2_9TcpStream9peer_addr
libcxx-rust-cssparser.so.1:_RNvMNtNtCsk6apSIyUfCg_3std3net3tcpNtB2_9TcpStream9try_clone
libcxx-rust-cssparser.so.1:_RNvMNtNtCsk6apSIyUfCg_3std3net3udpNtB2_9UdpSocket10local_addr
libcxx-rust-cssparser.so.1:_RNvMNtNtCsk6apSIyUfCg_3std3net3udpNtB2_9UdpSocket10take_error
libcxx-rust-cssparser.so.1:_RNvMNtNtCsk6apSIyUfCg_3std3net3udpNtB2_9UdpSocket12read_timeout
libcxx-rust-cssparser.so.1:_RNvMNtNtCsk6apSIyUfCg_3std3net3udpNtB2_9UdpSocket13set_broadcast
libcxx-rust-cssparser.so.1:_RNvMNtNtCsk6apSIyUfCg_3std3net3udpNtB2_9UdpSocket13write_timeout
libcxx-rust-cssparser.so.1:_RNvMNtNtCsk6apSIyUfCg_3std3net3udpNtB2_9UdpSocket15set_nonblocking
libcxx-rust-cssparser.so.1:_RNvMNtNtCsk6apSIyUfCg_3std3net3udpNtB2_9UdpSocket16multicast_ttl_v4
libcxx-rust-cssparser.so.1:_RNvMNtNtCsk6apSIyUfCg_3std3net3udpNtB2_9UdpSocket16set_read_timeout
libcxx-rust-cssparser.so.1:_RNvMNtNtCsk6apSIyUfCg_3std3net3udpNtB2_9UdpSocket17join_multicast_v4
libcxx-rust-cssparser.so.1:_RNvMNtNtCsk6apSIyUfCg_3std3net3udpNtB2_9UdpSocket17join_multicast_v6
libcxx-rust-cssparser.so.1:_RNvMNtNtCsk6apSIyUfCg_3std3net3udpNtB2_9UdpSocket17multicast_loop_v4
libcxx-rust-cssparser.so.1:_RNvMNtNtCsk6apSIyUfCg_3std3net3udpNtB2_9UdpSocket17multicast_loop_v6
libcxx-rust-cssparser.so.1:_RNvMNtNtCsk6apSIyUfCg_3std3net3udpNtB2_9UdpSocket17set_write_timeout
libcxx-rust-cssparser.so.1:_RNvMNtNtCsk6apSIyUfCg_3std3net3udpNtB2_9UdpSocket18leave_multicast_v4
libcxx-rust-cssparser.so.1:_RNvMNtNtCsk6apSIyUfCg_3std3net3udpNtB2_9UdpSocket18leave_multicast_v6
libcxx-rust-cssparser.so.1:_RNvMNtNtCsk6apSIyUfCg_3std3net3udpNtB2_9UdpSocket20set_multicast_ttl_v4
libcxx-rust-cssparser.so.1:_RNvMNtNtCsk6apSIyUfCg_3std3net3udpNtB2_9UdpSocket21set_multicast_loop_v4
libcxx-rust-cssparser.so.1:_RNvMNtNtCsk6apSIyUfCg_3std3net3udpNtB2_9UdpSocket21set_multicast_loop_v6
libcxx-rust-cssparser.so.1:_RNvMNtNtCsk6apSIyUfCg_3std3net3udpNtB2_9UdpSocket3ttl
libcxx-rust-cssparser.so.1:_RNvMNtNtCsk6apSIyUfCg_3std3net3udpNtB2_9UdpSocket4peek
libcxx-rust-cssparser.so.1:_RNvMNtNtCsk6apSIyUfCg_3std3net3udpNtB2_9UdpSocket4recv
libcxx-rust-cssparser.so.1:_RNvMNtNtCsk6apSIyUfCg_3std3net3udpNtB2_9UdpSocket4send
libcxx-rust-cssparser.so.1:_RNvMNtNtCsk6apSIyUfCg_3std3net3udpNtB2_9UdpSocket7set_ttl
libcxx-rust-cssparser.so.1:_RNvMNtNtCsk6apSIyUfCg_3std3net3udpNtB2_9UdpSocket9broadcast
libcxx-rust-cssparser.so.1:_RNvMNtNtCsk6apSIyUfCg_3std3net3udpNtB2_9UdpSocket9peek_from
libcxx-rust-cssparser.so.1:_RNvMNtNtCsk6apSIyUfCg_3std3net3udpNtB2_9UdpSocket9peer_addr
libcxx-rust-cssparser.so.1:_RNvMNtNtCsk6apSIyUfCg_3std3net3udpNtB2_9UdpSocket9recv_from
libcxx-rust-cssparser.so.1:_RNvMNtNtCsk6apSIyUfCg_3std3net3udpNtB2_9UdpSocket9try_clone
libcxx-rust-cssparser.so.1:_RNvMNtNtCsk6apSIyUfCg_3std6thread2idNtB2_8ThreadId3new
libcxx-rust-cssparser.so.1:_RNvMNtNtCsk6apSIyUfCg_3std6thread6scopedNtB2_9ScopeData29decrement_num_running_threads
libcxx-rust-cssparser.so.1:_RNvMNtNtCsk6apSIyUfCg_3std6thread6scopedNtB2_9ScopeData29increment_num_running_threads
libcxx-rust-cssparser.so.1:_RNvMNtNtCsk6apSIyUfCg_3std6thread7builderNtB2_7Builder4name
libcxx-rust-cssparser.so.1:_RNvMNtNtNtCs2yFNzy2szzr_10std_detect6detect4arch3x86NtB2_7Feature6to_str
libcxx-rust-cssparser.so.1:_RNvMNtNtNtCs9ZIvzb94SJx_4core3num6bignum5testsNtB2_6Big8x310bit_length
libcxx-rust-cssparser.so.1:_RNvMNtNtNtCs9ZIvzb94SJx_4core3num6bignum5testsNtB2_6Big8x310mul_digits
libcxx-rust-cssparser.so.1:_RNvMNtNtNtCs9ZIvzb94SJx_4core3num6bignum5testsNtB2_6Big8x313div_rem_small
libcxx-rust-cssparser.so.1:_RNvMNtNtNtCs9ZIvzb94SJx_4core3num6bignum5testsNtB2_6Big8x33add
libcxx-rust-cssparser.so.1:_RNvMNtNtNtCs9ZIvzb94SJx_4core3num6bignum5testsNtB2_6Big8x33sub
libcxx-rust-cssparser.so.1:_RNvMNtNtNtCs9ZIvzb94SJx_4core3num6bignum5testsNtB2_6Big8x36digits
libcxx-rust-cssparser.so.1:_RNvMNtNtNtCs9ZIvzb94SJx_4core3num6bignum5testsNtB2_6Big8x37is_zero
libcxx-rust-cssparser.so.1:_RNvMNtNtNtCs9ZIvzb94SJx_4core3num6bignum5testsNtB2_6Big8x38mul_pow2
libcxx-rust-cssparser.so.1:_RNvMNtNtNtCs9ZIvzb94SJx_4core3num6bignum5testsNtB2_6Big8x38mul_pow5
libcxx-rust-cssparser.so.1:_RNvMNtNtNtCs9ZIvzb94SJx_4core3num6bignum5testsNtB2_6Big8x39mul_small
libcxx-rust-cssparser.so.1:_RNvMNtNtNtCs9ZIvzb94SJx_4core4iter8adapters3zipINtB2_3ZipINtNtNtB8_5slice4iter4ItertEINtBW_7IterMutmEE9super_nthCsdIMhsiQnxUU_11miniz_oxide
libcxx-rust-cssparser.so.1:_RNvMNtNtNtCshlECYyjYKiK_6object4read2pe10relocationNtB2_23RelocationBlockIterator4next
libcxx-rust-cssparser.so.1:_RNvMNtNtNtCshlECYyjYKiK_6object4read2pe14data_directoryNtB2_15DataDirectories3get
libcxx-rust-cssparser.so.1:_RNvMNtNtNtCshlECYyjYKiK_6object4read2pe14data_directoryNtB2_15DataDirectories5parse
libcxx-rust-cssparser.so.1:_RNvMNtNtNtCshlECYyjYKiK_6object4read2pe6importNtB2_11ImportTable4name
libcxx-rust-cssparser.so.1:_RNvMNtNtNtCshlECYyjYKiK_6object4read2pe6importNtB2_11ImportTable9hint_name
libcxx-rust-cssparser.so.1:_RNvMNtNtNtCshlECYyjYKiK_6object4read2pe8resourceNtB2_17ResourceDirectory4root
libcxx-rust-cssparser.so.1:_RNvMNtNtNtCshlECYyjYKiK_6object4read3elf10relocationNtB2_18RelocationSections3get
libcxx-rust-cssparser.so.1:_RNvMNtNtNtCsk6apSIyUfCg_3std2os5linux7processNtB2_5PidFd4kill
libcxx-rust-cssparser.so.1:_RNvMNtNtNtCsk6apSIyUfCg_3std2os5linux7processNtB2_5PidFd4wait
libcxx-rust-cssparser.so.1:_RNvMNtNtNtCsk6apSIyUfCg_3std2os5linux7processNtB2_5PidFd8try_wait
libcxx-rust-cssparser.so.1:_RNvMNtNtNtCsk6apSIyUfCg_3std3sys2fd4unixNtB2_8FileDesc11read_buf_at
libcxx-rust-cssparser.so.1:_RNvMNtNtNtCsk6apSIyUfCg_3std3sys2fd4unixNtB2_8FileDesc11read_to_end
libcxx-rust-cssparser.so.1:_RNvMNtNtNtCsk6apSIyUfCg_3std3sys2fd4unixNtB2_8FileDesc11set_cloexec
libcxx-rust-cssparser.so.1:_RNvMNtNtNtCsk6apSIyUfCg_3std3sys2fd4unixNtB2_8FileDesc13read_vectored
libcxx-rust-cssparser.so.1:_RNvMNtNtNtCsk6apSIyUfCg_3std3sys2fd4unixNtB2_8FileDesc14write_vectored
libcxx-rust-cssparser.so.1:_RNvMNtNtNtCsk6apSIyUfCg_3std3sys2fd4unixNtB2_8FileDesc15set_nonblocking
libcxx-rust-cssparser.so.1:_RNvMNtNtNtCsk6apSIyUfCg_3std3sys2fd4unixNtB2_8FileDesc16read_vectored_at
libcxx-rust-cssparser.so.1:_RNvMNtNtNtCsk6apSIyUfCg_3std3sys2fd4unixNtB2_8FileDesc17write_vectored_at
libcxx-rust-cssparser.so.1:_RNvMNtNtNtCsk6apSIyUfCg_3std3sys2fd4unixNtB2_8FileDesc4read
libcxx-rust-cssparser.so.1:_RNvMNtNtNtCsk6apSIyUfCg_3std3sys2fd4unixNtB2_8FileDesc5write
libcxx-rust-cssparser.so.1:_RNvMNtNtNtCsk6apSIyUfCg_3std3sys2fd4unixNtB2_8FileDesc7read_at
libcxx-rust-cssparser.so.1:_RNvMNtNtNtCsk6apSIyUfCg_3std3sys2fd4unixNtB2_8FileDesc8read_buf
libcxx-rust-cssparser.so.1:_RNvMNtNtNtCsk6apSIyUfCg_3std3sys2fd4unixNtB2_8FileDesc8write_at
libcxx-rust-cssparser.so.1:_RNvMNtNtNtCsk6apSIyUfCg_3std4sync4mpmc7contextNtB2_7Context3new
libcxx-rust-cssparser.so.1:_RNvMNtNtNtCsk6apSIyUfCg_3std4sync6poison7condvarNtB2_7Condvar10notify_all
libcxx-rust-cssparser.so.1:_RNvMNtNtNtCsk6apSIyUfCg_3std4sync6poison7condvarNtB2_7Condvar10notify_one
libcxx-rust-cssparser.so.1:_RNvMNtNtNtCsk6apSIyUfCg_3std4sync9nonpoison7condvarNtB2_7Condvar10notify_all
libcxx-rust-cssparser.so.1:_RNvMNtNtNtCsk6apSIyUfCg_3std4sync9nonpoison7condvarNtB2_7Condvar10notify_one
libcxx-rust-cssparser.so.1:_RNvMNtNtNtNtCsk6apSIyUfCg_3std2io8buffered9bufreader6bufferNtB2_6Buffer9backshift
libcxx-rust-cssparser.so.1:_RNvMNtNtNtNtCsk6apSIyUfCg_3std2os4unix3net4addrNtB2_10SocketAddr10from_parts
libcxx-rust-cssparser.so.1:_RNvMNtNtNtNtCsk6apSIyUfCg_3std2os4unix3net4addrNtB2_10SocketAddr10is_unnamed
libcxx-rust-cssparser.so.1:_RNvMNtNtNtNtCsk6apSIyUfCg_3std2os4unix3net4addrNtB2_10SocketAddr11as_pathname
libcxx-rust-cssparser.so.1:_RNvMNtNtNtNtCsk6apSIyUfCg_3std3sys2fs4unix3dirNtB2_3Dir4open
libcxx-rust-cssparser.so.1:_RNvMNtNtNtNtCsk6apSIyUfCg_3std3sys2fs4unix3dirNtB2_3Dir9open_file
libcxx-rust-cssparser.so.1:_RNvMNtNtNtNtCsk6apSIyUfCg_3std3sys4sync5mutex5futexNtB2_5Mutex14lock_contended
libcxx-rust-cssparser.so.1:_RNvMNtNtNtNtCsk6apSIyUfCg_3std3sys4sync5mutex5futexNtB2_5Mutex4wake
libcxx-rust-cssparser.so.1:_RNvMNtNtNtNtCsk6apSIyUfCg_3std3sys4sync6rwlock5futexNtB2_6RwLock14read_contended
libcxx-rust-cssparser.so.1:_RNvMNtNtNtNtCsk6apSIyUfCg_3std3sys4sync6rwlock5futexNtB2_6RwLock15write_contended
libcxx-rust-cssparser.so.1:_RNvMNtNtNtNtCsk6apSIyUfCg_3std3sys4sync6rwlock5futexNtB2_6RwLock22wake_writer_or_readers
libcxx-rust-cssparser.so.1:_RNvMNtNtNtNtCsk6apSIyUfCg_3std3sys4sync7condvar5futexNtB2_7Condvar12wait_timeout
libcxx-rust-cssparser.so.1:_RNvMNtNtNtNtCsk6apSIyUfCg_3std3sys4sync7condvar5futexNtB2_7Condvar4wait
libcxx-rust-cssparser.so.1:_RNvMNtNtNtNtNtCsk6apSIyUfCg_3std3sys3net10connection6socket4unixNtB2_6Socket3new
libcxx-rust-cssparser.so.1:_RNvMNvMs_NtNtNtCsk6apSIyUfCg_3std2io8buffered9bufwriterINtB7_9BufWriterpE9flush_bufNtB2_8BufGuard9remaining
libcxx-rust-cssparser.so.1:_RNvMs0_NtCs9ZIvzb94SJx_4core6escapeINtB5_15EscapeIterInnerKja_NtB5_12MaybeEscapedE4nextCsglvZrah94c3_14rustc_demangle
libcxx-rust-cssparser.so.1:_RNvMs0_NtNtCs9ZIvzb94SJx_4core3fmt3numo11format_into
libcxx-rust-cssparser.so.1:_RNvMs0_NtNtCs9ZIvzb94SJx_4core3fmt3numo4__fmt
libcxx-rust-cssparser.so.1:_RNvMs0_NtNtCsk6apSIyUfCg_3std3ffi6os_strNtB5_8OsString17into_boxed_os_str
libcxx-rust-cssparser.so.1:_RNvMs0_NtNtCsk6apSIyUfCg_3std4sync4onceNtB5_4Once10wait_force
libcxx-rust-cssparser.so.1:_RNvMs0_NtNtCsk6apSIyUfCg_3std4sync4onceNtB5_4Once4wait
libcxx-rust-cssparser.so.1:_RNvMs0_NtNtCsk6apSIyUfCg_3std4sync7barrierNtB5_7Barrier4wait
libcxx-rust-cssparser.so.1:_RNvMs0_NtNtNtCs4vvGeN3ANz4_6memchr4arch3all6twowayNtB5_5Shift7forward
libcxx-rust-cssparser.so.1:_RNvMs0_NtNtNtCs4vvGeN3ANz4_6memchr4arch3all6twowayNtB5_5Shift7reverse
libcxx-rust-cssparser.so.1:_RNvMs0_NtNtNtCs9ZIvzb94SJx_4core3fmt3num3imph4__fmt
libcxx-rust-cssparser.so.1:_RNvMs0_NtNtNtCshlECYyjYKiK_6object4read2pe8resourceNtNtBb_2pe27ImageResourceDirectoryEntry4data
libcxx-rust-cssparser.so.1:_RNvMs0_NtNtNtCsk6apSIyUfCg_3std2os2fd5ownedNtB5_10BorrowedFd18try_clone_to_owned
libcxx-rust-cssparser.so.1:_RNvMs0_NtNtNtCsk6apSIyUfCg_3std3sys6thread4unixNtB5_6Thread3new
libcxx-rust-cssparser.so.1:_RNvMs0_NtNtNtCsk6apSIyUfCg_3std3sys6thread4unixNtB5_6Thread4join
libcxx-rust-cssparser.so.1:_RNvMs0_NtNtNtNtCsk6apSIyUfCg_3std2os4unix3net6streamNtB5_10UnixStream10local_addr
libcxx-rust-cssparser.so.1:_RNvMs0_NtNtNtNtCsk6apSIyUfCg_3std2os4unix3net6streamNtB5_10UnixStream10take_error
libcxx-rust-cssparser.so.1:_RNvMs0_NtNtNtNtCsk6apSIyUfCg_3std2os4unix3net6streamNtB5_10UnixStream12connect_addr
libcxx-rust-cssparser.so.1:_RNvMs0_NtNtNtNtCsk6apSIyUfCg_3std2os4unix3net6streamNtB5_10UnixStream12read_timeout
libcxx-rust-cssparser.so.1:_RNvMs0_NtNtNtNtCsk6apSIyUfCg_3std2os4unix3net6streamNtB5_10UnixStream13write_timeout
libcxx-rust-cssparser.so.1:_RNvMs0_NtNtNtNtCsk6apSIyUfCg_3std2os4unix3net6streamNtB5_10UnixStream15set_nonblocking
libcxx-rust-cssparser.so.1:_RNvMs0_NtNtNtNtCsk6apSIyUfCg_3std2os4unix3net6streamNtB5_10UnixStream16set_read_timeout
libcxx-rust-cssparser.so.1:_RNvMs0_NtNtNtNtCsk6apSIyUfCg_3std2os4unix3net6streamNtB5_10UnixStream17set_write_timeout
libcxx-rust-cssparser.so.1:_RNvMs0_NtNtNtNtCsk6apSIyUfCg_3std2os4unix3net6streamNtB5_10UnixStream28recv_vectored_with_ancillary
libcxx-rust-cssparser.so.1:_RNvMs0_NtNtNtNtCsk6apSIyUfCg_3std2os4unix3net6streamNtB5_10UnixStream28send_vectored_with_ancillary
libcxx-rust-cssparser.so.1:_RNvMs0_NtNtNtNtCsk6apSIyUfCg_3std2os4unix3net6streamNtB5_10UnixStream4pair
libcxx-rust-cssparser.so.1:_RNvMs0_NtNtNtNtCsk6apSIyUfCg_3std2os4unix3net6streamNtB5_10UnixStream4peek
libcxx-rust-cssparser.so.1:_RNvMs0_NtNtNtNtCsk6apSIyUfCg_3std2os4unix3net6streamNtB5_10UnixStream8set_mark
libcxx-rust-cssparser.so.1:_RNvMs0_NtNtNtNtCsk6apSIyUfCg_3std2os4unix3net6streamNtB5_10UnixStream8shutdown
libcxx-rust-cssparser.so.1:_RNvMs0_NtNtNtNtCsk6apSIyUfCg_3std2os4unix3net6streamNtB5_10UnixStream9peer_addr
libcxx-rust-cssparser.so.1:_RNvMs0_NtNtNtNtCsk6apSIyUfCg_3std2os4unix3net6streamNtB5_10UnixStream9peer_cred
libcxx-rust-cssparser.so.1:_RNvMs0_NtNtNtNtCsk6apSIyUfCg_3std2os4unix3net6streamNtB5_10UnixStream9try_clone
libcxx-rust-cssparser.so.1:_RNvMs0_NtNtNtNtCsk6apSIyUfCg_3std2os4unix3net8datagramNtB5_12UnixDatagram10local_addr
libcxx-rust-cssparser.so.1:_RNvMs0_NtNtNtNtCsk6apSIyUfCg_3std2os4unix3net8datagramNtB5_12UnixDatagram10take_error
libcxx-rust-cssparser.so.1:_RNvMs0_NtNtNtNtCsk6apSIyUfCg_3std2os4unix3net8datagramNtB5_12UnixDatagram12connect_addr
libcxx-rust-cssparser.so.1:_RNvMs0_NtNtNtNtCsk6apSIyUfCg_3std2os4unix3net8datagramNtB5_12UnixDatagram12read_timeout
libcxx-rust-cssparser.so.1:_RNvMs0_NtNtNtNtCsk6apSIyUfCg_3std2os4unix3net8datagramNtB5_12UnixDatagram12send_to_addr
libcxx-rust-cssparser.so.1:_RNvMs0_NtNtNtNtCsk6apSIyUfCg_3std2os4unix3net8datagramNtB5_12UnixDatagram13write_timeout
libcxx-rust-cssparser.so.1:_RNvMs0_NtNtNtNtCsk6apSIyUfCg_3std2os4unix3net8datagramNtB5_12UnixDatagram15set_nonblocking
libcxx-rust-cssparser.so.1:_RNvMs0_NtNtNtNtCsk6apSIyUfCg_3std2os4unix3net8datagramNtB5_12UnixDatagram16set_read_timeout
libcxx-rust-cssparser.so.1:_RNvMs0_NtNtNtNtCsk6apSIyUfCg_3std2os4unix3net8datagramNtB5_12UnixDatagram17set_write_timeout
libcxx-rust-cssparser.so.1:_RNvMs0_NtNtNtNtCsk6apSIyUfCg_3std2os4unix3net8datagramNtB5_12UnixDatagram28recv_vectored_with_ancillary
libcxx-rust-cssparser.so.1:_RNvMs0_NtNtNtNtCsk6apSIyUfCg_3std2os4unix3net8datagramNtB5_12UnixDatagram28send_vectored_with_ancillary
libcxx-rust-cssparser.so.1:_RNvMs0_NtNtNtNtCsk6apSIyUfCg_3std2os4unix3net8datagramNtB5_12UnixDatagram33recv_vectored_with_ancillary_from
libcxx-rust-cssparser.so.1:_RNvMs0_NtNtNtNtCsk6apSIyUfCg_3std2os4unix3net8datagramNtB5_12UnixDatagram4pair
libcxx-rust-cssparser.so.1:_RNvMs0_NtNtNtNtCsk6apSIyUfCg_3std2os4unix3net8datagramNtB5_12UnixDatagram4peek
libcxx-rust-cssparser.so.1:_RNvMs0_NtNtNtNtCsk6apSIyUfCg_3std2os4unix3net8datagramNtB5_12UnixDatagram4recv
libcxx-rust-cssparser.so.1:_RNvMs0_NtNtNtNtCsk6apSIyUfCg_3std2os4unix3net8datagramNtB5_12UnixDatagram4send
libcxx-rust-cssparser.so.1:_RNvMs0_NtNtNtNtCsk6apSIyUfCg_3std2os4unix3net8datagramNtB5_12UnixDatagram7unbound
libcxx-rust-cssparser.so.1:_RNvMs0_NtNtNtNtCsk6apSIyUfCg_3std2os4unix3net8datagramNtB5_12UnixDatagram8set_mark
libcxx-rust-cssparser.so.1:_RNvMs0_NtNtNtNtCsk6apSIyUfCg_3std2os4unix3net8datagramNtB5_12UnixDatagram8shutdown
libcxx-rust-cssparser.so.1:_RNvMs0_NtNtNtNtCsk6apSIyUfCg_3std2os4unix3net8datagramNtB5_12UnixDatagram9bind_addr
libcxx-rust-cssparser.so.1:_RNvMs0_NtNtNtNtCsk6apSIyUfCg_3std2os4unix3net8datagramNtB5_12UnixDatagram9peek_from
libcxx-rust-cssparser.so.1:_RNvMs0_NtNtNtNtCsk6apSIyUfCg_3std2os4unix3net8datagramNtB5_12UnixDatagram9peer_addr
libcxx-rust-cssparser.so.1:_RNvMs0_NtNtNtNtCsk6apSIyUfCg_3std2os4unix3net8datagramNtB5_12UnixDatagram9recv_from
libcxx-rust-cssparser.so.1:_RNvMs0_NtNtNtNtCsk6apSIyUfCg_3std2os4unix3net8datagramNtB5_12UnixDatagram9try_clone
libcxx-rust-cssparser.so.1:_RNvMs0_NtNtNtNtCsk6apSIyUfCg_3std3sys4sync4once5futexNtB5_4Once4call
libcxx-rust-cssparser.so.1:_RNvMs16_NtCsk6apSIyUfCg_3std4pathNtB6_4Path10__ends_with
libcxx-rust-cssparser.so.1:_RNvMs16_NtCsk6apSIyUfCg_3std4pathNtB6_4Path10components
libcxx-rust-cssparser.so.1:_RNvMs16_NtCsk6apSIyUfCg_3std4pathNtB6_4Path10is_symlink
libcxx-rust-cssparser.so.1:_RNvMs16_NtCsk6apSIyUfCg_3std4pathNtB6_4Path11file_prefix
libcxx-rust-cssparser.so.1:_RNvMs16_NtCsk6apSIyUfCg_3std4pathNtB6_4Path11is_absolute
libcxx-rust-cssparser.so.1:_RNvMs16_NtCsk6apSIyUfCg_3std4pathNtB6_4Path11to_path_buf
libcxx-rust-cssparser.so.1:_RNvMs16_NtCsk6apSIyUfCg_3std4pathNtB6_4Path12__starts_with
libcxx-rust-cssparser.so.1:_RNvMs16_NtCsk6apSIyUfCg_3std4pathNtB6_4Path13__strip_prefix
libcxx-rust-cssparser.so.1:_RNvMs16_NtCsk6apSIyUfCg_3std4pathNtB6_4Path13into_path_buf
libcxx-rust-cssparser.so.1:_RNvMs16_NtCsk6apSIyUfCg_3std4pathNtB6_4Path15__with_extension
libcxx-rust-cssparser.so.1:_RNvMs16_NtCsk6apSIyUfCg_3std4pathNtB6_4Path15__with_file_name
libcxx-rust-cssparser.so.1:_RNvMs16_NtCsk6apSIyUfCg_3std4pathNtB6_4Path19normalize_lexically
libcxx-rust-cssparser.so.1:_RNvMs16_NtCsk6apSIyUfCg_3std4pathNtB6_4Path5__join
libcxx-rust-cssparser.so.1:_RNvMs16_NtCsk6apSIyUfCg_3std4pathNtB6_4Path6is_dir
libcxx-rust-cssparser.so.1:_RNvMs16_NtCsk6apSIyUfCg_3std4pathNtB6_4Path6parent
libcxx-rust-cssparser.so.1:_RNvMs16_NtCsk6apSIyUfCg_3std4pathNtB6_4Path7is_file
libcxx-rust-cssparser.so.1:_RNvMs16_NtCsk6apSIyUfCg_3std4pathNtB6_4Path9extension
libcxx-rust-cssparser.so.1:_RNvMs16_NtCsk6apSIyUfCg_3std4pathNtB6_4Path9file_name
libcxx-rust-cssparser.so.1:_RNvMs16_NtCsk6apSIyUfCg_3std4pathNtB6_4Path9file_stem
libcxx-rust-cssparser.so.1:_RNvMs19_NtCs4z76MhC0nbo_5alloc6stringNtB6_5Drain6as_str
libcxx-rust-cssparser.so.1:_RNvMs1_NtNtCs9ZIvzb94SJx_4core3fmt3numn11format_into
libcxx-rust-cssparser.so.1:_RNvMs1_NtNtCs9ZIvzb94SJx_4core3fmt8buildersNtB5_11DebugStruct21finish_non_exhaustive
libcxx-rust-cssparser.so.1:_RNvMs1_NtNtCs9ZIvzb94SJx_4core3fmt8buildersNtB5_11DebugStruct5field
libcxx-rust-cssparser.so.1:_RNvMs1_NtNtCs9ZIvzb94SJx_4core3fmt8buildersNtB5_11DebugStruct6finish
libcxx-rust-cssparser.so.1:_RNvMs1_NtNtCs9ZIvzb94SJx_4core3net6parserNtNtB7_7ip_addr8Ipv4Addr11parse_ascii
libcxx-rust-cssparser.so.1:_RNvMs1_NtNtCsk6apSIyUfCg_3std2io5stdioNtB5_5Stdin4lock
libcxx-rust-cssparser.so.1:_RNvMs1_NtNtCsk6apSIyUfCg_3std2io5stdioNtB5_5Stdin5lines
libcxx-rust-cssparser.so.1:_RNvMs1_NtNtCsk6apSIyUfCg_3std2io5stdioNtB5_5Stdin9read_line
libcxx-rust-cssparser.so.1:_RNvMs1_NtNtNtCs9ZIvzb94SJx_4core3fmt3num3impa11format_into
libcxx-rust-cssparser.so.1:_RNvMs1_NtNtNtCshlECYyjYKiK_6object4read2pe6exportNtB5_11ExportTable14forward_string
libcxx-rust-cssparser.so.1:_RNvMs1_NtNtNtCshlECYyjYKiK_6object4read2pe6exportNtB5_11ExportTable15parse_directory
libcxx-rust-cssparser.so.1:_RNvMs1_NtNtNtCshlECYyjYKiK_6object4read2pe6exportNtB5_11ExportTable15target_by_index
libcxx-rust-cssparser.so.1:_RNvMs1_NtNtNtCshlECYyjYKiK_6object4read2pe6exportNtB5_11ExportTable17name_from_pointer
libcxx-rust-cssparser.so.1:_RNvMs1_NtNtNtCshlECYyjYKiK_6object4read2pe6exportNtB5_11ExportTable17target_by_ordinal
libcxx-rust-cssparser.so.1:_RNvMs1_NtNtNtCshlECYyjYKiK_6object4read2pe6exportNtB5_11ExportTable18address_by_ordinal
libcxx-rust-cssparser.so.1:_RNvMs1_NtNtNtCshlECYyjYKiK_6object4read2pe6exportNtB5_11ExportTable19target_from_address
libcxx-rust-cssparser.so.1:_RNvMs1_NtNtNtCshlECYyjYKiK_6object4read2pe6exportNtB5_11ExportTable5parse
libcxx-rust-cssparser.so.1:_RNvMs1_NtNtNtCshlECYyjYKiK_6object4read2pe6exportNtB5_11ExportTable7exports
libcxx-rust-cssparser.so.1:_RNvMs1_NtNtNtCshlECYyjYKiK_6object4read2pe6exportNtB5_11ExportTable9name_iter
libcxx-rust-cssparser.so.1:_RNvMs1b_NtCsd97RIzLnxns_5gimli9constantsNtB6_4DwAt13static_string
libcxx-rust-cssparser.so.1:_RNvMs1n_NtCsd97RIzLnxns_5gimli9constantsNtB6_6DwForm13static_string
libcxx-rust-cssparser.so.1:_RNvMs2V_NtCsd97RIzLnxns_5gimli9constantsNtB6_6DwLang13static_string
libcxx-rust-cssparser.so.1:_RNvMs2_NtCs4z76MhC0nbo_5alloc4wtf8NtB5_7Wtf8Buf11into_string
libcxx-rust-cssparser.so.1:_RNvMs2_NtCs4z76MhC0nbo_5alloc4wtf8NtB5_7Wtf8Buf17into_string_lossy
libcxx-rust-cssparser.so.1:_RNvMs2_NtCs4z76MhC0nbo_5alloc4wtf8NtB5_7Wtf8Buf25push_code_point_unchecked
libcxx-rust-cssparser.so.1:_RNvMs2_NtCs4z76MhC0nbo_5alloc4wtf8NtB5_7Wtf8Buf8from_box
libcxx-rust-cssparser.so.1:_RNvMs2_NtCs4z76MhC0nbo_5alloc4wtf8NtB5_7Wtf8Buf9from_wide
libcxx-rust-cssparser.so.1:_RNvMs2_NtCs4z76MhC0nbo_5alloc7raw_vecNtB5_11RawVecInner10deallocateCsd97RIzLnxns_5gimli
libcxx-rust-cssparser.so.1:_RNvMs2_NtCsk6apSIyUfCg_3std2fsNtB5_4File11lock_shared
libcxx-rust-cssparser.so.1:_RNvMs2_NtCsk6apSIyUfCg_3std2fsNtB5_4File15set_permissions
libcxx-rust-cssparser.so.1:_RNvMs2_NtCsk6apSIyUfCg_3std2fsNtB5_4File15try_lock_shared
libcxx-rust-cssparser.so.1:_RNvMs2_NtCsk6apSIyUfCg_3std2fsNtB5_4File4lock
libcxx-rust-cssparser.so.1:_RNvMs2_NtCsk6apSIyUfCg_3std2fsNtB5_4File6unlock
libcxx-rust-cssparser.so.1:_RNvMs2_NtCsk6apSIyUfCg_3std2fsNtB5_4File7set_len
libcxx-rust-cssparser.so.1:_RNvMs2_NtCsk6apSIyUfCg_3std2fsNtB5_4File8metadata
libcxx-rust-cssparser.so.1:_RNvMs2_NtCsk6apSIyUfCg_3std2fsNtB5_4File8sync_all
libcxx-rust-cssparser.so.1:_RNvMs2_NtCsk6apSIyUfCg_3std2fsNtB5_4File8try_lock
libcxx-rust-cssparser.so.1:_RNvMs2_NtCsk6apSIyUfCg_3std2fsNtB5_4File9set_times
libcxx-rust-cssparser.so.1:_RNvMs2_NtCsk6apSIyUfCg_3std2fsNtB5_4File9sync_data
libcxx-rust-cssparser.so.1:_RNvMs2_NtCsk6apSIyUfCg_3std2fsNtB5_4File9try_clone
libcxx-rust-cssparser.so.1:_RNvMs2_NtCsk6apSIyUfCg_3std2ioNtB5_10IoSliceMut10into_slice
libcxx-rust-cssparser.so.1:_RNvMs2_NtCsk6apSIyUfCg_3std9backtraceNtB5_9Backtrace13force_capture
libcxx-rust-cssparser.so.1:_RNvMs2_NtCsk6apSIyUfCg_3std9backtraceNtB5_9Backtrace7capture
libcxx-rust-cssparser.so.1:_RNvMs2_NtNtCs9ZIvzb94SJx_4core3fmt8buildersNtB5_10DebugTuple21finish_non_exhaustive
libcxx-rust-cssparser.so.1:_RNvMs2_NtNtCs9ZIvzb94SJx_4core3fmt8buildersNtB5_10DebugTuple5field
libcxx-rust-cssparser.so.1:_RNvMs2_NtNtCs9ZIvzb94SJx_4core3fmt8buildersNtB5_10DebugTuple6finish
libcxx-rust-cssparser.so.1:_RNvMs2_NtNtCs9ZIvzb94SJx_4core3num6bignumNtB5_8Big32x4010bit_length
libcxx-rust-cssparser.so.1:_RNvMs2_NtNtCs9ZIvzb94SJx_4core3num6bignumNtB5_8Big32x4010mul_digits
libcxx-rust-cssparser.so.1:_RNvMs2_NtNtCs9ZIvzb94SJx_4core3num6bignumNtB5_8Big32x4013div_rem_small
libcxx-rust-cssparser.so.1:_RNvMs2_NtNtCs9ZIvzb94SJx_4core3num6bignumNtB5_8Big32x403add
libcxx-rust-cssparser.so.1:_RNvMs2_NtNtCs9ZIvzb94SJx_4core3num6bignumNtB5_8Big32x403sub
libcxx-rust-cssparser.so.1:_RNvMs2_NtNtCs9ZIvzb94SJx_4core3num6bignumNtB5_8Big32x406digits
libcxx-rust-cssparser.so.1:_RNvMs2_NtNtCs9ZIvzb94SJx_4core3num6bignumNtB5_8Big32x407is_zero
libcxx-rust-cssparser.so.1:_RNvMs2_NtNtCs9ZIvzb94SJx_4core3num6bignumNtB5_8Big32x408mul_pow2
libcxx-rust-cssparser.so.1:_RNvMs2_NtNtCs9ZIvzb94SJx_4core3num6bignumNtB5_8Big32x408mul_pow5
libcxx-rust-cssparser.so.1:_RNvMs2_NtNtCs9ZIvzb94SJx_4core3num6bignumNtB5_8Big32x409mul_small
libcxx-rust-cssparser.so.1:_RNvMs2_NtNtCsk6apSIyUfCg_3std2io4pipeNtB5_10PipeReader9try_clone
libcxx-rust-cssparser.so.1:_RNvMs2_NtNtNtCs9ZIvzb94SJx_4core3fmt3num3imph11format_into
libcxx-rust-cssparser.so.1:_RNvMs2_NtNtNtCshlECYyjYKiK_6object4read2pe8resourceNtB5_12ResourceName15to_string_lossy
libcxx-rust-cssparser.so.1:_RNvMs2_NtNtNtCshlECYyjYKiK_6object4read2pe8resourceNtB5_12ResourceName4data
libcxx-rust-cssparser.so.1:_RNvMs2_NtNtNtCshlECYyjYKiK_6object4read2pe8resourceNtB5_12ResourceName8raw_data
libcxx-rust-cssparser.so.1:_RNvMs3_NtCs4z76MhC0nbo_5alloc3stre12to_lowercase
libcxx-rust-cssparser.so.1:_RNvMs3_NtCs4z76MhC0nbo_5alloc3stre12to_uppercase
libcxx-rust-cssparser.so.1:_RNvMs3_NtCs4z76MhC0nbo_5alloc7raw_vecINtB5_6RawVecINtNtB7_3vec3VechEE8grow_oneCsk6apSIyUfCg_3std
libcxx-rust-cssparser.so.1:_RNvMs3_NtCs4z76MhC0nbo_5alloc7raw_vecINtB5_6RawVecINtNtB7_5boxed3BoxDINtNtNtCs9ZIvzb94SJx_4core3ops8function5FnMutuEp6OutputINtNtB1c_6result6ResultuNtNtNtCsk6apSIyUfCg_3std2io5error5ErrorENtNtB1c_6marker4SyncNtB32_4SendEL_EE8grow_oneB2s_
libcxx-rust-cssparser.so.1:_RNvMs3_NtCs4z76MhC0nbo_5alloc7raw_vecINtB5_6RawVecINtNtCs6TFdUlxcy5y_9addr2line4unit7ResUnitINtNtNtCsd97RIzLnxns_5gimli4read12endian_slice11EndianSliceNtNtB1z_9endianity12LittleEndianEEE8grow_oneCsk6apSIyUfCg_3std
libcxx-rust-cssparser.so.1:_RNvMs3_NtCs4z76MhC0nbo_5alloc7raw_vecINtB5_6RawVecINtNtCs6TFdUlxcy5y_9addr2line4unit7SupUnitINtNtNtCsd97RIzLnxns_5gimli4read12endian_slice11EndianSliceNtNtB1z_9endianity12LittleEndianEEE8grow_oneCsk6apSIyUfCg_3std
libcxx-rust-cssparser.so.1:_RNvMs3_NtCs4z76MhC0nbo_5alloc7raw_vecINtB5_6RawVecINtNtCs6TFdUlxcy5y_9addr2line8function12LazyFunctionINtNtNtCsd97RIzLnxns_5gimli4read12endian_slice11EndianSliceNtNtB1J_9endianity12LittleEndianEEE8grow_oneCsk6apSIyUfCg_3std
libcxx-rust-cssparser.so.1:_RNvMs3_NtCs4z76MhC0nbo_5alloc7raw_vecINtB5_6RawVecINtNtCs6TFdUlxcy5y_9addr2line8function15InlinedFunctionINtNtNtCsd97RIzLnxns_5gimli4read12endian_slice11EndianSliceNtNtB1M_9endianity12LittleEndianEEE8grow_oneCsk6apSIyUfCg_3std
libcxx-rust-cssparser.so.1:_RNvMs3_NtCs4z76MhC0nbo_5alloc7raw_vecINtB5_6RawVecINtNtNtCsd97RIzLnxns_5gimli4read4line9FileEntryINtNtBR_12endian_slice11EndianSliceNtNtBT_9endianity12LittleEndianEjEE8grow_oneCsk6apSIyUfCg_3std
libcxx-rust-cssparser.so.1:_RNvMs3_NtCs4z76MhC0nbo_5alloc7raw_vecINtB5_6RawVecINtNtNtCsd97RIzLnxns_5gimli4read4unit14AttributeValueINtNtBR_12endian_slice11EndianSliceNtNtBT_9endianity12LittleEndianEjEE8grow_oneCsk6apSIyUfCg_3std
libcxx-rust-cssparser.so.1:_RNvMs3_NtCs4z76MhC0nbo_5alloc7raw_vecINtB5_6RawVecNtNtB7_6string6StringE8grow_oneCsk6apSIyUfCg_3std
libcxx-rust-cssparser.so.1:_RNvMs3_NtCs4z76MhC0nbo_5alloc7raw_vecINtB5_6RawVecNtNtCs6TFdUlxcy5y_9addr2line4line12LineSequenceE8grow_oneCsk6apSIyUfCg_3std
libcxx-rust-cssparser.so.1:_RNvMs3_NtCs4z76MhC0nbo_5alloc7raw_vecINtB5_6RawVecNtNtCs6TFdUlxcy5y_9addr2line4line7LineRowE8grow_oneCsk6apSIyUfCg_3std
libcxx-rust-cssparser.so.1:_RNvMs3_NtCs4z76MhC0nbo_5alloc7raw_vecINtB5_6RawVecNtNtCs6TFdUlxcy5y_9addr2line4unit9UnitRangeE8grow_oneCsk6apSIyUfCg_3std
libcxx-rust-cssparser.so.1:_RNvMs3_NtCs4z76MhC0nbo_5alloc7raw_vecINtB5_6RawVecNtNtCs6TFdUlxcy5y_9addr2line8function15FunctionAddressE8grow_oneCsk6apSIyUfCg_3std
libcxx-rust-cssparser.so.1:_RNvMs3_NtCs4z76MhC0nbo_5alloc7raw_vecINtB5_6RawVecNtNtCs6TFdUlxcy5y_9addr2line8function22InlinedFunctionAddressE8grow_oneCsk6apSIyUfCg_3std
libcxx-rust-cssparser.so.1:_RNvMs3_NtCs4z76MhC0nbo_5alloc7raw_vecINtB5_6RawVecNtNtCsk6apSIyUfCg_3std9backtrace14BacktraceFrameE8grow_oneBQ_
libcxx-rust-cssparser.so.1:_RNvMs3_NtCs4z76MhC0nbo_5alloc7raw_vecINtB5_6RawVecNtNtCsk6apSIyUfCg_3std9backtrace15BacktraceSymbolE8grow_oneBQ_
libcxx-rust-cssparser.so.1:_RNvMs3_NtCs4z76MhC0nbo_5alloc7raw_vecINtB5_6RawVecNtNtNtCsd97RIzLnxns_5gimli4read4line15FileEntryFormatE8grow_oneCsk6apSIyUfCg_3std
libcxx-rust-cssparser.so.1:_RNvMs3_NtCs4z76MhC0nbo_5alloc7raw_vecINtB5_6RawVecNtNtNtCsd97RIzLnxns_5gimli4read6abbrev12AbbreviationE8grow_oneBS_
libcxx-rust-cssparser.so.1:_RNvMs3_NtCs4z76MhC0nbo_5alloc7raw_vecINtB5_6RawVecNtNtNtCsd97RIzLnxns_5gimli4read6abbrev22AttributeSpecificationE8grow_oneBS_
libcxx-rust-cssparser.so.1:_RNvMs3_NtCs4z76MhC0nbo_5alloc7raw_vecINtB5_6RawVecNtNtNtCsk6apSIyUfCg_3std3ffi6os_str8OsStringE8grow_oneBS_
libcxx-rust-cssparser.so.1:_RNvMs3_NtCs4z76MhC0nbo_5alloc7raw_vecINtB5_6RawVecNtNtNtNtCshlECYyjYKiK_6object4read2pe6export6ExportE8grow_oneBU_
libcxx-rust-cssparser.so.1:_RNvMs3_NtCs4z76MhC0nbo_5alloc7raw_vecINtB5_6RawVecNtNtNtNtCsk6apSIyUfCg_3std12backtrace_rs9symbolize5gimli7LibraryE8grow_oneBU_
libcxx-rust-cssparser.so.1:_RNvMs3_NtCs4z76MhC0nbo_5alloc7raw_vecINtB5_6RawVecNtNtNtNtNtCsk6apSIyUfCg_3std12backtrace_rs9symbolize5gimli19parse_running_mmaps9MapsEntryE8grow_oneBW_
libcxx-rust-cssparser.so.1:_RNvMs3_NtCs4z76MhC0nbo_5alloc7raw_vecINtB5_6RawVecNtNtNtNtNtCsk6apSIyUfCg_3std12backtrace_rs9symbolize5gimli4mmap4MmapE8grow_oneBW_
libcxx-rust-cssparser.so.1:_RNvMs3_NtCs4z76MhC0nbo_5alloc7raw_vecINtB5_6RawVecPaE8grow_oneCsk6apSIyUfCg_3std
libcxx-rust-cssparser.so.1:_RNvMs3_NtCs4z76MhC0nbo_5alloc7raw_vecINtB5_6RawVecRINtNtCs6TFdUlxcy5y_9addr2line8function15InlinedFunctionINtNtNtCsd97RIzLnxns_5gimli4read12endian_slice11EndianSliceNtNtB1N_9endianity12LittleEndianEEE8grow_oneCsk6apSIyUfCg_3std
libcxx-rust-cssparser.so.1:_RNvMs3_NtCs4z76MhC0nbo_5alloc7raw_vecINtB5_6RawVecTNtNtCsd97RIzLnxns_5gimli6common15DebugInfoOffsetNtBP_18DebugArangesOffsetEE8grow_oneCsk6apSIyUfCg_3std
libcxx-rust-cssparser.so.1:_RNvMs3_NtCs4z76MhC0nbo_5alloc7raw_vecINtB5_6RawVecTNtNtNtCsk6apSIyUfCg_3std3ffi6os_str8OsStringBN_EE8grow_oneBT_
libcxx-rust-cssparser.so.1:_RNvMs3_NtCs4z76MhC0nbo_5alloc7raw_vecINtB5_6RawVecTOhFUKCBN_EuENtNtCsk6apSIyUfCg_3std5alloc6SystemE8grow_oneB13_
libcxx-rust-cssparser.so.1:_RNvMs3_NtCs4z76MhC0nbo_5alloc7raw_vecINtB5_6RawVechE8grow_oneB7_
libcxx-rust-cssparser.so.1:_RNvMs3_NtCsd97RIzLnxns_5gimli4archNtB5_3Arm13register_name
libcxx-rust-cssparser.so.1:_RNvMs3_NtCsd97RIzLnxns_5gimli4archNtB5_3Arm16name_to_register
libcxx-rust-cssparser.so.1:_RNvMs3_NtCsk6apSIyUfCg_3std9backtraceNtB5_9Backtrace6frames
libcxx-rust-cssparser.so.1:_RNvMs3_NtNtCs9ZIvzb94SJx_4core3ffi5c_strNtB5_4CStr19from_bytes_with_nul
libcxx-rust-cssparser.so.1:_RNvMs3_NtNtCs9ZIvzb94SJx_4core3ffi5c_strNtB5_4CStr20from_bytes_until_nul
libcxx-rust-cssparser.so.1:_RNvMs3_NtNtCs9ZIvzb94SJx_4core3ffi5c_strNtB5_4CStr6to_str
libcxx-rust-cssparser.so.1:_RNvMs3_NtNtCs9ZIvzb94SJx_4core3net6parserNtNtB7_7ip_addr8Ipv6Addr11parse_ascii
libcxx-rust-cssparser.so.1:_RNvMs3_NtNtCsk6apSIyUfCg_3std2io4pipeNtB5_10PipeWriter9try_clone
libcxx-rust-cssparser.so.1:_RNvMs4_NtCs4z76MhC0nbo_5alloc7raw_vecNtB5_11RawVecInner11finish_growCsd97RIzLnxns_5gimli
libcxx-rust-cssparser.so.1:_RNvMs4_NtCs4z76MhC0nbo_5alloc7raw_vecNtB5_11RawVecInner14grow_amortizedCsd97RIzLnxns_5gimli
libcxx-rust-cssparser.so.1:_RNvMs4_NtCs4z76MhC0nbo_5alloc7raw_vecNtB5_11RawVecInner15try_allocate_inCsd97RIzLnxns_5gimli
libcxx-rust-cssparser.so.1:_RNvMs4_NtNtCs9ZIvzb94SJx_4core3fmt8buildersNtB5_8DebugSet21finish_non_exhaustive
libcxx-rust-cssparser.so.1:_RNvMs4_NtNtCs9ZIvzb94SJx_4core3fmt8buildersNtB5_8DebugSet5entry
libcxx-rust-cssparser.so.1:_RNvMs4_NtNtCs9ZIvzb94SJx_4core3fmt8buildersNtB5_8DebugSet6finish
libcxx-rust-cssparser.so.1:_RNvMs4_NtNtCsd97RIzLnxns_5gimli4read6abbrevNtB5_13Abbreviations6insert
libcxx-rust-cssparser.so.1:_RNvMs4_NtNtNtCshlECYyjYKiK_6object4read2pe6importNtB5_20DelayLoadImportTable4name
libcxx-rust-cssparser.so.1:_RNvMs4_NtNtNtCshlECYyjYKiK_6object4read2pe6importNtB5_20DelayLoadImportTable9hint_name
libcxx-rust-cssparser.so.1:_RNvMs5P_NtCsd97RIzLnxns_5gimli9constantsNtB6_4DwOp13static_string
libcxx-rust-cssparser.so.1:_RNvMs5_NtCs4z76MhC0nbo_5alloc4wtf8NtNtCs9ZIvzb94SJx_4core4wtf84Wtf810clone_into
libcxx-rust-cssparser.so.1:_RNvMs5_NtCs4z76MhC0nbo_5alloc4wtf8NtNtCs9ZIvzb94SJx_4core4wtf84Wtf815to_string_lossy
libcxx-rust-cssparser.so.1:_RNvMs5_NtCs4z76MhC0nbo_5alloc4wtf8NtNtCs9ZIvzb94SJx_4core4wtf84Wtf87into_rc
libcxx-rust-cssparser.so.1:_RNvMs5_NtCs4z76MhC0nbo_5alloc4wtf8NtNtCs9ZIvzb94SJx_4core4wtf84Wtf88into_arc
libcxx-rust-cssparser.so.1:_RNvMs5_NtCs4z76MhC0nbo_5alloc4wtf8NtNtCs9ZIvzb94SJx_4core4wtf84Wtf88into_box
libcxx-rust-cssparser.so.1:_RNvMs5_NtCs4z76MhC0nbo_5alloc4wtf8NtNtCs9ZIvzb94SJx_4core4wtf84Wtf88to_owned
libcxx-rust-cssparser.so.1:_RNvMs5_NtCsk6apSIyUfCg_3std4timeNtB5_10SystemTime11checked_add
libcxx-rust-cssparser.so.1:_RNvMs5_NtCsk6apSIyUfCg_3std4timeNtB5_10SystemTime11checked_sub
libcxx-rust-cssparser.so.1:_RNvMs5_NtCsk6apSIyUfCg_3std4timeNtB5_10SystemTime14duration_since
libcxx-rust-cssparser.so.1:_RNvMs5_NtCsk6apSIyUfCg_3std4timeNtB5_10SystemTime14saturating_add
libcxx-rust-cssparser.so.1:_RNvMs5_NtCsk6apSIyUfCg_3std4timeNtB5_10SystemTime14saturating_sub
libcxx-rust-cssparser.so.1:_RNvMs5_NtCsk6apSIyUfCg_3std4timeNtB5_10SystemTime25saturating_duration_since
libcxx-rust-cssparser.so.1:_RNvMs5_NtCsk6apSIyUfCg_3std4timeNtB5_10SystemTime3now
libcxx-rust-cssparser.so.1:_RNvMs5_NtCsk6apSIyUfCg_3std4timeNtB5_10SystemTime7elapsed
libcxx-rust-cssparser.so.1:_RNvMs5_NtNtCs9ZIvzb94SJx_4core3fmt8buildersNtB5_9DebugList21finish_non_exhaustive
libcxx-rust-cssparser.so.1:_RNvMs5_NtNtCs9ZIvzb94SJx_4core3fmt8buildersNtB5_9DebugList5entry
libcxx-rust-cssparser.so.1:_RNvMs5_NtNtCs9ZIvzb94SJx_4core3fmt8buildersNtB5_9DebugList6finish
libcxx-rust-cssparser.so.1:_RNvMs5_NtNtCs9ZIvzb94SJx_4core3net6parserNtNtB7_11socket_addr12SocketAddrV411parse_ascii
libcxx-rust-cssparser.so.1:_RNvMs5_NtNtCsd97RIzLnxns_5gimli4read6abbrevNtB5_12Abbreviation3new
libcxx-rust-cssparser.so.1:_RNvMs5_NtNtCsk6apSIyUfCg_3std2io5errorNtB5_5Error4__new
libcxx-rust-cssparser.so.1:_RNvMs5_NtNtNtCs9ZIvzb94SJx_4core3fmt3num3impt4__fmt
libcxx-rust-cssparser.so.1:_RNvMs5_NtNtNtCshlECYyjYKiK_6object4read2pe6importNtB5_27DelayLoadDescriptorIterator4next
libcxx-rust-cssparser.so.1:_RNvMs5_NtNtNtCshlECYyjYKiK_6object4read3elf10attributesNtB5_22AttributeIndexIterator4next
libcxx-rust-cssparser.so.1:_RNvMs5_NtNtNtNtCsk6apSIyUfCg_3std2os4unix3net9ancillaryNtB5_15SocketAncillary7add_fds
libcxx-rust-cssparser.so.1:_RNvMs5_NtNtNtNtCsk6apSIyUfCg_3std2os4unix3net9ancillaryNtB5_15SocketAncillary8messages
libcxx-rust-cssparser.so.1:_RNvMs5_NtNtNtNtCsk6apSIyUfCg_3std2os4unix3net9ancillaryNtB5_15SocketAncillary9add_creds
libcxx-rust-cssparser.so.1:_RNvMs6_NtNtCs9ZIvzb94SJx_4core3fmt8buildersNtB5_8DebugMap21finish_non_exhaustive
libcxx-rust-cssparser.so.1:_RNvMs6_NtNtCs9ZIvzb94SJx_4core3fmt8buildersNtB5_8DebugMap3key
libcxx-rust-cssparser.so.1:_RNvMs6_NtNtCs9ZIvzb94SJx_4core3fmt8buildersNtB5_8DebugMap5entry
libcxx-rust-cssparser.so.1:_RNvMs6_NtNtCs9ZIvzb94SJx_4core3fmt8buildersNtB5_8DebugMap5value
libcxx-rust-cssparser.so.1:_RNvMs6_NtNtCs9ZIvzb94SJx_4core3fmt8buildersNtB5_8DebugMap6finish
libcxx-rust-cssparser.so.1:_RNvMs6_NtNtCsd97RIzLnxns_5gimli4read6abbrevNtB5_10Attributes4push
libcxx-rust-cssparser.so.1:_RNvMs6_NtNtNtCs9ZIvzb94SJx_4core3fmt3num3imps11format_into
libcxx-rust-cssparser.so.1:_RNvMs6_NtNtNtCshlECYyjYKiK_6object4read2pe7sectionNtNtNtB9_4coff7section12SectionTable16pe_file_range_at
libcxx-rust-cssparser.so.1:_RNvMs6_NtNtNtCshlECYyjYKiK_6object4read2pe7sectionNtNtNtB9_4coff7section12SectionTable18section_containing
libcxx-rust-cssparser.so.1:_RNvMs6_NtNtNtNtCs4z76MhC0nbo_5alloc11collections5btree3map5entryINtB5_11VacantEntryyNtNtNtCsd97RIzLnxns_5gimli4read6abbrev12AbbreviationE12insert_entryB1q_
libcxx-rust-cssparser.so.1:_RNvMs7_NtNtCs9ZIvzb94SJx_4core3net6parserNtNtB7_11socket_addr12SocketAddrV611parse_ascii
libcxx-rust-cssparser.so.1:_RNvMs7_NtNtCsk6apSIyUfCg_3std3net3tcpNtB5_11TcpListener10local_addr
libcxx-rust-cssparser.so.1:_RNvMs7_NtNtCsk6apSIyUfCg_3std3net3tcpNtB5_11TcpListener10take_error
libcxx-rust-cssparser.so.1:_RNvMs7_NtNtCsk6apSIyUfCg_3std3net3tcpNtB5_11TcpListener11set_only_v6
libcxx-rust-cssparser.so.1:_RNvMs7_NtNtCsk6apSIyUfCg_3std3net3tcpNtB5_11TcpListener15set_nonblocking
libcxx-rust-cssparser.so.1:_RNvMs7_NtNtCsk6apSIyUfCg_3std3net3tcpNtB5_11TcpListener3ttl
libcxx-rust-cssparser.so.1:_RNvMs7_NtNtCsk6apSIyUfCg_3std3net3tcpNtB5_11TcpListener6accept
libcxx-rust-cssparser.so.1:_RNvMs7_NtNtCsk6apSIyUfCg_3std3net3tcpNtB5_11TcpListener7only_v6
libcxx-rust-cssparser.so.1:_RNvMs7_NtNtCsk6apSIyUfCg_3std3net3tcpNtB5_11TcpListener7set_ttl
libcxx-rust-cssparser.so.1:_RNvMs7_NtNtCsk6apSIyUfCg_3std3net3tcpNtB5_11TcpListener9try_clone
libcxx-rust-cssparser.so.1:_RNvMs7_NtNtNtCs9ZIvzb94SJx_4core3fmt3num3impt11format_into
libcxx-rust-cssparser.so.1:_RNvMs7_NtNtNtCshlECYyjYKiK_6object4read2pe7sectionNtNtBb_2pe18ImageSectionHeader13pe_file_range
libcxx-rust-cssparser.so.1:_RNvMs7_NtNtNtCshlECYyjYKiK_6object4read2pe7sectionNtNtBb_2pe18ImageSectionHeader16pe_file_range_at
libcxx-rust-cssparser.so.1:_RNvMs7_NtNtNtCshlECYyjYKiK_6object4read3elf10attributesNtB5_15AttributeReader11read_string
libcxx-rust-cssparser.so.1:_RNvMs7_NtNtNtCshlECYyjYKiK_6object4read3elf10attributesNtB5_15AttributeReader12read_integer
libcxx-rust-cssparser.so.1:_RNvMs7_NtNtNtCshlECYyjYKiK_6object4read3elf10attributesNtB5_15AttributeReader8read_tag
libcxx-rust-cssparser.so.1:_RNvMs7_NtNtNtNtCs4z76MhC0nbo_5alloc11collections5btree3map5entryINtB5_13OccupiedEntryyNtNtNtCsd97RIzLnxns_5gimli4read6abbrev12AbbreviationE8into_mutB1s_
libcxx-rust-cssparser.so.1:_RNvMs8_NtCsk6apSIyUfCg_3std2ioNtB5_7IoSlice8as_slice
libcxx-rust-cssparser.so.1:_RNvMs8_NtCsk6apSIyUfCg_3std4pathNtB5_10Components7as_path
libcxx-rust-cssparser.so.1:_RNvMs8_NtNtNtCshlECYyjYKiK_6object4read4coff7sectionNtNtBb_2pe18ImageSectionHeader11name_offset
libcxx-rust-cssparser.so.1:_RNvMs8_NtNtNtCshlECYyjYKiK_6object4read4coff7sectionNtNtBb_2pe18ImageSectionHeader8raw_name
libcxx-rust-cssparser.so.1:_RNvMs9_NtCsd97RIzLnxns_5gimli4archNtB5_7AArch6413register_name
libcxx-rust-cssparser.so.1:_RNvMs9_NtCsd97RIzLnxns_5gimli4archNtB5_7AArch6416name_to_register
libcxx-rust-cssparser.so.1:_RNvMs9_NtNtCs9ZIvzb94SJx_4core3net6parserNtNtB7_11socket_addr10SocketAddr11parse_ascii
libcxx-rust-cssparser.so.1:_RNvMsC_NtCsk6apSIyUfCg_3std2fsNtB5_8DirEntry4path
libcxx-rust-cssparser.so.1:_RNvMsC_NtCsk6apSIyUfCg_3std2fsNtB5_8DirEntry8metadata
libcxx-rust-cssparser.so.1:_RNvMsC_NtCsk6apSIyUfCg_3std2fsNtB5_8DirEntry9file_name
libcxx-rust-cssparser.so.1:_RNvMsC_NtCsk6apSIyUfCg_3std2fsNtB5_8DirEntry9file_type
libcxx-rust-cssparser.so.1:_RNvMsD_NtCsd97RIzLnxns_5gimli4archNtB5_6X86_6413register_name
libcxx-rust-cssparser.so.1:_RNvMsD_NtCsd97RIzLnxns_5gimli4archNtB5_6X86_6416name_to_register
libcxx-rust-cssparser.so.1:_RNvMsD_NtNtCs4z76MhC0nbo_5alloc3ffi5c_strNtNtNtCs9ZIvzb94SJx_4core3ffi5c_str4CStr13into_c_string
libcxx-rust-cssparser.so.1:_RNvMsD_NtNtCs4z76MhC0nbo_5alloc3ffi5c_strNtNtNtCs9ZIvzb94SJx_4core3ffi5c_str4CStr15to_string_lossy
libcxx-rust-cssparser.so.1:_RNvMsF_NtCsk6apSIyUfCg_3std2fsNtB5_10DirBuilder7__create
libcxx-rust-cssparser.so.1:_RNvMsJ_NtCsd97RIzLnxns_5gimli4archNtB5_9PowerPc6413register_name
libcxx-rust-cssparser.so.1:_RNvMsJ_NtCsd97RIzLnxns_5gimli4archNtB5_9PowerPc6416name_to_register
libcxx-rust-cssparser.so.1:_RNvMsJ_NtNtNtCs4z76MhC0nbo_5alloc11collections5btree4nodeINtB5_6HandleINtB5_7NodeRefNtNtB5_6marker3MutyNtNtNtCsd97RIzLnxns_5gimli4read6abbrev12AbbreviationNtB1m_4LeafENtB1m_4EdgeE10insert_fitB1J_
libcxx-rust-cssparser.so.1:_RNvMsL_NtNtNtCs4z76MhC0nbo_5alloc11collections5btree4nodeINtB5_6HandleINtB5_7NodeRefNtNtB5_6marker3MutyNtNtNtCsd97RIzLnxns_5gimli4read6abbrev12AbbreviationNtB1m_8InternalENtB1m_4EdgeE19correct_parent_linkB1J_
libcxx-rust-cssparser.so.1:_RNvMsM_NtNtNtCs4z76MhC0nbo_5alloc11collections5btree4nodeINtB5_6HandleINtB5_7NodeRefNtNtB5_6marker3MutyNtNtNtCsd97RIzLnxns_5gimli4read6abbrev12AbbreviationNtB1m_8InternalENtB1m_4EdgeE10insert_fitB1J_
libcxx-rust-cssparser.so.1:_RNvMsN_NtCsk6apSIyUfCg_3std7processNtB5_15ExitStatusError12code_nonzero
libcxx-rust-cssparser.so.1:_RNvMsN_NtCsk6apSIyUfCg_3std7processNtB5_15ExitStatusError4code
libcxx-rust-cssparser.so.1:_RNvMsP_NtNtNtCs4z76MhC0nbo_5alloc11collections5btree4nodeINtB5_6HandleINtB5_7NodeRefNtNtB5_6marker5ImmutyNtNtNtCsd97RIzLnxns_5gimli4read6abbrev12AbbreviationNtB1m_14LeafOrInternalENtB1m_2KVE7into_kvB1L_
libcxx-rust-cssparser.so.1:_RNvMsQ_NtNtNtCs4z76MhC0nbo_5alloc11collections5btree4nodeINtB5_6HandleINtB5_7NodeRefNtNtB5_6marker3MutyNtNtNtCsd97RIzLnxns_5gimli4read6abbrev12AbbreviationNtB1m_14LeafOrInternalENtB1m_2KVE12into_val_mutB1J_
libcxx-rust-cssparser.so.1:_RNvMsS_NtCsjSWokaHKjd2_9hashbrown3rawNtB5_18RawIterHashIndices3new
libcxx-rust-cssparser.so.1:_RNvMsS_NtCsk6apSIyUfCg_3std7processNtB5_8ExitCode12exit_process
libcxx-rust-cssparser.so.1:_RNvMsU_NtNtNtCs4z76MhC0nbo_5alloc11collections5btree4nodeINtB5_6HandleINtB5_7NodeRefNtNtB5_6marker3MutyNtNtNtCsd97RIzLnxns_5gimli4read6abbrev12AbbreviationNtB1m_4LeafENtB1m_2KVE15split_leaf_dataB1J_
libcxx-rust-cssparser.so.1:_RNvMsU_NtNtNtCs4z76MhC0nbo_5alloc11collections5btree4nodeINtB5_6HandleINtB5_7NodeRefNtNtB5_6marker3MutyNtNtNtCsd97RIzLnxns_5gimli4read6abbrev12AbbreviationNtB1m_8InternalENtB1m_2KVE15split_leaf_dataB1J_
libcxx-rust-cssparser.so.1:_RNvMsY_NtCsk6apSIyUfCg_3std7processNtB5_5Child16wait_with_output
libcxx-rust-cssparser.so.1:_RNvMsY_NtCsk6apSIyUfCg_3std7processNtB5_5Child4kill
libcxx-rust-cssparser.so.1:_RNvMsY_NtCsk6apSIyUfCg_3std7processNtB5_5Child4wait
libcxx-rust-cssparser.so.1:_RNvMsY_NtCsk6apSIyUfCg_3std7processNtB5_5Child8try_wait
libcxx-rust-cssparser.so.1:_RNvMsZ_NtCsd97RIzLnxns_5gimli9constantsNtB5_5DwTag13static_string
libcxx-rust-cssparser.so.1:_RNvMs_NtCs4z76MhC0nbo_5alloc3vecINtB4_3VechE7reserveCs6TFdUlxcy5y_9addr2line
libcxx-rust-cssparser.so.1:_RNvMs_NtCs4z76MhC0nbo_5alloc5boxedINtB4_3BoxINtNtNtNtB6_11collections5btree4node12InternalNodeyNtNtNtCsd97RIzLnxns_5gimli4read6abbrev12AbbreviationEE13new_uninit_inB1B_
libcxx-rust-cssparser.so.1:_RNvMs_NtCs4z76MhC0nbo_5alloc5boxedINtB4_3BoxINtNtNtNtB6_11collections5btree4node12InternalNodeyNtNtNtCsd97RIzLnxns_5gimli4read6abbrev12AbbreviationEE17try_new_uninit_inB1B_
libcxx-rust-cssparser.so.1:_RNvMs_NtCs4z76MhC0nbo_5alloc5boxedINtB4_3BoxINtNtNtNtB6_11collections5btree4node8LeafNodeyNtNtNtCsd97RIzLnxns_5gimli4read6abbrev12AbbreviationEE13new_uninit_inB1w_
libcxx-rust-cssparser.so.1:_RNvMs_NtCs4z76MhC0nbo_5alloc5boxedINtB4_3BoxINtNtNtNtB6_11collections5btree4node8LeafNodeyNtNtNtCsd97RIzLnxns_5gimli4read6abbrev12AbbreviationEE17try_new_uninit_inB1w_
libcxx-rust-cssparser.so.1:_RNvMs_NtCs4z76MhC0nbo_5alloc6stringNtB4_13FromUtf8Error15into_utf8_lossy
libcxx-rust-cssparser.so.1:_RNvMs_NtCs6TFdUlxcy5y_9addr2line4lineNtB4_5Lines13find_location
libcxx-rust-cssparser.so.1:_RNvMs_NtCs6TFdUlxcy5y_9addr2line4lineNtB4_5Lines19find_location_range
libcxx-rust-cssparser.so.1:_RNvMs_NtCs9ZIvzb94SJx_4core3fmtNtB4_17FormattingOptions8get_fill
libcxx-rust-cssparser.so.1:_RNvMs_NtCsd97RIzLnxns_5gimli4readNtB4_5Error11description
libcxx-rust-cssparser.so.1:_RNvMs_NtNtCs4z76MhC0nbo_5alloc3ffi5c_strNtB4_7CString10into_bytes
libcxx-rust-cssparser.so.1:_RNvMs_NtNtCs4z76MhC0nbo_5alloc3ffi5c_strNtB4_7CString11into_string
libcxx-rust-cssparser.so.1:_RNvMs_NtNtCs4z76MhC0nbo_5alloc3ffi5c_strNtB4_7CString16into_boxed_c_str
libcxx-rust-cssparser.so.1:_RNvMs_NtNtCs4z76MhC0nbo_5alloc3ffi5c_strNtB4_7CString17from_vec_with_nul
libcxx-rust-cssparser.so.1:_RNvMs_NtNtCs4z76MhC0nbo_5alloc3ffi5c_strNtB4_7CString18from_vec_unchecked
libcxx-rust-cssparser.so.1:_RNvMs_NtNtCs4z76MhC0nbo_5alloc3ffi5c_strNtB4_7CString19__from_vec_unchecked
libcxx-rust-cssparser.so.1:_RNvMs_NtNtCs4z76MhC0nbo_5alloc3ffi5c_strNtB4_7CString19into_bytes_with_nul
libcxx-rust-cssparser.so.1:_RNvMs_NtNtCs4z76MhC0nbo_5alloc3ffi5c_strNtB4_7CString27from_vec_with_nul_unchecked
libcxx-rust-cssparser.so.1:_RNvMs_NtNtCs4z76MhC0nbo_5alloc3ffi5c_strNtB4_7CString8from_raw
libcxx-rust-cssparser.so.1:_RNvMs_NtNtCs9ZIvzb94SJx_4core3fmt8buildersNtB4_10PadAdapter4wrap
libcxx-rust-cssparser.so.1:_RNvMs_NtNtCs9ZIvzb94SJx_4core3net6parserNtNtB6_7ip_addr6IpAddr11parse_ascii
libcxx-rust-cssparser.so.1:_RNvMs_NtNtCs9ZIvzb94SJx_4core3num3fmtNtB4_9Formatted3len
libcxx-rust-cssparser.so.1:_RNvMs_NtNtCs9ZIvzb94SJx_4core3num3fmtNtB4_9Formatted5write
libcxx-rust-cssparser.so.1:_RNvMs_NtNtCsd97RIzLnxns_5gimli4read5valueNtB4_5Value11reinterpret
libcxx-rust-cssparser.so.1:_RNvMs_NtNtCsd97RIzLnxns_5gimli4read5valueNtB4_5Value2or
libcxx-rust-cssparser.so.1:_RNvMs_NtNtCsd97RIzLnxns_5gimli4read5valueNtB4_5Value3and
libcxx-rust-cssparser.so.1:_RNvMs_NtNtCsd97RIzLnxns_5gimli4read5valueNtB4_5Value3div
libcxx-rust-cssparser.so.1:_RNvMs_NtNtCsd97RIzLnxns_5gimli4read5valueNtB4_5Value3not
libcxx-rust-cssparser.so.1:_RNvMs_NtNtCsd97RIzLnxns_5gimli4read5valueNtB4_5Value3rem
libcxx-rust-cssparser.so.1:_RNvMs_NtNtCsd97RIzLnxns_5gimli4read5valueNtB4_5Value3shl
libcxx-rust-cssparser.so.1:_RNvMs_NtNtCsd97RIzLnxns_5gimli4read5valueNtB4_5Value3shr
libcxx-rust-cssparser.so.1:_RNvMs_NtNtCsd97RIzLnxns_5gimli4read5valueNtB4_5Value3xor
libcxx-rust-cssparser.so.1:_RNvMs_NtNtCsd97RIzLnxns_5gimli4read5valueNtB4_5Value4shra
libcxx-rust-cssparser.so.1:_RNvMs_NtNtCsd97RIzLnxns_5gimli4read5valueNtB4_5Value7convert
libcxx-rust-cssparser.so.1:_RNvMs_NtNtCshlECYyjYKiK_6object4read4utilNtB4_5Bytes12read_sleb128
libcxx-rust-cssparser.so.1:_RNvMs_NtNtCshlECYyjYKiK_6object4read4utilNtB4_5Bytes12read_uleb128
libcxx-rust-cssparser.so.1:_RNvMs_NtNtCsk6apSIyUfCg_3std12backtrace_rs9symbolizeNtB4_6Symbol12filename_raw
libcxx-rust-cssparser.so.1:_RNvMs_NtNtCsk6apSIyUfCg_3std12backtrace_rs9symbolizeNtB4_6Symbol4name
libcxx-rust-cssparser.so.1:_RNvMs_NtNtCsk6apSIyUfCg_3std6thread6threadNtB4_6Thread12park_timeout
libcxx-rust-cssparser.so.1:_RNvMs_NtNtCsk6apSIyUfCg_3std6thread6threadNtB4_6Thread3new
libcxx-rust-cssparser.so.1:_RNvMs_NtNtCsk6apSIyUfCg_3std6thread6threadNtB4_6Thread4name
libcxx-rust-cssparser.so.1:_RNvMs_NtNtCsk6apSIyUfCg_3std6thread6threadNtB4_6Thread4park
libcxx-rust-cssparser.so.1:_RNvMs_NtNtCsk6apSIyUfCg_3std6thread6threadNtB4_6Thread8from_raw
libcxx-rust-cssparser.so.1:_RNvMs_NtNtCsk6apSIyUfCg_3std6thread9spawnhookNtB4_15ChildSpawnHooks3run
libcxx-rust-cssparser.so.1:_RNvMs_NtNtNtCs9ZIvzb94SJx_4core3num7dec2flt11decimal_seqNtB4_10DecimalSeq10left_shift
libcxx-rust-cssparser.so.1:_RNvMs_NtNtNtCs9ZIvzb94SJx_4core3num7dec2flt11decimal_seqNtB4_10DecimalSeq11right_shift
libcxx-rust-cssparser.so.1:_RNvMs_NtNtNtCs9ZIvzb94SJx_4core3num7dec2flt11decimal_seqNtB4_10DecimalSeq5round
libcxx-rust-cssparser.so.1:_RNvMs_NtNtNtCshlECYyjYKiK_6object4read2pe14data_directoryNtNtBa_2pe18ImageDataDirectory10file_range
libcxx-rust-cssparser.so.1:_RNvMs_NtNtNtCshlECYyjYKiK_6object4read2pe6importNtB4_24ImportDescriptorIterator4next
libcxx-rust-cssparser.so.1:_RNvMs_NtNtNtCsk6apSIyUfCg_3std2io8buffered9bufwriterINtB4_9BufWriterNtNtB8_5stdio9StdoutRawE10write_coldBa_
libcxx-rust-cssparser.so.1:_RNvMs_NtNtNtCsk6apSIyUfCg_3std2io8buffered9bufwriterINtB4_9BufWriterNtNtB8_5stdio9StdoutRawE14write_all_coldBa_
libcxx-rust-cssparser.so.1:_RNvMs_NtNtNtCsk6apSIyUfCg_3std2os2fd5ownedNtB4_7OwnedFd9try_clone
libcxx-rust-cssparser.so.1:_RNvMs_NtNtNtCsk6apSIyUfCg_3std3sys7process3envNtB4_10CommandEnv3set
libcxx-rust-cssparser.so.1:_RNvMs_NtNtNtCsk6apSIyUfCg_3std3sys7process3envNtB4_10CommandEnv6remove
libcxx-rust-cssparser.so.1:_RNvMs_NtNtNtNtCsk6apSIyUfCg_3std2os4unix3net8listenerNtB4_12UnixListener10local_addr
libcxx-rust-cssparser.so.1:_RNvMs_NtNtNtNtCsk6apSIyUfCg_3std2os4unix3net8listenerNtB4_12UnixListener10take_error
libcxx-rust-cssparser.so.1:_RNvMs_NtNtNtNtCsk6apSIyUfCg_3std2os4unix3net8listenerNtB4_12UnixListener15set_nonblocking
libcxx-rust-cssparser.so.1:_RNvMs_NtNtNtNtCsk6apSIyUfCg_3std2os4unix3net8listenerNtB4_12UnixListener6accept
libcxx-rust-cssparser.so.1:_RNvMs_NtNtNtNtCsk6apSIyUfCg_3std2os4unix3net8listenerNtB4_12UnixListener9bind_addr
libcxx-rust-cssparser.so.1:_RNvMs_NtNtNtNtCsk6apSIyUfCg_3std2os4unix3net8listenerNtB4_12UnixListener9try_clone
libcxx-rust-cssparser.so.1:_RNvMs_NtNtNtNtCsk6apSIyUfCg_3std3sys7process4unix6commonNtB4_7Command3arg
libcxx-rust-cssparser.so.1:_RNvMs_NtNtNtNtCsk6apSIyUfCg_3std3sys7process4unix6commonNtB4_7Command3cwd
libcxx-rust-cssparser.so.1:_RNvMs_NtNtNtNtCsk6apSIyUfCg_3std3sys7process4unix6commonNtB4_7Command3new
libcxx-rust-cssparser.so.1:_RNvMs_NtNtNtNtCsk6apSIyUfCg_3std3sys7process4unix6commonNtB4_7Command5stdin
libcxx-rust-cssparser.so.1:_RNvMs_NtNtNtNtCsk6apSIyUfCg_3std3sys7process4unix6commonNtB4_7Command6chroot
libcxx-rust-cssparser.so.1:_RNvMs_NtNtNtNtCsk6apSIyUfCg_3std3sys7process4unix6commonNtB4_7Command6stderr
libcxx-rust-cssparser.so.1:_RNvMs_NtNtNtNtCsk6apSIyUfCg_3std3sys7process4unix6commonNtB4_7Command6stdout
libcxx-rust-cssparser.so.1:_RNvMs_NtNtNtNtCsk6apSIyUfCg_3std3sys7process4unix6commonNtB4_7Command8pre_exec
libcxx-rust-cssparser.so.1:_RNvMs_NtNtNtNtCsk6apSIyUfCg_3std3sys7process4unix6commonNtB4_7Command9set_arg_0
libcxx-rust-cssparser.so.1:_RNvMsa_NtCs9ZIvzb94SJx_4core3fmtNtB5_9Formatter10debug_list
libcxx-rust-cssparser.so.1:_RNvMsa_NtCs9ZIvzb94SJx_4core3fmtNtB5_9Formatter11debug_tuple
libcxx-rust-cssparser.so.1:_RNvMsa_NtCs9ZIvzb94SJx_4core3fmtNtB5_9Formatter12debug_struct
libcxx-rust-cssparser.so.1:_RNvMsa_NtCs9ZIvzb94SJx_4core3fmtNtB5_9Formatter12pad_integral
libcxx-rust-cssparser.so.1:_RNvMsa_NtCs9ZIvzb94SJx_4core3fmtNtB5_9Formatter25debug_tuple_field1_finish
libcxx-rust-cssparser.so.1:_RNvMsa_NtCs9ZIvzb94SJx_4core3fmtNtB5_9Formatter25debug_tuple_field2_finish
libcxx-rust-cssparser.so.1:_RNvMsa_NtCs9ZIvzb94SJx_4core3fmtNtB5_9Formatter25debug_tuple_field3_finish
libcxx-rust-cssparser.so.1:_RNvMsa_NtCs9ZIvzb94SJx_4core3fmtNtB5_9Formatter25debug_tuple_field4_finish
libcxx-rust-cssparser.so.1:_RNvMsa_NtCs9ZIvzb94SJx_4core3fmtNtB5_9Formatter25debug_tuple_field5_finish
libcxx-rust-cssparser.so.1:_RNvMsa_NtCs9ZIvzb94SJx_4core3fmtNtB5_9Formatter25debug_tuple_fields_finish
libcxx-rust-cssparser.so.1:_RNvMsa_NtCs9ZIvzb94SJx_4core3fmtNtB5_9Formatter26debug_struct_field1_finish
libcxx-rust-cssparser.so.1:_RNvMsa_NtCs9ZIvzb94SJx_4core3fmtNtB5_9Formatter26debug_struct_field2_finish
libcxx-rust-cssparser.so.1:_RNvMsa_NtCs9ZIvzb94SJx_4core3fmtNtB5_9Formatter26debug_struct_field3_finish
libcxx-rust-cssparser.so.1:_RNvMsa_NtCs9ZIvzb94SJx_4core3fmtNtB5_9Formatter26debug_struct_field4_finish
libcxx-rust-cssparser.so.1:_RNvMsa_NtCs9ZIvzb94SJx_4core3fmtNtB5_9Formatter26debug_struct_field5_finish
libcxx-rust-cssparser.so.1:_RNvMsa_NtCs9ZIvzb94SJx_4core3fmtNtB5_9Formatter26debug_struct_fields_finish
libcxx-rust-cssparser.so.1:_RNvMsa_NtCs9ZIvzb94SJx_4core3fmtNtB5_9Formatter3pad
libcxx-rust-cssparser.so.1:_RNvMsa_NtCs9ZIvzb94SJx_4core3fmtNtB5_9Formatter4fill
libcxx-rust-cssparser.so.1:_RNvMsa_NtCs9ZIvzb94SJx_4core3fmtNtB5_9Formatter9debug_map
libcxx-rust-cssparser.so.1:_RNvMsa_NtCs9ZIvzb94SJx_4core3fmtNtB5_9Formatter9debug_set
libcxx-rust-cssparser.so.1:_RNvMsa_NtCs9ZIvzb94SJx_4core3fmtNtB5_9Formatter9write_str
libcxx-rust-cssparser.so.1:_RNvMsa_NtCshlECYyjYKiK_6object4readNtB5_9ObjectMap3get
libcxx-rust-cssparser.so.1:_RNvMsa_NtNtCsk6apSIyUfCg_3std2io5stdioNtB5_6Stdout4lock
libcxx-rust-cssparser.so.1:_RNvMsa_NtNtNtCs9ZIvzb94SJx_4core3fmt3num3impm4__fmt
libcxx-rust-cssparser.so.1:_RNvMsa_NtNtNtNtCsk6apSIyUfCg_3std3sys3net10connection6socketNtB5_9UdpSocket7send_to
libcxx-rust-cssparser.so.1:_RNvMsb_NtNtNtCs9ZIvzb94SJx_4core3fmt3num3impl11format_into
libcxx-rust-cssparser.so.1:_RNvMsc_NtNtNtCs9ZIvzb94SJx_4core3fmt3num3impm11format_into
libcxx-rust-cssparser.so.1:_RNvMse_NtNtNtCshlECYyjYKiK_6object4read3elf10relocationNtB5_12CrelIterator3new
libcxx-rust-cssparser.so.1:_RNvMsf_NtCsd97RIzLnxns_5gimli4archNtB5_9LoongArch13register_name
libcxx-rust-cssparser.so.1:_RNvMsf_NtCsd97RIzLnxns_5gimli4archNtB5_9LoongArch16name_to_register
libcxx-rust-cssparser.so.1:_RNvMsf_NtNtNtCs9ZIvzb94SJx_4core3fmt3num3impy4__fmt
libcxx-rust-cssparser.so.1:_RNvMsg_NtNtNtCs9ZIvzb94SJx_4core3fmt3num3impx11format_into
libcxx-rust-cssparser.so.1:_RNvMsh_NtNtNtCs9ZIvzb94SJx_4core3fmt3num3impy11format_into
libcxx-rust-cssparser.so.1:_RNvMsi_NtCshlECYyjYKiK_6object4readNtB5_13RelocationMap8relocate
libcxx-rust-cssparser.so.1:_RNvMsi_NtNtNtCs4z76MhC0nbo_5alloc11collections5btree3mapINtB5_8BTreeMapyNtNtNtCsd97RIzLnxns_5gimli4read6abbrev12AbbreviationE5entryB1e_
libcxx-rust-cssparser.so.1:_RNvMsi_NtNtNtCsk6apSIyUfCg_3std3sys2fs4unixNtB5_4File13read_vectored
libcxx-rust-cssparser.so.1:_RNvMsi_NtNtNtCsk6apSIyUfCg_3std3sys2fs4unixNtB5_4File4read
libcxx-rust-cssparser.so.1:_RNvMsi_NtNtNtCsk6apSIyUfCg_3std3sys2fs4unixNtB5_4File8read_buf
libcxx-rust-cssparser.so.1:_RNvMsk_NtCsk6apSIyUfCg_3std7processNtB5_7Command11get_program
libcxx-rust-cssparser.so.1:_RNvMsk_NtCsk6apSIyUfCg_3std7processNtB5_7Command15get_current_dir
libcxx-rust-cssparser.so.1:_RNvMsk_NtCsk6apSIyUfCg_3std7processNtB5_7Command5spawn
libcxx-rust-cssparser.so.1:_RNvMsk_NtCsk6apSIyUfCg_3std7processNtB5_7Command6output
libcxx-rust-cssparser.so.1:_RNvMsk_NtCsk6apSIyUfCg_3std7processNtB5_7Command6status
libcxx-rust-cssparser.so.1:_RNvMsk_NtCsk6apSIyUfCg_3std7processNtB5_7Command8get_args
libcxx-rust-cssparser.so.1:_RNvMsk_NtCsk6apSIyUfCg_3std7processNtB5_7Command9env_clear
libcxx-rust-cssparser.so.1:_RNvMsk_NtNtCsk6apSIyUfCg_3std2io5stdioNtB5_6Stderr4lock
libcxx-rust-cssparser.so.1:_RNvMsk_NtNtNtCs9ZIvzb94SJx_4core3fmt3num3impj4__fmt
libcxx-rust-cssparser.so.1:_RNvMsl_NtCsd97RIzLnxns_5gimli4archNtB5_4MIPS13register_name
libcxx-rust-cssparser.so.1:_RNvMsl_NtCsd97RIzLnxns_5gimli4archNtB5_4MIPS16name_to_register
libcxx-rust-cssparser.so.1:_RNvMsl_NtCsk6apSIyUfCg_3std2fsNtB5_11OpenOptions5__open
libcxx-rust-cssparser.so.1:_RNvMsl_NtNtCsk6apSIyUfCg_3std3ffi6os_strNtB5_5OsStr14into_os_string
libcxx-rust-cssparser.so.1:_RNvMsl_NtNtCsk6apSIyUfCg_3std3ffi6os_strNtB5_5OsStr18to_ascii_lowercase
libcxx-rust-cssparser.so.1:_RNvMsl_NtNtCsk6apSIyUfCg_3std3ffi6os_strNtB5_5OsStr18to_ascii_uppercase
libcxx-rust-cssparser.so.1:_RNvMsl_NtNtNtCs9ZIvzb94SJx_4core3fmt3num3impi11format_into
libcxx-rust-cssparser.so.1:_RNvMsm_NtNtNtCs9ZIvzb94SJx_4core3fmt3num3impj11format_into
libcxx-rust-cssparser.so.1:_RNvMsn_NtCs4z76MhC0nbo_5alloc4syncINtB5_3ArcINtNtNtCsd97RIzLnxns_5gimli4read5dwarf5DwarfINtNtBL_12endian_slice11EndianSliceNtNtBN_9endianity12LittleEndianEEE9drop_slowCsk6apSIyUfCg_3std
libcxx-rust-cssparser.so.1:_RNvMsn_NtCs4z76MhC0nbo_5alloc4syncINtB5_3ArcINtNtNtNtCsk6apSIyUfCg_3std4sync6poison5mutex5MutexINtNtB7_3vec3VechEEE9drop_slowBP_
libcxx-rust-cssparser.so.1:_RNvMsn_NtCs4z76MhC0nbo_5alloc4syncINtB5_3ArcNtNtNtCsd97RIzLnxns_5gimli4read6abbrev13AbbreviationsE9drop_slowCsk6apSIyUfCg_3std
libcxx-rust-cssparser.so.1:_RNvMsn_NtCs4z76MhC0nbo_5alloc4syncINtB5_3ArcNtNtNtCsk6apSIyUfCg_3std6thread6thread5InnerNtNtBM_5alloc6SystemE9drop_slowBM_
libcxx-rust-cssparser.so.1:_RNvMsn_NtCs4z76MhC0nbo_5alloc4syncINtB5_3ArcNtNtNtCsk6apSIyUfCg_3std6thread9spawnhook9SpawnHookE9drop_slowBM_
libcxx-rust-cssparser.so.1:_RNvMsn_NtCs4z76MhC0nbo_5alloc4syncINtB5_3ArcNtNtNtNtCsk6apSIyUfCg_3std3sys2fs4unix12InnerReadDirE9drop_slowBO_
libcxx-rust-cssparser.so.1:_RNvMso_NtCsk6apSIyUfCg_3std2fsNtB5_8Metadata7created
libcxx-rust-cssparser.so.1:_RNvMso_NtCsk6apSIyUfCg_3std2fsNtB5_8Metadata8accessed
libcxx-rust-cssparser.so.1:_RNvMso_NtCsk6apSIyUfCg_3std2fsNtB5_8Metadata8modified
libcxx-rust-cssparser.so.1:_RNvMsr_NtCsd97RIzLnxns_5gimli4archNtB5_5RiscV13register_name
libcxx-rust-cssparser.so.1:_RNvMsr_NtCsd97RIzLnxns_5gimli4archNtB5_5RiscV16name_to_register
libcxx-rust-cssparser.so.1:_RNvMsr_NtCsk6apSIyUfCg_3std4pathNtB5_7PathBuf14__add_extension
libcxx-rust-cssparser.so.1:_RNvMsr_NtCsk6apSIyUfCg_3std4pathNtB5_7PathBuf14__set_extension
libcxx-rust-cssparser.so.1:_RNvMsr_NtCsk6apSIyUfCg_3std4pathNtB5_7PathBuf14__set_file_name
libcxx-rust-cssparser.so.1:_RNvMsr_NtCsk6apSIyUfCg_3std4pathNtB5_7PathBuf16pop_trailing_sep
libcxx-rust-cssparser.so.1:_RNvMsr_NtCsk6apSIyUfCg_3std4pathNtB5_7PathBuf16set_trailing_sep
libcxx-rust-cssparser.so.1:_RNvMsr_NtCsk6apSIyUfCg_3std4pathNtB5_7PathBuf17push_trailing_sep
libcxx-rust-cssparser.so.1:_RNvMsr_NtCsk6apSIyUfCg_3std4pathNtB5_7PathBuf3pop
libcxx-rust-cssparser.so.1:_RNvMsr_NtCsk6apSIyUfCg_3std4pathNtB5_7PathBuf5__push
libcxx-rust-cssparser.so.1:_RNvMst_NtCsk6apSIyUfCg_3std7processNtB5_6Output7exit_ok
libcxx-rust-cssparser.so.1:_RNvMsu_NtNtCs9ZIvzb94SJx_4core3str7patternNtB5_11StrSearcher3new
libcxx-rust-cssparser.so.1:_RNvMsu_NtNtNtCs4z76MhC0nbo_5alloc11collections5btree4nodeINtB5_7NodeRefNtNtB5_6marker3MutyNtNtNtCsd97RIzLnxns_5gimli4read6abbrev12AbbreviationNtB19_4LeafE16push_with_handleB1w_
libcxx-rust-cssparser.so.1:_RNvMsv_NtNtNtCs4z76MhC0nbo_5alloc11collections5btree4nodeINtB5_7NodeRefNtNtB5_6marker3MutyNtNtNtCsd97RIzLnxns_5gimli4read6abbrev12AbbreviationNtB19_8InternalE4pushB1w_
libcxx-rust-cssparser.so.1:_RNvMsx_NtCsd97RIzLnxns_5gimli4archNtB5_3X8616name_to_register
libcxx-rust-cssparser.so.1:_RNvNCNKNvNtNtCsk6apSIyUfCg_3std6thread9spawnhook11SPAWN_HOOKS0023___RUST_STD_INTERNAL_VAL
libcxx-rust-cssparser.so.1:_RNvNCNKNvNvMNtNtCsk6apSIyUfCg_3std4hash6randomNtBa_11RandomState3new4KEYS0s_023___RUST_STD_INTERNAL_VAL
libcxx-rust-cssparser.so.1:_RNvNCNKNvNvMNtNtNtCsk6apSIyUfCg_3std4sync4mpmc7contextNtBa_7Context4with7CONTEXT0023___RUST_STD_INTERNAL_VAL
libcxx-rust-cssparser.so.1:_RNvNCNKNvNvNtNtNtCsk6apSIyUfCg_3std4sync4mpmc5waker17current_thread_id5DUMMY0s_023___RUST_STD_INTERNAL_VAL
libcxx-rust-cssparser.so.1:_RNvNCNvNtNtCsk6apSIyUfCg_3std6thread9lifecycle15spawn_unchecked03MIN
libcxx-rust-cssparser.so.1:_RNvNtCs4z76MhC0nbo_5alloc2rc32rc_inner_layout_for_value_layout
libcxx-rust-cssparser.so.1:_RNvNtCs4z76MhC0nbo_5alloc4sync18STATIC_INNER_SLICE
libcxx-rust-cssparser.so.1:_RNvNtCs4z76MhC0nbo_5alloc4sync32arcinner_layout_for_value_layout
libcxx-rust-cssparser.so.1:_RNvNtCs4z76MhC0nbo_5alloc5alloc18handle_alloc_error
libcxx-rust-cssparser.so.1:_RNvNtCs4z76MhC0nbo_5alloc7raw_vec12handle_error
libcxx-rust-cssparser.so.1:_RNvNtCs4z76MhC0nbo_5alloc7raw_vec17capacity_overflow
libcxx-rust-cssparser.so.1:_RNvNtCs6TFdUlxcy5y_9addr2line4line9path_push
libcxx-rust-cssparser.so.1:_RNvNtCs6TFdUlxcy5y_9addr2line5frame13demangle_auto
libcxx-rust-cssparser.so.1:_RNvNtCs9ZIvzb94SJx_4core3fmt17pointer_fmt_inner
libcxx-rust-cssparser.so.1:_RNvNtCs9ZIvzb94SJx_4core3fmt5write
libcxx-rust-cssparser.so.1:_RNvNtCs9ZIvzb94SJx_4core3num22from_ascii_radix_panic
libcxx-rust-cssparser.so.1:_RNvNtCs9ZIvzb94SJx_4core3str16slice_error_fail
libcxx-rust-cssparser.so.1:_RNvNtCs9ZIvzb94SJx_4core3str19slice_error_fail_ct
libcxx-rust-cssparser.so.1:_RNvNtCs9ZIvzb94SJx_4core3str19slice_error_fail_rt
libcxx-rust-cssparser.so.1:_RNvNtCs9ZIvzb94SJx_4core4cell22panic_already_borrowed
libcxx-rust-cssparser.so.1:_RNvNtCs9ZIvzb94SJx_4core4cell30panic_already_mutably_borrowed
libcxx-rust-cssparser.so.1:_RNvNtCs9ZIvzb94SJx_4core4wtf816slice_error_fail
libcxx-rust-cssparser.so.1:_RNvNtCs9ZIvzb94SJx_4core5ascii14escape_default
libcxx-rust-cssparser.so.1:_RNvNtCs9ZIvzb94SJx_4core6option13expect_failed
libcxx-rust-cssparser.so.1:_RNvNtCs9ZIvzb94SJx_4core6option13unwrap_failed
libcxx-rust-cssparser.so.1:_RNvNtCs9ZIvzb94SJx_4core6result13unwrap_failed
libcxx-rust-cssparser.so.1:_RNvNtCs9ZIvzb94SJx_4core9panicking14panic_nounwind
libcxx-rust-cssparser.so.1:_RNvNtCs9ZIvzb94SJx_4core9panicking15const_panic_fmt
libcxx-rust-cssparser.so.1:_RNvNtCs9ZIvzb94SJx_4core9panicking16panic_in_cleanup
libcxx-rust-cssparser.so.1:_RNvNtCs9ZIvzb94SJx_4core9panicking18panic_bounds_check
libcxx-rust-cssparser.so.1:_RNvNtCs9ZIvzb94SJx_4core9panicking18panic_nounwind_fmt
libcxx-rust-cssparser.so.1:_RNvNtCs9ZIvzb94SJx_4core9panicking19assert_failed_inner
libcxx-rust-cssparser.so.1:_RNvNtCs9ZIvzb94SJx_4core9panicking19panic_cannot_unwind
libcxx-rust-cssparser.so.1:_RNvNtCs9ZIvzb94SJx_4core9panicking26panic_nounwind_nobacktrace
libcxx-rust-cssparser.so.1:_RNvNtCs9ZIvzb94SJx_4core9panicking30panic_null_pointer_dereference
libcxx-rust-cssparser.so.1:_RNvNtCs9ZIvzb94SJx_4core9panicking31panic_invalid_enum_construction
libcxx-rust-cssparser.so.1:_RNvNtCs9ZIvzb94SJx_4core9panicking36panic_misaligned_pointer_dereference
libcxx-rust-cssparser.so.1:_RNvNtCs9ZIvzb94SJx_4core9panicking5panic
libcxx-rust-cssparser.so.1:_RNvNtCs9ZIvzb94SJx_4core9panicking9panic_fmt
libcxx-rust-cssparser.so.1:_RNvNtCsdIMhsiQnxUU_11miniz_oxide6shared14update_adler32
libcxx-rust-cssparser.so.1:_RNvNtCsk6apSIyUfCg_3std2rt19lang_start_internal
libcxx-rust-cssparser.so.1:_RNvNtCsk6apSIyUfCg_3std3env11current_dir
libcxx-rust-cssparser.so.1:_RNvNtCsk6apSIyUfCg_3std3env11current_exe
libcxx-rust-cssparser.so.1:_RNvNtCsk6apSIyUfCg_3std3env4__var
libcxx-rust-cssparser.so.1:_RNvNtCsk6apSIyUfCg_3std3env4args
libcxx-rust-cssparser.so.1:_RNvNtCsk6apSIyUfCg_3std3env4vars
libcxx-rust-cssparser.so.1:_RNvNtCsk6apSIyUfCg_3std3env7__var_os
libcxx-rust-cssparser.so.1:_RNvNtCsk6apSIyUfCg_3std3env7args_os
libcxx-rust-cssparser.so.1:_RNvNtCsk6apSIyUfCg_3std3env7vars_os
libcxx-rust-cssparser.so.1:_RNvNtCsk6apSIyUfCg_3std3env8home_dir
libcxx-rust-cssparser.so.1:_RNvNtCsk6apSIyUfCg_3std3env8temp_dir
libcxx-rust-cssparser.so.1:_RNvNtCsk6apSIyUfCg_3std4path18compare_components
libcxx-rust-cssparser.so.1:_RNvNtCsk6apSIyUfCg_3std5alloc20set_alloc_error_hook
libcxx-rust-cssparser.so.1:_RNvNtCsk6apSIyUfCg_3std5alloc24default_alloc_error_hook
libcxx-rust-cssparser.so.1:_RNvNtCsk6apSIyUfCg_3std5alloc4HOOK
libcxx-rust-cssparser.so.1:_RNvNtCsk6apSIyUfCg_3std5alloc8rust_oom
libcxx-rust-cssparser.so.1:_RNvNtCsk6apSIyUfCg_3std5panic13resume_unwind
libcxx-rust-cssparser.so.1:_RNvNtCsk6apSIyUfCg_3std5panic19get_backtrace_style
libcxx-rust-cssparser.so.1:_RNvNtCsk6apSIyUfCg_3std5panic19set_backtrace_style
libcxx-rust-cssparser.so.1:_RNvNtCsk6apSIyUfCg_3std7process2id
libcxx-rust-cssparser.so.1:_RNvNtCsk6apSIyUfCg_3std7process4exit
libcxx-rust-cssparser.so.1:_RNvNtCsk6apSIyUfCg_3std7process5abort
libcxx-rust-cssparser.so.1:_RNvNtCsk6apSIyUfCg_3std9panicking11EMPTY_PANIC
libcxx-rust-cssparser.so.1:_RNvNtCsk6apSIyUfCg_3std9panicking12default_hook
libcxx-rust-cssparser.so.1:_RNvNtCsk6apSIyUfCg_3std9panicking14payload_as_str
libcxx-rust-cssparser.so.1:_RNvNtCsk6apSIyUfCg_3std9panicking15panic_with_hook
libcxx-rust-cssparser.so.1:_RNvNtCsk6apSIyUfCg_3std9panicking4HOOK
libcxx-rust-cssparser.so.1:_RNvNtCsk6apSIyUfCg_3std9panicking8set_hook
libcxx-rust-cssparser.so.1:_RNvNtCsk6apSIyUfCg_3std9panicking9take_hook
libcxx-rust-cssparser.so.1:_RNvNtNtCs2yFNzy2szzr_10std_detect6detect5cache21detect_and_initialize
libcxx-rust-cssparser.so.1:_RNvNtNtCs2yFNzy2szzr_10std_detect6detect5cache5CACHE
libcxx-rust-cssparser.so.1:_RNvNtNtCs4vvGeN3ANz4_6memchr6memmem8searcher18searcher_kind_avx2
libcxx-rust-cssparser.so.1:_RNvNtNtCs4vvGeN3ANz4_6memchr6memmem8searcher18searcher_kind_sse2
libcxx-rust-cssparser.so.1:_RNvNtNtCs4vvGeN3ANz4_6memchr6memmem8searcher19prefilter_kind_avx2
libcxx-rust-cssparser.so.1:_RNvNtNtCs4vvGeN3ANz4_6memchr6memmem8searcher19prefilter_kind_sse2
libcxx-rust-cssparser.so.1:_RNvNtNtCs4vvGeN3ANz4_6memchr6memmem8searcher21searcher_kind_two_way
libcxx-rust-cssparser.so.1:_RNvNtNtCs4vvGeN3ANz4_6memchr6memmem8searcher22searcher_kind_one_byte
libcxx-rust-cssparser.so.1:_RNvNtNtCs4vvGeN3ANz4_6memchr6memmem8searcher23prefilter_kind_fallback
libcxx-rust-cssparser.so.1:_RNvNtNtCs4vvGeN3ANz4_6memchr6memmem8searcher36searcher_kind_two_way_with_prefilter
libcxx-rust-cssparser.so.1:_RNvNtNtCs9ZIvzb94SJx_4core3num14overflow_panic3add
libcxx-rust-cssparser.so.1:_RNvNtNtCs9ZIvzb94SJx_4core3num14overflow_panic3div
libcxx-rust-cssparser.so.1:_RNvNtNtCs9ZIvzb94SJx_4core3num14overflow_panic3mul
libcxx-rust-cssparser.so.1:_RNvNtNtCs9ZIvzb94SJx_4core3num14overflow_panic3neg
libcxx-rust-cssparser.so.1:_RNvNtNtCs9ZIvzb94SJx_4core3num14overflow_panic3rem
libcxx-rust-cssparser.so.1:_RNvNtNtCs9ZIvzb94SJx_4core3num14overflow_panic3shl
libcxx-rust-cssparser.so.1:_RNvNtNtCs9ZIvzb94SJx_4core3num14overflow_panic3shr
libcxx-rust-cssparser.so.1:_RNvNtNtCs9ZIvzb94SJx_4core3num14overflow_panic3sub
libcxx-rust-cssparser.so.1:_RNvNtNtCs9ZIvzb94SJx_4core3num7flt2dec17digits_to_dec_str
libcxx-rust-cssparser.so.1:_RNvNtNtCs9ZIvzb94SJx_4core3num7flt2dec17digits_to_exp_str
libcxx-rust-cssparser.so.1:_RNvNtNtCs9ZIvzb94SJx_4core3num7flt2dec8round_up
libcxx-rust-cssparser.so.1:_RNvNtNtCs9ZIvzb94SJx_4core3num8int_sqrt27panic_for_negative_argument
libcxx-rust-cssparser.so.1:_RNvNtNtCs9ZIvzb94SJx_4core3num9int_log1030panic_for_nonpositive_argument
libcxx-rust-cssparser.so.1:_RNvNtNtCs9ZIvzb94SJx_4core3str5count14do_count_chars
libcxx-rust-cssparser.so.1:_RNvNtNtCs9ZIvzb94SJx_4core3str5count23char_count_general_case
libcxx-rust-cssparser.so.1:_RNvNtNtCs9ZIvzb94SJx_4core3str8converts13from_utf8_mut
libcxx-rust-cssparser.so.1:_RNvNtNtCs9ZIvzb94SJx_4core3str8converts9from_utf8
libcxx-rust-cssparser.so.1:_RNvNtNtCs9ZIvzb94SJx_4core4cell4lazy14panic_poisoned
libcxx-rust-cssparser.so.1:_RNvNtNtCs9ZIvzb94SJx_4core5slice5index16slice_index_fail
libcxx-rust-cssparser.so.1:_RNvNtNtCs9ZIvzb94SJx_4core5slice6memchr14memchr_aligned
libcxx-rust-cssparser.so.1:_RNvNtNtCs9ZIvzb94SJx_4core5slice6memchr7memrchr
libcxx-rust-cssparser.so.1:_RNvNtNtCs9ZIvzb94SJx_4core7unicode9printable12is_printable
libcxx-rust-cssparser.so.1:_RNvNtNtCs9ZIvzb94SJx_4core9panicking11panic_const23panic_const_div_by_zero
libcxx-rust-cssparser.so.1:_RNvNtNtCs9ZIvzb94SJx_4core9panicking11panic_const23panic_const_gen_fn_none
libcxx-rust-cssparser.so.1:_RNvNtNtCs9ZIvzb94SJx_4core9panicking11panic_const23panic_const_rem_by_zero
libcxx-rust-cssparser.so.1:_RNvNtNtCs9ZIvzb94SJx_4core9panicking11panic_const24panic_const_add_overflow
libcxx-rust-cssparser.so.1:_RNvNtNtCs9ZIvzb94SJx_4core9panicking11panic_const24panic_const_div_overflow
libcxx-rust-cssparser.so.1:_RNvNtNtCs9ZIvzb94SJx_4core9panicking11panic_const24panic_const_mul_overflow
libcxx-rust-cssparser.so.1:_RNvNtNtCs9ZIvzb94SJx_4core9panicking11panic_const24panic_const_neg_overflow
libcxx-rust-cssparser.so.1:_RNvNtNtCs9ZIvzb94SJx_4core9panicking11panic_const24panic_const_rem_overflow
libcxx-rust-cssparser.so.1:_RNvNtNtCs9ZIvzb94SJx_4core9panicking11panic_const24panic_const_shl_overflow
libcxx-rust-cssparser.so.1:_RNvNtNtCs9ZIvzb94SJx_4core9panicking11panic_const24panic_const_shr_overflow
libcxx-rust-cssparser.so.1:_RNvNtNtCs9ZIvzb94SJx_4core9panicking11panic_const24panic_const_sub_overflow
libcxx-rust-cssparser.so.1:_RNvNtNtCs9ZIvzb94SJx_4core9panicking11panic_const28panic_const_async_fn_resumed
libcxx-rust-cssparser.so.1:_RNvNtNtCs9ZIvzb94SJx_4core9panicking11panic_const28panic_const_gen_fn_none_drop
libcxx-rust-cssparser.so.1:_RNvNtNtCs9ZIvzb94SJx_4core9panicking11panic_const29panic_const_coroutine_resumed
libcxx-rust-cssparser.so.1:_RNvNtNtCs9ZIvzb94SJx_4core9panicking11panic_const29panic_const_gen_fn_none_panic
libcxx-rust-cssparser.so.1:_RNvNtNtCs9ZIvzb94SJx_4core9panicking11panic_const32panic_const_async_gen_fn_resumed
libcxx-rust-cssparser.so.1:_RNvNtNtCs9ZIvzb94SJx_4core9panicking11panic_const33panic_const_async_fn_resumed_drop
libcxx-rust-cssparser.so.1:_RNvNtNtCs9ZIvzb94SJx_4core9panicking11panic_const34panic_const_async_fn_resumed_panic
libcxx-rust-cssparser.so.1:_RNvNtNtCs9ZIvzb94SJx_4core9panicking11panic_const34panic_const_coroutine_resumed_drop
libcxx-rust-cssparser.so.1:_RNvNtNtCs9ZIvzb94SJx_4core9panicking11panic_const35panic_const_coroutine_resumed_panic
libcxx-rust-cssparser.so.1:_RNvNtNtCs9ZIvzb94SJx_4core9panicking11panic_const37panic_const_async_gen_fn_resumed_drop
libcxx-rust-cssparser.so.1:_RNvNtNtCs9ZIvzb94SJx_4core9panicking11panic_const38panic_const_async_gen_fn_resumed_panic
libcxx-rust-cssparser.so.1:_RNvNtNtCsdIMhsiQnxUU_11miniz_oxide7inflate4core10decompress
libcxx-rust-cssparser.so.1:_RNvNtNtCshlECYyjYKiK_6object4read7archive16parse_u64_digits
libcxx-rust-cssparser.so.1:_RNvNtNtCshlECYyjYKiK_6object4read7archive24parse_sysv_extended_name
libcxx-rust-cssparser.so.1:_RNvNtNtCsk6apSIyUfCg_3std2io5stdio18set_output_capture
libcxx-rust-cssparser.so.1:_RNvNtNtCsk6apSIyUfCg_3std2io5stdio22try_set_output_capture
libcxx-rust-cssparser.so.1:_RNvNtNtCsk6apSIyUfCg_3std2io5stdio23attempt_print_to_stderr
libcxx-rust-cssparser.so.1:_RNvNtNtCsk6apSIyUfCg_3std2io5stdio5stdin
libcxx-rust-cssparser.so.1:_RNvNtNtCsk6apSIyUfCg_3std2io5stdio6__print
libcxx-rust-cssparser.so.1:_RNvNtNtCsk6apSIyUfCg_3std2io5stdio6stdout
libcxx-rust-cssparser.so.1:_RNvNtNtCsk6apSIyUfCg_3std2io5stdio7__eprint
libcxx-rust-cssparser.so.1:_RNvNtNtCsk6apSIyUfCg_3std3net8hostname8hostname
libcxx-rust-cssparser.so.1:_RNvNtNtCsk6apSIyUfCg_3std3sys2fs10remove_dir
libcxx-rust-cssparser.so.1:_RNvNtNtCsk6apSIyUfCg_3std3sys2fs11remove_file
libcxx-rust-cssparser.so.1:_RNvNtNtCsk6apSIyUfCg_3std3sys2fs12canonicalize
libcxx-rust-cssparser.so.1:_RNvNtNtCsk6apSIyUfCg_3std3sys2fs14remove_dir_all
libcxx-rust-cssparser.so.1:_RNvNtNtCsk6apSIyUfCg_3std3sys2fs15set_permissions
libcxx-rust-cssparser.so.1:_RNvNtNtCsk6apSIyUfCg_3std3sys2fs16symlink_metadata
libcxx-rust-cssparser.so.1:_RNvNtNtCsk6apSIyUfCg_3std3sys2fs18set_times_nofollow
libcxx-rust-cssparser.so.1:_RNvNtNtCsk6apSIyUfCg_3std3sys2fs24set_permissions_nofollow
libcxx-rust-cssparser.so.1:_RNvNtNtCsk6apSIyUfCg_3std3sys2fs4copy
libcxx-rust-cssparser.so.1:_RNvNtNtCsk6apSIyUfCg_3std3sys2fs6exists
libcxx-rust-cssparser.so.1:_RNvNtNtCsk6apSIyUfCg_3std3sys2fs6rename
libcxx-rust-cssparser.so.1:_RNvNtNtCsk6apSIyUfCg_3std3sys2fs7symlink
libcxx-rust-cssparser.so.1:_RNvNtNtCsk6apSIyUfCg_3std3sys2fs8metadata
libcxx-rust-cssparser.so.1:_RNvNtNtCsk6apSIyUfCg_3std3sys2fs8read_dir
libcxx-rust-cssparser.so.1:_RNvNtNtCsk6apSIyUfCg_3std3sys2fs9hard_link
libcxx-rust-cssparser.so.1:_RNvNtNtCsk6apSIyUfCg_3std3sys2fs9read_link
libcxx-rust-cssparser.so.1:_RNvNtNtCsk6apSIyUfCg_3std3sys2fs9set_times
libcxx-rust-cssparser.so.1:_RNvNtNtCsk6apSIyUfCg_3std3sys5alloc16realloc_fallback
libcxx-rust-cssparser.so.1:_RNvNtNtCsk6apSIyUfCg_3std3sys9backtrace4lock
libcxx-rust-cssparser.so.1:_RNvNtNtCsk6apSIyUfCg_3std4sync9lazy_lock14panic_poisoned
libcxx-rust-cssparser.so.1:_RNvNtNtCsk6apSIyUfCg_3std6thread5local18panic_access_error
libcxx-rust-cssparser.so.1:_RNvNtNtCsk6apSIyUfCg_3std6thread7current18current_or_unnamed
libcxx-rust-cssparser.so.1:_RNvNtNtCsk6apSIyUfCg_3std6thread7current7CURRENT
libcxx-rust-cssparser.so.1:_RNvNtNtCsk6apSIyUfCg_3std6thread7current7current
libcxx-rust-cssparser.so.1:_RNvNtNtCsk6apSIyUfCg_3std6thread9functions11sleep_until
libcxx-rust-cssparser.so.1:_RNvNtNtCsk6apSIyUfCg_3std6thread9functions12park_timeout
libcxx-rust-cssparser.so.1:_RNvNtNtCsk6apSIyUfCg_3std6thread9functions15park_timeout_ms
libcxx-rust-cssparser.so.1:_RNvNtNtCsk6apSIyUfCg_3std6thread9functions21available_parallelism
libcxx-rust-cssparser.so.1:_RNvNtNtCsk6apSIyUfCg_3std6thread9functions4park
libcxx-rust-cssparser.so.1:_RNvNtNtCsk6apSIyUfCg_3std6thread9functions5sleep
libcxx-rust-cssparser.so.1:_RNvNtNtCsk6apSIyUfCg_3std6thread9functions8sleep_ms
libcxx-rust-cssparser.so.1:_RNvNtNtCsk6apSIyUfCg_3std6thread9functions9yield_now
libcxx-rust-cssparser.so.1:_RNvNtNtCsk6apSIyUfCg_3std6thread9spawnhook15run_spawn_hooks
libcxx-rust-cssparser.so.1:_RNvNtNtCsk6apSIyUfCg_3std9panicking11panic_count17is_zero_slow_path
libcxx-rust-cssparser.so.1:_RNvNtNtCsk6apSIyUfCg_3std9panicking11panic_count18GLOBAL_PANIC_COUNT
libcxx-rust-cssparser.so.1:_RNvNtNtCsk6apSIyUfCg_3std9panicking11panic_count19finished_panic_hook
libcxx-rust-cssparser.so.1:_RNvNtNtCsk6apSIyUfCg_3std9panicking11panic_count8decrease
libcxx-rust-cssparser.so.1:_RNvNtNtCsk6apSIyUfCg_3std9panicking11panic_count8increase
libcxx-rust-cssparser.so.1:_RNvNtNtCsk6apSIyUfCg_3std9panicking11panic_count9get_count
libcxx-rust-cssparser.so.1:_RNvNtNtNtCs4vvGeN3ANz4_6memchr4arch3all9rabinkarp12is_equal_raw
libcxx-rust-cssparser.so.1:_RNvNtNtNtCs9ZIvzb94SJx_4core3num7dec2flt11decimal_seq17parse_decimal_seq
libcxx-rust-cssparser.so.1:_RNvNtNtNtCs9ZIvzb94SJx_4core3num7dec2flt5parse12parse_number
libcxx-rust-cssparser.so.1:_RNvNtNtNtCs9ZIvzb94SJx_4core3num7dec2flt5table17POWER_OF_FIVE_128
libcxx-rust-cssparser.so.1:_RNvNtNtNtCs9ZIvzb94SJx_4core7unicode12unicode_data10alphabetic11lookup_slow
libcxx-rust-cssparser.so.1:_RNvNtNtNtCs9ZIvzb94SJx_4core7unicode12unicode_data11conversions8to_lower
libcxx-rust-cssparser.so.1:_RNvNtNtNtCs9ZIvzb94SJx_4core7unicode12unicode_data11conversions8to_upper
libcxx-rust-cssparser.so.1:_RNvNtNtNtCs9ZIvzb94SJx_4core7unicode12unicode_data11white_space14WHITESPACE_MAP
libcxx-rust-cssparser.so.1:_RNvNtNtNtCs9ZIvzb94SJx_4core7unicode12unicode_data14case_ignorable11lookup_slow
libcxx-rust-cssparser.so.1:_RNvNtNtNtCs9ZIvzb94SJx_4core7unicode12unicode_data15grapheme_extend11lookup_slow
libcxx-rust-cssparser.so.1:_RNvNtNtNtCs9ZIvzb94SJx_4core7unicode12unicode_data1n11lookup_slow
libcxx-rust-cssparser.so.1:_RNvNtNtNtCs9ZIvzb94SJx_4core7unicode12unicode_data5cased11lookup_slow
libcxx-rust-cssparser.so.1:_RNvNtNtNtCs9ZIvzb94SJx_4core7unicode12unicode_data9lowercase14BITSET_MAPPING
libcxx-rust-cssparser.so.1:_RNvNtNtNtCs9ZIvzb94SJx_4core7unicode12unicode_data9lowercase16BITSET_CANONICAL
libcxx-rust-cssparser.so.1:_RNvNtNtNtCs9ZIvzb94SJx_4core7unicode12unicode_data9lowercase17BITSET_CHUNKS_MAP
libcxx-rust-cssparser.so.1:_RNvNtNtNtCs9ZIvzb94SJx_4core7unicode12unicode_data9lowercase19BITSET_INDEX_CHUNKS
libcxx-rust-cssparser.so.1:_RNvNtNtNtCs9ZIvzb94SJx_4core7unicode12unicode_data9lowercase6lookup
libcxx-rust-cssparser.so.1:_RNvNtNtNtCs9ZIvzb94SJx_4core7unicode12unicode_data9uppercase14BITSET_MAPPING
libcxx-rust-cssparser.so.1:_RNvNtNtNtCs9ZIvzb94SJx_4core7unicode12unicode_data9uppercase16BITSET_CANONICAL
libcxx-rust-cssparser.so.1:_RNvNtNtNtCs9ZIvzb94SJx_4core7unicode12unicode_data9uppercase17BITSET_CHUNKS_MAP
libcxx-rust-cssparser.so.1:_RNvNtNtNtCs9ZIvzb94SJx_4core7unicode12unicode_data9uppercase19BITSET_INDEX_CHUNKS
libcxx-rust-cssparser.so.1:_RNvNtNtNtCs9ZIvzb94SJx_4core7unicode12unicode_data9uppercase6lookup
libcxx-rust-cssparser.so.1:_RNvNtNtNtCsk6apSIyUfCg_3std12backtrace_rs9symbolize5gimli7resolve
libcxx-rust-cssparser.so.1:_RNvNtNtNtCsk6apSIyUfCg_3std2os4unix2io16replace_stdio_fd
libcxx-rust-cssparser.so.1:_RNvNtNtNtCsk6apSIyUfCg_3std2os4unix7process9parent_id
libcxx-rust-cssparser.so.1:_RNvNtNtNtCsk6apSIyUfCg_3std3sys2fs4unix5chown
libcxx-rust-cssparser.so.1:_RNvNtNtNtCsk6apSIyUfCg_3std3sys2fs4unix6chroot
libcxx-rust-cssparser.so.1:_RNvNtNtNtCsk6apSIyUfCg_3std3sys2fs4unix6fchown
libcxx-rust-cssparser.so.1:_RNvNtNtNtCsk6apSIyUfCg_3std3sys2fs4unix6lchown
libcxx-rust-cssparser.so.1:_RNvNtNtNtCsk6apSIyUfCg_3std3sys2fs4unix6mkfifo
libcxx-rust-cssparser.so.1:_RNvNtNtNtCsk6apSIyUfCg_3std3sys3env4unix6setenv
libcxx-rust-cssparser.so.1:_RNvNtNtNtCsk6apSIyUfCg_3std3sys3env4unix8unsetenv
libcxx-rust-cssparser.so.1:_RNvNtNtNtCsk6apSIyUfCg_3std3sys4path4unix8absolute
libcxx-rust-cssparser.so.1:_RNvNtNtNtCsk6apSIyUfCg_3std3sys4pipe4unix4pipe
libcxx-rust-cssparser.so.1:_RNvNtNtNtCsk6apSIyUfCg_3std3sys6random5linux19hashmap_random_keys
libcxx-rust-cssparser.so.1:_RNvNtNtNtCsk6apSIyUfCg_3std6thread7current2id2ID
libcxx-rust-cssparser.so.1:_RNvNtNtNtNtCs9ZIvzb94SJx_4core3num7flt2dec8strategy5grisu12CACHED_POW10
libcxx-rust-cssparser.so.1:_RNvNtNtNtNtCs9ZIvzb94SJx_4core3num7flt2dec8strategy5grisu12format_exact
libcxx-rust-cssparser.so.1:_RNvNtNtNtNtCs9ZIvzb94SJx_4core3num7flt2dec8strategy5grisu15format_shortest
libcxx-rust-cssparser.so.1:_RNvNtNtNtNtCs9ZIvzb94SJx_4core3num7flt2dec8strategy5grisu16format_exact_opt
libcxx-rust-cssparser.so.1:_RNvNtNtNtNtCs9ZIvzb94SJx_4core3num7flt2dec8strategy5grisu19format_shortest_opt
libcxx-rust-cssparser.so.1:_RNvNtNtNtNtCs9ZIvzb94SJx_4core3num7flt2dec8strategy6dragon12format_exact
libcxx-rust-cssparser.so.1:_RNvNtNtNtNtCs9ZIvzb94SJx_4core3num7flt2dec8strategy6dragon15format_shortest
libcxx-rust-cssparser.so.1:_RNvNtNtNtNtCs9ZIvzb94SJx_4core3num7flt2dec8strategy6dragon9mul_pow10
libcxx-rust-cssparser.so.1:_RNvNtNtNtNtCs9ZIvzb94SJx_4core5slice4sort6shared9smallsort22panic_on_ord_violation
libcxx-rust-cssparser.so.1:_RNvNtNtNtNtCs9ZIvzb94SJx_4core5slice4sort6stable5drift11sqrt_approx
libcxx-rust-cssparser.so.1:_RNvNtNtNtNtCsk6apSIyUfCg_3std2os4unix3net4addr11sockaddr_un
libcxx-rust-cssparser.so.1:_RNvNtNtNtNtCsk6apSIyUfCg_3std2os4unix3net9ancillary31send_vectored_with_ancillary_to
libcxx-rust-cssparser.so.1:_RNvNtNtNtNtCsk6apSIyUfCg_3std3sys12thread_local11destructors10linux_like8register
libcxx-rust-cssparser.so.1:_RNvNtNtNtNtCsk6apSIyUfCg_3std3sys2io11kernel_copy5linux15sendfile_splice
libcxx-rust-cssparser.so.1:_RNvNtNtNtNtCsk6apSIyUfCg_3std3sys2io11kernel_copy5linux18copy_regular_files
libcxx-rust-cssparser.so.1:_RNvNtNtNtNtCsk6apSIyUfCg_3std3sys3pal4unix2os5chdir
libcxx-rust-cssparser.so.1:_RNvNtNtNtNtCsk6apSIyUfCg_3std3sys3pal4unix5futex10futex_wake
libcxx-rust-cssparser.so.1:_RNvNtNtNtNtCsk6apSIyUfCg_3std3sys3pal4unix5futex14futex_wake_all
libcxx-rust-cssparser.so.1:_RNvNtNtNtNtCsk6apSIyUfCg_3std3sys4args4unix3imp15ARGV_INIT_ARRAY
libcxx-rust-cssparser.so.1:_RNvNvMNtCs9ZIvzb94SJx_4core5sliceSp16align_to_offsets3gcd
libcxx-rust-cssparser.so.1:_RNvNvMNtNtNtCshlECYyjYKiK_6object4read4coff6importNtB4_10ImportFile5parse12strip_prefix
libcxx-rust-cssparser.so.1:_RNvNvMs3_NtNtNtNtCsk6apSIyUfCg_3std3sys3net10connection6socketNtB7_9TcpStream7connect5inner
libcxx-rust-cssparser.so.1:_RNvNvMs6_NtNtCs9ZIvzb94SJx_4core4task4wakeNtB7_5Waker11from_fn_ptr6VTABLE
libcxx-rust-cssparser.so.1:_RNvNvMs7_NtNtNtCsk6apSIyUfCg_3std3sys6os_str5bytesNtB7_5Slice21check_public_boundary9slow_path
libcxx-rust-cssparser.so.1:_RNvNvMs7_NtNtNtNtCsk6apSIyUfCg_3std3sys3net10connection6socketNtB7_11TcpListener4bind5inner
libcxx-rust-cssparser.so.1:_RNvNvMs_NtCs4z76MhC0nbo_5alloc3vecINtB6_3VecppE10insert_mut13assert_failed
libcxx-rust-cssparser.so.1:_RNvNvMs_NtCs4z76MhC0nbo_5alloc3vecINtB6_3VecppE11swap_remove13assert_failed
libcxx-rust-cssparser.so.1:_RNvNvMs_NtCs4z76MhC0nbo_5alloc3vecINtB6_3VecppE6remove13assert_failed
libcxx-rust-cssparser.so.1:_RNvNvMs_NtCs4z76MhC0nbo_5alloc3vecINtB6_3VecppE9split_off13assert_failed
libcxx-rust-cssparser.so.1:_RNvNvMsa_NtNtNtNtCsk6apSIyUfCg_3std3sys3net10connection6socketNtB7_9UdpSocket4bind5inner
libcxx-rust-cssparser.so.1:_RNvNvMsa_NtNtNtNtCsk6apSIyUfCg_3std3sys3net10connection6socketNtB7_9UdpSocket7connect5inner
libcxx-rust-cssparser.so.1:_RNvNvMsb_NtNtCs9ZIvzb94SJx_4core4task4wakeNtB7_10LocalWaker11from_fn_ptr6VTABLE
libcxx-rust-cssparser.so.1:_RNvNvNtCs4z76MhC0nbo_5alloc3fmt6format12format_inner
libcxx-rust-cssparser.so.1:_RNvNvNtCs4z76MhC0nbo_5alloc5alloc18handle_alloc_error8ct_error
libcxx-rust-cssparser.so.1:_RNvNvNtCs9ZIvzb94SJx_4core5slice20copy_from_slice_impl17len_mismatch_fail
libcxx-rust-cssparser.so.1:_RNvNvNtCsk6apSIyUfCg_3std2fs14read_to_string5inner
libcxx-rust-cssparser.so.1:_RNvNvNtCsk6apSIyUfCg_3std2fs4read5inner
libcxx-rust-cssparser.so.1:_RNvNvNtCsk6apSIyUfCg_3std2fs5write5inner
libcxx-rust-cssparser.so.1:_RNvNvNtCsk6apSIyUfCg_3std9panicking12catch_unwind7cleanup
libcxx-rust-cssparser.so.1:_RNvNvNtNtCsk6apSIyUfCg_3std2io5stdio6stderr8INSTANCE
libcxx-rust-cssparser.so.1:_RNvNvNtNtNtCs4vvGeN3ANz4_6memchr4arch6x86_646memchr10memchr_raw2FN
libcxx-rust-cssparser.so.1:_RNvNvNtNtNtCs4vvGeN3ANz4_6memchr4arch6x86_646memchr10memchr_raw6detect
libcxx-rust-cssparser.so.1:_RNvNvNtNtNtCs4vvGeN3ANz4_6memchr4arch6x86_646memchr11memchr2_raw2FN
libcxx-rust-cssparser.so.1:_RNvNvNtNtNtCs4vvGeN3ANz4_6memchr4arch6x86_646memchr11memchr2_raw6detect
libcxx-rust-cssparser.so.1:_RNvNvNtNtNtCs4vvGeN3ANz4_6memchr4arch6x86_646memchr11memchr3_raw2FN
libcxx-rust-cssparser.so.1:_RNvNvNtNtNtCs4vvGeN3ANz4_6memchr4arch6x86_646memchr11memchr3_raw6detect
libcxx-rust-cssparser.so.1:_RNvNvNtNtNtCs4vvGeN3ANz4_6memchr4arch6x86_646memchr11memrchr_raw2FN
libcxx-rust-cssparser.so.1:_RNvNvNtNtNtCs4vvGeN3ANz4_6memchr4arch6x86_646memchr11memrchr_raw6detect
libcxx-rust-cssparser.so.1:_RNvNvNtNtNtCs4vvGeN3ANz4_6memchr4arch6x86_646memchr12memrchr2_raw2FN
libcxx-rust-cssparser.so.1:_RNvNvNtNtNtCs4vvGeN3ANz4_6memchr4arch6x86_646memchr12memrchr2_raw6detect
libcxx-rust-cssparser.so.1:_RNvNvNtNtNtCs4vvGeN3ANz4_6memchr4arch6x86_646memchr12memrchr3_raw2FN
libcxx-rust-cssparser.so.1:_RNvNvNtNtNtCs4vvGeN3ANz4_6memchr4arch6x86_646memchr12memrchr3_raw6detect
libcxx-rust-cssparser.so.1:_RNvNvNtNtNtCs4vvGeN3ANz4_6memchr4arch6x86_646memchr9count_raw2FN
libcxx-rust-cssparser.so.1:_RNvNvNtNtNtCs4vvGeN3ANz4_6memchr4arch6x86_646memchr9count_raw6detect
libcxx-rust-cssparser.so.1:_RNvNvNtNtNtNtCsk6apSIyUfCg_3std3sys3pal4unix2os11split_paths12into_pathbuf
libcxx-rust-cssparser.so.1:_RNvNvNtNtNtNtCsk6apSIyUfCg_3std3sys4args4unix3imp15ARGV_INIT_ARRAY12init_wrapper
libcxx-rust-cssparser.so.1:_RNvXNtCs9ZIvzb94SJx_4core3ffiNtB2_6c_voidNtNtB4_3fmt5Debug3fmt
libcxx-rust-cssparser.so.1:_RNvXNtCs9ZIvzb94SJx_4core3fmtQNtB2_9FormatterNtB2_5Write9write_strCsglvZrah94c3_14rustc_demangle
libcxx-rust-cssparser.so.1:_RNvXNtCs9ZIvzb94SJx_4core3patcNtB2_12RangePattern7sub_one
libcxx-rust-cssparser.so.1:_RNvXNtCsglvZrah94c3_14rustc_demangle2v0NtB2_8DemangleNtNtCs9ZIvzb94SJx_4core3fmt7Display3fmt
libcxx-rust-cssparser.so.1:_RNvXNtCsglvZrah94c3_14rustc_demangle6legacyNtB2_8DemangleNtNtCs9ZIvzb94SJx_4core3fmt7Display3fmt
libcxx-rust-cssparser.so.1:_RNvXNtCsk6apSIyUfCg_3std2ioNtB2_5GuardNtNtNtCs9ZIvzb94SJx_4core3ops4drop4Drop4drop
libcxx-rust-cssparser.so.1:_RNvXNtCsk6apSIyUfCg_3std3envNtB2_4VarsNtNtNtNtCs9ZIvzb94SJx_4core4iter6traits8iterator8Iterator4next
libcxx-rust-cssparser.so.1:_RNvXNtCsk6apSIyUfCg_3std3envNtB2_4VarsNtNtNtNtCs9ZIvzb94SJx_4core4iter6traits8iterator8Iterator9size_hint
libcxx-rust-cssparser.so.1:_RNvXNtCsk6apSIyUfCg_3std6randomNtB2_19DefaultRandomSourceNtNtCs9ZIvzb94SJx_4core6random12RandomSource10fill_bytes
libcxx-rust-cssparser.so.1:_RNvXNtCsk6apSIyUfCg_3std9backtraceNtB2_9BacktraceNtNtCs9ZIvzb94SJx_4core3fmt5Debug3fmt
libcxx-rust-cssparser.so.1:_RNvXNtNtCs9ZIvzb94SJx_4core2io12borrowed_bufNtB2_11BorrowedBufNtNtB6_3fmt5Debug3fmt
libcxx-rust-cssparser.so.1:_RNvXNtNtCs9ZIvzb94SJx_4core3ffi5c_strNtB2_21FromBytesWithNulErrorNtNtB6_3fmt7Display3fmt
libcxx-rust-cssparser.so.1:_RNvXNtNtCs9ZIvzb94SJx_4core3ffi7va_listNtB2_6VaListNtNtB6_3fmt5Debug3fmt
libcxx-rust-cssparser.so.1:_RNvXNtNtCs9ZIvzb94SJx_4core3fmt3numoNtB4_7Display3fmt
libcxx-rust-cssparser.so.1:_RNvXNtNtCs9ZIvzb94SJx_4core3num5errorNtB2_15TryFromIntErrorNtNtB6_3fmt7Display3fmt
libcxx-rust-cssparser.so.1:_RNvXNtNtCs9ZIvzb94SJx_4core3ops5rangeNtB2_9RangeFullNtNtB6_3fmt5Debug3fmt
libcxx-rust-cssparser.so.1:_RNvXNtNtCshlECYyjYKiK_6object4read4utilNtB2_5BytesNtNtCs9ZIvzb94SJx_4core3fmt5Debug3fmt
libcxx-rust-cssparser.so.1:_RNvXNtNtCshlECYyjYKiK_6object4read8read_refRShNtB2_7ReadRef19read_bytes_at_until
libcxx-rust-cssparser.so.1:_RNvXNtNtCsk6apSIyUfCg_3std2io5errorNtB2_5ErrorNtNtCs9ZIvzb94SJx_4core3fmt5Debug3fmt
libcxx-rust-cssparser.so.1:_RNvXNtNtCsk6apSIyUfCg_3std2io5stdioNtB2_8StdinRawNtB4_4Read10read_exact
libcxx-rust-cssparser.so.1:_RNvXNtNtCsk6apSIyUfCg_3std2io5stdioNtB2_8StdinRawNtB4_4Read11read_to_end
libcxx-rust-cssparser.so.1:_RNvXNtNtCsk6apSIyUfCg_3std2io5stdioNtB2_8StdinRawNtB4_4Read13read_vectored
libcxx-rust-cssparser.so.1:_RNvXNtNtCsk6apSIyUfCg_3std2io5stdioNtB2_8StdinRawNtB4_4Read14read_buf_exact
libcxx-rust-cssparser.so.1:_RNvXNtNtCsk6apSIyUfCg_3std2io5stdioNtB2_8StdinRawNtB4_4Read14read_to_string
libcxx-rust-cssparser.so.1:_RNvXNtNtCsk6apSIyUfCg_3std2io5stdioNtB2_8StdinRawNtB4_4Read4read
libcxx-rust-cssparser.so.1:_RNvXNtNtCsk6apSIyUfCg_3std2io5stdioNtB2_8StdinRawNtB4_4Read8read_buf
libcxx-rust-cssparser.so.1:_RNvXNtNtCsk6apSIyUfCg_3std4sync9nonpoisonNtB2_10WouldBlockNtNtCs9ZIvzb94SJx_4core3fmt5Debug3fmt
libcxx-rust-cssparser.so.1:_RNvXNtNtCsk6apSIyUfCg_3std6thread9functionsNtB2_10PanicGuardNtNtNtCs9ZIvzb94SJx_4core3ops4drop4Drop4drop
libcxx-rust-cssparser.so.1:_RNvXNtNtCsk6apSIyUfCg_3std6thread9spawnhookNtB2_10SpawnHooksNtNtNtCs9ZIvzb94SJx_4core3ops4drop4Drop4drop
libcxx-rust-cssparser.so.1:_RNvXNtNtNtCs9ZIvzb94SJx_4core3fmt3num3imphNtB6_7Display3fmt
libcxx-rust-cssparser.so.1:_RNvXNtNtNtCsk6apSIyUfCg_3std2os4unix2fsNtNtB8_2fs4FileNtB2_7FileExt11read_buf_at
libcxx-rust-cssparser.so.1:_RNvXNtNtNtCsk6apSIyUfCg_3std2os4unix2fsNtNtB8_2fs4FileNtB2_7FileExt16read_vectored_at
libcxx-rust-cssparser.so.1:_RNvXNtNtNtCsk6apSIyUfCg_3std2os4unix2fsNtNtB8_2fs4FileNtB2_7FileExt17write_vectored_at
libcxx-rust-cssparser.so.1:_RNvXNtNtNtCsk6apSIyUfCg_3std2os4unix2fsNtNtB8_2fs4FileNtB2_7FileExt7read_at
libcxx-rust-cssparser.so.1:_RNvXNtNtNtCsk6apSIyUfCg_3std2os4unix2fsNtNtB8_2fs4FileNtB2_7FileExt8write_at
libcxx-rust-cssparser.so.1:_RNvXNtNtNtCsk6apSIyUfCg_3std2os4unix2ioNtNtNtB8_2io5stdio6StdoutNtB2_8StdioExt7take_fd
libcxx-rust-cssparser.so.1:_RNvXNtNtNtCsk6apSIyUfCg_3std2os4unix7processNtNtB8_7process7CommandNtB2_10CommandExt4exec
libcxx-rust-cssparser.so.1:_RNvXNtNtNtCsk6apSIyUfCg_3std2os4unix7processNtNtB8_7process7CommandNtB2_10CommandExt6groups
libcxx-rust-cssparser.so.1:_RNvXNtNtNtCsk6apSIyUfCg_3std3sys7process3envNtB2_10CommandEnvNtNtCs9ZIvzb94SJx_4core3fmt5Debug3fmt
libcxx-rust-cssparser.so.1:_RNvXNtNtNtCsk6apSIyUfCg_3std6thread6thread18thread_name_stringNtB2_16ThreadNameStringINtNtCs9ZIvzb94SJx_4core7convert4FromNtNtCs4z76MhC0nbo_5alloc6string6StringE4from
libcxx-rust-cssparser.so.1:_RNvXNtNtNtNtCsk6apSIyUfCg_3std2os3net9linux_ext6socketNtNtNtNtB8_4unix3net8datagram12UnixDatagramNtB2_13UnixSocketExt12set_passcred
libcxx-rust-cssparser.so.1:_RNvXNtNtNtNtCsk6apSIyUfCg_3std2os3net9linux_ext6socketNtNtNtNtB8_4unix3net8datagram12UnixDatagramNtB2_13UnixSocketExt8passcred
libcxx-rust-cssparser.so.1:_RNvXNtNtNtNtCsk6apSIyUfCg_3std2os4unix3net8listenerNtB2_12UnixListenerNtNtCs9ZIvzb94SJx_4core3fmt5Debug3fmt
libcxx-rust-cssparser.so.1:_RNvXNtNtNtNtCsk6apSIyUfCg_3std3sys2fs4unix3cfmNtB2_18CachedFileMetadataNtNtBa_2io4Read11read_to_end
libcxx-rust-cssparser.so.1:_RNvXNtNtNtNtCsk6apSIyUfCg_3std3sys2fs4unix3cfmNtB2_18CachedFileMetadataNtNtBa_2io4Read13read_vectored
libcxx-rust-cssparser.so.1:_RNvXNtNtNtNtCsk6apSIyUfCg_3std3sys2fs4unix3cfmNtB2_18CachedFileMetadataNtNtBa_2io4Read14read_to_string
libcxx-rust-cssparser.so.1:_RNvXNtNtNtNtCsk6apSIyUfCg_3std3sys2fs4unix3cfmNtB2_18CachedFileMetadataNtNtBa_2io4Read4read
libcxx-rust-cssparser.so.1:_RNvXNtNtNtNtCsk6apSIyUfCg_3std3sys2fs4unix3cfmNtB2_18CachedFileMetadataNtNtBa_2io4Read8read_buf
libcxx-rust-cssparser.so.1:_RNvXNtNtNtNtCsk6apSIyUfCg_3std3sys3pal4unix2osNtB2_14JoinPathsErrorNtNtCs9ZIvzb94SJx_4core3fmt7Display3fmt
libcxx-rust-cssparser.so.1:_RNvXNtNtNtNtNtCsk6apSIyUfCg_3std3sys3pal4unix14stack_overflow11thread_infoNtB2_12UnlockOnDropNtNtNtCs9ZIvzb94SJx_4core3ops4drop4Drop4drop
libcxx-rust-cssparser.so.1:_RNvXNtNtNtNtNtCsk6apSIyUfCg_3std3sys7process4unix4unix15linux_child_extNtNtBc_7process5ChildNtNtNtNtBc_2os5linux7process8ChildExt10into_pidfd
libcxx-rust-cssparser.so.1:_RNvXNtNtNtNtNtCsk6apSIyUfCg_3std3sys7process4unix4unix15linux_child_extNtNtBc_7process5ChildNtNtNtNtBc_2os5linux7process8ChildExt5pidfd
libcxx-rust-cssparser.so.1:_RNvXNvMNtCs4z76MhC0nbo_5alloc6stringNtB5_6String6retainNtB2_12SetLenOnDropNtNtNtCs9ZIvzb94SJx_4core3ops4drop4Drop4drop
libcxx-rust-cssparser.so.1:_RNvXNvMNtNtCsk6apSIyUfCg_3std3sys9backtraceNtB5_13BacktraceLock5printNtB2_16DisplayBacktraceNtNtCs9ZIvzb94SJx_4core3fmt7Display3fmt
libcxx-rust-cssparser.so.1:_RNvXNvMNtNtNtNtCsk6apSIyUfCg_3std3sys7process4unix4unixNtNtB7_6common7Command11posix_spawnNtB2_21PosixSpawnFileActionsNtNtNtCs9ZIvzb94SJx_4core3ops4drop4Drop4drop
libcxx-rust-cssparser.so.1:_RNvXNvNtCs9ZIvzb94SJx_4core4hint20select_unpredictableINtB2_11DropOnPanicjENtNtNtB6_3ops4drop4Drop4dropCs6TFdUlxcy5y_9addr2line
libcxx-rust-cssparser.so.1:_RNvXNvNtCs9ZIvzb94SJx_4core9panicking21assert_matches_failedNtB2_7PatternNtNtB6_3fmt5Debug3fmt
libcxx-rust-cssparser.so.1:_RNvXNvNtCsk6apSIyUfCg_3std9panicking13resume_unwindNtB2_9RewrapBoxNtNtCs9ZIvzb94SJx_4core5panic12PanicPayload8take_box
libcxx-rust-cssparser.so.1:_RNvXNvXs7_NtCsk6apSIyUfCg_3std4pathNtB8_10ComponentsNtNtCs9ZIvzb94SJx_4core3fmt5Debug3fmtNtB2_11DebugHelperBO_3fmt
libcxx-rust-cssparser.so.1:_RNvXNvXsb_NtCsk6apSIyUfCg_3std4pathNtB8_4IterNtNtCs9ZIvzb94SJx_4core3fmt5Debug3fmtNtB2_11DebugHelperBH_3fmt
libcxx-rust-cssparser.so.1:_RNvXNvXsd_NtCs9ZIvzb94SJx_4core4wtf8NtB8_10EncodeWideNtNtBa_3fmt5Debug3fmtNtB2_8CodeUnitBP_3fmt
libcxx-rust-cssparser.so.1:_RNvXs0_Cs1vgVKqzVi9G_6adler2NtB5_7Adler32NtNtCs9ZIvzb94SJx_4core4hash6Hasher5write
libcxx-rust-cssparser.so.1:_RNvXs0_CsglvZrah94c3_14rustc_demangleINtB5_21SizeLimitedFmtAdapterQNtNtCs9ZIvzb94SJx_4core3fmt9FormatterENtB15_5Write9write_strB5_
libcxx-rust-cssparser.so.1:_RNvXs0_NtCs4z76MhC0nbo_5alloc6stringNtB5_13FromUtf8ErrorNtNtCs9ZIvzb94SJx_4core3fmt7Display3fmt
libcxx-rust-cssparser.so.1:_RNvXs0_NtCs6TFdUlxcy5y_9addr2line4lineNtB5_21LineLocationRangeIterNtNtNtNtCs9ZIvzb94SJx_4core4iter6traits8iterator8Iterator4next
libcxx-rust-cssparser.so.1:_RNvXs0_NtCs9ZIvzb94SJx_4core3anyDNtB5_3AnyNtNtB7_6marker4SendEL_NtNtB7_3fmt5Debug3fmt
libcxx-rust-cssparser.so.1:_RNvXs0_NtCsglvZrah94c3_14rustc_demangle2v0NtB5_5IdentNtNtCs9ZIvzb94SJx_4core3fmt7Display3fmt
libcxx-rust-cssparser.so.1:_RNvXs0_NtCsk6apSIyUfCg_3std2fsNtB5_12TryLockErrorNtNtCs9ZIvzb94SJx_4core3fmt7Display3fmt
libcxx-rust-cssparser.so.1:_RNvXs0_NtCsk6apSIyUfCg_3std3envNtB5_6VarsOsNtNtNtNtCs9ZIvzb94SJx_4core4iter6traits8iterator8Iterator4next
libcxx-rust-cssparser.so.1:_RNvXs0_NtCsk6apSIyUfCg_3std3envNtB5_6VarsOsNtNtNtNtCs9ZIvzb94SJx_4core4iter6traits8iterator8Iterator9size_hint
libcxx-rust-cssparser.so.1:_RNvXs0_NtCsk6apSIyUfCg_3std4timeNtB5_7InstantINtNtNtCs9ZIvzb94SJx_4core3ops5arith9AddAssignNtNtBO_4time8DurationE10add_assign
libcxx-rust-cssparser.so.1:_RNvXs0_NtCsk6apSIyUfCg_3std9backtraceNtB5_15BacktraceSymbolNtNtCs9ZIvzb94SJx_4core3fmt5Debug3fmt
libcxx-rust-cssparser.so.1:_RNvXs0_NtNtCs9ZIvzb94SJx_4core3ffi5c_strNtB5_22FromBytesUntilNulErrorNtNtB9_3fmt7Display3fmt
libcxx-rust-cssparser.so.1:_RNvXs0_NtNtCs9ZIvzb94SJx_4core3fmt8buildersNtB5_10PadAdapterNtB7_5Write10write_char
libcxx-rust-cssparser.so.1:_RNvXs0_NtNtCs9ZIvzb94SJx_4core3fmt8buildersNtB5_10PadAdapterNtB7_5Write9write_str
libcxx-rust-cssparser.so.1:_RNvXs0_NtNtCs9ZIvzb94SJx_4core3net6parserNtNtB7_7ip_addr6IpAddrNtNtNtB9_3str6traits7FromStr8from_str
libcxx-rust-cssparser.so.1:_RNvXs0_NtNtCs9ZIvzb94SJx_4core3num7dec2fltC3f16NtNtNtB9_3str6traits7FromStr8from_str
libcxx-rust-cssparser.so.1:_RNvXs0_NtNtCs9ZIvzb94SJx_4core3str5lossyNtB5_5DebugNtNtB9_3fmt5Debug3fmt
libcxx-rust-cssparser.so.1:_RNvXs0_NtNtCs9ZIvzb94SJx_4core5alloc6layoutNtB5_11LayoutErrorNtNtB9_3fmt7Display3fmt
libcxx-rust-cssparser.so.1:_RNvXs0_NtNtCs9ZIvzb94SJx_4core5ascii10ascii_charNtB5_9AsciiCharNtNtB9_3fmt7Display3fmt
libcxx-rust-cssparser.so.1:_RNvXs0_NtNtCs9ZIvzb94SJx_4core5slice5asciiNtB5_11EscapeAsciiNtNtNtNtB9_4iter6traits12double_ended19DoubleEndedIterator9next_back
libcxx-rust-cssparser.so.1:_RNvXs0_NtNtCshlECYyjYKiK_6object4read4utilNtB5_9DebugByteNtNtCs9ZIvzb94SJx_4core3fmt5Debug3fmt
libcxx-rust-cssparser.so.1:_RNvXs0_NtNtCsk6apSIyUfCg_3std12backtrace_rs9symbolizeNtB5_6SymbolNtNtCs9ZIvzb94SJx_4core3fmt5Debug3fmt
libcxx-rust-cssparser.so.1:_RNvXs0_NtNtCsk6apSIyUfCg_3std2io5errorNtB5_5ErrorINtNtCs9ZIvzb94SJx_4core7convert4FromNtNtNtCs4z76MhC0nbo_5alloc3ffi5c_str8NulErrorE4from
libcxx-rust-cssparser.so.1:_RNvXs0_NtNtCsk6apSIyUfCg_3std2io5stdioNtB5_9StderrRawNtB7_5Write14write_vectored
libcxx-rust-cssparser.so.1:_RNvXs0_NtNtCsk6apSIyUfCg_3std2io5stdioNtB5_9StderrRawNtB7_5Write18write_all_vectored
libcxx-rust-cssparser.so.1:_RNvXs0_NtNtCsk6apSIyUfCg_3std2io5stdioNtB5_9StderrRawNtB7_5Write5flush
libcxx-rust-cssparser.so.1:_RNvXs0_NtNtCsk6apSIyUfCg_3std2io5stdioNtB5_9StderrRawNtB7_5Write5write
libcxx-rust-cssparser.so.1:_RNvXs0_NtNtCsk6apSIyUfCg_3std2io5stdioNtB5_9StderrRawNtB7_5Write9write_all
libcxx-rust-cssparser.so.1:_RNvXs0_NtNtCsk6apSIyUfCg_3std2io5stdioNtB5_9StderrRawNtB7_5Write9write_fmt
libcxx-rust-cssparser.so.1:_RNvXs0_NtNtCsk6apSIyUfCg_3std3net3tcpNtB5_9TcpStreamNtNtB9_2io5Write14write_vectored
libcxx-rust-cssparser.so.1:_RNvXs0_NtNtCsk6apSIyUfCg_3std3net3tcpNtB5_9TcpStreamNtNtB9_2io5Write5write
libcxx-rust-cssparser.so.1:_RNvXs0_NtNtCsk6apSIyUfCg_3std6thread5localNtB5_11AccessErrorNtNtCs9ZIvzb94SJx_4core3fmt7Display3fmt
libcxx-rust-cssparser.so.1:_RNvXs0_NtNtCsk6apSIyUfCg_3std6thread6threadNtB5_6ThreadNtNtCs9ZIvzb94SJx_4core3fmt5Debug3fmt
libcxx-rust-cssparser.so.1:_RNvXs0_NtNtNtCshlECYyjYKiK_6object4read2pe6exportNtB5_12ExportTargetNtNtCs9ZIvzb94SJx_4core3fmt5Debug3fmt
libcxx-rust-cssparser.so.1:_RNvXs0_NtNtNtCshlECYyjYKiK_6object4read2pe6importNtB5_24ImportDescriptorIteratorNtNtNtNtCs9ZIvzb94SJx_4core4iter6traits8iterator8Iterator4next
libcxx-rust-cssparser.so.1:_RNvXs0_NtNtNtCsk6apSIyUfCg_3std2os4unix2ioNtNtNtBb_2io5stdio5StdinNtB5_8StdioExt7take_fd
libcxx-rust-cssparser.so.1:_RNvXs0_NtNtNtCsk6apSIyUfCg_3std2os4unix7processNtNtBb_7process15ExitStatusErrorNtB5_13ExitStatusExt8from_raw
libcxx-rust-cssparser.so.1:_RNvXs0_NtNtNtCsk6apSIyUfCg_3std3sys7process3envNtB5_11CommandEnvsNtNtNtNtCs9ZIvzb94SJx_4core4iter6traits8iterator8Iterator4next
libcxx-rust-cssparser.so.1:_RNvXs0_NtNtNtNtCsk6apSIyUfCg_3std12backtrace_rs9symbolize5gimli4mmapNtB5_4MmapNtNtNtCs9ZIvzb94SJx_4core3ops4drop4Drop4drop
libcxx-rust-cssparser.so.1:_RNvXs0_NtNtNtNtCsk6apSIyUfCg_3std2os4unix3net4addrNtB5_10SocketAddrNtNtNtNtBb_3net9linux_ext4addr13SocketAddrExt16as_abstract_name
libcxx-rust-cssparser.so.1:_RNvXs0_NtNtNtNtCsk6apSIyUfCg_3std3sys7process4unix4unixNtB5_10ExitStatusNtNtCs9ZIvzb94SJx_4core3fmt5Debug3fmt
libcxx-rust-cssparser.so.1:_RNvXs0_NtNtNtNtNtCsk6apSIyUfCg_3std3sys7process4unix6common13cstring_arrayNtB5_12CStringArrayNtNtCs9ZIvzb94SJx_4core3fmt5Debug3fmt
libcxx-rust-cssparser.so.1:_RNvXs0_NvMs_NtNtCs4z76MhC0nbo_5alloc3ffi5c_strNtBa_7CString3newReNtB5_11SpecNewImpl13spec_new_impl
libcxx-rust-cssparser.so.1:_RNvXs0_NvNtCsk6apSIyUfCg_3std9panicking13panic_handlerNtB5_19FormatStringPayloadNtNtCs9ZIvzb94SJx_4core3fmt7Display3fmt
libcxx-rust-cssparser.so.1:_RNvXs0_NvXsf_NtNtCs4z76MhC0nbo_5alloc5boxed7convertINtBd_3BoxDNtNtCs9ZIvzb94SJx_4core5error5ErrorNtNtB12_6marker4SyncNtB1z_4SendEL_EINtNtB12_7convert4FromNtNtBf_6string6StringE4fromNtB5_11StringErrorNtNtB12_3fmt5Debug3fmt
libcxx-rust-cssparser.so.1:_RNvXs10_NtCs4z76MhC0nbo_5alloc6stringNtB6_9IntoCharsNtNtCs9ZIvzb94SJx_4core3fmt5Debug3fmt
libcxx-rust-cssparser.so.1:_RNvXs10_NtCsd97RIzLnxns_5gimli9constantsNtB6_5DwTagNtNtCs9ZIvzb94SJx_4core3fmt7Display3fmt
libcxx-rust-cssparser.so.1:_RNvXs10_NtNtCs9ZIvzb94SJx_4core3fmt3numnNtB8_8LowerExp3fmt
libcxx-rust-cssparser.so.1:_RNvXs11_NtNtCs9ZIvzb94SJx_4core3fmt3numoNtB8_8LowerExp3fmt
libcxx-rust-cssparser.so.1:_RNvXs11_NtNtCs9ZIvzb94SJx_4core3num7nonzeroINtB6_7NonZerotENtNtNtBa_3str6traits7FromStr8from_str
libcxx-rust-cssparser.so.1:_RNvXs12_NtNtCs9ZIvzb94SJx_4core3fmt3numnNtB8_8UpperExp3fmt
libcxx-rust-cssparser.so.1:_RNvXs12_NtNtCs9ZIvzb94SJx_4core3num11niche_typesNtB6_14NonZeroI8InnerNtNtBa_3fmt5Debug3fmt
libcxx-rust-cssparser.so.1:_RNvXs13_NtNtCs9ZIvzb94SJx_4core3fmt3numoNtB8_8UpperExp3fmt
libcxx-rust-cssparser.so.1:_RNvXs14_NtNtCs9ZIvzb94SJx_4core4sync6atomicNtB6_9AtomicI32NtNtBa_3fmt5Debug3fmt
libcxx-rust-cssparser.so.1:_RNvXs15_NtCs4z76MhC0nbo_5alloc6stringNtB6_5DrainNtNtCs9ZIvzb94SJx_4core3fmt5Debug3fmt
libcxx-rust-cssparser.so.1:_RNvXs15_NtNtCs9ZIvzb94SJx_4core3net7ip_addrNtB6_8Ipv4AddrINtNtNtBa_3ops3bit12BitAndAssignRBF_E13bitand_assign
libcxx-rust-cssparser.so.1:_RNvXs18_NtCs4z76MhC0nbo_5alloc6stringNtB6_5DrainNtNtNtCs9ZIvzb94SJx_4core3ops4drop4Drop4drop
libcxx-rust-cssparser.so.1:_RNvXs18_NtNtCs9ZIvzb94SJx_4core3num7nonzeroINtB6_7NonZeromENtNtNtBa_3str6traits7FromStr8from_str
libcxx-rust-cssparser.so.1:_RNvXs19_NtCsk6apSIyUfCg_3std4pathNtB6_4PathNtNtCs9ZIvzb94SJx_4core3fmt5Debug3fmt
libcxx-rust-cssparser.so.1:_RNvXs19_NtNtCs9ZIvzb94SJx_4core4sync6atomicNtB6_9AtomicU32NtNtBa_3fmt5Debug3fmt
libcxx-rust-cssparser.so.1:_RNvXs1A_NtCsd97RIzLnxns_5gimli9constantsNtB6_5DwAteNtNtCs9ZIvzb94SJx_4core3fmt7Display3fmt
libcxx-rust-cssparser.so.1:_RNvXs1A_NtNtCs9ZIvzb94SJx_4core3num7nonzeroINtB6_7NonZeroaENtNtNtBa_3str6traits7FromStr8from_str
libcxx-rust-cssparser.so.1:_RNvXs1E_NtNtCs9ZIvzb94SJx_4core3num7nonzeroINtB6_7NonZerosENtNtNtBa_3str6traits7FromStr8from_str
libcxx-rust-cssparser.so.1:_RNvXs1G_NtNtCs9ZIvzb94SJx_4core3num11niche_typesNtB6_14UsizeNoHighBitNtNtBa_3fmt5Debug3fmt
libcxx-rust-cssparser.so.1:_RNvXs1I_NtNtCs9ZIvzb94SJx_4core3num7nonzeroINtB6_7NonZerolENtNtNtBa_3str6traits7FromStr8from_str
libcxx-rust-cssparser.so.1:_RNvXs1K_NtNtNtCs4z76MhC0nbo_5alloc11collections5btree3mapNtB6_17UnorderedKeyErrorNtNtCs9ZIvzb94SJx_4core3fmt7Display3fmt
libcxx-rust-cssparser.so.1:_RNvXs1M_NtCsd97RIzLnxns_5gimli9constantsNtB6_5DwLleNtNtCs9ZIvzb94SJx_4core3fmt7Display3fmt
libcxx-rust-cssparser.so.1:_RNvXs1M_NtNtCs9ZIvzb94SJx_4core3num7nonzeroINtB6_7NonZeroxENtNtNtBa_3str6traits7FromStr8from_str
libcxx-rust-cssparser.so.1:_RNvXs1O_NtNtCs9ZIvzb94SJx_4core3num11niche_typesNtB6_17NonZeroUsizeInnerNtNtBa_3fmt5Debug3fmt
libcxx-rust-cssparser.so.1:_RNvXs1Q_NtNtCs9ZIvzb94SJx_4core3num7nonzeroINtB6_7NonZeronENtNtNtBa_3str6traits7FromStr8from_str
libcxx-rust-cssparser.so.1:_RNvXs1U_NtNtCs9ZIvzb94SJx_4core3num7nonzeroINtB6_7NonZeroiENtNtNtBa_3str6traits7FromStr8from_str
libcxx-rust-cssparser.so.1:_RNvXs1W_NtNtCs9ZIvzb94SJx_4core3num11niche_typesNtB6_17NonZeroIsizeInnerNtNtBa_3fmt5Debug3fmt
libcxx-rust-cssparser.so.1:_RNvXs1Y_NtCsd97RIzLnxns_5gimli9constantsNtB6_4DwDsNtNtCs9ZIvzb94SJx_4core3fmt7Display3fmt
libcxx-rust-cssparser.so.1:_RNvXs1_CsglvZrah94c3_14rustc_demangleNtB5_8DemangleNtNtCs9ZIvzb94SJx_4core3fmt7Display3fmt
libcxx-rust-cssparser.so.1:_RNvXs1_NtCs4vvGeN3ANz4_6memchr6memmemNtB5_11FindRevIterNtNtNtNtCs9ZIvzb94SJx_4core4iter6traits8iterator8Iterator4next
libcxx-rust-cssparser.so.1:_RNvXs1_NtCs4z76MhC0nbo_5alloc4wtf8NtB5_7Wtf8BufNtNtCs9ZIvzb94SJx_4core3fmt7Display3fmt
libcxx-rust-cssparser.so.1:_RNvXs1_NtCs4z76MhC0nbo_5alloc6stringNtB5_14FromUtf16ErrorNtNtCs9ZIvzb94SJx_4core3fmt7Display3fmt
libcxx-rust-cssparser.so.1:_RNvXs1_NtCs4z76MhC0nbo_5alloc7raw_vecINtB5_6RawVecNtNtNtCsd97RIzLnxns_5gimli4read6abbrev22AttributeSpecificationENtNtNtCs9ZIvzb94SJx_4core3ops4drop4Drop4dropBS_
libcxx-rust-cssparser.so.1:_RNvXs1_NtCs4z76MhC0nbo_5alloc7raw_vecINtB5_6RawVechENtNtNtCs9ZIvzb94SJx_4core3ops4drop4Drop4dropCsd97RIzLnxns_5gimli
libcxx-rust-cssparser.so.1:_RNvXs1_NtCs9ZIvzb94SJx_4core3anyDNtB5_3AnyNtNtB7_6marker4SyncNtBG_4SendEL_NtNtB7_3fmt5Debug3fmt
libcxx-rust-cssparser.so.1:_RNvXs1_NtCs9ZIvzb94SJx_4core4wtf8NtB5_4Wtf8NtNtB7_3fmt5Debug3fmt
libcxx-rust-cssparser.so.1:_RNvXs1_NtCs9ZIvzb94SJx_4core5cloneNtNtNtB7_3ffi5c_str4CStrNtB5_13CloneToUninit15clone_to_uninit
libcxx-rust-cssparser.so.1:_RNvXs1_NtCsk6apSIyUfCg_3std2ioNtB5_10IoSliceMutNtNtCs9ZIvzb94SJx_4core3fmt5Debug3fmt
libcxx-rust-cssparser.so.1:_RNvXs1_NtCsk6apSIyUfCg_3std3envNtB5_6VarsOsNtNtCs9ZIvzb94SJx_4core3fmt5Debug3fmt
libcxx-rust-cssparser.so.1:_RNvXs1_NtCsk6apSIyUfCg_3std4timeNtB5_7InstantINtNtNtCs9ZIvzb94SJx_4core3ops5arith3SubNtNtBO_4time8DurationE3sub
libcxx-rust-cssparser.so.1:_RNvXs1_NtCsk6apSIyUfCg_3std7processNtB5_5ChildINtNtB7_3sys9IntoInnerNtNtNtNtBL_7process4unix4unix7ProcessE10into_inner
libcxx-rust-cssparser.so.1:_RNvXs1_NtCsk6apSIyUfCg_3std9backtraceNtB5_11BytesOrWideNtNtCs9ZIvzb94SJx_4core3fmt5Debug3fmt
libcxx-rust-cssparser.so.1:_RNvXs1_NtNtCs9ZIvzb94SJx_4core3ffi5c_strNtB5_4CStrNtNtB9_3fmt5Debug3fmt
libcxx-rust-cssparser.so.1:_RNvXs1_NtNtCs9ZIvzb94SJx_4core3mem15transmutabilityNtB5_6AssumeNtNtNtB9_3ops5arith3Sub3sub
libcxx-rust-cssparser.so.1:_RNvXs1_NtNtCs9ZIvzb94SJx_4core3num7dec2fltfNtNtNtB9_3str6traits7FromStr8from_str
libcxx-rust-cssparser.so.1:_RNvXs1_NtNtCs9ZIvzb94SJx_4core3str5errorNtB5_14ParseBoolErrorNtNtB9_3fmt7Display3fmt
libcxx-rust-cssparser.so.1:_RNvXs1_NtNtCs9ZIvzb94SJx_4core4char6decodeNtB5_16DecodeUtf16ErrorNtNtB9_3fmt7Display3fmt
libcxx-rust-cssparser.so.1:_RNvXs1_NtNtCs9ZIvzb94SJx_4core4task4wakeNtB5_7ContextNtNtB9_3fmt5Debug3fmt
libcxx-rust-cssparser.so.1:_RNvXs1_NtNtCs9ZIvzb94SJx_4core5ascii10ascii_charNtB5_9AsciiCharNtNtB9_3fmt5Debug3fmt
libcxx-rust-cssparser.so.1:_RNvXs1_NtNtCs9ZIvzb94SJx_4core5panic8locationNtB5_8LocationNtNtB9_3cmp10PartialOrd11partial_cmp
libcxx-rust-cssparser.so.1:_RNvXs1_NtNtCs9ZIvzb94SJx_4core6marker8varianceNtB5_24PhantomCovariantLifetimeNtNtB9_3fmt5Debug3fmt
libcxx-rust-cssparser.so.1:_RNvXs1_NtNtCshlECYyjYKiK_6object4read4utilNtB5_8DebugLenNtNtCs9ZIvzb94SJx_4core3fmt5Debug3fmt
libcxx-rust-cssparser.so.1:_RNvXs1_NtNtCsk6apSIyUfCg_3std3net3tcpRNtB5_9TcpStreamNtNtB9_2io4Read13read_vectored
libcxx-rust-cssparser.so.1:_RNvXs1_NtNtCsk6apSIyUfCg_3std3net3tcpRNtB5_9TcpStreamNtNtB9_2io4Read4read
libcxx-rust-cssparser.so.1:_RNvXs1_NtNtCsk6apSIyUfCg_3std3net3tcpRNtB5_9TcpStreamNtNtB9_2io4Read8read_buf
libcxx-rust-cssparser.so.1:_RNvXs1_NtNtCsk6apSIyUfCg_3std4sync4onceNtB5_4OnceNtNtCs9ZIvzb94SJx_4core3fmt5Debug3fmt
libcxx-rust-cssparser.so.1:_RNvXs1_NtNtCsk6apSIyUfCg_3std4sync7barrierNtB5_17BarrierWaitResultNtNtCs9ZIvzb94SJx_4core3fmt5Debug3fmt
libcxx-rust-cssparser.so.1:_RNvXs1_NtNtNtCs9ZIvzb94SJx_4core3num6bignum5testsNtB5_6Big8x3NtNtBb_3cmp10PartialOrd11partial_cmp
libcxx-rust-cssparser.so.1:_RNvXs1_NtNtNtCs9ZIvzb94SJx_4core4iter8adapters6copiedINtB5_6CopiedINtNtNtBb_5slice4iter4IterhEENtNtNtB9_6traits10exact_size17ExactSizeIterator3lenCsglvZrah94c3_14rustc_demangle
libcxx-rust-cssparser.so.1:_RNvXs1_NtNtNtCsk6apSIyUfCg_3std12backtrace_rs9backtrace9libunwindNtB5_5FrameNtNtCs9ZIvzb94SJx_4core5clone5Clone5clone
libcxx-rust-cssparser.so.1:_RNvXs1_NtNtNtCsk6apSIyUfCg_3std2os4unix2ioNtNtNtBb_2io5stdio9StdinLockNtB5_8StdioExt7take_fd
libcxx-rust-cssparser.so.1:_RNvXs1_NtNtNtCsk6apSIyUfCg_3std2os4unix7processNtNtBb_7process5ChildNtB5_8ChildExt11send_signal
libcxx-rust-cssparser.so.1:_RNvXs1_NtNtNtCsk6apSIyUfCg_3std3sys4args6commonNtB5_4ArgsNtNtCs9ZIvzb94SJx_4core3fmt5Debug3fmt
libcxx-rust-cssparser.so.1:_RNvXs1_NtNtNtCsk6apSIyUfCg_3std3sys5stdio4unixNtB5_6StdoutNtNtBb_2io5Write14write_vectored
libcxx-rust-cssparser.so.1:_RNvXs1_NtNtNtCsk6apSIyUfCg_3std3sys5stdio4unixNtB5_6StdoutNtNtBb_2io5Write5write
libcxx-rust-cssparser.so.1:_RNvXs1_NtNtNtCsk6apSIyUfCg_3std3sys6os_str5bytesNtB5_3BufNtNtCs9ZIvzb94SJx_4core3fmt5Debug3fmt
libcxx-rust-cssparser.so.1:_RNvXs1_NtNtNtCsk6apSIyUfCg_3std3sys6thread4unixNtB5_6ThreadNtNtNtCs9ZIvzb94SJx_4core3ops4drop4Drop4drop
libcxx-rust-cssparser.so.1:_RNvXs1_NtNtNtNtCsk6apSIyUfCg_3std2os4unix3net4addrNtB5_10SocketAddrNtNtCs9ZIvzb94SJx_4core3fmt5Debug3fmt
libcxx-rust-cssparser.so.1:_RNvXs1_NtNtNtNtCsk6apSIyUfCg_3std2os4unix3net6streamNtB5_10UnixStreamNtNtBd_2io4Read13read_vectored
libcxx-rust-cssparser.so.1:_RNvXs1_NtNtNtNtCsk6apSIyUfCg_3std2os4unix3net6streamNtB5_10UnixStreamNtNtBd_2io4Read4read
libcxx-rust-cssparser.so.1:_RNvXs1_NtNtNtNtCsk6apSIyUfCg_3std2os4unix3net6streamNtB5_10UnixStreamNtNtBd_2io4Read8read_buf
libcxx-rust-cssparser.so.1:_RNvXs1_NtNtNtNtCsk6apSIyUfCg_3std2os4unix3net9ancillaryNtB5_9ScmRightsNtNtNtNtCs9ZIvzb94SJx_4core4iter6traits8iterator8Iterator4next
libcxx-rust-cssparser.so.1:_RNvXs1_NvMs_NtNtCs4z76MhC0nbo_5alloc3ffi5c_strNtBa_7CString3newQShNtB5_11SpecNewImpl13spec_new_impl
libcxx-rust-cssparser.so.1:_RNvXs1_NvNtCsk6apSIyUfCg_3std9panicking13panic_handlerNtB5_16StaticStrPayloadNtNtCs9ZIvzb94SJx_4core5panic12PanicPayload8take_box
libcxx-rust-cssparser.so.1:_RNvXs1a_NtCs4z76MhC0nbo_5alloc6stringNtB6_5DrainINtNtCs9ZIvzb94SJx_4core7convert5AsRefeE6as_ref
libcxx-rust-cssparser.so.1:_RNvXs1a_NtCsk6apSIyUfCg_3std4pathNtB6_7DisplayNtNtCs9ZIvzb94SJx_4core3fmt5Debug3fmt
libcxx-rust-cssparser.so.1:_RNvXs1a_NtNtCs9ZIvzb94SJx_4core3num11niche_typesNtB6_15NonZeroI16InnerNtNtBa_3fmt5Debug3fmt
libcxx-rust-cssparser.so.1:_RNvXs1b_NtCs4z76MhC0nbo_5alloc6stringNtB6_5DrainINtNtCs9ZIvzb94SJx_4core7convert5AsRefShE6as_ref
libcxx-rust-cssparser.so.1:_RNvXs1b_NtCsk6apSIyUfCg_3std4pathNtB6_7DisplayNtNtCs9ZIvzb94SJx_4core3fmt7Display3fmt
libcxx-rust-cssparser.so.1:_RNvXs1b_NtNtCs9ZIvzb94SJx_4core3net7ip_addrNtB6_8Ipv4AddrINtNtNtBa_3ops3bit11BitOrAssignRBF_E12bitor_assign
libcxx-rust-cssparser.so.1:_RNvXs1c_NtCs4z76MhC0nbo_5alloc6stringNtB6_5DrainNtNtNtNtCs9ZIvzb94SJx_4core4iter6traits8iterator8Iterator9size_hint
libcxx-rust-cssparser.so.1:_RNvXs1c_NtCsd97RIzLnxns_5gimli9constantsNtB6_4DwAtNtNtCs9ZIvzb94SJx_4core3fmt7Display3fmt
libcxx-rust-cssparser.so.1:_RNvXs1e_NtNtCs9ZIvzb94SJx_4core4sync6atomicNtB6_9AtomicI64NtNtBa_3fmt5Debug3fmt
libcxx-rust-cssparser.so.1:_RNvXs1f_NtNtCs9ZIvzb94SJx_4core3num7nonzeroINtB6_7NonZeroyENtNtNtBa_3str6traits7FromStr8from_str
libcxx-rust-cssparser.so.1:_RNvXs1g_NtCs9ZIvzb94SJx_4core3fmtRNtNtNtB8_3num5error12IntErrorKindNtB6_5Debug3fmtCsglvZrah94c3_14rustc_demangle
libcxx-rust-cssparser.so.1:_RNvXs1g_NtCs9ZIvzb94SJx_4core3fmtRNtNtNtCsd97RIzLnxns_5gimli4read6abbrev22AttributeSpecificationNtB6_5Debug3fmtBC_
libcxx-rust-cssparser.so.1:_RNvXs1g_NtCs9ZIvzb94SJx_4core3fmtReNtB6_5Debug3fmtCsglvZrah94c3_14rustc_demangle
libcxx-rust-cssparser.so.1:_RNvXs1g_NtCs9ZIvzb94SJx_4core3fmtRhNtB6_5Debug3fmtCsglvZrah94c3_14rustc_demangle
libcxx-rust-cssparser.so.1:_RNvXs1g_NtCs9ZIvzb94SJx_4core3fmtRtNtB6_5Debug3fmtCsd97RIzLnxns_5gimli
libcxx-rust-cssparser.so.1:_RNvXs1g_NtCs9ZIvzb94SJx_4core3fmtRuNtB6_5Debug3fmtCsglvZrah94c3_14rustc_demangle
libcxx-rust-cssparser.so.1:_RNvXs1g_NtCs9ZIvzb94SJx_4core3fmtRxNtB6_5Debug3fmtCsd97RIzLnxns_5gimli
libcxx-rust-cssparser.so.1:_RNvXs1h_NtCs9ZIvzb94SJx_4core3fmtQShNtB6_5Debug3fmtCsglvZrah94c3_14rustc_demangle
libcxx-rust-cssparser.so.1:_RNvXs1h_NtNtCs9ZIvzb94SJx_4core3net7ip_addrNtB6_8Ipv6AddrINtNtNtBa_3ops3bit12BitAndAssignRBF_E13bitand_assign
libcxx-rust-cssparser.so.1:_RNvXs1i_NtCs9ZIvzb94SJx_4core3fmtRNtCsglvZrah94c3_14rustc_demangle13DemangleStyleNtB6_7Display3fmtBy_
libcxx-rust-cssparser.so.1:_RNvXs1i_NtCs9ZIvzb94SJx_4core3fmtReNtB6_7Display3fmtCsglvZrah94c3_14rustc_demangle
libcxx-rust-cssparser.so.1:_RNvXs1i_NtNtCs9ZIvzb94SJx_4core3num11niche_typesNtB6_15NonZeroI32InnerNtNtBa_3fmt5Debug3fmt
libcxx-rust-cssparser.so.1:_RNvXs1j_NtNtCs9ZIvzb94SJx_4core4sync6atomicNtB6_9AtomicU64NtNtBa_3fmt5Debug3fmt
libcxx-rust-cssparser.so.1:_RNvXs1m_NtNtCs9ZIvzb94SJx_4core3num7nonzeroINtB6_7NonZerooENtNtNtBa_3str6traits7FromStr8from_str
libcxx-rust-cssparser.so.1:_RNvXs1n_NtNtCs9ZIvzb94SJx_4core3net7ip_addrNtB6_8Ipv6AddrINtNtNtBa_3ops3bit11BitOrAssignRBF_E12bitor_assign
libcxx-rust-cssparser.so.1:_RNvXs1o_NtCsd97RIzLnxns_5gimli9constantsNtB6_6DwFormNtNtCs9ZIvzb94SJx_4core3fmt7Display3fmt
libcxx-rust-cssparser.so.1:_RNvXs1o_NtNtCs9ZIvzb94SJx_4core4sync6atomicNtB6_11AtomicIsizeNtNtBa_3fmt5Debug3fmt
libcxx-rust-cssparser.so.1:_RNvXs1q_NtNtCs9ZIvzb94SJx_4core3num11niche_typesNtB6_15NonZeroI64InnerNtNtBa_3fmt5Debug3fmt
libcxx-rust-cssparser.so.1:_RNvXs1t_NtNtCs9ZIvzb94SJx_4core3num7nonzeroINtB6_7NonZerojENtNtNtBa_3str6traits7FromStr8from_str
libcxx-rust-cssparser.so.1:_RNvXs1t_NtNtCs9ZIvzb94SJx_4core4sync6atomicNtB6_11AtomicUsizeNtNtBa_3fmt5Debug3fmt
libcxx-rust-cssparser.so.1:_RNvXs1u_NtCsk6apSIyUfCg_3std4pathNtB6_16StripPrefixErrorNtNtCs9ZIvzb94SJx_4core3fmt7Display3fmt
libcxx-rust-cssparser.so.1:_RNvXs1w_NtCsk6apSIyUfCg_3std4pathNtB6_14NormalizeErrorNtNtCs9ZIvzb94SJx_4core3fmt7Display3fmt
libcxx-rust-cssparser.so.1:_RNvXs1y_NtNtCs9ZIvzb94SJx_4core3num11niche_typesNtB6_16NonZeroI128InnerNtNtBa_3fmt5Debug3fmt
libcxx-rust-cssparser.so.1:_RNvXs20_NtNtCs9ZIvzb94SJx_4core3str4iterNtB6_11EscapeDebugNtNtBa_3fmt7Display3fmt
libcxx-rust-cssparser.so.1:_RNvXs23_NtNtCs9ZIvzb94SJx_4core3str4iterNtB6_13EscapeDefaultNtNtBa_3fmt7Display3fmt
libcxx-rust-cssparser.so.1:_RNvXs24_NtNtCs9ZIvzb94SJx_4core3num11niche_typesNtB6_13U32NotAllOnesNtNtBa_3fmt5Debug3fmt
libcxx-rust-cssparser.so.1:_RNvXs26_NtNtCs9ZIvzb94SJx_4core3str4iterNtB6_13EscapeUnicodeNtNtBa_3fmt7Display3fmt
libcxx-rust-cssparser.so.1:_RNvXs2A_NtNtCs9ZIvzb94SJx_4core3num11niche_typesNtB6_16NonZeroCharInnerNtNtBa_3fmt5Debug3fmt
libcxx-rust-cssparser.so.1:_RNvXs2K_NtCsd97RIzLnxns_5gimli9constantsNtB6_12DwVirtualityNtNtCs9ZIvzb94SJx_4core3fmt7Display3fmt
libcxx-rust-cssparser.so.1:_RNvXs2W_NtCsd97RIzLnxns_5gimli9constantsNtB6_6DwLangNtNtCs9ZIvzb94SJx_4core3fmt7Display3fmt
libcxx-rust-cssparser.so.1:_RNvXs2_CsglvZrah94c3_14rustc_demangleNtB5_8DemangleNtNtCs9ZIvzb94SJx_4core3fmt5Debug3fmt
libcxx-rust-cssparser.so.1:_RNvXs2_NtCs4z76MhC0nbo_5alloc11collectionsNtB5_15TryReserveErrorNtNtCs9ZIvzb94SJx_4core3fmt7Display3fmt
libcxx-rust-cssparser.so.1:_RNvXs2_NtCs9ZIvzb94SJx_4core4bstrNtB5_7ByteStrNtNtB7_3fmt5Debug3fmt
libcxx-rust-cssparser.so.1:_RNvXs2_NtCs9ZIvzb94SJx_4core4charNtB5_13EscapeUnicodeNtNtB7_3fmt7Display3fmt
libcxx-rust-cssparser.so.1:_RNvXs2_NtCs9ZIvzb94SJx_4core4wtf8NtB5_4Wtf8NtNtB7_3fmt7Display3fmt
libcxx-rust-cssparser.so.1:_RNvXs2_NtCsd97RIzLnxns_5gimli9constantsNtB5_6DwSectNtNtCs9ZIvzb94SJx_4core3fmt7Display3fmt
libcxx-rust-cssparser.so.1:_RNvXs2_NtCsk6apSIyUfCg_3std3envNtB5_8VarErrorNtNtCs9ZIvzb94SJx_4core3fmt7Display3fmt
libcxx-rust-cssparser.so.1:_RNvXs2_NtCsk6apSIyUfCg_3std4timeNtB5_7InstantINtNtNtCs9ZIvzb94SJx_4core3ops5arith9SubAssignNtNtBO_4time8DurationE10sub_assign
libcxx-rust-cssparser.so.1:_RNvXs2_NtCsk6apSIyUfCg_3std7processNtB5_5ChildNtNtCs9ZIvzb94SJx_4core3fmt5Debug3fmt
libcxx-rust-cssparser.so.1:_RNvXs2_NtNtCs4z76MhC0nbo_5alloc3ffi5c_strNtB5_7CStringNtNtCs9ZIvzb94SJx_4core3fmt5Debug3fmt
libcxx-rust-cssparser.so.1:_RNvXs2_NtNtCs9ZIvzb94SJx_4core3fmt3numjNtB7_6Binary3fmt
libcxx-rust-cssparser.so.1:_RNvXs2_NtNtCs9ZIvzb94SJx_4core3fmt5floatfNtB7_5Debug3fmt
libcxx-rust-cssparser.so.1:_RNvXs2_NtNtCs9ZIvzb94SJx_4core3net6parserNtNtB7_7ip_addr8Ipv4AddrNtNtNtB9_3str6traits7FromStr8from_str
libcxx-rust-cssparser.so.1:_RNvXs2_NtNtCs9ZIvzb94SJx_4core3net7ip_addrNtB5_6IpAddrNtNtB9_3fmt7Display3fmt
libcxx-rust-cssparser.so.1:_RNvXs2_NtNtCs9ZIvzb94SJx_4core3num7dec2fltdNtNtNtB9_3str6traits7FromStr8from_str
libcxx-rust-cssparser.so.1:_RNvXs2_NtNtCs9ZIvzb94SJx_4core3str5lossyNtB5_10Utf8ChunksNtNtNtNtB9_4iter6traits8iterator8Iterator4next
libcxx-rust-cssparser.so.1:_RNvXs2_NtNtCs9ZIvzb94SJx_4core5slice3cmpNtNtNtCsd97RIzLnxns_5gimli4read6abbrev22AttributeSpecificationINtB5_14SlicePartialEqBC_E17equal_same_lengthBI_
libcxx-rust-cssparser.so.1:_RNvXs2_NtNtCs9ZIvzb94SJx_4core5slice5asciiNtB5_11EscapeAsciiNtNtB9_3fmt7Display3fmt
libcxx-rust-cssparser.so.1:_RNvXs2_NtNtCsd97RIzLnxns_5gimli4read12endian_sliceNtB5_10DebugBytesNtNtCs9ZIvzb94SJx_4core3fmt5Debug3fmt
libcxx-rust-cssparser.so.1:_RNvXs2_NtNtCshlECYyjYKiK_6object4read4utilNtB5_10ByteStringNtNtCs9ZIvzb94SJx_4core3fmt5Debug3fmt
libcxx-rust-cssparser.so.1:_RNvXs2_NtNtCshlECYyjYKiK_6object4read7archiveNtB5_21ArchiveSymbolIteratorNtNtNtNtCs9ZIvzb94SJx_4core4iter6traits8iterator8Iterator4next
libcxx-rust-cssparser.so.1:_RNvXs2_NtNtCshlECYyjYKiK_6object4read7archiveNtB5_21ArchiveSymbolIteratorNtNtNtNtCs9ZIvzb94SJx_4core4iter6traits8iterator8Iterator9size_hint
libcxx-rust-cssparser.so.1:_RNvXs2_NtNtCsk6apSIyUfCg_3std12backtrace_rs9symbolizeNtB5_10SymbolNameNtNtCs9ZIvzb94SJx_4core3fmt7Display3fmt
libcxx-rust-cssparser.so.1:_RNvXs2_NtNtCsk6apSIyUfCg_3std2io5stdioNtB5_5StdinNtNtCs9ZIvzb94SJx_4core3fmt5Debug3fmt
libcxx-rust-cssparser.so.1:_RNvXs2_NtNtCsk6apSIyUfCg_3std3net3tcpRNtB5_9TcpStreamNtNtB9_2io5Write14write_vectored
libcxx-rust-cssparser.so.1:_RNvXs2_NtNtCsk6apSIyUfCg_3std3net3tcpRNtB5_9TcpStreamNtNtB9_2io5Write5write
libcxx-rust-cssparser.so.1:_RNvXs2_NtNtCsk6apSIyUfCg_3std3net3udpNtB5_9UdpSocketNtNtCs9ZIvzb94SJx_4core3fmt5Debug3fmt
libcxx-rust-cssparser.so.1:_RNvXs2_NtNtCsk6apSIyUfCg_3std6thread6scopedNtB5_5ScopeNtNtCs9ZIvzb94SJx_4core3fmt5Debug3fmt
libcxx-rust-cssparser.so.1:_RNvXs2_NtNtNtCs9ZIvzb94SJx_4core3num6bignum5testsNtB5_6Big8x3NtNtBb_3cmp3Ord3cmp
libcxx-rust-cssparser.so.1:_RNvXs2_NtNtNtCsk6apSIyUfCg_3std12backtrace_rs9backtrace9libunwindNtB5_4BombNtNtNtCs9ZIvzb94SJx_4core3ops4drop4Drop4drop
libcxx-rust-cssparser.so.1:_RNvXs2_NtNtNtCsk6apSIyUfCg_3std2io8buffered9bufwriterNtB5_14WriterPanickedNtNtCs9ZIvzb94SJx_4core3fmt7Display3fmt
libcxx-rust-cssparser.so.1:_RNvXs2_NtNtNtCsk6apSIyUfCg_3std2os4unix2ioNtNtNtBb_2io5stdio6StderrNtB5_8StdioExt7take_fd
libcxx-rust-cssparser.so.1:_RNvXs2_NtNtNtCsk6apSIyUfCg_3std3sys3env6commonNtB5_3EnvNtNtNtNtCs9ZIvzb94SJx_4core4iter6traits8iterator8Iterator4next
libcxx-rust-cssparser.so.1:_RNvXs2_NtNtNtCsk6apSIyUfCg_3std3sys3env6commonNtB5_3EnvNtNtNtNtCs9ZIvzb94SJx_4core4iter6traits8iterator8Iterator9size_hint
libcxx-rust-cssparser.so.1:_RNvXs2_NtNtNtCsk6apSIyUfCg_3std3sys4time4unixNtB5_7InstantNtNtCs9ZIvzb94SJx_4core3fmt5Debug3fmt
libcxx-rust-cssparser.so.1:_RNvXs2_NtNtNtCsk6apSIyUfCg_3std3sys6os_str5bytesNtB5_3BufNtNtCs9ZIvzb94SJx_4core3fmt7Display3fmt
libcxx-rust-cssparser.so.1:_RNvXs2_NtNtNtNtCsk6apSIyUfCg_3std2os4unix3net6streamRNtB5_10UnixStreamNtNtBd_2io4Read13read_vectored
libcxx-rust-cssparser.so.1:_RNvXs2_NtNtNtNtCsk6apSIyUfCg_3std2os4unix3net6streamRNtB5_10UnixStreamNtNtBd_2io4Read4read
libcxx-rust-cssparser.so.1:_RNvXs2_NtNtNtNtCsk6apSIyUfCg_3std2os4unix3net6streamRNtB5_10UnixStreamNtNtBd_2io4Read8read_buf
libcxx-rust-cssparser.so.1:_RNvXs2_NtNtNtNtCsk6apSIyUfCg_3std2os4unix3net9ancillaryNtB5_14ScmCredentialsNtNtNtNtCs9ZIvzb94SJx_4core4iter6traits8iterator8Iterator4next
libcxx-rust-cssparser.so.1:_RNvXs2_NtNtNtNtCsk6apSIyUfCg_3std3sys2fs4unix3dirNtNtBd_2fs3DirNtNtNtNtBd_2os2fd3raw9FromRawFd11from_raw_fd
libcxx-rust-cssparser.so.1:_RNvXs2_NtNtNtNtCsk6apSIyUfCg_3std3sys3net10connection6socketNtB5_10LookupHostNtNtNtCs9ZIvzb94SJx_4core3ops4drop4Drop4drop
libcxx-rust-cssparser.so.1:_RNvXs2_NtNtNtNtNtCsk6apSIyUfCg_3std3sys3net10connection6socket4unixNtB5_6SocketNtNtNtNtBf_2os2fd5owned4AsFd5as_fd
libcxx-rust-cssparser.so.1:_RNvXs2_NtNtNtNtNtCsk6apSIyUfCg_3std3sys3pal4unix5linux5pidfdNtB5_5PidFdNtNtNtNtBf_2os2fd3raw9FromRawFd11from_raw_fd
libcxx-rust-cssparser.so.1:_RNvXs2_NvNtCsk6apSIyUfCg_3std9panicking13panic_handlerNtB5_16StaticStrPayloadNtNtCs9ZIvzb94SJx_4core3fmt7Display3fmt
libcxx-rust-cssparser.so.1:_RNvXs2a_NtCsd97RIzLnxns_5gimli9constantsNtB6_5DwEndNtNtCs9ZIvzb94SJx_4core3fmt7Display3fmt
libcxx-rust-cssparser.so.1:_RNvXs2c_NtNtCs9ZIvzb94SJx_4core3num11niche_typesNtB6_13I32NotAllOnesNtNtBa_3fmt5Debug3fmt
libcxx-rust-cssparser.so.1:_RNvXs2k_NtNtCs9ZIvzb94SJx_4core3num11niche_typesNtB6_13U64NotAllOnesNtNtBa_3fmt5Debug3fmt
libcxx-rust-cssparser.so.1:_RNvXs2m_NtCsd97RIzLnxns_5gimli9constantsNtB6_8DwAccessNtNtCs9ZIvzb94SJx_4core3fmt7Display3fmt
libcxx-rust-cssparser.so.1:_RNvXs2s_NtNtCs9ZIvzb94SJx_4core3num11niche_typesNtB6_13I64NotAllOnesNtNtBa_3fmt5Debug3fmt
libcxx-rust-cssparser.so.1:_RNvXs2y_NtCsd97RIzLnxns_5gimli9constantsNtB6_5DwVisNtNtCs9ZIvzb94SJx_4core3fmt7Display3fmt
libcxx-rust-cssparser.so.1:_RNvXs38_NtCsd97RIzLnxns_5gimli9constantsNtB6_6DwAddrNtNtCs9ZIvzb94SJx_4core3fmt7Display3fmt
libcxx-rust-cssparser.so.1:_RNvXs3A_NtNtCs9ZIvzb94SJx_4core3num11niche_typesNtB6_14CodePointInnerNtNtBa_3fmt5Debug3fmt
libcxx-rust-cssparser.so.1:_RNvXs3I_NtCsd97RIzLnxns_5gimli9constantsNtB6_5DwInlNtNtCs9ZIvzb94SJx_4core3fmt7Display3fmt
libcxx-rust-cssparser.so.1:_RNvXs3U_NtCsd97RIzLnxns_5gimli9constantsNtB6_5DwOrdNtNtCs9ZIvzb94SJx_4core3fmt7Display3fmt
libcxx-rust-cssparser.so.1:_RNvXs3_NtCs9ZIvzb94SJx_4core4bstrNtB5_7ByteStrNtNtB7_3fmt7Display3fmt
libcxx-rust-cssparser.so.1:_RNvXs3_NtCs9ZIvzb94SJx_4core5asciiNtB5_13EscapeDefaultNtNtB7_3fmt7Display3fmt
libcxx-rust-cssparser.so.1:_RNvXs3_NtCsk6apSIyUfCg_3std4timeNtB5_7InstantNtNtNtCs9ZIvzb94SJx_4core3ops5arith3Sub3sub
libcxx-rust-cssparser.so.1:_RNvXs3_NtCsk6apSIyUfCg_3std7processNtB5_10ChildStdinNtNtB7_2io5Write14write_vectored
libcxx-rust-cssparser.so.1:_RNvXs3_NtCsk6apSIyUfCg_3std7processNtB5_10ChildStdinNtNtB7_2io5Write5write
libcxx-rust-cssparser.so.1:_RNvXs3_NtNtCs9ZIvzb94SJx_4core3fmt3numiNtB7_6Binary3fmt
libcxx-rust-cssparser.so.1:_RNvXs3_NtNtCs9ZIvzb94SJx_4core3fmt5floatfNtB7_7Display3fmt
libcxx-rust-cssparser.so.1:_RNvXs3_NtNtCs9ZIvzb94SJx_4core3net7ip_addrNtB5_6IpAddrNtNtB9_3fmt5Debug3fmt
libcxx-rust-cssparser.so.1:_RNvXs3_NtNtCs9ZIvzb94SJx_4core3num5errorNtB5_13ParseIntErrorNtNtB9_3fmt7Display3fmt
libcxx-rust-cssparser.so.1:_RNvXs3_NtNtCs9ZIvzb94SJx_4core5panic8locationNtB5_8LocationNtNtB9_3fmt5Debug3fmt
libcxx-rust-cssparser.so.1:_RNvXs3_NtNtCs9ZIvzb94SJx_4core5slice5asciiNtB5_11EscapeAsciiNtNtB9_3fmt5Debug3fmt
libcxx-rust-cssparser.so.1:_RNvXs3_NtNtCsd97RIzLnxns_5gimli4read12endian_sliceNtB5_9DebugByteNtNtCs9ZIvzb94SJx_4core3fmt5Debug3fmt
libcxx-rust-cssparser.so.1:_RNvXs3_NtNtCsk6apSIyUfCg_3std12backtrace_rs9symbolizeNtB5_10SymbolNameNtNtCs9ZIvzb94SJx_4core3fmt5Debug3fmt
libcxx-rust-cssparser.so.1:_RNvXs3_NtNtCsk6apSIyUfCg_3std2io5errorNtB5_9ErrorKindNtNtCs9ZIvzb94SJx_4core3fmt7Display3fmt
libcxx-rust-cssparser.so.1:_RNvXs3_NtNtCsk6apSIyUfCg_3std2io5stdioNtB5_5StdinNtB7_4Read10read_exact
libcxx-rust-cssparser.so.1:_RNvXs3_NtNtCsk6apSIyUfCg_3std2io5stdioNtB5_5StdinNtB7_4Read11read_to_end
libcxx-rust-cssparser.so.1:_RNvXs3_NtNtCsk6apSIyUfCg_3std2io5stdioNtB5_5StdinNtB7_4Read13read_vectored
libcxx-rust-cssparser.so.1:_RNvXs3_NtNtCsk6apSIyUfCg_3std2io5stdioNtB5_5StdinNtB7_4Read14read_buf_exact
libcxx-rust-cssparser.so.1:_RNvXs3_NtNtCsk6apSIyUfCg_3std2io5stdioNtB5_5StdinNtB7_4Read14read_to_string
libcxx-rust-cssparser.so.1:_RNvXs3_NtNtCsk6apSIyUfCg_3std2io5stdioNtB5_5StdinNtB7_4Read4read
libcxx-rust-cssparser.so.1:_RNvXs3_NtNtCsk6apSIyUfCg_3std2io5stdioNtB5_5StdinNtB7_4Read8read_buf
libcxx-rust-cssparser.so.1:_RNvXs3_NtNtCsk6apSIyUfCg_3std4sync4onceNtB5_9OnceStateNtNtCs9ZIvzb94SJx_4core3fmt5Debug3fmt
libcxx-rust-cssparser.so.1:_RNvXs3_NtNtNtCs9ZIvzb94SJx_4core3fmt3num3imptNtB9_7Display3fmt
libcxx-rust-cssparser.so.1:_RNvXs3_NtNtNtCs9ZIvzb94SJx_4core4iter8adapters3zipINtB5_3ZipINtNtNtBb_5slice4iter4ItertEINtBZ_7IterMutmEEINtB5_7ZipImplBW_B1o_E3newCsdIMhsiQnxUU_11miniz_oxide
libcxx-rust-cssparser.so.1:_RNvXs3_NtNtNtCsk6apSIyUfCg_3std2io8buffered9bufwriterNtB5_14WriterPanickedNtNtCs9ZIvzb94SJx_4core3fmt5Debug3fmt
libcxx-rust-cssparser.so.1:_RNvXs3_NtNtNtCsk6apSIyUfCg_3std2os4unix2ioNtNtNtBb_2io5stdio10StderrLockNtB5_8StdioExt7take_fd
libcxx-rust-cssparser.so.1:_RNvXs3_NtNtNtCsk6apSIyUfCg_3std2os5linux7processNtB5_5PidFdNtNtNtB9_2fd3raw9FromRawFd11from_raw_fd
libcxx-rust-cssparser.so.1:_RNvXs3_NtNtNtCsk6apSIyUfCg_3std3sys2fd4unixNtB5_8FileDescNtNtNtNtBb_2os2fd5owned4AsFd5as_fd
libcxx-rust-cssparser.so.1:_RNvXs3_NtNtNtCsk6apSIyUfCg_3std3sys5stdio4unixNtB5_6StderrNtNtBb_2io5Write14write_vectored
libcxx-rust-cssparser.so.1:_RNvXs3_NtNtNtCsk6apSIyUfCg_3std3sys5stdio4unixNtB5_6StderrNtNtBb_2io5Write5write
libcxx-rust-cssparser.so.1:_RNvXs3_NtNtNtCsk6apSIyUfCg_3std3sys6os_str5bytesNtB5_5SliceNtNtCs9ZIvzb94SJx_4core3fmt5Debug3fmt
libcxx-rust-cssparser.so.1:_RNvXs3_NtNtNtNtCsk6apSIyUfCg_3std2os4unix3net6streamNtB5_10UnixStreamNtNtBd_2io5Write14write_vectored
libcxx-rust-cssparser.so.1:_RNvXs3_NtNtNtNtCsk6apSIyUfCg_3std2os4unix3net6streamNtB5_10UnixStreamNtNtBd_2io5Write5write
libcxx-rust-cssparser.so.1:_RNvXs3_NtNtNtNtCsk6apSIyUfCg_3std3sys2fs4unix3dirNtNtBd_2fs3DirNtNtNtNtBd_2os2fd5owned4AsFd5as_fd
libcxx-rust-cssparser.so.1:_RNvXs3_NtNtNtNtCsk6apSIyUfCg_3std3sys2io11kernel_copy5linuxNtNtBd_2fs4FileNtB5_8CopyRead10properties
libcxx-rust-cssparser.so.1:_RNvXs3_NtNtNtNtCsk6apSIyUfCg_3std3sys7process4unix4unixNtB5_10ExitStatusNtNtCs9ZIvzb94SJx_4core3fmt7Display3fmt
libcxx-rust-cssparser.so.1:_RNvXs3_NtNtNtNtNtCsk6apSIyUfCg_3std3sys7process4unix6common13cstring_arrayNtB5_12CStringArrayNtNtNtCs9ZIvzb94SJx_4core3ops4drop4Drop4drop
libcxx-rust-cssparser.so.1:_RNvXs3k_NtCsd97RIzLnxns_5gimli9constantsNtB6_4DwIdNtNtCs9ZIvzb94SJx_4core3fmt7Display3fmt
libcxx-rust-cssparser.so.1:_RNvXs3w_NtCsd97RIzLnxns_5gimli9constantsNtB6_4DwCcNtNtCs9ZIvzb94SJx_4core3fmt7Display3fmt
libcxx-rust-cssparser.so.1:_RNvXs46_NtCsd97RIzLnxns_5gimli9constantsNtB6_5DwDscNtNtCs9ZIvzb94SJx_4core3fmt7Display3fmt
libcxx-rust-cssparser.so.1:_RNvXs4G_NtCsd97RIzLnxns_5gimli9constantsNtB6_5DwLnsNtNtCs9ZIvzb94SJx_4core3fmt7Display3fmt
libcxx-rust-cssparser.so.1:_RNvXs4S_NtCsd97RIzLnxns_5gimli9constantsNtB6_5DwLneNtNtCs9ZIvzb94SJx_4core3fmt7Display3fmt
libcxx-rust-cssparser.so.1:_RNvXs4_NtCs4z76MhC0nbo_5alloc6stringNtB5_6StringNtNtCs9ZIvzb94SJx_4core5clone5Clone10clone_from
libcxx-rust-cssparser.so.1:_RNvXs4_NtCs4z76MhC0nbo_5alloc6stringNtB5_6StringNtNtCs9ZIvzb94SJx_4core5clone5Clone5clone
libcxx-rust-cssparser.so.1:_RNvXs4_NtCs9ZIvzb94SJx_4core3pataNtB5_12RangePattern7sub_one
libcxx-rust-cssparser.so.1:_RNvXs4_NtCs9ZIvzb94SJx_4core5asciiNtB5_13EscapeDefaultNtNtB7_3fmt5Debug3fmt
libcxx-rust-cssparser.so.1:_RNvXs4_NtCs9ZIvzb94SJx_4core5errorNtB5_7RequestNtNtB7_3fmt5Debug3fmt
libcxx-rust-cssparser.so.1:_RNvXs4_NtCshlECYyjYKiK_6object4readNtB5_12SectionIndexNtNtCs9ZIvzb94SJx_4core3fmt7Display3fmt
libcxx-rust-cssparser.so.1:_RNvXs4_NtCsk6apSIyUfCg_3std3envNtB5_10SplitPathsNtNtNtNtCs9ZIvzb94SJx_4core4iter6traits8iterator8Iterator4next
libcxx-rust-cssparser.so.1:_RNvXs4_NtCsk6apSIyUfCg_3std4timeNtB5_7InstantNtNtCs9ZIvzb94SJx_4core3fmt5Debug3fmt
libcxx-rust-cssparser.so.1:_RNvXs4_NtCsk6apSIyUfCg_3std7processRNtB5_10ChildStdinNtNtB7_2io5Write14write_vectored
libcxx-rust-cssparser.so.1:_RNvXs4_NtCsk6apSIyUfCg_3std7processRNtB5_10ChildStdinNtNtB7_2io5Write5write
libcxx-rust-cssparser.so.1:_RNvXs4_NtCsk6apSIyUfCg_3std9backtraceNtB5_9BacktraceNtNtCs9ZIvzb94SJx_4core3fmt7Display3fmt
libcxx-rust-cssparser.so.1:_RNvXs4_NtNtCs4vvGeN3ANz4_6memchr6memmem8searcherNtB5_9PrefilterNtNtCs9ZIvzb94SJx_4core3fmt5Debug3fmt
libcxx-rust-cssparser.so.1:_RNvXs4_NtNtCs4z76MhC0nbo_5alloc3ffi5c_strNtB5_7CStringNtNtCs9ZIvzb94SJx_4core7default7Default7default
libcxx-rust-cssparser.so.1:_RNvXs4_NtNtCs9ZIvzb94SJx_4core3fmt3numjNtB7_5Octal3fmt
libcxx-rust-cssparser.so.1:_RNvXs4_NtNtCs9ZIvzb94SJx_4core3fmt5floatfNtB7_8LowerExp3fmt
libcxx-rust-cssparser.so.1:_RNvXs4_NtNtCs9ZIvzb94SJx_4core3net11socket_addrNtB5_10SocketAddrNtNtB9_3fmt7Display3fmt
libcxx-rust-cssparser.so.1:_RNvXs4_NtNtCs9ZIvzb94SJx_4core3net6parserNtNtB7_7ip_addr8Ipv6AddrNtNtNtB9_3str6traits7FromStr8from_str
libcxx-rust-cssparser.so.1:_RNvXs4_NtNtCs9ZIvzb94SJx_4core3str5lossyNtB5_10Utf8ChunksNtNtB9_3fmt5Debug3fmt
libcxx-rust-cssparser.so.1:_RNvXs4_NtNtCsd97RIzLnxns_5gimli4read12endian_sliceNtB5_8DebugLenNtNtCs9ZIvzb94SJx_4core3fmt5Debug3fmt
libcxx-rust-cssparser.so.1:_RNvXs4_NtNtCsk6apSIyUfCg_3std2io4copyINtNtCs4z76MhC0nbo_5alloc3vec3VechENtB5_18BufferedWriterSpec11buffer_size
libcxx-rust-cssparser.so.1:_RNvXs4_NtNtCsk6apSIyUfCg_3std2io4pipeRNtB5_10PipeReaderNtB7_4Read11read_to_end
libcxx-rust-cssparser.so.1:_RNvXs4_NtNtCsk6apSIyUfCg_3std2io4pipeRNtB5_10PipeReaderNtB7_4Read13read_vectored
libcxx-rust-cssparser.so.1:_RNvXs4_NtNtCsk6apSIyUfCg_3std2io4pipeRNtB5_10PipeReaderNtB7_4Read4read
libcxx-rust-cssparser.so.1:_RNvXs4_NtNtCsk6apSIyUfCg_3std2io4pipeRNtB5_10PipeReaderNtB7_4Read8read_buf
libcxx-rust-cssparser.so.1:_RNvXs4_NtNtCsk6apSIyUfCg_3std2io5stdioRNtB5_5StdinNtB7_4Read10read_exact
libcxx-rust-cssparser.so.1:_RNvXs4_NtNtCsk6apSIyUfCg_3std2io5stdioRNtB5_5StdinNtB7_4Read11read_to_end
libcxx-rust-cssparser.so.1:_RNvXs4_NtNtCsk6apSIyUfCg_3std2io5stdioRNtB5_5StdinNtB7_4Read13read_vectored
libcxx-rust-cssparser.so.1:_RNvXs4_NtNtCsk6apSIyUfCg_3std2io5stdioRNtB5_5StdinNtB7_4Read14read_buf_exact
libcxx-rust-cssparser.so.1:_RNvXs4_NtNtCsk6apSIyUfCg_3std2io5stdioRNtB5_5StdinNtB7_4Read14read_to_string
libcxx-rust-cssparser.so.1:_RNvXs4_NtNtCsk6apSIyUfCg_3std2io5stdioRNtB5_5StdinNtB7_4Read4read
libcxx-rust-cssparser.so.1:_RNvXs4_NtNtCsk6apSIyUfCg_3std2io5stdioRNtB5_5StdinNtB7_4Read8read_buf
libcxx-rust-cssparser.so.1:_RNvXs4_NtNtCsk6apSIyUfCg_3std3net11socket_addrTRetENtB5_13ToSocketAddrs15to_socket_addrs
libcxx-rust-cssparser.so.1:_RNvXs4_NtNtCsk6apSIyUfCg_3std4hash6randomNtB5_11RandomStateNtNtCs9ZIvzb94SJx_4core3fmt5Debug3fmt
libcxx-rust-cssparser.so.1:_RNvXs4_NtNtNtCs9ZIvzb94SJx_4core3fmt3num3impsNtB9_7Display3fmt
libcxx-rust-cssparser.so.1:_RNvXs4_NtNtNtCsk6apSIyUfCg_3std3sys6os_str5bytesNtB5_5SliceNtNtCs9ZIvzb94SJx_4core3fmt7Display3fmt
libcxx-rust-cssparser.so.1:_RNvXs4_NtNtNtNtCsk6apSIyUfCg_3std2os4unix3net6streamRNtB5_10UnixStreamNtNtBd_2io5Write14write_vectored
libcxx-rust-cssparser.so.1:_RNvXs4_NtNtNtNtCsk6apSIyUfCg_3std2os4unix3net6streamRNtB5_10UnixStreamNtNtBd_2io5Write5write
libcxx-rust-cssparser.so.1:_RNvXs4_NtNtNtNtCsk6apSIyUfCg_3std2os4unix3net9ancillaryNtB5_8MessagesNtNtNtNtCs9ZIvzb94SJx_4core4iter6traits8iterator8Iterator4next
libcxx-rust-cssparser.so.1:_RNvXs4_NtNtNtNtCsk6apSIyUfCg_3std3sys2io11kernel_copy5linuxRNtNtBd_2fs4FileNtB5_8CopyRead10properties
libcxx-rust-cssparser.so.1:_RNvXs4_NtNtNtNtNtCsk6apSIyUfCg_3std3sys7process4unix6common13cstring_arrayNtB5_11CStringIterNtNtNtNtCs9ZIvzb94SJx_4core4iter6traits8iterator8Iterator4next
libcxx-rust-cssparser.so.1:_RNvXs4_NtNtNtNtNtCsk6apSIyUfCg_3std3sys7process4unix6common13cstring_arrayNtB5_11CStringIterNtNtNtNtCs9ZIvzb94SJx_4core4iter6traits8iterator8Iterator9size_hint
libcxx-rust-cssparser.so.1:_RNvXs4i_NtCsd97RIzLnxns_5gimli9constantsNtB6_5DwIdxNtNtCs9ZIvzb94SJx_4core3fmt7Display3fmt
libcxx-rust-cssparser.so.1:_RNvXs4u_NtCsd97RIzLnxns_5gimli9constantsNtB6_11DwDefaultedNtNtCs9ZIvzb94SJx_4core3fmt7Display3fmt
libcxx-rust-cssparser.so.1:_RNvXs54_NtCsd97RIzLnxns_5gimli9constantsNtB6_6DwLnctNtNtCs9ZIvzb94SJx_4core3fmt7Display3fmt
libcxx-rust-cssparser.so.1:_RNvXs5E_NtCsd97RIzLnxns_5gimli9constantsNtB6_5DwRleNtNtCs9ZIvzb94SJx_4core3fmt7Display3fmt
libcxx-rust-cssparser.so.1:_RNvXs5Q_NtCsd97RIzLnxns_5gimli9constantsNtB6_4DwOpNtNtCs9ZIvzb94SJx_4core3fmt7Display3fmt
libcxx-rust-cssparser.so.1:_RNvXs5_NtCs9ZIvzb94SJx_4core3patsNtB5_12RangePattern7sub_one
libcxx-rust-cssparser.so.1:_RNvXs5_NtCshlECYyjYKiK_6object4readNtB5_11SymbolIndexNtNtCs9ZIvzb94SJx_4core3fmt7Display3fmt
libcxx-rust-cssparser.so.1:_RNvXs5_NtCsk6apSIyUfCg_3std3envNtB5_10SplitPathsNtNtCs9ZIvzb94SJx_4core3fmt5Debug3fmt
libcxx-rust-cssparser.so.1:_RNvXs5_NtNtCs9ZIvzb94SJx_4core3fmt3numiNtB7_5Octal3fmt
libcxx-rust-cssparser.so.1:_RNvXs5_NtNtCs9ZIvzb94SJx_4core3fmt5floatfNtB7_8UpperExp3fmt
libcxx-rust-cssparser.so.1:_RNvXs5_NtNtCs9ZIvzb94SJx_4core3net11socket_addrNtB5_10SocketAddrNtNtB9_3fmt5Debug3fmt
libcxx-rust-cssparser.so.1:_RNvXs5_NtNtCs9ZIvzb94SJx_4core3num6bignumNtB5_8Big32x40NtNtB9_3cmp10PartialOrd11partial_cmp
libcxx-rust-cssparser.so.1:_RNvXs5_NtNtCs9ZIvzb94SJx_4core6marker8varianceNtB5_28PhantomContravariantLifetimeNtNtB9_3fmt5Debug3fmt
libcxx-rust-cssparser.so.1:_RNvXs5_NtNtCsk6apSIyUfCg_3std2io4pipeNtB5_10PipeReaderNtB7_4Read11read_to_end
libcxx-rust-cssparser.so.1:_RNvXs5_NtNtCsk6apSIyUfCg_3std2io4pipeNtB5_10PipeReaderNtB7_4Read13read_vectored
libcxx-rust-cssparser.so.1:_RNvXs5_NtNtCsk6apSIyUfCg_3std2io4pipeNtB5_10PipeReaderNtB7_4Read4read
libcxx-rust-cssparser.so.1:_RNvXs5_NtNtCsk6apSIyUfCg_3std2io4pipeNtB5_10PipeReaderNtB7_4Read8read_buf
libcxx-rust-cssparser.so.1:_RNvXs5_NtNtCsk6apSIyUfCg_3std3net11socket_addrTNtNtCs4z76MhC0nbo_5alloc6string6StringtENtB5_13ToSocketAddrs15to_socket_addrs
libcxx-rust-cssparser.so.1:_RNvXs5_NtNtNtCs9ZIvzb94SJx_4core3num6bignum5testsNtB5_6Big8x3NtNtBb_3fmt5Debug3fmt
libcxx-rust-cssparser.so.1:_RNvXs5_NtNtNtCsk6apSIyUfCg_3std2os4unix2fsNtNtBb_2fs8DirEntryNtB5_12DirEntryExt213file_name_ref
libcxx-rust-cssparser.so.1:_RNvXs5_NtNtNtCsk6apSIyUfCg_3std2os5linux7processNtB5_5PidFdNtNtNtB9_2fd5owned4AsFd5as_fd
libcxx-rust-cssparser.so.1:_RNvXs5_NtNtNtNtCsk6apSIyUfCg_3std3sys2io11kernel_copy5linuxNtNtBd_2fs4FileNtB5_9CopyWrite10properties
libcxx-rust-cssparser.so.1:_RNvXs5_NtNtNtNtCsk6apSIyUfCg_3std3sys7process4unix4unixNtB5_15ExitStatusErrorNtNtCs9ZIvzb94SJx_4core3fmt5Debug3fmt
libcxx-rust-cssparser.so.1:_RNvXs5_NtNtNtNtNtCsk6apSIyUfCg_3std3sys3net10connection6socket4unixNtB5_6SocketNtNtNtNtBf_2os2fd3raw9FromRawFd11from_raw_fd
libcxx-rust-cssparser.so.1:_RNvXs5_NtNtNtNtNtCsk6apSIyUfCg_3std3sys7process4unix6common13cstring_arrayNtB5_11CStringIterNtNtNtNtCs9ZIvzb94SJx_4core4iter6traits10exact_size17ExactSizeIterator3len
libcxx-rust-cssparser.so.1:_RNvXs5g_NtCsd97RIzLnxns_5gimli9constantsNtB6_9DwMacinfoNtNtCs9ZIvzb94SJx_4core3fmt7Display3fmt
libcxx-rust-cssparser.so.1:_RNvXs5s_NtCsd97RIzLnxns_5gimli9constantsNtB6_7DwMacroNtNtCs9ZIvzb94SJx_4core3fmt7Display3fmt
libcxx-rust-cssparser.so.1:_RNvXs62_NtCsd97RIzLnxns_5gimli9constantsNtB6_6DwEhPeNtNtCs9ZIvzb94SJx_4core3fmt7Display3fmt
libcxx-rust-cssparser.so.1:_RNvXs6_NtCs9ZIvzb94SJx_4core3patlNtB5_12RangePattern7sub_one
libcxx-rust-cssparser.so.1:_RNvXs6_NtCsk6apSIyUfCg_3std2fsNtB5_4FileNtNtCs9ZIvzb94SJx_4core3fmt5Debug3fmt
libcxx-rust-cssparser.so.1:_RNvXs6_NtCsk6apSIyUfCg_3std3envNtB5_14JoinPathsErrorNtNtCs9ZIvzb94SJx_4core3fmt7Display3fmt
libcxx-rust-cssparser.so.1:_RNvXs6_NtCsk6apSIyUfCg_3std4timeNtB5_10SystemTimeINtNtNtCs9ZIvzb94SJx_4core3ops5arith3AddNtNtBS_4time8DurationE3add
libcxx-rust-cssparser.so.1:_RNvXs6_NtNtCs9ZIvzb94SJx_4core3fmt3numjNtB7_8LowerHex3fmt
libcxx-rust-cssparser.so.1:_RNvXs6_NtNtCs9ZIvzb94SJx_4core3fmt5floatdNtB7_5Debug3fmt
libcxx-rust-cssparser.so.1:_RNvXs6_NtNtCs9ZIvzb94SJx_4core3net11socket_addrNtB5_12SocketAddrV4NtNtB9_3fmt7Display3fmt
libcxx-rust-cssparser.so.1:_RNvXs6_NtNtCs9ZIvzb94SJx_4core3net6parserNtNtB7_11socket_addr12SocketAddrV4NtNtNtB9_3str6traits7FromStr8from_str
libcxx-rust-cssparser.so.1:_RNvXs6_NtNtCs9ZIvzb94SJx_4core3net7ip_addrNtB5_8Ipv4AddrNtNtB9_3fmt7Display3fmt
libcxx-rust-cssparser.so.1:_RNvXs6_NtNtCs9ZIvzb94SJx_4core3num6bignumNtB5_8Big32x40NtNtB9_3cmp3Ord3cmp
libcxx-rust-cssparser.so.1:_RNvXs6_NtNtCs9ZIvzb94SJx_4core4char7convertNtB5_14ParseCharErrorNtNtB9_3fmt7Display3fmt
libcxx-rust-cssparser.so.1:_RNvXs6_NtNtCsk6apSIyUfCg_3std2io4pipeRNtB5_10PipeWriterNtB7_5Write14write_vectored
libcxx-rust-cssparser.so.1:_RNvXs6_NtNtCsk6apSIyUfCg_3std2io4pipeRNtB5_10PipeWriterNtB7_5Write5write
libcxx-rust-cssparser.so.1:_RNvXs6_NtNtCsk6apSIyUfCg_3std2io4utilNtB5_6RepeatNtNtCs9ZIvzb94SJx_4core3fmt5Debug3fmt
libcxx-rust-cssparser.so.1:_RNvXs6_NtNtCsk6apSIyUfCg_3std2io5errorNtNtB5_14repr_bitpacked4ReprNtNtCs9ZIvzb94SJx_4core3fmt5Debug3fmt
libcxx-rust-cssparser.so.1:_RNvXs6_NtNtCsk6apSIyUfCg_3std2io5stdioNtB5_9StdinLockNtB7_4Read10read_exact
libcxx-rust-cssparser.so.1:_RNvXs6_NtNtCsk6apSIyUfCg_3std2io5stdioNtB5_9StdinLockNtB7_4Read11read_to_end
libcxx-rust-cssparser.so.1:_RNvXs6_NtNtCsk6apSIyUfCg_3std2io5stdioNtB5_9StdinLockNtB7_4Read13read_vectored
libcxx-rust-cssparser.so.1:_RNvXs6_NtNtCsk6apSIyUfCg_3std2io5stdioNtB5_9StdinLockNtB7_4Read14read_buf_exact
libcxx-rust-cssparser.so.1:_RNvXs6_NtNtCsk6apSIyUfCg_3std2io5stdioNtB5_9StdinLockNtB7_4Read14read_to_string
libcxx-rust-cssparser.so.1:_RNvXs6_NtNtCsk6apSIyUfCg_3std2io5stdioNtB5_9StdinLockNtB7_4Read4read
libcxx-rust-cssparser.so.1:_RNvXs6_NtNtCsk6apSIyUfCg_3std2io5stdioNtB5_9StdinLockNtB7_4Read8read_buf
libcxx-rust-cssparser.so.1:_RNvXs6_NtNtCsk6apSIyUfCg_3std3net11socket_addreNtB5_13ToSocketAddrs15to_socket_addrs
libcxx-rust-cssparser.so.1:_RNvXs6_NtNtCsk6apSIyUfCg_3std3net3tcpNtB5_9TcpStreamNtNtCs9ZIvzb94SJx_4core3fmt5Debug3fmt
libcxx-rust-cssparser.so.1:_RNvXs6_NtNtNtCshlECYyjYKiK_6object4read2pe6importNtB5_27DelayLoadDescriptorIteratorNtNtNtNtCs9ZIvzb94SJx_4core4iter6traits8iterator8Iterator4next
libcxx-rust-cssparser.so.1:_RNvXs6_NtNtNtCshlECYyjYKiK_6object4read3elf10attributesNtB5_22AttributeIndexIteratorNtNtNtNtCs9ZIvzb94SJx_4core4iter6traits8iterator8Iterator4next
libcxx-rust-cssparser.so.1:_RNvXs6_NtNtNtCsk6apSIyUfCg_3std2os2fd5ownedNtB5_10BorrowedFdNtNtCs9ZIvzb94SJx_4core3fmt5Debug3fmt
libcxx-rust-cssparser.so.1:_RNvXs6_NtNtNtCsk6apSIyUfCg_3std3sys2fd4unixNtB5_8FileDescNtNtNtNtBb_2os2fd3raw9FromRawFd11from_raw_fd
libcxx-rust-cssparser.so.1:_RNvXs6_NtNtNtNtCsk6apSIyUfCg_3std3sys2io11kernel_copy5linuxRNtNtBd_2fs4FileNtB5_9CopyWrite10properties
libcxx-rust-cssparser.so.1:_RNvXs6_NtNtNtNtCsk6apSIyUfCg_3std3sys3net10connection6socketNtB5_9TcpStreamNtNtCs9ZIvzb94SJx_4core3fmt5Debug3fmt
libcxx-rust-cssparser.so.1:_RNvXs6_NtNtNtNtCsk6apSIyUfCg_3std3sys7process4unix6commonNtB5_7CommandNtNtCs9ZIvzb94SJx_4core3fmt5Debug3fmt
libcxx-rust-cssparser.so.1:_RNvXs7_NtCs9ZIvzb94SJx_4core3fmtNtB5_9ArgumentsNtB5_5Debug3fmt
libcxx-rust-cssparser.so.1:_RNvXs7_NtCs9ZIvzb94SJx_4core3patxNtB5_12RangePattern7sub_one
libcxx-rust-cssparser.so.1:_RNvXs7_NtCsk6apSIyUfCg_3std2fsRNtB5_4FileNtNtB7_2io4Read11read_to_end
libcxx-rust-cssparser.so.1:_RNvXs7_NtCsk6apSIyUfCg_3std2fsRNtB5_4FileNtNtB7_2io4Read14read_to_string
libcxx-rust-cssparser.so.1:_RNvXs7_NtCsk6apSIyUfCg_3std2ioNtB5_7IoSliceNtNtCs9ZIvzb94SJx_4core3fmt5Debug3fmt
libcxx-rust-cssparser.so.1:_RNvXs7_NtCsk6apSIyUfCg_3std4pathNtB5_10ComponentsNtNtCs9ZIvzb94SJx_4core3fmt5Debug3fmt
libcxx-rust-cssparser.so.1:_RNvXs7_NtCsk6apSIyUfCg_3std4timeNtB5_10SystemTimeINtNtNtCs9ZIvzb94SJx_4core3ops5arith9AddAssignNtNtBS_4time8DurationE10add_assign
libcxx-rust-cssparser.so.1:_RNvXs7_NtNtCs4z76MhC0nbo_5alloc3ffi5c_strINtNtB9_5boxed3BoxNtNtNtCs9ZIvzb94SJx_4core3ffi5c_str4CStrEINtNtB11_7convert4FromRBV_E4from
libcxx-rust-cssparser.so.1:_RNvXs7_NtNtCs9ZIvzb94SJx_4core3fmt3numiNtB7_8LowerHex3fmt
libcxx-rust-cssparser.so.1:_RNvXs7_NtNtCs9ZIvzb94SJx_4core3fmt5floatdNtB7_7Display3fmt
libcxx-rust-cssparser.so.1:_RNvXs7_NtNtCs9ZIvzb94SJx_4core3net11socket_addrNtB5_12SocketAddrV4NtNtB9_3fmt5Debug3fmt
libcxx-rust-cssparser.so.1:_RNvXs7_NtNtCs9ZIvzb94SJx_4core3net7ip_addrNtB5_8Ipv4AddrNtNtB9_3fmt5Debug3fmt
libcxx-rust-cssparser.so.1:_RNvXs7_NtNtCs9ZIvzb94SJx_4core4sync6atomicNtB5_10AtomicBoolNtNtB9_3fmt5Debug3fmt
libcxx-rust-cssparser.so.1:_RNvXs7_NtNtCsd97RIzLnxns_5gimli4read6abbrevNtB5_10AttributesNtNtCs9ZIvzb94SJx_4core3fmt5Debug3fmt
libcxx-rust-cssparser.so.1:_RNvXs7_NtNtCsk6apSIyUfCg_3std2io4pipeNtB5_10PipeWriterNtB7_5Write14write_vectored
libcxx-rust-cssparser.so.1:_RNvXs7_NtNtCsk6apSIyUfCg_3std2io4pipeNtB5_10PipeWriterNtB7_5Write5write
libcxx-rust-cssparser.so.1:_RNvXs7_NtNtCsk6apSIyUfCg_3std2io5errorNtB5_5ErrorNtNtCs9ZIvzb94SJx_4core3fmt7Display3fmt
libcxx-rust-cssparser.so.1:_RNvXs7_NtNtNtCsk6apSIyUfCg_3std2os2fd5ownedNtB5_7OwnedFdNtNtCs9ZIvzb94SJx_4core3fmt5Debug3fmt
libcxx-rust-cssparser.so.1:_RNvXs7_NtNtNtCsk6apSIyUfCg_3std3sys2fs4unixNtB5_8FileTypeNtNtCs9ZIvzb94SJx_4core3fmt5Debug3fmt
libcxx-rust-cssparser.so.1:_RNvXs7_NtNtNtNtCsk6apSIyUfCg_3std2os4unix3net8listenerNtB5_8IncomingNtNtNtNtCs9ZIvzb94SJx_4core4iter6traits8iterator8Iterator4next
libcxx-rust-cssparser.so.1:_RNvXs7_NtNtNtNtCsk6apSIyUfCg_3std3sys7process4unix6commonNtB5_8ExitCodeNtNtCs9ZIvzb94SJx_4core3fmt5Debug3fmt
libcxx-rust-cssparser.so.1:_RNvXs8_NtCs9ZIvzb94SJx_4core3fmtNtB5_9ArgumentsNtB5_7Display3fmt
libcxx-rust-cssparser.so.1:_RNvXs8_NtCs9ZIvzb94SJx_4core3patnNtB5_12RangePattern7sub_one
libcxx-rust-cssparser.so.1:_RNvXs8_NtCs9ZIvzb94SJx_4core5errorNtB5_6SourceNtNtNtNtB7_4iter6traits8iterator8Iterator4next
libcxx-rust-cssparser.so.1:_RNvXs8_NtCsk6apSIyUfCg_3std2fsRNtB5_4FileNtNtB7_2io5Write14write_vectored
libcxx-rust-cssparser.so.1:_RNvXs8_NtCsk6apSIyUfCg_3std2fsRNtB5_4FileNtNtB7_2io5Write5write
libcxx-rust-cssparser.so.1:_RNvXs8_NtCsk6apSIyUfCg_3std4timeNtB5_10SystemTimeINtNtNtCs9ZIvzb94SJx_4core3ops5arith3SubNtNtBS_4time8DurationE3sub
libcxx-rust-cssparser.so.1:_RNvXs8_NtCsk6apSIyUfCg_3std7processNtB5_10ChildStdinNtNtCs9ZIvzb94SJx_4core3fmt5Debug3fmt
libcxx-rust-cssparser.so.1:_RNvXs8_NtNtCs4z76MhC0nbo_5alloc3ffi5c_strINtNtB9_5boxed3BoxNtNtNtCs9ZIvzb94SJx_4core3ffi5c_str4CStrEINtNtB11_7convert4FromQBV_E4from
libcxx-rust-cssparser.so.1:_RNvXs8_NtNtCs9ZIvzb94SJx_4core3fmt3numjNtB7_8UpperHex3fmt
libcxx-rust-cssparser.so.1:_RNvXs8_NtNtCs9ZIvzb94SJx_4core3fmt5floatdNtB7_8LowerExp3fmt
libcxx-rust-cssparser.so.1:_RNvXs8_NtNtCs9ZIvzb94SJx_4core3net11socket_addrNtB5_12SocketAddrV6NtNtB9_3fmt7Display3fmt
libcxx-rust-cssparser.so.1:_RNvXs8_NtNtCs9ZIvzb94SJx_4core3net6parserNtNtB7_11socket_addr12SocketAddrV6NtNtNtB9_3str6traits7FromStr8from_str
libcxx-rust-cssparser.so.1:_RNvXs8_NtNtCsd97RIzLnxns_5gimli4read6abbrevNtB5_10AttributesNtNtCs9ZIvzb94SJx_4core3cmp9PartialEq2eq
libcxx-rust-cssparser.so.1:_RNvXs8_NtNtCsk6apSIyUfCg_3std2io5errorNtB5_5ErrorNtNtCs9ZIvzb94SJx_4core5error5Error5cause
libcxx-rust-cssparser.so.1:_RNvXs8_NtNtCsk6apSIyUfCg_3std2io5errorNtB5_5ErrorNtNtCs9ZIvzb94SJx_4core5error5Error6source
libcxx-rust-cssparser.so.1:_RNvXs8_NtNtCsk6apSIyUfCg_3std2io5stdioNtB5_9StdinLockNtB7_7BufRead10read_until
libcxx-rust-cssparser.so.1:_RNvXs8_NtNtCsk6apSIyUfCg_3std2io5stdioNtB5_9StdinLockNtB7_7BufRead7consume
libcxx-rust-cssparser.so.1:_RNvXs8_NtNtCsk6apSIyUfCg_3std2io5stdioNtB5_9StdinLockNtB7_7BufRead8fill_buf
libcxx-rust-cssparser.so.1:_RNvXs8_NtNtCsk6apSIyUfCg_3std2io5stdioNtB5_9StdinLockNtB7_7BufRead9read_line
libcxx-rust-cssparser.so.1:_RNvXs8_NtNtCsk6apSIyUfCg_3std3net3tcpNtB5_8IncomingNtNtNtNtCs9ZIvzb94SJx_4core4iter6traits8iterator8Iterator4next
libcxx-rust-cssparser.so.1:_RNvXs8_NtNtNtCs9ZIvzb94SJx_4core3fmt3num3impmNtB9_7Display3fmt
libcxx-rust-cssparser.so.1:_RNvXs9_NtCs9ZIvzb94SJx_4core3patiNtB5_12RangePattern7sub_one
libcxx-rust-cssparser.so.1:_RNvXs9_NtCs9ZIvzb94SJx_4core5sliceNtB5_19GetDisjointMutErrorNtNtB7_3fmt7Display3fmt
libcxx-rust-cssparser.so.1:_RNvXs9_NtCsk6apSIyUfCg_3std2fsRNtB5_4FileNtNtB7_2io4Seek10stream_len
libcxx-rust-cssparser.so.1:_RNvXs9_NtCsk6apSIyUfCg_3std2fsRNtB5_4FileNtNtB7_2io4Seek15stream_position
libcxx-rust-cssparser.so.1:_RNvXs9_NtCsk6apSIyUfCg_3std2fsRNtB5_4FileNtNtB7_2io4Seek4seek
libcxx-rust-cssparser.so.1:_RNvXs9_NtCsk6apSIyUfCg_3std4timeNtB5_10SystemTimeINtNtNtCs9ZIvzb94SJx_4core3ops5arith9SubAssignNtNtBS_4time8DurationE10sub_assign
libcxx-rust-cssparser.so.1:_RNvXs9_NtCsk6apSIyUfCg_3std7processNtB5_11ChildStdoutNtNtB7_2io4Read11read_to_end
libcxx-rust-cssparser.so.1:_RNvXs9_NtCsk6apSIyUfCg_3std7processNtB5_11ChildStdoutNtNtB7_2io4Read13read_vectored
libcxx-rust-cssparser.so.1:_RNvXs9_NtCsk6apSIyUfCg_3std7processNtB5_11ChildStdoutNtNtB7_2io4Read4read
libcxx-rust-cssparser.so.1:_RNvXs9_NtCsk6apSIyUfCg_3std7processNtB5_11ChildStdoutNtNtB7_2io4Read8read_buf
libcxx-rust-cssparser.so.1:_RNvXs9_NtNtCs9ZIvzb94SJx_4core3fmt3numiNtB7_8UpperHex3fmt
libcxx-rust-cssparser.so.1:_RNvXs9_NtNtCs9ZIvzb94SJx_4core3fmt5floatdNtB7_8UpperExp3fmt
libcxx-rust-cssparser.so.1:_RNvXs9_NtNtCs9ZIvzb94SJx_4core3net11socket_addrNtB5_12SocketAddrV6NtNtB9_3fmt5Debug3fmt
libcxx-rust-cssparser.so.1:_RNvXs9_NtNtCs9ZIvzb94SJx_4core3num6bignumNtB5_8Big32x40NtNtB9_3fmt5Debug3fmt
libcxx-rust-cssparser.so.1:_RNvXs9_NtNtCs9ZIvzb94SJx_4core4char7convertNtB5_16CharTryFromErrorNtNtB9_3fmt7Display3fmt
libcxx-rust-cssparser.so.1:_RNvXs9_NtNtCs9ZIvzb94SJx_4core4task4wakeNtB5_5WakerNtNtB9_3fmt5Debug3fmt
libcxx-rust-cssparser.so.1:_RNvXs9_NtNtCs9ZIvzb94SJx_4core6marker8varianceNtB5_24PhantomInvariantLifetimeNtNtB9_3fmt5Debug3fmt
libcxx-rust-cssparser.so.1:_RNvXs9_NtNtCsk6apSIyUfCg_3std2io5stdioNtB5_9StdinLockNtNtCs9ZIvzb94SJx_4core3fmt5Debug3fmt
libcxx-rust-cssparser.so.1:_RNvXs9_NtNtCsk6apSIyUfCg_3std3ffi6os_strNtB5_8OsStringNtNtCs9ZIvzb94SJx_4core3fmt5Debug3fmt
libcxx-rust-cssparser.so.1:_RNvXs9_NtNtCsk6apSIyUfCg_3std3net11socket_addrNtNtCs4z76MhC0nbo_5alloc6string6StringNtB5_13ToSocketAddrs15to_socket_addrs
libcxx-rust-cssparser.so.1:_RNvXs9_NtNtNtCs9ZIvzb94SJx_4core3fmt3num3implNtB9_7Display3fmt
libcxx-rust-cssparser.so.1:_RNvXs9_NtNtNtCshlECYyjYKiK_6object4read5macho10dyld_cacheNtB5_14DyldRelocationNtNtCs9ZIvzb94SJx_4core3fmt5Debug3fmt
libcxx-rust-cssparser.so.1:_RNvXs9_NtNtNtCshlECYyjYKiK_6object4read5xcoff6symbolNtNtBb_5xcoff8Symbol32NtB5_6Symbol11name_offset
libcxx-rust-cssparser.so.1:_RNvXs9_NtNtNtCsk6apSIyUfCg_3std3sys2fs4unixNtB5_15FilePermissionsNtNtCs9ZIvzb94SJx_4core3fmt5Debug3fmt
libcxx-rust-cssparser.so.1:_RNvXs9_NtNtNtNtCsk6apSIyUfCg_3std3sys3net10connection6socketNtB5_11TcpListenerNtNtCs9ZIvzb94SJx_4core3fmt5Debug3fmt
libcxx-rust-cssparser.so.1:_RNvXsA_NtNtCs9ZIvzb94SJx_4core3fmt3numyNtB7_5Octal3fmt
libcxx-rust-cssparser.so.1:_RNvXsA_NtNtNtCs9ZIvzb94SJx_4core3fmt3num3impyNtB9_8LowerExp3fmt
libcxx-rust-cssparser.so.1:_RNvXsA_NtNtNtCsk6apSIyUfCg_3std2os2fd5ownedNtNtNtBb_2io4pipe10PipeWriterNtB5_4AsFd5as_fd
libcxx-rust-cssparser.so.1:_RNvXsB_NtCsk6apSIyUfCg_3std2fsNtB5_7ReadDirNtNtNtNtCs9ZIvzb94SJx_4core4iter6traits8iterator8Iterator4next
libcxx-rust-cssparser.so.1:_RNvXsB_NtNtCs9ZIvzb94SJx_4core3fmt3numxNtB7_5Octal3fmt
libcxx-rust-cssparser.so.1:_RNvXsB_NtNtNtCs9ZIvzb94SJx_4core3fmt3num3impxNtB9_8UpperExp3fmt
libcxx-rust-cssparser.so.1:_RNvXsC_NtCsd97RIzLnxns_5gimli9constantsNtB5_5DwCfaNtNtCs9ZIvzb94SJx_4core3fmt7Display3fmt
libcxx-rust-cssparser.so.1:_RNvXsC_NtNtCs9ZIvzb94SJx_4core3fmt3numyNtB7_8LowerHex3fmt
libcxx-rust-cssparser.so.1:_RNvXsC_NtNtNtCs9ZIvzb94SJx_4core3fmt3num3impyNtB9_8UpperExp3fmt
libcxx-rust-cssparser.so.1:_RNvXsD_NtCs4z76MhC0nbo_5alloc3vecINtB5_3VechEINtNtCs9ZIvzb94SJx_4core7convert4FromReE4from
libcxx-rust-cssparser.so.1:_RNvXsD_NtCsk6apSIyUfCg_3std2fsNtB5_8DirEntryNtNtCs9ZIvzb94SJx_4core3fmt5Debug3fmt
libcxx-rust-cssparser.so.1:_RNvXsD_NtNtCs9ZIvzb94SJx_4core3fmt3numxNtB7_8LowerHex3fmt
libcxx-rust-cssparser.so.1:_RNvXsD_NtNtCsk6apSIyUfCg_3std3ffi6os_strReINtNtCs9ZIvzb94SJx_4core7convert7TryFromRNtB5_5OsStrE8try_from
libcxx-rust-cssparser.so.1:_RNvXsD_NtNtNtCs9ZIvzb94SJx_4core3fmt3num3impiNtB9_8LowerExp3fmt
libcxx-rust-cssparser.so.1:_RNvXsE_NtCs9ZIvzb94SJx_4core4charNtB5_11ToUppercaseNtNtNtNtB7_4iter6traits8iterator8Iterator10advance_by
libcxx-rust-cssparser.so.1:_RNvXsE_NtCs9ZIvzb94SJx_4core4charNtB5_11ToUppercaseNtNtNtNtB7_4iter6traits8iterator8Iterator24___iterator_get_unchecked
libcxx-rust-cssparser.so.1:_RNvXsE_NtCs9ZIvzb94SJx_4core4charNtB5_11ToUppercaseNtNtNtNtB7_4iter6traits8iterator8Iterator4last
libcxx-rust-cssparser.so.1:_RNvXsE_NtCs9ZIvzb94SJx_4core4charNtB5_11ToUppercaseNtNtNtNtB7_4iter6traits8iterator8Iterator4next
libcxx-rust-cssparser.so.1:_RNvXsE_NtCs9ZIvzb94SJx_4core4charNtB5_11ToUppercaseNtNtNtNtB7_4iter6traits8iterator8Iterator5count
libcxx-rust-cssparser.so.1:_RNvXsE_NtNtCs9ZIvzb94SJx_4core3fmt3numyNtB7_8UpperHex3fmt
libcxx-rust-cssparser.so.1:_RNvXsE_NtNtCs9ZIvzb94SJx_4core3num11niche_typesNtB5_15NonZeroU32InnerNtNtB9_3fmt5Debug3fmt
libcxx-rust-cssparser.so.1:_RNvXsE_NtNtNtCs9ZIvzb94SJx_4core3fmt3num3impjNtB9_8LowerExp3fmt
libcxx-rust-cssparser.so.1:_RNvXsF_NtCs9ZIvzb94SJx_4core4charNtB5_11ToUppercaseNtNtNtNtB7_4iter6traits12double_ended19DoubleEndedIterator15advance_back_by
libcxx-rust-cssparser.so.1:_RNvXsF_NtCs9ZIvzb94SJx_4core4charNtB5_11ToUppercaseNtNtNtNtB7_4iter6traits12double_ended19DoubleEndedIterator9next_back
libcxx-rust-cssparser.so.1:_RNvXsF_NtNtCs9ZIvzb94SJx_4core3fmt3numxNtB7_8UpperHex3fmt
libcxx-rust-cssparser.so.1:_RNvXsF_NtNtNtCs9ZIvzb94SJx_4core3fmt3num3impiNtB9_8UpperExp3fmt
libcxx-rust-cssparser.so.1:_RNvXsG_NtCsk6apSIyUfCg_3std4pathNtB5_7PathBufNtNtCs9ZIvzb94SJx_4core3fmt5Debug3fmt
libcxx-rust-cssparser.so.1:_RNvXsG_NtNtCs9ZIvzb94SJx_4core3fmt3numoNtB7_6Binary3fmt
libcxx-rust-cssparser.so.1:_RNvXsG_NtNtNtCs9ZIvzb94SJx_4core3fmt3num3impjNtB9_8UpperExp3fmt
libcxx-rust-cssparser.so.1:_RNvXsH_NtNtCs9ZIvzb94SJx_4core3fmt3numnNtB7_6Binary3fmt
libcxx-rust-cssparser.so.1:_RNvXsI_NtNtCs9ZIvzb94SJx_4core3fmt3numoNtB7_5Octal3fmt
libcxx-rust-cssparser.so.1:_RNvXsJ_NtNtCs9ZIvzb94SJx_4core3fmt3numnNtB7_5Octal3fmt
libcxx-rust-cssparser.so.1:_RNvXsK_NtNtCs9ZIvzb94SJx_4core3fmt3numoNtB7_8LowerHex3fmt
libcxx-rust-cssparser.so.1:_RNvXsK_NtNtCs9ZIvzb94SJx_4core4sync6atomicNtB5_8AtomicI8NtNtB9_3fmt5Debug3fmt
libcxx-rust-cssparser.so.1:_RNvXsL_NtCsk6apSIyUfCg_3std7processNtB5_10ExitStatusNtNtCs9ZIvzb94SJx_4core3fmt7Display3fmt
libcxx-rust-cssparser.so.1:_RNvXsL_NtNtCs9ZIvzb94SJx_4core3fmt3numnNtB7_8LowerHex3fmt
libcxx-rust-cssparser.so.1:_RNvXsM_NtNtCs9ZIvzb94SJx_4core3fmt3numoNtB7_8UpperHex3fmt
libcxx-rust-cssparser.so.1:_RNvXsM_NtNtCs9ZIvzb94SJx_4core3num11niche_typesNtB5_15NonZeroU64InnerNtNtB9_3fmt5Debug3fmt
libcxx-rust-cssparser.so.1:_RNvXsN_NtCs4z76MhC0nbo_5alloc6stringNtB5_6StringINtNtCs9ZIvzb94SJx_4core7convert4FromINtNtB7_5boxed3BoxeEE4from
libcxx-rust-cssparser.so.1:_RNvXsN_NtNtCs9ZIvzb94SJx_4core3fmt3numnNtB7_8UpperHex3fmt
libcxx-rust-cssparser.so.1:_RNvXsN_NtNtCs9ZIvzb94SJx_4core3str4iterNtB5_11EncodeUtf16NtNtB9_3fmt5Debug3fmt
libcxx-rust-cssparser.so.1:_RNvXsO_NtCs4z76MhC0nbo_5alloc6stringINtNtB7_5boxed3BoxeEINtNtCs9ZIvzb94SJx_4core7convert4FromNtB5_6StringE4from
libcxx-rust-cssparser.so.1:_RNvXsO_NtCsd97RIzLnxns_5gimli9constantsNtB5_10DwChildrenNtNtCs9ZIvzb94SJx_4core3fmt7Display3fmt
libcxx-rust-cssparser.so.1:_RNvXsO_NtNtCsk6apSIyUfCg_3std3ffi6os_strNtB5_5OsStrNtNtCs9ZIvzb94SJx_4core3fmt5Debug3fmt
libcxx-rust-cssparser.so.1:_RNvXsP_NtCs4z76MhC0nbo_5alloc6stringNtB5_6StringINtNtCs9ZIvzb94SJx_4core7convert4FromINtNtB7_6borrow3CoweEE4from
libcxx-rust-cssparser.so.1:_RNvXsP_NtCsk6apSIyUfCg_3std7processNtB5_15ExitStatusErrorNtNtCs9ZIvzb94SJx_4core3fmt7Display3fmt
libcxx-rust-cssparser.so.1:_RNvXsP_NtNtCs9ZIvzb94SJx_4core4sync6atomicNtB5_8AtomicU8NtNtB9_3fmt5Debug3fmt
libcxx-rust-cssparser.so.1:_RNvXsP_NtNtCsk6apSIyUfCg_3std3ffi6os_strNtB5_7DisplayNtNtCs9ZIvzb94SJx_4core3fmt5Debug3fmt
libcxx-rust-cssparser.so.1:_RNvXsQ_NtNtCsk6apSIyUfCg_3std3ffi6os_strNtB5_7DisplayNtNtCs9ZIvzb94SJx_4core3fmt7Display3fmt
libcxx-rust-cssparser.so.1:_RNvXsR_NtCsjSWokaHKjd2_9hashbrown3rawNtB5_18RawIterHashIndicesNtNtCs9ZIvzb94SJx_4core7default7Default7default
libcxx-rust-cssparser.so.1:_RNvXsU_NtCsjSWokaHKjd2_9hashbrown3rawNtB5_18RawIterHashIndicesNtNtNtNtCs9ZIvzb94SJx_4core4iter6traits8iterator8Iterator4next
libcxx-rust-cssparser.so.1:_RNvXsU_NtNtCs9ZIvzb94SJx_4core3num11niche_typesNtB5_16NonZeroU128InnerNtNtB9_3fmt5Debug3fmt
libcxx-rust-cssparser.so.1:_RNvXsU_NtNtCs9ZIvzb94SJx_4core3num7nonzeroINtB5_7NonZerohENtNtNtB9_3str6traits7FromStr8from_str
libcxx-rust-cssparser.so.1:_RNvXsU_NtNtCs9ZIvzb94SJx_4core4sync6atomicNtB5_9AtomicI16NtNtB9_3fmt5Debug3fmt
libcxx-rust-cssparser.so.1:_RNvXsV_NtCs9ZIvzb94SJx_4core5arrayAhj4_NtNtB7_7default7Default7defaultCsdIMhsiQnxUU_11miniz_oxide
libcxx-rust-cssparser.so.1:_RNvXsX_NtCs9ZIvzb94SJx_4core5arrayAhj2_NtNtB7_7default7Default7defaultCsdIMhsiQnxUU_11miniz_oxide
libcxx-rust-cssparser.so.1:_RNvXsY_NtCs4z76MhC0nbo_5alloc6stringNtB5_6StringINtNtCs9ZIvzb94SJx_4core7convert7TryFromINtNtB7_3vec3VechEE8try_from
libcxx-rust-cssparser.so.1:_RNvXsZ_NtNtCs9ZIvzb94SJx_4core4sync6atomicNtB5_9AtomicU16NtNtB9_3fmt5Debug3fmt
libcxx-rust-cssparser.so.1:_RNvXs_CsglvZrah94c3_14rustc_demangleNtB4_13DemangleStyleNtNtCs9ZIvzb94SJx_4core3fmt7Display3fmt
libcxx-rust-cssparser.so.1:_RNvXs_NtCs4vvGeN3ANz4_6memchr6memmemNtB4_8FindIterNtNtNtNtCs9ZIvzb94SJx_4core4iter6traits8iterator8Iterator4next
libcxx-rust-cssparser.so.1:_RNvXs_NtCs9ZIvzb94SJx_4core3anyDNtB4_3AnyEL_NtNtB6_3fmt5Debug3fmt
libcxx-rust-cssparser.so.1:_RNvXs_NtCs9ZIvzb94SJx_4core5allocNtB4_10AllocErrorNtNtB6_3fmt7Display3fmt
libcxx-rust-cssparser.so.1:_RNvXs_NtCsk6apSIyUfCg_3std2fsNtB4_12TryLockErrorNtNtCs9ZIvzb94SJx_4core3fmt5Debug3fmt
libcxx-rust-cssparser.so.1:_RNvXs_NtCsk6apSIyUfCg_3std3envNtB4_4VarsNtNtCs9ZIvzb94SJx_4core3fmt5Debug3fmt
libcxx-rust-cssparser.so.1:_RNvXs_NtCsk6apSIyUfCg_3std4timeNtB4_7InstantINtNtNtCs9ZIvzb94SJx_4core3ops5arith3AddNtNtBN_4time8DurationE3add
libcxx-rust-cssparser.so.1:_RNvXs_NtCsk6apSIyUfCg_3std5panicNtB4_13PanicHookInfoNtNtCs9ZIvzb94SJx_4core3fmt7Display3fmt
libcxx-rust-cssparser.so.1:_RNvXs_NtCsk6apSIyUfCg_3std9backtraceNtB4_14BacktraceFrameNtNtCs9ZIvzb94SJx_4core3fmt5Debug3fmt
libcxx-rust-cssparser.so.1:_RNvXs_NtNtCs4vvGeN3ANz4_6memchr6memmem8searcherNtB4_8SearcherNtNtCs9ZIvzb94SJx_4core3fmt5Debug3fmt
libcxx-rust-cssparser.so.1:_RNvXs_NtNtCs9ZIvzb94SJx_4core3fmt3numnNtB6_7Display3fmt
libcxx-rust-cssparser.so.1:_RNvXs_NtNtCs9ZIvzb94SJx_4core3num7dec2fltNtB4_15ParseFloatErrorNtNtB8_3fmt7Display3fmt
libcxx-rust-cssparser.so.1:_RNvXs_NtNtCs9ZIvzb94SJx_4core3ptr9alignmentNtB4_9AlignmentNtNtB8_3fmt5Debug3fmt
libcxx-rust-cssparser.so.1:_RNvXs_NtNtCs9ZIvzb94SJx_4core3str4iterNtB4_5CharsNtNtB8_3fmt5Debug3fmt
libcxx-rust-cssparser.so.1:_RNvXs_NtNtCs9ZIvzb94SJx_4core3str5errorNtB4_9Utf8ErrorNtNtB8_3fmt7Display3fmt
libcxx-rust-cssparser.so.1:_RNvXs_NtNtCs9ZIvzb94SJx_4core5panic10panic_infoNtB4_9PanicInfoNtNtB8_3fmt7Display3fmt
libcxx-rust-cssparser.so.1:_RNvXs_NtNtCsjSWokaHKjd2_9hashbrown7control3tagNtB4_3TagNtNtCs9ZIvzb94SJx_4core3fmt5Debug3fmt
libcxx-rust-cssparser.so.1:_RNvXs_NtNtCsk6apSIyUfCg_3std12backtrace_rs9backtraceNtB4_5FrameNtNtCs9ZIvzb94SJx_4core3fmt5Debug3fmt
libcxx-rust-cssparser.so.1:_RNvXs_NtNtCsk6apSIyUfCg_3std2io5stdioNtB4_9StdoutRawNtB6_5Write14write_vectored
libcxx-rust-cssparser.so.1:_RNvXs_NtNtCsk6apSIyUfCg_3std2io5stdioNtB4_9StdoutRawNtB6_5Write18write_all_vectored
libcxx-rust-cssparser.so.1:_RNvXs_NtNtCsk6apSIyUfCg_3std2io5stdioNtB4_9StdoutRawNtB6_5Write5flush
libcxx-rust-cssparser.so.1:_RNvXs_NtNtCsk6apSIyUfCg_3std2io5stdioNtB4_9StdoutRawNtB6_5Write5write
libcxx-rust-cssparser.so.1:_RNvXs_NtNtCsk6apSIyUfCg_3std2io5stdioNtB4_9StdoutRawNtB6_5Write9write_all
libcxx-rust-cssparser.so.1:_RNvXs_NtNtCsk6apSIyUfCg_3std2io5stdioNtB4_9StdoutRawNtB6_5Write9write_fmt
libcxx-rust-cssparser.so.1:_RNvXs_NtNtCsk6apSIyUfCg_3std3net3tcpNtB4_9TcpStreamNtNtB8_2io4Read13read_vectored
libcxx-rust-cssparser.so.1:_RNvXs_NtNtCsk6apSIyUfCg_3std3net3tcpNtB4_9TcpStreamNtNtB8_2io4Read4read
libcxx-rust-cssparser.so.1:_RNvXs_NtNtCsk6apSIyUfCg_3std3net3tcpNtB4_9TcpStreamNtNtB8_2io4Read8read_buf
libcxx-rust-cssparser.so.1:_RNvXs_NtNtCsk6apSIyUfCg_3std4sync7barrierNtB4_7BarrierNtNtCs9ZIvzb94SJx_4core3fmt5Debug3fmt
libcxx-rust-cssparser.so.1:_RNvXs_NtNtCsk6apSIyUfCg_3std4sync9nonpoisonNtB4_10WouldBlockNtNtCs9ZIvzb94SJx_4core3fmt7Display3fmt
libcxx-rust-cssparser.so.1:_RNvXs_NtNtCsk6apSIyUfCg_3std6thread5localNtB4_11AccessErrorNtNtCs9ZIvzb94SJx_4core3fmt5Debug3fmt
libcxx-rust-cssparser.so.1:_RNvXs_NtNtNtCs9ZIvzb94SJx_4core3fmt3num3impaNtB8_7Display3fmt
libcxx-rust-cssparser.so.1:_RNvXs_NtNtNtCs9ZIvzb94SJx_4core4iter8adapters6copiedINtB4_6CopiedINtNtB6_4take4TakeINtNtNtBa_5slice4iter4IterhEEENtNtNtB8_6traits8iterator8Iterator4nextCsd97RIzLnxns_5gimli
libcxx-rust-cssparser.so.1:_RNvXs_NtNtNtCshlECYyjYKiK_6object4read2pe10relocationNtB4_23RelocationBlockIteratorNtNtNtNtCs9ZIvzb94SJx_4core4iter6traits8iterator8Iterator4next
libcxx-rust-cssparser.so.1:_RNvXs_NtNtNtCshlECYyjYKiK_6object4read2pe6exportNtB4_6ExportNtNtCs9ZIvzb94SJx_4core3fmt5Debug3fmt
libcxx-rust-cssparser.so.1:_RNvXs_NtNtNtCsk6apSIyUfCg_3std2os4unix2ioNtNtNtBa_2io5stdio10StdoutLockNtB4_8StdioExt7take_fd
libcxx-rust-cssparser.so.1:_RNvXs_NtNtNtCsk6apSIyUfCg_3std3sys2fd4unixRNtB4_8FileDescNtNtBa_2io4Read13read_vectored
libcxx-rust-cssparser.so.1:_RNvXs_NtNtNtCsk6apSIyUfCg_3std3sys2fd4unixRNtB4_8FileDescNtNtBa_2io4Read4read
libcxx-rust-cssparser.so.1:_RNvXs_NtNtNtCsk6apSIyUfCg_3std3sys2fd4unixRNtB4_8FileDescNtNtBa_2io4Read8read_buf
libcxx-rust-cssparser.so.1:_RNvXs_NtNtNtCsk6apSIyUfCg_3std3sys2fs6commonNtB4_3DirNtNtCs9ZIvzb94SJx_4core3fmt5Debug3fmt
libcxx-rust-cssparser.so.1:_RNvXs_NtNtNtCsk6apSIyUfCg_3std3sys3env6commonNtB4_3EnvNtNtCs9ZIvzb94SJx_4core3fmt5Debug3fmt
libcxx-rust-cssparser.so.1:_RNvXs_NtNtNtCsk6apSIyUfCg_3std3sys4time4unixNtB4_10SystemTimeNtNtCs9ZIvzb94SJx_4core3fmt5Debug3fmt
libcxx-rust-cssparser.so.1:_RNvXs_NtNtNtCsk6apSIyUfCg_3std3sys5stdio4unixNtB4_5StdinNtNtBa_2io4Read13read_vectored
libcxx-rust-cssparser.so.1:_RNvXs_NtNtNtCsk6apSIyUfCg_3std3sys5stdio4unixNtB4_5StdinNtNtBa_2io4Read4read
libcxx-rust-cssparser.so.1:_RNvXs_NtNtNtCsk6apSIyUfCg_3std3sys5stdio4unixNtB4_5StdinNtNtBa_2io4Read8read_buf
libcxx-rust-cssparser.so.1:_RNvXs_NtNtNtCsk6apSIyUfCg_3std3sys7helpers4wstrNtB4_9WStrUnitsNtNtNtNtCs9ZIvzb94SJx_4core4iter6traits8iterator8Iterator4next
libcxx-rust-cssparser.so.1:_RNvXs_NtNtNtCsk6apSIyUfCg_3std4sync4mpmc4zeroNtB4_9ZeroTokenNtNtCs9ZIvzb94SJx_4core3fmt5Debug3fmt
libcxx-rust-cssparser.so.1:_RNvXs_NtNtNtCsk6apSIyUfCg_3std4sync6poison7condvarNtB4_7CondvarNtNtCs9ZIvzb94SJx_4core3fmt5Debug3fmt
libcxx-rust-cssparser.so.1:_RNvXs_NtNtNtCsk6apSIyUfCg_3std4sync9nonpoison7condvarNtB4_7CondvarNtNtCs9ZIvzb94SJx_4core3fmt5Debug3fmt
libcxx-rust-cssparser.so.1:_RNvXs_NtNtNtNtCsk6apSIyUfCg_3std12backtrace_rs9symbolize5gimli19parse_running_mmapsNtB4_9MapsEntryNtNtNtCs9ZIvzb94SJx_4core3str6traits7FromStr8from_str
libcxx-rust-cssparser.so.1:_RNvXs_NtNtNtNtCsk6apSIyUfCg_3std12backtrace_rs9symbolize5gimli4mmapNtB4_4MmapNtNtNtCs9ZIvzb94SJx_4core3ops5deref5Deref5deref
libcxx-rust-cssparser.so.1:_RNvXs_NtNtNtNtCsk6apSIyUfCg_3std2os3net9linux_ext3tcpNtNtNtBc_3net3tcp9TcpStreamNtB4_12TcpStreamExt11deferaccept
libcxx-rust-cssparser.so.1:_RNvXs_NtNtNtNtCsk6apSIyUfCg_3std2os3net9linux_ext3tcpNtNtNtBc_3net3tcp9TcpStreamNtB4_12TcpStreamExt12set_quickack
libcxx-rust-cssparser.so.1:_RNvXs_NtNtNtNtCsk6apSIyUfCg_3std2os3net9linux_ext3tcpNtNtNtBc_3net3tcp9TcpStreamNtB4_12TcpStreamExt15set_deferaccept
libcxx-rust-cssparser.so.1:_RNvXs_NtNtNtNtCsk6apSIyUfCg_3std2os3net9linux_ext3tcpNtNtNtBc_3net3tcp9TcpStreamNtB4_12TcpStreamExt8quickack
libcxx-rust-cssparser.so.1:_RNvXs_NtNtNtNtCsk6apSIyUfCg_3std2os3net9linux_ext6socketNtNtNtNtBa_4unix3net6stream10UnixStreamNtB4_13UnixSocketExt12set_passcred
libcxx-rust-cssparser.so.1:_RNvXs_NtNtNtNtCsk6apSIyUfCg_3std2os3net9linux_ext6socketNtNtNtNtBa_4unix3net6stream10UnixStreamNtB4_13UnixSocketExt8passcred
libcxx-rust-cssparser.so.1:_RNvXs_NtNtNtNtCsk6apSIyUfCg_3std2os4unix3net6streamNtB4_10UnixStreamNtNtCs9ZIvzb94SJx_4core3fmt5Debug3fmt
libcxx-rust-cssparser.so.1:_RNvXs_NtNtNtNtCsk6apSIyUfCg_3std2os4unix3net8datagramNtB4_12UnixDatagramNtNtCs9ZIvzb94SJx_4core3fmt5Debug3fmt
libcxx-rust-cssparser.so.1:_RNvXs_NtNtNtNtCsk6apSIyUfCg_3std3sys2fs4unix3cfmNtB4_18CachedFileMetadataNtNtBc_2io5Write14write_vectored
libcxx-rust-cssparser.so.1:_RNvXs_NtNtNtNtCsk6apSIyUfCg_3std3sys2fs4unix3cfmNtB4_18CachedFileMetadataNtNtBc_2io5Write5write
libcxx-rust-cssparser.so.1:_RNvXs_NtNtNtNtCsk6apSIyUfCg_3std3sys2fs4unix3dirNtB4_3DirNtNtCs9ZIvzb94SJx_4core3fmt5Debug3fmt
libcxx-rust-cssparser.so.1:_RNvXs_NtNtNtNtCsk6apSIyUfCg_3std3sys3net10connection6socketNtB4_10LookupHostNtNtNtNtCs9ZIvzb94SJx_4core4iter6traits8iterator8Iterator4next
libcxx-rust-cssparser.so.1:_RNvXs_NtNtNtNtCsk6apSIyUfCg_3std3sys3pal4unix14stack_overflowNtB4_7HandlerNtNtNtCs9ZIvzb94SJx_4core3ops4drop4Drop4drop
libcxx-rust-cssparser.so.1:_RNvXs_NtNtNtNtCsk6apSIyUfCg_3std3sys4sync4once5futexNtB4_15CompletionGuardNtNtNtCs9ZIvzb94SJx_4core3ops4drop4Drop4drop
libcxx-rust-cssparser.so.1:_RNvXs_NtNtNtNtNtCsk6apSIyUfCg_3std3sys7process4unix6common13cstring_arrayNtB4_12CStringArrayINtNtNtCs9ZIvzb94SJx_4core3ops5index5IndexjE5index
libcxx-rust-cssparser.so.1:_RNvXs_NvMNtNtNtNtCsk6apSIyUfCg_3std3sys7process4unix4unixNtNtB9_6common7Command11posix_spawnNtB4_14PosixSpawnattrNtNtNtCs9ZIvzb94SJx_4core3ops4drop4Drop4drop
libcxx-rust-cssparser.so.1:_RNvXs_NvMs_NtNtCs4z76MhC0nbo_5alloc3ffi5c_strNtB9_7CString3newRShNtB4_11SpecNewImpl13spec_new_impl
libcxx-rust-cssparser.so.1:_RNvXs_NvMs_NtNtNtCsk6apSIyUfCg_3std2io8buffered9bufwriterINtB9_9BufWriterpE9flush_bufNtB4_8BufGuardNtNtNtCs9ZIvzb94SJx_4core3ops4drop4Drop4drop
libcxx-rust-cssparser.so.1:_RNvXs_NvNtCsk6apSIyUfCg_3std9panicking13panic_handlerNtB4_19FormatStringPayloadNtNtCs9ZIvzb94SJx_4core5panic12PanicPayload3get
libcxx-rust-cssparser.so.1:_RNvXs_NvNtCsk6apSIyUfCg_3std9panicking13panic_handlerNtB4_19FormatStringPayloadNtNtCs9ZIvzb94SJx_4core5panic12PanicPayload8take_box
libcxx-rust-cssparser.so.1:_RNvXs_NvNtCsk6apSIyUfCg_3std9panicking13resume_unwindNtB4_9RewrapBoxNtNtCs9ZIvzb94SJx_4core3fmt7Display3fmt
libcxx-rust-cssparser.so.1:_RNvXs_NvXsf_NtNtCs4z76MhC0nbo_5alloc5boxed7convertINtBc_3BoxDNtNtCs9ZIvzb94SJx_4core5error5ErrorNtNtB11_6marker4SyncNtB1y_4SendEL_EINtNtB11_7convert4FromNtNtBe_6string6StringE4fromNtB4_11StringErrorNtNtB11_3fmt7Display3fmt
libcxx-rust-cssparser.so.1:_RNvXsa_NtCs9ZIvzb94SJx_4core3anyNtB5_6TypeIdNtNtB7_3fmt5Debug3fmt
libcxx-rust-cssparser.so.1:_RNvXsa_NtCs9ZIvzb94SJx_4core3pathNtB5_12RangePattern7sub_one
libcxx-rust-cssparser.so.1:_RNvXsa_NtCs9ZIvzb94SJx_4core4timeNtB5_8DurationNtNtB7_3fmt5Debug3fmt
libcxx-rust-cssparser.so.1:_RNvXsa_NtCs9ZIvzb94SJx_4core4wtf8NtB5_14Wtf8CodePointsNtNtB7_3fmt5Debug3fmt
libcxx-rust-cssparser.so.1:_RNvXsa_NtCsk6apSIyUfCg_3std2fsNtB5_4FileNtNtB7_2io4Read11read_to_end
libcxx-rust-cssparser.so.1:_RNvXsa_NtCsk6apSIyUfCg_3std2fsNtB5_4FileNtNtB7_2io4Read13read_vectored
libcxx-rust-cssparser.so.1:_RNvXsa_NtCsk6apSIyUfCg_3std2fsNtB5_4FileNtNtB7_2io4Read14read_to_string
libcxx-rust-cssparser.so.1:_RNvXsa_NtCsk6apSIyUfCg_3std2fsNtB5_4FileNtNtB7_2io4Read4read
libcxx-rust-cssparser.so.1:_RNvXsa_NtCsk6apSIyUfCg_3std2fsNtB5_4FileNtNtB7_2io4Read8read_buf
libcxx-rust-cssparser.so.1:_RNvXsa_NtCsk6apSIyUfCg_3std3envNtB5_4ArgsNtNtNtNtCs9ZIvzb94SJx_4core4iter6traits8iterator8Iterator4next
libcxx-rust-cssparser.so.1:_RNvXsa_NtCsk6apSIyUfCg_3std4timeNtB5_10SystemTimeNtNtCs9ZIvzb94SJx_4core3fmt5Debug3fmt
libcxx-rust-cssparser.so.1:_RNvXsa_NtNtCs9ZIvzb94SJx_4core3fmt3numhNtB7_6Binary3fmt
libcxx-rust-cssparser.so.1:_RNvXsa_NtNtCs9ZIvzb94SJx_4core3fmt5floatC3f16NtB7_5Debug3fmt
libcxx-rust-cssparser.so.1:_RNvXsa_NtNtCs9ZIvzb94SJx_4core3net6parserNtNtB7_11socket_addr10SocketAddrNtNtNtB9_3str6traits7FromStr8from_str
libcxx-rust-cssparser.so.1:_RNvXsa_NtNtCsd97RIzLnxns_5gimli4read6abbrevNtB5_10AttributesNtNtNtCs9ZIvzb94SJx_4core3ops5deref5Deref5deref
libcxx-rust-cssparser.so.1:_RNvXsa_NtNtCsk6apSIyUfCg_3std3net3tcpNtB5_12IntoIncomingNtNtNtNtCs9ZIvzb94SJx_4core4iter6traits8iterator8Iterator4next
libcxx-rust-cssparser.so.1:_RNvXsa_NtNtNtCshlECYyjYKiK_6object4read5macho10dyld_cacheNtB5_18DyldRelocationAuthNtNtCs9ZIvzb94SJx_4core3fmt5Debug3fmt
libcxx-rust-cssparser.so.1:_RNvXsa_NtNtNtCsk6apSIyUfCg_3std3sys2fs4unixNtB5_7ReadDirNtNtCs9ZIvzb94SJx_4core3fmt5Debug3fmt
libcxx-rust-cssparser.so.1:_RNvXsa_NtNtNtNtCsk6apSIyUfCg_3std3sys7process4unix6commonNtB5_11CommandArgsNtNtNtNtCs9ZIvzb94SJx_4core4iter6traits8iterator8Iterator4next
libcxx-rust-cssparser.so.1:_RNvXsa_NtNtNtNtCsk6apSIyUfCg_3std3sys7process4unix6commonNtB5_11CommandArgsNtNtNtNtCs9ZIvzb94SJx_4core4iter6traits8iterator8Iterator9size_hint
libcxx-rust-cssparser.so.1:_RNvXsb_NtCs9ZIvzb94SJx_4core3fmtNtB5_9FormatterNtB5_5Write10write_char
libcxx-rust-cssparser.so.1:_RNvXsb_NtCs9ZIvzb94SJx_4core3fmtNtB5_9FormatterNtB5_5Write9write_str
libcxx-rust-cssparser.so.1:_RNvXsb_NtCs9ZIvzb94SJx_4core3pattNtB5_12RangePattern7sub_one
libcxx-rust-cssparser.so.1:_RNvXsb_NtCs9ZIvzb94SJx_4core4timeNtB5_21TryFromFloatSecsErrorNtNtB7_3fmt7Display3fmt
libcxx-rust-cssparser.so.1:_RNvXsb_NtCsk6apSIyUfCg_3std2fsNtB5_4FileNtNtB7_2io5Write14write_vectored
libcxx-rust-cssparser.so.1:_RNvXsb_NtCsk6apSIyUfCg_3std2fsNtB5_4FileNtNtB7_2io5Write5write
libcxx-rust-cssparser.so.1:_RNvXsb_NtCsk6apSIyUfCg_3std4pathNtB5_4IterNtNtCs9ZIvzb94SJx_4core3fmt5Debug3fmt
libcxx-rust-cssparser.so.1:_RNvXsb_NtNtCs9ZIvzb94SJx_4core3fmt3numaNtB7_6Binary3fmt
libcxx-rust-cssparser.so.1:_RNvXsb_NtNtCs9ZIvzb94SJx_4core3fmt5floatC3f16NtB7_7Display3fmt
libcxx-rust-cssparser.so.1:_RNvXsb_NtNtCs9ZIvzb94SJx_4core3net6parserNtB5_14AddrParseErrorNtNtB9_3fmt7Display3fmt
libcxx-rust-cssparser.so.1:_RNvXsb_NtNtNtCsk6apSIyUfCg_3std3sys2fs4unixNtB5_7ReadDirNtNtNtNtCs9ZIvzb94SJx_4core4iter6traits8iterator8Iterator4next
libcxx-rust-cssparser.so.1:_RNvXsb_NtNtNtNtCsk6apSIyUfCg_3std3sys7process4unix6commonNtB5_11CommandArgsNtNtNtNtCs9ZIvzb94SJx_4core4iter6traits10exact_size17ExactSizeIterator3len
libcxx-rust-cssparser.so.1:_RNvXsc_NtCs9ZIvzb94SJx_4core3fmtNtB5_5ErrorNtB5_7Display3fmt
libcxx-rust-cssparser.so.1:_RNvXsc_NtCs9ZIvzb94SJx_4core3patmNtB5_12RangePattern7sub_one
libcxx-rust-cssparser.so.1:_RNvXsc_NtCsk6apSIyUfCg_3std2fsNtB5_4FileNtNtB7_2io4Seek10stream_len
libcxx-rust-cssparser.so.1:_RNvXsc_NtCsk6apSIyUfCg_3std2fsNtB5_4FileNtNtB7_2io4Seek15stream_position
libcxx-rust-cssparser.so.1:_RNvXsc_NtCsk6apSIyUfCg_3std2fsNtB5_4FileNtNtB7_2io4Seek4seek
libcxx-rust-cssparser.so.1:_RNvXsc_NtCsk6apSIyUfCg_3std3envNtB5_4ArgsNtNtNtNtCs9ZIvzb94SJx_4core4iter6traits12double_ended19DoubleEndedIterator9next_back
libcxx-rust-cssparser.so.1:_RNvXsc_NtNtCs9ZIvzb94SJx_4core3fmt3numhNtB7_5Octal3fmt
libcxx-rust-cssparser.so.1:_RNvXsc_NtNtCs9ZIvzb94SJx_4core3fmt5floatC3f16NtB7_8LowerExp3fmt
libcxx-rust-cssparser.so.1:_RNvXsc_NtNtNtCsk6apSIyUfCg_3std3sys2fs4unixNtB5_9DirStreamNtNtNtCs9ZIvzb94SJx_4core3ops4drop4Drop4drop
libcxx-rust-cssparser.so.1:_RNvXsc_NtNtNtNtCsk6apSIyUfCg_3std3sys3net10connection6socketNtB5_9UdpSocketNtNtCs9ZIvzb94SJx_4core3fmt5Debug3fmt
libcxx-rust-cssparser.so.1:_RNvXsc_NtNtNtNtCsk6apSIyUfCg_3std3sys7process4unix6commonNtB5_11CommandArgsNtNtCs9ZIvzb94SJx_4core3fmt5Debug3fmt
libcxx-rust-cssparser.so.1:_RNvXsd_NtCs9ZIvzb94SJx_4core3patyNtB5_12RangePattern7sub_one
libcxx-rust-cssparser.so.1:_RNvXsd_NtCs9ZIvzb94SJx_4core4wtf8NtB5_10EncodeWideNtNtB7_3fmt5Debug3fmt
libcxx-rust-cssparser.so.1:_RNvXsd_NtCsk6apSIyUfCg_3std2fsINtNtCs4z76MhC0nbo_5alloc4sync3ArcNtB5_4FileENtNtB7_2io4Read11read_to_end
libcxx-rust-cssparser.so.1:_RNvXsd_NtCsk6apSIyUfCg_3std2fsINtNtCs4z76MhC0nbo_5alloc4sync3ArcNtB5_4FileENtNtB7_2io4Read13read_vectored
libcxx-rust-cssparser.so.1:_RNvXsd_NtCsk6apSIyUfCg_3std2fsINtNtCs4z76MhC0nbo_5alloc4sync3ArcNtB5_4FileENtNtB7_2io4Read14read_to_string
libcxx-rust-cssparser.so.1:_RNvXsd_NtCsk6apSIyUfCg_3std2fsINtNtCs4z76MhC0nbo_5alloc4sync3ArcNtB5_4FileENtNtB7_2io4Read4read
libcxx-rust-cssparser.so.1:_RNvXsd_NtCsk6apSIyUfCg_3std2fsINtNtCs4z76MhC0nbo_5alloc4sync3ArcNtB5_4FileENtNtB7_2io4Read8read_buf
libcxx-rust-cssparser.so.1:_RNvXsd_NtCsk6apSIyUfCg_3std3envNtB5_4ArgsNtNtCs9ZIvzb94SJx_4core3fmt5Debug3fmt
libcxx-rust-cssparser.so.1:_RNvXsd_NtCsk6apSIyUfCg_3std4timeNtB5_15SystemTimeErrorNtNtCs9ZIvzb94SJx_4core3fmt7Display3fmt
libcxx-rust-cssparser.so.1:_RNvXsd_NtCsk6apSIyUfCg_3std7processNtB5_11ChildStdoutNtNtCs9ZIvzb94SJx_4core3fmt5Debug3fmt
libcxx-rust-cssparser.so.1:_RNvXsd_NtNtCs9ZIvzb94SJx_4core3fmt3numaNtB7_5Octal3fmt
libcxx-rust-cssparser.so.1:_RNvXsd_NtNtCs9ZIvzb94SJx_4core3fmt5floatC3f16NtB7_8UpperExp3fmt
libcxx-rust-cssparser.so.1:_RNvXsd_NtNtCs9ZIvzb94SJx_4core3num11niche_typesNtB5_11NanosecondsNtNtB9_3fmt5Debug3fmt
libcxx-rust-cssparser.so.1:_RNvXsd_NtNtCsk6apSIyUfCg_3std2io5stdioNtB5_6StdoutNtNtCs9ZIvzb94SJx_4core3fmt5Debug3fmt
libcxx-rust-cssparser.so.1:_RNvXsd_NtNtNtCs9ZIvzb94SJx_4core3fmt3num3impyNtB9_7Display3fmt
libcxx-rust-cssparser.so.1:_RNvXse_NtCs9ZIvzb94SJx_4core3patoNtB5_12RangePattern7sub_one
libcxx-rust-cssparser.so.1:_RNvXse_NtCs9ZIvzb94SJx_4core4charNtB5_15CaseMappingIterNtNtNtNtB7_4iter6traits8iterator8Iterator10advance_by
libcxx-rust-cssparser.so.1:_RNvXse_NtCs9ZIvzb94SJx_4core4charNtB5_15CaseMappingIterNtNtNtNtB7_4iter6traits8iterator8Iterator24___iterator_get_unchecked
libcxx-rust-cssparser.so.1:_RNvXse_NtCs9ZIvzb94SJx_4core4charNtB5_15CaseMappingIterNtNtNtNtB7_4iter6traits8iterator8Iterator4last
libcxx-rust-cssparser.so.1:_RNvXse_NtCs9ZIvzb94SJx_4core4charNtB5_15CaseMappingIterNtNtNtNtB7_4iter6traits8iterator8Iterator4next
libcxx-rust-cssparser.so.1:_RNvXse_NtCs9ZIvzb94SJx_4core4charNtB5_15CaseMappingIterNtNtNtNtB7_4iter6traits8iterator8Iterator5count
libcxx-rust-cssparser.so.1:_RNvXse_NtCsd97RIzLnxns_5gimli9constantsNtB5_8DwSectV2NtNtCs9ZIvzb94SJx_4core3fmt7Display3fmt
libcxx-rust-cssparser.so.1:_RNvXse_NtCsk6apSIyUfCg_3std2fsINtNtCs4z76MhC0nbo_5alloc4sync3ArcNtB5_4FileENtNtB7_2io5Write14write_vectored
libcxx-rust-cssparser.so.1:_RNvXse_NtCsk6apSIyUfCg_3std2fsINtNtCs4z76MhC0nbo_5alloc4sync3ArcNtB5_4FileENtNtB7_2io5Write5write
libcxx-rust-cssparser.so.1:_RNvXse_NtCsk6apSIyUfCg_3std7processNtB5_11ChildStderrNtNtB7_2io4Read11read_to_end
libcxx-rust-cssparser.so.1:_RNvXse_NtCsk6apSIyUfCg_3std7processNtB5_11ChildStderrNtNtB7_2io4Read13read_vectored
libcxx-rust-cssparser.so.1:_RNvXse_NtCsk6apSIyUfCg_3std7processNtB5_11ChildStderrNtNtB7_2io4Read4read
libcxx-rust-cssparser.so.1:_RNvXse_NtCsk6apSIyUfCg_3std7processNtB5_11ChildStderrNtNtB7_2io4Read8read_buf
libcxx-rust-cssparser.so.1:_RNvXse_NtNtCs9ZIvzb94SJx_4core3fmt3numhNtB7_8LowerHex3fmt
libcxx-rust-cssparser.so.1:_RNvXse_NtNtCsk6apSIyUfCg_3std2io5stdioNtB5_6StdoutNtB7_5Write14write_vectored
libcxx-rust-cssparser.so.1:_RNvXse_NtNtCsk6apSIyUfCg_3std2io5stdioNtB5_6StdoutNtB7_5Write18write_all_vectored
libcxx-rust-cssparser.so.1:_RNvXse_NtNtCsk6apSIyUfCg_3std2io5stdioNtB5_6StdoutNtB7_5Write5flush
libcxx-rust-cssparser.so.1:_RNvXse_NtNtCsk6apSIyUfCg_3std2io5stdioNtB5_6StdoutNtB7_5Write5write
libcxx-rust-cssparser.so.1:_RNvXse_NtNtCsk6apSIyUfCg_3std2io5stdioNtB5_6StdoutNtB7_5Write9write_all
libcxx-rust-cssparser.so.1:_RNvXse_NtNtCsk6apSIyUfCg_3std2io5stdioNtB5_6StdoutNtB7_5Write9write_fmt
libcxx-rust-cssparser.so.1:_RNvXse_NtNtNtCs9ZIvzb94SJx_4core3fmt3num3impxNtB9_7Display3fmt
libcxx-rust-cssparser.so.1:_RNvXsf_NtCs4z76MhC0nbo_5alloc5boxedINtB5_3BoxeENtNtCs9ZIvzb94SJx_4core5clone5Clone5clone
libcxx-rust-cssparser.so.1:_RNvXsf_NtCs9ZIvzb94SJx_4core3patjNtB5_12RangePattern7sub_one
libcxx-rust-cssparser.so.1:_RNvXsf_NtCs9ZIvzb94SJx_4core4charNtB5_15CaseMappingIterNtNtNtNtB7_4iter6traits12double_ended19DoubleEndedIterator15advance_back_by
libcxx-rust-cssparser.so.1:_RNvXsf_NtCs9ZIvzb94SJx_4core4charNtB5_15CaseMappingIterNtNtNtNtB7_4iter6traits12double_ended19DoubleEndedIterator9next_back
libcxx-rust-cssparser.so.1:_RNvXsf_NtCsk6apSIyUfCg_3std2fsINtNtCs4z76MhC0nbo_5alloc4sync3ArcNtB5_4FileENtNtB7_2io4Seek10stream_len
libcxx-rust-cssparser.so.1:_RNvXsf_NtCsk6apSIyUfCg_3std2fsINtNtCs4z76MhC0nbo_5alloc4sync3ArcNtB5_4FileENtNtB7_2io4Seek15stream_position
libcxx-rust-cssparser.so.1:_RNvXsf_NtCsk6apSIyUfCg_3std2fsINtNtCs4z76MhC0nbo_5alloc4sync3ArcNtB5_4FileENtNtB7_2io4Seek4seek
libcxx-rust-cssparser.so.1:_RNvXsf_NtNtCs9ZIvzb94SJx_4core3fmt3numaNtB7_8LowerHex3fmt
libcxx-rust-cssparser.so.1:_RNvXsf_NtNtCs9ZIvzb94SJx_4core4task4wakeNtB5_10LocalWakerNtNtB9_3fmt5Debug3fmt
libcxx-rust-cssparser.so.1:_RNvXsf_NtNtCsk6apSIyUfCg_3std2io5stdioRNtB5_6StdoutNtB7_5Write14write_vectored
libcxx-rust-cssparser.so.1:_RNvXsf_NtNtCsk6apSIyUfCg_3std2io5stdioRNtB5_6StdoutNtB7_5Write18write_all_vectored
libcxx-rust-cssparser.so.1:_RNvXsf_NtNtCsk6apSIyUfCg_3std2io5stdioRNtB5_6StdoutNtB7_5Write5flush
libcxx-rust-cssparser.so.1:_RNvXsf_NtNtCsk6apSIyUfCg_3std2io5stdioRNtB5_6StdoutNtB7_5Write5write
libcxx-rust-cssparser.so.1:_RNvXsf_NtNtCsk6apSIyUfCg_3std2io5stdioRNtB5_6StdoutNtB7_5Write9write_all
libcxx-rust-cssparser.so.1:_RNvXsf_NtNtCsk6apSIyUfCg_3std2io5stdioRNtB5_6StdoutNtB7_5Write9write_fmt
libcxx-rust-cssparser.so.1:_RNvXsf_NtNtCsk6apSIyUfCg_3std3net3tcpNtB5_11TcpListenerNtNtCs9ZIvzb94SJx_4core3fmt5Debug3fmt
libcxx-rust-cssparser.so.1:_RNvXsf_NtNtNtCshlECYyjYKiK_6object4read3elf10relocationNtB5_12CrelIteratorNtNtNtNtCs9ZIvzb94SJx_4core4iter6traits8iterator8Iterator4next
libcxx-rust-cssparser.so.1:_RNvXsf_NtNtNtCsk6apSIyUfCg_3std2os2fd3rawNtNtNtBb_2io4pipe10PipeReaderNtB5_9FromRawFd11from_raw_fd
libcxx-rust-cssparser.so.1:_RNvXsg_NtCs9ZIvzb94SJx_4core3fmtbNtB5_7Display3fmt
libcxx-rust-cssparser.so.1:_RNvXsg_NtNtCs4z76MhC0nbo_5alloc5boxed7convertINtB7_3BoxDNtNtCs9ZIvzb94SJx_4core5error5ErrorEL_EINtNtBW_7convert4FromNtNtB9_6string6StringE4from
libcxx-rust-cssparser.so.1:_RNvXsg_NtNtCs9ZIvzb94SJx_4core3fmt3numhNtB7_8UpperHex3fmt
libcxx-rust-cssparser.so.1:_RNvXsh_NtCs4z76MhC0nbo_5alloc6borrowINtB5_3CoweEINtNtNtCs9ZIvzb94SJx_4core3ops5arith9AddAssignReE10add_assign
libcxx-rust-cssparser.so.1:_RNvXsh_NtCs4z76MhC0nbo_5alloc6stringSReNtB5_13SpecExtendStr16spec_extend_into
libcxx-rust-cssparser.so.1:_RNvXsh_NtCs9ZIvzb94SJx_4core3fmteNtB5_5Debug3fmt
libcxx-rust-cssparser.so.1:_RNvXsh_NtNtCs9ZIvzb94SJx_4core3fmt3numaNtB7_8UpperHex3fmt
libcxx-rust-cssparser.so.1:_RNvXsh_NtNtNtCsk6apSIyUfCg_3std3sys2fs4unixNtB5_11OpenOptionsNtNtCs9ZIvzb94SJx_4core3fmt5Debug3fmt
libcxx-rust-cssparser.so.1:_RNvXsi_NtCs4z76MhC0nbo_5alloc6borrowINtB5_3CoweENtNtNtCs9ZIvzb94SJx_4core3ops5arith9AddAssign10add_assign
libcxx-rust-cssparser.so.1:_RNvXsi_NtCs9ZIvzb94SJx_4core3fmteNtB5_7Display3fmt
libcxx-rust-cssparser.so.1:_RNvXsi_NtCsk6apSIyUfCg_3std4pathNtB5_10ComponentsNtNtNtNtCs9ZIvzb94SJx_4core4iter6traits8iterator8Iterator4next
libcxx-rust-cssparser.so.1:_RNvXsi_NtCsk6apSIyUfCg_3std7processNtB5_11ChildStderrNtNtCs9ZIvzb94SJx_4core3fmt5Debug3fmt
libcxx-rust-cssparser.so.1:_RNvXsi_NtNtCs4z76MhC0nbo_5alloc5boxed7convertINtB7_3BoxDNtNtCs9ZIvzb94SJx_4core5error5ErrorEL_EINtNtBW_7convert4FromReE4from
libcxx-rust-cssparser.so.1:_RNvXsi_NtNtCs9ZIvzb94SJx_4core3fmt3numtNtB7_6Binary3fmt
libcxx-rust-cssparser.so.1:_RNvXsi_NtNtCsk6apSIyUfCg_3std2io5stdioNtB5_10StdoutLockNtB7_5Write14write_vectored
libcxx-rust-cssparser.so.1:_RNvXsi_NtNtCsk6apSIyUfCg_3std2io5stdioNtB5_10StdoutLockNtB7_5Write18write_all_vectored
libcxx-rust-cssparser.so.1:_RNvXsi_NtNtCsk6apSIyUfCg_3std2io5stdioNtB5_10StdoutLockNtB7_5Write5flush
libcxx-rust-cssparser.so.1:_RNvXsi_NtNtCsk6apSIyUfCg_3std2io5stdioNtB5_10StdoutLockNtB7_5Write5write
libcxx-rust-cssparser.so.1:_RNvXsi_NtNtCsk6apSIyUfCg_3std2io5stdioNtB5_10StdoutLockNtB7_5Write9write_all
libcxx-rust-cssparser.so.1:_RNvXsi_NtNtNtCs9ZIvzb94SJx_4core3fmt3num3impjNtB9_7Display3fmt
libcxx-rust-cssparser.so.1:_RNvXsi_NtNtNtCsk6apSIyUfCg_3std2os2fd3rawNtNtNtBb_2io4pipe10PipeWriterNtB5_9FromRawFd11from_raw_fd
libcxx-rust-cssparser.so.1:_RNvXsj_NtCs9ZIvzb94SJx_4core3fmtcNtB5_5Debug3fmt
libcxx-rust-cssparser.so.1:_RNvXsj_NtCsk6apSIyUfCg_3std3envNtB5_6ArgsOsNtNtCs9ZIvzb94SJx_4core3fmt5Debug3fmt
libcxx-rust-cssparser.so.1:_RNvXsj_NtCsk6apSIyUfCg_3std4pathNtB5_10ComponentsNtNtNtNtCs9ZIvzb94SJx_4core4iter6traits12double_ended19DoubleEndedIterator9next_back
libcxx-rust-cssparser.so.1:_RNvXsj_NtNtCs4z76MhC0nbo_5alloc5boxed7convertINtB7_3BoxDNtNtCs9ZIvzb94SJx_4core5error5ErrorNtNtBW_6marker4SyncNtB1t_4SendEL_EINtNtBW_7convert4FromINtNtB9_6borrow3CoweEE4from
libcxx-rust-cssparser.so.1:_RNvXsj_NtNtCs9ZIvzb94SJx_4core3fmt3numsNtB7_6Binary3fmt
libcxx-rust-cssparser.so.1:_RNvXsj_NtNtCs9ZIvzb94SJx_4core3net7ip_addrNtB5_8Ipv6AddrNtNtB9_3fmt7Display3fmt
libcxx-rust-cssparser.so.1:_RNvXsj_NtNtCsk6apSIyUfCg_3std2io5stdioNtB5_10StdoutLockNtNtCs9ZIvzb94SJx_4core3fmt5Debug3fmt
libcxx-rust-cssparser.so.1:_RNvXsj_NtNtNtCs9ZIvzb94SJx_4core3fmt3num3impiNtB9_7Display3fmt
libcxx-rust-cssparser.so.1:_RNvXsk_NtCs9ZIvzb94SJx_4core3fmtcNtB5_7Display3fmt
libcxx-rust-cssparser.so.1:_RNvXsk_NtCsk6apSIyUfCg_3std2fsNtB5_3DirNtNtCs9ZIvzb94SJx_4core3fmt5Debug3fmt
libcxx-rust-cssparser.so.1:_RNvXsk_NtNtCs4z76MhC0nbo_5alloc5boxed7convertINtB7_3BoxDNtNtCs9ZIvzb94SJx_4core5error5ErrorEL_EINtNtBW_7convert4FromINtNtB9_6borrow3CoweEE4from
libcxx-rust-cssparser.so.1:_RNvXsk_NtNtCs9ZIvzb94SJx_4core3fmt3numtNtB7_5Octal3fmt
libcxx-rust-cssparser.so.1:_RNvXsk_NtNtCs9ZIvzb94SJx_4core3net7ip_addrNtB5_8Ipv6AddrNtNtB9_3fmt5Debug3fmt
libcxx-rust-cssparser.so.1:_RNvXsk_NtNtCsk6apSIyUfCg_3std3ffi6os_strNtB5_8OsStringNtNtCs9ZIvzb94SJx_4core3fmt5Write9write_str
libcxx-rust-cssparser.so.1:_RNvXsk_NtNtNtCsk6apSIyUfCg_3std3sys2fs4unixNtB5_10DirBuilderNtNtCs9ZIvzb94SJx_4core3fmt5Debug3fmt
libcxx-rust-cssparser.so.1:_RNvXsl_NtCsk6apSIyUfCg_3std7processNtB5_7CommandNtNtCs9ZIvzb94SJx_4core3fmt5Debug3fmt
libcxx-rust-cssparser.so.1:_RNvXsl_NtNtCs9ZIvzb94SJx_4core3fmt3numsNtB7_5Octal3fmt
libcxx-rust-cssparser.so.1:_RNvXsm_NtCs9ZIvzb94SJx_4core4charNtB5_16TryFromCharErrorNtNtB7_3fmt7Display3fmt
libcxx-rust-cssparser.so.1:_RNvXsm_NtNtCs9ZIvzb94SJx_4core3fmt3numtNtB7_8LowerHex3fmt
libcxx-rust-cssparser.so.1:_RNvXsm_NtNtNtNtCsk6apSIyUfCg_3std3sys2io11kernel_copy5linuxNtNtNtBd_2io5stdio9StdinLockNtB5_8CopyRead10properties
libcxx-rust-cssparser.so.1:_RNvXsn_NtNtCs9ZIvzb94SJx_4core3fmt3numsNtB7_8LowerHex3fmt
libcxx-rust-cssparser.so.1:_RNvXsn_NtNtCsk6apSIyUfCg_3std2io5stdioNtB5_6StderrNtNtCs9ZIvzb94SJx_4core3fmt5Debug3fmt
libcxx-rust-cssparser.so.1:_RNvXsn_NtNtCsk6apSIyUfCg_3std4sync4mpscNtB5_9RecvErrorNtNtCs9ZIvzb94SJx_4core3fmt7Display3fmt
libcxx-rust-cssparser.so.1:_RNvXsn_NtNtNtCs9ZIvzb94SJx_4core3fmt3num3impaNtB9_8LowerExp3fmt
libcxx-rust-cssparser.so.1:_RNvXsn_NtNtNtNtCsk6apSIyUfCg_3std3sys2io11kernel_copy5linuxNtNtNtBd_2io5stdio10StdoutLockNtB5_9CopyWrite10properties
libcxx-rust-cssparser.so.1:_RNvXso_NtCs4z76MhC0nbo_5alloc3vecINtB5_3VecNtNtNtCsd97RIzLnxns_5gimli4read6abbrev22AttributeSpecificationENtNtNtCs9ZIvzb94SJx_4core3ops4drop4Drop4dropBL_
libcxx-rust-cssparser.so.1:_RNvXso_NtCs4z76MhC0nbo_5alloc3vecINtB5_3VechENtNtNtCs9ZIvzb94SJx_4core3ops4drop4Drop4dropCsd97RIzLnxns_5gimli
libcxx-rust-cssparser.so.1:_RNvXso_NtCs4z76MhC0nbo_5alloc6stringRNtB5_6StringNtNtNtCs9ZIvzb94SJx_4core3str7pattern7Pattern13into_searcher
libcxx-rust-cssparser.so.1:_RNvXso_NtCsk6apSIyUfCg_3std7processNtB5_11CommandArgsNtNtNtNtCs9ZIvzb94SJx_4core4iter6traits8iterator8Iterator4next
libcxx-rust-cssparser.so.1:_RNvXso_NtCsk6apSIyUfCg_3std7processNtB5_11CommandArgsNtNtNtNtCs9ZIvzb94SJx_4core4iter6traits8iterator8Iterator9size_hint
libcxx-rust-cssparser.so.1:_RNvXso_NtNtCs9ZIvzb94SJx_4core3fmt3numtNtB7_8UpperHex3fmt
libcxx-rust-cssparser.so.1:_RNvXso_NtNtCs9ZIvzb94SJx_4core3num11niche_typesNtB5_14NonZeroU8InnerNtNtB9_3fmt5Debug3fmt
libcxx-rust-cssparser.so.1:_RNvXso_NtNtCsk6apSIyUfCg_3std2io5stdioNtB5_6StderrNtB7_5Write14write_vectored
libcxx-rust-cssparser.so.1:_RNvXso_NtNtCsk6apSIyUfCg_3std2io5stdioNtB5_6StderrNtB7_5Write18write_all_vectored
libcxx-rust-cssparser.so.1:_RNvXso_NtNtCsk6apSIyUfCg_3std2io5stdioNtB5_6StderrNtB7_5Write5flush
libcxx-rust-cssparser.so.1:_RNvXso_NtNtCsk6apSIyUfCg_3std2io5stdioNtB5_6StderrNtB7_5Write5write
libcxx-rust-cssparser.so.1:_RNvXso_NtNtCsk6apSIyUfCg_3std2io5stdioNtB5_6StderrNtB7_5Write9write_all
libcxx-rust-cssparser.so.1:_RNvXso_NtNtCsk6apSIyUfCg_3std2io5stdioNtB5_6StderrNtB7_5Write9write_fmt
libcxx-rust-cssparser.so.1:_RNvXso_NtNtNtCs9ZIvzb94SJx_4core3fmt3num3imphNtB9_8LowerExp3fmt
libcxx-rust-cssparser.so.1:_RNvXso_NtNtNtNtCsk6apSIyUfCg_3std3sys2io11kernel_copy5linuxNtNtNtBd_2io5stdio10StderrLockNtB5_9CopyWrite10properties
libcxx-rust-cssparser.so.1:_RNvXsp_NtCsk6apSIyUfCg_3std2fsNtB5_8MetadataNtNtCs9ZIvzb94SJx_4core3fmt5Debug3fmt
libcxx-rust-cssparser.so.1:_RNvXsp_NtCsk6apSIyUfCg_3std7processNtB5_11CommandArgsNtNtNtNtCs9ZIvzb94SJx_4core4iter6traits10exact_size17ExactSizeIterator3len
libcxx-rust-cssparser.so.1:_RNvXsp_NtNtCs9ZIvzb94SJx_4core3fmt3numsNtB7_8UpperHex3fmt
libcxx-rust-cssparser.so.1:_RNvXsp_NtNtCsk6apSIyUfCg_3std2io5stdioRNtB5_6StderrNtB7_5Write14write_vectored
libcxx-rust-cssparser.so.1:_RNvXsp_NtNtCsk6apSIyUfCg_3std2io5stdioRNtB5_6StderrNtB7_5Write18write_all_vectored
libcxx-rust-cssparser.so.1:_RNvXsp_NtNtCsk6apSIyUfCg_3std2io5stdioRNtB5_6StderrNtB7_5Write5flush
libcxx-rust-cssparser.so.1:_RNvXsp_NtNtCsk6apSIyUfCg_3std2io5stdioRNtB5_6StderrNtB7_5Write5write
libcxx-rust-cssparser.so.1:_RNvXsp_NtNtCsk6apSIyUfCg_3std2io5stdioRNtB5_6StderrNtB7_5Write9write_all
libcxx-rust-cssparser.so.1:_RNvXsp_NtNtCsk6apSIyUfCg_3std2io5stdioRNtB5_6StderrNtB7_5Write9write_fmt
libcxx-rust-cssparser.so.1:_RNvXsp_NtNtCsk6apSIyUfCg_3std4sync4mpscNtB5_12TryRecvErrorNtNtCs9ZIvzb94SJx_4core3fmt7Display3fmt
libcxx-rust-cssparser.so.1:_RNvXsp_NtNtNtCs9ZIvzb94SJx_4core3fmt3num3impaNtB9_8UpperExp3fmt
libcxx-rust-cssparser.so.1:_RNvXsq_NtCs9ZIvzb94SJx_4core4cellNtB5_11BorrowErrorNtNtB7_3fmt7Display3fmt
libcxx-rust-cssparser.so.1:_RNvXsq_NtCsd97RIzLnxns_5gimli9constantsNtB5_4DwUtNtNtCs9ZIvzb94SJx_4core3fmt7Display3fmt
libcxx-rust-cssparser.so.1:_RNvXsq_NtCsk6apSIyUfCg_3std7processNtB5_11CommandEnvsNtNtNtNtCs9ZIvzb94SJx_4core4iter6traits8iterator8Iterator4next
libcxx-rust-cssparser.so.1:_RNvXsq_NtNtCs4z76MhC0nbo_5alloc3ffi5c_strINtNtB9_5boxed3BoxNtNtNtCs9ZIvzb94SJx_4core3ffi5c_str4CStrENtNtB11_7default7Default7default
libcxx-rust-cssparser.so.1:_RNvXsq_NtNtCs9ZIvzb94SJx_4core3fmt3nummNtB7_6Binary3fmt
libcxx-rust-cssparser.so.1:_RNvXsq_NtNtNtCs9ZIvzb94SJx_4core3fmt3num3imphNtB9_8UpperExp3fmt
libcxx-rust-cssparser.so.1:_RNvXsr_NtCs9ZIvzb94SJx_4core3fmtSNtNtNtCsd97RIzLnxns_5gimli4read6abbrev22AttributeSpecificationNtB5_5Debug3fmtBB_
libcxx-rust-cssparser.so.1:_RNvXsr_NtCs9ZIvzb94SJx_4core3fmtShNtB5_5Debug3fmtCsglvZrah94c3_14rustc_demangle
libcxx-rust-cssparser.so.1:_RNvXsr_NtCs9ZIvzb94SJx_4core4cellNtB5_14BorrowMutErrorNtNtB7_3fmt7Display3fmt
libcxx-rust-cssparser.so.1:_RNvXsr_NtNtCs9ZIvzb94SJx_4core3fmt3numlNtB7_6Binary3fmt
libcxx-rust-cssparser.so.1:_RNvXsr_NtNtNtCs9ZIvzb94SJx_4core3fmt3num3impsNtB9_8LowerExp3fmt
libcxx-rust-cssparser.so.1:_RNvXss_NtCsk6apSIyUfCg_3std7processNtB5_11CommandEnvsNtNtCs9ZIvzb94SJx_4core3fmt5Debug3fmt
libcxx-rust-cssparser.so.1:_RNvXss_NtNtCs4z76MhC0nbo_5alloc3ffi5c_strNtB5_8NulErrorNtNtCs9ZIvzb94SJx_4core3fmt7Display3fmt
libcxx-rust-cssparser.so.1:_RNvXss_NtNtCs9ZIvzb94SJx_4core3fmt3nummNtB7_5Octal3fmt
libcxx-rust-cssparser.so.1:_RNvXss_NtNtCsk6apSIyUfCg_3std2io5stdioNtB5_10StderrLockNtB7_5Write14write_vectored
libcxx-rust-cssparser.so.1:_RNvXss_NtNtCsk6apSIyUfCg_3std2io5stdioNtB5_10StderrLockNtB7_5Write18write_all_vectored
libcxx-rust-cssparser.so.1:_RNvXss_NtNtCsk6apSIyUfCg_3std2io5stdioNtB5_10StderrLockNtB7_5Write5flush
libcxx-rust-cssparser.so.1:_RNvXss_NtNtCsk6apSIyUfCg_3std2io5stdioNtB5_10StderrLockNtB7_5Write5write
libcxx-rust-cssparser.so.1:_RNvXss_NtNtCsk6apSIyUfCg_3std2io5stdioNtB5_10StderrLockNtB7_5Write9write_all
libcxx-rust-cssparser.so.1:_RNvXss_NtNtCsk6apSIyUfCg_3std4sync4mpscNtB5_16RecvTimeoutErrorNtNtCs9ZIvzb94SJx_4core3fmt7Display3fmt
libcxx-rust-cssparser.so.1:_RNvXss_NtNtNtCs9ZIvzb94SJx_4core3fmt3num3imptNtB9_8LowerExp3fmt
libcxx-rust-cssparser.so.1:_RNvXss_NtNtNtCsk6apSIyUfCg_3std3sys2fs4unixNtB5_4FileNtNtNtNtBb_2os2fd3raw9FromRawFd11from_raw_fd
libcxx-rust-cssparser.so.1:_RNvXst_NtCsk6apSIyUfCg_3std4pathINtNtCs4z76MhC0nbo_5alloc5boxed3BoxNtB5_4PathEINtNtCs9ZIvzb94SJx_4core7convert4FromRB13_E4from
libcxx-rust-cssparser.so.1:_RNvXst_NtNtCs4z76MhC0nbo_5alloc3ffi5c_strNtB5_19FromVecWithNulErrorNtNtCs9ZIvzb94SJx_4core3fmt7Display3fmt
libcxx-rust-cssparser.so.1:_RNvXst_NtNtCs9ZIvzb94SJx_4core3fmt3numlNtB7_5Octal3fmt
libcxx-rust-cssparser.so.1:_RNvXst_NtNtCsk6apSIyUfCg_3std2io5stdioNtB5_10StderrLockNtNtCs9ZIvzb94SJx_4core3fmt5Debug3fmt
libcxx-rust-cssparser.so.1:_RNvXst_NtNtNtCs9ZIvzb94SJx_4core3fmt3num3impsNtB9_8UpperExp3fmt
libcxx-rust-cssparser.so.1:_RNvXst_NtNtNtCsk6apSIyUfCg_3std3sys2fs4unixNtB5_4FileNtNtCs9ZIvzb94SJx_4core3fmt5Debug3fmt
libcxx-rust-cssparser.so.1:_RNvXsu_NtCs9ZIvzb94SJx_4core4charNtB5_11ToLowercaseNtNtNtNtB7_4iter6traits8iterator8Iterator10advance_by
libcxx-rust-cssparser.so.1:_RNvXsu_NtCs9ZIvzb94SJx_4core4charNtB5_11ToLowercaseNtNtNtNtB7_4iter6traits8iterator8Iterator24___iterator_get_unchecked
libcxx-rust-cssparser.so.1:_RNvXsu_NtCs9ZIvzb94SJx_4core4charNtB5_11ToLowercaseNtNtNtNtB7_4iter6traits8iterator8Iterator4last
libcxx-rust-cssparser.so.1:_RNvXsu_NtCs9ZIvzb94SJx_4core4charNtB5_11ToLowercaseNtNtNtNtB7_4iter6traits8iterator8Iterator4next
libcxx-rust-cssparser.so.1:_RNvXsu_NtCs9ZIvzb94SJx_4core4charNtB5_11ToLowercaseNtNtNtNtB7_4iter6traits8iterator8Iterator5count
libcxx-rust-cssparser.so.1:_RNvXsu_NtCsjSWokaHKjd2_9hashbrown3rawNtB5_18FullBucketsIndicesNtNtCs9ZIvzb94SJx_4core7default7Default7default
libcxx-rust-cssparser.so.1:_RNvXsu_NtCsk6apSIyUfCg_3std4pathINtNtCs4z76MhC0nbo_5alloc5boxed3BoxNtB5_4PathEINtNtCs9ZIvzb94SJx_4core7convert4FromQB13_E4from
libcxx-rust-cssparser.so.1:_RNvXsu_NtCsk6apSIyUfCg_3std7processNtB5_6OutputNtNtCs9ZIvzb94SJx_4core3fmt5Debug3fmt
libcxx-rust-cssparser.so.1:_RNvXsu_NtNtCs9ZIvzb94SJx_4core3fmt3nummNtB7_8LowerHex3fmt
libcxx-rust-cssparser.so.1:_RNvXsu_NtNtNtCs9ZIvzb94SJx_4core3fmt3num3imptNtB9_8UpperExp3fmt
libcxx-rust-cssparser.so.1:_RNvXsu_NtNtNtCsk6apSIyUfCg_3std3sys2fs4unixNtB5_4ModeNtNtCs9ZIvzb94SJx_4core3fmt5Debug3fmt
libcxx-rust-cssparser.so.1:_RNvXsv_NtCs9ZIvzb94SJx_4core4charNtB5_11ToLowercaseNtNtNtNtB7_4iter6traits12double_ended19DoubleEndedIterator15advance_back_by
libcxx-rust-cssparser.so.1:_RNvXsv_NtCs9ZIvzb94SJx_4core4charNtB5_11ToLowercaseNtNtNtNtB7_4iter6traits12double_ended19DoubleEndedIterator9next_back
libcxx-rust-cssparser.so.1:_RNvXsv_NtNtCs4z76MhC0nbo_5alloc3ffi5c_strNtB5_15IntoStringErrorNtNtCs9ZIvzb94SJx_4core3fmt7Display3fmt
libcxx-rust-cssparser.so.1:_RNvXsv_NtNtCs9ZIvzb94SJx_4core3fmt3numlNtB7_8LowerHex3fmt
libcxx-rust-cssparser.so.1:_RNvXsv_NtNtNtCs9ZIvzb94SJx_4core3fmt3num3implNtB9_8LowerExp3fmt
libcxx-rust-cssparser.so.1:_RNvXsw_NtNtCs4z76MhC0nbo_5alloc3ffi5c_strNtNtNtCs9ZIvzb94SJx_4core3ffi5c_str4CStrNtNtB9_6borrow7ToOwned10clone_into
libcxx-rust-cssparser.so.1:_RNvXsw_NtNtCs4z76MhC0nbo_5alloc3ffi5c_strNtNtNtCs9ZIvzb94SJx_4core3ffi5c_str4CStrNtNtB9_6borrow7ToOwned8to_owned
libcxx-rust-cssparser.so.1:_RNvXsw_NtNtCs9ZIvzb94SJx_4core3fmt3nummNtB7_8UpperHex3fmt
libcxx-rust-cssparser.so.1:_RNvXsw_NtNtCs9ZIvzb94SJx_4core3num11niche_typesNtB5_15NonZeroU16InnerNtNtB9_3fmt5Debug3fmt
libcxx-rust-cssparser.so.1:_RNvXsw_NtNtNtCs9ZIvzb94SJx_4core3fmt3num3impmNtB9_8LowerExp3fmt
libcxx-rust-cssparser.so.1:_RNvXsx_NtCsk6apSIyUfCg_3std2fsNtB5_8FileTypeNtNtCs9ZIvzb94SJx_4core3fmt5Debug3fmt
libcxx-rust-cssparser.so.1:_RNvXsx_NtCsk6apSIyUfCg_3std7processNtB5_5StdioNtNtCs9ZIvzb94SJx_4core3fmt5Debug3fmt
libcxx-rust-cssparser.so.1:_RNvXsx_NtNtCs4z76MhC0nbo_5alloc3ffi5c_strNtB5_7CStringINtNtCs9ZIvzb94SJx_4core7convert4FromRNtNtNtBV_3ffi5c_str4CStrE4from
libcxx-rust-cssparser.so.1:_RNvXsx_NtNtCs9ZIvzb94SJx_4core3fmt3numlNtB7_8UpperHex3fmt
libcxx-rust-cssparser.so.1:_RNvXsx_NtNtNtCs9ZIvzb94SJx_4core3fmt3num3implNtB9_8UpperExp3fmt
libcxx-rust-cssparser.so.1:_RNvXsy_NtNtCs9ZIvzb94SJx_4core3fmt3numyNtB7_6Binary3fmt
libcxx-rust-cssparser.so.1:_RNvXsy_NtNtNtCs9ZIvzb94SJx_4core3fmt3num3impmNtB9_8UpperExp3fmt
libcxx-rust-cssparser.so.1:_RNvXsy_NtNtNtCsk6apSIyUfCg_3std2os2fd5ownedNtNtNtBb_2io4pipe10PipeReaderNtB5_4AsFd5as_fd
libcxx-rust-cssparser.so.1:_RNvXsz_NtNtCs9ZIvzb94SJx_4core3fmt3numxNtB7_6Binary3fmt
libcxx-rust-cssparser.so.1:_RNvXsz_NtNtNtCs9ZIvzb94SJx_4core3fmt3num3impxNtB9_8LowerExp3fmt
libcxx-rust-cssparser.so.1:_RNvYINtCsglvZrah94c3_14rustc_demangle21SizeLimitedFmtAdapterQNtNtCs9ZIvzb94SJx_4core3fmt9FormatterENtBZ_5Write10write_charB5_
libcxx-rust-cssparser.so.1:_RNvYINtCsglvZrah94c3_14rustc_demangle21SizeLimitedFmtAdapterQNtNtCs9ZIvzb94SJx_4core3fmt9FormatterENtBZ_5Write9write_fmtB5_
libcxx-rust-cssparser.so.1:_RNvYINtNtNtCs9ZIvzb94SJx_4core5slice4iter4ItertENtNtNtNtB9_4iter8adapters3zip27TrustedRandomAccessNoCoerce4sizeCsdIMhsiQnxUU_11miniz_oxide
libcxx-rust-cssparser.so.1:_RNvYINtNtNtCs9ZIvzb94SJx_4core5slice4iter7IterMutmENtNtNtNtB9_4iter8adapters3zip27TrustedRandomAccessNoCoerce4sizeCsdIMhsiQnxUU_11miniz_oxide
libcxx-rust-cssparser.so.1:_ZN100_$LT$core..ops..range..RangeInclusive$LT$usize$GT$$u20$as$u20$nom..traits..NomRange$LT$usize$GT$$GT$11is_inverted17h5e5555c0a58acd15E
libcxx-rust-cssparser.so.1:_ZN100_$LT$core..ops..range..RangeInclusive$LT$usize$GT$$u20$as$u20$nom..traits..NomRange$LT$usize$GT$$GT$8contains17h38fb7fcd7e3a2211E
libcxx-rust-cssparser.so.1:_ZN102_$LT$core..ops..range..RangeToInclusive$LT$usize$GT$$u20$as$u20$nom..traits..NomRange$LT$usize$GT$$GT$8contains17h1cf4e665daa8c09aE
libcxx-rust-cssparser.so.1:_ZN102_$LT$cxx_rust_cssparser_impl..details..property..syntax..SyntaxGroup$u20$as$u20$core..fmt..Display$GT$3fmt17h2d057b65ded21151E
libcxx-rust-cssparser.so.1:_ZN105_$LT$cssparser..parser..BasicParseErrorKind$u20$as$u20$cxx_rust_cssparser_impl..details..ToParseError$GT$14to_parse_error17hb767efd590b2ea90E
libcxx-rust-cssparser.so.1:_ZN106_$LT$cxx_rust_cssparser_impl..details..property..syntax..SyntaxComponent$u20$as$u20$core..fmt..Display$GT$3fmt17h61ee57aea0e6857cE
libcxx-rust-cssparser.so.1:_ZN108_$LT$selectors..parser..SelectorParseErrorKind$u20$as$u20$cxx_rust_cssparser_impl..details..ToParseError$GT$14to_parse_error17h8b27a5cf4b4f7726E
libcxx-rust-cssparser.so.1:_ZN109_$LT$cxx_rust_cssparser_impl..details..property..syntax..SyntaxAlternatives$u20$as$u20$core..fmt..Display$GT$3fmt17h912e24862cb0b121E
libcxx-rust-cssparser.so.1:_ZN110_$LT$cxx_rust_cssparser_impl..details..selectorparser..SelectorParser$u20$as$u20$selectors..parser..Parser$GT$20parse_pseudo_element17h7bd7d6e3a15c2c28E
libcxx-rust-cssparser.so.1:_ZN110_$LT$cxx_rust_cssparser_impl..details..selectorparser..SelectorParser$u20$as$u20$selectors..parser..Parser$GT$25parse_non_ts_pseudo_class17h9e4f42b1a51b5fe5E
libcxx-rust-cssparser.so.1:_ZN111_$LT$cxx_rust_cssparser_impl..details..identifier..Identifier$u20$as$u20$core..convert..From$LT$$RF$str$GT$$GT$4from17hbe0cb28a67eb3748E
libcxx-rust-cssparser.so.1:_ZN114_$LT$cxx_rust_cssparser_impl..parseerror..ParseError$u20$as$u20$cxx_rust_cssparser_impl..details..ToParseError$GT$14to_parse_error17hb56c2c76650a1c38E
libcxx-rust-cssparser.so.1:_ZN122_$LT$cxx_rust_cssparser_impl..value..Color$u20$as$u20$core..convert..From$LT$cxx_rust_cssparser_impl..value..Value$GT$$GT$4from17h64ca96b80653021cE
libcxx-rust-cssparser.so.1:_ZN126_$LT$cxx_rust_cssparser_impl..value..Dimension$u20$as$u20$core..convert..From$LT$cxx_rust_cssparser_impl..value..Value$GT$$GT$4from17h2e36155a9639e74aE
libcxx-rust-cssparser.so.1:_ZN126_$LT$nom..error..Error$LT$alloc..string..String$GT$$u20$as$u20$core..convert..From$LT$nom..error..Error$LT$$RF$str$GT$$GT$$GT$4from17hf194791e56979c2aE
libcxx-rust-cssparser.so.1:_ZN129_$LT$$RF$cxx_rust_cssparser_impl..details..identifier..Identifier$u20$as$u20$core..convert..Into$LT$alloc..string..String$GT$$GT$4into17h977b2038e0a0dc57E
libcxx-rust-cssparser.so.1:_ZN139_$LT$nom..error..Error$LT$alloc..vec..Vec$LT$u8$GT$$GT$$u20$as$u20$core..convert..From$LT$nom..error..Error$LT$$RF$$u5b$u8$u5d$$GT$$GT$$GT$4from17h32f2a0df612c1924E
libcxx-rust-cssparser.so.1:_ZN145_$LT$cxx_rust_cssparser_impl..value..Value$u20$as$u20$core..convert..From$LT$$RF$cxx_rust_cssparser_impl..details..identifier..Identifier$GT$$GT$4from17h2b6c93fa672f6dacE
libcxx-rust-cssparser.so.1:_ZN159_$LT$cxx_rust_cssparser_impl..details..property..definitionparser..PropertyDefinitionParser$u20$as$u20$cssparser..rules_and_declarations..DeclarationParser$GT$11parse_value17h46022cc22b7a2719E
libcxx-rust-cssparser.so.1:_ZN15cssparser_color5Color5parse17h83a20fe8818d72daE
libcxx-rust-cssparser.so.1:_ZN23cxx_rust_cssparser_impl10parseerror14SourceLocation9from_file17h3295b645dfb2f612E
libcxx-rust-cssparser.so.1:_ZN23cxx_rust_cssparser_impl10stylesheet10StyleSheet10all_errors17h7d471eb045bd0195E
libcxx-rust-cssparser.so.1:_ZN23cxx_rust_cssparser_impl10stylesheet10StyleSheet12parse_string17h2beaa93c5f59c491E
libcxx-rust-cssparser.so.1:_ZN23cxx_rust_cssparser_impl10stylesheet10StyleSheet5parse17h241475b934e2287bE
libcxx-rust-cssparser.so.1:_ZN23cxx_rust_cssparser_impl10stylesheet10StyleSheet6import17h35c36137bed28cf9E
libcxx-rust-cssparser.so.1:_ZN23cxx_rust_cssparser_impl10stylesheet10StyleSheet9all_paths17h6a0ce116aad8a7dcE
libcxx-rust-cssparser.so.1:_ZN23cxx_rust_cssparser_impl10stylesheet10StyleSheet9all_rules17hbfa65d2859b604a9E
libcxx-rust-cssparser.so.1:_ZN23cxx_rust_cssparser_impl3ffi104_$LT$impl$u20$core..fmt..Display$u20$for$u20$cxx_rust_cssparser_impl..ffi..ffi..ValueConversionError$GT$3fmt17h9cc9f2060802c525E
libcxx-rust-cssparser.so.1:_ZN23cxx_rust_cssparser_impl3ffi143_$LT$impl$u20$core..convert..From$LT$cxx_rust_cssparser_impl..value..ColorData$GT$$u20$for$u20$cxx_rust_cssparser_impl..ffi..ffi..ColorType$GT$4from17h7fe6f143bd91bdb2E
libcxx-rust-cssparser.so.1:_ZN23cxx_rust_cssparser_impl3ffi143_$LT$impl$u20$core..convert..From$LT$cxx_rust_cssparser_impl..value..ValueData$GT$$u20$for$u20$cxx_rust_cssparser_impl..ffi..ffi..ValueType$GT$4from17h9e09b9d5bf86b177E
libcxx-rust-cssparser.so.1:_ZN23cxx_rust_cssparser_impl3ffi157_$LT$impl$u20$core..convert..From$LT$cxx_rust_cssparser_impl..value..ColorOperation$GT$$u20$for$u20$cxx_rust_cssparser_impl..ffi..ffi..ColorOperationType$GT$4from17h255978139f8dce92E
libcxx-rust-cssparser.so.1:_ZN23cxx_rust_cssparser_impl5value14ColorOperation14display_string17h6de6a12122434a88E
libcxx-rust-cssparser.so.1:_ZN23cxx_rust_cssparser_impl5value14ColorOperation3add17h4390b78d6eb8c493E
libcxx-rust-cssparser.so.1:_ZN23cxx_rust_cssparser_impl5value14ColorOperation3mix17hae0ae1d8a8044e2dE
libcxx-rust-cssparser.so.1:_ZN23cxx_rust_cssparser_impl5value14ColorOperation8multiply17h2045c4419aa146e8E
libcxx-rust-cssparser.so.1:_ZN23cxx_rust_cssparser_impl5value14ColorOperation8subtract17hfae310a8543e3b14E
libcxx-rust-cssparser.so.1:_ZN23cxx_rust_cssparser_impl5value4Unit5parse17h1a28252795ad196cE
libcxx-rust-cssparser.so.1:_ZN23cxx_rust_cssparser_impl5value5Color8modified17hd44f067428b2c761E
libcxx-rust-cssparser.so.1:_ZN23cxx_rust_cssparser_impl5value5Value7new_url17h543e11f4eb4498beE
libcxx-rust-cssparser.so.1:_ZN23cxx_rust_cssparser_impl5value5Value9to_string17hb4aec67e56890660E
libcxx-rust-cssparser.so.1:_ZN23cxx_rust_cssparser_impl7details14selectorparser14SelectorParser5parse17h77ebb1fe12c763ffE
libcxx-rust-cssparser.so.1:_ZN23cxx_rust_cssparser_impl7details8property16definitionparser25parse_property_definition17hd8ab8c0d6a578cacE
libcxx-rust-cssparser.so.1:_ZN23cxx_rust_cssparser_impl7details8property5value12parse_values17h1bc40f68ef90b5baE
libcxx-rust-cssparser.so.1:_ZN23cxx_rust_cssparser_impl8property18PropertyDefinition16from_name_syntax17h02b7eed4e8b2d3c8E
libcxx-rust-cssparser.so.1:_ZN23cxx_rust_cssparser_impl8property18PropertyDefinition24from_name_syntax_initial17h231e2c6b5157e1daE
libcxx-rust-cssparser.so.1:_ZN23cxx_rust_cssparser_impl8property19property_definition17h80c213448525d67cE
libcxx-rust-cssparser.so.1:_ZN23cxx_rust_cssparser_impl8property23add_property_definition17h66bf5a12a8ba2b8fE
libcxx-rust-cssparser.so.1:_ZN23cxx_rust_cssparser_impl8selector8Selector10from_parts17heea17e7faf35c921E
libcxx-rust-cssparser.so.1:_ZN23cxx_rust_cssparser_impl8selector8Selector15push_with_empty17hbe6d1bc6a6d247b4E
libcxx-rust-cssparser.so.1:_ZN23cxx_rust_cssparser_impl8selector8Selector15push_with_value17hff4c2e97aed56213E
libcxx-rust-cssparser.so.1:_ZN23cxx_rust_cssparser_impl8selector8Selector7combine17hb99cd57f25b87e6aE
libcxx-rust-cssparser.so.1:_ZN23cxx_rust_cssparser_impl9stylerule9StyleRule16from_parsed_rule17h05a649715f859dffE
libcxx-rust-cssparser.so.1:_ZN3cxx6result10to_c_error17h2d2d03008cbd6406E
libcxx-rust-cssparser.so.1:_ZN3cxx6string101_$LT$impl$u20$std..io..Write$u20$for$u20$core..pin..Pin$LT$$RF$mut$u20$cxx..string..CxxString$GT$$GT$5write17h75b21a43285ed404E
libcxx-rust-cssparser.so.1:_ZN3cxx6string103_$LT$impl$u20$core..fmt..Write$u20$for$u20$core..pin..Pin$LT$$RF$mut$u20$cxx..string..CxxString$GT$$GT$9write_str17hf2dead1e18192d1dE
libcxx-rust-cssparser.so.1:_ZN3cxx6string84_$LT$impl$u20$core..cmp..PartialEq$LT$cxx..string..CxxString$GT$$u20$for$u20$str$GT$2eq17ha94a0b622515134cE
libcxx-rust-cssparser.so.1:_ZN3cxx6string9CxxString10push_bytes17h453155f6af85294dE
libcxx-rust-cssparser.so.1:_ZN3cxx6string9CxxString15to_string_lossy17ha104a6b1eb78eeaaE
libcxx-rust-cssparser.so.1:_ZN3cxx6string9CxxString3len17h75d7da717e106916E
libcxx-rust-cssparser.so.1:_ZN3cxx6string9CxxString5clear17h9b97b797f2bc7cffE
libcxx-rust-cssparser.so.1:_ZN3cxx6string9CxxString6as_ptr17h981637fd8b6451b1E
libcxx-rust-cssparser.so.1:_ZN3cxx6string9CxxString6to_str17h129f859e502e9d29E
libcxx-rust-cssparser.so.1:_ZN3cxx6string9CxxString7reserve17hda8f9cbe5e08a120E
libcxx-rust-cssparser.so.1:_ZN3cxx6string9CxxString8as_bytes17hb9021fd4b70d9d8dE
libcxx-rust-cssparser.so.1:_ZN3cxx6string9CxxString8as_c_str17h35a15bf3454f6a1bE
libcxx-rust-cssparser.so.1:_ZN3cxx6string9CxxString8is_empty17h98d75076287a3d7cE
libcxx-rust-cssparser.so.1:_ZN3cxx6string9CxxString8push_str17h007644cb2eb62c31E
libcxx-rust-cssparser.so.1:_ZN3nom5error12error_to_u3217ha201defd8cb1a219E
libcxx-rust-cssparser.so.1:_ZN3nom5error9ErrorKind11description17hd035661534209aacE
libcxx-rust-cssparser.so.1:_ZN3nom8internal43Err$LT$nom..error..Error$LT$$RF$str$GT$$GT$8to_owned17h598541eb3af88afcE
libcxx-rust-cssparser.so.1:_ZN3nom8internal50Err$LT$$LP$$RF$str$C$nom..error..ErrorKind$RP$$GT$8to_owned17h33f609b6c12f237dE
libcxx-rust-cssparser.so.1:_ZN3nom8internal52Err$LT$nom..error..Error$LT$$RF$$u5b$u8$u5d$$GT$$GT$8to_owned17h0c9c86e98172dc18E
libcxx-rust-cssparser.so.1:_ZN3nom8internal59Err$LT$$LP$$RF$$u5b$u8$u5d$$C$nom..error..ErrorKind$RP$$GT$8to_owned17h8d5ae15381739056E
libcxx-rust-cssparser.so.1:_ZN47_$LT$str$u20$as$u20$nom..traits..HexDisplay$GT$11to_hex_from17hfb7b5e6709ca33c8E
libcxx-rust-cssparser.so.1:_ZN47_$LT$str$u20$as$u20$nom..traits..HexDisplay$GT$6to_hex17h229804c75fc2948eE
libcxx-rust-cssparser.so.1:_ZN4rust10cxxbridge13Str4swapERS1_
libcxx-rust-cssparser.so.1:_ZN4rust10cxxbridge13StrC1EPKc
libcxx-rust-cssparser.so.1:_ZN4rust10cxxbridge13StrC1EPKcm
libcxx-rust-cssparser.so.1:_ZN4rust10cxxbridge13StrC1ERKNS0_6StringE
libcxx-rust-cssparser.so.1:_ZN4rust10cxxbridge13StrC1ERKNSt7__cxx1112basic_stringIcSt11char_traitsIcESaIcEEE
libcxx-rust-cssparser.so.1:_ZN4rust10cxxbridge13StrC1Ev
libcxx-rust-cssparser.so.1:_ZN4rust10cxxbridge13StrC2EPKc
libcxx-rust-cssparser.so.1:_ZN4rust10cxxbridge13StrC2EPKcm
libcxx-rust-cssparser.so.1:_ZN4rust10cxxbridge13StrC2ERKNS0_6StringE
libcxx-rust-cssparser.so.1:_ZN4rust10cxxbridge13StrC2ERKNSt7__cxx1112basic_stringIcSt11char_traitsIcESaIcEEE
libcxx-rust-cssparser.so.1:_ZN4rust10cxxbridge13StrC2Ev
libcxx-rust-cssparser.so.1:_ZN4rust10cxxbridge13VecINS0_3StrEE13reserve_totalEm
libcxx-rust-cssparser.so.1:_ZN4rust10cxxbridge13VecINS0_3StrEE4dropEv
libcxx-rust-cssparser.so.1:_ZN4rust10cxxbridge13VecINS0_3StrEE7set_lenEm
libcxx-rust-cssparser.so.1:_ZN4rust10cxxbridge13VecINS0_3StrEE8truncateEm
libcxx-rust-cssparser.so.1:_ZN4rust10cxxbridge13VecINS0_3StrEEC1Ev
libcxx-rust-cssparser.so.1:_ZN4rust10cxxbridge13VecINS0_3StrEEC2Ev
libcxx-rust-cssparser.so.1:_ZN4rust10cxxbridge13VecINS0_6StringEE13reserve_totalEm
libcxx-rust-cssparser.so.1:_ZN4rust10cxxbridge13VecINS0_6StringEE4dropEv
libcxx-rust-cssparser.so.1:_ZN4rust10cxxbridge13VecINS0_6StringEE7set_lenEm
libcxx-rust-cssparser.so.1:_ZN4rust10cxxbridge13VecINS0_6StringEE8truncateEm
libcxx-rust-cssparser.so.1:_ZN4rust10cxxbridge13VecINS0_6StringEEC1Ev
libcxx-rust-cssparser.so.1:_ZN4rust10cxxbridge13VecINS0_6StringEEC2Ev
libcxx-rust-cssparser.so.1:_ZN4rust10cxxbridge13VecINS0_6detail12isize_ignoreEE13reserve_totalEm
libcxx-rust-cssparser.so.1:_ZN4rust10cxxbridge13VecINS0_6detail12isize_ignoreEE4dropEv
libcxx-rust-cssparser.so.1:_ZN4rust10cxxbridge13VecINS0_6detail12isize_ignoreEE7set_lenEm
libcxx-rust-cssparser.so.1:_ZN4rust10cxxbridge13VecINS0_6detail12isize_ignoreEE8truncateEm
libcxx-rust-cssparser.so.1:_ZN4rust10cxxbridge13VecINS0_6detail12isize_ignoreEEC1Ev
libcxx-rust-cssparser.so.1:_ZN4rust10cxxbridge13VecINS0_6detail12isize_ignoreEEC2Ev
libcxx-rust-cssparser.so.1:_ZN4rust10cxxbridge13VecINS0_6detail12usize_ignoreEE13reserve_totalEm
libcxx-rust-cssparser.so.1:_ZN4rust10cxxbridge13VecINS0_6detail12usize_ignoreEE4dropEv
libcxx-rust-cssparser.so.1:_ZN4rust10cxxbridge13VecINS0_6detail12usize_ignoreEE7set_lenEm
libcxx-rust-cssparser.so.1:_ZN4rust10cxxbridge13VecINS0_6detail12usize_ignoreEE8truncateEm
libcxx-rust-cssparser.so.1:_ZN4rust10cxxbridge13VecINS0_6detail12usize_ignoreEEC1Ev
libcxx-rust-cssparser.so.1:_ZN4rust10cxxbridge13VecINS0_6detail12usize_ignoreEEC2Ev
libcxx-rust-cssparser.so.1:_ZN4rust10cxxbridge13VecIaE13reserve_totalEm
libcxx-rust-cssparser.so.1:_ZN4rust10cxxbridge13VecIaE4dropEv
libcxx-rust-cssparser.so.1:_ZN4rust10cxxbridge13VecIaE7set_lenEm
libcxx-rust-cssparser.so.1:_ZN4rust10cxxbridge13VecIaE8truncateEm
libcxx-rust-cssparser.so.1:_ZN4rust10cxxbridge13VecIaEC1Ev
libcxx-rust-cssparser.so.1:_ZN4rust10cxxbridge13VecIaEC2Ev
libcxx-rust-cssparser.so.1:_ZN4rust10cxxbridge13VecIbE13reserve_totalEm
libcxx-rust-cssparser.so.1:_ZN4rust10cxxbridge13VecIbE4dropEv
libcxx-rust-cssparser.so.1:_ZN4rust10cxxbridge13VecIbE7set_lenEm
libcxx-rust-cssparser.so.1:_ZN4rust10cxxbridge13VecIbE8truncateEm
libcxx-rust-cssparser.so.1:_ZN4rust10cxxbridge13VecIbEC1Ev
libcxx-rust-cssparser.so.1:_ZN4rust10cxxbridge13VecIbEC2Ev
libcxx-rust-cssparser.so.1:_ZN4rust10cxxbridge13VecIcE13reserve_totalEm
libcxx-rust-cssparser.so.1:_ZN4rust10cxxbridge13VecIcE4dropEv
libcxx-rust-cssparser.so.1:_ZN4rust10cxxbridge13VecIcE7set_lenEm
libcxx-rust-cssparser.so.1:_ZN4rust10cxxbridge13VecIcE8truncateEm
libcxx-rust-cssparser.so.1:_ZN4rust10cxxbridge13VecIcEC1Ev
libcxx-rust-cssparser.so.1:_ZN4rust10cxxbridge13VecIcEC2Ev
libcxx-rust-cssparser.so.1:_ZN4rust10cxxbridge13VecIdE13reserve_totalEm
libcxx-rust-cssparser.so.1:_ZN4rust10cxxbridge13VecIdE4dropEv
libcxx-rust-cssparser.so.1:_ZN4rust10cxxbridge13VecIdE7set_lenEm
libcxx-rust-cssparser.so.1:_ZN4rust10cxxbridge13VecIdE8truncateEm
libcxx-rust-cssparser.so.1:_ZN4rust10cxxbridge13VecIdEC1Ev
libcxx-rust-cssparser.so.1:_ZN4rust10cxxbridge13VecIdEC2Ev
libcxx-rust-cssparser.so.1:_ZN4rust10cxxbridge13VecIfE13reserve_totalEm
libcxx-rust-cssparser.so.1:_ZN4rust10cxxbridge13VecIfE4dropEv
libcxx-rust-cssparser.so.1:_ZN4rust10cxxbridge13VecIfE7set_lenEm
libcxx-rust-cssparser.so.1:_ZN4rust10cxxbridge13VecIfE8truncateEm
libcxx-rust-cssparser.so.1:_ZN4rust10cxxbridge13VecIfEC1Ev
libcxx-rust-cssparser.so.1:_ZN4rust10cxxbridge13VecIfEC2Ev
libcxx-rust-cssparser.so.1:_ZN4rust10cxxbridge13VecIhE13reserve_totalEm
libcxx-rust-cssparser.so.1:_ZN4rust10cxxbridge13VecIhE4dropEv
libcxx-rust-cssparser.so.1:_ZN4rust10cxxbridge13VecIhE7set_lenEm
libcxx-rust-cssparser.so.1:_ZN4rust10cxxbridge13VecIhE8truncateEm
libcxx-rust-cssparser.so.1:_ZN4rust10cxxbridge13VecIhEC1Ev
libcxx-rust-cssparser.so.1:_ZN4rust10cxxbridge13VecIhEC2Ev
libcxx-rust-cssparser.so.1:_ZN4rust10cxxbridge13VecIiE13reserve_totalEm
libcxx-rust-cssparser.so.1:_ZN4rust10cxxbridge13VecIiE4dropEv
libcxx-rust-cssparser.so.1:_ZN4rust10cxxbridge13VecIiE7set_lenEm
libcxx-rust-cssparser.so.1:_ZN4rust10cxxbridge13VecIiE8truncateEm
libcxx-rust-cssparser.so.1:_ZN4rust10cxxbridge13VecIiEC1Ev
libcxx-rust-cssparser.so.1:_ZN4rust10cxxbridge13VecIiEC2Ev
libcxx-rust-cssparser.so.1:_ZN4rust10cxxbridge13VecIjE13reserve_totalEm
libcxx-rust-cssparser.so.1:_ZN4rust10cxxbridge13VecIjE4dropEv
libcxx-rust-cssparser.so.1:_ZN4rust10cxxbridge13VecIjE7set_lenEm
libcxx-rust-cssparser.so.1:_ZN4rust10cxxbridge13VecIjE8truncateEm
libcxx-rust-cssparser.so.1:_ZN4rust10cxxbridge13VecIjEC1Ev
libcxx-rust-cssparser.so.1:_ZN4rust10cxxbridge13VecIjEC2Ev
libcxx-rust-cssparser.so.1:_ZN4rust10cxxbridge13VecIlE13reserve_totalEm
libcxx-rust-cssparser.so.1:_ZN4rust10cxxbridge13VecIlE4dropEv
libcxx-rust-cssparser.so.1:_ZN4rust10cxxbridge13VecIlE7set_lenEm
libcxx-rust-cssparser.so.1:_ZN4rust10cxxbridge13VecIlE8truncateEm
libcxx-rust-cssparser.so.1:_ZN4rust10cxxbridge13VecIlEC1Ev
libcxx-rust-cssparser.so.1:_ZN4rust10cxxbridge13VecIlEC2Ev
libcxx-rust-cssparser.so.1:_ZN4rust10cxxbridge13VecImE13reserve_totalEm
libcxx-rust-cssparser.so.1:_ZN4rust10cxxbridge13VecImE4dropEv
libcxx-rust-cssparser.so.1:_ZN4rust10cxxbridge13VecImE7set_lenEm
libcxx-rust-cssparser.so.1:_ZN4rust10cxxbridge13VecImE8truncateEm
libcxx-rust-cssparser.so.1:_ZN4rust10cxxbridge13VecImEC1Ev
libcxx-rust-cssparser.so.1:_ZN4rust10cxxbridge13VecImEC2Ev
libcxx-rust-cssparser.so.1:_ZN4rust10cxxbridge13VecIsE13reserve_totalEm
libcxx-rust-cssparser.so.1:_ZN4rust10cxxbridge13VecIsE4dropEv
libcxx-rust-cssparser.so.1:_ZN4rust10cxxbridge13VecIsE7set_lenEm
libcxx-rust-cssparser.so.1:_ZN4rust10cxxbridge13VecIsE8truncateEm
libcxx-rust-cssparser.so.1:_ZN4rust10cxxbridge13VecIsEC1Ev
libcxx-rust-cssparser.so.1:_ZN4rust10cxxbridge13VecIsEC2Ev
libcxx-rust-cssparser.so.1:_ZN4rust10cxxbridge13VecItE13reserve_totalEm
libcxx-rust-cssparser.so.1:_ZN4rust10cxxbridge13VecItE4dropEv
libcxx-rust-cssparser.so.1:_ZN4rust10cxxbridge13VecItE7set_lenEm
libcxx-rust-cssparser.so.1:_ZN4rust10cxxbridge13VecItE8truncateEm
libcxx-rust-cssparser.so.1:_ZN4rust10cxxbridge13VecItEC1Ev
libcxx-rust-cssparser.so.1:_ZN4rust10cxxbridge13VecItEC2Ev
libcxx-rust-cssparser.so.1:_ZN4rust10cxxbridge15ErrorC1EOS1_
libcxx-rust-cssparser.so.1:_ZN4rust10cxxbridge15ErrorC1ERKS1_
libcxx-rust-cssparser.so.1:_ZN4rust10cxxbridge15ErrorC2EOS1_
libcxx-rust-cssparser.so.1:_ZN4rust10cxxbridge15ErrorC2ERKS1_
libcxx-rust-cssparser.so.1:_ZN4rust10cxxbridge15ErrorD0Ev
libcxx-rust-cssparser.so.1:_ZN4rust10cxxbridge15ErrorD1Ev
libcxx-rust-cssparser.so.1:_ZN4rust10cxxbridge15ErrorD2Ev
libcxx-rust-cssparser.so.1:_ZN4rust10cxxbridge16String3endEv
libcxx-rust-cssparser.so.1:_ZN4rust10cxxbridge16String4swapERS1_
libcxx-rust-cssparser.so.1:_ZN4rust10cxxbridge16String5beginEv
libcxx-rust-cssparser.so.1:_ZN4rust10cxxbridge16String5c_strEv
libcxx-rust-cssparser.so.1:_ZN4rust10cxxbridge16String5lossyEPKDs
libcxx-rust-cssparser.so.1:_ZN4rust10cxxbridge16String5lossyEPKDsm
libcxx-rust-cssparser.so.1:_ZN4rust10cxxbridge16String5lossyEPKc
libcxx-rust-cssparser.so.1:_ZN4rust10cxxbridge16String5lossyEPKcm
libcxx-rust-cssparser.so.1:_ZN4rust10cxxbridge16String5lossyERKNSt7__cxx1112basic_stringIcSt11char_traitsIcESaIcEEE
libcxx-rust-cssparser.so.1:_ZN4rust10cxxbridge16String7reserveEm
libcxx-rust-cssparser.so.1:_ZN4rust10cxxbridge16StringC1ENS0_16unsafe_bitcopy_tERKS1_
libcxx-rust-cssparser.so.1:_ZN4rust10cxxbridge16StringC1ENS1_7lossy_tEPKDsm
libcxx-rust-cssparser.so.1:_ZN4rust10cxxbridge16StringC1ENS1_7lossy_tEPKcm
libcxx-rust-cssparser.so.1:_ZN4rust10cxxbridge16StringC1EOS1_
libcxx-rust-cssparser.so.1:_ZN4rust10cxxbridge16StringC1EPKDs
libcxx-rust-cssparser.so.1:_ZN4rust10cxxbridge16StringC1EPKDsm
libcxx-rust-cssparser.so.1:_ZN4rust10cxxbridge16StringC1EPKc
libcxx-rust-cssparser.so.1:_ZN4rust10cxxbridge16StringC1EPKcm
libcxx-rust-cssparser.so.1:_ZN4rust10cxxbridge16StringC1ERKNSt7__cxx1112basic_stringIcSt11char_traitsIcESaIcEEE
libcxx-rust-cssparser.so.1:_ZN4rust10cxxbridge16StringC1ERKS1_
libcxx-rust-cssparser.so.1:_ZN4rust10cxxbridge16StringC1Ev
libcxx-rust-cssparser.so.1:_ZN4rust10cxxbridge16StringC2ENS0_16unsafe_bitcopy_tERKS1_
libcxx-rust-cssparser.so.1:_ZN4rust10cxxbridge16StringC2ENS1_7lossy_tEPKDsm
libcxx-rust-cssparser.so.1:_ZN4rust10cxxbridge16StringC2ENS1_7lossy_tEPKcm
libcxx-rust-cssparser.so.1:_ZN4rust10cxxbridge16StringC2EOS1_
libcxx-rust-cssparser.so.1:_ZN4rust10cxxbridge16StringC2EPKDs
libcxx-rust-cssparser.so.1:_ZN4rust10cxxbridge16StringC2EPKDsm
libcxx-rust-cssparser.so.1:_ZN4rust10cxxbridge16StringC2EPKc
libcxx-rust-cssparser.so.1:_ZN4rust10cxxbridge16StringC2EPKcm
libcxx-rust-cssparser.so.1:_ZN4rust10cxxbridge16StringC2ERKNSt7__cxx1112basic_stringIcSt11char_traitsIcESaIcEEE
libcxx-rust-cssparser.so.1:_ZN4rust10cxxbridge16StringC2ERKS1_
libcxx-rust-cssparser.so.1:_ZN4rust10cxxbridge16StringC2Ev
libcxx-rust-cssparser.so.1:_ZN4rust10cxxbridge16StringD1Ev
libcxx-rust-cssparser.so.1:_ZN4rust10cxxbridge16StringD2Ev
libcxx-rust-cssparser.so.1:_ZN4rust10cxxbridge16detail4FailclEPKc
libcxx-rust-cssparser.so.1:_ZN4rust10cxxbridge16detail4FailclERKNSt7__cxx1112basic_stringIcSt11char_traitsIcESaIcEEE
libcxx-rust-cssparser.so.1:_ZN4rust10cxxbridge18sliceLenEPKv
libcxx-rust-cssparser.so.1:_ZN4rust10cxxbridge18slicePtrEPKv
libcxx-rust-cssparser.so.1:_ZN4rust10cxxbridge19sliceInitEPvPKvm
libcxx-rust-cssparser.so.1:_ZN4rust10cxxbridge1lsERSoRKNS0_3StrE
libcxx-rust-cssparser.so.1:_ZN4rust10cxxbridge1lsERSoRKNS0_6StringE
libcxx-rust-cssparser.so.1:_ZN51_$LT$i8$u20$as$u20$cxx..weak_ptr..WeakPtrTarget$GT$10__typename17h90e48b9d5752ce6fE
libcxx-rust-cssparser.so.1:_ZN51_$LT$i8$u20$as$u20$cxx..weak_ptr..WeakPtrTarget$GT$11__downgrade17hec6389295f171e66E
libcxx-rust-cssparser.so.1:_ZN51_$LT$i8$u20$as$u20$cxx..weak_ptr..WeakPtrTarget$GT$6__drop17h9dd111e1a7976bd1E
libcxx-rust-cssparser.so.1:_ZN51_$LT$i8$u20$as$u20$cxx..weak_ptr..WeakPtrTarget$GT$6__null17h0bfb9c7c50ebf6b9E
libcxx-rust-cssparser.so.1:_ZN51_$LT$i8$u20$as$u20$cxx..weak_ptr..WeakPtrTarget$GT$7__clone17hee8cfa5309442d44E
libcxx-rust-cssparser.so.1:_ZN51_$LT$i8$u20$as$u20$cxx..weak_ptr..WeakPtrTarget$GT$9__upgrade17h5b9284c0ac02b1c0E
libcxx-rust-cssparser.so.1:_ZN51_$LT$u8$u20$as$u20$cxx..weak_ptr..WeakPtrTarget$GT$10__typename17hc8b1a7b8126241f4E
libcxx-rust-cssparser.so.1:_ZN51_$LT$u8$u20$as$u20$cxx..weak_ptr..WeakPtrTarget$GT$11__downgrade17h08de4daba11d1783E
libcxx-rust-cssparser.so.1:_ZN51_$LT$u8$u20$as$u20$cxx..weak_ptr..WeakPtrTarget$GT$6__drop17h261941589d130323E
libcxx-rust-cssparser.so.1:_ZN51_$LT$u8$u20$as$u20$cxx..weak_ptr..WeakPtrTarget$GT$6__null17he3927bcb8b346583E
libcxx-rust-cssparser.so.1:_ZN51_$LT$u8$u20$as$u20$cxx..weak_ptr..WeakPtrTarget$GT$7__clone17hf14dce32b631ba51E
libcxx-rust-cssparser.so.1:_ZN51_$LT$u8$u20$as$u20$cxx..weak_ptr..WeakPtrTarget$GT$9__upgrade17hb885730147e06da8E
libcxx-rust-cssparser.so.1:_ZN52_$LT$f32$u20$as$u20$cxx..weak_ptr..WeakPtrTarget$GT$10__typename17h3417c5055cac32c9E
libcxx-rust-cssparser.so.1:_ZN52_$LT$f32$u20$as$u20$cxx..weak_ptr..WeakPtrTarget$GT$11__downgrade17hd5624941e1717d38E
libcxx-rust-cssparser.so.1:_ZN52_$LT$f32$u20$as$u20$cxx..weak_ptr..WeakPtrTarget$GT$6__drop17h2d96eee61301b921E
libcxx-rust-cssparser.so.1:_ZN52_$LT$f32$u20$as$u20$cxx..weak_ptr..WeakPtrTarget$GT$6__null17hc5481567f0fd8808E
libcxx-rust-cssparser.so.1:_ZN52_$LT$f32$u20$as$u20$cxx..weak_ptr..WeakPtrTarget$GT$7__clone17hc57a3ac213585833E
libcxx-rust-cssparser.so.1:_ZN52_$LT$f32$u20$as$u20$cxx..weak_ptr..WeakPtrTarget$GT$9__upgrade17h31ecb763937dd03dE
libcxx-rust-cssparser.so.1:_ZN52_$LT$f64$u20$as$u20$cxx..weak_ptr..WeakPtrTarget$GT$10__typename17he847e8373bd5da5fE
libcxx-rust-cssparser.so.1:_ZN52_$LT$f64$u20$as$u20$cxx..weak_ptr..WeakPtrTarget$GT$11__downgrade17h7db2445c7646a6b8E
libcxx-rust-cssparser.so.1:_ZN52_$LT$f64$u20$as$u20$cxx..weak_ptr..WeakPtrTarget$GT$6__drop17haf5428ca8b1549d2E
libcxx-rust-cssparser.so.1:_ZN52_$LT$f64$u20$as$u20$cxx..weak_ptr..WeakPtrTarget$GT$6__null17h2217355a958c54c6E
libcxx-rust-cssparser.so.1:_ZN52_$LT$f64$u20$as$u20$cxx..weak_ptr..WeakPtrTarget$GT$7__clone17h095ef2c05204aeb0E
libcxx-rust-cssparser.so.1:_ZN52_$LT$f64$u20$as$u20$cxx..weak_ptr..WeakPtrTarget$GT$9__upgrade17h4c17df91726d25d3E
libcxx-rust-cssparser.so.1:_ZN52_$LT$i16$u20$as$u20$cxx..weak_ptr..WeakPtrTarget$GT$10__typename17h7dc7977f083143d8E
libcxx-rust-cssparser.so.1:_ZN52_$LT$i16$u20$as$u20$cxx..weak_ptr..WeakPtrTarget$GT$11__downgrade17h8ab4c8b77da1355cE
libcxx-rust-cssparser.so.1:_ZN52_$LT$i16$u20$as$u20$cxx..weak_ptr..WeakPtrTarget$GT$6__drop17had54fcb1e6ed92e9E
libcxx-rust-cssparser.so.1:_ZN52_$LT$i16$u20$as$u20$cxx..weak_ptr..WeakPtrTarget$GT$6__null17h1c32435c90105e7dE
libcxx-rust-cssparser.so.1:_ZN52_$LT$i16$u20$as$u20$cxx..weak_ptr..WeakPtrTarget$GT$7__clone17hb7be0c36e9fda8e2E
libcxx-rust-cssparser.so.1:_ZN52_$LT$i16$u20$as$u20$cxx..weak_ptr..WeakPtrTarget$GT$9__upgrade17h3f07e80b18656d6bE
libcxx-rust-cssparser.so.1:_ZN52_$LT$i32$u20$as$u20$cxx..weak_ptr..WeakPtrTarget$GT$10__typename17h219345e03379f636E
libcxx-rust-cssparser.so.1:_ZN52_$LT$i32$u20$as$u20$cxx..weak_ptr..WeakPtrTarget$GT$11__downgrade17h36760f7109292ccbE
libcxx-rust-cssparser.so.1:_ZN52_$LT$i32$u20$as$u20$cxx..weak_ptr..WeakPtrTarget$GT$6__drop17h36b66cce6f0487fdE
libcxx-rust-cssparser.so.1:_ZN52_$LT$i32$u20$as$u20$cxx..weak_ptr..WeakPtrTarget$GT$6__null17h09a4524981cea9ccE
libcxx-rust-cssparser.so.1:_ZN52_$LT$i32$u20$as$u20$cxx..weak_ptr..WeakPtrTarget$GT$7__clone17h8f7166cecbf602b0E
libcxx-rust-cssparser.so.1:_ZN52_$LT$i32$u20$as$u20$cxx..weak_ptr..WeakPtrTarget$GT$9__upgrade17he157aeaa9a286224E
libcxx-rust-cssparser.so.1:_ZN52_$LT$i64$u20$as$u20$cxx..weak_ptr..WeakPtrTarget$GT$10__typename17hc74791260e7d3a4eE
libcxx-rust-cssparser.so.1:_ZN52_$LT$i64$u20$as$u20$cxx..weak_ptr..WeakPtrTarget$GT$11__downgrade17ha7525510ce0287e2E
libcxx-rust-cssparser.so.1:_ZN52_$LT$i64$u20$as$u20$cxx..weak_ptr..WeakPtrTarget$GT$6__drop17h95384c7f7206af59E
libcxx-rust-cssparser.so.1:_ZN52_$LT$i64$u20$as$u20$cxx..weak_ptr..WeakPtrTarget$GT$6__null17h43d31e8506ceced4E
libcxx-rust-cssparser.so.1:_ZN52_$LT$i64$u20$as$u20$cxx..weak_ptr..WeakPtrTarget$GT$7__clone17hd54a283ca410a2c3E
libcxx-rust-cssparser.so.1:_ZN52_$LT$i64$u20$as$u20$cxx..weak_ptr..WeakPtrTarget$GT$9__upgrade17hfa7a20fe1a264a02E
libcxx-rust-cssparser.so.1:_ZN52_$LT$u16$u20$as$u20$cxx..weak_ptr..WeakPtrTarget$GT$10__typename17hcae4535be5c9f9fcE
libcxx-rust-cssparser.so.1:_ZN52_$LT$u16$u20$as$u20$cxx..weak_ptr..WeakPtrTarget$GT$11__downgrade17h3523c46dad4a4fa7E
libcxx-rust-cssparser.so.1:_ZN52_$LT$u16$u20$as$u20$cxx..weak_ptr..WeakPtrTarget$GT$6__drop17h5efa1f2c78d09118E
libcxx-rust-cssparser.so.1:_ZN52_$LT$u16$u20$as$u20$cxx..weak_ptr..WeakPtrTarget$GT$6__null17h235d86aee661e0f7E
libcxx-rust-cssparser.so.1:_ZN52_$LT$u16$u20$as$u20$cxx..weak_ptr..WeakPtrTarget$GT$7__clone17haa86e5405d885b3dE
libcxx-rust-cssparser.so.1:_ZN52_$LT$u16$u20$as$u20$cxx..weak_ptr..WeakPtrTarget$GT$9__upgrade17h700aa3e175da2494E
libcxx-rust-cssparser.so.1:_ZN52_$LT$u32$u20$as$u20$cxx..weak_ptr..WeakPtrTarget$GT$10__typename17h36b3fe1d41ce1010E
libcxx-rust-cssparser.so.1:_ZN52_$LT$u32$u20$as$u20$cxx..weak_ptr..WeakPtrTarget$GT$11__downgrade17h532cd7b961afad91E
libcxx-rust-cssparser.so.1:_ZN52_$LT$u32$u20$as$u20$cxx..weak_ptr..WeakPtrTarget$GT$6__drop17hef0a3e26c754919dE
libcxx-rust-cssparser.so.1:_ZN52_$LT$u32$u20$as$u20$cxx..weak_ptr..WeakPtrTarget$GT$6__null17h1982900e84689072E
libcxx-rust-cssparser.so.1:_ZN52_$LT$u32$u20$as$u20$cxx..weak_ptr..WeakPtrTarget$GT$7__clone17h1ded9fc436f4b4c8E
libcxx-rust-cssparser.so.1:_ZN52_$LT$u32$u20$as$u20$cxx..weak_ptr..WeakPtrTarget$GT$9__upgrade17hc78343c0694335efE
libcxx-rust-cssparser.so.1:_ZN52_$LT$u64$u20$as$u20$cxx..weak_ptr..WeakPtrTarget$GT$10__typename17h1d9471a125d00b5aE
libcxx-rust-cssparser.so.1:_ZN52_$LT$u64$u20$as$u20$cxx..weak_ptr..WeakPtrTarget$GT$11__downgrade17h9dddd83ef7c84f02E
libcxx-rust-cssparser.so.1:_ZN52_$LT$u64$u20$as$u20$cxx..weak_ptr..WeakPtrTarget$GT$6__drop17h670e15c588fbe56eE
libcxx-rust-cssparser.so.1:_ZN52_$LT$u64$u20$as$u20$cxx..weak_ptr..WeakPtrTarget$GT$6__null17h4511763a3397b0a7E
libcxx-rust-cssparser.so.1:_ZN52_$LT$u64$u20$as$u20$cxx..weak_ptr..WeakPtrTarget$GT$7__clone17h981cfd8d9e3e5320E
libcxx-rust-cssparser.so.1:_ZN52_$LT$u64$u20$as$u20$cxx..weak_ptr..WeakPtrTarget$GT$9__upgrade17h1ff6be4a24cf6da3E
libcxx-rust-cssparser.so.1:_ZN53_$LT$bool$u20$as$u20$cxx..weak_ptr..WeakPtrTarget$GT$10__typename17he0208ac7f88754d9E
libcxx-rust-cssparser.so.1:_ZN53_$LT$bool$u20$as$u20$cxx..weak_ptr..WeakPtrTarget$GT$11__downgrade17h19cb97aacdefa3a2E
libcxx-rust-cssparser.so.1:_ZN53_$LT$bool$u20$as$u20$cxx..weak_ptr..WeakPtrTarget$GT$6__drop17h4a779dfe7663637dE
libcxx-rust-cssparser.so.1:_ZN53_$LT$bool$u20$as$u20$cxx..weak_ptr..WeakPtrTarget$GT$6__null17h66086480b2d3de8eE
libcxx-rust-cssparser.so.1:_ZN53_$LT$bool$u20$as$u20$cxx..weak_ptr..WeakPtrTarget$GT$7__clone17h7770eff7d381e5fcE
libcxx-rust-cssparser.so.1:_ZN53_$LT$bool$u20$as$u20$cxx..weak_ptr..WeakPtrTarget$GT$9__upgrade17hb071a5fb286ed3cdE
libcxx-rust-cssparser.so.1:_ZN53_$LT$i8$u20$as$u20$cxx..cxx_vector..VectorElement$GT$10__pop_back17hec9a6c1763df96c0E
libcxx-rust-cssparser.so.1:_ZN53_$LT$i8$u20$as$u20$cxx..cxx_vector..VectorElement$GT$10__typename17hfbcf0f1a4299b232E
libcxx-rust-cssparser.so.1:_ZN53_$LT$i8$u20$as$u20$cxx..cxx_vector..VectorElement$GT$11__push_back17hf13ca92bbe6cce12E
libcxx-rust-cssparser.so.1:_ZN53_$LT$i8$u20$as$u20$cxx..cxx_vector..VectorElement$GT$12__vector_new17h305898f82bd62f3aE
libcxx-rust-cssparser.so.1:_ZN53_$LT$i8$u20$as$u20$cxx..cxx_vector..VectorElement$GT$13__vector_size17h1060224cdd9815a4E
libcxx-rust-cssparser.so.1:_ZN53_$LT$i8$u20$as$u20$cxx..cxx_vector..VectorElement$GT$15__get_unchecked17h674cac95dbc6115eE
libcxx-rust-cssparser.so.1:_ZN53_$LT$i8$u20$as$u20$cxx..cxx_vector..VectorElement$GT$16__unique_ptr_get17h52ce4a5cf7d79e3eE
libcxx-rust-cssparser.so.1:_ZN53_$LT$i8$u20$as$u20$cxx..cxx_vector..VectorElement$GT$16__unique_ptr_raw17hc80c671e9f886d02E
libcxx-rust-cssparser.so.1:_ZN53_$LT$i8$u20$as$u20$cxx..cxx_vector..VectorElement$GT$17__unique_ptr_drop17h0ae361cdb1a28e40E
libcxx-rust-cssparser.so.1:_ZN53_$LT$i8$u20$as$u20$cxx..cxx_vector..VectorElement$GT$17__unique_ptr_null17h4746644515ddff8cE
libcxx-rust-cssparser.so.1:_ZN53_$LT$i8$u20$as$u20$cxx..cxx_vector..VectorElement$GT$17__vector_capacity17h319fd0c49553e0e6E
libcxx-rust-cssparser.so.1:_ZN53_$LT$i8$u20$as$u20$cxx..cxx_vector..VectorElement$GT$20__unique_ptr_release17hf66a092430a4bcd5E
libcxx-rust-cssparser.so.1:_ZN53_$LT$i8$u20$as$u20$cxx..cxx_vector..VectorElement$GT$9__reserve17h07faf2ca07af19caE
libcxx-rust-cssparser.so.1:_ZN53_$LT$u8$u20$as$u20$cxx..cxx_vector..VectorElement$GT$10__pop_back17h9ec99409c2f6f579E
libcxx-rust-cssparser.so.1:_ZN53_$LT$u8$u20$as$u20$cxx..cxx_vector..VectorElement$GT$10__typename17h505f65091862e3c6E
libcxx-rust-cssparser.so.1:_ZN53_$LT$u8$u20$as$u20$cxx..cxx_vector..VectorElement$GT$11__push_back17h1f6db4d376f9f0b4E
libcxx-rust-cssparser.so.1:_ZN53_$LT$u8$u20$as$u20$cxx..cxx_vector..VectorElement$GT$12__vector_new17h2ae869de57aaac68E
libcxx-rust-cssparser.so.1:_ZN53_$LT$u8$u20$as$u20$cxx..cxx_vector..VectorElement$GT$13__vector_size17h95d371d41e8c95abE
libcxx-rust-cssparser.so.1:_ZN53_$LT$u8$u20$as$u20$cxx..cxx_vector..VectorElement$GT$15__get_unchecked17h4eb9276875f1210fE
libcxx-rust-cssparser.so.1:_ZN53_$LT$u8$u20$as$u20$cxx..cxx_vector..VectorElement$GT$16__unique_ptr_get17h629a7dcda04f34b1E
libcxx-rust-cssparser.so.1:_ZN53_$LT$u8$u20$as$u20$cxx..cxx_vector..VectorElement$GT$16__unique_ptr_raw17h867581bd750202e7E
libcxx-rust-cssparser.so.1:_ZN53_$LT$u8$u20$as$u20$cxx..cxx_vector..VectorElement$GT$17__unique_ptr_drop17h4ef19f5c4164e235E
libcxx-rust-cssparser.so.1:_ZN53_$LT$u8$u20$as$u20$cxx..cxx_vector..VectorElement$GT$17__unique_ptr_null17hc9442a3113c8d965E
libcxx-rust-cssparser.so.1:_ZN53_$LT$u8$u20$as$u20$cxx..cxx_vector..VectorElement$GT$17__vector_capacity17h3ee65e0dfdd05e63E
libcxx-rust-cssparser.so.1:_ZN53_$LT$u8$u20$as$u20$cxx..cxx_vector..VectorElement$GT$20__unique_ptr_release17h1d781d9886fdf4a6E
libcxx-rust-cssparser.so.1:_ZN53_$LT$u8$u20$as$u20$cxx..cxx_vector..VectorElement$GT$9__reserve17hab7c28697654affbE
libcxx-rust-cssparser.so.1:_ZN54_$LT$f32$u20$as$u20$cxx..cxx_vector..VectorElement$GT$10__pop_back17h7337e35738b5bd3cE
libcxx-rust-cssparser.so.1:_ZN54_$LT$f32$u20$as$u20$cxx..cxx_vector..VectorElement$GT$10__typename17h12ba1d9dc2900d70E
libcxx-rust-cssparser.so.1:_ZN54_$LT$f32$u20$as$u20$cxx..cxx_vector..VectorElement$GT$11__push_back17h3e0835700993c96aE
libcxx-rust-cssparser.so.1:_ZN54_$LT$f32$u20$as$u20$cxx..cxx_vector..VectorElement$GT$12__vector_new17h1f51ef10e5f9e059E
libcxx-rust-cssparser.so.1:_ZN54_$LT$f32$u20$as$u20$cxx..cxx_vector..VectorElement$GT$13__vector_size17h1a32edeb4017a6beE
libcxx-rust-cssparser.so.1:_ZN54_$LT$f32$u20$as$u20$cxx..cxx_vector..VectorElement$GT$15__get_unchecked17hb2c7721555a5ff93E
libcxx-rust-cssparser.so.1:_ZN54_$LT$f32$u20$as$u20$cxx..cxx_vector..VectorElement$GT$16__unique_ptr_get17h792f52fa52f71ed2E
libcxx-rust-cssparser.so.1:_ZN54_$LT$f32$u20$as$u20$cxx..cxx_vector..VectorElement$GT$16__unique_ptr_raw17he18bfedcf9b59850E
libcxx-rust-cssparser.so.1:_ZN54_$LT$f32$u20$as$u20$cxx..cxx_vector..VectorElement$GT$17__unique_ptr_drop17hf0bc1acdab52f7a6E
libcxx-rust-cssparser.so.1:_ZN54_$LT$f32$u20$as$u20$cxx..cxx_vector..VectorElement$GT$17__unique_ptr_null17hcfdd89767b52de27E
libcxx-rust-cssparser.so.1:_ZN54_$LT$f32$u20$as$u20$cxx..cxx_vector..VectorElement$GT$17__vector_capacity17h8b9243845155fb17E
libcxx-rust-cssparser.so.1:_ZN54_$LT$f32$u20$as$u20$cxx..cxx_vector..VectorElement$GT$20__unique_ptr_release17he18d818029ce992fE
libcxx-rust-cssparser.so.1:_ZN54_$LT$f32$u20$as$u20$cxx..cxx_vector..VectorElement$GT$9__reserve17ha35109f813f89719E
libcxx-rust-cssparser.so.1:_ZN54_$LT$f64$u20$as$u20$cxx..cxx_vector..VectorElement$GT$10__pop_back17h01bf07684a6f8fb4E
libcxx-rust-cssparser.so.1:_ZN54_$LT$f64$u20$as$u20$cxx..cxx_vector..VectorElement$GT$10__typename17h5be2dcbd880f154eE
libcxx-rust-cssparser.so.1:_ZN54_$LT$f64$u20$as$u20$cxx..cxx_vector..VectorElement$GT$11__push_back17h72ba804b6c0a69a0E
libcxx-rust-cssparser.so.1:_ZN54_$LT$f64$u20$as$u20$cxx..cxx_vector..VectorElement$GT$12__vector_new17h8cbec2a283780eeaE
libcxx-rust-cssparser.so.1:_ZN54_$LT$f64$u20$as$u20$cxx..cxx_vector..VectorElement$GT$13__vector_size17h5c79e648ce6ab594E
libcxx-rust-cssparser.so.1:_ZN54_$LT$f64$u20$as$u20$cxx..cxx_vector..VectorElement$GT$15__get_unchecked17hf3201b9230af008eE
libcxx-rust-cssparser.so.1:_ZN54_$LT$f64$u20$as$u20$cxx..cxx_vector..VectorElement$GT$16__unique_ptr_get17h9a28f6dad762d318E
libcxx-rust-cssparser.so.1:_ZN54_$LT$f64$u20$as$u20$cxx..cxx_vector..VectorElement$GT$16__unique_ptr_raw17hfc77aa7d0f65fb7cE
libcxx-rust-cssparser.so.1:_ZN54_$LT$f64$u20$as$u20$cxx..cxx_vector..VectorElement$GT$17__unique_ptr_drop17hc4072cdddebb1b5aE
libcxx-rust-cssparser.so.1:_ZN54_$LT$f64$u20$as$u20$cxx..cxx_vector..VectorElement$GT$17__unique_ptr_null17he99c5d644a3745beE
libcxx-rust-cssparser.so.1:_ZN54_$LT$f64$u20$as$u20$cxx..cxx_vector..VectorElement$GT$17__vector_capacity17h06bdf594bfc04276E
libcxx-rust-cssparser.so.1:_ZN54_$LT$f64$u20$as$u20$cxx..cxx_vector..VectorElement$GT$20__unique_ptr_release17h249a7a7d8ffccff3E
libcxx-rust-cssparser.so.1:_ZN54_$LT$f64$u20$as$u20$cxx..cxx_vector..VectorElement$GT$9__reserve17h4b709569b4f41278E
libcxx-rust-cssparser.so.1:_ZN54_$LT$i16$u20$as$u20$cxx..cxx_vector..VectorElement$GT$10__pop_back17hf1e28d165f8f1688E
libcxx-rust-cssparser.so.1:_ZN54_$LT$i16$u20$as$u20$cxx..cxx_vector..VectorElement$GT$10__typename17h13e7b6ee821a0409E
libcxx-rust-cssparser.so.1:_ZN54_$LT$i16$u20$as$u20$cxx..cxx_vector..VectorElement$GT$11__push_back17ha92123eba5e1aec5E
libcxx-rust-cssparser.so.1:_ZN54_$LT$i16$u20$as$u20$cxx..cxx_vector..VectorElement$GT$12__vector_new17h0809c075179aef77E
libcxx-rust-cssparser.so.1:_ZN54_$LT$i16$u20$as$u20$cxx..cxx_vector..VectorElement$GT$13__vector_size17h43003edab7f36af8E
libcxx-rust-cssparser.so.1:_ZN54_$LT$i16$u20$as$u20$cxx..cxx_vector..VectorElement$GT$15__get_unchecked17h182d490aaa16e9caE
libcxx-rust-cssparser.so.1:_ZN54_$LT$i16$u20$as$u20$cxx..cxx_vector..VectorElement$GT$16__unique_ptr_get17h4229eb27ae2d6b4aE
libcxx-rust-cssparser.so.1:_ZN54_$LT$i16$u20$as$u20$cxx..cxx_vector..VectorElement$GT$16__unique_ptr_raw17h3c7d0233253c625bE
libcxx-rust-cssparser.so.1:_ZN54_$LT$i16$u20$as$u20$cxx..cxx_vector..VectorElement$GT$17__unique_ptr_drop17h7c893c42c8fd7c46E
libcxx-rust-cssparser.so.1:_ZN54_$LT$i16$u20$as$u20$cxx..cxx_vector..VectorElement$GT$17__unique_ptr_null17hfc6ee8b8a94d2e0fE
libcxx-rust-cssparser.so.1:_ZN54_$LT$i16$u20$as$u20$cxx..cxx_vector..VectorElement$GT$17__vector_capacity17h596ee36a738651f5E
libcxx-rust-cssparser.so.1:_ZN54_$LT$i16$u20$as$u20$cxx..cxx_vector..VectorElement$GT$20__unique_ptr_release17hfae2a8602e51b9faE
libcxx-rust-cssparser.so.1:_ZN54_$LT$i16$u20$as$u20$cxx..cxx_vector..VectorElement$GT$9__reserve17h9cb6f8da59c0c862E
libcxx-rust-cssparser.so.1:_ZN54_$LT$i32$u20$as$u20$cxx..cxx_vector..VectorElement$GT$10__pop_back17h7c2e0c5e4b8e8297E
libcxx-rust-cssparser.so.1:_ZN54_$LT$i32$u20$as$u20$cxx..cxx_vector..VectorElement$GT$10__typename17h411d115d4c2ab7d0E
libcxx-rust-cssparser.so.1:_ZN54_$LT$i32$u20$as$u20$cxx..cxx_vector..VectorElement$GT$11__push_back17hb1faaccd05ef2e4aE
libcxx-rust-cssparser.so.1:_ZN54_$LT$i32$u20$as$u20$cxx..cxx_vector..VectorElement$GT$12__vector_new17h98f89d5f24493f9cE
libcxx-rust-cssparser.so.1:_ZN54_$LT$i32$u20$as$u20$cxx..cxx_vector..VectorElement$GT$13__vector_size17h8929d4870f825a0dE
libcxx-rust-cssparser.so.1:_ZN54_$LT$i32$u20$as$u20$cxx..cxx_vector..VectorElement$GT$15__get_unchecked17h83e4b96cac1b1ca2E
libcxx-rust-cssparser.so.1:_ZN54_$LT$i32$u20$as$u20$cxx..cxx_vector..VectorElement$GT$16__unique_ptr_get17hf9e52ca272dfa093E
libcxx-rust-cssparser.so.1:_ZN54_$LT$i32$u20$as$u20$cxx..cxx_vector..VectorElement$GT$16__unique_ptr_raw17h992f611a29550aa0E
libcxx-rust-cssparser.so.1:_ZN54_$LT$i32$u20$as$u20$cxx..cxx_vector..VectorElement$GT$17__unique_ptr_drop17hea721ffcc4f2f009E
libcxx-rust-cssparser.so.1:_ZN54_$LT$i32$u20$as$u20$cxx..cxx_vector..VectorElement$GT$17__unique_ptr_null17h974a9b2b5d87884cE
libcxx-rust-cssparser.so.1:_ZN54_$LT$i32$u20$as$u20$cxx..cxx_vector..VectorElement$GT$17__vector_capacity17h992da36b6fb1f18eE
libcxx-rust-cssparser.so.1:_ZN54_$LT$i32$u20$as$u20$cxx..cxx_vector..VectorElement$GT$20__unique_ptr_release17h6e3a4415247c8dfcE
libcxx-rust-cssparser.so.1:_ZN54_$LT$i32$u20$as$u20$cxx..cxx_vector..VectorElement$GT$9__reserve17hdcccdf9cb1c970a5E
libcxx-rust-cssparser.so.1:_ZN54_$LT$i64$u20$as$u20$cxx..cxx_vector..VectorElement$GT$10__pop_back17h968400dd18b0d152E
libcxx-rust-cssparser.so.1:_ZN54_$LT$i64$u20$as$u20$cxx..cxx_vector..VectorElement$GT$10__typename17he36bdee8a34acf10E
libcxx-rust-cssparser.so.1:_ZN54_$LT$i64$u20$as$u20$cxx..cxx_vector..VectorElement$GT$11__push_back17h778d91af106d9415E
libcxx-rust-cssparser.so.1:_ZN54_$LT$i64$u20$as$u20$cxx..cxx_vector..VectorElement$GT$12__vector_new17h2a9a263017440e37E
libcxx-rust-cssparser.so.1:_ZN54_$LT$i64$u20$as$u20$cxx..cxx_vector..VectorElement$GT$13__vector_size17h782b649e987bbcacE
libcxx-rust-cssparser.so.1:_ZN54_$LT$i64$u20$as$u20$cxx..cxx_vector..VectorElement$GT$15__get_unchecked17h5060c542c70085a0E
libcxx-rust-cssparser.so.1:_ZN54_$LT$i64$u20$as$u20$cxx..cxx_vector..VectorElement$GT$16__unique_ptr_get17he5f2f5df5b1225eeE
libcxx-rust-cssparser.so.1:_ZN54_$LT$i64$u20$as$u20$cxx..cxx_vector..VectorElement$GT$16__unique_ptr_raw17h2944723916c64a1dE
libcxx-rust-cssparser.so.1:_ZN54_$LT$i64$u20$as$u20$cxx..cxx_vector..VectorElement$GT$17__unique_ptr_drop17h2e2666ce73777e62E
libcxx-rust-cssparser.so.1:_ZN54_$LT$i64$u20$as$u20$cxx..cxx_vector..VectorElement$GT$17__unique_ptr_null17h1bc4c33620e17a80E
libcxx-rust-cssparser.so.1:_ZN54_$LT$i64$u20$as$u20$cxx..cxx_vector..VectorElement$GT$17__vector_capacity17h2bd9d8f5a998c964E
libcxx-rust-cssparser.so.1:_ZN54_$LT$i64$u20$as$u20$cxx..cxx_vector..VectorElement$GT$20__unique_ptr_release17h3ed06ef033a6676bE
libcxx-rust-cssparser.so.1:_ZN54_$LT$i64$u20$as$u20$cxx..cxx_vector..VectorElement$GT$9__reserve17h087488567fd3b2d6E
libcxx-rust-cssparser.so.1:_ZN54_$LT$isize$u20$as$u20$cxx..weak_ptr..WeakPtrTarget$GT$10__typename17h388a29c32dd2a1cfE
libcxx-rust-cssparser.so.1:_ZN54_$LT$isize$u20$as$u20$cxx..weak_ptr..WeakPtrTarget$GT$11__downgrade17h7679d5c04cba82d3E
libcxx-rust-cssparser.so.1:_ZN54_$LT$isize$u20$as$u20$cxx..weak_ptr..WeakPtrTarget$GT$6__drop17h1a7a6a5f8e787e6aE
libcxx-rust-cssparser.so.1:_ZN54_$LT$isize$u20$as$u20$cxx..weak_ptr..WeakPtrTarget$GT$6__null17h6e3b4f84d27c3c87E
libcxx-rust-cssparser.so.1:_ZN54_$LT$isize$u20$as$u20$cxx..weak_ptr..WeakPtrTarget$GT$7__clone17h9f67d768c0b1f751E
libcxx-rust-cssparser.so.1:_ZN54_$LT$isize$u20$as$u20$cxx..weak_ptr..WeakPtrTarget$GT$9__upgrade17h774f21ccb024bfa8E
libcxx-rust-cssparser.so.1:_ZN54_$LT$u16$u20$as$u20$cxx..cxx_vector..VectorElement$GT$10__pop_back17hc00b42461747d09aE
libcxx-rust-cssparser.so.1:_ZN54_$LT$u16$u20$as$u20$cxx..cxx_vector..VectorElement$GT$10__typename17hc363f5ab46aa7f5aE
libcxx-rust-cssparser.so.1:_ZN54_$LT$u16$u20$as$u20$cxx..cxx_vector..VectorElement$GT$11__push_back17h0237baba4ef18dcfE
libcxx-rust-cssparser.so.1:_ZN54_$LT$u16$u20$as$u20$cxx..cxx_vector..VectorElement$GT$12__vector_new17h8305322e7adf68b0E
libcxx-rust-cssparser.so.1:_ZN54_$LT$u16$u20$as$u20$cxx..cxx_vector..VectorElement$GT$13__vector_size17hb79c219b2159bf20E
libcxx-rust-cssparser.so.1:_ZN54_$LT$u16$u20$as$u20$cxx..cxx_vector..VectorElement$GT$15__get_unchecked17h5273b9624d4b4c6dE
libcxx-rust-cssparser.so.1:_ZN54_$LT$u16$u20$as$u20$cxx..cxx_vector..VectorElement$GT$16__unique_ptr_get17ha37b7c97d7eef913E
libcxx-rust-cssparser.so.1:_ZN54_$LT$u16$u20$as$u20$cxx..cxx_vector..VectorElement$GT$16__unique_ptr_raw17hf84cbde43058f053E
libcxx-rust-cssparser.so.1:_ZN54_$LT$u16$u20$as$u20$cxx..cxx_vector..VectorElement$GT$17__unique_ptr_drop17ha7cbd1584cef4b3aE
libcxx-rust-cssparser.so.1:_ZN54_$LT$u16$u20$as$u20$cxx..cxx_vector..VectorElement$GT$17__unique_ptr_null17h298452029c3419f9E
libcxx-rust-cssparser.so.1:_ZN54_$LT$u16$u20$as$u20$cxx..cxx_vector..VectorElement$GT$17__vector_capacity17hcc91c6755d0031e0E
libcxx-rust-cssparser.so.1:_ZN54_$LT$u16$u20$as$u20$cxx..cxx_vector..VectorElement$GT$20__unique_ptr_release17hfacb03a9b9caed16E
libcxx-rust-cssparser.so.1:_ZN54_$LT$u16$u20$as$u20$cxx..cxx_vector..VectorElement$GT$9__reserve17h769fe44422f14960E
libcxx-rust-cssparser.so.1:_ZN54_$LT$u32$u20$as$u20$cxx..cxx_vector..VectorElement$GT$10__pop_back17h62c2bfd48f91941aE
libcxx-rust-cssparser.so.1:_ZN54_$LT$u32$u20$as$u20$cxx..cxx_vector..VectorElement$GT$10__typename17hc3bc4dba94b358d7E
libcxx-rust-cssparser.so.1:_ZN54_$LT$u32$u20$as$u20$cxx..cxx_vector..VectorElement$GT$11__push_back17h4888bd5c4dfb27a3E
libcxx-rust-cssparser.so.1:_ZN54_$LT$u32$u20$as$u20$cxx..cxx_vector..VectorElement$GT$12__vector_new17h2bb7747936e0ed0dE
libcxx-rust-cssparser.so.1:_ZN54_$LT$u32$u20$as$u20$cxx..cxx_vector..VectorElement$GT$13__vector_size17h9c604b8ee9238178E
libcxx-rust-cssparser.so.1:_ZN54_$LT$u32$u20$as$u20$cxx..cxx_vector..VectorElement$GT$15__get_unchecked17hff8cbebacba6d4ddE
libcxx-rust-cssparser.so.1:_ZN54_$LT$u32$u20$as$u20$cxx..cxx_vector..VectorElement$GT$16__unique_ptr_get17h7adc27fbd1a65238E
libcxx-rust-cssparser.so.1:_ZN54_$LT$u32$u20$as$u20$cxx..cxx_vector..VectorElement$GT$16__unique_ptr_raw17h970ece3fbbff01c4E
libcxx-rust-cssparser.so.1:_ZN54_$LT$u32$u20$as$u20$cxx..cxx_vector..VectorElement$GT$17__unique_ptr_drop17h3e627c841c3c7007E
libcxx-rust-cssparser.so.1:_ZN54_$LT$u32$u20$as$u20$cxx..cxx_vector..VectorElement$GT$17__unique_ptr_null17h815a446febc1d495E
libcxx-rust-cssparser.so.1:_ZN54_$LT$u32$u20$as$u20$cxx..cxx_vector..VectorElement$GT$17__vector_capacity17hf5cb56a528b459e9E
libcxx-rust-cssparser.so.1:_ZN54_$LT$u32$u20$as$u20$cxx..cxx_vector..VectorElement$GT$20__unique_ptr_release17h8d50b38c37e4fda4E
libcxx-rust-cssparser.so.1:_ZN54_$LT$u32$u20$as$u20$cxx..cxx_vector..VectorElement$GT$9__reserve17h5247b2f572877ffcE
libcxx-rust-cssparser.so.1:_ZN54_$LT$u64$u20$as$u20$cxx..cxx_vector..VectorElement$GT$10__pop_back17h523433e347ec0d97E
libcxx-rust-cssparser.so.1:_ZN54_$LT$u64$u20$as$u20$cxx..cxx_vector..VectorElement$GT$10__typename17h05ceaecce96b6768E
libcxx-rust-cssparser.so.1:_ZN54_$LT$u64$u20$as$u20$cxx..cxx_vector..VectorElement$GT$11__push_back17h22ab14c6b19d3245E
libcxx-rust-cssparser.so.1:_ZN54_$LT$u64$u20$as$u20$cxx..cxx_vector..VectorElement$GT$12__vector_new17hbc5438de25e00112E
libcxx-rust-cssparser.so.1:_ZN54_$LT$u64$u20$as$u20$cxx..cxx_vector..VectorElement$GT$13__vector_size17hd1db3e314e96bbf1E
libcxx-rust-cssparser.so.1:_ZN54_$LT$u64$u20$as$u20$cxx..cxx_vector..VectorElement$GT$15__get_unchecked17he806d1c90ea58b3aE
libcxx-rust-cssparser.so.1:_ZN54_$LT$u64$u20$as$u20$cxx..cxx_vector..VectorElement$GT$16__unique_ptr_get17h9bc28799436a3886E
libcxx-rust-cssparser.so.1:_ZN54_$LT$u64$u20$as$u20$cxx..cxx_vector..VectorElement$GT$16__unique_ptr_raw17h49b0183048cf95d3E
libcxx-rust-cssparser.so.1:_ZN54_$LT$u64$u20$as$u20$cxx..cxx_vector..VectorElement$GT$17__unique_ptr_drop17he3cefd21e7d5a528E
libcxx-rust-cssparser.so.1:_ZN54_$LT$u64$u20$as$u20$cxx..cxx_vector..VectorElement$GT$17__unique_ptr_null17hb028cd4fcbc3cae0E
libcxx-rust-cssparser.so.1:_ZN54_$LT$u64$u20$as$u20$cxx..cxx_vector..VectorElement$GT$17__vector_capacity17h0333545113388d39E
libcxx-rust-cssparser.so.1:_ZN54_$LT$u64$u20$as$u20$cxx..cxx_vector..VectorElement$GT$20__unique_ptr_release17h677f997662851318E
libcxx-rust-cssparser.so.1:_ZN54_$LT$u64$u20$as$u20$cxx..cxx_vector..VectorElement$GT$9__reserve17h5642464706eb257dE
libcxx-rust-cssparser.so.1:_ZN54_$LT$usize$u20$as$u20$cxx..weak_ptr..WeakPtrTarget$GT$10__typename17hc7fe2e570e15972eE
libcxx-rust-cssparser.so.1:_ZN54_$LT$usize$u20$as$u20$cxx..weak_ptr..WeakPtrTarget$GT$11__downgrade17he7cb22b4b680f3deE
libcxx-rust-cssparser.so.1:_ZN54_$LT$usize$u20$as$u20$cxx..weak_ptr..WeakPtrTarget$GT$6__drop17h3d7ef4bfe0dbc45bE
libcxx-rust-cssparser.so.1:_ZN54_$LT$usize$u20$as$u20$cxx..weak_ptr..WeakPtrTarget$GT$6__null17h1ded23393b7c28deE
libcxx-rust-cssparser.so.1:_ZN54_$LT$usize$u20$as$u20$cxx..weak_ptr..WeakPtrTarget$GT$7__clone17hca87c66541c05d96E
libcxx-rust-cssparser.so.1:_ZN54_$LT$usize$u20$as$u20$cxx..weak_ptr..WeakPtrTarget$GT$9__upgrade17hc40aa72582b38311E
libcxx-rust-cssparser.so.1:_ZN55_$LT$$RF$$u5b$u8$u5d$$u20$as$u20$nom..traits..Input$GT$9take_from17hf4e823ae1d552a68E
libcxx-rust-cssparser.so.1:_ZN55_$LT$i8$u20$as$u20$cxx..shared_ptr..SharedPtrTarget$GT$10__typename17h58b869bfd965d070E
libcxx-rust-cssparser.so.1:_ZN55_$LT$i8$u20$as$u20$cxx..shared_ptr..SharedPtrTarget$GT$5__get17h34d50c6c87e17900E
libcxx-rust-cssparser.so.1:_ZN55_$LT$i8$u20$as$u20$cxx..shared_ptr..SharedPtrTarget$GT$5__new17h1e8cf83fa2a364fcE
libcxx-rust-cssparser.so.1:_ZN55_$LT$i8$u20$as$u20$cxx..shared_ptr..SharedPtrTarget$GT$5__raw17h827896bb18187ba4E
libcxx-rust-cssparser.so.1:_ZN55_$LT$i8$u20$as$u20$cxx..shared_ptr..SharedPtrTarget$GT$6__drop17h5716872b730352fbE
libcxx-rust-cssparser.so.1:_ZN55_$LT$i8$u20$as$u20$cxx..shared_ptr..SharedPtrTarget$GT$6__null17h8e36d951eca76c69E
libcxx-rust-cssparser.so.1:_ZN55_$LT$i8$u20$as$u20$cxx..shared_ptr..SharedPtrTarget$GT$7__clone17h3c6a38c88d2203b4E
libcxx-rust-cssparser.so.1:_ZN55_$LT$u8$u20$as$u20$cxx..shared_ptr..SharedPtrTarget$GT$10__typename17h17c2a4b10c73ce18E
libcxx-rust-cssparser.so.1:_ZN55_$LT$u8$u20$as$u20$cxx..shared_ptr..SharedPtrTarget$GT$5__get17hd7167fccccfc61f6E
libcxx-rust-cssparser.so.1:_ZN55_$LT$u8$u20$as$u20$cxx..shared_ptr..SharedPtrTarget$GT$5__new17h685be0f204190a67E
libcxx-rust-cssparser.so.1:_ZN55_$LT$u8$u20$as$u20$cxx..shared_ptr..SharedPtrTarget$GT$5__raw17h4a44f99009bb62e4E
libcxx-rust-cssparser.so.1:_ZN55_$LT$u8$u20$as$u20$cxx..shared_ptr..SharedPtrTarget$GT$6__drop17h0a7466b94fbfadc8E
libcxx-rust-cssparser.so.1:_ZN55_$LT$u8$u20$as$u20$cxx..shared_ptr..SharedPtrTarget$GT$6__null17h739ea477814ca610E
libcxx-rust-cssparser.so.1:_ZN55_$LT$u8$u20$as$u20$cxx..shared_ptr..SharedPtrTarget$GT$7__clone17h7ec6cfd640d8f0c4E
libcxx-rust-cssparser.so.1:_ZN56_$LT$$u5b$u8$u5d$$u20$as$u20$nom..traits..HexDisplay$GT$11to_hex_from17h10b75c1deea8cfe1E
libcxx-rust-cssparser.so.1:_ZN56_$LT$$u5b$u8$u5d$$u20$as$u20$nom..traits..HexDisplay$GT$6to_hex17h62026848a3cd704cE
libcxx-rust-cssparser.so.1:_ZN56_$LT$f32$u20$as$u20$cxx..shared_ptr..SharedPtrTarget$GT$10__typename17h1e1d59313d07d9bcE
libcxx-rust-cssparser.so.1:_ZN56_$LT$f32$u20$as$u20$cxx..shared_ptr..SharedPtrTarget$GT$5__get17h9519999f4f891821E
libcxx-rust-cssparser.so.1:_ZN56_$LT$f32$u20$as$u20$cxx..shared_ptr..SharedPtrTarget$GT$5__new17h7870ff390dca2f7bE
libcxx-rust-cssparser.so.1:_ZN56_$LT$f32$u20$as$u20$cxx..shared_ptr..SharedPtrTarget$GT$5__raw17h8a2e447b0de5badbE
libcxx-rust-cssparser.so.1:_ZN56_$LT$f32$u20$as$u20$cxx..shared_ptr..SharedPtrTarget$GT$6__drop17h35096308fdf57ab4E
libcxx-rust-cssparser.so.1:_ZN56_$LT$f32$u20$as$u20$cxx..shared_ptr..SharedPtrTarget$GT$6__null17hebb3efb0a88c59aeE
libcxx-rust-cssparser.so.1:_ZN56_$LT$f32$u20$as$u20$cxx..shared_ptr..SharedPtrTarget$GT$7__clone17h88d102e7a5d0b29aE
libcxx-rust-cssparser.so.1:_ZN56_$LT$f64$u20$as$u20$cxx..shared_ptr..SharedPtrTarget$GT$10__typename17h4bb0f7e32d2973eaE
libcxx-rust-cssparser.so.1:_ZN56_$LT$f64$u20$as$u20$cxx..shared_ptr..SharedPtrTarget$GT$5__get17h29396b155ad35104E
libcxx-rust-cssparser.so.1:_ZN56_$LT$f64$u20$as$u20$cxx..shared_ptr..SharedPtrTarget$GT$5__new17h3fb37f7eb9729579E
libcxx-rust-cssparser.so.1:_ZN56_$LT$f64$u20$as$u20$cxx..shared_ptr..SharedPtrTarget$GT$5__raw17hfaef2fc4e78b3051E
libcxx-rust-cssparser.so.1:_ZN56_$LT$f64$u20$as$u20$cxx..shared_ptr..SharedPtrTarget$GT$6__drop17h497fb40f222b1a95E
libcxx-rust-cssparser.so.1:_ZN56_$LT$f64$u20$as$u20$cxx..shared_ptr..SharedPtrTarget$GT$6__null17hc26edfeca89a05a4E
libcxx-rust-cssparser.so.1:_ZN56_$LT$f64$u20$as$u20$cxx..shared_ptr..SharedPtrTarget$GT$7__clone17h53fc9f276f7ccee8E
libcxx-rust-cssparser.so.1:_ZN56_$LT$i16$u20$as$u20$cxx..shared_ptr..SharedPtrTarget$GT$10__typename17ha2dc2d22508c1ceaE
libcxx-rust-cssparser.so.1:_ZN56_$LT$i16$u20$as$u20$cxx..shared_ptr..SharedPtrTarget$GT$5__get17h1afb838af42899b5E
libcxx-rust-cssparser.so.1:_ZN56_$LT$i16$u20$as$u20$cxx..shared_ptr..SharedPtrTarget$GT$5__new17h236ec62f15bbb434E
libcxx-rust-cssparser.so.1:_ZN56_$LT$i16$u20$as$u20$cxx..shared_ptr..SharedPtrTarget$GT$5__raw17h91b9399c58cf3eb5E
libcxx-rust-cssparser.so.1:_ZN56_$LT$i16$u20$as$u20$cxx..shared_ptr..SharedPtrTarget$GT$6__drop17hb75f4bcd389c6fd6E
libcxx-rust-cssparser.so.1:_ZN56_$LT$i16$u20$as$u20$cxx..shared_ptr..SharedPtrTarget$GT$6__null17he05022646eb89bbfE
libcxx-rust-cssparser.so.1:_ZN56_$LT$i16$u20$as$u20$cxx..shared_ptr..SharedPtrTarget$GT$7__clone17h61e216f213337fafE
libcxx-rust-cssparser.so.1:_ZN56_$LT$i32$u20$as$u20$cxx..shared_ptr..SharedPtrTarget$GT$10__typename17h23483aff76626adfE
libcxx-rust-cssparser.so.1:_ZN56_$LT$i32$u20$as$u20$cxx..shared_ptr..SharedPtrTarget$GT$5__get17hf3035eda01ab267bE
libcxx-rust-cssparser.so.1:_ZN56_$LT$i32$u20$as$u20$cxx..shared_ptr..SharedPtrTarget$GT$5__new17h880dbe8c4d914a2eE
libcxx-rust-cssparser.so.1:_ZN56_$LT$i32$u20$as$u20$cxx..shared_ptr..SharedPtrTarget$GT$5__raw17h15c576f5f9c75806E
libcxx-rust-cssparser.so.1:_ZN56_$LT$i32$u20$as$u20$cxx..shared_ptr..SharedPtrTarget$GT$6__drop17h492e05c728e2942fE
libcxx-rust-cssparser.so.1:_ZN56_$LT$i32$u20$as$u20$cxx..shared_ptr..SharedPtrTarget$GT$6__null17h4a54dc3fdf17f02cE
libcxx-rust-cssparser.so.1:_ZN56_$LT$i32$u20$as$u20$cxx..shared_ptr..SharedPtrTarget$GT$7__clone17h9b7222fd7a36a103E
libcxx-rust-cssparser.so.1:_ZN56_$LT$i64$u20$as$u20$cxx..shared_ptr..SharedPtrTarget$GT$10__typename17hf9b48ecff6a5dd7bE
libcxx-rust-cssparser.so.1:_ZN56_$LT$i64$u20$as$u20$cxx..shared_ptr..SharedPtrTarget$GT$5__get17hc1a0bc246f9928f7E
libcxx-rust-cssparser.so.1:_ZN56_$LT$i64$u20$as$u20$cxx..shared_ptr..SharedPtrTarget$GT$5__new17hf405e50020632c1dE
libcxx-rust-cssparser.so.1:_ZN56_$LT$i64$u20$as$u20$cxx..shared_ptr..SharedPtrTarget$GT$5__raw17hf0c69fdff6086a68E
libcxx-rust-cssparser.so.1:_ZN56_$LT$i64$u20$as$u20$cxx..shared_ptr..SharedPtrTarget$GT$6__drop17h75af08f513dff75dE
libcxx-rust-cssparser.so.1:_ZN56_$LT$i64$u20$as$u20$cxx..shared_ptr..SharedPtrTarget$GT$6__null17h9d0224a49cdc0b74E
libcxx-rust-cssparser.so.1:_ZN56_$LT$i64$u20$as$u20$cxx..shared_ptr..SharedPtrTarget$GT$7__clone17h6386ba199baf661fE
libcxx-rust-cssparser.so.1:_ZN56_$LT$isize$u20$as$u20$cxx..cxx_vector..VectorElement$GT$10__pop_back17h63907eeac7ab8719E
libcxx-rust-cssparser.so.1:_ZN56_$LT$isize$u20$as$u20$cxx..cxx_vector..VectorElement$GT$10__typename17hf036ccfeb9b6c194E
libcxx-rust-cssparser.so.1:_ZN56_$LT$isize$u20$as$u20$cxx..cxx_vector..VectorElement$GT$11__push_back17h785dbd4fdbf1bf41E
libcxx-rust-cssparser.so.1:_ZN56_$LT$isize$u20$as$u20$cxx..cxx_vector..VectorElement$GT$12__vector_new17hdee27e76e2e77c2aE
libcxx-rust-cssparser.so.1:_ZN56_$LT$isize$u20$as$u20$cxx..cxx_vector..VectorElement$GT$13__vector_size17h3eecc7ed961d7215E
libcxx-rust-cssparser.so.1:_ZN56_$LT$isize$u20$as$u20$cxx..cxx_vector..VectorElement$GT$15__get_unchecked17h0b107d7f7a2ddf78E
libcxx-rust-cssparser.so.1:_ZN56_$LT$isize$u20$as$u20$cxx..cxx_vector..VectorElement$GT$16__unique_ptr_get17h285b9fdf7270e408E
libcxx-rust-cssparser.so.1:_ZN56_$LT$isize$u20$as$u20$cxx..cxx_vector..VectorElement$GT$16__unique_ptr_raw17h5e2e6089ccdc3651E
libcxx-rust-cssparser.so.1:_ZN56_$LT$isize$u20$as$u20$cxx..cxx_vector..VectorElement$GT$17__unique_ptr_drop17hc461707ac348cecdE
libcxx-rust-cssparser.so.1:_ZN56_$LT$isize$u20$as$u20$cxx..cxx_vector..VectorElement$GT$17__unique_ptr_null17hcccb2107438dea42E
libcxx-rust-cssparser.so.1:_ZN56_$LT$isize$u20$as$u20$cxx..cxx_vector..VectorElement$GT$17__vector_capacity17hd5cc243910d03e3cE
libcxx-rust-cssparser.so.1:_ZN56_$LT$isize$u20$as$u20$cxx..cxx_vector..VectorElement$GT$20__unique_ptr_release17hf7f8c5f27dbedc8dE
libcxx-rust-cssparser.so.1:_ZN56_$LT$isize$u20$as$u20$cxx..cxx_vector..VectorElement$GT$9__reserve17h67e2156959a67c6cE
libcxx-rust-cssparser.so.1:_ZN56_$LT$u16$u20$as$u20$cxx..shared_ptr..SharedPtrTarget$GT$10__typename17h5ceff1061c633ed0E
libcxx-rust-cssparser.so.1:_ZN56_$LT$u16$u20$as$u20$cxx..shared_ptr..SharedPtrTarget$GT$5__get17hc3f46445932d47f9E
libcxx-rust-cssparser.so.1:_ZN56_$LT$u16$u20$as$u20$cxx..shared_ptr..SharedPtrTarget$GT$5__new17h367cfd1b8babf3a3E
libcxx-rust-cssparser.so.1:_ZN56_$LT$u16$u20$as$u20$cxx..shared_ptr..SharedPtrTarget$GT$5__raw17h06a55e8d78ce2719E
libcxx-rust-cssparser.so.1:_ZN56_$LT$u16$u20$as$u20$cxx..shared_ptr..SharedPtrTarget$GT$6__drop17h42204ae142df2cc7E
libcxx-rust-cssparser.so.1:_ZN56_$LT$u16$u20$as$u20$cxx..shared_ptr..SharedPtrTarget$GT$6__null17h43098681162766ecE
libcxx-rust-cssparser.so.1:_ZN56_$LT$u16$u20$as$u20$cxx..shared_ptr..SharedPtrTarget$GT$7__clone17h9a19ca093179eac7E
libcxx-rust-cssparser.so.1:_ZN56_$LT$u32$u20$as$u20$cxx..shared_ptr..SharedPtrTarget$GT$10__typename17hc647009926d0b2a6E
libcxx-rust-cssparser.so.1:_ZN56_$LT$u32$u20$as$u20$cxx..shared_ptr..SharedPtrTarget$GT$5__get17h6aa088959776acbfE
libcxx-rust-cssparser.so.1:_ZN56_$LT$u32$u20$as$u20$cxx..shared_ptr..SharedPtrTarget$GT$5__new17h7bafa4635053b6faE
libcxx-rust-cssparser.so.1:_ZN56_$LT$u32$u20$as$u20$cxx..shared_ptr..SharedPtrTarget$GT$5__raw17hf28b2763f992d71bE
libcxx-rust-cssparser.so.1:_ZN56_$LT$u32$u20$as$u20$cxx..shared_ptr..SharedPtrTarget$GT$6__drop17h82b3ef2fceba94ccE
libcxx-rust-cssparser.so.1:_ZN56_$LT$u32$u20$as$u20$cxx..shared_ptr..SharedPtrTarget$GT$6__null17ha088f6baa1376e28E
libcxx-rust-cssparser.so.1:_ZN56_$LT$u32$u20$as$u20$cxx..shared_ptr..SharedPtrTarget$GT$7__clone17h5ca4c89100d5c5a8E
libcxx-rust-cssparser.so.1:_ZN56_$LT$u64$u20$as$u20$cxx..shared_ptr..SharedPtrTarget$GT$10__typename17h159e814f457715fbE
libcxx-rust-cssparser.so.1:_ZN56_$LT$u64$u20$as$u20$cxx..shared_ptr..SharedPtrTarget$GT$5__get17h5b94e163c9339dc2E
libcxx-rust-cssparser.so.1:_ZN56_$LT$u64$u20$as$u20$cxx..shared_ptr..SharedPtrTarget$GT$5__new17hf2fdb5dd7934e2d2E
libcxx-rust-cssparser.so.1:_ZN56_$LT$u64$u20$as$u20$cxx..shared_ptr..SharedPtrTarget$GT$5__raw17h253fcc7fbd05c8daE
libcxx-rust-cssparser.so.1:_ZN56_$LT$u64$u20$as$u20$cxx..shared_ptr..SharedPtrTarget$GT$6__drop17h07de58a0f2207483E
libcxx-rust-cssparser.so.1:_ZN56_$LT$u64$u20$as$u20$cxx..shared_ptr..SharedPtrTarget$GT$6__null17h9d4542c24d502c9fE
libcxx-rust-cssparser.so.1:_ZN56_$LT$u64$u20$as$u20$cxx..shared_ptr..SharedPtrTarget$GT$7__clone17hdbf2fc31ada0ec1cE
libcxx-rust-cssparser.so.1:_ZN56_$LT$usize$u20$as$u20$cxx..cxx_vector..VectorElement$GT$10__pop_back17hca236cd3d5a655bfE
libcxx-rust-cssparser.so.1:_ZN56_$LT$usize$u20$as$u20$cxx..cxx_vector..VectorElement$GT$10__typename17ha32fc9870ee30849E
libcxx-rust-cssparser.so.1:_ZN56_$LT$usize$u20$as$u20$cxx..cxx_vector..VectorElement$GT$11__push_back17ha5a3dc24aa600631E
libcxx-rust-cssparser.so.1:_ZN56_$LT$usize$u20$as$u20$cxx..cxx_vector..VectorElement$GT$12__vector_new17hd9329936e6d475a4E
libcxx-rust-cssparser.so.1:_ZN56_$LT$usize$u20$as$u20$cxx..cxx_vector..VectorElement$GT$13__vector_size17hde96bc677f6b7480E
libcxx-rust-cssparser.so.1:_ZN56_$LT$usize$u20$as$u20$cxx..cxx_vector..VectorElement$GT$15__get_unchecked17h829dd6ce66dc6881E
libcxx-rust-cssparser.so.1:_ZN56_$LT$usize$u20$as$u20$cxx..cxx_vector..VectorElement$GT$16__unique_ptr_get17hb0b41905a5267f6eE
libcxx-rust-cssparser.so.1:_ZN56_$LT$usize$u20$as$u20$cxx..cxx_vector..VectorElement$GT$16__unique_ptr_raw17h7325ffb57799ad21E
libcxx-rust-cssparser.so.1:_ZN56_$LT$usize$u20$as$u20$cxx..cxx_vector..VectorElement$GT$17__unique_ptr_drop17he456900e549b8d36E
libcxx-rust-cssparser.so.1:_ZN56_$LT$usize$u20$as$u20$cxx..cxx_vector..VectorElement$GT$17__unique_ptr_null17hd2e3b6bb71b65747E
libcxx-rust-cssparser.so.1:_ZN56_$LT$usize$u20$as$u20$cxx..cxx_vector..VectorElement$GT$17__vector_capacity17h437632ceb623728bE
libcxx-rust-cssparser.so.1:_ZN56_$LT$usize$u20$as$u20$cxx..cxx_vector..VectorElement$GT$20__unique_ptr_release17hdfa7cad06259e1feE
libcxx-rust-cssparser.so.1:_ZN56_$LT$usize$u20$as$u20$cxx..cxx_vector..VectorElement$GT$9__reserve17h3431686ea455a006E
libcxx-rust-cssparser.so.1:_ZN57_$LT$bool$u20$as$u20$cxx..shared_ptr..SharedPtrTarget$GT$10__typename17h7eb137db1faf3483E
libcxx-rust-cssparser.so.1:_ZN57_$LT$bool$u20$as$u20$cxx..shared_ptr..SharedPtrTarget$GT$5__get17hcc508ee5d5d1ea0aE
libcxx-rust-cssparser.so.1:_ZN57_$LT$bool$u20$as$u20$cxx..shared_ptr..SharedPtrTarget$GT$5__new17h47a71468ed14e653E
libcxx-rust-cssparser.so.1:_ZN57_$LT$bool$u20$as$u20$cxx..shared_ptr..SharedPtrTarget$GT$5__raw17h7825b66098614466E
libcxx-rust-cssparser.so.1:_ZN57_$LT$bool$u20$as$u20$cxx..shared_ptr..SharedPtrTarget$GT$6__drop17h474b56d8ee808341E
libcxx-rust-cssparser.so.1:_ZN57_$LT$bool$u20$as$u20$cxx..shared_ptr..SharedPtrTarget$GT$6__null17h4e83733721828dc7E
libcxx-rust-cssparser.so.1:_ZN57_$LT$bool$u20$as$u20$cxx..shared_ptr..SharedPtrTarget$GT$7__clone17ha9811164ac1bce58E
libcxx-rust-cssparser.so.1:_ZN57_$LT$cxx..string..CxxString$u20$as$u20$core..cmp..Ord$GT$3cmp17h2885ed96af9879b8E
libcxx-rust-cssparser.so.1:_ZN58_$LT$isize$u20$as$u20$cxx..shared_ptr..SharedPtrTarget$GT$10__typename17ha46e6914885d3e97E
libcxx-rust-cssparser.so.1:_ZN58_$LT$isize$u20$as$u20$cxx..shared_ptr..SharedPtrTarget$GT$5__get17heeaf6152f8366b15E
libcxx-rust-cssparser.so.1:_ZN58_$LT$isize$u20$as$u20$cxx..shared_ptr..SharedPtrTarget$GT$5__new17h7ea24ef7021624c8E
libcxx-rust-cssparser.so.1:_ZN58_$LT$isize$u20$as$u20$cxx..shared_ptr..SharedPtrTarget$GT$5__raw17hfdd5bbad1abe7384E
libcxx-rust-cssparser.so.1:_ZN58_$LT$isize$u20$as$u20$cxx..shared_ptr..SharedPtrTarget$GT$6__drop17h93da588fa953658eE
libcxx-rust-cssparser.so.1:_ZN58_$LT$isize$u20$as$u20$cxx..shared_ptr..SharedPtrTarget$GT$6__null17h26da34a50ef40154E
libcxx-rust-cssparser.so.1:_ZN58_$LT$isize$u20$as$u20$cxx..shared_ptr..SharedPtrTarget$GT$7__clone17hb4ebfb48a8ff1a8cE
libcxx-rust-cssparser.so.1:_ZN58_$LT$usize$u20$as$u20$cxx..shared_ptr..SharedPtrTarget$GT$10__typename17h4856be842bcb7970E
libcxx-rust-cssparser.so.1:_ZN58_$LT$usize$u20$as$u20$cxx..shared_ptr..SharedPtrTarget$GT$5__get17h647d5d76051fee6bE
libcxx-rust-cssparser.so.1:_ZN58_$LT$usize$u20$as$u20$cxx..shared_ptr..SharedPtrTarget$GT$5__new17h6438c2969f6d5bf2E
libcxx-rust-cssparser.so.1:_ZN58_$LT$usize$u20$as$u20$cxx..shared_ptr..SharedPtrTarget$GT$5__raw17h9eb5ef622e219f9cE
libcxx-rust-cssparser.so.1:_ZN58_$LT$usize$u20$as$u20$cxx..shared_ptr..SharedPtrTarget$GT$6__drop17hfeacc7d3f45f758fE
libcxx-rust-cssparser.so.1:_ZN58_$LT$usize$u20$as$u20$cxx..shared_ptr..SharedPtrTarget$GT$6__null17h9e72e829928ea882E
libcxx-rust-cssparser.so.1:_ZN58_$LT$usize$u20$as$u20$cxx..shared_ptr..SharedPtrTarget$GT$7__clone17h8f2733bade19b831E
libcxx-rust-cssparser.so.1:_ZN59_$LT$cxx..string..CxxString$u20$as$u20$core..fmt..Debug$GT$3fmt17h4580e297b226940fE
libcxx-rust-cssparser.so.1:_ZN5alloc2rc15Rc$LT$T$C$A$GT$9drop_slow17ha9ce3f52eb2adaa7E
libcxx-rust-cssparser.so.1:_ZN5alloc4sync16Arc$LT$T$C$A$GT$9drop_slow17hc0b53290f662e149E
libcxx-rust-cssparser.so.1:_ZN5alloc7raw_vec19RawVec$LT$T$C$A$GT$8grow_one17h0a2db890a0eae9d5E
libcxx-rust-cssparser.so.1:_ZN5alloc7raw_vec19RawVec$LT$T$C$A$GT$8grow_one17h14679ec21ff03eeeE
libcxx-rust-cssparser.so.1:_ZN5alloc7raw_vec19RawVec$LT$T$C$A$GT$8grow_one17h183279ab552e361bE
libcxx-rust-cssparser.so.1:_ZN5alloc7raw_vec19RawVec$LT$T$C$A$GT$8grow_one17h394d3564ee8d0c02E
libcxx-rust-cssparser.so.1:_ZN5alloc7raw_vec19RawVec$LT$T$C$A$GT$8grow_one17h4050e69fe785ebd3E
libcxx-rust-cssparser.so.1:_ZN5alloc7raw_vec19RawVec$LT$T$C$A$GT$8grow_one17h48f7a3c4f1de8d38E
libcxx-rust-cssparser.so.1:_ZN5alloc7raw_vec19RawVec$LT$T$C$A$GT$8grow_one17h6c39cd09dbce2e37E
libcxx-rust-cssparser.so.1:_ZN5alloc7raw_vec19RawVec$LT$T$C$A$GT$8grow_one17h8530ae26f202ef91E
libcxx-rust-cssparser.so.1:_ZN5alloc7raw_vec19RawVec$LT$T$C$A$GT$8grow_one17h9e33ad407f32da48E
libcxx-rust-cssparser.so.1:_ZN5alloc7raw_vec19RawVec$LT$T$C$A$GT$8grow_one17hab8504da60086e75E
libcxx-rust-cssparser.so.1:_ZN5alloc7raw_vec19RawVec$LT$T$C$A$GT$8grow_one17hcee31bbe5011f0ebE
libcxx-rust-cssparser.so.1:_ZN5alloc7raw_vec19RawVec$LT$T$C$A$GT$8grow_one17hd02f537191bdd4f6E
libcxx-rust-cssparser.so.1:_ZN5alloc7raw_vec19RawVec$LT$T$C$A$GT$8grow_one17hfaccc4b145ed1dfaE
libcxx-rust-cssparser.so.1:_ZN60_$LT$$RF$str$u20$as$u20$nom..traits..FindToken$LT$u8$GT$$GT$10find_token17he8158da944d99d24E
libcxx-rust-cssparser.so.1:_ZN60_$LT$cxx..unwind..Guard$u20$as$u20$core..ops..drop..Drop$GT$4drop17h96681b1c33b34a7eE
libcxx-rust-cssparser.so.1:_ZN61_$LT$cxx..string..CxxString$u20$as$u20$core..fmt..Display$GT$3fmt17he5e67b2ae6678fb0E
libcxx-rust-cssparser.so.1:_ZN62_$LT$$RF$str$u20$as$u20$nom..traits..FindToken$LT$char$GT$$GT$10find_token17h99fe4a97a8ed5277E
libcxx-rust-cssparser.so.1:_ZN63_$LT$cxx..string..CxxString$u20$as$u20$core..cmp..PartialEq$GT$2eq17h5a068e703a0b83f0E
libcxx-rust-cssparser.so.1:_ZN64_$LT$$RF$str$u20$as$u20$nom..traits..FindToken$LT$$RF$u8$GT$$GT$10find_token17h66b63604189819c3E
libcxx-rust-cssparser.so.1:_ZN64_$LT$cxx..exception..Exception$u20$as$u20$core..fmt..Display$GT$3fmt17hd9b3b7ee08838174E
libcxx-rust-cssparser.so.1:_ZN64_$LT$cxx..string..CxxString$u20$as$u20$core..cmp..PartialOrd$GT$11partial_cmp17he5afdf8e40cb8c22E
libcxx-rust-cssparser.so.1:_ZN66_$LT$cxx..string..StackString$u20$as$u20$core..ops..drop..Drop$GT$4drop17h22eae5654f358c0aE
libcxx-rust-cssparser.so.1:_ZN67_$LT$bitflags..parser..ParseError$u20$as$u20$core..fmt..Display$GT$3fmt17h524d40c15c714658E
libcxx-rust-cssparser.so.1:_ZN69_$LT$$RF$$u5b$u8$u5d$$u20$as$u20$nom..traits..FindToken$LT$u8$GT$$GT$10find_token17hb66ba91cce09ad2bE
libcxx-rust-cssparser.so.1:_ZN69_$LT$$RF$str$u20$as$u20$nom..traits..FindSubstring$LT$$RF$str$GT$$GT$14find_substring17h4ed1962d372adeb4E
libcxx-rust-cssparser.so.1:_ZN6memchr4arch6x86_646memchr10memchr_raw2FN17h4325083c7b59232aE
libcxx-rust-cssparser.so.1:_ZN6memchr4arch6x86_646memchr10memchr_raw6detect17haedf4021640197b4E
libcxx-rust-cssparser.so.1:_ZN6memchr4arch6x86_646memchr11memchr2_raw2FN17h88de46d9f7d94f75E
libcxx-rust-cssparser.so.1:_ZN6memchr4arch6x86_646memchr11memchr2_raw6detect17h8203ef668e973eeeE
libcxx-rust-cssparser.so.1:_ZN6memchr4arch6x86_646memchr11memchr3_raw2FN17h783f2077dbc5750bE
libcxx-rust-cssparser.so.1:_ZN6memchr4arch6x86_646memchr11memchr3_raw6detect17h40899468f94b7090E
libcxx-rust-cssparser.so.1:_ZN6memchr4arch6x86_646memchr11memrchr_raw2FN17h7f5e9ad5c59de664E
libcxx-rust-cssparser.so.1:_ZN6memchr4arch6x86_646memchr11memrchr_raw6detect17h56c80e668a017de4E
libcxx-rust-cssparser.so.1:_ZN6memchr4arch6x86_646memchr12memrchr2_raw2FN17hd6c526fb87392da9E
libcxx-rust-cssparser.so.1:_ZN6memchr4arch6x86_646memchr12memrchr2_raw6detect17h3c202e07ccc47a35E
libcxx-rust-cssparser.so.1:_ZN6memchr4arch6x86_646memchr12memrchr3_raw2FN17ha347b5cf7bc6429fE
libcxx-rust-cssparser.so.1:_ZN6memchr4arch6x86_646memchr12memrchr3_raw6detect17hdfaaf5c2f4b84502E
libcxx-rust-cssparser.so.1:_ZN6memchr4arch6x86_646memchr9count_raw2FN17hdaa28110b35711f6E
libcxx-rust-cssparser.so.1:_ZN6memchr4arch6x86_646memchr9count_raw6detect17h560b1afe4c1390c9E
libcxx-rust-cssparser.so.1:_ZN70_$LT$cxx..rust_string..RustString$u20$as$u20$core..ops..drop..Drop$GT$4drop17h665cc88adc698686E
libcxx-rust-cssparser.so.1:_ZN70_$LT$selectors..builder..SelectorFlags$u20$as$u20$core..fmt..Debug$GT$3fmt17hacd157f086dc6360E
libcxx-rust-cssparser.so.1:_ZN71_$LT$$RF$$u5b$u8$u5d$$u20$as$u20$nom..traits..FindToken$LT$char$GT$$GT$10find_token17hf5873fb37cf4ee1eE
libcxx-rust-cssparser.so.1:_ZN71_$LT$cxx..string..CxxString$u20$as$u20$cxx..weak_ptr..WeakPtrTarget$GT$10__typename17h76ea9003dfc8a497E
libcxx-rust-cssparser.so.1:_ZN71_$LT$cxx..string..CxxString$u20$as$u20$cxx..weak_ptr..WeakPtrTarget$GT$11__downgrade17hbd89fa36c3666c98E
libcxx-rust-cssparser.so.1:_ZN71_$LT$cxx..string..CxxString$u20$as$u20$cxx..weak_ptr..WeakPtrTarget$GT$6__drop17h9e01182a70aef61dE
libcxx-rust-cssparser.so.1:_ZN71_$LT$cxx..string..CxxString$u20$as$u20$cxx..weak_ptr..WeakPtrTarget$GT$6__null17h353738aec026f071E
libcxx-rust-cssparser.so.1:_ZN71_$LT$cxx..string..CxxString$u20$as$u20$cxx..weak_ptr..WeakPtrTarget$GT$7__clone17h7f740a310dc96753E
libcxx-rust-cssparser.so.1:_ZN71_$LT$cxx..string..CxxString$u20$as$u20$cxx..weak_ptr..WeakPtrTarget$GT$9__upgrade17h2517592ccd869d92E
libcxx-rust-cssparser.so.1:_ZN73_$LT$$RF$$u5b$char$u5d$$u20$as$u20$nom..traits..FindToken$LT$char$GT$$GT$10find_token17hb08fafa409e22a56E
libcxx-rust-cssparser.so.1:_ZN73_$LT$$RF$$u5b$u8$u5d$$u20$as$u20$nom..traits..FindToken$LT$$RF$u8$GT$$GT$10find_token17h0b1e81744c7de036E
libcxx-rust-cssparser.so.1:_ZN73_$LT$cxx..string..CxxString$u20$as$u20$cxx..cxx_vector..VectorElement$GT$10__typename17h2ea389659ad5d56dE
libcxx-rust-cssparser.so.1:_ZN73_$LT$cxx..string..CxxString$u20$as$u20$cxx..cxx_vector..VectorElement$GT$12__vector_new17h85144a0a33dd01dfE
libcxx-rust-cssparser.so.1:_ZN73_$LT$cxx..string..CxxString$u20$as$u20$cxx..cxx_vector..VectorElement$GT$13__vector_size17heaef4bfbba189a89E
libcxx-rust-cssparser.so.1:_ZN73_$LT$cxx..string..CxxString$u20$as$u20$cxx..cxx_vector..VectorElement$GT$15__get_unchecked17hd4dcf559358ca6e6E
libcxx-rust-cssparser.so.1:_ZN73_$LT$cxx..string..CxxString$u20$as$u20$cxx..cxx_vector..VectorElement$GT$16__unique_ptr_get17h9e8089cd6532fb70E
libcxx-rust-cssparser.so.1:_ZN73_$LT$cxx..string..CxxString$u20$as$u20$cxx..cxx_vector..VectorElement$GT$16__unique_ptr_raw17h9d9ebff1bc2fef5cE
libcxx-rust-cssparser.so.1:_ZN73_$LT$cxx..string..CxxString$u20$as$u20$cxx..cxx_vector..VectorElement$GT$17__unique_ptr_drop17h6fac93f23964eaaeE
libcxx-rust-cssparser.so.1:_ZN73_$LT$cxx..string..CxxString$u20$as$u20$cxx..cxx_vector..VectorElement$GT$17__unique_ptr_null17h42cec72849cdbb25E
libcxx-rust-cssparser.so.1:_ZN73_$LT$cxx..string..CxxString$u20$as$u20$cxx..cxx_vector..VectorElement$GT$17__vector_capacity17h2419c7a032b8d713E
libcxx-rust-cssparser.so.1:_ZN73_$LT$cxx..string..CxxString$u20$as$u20$cxx..cxx_vector..VectorElement$GT$20__unique_ptr_release17h3f880335bafb5ba7E
libcxx-rust-cssparser.so.1:_ZN73_$LT$cxx..string..CxxString$u20$as$u20$cxx..cxx_vector..VectorElement$GT$9__reserve17hcbf781882d6f6baaE
libcxx-rust-cssparser.so.1:_ZN74_$LT$cxx..string..CxxString$u20$as$u20$core..cmp..PartialEq$LT$str$GT$$GT$2eq17h93fe1bd436299a42E
libcxx-rust-cssparser.so.1:_ZN75_$LT$cxx..string..CxxString$u20$as$u20$cxx..shared_ptr..SharedPtrTarget$GT$10__typename17h49454e1becc207c9E
libcxx-rust-cssparser.so.1:_ZN75_$LT$cxx..string..CxxString$u20$as$u20$cxx..shared_ptr..SharedPtrTarget$GT$5__get17hf36dfaad920ffd95E
libcxx-rust-cssparser.so.1:_ZN75_$LT$cxx..string..CxxString$u20$as$u20$cxx..shared_ptr..SharedPtrTarget$GT$5__new17h657afa4df7a26ccaE
libcxx-rust-cssparser.so.1:_ZN75_$LT$cxx..string..CxxString$u20$as$u20$cxx..shared_ptr..SharedPtrTarget$GT$5__raw17h1e7e216511ae7791E
libcxx-rust-cssparser.so.1:_ZN75_$LT$cxx..string..CxxString$u20$as$u20$cxx..shared_ptr..SharedPtrTarget$GT$6__drop17hc21a88d80dc46201E
libcxx-rust-cssparser.so.1:_ZN75_$LT$cxx..string..CxxString$u20$as$u20$cxx..shared_ptr..SharedPtrTarget$GT$6__null17h2ba39ed2f767acd7E
libcxx-rust-cssparser.so.1:_ZN75_$LT$cxx..string..CxxString$u20$as$u20$cxx..shared_ptr..SharedPtrTarget$GT$7__clone17hc78e3ea3da5ce17bE
libcxx-rust-cssparser.so.1:_ZN75_$LT$cxx..string..CxxString$u20$as$u20$cxx..unique_ptr..UniquePtrTarget$GT$10__typename17h625026202c53c9c6E
libcxx-rust-cssparser.so.1:_ZN75_$LT$cxx..string..CxxString$u20$as$u20$cxx..unique_ptr..UniquePtrTarget$GT$5__get17hfb95e718316ec42aE
libcxx-rust-cssparser.so.1:_ZN75_$LT$cxx..string..CxxString$u20$as$u20$cxx..unique_ptr..UniquePtrTarget$GT$5__raw17h031b5175b22e4370E
libcxx-rust-cssparser.so.1:_ZN75_$LT$cxx..string..CxxString$u20$as$u20$cxx..unique_ptr..UniquePtrTarget$GT$6__drop17ha3d50e201cbe41e1E
libcxx-rust-cssparser.so.1:_ZN75_$LT$cxx..string..CxxString$u20$as$u20$cxx..unique_ptr..UniquePtrTarget$GT$6__null17hd47249dc67e94fafE
libcxx-rust-cssparser.so.1:_ZN75_$LT$cxx..string..CxxString$u20$as$u20$cxx..unique_ptr..UniquePtrTarget$GT$9__release17h3c6c982f4847c43eE
libcxx-rust-cssparser.so.1:_ZN75_$LT$selectors..parser.._..InternalBitFlags$u20$as$u20$core..fmt..Debug$GT$3fmt17h29b4e752ff46889bE
libcxx-rust-cssparser.so.1:_ZN75_$LT$selectors..parser.._..InternalBitFlags$u20$as$u20$core..fmt..Debug$GT$3fmt17hb8dfc823b626979bE
libcxx-rust-cssparser.so.1:_ZN75_$LT$selectors..parser.._..InternalBitFlags$u20$as$u20$core..fmt..Octal$GT$3fmt17hc3e44685a0cfb659E
libcxx-rust-cssparser.so.1:_ZN75_$LT$selectors..parser.._..InternalBitFlags$u20$as$u20$core..fmt..Octal$GT$3fmt17he2e08691988a99f3E
libcxx-rust-cssparser.so.1:_ZN76_$LT$cxx_rust_cssparser_impl..ffi..ffi..Unit$u20$as$u20$core..fmt..Debug$GT$3fmt17h27706fc5608579c2E
libcxx-rust-cssparser.so.1:_ZN76_$LT$cxx_rust_cssparser_impl..value..Color$u20$as$u20$core..fmt..Display$GT$3fmt17hfc2e169c3f78e29dE
libcxx-rust-cssparser.so.1:_ZN76_$LT$cxx_rust_cssparser_impl..value..Value$u20$as$u20$core..fmt..Display$GT$3fmt17h4c14e5f7a83ea9b1E
libcxx-rust-cssparser.so.1:_ZN76_$LT$selectors..parser.._..InternalBitFlags$u20$as$u20$core..fmt..Binary$GT$3fmt17h663a65dac9fb356fE
libcxx-rust-cssparser.so.1:_ZN76_$LT$selectors..parser.._..InternalBitFlags$u20$as$u20$core..fmt..Binary$GT$3fmt17h9e127d7363ac463bE
libcxx-rust-cssparser.so.1:_ZN76_$LT$selectors..visitor.._..InternalBitFlags$u20$as$u20$core..fmt..Debug$GT$3fmt17hd724105bc4b897dcE
libcxx-rust-cssparser.so.1:_ZN76_$LT$selectors..visitor.._..InternalBitFlags$u20$as$u20$core..fmt..Octal$GT$3fmt17he7519159bb6638deE
libcxx-rust-cssparser.so.1:_ZN77_$LT$$RF$$u5b$char$u5d$$u20$as$u20$nom..traits..FindToken$LT$$RF$char$GT$$GT$10find_token17hc838191ee854e814E
libcxx-rust-cssparser.so.1:_ZN77_$LT$cssparser..parser..BasicParseErrorKind$u20$as$u20$core..fmt..Display$GT$3fmt17ha8fda537a6f5bc77E
libcxx-rust-cssparser.so.1:_ZN77_$LT$selectors..matching.._..InternalBitFlags$u20$as$u20$core..fmt..Debug$GT$3fmt17hca77ba72e32d580bE
libcxx-rust-cssparser.so.1:_ZN77_$LT$selectors..matching.._..InternalBitFlags$u20$as$u20$core..fmt..Octal$GT$3fmt17h01e5d42423b2961fE
libcxx-rust-cssparser.so.1:_ZN77_$LT$selectors..parser.._..InternalBitFlags$u20$as$u20$core..fmt..Display$GT$3fmt17h39cc41f1d0ef455cE
libcxx-rust-cssparser.so.1:_ZN77_$LT$selectors..parser.._..InternalBitFlags$u20$as$u20$core..fmt..Display$GT$3fmt17ha7c1f0019754bf83E
libcxx-rust-cssparser.so.1:_ZN77_$LT$selectors..visitor.._..InternalBitFlags$u20$as$u20$core..fmt..Binary$GT$3fmt17h8539b7e0ecc830d2E
libcxx-rust-cssparser.so.1:_ZN78_$LT$$RF$$u5b$u8$u5d$$u20$as$u20$nom..traits..FindSubstring$LT$$RF$str$GT$$GT$14find_substring17h3456fd7d841a18acE
libcxx-rust-cssparser.so.1:_ZN78_$LT$selectors..matching.._..InternalBitFlags$u20$as$u20$core..fmt..Binary$GT$3fmt17hd6e051356df076bdE
libcxx-rust-cssparser.so.1:_ZN78_$LT$selectors..parser.._..InternalBitFlags$u20$as$u20$core..fmt..LowerHex$GT$3fmt17h406ed065d48e8ff6E
libcxx-rust-cssparser.so.1:_ZN78_$LT$selectors..parser.._..InternalBitFlags$u20$as$u20$core..fmt..LowerHex$GT$3fmt17h7a16017149552e36E
libcxx-rust-cssparser.so.1:_ZN78_$LT$selectors..parser.._..InternalBitFlags$u20$as$u20$core..fmt..UpperHex$GT$3fmt17h58d47314f4f7fc65E
libcxx-rust-cssparser.so.1:_ZN78_$LT$selectors..parser.._..InternalBitFlags$u20$as$u20$core..fmt..UpperHex$GT$3fmt17hba7ff078c42d17f2E
libcxx-rust-cssparser.so.1:_ZN78_$LT$selectors..visitor.._..InternalBitFlags$u20$as$u20$core..fmt..Display$GT$3fmt17h2027f66f5194d99eE
libcxx-rust-cssparser.so.1:_ZN79_$LT$selectors..matching.._..InternalBitFlags$u20$as$u20$core..fmt..Display$GT$3fmt17hd572cff13ab6451bE
libcxx-rust-cssparser.so.1:_ZN79_$LT$selectors..visitor.._..InternalBitFlags$u20$as$u20$core..fmt..LowerHex$GT$3fmt17hf5a8ec4c480535bcE
libcxx-rust-cssparser.so.1:_ZN79_$LT$selectors..visitor.._..InternalBitFlags$u20$as$u20$core..fmt..UpperHex$GT$3fmt17h84da5d5065d058b9E
libcxx-rust-cssparser.so.1:_ZN80_$LT$cxx_rust_cssparser_impl..value..Dimension$u20$as$u20$core..fmt..Display$GT$3fmt17h52062b7d8090076dE
libcxx-rust-cssparser.so.1:_ZN80_$LT$cxx_rust_cssparser_impl..value..Unit$u20$as$u20$alloc..string..ToString$GT$9to_string17hf75ab27eb75ab194E
libcxx-rust-cssparser.so.1:_ZN80_$LT$selectors..matching.._..InternalBitFlags$u20$as$u20$core..fmt..LowerHex$GT$3fmt17h5c16f17c9d398d58E
libcxx-rust-cssparser.so.1:_ZN80_$LT$selectors..matching.._..InternalBitFlags$u20$as$u20$core..fmt..UpperHex$GT$3fmt17hae5f9c7fc03c5bf4E
libcxx-rust-cssparser.so.1:_ZN81_$LT$cxx_rust_cssparser_impl..ffi..ffi..Dimension$u20$as$u20$core..fmt..Debug$GT$3fmt17h15dca2206dc43adeE
libcxx-rust-cssparser.so.1:_ZN82_$LT$core..ops..range..RangeFull$u20$as$u20$nom..traits..NomRange$LT$usize$GT$$GT$8contains17h6a5fcbd7223e7ddaE
libcxx-rust-cssparser.so.1:_ZN84_$LT$cssparser..serializer..CssStringWriter$LT$W$GT$$u20$as$u20$core..fmt..Write$GT$9write_str7__CASES17hd8a0337385d4191aE
libcxx-rust-cssparser.so.1:_ZN84_$LT$cxx_rust_cssparser_impl..ffi..ffi..SelectorKind$u20$as$u20$core..fmt..Debug$GT$3fmt17hccf963f3d95fb35aE
libcxx-rust-cssparser.so.1:_ZN85_$LT$selectors..parser.._..InternalBitFlags$u20$as$u20$core..str..traits..FromStr$GT$8from_str17h463d6f4819494dc6E
libcxx-rust-cssparser.so.1:_ZN85_$LT$selectors..parser.._..InternalBitFlags$u20$as$u20$core..str..traits..FromStr$GT$8from_str17h4d840bc533157025E
libcxx-rust-cssparser.so.1:_ZN86_$LT$cxx_rust_cssparser_impl..parseerror..ParseError$u20$as$u20$core..fmt..Display$GT$3fmt17hd44dc1a8e2821a8bE
libcxx-rust-cssparser.so.1:_ZN86_$LT$selectors..visitor.._..InternalBitFlags$u20$as$u20$core..str..traits..FromStr$GT$8from_str17h07c5d55a4aeddfc3E
libcxx-rust-cssparser.so.1:_ZN87_$LT$$RF$$u5b$u8$u5d$$u20$as$u20$nom..traits..FindSubstring$LT$$RF$$u5b$u8$u5d$$GT$$GT$14find_substring17hda17196dcecb4495E
libcxx-rust-cssparser.so.1:_ZN87_$LT$selectors..matching.._..InternalBitFlags$u20$as$u20$core..str..traits..FromStr$GT$8from_str17ha02c26e5da0d0000E
libcxx-rust-cssparser.so.1:_ZN8bitflags6traits59_$LT$impl$u20$bitflags..parser..ParseHex$u20$for$u20$i8$GT$9parse_hex17hfd6d0d4cc6c13413E
libcxx-rust-cssparser.so.1:_ZN8bitflags6traits59_$LT$impl$u20$bitflags..parser..ParseHex$u20$for$u20$u8$GT$9parse_hex17h94958bc2f190f43eE
libcxx-rust-cssparser.so.1:_ZN8bitflags6traits60_$LT$impl$u20$bitflags..parser..ParseHex$u20$for$u20$i16$GT$9parse_hex17hc430de40f77faeddE
libcxx-rust-cssparser.so.1:_ZN8bitflags6traits60_$LT$impl$u20$bitflags..parser..ParseHex$u20$for$u20$i32$GT$9parse_hex17h0b837dc5e73078bbE
libcxx-rust-cssparser.so.1:_ZN8bitflags6traits60_$LT$impl$u20$bitflags..parser..ParseHex$u20$for$u20$i64$GT$9parse_hex17h81b89150c568d8eaE
libcxx-rust-cssparser.so.1:_ZN8bitflags6traits60_$LT$impl$u20$bitflags..parser..ParseHex$u20$for$u20$u16$GT$9parse_hex17h4a22806a969c345fE
libcxx-rust-cssparser.so.1:_ZN8bitflags6traits60_$LT$impl$u20$bitflags..parser..ParseHex$u20$for$u20$u32$GT$9parse_hex17h306a952861603724E
libcxx-rust-cssparser.so.1:_ZN8bitflags6traits60_$LT$impl$u20$bitflags..parser..ParseHex$u20$for$u20$u64$GT$9parse_hex17h276f07700e1ac14cE
libcxx-rust-cssparser.so.1:_ZN8bitflags6traits61_$LT$impl$u20$bitflags..parser..ParseHex$u20$for$u20$i128$GT$9parse_hex17h980614b53b27a4f3E
libcxx-rust-cssparser.so.1:_ZN8bitflags6traits61_$LT$impl$u20$bitflags..parser..ParseHex$u20$for$u20$u128$GT$9parse_hex17h01b6cf4a1fb1cf13E
libcxx-rust-cssparser.so.1:_ZN8bitflags6traits62_$LT$impl$u20$bitflags..parser..ParseHex$u20$for$u20$isize$GT$9parse_hex17hcac264ed7978273bE
libcxx-rust-cssparser.so.1:_ZN8bitflags6traits62_$LT$impl$u20$bitflags..parser..ParseHex$u20$for$u20$usize$GT$9parse_hex17hcef49b5b694738d1E
libcxx-rust-cssparser.so.1:_ZN91_$LT$core..ops..range..Range$LT$usize$GT$$u20$as$u20$nom..traits..NomRange$LT$usize$GT$$GT$12bounded_iter17h2e09acf02a6d6f1bE
libcxx-rust-cssparser.so.1:_ZN91_$LT$core..ops..range..Range$LT$usize$GT$$u20$as$u20$nom..traits..NomRange$LT$usize$GT$$GT$15saturating_iter17h46c132917a272032E
libcxx-rust-cssparser.so.1:_ZN91_$LT$core..ops..range..Range$LT$usize$GT$$u20$as$u20$nom..traits..NomRange$LT$usize$GT$$GT$8contains17h8233db72a95368efE
libcxx-rust-cssparser.so.1:_ZN92_$LT$cxx_rust_cssparser_impl..value..Value$u20$as$u20$core..convert..From$LT$$RF$str$GT$$GT$4from17h88e98ac7195bed93E
libcxx-rust-cssparser.so.1:_ZN93_$LT$core..ops..range..RangeTo$LT$usize$GT$$u20$as$u20$nom..traits..NomRange$LT$usize$GT$$GT$12bounded_iter17h6dc510bbe18d94f9E
libcxx-rust-cssparser.so.1:_ZN93_$LT$core..ops..range..RangeTo$LT$usize$GT$$u20$as$u20$nom..traits..NomRange$LT$usize$GT$$GT$15saturating_iter17h66fa98f9ce39b77fE
libcxx-rust-cssparser.so.1:_ZN93_$LT$core..ops..range..RangeTo$LT$usize$GT$$u20$as$u20$nom..traits..NomRange$LT$usize$GT$$GT$8contains17h66b6506acf19ab23E
libcxx-rust-cssparser.so.1:_ZN95_$LT$core..ops..range..RangeFrom$LT$usize$GT$$u20$as$u20$nom..traits..NomRange$LT$usize$GT$$GT$8contains17h5630bc827a990f05E
libcxx-rust-cssparser.so.1:_ZN95_$LT$cxx_rust_cssparser_impl..details..identifier..Identifier$u20$as$u20$core..fmt..Display$GT$3fmt17h4d73fbc47f174960E
libcxx-rust-cssparser.so.1:_ZN99_$LT$cxx_rust_cssparser_impl..details..property..syntax..DataType$u20$as$u20$core..fmt..Display$GT$3fmt17h50d8d3457279c32eE
libcxx-rust-cssparser.so.1:_ZN9cssparser10StyleSheet11parseStringERKNSt7__cxx1112basic_stringIcSt11char_traitsIcESaIcEEE
libcxx-rust-cssparser.so.1:_ZN9cssparser10StyleSheet5parseEv
libcxx-rust-cssparser.so.1:_ZN9cssparser10StyleSheet6importERKNSt10filesystem7__cxx114pathE
libcxx-rust-cssparser.so.1:_ZN9cssparser10StyleSheet7Private6updateEv
libcxx-rust-cssparser.so.1:_ZN9cssparser10StyleSheetC1ERKNSt10filesystem7__cxx114pathE
libcxx-rust-cssparser.so.1:_ZN9cssparser10StyleSheetC2ERKNSt10filesystem7__cxx114pathE
libcxx-rust-cssparser.so.1:_ZN9cssparser10StyleSheetD1Ev
libcxx-rust-cssparser.so.1:_ZN9cssparser10StyleSheetD2Ev
libcxx-rust-cssparser.so.1:_ZN9cssparser10serializer10hex_escape10HEX_DIGITS17h0701ec8ddac15bb2E
libcxx-rust-cssparser.so.1:_ZN9cssparser10serializer14serialize_name7__CASES17h25c580188e37ee78E
libcxx-rust-cssparser.so.1:_ZN9cssparser10serializer22serialize_unquoted_url7__CASES17h7c2e3bd66b70bb39E
libcxx-rust-cssparser.so.1:_ZN9cssparser12SelectorPart8fromRustERKNS_4rust12SelectorPartE
libcxx-rust-cssparser.so.1:_ZN9cssparser12SelectorPartC1ENS0_4KindERKNS_5ValueESt8optionalINS_14AttributeMatchEE
libcxx-rust-cssparser.so.1:_ZN9cssparser12SelectorPartC1Ev
libcxx-rust-cssparser.so.1:_ZN9cssparser12SelectorPartC2ENS0_4KindERKNS_5ValueESt8optionalINS_14AttributeMatchEE
libcxx-rust-cssparser.so.1:_ZN9cssparser12SelectorPartC2Ev
libcxx-rust-cssparser.so.1:_ZN9cssparser14AttributeMatchC1ERKNSt7__cxx1112basic_stringIcSt11char_traitsIcESaIcEEENS0_8OperatorERKNS_5ValueE
libcxx-rust-cssparser.so.1:_ZN9cssparser14AttributeMatchC2ERKNSt7__cxx1112basic_stringIcSt11char_traitsIcESaIcEEENS0_8OperatorERKNS_5ValueE
libcxx-rust-cssparser.so.1:_ZN9cssparser22rules_and_declarations15parse_important17hbc33532c1d8436ffE
libcxx-rust-cssparser.so.1:_ZN9cssparser22rules_and_declarations28looks_like_a_custom_property17hc1c4689daed56bdcE
libcxx-rust-cssparser.so.1:_ZN9cssparser3nth9parse_nth17hea848e2bd61a33afE
libcxx-rust-cssparser.so.1:_ZN9cssparser4Rule8fromRustERKNS_4rust9StyleRuleE
libcxx-rust-cssparser.so.1:_ZN9cssparser4RuleC1ERKNS_8SelectorERKSt6vectorINS_8PropertyESaIS5_EE
libcxx-rust-cssparser.so.1:_ZN9cssparser4RuleC1Ev
libcxx-rust-cssparser.so.1:_ZN9cssparser4RuleC2ERKNS_8SelectorERKSt6vectorINS_8PropertyESaIS5_EE
libcxx-rust-cssparser.so.1:_ZN9cssparser4RuleC2Ev
libcxx-rust-cssparser.so.1:_ZN9cssparser5Color15CustomColorData8fromRustERKNS_4rust11CustomColorE
libcxx-rust-cssparser.so.1:_ZN9cssparser5Color15CustomColorDataC1ERKNSt7__cxx1112basic_stringIcSt11char_traitsIcESaIcEEERKSt6vectorIS7_SaIS7_EE
libcxx-rust-cssparser.so.1:_ZN9cssparser5Color15CustomColorDataC1Ev
libcxx-rust-cssparser.so.1:_ZN9cssparser5Color15CustomColorDataC2ERKNSt7__cxx1112basic_stringIcSt11char_traitsIcESaIcEEERKSt6vectorIS7_SaIS7_EE
libcxx-rust-cssparser.so.1:_ZN9cssparser5Color15CustomColorDataC2Ev
libcxx-rust-cssparser.so.1:_ZN9cssparser5Color16MixOperationData8fromRustERKNS_4rust23MixColorOperationValuesE
libcxx-rust-cssparser.so.1:_ZN9cssparser5Color16MixOperationDataC1ERKSt10shared_ptrINS0_5ColorEEf
libcxx-rust-cssparser.so.1:_ZN9cssparser5Color16MixOperationDataC1Ev
libcxx-rust-cssparser.so.1:_ZN9cssparser5Color16MixOperationDataC2ERKSt10shared_ptrINS0_5ColorEEf
libcxx-rust-cssparser.so.1:_ZN9cssparser5Color16MixOperationDataC2Ev
libcxx-rust-cssparser.so.1:_ZN9cssparser5Color16SetOperationData8fromRustERKNS_4rust23SetColorOperationValuesE
libcxx-rust-cssparser.so.1:_ZN9cssparser5Color16SetOperationDataC1ESt8optionalIhES3_S3_S3_
libcxx-rust-cssparser.so.1:_ZN9cssparser5Color16SetOperationDataC1Ev
libcxx-rust-cssparser.so.1:_ZN9cssparser5Color16SetOperationDataC2ESt8optionalIhES3_S3_S3_
libcxx-rust-cssparser.so.1:_ZN9cssparser5Color16SetOperationDataC2Ev
libcxx-rust-cssparser.so.1:_ZN9cssparser5Color17ModifiedColorData8fromRustERKNS_4rust13ModifiedColorE
libcxx-rust-cssparser.so.1:_ZN9cssparser5Color17ModifiedColorDataC1Ev
libcxx-rust-cssparser.so.1:_ZN9cssparser5Color17ModifiedColorDataC2Ev
libcxx-rust-cssparser.so.1:_ZN9cssparser5Color5Color8fromRustERKN4rust10cxxbridge13BoxINS_4rust5ColorEEE
libcxx-rust-cssparser.so.1:_ZN9cssparser5Color5ColorC1Ev
libcxx-rust-cssparser.so.1:_ZN9cssparser5Color5ColorC2Ev
libcxx-rust-cssparser.so.1:_ZN9cssparser5Color8RgbaData8fromRustENS_4rust4RgbaE
libcxx-rust-cssparser.so.1:_ZN9cssparser5Color8RgbaDataC1Ehhhh
libcxx-rust-cssparser.so.1:_ZN9cssparser5Color8RgbaDataC1Ev
libcxx-rust-cssparser.so.1:_ZN9cssparser5Color8RgbaDataC2Ehhhh
libcxx-rust-cssparser.so.1:_ZN9cssparser5Color8RgbaDataC2Ev
libcxx-rust-cssparser.so.1:_ZN9cssparser5Value8fromRustERKNS_4rust5ValueE
libcxx-rust-cssparser.so.1:_ZN9cssparser5ValueC1Ev
libcxx-rust-cssparser.so.1:_ZN9cssparser5ValueC2Ev
libcxx-rust-cssparser.so.1:_ZN9cssparser5color12named_colors3get17h0a954a43b9a2da21E
libcxx-rust-cssparser.so.1:_ZN9cssparser5color20PredefinedColorSpace5parse17h84492f8e13eb979eE
libcxx-rust-cssparser.so.1:_ZN9cssparser5color3MAP17heee1a240bbc06404E
libcxx-rust-cssparser.so.1:_ZN9cssparser6macros32_cssparser_internal_to_lowercase20make_ascii_lowercase17hdc2cb9fd1243168fE
libcxx-rust-cssparser.so.1:_ZN9cssparser6parser26consume_until_end_of_block17hd72f1727de5dae25E
libcxx-rust-cssparser.so.1:_ZN9cssparser6parser6Parser12current_line17h74756647a6cbdea4E
libcxx-rust-cssparser.so.1:_ZN9cssparser6parser6Parser25next_including_whitespace17hbba0a72c72e06791E
libcxx-rust-cssparser.so.1:_ZN9cssparser6parser6Parser38next_including_whitespace_and_comments17haf7cfc9ac65052a6E
libcxx-rust-cssparser.so.1:_ZN9cssparser6parser6Parser4next17h7ea036fb8066e1b9E
libcxx-rust-cssparser.so.1:_ZN9cssparser8Property8fromRustERKNS_4rust8PropertyE
libcxx-rust-cssparser.so.1:_ZN9cssparser8PropertyC1ERKNSt7__cxx1112basic_stringIcSt11char_traitsIcESaIcEEERKSt6vectorINS_5ValueESaISA_EE
libcxx-rust-cssparser.so.1:_ZN9cssparser8PropertyC2ERKNSt7__cxx1112basic_stringIcSt11char_traitsIcESaIcEEERKSt6vectorINS_5ValueESaISA_EE
libcxx-rust-cssparser.so.1:_ZN9cssparser8Selector8fromRustERKNS_4rust8SelectorE
libcxx-rust-cssparser.so.1:_ZN9cssparser8SelectorC1ERKSt6vectorINS_12SelectorPartESaIS2_EE
libcxx-rust-cssparser.so.1:_ZN9cssparser8SelectorC1Ev
libcxx-rust-cssparser.so.1:_ZN9cssparser8SelectorC2ERKSt6vectorINS_12SelectorPartESaIS2_EE
libcxx-rust-cssparser.so.1:_ZN9cssparser8SelectorC2Ev
libcxx-rust-cssparser.so.1:_ZN9cssparser9Dimension8fromRustENS_4rust9DimensionE
libcxx-rust-cssparser.so.1:_ZN9cssparser9DimensionC1ENS0_4UnitEf
libcxx-rust-cssparser.so.1:_ZN9cssparser9DimensionC1Ev
libcxx-rust-cssparser.so.1:_ZN9cssparser9DimensionC2ENS0_4UnitEf
libcxx-rust-cssparser.so.1:_ZN9cssparser9DimensionC2Ev
libcxx-rust-cssparser.so.1:_ZN9cssparser9tokenizer10next_token17hd128161cf0d2f6fcE
libcxx-rust-cssparser.so.1:_ZN9cssparser9tokenizer9Tokenizer15skip_whitespace17h51544fcaf39ecfaeE
libcxx-rust-cssparser.so.1:_ZN9cssparser9tokenizer9Tokenizer16skip_cdc_and_cdo17h3e57e88b3f1a3148E
libcxx-rust-cssparser.so.1:_ZN9hashbrown3raw21RawTable$LT$T$C$A$GT$14reserve_rehash17h5ba007867fa34f8eE
libcxx-rust-cssparser.so.1:_ZN9hashbrown3raw21RawTable$LT$T$C$A$GT$14reserve_rehash17h74ea6c40885345adE
libcxx-rust-cssparser.so.1:_ZN9selectors15nth_index_cache18NthIndexCacheInner6insert17heb25198724503118E
libcxx-rust-cssparser.so.1:_ZN9selectors15nth_index_cache18NthIndexCacheInner6lookup17hb4534c0966a8d490E
libcxx-rust-cssparser.so.1:_ZN9selectors6parser14AttributeFlags19to_case_sensitivity17h64e8db5be7234d9cE
libcxx-rust-cssparser.so.1:_ZN9selectors6parser18to_ascii_lowercase17h1147f0e85105364eE
libcxx-rust-cssparser.so.1:_ZN9selectors6parser1_86_$LT$impl$u20$core..fmt..Octal$u20$for$u20$selectors..parser..SelectorParsingState$GT$3fmt17h6a2e5a0de785bd12E
libcxx-rust-cssparser.so.1:_ZN9selectors6parser1_87_$LT$impl$u20$core..fmt..Binary$u20$for$u20$selectors..parser..SelectorParsingState$GT$3fmt17hadce72a2f63831edE
libcxx-rust-cssparser.so.1:_ZN9selectors6parser1_87_$LT$impl$u20$core..fmt..Octal$u20$for$u20$selectors..parser..CombinatorComposition$GT$3fmt17h4dc89bb12311f880E
libcxx-rust-cssparser.so.1:_ZN9selectors6parser1_88_$LT$impl$u20$core..fmt..Binary$u20$for$u20$selectors..parser..CombinatorComposition$GT$3fmt17h5ab552d065dfba7dE
libcxx-rust-cssparser.so.1:_ZN9selectors6parser1_89_$LT$impl$u20$core..fmt..LowerHex$u20$for$u20$selectors..parser..SelectorParsingState$GT$3fmt17h200be8c55437517bE
libcxx-rust-cssparser.so.1:_ZN9selectors6parser1_89_$LT$impl$u20$core..fmt..UpperHex$u20$for$u20$selectors..parser..SelectorParsingState$GT$3fmt17hb83984603fb318fdE
libcxx-rust-cssparser.so.1:_ZN9selectors6parser1_90_$LT$impl$u20$core..fmt..LowerHex$u20$for$u20$selectors..parser..CombinatorComposition$GT$3fmt17hf7422821fba86f68E
libcxx-rust-cssparser.so.1:_ZN9selectors6parser1_90_$LT$impl$u20$core..fmt..UpperHex$u20$for$u20$selectors..parser..CombinatorComposition$GT$3fmt17h80440ae4f874d306E
libcxx-rust-cssparser.so.1:_ZN9selectors6parser20Selector$LT$Impl$GT$11new_invalid16check_for_parent17h4339c33548fc1cd5E
libcxx-rust-cssparser.so.1:_ZN9selectors6parser21parse_attribute_flags17hf3f3bae7037435b7E
libcxx-rust-cssparser.so.1:_ZN9selectors6parser22is_css2_pseudo_element17hfe428c7925cb7d88E
libcxx-rust-cssparser.so.1:_ZN9selectors7builder1_80_$LT$impl$u20$core..fmt..Octal$u20$for$u20$selectors..builder..SelectorFlags$GT$3fmt17h4e412af747a539dcE
libcxx-rust-cssparser.so.1:_ZN9selectors7builder1_81_$LT$impl$u20$core..fmt..Binary$u20$for$u20$selectors..builder..SelectorFlags$GT$3fmt17hfd837af933df6199E
libcxx-rust-cssparser.so.1:_ZN9selectors7builder1_83_$LT$impl$u20$core..fmt..LowerHex$u20$for$u20$selectors..builder..SelectorFlags$GT$3fmt17habe80a619238c203E
libcxx-rust-cssparser.so.1:_ZN9selectors7builder1_83_$LT$impl$u20$core..fmt..UpperHex$u20$for$u20$selectors..builder..SelectorFlags$GT$3fmt17h12187b36d6c0e51dE
libcxx-rust-cssparser.so.1:_ZN9selectors7visitor1_83_$LT$impl$u20$core..fmt..Octal$u20$for$u20$selectors..visitor..SelectorListKind$GT$3fmt17h12d60fdb38e9dc4eE
libcxx-rust-cssparser.so.1:_ZN9selectors7visitor1_84_$LT$impl$u20$core..fmt..Binary$u20$for$u20$selectors..visitor..SelectorListKind$GT$3fmt17hf14a81747fb595d1E
libcxx-rust-cssparser.so.1:_ZN9selectors7visitor1_86_$LT$impl$u20$core..fmt..LowerHex$u20$for$u20$selectors..visitor..SelectorListKind$GT$3fmt17h76496e448a606652E
libcxx-rust-cssparser.so.1:_ZN9selectors7visitor1_86_$LT$impl$u20$core..fmt..UpperHex$u20$for$u20$selectors..visitor..SelectorListKind$GT$3fmt17hde1529df63d588b5E
libcxx-rust-cssparser.so.1:_ZN9selectors8matching1_88_$LT$impl$u20$core..fmt..Octal$u20$for$u20$selectors..matching..ElementSelectorFlags$GT$3fmt17h0a94b1f7bef0d448E
libcxx-rust-cssparser.so.1:_ZN9selectors8matching1_89_$LT$impl$u20$core..fmt..Binary$u20$for$u20$selectors..matching..ElementSelectorFlags$GT$3fmt17h61184189ad359d07E
libcxx-rust-cssparser.so.1:_ZN9selectors8matching1_91_$LT$impl$u20$core..fmt..LowerHex$u20$for$u20$selectors..matching..ElementSelectorFlags$GT$3fmt17hb789617a58e89004E
libcxx-rust-cssparser.so.1:_ZN9selectors8matching1_91_$LT$impl$u20$core..fmt..UpperHex$u20$for$u20$selectors..matching..ElementSelectorFlags$GT$3fmt17haa617c09e8e37527E
libcxx-rust-cssparser.so.1:_ZN9selectors8matching38RECOMMENDED_SELECTOR_BLOOM_FILTER_SIZE17hb25ff9f83e45bd8eE
libcxx-rust-cssparser.so.1:_ZN9servo_arc12Arc$LT$T$GT$9drop_slow17h28705e29c6d856d1E
libcxx-rust-cssparser.so.1:_ZN9servo_arc12Arc$LT$T$GT$9drop_slow17h730f2560ab3227a9E
libcxx-rust-cssparser.so.1:_ZN9servo_arc12Arc$LT$T$GT$9drop_slow17hddd60203c215aa90E
libcxx-rust-cssparser.so.1:_ZN9servo_arc12Arc$LT$T$GT$9drop_slow17hea387e329355ce78E
libcxx-rust-cssparser.so.1:_ZNK4rust10cxxbridge13Str3endEv
libcxx-rust-cssparser.so.1:_ZNK4rust10cxxbridge13Str4cendEv
libcxx-rust-cssparser.so.1:_ZNK4rust10cxxbridge13Str4dataEv
libcxx-rust-cssparser.so.1:_ZNK4rust10cxxbridge13Str4sizeEv
libcxx-rust-cssparser.so.1:_ZNK4rust10cxxbridge13Str5beginEv
libcxx-rust-cssparser.so.1:_ZNK4rust10cxxbridge13Str5emptyEv
libcxx-rust-cssparser.so.1:_ZNK4rust10cxxbridge13Str6cbeginEv
libcxx-rust-cssparser.so.1:_ZNK4rust10cxxbridge13Str6lengthEv
libcxx-rust-cssparser.so.1:_ZNK4rust10cxxbridge13StrcvNSt7__cxx1112basic_stringIcSt11char_traitsIcESaIcEEEEv
libcxx-rust-cssparser.so.1:_ZNK4rust10cxxbridge13StreqERKS1_
libcxx-rust-cssparser.so.1:_ZNK4rust10cxxbridge13StrgeERKS1_
libcxx-rust-cssparser.so.1:_ZNK4rust10cxxbridge13StrgtERKS1_
libcxx-rust-cssparser.so.1:_ZNK4rust10cxxbridge13StrleERKS1_
libcxx-rust-cssparser.so.1:_ZNK4rust10cxxbridge13StrltERKS1_
libcxx-rust-cssparser.so.1:_ZNK4rust10cxxbridge13StrneERKS1_
libcxx-rust-cssparser.so.1:_ZNK4rust10cxxbridge13VecINS0_3StrEE4dataEv
libcxx-rust-cssparser.so.1:_ZNK4rust10cxxbridge13VecINS0_3StrEE4sizeEv
libcxx-rust-cssparser.so.1:_ZNK4rust10cxxbridge13VecINS0_3StrEE8capacityEv
libcxx-rust-cssparser.so.1:_ZNK4rust10cxxbridge13VecINS0_6StringEE4dataEv
libcxx-rust-cssparser.so.1:_ZNK4rust10cxxbridge13VecINS0_6StringEE4sizeEv
libcxx-rust-cssparser.so.1:_ZNK4rust10cxxbridge13VecINS0_6StringEE8capacityEv
libcxx-rust-cssparser.so.1:_ZNK4rust10cxxbridge13VecINS0_6detail12isize_ignoreEE4dataEv
libcxx-rust-cssparser.so.1:_ZNK4rust10cxxbridge13VecINS0_6detail12isize_ignoreEE4sizeEv
libcxx-rust-cssparser.so.1:_ZNK4rust10cxxbridge13VecINS0_6detail12isize_ignoreEE8capacityEv
libcxx-rust-cssparser.so.1:_ZNK4rust10cxxbridge13VecINS0_6detail12usize_ignoreEE4dataEv
libcxx-rust-cssparser.so.1:_ZNK4rust10cxxbridge13VecINS0_6detail12usize_ignoreEE4sizeEv
libcxx-rust-cssparser.so.1:_ZNK4rust10cxxbridge13VecINS0_6detail12usize_ignoreEE8capacityEv
libcxx-rust-cssparser.so.1:_ZNK4rust10cxxbridge13VecIaE4dataEv
libcxx-rust-cssparser.so.1:_ZNK4rust10cxxbridge13VecIaE4sizeEv
libcxx-rust-cssparser.so.1:_ZNK4rust10cxxbridge13VecIaE8capacityEv
libcxx-rust-cssparser.so.1:_ZNK4rust10cxxbridge13VecIbE4dataEv
libcxx-rust-cssparser.so.1:_ZNK4rust10cxxbridge13VecIbE4sizeEv
libcxx-rust-cssparser.so.1:_ZNK4rust10cxxbridge13VecIbE8capacityEv
libcxx-rust-cssparser.so.1:_ZNK4rust10cxxbridge13VecIcE4dataEv
libcxx-rust-cssparser.so.1:_ZNK4rust10cxxbridge13VecIcE4sizeEv
libcxx-rust-cssparser.so.1:_ZNK4rust10cxxbridge13VecIcE8capacityEv
libcxx-rust-cssparser.so.1:_ZNK4rust10cxxbridge13VecIdE4dataEv
libcxx-rust-cssparser.so.1:_ZNK4rust10cxxbridge13VecIdE4sizeEv
libcxx-rust-cssparser.so.1:_ZNK4rust10cxxbridge13VecIdE8capacityEv
libcxx-rust-cssparser.so.1:_ZNK4rust10cxxbridge13VecIfE4dataEv
libcxx-rust-cssparser.so.1:_ZNK4rust10cxxbridge13VecIfE4sizeEv
libcxx-rust-cssparser.so.1:_ZNK4rust10cxxbridge13VecIfE8capacityEv
libcxx-rust-cssparser.so.1:_ZNK4rust10cxxbridge13VecIhE4dataEv
libcxx-rust-cssparser.so.1:_ZNK4rust10cxxbridge13VecIhE4sizeEv
libcxx-rust-cssparser.so.1:_ZNK4rust10cxxbridge13VecIhE8capacityEv
libcxx-rust-cssparser.so.1:_ZNK4rust10cxxbridge13VecIiE4dataEv
libcxx-rust-cssparser.so.1:_ZNK4rust10cxxbridge13VecIiE4sizeEv
libcxx-rust-cssparser.so.1:_ZNK4rust10cxxbridge13VecIiE8capacityEv
libcxx-rust-cssparser.so.1:_ZNK4rust10cxxbridge13VecIjE4dataEv
libcxx-rust-cssparser.so.1:_ZNK4rust10cxxbridge13VecIjE4sizeEv
libcxx-rust-cssparser.so.1:_ZNK4rust10cxxbridge13VecIjE8capacityEv
libcxx-rust-cssparser.so.1:_ZNK4rust10cxxbridge13VecIlE4dataEv
libcxx-rust-cssparser.so.1:_ZNK4rust10cxxbridge13VecIlE4sizeEv
libcxx-rust-cssparser.so.1:_ZNK4rust10cxxbridge13VecIlE8capacityEv
libcxx-rust-cssparser.so.1:_ZNK4rust10cxxbridge13VecImE4dataEv
libcxx-rust-cssparser.so.1:_ZNK4rust10cxxbridge13VecImE4sizeEv
libcxx-rust-cssparser.so.1:_ZNK4rust10cxxbridge13VecImE8capacityEv
libcxx-rust-cssparser.so.1:_ZNK4rust10cxxbridge13VecIsE4dataEv
libcxx-rust-cssparser.so.1:_ZNK4rust10cxxbridge13VecIsE4sizeEv
libcxx-rust-cssparser.so.1:_ZNK4rust10cxxbridge13VecIsE8capacityEv
libcxx-rust-cssparser.so.1:_ZNK4rust10cxxbridge13VecItE4dataEv
libcxx-rust-cssparser.so.1:_ZNK4rust10cxxbridge13VecItE4sizeEv
libcxx-rust-cssparser.so.1:_ZNK4rust10cxxbridge13VecItE8capacityEv
libcxx-rust-cssparser.so.1:_ZNK4rust10cxxbridge15Error4whatEv
libcxx-rust-cssparser.so.1:_ZNK4rust10cxxbridge16String3endEv
libcxx-rust-cssparser.so.1:_ZNK4rust10cxxbridge16String4cendEv
libcxx-rust-cssparser.so.1:_ZNK4rust10cxxbridge16String4dataEv
libcxx-rust-cssparser.so.1:_ZNK4rust10cxxbridge16String4sizeEv
libcxx-rust-cssparser.so.1:_ZNK4rust10cxxbridge16String5beginEv
libcxx-rust-cssparser.so.1:_ZNK4rust10cxxbridge16String5emptyEv
libcxx-rust-cssparser.so.1:_ZNK4rust10cxxbridge16String6cbeginEv
libcxx-rust-cssparser.so.1:_ZNK4rust10cxxbridge16String6lengthEv
libcxx-rust-cssparser.so.1:_ZNK4rust10cxxbridge16String8capacityEv
libcxx-rust-cssparser.so.1:_ZNK4rust10cxxbridge16StringcvNSt7__cxx1112basic_stringIcSt11char_traitsIcESaIcEEEEv
libcxx-rust-cssparser.so.1:_ZNK4rust10cxxbridge16StringeqERKS1_
libcxx-rust-cssparser.so.1:_ZNK4rust10cxxbridge16StringgeERKS1_
libcxx-rust-cssparser.so.1:_ZNK4rust10cxxbridge16StringgtERKS1_
libcxx-rust-cssparser.so.1:_ZNK4rust10cxxbridge16StringleERKS1_
libcxx-rust-cssparser.so.1:_ZNK4rust10cxxbridge16StringltERKS1_
libcxx-rust-cssparser.so.1:_ZNK4rust10cxxbridge16StringneERKS1_
libcxx-rust-cssparser.so.1:_ZNK9cssparser10StyleSheet5pathsB5cxx11Ev
libcxx-rust-cssparser.so.1:_ZNK9cssparser10StyleSheet5rulesEv
libcxx-rust-cssparser.so.1:_ZNK9cssparser10StyleSheet6errorsEv
libcxx-rust-cssparser.so.1:_ZNK9cssparser12SelectorPart8toStringB5cxx11Ev
libcxx-rust-cssparser.so.1:_ZNK9cssparser5Color15CustomColorData8toStringB5cxx11Ev
libcxx-rust-cssparser.so.1:_ZNK9cssparser5Color16MixOperationData8toStringB5cxx11Ev
libcxx-rust-cssparser.so.1:_ZNK9cssparser5Color16SetOperationData8toStringB5cxx11Ev
libcxx-rust-cssparser.so.1:_ZNK9cssparser5Color17ModifiedColorData8toStringB5cxx11Ev
libcxx-rust-cssparser.so.1:_ZNK9cssparser5Color5Color8toStringB5cxx11Ev
libcxx-rust-cssparser.so.1:_ZNK9cssparser5Color8RgbaData8toStringB5cxx11Ev
libcxx-rust-cssparser.so.1:_ZNK9cssparser5Value8toStringB5cxx11Ev
libcxx-rust-cssparser.so.1:_ZNK9cssparser8Selector8toStringB5cxx11Ev
libcxx-rust-cssparser.so.1:_ZNK9cssparser9Dimension8toStringB5cxx11Ev
libcxx-rust-cssparser.so.1:_ZNR4rust10cxxbridge15ErroraSEOS1_
libcxx-rust-cssparser.so.1:_ZNR4rust10cxxbridge15ErroraSERKS1_
libcxx-rust-cssparser.so.1:_ZNR4rust10cxxbridge16StringaSEOS1_
libcxx-rust-cssparser.so.1:_ZNR4rust10cxxbridge16StringaSERKS1_
libcxx-rust-cssparser.so.1:_ZTIN4rust10cxxbridge15ErrorE
libcxx-rust-cssparser.so.1:_ZTSN4rust10cxxbridge15ErrorE
libcxx-rust-cssparser.so.1:_ZTVN4rust10cxxbridge15ErrorE
libcxx-rust-cssparser.so.1:cssparser$rust$cxxbridge1$194$Color$color_type
libcxx-rust-cssparser.so.1:cssparser$rust$cxxbridge1$194$Color$operator$alignof
libcxx-rust-cssparser.so.1:cssparser$rust$cxxbridge1$194$Color$operator$sizeof
libcxx-rust-cssparser.so.1:cssparser$rust$cxxbridge1$194$Color$to_custom
libcxx-rust-cssparser.so.1:cssparser$rust$cxxbridge1$194$Color$to_modified
libcxx-rust-cssparser.so.1:cssparser$rust$cxxbridge1$194$Color$to_rgba
libcxx-rust-cssparser.so.1:cssparser$rust$cxxbridge1$194$Color$to_string
libcxx-rust-cssparser.so.1:cssparser$rust$cxxbridge1$194$ColorOperation$operator$alignof
libcxx-rust-cssparser.so.1:cssparser$rust$cxxbridge1$194$ColorOperation$operator$sizeof
libcxx-rust-cssparser.so.1:cssparser$rust$cxxbridge1$194$Dimension$to_string
libcxx-rust-cssparser.so.1:cssparser$rust$cxxbridge1$194$ModifiedColor$color_value
libcxx-rust-cssparser.so.1:cssparser$rust$cxxbridge1$194$ModifiedColor$mix_values
libcxx-rust-cssparser.so.1:cssparser$rust$cxxbridge1$194$ModifiedColor$operation_type
libcxx-rust-cssparser.so.1:cssparser$rust$cxxbridge1$194$ModifiedColor$set_values
libcxx-rust-cssparser.so.1:cssparser$rust$cxxbridge1$194$Property$name
libcxx-rust-cssparser.so.1:cssparser$rust$cxxbridge1$194$Property$operator$alignof
libcxx-rust-cssparser.so.1:cssparser$rust$cxxbridge1$194$Property$operator$sizeof
libcxx-rust-cssparser.so.1:cssparser$rust$cxxbridge1$194$Property$values
libcxx-rust-cssparser.so.1:cssparser$rust$cxxbridge1$194$Selector$operator$alignof
libcxx-rust-cssparser.so.1:cssparser$rust$cxxbridge1$194$Selector$operator$sizeof
libcxx-rust-cssparser.so.1:cssparser$rust$cxxbridge1$194$Selector$parts
libcxx-rust-cssparser.so.1:cssparser$rust$cxxbridge1$194$SelectorPart$attribute_name
libcxx-rust-cssparser.so.1:cssparser$rust$cxxbridge1$194$SelectorPart$attribute_operator
libcxx-rust-cssparser.so.1:cssparser$rust$cxxbridge1$194$SelectorPart$attribute_value
libcxx-rust-cssparser.so.1:cssparser$rust$cxxbridge1$194$SelectorPart$kind
libcxx-rust-cssparser.so.1:cssparser$rust$cxxbridge1$194$SelectorPart$operator$alignof
libcxx-rust-cssparser.so.1:cssparser$rust$cxxbridge1$194$SelectorPart$operator$sizeof
libcxx-rust-cssparser.so.1:cssparser$rust$cxxbridge1$194$SelectorPart$value
libcxx-rust-cssparser.so.1:cssparser$rust$cxxbridge1$194$StyleRule$operator$alignof
libcxx-rust-cssparser.so.1:cssparser$rust$cxxbridge1$194$StyleRule$operator$sizeof
libcxx-rust-cssparser.so.1:cssparser$rust$cxxbridge1$194$StyleRule$properties
libcxx-rust-cssparser.so.1:cssparser$rust$cxxbridge1$194$StyleRule$selector
libcxx-rust-cssparser.so.1:cssparser$rust$cxxbridge1$194$StyleSheet$errors
libcxx-rust-cssparser.so.1:cssparser$rust$cxxbridge1$194$StyleSheet$import_file
libcxx-rust-cssparser.so.1:cssparser$rust$cxxbridge1$194$StyleSheet$operator$alignof
libcxx-rust-cssparser.so.1:cssparser$rust$cxxbridge1$194$StyleSheet$operator$sizeof
libcxx-rust-cssparser.so.1:cssparser$rust$cxxbridge1$194$StyleSheet$parse
libcxx-rust-cssparser.so.1:cssparser$rust$cxxbridge1$194$StyleSheet$parse_string
libcxx-rust-cssparser.so.1:cssparser$rust$cxxbridge1$194$StyleSheet$paths
libcxx-rust-cssparser.so.1:cssparser$rust$cxxbridge1$194$StyleSheet$rules
libcxx-rust-cssparser.so.1:cssparser$rust$cxxbridge1$194$Value$operator$alignof
libcxx-rust-cssparser.so.1:cssparser$rust$cxxbridge1$194$Value$operator$sizeof
libcxx-rust-cssparser.so.1:cssparser$rust$cxxbridge1$194$Value$to_color
libcxx-rust-cssparser.so.1:cssparser$rust$cxxbridge1$194$Value$to_dimension
libcxx-rust-cssparser.so.1:cssparser$rust$cxxbridge1$194$Value$to_image
libcxx-rust-cssparser.so.1:cssparser$rust$cxxbridge1$194$Value$to_integer
libcxx-rust-cssparser.so.1:cssparser$rust$cxxbridge1$194$Value$to_string
libcxx-rust-cssparser.so.1:cssparser$rust$cxxbridge1$194$Value$to_url
libcxx-rust-cssparser.so.1:cssparser$rust$cxxbridge1$194$Value$value_type
libcxx-rust-cssparser.so.1:cssparser$rust$cxxbridge1$194$create_stylesheet
libcxx-rust-cssparser.so.1:cxxbridge1$box$cssparser$rust$Color$alloc
libcxx-rust-cssparser.so.1:cxxbridge1$box$cssparser$rust$Color$dealloc
libcxx-rust-cssparser.so.1:cxxbridge1$box$cssparser$rust$Color$drop
libcxx-rust-cssparser.so.1:cxxbridge1$box$cssparser$rust$ColorOperation$alloc
libcxx-rust-cssparser.so.1:cxxbridge1$box$cssparser$rust$ColorOperation$dealloc
libcxx-rust-cssparser.so.1:cxxbridge1$box$cssparser$rust$ColorOperation$drop
libcxx-rust-cssparser.so.1:cxxbridge1$box$cssparser$rust$StyleSheet$alloc
libcxx-rust-cssparser.so.1:cxxbridge1$box$cssparser$rust$StyleSheet$dealloc
libcxx-rust-cssparser.so.1:cxxbridge1$box$cssparser$rust$StyleSheet$drop
libcxx-rust-cssparser.so.1:cxxbridge1$cxx_string$clear
libcxx-rust-cssparser.so.1:cxxbridge1$cxx_string$data
libcxx-rust-cssparser.so.1:cxxbridge1$cxx_string$destroy
libcxx-rust-cssparser.so.1:cxxbridge1$cxx_string$init
libcxx-rust-cssparser.so.1:cxxbridge1$cxx_string$length
libcxx-rust-cssparser.so.1:cxxbridge1$cxx_string$push
libcxx-rust-cssparser.so.1:cxxbridge1$cxx_string$reserve_total
libcxx-rust-cssparser.so.1:cxxbridge1$error
libcxx-rust-cssparser.so.1:cxxbridge1$exception
libcxx-rust-cssparser.so.1:cxxbridge1$rust_vec$bool$capacity
libcxx-rust-cssparser.so.1:cxxbridge1$rust_vec$bool$data
libcxx-rust-cssparser.so.1:cxxbridge1$rust_vec$bool$drop
libcxx-rust-cssparser.so.1:cxxbridge1$rust_vec$bool$len
libcxx-rust-cssparser.so.1:cxxbridge1$rust_vec$bool$new
libcxx-rust-cssparser.so.1:cxxbridge1$rust_vec$bool$reserve_total
libcxx-rust-cssparser.so.1:cxxbridge1$rust_vec$bool$set_len
libcxx-rust-cssparser.so.1:cxxbridge1$rust_vec$bool$truncate
libcxx-rust-cssparser.so.1:cxxbridge1$rust_vec$char$capacity
libcxx-rust-cssparser.so.1:cxxbridge1$rust_vec$char$data
libcxx-rust-cssparser.so.1:cxxbridge1$rust_vec$char$drop
libcxx-rust-cssparser.so.1:cxxbridge1$rust_vec$char$len
libcxx-rust-cssparser.so.1:cxxbridge1$rust_vec$char$new
libcxx-rust-cssparser.so.1:cxxbridge1$rust_vec$char$reserve_total
libcxx-rust-cssparser.so.1:cxxbridge1$rust_vec$char$set_len
libcxx-rust-cssparser.so.1:cxxbridge1$rust_vec$char$truncate
libcxx-rust-cssparser.so.1:cxxbridge1$rust_vec$cssparser$rust$Property$capacity
libcxx-rust-cssparser.so.1:cxxbridge1$rust_vec$cssparser$rust$Property$data
libcxx-rust-cssparser.so.1:cxxbridge1$rust_vec$cssparser$rust$Property$drop
libcxx-rust-cssparser.so.1:cxxbridge1$rust_vec$cssparser$rust$Property$len
libcxx-rust-cssparser.so.1:cxxbridge1$rust_vec$cssparser$rust$Property$new
libcxx-rust-cssparser.so.1:cxxbridge1$rust_vec$cssparser$rust$Property$reserve_total
libcxx-rust-cssparser.so.1:cxxbridge1$rust_vec$cssparser$rust$Property$set_len
libcxx-rust-cssparser.so.1:cxxbridge1$rust_vec$cssparser$rust$Property$truncate
libcxx-rust-cssparser.so.1:cxxbridge1$rust_vec$cssparser$rust$SelectorPart$capacity
libcxx-rust-cssparser.so.1:cxxbridge1$rust_vec$cssparser$rust$SelectorPart$data
libcxx-rust-cssparser.so.1:cxxbridge1$rust_vec$cssparser$rust$SelectorPart$drop
libcxx-rust-cssparser.so.1:cxxbridge1$rust_vec$cssparser$rust$SelectorPart$len
libcxx-rust-cssparser.so.1:cxxbridge1$rust_vec$cssparser$rust$SelectorPart$new
libcxx-rust-cssparser.so.1:cxxbridge1$rust_vec$cssparser$rust$SelectorPart$reserve_total
libcxx-rust-cssparser.so.1:cxxbridge1$rust_vec$cssparser$rust$SelectorPart$set_len
libcxx-rust-cssparser.so.1:cxxbridge1$rust_vec$cssparser$rust$SelectorPart$truncate
libcxx-rust-cssparser.so.1:cxxbridge1$rust_vec$cssparser$rust$StyleRule$capacity
libcxx-rust-cssparser.so.1:cxxbridge1$rust_vec$cssparser$rust$StyleRule$data
libcxx-rust-cssparser.so.1:cxxbridge1$rust_vec$cssparser$rust$StyleRule$drop
libcxx-rust-cssparser.so.1:cxxbridge1$rust_vec$cssparser$rust$StyleRule$len
libcxx-rust-cssparser.so.1:cxxbridge1$rust_vec$cssparser$rust$StyleRule$new
libcxx-rust-cssparser.so.1:cxxbridge1$rust_vec$cssparser$rust$StyleRule$reserve_total
libcxx-rust-cssparser.so.1:cxxbridge1$rust_vec$cssparser$rust$StyleRule$set_len
libcxx-rust-cssparser.so.1:cxxbridge1$rust_vec$cssparser$rust$StyleRule$truncate
libcxx-rust-cssparser.so.1:cxxbridge1$rust_vec$cssparser$rust$StyleSheetError$capacity
libcxx-rust-cssparser.so.1:cxxbridge1$rust_vec$cssparser$rust$StyleSheetError$data
libcxx-rust-cssparser.so.1:cxxbridge1$rust_vec$cssparser$rust$StyleSheetError$drop
libcxx-rust-cssparser.so.1:cxxbridge1$rust_vec$cssparser$rust$StyleSheetError$len
libcxx-rust-cssparser.so.1:cxxbridge1$rust_vec$cssparser$rust$StyleSheetError$new
libcxx-rust-cssparser.so.1:cxxbridge1$rust_vec$cssparser$rust$StyleSheetError$reserve_total
libcxx-rust-cssparser.so.1:cxxbridge1$rust_vec$cssparser$rust$StyleSheetError$set_len
libcxx-rust-cssparser.so.1:cxxbridge1$rust_vec$cssparser$rust$StyleSheetError$truncate
libcxx-rust-cssparser.so.1:cxxbridge1$rust_vec$cssparser$rust$Value$capacity
libcxx-rust-cssparser.so.1:cxxbridge1$rust_vec$cssparser$rust$Value$data
libcxx-rust-cssparser.so.1:cxxbridge1$rust_vec$cssparser$rust$Value$drop
libcxx-rust-cssparser.so.1:cxxbridge1$rust_vec$cssparser$rust$Value$len
libcxx-rust-cssparser.so.1:cxxbridge1$rust_vec$cssparser$rust$Value$new
libcxx-rust-cssparser.so.1:cxxbridge1$rust_vec$cssparser$rust$Value$reserve_total
libcxx-rust-cssparser.so.1:cxxbridge1$rust_vec$cssparser$rust$Value$set_len
libcxx-rust-cssparser.so.1:cxxbridge1$rust_vec$cssparser$rust$Value$truncate
libcxx-rust-cssparser.so.1:cxxbridge1$rust_vec$f32$capacity
libcxx-rust-cssparser.so.1:cxxbridge1$rust_vec$f32$data
libcxx-rust-cssparser.so.1:cxxbridge1$rust_vec$f32$drop
libcxx-rust-cssparser.so.1:cxxbridge1$rust_vec$f32$len
libcxx-rust-cssparser.so.1:cxxbridge1$rust_vec$f32$new
libcxx-rust-cssparser.so.1:cxxbridge1$rust_vec$f32$reserve_total
libcxx-rust-cssparser.so.1:cxxbridge1$rust_vec$f32$set_len
libcxx-rust-cssparser.so.1:cxxbridge1$rust_vec$f32$truncate
libcxx-rust-cssparser.so.1:cxxbridge1$rust_vec$f64$capacity
libcxx-rust-cssparser.so.1:cxxbridge1$rust_vec$f64$data
libcxx-rust-cssparser.so.1:cxxbridge1$rust_vec$f64$drop
libcxx-rust-cssparser.so.1:cxxbridge1$rust_vec$f64$len
libcxx-rust-cssparser.so.1:cxxbridge1$rust_vec$f64$new
libcxx-rust-cssparser.so.1:cxxbridge1$rust_vec$f64$reserve_total
libcxx-rust-cssparser.so.1:cxxbridge1$rust_vec$f64$set_len
libcxx-rust-cssparser.so.1:cxxbridge1$rust_vec$f64$truncate
libcxx-rust-cssparser.so.1:cxxbridge1$rust_vec$i16$capacity
libcxx-rust-cssparser.so.1:cxxbridge1$rust_vec$i16$data
libcxx-rust-cssparser.so.1:cxxbridge1$rust_vec$i16$drop
libcxx-rust-cssparser.so.1:cxxbridge1$rust_vec$i16$len
libcxx-rust-cssparser.so.1:cxxbridge1$rust_vec$i16$new
libcxx-rust-cssparser.so.1:cxxbridge1$rust_vec$i16$reserve_total
libcxx-rust-cssparser.so.1:cxxbridge1$rust_vec$i16$set_len
libcxx-rust-cssparser.so.1:cxxbridge1$rust_vec$i16$truncate
libcxx-rust-cssparser.so.1:cxxbridge1$rust_vec$i32$capacity
libcxx-rust-cssparser.so.1:cxxbridge1$rust_vec$i32$data
libcxx-rust-cssparser.so.1:cxxbridge1$rust_vec$i32$drop
libcxx-rust-cssparser.so.1:cxxbridge1$rust_vec$i32$len
libcxx-rust-cssparser.so.1:cxxbridge1$rust_vec$i32$new
libcxx-rust-cssparser.so.1:cxxbridge1$rust_vec$i32$reserve_total
libcxx-rust-cssparser.so.1:cxxbridge1$rust_vec$i32$set_len
libcxx-rust-cssparser.so.1:cxxbridge1$rust_vec$i32$truncate
libcxx-rust-cssparser.so.1:cxxbridge1$rust_vec$i64$capacity
libcxx-rust-cssparser.so.1:cxxbridge1$rust_vec$i64$data
libcxx-rust-cssparser.so.1:cxxbridge1$rust_vec$i64$drop
libcxx-rust-cssparser.so.1:cxxbridge1$rust_vec$i64$len
libcxx-rust-cssparser.so.1:cxxbridge1$rust_vec$i64$new
libcxx-rust-cssparser.so.1:cxxbridge1$rust_vec$i64$reserve_total
libcxx-rust-cssparser.so.1:cxxbridge1$rust_vec$i64$set_len
libcxx-rust-cssparser.so.1:cxxbridge1$rust_vec$i64$truncate
libcxx-rust-cssparser.so.1:cxxbridge1$rust_vec$i8$capacity
libcxx-rust-cssparser.so.1:cxxbridge1$rust_vec$i8$data
libcxx-rust-cssparser.so.1:cxxbridge1$rust_vec$i8$drop
libcxx-rust-cssparser.so.1:cxxbridge1$rust_vec$i8$len
libcxx-rust-cssparser.so.1:cxxbridge1$rust_vec$i8$new
libcxx-rust-cssparser.so.1:cxxbridge1$rust_vec$i8$reserve_total
libcxx-rust-cssparser.so.1:cxxbridge1$rust_vec$i8$set_len
libcxx-rust-cssparser.so.1:cxxbridge1$rust_vec$i8$truncate
libcxx-rust-cssparser.so.1:cxxbridge1$rust_vec$isize$capacity
libcxx-rust-cssparser.so.1:cxxbridge1$rust_vec$isize$data
libcxx-rust-cssparser.so.1:cxxbridge1$rust_vec$isize$drop
libcxx-rust-cssparser.so.1:cxxbridge1$rust_vec$isize$len
libcxx-rust-cssparser.so.1:cxxbridge1$rust_vec$isize$new
libcxx-rust-cssparser.so.1:cxxbridge1$rust_vec$isize$reserve_total
libcxx-rust-cssparser.so.1:cxxbridge1$rust_vec$isize$set_len
libcxx-rust-cssparser.so.1:cxxbridge1$rust_vec$isize$truncate
libcxx-rust-cssparser.so.1:cxxbridge1$rust_vec$str$capacity
libcxx-rust-cssparser.so.1:cxxbridge1$rust_vec$str$data
libcxx-rust-cssparser.so.1:cxxbridge1$rust_vec$str$drop
libcxx-rust-cssparser.so.1:cxxbridge1$rust_vec$str$len
libcxx-rust-cssparser.so.1:cxxbridge1$rust_vec$str$new
libcxx-rust-cssparser.so.1:cxxbridge1$rust_vec$str$reserve_total
libcxx-rust-cssparser.so.1:cxxbridge1$rust_vec$str$set_len
libcxx-rust-cssparser.so.1:cxxbridge1$rust_vec$str$truncate
libcxx-rust-cssparser.so.1:cxxbridge1$rust_vec$string$capacity
libcxx-rust-cssparser.so.1:cxxbridge1$rust_vec$string$data
libcxx-rust-cssparser.so.1:cxxbridge1$rust_vec$string$drop
libcxx-rust-cssparser.so.1:cxxbridge1$rust_vec$string$len
libcxx-rust-cssparser.so.1:cxxbridge1$rust_vec$string$new
libcxx-rust-cssparser.so.1:cxxbridge1$rust_vec$string$reserve_total
libcxx-rust-cssparser.so.1:cxxbridge1$rust_vec$string$set_len
libcxx-rust-cssparser.so.1:cxxbridge1$rust_vec$string$truncate
libcxx-rust-cssparser.so.1:cxxbridge1$rust_vec$u16$capacity
libcxx-rust-cssparser.so.1:cxxbridge1$rust_vec$u16$data
libcxx-rust-cssparser.so.1:cxxbridge1$rust_vec$u16$drop
libcxx-rust-cssparser.so.1:cxxbridge1$rust_vec$u16$len
libcxx-rust-cssparser.so.1:cxxbridge1$rust_vec$u16$new
libcxx-rust-cssparser.so.1:cxxbridge1$rust_vec$u16$reserve_total
libcxx-rust-cssparser.so.1:cxxbridge1$rust_vec$u16$set_len
libcxx-rust-cssparser.so.1:cxxbridge1$rust_vec$u16$truncate
libcxx-rust-cssparser.so.1:cxxbridge1$rust_vec$u32$capacity
libcxx-rust-cssparser.so.1:cxxbridge1$rust_vec$u32$data
libcxx-rust-cssparser.so.1:cxxbridge1$rust_vec$u32$drop
libcxx-rust-cssparser.so.1:cxxbridge1$rust_vec$u32$len
libcxx-rust-cssparser.so.1:cxxbridge1$rust_vec$u32$new
libcxx-rust-cssparser.so.1:cxxbridge1$rust_vec$u32$reserve_total
libcxx-rust-cssparser.so.1:cxxbridge1$rust_vec$u32$set_len
libcxx-rust-cssparser.so.1:cxxbridge1$rust_vec$u32$truncate
libcxx-rust-cssparser.so.1:cxxbridge1$rust_vec$u64$capacity
libcxx-rust-cssparser.so.1:cxxbridge1$rust_vec$u64$data
libcxx-rust-cssparser.so.1:cxxbridge1$rust_vec$u64$drop
libcxx-rust-cssparser.so.1:cxxbridge1$rust_vec$u64$len
libcxx-rust-cssparser.so.1:cxxbridge1$rust_vec$u64$new
libcxx-rust-cssparser.so.1:cxxbridge1$rust_vec$u64$reserve_total
libcxx-rust-cssparser.so.1:cxxbridge1$rust_vec$u64$set_len
libcxx-rust-cssparser.so.1:cxxbridge1$rust_vec$u64$truncate
libcxx-rust-cssparser.so.1:cxxbridge1$rust_vec$u8$capacity
libcxx-rust-cssparser.so.1:cxxbridge1$rust_vec$u8$data
libcxx-rust-cssparser.so.1:cxxbridge1$rust_vec$u8$drop
libcxx-rust-cssparser.so.1:cxxbridge1$rust_vec$u8$len
libcxx-rust-cssparser.so.1:cxxbridge1$rust_vec$u8$new
libcxx-rust-cssparser.so.1:cxxbridge1$rust_vec$u8$reserve_total
libcxx-rust-cssparser.so.1:cxxbridge1$rust_vec$u8$set_len
libcxx-rust-cssparser.so.1:cxxbridge1$rust_vec$u8$truncate
libcxx-rust-cssparser.so.1:cxxbridge1$rust_vec$usize$capacity
libcxx-rust-cssparser.so.1:cxxbridge1$rust_vec$usize$data
libcxx-rust-cssparser.so.1:cxxbridge1$rust_vec$usize$drop
libcxx-rust-cssparser.so.1:cxxbridge1$rust_vec$usize$len
libcxx-rust-cssparser.so.1:cxxbridge1$rust_vec$usize$new
libcxx-rust-cssparser.so.1:cxxbridge1$rust_vec$usize$reserve_total
libcxx-rust-cssparser.so.1:cxxbridge1$rust_vec$usize$set_len
libcxx-rust-cssparser.so.1:cxxbridge1$rust_vec$usize$truncate
libcxx-rust-cssparser.so.1:cxxbridge1$slice$len
libcxx-rust-cssparser.so.1:cxxbridge1$slice$new
libcxx-rust-cssparser.so.1:cxxbridge1$slice$ptr
libcxx-rust-cssparser.so.1:cxxbridge1$std$shared_ptr$bool$clone
libcxx-rust-cssparser.so.1:cxxbridge1$std$shared_ptr$bool$drop
libcxx-rust-cssparser.so.1:cxxbridge1$std$shared_ptr$bool$get
libcxx-rust-cssparser.so.1:cxxbridge1$std$shared_ptr$bool$null
libcxx-rust-cssparser.so.1:cxxbridge1$std$shared_ptr$bool$raw
libcxx-rust-cssparser.so.1:cxxbridge1$std$shared_ptr$bool$uninit
libcxx-rust-cssparser.so.1:cxxbridge1$std$shared_ptr$f32$clone
libcxx-rust-cssparser.so.1:cxxbridge1$std$shared_ptr$f32$drop
libcxx-rust-cssparser.so.1:cxxbridge1$std$shared_ptr$f32$get
libcxx-rust-cssparser.so.1:cxxbridge1$std$shared_ptr$f32$null
libcxx-rust-cssparser.so.1:cxxbridge1$std$shared_ptr$f32$raw
libcxx-rust-cssparser.so.1:cxxbridge1$std$shared_ptr$f32$uninit
libcxx-rust-cssparser.so.1:cxxbridge1$std$shared_ptr$f64$clone
libcxx-rust-cssparser.so.1:cxxbridge1$std$shared_ptr$f64$drop
libcxx-rust-cssparser.so.1:cxxbridge1$std$shared_ptr$f64$get
libcxx-rust-cssparser.so.1:cxxbridge1$std$shared_ptr$f64$null
libcxx-rust-cssparser.so.1:cxxbridge1$std$shared_ptr$f64$raw
libcxx-rust-cssparser.so.1:cxxbridge1$std$shared_ptr$f64$uninit
libcxx-rust-cssparser.so.1:cxxbridge1$std$shared_ptr$i16$clone
libcxx-rust-cssparser.so.1:cxxbridge1$std$shared_ptr$i16$drop
libcxx-rust-cssparser.so.1:cxxbridge1$std$shared_ptr$i16$get
libcxx-rust-cssparser.so.1:cxxbridge1$std$shared_ptr$i16$null
libcxx-rust-cssparser.so.1:cxxbridge1$std$shared_ptr$i16$raw
libcxx-rust-cssparser.so.1:cxxbridge1$std$shared_ptr$i16$uninit
libcxx-rust-cssparser.so.1:cxxbridge1$std$shared_ptr$i32$clone
libcxx-rust-cssparser.so.1:cxxbridge1$std$shared_ptr$i32$drop
libcxx-rust-cssparser.so.1:cxxbridge1$std$shared_ptr$i32$get
libcxx-rust-cssparser.so.1:cxxbridge1$std$shared_ptr$i32$null
libcxx-rust-cssparser.so.1:cxxbridge1$std$shared_ptr$i32$raw
libcxx-rust-cssparser.so.1:cxxbridge1$std$shared_ptr$i32$uninit
libcxx-rust-cssparser.so.1:cxxbridge1$std$shared_ptr$i64$clone
libcxx-rust-cssparser.so.1:cxxbridge1$std$shared_ptr$i64$drop
libcxx-rust-cssparser.so.1:cxxbridge1$std$shared_ptr$i64$get
libcxx-rust-cssparser.so.1:cxxbridge1$std$shared_ptr$i64$null
libcxx-rust-cssparser.so.1:cxxbridge1$std$shared_ptr$i64$raw
libcxx-rust-cssparser.so.1:cxxbridge1$std$shared_ptr$i64$uninit
libcxx-rust-cssparser.so.1:cxxbridge1$std$shared_ptr$i8$clone
libcxx-rust-cssparser.so.1:cxxbridge1$std$shared_ptr$i8$drop
libcxx-rust-cssparser.so.1:cxxbridge1$std$shared_ptr$i8$get
libcxx-rust-cssparser.so.1:cxxbridge1$std$shared_ptr$i8$null
libcxx-rust-cssparser.so.1:cxxbridge1$std$shared_ptr$i8$raw
libcxx-rust-cssparser.so.1:cxxbridge1$std$shared_ptr$i8$uninit
libcxx-rust-cssparser.so.1:cxxbridge1$std$shared_ptr$isize$clone
libcxx-rust-cssparser.so.1:cxxbridge1$std$shared_ptr$isize$drop
libcxx-rust-cssparser.so.1:cxxbridge1$std$shared_ptr$isize$get
libcxx-rust-cssparser.so.1:cxxbridge1$std$shared_ptr$isize$null
libcxx-rust-cssparser.so.1:cxxbridge1$std$shared_ptr$isize$raw
libcxx-rust-cssparser.so.1:cxxbridge1$std$shared_ptr$isize$uninit
libcxx-rust-cssparser.so.1:cxxbridge1$std$shared_ptr$string$clone
libcxx-rust-cssparser.so.1:cxxbridge1$std$shared_ptr$string$drop
libcxx-rust-cssparser.so.1:cxxbridge1$std$shared_ptr$string$get
libcxx-rust-cssparser.so.1:cxxbridge1$std$shared_ptr$string$null
libcxx-rust-cssparser.so.1:cxxbridge1$std$shared_ptr$string$raw
libcxx-rust-cssparser.so.1:cxxbridge1$std$shared_ptr$string$uninit
libcxx-rust-cssparser.so.1:cxxbridge1$std$shared_ptr$u16$clone
libcxx-rust-cssparser.so.1:cxxbridge1$std$shared_ptr$u16$drop
libcxx-rust-cssparser.so.1:cxxbridge1$std$shared_ptr$u16$get
libcxx-rust-cssparser.so.1:cxxbridge1$std$shared_ptr$u16$null
libcxx-rust-cssparser.so.1:cxxbridge1$std$shared_ptr$u16$raw
libcxx-rust-cssparser.so.1:cxxbridge1$std$shared_ptr$u16$uninit
libcxx-rust-cssparser.so.1:cxxbridge1$std$shared_ptr$u32$clone
libcxx-rust-cssparser.so.1:cxxbridge1$std$shared_ptr$u32$drop
libcxx-rust-cssparser.so.1:cxxbridge1$std$shared_ptr$u32$get
libcxx-rust-cssparser.so.1:cxxbridge1$std$shared_ptr$u32$null
libcxx-rust-cssparser.so.1:cxxbridge1$std$shared_ptr$u32$raw
libcxx-rust-cssparser.so.1:cxxbridge1$std$shared_ptr$u32$uninit
libcxx-rust-cssparser.so.1:cxxbridge1$std$shared_ptr$u64$clone
libcxx-rust-cssparser.so.1:cxxbridge1$std$shared_ptr$u64$drop
libcxx-rust-cssparser.so.1:cxxbridge1$std$shared_ptr$u64$get
libcxx-rust-cssparser.so.1:cxxbridge1$std$shared_ptr$u64$null
libcxx-rust-cssparser.so.1:cxxbridge1$std$shared_ptr$u64$raw
libcxx-rust-cssparser.so.1:cxxbridge1$std$shared_ptr$u64$uninit
libcxx-rust-cssparser.so.1:cxxbridge1$std$shared_ptr$u8$clone
libcxx-rust-cssparser.so.1:cxxbridge1$std$shared_ptr$u8$drop
libcxx-rust-cssparser.so.1:cxxbridge1$std$shared_ptr$u8$get
libcxx-rust-cssparser.so.1:cxxbridge1$std$shared_ptr$u8$null
libcxx-rust-cssparser.so.1:cxxbridge1$std$shared_ptr$u8$raw
libcxx-rust-cssparser.so.1:cxxbridge1$std$shared_ptr$u8$uninit
libcxx-rust-cssparser.so.1:cxxbridge1$std$shared_ptr$usize$clone
libcxx-rust-cssparser.so.1:cxxbridge1$std$shared_ptr$usize$drop
libcxx-rust-cssparser.so.1:cxxbridge1$std$shared_ptr$usize$get
libcxx-rust-cssparser.so.1:cxxbridge1$std$shared_ptr$usize$null
libcxx-rust-cssparser.so.1:cxxbridge1$std$shared_ptr$usize$raw
libcxx-rust-cssparser.so.1:cxxbridge1$std$shared_ptr$usize$uninit
libcxx-rust-cssparser.so.1:cxxbridge1$std$vector$f32$capacity
libcxx-rust-cssparser.so.1:cxxbridge1$std$vector$f32$get_unchecked
libcxx-rust-cssparser.so.1:cxxbridge1$std$vector$f32$new
libcxx-rust-cssparser.so.1:cxxbridge1$std$vector$f32$pop_back
libcxx-rust-cssparser.so.1:cxxbridge1$std$vector$f32$push_back
libcxx-rust-cssparser.so.1:cxxbridge1$std$vector$f32$reserve
libcxx-rust-cssparser.so.1:cxxbridge1$std$vector$f32$size
libcxx-rust-cssparser.so.1:cxxbridge1$std$vector$f64$capacity
libcxx-rust-cssparser.so.1:cxxbridge1$std$vector$f64$get_unchecked
libcxx-rust-cssparser.so.1:cxxbridge1$std$vector$f64$new
libcxx-rust-cssparser.so.1:cxxbridge1$std$vector$f64$pop_back
libcxx-rust-cssparser.so.1:cxxbridge1$std$vector$f64$push_back
libcxx-rust-cssparser.so.1:cxxbridge1$std$vector$f64$reserve
libcxx-rust-cssparser.so.1:cxxbridge1$std$vector$f64$size
libcxx-rust-cssparser.so.1:cxxbridge1$std$vector$i16$capacity
libcxx-rust-cssparser.so.1:cxxbridge1$std$vector$i16$get_unchecked
libcxx-rust-cssparser.so.1:cxxbridge1$std$vector$i16$new
libcxx-rust-cssparser.so.1:cxxbridge1$std$vector$i16$pop_back
libcxx-rust-cssparser.so.1:cxxbridge1$std$vector$i16$push_back
libcxx-rust-cssparser.so.1:cxxbridge1$std$vector$i16$reserve
libcxx-rust-cssparser.so.1:cxxbridge1$std$vector$i16$size
libcxx-rust-cssparser.so.1:cxxbridge1$std$vector$i32$capacity
libcxx-rust-cssparser.so.1:cxxbridge1$std$vector$i32$get_unchecked
libcxx-rust-cssparser.so.1:cxxbridge1$std$vector$i32$new
libcxx-rust-cssparser.so.1:cxxbridge1$std$vector$i32$pop_back
libcxx-rust-cssparser.so.1:cxxbridge1$std$vector$i32$push_back
libcxx-rust-cssparser.so.1:cxxbridge1$std$vector$i32$reserve
libcxx-rust-cssparser.so.1:cxxbridge1$std$vector$i32$size
libcxx-rust-cssparser.so.1:cxxbridge1$std$vector$i64$capacity
libcxx-rust-cssparser.so.1:cxxbridge1$std$vector$i64$get_unchecked
libcxx-rust-cssparser.so.1:cxxbridge1$std$vector$i64$new
libcxx-rust-cssparser.so.1:cxxbridge1$std$vector$i64$pop_back
libcxx-rust-cssparser.so.1:cxxbridge1$std$vector$i64$push_back
libcxx-rust-cssparser.so.1:cxxbridge1$std$vector$i64$reserve
libcxx-rust-cssparser.so.1:cxxbridge1$std$vector$i64$size
libcxx-rust-cssparser.so.1:cxxbridge1$std$vector$i8$capacity
libcxx-rust-cssparser.so.1:cxxbridge1$std$vector$i8$get_unchecked
libcxx-rust-cssparser.so.1:cxxbridge1$std$vector$i8$new
libcxx-rust-cssparser.so.1:cxxbridge1$std$vector$i8$pop_back
libcxx-rust-cssparser.so.1:cxxbridge1$std$vector$i8$push_back
libcxx-rust-cssparser.so.1:cxxbridge1$std$vector$i8$reserve
libcxx-rust-cssparser.so.1:cxxbridge1$std$vector$i8$size
libcxx-rust-cssparser.so.1:cxxbridge1$std$vector$isize$capacity
libcxx-rust-cssparser.so.1:cxxbridge1$std$vector$isize$get_unchecked
libcxx-rust-cssparser.so.1:cxxbridge1$std$vector$isize$new
libcxx-rust-cssparser.so.1:cxxbridge1$std$vector$isize$pop_back
libcxx-rust-cssparser.so.1:cxxbridge1$std$vector$isize$push_back
libcxx-rust-cssparser.so.1:cxxbridge1$std$vector$isize$reserve
libcxx-rust-cssparser.so.1:cxxbridge1$std$vector$isize$size
libcxx-rust-cssparser.so.1:cxxbridge1$std$vector$string$capacity
libcxx-rust-cssparser.so.1:cxxbridge1$std$vector$string$get_unchecked
libcxx-rust-cssparser.so.1:cxxbridge1$std$vector$string$new
libcxx-rust-cssparser.so.1:cxxbridge1$std$vector$string$reserve
libcxx-rust-cssparser.so.1:cxxbridge1$std$vector$string$size
libcxx-rust-cssparser.so.1:cxxbridge1$std$vector$u16$capacity
libcxx-rust-cssparser.so.1:cxxbridge1$std$vector$u16$get_unchecked
libcxx-rust-cssparser.so.1:cxxbridge1$std$vector$u16$new
libcxx-rust-cssparser.so.1:cxxbridge1$std$vector$u16$pop_back
libcxx-rust-cssparser.so.1:cxxbridge1$std$vector$u16$push_back
libcxx-rust-cssparser.so.1:cxxbridge1$std$vector$u16$reserve
libcxx-rust-cssparser.so.1:cxxbridge1$std$vector$u16$size
libcxx-rust-cssparser.so.1:cxxbridge1$std$vector$u32$capacity
libcxx-rust-cssparser.so.1:cxxbridge1$std$vector$u32$get_unchecked
libcxx-rust-cssparser.so.1:cxxbridge1$std$vector$u32$new
libcxx-rust-cssparser.so.1:cxxbridge1$std$vector$u32$pop_back
libcxx-rust-cssparser.so.1:cxxbridge1$std$vector$u32$push_back
libcxx-rust-cssparser.so.1:cxxbridge1$std$vector$u32$reserve
libcxx-rust-cssparser.so.1:cxxbridge1$std$vector$u32$size
libcxx-rust-cssparser.so.1:cxxbridge1$std$vector$u64$capacity
libcxx-rust-cssparser.so.1:cxxbridge1$std$vector$u64$get_unchecked
libcxx-rust-cssparser.so.1:cxxbridge1$std$vector$u64$new
libcxx-rust-cssparser.so.1:cxxbridge1$std$vector$u64$pop_back
libcxx-rust-cssparser.so.1:cxxbridge1$std$vector$u64$push_back
libcxx-rust-cssparser.so.1:cxxbridge1$std$vector$u64$reserve
libcxx-rust-cssparser.so.1:cxxbridge1$std$vector$u64$size
libcxx-rust-cssparser.so.1:cxxbridge1$std$vector$u8$capacity
libcxx-rust-cssparser.so.1:cxxbridge1$std$vector$u8$get_unchecked
libcxx-rust-cssparser.so.1:cxxbridge1$std$vector$u8$new
libcxx-rust-cssparser.so.1:cxxbridge1$std$vector$u8$pop_back
libcxx-rust-cssparser.so.1:cxxbridge1$std$vector$u8$push_back
libcxx-rust-cssparser.so.1:cxxbridge1$std$vector$u8$reserve
libcxx-rust-cssparser.so.1:cxxbridge1$std$vector$u8$size
libcxx-rust-cssparser.so.1:cxxbridge1$std$vector$usize$capacity
libcxx-rust-cssparser.so.1:cxxbridge1$std$vector$usize$get_unchecked
libcxx-rust-cssparser.so.1:cxxbridge1$std$vector$usize$new
libcxx-rust-cssparser.so.1:cxxbridge1$std$vector$usize$pop_back
libcxx-rust-cssparser.so.1:cxxbridge1$std$vector$usize$push_back
libcxx-rust-cssparser.so.1:cxxbridge1$std$vector$usize$reserve
libcxx-rust-cssparser.so.1:cxxbridge1$std$vector$usize$size
libcxx-rust-cssparser.so.1:cxxbridge1$std$weak_ptr$bool$clone
libcxx-rust-cssparser.so.1:cxxbridge1$std$weak_ptr$bool$downgrade
libcxx-rust-cssparser.so.1:cxxbridge1$std$weak_ptr$bool$drop
libcxx-rust-cssparser.so.1:cxxbridge1$std$weak_ptr$bool$null
libcxx-rust-cssparser.so.1:cxxbridge1$std$weak_ptr$bool$upgrade
libcxx-rust-cssparser.so.1:cxxbridge1$std$weak_ptr$f32$clone
libcxx-rust-cssparser.so.1:cxxbridge1$std$weak_ptr$f32$downgrade
libcxx-rust-cssparser.so.1:cxxbridge1$std$weak_ptr$f32$drop
libcxx-rust-cssparser.so.1:cxxbridge1$std$weak_ptr$f32$null
libcxx-rust-cssparser.so.1:cxxbridge1$std$weak_ptr$f32$upgrade
libcxx-rust-cssparser.so.1:cxxbridge1$std$weak_ptr$f64$clone
libcxx-rust-cssparser.so.1:cxxbridge1$std$weak_ptr$f64$downgrade
libcxx-rust-cssparser.so.1:cxxbridge1$std$weak_ptr$f64$drop
libcxx-rust-cssparser.so.1:cxxbridge1$std$weak_ptr$f64$null
libcxx-rust-cssparser.so.1:cxxbridge1$std$weak_ptr$f64$upgrade
libcxx-rust-cssparser.so.1:cxxbridge1$std$weak_ptr$i16$clone
libcxx-rust-cssparser.so.1:cxxbridge1$std$weak_ptr$i16$downgrade
libcxx-rust-cssparser.so.1:cxxbridge1$std$weak_ptr$i16$drop
libcxx-rust-cssparser.so.1:cxxbridge1$std$weak_ptr$i16$null
libcxx-rust-cssparser.so.1:cxxbridge1$std$weak_ptr$i16$upgrade
libcxx-rust-cssparser.so.1:cxxbridge1$std$weak_ptr$i32$clone
libcxx-rust-cssparser.so.1:cxxbridge1$std$weak_ptr$i32$downgrade
libcxx-rust-cssparser.so.1:cxxbridge1$std$weak_ptr$i32$drop
libcxx-rust-cssparser.so.1:cxxbridge1$std$weak_ptr$i32$null
libcxx-rust-cssparser.so.1:cxxbridge1$std$weak_ptr$i32$upgrade
libcxx-rust-cssparser.so.1:cxxbridge1$std$weak_ptr$i64$clone
libcxx-rust-cssparser.so.1:cxxbridge1$std$weak_ptr$i64$downgrade
libcxx-rust-cssparser.so.1:cxxbridge1$std$weak_ptr$i64$drop
libcxx-rust-cssparser.so.1:cxxbridge1$std$weak_ptr$i64$null
libcxx-rust-cssparser.so.1:cxxbridge1$std$weak_ptr$i64$upgrade
libcxx-rust-cssparser.so.1:cxxbridge1$std$weak_ptr$i8$clone
libcxx-rust-cssparser.so.1:cxxbridge1$std$weak_ptr$i8$downgrade
libcxx-rust-cssparser.so.1:cxxbridge1$std$weak_ptr$i8$drop
libcxx-rust-cssparser.so.1:cxxbridge1$std$weak_ptr$i8$null
libcxx-rust-cssparser.so.1:cxxbridge1$std$weak_ptr$i8$upgrade
libcxx-rust-cssparser.so.1:cxxbridge1$std$weak_ptr$isize$clone
libcxx-rust-cssparser.so.1:cxxbridge1$std$weak_ptr$isize$downgrade
libcxx-rust-cssparser.so.1:cxxbridge1$std$weak_ptr$isize$drop
libcxx-rust-cssparser.so.1:cxxbridge1$std$weak_ptr$isize$null
libcxx-rust-cssparser.so.1:cxxbridge1$std$weak_ptr$isize$upgrade
libcxx-rust-cssparser.so.1:cxxbridge1$std$weak_ptr$string$clone
libcxx-rust-cssparser.so.1:cxxbridge1$std$weak_ptr$string$downgrade
libcxx-rust-cssparser.so.1:cxxbridge1$std$weak_ptr$string$drop
libcxx-rust-cssparser.so.1:cxxbridge1$std$weak_ptr$string$null
libcxx-rust-cssparser.so.1:cxxbridge1$std$weak_ptr$string$upgrade
libcxx-rust-cssparser.so.1:cxxbridge1$std$weak_ptr$u16$clone
libcxx-rust-cssparser.so.1:cxxbridge1$std$weak_ptr$u16$downgrade
libcxx-rust-cssparser.so.1:cxxbridge1$std$weak_ptr$u16$drop
libcxx-rust-cssparser.so.1:cxxbridge1$std$weak_ptr$u16$null
libcxx-rust-cssparser.so.1:cxxbridge1$std$weak_ptr$u16$upgrade
libcxx-rust-cssparser.so.1:cxxbridge1$std$weak_ptr$u32$clone
libcxx-rust-cssparser.so.1:cxxbridge1$std$weak_ptr$u32$downgrade
libcxx-rust-cssparser.so.1:cxxbridge1$std$weak_ptr$u32$drop
libcxx-rust-cssparser.so.1:cxxbridge1$std$weak_ptr$u32$null
libcxx-rust-cssparser.so.1:cxxbridge1$std$weak_ptr$u32$upgrade
libcxx-rust-cssparser.so.1:cxxbridge1$std$weak_ptr$u64$clone
libcxx-rust-cssparser.so.1:cxxbridge1$std$weak_ptr$u64$downgrade
libcxx-rust-cssparser.so.1:cxxbridge1$std$weak_ptr$u64$drop
libcxx-rust-cssparser.so.1:cxxbridge1$std$weak_ptr$u64$null
libcxx-rust-cssparser.so.1:cxxbridge1$std$weak_ptr$u64$upgrade
libcxx-rust-cssparser.so.1:cxxbridge1$std$weak_ptr$u8$clone
libcxx-rust-cssparser.so.1:cxxbridge1$std$weak_ptr$u8$downgrade
libcxx-rust-cssparser.so.1:cxxbridge1$std$weak_ptr$u8$drop
libcxx-rust-cssparser.so.1:cxxbridge1$std$weak_ptr$u8$null
libcxx-rust-cssparser.so.1:cxxbridge1$std$weak_ptr$u8$upgrade
libcxx-rust-cssparser.so.1:cxxbridge1$std$weak_ptr$usize$clone
libcxx-rust-cssparser.so.1:cxxbridge1$std$weak_ptr$usize$downgrade
libcxx-rust-cssparser.so.1:cxxbridge1$std$weak_ptr$usize$drop
libcxx-rust-cssparser.so.1:cxxbridge1$std$weak_ptr$usize$null
libcxx-rust-cssparser.so.1:cxxbridge1$std$weak_ptr$usize$upgrade
libcxx-rust-cssparser.so.1:cxxbridge1$str$from
libcxx-rust-cssparser.so.1:cxxbridge1$str$len
libcxx-rust-cssparser.so.1:cxxbridge1$str$new
libcxx-rust-cssparser.so.1:cxxbridge1$str$ptr
libcxx-rust-cssparser.so.1:cxxbridge1$str$ref
libcxx-rust-cssparser.so.1:cxxbridge1$string$capacity
libcxx-rust-cssparser.so.1:cxxbridge1$string$clone
libcxx-rust-cssparser.so.1:cxxbridge1$string$drop
libcxx-rust-cssparser.so.1:cxxbridge1$string$from_utf16
libcxx-rust-cssparser.so.1:cxxbridge1$string$from_utf16_lossy
libcxx-rust-cssparser.so.1:cxxbridge1$string$from_utf8
libcxx-rust-cssparser.so.1:cxxbridge1$string$from_utf8_lossy
libcxx-rust-cssparser.so.1:cxxbridge1$string$len
libcxx-rust-cssparser.so.1:cxxbridge1$string$new
libcxx-rust-cssparser.so.1:cxxbridge1$string$ptr
libcxx-rust-cssparser.so.1:cxxbridge1$string$reserve_additional
libcxx-rust-cssparser.so.1:cxxbridge1$string$reserve_total
libcxx-rust-cssparser.so.1:cxxbridge1$unique_ptr$std$string$drop
libcxx-rust-cssparser.so.1:cxxbridge1$unique_ptr$std$string$get
libcxx-rust-cssparser.so.1:cxxbridge1$unique_ptr$std$string$null
libcxx-rust-cssparser.so.1:cxxbridge1$unique_ptr$std$string$raw
libcxx-rust-cssparser.so.1:cxxbridge1$unique_ptr$std$string$release
libcxx-rust-cssparser.so.1:cxxbridge1$unique_ptr$std$vector$f32$drop
libcxx-rust-cssparser.so.1:cxxbridge1$unique_ptr$std$vector$f32$get
libcxx-rust-cssparser.so.1:cxxbridge1$unique_ptr$std$vector$f32$null
libcxx-rust-cssparser.so.1:cxxbridge1$unique_ptr$std$vector$f32$raw
libcxx-rust-cssparser.so.1:cxxbridge1$unique_ptr$std$vector$f32$release
libcxx-rust-cssparser.so.1:cxxbridge1$unique_ptr$std$vector$f64$drop
libcxx-rust-cssparser.so.1:cxxbridge1$unique_ptr$std$vector$f64$get
libcxx-rust-cssparser.so.1:cxxbridge1$unique_ptr$std$vector$f64$null
libcxx-rust-cssparser.so.1:cxxbridge1$unique_ptr$std$vector$f64$raw
libcxx-rust-cssparser.so.1:cxxbridge1$unique_ptr$std$vector$f64$release
libcxx-rust-cssparser.so.1:cxxbridge1$unique_ptr$std$vector$i16$drop
libcxx-rust-cssparser.so.1:cxxbridge1$unique_ptr$std$vector$i16$get
libcxx-rust-cssparser.so.1:cxxbridge1$unique_ptr$std$vector$i16$null
libcxx-rust-cssparser.so.1:cxxbridge1$unique_ptr$std$vector$i16$raw
libcxx-rust-cssparser.so.1:cxxbridge1$unique_ptr$std$vector$i16$release
libcxx-rust-cssparser.so.1:cxxbridge1$unique_ptr$std$vector$i32$drop
libcxx-rust-cssparser.so.1:cxxbridge1$unique_ptr$std$vector$i32$get
libcxx-rust-cssparser.so.1:cxxbridge1$unique_ptr$std$vector$i32$null
libcxx-rust-cssparser.so.1:cxxbridge1$unique_ptr$std$vector$i32$raw
libcxx-rust-cssparser.so.1:cxxbridge1$unique_ptr$std$vector$i32$release
libcxx-rust-cssparser.so.1:cxxbridge1$unique_ptr$std$vector$i64$drop
libcxx-rust-cssparser.so.1:cxxbridge1$unique_ptr$std$vector$i64$get
libcxx-rust-cssparser.so.1:cxxbridge1$unique_ptr$std$vector$i64$null
libcxx-rust-cssparser.so.1:cxxbridge1$unique_ptr$std$vector$i64$raw
libcxx-rust-cssparser.so.1:cxxbridge1$unique_ptr$std$vector$i64$release
libcxx-rust-cssparser.so.1:cxxbridge1$unique_ptr$std$vector$i8$drop
libcxx-rust-cssparser.so.1:cxxbridge1$unique_ptr$std$vector$i8$get
libcxx-rust-cssparser.so.1:cxxbridge1$unique_ptr$std$vector$i8$null
libcxx-rust-cssparser.so.1:cxxbridge1$unique_ptr$std$vector$i8$raw
libcxx-rust-cssparser.so.1:cxxbridge1$unique_ptr$std$vector$i8$release
libcxx-rust-cssparser.so.1:cxxbridge1$unique_ptr$std$vector$isize$drop
libcxx-rust-cssparser.so.1:cxxbridge1$unique_ptr$std$vector$isize$get
libcxx-rust-cssparser.so.1:cxxbridge1$unique_ptr$std$vector$isize$null
libcxx-rust-cssparser.so.1:cxxbridge1$unique_ptr$std$vector$isize$raw
libcxx-rust-cssparser.so.1:cxxbridge1$unique_ptr$std$vector$isize$release
libcxx-rust-cssparser.so.1:cxxbridge1$unique_ptr$std$vector$string$drop
libcxx-rust-cssparser.so.1:cxxbridge1$unique_ptr$std$vector$string$get
libcxx-rust-cssparser.so.1:cxxbridge1$unique_ptr$std$vector$string$null
libcxx-rust-cssparser.so.1:cxxbridge1$unique_ptr$std$vector$string$raw
libcxx-rust-cssparser.so.1:cxxbridge1$unique_ptr$std$vector$string$release
libcxx-rust-cssparser.so.1:cxxbridge1$unique_ptr$std$vector$u16$drop
libcxx-rust-cssparser.so.1:cxxbridge1$unique_ptr$std$vector$u16$get
libcxx-rust-cssparser.so.1:cxxbridge1$unique_ptr$std$vector$u16$null
libcxx-rust-cssparser.so.1:cxxbridge1$unique_ptr$std$vector$u16$raw
libcxx-rust-cssparser.so.1:cxxbridge1$unique_ptr$std$vector$u16$release
libcxx-rust-cssparser.so.1:cxxbridge1$unique_ptr$std$vector$u32$drop
libcxx-rust-cssparser.so.1:cxxbridge1$unique_ptr$std$vector$u32$get
libcxx-rust-cssparser.so.1:cxxbridge1$unique_ptr$std$vector$u32$null
libcxx-rust-cssparser.so.1:cxxbridge1$unique_ptr$std$vector$u32$raw
libcxx-rust-cssparser.so.1:cxxbridge1$unique_ptr$std$vector$u32$release
libcxx-rust-cssparser.so.1:cxxbridge1$unique_ptr$std$vector$u64$drop
libcxx-rust-cssparser.so.1:cxxbridge1$unique_ptr$std$vector$u64$get
libcxx-rust-cssparser.so.1:cxxbridge1$unique_ptr$std$vector$u64$null
libcxx-rust-cssparser.so.1:cxxbridge1$unique_ptr$std$vector$u64$raw
libcxx-rust-cssparser.so.1:cxxbridge1$unique_ptr$std$vector$u64$release
libcxx-rust-cssparser.so.1:cxxbridge1$unique_ptr$std$vector$u8$drop
libcxx-rust-cssparser.so.1:cxxbridge1$unique_ptr$std$vector$u8$get
libcxx-rust-cssparser.so.1:cxxbridge1$unique_ptr$std$vector$u8$null
libcxx-rust-cssparser.so.1:cxxbridge1$unique_ptr$std$vector$u8$raw
libcxx-rust-cssparser.so.1:cxxbridge1$unique_ptr$std$vector$u8$release
libcxx-rust-cssparser.so.1:cxxbridge1$unique_ptr$std$vector$usize$drop
libcxx-rust-cssparser.so.1:cxxbridge1$unique_ptr$std$vector$usize$get
libcxx-rust-cssparser.so.1:cxxbridge1$unique_ptr$std$vector$usize$null
libcxx-rust-cssparser.so.1:cxxbridge1$unique_ptr$std$vector$usize$raw
libcxx-rust-cssparser.so.1:cxxbridge1$unique_ptr$std$vector$usize$release
libcxx-rust-cssparser.so.1:rust_eh_personality
