k3baudiometainforenamerplugin.so:__bss_start
k3baudiometainforenamerplugin.so:_edata
k3baudiometainforenamerplugin.so:_end
k3baudiometainforenamerplugin.so:qt_plugin_instance
k3baudiometainforenamerplugin.so:qt_plugin_query_metadata
k3baudioprojectcddbplugin.so:__bss_start
k3baudioprojectcddbplugin.so:_edata
k3baudioprojectcddbplugin.so:_end
k3baudioprojectcddbplugin.so:qt_plugin_instance
k3baudioprojectcddbplugin.so:qt_plugin_query_metadata
k3bexternalencoder.so:__bss_start
k3bexternalencoder.so:_edata
k3bexternalencoder.so:_end
k3bexternalencoder.so:qt_plugin_instance
k3bexternalencoder.so:qt_plugin_query_metadata
k3bffmpegdecoder.so:__bss_start
k3bffmpegdecoder.so:_edata
k3bffmpegdecoder.so:_end
k3bffmpegdecoder.so:qt_plugin_instance
k3bffmpegdecoder.so:qt_plugin_query_metadata
k3bflacdecoder.so:__bss_start
k3bflacdecoder.so:_edata
k3bflacdecoder.so:_end
k3bflacdecoder.so:qt_plugin_instance
k3bflacdecoder.so:qt_plugin_query_metadata
k3blameencoder.so:__bss_start
k3blameencoder.so:_edata
k3blameencoder.so:_end
k3blameencoder.so:qt_plugin_instance
k3blameencoder.so:qt_plugin_query_metadata
k3blibsndfiledecoder.so:__bss_start
k3blibsndfiledecoder.so:_edata
k3blibsndfiledecoder.so:_end
k3blibsndfiledecoder.so:qt_plugin_instance
k3blibsndfiledecoder.so:qt_plugin_query_metadata
k3bmaddecoder.so:__bss_start
k3bmaddecoder.so:_edata
k3bmaddecoder.so:_end
k3bmaddecoder.so:qt_plugin_instance
k3bmaddecoder.so:qt_plugin_query_metadata
k3boggvorbisdecoder.so:__bss_start
k3boggvorbisdecoder.so:_edata
k3boggvorbisdecoder.so:_end
k3boggvorbisdecoder.so:qt_plugin_instance
k3boggvorbisdecoder.so:qt_plugin_query_metadata
k3boggvorbisencoder.so:__bss_start
k3boggvorbisencoder.so:_edata
k3boggvorbisencoder.so:_end
k3boggvorbisencoder.so:qt_plugin_instance
k3boggvorbisencoder.so:qt_plugin_query_metadata
k3bsoxencoder.so:__bss_start
k3bsoxencoder.so:_edata
k3bsoxencoder.so:_end
k3bsoxencoder.so:qt_plugin_instance
k3bsoxencoder.so:qt_plugin_query_metadata
k3bwavedecoder.so:__bss_start
k3bwavedecoder.so:_edata
k3bwavedecoder.so:_end
k3bwavedecoder.so:qt_plugin_instance
k3bwavedecoder.so:qt_plugin_query_metadata
kcm_k3bexternalencoder.so:__bss_start
kcm_k3bexternalencoder.so:_edata
kcm_k3bexternalencoder.so:_end
kcm_k3bexternalencoder.so:qt_plugin_instance
kcm_k3bexternalencoder.so:qt_plugin_query_metadata
kcm_k3blameencoder.so:__bss_start
kcm_k3blameencoder.so:_edata
kcm_k3blameencoder.so:_end
kcm_k3blameencoder.so:qt_plugin_instance
kcm_k3blameencoder.so:qt_plugin_query_metadata
kcm_k3boggvorbisencoder.so:__bss_start
kcm_k3boggvorbisencoder.so:_edata
kcm_k3boggvorbisencoder.so:_end
kcm_k3boggvorbisencoder.so:qt_plugin_instance
kcm_k3boggvorbisencoder.so:qt_plugin_query_metadata
kcm_k3bsoxencoder.so:__bss_start
kcm_k3bsoxencoder.so:_edata
kcm_k3bsoxencoder.so:_end
kcm_k3bsoxencoder.so:qt_plugin_instance
kcm_k3bsoxencoder.so:qt_plugin_query_metadata
libk3bdevice.so.7:_ZN3K3b3Msf10addMinutesEi
libk3bdevice.so.7:_ZN3K3b3Msf10addSecondsEi
libk3bdevice.so.7:_ZN3K3b3Msf10fromStringERK7QStringPb
libk3bdevice.so.7:_ZN3K3b3Msf11fromSecondsEd
libk3bdevice.so.7:_ZN3K3b3Msf14fromAudioBytesEx
libk3bdevice.so.7:_ZN3K3b3Msf6regExpEv
libk3bdevice.so.7:_ZN3K3b3Msf7Private8setValueEiii
libk3bdevice.so.7:_ZN3K3b3Msf7Private9makeValidEv
libk3bdevice.so.7:_ZN3K3b3Msf8setValueEiii
libk3bdevice.so.7:_ZN3K3b3Msf9addFramesEi
libk3bdevice.so.7:_ZN3K3b3MsfC1ERKS0_
libk3bdevice.so.7:_ZN3K3b3MsfC1Ei
libk3bdevice.so.7:_ZN3K3b3MsfC1Eiii
libk3bdevice.so.7:_ZN3K3b3MsfC1Ev
libk3bdevice.so.7:_ZN3K3b3MsfC2ERKS0_
libk3bdevice.so.7:_ZN3K3b3MsfC2Ei
libk3bdevice.so.7:_ZN3K3b3MsfC2Eiii
libk3bdevice.so.7:_ZN3K3b3MsfC2Ev
libk3bdevice.so.7:_ZN3K3b3MsfD1Ev
libk3bdevice.so.7:_ZN3K3b3MsfD2Ev
libk3bdevice.so.7:_ZN3K3b3MsfaSERKS0_
libk3bdevice.so.7:_ZN3K3b3MsfaSEi
libk3bdevice.so.7:_ZN3K3b3MsfmIERKS0_
libk3bdevice.so.7:_ZN3K3b3MsfmIEi
libk3bdevice.so.7:_ZN3K3b3MsfmmEi
libk3bdevice.so.7:_ZN3K3b3MsfmmEv
libk3bdevice.so.7:_ZN3K3b3MsfpLERKS0_
libk3bdevice.so.7:_ZN3K3b3MsfpLEi
libk3bdevice.so.7:_ZN3K3b3MsfppEi
libk3bdevice.so.7:_ZN3K3b3MsfppEv
libk3bdevice.so.7:_ZN3K3b6Device10isValidBcdERKc
libk3bdevice.so.7:_ZN3K3b6Device11TrackCdText10setMessageERK7QString
libk3bdevice.so.7:_ZN3K3b6Device11TrackCdText11setArrangerERK7QString
libk3bdevice.so.7:_ZN3K3b6Device11TrackCdText11setComposerERK7QString
libk3bdevice.so.7:_ZN3K3b6Device11TrackCdText12setPerformerERK7QString
libk3bdevice.so.7:_ZN3K3b6Device11TrackCdText13setSongwriterERK7QString
libk3bdevice.so.7:_ZN3K3b6Device11TrackCdText5clearEv
libk3bdevice.so.7:_ZN3K3b6Device11TrackCdText7setIsrcERK7QString
libk3bdevice.so.7:_ZN3K3b6Device11TrackCdText8setTitleERK7QString
libk3bdevice.so.7:_ZN3K3b6Device11TrackCdTextC1ERKS1_
libk3bdevice.so.7:_ZN3K3b6Device11TrackCdTextC1Ev
libk3bdevice.so.7:_ZN3K3b6Device11TrackCdTextC2ERKS1_
libk3bdevice.so.7:_ZN3K3b6Device11TrackCdTextC2Ev
libk3bdevice.so.7:_ZN3K3b6Device11TrackCdTextD1Ev
libk3bdevice.so.7:_ZN3K3b6Device11TrackCdTextD2Ev
libk3bdevice.so.7:_ZN3K3b6Device11TrackCdTextaSERKS1_
libk3bdevice.so.7:_ZN3K3b6Device13DeviceManager10findDeviceERK7QString
libk3bdevice.so.7:_ZN3K3b6Device13DeviceManager10readConfigERK12KConfigGroup
libk3bdevice.so.7:_ZN3K3b6Device13DeviceManager10saveConfigE12KConfigGroup
libk3bdevice.so.7:_ZN3K3b6Device13DeviceManager11checkDeviceERKN5Solid6DeviceE
libk3bdevice.so.7:_ZN3K3b6Device13DeviceManager11qt_metacallEN11QMetaObject4CallEiPPv
libk3bdevice.so.7:_ZN3K3b6Device13DeviceManager11qt_metacastEPKc
libk3bdevice.so.7:_ZN3K3b6Device13DeviceManager12deviceByNameERK7QString
libk3bdevice.so.7:_ZN3K3b6Device13DeviceManager12printDevicesEv
libk3bdevice.so.7:_ZN3K3b6Device13DeviceManager12removeDeviceERKN5Solid6DeviceE
libk3bdevice.so.7:_ZN3K3b6Device13DeviceManager15findDeviceByUdiERK7QString
libk3bdevice.so.7:_ZN3K3b6Device13DeviceManager16staticMetaObjectE
libk3bdevice.so.7:_ZN3K3b6Device13DeviceManager20setCheckWritingModesEb
libk3bdevice.so.7:_ZN3K3b6Device13DeviceManager20slotSolidDeviceAddedERK7QString
libk3bdevice.so.7:_ZN3K3b6Device13DeviceManager22slotSolidDeviceRemovedERK7QString
libk3bdevice.so.7:_ZN3K3b6Device13DeviceManager5clearEv
libk3bdevice.so.7:_ZN3K3b6Device13DeviceManager7changedEPS1_
libk3bdevice.so.7:_ZN3K3b6Device13DeviceManager7changedEv
libk3bdevice.so.7:_ZN3K3b6Device13DeviceManager7scanBusEv
libk3bdevice.so.7:_ZN3K3b6Device13DeviceManager9addDeviceEPNS0_6DeviceE
libk3bdevice.so.7:_ZN3K3b6Device13DeviceManager9addDeviceERKN5Solid6DeviceE
libk3bdevice.so.7:_ZN3K3b6Device13DeviceManagerC1EP7QObject
libk3bdevice.so.7:_ZN3K3b6Device13DeviceManagerC2EP7QObject
libk3bdevice.so.7:_ZN3K3b6Device13DeviceManagerD0Ev
libk3bdevice.so.7:_ZN3K3b6Device13DeviceManagerD1Ev
libk3bdevice.so.7:_ZN3K3b6Device13DeviceManagerD2Ev
libk3bdevice.so.7:_ZN3K3b6Device13debugBitfieldEPhl
libk3bdevice.so.7:_ZN3K3b6Device15mediaTypeStringEib
libk3bdevice.so.7:_ZN3K3b6Device16deviceTypeStringEi
libk3bdevice.so.7:_ZN3K3b6Device16mediaStateStringEi
libk3bdevice.so.7:_ZN3K3b6Device17writingModeStringEi
libk3bdevice.so.7:_ZN3K3b6Device3Toc5clearEv
libk3bdevice.so.7:_ZN3K3b6Device3Toc6setMcnERK10QByteArray
libk3bdevice.so.7:_ZN3K3b6Device3TocC1ERKS1_
libk3bdevice.so.7:_ZN3K3b6Device3TocC1Ev
libk3bdevice.so.7:_ZN3K3b6Device3TocC2ERKS1_
libk3bdevice.so.7:_ZN3K3b6Device3TocC2Ev
libk3bdevice.so.7:_ZN3K3b6Device3TocD1Ev
libk3bdevice.so.7:_ZN3K3b6Device3TocD2Ev
libk3bdevice.so.7:_ZN3K3b6Device3TocaSERKS1_
libk3bdevice.so.7:_ZN3K3b6Device5Track10setIndicesERK5QListINS_3MsfEE
libk3bdevice.so.7:_ZN3K3b6Device5Track10setSessionEi
libk3bdevice.so.7:_ZN3K3b6Device5Track13setFreeBlocksERKNS_3MsfE
libk3bdevice.so.7:_ZN3K3b6Device5Track13setLastSectorERKNS_3MsfE
libk3bdevice.so.7:_ZN3K3b6Device5Track14setFirstSectorERKNS_3MsfE
libk3bdevice.so.7:_ZN3K3b6Device5Track14setPreEmphasisEb
libk3bdevice.so.7:_ZN3K3b6Device5Track16setCopyPermittedEb
libk3bdevice.so.7:_ZN3K3b6Device5Track22setNextWritableAddressERKNS_3MsfE
libk3bdevice.so.7:_ZN3K3b6Device5Track7setIsrcERK10QByteArray
libk3bdevice.so.7:_ZN3K3b6Device5Track7setModeENS1_8DataModeE
libk3bdevice.so.7:_ZN3K3b6Device5Track7setTypeENS1_9TrackTypeE
libk3bdevice.so.7:_ZN3K3b6Device5Track9setIndex0ERKNS_3MsfE
libk3bdevice.so.7:_ZN3K3b6Device5TrackC1ERKNS_3MsfES4_NS1_9TrackTypeENS1_8DataModeE
libk3bdevice.so.7:_ZN3K3b6Device5TrackC1ERKS1_
libk3bdevice.so.7:_ZN3K3b6Device5TrackC1Ev
libk3bdevice.so.7:_ZN3K3b6Device5TrackC2ERKNS_3MsfES4_NS1_9TrackTypeENS1_8DataModeE
libk3bdevice.so.7:_ZN3K3b6Device5TrackC2ERKS1_
libk3bdevice.so.7:_ZN3K3b6Device5TrackC2Ev
libk3bdevice.so.7:_ZN3K3b6Device5TrackD1Ev
libk3bdevice.so.7:_ZN3K3b6Device5TrackD2Ev
libk3bdevice.so.7:_ZN3K3b6Device5TrackaSERKS1_
libk3bdevice.so.7:_ZN3K3b6Device5toBcdERKc
libk3bdevice.so.7:_ZN3K3b6Device6CdText10setMessageERK7QString
libk3bdevice.so.7:_ZN3K3b6Device6CdText11setArrangerERK7QString
libk3bdevice.so.7:_ZN3K3b6Device6CdText11setComposerERK7QString
libk3bdevice.so.7:_ZN3K3b6Device6CdText12setPerformerERK7QString
libk3bdevice.so.7:_ZN3K3b6Device6CdText13setSongwriterERK7QString
libk3bdevice.so.7:_ZN3K3b6Device6CdText14setRawPackDataEPKhi
libk3bdevice.so.7:_ZN3K3b6Device6CdText14setRawPackDataERK10QByteArray
libk3bdevice.so.7:_ZN3K3b6Device6CdText5clearEv
libk3bdevice.so.7:_ZN3K3b6Device6CdText5trackEi
libk3bdevice.so.7:_ZN3K3b6Device6CdText6insertEiRKNS0_11TrackCdTextE
libk3bdevice.so.7:_ZN3K3b6Device6CdText8checkCrcEPKhi
libk3bdevice.so.7:_ZN3K3b6Device6CdText8checkCrcERK10QByteArray
libk3bdevice.so.7:_ZN3K3b6Device6CdText8setTitleERK7QString
libk3bdevice.so.7:_ZN3K3b6Device6CdText9setDiscIdERK7QString
libk3bdevice.so.7:_ZN3K3b6Device6CdText9setUpcEanERK7QString
libk3bdevice.so.7:_ZN3K3b6Device6CdTextC1EPKhi
libk3bdevice.so.7:_ZN3K3b6Device6CdTextC1ERK10QByteArray
libk3bdevice.so.7:_ZN3K3b6Device6CdTextC1ERKS1_
libk3bdevice.so.7:_ZN3K3b6Device6CdTextC1Ev
libk3bdevice.so.7:_ZN3K3b6Device6CdTextC2EPKhi
libk3bdevice.so.7:_ZN3K3b6Device6CdTextC2ERK10QByteArray
libk3bdevice.so.7:_ZN3K3b6Device6CdTextC2ERKS1_
libk3bdevice.so.7:_ZN3K3b6Device6CdTextC2Ev
libk3bdevice.so.7:_ZN3K3b6Device6CdTextD1Ev
libk3bdevice.so.7:_ZN3K3b6Device6CdTextD2Ev
libk3bdevice.so.7:_ZN3K3b6Device6CdTextaSERKS1_
libk3bdevice.so.7:_ZN3K3b6Device6CdTextixEi
libk3bdevice.so.7:_ZN3K3b6Device6Device11furtherInitEv
libk3bdevice.so.7:_ZN3K3b6Device6Device13checkFeaturesEv
libk3bdevice.so.7:_ZN3K3b6Device6Device15setMaxReadSpeedEi
libk3bdevice.so.7:_ZN3K3b6Device6Device16checkForJustLinkEv
libk3bdevice.so.7:_ZN3K3b6Device6Device16setMaxWriteSpeedEi
libk3bdevice.so.7:_ZN3K3b6Device6Device17checkWritingModesEv
libk3bdevice.so.7:_ZN3K3b6Device6Device18checkFor2AFeaturesEv
libk3bdevice.so.7:_ZN3K3b6Device6Device20setCurrentWriteSpeedEi
libk3bdevice.so.7:_ZN3K3b6Device6Device22checkForAncientWritersEv
libk3bdevice.so.7:_ZN3K3b6Device6Device4initEb
libk3bdevice.so.7:_ZN3K3b6Device6DeviceC1ERKN5Solid6DeviceE
libk3bdevice.so.7:_ZN3K3b6Device6DeviceC2ERKN5Solid6DeviceE
libk3bdevice.so.7:_ZN3K3b6Device6DeviceD1Ev
libk3bdevice.so.7:_ZN3K3b6Device6DeviceD2Ev
libk3bdevice.so.7:_ZN3K3b6Device7fromBcdERKc
libk3bdevice.so.7:_ZN3K3b6Device8DiskInfoC1ERKS1_
libk3bdevice.so.7:_ZN3K3b6Device8DiskInfoC1Ev
libk3bdevice.so.7:_ZN3K3b6Device8DiskInfoC2ERKS1_
libk3bdevice.so.7:_ZN3K3b6Device8DiskInfoC2Ev
libk3bdevice.so.7:_ZN3K3b6Device8DiskInfoD1Ev
libk3bdevice.so.7:_ZN3K3b6Device8DiskInfoD2Ev
libk3bdevice.so.7:_ZN3K3b6Device8DiskInfoaSERKS1_
libk3bdevice.so.7:_ZN3K3b6Device9from2ByteEPKh
libk3bdevice.so.7:_ZN3K3b6Device9from4ByteEPKh
libk3bdevice.so.7:_ZN3K3b6DevicelsER6QDebug6QFlagsINS0_10MediaStateEE
libk3bdevice.so.7:_ZN3K3b6DevicelsER6QDebug6QFlagsINS0_11WritingModeEE
libk3bdevice.so.7:_ZN3K3b6DevicelsER6QDebug6QFlagsINS0_9MediaTypeEE
libk3bdevice.so.7:_ZN3K3b6DevicelsER6QDebugNS0_10MediaStateE
libk3bdevice.so.7:_ZN3K3b6DevicelsER6QDebugNS0_11WritingModeE
libk3bdevice.so.7:_ZN3K3b6DevicelsER6QDebugNS0_9MediaTypeE
libk3bdevice.so.7:_ZN3K3beqERKNS_3MsfES2_
libk3bdevice.so.7:_ZN3K3bgeERKNS_3MsfES2_
libk3bdevice.so.7:_ZN3K3bgtERKNS_3MsfES2_
libk3bdevice.so.7:_ZN3K3bleERKNS_3MsfES2_
libk3bdevice.so.7:_ZN3K3blsER6QDebugRKNS_3MsfE
libk3bdevice.so.7:_ZN3K3bltERKNS_3MsfES2_
libk3bdevice.so.7:_ZN3K3bmiERKNS_3MsfES2_
libk3bdevice.so.7:_ZN3K3bmiERKNS_3MsfEi
libk3bdevice.so.7:_ZN3K3bneERKNS_3MsfES2_
libk3bdevice.so.7:_ZN3K3bplERKNS_3MsfES2_
libk3bdevice.so.7:_ZN3K3bplERKNS_3MsfEi
libk3bdevice.so.7:_ZNK3K3b3Msf10audioBytesEv
libk3bdevice.so.7:_ZNK3K3b3Msf10mode1BytesEv
libk3bdevice.so.7:_ZNK3K3b3Msf10pcmSamplesEv
libk3bdevice.so.7:_ZNK3K3b3Msf11totalFramesEv
libk3bdevice.so.7:_ZNK3K3b3Msf15mode2Form1BytesEv
libk3bdevice.so.7:_ZNK3K3b3Msf15mode2Form2BytesEv
libk3bdevice.so.7:_ZNK3K3b3Msf3lbaEv
libk3bdevice.so.7:_ZNK3K3b3Msf6framesEv
libk3bdevice.so.7:_ZNK3K3b3Msf7minutesEv
libk3bdevice.so.7:_ZNK3K3b3Msf7secondsEv
libk3bdevice.so.7:_ZNK3K3b3Msf8rawBytesEv
libk3bdevice.so.7:_ZNK3K3b3Msf8toStringEb
libk3bdevice.so.7:_ZNK3K3b6Device11TrackCdText10songwriterEv
libk3bdevice.so.7:_ZNK3K3b6Device11TrackCdText4isrcEv
libk3bdevice.so.7:_ZNK3K3b6Device11TrackCdText5titleEv
libk3bdevice.so.7:_ZNK3K3b6Device11TrackCdText7isEmptyEv
libk3bdevice.so.7:_ZNK3K3b6Device11TrackCdText7messageEv
libk3bdevice.so.7:_ZNK3K3b6Device11TrackCdText8arrangerEv
libk3bdevice.so.7:_ZNK3K3b6Device11TrackCdText8composerEv
libk3bdevice.so.7:_ZNK3K3b6Device11TrackCdText9performerEv
libk3bdevice.so.7:_ZNK3K3b6Device11TrackCdTexteqERKS1_
libk3bdevice.so.7:_ZNK3K3b6Device11TrackCdTextneERKS1_
libk3bdevice.so.7:_ZNK3K3b6Device13DeviceManager10allDevicesEv
libk3bdevice.so.7:_ZNK3K3b6Device13DeviceManager10metaObjectEv
libk3bdevice.so.7:_ZNK3K3b6Device13DeviceManager13blueRayReaderEv
libk3bdevice.so.7:_ZNK3K3b6Device13DeviceManager14blueRayWritersEv
libk3bdevice.so.7:_ZNK3K3b6Device13DeviceManager14burningDevicesEv
libk3bdevice.so.7:_ZNK3K3b6Device13DeviceManager14readingDevicesEv
libk3bdevice.so.7:_ZNK3K3b6Device13DeviceManager8cdReaderEv
libk3bdevice.so.7:_ZNK3K3b6Device13DeviceManager8cdWriterEv
libk3bdevice.so.7:_ZNK3K3b6Device13DeviceManager9dvdReaderEv
libk3bdevice.so.7:_ZNK3K3b6Device13DeviceManager9dvdWriterEv
libk3bdevice.so.7:_ZNK3K3b6Device3Toc10lastSectorEv
libk3bdevice.so.7:_ZNK3K3b6Device3Toc11contentTypeEv
libk3bdevice.so.7:_ZNK3K3b6Device3Toc11firstSectorEv
libk3bdevice.so.7:_ZNK3K3b6Device3Toc3mcnEv
libk3bdevice.so.7:_ZNK3K3b6Device3Toc6discIdEv
libk3bdevice.so.7:_ZNK3K3b6Device3Toc6lengthEv
libk3bdevice.so.7:_ZNK3K3b6Device3Toc8sessionsEv
libk3bdevice.so.7:_ZNK3K3b6Device3ToceqERKS1_
libk3bdevice.so.7:_ZNK3K3b6Device3TocneERKS1_
libk3bdevice.so.7:_ZNK3K3b6Device5Track10freeBlocksEv
libk3bdevice.so.7:_ZNK3K3b6Device5Track10indexCountEv
libk3bdevice.so.7:_ZNK3K3b6Device5Track10lastSectorEv
libk3bdevice.so.7:_ZNK3K3b6Device5Track11firstSectorEv
libk3bdevice.so.7:_ZNK3K3b6Device5Track11preEmphasisEv
libk3bdevice.so.7:_ZNK3K3b6Device5Track13copyPermittedEv
libk3bdevice.so.7:_ZNK3K3b6Device5Track15realAudioLengthEv
libk3bdevice.so.7:_ZNK3K3b6Device5Track19nextWritableAddressEv
libk3bdevice.so.7:_ZNK3K3b6Device5Track19recordedIncrementalEv
libk3bdevice.so.7:_ZNK3K3b6Device5Track21recordedUninterruptedEv
libk3bdevice.so.7:_ZNK3K3b6Device5Track4isrcEv
libk3bdevice.so.7:_ZNK3K3b6Device5Track4modeEv
libk3bdevice.so.7:_ZNK3K3b6Device5Track4typeEv
libk3bdevice.so.7:_ZNK3K3b6Device5Track6index0Ev
libk3bdevice.so.7:_ZNK3K3b6Device5Track6lengthEv
libk3bdevice.so.7:_ZNK3K3b6Device5Track7indicesEv
libk3bdevice.so.7:_ZNK3K3b6Device5Track7sessionEv
libk3bdevice.so.7:_ZNK3K3b6Device5TrackeqERKS1_
libk3bdevice.so.7:_ZNK3K3b6Device5TrackneERKS1_
libk3bdevice.so.7:_ZNK3K3b6Device6CdText10songwriterEv
libk3bdevice.so.7:_ZNK3K3b6Device6CdText11rawPackDataEv
libk3bdevice.so.7:_ZNK3K3b6Device6CdText5countEv
libk3bdevice.so.7:_ZNK3K3b6Device6CdText5debugEv
libk3bdevice.so.7:_ZNK3K3b6Device6CdText5emptyEv
libk3bdevice.so.7:_ZNK3K3b6Device6CdText5titleEv
libk3bdevice.so.7:_ZNK3K3b6Device6CdText5trackEi
libk3bdevice.so.7:_ZNK3K3b6Device6CdText6discIdEv
libk3bdevice.so.7:_ZNK3K3b6Device6CdText6upcEanEv
libk3bdevice.so.7:_ZNK3K3b6Device6CdText7Private14createPackDataEiRi
libk3bdevice.so.7:_ZNK3K3b6Device6CdText7Private15textForPackTypeEii
libk3bdevice.so.7:_ZNK3K3b6Device6CdText7Private21textLengthForPackTypeEi
libk3bdevice.so.7:_ZNK3K3b6Device6CdText7isEmptyEv
libk3bdevice.so.7:_ZNK3K3b6Device6CdText7messageEv
libk3bdevice.so.7:_ZNK3K3b6Device6CdText8arrangerEv
libk3bdevice.so.7:_ZNK3K3b6Device6CdText8composerEv
libk3bdevice.so.7:_ZNK3K3b6Device6CdText9performerEv
libk3bdevice.so.7:_ZNK3K3b6Device6CdTexteqERKS1_
libk3bdevice.so.7:_ZNK3K3b6Device6CdTextixEi
libk3bdevice.so.7:_ZNK3K3b6Device6CdTextneERKS1_
libk3bdevice.so.7:_ZNK3K3b6Device6Device10bufferSizeEv
libk3bdevice.so.7:_ZNK3K3b6Device6Device10getFeatureER15QVarLengthArrayIhLi256EEj
libk3bdevice.so.7:_ZNK3K3b6Device6Device10modeSelectER15QVarLengthArrayIhLi256EEbb
libk3bdevice.so.7:_ZNK3K3b6Device6Device10readCdTextEv
libk3bdevice.so.7:_ZNK3K3b6Device6Device10readRawTocERNS0_3TocE
libk3bdevice.so.7:_ZNK3K3b6Device6Device10rewritableEv
libk3bdevice.so.7:_ZNK3K3b6Device6Device10writesCdrwEv
libk3bdevice.so.7:_ZNK3K3b6Device6Device11descriptionEv
libk3bdevice.so.7:_ZNK3K3b6Device6Device11getDataModeERKNS_3MsfE
libk3bdevice.so.7:_ZNK3K3b6Device6Device11numSessionsEv
libk3bdevice.so.7:_ZNK3K3b6Device6Device11readIsrcMcnERNS0_3TocE
libk3bdevice.so.7:_ZNK3K3b6Device6Device11solidDeviceEv
libk3bdevice.so.7:_ZNK3K3b6Device6Device11usageUnlockEv
libk3bdevice.so.7:_ZNK3K3b6Device6Device12maxReadSpeedEv
libk3bdevice.so.7:_ZNK3K3b6Device6Device12readCapacityERNS_3MsfE
libk3bdevice.so.7:_ZNK3K3b6Device6Device12readTocLinuxERNS0_3TocE
libk3bdevice.so.7:_ZNK3K3b6Device6Device12searchIndex0EmmRl
libk3bdevice.so.7:_ZNK3K3b6Device6Device12solidStorageEv
libk3bdevice.so.7:_ZNK3K3b6Device6Device12writingModesEv
libk3bdevice.so.7:_ZNK3K3b6Device6Device13maxWriteSpeedEv
libk3bdevice.so.7:_ZNK3K3b6Device6Device13readRawCdTextEPb
libk3bdevice.so.7:_ZNK3K3b6Device6Device13testUnitReadyEv
libk3bdevice.so.7:_ZNK3K3b6Device6Device13writesDvdPlusEv
libk3bdevice.so.7:_ZNK3K3b6Device6Device14currentProfileEv
libk3bdevice.so.7:_ZNK3K3b6Device6Device14featureCurrentEj
libk3bdevice.so.7:_ZNK3K3b6Device6Device14getPerformanceER15QVarLengthArrayIhLi256EEjjj
libk3bdevice.so.7:_ZNK3K3b6Device6Device14readSectorsRawEPhii
libk3bdevice.so.7:_ZNK3K3b6Device6Device14readSubChannelER15QVarLengthArrayIhLi256EEjj
libk3bdevice.so.7:_ZNK3K3b6Device6Device14readTocPmaAtipER15QVarLengthArrayIhLi256EEibi
libk3bdevice.so.7:_ZNK3K3b6Device6Device14writesDvdMinusEv
libk3bdevice.so.7:_ZNK3K3b6Device6Device15blockDeviceNameEv
libk3bdevice.so.7:_ZNK3K3b6Device6Device15mechanismStatusER15QVarLengthArrayIhLi256EE
libk3bdevice.so.7:_ZNK3K3b6Device6Device16getTrackDataModeERKNS0_5TrackE
libk3bdevice.so.7:_ZNK3K3b6Device6Device16readCapabilitiesEv
libk3bdevice.so.7:_ZNK3K3b6Device6Device16readDvdStructureER15QVarLengthArrayIhLi256EEjjmj
libk3bdevice.so.7:_ZNK3K3b6Device6Device16readFormattedTocERNS0_3TocEi
libk3bdevice.so.7:_ZNK3K3b6Device6Device17currentWriteSpeedEv
libk3bdevice.so.7:_ZNK3K3b6Device6Device17dvdMinusTestwriteEv
libk3bdevice.so.7:_ZNK3K3b6Device6Device17readDiscStructureER15QVarLengthArrayIhLi256EEjjjmj
libk3bdevice.so.7:_ZNK3K3b6Device6Device17supportedProfilesEv
libk3bdevice.so.7:_ZNK3K3b6Device6Device17writeCapabilitiesEv
libk3bdevice.so.7:_ZNK3K3b6Device6Device18readBufferCapacityERxS2_
libk3bdevice.so.7:_ZNK3K3b6Device6Device18readFormatCapacityEiRNS_3MsfEPS2_Pi
libk3bdevice.so.7:_ZNK3K3b6Device6Device18supportsRawWritingEv
libk3bdevice.so.7:_ZNK3K3b6Device6Device19nextWritableAddressEv
libk3bdevice.so.7:_ZNK3K3b6Device6Device19readDiscInformationER15QVarLengthArrayIhLi256EE
libk3bdevice.so.7:_ZNK3K3b6Device6Device19setAutoEjectEnabledEb
libk3bdevice.so.7:_ZNK3K3b6Device6Device20readTrackInformationER15QVarLengthArrayIhLi256EEii
libk3bdevice.so.7:_ZNK3K3b6Device6Device21getMaxWriteSpeedVia2AEv
libk3bdevice.so.7:_ZNK3K3b6Device6Device21getNextWritableAdressERjS2_
libk3bdevice.so.7:_ZNK3K3b6Device6Device22searchIndexTransitionsEllRNS0_5TrackE
libk3bdevice.so.7:_ZNK3K3b6Device6Device23rawTocDataWithBcdValuesERK15QVarLengthArrayIhLi256EE
libk3bdevice.so.7:_ZNK3K3b6Device6Device26determineMaximalWriteSpeedEv
libk3bdevice.so.7:_ZNK3K3b6Device6Device28getSupportedWriteSpeedsVia2AER5QListIiENS0_9MediaTypeE
libk3bdevice.so.7:_ZNK3K3b6Device6Device28getSupportedWriteSpeedsViaGPER5QListIiENS0_9MediaTypeE
libk3bdevice.so.7:_ZNK3K3b6Device6Device29copyrightProtectionSystemTypeEv
libk3bdevice.so.7:_ZNK3K3b6Device6Device29determineSupportedWriteSpeedsEv
libk3bdevice.so.7:_ZNK3K3b6Device6Device3daoEv
libk3bdevice.so.7:_ZNK3K3b6Device6Device4loadEv
libk3bdevice.so.7:_ZNK3K3b6Device6Device4openEb
libk3bdevice.so.7:_ZNK3K3b6Device6Device4seekEm
libk3bdevice.so.7:_ZNK3K3b6Device6Device4typeEv
libk3bdevice.so.7:_ZNK3K3b6Device6Device5blockEb
libk3bdevice.so.7:_ZNK3K3b6Device6Device5closeEv
libk3bdevice.so.7:_ZNK3K3b6Device6Device5ejectEv
libk3bdevice.so.7:_ZNK3K3b6Device6Device5isDVDEv
libk3bdevice.so.7:_ZNK3K3b6Device6Device6burnerEv
libk3bdevice.so.7:_ZNK3K3b6Device6Device6handleEv
libk3bdevice.so.7:_ZNK3K3b6Device6Device6isOpenEv
libk3bdevice.so.7:_ZNK3K3b6Device6Device6read10EPhjmjb
libk3bdevice.so.7:_ZNK3K3b6Device6Device6read12EPhjmmbb
libk3bdevice.so.7:_ZNK3K3b6Device6Device6readCdEPhjibmmbbbbbii
libk3bdevice.so.7:_ZNK3K3b6Device6Device6vendorEv
libk3bdevice.so.7:_ZNK3K3b6Device6Device7isEmptyEv
libk3bdevice.so.7:_ZNK3K3b6Device6Device7mediaIdEi
libk3bdevice.so.7:_ZNK3K3b6Device6Device7readMcnER10QByteArray
libk3bdevice.so.7:_ZNK3K3b6Device6Device7readTocEv
libk3bdevice.so.7:_ZNK3K3b6Device6Device7versionEv
libk3bdevice.so.7:_ZNK3K3b6Device6Device8burnfreeEv
libk3bdevice.so.7:_ZNK3K3b6Device6Device8diskInfoEv
libk3bdevice.so.7:_ZNK3K3b6Device6Device8fixupTocERNS0_3TocE
libk3bdevice.so.7:_ZNK3K3b6Device6Device8getIndexEm
libk3bdevice.so.7:_ZNK3K3b6Device6Device8readIsrcEjR10QByteArray
libk3bdevice.so.7:_ZNK3K3b6Device6Device8readsDvdEv
libk3bdevice.so.7:_ZNK3K3b6Device6Device8setSpeedEjjb
libk3bdevice.so.7:_ZNK3K3b6Device6Device8writesCdEv
libk3bdevice.so.7:_ZNK3K3b6Device6Device9burnproofEv
libk3bdevice.so.7:_ZNK3K3b6Device6Device9indexScanERNS0_3TocE
libk3bdevice.so.7:_ZNK3K3b6Device6Device9mediaTypeEv
libk3bdevice.so.7:_ZNK3K3b6Device6Device9modeSenseER15QVarLengthArrayIhLi256EEi
libk3bdevice.so.7:_ZNK3K3b6Device6Device9readCdMsfEPhjibRKNS_3MsfES5_bbbbbii
libk3bdevice.so.7:_ZNK3K3b6Device6Device9usageLockEv
libk3bdevice.so.7:_ZNK3K3b6Device6Device9writesDvdEv
libk3bdevice.so.7:_ZNK3K3b6Device8DiskInfo10appendableEv
libk3bdevice.so.7:_ZNK3K3b6Device8DiskInfo10rewritableEv
libk3bdevice.so.7:_ZNK3K3b6Device8DiskInfo11numSessionsEv
libk3bdevice.so.7:_ZNK3K3b6Device8DiskInfo13bgFormatStateEv
libk3bdevice.so.7:_ZNK3K3b6Device8DiskInfo13remainingSizeEv
libk3bdevice.so.7:_ZNK3K3b6Device8DiskInfo14currentProfileEv
libk3bdevice.so.7:_ZNK3K3b6Device8DiskInfo14firstLayerSizeEv
libk3bdevice.so.7:_ZNK3K3b6Device8DiskInfo16lastSessionStateEv
libk3bdevice.so.7:_ZNK3K3b6Device8DiskInfo4sizeEv
libk3bdevice.so.7:_ZNK3K3b6Device8DiskInfo5debugEv
libk3bdevice.so.7:_ZNK3K3b6Device8DiskInfo5emptyEv
libk3bdevice.so.7:_ZNK3K3b6Device8DiskInfo7mediaIdEv
libk3bdevice.so.7:_ZNK3K3b6Device8DiskInfo8capacityEv
libk3bdevice.so.7:_ZNK3K3b6Device8DiskInfo9diskStateEv
libk3bdevice.so.7:_ZNK3K3b6Device8DiskInfo9mediaTypeEv
libk3bdevice.so.7:_ZNK3K3b6Device8DiskInfo9numLayersEv
libk3bdevice.so.7:_ZNK3K3b6Device8DiskInfo9numTracksEv
libk3bdevice.so.7:_ZNK3K3b6Device8DiskInfoeqERKS1_
libk3bdevice.so.7:_ZNK3K3b6Device8DiskInfoneERKS1_
libk3bdevice.so.7:_Zls6QDebugRKN3K3b6Device3TocE
libk3bdevice.so.7:_Zls6QDebugRKN3K3b6Device5TrackE
libk3blib.so.7:_ZN11K3bKProcess10setProgramERK11QStringList
libk3blib.so.7:_ZN11K3bKProcess10setProgramERK7QStringRK11QStringList
libk3blib.so.7:_ZN11K3bKProcess11qt_metacallEN11QMetaObject4CallEiPPv
libk3blib.so.7:_ZN11K3bKProcess11qt_metacastEPKc
libk3blib.so.7:_ZN11K3bKProcess12clearProgramEv
libk3blib.so.7:_ZN11K3bKProcess13startDetachedERK11QStringList
libk3blib.so.7:_ZN11K3bKProcess13startDetachedERK7QStringRK11QStringList
libk3blib.so.7:_ZN11K3bKProcess13startDetachedEv
libk3blib.so.7:_ZN11K3bKProcess15setNextOpenModeE6QFlagsIN9QIODevice12OpenModeFlagEE
libk3blib.so.7:_ZN11K3bKProcess15setShellCommandERK7QString
libk3blib.so.7:_ZN11K3bKProcess16clearEnvironmentEv
libk3blib.so.7:_ZN11K3bKProcess16staticMetaObjectE
libk3blib.so.7:_ZN11K3bKProcess20setOutputChannelModeEN8KProcess17OutputChannelModeE
libk3blib.so.7:_ZN11K3bKProcess5startEv
libk3blib.so.7:_ZN11K3bKProcess6setEnvERK7QStringS2_b
libk3blib.so.7:_ZN11K3bKProcess7executeERK11QStringListi
libk3blib.so.7:_ZN11K3bKProcess7executeERK7QStringRK11QStringListi
libk3blib.so.7:_ZN11K3bKProcess7executeEi
libk3blib.so.7:_ZN11K3bKProcess8unsetEnvERK7QString
libk3blib.so.7:_ZN11K3bKProcessC1EP18K3bKProcessPrivateP7QObject
libk3blib.so.7:_ZN11K3bKProcessC1EP7QObject
libk3blib.so.7:_ZN11K3bKProcessC2EP18K3bKProcessPrivateP7QObject
libk3blib.so.7:_ZN11K3bKProcessC2EP7QObject
libk3blib.so.7:_ZN11K3bKProcessD0Ev
libk3blib.so.7:_ZN11K3bKProcessD1Ev
libk3blib.so.7:_ZN11K3bKProcessD2Ev
libk3blib.so.7:_ZN11K3bKProcesslsERK11QStringList
libk3blib.so.7:_ZN11K3bKProcesslsERK7QString
libk3blib.so.7:_ZN11K3bQProcess10readyWriteEv
libk3blib.so.7:_ZN11K3bQProcess11qt_metacallEN11QMetaObject4CallEiPPv
libk3blib.so.7:_ZN11K3bQProcess11qt_metacastEPKc
libk3blib.so.7:_ZN11K3bQProcess12stateChangedEN8QProcess12ProcessStateE
libk3blib.so.7:_ZN11K3bQProcess13startDetachedERK7QString
libk3blib.so.7:_ZN11K3bQProcess13startDetachedERK7QStringRK11QStringList
libk3blib.so.7:_ZN11K3bQProcess13startDetachedERK7QStringRK11QStringListS2_Px
libk3blib.so.7:_ZN11K3bQProcess14setEnvironmentERK11QStringList
libk3blib.so.7:_ZN11K3bQProcess14setReadChannelEN8QProcess14ProcessChannelE
libk3blib.so.7:_ZN11K3bQProcess14waitForStartedEi
libk3blib.so.7:_ZN11K3bQProcess15setProcessStateEN8QProcess12ProcessStateE
libk3blib.so.7:_ZN11K3bQProcess15waitForFinishedEi
libk3blib.so.7:_ZN11K3bQProcess16closeReadChannelEN8QProcess14ProcessChannelE
libk3blib.so.7:_ZN11K3bQProcess16staticMetaObjectE
libk3blib.so.7:_ZN11K3bQProcess16waitForReadyReadEi
libk3blib.so.7:_ZN11K3bQProcess17closeWriteChannelEv
libk3blib.so.7:_ZN11K3bQProcess17setupChildProcessEv
libk3blib.so.7:_ZN11K3bQProcess17systemEnvironmentEv
libk3blib.so.7:_ZN11K3bQProcess18setReadChannelModeEN8QProcess18ProcessChannelModeE
libk3blib.so.7:_ZN11K3bQProcess19setWorkingDirectoryERK7QString
libk3blib.so.7:_ZN11K3bQProcess19waitForBytesWrittenEi
libk3blib.so.7:_ZN11K3bQProcess20readAllStandardErrorEv
libk3blib.so.7:_ZN11K3bQProcess20setStandardErrorFileERK7QString6QFlagsIN9QIODevice12OpenModeFlagEE
libk3blib.so.7:_ZN11K3bQProcess20setStandardInputFileERK7QString
libk3blib.so.7:_ZN11K3bQProcess21readAllStandardOutputEv
libk3blib.so.7:_ZN11K3bQProcess21setProcessChannelModeEN8QProcess18ProcessChannelModeE
libk3blib.so.7:_ZN11K3bQProcess21setStandardOutputFileERK7QString6QFlagsIN9QIODevice12OpenModeFlagEE
libk3blib.so.7:_ZN11K3bQProcess22readyReadStandardErrorEv
libk3blib.so.7:_ZN11K3bQProcess23readyReadStandardOutputEv
libk3blib.so.7:_ZN11K3bQProcess24setStandardOutputProcessEPS_
libk3blib.so.7:_ZN11K3bQProcess4killEv
libk3blib.so.7:_ZN11K3bQProcess5closeEv
libk3blib.so.7:_ZN11K3bQProcess5errorEN8QProcess12ProcessErrorE
libk3blib.so.7:_ZN11K3bQProcess5startERK7QString6QFlagsIN9QIODevice12OpenModeFlagEE
libk3blib.so.7:_ZN11K3bQProcess5startERK7QStringRK11QStringList6QFlagsIN9QIODevice12OpenModeFlagEE
libk3blib.so.7:_ZN11K3bQProcess7executeERK7QString
libk3blib.so.7:_ZN11K3bQProcess7executeERK7QStringRK11QStringList
libk3blib.so.7:_ZN11K3bQProcess7startedEv
libk3blib.so.7:_ZN11K3bQProcess8finishedEi
libk3blib.so.7:_ZN11K3bQProcess8finishedEiN8QProcess10ExitStatusE
libk3blib.so.7:_ZN11K3bQProcess8readDataEPcx
libk3blib.so.7:_ZN11K3bQProcess8setFlagsE6QFlagsINS_11ProcessFlagEE
libk3blib.so.7:_ZN11K3bQProcess9terminateEv
libk3blib.so.7:_ZN11K3bQProcess9writeDataEPKcx
libk3blib.so.7:_ZN11K3bQProcessC1EP7QObject
libk3blib.so.7:_ZN11K3bQProcessC2EP7QObject
libk3blib.so.7:_ZN11K3bQProcessD0Ev
libk3blib.so.7:_ZN11K3bQProcessD1Ev
libk3blib.so.7:_ZN11K3bQProcessD2Ev
libk3blib.so.7:_ZN3K3b10ActivePipe11qt_metacallEN11QMetaObject4CallEiPPv
libk3blib.so.7:_ZN3K3b10ActivePipe11qt_metacastEPKc
libk3blib.so.7:_ZN3K3b10ActivePipe16staticMetaObjectE
libk3blib.so.7:_ZN3K3b10ActivePipe4openE6QFlagsIN9QIODevice12OpenModeFlagEE
libk3blib.so.7:_ZN3K3b10ActivePipe4openEb
libk3blib.so.7:_ZN3K3b10ActivePipe5closeEv
libk3blib.so.7:_ZN3K3b10ActivePipe7writeToEP9QIODeviceb
libk3blib.so.7:_ZN3K3b10ActivePipe8readDataEPcx
libk3blib.so.7:_ZN3K3b10ActivePipe8readFromEP9QIODeviceb
libk3blib.so.7:_ZN3K3b10ActivePipe9writeDataEPKcx
libk3blib.so.7:_ZN3K3b10ActivePipeC1Ev
libk3blib.so.7:_ZN3K3b10ActivePipeC2Ev
libk3blib.so.7:_ZN3K3b10ActivePipeD0Ev
libk3blib.so.7:_ZN3K3b10ActivePipeD1Ev
libk3blib.so.7:_ZN3K3b10ActivePipeD2Ev
libk3blib.so.7:_ZN3K3b10AudioTrack11emitChangedEv
libk3blib.so.7:_ZN3K3b10AudioTrack11qt_metacallEN11QMetaObject4CallEiPPv
libk3blib.so.7:_ZN3K3b10AudioTrack11qt_metacastEPKc
libk3blib.so.7:_ZN3K3b10AudioTrack11setArrangerERK7QString
libk3blib.so.7:_ZN3K3b10AudioTrack11setComposerERK7QString
libk3blib.so.7:_ZN3K3b10AudioTrack11sourceAddedEi
libk3blib.so.7:_ZN3K3b10AudioTrack12createReaderEP7QObject
libk3blib.so.7:_ZN3K3b10AudioTrack12setPerformerERK7QString
libk3blib.so.7:_ZN3K3b10AudioTrack13setSongwriterERK7QString
libk3blib.so.7:_ZN3K3b10AudioTrack13sourceChangedEPNS_15AudioDataSourceE
libk3blib.so.7:_ZN3K3b10AudioTrack13sourceRemovedEi
libk3blib.so.7:_ZN3K3b10AudioTrack14setFirstSourceEPNS_15AudioDataSourceE
libk3blib.so.7:_ZN3K3b10AudioTrack15emitSourceAddedEPNS_15AudioDataSourceE
libk3blib.so.7:_ZN3K3b10AudioTrack15setIndex0OffsetERKNS_3MsfE
libk3blib.so.7:_ZN3K3b10AudioTrack16setCdTextMessageERK7QString
libk3blib.so.7:_ZN3K3b10AudioTrack16staticMetaObjectE
libk3blib.so.7:_ZN3K3b10AudioTrack17emitSourceRemovedEPNS_15AudioDataSourceE
libk3blib.so.7:_ZN3K3b10AudioTrack17setCopyProtectionEb
libk3blib.so.7:_ZN3K3b10AudioTrack20sourceAboutToBeAddedEi
libk3blib.so.7:_ZN3K3b10AudioTrack22sourceAboutToBeRemovedEi
libk3blib.so.7:_ZN3K3b10AudioTrack24emitSourceAboutToBeAddedEi
libk3blib.so.7:_ZN3K3b10AudioTrack26emitSourceAboutToBeRemovedEPNS_15AudioDataSourceE
libk3blib.so.7:_ZN3K3b10AudioTrack4takeEv
libk3blib.so.7:_ZN3K3b10AudioTrack5debugEv
libk3blib.so.7:_ZN3K3b10AudioTrack5mergeEPS0_PNS_15AudioDataSourceE
libk3blib.so.7:_ZN3K3b10AudioTrack5splitERKNS_3MsfE
libk3blib.so.7:_ZN3K3b10AudioTrack7changedEv
libk3blib.so.7:_ZN3K3b10AudioTrack7setIsrcERK7QString
libk3blib.so.7:_ZN3K3b10AudioTrack8setTitleERK7QString
libk3blib.so.7:_ZN3K3b10AudioTrack9addSourceEPNS_15AudioDataSourceE
libk3blib.so.7:_ZN3K3b10AudioTrack9moveAfterEPS0_
libk3blib.so.7:_ZN3K3b10AudioTrack9moveAheadEPS0_
libk3blib.so.7:_ZN3K3b10AudioTrack9setArtistERK7QString
libk3blib.so.7:_ZN3K3b10AudioTrack9setCdTextERKNS_6Device11TrackCdTextE
libk3blib.so.7:_ZN3K3b10AudioTrack9setIndex0ERKNS_3MsfE
libk3blib.so.7:_ZN3K3b10AudioTrack9setParentEPNS_8AudioDocE
libk3blib.so.7:_ZN3K3b10AudioTrack9setPreEmpEb
libk3blib.so.7:_ZN3K3b10AudioTrackC1EPNS_8AudioDocE
libk3blib.so.7:_ZN3K3b10AudioTrackC1Ev
libk3blib.so.7:_ZN3K3b10AudioTrackC2EPNS_8AudioDocE
libk3blib.so.7:_ZN3K3b10AudioTrackC2Ev
libk3blib.so.7:_ZN3K3b10AudioTrackD0Ev
libk3blib.so.7:_ZN3K3b10AudioTrackD1Ev
libk3blib.so.7:_ZN3K3b10AudioTrackD2Ev
libk3blib.so.7:_ZN3K3b10BusyWidget10paintEventEP11QPaintEvent
libk3blib.so.7:_ZN3K3b10BusyWidget11animateBusyEv
libk3blib.so.7:_ZN3K3b10BusyWidget11qt_metacallEN11QMetaObject4CallEiPPv
libk3blib.so.7:_ZN3K3b10BusyWidget11qt_metacastEPKc
libk3blib.so.7:_ZN3K3b10BusyWidget16staticMetaObjectE
libk3blib.so.7:_ZN3K3b10BusyWidget8showBusyEb
libk3blib.so.7:_ZN3K3b10BusyWidgetC1EP7QWidget
libk3blib.so.7:_ZN3K3b10BusyWidgetC2EP7QWidget
libk3blib.so.7:_ZN3K3b10BusyWidgetD0Ev
libk3blib.so.7:_ZN3K3b10BusyWidgetD1Ev
libk3blib.so.7:_ZN3K3b10BusyWidgetD2Ev
libk3blib.so.7:_ZN3K3b10DirSizeJob10countFilesERK11QStringListRK7QString
libk3blib.so.7:_ZN3K3b10DirSizeJob11qt_metacallEN11QMetaObject4CallEiPPv
libk3blib.so.7:_ZN3K3b10DirSizeJob11qt_metacastEPKc
libk3blib.so.7:_ZN3K3b10DirSizeJob16staticMetaObjectE
libk3blib.so.7:_ZN3K3b10DirSizeJob17setFollowSymlinksEb
libk3blib.so.7:_ZN3K3b10DirSizeJob3runEv
libk3blib.so.7:_ZN3K3b10DirSizeJob7setUrlsERK5QListI4QUrlE
libk3blib.so.7:_ZN3K3b10DirSizeJob8countDirERK7QString
libk3blib.so.7:_ZN3K3b10DirSizeJobC1EP7QObject
libk3blib.so.7:_ZN3K3b10DirSizeJobC2EP7QObject
libk3blib.so.7:_ZN3K3b10DirSizeJobD0Ev
libk3blib.so.7:_ZN3K3b10DirSizeJobD1Ev
libk3blib.so.7:_ZN3K3b10DirSizeJobD2Ev
libk3blib.so.7:_ZN3K3b10DvdCopyJob10waitForDvdEv
libk3blib.so.7:_ZN3K3b10DvdCopyJob11qt_metacallEN11QMetaObject4CallEiPPv
libk3blib.so.7:_ZN3K3b10DvdCopyJob11qt_metacastEPKc
libk3blib.so.7:_ZN3K3b10DvdCopyJob13prepareReaderEv
libk3blib.so.7:_ZN3K3b10DvdCopyJob13prepareWriterEv
libk3blib.so.7:_ZN3K3b10DvdCopyJob13setVerifyDataEb
libk3blib.so.7:_ZN3K3b10DvdCopyJob16removeImageFilesEv
libk3blib.so.7:_ZN3K3b10DvdCopyJob16staticMetaObjectE
libk3blib.so.7:_ZN3K3b10DvdCopyJob17slotDiskInfoReadyEPNS_6Device13DeviceHandlerE
libk3blib.so.7:_ZN3K3b10DvdCopyJob18slotReaderFinishedEb
libk3blib.so.7:_ZN3K3b10DvdCopyJob18slotReaderProgressEi
libk3blib.so.7:_ZN3K3b10DvdCopyJob18slotWriterFinishedEb
libk3blib.so.7:_ZN3K3b10DvdCopyJob18slotWriterProgressEi
libk3blib.so.7:_ZN3K3b10DvdCopyJob23slotReaderProcessedSizeEii
libk3blib.so.7:_ZN3K3b10DvdCopyJob24slotVerificationFinishedEb
libk3blib.so.7:_ZN3K3b10DvdCopyJob24slotVerificationProgressEi
libk3blib.so.7:_ZN3K3b10DvdCopyJob5startEv
libk3blib.so.7:_ZN3K3b10DvdCopyJob6cancelEv
libk3blib.so.7:_ZN3K3b10DvdCopyJobC1EPNS_10JobHandlerEP7QObject
libk3blib.so.7:_ZN3K3b10DvdCopyJobC2EPNS_10JobHandlerEP7QObject
libk3blib.so.7:_ZN3K3b10DvdCopyJobD0Ev
libk3blib.so.7:_ZN3K3b10DvdCopyJobD1Ev
libk3blib.so.7:_ZN3K3b10DvdCopyJobD2Ev
libk3blib.so.7:_ZN3K3b10IsoOptions4loadERK12KConfigGroupb
libk3blib.so.7:_ZN3K3b10IsoOptions4saveE12KConfigGroupb
libk3blib.so.7:_ZN3K3b10IsoOptions8defaultsEv
libk3blib.so.7:_ZN3K3b10IsoOptionsC1Ev
libk3blib.so.7:_ZN3K3b10IsoOptionsC2Ev
libk3blib.so.7:_ZN3K3b10KJobBridge11qt_metacallEN11QMetaObject4CallEiPPv
libk3blib.so.7:_ZN3K3b10KJobBridge11qt_metacastEPKc
libk3blib.so.7:_ZN3K3b10KJobBridge11slotNewTaskERK7QString
libk3blib.so.7:_ZN3K3b10KJobBridge11slotPercentEi
libk3blib.so.7:_ZN3K3b10KJobBridge12slotFinishedEb
libk3blib.so.7:_ZN3K3b10KJobBridge15slotInfoMessageERK7QStringi
libk3blib.so.7:_ZN3K3b10KJobBridge16staticMetaObjectE
libk3blib.so.7:_ZN3K3b10KJobBridge17slotProcessedSizeEii
libk3blib.so.7:_ZN3K3b10KJobBridge5startEv
libk3blib.so.7:_ZN3K3b10KJobBridge6doKillEv
libk3blib.so.7:_ZN3K3b10KJobBridgeC1ERNS_3JobE
libk3blib.so.7:_ZN3K3b10KJobBridgeC2ERNS_3JobE
libk3blib.so.7:_ZN3K3b10KJobBridgeD0Ev
libk3blib.so.7:_ZN3K3b10KJobBridgeD1Ev
libk3blib.so.7:_ZN3K3b10KJobBridgeD2Ev
libk3blib.so.7:_ZN3K3b10MediaCache10PollThread11qt_metacallEN11QMetaObject4CallEiPPv
libk3blib.so.7:_ZN3K3b10MediaCache10PollThread11qt_metacastEPKc
libk3blib.so.7:_ZN3K3b10MediaCache10PollThread13mediumChangedEPNS_6Device6DeviceE
libk3blib.so.7:_ZN3K3b10MediaCache10PollThread14checkingMediumEPNS_6Device6DeviceERK7QString
libk3blib.so.7:_ZN3K3b10MediaCache10PollThread16staticMetaObjectE
libk3blib.so.7:_ZN3K3b10MediaCache10PollThread3runEv
libk3blib.so.7:_ZN3K3b10MediaCache10lookupCddbEPNS_6Device6DeviceE
libk3blib.so.7:_ZN3K3b10MediaCache11DeviceEntryC1EPS0_PNS_6Device6DeviceE
libk3blib.so.7:_ZN3K3b10MediaCache11DeviceEntryC2EPS0_PNS_6Device6DeviceE
libk3blib.so.7:_ZN3K3b10MediaCache11DeviceEntryD1Ev
libk3blib.so.7:_ZN3K3b10MediaCache11DeviceEntryD2Ev
libk3blib.so.7:_ZN3K3b10MediaCache11blockDeviceEPNS_6Device6DeviceE
libk3blib.so.7:_ZN3K3b10MediaCache11qt_metacallEN11QMetaObject4CallEiPPv
libk3blib.so.7:_ZN3K3b10MediaCache11qt_metacastEPKc
libk3blib.so.7:_ZN3K3b10MediaCache11resetDeviceEPNS_6Device6DeviceE
libk3blib.so.7:_ZN3K3b10MediaCache12mediumStringEPNS_6Device6DeviceEb
libk3blib.so.7:_ZN3K3b10MediaCache13mediumChangedEPNS_6Device6DeviceE
libk3blib.so.7:_ZN3K3b10MediaCache13unblockDeviceEPNS_6Device6DeviceEi
libk3blib.so.7:_ZN3K3b10MediaCache13writingSpeedsEPNS_6Device6DeviceE
libk3blib.so.7:_ZN3K3b10MediaCache14checkingMediumEPNS_6Device6DeviceERK7QString
libk3blib.so.7:_ZN3K3b10MediaCache15buildDeviceListEPNS_6Device13DeviceManagerE
libk3blib.so.7:_ZN3K3b10MediaCache15clearDeviceListEv
libk3blib.so.7:_ZN3K3b10MediaCache15findDeviceEntryEPNS_6Device6DeviceE
libk3blib.so.7:_ZN3K3b10MediaCache16staticMetaObjectE
libk3blib.so.7:_ZN3K3b10MediaCache17mediumCddbChangedEPNS_6Device6DeviceE
libk3blib.so.7:_ZN3K3b10MediaCache3tocEPNS_6Device6DeviceE
libk3blib.so.7:_ZN3K3b10MediaCache6cdTextEPNS_6Device6DeviceE
libk3blib.so.7:_ZN3K3b10MediaCache6mediumEPNS_6Device6DeviceE
libk3blib.so.7:_ZN3K3b10MediaCache7Private16_k_mediumChangedEPNS_6Device6DeviceE
libk3blib.so.7:_ZN3K3b10MediaCache7Private18_k_cddbJobFinishedEP4KJob
libk3blib.so.7:_ZN3K3b10MediaCache8diskInfoEPNS_6Device6DeviceE
libk3blib.so.7:_ZN3K3b10MediaCache9isBlockedEPNS_6Device6DeviceE
libk3blib.so.7:_ZN3K3b10MediaCacheC1EP7QObject
libk3blib.so.7:_ZN3K3b10MediaCacheC2EP7QObject
libk3blib.so.7:_ZN3K3b10MediaCacheD0Ev
libk3blib.so.7:_ZN3K3b10MediaCacheD1Ev
libk3blib.so.7:_ZN3K3b10MediaCacheD2Ev
libk3blib.so.7:_ZN3K3b10MetaWriter10informUserEv
libk3blib.so.7:_ZN3K3b10MetaWriter10setCueFileERK7QString
libk3blib.so.7:_ZN3K3b10MetaWriter11qt_metacallEN11QMetaObject4CallEiPPv
libk3blib.so.7:_ZN3K3b10MetaWriter11qt_metacastEPKc
libk3blib.so.7:_ZN3K3b10MetaWriter13setLayerBreakEx
libk3blib.so.7:_ZN3K3b10MetaWriter13setWritingAppENS_10WritingAppE
libk3blib.so.7:_ZN3K3b10MetaWriter14setWritingModeENS_11WritingModeE
libk3blib.so.7:_ZN3K3b10MetaWriter14setupCdrdaoJobEv
libk3blib.so.7:_ZN3K3b10MetaWriter15setMultiSessionEb
libk3blib.so.7:_ZN3K3b10MetaWriter15setupCdrskinJobEv
libk3blib.so.7:_ZN3K3b10MetaWriter16setupCdrecordJobEv
libk3blib.so.7:_ZN3K3b10MetaWriter16setupGrowisofsobEv
libk3blib.so.7:_ZN3K3b10MetaWriter16staticMetaObjectE
libk3blib.so.7:_ZN3K3b10MetaWriter17setHideFirstTrackEb
libk3blib.so.7:_ZN3K3b10MetaWriter17setSessionToWriteERKNS_6Device3TocERK11QStringList
libk3blib.so.7:_ZN3K3b10MetaWriter22slotWritingJobFinishedEb
libk3blib.so.7:_ZN3K3b10MetaWriter23determineUsedAppAndModeEv
libk3blib.so.7:_ZN3K3b10MetaWriter23ensureSettingsIntegrityEv
libk3blib.so.7:_ZN3K3b10MetaWriter24setSupportedWritingMediaE6QFlagsINS_6Device9MediaTypeEE
libk3blib.so.7:_ZN3K3b10MetaWriter5startEv
libk3blib.so.7:_ZN3K3b10MetaWriter6cancelEv
libk3blib.so.7:_ZN3K3b10MetaWriter8setCloneEb
libk3blib.so.7:_ZN3K3b10MetaWriter9setCdTextERKNS_6Device6CdTextE
libk3blib.so.7:_ZN3K3b10MetaWriterC1EPNS_6Device6DeviceEPNS_10JobHandlerEP7QObject
libk3blib.so.7:_ZN3K3b10MetaWriterC2EPNS_6Device6DeviceEPNS_10JobHandlerEP7QObject
libk3blib.so.7:_ZN3K3b10MetaWriterD0Ev
libk3blib.so.7:_ZN3K3b10MetaWriterD1Ev
libk3blib.so.7:_ZN3K3b10MetaWriterD2Ev
libk3blib.so.7:_ZN3K3b10TitleLabel10paintEventEP11QPaintEvent
libk3blib.so.7:_ZN3K3b10TitleLabel11qt_metacallEN11QMetaObject4CallEiPPv
libk3blib.so.7:_ZN3K3b10TitleLabel11qt_metacastEPKc
libk3blib.so.7:_ZN3K3b10TitleLabel11resizeEventEP12QResizeEvent
libk3blib.so.7:_ZN3K3b10TitleLabel11setSubTitleERK7QString
libk3blib.so.7:_ZN3K3b10TitleLabel12setAlignmentE6QFlagsIN2Qt13AlignmentFlagEE
libk3blib.so.7:_ZN3K3b10TitleLabel16staticMetaObjectE
libk3blib.so.7:_ZN3K3b10TitleLabel17updatePositioningEv
libk3blib.so.7:_ZN3K3b10TitleLabel5eventEP6QEvent
libk3blib.so.7:_ZN3K3b10TitleLabel8setTitleERK7QStringS3_
libk3blib.so.7:_ZN3K3b10TitleLabel9setMarginEi
libk3blib.so.7:_ZN3K3b10TitleLabelC1EP7QWidget
libk3blib.so.7:_ZN3K3b10TitleLabelC2EP7QWidget
libk3blib.so.7:_ZN3K3b10TitleLabelD0Ev
libk3blib.so.7:_ZN3K3b10TitleLabelD1Ev
libk3blib.so.7:_ZN3K3b10TitleLabelD2Ev
libk3blib.so.7:_ZN3K3b10Validators13isrcValidatorEP7QObject
libk3blib.so.7:_ZN3K3b10Validators15iso646ValidatorEibP7QObject
libk3blib.so.7:_ZN3K3b10Validators16iso9660ValidatorEbP7QObject
libk3blib.so.7:_ZN3K3b10Validators5fixupERK7QStringRK7QRegExpRK5QChar
libk3blib.so.7:_ZN3K3b10VcdOptions13checkCdiFilesEv
libk3blib.so.7:_ZN3K3b10VcdOptions4loadERK12KConfigGroup
libk3blib.so.7:_ZN3K3b10VcdOptions4saveE12KConfigGroup
libk3blib.so.7:_ZN3K3b10VcdOptions8defaultsEv
libk3blib.so.7:_ZN3K3b10VcdOptionsC1Ev
libk3blib.so.7:_ZN3K3b10VcdOptionsC2Ev
libk3blib.so.7:_ZN3K3b10kbFreeOnFsERK7QStringRmS3_
libk3blib.so.7:_ZN3K3b10prepareDirERK7QString
libk3blib.so.7:_ZN3K3b10systemNameEv
libk3blib.so.7:_ZN3K3b11BlankingJob11qt_metacallEN11QMetaObject4CallEiPPv
libk3blib.so.7:_ZN3K3b11BlankingJob11qt_metacastEPKc
libk3blib.so.7:_ZN3K3b11BlankingJob12slotFinishedEb
libk3blib.so.7:_ZN3K3b11BlankingJob16slotStartErasingEv
libk3blib.so.7:_ZN3K3b11BlankingJob16staticMetaObjectE
libk3blib.so.7:_ZN3K3b11BlankingJob5startEv
libk3blib.so.7:_ZN3K3b11BlankingJob6cancelEv
libk3blib.so.7:_ZN3K3b11BlankingJob9setDeviceEPNS_6Device6DeviceE
libk3blib.so.7:_ZN3K3b11BlankingJobC1EPNS_10JobHandlerEP7QObject
libk3blib.so.7:_ZN3K3b11BlankingJobC2EPNS_10JobHandlerEP7QObject
libk3blib.so.7:_ZN3K3b11BlankingJobD0Ev
libk3blib.so.7:_ZN3K3b11BlankingJobD1Ev
libk3blib.so.7:_ZN3K3b11BlankingJobD2Ev
libk3blib.so.7:_ZN3K3b11DeviceModel10addDevicesERK5QListIPNS_6Device6DeviceEE
libk3blib.so.7:_ZN3K3b11DeviceModel10setDevicesERK5QListIPNS_6Device6DeviceEE
libk3blib.so.7:_ZN3K3b11DeviceModel11qt_metacallEN11QMetaObject4CallEiPPv
libk3blib.so.7:_ZN3K3b11DeviceModel11qt_metacastEPKc
libk3blib.so.7:_ZN3K3b11DeviceModel12removeDeviceEPNS_6Device6DeviceE
libk3blib.so.7:_ZN3K3b11DeviceModel16staticMetaObjectE
libk3blib.so.7:_ZN3K3b11DeviceModel17slotMediumChangedEPNS_6Device6DeviceE
libk3blib.so.7:_ZN3K3b11DeviceModel18slotCheckingMediumEPNS_6Device6DeviceERK7QString
libk3blib.so.7:_ZN3K3b11DeviceModel5clearEv
libk3blib.so.7:_ZN3K3b11DeviceModel9addDeviceEPNS_6Device6DeviceE
libk3blib.so.7:_ZN3K3b11DeviceModelC1EP7QObject
libk3blib.so.7:_ZN3K3b11DeviceModelC2EP7QObject
libk3blib.so.7:_ZN3K3b11DeviceModelD0Ev
libk3blib.so.7:_ZN3K3b11DeviceModelD1Ev
libk3blib.so.7:_ZN3K3b11DeviceModelD2Ev
libk3blib.so.7:_ZN3K3b11ExternalBin10addFeatureERK7QString
libk3blib.so.7:_ZN3K3b11ExternalBin10setVersionERKNS_7VersionE
libk3blib.so.7:_ZN3K3b11ExternalBin12setCopyrightERK7QString
libk3blib.so.7:_ZN3K3b11ExternalBin12setNeedGroupERK7QString
libk3blib.so.7:_ZN3K3b11ExternalBinC1ERNS_15ExternalProgramERK7QString
libk3blib.so.7:_ZN3K3b11ExternalBinC2ERNS_15ExternalProgramERK7QString
libk3blib.so.7:_ZN3K3b11ExternalBinD0Ev
libk3blib.so.7:_ZN3K3b11ExternalBinD1Ev
libk3blib.so.7:_ZN3K3b11ExternalBinD2Ev
libk3blib.so.7:_ZN3K3b11Iso9660File5setZFEPcS1_i
libk3blib.so.7:_ZN3K3b11Iso9660FileC1EPNS_7Iso9660ERK7QStringS5_iiiiS5_S5_S5_jj
libk3blib.so.7:_ZN3K3b11Iso9660FileC2EPNS_7Iso9660ERK7QStringS5_iiiiS5_S5_S5_jj
libk3blib.so.7:_ZN3K3b11Iso9660FileD0Ev
libk3blib.so.7:_ZN3K3b11Iso9660FileD1Ev
libk3blib.so.7:_ZN3K3b11Iso9660FileD2Ev
libk3blib.so.7:_ZN3K3b11StdGuiItems11daoCheckboxEP7QWidget
libk3blib.so.7:_ZN3K3b11StdGuiItems12verticalLineEP7QWidget
libk3blib.so.7:_ZN3K3b11StdGuiItems14cdTextCheckboxEP7QWidget
libk3blib.so.7:_ZN3K3b11StdGuiItems14horizontalLineEP7QWidget
libk3blib.so.7:_ZN3K3b11StdGuiItems14verifyCheckBoxEP7QWidget
libk3blib.so.7:_ZN3K3b11StdGuiItems16onTheFlyCheckboxEP7QWidget
libk3blib.so.7:_ZN3K3b11StdGuiItems16simulateCheckboxEP7QWidget
libk3blib.so.7:_ZN3K3b11StdGuiItems17burnproofCheckboxEP7QWidget
libk3blib.so.7:_ZN3K3b11StdGuiItems17normalizeCheckBoxEP7QWidget
libk3blib.so.7:_ZN3K3b11StdGuiItems20paranoiaModeComboBoxEP7QWidget
libk3blib.so.7:_ZN3K3b11StdGuiItems20removeImagesCheckboxEP7QWidget
libk3blib.so.7:_ZN3K3b11StdGuiItems24createCacheImageCheckboxEP7QWidget
libk3blib.so.7:_ZN3K3b11StdGuiItems24onlyCreateImagesCheckboxEP7QWidget
libk3blib.so.7:_ZN3K3b11StdGuiItems25startMultisessionCheckBoxEP7QWidget
libk3blib.so.7:_ZN3K3b11StdGuiItems29ignoreAudioReadErrorsCheckBoxEP7QWidget
libk3blib.so.7:_ZN3K3b11VideoDvdDoc10newBurnJobEPNS_10JobHandlerEP7QObject
libk3blib.so.7:_ZN3K3b11VideoDvdDoc11newDocumentEv
libk3blib.so.7:_ZN3K3b11VideoDvdDoc16saveDocumentDataEP11QDomElement
libk3blib.so.7:_ZN3K3b11VideoDvdDoc19addAudioVideoTsDirsEv
libk3blib.so.7:_ZN3K3b11VideoDvdDoc5clearEv
libk3blib.so.7:_ZN3K3b11VideoDvdDocC1EP7QObject
libk3blib.so.7:_ZN3K3b11VideoDvdDocC2EP7QObject
libk3blib.so.7:_ZN3K3b11VideoDvdDocD0Ev
libk3blib.so.7:_ZN3K3b11VideoDvdDocD1Ev
libk3blib.so.7:_ZN3K3b11VideoDvdDocD2Ev
libk3blib.so.7:_ZN3K3b11cutFilenameERK7QStringi
libk3blib.so.7:_ZN3K3b11resolveLinkERK7QString
libk3blib.so.7:_ZN3K3b12AudioDecoder11addMetaInfoENS0_13MetaDataFieldERK7QString
libk3blib.so.7:_ZN3K3b12AudioDecoder11analyseFileEv
libk3blib.so.7:_ZN3K3b12AudioDecoder11initDecoderERKNS_3MsfE
libk3blib.so.7:_ZN3K3b12AudioDecoder11initDecoderEv
libk3blib.so.7:_ZN3K3b12AudioDecoder11qt_metacallEN11QMetaObject4CallEiPPv
libk3blib.so.7:_ZN3K3b12AudioDecoder11qt_metacastEPKc
libk3blib.so.7:_ZN3K3b12AudioDecoder11setFilenameERK7QString
libk3blib.so.7:_ZN3K3b12AudioDecoder16addTechnicalInfoERK7QStringS3_
libk3blib.so.7:_ZN3K3b12AudioDecoder16staticMetaObjectE
libk3blib.so.7:_ZN3K3b12AudioDecoder23from8BitTo16BitBeSignedEPcS1_i
libk3blib.so.7:_ZN3K3b12AudioDecoder24from16bitBeSignedToFloatEPcPfi
libk3blib.so.7:_ZN3K3b12AudioDecoder24fromFloatTo16BitBeSignedEPfPci
libk3blib.so.7:_ZN3K3b12AudioDecoder4seekERKNS_3MsfE
libk3blib.so.7:_ZN3K3b12AudioDecoder6decodeEPci
libk3blib.so.7:_ZN3K3b12AudioDecoder7cleanupEv
libk3blib.so.7:_ZN3K3b12AudioDecoder8metaInfoENS0_13MetaDataFieldE
libk3blib.so.7:_ZN3K3b12AudioDecoder8resampleEPci
libk3blib.so.7:_ZN3K3b12AudioDecoderC1EP7QObject
libk3blib.so.7:_ZN3K3b12AudioDecoderC2EP7QObject
libk3blib.so.7:_ZN3K3b12AudioDecoderD0Ev
libk3blib.so.7:_ZN3K3b12AudioDecoderD1Ev
libk3blib.so.7:_ZN3K3b12AudioDecoderD2Ev
libk3blib.so.7:_ZN3K3b12AudioEncoder11initEncoderERK7QStringRKNS_3MsfERK5QHashINS0_13MetaDataFieldE8QVariantE
libk3blib.so.7:_ZN3K3b12AudioEncoder11qt_metacallEN11QMetaObject4CallEiPPv
libk3blib.so.7:_ZN3K3b12AudioEncoder11qt_metacastEPKc
libk3blib.so.7:_ZN3K3b12AudioEncoder12setLastErrorERK7QString
libk3blib.so.7:_ZN3K3b12AudioEncoder13finishEncoderEv
libk3blib.so.7:_ZN3K3b12AudioEncoder16staticMetaObjectE
libk3blib.so.7:_ZN3K3b12AudioEncoder19initEncoderInternalERK7QStringRKNS_3MsfERK5QHashINS0_13MetaDataFieldE8QVariantE
libk3blib.so.7:_ZN3K3b12AudioEncoder21finishEncoderInternalEv
libk3blib.so.7:_ZN3K3b12AudioEncoder6encodeEPKcx
libk3blib.so.7:_ZN3K3b12AudioEncoder8openFileERK7QStringS3_RKNS_3MsfERK5QHashINS0_13MetaDataFieldE8QVariantE
libk3blib.so.7:_ZN3K3b12AudioEncoder9closeFileEv
libk3blib.so.7:_ZN3K3b12AudioEncoder9writeDataEPKcx
libk3blib.so.7:_ZN3K3b12AudioEncoderC1EP7QObject
libk3blib.so.7:_ZN3K3b12AudioEncoderC2EP7QObject
libk3blib.so.7:_ZN3K3b12AudioEncoderD0Ev
libk3blib.so.7:_ZN3K3b12AudioEncoderD1Ev
libk3blib.so.7:_ZN3K3b12AudioEncoderD2Ev
libk3blib.so.7:_ZN3K3b12CdrdaoWriter11addArgumentERK7QString
libk3blib.so.7:_ZN3K3b12CdrdaoWriter11qt_metacallEN11QMetaObject4CallEiPPv
libk3blib.so.7:_ZN3K3b12CdrdaoWriter11qt_metacastEPKc
libk3blib.so.7:_ZN3K3b12CdrdaoWriter11slotStdLineERK7QString
libk3blib.so.7:_ZN3K3b12CdrdaoWriter12reinitParserEv
libk3blib.so.7:_ZN3K3b12CdrdaoWriter14findDriverFileEPKNS_11ExternalBinE
libk3blib.so.7:_ZN3K3b12CdrdaoWriter14slotThroughputEi
libk3blib.so.7:_ZN3K3b12CdrdaoWriter15parseCdrdaoLineERK7QString
libk3blib.so.7:_ZN3K3b12CdrdaoWriter16parseCdrdaoErrorERK7QString
libk3blib.so.7:_ZN3K3b12CdrdaoWriter16parseCdrdaoWroteERK7QString
libk3blib.so.7:_ZN3K3b12CdrdaoWriter16setCopyArgumentsEv
libk3blib.so.7:_ZN3K3b12CdrdaoWriter16setReadArgumentsEv
libk3blib.so.7:_ZN3K3b12CdrdaoWriter16staticMetaObjectE
libk3blib.so.7:_ZN3K3b12CdrdaoWriter17setBlankArgumentsEv
libk3blib.so.7:_ZN3K3b12CdrdaoWriter17setWriteArgumentsEv
libk3blib.so.7:_ZN3K3b12CdrdaoWriter17slotProcessExitedEiN8QProcess10ExitStatusE
libk3blib.so.7:_ZN3K3b12CdrdaoWriter17unknownCdrdaoLineERK7QString
libk3blib.so.7:_ZN3K3b12CdrdaoWriter18parseCdrdaoMessageEv
libk3blib.so.7:_ZN3K3b12CdrdaoWriter18setCommonArgumentsEv
libk3blib.so.7:_ZN3K3b12CdrdaoWriter19defaultToGenericMMCEPNS_6Device6DeviceEb
libk3blib.so.7:_ZN3K3b12CdrdaoWriter19prepareArgumentListEv
libk3blib.so.7:_ZN3K3b12CdrdaoWriter5startEv
libk3blib.so.7:_ZN3K3b12CdrdaoWriter6cancelEv
libk3blib.so.7:_ZN3K3b12CdrdaoWriter8cueSheetEv
libk3blib.so.7:_ZN3K3b12CdrdaoWriterC1EPNS_6Device6DeviceEPNS_10JobHandlerEP7QObject
libk3blib.so.7:_ZN3K3b12CdrdaoWriterC2EPNS_6Device6DeviceEPNS_10JobHandlerEP7QObject
libk3blib.so.7:_ZN3K3b12CdrdaoWriterD0Ev
libk3blib.so.7:_ZN3K3b12CdrdaoWriterD1Ev
libk3blib.so.7:_ZN3K3b12CdrdaoWriterD2Ev
libk3blib.so.7:_ZN3K3b12ChecksumPipe11qt_metacallEN11QMetaObject4CallEiPPv
libk3blib.so.7:_ZN3K3b12ChecksumPipe11qt_metacastEPKc
libk3blib.so.7:_ZN3K3b12ChecksumPipe16staticMetaObjectE
libk3blib.so.7:_ZN3K3b12ChecksumPipe4openE6QFlagsIN9QIODevice12OpenModeFlagEE
libk3blib.so.7:_ZN3K3b12ChecksumPipe4openENS0_4TypeEb
libk3blib.so.7:_ZN3K3b12ChecksumPipe4openEb
libk3blib.so.7:_ZN3K3b12ChecksumPipe9writeDataEPKcx
libk3blib.so.7:_ZN3K3b12ChecksumPipeC1Ev
libk3blib.so.7:_ZN3K3b12ChecksumPipeC2Ev
libk3blib.so.7:_ZN3K3b12ChecksumPipeD0Ev
libk3blib.so.7:_ZN3K3b12ChecksumPipeD1Ev
libk3blib.so.7:_ZN3K3b12ChecksumPipeD2Ev
libk3blib.so.7:_ZN3K3b12FileSplitter11qt_metacallEN11QMetaObject4CallEiPPv
libk3blib.so.7:_ZN3K3b12FileSplitter11qt_metacastEPKc
libk3blib.so.7:_ZN3K3b12FileSplitter14setMaxFileSizeEx
libk3blib.so.7:_ZN3K3b12FileSplitter16staticMetaObjectE
libk3blib.so.7:_ZN3K3b12FileSplitter16waitForReadyReadEi
libk3blib.so.7:_ZN3K3b12FileSplitter19waitForBytesWrittenEi
libk3blib.so.7:_ZN3K3b12FileSplitter4openE6QFlagsIN9QIODevice12OpenModeFlagEE
libk3blib.so.7:_ZN3K3b12FileSplitter4seekEx
libk3blib.so.7:_ZN3K3b12FileSplitter5closeEv
libk3blib.so.7:_ZN3K3b12FileSplitter5flushEv
libk3blib.so.7:_ZN3K3b12FileSplitter6removeEv
libk3blib.so.7:_ZN3K3b12FileSplitter7setNameERK7QString
libk3blib.so.7:_ZN3K3b12FileSplitter8readDataEPcx
libk3blib.so.7:_ZN3K3b12FileSplitter9writeDataEPKcx
libk3blib.so.7:_ZN3K3b12FileSplitterC1ERK7QString
libk3blib.so.7:_ZN3K3b12FileSplitterC1Ev
libk3blib.so.7:_ZN3K3b12FileSplitterC2ERK7QString
libk3blib.so.7:_ZN3K3b12FileSplitterC2Ev
libk3blib.so.7:_ZN3K3b12FileSplitterD0Ev
libk3blib.so.7:_ZN3K3b12FileSplitterD1Ev
libk3blib.so.7:_ZN3K3b12FileSplitterD2Ev
libk3blib.so.7:_ZN3K3b12IntValidator5toIntERK7QStringPb
libk3blib.so.7:_ZN3K3b12IntValidator8setRangeEii
libk3blib.so.7:_ZN3K3b12IntValidatorC1EP7QWidget
libk3blib.so.7:_ZN3K3b12IntValidatorC1EiiP7QWidget
libk3blib.so.7:_ZN3K3b12IntValidatorC2EP7QWidget
libk3blib.so.7:_ZN3K3b12IntValidatorC2EiiP7QWidget
libk3blib.so.7:_ZN3K3b12IntValidatorD0Ev
libk3blib.so.7:_ZN3K3b12IntValidatorD1Ev
libk3blib.so.7:_ZN3K3b12IntValidatorD2Ev
libk3blib.so.7:_ZN3K3b12Iso9660EntryC1EPNS_7Iso9660ERK7QStringS5_iiiiS5_S5_S5_
libk3blib.so.7:_ZN3K3b12Iso9660EntryC2EPNS_7Iso9660ERK7QStringS5_iiiiS5_S5_S5_
libk3blib.so.7:_ZN3K3b12Iso9660EntryD0Ev
libk3blib.so.7:_ZN3K3b12Iso9660EntryD1Ev
libk3blib.so.7:_ZN3K3b12Iso9660EntryD2Ev
libk3blib.so.7:_ZN3K3b12MovixProgram13scanNewEMovixEPNS_8MovixBinERK7QString
libk3blib.so.7:_ZN3K3b12MovixProgram13scanOldEMovixEPNS_8MovixBinERK7QString
libk3blib.so.7:_ZN3K3b12MovixProgram4scanERK7QString
libk3blib.so.7:_ZN3K3b12MovixProgramC1Ev
libk3blib.so.7:_ZN3K3b12MovixProgramC2Ev
libk3blib.so.7:_ZN3K3b12SignalWaiter10waitForJobEPNS_3JobE
libk3blib.so.7:_ZN3K3b12SignalWaiter13waitForSignalEP7QObjectPKc
libk3blib.so.7:_ZN3K3b12findTempFileERK7QStringS2_
libk3blib.so.7:_ZN3K3b13AudioZeroData12createReaderEP7QObject
libk3blib.so.7:_ZN3K3b13AudioZeroData12setEndOffsetERKNS_3MsfE
libk3blib.so.7:_ZN3K3b13AudioZeroData14setStartOffsetERKNS_3MsfE
libk3blib.so.7:_ZN3K3b13AudioZeroData9setLengthERKNS_3MsfE
libk3blib.so.7:_ZN3K3b13AudioZeroDataC1ERKNS_3MsfE
libk3blib.so.7:_ZN3K3b13AudioZeroDataC1ERKS0_
libk3blib.so.7:_ZN3K3b13AudioZeroDataC2ERKNS_3MsfE
libk3blib.so.7:_ZN3K3b13AudioZeroDataC2ERKS0_
libk3blib.so.7:_ZN3K3b13AudioZeroDataD0Ev
libk3blib.so.7:_ZN3K3b13AudioZeroDataD1Ev
libk3blib.so.7:_ZN3K3b13AudioZeroDataD2Ev
libk3blib.so.7:_ZN3K3b13CdparanoiaLib11initReadingEi
libk3blib.so.7:_ZN3K3b13CdparanoiaLib11initReadingEll
libk3blib.so.7:_ZN3K3b13CdparanoiaLib11initReadingEv
libk3blib.so.7:_ZN3K3b13CdparanoiaLib12initParanoiaEPNS_6Device6DeviceE
libk3blib.so.7:_ZN3K3b13CdparanoiaLib12initParanoiaEPNS_6Device6DeviceERKNS1_3TocE
libk3blib.so.7:_ZN3K3b13CdparanoiaLib12setNeverSkipEb
libk3blib.so.7:_ZN3K3b13CdparanoiaLib13setMaxRetriesEi
libk3blib.so.7:_ZN3K3b13CdparanoiaLib15setParanoiaModeEi
libk3blib.so.7:_ZN3K3b13CdparanoiaLib4loadEv
libk3blib.so.7:_ZN3K3b13CdparanoiaLib4readEPiPjb
libk3blib.so.7:_ZN3K3b13CdparanoiaLib5closeEv
libk3blib.so.7:_ZN3K3b13CdparanoiaLib6createEv
libk3blib.so.7:_ZN3K3b13CdparanoiaLib7cleanupEv
libk3blib.so.7:_ZN3K3b13CdparanoiaLibC1Ev
libk3blib.so.7:_ZN3K3b13CdparanoiaLibC2Ev
libk3blib.so.7:_ZN3K3b13CdparanoiaLibD1Ev
libk3blib.so.7:_ZN3K3b13CdparanoiaLibD2Ev
libk3blib.so.7:_ZN3K3b13CdrdaoProgramC1Ev
libk3blib.so.7:_ZN3K3b13CdrdaoProgramC2Ev
libk3blib.so.7:_ZN3K3b13CharValidatorC1EP7QObject
libk3blib.so.7:_ZN3K3b13CharValidatorC2EP7QObject
libk3blib.so.7:_ZN3K3b13CueFileParser10simplifiedER7QString
libk3blib.so.7:_ZN3K3b13CueFileParser17findImageFileNameERK7QString
libk3blib.so.7:_ZN3K3b13CueFileParser8readFileEv
libk3blib.so.7:_ZN3K3b13CueFileParser9parseLineE7QString
libk3blib.so.7:_ZN3K3b13CueFileParserC1ERK7QString
libk3blib.so.7:_ZN3K3b13CueFileParserC2ERK7QString
libk3blib.so.7:_ZN3K3b13CueFileParserD0Ev
libk3blib.so.7:_ZN3K3b13CueFileParserD1Ev
libk3blib.so.7:_ZN3K3b13CueFileParserD2Ev
libk3blib.so.7:_ZN3K3b13MovixFileItem10setK3bNameERK7QString
libk3blib.so.7:_ZN3K3b13MovixFileItem16subTitleFileNameERK7QString
libk3blib.so.7:_ZN3K3b13MovixFileItemC1ERK7QStringRNS_8MovixDocES3_
libk3blib.so.7:_ZN3K3b13MovixFileItemC2ERK7QStringRNS_8MovixDocES3_
libk3blib.so.7:_ZN3K3b13MovixFileItemD0Ev
libk3blib.so.7:_ZN3K3b13MovixFileItemD1Ev
libk3blib.so.7:_ZN3K3b13MovixFileItemD2Ev
libk3blib.so.7:_ZN3K3b13PluginManager11qt_metacallEN11QMetaObject4CallEiPPv
libk3blib.so.7:_ZN3K3b13PluginManager11qt_metacastEPKc
libk3blib.so.7:_ZN3K3b13PluginManager16execPluginDialogEPNS_6PluginEP7QWidget
libk3blib.so.7:_ZN3K3b13PluginManager16staticMetaObjectE
libk3blib.so.7:_ZN3K3b13PluginManager7loadAllEv
libk3blib.so.7:_ZN3K3b13PluginManagerC1EP7QObject
libk3blib.so.7:_ZN3K3b13PluginManagerC2EP7QObject
libk3blib.so.7:_ZN3K3b13PluginManagerD0Ev
libk3blib.so.7:_ZN3K3b13PluginManagerD1Ev
libk3blib.so.7:_ZN3K3b13PluginManagerD2Ev
libk3blib.so.7:_ZN3K3b13ProjectPlugin11qt_metacallEN11QMetaObject4CallEiPPv
libk3blib.so.7:_ZN3K3b13ProjectPlugin11qt_metacastEPKc
libk3blib.so.7:_ZN3K3b13ProjectPlugin16staticMetaObjectE
libk3blib.so.7:_ZN3K3b13ProjectPluginC1E6QFlagsINS_3Doc4TypeEEbP7QObject
libk3blib.so.7:_ZN3K3b13ProjectPluginC2E6QFlagsINS_3Doc4TypeEEbP7QObject
libk3blib.so.7:_ZN3K3b13ReadcdProgramC1Ev
libk3blib.so.7:_ZN3K3b13ReadcdProgramC2Ev
libk3blib.so.7:_ZN3K3b13imageFilesizeERK4QUrl
libk3blib.so.7:_ZN3K3b13kernelVersionEv
libk3blib.so.7:_ZN3K3b13swapByteOrderERKi
libk3blib.so.7:_ZN3K3b13swapByteOrderERKs
libk3blib.so.7:_ZN3K3b13swapByteOrderERKx
libk3blib.so.7:_ZN3K3b14AsciiValidatorC1EP7QObject
libk3blib.so.7:_ZN3K3b14AsciiValidatorC2EP7QObject
libk3blib.so.7:_ZN3K3b14AudioDocReader11qt_metacallEN11QMetaObject4CallEiPPv
libk3blib.so.7:_ZN3K3b14AudioDocReader11qt_metacastEPKc
libk3blib.so.7:_ZN3K3b14AudioDocReader13previousTrackEv
libk3blib.so.7:_ZN3K3b14AudioDocReader15setCurrentTrackERKNS_10AudioTrackE
libk3blib.so.7:_ZN3K3b14AudioDocReader16staticMetaObjectE
libk3blib.so.7:_ZN3K3b14AudioDocReader19currentTrackChangedERKNS_10AudioTrackE
libk3blib.so.7:_ZN3K3b14AudioDocReader4openE6QFlagsIN9QIODevice12OpenModeFlagEE
libk3blib.so.7:_ZN3K3b14AudioDocReader4seekEx
libk3blib.so.7:_ZN3K3b14AudioDocReader5closeEv
libk3blib.so.7:_ZN3K3b14AudioDocReader7Private14slotTrackAddedEi
libk3blib.so.7:_ZN3K3b14AudioDocReader7Private16setCurrentReaderEi
libk3blib.so.7:_ZN3K3b14AudioDocReader7Private25slotTrackAboutToBeRemovedEi
libk3blib.so.7:_ZN3K3b14AudioDocReader7PrivateC1ERS0_RNS_8AudioDocE
libk3blib.so.7:_ZN3K3b14AudioDocReader7PrivateC2ERS0_RNS_8AudioDocE
libk3blib.so.7:_ZN3K3b14AudioDocReader8readDataEPcx
libk3blib.so.7:_ZN3K3b14AudioDocReader9nextTrackEv
libk3blib.so.7:_ZN3K3b14AudioDocReader9updatePosEv
libk3blib.so.7:_ZN3K3b14AudioDocReader9writeDataEPKcx
libk3blib.so.7:_ZN3K3b14AudioDocReaderC1ERNS_8AudioDocEP7QObject
libk3blib.so.7:_ZN3K3b14AudioDocReaderC2ERNS_8AudioDocEP7QObject
libk3blib.so.7:_ZN3K3b14AudioDocReaderD0Ev
libk3blib.so.7:_ZN3K3b14AudioDocReaderD1Ev
libk3blib.so.7:_ZN3K3b14AudioDocReaderD2Ev
libk3blib.so.7:_ZN3K3b14CdrskinProgramC1Ev
libk3blib.so.7:_ZN3K3b14CdrskinProgramC2Ev
libk3blib.so.7:_ZN3K3b14CloneTocReader8readFileEv
libk3blib.so.7:_ZN3K3b14CloneTocReaderC1ERK7QString
libk3blib.so.7:_ZN3K3b14CloneTocReaderC2ERK7QString
libk3blib.so.7:_ZN3K3b14CloneTocReaderD0Ev
libk3blib.so.7:_ZN3K3b14CloneTocReaderD1Ev
libk3blib.so.7:_ZN3K3b14CloneTocReaderD2Ev
libk3blib.so.7:_ZN3K3b14DeviceComboBox10addDevicesERK5QListIPNS_6Device6DeviceEE
libk3blib.so.7:_ZN3K3b14DeviceComboBox11qt_metacallEN11QMetaObject4CallEiPPv
libk3blib.so.7:_ZN3K3b14DeviceComboBox11qt_metacastEPKc
libk3blib.so.7:_ZN3K3b14DeviceComboBox12removeDeviceEPNS_6Device6DeviceE
libk3blib.so.7:_ZN3K3b14DeviceComboBox13slotActivatedEi
libk3blib.so.7:_ZN3K3b14DeviceComboBox14refreshDevicesERK5QListIPNS_6Device6DeviceEE
libk3blib.so.7:_ZN3K3b14DeviceComboBox16selectionChangedEPNS_6Device6DeviceE
libk3blib.so.7:_ZN3K3b14DeviceComboBox16staticMetaObjectE
libk3blib.so.7:_ZN3K3b14DeviceComboBox17setSelectedDeviceEPNS_6Device6DeviceE
libk3blib.so.7:_ZN3K3b14DeviceComboBox9addDeviceEPNS_6Device6DeviceE
libk3blib.so.7:_ZN3K3b14DeviceComboBoxC1EP7QWidget
libk3blib.so.7:_ZN3K3b14DeviceComboBoxC2EP7QWidget
libk3blib.so.7:_ZN3K3b14DeviceComboBoxD0Ev
libk3blib.so.7:_ZN3K3b14DeviceComboBoxD1Ev
libk3blib.so.7:_ZN3K3b14DeviceComboBoxD2Ev
libk3blib.so.7:_ZN3K3b14FileSystemInfo7setPathERK7QString
libk3blib.so.7:_ZN3K3b14FileSystemInfo9fixupPathERK7QString
libk3blib.so.7:_ZN3K3b14FileSystemInfoC1ERK7QString
libk3blib.so.7:_ZN3K3b14FileSystemInfoC1ERKS0_
libk3blib.so.7:_ZN3K3b14FileSystemInfoC1Ev
libk3blib.so.7:_ZN3K3b14FileSystemInfoC2ERK7QString
libk3blib.so.7:_ZN3K3b14FileSystemInfoC2ERKS0_
libk3blib.so.7:_ZN3K3b14FileSystemInfoC2Ev
libk3blib.so.7:_ZN3K3b14FileSystemInfoD1Ev
libk3blib.so.7:_ZN3K3b14FileSystemInfoD2Ev
libk3blib.so.7:_ZN3K3b14GlobalSettings12readSettingsERK12KConfigGroup
libk3blib.so.7:_ZN3K3b14GlobalSettings12saveSettingsE12KConfigGroup
libk3blib.so.7:_ZN3K3b14GlobalSettingsC1Ev
libk3blib.so.7:_ZN3K3b14GlobalSettingsC2Ev
libk3blib.so.7:_ZN3K3b14GlobalSettingsD1Ev
libk3blib.so.7:_ZN3K3b14GlobalSettingsD2Ev
libk3blib.so.7:_ZN3K3b14IntMapComboBox10insertItemEiRK7QStringS3_i
libk3blib.so.7:_ZN3K3b14IntMapComboBox11qt_metacallEN11QMetaObject4CallEiPPv
libk3blib.so.7:_ZN3K3b14IntMapComboBox11qt_metacastEPKc
libk3blib.so.7:_ZN3K3b14IntMapComboBox12valueChangedEi
libk3blib.so.7:_ZN3K3b14IntMapComboBox16setSelectedValueEi
libk3blib.so.7:_ZN3K3b14IntMapComboBox16staticMetaObjectE
libk3blib.so.7:_ZN3K3b14IntMapComboBox16valueHighlightedEi
libk3blib.so.7:_ZN3K3b14IntMapComboBox17slotItemActivatedEi
libk3blib.so.7:_ZN3K3b14IntMapComboBox19slotItemHighlightedEi
libk3blib.so.7:_ZN3K3b14IntMapComboBox22addGlobalWhatsThisTextERK7QStringS3_
libk3blib.so.7:_ZN3K3b14IntMapComboBox5clearEv
libk3blib.so.7:_ZN3K3b14IntMapComboBoxC1EP7QWidget
libk3blib.so.7:_ZN3K3b14IntMapComboBoxC2EP7QWidget
libk3blib.so.7:_ZN3K3b14IntMapComboBoxD0Ev
libk3blib.so.7:_ZN3K3b14IntMapComboBoxD1Ev
libk3blib.so.7:_ZN3K3b14IntMapComboBoxD2Ev
libk3blib.so.7:_ZN3K3b14MkisofsProgramC1Ev
libk3blib.so.7:_ZN3K3b14MkisofsProgramC2Ev
libk3blib.so.7:_ZN3K3b14WaveFileWriter12updateHeaderEv
libk3blib.so.7:_ZN3K3b14WaveFileWriter16writeEmptyHeaderEv
libk3blib.so.7:_ZN3K3b14WaveFileWriter4openERK7QString
libk3blib.so.7:_ZN3K3b14WaveFileWriter5closeEv
libk3blib.so.7:_ZN3K3b14WaveFileWriter5writeEPKciNS0_9EndianessE
libk3blib.so.7:_ZN3K3b14WaveFileWriter6isOpenEv
libk3blib.so.7:_ZN3K3b14WaveFileWriter9padTo2352Ev
libk3blib.so.7:_ZN3K3b14WaveFileWriterC1Ev
libk3blib.so.7:_ZN3K3b14WaveFileWriterC2Ev
libk3blib.so.7:_ZN3K3b14WaveFileWriterD1Ev
libk3blib.so.7:_ZN3K3b14WaveFileWriterD2Ev
libk3blib.so.7:_ZN3K3b15AudioDataSource10emitChangeEv
libk3blib.so.7:_ZN3K3b15AudioDataSource11qt_metacallEN11QMetaObject4CallEiPPv
libk3blib.so.7:_ZN3K3b15AudioDataSource11qt_metacastEPKc
libk3blib.so.7:_ZN3K3b15AudioDataSource12fixupOffsetsEv
libk3blib.so.7:_ZN3K3b15AudioDataSource12setEndOffsetERKNS_3MsfE
libk3blib.so.7:_ZN3K3b15AudioDataSource14setStartOffsetERKNS_3MsfE
libk3blib.so.7:_ZN3K3b15AudioDataSource16staticMetaObjectE
libk3blib.so.7:_ZN3K3b15AudioDataSource4takeEv
libk3blib.so.7:_ZN3K3b15AudioDataSource5splitERKNS_3MsfE
libk3blib.so.7:_ZN3K3b15AudioDataSource7changedEv
libk3blib.so.7:_ZN3K3b15AudioDataSource9moveAfterEPS0_
libk3blib.so.7:_ZN3K3b15AudioDataSource9moveAheadEPS0_
libk3blib.so.7:_ZN3K3b15AudioDataSourceC1ERKS0_
libk3blib.so.7:_ZN3K3b15AudioDataSourceC1Ev
libk3blib.so.7:_ZN3K3b15AudioDataSourceC2ERKS0_
libk3blib.so.7:_ZN3K3b15AudioDataSourceC2Ev
libk3blib.so.7:_ZN3K3b15AudioDataSourceD0Ev
libk3blib.so.7:_ZN3K3b15AudioDataSourceD1Ev
libk3blib.so.7:_ZN3K3b15AudioDataSourceD2Ev
libk3blib.so.7:_ZN3K3b15AudioFileReader4openE6QFlagsIN9QIODevice12OpenModeFlagEE
libk3blib.so.7:_ZN3K3b15AudioFileReader4seekEx
libk3blib.so.7:_ZN3K3b15AudioFileReader5closeEv
libk3blib.so.7:_ZN3K3b15AudioFileReader8readDataEPcx
libk3blib.so.7:_ZN3K3b15AudioFileReader9writeDataEPKcx
libk3blib.so.7:_ZN3K3b15AudioFileReaderC1ERNS_9AudioFileEP7QObject
libk3blib.so.7:_ZN3K3b15AudioFileReaderC2ERNS_9AudioFileEP7QObject
libk3blib.so.7:_ZN3K3b15AudioFileReaderD0Ev
libk3blib.so.7:_ZN3K3b15AudioFileReaderD1Ev
libk3blib.so.7:_ZN3K3b15AudioFileReaderD2Ev
libk3blib.so.7:_ZN3K3b15CdTextValidatorC1EP7QObject
libk3blib.so.7:_ZN3K3b15CdTextValidatorC2EP7QObject
libk3blib.so.7:_ZN3K3b15CdTextValidatorD0Ev
libk3blib.so.7:_ZN3K3b15CdTextValidatorD1Ev
libk3blib.so.7:_ZN3K3b15CdTextValidatorD2Ev
libk3blib.so.7:_ZN3K3b15Cdda2wavProgramC1Ev
libk3blib.so.7:_ZN3K3b15Cdda2wavProgramC2Ev
libk3blib.so.7:_ZN3K3b15CdrecordProgramC1Ev
libk3blib.so.7:_ZN3K3b15CdrecordProgramC2Ev
libk3blib.so.7:_ZN3K3b15ExternalProgram10setDefaultEPKNS_11ExternalBinE
libk3blib.so.7:_ZN3K3b15ExternalProgram10setDefaultERK7QString
libk3blib.so.7:_ZN3K3b15ExternalProgram16addUserParameterERK7QString
libk3blib.so.7:_ZN3K3b15ExternalProgram16buildProgramPathERK7QStringS3_
libk3blib.so.7:_ZN3K3b15ExternalProgram17setUserParametersERK11QStringList
libk3blib.so.7:_ZN3K3b15ExternalProgram5clearEv
libk3blib.so.7:_ZN3K3b15ExternalProgram6addBinEPNS_11ExternalBinE
libk3blib.so.7:_ZN3K3b15ExternalProgramC1ERK7QString
libk3blib.so.7:_ZN3K3b15ExternalProgramC2ERK7QString
libk3blib.so.7:_ZN3K3b15ExternalProgramD0Ev
libk3blib.so.7:_ZN3K3b15ExternalProgramD1Ev
libk3blib.so.7:_ZN3K3b15ExternalProgramD2Ev
libk3blib.so.7:_ZN3K3b15ImageFileReader16setImageFilenameERK7QString
libk3blib.so.7:_ZN3K3b15ImageFileReader8openFileERK7QString
libk3blib.so.7:_ZN3K3b15ImageFileReader8setValidEb
libk3blib.so.7:_ZN3K3b15ImageFileReaderC1Ev
libk3blib.so.7:_ZN3K3b15ImageFileReaderC2Ev
libk3blib.so.7:_ZN3K3b15ImageFileReaderD0Ev
libk3blib.so.7:_ZN3K3b15ImageFileReaderD1Ev
libk3blib.so.7:_ZN3K3b15ImageFileReaderD2Ev
libk3blib.so.7:_ZN3K3b15Latin1ValidatorC1EP7QObject
libk3blib.so.7:_ZN3K3b15Latin1ValidatorC2EP7QObject
libk3blib.so.7:_ZN3K3b15defaultTempPathEv
libk3blib.so.7:_ZN3K3b16AudioCdTrackDrag12fromMimeDataEPK9QMimeData
libk3blib.so.7:_ZN3K3b16AudioCdTrackDrag13mimeDataTypesEv
libk3blib.so.7:_ZN3K3b16AudioCdTrackDrag16populateMimeDataEP9QMimeData
libk3blib.so.7:_ZN3K3b16AudioCdTrackDrag9canDecodeEPK9QMimeData
libk3blib.so.7:_ZN3K3b16AudioCdTrackDragC1ERKNS_6Device3TocERK5QListIiERKN5KCDDB6CDInfoEPNS1_6DeviceE
libk3blib.so.7:_ZN3K3b16AudioCdTrackDragC1Ev
libk3blib.so.7:_ZN3K3b16AudioCdTrackDragC2ERKNS_6Device3TocERK5QListIiERKN5KCDDB6CDInfoEPNS1_6DeviceE
libk3blib.so.7:_ZN3K3b16AudioCdTrackDragC2Ev
libk3blib.so.7:_ZN3K3b16AudioTrackReader11qt_metacallEN11QMetaObject4CallEiPPv
libk3blib.so.7:_ZN3K3b16AudioTrackReader11qt_metacastEPKc
libk3blib.so.7:_ZN3K3b16AudioTrackReader16slotTrackChangedEv
libk3blib.so.7:_ZN3K3b16AudioTrackReader16staticMetaObjectE
libk3blib.so.7:_ZN3K3b16AudioTrackReader4openE6QFlagsIN9QIODevice12OpenModeFlagEE
libk3blib.so.7:_ZN3K3b16AudioTrackReader4seekEx
libk3blib.so.7:_ZN3K3b16AudioTrackReader5closeEv
libk3blib.so.7:_ZN3K3b16AudioTrackReader5trackEv
libk3blib.so.7:_ZN3K3b16AudioTrackReader7Private15slotSourceAddedEi
libk3blib.so.7:_ZN3K3b16AudioTrackReader7Private26slotSourceAboutToBeRemovedEi
libk3blib.so.7:_ZN3K3b16AudioTrackReader7PrivateC1ERS0_RNS_10AudioTrackE
libk3blib.so.7:_ZN3K3b16AudioTrackReader7PrivateC2ERS0_RNS_10AudioTrackE
libk3blib.so.7:_ZN3K3b16AudioTrackReader8readDataEPcx
libk3blib.so.7:_ZN3K3b16AudioTrackReader9writeDataEPKcx
libk3blib.so.7:_ZN3K3b16AudioTrackReaderC1ERNS_10AudioTrackEP7QObject
libk3blib.so.7:_ZN3K3b16AudioTrackReaderC2ERNS_10AudioTrackEP7QObject
libk3blib.so.7:_ZN3K3b16AudioTrackReaderD0Ev
libk3blib.so.7:_ZN3K3b16AudioTrackReaderD1Ev
libk3blib.so.7:_ZN3K3b16AudioTrackReaderD2Ev
libk3blib.so.7:_ZN3K3b16DvdFormattingJob11qt_metacallEN11QMetaObject4CallEiPPv
libk3blib.so.7:_ZN3K3b16DvdFormattingJob11qt_metacastEPKc
libk3blib.so.7:_ZN3K3b16DvdFormattingJob14slotStderrLineERK7QString
libk3blib.so.7:_ZN3K3b16DvdFormattingJob15setForceNoEjectEb
libk3blib.so.7:_ZN3K3b16DvdFormattingJob15startFormattingERKNS_6Device8DiskInfoE
libk3blib.so.7:_ZN3K3b16DvdFormattingJob16staticMetaObjectE
libk3blib.so.7:_ZN3K3b16DvdFormattingJob17setFormattingModeENS_14FormattingModeE
libk3blib.so.7:_ZN3K3b16DvdFormattingJob19slotProcessFinishedEiN8QProcess10ExitStatusE
libk3blib.so.7:_ZN3K3b16DvdFormattingJob20slotEjectingFinishedEPNS_6Device13DeviceHandlerE
libk3blib.so.7:_ZN3K3b16DvdFormattingJob25slotDeviceHandlerFinishedEPNS_6Device13DeviceHandlerE
libk3blib.so.7:_ZN3K3b16DvdFormattingJob5startERKNS_6Device8DiskInfoE
libk3blib.so.7:_ZN3K3b16DvdFormattingJob5startEv
libk3blib.so.7:_ZN3K3b16DvdFormattingJob6cancelEv
libk3blib.so.7:_ZN3K3b16DvdFormattingJob7setModeEi
libk3blib.so.7:_ZN3K3b16DvdFormattingJob8setForceEb
libk3blib.so.7:_ZN3K3b16DvdFormattingJob9setDeviceEPNS_6Device6DeviceE
libk3blib.so.7:_ZN3K3b16DvdFormattingJobC1EPNS_10JobHandlerEP7QObject
libk3blib.so.7:_ZN3K3b16DvdFormattingJobC2EPNS_10JobHandlerEP7QObject
libk3blib.so.7:_ZN3K3b16DvdFormattingJobD0Ev
libk3blib.so.7:_ZN3K3b16DvdFormattingJobD1Ev
libk3blib.so.7:_ZN3K3b16DvdFormattingJobD2Ev
libk3blib.so.7:_ZN3K3b16DvdformatProgramC1Ev
libk3blib.so.7:_ZN3K3b16DvdformatProgramC2Ev
libk3blib.so.7:_ZN3K3b16GrowisofsProgramC1Ev
libk3blib.so.7:_ZN3K3b16GrowisofsProgramC2Ev
libk3blib.so.7:_ZN3K3b16Iso9660Directory12iso9660EntryERK7QString
libk3blib.so.7:_ZN3K3b16Iso9660Directory5entryERK7QString
libk3blib.so.7:_ZN3K3b16Iso9660Directory6expandEv
libk3blib.so.7:_ZN3K3b16Iso9660Directory8addEntryEPNS_12Iso9660EntryE
libk3blib.so.7:_ZN3K3b16Iso9660DirectoryC1EPNS_7Iso9660ERK7QStringS5_iiiiS5_S5_S5_jj
libk3blib.so.7:_ZN3K3b16Iso9660DirectoryC2EPNS_7Iso9660ERK7QStringS5_iiiiS5_S5_S5_jj
libk3blib.so.7:_ZN3K3b16Iso9660DirectoryD0Ev
libk3blib.so.7:_ZN3K3b16Iso9660DirectoryD1Ev
libk3blib.so.7:_ZN3K3b16Iso9660DirectoryD2Ev
libk3blib.so.7:_ZN3K3b16NormalizeProgramC1Ev
libk3blib.so.7:_ZN3K3b16NormalizeProgramC2Ev
libk3blib.so.7:_ZN3K3b16SimpleJobHandler11qt_metacallEN11QMetaObject4CallEiPPv
libk3blib.so.7:_ZN3K3b16SimpleJobHandler11qt_metacastEPKc
libk3blib.so.7:_ZN3K3b16SimpleJobHandler13questionYesNoERK7QStringS3_RK8KGuiItemS6_
libk3blib.so.7:_ZN3K3b16SimpleJobHandler13waitForMediumEPNS_6Device6DeviceE6QFlagsINS1_10MediaStateEES4_INS1_9MediaTypeEERKNS_3MsfERK7QString
libk3blib.so.7:_ZN3K3b16SimpleJobHandler16staticMetaObjectE
libk3blib.so.7:_ZN3K3b16SimpleJobHandler19blockingInformationERK7QStringS3_
libk3blib.so.7:_ZN3K3b16SimpleJobHandlerC1EP7QObject
libk3blib.so.7:_ZN3K3b16SimpleJobHandlerC2EP7QObject
libk3blib.so.7:_ZN3K3b16SimpleJobHandlerD0Ev
libk3blib.so.7:_ZN3K3b16SimpleJobHandlerD1Ev
libk3blib.so.7:_ZN3K3b16SimpleJobHandlerD2Ev
libk3blib.so.7:_ZN3K3b16TranscodeProgramC1ERK7QString
libk3blib.so.7:_ZN3K3b16TranscodeProgramC2ERK7QString
libk3blib.so.7:_ZN3K3b17IsOverburnAllowedERKNS_3MsfES2_
libk3blib.so.7:_ZN3K3b17IsOverburnAllowedERKNS_3MsfES2_S2_
libk3blib.so.7:_ZN3K3b17MovixSubtitleItemC1ERK7QStringRNS_8MovixDocEPNS_13MovixFileItemES3_
libk3blib.so.7:_ZN3K3b17MovixSubtitleItemC2ERK7QStringRNS_8MovixDocEPNS_13MovixFileItemES3_
libk3blib.so.7:_ZN3K3b17MovixSubtitleItemD0Ev
libk3blib.so.7:_ZN3K3b17MovixSubtitleItemD1Ev
libk3blib.so.7:_ZN3K3b17MovixSubtitleItemD2Ev
libk3blib.so.7:_ZN3K3b17MultiChoiceDialog10closeEventEP11QCloseEvent
libk3blib.so.7:_ZN3K3b17MultiChoiceDialog11qt_metacallEN11QMetaObject4CallEiPPv
libk3blib.so.7:_ZN3K3b17MultiChoiceDialog11qt_metacastEPKc
libk3blib.so.7:_ZN3K3b17MultiChoiceDialog16staticMetaObjectE
libk3blib.so.7:_ZN3K3b17MultiChoiceDialog17slotButtonClickedEi
libk3blib.so.7:_ZN3K3b17MultiChoiceDialog4execEv
libk3blib.so.7:_ZN3K3b17MultiChoiceDialog6chooseERK7QStringS3_N11QMessageBox4IconEP7QWidgetiRK8KGuiItemSA_SA_SA_SA_SA_
libk3blib.so.7:_ZN3K3b17MultiChoiceDialog9addButtonERK8KGuiItem
libk3blib.so.7:_ZN3K3b17MultiChoiceDialogC1ERK7QStringS3_N11QMessageBox4IconEP7QWidget
libk3blib.so.7:_ZN3K3b17MultiChoiceDialogC2ERK7QStringS3_N11QMessageBox4IconEP7QWidget
libk3blib.so.7:_ZN3K3b17MultiChoiceDialogD0Ev
libk3blib.so.7:_ZN3K3b17MultiChoiceDialogD1Ev
libk3blib.so.7:_ZN3K3b17MultiChoiceDialogD2Ev
libk3blib.so.7:_ZN3K3b17VcdbuilderProgramC1ERK7QString
libk3blib.so.7:_ZN3K3b17VcdbuilderProgramC2ERK7QString
libk3blib.so.7:_ZN3K3b17convertToLocalUrlERK4QUrl
libk3blib.so.7:_ZN3K3b17plainAtapiSupportEv
libk3blib.so.7:_ZN3K3b17writingModeStringE6QFlagsINS_11WritingModeEE
libk3blib.so.7:_ZN3K3b18AudioCdTrackReader4openE6QFlagsIN9QIODevice12OpenModeFlagEE
libk3blib.so.7:_ZN3K3b18AudioCdTrackReader4seekEx
libk3blib.so.7:_ZN3K3b18AudioCdTrackReader5closeEv
libk3blib.so.7:_ZN3K3b18AudioCdTrackReader7Private12initParanoiaEv
libk3blib.so.7:_ZN3K3b18AudioCdTrackReader7Private13closeParanoiaEv
libk3blib.so.7:_ZN3K3b18AudioCdTrackReader8readDataEPcx
libk3blib.so.7:_ZN3K3b18AudioCdTrackReader9writeDataEPKcx
libk3blib.so.7:_ZN3K3b18AudioCdTrackReaderC1ERNS_18AudioCdTrackSourceEP7QObject
libk3blib.so.7:_ZN3K3b18AudioCdTrackReaderC2ERNS_18AudioCdTrackSourceEP7QObject
libk3blib.so.7:_ZN3K3b18AudioCdTrackReaderD0Ev
libk3blib.so.7:_ZN3K3b18AudioCdTrackReaderD1Ev
libk3blib.so.7:_ZN3K3b18AudioCdTrackReaderD2Ev
libk3blib.so.7:_ZN3K3b18AudioCdTrackSource12createReaderEP7QObject
libk3blib.so.7:_ZN3K3b18AudioCdTrackSource6setTocERKNS_6Device3TocE
libk3blib.so.7:_ZN3K3b18AudioCdTrackSource9setDeviceEPNS_6Device6DeviceE
libk3blib.so.7:_ZN3K3b18AudioCdTrackSourceC1ERKNS_6Device3TocEiRK7QStringS7_S7_S7_PNS1_6DeviceE
libk3blib.so.7:_ZN3K3b18AudioCdTrackSourceC1ERKS0_
libk3blib.so.7:_ZN3K3b18AudioCdTrackSourceC1EjRKNS_3MsfEiRK7QStringS6_S6_S6_
libk3blib.so.7:_ZN3K3b18AudioCdTrackSourceC2ERKNS_6Device3TocEiRK7QStringS7_S7_S7_PNS1_6DeviceE
libk3blib.so.7:_ZN3K3b18AudioCdTrackSourceC2ERKS0_
libk3blib.so.7:_ZN3K3b18AudioCdTrackSourceC2EjRKNS_3MsfEiRK7QStringS6_S6_S6_
libk3blib.so.7:_ZN3K3b18AudioCdTrackSourceD0Ev
libk3blib.so.7:_ZN3K3b18AudioCdTrackSourceD1Ev
libk3blib.so.7:_ZN3K3b18AudioCdTrackSourceD2Ev
libk3blib.so.7:_ZN3K3b18BinImageWritingJob10setTocFileERK7QString
libk3blib.so.7:_ZN3K3b18BinImageWritingJob11copyPercentEi
libk3blib.so.7:_ZN3K3b18BinImageWritingJob11qt_metacallEN11QMetaObject4CallEiPPv
libk3blib.so.7:_ZN3K3b18BinImageWritingJob11qt_metacastEPKc
libk3blib.so.7:_ZN3K3b18BinImageWritingJob11writerStartEv
libk3blib.so.7:_ZN3K3b18BinImageWritingJob13prepareWriterEv
libk3blib.so.7:_ZN3K3b18BinImageWritingJob13slotNextTrackEii
libk3blib.so.7:_ZN3K3b18BinImageWritingJob14copySubPercentEi
libk3blib.so.7:_ZN3K3b18BinImageWritingJob14writerFinishedEb
libk3blib.so.7:_ZN3K3b18BinImageWritingJob16staticMetaObjectE
libk3blib.so.7:_ZN3K3b18BinImageWritingJob5startEv
libk3blib.so.7:_ZN3K3b18BinImageWritingJob6cancelEv
libk3blib.so.7:_ZN3K3b18BinImageWritingJobC1EPNS_10JobHandlerEP7QObject
libk3blib.so.7:_ZN3K3b18BinImageWritingJobC2EPNS_10JobHandlerEP7QObject
libk3blib.so.7:_ZN3K3b18BinImageWritingJobD0Ev
libk3blib.so.7:_ZN3K3b18BinImageWritingJobD1Ev
libk3blib.so.7:_ZN3K3b18BinImageWritingJobD2Ev
libk3blib.so.7:_ZN3K3b18DvdBooktypeProgramC1Ev
libk3blib.so.7:_ZN3K3b18DvdBooktypeProgramC2Ev
libk3blib.so.7:_ZN3K3b18ExternalBinManager10addProgramEPNS_15ExternalProgramE
libk3blib.so.7:_ZN3K3b18ExternalBinManager10readConfigERK12KConfigGroup
libk3blib.so.7:_ZN3K3b18ExternalBinManager10saveConfigE12KConfigGroup
libk3blib.so.7:_ZN3K3b18ExternalBinManager11qt_metacallEN11QMetaObject4CallEiPPv
libk3blib.so.7:_ZN3K3b18ExternalBinManager11qt_metacastEPKc
libk3blib.so.7:_ZN3K3b18ExternalBinManager12binNeedGroupERK7QString
libk3blib.so.7:_ZN3K3b18ExternalBinManager13addSearchPathERK7QString
libk3blib.so.7:_ZN3K3b18ExternalBinManager13setSearchPathERK11QStringList
libk3blib.so.7:_ZN3K3b18ExternalBinManager16staticMetaObjectE
libk3blib.so.7:_ZN3K3b18ExternalBinManager19mostRecentBinObjectERK7QString
libk3blib.so.7:_ZN3K3b18ExternalBinManager21loadDefaultSearchPathEv
libk3blib.so.7:_ZN3K3b18ExternalBinManager5clearEv
libk3blib.so.7:_ZN3K3b18ExternalBinManager6searchEv
libk3blib.so.7:_ZN3K3b18ExternalBinManager7Private6noPathE
libk3blib.so.7:_ZN3K3b18ExternalBinManager7binPathERK7QString
libk3blib.so.7:_ZN3K3b18ExternalBinManager8foundBinERK7QString
libk3blib.so.7:_ZN3K3b18ExternalBinManager9binObjectERK7QString
libk3blib.so.7:_ZN3K3b18ExternalBinManagerC1EP7QObject
libk3blib.so.7:_ZN3K3b18ExternalBinManagerC2EP7QObject
libk3blib.so.7:_ZN3K3b18ExternalBinManagerD0Ev
libk3blib.so.7:_ZN3K3b18ExternalBinManagerD1Ev
libk3blib.so.7:_ZN3K3b18ExternalBinManagerD2Ev
libk3blib.so.7:_ZN3K3b18Iso9660FileBackend4openEv
libk3blib.so.7:_ZN3K3b18Iso9660FileBackend4readEjPci
libk3blib.so.7:_ZN3K3b18Iso9660FileBackend5closeEv
libk3blib.so.7:_ZN3K3b18Iso9660FileBackendC1ERK7QString
libk3blib.so.7:_ZN3K3b18Iso9660FileBackendC1Ei
libk3blib.so.7:_ZN3K3b18Iso9660FileBackendC2ERK7QString
libk3blib.so.7:_ZN3K3b18Iso9660FileBackendC2Ei
libk3blib.so.7:_ZN3K3b18Iso9660FileBackendD0Ev
libk3blib.so.7:_ZN3K3b18Iso9660FileBackendD1Ev
libk3blib.so.7:_ZN3K3b18Iso9660FileBackendD2Ev
libk3blib.so.7:_ZN3K3b18PluginConfigWidget11qt_metacallEN11QMetaObject4CallEiPPv
libk3blib.so.7:_ZN3K3b18PluginConfigWidget11qt_metacastEPKc
libk3blib.so.7:_ZN3K3b18PluginConfigWidget16staticMetaObjectE
libk3blib.so.7:_ZN3K3b18PluginConfigWidgetC1EP7QWidgetRK5QListI8QVariantE
libk3blib.so.7:_ZN3K3b18PluginConfigWidgetC2EP7QWidgetRK5QListI8QVariantE
libk3blib.so.7:_ZN3K3b18PluginConfigWidgetD0Ev
libk3blib.so.7:_ZN3K3b18PluginConfigWidgetD1Ev
libk3blib.so.7:_ZN3K3b18PluginConfigWidgetD2Ev
libk3blib.so.7:_ZN3K3b18RawAudioDataReader4openE6QFlagsIN9QIODevice12OpenModeFlagEE
libk3blib.so.7:_ZN3K3b18RawAudioDataReader4seekEx
libk3blib.so.7:_ZN3K3b18RawAudioDataReader5closeEv
libk3blib.so.7:_ZN3K3b18RawAudioDataReader8readDataEPcx
libk3blib.so.7:_ZN3K3b18RawAudioDataReader9writeDataEPKcx
libk3blib.so.7:_ZN3K3b18RawAudioDataReaderC1ERNS_18RawAudioDataSourceEP7QObject
libk3blib.so.7:_ZN3K3b18RawAudioDataReaderC2ERNS_18RawAudioDataSourceEP7QObject
libk3blib.so.7:_ZN3K3b18RawAudioDataReaderD0Ev
libk3blib.so.7:_ZN3K3b18RawAudioDataReaderD1Ev
libk3blib.so.7:_ZN3K3b18RawAudioDataReaderD2Ev
libk3blib.so.7:_ZN3K3b18RawAudioDataSource12createReaderEP7QObject
libk3blib.so.7:_ZN3K3b18RawAudioDataSourceC1ERK7QString
libk3blib.so.7:_ZN3K3b18RawAudioDataSourceC1ERKS0_
libk3blib.so.7:_ZN3K3b18RawAudioDataSourceC1Ev
libk3blib.so.7:_ZN3K3b18RawAudioDataSourceC2ERK7QString
libk3blib.so.7:_ZN3K3b18RawAudioDataSourceC2ERKS0_
libk3blib.so.7:_ZN3K3b18RawAudioDataSourceC2Ev
libk3blib.so.7:_ZN3K3b18RawAudioDataSourceD0Ev
libk3blib.so.7:_ZN3K3b18RawAudioDataSourceD1Ev
libk3blib.so.7:_ZN3K3b18RawAudioDataSourceD2Ev
libk3blib.so.7:_ZN3K3b18addDefaultProgramsEPNS_18ExternalBinManagerE
libk3blib.so.7:_ZN3K3b18convertToLocalUrlsERK5QListI4QUrlE
libk3blib.so.7:_ZN3K3b18hackedAtapiSupportEv
libk3blib.so.7:_ZN3K3b18writingAppToStringENS_10WritingAppE
libk3blib.so.7:_ZN3K3b19AudioDecoderFactory11qt_metacallEN11QMetaObject4CallEiPPv
libk3blib.so.7:_ZN3K3b19AudioDecoderFactory11qt_metacastEPKc
libk3blib.so.7:_ZN3K3b19AudioDecoderFactory13createDecoderERK4QUrl
libk3blib.so.7:_ZN3K3b19AudioDecoderFactory16staticMetaObjectE
libk3blib.so.7:_ZN3K3b19AudioZeroDataReader4openE6QFlagsIN9QIODevice12OpenModeFlagEE
libk3blib.so.7:_ZN3K3b19AudioZeroDataReader8readDataEPcx
libk3blib.so.7:_ZN3K3b19AudioZeroDataReader9writeDataEPKcx
libk3blib.so.7:_ZN3K3b19AudioZeroDataReaderC1ERNS_13AudioZeroDataEP7QObject
libk3blib.so.7:_ZN3K3b19AudioZeroDataReaderC2ERNS_13AudioZeroDataEP7QObject
libk3blib.so.7:_ZN3K3b19AudioZeroDataReaderD0Ev
libk3blib.so.7:_ZN3K3b19AudioZeroDataReaderD1Ev
libk3blib.so.7:_ZN3K3b19AudioZeroDataReaderD2Ev
libk3blib.so.7:_ZN3K3b19simpleKernelVersionEv
libk3blib.so.7:_ZN3K3b20AudioFileAnalyzerJob10setDecoderEPNS_12AudioDecoderE
libk3blib.so.7:_ZN3K3b20AudioFileAnalyzerJob11qt_metacallEN11QMetaObject4CallEiPPv
libk3blib.so.7:_ZN3K3b20AudioFileAnalyzerJob11qt_metacastEPKc
libk3blib.so.7:_ZN3K3b20AudioFileAnalyzerJob16staticMetaObjectE
libk3blib.so.7:_ZN3K3b20AudioFileAnalyzerJob3runEv
libk3blib.so.7:_ZN3K3b20AudioFileAnalyzerJobC1EPNS_10JobHandlerEP7QObject
libk3blib.so.7:_ZN3K3b20AudioFileAnalyzerJobC2EPNS_10JobHandlerEP7QObject
libk3blib.so.7:_ZN3K3b20AudioFileAnalyzerJobD0Ev
libk3blib.so.7:_ZN3K3b20AudioFileAnalyzerJobD1Ev
libk3blib.so.7:_ZN3K3b20AudioFileAnalyzerJobD2Ev
libk3blib.so.7:_ZN3K3b20Iso9660DeviceBackend4openEv
libk3blib.so.7:_ZN3K3b20Iso9660DeviceBackend4readEjPci
libk3blib.so.7:_ZN3K3b20Iso9660DeviceBackend5closeEv
libk3blib.so.7:_ZN3K3b20Iso9660DeviceBackendC1EPNS_6Device6DeviceE
libk3blib.so.7:_ZN3K3b20Iso9660DeviceBackendC2EPNS_6Device6DeviceE
libk3blib.so.7:_ZN3K3b20Iso9660DeviceBackendD0Ev
libk3blib.so.7:_ZN3K3b20Iso9660DeviceBackendD1Ev
libk3blib.so.7:_ZN3K3b20Iso9660DeviceBackendD2Ev
libk3blib.so.7:_ZN3K3b20addTranscodeProgramsEPNS_18ExternalBinManagerE
libk3blib.so.7:_ZN3K3b20addVcdimagerProgramsEPNS_18ExternalBinManagerE
libk3blib.so.7:_ZN3K3b20findUniqueFilePrefixERK7QStringS2_
libk3blib.so.7:_ZN3K3b20writingAppFromStringERK7QString
libk3blib.so.7:_ZN3K3b21DeviceSelectionDialog10addDevicesERK5QListIPNS_6Device6DeviceEE
libk3blib.so.7:_ZN3K3b21DeviceSelectionDialog11qt_metacallEN11QMetaObject4CallEiPPv
libk3blib.so.7:_ZN3K3b21DeviceSelectionDialog11qt_metacastEPKc
libk3blib.so.7:_ZN3K3b21DeviceSelectionDialog12selectDeviceEP7QWidgetRK5QListIPNS_6Device6DeviceEERK7QString
libk3blib.so.7:_ZN3K3b21DeviceSelectionDialog12selectDeviceEP7QWidgetRK7QString
libk3blib.so.7:_ZN3K3b21DeviceSelectionDialog12selectWriterEP7QWidgetRK7QString
libk3blib.so.7:_ZN3K3b21DeviceSelectionDialog16staticMetaObjectE
libk3blib.so.7:_ZN3K3b21DeviceSelectionDialog17setSelectedDeviceEPNS_6Device6DeviceE
libk3blib.so.7:_ZN3K3b21DeviceSelectionDialog9addDeviceEPNS_6Device6DeviceE
libk3blib.so.7:_ZN3K3b21DeviceSelectionDialogC1EP7QWidgetRK7QString
libk3blib.so.7:_ZN3K3b21DeviceSelectionDialogC2EP7QWidgetRK7QString
libk3blib.so.7:_ZN3K3b21DeviceSelectionDialogD0Ev
libk3blib.so.7:_ZN3K3b21DeviceSelectionDialogD1Ev
libk3blib.so.7:_ZN3K3b21DeviceSelectionDialogD2Ev
libk3blib.so.7:_ZN3K3b21SimpleExternalProgram14parseVersionAtERK7QStringi
libk3blib.so.7:_ZN3K3b21SimpleExternalProgram4scanERK7QString
libk3blib.so.7:_ZN3K3b21SimpleExternalProgramC1ERK7QString
libk3blib.so.7:_ZN3K3b21SimpleExternalProgramC2ERK7QString
libk3blib.so.7:_ZN3K3b21SimpleExternalProgramD0Ev
libk3blib.so.7:_ZN3K3b21SimpleExternalProgramD1Ev
libk3blib.so.7:_ZN3K3b21SimpleExternalProgramD2Ev
libk3blib.so.7:_ZN3K3b22AudioCueFileWritingJob10setCueFileERK7QString
libk3blib.so.7:_ZN3K3b22AudioCueFileWritingJob10setTempDirERK7QString
libk3blib.so.7:_ZN3K3b22AudioCueFileWritingJob11qt_metacallEN11QMetaObject4CallEiPPv
libk3blib.so.7:_ZN3K3b22AudioCueFileWritingJob11qt_metacastEPKc
libk3blib.so.7:_ZN3K3b22AudioCueFileWritingJob11setOnTheFlyEb
libk3blib.so.7:_ZN3K3b22AudioCueFileWritingJob11setSimulateEb
libk3blib.so.7:_ZN3K3b22AudioCueFileWritingJob13setBurnDeviceEPNS_6Device6DeviceE
libk3blib.so.7:_ZN3K3b22AudioCueFileWritingJob14setWritingModeENS_11WritingModeE
libk3blib.so.7:_ZN3K3b22AudioCueFileWritingJob16staticMetaObjectE
libk3blib.so.7:_ZN3K3b22AudioCueFileWritingJob18importCueInProjectEv
libk3blib.so.7:_ZN3K3b22AudioCueFileWritingJob23slotAnalyserJobFinishedEb
libk3blib.so.7:_ZN3K3b22AudioCueFileWritingJob5startEv
libk3blib.so.7:_ZN3K3b22AudioCueFileWritingJob6cancelEv
libk3blib.so.7:_ZN3K3b22AudioCueFileWritingJob8setSpeedEi
libk3blib.so.7:_ZN3K3b22AudioCueFileWritingJob9setCopiesEi
libk3blib.so.7:_ZN3K3b22AudioCueFileWritingJobC1EPNS_10JobHandlerEP7QObject
libk3blib.so.7:_ZN3K3b22AudioCueFileWritingJobC2EPNS_10JobHandlerEP7QObject
libk3blib.so.7:_ZN3K3b22AudioCueFileWritingJobD0Ev
libk3blib.so.7:_ZN3K3b22AudioCueFileWritingJobD1Ev
libk3blib.so.7:_ZN3K3b22AudioCueFileWritingJobD2Ev
libk3blib.so.7:_ZN3K3b22Iso9660ImageWritingJob11qt_metacallEN11QMetaObject4CallEiPPv
libk3blib.so.7:_ZN3K3b22Iso9660ImageWritingJob11qt_metacastEPKc
libk3blib.so.7:_ZN3K3b22Iso9660ImageWritingJob12startWritingEv
libk3blib.so.7:_ZN3K3b22Iso9660ImageWritingJob13prepareWriterEv
libk3blib.so.7:_ZN3K3b22Iso9660ImageWritingJob13slotNextTrackEii
libk3blib.so.7:_ZN3K3b22Iso9660ImageWritingJob16staticMetaObjectE
libk3blib.so.7:_ZN3K3b22Iso9660ImageWritingJob17slotWriterPercentEi
libk3blib.so.7:_ZN3K3b22Iso9660ImageWritingJob21slotWriterJobFinishedEb
libk3blib.so.7:_ZN3K3b22Iso9660ImageWritingJob24slotVerificationFinishedEb
libk3blib.so.7:_ZN3K3b22Iso9660ImageWritingJob24slotVerificationProgressEi
libk3blib.so.7:_ZN3K3b22Iso9660ImageWritingJob5startEv
libk3blib.so.7:_ZN3K3b22Iso9660ImageWritingJob6cancelEv
libk3blib.so.7:_ZN3K3b22Iso9660ImageWritingJobC1EPNS_10JobHandlerE
libk3blib.so.7:_ZN3K3b22Iso9660ImageWritingJobC2EPNS_10JobHandlerE
libk3blib.so.7:_ZN3K3b22Iso9660ImageWritingJobD0Ev
libk3blib.so.7:_ZN3K3b22Iso9660ImageWritingJobD1Ev
libk3blib.so.7:_ZN3K3b22Iso9660ImageWritingJobD2Ev
libk3blib.so.7:_ZN3K3b22appendNumberToFilenameERK7QStringij
libk3blib.so.7:_ZN3K3b23AbstractCdrtoolsProgramC1ERK7QStringS3_
libk3blib.so.7:_ZN3K3b23AbstractCdrtoolsProgramC2ERK7QStringS3_
libk3blib.so.7:_ZN3K3b23AbstractCdrtoolsProgramD0Ev
libk3blib.so.7:_ZN3K3b23AbstractCdrtoolsProgramD1Ev
libk3blib.so.7:_ZN3K3b23AbstractCdrtoolsProgramD2Ev
libk3blib.so.7:_ZN3K3b23AudioDataSourceIterator4nextEv
libk3blib.so.7:_ZN3K3b23AudioDataSourceIterator5firstEv
libk3blib.so.7:_ZN3K3b23AudioDataSourceIteratorC1EPNS_8AudioDocE
libk3blib.so.7:_ZN3K3b23AudioDataSourceIteratorC2EPNS_8AudioDocE
libk3blib.so.7:_ZN3K3b23Iso9660LibDvdCssBackend4openEv
libk3blib.so.7:_ZN3K3b23Iso9660LibDvdCssBackend4readEjPci
libk3blib.so.7:_ZN3K3b23Iso9660LibDvdCssBackend5closeEv
libk3blib.so.7:_ZN3K3b23Iso9660LibDvdCssBackendC1EPNS_6Device6DeviceE
libk3blib.so.7:_ZN3K3b23Iso9660LibDvdCssBackendC2EPNS_6Device6DeviceE
libk3blib.so.7:_ZN3K3b23Iso9660LibDvdCssBackendD0Ev
libk3blib.so.7:_ZN3K3b23Iso9660LibDvdCssBackendD1Ev
libk3blib.so.7:_ZN3K3b23Iso9660LibDvdCssBackendD2Ev
libk3blib.so.7:_ZN3K3b23removeFilenameExtensionERK7QString
libk3blib.so.7:_ZN3K3b24formatWritingSpeedFactorEiNS_6Device9MediaTypeENS_11SpeedFormatE
libk3blib.so.7:_ZN3K3b26externalBinDeviceParameterEPNS_6Device6DeviceEPKNS_11ExternalBinE
libk3blib.so.7:_ZN3K3b27VideoDVDTitleTranscodingJob11qt_metacallEN11QMetaObject4CallEiPPv
libk3blib.so.7:_ZN3K3b27VideoDVDTitleTranscodingJob11qt_metacastEPKc
libk3blib.so.7:_ZN3K3b27VideoDVDTitleTranscodingJob11setClippingEiiii
libk3blib.so.7:_ZN3K3b27VideoDVDTitleTranscodingJob14startTranscodeEi
libk3blib.so.7:_ZN3K3b27VideoDVDTitleTranscodingJob16audioCodecStringENS0_10AudioCodecE
libk3blib.so.7:_ZN3K3b27VideoDVDTitleTranscodingJob16staticMetaObjectE
libk3blib.so.7:_ZN3K3b27VideoDVDTitleTranscodingJob16videoCodecStringENS0_10VideoCodecE
libk3blib.so.7:_ZN3K3b27VideoDVDTitleTranscodingJob19slotTranscodeExitedEiN8QProcess10ExitStatusE
libk3blib.so.7:_ZN3K3b27VideoDVDTitleTranscodingJob19slotTranscodeStderrERK7QString
libk3blib.so.7:_ZN3K3b27VideoDVDTitleTranscodingJob21audioCodecDescriptionENS0_10AudioCodecE
libk3blib.so.7:_ZN3K3b27VideoDVDTitleTranscodingJob21videoCodecDescriptionENS0_10VideoCodecE
libk3blib.so.7:_ZN3K3b27VideoDVDTitleTranscodingJob28transcodeBinaryHasSupportForENS0_10AudioCodecEPKNS_11ExternalBinE
libk3blib.so.7:_ZN3K3b27VideoDVDTitleTranscodingJob28transcodeBinaryHasSupportForENS0_10VideoCodecEPKNS_11ExternalBinE
libk3blib.so.7:_ZN3K3b27VideoDVDTitleTranscodingJob5startEv
libk3blib.so.7:_ZN3K3b27VideoDVDTitleTranscodingJob6cancelEv
libk3blib.so.7:_ZN3K3b27VideoDVDTitleTranscodingJob7cleanupEb
libk3blib.so.7:_ZN3K3b27VideoDVDTitleTranscodingJob7setSizeEii
libk3blib.so.7:_ZN3K3b27VideoDVDTitleTranscodingJobC1EPNS_10JobHandlerEP7QObject
libk3blib.so.7:_ZN3K3b27VideoDVDTitleTranscodingJobC2EPNS_10JobHandlerEP7QObject
libk3blib.so.7:_ZN3K3b27VideoDVDTitleTranscodingJobD0Ev
libk3blib.so.7:_ZN3K3b27VideoDVDTitleTranscodingJobD1Ev
libk3blib.so.7:_ZN3K3b27VideoDVDTitleTranscodingJobD2Ev
libk3blib.so.7:_ZN3K3b30Iso9660SimplePrimaryDescriptorC1Ev
libk3blib.so.7:_ZN3K3b30Iso9660SimplePrimaryDescriptorC2Ev
libk3blib.so.7:_ZN3K3b30VideoDVDTitleDetectClippingJob11qt_metacallEN11QMetaObject4CallEiPPv
libk3blib.so.7:_ZN3K3b30VideoDVDTitleDetectClippingJob11qt_metacastEPKc
libk3blib.so.7:_ZN3K3b30VideoDVDTitleDetectClippingJob14startTranscodeEi
libk3blib.so.7:_ZN3K3b30VideoDVDTitleDetectClippingJob16staticMetaObjectE
libk3blib.so.7:_ZN3K3b30VideoDVDTitleDetectClippingJob19slotTranscodeExitedEiN8QProcess10ExitStatusE
libk3blib.so.7:_ZN3K3b30VideoDVDTitleDetectClippingJob19slotTranscodeStderrERK7QString
libk3blib.so.7:_ZN3K3b30VideoDVDTitleDetectClippingJob5startEv
libk3blib.so.7:_ZN3K3b30VideoDVDTitleDetectClippingJob6cancelEv
libk3blib.so.7:_ZN3K3b30VideoDVDTitleDetectClippingJobC1EPNS_10JobHandlerEP7QObject
libk3blib.so.7:_ZN3K3b30VideoDVDTitleDetectClippingJobC2EPNS_10JobHandlerEP7QObject
libk3blib.so.7:_ZN3K3b30VideoDVDTitleDetectClippingJobD0Ev
libk3blib.so.7:_ZN3K3b30VideoDVDTitleDetectClippingJobD1Ev
libk3blib.so.7:_ZN3K3b30VideoDVDTitleDetectClippingJobD2Ev
libk3blib.so.7:_ZN3K3b30speedMultiplicatorForMediaTypeENS_6Device9MediaTypeE
libk3blib.so.7:_ZN3K3b3Doc11newDocumentEv
libk3blib.so.7:_ZN3K3b3Doc11qt_metacallEN11QMetaObject4CallEiPPv
libk3blib.so.7:_ZN3K3b3Doc11qt_metacastEPKc
libk3blib.so.7:_ZN3K3b3Doc11setModifiedEb
libk3blib.so.7:_ZN3K3b3Doc11slotChangedEv
libk3blib.so.7:_ZN3K3b3Doc16staticMetaObjectE
libk3blib.so.7:_ZN3K3b3Doc23readGeneralDocumentDataERK11QDomElement
libk3blib.so.7:_ZN3K3b3Doc23saveGeneralDocumentDataEP11QDomElement
libk3blib.so.7:_ZN3K3b3Doc6addUrlERK4QUrl
libk3blib.so.7:_ZN3K3b3Doc6setURLERK4QUrl
libk3blib.so.7:_ZN3K3b3Doc7changedEPS0_
libk3blib.so.7:_ZN3K3b3Doc7changedEv
libk3blib.so.7:_ZN3K3b3Doc8setDummyEb
libk3blib.so.7:_ZN3K3b3Doc8setSpeedEi
libk3blib.so.7:_ZN3K3b3Doc9setBurnerEPNS_6Device6DeviceE
libk3blib.so.7:_ZN3K3b3DocC1EP7QObject
libk3blib.so.7:_ZN3K3b3DocC2EP7QObject
libk3blib.so.7:_ZN3K3b3DocD0Ev
libk3blib.so.7:_ZN3K3b3DocD1Ev
libk3blib.so.7:_ZN3K3b3DocD2Ev
libk3blib.so.7:_ZN3K3b3Job10connectJobEPS0_PKcS3_S3_S3_S3_S3_S3_
libk3blib.so.7:_ZN3K3b3Job10jobStartedEv
libk3blib.so.7:_ZN3K3b3Job10newSubTaskERK7QString
libk3blib.so.7:_ZN3K3b3Job10subPercentEi
libk3blib.so.7:_ZN3K3b3Job11infoMessageERK7QStringi
libk3blib.so.7:_ZN3K3b3Job11jobFinishedEb
libk3blib.so.7:_ZN3K3b3Job11qt_metacallEN11QMetaObject4CallEiPPv
libk3blib.so.7:_ZN3K3b3Job11qt_metacastEPKc
libk3blib.so.7:_ZN3K3b3Job12slotCanceledEv
libk3blib.so.7:_ZN3K3b3Job13connectSubJobEPS0_PKcS3_S3_S3_S3_S3_S3_
libk3blib.so.7:_ZN3K3b3Job13processedSizeEii
libk3blib.so.7:_ZN3K3b3Job13questionYesNoERK7QStringS3_RK8KGuiItemS6_
libk3blib.so.7:_ZN3K3b3Job13setJobHandlerEPNS_10JobHandlerE
libk3blib.so.7:_ZN3K3b3Job13waitForMediumEPNS_6Device6DeviceE6QFlagsINS1_10MediaStateEES4_INS1_9MediaTypeEERKNS_3MsfERK7QString
libk3blib.so.7:_ZN3K3b3Job14registerSubJobEPS0_
libk3blib.so.7:_ZN3K3b3Job14slotNewSubTaskERK7QString
libk3blib.so.7:_ZN3K3b3Job15debuggingOutputERK7QStringS3_
libk3blib.so.7:_ZN3K3b3Job16processedSubSizeEii
libk3blib.so.7:_ZN3K3b3Job16staticMetaObjectE
libk3blib.so.7:_ZN3K3b3Job16unregisterSubJobEPS0_
libk3blib.so.7:_ZN3K3b3Job19blockingInformationERK7QStringS3_
libk3blib.so.7:_ZN3K3b3Job25DEFAULT_SIGNAL_CONNECTIONE
libk3blib.so.7:_ZN3K3b3Job4waitEv
libk3blib.so.7:_ZN3K3b3Job7newTaskERK7QString
libk3blib.so.7:_ZN3K3b3Job7percentEi
libk3blib.so.7:_ZN3K3b3Job7startedEv
libk3blib.so.7:_ZN3K3b3Job8canceledEv
libk3blib.so.7:_ZN3K3b3Job8finishedEb
libk3blib.so.7:_ZN3K3b3Job9nextTrackEii
libk3blib.so.7:_ZN3K3b3JobC1EPNS_10JobHandlerEP7QObject
libk3blib.so.7:_ZN3K3b3JobC2EPNS_10JobHandlerEP7QObject
libk3blib.so.7:_ZN3K3b3JobD0Ev
libk3blib.so.7:_ZN3K3b3JobD1Ev
libk3blib.so.7:_ZN3K3b3JobD2Ev
libk3blib.so.7:_ZN3K3b4CDDB18MultiEntriesDialog15selectCddbEntryERK5QListIN5KCDDB6CDInfoEEP7QWidget
libk3blib.so.7:_ZN3K3b4CDDB21createTrackOffsetListERKNS_6Device3TocE
libk3blib.so.7:_ZN3K3b4CDDB7CDDBJob11qt_metacallEN11QMetaObject4CallEiPPv
libk3blib.so.7:_ZN3K3b4CDDB7CDDBJob11qt_metacastEPKc
libk3blib.so.7:_ZN3K3b4CDDB7CDDBJob16staticMetaObjectE
libk3blib.so.7:_ZN3K3b4CDDB7CDDBJob5startEv
libk3blib.so.7:_ZN3K3b4CDDB7CDDBJob7Private20_k_cddbQueryFinishedEN5KCDDB6ResultE
libk3blib.so.7:_ZN3K3b4CDDB7CDDBJob9queryCddbERKNS_6Device3TocE
libk3blib.so.7:_ZN3K3b4CDDB7CDDBJob9queryCddbERKNS_6MediumE
libk3blib.so.7:_ZN3K3b4CDDB7CDDBJobC1EP7QObject
libk3blib.so.7:_ZN3K3b4CDDB7CDDBJobC2EP7QObject
libk3blib.so.7:_ZN3K3b4CDDB7CDDBJobD0Ev
libk3blib.so.7:_ZN3K3b4CDDB7CDDBJobD1Ev
libk3blib.so.7:_ZN3K3b4CDDB7CDDBJobD2Ev
libk3blib.so.7:_ZN3K3b4Core10jobStartedEPNS_3JobE
libk3blib.so.7:_ZN3K3b4Core11blockDeviceEPNS_6Device6DeviceE
libk3blib.so.7:_ZN3K3b4Core11customEventEP6QEvent
libk3blib.so.7:_ZN3K3b4Core11jobFinishedEPNS_3JobE
libk3blib.so.7:_ZN3K3b4Core11qt_metacallEN11QMetaObject4CallEiPPv
libk3blib.so.7:_ZN3K3b4Core11qt_metacastEPKc
libk3blib.so.7:_ZN3K3b4Core11registerJobEPNS_3JobE
libk3blib.so.7:_ZN3K3b4Core12readSettingsE28QExplicitlySharedDataPointerI13KSharedConfigE
libk3blib.so.7:_ZN3K3b4Core12saveSettingsE28QExplicitlySharedDataPointerI13KSharedConfigE
libk3blib.so.7:_ZN3K3b4Core13unblockDeviceEPNS_6Device6DeviceE
libk3blib.so.7:_ZN3K3b4Core13unregisterJobEPNS_3JobE
libk3blib.so.7:_ZN3K3b4Core14burnJobStartedEPNS_7BurnJobE
libk3blib.so.7:_ZN3K3b4Core15burnJobFinishedEPNS_7BurnJobE
libk3blib.so.7:_ZN3K3b4Core16staticMetaObjectE
libk3blib.so.7:_ZN3K3b4Core19internalBlockDeviceEPNS_6Device6DeviceE
libk3blib.so.7:_ZN3K3b4Core21internalUnblockDeviceEPNS_6Device6DeviceE
libk3blib.so.7:_ZN3K3b4Core4initEv
libk3blib.so.7:_ZN3K3b4Core9s_k3bCoreE
libk3blib.so.7:_ZN3K3b4CoreC1EP7QObject
libk3blib.so.7:_ZN3K3b4CoreC2EP7QObject
libk3blib.so.7:_ZN3K3b4CoreD0Ev
libk3blib.so.7:_ZN3K3b4CoreD1Ev
libk3blib.so.7:_ZN3K3b4CoreD2Ev
libk3blib.so.7:_ZN3K3b5ejectEPNS_6Device6DeviceE
libk3blib.so.7:_ZN3K3b5mountEPNS_6Device6DeviceE
libk3blib.so.7:_ZN3K3b6Device11sendCommandE6QFlagsINS0_13DeviceHandler7CommandEEPNS0_6DeviceE
libk3blib.so.7:_ZN3K3b6Device13DeviceHandler10getTocTypeEv
libk3blib.so.7:_ZN3K3b6Device13DeviceHandler11getDiskInfoEv
libk3blib.so.7:_ZN3K3b6Device13DeviceHandler11getDiskSizeEv
libk3blib.so.7:_ZN3K3b6Device13DeviceHandler11jobFinishedEb
libk3blib.so.7:_ZN3K3b6Device13DeviceHandler11qt_metacallEN11QMetaObject4CallEiPPv
libk3blib.so.7:_ZN3K3b6Device13DeviceHandler11qt_metacastEPKc
libk3blib.so.7:_ZN3K3b6Device13DeviceHandler11sendCommandE6QFlagsINS1_7CommandEE
libk3blib.so.7:_ZN3K3b6Device13DeviceHandler14getNumSessionsEv
libk3blib.so.7:_ZN3K3b6Device13DeviceHandler16getRemainingSizeEv
libk3blib.so.7:_ZN3K3b6Device13DeviceHandler16staticMetaObjectE
libk3blib.so.7:_ZN3K3b6Device13DeviceHandler3runEv
libk3blib.so.7:_ZN3K3b6Device13DeviceHandler5blockEb
libk3blib.so.7:_ZN3K3b6Device13DeviceHandler5ejectEv
libk3blib.so.7:_ZN3K3b6Device13DeviceHandler6getTocEv
libk3blib.so.7:_ZN3K3b6Device13DeviceHandler8finishedEPS1_
libk3blib.so.7:_ZN3K3b6Device13DeviceHandler9setDeviceEPNS0_6DeviceE
libk3blib.so.7:_ZN3K3b6Device13DeviceHandlerC1E6QFlagsINS1_7CommandEEPNS0_6DeviceE
libk3blib.so.7:_ZN3K3b6Device13DeviceHandlerC1EP7QObject
libk3blib.so.7:_ZN3K3b6Device13DeviceHandlerC1EPNS0_6DeviceEP7QObject
libk3blib.so.7:_ZN3K3b6Device13DeviceHandlerC2E6QFlagsINS1_7CommandEEPNS0_6DeviceE
libk3blib.so.7:_ZN3K3b6Device13DeviceHandlerC2EP7QObject
libk3blib.so.7:_ZN3K3b6Device13DeviceHandlerC2EPNS0_6DeviceEP7QObject
libk3blib.so.7:_ZN3K3b6Device13DeviceHandlerD0Ev
libk3blib.so.7:_ZN3K3b6Device13DeviceHandlerD1Ev
libk3blib.so.7:_ZN3K3b6Device13DeviceHandlerD2Ev
libk3blib.so.7:_ZN3K3b6Md5Job10slotUpdateEv
libk3blib.so.7:_ZN3K3b6Md5Job11qt_metacallEN11QMetaObject4CallEiPPv
libk3blib.so.7:_ZN3K3b6Md5Job11qt_metacastEPKc
libk3blib.so.7:_ZN3K3b6Md5Job11setIODeviceEP9QIODevice
libk3blib.so.7:_ZN3K3b6Md5Job12base64DigestEv
libk3blib.so.7:_ZN3K3b6Md5Job14setMaxReadSizeEx
libk3blib.so.7:_ZN3K3b6Md5Job16staticMetaObjectE
libk3blib.so.7:_ZN3K3b6Md5Job4stopEv
libk3blib.so.7:_ZN3K3b6Md5Job5startEv
libk3blib.so.7:_ZN3K3b6Md5Job6cancelEv
libk3blib.so.7:_ZN3K3b6Md5Job7setFileEPKNS_11Iso9660FileE
libk3blib.so.7:_ZN3K3b6Md5Job7setFileERK7QString
libk3blib.so.7:_ZN3K3b6Md5Job7stopAllEv
libk3blib.so.7:_ZN3K3b6Md5Job9hexDigestEv
libk3blib.so.7:_ZN3K3b6Md5Job9setDeviceEPNS_6Device6DeviceE
libk3blib.so.7:_ZN3K3b6Md5JobC1EPNS_10JobHandlerEP7QObject
libk3blib.so.7:_ZN3K3b6Md5JobC2EPNS_10JobHandlerEP7QObject
libk3blib.so.7:_ZN3K3b6Md5JobD0Ev
libk3blib.so.7:_ZN3K3b6Md5JobD1Ev
libk3blib.so.7:_ZN3K3b6Md5JobD2Ev
libk3blib.so.7:_ZN3K3b6Medium14analyseContentEv
libk3blib.so.7:_ZN3K3b6Medium18mediaRequestStringE6QFlagsINS0_13MediumContentEEPNS_6Device6DeviceE
libk3blib.so.7:_ZN3K3b6Medium18mediaRequestStringE6QFlagsINS_6Device9MediaTypeEES1_INS2_10MediaStateEERKNS_3MsfEPNS2_6DeviceE
libk3blib.so.7:_ZN3K3b6Medium19mediaRequestStringsE5QListIS0_E6QFlagsINS_6Device9MediaTypeEES3_INS4_10MediaStateEERKNS_3MsfEPNS4_6DeviceE
libk3blib.so.7:_ZN3K3b6Medium5resetEv
libk3blib.so.7:_ZN3K3b6Medium6updateEv
libk3blib.so.7:_ZN3K3b6Medium9setDeviceEPNS_6Device6DeviceE
libk3blib.so.7:_ZN3K3b6MediumC1EPNS_6Device6DeviceE
libk3blib.so.7:_ZN3K3b6MediumC1ERKS0_
libk3blib.so.7:_ZN3K3b6MediumC1Ev
libk3blib.so.7:_ZN3K3b6MediumC2EPNS_6Device6DeviceE
libk3blib.so.7:_ZN3K3b6MediumC2ERKS0_
libk3blib.so.7:_ZN3K3b6MediumC2Ev
libk3blib.so.7:_ZN3K3b6MediumD1Ev
libk3blib.so.7:_ZN3K3b6MediumD2Ev
libk3blib.so.7:_ZN3K3b6MediumaSERKS0_
libk3blib.so.7:_ZN3K3b6Plugin11qt_metacallEN11QMetaObject4CallEiPPv
libk3blib.so.7:_ZN3K3b6Plugin11qt_metacastEPKc
libk3blib.so.7:_ZN3K3b6Plugin16staticMetaObjectE
libk3blib.so.7:_ZN3K3b6PluginC1EP7QObject
libk3blib.so.7:_ZN3K3b6PluginC2EP7QObject
libk3blib.so.7:_ZN3K3b6PluginD0Ev
libk3blib.so.7:_ZN3K3b6PluginD1Ev
libk3blib.so.7:_ZN3K3b6PluginD2Ev
libk3blib.so.7:_ZN3K3b6Thread10ensureDoneEv
libk3blib.so.7:_ZN3K3b6Thread11qt_metacallEN11QMetaObject4CallEiPPv
libk3blib.so.7:_ZN3K3b6Thread11qt_metacastEPKc
libk3blib.so.7:_ZN3K3b6Thread16staticMetaObjectE
libk3blib.so.7:_ZN3K3b6Thread17waitUntilFinishedEv
libk3blib.so.7:_ZN3K3b6Thread21slotEnsureDoneTimeoutEv
libk3blib.so.7:_ZN3K3b6Thread3runEv
libk3blib.so.7:_ZN3K3b6ThreadC1EPNS_9ThreadJobE
libk3blib.so.7:_ZN3K3b6ThreadC2EPNS_9ThreadJobE
libk3blib.so.7:_ZN3K3b6ThreadD0Ev
libk3blib.so.7:_ZN3K3b6ThreadD1Ev
libk3blib.so.7:_ZN3K3b6ThreadD2Ev
libk3blib.so.7:_ZN3K3b6VcdDoc10newBurnJobEPNS_10JobHandlerEP7QObject
libk3blib.so.7:_ZN3K3b6VcdDoc10setVcdTypeEi
libk3blib.so.7:_ZN3K3b6VcdDoc11createTrackERK4QUrl
libk3blib.so.7:_ZN3K3b6VcdDoc11newDocumentEv
libk3blib.so.7:_ZN3K3b6VcdDoc11qt_metacallEN11QMetaObject4CallEiPPv
libk3blib.so.7:_ZN3K3b6VcdDoc11qt_metacastEPKc
libk3blib.so.7:_ZN3K3b6VcdDoc11removeTrackEPNS_8VcdTrackE
libk3blib.so.7:_ZN3K3b6VcdDoc12setPbcTracksEv
libk3blib.so.7:_ZN3K3b6VcdDoc12trackRemovedEPNS_8VcdTrackE
libk3blib.so.7:_ZN3K3b6VcdDoc14addedVCDTracksEv
libk3blib.so.7:_ZN3K3b6VcdDoc16loadDocumentDataEP11QDomElement
libk3blib.so.7:_ZN3K3b6VcdDoc16removedVCDTracksEv
libk3blib.so.7:_ZN3K3b6VcdDoc16saveDocumentDataEP11QDomElement
libk3blib.so.7:_ZN3K3b6VcdDoc16slotWorkUrlQueueEv
libk3blib.so.7:_ZN3K3b6VcdDoc16staticMetaObjectE
libk3blib.so.7:_ZN3K3b6VcdDoc19aboutToAddVCDTracksEii
libk3blib.so.7:_ZN3K3b6VcdDoc22aboutToRemoveVCDTracksEii
libk3blib.so.7:_ZN3K3b6VcdDoc24informAboutNotFoundFilesEv
libk3blib.so.7:_ZN3K3b6VcdDoc5clearEv
libk3blib.so.7:_ZN3K3b6VcdDoc7addUrlsERK5QListI4QUrlE
libk3blib.so.7:_ZN3K3b6VcdDoc7isImageERK4QUrl
libk3blib.so.7:_ZN3K3b6VcdDoc8addTrackEPNS_8VcdTrackEj
libk3blib.so.7:_ZN3K3b6VcdDoc8addTrackERK4QUrlj
libk3blib.so.7:_ZN3K3b6VcdDoc9addTracksERK5QListI4QUrlEj
libk3blib.so.7:_ZN3K3b6VcdDoc9moveTrackEPNS_8VcdTrackES2_
libk3blib.so.7:_ZN3K3b6VcdDoc9newTracksEv
libk3blib.so.7:_ZN3K3b6VcdDocC1EP7QObject
libk3blib.so.7:_ZN3K3b6VcdDocC2EP7QObject
libk3blib.so.7:_ZN3K3b6VcdDocD0Ev
libk3blib.so.7:_ZN3K3b6VcdDocD1Ev
libk3blib.so.7:_ZN3K3b6VcdDocD2Ev
libk3blib.so.7:_ZN3K3b7BurnJob10writeSpeedEiNS_6Device18SpeedMultiplicatorE
libk3blib.so.7:_ZN3K3b7BurnJob11qt_metacallEN11QMetaObject4CallEiPPv
libk3blib.so.7:_ZN3K3b7BurnJob11qt_metacastEPKc
libk3blib.so.7:_ZN3K3b7BurnJob12bufferStatusEi
libk3blib.so.7:_ZN3K3b7BurnJob12deviceBufferEi
libk3blib.so.7:_ZN3K3b7BurnJob13setWritingAppENS_10WritingAppE
libk3blib.so.7:_ZN3K3b7BurnJob16staticMetaObjectE
libk3blib.so.7:_ZN3K3b7BurnJob7burningEb
libk3blib.so.7:_ZN3K3b7BurnJobC1EPNS_10JobHandlerEP7QObject
libk3blib.so.7:_ZN3K3b7BurnJobC2EPNS_10JobHandlerEP7QObject
libk3blib.so.7:_ZN3K3b7BurnJobD0Ev
libk3blib.so.7:_ZN3K3b7BurnJobD1Ev
libk3blib.so.7:_ZN3K3b7BurnJobD2Ev
libk3blib.so.7:_ZN3K3b7DataDoc10bootImagesEv
libk3blib.so.7:_ZN3K3b7DataDoc10newBurnJobEPNS_10JobHandlerEP7QObject
libk3blib.so.7:_ZN3K3b7DataDoc10removeItemEPNS_8DataItemE
libk3blib.so.7:_ZN3K3b7DataDoc11addEmptyDirERK7QStringPNS_7DirItemE
libk3blib.so.7:_ZN3K3b7DataDoc11newDocumentEv
libk3blib.so.7:_ZN3K3b7DataDoc11qt_metacallEN11QMetaObject4CallEiPPv
libk3blib.so.7:_ZN3K3b7DataDoc11qt_metacastEPKc
libk3blib.so.7:_ZN3K3b7DataDoc11removeItemsEPNS_7DirItemEii
libk3blib.so.7:_ZN3K3b7DataDoc11setDataModeEi
libk3blib.so.7:_ZN3K3b7DataDoc11setVolumeIDERK7QString
libk3blib.so.7:_ZN3K3b7DataDoc12addUrlsToDirERK5QListI4QUrlEPNS_7DirItemE
libk3blib.so.7:_ZN3K3b7DataDoc12bootCatalogeEv
libk3blib.so.7:_ZN3K3b7DataDoc12bootImageDirEv
libk3blib.so.7:_ZN3K3b7DataDoc12itemsRemovedEPNS_7DirItemEii
libk3blib.so.7:_ZN3K3b7DataDoc12loadDataItemER11QDomElementPNS_7DirItemE
libk3blib.so.7:_ZN3K3b7DataDoc12saveDataItemEPNS_8DataItemEP12QDomDocumentP11QDomElement
libk3blib.so.7:_ZN3K3b7DataDoc13importSessionEPNS_6Device6DeviceEi
libk3blib.so.7:_ZN3K3b7DataDoc13itemsInsertedEPNS_7DirItemEii
libk3blib.so.7:_ZN3K3b7DataDoc13setIsoOptionsERKNS_10IsoOptionsE
libk3blib.so.7:_ZN3K3b7DataDoc13setVerifyDataEb
libk3blib.so.7:_ZN3K3b7DataDoc14createBootItemERK7QStringPNS_7DirItemE
libk3blib.so.7:_ZN3K3b7DataDoc14endInsertItemsEPNS_7DirItemEii
libk3blib.so.7:_ZN3K3b7DataDoc14endRemoveItemsEPNS_7DirItemEii
libk3blib.so.7:_ZN3K3b7DataDoc15treatWhitespaceERK7QString
libk3blib.so.7:_ZN3K3b7DataDoc15volumeIdChangedEv
libk3blib.so.7:_ZN3K3b7DataDoc16beginInsertItemsEPNS_7DirItemEii
libk3blib.so.7:_ZN3K3b7DataDoc16beginRemoveItemsEPNS_7DirItemEii
libk3blib.so.7:_ZN3K3b7DataDoc16loadDocumentDataEP11QDomElement
libk3blib.so.7:_ZN3K3b7DataDoc16nameAlreadyInDirERK7QStringPNS_7DirItemE
libk3blib.so.7:_ZN3K3b7DataDoc16prepareFilenamesEv
libk3blib.so.7:_ZN3K3b7DataDoc16saveDocumentDataEP11QDomElement
libk3blib.so.7:_ZN3K3b7DataDoc16staticMetaObjectE
libk3blib.so.7:_ZN3K3b7DataDoc19setMultiSessionModeENS0_16MultiSessionModeE
libk3blib.so.7:_ZN3K3b7DataDoc20clearImportedSessionEv
libk3blib.so.7:_ZN3K3b7DataDoc21itemsAboutToBeRemovedEPNS_7DirItemEii
libk3blib.so.7:_ZN3K3b7DataDoc21prepareFilenamesInDirEPNS_7DirItemE
libk3blib.so.7:_ZN3K3b7DataDoc22createBootCatalogeItemEPNS_7DirItemE
libk3blib.so.7:_ZN3K3b7DataDoc22importedSessionChangedEi
libk3blib.so.7:_ZN3K3b7DataDoc22itemsAboutToBeInsertedEPNS_7DirItemEii
libk3blib.so.7:_ZN3K3b7DataDoc22loadDocumentDataHeaderE11QDomElement
libk3blib.so.7:_ZN3K3b7DataDoc22saveDocumentDataHeaderER11QDomElement
libk3blib.so.7:_ZN3K3b7DataDoc23loadDocumentDataOptionsE11QDomElement
libk3blib.so.7:_ZN3K3b7DataDoc23saveDocumentDataOptionsER11QDomElement
libk3blib.so.7:_ZN3K3b7DataDoc24createSessionImportItemsEPKNS_16Iso9660DirectoryEPNS_7DirItemE
libk3blib.so.7:_ZN3K3b7DataDoc24informAboutNotFoundFilesEv
libk3blib.so.7:_ZN3K3b7DataDoc5clearEv
libk3blib.so.7:_ZN3K3b7DataDoc7addUrlsERK5QListI4QUrlE
libk3blib.so.7:_ZN3K3b7DataDoc8moveItemEPNS_8DataItemEPNS_7DirItemE
libk3blib.so.7:_ZN3K3b7DataDoc9moveItemsERK5QListIPNS_8DataItemEEPNS_7DirItemE
libk3blib.so.7:_ZN3K3b7DataDocC1EP7QObject
libk3blib.so.7:_ZN3K3b7DataDocC2EP7QObject
libk3blib.so.7:_ZN3K3b7DataDocD0Ev
libk3blib.so.7:_ZN3K3b7DataDocD1Ev
libk3blib.so.7:_ZN3K3b7DataDocD2Ev
libk3blib.so.7:_ZN3K3b7DirItem10findByPathERK7QString
libk3blib.so.7:_ZN3K3b7DirItem10updateSizeEPNS_8DataItemEb
libk3blib.so.7:_ZN3K3b7DirItem11addDataItemEPNS_8DataItemE
libk3blib.so.7:_ZN3K3b7DirItem11updateFilesEll
libk3blib.so.7:_ZN3K3b7DirItem12addDataItemsERK5QListIPNS_8DataItemEE
libk3blib.so.7:_ZN3K3b7DirItem12takeDataItemEPNS_8DataItemE
libk3blib.so.7:_ZN3K3b7DirItem13takeDataItemsEii
libk3blib.so.7:_ZN3K3b7DirItem15addDataItemImplEPNS_8DataItemE
libk3blib.so.7:_ZN3K3b7DirItem15removeDataItemsEii
libk3blib.so.7:_ZN3K3b7DirItem20updateOldSessionFlagEv
libk3blib.so.7:_ZN3K3b7DirItem5mkdirERK7QString
libk3blib.so.7:_ZN3K3b7DirItemC1ERK7QStringRK6QFlagsINS_8DataItem8ItemFlagEE
libk3blib.so.7:_ZN3K3b7DirItemC1ERKS0_
libk3blib.so.7:_ZN3K3b7DirItemC2ERK7QStringRK6QFlagsINS_8DataItem8ItemFlagEE
libk3blib.so.7:_ZN3K3b7DirItemC2ERKS0_
libk3blib.so.7:_ZN3K3b7DirItemD0Ev
libk3blib.so.7:_ZN3K3b7DirItemD1Ev
libk3blib.so.7:_ZN3K3b7DirItemD2Ev
libk3blib.so.7:_ZN3K3b7Iso966013read_callbackEPcliPv
libk3blib.so.7:_ZN3K3b7Iso966014isofs_callbackEP20iso_directory_recordPv
libk3blib.so.7:_ZN3K3b7Iso966014setStartSectorEj
libk3blib.so.7:_ZN3K3b7Iso966015setPlainIso9660Eb
libk3blib.so.7:_ZN3K3b7Iso966023createSimplePrimaryDescEP22iso_primary_descriptor
libk3blib.so.7:_ZN3K3b7Iso96604openEv
libk3blib.so.7:_ZN3K3b7Iso96604readEjPci
libk3blib.so.7:_ZN3K3b7Iso96605closeEv
libk3blib.so.7:_ZN3K3b7Iso96607addBootEP25el_torito_boot_descriptor
libk3blib.so.7:_ZN3K3b7Iso9660C1EPNS_14Iso9660BackendE
libk3blib.so.7:_ZN3K3b7Iso9660C1EPNS_6Device6DeviceEj
libk3blib.so.7:_ZN3K3b7Iso9660C1ERK7QString
libk3blib.so.7:_ZN3K3b7Iso9660C1Ei
libk3blib.so.7:_ZN3K3b7Iso9660C2EPNS_14Iso9660BackendE
libk3blib.so.7:_ZN3K3b7Iso9660C2EPNS_6Device6DeviceEj
libk3blib.so.7:_ZN3K3b7Iso9660C2ERK7QString
libk3blib.so.7:_ZN3K3b7Iso9660C2Ei
libk3blib.so.7:_ZN3K3b7Iso9660D0Ev
libk3blib.so.7:_ZN3K3b7Iso9660D1Ev
libk3blib.so.7:_ZN3K3b7Iso9660D2Ev
libk3blib.so.7:_ZN3K3b7MsfEdit10setMaximumERKNS_3MsfE
libk3blib.so.7:_ZN3K3b7MsfEdit10setMinimumERKNS_3MsfE
libk3blib.so.7:_ZN3K3b7MsfEdit11qt_metacallEN11QMetaObject4CallEiPPv
libk3blib.so.7:_ZN3K3b7MsfEdit11qt_metacastEPKc
libk3blib.so.7:_ZN3K3b7MsfEdit12valueChangedERKNS_3MsfE
libk3blib.so.7:_ZN3K3b7MsfEdit16staticMetaObjectE
libk3blib.so.7:_ZN3K3b7MsfEdit6stepByEi
libk3blib.so.7:_ZN3K3b7MsfEdit7Private18_k_editingFinishedEv
libk3blib.so.7:_ZN3K3b7MsfEdit8setValueERKNS_3MsfE
libk3blib.so.7:_ZN3K3b7MsfEditC1EP7QWidget
libk3blib.so.7:_ZN3K3b7MsfEditC2EP7QWidget
libk3blib.so.7:_ZN3K3b7MsfEditD0Ev
libk3blib.so.7:_ZN3K3b7MsfEditD1Ev
libk3blib.so.7:_ZN3K3b7MsfEditD2Ev
libk3blib.so.7:_ZN3K3b7Process10joinedArgsEv
libk3blib.so.7:_ZN3K3b7Process10stderrLineERK7QString
libk3blib.so.7:_ZN3K3b7Process10stdoutLineERK7QString
libk3blib.so.7:_ZN3K3b7Process11qt_metacallEN11QMetaObject4CallEiPPv
libk3blib.so.7:_ZN3K3b7Process11qt_metacastEPKc
libk3blib.so.7:_ZN3K3b7Process14setSplitStdoutEb
libk3blib.so.7:_ZN3K3b7Process16staticMetaObjectE
libk3blib.so.7:_ZN3K3b7Process21setSuppressEmptyLinesEb
libk3blib.so.7:_ZN3K3b7Process26slotReadyReadStandardErrorEv
libk3blib.so.7:_ZN3K3b7Process27slotReadyReadStandardOutputEv
libk3blib.so.7:_ZN3K3b7Process5closeEv
libk3blib.so.7:_ZN3K3b7Process5startEN8KProcess17OutputChannelModeE
libk3blib.so.7:_ZN3K3b7ProcessC1EP7QObject
libk3blib.so.7:_ZN3K3b7ProcessC2EP7QObject
libk3blib.so.7:_ZN3K3b7ProcessD0Ev
libk3blib.so.7:_ZN3K3b7ProcessD1Ev
libk3blib.so.7:_ZN3K3b7ProcessD2Ev
libk3blib.so.7:_ZN3K3b7ProcesslsEPKNS_11ExternalBinE
libk3blib.so.7:_ZN3K3b7ProcesslsEPKc
libk3blib.so.7:_ZN3K3b7ProcesslsERK10QByteArray
libk3blib.so.7:_ZN3K3b7ProcesslsERK13QLatin1String
libk3blib.so.7:_ZN3K3b7Version10setVersionERK7QString
libk3blib.so.7:_ZN3K3b7Version10setVersionEiiiRK7QString
libk3blib.so.7:_ZN3K3b7Version13compareSuffixERK7QStringS3_
libk3blib.so.7:_ZN3K3b7Version19createVersionStringEiiiRK7QString
libk3blib.so.7:_ZN3K3b7VersionC1ERK7QString
libk3blib.so.7:_ZN3K3b7VersionC1ERKS0_
libk3blib.so.7:_ZN3K3b7VersionC1EiiiRK7QString
libk3blib.so.7:_ZN3K3b7VersionC1Ev
libk3blib.so.7:_ZN3K3b7VersionC2ERK7QString
libk3blib.so.7:_ZN3K3b7VersionC2ERKS0_
libk3blib.so.7:_ZN3K3b7VersionC2EiiiRK7QString
libk3blib.so.7:_ZN3K3b7VersionC2Ev
libk3blib.so.7:_ZN3K3b7VersionD1Ev
libk3blib.so.7:_ZN3K3b7VersionD2Ev
libk3blib.so.7:_ZN3K3b7VersionaSERK7QString
libk3blib.so.7:_ZN3K3b7VersionaSERKS0_
libk3blib.so.7:_ZN3K3b7findExeERK7QString
libk3blib.so.7:_ZN3K3b7unmountEPNS_6Device6DeviceE
libk3blib.so.7:_ZN3K3b8AudioDoc10addSourcesEPNS_10AudioTrackERK5QListI4QUrlEPNS_15AudioDataSourceE
libk3blib.so.7:_ZN3K3b8AudioDoc10newBurnJobEPNS_10JobHandlerEP7QObject
libk3blib.so.7:_ZN3K3b8AudioDoc10setDisc_idERK7QString
libk3blib.so.7:_ZN3K3b8AudioDoc10setUpc_eanERK7QString
libk3blib.so.7:_ZN3K3b8AudioDoc10trackAddedEi
libk3blib.so.7:_ZN3K3b8AudioDoc11createTrackERK4QUrl
libk3blib.so.7:_ZN3K3b8AudioDoc11newDocumentEv
libk3blib.so.7:_ZN3K3b8AudioDoc11qt_metacallEN11QMetaObject4CallEiPPv
libk3blib.so.7:_ZN3K3b8AudioDoc11qt_metacastEPKc
libk3blib.so.7:_ZN3K3b8AudioDoc11removeTrackEPNS_10AudioTrackE
libk3blib.so.7:_ZN3K3b8AudioDoc11setArrangerERK7QString
libk3blib.so.7:_ZN3K3b8AudioDoc11setComposerERK7QString
libk3blib.so.7:_ZN3K3b8AudioDoc11sourceAddedEPNS_10AudioTrackEi
libk3blib.so.7:_ZN3K3b8AudioDoc11writeCdTextEb
libk3blib.so.7:_ZN3K3b8AudioDoc12setLastTrackEPNS_10AudioTrackE
libk3blib.so.7:_ZN3K3b8AudioDoc12setNormalizeEb
libk3blib.so.7:_ZN3K3b8AudioDoc12setPerformerERK7QString
libk3blib.so.7:_ZN3K3b8AudioDoc12trackChangedEPNS_10AudioTrackE
libk3blib.so.7:_ZN3K3b8AudioDoc12trackRemovedEi
libk3blib.so.7:_ZN3K3b8AudioDoc13importCueFileERK7QStringPNS_10AudioTrackEPNS_12AudioDecoderE
libk3blib.so.7:_ZN3K3b8AudioDoc13setFirstTrackEPNS_10AudioTrackE
libk3blib.so.7:_ZN3K3b8AudioDoc13setSongwriterERK7QString
libk3blib.so.7:_ZN3K3b8AudioDoc13sourceRemovedEPNS_10AudioTrackEi
libk3blib.so.7:_ZN3K3b8AudioDoc14extractUrlListERK5QListI4QUrlE
libk3blib.so.7:_ZN3K3b8AudioDoc15createAudioFileERK4QUrl
libk3blib.so.7:_ZN3K3b8AudioDoc16getDecoderForUrlERK4QUrlPb
libk3blib.so.7:_ZN3K3b8AudioDoc16loadDocumentDataEP11QDomElement
libk3blib.so.7:_ZN3K3b8AudioDoc16readPlaylistFileERK4QUrlR5QListIS1_E
libk3blib.so.7:_ZN3K3b8AudioDoc16saveDocumentDataEP11QDomElement
libk3blib.so.7:_ZN3K3b8AudioDoc16setCdTextMessageERK7QString
libk3blib.so.7:_ZN3K3b8AudioDoc16slotTrackChangedEPNS_10AudioTrackE
libk3blib.so.7:_ZN3K3b8AudioDoc16slotTrackRemovedEi
libk3blib.so.7:_ZN3K3b8AudioDoc16staticMetaObjectE
libk3blib.so.7:_ZN3K3b8AudioDoc17setHideFirstTrackEb
libk3blib.so.7:_ZN3K3b8AudioDoc19trackAboutToBeAddedEi
libk3blib.so.7:_ZN3K3b8AudioDoc20decreaseDecoderUsageEPNS_12AudioDecoderE
libk3blib.so.7:_ZN3K3b8AudioDoc20increaseDecoderUsageEPNS_12AudioDecoderE
libk3blib.so.7:_ZN3K3b8AudioDoc20sourceAboutToBeAddedEPNS_10AudioTrackEi
libk3blib.so.7:_ZN3K3b8AudioDoc21trackAboutToBeRemovedEi
libk3blib.so.7:_ZN3K3b8AudioDoc22setAudioRippingRetriesEi
libk3blib.so.7:_ZN3K3b8AudioDoc22sourceAboutToBeRemovedEPNS_10AudioTrackEi
libk3blib.so.7:_ZN3K3b8AudioDoc27setAudioRippingParanoiaModeEi
libk3blib.so.7:_ZN3K3b8AudioDoc31setAudioRippingIgnoreReadErrorsEb
libk3blib.so.7:_ZN3K3b8AudioDoc5clearEv
libk3blib.so.7:_ZN3K3b8AudioDoc7addUrlsERK5QListI4QUrlE
libk3blib.so.7:_ZN3K3b8AudioDoc8addTrackEPNS_10AudioTrackEi
libk3blib.so.7:_ZN3K3b8AudioDoc8addTrackERK4QUrli
libk3blib.so.7:_ZN3K3b8AudioDoc8getTrackEi
libk3blib.so.7:_ZN3K3b8AudioDoc8setTitleERK7QString
libk3blib.so.7:_ZN3K3b8AudioDoc9addTracksERK5QListI4QUrlEi
libk3blib.so.7:_ZN3K3b8AudioDoc9moveTrackEPNS_10AudioTrackES2_
libk3blib.so.7:_ZN3K3b8AudioDoc9setArtistERK7QString
libk3blib.so.7:_ZN3K3b8AudioDocC1EP7QObject
libk3blib.so.7:_ZN3K3b8AudioDocC2EP7QObject
libk3blib.so.7:_ZN3K3b8AudioDocD0Ev
libk3blib.so.7:_ZN3K3b8AudioDocD1Ev
libk3blib.so.7:_ZN3K3b8AudioDocD2Ev
libk3blib.so.7:_ZN3K3b8BootItemC1ERK7QStringRNS_7DataDocES3_
libk3blib.so.7:_ZN3K3b8BootItemC1ERKS0_
libk3blib.so.7:_ZN3K3b8BootItemC2ERK7QStringRNS_7DataDocES3_
libk3blib.so.7:_ZN3K3b8BootItemC2ERKS0_
libk3blib.so.7:_ZN3K3b8BootItemD0Ev
libk3blib.so.7:_ZN3K3b8BootItemD1Ev
libk3blib.so.7:_ZN3K3b8BootItemD2Ev
libk3blib.so.7:_ZN3K3b8CloneJob11qt_metacallEN11QMetaObject4CallEiPPv
libk3blib.so.7:_ZN3K3b8CloneJob11qt_metacastEPKc
libk3blib.so.7:_ZN3K3b8CloneJob12startWritingEv
libk3blib.so.7:_ZN3K3b8CloneJob13prepareReaderEv
libk3blib.so.7:_ZN3K3b8CloneJob13prepareWriterEv
libk3blib.so.7:_ZN3K3b8CloneJob16removeImageFilesEv
libk3blib.so.7:_ZN3K3b8CloneJob16staticMetaObjectE
libk3blib.so.7:_ZN3K3b8CloneJob17slotWriterPercentEi
libk3blib.so.7:_ZN3K3b8CloneJob18slotReadingPercentEi
libk3blib.so.7:_ZN3K3b8CloneJob18slotWriterFinishedEb
libk3blib.so.7:_ZN3K3b8CloneJob19slotReadingFinishedEb
libk3blib.so.7:_ZN3K3b8CloneJob19slotWriterNextTrackEii
libk3blib.so.7:_ZN3K3b8CloneJob5startEv
libk3blib.so.7:_ZN3K3b8CloneJob6cancelEv
libk3blib.so.7:_ZN3K3b8CloneJobC1EPNS_10JobHandlerEP7QObject
libk3blib.so.7:_ZN3K3b8CloneJobC2EPNS_10JobHandlerEP7QObject
libk3blib.so.7:_ZN3K3b8CloneJobD0Ev
libk3blib.so.7:_ZN3K3b8CloneJobD1Ev
libk3blib.so.7:_ZN3K3b8CloneJobD2Ev
libk3blib.so.7:_ZN3K3b8DataItem10setK3bNameERK7QString
libk3blib.so.7:_ZN3K3b8DataItem15setHideOnJolietEb
libk3blib.so.7:_ZN3K3b8DataItem18setHideOnRockRidgeEb
libk3blib.so.7:_ZN3K3b8DataItem4takeEv
libk3blib.so.7:_ZN3K3b8DataItem8reparentEPNS_7DirItemE
libk3blib.so.7:_ZN3K3b8DataItem8setFlagsERK6QFlagsINS0_8ItemFlagEE
libk3blib.so.7:_ZN3K3b8DataItemC1ERK6QFlagsINS0_8ItemFlagEE
libk3blib.so.7:_ZN3K3b8DataItemC1ERKS0_
libk3blib.so.7:_ZN3K3b8DataItemC2ERK6QFlagsINS0_8ItemFlagEE
libk3blib.so.7:_ZN3K3b8DataItemC2ERKS0_
libk3blib.so.7:_ZN3K3b8DataItemD0Ev
libk3blib.so.7:_ZN3K3b8DataItemD1Ev
libk3blib.so.7:_ZN3K3b8DataItemD2Ev
libk3blib.so.7:_ZN3K3b8FileItem10absIsoPathEv
libk3blib.so.7:_ZN3K3b8FileItem4initERK7QStringS3_RNS_7DataDocEPK6stat64S8_
libk3blib.so.7:_ZN3K3b8FileItemC1EPK6stat64S3_RK7QStringRNS_7DataDocES6_RK6QFlagsINS_8DataItem8ItemFlagEE
libk3blib.so.7:_ZN3K3b8FileItemC1ERK7QStringRNS_7DataDocES3_RK6QFlagsINS_8DataItem8ItemFlagEE
libk3blib.so.7:_ZN3K3b8FileItemC1ERKS0_
libk3blib.so.7:_ZN3K3b8FileItemC2EPK6stat64S3_RK7QStringRNS_7DataDocES6_RK6QFlagsINS_8DataItem8ItemFlagEE
libk3blib.so.7:_ZN3K3b8FileItemC2ERK7QStringRNS_7DataDocES3_RK6QFlagsINS_8DataItem8ItemFlagEE
libk3blib.so.7:_ZN3K3b8FileItemC2ERKS0_
libk3blib.so.7:_ZN3K3b8FileItemD0Ev
libk3blib.so.7:_ZN3K3b8FileItemD1Ev
libk3blib.so.7:_ZN3K3b8FileItemD2Ev
libk3blib.so.7:_ZN3K3b8MixedDoc10newBurnJobEPNS_10JobHandlerEP7QObject
libk3blib.so.7:_ZN3K3b8MixedDoc11newDocumentEv
libk3blib.so.7:_ZN3K3b8MixedDoc11qt_metacallEN11QMetaObject4CallEiPPv
libk3blib.so.7:_ZN3K3b8MixedDoc11qt_metacastEPKc
libk3blib.so.7:_ZN3K3b8MixedDoc11setModifiedEb
libk3blib.so.7:_ZN3K3b8MixedDoc16loadDocumentDataEP11QDomElement
libk3blib.so.7:_ZN3K3b8MixedDoc16saveDocumentDataEP11QDomElement
libk3blib.so.7:_ZN3K3b8MixedDoc16staticMetaObjectE
libk3blib.so.7:_ZN3K3b8MixedDoc5clearEv
libk3blib.so.7:_ZN3K3b8MixedDoc6setURLERK4QUrl
libk3blib.so.7:_ZN3K3b8MixedDoc7addUrlsERK5QListI4QUrlE
libk3blib.so.7:_ZN3K3b8MixedDocC1EP7QObject
libk3blib.so.7:_ZN3K3b8MixedDocC2EP7QObject
libk3blib.so.7:_ZN3K3b8MixedDocD0Ev
libk3blib.so.7:_ZN3K3b8MixedDocD1Ev
libk3blib.so.7:_ZN3K3b8MixedDocD2Ev
libk3blib.so.7:_ZN3K3b8MovixDoc10newBurnJobEPNS_10JobHandlerEP7QObject
libk3blib.so.7:_ZN3K3b8MovixDoc11newDocumentEv
libk3blib.so.7:_ZN3K3b8MovixDoc11qt_metacallEN11QMetaObject4CallEiPPv
libk3blib.so.7:_ZN3K3b8MovixDoc11qt_metacastEPKc
libk3blib.so.7:_ZN3K3b8MovixDoc12itemsRemovedEv
libk3blib.so.7:_ZN3K3b8MovixDoc13addMovixItemsER5QListIPNS_13MovixFileItemEEi
libk3blib.so.7:_ZN3K3b8MovixDoc13itemsInsertedEv
libk3blib.so.7:_ZN3K3b8MovixDoc13moveMovixItemEPNS_13MovixFileItemES2_
libk3blib.so.7:_ZN3K3b8MovixDoc15addSubTitleItemEPNS_13MovixFileItemERK4QUrl
libk3blib.so.7:_ZN3K3b8MovixDoc15removeMovixItemEPNS_13MovixFileItemE
libk3blib.so.7:_ZN3K3b8MovixDoc15subTitleRemovedEv
libk3blib.so.7:_ZN3K3b8MovixDoc16loadDocumentDataEP11QDomElement
libk3blib.so.7:_ZN3K3b8MovixDoc16saveDocumentDataEP11QDomElement
libk3blib.so.7:_ZN3K3b8MovixDoc16staticMetaObjectE
libk3blib.so.7:_ZN3K3b8MovixDoc16subTitleInsertedEv
libk3blib.so.7:_ZN3K3b8MovixDoc18removeSubTitleItemEPNS_13MovixFileItemE
libk3blib.so.7:_ZN3K3b8MovixDoc21itemsAboutToBeRemovedEii
libk3blib.so.7:_ZN3K3b8MovixDoc22itemsAboutToBeInsertedEii
libk3blib.so.7:_ZN3K3b8MovixDoc24subTitleAboutToBeRemovedEPNS_13MovixFileItemE
libk3blib.so.7:_ZN3K3b8MovixDoc25subTitleAboutToBeInsertedEPNS_13MovixFileItemE
libk3blib.so.7:_ZN3K3b8MovixDoc7addUrlsERK5QListI4QUrlE
libk3blib.so.7:_ZN3K3b8MovixDoc7indexOfEPNS_13MovixFileItemE
libk3blib.so.7:_ZN3K3b8MovixDoc9addUrlsAtERK5QListI4QUrlEi
libk3blib.so.7:_ZN3K3b8MovixDocC1EP7QObject
libk3blib.so.7:_ZN3K3b8MovixDocC2EP7QObject
libk3blib.so.7:_ZN3K3b8MovixDocD0Ev
libk3blib.so.7:_ZN3K3b8MovixDocD1Ev
libk3blib.so.7:_ZN3K3b8MovixDocD2Ev
libk3blib.so.7:_ZN3K3b8VcdTrack10audio_modeEv
libk3blib.so.7:_ZN3K3b8VcdTrack10delRefToUsEv
libk3blib.so.7:_ZN3K3b8VcdTrack10resolutionEv
libk3blib.so.7:_ZN3K3b8VcdTrack11audio_layerEv
libk3blib.so.7:_ZN3K3b8VcdTrack11getPbcTrackENS0_9PbcTracksE
libk3blib.so.7:_ZN3K3b8VcdTrack11setPbcTrackENS0_9PbcTracksEPS0_
libk3blib.so.7:_ZN3K3b8VcdTrack11video_frateEv
libk3blib.so.7:_ZN3K3b8VcdTrack12delRefFromUsEv
libk3blib.so.7:_ZN3K3b8VcdTrack12video_chromaEv
libk3blib.so.7:_ZN3K3b8VcdTrack12video_formatEv
libk3blib.so.7:_ZN3K3b8VcdTrack13audio_bitrateEv
libk3blib.so.7:_ZN3K3b8VcdTrack13video_bitrateEv
libk3blib.so.7:_ZN3K3b8VcdTrack14audio_sampfreqEv
libk3blib.so.7:_ZN3K3b8VcdTrack14audio_type2strEjjj
libk3blib.so.7:_ZN3K3b8VcdTrack14getNonPbcTrackENS0_9PbcTracksE
libk3blib.so.7:_ZN3K3b8VcdTrack14highresolutionEv
libk3blib.so.7:_ZN3K3b8VcdTrack14setPbcNonTrackENS0_9PbcTracksENS0_8PbcTypesE
libk3blib.so.7:_ZN3K3b8VcdTrack14setUserDefinedENS0_9PbcTracksEb
libk3blib.so.7:_ZN3K3b8VcdTrack15addToRevRefListEPS0_
libk3blib.so.7:_ZN3K3b8VcdTrack15audio_copyrightEv
libk3blib.so.7:_ZN3K3b8VcdTrack16isPbcUserDefinedENS0_9PbcTracksE
libk3blib.so.7:_ZN3K3b8VcdTrack17delFromRevRefListEPS0_
libk3blib.so.7:_ZN3K3b8VcdTrack19trackPlaybackValuesEv
libk3blib.so.7:_ZN3K3b8VcdTrack8mpegTypeEv
libk3blib.so.7:_ZN3K3b8VcdTrack9PrintInfoEv
libk3blib.so.7:_ZN3K3b8VcdTrack9SecsToHMSEd
libk3blib.so.7:_ZN3K3b8VcdTrack9hasRevRefEv
libk3blib.so.7:_ZN3K3b8VcdTrack9mpegTypeSEb
libk3blib.so.7:_ZN3K3b8VcdTrackC1EP5QListIPS0_ERK7QString
libk3blib.so.7:_ZN3K3b8VcdTrackC2EP5QListIPS0_ERK7QString
libk3blib.so.7:_ZN3K3b8VcdTrackD1Ev
libk3blib.so.7:_ZN3K3b8VcdTrackD2Ev
libk3blib.so.7:_ZN3K3b8VideoDVD17audioFormatStringEi
libk3blib.so.7:_ZN3K3b8VideoDVD24audioCodeExtensionStringEi
libk3blib.so.7:_ZN3K3b8VideoDVD24subPictureCodeModeStringEi
libk3blib.so.7:_ZN3K3b8VideoDVD29subPictureCodeExtensionStringEi
libk3blib.so.7:_ZN3K3b8VideoDVD4TimeC1Ettttd
libk3blib.so.7:_ZN3K3b8VideoDVD4TimeC1Ev
libk3blib.so.7:_ZN3K3b8VideoDVD4TimeC2Ettttd
libk3blib.so.7:_ZN3K3b8VideoDVD4TimeC2Ev
libk3blib.so.7:_ZN3K3b8VideoDVD8VideoDVD4openEPNS_6Device6DeviceE
libk3blib.so.7:_ZN3K3b8VideoDVD8VideoDVDC1Ev
libk3blib.so.7:_ZN3K3b8VideoDVD8VideoDVDC2Ev
libk3blib.so.7:_ZN3K3b8VideoDVD8VideoDVDD1Ev
libk3blib.so.7:_ZN3K3b8VideoDVD8VideoDVDD2Ev
libk3blib.so.7:_ZN3K3b8filesizeERK4QUrl
libk3blib.so.7:_ZN3K3b8fromLe16EPc
libk3blib.so.7:_ZN3K3b8fromLe32EPc
libk3blib.so.7:_ZN3K3b8fromLe64EPc
libk3blib.so.7:_ZN3K3b9AudioFile12createReaderEP7QObject
libk3blib.so.7:_ZN3K3b9AudioFileC1EPNS_12AudioDecoderEPNS_8AudioDocE
libk3blib.so.7:_ZN3K3b9AudioFileC1ERKS0_
libk3blib.so.7:_ZN3K3b9AudioFileC2EPNS_12AudioDecoderEPNS_8AudioDocE
libk3blib.so.7:_ZN3K3b9AudioFileC2ERKS0_
libk3blib.so.7:_ZN3K3b9AudioFileD0Ev
libk3blib.so.7:_ZN3K3b9AudioFileD1Ev
libk3blib.so.7:_ZN3K3b9AudioFileD2Ev
libk3blib.so.7:_ZN3K3b9CdCopyJob11qt_metacallEN11QMetaObject4CallEiPPv
libk3blib.so.7:_ZN3K3b9CdCopyJob11qt_metacastEPKc
libk3blib.so.7:_ZN3K3b9CdCopyJob12searchCdTextEv
libk3blib.so.7:_ZN3K3b9CdCopyJob15readNextSessionEv
libk3blib.so.7:_ZN3K3b9CdCopyJob15slotCdTextReadyEPNS_6Device13DeviceHandlerE
libk3blib.so.7:_ZN3K3b9CdCopyJob16staticMetaObjectE
libk3blib.so.7:_ZN3K3b9CdCopyJob16writeNextSessionEv
libk3blib.so.7:_ZN3K3b9CdCopyJob17prepareImageFilesEv
libk3blib.so.7:_ZN3K3b9CdCopyJob17slotDiskInfoReadyEPNS_6Device13DeviceHandlerE
libk3blib.so.7:_ZN3K3b9CdCopyJob18slotReaderProgressEi
libk3blib.so.7:_ZN3K3b9CdCopyJob18slotWriterFinishedEb
libk3blib.so.7:_ZN3K3b9CdCopyJob18slotWriterProgressEi
libk3blib.so.7:_ZN3K3b9CdCopyJob20slotReadingNextTrackEii
libk3blib.so.7:_ZN3K3b9CdCopyJob20slotWritingNextTrackEii
libk3blib.so.7:_ZN3K3b9CdCopyJob21slotCddbQueryFinishedEN5KCDDB6ResultE
libk3blib.so.7:_ZN3K3b9CdCopyJob21slotReaderSubProgressEi
libk3blib.so.7:_ZN3K3b9CdCopyJob23slotReaderProcessedSizeEii
libk3blib.so.7:_ZN3K3b9CdCopyJob25slotSessionReaderFinishedEb
libk3blib.so.7:_ZN3K3b9CdCopyJob31slotMediaReloadedForNextSessionEPNS_6Device13DeviceHandlerE
libk3blib.so.7:_ZN3K3b9CdCopyJob5startEv
libk3blib.so.7:_ZN3K3b9CdCopyJob6cancelEv
libk3blib.so.7:_ZN3K3b9CdCopyJob7cleanupEv
libk3blib.so.7:_ZN3K3b9CdCopyJob9finishJobEbb
libk3blib.so.7:_ZN3K3b9CdCopyJob9queryCddbEv
libk3blib.so.7:_ZN3K3b9CdCopyJob9startCopyEv
libk3blib.so.7:_ZN3K3b9CdCopyJobC1EPNS_10JobHandlerEP7QObject
libk3blib.so.7:_ZN3K3b9CdCopyJobC2EPNS_10JobHandlerEP7QObject
libk3blib.so.7:_ZN3K3b9CdCopyJobD0Ev
libk3blib.so.7:_ZN3K3b9CdCopyJobD1Ev
libk3blib.so.7:_ZN3K3b9CdCopyJobD2Ev
libk3blib.so.7:_ZN3K3b9LibDvdCss11readWrappedEPvii
libk3blib.so.7:_ZN3K3b9LibDvdCss12crackAllKeysEv
libk3blib.so.7:_ZN3K3b9LibDvdCss4openEPNS_6Device6DeviceE
libk3blib.so.7:_ZN3K3b9LibDvdCss4readEPvii
libk3blib.so.7:_ZN3K3b9LibDvdCss4seekEii
libk3blib.so.7:_ZN3K3b9LibDvdCss5closeEv
libk3blib.so.7:_ZN3K3b9LibDvdCss6createEv
libk3blib.so.7:_ZN3K3b9LibDvdCssC1Ev
libk3blib.so.7:_ZN3K3b9LibDvdCssC2Ev
libk3blib.so.7:_ZN3K3b9LibDvdCssD1Ev
libk3blib.so.7:_ZN3K3b9LibDvdCssD2Ev
libk3blib.so.7:_ZN3K3b9ThreadJob11customEventEP6QEvent
libk3blib.so.7:_ZN3K3b9ThreadJob11qt_metacallEN11QMetaObject4CallEiPPv
libk3blib.so.7:_ZN3K3b9ThreadJob11qt_metacastEPKc
libk3blib.so.7:_ZN3K3b9ThreadJob13questionYesNoERK7QStringS3_RK8KGuiItemS6_
libk3blib.so.7:_ZN3K3b9ThreadJob13waitForMediumEPNS_6Device6DeviceE6QFlagsINS1_10MediaStateEES4_INS1_9MediaTypeEERKNS_3MsfERK7QString
libk3blib.so.7:_ZN3K3b9ThreadJob16staticMetaObjectE
libk3blib.so.7:_ZN3K3b9ThreadJob18slotThreadFinishedEv
libk3blib.so.7:_ZN3K3b9ThreadJob19blockingInformationERK7QStringS3_
libk3blib.so.7:_ZN3K3b9ThreadJob4waitEm
libk3blib.so.7:_ZN3K3b9ThreadJob5startEv
libk3blib.so.7:_ZN3K3b9ThreadJob6cancelEv
libk3blib.so.7:_ZN3K3b9ThreadJobC1EPNS_10JobHandlerEP7QObject
libk3blib.so.7:_ZN3K3b9ThreadJobC2EPNS_10JobHandlerEP7QObject
libk3blib.so.7:_ZN3K3b9ThreadJobD0Ev
libk3blib.so.7:_ZN3K3b9ThreadJobD1Ev
libk3blib.so.7:_ZN3K3b9ThreadJobD2Ev
libk3blib.so.7:_ZN3K3b9ValidatorC1EP7QObject
libk3blib.so.7:_ZN3K3b9ValidatorC1ERK7QRegExpP7QObject
libk3blib.so.7:_ZN3K3b9ValidatorC2EP7QObject
libk3blib.so.7:_ZN3K3b9ValidatorC2ERK7QRegExpP7QObject
libk3blib.so.7:_ZN3K3b9fixupPathERK7QString
libk3blib.so.7:_ZN3K3b9isMountedEPNS_6Device6DeviceE
libk3blib.so.7:_ZN3K3b9parentDirERK7QString
libk3blib.so.7:_ZN3K3beqERKNS_30Iso9660SimplePrimaryDescriptorES2_
libk3blib.so.7:_ZN3K3beqERKNS_7VersionES2_
libk3blib.so.7:_ZN3K3bgeERKNS_7VersionES2_
libk3blib.so.7:_ZN3K3bgtERKNS_7VersionES2_
libk3blib.so.7:_ZN3K3bleERKNS_7VersionES2_
libk3blib.so.7:_ZN3K3bltERKNS_7VersionES2_
libk3blib.so.7:_ZN3K3bneERKNS_30Iso9660SimplePrimaryDescriptorES2_
libk3blib.so.7:_ZNK11K3bKProcess10metaObjectEv
libk3blib.so.7:_ZNK11K3bKProcess17outputChannelModeEv
libk3blib.so.7:_ZNK11K3bKProcess3pidEv
libk3blib.so.7:_ZNK11K3bKProcess7programEv
libk3blib.so.7:_ZNK11K3bQProcess10exitStatusEv
libk3blib.so.7:_ZNK11K3bQProcess10metaObjectEv
libk3blib.so.7:_ZNK11K3bQProcess11canReadLineEv
libk3blib.so.7:_ZNK11K3bQProcess11environmentEv
libk3blib.so.7:_ZNK11K3bQProcess11readChannelEv
libk3blib.so.7:_ZNK11K3bQProcess12bytesToWriteEv
libk3blib.so.7:_ZNK11K3bQProcess12isReadyWriteEv
libk3blib.so.7:_ZNK11K3bQProcess12isSequentialEv
libk3blib.so.7:_ZNK11K3bQProcess14bytesAvailableEv
libk3blib.so.7:_ZNK11K3bQProcess15readChannelModeEv
libk3blib.so.7:_ZNK11K3bQProcess16workingDirectoryEv
libk3blib.so.7:_ZNK11K3bQProcess18processChannelModeEv
libk3blib.so.7:_ZNK11K3bQProcess3pidEv
libk3blib.so.7:_ZNK11K3bQProcess5atEndEv
libk3blib.so.7:_ZNK11K3bQProcess5errorEv
libk3blib.so.7:_ZNK11K3bQProcess5flagsEv
libk3blib.so.7:_ZNK11K3bQProcess5stateEv
libk3blib.so.7:_ZNK11K3bQProcess8exitCodeEv
libk3blib.so.7:_ZNK3K3b10ActivePipe10metaObjectEv
libk3blib.so.7:_ZNK3K3b10ActivePipe12bytesWrittenEv
libk3blib.so.7:_ZNK3K3b10ActivePipe9bytesReadEv
libk3blib.so.7:_ZNK3K3b10AudioTrack10lastSourceEv
libk3blib.so.7:_ZNK3K3b10AudioTrack10metaObjectEv
libk3blib.so.7:_ZNK3K3b10AudioTrack10songwriterEv
libk3blib.so.7:_ZNK3K3b10AudioTrack11firstSourceEv
libk3blib.so.7:_ZNK3K3b10AudioTrack11trackNumberEv
libk3blib.so.7:_ZNK3K3b10AudioTrack13cdTextMessageEv
libk3blib.so.7:_ZNK3K3b10AudioTrack13numberSourcesEv
libk3blib.so.7:_ZNK3K3b10AudioTrack14copyProtectionEv
libk3blib.so.7:_ZNK3K3b10AudioTrack3docEv
libk3blib.so.7:_ZNK3K3b10AudioTrack4copyEv
libk3blib.so.7:_ZNK3K3b10AudioTrack4isrcEv
libk3blib.so.7:_ZNK3K3b10AudioTrack4nextEv
libk3blib.so.7:_ZNK3K3b10AudioTrack4prevEv
libk3blib.so.7:_ZNK3K3b10AudioTrack4sizeEv
libk3blib.so.7:_ZNK3K3b10AudioTrack5titleEv
libk3blib.so.7:_ZNK3K3b10AudioTrack6artistEv
libk3blib.so.7:_ZNK3K3b10AudioTrack6cdTextEv
libk3blib.so.7:_ZNK3K3b10AudioTrack6inListEv
libk3blib.so.7:_ZNK3K3b10AudioTrack6index0Ev
libk3blib.so.7:_ZNK3K3b10AudioTrack6lengthEv
libk3blib.so.7:_ZNK3K3b10AudioTrack6preEmpEv
libk3blib.so.7:_ZNK3K3b10AudioTrack7postGapEv
libk3blib.so.7:_ZNK3K3b10AudioTrack8arrangerEv
libk3blib.so.7:_ZNK3K3b10AudioTrack8composerEv
libk3blib.so.7:_ZNK3K3b10AudioTrack9getSourceEi
libk3blib.so.7:_ZNK3K3b10AudioTrack9performerEv
libk3blib.so.7:_ZNK3K3b10AudioTrack9toCdTrackEv
libk3blib.so.7:_ZNK3K3b10BusyWidget10metaObjectEv
libk3blib.so.7:_ZNK3K3b10BusyWidget15minimumSizeHintEv
libk3blib.so.7:_ZNK3K3b10BusyWidget8sizeHintEv
libk3blib.so.7:_ZNK3K3b10DirSizeJob10metaObjectEv
libk3blib.so.7:_ZNK3K3b10DirSizeJob10totalFilesEv
libk3blib.so.7:_ZNK3K3b10DirSizeJob13totalSymlinksEv
libk3blib.so.7:_ZNK3K3b10DirSizeJob9totalDirsEv
libk3blib.so.7:_ZNK3K3b10DirSizeJob9totalSizeEv
libk3blib.so.7:_ZNK3K3b10DvdCopyJob10jobDetailsEv
libk3blib.so.7:_ZNK3K3b10DvdCopyJob10metaObjectEv
libk3blib.so.7:_ZNK3K3b10DvdCopyJob14jobDescriptionEv
libk3blib.so.7:_ZNK3K3b10DvdCopyJob9jobSourceEv
libk3blib.so.7:_ZNK3K3b10DvdCopyJob9jobTargetEv
libk3blib.so.7:_ZNK3K3b10IsoOptions8volumeIDEv
libk3blib.so.7:_ZNK3K3b10KJobBridge10metaObjectEv
libk3blib.so.7:_ZNK3K3b10MediaCache10PollThread10metaObjectEv
libk3blib.so.7:_ZNK3K3b10MediaCache10metaObjectEv
libk3blib.so.7:_ZNK3K3b10MetaWriter10metaObjectEv
libk3blib.so.7:_ZNK3K3b10MetaWriter14usedWritingAppEv
libk3blib.so.7:_ZNK3K3b10MetaWriter15usedWritingModeEv
libk3blib.so.7:_ZNK3K3b10MetaWriter8ioDeviceEv
libk3blib.so.7:_ZNK3K3b10TitleLabel10metaObjectEv
libk3blib.so.7:_ZNK3K3b10TitleLabel15minimumSizeHintEv
libk3blib.so.7:_ZNK3K3b10TitleLabel7Private12subTitleRectERK5QRectS4_
libk3blib.so.7:_ZNK3K3b10TitleLabel7Private9titleRectERK5QRect
libk3blib.so.7:_ZNK3K3b10TitleLabel8sizeHintEv
libk3blib.so.7:_ZNK3K3b11BlankingJob10jobDetailsEv
libk3blib.so.7:_ZNK3K3b11BlankingJob10metaObjectEv
libk3blib.so.7:_ZNK3K3b11BlankingJob14jobDescriptionEv
libk3blib.so.7:_ZNK3K3b11BlankingJob6writerEv
libk3blib.so.7:_ZNK3K3b11DeviceModel10metaObjectEv
libk3blib.so.7:_ZNK3K3b11DeviceModel11columnCountERK11QModelIndex
libk3blib.so.7:_ZNK3K3b11DeviceModel14deviceForIndexERK11QModelIndex
libk3blib.so.7:_ZNK3K3b11DeviceModel14indexForDeviceEPNS_6Device6DeviceE
libk3blib.so.7:_ZNK3K3b11DeviceModel4dataERK11QModelIndexi
libk3blib.so.7:_ZNK3K3b11DeviceModel5indexEiiRK11QModelIndex
libk3blib.so.7:_ZNK3K3b11DeviceModel6parentERK11QModelIndex
libk3blib.so.7:_ZNK3K3b11DeviceModel7devicesEv
libk3blib.so.7:_ZNK3K3b11DeviceModel8rowCountERK11QModelIndex
libk3blib.so.7:_ZNK3K3b11ExternalBin10hasFeatureERK7QString
libk3blib.so.7:_ZNK3K3b11ExternalBin14userParametersEv
libk3blib.so.7:_ZNK3K3b11ExternalBin4nameEv
libk3blib.so.7:_ZNK3K3b11ExternalBin4pathEv
libk3blib.so.7:_ZNK3K3b11ExternalBin7isEmptyEv
libk3blib.so.7:_ZNK3K3b11ExternalBin7programEv
libk3blib.so.7:_ZNK3K3b11ExternalBin7versionEv
libk3blib.so.7:_ZNK3K3b11ExternalBin8featuresEv
libk3blib.so.7:_ZNK3K3b11ExternalBin9copyrightEv
libk3blib.so.7:_ZNK3K3b11ExternalBin9needGroupEv
libk3blib.so.7:_ZNK3K3b11Iso9660File4readEjPci
libk3blib.so.7:_ZNK3K3b11Iso9660File6copyToERK7QString
libk3blib.so.7:_ZNK3K3b11VideoDvdDoc19supportedMediaTypesEv
libk3blib.so.7:_ZNK3K3b12AudioDecoder10metaObjectEv
libk3blib.so.7:_ZNK3K3b12AudioDecoder13technicalInfoERK7QString
libk3blib.so.7:_ZNK3K3b12AudioDecoder23supportedTechnicalInfosEv
libk3blib.so.7:_ZNK3K3b12AudioDecoder7isValidEv
libk3blib.so.7:_ZNK3K3b12AudioEncoder10metaObjectEv
libk3blib.so.7:_ZNK3K3b12AudioEncoder12categoryNameEv
libk3blib.so.7:_ZNK3K3b12AudioEncoder15lastErrorStringEv
libk3blib.so.7:_ZNK3K3b12AudioEncoder6isOpenEv
libk3blib.so.7:_ZNK3K3b12AudioEncoder8filenameEv
libk3blib.so.7:_ZNK3K3b12CdrdaoWriter10metaObjectEv
libk3blib.so.7:_ZNK3K3b12CdrdaoWriter6activeEv
libk3blib.so.7:_ZNK3K3b12ChecksumPipe10metaObjectEv
libk3blib.so.7:_ZNK3K3b12ChecksumPipe8checksumEv
libk3blib.so.7:_ZNK3K3b12FileSplitter10metaObjectEv
libk3blib.so.7:_ZNK3K3b12FileSplitter3posEv
libk3blib.so.7:_ZNK3K3b12FileSplitter4nameEv
libk3blib.so.7:_ZNK3K3b12FileSplitter4sizeEv
libk3blib.so.7:_ZNK3K3b12FileSplitter5atEndEv
libk3blib.so.7:_ZNK3K3b12IntValidator3topEv
libk3blib.so.7:_ZNK3K3b12IntValidator5fixupER7QString
libk3blib.so.7:_ZNK3K3b12IntValidator6bottomEv
libk3blib.so.7:_ZNK3K3b12IntValidator8validateER7QStringRi
libk3blib.so.7:_ZNK3K3b12MovixProgram28determineSupportedBootLabelsERK7QString
libk3blib.so.7:_ZNK3K3b13AudioZeroData13sourceCommentEv
libk3blib.so.7:_ZNK3K3b13AudioZeroData4copyEv
libk3blib.so.7:_ZNK3K3b13AudioZeroData4typeEv
libk3blib.so.7:_ZNK3K3b13CdparanoiaLib16rippedDataLengthEv
libk3blib.so.7:_ZNK3K3b13CdparanoiaLib3tocEv
libk3blib.so.7:_ZNK3K3b13CdparanoiaLib6statusEv
libk3blib.so.7:_ZNK3K3b13CdrdaoProgram12scanFeaturesERNS_11ExternalBinE
libk3blib.so.7:_ZNK3K3b13CdrdaoProgram17versionIdentifierERKNS_11ExternalBinE
libk3blib.so.7:_ZNK3K3b13CharValidator5fixupER7QString
libk3blib.so.7:_ZNK3K3b13CharValidator8validateER7QStringRi
libk3blib.so.7:_ZNK3K3b13CueFileParser13imageFileTypeEv
libk3blib.so.7:_ZNK3K3b13CueFileParser3tocEv
libk3blib.so.7:_ZNK3K3b13CueFileParser6cdTextEv
libk3blib.so.7:_ZNK3K3b13PluginManager10categoriesEv
libk3blib.so.7:_ZNK3K3b13PluginManager10metaObjectEv
libk3blib.so.7:_ZNK3K3b13PluginManager15hasPluginDialogEPNS_6PluginE
libk3blib.so.7:_ZNK3K3b13PluginManager19pluginSystemVersionEv
libk3blib.so.7:_ZNK3K3b13PluginManager7Private14getModuleProxyEPNS_6PluginE
libk3blib.so.7:_ZNK3K3b13PluginManager7pluginsERK7QString
libk3blib.so.7:_ZNK3K3b13ProjectPlugin10metaObjectEv
libk3blib.so.7:_ZNK3K3b13ProjectPlugin12categoryNameEv
libk3blib.so.7:_ZNK3K3b13ReadcdProgram13parseFeaturesERK7QStringRNS_11ExternalBinE
libk3blib.so.7:_ZNK3K3b14AsciiValidator12validateCharERK5QChar
libk3blib.so.7:_ZNK3K3b14AudioDocReader10metaObjectEv
libk3blib.so.7:_ZNK3K3b14AudioDocReader12isSequentialEv
libk3blib.so.7:_ZNK3K3b14AudioDocReader18currentTrackReaderEv
libk3blib.so.7:_ZNK3K3b14AudioDocReader4sizeEv
libk3blib.so.7:_ZNK3K3b14CdrskinProgram12scanFeaturesERNS_11ExternalBinE
libk3blib.so.7:_ZNK3K3b14CloneTocReader9imageSizeEv
libk3blib.so.7:_ZNK3K3b14DeviceComboBox10metaObjectEv
libk3blib.so.7:_ZNK3K3b14DeviceComboBox14selectedDeviceEv
libk3blib.so.7:_ZNK3K3b14FileSystemInfo4pathEv
libk3blib.so.7:_ZNK3K3b14FileSystemInfo4typeEv
libk3blib.so.7:_ZNK3K3b14IntMapComboBox10metaObjectEv
libk3blib.so.7:_ZNK3K3b14IntMapComboBox13selectedValueEv
libk3blib.so.7:_ZNK3K3b14IntMapComboBox8hasValueEi
libk3blib.so.7:_ZNK3K3b14MkisofsProgram13parseFeaturesERK7QStringRNS_11ExternalBinE
libk3blib.so.7:_ZNK3K3b14WaveFileWriter2fdEv
libk3blib.so.7:_ZNK3K3b14WaveFileWriter8filenameEv
libk3blib.so.7:_ZNK3K3b15AudioDataSource10lastSectorEv
libk3blib.so.7:_ZNK3K3b15AudioDataSource10metaObjectEv
libk3blib.so.7:_ZNK3K3b15AudioDataSource11sourceIndexEv
libk3blib.so.7:_ZNK3K3b15AudioDataSource3docEv
libk3blib.so.7:_ZNK3K3b15AudioDataSource6lengthEv
libk3blib.so.7:_ZNK3K3b15AudioFileReader12isSequentialEv
libk3blib.so.7:_ZNK3K3b15AudioFileReader4sizeEv
libk3blib.so.7:_ZNK3K3b15CdTextValidator8validateER7QStringRi
libk3blib.so.7:_ZNK3K3b15Cdda2wavProgram13parseFeaturesERK7QStringRNS_11ExternalBinE
libk3blib.so.7:_ZNK3K3b15CdrecordProgram13parseFeaturesERK7QStringRNS_11ExternalBinE
libk3blib.so.7:_ZNK3K3b15ExternalProgram10defaultBinEv
libk3blib.so.7:_ZNK3K3b15ExternalProgram13mostRecentBinEv
libk3blib.so.7:_ZNK3K3b15ExternalProgram14userParametersEv
libk3blib.so.7:_ZNK3K3b15ExternalProgram22supportsUserParametersEv
libk3blib.so.7:_ZNK3K3b15ExternalProgram4binsEv
libk3blib.so.7:_ZNK3K3b15ExternalProgram4nameEv
libk3blib.so.7:_ZNK3K3b15ImageFileReader13imageFilenameEv
libk3blib.so.7:_ZNK3K3b15ImageFileReader7isValidEv
libk3blib.so.7:_ZNK3K3b15ImageFileReader8filenameEv
libk3blib.so.7:_ZNK3K3b15Latin1Validator12validateCharERK5QChar
libk3blib.so.7:_ZNK3K3b16AudioTrackReader10metaObjectEv
libk3blib.so.7:_ZNK3K3b16AudioTrackReader12isSequentialEv
libk3blib.so.7:_ZNK3K3b16AudioTrackReader4sizeEv
libk3blib.so.7:_ZNK3K3b16AudioTrackReader5trackEv
libk3blib.so.7:_ZNK3K3b16DvdFormattingJob10jobDetailsEv
libk3blib.so.7:_ZNK3K3b16DvdFormattingJob10metaObjectEv
libk3blib.so.7:_ZNK3K3b16DvdFormattingJob14jobDescriptionEv
libk3blib.so.7:_ZNK3K3b16DvdFormattingJob6writerEv
libk3blib.so.7:_ZNK3K3b16DvdformatProgram12parseVersionERK7QStringRKNS_11ExternalBinE
libk3blib.so.7:_ZNK3K3b16DvdformatProgram14parseCopyrightERK7QStringRKNS_11ExternalBinE
libk3blib.so.7:_ZNK3K3b16GrowisofsProgram12scanFeaturesERNS_11ExternalBinE
libk3blib.so.7:_ZNK3K3b16Iso9660Directory12iso9660EntryERK7QString
libk3blib.so.7:_ZNK3K3b16Iso9660Directory14iso9660EntriesEv
libk3blib.so.7:_ZNK3K3b16Iso9660Directory5entryERK7QString
libk3blib.so.7:_ZNK3K3b16Iso9660Directory7entriesEv
libk3blib.so.7:_ZNK3K3b16SimpleJobHandler10metaObjectEv
libk3blib.so.7:_ZNK3K3b16TranscodeProgram12scanFeaturesERNS_11ExternalBinE
libk3blib.so.7:_ZNK3K3b16TranscodeProgram17versionIdentifierERKNS_11ExternalBinE
libk3blib.so.7:_ZNK3K3b17MultiChoiceDialog10metaObjectEv
libk3blib.so.7:_ZNK3K3b17VcdbuilderProgram17versionIdentifierERKNS_11ExternalBinE
libk3blib.so.7:_ZNK3K3b18AudioCdTrackReader12isSequentialEv
libk3blib.so.7:_ZNK3K3b18AudioCdTrackReader4sizeEv
libk3blib.so.7:_ZNK3K3b18AudioCdTrackSource13cdTrackNumberEv
libk3blib.so.7:_ZNK3K3b18AudioCdTrackSource13sourceCommentEv
libk3blib.so.7:_ZNK3K3b18AudioCdTrackSource14originalLengthEv
libk3blib.so.7:_ZNK3K3b18AudioCdTrackSource16searchForAudioCDEv
libk3blib.so.7:_ZNK3K3b18AudioCdTrackSource3tocEv
libk3blib.so.7:_ZNK3K3b18AudioCdTrackSource4copyEv
libk3blib.so.7:_ZNK3K3b18AudioCdTrackSource4typeEv
libk3blib.so.7:_ZNK3K3b18AudioCdTrackSource5titleEv
libk3blib.so.7:_ZNK3K3b18AudioCdTrackSource6artistEv
libk3blib.so.7:_ZNK3K3b18AudioCdTrackSource6discIdEv
libk3blib.so.7:_ZNK3K3b18AudioCdTrackSource7Private16searchForAudioCDEPNS_6Device6DeviceE
libk3blib.so.7:_ZNK3K3b18AudioCdTrackSource7cdTitleEv
libk3blib.so.7:_ZNK3K3b18AudioCdTrackSource8cdArtistEv
libk3blib.so.7:_ZNK3K3b18BinImageWritingJob10jobDetailsEv
libk3blib.so.7:_ZNK3K3b18BinImageWritingJob10metaObjectEv
libk3blib.so.7:_ZNK3K3b18BinImageWritingJob14jobDescriptionEv
libk3blib.so.7:_ZNK3K3b18BinImageWritingJob9jobSourceEv
libk3blib.so.7:_ZNK3K3b18BinImageWritingJob9jobTargetEv
libk3blib.so.7:_ZNK3K3b18DvdBooktypeProgram12parseVersionERK7QStringRKNS_11ExternalBinE
libk3blib.so.7:_ZNK3K3b18DvdBooktypeProgram14parseCopyrightERK7QStringRKNS_11ExternalBinE
libk3blib.so.7:_ZNK3K3b18ExternalBinManager10metaObjectEv
libk3blib.so.7:_ZNK3K3b18ExternalBinManager10searchPathEv
libk3blib.so.7:_ZNK3K3b18ExternalBinManager7programERK7QString
libk3blib.so.7:_ZNK3K3b18ExternalBinManager8programsEv
libk3blib.so.7:_ZNK3K3b18Iso9660FileBackend6isOpenEv
libk3blib.so.7:_ZNK3K3b18PluginConfigWidget10metaObjectEv
libk3blib.so.7:_ZNK3K3b18RawAudioDataReader12isSequentialEv
libk3blib.so.7:_ZNK3K3b18RawAudioDataReader4sizeEv
libk3blib.so.7:_ZNK3K3b18RawAudioDataSource13sourceCommentEv
libk3blib.so.7:_ZNK3K3b18RawAudioDataSource14originalLengthEv
libk3blib.so.7:_ZNK3K3b18RawAudioDataSource4copyEv
libk3blib.so.7:_ZNK3K3b18RawAudioDataSource4pathEv
libk3blib.so.7:_ZNK3K3b18RawAudioDataSource4typeEv
libk3blib.so.7:_ZNK3K3b19AudioDecoderFactory10metaObjectEv
libk3blib.so.7:_ZNK3K3b19AudioDecoderFactory12categoryNameEv
libk3blib.so.7:_ZNK3K3b19AudioZeroDataReader12isSequentialEv
libk3blib.so.7:_ZNK3K3b19AudioZeroDataReader4sizeEv
libk3blib.so.7:_ZNK3K3b20AudioFileAnalyzerJob10metaObjectEv
libk3blib.so.7:_ZNK3K3b20AudioFileAnalyzerJob7decoderEv
libk3blib.so.7:_ZNK3K3b21DeviceSelectionDialog10metaObjectEv
libk3blib.so.7:_ZNK3K3b21DeviceSelectionDialog14selectedDeviceEv
libk3blib.so.7:_ZNK3K3b21SimpleExternalProgram11scanVersionERNS_11ExternalBinE
libk3blib.so.7:_ZNK3K3b21SimpleExternalProgram12parseVersionERK7QStringRKNS_11ExternalBinE
libk3blib.so.7:_ZNK3K3b21SimpleExternalProgram12scanFeaturesERNS_11ExternalBinE
libk3blib.so.7:_ZNK3K3b21SimpleExternalProgram13parseFeaturesERK7QStringRNS_11ExternalBinE
libk3blib.so.7:_ZNK3K3b21SimpleExternalProgram14getProgramPathERK7QString
libk3blib.so.7:_ZNK3K3b21SimpleExternalProgram14parseCopyrightERK7QStringRKNS_11ExternalBinE
libk3blib.so.7:_ZNK3K3b21SimpleExternalProgram17versionIdentifierERKNS_11ExternalBinE
libk3blib.so.7:_ZNK3K3b22AudioCueFileWritingJob10jobDetailsEv
libk3blib.so.7:_ZNK3K3b22AudioCueFileWritingJob10metaObjectEv
libk3blib.so.7:_ZNK3K3b22AudioCueFileWritingJob14jobDescriptionEv
libk3blib.so.7:_ZNK3K3b22AudioCueFileWritingJob6writerEv
libk3blib.so.7:_ZNK3K3b22AudioCueFileWritingJob7cueFileEv
libk3blib.so.7:_ZNK3K3b22AudioCueFileWritingJob9jobSourceEv
libk3blib.so.7:_ZNK3K3b22AudioCueFileWritingJob9jobTargetEv
libk3blib.so.7:_ZNK3K3b22Iso9660ImageWritingJob10jobDetailsEv
libk3blib.so.7:_ZNK3K3b22Iso9660ImageWritingJob10metaObjectEv
libk3blib.so.7:_ZNK3K3b22Iso9660ImageWritingJob14jobDescriptionEv
libk3blib.so.7:_ZNK3K3b22Iso9660ImageWritingJob9jobSourceEv
libk3blib.so.7:_ZNK3K3b22Iso9660ImageWritingJob9jobTargetEv
libk3blib.so.7:_ZNK3K3b23AbstractCdrtoolsProgram11usingCdrkitERKNS_11ExternalBinE
libk3blib.so.7:_ZNK3K3b23AbstractCdrtoolsProgram14getProgramPathERK7QString
libk3blib.so.7:_ZNK3K3b23AbstractCdrtoolsProgram17versionIdentifierERKNS_11ExternalBinE
libk3blib.so.7:_ZNK3K3b23AudioDataSourceIterator7currentEv
libk3blib.so.7:_ZNK3K3b23AudioDataSourceIterator7hasNextEv
libk3blib.so.7:_ZNK3K3b23Iso9660LibDvdCssBackend6isOpenEv
libk3blib.so.7:_ZNK3K3b27VideoDVDTitleTranscodingJob10metaObjectEv
libk3blib.so.7:_ZNK3K3b27VideoDVDTitleTranscodingJob7Private16getEncodedFramesERK7QStringRi
libk3blib.so.7:_ZNK3K3b30VideoDVDTitleDetectClippingJob10metaObjectEv
libk3blib.so.7:_ZNK3K3b3Doc10metaObjectEv
libk3blib.so.7:_ZNK3K3b3Doc11burningSizeEv
libk3blib.so.7:_ZNK3K3b3Doc19supportedMediaTypesEv
libk3blib.so.7:_ZNK3K3b3Doc3URLEv
libk3blib.so.7:_ZNK3K3b3Doc4nameEv
libk3blib.so.7:_ZNK3K3b3Job10jobHandlerEv
libk3blib.so.7:_ZNK3K3b3Job10metaObjectEv
libk3blib.so.7:_ZNK3K3b3Job14runningSubJobsEv
libk3blib.so.7:_ZNK3K3b3Job15hasBeenCanceledEv
libk3blib.so.7:_ZNK3K3b3Job17numRunningSubJobsEv
libk3blib.so.7:_ZNK3K3b3Job6activeEv
libk3blib.so.7:_ZNK3K3b4CDDB7CDDBJob10cddbResultEv
libk3blib.so.7:_ZNK3K3b4CDDB7CDDBJob10metaObjectEv
libk3blib.so.7:_ZNK3K3b4CDDB7CDDBJob6mediumEv
libk3blib.so.7:_ZNK3K3b4Core10mediaCacheEv
libk3blib.so.7:_ZNK3K3b4Core10metaObjectEv
libk3blib.so.7:_ZNK3K3b4Core11jobsRunningEv
libk3blib.so.7:_ZNK3K3b4Core11runningJobsEv
libk3blib.so.7:_ZNK3K3b4Core13deviceBlockedEPNS_6Device6DeviceE
libk3blib.so.7:_ZNK3K3b4Core13deviceManagerEv
libk3blib.so.7:_ZNK3K3b4Core13pluginManagerEv
libk3blib.so.7:_ZNK3K3b4Core14globalSettingsEv
libk3blib.so.7:_ZNK3K3b4Core18externalBinManagerEv
libk3blib.so.7:_ZNK3K3b4Core19createDeviceManagerEv
libk3blib.so.7:_ZNK3K3b4Core7versionEv
libk3blib.so.7:_ZNK3K3b6Device13DeviceHandler10metaObjectEv
libk3blib.so.7:_ZNK3K3b6Device13DeviceHandler11numSessionsEv
libk3blib.so.7:_ZNK3K3b6Device13DeviceHandler13remainingSizeEv
libk3blib.so.7:_ZNK3K3b6Device13DeviceHandler14bufferCapacityEv
libk3blib.so.7:_ZNK3K3b6Device13DeviceHandler19nextWritableAddressEv
libk3blib.so.7:_ZNK3K3b6Device13DeviceHandler23availableBufferCapacityEv
libk3blib.so.7:_ZNK3K3b6Device13DeviceHandler3tocEv
libk3blib.so.7:_ZNK3K3b6Device13DeviceHandler6cdTextEv
libk3blib.so.7:_ZNK3K3b6Device13DeviceHandler7successEv
libk3blib.so.7:_ZNK3K3b6Device13DeviceHandler7tocTypeEv
libk3blib.so.7:_ZNK3K3b6Device13DeviceHandler8diskInfoEv
libk3blib.so.7:_ZNK3K3b6Device13DeviceHandler8diskSizeEv
libk3blib.so.7:_ZNK3K3b6Device13DeviceHandler9cdTextRawEv
libk3blib.so.7:_ZNK3K3b6Md5Job10metaObjectEv
libk3blib.so.7:_ZNK3K3b6Medium10longStringE6QFlagsINS0_16MediumStringFlagEE
libk3blib.so.7:_ZNK3K3b6Medium10sameMediumERKS0_
libk3blib.so.7:_ZNK3K3b6Medium11shortStringE6QFlagsINS0_16MediumStringFlagEE
libk3blib.so.7:_ZNK3K3b6Medium13writingSpeedsEv
libk3blib.so.7:_ZNK3K3b6Medium17contentTypeStringEv
libk3blib.so.7:_ZNK3K3b6Medium17iso9660DescriptorEv
libk3blib.so.7:_ZNK3K3b6Medium18beautifiedVolumeIdEv
libk3blib.so.7:_ZNK3K3b6Medium20actuallyUsedCapacityEv
libk3blib.so.7:_ZNK3K3b6Medium21actuallyRemainingSizeEv
libk3blib.so.7:_ZNK3K3b6Medium3tocEv
libk3blib.so.7:_ZNK3K3b6Medium4iconEv
libk3blib.so.7:_ZNK3K3b6Medium6cdTextEv
libk3blib.so.7:_ZNK3K3b6Medium6deviceEv
libk3blib.so.7:_ZNK3K3b6Medium7contentEv
libk3blib.so.7:_ZNK3K3b6Medium7isValidEv
libk3blib.so.7:_ZNK3K3b6Medium8cddbInfoEv
libk3blib.so.7:_ZNK3K3b6Medium8diskInfoEv
libk3blib.so.7:_ZNK3K3b6Medium8volumeIdEv
libk3blib.so.7:_ZNK3K3b6MediumeqERKS0_
libk3blib.so.7:_ZNK3K3b6MediumneERKS0_
libk3blib.so.7:_ZNK3K3b6Plugin10metaObjectEv
libk3blib.so.7:_ZNK3K3b6Thread10metaObjectEv
libk3blib.so.7:_ZNK3K3b6Thread7successEv
libk3blib.so.7:_ZNK3K3b6VcdDoc10metaObjectEv
libk3blib.so.7:_ZNK3K3b6VcdDoc13calcTotalSizeEv
libk3blib.so.7:_ZNK3K3b6VcdDoc19supportedMediaTypesEv
libk3blib.so.7:_ZNK3K3b6VcdDoc4nameEv
libk3blib.so.7:_ZNK3K3b6VcdDoc4sizeEv
libk3blib.so.7:_ZNK3K3b6VcdDoc6lengthEv
libk3blib.so.7:_ZNK3K3b6VcdDoc7ISOsizeEv
libk3blib.so.7:_ZNK3K3b7BurnJob10metaObjectEv
libk3blib.so.7:_ZNK3K3b7BurnJob10writingAppEv
libk3blib.so.7:_ZNK3K3b7BurnJob20supportedWritingAppsEv
libk3blib.so.7:_ZNK3K3b7DataDoc10isoOptionsEv
libk3blib.so.7:_ZNK3K3b7DataDoc10metaObjectEv
libk3blib.so.7:_ZNK3K3b7DataDoc10verifyDataEv
libk3blib.so.7:_ZNK3K3b7DataDoc11burningSizeEv
libk3blib.so.7:_ZNK3K3b7DataDoc13burningLengthEv
libk3blib.so.7:_ZNK3K3b7DataDoc15importedSessionEv
libk3blib.so.7:_ZNK3K3b7DataDoc16multiSessionModeEv
libk3blib.so.7:_ZNK3K3b7DataDoc18needToCutFilenamesEv
libk3blib.so.7:_ZNK3K3b7DataDoc19findItemByLocalPathERK7QString
libk3blib.so.7:_ZNK3K3b7DataDoc19supportedMediaTypesEv
libk3blib.so.7:_ZNK3K3b7DataDoc22needToCutFilenameItemsEv
libk3blib.so.7:_ZNK3K3b7DataDoc4nameEv
libk3blib.so.7:_ZNK3K3b7DataDoc4rootEv
libk3blib.so.7:_ZNK3K3b7DataDoc4sizeEv
libk3blib.so.7:_ZNK3K3b7DataDoc6lengthEv
libk3blib.so.7:_ZNK3K3b7DataDoc8dataModeEv
libk3blib.so.7:_ZNK3K3b7DirItem10getDirItemEv
libk3blib.so.7:_ZNK3K3b7DirItem10itemBlocksEb
libk3blib.so.7:_ZNK3K3b7DirItem11nextSiblingEv
libk3blib.so.7:_ZNK3K3b7DirItem12isRemoveableEv
libk3blib.so.7:_ZNK3K3b7DirItem14canAddDataItemEPNS_8DataItemE
libk3blib.so.7:_ZNK3K3b7DirItem18alreadyInDirectoryERK7QString
libk3blib.so.7:_ZNK3K3b7DirItem4copyEv
libk3blib.so.7:_ZNK3K3b7DirItem4findERK7QString
libk3blib.so.7:_ZNK3K3b7DirItem7numDirsEv
libk3blib.so.7:_ZNK3K3b7DirItem8itemSizeEb
libk3blib.so.7:_ZNK3K3b7DirItem8mimeTypeEv
libk3blib.so.7:_ZNK3K3b7DirItem8numFilesEv
libk3blib.so.7:_ZNK3K3b7DirItem9isSubItemEPKNS_8DataItemE
libk3blib.so.7:_ZNK3K3b7DirItem9nextChildEPNS_8DataItemE
libk3blib.so.7:_ZNK3K3b7DirItem9writeToCdEv
libk3blib.so.7:_ZNK3K3b7Iso966010debugEntryEPKNS_12Iso9660EntryEi
libk3blib.so.7:_ZNK3K3b7Iso966012plainIso9660Ev
libk3blib.so.7:_ZNK3K3b7Iso966015firstRRDirEntryEv
libk3blib.so.7:_ZNK3K3b7Iso966016firstIsoDirEntryEv
libk3blib.so.7:_ZNK3K3b7Iso966017primaryDescriptorEv
libk3blib.so.7:_ZNK3K3b7Iso966018firstElToritoEntryEv
libk3blib.so.7:_ZNK3K3b7Iso966019firstJolietDirEntryEv
libk3blib.so.7:_ZNK3K3b7Iso96605debugEv
libk3blib.so.7:_ZNK3K3b7Iso96606isOpenEv
libk3blib.so.7:_ZNK3K3b7MsfEdit10metaObjectEv
libk3blib.so.7:_ZNK3K3b7MsfEdit11stepEnabledEv
libk3blib.so.7:_ZNK3K3b7MsfEdit5valueEv
libk3blib.so.7:_ZNK3K3b7MsfEdit7Private11stringValueEv
libk3blib.so.7:_ZNK3K3b7MsfEdit7maximumEv
libk3blib.so.7:_ZNK3K3b7MsfEdit7minimumEv
libk3blib.so.7:_ZNK3K3b7MsfEdit8sizeHintEv
libk3blib.so.7:_ZNK3K3b7Process10metaObjectEv
libk3blib.so.7:_ZNK3K3b7Version10patchLevelEv
libk3blib.so.7:_ZNK3K3b7Version12majorVersionEv
libk3blib.so.7:_ZNK3K3b7Version12minorVersionEv
libk3blib.so.7:_ZNK3K3b7Version13versionStringEv
libk3blib.so.7:_ZNK3K3b7Version6suffixEv
libk3blib.so.7:_ZNK3K3b7Version7isValidEv
libk3blib.so.7:_ZNK3K3b7Version8simplifyEv
libk3blib.so.7:_ZNK3K3b7Version8toStringEv
libk3blib.so.7:_ZNK3K3b8AudioDoc10cdTextDataEv
libk3blib.so.7:_ZNK3K3b8AudioDoc10firstTrackEv
libk3blib.so.7:_ZNK3K3b8AudioDoc10metaObjectEv
libk3blib.so.7:_ZNK3K3b8AudioDoc10songwriterEv
libk3blib.so.7:_ZNK3K3b8AudioDoc11numOfTracksEv
libk3blib.so.7:_ZNK3K3b8AudioDoc13cdTextMessageEv
libk3blib.so.7:_ZNK3K3b8AudioDoc14hideFirstTrackEv
libk3blib.so.7:_ZNK3K3b8AudioDoc19audioRippingRetriesEv
libk3blib.so.7:_ZNK3K3b8AudioDoc19supportedMediaTypesEv
libk3blib.so.7:_ZNK3K3b8AudioDoc24audioRippingParanoiaModeEv
libk3blib.so.7:_ZNK3K3b8AudioDoc28audioRippingIgnoreReadErrorsEv
libk3blib.so.7:_ZNK3K3b8AudioDoc4nameEv
libk3blib.so.7:_ZNK3K3b8AudioDoc4sizeEv
libk3blib.so.7:_ZNK3K3b8AudioDoc5titleEv
libk3blib.so.7:_ZNK3K3b8AudioDoc5toTocEv
libk3blib.so.7:_ZNK3K3b8AudioDoc6artistEv
libk3blib.so.7:_ZNK3K3b8AudioDoc6cdTextEv
libk3blib.so.7:_ZNK3K3b8AudioDoc6lengthEv
libk3blib.so.7:_ZNK3K3b8AudioDoc7disc_idEv
libk3blib.so.7:_ZNK3K3b8AudioDoc7upc_eanEv
libk3blib.so.7:_ZNK3K3b8AudioDoc8arrangerEv
libk3blib.so.7:_ZNK3K3b8AudioDoc8composerEv
libk3blib.so.7:_ZNK3K3b8AudioDoc9lastTrackEv
libk3blib.so.7:_ZNK3K3b8AudioDoc9normalizeEv
libk3blib.so.7:_ZNK3K3b8BootItem4copyEv
libk3blib.so.7:_ZNK3K3b8CloneJob10jobDetailsEv
libk3blib.so.7:_ZNK3K3b8CloneJob10metaObjectEv
libk3blib.so.7:_ZNK3K3b8CloneJob14jobDescriptionEv
libk3blib.so.7:_ZNK3K3b8CloneJob9jobSourceEv
libk3blib.so.7:_ZNK3K3b8CloneJob9jobTargetEv
libk3blib.so.7:_ZNK3K3b8DataItem10isBootItemEv
libk3blib.so.7:_ZNK3K3b8DataItem10itemBlocksEb
libk3blib.so.7:_ZNK3K3b8DataItem11iso9660PathEv
libk3blib.so.7:_ZNK3K3b8DataItem11nextSiblingEv
libk3blib.so.7:_ZNK3K3b8DataItem11writtenPathEv
libk3blib.so.7:_ZNK3K3b8DataItem12hideOnJolietEv
libk3blib.so.7:_ZNK3K3b8DataItem13isSpecialFileEv
libk3blib.so.7:_ZNK3K3b8DataItem15hideOnRockRidgeEv
libk3blib.so.7:_ZNK3K3b8DataItem16isFromOldSessionEv
libk3blib.so.7:_ZNK3K3b8DataItem4sizeEv
libk3blib.so.7:_ZNK3K3b8DataItem5depthEv
libk3blib.so.7:_ZNK3K3b8DataItem5flagsEv
libk3blib.so.7:_ZNK3K3b8DataItem5isDirEv
libk3blib.so.7:_ZNK3K3b8DataItem6blocksEv
libk3blib.so.7:_ZNK3K3b8DataItem6getDocEv
libk3blib.so.7:_ZNK3K3b8DataItem6isFileEv
libk3blib.so.7:_ZNK3K3b8DataItem7k3bNameEv
libk3blib.so.7:_ZNK3K3b8DataItem7k3bPathEv
libk3blib.so.7:_ZNK3K3b8DataItem8mimeTypeEv
libk3blib.so.7:_ZNK3K3b8DataItem9isSymLinkEv
libk3blib.so.7:_ZNK3K3b8FileItem10getDirItemEv
libk3blib.so.7:_ZNK3K3b8FileItem4copyEv
libk3blib.so.7:_ZNK3K3b8FileItem6existsEv
libk3blib.so.7:_ZNK3K3b8FileItem7isValidEv
libk3blib.so.7:_ZNK3K3b8FileItem7localIdEb
libk3blib.so.7:_ZNK3K3b8FileItem7localIdEv
libk3blib.so.7:_ZNK3K3b8FileItem8itemSizeEb
libk3blib.so.7:_ZNK3K3b8FileItem8linkDestEv
libk3blib.so.7:_ZNK3K3b8FileItem8mimeTypeEv
libk3blib.so.7:_ZNK3K3b8FileItem9localPathEv
libk3blib.so.7:_ZNK3K3b8MixedDoc10isModifiedEv
libk3blib.so.7:_ZNK3K3b8MixedDoc10metaObjectEv
libk3blib.so.7:_ZNK3K3b8MixedDoc11numOfTracksEv
libk3blib.so.7:_ZNK3K3b8MixedDoc19supportedMediaTypesEv
libk3blib.so.7:_ZNK3K3b8MixedDoc4nameEv
libk3blib.so.7:_ZNK3K3b8MixedDoc4sizeEv
libk3blib.so.7:_ZNK3K3b8MixedDoc5toTocENS_6Device5Track8DataModeERKNS_3MsfE
libk3blib.so.7:_ZNK3K3b8MixedDoc6lengthEv
libk3blib.so.7:_ZNK3K3b8MovixBin11languageDirERK7QString
libk3blib.so.7:_ZNK3K3b8MovixBin15subtitleFontDirERK7QString
libk3blib.so.7:_ZNK3K3b8MovixBin15supportedCodecsEv
libk3blib.so.7:_ZNK3K3b8MovixBin18supportedLanguagesEv
libk3blib.so.7:_ZNK3K3b8MovixBin19supportedKbdLayoutsEv
libk3blib.so.7:_ZNK3K3b8MovixBin20supportedBackgroundsEv
libk3blib.so.7:_ZNK3K3b8MovixBin22supportedSubtitleFontsEv
libk3blib.so.7:_ZNK3K3b8MovixBin5filesERK7QStringS3_S3_S3_RK11QStringList
libk3blib.so.7:_ZNK3K3b8MovixBin9supportedERK7QString
libk3blib.so.7:_ZNK3K3b8MovixDoc10metaObjectEv
libk3blib.so.7:_ZNK3K3b8VcdTrack4sizeEv
libk3blib.so.7:_ZNK3K3b8VcdTrack5indexEv
libk3blib.so.7:_ZNK3K3b8VideoDVD11VideoStream12pictureWidthEv
libk3blib.so.7:_ZNK3K3b8VideoDVD11VideoStream13pictureHeightEv
libk3blib.so.7:_ZNK3K3b8VideoDVD11VideoStream16realPictureWidthEv
libk3blib.so.7:_ZNK3K3b8VideoDVD11VideoStream17realPictureHeightEv
libk3blib.so.7:_ZNK3K3b8VideoDVD4Time11totalFramesEv
libk3blib.so.7:_ZNK3K3b8VideoDVD4Time12totalSecondsEv
libk3blib.so.7:_ZNK3K3b8VideoDVD4Time8toStringEb
libk3blib.so.7:_ZNK3K3b8VideoDVD8VideoDVD5debugEv
libk3blib.so.7:_ZNK3K3b8VideoDVD8VideoDVD5titleEj
libk3blib.so.7:_ZNK3K3b8VideoDVD8VideoDVD5validEv
libk3blib.so.7:_ZNK3K3b8VideoDVD8VideoDVDixEj
libk3blib.so.7:_ZNK3K3b9AudioFile13sourceCommentEv
libk3blib.so.7:_ZNK3K3b9AudioFile14originalLengthEv
libk3blib.so.7:_ZNK3K3b9AudioFile3docEv
libk3blib.so.7:_ZNK3K3b9AudioFile4copyEv
libk3blib.so.7:_ZNK3K3b9AudioFile4typeEv
libk3blib.so.7:_ZNK3K3b9AudioFile7decoderEv
libk3blib.so.7:_ZNK3K3b9AudioFile7isValidEv
libk3blib.so.7:_ZNK3K3b9AudioFile8filenameEv
libk3blib.so.7:_ZNK3K3b9CdCopyJob10jobDetailsEv
libk3blib.so.7:_ZNK3K3b9CdCopyJob10metaObjectEv
libk3blib.so.7:_ZNK3K3b9CdCopyJob14jobDescriptionEv
libk3blib.so.7:_ZNK3K3b9CdCopyJob9jobSourceEv
libk3blib.so.7:_ZNK3K3b9CdCopyJob9jobTargetEv
libk3blib.so.7:_ZNK3K3b9ThreadJob10metaObjectEv
libk3blib.so.7:_ZNK3K3b9ThreadJob6activeEv
libk3blib.so.7:_ZNK3K3b9ThreadJob8canceledEv
libk3blib.so.7:_ZNK3K3b9Validator5fixupER7QString
libk3blib.so.7:_ZThn16_N3K3b10BusyWidgetD0Ev
libk3blib.so.7:_ZThn16_N3K3b10BusyWidgetD1Ev
libk3blib.so.7:_ZThn16_N3K3b10DirSizeJobD0Ev
libk3blib.so.7:_ZThn16_N3K3b10DirSizeJobD1Ev
libk3blib.so.7:_ZThn16_N3K3b10DvdCopyJobD0Ev
libk3blib.so.7:_ZThn16_N3K3b10DvdCopyJobD1Ev
libk3blib.so.7:_ZThn16_N3K3b10MetaWriterD0Ev
libk3blib.so.7:_ZThn16_N3K3b10MetaWriterD1Ev
libk3blib.so.7:_ZThn16_N3K3b10TitleLabelD0Ev
libk3blib.so.7:_ZThn16_N3K3b10TitleLabelD1Ev
libk3blib.so.7:_ZThn16_N3K3b11BlankingJobD0Ev
libk3blib.so.7:_ZThn16_N3K3b11BlankingJobD1Ev
libk3blib.so.7:_ZThn16_N3K3b12CdrdaoWriterD0Ev
libk3blib.so.7:_ZThn16_N3K3b12CdrdaoWriterD1Ev
libk3blib.so.7:_ZThn16_N3K3b14DeviceComboBoxD0Ev
libk3blib.so.7:_ZThn16_N3K3b14DeviceComboBoxD1Ev
libk3blib.so.7:_ZThn16_N3K3b14IntMapComboBoxD0Ev
libk3blib.so.7:_ZThn16_N3K3b14IntMapComboBoxD1Ev
libk3blib.so.7:_ZThn16_N3K3b16DvdFormattingJobD0Ev
libk3blib.so.7:_ZThn16_N3K3b16DvdFormattingJobD1Ev
libk3blib.so.7:_ZThn16_N3K3b16SimpleJobHandler13questionYesNoERK7QStringS3_RK8KGuiItemS6_
libk3blib.so.7:_ZThn16_N3K3b16SimpleJobHandler13waitForMediumEPNS_6Device6DeviceE6QFlagsINS1_10MediaStateEES4_INS1_9MediaTypeEERKNS_3MsfERK7QString
libk3blib.so.7:_ZThn16_N3K3b16SimpleJobHandler19blockingInformationERK7QStringS3_
libk3blib.so.7:_ZThn16_N3K3b16SimpleJobHandlerD0Ev
libk3blib.so.7:_ZThn16_N3K3b16SimpleJobHandlerD1Ev
libk3blib.so.7:_ZThn16_N3K3b17MultiChoiceDialogD0Ev
libk3blib.so.7:_ZThn16_N3K3b17MultiChoiceDialogD1Ev
libk3blib.so.7:_ZThn16_N3K3b18BinImageWritingJobD0Ev
libk3blib.so.7:_ZThn16_N3K3b18BinImageWritingJobD1Ev
libk3blib.so.7:_ZThn16_N3K3b18PluginConfigWidgetD0Ev
libk3blib.so.7:_ZThn16_N3K3b18PluginConfigWidgetD1Ev
libk3blib.so.7:_ZThn16_N3K3b20AudioFileAnalyzerJobD0Ev
libk3blib.so.7:_ZThn16_N3K3b20AudioFileAnalyzerJobD1Ev
libk3blib.so.7:_ZThn16_N3K3b21DeviceSelectionDialogD0Ev
libk3blib.so.7:_ZThn16_N3K3b21DeviceSelectionDialogD1Ev
libk3blib.so.7:_ZThn16_N3K3b22AudioCueFileWritingJobD0Ev
libk3blib.so.7:_ZThn16_N3K3b22AudioCueFileWritingJobD1Ev
libk3blib.so.7:_ZThn16_N3K3b22Iso9660ImageWritingJobD0Ev
libk3blib.so.7:_ZThn16_N3K3b22Iso9660ImageWritingJobD1Ev
libk3blib.so.7:_ZThn16_N3K3b27VideoDVDTitleTranscodingJobD0Ev
libk3blib.so.7:_ZThn16_N3K3b27VideoDVDTitleTranscodingJobD1Ev
libk3blib.so.7:_ZThn16_N3K3b30VideoDVDTitleDetectClippingJobD0Ev
libk3blib.so.7:_ZThn16_N3K3b30VideoDVDTitleDetectClippingJobD1Ev
libk3blib.so.7:_ZThn16_N3K3b3Job13questionYesNoERK7QStringS3_RK8KGuiItemS6_
libk3blib.so.7:_ZThn16_N3K3b3Job13waitForMediumEPNS_6Device6DeviceE6QFlagsINS1_10MediaStateEES4_INS1_9MediaTypeEERKNS_3MsfERK7QString
libk3blib.so.7:_ZThn16_N3K3b3Job19blockingInformationERK7QStringS3_
libk3blib.so.7:_ZThn16_N3K3b3JobD0Ev
libk3blib.so.7:_ZThn16_N3K3b3JobD1Ev
libk3blib.so.7:_ZThn16_N3K3b6Device13DeviceHandlerD0Ev
libk3blib.so.7:_ZThn16_N3K3b6Device13DeviceHandlerD1Ev
libk3blib.so.7:_ZThn16_N3K3b6Md5JobD0Ev
libk3blib.so.7:_ZThn16_N3K3b6Md5JobD1Ev
libk3blib.so.7:_ZThn16_N3K3b7BurnJobD0Ev
libk3blib.so.7:_ZThn16_N3K3b7BurnJobD1Ev
libk3blib.so.7:_ZThn16_N3K3b7MsfEditD0Ev
libk3blib.so.7:_ZThn16_N3K3b7MsfEditD1Ev
libk3blib.so.7:_ZThn16_N3K3b8CloneJobD0Ev
libk3blib.so.7:_ZThn16_N3K3b8CloneJobD1Ev
libk3blib.so.7:_ZThn16_N3K3b9CdCopyJobD0Ev
libk3blib.so.7:_ZThn16_N3K3b9CdCopyJobD1Ev
libk3blib.so.7:_ZThn16_N3K3b9ThreadJob13questionYesNoERK7QStringS3_RK8KGuiItemS6_
libk3blib.so.7:_ZThn16_N3K3b9ThreadJob13waitForMediumEPNS_6Device6DeviceE6QFlagsINS1_10MediaStateEES4_INS1_9MediaTypeEERKNS_3MsfERK7QString
libk3blib.so.7:_ZThn16_N3K3b9ThreadJob19blockingInformationERK7QStringS3_
libk3blib.so.7:_ZThn16_N3K3b9ThreadJobD0Ev
libk3blib.so.7:_ZThn16_N3K3b9ThreadJobD1Ev
libk3blib.so.7:_ZThn48_N3K3b14DeviceComboBoxD0Ev
libk3blib.so.7:_ZThn48_N3K3b14DeviceComboBoxD1Ev
libk3blib.so.7:_Zls6QDebug6QFlagsIN3K3b6Device13DeviceHandler7CommandEE
libk3blib.so.7:__bss_start
libk3blib.so.7:_edata
libk3blib.so.7:_end
videodvd.so:__bss_start
videodvd.so:_edata
videodvd.so:_end
videodvd.so:kdemain
videodvd.so:qt_plugin_instance
videodvd.so:qt_plugin_query_metadata
