libKF5ConfigCore.so.5:_ZN11KConfigBase5groupEPKc
libKF5ConfigCore.so.5:_ZN11KConfigBase5groupERK7QString
libKF5ConfigCore.so.5:_ZN12KConfigGroup10writeEntryEPKcRK8QVariant6QFlagsIN11KConfigBase15WriteConfigFlagEE
libKF5ConfigCore.so.5:_ZN12KConfigGroup14writePathEntryEPKcRK7QString6QFlagsIN11KConfigBase15WriteConfigFlagEE
libKF5ConfigCore.so.5:_ZN12KConfigGroup4syncEv
libKF5ConfigCore.so.5:_ZN12KConfigGroupC1ERK28QExplicitlySharedDataPointerI13KSharedConfigEPKc
libKF5ConfigCore.so.5:_ZN12KConfigGroupC1ERK28QExplicitlySharedDataPointerI13KSharedConfigERK7QString
libKF5ConfigCore.so.5:_ZN12KConfigGroupD1Ev
libKF5ConfigCore.so.5:_ZN12KDesktopFileC1ERK7QString
libKF5ConfigCore.so.5:_ZN12KDesktopFileD1Ev
libKF5ConfigCore.so.5:_ZN13KSharedConfig10openConfigERK7QString6QFlagsIN7KConfig8OpenFlagEEN14QStandardPaths16StandardLocationE
libKF5ConfigCore.so.5:_ZNK12KConfigGroup13readPathEntryEPKcRK7QString
libKF5ConfigCore.so.5:_ZNK12KConfigGroup16readXdgListEntryERK7QStringRK11QStringList
libKF5ConfigCore.so.5:_ZNK12KConfigGroup6hasKeyERK7QString
libKF5ConfigCore.so.5:_ZNK12KConfigGroup9readEntryEPKcRK8QVariant
libKF5ConfigCore.so.5:_ZNK12KConfigGroup9readEntryEPKcS1_
libKF5ConfigCore.so.5:_ZNK12KConfigGroup9readEntryERK7QStringS2_
libKF5ConfigCore.so.5:_ZNK12KDesktopFile12desktopGroupEv
libKF5CoreAddons.so.5:_ZN10KAboutData15applicationDataEv
libKF5CoreAddons.so.5:_ZN10KAboutData18fromPluginMetaDataERK15KPluginMetaData
libKF5CoreAddons.so.5:_ZN10KAboutData18registerPluginDataERKS_
libKF5CoreAddons.so.5:_ZN10KAboutDataC1ERKS_
libKF5CoreAddons.so.5:_ZN10KAboutDataD1Ev
libKF5CoreAddons.so.5:_ZN10KAboutDataaSERKS_
libKF5CoreAddons.so.5:_ZN12KAboutPersonD1Ev
libKF5CoreAddons.so.5:_ZN13KAboutLicenseD1Ev
libKF5CoreAddons.so.5:_ZN13KPluginLoader11findPluginsERK7QStringSt8functionIFbRK15KPluginMetaDataEE
libKF5CoreAddons.so.5:_ZN13KPluginLoader6unloadEv
libKF5CoreAddons.so.5:_ZN13KPluginLoader7factoryEv
libKF5CoreAddons.so.5:_ZN13KPluginLoaderC1ERK7QStringP7QObject
libKF5CoreAddons.so.5:_ZN13KPluginLoaderD1Ev
libKF5CoreAddons.so.5:_ZN14KJobUiDelegate27setAutoErrorHandlingEnabledEb
libKF5CoreAddons.so.5:_ZN15KPluginMetaDataC1ERK11QJsonObjectRK7QString
libKF5CoreAddons.so.5:_ZN15KPluginMetaDataC1ERKS_
libKF5CoreAddons.so.5:_ZN15KPluginMetaDataC1Ev
libKF5CoreAddons.so.5:_ZN15KPluginMetaDataD1Ev
libKF5CoreAddons.so.5:_ZN15KPluginMetaDataaSERKS_
libKF5CoreAddons.so.5:_ZN4KJob13setUiDelegateEP14KJobUiDelegate
libKF5CoreAddons.so.5:_ZN4KJob16staticMetaObjectE
libKF5CoreAddons.so.5:_ZN4KJob4killENS_13KillVerbosityE
libKF5CoreAddons.so.5:_ZN4KJob6resultEPS_NS_14QPrivateSignalE
libKF5CoreAddons.so.5:_ZNK10KAboutData11displayNameEv
libKF5CoreAddons.so.5:_ZNK10KAboutData11translatorsEv
libKF5CoreAddons.so.5:_ZNK10KAboutData13componentNameEv
libKF5CoreAddons.so.5:_ZNK10KAboutData15programIconNameEv
libKF5CoreAddons.so.5:_ZNK10KAboutData16shortDescriptionEv
libKF5CoreAddons.so.5:_ZNK10KAboutData18copyrightStatementEv
libKF5CoreAddons.so.5:_ZNK10KAboutData7authorsEv
libKF5CoreAddons.so.5:_ZNK10KAboutData7creditsEv
libKF5CoreAddons.so.5:_ZNK10KAboutData7versionEv
libKF5CoreAddons.so.5:_ZNK10KAboutData8homepageEv
libKF5CoreAddons.so.5:_ZNK10KAboutData8licensesEv
libKF5CoreAddons.so.5:_ZNK10KAboutData9otherTextEv
libKF5CoreAddons.so.5:_ZNK12KAboutPerson10webAddressEv
libKF5CoreAddons.so.5:_ZNK12KAboutPerson11ocsUsernameEv
libKF5CoreAddons.so.5:_ZNK12KAboutPerson12emailAddressEv
libKF5CoreAddons.so.5:_ZNK12KAboutPerson4nameEv
libKF5CoreAddons.so.5:_ZNK12KAboutPerson4taskEv
libKF5CoreAddons.so.5:_ZNK13KAboutLicense4spdxEv
libKF5CoreAddons.so.5:_ZNK13KPluginLoader11errorStringEv
libKF5CoreAddons.so.5:_ZNK15KPluginMetaData16supportsMimeTypeERK7QString
libKF5CoreAddons.so.5:_ZNK15KPluginMetaData17initialPreferenceEv
libKF5CoreAddons.so.5:_ZNK15KPluginMetaData4nameEv
libKF5CoreAddons.so.5:_ZNK15KPluginMetaData8fileNameEv
libKF5CoreAddons.so.5:_ZNK15KPluginMetaData8pluginIdEv
libKF5CoreAddons.so.5:_ZNK15KPluginMetaData9mimeTypesEv
libKF5CoreAddons.so.5:_ZNK4KJob10uiDelegateEv
libKF5CoreAddons.so.5:_ZNK4KJob5errorEv
libKF5CoreAddons.so.5:_ZNK4KJob9errorTextEv
libKF5I18n.so.5:_Z6ki18ndPKcS0_
libKF5I18n.so.5:_Z7ki18ndcPKcS0_S0_
libKF5I18n.so.5:_ZN16KLocalizedStringD1Ev
libKF5I18n.so.5:_ZNK16KLocalizedString4subsERK7QStringi5QChar
libKF5I18n.so.5:_ZNK16KLocalizedString8toStringEv
libKF5IconThemes.so.5:_ZN11KIconLoaderC1ERK7QStringRK11QStringListP7QObject
libKF5JobWidgets.so.5:_ZN11KJobWidgets9setWindowEP4KJobP7QWidget
libKF5JobWidgets.so.5:_ZN20KDialogJobUiDelegateC1E6QFlagsIN14KJobUiDelegate4FlagEEP7QWidget
libKF5KIOCore.so.5:_ZN13KProtocolInfo13protocolClassERK7QString
libKF5KIOCore.so.5:_ZN13KProtocolInfo9proxiedByERK7QString
libKF5KIOCore.so.5:_ZN16KProtocolManager13slaveProtocolERK4QUrlR7QString
libKF5KIOCore.so.5:_ZN16KProtocolManager15supportsListingERK4QUrl
libKF5KIOCore.so.5:_ZN25OrgKdeKDirNotifyInterface14emitFilesAddedERK4QUrl
libKF5KIOCore.so.5:_ZN3KIO11FileCopyJob13mimeTypeFoundEPNS_3JobERK7QString
libKF5KIOCore.so.5:_ZN3KIO11FileCopyJob16staticMetaObjectE
libKF5KIOCore.so.5:_ZN3KIO11FileCopyJob19setModificationTimeERK9QDateTime
libKF5KIOCore.so.5:_ZN3KIO11TransferJob13mimeTypeFoundEPNS_3JobERK7QString
libKF5KIOCore.so.5:_ZN3KIO11TransferJob16staticMetaObjectE
libKF5KIOCore.so.5:_ZN3KIO12mostLocalUrlERK4QUrl6QFlagsINS_7JobFlagEE
libKF5KIOCore.so.5:_ZN3KIO3Job11addMetaDataERK4QMapI7QStringS2_E
libKF5KIOCore.so.5:_ZN3KIO3Job11addMetaDataERK7QStringS3_
libKF5KIOCore.so.5:_ZN3KIO3Job11setMetaDataERKNS_8MetaDataE
libKF5KIOCore.so.5:_ZN3KIO3Job13queryMetaDataERK7QString
libKF5KIOCore.so.5:_ZN3KIO3getERK4QUrlNS_8LoadTypeE6QFlagsINS_7JobFlagEE
libKF5KIOCore.so.5:_ZN3KIO9Scheduler18publishSlaveOnHoldEv
libKF5KIOCore.so.5:_ZN3KIO9file_copyERK4QUrlS2_i6QFlagsINS_7JobFlagEE
libKF5KIOCore.so.5:_ZN3KIO9file_moveERK4QUrlS2_i6QFlagsINS_7JobFlagEE
libKF5KIOCore.so.5:_ZN3KIO9http_postERK4QUrlRK10QByteArray6QFlagsINS_7JobFlagEE
libKF5KIOCore.so.5:_ZNK3KIO11FileCopyJob6srcUrlEv
libKF5KIOCore.so.5:_ZNK3KIO11FileCopyJob7destUrlEv
libKF5KIOCore.so.5:_ZNK3KIO11TransferJob11isErrorPageEv
libKF5KIOCore.so.5:_ZNK3KIO3Job8metaDataEv
libKF5KIOCore.so.5:_ZNK3KIO7StatJob12mostLocalUrlEv
libKF5KIOCore.so.5:_ZNK3KIO9SimpleJob3urlEv
libKF5KIOGui.so.5:_ZN3KIO10OpenUrlJob17setRunExecutablesEb
libKF5KIOGui.so.5:_ZN3KIO10OpenUrlJobC1ERK4QUrlRK7QStringP7QObject
libKF5KIOGui.so.5:_ZN3KIO18CommandLauncherJob13setExecutableERK7QString
libKF5KIOGui.so.5:_ZN3KIO18CommandLauncherJobC1ERK7QStringRK11QStringListP7QObject
libKF5KIOWidgets.so.5:_ZN10KUriFilter4selfEv
libKF5KIOWidgets.so.5:_ZN10KUriFilter9filterUriER14KUriFilterDataRK11QStringList
libKF5KIOWidgets.so.5:_ZN14KUriFilterData22setCheckForExecutablesEb
libKF5KIOWidgets.so.5:_ZN14KUriFilterData7setDataERK7QString
libKF5KIOWidgets.so.5:_ZN14KUriFilterDataC1Ev
libKF5KIOWidgets.so.5:_ZN14KUriFilterDataD1Ev
libKF5KIOWidgets.so.5:_ZN16KFileItemActions22associatedApplicationsERK11QStringListRK7QString
libKF5KIOWidgets.so.5:_ZN3KIO13JobUiDelegateC1E6QFlagsIN14KJobUiDelegate4FlagEEP7QWidget
libKF5KIOWidgets.so.5:_ZN4KRun11handleErrorEP4KJob
libKF5KIOWidgets.so.5:_ZN4KRun11qt_metacallEN11QMetaObject4CallEiPPv
libKF5KIOWidgets.so.5:_ZN4KRun11qt_metacastEPKc
libKF5KIOWidgets.so.5:_ZN4KRun11setFinishedEb
libKF5KIOWidgets.so.5:_ZN4KRun12isExecutableERK7QString
libKF5KIOWidgets.so.5:_ZN4KRun13foundMimeTypeERK7QString
libKF5KIOWidgets.so.5:_ZN4KRun14slotStatResultEP4KJob
libKF5KIOWidgets.so.5:_ZN4KRun15handleInitErrorEiRK7QString
libKF5KIOWidgets.so.5:_ZN4KRun16slotScanFinishedEP4KJob
libKF5KIOWidgets.so.5:_ZN4KRun16staticMetaObjectE
libKF5KIOWidgets.so.5:_ZN4KRun18mimeTypeDeterminedERK7QString
libKF5KIOWidgets.so.5:_ZN4KRun19setPreferredServiceERK7QString
libKF5KIOWidgets.so.5:_ZN4KRun20setSuggestedFileNameERK7QString
libKF5KIOWidgets.so.5:_ZN4KRun3jobEv
libKF5KIOWidgets.so.5:_ZN4KRun4initEv
libKF5KIOWidgets.so.5:_ZN4KRun6setJobEPN3KIO3JobE
libKF5KIOWidgets.so.5:_ZN4KRun6setUrlERK4QUrl
libKF5KIOWidgets.so.5:_ZN4KRun7killJobEv
libKF5KIOWidgets.so.5:_ZN4KRun8setErrorEb
libKF5KIOWidgets.so.5:_ZN4KRunC2ERK4QUrlP7QWidgetbRK10QByteArray
libKF5KIOWidgets.so.5:_ZN4KRunD2Ev
libKF5KIOWidgets.so.5:_ZNK10KUriFilter11pluginNamesEv
libKF5KIOWidgets.so.5:_ZNK14KUriFilterData3uriEv
libKF5KIOWidgets.so.5:_ZNK14KUriFilterData7uriTypeEv
libKF5KIOWidgets.so.5:_ZNK14KUriFilterData8errorMsgEv
libKF5KIOWidgets.so.5:_ZNK4KRun11isLocalFileEv
libKF5KIOWidgets.so.5:_ZNK4KRun17suggestedFileNameEv
libKF5KIOWidgets.so.5:_ZNK4KRun3urlEv
libKF5KIOWidgets.so.5:_ZTI4KRun
libKF5Service.so.5:_ZN11KPluginInfoC1E28QExplicitlySharedDataPointerI8KServiceE
libKF5Service.so.5:_ZN11KPluginInfoD1Ev
libKF5Service.so.5:_ZN15KMimeTypeTrader4selfEv
libKF5Service.so.5:_ZN8KService18serviceByStorageIdERK7QString
libKF5Service.so.5:_ZNK11KPluginInfo10toMetaDataEv
libKF5Service.so.5:_ZNK11KPluginInfo4nameEv
libKF5Service.so.5:_ZNK11KPluginInfo7isValidEv
libKF5Service.so.5:_ZNK12KSycocaEntry4nameEv
libKF5Service.so.5:_ZNK15KMimeTypeTrader5queryERK7QStringS2_S2_
libKF5Service.so.5:_ZNK8KService16desktopEntryNameEv
libKF5Service.so.5:_ZNK8KService4iconEv
libKF5Service.so.5:_ZNK8KService7libraryEv
libKF5WidgetsAddons.so.5:_ZN11KMessageBox13detailedSorryEP7QWidgetRK7QStringS4_S4_6QFlagsINS_6OptionEE
libKF5WidgetsAddons.so.5:_ZN11KMessageBox13questionYesNoEP7QWidgetRK7QStringS4_RK8KGuiItemS7_S4_6QFlagsINS_6OptionEE
libKF5WidgetsAddons.so.5:_ZN11KMessageBox18warningYesNoCancelEP7QWidgetRK7QStringS4_RK8KGuiItemS7_S7_S4_6QFlagsINS_6OptionEE
libKF5WidgetsAddons.so.5:_ZN11KMessageBox21warningContinueCancelEP7QWidgetRK7QStringS4_RK8KGuiItemS7_S4_6QFlagsINS_6OptionEE
libKF5WidgetsAddons.so.5:_ZN11KMessageBox5sorryEP7QWidgetRK7QStringS4_6QFlagsINS_6OptionEE
libKF5WidgetsAddons.so.5:_ZN16KStandardGuiItem4saveEv
libKF5WidgetsAddons.so.5:_ZN16KStandardGuiItem6cancelEv
libKF5WidgetsAddons.so.5:_ZN16KStandardGuiItem6saveAsEv
libKF5WidgetsAddons.so.5:_ZN16KStandardGuiItem7discardEv
libKF5WidgetsAddons.so.5:_ZN18KSqueezedTextLabel7setTextERK7QString
libKF5WidgetsAddons.so.5:_ZN18KSqueezedTextLabelC1EP7QWidget
libKF5WidgetsAddons.so.5:_ZN8KGuiItem6assignEP11QPushButtonRKS_
libKF5WidgetsAddons.so.5:_ZN8KGuiItemC1ERK7QStringS2_S2_S2_
libKF5WidgetsAddons.so.5:_ZN8KGuiItemD1Ev
libKF5WidgetsAddons.so.5:_ZNK8KGuiItem4textEv
libKF5XmlGui.so.5:_ZN11KMainWindow10closeEventEP11QCloseEvent
libKF5XmlGui.so.5:_ZN11KMainWindow10queryCloseEv
libKF5XmlGui.so.5:_ZN11KMainWindow10setCaptionERK7QString
libKF5XmlGui.so.5:_ZN11KMainWindow10setCaptionERK7QStringb
libKF5XmlGui.so.5:_ZN11KMainWindow15setPlainCaptionERK7QString
libKF5XmlGui.so.5:_ZN11KMainWindow16staticMetaObjectE
libKF5XmlGui.so.5:_ZN11KMainWindow20readGlobalPropertiesEP7KConfig
libKF5XmlGui.so.5:_ZN11KMainWindow20saveGlobalPropertiesEP7KConfig
libKF5XmlGui.so.5:_ZN13KXMLGUIClient10setXMLFileERK7QStringbb
libKF5XmlGui.so.5:_ZN13KXMLGUIClient12stateChangedERK7QStringNS_18ReverseStateChangeE
libKF5XmlGui.so.5:_ZN13KXMLGUIClient12virtual_hookEiPv
libKF5XmlGui.so.5:_ZN13KXMLGUIClient14setDOMDocumentERK12QDomDocumentb
libKF5XmlGui.so.5:_ZN13KXMLGUIClient15setLocalXMLFileERK7QString
libKF5XmlGui.so.5:_ZN13KXMLGUIClient16setComponentNameERK7QStringS2_
libKF5XmlGui.so.5:_ZN13KXMLGUIClient17insertChildClientEPS_
libKF5XmlGui.so.5:_ZN13KXMLGUIClient21findMostRecentXMLFileERK11QStringListR7QString
libKF5XmlGui.so.5:_ZN13KXMLGUIClient24standardsXmlFileLocationEv
libKF5XmlGui.so.5:_ZN13KXMLGUIClient6setXMLERK7QStringb
libKF5XmlGui.so.5:_ZN13KXMLGUIClientC2Ev
libKF5XmlGui.so.5:_ZN13KXMLGUIClientD2Ev
libKF5XmlGui.so.5:_ZN13KXmlGuiWindow10guiFactoryEv
libKF5XmlGui.so.5:_ZN13KXmlGuiWindow11finalizeGUIEP13KXMLGUIClient
libKF5XmlGui.so.5:_ZN13KXmlGuiWindow11qt_metacallEN11QMetaObject4CallEiPPv
libKF5XmlGui.so.5:_ZN13KXmlGuiWindow11qt_metacastEPKc
libKF5XmlGui.so.5:_ZN13KXmlGuiWindow16slotStateChangedERK7QString
libKF5XmlGui.so.5:_ZN13KXmlGuiWindow16staticMetaObjectE
libKF5XmlGui.so.5:_ZN13KXmlGuiWindow17configureToolbarsEv
libKF5XmlGui.so.5:_ZN13KXmlGuiWindow20saveNewToolbarConfigEv
libKF5XmlGui.so.5:_ZN13KXmlGuiWindow23applyMainWindowSettingsERK12KConfigGroup
libKF5XmlGui.so.5:_ZN13KXmlGuiWindow23checkAmbiguousShortcutsEv
libKF5XmlGui.so.5:_ZN13KXmlGuiWindow5eventEP6QEvent
libKF5XmlGui.so.5:_ZN13KXmlGuiWindowC2EP7QWidget6QFlagsIN2Qt10WindowTypeEE
libKF5XmlGui.so.5:_ZN13KXmlGuiWindowD2Ev
libKF5XmlGui.so.5:_ZN14KXMLGUIBuilder12virtual_hookEiPv
libKF5XmlGui.so.5:_ZN14KXMLGUIBuilder15createContainerEP7QWidgetiRK11QDomElementRP7QAction
libKF5XmlGui.so.5:_ZN14KXMLGUIBuilder15removeContainerEP7QWidgetS1_R11QDomElementP7QAction
libKF5XmlGui.so.5:_ZN14KXMLGUIBuilder19createCustomElementEP7QWidgetiRK11QDomElement
libKF5XmlGui.so.5:_ZN14KXMLGUIBuilder19removeCustomElementEP7QWidgetP7QAction
libKF5XmlGui.so.5:_ZN14KXMLGUIFactory12removeClientEP13KXMLGUIClient
libKF5XmlGui.so.5:_ZN14KXMLGUIFactory9addClientEP13KXMLGUIClient
libKF5XmlGui.so.5:_ZN14KXMLGUIFactory9containerERK7QStringP13KXMLGUIClientb
libKF5XmlGui.so.5:_ZN17KActionCollection9addActionERK7QStringP7QAction
libKF5XmlGui.so.5:_ZN9KHelpMenuC1EP7QWidgetRK10KAboutDatab
libKF5XmlGui.so.5:_ZNK13KXMLGUIClient11domDocumentEv
libKF5XmlGui.so.5:_ZNK13KXMLGUIClient12localXMLFileEv
libKF5XmlGui.so.5:_ZNK13KXMLGUIClient13componentNameEv
libKF5XmlGui.so.5:_ZNK13KXMLGUIClient16actionCollectionEv
libKF5XmlGui.so.5:_ZNK13KXMLGUIClient6actionERK11QDomElement
libKF5XmlGui.so.5:_ZNK13KXMLGUIClient7factoryEv
libKF5XmlGui.so.5:_ZNK13KXMLGUIClient7xmlFileEv
libKF5XmlGui.so.5:_ZNK13KXmlGuiWindow10metaObjectEv
libKF5XmlGui.so.5:_ZNK13KXmlGuiWindow17isHelpMenuEnabledEv
libKF5XmlGui.so.5:_ZNK14KXMLGUIBuilder10customTagsEv
libKF5XmlGui.so.5:_ZNK14KXMLGUIBuilder13containerTagsEv
libKF5XmlGui.so.5:_ZNK9KHelpMenu6actionENS_6MenuIdE
libKF5XmlGui.so.5:_ZTI13KXMLGUIClient
libKF5XmlGui.so.5:_ZTI13KXmlGuiWindow
libKF5XmlGui.so.5:_ZThn56_N13KXmlGuiWindow11finalizeGUIEP13KXMLGUIClient
libQt5Core.so.5:_Z20qt_qFindChild_helperPK7QObjectRK7QStringRK11QMetaObject6QFlagsIN2Qt15FindChildOptionEE
libQt5Core.so.5:_Z23qt_qFindChildren_helperPK7QObjectRK7QStringRK11QMetaObjectP5QListIPvE6QFlagsIN2Qt15FindChildOptionEE
libQt5Core.so.5:_Z26qt_QMetaEnum_debugOperatorR6QDebugiPK11QMetaObjectPKc
libQt5Core.so.5:_Z5qHashRK7QStringj
libQt5Core.so.5:_Z7qstrcmpRK10QByteArrayS1_
libQt5Core.so.5:_ZN10QArrayData10deallocateEPS_mm
libQt5Core.so.5:_ZN10QArrayData11shared_nullE
libQt5Core.so.5:_ZN10QArrayData8allocateEmmm6QFlagsINS_16AllocationOptionEE
libQt5Core.so.5:_ZN10QByteArray11reallocDataEj6QFlagsIN10QArrayData16AllocationOptionEE
libQt5Core.so.5:_ZN10QByteArray6appendEPKc
libQt5Core.so.5:_ZN10QByteArray6appendEPKci
libQt5Core.so.5:_ZN10QByteArray6appendEc
libQt5Core.so.5:_ZN10QByteArray6resizeEi
libQt5Core.so.5:_ZN10QByteArrayC1EPKci
libQt5Core.so.5:_ZN10QByteArrayC1EiN2Qt14InitializationE
libQt5Core.so.5:_ZN10QByteArrayaSERKS_
libQt5Core.so.5:_ZN10QEventLoop4execE6QFlagsINS_17ProcessEventsFlagEE
libQt5Core.so.5:_ZN10QEventLoop4quitEv
libQt5Core.so.5:_ZN10QEventLoopC1EP7QObject
libQt5Core.so.5:_ZN10QEventLoopD1Ev
libQt5Core.so.5:_ZN10QJsonArray6appendERK10QJsonValue
libQt5Core.so.5:_ZN10QJsonArrayC1Ev
libQt5Core.so.5:_ZN10QJsonArrayD1Ev
libQt5Core.so.5:_ZN10QJsonValueC1ERK10QJsonArray
libQt5Core.so.5:_ZN10QJsonValueC1ERK11QJsonObject
libQt5Core.so.5:_ZN10QJsonValueC1ERK7QString
libQt5Core.so.5:_ZN10QJsonValueD1Ev
libQt5Core.so.5:_ZN11QDataStreamlsEi
libQt5Core.so.5:_ZN11QDataStreamrsERi
libQt5Core.so.5:_ZN11QJsonObjectC1Ev
libQt5Core.so.5:_ZN11QJsonObjectD1Ev
libQt5Core.so.5:_ZN11QJsonObjectixERK7QString
libQt5Core.so.5:_ZN11QMetaObject10ConnectionD1Ev
libQt5Core.so.5:_ZN11QMetaObject12invokeMethodEP7QObjectPKcN2Qt14ConnectionTypeE22QGenericReturnArgument16QGenericArgumentS7_S7_S7_S7_S7_S7_S7_S7_S7_
libQt5Core.so.5:_ZN11QMetaObject14normalizedTypeEPKc
libQt5Core.so.5:_ZN11QMetaObject8activateEP7QObjectPKS_iPPv
libQt5Core.so.5:_ZN11QTextStreamlsEPKc
libQt5Core.so.5:_ZN11QTextStreamlsERK7QString
libQt5Core.so.5:_ZN11QTextStreamlsEc
libQt5Core.so.5:_ZN11QTextStreamlsEs
libQt5Core.so.5:_ZN12QMapDataBase10createDataEv
libQt5Core.so.5:_ZN12QMapDataBase10createNodeEiiP12QMapNodeBaseb
libQt5Core.so.5:_ZN12QMapDataBase11shared_nullE
libQt5Core.so.5:_ZN12QMapDataBase18recalcMostLeftNodeEv
libQt5Core.so.5:_ZN12QMapDataBase20freeNodeAndRebalanceEP12QMapNodeBase
libQt5Core.so.5:_ZN12QMapDataBase8freeDataEPS_
libQt5Core.so.5:_ZN12QMapDataBase8freeTreeEP12QMapNodeBasei
libQt5Core.so.5:_ZN13QJsonValueRefaSERK10QJsonValue
libQt5Core.so.5:_ZN13QMimeDatabaseC1Ev
libQt5Core.so.5:_ZN13QMimeDatabaseD1Ev
libQt5Core.so.5:_ZN14QStandardPaths14findExecutableERK7QStringRK11QStringList
libQt5Core.so.5:_ZN14QStandardPaths16writableLocationENS_16StandardLocationE
libQt5Core.so.5:_ZN14QStandardPaths6locateENS_16StandardLocationERK7QString6QFlagsINS_12LocateOptionEE
libQt5Core.so.5:_ZN14QStandardPaths9locateAllENS_16StandardLocationERK7QString6QFlagsINS_12LocateOptionEE
libQt5Core.so.5:_ZN14QTemporaryFile13setAutoRemoveEb
libQt5Core.so.5:_ZN14QTemporaryFileC1ERK7QString
libQt5Core.so.5:_ZN14QTemporaryFileC1Ev
libQt5Core.so.5:_ZN14QTemporaryFileD1Ev
libQt5Core.so.5:_ZN15QtSharedPointer20ExternalRefCountData9getAndRefEPK7QObject
libQt5Core.so.5:_ZN16QCoreApplication15applicationNameEv
libQt5Core.so.5:_ZN16QCoreApplication4selfE
libQt5Core.so.5:_ZN16QCoreApplication9sendEventEP7QObjectP6QEvent
libQt5Core.so.5:_ZN16QLoggingCategoryC1EPKc9QtMsgType
libQt5Core.so.5:_ZN16QLoggingCategoryD1Ev
libQt5Core.so.5:_ZN18QRegularExpressionC1ERK7QString6QFlagsINS_13PatternOptionEE
libQt5Core.so.5:_ZN18QRegularExpressionD1Ev
libQt5Core.so.5:_ZN21QAbstractConcatenable14appendLatin1ToEPKciP5QChar
libQt5Core.so.5:_ZN4QDir14isRelativePathERK7QString
libQt5Core.so.5:_ZN4QDir8tempPathEv
libQt5Core.so.5:_ZN4QDirC1ERK7QString
libQt5Core.so.5:_ZN4QDirD1Ev
libQt5Core.so.5:_ZN4QUrl11setFragmentERK7QStringNS_11ParsingModeE
libQt5Core.so.5:_ZN4QUrl11setPasswordERK7QStringNS_11ParsingModeE
libQt5Core.so.5:_ZN4QUrl13fromLocalFileERK7QString
libQt5Core.so.5:_ZN4QUrl17toPercentEncodingERK7QStringRK10QByteArrayS5_
libQt5Core.so.5:_ZN4QUrlC1ERK7QStringNS_11ParsingModeE
libQt5Core.so.5:_ZN4QUrlC1ERKS_
libQt5Core.so.5:_ZN4QUrlC1Ev
libQt5Core.so.5:_ZN4QUrlD1Ev
libQt5Core.so.5:_ZN4QUrlaSERKS_
libQt5Core.so.5:_ZN5QFile6existsERK7QString
libQt5Core.so.5:_ZN5QFile6removeERK7QString
libQt5Core.so.5:_ZN6QDebug9putStringEPK5QCharm
libQt5Core.so.5:_ZN6QDebugD1Ev
libQt5Core.so.5:_ZN6QEvent16staticMetaObjectE
libQt5Core.so.5:_ZN6QEventC2ENS_4TypeE
libQt5Core.so.5:_ZN6QEventD2Ev
libQt5Core.so.5:_ZN6QTimer14singleShotImplEiN2Qt9TimerTypeEPK7QObjectPN9QtPrivate15QSlotObjectBaseE
libQt5Core.so.5:_ZN7QObject10childEventEP11QChildEvent
libQt5Core.so.5:_ZN7QObject10timerEventEP11QTimerEvent
libQt5Core.so.5:_ZN7QObject11connectImplEPKS_PPvS1_S3_PN9QtPrivate15QSlotObjectBaseEN2Qt14ConnectionTypeEPKiPK11QMetaObject
libQt5Core.so.5:_ZN7QObject11customEventEP6QEvent
libQt5Core.so.5:_ZN7QObject11deleteLaterEv
libQt5Core.so.5:_ZN7QObject11eventFilterEPS_P6QEvent
libQt5Core.so.5:_ZN7QObject11qt_metacallEN11QMetaObject4CallEiPPv
libQt5Core.so.5:_ZN7QObject11qt_metacastEPKc
libQt5Core.so.5:_ZN7QObject13connectNotifyERK11QMetaMethod
libQt5Core.so.5:_ZN7QObject13setObjectNameERK7QString
libQt5Core.so.5:_ZN7QObject14disconnectImplEPKS_PPvS1_S3_PK11QMetaObject
libQt5Core.so.5:_ZN7QObject16disconnectNotifyERK11QMetaMethod
libQt5Core.so.5:_ZN7QObject16staticMetaObjectE
libQt5Core.so.5:_ZN7QObject17removeEventFilterEPS_
libQt5Core.so.5:_ZN7QObject18installEventFilterEPS_
libQt5Core.so.5:_ZN7QObject18staticQtMetaObjectE
libQt5Core.so.5:_ZN7QObject5eventEP6QEvent
libQt5Core.so.5:_ZN7QObject9destroyedEPS_
libQt5Core.so.5:_ZN7QObjectC2EPS_
libQt5Core.so.5:_ZN7QObjectD2Ev
libQt5Core.so.5:_ZN7QString11reallocDataEjb
libQt5Core.so.5:_ZN7QString13toUtf8_helperERKS_
libQt5Core.so.5:_ZN7QString14toLower_helperERKS_
libQt5Core.so.5:_ZN7QString14toLower_helperERS_
libQt5Core.so.5:_ZN7QString14trimmed_helperERS_
libQt5Core.so.5:_ZN7QString15fromUtf8_helperEPKci
libQt5Core.so.5:_ZN7QString17fromLatin1_helperEPKci
libQt5Core.so.5:_ZN7QString18toLocal8Bit_helperEPK5QChari
libQt5Core.so.5:_ZN7QString6appendE13QLatin1String
libQt5Core.so.5:_ZN7QString6appendERKS_
libQt5Core.so.5:_ZN7QString6resizeEi
libQt5Core.so.5:_ZN7QString7replaceE5QChar13QLatin1StringN2Qt15CaseSensitivityE
libQt5Core.so.5:_ZN7QString7replaceERK18QRegularExpressionRKS_
libQt5Core.so.5:_ZN7QString8truncateEi
libQt5Core.so.5:_ZN7QStringC1EiN2Qt14InitializationE
libQt5Core.so.5:_ZN7QStringaSERKS_
libQt5Core.so.5:_ZN8QVariantC1ERK7QString
libQt5Core.so.5:_ZN8QVariantC1ERKS_
libQt5Core.so.5:_ZN8QVariantC1Eb
libQt5Core.so.5:_ZN8QVariantC1Ed
libQt5Core.so.5:_ZN8QVariantC1EiPKvj
libQt5Core.so.5:_ZN8QVariantD1Ev
libQt5Core.so.5:_ZN9QDateTime10fromStringERK7QStringN2Qt10DateFormatE
libQt5Core.so.5:_ZN9QDateTimeD1Ev
libQt5Core.so.5:_ZN9QFileInfoC1ERK7QString
libQt5Core.so.5:_ZN9QFileInfoD1Ev
libQt5Core.so.5:_ZN9QHashData11free_helperEPFvPNS_4NodeEE
libQt5Core.so.5:_ZN9QHashData11shared_nullE
libQt5Core.so.5:_ZN9QHashData12allocateNodeEi
libQt5Core.so.5:_ZN9QHashData13detach_helperEPFvPNS_4NodeEPvEPFvS1_Eii
libQt5Core.so.5:_ZN9QHashData6rehashEi
libQt5Core.so.5:_ZN9QHashData8freeNodeEPv
libQt5Core.so.5:_ZN9QHashData8nextNodeEPNS_4NodeE
libQt5Core.so.5:_ZN9QListData11detach_growEPii
libQt5Core.so.5:_ZN9QListData11shared_nullE
libQt5Core.so.5:_ZN9QListData5eraseEPPv
libQt5Core.so.5:_ZN9QListData6appendEv
libQt5Core.so.5:_ZN9QListData6detachEi
libQt5Core.so.5:_ZN9QListData7disposeEPNS_4DataE
libQt5Core.so.5:_ZN9QListData7reallocEi
libQt5Core.so.5:_ZN9QMetaType22registerNormalizedTypeERK10QByteArrayPFvPvEPFS3_S3_PKvEi6QFlagsINS_8TypeFlagEEPK11QMetaObject
libQt5Core.so.5:_ZN9QMetaType25registerConverterFunctionEPKN9QtPrivate25AbstractConverterFunctionEii
libQt5Core.so.5:_ZN9QMetaType27unregisterConverterFunctionEii
libQt5Core.so.5:_ZN9QMetaType30hasRegisteredConverterFunctionEii
libQt5Core.so.5:_ZN9QMetaType8typeNameEi
libQt5Core.so.5:_ZN9QMimeTypeC1Ev
libQt5Core.so.5:_ZN9QMimeTypeD1Ev
libQt5Core.so.5:_ZNK10QByteArray6isNullEv
libQt5Core.so.5:_ZNK10QByteArray8endsWithEc
libQt5Core.so.5:_ZNK11QMetaObject13indexOfMethodEPKc
libQt5Core.so.5:_ZNK11QMetaObject4castEP7QObject
libQt5Core.so.5:_ZNK11QMetaObject9classNameEv
libQt5Core.so.5:_ZNK11QObjectData17dynamicMetaObjectEv
libQt5Core.so.5:_ZNK12QMapNodeBase8nextNodeEv
libQt5Core.so.5:_ZNK13QMimeDatabase14mimeTypeForUrlERK4QUrl
libQt5Core.so.5:_ZNK13QMimeDatabase15mimeTypeForFileERK7QStringNS_9MatchModeE
libQt5Core.so.5:_ZNK13QMimeDatabase15mimeTypeForNameERK7QString
libQt5Core.so.5:_ZNK14QMessageLogger5debugEv
libQt5Core.so.5:_ZNK14QMessageLogger5fatalEPKcz
libQt5Core.so.5:_ZNK14QMessageLogger7warningEv
libQt5Core.so.5:_ZNK14QMessageLogger8criticalEv
libQt5Core.so.5:_ZNK14QTemporaryFile8fileNameEv
libQt5Core.so.5:_ZNK4QDir9entryListERK11QStringList6QFlagsINS_6FilterEES3_INS_8SortFlagEE
libQt5Core.so.5:_ZNK4QUrl11isLocalFileEv
libQt5Core.so.5:_ZNK4QUrl11toLocalFileEv
libQt5Core.so.5:_ZNK4QUrl15toDisplayStringE12QUrlTwoFlagsINS_19UrlFormattingOptionENS_25ComponentFormattingOptionEE
libQt5Core.so.5:_ZNK4QUrl4hostE6QFlagsINS_25ComponentFormattingOptionEE
libQt5Core.so.5:_ZNK4QUrl4pathE6QFlagsINS_25ComponentFormattingOptionEE
libQt5Core.so.5:_ZNK4QUrl6schemeEv
libQt5Core.so.5:_ZNK4QUrl7isEmptyEv
libQt5Core.so.5:_ZNK4QUrl7isValidEv
libQt5Core.so.5:_ZNK4QUrl8adjustedE12QUrlTwoFlagsINS_19UrlFormattingOptionENS_25ComponentFormattingOptionEE
libQt5Core.so.5:_ZNK4QUrl8fileNameE6QFlagsINS_25ComponentFormattingOptionEE
libQt5Core.so.5:_ZNK4QUrl8hasQueryEv
libQt5Core.so.5:_ZNK4QUrl8toStringE12QUrlTwoFlagsINS_19UrlFormattingOptionENS_25ComponentFormattingOptionEE
libQt5Core.so.5:_ZNK4QUrlneERKS_
libQt5Core.so.5:_ZNK7QObject10objectNameEv
libQt5Core.so.5:_ZNK7QObject6senderEv
libQt5Core.so.5:_ZNK7QString10startsWithE13QLatin1StringN2Qt15CaseSensitivityE
libQt5Core.so.5:_ZNK7QString11lastIndexOfE5QChariN2Qt15CaseSensitivityE
libQt5Core.so.5:_ZNK7QString13toHtmlEscapedEv
libQt5Core.so.5:_ZNK7QString3argERKS_i5QChar
libQt5Core.so.5:_ZNK7QString3argExii5QChar
libQt5Core.so.5:_ZNK7QString3midEii
libQt5Core.so.5:_ZNK7QString4leftEi
libQt5Core.so.5:_ZNK7QString5toIntEPbi
libQt5Core.so.5:_ZNK7QString7compareE13QLatin1StringN2Qt15CaseSensitivityE
libQt5Core.so.5:_ZNK7QString7indexOfE5QChariN2Qt15CaseSensitivityE
libQt5Core.so.5:_ZNK7QString7indexOfERKS_iN2Qt15CaseSensitivityE
libQt5Core.so.5:_ZNK7QString8endsWithE5QCharN2Qt15CaseSensitivityE
libQt5Core.so.5:_ZNK7QString8toDoubleEPb
libQt5Core.so.5:_ZNK7QStringeqE13QLatin1String
libQt5Core.so.5:_ZNK8QVariant10canConvertEi
libQt5Core.so.5:_ZNK8QVariant12toStringListEv
libQt5Core.so.5:_ZNK8QVariant4typeEv
libQt5Core.so.5:_ZNK8QVariant5toIntEPb
libQt5Core.so.5:_ZNK8QVariant6toBoolEv
libQt5Core.so.5:_ZNK8QVariant6toUIntEPb
libQt5Core.so.5:_ZNK8QVariant7convertEiPv
libQt5Core.so.5:_ZNK8QVariant8toStringEv
libQt5Core.so.5:_ZNK8QVariant8userTypeEv
libQt5Core.so.5:_ZNK8QVariant9constDataEv
libQt5Core.so.5:_ZNK9QFileInfo14completeSuffixEv
libQt5Core.so.5:_ZNK9QFileInfo16absoluteFilePathEv
libQt5Core.so.5:_ZNK9QFileInfo8fileNameEv
libQt5Core.so.5:_ZNK9QMimeType12allAncestorsEv
libQt5Core.so.5:_ZNK9QMimeType4nameEv
libQt5Core.so.5:_ZNK9QMimeType7commentEv
libQt5Core.so.5:_ZNK9QMimeType7isValidEv
libQt5Core.so.5:_ZNK9QMimeType8inheritsERK7QString
libQt5Core.so.5:_ZNK9QMimeType9isDefaultEv
libQt5Core.so.5:_ZTI6QEvent
libQt5Core.so.5:_ZTI7QObject
libQt5Core.so.5:_ZeqRK7QStringS1_
libQt5Core.so.5:_Zls6QDebugPK7QObject
libQt5Core.so.5:_Zls6QDebugRK4QUrl
libQt5Core.so.5:_ZlsR11QDataStreamRK4QUrl
libQt5Core.so.5:_ZltRK7QStringS1_
libQt5Core.so.5:_ZrsR11QDataStreamR4QUrl
libQt5Core.so.5:qt_version_tag
libQt5Gui.so.5:_ZN15QGuiApplication9clipboardEv
libQt5Gui.so.5:_ZN5QIcon9fromThemeERK7QString
libQt5Gui.so.5:_ZN5QIconD1Ev
libQt5Gui.so.5:_ZN7QPixmapD1Ev
libQt5Gui.so.5:_ZNK10QClipboard4textER7QStringNS_4ModeE
libQt5Gui.so.5:_ZNK11QFocusEvent6reasonEv
libQt5Gui.so.5:_ZNK5QIcon6pixmapERK5QSizeNS_4ModeENS_5StateE
libQt5Widgets.so.5:_ZN10QBoxLayout10addSpacingEi
libQt5Widgets.so.5:_ZN10QBoxLayout10addStretchEi
libQt5Widgets.so.5:_ZN10QBoxLayout10setSpacingEi
libQt5Widgets.so.5:_ZN10QBoxLayout9addLayoutEP7QLayouti
libQt5Widgets.so.5:_ZN10QBoxLayout9addWidgetEP7QWidgeti6QFlagsIN2Qt13AlignmentFlagEE
libQt5Widgets.so.5:_ZN10QScrollBar16staticMetaObjectE
libQt5Widgets.so.5:_ZN10QStatusBar11showMessageERK7QStringi
libQt5Widgets.so.5:_ZN10QStatusBar12removeWidgetEP7QWidget
libQt5Widgets.so.5:_ZN10QStatusBar18addPermanentWidgetEP7QWidgeti
libQt5Widgets.so.5:_ZN10QStatusBar9addWidgetEP7QWidgeti
libQt5Widgets.so.5:_ZN11QFileDialog10selectFileERK7QString
libQt5Widgets.so.5:_ZN11QFileDialog13setAcceptModeENS_10AcceptModeE
libQt5Widgets.so.5:_ZN11QFileDialog14getSaveFileUrlEP7QWidgetRK7QStringRK4QUrlS4_PS2_6QFlagsINS_6OptionEERK11QStringList
libQt5Widgets.so.5:_ZN11QFileDialog9setOptionENS_6OptionEb
libQt5Widgets.so.5:_ZN11QFileDialogC1EP7QWidgetRK7QStringS4_S4_
libQt5Widgets.so.5:_ZN11QHBoxLayoutC1Ev
libQt5Widgets.so.5:_ZN11QMainWindow15createPopupMenuEv
libQt5Widgets.so.5:_ZN11QMainWindow16contextMenuEventEP17QContextMenuEvent
libQt5Widgets.so.5:_ZN11QPushButton10setDefaultEb
libQt5Widgets.so.5:_ZN11QPushButton7setMenuEP5QMenu
libQt5Widgets.so.5:_ZN11QPushButtonC1EP7QWidget
libQt5Widgets.so.5:_ZN11QVBoxLayoutC1EP7QWidget
libQt5Widgets.so.5:_ZN11QVBoxLayoutC1Ev
libQt5Widgets.so.5:_ZN12QApplication12activeWindowEv
libQt5Widgets.so.5:_ZN12QStyleOption4initEPK7QWidget
libQt5Widgets.so.5:_ZN12QStyleOptionC1Eii
libQt5Widgets.so.5:_ZN12QStyleOptionD1Ev
libQt5Widgets.so.5:_ZN15QAbstractButton16staticMetaObjectE
libQt5Widgets.so.5:_ZN15QAbstractButton7clickedEb
libQt5Widgets.so.5:_ZN15QAbstractButton7setTextERK7QString
libQt5Widgets.so.5:_ZN16QDialogButtonBox16staticMetaObjectE
libQt5Widgets.so.5:_ZN16QDialogButtonBox8rejectedEv
libQt5Widgets.so.5:_ZN16QDialogButtonBox9addButtonENS_14StandardButtonE
libQt5Widgets.so.5:_ZN16QDialogButtonBox9addButtonEP15QAbstractButtonNS_10ButtonRoleE
libQt5Widgets.so.5:_ZN16QDialogButtonBoxC1EP7QWidget
libQt5Widgets.so.5:_ZN5QMenu16staticMetaObjectE
libQt5Widgets.so.5:_ZN5QMenu9triggeredEP7QAction
libQt5Widgets.so.5:_ZN5QMenuC1EP7QWidget
libQt5Widgets.so.5:_ZN6QLabel23setTextInteractionFlagsE6QFlagsIN2Qt19TextInteractionFlagEE
libQt5Widgets.so.5:_ZN6QLabel7setTextERK7QString
libQt5Widgets.so.5:_ZN6QLabel9setPixmapERK7QPixmap
libQt5Widgets.so.5:_ZN6QLabelC1EP7QWidget6QFlagsIN2Qt10WindowTypeEE
libQt5Widgets.so.5:_ZN7QAction16staticMetaObjectE
libQt5Widgets.so.5:_ZN7QAction7setDataERK8QVariant
libQt5Widgets.so.5:_ZN7QAction7setIconERK5QIcon
libQt5Widgets.so.5:_ZN7QAction7setTextERK7QString
libQt5Widgets.so.5:_ZN7QActionC1EP7QObject
libQt5Widgets.so.5:_ZN7QDialog10closeEventEP11QCloseEvent
libQt5Widgets.so.5:_ZN7QDialog10setVisibleEb
libQt5Widgets.so.5:_ZN7QDialog11eventFilterEP7QObjectP6QEvent
libQt5Widgets.so.5:_ZN7QDialog11qt_metacallEN11QMetaObject4CallEiPPv
libQt5Widgets.so.5:_ZN7QDialog11qt_metacastEPKc
libQt5Widgets.so.5:_ZN7QDialog11resizeEventEP12QResizeEvent
libQt5Widgets.so.5:_ZN7QDialog13keyPressEventEP9QKeyEvent
libQt5Widgets.so.5:_ZN7QDialog16contextMenuEventEP17QContextMenuEvent
libQt5Widgets.so.5:_ZN7QDialog16staticMetaObjectE
libQt5Widgets.so.5:_ZN7QDialog4doneEi
libQt5Widgets.so.5:_ZN7QDialog4execEv
libQt5Widgets.so.5:_ZN7QDialog4openEv
libQt5Widgets.so.5:_ZN7QDialog6acceptEv
libQt5Widgets.so.5:_ZN7QDialog6rejectEv
libQt5Widgets.so.5:_ZN7QDialog8acceptedEv
libQt5Widgets.so.5:_ZN7QDialog9showEventEP10QShowEvent
libQt5Widgets.so.5:_ZN7QDialogC2EP7QWidget6QFlagsIN2Qt10WindowTypeEE
libQt5Widgets.so.5:_ZN7QDialogD2Ev
libQt5Widgets.so.5:_ZN7QWidget10enterEventEP6QEvent
libQt5Widgets.so.5:_ZN7QWidget10leaveEventEP6QEvent
libQt5Widgets.so.5:_ZN7QWidget10paintEventEP11QPaintEvent
libQt5Widgets.so.5:_ZN7QWidget10setVisibleEb
libQt5Widgets.so.5:_ZN7QWidget10wheelEventEP11QWheelEvent
libQt5Widgets.so.5:_ZN7QWidget11actionEventEP12QActionEvent
libQt5Widgets.so.5:_ZN7QWidget11changeEventEP6QEvent
libQt5Widgets.so.5:_ZN7QWidget11nativeEventERK10QByteArrayPvPl
libQt5Widgets.so.5:_ZN7QWidget11resizeEventEP12QResizeEvent
libQt5Widgets.so.5:_ZN7QWidget11setGeometryERK5QRect
libQt5Widgets.so.5:_ZN7QWidget11tabletEventEP12QTabletEvent
libQt5Widgets.so.5:_ZN7QWidget12focusInEventEP11QFocusEvent
libQt5Widgets.so.5:_ZN7QWidget12setAttributeEN2Qt15WidgetAttributeEb
libQt5Widgets.so.5:_ZN7QWidget12setWhatsThisERK7QString
libQt5Widgets.so.5:_ZN7QWidget13dragMoveEventEP14QDragMoveEvent
libQt5Widgets.so.5:_ZN7QWidget13focusOutEventEP11QFocusEvent
libQt5Widgets.so.5:_ZN7QWidget13keyPressEventEP9QKeyEvent
libQt5Widgets.so.5:_ZN7QWidget14dragEnterEventEP15QDragEnterEvent
libQt5Widgets.so.5:_ZN7QWidget14dragLeaveEventEP15QDragLeaveEvent
libQt5Widgets.so.5:_ZN7QWidget14mouseMoveEventEP11QMouseEvent
libQt5Widgets.so.5:_ZN7QWidget14setWindowTitleERK7QString
libQt5Widgets.so.5:_ZN7QWidget15keyReleaseEventEP9QKeyEvent
libQt5Widgets.so.5:_ZN7QWidget15mousePressEventEP11QMouseEvent
libQt5Widgets.so.5:_ZN7QWidget16inputMethodEventEP17QInputMethodEvent
libQt5Widgets.so.5:_ZN7QWidget17mouseReleaseEventEP11QMouseEvent
libQt5Widgets.so.5:_ZN7QWidget18focusNextPrevChildEb
libQt5Widgets.so.5:_ZN7QWidget21mouseDoubleClickEventEP11QMouseEvent
libQt5Widgets.so.5:_ZN7QWidget4hideEv
libQt5Widgets.so.5:_ZN7QWidget4showEv
libQt5Widgets.so.5:_ZN7QWidget5eventEP6QEvent
libQt5Widgets.so.5:_ZN7QWidget8setFocusEN2Qt11FocusReasonE
libQt5Widgets.so.5:_ZN7QWidget9addActionEP7QAction
libQt5Widgets.so.5:_ZN7QWidget9dropEventEP10QDropEvent
libQt5Widgets.so.5:_ZN7QWidget9hideEventEP10QHideEvent
libQt5Widgets.so.5:_ZN7QWidget9moveEventEP10QMoveEvent
libQt5Widgets.so.5:_ZN7QWidget9setParentEPS_6QFlagsIN2Qt10WindowTypeEE
libQt5Widgets.so.5:_ZN7QWidget9showEventEP10QShowEvent
libQt5Widgets.so.5:_ZN9QCheckBoxC1EP7QWidget
libQt5Widgets.so.5:_ZNK11QFileDialog12selectedUrlsEv
libQt5Widgets.so.5:_ZNK11QMainWindow9statusBarEv
libQt5Widgets.so.5:_ZNK11QPushButton4menuEv
libQt5Widgets.so.5:_ZNK15QAbstractButton9isCheckedEv
libQt5Widgets.so.5:_ZNK7QAction4dataEv
libQt5Widgets.so.5:_ZNK7QDialog15minimumSizeHintEv
libQt5Widgets.so.5:_ZNK7QDialog8sizeHintEv
libQt5Widgets.so.5:_ZNK7QWidget10redirectedEP6QPoint
libQt5Widgets.so.5:_ZNK7QWidget11focusPolicyEv
libQt5Widgets.so.5:_ZNK7QWidget11initPainterEP8QPainter
libQt5Widgets.so.5:_ZNK7QWidget11paintEngineEv
libQt5Widgets.so.5:_ZNK7QWidget13sharedPainterEv
libQt5Widgets.so.5:_ZNK7QWidget14heightForWidthEi
libQt5Widgets.so.5:_ZNK7QWidget15minimumSizeHintEv
libQt5Widgets.so.5:_ZNK7QWidget16inputMethodQueryEN2Qt16InputMethodQueryE
libQt5Widgets.so.5:_ZNK7QWidget17hasHeightForWidthEv
libQt5Widgets.so.5:_ZNK7QWidget5styleEv
libQt5Widgets.so.5:_ZNK7QWidget6metricEN12QPaintDevice17PaintDeviceMetricE
libQt5Widgets.so.5:_ZNK7QWidget6windowEv
libQt5Widgets.so.5:_ZNK7QWidget7devTypeEv
libQt5Widgets.so.5:_ZNK7QWidget8sizeHintEv
libQt5Widgets.so.5:_ZTI7QDialog
libQt5Widgets.so.5:_ZThn16_NK7QWidget10redirectedEP6QPoint
libQt5Widgets.so.5:_ZThn16_NK7QWidget11initPainterEP8QPainter
libQt5Widgets.so.5:_ZThn16_NK7QWidget11paintEngineEv
libQt5Widgets.so.5:_ZThn16_NK7QWidget13sharedPainterEv
libQt5Widgets.so.5:_ZThn16_NK7QWidget6metricEN12QPaintDevice17PaintDeviceMetricE
libQt5Widgets.so.5:_ZThn16_NK7QWidget7devTypeEv
libQt5Widgets.so.5:_Zls6QDebugPK7QWidget
libQt5Xml.so.5:_ZN12QDomDocument10setContentERK7QStringPS0_PiS4_
libQt5Xml.so.5:_ZN12QDomDocumentC1ERKS_
libQt5Xml.so.5:_ZN12QDomDocumentC1Ev
libQt5Xml.so.5:_ZN12QDomDocumentD1Ev
libQt5Xml.so.5:_ZN8QDomNodeD2Ev
libQt5Xml.so.5:_ZNK11QDomElement9attributeERK7QStringS2_
libQt5Xml.so.5:_ZNK12QDomDocument15documentElementEv
libQt5Xml.so.5:_ZNK8QDomNode6isNullEv
libc.so.6:__cxa_atexit
libc.so.6:__stack_chk_fail
libc.so.6:link
libc.so.6:memcpy
libc.so.6:strcmp
libc.so.6:strlen
libstdc++.so.6:_ZTVN10__cxxabiv117__class_type_infoE
libstdc++.so.6:_ZTVN10__cxxabiv120__si_class_type_infoE
libstdc++.so.6:_ZTVN10__cxxabiv121__vmi_class_type_infoE
libstdc++.so.6:_ZdlPv
libstdc++.so.6:_ZdlPvm
libstdc++.so.6:_Znwm
libstdc++.so.6:__cxa_guard_acquire
libstdc++.so.6:__cxa_guard_release
