libscience.so.5:_ZN13IsotopeParser10charactersERK7QString
libscience.so.5:_ZN13IsotopeParser10endElementERK7QStringS2_S2_
libscience.so.5:_ZN13IsotopeParser11getIsotopesEv
libscience.so.5:_ZN13IsotopeParser12startElementERK7QStringS2_S2_RK14QXmlAttributes
libscience.so.5:_ZN13IsotopeParserC1Ev
libscience.so.5:_ZN13IsotopeParserC2Ev
libscience.so.5:_ZN13IsotopeParserD0Ev
libscience.so.5:_ZN13IsotopeParserD1Ev
libscience.so.5:_ZN13IsotopeParserD2Ev
libscience.so.5:_ZN14MoleculeParser10expandTermERK7QString
libscience.so.5:_ZN14MoleculeParser12getNextTokenEv
libscience.so.5:_ZN14MoleculeParser13expandFormulaERK7QString
libscience.so.5:_ZN14MoleculeParser13lookupElementERK7QString
libscience.so.5:_ZN14MoleculeParser16parseSubmoleculeEPdP15ElementCountMap
libscience.so.5:_ZN14MoleculeParser6weightERK7QStringPdP15ElementCountMap
libscience.so.5:_ZN14MoleculeParser9aliasListEv
libscience.so.5:_ZN14MoleculeParser9parseTermEPdP15ElementCountMap
libscience.so.5:_ZN14MoleculeParserC1ERK5QListIP7ElementE
libscience.so.5:_ZN14MoleculeParserC1ERK7QString
libscience.so.5:_ZN14MoleculeParserC2ERK5QListIP7ElementE
libscience.so.5:_ZN14MoleculeParserC2ERK7QString
libscience.so.5:_ZN14MoleculeParserD0Ev
libscience.so.5:_ZN14MoleculeParserD1Ev
libscience.so.5:_ZN14MoleculeParserD2Ev
libscience.so.5:_ZN14SpectrumParser10charactersERK7QString
libscience.so.5:_ZN14SpectrumParser10endElementERK7QStringS2_S2_
libscience.so.5:_ZN14SpectrumParser12getSpectrumsEv
libscience.so.5:_ZN14SpectrumParser12startElementERK7QStringS2_S2_RK14QXmlAttributes
libscience.so.5:_ZN14SpectrumParserC1Ev
libscience.so.5:_ZN14SpectrumParserC2Ev
libscience.so.5:_ZN14SpectrumParserD0Ev
libscience.so.5:_ZN14SpectrumParserD1Ev
libscience.so.5:_ZN14SpectrumParserD2Ev
libscience.so.5:_ZN15ElementCountMap3addEP7Elementi
libscience.so.5:_ZN15ElementCountMap3addERS_
libscience.so.5:_ZN15ElementCountMap6searchEP7Element
libscience.so.5:_ZN15ElementCountMap8elementsEv
libscience.so.5:_ZN15ElementCountMap8multiplyEi
libscience.so.5:_ZN15ElementCountMapC1Ev
libscience.so.5:_ZN15ElementCountMapC2Ev
libscience.so.5:_ZN15ElementCountMapD1Ev
libscience.so.5:_ZN15ElementCountMapD2Ev
libscience.so.5:_ZN16ElementSaxParser10charactersERK7QString
libscience.so.5:_ZN16ElementSaxParser10endElementERK7QStringS2_S2_
libscience.so.5:_ZN16ElementSaxParser11getElementsEv
libscience.so.5:_ZN16ElementSaxParser12startElementERK7QStringS2_S2_RK14QXmlAttributes
libscience.so.5:_ZN16ElementSaxParserC1Ev
libscience.so.5:_ZN16ElementSaxParserC2Ev
libscience.so.5:_ZN16ElementSaxParserD0Ev
libscience.so.5:_ZN16ElementSaxParserD1Ev
libscience.so.5:_ZN16ElementSaxParserD2Ev
libscience.so.5:_ZN18ChemicalDataObject13setErrorValueERK8QVariant
libscience.so.5:_ZN18ChemicalDataObject7setDataERK8QVariant
libscience.so.5:_ZN18ChemicalDataObject7setTypeENS_11BlueObeliskE
libscience.so.5:_ZN18ChemicalDataObject7setTypeEi
libscience.so.5:_ZN18ChemicalDataObject7setUnitEi
libscience.so.5:_ZN18ChemicalDataObjectC1ERK8QVariantNS_11BlueObeliskES2_
libscience.so.5:_ZN18ChemicalDataObjectC1ERKS_
libscience.so.5:_ZN18ChemicalDataObjectC1Ev
libscience.so.5:_ZN18ChemicalDataObjectC2ERK8QVariantNS_11BlueObeliskES2_
libscience.so.5:_ZN18ChemicalDataObjectC2ERKS_
libscience.so.5:_ZN18ChemicalDataObjectC2Ev
libscience.so.5:_ZN18ChemicalDataObjectD1Ev
libscience.so.5:_ZN18ChemicalDataObjectD2Ev
libscience.so.5:_ZN18ChemicalDataObjectaSERKS_
libscience.so.5:_ZN6Parser11getNextCharEv
libscience.so.5:_ZN6Parser12getNextTokenEv
libscience.so.5:_ZN6Parser14skipWhitespaceEv
libscience.so.5:_ZN6Parser16parseSimpleFloatEPd
libscience.so.5:_ZN6Parser5startERK7QString
libscience.so.5:_ZN6Parser8parseIntEPi
libscience.so.5:_ZN6ParserC1ERK7QString
libscience.so.5:_ZN6ParserC1Ev
libscience.so.5:_ZN6ParserC2ERK7QString
libscience.so.5:_ZN6ParserC2Ev
libscience.so.5:_ZN6ParserD0Ev
libscience.so.5:_ZN6ParserD1Ev
libscience.so.5:_ZN6ParserD2Ev
libscience.so.5:_ZN7Element7addDataERK18ChemicalDataObject
libscience.so.5:_ZN7Element7addDataERK8QVariantN18ChemicalDataObject11BlueObeliskE
libscience.so.5:_ZN7ElementC1Ev
libscience.so.5:_ZN7ElementC2Ev
libscience.so.5:_ZN7ElementD0Ev
libscience.so.5:_ZN7ElementD1Ev
libscience.so.5:_ZN7ElementD2Ev
libscience.so.5:_ZN7Isotope11setNucleonsEi
libscience.so.5:_ZN7Isotope18nucleonsAfterDecayENS_5DecayE
libscience.so.5:_ZN7Isotope7addDataERK18ChemicalDataObject
libscience.so.5:_ZN7IsotopeC1Ev
libscience.so.5:_ZN7IsotopeC2Ev
libscience.so.5:_ZN7IsotopeD1Ev
libscience.so.5:_ZN7IsotopeD2Ev
libscience.so.5:_ZN8Spectrum11wavelengthsEdd
libscience.so.5:_ZN8Spectrum17adjustIntensitiesEv
libscience.so.5:_ZN8Spectrum18adjustToWavelengthEdd
libscience.so.5:_ZN8Spectrum4peak16wavelengthToUnitEi
libscience.so.5:_ZN8Spectrum7maxPeakEi
libscience.so.5:_ZN8Spectrum7maxPeakEv
libscience.so.5:_ZN8Spectrum7minPeakEi
libscience.so.5:_ZN8Spectrum7minPeakEv
libscience.so.5:_ZN8SpectrumC1Ev
libscience.so.5:_ZN8SpectrumC2Ev
libscience.so.5:_ZN8SpectrumD1Ev
libscience.so.5:_ZN8SpectrumD2Ev
libscience.so.5:_ZN9pseTables12getTabletypeERK7QString
libscience.so.5:_ZN9pseTables12getTabletypeEi
libscience.so.5:_ZN9pseTables8instanceEv
libscience.so.5:_ZN9pseTablesC1Ev
libscience.so.5:_ZN9pseTablesC2Ev
libscience.so.5:_ZN9pseTablesD1Ev
libscience.so.5:_ZN9pseTablesD2Ev
libscience.so.5:_ZNK16ElementSaxParser4unitERK7QString
libscience.so.5:_ZNK18ChemicalDataObject10errorValueEv
libscience.so.5:_ZNK18ChemicalDataObject12unitAsStringEv
libscience.so.5:_ZNK18ChemicalDataObject13valueAsStringEv
libscience.so.5:_ZNK18ChemicalDataObject4typeEv
libscience.so.5:_ZNK18ChemicalDataObject4unitEv
libscience.so.5:_ZNK18ChemicalDataObject5valueEv
libscience.so.5:_ZNK18ChemicalDataObjecteqERK7QString
libscience.so.5:_ZNK18ChemicalDataObjecteqERKS_
libscience.so.5:_ZNK18ChemicalDataObjecteqEb
libscience.so.5:_ZNK18ChemicalDataObjecteqEd
libscience.so.5:_ZNK18ChemicalDataObjecteqEi
libscience.so.5:_ZNK18ChemicalDataObjectneERKS_
libscience.so.5:_ZNK7Element12dataAsStringEN18ChemicalDataObject11BlueObeliskE
libscience.so.5:_ZNK7Element12dataAsStringEN18ChemicalDataObject11BlueObeliskEi
libscience.so.5:_ZNK7Element13dataAsVariantEN18ChemicalDataObject11BlueObeliskE
libscience.so.5:_ZNK7Element13dataAsVariantEN18ChemicalDataObject11BlueObeliskEi
libscience.so.5:_ZNK7Element20dataAsStringWithUnitEN18ChemicalDataObject11BlueObeliskEi
libscience.so.5:_ZNK7Isotope10alphadecayEv
libscience.so.5:_ZNK7Isotope10twoecdecayEv
libscience.so.5:_ZNK7Isotope11errorMarginEv
libscience.so.5:_ZNK7Isotope11protondecayEv
libscience.so.5:_ZNK7Isotope12ecalphadecayEv
libscience.so.5:_ZNK7Isotope12eclikelinessEv
libscience.so.5:_ZNK7Isotope12halflifeUnitEv
libscience.so.5:_ZNK7Isotope12neutrondecayEv
libscience.so.5:_ZNK7Isotope13betaplusdecayEv
libscience.so.5:_ZNK7Isotope13ecprotondecayEv
libscience.so.5:_ZNK7Isotope14betaminusdecayEv
libscience.so.5:_ZNK7Isotope14twoprotondecayEv
libscience.so.5:_ZNK7Isotope15alphalikelinessEv
libscience.so.5:_ZNK7Isotope15twoeclikelinessEv
libscience.so.5:_ZNK7Isotope15twoneutrondecayEv
libscience.so.5:_ZNK7Isotope16ectwoprotondecayEv
libscience.so.5:_ZNK7Isotope16protonalphadecayEv
libscience.so.5:_ZNK7Isotope16protonlikelinessEv
libscience.so.5:_ZNK7Isotope16twobetaplusdecayEv
libscience.so.5:_ZNK7Isotope17ecalphalikelinessEv
libscience.so.5:_ZNK7Isotope17neutronlikelinessEv
libscience.so.5:_ZNK7Isotope17spontfissiondecayEv
libscience.so.5:_ZNK7Isotope17twobetaminusdecayEv
libscience.so.5:_ZNK7Isotope18betaplusalphadecayEv
libscience.so.5:_ZNK7Isotope18betapluslikelinessEv
libscience.so.5:_ZNK7Isotope18ecalphaprotondecayEv
libscience.so.5:_ZNK7Isotope18ecprotonlikelinessEv
libscience.so.5:_ZNK7Isotope18ecthreeprotondecayEv
libscience.so.5:_ZNK7Isotope19alphabetaminusdecayEv
libscience.so.5:_ZNK7Isotope19betaminusalphadecayEv
libscience.so.5:_ZNK7Isotope19betaminuslikelinessEv
libscience.so.5:_ZNK7Isotope19betaplusprotondecayEv
libscience.so.5:_ZNK7Isotope19parentElementNumberEv
libscience.so.5:_ZNK7Isotope19parentElementSymbolEv
libscience.so.5:_ZNK7Isotope19twoprotonlikelinessEv
libscience.so.5:_ZNK7Isotope20twoneutronlikelinessEv
libscience.so.5:_ZNK7Isotope21betaminusfissiondecayEv
libscience.so.5:_ZNK7Isotope21betaminusneutrondecayEv
libscience.so.5:_ZNK7Isotope21betaplustwoalphadecayEv
libscience.so.5:_ZNK7Isotope21ectwoprotonlikelinessEv
libscience.so.5:_ZNK7Isotope21protonalphalikelinessEv
libscience.so.5:_ZNK7Isotope21twobetapluslikelinessEv
libscience.so.5:_ZNK7Isotope22betaminustwoalphadecayEv
libscience.so.5:_ZNK7Isotope22betaplustwoprotondecayEv
libscience.so.5:_ZNK7Isotope22spontfissionlikelinessEv
libscience.so.5:_ZNK7Isotope22twobetaminuslikelinessEv
libscience.so.5:_ZNK7Isotope23betaplusalphalikelinessEv
libscience.so.5:_ZNK7Isotope23betaplusthreealphadecayEv
libscience.so.5:_ZNK7Isotope23ecalphaprotonlikelinessEv
libscience.so.5:_ZNK7Isotope23ecthreeprotonlikelinessEv
libscience.so.5:_ZNK7Isotope24alphabetaminuslikelinessEv
libscience.so.5:_ZNK7Isotope24betaminusalphalikelinessEv
libscience.so.5:_ZNK7Isotope24betaminusthreealphadecayEv
libscience.so.5:_ZNK7Isotope24betaminustwoneutrondecayEv
libscience.so.5:_ZNK7Isotope24betaplusprotonlikelinessEv
libscience.so.5:_ZNK7Isotope25betaminusfourneutrondecayEv
libscience.so.5:_ZNK7Isotope26betaminusalphaneutrondecayEv
libscience.so.5:_ZNK7Isotope26betaminusfissionlikelinessEv
libscience.so.5:_ZNK7Isotope26betaminusneutronlikelinessEv
libscience.so.5:_ZNK7Isotope26betaminusthreeneutrondecayEv
libscience.so.5:_ZNK7Isotope26betaplustwoalphalikelinessEv
libscience.so.5:_ZNK7Isotope27betaminustwoalphalikelinessEv
libscience.so.5:_ZNK7Isotope27betaplustwoprotonlikelinessEv
libscience.so.5:_ZNK7Isotope28betaplusthreealphalikelinessEv
libscience.so.5:_ZNK7Isotope29betaminusthreealphalikelinessEv
libscience.so.5:_ZNK7Isotope29betaminustwoneutronlikelinessEv
libscience.so.5:_ZNK7Isotope30betaminusfourneutronlikelinessEv
libscience.so.5:_ZNK7Isotope31betaminusalphaneutronlikelinessEv
libscience.so.5:_ZNK7Isotope31betaminusthreeneutronlikelinessEv
libscience.so.5:_ZNK7Isotope4massEv
libscience.so.5:_ZNK7Isotope4spinEv
libscience.so.5:_ZNK7Isotope7ecdecayEv
libscience.so.5:_ZNK7Isotope8halflifeEv
libscience.so.5:_ZNK7Isotope8nucleonsEv
libscience.so.5:_ZNK7Isotope9abundanceEv
libscience.so.5:_ZNK7Isotope9magmomentEv
libscience.so.5:_ZNK8Spectrum19parentElementNumberEv
libscience.so.5:_ZNK9pseTables6tablesEv
libscience.so.5:_ZThn16_N13IsotopeParserD0Ev
libscience.so.5:_ZThn16_N13IsotopeParserD1Ev
libscience.so.5:_ZThn16_N14SpectrumParserD0Ev
libscience.so.5:_ZThn16_N14SpectrumParserD1Ev
libscience.so.5:_ZThn16_N16ElementSaxParserD0Ev
libscience.so.5:_ZThn16_N16ElementSaxParserD1Ev
libscience.so.5:_ZThn24_N13IsotopeParserD0Ev
libscience.so.5:_ZThn24_N13IsotopeParserD1Ev
libscience.so.5:_ZThn24_N14SpectrumParserD0Ev
libscience.so.5:_ZThn24_N14SpectrumParserD1Ev
libscience.so.5:_ZThn24_N16ElementSaxParserD0Ev
libscience.so.5:_ZThn24_N16ElementSaxParserD1Ev
libscience.so.5:_ZThn32_N13IsotopeParserD0Ev
libscience.so.5:_ZThn32_N13IsotopeParserD1Ev
libscience.so.5:_ZThn32_N14SpectrumParserD0Ev
libscience.so.5:_ZThn32_N14SpectrumParserD1Ev
libscience.so.5:_ZThn32_N16ElementSaxParserD0Ev
libscience.so.5:_ZThn32_N16ElementSaxParserD1Ev
libscience.so.5:_ZThn40_N13IsotopeParserD0Ev
libscience.so.5:_ZThn40_N13IsotopeParserD1Ev
libscience.so.5:_ZThn40_N14SpectrumParserD0Ev
libscience.so.5:_ZThn40_N14SpectrumParserD1Ev
libscience.so.5:_ZThn40_N16ElementSaxParserD0Ev
libscience.so.5:_ZThn40_N16ElementSaxParserD1Ev
libscience.so.5:_ZThn8_N13IsotopeParserD0Ev
libscience.so.5:_ZThn8_N13IsotopeParserD1Ev
libscience.so.5:_ZThn8_N14SpectrumParserD0Ev
libscience.so.5:_ZThn8_N14SpectrumParserD1Ev
libscience.so.5:_ZThn8_N16ElementSaxParserD0Ev
libscience.so.5:_ZThn8_N16ElementSaxParserD1Ev
