UNKNOWN:_ZTIN7Savitar13ThreeMFParserE
UNKNOWN:_ZTIN7Savitar5SceneE
UNKNOWN:_ZTIN7Savitar8MeshDataE
UNKNOWN:_ZTIN7Savitar9SceneNodeE
UNKNOWN:_ZTVN7Savitar13ThreeMFParserE
UNKNOWN:_ZTVN7Savitar5SceneE
UNKNOWN:_ZTVN7Savitar6VertexE
UNKNOWN:_ZTVN7Savitar8MeshDataE
UNKNOWN:_ZTVN7Savitar9SceneNodeE
libc.so.6:__cxa_atexit
libc.so.6:__stack_chk_fail
libc.so.6:memcmp
libc.so.6:memcpy
libc.so.6:memmove
libc.so.6:setlocale
libc.so.6:strchr
libc.so.6:strlen
libgcc_s.so.1:_Unwind_Resume
libpugixml.so.1:_ZN4pugi12xml_document11load_stringEPKcj
libpugixml.so.1:_ZN4pugi12xml_documentC1Ev
libpugixml.so.1:_ZN4pugi12xml_documentD1Ev
libpugixml.so.1:_ZN4pugi13xml_attributeaSEPKc
libpugixml.so.1:_ZN4pugi13xml_attributeaSEf
libpugixml.so.1:_ZN4pugi13xml_attributeaSEi
libpugixml.so.1:_ZN4pugi22xml_attribute_iteratorppEv
libpugixml.so.1:_ZN4pugi8xml_node12append_childEPKc
libpugixml.so.1:_ZN4pugi8xml_node16append_attributeEPKc
libpugixml.so.1:_ZN4pugi8xml_text3setEPKc
libpugixml.so.1:_ZNK4pugi12xml_document4saveERSoPKcjNS_12xml_encodingE
libpugixml.so.1:_ZNK4pugi13xml_attribute4nameEv
libpugixml.so.1:_ZNK4pugi13xml_attribute5valueEv
libpugixml.so.1:_ZNK4pugi13xml_attribute6as_intEi
libpugixml.so.1:_ZNK4pugi13xml_attribute8as_floatEf
libpugixml.so.1:_ZNK4pugi13xml_attribute9as_stringEPKc
libpugixml.so.1:_ZNK4pugi22xml_attribute_iteratordeEv
libpugixml.so.1:_ZNK4pugi22xml_attribute_iteratorneERKS0_
libpugixml.so.1:_ZNK4pugi8xml_node10attributesEv
libpugixml.so.1:_ZNK4pugi8xml_node12next_siblingEPKc
libpugixml.so.1:_ZNK4pugi8xml_node23find_child_by_attributeEPKcS2_S2_
libpugixml.so.1:_ZNK4pugi8xml_node4textEv
libpugixml.so.1:_ZNK4pugi8xml_node5childEPKc
libpugixml.so.1:_ZNK4pugi8xml_node6parentEv
libpugixml.so.1:_ZNK4pugi8xml_node9attributeEPKc
libpugixml.so.1:_ZNK4pugi8xml_nodecvPFvPPPS0_EEv
libpugixml.so.1:_ZNK4pugi8xml_text9as_stringEPKc
libpython3.7m.so.1.0:PyBool_FromLong
libpython3.7m.so.1.0:PyBytes_FromString
libpython3.7m.so.1.0:PyBytes_FromStringAndSize
libpython3.7m.so.1.0:PyCapsule_GetPointer
libpython3.7m.so.1.0:PyCapsule_Type
libpython3.7m.so.1.0:PyDict_GetItemString
libpython3.7m.so.1.0:PyDict_New
libpython3.7m.so.1.0:PyDict_Next
libpython3.7m.so.1.0:PyDict_SetItem
libpython3.7m.so.1.0:PyErr_Clear
libpython3.7m.so.1.0:PyErr_Format
libpython3.7m.so.1.0:PyEval_RestoreThread
libpython3.7m.so.1.0:PyEval_SaveThread
libpython3.7m.so.1.0:PyExc_TypeError
libpython3.7m.so.1.0:PyImport_ImportModule
libpython3.7m.so.1.0:PyIter_Next
libpython3.7m.so.1.0:PyList_New
libpython3.7m.so.1.0:PyModule_Create2
libpython3.7m.so.1.0:PyModule_GetDict
libpython3.7m.so.1.0:PyObject_GetIter
libpython3.7m.so.1.0:PyUnicode_AsEncodedString
libpython3.7m.so.1.0:PyUnicode_DecodeUTF8
libpython3.7m.so.1.0:_Py_NoneStruct
libstdc++.so.6:_ZNKSt5ctypeIcE13_M_widen_initEv
libstdc++.so.6:_ZNKSt7__cxx1112basic_stringIcSt11char_traitsIcESaIcEE4findEcm
libstdc++.so.6:_ZNKSt7__cxx1112basic_stringIcSt11char_traitsIcESaIcEE7compareEPKc
libstdc++.so.6:_ZNSdD2Ev
libstdc++.so.6:_ZNSo3putEc
libstdc++.so.6:_ZNSo5flushEv
libstdc++.so.6:_ZNSt13runtime_errorC1EPKc
libstdc++.so.6:_ZNSt13runtime_errorD1Ev
libstdc++.so.6:_ZNSt6localeC1Ev
libstdc++.so.6:_ZNSt6localeD1Ev
libstdc++.so.6:_ZNSt7__cxx1112basic_stringIcSt11char_traitsIcESaIcEE10_M_replaceEmmPKcm
libstdc++.so.6:_ZNSt7__cxx1112basic_stringIcSt11char_traitsIcESaIcEE12_M_constructEmc
libstdc++.so.6:_ZNSt7__cxx1112basic_stringIcSt11char_traitsIcESaIcEE9_M_assignERKS4_
libstdc++.so.6:_ZNSt7__cxx1112basic_stringIcSt11char_traitsIcESaIcEE9_M_createERmm
libstdc++.so.6:_ZNSt7__cxx1118basic_stringstreamIcSt11char_traitsIcESaIcEED1Ev
libstdc++.so.6:_ZNSt8ios_base4InitC1Ev
libstdc++.so.6:_ZNSt8ios_base4InitD1Ev
libstdc++.so.6:_ZNSt8ios_baseC2Ev
libstdc++.so.6:_ZNSt8ios_baseD2Ev
libstdc++.so.6:_ZNSt9basic_iosIcSt11char_traitsIcEE4initEPSt15basic_streambufIcS1_E
libstdc++.so.6:_ZSt16__ostream_insertIcSt11char_traitsIcEERSt13basic_ostreamIT_T0_ES6_PKS3_l
libstdc++.so.6:_ZSt16__throw_bad_castv
libstdc++.so.6:_ZSt17__throw_bad_allocv
libstdc++.so.6:_ZSt18_Rb_tree_decrementPSt18_Rb_tree_node_base
libstdc++.so.6:_ZSt18_Rb_tree_incrementPKSt18_Rb_tree_node_base
libstdc++.so.6:_ZSt18_Rb_tree_incrementPSt18_Rb_tree_node_base
libstdc++.so.6:_ZSt19__throw_logic_errorPKc
libstdc++.so.6:_ZSt20__throw_length_errorPKc
libstdc++.so.6:_ZSt20__throw_out_of_rangePKc
libstdc++.so.6:_ZSt24__throw_out_of_range_fmtPKcz
libstdc++.so.6:_ZSt28_Rb_tree_rebalance_for_erasePSt18_Rb_tree_node_baseRS_
libstdc++.so.6:_ZSt29_Rb_tree_insert_and_rebalancebPSt18_Rb_tree_node_baseS0_RS_
libstdc++.so.6:_ZSt4cout
libstdc++.so.6:_ZTISt13runtime_error
libstdc++.so.6:_ZTTNSt7__cxx1118basic_stringstreamIcSt11char_traitsIcESaIcEEE
libstdc++.so.6:_ZTVN10__cxxabiv117__class_type_infoE
libstdc++.so.6:_ZTVN10__cxxabiv120__si_class_type_infoE
libstdc++.so.6:_ZTVNSt7__cxx1115basic_stringbufIcSt11char_traitsIcESaIcEEE
libstdc++.so.6:_ZTVNSt7__cxx1118basic_stringstreamIcSt11char_traitsIcESaIcEEE
libstdc++.so.6:_ZTVSt15basic_streambufIcSt11char_traitsIcEE
libstdc++.so.6:_ZTVSt9basic_iosIcSt11char_traitsIcEE
libstdc++.so.6:_ZdaPv
libstdc++.so.6:_ZdlPv
libstdc++.so.6:_Znam
libstdc++.so.6:_Znwm
libstdc++.so.6:__cxa_allocate_exception
libstdc++.so.6:__cxa_begin_catch
libstdc++.so.6:__cxa_end_catch
libstdc++.so.6:__cxa_free_exception
libstdc++.so.6:__cxa_rethrow
libstdc++.so.6:__cxa_throw
libstdc++.so.6:__gxx_personality_v0
