libkmixcore.so.5:_ZN12GlobalConfig13usrReadConfigEv
libkmixcore.so.5:_ZN12GlobalConfigC1Ev
libkmixcore.so.5:_ZN12GlobalConfigC2Ev
libkmixcore.so.5:_ZN12MixerToolBox10mixerAddedE7QString
libkmixcore.so.5:_ZN12MixerToolBox11deinitMixerEv
libkmixcore.so.5:_ZN12MixerToolBox11qt_metacallEN11QMetaObject4CallEiPPv
libkmixcore.so.5:_ZN12MixerToolBox11qt_metacastEPKc
libkmixcore.so.5:_ZN12MixerToolBox11removeMixerEP5Mixer
libkmixcore.so.5:_ZN12MixerToolBox16possiblyAddMixerEP5Mixer
libkmixcore.so.5:_ZN12MixerToolBox17initMixerInternalENS_15MultiDriverModeE5QListI7QStringERS2_b
libkmixcore.so.5:_ZN12MixerToolBox24setMixerIgnoreExpressionERK7QString
libkmixcore.so.5:_ZN12MixerToolBox8instanceEv
libkmixcore.so.5:_ZN12MixerToolBox9initMixerENS_15MultiDriverModeE5QListI7QStringERS2_b
libkmixcore.so.5:_ZN12MixerToolBox9initMixerEb5QListI7QStringERS1_b
libkmixcore.so.5:_ZN13MasterControl3setE7QStringS0_
libkmixcore.so.5:_ZN13MasterControl7isValidEv
libkmixcore.so.5:_ZN13MasterControlC1Ev
libkmixcore.so.5:_ZN13MasterControlC2Ev
libkmixcore.so.5:_ZN13MasterControlD0Ev
libkmixcore.so.5:_ZN13MasterControlD1Ev
libkmixcore.so.5:_ZN13MasterControlD2Ev
libkmixcore.so.5:_ZN13VolumeChannelC1EN6Volume9ChannelIDE
libkmixcore.so.5:_ZN13VolumeChannelC1Ev
libkmixcore.so.5:_ZN13VolumeChannelC2EN6Volume9ChannelIDE
libkmixcore.so.5:_ZN13VolumeChannelC2Ev
libkmixcore.so.5:_ZN14ControlManager11addListenerE7QStringN17ControlChangeType4TypeEP7QObjectS0_
libkmixcore.so.5:_ZN14ControlManager11shutdownNowEv
libkmixcore.so.5:_ZN14ControlManager14removeListenerEP7QObject
libkmixcore.so.5:_ZN14ControlManager14removeListenerEP7QObject7QString
libkmixcore.so.5:_ZN14ControlManager24warnUnexpectedChangeTypeEN17ControlChangeType4TypeEP7QObject
libkmixcore.so.5:_ZN14ControlManager8announceE7QStringN17ControlChangeType4TypeES0_
libkmixcore.so.5:_ZN14ControlManager8instanceEv
libkmixcore.so.5:_ZN14ControlManagerC1Ev
libkmixcore.so.5:_ZN14ControlManagerC2Ev
libkmixcore.so.5:_ZN15MediaController11hasControlsEv
libkmixcore.so.5:_ZN15MediaController12getPlayStateEv
libkmixcore.so.5:_ZN15MediaController12setPlayStateENS_9PlayStateE
libkmixcore.so.5:_ZN15MediaControllerC1E7QString
libkmixcore.so.5:_ZN15MediaControllerC2E7QString
libkmixcore.so.5:_ZN15MediaControllerD0Ev
libkmixcore.so.5:_ZN15MediaControllerD1Ev
libkmixcore.so.5:_ZN15MediaControllerD2Ev
libkmixcore.so.5:_ZN16GlobalConfigData18convertOrientationEv
libkmixcore.so.5:_ZN16GlobalConfigData19orientationToStringEN2Qt11OrientationE
libkmixcore.so.5:_ZN16GlobalConfigData19stringToOrientationER7QString
libkmixcore.so.5:_ZN16GlobalConfigData22getToplevelOrientationEv
libkmixcore.so.5:_ZN16GlobalConfigData22setToplevelOrientationEN2Qt11OrientationE
libkmixcore.so.5:_ZN16GlobalConfigData23getTraypopupOrientationEv
libkmixcore.so.5:_ZN16GlobalConfigData23setTraypopupOrientationEN2Qt11OrientationE
libkmixcore.so.5:_ZN17DBusMixSetWrapper10initializeEP7QObjectRK7QString
libkmixcore.so.5:_ZN17DBusMixSetWrapper11qt_metacallEN11QMetaObject4CallEiPPv
libkmixcore.so.5:_ZN17DBusMixSetWrapper11qt_metacastEPKc
libkmixcore.so.5:_ZN17DBusMixSetWrapper14controlsChangeEi
libkmixcore.so.5:_ZN17DBusMixSetWrapper16setCurrentMasterERK7QStringS2_
libkmixcore.so.5:_ZN17DBusMixSetWrapper18setPreferredMasterERK7QStringS2_
libkmixcore.so.5:_ZN17DBusMixSetWrapper19signalMasterChangedEv
libkmixcore.so.5:_ZN17DBusMixSetWrapper19signalMixersChangedEv
libkmixcore.so.5:_ZN17DBusMixSetWrapper8instanceEv
libkmixcore.so.5:_ZN17DBusMixSetWrapperC1EP7QObjectRK7QString
libkmixcore.so.5:_ZN17DBusMixSetWrapperC2EP7QObjectRK7QString
libkmixcore.so.5:_ZN17KMixDeviceManager10getUDI_OSSERK7QString
libkmixcore.so.5:_ZN17KMixDeviceManager11getUDI_ALSAEi
libkmixcore.so.5:_ZN17KMixDeviceManager11initHotplugEv
libkmixcore.so.5:_ZN17KMixDeviceManager11pluggedSlotERK7QString
libkmixcore.so.5:_ZN17KMixDeviceManager11qt_metacallEN11QMetaObject4CallEiPPv
libkmixcore.so.5:_ZN17KMixDeviceManager11qt_metacastEPKc
libkmixcore.so.5:_ZN17KMixDeviceManager13unpluggedSlotERK7QString
libkmixcore.so.5:_ZN17KMixDeviceManager7pluggedEPKcRK7QStringRS2_
libkmixcore.so.5:_ZN17KMixDeviceManager8instanceEv
libkmixcore.so.5:_ZN17KMixDeviceManager9unpluggedERK7QString
libkmixcore.so.5:_ZN17KMixDeviceManagerC1Ev
libkmixcore.so.5:_ZN17KMixDeviceManagerC2Ev
libkmixcore.so.5:_ZN17KMixDeviceManagerD0Ev
libkmixcore.so.5:_ZN17KMixDeviceManagerD1Ev
libkmixcore.so.5:_ZN17KMixDeviceManagerD2Ev
libkmixcore.so.5:_ZN5Mixer10driverNameEi
libkmixcore.so.5:_ZN5Mixer10moveStreamE7QStringRKS0_
libkmixcore.so.5:_ZN5Mixer10newBalanceER6Volume
libkmixcore.so.5:_ZN5Mixer10numDriversEv
libkmixcore.so.5:_ZN5Mixer10recreateIdEv
libkmixcore.so.5:_ZN5Mixer10setBalanceEi
libkmixcore.so.5:_ZN5Mixer10setDynamicEb
libkmixcore.so.5:_ZN5Mixer10volumeLoadEP7KConfig
libkmixcore.so.5:_ZN5Mixer10volumeSaveEP7KConfig
libkmixcore.so.5:_ZN5Mixer11getBaseNameEv
libkmixcore.so.5:_ZN5Mixer11openIfValidEv
libkmixcore.so.5:_ZN5Mixer11qt_metacallEN11QMetaObject4CallEiPPv
libkmixcore.so.5:_ZN5Mixer11qt_metacastEPKc
libkmixcore.so.5:_ZN5Mixer12readableNameEb
libkmixcore.so.5:_ZN5Mixer12readableNameEv
libkmixcore.so.5:_ZN5Mixer13getDriverNameEv
libkmixcore.so.5:_ZN5Mixer14controlChangedEv
libkmixcore.so.5:_ZN5Mixer14decreaseVolumeERK7QString
libkmixcore.so.5:_ZN5Mixer14increaseVolumeERK7QString
libkmixcore.so.5:_ZN5Mixer15setGlobalMasterE7QStringS0_b
libkmixcore.so.5:_ZN5Mixer16getLocalMasterMDEv
libkmixcore.so.5:_ZN5Mixer16getMixdeviceByIdERK7QString
libkmixcore.so.5:_ZN5Mixer16setLocalMasterMDER7QString
libkmixcore.so.5:_ZN5Mixer17getGlobalMasterMDEb
libkmixcore.so.5:_ZN5Mixer17getGlobalMasterMDEv
libkmixcore.so.5:_ZN5Mixer17pulseaudioPresentEv
libkmixcore.so.5:_ZN5Mixer18commitVolumeChangeESt10shared_ptrI9MixDeviceE
libkmixcore.so.5:_ZN5Mixer18setBalanceInternalER6Volume
libkmixcore.so.5:_ZN5Mixer20getGlobalMasterMixerEv
libkmixcore.so.5:_ZN5Mixer22dynamicBackendsPresentEv
libkmixcore.so.5:_ZN5Mixer22getRecommendedDeviceIdEv
libkmixcore.so.5:_ZN5Mixer24getGlobalMasterPreferredEb
libkmixcore.so.5:_ZN5Mixer24increaseOrDecreaseVolumeERK7QStringb
libkmixcore.so.5:_ZN5Mixer26translateKernelToWhatsthisERK7QString
libkmixcore.so.5:_ZN5Mixer29getGlobalMasterMixerNoFalbackEv
libkmixcore.so.5:_ZN5Mixer2idEv
libkmixcore.so.5:_ZN5Mixer3udiEv
libkmixcore.so.5:_ZN5Mixer4findERK7QString
libkmixcore.so.5:_ZN5Mixer5closeEv
libkmixcore.so.5:_ZN5Mixer6mixersEv
libkmixcore.so.5:_ZN5Mixer8dbusPathEv
libkmixcore.so.5:_ZN5Mixer9findMixerERK7QString
libkmixcore.so.5:_ZN5Mixer9getMixSetEv
libkmixcore.so.5:_ZN5Mixer9isDynamicEv
libkmixcore.so.5:_ZN5MixerC1ER7QStringi
libkmixcore.so.5:_ZN5MixerC2ER7QStringi
libkmixcore.so.5:_ZN5MixerD0Ev
libkmixcore.so.5:_ZN5MixerD1Ev
libkmixcore.so.5:_ZN5MixerD2Ev
libkmixcore.so.5:_ZN5MixerixEi
libkmixcore.so.5:_ZN6MixSet10removeByIdE7QString
libkmixcore.so.5:_ZN6MixSet3getE7QString
libkmixcore.so.5:_ZN6MixSet4readEP7KConfigRK7QString
libkmixcore.so.5:_ZN6MixSet5writeEP7KConfigRK7QString
libkmixcore.so.5:_ZN6MixSet7setNameERK7QString
libkmixcore.so.5:_ZN6MixSetD1Ev
libkmixcore.so.5:_ZN6MixSetD2Ev
libkmixcore.so.5:_ZN6Volume10volumeSpanEv
libkmixcore.so.5:_ZN6Volume10volumeStepEb
libkmixcore.so.5:_ZN6Volume12getAvgVolumeENS_11ChannelMaskE
libkmixcore.so.5:_ZN6Volume13setAllVolumesEl
libkmixcore.so.5:_ZN6Volume15getVolumeForGUIENS_9ChannelIDE
libkmixcore.so.5:_ZN6Volume16addVolumeChannelE13VolumeChannel
libkmixcore.so.5:_ZN6Volume16changeAllVolumesEl
libkmixcore.so.5:_ZN6Volume17addVolumeChannelsENS_11ChannelMaskE
libkmixcore.so.5:_ZN6Volume19channelNameReadableENS_9ChannelIDE
libkmixcore.so.5:_ZN6Volume19getAvgVolumePercentENS_11ChannelMaskE
libkmixcore.so.5:_ZN6Volume25channelNameForPersistenceENS_9ChannelIDE
libkmixcore.so.5:_ZN6Volume4initENS_11ChannelMaskEllbb
libkmixcore.so.5:_ZN6Volume5countEv
libkmixcore.so.5:_ZN6Volume8volrangeEl
libkmixcore.so.5:_ZN6Volume9getVolumeENS_9ChannelIDE
libkmixcore.so.5:_ZN6Volume9maxVolumeEv
libkmixcore.so.5:_ZN6Volume9minVolumeEv
libkmixcore.so.5:_ZN6Volume9setSwitchEb
libkmixcore.so.5:_ZN6Volume9setVolumeENS_9ChannelIDEl
libkmixcore.so.5:_ZN6VolumeC1Ellbb
libkmixcore.so.5:_ZN6VolumeC1Ev
libkmixcore.so.5:_ZN6VolumeC2Ellbb
libkmixcore.so.5:_ZN6VolumeC2Ev
libkmixcore.so.5:_ZN9MixDevice10enumValuesEv
libkmixcore.so.5:_ZN9MixDevice10toggleMuteEv
libkmixcore.so.5:_ZN9MixDevice11isRecSourceEv
libkmixcore.so.5:_ZN9MixDevice11qt_metacallEN11QMetaObject4CallEiPPv
libkmixcore.so.5:_ZN9MixDevice11qt_metacastEPKc
libkmixcore.so.5:_ZN9MixDevice12getVolStringEN6Volume9ChannelIDEb
libkmixcore.so.5:_ZN9MixDevice12setRecSourceEb
libkmixcore.so.5:_ZN9MixDevice13captureVolumeEv
libkmixcore.so.5:_ZN9MixDevice13hasMuteSwitchEv
libkmixcore.so.5:_ZN9MixDevice14controlProfileEv
libkmixcore.so.5:_ZN9MixDevice14isNotRecSourceEv
libkmixcore.so.5:_ZN9MixDevice14playbackVolumeEv
libkmixcore.so.5:_ZN9MixDevice15configGroupNameE7QString
libkmixcore.so.5:_ZN9MixDevice16addCaptureVolumeER6Volume
libkmixcore.so.5:_ZN9MixDevice16isVirtuallyMutedEv
libkmixcore.so.5:_ZN9MixDevice17addPlaybackVolumeER6Volume
libkmixcore.so.5:_ZN9MixDevice17setControlProfileEP11ProfControl
libkmixcore.so.5:_ZN9MixDevice18getMediaControllerEv
libkmixcore.so.5:_ZN9MixDevice19getFullyQualifiedIdEv
libkmixcore.so.5:_ZN9MixDevice21hasPhysicalMuteSwitchEv
libkmixcore.so.5:_ZN9MixDevice21readPlaybackOrCaptureERK12KConfigGroupb
libkmixcore.so.5:_ZN9MixDevice22writePlaybackOrCaptureER12KConfigGroupb
libkmixcore.so.5:_ZN9MixDevice24increaseOrDecreaseVolumeEbN6Volume14VolumeTypeFlagE
libkmixcore.so.5:_ZN9MixDevice26getUserfriendlyVolumeLevelEv
libkmixcore.so.5:_ZN9MixDevice4initEP5MixerRK7QStringS4_S4_P6MixSet
libkmixcore.so.5:_ZN9MixDevice4readEP7KConfigRK7QString
libkmixcore.so.5:_ZN9MixDevice5closeEv
libkmixcore.so.5:_ZN9MixDevice5writeEP7KConfigRK7QString
libkmixcore.so.5:_ZN9MixDevice6enumIdEv
libkmixcore.so.5:_ZN9MixDevice6isEnumEv
libkmixcore.so.5:_ZN9MixDevice7isMutedEv
libkmixcore.so.5:_ZN9MixDevice8addEnumsER5QListIP7QStringE
libkmixcore.so.5:_ZN9MixDevice8dbusPathEv
libkmixcore.so.5:_ZN9MixDevice8setMutedEb
libkmixcore.so.5:_ZN9MixDevice9addToPoolEv
libkmixcore.so.5:_ZN9MixDevice9mediaNextEv
libkmixcore.so.5:_ZN9MixDevice9mediaPlayEv
libkmixcore.so.5:_ZN9MixDevice9mediaPrevEv
libkmixcore.so.5:_ZN9MixDevice9setEnumIdEi
libkmixcore.so.5:_ZN9MixDeviceC1EP5MixerRK7QStringS4_NS_11ChannelTypeE
libkmixcore.so.5:_ZN9MixDeviceC1EP5MixerRK7QStringS4_S4_P6MixSet
libkmixcore.so.5:_ZN9MixDeviceC2EP5MixerRK7QStringS4_NS_11ChannelTypeE
libkmixcore.so.5:_ZN9MixDeviceC2EP5MixerRK7QStringS4_S4_P6MixSet
libkmixcore.so.5:_ZN9MixDeviceD0Ev
libkmixcore.so.5:_ZN9MixDeviceD1Ev
libkmixcore.so.5:_ZN9MixDeviceD2Ev
libkmixcore.so.5:_ZNK12MixerToolBox10metaObjectEv
libkmixcore.so.5:_ZNK12MixerToolBox21mixerIgnoreExpressionEv
libkmixcore.so.5:_ZNK13MasterControl10getControlEv
libkmixcore.so.5:_ZNK13MasterControl7getCardEv
libkmixcore.so.5:_ZNK17DBusMixSetWrapper10metaObjectEv
libkmixcore.so.5:_ZNK17DBusMixSetWrapper18currentMasterMixerEv
libkmixcore.so.5:_ZNK17DBusMixSetWrapper20currentMasterControlEv
libkmixcore.so.5:_ZNK17DBusMixSetWrapper20preferredMasterMixerEv
libkmixcore.so.5:_ZNK17DBusMixSetWrapper22preferredMasterControlEv
libkmixcore.so.5:_ZNK17DBusMixSetWrapper6mixersEv
libkmixcore.so.5:_ZNK17KMixDeviceManager10metaObjectEv
libkmixcore.so.5:_ZNK5Mixer10metaObjectEv
libkmixcore.so.5:_ZNK5Mixer24readSetFromHWforceUpdateEv
libkmixcore.so.5:_ZNK5Mixer4sizeEv
libkmixcore.so.5:_ZNK5Mixer6isOpenEv
libkmixcore.so.5:_ZNK5Mixer7balanceEv
libkmixcore.so.5:_ZNK6Volume10getVolumesEv
libkmixcore.so.5:_ZNK6Volume20getVolumesWhenActiveEv
libkmixcore.so.5:_ZNK9MixDevice10metaObjectEv
libkmixcore.so.5:_ZNK9MixDevice2idEv
libkmixcore.so.5:_ZNK9MixDeviceeqERKS_
