libkdebugsettings.so.6:_ZN20CategoryTypeComboBox11qt_metacallEN11QMetaObject4CallEiPPv
libkdebugsettings.so.6:_ZN20CategoryTypeComboBox11qt_metacastEPKc
libkdebugsettings.so.6:_ZN20CategoryTypeComboBox16restoreToDefaultEv
libkdebugsettings.so.6:_ZN20CategoryTypeComboBox16staticMetaObjectE
libkdebugsettings.so.6:_ZN20CategoryTypeComboBox20setDefaultCategoriesEN15LoggingCategory11LoggingTypeE
libkdebugsettings.so.6:_ZN20CategoryTypeComboBox7setTypeEN15LoggingCategory11LoggingTypeE
libkdebugsettings.so.6:_ZN20CategoryTypeComboBoxC1EbP7QWidget
libkdebugsettings.so.6:_ZN20CategoryTypeComboBoxC2EbP7QWidget
libkdebugsettings.so.6:_ZN20CategoryTypeComboBoxD0Ev
libkdebugsettings.so.6:_ZN20CategoryTypeComboBoxD1Ev
libkdebugsettings.so.6:_ZN20CategoryTypeComboBoxD2Ev
libkdebugsettings.so.6:_ZN20KDebugSettingsDialog11qt_metacallEN11QMetaObject4CallEiPPv
libkdebugsettings.so.6:_ZN20KDebugSettingsDialog11qt_metacastEPKc
libkdebugsettings.so.6:_ZN20KDebugSettingsDialog16staticMetaObjectE
libkdebugsettings.so.6:_ZN20KDebugSettingsDialog19updateLoadGroupMenuEv
libkdebugsettings.so.6:_ZN20KDebugSettingsDialogC1EP7QWidget
libkdebugsettings.so.6:_ZN20KDebugSettingsDialogC2EP7QWidget
libkdebugsettings.so.6:_ZN20KDebugSettingsDialogD0Ev
libkdebugsettings.so.6:_ZN20KDebugSettingsDialogD1Ev
libkdebugsettings.so.6:_ZN20KDebugSettingsDialogD2Ev
libkdebugsettings.so.6:_ZN23CustomDebugSettingsPage11eventFilterEP7QObjectP6QEvent
libkdebugsettings.so.6:_ZN23CustomDebugSettingsPage11qt_metacallEN11QMetaObject4CallEiPPv
libkdebugsettings.so.6:_ZN23CustomDebugSettingsPage11qt_metacastEPKc
libkdebugsettings.so.6:_ZN23CustomDebugSettingsPage16staticMetaObjectE
libkdebugsettings.so.6:_ZN23CustomDebugSettingsPageC1EP7QWidget
libkdebugsettings.so.6:_ZN23CustomDebugSettingsPageC2EP7QWidget
libkdebugsettings.so.6:_ZN23CustomDebugSettingsPageD0Ev
libkdebugsettings.so.6:_ZN23CustomDebugSettingsPageD1Ev
libkdebugsettings.so.6:_ZN23CustomDebugSettingsPageD2Ev
libkdebugsettings.so.6:_ZN24EnvironmentPlainTextEdit10paintEventEP11QPaintEvent
libkdebugsettings.so.6:_ZN24EnvironmentPlainTextEdit11qt_metacallEN11QMetaObject4CallEiPPv
libkdebugsettings.so.6:_ZN24EnvironmentPlainTextEdit11qt_metacastEPKc
libkdebugsettings.so.6:_ZN24EnvironmentPlainTextEdit16contextMenuEventEP17QContextMenuEvent
libkdebugsettings.so.6:_ZN24EnvironmentPlainTextEdit16staticMetaObjectE
libkdebugsettings.so.6:_ZN24EnvironmentPlainTextEditC1EP7QWidget
libkdebugsettings.so.6:_ZN24EnvironmentPlainTextEditC2EP7QWidget
libkdebugsettings.so.6:_ZN24EnvironmentPlainTextEditD0Ev
libkdebugsettings.so.6:_ZN24EnvironmentPlainTextEditD1Ev
libkdebugsettings.so.6:_ZN24EnvironmentPlainTextEditD2Ev
libkdebugsettings.so.6:_ZN28ConfigureCustomSettingDialog11qt_metacallEN11QMetaObject4CallEiPPv
libkdebugsettings.so.6:_ZN28ConfigureCustomSettingDialog11qt_metacastEPKc
libkdebugsettings.so.6:_ZN28ConfigureCustomSettingDialog16staticMetaObjectE
libkdebugsettings.so.6:_ZN28ConfigureCustomSettingDialog7setRuleERK7QString
libkdebugsettings.so.6:_ZN28ConfigureCustomSettingDialogC1EP7QWidget
libkdebugsettings.so.6:_ZN28ConfigureCustomSettingDialogC2EP7QWidget
libkdebugsettings.so.6:_ZN28ConfigureCustomSettingDialogD0Ev
libkdebugsettings.so.6:_ZN28ConfigureCustomSettingDialogD1Ev
libkdebugsettings.so.6:_ZN28ConfigureCustomSettingDialogD2Ev
libkdebugsettings.so.6:_ZN30KDEApplicationDebugSettingPage10forceFocusEv
libkdebugsettings.so.6:_ZN30KDEApplicationDebugSettingPage11eventFilterEP7QObjectP6QEvent
libkdebugsettings.so.6:_ZN30KDEApplicationDebugSettingPage11qt_metacallEN11QMetaObject4CallEiPPv
libkdebugsettings.so.6:_ZN30KDEApplicationDebugSettingPage11qt_metacastEPKc
libkdebugsettings.so.6:_ZN30KDEApplicationDebugSettingPage16insertCategoriesERK5QListI15LoggingCategoryE
libkdebugsettings.so.6:_ZN30KDEApplicationDebugSettingPage16restoreToDefaultEv
libkdebugsettings.so.6:_ZN30KDEApplicationDebugSettingPage16staticMetaObjectE
libkdebugsettings.so.6:_ZN30KDEApplicationDebugSettingPageC1EP7QWidget
libkdebugsettings.so.6:_ZN30KDEApplicationDebugSettingPageC2EP7QWidget
libkdebugsettings.so.6:_ZN30KDEApplicationDebugSettingPageD0Ev
libkdebugsettings.so.6:_ZN30KDEApplicationDebugSettingPageD1Ev
libkdebugsettings.so.6:_ZN30KDEApplicationDebugSettingPageD2Ev
libkdebugsettings.so.6:_ZNK20CategoryTypeComboBox10metaObjectEv
libkdebugsettings.so.6:_ZNK20CategoryTypeComboBox17defaultCategoriesEv
libkdebugsettings.so.6:_ZNK20CategoryTypeComboBox27loggingCategoryIsNotDefaultEv
libkdebugsettings.so.6:_ZNK20CategoryTypeComboBox4typeEv
libkdebugsettings.so.6:_ZNK20KDebugSettingsDialog10metaObjectEv
libkdebugsettings.so.6:_ZNK23CustomDebugSettingsPage10metaObjectEv
libkdebugsettings.so.6:_ZNK23CustomDebugSettingsPage5rulesEv
libkdebugsettings.so.6:_ZNK24EnvironmentPlainTextEdit10metaObjectEv
libkdebugsettings.so.6:_ZNK28ConfigureCustomSettingDialog10metaObjectEv
libkdebugsettings.so.6:_ZNK28ConfigureCustomSettingDialog4ruleEv
libkdebugsettings.so.6:_ZNK30KDEApplicationDebugSettingPage10metaObjectEv
libkdebugsettings.so.6:_ZNK30KDEApplicationDebugSettingPage5rulesEb
libkdebugsettings.so.6:_ZTI20CategoryTypeComboBox
libkdebugsettings.so.6:_ZTI20KDebugSettingsDialog
libkdebugsettings.so.6:_ZTI23CustomDebugSettingsPage
libkdebugsettings.so.6:_ZTI24EnvironmentPlainTextEdit
libkdebugsettings.so.6:_ZTI28ConfigureCustomSettingDialog
libkdebugsettings.so.6:_ZTI30KDEApplicationDebugSettingPage
libkdebugsettings.so.6:_ZTS20CategoryTypeComboBox
libkdebugsettings.so.6:_ZTS20KDebugSettingsDialog
libkdebugsettings.so.6:_ZTS23CustomDebugSettingsPage
libkdebugsettings.so.6:_ZTS24EnvironmentPlainTextEdit
libkdebugsettings.so.6:_ZTS28ConfigureCustomSettingDialog
libkdebugsettings.so.6:_ZTS30KDEApplicationDebugSettingPage
libkdebugsettings.so.6:_ZTV20CategoryTypeComboBox
libkdebugsettings.so.6:_ZTV20KDebugSettingsDialog
libkdebugsettings.so.6:_ZTV23CustomDebugSettingsPage
libkdebugsettings.so.6:_ZTV24EnvironmentPlainTextEdit
libkdebugsettings.so.6:_ZTV28ConfigureCustomSettingDialog
libkdebugsettings.so.6:_ZTV30KDEApplicationDebugSettingPage
libkdebugsettings.so.6:_ZThn16_N20CategoryTypeComboBoxD0Ev
libkdebugsettings.so.6:_ZThn16_N20CategoryTypeComboBoxD1Ev
libkdebugsettings.so.6:_ZThn16_N20KDebugSettingsDialogD0Ev
libkdebugsettings.so.6:_ZThn16_N20KDebugSettingsDialogD1Ev
libkdebugsettings.so.6:_ZThn16_N23CustomDebugSettingsPageD0Ev
libkdebugsettings.so.6:_ZThn16_N23CustomDebugSettingsPageD1Ev
libkdebugsettings.so.6:_ZThn16_N24EnvironmentPlainTextEditD0Ev
libkdebugsettings.so.6:_ZThn16_N24EnvironmentPlainTextEditD1Ev
libkdebugsettings.so.6:_ZThn16_N28ConfigureCustomSettingDialogD0Ev
libkdebugsettings.so.6:_ZThn16_N28ConfigureCustomSettingDialogD1Ev
libkdebugsettings.so.6:_ZThn16_N30KDEApplicationDebugSettingPageD0Ev
libkdebugsettings.so.6:_ZThn16_N30KDEApplicationDebugSettingPageD1Ev
libkdebugsettingscore.so.6:_ZN12SaveRulesJob10setListKdeERK5QListI15LoggingCategoryE
libkdebugsettingscore.so.6:_ZN12SaveRulesJob11setFileNameERK7QString
libkdebugsettingscore.so.6:_ZN12SaveRulesJob13setListCustomERK5QListI15LoggingCategoryE
libkdebugsettingscore.so.6:_ZN12SaveRulesJob5startEv
libkdebugsettingscore.so.6:_ZN12SaveRulesJobC1Ev
libkdebugsettingscore.so.6:_ZN12SaveRulesJobC2Ev
libkdebugsettingscore.so.6:_ZN14LoggingManager11qt_metacallEN11QMetaObject4CallEiPPv
libkdebugsettingscore.so.6:_ZN14LoggingManager11qt_metacastEPKc
libkdebugsettingscore.so.6:_ZN14LoggingManager16staticMetaObjectE
libkdebugsettingscore.so.6:_ZN14LoggingManager17readQtLoggingFileEv
libkdebugsettingscore.so.6:_ZN14LoggingManager19readCategoriesFilesERK7QString
libkdebugsettingscore.so.6:_ZN14LoggingManager23updateLoggingCategoriesEv
libkdebugsettingscore.so.6:_ZN14LoggingManager4selfEv
libkdebugsettingscore.so.6:_ZN14LoggingManagerD0Ev
libkdebugsettingscore.so.6:_ZN14LoggingManagerD1Ev
libkdebugsettingscore.so.6:_ZN14LoggingManagerD2Ev
libkdebugsettingscore.so.6:_ZN15LoggingCategoryC1Ev
libkdebugsettingscore.so.6:_ZN15LoggingCategoryC2Ev
libkdebugsettingscore.so.6:_ZN17CategoryTypeModel11qt_metacallEN11QMetaObject4CallEiPPv
libkdebugsettingscore.so.6:_ZN17CategoryTypeModel11qt_metacastEPKc
libkdebugsettingscore.so.6:_ZN17CategoryTypeModel16staticMetaObjectE
libkdebugsettingscore.so.6:_ZN17CategoryTypeModel17fillCategoryTypesEv
libkdebugsettingscore.so.6:_ZN17CategoryTypeModel18createCategoryInfoEN15LoggingCategory11LoggingTypeE
libkdebugsettingscore.so.6:_ZN17CategoryTypeModelC1EP7QObject
libkdebugsettingscore.so.6:_ZN17CategoryTypeModelC2EP7QObject
libkdebugsettingscore.so.6:_ZN17CategoryTypeModelD0Ev
libkdebugsettingscore.so.6:_ZN17CategoryTypeModelD1Ev
libkdebugsettingscore.so.6:_ZN17CategoryTypeModelD2Ev
libkdebugsettingscore.so.6:_ZN17LoadCategoriesJob11setFileNameERK7QString
libkdebugsettingscore.so.6:_ZN17LoadCategoriesJob13setCategoriesERK5QListI18KdeLoggingCategoryE
libkdebugsettingscore.so.6:_ZN17LoadCategoriesJob20setRenamedCategoriesERK5QListI14RenameCategoryE
libkdebugsettingscore.so.6:_ZN17LoadCategoriesJob5startEv
libkdebugsettingscore.so.6:_ZN17LoadCategoriesJobC1Ev
libkdebugsettingscore.so.6:_ZN17LoadCategoriesJobC2Ev
libkdebugsettingscore.so.6:_ZN18ChangeDebugModeJob12setDebugModeERK7QString
libkdebugsettingscore.so.6:_ZN18ChangeDebugModeJob19setWithoutArgumentsEb
libkdebugsettingscore.so.6:_ZN18ChangeDebugModeJob24setLoggingCategoriesNameERK5QListI7QStringE
libkdebugsettingscore.so.6:_ZN18ChangeDebugModeJob5startEv
libkdebugsettingscore.so.6:_ZN18ChangeDebugModeJobC1Ev
libkdebugsettingscore.so.6:_ZN18ChangeDebugModeJobC2Ev
libkdebugsettingscore.so.6:_ZN18ChangeDebugModeJobD1Ev
libkdebugsettingscore.so.6:_ZN18ChangeDebugModeJobD2Ev
libkdebugsettingscore.so.6:_ZN18KDebugSettingsUtil10qtFileNameEv
libkdebugsettingscore.so.6:_ZN18KDebugSettingsUtil13groupFileListEv
libkdebugsettingscore.so.6:_ZN18KDebugSettingsUtil17hasWritableGroupsEv
libkdebugsettingscore.so.6:_ZN18KDebugSettingsUtil19generateDisplayRuleERK7QStringbN15LoggingCategory11LoggingTypeE
libkdebugsettingscore.so.6:_ZN18KDebugSettingsUtil19parseRenameCategoryE7QStringRKS0_
libkdebugsettingscore.so.6:_ZN18KDebugSettingsUtil20readRenameCategoriesERK7QString
libkdebugsettingscore.so.6:_ZN18KDebugSettingsUtil21readLoggingCategoriesERK7QStringR5QListI18KdeLoggingCategoryEb
libkdebugsettingscore.so.6:_ZN18KDebugSettingsUtil23readLoggingQtCategoriesERK7QString
libkdebugsettingscore.so.6:_ZN18KDebugSettingsUtil24defaultWritableGroupPathEv
libkdebugsettingscore.so.6:_ZN18KDebugSettingsUtil26parseLineLoggingQtCategoryERK7QString
libkdebugsettingscore.so.6:_ZN18KDebugSettingsUtil27convertCategoryTypeToStringEN15LoggingCategory11LoggingTypeE
libkdebugsettingscore.so.6:_ZN18KDebugSettingsUtil27parseLineKdeLoggingCategoryE7QStringRKS0_
libkdebugsettingscore.so.6:_ZN18KDebugSettingsUtil29convertCategoryTypeFromStringERK7QString
libkdebugsettingscore.so.6:_ZN18KDebugSettingsUtil31convertRuleStrToLoggingCategoryERK7QString
libkdebugsettingscore.so.6:_ZN18KDebugSettingsUtil33readLoggingCategoriesForInsertingERK7QStringR5QListI18KdeLoggingCategoryE
libkdebugsettingscore.so.6:_ZN22CategoryTypeProxyModel11qt_metacallEN11QMetaObject4CallEiPPv
libkdebugsettingscore.so.6:_ZN22CategoryTypeProxyModel11qt_metacastEPKc
libkdebugsettingscore.so.6:_ZN22CategoryTypeProxyModel14setShowOffTypeEb
libkdebugsettingscore.so.6:_ZN22CategoryTypeProxyModel16staticMetaObjectE
libkdebugsettingscore.so.6:_ZN22CategoryTypeProxyModel18showOffTypeChangedEv
libkdebugsettingscore.so.6:_ZN22CategoryTypeProxyModelC1EP7QObject
libkdebugsettingscore.so.6:_ZN22CategoryTypeProxyModelC2EP7QObject
libkdebugsettingscore.so.6:_ZN22CategoryTypeProxyModelD0Ev
libkdebugsettingscore.so.6:_ZN22CategoryTypeProxyModelD1Ev
libkdebugsettingscore.so.6:_ZN22CategoryTypeProxyModelD2Ev
libkdebugsettingscore.so.6:_ZN26CustomLoggingCategoryModel11addCategoryERK15LoggingCategory
libkdebugsettingscore.so.6:_ZN26CustomLoggingCategoryModel11qt_metacallEN11QMetaObject4CallEiPPv
libkdebugsettingscore.so.6:_ZN26CustomLoggingCategoryModel11qt_metacastEPKc
libkdebugsettingscore.so.6:_ZN26CustomLoggingCategoryModel12refreshModelEv
libkdebugsettingscore.so.6:_ZN26CustomLoggingCategoryModel14removeCategoryERK5QListI15LoggingCategoryE
libkdebugsettingscore.so.6:_ZN26CustomLoggingCategoryModel16insertCategoriesERK5QListI15LoggingCategoryE
libkdebugsettingscore.so.6:_ZN26CustomLoggingCategoryModel16staticMetaObjectE
libkdebugsettingscore.so.6:_ZN26CustomLoggingCategoryModel20setLoggingCategoriesERK5QListI15LoggingCategoryE
libkdebugsettingscore.so.6:_ZN26CustomLoggingCategoryModel5clearEv
libkdebugsettingscore.so.6:_ZN26CustomLoggingCategoryModel7setDataERK11QModelIndexRK8QVarianti
libkdebugsettingscore.so.6:_ZN26CustomLoggingCategoryModelC1EP7QObject
libkdebugsettingscore.so.6:_ZN26CustomLoggingCategoryModelC2EP7QObject
libkdebugsettingscore.so.6:_ZN26CustomLoggingCategoryModelD0Ev
libkdebugsettingscore.so.6:_ZN26CustomLoggingCategoryModelD1Ev
libkdebugsettingscore.so.6:_ZN26CustomLoggingCategoryModelD2Ev
libkdebugsettingscore.so.6:_ZN31CustomLoggingCategoryProxyModel11qt_metacallEN11QMetaObject4CallEiPPv
libkdebugsettingscore.so.6:_ZN31CustomLoggingCategoryProxyModel11qt_metacastEPKc
libkdebugsettingscore.so.6:_ZN31CustomLoggingCategoryProxyModel13setFilterTextERK7QString
libkdebugsettingscore.so.6:_ZN31CustomLoggingCategoryProxyModel16staticMetaObjectE
libkdebugsettingscore.so.6:_ZN31CustomLoggingCategoryProxyModel17filterTextChangedEv
libkdebugsettingscore.so.6:_ZN31CustomLoggingCategoryProxyModelC1EP7QObject
libkdebugsettingscore.so.6:_ZN31CustomLoggingCategoryProxyModelC2EP7QObject
libkdebugsettingscore.so.6:_ZN31CustomLoggingCategoryProxyModelD0Ev
libkdebugsettingscore.so.6:_ZN31CustomLoggingCategoryProxyModelD1Ev
libkdebugsettingscore.so.6:_ZN31CustomLoggingCategoryProxyModelD2Ev
libkdebugsettingscore.so.6:_ZN31KDebugSettingsLoadingCategories17readQtLoggingFileEv
libkdebugsettingscore.so.6:_ZN31KDebugSettingsLoadingCategories19readCategoriesFilesERK7QString
libkdebugsettingscore.so.6:_ZN31KDebugSettingsLoadingCategoriesC1Ev
libkdebugsettingscore.so.6:_ZN31KDebugSettingsLoadingCategoriesC2Ev
libkdebugsettingscore.so.6:_ZN31KDebugSettingsLoadingCategoriesD1Ev
libkdebugsettingscore.so.6:_ZN31KDebugSettingsLoadingCategoriesD2Ev
libkdebugsettingscore.so.6:_ZN34KDEApplicationLoggingCategoryModel11addCategoryERK15LoggingCategory
libkdebugsettingscore.so.6:_ZN34KDEApplicationLoggingCategoryModel11qt_metacallEN11QMetaObject4CallEiPPv
libkdebugsettingscore.so.6:_ZN34KDEApplicationLoggingCategoryModel11qt_metacastEPKc
libkdebugsettingscore.so.6:_ZN34KDEApplicationLoggingCategoryModel12refreshModelEv
libkdebugsettingscore.so.6:_ZN34KDEApplicationLoggingCategoryModel14removeCategoryERK5QListI15LoggingCategoryE
libkdebugsettingscore.so.6:_ZN34KDEApplicationLoggingCategoryModel16insertCategoriesERK5QListI15LoggingCategoryE
libkdebugsettingscore.so.6:_ZN34KDEApplicationLoggingCategoryModel16staticMetaObjectE
libkdebugsettingscore.so.6:_ZN34KDEApplicationLoggingCategoryModel17replaceCategoriesERK5QListI15LoggingCategoryE
libkdebugsettingscore.so.6:_ZN34KDEApplicationLoggingCategoryModel20setLoggingCategoriesERK5QListI15LoggingCategoryE
libkdebugsettingscore.so.6:_ZN34KDEApplicationLoggingCategoryModel5clearEv
libkdebugsettingscore.so.6:_ZN34KDEApplicationLoggingCategoryModel7setDataERK11QModelIndexRK8QVarianti
libkdebugsettingscore.so.6:_ZN34KDEApplicationLoggingCategoryModelC1EP7QObject
libkdebugsettingscore.so.6:_ZN34KDEApplicationLoggingCategoryModelC2EP7QObject
libkdebugsettingscore.so.6:_ZN34KDEApplicationLoggingCategoryModelD0Ev
libkdebugsettingscore.so.6:_ZN34KDEApplicationLoggingCategoryModelD1Ev
libkdebugsettingscore.so.6:_ZN34KDEApplicationLoggingCategoryModelD2Ev
libkdebugsettingscore.so.6:_ZN39KDEApplicationLoggingCategoryProxyModel11qt_metacallEN11QMetaObject4CallEiPPv
libkdebugsettingscore.so.6:_ZN39KDEApplicationLoggingCategoryProxyModel11qt_metacastEPKc
libkdebugsettingscore.so.6:_ZN39KDEApplicationLoggingCategoryProxyModel13setFilterTextERK7QString
libkdebugsettingscore.so.6:_ZN39KDEApplicationLoggingCategoryProxyModel16staticMetaObjectE
libkdebugsettingscore.so.6:_ZN39KDEApplicationLoggingCategoryProxyModel17filterTextChangedEv
libkdebugsettingscore.so.6:_ZN39KDEApplicationLoggingCategoryProxyModelC1EP7QObject
libkdebugsettingscore.so.6:_ZN39KDEApplicationLoggingCategoryProxyModelC2EP7QObject
libkdebugsettingscore.so.6:_ZN39KDEApplicationLoggingCategoryProxyModelD0Ev
libkdebugsettingscore.so.6:_ZN39KDEApplicationLoggingCategoryProxyModelD1Ev
libkdebugsettingscore.so.6:_ZN39KDEApplicationLoggingCategoryProxyModelD2Ev
libkdebugsettingscore.so.6:_ZNK12SaveRulesJob8fileNameEv
libkdebugsettingscore.so.6:_ZNK14LoggingManager10metaObjectEv
libkdebugsettingscore.so.6:_ZNK14LoggingManager14categoriesListEv
libkdebugsettingscore.so.6:_ZNK14LoggingManager16environmentrulesEv
libkdebugsettingscore.so.6:_ZNK14LoggingManager17categoryTypeModelEv
libkdebugsettingscore.so.6:_ZNK14LoggingManager17foundOverrideRuleEv
libkdebugsettingscore.so.6:_ZNK14LoggingManager18qtKdeCategoryModelEv
libkdebugsettingscore.so.6:_ZNK14LoggingManager19customCategoryModelEv
libkdebugsettingscore.so.6:_ZNK14LoggingManager8loggingsEv
libkdebugsettingscore.so.6:_ZNK15LoggingCategory10createRuleEv
libkdebugsettingscore.so.6:_ZNK15LoggingCategory15generateToolTipEv
libkdebugsettingscore.so.6:_ZNK15LoggingCategory16createCustomRuleEv
libkdebugsettingscore.so.6:_ZNK15LoggingCategory19generateDisplayRuleEv
libkdebugsettingscore.so.6:_ZNK15LoggingCategory27convertCategoryTypeToStringENS_11LoggingTypeE
libkdebugsettingscore.so.6:_ZNK15LoggingCategory7isValidEv
libkdebugsettingscore.so.6:_ZNK15LoggingCategoryeqERKS_
libkdebugsettingscore.so.6:_ZNK17CategoryTypeModel10metaObjectEv
libkdebugsettingscore.so.6:_ZNK17CategoryTypeModel15indexOfCategoryEN15LoggingCategory11LoggingTypeE
libkdebugsettingscore.so.6:_ZNK17CategoryTypeModel4dataERK11QModelIndexi
libkdebugsettingscore.so.6:_ZNK17CategoryTypeModel8rowCountERK11QModelIndex
libkdebugsettingscore.so.6:_ZNK17CategoryTypeModel9roleNamesEv
libkdebugsettingscore.so.6:_ZNK17LoadCategoriesJob15qtKdeCategoriesEv
libkdebugsettingscore.so.6:_ZNK17LoadCategoriesJob16customCategoriesEv
libkdebugsettingscore.so.6:_ZNK17LoadCategoriesJob17foundOverrideRuleEv
libkdebugsettingscore.so.6:_ZNK18ChangeDebugModeJob16debugModeIsValidERK7QString
libkdebugsettingscore.so.6:_ZNK18ChangeDebugModeJob16withoutArgumentsEv
libkdebugsettingscore.so.6:_ZNK18ChangeDebugModeJob21loggingCategoriesNameEv
libkdebugsettingscore.so.6:_ZNK18ChangeDebugModeJob29convertDebugModeToLoggingTypeERK7QString
libkdebugsettingscore.so.6:_ZNK18ChangeDebugModeJob8canStartEv
libkdebugsettingscore.so.6:_ZNK18ChangeDebugModeJob9debugModeEv
libkdebugsettingscore.so.6:_ZNK22CategoryTypeProxyModel10metaObjectEv
libkdebugsettingscore.so.6:_ZNK22CategoryTypeProxyModel11showOffTypeEv
libkdebugsettingscore.so.6:_ZNK22CategoryTypeProxyModel16filterAcceptsRowEiRK11QModelIndex
libkdebugsettingscore.so.6:_ZNK26CustomLoggingCategoryModel10metaObjectEv
libkdebugsettingscore.so.6:_ZNK26CustomLoggingCategoryModel11columnCountERK11QModelIndex
libkdebugsettingscore.so.6:_ZNK26CustomLoggingCategoryModel17loggingCategoriesEv
libkdebugsettingscore.so.6:_ZNK26CustomLoggingCategoryModel4dataERK11QModelIndexi
libkdebugsettingscore.so.6:_ZNK26CustomLoggingCategoryModel8rowCountERK11QModelIndex
libkdebugsettingscore.so.6:_ZNK26CustomLoggingCategoryModel9roleNamesEv
libkdebugsettingscore.so.6:_ZNK31CustomLoggingCategoryProxyModel10filterTextEv
libkdebugsettingscore.so.6:_ZNK31CustomLoggingCategoryProxyModel10metaObjectEv
libkdebugsettingscore.so.6:_ZNK31CustomLoggingCategoryProxyModel16filterAcceptsRowEiRK11QModelIndex
libkdebugsettingscore.so.6:_ZNK31KDebugSettingsLoadingCategories14categoriesListEv
libkdebugsettingscore.so.6:_ZNK31KDebugSettingsLoadingCategories15qtKdeCategoriesEv
libkdebugsettingscore.so.6:_ZNK31KDebugSettingsLoadingCategories16customCategoriesEv
libkdebugsettingscore.so.6:_ZNK31KDebugSettingsLoadingCategories16environmentrulesEv
libkdebugsettingscore.so.6:_ZNK31KDebugSettingsLoadingCategories17foundOverrideRuleEv
libkdebugsettingscore.so.6:_ZNK31KDebugSettingsLoadingCategories20renameCategoriesListEv
libkdebugsettingscore.so.6:_ZNK34KDEApplicationLoggingCategoryModel10metaObjectEv
libkdebugsettingscore.so.6:_ZNK34KDEApplicationLoggingCategoryModel11columnCountERK11QModelIndex
libkdebugsettingscore.so.6:_ZNK34KDEApplicationLoggingCategoryModel17loggingCategoriesEv
libkdebugsettingscore.so.6:_ZNK34KDEApplicationLoggingCategoryModel4dataERK11QModelIndexi
libkdebugsettingscore.so.6:_ZNK34KDEApplicationLoggingCategoryModel5flagsERK11QModelIndex
libkdebugsettingscore.so.6:_ZNK34KDEApplicationLoggingCategoryModel8rowCountERK11QModelIndex
libkdebugsettingscore.so.6:_ZNK34KDEApplicationLoggingCategoryModel9roleNamesEv
libkdebugsettingscore.so.6:_ZNK39KDEApplicationLoggingCategoryProxyModel10filterTextEv
libkdebugsettingscore.so.6:_ZNK39KDEApplicationLoggingCategoryProxyModel10metaObjectEv
libkdebugsettingscore.so.6:_ZNK39KDEApplicationLoggingCategoryProxyModel16filterAcceptsRowEiRK11QModelIndex
libkdebugsettingscore.so.6:_ZTI14LoggingManager
libkdebugsettingscore.so.6:_ZTI17CategoryTypeModel
libkdebugsettingscore.so.6:_ZTI22CategoryTypeProxyModel
libkdebugsettingscore.so.6:_ZTI26CustomLoggingCategoryModel
libkdebugsettingscore.so.6:_ZTI31CustomLoggingCategoryProxyModel
libkdebugsettingscore.so.6:_ZTI34KDEApplicationLoggingCategoryModel
libkdebugsettingscore.so.6:_ZTI39KDEApplicationLoggingCategoryProxyModel
libkdebugsettingscore.so.6:_ZTS14LoggingManager
libkdebugsettingscore.so.6:_ZTS17CategoryTypeModel
libkdebugsettingscore.so.6:_ZTS22CategoryTypeProxyModel
libkdebugsettingscore.so.6:_ZTS26CustomLoggingCategoryModel
libkdebugsettingscore.so.6:_ZTS31CustomLoggingCategoryProxyModel
libkdebugsettingscore.so.6:_ZTS34KDEApplicationLoggingCategoryModel
libkdebugsettingscore.so.6:_ZTS39KDEApplicationLoggingCategoryProxyModel
libkdebugsettingscore.so.6:_ZTV14LoggingManager
libkdebugsettingscore.so.6:_ZTV17CategoryTypeModel
libkdebugsettingscore.so.6:_ZTV22CategoryTypeProxyModel
libkdebugsettingscore.so.6:_ZTV26CustomLoggingCategoryModel
libkdebugsettingscore.so.6:_ZTV31CustomLoggingCategoryProxyModel
libkdebugsettingscore.so.6:_ZTV34KDEApplicationLoggingCategoryModel
libkdebugsettingscore.so.6:_ZTV39KDEApplicationLoggingCategoryProxyModel
libkdebugsettingscore.so.6:_Zls6QDebugRK15LoggingCategory
